   1              		.file	"gd32vw55x_spi.c"
   2              		.option nopic
   3              		.attribute arch, "rv32i2p0_m2p0_a2p0_c2p0"
   4              		.attribute unaligned_access, 0
   5              		.attribute stack_align, 16
   6              		.text
   7              	.Ltext0:
   8              		.cfi_sections	.debug_frame
   9              		.section	.text.spi_deinit,"ax",@progbits
  10              		.align	1
  11              		.globl	spi_deinit
  13              	spi_deinit:
  14              	.LFB347:
  15              		.file 1 "../Firmware/GD32VW55x_standard_peripheral/Source/gd32vw55x_spi.c"
   1:../Firmware/GD32VW55x_standard_peripheral/Source/gd32vw55x_spi.c **** /*!
   2:../Firmware/GD32VW55x_standard_peripheral/Source/gd32vw55x_spi.c ****     \file    gd32vw55x_spi.c
   3:../Firmware/GD32VW55x_standard_peripheral/Source/gd32vw55x_spi.c ****     \brief   SPI driver
   4:../Firmware/GD32VW55x_standard_peripheral/Source/gd32vw55x_spi.c **** 
   5:../Firmware/GD32VW55x_standard_peripheral/Source/gd32vw55x_spi.c ****     \version 2025-01-16, V1.4.0, firmware for GD32VW55x
   6:../Firmware/GD32VW55x_standard_peripheral/Source/gd32vw55x_spi.c **** */
   7:../Firmware/GD32VW55x_standard_peripheral/Source/gd32vw55x_spi.c **** 
   8:../Firmware/GD32VW55x_standard_peripheral/Source/gd32vw55x_spi.c **** /*
   9:../Firmware/GD32VW55x_standard_peripheral/Source/gd32vw55x_spi.c ****     Copyright (c) 2025, GigaDevice Semiconductor Inc.
  10:../Firmware/GD32VW55x_standard_peripheral/Source/gd32vw55x_spi.c **** 
  11:../Firmware/GD32VW55x_standard_peripheral/Source/gd32vw55x_spi.c ****     Redistribution and use in source and binary forms, with or without modification,
  12:../Firmware/GD32VW55x_standard_peripheral/Source/gd32vw55x_spi.c **** are permitted provided that the following conditions are met:
  13:../Firmware/GD32VW55x_standard_peripheral/Source/gd32vw55x_spi.c **** 
  14:../Firmware/GD32VW55x_standard_peripheral/Source/gd32vw55x_spi.c ****     1. Redistributions of source code must retain the above copyright notice, this
  15:../Firmware/GD32VW55x_standard_peripheral/Source/gd32vw55x_spi.c ****        list of conditions and the following disclaimer.
  16:../Firmware/GD32VW55x_standard_peripheral/Source/gd32vw55x_spi.c ****     2. Redistributions in binary form must reproduce the above copyright notice,
  17:../Firmware/GD32VW55x_standard_peripheral/Source/gd32vw55x_spi.c ****        this list of conditions and the following disclaimer in the documentation
  18:../Firmware/GD32VW55x_standard_peripheral/Source/gd32vw55x_spi.c ****        and/or other materials provided with the distribution.
  19:../Firmware/GD32VW55x_standard_peripheral/Source/gd32vw55x_spi.c ****     3. Neither the name of the copyright holder nor the names of its contributors
  20:../Firmware/GD32VW55x_standard_peripheral/Source/gd32vw55x_spi.c ****        may be used to endorse or promote products derived from this software without
  21:../Firmware/GD32VW55x_standard_peripheral/Source/gd32vw55x_spi.c ****        specific prior written permission.
  22:../Firmware/GD32VW55x_standard_peripheral/Source/gd32vw55x_spi.c **** 
  23:../Firmware/GD32VW55x_standard_peripheral/Source/gd32vw55x_spi.c ****     THIS SOFTWARE IS PROVIDED BY THE COPYRIGHT HOLDERS AND CONTRIBUTORS "AS IS"
  24:../Firmware/GD32VW55x_standard_peripheral/Source/gd32vw55x_spi.c **** AND ANY EXPRESS OR IMPLIED WARRANTIES, INCLUDING, BUT NOT LIMITED TO, THE IMPLIED
  25:../Firmware/GD32VW55x_standard_peripheral/Source/gd32vw55x_spi.c **** WARRANTIES OF MERCHANTABILITY AND FITNESS FOR A PARTICULAR PURPOSE ARE DISCLAIMED.
  26:../Firmware/GD32VW55x_standard_peripheral/Source/gd32vw55x_spi.c **** IN NO EVENT SHALL THE COPYRIGHT HOLDER OR CONTRIBUTORS BE LIABLE FOR ANY DIRECT,
  27:../Firmware/GD32VW55x_standard_peripheral/Source/gd32vw55x_spi.c **** INDIRECT, INCIDENTAL, SPECIAL, EXEMPLARY, OR CONSEQUENTIAL DAMAGES (INCLUDING, BUT
  28:../Firmware/GD32VW55x_standard_peripheral/Source/gd32vw55x_spi.c **** NOT LIMITED TO, PROCUREMENT OF SUBSTITUTE GOODS OR SERVICES; LOSS OF USE, DATA, OR
  29:../Firmware/GD32VW55x_standard_peripheral/Source/gd32vw55x_spi.c **** PROFITS; OR BUSINESS INTERRUPTION) HOWEVER CAUSED AND ON ANY THEORY OF LIABILITY,
  30:../Firmware/GD32VW55x_standard_peripheral/Source/gd32vw55x_spi.c **** WHETHER IN CONTRACT, STRICT LIABILITY, OR TORT (INCLUDING NEGLIGENCE OR OTHERWISE)
  31:../Firmware/GD32VW55x_standard_peripheral/Source/gd32vw55x_spi.c **** ARISING IN ANY WAY OUT OF THE USE OF THIS SOFTWARE, EVEN IF ADVISED OF THE POSSIBILITY
  32:../Firmware/GD32VW55x_standard_peripheral/Source/gd32vw55x_spi.c **** OF SUCH DAMAGE.
  33:../Firmware/GD32VW55x_standard_peripheral/Source/gd32vw55x_spi.c **** */
  34:../Firmware/GD32VW55x_standard_peripheral/Source/gd32vw55x_spi.c **** 
  35:../Firmware/GD32VW55x_standard_peripheral/Source/gd32vw55x_spi.c **** #include "gd32vw55x_spi.h"
  36:../Firmware/GD32VW55x_standard_peripheral/Source/gd32vw55x_spi.c **** 
  37:../Firmware/GD32VW55x_standard_peripheral/Source/gd32vw55x_spi.c **** /* SPI parameter initialization mask */
  38:../Firmware/GD32VW55x_standard_peripheral/Source/gd32vw55x_spi.c **** #define SPI_INIT_MASK                ((uint32_t)0x00003040U)
  39:../Firmware/GD32VW55x_standard_peripheral/Source/gd32vw55x_spi.c **** 
  40:../Firmware/GD32VW55x_standard_peripheral/Source/gd32vw55x_spi.c **** /*!
  41:../Firmware/GD32VW55x_standard_peripheral/Source/gd32vw55x_spi.c ****     \brief      reset SPI
  42:../Firmware/GD32VW55x_standard_peripheral/Source/gd32vw55x_spi.c ****     \param[in]  none
  43:../Firmware/GD32VW55x_standard_peripheral/Source/gd32vw55x_spi.c ****     \param[out] none
  44:../Firmware/GD32VW55x_standard_peripheral/Source/gd32vw55x_spi.c ****     \retval     none
  45:../Firmware/GD32VW55x_standard_peripheral/Source/gd32vw55x_spi.c **** */
  46:../Firmware/GD32VW55x_standard_peripheral/Source/gd32vw55x_spi.c **** void spi_deinit(void)
  47:../Firmware/GD32VW55x_standard_peripheral/Source/gd32vw55x_spi.c **** {
  16              		.loc 1 47 1
  17              		.cfi_startproc
  18 0000 4111     		addi	sp,sp,-16
  19              		.cfi_def_cfa_offset 16
  20 0002 06C6     		sw	ra,12(sp)
  21 0004 22C4     		sw	s0,8(sp)
  22              		.cfi_offset 1, -4
  23              		.cfi_offset 8, -8
  24 0006 0008     		addi	s0,sp,16
  25              		.cfi_def_cfa 8, 0
  48:../Firmware/GD32VW55x_standard_peripheral/Source/gd32vw55x_spi.c ****     /* reset SPI0 */
  49:../Firmware/GD32VW55x_standard_peripheral/Source/gd32vw55x_spi.c ****     rcu_periph_reset_enable(RCU_SPIRST);
  26              		.loc 1 49 5
  27 0008 8567     		li	a5,4096
  28 000a 1385C790 		addi	a0,a5,-1780
  29 000e 97000000 		call	rcu_periph_reset_enable
  29      E7800000 
  50:../Firmware/GD32VW55x_standard_peripheral/Source/gd32vw55x_spi.c ****     rcu_periph_reset_disable(RCU_SPIRST);
  30              		.loc 1 50 5
  31 0016 8567     		li	a5,4096
  32 0018 1385C790 		addi	a0,a5,-1780
  33 001c 97000000 		call	rcu_periph_reset_disable
  33      E7800000 
  51:../Firmware/GD32VW55x_standard_peripheral/Source/gd32vw55x_spi.c **** }
  34              		.loc 1 51 1
  35 0024 0100     		nop
  36 0026 B240     		lw	ra,12(sp)
  37              		.cfi_restore 1
  38 0028 2244     		lw	s0,8(sp)
  39              		.cfi_restore 8
  40              		.cfi_def_cfa 2, 16
  41 002a 4101     		addi	sp,sp,16
  42              		.cfi_def_cfa_offset 0
  43 002c 8280     		jr	ra
  44              		.cfi_endproc
  45              	.LFE347:
  47              		.section	.text.spi_struct_para_init,"ax",@progbits
  48              		.align	1
  49              		.globl	spi_struct_para_init
  51              	spi_struct_para_init:
  52              	.LFB348:
  52:../Firmware/GD32VW55x_standard_peripheral/Source/gd32vw55x_spi.c **** 
  53:../Firmware/GD32VW55x_standard_peripheral/Source/gd32vw55x_spi.c **** /*!
  54:../Firmware/GD32VW55x_standard_peripheral/Source/gd32vw55x_spi.c ****     \brief      initialize the parameters of SPI structure with default values
  55:../Firmware/GD32VW55x_standard_peripheral/Source/gd32vw55x_spi.c ****     \param[in]  none
  56:../Firmware/GD32VW55x_standard_peripheral/Source/gd32vw55x_spi.c ****     \param[out] spi_parameter_struct: the initialized structure spi_parameter_struct pointer
  57:../Firmware/GD32VW55x_standard_peripheral/Source/gd32vw55x_spi.c ****     \retval     none
  58:../Firmware/GD32VW55x_standard_peripheral/Source/gd32vw55x_spi.c **** */
  59:../Firmware/GD32VW55x_standard_peripheral/Source/gd32vw55x_spi.c **** void spi_struct_para_init(spi_parameter_struct *spi_struct)
  60:../Firmware/GD32VW55x_standard_peripheral/Source/gd32vw55x_spi.c **** {
  53              		.loc 1 60 1
  54              		.cfi_startproc
  55 0000 0111     		addi	sp,sp,-32
  56              		.cfi_def_cfa_offset 32
  57 0002 22CE     		sw	s0,28(sp)
  58              		.cfi_offset 8, -4
  59 0004 0010     		addi	s0,sp,32
  60              		.cfi_def_cfa 8, 0
  61 0006 2326A4FE 		sw	a0,-20(s0)
  61:../Firmware/GD32VW55x_standard_peripheral/Source/gd32vw55x_spi.c ****     /* configure the structure with default value */
  62:../Firmware/GD32VW55x_standard_peripheral/Source/gd32vw55x_spi.c ****     spi_struct->device_mode          = SPI_SLAVE;
  62              		.loc 1 62 38
  63 000a 8327C4FE 		lw	a5,-20(s0)
  64 000e 23A00700 		sw	zero,0(a5)
  63:../Firmware/GD32VW55x_standard_peripheral/Source/gd32vw55x_spi.c ****     spi_struct->trans_mode           = SPI_TRANSMODE_FULLDUPLEX;
  65              		.loc 1 63 38
  66 0012 8327C4FE 		lw	a5,-20(s0)
  67 0016 23A20700 		sw	zero,4(a5)
  64:../Firmware/GD32VW55x_standard_peripheral/Source/gd32vw55x_spi.c ****     spi_struct->frame_size           = SPI_FRAMESIZE_8BIT;
  68              		.loc 1 64 38
  69 001a 8327C4FE 		lw	a5,-20(s0)
  70 001e 23A40700 		sw	zero,8(a5)
  65:../Firmware/GD32VW55x_standard_peripheral/Source/gd32vw55x_spi.c ****     spi_struct->nss                  = SPI_NSS_HARD;
  71              		.loc 1 65 38
  72 0022 8327C4FE 		lw	a5,-20(s0)
  73 0026 23A60700 		sw	zero,12(a5)
  66:../Firmware/GD32VW55x_standard_peripheral/Source/gd32vw55x_spi.c ****     spi_struct->clock_polarity_phase = SPI_CK_PL_LOW_PH_1EDGE;
  74              		.loc 1 66 38
  75 002a 8327C4FE 		lw	a5,-20(s0)
  76 002e 23AA0700 		sw	zero,20(a5)
  67:../Firmware/GD32VW55x_standard_peripheral/Source/gd32vw55x_spi.c ****     spi_struct->prescale             = SPI_PSC_2;
  77              		.loc 1 67 38
  78 0032 8327C4FE 		lw	a5,-20(s0)
  79 0036 23AC0700 		sw	zero,24(a5)
  68:../Firmware/GD32VW55x_standard_peripheral/Source/gd32vw55x_spi.c ****     spi_struct->endian               = SPI_ENDIAN_MSB;
  80              		.loc 1 68 38
  81 003a 8327C4FE 		lw	a5,-20(s0)
  82 003e 23A80700 		sw	zero,16(a5)
  69:../Firmware/GD32VW55x_standard_peripheral/Source/gd32vw55x_spi.c **** }
  83              		.loc 1 69 1
  84 0042 0100     		nop
  85 0044 7244     		lw	s0,28(sp)
  86              		.cfi_restore 8
  87              		.cfi_def_cfa 2, 32
  88 0046 0561     		addi	sp,sp,32
  89              		.cfi_def_cfa_offset 0
  90 0048 8280     		jr	ra
  91              		.cfi_endproc
  92              	.LFE348:
  94              		.section	.text.spi_init,"ax",@progbits
  95              		.align	1
  96              		.globl	spi_init
  98              	spi_init:
  99              	.LFB349:
  70:../Firmware/GD32VW55x_standard_peripheral/Source/gd32vw55x_spi.c **** 
  71:../Firmware/GD32VW55x_standard_peripheral/Source/gd32vw55x_spi.c **** /*!
  72:../Firmware/GD32VW55x_standard_peripheral/Source/gd32vw55x_spi.c ****     \brief      initialize SPI parameter
  73:../Firmware/GD32VW55x_standard_peripheral/Source/gd32vw55x_spi.c ****     \param[in]  spi_struct: SPI parameter initialization stucture members of the structure
  74:../Firmware/GD32VW55x_standard_peripheral/Source/gd32vw55x_spi.c ****                             and the member values are shown as below:
  75:../Firmware/GD32VW55x_standard_peripheral/Source/gd32vw55x_spi.c ****                   device_mode: SPI_MASTER, SPI_SLAVE
  76:../Firmware/GD32VW55x_standard_peripheral/Source/gd32vw55x_spi.c ****                   trans_mode: SPI_TRANSMODE_FULLDUPLEX, SPI_TRANSMODE_RECEIVEONLY,
  77:../Firmware/GD32VW55x_standard_peripheral/Source/gd32vw55x_spi.c ****                               SPI_TRANSMODE_BDRECEIVE, SPI_TRANSMODE_BDTRANSMIT
  78:../Firmware/GD32VW55x_standard_peripheral/Source/gd32vw55x_spi.c ****                   frame_size: SPI_FRAMESIZE_16BIT, SPI_FRAMESIZE_8BIT
  79:../Firmware/GD32VW55x_standard_peripheral/Source/gd32vw55x_spi.c ****                   nss: SPI_NSS_SOFT, SPI_NSS_HARD
  80:../Firmware/GD32VW55x_standard_peripheral/Source/gd32vw55x_spi.c ****                   endian: SPI_ENDIAN_MSB, SPI_ENDIAN_LSB
  81:../Firmware/GD32VW55x_standard_peripheral/Source/gd32vw55x_spi.c ****                   clock_polarity_phase: SPI_CK_PL_LOW_PH_1EDGE, SPI_CK_PL_HIGH_PH_1EDGE
  82:../Firmware/GD32VW55x_standard_peripheral/Source/gd32vw55x_spi.c ****                                         SPI_CK_PL_LOW_PH_2EDGE, SPI_CK_PL_HIGH_PH_2EDGE
  83:../Firmware/GD32VW55x_standard_peripheral/Source/gd32vw55x_spi.c ****                   prescale: SPI_PSC_n (n=2,4,8,16,32,64,128,256)
  84:../Firmware/GD32VW55x_standard_peripheral/Source/gd32vw55x_spi.c ****     \param[out] none
  85:../Firmware/GD32VW55x_standard_peripheral/Source/gd32vw55x_spi.c ****     \retval     none
  86:../Firmware/GD32VW55x_standard_peripheral/Source/gd32vw55x_spi.c **** */
  87:../Firmware/GD32VW55x_standard_peripheral/Source/gd32vw55x_spi.c **** void spi_init(spi_parameter_struct* spi_struct)
  88:../Firmware/GD32VW55x_standard_peripheral/Source/gd32vw55x_spi.c **** {
 100              		.loc 1 88 1
 101              		.cfi_startproc
 102 0000 7971     		addi	sp,sp,-48
 103              		.cfi_def_cfa_offset 48
 104 0002 22D6     		sw	s0,44(sp)
 105              		.cfi_offset 8, -4
 106 0004 0018     		addi	s0,sp,48
 107              		.cfi_def_cfa 8, 0
 108 0006 232EA4FC 		sw	a0,-36(s0)
  89:../Firmware/GD32VW55x_standard_peripheral/Source/gd32vw55x_spi.c ****     uint32_t reg = 0U;
 109              		.loc 1 89 14
 110 000a 232604FE 		sw	zero,-20(s0)
  90:../Firmware/GD32VW55x_standard_peripheral/Source/gd32vw55x_spi.c ****     reg = SPI_CTL0;
 111              		.loc 1 90 11
 112 000e B7370140 		li	a5,1073819648
 113              		.loc 1 90 9
 114 0012 9C43     		lw	a5,0(a5)
 115 0014 2326F4FE 		sw	a5,-20(s0)
  91:../Firmware/GD32VW55x_standard_peripheral/Source/gd32vw55x_spi.c ****     reg &= SPI_INIT_MASK;
 116              		.loc 1 91 9
 117 0018 0327C4FE 		lw	a4,-20(s0)
 118 001c 8D67     		li	a5,12288
 119 001e 93870704 		addi	a5,a5,64
 120 0022 F98F     		and	a5,a4,a5
 121 0024 2326F4FE 		sw	a5,-20(s0)
  92:../Firmware/GD32VW55x_standard_peripheral/Source/gd32vw55x_spi.c **** 
  93:../Firmware/GD32VW55x_standard_peripheral/Source/gd32vw55x_spi.c ****     /* select SPI as master or slave */
  94:../Firmware/GD32VW55x_standard_peripheral/Source/gd32vw55x_spi.c ****     reg |= spi_struct->device_mode;
 122              		.loc 1 94 22
 123 0028 8327C4FD 		lw	a5,-36(s0)
 124 002c 9C43     		lw	a5,0(a5)
 125              		.loc 1 94 9
 126 002e 0327C4FE 		lw	a4,-20(s0)
 127 0032 D98F     		or	a5,a4,a5
 128 0034 2326F4FE 		sw	a5,-20(s0)
  95:../Firmware/GD32VW55x_standard_peripheral/Source/gd32vw55x_spi.c ****     /* select SPI transfer mode */
  96:../Firmware/GD32VW55x_standard_peripheral/Source/gd32vw55x_spi.c ****     reg |= spi_struct->trans_mode;
 129              		.loc 1 96 22
 130 0038 8327C4FD 		lw	a5,-36(s0)
 131 003c DC43     		lw	a5,4(a5)
 132              		.loc 1 96 9
 133 003e 0327C4FE 		lw	a4,-20(s0)
 134 0042 D98F     		or	a5,a4,a5
 135 0044 2326F4FE 		sw	a5,-20(s0)
  97:../Firmware/GD32VW55x_standard_peripheral/Source/gd32vw55x_spi.c ****     /* select SPI frame size */
  98:../Firmware/GD32VW55x_standard_peripheral/Source/gd32vw55x_spi.c ****     reg |= spi_struct->frame_size;
 136              		.loc 1 98 22
 137 0048 8327C4FD 		lw	a5,-36(s0)
 138 004c 9C47     		lw	a5,8(a5)
 139              		.loc 1 98 9
 140 004e 0327C4FE 		lw	a4,-20(s0)
 141 0052 D98F     		or	a5,a4,a5
 142 0054 2326F4FE 		sw	a5,-20(s0)
  99:../Firmware/GD32VW55x_standard_peripheral/Source/gd32vw55x_spi.c ****     /* select SPI NSS use hardware or software */
 100:../Firmware/GD32VW55x_standard_peripheral/Source/gd32vw55x_spi.c ****     reg |= spi_struct->nss;
 143              		.loc 1 100 22
 144 0058 8327C4FD 		lw	a5,-36(s0)
 145 005c DC47     		lw	a5,12(a5)
 146              		.loc 1 100 9
 147 005e 0327C4FE 		lw	a4,-20(s0)
 148 0062 D98F     		or	a5,a4,a5
 149 0064 2326F4FE 		sw	a5,-20(s0)
 101:../Firmware/GD32VW55x_standard_peripheral/Source/gd32vw55x_spi.c ****     /* select SPI LSB or MSB */
 102:../Firmware/GD32VW55x_standard_peripheral/Source/gd32vw55x_spi.c ****     reg |= spi_struct->endian;
 150              		.loc 1 102 22
 151 0068 8327C4FD 		lw	a5,-36(s0)
 152 006c 9C4B     		lw	a5,16(a5)
 153              		.loc 1 102 9
 154 006e 0327C4FE 		lw	a4,-20(s0)
 155 0072 D98F     		or	a5,a4,a5
 156 0074 2326F4FE 		sw	a5,-20(s0)
 103:../Firmware/GD32VW55x_standard_peripheral/Source/gd32vw55x_spi.c ****     /* select SPI polarity and phase */
 104:../Firmware/GD32VW55x_standard_peripheral/Source/gd32vw55x_spi.c ****     reg |= spi_struct->clock_polarity_phase;
 157              		.loc 1 104 22
 158 0078 8327C4FD 		lw	a5,-36(s0)
 159 007c DC4B     		lw	a5,20(a5)
 160              		.loc 1 104 9
 161 007e 0327C4FE 		lw	a4,-20(s0)
 162 0082 D98F     		or	a5,a4,a5
 163 0084 2326F4FE 		sw	a5,-20(s0)
 105:../Firmware/GD32VW55x_standard_peripheral/Source/gd32vw55x_spi.c ****     /* select SPI prescale to adjust transmit speed */
 106:../Firmware/GD32VW55x_standard_peripheral/Source/gd32vw55x_spi.c ****     reg |= spi_struct->prescale;
 164              		.loc 1 106 22
 165 0088 8327C4FD 		lw	a5,-36(s0)
 166 008c 9C4F     		lw	a5,24(a5)
 167              		.loc 1 106 9
 168 008e 0327C4FE 		lw	a4,-20(s0)
 169 0092 D98F     		or	a5,a4,a5
 170 0094 2326F4FE 		sw	a5,-20(s0)
 107:../Firmware/GD32VW55x_standard_peripheral/Source/gd32vw55x_spi.c **** 
 108:../Firmware/GD32VW55x_standard_peripheral/Source/gd32vw55x_spi.c ****     /* write to SPI_CTL0 register */
 109:../Firmware/GD32VW55x_standard_peripheral/Source/gd32vw55x_spi.c ****     SPI_CTL0 = (uint32_t)reg;
 171              		.loc 1 109 5
 172 0098 B7370140 		li	a5,1073819648
 173              		.loc 1 109 14
 174 009c 0327C4FE 		lw	a4,-20(s0)
 175 00a0 98C3     		sw	a4,0(a5)
 110:../Firmware/GD32VW55x_standard_peripheral/Source/gd32vw55x_spi.c **** }
 176              		.loc 1 110 1
 177 00a2 0100     		nop
 178 00a4 3254     		lw	s0,44(sp)
 179              		.cfi_restore 8
 180              		.cfi_def_cfa 2, 48
 181 00a6 4561     		addi	sp,sp,48
 182              		.cfi_def_cfa_offset 0
 183 00a8 8280     		jr	ra
 184              		.cfi_endproc
 185              	.LFE349:
 187              		.section	.text.spi_enable,"ax",@progbits
 188              		.align	1
 189              		.globl	spi_enable
 191              	spi_enable:
 192              	.LFB350:
 111:../Firmware/GD32VW55x_standard_peripheral/Source/gd32vw55x_spi.c **** 
 112:../Firmware/GD32VW55x_standard_peripheral/Source/gd32vw55x_spi.c **** /*!
 113:../Firmware/GD32VW55x_standard_peripheral/Source/gd32vw55x_spi.c ****     \brief      enable SPI
 114:../Firmware/GD32VW55x_standard_peripheral/Source/gd32vw55x_spi.c ****     \param[in]  none
 115:../Firmware/GD32VW55x_standard_peripheral/Source/gd32vw55x_spi.c ****     \param[out] none
 116:../Firmware/GD32VW55x_standard_peripheral/Source/gd32vw55x_spi.c ****     \retval     none
 117:../Firmware/GD32VW55x_standard_peripheral/Source/gd32vw55x_spi.c **** */
 118:../Firmware/GD32VW55x_standard_peripheral/Source/gd32vw55x_spi.c **** void spi_enable(void)
 119:../Firmware/GD32VW55x_standard_peripheral/Source/gd32vw55x_spi.c **** {
 193              		.loc 1 119 1
 194              		.cfi_startproc
 195 0000 4111     		addi	sp,sp,-16
 196              		.cfi_def_cfa_offset 16
 197 0002 22C6     		sw	s0,12(sp)
 198              		.cfi_offset 8, -4
 199 0004 0008     		addi	s0,sp,16
 200              		.cfi_def_cfa 8, 0
 120:../Firmware/GD32VW55x_standard_peripheral/Source/gd32vw55x_spi.c ****     SPI_CTL0 |= (uint32_t)SPI_CTL0_SPIEN;
 201              		.loc 1 120 14
 202 0006 B7370140 		li	a5,1073819648
 203 000a 9843     		lw	a4,0(a5)
 204 000c B7370140 		li	a5,1073819648
 205 0010 13670704 		ori	a4,a4,64
 206 0014 98C3     		sw	a4,0(a5)
 121:../Firmware/GD32VW55x_standard_peripheral/Source/gd32vw55x_spi.c **** }
 207              		.loc 1 121 1
 208 0016 0100     		nop
 209 0018 3244     		lw	s0,12(sp)
 210              		.cfi_restore 8
 211              		.cfi_def_cfa 2, 16
 212 001a 4101     		addi	sp,sp,16
 213              		.cfi_def_cfa_offset 0
 214 001c 8280     		jr	ra
 215              		.cfi_endproc
 216              	.LFE350:
 218              		.section	.text.spi_disable,"ax",@progbits
 219              		.align	1
 220              		.globl	spi_disable
 222              	spi_disable:
 223              	.LFB351:
 122:../Firmware/GD32VW55x_standard_peripheral/Source/gd32vw55x_spi.c **** 
 123:../Firmware/GD32VW55x_standard_peripheral/Source/gd32vw55x_spi.c **** /*!
 124:../Firmware/GD32VW55x_standard_peripheral/Source/gd32vw55x_spi.c ****     \brief      disable SPI
 125:../Firmware/GD32VW55x_standard_peripheral/Source/gd32vw55x_spi.c ****     \param[in]  none
 126:../Firmware/GD32VW55x_standard_peripheral/Source/gd32vw55x_spi.c ****     \param[out] none
 127:../Firmware/GD32VW55x_standard_peripheral/Source/gd32vw55x_spi.c ****     \retval     none
 128:../Firmware/GD32VW55x_standard_peripheral/Source/gd32vw55x_spi.c **** */
 129:../Firmware/GD32VW55x_standard_peripheral/Source/gd32vw55x_spi.c **** void spi_disable(void)
 130:../Firmware/GD32VW55x_standard_peripheral/Source/gd32vw55x_spi.c **** {
 224              		.loc 1 130 1
 225              		.cfi_startproc
 226 0000 4111     		addi	sp,sp,-16
 227              		.cfi_def_cfa_offset 16
 228 0002 22C6     		sw	s0,12(sp)
 229              		.cfi_offset 8, -4
 230 0004 0008     		addi	s0,sp,16
 231              		.cfi_def_cfa 8, 0
 131:../Firmware/GD32VW55x_standard_peripheral/Source/gd32vw55x_spi.c ****     SPI_CTL0 &= (uint32_t)(~SPI_CTL0_SPIEN);
 232              		.loc 1 131 14
 233 0006 B7370140 		li	a5,1073819648
 234 000a 9843     		lw	a4,0(a5)
 235 000c B7370140 		li	a5,1073819648
 236 0010 1377F7FB 		andi	a4,a4,-65
 237 0014 98C3     		sw	a4,0(a5)
 132:../Firmware/GD32VW55x_standard_peripheral/Source/gd32vw55x_spi.c **** }
 238              		.loc 1 132 1
 239 0016 0100     		nop
 240 0018 3244     		lw	s0,12(sp)
 241              		.cfi_restore 8
 242              		.cfi_def_cfa 2, 16
 243 001a 4101     		addi	sp,sp,16
 244              		.cfi_def_cfa_offset 0
 245 001c 8280     		jr	ra
 246              		.cfi_endproc
 247              	.LFE351:
 249              		.section	.text.spi_nss_output_enable,"ax",@progbits
 250              		.align	1
 251              		.globl	spi_nss_output_enable
 253              	spi_nss_output_enable:
 254              	.LFB352:
 133:../Firmware/GD32VW55x_standard_peripheral/Source/gd32vw55x_spi.c **** 
 134:../Firmware/GD32VW55x_standard_peripheral/Source/gd32vw55x_spi.c **** /*!
 135:../Firmware/GD32VW55x_standard_peripheral/Source/gd32vw55x_spi.c ****     \brief      enable SPI NSS output
 136:../Firmware/GD32VW55x_standard_peripheral/Source/gd32vw55x_spi.c ****     \param[in]  none
 137:../Firmware/GD32VW55x_standard_peripheral/Source/gd32vw55x_spi.c ****     \param[out] none
 138:../Firmware/GD32VW55x_standard_peripheral/Source/gd32vw55x_spi.c ****     \retval     none
 139:../Firmware/GD32VW55x_standard_peripheral/Source/gd32vw55x_spi.c **** */
 140:../Firmware/GD32VW55x_standard_peripheral/Source/gd32vw55x_spi.c **** void spi_nss_output_enable(void)
 141:../Firmware/GD32VW55x_standard_peripheral/Source/gd32vw55x_spi.c **** {
 255              		.loc 1 141 1
 256              		.cfi_startproc
 257 0000 4111     		addi	sp,sp,-16
 258              		.cfi_def_cfa_offset 16
 259 0002 22C6     		sw	s0,12(sp)
 260              		.cfi_offset 8, -4
 261 0004 0008     		addi	s0,sp,16
 262              		.cfi_def_cfa 8, 0
 142:../Firmware/GD32VW55x_standard_peripheral/Source/gd32vw55x_spi.c ****     SPI_CTL1 |= (uint32_t)SPI_CTL1_NSSDRV;
 263              		.loc 1 142 14
 264 0006 B7370140 		li	a5,1073819648
 265 000a 9107     		addi	a5,a5,4
 266 000c 9843     		lw	a4,0(a5)
 267 000e B7370140 		li	a5,1073819648
 268 0012 9107     		addi	a5,a5,4
 269 0014 13674700 		ori	a4,a4,4
 270 0018 98C3     		sw	a4,0(a5)
 143:../Firmware/GD32VW55x_standard_peripheral/Source/gd32vw55x_spi.c **** }
 271              		.loc 1 143 1
 272 001a 0100     		nop
 273 001c 3244     		lw	s0,12(sp)
 274              		.cfi_restore 8
 275              		.cfi_def_cfa 2, 16
 276 001e 4101     		addi	sp,sp,16
 277              		.cfi_def_cfa_offset 0
 278 0020 8280     		jr	ra
 279              		.cfi_endproc
 280              	.LFE352:
 282              		.section	.text.spi_nss_output_disable,"ax",@progbits
 283              		.align	1
 284              		.globl	spi_nss_output_disable
 286              	spi_nss_output_disable:
 287              	.LFB353:
 144:../Firmware/GD32VW55x_standard_peripheral/Source/gd32vw55x_spi.c **** 
 145:../Firmware/GD32VW55x_standard_peripheral/Source/gd32vw55x_spi.c **** /*!
 146:../Firmware/GD32VW55x_standard_peripheral/Source/gd32vw55x_spi.c ****     \brief      disable SPI NSS output
 147:../Firmware/GD32VW55x_standard_peripheral/Source/gd32vw55x_spi.c ****     \param[in]  none
 148:../Firmware/GD32VW55x_standard_peripheral/Source/gd32vw55x_spi.c ****     \param[out] none
 149:../Firmware/GD32VW55x_standard_peripheral/Source/gd32vw55x_spi.c ****     \retval     none
 150:../Firmware/GD32VW55x_standard_peripheral/Source/gd32vw55x_spi.c **** */
 151:../Firmware/GD32VW55x_standard_peripheral/Source/gd32vw55x_spi.c **** void spi_nss_output_disable(void)
 152:../Firmware/GD32VW55x_standard_peripheral/Source/gd32vw55x_spi.c **** {
 288              		.loc 1 152 1
 289              		.cfi_startproc
 290 0000 4111     		addi	sp,sp,-16
 291              		.cfi_def_cfa_offset 16
 292 0002 22C6     		sw	s0,12(sp)
 293              		.cfi_offset 8, -4
 294 0004 0008     		addi	s0,sp,16
 295              		.cfi_def_cfa 8, 0
 153:../Firmware/GD32VW55x_standard_peripheral/Source/gd32vw55x_spi.c ****     SPI_CTL1 &= (uint32_t)(~SPI_CTL1_NSSDRV);
 296              		.loc 1 153 14
 297 0006 B7370140 		li	a5,1073819648
 298 000a 9107     		addi	a5,a5,4
 299 000c 9843     		lw	a4,0(a5)
 300 000e B7370140 		li	a5,1073819648
 301 0012 9107     		addi	a5,a5,4
 302 0014 6D9B     		andi	a4,a4,-5
 303 0016 98C3     		sw	a4,0(a5)
 154:../Firmware/GD32VW55x_standard_peripheral/Source/gd32vw55x_spi.c **** }
 304              		.loc 1 154 1
 305 0018 0100     		nop
 306 001a 3244     		lw	s0,12(sp)
 307              		.cfi_restore 8
 308              		.cfi_def_cfa 2, 16
 309 001c 4101     		addi	sp,sp,16
 310              		.cfi_def_cfa_offset 0
 311 001e 8280     		jr	ra
 312              		.cfi_endproc
 313              	.LFE353:
 315              		.section	.text.spi_nss_internal_high,"ax",@progbits
 316              		.align	1
 317              		.globl	spi_nss_internal_high
 319              	spi_nss_internal_high:
 320              	.LFB354:
 155:../Firmware/GD32VW55x_standard_peripheral/Source/gd32vw55x_spi.c **** 
 156:../Firmware/GD32VW55x_standard_peripheral/Source/gd32vw55x_spi.c **** /*!
 157:../Firmware/GD32VW55x_standard_peripheral/Source/gd32vw55x_spi.c ****     \brief      SPI NSS pin high level in software mode
 158:../Firmware/GD32VW55x_standard_peripheral/Source/gd32vw55x_spi.c ****     \param[in]  none
 159:../Firmware/GD32VW55x_standard_peripheral/Source/gd32vw55x_spi.c ****     \param[out] none
 160:../Firmware/GD32VW55x_standard_peripheral/Source/gd32vw55x_spi.c ****     \retval     none
 161:../Firmware/GD32VW55x_standard_peripheral/Source/gd32vw55x_spi.c **** */
 162:../Firmware/GD32VW55x_standard_peripheral/Source/gd32vw55x_spi.c **** void spi_nss_internal_high(void)
 163:../Firmware/GD32VW55x_standard_peripheral/Source/gd32vw55x_spi.c **** {
 321              		.loc 1 163 1
 322              		.cfi_startproc
 323 0000 4111     		addi	sp,sp,-16
 324              		.cfi_def_cfa_offset 16
 325 0002 22C6     		sw	s0,12(sp)
 326              		.cfi_offset 8, -4
 327 0004 0008     		addi	s0,sp,16
 328              		.cfi_def_cfa 8, 0
 164:../Firmware/GD32VW55x_standard_peripheral/Source/gd32vw55x_spi.c ****     SPI_CTL0 |= (uint32_t)SPI_CTL0_SWNSS;
 329              		.loc 1 164 14
 330 0006 B7370140 		li	a5,1073819648
 331 000a 9843     		lw	a4,0(a5)
 332 000c B7370140 		li	a5,1073819648
 333 0010 13670710 		ori	a4,a4,256
 334 0014 98C3     		sw	a4,0(a5)
 165:../Firmware/GD32VW55x_standard_peripheral/Source/gd32vw55x_spi.c **** }
 335              		.loc 1 165 1
 336 0016 0100     		nop
 337 0018 3244     		lw	s0,12(sp)
 338              		.cfi_restore 8
 339              		.cfi_def_cfa 2, 16
 340 001a 4101     		addi	sp,sp,16
 341              		.cfi_def_cfa_offset 0
 342 001c 8280     		jr	ra
 343              		.cfi_endproc
 344              	.LFE354:
 346              		.section	.text.spi_nss_internal_low,"ax",@progbits
 347              		.align	1
 348              		.globl	spi_nss_internal_low
 350              	spi_nss_internal_low:
 351              	.LFB355:
 166:../Firmware/GD32VW55x_standard_peripheral/Source/gd32vw55x_spi.c **** 
 167:../Firmware/GD32VW55x_standard_peripheral/Source/gd32vw55x_spi.c **** /*!
 168:../Firmware/GD32VW55x_standard_peripheral/Source/gd32vw55x_spi.c ****     \brief      SPI NSS pin low level in software mode
 169:../Firmware/GD32VW55x_standard_peripheral/Source/gd32vw55x_spi.c ****     \param[in]  none
 170:../Firmware/GD32VW55x_standard_peripheral/Source/gd32vw55x_spi.c ****     \param[out] none
 171:../Firmware/GD32VW55x_standard_peripheral/Source/gd32vw55x_spi.c ****     \retval     none
 172:../Firmware/GD32VW55x_standard_peripheral/Source/gd32vw55x_spi.c **** */
 173:../Firmware/GD32VW55x_standard_peripheral/Source/gd32vw55x_spi.c **** void spi_nss_internal_low(void)
 174:../Firmware/GD32VW55x_standard_peripheral/Source/gd32vw55x_spi.c **** {
 352              		.loc 1 174 1
 353              		.cfi_startproc
 354 0000 4111     		addi	sp,sp,-16
 355              		.cfi_def_cfa_offset 16
 356 0002 22C6     		sw	s0,12(sp)
 357              		.cfi_offset 8, -4
 358 0004 0008     		addi	s0,sp,16
 359              		.cfi_def_cfa 8, 0
 175:../Firmware/GD32VW55x_standard_peripheral/Source/gd32vw55x_spi.c ****     SPI_CTL0 &= (uint32_t)(~SPI_CTL0_SWNSS);
 360              		.loc 1 175 14
 361 0006 B7370140 		li	a5,1073819648
 362 000a 9843     		lw	a4,0(a5)
 363 000c B7370140 		li	a5,1073819648
 364 0010 1377F7EF 		andi	a4,a4,-257
 365 0014 98C3     		sw	a4,0(a5)
 176:../Firmware/GD32VW55x_standard_peripheral/Source/gd32vw55x_spi.c **** }
 366              		.loc 1 176 1
 367 0016 0100     		nop
 368 0018 3244     		lw	s0,12(sp)
 369              		.cfi_restore 8
 370              		.cfi_def_cfa 2, 16
 371 001a 4101     		addi	sp,sp,16
 372              		.cfi_def_cfa_offset 0
 373 001c 8280     		jr	ra
 374              		.cfi_endproc
 375              	.LFE355:
 377              		.section	.text.spi_dma_enable,"ax",@progbits
 378              		.align	1
 379              		.globl	spi_dma_enable
 381              	spi_dma_enable:
 382              	.LFB356:
 177:../Firmware/GD32VW55x_standard_peripheral/Source/gd32vw55x_spi.c **** 
 178:../Firmware/GD32VW55x_standard_peripheral/Source/gd32vw55x_spi.c **** /*!
 179:../Firmware/GD32VW55x_standard_peripheral/Source/gd32vw55x_spi.c ****     \brief      enable SPI DMA send or receive
 180:../Firmware/GD32VW55x_standard_peripheral/Source/gd32vw55x_spi.c ****     \param[in]  spi_dma: SPI DMA mode
 181:../Firmware/GD32VW55x_standard_peripheral/Source/gd32vw55x_spi.c ****                 only one parameter can be selected which is shown as below:
 182:../Firmware/GD32VW55x_standard_peripheral/Source/gd32vw55x_spi.c ****       \arg        SPI_DMA_TRANSMIT: SPI transmit data use DMA
 183:../Firmware/GD32VW55x_standard_peripheral/Source/gd32vw55x_spi.c ****       \arg        SPI_DMA_RECEIVE: SPI receive data use DMA
 184:../Firmware/GD32VW55x_standard_peripheral/Source/gd32vw55x_spi.c ****     \param[out] none
 185:../Firmware/GD32VW55x_standard_peripheral/Source/gd32vw55x_spi.c ****     \retval     none
 186:../Firmware/GD32VW55x_standard_peripheral/Source/gd32vw55x_spi.c **** */
 187:../Firmware/GD32VW55x_standard_peripheral/Source/gd32vw55x_spi.c **** void spi_dma_enable(uint8_t spi_dma)
 188:../Firmware/GD32VW55x_standard_peripheral/Source/gd32vw55x_spi.c **** {
 383              		.loc 1 188 1
 384              		.cfi_startproc
 385 0000 0111     		addi	sp,sp,-32
 386              		.cfi_def_cfa_offset 32
 387 0002 22CE     		sw	s0,28(sp)
 388              		.cfi_offset 8, -4
 389 0004 0010     		addi	s0,sp,32
 390              		.cfi_def_cfa 8, 0
 391 0006 AA87     		mv	a5,a0
 392 0008 A307F4FE 		sb	a5,-17(s0)
 189:../Firmware/GD32VW55x_standard_peripheral/Source/gd32vw55x_spi.c ****     if(SPI_DMA_TRANSMIT == spi_dma){
 393              		.loc 1 189 7
 394 000c 8347F4FE 		lbu	a5,-17(s0)
 395 0010 81EF     		bne	a5,zero,.L11
 190:../Firmware/GD32VW55x_standard_peripheral/Source/gd32vw55x_spi.c ****         SPI_CTL1 |= (uint32_t)SPI_CTL1_DMATEN;
 396              		.loc 1 190 18
 397 0012 B7370140 		li	a5,1073819648
 398 0016 9107     		addi	a5,a5,4
 399 0018 9843     		lw	a4,0(a5)
 400 001a B7370140 		li	a5,1073819648
 401 001e 9107     		addi	a5,a5,4
 402 0020 13672700 		ori	a4,a4,2
 403 0024 98C3     		sw	a4,0(a5)
 191:../Firmware/GD32VW55x_standard_peripheral/Source/gd32vw55x_spi.c ****     }else{
 192:../Firmware/GD32VW55x_standard_peripheral/Source/gd32vw55x_spi.c ****         SPI_CTL1 |= (uint32_t)SPI_CTL1_DMAREN;
 193:../Firmware/GD32VW55x_standard_peripheral/Source/gd32vw55x_spi.c ****     }
 194:../Firmware/GD32VW55x_standard_peripheral/Source/gd32vw55x_spi.c **** }
 404              		.loc 1 194 1
 405 0026 19A8     		j	.L13
 406              	.L11:
 192:../Firmware/GD32VW55x_standard_peripheral/Source/gd32vw55x_spi.c ****     }
 407              		.loc 1 192 18
 408 0028 B7370140 		li	a5,1073819648
 409 002c 9107     		addi	a5,a5,4
 410 002e 9843     		lw	a4,0(a5)
 411 0030 B7370140 		li	a5,1073819648
 412 0034 9107     		addi	a5,a5,4
 413 0036 13671700 		ori	a4,a4,1
 414 003a 98C3     		sw	a4,0(a5)
 415              	.L13:
 416              		.loc 1 194 1
 417 003c 0100     		nop
 418 003e 7244     		lw	s0,28(sp)
 419              		.cfi_restore 8
 420              		.cfi_def_cfa 2, 32
 421 0040 0561     		addi	sp,sp,32
 422              		.cfi_def_cfa_offset 0
 423 0042 8280     		jr	ra
 424              		.cfi_endproc
 425              	.LFE356:
 427              		.section	.text.spi_dma_disable,"ax",@progbits
 428              		.align	1
 429              		.globl	spi_dma_disable
 431              	spi_dma_disable:
 432              	.LFB357:
 195:../Firmware/GD32VW55x_standard_peripheral/Source/gd32vw55x_spi.c **** 
 196:../Firmware/GD32VW55x_standard_peripheral/Source/gd32vw55x_spi.c **** /*!
 197:../Firmware/GD32VW55x_standard_peripheral/Source/gd32vw55x_spi.c ****     \brief      disable SPI DMA send or receive
 198:../Firmware/GD32VW55x_standard_peripheral/Source/gd32vw55x_spi.c ****     \param[in]  spi_dma: SPI DMA mode
 199:../Firmware/GD32VW55x_standard_peripheral/Source/gd32vw55x_spi.c ****                 only one parameter can be selected which is shown as below:
 200:../Firmware/GD32VW55x_standard_peripheral/Source/gd32vw55x_spi.c ****       \arg        SPI_DMA_TRANSMIT: SPI transmit data use DMA
 201:../Firmware/GD32VW55x_standard_peripheral/Source/gd32vw55x_spi.c ****       \arg        SPI_DMA_RECEIVE: SPI receive data use DMA
 202:../Firmware/GD32VW55x_standard_peripheral/Source/gd32vw55x_spi.c ****     \param[out] none
 203:../Firmware/GD32VW55x_standard_peripheral/Source/gd32vw55x_spi.c ****     \retval     none
 204:../Firmware/GD32VW55x_standard_peripheral/Source/gd32vw55x_spi.c **** */
 205:../Firmware/GD32VW55x_standard_peripheral/Source/gd32vw55x_spi.c **** void spi_dma_disable(uint8_t spi_dma)
 206:../Firmware/GD32VW55x_standard_peripheral/Source/gd32vw55x_spi.c **** {
 433              		.loc 1 206 1
 434              		.cfi_startproc
 435 0000 0111     		addi	sp,sp,-32
 436              		.cfi_def_cfa_offset 32
 437 0002 22CE     		sw	s0,28(sp)
 438              		.cfi_offset 8, -4
 439 0004 0010     		addi	s0,sp,32
 440              		.cfi_def_cfa 8, 0
 441 0006 AA87     		mv	a5,a0
 442 0008 A307F4FE 		sb	a5,-17(s0)
 207:../Firmware/GD32VW55x_standard_peripheral/Source/gd32vw55x_spi.c ****     if(SPI_DMA_TRANSMIT == spi_dma){
 443              		.loc 1 207 7
 444 000c 8347F4FE 		lbu	a5,-17(s0)
 445 0010 99EB     		bne	a5,zero,.L15
 208:../Firmware/GD32VW55x_standard_peripheral/Source/gd32vw55x_spi.c ****         SPI_CTL1 &= (uint32_t)(~SPI_CTL1_DMATEN);
 446              		.loc 1 208 18
 447 0012 B7370140 		li	a5,1073819648
 448 0016 9107     		addi	a5,a5,4
 449 0018 9843     		lw	a4,0(a5)
 450 001a B7370140 		li	a5,1073819648
 451 001e 9107     		addi	a5,a5,4
 452 0020 759B     		andi	a4,a4,-3
 453 0022 98C3     		sw	a4,0(a5)
 209:../Firmware/GD32VW55x_standard_peripheral/Source/gd32vw55x_spi.c ****     }else{
 210:../Firmware/GD32VW55x_standard_peripheral/Source/gd32vw55x_spi.c ****         SPI_CTL1 &= (uint32_t)(~SPI_CTL1_DMAREN);
 211:../Firmware/GD32VW55x_standard_peripheral/Source/gd32vw55x_spi.c ****     }
 212:../Firmware/GD32VW55x_standard_peripheral/Source/gd32vw55x_spi.c **** }
 454              		.loc 1 212 1
 455 0024 11A8     		j	.L17
 456              	.L15:
 210:../Firmware/GD32VW55x_standard_peripheral/Source/gd32vw55x_spi.c ****     }
 457              		.loc 1 210 18
 458 0026 B7370140 		li	a5,1073819648
 459 002a 9107     		addi	a5,a5,4
 460 002c 9843     		lw	a4,0(a5)
 461 002e B7370140 		li	a5,1073819648
 462 0032 9107     		addi	a5,a5,4
 463 0034 799B     		andi	a4,a4,-2
 464 0036 98C3     		sw	a4,0(a5)
 465              	.L17:
 466              		.loc 1 212 1
 467 0038 0100     		nop
 468 003a 7244     		lw	s0,28(sp)
 469              		.cfi_restore 8
 470              		.cfi_def_cfa 2, 32
 471 003c 0561     		addi	sp,sp,32
 472              		.cfi_def_cfa_offset 0
 473 003e 8280     		jr	ra
 474              		.cfi_endproc
 475              	.LFE357:
 477              		.section	.text.spi_data_frame_format_config,"ax",@progbits
 478              		.align	1
 479              		.globl	spi_data_frame_format_config
 481              	spi_data_frame_format_config:
 482              	.LFB358:
 213:../Firmware/GD32VW55x_standard_peripheral/Source/gd32vw55x_spi.c **** 
 214:../Firmware/GD32VW55x_standard_peripheral/Source/gd32vw55x_spi.c **** /*!
 215:../Firmware/GD32VW55x_standard_peripheral/Source/gd32vw55x_spi.c ****     \brief      configure SPI data frame format
 216:../Firmware/GD32VW55x_standard_peripheral/Source/gd32vw55x_spi.c ****     \param[in]  frame_format: SPI frame format
 217:../Firmware/GD32VW55x_standard_peripheral/Source/gd32vw55x_spi.c ****                 only one parameter can be selected which is shown as below:
 218:../Firmware/GD32VW55x_standard_peripheral/Source/gd32vw55x_spi.c ****       \arg        SPI_FRAMESIZE_16BIT: SPI frame size is 16 bits
 219:../Firmware/GD32VW55x_standard_peripheral/Source/gd32vw55x_spi.c ****       \arg        SPI_FRAMESIZE_8BIT: SPI frame size is 8 bits
 220:../Firmware/GD32VW55x_standard_peripheral/Source/gd32vw55x_spi.c ****     \param[out] none
 221:../Firmware/GD32VW55x_standard_peripheral/Source/gd32vw55x_spi.c ****     \retval     none
 222:../Firmware/GD32VW55x_standard_peripheral/Source/gd32vw55x_spi.c **** */
 223:../Firmware/GD32VW55x_standard_peripheral/Source/gd32vw55x_spi.c **** void spi_data_frame_format_config(uint16_t frame_format)
 224:../Firmware/GD32VW55x_standard_peripheral/Source/gd32vw55x_spi.c **** {
 483              		.loc 1 224 1
 484              		.cfi_startproc
 485 0000 0111     		addi	sp,sp,-32
 486              		.cfi_def_cfa_offset 32
 487 0002 22CE     		sw	s0,28(sp)
 488              		.cfi_offset 8, -4
 489 0004 0010     		addi	s0,sp,32
 490              		.cfi_def_cfa 8, 0
 491 0006 AA87     		mv	a5,a0
 492 0008 2317F4FE 		sh	a5,-18(s0)
 225:../Firmware/GD32VW55x_standard_peripheral/Source/gd32vw55x_spi.c ****     /* clear SPI_CTL0_FF16 bit */
 226:../Firmware/GD32VW55x_standard_peripheral/Source/gd32vw55x_spi.c ****     SPI_CTL0 &= (uint32_t)(~SPI_CTL0_FF16);
 493              		.loc 1 226 14
 494 000c B7370140 		li	a5,1073819648
 495 0010 9443     		lw	a3,0(a5)
 496 0012 B7370140 		li	a5,1073819648
 497 0016 7D77     		li	a4,-4096
 498 0018 1307F77F 		addi	a4,a4,2047
 499 001c 758F     		and	a4,a3,a4
 500 001e 98C3     		sw	a4,0(a5)
 227:../Firmware/GD32VW55x_standard_peripheral/Source/gd32vw55x_spi.c ****     /* configure SPI_CTL0_FF16 bit */
 228:../Firmware/GD32VW55x_standard_peripheral/Source/gd32vw55x_spi.c ****     SPI_CTL0 |= (uint32_t)frame_format;
 501              		.loc 1 228 14
 502 0020 B7370140 		li	a5,1073819648
 503 0024 9443     		lw	a3,0(a5)
 504              		.loc 1 228 17
 505 0026 0357E4FE 		lhu	a4,-18(s0)
 506              		.loc 1 228 14
 507 002a B7370140 		li	a5,1073819648
 508 002e 558F     		or	a4,a3,a4
 509 0030 98C3     		sw	a4,0(a5)
 229:../Firmware/GD32VW55x_standard_peripheral/Source/gd32vw55x_spi.c **** }
 510              		.loc 1 229 1
 511 0032 0100     		nop
 512 0034 7244     		lw	s0,28(sp)
 513              		.cfi_restore 8
 514              		.cfi_def_cfa 2, 32
 515 0036 0561     		addi	sp,sp,32
 516              		.cfi_def_cfa_offset 0
 517 0038 8280     		jr	ra
 518              		.cfi_endproc
 519              	.LFE358:
 521              		.section	.text.spi_data_transmit,"ax",@progbits
 522              		.align	1
 523              		.globl	spi_data_transmit
 525              	spi_data_transmit:
 526              	.LFB359:
 230:../Firmware/GD32VW55x_standard_peripheral/Source/gd32vw55x_spi.c **** 
 231:../Firmware/GD32VW55x_standard_peripheral/Source/gd32vw55x_spi.c **** /*!
 232:../Firmware/GD32VW55x_standard_peripheral/Source/gd32vw55x_spi.c ****     \brief      SPI transmit data
 233:../Firmware/GD32VW55x_standard_peripheral/Source/gd32vw55x_spi.c ****     \param[in]  data: 16-bit data
 234:../Firmware/GD32VW55x_standard_peripheral/Source/gd32vw55x_spi.c ****     \param[out] none
 235:../Firmware/GD32VW55x_standard_peripheral/Source/gd32vw55x_spi.c ****     \retval     none
 236:../Firmware/GD32VW55x_standard_peripheral/Source/gd32vw55x_spi.c **** */
 237:../Firmware/GD32VW55x_standard_peripheral/Source/gd32vw55x_spi.c **** void spi_data_transmit(uint16_t data)
 238:../Firmware/GD32VW55x_standard_peripheral/Source/gd32vw55x_spi.c **** {
 527              		.loc 1 238 1
 528              		.cfi_startproc
 529 0000 0111     		addi	sp,sp,-32
 530              		.cfi_def_cfa_offset 32
 531 0002 22CE     		sw	s0,28(sp)
 532              		.cfi_offset 8, -4
 533 0004 0010     		addi	s0,sp,32
 534              		.cfi_def_cfa 8, 0
 535 0006 AA87     		mv	a5,a0
 536 0008 2317F4FE 		sh	a5,-18(s0)
 239:../Firmware/GD32VW55x_standard_peripheral/Source/gd32vw55x_spi.c ****     SPI_DATA = (uint32_t)data;
 537              		.loc 1 239 5
 538 000c B7370140 		li	a5,1073819648
 539 0010 B107     		addi	a5,a5,12
 540              		.loc 1 239 16
 541 0012 0357E4FE 		lhu	a4,-18(s0)
 542              		.loc 1 239 14
 543 0016 98C3     		sw	a4,0(a5)
 240:../Firmware/GD32VW55x_standard_peripheral/Source/gd32vw55x_spi.c **** }
 544              		.loc 1 240 1
 545 0018 0100     		nop
 546 001a 7244     		lw	s0,28(sp)
 547              		.cfi_restore 8
 548              		.cfi_def_cfa 2, 32
 549 001c 0561     		addi	sp,sp,32
 550              		.cfi_def_cfa_offset 0
 551 001e 8280     		jr	ra
 552              		.cfi_endproc
 553              	.LFE359:
 555              		.section	.text.spi_data_receive,"ax",@progbits
 556              		.align	1
 557              		.globl	spi_data_receive
 559              	spi_data_receive:
 560              	.LFB360:
 241:../Firmware/GD32VW55x_standard_peripheral/Source/gd32vw55x_spi.c **** 
 242:../Firmware/GD32VW55x_standard_peripheral/Source/gd32vw55x_spi.c **** /*!
 243:../Firmware/GD32VW55x_standard_peripheral/Source/gd32vw55x_spi.c ****     \brief      SPI receive data
 244:../Firmware/GD32VW55x_standard_peripheral/Source/gd32vw55x_spi.c ****     \param[in]  none
 245:../Firmware/GD32VW55x_standard_peripheral/Source/gd32vw55x_spi.c ****     \param[out] none
 246:../Firmware/GD32VW55x_standard_peripheral/Source/gd32vw55x_spi.c ****     \retval     16-bit data
 247:../Firmware/GD32VW55x_standard_peripheral/Source/gd32vw55x_spi.c **** */
 248:../Firmware/GD32VW55x_standard_peripheral/Source/gd32vw55x_spi.c **** uint16_t spi_data_receive(void)
 249:../Firmware/GD32VW55x_standard_peripheral/Source/gd32vw55x_spi.c **** {
 561              		.loc 1 249 1
 562              		.cfi_startproc
 563 0000 4111     		addi	sp,sp,-16
 564              		.cfi_def_cfa_offset 16
 565 0002 22C6     		sw	s0,12(sp)
 566              		.cfi_offset 8, -4
 567 0004 0008     		addi	s0,sp,16
 568              		.cfi_def_cfa 8, 0
 250:../Firmware/GD32VW55x_standard_peripheral/Source/gd32vw55x_spi.c ****     return ((uint16_t)SPI_DATA);
 569              		.loc 1 250 23
 570 0006 B7370140 		li	a5,1073819648
 571 000a B107     		addi	a5,a5,12
 572 000c 9C43     		lw	a5,0(a5)
 573              		.loc 1 250 13
 574 000e C207     		slli	a5,a5,16
 575 0010 C183     		srli	a5,a5,16
 251:../Firmware/GD32VW55x_standard_peripheral/Source/gd32vw55x_spi.c **** }
 576              		.loc 1 251 1
 577 0012 3E85     		mv	a0,a5
 578 0014 3244     		lw	s0,12(sp)
 579              		.cfi_restore 8
 580              		.cfi_def_cfa 2, 16
 581 0016 4101     		addi	sp,sp,16
 582              		.cfi_def_cfa_offset 0
 583 0018 8280     		jr	ra
 584              		.cfi_endproc
 585              	.LFE360:
 587              		.section	.text.spi_bidirectional_transfer_config,"ax",@progbits
 588              		.align	1
 589              		.globl	spi_bidirectional_transfer_config
 591              	spi_bidirectional_transfer_config:
 592              	.LFB361:
 252:../Firmware/GD32VW55x_standard_peripheral/Source/gd32vw55x_spi.c **** 
 253:../Firmware/GD32VW55x_standard_peripheral/Source/gd32vw55x_spi.c **** /*!
 254:../Firmware/GD32VW55x_standard_peripheral/Source/gd32vw55x_spi.c ****     \brief      configure SPI bidirectional transfer direction
 255:../Firmware/GD32VW55x_standard_peripheral/Source/gd32vw55x_spi.c ****     \param[in]  transfer_direction: SPI transfer direction
 256:../Firmware/GD32VW55x_standard_peripheral/Source/gd32vw55x_spi.c ****                 only one parameter can be selected which is shown as below:
 257:../Firmware/GD32VW55x_standard_peripheral/Source/gd32vw55x_spi.c ****       \arg        SPI_BIDIRECTIONAL_TRANSMIT: SPI work in transmit-only mode
 258:../Firmware/GD32VW55x_standard_peripheral/Source/gd32vw55x_spi.c ****       \arg        SPI_BIDIRECTIONAL_RECEIVE: SPI work in receive-only mode
 259:../Firmware/GD32VW55x_standard_peripheral/Source/gd32vw55x_spi.c ****     \param[out] none
 260:../Firmware/GD32VW55x_standard_peripheral/Source/gd32vw55x_spi.c ****     \retval     none
 261:../Firmware/GD32VW55x_standard_peripheral/Source/gd32vw55x_spi.c **** */
 262:../Firmware/GD32VW55x_standard_peripheral/Source/gd32vw55x_spi.c **** void spi_bidirectional_transfer_config(uint32_t transfer_direction)
 263:../Firmware/GD32VW55x_standard_peripheral/Source/gd32vw55x_spi.c **** {
 593              		.loc 1 263 1
 594              		.cfi_startproc
 595 0000 0111     		addi	sp,sp,-32
 596              		.cfi_def_cfa_offset 32
 597 0002 22CE     		sw	s0,28(sp)
 598              		.cfi_offset 8, -4
 599 0004 0010     		addi	s0,sp,32
 600              		.cfi_def_cfa 8, 0
 601 0006 2326A4FE 		sw	a0,-20(s0)
 264:../Firmware/GD32VW55x_standard_peripheral/Source/gd32vw55x_spi.c ****     if(SPI_BIDIRECTIONAL_TRANSMIT == transfer_direction){
 602              		.loc 1 264 7
 603 000a 0327C4FE 		lw	a4,-20(s0)
 604 000e 9167     		li	a5,16384
 605 0010 631BF700 		bne	a4,a5,.L23
 265:../Firmware/GD32VW55x_standard_peripheral/Source/gd32vw55x_spi.c ****         /* set the transmit only mode */
 266:../Firmware/GD32VW55x_standard_peripheral/Source/gd32vw55x_spi.c ****         SPI_CTL0 |= (uint32_t)SPI_BIDIRECTIONAL_TRANSMIT;
 606              		.loc 1 266 18
 607 0014 B7370140 		li	a5,1073819648
 608 0018 9443     		lw	a3,0(a5)
 609 001a B7370140 		li	a5,1073819648
 610 001e 1167     		li	a4,16384
 611 0020 558F     		or	a4,a3,a4
 612 0022 98C3     		sw	a4,0(a5)
 267:../Firmware/GD32VW55x_standard_peripheral/Source/gd32vw55x_spi.c ****     }else{
 268:../Firmware/GD32VW55x_standard_peripheral/Source/gd32vw55x_spi.c ****         /* set the receive only mode */
 269:../Firmware/GD32VW55x_standard_peripheral/Source/gd32vw55x_spi.c ****         SPI_CTL0 &= SPI_BIDIRECTIONAL_RECEIVE;
 270:../Firmware/GD32VW55x_standard_peripheral/Source/gd32vw55x_spi.c ****     }
 271:../Firmware/GD32VW55x_standard_peripheral/Source/gd32vw55x_spi.c **** }
 613              		.loc 1 271 1
 614 0024 11A8     		j	.L25
 615              	.L23:
 269:../Firmware/GD32VW55x_standard_peripheral/Source/gd32vw55x_spi.c ****     }
 616              		.loc 1 269 18
 617 0026 B7370140 		li	a5,1073819648
 618 002a 9443     		lw	a3,0(a5)
 619 002c B7370140 		li	a5,1073819648
 620 0030 7177     		li	a4,-16384
 621 0032 7D17     		addi	a4,a4,-1
 622 0034 758F     		and	a4,a3,a4
 623 0036 98C3     		sw	a4,0(a5)
 624              	.L25:
 625              		.loc 1 271 1
 626 0038 0100     		nop
 627 003a 7244     		lw	s0,28(sp)
 628              		.cfi_restore 8
 629              		.cfi_def_cfa 2, 32
 630 003c 0561     		addi	sp,sp,32
 631              		.cfi_def_cfa_offset 0
 632 003e 8280     		jr	ra
 633              		.cfi_endproc
 634              	.LFE361:
 636              		.section	.text.spi_format_error_clear,"ax",@progbits
 637              		.align	1
 638              		.globl	spi_format_error_clear
 640              	spi_format_error_clear:
 641              	.LFB362:
 272:../Firmware/GD32VW55x_standard_peripheral/Source/gd32vw55x_spi.c **** 
 273:../Firmware/GD32VW55x_standard_peripheral/Source/gd32vw55x_spi.c **** /*!
 274:../Firmware/GD32VW55x_standard_peripheral/Source/gd32vw55x_spi.c ****     \brief      clear TI mode format error flag status
 275:../Firmware/GD32VW55x_standard_peripheral/Source/gd32vw55x_spi.c ****     \param[in]  none
 276:../Firmware/GD32VW55x_standard_peripheral/Source/gd32vw55x_spi.c ****     \param[out] none
 277:../Firmware/GD32VW55x_standard_peripheral/Source/gd32vw55x_spi.c ****     \retval     none
 278:../Firmware/GD32VW55x_standard_peripheral/Source/gd32vw55x_spi.c **** */
 279:../Firmware/GD32VW55x_standard_peripheral/Source/gd32vw55x_spi.c **** void spi_format_error_clear(void)
 280:../Firmware/GD32VW55x_standard_peripheral/Source/gd32vw55x_spi.c **** {
 642              		.loc 1 280 1
 643              		.cfi_startproc
 644 0000 4111     		addi	sp,sp,-16
 645              		.cfi_def_cfa_offset 16
 646 0002 22C6     		sw	s0,12(sp)
 647              		.cfi_offset 8, -4
 648 0004 0008     		addi	s0,sp,16
 649              		.cfi_def_cfa 8, 0
 281:../Firmware/GD32VW55x_standard_peripheral/Source/gd32vw55x_spi.c ****     SPI_STAT = (uint32_t)(~SPI_FLAG_FERR);
 650              		.loc 1 281 5
 651 0006 B7370140 		li	a5,1073819648
 652 000a A107     		addi	a5,a5,8
 653              		.loc 1 281 14
 654 000c 1307F0EF 		li	a4,-257
 655 0010 98C3     		sw	a4,0(a5)
 282:../Firmware/GD32VW55x_standard_peripheral/Source/gd32vw55x_spi.c **** }
 656              		.loc 1 282 1
 657 0012 0100     		nop
 658 0014 3244     		lw	s0,12(sp)
 659              		.cfi_restore 8
 660              		.cfi_def_cfa 2, 16
 661 0016 4101     		addi	sp,sp,16
 662              		.cfi_def_cfa_offset 0
 663 0018 8280     		jr	ra
 664              		.cfi_endproc
 665              	.LFE362:
 667              		.section	.text.spi_crc_polynomial_set,"ax",@progbits
 668              		.align	1
 669              		.globl	spi_crc_polynomial_set
 671              	spi_crc_polynomial_set:
 672              	.LFB363:
 283:../Firmware/GD32VW55x_standard_peripheral/Source/gd32vw55x_spi.c **** 
 284:../Firmware/GD32VW55x_standard_peripheral/Source/gd32vw55x_spi.c **** /*!
 285:../Firmware/GD32VW55x_standard_peripheral/Source/gd32vw55x_spi.c ****     \brief      set SPI CRC polynomial
 286:../Firmware/GD32VW55x_standard_peripheral/Source/gd32vw55x_spi.c ****     \param[in]  crc_poly: CRC polynomial value
 287:../Firmware/GD32VW55x_standard_peripheral/Source/gd32vw55x_spi.c ****     \param[out] none
 288:../Firmware/GD32VW55x_standard_peripheral/Source/gd32vw55x_spi.c ****     \retval     none
 289:../Firmware/GD32VW55x_standard_peripheral/Source/gd32vw55x_spi.c **** */
 290:../Firmware/GD32VW55x_standard_peripheral/Source/gd32vw55x_spi.c **** void spi_crc_polynomial_set(uint16_t crc_poly)
 291:../Firmware/GD32VW55x_standard_peripheral/Source/gd32vw55x_spi.c **** {
 673              		.loc 1 291 1
 674              		.cfi_startproc
 675 0000 0111     		addi	sp,sp,-32
 676              		.cfi_def_cfa_offset 32
 677 0002 22CE     		sw	s0,28(sp)
 678              		.cfi_offset 8, -4
 679 0004 0010     		addi	s0,sp,32
 680              		.cfi_def_cfa 8, 0
 681 0006 AA87     		mv	a5,a0
 682 0008 2317F4FE 		sh	a5,-18(s0)
 292:../Firmware/GD32VW55x_standard_peripheral/Source/gd32vw55x_spi.c ****     /* set SPI CRC polynomial */
 293:../Firmware/GD32VW55x_standard_peripheral/Source/gd32vw55x_spi.c ****     SPI_CRCPOLY = (uint32_t)crc_poly;
 683              		.loc 1 293 5
 684 000c B7370140 		li	a5,1073819648
 685 0010 C107     		addi	a5,a5,16
 686              		.loc 1 293 19
 687 0012 0357E4FE 		lhu	a4,-18(s0)
 688              		.loc 1 293 17
 689 0016 98C3     		sw	a4,0(a5)
 294:../Firmware/GD32VW55x_standard_peripheral/Source/gd32vw55x_spi.c **** }
 690              		.loc 1 294 1
 691 0018 0100     		nop
 692 001a 7244     		lw	s0,28(sp)
 693              		.cfi_restore 8
 694              		.cfi_def_cfa 2, 32
 695 001c 0561     		addi	sp,sp,32
 696              		.cfi_def_cfa_offset 0
 697 001e 8280     		jr	ra
 698              		.cfi_endproc
 699              	.LFE363:
 701              		.section	.text.spi_crc_polynomial_get,"ax",@progbits
 702              		.align	1
 703              		.globl	spi_crc_polynomial_get
 705              	spi_crc_polynomial_get:
 706              	.LFB364:
 295:../Firmware/GD32VW55x_standard_peripheral/Source/gd32vw55x_spi.c **** 
 296:../Firmware/GD32VW55x_standard_peripheral/Source/gd32vw55x_spi.c **** /*!
 297:../Firmware/GD32VW55x_standard_peripheral/Source/gd32vw55x_spi.c ****     \brief      get SPI CRC polynomial
 298:../Firmware/GD32VW55x_standard_peripheral/Source/gd32vw55x_spi.c ****     \param[in]  none
 299:../Firmware/GD32VW55x_standard_peripheral/Source/gd32vw55x_spi.c ****     \param[out] none
 300:../Firmware/GD32VW55x_standard_peripheral/Source/gd32vw55x_spi.c ****     \retval     16-bit CRC polynomial
 301:../Firmware/GD32VW55x_standard_peripheral/Source/gd32vw55x_spi.c **** */
 302:../Firmware/GD32VW55x_standard_peripheral/Source/gd32vw55x_spi.c **** uint16_t spi_crc_polynomial_get(void)
 303:../Firmware/GD32VW55x_standard_peripheral/Source/gd32vw55x_spi.c **** {
 707              		.loc 1 303 1
 708              		.cfi_startproc
 709 0000 4111     		addi	sp,sp,-16
 710              		.cfi_def_cfa_offset 16
 711 0002 22C6     		sw	s0,12(sp)
 712              		.cfi_offset 8, -4
 713 0004 0008     		addi	s0,sp,16
 714              		.cfi_def_cfa 8, 0
 304:../Firmware/GD32VW55x_standard_peripheral/Source/gd32vw55x_spi.c ****     return ((uint16_t)SPI_CRCPOLY);
 715              		.loc 1 304 23
 716 0006 B7370140 		li	a5,1073819648
 717 000a C107     		addi	a5,a5,16
 718 000c 9C43     		lw	a5,0(a5)
 719              		.loc 1 304 13
 720 000e C207     		slli	a5,a5,16
 721 0010 C183     		srli	a5,a5,16
 305:../Firmware/GD32VW55x_standard_peripheral/Source/gd32vw55x_spi.c **** }
 722              		.loc 1 305 1
 723 0012 3E85     		mv	a0,a5
 724 0014 3244     		lw	s0,12(sp)
 725              		.cfi_restore 8
 726              		.cfi_def_cfa 2, 16
 727 0016 4101     		addi	sp,sp,16
 728              		.cfi_def_cfa_offset 0
 729 0018 8280     		jr	ra
 730              		.cfi_endproc
 731              	.LFE364:
 733              		.section	.text.spi_crc_on,"ax",@progbits
 734              		.align	1
 735              		.globl	spi_crc_on
 737              	spi_crc_on:
 738              	.LFB365:
 306:../Firmware/GD32VW55x_standard_peripheral/Source/gd32vw55x_spi.c **** 
 307:../Firmware/GD32VW55x_standard_peripheral/Source/gd32vw55x_spi.c **** /*!
 308:../Firmware/GD32VW55x_standard_peripheral/Source/gd32vw55x_spi.c ****     \brief      turn on CRC function
 309:../Firmware/GD32VW55x_standard_peripheral/Source/gd32vw55x_spi.c ****     \param[in]  none
 310:../Firmware/GD32VW55x_standard_peripheral/Source/gd32vw55x_spi.c ****     \param[out] none
 311:../Firmware/GD32VW55x_standard_peripheral/Source/gd32vw55x_spi.c ****     \retval     none
 312:../Firmware/GD32VW55x_standard_peripheral/Source/gd32vw55x_spi.c **** */
 313:../Firmware/GD32VW55x_standard_peripheral/Source/gd32vw55x_spi.c **** void spi_crc_on(void)
 314:../Firmware/GD32VW55x_standard_peripheral/Source/gd32vw55x_spi.c **** {
 739              		.loc 1 314 1
 740              		.cfi_startproc
 741 0000 4111     		addi	sp,sp,-16
 742              		.cfi_def_cfa_offset 16
 743 0002 22C6     		sw	s0,12(sp)
 744              		.cfi_offset 8, -4
 745 0004 0008     		addi	s0,sp,16
 746              		.cfi_def_cfa 8, 0
 315:../Firmware/GD32VW55x_standard_peripheral/Source/gd32vw55x_spi.c ****     SPI_CTL0 |= (uint32_t)SPI_CTL0_CRCEN;
 747              		.loc 1 315 14
 748 0006 B7370140 		li	a5,1073819648
 749 000a 9443     		lw	a3,0(a5)
 750 000c B7370140 		li	a5,1073819648
 751 0010 0967     		li	a4,8192
 752 0012 558F     		or	a4,a3,a4
 753 0014 98C3     		sw	a4,0(a5)
 316:../Firmware/GD32VW55x_standard_peripheral/Source/gd32vw55x_spi.c **** }
 754              		.loc 1 316 1
 755 0016 0100     		nop
 756 0018 3244     		lw	s0,12(sp)
 757              		.cfi_restore 8
 758              		.cfi_def_cfa 2, 16
 759 001a 4101     		addi	sp,sp,16
 760              		.cfi_def_cfa_offset 0
 761 001c 8280     		jr	ra
 762              		.cfi_endproc
 763              	.LFE365:
 765              		.section	.text.spi_crc_off,"ax",@progbits
 766              		.align	1
 767              		.globl	spi_crc_off
 769              	spi_crc_off:
 770              	.LFB366:
 317:../Firmware/GD32VW55x_standard_peripheral/Source/gd32vw55x_spi.c **** 
 318:../Firmware/GD32VW55x_standard_peripheral/Source/gd32vw55x_spi.c **** /*!
 319:../Firmware/GD32VW55x_standard_peripheral/Source/gd32vw55x_spi.c ****     \brief      turn off CRC function
 320:../Firmware/GD32VW55x_standard_peripheral/Source/gd32vw55x_spi.c ****     \param[in]  none
 321:../Firmware/GD32VW55x_standard_peripheral/Source/gd32vw55x_spi.c ****     \param[out] none
 322:../Firmware/GD32VW55x_standard_peripheral/Source/gd32vw55x_spi.c ****     \retval     none
 323:../Firmware/GD32VW55x_standard_peripheral/Source/gd32vw55x_spi.c **** */
 324:../Firmware/GD32VW55x_standard_peripheral/Source/gd32vw55x_spi.c **** void spi_crc_off(void)
 325:../Firmware/GD32VW55x_standard_peripheral/Source/gd32vw55x_spi.c **** {
 771              		.loc 1 325 1
 772              		.cfi_startproc
 773 0000 4111     		addi	sp,sp,-16
 774              		.cfi_def_cfa_offset 16
 775 0002 22C6     		sw	s0,12(sp)
 776              		.cfi_offset 8, -4
 777 0004 0008     		addi	s0,sp,16
 778              		.cfi_def_cfa 8, 0
 326:../Firmware/GD32VW55x_standard_peripheral/Source/gd32vw55x_spi.c ****     SPI_CTL0 &= (uint32_t)(~SPI_CTL0_CRCEN);
 779              		.loc 1 326 14
 780 0006 B7370140 		li	a5,1073819648
 781 000a 9443     		lw	a3,0(a5)
 782 000c B7370140 		li	a5,1073819648
 783 0010 7977     		li	a4,-8192
 784 0012 7D17     		addi	a4,a4,-1
 785 0014 758F     		and	a4,a3,a4
 786 0016 98C3     		sw	a4,0(a5)
 327:../Firmware/GD32VW55x_standard_peripheral/Source/gd32vw55x_spi.c **** }
 787              		.loc 1 327 1
 788 0018 0100     		nop
 789 001a 3244     		lw	s0,12(sp)
 790              		.cfi_restore 8
 791              		.cfi_def_cfa 2, 16
 792 001c 4101     		addi	sp,sp,16
 793              		.cfi_def_cfa_offset 0
 794 001e 8280     		jr	ra
 795              		.cfi_endproc
 796              	.LFE366:
 798              		.section	.text.spi_crc_next,"ax",@progbits
 799              		.align	1
 800              		.globl	spi_crc_next
 802              	spi_crc_next:
 803              	.LFB367:
 328:../Firmware/GD32VW55x_standard_peripheral/Source/gd32vw55x_spi.c **** 
 329:../Firmware/GD32VW55x_standard_peripheral/Source/gd32vw55x_spi.c **** /*!
 330:../Firmware/GD32VW55x_standard_peripheral/Source/gd32vw55x_spi.c ****     \brief      SPI next data is CRC value
 331:../Firmware/GD32VW55x_standard_peripheral/Source/gd32vw55x_spi.c ****     \param[in]  none
 332:../Firmware/GD32VW55x_standard_peripheral/Source/gd32vw55x_spi.c ****     \param[out] none
 333:../Firmware/GD32VW55x_standard_peripheral/Source/gd32vw55x_spi.c ****     \retval     none
 334:../Firmware/GD32VW55x_standard_peripheral/Source/gd32vw55x_spi.c **** */
 335:../Firmware/GD32VW55x_standard_peripheral/Source/gd32vw55x_spi.c **** void spi_crc_next(void)
 336:../Firmware/GD32VW55x_standard_peripheral/Source/gd32vw55x_spi.c **** {
 804              		.loc 1 336 1
 805              		.cfi_startproc
 806 0000 4111     		addi	sp,sp,-16
 807              		.cfi_def_cfa_offset 16
 808 0002 22C6     		sw	s0,12(sp)
 809              		.cfi_offset 8, -4
 810 0004 0008     		addi	s0,sp,16
 811              		.cfi_def_cfa 8, 0
 337:../Firmware/GD32VW55x_standard_peripheral/Source/gd32vw55x_spi.c ****     SPI_CTL0 |= (uint32_t)SPI_CTL0_CRCNT;
 812              		.loc 1 337 14
 813 0006 B7370140 		li	a5,1073819648
 814 000a 9443     		lw	a3,0(a5)
 815 000c B7370140 		li	a5,1073819648
 816 0010 0567     		li	a4,4096
 817 0012 558F     		or	a4,a3,a4
 818 0014 98C3     		sw	a4,0(a5)
 338:../Firmware/GD32VW55x_standard_peripheral/Source/gd32vw55x_spi.c **** }
 819              		.loc 1 338 1
 820 0016 0100     		nop
 821 0018 3244     		lw	s0,12(sp)
 822              		.cfi_restore 8
 823              		.cfi_def_cfa 2, 16
 824 001a 4101     		addi	sp,sp,16
 825              		.cfi_def_cfa_offset 0
 826 001c 8280     		jr	ra
 827              		.cfi_endproc
 828              	.LFE367:
 830              		.section	.text.spi_crc_get,"ax",@progbits
 831              		.align	1
 832              		.globl	spi_crc_get
 834              	spi_crc_get:
 835              	.LFB368:
 339:../Firmware/GD32VW55x_standard_peripheral/Source/gd32vw55x_spi.c **** 
 340:../Firmware/GD32VW55x_standard_peripheral/Source/gd32vw55x_spi.c **** /*!
 341:../Firmware/GD32VW55x_standard_peripheral/Source/gd32vw55x_spi.c ****     \brief      get SPI CRC send value or receive value
 342:../Firmware/GD32VW55x_standard_peripheral/Source/gd32vw55x_spi.c ****     \param[in]  crc: SPI crc value
 343:../Firmware/GD32VW55x_standard_peripheral/Source/gd32vw55x_spi.c ****                 only one parameter can be selected which is shown as below:
 344:../Firmware/GD32VW55x_standard_peripheral/Source/gd32vw55x_spi.c ****       \arg        SPI_CRC_TX: get transmit crc value
 345:../Firmware/GD32VW55x_standard_peripheral/Source/gd32vw55x_spi.c ****       \arg        SPI_CRC_RX: get receive crc value
 346:../Firmware/GD32VW55x_standard_peripheral/Source/gd32vw55x_spi.c ****     \param[out] none
 347:../Firmware/GD32VW55x_standard_peripheral/Source/gd32vw55x_spi.c ****     \retval     16-bit CRC value
 348:../Firmware/GD32VW55x_standard_peripheral/Source/gd32vw55x_spi.c **** */
 349:../Firmware/GD32VW55x_standard_peripheral/Source/gd32vw55x_spi.c **** uint16_t spi_crc_get(uint8_t crc)
 350:../Firmware/GD32VW55x_standard_peripheral/Source/gd32vw55x_spi.c **** {
 836              		.loc 1 350 1
 837              		.cfi_startproc
 838 0000 0111     		addi	sp,sp,-32
 839              		.cfi_def_cfa_offset 32
 840 0002 22CE     		sw	s0,28(sp)
 841              		.cfi_offset 8, -4
 842 0004 0010     		addi	s0,sp,32
 843              		.cfi_def_cfa 8, 0
 844 0006 AA87     		mv	a5,a0
 845 0008 A307F4FE 		sb	a5,-17(s0)
 351:../Firmware/GD32VW55x_standard_peripheral/Source/gd32vw55x_spi.c ****     if(SPI_CRC_TX == crc){
 846              		.loc 1 351 7
 847 000c 8347F4FE 		lbu	a5,-17(s0)
 848 0010 81EB     		bne	a5,zero,.L34
 352:../Firmware/GD32VW55x_standard_peripheral/Source/gd32vw55x_spi.c ****         return ((uint16_t)(SPI_TCRC));
 849              		.loc 1 352 28
 850 0012 B7370140 		li	a5,1073819648
 851 0016 E107     		addi	a5,a5,24
 852 0018 9C43     		lw	a5,0(a5)
 853              		.loc 1 352 17
 854 001a C207     		slli	a5,a5,16
 855 001c C183     		srli	a5,a5,16
 856 001e 39A0     		j	.L35
 857              	.L34:
 353:../Firmware/GD32VW55x_standard_peripheral/Source/gd32vw55x_spi.c ****     }else{
 354:../Firmware/GD32VW55x_standard_peripheral/Source/gd32vw55x_spi.c ****         return ((uint16_t)(SPI_RCRC));
 858              		.loc 1 354 28
 859 0020 B7370140 		li	a5,1073819648
 860 0024 D107     		addi	a5,a5,20
 861 0026 9C43     		lw	a5,0(a5)
 862              		.loc 1 354 17
 863 0028 C207     		slli	a5,a5,16
 864 002a C183     		srli	a5,a5,16
 865              	.L35:
 355:../Firmware/GD32VW55x_standard_peripheral/Source/gd32vw55x_spi.c ****     }
 356:../Firmware/GD32VW55x_standard_peripheral/Source/gd32vw55x_spi.c **** }
 866              		.loc 1 356 1
 867 002c 3E85     		mv	a0,a5
 868 002e 7244     		lw	s0,28(sp)
 869              		.cfi_restore 8
 870              		.cfi_def_cfa 2, 32
 871 0030 0561     		addi	sp,sp,32
 872              		.cfi_def_cfa_offset 0
 873 0032 8280     		jr	ra
 874              		.cfi_endproc
 875              	.LFE368:
 877              		.section	.text.spi_crc_error_clear,"ax",@progbits
 878              		.align	1
 879              		.globl	spi_crc_error_clear
 881              	spi_crc_error_clear:
 882              	.LFB369:
 357:../Firmware/GD32VW55x_standard_peripheral/Source/gd32vw55x_spi.c **** 
 358:../Firmware/GD32VW55x_standard_peripheral/Source/gd32vw55x_spi.c **** /*!
 359:../Firmware/GD32VW55x_standard_peripheral/Source/gd32vw55x_spi.c ****     \brief      clear SPI CRC error flag status
 360:../Firmware/GD32VW55x_standard_peripheral/Source/gd32vw55x_spi.c ****     \param[in]  none
 361:../Firmware/GD32VW55x_standard_peripheral/Source/gd32vw55x_spi.c ****     \param[out] none
 362:../Firmware/GD32VW55x_standard_peripheral/Source/gd32vw55x_spi.c ****     \retval     none
 363:../Firmware/GD32VW55x_standard_peripheral/Source/gd32vw55x_spi.c **** */
 364:../Firmware/GD32VW55x_standard_peripheral/Source/gd32vw55x_spi.c **** void spi_crc_error_clear(void)
 365:../Firmware/GD32VW55x_standard_peripheral/Source/gd32vw55x_spi.c **** {
 883              		.loc 1 365 1
 884              		.cfi_startproc
 885 0000 4111     		addi	sp,sp,-16
 886              		.cfi_def_cfa_offset 16
 887 0002 22C6     		sw	s0,12(sp)
 888              		.cfi_offset 8, -4
 889 0004 0008     		addi	s0,sp,16
 890              		.cfi_def_cfa 8, 0
 366:../Firmware/GD32VW55x_standard_peripheral/Source/gd32vw55x_spi.c ****     SPI_STAT = (uint32_t)(~SPI_FLAG_CRCERR);
 891              		.loc 1 366 5
 892 0006 B7370140 		li	a5,1073819648
 893 000a A107     		addi	a5,a5,8
 894              		.loc 1 366 14
 895 000c 3D57     		li	a4,-17
 896 000e 98C3     		sw	a4,0(a5)
 367:../Firmware/GD32VW55x_standard_peripheral/Source/gd32vw55x_spi.c **** }
 897              		.loc 1 367 1
 898 0010 0100     		nop
 899 0012 3244     		lw	s0,12(sp)
 900              		.cfi_restore 8
 901              		.cfi_def_cfa 2, 16
 902 0014 4101     		addi	sp,sp,16
 903              		.cfi_def_cfa_offset 0
 904 0016 8280     		jr	ra
 905              		.cfi_endproc
 906              	.LFE369:
 908              		.section	.text.spi_ti_mode_enable,"ax",@progbits
 909              		.align	1
 910              		.globl	spi_ti_mode_enable
 912              	spi_ti_mode_enable:
 913              	.LFB370:
 368:../Firmware/GD32VW55x_standard_peripheral/Source/gd32vw55x_spi.c **** 
 369:../Firmware/GD32VW55x_standard_peripheral/Source/gd32vw55x_spi.c **** /*!
 370:../Firmware/GD32VW55x_standard_peripheral/Source/gd32vw55x_spi.c ****     \brief      enable SPI TI mode
 371:../Firmware/GD32VW55x_standard_peripheral/Source/gd32vw55x_spi.c ****     \param[in]  none
 372:../Firmware/GD32VW55x_standard_peripheral/Source/gd32vw55x_spi.c ****     \param[out] none
 373:../Firmware/GD32VW55x_standard_peripheral/Source/gd32vw55x_spi.c ****     \retval     none
 374:../Firmware/GD32VW55x_standard_peripheral/Source/gd32vw55x_spi.c **** */
 375:../Firmware/GD32VW55x_standard_peripheral/Source/gd32vw55x_spi.c **** void spi_ti_mode_enable(void)
 376:../Firmware/GD32VW55x_standard_peripheral/Source/gd32vw55x_spi.c **** {
 914              		.loc 1 376 1
 915              		.cfi_startproc
 916 0000 4111     		addi	sp,sp,-16
 917              		.cfi_def_cfa_offset 16
 918 0002 22C6     		sw	s0,12(sp)
 919              		.cfi_offset 8, -4
 920 0004 0008     		addi	s0,sp,16
 921              		.cfi_def_cfa 8, 0
 377:../Firmware/GD32VW55x_standard_peripheral/Source/gd32vw55x_spi.c ****     SPI_CTL1 |= (uint32_t)SPI_CTL1_TMOD;
 922              		.loc 1 377 14
 923 0006 B7370140 		li	a5,1073819648
 924 000a 9107     		addi	a5,a5,4
 925 000c 9843     		lw	a4,0(a5)
 926 000e B7370140 		li	a5,1073819648
 927 0012 9107     		addi	a5,a5,4
 928 0014 13670701 		ori	a4,a4,16
 929 0018 98C3     		sw	a4,0(a5)
 378:../Firmware/GD32VW55x_standard_peripheral/Source/gd32vw55x_spi.c **** }
 930              		.loc 1 378 1
 931 001a 0100     		nop
 932 001c 3244     		lw	s0,12(sp)
 933              		.cfi_restore 8
 934              		.cfi_def_cfa 2, 16
 935 001e 4101     		addi	sp,sp,16
 936              		.cfi_def_cfa_offset 0
 937 0020 8280     		jr	ra
 938              		.cfi_endproc
 939              	.LFE370:
 941              		.section	.text.spi_ti_mode_disable,"ax",@progbits
 942              		.align	1
 943              		.globl	spi_ti_mode_disable
 945              	spi_ti_mode_disable:
 946              	.LFB371:
 379:../Firmware/GD32VW55x_standard_peripheral/Source/gd32vw55x_spi.c **** 
 380:../Firmware/GD32VW55x_standard_peripheral/Source/gd32vw55x_spi.c **** /*!
 381:../Firmware/GD32VW55x_standard_peripheral/Source/gd32vw55x_spi.c ****     \brief      disable SPI TI mode
 382:../Firmware/GD32VW55x_standard_peripheral/Source/gd32vw55x_spi.c ****     \param[in]  none
 383:../Firmware/GD32VW55x_standard_peripheral/Source/gd32vw55x_spi.c ****     \param[out] none
 384:../Firmware/GD32VW55x_standard_peripheral/Source/gd32vw55x_spi.c ****     \retval     none
 385:../Firmware/GD32VW55x_standard_peripheral/Source/gd32vw55x_spi.c **** */
 386:../Firmware/GD32VW55x_standard_peripheral/Source/gd32vw55x_spi.c **** void spi_ti_mode_disable(void)
 387:../Firmware/GD32VW55x_standard_peripheral/Source/gd32vw55x_spi.c **** {
 947              		.loc 1 387 1
 948              		.cfi_startproc
 949 0000 4111     		addi	sp,sp,-16
 950              		.cfi_def_cfa_offset 16
 951 0002 22C6     		sw	s0,12(sp)
 952              		.cfi_offset 8, -4
 953 0004 0008     		addi	s0,sp,16
 954              		.cfi_def_cfa 8, 0
 388:../Firmware/GD32VW55x_standard_peripheral/Source/gd32vw55x_spi.c ****     SPI_CTL1 &= (uint32_t)(~SPI_CTL1_TMOD);
 955              		.loc 1 388 14
 956 0006 B7370140 		li	a5,1073819648
 957 000a 9107     		addi	a5,a5,4
 958 000c 9843     		lw	a4,0(a5)
 959 000e B7370140 		li	a5,1073819648
 960 0012 9107     		addi	a5,a5,4
 961 0014 3D9B     		andi	a4,a4,-17
 962 0016 98C3     		sw	a4,0(a5)
 389:../Firmware/GD32VW55x_standard_peripheral/Source/gd32vw55x_spi.c **** }
 963              		.loc 1 389 1
 964 0018 0100     		nop
 965 001a 3244     		lw	s0,12(sp)
 966              		.cfi_restore 8
 967              		.cfi_def_cfa 2, 16
 968 001c 4101     		addi	sp,sp,16
 969              		.cfi_def_cfa_offset 0
 970 001e 8280     		jr	ra
 971              		.cfi_endproc
 972              	.LFE371:
 974              		.section	.text.spi_interrupt_enable,"ax",@progbits
 975              		.align	1
 976              		.globl	spi_interrupt_enable
 978              	spi_interrupt_enable:
 979              	.LFB372:
 390:../Firmware/GD32VW55x_standard_peripheral/Source/gd32vw55x_spi.c **** 
 391:../Firmware/GD32VW55x_standard_peripheral/Source/gd32vw55x_spi.c **** /*!
 392:../Firmware/GD32VW55x_standard_peripheral/Source/gd32vw55x_spi.c ****     \brief      enable SPI interrupt
 393:../Firmware/GD32VW55x_standard_peripheral/Source/gd32vw55x_spi.c ****     \param[in]  interrupt: SPI interrupt
 394:../Firmware/GD32VW55x_standard_peripheral/Source/gd32vw55x_spi.c ****                 only one parameter can be selected which is shown as below:
 395:../Firmware/GD32VW55x_standard_peripheral/Source/gd32vw55x_spi.c ****       \arg        SPI_INT_TBE: transmit buffer empty interrupt
 396:../Firmware/GD32VW55x_standard_peripheral/Source/gd32vw55x_spi.c ****       \arg        SPI_INT_RBNE: receive buffer not empty interrupt
 397:../Firmware/GD32VW55x_standard_peripheral/Source/gd32vw55x_spi.c ****       \arg        SPI_INT_ERR: CRC error,configuration error,reception overrun error
 398:../Firmware/GD32VW55x_standard_peripheral/Source/gd32vw55x_spi.c ****                                     and format error interrupt
 399:../Firmware/GD32VW55x_standard_peripheral/Source/gd32vw55x_spi.c ****     \param[out] none
 400:../Firmware/GD32VW55x_standard_peripheral/Source/gd32vw55x_spi.c ****     \retval     none
 401:../Firmware/GD32VW55x_standard_peripheral/Source/gd32vw55x_spi.c **** */
 402:../Firmware/GD32VW55x_standard_peripheral/Source/gd32vw55x_spi.c **** void spi_interrupt_enable(uint8_t interrupt)
 403:../Firmware/GD32VW55x_standard_peripheral/Source/gd32vw55x_spi.c **** {
 980              		.loc 1 403 1
 981              		.cfi_startproc
 982 0000 0111     		addi	sp,sp,-32
 983              		.cfi_def_cfa_offset 32
 984 0002 22CE     		sw	s0,28(sp)
 985              		.cfi_offset 8, -4
 986 0004 0010     		addi	s0,sp,32
 987              		.cfi_def_cfa 8, 0
 988 0006 AA87     		mv	a5,a0
 989 0008 A307F4FE 		sb	a5,-17(s0)
 404:../Firmware/GD32VW55x_standard_peripheral/Source/gd32vw55x_spi.c ****     switch(interrupt){
 990              		.loc 1 404 5
 991 000c 8347F4FE 		lbu	a5,-17(s0)
 992 0010 0947     		li	a4,2
 993 0012 6380E704 		beq	a5,a4,.L40
 994 0016 0947     		li	a4,2
 995 0018 6348F704 		bgt	a5,a4,.L45
 996 001c 89C7     		beq	a5,zero,.L42
 997 001e 0547     		li	a4,1
 998 0020 638EE700 		beq	a5,a4,.L43
 405:../Firmware/GD32VW55x_standard_peripheral/Source/gd32vw55x_spi.c ****     /* SPI transmit buffer empty interrupt */
 406:../Firmware/GD32VW55x_standard_peripheral/Source/gd32vw55x_spi.c ****     case SPI_INT_TBE:
 407:../Firmware/GD32VW55x_standard_peripheral/Source/gd32vw55x_spi.c ****         SPI_CTL1 |= (uint32_t)SPI_CTL1_TBEIE;
 408:../Firmware/GD32VW55x_standard_peripheral/Source/gd32vw55x_spi.c ****         break;
 409:../Firmware/GD32VW55x_standard_peripheral/Source/gd32vw55x_spi.c ****     /* SPI receive buffer not empty interrupt */
 410:../Firmware/GD32VW55x_standard_peripheral/Source/gd32vw55x_spi.c ****     case SPI_INT_RBNE:
 411:../Firmware/GD32VW55x_standard_peripheral/Source/gd32vw55x_spi.c ****         SPI_CTL1 |= (uint32_t)SPI_CTL1_RBNEIE;
 412:../Firmware/GD32VW55x_standard_peripheral/Source/gd32vw55x_spi.c ****         break;
 413:../Firmware/GD32VW55x_standard_peripheral/Source/gd32vw55x_spi.c ****     /* SPI error */
 414:../Firmware/GD32VW55x_standard_peripheral/Source/gd32vw55x_spi.c ****     case SPI_INT_ERR:
 415:../Firmware/GD32VW55x_standard_peripheral/Source/gd32vw55x_spi.c ****         SPI_CTL1 |= (uint32_t)SPI_CTL1_ERRIE;
 416:../Firmware/GD32VW55x_standard_peripheral/Source/gd32vw55x_spi.c ****         break;
 417:../Firmware/GD32VW55x_standard_peripheral/Source/gd32vw55x_spi.c ****     default:
 418:../Firmware/GD32VW55x_standard_peripheral/Source/gd32vw55x_spi.c ****         break;
 999              		.loc 1 418 9
 1000 0024 91A0     		j	.L45
 1001              	.L42:
 407:../Firmware/GD32VW55x_standard_peripheral/Source/gd32vw55x_spi.c ****         break;
 1002              		.loc 1 407 18
 1003 0026 B7370140 		li	a5,1073819648
 1004 002a 9107     		addi	a5,a5,4
 1005 002c 9843     		lw	a4,0(a5)
 1006 002e B7370140 		li	a5,1073819648
 1007 0032 9107     		addi	a5,a5,4
 1008 0034 13670708 		ori	a4,a4,128
 1009 0038 98C3     		sw	a4,0(a5)
 408:../Firmware/GD32VW55x_standard_peripheral/Source/gd32vw55x_spi.c ****     /* SPI receive buffer not empty interrupt */
 1010              		.loc 1 408 9
 1011 003a 05A8     		j	.L44
 1012              	.L43:
 411:../Firmware/GD32VW55x_standard_peripheral/Source/gd32vw55x_spi.c ****         break;
 1013              		.loc 1 411 18
 1014 003c B7370140 		li	a5,1073819648
 1015 0040 9107     		addi	a5,a5,4
 1016 0042 9843     		lw	a4,0(a5)
 1017 0044 B7370140 		li	a5,1073819648
 1018 0048 9107     		addi	a5,a5,4
 1019 004a 13670704 		ori	a4,a4,64
 1020 004e 98C3     		sw	a4,0(a5)
 412:../Firmware/GD32VW55x_standard_peripheral/Source/gd32vw55x_spi.c ****     /* SPI error */
 1021              		.loc 1 412 9
 1022 0050 29A8     		j	.L44
 1023              	.L40:
 415:../Firmware/GD32VW55x_standard_peripheral/Source/gd32vw55x_spi.c ****         break;
 1024              		.loc 1 415 18
 1025 0052 B7370140 		li	a5,1073819648
 1026 0056 9107     		addi	a5,a5,4
 1027 0058 9843     		lw	a4,0(a5)
 1028 005a B7370140 		li	a5,1073819648
 1029 005e 9107     		addi	a5,a5,4
 1030 0060 13670702 		ori	a4,a4,32
 1031 0064 98C3     		sw	a4,0(a5)
 416:../Firmware/GD32VW55x_standard_peripheral/Source/gd32vw55x_spi.c ****     default:
 1032              		.loc 1 416 9
 1033 0066 11A0     		j	.L44
 1034              	.L45:
 1035              		.loc 1 418 9
 1036 0068 0100     		nop
 1037              	.L44:
 419:../Firmware/GD32VW55x_standard_peripheral/Source/gd32vw55x_spi.c ****     }
 420:../Firmware/GD32VW55x_standard_peripheral/Source/gd32vw55x_spi.c **** }
 1038              		.loc 1 420 1
 1039 006a 0100     		nop
 1040 006c 7244     		lw	s0,28(sp)
 1041              		.cfi_restore 8
 1042              		.cfi_def_cfa 2, 32
 1043 006e 0561     		addi	sp,sp,32
 1044              		.cfi_def_cfa_offset 0
 1045 0070 8280     		jr	ra
 1046              		.cfi_endproc
 1047              	.LFE372:
 1049              		.section	.text.spi_interrupt_disable,"ax",@progbits
 1050              		.align	1
 1051              		.globl	spi_interrupt_disable
 1053              	spi_interrupt_disable:
 1054              	.LFB373:
 421:../Firmware/GD32VW55x_standard_peripheral/Source/gd32vw55x_spi.c **** 
 422:../Firmware/GD32VW55x_standard_peripheral/Source/gd32vw55x_spi.c **** /*!
 423:../Firmware/GD32VW55x_standard_peripheral/Source/gd32vw55x_spi.c ****     \brief      disable SPI interrupt
 424:../Firmware/GD32VW55x_standard_peripheral/Source/gd32vw55x_spi.c ****     \param[in]  interrupt: SPI interrupt
 425:../Firmware/GD32VW55x_standard_peripheral/Source/gd32vw55x_spi.c ****                 only one parameter can be selected which is shown as below:
 426:../Firmware/GD32VW55x_standard_peripheral/Source/gd32vw55x_spi.c ****       \arg        SPI_INT_TBE: transmit buffer empty interrupt
 427:../Firmware/GD32VW55x_standard_peripheral/Source/gd32vw55x_spi.c ****       \arg        SPI_INT_RBNE: receive buffer not empty interrupt
 428:../Firmware/GD32VW55x_standard_peripheral/Source/gd32vw55x_spi.c ****       \arg        SPI_INT_ERR: CRC error,configuration error,reception overrun error
 429:../Firmware/GD32VW55x_standard_peripheral/Source/gd32vw55x_spi.c ****                                     and format error interrupt
 430:../Firmware/GD32VW55x_standard_peripheral/Source/gd32vw55x_spi.c ****     \param[out] none
 431:../Firmware/GD32VW55x_standard_peripheral/Source/gd32vw55x_spi.c ****     \retval     none
 432:../Firmware/GD32VW55x_standard_peripheral/Source/gd32vw55x_spi.c **** */
 433:../Firmware/GD32VW55x_standard_peripheral/Source/gd32vw55x_spi.c **** void spi_interrupt_disable(uint8_t interrupt)
 434:../Firmware/GD32VW55x_standard_peripheral/Source/gd32vw55x_spi.c **** {
 1055              		.loc 1 434 1
 1056              		.cfi_startproc
 1057 0000 0111     		addi	sp,sp,-32
 1058              		.cfi_def_cfa_offset 32
 1059 0002 22CE     		sw	s0,28(sp)
 1060              		.cfi_offset 8, -4
 1061 0004 0010     		addi	s0,sp,32
 1062              		.cfi_def_cfa 8, 0
 1063 0006 AA87     		mv	a5,a0
 1064 0008 A307F4FE 		sb	a5,-17(s0)
 435:../Firmware/GD32VW55x_standard_peripheral/Source/gd32vw55x_spi.c ****     switch(interrupt){
 1065              		.loc 1 435 5
 1066 000c 8347F4FE 		lbu	a5,-17(s0)
 1067 0010 0947     		li	a4,2
 1068 0012 6380E704 		beq	a5,a4,.L47
 1069 0016 0947     		li	a4,2
 1070 0018 6348F704 		bgt	a5,a4,.L52
 1071 001c 89C7     		beq	a5,zero,.L49
 1072 001e 0547     		li	a4,1
 1073 0020 638EE700 		beq	a5,a4,.L50
 436:../Firmware/GD32VW55x_standard_peripheral/Source/gd32vw55x_spi.c ****     /* SPI transmit buffer empty interrupt */
 437:../Firmware/GD32VW55x_standard_peripheral/Source/gd32vw55x_spi.c ****     case SPI_INT_TBE:
 438:../Firmware/GD32VW55x_standard_peripheral/Source/gd32vw55x_spi.c ****         SPI_CTL1 &= (uint32_t)(~SPI_CTL1_TBEIE);
 439:../Firmware/GD32VW55x_standard_peripheral/Source/gd32vw55x_spi.c ****         break;
 440:../Firmware/GD32VW55x_standard_peripheral/Source/gd32vw55x_spi.c ****     /* SPI receive buffer not empty interrupt */
 441:../Firmware/GD32VW55x_standard_peripheral/Source/gd32vw55x_spi.c ****     case SPI_INT_RBNE:
 442:../Firmware/GD32VW55x_standard_peripheral/Source/gd32vw55x_spi.c ****         SPI_CTL1 &= (uint32_t)(~SPI_CTL1_RBNEIE);
 443:../Firmware/GD32VW55x_standard_peripheral/Source/gd32vw55x_spi.c ****         break;
 444:../Firmware/GD32VW55x_standard_peripheral/Source/gd32vw55x_spi.c ****     /* SPI error */
 445:../Firmware/GD32VW55x_standard_peripheral/Source/gd32vw55x_spi.c ****     case SPI_INT_ERR:
 446:../Firmware/GD32VW55x_standard_peripheral/Source/gd32vw55x_spi.c ****         SPI_CTL1 &= (uint32_t)(~SPI_CTL1_ERRIE);
 447:../Firmware/GD32VW55x_standard_peripheral/Source/gd32vw55x_spi.c ****         break;
 448:../Firmware/GD32VW55x_standard_peripheral/Source/gd32vw55x_spi.c ****     default :
 449:../Firmware/GD32VW55x_standard_peripheral/Source/gd32vw55x_spi.c ****         break;
 1074              		.loc 1 449 9
 1075 0024 91A0     		j	.L52
 1076              	.L49:
 438:../Firmware/GD32VW55x_standard_peripheral/Source/gd32vw55x_spi.c ****         break;
 1077              		.loc 1 438 18
 1078 0026 B7370140 		li	a5,1073819648
 1079 002a 9107     		addi	a5,a5,4
 1080 002c 9843     		lw	a4,0(a5)
 1081 002e B7370140 		li	a5,1073819648
 1082 0032 9107     		addi	a5,a5,4
 1083 0034 1377F7F7 		andi	a4,a4,-129
 1084 0038 98C3     		sw	a4,0(a5)
 439:../Firmware/GD32VW55x_standard_peripheral/Source/gd32vw55x_spi.c ****     /* SPI receive buffer not empty interrupt */
 1085              		.loc 1 439 9
 1086 003a 05A8     		j	.L51
 1087              	.L50:
 442:../Firmware/GD32VW55x_standard_peripheral/Source/gd32vw55x_spi.c ****         break;
 1088              		.loc 1 442 18
 1089 003c B7370140 		li	a5,1073819648
 1090 0040 9107     		addi	a5,a5,4
 1091 0042 9843     		lw	a4,0(a5)
 1092 0044 B7370140 		li	a5,1073819648
 1093 0048 9107     		addi	a5,a5,4
 1094 004a 1377F7FB 		andi	a4,a4,-65
 1095 004e 98C3     		sw	a4,0(a5)
 443:../Firmware/GD32VW55x_standard_peripheral/Source/gd32vw55x_spi.c ****     /* SPI error */
 1096              		.loc 1 443 9
 1097 0050 29A8     		j	.L51
 1098              	.L47:
 446:../Firmware/GD32VW55x_standard_peripheral/Source/gd32vw55x_spi.c ****         break;
 1099              		.loc 1 446 18
 1100 0052 B7370140 		li	a5,1073819648
 1101 0056 9107     		addi	a5,a5,4
 1102 0058 9843     		lw	a4,0(a5)
 1103 005a B7370140 		li	a5,1073819648
 1104 005e 9107     		addi	a5,a5,4
 1105 0060 1377F7FD 		andi	a4,a4,-33
 1106 0064 98C3     		sw	a4,0(a5)
 447:../Firmware/GD32VW55x_standard_peripheral/Source/gd32vw55x_spi.c ****     default :
 1107              		.loc 1 447 9
 1108 0066 11A0     		j	.L51
 1109              	.L52:
 1110              		.loc 1 449 9
 1111 0068 0100     		nop
 1112              	.L51:
 450:../Firmware/GD32VW55x_standard_peripheral/Source/gd32vw55x_spi.c ****     }
 451:../Firmware/GD32VW55x_standard_peripheral/Source/gd32vw55x_spi.c **** }
 1113              		.loc 1 451 1
 1114 006a 0100     		nop
 1115 006c 7244     		lw	s0,28(sp)
 1116              		.cfi_restore 8
 1117              		.cfi_def_cfa 2, 32
 1118 006e 0561     		addi	sp,sp,32
 1119              		.cfi_def_cfa_offset 0
 1120 0070 8280     		jr	ra
 1121              		.cfi_endproc
 1122              	.LFE373:
 1124              		.section	.text.spi_interrupt_flag_get,"ax",@progbits
 1125              		.align	1
 1126              		.globl	spi_interrupt_flag_get
 1128              	spi_interrupt_flag_get:
 1129              	.LFB374:
 452:../Firmware/GD32VW55x_standard_peripheral/Source/gd32vw55x_spi.c **** 
 453:../Firmware/GD32VW55x_standard_peripheral/Source/gd32vw55x_spi.c **** /*!
 454:../Firmware/GD32VW55x_standard_peripheral/Source/gd32vw55x_spi.c ****     \brief      get SPI interrupt flag status
 455:../Firmware/GD32VW55x_standard_peripheral/Source/gd32vw55x_spi.c ****     \param[in]  interrupt: SPI interrupt flag status
 456:../Firmware/GD32VW55x_standard_peripheral/Source/gd32vw55x_spi.c ****                 only one parameter can be selected which is shown as below:
 457:../Firmware/GD32VW55x_standard_peripheral/Source/gd32vw55x_spi.c ****       \arg        SPI_INT_FLAG_TBE: transmit buffer empty interrupt flag
 458:../Firmware/GD32VW55x_standard_peripheral/Source/gd32vw55x_spi.c ****       \arg        SPI_INT_FLAG_RBNE: receive buffer not empty interrupt flag
 459:../Firmware/GD32VW55x_standard_peripheral/Source/gd32vw55x_spi.c ****       \arg        SPI_INT_FLAG_RXORERR: overrun interrupt flag
 460:../Firmware/GD32VW55x_standard_peripheral/Source/gd32vw55x_spi.c ****       \arg        SPI_INT_FLAG_CONFERR: configuration error interrupt flag
 461:../Firmware/GD32VW55x_standard_peripheral/Source/gd32vw55x_spi.c ****       \arg        SPI_INT_FLAG_CRCERR: CRC error interrupt flag
 462:../Firmware/GD32VW55x_standard_peripheral/Source/gd32vw55x_spi.c ****       \arg        SPI_INT_FLAG_FERR: format error interrupt flag
 463:../Firmware/GD32VW55x_standard_peripheral/Source/gd32vw55x_spi.c ****     \param[out] none
 464:../Firmware/GD32VW55x_standard_peripheral/Source/gd32vw55x_spi.c ****     \retval     FlagStatus: SET or RESET
 465:../Firmware/GD32VW55x_standard_peripheral/Source/gd32vw55x_spi.c **** */
 466:../Firmware/GD32VW55x_standard_peripheral/Source/gd32vw55x_spi.c **** FlagStatus spi_interrupt_flag_get(uint8_t interrupt)
 467:../Firmware/GD32VW55x_standard_peripheral/Source/gd32vw55x_spi.c **** {
 1130              		.loc 1 467 1
 1131              		.cfi_startproc
 1132 0000 7971     		addi	sp,sp,-48
 1133              		.cfi_def_cfa_offset 48
 1134 0002 22D6     		sw	s0,44(sp)
 1135              		.cfi_offset 8, -4
 1136 0004 0018     		addi	s0,sp,48
 1137              		.cfi_def_cfa 8, 0
 1138 0006 AA87     		mv	a5,a0
 1139 0008 A30FF4FC 		sb	a5,-33(s0)
 468:../Firmware/GD32VW55x_standard_peripheral/Source/gd32vw55x_spi.c ****     uint32_t reg1 = SPI_STAT;
 1140              		.loc 1 468 21
 1141 000c B7370140 		li	a5,1073819648
 1142 0010 A107     		addi	a5,a5,8
 1143              		.loc 1 468 14
 1144 0012 9C43     		lw	a5,0(a5)
 1145 0014 2326F4FE 		sw	a5,-20(s0)
 469:../Firmware/GD32VW55x_standard_peripheral/Source/gd32vw55x_spi.c ****     uint32_t reg2 = SPI_CTL1;
 1146              		.loc 1 469 21
 1147 0018 B7370140 		li	a5,1073819648
 1148 001c 9107     		addi	a5,a5,4
 1149              		.loc 1 469 14
 1150 001e 9C43     		lw	a5,0(a5)
 1151 0020 2324F4FE 		sw	a5,-24(s0)
 470:../Firmware/GD32VW55x_standard_peripheral/Source/gd32vw55x_spi.c **** 
 471:../Firmware/GD32VW55x_standard_peripheral/Source/gd32vw55x_spi.c ****     switch(interrupt){
 1152              		.loc 1 471 5
 1153 0024 8347F4FD 		lbu	a5,-33(s0)
 1154 0028 1947     		li	a4,6
 1155 002a 636BF70A 		bgtu	a5,a4,.L65
 1156 002e 13972700 		slli	a4,a5,2
 1157 0032 97070000 		lla	a5,.L56
 1157      93870700 
 1158 003a BA97     		add	a5,a4,a5
 1159 003c 9843     		lw	a4,0(a5)
 1160 003e 97070000 		lla	a5,.L56
 1160      93870700 
 1161 0046 BA97     		add	a5,a4,a5
 1162 0048 8287     		jr	a5
 1163              		.section	.rodata.spi_interrupt_flag_get,"a",@progbits
 1164              		.align	2
 1165              		.align	2
 1166              	.L56:
 1167 0000 00000000 		.word	.L61-.L56
 1168 0004 00000000 		.word	.L60-.L56
 1169 0008 00000000 		.word	.L59-.L56
 1170 000c 00000000 		.word	.L58-.L56
 1171 0010 00000000 		.word	.L57-.L56
 1172 0014 00000000 		.word	.L65-.L56
 1173 0018 00000000 		.word	.L55-.L56
 1174              		.section	.text.spi_interrupt_flag_get
 1175              	.L61:
 472:../Firmware/GD32VW55x_standard_peripheral/Source/gd32vw55x_spi.c ****     /* SPI transmit buffer empty interrupt */
 473:../Firmware/GD32VW55x_standard_peripheral/Source/gd32vw55x_spi.c ****     case SPI_INT_FLAG_TBE:
 474:../Firmware/GD32VW55x_standard_peripheral/Source/gd32vw55x_spi.c ****         reg1 = reg1 & SPI_STAT_TBE;
 1176              		.loc 1 474 14
 1177 004a 8327C4FE 		lw	a5,-20(s0)
 1178 004e 898B     		andi	a5,a5,2
 1179 0050 2326F4FE 		sw	a5,-20(s0)
 475:../Firmware/GD32VW55x_standard_peripheral/Source/gd32vw55x_spi.c ****         reg2 = reg2 & SPI_CTL1_TBEIE;
 1180              		.loc 1 475 14
 1181 0054 832784FE 		lw	a5,-24(s0)
 1182 0058 93F70708 		andi	a5,a5,128
 1183 005c 2324F4FE 		sw	a5,-24(s0)
 476:../Firmware/GD32VW55x_standard_peripheral/Source/gd32vw55x_spi.c ****         break;
 1184              		.loc 1 476 9
 1185 0060 49A0     		j	.L62
 1186              	.L60:
 477:../Firmware/GD32VW55x_standard_peripheral/Source/gd32vw55x_spi.c ****     /* SPI receive buffer not empty interrupt */
 478:../Firmware/GD32VW55x_standard_peripheral/Source/gd32vw55x_spi.c ****     case SPI_INT_FLAG_RBNE:
 479:../Firmware/GD32VW55x_standard_peripheral/Source/gd32vw55x_spi.c ****         reg1 = reg1 & SPI_STAT_RBNE;
 1187              		.loc 1 479 14
 1188 0062 8327C4FE 		lw	a5,-20(s0)
 1189 0066 858B     		andi	a5,a5,1
 1190 0068 2326F4FE 		sw	a5,-20(s0)
 480:../Firmware/GD32VW55x_standard_peripheral/Source/gd32vw55x_spi.c ****         reg2 = reg2 & SPI_CTL1_RBNEIE;
 1191              		.loc 1 480 14
 1192 006c 832784FE 		lw	a5,-24(s0)
 1193 0070 93F70704 		andi	a5,a5,64
 1194 0074 2324F4FE 		sw	a5,-24(s0)
 481:../Firmware/GD32VW55x_standard_peripheral/Source/gd32vw55x_spi.c ****         break;
 1195              		.loc 1 481 9
 1196 0078 ADA0     		j	.L62
 1197              	.L59:
 482:../Firmware/GD32VW55x_standard_peripheral/Source/gd32vw55x_spi.c ****     /* SPI overrun interrupt */
 483:../Firmware/GD32VW55x_standard_peripheral/Source/gd32vw55x_spi.c ****     case SPI_INT_FLAG_RXORERR:
 484:../Firmware/GD32VW55x_standard_peripheral/Source/gd32vw55x_spi.c ****         reg1 = reg1 & SPI_STAT_RXORERR;
 1198              		.loc 1 484 14
 1199 007a 8327C4FE 		lw	a5,-20(s0)
 1200 007e 93F70704 		andi	a5,a5,64
 1201 0082 2326F4FE 		sw	a5,-20(s0)
 485:../Firmware/GD32VW55x_standard_peripheral/Source/gd32vw55x_spi.c ****         reg2 = reg2 & SPI_CTL1_ERRIE;
 1202              		.loc 1 485 14
 1203 0086 832784FE 		lw	a5,-24(s0)
 1204 008a 93F70702 		andi	a5,a5,32
 1205 008e 2324F4FE 		sw	a5,-24(s0)
 486:../Firmware/GD32VW55x_standard_peripheral/Source/gd32vw55x_spi.c ****         break;
 1206              		.loc 1 486 9
 1207 0092 81A8     		j	.L62
 1208              	.L58:
 487:../Firmware/GD32VW55x_standard_peripheral/Source/gd32vw55x_spi.c ****     /* SPI configuration error interrupt */
 488:../Firmware/GD32VW55x_standard_peripheral/Source/gd32vw55x_spi.c ****     case SPI_INT_FLAG_CONFERR:
 489:../Firmware/GD32VW55x_standard_peripheral/Source/gd32vw55x_spi.c ****         reg1 = reg1 & SPI_STAT_CONFERR;
 1209              		.loc 1 489 14
 1210 0094 8327C4FE 		lw	a5,-20(s0)
 1211 0098 93F70702 		andi	a5,a5,32
 1212 009c 2326F4FE 		sw	a5,-20(s0)
 490:../Firmware/GD32VW55x_standard_peripheral/Source/gd32vw55x_spi.c ****         reg2 = reg2 & SPI_CTL1_ERRIE;
 1213              		.loc 1 490 14
 1214 00a0 832784FE 		lw	a5,-24(s0)
 1215 00a4 93F70702 		andi	a5,a5,32
 1216 00a8 2324F4FE 		sw	a5,-24(s0)
 491:../Firmware/GD32VW55x_standard_peripheral/Source/gd32vw55x_spi.c ****         break;
 1217              		.loc 1 491 9
 1218 00ac 1DA8     		j	.L62
 1219              	.L57:
 492:../Firmware/GD32VW55x_standard_peripheral/Source/gd32vw55x_spi.c ****     /* SPI CRC error interrupt */
 493:../Firmware/GD32VW55x_standard_peripheral/Source/gd32vw55x_spi.c ****     case SPI_INT_FLAG_CRCERR:
 494:../Firmware/GD32VW55x_standard_peripheral/Source/gd32vw55x_spi.c ****         reg1 = reg1 & SPI_STAT_CRCERR;
 1220              		.loc 1 494 14
 1221 00ae 8327C4FE 		lw	a5,-20(s0)
 1222 00b2 C18B     		andi	a5,a5,16
 1223 00b4 2326F4FE 		sw	a5,-20(s0)
 495:../Firmware/GD32VW55x_standard_peripheral/Source/gd32vw55x_spi.c ****         reg2 = reg2 & SPI_CTL1_ERRIE;
 1224              		.loc 1 495 14
 1225 00b8 832784FE 		lw	a5,-24(s0)
 1226 00bc 93F70702 		andi	a5,a5,32
 1227 00c0 2324F4FE 		sw	a5,-24(s0)
 496:../Firmware/GD32VW55x_standard_peripheral/Source/gd32vw55x_spi.c ****         break;
 1228              		.loc 1 496 9
 1229 00c4 39A8     		j	.L62
 1230              	.L55:
 497:../Firmware/GD32VW55x_standard_peripheral/Source/gd32vw55x_spi.c ****     /* SPI format error interrupt */
 498:../Firmware/GD32VW55x_standard_peripheral/Source/gd32vw55x_spi.c ****     case SPI_INT_FLAG_FERR:
 499:../Firmware/GD32VW55x_standard_peripheral/Source/gd32vw55x_spi.c ****         reg1 = reg1 & SPI_STAT_FERR;
 1231              		.loc 1 499 14
 1232 00c6 8327C4FE 		lw	a5,-20(s0)
 1233 00ca 93F70710 		andi	a5,a5,256
 1234 00ce 2326F4FE 		sw	a5,-20(s0)
 500:../Firmware/GD32VW55x_standard_peripheral/Source/gd32vw55x_spi.c ****         reg2 = reg2 & SPI_CTL1_ERRIE;
 1235              		.loc 1 500 14
 1236 00d2 832784FE 		lw	a5,-24(s0)
 1237 00d6 93F70702 		andi	a5,a5,32
 1238 00da 2324F4FE 		sw	a5,-24(s0)
 501:../Firmware/GD32VW55x_standard_peripheral/Source/gd32vw55x_spi.c ****         break;
 1239              		.loc 1 501 9
 1240 00de 11A0     		j	.L62
 1241              	.L65:
 502:../Firmware/GD32VW55x_standard_peripheral/Source/gd32vw55x_spi.c ****     default :
 503:../Firmware/GD32VW55x_standard_peripheral/Source/gd32vw55x_spi.c ****         break;
 1242              		.loc 1 503 9
 1243 00e0 0100     		nop
 1244              	.L62:
 504:../Firmware/GD32VW55x_standard_peripheral/Source/gd32vw55x_spi.c ****     }
 505:../Firmware/GD32VW55x_standard_peripheral/Source/gd32vw55x_spi.c ****     /*get SPI interrupt flag status */
 506:../Firmware/GD32VW55x_standard_peripheral/Source/gd32vw55x_spi.c ****     if((0U != reg1) && (0U != reg2)){
 1245              		.loc 1 506 7
 1246 00e2 8327C4FE 		lw	a5,-20(s0)
 1247 00e6 91C7     		beq	a5,zero,.L63
 1248              		.loc 1 506 21 discriminator 1
 1249 00e8 832784FE 		lw	a5,-24(s0)
 1250 00ec 99C3     		beq	a5,zero,.L63
 507:../Firmware/GD32VW55x_standard_peripheral/Source/gd32vw55x_spi.c ****         return SET;
 1251              		.loc 1 507 16
 1252 00ee 8547     		li	a5,1
 1253 00f0 11A0     		j	.L64
 1254              	.L63:
 508:../Firmware/GD32VW55x_standard_peripheral/Source/gd32vw55x_spi.c ****     }else{
 509:../Firmware/GD32VW55x_standard_peripheral/Source/gd32vw55x_spi.c ****         return RESET;
 1255              		.loc 1 509 16
 1256 00f2 8147     		li	a5,0
 1257              	.L64:
 510:../Firmware/GD32VW55x_standard_peripheral/Source/gd32vw55x_spi.c ****     }
 511:../Firmware/GD32VW55x_standard_peripheral/Source/gd32vw55x_spi.c **** }
 1258              		.loc 1 511 1
 1259 00f4 3E85     		mv	a0,a5
 1260 00f6 3254     		lw	s0,44(sp)
 1261              		.cfi_restore 8
 1262              		.cfi_def_cfa 2, 48
 1263 00f8 4561     		addi	sp,sp,48
 1264              		.cfi_def_cfa_offset 0
 1265 00fa 8280     		jr	ra
 1266              		.cfi_endproc
 1267              	.LFE374:
 1269              		.section	.text.spi_flag_get,"ax",@progbits
 1270              		.align	1
 1271              		.globl	spi_flag_get
 1273              	spi_flag_get:
 1274              	.LFB375:
 512:../Firmware/GD32VW55x_standard_peripheral/Source/gd32vw55x_spi.c **** 
 513:../Firmware/GD32VW55x_standard_peripheral/Source/gd32vw55x_spi.c **** /*!
 514:../Firmware/GD32VW55x_standard_peripheral/Source/gd32vw55x_spi.c ****     \brief      get SPI flag status
 515:../Firmware/GD32VW55x_standard_peripheral/Source/gd32vw55x_spi.c ****     \param[in]  flag: SPI flag status
 516:../Firmware/GD32VW55x_standard_peripheral/Source/gd32vw55x_spi.c ****                 only one parameter can be selected which is shown as below:
 517:../Firmware/GD32VW55x_standard_peripheral/Source/gd32vw55x_spi.c ****       \arg        SPI_FLAG_TBE: transmit buffer empty flag
 518:../Firmware/GD32VW55x_standard_peripheral/Source/gd32vw55x_spi.c ****       \arg        SPI_FLAG_RBNE: receive buffer not empty flag
 519:../Firmware/GD32VW55x_standard_peripheral/Source/gd32vw55x_spi.c ****       \arg        SPI_FLAG_TRANS: transmit on-going flag
 520:../Firmware/GD32VW55x_standard_peripheral/Source/gd32vw55x_spi.c ****       \arg        SPI_FLAG_RXORERR: receive overrun error flag
 521:../Firmware/GD32VW55x_standard_peripheral/Source/gd32vw55x_spi.c ****       \arg        SPI_FLAG_CONFERR: mode configuration error flag
 522:../Firmware/GD32VW55x_standard_peripheral/Source/gd32vw55x_spi.c ****       \arg        SPI_FLAG_CRCERR: CRC error flag
 523:../Firmware/GD32VW55x_standard_peripheral/Source/gd32vw55x_spi.c ****       \arg        SPI_FLAG_FERR: format error flag
 524:../Firmware/GD32VW55x_standard_peripheral/Source/gd32vw55x_spi.c ****     \param[out] none
 525:../Firmware/GD32VW55x_standard_peripheral/Source/gd32vw55x_spi.c ****     \retval     FlagStatus: SET or RESET
 526:../Firmware/GD32VW55x_standard_peripheral/Source/gd32vw55x_spi.c **** */
 527:../Firmware/GD32VW55x_standard_peripheral/Source/gd32vw55x_spi.c **** FlagStatus spi_flag_get(uint32_t flag)
 528:../Firmware/GD32VW55x_standard_peripheral/Source/gd32vw55x_spi.c **** {
 1275              		.loc 1 528 1
 1276              		.cfi_startproc
 1277 0000 0111     		addi	sp,sp,-32
 1278              		.cfi_def_cfa_offset 32
 1279 0002 22CE     		sw	s0,28(sp)
 1280              		.cfi_offset 8, -4
 1281 0004 0010     		addi	s0,sp,32
 1282              		.cfi_def_cfa 8, 0
 1283 0006 2326A4FE 		sw	a0,-20(s0)
 529:../Firmware/GD32VW55x_standard_peripheral/Source/gd32vw55x_spi.c ****     if(0U != (SPI_STAT & flag)){
 1284              		.loc 1 529 15
 1285 000a B7370140 		li	a5,1073819648
 1286 000e A107     		addi	a5,a5,8
 1287 0010 9843     		lw	a4,0(a5)
 1288              		.loc 1 529 24
 1289 0012 8327C4FE 		lw	a5,-20(s0)
 1290 0016 F98F     		and	a5,a4,a5
 1291              		.loc 1 529 7
 1292 0018 99C3     		beq	a5,zero,.L67
 530:../Firmware/GD32VW55x_standard_peripheral/Source/gd32vw55x_spi.c ****         return SET;
 1293              		.loc 1 530 16
 1294 001a 8547     		li	a5,1
 1295 001c 11A0     		j	.L68
 1296              	.L67:
 531:../Firmware/GD32VW55x_standard_peripheral/Source/gd32vw55x_spi.c ****     }else{
 532:../Firmware/GD32VW55x_standard_peripheral/Source/gd32vw55x_spi.c ****         return RESET;
 1297              		.loc 1 532 16
 1298 001e 8147     		li	a5,0
 1299              	.L68:
 533:../Firmware/GD32VW55x_standard_peripheral/Source/gd32vw55x_spi.c ****     }
 534:../Firmware/GD32VW55x_standard_peripheral/Source/gd32vw55x_spi.c **** }
 1300              		.loc 1 534 1
 1301 0020 3E85     		mv	a0,a5
 1302 0022 7244     		lw	s0,28(sp)
 1303              		.cfi_restore 8
 1304              		.cfi_def_cfa 2, 32
 1305 0024 0561     		addi	sp,sp,32
 1306              		.cfi_def_cfa_offset 0
 1307 0026 8280     		jr	ra
 1308              		.cfi_endproc
 1309              	.LFE375:
 1311              		.text
 1312              	.Letext0:
 1313              		.file 2 "e:\\gd32\\gd32embeddedbuilder_v1.5.2.30854\\tools\\nuclei_riscv_newlibc_prebuilt_win32_20
 1314              		.file 3 "e:\\gd32\\gd32embeddedbuilder_v1.5.2.30854\\tools\\nuclei_riscv_newlibc_prebuilt_win32_20
 1315              		.file 4 "../Firmware/GD32VW55x_standard_peripheral/gd32vw55x.h"
 1316              		.file 5 "../Firmware/GD32VW55x_standard_peripheral/Include/gd32vw55x_rcu.h"
 1317              		.file 6 "../Firmware/GD32VW55x_standard_peripheral/Include/gd32vw55x_spi.h"
DEFINED SYMBOLS
                            *ABS*:0000000000000000 gd32vw55x_spi.c
C:\Users\CYMR90~1\AppData\Local\Temp\ccYj4tTD.s:13     .text.spi_deinit:0000000000000000 spi_deinit
C:\Users\CYMR90~1\AppData\Local\Temp\ccYj4tTD.s:17     .text.spi_deinit:0000000000000000 .L0 
C:\Users\CYMR90~1\AppData\Local\Temp\ccYj4tTD.s:18     .text.spi_deinit:0000000000000000 .L0 
C:\Users\CYMR90~1\AppData\Local\Temp\ccYj4tTD.s:19     .text.spi_deinit:0000000000000002 .L0 
C:\Users\CYMR90~1\AppData\Local\Temp\ccYj4tTD.s:22     .text.spi_deinit:0000000000000006 .L0 
C:\Users\CYMR90~1\AppData\Local\Temp\ccYj4tTD.s:23     .text.spi_deinit:0000000000000006 .L0 
C:\Users\CYMR90~1\AppData\Local\Temp\ccYj4tTD.s:25     .text.spi_deinit:0000000000000008 .L0 
C:\Users\CYMR90~1\AppData\Local\Temp\ccYj4tTD.s:27     .text.spi_deinit:0000000000000008 .L0 
C:\Users\CYMR90~1\AppData\Local\Temp\ccYj4tTD.s:31     .text.spi_deinit:0000000000000016 .L0 
C:\Users\CYMR90~1\AppData\Local\Temp\ccYj4tTD.s:35     .text.spi_deinit:0000000000000024 .L0 
C:\Users\CYMR90~1\AppData\Local\Temp\ccYj4tTD.s:37     .text.spi_deinit:0000000000000028 .L0 
C:\Users\CYMR90~1\AppData\Local\Temp\ccYj4tTD.s:39     .text.spi_deinit:000000000000002a .L0 
C:\Users\CYMR90~1\AppData\Local\Temp\ccYj4tTD.s:40     .text.spi_deinit:000000000000002a .L0 
C:\Users\CYMR90~1\AppData\Local\Temp\ccYj4tTD.s:42     .text.spi_deinit:000000000000002c .L0 
C:\Users\CYMR90~1\AppData\Local\Temp\ccYj4tTD.s:44     .text.spi_deinit:000000000000002e .L0 
C:\Users\CYMR90~1\AppData\Local\Temp\ccYj4tTD.s:51     .text.spi_struct_para_init:0000000000000000 spi_struct_para_init
C:\Users\CYMR90~1\AppData\Local\Temp\ccYj4tTD.s:54     .text.spi_struct_para_init:0000000000000000 .L0 
C:\Users\CYMR90~1\AppData\Local\Temp\ccYj4tTD.s:55     .text.spi_struct_para_init:0000000000000000 .L0 
C:\Users\CYMR90~1\AppData\Local\Temp\ccYj4tTD.s:56     .text.spi_struct_para_init:0000000000000002 .L0 
C:\Users\CYMR90~1\AppData\Local\Temp\ccYj4tTD.s:58     .text.spi_struct_para_init:0000000000000004 .L0 
C:\Users\CYMR90~1\AppData\Local\Temp\ccYj4tTD.s:60     .text.spi_struct_para_init:0000000000000006 .L0 
C:\Users\CYMR90~1\AppData\Local\Temp\ccYj4tTD.s:63     .text.spi_struct_para_init:000000000000000a .L0 
C:\Users\CYMR90~1\AppData\Local\Temp\ccYj4tTD.s:66     .text.spi_struct_para_init:0000000000000012 .L0 
C:\Users\CYMR90~1\AppData\Local\Temp\ccYj4tTD.s:69     .text.spi_struct_para_init:000000000000001a .L0 
C:\Users\CYMR90~1\AppData\Local\Temp\ccYj4tTD.s:72     .text.spi_struct_para_init:0000000000000022 .L0 
C:\Users\CYMR90~1\AppData\Local\Temp\ccYj4tTD.s:75     .text.spi_struct_para_init:000000000000002a .L0 
C:\Users\CYMR90~1\AppData\Local\Temp\ccYj4tTD.s:78     .text.spi_struct_para_init:0000000000000032 .L0 
C:\Users\CYMR90~1\AppData\Local\Temp\ccYj4tTD.s:81     .text.spi_struct_para_init:000000000000003a .L0 
C:\Users\CYMR90~1\AppData\Local\Temp\ccYj4tTD.s:84     .text.spi_struct_para_init:0000000000000042 .L0 
C:\Users\CYMR90~1\AppData\Local\Temp\ccYj4tTD.s:86     .text.spi_struct_para_init:0000000000000046 .L0 
C:\Users\CYMR90~1\AppData\Local\Temp\ccYj4tTD.s:87     .text.spi_struct_para_init:0000000000000046 .L0 
C:\Users\CYMR90~1\AppData\Local\Temp\ccYj4tTD.s:89     .text.spi_struct_para_init:0000000000000048 .L0 
C:\Users\CYMR90~1\AppData\Local\Temp\ccYj4tTD.s:91     .text.spi_struct_para_init:000000000000004a .L0 
C:\Users\CYMR90~1\AppData\Local\Temp\ccYj4tTD.s:98     .text.spi_init:0000000000000000 spi_init
C:\Users\CYMR90~1\AppData\Local\Temp\ccYj4tTD.s:101    .text.spi_init:0000000000000000 .L0 
C:\Users\CYMR90~1\AppData\Local\Temp\ccYj4tTD.s:102    .text.spi_init:0000000000000000 .L0 
C:\Users\CYMR90~1\AppData\Local\Temp\ccYj4tTD.s:103    .text.spi_init:0000000000000002 .L0 
C:\Users\CYMR90~1\AppData\Local\Temp\ccYj4tTD.s:105    .text.spi_init:0000000000000004 .L0 
C:\Users\CYMR90~1\AppData\Local\Temp\ccYj4tTD.s:107    .text.spi_init:0000000000000006 .L0 
C:\Users\CYMR90~1\AppData\Local\Temp\ccYj4tTD.s:110    .text.spi_init:000000000000000a .L0 
C:\Users\CYMR90~1\AppData\Local\Temp\ccYj4tTD.s:112    .text.spi_init:000000000000000e .L0 
C:\Users\CYMR90~1\AppData\Local\Temp\ccYj4tTD.s:114    .text.spi_init:0000000000000012 .L0 
C:\Users\CYMR90~1\AppData\Local\Temp\ccYj4tTD.s:117    .text.spi_init:0000000000000018 .L0 
C:\Users\CYMR90~1\AppData\Local\Temp\ccYj4tTD.s:123    .text.spi_init:0000000000000028 .L0 
C:\Users\CYMR90~1\AppData\Local\Temp\ccYj4tTD.s:126    .text.spi_init:000000000000002e .L0 
C:\Users\CYMR90~1\AppData\Local\Temp\ccYj4tTD.s:130    .text.spi_init:0000000000000038 .L0 
C:\Users\CYMR90~1\AppData\Local\Temp\ccYj4tTD.s:133    .text.spi_init:000000000000003e .L0 
C:\Users\CYMR90~1\AppData\Local\Temp\ccYj4tTD.s:137    .text.spi_init:0000000000000048 .L0 
C:\Users\CYMR90~1\AppData\Local\Temp\ccYj4tTD.s:140    .text.spi_init:000000000000004e .L0 
C:\Users\CYMR90~1\AppData\Local\Temp\ccYj4tTD.s:144    .text.spi_init:0000000000000058 .L0 
C:\Users\CYMR90~1\AppData\Local\Temp\ccYj4tTD.s:147    .text.spi_init:000000000000005e .L0 
C:\Users\CYMR90~1\AppData\Local\Temp\ccYj4tTD.s:151    .text.spi_init:0000000000000068 .L0 
C:\Users\CYMR90~1\AppData\Local\Temp\ccYj4tTD.s:154    .text.spi_init:000000000000006e .L0 
C:\Users\CYMR90~1\AppData\Local\Temp\ccYj4tTD.s:158    .text.spi_init:0000000000000078 .L0 
C:\Users\CYMR90~1\AppData\Local\Temp\ccYj4tTD.s:161    .text.spi_init:000000000000007e .L0 
C:\Users\CYMR90~1\AppData\Local\Temp\ccYj4tTD.s:165    .text.spi_init:0000000000000088 .L0 
C:\Users\CYMR90~1\AppData\Local\Temp\ccYj4tTD.s:168    .text.spi_init:000000000000008e .L0 
C:\Users\CYMR90~1\AppData\Local\Temp\ccYj4tTD.s:172    .text.spi_init:0000000000000098 .L0 
C:\Users\CYMR90~1\AppData\Local\Temp\ccYj4tTD.s:174    .text.spi_init:000000000000009c .L0 
C:\Users\CYMR90~1\AppData\Local\Temp\ccYj4tTD.s:177    .text.spi_init:00000000000000a2 .L0 
C:\Users\CYMR90~1\AppData\Local\Temp\ccYj4tTD.s:179    .text.spi_init:00000000000000a6 .L0 
C:\Users\CYMR90~1\AppData\Local\Temp\ccYj4tTD.s:180    .text.spi_init:00000000000000a6 .L0 
C:\Users\CYMR90~1\AppData\Local\Temp\ccYj4tTD.s:182    .text.spi_init:00000000000000a8 .L0 
C:\Users\CYMR90~1\AppData\Local\Temp\ccYj4tTD.s:184    .text.spi_init:00000000000000aa .L0 
C:\Users\CYMR90~1\AppData\Local\Temp\ccYj4tTD.s:191    .text.spi_enable:0000000000000000 spi_enable
C:\Users\CYMR90~1\AppData\Local\Temp\ccYj4tTD.s:194    .text.spi_enable:0000000000000000 .L0 
C:\Users\CYMR90~1\AppData\Local\Temp\ccYj4tTD.s:195    .text.spi_enable:0000000000000000 .L0 
C:\Users\CYMR90~1\AppData\Local\Temp\ccYj4tTD.s:196    .text.spi_enable:0000000000000002 .L0 
C:\Users\CYMR90~1\AppData\Local\Temp\ccYj4tTD.s:198    .text.spi_enable:0000000000000004 .L0 
C:\Users\CYMR90~1\AppData\Local\Temp\ccYj4tTD.s:200    .text.spi_enable:0000000000000006 .L0 
C:\Users\CYMR90~1\AppData\Local\Temp\ccYj4tTD.s:202    .text.spi_enable:0000000000000006 .L0 
C:\Users\CYMR90~1\AppData\Local\Temp\ccYj4tTD.s:208    .text.spi_enable:0000000000000016 .L0 
C:\Users\CYMR90~1\AppData\Local\Temp\ccYj4tTD.s:210    .text.spi_enable:000000000000001a .L0 
C:\Users\CYMR90~1\AppData\Local\Temp\ccYj4tTD.s:211    .text.spi_enable:000000000000001a .L0 
C:\Users\CYMR90~1\AppData\Local\Temp\ccYj4tTD.s:213    .text.spi_enable:000000000000001c .L0 
C:\Users\CYMR90~1\AppData\Local\Temp\ccYj4tTD.s:215    .text.spi_enable:000000000000001e .L0 
C:\Users\CYMR90~1\AppData\Local\Temp\ccYj4tTD.s:222    .text.spi_disable:0000000000000000 spi_disable
C:\Users\CYMR90~1\AppData\Local\Temp\ccYj4tTD.s:225    .text.spi_disable:0000000000000000 .L0 
C:\Users\CYMR90~1\AppData\Local\Temp\ccYj4tTD.s:226    .text.spi_disable:0000000000000000 .L0 
C:\Users\CYMR90~1\AppData\Local\Temp\ccYj4tTD.s:227    .text.spi_disable:0000000000000002 .L0 
C:\Users\CYMR90~1\AppData\Local\Temp\ccYj4tTD.s:229    .text.spi_disable:0000000000000004 .L0 
C:\Users\CYMR90~1\AppData\Local\Temp\ccYj4tTD.s:231    .text.spi_disable:0000000000000006 .L0 
C:\Users\CYMR90~1\AppData\Local\Temp\ccYj4tTD.s:233    .text.spi_disable:0000000000000006 .L0 
C:\Users\CYMR90~1\AppData\Local\Temp\ccYj4tTD.s:239    .text.spi_disable:0000000000000016 .L0 
C:\Users\CYMR90~1\AppData\Local\Temp\ccYj4tTD.s:241    .text.spi_disable:000000000000001a .L0 
C:\Users\CYMR90~1\AppData\Local\Temp\ccYj4tTD.s:242    .text.spi_disable:000000000000001a .L0 
C:\Users\CYMR90~1\AppData\Local\Temp\ccYj4tTD.s:244    .text.spi_disable:000000000000001c .L0 
C:\Users\CYMR90~1\AppData\Local\Temp\ccYj4tTD.s:246    .text.spi_disable:000000000000001e .L0 
C:\Users\CYMR90~1\AppData\Local\Temp\ccYj4tTD.s:253    .text.spi_nss_output_enable:0000000000000000 spi_nss_output_enable
C:\Users\CYMR90~1\AppData\Local\Temp\ccYj4tTD.s:256    .text.spi_nss_output_enable:0000000000000000 .L0 
C:\Users\CYMR90~1\AppData\Local\Temp\ccYj4tTD.s:257    .text.spi_nss_output_enable:0000000000000000 .L0 
C:\Users\CYMR90~1\AppData\Local\Temp\ccYj4tTD.s:258    .text.spi_nss_output_enable:0000000000000002 .L0 
C:\Users\CYMR90~1\AppData\Local\Temp\ccYj4tTD.s:260    .text.spi_nss_output_enable:0000000000000004 .L0 
C:\Users\CYMR90~1\AppData\Local\Temp\ccYj4tTD.s:262    .text.spi_nss_output_enable:0000000000000006 .L0 
C:\Users\CYMR90~1\AppData\Local\Temp\ccYj4tTD.s:264    .text.spi_nss_output_enable:0000000000000006 .L0 
C:\Users\CYMR90~1\AppData\Local\Temp\ccYj4tTD.s:272    .text.spi_nss_output_enable:000000000000001a .L0 
C:\Users\CYMR90~1\AppData\Local\Temp\ccYj4tTD.s:274    .text.spi_nss_output_enable:000000000000001e .L0 
C:\Users\CYMR90~1\AppData\Local\Temp\ccYj4tTD.s:275    .text.spi_nss_output_enable:000000000000001e .L0 
C:\Users\CYMR90~1\AppData\Local\Temp\ccYj4tTD.s:277    .text.spi_nss_output_enable:0000000000000020 .L0 
C:\Users\CYMR90~1\AppData\Local\Temp\ccYj4tTD.s:279    .text.spi_nss_output_enable:0000000000000022 .L0 
C:\Users\CYMR90~1\AppData\Local\Temp\ccYj4tTD.s:286    .text.spi_nss_output_disable:0000000000000000 spi_nss_output_disable
C:\Users\CYMR90~1\AppData\Local\Temp\ccYj4tTD.s:289    .text.spi_nss_output_disable:0000000000000000 .L0 
C:\Users\CYMR90~1\AppData\Local\Temp\ccYj4tTD.s:290    .text.spi_nss_output_disable:0000000000000000 .L0 
C:\Users\CYMR90~1\AppData\Local\Temp\ccYj4tTD.s:291    .text.spi_nss_output_disable:0000000000000002 .L0 
C:\Users\CYMR90~1\AppData\Local\Temp\ccYj4tTD.s:293    .text.spi_nss_output_disable:0000000000000004 .L0 
C:\Users\CYMR90~1\AppData\Local\Temp\ccYj4tTD.s:295    .text.spi_nss_output_disable:0000000000000006 .L0 
C:\Users\CYMR90~1\AppData\Local\Temp\ccYj4tTD.s:297    .text.spi_nss_output_disable:0000000000000006 .L0 
C:\Users\CYMR90~1\AppData\Local\Temp\ccYj4tTD.s:305    .text.spi_nss_output_disable:0000000000000018 .L0 
C:\Users\CYMR90~1\AppData\Local\Temp\ccYj4tTD.s:307    .text.spi_nss_output_disable:000000000000001c .L0 
C:\Users\CYMR90~1\AppData\Local\Temp\ccYj4tTD.s:308    .text.spi_nss_output_disable:000000000000001c .L0 
C:\Users\CYMR90~1\AppData\Local\Temp\ccYj4tTD.s:310    .text.spi_nss_output_disable:000000000000001e .L0 
C:\Users\CYMR90~1\AppData\Local\Temp\ccYj4tTD.s:312    .text.spi_nss_output_disable:0000000000000020 .L0 
C:\Users\CYMR90~1\AppData\Local\Temp\ccYj4tTD.s:319    .text.spi_nss_internal_high:0000000000000000 spi_nss_internal_high
C:\Users\CYMR90~1\AppData\Local\Temp\ccYj4tTD.s:322    .text.spi_nss_internal_high:0000000000000000 .L0 
C:\Users\CYMR90~1\AppData\Local\Temp\ccYj4tTD.s:323    .text.spi_nss_internal_high:0000000000000000 .L0 
C:\Users\CYMR90~1\AppData\Local\Temp\ccYj4tTD.s:324    .text.spi_nss_internal_high:0000000000000002 .L0 
C:\Users\CYMR90~1\AppData\Local\Temp\ccYj4tTD.s:326    .text.spi_nss_internal_high:0000000000000004 .L0 
C:\Users\CYMR90~1\AppData\Local\Temp\ccYj4tTD.s:328    .text.spi_nss_internal_high:0000000000000006 .L0 
C:\Users\CYMR90~1\AppData\Local\Temp\ccYj4tTD.s:330    .text.spi_nss_internal_high:0000000000000006 .L0 
C:\Users\CYMR90~1\AppData\Local\Temp\ccYj4tTD.s:336    .text.spi_nss_internal_high:0000000000000016 .L0 
C:\Users\CYMR90~1\AppData\Local\Temp\ccYj4tTD.s:338    .text.spi_nss_internal_high:000000000000001a .L0 
C:\Users\CYMR90~1\AppData\Local\Temp\ccYj4tTD.s:339    .text.spi_nss_internal_high:000000000000001a .L0 
C:\Users\CYMR90~1\AppData\Local\Temp\ccYj4tTD.s:341    .text.spi_nss_internal_high:000000000000001c .L0 
C:\Users\CYMR90~1\AppData\Local\Temp\ccYj4tTD.s:343    .text.spi_nss_internal_high:000000000000001e .L0 
C:\Users\CYMR90~1\AppData\Local\Temp\ccYj4tTD.s:350    .text.spi_nss_internal_low:0000000000000000 spi_nss_internal_low
C:\Users\CYMR90~1\AppData\Local\Temp\ccYj4tTD.s:353    .text.spi_nss_internal_low:0000000000000000 .L0 
C:\Users\CYMR90~1\AppData\Local\Temp\ccYj4tTD.s:354    .text.spi_nss_internal_low:0000000000000000 .L0 
C:\Users\CYMR90~1\AppData\Local\Temp\ccYj4tTD.s:355    .text.spi_nss_internal_low:0000000000000002 .L0 
C:\Users\CYMR90~1\AppData\Local\Temp\ccYj4tTD.s:357    .text.spi_nss_internal_low:0000000000000004 .L0 
C:\Users\CYMR90~1\AppData\Local\Temp\ccYj4tTD.s:359    .text.spi_nss_internal_low:0000000000000006 .L0 
C:\Users\CYMR90~1\AppData\Local\Temp\ccYj4tTD.s:361    .text.spi_nss_internal_low:0000000000000006 .L0 
C:\Users\CYMR90~1\AppData\Local\Temp\ccYj4tTD.s:367    .text.spi_nss_internal_low:0000000000000016 .L0 
C:\Users\CYMR90~1\AppData\Local\Temp\ccYj4tTD.s:369    .text.spi_nss_internal_low:000000000000001a .L0 
C:\Users\CYMR90~1\AppData\Local\Temp\ccYj4tTD.s:370    .text.spi_nss_internal_low:000000000000001a .L0 
C:\Users\CYMR90~1\AppData\Local\Temp\ccYj4tTD.s:372    .text.spi_nss_internal_low:000000000000001c .L0 
C:\Users\CYMR90~1\AppData\Local\Temp\ccYj4tTD.s:374    .text.spi_nss_internal_low:000000000000001e .L0 
C:\Users\CYMR90~1\AppData\Local\Temp\ccYj4tTD.s:381    .text.spi_dma_enable:0000000000000000 spi_dma_enable
C:\Users\CYMR90~1\AppData\Local\Temp\ccYj4tTD.s:384    .text.spi_dma_enable:0000000000000000 .L0 
C:\Users\CYMR90~1\AppData\Local\Temp\ccYj4tTD.s:385    .text.spi_dma_enable:0000000000000000 .L0 
C:\Users\CYMR90~1\AppData\Local\Temp\ccYj4tTD.s:386    .text.spi_dma_enable:0000000000000002 .L0 
C:\Users\CYMR90~1\AppData\Local\Temp\ccYj4tTD.s:388    .text.spi_dma_enable:0000000000000004 .L0 
C:\Users\CYMR90~1\AppData\Local\Temp\ccYj4tTD.s:390    .text.spi_dma_enable:0000000000000006 .L0 
C:\Users\CYMR90~1\AppData\Local\Temp\ccYj4tTD.s:394    .text.spi_dma_enable:000000000000000c .L0 
C:\Users\CYMR90~1\AppData\Local\Temp\ccYj4tTD.s:397    .text.spi_dma_enable:0000000000000012 .L0 
C:\Users\CYMR90~1\AppData\Local\Temp\ccYj4tTD.s:405    .text.spi_dma_enable:0000000000000026 .L0 
C:\Users\CYMR90~1\AppData\Local\Temp\ccYj4tTD.s:408    .text.spi_dma_enable:0000000000000028 .L0 
C:\Users\CYMR90~1\AppData\Local\Temp\ccYj4tTD.s:417    .text.spi_dma_enable:000000000000003c .L0 
C:\Users\CYMR90~1\AppData\Local\Temp\ccYj4tTD.s:419    .text.spi_dma_enable:0000000000000040 .L0 
C:\Users\CYMR90~1\AppData\Local\Temp\ccYj4tTD.s:420    .text.spi_dma_enable:0000000000000040 .L0 
C:\Users\CYMR90~1\AppData\Local\Temp\ccYj4tTD.s:422    .text.spi_dma_enable:0000000000000042 .L0 
C:\Users\CYMR90~1\AppData\Local\Temp\ccYj4tTD.s:424    .text.spi_dma_enable:0000000000000044 .L0 
C:\Users\CYMR90~1\AppData\Local\Temp\ccYj4tTD.s:431    .text.spi_dma_disable:0000000000000000 spi_dma_disable
C:\Users\CYMR90~1\AppData\Local\Temp\ccYj4tTD.s:434    .text.spi_dma_disable:0000000000000000 .L0 
C:\Users\CYMR90~1\AppData\Local\Temp\ccYj4tTD.s:435    .text.spi_dma_disable:0000000000000000 .L0 
C:\Users\CYMR90~1\AppData\Local\Temp\ccYj4tTD.s:436    .text.spi_dma_disable:0000000000000002 .L0 
C:\Users\CYMR90~1\AppData\Local\Temp\ccYj4tTD.s:438    .text.spi_dma_disable:0000000000000004 .L0 
C:\Users\CYMR90~1\AppData\Local\Temp\ccYj4tTD.s:440    .text.spi_dma_disable:0000000000000006 .L0 
C:\Users\CYMR90~1\AppData\Local\Temp\ccYj4tTD.s:444    .text.spi_dma_disable:000000000000000c .L0 
C:\Users\CYMR90~1\AppData\Local\Temp\ccYj4tTD.s:447    .text.spi_dma_disable:0000000000000012 .L0 
C:\Users\CYMR90~1\AppData\Local\Temp\ccYj4tTD.s:455    .text.spi_dma_disable:0000000000000024 .L0 
C:\Users\CYMR90~1\AppData\Local\Temp\ccYj4tTD.s:458    .text.spi_dma_disable:0000000000000026 .L0 
C:\Users\CYMR90~1\AppData\Local\Temp\ccYj4tTD.s:467    .text.spi_dma_disable:0000000000000038 .L0 
C:\Users\CYMR90~1\AppData\Local\Temp\ccYj4tTD.s:469    .text.spi_dma_disable:000000000000003c .L0 
C:\Users\CYMR90~1\AppData\Local\Temp\ccYj4tTD.s:470    .text.spi_dma_disable:000000000000003c .L0 
C:\Users\CYMR90~1\AppData\Local\Temp\ccYj4tTD.s:472    .text.spi_dma_disable:000000000000003e .L0 
C:\Users\CYMR90~1\AppData\Local\Temp\ccYj4tTD.s:474    .text.spi_dma_disable:0000000000000040 .L0 
C:\Users\CYMR90~1\AppData\Local\Temp\ccYj4tTD.s:481    .text.spi_data_frame_format_config:0000000000000000 spi_data_frame_format_config
C:\Users\CYMR90~1\AppData\Local\Temp\ccYj4tTD.s:484    .text.spi_data_frame_format_config:0000000000000000 .L0 
C:\Users\CYMR90~1\AppData\Local\Temp\ccYj4tTD.s:485    .text.spi_data_frame_format_config:0000000000000000 .L0 
C:\Users\CYMR90~1\AppData\Local\Temp\ccYj4tTD.s:486    .text.spi_data_frame_format_config:0000000000000002 .L0 
C:\Users\CYMR90~1\AppData\Local\Temp\ccYj4tTD.s:488    .text.spi_data_frame_format_config:0000000000000004 .L0 
C:\Users\CYMR90~1\AppData\Local\Temp\ccYj4tTD.s:490    .text.spi_data_frame_format_config:0000000000000006 .L0 
C:\Users\CYMR90~1\AppData\Local\Temp\ccYj4tTD.s:494    .text.spi_data_frame_format_config:000000000000000c .L0 
C:\Users\CYMR90~1\AppData\Local\Temp\ccYj4tTD.s:502    .text.spi_data_frame_format_config:0000000000000020 .L0 
C:\Users\CYMR90~1\AppData\Local\Temp\ccYj4tTD.s:505    .text.spi_data_frame_format_config:0000000000000026 .L0 
C:\Users\CYMR90~1\AppData\Local\Temp\ccYj4tTD.s:507    .text.spi_data_frame_format_config:000000000000002a .L0 
C:\Users\CYMR90~1\AppData\Local\Temp\ccYj4tTD.s:511    .text.spi_data_frame_format_config:0000000000000032 .L0 
C:\Users\CYMR90~1\AppData\Local\Temp\ccYj4tTD.s:513    .text.spi_data_frame_format_config:0000000000000036 .L0 
C:\Users\CYMR90~1\AppData\Local\Temp\ccYj4tTD.s:514    .text.spi_data_frame_format_config:0000000000000036 .L0 
C:\Users\CYMR90~1\AppData\Local\Temp\ccYj4tTD.s:516    .text.spi_data_frame_format_config:0000000000000038 .L0 
C:\Users\CYMR90~1\AppData\Local\Temp\ccYj4tTD.s:518    .text.spi_data_frame_format_config:000000000000003a .L0 
C:\Users\CYMR90~1\AppData\Local\Temp\ccYj4tTD.s:525    .text.spi_data_transmit:0000000000000000 spi_data_transmit
C:\Users\CYMR90~1\AppData\Local\Temp\ccYj4tTD.s:528    .text.spi_data_transmit:0000000000000000 .L0 
C:\Users\CYMR90~1\AppData\Local\Temp\ccYj4tTD.s:529    .text.spi_data_transmit:0000000000000000 .L0 
C:\Users\CYMR90~1\AppData\Local\Temp\ccYj4tTD.s:530    .text.spi_data_transmit:0000000000000002 .L0 
C:\Users\CYMR90~1\AppData\Local\Temp\ccYj4tTD.s:532    .text.spi_data_transmit:0000000000000004 .L0 
C:\Users\CYMR90~1\AppData\Local\Temp\ccYj4tTD.s:534    .text.spi_data_transmit:0000000000000006 .L0 
C:\Users\CYMR90~1\AppData\Local\Temp\ccYj4tTD.s:538    .text.spi_data_transmit:000000000000000c .L0 
C:\Users\CYMR90~1\AppData\Local\Temp\ccYj4tTD.s:541    .text.spi_data_transmit:0000000000000012 .L0 
C:\Users\CYMR90~1\AppData\Local\Temp\ccYj4tTD.s:543    .text.spi_data_transmit:0000000000000016 .L0 
C:\Users\CYMR90~1\AppData\Local\Temp\ccYj4tTD.s:545    .text.spi_data_transmit:0000000000000018 .L0 
C:\Users\CYMR90~1\AppData\Local\Temp\ccYj4tTD.s:547    .text.spi_data_transmit:000000000000001c .L0 
C:\Users\CYMR90~1\AppData\Local\Temp\ccYj4tTD.s:548    .text.spi_data_transmit:000000000000001c .L0 
C:\Users\CYMR90~1\AppData\Local\Temp\ccYj4tTD.s:550    .text.spi_data_transmit:000000000000001e .L0 
C:\Users\CYMR90~1\AppData\Local\Temp\ccYj4tTD.s:552    .text.spi_data_transmit:0000000000000020 .L0 
C:\Users\CYMR90~1\AppData\Local\Temp\ccYj4tTD.s:559    .text.spi_data_receive:0000000000000000 spi_data_receive
C:\Users\CYMR90~1\AppData\Local\Temp\ccYj4tTD.s:562    .text.spi_data_receive:0000000000000000 .L0 
C:\Users\CYMR90~1\AppData\Local\Temp\ccYj4tTD.s:563    .text.spi_data_receive:0000000000000000 .L0 
C:\Users\CYMR90~1\AppData\Local\Temp\ccYj4tTD.s:564    .text.spi_data_receive:0000000000000002 .L0 
C:\Users\CYMR90~1\AppData\Local\Temp\ccYj4tTD.s:566    .text.spi_data_receive:0000000000000004 .L0 
C:\Users\CYMR90~1\AppData\Local\Temp\ccYj4tTD.s:568    .text.spi_data_receive:0000000000000006 .L0 
C:\Users\CYMR90~1\AppData\Local\Temp\ccYj4tTD.s:570    .text.spi_data_receive:0000000000000006 .L0 
C:\Users\CYMR90~1\AppData\Local\Temp\ccYj4tTD.s:574    .text.spi_data_receive:000000000000000e .L0 
C:\Users\CYMR90~1\AppData\Local\Temp\ccYj4tTD.s:577    .text.spi_data_receive:0000000000000012 .L0 
C:\Users\CYMR90~1\AppData\Local\Temp\ccYj4tTD.s:579    .text.spi_data_receive:0000000000000016 .L0 
C:\Users\CYMR90~1\AppData\Local\Temp\ccYj4tTD.s:580    .text.spi_data_receive:0000000000000016 .L0 
C:\Users\CYMR90~1\AppData\Local\Temp\ccYj4tTD.s:582    .text.spi_data_receive:0000000000000018 .L0 
C:\Users\CYMR90~1\AppData\Local\Temp\ccYj4tTD.s:584    .text.spi_data_receive:000000000000001a .L0 
C:\Users\CYMR90~1\AppData\Local\Temp\ccYj4tTD.s:591    .text.spi_bidirectional_transfer_config:0000000000000000 spi_bidirectional_transfer_config
C:\Users\CYMR90~1\AppData\Local\Temp\ccYj4tTD.s:594    .text.spi_bidirectional_transfer_config:0000000000000000 .L0 
C:\Users\CYMR90~1\AppData\Local\Temp\ccYj4tTD.s:595    .text.spi_bidirectional_transfer_config:0000000000000000 .L0 
C:\Users\CYMR90~1\AppData\Local\Temp\ccYj4tTD.s:596    .text.spi_bidirectional_transfer_config:0000000000000002 .L0 
C:\Users\CYMR90~1\AppData\Local\Temp\ccYj4tTD.s:598    .text.spi_bidirectional_transfer_config:0000000000000004 .L0 
C:\Users\CYMR90~1\AppData\Local\Temp\ccYj4tTD.s:600    .text.spi_bidirectional_transfer_config:0000000000000006 .L0 
C:\Users\CYMR90~1\AppData\Local\Temp\ccYj4tTD.s:603    .text.spi_bidirectional_transfer_config:000000000000000a .L0 
C:\Users\CYMR90~1\AppData\Local\Temp\ccYj4tTD.s:607    .text.spi_bidirectional_transfer_config:0000000000000014 .L0 
C:\Users\CYMR90~1\AppData\Local\Temp\ccYj4tTD.s:614    .text.spi_bidirectional_transfer_config:0000000000000024 .L0 
C:\Users\CYMR90~1\AppData\Local\Temp\ccYj4tTD.s:617    .text.spi_bidirectional_transfer_config:0000000000000026 .L0 
C:\Users\CYMR90~1\AppData\Local\Temp\ccYj4tTD.s:626    .text.spi_bidirectional_transfer_config:0000000000000038 .L0 
C:\Users\CYMR90~1\AppData\Local\Temp\ccYj4tTD.s:628    .text.spi_bidirectional_transfer_config:000000000000003c .L0 
C:\Users\CYMR90~1\AppData\Local\Temp\ccYj4tTD.s:629    .text.spi_bidirectional_transfer_config:000000000000003c .L0 
C:\Users\CYMR90~1\AppData\Local\Temp\ccYj4tTD.s:631    .text.spi_bidirectional_transfer_config:000000000000003e .L0 
C:\Users\CYMR90~1\AppData\Local\Temp\ccYj4tTD.s:633    .text.spi_bidirectional_transfer_config:0000000000000040 .L0 
C:\Users\CYMR90~1\AppData\Local\Temp\ccYj4tTD.s:640    .text.spi_format_error_clear:0000000000000000 spi_format_error_clear
C:\Users\CYMR90~1\AppData\Local\Temp\ccYj4tTD.s:643    .text.spi_format_error_clear:0000000000000000 .L0 
C:\Users\CYMR90~1\AppData\Local\Temp\ccYj4tTD.s:644    .text.spi_format_error_clear:0000000000000000 .L0 
C:\Users\CYMR90~1\AppData\Local\Temp\ccYj4tTD.s:645    .text.spi_format_error_clear:0000000000000002 .L0 
C:\Users\CYMR90~1\AppData\Local\Temp\ccYj4tTD.s:647    .text.spi_format_error_clear:0000000000000004 .L0 
C:\Users\CYMR90~1\AppData\Local\Temp\ccYj4tTD.s:649    .text.spi_format_error_clear:0000000000000006 .L0 
C:\Users\CYMR90~1\AppData\Local\Temp\ccYj4tTD.s:651    .text.spi_format_error_clear:0000000000000006 .L0 
C:\Users\CYMR90~1\AppData\Local\Temp\ccYj4tTD.s:654    .text.spi_format_error_clear:000000000000000c .L0 
C:\Users\CYMR90~1\AppData\Local\Temp\ccYj4tTD.s:657    .text.spi_format_error_clear:0000000000000012 .L0 
C:\Users\CYMR90~1\AppData\Local\Temp\ccYj4tTD.s:659    .text.spi_format_error_clear:0000000000000016 .L0 
C:\Users\CYMR90~1\AppData\Local\Temp\ccYj4tTD.s:660    .text.spi_format_error_clear:0000000000000016 .L0 
C:\Users\CYMR90~1\AppData\Local\Temp\ccYj4tTD.s:662    .text.spi_format_error_clear:0000000000000018 .L0 
C:\Users\CYMR90~1\AppData\Local\Temp\ccYj4tTD.s:664    .text.spi_format_error_clear:000000000000001a .L0 
C:\Users\CYMR90~1\AppData\Local\Temp\ccYj4tTD.s:671    .text.spi_crc_polynomial_set:0000000000000000 spi_crc_polynomial_set
C:\Users\CYMR90~1\AppData\Local\Temp\ccYj4tTD.s:674    .text.spi_crc_polynomial_set:0000000000000000 .L0 
C:\Users\CYMR90~1\AppData\Local\Temp\ccYj4tTD.s:675    .text.spi_crc_polynomial_set:0000000000000000 .L0 
C:\Users\CYMR90~1\AppData\Local\Temp\ccYj4tTD.s:676    .text.spi_crc_polynomial_set:0000000000000002 .L0 
C:\Users\CYMR90~1\AppData\Local\Temp\ccYj4tTD.s:678    .text.spi_crc_polynomial_set:0000000000000004 .L0 
C:\Users\CYMR90~1\AppData\Local\Temp\ccYj4tTD.s:680    .text.spi_crc_polynomial_set:0000000000000006 .L0 
C:\Users\CYMR90~1\AppData\Local\Temp\ccYj4tTD.s:684    .text.spi_crc_polynomial_set:000000000000000c .L0 
C:\Users\CYMR90~1\AppData\Local\Temp\ccYj4tTD.s:687    .text.spi_crc_polynomial_set:0000000000000012 .L0 
C:\Users\CYMR90~1\AppData\Local\Temp\ccYj4tTD.s:689    .text.spi_crc_polynomial_set:0000000000000016 .L0 
C:\Users\CYMR90~1\AppData\Local\Temp\ccYj4tTD.s:691    .text.spi_crc_polynomial_set:0000000000000018 .L0 
C:\Users\CYMR90~1\AppData\Local\Temp\ccYj4tTD.s:693    .text.spi_crc_polynomial_set:000000000000001c .L0 
C:\Users\CYMR90~1\AppData\Local\Temp\ccYj4tTD.s:694    .text.spi_crc_polynomial_set:000000000000001c .L0 
C:\Users\CYMR90~1\AppData\Local\Temp\ccYj4tTD.s:696    .text.spi_crc_polynomial_set:000000000000001e .L0 
C:\Users\CYMR90~1\AppData\Local\Temp\ccYj4tTD.s:698    .text.spi_crc_polynomial_set:0000000000000020 .L0 
C:\Users\CYMR90~1\AppData\Local\Temp\ccYj4tTD.s:705    .text.spi_crc_polynomial_get:0000000000000000 spi_crc_polynomial_get
C:\Users\CYMR90~1\AppData\Local\Temp\ccYj4tTD.s:708    .text.spi_crc_polynomial_get:0000000000000000 .L0 
C:\Users\CYMR90~1\AppData\Local\Temp\ccYj4tTD.s:709    .text.spi_crc_polynomial_get:0000000000000000 .L0 
C:\Users\CYMR90~1\AppData\Local\Temp\ccYj4tTD.s:710    .text.spi_crc_polynomial_get:0000000000000002 .L0 
C:\Users\CYMR90~1\AppData\Local\Temp\ccYj4tTD.s:712    .text.spi_crc_polynomial_get:0000000000000004 .L0 
C:\Users\CYMR90~1\AppData\Local\Temp\ccYj4tTD.s:714    .text.spi_crc_polynomial_get:0000000000000006 .L0 
C:\Users\CYMR90~1\AppData\Local\Temp\ccYj4tTD.s:716    .text.spi_crc_polynomial_get:0000000000000006 .L0 
C:\Users\CYMR90~1\AppData\Local\Temp\ccYj4tTD.s:720    .text.spi_crc_polynomial_get:000000000000000e .L0 
C:\Users\CYMR90~1\AppData\Local\Temp\ccYj4tTD.s:723    .text.spi_crc_polynomial_get:0000000000000012 .L0 
C:\Users\CYMR90~1\AppData\Local\Temp\ccYj4tTD.s:725    .text.spi_crc_polynomial_get:0000000000000016 .L0 
C:\Users\CYMR90~1\AppData\Local\Temp\ccYj4tTD.s:726    .text.spi_crc_polynomial_get:0000000000000016 .L0 
C:\Users\CYMR90~1\AppData\Local\Temp\ccYj4tTD.s:728    .text.spi_crc_polynomial_get:0000000000000018 .L0 
C:\Users\CYMR90~1\AppData\Local\Temp\ccYj4tTD.s:730    .text.spi_crc_polynomial_get:000000000000001a .L0 
C:\Users\CYMR90~1\AppData\Local\Temp\ccYj4tTD.s:737    .text.spi_crc_on:0000000000000000 spi_crc_on
C:\Users\CYMR90~1\AppData\Local\Temp\ccYj4tTD.s:740    .text.spi_crc_on:0000000000000000 .L0 
C:\Users\CYMR90~1\AppData\Local\Temp\ccYj4tTD.s:741    .text.spi_crc_on:0000000000000000 .L0 
C:\Users\CYMR90~1\AppData\Local\Temp\ccYj4tTD.s:742    .text.spi_crc_on:0000000000000002 .L0 
C:\Users\CYMR90~1\AppData\Local\Temp\ccYj4tTD.s:744    .text.spi_crc_on:0000000000000004 .L0 
C:\Users\CYMR90~1\AppData\Local\Temp\ccYj4tTD.s:746    .text.spi_crc_on:0000000000000006 .L0 
C:\Users\CYMR90~1\AppData\Local\Temp\ccYj4tTD.s:748    .text.spi_crc_on:0000000000000006 .L0 
C:\Users\CYMR90~1\AppData\Local\Temp\ccYj4tTD.s:755    .text.spi_crc_on:0000000000000016 .L0 
C:\Users\CYMR90~1\AppData\Local\Temp\ccYj4tTD.s:757    .text.spi_crc_on:000000000000001a .L0 
C:\Users\CYMR90~1\AppData\Local\Temp\ccYj4tTD.s:758    .text.spi_crc_on:000000000000001a .L0 
C:\Users\CYMR90~1\AppData\Local\Temp\ccYj4tTD.s:760    .text.spi_crc_on:000000000000001c .L0 
C:\Users\CYMR90~1\AppData\Local\Temp\ccYj4tTD.s:762    .text.spi_crc_on:000000000000001e .L0 
C:\Users\CYMR90~1\AppData\Local\Temp\ccYj4tTD.s:769    .text.spi_crc_off:0000000000000000 spi_crc_off
C:\Users\CYMR90~1\AppData\Local\Temp\ccYj4tTD.s:772    .text.spi_crc_off:0000000000000000 .L0 
C:\Users\CYMR90~1\AppData\Local\Temp\ccYj4tTD.s:773    .text.spi_crc_off:0000000000000000 .L0 
C:\Users\CYMR90~1\AppData\Local\Temp\ccYj4tTD.s:774    .text.spi_crc_off:0000000000000002 .L0 
C:\Users\CYMR90~1\AppData\Local\Temp\ccYj4tTD.s:776    .text.spi_crc_off:0000000000000004 .L0 
C:\Users\CYMR90~1\AppData\Local\Temp\ccYj4tTD.s:778    .text.spi_crc_off:0000000000000006 .L0 
C:\Users\CYMR90~1\AppData\Local\Temp\ccYj4tTD.s:780    .text.spi_crc_off:0000000000000006 .L0 
C:\Users\CYMR90~1\AppData\Local\Temp\ccYj4tTD.s:788    .text.spi_crc_off:0000000000000018 .L0 
C:\Users\CYMR90~1\AppData\Local\Temp\ccYj4tTD.s:790    .text.spi_crc_off:000000000000001c .L0 
C:\Users\CYMR90~1\AppData\Local\Temp\ccYj4tTD.s:791    .text.spi_crc_off:000000000000001c .L0 
C:\Users\CYMR90~1\AppData\Local\Temp\ccYj4tTD.s:793    .text.spi_crc_off:000000000000001e .L0 
C:\Users\CYMR90~1\AppData\Local\Temp\ccYj4tTD.s:795    .text.spi_crc_off:0000000000000020 .L0 
C:\Users\CYMR90~1\AppData\Local\Temp\ccYj4tTD.s:802    .text.spi_crc_next:0000000000000000 spi_crc_next
C:\Users\CYMR90~1\AppData\Local\Temp\ccYj4tTD.s:805    .text.spi_crc_next:0000000000000000 .L0 
C:\Users\CYMR90~1\AppData\Local\Temp\ccYj4tTD.s:806    .text.spi_crc_next:0000000000000000 .L0 
C:\Users\CYMR90~1\AppData\Local\Temp\ccYj4tTD.s:807    .text.spi_crc_next:0000000000000002 .L0 
C:\Users\CYMR90~1\AppData\Local\Temp\ccYj4tTD.s:809    .text.spi_crc_next:0000000000000004 .L0 
C:\Users\CYMR90~1\AppData\Local\Temp\ccYj4tTD.s:811    .text.spi_crc_next:0000000000000006 .L0 
C:\Users\CYMR90~1\AppData\Local\Temp\ccYj4tTD.s:813    .text.spi_crc_next:0000000000000006 .L0 
C:\Users\CYMR90~1\AppData\Local\Temp\ccYj4tTD.s:820    .text.spi_crc_next:0000000000000016 .L0 
C:\Users\CYMR90~1\AppData\Local\Temp\ccYj4tTD.s:822    .text.spi_crc_next:000000000000001a .L0 
C:\Users\CYMR90~1\AppData\Local\Temp\ccYj4tTD.s:823    .text.spi_crc_next:000000000000001a .L0 
C:\Users\CYMR90~1\AppData\Local\Temp\ccYj4tTD.s:825    .text.spi_crc_next:000000000000001c .L0 
C:\Users\CYMR90~1\AppData\Local\Temp\ccYj4tTD.s:827    .text.spi_crc_next:000000000000001e .L0 
C:\Users\CYMR90~1\AppData\Local\Temp\ccYj4tTD.s:834    .text.spi_crc_get:0000000000000000 spi_crc_get
C:\Users\CYMR90~1\AppData\Local\Temp\ccYj4tTD.s:837    .text.spi_crc_get:0000000000000000 .L0 
C:\Users\CYMR90~1\AppData\Local\Temp\ccYj4tTD.s:838    .text.spi_crc_get:0000000000000000 .L0 
C:\Users\CYMR90~1\AppData\Local\Temp\ccYj4tTD.s:839    .text.spi_crc_get:0000000000000002 .L0 
C:\Users\CYMR90~1\AppData\Local\Temp\ccYj4tTD.s:841    .text.spi_crc_get:0000000000000004 .L0 
C:\Users\CYMR90~1\AppData\Local\Temp\ccYj4tTD.s:843    .text.spi_crc_get:0000000000000006 .L0 
C:\Users\CYMR90~1\AppData\Local\Temp\ccYj4tTD.s:847    .text.spi_crc_get:000000000000000c .L0 
C:\Users\CYMR90~1\AppData\Local\Temp\ccYj4tTD.s:850    .text.spi_crc_get:0000000000000012 .L0 
C:\Users\CYMR90~1\AppData\Local\Temp\ccYj4tTD.s:854    .text.spi_crc_get:000000000000001a .L0 
C:\Users\CYMR90~1\AppData\Local\Temp\ccYj4tTD.s:859    .text.spi_crc_get:0000000000000020 .L0 
C:\Users\CYMR90~1\AppData\Local\Temp\ccYj4tTD.s:863    .text.spi_crc_get:0000000000000028 .L0 
C:\Users\CYMR90~1\AppData\Local\Temp\ccYj4tTD.s:867    .text.spi_crc_get:000000000000002c .L0 
C:\Users\CYMR90~1\AppData\Local\Temp\ccYj4tTD.s:869    .text.spi_crc_get:0000000000000030 .L0 
C:\Users\CYMR90~1\AppData\Local\Temp\ccYj4tTD.s:870    .text.spi_crc_get:0000000000000030 .L0 
C:\Users\CYMR90~1\AppData\Local\Temp\ccYj4tTD.s:872    .text.spi_crc_get:0000000000000032 .L0 
C:\Users\CYMR90~1\AppData\Local\Temp\ccYj4tTD.s:874    .text.spi_crc_get:0000000000000034 .L0 
C:\Users\CYMR90~1\AppData\Local\Temp\ccYj4tTD.s:881    .text.spi_crc_error_clear:0000000000000000 spi_crc_error_clear
C:\Users\CYMR90~1\AppData\Local\Temp\ccYj4tTD.s:884    .text.spi_crc_error_clear:0000000000000000 .L0 
C:\Users\CYMR90~1\AppData\Local\Temp\ccYj4tTD.s:885    .text.spi_crc_error_clear:0000000000000000 .L0 
C:\Users\CYMR90~1\AppData\Local\Temp\ccYj4tTD.s:886    .text.spi_crc_error_clear:0000000000000002 .L0 
C:\Users\CYMR90~1\AppData\Local\Temp\ccYj4tTD.s:888    .text.spi_crc_error_clear:0000000000000004 .L0 
C:\Users\CYMR90~1\AppData\Local\Temp\ccYj4tTD.s:890    .text.spi_crc_error_clear:0000000000000006 .L0 
C:\Users\CYMR90~1\AppData\Local\Temp\ccYj4tTD.s:892    .text.spi_crc_error_clear:0000000000000006 .L0 
C:\Users\CYMR90~1\AppData\Local\Temp\ccYj4tTD.s:895    .text.spi_crc_error_clear:000000000000000c .L0 
C:\Users\CYMR90~1\AppData\Local\Temp\ccYj4tTD.s:898    .text.spi_crc_error_clear:0000000000000010 .L0 
C:\Users\CYMR90~1\AppData\Local\Temp\ccYj4tTD.s:900    .text.spi_crc_error_clear:0000000000000014 .L0 
C:\Users\CYMR90~1\AppData\Local\Temp\ccYj4tTD.s:901    .text.spi_crc_error_clear:0000000000000014 .L0 
C:\Users\CYMR90~1\AppData\Local\Temp\ccYj4tTD.s:903    .text.spi_crc_error_clear:0000000000000016 .L0 
C:\Users\CYMR90~1\AppData\Local\Temp\ccYj4tTD.s:905    .text.spi_crc_error_clear:0000000000000018 .L0 
C:\Users\CYMR90~1\AppData\Local\Temp\ccYj4tTD.s:912    .text.spi_ti_mode_enable:0000000000000000 spi_ti_mode_enable
C:\Users\CYMR90~1\AppData\Local\Temp\ccYj4tTD.s:915    .text.spi_ti_mode_enable:0000000000000000 .L0 
C:\Users\CYMR90~1\AppData\Local\Temp\ccYj4tTD.s:916    .text.spi_ti_mode_enable:0000000000000000 .L0 
C:\Users\CYMR90~1\AppData\Local\Temp\ccYj4tTD.s:917    .text.spi_ti_mode_enable:0000000000000002 .L0 
C:\Users\CYMR90~1\AppData\Local\Temp\ccYj4tTD.s:919    .text.spi_ti_mode_enable:0000000000000004 .L0 
C:\Users\CYMR90~1\AppData\Local\Temp\ccYj4tTD.s:921    .text.spi_ti_mode_enable:0000000000000006 .L0 
C:\Users\CYMR90~1\AppData\Local\Temp\ccYj4tTD.s:923    .text.spi_ti_mode_enable:0000000000000006 .L0 
C:\Users\CYMR90~1\AppData\Local\Temp\ccYj4tTD.s:931    .text.spi_ti_mode_enable:000000000000001a .L0 
C:\Users\CYMR90~1\AppData\Local\Temp\ccYj4tTD.s:933    .text.spi_ti_mode_enable:000000000000001e .L0 
C:\Users\CYMR90~1\AppData\Local\Temp\ccYj4tTD.s:934    .text.spi_ti_mode_enable:000000000000001e .L0 
C:\Users\CYMR90~1\AppData\Local\Temp\ccYj4tTD.s:936    .text.spi_ti_mode_enable:0000000000000020 .L0 
C:\Users\CYMR90~1\AppData\Local\Temp\ccYj4tTD.s:938    .text.spi_ti_mode_enable:0000000000000022 .L0 
C:\Users\CYMR90~1\AppData\Local\Temp\ccYj4tTD.s:945    .text.spi_ti_mode_disable:0000000000000000 spi_ti_mode_disable
C:\Users\CYMR90~1\AppData\Local\Temp\ccYj4tTD.s:948    .text.spi_ti_mode_disable:0000000000000000 .L0 
C:\Users\CYMR90~1\AppData\Local\Temp\ccYj4tTD.s:949    .text.spi_ti_mode_disable:0000000000000000 .L0 
C:\Users\CYMR90~1\AppData\Local\Temp\ccYj4tTD.s:950    .text.spi_ti_mode_disable:0000000000000002 .L0 
C:\Users\CYMR90~1\AppData\Local\Temp\ccYj4tTD.s:952    .text.spi_ti_mode_disable:0000000000000004 .L0 
C:\Users\CYMR90~1\AppData\Local\Temp\ccYj4tTD.s:954    .text.spi_ti_mode_disable:0000000000000006 .L0 
C:\Users\CYMR90~1\AppData\Local\Temp\ccYj4tTD.s:956    .text.spi_ti_mode_disable:0000000000000006 .L0 
C:\Users\CYMR90~1\AppData\Local\Temp\ccYj4tTD.s:964    .text.spi_ti_mode_disable:0000000000000018 .L0 
C:\Users\CYMR90~1\AppData\Local\Temp\ccYj4tTD.s:966    .text.spi_ti_mode_disable:000000000000001c .L0 
C:\Users\CYMR90~1\AppData\Local\Temp\ccYj4tTD.s:967    .text.spi_ti_mode_disable:000000000000001c .L0 
C:\Users\CYMR90~1\AppData\Local\Temp\ccYj4tTD.s:969    .text.spi_ti_mode_disable:000000000000001e .L0 
C:\Users\CYMR90~1\AppData\Local\Temp\ccYj4tTD.s:971    .text.spi_ti_mode_disable:0000000000000020 .L0 
C:\Users\CYMR90~1\AppData\Local\Temp\ccYj4tTD.s:978    .text.spi_interrupt_enable:0000000000000000 spi_interrupt_enable
C:\Users\CYMR90~1\AppData\Local\Temp\ccYj4tTD.s:981    .text.spi_interrupt_enable:0000000000000000 .L0 
C:\Users\CYMR90~1\AppData\Local\Temp\ccYj4tTD.s:982    .text.spi_interrupt_enable:0000000000000000 .L0 
C:\Users\CYMR90~1\AppData\Local\Temp\ccYj4tTD.s:983    .text.spi_interrupt_enable:0000000000000002 .L0 
C:\Users\CYMR90~1\AppData\Local\Temp\ccYj4tTD.s:985    .text.spi_interrupt_enable:0000000000000004 .L0 
C:\Users\CYMR90~1\AppData\Local\Temp\ccYj4tTD.s:987    .text.spi_interrupt_enable:0000000000000006 .L0 
C:\Users\CYMR90~1\AppData\Local\Temp\ccYj4tTD.s:991    .text.spi_interrupt_enable:000000000000000c .L0 
C:\Users\CYMR90~1\AppData\Local\Temp\ccYj4tTD.s:1000   .text.spi_interrupt_enable:0000000000000024 .L0 
C:\Users\CYMR90~1\AppData\Local\Temp\ccYj4tTD.s:1003   .text.spi_interrupt_enable:0000000000000026 .L0 
C:\Users\CYMR90~1\AppData\Local\Temp\ccYj4tTD.s:1011   .text.spi_interrupt_enable:000000000000003a .L0 
C:\Users\CYMR90~1\AppData\Local\Temp\ccYj4tTD.s:1014   .text.spi_interrupt_enable:000000000000003c .L0 
C:\Users\CYMR90~1\AppData\Local\Temp\ccYj4tTD.s:1022   .text.spi_interrupt_enable:0000000000000050 .L0 
C:\Users\CYMR90~1\AppData\Local\Temp\ccYj4tTD.s:1025   .text.spi_interrupt_enable:0000000000000052 .L0 
C:\Users\CYMR90~1\AppData\Local\Temp\ccYj4tTD.s:1033   .text.spi_interrupt_enable:0000000000000066 .L0 
C:\Users\CYMR90~1\AppData\Local\Temp\ccYj4tTD.s:1036   .text.spi_interrupt_enable:0000000000000068 .L0 
C:\Users\CYMR90~1\AppData\Local\Temp\ccYj4tTD.s:1039   .text.spi_interrupt_enable:000000000000006a .L0 
C:\Users\CYMR90~1\AppData\Local\Temp\ccYj4tTD.s:1041   .text.spi_interrupt_enable:000000000000006e .L0 
C:\Users\CYMR90~1\AppData\Local\Temp\ccYj4tTD.s:1042   .text.spi_interrupt_enable:000000000000006e .L0 
C:\Users\CYMR90~1\AppData\Local\Temp\ccYj4tTD.s:1044   .text.spi_interrupt_enable:0000000000000070 .L0 
C:\Users\CYMR90~1\AppData\Local\Temp\ccYj4tTD.s:1046   .text.spi_interrupt_enable:0000000000000072 .L0 
C:\Users\CYMR90~1\AppData\Local\Temp\ccYj4tTD.s:1053   .text.spi_interrupt_disable:0000000000000000 spi_interrupt_disable
C:\Users\CYMR90~1\AppData\Local\Temp\ccYj4tTD.s:1056   .text.spi_interrupt_disable:0000000000000000 .L0 
C:\Users\CYMR90~1\AppData\Local\Temp\ccYj4tTD.s:1057   .text.spi_interrupt_disable:0000000000000000 .L0 
C:\Users\CYMR90~1\AppData\Local\Temp\ccYj4tTD.s:1058   .text.spi_interrupt_disable:0000000000000002 .L0 
C:\Users\CYMR90~1\AppData\Local\Temp\ccYj4tTD.s:1060   .text.spi_interrupt_disable:0000000000000004 .L0 
C:\Users\CYMR90~1\AppData\Local\Temp\ccYj4tTD.s:1062   .text.spi_interrupt_disable:0000000000000006 .L0 
C:\Users\CYMR90~1\AppData\Local\Temp\ccYj4tTD.s:1066   .text.spi_interrupt_disable:000000000000000c .L0 
C:\Users\CYMR90~1\AppData\Local\Temp\ccYj4tTD.s:1075   .text.spi_interrupt_disable:0000000000000024 .L0 
C:\Users\CYMR90~1\AppData\Local\Temp\ccYj4tTD.s:1078   .text.spi_interrupt_disable:0000000000000026 .L0 
C:\Users\CYMR90~1\AppData\Local\Temp\ccYj4tTD.s:1086   .text.spi_interrupt_disable:000000000000003a .L0 
C:\Users\CYMR90~1\AppData\Local\Temp\ccYj4tTD.s:1089   .text.spi_interrupt_disable:000000000000003c .L0 
C:\Users\CYMR90~1\AppData\Local\Temp\ccYj4tTD.s:1097   .text.spi_interrupt_disable:0000000000000050 .L0 
C:\Users\CYMR90~1\AppData\Local\Temp\ccYj4tTD.s:1100   .text.spi_interrupt_disable:0000000000000052 .L0 
C:\Users\CYMR90~1\AppData\Local\Temp\ccYj4tTD.s:1108   .text.spi_interrupt_disable:0000000000000066 .L0 
C:\Users\CYMR90~1\AppData\Local\Temp\ccYj4tTD.s:1111   .text.spi_interrupt_disable:0000000000000068 .L0 
C:\Users\CYMR90~1\AppData\Local\Temp\ccYj4tTD.s:1114   .text.spi_interrupt_disable:000000000000006a .L0 
C:\Users\CYMR90~1\AppData\Local\Temp\ccYj4tTD.s:1116   .text.spi_interrupt_disable:000000000000006e .L0 
C:\Users\CYMR90~1\AppData\Local\Temp\ccYj4tTD.s:1117   .text.spi_interrupt_disable:000000000000006e .L0 
C:\Users\CYMR90~1\AppData\Local\Temp\ccYj4tTD.s:1119   .text.spi_interrupt_disable:0000000000000070 .L0 
C:\Users\CYMR90~1\AppData\Local\Temp\ccYj4tTD.s:1121   .text.spi_interrupt_disable:0000000000000072 .L0 
C:\Users\CYMR90~1\AppData\Local\Temp\ccYj4tTD.s:1128   .text.spi_interrupt_flag_get:0000000000000000 spi_interrupt_flag_get
C:\Users\CYMR90~1\AppData\Local\Temp\ccYj4tTD.s:1131   .text.spi_interrupt_flag_get:0000000000000000 .L0 
C:\Users\CYMR90~1\AppData\Local\Temp\ccYj4tTD.s:1132   .text.spi_interrupt_flag_get:0000000000000000 .L0 
C:\Users\CYMR90~1\AppData\Local\Temp\ccYj4tTD.s:1133   .text.spi_interrupt_flag_get:0000000000000002 .L0 
C:\Users\CYMR90~1\AppData\Local\Temp\ccYj4tTD.s:1135   .text.spi_interrupt_flag_get:0000000000000004 .L0 
C:\Users\CYMR90~1\AppData\Local\Temp\ccYj4tTD.s:1137   .text.spi_interrupt_flag_get:0000000000000006 .L0 
C:\Users\CYMR90~1\AppData\Local\Temp\ccYj4tTD.s:1141   .text.spi_interrupt_flag_get:000000000000000c .L0 
C:\Users\CYMR90~1\AppData\Local\Temp\ccYj4tTD.s:1144   .text.spi_interrupt_flag_get:0000000000000012 .L0 
C:\Users\CYMR90~1\AppData\Local\Temp\ccYj4tTD.s:1147   .text.spi_interrupt_flag_get:0000000000000018 .L0 
C:\Users\CYMR90~1\AppData\Local\Temp\ccYj4tTD.s:1150   .text.spi_interrupt_flag_get:000000000000001e .L0 
C:\Users\CYMR90~1\AppData\Local\Temp\ccYj4tTD.s:1153   .text.spi_interrupt_flag_get:0000000000000024 .L0 
C:\Users\CYMR90~1\AppData\Local\Temp\ccYj4tTD.s:1177   .text.spi_interrupt_flag_get:000000000000004a .L0 
C:\Users\CYMR90~1\AppData\Local\Temp\ccYj4tTD.s:1181   .text.spi_interrupt_flag_get:0000000000000054 .L0 
C:\Users\CYMR90~1\AppData\Local\Temp\ccYj4tTD.s:1185   .text.spi_interrupt_flag_get:0000000000000060 .L0 
C:\Users\CYMR90~1\AppData\Local\Temp\ccYj4tTD.s:1188   .text.spi_interrupt_flag_get:0000000000000062 .L0 
C:\Users\CYMR90~1\AppData\Local\Temp\ccYj4tTD.s:1192   .text.spi_interrupt_flag_get:000000000000006c .L0 
C:\Users\CYMR90~1\AppData\Local\Temp\ccYj4tTD.s:1196   .text.spi_interrupt_flag_get:0000000000000078 .L0 
C:\Users\CYMR90~1\AppData\Local\Temp\ccYj4tTD.s:1199   .text.spi_interrupt_flag_get:000000000000007a .L0 
C:\Users\CYMR90~1\AppData\Local\Temp\ccYj4tTD.s:1203   .text.spi_interrupt_flag_get:0000000000000086 .L0 
C:\Users\CYMR90~1\AppData\Local\Temp\ccYj4tTD.s:1207   .text.spi_interrupt_flag_get:0000000000000092 .L0 
C:\Users\CYMR90~1\AppData\Local\Temp\ccYj4tTD.s:1210   .text.spi_interrupt_flag_get:0000000000000094 .L0 
C:\Users\CYMR90~1\AppData\Local\Temp\ccYj4tTD.s:1214   .text.spi_interrupt_flag_get:00000000000000a0 .L0 
C:\Users\CYMR90~1\AppData\Local\Temp\ccYj4tTD.s:1218   .text.spi_interrupt_flag_get:00000000000000ac .L0 
C:\Users\CYMR90~1\AppData\Local\Temp\ccYj4tTD.s:1221   .text.spi_interrupt_flag_get:00000000000000ae .L0 
C:\Users\CYMR90~1\AppData\Local\Temp\ccYj4tTD.s:1225   .text.spi_interrupt_flag_get:00000000000000b8 .L0 
C:\Users\CYMR90~1\AppData\Local\Temp\ccYj4tTD.s:1229   .text.spi_interrupt_flag_get:00000000000000c4 .L0 
C:\Users\CYMR90~1\AppData\Local\Temp\ccYj4tTD.s:1232   .text.spi_interrupt_flag_get:00000000000000c6 .L0 
C:\Users\CYMR90~1\AppData\Local\Temp\ccYj4tTD.s:1236   .text.spi_interrupt_flag_get:00000000000000d2 .L0 
C:\Users\CYMR90~1\AppData\Local\Temp\ccYj4tTD.s:1240   .text.spi_interrupt_flag_get:00000000000000de .L0 
C:\Users\CYMR90~1\AppData\Local\Temp\ccYj4tTD.s:1243   .text.spi_interrupt_flag_get:00000000000000e0 .L0 
C:\Users\CYMR90~1\AppData\Local\Temp\ccYj4tTD.s:1246   .text.spi_interrupt_flag_get:00000000000000e2 .L0 
C:\Users\CYMR90~1\AppData\Local\Temp\ccYj4tTD.s:1249   .text.spi_interrupt_flag_get:00000000000000e8 .L0 
C:\Users\CYMR90~1\AppData\Local\Temp\ccYj4tTD.s:1252   .text.spi_interrupt_flag_get:00000000000000ee .L0 
C:\Users\CYMR90~1\AppData\Local\Temp\ccYj4tTD.s:1256   .text.spi_interrupt_flag_get:00000000000000f2 .L0 
C:\Users\CYMR90~1\AppData\Local\Temp\ccYj4tTD.s:1259   .text.spi_interrupt_flag_get:00000000000000f4 .L0 
C:\Users\CYMR90~1\AppData\Local\Temp\ccYj4tTD.s:1261   .text.spi_interrupt_flag_get:00000000000000f8 .L0 
C:\Users\CYMR90~1\AppData\Local\Temp\ccYj4tTD.s:1262   .text.spi_interrupt_flag_get:00000000000000f8 .L0 
C:\Users\CYMR90~1\AppData\Local\Temp\ccYj4tTD.s:1264   .text.spi_interrupt_flag_get:00000000000000fa .L0 
C:\Users\CYMR90~1\AppData\Local\Temp\ccYj4tTD.s:1266   .text.spi_interrupt_flag_get:00000000000000fc .L0 
C:\Users\CYMR90~1\AppData\Local\Temp\ccYj4tTD.s:1273   .text.spi_flag_get:0000000000000000 spi_flag_get
C:\Users\CYMR90~1\AppData\Local\Temp\ccYj4tTD.s:1276   .text.spi_flag_get:0000000000000000 .L0 
C:\Users\CYMR90~1\AppData\Local\Temp\ccYj4tTD.s:1277   .text.spi_flag_get:0000000000000000 .L0 
C:\Users\CYMR90~1\AppData\Local\Temp\ccYj4tTD.s:1278   .text.spi_flag_get:0000000000000002 .L0 
C:\Users\CYMR90~1\AppData\Local\Temp\ccYj4tTD.s:1280   .text.spi_flag_get:0000000000000004 .L0 
C:\Users\CYMR90~1\AppData\Local\Temp\ccYj4tTD.s:1282   .text.spi_flag_get:0000000000000006 .L0 
C:\Users\CYMR90~1\AppData\Local\Temp\ccYj4tTD.s:1285   .text.spi_flag_get:000000000000000a .L0 
C:\Users\CYMR90~1\AppData\Local\Temp\ccYj4tTD.s:1289   .text.spi_flag_get:0000000000000012 .L0 
C:\Users\CYMR90~1\AppData\Local\Temp\ccYj4tTD.s:1292   .text.spi_flag_get:0000000000000018 .L0 
C:\Users\CYMR90~1\AppData\Local\Temp\ccYj4tTD.s:1294   .text.spi_flag_get:000000000000001a .L0 
C:\Users\CYMR90~1\AppData\Local\Temp\ccYj4tTD.s:1298   .text.spi_flag_get:000000000000001e .L0 
C:\Users\CYMR90~1\AppData\Local\Temp\ccYj4tTD.s:1301   .text.spi_flag_get:0000000000000020 .L0 
C:\Users\CYMR90~1\AppData\Local\Temp\ccYj4tTD.s:1303   .text.spi_flag_get:0000000000000024 .L0 
C:\Users\CYMR90~1\AppData\Local\Temp\ccYj4tTD.s:1304   .text.spi_flag_get:0000000000000024 .L0 
C:\Users\CYMR90~1\AppData\Local\Temp\ccYj4tTD.s:1306   .text.spi_flag_get:0000000000000026 .L0 
C:\Users\CYMR90~1\AppData\Local\Temp\ccYj4tTD.s:1308   .text.spi_flag_get:0000000000000028 .L0 
C:\Users\CYMR90~1\AppData\Local\Temp\ccYj4tTD.s:47     .text.spi_deinit:000000000000002e .L0 
C:\Users\CYMR90~1\AppData\Local\Temp\ccYj4tTD.s:94     .text.spi_struct_para_init:000000000000004a .L0 
C:\Users\CYMR90~1\AppData\Local\Temp\ccYj4tTD.s:187    .text.spi_init:00000000000000aa .L0 
C:\Users\CYMR90~1\AppData\Local\Temp\ccYj4tTD.s:218    .text.spi_enable:000000000000001e .L0 
C:\Users\CYMR90~1\AppData\Local\Temp\ccYj4tTD.s:249    .text.spi_disable:000000000000001e .L0 
C:\Users\CYMR90~1\AppData\Local\Temp\ccYj4tTD.s:282    .text.spi_nss_output_enable:0000000000000022 .L0 
C:\Users\CYMR90~1\AppData\Local\Temp\ccYj4tTD.s:315    .text.spi_nss_output_disable:0000000000000020 .L0 
C:\Users\CYMR90~1\AppData\Local\Temp\ccYj4tTD.s:346    .text.spi_nss_internal_high:000000000000001e .L0 
C:\Users\CYMR90~1\AppData\Local\Temp\ccYj4tTD.s:377    .text.spi_nss_internal_low:000000000000001e .L0 
C:\Users\CYMR90~1\AppData\Local\Temp\ccYj4tTD.s:427    .text.spi_dma_enable:0000000000000044 .L0 
C:\Users\CYMR90~1\AppData\Local\Temp\ccYj4tTD.s:477    .text.spi_dma_disable:0000000000000040 .L0 
C:\Users\CYMR90~1\AppData\Local\Temp\ccYj4tTD.s:521    .text.spi_data_frame_format_config:000000000000003a .L0 
C:\Users\CYMR90~1\AppData\Local\Temp\ccYj4tTD.s:555    .text.spi_data_transmit:0000000000000020 .L0 
C:\Users\CYMR90~1\AppData\Local\Temp\ccYj4tTD.s:587    .text.spi_data_receive:000000000000001a .L0 
C:\Users\CYMR90~1\AppData\Local\Temp\ccYj4tTD.s:636    .text.spi_bidirectional_transfer_config:0000000000000040 .L0 
C:\Users\CYMR90~1\AppData\Local\Temp\ccYj4tTD.s:667    .text.spi_format_error_clear:000000000000001a .L0 
C:\Users\CYMR90~1\AppData\Local\Temp\ccYj4tTD.s:701    .text.spi_crc_polynomial_set:0000000000000020 .L0 
C:\Users\CYMR90~1\AppData\Local\Temp\ccYj4tTD.s:733    .text.spi_crc_polynomial_get:000000000000001a .L0 
C:\Users\CYMR90~1\AppData\Local\Temp\ccYj4tTD.s:765    .text.spi_crc_on:000000000000001e .L0 
C:\Users\CYMR90~1\AppData\Local\Temp\ccYj4tTD.s:798    .text.spi_crc_off:0000000000000020 .L0 
C:\Users\CYMR90~1\AppData\Local\Temp\ccYj4tTD.s:830    .text.spi_crc_next:000000000000001e .L0 
C:\Users\CYMR90~1\AppData\Local\Temp\ccYj4tTD.s:877    .text.spi_crc_get:0000000000000034 .L0 
C:\Users\CYMR90~1\AppData\Local\Temp\ccYj4tTD.s:908    .text.spi_crc_error_clear:0000000000000018 .L0 
C:\Users\CYMR90~1\AppData\Local\Temp\ccYj4tTD.s:941    .text.spi_ti_mode_enable:0000000000000022 .L0 
C:\Users\CYMR90~1\AppData\Local\Temp\ccYj4tTD.s:974    .text.spi_ti_mode_disable:0000000000000020 .L0 
C:\Users\CYMR90~1\AppData\Local\Temp\ccYj4tTD.s:1049   .text.spi_interrupt_enable:0000000000000072 .L0 
C:\Users\CYMR90~1\AppData\Local\Temp\ccYj4tTD.s:1124   .text.spi_interrupt_disable:0000000000000072 .L0 
C:\Users\CYMR90~1\AppData\Local\Temp\ccYj4tTD.s:1269   .text.spi_interrupt_flag_get:00000000000000fc .L0 
C:\Users\CYMR90~1\AppData\Local\Temp\ccYj4tTD.s:1311   .text.spi_flag_get:0000000000000028 .L0 
                     .debug_frame:0000000000000000 .L0 
C:\Users\CYMR90~1\AppData\Local\Temp\ccYj4tTD.s:406    .text.spi_dma_enable:0000000000000028 .L11
C:\Users\CYMR90~1\AppData\Local\Temp\ccYj4tTD.s:415    .text.spi_dma_enable:000000000000003c .L13
C:\Users\CYMR90~1\AppData\Local\Temp\ccYj4tTD.s:456    .text.spi_dma_disable:0000000000000026 .L15
C:\Users\CYMR90~1\AppData\Local\Temp\ccYj4tTD.s:465    .text.spi_dma_disable:0000000000000038 .L17
C:\Users\CYMR90~1\AppData\Local\Temp\ccYj4tTD.s:615    .text.spi_bidirectional_transfer_config:0000000000000026 .L23
C:\Users\CYMR90~1\AppData\Local\Temp\ccYj4tTD.s:624    .text.spi_bidirectional_transfer_config:0000000000000038 .L25
C:\Users\CYMR90~1\AppData\Local\Temp\ccYj4tTD.s:857    .text.spi_crc_get:0000000000000020 .L34
C:\Users\CYMR90~1\AppData\Local\Temp\ccYj4tTD.s:865    .text.spi_crc_get:000000000000002c .L35
C:\Users\CYMR90~1\AppData\Local\Temp\ccYj4tTD.s:1023   .text.spi_interrupt_enable:0000000000000052 .L40
C:\Users\CYMR90~1\AppData\Local\Temp\ccYj4tTD.s:1034   .text.spi_interrupt_enable:0000000000000068 .L45
C:\Users\CYMR90~1\AppData\Local\Temp\ccYj4tTD.s:1001   .text.spi_interrupt_enable:0000000000000026 .L42
C:\Users\CYMR90~1\AppData\Local\Temp\ccYj4tTD.s:1012   .text.spi_interrupt_enable:000000000000003c .L43
C:\Users\CYMR90~1\AppData\Local\Temp\ccYj4tTD.s:1037   .text.spi_interrupt_enable:000000000000006a .L44
C:\Users\CYMR90~1\AppData\Local\Temp\ccYj4tTD.s:1098   .text.spi_interrupt_disable:0000000000000052 .L47
C:\Users\CYMR90~1\AppData\Local\Temp\ccYj4tTD.s:1109   .text.spi_interrupt_disable:0000000000000068 .L52
C:\Users\CYMR90~1\AppData\Local\Temp\ccYj4tTD.s:1076   .text.spi_interrupt_disable:0000000000000026 .L49
C:\Users\CYMR90~1\AppData\Local\Temp\ccYj4tTD.s:1087   .text.spi_interrupt_disable:000000000000003c .L50
C:\Users\CYMR90~1\AppData\Local\Temp\ccYj4tTD.s:1112   .text.spi_interrupt_disable:000000000000006a .L51
C:\Users\CYMR90~1\AppData\Local\Temp\ccYj4tTD.s:1166   .rodata.spi_interrupt_flag_get:0000000000000000 .L56
C:\Users\CYMR90~1\AppData\Local\Temp\ccYj4tTD.s:1157   .text.spi_interrupt_flag_get:0000000000000032 .L0 
C:\Users\CYMR90~1\AppData\Local\Temp\ccYj4tTD.s:1160   .text.spi_interrupt_flag_get:000000000000003e .L0 
C:\Users\CYMR90~1\AppData\Local\Temp\ccYj4tTD.s:1241   .text.spi_interrupt_flag_get:00000000000000e0 .L65
C:\Users\CYMR90~1\AppData\Local\Temp\ccYj4tTD.s:1244   .text.spi_interrupt_flag_get:00000000000000e2 .L62
C:\Users\CYMR90~1\AppData\Local\Temp\ccYj4tTD.s:1254   .text.spi_interrupt_flag_get:00000000000000f2 .L63
C:\Users\CYMR90~1\AppData\Local\Temp\ccYj4tTD.s:1257   .text.spi_interrupt_flag_get:00000000000000f4 .L64
C:\Users\CYMR90~1\AppData\Local\Temp\ccYj4tTD.s:1175   .text.spi_interrupt_flag_get:000000000000004a .L61
C:\Users\CYMR90~1\AppData\Local\Temp\ccYj4tTD.s:1186   .text.spi_interrupt_flag_get:0000000000000062 .L60
C:\Users\CYMR90~1\AppData\Local\Temp\ccYj4tTD.s:1197   .text.spi_interrupt_flag_get:000000000000007a .L59
C:\Users\CYMR90~1\AppData\Local\Temp\ccYj4tTD.s:1208   .text.spi_interrupt_flag_get:0000000000000094 .L58
C:\Users\CYMR90~1\AppData\Local\Temp\ccYj4tTD.s:1219   .text.spi_interrupt_flag_get:00000000000000ae .L57
C:\Users\CYMR90~1\AppData\Local\Temp\ccYj4tTD.s:1230   .text.spi_interrupt_flag_get:00000000000000c6 .L55
C:\Users\CYMR90~1\AppData\Local\Temp\ccYj4tTD.s:1296   .text.spi_flag_get:000000000000001e .L67
C:\Users\CYMR90~1\AppData\Local\Temp\ccYj4tTD.s:1299   .text.spi_flag_get:0000000000000020 .L68
C:\Users\CYMR90~1\AppData\Local\Temp\ccYj4tTD.s:2040   .debug_abbrev:0000000000000000 .Ldebug_abbrev0
C:\Users\CYMR90~1\AppData\Local\Temp\ccYj4tTD.s:23051  .debug_str:000000000000af20 .LASF5651
C:\Users\CYMR90~1\AppData\Local\Temp\ccYj4tTD.s:26226  .debug_str:0000000000017bc0 .LASF5652
C:\Users\CYMR90~1\AppData\Local\Temp\ccYj4tTD.s:25969  .debug_str:00000000000169c3 .LASF5653
C:\Users\CYMR90~1\AppData\Local\Temp\ccYj4tTD.s:2589   .debug_ranges:0000000000000000 .Ldebug_ranges0
C:\Users\CYMR90~1\AppData\Local\Temp\ccYj4tTD.s:20289  .debug_line:0000000000000000 .Ldebug_line0
C:\Users\CYMR90~1\AppData\Local\Temp\ccYj4tTD.s:2651   .debug_macro:0000000000000000 .Ldebug_macro0
C:\Users\CYMR90~1\AppData\Local\Temp\ccYj4tTD.s:31556  .debug_str:000000000002cf43 .LASF5557
C:\Users\CYMR90~1\AppData\Local\Temp\ccYj4tTD.s:20307  .debug_str:000000000000011c .LASF5558
C:\Users\CYMR90~1\AppData\Local\Temp\ccYj4tTD.s:21237  .debug_str:0000000000003abc .LASF5559
C:\Users\CYMR90~1\AppData\Local\Temp\ccYj4tTD.s:26422  .debug_str:00000000000187cf .LASF5560
C:\Users\CYMR90~1\AppData\Local\Temp\ccYj4tTD.s:22539  .debug_str:0000000000008ec2 .LASF5563
C:\Users\CYMR90~1\AppData\Local\Temp\ccYj4tTD.s:25879  .debug_str:00000000000163b2 .LASF5561
C:\Users\CYMR90~1\AppData\Local\Temp\ccYj4tTD.s:27748  .debug_str:000000000001dfb8 .LASF5562
C:\Users\CYMR90~1\AppData\Local\Temp\ccYj4tTD.s:23855  .debug_str:000000000000e392 .LASF5564
C:\Users\CYMR90~1\AppData\Local\Temp\ccYj4tTD.s:29362  .debug_str:000000000002416f .LASF5565
C:\Users\CYMR90~1\AppData\Local\Temp\ccYj4tTD.s:28150  .debug_str:000000000001f7a0 .LASF5566
C:\Users\CYMR90~1\AppData\Local\Temp\ccYj4tTD.s:26634  .debug_str:0000000000019613 .LASF5567
C:\Users\CYMR90~1\AppData\Local\Temp\ccYj4tTD.s:20427  .debug_str:000000000000085b .LASF5568
C:\Users\CYMR90~1\AppData\Local\Temp\ccYj4tTD.s:29710  .debug_str:0000000000025a16 .LASF5569
C:\Users\CYMR90~1\AppData\Local\Temp\ccYj4tTD.s:28172  .debug_str:000000000001f900 .LASF855
C:\Users\CYMR90~1\AppData\Local\Temp\ccYj4tTD.s:25645  .debug_str:0000000000015509 .LASF5570
C:\Users\CYMR90~1\AppData\Local\Temp\ccYj4tTD.s:29642  .debug_str:000000000002550b .LASF5571
C:\Users\CYMR90~1\AppData\Local\Temp\ccYj4tTD.s:21107  .debug_str:000000000000325a .LASF5572
C:\Users\CYMR90~1\AppData\Local\Temp\ccYj4tTD.s:29404  .debug_str:0000000000024475 .LASF5573
C:\Users\CYMR90~1\AppData\Local\Temp\ccYj4tTD.s:22905  .debug_str:000000000000a539 .LASF5574
C:\Users\CYMR90~1\AppData\Local\Temp\ccYj4tTD.s:23061  .debug_str:000000000000b058 .LASF5575
C:\Users\CYMR90~1\AppData\Local\Temp\ccYj4tTD.s:30574  .debug_str:00000000000291ab .LASF5576
C:\Users\CYMR90~1\AppData\Local\Temp\ccYj4tTD.s:27942  .debug_str:000000000001eb29 .LASF5577
C:\Users\CYMR90~1\AppData\Local\Temp\ccYj4tTD.s:28764  .debug_str:0000000000021dad .LASF5578
C:\Users\CYMR90~1\AppData\Local\Temp\ccYj4tTD.s:31536  .debug_str:000000000002ce27 .LASF5579
C:\Users\CYMR90~1\AppData\Local\Temp\ccYj4tTD.s:29998  .debug_str:0000000000026bbf .LASF5580
C:\Users\CYMR90~1\AppData\Local\Temp\ccYj4tTD.s:22239  .debug_str:0000000000007a7a .LASF5581
C:\Users\CYMR90~1\AppData\Local\Temp\ccYj4tTD.s:25793  .debug_str:0000000000015e41 .LASF5582
C:\Users\CYMR90~1\AppData\Local\Temp\ccYj4tTD.s:21079  .debug_str:0000000000003055 .LASF5583
C:\Users\CYMR90~1\AppData\Local\Temp\ccYj4tTD.s:24443  .debug_str:0000000000010784 .LASF5584
C:\Users\CYMR90~1\AppData\Local\Temp\ccYj4tTD.s:29896  .debug_str:0000000000026588 .LASF5585
C:\Users\CYMR90~1\AppData\Local\Temp\ccYj4tTD.s:22145  .debug_str:000000000000747b .LASF5586
C:\Users\CYMR90~1\AppData\Local\Temp\ccYj4tTD.s:23387  .debug_str:000000000000c5b2 .LASF5587
C:\Users\CYMR90~1\AppData\Local\Temp\ccYj4tTD.s:31528  .debug_str:000000000002cd17 .LASF5588
C:\Users\CYMR90~1\AppData\Local\Temp\ccYj4tTD.s:21943  .debug_str:00000000000066f7 .LASF5589
C:\Users\CYMR90~1\AppData\Local\Temp\ccYj4tTD.s:30500  .debug_str:0000000000028cfe .LASF5590
C:\Users\CYMR90~1\AppData\Local\Temp\ccYj4tTD.s:30432  .debug_str:000000000002892e .LASF5591
C:\Users\CYMR90~1\AppData\Local\Temp\ccYj4tTD.s:25345  .debug_str:000000000001424d .LASF5592
C:\Users\CYMR90~1\AppData\Local\Temp\ccYj4tTD.s:21439  .debug_str:0000000000004831 .LASF5593
C:\Users\CYMR90~1\AppData\Local\Temp\ccYj4tTD.s:26862  .debug_str:000000000001a5f1 .LASF5594
C:\Users\CYMR90~1\AppData\Local\Temp\ccYj4tTD.s:23677  .debug_str:000000000000d8ff .LASF5595
C:\Users\CYMR90~1\AppData\Local\Temp\ccYj4tTD.s:31370  .debug_str:000000000002c2ee .LASF5596
C:\Users\CYMR90~1\AppData\Local\Temp\ccYj4tTD.s:26570  .debug_str:0000000000019273 .LASF5597
C:\Users\CYMR90~1\AppData\Local\Temp\ccYj4tTD.s:22169  .debug_str:00000000000075de .LASF5598
C:\Users\CYMR90~1\AppData\Local\Temp\ccYj4tTD.s:21299  .debug_str:0000000000003e67 .LASF5599
C:\Users\CYMR90~1\AppData\Local\Temp\ccYj4tTD.s:28750  .debug_str:0000000000021cd4 .LASF5600
C:\Users\CYMR90~1\AppData\Local\Temp\ccYj4tTD.s:21325  .debug_str:0000000000004030 .LASF5601
C:\Users\CYMR90~1\AppData\Local\Temp\ccYj4tTD.s:29358  .debug_str:0000000000024145 .LASF5602
C:\Users\CYMR90~1\AppData\Local\Temp\ccYj4tTD.s:23133  .debug_str:000000000000b467 .LASF5603
C:\Users\CYMR90~1\AppData\Local\Temp\ccYj4tTD.s:27050  .debug_str:000000000001b274 .LASF5604
C:\Users\CYMR90~1\AppData\Local\Temp\ccYj4tTD.s:31444  .debug_str:000000000002c7de .LASF5605
C:\Users\CYMR90~1\AppData\Local\Temp\ccYj4tTD.s:30572  .debug_str:00000000000291a0 .LASF5606
C:\Users\CYMR90~1\AppData\Local\Temp\ccYj4tTD.s:29316  .debug_str:0000000000023e48 .LASF5607
C:\Users\CYMR90~1\AppData\Local\Temp\ccYj4tTD.s:30870  .debug_str:000000000002a37f .LASF5608
C:\Users\CYMR90~1\AppData\Local\Temp\ccYj4tTD.s:25487  .debug_str:0000000000014af5 .LASF5609
C:\Users\CYMR90~1\AppData\Local\Temp\ccYj4tTD.s:24037  .debug_str:000000000000ee87 .LASF5610
C:\Users\CYMR90~1\AppData\Local\Temp\ccYj4tTD.s:29794  .debug_str:0000000000025f1a .LASF5611
C:\Users\CYMR90~1\AppData\Local\Temp\ccYj4tTD.s:27532  .debug_str:000000000001d1ae .LASF5612
C:\Users\CYMR90~1\AppData\Local\Temp\ccYj4tTD.s:1274   .text.spi_flag_get:0000000000000000 .LFB375
C:\Users\CYMR90~1\AppData\Local\Temp\ccYj4tTD.s:1309   .text.spi_flag_get:0000000000000028 .LFE375
C:\Users\CYMR90~1\AppData\Local\Temp\ccYj4tTD.s:22893  .debug_str:000000000000a47a .LASF5614
C:\Users\CYMR90~1\AppData\Local\Temp\ccYj4tTD.s:29034  .debug_str:0000000000022dc4 .LASF5613
C:\Users\CYMR90~1\AppData\Local\Temp\ccYj4tTD.s:1129   .text.spi_interrupt_flag_get:0000000000000000 .LFB374
C:\Users\CYMR90~1\AppData\Local\Temp\ccYj4tTD.s:1267   .text.spi_interrupt_flag_get:00000000000000fc .LFE374
C:\Users\CYMR90~1\AppData\Local\Temp\ccYj4tTD.s:26988  .debug_str:000000000001ae01 .LASF5615
C:\Users\CYMR90~1\AppData\Local\Temp\ccYj4tTD.s:20857  .debug_str:0000000000002285 .LASF5616
C:\Users\CYMR90~1\AppData\Local\Temp\ccYj4tTD.s:20859  .debug_str:000000000000228a .LASF5617
C:\Users\CYMR90~1\AppData\Local\Temp\ccYj4tTD.s:31016  .debug_str:000000000002ac5f .LASF5618
C:\Users\CYMR90~1\AppData\Local\Temp\ccYj4tTD.s:1054   .text.spi_interrupt_disable:0000000000000000 .LFB373
C:\Users\CYMR90~1\AppData\Local\Temp\ccYj4tTD.s:1122   .text.spi_interrupt_disable:0000000000000072 .LFE373
C:\Users\CYMR90~1\AppData\Local\Temp\ccYj4tTD.s:23191  .debug_str:000000000000b8b6 .LASF5619
C:\Users\CYMR90~1\AppData\Local\Temp\ccYj4tTD.s:979    .text.spi_interrupt_enable:0000000000000000 .LFB372
C:\Users\CYMR90~1\AppData\Local\Temp\ccYj4tTD.s:1047   .text.spi_interrupt_enable:0000000000000072 .LFE372
C:\Users\CYMR90~1\AppData\Local\Temp\ccYj4tTD.s:22203  .debug_str:0000000000007800 .LASF5620
C:\Users\CYMR90~1\AppData\Local\Temp\ccYj4tTD.s:946    .text.spi_ti_mode_disable:0000000000000000 .LFB371
C:\Users\CYMR90~1\AppData\Local\Temp\ccYj4tTD.s:972    .text.spi_ti_mode_disable:0000000000000020 .LFE371
C:\Users\CYMR90~1\AppData\Local\Temp\ccYj4tTD.s:31316  .debug_str:000000000002bff2 .LASF5621
C:\Users\CYMR90~1\AppData\Local\Temp\ccYj4tTD.s:913    .text.spi_ti_mode_enable:0000000000000000 .LFB370
C:\Users\CYMR90~1\AppData\Local\Temp\ccYj4tTD.s:939    .text.spi_ti_mode_enable:0000000000000022 .LFE370
C:\Users\CYMR90~1\AppData\Local\Temp\ccYj4tTD.s:23147  .debug_str:000000000000b5cd .LASF5622
C:\Users\CYMR90~1\AppData\Local\Temp\ccYj4tTD.s:882    .text.spi_crc_error_clear:0000000000000000 .LFB369
C:\Users\CYMR90~1\AppData\Local\Temp\ccYj4tTD.s:906    .text.spi_crc_error_clear:0000000000000018 .LFE369
C:\Users\CYMR90~1\AppData\Local\Temp\ccYj4tTD.s:31276  .debug_str:000000000002bcd9 .LASF5623
C:\Users\CYMR90~1\AppData\Local\Temp\ccYj4tTD.s:835    .text.spi_crc_get:0000000000000000 .LFB368
C:\Users\CYMR90~1\AppData\Local\Temp\ccYj4tTD.s:875    .text.spi_crc_get:0000000000000034 .LFE368
C:\Users\CYMR90~1\AppData\Local\Temp\ccYj4tTD.s:26426  .debug_str:0000000000018805 .LASF5624
C:\Users\CYMR90~1\AppData\Local\Temp\ccYj4tTD.s:803    .text.spi_crc_next:0000000000000000 .LFB367
C:\Users\CYMR90~1\AppData\Local\Temp\ccYj4tTD.s:828    .text.spi_crc_next:000000000000001e .LFE367
C:\Users\CYMR90~1\AppData\Local\Temp\ccYj4tTD.s:24377  .debug_str:00000000000103a8 .LASF5625
C:\Users\CYMR90~1\AppData\Local\Temp\ccYj4tTD.s:770    .text.spi_crc_off:0000000000000000 .LFB366
C:\Users\CYMR90~1\AppData\Local\Temp\ccYj4tTD.s:796    .text.spi_crc_off:0000000000000020 .LFE366
C:\Users\CYMR90~1\AppData\Local\Temp\ccYj4tTD.s:24289  .debug_str:000000000000fe63 .LASF5626
C:\Users\CYMR90~1\AppData\Local\Temp\ccYj4tTD.s:738    .text.spi_crc_on:0000000000000000 .LFB365
C:\Users\CYMR90~1\AppData\Local\Temp\ccYj4tTD.s:763    .text.spi_crc_on:000000000000001e .LFE365
C:\Users\CYMR90~1\AppData\Local\Temp\ccYj4tTD.s:26768  .debug_str:0000000000019f11 .LASF5632
C:\Users\CYMR90~1\AppData\Local\Temp\ccYj4tTD.s:706    .text.spi_crc_polynomial_get:0000000000000000 .LFB364
C:\Users\CYMR90~1\AppData\Local\Temp\ccYj4tTD.s:731    .text.spi_crc_polynomial_get:000000000000001a .LFE364
C:\Users\CYMR90~1\AppData\Local\Temp\ccYj4tTD.s:21957  .debug_str:00000000000067ad .LASF5627
C:\Users\CYMR90~1\AppData\Local\Temp\ccYj4tTD.s:672    .text.spi_crc_polynomial_set:0000000000000000 .LFB363
C:\Users\CYMR90~1\AppData\Local\Temp\ccYj4tTD.s:699    .text.spi_crc_polynomial_set:0000000000000020 .LFE363
C:\Users\CYMR90~1\AppData\Local\Temp\ccYj4tTD.s:21171  .debug_str:000000000000365a .LASF5628
C:\Users\CYMR90~1\AppData\Local\Temp\ccYj4tTD.s:29958  .debug_str:0000000000026946 .LASF5629
C:\Users\CYMR90~1\AppData\Local\Temp\ccYj4tTD.s:641    .text.spi_format_error_clear:0000000000000000 .LFB362
C:\Users\CYMR90~1\AppData\Local\Temp\ccYj4tTD.s:665    .text.spi_format_error_clear:000000000000001a .LFE362
C:\Users\CYMR90~1\AppData\Local\Temp\ccYj4tTD.s:22875  .debug_str:000000000000a339 .LASF5630
C:\Users\CYMR90~1\AppData\Local\Temp\ccYj4tTD.s:592    .text.spi_bidirectional_transfer_config:0000000000000000 .LFB361
C:\Users\CYMR90~1\AppData\Local\Temp\ccYj4tTD.s:634    .text.spi_bidirectional_transfer_config:0000000000000040 .LFE361
C:\Users\CYMR90~1\AppData\Local\Temp\ccYj4tTD.s:20309  .debug_str:000000000000012a .LASF5631
C:\Users\CYMR90~1\AppData\Local\Temp\ccYj4tTD.s:26202  .debug_str:0000000000017a80 .LASF5633
C:\Users\CYMR90~1\AppData\Local\Temp\ccYj4tTD.s:560    .text.spi_data_receive:0000000000000000 .LFB360
C:\Users\CYMR90~1\AppData\Local\Temp\ccYj4tTD.s:585    .text.spi_data_receive:000000000000001a .LFE360
C:\Users\CYMR90~1\AppData\Local\Temp\ccYj4tTD.s:26012  .debug_str:0000000000016ec5 .LASF5634
C:\Users\CYMR90~1\AppData\Local\Temp\ccYj4tTD.s:526    .text.spi_data_transmit:0000000000000000 .LFB359
C:\Users\CYMR90~1\AppData\Local\Temp\ccYj4tTD.s:553    .text.spi_data_transmit:0000000000000020 .LFE359
C:\Users\CYMR90~1\AppData\Local\Temp\ccYj4tTD.s:30676  .debug_str:000000000002987c .LASF5635
C:\Users\CYMR90~1\AppData\Local\Temp\ccYj4tTD.s:29172  .debug_str:000000000002358d .LASF5636
C:\Users\CYMR90~1\AppData\Local\Temp\ccYj4tTD.s:482    .text.spi_data_frame_format_config:0000000000000000 .LFB358
C:\Users\CYMR90~1\AppData\Local\Temp\ccYj4tTD.s:519    .text.spi_data_frame_format_config:000000000000003a .LFE358
C:\Users\CYMR90~1\AppData\Local\Temp\ccYj4tTD.s:22749  .debug_str:0000000000009b96 .LASF5637
C:\Users\CYMR90~1\AppData\Local\Temp\ccYj4tTD.s:27332  .debug_str:000000000001c38b .LASF5638
C:\Users\CYMR90~1\AppData\Local\Temp\ccYj4tTD.s:432    .text.spi_dma_disable:0000000000000000 .LFB357
C:\Users\CYMR90~1\AppData\Local\Temp\ccYj4tTD.s:475    .text.spi_dma_disable:0000000000000040 .LFE357
C:\Users\CYMR90~1\AppData\Local\Temp\ccYj4tTD.s:31328  .debug_str:000000000002c0a0 .LASF5639
C:\Users\CYMR90~1\AppData\Local\Temp\ccYj4tTD.s:25215  .debug_str:0000000000013a31 .LASF5640
C:\Users\CYMR90~1\AppData\Local\Temp\ccYj4tTD.s:382    .text.spi_dma_enable:0000000000000000 .LFB356
C:\Users\CYMR90~1\AppData\Local\Temp\ccYj4tTD.s:425    .text.spi_dma_enable:0000000000000044 .LFE356
C:\Users\CYMR90~1\AppData\Local\Temp\ccYj4tTD.s:28912  .debug_str:000000000002262f .LASF5641
C:\Users\CYMR90~1\AppData\Local\Temp\ccYj4tTD.s:351    .text.spi_nss_internal_low:0000000000000000 .LFB355
C:\Users\CYMR90~1\AppData\Local\Temp\ccYj4tTD.s:375    .text.spi_nss_internal_low:000000000000001e .LFE355
C:\Users\CYMR90~1\AppData\Local\Temp\ccYj4tTD.s:22891  .debug_str:000000000000a464 .LASF5642
C:\Users\CYMR90~1\AppData\Local\Temp\ccYj4tTD.s:320    .text.spi_nss_internal_high:0000000000000000 .LFB354
C:\Users\CYMR90~1\AppData\Local\Temp\ccYj4tTD.s:344    .text.spi_nss_internal_high:000000000000001e .LFE354
C:\Users\CYMR90~1\AppData\Local\Temp\ccYj4tTD.s:21701  .debug_str:000000000000584a .LASF5643
C:\Users\CYMR90~1\AppData\Local\Temp\ccYj4tTD.s:287    .text.spi_nss_output_disable:0000000000000000 .LFB353
C:\Users\CYMR90~1\AppData\Local\Temp\ccYj4tTD.s:313    .text.spi_nss_output_disable:0000000000000020 .LFE353
C:\Users\CYMR90~1\AppData\Local\Temp\ccYj4tTD.s:29922  .debug_str:0000000000026730 .LASF5644
C:\Users\CYMR90~1\AppData\Local\Temp\ccYj4tTD.s:254    .text.spi_nss_output_enable:0000000000000000 .LFB352
C:\Users\CYMR90~1\AppData\Local\Temp\ccYj4tTD.s:280    .text.spi_nss_output_enable:0000000000000022 .LFE352
C:\Users\CYMR90~1\AppData\Local\Temp\ccYj4tTD.s:23527  .debug_str:000000000000cedf .LASF5645
C:\Users\CYMR90~1\AppData\Local\Temp\ccYj4tTD.s:223    .text.spi_disable:0000000000000000 .LFB351
C:\Users\CYMR90~1\AppData\Local\Temp\ccYj4tTD.s:247    .text.spi_disable:000000000000001e .LFE351
C:\Users\CYMR90~1\AppData\Local\Temp\ccYj4tTD.s:26472  .debug_str:0000000000018ae2 .LASF5646
C:\Users\CYMR90~1\AppData\Local\Temp\ccYj4tTD.s:192    .text.spi_enable:0000000000000000 .LFB350
C:\Users\CYMR90~1\AppData\Local\Temp\ccYj4tTD.s:216    .text.spi_enable:000000000000001e .LFE350
C:\Users\CYMR90~1\AppData\Local\Temp\ccYj4tTD.s:30616  .debug_str:000000000002949a .LASF5647
C:\Users\CYMR90~1\AppData\Local\Temp\ccYj4tTD.s:99     .text.spi_init:0000000000000000 .LFB349
C:\Users\CYMR90~1\AppData\Local\Temp\ccYj4tTD.s:185    .text.spi_init:00000000000000aa .LFE349
C:\Users\CYMR90~1\AppData\Local\Temp\ccYj4tTD.s:24761  .debug_str:0000000000011c49 .LASF5648
C:\Users\CYMR90~1\AppData\Local\Temp\ccYj4tTD.s:22549  .debug_str:0000000000008f4d .LASF5649
C:\Users\CYMR90~1\AppData\Local\Temp\ccYj4tTD.s:52     .text.spi_struct_para_init:0000000000000000 .LFB348
C:\Users\CYMR90~1\AppData\Local\Temp\ccYj4tTD.s:92     .text.spi_struct_para_init:000000000000004a .LFE348
C:\Users\CYMR90~1\AppData\Local\Temp\ccYj4tTD.s:29832  .debug_str:00000000000261de .LASF5650
C:\Users\CYMR90~1\AppData\Local\Temp\ccYj4tTD.s:14     .text.spi_deinit:0000000000000000 .LFB347
C:\Users\CYMR90~1\AppData\Local\Temp\ccYj4tTD.s:45     .text.spi_deinit:000000000000002e .LFE347
C:\Users\CYMR90~1\AppData\Local\Temp\ccYj4tTD.s:1319   .debug_info:0000000000000000 .Ldebug_info0
C:\Users\CYMR90~1\AppData\Local\Temp\ccYj4tTD.s:3274   .debug_macro:0000000000000000 .Ldebug_macro2
C:\Users\CYMR90~1\AppData\Local\Temp\ccYj4tTD.s:23109  .debug_str:000000000000b336 .LASF314
C:\Users\CYMR90~1\AppData\Local\Temp\ccYj4tTD.s:26052  .debug_str:0000000000017129 .LASF315
C:\Users\CYMR90~1\AppData\Local\Temp\ccYj4tTD.s:4221   .debug_macro:0000000000000000 .Ldebug_macro3
C:\Users\CYMR90~1\AppData\Local\Temp\ccYj4tTD.s:22487  .debug_str:0000000000008b2f .LASF369
C:\Users\CYMR90~1\AppData\Local\Temp\ccYj4tTD.s:22051  .debug_str:0000000000006da4 .LASF370
C:\Users\CYMR90~1\AppData\Local\Temp\ccYj4tTD.s:26296  .debug_str:0000000000018018 .LASF371
C:\Users\CYMR90~1\AppData\Local\Temp\ccYj4tTD.s:4385   .debug_macro:0000000000000000 .Ldebug_macro4
C:\Users\CYMR90~1\AppData\Local\Temp\ccYj4tTD.s:4405   .debug_macro:0000000000000000 .Ldebug_macro5
C:\Users\CYMR90~1\AppData\Local\Temp\ccYj4tTD.s:24949  .debug_str:0000000000012897 .LASF390
C:\Users\CYMR90~1\AppData\Local\Temp\ccYj4tTD.s:4449   .debug_macro:0000000000000000 .Ldebug_macro6
C:\Users\CYMR90~1\AppData\Local\Temp\ccYj4tTD.s:4463   .debug_macro:0000000000000000 .Ldebug_macro7
C:\Users\CYMR90~1\AppData\Local\Temp\ccYj4tTD.s:4531   .debug_macro:0000000000000000 .Ldebug_macro8
C:\Users\CYMR90~1\AppData\Local\Temp\ccYj4tTD.s:4557   .debug_macro:0000000000000000 .Ldebug_macro9
C:\Users\CYMR90~1\AppData\Local\Temp\ccYj4tTD.s:4586   .debug_macro:0000000000000000 .Ldebug_macro10
C:\Users\CYMR90~1\AppData\Local\Temp\ccYj4tTD.s:26434  .debug_str:000000000001886c .LASF433
C:\Users\CYMR90~1\AppData\Local\Temp\ccYj4tTD.s:4600   .debug_macro:0000000000000000 .Ldebug_macro11
C:\Users\CYMR90~1\AppData\Local\Temp\ccYj4tTD.s:4644   .debug_macro:0000000000000000 .Ldebug_macro12
C:\Users\CYMR90~1\AppData\Local\Temp\ccYj4tTD.s:4670   .debug_macro:0000000000000000 .Ldebug_macro13
C:\Users\CYMR90~1\AppData\Local\Temp\ccYj4tTD.s:20609  .debug_str:0000000000001382 .LASF569
C:\Users\CYMR90~1\AppData\Local\Temp\ccYj4tTD.s:5041   .debug_macro:0000000000000000 .Ldebug_macro14
C:\Users\CYMR90~1\AppData\Local\Temp\ccYj4tTD.s:24469  .debug_str:00000000000108f2 .LASF572
C:\Users\CYMR90~1\AppData\Local\Temp\ccYj4tTD.s:29328  .debug_str:0000000000023eda .LASF573
C:\Users\CYMR90~1\AppData\Local\Temp\ccYj4tTD.s:5052   .debug_macro:0000000000000000 .Ldebug_macro15
C:\Users\CYMR90~1\AppData\Local\Temp\ccYj4tTD.s:5066   .debug_macro:0000000000000000 .Ldebug_macro16
C:\Users\CYMR90~1\AppData\Local\Temp\ccYj4tTD.s:22217  .debug_str:00000000000078c7 .LASF578
C:\Users\CYMR90~1\AppData\Local\Temp\ccYj4tTD.s:5098   .debug_macro:0000000000000000 .Ldebug_macro17
C:\Users\CYMR90~1\AppData\Local\Temp\ccYj4tTD.s:5124   .debug_macro:0000000000000000 .Ldebug_macro18
C:\Users\CYMR90~1\AppData\Local\Temp\ccYj4tTD.s:5135   .debug_macro:0000000000000000 .Ldebug_macro19
C:\Users\CYMR90~1\AppData\Local\Temp\ccYj4tTD.s:5179   .debug_macro:0000000000000000 .Ldebug_macro20
C:\Users\CYMR90~1\AppData\Local\Temp\ccYj4tTD.s:5349   .debug_macro:0000000000000000 .Ldebug_macro21
C:\Users\CYMR90~1\AppData\Local\Temp\ccYj4tTD.s:5360   .debug_macro:0000000000000000 .Ldebug_macro22
C:\Users\CYMR90~1\AppData\Local\Temp\ccYj4tTD.s:24955  .debug_str:00000000000128f0 .LASF675
C:\Users\CYMR90~1\AppData\Local\Temp\ccYj4tTD.s:5416   .debug_macro:0000000000000000 .Ldebug_macro23
C:\Users\CYMR90~1\AppData\Local\Temp\ccYj4tTD.s:5433   .debug_macro:0000000000000000 .Ldebug_macro24
C:\Users\CYMR90~1\AppData\Local\Temp\ccYj4tTD.s:28142  .debug_str:000000000001f730 .LASF693
C:\Users\CYMR90~1\AppData\Local\Temp\ccYj4tTD.s:26302  .debug_str:0000000000018049 .LASF694
C:\Users\CYMR90~1\AppData\Local\Temp\ccYj4tTD.s:5477   .debug_macro:0000000000000000 .Ldebug_macro25
C:\Users\CYMR90~1\AppData\Local\Temp\ccYj4tTD.s:21509  .debug_str:0000000000004d0c .LASF700
C:\Users\CYMR90~1\AppData\Local\Temp\ccYj4tTD.s:22627  .debug_str:00000000000093b4 .LASF701
C:\Users\CYMR90~1\AppData\Local\Temp\ccYj4tTD.s:5497   .debug_macro:0000000000000000 .Ldebug_macro26
C:\Users\CYMR90~1\AppData\Local\Temp\ccYj4tTD.s:5508   .debug_macro:0000000000000000 .Ldebug_macro27
C:\Users\CYMR90~1\AppData\Local\Temp\ccYj4tTD.s:5552   .debug_macro:0000000000000000 .Ldebug_macro28
C:\Users\CYMR90~1\AppData\Local\Temp\ccYj4tTD.s:21873  .debug_str:00000000000062c5 .LASF749
C:\Users\CYMR90~1\AppData\Local\Temp\ccYj4tTD.s:5653   .debug_macro:0000000000000000 .Ldebug_macro29
C:\Users\CYMR90~1\AppData\Local\Temp\ccYj4tTD.s:5670   .debug_macro:0000000000000000 .Ldebug_macro30
C:\Users\CYMR90~1\AppData\Local\Temp\ccYj4tTD.s:20361  .debug_str:0000000000000461 .LASF763
C:\Users\CYMR90~1\AppData\Local\Temp\ccYj4tTD.s:21687  .debug_str:0000000000005784 .LASF764
C:\Users\CYMR90~1\AppData\Local\Temp\ccYj4tTD.s:5702   .debug_macro:0000000000000000 .Ldebug_macro31
C:\Users\CYMR90~1\AppData\Local\Temp\ccYj4tTD.s:5716   .debug_macro:0000000000000000 .Ldebug_macro32
C:\Users\CYMR90~1\AppData\Local\Temp\ccYj4tTD.s:5886   .debug_macro:0000000000000000 .Ldebug_macro33
C:\Users\CYMR90~1\AppData\Local\Temp\ccYj4tTD.s:24135  .debug_str:000000000000f481 .LASF850
C:\Users\CYMR90~1\AppData\Local\Temp\ccYj4tTD.s:26520  .debug_str:0000000000018ea8 .LASF851
C:\Users\CYMR90~1\AppData\Local\Temp\ccYj4tTD.s:5972   .debug_macro:0000000000000000 .Ldebug_macro34
C:\Users\CYMR90~1\AppData\Local\Temp\ccYj4tTD.s:6097   .debug_macro:0000000000000000 .Ldebug_macro35
C:\Users\CYMR90~1\AppData\Local\Temp\ccYj4tTD.s:20639  .debug_str:0000000000001502 .LASF951
C:\Users\CYMR90~1\AppData\Local\Temp\ccYj4tTD.s:6309   .debug_macro:0000000000000000 .Ldebug_macro36
C:\Users\CYMR90~1\AppData\Local\Temp\ccYj4tTD.s:22375  .debug_str:000000000000846e .LASF957
C:\Users\CYMR90~1\AppData\Local\Temp\ccYj4tTD.s:21927  .debug_str:00000000000065fc .LASF958
C:\Users\CYMR90~1\AppData\Local\Temp\ccYj4tTD.s:20807  .debug_str:0000000000001fdb .LASF959
C:\Users\CYMR90~1\AppData\Local\Temp\ccYj4tTD.s:6329   .debug_macro:0000000000000000 .Ldebug_macro37
C:\Users\CYMR90~1\AppData\Local\Temp\ccYj4tTD.s:6421   .debug_macro:0000000000000000 .Ldebug_macro38
C:\Users\CYMR90~1\AppData\Local\Temp\ccYj4tTD.s:8067   .debug_macro:0000000000000000 .Ldebug_macro39
C:\Users\CYMR90~1\AppData\Local\Temp\ccYj4tTD.s:8159   .debug_macro:0000000000000000 .Ldebug_macro40
C:\Users\CYMR90~1\AppData\Local\Temp\ccYj4tTD.s:8215   .debug_macro:0000000000000000 .Ldebug_macro41
C:\Users\CYMR90~1\AppData\Local\Temp\ccYj4tTD.s:8229   .debug_macro:0000000000000000 .Ldebug_macro42
C:\Users\CYMR90~1\AppData\Local\Temp\ccYj4tTD.s:25839  .debug_str:0000000000016163 .LASF1655
C:\Users\CYMR90~1\AppData\Local\Temp\ccYj4tTD.s:22751  .debug_str:0000000000009ba3 .LASF1656
C:\Users\CYMR90~1\AppData\Local\Temp\ccYj4tTD.s:8453   .debug_macro:0000000000000000 .Ldebug_macro43
C:\Users\CYMR90~1\AppData\Local\Temp\ccYj4tTD.s:8500   .debug_macro:0000000000000000 .Ldebug_macro44
C:\Users\CYMR90~1\AppData\Local\Temp\ccYj4tTD.s:8655   .debug_macro:0000000000000000 .Ldebug_macro45
C:\Users\CYMR90~1\AppData\Local\Temp\ccYj4tTD.s:8711   .debug_macro:0000000000000000 .Ldebug_macro46
C:\Users\CYMR90~1\AppData\Local\Temp\ccYj4tTD.s:8722   .debug_macro:0000000000000000 .Ldebug_macro47
C:\Users\CYMR90~1\AppData\Local\Temp\ccYj4tTD.s:30778  .debug_str:0000000000029e68 .LASF1782
C:\Users\CYMR90~1\AppData\Local\Temp\ccYj4tTD.s:25605  .debug_str:00000000000152ed .LASF1783
C:\Users\CYMR90~1\AppData\Local\Temp\ccYj4tTD.s:8853   .debug_macro:0000000000000000 .Ldebug_macro48
C:\Users\CYMR90~1\AppData\Local\Temp\ccYj4tTD.s:9425   .debug_macro:0000000000000000 .Ldebug_macro49
C:\Users\CYMR90~1\AppData\Local\Temp\ccYj4tTD.s:9712   .debug_macro:0000000000000000 .Ldebug_macro50
C:\Users\CYMR90~1\AppData\Local\Temp\ccYj4tTD.s:9741   .debug_macro:0000000000000000 .Ldebug_macro51
C:\Users\CYMR90~1\AppData\Local\Temp\ccYj4tTD.s:9818   .debug_macro:0000000000000000 .Ldebug_macro52
C:\Users\CYMR90~1\AppData\Local\Temp\ccYj4tTD.s:10351  .debug_macro:0000000000000000 .Ldebug_macro53
C:\Users\CYMR90~1\AppData\Local\Temp\ccYj4tTD.s:10374  .debug_macro:0000000000000000 .Ldebug_macro54
C:\Users\CYMR90~1\AppData\Local\Temp\ccYj4tTD.s:10640  .debug_macro:0000000000000000 .Ldebug_macro55
C:\Users\CYMR90~1\AppData\Local\Temp\ccYj4tTD.s:11119  .debug_macro:0000000000000000 .Ldebug_macro56
C:\Users\CYMR90~1\AppData\Local\Temp\ccYj4tTD.s:11448  .debug_macro:0000000000000000 .Ldebug_macro57
C:\Users\CYMR90~1\AppData\Local\Temp\ccYj4tTD.s:11537  .debug_macro:0000000000000000 .Ldebug_macro58
C:\Users\CYMR90~1\AppData\Local\Temp\ccYj4tTD.s:12352  .debug_macro:0000000000000000 .Ldebug_macro59
C:\Users\CYMR90~1\AppData\Local\Temp\ccYj4tTD.s:12543  .debug_macro:0000000000000000 .Ldebug_macro60
C:\Users\CYMR90~1\AppData\Local\Temp\ccYj4tTD.s:13046  .debug_macro:0000000000000000 .Ldebug_macro61
C:\Users\CYMR90~1\AppData\Local\Temp\ccYj4tTD.s:13192  .debug_macro:0000000000000000 .Ldebug_macro62
C:\Users\CYMR90~1\AppData\Local\Temp\ccYj4tTD.s:13722  .debug_macro:0000000000000000 .Ldebug_macro63
C:\Users\CYMR90~1\AppData\Local\Temp\ccYj4tTD.s:14144  .debug_macro:0000000000000000 .Ldebug_macro64
C:\Users\CYMR90~1\AppData\Local\Temp\ccYj4tTD.s:16918  .debug_macro:0000000000000000 .Ldebug_macro65
C:\Users\CYMR90~1\AppData\Local\Temp\ccYj4tTD.s:17994  .debug_macro:0000000000000000 .Ldebug_macro66
C:\Users\CYMR90~1\AppData\Local\Temp\ccYj4tTD.s:18266  .debug_macro:0000000000000000 .Ldebug_macro67
C:\Users\CYMR90~1\AppData\Local\Temp\ccYj4tTD.s:19294  .debug_macro:0000000000000000 .Ldebug_macro68
C:\Users\CYMR90~1\AppData\Local\Temp\ccYj4tTD.s:19338  .debug_macro:0000000000000000 .Ldebug_macro69
C:\Users\CYMR90~1\AppData\Local\Temp\ccYj4tTD.s:19964  .debug_macro:0000000000000000 .Ldebug_macro70
C:\Users\CYMR90~1\AppData\Local\Temp\ccYj4tTD.s:20023  .debug_macro:0000000000000000 .Ldebug_macro71
C:\Users\CYMR90~1\AppData\Local\Temp\ccYj4tTD.s:24667  .debug_str:000000000001158b .LASF5556
C:\Users\CYMR90~1\AppData\Local\Temp\ccYj4tTD.s:21669  .debug_str:0000000000005681 .LASF0
C:\Users\CYMR90~1\AppData\Local\Temp\ccYj4tTD.s:26036  .debug_str:0000000000017042 .LASF1
C:\Users\CYMR90~1\AppData\Local\Temp\ccYj4tTD.s:24301  .debug_str:000000000000ff36 .LASF2
C:\Users\CYMR90~1\AppData\Local\Temp\ccYj4tTD.s:24359  .debug_str:00000000000102b6 .LASF3
C:\Users\CYMR90~1\AppData\Local\Temp\ccYj4tTD.s:25649  .debug_str:0000000000015527 .LASF4
C:\Users\CYMR90~1\AppData\Local\Temp\ccYj4tTD.s:31176  .debug_str:000000000002b68c .LASF5
C:\Users\CYMR90~1\AppData\Local\Temp\ccYj4tTD.s:21899  .debug_str:000000000000646d .LASF6
C:\Users\CYMR90~1\AppData\Local\Temp\ccYj4tTD.s:30490  .debug_str:0000000000028c87 .LASF7
C:\Users\CYMR90~1\AppData\Local\Temp\ccYj4tTD.s:29442  .debug_str:00000000000246d0 .LASF8
C:\Users\CYMR90~1\AppData\Local\Temp\ccYj4tTD.s:27366  .debug_str:000000000001c548 .LASF9
C:\Users\CYMR90~1\AppData\Local\Temp\ccYj4tTD.s:26720  .debug_str:0000000000019c54 .LASF10
C:\Users\CYMR90~1\AppData\Local\Temp\ccYj4tTD.s:26576  .debug_str:00000000000192ab .LASF11
C:\Users\CYMR90~1\AppData\Local\Temp\ccYj4tTD.s:31018  .debug_str:000000000002ac75 .LASF12
C:\Users\CYMR90~1\AppData\Local\Temp\ccYj4tTD.s:26588  .debug_str:000000000001935f .LASF13
C:\Users\CYMR90~1\AppData\Local\Temp\ccYj4tTD.s:22909  .debug_str:000000000000a563 .LASF14
C:\Users\CYMR90~1\AppData\Local\Temp\ccYj4tTD.s:27940  .debug_str:000000000001eb12 .LASF15
C:\Users\CYMR90~1\AppData\Local\Temp\ccYj4tTD.s:28684  .debug_str:00000000000218d3 .LASF16
C:\Users\CYMR90~1\AppData\Local\Temp\ccYj4tTD.s:22955  .debug_str:000000000000a82f .LASF17
C:\Users\CYMR90~1\AppData\Local\Temp\ccYj4tTD.s:29724  .debug_str:0000000000025af3 .LASF18
C:\Users\CYMR90~1\AppData\Local\Temp\ccYj4tTD.s:23911  .debug_str:000000000000e71e .LASF19
C:\Users\CYMR90~1\AppData\Local\Temp\ccYj4tTD.s:20975  .debug_str:00000000000029e1 .LASF20
C:\Users\CYMR90~1\AppData\Local\Temp\ccYj4tTD.s:26386  .debug_str:00000000000185a7 .LASF21
C:\Users\CYMR90~1\AppData\Local\Temp\ccYj4tTD.s:26384  .debug_str:000000000001858d .LASF22
C:\Users\CYMR90~1\AppData\Local\Temp\ccYj4tTD.s:28998  .debug_str:0000000000022bd8 .LASF23
C:\Users\CYMR90~1\AppData\Local\Temp\ccYj4tTD.s:27316  .debug_str:000000000001c296 .LASF24
C:\Users\CYMR90~1\AppData\Local\Temp\ccYj4tTD.s:21207  .debug_str:00000000000038b5 .LASF25
C:\Users\CYMR90~1\AppData\Local\Temp\ccYj4tTD.s:25775  .debug_str:0000000000015d02 .LASF26
C:\Users\CYMR90~1\AppData\Local\Temp\ccYj4tTD.s:29002  .debug_str:0000000000022c04 .LASF27
C:\Users\CYMR90~1\AppData\Local\Temp\ccYj4tTD.s:28692  .debug_str:0000000000021930 .LASF28
C:\Users\CYMR90~1\AppData\Local\Temp\ccYj4tTD.s:21621  .debug_str:00000000000053af .LASF29
C:\Users\CYMR90~1\AppData\Local\Temp\ccYj4tTD.s:27722  .debug_str:000000000001dde2 .LASF30
C:\Users\CYMR90~1\AppData\Local\Temp\ccYj4tTD.s:20587  .debug_str:000000000000125c .LASF31
C:\Users\CYMR90~1\AppData\Local\Temp\ccYj4tTD.s:28176  .debug_str:000000000001f91f .LASF32
C:\Users\CYMR90~1\AppData\Local\Temp\ccYj4tTD.s:22791  .debug_str:0000000000009df0 .LASF33
C:\Users\CYMR90~1\AppData\Local\Temp\ccYj4tTD.s:22643  .debug_str:000000000000949f .LASF34
C:\Users\CYMR90~1\AppData\Local\Temp\ccYj4tTD.s:23943  .debug_str:000000000000e902 .LASF35
C:\Users\CYMR90~1\AppData\Local\Temp\ccYj4tTD.s:26832  .debug_str:000000000001a2bc .LASF36
C:\Users\CYMR90~1\AppData\Local\Temp\ccYj4tTD.s:22143  .debug_str:0000000000007453 .LASF37
C:\Users\CYMR90~1\AppData\Local\Temp\ccYj4tTD.s:24299  .debug_str:000000000000ff13 .LASF38
C:\Users\CYMR90~1\AppData\Local\Temp\ccYj4tTD.s:21169  .debug_str:0000000000003638 .LASF39
C:\Users\CYMR90~1\AppData\Local\Temp\ccYj4tTD.s:20967  .debug_str:000000000000294f .LASF40
C:\Users\CYMR90~1\AppData\Local\Temp\ccYj4tTD.s:24459  .debug_str:0000000000010865 .LASF41
C:\Users\CYMR90~1\AppData\Local\Temp\ccYj4tTD.s:24887  .debug_str:000000000001246e .LASF42
C:\Users\CYMR90~1\AppData\Local\Temp\ccYj4tTD.s:25149  .debug_str:0000000000013654 .LASF43
C:\Users\CYMR90~1\AppData\Local\Temp\ccYj4tTD.s:26822  .debug_str:000000000001a22a .LASF44
C:\Users\CYMR90~1\AppData\Local\Temp\ccYj4tTD.s:24747  .debug_str:0000000000011b9a .LASF45
C:\Users\CYMR90~1\AppData\Local\Temp\ccYj4tTD.s:21445  .debug_str:000000000000488b .LASF46
C:\Users\CYMR90~1\AppData\Local\Temp\ccYj4tTD.s:27728  .debug_str:000000000001de47 .LASF47
C:\Users\CYMR90~1\AppData\Local\Temp\ccYj4tTD.s:29444  .debug_str:00000000000246e5 .LASF48
C:\Users\CYMR90~1\AppData\Local\Temp\ccYj4tTD.s:23689  .debug_str:000000000000d97b .LASF49
C:\Users\CYMR90~1\AppData\Local\Temp\ccYj4tTD.s:20803  .debug_str:0000000000001fa8 .LASF50
C:\Users\CYMR90~1\AppData\Local\Temp\ccYj4tTD.s:20311  .debug_str:000000000000013d .LASF51
C:\Users\CYMR90~1\AppData\Local\Temp\ccYj4tTD.s:30790  .debug_str:0000000000029efd .LASF52
C:\Users\CYMR90~1\AppData\Local\Temp\ccYj4tTD.s:23503  .debug_str:000000000000cd8a .LASF53
C:\Users\CYMR90~1\AppData\Local\Temp\ccYj4tTD.s:25229  .debug_str:0000000000013b06 .LASF54
C:\Users\CYMR90~1\AppData\Local\Temp\ccYj4tTD.s:24263  .debug_str:000000000000fcc8 .LASF55
C:\Users\CYMR90~1\AppData\Local\Temp\ccYj4tTD.s:22229  .debug_str:0000000000007985 .LASF56
C:\Users\CYMR90~1\AppData\Local\Temp\ccYj4tTD.s:25627  .debug_str:00000000000153fc .LASF57
C:\Users\CYMR90~1\AppData\Local\Temp\ccYj4tTD.s:20541  .debug_str:0000000000000fc3 .LASF58
C:\Users\CYMR90~1\AppData\Local\Temp\ccYj4tTD.s:29728  .debug_str:0000000000025b33 .LASF59
C:\Users\CYMR90~1\AppData\Local\Temp\ccYj4tTD.s:25157  .debug_str:00000000000136af .LASF60
C:\Users\CYMR90~1\AppData\Local\Temp\ccYj4tTD.s:27102  .debug_str:000000000001b588 .LASF61
C:\Users\CYMR90~1\AppData\Local\Temp\ccYj4tTD.s:21035  .debug_str:0000000000002dbc .LASF62
C:\Users\CYMR90~1\AppData\Local\Temp\ccYj4tTD.s:23683  .debug_str:000000000000d937 .LASF63
C:\Users\CYMR90~1\AppData\Local\Temp\ccYj4tTD.s:23413  .debug_str:000000000000c752 .LASF64
C:\Users\CYMR90~1\AppData\Local\Temp\ccYj4tTD.s:26808  .debug_str:000000000001a161 .LASF65
C:\Users\CYMR90~1\AppData\Local\Temp\ccYj4tTD.s:25463  .debug_str:000000000001495a .LASF66
C:\Users\CYMR90~1\AppData\Local\Temp\ccYj4tTD.s:30564  .debug_str:0000000000029111 .LASF67
C:\Users\CYMR90~1\AppData\Local\Temp\ccYj4tTD.s:31020  .debug_str:000000000002ac88 .LASF68
C:\Users\CYMR90~1\AppData\Local\Temp\ccYj4tTD.s:24701  .debug_str:000000000001185d .LASF69
C:\Users\CYMR90~1\AppData\Local\Temp\ccYj4tTD.s:23839  .debug_str:000000000000e29a .LASF70
C:\Users\CYMR90~1\AppData\Local\Temp\ccYj4tTD.s:21457  .debug_str:00000000000049de .LASF71
C:\Users\CYMR90~1\AppData\Local\Temp\ccYj4tTD.s:24735  .debug_str:0000000000011ad7 .LASF72
C:\Users\CYMR90~1\AppData\Local\Temp\ccYj4tTD.s:24367  .debug_str:0000000000010327 .LASF73
C:\Users\CYMR90~1\AppData\Local\Temp\ccYj4tTD.s:24967  .debug_str:00000000000129e1 .LASF74
C:\Users\CYMR90~1\AppData\Local\Temp\ccYj4tTD.s:24807  .debug_str:0000000000011f50 .LASF75
C:\Users\CYMR90~1\AppData\Local\Temp\ccYj4tTD.s:24907  .debug_str:00000000000125cc .LASF76
C:\Users\CYMR90~1\AppData\Local\Temp\ccYj4tTD.s:29360  .debug_str:0000000000024154 .LASF77
C:\Users\CYMR90~1\AppData\Local\Temp\ccYj4tTD.s:27290  .debug_str:000000000001c101 .LASF78
C:\Users\CYMR90~1\AppData\Local\Temp\ccYj4tTD.s:27692  .debug_str:000000000001db9c .LASF79
C:\Users\CYMR90~1\AppData\Local\Temp\ccYj4tTD.s:30544  .debug_str:0000000000028fc2 .LASF80
C:\Users\CYMR90~1\AppData\Local\Temp\ccYj4tTD.s:22743  .debug_str:0000000000009b22 .LASF81
C:\Users\CYMR90~1\AppData\Local\Temp\ccYj4tTD.s:22941  .debug_str:000000000000a6fb .LASF82
C:\Users\CYMR90~1\AppData\Local\Temp\ccYj4tTD.s:30684  .debug_str:00000000000298f8 .LASF83
C:\Users\CYMR90~1\AppData\Local\Temp\ccYj4tTD.s:22683  .debug_str:0000000000009741 .LASF84
C:\Users\CYMR90~1\AppData\Local\Temp\ccYj4tTD.s:21963  .debug_str:00000000000067ef .LASF85
C:\Users\CYMR90~1\AppData\Local\Temp\ccYj4tTD.s:27010  .debug_str:000000000001af9e .LASF86
C:\Users\CYMR90~1\AppData\Local\Temp\ccYj4tTD.s:30712  .debug_str:0000000000029a5c .LASF87
C:\Users\CYMR90~1\AppData\Local\Temp\ccYj4tTD.s:28118  .debug_str:000000000001f5bb .LASF88
C:\Users\CYMR90~1\AppData\Local\Temp\ccYj4tTD.s:26926  .debug_str:000000000001aa47 .LASF89
C:\Users\CYMR90~1\AppData\Local\Temp\ccYj4tTD.s:28146  .debug_str:000000000001f763 .LASF90
C:\Users\CYMR90~1\AppData\Local\Temp\ccYj4tTD.s:30924  .debug_str:000000000002a6ec .LASF91
C:\Users\CYMR90~1\AppData\Local\Temp\ccYj4tTD.s:29736  .debug_str:0000000000025bab .LASF92
C:\Users\CYMR90~1\AppData\Local\Temp\ccYj4tTD.s:22819  .debug_str:0000000000009fc9 .LASF93
C:\Users\CYMR90~1\AppData\Local\Temp\ccYj4tTD.s:27570  .debug_str:000000000001d3c4 .LASF94
C:\Users\CYMR90~1\AppData\Local\Temp\ccYj4tTD.s:25187  .debug_str:0000000000013889 .LASF95
C:\Users\CYMR90~1\AppData\Local\Temp\ccYj4tTD.s:25169  .debug_str:0000000000013778 .LASF96
C:\Users\CYMR90~1\AppData\Local\Temp\ccYj4tTD.s:31224  .debug_str:000000000002b9b3 .LASF97
C:\Users\CYMR90~1\AppData\Local\Temp\ccYj4tTD.s:24821  .debug_str:0000000000012053 .LASF98
C:\Users\CYMR90~1\AppData\Local\Temp\ccYj4tTD.s:28710  .debug_str:0000000000021a57 .LASF99
C:\Users\CYMR90~1\AppData\Local\Temp\ccYj4tTD.s:22177  .debug_str:0000000000007650 .LASF100
C:\Users\CYMR90~1\AppData\Local\Temp\ccYj4tTD.s:24313  .debug_str:000000000000ffc1 .LASF101
C:\Users\CYMR90~1\AppData\Local\Temp\ccYj4tTD.s:25691  .debug_str:000000000001577e .LASF102
C:\Users\CYMR90~1\AppData\Local\Temp\ccYj4tTD.s:24587  .debug_str:0000000000011071 .LASF103
C:\Users\CYMR90~1\AppData\Local\Temp\ccYj4tTD.s:23599  .debug_str:000000000000d3a6 .LASF104
C:\Users\CYMR90~1\AppData\Local\Temp\ccYj4tTD.s:24757  .debug_str:0000000000011c31 .LASF105
C:\Users\CYMR90~1\AppData\Local\Temp\ccYj4tTD.s:27390  .debug_str:000000000001c6ea .LASF106
C:\Users\CYMR90~1\AppData\Local\Temp\ccYj4tTD.s:24581  .debug_str:000000000001100c .LASF107
C:\Users\CYMR90~1\AppData\Local\Temp\ccYj4tTD.s:23595  .debug_str:000000000000d382 .LASF108
C:\Users\CYMR90~1\AppData\Local\Temp\ccYj4tTD.s:25021  .debug_str:0000000000012d4a .LASF109
C:\Users\CYMR90~1\AppData\Local\Temp\ccYj4tTD.s:23969  .debug_str:000000000000eabc .LASF110
C:\Users\CYMR90~1\AppData\Local\Temp\ccYj4tTD.s:26440  .debug_str:00000000000188c8 .LASF111
C:\Users\CYMR90~1\AppData\Local\Temp\ccYj4tTD.s:23077  .debug_str:000000000000b14a .LASF112
C:\Users\CYMR90~1\AppData\Local\Temp\ccYj4tTD.s:22817  .debug_str:0000000000009fa0 .LASF113
C:\Users\CYMR90~1\AppData\Local\Temp\ccYj4tTD.s:25725  .debug_str:00000000000159a3 .LASF114
C:\Users\CYMR90~1\AppData\Local\Temp\ccYj4tTD.s:30606  .debug_str:00000000000293f4 .LASF115
C:\Users\CYMR90~1\AppData\Local\Temp\ccYj4tTD.s:29248  .debug_str:0000000000023a6d .LASF116
C:\Users\CYMR90~1\AppData\Local\Temp\ccYj4tTD.s:22577  .debug_str:00000000000090cc .LASF117
C:\Users\CYMR90~1\AppData\Local\Temp\ccYj4tTD.s:27160  .debug_str:000000000001b8ff .LASF118
C:\Users\CYMR90~1\AppData\Local\Temp\ccYj4tTD.s:31336  .debug_str:000000000002c10c .LASF119
C:\Users\CYMR90~1\AppData\Local\Temp\ccYj4tTD.s:23885  .debug_str:000000000000e533 .LASF120
C:\Users\CYMR90~1\AppData\Local\Temp\ccYj4tTD.s:29344  .debug_str:0000000000023fa9 .LASF121
C:\Users\CYMR90~1\AppData\Local\Temp\ccYj4tTD.s:23375  .debug_str:000000000000c4eb .LASF122
C:\Users\CYMR90~1\AppData\Local\Temp\ccYj4tTD.s:23487  .debug_str:000000000000cc9c .LASF123
C:\Users\CYMR90~1\AppData\Local\Temp\ccYj4tTD.s:21139  .debug_str:000000000000346f .LASF124
C:\Users\CYMR90~1\AppData\Local\Temp\ccYj4tTD.s:21421  .debug_str:00000000000046d5 .LASF125
C:\Users\CYMR90~1\AppData\Local\Temp\ccYj4tTD.s:30280  .debug_str:0000000000027dee .LASF126
C:\Users\CYMR90~1\AppData\Local\Temp\ccYj4tTD.s:24763  .debug_str:0000000000011c54 .LASF127
C:\Users\CYMR90~1\AppData\Local\Temp\ccYj4tTD.s:27546  .debug_str:000000000001d266 .LASF128
C:\Users\CYMR90~1\AppData\Local\Temp\ccYj4tTD.s:22651  .debug_str:0000000000009517 .LASF129
C:\Users\CYMR90~1\AppData\Local\Temp\ccYj4tTD.s:29852  .debug_str:00000000000262d6 .LASF130
C:\Users\CYMR90~1\AppData\Local\Temp\ccYj4tTD.s:30162  .debug_str:0000000000027660 .LASF131
C:\Users\CYMR90~1\AppData\Local\Temp\ccYj4tTD.s:29968  .debug_str:00000000000269d2 .LASF132
C:\Users\CYMR90~1\AppData\Local\Temp\ccYj4tTD.s:23861  .debug_str:000000000000e3cd .LASF133
C:\Users\CYMR90~1\AppData\Local\Temp\ccYj4tTD.s:29264  .debug_str:0000000000023b51 .LASF134
C:\Users\CYMR90~1\AppData\Local\Temp\ccYj4tTD.s:21413  .debug_str:0000000000004656 .LASF135
C:\Users\CYMR90~1\AppData\Local\Temp\ccYj4tTD.s:22277  .debug_str:0000000000007c9e .LASF136
C:\Users\CYMR90~1\AppData\Local\Temp\ccYj4tTD.s:31012  .debug_str:000000000002ac33 .LASF137
C:\Users\CYMR90~1\AppData\Local\Temp\ccYj4tTD.s:29102  .debug_str:000000000002314f .LASF138
C:\Users\CYMR90~1\AppData\Local\Temp\ccYj4tTD.s:30488  .debug_str:0000000000028c77 .LASF139
C:\Users\CYMR90~1\AppData\Local\Temp\ccYj4tTD.s:29620  .debug_str:000000000002537a .LASF140
C:\Users\CYMR90~1\AppData\Local\Temp\ccYj4tTD.s:27248  .debug_str:000000000001be57 .LASF141
C:\Users\CYMR90~1\AppData\Local\Temp\ccYj4tTD.s:22781  .debug_str:0000000000009d4f .LASF142
C:\Users\CYMR90~1\AppData\Local\Temp\ccYj4tTD.s:31084  .debug_str:000000000002b058 .LASF143
C:\Users\CYMR90~1\AppData\Local\Temp\ccYj4tTD.s:26410  .debug_str:000000000001870e .LASF144
C:\Users\CYMR90~1\AppData\Local\Temp\ccYj4tTD.s:25475  .debug_str:0000000000014a3f .LASF145
C:\Users\CYMR90~1\AppData\Local\Temp\ccYj4tTD.s:23447  .debug_str:000000000000ca2e .LASF146
C:\Users\CYMR90~1\AppData\Local\Temp\ccYj4tTD.s:21455  .debug_str:00000000000049c7 .LASF147
C:\Users\CYMR90~1\AppData\Local\Temp\ccYj4tTD.s:24011  .debug_str:000000000000ed3e .LASF148
C:\Users\CYMR90~1\AppData\Local\Temp\ccYj4tTD.s:26388  .debug_str:00000000000185bb .LASF149
C:\Users\CYMR90~1\AppData\Local\Temp\ccYj4tTD.s:20389  .debug_str:00000000000005f9 .LASF150
C:\Users\CYMR90~1\AppData\Local\Temp\ccYj4tTD.s:28694  .debug_str:000000000002194a .LASF151
C:\Users\CYMR90~1\AppData\Local\Temp\ccYj4tTD.s:25011  .debug_str:0000000000012c96 .LASF152
C:\Users\CYMR90~1\AppData\Local\Temp\ccYj4tTD.s:29626  .debug_str:00000000000253cd .LASF153
C:\Users\CYMR90~1\AppData\Local\Temp\ccYj4tTD.s:27450  .debug_str:000000000001cb1b .LASF154
C:\Users\CYMR90~1\AppData\Local\Temp\ccYj4tTD.s:24421  .debug_str:000000000001063b .LASF155
C:\Users\CYMR90~1\AppData\Local\Temp\ccYj4tTD.s:27462  .debug_str:000000000001cbfa .LASF156
C:\Users\CYMR90~1\AppData\Local\Temp\ccYj4tTD.s:27576  .debug_str:000000000001d42c .LASF157
C:\Users\CYMR90~1\AppData\Local\Temp\ccYj4tTD.s:23305  .debug_str:000000000000c09e .LASF158
C:\Users\CYMR90~1\AppData\Local\Temp\ccYj4tTD.s:22379  .debug_str:0000000000008490 .LASF159
C:\Users\CYMR90~1\AppData\Local\Temp\ccYj4tTD.s:27108  .debug_str:000000000001b5dc .LASF160
C:\Users\CYMR90~1\AppData\Local\Temp\ccYj4tTD.s:28520  .debug_str:0000000000020e90 .LASF161
C:\Users\CYMR90~1\AppData\Local\Temp\ccYj4tTD.s:26712  .debug_str:0000000000019bc2 .LASF162
C:\Users\CYMR90~1\AppData\Local\Temp\ccYj4tTD.s:29256  .debug_str:0000000000023adf .LASF163
C:\Users\CYMR90~1\AppData\Local\Temp\ccYj4tTD.s:30910  .debug_str:000000000002a61e .LASF164
C:\Users\CYMR90~1\AppData\Local\Temp\ccYj4tTD.s:22133  .debug_str:00000000000073cf .LASF165
C:\Users\CYMR90~1\AppData\Local\Temp\ccYj4tTD.s:30594  .debug_str:00000000000292c5 .LASF166
C:\Users\CYMR90~1\AppData\Local\Temp\ccYj4tTD.s:30412  .debug_str:00000000000287cc .LASF167
C:\Users\CYMR90~1\AppData\Local\Temp\ccYj4tTD.s:29174  .debug_str:00000000000235aa .LASF168
C:\Users\CYMR90~1\AppData\Local\Temp\ccYj4tTD.s:26172  .debug_str:0000000000017862 .LASF169
C:\Users\CYMR90~1\AppData\Local\Temp\ccYj4tTD.s:30030  .debug_str:0000000000026d8e .LASF170
C:\Users\CYMR90~1\AppData\Local\Temp\ccYj4tTD.s:25801  .debug_str:0000000000015e9f .LASF171
C:\Users\CYMR90~1\AppData\Local\Temp\ccYj4tTD.s:27372  .debug_str:000000000001c5a7 .LASF172
C:\Users\CYMR90~1\AppData\Local\Temp\ccYj4tTD.s:22773  .debug_str:0000000000009cdb .LASF173
C:\Users\CYMR90~1\AppData\Local\Temp\ccYj4tTD.s:29064  .debug_str:0000000000022f7a .LASF174
C:\Users\CYMR90~1\AppData\Local\Temp\ccYj4tTD.s:21795  .debug_str:0000000000005e0d .LASF175
C:\Users\CYMR90~1\AppData\Local\Temp\ccYj4tTD.s:22619  .debug_str:000000000000934b .LASF176
C:\Users\CYMR90~1\AppData\Local\Temp\ccYj4tTD.s:21287  .debug_str:0000000000003dc8 .LASF177
C:\Users\CYMR90~1\AppData\Local\Temp\ccYj4tTD.s:26584  .debug_str:000000000001931d .LASF178
C:\Users\CYMR90~1\AppData\Local\Temp\ccYj4tTD.s:23541  .debug_str:000000000000cff7 .LASF179
C:\Users\CYMR90~1\AppData\Local\Temp\ccYj4tTD.s:20797  .debug_str:0000000000001f3c .LASF180
C:\Users\CYMR90~1\AppData\Local\Temp\ccYj4tTD.s:31220  .debug_str:000000000002b988 .LASF181
C:\Users\CYMR90~1\AppData\Local\Temp\ccYj4tTD.s:20571  .debug_str:000000000000118b .LASF182
C:\Users\CYMR90~1\AppData\Local\Temp\ccYj4tTD.s:25127  .debug_str:00000000000134c9 .LASF183
C:\Users\CYMR90~1\AppData\Local\Temp\ccYj4tTD.s:25539  .debug_str:0000000000014e76 .LASF184
C:\Users\CYMR90~1\AppData\Local\Temp\ccYj4tTD.s:30422  .debug_str:000000000002887b .LASF185
C:\Users\CYMR90~1\AppData\Local\Temp\ccYj4tTD.s:23639  .debug_str:000000000000d6d4 .LASF186
C:\Users\CYMR90~1\AppData\Local\Temp\ccYj4tTD.s:22117  .debug_str:000000000000726e .LASF187
C:\Users\CYMR90~1\AppData\Local\Temp\ccYj4tTD.s:28096  .debug_str:000000000001f4a1 .LASF188
C:\Users\CYMR90~1\AppData\Local\Temp\ccYj4tTD.s:23905  .debug_str:000000000000e6c4 .LASF189
C:\Users\CYMR90~1\AppData\Local\Temp\ccYj4tTD.s:25235  .debug_str:0000000000013b65 .LASF190
C:\Users\CYMR90~1\AppData\Local\Temp\ccYj4tTD.s:28578  .debug_str:00000000000211c5 .LASF191
C:\Users\CYMR90~1\AppData\Local\Temp\ccYj4tTD.s:25961  .debug_str:000000000001696e .LASF192
C:\Users\CYMR90~1\AppData\Local\Temp\ccYj4tTD.s:28812  .debug_str:000000000002207f .LASF193
C:\Users\CYMR90~1\AppData\Local\Temp\ccYj4tTD.s:21749  .debug_str:0000000000005b64 .LASF194
C:\Users\CYMR90~1\AppData\Local\Temp\ccYj4tTD.s:21109  .debug_str:0000000000003263 .LASF195
C:\Users\CYMR90~1\AppData\Local\Temp\ccYj4tTD.s:23735  .debug_str:000000000000dc19 .LASF196
C:\Users\CYMR90~1\AppData\Local\Temp\ccYj4tTD.s:24643  .debug_str:00000000000113fa .LASF197
C:\Users\CYMR90~1\AppData\Local\Temp\ccYj4tTD.s:21605  .debug_str:00000000000052a4 .LASF198
C:\Users\CYMR90~1\AppData\Local\Temp\ccYj4tTD.s:30312  .debug_str:0000000000028035 .LASF199
C:\Users\CYMR90~1\AppData\Local\Temp\ccYj4tTD.s:28462  .debug_str:0000000000020b11 .LASF200
C:\Users\CYMR90~1\AppData\Local\Temp\ccYj4tTD.s:27584  .debug_str:000000000001d48a .LASF201
C:\Users\CYMR90~1\AppData\Local\Temp\ccYj4tTD.s:22747  .debug_str:0000000000009b55 .LASF202
C:\Users\CYMR90~1\AppData\Local\Temp\ccYj4tTD.s:30770  .debug_str:0000000000029dd7 .LASF203
C:\Users\CYMR90~1\AppData\Local\Temp\ccYj4tTD.s:21121  .debug_str:0000000000003334 .LASF204
C:\Users\CYMR90~1\AppData\Local\Temp\ccYj4tTD.s:24141  .debug_str:000000000000f4db .LASF205
C:\Users\CYMR90~1\AppData\Local\Temp\ccYj4tTD.s:30498  .debug_str:0000000000028ce8 .LASF206
C:\Users\CYMR90~1\AppData\Local\Temp\ccYj4tTD.s:25353  .debug_str:00000000000142c8 .LASF207
C:\Users\CYMR90~1\AppData\Local\Temp\ccYj4tTD.s:28134  .debug_str:000000000001f6c1 .LASF208
C:\Users\CYMR90~1\AppData\Local\Temp\ccYj4tTD.s:23369  .debug_str:000000000000c49a .LASF209
C:\Users\CYMR90~1\AppData\Local\Temp\ccYj4tTD.s:31434  .debug_str:000000000002c736 .LASF210
C:\Users\CYMR90~1\AppData\Local\Temp\ccYj4tTD.s:25325  .debug_str:0000000000014120 .LASF211
C:\Users\CYMR90~1\AppData\Local\Temp\ccYj4tTD.s:27978  .debug_str:000000000001ed2f .LASF212
C:\Users\CYMR90~1\AppData\Local\Temp\ccYj4tTD.s:26604  .debug_str:000000000001944b .LASF213
C:\Users\CYMR90~1\AppData\Local\Temp\ccYj4tTD.s:21835  .debug_str:0000000000006059 .LASF214
C:\Users\CYMR90~1\AppData\Local\Temp\ccYj4tTD.s:25333  .debug_str:0000000000014190 .LASF215
C:\Users\CYMR90~1\AppData\Local\Temp\ccYj4tTD.s:27286  .debug_str:000000000001c0b1 .LASF216
C:\Users\CYMR90~1\AppData\Local\Temp\ccYj4tTD.s:28244  .debug_str:000000000001fd57 .LASF217
C:\Users\CYMR90~1\AppData\Local\Temp\ccYj4tTD.s:24215  .debug_str:000000000000f9c2 .LASF218
C:\Users\CYMR90~1\AppData\Local\Temp\ccYj4tTD.s:29628  .debug_str:0000000000025409 .LASF219
C:\Users\CYMR90~1\AppData\Local\Temp\ccYj4tTD.s:29436  .debug_str:000000000002466c .LASF220
C:\Users\CYMR90~1\AppData\Local\Temp\ccYj4tTD.s:28958  .debug_str:000000000002290c .LASF221
C:\Users\CYMR90~1\AppData\Local\Temp\ccYj4tTD.s:25613  .debug_str:000000000001534b .LASF222
C:\Users\CYMR90~1\AppData\Local\Temp\ccYj4tTD.s:21805  .debug_str:0000000000005e8f .LASF223
C:\Users\CYMR90~1\AppData\Local\Temp\ccYj4tTD.s:22479  .debug_str:0000000000008aa6 .LASF224
C:\Users\CYMR90~1\AppData\Local\Temp\ccYj4tTD.s:31094  .debug_str:000000000002b0dc .LASF225
C:\Users\CYMR90~1\AppData\Local\Temp\ccYj4tTD.s:23803  .debug_str:000000000000e081 .LASF226
C:\Users\CYMR90~1\AppData\Local\Temp\ccYj4tTD.s:27446  .debug_str:000000000001caed .LASF227
C:\Users\CYMR90~1\AppData\Local\Temp\ccYj4tTD.s:27296  .debug_str:000000000001c157 .LASF228
C:\Users\CYMR90~1\AppData\Local\Temp\ccYj4tTD.s:23749  .debug_str:000000000000dcf6 .LASF229
C:\Users\CYMR90~1\AppData\Local\Temp\ccYj4tTD.s:28018  .debug_str:000000000001ef9a .LASF230
C:\Users\CYMR90~1\AppData\Local\Temp\ccYj4tTD.s:22533  .debug_str:0000000000008e21 .LASF231
C:\Users\CYMR90~1\AppData\Local\Temp\ccYj4tTD.s:21847  .debug_str:000000000000612e .LASF232
C:\Users\CYMR90~1\AppData\Local\Temp\ccYj4tTD.s:22431  .debug_str:000000000000877c .LASF233
C:\Users\CYMR90~1\AppData\Local\Temp\ccYj4tTD.s:24413  .debug_str:00000000000105b8 .LASF234
C:\Users\CYMR90~1\AppData\Local\Temp\ccYj4tTD.s:24137  .debug_str:000000000000f493 .LASF235
C:\Users\CYMR90~1\AppData\Local\Temp\ccYj4tTD.s:29182  .debug_str:0000000000023656 .LASF236
C:\Users\CYMR90~1\AppData\Local\Temp\ccYj4tTD.s:24159  .debug_str:000000000000f5e4 .LASF237
C:\Users\CYMR90~1\AppData\Local\Temp\ccYj4tTD.s:29848  .debug_str:000000000002629a .LASF238
C:\Users\CYMR90~1\AppData\Local\Temp\ccYj4tTD.s:29164  .debug_str:000000000002350e .LASF239
C:\Users\CYMR90~1\AppData\Local\Temp\ccYj4tTD.s:29402  .debug_str:000000000002445c .LASF240
C:\Users\CYMR90~1\AppData\Local\Temp\ccYj4tTD.s:22243  .debug_str:0000000000007a9b .LASF241
C:\Users\CYMR90~1\AppData\Local\Temp\ccYj4tTD.s:23825  .debug_str:000000000000e1b9 .LASF242
C:\Users\CYMR90~1\AppData\Local\Temp\ccYj4tTD.s:24803  .debug_str:0000000000011ee8 .LASF243
C:\Users\CYMR90~1\AppData\Local\Temp\ccYj4tTD.s:29194  .debug_str:0000000000023700 .LASF244
C:\Users\CYMR90~1\AppData\Local\Temp\ccYj4tTD.s:24995  .debug_str:0000000000012b76 .LASF245
C:\Users\CYMR90~1\AppData\Local\Temp\ccYj4tTD.s:28030  .debug_str:000000000001f07f .LASF246
C:\Users\CYMR90~1\AppData\Local\Temp\ccYj4tTD.s:26372  .debug_str:00000000000184a7 .LASF247
C:\Users\CYMR90~1\AppData\Local\Temp\ccYj4tTD.s:25891  .debug_str:0000000000016459 .LASF248
C:\Users\CYMR90~1\AppData\Local\Temp\ccYj4tTD.s:27386  .debug_str:000000000001c6ba .LASF249
C:\Users\CYMR90~1\AppData\Local\Temp\ccYj4tTD.s:26770  .debug_str:0000000000019f28 .LASF250
C:\Users\CYMR90~1\AppData\Local\Temp\ccYj4tTD.s:27318  .debug_str:000000000001c2a5 .LASF251
C:\Users\CYMR90~1\AppData\Local\Temp\ccYj4tTD.s:29010  .debug_str:0000000000022c89 .LASF252
C:\Users\CYMR90~1\AppData\Local\Temp\ccYj4tTD.s:23717  .debug_str:000000000000db34 .LASF253
C:\Users\CYMR90~1\AppData\Local\Temp\ccYj4tTD.s:29700  .debug_str:0000000000025983 .LASF254
C:\Users\CYMR90~1\AppData\Local\Temp\ccYj4tTD.s:23581  .debug_str:000000000000d278 .LASF255
C:\Users\CYMR90~1\AppData\Local\Temp\ccYj4tTD.s:26676  .debug_str:0000000000019971 .LASF256
C:\Users\CYMR90~1\AppData\Local\Temp\ccYj4tTD.s:23821  .debug_str:000000000000e187 .LASF257
C:\Users\CYMR90~1\AppData\Local\Temp\ccYj4tTD.s:27964  .debug_str:000000000001ec4a .LASF258
C:\Users\CYMR90~1\AppData\Local\Temp\ccYj4tTD.s:23039  .debug_str:000000000000ae21 .LASF259
C:\Users\CYMR90~1\AppData\Local\Temp\ccYj4tTD.s:20463  .debug_str:0000000000000a93 .LASF260
C:\Users\CYMR90~1\AppData\Local\Temp\ccYj4tTD.s:30828  .debug_str:000000000002a136 .LASF261
C:\Users\CYMR90~1\AppData\Local\Temp\ccYj4tTD.s:30292  .debug_str:0000000000027e94 .LASF262
C:\Users\CYMR90~1\AppData\Local\Temp\ccYj4tTD.s:25305  .debug_str:0000000000013fa2 .LASF263
C:\Users\CYMR90~1\AppData\Local\Temp\ccYj4tTD.s:27270  .debug_str:000000000001bfc4 .LASF264
C:\Users\CYMR90~1\AppData\Local\Temp\ccYj4tTD.s:24267  .debug_str:000000000000fd0f .LASF265
C:\Users\CYMR90~1\AppData\Local\Temp\ccYj4tTD.s:23751  .debug_str:000000000000dd37 .LASF266
C:\Users\CYMR90~1\AppData\Local\Temp\ccYj4tTD.s:23089  .debug_str:000000000000b20f .LASF267
C:\Users\CYMR90~1\AppData\Local\Temp\ccYj4tTD.s:27374  .debug_str:000000000001c5bc .LASF268
C:\Users\CYMR90~1\AppData\Local\Temp\ccYj4tTD.s:23393  .debug_str:000000000000c62d .LASF269
C:\Users\CYMR90~1\AppData\Local\Temp\ccYj4tTD.s:24333  .debug_str:000000000001012e .LASF270
C:\Users\CYMR90~1\AppData\Local\Temp\ccYj4tTD.s:25585  .debug_str:0000000000015163 .LASF271
C:\Users\CYMR90~1\AppData\Local\Temp\ccYj4tTD.s:29948  .debug_str:00000000000268c1 .LASF272
C:\Users\CYMR90~1\AppData\Local\Temp\ccYj4tTD.s:22007  .debug_str:0000000000006a8e .LASF273
C:\Users\CYMR90~1\AppData\Local\Temp\ccYj4tTD.s:20917  .debug_str:00000000000025c6 .LASF274
C:\Users\CYMR90~1\AppData\Local\Temp\ccYj4tTD.s:22101  .debug_str:0000000000007157 .LASF275
C:\Users\CYMR90~1\AppData\Local\Temp\ccYj4tTD.s:23455  .debug_str:000000000000ca91 .LASF276
C:\Users\CYMR90~1\AppData\Local\Temp\ccYj4tTD.s:23289  .debug_str:000000000000bf97 .LASF277
C:\Users\CYMR90~1\AppData\Local\Temp\ccYj4tTD.s:20597  .debug_str:00000000000012d0 .LASF278
C:\Users\CYMR90~1\AppData\Local\Temp\ccYj4tTD.s:21931  .debug_str:0000000000006626 .LASF279
C:\Users\CYMR90~1\AppData\Local\Temp\ccYj4tTD.s:30622  .debug_str:00000000000294dd .LASF280
C:\Users\CYMR90~1\AppData\Local\Temp\ccYj4tTD.s:22795  .debug_str:0000000000009e28 .LASF281
C:\Users\CYMR90~1\AppData\Local\Temp\ccYj4tTD.s:21895  .debug_str:0000000000006430 .LASF282
C:\Users\CYMR90~1\AppData\Local\Temp\ccYj4tTD.s:21799  .debug_str:0000000000005e3d .LASF283
C:\Users\CYMR90~1\AppData\Local\Temp\ccYj4tTD.s:21559  .debug_str:0000000000005004 .LASF284
C:\Users\CYMR90~1\AppData\Local\Temp\ccYj4tTD.s:29504  .debug_str:0000000000024b06 .LASF285
C:\Users\CYMR90~1\AppData\Local\Temp\ccYj4tTD.s:30324  .debug_str:000000000002812b .LASF286
C:\Users\CYMR90~1\AppData\Local\Temp\ccYj4tTD.s:30602  .debug_str:0000000000029322 .LASF287
C:\Users\CYMR90~1\AppData\Local\Temp\ccYj4tTD.s:30514  .debug_str:0000000000028dd1 .LASF288
C:\Users\CYMR90~1\AppData\Local\Temp\ccYj4tTD.s:31364  .debug_str:000000000002c2a7 .LASF289
C:\Users\CYMR90~1\AppData\Local\Temp\ccYj4tTD.s:26316  .debug_str:0000000000018142 .LASF290
C:\Users\CYMR90~1\AppData\Local\Temp\ccYj4tTD.s:25357  .debug_str:00000000000142ee .LASF291
C:\Users\CYMR90~1\AppData\Local\Temp\ccYj4tTD.s:24285  .debug_str:000000000000fe29 .LASF292
C:\Users\CYMR90~1\AppData\Local\Temp\ccYj4tTD.s:21201  .debug_str:000000000000384d .LASF293
C:\Users\CYMR90~1\AppData\Local\Temp\ccYj4tTD.s:28474  .debug_str:0000000000020bd9 .LASF294
C:\Users\CYMR90~1\AppData\Local\Temp\ccYj4tTD.s:21481  .debug_str:0000000000004b3f .LASF295
C:\Users\CYMR90~1\AppData\Local\Temp\ccYj4tTD.s:30952  .debug_str:000000000002a8a7 .LASF296
C:\Users\CYMR90~1\AppData\Local\Temp\ccYj4tTD.s:31142  .debug_str:000000000002b422 .LASF297
C:\Users\CYMR90~1\AppData\Local\Temp\ccYj4tTD.s:26192  .debug_str:00000000000179db .LASF298
C:\Users\CYMR90~1\AppData\Local\Temp\ccYj4tTD.s:20447  .debug_str:000000000000098d .LASF299
C:\Users\CYMR90~1\AppData\Local\Temp\ccYj4tTD.s:24235  .debug_str:000000000000fb03 .LASF300
C:\Users\CYMR90~1\AppData\Local\Temp\ccYj4tTD.s:26950  .debug_str:000000000001abbf .LASF301
C:\Users\CYMR90~1\AppData\Local\Temp\ccYj4tTD.s:25469  .debug_str:00000000000149b1 .LASF302
C:\Users\CYMR90~1\AppData\Local\Temp\ccYj4tTD.s:24943  .debug_str:0000000000012833 .LASF303
C:\Users\CYMR90~1\AppData\Local\Temp\ccYj4tTD.s:20837  .debug_str:0000000000002146 .LASF304
C:\Users\CYMR90~1\AppData\Local\Temp\ccYj4tTD.s:23401  .debug_str:000000000000c6b1 .LASF305
C:\Users\CYMR90~1\AppData\Local\Temp\ccYj4tTD.s:28676  .debug_str:000000000002186d .LASF306
C:\Users\CYMR90~1\AppData\Local\Temp\ccYj4tTD.s:24253  .debug_str:000000000000fc30 .LASF307
C:\Users\CYMR90~1\AppData\Local\Temp\ccYj4tTD.s:29524  .debug_str:0000000000024c5c .LASF308
C:\Users\CYMR90~1\AppData\Local\Temp\ccYj4tTD.s:29130  .debug_str:0000000000023306 .LASF309
C:\Users\CYMR90~1\AppData\Local\Temp\ccYj4tTD.s:23805  .debug_str:000000000000e09a .LASF310
C:\Users\CYMR90~1\AppData\Local\Temp\ccYj4tTD.s:29844  .debug_str:000000000002626f .LASF311
C:\Users\CYMR90~1\AppData\Local\Temp\ccYj4tTD.s:29354  .debug_str:000000000002411d .LASF312
C:\Users\CYMR90~1\AppData\Local\Temp\ccYj4tTD.s:23523  .debug_str:000000000000cea8 .LASF313
C:\Users\CYMR90~1\AppData\Local\Temp\ccYj4tTD.s:26460  .debug_str:0000000000018a3d .LASF316
C:\Users\CYMR90~1\AppData\Local\Temp\ccYj4tTD.s:26824  .debug_str:000000000001a247 .LASF317
C:\Users\CYMR90~1\AppData\Local\Temp\ccYj4tTD.s:27166  .debug_str:000000000001b93d .LASF318
C:\Users\CYMR90~1\AppData\Local\Temp\ccYj4tTD.s:24243  .debug_str:000000000000fba0 .LASF319
C:\Users\CYMR90~1\AppData\Local\Temp\ccYj4tTD.s:23159  .debug_str:000000000000b695 .LASF320
C:\Users\CYMR90~1\AppData\Local\Temp\ccYj4tTD.s:30562  .debug_str:0000000000029105 .LASF321
C:\Users\CYMR90~1\AppData\Local\Temp\ccYj4tTD.s:23715  .debug_str:000000000000db27 .LASF322
C:\Users\CYMR90~1\AppData\Local\Temp\ccYj4tTD.s:25419  .debug_str:00000000000146f4 .LASF323
C:\Users\CYMR90~1\AppData\Local\Temp\ccYj4tTD.s:20327  .debug_str:0000000000000238 .LASF324
C:\Users\CYMR90~1\AppData\Local\Temp\ccYj4tTD.s:30976  .debug_str:000000000002aa08 .LASF325
C:\Users\CYMR90~1\AppData\Local\Temp\ccYj4tTD.s:21259  .debug_str:0000000000003bed .LASF326
C:\Users\CYMR90~1\AppData\Local\Temp\ccYj4tTD.s:25293  .debug_str:0000000000013ee5 .LASF327
C:\Users\CYMR90~1\AppData\Local\Temp\ccYj4tTD.s:24945  .debug_str:0000000000012848 .LASF328
C:\Users\CYMR90~1\AppData\Local\Temp\ccYj4tTD.s:27818  .debug_str:000000000001e397 .LASF329
C:\Users\CYMR90~1\AppData\Local\Temp\ccYj4tTD.s:27810  .debug_str:000000000001e346 .LASF330
C:\Users\CYMR90~1\AppData\Local\Temp\ccYj4tTD.s:29990  .debug_str:0000000000026b4f .LASF331
C:\Users\CYMR90~1\AppData\Local\Temp\ccYj4tTD.s:30542  .debug_str:0000000000028fb3 .LASF332
C:\Users\CYMR90~1\AppData\Local\Temp\ccYj4tTD.s:30734  .debug_str:0000000000029bb0 .LASF333
C:\Users\CYMR90~1\AppData\Local\Temp\ccYj4tTD.s:26798  .debug_str:000000000001a0cc .LASF334
C:\Users\CYMR90~1\AppData\Local\Temp\ccYj4tTD.s:26240  .debug_str:0000000000017cba .LASF335
C:\Users\CYMR90~1\AppData\Local\Temp\ccYj4tTD.s:30582  .debug_str:000000000002921f .LASF336
C:\Users\CYMR90~1\AppData\Local\Temp\ccYj4tTD.s:24869  .debug_str:0000000000012350 .LASF337
C:\Users\CYMR90~1\AppData\Local\Temp\ccYj4tTD.s:28528  .debug_str:0000000000020efc .LASF338
C:\Users\CYMR90~1\AppData\Local\Temp\ccYj4tTD.s:22913  .debug_str:000000000000a58c .LASF339
C:\Users\CYMR90~1\AppData\Local\Temp\ccYj4tTD.s:25081  .debug_str:0000000000013155 .LASF340
C:\Users\CYMR90~1\AppData\Local\Temp\ccYj4tTD.s:27002  .debug_str:000000000001aee7 .LASF341
C:\Users\CYMR90~1\AppData\Local\Temp\ccYj4tTD.s:23221  .debug_str:000000000000babb .LASF342
C:\Users\CYMR90~1\AppData\Local\Temp\ccYj4tTD.s:20579  .debug_str:00000000000011fc .LASF343
C:\Users\CYMR90~1\AppData\Local\Temp\ccYj4tTD.s:30702  .debug_str:00000000000299cb .LASF344
C:\Users\CYMR90~1\AppData\Local\Temp\ccYj4tTD.s:31304  .debug_str:000000000002bed0 .LASF345
C:\Users\CYMR90~1\AppData\Local\Temp\ccYj4tTD.s:24127  .debug_str:000000000000f40b .LASF346
C:\Users\CYMR90~1\AppData\Local\Temp\ccYj4tTD.s:20435  .debug_str:00000000000008d6 .LASF347
C:\Users\CYMR90~1\AppData\Local\Temp\ccYj4tTD.s:28326  .debug_str:0000000000020251 .LASF348
C:\Users\CYMR90~1\AppData\Local\Temp\ccYj4tTD.s:30302  .debug_str:0000000000027f63 .LASF349
C:\Users\CYMR90~1\AppData\Local\Temp\ccYj4tTD.s:27812  .debug_str:000000000001e352 .LASF350
C:\Users\CYMR90~1\AppData\Local\Temp\ccYj4tTD.s:20369  .debug_str:00000000000004f5 .LASF351
C:\Users\CYMR90~1\AppData\Local\Temp\ccYj4tTD.s:28100  .debug_str:000000000001f4d1 .LASF352
C:\Users\CYMR90~1\AppData\Local\Temp\ccYj4tTD.s:29786  .debug_str:0000000000025eb0 .LASF353
C:\Users\CYMR90~1\AppData\Local\Temp\ccYj4tTD.s:27432  .debug_str:000000000001ca45 .LASF354
C:\Users\CYMR90~1\AppData\Local\Temp\ccYj4tTD.s:27598  .debug_str:000000000001d580 .LASF355
C:\Users\CYMR90~1\AppData\Local\Temp\ccYj4tTD.s:23605  .debug_str:000000000000d49c .LASF356
C:\Users\CYMR90~1\AppData\Local\Temp\ccYj4tTD.s:26752  .debug_str:0000000000019e3f .LASF357
C:\Users\CYMR90~1\AppData\Local\Temp\ccYj4tTD.s:30216  .debug_str:000000000002797b .LASF358
C:\Users\CYMR90~1\AppData\Local\Temp\ccYj4tTD.s:24935  .debug_str:0000000000012788 .LASF359
C:\Users\CYMR90~1\AppData\Local\Temp\ccYj4tTD.s:23009  .debug_str:000000000000ac59 .LASF360
C:\Users\CYMR90~1\AppData\Local\Temp\ccYj4tTD.s:27980  .debug_str:000000000001ed47 .LASF361
C:\Users\CYMR90~1\AppData\Local\Temp\ccYj4tTD.s:24671  .debug_str:00000000000115d7 .LASF362
C:\Users\CYMR90~1\AppData\Local\Temp\ccYj4tTD.s:30478  .debug_str:0000000000028be0 .LASF363
C:\Users\CYMR90~1\AppData\Local\Temp\ccYj4tTD.s:22561  .debug_str:0000000000008ff8 .LASF364
C:\Users\CYMR90~1\AppData\Local\Temp\ccYj4tTD.s:30374  .debug_str:000000000002850b .LASF365
C:\Users\CYMR90~1\AppData\Local\Temp\ccYj4tTD.s:21967  .debug_str:0000000000006854 .LASF366
C:\Users\CYMR90~1\AppData\Local\Temp\ccYj4tTD.s:25071  .debug_str:0000000000013091 .LASF367
C:\Users\CYMR90~1\AppData\Local\Temp\ccYj4tTD.s:22251  .debug_str:0000000000007b19 .LASF368
C:\Users\CYMR90~1\AppData\Local\Temp\ccYj4tTD.s:26284  .debug_str:0000000000017f65 .LASF372
C:\Users\CYMR90~1\AppData\Local\Temp\ccYj4tTD.s:30032  .debug_str:0000000000026dd3 .LASF373
C:\Users\CYMR90~1\AppData\Local\Temp\ccYj4tTD.s:22991  .debug_str:000000000000ab27 .LASF374
C:\Users\CYMR90~1\AppData\Local\Temp\ccYj4tTD.s:26074  .debug_str:0000000000017270 .LASF375
C:\Users\CYMR90~1\AppData\Local\Temp\ccYj4tTD.s:26270  .debug_str:0000000000017e9d .LASF376
C:\Users\CYMR90~1\AppData\Local\Temp\ccYj4tTD.s:28776  .debug_str:0000000000021e68 .LASF377
C:\Users\CYMR90~1\AppData\Local\Temp\ccYj4tTD.s:27448  .debug_str:000000000001cb06 .LASF378
C:\Users\CYMR90~1\AppData\Local\Temp\ccYj4tTD.s:31134  .debug_str:000000000002b3af .LASF379
C:\Users\CYMR90~1\AppData\Local\Temp\ccYj4tTD.s:20933  .debug_str:00000000000026fd .LASF380
C:\Users\CYMR90~1\AppData\Local\Temp\ccYj4tTD.s:31076  .debug_str:000000000002aff0 .LASF381
C:\Users\CYMR90~1\AppData\Local\Temp\ccYj4tTD.s:27174  .debug_str:000000000001b98e .LASF382
C:\Users\CYMR90~1\AppData\Local\Temp\ccYj4tTD.s:22027  .debug_str:0000000000006be6 .LASF383
C:\Users\CYMR90~1\AppData\Local\Temp\ccYj4tTD.s:23371  .debug_str:000000000000c4b5 .LASF384
C:\Users\CYMR90~1\AppData\Local\Temp\ccYj4tTD.s:26694  .debug_str:0000000000019aa5 .LASF385
C:\Users\CYMR90~1\AppData\Local\Temp\ccYj4tTD.s:24363  .debug_str:00000000000102f8 .LASF386
C:\Users\CYMR90~1\AppData\Local\Temp\ccYj4tTD.s:20865  .debug_str:00000000000022ca .LASF387
C:\Users\CYMR90~1\AppData\Local\Temp\ccYj4tTD.s:23971  .debug_str:000000000000eadc .LASF388
C:\Users\CYMR90~1\AppData\Local\Temp\ccYj4tTD.s:22531  .debug_str:0000000000008e0d .LASF389
C:\Users\CYMR90~1\AppData\Local\Temp\ccYj4tTD.s:21349  .debug_str:0000000000004228 .LASF391
C:\Users\CYMR90~1\AppData\Local\Temp\ccYj4tTD.s:24371  .debug_str:0000000000010364 .LASF392
C:\Users\CYMR90~1\AppData\Local\Temp\ccYj4tTD.s:28424  .debug_str:00000000000208c8 .LASF393
C:\Users\CYMR90~1\AppData\Local\Temp\ccYj4tTD.s:30176  .debug_str:000000000002772c .LASF394
C:\Users\CYMR90~1\AppData\Local\Temp\ccYj4tTD.s:20891  .debug_str:0000000000002428 .LASF395
C:\Users\CYMR90~1\AppData\Local\Temp\ccYj4tTD.s:23033  .debug_str:000000000000adbd .LASF396
C:\Users\CYMR90~1\AppData\Local\Temp\ccYj4tTD.s:26804  .debug_str:000000000001a12c .LASF397
C:\Users\CYMR90~1\AppData\Local\Temp\ccYj4tTD.s:30950  .debug_str:000000000002a895 .LASF398
C:\Users\CYMR90~1\AppData\Local\Temp\ccYj4tTD.s:25639  .debug_str:00000000000154c5 .LASF399
C:\Users\CYMR90~1\AppData\Local\Temp\ccYj4tTD.s:28060  .debug_str:000000000001f24a .LASF400
C:\Users\CYMR90~1\AppData\Local\Temp\ccYj4tTD.s:22519  .debug_str:0000000000008cf6 .LASF401
C:\Users\CYMR90~1\AppData\Local\Temp\ccYj4tTD.s:26124  .debug_str:000000000001755e .LASF402
C:\Users\CYMR90~1\AppData\Local\Temp\ccYj4tTD.s:21863  .debug_str:000000000000622f .LASF403
C:\Users\CYMR90~1\AppData\Local\Temp\ccYj4tTD.s:22967  .debug_str:000000000000a99b .LASF404
C:\Users\CYMR90~1\AppData\Local\Temp\ccYj4tTD.s:24027  .debug_str:000000000000ee0d .LASF405
C:\Users\CYMR90~1\AppData\Local\Temp\ccYj4tTD.s:27358  .debug_str:000000000001c4dc .LASF406
C:\Users\CYMR90~1\AppData\Local\Temp\ccYj4tTD.s:25563  .debug_str:0000000000015023 .LASF407
C:\Users\CYMR90~1\AppData\Local\Temp\ccYj4tTD.s:26536  .debug_str:0000000000018f67 .LASF408
C:\Users\CYMR90~1\AppData\Local\Temp\ccYj4tTD.s:28720  .debug_str:0000000000021b15 .LASF409
C:\Users\CYMR90~1\AppData\Local\Temp\ccYj4tTD.s:21817  .debug_str:0000000000005f4a .LASF410
C:\Users\CYMR90~1\AppData\Local\Temp\ccYj4tTD.s:25749  .debug_str:0000000000015b1a .LASF411
C:\Users\CYMR90~1\AppData\Local\Temp\ccYj4tTD.s:28846  .debug_str:0000000000022291 .LASF412
C:\Users\CYMR90~1\AppData\Local\Temp\ccYj4tTD.s:21999  .debug_str:0000000000006a35 .LASF413
C:\Users\CYMR90~1\AppData\Local\Temp\ccYj4tTD.s:30576  .debug_str:00000000000291b8 .LASF414
C:\Users\CYMR90~1\AppData\Local\Temp\ccYj4tTD.s:24129  .debug_str:000000000000f419 .LASF415
C:\Users\CYMR90~1\AppData\Local\Temp\ccYj4tTD.s:29904  .debug_str:000000000002660b .LASF416
C:\Users\CYMR90~1\AppData\Local\Temp\ccYj4tTD.s:31432  .debug_str:000000000002c72b .LASF417
C:\Users\CYMR90~1\AppData\Local\Temp\ccYj4tTD.s:22449  .debug_str:00000000000088a5 .LASF418
C:\Users\CYMR90~1\AppData\Local\Temp\ccYj4tTD.s:30796  .debug_str:0000000000029f54 .LASF419
C:\Users\CYMR90~1\AppData\Local\Temp\ccYj4tTD.s:22071  .debug_str:0000000000006efc .LASF420
C:\Users\CYMR90~1\AppData\Local\Temp\ccYj4tTD.s:30996  .debug_str:000000000002ab1e .LASF421
C:\Users\CYMR90~1\AppData\Local\Temp\ccYj4tTD.s:23299  .debug_str:000000000000c04e .LASF422
C:\Users\CYMR90~1\AppData\Local\Temp\ccYj4tTD.s:23501  .debug_str:000000000000cd7e .LASF423
C:\Users\CYMR90~1\AppData\Local\Temp\ccYj4tTD.s:27958  .debug_str:000000000001ec0b .LASF424
C:\Users\CYMR90~1\AppData\Local\Temp\ccYj4tTD.s:26574  .debug_str:0000000000019292 .LASF425
C:\Users\CYMR90~1\AppData\Local\Temp\ccYj4tTD.s:20339  .debug_str:0000000000000301 .LASF426
C:\Users\CYMR90~1\AppData\Local\Temp\ccYj4tTD.s:30486  .debug_str:0000000000028c54 .LASF427
C:\Users\CYMR90~1\AppData\Local\Temp\ccYj4tTD.s:25831  .debug_str:00000000000160df .LASF428
C:\Users\CYMR90~1\AppData\Local\Temp\ccYj4tTD.s:27740  .debug_str:000000000001df34 .LASF429
C:\Users\CYMR90~1\AppData\Local\Temp\ccYj4tTD.s:24311  .debug_str:000000000000ffb8 .LASF430
C:\Users\CYMR90~1\AppData\Local\Temp\ccYj4tTD.s:26030  .debug_str:0000000000016fdf .LASF431
C:\Users\CYMR90~1\AppData\Local\Temp\ccYj4tTD.s:30882  .debug_str:000000000002a421 .LASF432
C:\Users\CYMR90~1\AppData\Local\Temp\ccYj4tTD.s:23483  .debug_str:000000000000cc5d .LASF434
C:\Users\CYMR90~1\AppData\Local\Temp\ccYj4tTD.s:21535  .debug_str:0000000000004e99 .LASF435
C:\Users\CYMR90~1\AppData\Local\Temp\ccYj4tTD.s:26212  .debug_str:0000000000017aff .LASF436
C:\Users\CYMR90~1\AppData\Local\Temp\ccYj4tTD.s:22089  .debug_str:000000000000707c .LASF437
C:\Users\CYMR90~1\AppData\Local\Temp\ccYj4tTD.s:30504  .debug_str:0000000000028d3c .LASF438
C:\Users\CYMR90~1\AppData\Local\Temp\ccYj4tTD.s:20301  .debug_str:00000000000000c7 .LASF439
C:\Users\CYMR90~1\AppData\Local\Temp\ccYj4tTD.s:27996  .debug_str:000000000001ee48 .LASF440
C:\Users\CYMR90~1\AppData\Local\Temp\ccYj4tTD.s:23725  .debug_str:000000000000dbaf .LASF441
C:\Users\CYMR90~1\AppData\Local\Temp\ccYj4tTD.s:29038  .debug_str:0000000000022dfb .LASF442
C:\Users\CYMR90~1\AppData\Local\Temp\ccYj4tTD.s:27934  .debug_str:000000000001eab9 .LASF443
C:\Users\CYMR90~1\AppData\Local\Temp\ccYj4tTD.s:24441  .debug_str:0000000000010769 .LASF444
C:\Users\CYMR90~1\AppData\Local\Temp\ccYj4tTD.s:31426  .debug_str:000000000002c6df .LASF445
C:\Users\CYMR90~1\AppData\Local\Temp\ccYj4tTD.s:31362  .debug_str:000000000002c2a1 .LASF446
C:\Users\CYMR90~1\AppData\Local\Temp\ccYj4tTD.s:24789  .debug_str:0000000000011e03 .LASF447
C:\Users\CYMR90~1\AppData\Local\Temp\ccYj4tTD.s:29012  .debug_str:0000000000022c9b .LASF448
C:\Users\CYMR90~1\AppData\Local\Temp\ccYj4tTD.s:21361  .debug_str:00000000000042e0 .LASF449
C:\Users\CYMR90~1\AppData\Local\Temp\ccYj4tTD.s:22109  .debug_str:00000000000071e5 .LASF450
C:\Users\CYMR90~1\AppData\Local\Temp\ccYj4tTD.s:22717  .debug_str:0000000000009993 .LASF451
C:\Users\CYMR90~1\AppData\Local\Temp\ccYj4tTD.s:25477  .debug_str:0000000000014a53 .LASF452
C:\Users\CYMR90~1\AppData\Local\Temp\ccYj4tTD.s:20809  .debug_str:0000000000001ff1 .LASF453
C:\Users\CYMR90~1\AppData\Local\Temp\ccYj4tTD.s:31368  .debug_str:000000000002c2da .LASF454
C:\Users\CYMR90~1\AppData\Local\Temp\ccYj4tTD.s:23891  .debug_str:000000000000e59a .LASF455
C:\Users\CYMR90~1\AppData\Local\Temp\ccYj4tTD.s:28622  .debug_str:000000000002150f .LASF456
C:\Users\CYMR90~1\AppData\Local\Temp\ccYj4tTD.s:23577  .debug_str:000000000000d256 .LASF457
C:\Users\CYMR90~1\AppData\Local\Temp\ccYj4tTD.s:21875  .debug_str:00000000000062dc .LASF458
C:\Users\CYMR90~1\AppData\Local\Temp\ccYj4tTD.s:24507  .debug_str:0000000000010c30 .LASF459
C:\Users\CYMR90~1\AppData\Local\Temp\ccYj4tTD.s:28378  .debug_str:0000000000020605 .LASF460
C:\Users\CYMR90~1\AppData\Local\Temp\ccYj4tTD.s:29528  .debug_str:0000000000024c92 .LASF461
C:\Users\CYMR90~1\AppData\Local\Temp\ccYj4tTD.s:25993  .debug_str:0000000000016be0 .LASF462
C:\Users\CYMR90~1\AppData\Local\Temp\ccYj4tTD.s:26854  .debug_str:000000000001a5a3 .LASF463
C:\Users\CYMR90~1\AppData\Local\Temp\ccYj4tTD.s:23741  .debug_str:000000000000dc7b .LASF464
C:\Users\CYMR90~1\AppData\Local\Temp\ccYj4tTD.s:24881  .debug_str:0000000000012413 .LASF465
C:\Users\CYMR90~1\AppData\Local\Temp\ccYj4tTD.s:22021  .debug_str:0000000000006ba0 .LASF466
C:\Users\CYMR90~1\AppData\Local\Temp\ccYj4tTD.s:22579  .debug_str:00000000000090db .LASF467
C:\Users\CYMR90~1\AppData\Local\Temp\ccYj4tTD.s:30592  .debug_str:00000000000292ae .LASF468
C:\Users\CYMR90~1\AppData\Local\Temp\ccYj4tTD.s:21153  .debug_str:000000000000355c .LASF469
C:\Users\CYMR90~1\AppData\Local\Temp\ccYj4tTD.s:24405  .debug_str:0000000000010533 .LASF470
C:\Users\CYMR90~1\AppData\Local\Temp\ccYj4tTD.s:24287  .debug_str:000000000000fe46 .LASF471
C:\Users\CYMR90~1\AppData\Local\Temp\ccYj4tTD.s:23865  .debug_str:000000000000e40e .LASF472
C:\Users\CYMR90~1\AppData\Local\Temp\ccYj4tTD.s:20519  .debug_str:0000000000000e0b .LASF473
C:\Users\CYMR90~1\AppData\Local\Temp\ccYj4tTD.s:22135  .debug_str:00000000000073e6 .LASF474
C:\Users\CYMR90~1\AppData\Local\Temp\ccYj4tTD.s:20465  .debug_str:0000000000000ad1 .LASF475
C:\Users\CYMR90~1\AppData\Local\Temp\ccYj4tTD.s:21327  .debug_str:000000000000403e .LASF476
C:\Users\CYMR90~1\AppData\Local\Temp\ccYj4tTD.s:20687  .debug_str:00000000000018a9 .LASF477
C:\Users\CYMR90~1\AppData\Local\Temp\ccYj4tTD.s:25777  .debug_str:0000000000015d1f .LASF478
C:\Users\CYMR90~1\AppData\Local\Temp\ccYj4tTD.s:23177  .debug_str:000000000000b7f9 .LASF479
C:\Users\CYMR90~1\AppData\Local\Temp\ccYj4tTD.s:30992  .debug_str:000000000002aaee .LASF480
C:\Users\CYMR90~1\AppData\Local\Temp\ccYj4tTD.s:26366  .debug_str:000000000001844d .LASF481
C:\Users\CYMR90~1\AppData\Local\Temp\ccYj4tTD.s:23099  .debug_str:000000000000b2a4 .LASF482
C:\Users\CYMR90~1\AppData\Local\Temp\ccYj4tTD.s:21917  .debug_str:0000000000006566 .LASF483
C:\Users\CYMR90~1\AppData\Local\Temp\ccYj4tTD.s:20431  .debug_str:000000000000088f .LASF484
C:\Users\CYMR90~1\AppData\Local\Temp\ccYj4tTD.s:26314  .debug_str:000000000001811f .LASF485
C:\Users\CYMR90~1\AppData\Local\Temp\ccYj4tTD.s:21543  .debug_str:0000000000004f05 .LASF486
C:\Users\CYMR90~1\AppData\Local\Temp\ccYj4tTD.s:25233  .debug_str:0000000000013b4f .LASF487
C:\Users\CYMR90~1\AppData\Local\Temp\ccYj4tTD.s:24429  .debug_str:00000000000106c5 .LASF488
C:\Users\CYMR90~1\AppData\Local\Temp\ccYj4tTD.s:24999  .debug_str:0000000000012bd8 .LASF489
C:\Users\CYMR90~1\AppData\Local\Temp\ccYj4tTD.s:23457  .debug_str:000000000000cad2 .LASF490
C:\Users\CYMR90~1\AppData\Local\Temp\ccYj4tTD.s:22447  .debug_str:0000000000008897 .LASF491
C:\Users\CYMR90~1\AppData\Local\Temp\ccYj4tTD.s:24087  .debug_str:000000000000f18a .LASF492
C:\Users\CYMR90~1\AppData\Local\Temp\ccYj4tTD.s:24395  .debug_str:00000000000104b7 .LASF493
C:\Users\CYMR90~1\AppData\Local\Temp\ccYj4tTD.s:24293  .debug_str:000000000000fea1 .LASF494
C:\Users\CYMR90~1\AppData\Local\Temp\ccYj4tTD.s:26564  .debug_str:000000000001920f .LASF495
C:\Users\CYMR90~1\AppData\Local\Temp\ccYj4tTD.s:31452  .debug_str:000000000002c844 .LASF496
C:\Users\CYMR90~1\AppData\Local\Temp\ccYj4tTD.s:31386  .debug_str:000000000002c43f .LASF497
C:\Users\CYMR90~1\AppData\Local\Temp\ccYj4tTD.s:24133  .debug_str:000000000000f460 .LASF498
C:\Users\CYMR90~1\AppData\Local\Temp\ccYj4tTD.s:30600  .debug_str:00000000000292fd .LASF499
C:\Users\CYMR90~1\AppData\Local\Temp\ccYj4tTD.s:30706  .debug_str:00000000000299ee .LASF500
C:\Users\CYMR90~1\AppData\Local\Temp\ccYj4tTD.s:25441  .debug_str:0000000000014819 .LASF501
C:\Users\CYMR90~1\AppData\Local\Temp\ccYj4tTD.s:30660  .debug_str:000000000002975d .LASF502
C:\Users\CYMR90~1\AppData\Local\Temp\ccYj4tTD.s:25387  .debug_str:0000000000014484 .LASF503
C:\Users\CYMR90~1\AppData\Local\Temp\ccYj4tTD.s:21021  .debug_str:0000000000002cdd .LASF504
C:\Users\CYMR90~1\AppData\Local\Temp\ccYj4tTD.s:29296  .debug_str:0000000000023d0e .LASF505
C:\Users\CYMR90~1\AppData\Local\Temp\ccYj4tTD.s:30172  .debug_str:00000000000276f1 .LASF506
C:\Users\CYMR90~1\AppData\Local\Temp\ccYj4tTD.s:29742  .debug_str:0000000000025c15 .LASF507
C:\Users\CYMR90~1\AppData\Local\Temp\ccYj4tTD.s:26482  .debug_str:0000000000018b85 .LASF508
C:\Users\CYMR90~1\AppData\Local\Temp\ccYj4tTD.s:28708  .debug_str:0000000000021a19 .LASF509
C:\Users\CYMR90~1\AppData\Local\Temp\ccYj4tTD.s:30394  .debug_str:000000000002866f .LASF510
C:\Users\CYMR90~1\AppData\Local\Temp\ccYj4tTD.s:26260  .debug_str:0000000000017dce .LASF511
C:\Users\CYMR90~1\AppData\Local\Temp\ccYj4tTD.s:30020  .debug_str:0000000000026cde .LASF512
C:\Users\CYMR90~1\AppData\Local\Temp\ccYj4tTD.s:30144  .debug_str:000000000002755d .LASF513
C:\Users\CYMR90~1\AppData\Local\Temp\ccYj4tTD.s:30580  .debug_str:00000000000291e4 .LASF514
C:\Users\CYMR90~1\AppData\Local\Temp\ccYj4tTD.s:25161  .debug_str:00000000000136fb .LASF515
C:\Users\CYMR90~1\AppData\Local\Temp\ccYj4tTD.s:30454  .debug_str:0000000000028a76 .LASF516
C:\Users\CYMR90~1\AppData\Local\Temp\ccYj4tTD.s:26632  .debug_str:00000000000195ff .LASF517
C:\Users\CYMR90~1\AppData\Local\Temp\ccYj4tTD.s:30402  .debug_str:0000000000028723 .LASF518
C:\Users\CYMR90~1\AppData\Local\Temp\ccYj4tTD.s:27278  .debug_str:000000000001c02c .LASF519
C:\Users\CYMR90~1\AppData\Local\Temp\ccYj4tTD.s:31356  .debug_str:000000000002c23f .LASF520
C:\Users\CYMR90~1\AppData\Local\Temp\ccYj4tTD.s:27542  .debug_str:000000000001d21d .LASF521
C:\Users\CYMR90~1\AppData\Local\Temp\ccYj4tTD.s:29650  .debug_str:0000000000025564 .LASF522
C:\Users\CYMR90~1\AppData\Local\Temp\ccYj4tTD.s:25043  .debug_str:0000000000012ea9 .LASF523
C:\Users\CYMR90~1\AppData\Local\Temp\ccYj4tTD.s:29208  .debug_str:000000000002380b .LASF524
C:\Users\CYMR90~1\AppData\Local\Temp\ccYj4tTD.s:22659  .debug_str:0000000000009583 .LASF525
C:\Users\CYMR90~1\AppData\Local\Temp\ccYj4tTD.s:31378  .debug_str:000000000002c353 .LASF526
C:\Users\CYMR90~1\AppData\Local\Temp\ccYj4tTD.s:23899  .debug_str:000000000000e618 .LASF527
C:\Users\CYMR90~1\AppData\Local\Temp\ccYj4tTD.s:24905  .debug_str:000000000001258e .LASF528
C:\Users\CYMR90~1\AppData\Local\Temp\ccYj4tTD.s:25755  .debug_str:0000000000015b77 .LASF529
C:\Users\CYMR90~1\AppData\Local\Temp\ccYj4tTD.s:25787  .debug_str:0000000000015db0 .LASF530
C:\Users\CYMR90~1\AppData\Local\Temp\ccYj4tTD.s:24829  .debug_str:00000000000120d8 .LASF531
C:\Users\CYMR90~1\AppData\Local\Temp\ccYj4tTD.s:21081  .debug_str:0000000000003060 .LASF532
C:\Users\CYMR90~1\AppData\Local\Temp\ccYj4tTD.s:23583  .debug_str:000000000000d290 .LASF533
C:\Users\CYMR90~1\AppData\Local\Temp\ccYj4tTD.s:31214  .debug_str:000000000002b8cb .LASF534
C:\Users\CYMR90~1\AppData\Local\Temp\ccYj4tTD.s:24085  .debug_str:000000000000f13e .LASF535
C:\Users\CYMR90~1\AppData\Local\Temp\ccYj4tTD.s:29390  .debug_str:000000000002437c .LASF536
C:\Users\CYMR90~1\AppData\Local\Temp\ccYj4tTD.s:30862  .debug_str:000000000002a31e .LASF537
C:\Users\CYMR90~1\AppData\Local\Temp\ccYj4tTD.s:24657  .debug_str:00000000000114d2 .LASF538
C:\Users\CYMR90~1\AppData\Local\Temp\ccYj4tTD.s:29570  .debug_str:0000000000024f51 .LASF539
C:\Users\CYMR90~1\AppData\Local\Temp\ccYj4tTD.s:27338  .debug_str:000000000001c3ca .LASF540
C:\Users\CYMR90~1\AppData\Local\Temp\ccYj4tTD.s:28918  .debug_str:000000000002269d .LASF541
C:\Users\CYMR90~1\AppData\Local\Temp\ccYj4tTD.s:27630  .debug_str:000000000001d795 .LASF542
C:\Users\CYMR90~1\AppData\Local\Temp\ccYj4tTD.s:21435  .debug_str:00000000000047cf .LASF543
C:\Users\CYMR90~1\AppData\Local\Temp\ccYj4tTD.s:23833  .debug_str:000000000000e221 .LASF544
C:\Users\CYMR90~1\AppData\Local\Temp\ccYj4tTD.s:30646  .debug_str:0000000000029679 .LASF545
C:\Users\CYMR90~1\AppData\Local\Temp\ccYj4tTD.s:25171  .debug_str:000000000001378a .LASF546
C:\Users\CYMR90~1\AppData\Local\Temp\ccYj4tTD.s:28900  .debug_str:0000000000022589 .LASF547
C:\Users\CYMR90~1\AppData\Local\Temp\ccYj4tTD.s:31130  .debug_str:000000000002b36e .LASF548
C:\Users\CYMR90~1\AppData\Local\Temp\ccYj4tTD.s:21127  .debug_str:000000000000339a .LASF549
C:\Users\CYMR90~1\AppData\Local\Temp\ccYj4tTD.s:22281  .debug_str:0000000000007cde .LASF550
C:\Users\CYMR90~1\AppData\Local\Temp\ccYj4tTD.s:29912  .debug_str:000000000002666e .LASF551
C:\Users\CYMR90~1\AppData\Local\Temp\ccYj4tTD.s:21843  .debug_str:00000000000060e5 .LASF552
C:\Users\CYMR90~1\AppData\Local\Temp\ccYj4tTD.s:30884  .debug_str:000000000002a42e .LASF553
C:\Users\CYMR90~1\AppData\Local\Temp\ccYj4tTD.s:23251  .debug_str:000000000000bc98 .LASF554
C:\Users\CYMR90~1\AppData\Local\Temp\ccYj4tTD.s:23433  .debug_str:000000000000c90f .LASF555
C:\Users\CYMR90~1\AppData\Local\Temp\ccYj4tTD.s:21965  .debug_str:0000000000006801 .LASF556
C:\Users\CYMR90~1\AppData\Local\Temp\ccYj4tTD.s:30334  .debug_str:00000000000281bc .LASF557
C:\Users\CYMR90~1\AppData\Local\Temp\ccYj4tTD.s:24775  .debug_str:0000000000011d28 .LASF558
C:\Users\CYMR90~1\AppData\Local\Temp\ccYj4tTD.s:26510  .debug_str:0000000000018ddb .LASF559
C:\Users\CYMR90~1\AppData\Local\Temp\ccYj4tTD.s:30444  .debug_str:00000000000289ce .LASF560
C:\Users\CYMR90~1\AppData\Local\Temp\ccYj4tTD.s:23247  .debug_str:000000000000bc34 .LASF561
C:\Users\CYMR90~1\AppData\Local\Temp\ccYj4tTD.s:24241  .debug_str:000000000000fb55 .LASF562
C:\Users\CYMR90~1\AppData\Local\Temp\ccYj4tTD.s:23625  .debug_str:000000000000d5c2 .LASF563
C:\Users\CYMR90~1\AppData\Local\Temp\ccYj4tTD.s:22951  .debug_str:000000000000a7b2 .LASF564
C:\Users\CYMR90~1\AppData\Local\Temp\ccYj4tTD.s:28648  .debug_str:0000000000021685 .LASF565
C:\Users\CYMR90~1\AppData\Local\Temp\ccYj4tTD.s:27878  .debug_str:000000000001e72b .LASF566
C:\Users\CYMR90~1\AppData\Local\Temp\ccYj4tTD.s:24771  .debug_str:0000000000011ce0 .LASF567
C:\Users\CYMR90~1\AppData\Local\Temp\ccYj4tTD.s:21845  .debug_str:00000000000060f9 .LASF568
C:\Users\CYMR90~1\AppData\Local\Temp\ccYj4tTD.s:20491  .debug_str:0000000000000c97 .LASF570
C:\Users\CYMR90~1\AppData\Local\Temp\ccYj4tTD.s:26140  .debug_str:000000000001764f .LASF571
C:\Users\CYMR90~1\AppData\Local\Temp\ccYj4tTD.s:27274  .debug_str:000000000001c006 .LASF574
C:\Users\CYMR90~1\AppData\Local\Temp\ccYj4tTD.s:21403  .debug_str:00000000000045bb .LASF575
C:\Users\CYMR90~1\AppData\Local\Temp\ccYj4tTD.s:25393  .debug_str:000000000001450e .LASF576
C:\Users\CYMR90~1\AppData\Local\Temp\ccYj4tTD.s:22377  .debug_str:0000000000008482 .LASF577
C:\Users\CYMR90~1\AppData\Local\Temp\ccYj4tTD.s:28550  .debug_str:000000000002102d .LASF579
C:\Users\CYMR90~1\AppData\Local\Temp\ccYj4tTD.s:27754  .debug_str:000000000001e00c .LASF580
C:\Users\CYMR90~1\AppData\Local\Temp\ccYj4tTD.s:29294  .debug_str:0000000000023d05 .LASF581
C:\Users\CYMR90~1\AppData\Local\Temp\ccYj4tTD.s:21801  .debug_str:0000000000005e54 .LASF582
C:\Users\CYMR90~1\AppData\Local\Temp\ccYj4tTD.s:24389  .debug_str:000000000001044d .LASF583
C:\Users\CYMR90~1\AppData\Local\Temp\ccYj4tTD.s:20973  .debug_str:00000000000029c7 .LASF584
C:\Users\CYMR90~1\AppData\Local\Temp\ccYj4tTD.s:30740  .debug_str:0000000000029c0f .LASF585
C:\Users\CYMR90~1\AppData\Local\Temp\ccYj4tTD.s:28948  .debug_str:000000000002288d .LASF586
C:\Users\CYMR90~1\AppData\Local\Temp\ccYj4tTD.s:27162  .debug_str:000000000001b91b .LASF587
C:\Users\CYMR90~1\AppData\Local\Temp\ccYj4tTD.s:22035  .debug_str:0000000000006ca1 .LASF588
C:\Users\CYMR90~1\AppData\Local\Temp\ccYj4tTD.s:26420  .debug_str:00000000000187a2 .LASF589
C:\Users\CYMR90~1\AppData\Local\Temp\ccYj4tTD.s:26800  .debug_str:000000000001a0d5 .LASF590
C:\Users\CYMR90~1\AppData\Local\Temp\ccYj4tTD.s:27622  .debug_str:000000000001d729 .LASF591
C:\Users\CYMR90~1\AppData\Local\Temp\ccYj4tTD.s:27414  .debug_str:000000000001c920 .LASF592
C:\Users\CYMR90~1\AppData\Local\Temp\ccYj4tTD.s:29282  .debug_str:0000000000023c62 .LASF593
C:\Users\CYMR90~1\AppData\Local\Temp\ccYj4tTD.s:24353  .debug_str:000000000001025e .LASF594
C:\Users\CYMR90~1\AppData\Local\Temp\ccYj4tTD.s:25231  .debug_str:0000000000013b2f .LASF595
C:\Users\CYMR90~1\AppData\Local\Temp\ccYj4tTD.s:24959  .debug_str:0000000000012933 .LASF596
C:\Users\CYMR90~1\AppData\Local\Temp\ccYj4tTD.s:22137  .debug_str:0000000000007405 .LASF597
C:\Users\CYMR90~1\AppData\Local\Temp\ccYj4tTD.s:30264  .debug_str:0000000000027cfe .LASF598
C:\Users\CYMR90~1\AppData\Local\Temp\ccYj4tTD.s:25119  .debug_str:000000000001344d .LASF599
C:\Users\CYMR90~1\AppData\Local\Temp\ccYj4tTD.s:28080  .debug_str:000000000001f37b .LASF600
C:\Users\CYMR90~1\AppData\Local\Temp\ccYj4tTD.s:27346  .debug_str:000000000001c436 .LASF601
C:\Users\CYMR90~1\AppData\Local\Temp\ccYj4tTD.s:29748  .debug_str:0000000000025c68 .LASF602
C:\Users\CYMR90~1\AppData\Local\Temp\ccYj4tTD.s:30460  .debug_str:0000000000028ad8 .LASF603
C:\Users\CYMR90~1\AppData\Local\Temp\ccYj4tTD.s:30350  .debug_str:000000000002838e .LASF604
C:\Users\CYMR90~1\AppData\Local\Temp\ccYj4tTD.s:25069  .debug_str:0000000000013079 .LASF605
C:\Users\CYMR90~1\AppData\Local\Temp\ccYj4tTD.s:29090  .debug_str:00000000000230c6 .LASF606
C:\Users\CYMR90~1\AppData\Local\Temp\ccYj4tTD.s:22727  .debug_str:0000000000009a32 .LASF607
C:\Users\CYMR90~1\AppData\Local\Temp\ccYj4tTD.s:22233  .debug_str:00000000000079ce .LASF608
C:\Users\CYMR90~1\AppData\Local\Temp\ccYj4tTD.s:23011  .debug_str:000000000000ac67 .LASF609
C:\Users\CYMR90~1\AppData\Local\Temp\ccYj4tTD.s:27198  .debug_str:000000000001bae0 .LASF610
C:\Users\CYMR90~1\AppData\Local\Temp\ccYj4tTD.s:21769  .debug_str:0000000000005c9b .LASF611
C:\Users\CYMR90~1\AppData\Local\Temp\ccYj4tTD.s:28870  .debug_str:00000000000223da .LASF612
C:\Users\CYMR90~1\AppData\Local\Temp\ccYj4tTD.s:25621  .debug_str:00000000000153a4 .LASF613
C:\Users\CYMR90~1\AppData\Local\Temp\ccYj4tTD.s:22301  .debug_str:0000000000007ed8 .LASF614
C:\Users\CYMR90~1\AppData\Local\Temp\ccYj4tTD.s:20393  .debug_str:0000000000000626 .LASF615
C:\Users\CYMR90~1\AppData\Local\Temp\ccYj4tTD.s:25859  .debug_str:0000000000016264 .LASF616
C:\Users\CYMR90~1\AppData\Local\Temp\ccYj4tTD.s:26836  .debug_str:000000000001a303 .LASF617
C:\Users\CYMR90~1\AppData\Local\Temp\ccYj4tTD.s:25995  .debug_str:0000000000016bef .LASF618
C:\Users\CYMR90~1\AppData\Local\Temp\ccYj4tTD.s:28956  .debug_str:00000000000228f2 .LASF619
C:\Users\CYMR90~1\AppData\Local\Temp\ccYj4tTD.s:23267  .debug_str:000000000000be30 .LASF620
C:\Users\CYMR90~1\AppData\Local\Temp\ccYj4tTD.s:22049  .debug_str:0000000000006d8e .LASF621
C:\Users\CYMR90~1\AppData\Local\Temp\ccYj4tTD.s:29150  .debug_str:000000000002341f .LASF622
C:\Users\CYMR90~1\AppData\Local\Temp\ccYj4tTD.s:28256  .debug_str:000000000001fe48 .LASF623
C:\Users\CYMR90~1\AppData\Local\Temp\ccYj4tTD.s:30224  .debug_str:00000000000279f0 .LASF624
C:\Users\CYMR90~1\AppData\Local\Temp\ccYj4tTD.s:30836  .debug_str:000000000002a1bb .LASF625
C:\Users\CYMR90~1\AppData\Local\Temp\ccYj4tTD.s:25301  .debug_str:0000000000013f41 .LASF626
C:\Users\CYMR90~1\AppData\Local\Temp\ccYj4tTD.s:31096  .debug_str:000000000002b0f3 .LASF627
C:\Users\CYMR90~1\AppData\Local\Temp\ccYj4tTD.s:25711  .debug_str:00000000000158c3 .LASF628
C:\Users\CYMR90~1\AppData\Local\Temp\ccYj4tTD.s:28898  .debug_str:0000000000022551 .LASF629
C:\Users\CYMR90~1\AppData\Local\Temp\ccYj4tTD.s:22455  .debug_str:000000000000891c .LASF630
C:\Users\CYMR90~1\AppData\Local\Temp\ccYj4tTD.s:23663  .debug_str:000000000000d818 .LASF631
C:\Users\CYMR90~1\AppData\Local\Temp\ccYj4tTD.s:28860  .debug_str:000000000002233a .LASF632
C:\Users\CYMR90~1\AppData\Local\Temp\ccYj4tTD.s:23377  .debug_str:000000000000c516 .LASF633
C:\Users\CYMR90~1\AppData\Local\Temp\ccYj4tTD.s:20481  .debug_str:0000000000000c04 .LASF634
C:\Users\CYMR90~1\AppData\Local\Temp\ccYj4tTD.s:26742  .debug_str:0000000000019d9b .LASF635
C:\Users\CYMR90~1\AppData\Local\Temp\ccYj4tTD.s:25917  .debug_str:0000000000016648 .LASF636
C:\Users\CYMR90~1\AppData\Local\Temp\ccYj4tTD.s:27510  .debug_str:000000000001d04e .LASF637
C:\Users\CYMR90~1\AppData\Local\Temp\ccYj4tTD.s:21193  .debug_str:00000000000037a6 .LASF638
C:\Users\CYMR90~1\AppData\Local\Temp\ccYj4tTD.s:24723  .debug_str:0000000000011a29 .LASF639
C:\Users\CYMR90~1\AppData\Local\Temp\ccYj4tTD.s:22313  .debug_str:0000000000007f80 .LASF640
C:\Users\CYMR90~1\AppData\Local\Temp\ccYj4tTD.s:24941  .debug_str:00000000000127f7 .LASF641
C:\Users\CYMR90~1\AppData\Local\Temp\ccYj4tTD.s:23167  .debug_str:000000000000b70f .LASF642
C:\Users\CYMR90~1\AppData\Local\Temp\ccYj4tTD.s:30208  .debug_str:00000000000278e0 .LASF643
C:\Users\CYMR90~1\AppData\Local\Temp\ccYj4tTD.s:23539  .debug_str:000000000000cfb5 .LASF644
C:\Users\CYMR90~1\AppData\Local\Temp\ccYj4tTD.s:21373  .debug_str:0000000000004378 .LASF645
C:\Users\CYMR90~1\AppData\Local\Temp\ccYj4tTD.s:22195  .debug_str:0000000000007769 .LASF646
C:\Users\CYMR90~1\AppData\Local\Temp\ccYj4tTD.s:21119  .debug_str:0000000000003300 .LASF647
C:\Users\CYMR90~1\AppData\Local\Temp\ccYj4tTD.s:21491  .debug_str:0000000000004bc9 .LASF648
C:\Users\CYMR90~1\AppData\Local\Temp\ccYj4tTD.s:30738  .debug_str:0000000000029bd0 .LASF649
C:\Users\CYMR90~1\AppData\Local\Temp\ccYj4tTD.s:24637  .debug_str:0000000000011361 .LASF650
C:\Users\CYMR90~1\AppData\Local\Temp\ccYj4tTD.s:30852  .debug_str:000000000002a295 .LASF651
C:\Users\CYMR90~1\AppData\Local\Temp\ccYj4tTD.s:24251  .debug_str:000000000000fc16 .LASF652
C:\Users\CYMR90~1\AppData\Local\Temp\ccYj4tTD.s:20373  .debug_str:0000000000000515 .LASF653
C:\Users\CYMR90~1\AppData\Local\Temp\ccYj4tTD.s:31080  .debug_str:000000000002b01b .LASF654
C:\Users\CYMR90~1\AppData\Local\Temp\ccYj4tTD.s:22551  .debug_str:0000000000008f62 .LASF655
C:\Users\CYMR90~1\AppData\Local\Temp\ccYj4tTD.s:30278  .debug_str:0000000000027dd6 .LASF656
C:\Users\CYMR90~1\AppData\Local\Temp\ccYj4tTD.s:20425  .debug_str:000000000000084d .LASF657
C:\Users\CYMR90~1\AppData\Local\Temp\ccYj4tTD.s:30906  .debug_str:000000000002a5a6 .LASF658
C:\Users\CYMR90~1\AppData\Local\Temp\ccYj4tTD.s:25037  .debug_str:0000000000012e5b .LASF659
C:\Users\CYMR90~1\AppData\Local\Temp\ccYj4tTD.s:27444  .debug_str:000000000001cada .LASF660
C:\Users\CYMR90~1\AppData\Local\Temp\ccYj4tTD.s:23935  .debug_str:000000000000e899 .LASF661
C:\Users\CYMR90~1\AppData\Local\Temp\ccYj4tTD.s:28106  .debug_str:000000000001f51c .LASF662
C:\Users\CYMR90~1\AppData\Local\Temp\ccYj4tTD.s:30062  .debug_str:0000000000026fa1 .LASF663
C:\Users\CYMR90~1\AppData\Local\Temp\ccYj4tTD.s:24615  .debug_str:0000000000011222 .LASF664
C:\Users\CYMR90~1\AppData\Local\Temp\ccYj4tTD.s:24607  .debug_str:00000000000111c4 .LASF665
C:\Users\CYMR90~1\AppData\Local\Temp\ccYj4tTD.s:26518  .debug_str:0000000000018e94 .LASF666
C:\Users\CYMR90~1\AppData\Local\Temp\ccYj4tTD.s:21781  .debug_str:0000000000005d33 .LASF667
C:\Users\CYMR90~1\AppData\Local\Temp\ccYj4tTD.s:31582  .debug_str:000000000002d0e4 .LASF668
C:\Users\CYMR90~1\AppData\Local\Temp\ccYj4tTD.s:22161  .debug_str:000000000000755f .LASF669
C:\Users\CYMR90~1\AppData\Local\Temp\ccYj4tTD.s:28742  .debug_str:0000000000021c61 .LASF670
C:\Users\CYMR90~1\AppData\Local\Temp\ccYj4tTD.s:25019  .debug_str:0000000000012d36 .LASF671
C:\Users\CYMR90~1\AppData\Local\Temp\ccYj4tTD.s:28156  .debug_str:000000000001f7e2 .LASF672
C:\Users\CYMR90~1\AppData\Local\Temp\ccYj4tTD.s:28874  .debug_str:000000000002240b .LASF673
C:\Users\CYMR90~1\AppData\Local\Temp\ccYj4tTD.s:20755  .debug_str:0000000000001cc6 .LASF674
C:\Users\CYMR90~1\AppData\Local\Temp\ccYj4tTD.s:25697  .debug_str:00000000000157e4 .LASF676
C:\Users\CYMR90~1\AppData\Local\Temp\ccYj4tTD.s:29312  .debug_str:0000000000023e25 .LASF677
C:\Users\CYMR90~1\AppData\Local\Temp\ccYj4tTD.s:26754  .debug_str:0000000000019e4b .LASF678
C:\Users\CYMR90~1\AppData\Local\Temp\ccYj4tTD.s:29410  .debug_str:00000000000244e7 .LASF679
C:\Users\CYMR90~1\AppData\Local\Temp\ccYj4tTD.s:27874  .debug_str:000000000001e6ff .LASF680
C:\Users\CYMR90~1\AppData\Local\Temp\ccYj4tTD.s:30752  .debug_str:0000000000029ccd .LASF681
C:\Users\CYMR90~1\AppData\Local\Temp\ccYj4tTD.s:21375  .debug_str:00000000000043b6 .LASF682
C:\Users\CYMR90~1\AppData\Local\Temp\ccYj4tTD.s:21295  .debug_str:0000000000003e39 .LASF683
C:\Users\CYMR90~1\AppData\Local\Temp\ccYj4tTD.s:22685  .debug_str:0000000000009754 .LASF684
C:\Users\CYMR90~1\AppData\Local\Temp\ccYj4tTD.s:27202  .debug_str:000000000001bb0d .LASF685
C:\Users\CYMR90~1\AppData\Local\Temp\ccYj4tTD.s:28606  .debug_str:0000000000021407 .LASF686
C:\Users\CYMR90~1\AppData\Local\Temp\ccYj4tTD.s:25973  .debug_str:0000000000016a20 .LASF687
C:\Users\CYMR90~1\AppData\Local\Temp\ccYj4tTD.s:24543  .debug_str:0000000000010dee .LASF688
C:\Users\CYMR90~1\AppData\Local\Temp\ccYj4tTD.s:21175  .debug_str:0000000000003679 .LASF689
C:\Users\CYMR90~1\AppData\Local\Temp\ccYj4tTD.s:22055  .debug_str:0000000000006e0d .LASF690
C:\Users\CYMR90~1\AppData\Local\Temp\ccYj4tTD.s:24889  .debug_str:0000000000012487 .LASF691
C:\Users\CYMR90~1\AppData\Local\Temp\ccYj4tTD.s:25737  .debug_str:0000000000015a52 .LASF692
C:\Users\CYMR90~1\AppData\Local\Temp\ccYj4tTD.s:21747  .debug_str:0000000000005b52 .LASF695
C:\Users\CYMR90~1\AppData\Local\Temp\ccYj4tTD.s:26138  .debug_str:0000000000017638 .LASF696
C:\Users\CYMR90~1\AppData\Local\Temp\ccYj4tTD.s:23567  .debug_str:000000000000d18e .LASF697
C:\Users\CYMR90~1\AppData\Local\Temp\ccYj4tTD.s:27172  .debug_str:000000000001b97c .LASF698
C:\Users\CYMR90~1\AppData\Local\Temp\ccYj4tTD.s:29348  .debug_str:0000000000023fdc .LASF699
C:\Users\CYMR90~1\AppData\Local\Temp\ccYj4tTD.s:25473  .debug_str:00000000000149d0 .LASF702
C:\Users\CYMR90~1\AppData\Local\Temp\ccYj4tTD.s:22707  .debug_str:00000000000098ab .LASF703
C:\Users\CYMR90~1\AppData\Local\Temp\ccYj4tTD.s:28050  .debug_str:000000000001f1ba .LASF704
C:\Users\CYMR90~1\AppData\Local\Temp\ccYj4tTD.s:21567  .debug_str:0000000000005061 .LASF705
C:\Users\CYMR90~1\AppData\Local\Temp\ccYj4tTD.s:25799  .debug_str:0000000000015e91 .LASF706
C:\Users\CYMR90~1\AppData\Local\Temp\ccYj4tTD.s:24131  .debug_str:000000000000f43a .LASF707
C:\Users\CYMR90~1\AppData\Local\Temp\ccYj4tTD.s:30474  .debug_str:0000000000028bb4 .LASF708
C:\Users\CYMR90~1\AppData\Local\Temp\ccYj4tTD.s:29718  .debug_str:0000000000025a88 .LASF709
C:\Users\CYMR90~1\AppData\Local\Temp\ccYj4tTD.s:23777  .debug_str:000000000000df18 .LASF710
C:\Users\CYMR90~1\AppData\Local\Temp\ccYj4tTD.s:24291  .debug_str:000000000000fe6e .LASF711
C:\Users\CYMR90~1\AppData\Local\Temp\ccYj4tTD.s:25947  .debug_str:0000000000016814 .LASF712
C:\Users\CYMR90~1\AppData\Local\Temp\ccYj4tTD.s:22945  .debug_str:000000000000a740 .LASF713
C:\Users\CYMR90~1\AppData\Local\Temp\ccYj4tTD.s:31298  .debug_str:000000000002be51 .LASF714
C:\Users\CYMR90~1\AppData\Local\Temp\ccYj4tTD.s:22297  .debug_str:0000000000007e73 .LASF715
C:\Users\CYMR90~1\AppData\Local\Temp\ccYj4tTD.s:23205  .debug_str:000000000000b978 .LASF716
C:\Users\CYMR90~1\AppData\Local\Temp\ccYj4tTD.s:28272  .debug_str:000000000001ff66 .LASF717
C:\Users\CYMR90~1\AppData\Local\Temp\ccYj4tTD.s:29676  .debug_str:0000000000025784 .LASF718
C:\Users\CYMR90~1\AppData\Local\Temp\ccYj4tTD.s:29452  .debug_str:0000000000024769 .LASF719
C:\Users\CYMR90~1\AppData\Local\Temp\ccYj4tTD.s:26454  .debug_str:00000000000189eb .LASF720
C:\Users\CYMR90~1\AppData\Local\Temp\ccYj4tTD.s:20813  .debug_str:0000000000002026 .LASF721
C:\Users\CYMR90~1\AppData\Local\Temp\ccYj4tTD.s:28382  .debug_str:0000000000020639 .LASF722
C:\Users\CYMR90~1\AppData\Local\Temp\ccYj4tTD.s:27360  .debug_str:000000000001c4ec .LASF723
C:\Users\CYMR90~1\AppData\Local\Temp\ccYj4tTD.s:27926  .debug_str:000000000001ea50 .LASF724
C:\Users\CYMR90~1\AppData\Local\Temp\ccYj4tTD.s:28852  .debug_str:00000000000222e8 .LASF725
C:\Users\CYMR90~1\AppData\Local\Temp\ccYj4tTD.s:25135  .debug_str:0000000000013559 .LASF726
C:\Users\CYMR90~1\AppData\Local\Temp\ccYj4tTD.s:22939  .debug_str:000000000000a6e6 .LASF727
C:\Users\CYMR90~1\AppData\Local\Temp\ccYj4tTD.s:29812  .debug_str:000000000002608d .LASF728
C:\Users\CYMR90~1\AppData\Local\Temp\ccYj4tTD.s:28162  .debug_str:000000000001f857 .LASF729
C:\Users\CYMR90~1\AppData\Local\Temp\ccYj4tTD.s:26642  .debug_str:000000000001969a .LASF730
C:\Users\CYMR90~1\AppData\Local\Temp\ccYj4tTD.s:25107  .debug_str:0000000000013385 .LASF731
C:\Users\CYMR90~1\AppData\Local\Temp\ccYj4tTD.s:29750  .debug_str:0000000000025ca3 .LASF732
C:\Users\CYMR90~1\AppData\Local\Temp\ccYj4tTD.s:31506  .debug_str:000000000002cc04 .LASF733
C:\Users\CYMR90~1\AppData\Local\Temp\ccYj4tTD.s:24595  .debug_str:00000000000110ec .LASF734
C:\Users\CYMR90~1\AppData\Local\Temp\ccYj4tTD.s:24519  .debug_str:0000000000010cbe .LASF735
C:\Users\CYMR90~1\AppData\Local\Temp\ccYj4tTD.s:31436  .debug_str:000000000002c74c .LASF736
C:\Users\CYMR90~1\AppData\Local\Temp\ccYj4tTD.s:23509  .debug_str:000000000000cddd .LASF737
C:\Users\CYMR90~1\AppData\Local\Temp\ccYj4tTD.s:31366  .debug_str:000000000002c2c9 .LASF738
C:\Users\CYMR90~1\AppData\Local\Temp\ccYj4tTD.s:31182  .debug_str:000000000002b6d1 .LASF739
C:\Users\CYMR90~1\AppData\Local\Temp\ccYj4tTD.s:20721  .debug_str:0000000000001aa9 .LASF740
C:\Users\CYMR90~1\AppData\Local\Temp\ccYj4tTD.s:23439  .debug_str:000000000000c97f .LASF741
C:\Users\CYMR90~1\AppData\Local\Temp\ccYj4tTD.s:20697  .debug_str:000000000000194a .LASF742
C:\Users\CYMR90~1\AppData\Local\Temp\ccYj4tTD.s:24553  .debug_str:0000000000010e5e .LASF743
C:\Users\CYMR90~1\AppData\Local\Temp\ccYj4tTD.s:21157  .debug_str:0000000000003599 .LASF744
C:\Users\CYMR90~1\AppData\Local\Temp\ccYj4tTD.s:22559  .debug_str:0000000000008fe3 .LASF745
C:\Users\CYMR90~1\AppData\Local\Temp\ccYj4tTD.s:28864  .debug_str:0000000000022389 .LASF746
C:\Users\CYMR90~1\AppData\Local\Temp\ccYj4tTD.s:20593  .debug_str:00000000000012a1 .LASF747
C:\Users\CYMR90~1\AppData\Local\Temp\ccYj4tTD.s:20583  .debug_str:000000000000121f .LASF748
C:\Users\CYMR90~1\AppData\Local\Temp\ccYj4tTD.s:21727  .debug_str:00000000000059d9 .LASF750
C:\Users\CYMR90~1\AppData\Local\Temp\ccYj4tTD.s:24471  .debug_str:0000000000010904 .LASF751
C:\Users\CYMR90~1\AppData\Local\Temp\ccYj4tTD.s:30642  .debug_str:0000000000029637 .LASF752
C:\Users\CYMR90~1\AppData\Local\Temp\ccYj4tTD.s:24411  .debug_str:00000000000105ad .LASF753
C:\Users\CYMR90~1\AppData\Local\Temp\ccYj4tTD.s:21611  .debug_str:0000000000005316 .LASF754
C:\Users\CYMR90~1\AppData\Local\Temp\ccYj4tTD.s:23189  .debug_str:000000000000b89f .LASF755
C:\Users\CYMR90~1\AppData\Local\Temp\ccYj4tTD.s:26718  .debug_str:0000000000019c3c .LASF756
C:\Users\CYMR90~1\AppData\Local\Temp\ccYj4tTD.s:22695  .debug_str:0000000000009803 .LASF757
C:\Users\CYMR90~1\AppData\Local\Temp\ccYj4tTD.s:29702  .debug_str:00000000000259a0 .LASF758
C:\Users\CYMR90~1\AppData\Local\Temp\ccYj4tTD.s:31542  .debug_str:000000000002ce7c .LASF759
C:\Users\CYMR90~1\AppData\Local\Temp\ccYj4tTD.s:27088  .debug_str:000000000001b49c .LASF760
C:\Users\CYMR90~1\AppData\Local\Temp\ccYj4tTD.s:31280  .debug_str:000000000002bd0b .LASF761
C:\Users\CYMR90~1\AppData\Local\Temp\ccYj4tTD.s:23117  .debug_str:000000000000b385 .LASF762
C:\Users\CYMR90~1\AppData\Local\Temp\ccYj4tTD.s:27096  .debug_str:000000000001b530 .LASF765
C:\Users\CYMR90~1\AppData\Local\Temp\ccYj4tTD.s:25771  .debug_str:0000000000015c80 .LASF766
C:\Users\CYMR90~1\AppData\Local\Temp\ccYj4tTD.s:28752  .debug_str:0000000000021cdf .LASF767
C:\Users\CYMR90~1\AppData\Local\Temp\ccYj4tTD.s:25761  .debug_str:0000000000015c10 .LASF768
C:\Users\CYMR90~1\AppData\Local\Temp\ccYj4tTD.s:20961  .debug_str:0000000000002906 .LASF769
C:\Users\CYMR90~1\AppData\Local\Temp\ccYj4tTD.s:27216  .debug_str:000000000001bc31 .LASF770
C:\Users\CYMR90~1\AppData\Local\Temp\ccYj4tTD.s:25855  .debug_str:000000000001623e .LASF771
C:\Users\CYMR90~1\AppData\Local\Temp\ccYj4tTD.s:29418  .debug_str:0000000000024555 .LASF772
C:\Users\CYMR90~1\AppData\Local\Temp\ccYj4tTD.s:29050  .debug_str:0000000000022e9e .LASF773
C:\Users\CYMR90~1\AppData\Local\Temp\ccYj4tTD.s:27526  .debug_str:000000000001d150 .LASF774
C:\Users\CYMR90~1\AppData\Local\Temp\ccYj4tTD.s:29752  .debug_str:0000000000025cb9 .LASF775
C:\Users\CYMR90~1\AppData\Local\Temp\ccYj4tTD.s:22837  .debug_str:000000000000a0f4 .LASF776
C:\Users\CYMR90~1\AppData\Local\Temp\ccYj4tTD.s:22853  .debug_str:000000000000a1f8 .LASF777
C:\Users\CYMR90~1\AppData\Local\Temp\ccYj4tTD.s:27864  .debug_str:000000000001e65e .LASF778
C:\Users\CYMR90~1\AppData\Local\Temp\ccYj4tTD.s:24355  .debug_str:0000000000010286 .LASF779
C:\Users\CYMR90~1\AppData\Local\Temp\ccYj4tTD.s:28114  .debug_str:000000000001f591 .LASF780
C:\Users\CYMR90~1\AppData\Local\Temp\ccYj4tTD.s:28748  .debug_str:0000000000021cc6 .LASF781
C:\Users\CYMR90~1\AppData\Local\Temp\ccYj4tTD.s:24839  .debug_str:000000000001217f .LASF782
C:\Users\CYMR90~1\AppData\Local\Temp\ccYj4tTD.s:25981  .debug_str:0000000000016b43 .LASF783
C:\Users\CYMR90~1\AppData\Local\Temp\ccYj4tTD.s:24739  .debug_str:0000000000011b27 .LASF784
C:\Users\CYMR90~1\AppData\Local\Temp\ccYj4tTD.s:24035  .debug_str:000000000000ee7e .LASF785
C:\Users\CYMR90~1\AppData\Local\Temp\ccYj4tTD.s:29118  .debug_str:000000000002324d .LASF786
C:\Users\CYMR90~1\AppData\Local\Temp\ccYj4tTD.s:27080  .debug_str:000000000001b448 .LASF787
C:\Users\CYMR90~1\AppData\Local\Temp\ccYj4tTD.s:27798  .debug_str:000000000001e28d .LASF788
C:\Users\CYMR90~1\AppData\Local\Temp\ccYj4tTD.s:24209  .debug_str:000000000000f970 .LASF789
C:\Users\CYMR90~1\AppData\Local\Temp\ccYj4tTD.s:21661  .debug_str:000000000000561c .LASF790
C:\Users\CYMR90~1\AppData\Local\Temp\ccYj4tTD.s:30108  .debug_str:0000000000027319 .LASF791
C:\Users\CYMR90~1\AppData\Local\Temp\ccYj4tTD.s:22421  .debug_str:00000000000086ea .LASF792
C:\Users\CYMR90~1\AppData\Local\Temp\ccYj4tTD.s:31512  .debug_str:000000000002cc52 .LASF793
C:\Users\CYMR90~1\AppData\Local\Temp\ccYj4tTD.s:22205  .debug_str:0000000000007814 .LASF794
C:\Users\CYMR90~1\AppData\Local\Temp\ccYj4tTD.s:30356  .debug_str:00000000000283ed .LASF795
C:\Users\CYMR90~1\AppData\Local\Temp\ccYj4tTD.s:28356  .debug_str:0000000000020445 .LASF796
C:\Users\CYMR90~1\AppData\Local\Temp\ccYj4tTD.s:31072  .debug_str:000000000002afca .LASF797
C:\Users\CYMR90~1\AppData\Local\Temp\ccYj4tTD.s:22039  .debug_str:0000000000006ceb .LASF798
C:\Users\CYMR90~1\AppData\Local\Temp\ccYj4tTD.s:30418  .debug_str:000000000002884b .LASF799
C:\Users\CYMR90~1\AppData\Local\Temp\ccYj4tTD.s:21627  .debug_str:000000000000540d .LASF800
C:\Users\CYMR90~1\AppData\Local\Temp\ccYj4tTD.s:26856  .debug_str:000000000001a5b0 .LASF801
C:\Users\CYMR90~1\AppData\Local\Temp\ccYj4tTD.s:26888  .debug_str:000000000001a780 .LASF802
C:\Users\CYMR90~1\AppData\Local\Temp\ccYj4tTD.s:22759  .debug_str:0000000000009c17 .LASF803
C:\Users\CYMR90~1\AppData\Local\Temp\ccYj4tTD.s:25239  .debug_str:0000000000013b95 .LASF804
C:\Users\CYMR90~1\AppData\Local\Temp\ccYj4tTD.s:22053  .debug_str:0000000000006db2 .LASF805
C:\Users\CYMR90~1\AppData\Local\Temp\ccYj4tTD.s:24695  .debug_str:00000000000117c5 .LASF806
C:\Users\CYMR90~1\AppData\Local\Temp\ccYj4tTD.s:27820  .debug_str:000000000001e3a3 .LASF807
C:\Users\CYMR90~1\AppData\Local\Temp\ccYj4tTD.s:27410  .debug_str:000000000001c8d0 .LASF808
C:\Users\CYMR90~1\AppData\Local\Temp\ccYj4tTD.s:29822  .debug_str:0000000000026124 .LASF809
C:\Users\CYMR90~1\AppData\Local\Temp\ccYj4tTD.s:31284  .debug_str:000000000002bd60 .LASF810
C:\Users\CYMR90~1\AppData\Local\Temp\ccYj4tTD.s:22445  .debug_str:000000000000885e .LASF811
C:\Users\CYMR90~1\AppData\Local\Temp\ccYj4tTD.s:21357  .debug_str:00000000000042a0 .LASF812
C:\Users\CYMR90~1\AppData\Local\Temp\ccYj4tTD.s:31318  .debug_str:000000000002c005 .LASF813
C:\Users\CYMR90~1\AppData\Local\Temp\ccYj4tTD.s:21723  .debug_str:00000000000059b2 .LASF814
C:\Users\CYMR90~1\AppData\Local\Temp\ccYj4tTD.s:21947  .debug_str:0000000000006729 .LASF815
C:\Users\CYMR90~1\AppData\Local\Temp\ccYj4tTD.s:27186  .debug_str:000000000001ba3a .LASF816
C:\Users\CYMR90~1\AppData\Local\Temp\ccYj4tTD.s:22623  .debug_str:000000000000937c .LASF817
C:\Users\CYMR90~1\AppData\Local\Temp\ccYj4tTD.s:27326  .debug_str:000000000001c32b .LASF818
C:\Users\CYMR90~1\AppData\Local\Temp\ccYj4tTD.s:27220  .debug_str:000000000001bc49 .LASF819
C:\Users\CYMR90~1\AppData\Local\Temp\ccYj4tTD.s:20467  .debug_str:0000000000000b0a .LASF820
C:\Users\CYMR90~1\AppData\Local\Temp\ccYj4tTD.s:30908  .debug_str:000000000002a5b6 .LASF821
C:\Users\CYMR90~1\AppData\Local\Temp\ccYj4tTD.s:29414  .debug_str:0000000000024525 .LASF822
C:\Users\CYMR90~1\AppData\Local\Temp\ccYj4tTD.s:22589  .debug_str:000000000000915e .LASF823
C:\Users\CYMR90~1\AppData\Local\Temp\ccYj4tTD.s:25903  .debug_str:000000000001657f .LASF824
C:\Users\CYMR90~1\AppData\Local\Temp\ccYj4tTD.s:27512  .debug_str:000000000001d078 .LASF825
C:\Users\CYMR90~1\AppData\Local\Temp\ccYj4tTD.s:25695  .debug_str:00000000000157c3 .LASF826
C:\Users\CYMR90~1\AppData\Local\Temp\ccYj4tTD.s:21245  .debug_str:0000000000003b1f .LASF827
C:\Users\CYMR90~1\AppData\Local\Temp\ccYj4tTD.s:24015  .debug_str:000000000000ed71 .LASF828
C:\Users\CYMR90~1\AppData\Local\Temp\ccYj4tTD.s:29522  .debug_str:0000000000024c31 .LASF829
C:\Users\CYMR90~1\AppData\Local\Temp\ccYj4tTD.s:29692  .debug_str:00000000000258e0 .LASF830
C:\Users\CYMR90~1\AppData\Local\Temp\ccYj4tTD.s:23195  .debug_str:000000000000b8ed .LASF831
C:\Users\CYMR90~1\AppData\Local\Temp\ccYj4tTD.s:23961  .debug_str:000000000000ea43 .LASF832
C:\Users\CYMR90~1\AppData\Local\Temp\ccYj4tTD.s:21809  .debug_str:0000000000005ec0 .LASF833
C:\Users\CYMR90~1\AppData\Local\Temp\ccYj4tTD.s:24597  .debug_str:00000000000110fd .LASF834
C:\Users\CYMR90~1\AppData\Local\Temp\ccYj4tTD.s:26376  .debug_str:0000000000018513 .LASF835
C:\Users\CYMR90~1\AppData\Local\Temp\ccYj4tTD.s:24501  .debug_str:0000000000010b4b .LASF836
C:\Users\CYMR90~1\AppData\Local\Temp\ccYj4tTD.s:28264  .debug_str:000000000001feea .LASF837
C:\Users\CYMR90~1\AppData\Local\Temp\ccYj4tTD.s:22491  .debug_str:0000000000008b7d .LASF838
C:\Users\CYMR90~1\AppData\Local\Temp\ccYj4tTD.s:21649  .debug_str:000000000000557d .LASF839
C:\Users\CYMR90~1\AppData\Local\Temp\ccYj4tTD.s:24401  .debug_str:00000000000104fc .LASF840
C:\Users\CYMR90~1\AppData\Local\Temp\ccYj4tTD.s:23327  .debug_str:000000000000c218 .LASF841
C:\Users\CYMR90~1\AppData\Local\Temp\ccYj4tTD.s:27426  .debug_str:000000000001c9de .LASF842
C:\Users\CYMR90~1\AppData\Local\Temp\ccYj4tTD.s:20537  .debug_str:0000000000000f9e .LASF843
C:\Users\CYMR90~1\AppData\Local\Temp\ccYj4tTD.s:20899  .debug_str:00000000000024d2 .LASF844
C:\Users\CYMR90~1\AppData\Local\Temp\ccYj4tTD.s:29274  .debug_str:0000000000023bf8 .LASF845
C:\Users\CYMR90~1\AppData\Local\Temp\ccYj4tTD.s:20297  .debug_str:0000000000000096 .LASF846
C:\Users\CYMR90~1\AppData\Local\Temp\ccYj4tTD.s:22287  .debug_str:0000000000007de6 .LASF847
C:\Users\CYMR90~1\AppData\Local\Temp\ccYj4tTD.s:28120  .debug_str:000000000001f5df .LASF848
C:\Users\CYMR90~1\AppData\Local\Temp\ccYj4tTD.s:22253  .debug_str:0000000000007b2b .LASF849
C:\Users\CYMR90~1\AppData\Local\Temp\ccYj4tTD.s:23621  .debug_str:000000000000d594 .LASF852
C:\Users\CYMR90~1\AppData\Local\Temp\ccYj4tTD.s:30468  .debug_str:0000000000028b5c .LASF853
C:\Users\CYMR90~1\AppData\Local\Temp\ccYj4tTD.s:25545  .debug_str:0000000000014f04 .LASF854
C:\Users\CYMR90~1\AppData\Local\Temp\ccYj4tTD.s:28758  .debug_str:0000000000021d74 .LASF856
C:\Users\CYMR90~1\AppData\Local\Temp\ccYj4tTD.s:27650  .debug_str:000000000001d923 .LASF857
C:\Users\CYMR90~1\AppData\Local\Temp\ccYj4tTD.s:30290  .debug_str:0000000000027e8a .LASF858
C:\Users\CYMR90~1\AppData\Local\Temp\ccYj4tTD.s:23609  .debug_str:000000000000d4c5 .LASF859
C:\Users\CYMR90~1\AppData\Local\Temp\ccYj4tTD.s:24551  .debug_str:0000000000010e54 .LASF860
C:\Users\CYMR90~1\AppData\Local\Temp\ccYj4tTD.s:28688  .debug_str:0000000000021901 .LASF861
C:\Users\CYMR90~1\AppData\Local\Temp\ccYj4tTD.s:27856  .debug_str:000000000001e60e .LASF862
C:\Users\CYMR90~1\AppData\Local\Temp\ccYj4tTD.s:20633  .debug_str:00000000000014c1 .LASF863
C:\Users\CYMR90~1\AppData\Local\Temp\ccYj4tTD.s:21301  .debug_str:0000000000003e72 .LASF864
C:\Users\CYMR90~1\AppData\Local\Temp\ccYj4tTD.s:21695  .debug_str:0000000000005818 .LASF865
C:\Users\CYMR90~1\AppData\Local\Temp\ccYj4tTD.s:22887  .debug_str:000000000000a431 .LASF866
C:\Users\CYMR90~1\AppData\Local\Temp\ccYj4tTD.s:22359  .debug_str:0000000000008338 .LASF867
C:\Users\CYMR90~1\AppData\Local\Temp\ccYj4tTD.s:27580  .debug_str:000000000001d45c .LASF868
C:\Users\CYMR90~1\AppData\Local\Temp\ccYj4tTD.s:28204  .debug_str:000000000001fb13 .LASF869
C:\Users\CYMR90~1\AppData\Local\Temp\ccYj4tTD.s:29288  .debug_str:0000000000023cbe .LASF870
C:\Users\CYMR90~1\AppData\Local\Temp\ccYj4tTD.s:22529  .debug_str:0000000000008e01 .LASF871
C:\Users\CYMR90~1\AppData\Local\Temp\ccYj4tTD.s:22963  .debug_str:000000000000a979 .LASF872
C:\Users\CYMR90~1\AppData\Local\Temp\ccYj4tTD.s:27418  .debug_str:000000000001c96c .LASF873
C:\Users\CYMR90~1\AppData\Local\Temp\ccYj4tTD.s:29992  .debug_str:0000000000026b58 .LASF874
C:\Users\CYMR90~1\AppData\Local\Temp\ccYj4tTD.s:24759  .debug_str:0000000000011c3f .LASF875
C:\Users\CYMR90~1\AppData\Local\Temp\ccYj4tTD.s:25451  .debug_str:00000000000148d3 .LASF876
C:\Users\CYMR90~1\AppData\Local\Temp\ccYj4tTD.s:22765  .debug_str:0000000000009c6c .LASF877
C:\Users\CYMR90~1\AppData\Local\Temp\ccYj4tTD.s:27126  .debug_str:000000000001b703 .LASF878
C:\Users\CYMR90~1\AppData\Local\Temp\ccYj4tTD.s:30760  .debug_str:0000000000029d50 .LASF879
C:\Users\CYMR90~1\AppData\Local\Temp\ccYj4tTD.s:26088  .debug_str:000000000001733c .LASF880
C:\Users\CYMR90~1\AppData\Local\Temp\ccYj4tTD.s:21629  .debug_str:0000000000005426 .LASF881
C:\Users\CYMR90~1\AppData\Local\Temp\ccYj4tTD.s:24979  .debug_str:0000000000012aab .LASF882
C:\Users\CYMR90~1\AppData\Local\Temp\ccYj4tTD.s:28092  .debug_str:000000000001f463 .LASF883
C:\Users\CYMR90~1\AppData\Local\Temp\ccYj4tTD.s:28276  .debug_str:000000000001ff93 .LASF884
C:\Users\CYMR90~1\AppData\Local\Temp\ccYj4tTD.s:31566  .debug_str:000000000002cfc2 .LASF885
C:\Users\CYMR90~1\AppData\Local\Temp\ccYj4tTD.s:27132  .debug_str:000000000001b75b .LASF886
C:\Users\CYMR90~1\AppData\Local\Temp\ccYj4tTD.s:22635  .debug_str:0000000000009423 .LASF887
C:\Users\CYMR90~1\AppData\Local\Temp\ccYj4tTD.s:29238  .debug_str:00000000000239ed .LASF888
C:\Users\CYMR90~1\AppData\Local\Temp\ccYj4tTD.s:24917  .debug_str:0000000000012675 .LASF889
C:\Users\CYMR90~1\AppData\Local\Temp\ccYj4tTD.s:29168  .debug_str:0000000000023545 .LASF890
C:\Users\CYMR90~1\AppData\Local\Temp\ccYj4tTD.s:21451  .debug_str:000000000000497a .LASF891
C:\Users\CYMR90~1\AppData\Local\Temp\ccYj4tTD.s:23907  .debug_str:000000000000e6dc .LASF892
C:\Users\CYMR90~1\AppData\Local\Temp\ccYj4tTD.s:29936  .debug_str:000000000002680d .LASF893
C:\Users\CYMR90~1\AppData\Local\Temp\ccYj4tTD.s:29330  .debug_str:0000000000023ee9 .LASF894
C:\Users\CYMR90~1\AppData\Local\Temp\ccYj4tTD.s:20605  .debug_str:000000000000134b .LASF895
C:\Users\CYMR90~1\AppData\Local\Temp\ccYj4tTD.s:25303  .debug_str:0000000000013f79 .LASF896
C:\Users\CYMR90~1\AppData\Local\Temp\ccYj4tTD.s:21539  .debug_str:0000000000004ec4 .LASF897
C:\Users\CYMR90~1\AppData\Local\Temp\ccYj4tTD.s:22755  .debug_str:0000000000009bd8 .LASF898
C:\Users\CYMR90~1\AppData\Local\Temp\ccYj4tTD.s:30236  .debug_str:0000000000027b00 .LASF899
C:\Users\CYMR90~1\AppData\Local\Temp\ccYj4tTD.s:23075  .debug_str:000000000000b130 .LASF900
C:\Users\CYMR90~1\AppData\Local\Temp\ccYj4tTD.s:27178  .debug_str:000000000001b9b2 .LASF901
C:\Users\CYMR90~1\AppData\Local\Temp\ccYj4tTD.s:30776  .debug_str:0000000000029e3d .LASF902
C:\Users\CYMR90~1\AppData\Local\Temp\ccYj4tTD.s:29520  .debug_str:0000000000024c0b .LASF903
C:\Users\CYMR90~1\AppData\Local\Temp\ccYj4tTD.s:30378  .debug_str:0000000000028558 .LASF904
C:\Users\CYMR90~1\AppData\Local\Temp\ccYj4tTD.s:24963  .debug_str:000000000001299d .LASF905
C:\Users\CYMR90~1\AppData\Local\Temp\ccYj4tTD.s:22409  .debug_str:0000000000008650 .LASF906
C:\Users\CYMR90~1\AppData\Local\Temp\ccYj4tTD.s:30948  .debug_str:000000000002a879 .LASF907
C:\Users\CYMR90~1\AppData\Local\Temp\ccYj4tTD.s:23903  .debug_str:000000000000e699 .LASF908
C:\Users\CYMR90~1\AppData\Local\Temp\ccYj4tTD.s:30212  .debug_str:0000000000027940 .LASF909
C:\Users\CYMR90~1\AppData\Local\Temp\ccYj4tTD.s:24521  .debug_str:0000000000010ccf .LASF910
C:\Users\CYMR90~1\AppData\Local\Temp\ccYj4tTD.s:20995  .debug_str:0000000000002b3b .LASF911
C:\Users\CYMR90~1\AppData\Local\Temp\ccYj4tTD.s:20577  .debug_str:00000000000011e2 .LASF912
C:\Users\CYMR90~1\AppData\Local\Temp\ccYj4tTD.s:28608  .debug_str:000000000002142b .LASF913
C:\Users\CYMR90~1\AppData\Local\Temp\ccYj4tTD.s:29502  .debug_str:0000000000024adb .LASF914
C:\Users\CYMR90~1\AppData\Local\Temp\ccYj4tTD.s:23451  .debug_str:000000000000ca51 .LASF915
C:\Users\CYMR90~1\AppData\Local\Temp\ccYj4tTD.s:23767  .debug_str:000000000000de59 .LASF916
C:\Users\CYMR90~1\AppData\Local\Temp\ccYj4tTD.s:24337  .debug_str:0000000000010158 .LASF917
C:\Users\CYMR90~1\AppData\Local\Temp\ccYj4tTD.s:31024  .debug_str:000000000002acb1 .LASF918
C:\Users\CYMR90~1\AppData\Local\Temp\ccYj4tTD.s:20561  .debug_str:00000000000010dd .LASF919
C:\Users\CYMR90~1\AppData\Local\Temp\ccYj4tTD.s:23063  .debug_str:000000000000b065 .LASF920
C:\Users\CYMR90~1\AppData\Local\Temp\ccYj4tTD.s:29454  .debug_str:000000000002477e .LASF921
C:\Users\CYMR90~1\AppData\Local\Temp\ccYj4tTD.s:26882  .debug_str:000000000001a70e .LASF922
C:\Users\CYMR90~1\AppData\Local\Temp\ccYj4tTD.s:29972  .debug_str:0000000000026a19 .LASF923
C:\Users\CYMR90~1\AppData\Local\Temp\ccYj4tTD.s:26020  .debug_str:0000000000016f45 .LASF924
C:\Users\CYMR90~1\AppData\Local\Temp\ccYj4tTD.s:20953  .debug_str:0000000000002873 .LASF925
C:\Users\CYMR90~1\AppData\Local\Temp\ccYj4tTD.s:27090  .debug_str:000000000001b4d6 .LASF926
C:\Users\CYMR90~1\AppData\Local\Temp\ccYj4tTD.s:20675  .debug_str:00000000000017d8 .LASF927
C:\Users\CYMR90~1\AppData\Local\Temp\ccYj4tTD.s:25479  .debug_str:0000000000014a6f .LASF928
C:\Users\CYMR90~1\AppData\Local\Temp\ccYj4tTD.s:28152  .debug_str:000000000001f7a9 .LASF929
C:\Users\CYMR90~1\AppData\Local\Temp\ccYj4tTD.s:31282  .debug_str:000000000002bd43 .LASF930
C:\Users\CYMR90~1\AppData\Local\Temp\ccYj4tTD.s:31504  .debug_str:000000000002cbe6 .LASF931
C:\Users\CYMR90~1\AppData\Local\Temp\ccYj4tTD.s:28052  .debug_str:000000000001f1ce .LASF932
C:\Users\CYMR90~1\AppData\Local\Temp\ccYj4tTD.s:30754  .debug_str:0000000000029cdd .LASF933
C:\Users\CYMR90~1\AppData\Local\Temp\ccYj4tTD.s:25819  .debug_str:0000000000016019 .LASF934
C:\Users\CYMR90~1\AppData\Local\Temp\ccYj4tTD.s:26650  .debug_str:0000000000019714 .LASF935
C:\Users\CYMR90~1\AppData\Local\Temp\ccYj4tTD.s:25699  .debug_str:00000000000157f8 .LASF936
C:\Users\CYMR90~1\AppData\Local\Temp\ccYj4tTD.s:29592  .debug_str:0000000000025123 .LASF937
C:\Users\CYMR90~1\AppData\Local\Temp\ccYj4tTD.s:20485  .debug_str:0000000000000c3d .LASF938
C:\Users\CYMR90~1\AppData\Local\Temp\ccYj4tTD.s:28420  .debug_str:0000000000020899 .LASF939
C:\Users\CYMR90~1\AppData\Local\Temp\ccYj4tTD.s:29678  .debug_str:0000000000025790 .LASF940
C:\Users\CYMR90~1\AppData\Local\Temp\ccYj4tTD.s:23197  .debug_str:000000000000b90b .LASF941
C:\Users\CYMR90~1\AppData\Local\Temp\ccYj4tTD.s:26870  .debug_str:000000000001a655 .LASF942
C:\Users\CYMR90~1\AppData\Local\Temp\ccYj4tTD.s:23947  .debug_str:000000000000e931 .LASF943
C:\Users\CYMR90~1\AppData\Local\Temp\ccYj4tTD.s:29800  .debug_str:0000000000025fb5 .LASF944
C:\Users\CYMR90~1\AppData\Local\Temp\ccYj4tTD.s:27268  .debug_str:000000000001bfac .LASF945
C:\Users\CYMR90~1\AppData\Local\Temp\ccYj4tTD.s:24153  .debug_str:000000000000f588 .LASF946
C:\Users\CYMR90~1\AppData\Local\Temp\ccYj4tTD.s:26164  .debug_str:00000000000177e0 .LASF947
C:\Users\CYMR90~1\AppData\Local\Temp\ccYj4tTD.s:27782  .debug_str:000000000001e1a7 .LASF948
C:\Users\CYMR90~1\AppData\Local\Temp\ccYj4tTD.s:24497  .debug_str:0000000000010b0d .LASF949
C:\Users\CYMR90~1\AppData\Local\Temp\ccYj4tTD.s:23515  .debug_str:000000000000ce33 .LASF950
C:\Users\CYMR90~1\AppData\Local\Temp\ccYj4tTD.s:22113  .debug_str:0000000000007242 .LASF952
C:\Users\CYMR90~1\AppData\Local\Temp\ccYj4tTD.s:25623  .debug_str:00000000000153bb .LASF953
C:\Users\CYMR90~1\AppData\Local\Temp\ccYj4tTD.s:23549  .debug_str:000000000000d06d .LASF954
C:\Users\CYMR90~1\AppData\Local\Temp\ccYj4tTD.s:31496  .debug_str:000000000002cb71 .LASF955
C:\Users\CYMR90~1\AppData\Local\Temp\ccYj4tTD.s:30656  .debug_str:00000000000296e0 .LASF956
C:\Users\CYMR90~1\AppData\Local\Temp\ccYj4tTD.s:30744  .debug_str:0000000000029c47 .LASF960
C:\Users\CYMR90~1\AppData\Local\Temp\ccYj4tTD.s:22661  .debug_str:000000000000960f .LASF961
C:\Users\CYMR90~1\AppData\Local\Temp\ccYj4tTD.s:30002  .debug_str:0000000000026bee .LASF962
C:\Users\CYMR90~1\AppData\Local\Temp\ccYj4tTD.s:24731  .debug_str:0000000000011aab .LASF963
C:\Users\CYMR90~1\AppData\Local\Temp\ccYj4tTD.s:22139  .debug_str:0000000000007429 .LASF964
C:\Users\CYMR90~1\AppData\Local\Temp\ccYj4tTD.s:28792  .debug_str:0000000000021f48 .LASF965
C:\Users\CYMR90~1\AppData\Local\Temp\ccYj4tTD.s:27084  .debug_str:000000000001b46a .LASF966
C:\Users\CYMR90~1\AppData\Local\Temp\ccYj4tTD.s:29942  .debug_str:0000000000026869 .LASF967
C:\Users\CYMR90~1\AppData\Local\Temp\ccYj4tTD.s:31066  .debug_str:000000000002af5c .LASF968
C:\Users\CYMR90~1\AppData\Local\Temp\ccYj4tTD.s:21867  .debug_str:000000000000625e .LASF969
C:\Users\CYMR90~1\AppData\Local\Temp\ccYj4tTD.s:25343  .debug_str:000000000001422b .LASF970
C:\Users\CYMR90~1\AppData\Local\Temp\ccYj4tTD.s:31154  .debug_str:000000000002b4fe .LASF971
C:\Users\CYMR90~1\AppData\Local\Temp\ccYj4tTD.s:23957  .debug_str:000000000000e9fd .LASF972
C:\Users\CYMR90~1\AppData\Local\Temp\ccYj4tTD.s:23925  .debug_str:000000000000e802 .LASF973
C:\Users\CYMR90~1\AppData\Local\Temp\ccYj4tTD.s:23573  .debug_str:000000000000d1e7 .LASF974
C:\Users\CYMR90~1\AppData\Local\Temp\ccYj4tTD.s:25953  .debug_str:000000000001688e .LASF975
C:\Users\CYMR90~1\AppData\Local\Temp\ccYj4tTD.s:31530  .debug_str:000000000002cd25 .LASF976
C:\Users\CYMR90~1\AppData\Local\Temp\ccYj4tTD.s:23511  .debug_str:000000000000cdee .LASF977
C:\Users\CYMR90~1\AppData\Local\Temp\ccYj4tTD.s:31554  .debug_str:000000000002cf31 .LASF978
C:\Users\CYMR90~1\AppData\Local\Temp\ccYj4tTD.s:29782  .debug_str:0000000000025e74 .LASF979
C:\Users\CYMR90~1\AppData\Local\Temp\ccYj4tTD.s:29842  .debug_str:0000000000026259 .LASF980
C:\Users\CYMR90~1\AppData\Local\Temp\ccYj4tTD.s:24013  .debug_str:000000000000ed57 .LASF981
C:\Users\CYMR90~1\AppData\Local\Temp\ccYj4tTD.s:21577  .debug_str:000000000000510b .LASF982
C:\Users\CYMR90~1\AppData\Local\Temp\ccYj4tTD.s:24755  .debug_str:0000000000011c22 .LASF983
C:\Users\CYMR90~1\AppData\Local\Temp\ccYj4tTD.s:27490  .debug_str:000000000001ce7a .LASF984
C:\Users\CYMR90~1\AppData\Local\Temp\ccYj4tTD.s:27504  .debug_str:000000000001cf66 .LASF985
C:\Users\CYMR90~1\AppData\Local\Temp\ccYj4tTD.s:29082  .debug_str:0000000000023074 .LASF986
C:\Users\CYMR90~1\AppData\Local\Temp\ccYj4tTD.s:25767  .debug_str:0000000000015c5c .LASF987
C:\Users\CYMR90~1\AppData\Local\Temp\ccYj4tTD.s:21013  .debug_str:0000000000002c4e .LASF988
C:\Users\CYMR90~1\AppData\Local\Temp\ccYj4tTD.s:28996  .debug_str:0000000000022bc1 .LASF989
C:\Users\CYMR90~1\AppData\Local\Temp\ccYj4tTD.s:26468  .debug_str:0000000000018aac .LASF990
C:\Users\CYMR90~1\AppData\Local\Temp\ccYj4tTD.s:23507  .debug_str:000000000000cdc6 .LASF991
C:\Users\CYMR90~1\AppData\Local\Temp\ccYj4tTD.s:29944  .debug_str:0000000000026891 .LASF992
C:\Users\CYMR90~1\AppData\Local\Temp\ccYj4tTD.s:22157  .debug_str:0000000000007526 .LASF993
C:\Users\CYMR90~1\AppData\Local\Temp\ccYj4tTD.s:29762  .debug_str:0000000000025d23 .LASF994
C:\Users\CYMR90~1\AppData\Local\Temp\ccYj4tTD.s:26552  .debug_str:000000000001914e .LASF995
C:\Users\CYMR90~1\AppData\Local\Temp\ccYj4tTD.s:30556  .debug_str:00000000000290b0 .LASF996
C:\Users\CYMR90~1\AppData\Local\Temp\ccYj4tTD.s:27694  .debug_str:000000000001dbae .LASF997
C:\Users\CYMR90~1\AppData\Local\Temp\ccYj4tTD.s:27764  .debug_str:000000000001e08d .LASF998
C:\Users\CYMR90~1\AppData\Local\Temp\ccYj4tTD.s:20911  .debug_str:0000000000002566 .LASF999
C:\Users\CYMR90~1\AppData\Local\Temp\ccYj4tTD.s:21251  .debug_str:0000000000003b77 .LASF1000
C:\Users\CYMR90~1\AppData\Local\Temp\ccYj4tTD.s:29430  .debug_str:0000000000024613 .LASF1001
C:\Users\CYMR90~1\AppData\Local\Temp\ccYj4tTD.s:24345  .debug_str:00000000000101e0 .LASF1002
C:\Users\CYMR90~1\AppData\Local\Temp\ccYj4tTD.s:21531  .debug_str:0000000000004e6b .LASF1003
C:\Users\CYMR90~1\AppData\Local\Temp\ccYj4tTD.s:27310  .debug_str:000000000001c244 .LASF1004
C:\Users\CYMR90~1\AppData\Local\Temp\ccYj4tTD.s:24709  .debug_str:00000000000118c6 .LASF1005
C:\Users\CYMR90~1\AppData\Local\Temp\ccYj4tTD.s:23469  .debug_str:000000000000cb89 .LASF1006
C:\Users\CYMR90~1\AppData\Local\Temp\ccYj4tTD.s:21841  .debug_str:00000000000060c7 .LASF1007
C:\Users\CYMR90~1\AppData\Local\Temp\ccYj4tTD.s:28788  .debug_str:0000000000021f10 .LASF1008
C:\Users\CYMR90~1\AppData\Local\Temp\ccYj4tTD.s:26246  .debug_str:0000000000017cfe .LASF1009
C:\Users\CYMR90~1\AppData\Local\Temp\ccYj4tTD.s:26400  .debug_str:000000000001865f .LASF1010
C:\Users\CYMR90~1\AppData\Local\Temp\ccYj4tTD.s:23783  .debug_str:000000000000df5d .LASF1011
C:\Users\CYMR90~1\AppData\Local\Temp\ccYj4tTD.s:27550  .debug_str:000000000001d29b .LASF1012
C:\Users\CYMR90~1\AppData\Local\Temp\ccYj4tTD.s:29000  .debug_str:0000000000022bec .LASF1013
C:\Users\CYMR90~1\AppData\Local\Temp\ccYj4tTD.s:26668  .debug_str:000000000001989e .LASF1014
C:\Users\CYMR90~1\AppData\Local\Temp\ccYj4tTD.s:21249  .debug_str:0000000000003b61 .LASF1015
C:\Users\CYMR90~1\AppData\Local\Temp\ccYj4tTD.s:21731  .debug_str:0000000000005a0f .LASF1016
C:\Users\CYMR90~1\AppData\Local\Temp\ccYj4tTD.s:21685  .debug_str:000000000000576d .LASF1017
C:\Users\CYMR90~1\AppData\Local\Temp\ccYj4tTD.s:30098  .debug_str:00000000000271d9 .LASF1018
C:\Users\CYMR90~1\AppData\Local\Temp\ccYj4tTD.s:24023  .debug_str:000000000000edd9 .LASF1019
C:\Users\CYMR90~1\AppData\Local\Temp\ccYj4tTD.s:20905  .debug_str:000000000000251d .LASF1020
C:\Users\CYMR90~1\AppData\Local\Temp\ccYj4tTD.s:26282  .debug_str:0000000000017f48 .LASF1021
C:\Users\CYMR90~1\AppData\Local\Temp\ccYj4tTD.s:23325  .debug_str:000000000000c200 .LASF1022
C:\Users\CYMR90~1\AppData\Local\Temp\ccYj4tTD.s:30022  .debug_str:0000000000026d09 .LASF1023
C:\Users\CYMR90~1\AppData\Local\Temp\ccYj4tTD.s:22571  .debug_str:0000000000009086 .LASF1024
C:\Users\CYMR90~1\AppData\Local\Temp\ccYj4tTD.s:26858  .debug_str:000000000001a5ca .LASF1025
C:\Users\CYMR90~1\AppData\Local\Temp\ccYj4tTD.s:24525  .debug_str:0000000000010d10 .LASF1026
C:\Users\CYMR90~1\AppData\Local\Temp\ccYj4tTD.s:25471  .debug_str:00000000000149bb .LASF1027
C:\Users\CYMR90~1\AppData\Local\Temp\ccYj4tTD.s:27628  .debug_str:000000000001d780 .LASF1028
C:\Users\CYMR90~1\AppData\Local\Temp\ccYj4tTD.s:28010  .debug_str:000000000001ef28 .LASF1029
C:\Users\CYMR90~1\AppData\Local\Temp\ccYj4tTD.s:29306  .debug_str:0000000000023dd3 .LASF1030
C:\Users\CYMR90~1\AppData\Local\Temp\ccYj4tTD.s:28376  .debug_str:00000000000205f3 .LASF1031
C:\Users\CYMR90~1\AppData\Local\Temp\ccYj4tTD.s:30658  .debug_str:0000000000029748 .LASF1032
C:\Users\CYMR90~1\AppData\Local\Temp\ccYj4tTD.s:22715  .debug_str:0000000000009982 .LASF1033
C:\Users\CYMR90~1\AppData\Local\Temp\ccYj4tTD.s:21585  .debug_str:000000000000518d .LASF1034
C:\Users\CYMR90~1\AppData\Local\Temp\ccYj4tTD.s:26596  .debug_str:00000000000193d5 .LASF1035
C:\Users\CYMR90~1\AppData\Local\Temp\ccYj4tTD.s:26860  .debug_str:000000000001a5df .LASF1036
C:\Users\CYMR90~1\AppData\Local\Temp\ccYj4tTD.s:29096  .debug_str:000000000002310b .LASF1037
C:\Users\CYMR90~1\AppData\Local\Temp\ccYj4tTD.s:24191  .debug_str:000000000000f885 .LASF1038
C:\Users\CYMR90~1\AppData\Local\Temp\ccYj4tTD.s:27736  .debug_str:000000000001dee4 .LASF1039
C:\Users\CYMR90~1\AppData\Local\Temp\ccYj4tTD.s:25637  .debug_str:00000000000154b3 .LASF1040
C:\Users\CYMR90~1\AppData\Local\Temp\ccYj4tTD.s:24101  .debug_str:000000000000f265 .LASF1041
C:\Users\CYMR90~1\AppData\Local\Temp\ccYj4tTD.s:25927  .debug_str:00000000000166e0 .LASF1042
C:\Users\CYMR90~1\AppData\Local\Temp\ccYj4tTD.s:24347  .debug_str:00000000000101f7 .LASF1043
C:\Users\CYMR90~1\AppData\Local\Temp\ccYj4tTD.s:20317  .debug_str:00000000000001a2 .LASF1044
C:\Users\CYMR90~1\AppData\Local\Temp\ccYj4tTD.s:22583  .debug_str:000000000000910d .LASF1045
C:\Users\CYMR90~1\AppData\Local\Temp\ccYj4tTD.s:26790  .debug_str:000000000001a05c .LASF1046
C:\Users\CYMR90~1\AppData\Local\Temp\ccYj4tTD.s:25887  .debug_str:0000000000016413 .LASF1047
C:\Users\CYMR90~1\AppData\Local\Temp\ccYj4tTD.s:29140  .debug_str:000000000002338d .LASF1048
C:\Users\CYMR90~1\AppData\Local\Temp\ccYj4tTD.s:27976  .debug_str:000000000001ed17 .LASF1049
C:\Users\CYMR90~1\AppData\Local\Temp\ccYj4tTD.s:21087  .debug_str:0000000000003112 .LASF1050
C:\Users\CYMR90~1\AppData\Local\Temp\ccYj4tTD.s:27986  .debug_str:000000000001eda2 .LASF1051
C:\Users\CYMR90~1\AppData\Local\Temp\ccYj4tTD.s:28186  .debug_str:000000000001f9df .LASF1052
C:\Users\CYMR90~1\AppData\Local\Temp\ccYj4tTD.s:23073  .debug_str:000000000000b11e .LASF1053
C:\Users\CYMR90~1\AppData\Local\Temp\ccYj4tTD.s:29040  .debug_str:0000000000022e15 .LASF1054
C:\Users\CYMR90~1\AppData\Local\Temp\ccYj4tTD.s:25005  .debug_str:0000000000012c41 .LASF1055
C:\Users\CYMR90~1\AppData\Local\Temp\ccYj4tTD.s:23953  .debug_str:000000000000e9ab .LASF1056
C:\Users\CYMR90~1\AppData\Local\Temp\ccYj4tTD.s:30270  .debug_str:0000000000027d5e .LASF1057
C:\Users\CYMR90~1\AppData\Local\Temp\ccYj4tTD.s:30866  .debug_str:000000000002a343 .LASF1058
C:\Users\CYMR90~1\AppData\Local\Temp\ccYj4tTD.s:29590  .debug_str:0000000000025101 .LASF1059
C:\Users\CYMR90~1\AppData\Local\Temp\ccYj4tTD.s:22903  .debug_str:000000000000a51c .LASF1060
C:\Users\CYMR90~1\AppData\Local\Temp\ccYj4tTD.s:22389  .debug_str:000000000000852e .LASF1061
C:\Users\CYMR90~1\AppData\Local\Temp\ccYj4tTD.s:20449  .debug_str:00000000000009a2 .LASF1062
C:\Users\CYMR90~1\AppData\Local\Temp\ccYj4tTD.s:25379  .debug_str:0000000000014410 .LASF1063
C:\Users\CYMR90~1\AppData\Local\Temp\ccYj4tTD.s:21297  .debug_str:0000000000003e50 .LASF1064
C:\Users\CYMR90~1\AppData\Local\Temp\ccYj4tTD.s:20391  .debug_str:000000000000060f .LASF1065
C:\Users\CYMR90~1\AppData\Local\Temp\ccYj4tTD.s:31560  .debug_str:000000000002cf7a .LASF1066
C:\Users\CYMR90~1\AppData\Local\Temp\ccYj4tTD.s:29432  .debug_str:000000000002462b .LASF1067
C:\Users\CYMR90~1\AppData\Local\Temp\ccYj4tTD.s:25951  .debug_str:0000000000016874 .LASF1068
C:\Users\CYMR90~1\AppData\Local\Temp\ccYj4tTD.s:27520  .debug_str:000000000001d0eb .LASF1069
C:\Users\CYMR90~1\AppData\Local\Temp\ccYj4tTD.s:20503  .debug_str:0000000000000d2f .LASF1070
C:\Users\CYMR90~1\AppData\Local\Temp\ccYj4tTD.s:22843  .debug_str:000000000000a148 .LASF1071
C:\Users\CYMR90~1\AppData\Local\Temp\ccYj4tTD.s:28942  .debug_str:000000000002282f .LASF1072
C:\Users\CYMR90~1\AppData\Local\Temp\ccYj4tTD.s:27486  .debug_str:000000000001ce38 .LASF1073
C:\Users\CYMR90~1\AppData\Local\Temp\ccYj4tTD.s:30520  .debug_str:0000000000028e46 .LASF1074
C:\Users\CYMR90~1\AppData\Local\Temp\ccYj4tTD.s:26096  .debug_str:000000000001739d .LASF1075
C:\Users\CYMR90~1\AppData\Local\Temp\ccYj4tTD.s:20947  .debug_str:0000000000002823 .LASF1076
C:\Users\CYMR90~1\AppData\Local\Temp\ccYj4tTD.s:30954  .debug_str:000000000002a8c8 .LASF1077
C:\Users\CYMR90~1\AppData\Local\Temp\ccYj4tTD.s:21903  .debug_str:0000000000006497 .LASF1078
C:\Users\CYMR90~1\AppData\Local\Temp\ccYj4tTD.s:28418  .debug_str:0000000000020887 .LASF1079
C:\Users\CYMR90~1\AppData\Local\Temp\ccYj4tTD.s:23795  .debug_str:000000000000e011 .LASF1080
C:\Users\CYMR90~1\AppData\Local\Temp\ccYj4tTD.s:27288  .debug_str:000000000001c0ef .LASF1081
C:\Users\CYMR90~1\AppData\Local\Temp\ccYj4tTD.s:30130  .debug_str:0000000000027484 .LASF1082
C:\Users\CYMR90~1\AppData\Local\Temp\ccYj4tTD.s:25579  .debug_str:0000000000015124 .LASF1083
C:\Users\CYMR90~1\AppData\Local\Temp\ccYj4tTD.s:28630  .debug_str:0000000000021591 .LASF1084
C:\Users\CYMR90~1\AppData\Local\Temp\ccYj4tTD.s:21607  .debug_str:00000000000052de .LASF1085
C:\Users\CYMR90~1\AppData\Local\Temp\ccYj4tTD.s:20709  .debug_str:00000000000019fc .LASF1086
C:\Users\CYMR90~1\AppData\Local\Temp\ccYj4tTD.s:23829  .debug_str:000000000000e1f6 .LASF1087
C:\Users\CYMR90~1\AppData\Local\Temp\ccYj4tTD.s:29840  .debug_str:000000000002624a .LASF1088
C:\Users\CYMR90~1\AppData\Local\Temp\ccYj4tTD.s:28936  .debug_str:00000000000227d7 .LASF1089
C:\Users\CYMR90~1\AppData\Local\Temp\ccYj4tTD.s:20555  .debug_str:0000000000001081 .LASF1090
C:\Users\CYMR90~1\AppData\Local\Temp\ccYj4tTD.s:31492  .debug_str:000000000002cb19 .LASF1091
C:\Users\CYMR90~1\AppData\Local\Temp\ccYj4tTD.s:30234  .debug_str:0000000000027ae8 .LASF1092
C:\Users\CYMR90~1\AppData\Local\Temp\ccYj4tTD.s:21417  .debug_str:00000000000046a6 .LASF1093
C:\Users\CYMR90~1\AppData\Local\Temp\ccYj4tTD.s:29884  .debug_str:00000000000264be .LASF1094
C:\Users\CYMR90~1\AppData\Local\Temp\ccYj4tTD.s:25653  .debug_str:000000000001555e .LASF1095
C:\Users\CYMR90~1\AppData\Local\Temp\ccYj4tTD.s:27106  .debug_str:000000000001b5bc .LASF1096
C:\Users\CYMR90~1\AppData\Local\Temp\ccYj4tTD.s:27632  .debug_str:000000000001d7d2 .LASF1097
C:\Users\CYMR90~1\AppData\Local\Temp\ccYj4tTD.s:21891  .debug_str:00000000000063f2 .LASF1098
C:\Users\CYMR90~1\AppData\Local\Temp\ccYj4tTD.s:25025  .debug_str:0000000000012d7a .LASF1099
C:\Users\CYMR90~1\AppData\Local\Temp\ccYj4tTD.s:24341  .debug_str:00000000000101af .LASF1100
C:\Users\CYMR90~1\AppData\Local\Temp\ccYj4tTD.s:29222  .debug_str:00000000000238f1 .LASF1101
C:\Users\CYMR90~1\AppData\Local\Temp\ccYj4tTD.s:23521  .debug_str:000000000000ce8d .LASF1102
C:\Users\CYMR90~1\AppData\Local\Temp\ccYj4tTD.s:28880  .debug_str:000000000002244c .LASF1103
C:\Users\CYMR90~1\AppData\Local\Temp\ccYj4tTD.s:30464  .debug_str:0000000000028b26 .LASF1104
C:\Users\CYMR90~1\AppData\Local\Temp\ccYj4tTD.s:28310  .debug_str:000000000002016e .LASF1105
C:\Users\CYMR90~1\AppData\Local\Temp\ccYj4tTD.s:25205  .debug_str:000000000001398d .LASF1106
C:\Users\CYMR90~1\AppData\Local\Temp\ccYj4tTD.s:29136  .debug_str:0000000000023357 .LASF1107
C:\Users\CYMR90~1\AppData\Local\Temp\ccYj4tTD.s:27028  .debug_str:000000000001b0eb .LASF1108
C:\Users\CYMR90~1\AppData\Local\Temp\ccYj4tTD.s:21907  .debug_str:00000000000064d3 .LASF1109
C:\Users\CYMR90~1\AppData\Local\Temp\ccYj4tTD.s:22873  .debug_str:000000000000a321 .LASF1110
C:\Users\CYMR90~1\AppData\Local\Temp\ccYj4tTD.s:20773  .debug_str:0000000000001deb .LASF1111
C:\Users\CYMR90~1\AppData\Local\Temp\ccYj4tTD.s:21993  .debug_str:00000000000069de .LASF1112
C:\Users\CYMR90~1\AppData\Local\Temp\ccYj4tTD.s:23097  .debug_str:000000000000b283 .LASF1113
C:\Users\CYMR90~1\AppData\Local\Temp\ccYj4tTD.s:21653  .debug_str:00000000000055a5 .LASF1114
C:\Users\CYMR90~1\AppData\Local\Temp\ccYj4tTD.s:22665  .debug_str:0000000000009636 .LASF1115
C:\Users\CYMR90~1\AppData\Local\Temp\ccYj4tTD.s:30310  .debug_str:000000000002801c .LASF1116
C:\Users\CYMR90~1\AppData\Local\Temp\ccYj4tTD.s:30818  .debug_str:000000000002a084 .LASF1117
C:\Users\CYMR90~1\AppData\Local\Temp\ccYj4tTD.s:21811  .debug_str:0000000000005eea .LASF1118
C:\Users\CYMR90~1\AppData\Local\Temp\ccYj4tTD.s:26262  .debug_str:0000000000017dfa .LASF1119
C:\Users\CYMR90~1\AppData\Local\Temp\ccYj4tTD.s:22357  .debug_str:000000000000831b .LASF1120
C:\Users\CYMR90~1\AppData\Local\Temp\ccYj4tTD.s:22565  .debug_str:0000000000009025 .LASF1121
C:\Users\CYMR90~1\AppData\Local\Temp\ccYj4tTD.s:25139  .debug_str:0000000000013588 .LASF1122
C:\Users\CYMR90~1\AppData\Local\Temp\ccYj4tTD.s:24781  .debug_str:0000000000011d92 .LASF1123
C:\Users\CYMR90~1\AppData\Local\Temp\ccYj4tTD.s:28394  .debug_str:0000000000020701 .LASF1124
C:\Users\CYMR90~1\AppData\Local\Temp\ccYj4tTD.s:25583  .debug_str:000000000001514d .LASF1125
C:\Users\CYMR90~1\AppData\Local\Temp\ccYj4tTD.s:25673  .debug_str:0000000000015697 .LASF1126
C:\Users\CYMR90~1\AppData\Local\Temp\ccYj4tTD.s:29030  .debug_str:0000000000022d93 .LASF1127
C:\Users\CYMR90~1\AppData\Local\Temp\ccYj4tTD.s:30128  .debug_str:000000000002746f .LASF1128
C:\Users\CYMR90~1\AppData\Local\Temp\ccYj4tTD.s:21697  .debug_str:0000000000005825 .LASF1129
C:\Users\CYMR90~1\AppData\Local\Temp\ccYj4tTD.s:25671  .debug_str:0000000000015682 .LASF1130
C:\Users\CYMR90~1\AppData\Local\Temp\ccYj4tTD.s:30654  .debug_str:00000000000296cb .LASF1131
C:\Users\CYMR90~1\AppData\Local\Temp\ccYj4tTD.s:31056  .debug_str:000000000002aece .LASF1132
C:\Users\CYMR90~1\AppData\Local\Temp\ccYj4tTD.s:26370  .debug_str:000000000001848e .LASF1133
C:\Users\CYMR90~1\AppData\Local\Temp\ccYj4tTD.s:29192  .debug_str:00000000000236ea .LASF1134
C:\Users\CYMR90~1\AppData\Local\Temp\ccYj4tTD.s:22241  .debug_str:0000000000007a85 .LASF1135
C:\Users\CYMR90~1\AppData\Local\Temp\ccYj4tTD.s:21475  .debug_str:0000000000004aed .LASF1136
C:\Users\CYMR90~1\AppData\Local\Temp\ccYj4tTD.s:21303  .debug_str:0000000000003e7d .LASF1137
C:\Users\CYMR90~1\AppData\Local\Temp\ccYj4tTD.s:30664  .debug_str:00000000000297a7 .LASF1138
C:\Users\CYMR90~1\AppData\Local\Temp\ccYj4tTD.s:27768  .debug_str:000000000001e0c6 .LASF1139
C:\Users\CYMR90~1\AppData\Local\Temp\ccYj4tTD.s:30650  .debug_str:000000000002969e .LASF1140
C:\Users\CYMR90~1\AppData\Local\Temp\ccYj4tTD.s:20365  .debug_str:00000000000004b1 .LASF1141
C:\Users\CYMR90~1\AppData\Local\Temp\ccYj4tTD.s:24573  .debug_str:0000000000010fa1 .LASF1142
C:\Users\CYMR90~1\AppData\Local\Temp\ccYj4tTD.s:23835  .debug_str:000000000000e269 .LASF1143
C:\Users\CYMR90~1\AppData\Local\Temp\ccYj4tTD.s:30184  .debug_str:000000000002778c .LASF1144
C:\Users\CYMR90~1\AppData\Local\Temp\ccYj4tTD.s:28354  .debug_str:000000000002042b .LASF1145
C:\Users\CYMR90~1\AppData\Local\Temp\ccYj4tTD.s:23359  .debug_str:000000000000c404 .LASF1146
C:\Users\CYMR90~1\AppData\Local\Temp\ccYj4tTD.s:31488  .debug_str:000000000002cad7 .LASF1147
C:\Users\CYMR90~1\AppData\Local\Temp\ccYj4tTD.s:26120  .debug_str:00000000000174fd .LASF1148
C:\Users\CYMR90~1\AppData\Local\Temp\ccYj4tTD.s:26378  .debug_str:000000000001853b .LASF1149
C:\Users\CYMR90~1\AppData\Local\Temp\ccYj4tTD.s:27124  .debug_str:000000000001b6c8 .LASF1150
C:\Users\CYMR90~1\AppData\Local\Temp\ccYj4tTD.s:20775  .debug_str:0000000000001e09 .LASF1151
C:\Users\CYMR90~1\AppData\Local\Temp\ccYj4tTD.s:27540  .debug_str:000000000001d206 .LASF1152
C:\Users\CYMR90~1\AppData\Local\Temp\ccYj4tTD.s:22689  .debug_str:0000000000009775 .LASF1153
C:\Users\CYMR90~1\AppData\Local\Temp\ccYj4tTD.s:28644  .debug_str:0000000000021643 .LASF1154
C:\Users\CYMR90~1\AppData\Local\Temp\ccYj4tTD.s:27894  .debug_str:000000000001e876 .LASF1155
C:\Users\CYMR90~1\AppData\Local\Temp\ccYj4tTD.s:21589  .debug_str:00000000000051b9 .LASF1156
C:\Users\CYMR90~1\AppData\Local\Temp\ccYj4tTD.s:27730  .debug_str:000000000001de69 .LASF1157
C:\Users\CYMR90~1\AppData\Local\Temp\ccYj4tTD.s:23115  .debug_str:000000000000b373 .LASF1158
C:\Users\CYMR90~1\AppData\Local\Temp\ccYj4tTD.s:30834  .debug_str:000000000002a1a9 .LASF1159
C:\Users\CYMR90~1\AppData\Local\Temp\ccYj4tTD.s:20659  .debug_str:0000000000001656 .LASF1160
C:\Users\CYMR90~1\AppData\Local\Temp\ccYj4tTD.s:30918  .debug_str:000000000002a695 .LASF1161
C:\Users\CYMR90~1\AppData\Local\Temp\ccYj4tTD.s:30598  .debug_str:00000000000292f5 .LASF1162
C:\Users\CYMR90~1\AppData\Local\Temp\ccYj4tTD.s:27618  .debug_str:000000000001d6fb .LASF1163
C:\Users\CYMR90~1\AppData\Local\Temp\ccYj4tTD.s:26756  .debug_str:0000000000019e5c .LASF1164
C:\Users\CYMR90~1\AppData\Local\Temp\ccYj4tTD.s:23653  .debug_str:000000000000d7a2 .LASF1165
C:\Users\CYMR90~1\AppData\Local\Temp\ccYj4tTD.s:28280  .debug_str:000000000001ffcf .LASF1166
C:\Users\CYMR90~1\AppData\Local\Temp\ccYj4tTD.s:24533  .debug_str:0000000000010d79 .LASF1167
C:\Users\CYMR90~1\AppData\Local\Temp\ccYj4tTD.s:22687  .debug_str:000000000000976b .LASF1168
C:\Users\CYMR90~1\AppData\Local\Temp\ccYj4tTD.s:25615  .debug_str:000000000001535c .LASF1169
C:\Users\CYMR90~1\AppData\Local\Temp\ccYj4tTD.s:26968  .debug_str:000000000001acda .LASF1170
C:\Users\CYMR90~1\AppData\Local\Temp\ccYj4tTD.s:26670  .debug_str:00000000000198b5 .LASF1171
C:\Users\CYMR90~1\AppData\Local\Temp\ccYj4tTD.s:30860  .debug_str:000000000002a311 .LASF1172
C:\Users\CYMR90~1\AppData\Local\Temp\ccYj4tTD.s:25897  .debug_str:000000000001649c .LASF1173
C:\Users\CYMR90~1\AppData\Local\Temp\ccYj4tTD.s:20483  .debug_str:0000000000000c2f .LASF1174
C:\Users\CYMR90~1\AppData\Local\Temp\ccYj4tTD.s:20885  .debug_str:00000000000023de .LASF1175
C:\Users\CYMR90~1\AppData\Local\Temp\ccYj4tTD.s:25111  .debug_str:00000000000133d8 .LASF1176
C:\Users\CYMR90~1\AppData\Local\Temp\ccYj4tTD.s:23463  .debug_str:000000000000cb44 .LASF1177
C:\Users\CYMR90~1\AppData\Local\Temp\ccYj4tTD.s:27680  .debug_str:000000000001db07 .LASF1178
C:\Users\CYMR90~1\AppData\Local\Temp\ccYj4tTD.s:24069  .debug_str:000000000000f058 .LASF1179
C:\Users\CYMR90~1\AppData\Local\Temp\ccYj4tTD.s:23641  .debug_str:000000000000d710 .LASF1180
C:\Users\CYMR90~1\AppData\Local\Temp\ccYj4tTD.s:29394  .debug_str:00000000000243e3 .LASF1181
C:\Users\CYMR90~1\AppData\Local\Temp\ccYj4tTD.s:22501  .debug_str:0000000000008c0c .LASF1182
C:\Users\CYMR90~1\AppData\Local\Temp\ccYj4tTD.s:21053  .debug_str:0000000000002ecf .LASF1183
C:\Users\CYMR90~1\AppData\Local\Temp\ccYj4tTD.s:27998  .debug_str:000000000001ee5d .LASF1184
C:\Users\CYMR90~1\AppData\Local\Temp\ccYj4tTD.s:28448  .debug_str:0000000000020a2b .LASF1185
C:\Users\CYMR90~1\AppData\Local\Temp\ccYj4tTD.s:29630  .debug_str:0000000000025422 .LASF1186
C:\Users\CYMR90~1\AppData\Local\Temp\ccYj4tTD.s:20777  .debug_str:0000000000001e22 .LASF1187
C:\Users\CYMR90~1\AppData\Local\Temp\ccYj4tTD.s:21707  .debug_str:00000000000058a8 .LASF1188
C:\Users\CYMR90~1\AppData\Local\Temp\ccYj4tTD.s:28994  .debug_str:0000000000022bad .LASF1189
C:\Users\CYMR90~1\AppData\Local\Temp\ccYj4tTD.s:22245  .debug_str:0000000000007ab6 .LASF1190
C:\Users\CYMR90~1\AppData\Local\Temp\ccYj4tTD.s:28972  .debug_str:0000000000022a01 .LASF1191
C:\Users\CYMR90~1\AppData\Local\Temp\ccYj4tTD.s:23437  .debug_str:000000000000c96d .LASF1192
C:\Users\CYMR90~1\AppData\Local\Temp\ccYj4tTD.s:28632  .debug_str:00000000000215a3 .LASF1193
C:\Users\CYMR90~1\AppData\Local\Temp\ccYj4tTD.s:23685  .debug_str:000000000000d959 .LASF1194
C:\Users\CYMR90~1\AppData\Local\Temp\ccYj4tTD.s:27218  .debug_str:000000000001bc3e .LASF1195
C:\Users\CYMR90~1\AppData\Local\Temp\ccYj4tTD.s:25257  .debug_str:0000000000013ca9 .LASF1196
C:\Users\CYMR90~1\AppData\Local\Temp\ccYj4tTD.s:28666  .debug_str:00000000000217cb .LASF1197
C:\Users\CYMR90~1\AppData\Local\Temp\ccYj4tTD.s:30858  .debug_str:000000000002a302 .LASF1198
C:\Users\CYMR90~1\AppData\Local\Temp\ccYj4tTD.s:25921  .debug_str:0000000000016692 .LASF1199
C:\Users\CYMR90~1\AppData\Local\Temp\ccYj4tTD.s:30864  .debug_str:000000000002a338 .LASF1200
C:\Users\CYMR90~1\AppData\Local\Temp\ccYj4tTD.s:22937  .debug_str:000000000000a6da .LASF1201
C:\Users\CYMR90~1\AppData\Local\Temp\ccYj4tTD.s:22599  .debug_str:000000000000921d .LASF1202
C:\Users\CYMR90~1\AppData\Local\Temp\ccYj4tTD.s:26108  .debug_str:000000000001745c .LASF1203
C:\Users\CYMR90~1\AppData\Local\Temp\ccYj4tTD.s:29956  .debug_str:000000000002693a .LASF1204
C:\Users\CYMR90~1\AppData\Local\Temp\ccYj4tTD.s:25165  .debug_str:0000000000013748 .LASF1205
C:\Users\CYMR90~1\AppData\Local\Temp\ccYj4tTD.s:24233  .debug_str:000000000000faf7 .LASF1206
C:\Users\CYMR90~1\AppData\Local\Temp\ccYj4tTD.s:30830  .debug_str:000000000002a177 .LASF1207
C:\Users\CYMR90~1\AppData\Local\Temp\ccYj4tTD.s:29484  .debug_str:00000000000249c6 .LASF1208
C:\Users\CYMR90~1\AppData\Local\Temp\ccYj4tTD.s:24165  .debug_str:000000000000f64a .LASF1209
C:\Users\CYMR90~1\AppData\Local\Temp\ccYj4tTD.s:21601  .debug_str:0000000000005276 .LASF1210
C:\Users\CYMR90~1\AppData\Local\Temp\ccYj4tTD.s:21699  .debug_str:000000000000583b .LASF1211
C:\Users\CYMR90~1\AppData\Local\Temp\ccYj4tTD.s:22393  .debug_str:0000000000008567 .LASF1212
C:\Users\CYMR90~1\AppData\Local\Temp\ccYj4tTD.s:21987  .debug_str:000000000000695e .LASF1213
C:\Users\CYMR90~1\AppData\Local\Temp\ccYj4tTD.s:20895  .debug_str:000000000000249a .LASF1214
C:\Users\CYMR90~1\AppData\Local\Temp\ccYj4tTD.s:22731  .debug_str:0000000000009a74 .LASF1215
C:\Users\CYMR90~1\AppData\Local\Temp\ccYj4tTD.s:20835  .debug_str:0000000000002130 .LASF1216
C:\Users\CYMR90~1\AppData\Local\Temp\ccYj4tTD.s:29092  .debug_str:00000000000230de .LASF1217
C:\Users\CYMR90~1\AppData\Local\Temp\ccYj4tTD.s:29106  .debug_str:000000000002318f .LASF1218
C:\Users\CYMR90~1\AppData\Local\Temp\ccYj4tTD.s:29538  .debug_str:0000000000024d61 .LASF1219
C:\Users\CYMR90~1\AppData\Local\Temp\ccYj4tTD.s:27110  .debug_str:000000000001b5f0 .LASF1220
C:\Users\CYMR90~1\AppData\Local\Temp\ccYj4tTD.s:23727  .debug_str:000000000000dbc4 .LASF1221
C:\Users\CYMR90~1\AppData\Local\Temp\ccYj4tTD.s:25435  .debug_str:00000000000147c7 .LASF1222
C:\Users\CYMR90~1\AppData\Local\Temp\ccYj4tTD.s:21071  .debug_str:0000000000002fea .LASF1223
C:\Users\CYMR90~1\AppData\Local\Temp\ccYj4tTD.s:26852  .debug_str:000000000001a594 .LASF1224
C:\Users\CYMR90~1\AppData\Local\Temp\ccYj4tTD.s:30148  .debug_str:000000000002759f .LASF1225
C:\Users\CYMR90~1\AppData\Local\Temp\ccYj4tTD.s:23201  .debug_str:000000000000b945 .LASF1226
C:\Users\CYMR90~1\AppData\Local\Temp\ccYj4tTD.s:22129  .debug_str:000000000000737f .LASF1227
C:\Users\CYMR90~1\AppData\Local\Temp\ccYj4tTD.s:21165  .debug_str:000000000000360a .LASF1228
C:\Users\CYMR90~1\AppData\Local\Temp\ccYj4tTD.s:31544  .debug_str:000000000002ce96 .LASF1229
C:\Users\CYMR90~1\AppData\Local\Temp\ccYj4tTD.s:30578  .debug_str:00000000000291ce .LASF1230
C:\Users\CYMR90~1\AppData\Local\Temp\ccYj4tTD.s:29598  .debug_str:0000000000025178 .LASF1231
C:\Users\CYMR90~1\AppData\Local\Temp\ccYj4tTD.s:28620  .debug_str:00000000000214f9 .LASF1232
C:\Users\CYMR90~1\AppData\Local\Temp\ccYj4tTD.s:28506  .debug_str:0000000000020dcd .LASF1233
C:\Users\CYMR90~1\AppData\Local\Temp\ccYj4tTD.s:27558  .debug_str:000000000001d2fe .LASF1234
C:\Users\CYMR90~1\AppData\Local\Temp\ccYj4tTD.s:26626  .debug_str:00000000000195be .LASF1235
C:\Users\CYMR90~1\AppData\Local\Temp\ccYj4tTD.s:25327  .debug_str:0000000000014138 .LASF1236
C:\Users\CYMR90~1\AppData\Local\Temp\ccYj4tTD.s:24699  .debug_str:0000000000011846 .LASF1237
C:\Users\CYMR90~1\AppData\Local\Temp\ccYj4tTD.s:27146  .debug_str:000000000001b831 .LASF1238
C:\Users\CYMR90~1\AppData\Local\Temp\ccYj4tTD.s:22803  .debug_str:0000000000009e9c .LASF1239
C:\Users\CYMR90~1\AppData\Local\Temp\ccYj4tTD.s:21807  .debug_str:0000000000005ea9 .LASF1240
C:\Users\CYMR90~1\AppData\Local\Temp\ccYj4tTD.s:20851  .debug_str:000000000000221c .LASF1241
C:\Users\CYMR90~1\AppData\Local\Temp\ccYj4tTD.s:31252  .debug_str:000000000002bb93 .LASF1242
C:\Users\CYMR90~1\AppData\Local\Temp\ccYj4tTD.s:20379  .debug_str:0000000000000565 .LASF1243
C:\Users\CYMR90~1\AppData\Local\Temp\ccYj4tTD.s:30728  .debug_str:0000000000029b5c .LASF1244
C:\Users\CYMR90~1\AppData\Local\Temp\ccYj4tTD.s:29744  .debug_str:0000000000025c3f .LASF1245
C:\Users\CYMR90~1\AppData\Local\Temp\ccYj4tTD.s:28778  .debug_str:0000000000021e7f .LASF1246
C:\Users\CYMR90~1\AppData\Local\Temp\ccYj4tTD.s:27804  .debug_str:000000000001e2d5 .LASF1247
C:\Users\CYMR90~1\AppData\Local\Temp\ccYj4tTD.s:26912  .debug_str:000000000001a961 .LASF1248
C:\Users\CYMR90~1\AppData\Local\Temp\ccYj4tTD.s:25965  .debug_str:0000000000016995 .LASF1249
C:\Users\CYMR90~1\AppData\Local\Temp\ccYj4tTD.s:25031  .debug_str:0000000000012df3 .LASF1250
C:\Users\CYMR90~1\AppData\Local\Temp\ccYj4tTD.s:24075  .debug_str:000000000000f09d .LASF1251
C:\Users\CYMR90~1\AppData\Local\Temp\ccYj4tTD.s:26222  .debug_str:0000000000017b96 .LASF1252
C:\Users\CYMR90~1\AppData\Local\Temp\ccYj4tTD.s:23579  .debug_str:000000000000d261 .LASF1253
C:\Users\CYMR90~1\AppData\Local\Temp\ccYj4tTD.s:22613  .debug_str:00000000000092ec .LASF1254
C:\Users\CYMR90~1\AppData\Local\Temp\ccYj4tTD.s:20619  .debug_str:0000000000001402 .LASF1255
C:\Users\CYMR90~1\AppData\Local\Temp\ccYj4tTD.s:23499  .debug_str:000000000000cd70 .LASF1256
C:\Users\CYMR90~1\AppData\Local\Temp\ccYj4tTD.s:21763  .debug_str:0000000000005c50 .LASF1257
C:\Users\CYMR90~1\AppData\Local\Temp\ccYj4tTD.s:26496  .debug_str:0000000000018d1a .LASF1258
C:\Users\CYMR90~1\AppData\Local\Temp\ccYj4tTD.s:26498  .debug_str:0000000000018d2d .LASF1259
C:\Users\CYMR90~1\AppData\Local\Temp\ccYj4tTD.s:28976  .debug_str:0000000000022a31 .LASF1260
C:\Users\CYMR90~1\AppData\Local\Temp\ccYj4tTD.s:27104  .debug_str:000000000001b5a9 .LASF1261
C:\Users\CYMR90~1\AppData\Local\Temp\ccYj4tTD.s:24503  .debug_str:0000000000010c11 .LASF1262
C:\Users\CYMR90~1\AppData\Local\Temp\ccYj4tTD.s:21657  .debug_str:00000000000055e8 .LASF1263
C:\Users\CYMR90~1\AppData\Local\Temp\ccYj4tTD.s:23811  .debug_str:000000000000e0e8 .LASF1264
C:\Users\CYMR90~1\AppData\Local\Temp\ccYj4tTD.s:25989  .debug_str:0000000000016bbc .LASF1265
C:\Users\CYMR90~1\AppData\Local\Temp\ccYj4tTD.s:23859  .debug_str:000000000000e3bb .LASF1266
C:\Users\CYMR90~1\AppData\Local\Temp\ccYj4tTD.s:29006  .debug_str:0000000000022c50 .LASF1267
C:\Users\CYMR90~1\AppData\Local\Temp\ccYj4tTD.s:29186  .debug_str:00000000000236a0 .LASF1268
C:\Users\CYMR90~1\AppData\Local\Temp\ccYj4tTD.s:24631  .debug_str:0000000000011319 .LASF1269
C:\Users\CYMR90~1\AppData\Local\Temp\ccYj4tTD.s:31306  .debug_str:000000000002beda .LASF1270
C:\Users\CYMR90~1\AppData\Local\Temp\ccYj4tTD.s:26224  .debug_str:0000000000017bad .LASF1271
C:\Users\CYMR90~1\AppData\Local\Temp\ccYj4tTD.s:30692  .debug_str:0000000000029950 .LASF1272
C:\Users\CYMR90~1\AppData\Local\Temp\ccYj4tTD.s:27682  .debug_str:000000000001db14 .LASF1273
C:\Users\CYMR90~1\AppData\Local\Temp\ccYj4tTD.s:20439  .debug_str:0000000000000914 .LASF1274
C:\Users\CYMR90~1\AppData\Local\Temp\ccYj4tTD.s:26506  .debug_str:0000000000018db0 .LASF1275
C:\Users\CYMR90~1\AppData\Local\Temp\ccYj4tTD.s:20545  .debug_str:0000000000000ffd .LASF1276
C:\Users\CYMR90~1\AppData\Local\Temp\ccYj4tTD.s:22825  .debug_str:000000000000a024 .LASF1277
C:\Users\CYMR90~1\AppData\Local\Temp\ccYj4tTD.s:21825  .debug_str:0000000000005fc4 .LASF1278
C:\Users\CYMR90~1\AppData\Local\Temp\ccYj4tTD.s:20883  .debug_str:00000000000023cc .LASF1279
C:\Users\CYMR90~1\AppData\Local\Temp\ccYj4tTD.s:31272  .debug_str:000000000002bcb0 .LASF1280
C:\Users\CYMR90~1\AppData\Local\Temp\ccYj4tTD.s:21719  .debug_str:0000000000005973 .LASF1281
C:\Users\CYMR90~1\AppData\Local\Temp\ccYj4tTD.s:20765  .debug_str:0000000000001d67 .LASF1282
C:\Users\CYMR90~1\AppData\Local\Temp\ccYj4tTD.s:27846  .debug_str:000000000001e568 .LASF1283
C:\Users\CYMR90~1\AppData\Local\Temp\ccYj4tTD.s:20511  .debug_str:0000000000000d9f .LASF1284
C:\Users\CYMR90~1\AppData\Local\Temp\ccYj4tTD.s:29212  .debug_str:000000000002386b .LASF1285
C:\Users\CYMR90~1\AppData\Local\Temp\ccYj4tTD.s:28230  .debug_str:000000000001fc8e .LASF1286
C:\Users\CYMR90~1\AppData\Local\Temp\ccYj4tTD.s:27282  .debug_str:000000000001c070 .LASF1287
C:\Users\CYMR90~1\AppData\Local\Temp\ccYj4tTD.s:26332  .debug_str:000000000001823c .LASF1288
C:\Users\CYMR90~1\AppData\Local\Temp\ccYj4tTD.s:25367  .debug_str:0000000000014382 .LASF1289
C:\Users\CYMR90~1\AppData\Local\Temp\ccYj4tTD.s:24433  .debug_str:00000000000106f6 .LASF1290
C:\Users\CYMR90~1\AppData\Local\Temp\ccYj4tTD.s:28724  .debug_str:0000000000021b52 .LASF1291
C:\Users\CYMR90~1\AppData\Local\Temp\ccYj4tTD.s:27756  .debug_str:000000000001e01c .LASF1292
C:\Users\CYMR90~1\AppData\Local\Temp\ccYj4tTD.s:26850  .debug_str:000000000001a580 .LASF1293
C:\Users\CYMR90~1\AppData\Local\Temp\ccYj4tTD.s:25851  .debug_str:0000000000016212 .LASF1294
C:\Users\CYMR90~1\AppData\Local\Temp\ccYj4tTD.s:24925  .debug_str:00000000000126f9 .LASF1295
C:\Users\CYMR90~1\AppData\Local\Temp\ccYj4tTD.s:23967  .debug_str:000000000000eaa8 .LASF1296
C:\Users\CYMR90~1\AppData\Local\Temp\ccYj4tTD.s:23339  .debug_str:000000000000c2e8 .LASF1297
C:\Users\CYMR90~1\AppData\Local\Temp\ccYj4tTD.s:28196  .debug_str:000000000001fa6a .LASF1298
C:\Users\CYMR90~1\AppData\Local\Temp\ccYj4tTD.s:27256  .debug_str:000000000001bedc .LASF1299
C:\Users\CYMR90~1\AppData\Local\Temp\ccYj4tTD.s:26300  .debug_str:0000000000018038 .LASF1300
C:\Users\CYMR90~1\AppData\Local\Temp\ccYj4tTD.s:27230  .debug_str:000000000001bd12 .LASF1301
C:\Users\CYMR90~1\AppData\Local\Temp\ccYj4tTD.s:28444  .debug_str:0000000000020a08 .LASF1302
C:\Users\CYMR90~1\AppData\Local\Temp\ccYj4tTD.s:25895  .debug_str:0000000000016489 .LASF1303
C:\Users\CYMR90~1\AppData\Local\Temp\ccYj4tTD.s:26766  .debug_str:0000000000019f00 .LASF1304
C:\Users\CYMR90~1\AppData\Local\Temp\ccYj4tTD.s:26738  .debug_str:0000000000019d6c .LASF1305
C:\Users\CYMR90~1\AppData\Local\Temp\ccYj4tTD.s:22505  .debug_str:0000000000008c40 .LASF1306
C:\Users\CYMR90~1\AppData\Local\Temp\ccYj4tTD.s:21505  .debug_str:0000000000004cda .LASF1307
C:\Users\CYMR90~1\AppData\Local\Temp\ccYj4tTD.s:20557  .debug_str:0000000000001093 .LASF1308
C:\Users\CYMR90~1\AppData\Local\Temp\ccYj4tTD.s:30934  .debug_str:000000000002a794 .LASF1309
C:\Users\CYMR90~1\AppData\Local\Temp\ccYj4tTD.s:29952  .debug_str:00000000000268ff .LASF1310
C:\Users\CYMR90~1\AppData\Local\Temp\ccYj4tTD.s:28982  .debug_str:0000000000022a77 .LASF1311
C:\Users\CYMR90~1\AppData\Local\Temp\ccYj4tTD.s:25237  .debug_str:0000000000013b7e .LASF1312
C:\Users\CYMR90~1\AppData\Local\Temp\ccYj4tTD.s:23823  .debug_str:000000000000e1a1 .LASF1313
C:\Users\CYMR90~1\AppData\Local\Temp\ccYj4tTD.s:25085  .debug_str:0000000000013184 .LASF1314
C:\Users\CYMR90~1\AppData\Local\Temp\ccYj4tTD.s:31152  .debug_str:000000000002b4e6 .LASF1315
C:\Users\CYMR90~1\AppData\Local\Temp\ccYj4tTD.s:29672  .debug_str:0000000000025735 .LASF1316
C:\Users\CYMR90~1\AppData\Local\Temp\ccYj4tTD.s:29204  .debug_str:00000000000237cf .LASF1317
C:\Users\CYMR90~1\AppData\Local\Temp\ccYj4tTD.s:28222  .debug_str:000000000001fc21 .LASF1318
C:\Users\CYMR90~1\AppData\Local\Temp\ccYj4tTD.s:27292  .debug_str:000000000001c11a .LASF1319
C:\Users\CYMR90~1\AppData\Local\Temp\ccYj4tTD.s:26342  .debug_str:00000000000182ea .LASF1320
C:\Users\CYMR90~1\AppData\Local\Temp\ccYj4tTD.s:25377  .debug_str:00000000000143f8 .LASF1321
C:\Users\CYMR90~1\AppData\Local\Temp\ccYj4tTD.s:24439  .debug_str:0000000000010751 .LASF1322
C:\Users\CYMR90~1\AppData\Local\Temp\ccYj4tTD.s:24899  .debug_str:0000000000012537 .LASF1323
C:\Users\CYMR90~1\AppData\Local\Temp\ccYj4tTD.s:23343  .debug_str:000000000000c30d .LASF1324
C:\Users\CYMR90~1\AppData\Local\Temp\ccYj4tTD.s:22987  .debug_str:000000000000aada .LASF1325
C:\Users\CYMR90~1\AppData\Local\Temp\ccYj4tTD.s:21995  .debug_str:00000000000069fa .LASF1326
C:\Users\CYMR90~1\AppData\Local\Temp\ccYj4tTD.s:21031  .debug_str:0000000000002d7f .LASF1327
C:\Users\CYMR90~1\AppData\Local\Temp\ccYj4tTD.s:31428  .debug_str:000000000002c6fa .LASF1328
C:\Users\CYMR90~1\AppData\Local\Temp\ccYj4tTD.s:30494  .debug_str:0000000000028cb6 .LASF1329
C:\Users\CYMR90~1\AppData\Local\Temp\ccYj4tTD.s:29518  .debug_str:0000000000024bf3 .LASF1330
C:\Users\CYMR90~1\AppData\Local\Temp\ccYj4tTD.s:28544  .debug_str:0000000000020fd7 .LASF1331
C:\Users\CYMR90~1\AppData\Local\Temp\ccYj4tTD.s:27590  .debug_str:000000000001d508 .LASF1332
C:\Users\CYMR90~1\AppData\Local\Temp\ccYj4tTD.s:28020  .debug_str:000000000001efd6 .LASF1333
C:\Users\CYMR90~1\AppData\Local\Temp\ccYj4tTD.s:27118  .debug_str:000000000001b66c .LASF1334
C:\Users\CYMR90~1\AppData\Local\Temp\ccYj4tTD.s:25813  .debug_str:0000000000015faf .LASF1335
C:\Users\CYMR90~1\AppData\Local\Temp\ccYj4tTD.s:23495  .debug_str:000000000000cd45 .LASF1336
C:\Users\CYMR90~1\AppData\Local\Temp\ccYj4tTD.s:28238  .debug_str:000000000001fced .LASF1337
C:\Users\CYMR90~1\AppData\Local\Temp\ccYj4tTD.s:24779  .debug_str:0000000000011d7d .LASF1338
C:\Users\CYMR90~1\AppData\Local\Temp\ccYj4tTD.s:20663  .debug_str:000000000000168e .LASF1339
C:\Users\CYMR90~1\AppData\Local\Temp\ccYj4tTD.s:22777  .debug_str:0000000000009d16 .LASF1340
C:\Users\CYMR90~1\AppData\Local\Temp\ccYj4tTD.s:21779  .debug_str:0000000000005d1e .LASF1341
C:\Users\CYMR90~1\AppData\Local\Temp\ccYj4tTD.s:20821  .debug_str:0000000000002079 .LASF1342
C:\Users\CYMR90~1\AppData\Local\Temp\ccYj4tTD.s:31230  .debug_str:000000000002ba09 .LASF1343
C:\Users\CYMR90~1\AppData\Local\Temp\ccYj4tTD.s:31022  .debug_str:000000000002ac9b .LASF1344
C:\Users\CYMR90~1\AppData\Local\Temp\ccYj4tTD.s:30038  .debug_str:0000000000026e37 .LASF1345
C:\Users\CYMR90~1\AppData\Local\Temp\ccYj4tTD.s:29072  .debug_str:0000000000022fe7 .LASF1346
C:\Users\CYMR90~1\AppData\Local\Temp\ccYj4tTD.s:30448  .debug_str:0000000000028a31 .LASF1347
C:\Users\CYMR90~1\AppData\Local\Temp\ccYj4tTD.s:27164  .debug_str:000000000001b927 .LASF1348
C:\Users\CYMR90~1\AppData\Local\Temp\ccYj4tTD.s:27670  .debug_str:000000000001da5e .LASF1349
C:\Users\CYMR90~1\AppData\Local\Temp\ccYj4tTD.s:25249  .debug_str:0000000000013c3b .LASF1350
C:\Users\CYMR90~1\AppData\Local\Temp\ccYj4tTD.s:28380  .debug_str:0000000000020623 .LASF1351
C:\Users\CYMR90~1\AppData\Local\Temp\ccYj4tTD.s:23355  .debug_str:000000000000c3d9 .LASF1352
C:\Users\CYMR90~1\AppData\Local\Temp\ccYj4tTD.s:22289  .debug_str:0000000000007df8 .LASF1353
C:\Users\CYMR90~1\AppData\Local\Temp\ccYj4tTD.s:22857  .debug_str:000000000000a22d .LASF1354
C:\Users\CYMR90~1\AppData\Local\Temp\ccYj4tTD.s:21857  .debug_str:00000000000061e2 .LASF1355
C:\Users\CYMR90~1\AppData\Local\Temp\ccYj4tTD.s:20907  .debug_str:000000000000253a .LASF1356
C:\Users\CYMR90~1\AppData\Local\Temp\ccYj4tTD.s:31302  .debug_str:000000000002beba .LASF1357
C:\Users\CYMR90~1\AppData\Local\Temp\ccYj4tTD.s:25339  .debug_str:0000000000014200 .LASF1358
C:\Users\CYMR90~1\AppData\Local\Temp\ccYj4tTD.s:21989  .debug_str:00000000000069a2 .LASF1359
C:\Users\CYMR90~1\AppData\Local\Temp\ccYj4tTD.s:28426  .debug_str:00000000000208f0 .LASF1360
C:\Users\CYMR90~1\AppData\Local\Temp\ccYj4tTD.s:27388  .debug_str:000000000001c6d4 .LASF1361
C:\Users\CYMR90~1\AppData\Local\Temp\ccYj4tTD.s:26438  .debug_str:00000000000188b2 .LASF1362
C:\Users\CYMR90~1\AppData\Local\Temp\ccYj4tTD.s:30458  .debug_str:0000000000028ac2 .LASF1363
C:\Users\CYMR90~1\AppData\Local\Temp\ccYj4tTD.s:25739  .debug_str:0000000000015a6c .LASF1364
C:\Users\CYMR90~1\AppData\Local\Temp\ccYj4tTD.s:22411  .debug_str:000000000000866a .LASF1365
C:\Users\CYMR90~1\AppData\Local\Temp\ccYj4tTD.s:30066  .debug_str:0000000000026fe2 .LASF1366
C:\Users\CYMR90~1\AppData\Local\Temp\ccYj4tTD.s:29314  .debug_str:0000000000023e36 .LASF1367
C:\Users\CYMR90~1\AppData\Local\Temp\ccYj4tTD.s:28320  .debug_str:00000000000201fb .LASF1368
C:\Users\CYMR90~1\AppData\Local\Temp\ccYj4tTD.s:26600  .debug_str:0000000000019401 .LASF1369
C:\Users\CYMR90~1\AppData\Local\Temp\ccYj4tTD.s:31190  .debug_str:000000000002b747 .LASF1370
C:\Users\CYMR90~1\AppData\Local\Temp\ccYj4tTD.s:27600  .debug_str:000000000001d593 .LASF1371
C:\Users\CYMR90~1\AppData\Local\Temp\ccYj4tTD.s:20951  .debug_str:0000000000002860 .LASF1372
C:\Users\CYMR90~1\AppData\Local\Temp\ccYj4tTD.s:23537  .debug_str:000000000000cf9e .LASF1373
C:\Users\CYMR90~1\AppData\Local\Temp\ccYj4tTD.s:26646  .debug_str:00000000000196d3 .LASF1374
C:\Users\CYMR90~1\AppData\Local\Temp\ccYj4tTD.s:29734  .debug_str:0000000000025b94 .LASF1375
C:\Users\CYMR90~1\AppData\Local\Temp\ccYj4tTD.s:21533  .debug_str:0000000000004e82 .LASF1376
C:\Users\CYMR90~1\AppData\Local\Temp\ccYj4tTD.s:24687  .debug_str:00000000000116da .LASF1377
C:\Users\CYMR90~1\AppData\Local\Temp\ccYj4tTD.s:27762  .debug_str:000000000001e076 .LASF1378
C:\Users\CYMR90~1\AppData\Local\Temp\ccYj4tTD.s:30930  .debug_str:000000000002a757 .LASF1379
C:\Users\CYMR90~1\AppData\Local\Temp\ccYj4tTD.s:30898  .debug_str:000000000002a536 .LASF1380
C:\Users\CYMR90~1\AppData\Local\Temp\ccYj4tTD.s:22625  .debug_str:000000000000939c .LASF1381
C:\Users\CYMR90~1\AppData\Local\Temp\ccYj4tTD.s:25709  .debug_str:00000000000158ab .LASF1382
C:\Users\CYMR90~1\AppData\Local\Temp\ccYj4tTD.s:28824  .debug_str:000000000002213e .LASF1383
C:\Users\CYMR90~1\AppData\Local\Temp\ccYj4tTD.s:20635  .debug_str:00000000000014ca .LASF1384
C:\Users\CYMR90~1\AppData\Local\Temp\ccYj4tTD.s:25151  .debug_str:000000000001366c .LASF1385
C:\Users\CYMR90~1\AppData\Local\Temp\ccYj4tTD.s:26946  .debug_str:000000000001ab8b .LASF1386
C:\Users\CYMR90~1\AppData\Local\Temp\ccYj4tTD.s:30028  .debug_str:0000000000026d76 .LASF1387
C:\Users\CYMR90~1\AppData\Local\Temp\ccYj4tTD.s:21813  .debug_str:0000000000005f0c .LASF1388
C:\Users\CYMR90~1\AppData\Local\Temp\ccYj4tTD.s:24883  .debug_str:0000000000012436 .LASF1389
C:\Users\CYMR90~1\AppData\Local\Temp\ccYj4tTD.s:24239  .debug_str:000000000000fb3d .LASF1390
C:\Users\CYMR90~1\AppData\Local\Temp\ccYj4tTD.s:27240  .debug_str:000000000001bdc8 .LASF1391
C:\Users\CYMR90~1\AppData\Local\Temp\ccYj4tTD.s:30364  .debug_str:0000000000028474 .LASF1392
C:\Users\CYMR90~1\AppData\Local\Temp\ccYj4tTD.s:22167  .debug_str:00000000000075c6 .LASF1393
C:\Users\CYMR90~1\AppData\Local\Temp\ccYj4tTD.s:25277  .debug_str:0000000000013deb .LASF1394
C:\Users\CYMR90~1\AppData\Local\Temp\ccYj4tTD.s:25433  .debug_str:00000000000147af .LASF1395
C:\Users\CYMR90~1\AppData\Local\Temp\ccYj4tTD.s:31604  .debug_str:000000000002d233 .LASF1396
C:\Users\CYMR90~1\AppData\Local\Temp\ccYj4tTD.s:23411  .debug_str:000000000000c73a .LASF1397
C:\Users\CYMR90~1\AppData\Local\Temp\ccYj4tTD.s:27970  .debug_str:000000000001ecc2 .LASF1398
C:\Users\CYMR90~1\AppData\Local\Temp\ccYj4tTD.s:24589  .debug_str:0000000000011096 .LASF1399
C:\Users\CYMR90~1\AppData\Local\Temp\ccYj4tTD.s:25877  .debug_str:000000000001639a .LASF1400
C:\Users\CYMR90~1\AppData\Local\Temp\ccYj4tTD.s:20591  .debug_str:0000000000001289 .LASF1401
C:\Users\CYMR90~1\AppData\Local\Temp\ccYj4tTD.s:28302  .debug_str:0000000000020117 .LASF1402
C:\Users\CYMR90~1\AppData\Local\Temp\ccYj4tTD.s:23241  .debug_str:000000000000bbe6 .LASF1403
C:\Users\CYMR90~1\AppData\Local\Temp\ccYj4tTD.s:28070  .debug_str:000000000001f2f3 .LASF1404
C:\Users\CYMR90~1\AppData\Local\Temp\ccYj4tTD.s:21317  .debug_str:0000000000003fd0 .LASF1405
C:\Users\CYMR90~1\AppData\Local\Temp\ccYj4tTD.s:30854  .debug_str:000000000002a2b2 .LASF1406
C:\Users\CYMR90~1\AppData\Local\Temp\ccYj4tTD.s:29028  .debug_str:0000000000022d7b .LASF1407
C:\Users\CYMR90~1\AppData\Local\Temp\ccYj4tTD.s:29190  .debug_str:00000000000236d2 .LASF1408
C:\Users\CYMR90~1\AppData\Local\Temp\ccYj4tTD.s:20983  .debug_str:0000000000002a5b .LASF1409
C:\Users\CYMR90~1\AppData\Local\Temp\ccYj4tTD.s:24147  .debug_str:000000000000f536 .LASF1410
C:\Users\CYMR90~1\AppData\Local\Temp\ccYj4tTD.s:30596  .debug_str:00000000000292dc .LASF1411
C:\Users\CYMR90~1\AppData\Local\Temp\ccYj4tTD.s:22399  .debug_str:00000000000085bc .LASF1412
C:\Users\CYMR90~1\AppData\Local\Temp\ccYj4tTD.s:25499  .debug_str:0000000000014bb1 .LASF1413
C:\Users\CYMR90~1\AppData\Local\Temp\ccYj4tTD.s:28602  .debug_str:00000000000213d0 .LASF1414
C:\Users\CYMR90~1\AppData\Local\Temp\ccYj4tTD.s:20441  .debug_str:0000000000000927 .LASF1415
C:\Users\CYMR90~1\AppData\Local\Temp\ccYj4tTD.s:23505  .debug_str:000000000000cdad .LASF1416
C:\Users\CYMR90~1\AppData\Local\Temp\ccYj4tTD.s:26624  .debug_str:00000000000195a5 .LASF1417
C:\Users\CYMR90~1\AppData\Local\Temp\ccYj4tTD.s:28130  .debug_str:000000000001f67c .LASF1418
C:\Users\CYMR90~1\AppData\Local\Temp\ccYj4tTD.s:21513  .debug_str:0000000000004d44 .LASF1419
C:\Users\CYMR90~1\AppData\Local\Temp\ccYj4tTD.s:24575  .debug_str:0000000000010fb7 .LASF1420
C:\Users\CYMR90~1\AppData\Local\Temp\ccYj4tTD.s:23921  .debug_str:000000000000e7c1 .LASF1421
C:\Users\CYMR90~1\AppData\Local\Temp\ccYj4tTD.s:27060  .debug_str:000000000001b31b .LASF1422
C:\Users\CYMR90~1\AppData\Local\Temp\ccYj4tTD.s:30146  .debug_str:0000000000027586 .LASF1423
C:\Users\CYMR90~1\AppData\Local\Temp\ccYj4tTD.s:21057  .debug_str:0000000000002f08 .LASF1424
C:\Users\CYMR90~1\AppData\Local\Temp\ccYj4tTD.s:25089  .debug_str:00000000000131b2 .LASF1425
C:\Users\CYMR90~1\AppData\Local\Temp\ccYj4tTD.s:28062  .debug_str:000000000001f25a .LASF1426
C:\Users\CYMR90~1\AppData\Local\Temp\ccYj4tTD.s:31312  .debug_str:000000000002bfad .LASF1427
C:\Users\CYMR90~1\AppData\Local\Temp\ccYj4tTD.s:23113  .debug_str:000000000000b35a .LASF1428
C:\Users\CYMR90~1\AppData\Local\Temp\ccYj4tTD.s:26200  .debug_str:0000000000017a67 .LASF1429
C:\Users\CYMR90~1\AppData\Local\Temp\ccYj4tTD.s:29324  .debug_str:0000000000023eaa .LASF1430
C:\Users\CYMR90~1\AppData\Local\Temp\ccYj4tTD.s:28072  .debug_str:000000000001f30b .LASF1431
C:\Users\CYMR90~1\AppData\Local\Temp\ccYj4tTD.s:20403  .debug_str:00000000000006de .LASF1432
C:\Users\CYMR90~1\AppData\Local\Temp\ccYj4tTD.s:24613  .debug_str:000000000001120f .LASF1433
C:\Users\CYMR90~1\AppData\Local\Temp\ccYj4tTD.s:28306  .debug_str:0000000000020141 .LASF1434
C:\Users\CYMR90~1\AppData\Local\Temp\ccYj4tTD.s:27354  .debug_str:000000000001c4a8 .LASF1435
C:\Users\CYMR90~1\AppData\Local\Temp\ccYj4tTD.s:26406  .debug_str:00000000000186d5 .LASF1436
C:\Users\CYMR90~1\AppData\Local\Temp\ccYj4tTD.s:25835  .debug_str:0000000000016131 .LASF1437
C:\Users\CYMR90~1\AppData\Local\Temp\ccYj4tTD.s:30178  .debug_str:000000000002773d .LASF1438
C:\Users\CYMR90~1\AppData\Local\Temp\ccYj4tTD.s:29210  .debug_str:0000000000023857 .LASF1439
C:\Users\CYMR90~1\AppData\Local\Temp\ccYj4tTD.s:28228  .debug_str:000000000001fc7a .LASF1440
C:\Users\CYMR90~1\AppData\Local\Temp\ccYj4tTD.s:27280  .debug_str:000000000001c05c .LASF1441
C:\Users\CYMR90~1\AppData\Local\Temp\ccYj4tTD.s:26330  .debug_str:0000000000018228 .LASF1442
C:\Users\CYMR90~1\AppData\Local\Temp\ccYj4tTD.s:25365  .debug_str:000000000001436e .LASF1443
C:\Users\CYMR90~1\AppData\Local\Temp\ccYj4tTD.s:24431  .debug_str:00000000000106e2 .LASF1444
C:\Users\CYMR90~1\AppData\Local\Temp\ccYj4tTD.s:31268  .debug_str:000000000002bc78 .LASF1445
C:\Users\CYMR90~1\AppData\Local\Temp\ccYj4tTD.s:22513  .debug_str:0000000000008cae .LASF1446
C:\Users\CYMR90~1\AppData\Local\Temp\ccYj4tTD.s:24059  .debug_str:000000000000efc0 .LASF1447
C:\Users\CYMR90~1\AppData\Local\Temp\ccYj4tTD.s:29554  .debug_str:0000000000024e5d .LASF1448
C:\Users\CYMR90~1\AppData\Local\Temp\ccYj4tTD.s:28580  .debug_str:00000000000211db .LASF1449
C:\Users\CYMR90~1\AppData\Local\Temp\ccYj4tTD.s:27610  .debug_str:000000000001d692 .LASF1450
C:\Users\CYMR90~1\AppData\Local\Temp\ccYj4tTD.s:26692  .debug_str:0000000000019a90 .LASF1451
C:\Users\CYMR90~1\AppData\Local\Temp\ccYj4tTD.s:25707  .debug_str:0000000000015896 .LASF1452
C:\Users\CYMR90~1\AppData\Local\Temp\ccYj4tTD.s:23111  .debug_str:000000000000b347 .LASF1453
C:\Users\CYMR90~1\AppData\Local\Temp\ccYj4tTD.s:21725  .debug_str:00000000000059c9 .LASF1454
C:\Users\CYMR90~1\AppData\Local\Temp\ccYj4tTD.s:22919  .debug_str:000000000000a5dc .LASF1455
C:\Users\CYMR90~1\AppData\Local\Temp\ccYj4tTD.s:27974  .debug_str:000000000001ed04 .LASF1456
C:\Users\CYMR90~1\AppData\Local\Temp\ccYj4tTD.s:29606  .debug_str:0000000000025207 .LASF1457
C:\Users\CYMR90~1\AppData\Local\Temp\ccYj4tTD.s:21479  .debug_str:0000000000004b2f .LASF1458
C:\Users\CYMR90~1\AppData\Local\Temp\ccYj4tTD.s:28056  .debug_str:000000000001f20c .LASF1459
C:\Users\CYMR90~1\AppData\Local\Temp\ccYj4tTD.s:24903  .debug_str:0000000000012578 .LASF1460
C:\Users\CYMR90~1\AppData\Local\Temp\ccYj4tTD.s:23023  .debug_str:000000000000ad28 .LASF1461
C:\Users\CYMR90~1\AppData\Local\Temp\ccYj4tTD.s:24199  .debug_str:000000000000f8f3 .LASF1462
C:\Users\CYMR90~1\AppData\Local\Temp\ccYj4tTD.s:24693  .debug_str:00000000000117b5 .LASF1463
C:\Users\CYMR90~1\AppData\Local\Temp\ccYj4tTD.s:25769  .debug_str:0000000000015c68 .LASF1464
C:\Users\CYMR90~1\AppData\Local\Temp\ccYj4tTD.s:31046  .debug_str:000000000002ae38 .LASF1465
C:\Users\CYMR90~1\AppData\Local\Temp\ccYj4tTD.s:26958  .debug_str:000000000001ac50 .LASF1466
C:\Users\CYMR90~1\AppData\Local\Temp\ccYj4tTD.s:25369  .debug_str:0000000000014395 .LASF1467
C:\Users\CYMR90~1\AppData\Local\Temp\ccYj4tTD.s:30058  .debug_str:0000000000026f6b .LASF1468
C:\Users\CYMR90~1\AppData\Local\Temp\ccYj4tTD.s:24375  .debug_str:0000000000010398 .LASF1469
C:\Users\CYMR90~1\AppData\Local\Temp\ccYj4tTD.s:22471  .debug_str:0000000000008a37 .LASF1470
C:\Users\CYMR90~1\AppData\Local\Temp\ccYj4tTD.s:24661  .debug_str:000000000001152a .LASF1471
C:\Users\CYMR90~1\AppData\Local\Temp\ccYj4tTD.s:26228  .debug_str:0000000000017c01 .LASF1472
C:\Users\CYMR90~1\AppData\Local\Temp\ccYj4tTD.s:29508  .debug_str:0000000000024b51 .LASF1473
C:\Users\CYMR90~1\AppData\Local\Temp\ccYj4tTD.s:30152  .debug_str:00000000000275d7 .LASF1474
C:\Users\CYMR90~1\AppData\Local\Temp\ccYj4tTD.s:20493  .debug_str:0000000000000ca8 .LASF1475
C:\Users\CYMR90~1\AppData\Local\Temp\ccYj4tTD.s:22401  .debug_str:00000000000085d5 .LASF1476
C:\Users\CYMR90~1\AppData\Local\Temp\ccYj4tTD.s:21009  .debug_str:0000000000002c1e .LASF1477
C:\Users\CYMR90~1\AppData\Local\Temp\ccYj4tTD.s:30330  .debug_str:000000000002817f .LASF1478
C:\Users\CYMR90~1\AppData\Local\Temp\ccYj4tTD.s:29356  .debug_str:000000000002412e .LASF1479
C:\Users\CYMR90~1\AppData\Local\Temp\ccYj4tTD.s:21131  .debug_str:00000000000033df .LASF1480
C:\Users\CYMR90~1\AppData\Local\Temp\ccYj4tTD.s:23363  .debug_str:000000000000c435 .LASF1481
C:\Users\CYMR90~1\AppData\Local\Temp\ccYj4tTD.s:29476  .debug_str:000000000002495d .LASF1482
C:\Users\CYMR90~1\AppData\Local\Temp\ccYj4tTD.s:22709  .debug_str:000000000000991a .LASF1483
C:\Users\CYMR90~1\AppData\Local\Temp\ccYj4tTD.s:21519  .debug_str:0000000000004d9d .LASF1484
C:\Users\CYMR90~1\AppData\Local\Temp\ccYj4tTD.s:23931  .debug_str:000000000000e863 .LASF1485
C:\Users\CYMR90~1\AppData\Local\Temp\ccYj4tTD.s:25337  .debug_str:00000000000141ed .LASF1486
C:\Users\CYMR90~1\AppData\Local\Temp\ccYj4tTD.s:26942  .debug_str:000000000001ab5c .LASF1487
C:\Users\CYMR90~1\AppData\Local\Temp\ccYj4tTD.s:20325  .debug_str:0000000000000225 .LASF1488
C:\Users\CYMR90~1\AppData\Local\Temp\ccYj4tTD.s:25727  .debug_str:00000000000159b8 .LASF1489
C:\Users\CYMR90~1\AppData\Local\Temp\ccYj4tTD.s:23733  .debug_str:000000000000dc02 .LASF1490
C:\Users\CYMR90~1\AppData\Local\Temp\ccYj4tTD.s:30560  .debug_str:00000000000290ee .LASF1491
C:\Users\CYMR90~1\AppData\Local\Temp\ccYj4tTD.s:20977  .debug_str:00000000000029f4 .LASF1492
C:\Users\CYMR90~1\AppData\Local\Temp\ccYj4tTD.s:28534  .debug_str:0000000000020f58 .LASF1493
C:\Users\CYMR90~1\AppData\Local\Temp\ccYj4tTD.s:30784  .debug_str:0000000000029eb4 .LASF1494
C:\Users\CYMR90~1\AppData\Local\Temp\ccYj4tTD.s:22153  .debug_str:00000000000074fb .LASF1495
C:\Users\CYMR90~1\AppData\Local\Temp\ccYj4tTD.s:29828  .debug_str:000000000002619c .LASF1496
C:\Users\CYMR90~1\AppData\Local\Temp\ccYj4tTD.s:30532  .debug_str:0000000000028f21 .LASF1497
C:\Users\CYMR90~1\AppData\Local\Temp\ccYj4tTD.s:21949  .debug_str:0000000000006744 .LASF1498
C:\Users\CYMR90~1\AppData\Local\Temp\ccYj4tTD.s:22799  .debug_str:0000000000009e63 .LASF1499
C:\Users\CYMR90~1\AppData\Local\Temp\ccYj4tTD.s:31478  .debug_str:000000000002ca29 .LASF1500
C:\Users\CYMR90~1\AppData\Local\Temp\ccYj4tTD.s:30700  .debug_str:00000000000299b7 .LASF1501
C:\Users\CYMR90~1\AppData\Local\Temp\ccYj4tTD.s:28436  .debug_str:0000000000020998 .LASF1502
C:\Users\CYMR90~1\AppData\Local\Temp\ccYj4tTD.s:21929  .debug_str:000000000000660d .LASF1503
C:\Users\CYMR90~1\AppData\Local\Temp\ccYj4tTD.s:30786  .debug_str:0000000000029ec2 .LASF1504
C:\Users\CYMR90~1\AppData\Local\Temp\ccYj4tTD.s:27816  .debug_str:000000000001e383 .LASF1505
C:\Users\CYMR90~1\AppData\Local\Temp\ccYj4tTD.s:27140  .debug_str:000000000001b7d1 .LASF1506
C:\Users\CYMR90~1\AppData\Local\Temp\ccYj4tTD.s:24053  .debug_str:000000000000ef71 .LASF1507
C:\Users\CYMR90~1\AppData\Local\Temp\ccYj4tTD.s:28634  .debug_str:00000000000215ae .LASF1508
C:\Users\CYMR90~1\AppData\Local\Temp\ccYj4tTD.s:24847  .debug_str:00000000000121d5 .LASF1509
C:\Users\CYMR90~1\AppData\Local\Temp\ccYj4tTD.s:30434  .debug_str:0000000000028939 .LASF1510
C:\Users\CYMR90~1\AppData\Local\Temp\ccYj4tTD.s:29224  .debug_str:0000000000023911 .LASF1511
C:\Users\CYMR90~1\AppData\Local\Temp\ccYj4tTD.s:21177  .debug_str:0000000000003693 .LASF1512
C:\Users\CYMR90~1\AppData\Local\Temp\ccYj4tTD.s:25789  .debug_str:0000000000015e13 .LASF1513
C:\Users\CYMR90~1\AppData\Local\Temp\ccYj4tTD.s:29632  .debug_str:0000000000025436 .LASF1514
C:\Users\CYMR90~1\AppData\Local\Temp\ccYj4tTD.s:28032  .debug_str:000000000001f0c0 .LASF1515
C:\Users\CYMR90~1\AppData\Local\Temp\ccYj4tTD.s:31210  .debug_str:000000000002b897 .LASF1516
C:\Users\CYMR90~1\AppData\Local\Temp\ccYj4tTD.s:27866  .debug_str:000000000001e66c .LASF1517
C:\Users\CYMR90~1\AppData\Local\Temp\ccYj4tTD.s:29864  .debug_str:0000000000026389 .LASF1518
C:\Users\CYMR90~1\AppData\Local\Temp\ccYj4tTD.s:24837  .debug_str:0000000000012164 .LASF1519
C:\Users\CYMR90~1\AppData\Local\Temp\ccYj4tTD.s:28254  .debug_str:000000000001fe2d .LASF1520
C:\Users\CYMR90~1\AppData\Local\Temp\ccYj4tTD.s:27312  .debug_str:000000000001c25a .LASF1521
C:\Users\CYMR90~1\AppData\Local\Temp\ccYj4tTD.s:28572  .debug_str:000000000002116c .LASF1522
C:\Users\CYMR90~1\AppData\Local\Temp\ccYj4tTD.s:26598  .debug_str:00000000000193e5 .LASF1523
C:\Users\CYMR90~1\AppData\Local\Temp\ccYj4tTD.s:29226  .debug_str:0000000000023927 .LASF1524
C:\Users\CYMR90~1\AppData\Local\Temp\ccYj4tTD.s:21591  .debug_str:00000000000051d0 .LASF1525
C:\Users\CYMR90~1\AppData\Local\Temp\ccYj4tTD.s:27254  .debug_str:000000000001bec1 .LASF1526
C:\Users\CYMR90~1\AppData\Local\Temp\ccYj4tTD.s:23385  .debug_str:000000000000c597 .LASF1527
C:\Users\CYMR90~1\AppData\Local\Temp\ccYj4tTD.s:28974  .debug_str:0000000000022a15 .LASF1528
C:\Users\CYMR90~1\AppData\Local\Temp\ccYj4tTD.s:30230  .debug_str:0000000000027a58 .LASF1529
C:\Users\CYMR90~1\AppData\Local\Temp\ccYj4tTD.s:29468  .debug_str:0000000000024858 .LASF1530
C:\Users\CYMR90~1\AppData\Local\Temp\ccYj4tTD.s:29532  .debug_str:0000000000024cd5 .LASF1531
C:\Users\CYMR90~1\AppData\Local\Temp\ccYj4tTD.s:21339  .debug_str:00000000000040f5 .LASF1532
C:\Users\CYMR90~1\AppData\Local\Temp\ccYj4tTD.s:26548  .debug_str:000000000001903a .LASF1533
C:\Users\CYMR90~1\AppData\Local\Temp\ccYj4tTD.s:29350  .debug_str:0000000000023fee .LASF1534
C:\Users\CYMR90~1\AppData\Local\Temp\ccYj4tTD.s:22957  .debug_str:000000000000a841 .LASF1535
C:\Users\CYMR90~1\AppData\Local\Temp\ccYj4tTD.s:29536  .debug_str:0000000000024d55 .LASF1536
C:\Users\CYMR90~1\AppData\Local\Temp\ccYj4tTD.s:28878  .debug_str:000000000002243c .LASF1537
C:\Users\CYMR90~1\AppData\Local\Temp\ccYj4tTD.s:30104  .debug_str:000000000002723b .LASF1538
C:\Users\CYMR90~1\AppData\Local\Temp\ccYj4tTD.s:29994  .debug_str:0000000000026b61 .LASF1539
C:\Users\CYMR90~1\AppData\Local\Temp\ccYj4tTD.s:24717  .debug_str:00000000000119c2 .LASF1540
C:\Users\CYMR90~1\AppData\Local\Temp\ccYj4tTD.s:30726  .debug_str:0000000000029b3f .LASF1541
C:\Users\CYMR90~1\AppData\Local\Temp\ccYj4tTD.s:23709  .debug_str:000000000000dacb .LASF1542
C:\Users\CYMR90~1\AppData\Local\Temp\ccYj4tTD.s:21097  .debug_str:0000000000003184 .LASF1543
C:\Users\CYMR90~1\AppData\Local\Temp\ccYj4tTD.s:31194  .debug_str:000000000002b77f .LASF1544
C:\Users\CYMR90~1\AppData\Local\Temp\ccYj4tTD.s:22333  .debug_str:0000000000008168 .LASF1545
C:\Users\CYMR90~1\AppData\Local\Temp\ccYj4tTD.s:22807  .debug_str:0000000000009ed6 .LASF1546
C:\Users\CYMR90~1\AppData\Local\Temp\ccYj4tTD.s:23441  .debug_str:000000000000c992 .LASF1547
C:\Users\CYMR90~1\AppData\Local\Temp\ccYj4tTD.s:30306  .debug_str:0000000000027f9e .LASF1548
C:\Users\CYMR90~1\AppData\Local\Temp\ccYj4tTD.s:29798  .debug_str:0000000000025f53 .LASF1549
C:\Users\CYMR90~1\AppData\Local\Temp\ccYj4tTD.s:27206  .debug_str:000000000001bb4a .LASF1550
C:\Users\CYMR90~1\AppData\Local\Temp\ccYj4tTD.s:24585  .debug_str:0000000000011048 .LASF1551
C:\Users\CYMR90~1\AppData\Local\Temp\ccYj4tTD.s:27176  .debug_str:000000000001b99c .LASF1552
C:\Users\CYMR90~1\AppData\Local\Temp\ccYj4tTD.s:20559  .debug_str:00000000000010aa .LASF1553
C:\Users\CYMR90~1\AppData\Local\Temp\ccYj4tTD.s:20877  .debug_str:0000000000002361 .LASF1554
C:\Users\CYMR90~1\AppData\Local\Temp\ccYj4tTD.s:27900  .debug_str:000000000001e8c0 .LASF1555
C:\Users\CYMR90~1\AppData\Local\Temp\ccYj4tTD.s:26500  .debug_str:0000000000018d3c .LASF1556
C:\Users\CYMR90~1\AppData\Local\Temp\ccYj4tTD.s:26524  .debug_str:0000000000018eca .LASF1557
C:\Users\CYMR90~1\AppData\Local\Temp\ccYj4tTD.s:30812  .debug_str:000000000002a035 .LASF1558
C:\Users\CYMR90~1\AppData\Local\Temp\ccYj4tTD.s:24427  .debug_str:00000000000106b6 .LASF1559
C:\Users\CYMR90~1\AppData\Local\Temp\ccYj4tTD.s:29236  .debug_str:00000000000239a0 .LASF1560
C:\Users\CYMR90~1\AppData\Local\Temp\ccYj4tTD.s:29660  .debug_str:0000000000025637 .LASF1561
C:\Users\CYMR90~1\AppData\Local\Temp\ccYj4tTD.s:24537  .debug_str:0000000000010da7 .LASF1562
C:\Users\CYMR90~1\AppData\Local\Temp\ccYj4tTD.s:21773  .debug_str:0000000000005cce .LASF1563
C:\Users\CYMR90~1\AppData\Local\Temp\ccYj4tTD.s:31310  .debug_str:000000000002bf07 .LASF1564
C:\Users\CYMR90~1\AppData\Local\Temp\ccYj4tTD.s:22087  .debug_str:0000000000007002 .LASF1565
C:\Users\CYMR90~1\AppData\Local\Temp\ccYj4tTD.s:27608  .debug_str:000000000001d604 .LASF1566
C:\Users\CYMR90~1\AppData\Local\Temp\ccYj4tTD.s:26896  .debug_str:000000000001a80c .LASF1567
C:\Users\CYMR90~1\AppData\Local\Temp\ccYj4tTD.s:28372  .debug_str:000000000002054e .LASF1568
C:\Users\CYMR90~1\AppData\Local\Temp\ccYj4tTD.s:24715  .debug_str:000000000001191b .LASF1569
C:\Users\CYMR90~1\AppData\Local\Temp\ccYj4tTD.s:29686  .debug_str:000000000002580d .LASF1570
C:\Users\CYMR90~1\AppData\Local\Temp\ccYj4tTD.s:25109  .debug_str:0000000000013398 .LASF1571
C:\Users\CYMR90~1\AppData\Local\Temp\ccYj4tTD.s:21641  .debug_str:00000000000054f1 .LASF1572
C:\Users\CYMR90~1\AppData\Local\Temp\ccYj4tTD.s:25531  .debug_str:0000000000014e02 .LASF1573
C:\Users\CYMR90~1\AppData\Local\Temp\ccYj4tTD.s:30420  .debug_str:0000000000028864 .LASF1574
C:\Users\CYMR90~1\AppData\Local\Temp\ccYj4tTD.s:26002  .debug_str:0000000000016e19 .LASF1575
C:\Users\CYMR90~1\AppData\Local\Temp\ccYj4tTD.s:24089  .debug_str:000000000000f19a .LASF1576
C:\Users\CYMR90~1\AppData\Local\Temp\ccYj4tTD.s:27904  .debug_str:000000000001e902 .LASF1577
C:\Users\CYMR90~1\AppData\Local\Temp\ccYj4tTD.s:30922  .debug_str:000000000002a6bb .LASF1578
C:\Users\CYMR90~1\AppData\Local\Temp\ccYj4tTD.s:20887  .debug_str:00000000000023ec .LASF1579
C:\Users\CYMR90~1\AppData\Local\Temp\ccYj4tTD.s:27454  .debug_str:000000000001cb89 .LASF1580
C:\Users\CYMR90~1\AppData\Local\Temp\ccYj4tTD.s:22925  .debug_str:000000000000a62f .LASF1581
C:\Users\CYMR90~1\AppData\Local\Temp\ccYj4tTD.s:23627  .debug_str:000000000000d608 .LASF1582
C:\Users\CYMR90~1\AppData\Local\Temp\ccYj4tTD.s:22323  .debug_str:000000000000803c .LASF1583
C:\Users\CYMR90~1\AppData\Local\Temp\ccYj4tTD.s:30106  .debug_str:0000000000027259 .LASF1584
C:\Users\CYMR90~1\AppData\Local\Temp\ccYj4tTD.s:27712  .debug_str:000000000001dcd6 .LASF1585
C:\Users\CYMR90~1\AppData\Local\Temp\ccYj4tTD.s:31532  .debug_str:000000000002cd37 .LASF1586
C:\Users\CYMR90~1\AppData\Local\Temp\ccYj4tTD.s:23601  .debug_str:000000000000d3be .LASF1587
C:\Users\CYMR90~1\AppData\Local\Temp\ccYj4tTD.s:22283  .debug_str:0000000000007d0d .LASF1588
C:\Users\CYMR90~1\AppData\Local\Temp\ccYj4tTD.s:25977  .debug_str:0000000000016a6a .LASF1589
C:\Users\CYMR90~1\AppData\Local\Temp\ccYj4tTD.s:23139  .debug_str:000000000000b4ce .LASF1590
C:\Users\CYMR90~1\AppData\Local\Temp\ccYj4tTD.s:25901  .debug_str:00000000000164cb .LASF1591
C:\Users\CYMR90~1\AppData\Local\Temp\ccYj4tTD.s:22525  .debug_str:0000000000008d3e .LASF1592
C:\Users\CYMR90~1\AppData\Local\Temp\ccYj4tTD.s:25101  .debug_str:00000000000132b3 .LASF1593
C:\Users\CYMR90~1\AppData\Local\Temp\ccYj4tTD.s:30604  .debug_str:0000000000029340 .LASF1594
C:\Users\CYMR90~1\AppData\Local\Temp\ccYj4tTD.s:30338  .debug_str:0000000000028235 .LASF1595
C:\Users\CYMR90~1\AppData\Local\Temp\ccYj4tTD.s:20527  .debug_str:0000000000000e7c .LASF1596
C:\Users\CYMR90~1\AppData\Local\Temp\ccYj4tTD.s:27482  .debug_str:000000000001cd65 .LASF1597
C:\Users\CYMR90~1\AppData\Local\Temp\ccYj4tTD.s:21449  .debug_str:00000000000048c6 .LASF1598
C:\Users\CYMR90~1\AppData\Local\Temp\ccYj4tTD.s:29608  .debug_str:0000000000025216 .LASF1599
C:\Users\CYMR90~1\AppData\Local\Temp\ccYj4tTD.s:20669  .debug_str:00000000000016e7 .LASF1600
C:\Users\CYMR90~1\AppData\Local\Temp\ccYj4tTD.s:24173  .debug_str:000000000000f6a7 .LASF1601
C:\Users\CYMR90~1\AppData\Local\Temp\ccYj4tTD.s:28596  .debug_str:00000000000212d3 .LASF1602
C:\Users\CYMR90~1\AppData\Local\Temp\ccYj4tTD.s:27506  .debug_str:000000000001cf75 .LASF1603
C:\Users\CYMR90~1\AppData\Local\Temp\ccYj4tTD.s:27400  .debug_str:000000000001c78b .LASF1604
C:\Users\CYMR90~1\AppData\Local\Temp\ccYj4tTD.s:29588  .debug_str:0000000000025055 .LASF1605
C:\Users\CYMR90~1\AppData\Local\Temp\ccYj4tTD.s:29510  .debug_str:0000000000024b67 .LASF1606
C:\Users\CYMR90~1\AppData\Local\Temp\ccYj4tTD.s:29460  .debug_str:00000000000247f0 .LASF1607
C:\Users\CYMR90~1\AppData\Local\Temp\ccYj4tTD.s:26444  .debug_str:0000000000018904 .LASF1608
C:\Users\CYMR90~1\AppData\Local\Temp\ccYj4tTD.s:21427  .debug_str:000000000000473f .LASF1609
C:\Users\CYMR90~1\AppData\Local\Temp\ccYj4tTD.s:28808  .debug_str:0000000000022043 .LASF1610
C:\Users\CYMR90~1\AppData\Local\Temp\ccYj4tTD.s:31438  .debug_str:000000000002c75d .LASF1611
C:\Users\CYMR90~1\AppData\Local\Temp\ccYj4tTD.s:27350  .debug_str:000000000001c46c .LASF1612
C:\Users\CYMR90~1\AppData\Local\Temp\ccYj4tTD.s:25415  .debug_str:00000000000146ae .LASF1613
C:\Users\CYMR90~1\AppData\Local\Temp\ccYj4tTD.s:22793  .debug_str:0000000000009e05 .LASF1614
C:\Users\CYMR90~1\AppData\Local\Temp\ccYj4tTD.s:27044  .debug_str:000000000001b1f0 .LASF1615
C:\Users\CYMR90~1\AppData\Local\Temp\ccYj4tTD.s:28690  .debug_str:000000000002190d .LASF1616
C:\Users\CYMR90~1\AppData\Local\Temp\ccYj4tTD.s:25505  .debug_str:0000000000014c09 .LASF1617
C:\Users\CYMR90~1\AppData\Local\Temp\ccYj4tTD.s:27412  .debug_str:000000000001c8ff .LASF1618
C:\Users\CYMR90~1\AppData\Local\Temp\ccYj4tTD.s:21473  .debug_str:0000000000004acf .LASF1619
C:\Users\CYMR90~1\AppData\Local\Temp\ccYj4tTD.s:23175  .debug_str:000000000000b7b3 .LASF1620
C:\Users\CYMR90~1\AppData\Local\Temp\ccYj4tTD.s:24007  .debug_str:000000000000ed07 .LASF1621
C:\Users\CYMR90~1\AppData\Local\Temp\ccYj4tTD.s:21037  .debug_str:0000000000002dde .LASF1622
C:\Users\CYMR90~1\AppData\Local\Temp\ccYj4tTD.s:28402  .debug_str:0000000000020762 .LASF1623
C:\Users\CYMR90~1\AppData\Local\Temp\ccYj4tTD.s:25103  .debug_str:000000000001334e .LASF1624
C:\Users\CYMR90~1\AppData\Local\Temp\ccYj4tTD.s:23273  .debug_str:000000000000be8d .LASF1625
C:\Users\CYMR90~1\AppData\Local\Temp\ccYj4tTD.s:29100  .debug_str:000000000002313a .LASF1626
C:\Users\CYMR90~1\AppData\Local\Temp\ccYj4tTD.s:21953  .debug_str:000000000000677f .LASF1627
C:\Users\CYMR90~1\AppData\Local\Temp\ccYj4tTD.s:28148  .debug_str:000000000001f789 .LASF1628
C:\Users\CYMR90~1\AppData\Local\Temp\ccYj4tTD.s:23035  .debug_str:000000000000adea .LASF1629
C:\Users\CYMR90~1\AppData\Local\Temp\ccYj4tTD.s:28888  .debug_str:00000000000224a8 .LASF1630
C:\Users\CYMR90~1\AppData\Local\Temp\ccYj4tTD.s:22507  .debug_str:0000000000008c57 .LASF1631
C:\Users\CYMR90~1\AppData\Local\Temp\ccYj4tTD.s:20625  .debug_str:000000000000145e .LASF1632
C:\Users\CYMR90~1\AppData\Local\Temp\ccYj4tTD.s:27154  .debug_str:000000000001b8b4 .LASF1633
C:\Users\CYMR90~1\AppData\Local\Temp\ccYj4tTD.s:26134  .debug_str:00000000000175fd .LASF1634
C:\Users\CYMR90~1\AppData\Local\Temp\ccYj4tTD.s:23255  .debug_str:000000000000bd12 .LASF1635
C:\Users\CYMR90~1\AppData\Local\Temp\ccYj4tTD.s:23357  .debug_str:000000000000c3ef .LASF1636
C:\Users\CYMR90~1\AppData\Local\Temp\ccYj4tTD.s:27016  .debug_str:000000000001b03a .LASF1637
C:\Users\CYMR90~1\AppData\Local\Temp\ccYj4tTD.s:23425  .debug_str:000000000000c87f .LASF1638
C:\Users\CYMR90~1\AppData\Local\Temp\ccYj4tTD.s:23151  .debug_str:000000000000b607 .LASF1639
C:\Users\CYMR90~1\AppData\Local\Temp\ccYj4tTD.s:26346  .debug_str:000000000001831b .LASF1640
C:\Users\CYMR90~1\AppData\Local\Temp\ccYj4tTD.s:24381  .debug_str:00000000000103d8 .LASF1641
C:\Users\CYMR90~1\AppData\Local\Temp\ccYj4tTD.s:29450  .debug_str:0000000000024754 .LASF1642
C:\Users\CYMR90~1\AppData\Local\Temp\ccYj4tTD.s:24725  .debug_str:0000000000011a63 .LASF1643
C:\Users\CYMR90~1\AppData\Local\Temp\ccYj4tTD.s:28290  .debug_str:0000000000020069 .LASF1644
C:\Users\CYMR90~1\AppData\Local\Temp\ccYj4tTD.s:31404  .debug_str:000000000002c58f .LASF1645
C:\Users\CYMR90~1\AppData\Local\Temp\ccYj4tTD.s:21027  .debug_str:0000000000002d56 .LASF1646
C:\Users\CYMR90~1\AppData\Local\Temp\ccYj4tTD.s:25939  .debug_str:00000000000167a6 .LASF1647
C:\Users\CYMR90~1\AppData\Local\Temp\ccYj4tTD.s:26046  .debug_str:00000000000170e8 .LASF1648
C:\Users\CYMR90~1\AppData\Local\Temp\ccYj4tTD.s:20825  .debug_str:00000000000020ad .LASF1649
C:\Users\CYMR90~1\AppData\Local\Temp\ccYj4tTD.s:22351  .debug_str:00000000000082b5 .LASF1650
C:\Users\CYMR90~1\AppData\Local\Temp\ccYj4tTD.s:29116  .debug_str:0000000000023237 .LASF1651
C:\Users\CYMR90~1\AppData\Local\Temp\ccYj4tTD.s:24473  .debug_str:0000000000010912 .LASF1652
C:\Users\CYMR90~1\AppData\Local\Temp\ccYj4tTD.s:22237  .debug_str:0000000000007a05 .LASF1653
C:\Users\CYMR90~1\AppData\Local\Temp\ccYj4tTD.s:20563  .debug_str:0000000000001101 .LASF1654
C:\Users\CYMR90~1\AppData\Local\Temp\ccYj4tTD.s:26242  .debug_str:0000000000017cc4 .LASF1657
C:\Users\CYMR90~1\AppData\Local\Temp\ccYj4tTD.s:30970  .debug_str:000000000002a9b6 .LASF1658
C:\Users\CYMR90~1\AppData\Local\Temp\ccYj4tTD.s:24505  .debug_str:0000000000010c1f .LASF1659
C:\Users\CYMR90~1\AppData\Local\Temp\ccYj4tTD.s:26572  .debug_str:0000000000019281 .LASF1660
C:\Users\CYMR90~1\AppData\Local\Temp\ccYj4tTD.s:31206  .debug_str:000000000002b858 .LASF1661
C:\Users\CYMR90~1\AppData\Local\Temp\ccYj4tTD.s:31240  .debug_str:000000000002bab4 .LASF1662
C:\Users\CYMR90~1\AppData\Local\Temp\ccYj4tTD.s:28486  .debug_str:0000000000020cab .LASF1663
C:\Users\CYMR90~1\AppData\Local\Temp\ccYj4tTD.s:25467  .debug_str:000000000001498d .LASF1664
C:\Users\CYMR90~1\AppData\Local\Temp\ccYj4tTD.s:27656  .debug_str:000000000001d973 .LASF1665
C:\Users\CYMR90~1\AppData\Local\Temp\ccYj4tTD.s:28574  .debug_str:0000000000021187 .LASF1666
C:\Users\CYMR90~1\AppData\Local\Temp\ccYj4tTD.s:24211  .debug_str:000000000000f97c .LASF1667
C:\Users\CYMR90~1\AppData\Local\Temp\ccYj4tTD.s:23915  .debug_str:000000000000e74b .LASF1668
C:\Users\CYMR90~1\AppData\Local\Temp\ccYj4tTD.s:21265  .debug_str:0000000000003c3a .LASF1669
C:\Users\CYMR90~1\AppData\Local\Temp\ccYj4tTD.s:22545  .debug_str:0000000000008f0a .LASF1670
C:\Users\CYMR90~1\AppData\Local\Temp\ccYj4tTD.s:21487  .debug_str:0000000000004b9b .LASF1671
C:\Users\CYMR90~1\AppData\Local\Temp\ccYj4tTD.s:20377  .debug_str:000000000000054b .LASF1672
C:\Users\CYMR90~1\AppData\Local\Temp\ccYj4tTD.s:25391  .debug_str:00000000000144d5 .LASF1673
C:\Users\CYMR90~1\AppData\Local\Temp\ccYj4tTD.s:24797  .debug_str:0000000000011e72 .LASF1674
C:\Users\CYMR90~1\AppData\Local\Temp\ccYj4tTD.s:23955  .debug_str:000000000000e9c0 .LASF1675
C:\Users\CYMR90~1\AppData\Local\Temp\ccYj4tTD.s:29474  .debug_str:0000000000024943 .LASF1676
C:\Users\CYMR90~1\AppData\Local\Temp\ccYj4tTD.s:24929  .debug_str:0000000000012722 .LASF1677
C:\Users\CYMR90~1\AppData\Local\Temp\ccYj4tTD.s:31406  .debug_str:000000000002c5a4 .LASF1678
C:\Users\CYMR90~1\AppData\Local\Temp\ccYj4tTD.s:20935  .debug_str:0000000000002714 .LASF1679
C:\Users\CYMR90~1\AppData\Local\Temp\ccYj4tTD.s:28834  .debug_str:00000000000221d5 .LASF1680
C:\Users\CYMR90~1\AppData\Local\Temp\ccYj4tTD.s:25635  .debug_str:0000000000015484 .LASF1681
C:\Users\CYMR90~1\AppData\Local\Temp\ccYj4tTD.s:24305  .debug_str:000000000000ff65 .LASF1682
C:\Users\CYMR90~1\AppData\Local\Temp\ccYj4tTD.s:27000  .debug_str:000000000001aeb8 .LASF1683
C:\Users\CYMR90~1\AppData\Local\Temp\ccYj4tTD.s:29066  .debug_str:0000000000022f92 .LASF1684
C:\Users\CYMR90~1\AppData\Local\Temp\ccYj4tTD.s:29986  .debug_str:0000000000026af6 .LASF1685
C:\Users\CYMR90~1\AppData\Local\Temp\ccYj4tTD.s:24453  .debug_str:0000000000010820 .LASF1686
C:\Users\CYMR90~1\AppData\Local\Temp\ccYj4tTD.s:28384  .debug_str:000000000002064c .LASF1687
C:\Users\CYMR90~1\AppData\Local\Temp\ccYj4tTD.s:30716  .debug_str:0000000000029a94 .LASF1688
C:\Users\CYMR90~1\AppData\Local\Temp\ccYj4tTD.s:29252  .debug_str:0000000000023aaa .LASF1689
C:\Users\CYMR90~1\AppData\Local\Temp\ccYj4tTD.s:27114  .debug_str:000000000001b61e .LASF1690
C:\Users\CYMR90~1\AppData\Local\Temp\ccYj4tTD.s:25191  .debug_str:00000000000138d0 .LASF1691
C:\Users\CYMR90~1\AppData\Local\Temp\ccYj4tTD.s:28790  .debug_str:0000000000021f2c .LASF1692
C:\Users\CYMR90~1\AppData\Local\Temp\ccYj4tTD.s:26432  .debug_str:000000000001884b .LASF1693
C:\Users\CYMR90~1\AppData\Local\Temp\ccYj4tTD.s:22345  .debug_str:0000000000008241 .LASF1694
C:\Users\CYMR90~1\AppData\Local\Temp\ccYj4tTD.s:27674  .debug_str:000000000001da98 .LASF1695
C:\Users\CYMR90~1\AppData\Local\Temp\ccYj4tTD.s:26210  .debug_str:0000000000017adb .LASF1696
C:\Users\CYMR90~1\AppData\Local\Temp\ccYj4tTD.s:25513  .debug_str:0000000000014c9c .LASF1697
C:\Users\CYMR90~1\AppData\Local\Temp\ccYj4tTD.s:28046  .debug_str:000000000001f179 .LASF1698
C:\Users\CYMR90~1\AppData\Local\Temp\ccYj4tTD.s:26608  .debug_str:00000000000194ac .LASF1699
C:\Users\CYMR90~1\AppData\Local\Temp\ccYj4tTD.s:28498  .debug_str:0000000000020d5f .LASF1700
C:\Users\CYMR90~1\AppData\Local\Temp\ccYj4tTD.s:28042  .debug_str:000000000001f13c .LASF1701
C:\Users\CYMR90~1\AppData\Local\Temp\ccYj4tTD.s:29298  .debug_str:0000000000023d4b .LASF1702
C:\Users\CYMR90~1\AppData\Local\Temp\ccYj4tTD.s:29258  .debug_str:0000000000023af9 .LASF1703
C:\Users\CYMR90~1\AppData\Local\Temp\ccYj4tTD.s:28780  .debug_str:0000000000021e96 .LASF1704
C:\Users\CYMR90~1\AppData\Local\Temp\ccYj4tTD.s:27236  .debug_str:000000000001bd6d .LASF1705
C:\Users\CYMR90~1\AppData\Local\Temp\ccYj4tTD.s:28636  .debug_str:00000000000215c2 .LASF1706
C:\Users\CYMR90~1\AppData\Local\Temp\ccYj4tTD.s:26118  .debug_str:00000000000174d9 .LASF1707
C:\Users\CYMR90~1\AppData\Local\Temp\ccYj4tTD.s:25105  .debug_str:0000000000013361 .LASF1708
C:\Users\CYMR90~1\AppData\Local\Temp\ccYj4tTD.s:27796  .debug_str:000000000001e26b .LASF1709
C:\Users\CYMR90~1\AppData\Local\Temp\ccYj4tTD.s:26348  .debug_str:0000000000018330 .LASF1710
C:\Users\CYMR90~1\AppData\Local\Temp\ccYj4tTD.s:30186  .debug_str:00000000000277a3 .LASF1711
C:\Users\CYMR90~1\AppData\Local\Temp\ccYj4tTD.s:24745  .debug_str:0000000000011b76 .LASF1712
C:\Users\CYMR90~1\AppData\Local\Temp\ccYj4tTD.s:21879  .debug_str:0000000000006310 .LASF1713
C:\Users\CYMR90~1\AppData\Local\Temp\ccYj4tTD.s:24217  .debug_str:000000000000f9d9 .LASF1714
C:\Users\CYMR90~1\AppData\Local\Temp\ccYj4tTD.s:21151  .debug_str:0000000000003530 .LASF1715
C:\Users\CYMR90~1\AppData\Local\Temp\ccYj4tTD.s:24451  .debug_str:00000000000107f4 .LASF1716
C:\Users\CYMR90~1\AppData\Local\Temp\ccYj4tTD.s:27766  .debug_str:000000000001e0a4 .LASF1717
C:\Users\CYMR90~1\AppData\Local\Temp\ccYj4tTD.s:26312  .debug_str:00000000000180fd .LASF1718
C:\Users\CYMR90~1\AppData\Local\Temp\ccYj4tTD.s:24691  .debug_str:0000000000011707 .LASF1719
C:\Users\CYMR90~1\AppData\Local\Temp\ccYj4tTD.s:26672  .debug_str:00000000000198c2 .LASF1720
C:\Users\CYMR90~1\AppData\Local\Temp\ccYj4tTD.s:25183  .debug_str:000000000001384d .LASF1721
C:\Users\CYMR90~1\AppData\Local\Temp\ccYj4tTD.s:20863  .debug_str:00000000000022a8 .LASF1722
C:\Users\CYMR90~1\AppData\Local\Temp\ccYj4tTD.s:27008  .debug_str:000000000001af57 .LASF1723
C:\Users\CYMR90~1\AppData\Local\Temp\ccYj4tTD.s:20927  .debug_str:000000000000269e .LASF1724
C:\Users\CYMR90~1\AppData\Local\Temp\ccYj4tTD.s:25703  .debug_str:0000000000015839 .LASF1725
C:\Users\CYMR90~1\AppData\Local\Temp\ccYj4tTD.s:30508  .debug_str:0000000000028d76 .LASF1726
C:\Users\CYMR90~1\AppData\Local\Temp\ccYj4tTD.s:28926  .debug_str:000000000002270b .LASF1727
C:\Users\CYMR90~1\AppData\Local\Temp\ccYj4tTD.s:30154  .debug_str:00000000000275eb .LASF1728
C:\Users\CYMR90~1\AppData\Local\Temp\ccYj4tTD.s:27452  .debug_str:000000000001cb52 .LASF1729
C:\Users\CYMR90~1\AppData\Local\Temp\ccYj4tTD.s:31314  .debug_str:000000000002bfc6 .LASF1730
C:\Users\CYMR90~1\AppData\Local\Temp\ccYj4tTD.s:29976  .debug_str:0000000000026a5b .LASF1731
C:\Users\CYMR90~1\AppData\Local\Temp\ccYj4tTD.s:24619  .debug_str:0000000000011251 .LASF1732
C:\Users\CYMR90~1\AppData\Local\Temp\ccYj4tTD.s:22655  .debug_str:000000000000953e .LASF1733
C:\Users\CYMR90~1\AppData\Local\Temp\ccYj4tTD.s:20627  .debug_str:0000000000001471 .LASF1734
C:\Users\CYMR90~1\AppData\Local\Temp\ccYj4tTD.s:26076  .debug_str:0000000000017283 .LASF1735
C:\Users\CYMR90~1\AppData\Local\Temp\ccYj4tTD.s:28216  .debug_str:000000000001fbc5 .LASF1736
C:\Users\CYMR90~1\AppData\Local\Temp\ccYj4tTD.s:22647  .debug_str:00000000000094c8 .LASF1737
C:\Users\CYMR90~1\AppData\Local\Temp\ccYj4tTD.s:22365  .debug_str:0000000000008398 .LASF1738
C:\Users\CYMR90~1\AppData\Local\Temp\ccYj4tTD.s:29982  .debug_str:0000000000026ac7 .LASF1739
C:\Users\CYMR90~1\AppData\Local\Temp\ccYj4tTD.s:23981  .debug_str:000000000000eb7a .LASF1740
C:\Users\CYMR90~1\AppData\Local\Temp\ccYj4tTD.s:22989  .debug_str:000000000000aaf2 .LASF1741
C:\Users\CYMR90~1\AppData\Local\Temp\ccYj4tTD.s:28068  .debug_str:000000000001f2c0 .LASF1742
C:\Users\CYMR90~1\AppData\Local\Temp\ccYj4tTD.s:23475  .debug_str:000000000000cbdb .LASF1743
C:\Users\CYMR90~1\AppData\Local\Temp\ccYj4tTD.s:30262  .debug_str:0000000000027ca6 .LASF1744
C:\Users\CYMR90~1\AppData\Local\Temp\ccYj4tTD.s:22371  .debug_str:000000000000840a .LASF1745
C:\Users\CYMR90~1\AppData\Local\Temp\ccYj4tTD.s:24277  .debug_str:000000000000fda0 .LASF1746
C:\Users\CYMR90~1\AppData\Local\Temp\ccYj4tTD.s:29302  .debug_str:0000000000023d91 .LASF1747
C:\Users\CYMR90~1\AppData\Local\Temp\ccYj4tTD.s:28896  .debug_str:000000000002252e .LASF1748
C:\Users\CYMR90~1\AppData\Local\Temp\ccYj4tTD.s:24449  .debug_str:00000000000107d1 .LASF1749
C:\Users\CYMR90~1\AppData\Local\Temp\ccYj4tTD.s:23145  .debug_str:000000000000b5aa .LASF1750
C:\Users\CYMR90~1\AppData\Local\Temp\ccYj4tTD.s:26248  .debug_str:0000000000017d1a .LASF1751
C:\Users\CYMR90~1\AppData\Local\Temp\ccYj4tTD.s:21521  .debug_str:0000000000004db1 .LASF1752
C:\Users\CYMR90~1\AppData\Local\Temp\ccYj4tTD.s:26982  .debug_str:000000000001adb0 .LASF1753
C:\Users\CYMR90~1\AppData\Local\Temp\ccYj4tTD.s:26880  .debug_str:000000000001a6e8 .LASF1754
C:\Users\CYMR90~1\AppData\Local\Temp\ccYj4tTD.s:23415  .debug_str:000000000000c77e .LASF1755
C:\Users\CYMR90~1\AppData\Local\Temp\ccYj4tTD.s:24997  .debug_str:0000000000012bb5 .LASF1756
C:\Users\CYMR90~1\AppData\Local\Temp\ccYj4tTD.s:27074  .debug_str:000000000001b3ec .LASF1757
C:\Users\CYMR90~1\AppData\Local\Temp\ccYj4tTD.s:24077  .debug_str:000000000000f0b4 .LASF1758
C:\Users\CYMR90~1\AppData\Local\Temp\ccYj4tTD.s:22183  .debug_str:00000000000076b7 .LASF1759
C:\Users\CYMR90~1\AppData\Local\Temp\ccYj4tTD.s:26820  .debug_str:000000000001a201 .LASF1760
C:\Users\CYMR90~1\AppData\Local\Temp\ccYj4tTD.s:22473  .debug_str:0000000000008a49 .LASF1761
C:\Users\CYMR90~1\AppData\Local\Temp\ccYj4tTD.s:20691  .debug_str:00000000000018f1 .LASF1762
C:\Users\CYMR90~1\AppData\Local\Temp\ccYj4tTD.s:29490  .debug_str:0000000000024a12 .LASF1763
C:\Users\CYMR90~1\AppData\Local\Temp\ccYj4tTD.s:22211  .debug_str:0000000000007869 .LASF1764
C:\Users\CYMR90~1\AppData\Local\Temp\ccYj4tTD.s:21893  .debug_str:0000000000006409 .LASF1765
C:\Users\CYMR90~1\AppData\Local\Temp\ccYj4tTD.s:20671  .debug_str:000000000000179d .LASF1766
C:\Users\CYMR90~1\AppData\Local\Temp\ccYj4tTD.s:27182  .debug_str:000000000001b9f5 .LASF1767
C:\Users\CYMR90~1\AppData\Local\Temp\ccYj4tTD.s:20731  .debug_str:0000000000001b51 .LASF1768
C:\Users\CYMR90~1\AppData\Local\Temp\ccYj4tTD.s:29688  .debug_str:000000000002589b .LASF1769
C:\Users\CYMR90~1\AppData\Local\Temp\ccYj4tTD.s:31390  .debug_str:000000000002c49e .LASF1770
C:\Users\CYMR90~1\AppData\Local\Temp\ccYj4tTD.s:23307  .debug_str:000000000000c0b5 .LASF1771
C:\Users\CYMR90~1\AppData\Local\Temp\ccYj4tTD.s:22897  .debug_str:000000000000a496 .LASF1772
C:\Users\CYMR90~1\AppData\Local\Temp\ccYj4tTD.s:20409  .debug_str:0000000000000729 .LASF1773
C:\Users\CYMR90~1\AppData\Local\Temp\ccYj4tTD.s:20457  .debug_str:0000000000000a11 .LASF1774
C:\Users\CYMR90~1\AppData\Local\Temp\ccYj4tTD.s:30410  .debug_str:00000000000287a5 .LASF1775
C:\Users\CYMR90~1\AppData\Local\Temp\ccYj4tTD.s:25407  .debug_str:000000000001461a .LASF1776
C:\Users\CYMR90~1\AppData\Local\Temp\ccYj4tTD.s:24157  .debug_str:000000000000f5bd .LASF1777
C:\Users\CYMR90~1\AppData\Local\Temp\ccYj4tTD.s:26238  .debug_str:0000000000017c93 .LASF1778
C:\Users\CYMR90~1\AppData\Local\Temp\ccYj4tTD.s:21617  .debug_str:0000000000005372 .LASF1779
C:\Users\CYMR90~1\AppData\Local\Temp\ccYj4tTD.s:29726  .debug_str:0000000000025b0a .LASF1780
C:\Users\CYMR90~1\AppData\Local\Temp\ccYj4tTD.s:28930  .debug_str:0000000000022774 .LASF1781
C:\Users\CYMR90~1\AppData\Local\Temp\ccYj4tTD.s:27460  .debug_str:000000000001cbed .LASF1784
C:\Users\CYMR90~1\AppData\Local\Temp\ccYj4tTD.s:26620  .debug_str:000000000001955f .LASF1785
C:\Users\CYMR90~1\AppData\Local\Temp\ccYj4tTD.s:26466  .debug_str:0000000000018a8a .LASF1786
C:\Users\CYMR90~1\AppData\Local\Temp\ccYj4tTD.s:25453  .debug_str:00000000000148dd .LASF1787
C:\Users\CYMR90~1\AppData\Local\Temp\ccYj4tTD.s:30846  .debug_str:000000000002a233 .LASF1788
C:\Users\CYMR90~1\AppData\Local\Temp\ccYj4tTD.s:31156  .debug_str:000000000002b524 .LASF1789
C:\Users\CYMR90~1\AppData\Local\Temp\ccYj4tTD.s:21199  .debug_str:000000000000382a .LASF1790
C:\Users\CYMR90~1\AppData\Local\Temp\ccYj4tTD.s:20321  .debug_str:00000000000001ef .LASF1791
C:\Users\CYMR90~1\AppData\Local\Temp\ccYj4tTD.s:30068  .debug_str:0000000000026ff6 .LASF1792
C:\Users\CYMR90~1\AppData\Local\Temp\ccYj4tTD.s:29146  .debug_str:00000000000233d8 .LASF1793
C:\Users\CYMR90~1\AppData\Local\Temp\ccYj4tTD.s:31038  .debug_str:000000000002ad8f .LASF1794
C:\Users\CYMR90~1\AppData\Local\Temp\ccYj4tTD.s:30342  .debug_str:0000000000028306 .LASF1795
C:\Users\CYMR90~1\AppData\Local\Temp\ccYj4tTD.s:25117  .debug_str:000000000001342b .LASF1796
C:\Users\CYMR90~1\AppData\Local\Temp\ccYj4tTD.s:25395  .debug_str:0000000000014517 .LASF1797
C:\Users\CYMR90~1\AppData\Local\Temp\ccYj4tTD.s:24509  .debug_str:0000000000010c3c .LASF1798
C:\Users\CYMR90~1\AppData\Local\Temp\ccYj4tTD.s:23333  .debug_str:000000000000c281 .LASF1799
C:\Users\CYMR90~1\AppData\Local\Temp\ccYj4tTD.s:26150  .debug_str:00000000000176fc .LASF1800
C:\Users\CYMR90~1\AppData\Local\Temp\ccYj4tTD.s:26458  .debug_str:0000000000018a19 .LASF1801
C:\Users\CYMR90~1\AppData\Local\Temp\ccYj4tTD.s:25535  .debug_str:0000000000014e3c .LASF1802
C:\Users\CYMR90~1\AppData\Local\Temp\ccYj4tTD.s:24569  .debug_str:0000000000010f66 .LASF1803
C:\Users\CYMR90~1\AppData\Local\Temp\ccYj4tTD.s:24055  .debug_str:000000000000ef88 .LASF1804
C:\Users\CYMR90~1\AppData\Local\Temp\ccYj4tTD.s:28722  .debug_str:0000000000021b2b .LASF1805
C:\Users\CYMR90~1\AppData\Local\Temp\ccYj4tTD.s:25417  .debug_str:00000000000146d2 .LASF1806
C:\Users\CYMR90~1\AppData\Local\Temp\ccYj4tTD.s:28330  .debug_str:0000000000020278 .LASF1807
C:\Users\CYMR90~1\AppData\Local\Temp\ccYj4tTD.s:25559  .debug_str:0000000000014fd2 .LASF1808
C:\Users\CYMR90~1\AppData\Local\Temp\ccYj4tTD.s:23239  .debug_str:000000000000bbd1 .LASF1809
C:\Users\CYMR90~1\AppData\Local\Temp\ccYj4tTD.s:27554  .debug_str:000000000001d2cd .LASF1810
C:\Users\CYMR90~1\AppData\Local\Temp\ccYj4tTD.s:26254  .debug_str:0000000000017d8f .LASF1811
C:\Users\CYMR90~1\AppData\Local\Temp\ccYj4tTD.s:20649  .debug_str:00000000000015a5 .LASF1812
C:\Users\CYMR90~1\AppData\Local\Temp\ccYj4tTD.s:24461  .debug_str:000000000001087f .LASF1813
C:\Users\CYMR90~1\AppData\Local\Temp\ccYj4tTD.s:24729  .debug_str:0000000000011a95 .LASF1814
C:\Users\CYMR90~1\AppData\Local\Temp\ccYj4tTD.s:27536  .debug_str:000000000001d1d5 .LASF1815
C:\Users\CYMR90~1\AppData\Local\Temp\ccYj4tTD.s:26216  .debug_str:0000000000017b4d .LASF1816
C:\Users\CYMR90~1\AppData\Local\Temp\ccYj4tTD.s:27544  .debug_str:000000000001d253 .LASF1817
C:\Users\CYMR90~1\AppData\Local\Temp\ccYj4tTD.s:27990  .debug_str:000000000001edf0 .LASF1818
C:\Users\CYMR90~1\AppData\Local\Temp\ccYj4tTD.s:24273  .debug_str:000000000000fd68 .LASF1819
C:\Users\CYMR90~1\AppData\Local\Temp\ccYj4tTD.s:28468  .debug_str:0000000000020b86 .LASF1820
C:\Users\CYMR90~1\AppData\Local\Temp\ccYj4tTD.s:21921  .debug_str:00000000000065a1 .LASF1821
C:\Users\CYMR90~1\AppData\Local\Temp\ccYj4tTD.s:22303  .debug_str:0000000000007eee .LASF1822
C:\Users\CYMR90~1\AppData\Local\Temp\ccYj4tTD.s:27924  .debug_str:000000000001ea39 .LASF1823
C:\Users\CYMR90~1\AppData\Local\Temp\ccYj4tTD.s:30626  .debug_str:000000000002951e .LASF1824
C:\Users\CYMR90~1\AppData\Local\Temp\ccYj4tTD.s:23209  .debug_str:000000000000ba20 .LASF1825
C:\Users\CYMR90~1\AppData\Local\Temp\ccYj4tTD.s:28562  .debug_str:00000000000210d1 .LASF1826
C:\Users\CYMR90~1\AppData\Local\Temp\ccYj4tTD.s:30978  .debug_str:000000000002aa1c .LASF1827
C:\Users\CYMR90~1\AppData\Local\Temp\ccYj4tTD.s:24025  .debug_str:000000000000edf9 .LASF1828
C:\Users\CYMR90~1\AppData\Local\Temp\ccYj4tTD.s:24097  .debug_str:000000000000f229 .LASF1829
C:\Users\CYMR90~1\AppData\Local\Temp\ccYj4tTD.s:24875  .debug_str:00000000000123ab .LASF1830
C:\Users\CYMR90~1\AppData\Local\Temp\ccYj4tTD.s:22675  .debug_str:00000000000096d5 .LASF1831
C:\Users\CYMR90~1\AppData\Local\Temp\ccYj4tTD.s:30012  .debug_str:0000000000026c60 .LASF1832
C:\Users\CYMR90~1\AppData\Local\Temp\ccYj4tTD.s:23473  .debug_str:000000000000cbc0 .LASF1833
C:\Users\CYMR90~1\AppData\Local\Temp\ccYj4tTD.s:22125  .debug_str:0000000000007340 .LASF1834
C:\Users\CYMR90~1\AppData\Local\Temp\ccYj4tTD.s:25853  .debug_str:0000000000016226 .LASF1835
C:\Users\CYMR90~1\AppData\Local\Temp\ccYj4tTD.s:29878  .debug_str:0000000000026458 .LASF1836
C:\Users\CYMR90~1\AppData\Local\Temp\ccYj4tTD.s:25823  .debug_str:0000000000016066 .LASF1837
C:\Users\CYMR90~1\AppData\Local\Temp\ccYj4tTD.s:26546  .debug_str:0000000000019022 .LASF1838
C:\Users\CYMR90~1\AppData\Local\Temp\ccYj4tTD.s:24513  .debug_str:0000000000010c74 .LASF1839
C:\Users\CYMR90~1\AppData\Local\Temp\ccYj4tTD.s:27492  .debug_str:000000000001ce8b .LASF1840
C:\Users\CYMR90~1\AppData\Local\Temp\ccYj4tTD.s:26782  .debug_str:0000000000019fe4 .LASF1841
C:\Users\CYMR90~1\AppData\Local\Temp\ccYj4tTD.s:29568  .debug_str:0000000000024f38 .LASF1842
C:\Users\CYMR90~1\AppData\Local\Temp\ccYj4tTD.s:29966  .debug_str:00000000000269ba .LASF1843
C:\Users\CYMR90~1\AppData\Local\Temp\ccYj4tTD.s:31174  .debug_str:000000000002b674 .LASF1844
C:\Users\CYMR90~1\AppData\Local\Temp\ccYj4tTD.s:31032  .debug_str:000000000002ad3c .LASF1845
C:\Users\CYMR90~1\AppData\Local\Temp\ccYj4tTD.s:22407  .debug_str:0000000000008639 .LASF1846
C:\Users\CYMR90~1\AppData\Local\Temp\ccYj4tTD.s:27696  .debug_str:000000000001dbc5 .LASF1847
C:\Users\CYMR90~1\AppData\Local\Temp\ccYj4tTD.s:20567  .debug_str:0000000000001152 .LASF1848
C:\Users\CYMR90~1\AppData\Local\Temp\ccYj4tTD.s:28848  .debug_str:00000000000222a2 .LASF1849
C:\Users\CYMR90~1\AppData\Local\Temp\ccYj4tTD.s:28078  .debug_str:000000000001f35e .LASF1850
C:\Users\CYMR90~1\AppData\Local\Temp\ccYj4tTD.s:22465  .debug_str:00000000000089c6 .LASF1851
C:\Users\CYMR90~1\AppData\Local\Temp\ccYj4tTD.s:29918  .debug_str:00000000000266dc .LASF1852
C:\Users\CYMR90~1\AppData\Local\Temp\ccYj4tTD.s:23711  .debug_str:000000000000dae8 .LASF1853
C:\Users\CYMR90~1\AppData\Local\Temp\ccYj4tTD.s:21103  .debug_str:0000000000003218 .LASF1854
C:\Users\CYMR90~1\AppData\Local\Temp\ccYj4tTD.s:27574  .debug_str:000000000001d412 .LASF1855
C:\Users\CYMR90~1\AppData\Local\Temp\ccYj4tTD.s:30192  .debug_str:0000000000027811 .LASF1856
C:\Users\CYMR90~1\AppData\Local\Temp\ccYj4tTD.s:22553  .debug_str:0000000000008f8a .LASF1857
C:\Users\CYMR90~1\AppData\Local\Temp\ccYj4tTD.s:23397  .debug_str:000000000000c671 .LASF1858
C:\Users\CYMR90~1\AppData\Local\Temp\ccYj4tTD.s:30282  .debug_str:0000000000027e0c .LASF1859
C:\Users\CYMR90~1\AppData\Local\Temp\ccYj4tTD.s:25565  .debug_str:0000000000015033 .LASF1860
C:\Users\CYMR90~1\AppData\Local\Temp\ccYj4tTD.s:26488  .debug_str:0000000000018c6d .LASF1861
C:\Users\CYMR90~1\AppData\Local\Temp\ccYj4tTD.s:24323  .debug_str:000000000001005d .LASF1862
C:\Users\CYMR90~1\AppData\Local\Temp\ccYj4tTD.s:22079  .debug_str:0000000000006f5f .LASF1863
C:\Users\CYMR90~1\AppData\Local\Temp\ccYj4tTD.s:26398  .debug_str:000000000001863e .LASF1864
C:\Users\CYMR90~1\AppData\Local\Temp\ccYj4tTD.s:21721  .debug_str:0000000000005986 .LASF1865
C:\Users\CYMR90~1\AppData\Local\Temp\ccYj4tTD.s:29036  .debug_str:0000000000022ddb .LASF1866
C:\Users\CYMR90~1\AppData\Local\Temp\ccYj4tTD.s:28260  .debug_str:000000000001fe93 .LASF1867
C:\Users\CYMR90~1\AppData\Local\Temp\ccYj4tTD.s:23331  .debug_str:000000000000c251 .LASF1868
C:\Users\CYMR90~1\AppData\Local\Temp\ccYj4tTD.s:20437  .debug_str:00000000000008e3 .LASF1869
C:\Users\CYMR90~1\AppData\Local\Temp\ccYj4tTD.s:20801  .debug_str:0000000000001f70 .LASF1870
C:\Users\CYMR90~1\AppData\Local\Temp\ccYj4tTD.s:30568  .debug_str:0000000000029141 .LASF1871
C:\Users\CYMR90~1\AppData\Local\Temp\ccYj4tTD.s:29666  .debug_str:00000000000256b9 .LASF1872
C:\Users\CYMR90~1\AppData\Local\Temp\ccYj4tTD.s:25693  .debug_str:000000000001579a .LASF1873
C:\Users\CYMR90~1\AppData\Local\Temp\ccYj4tTD.s:22247  .debug_str:0000000000007aca .LASF1874
C:\Users\CYMR90~1\AppData\Local\Temp\ccYj4tTD.s:23125  .debug_str:000000000000b3ff .LASF1875
C:\Users\CYMR90~1\AppData\Local\Temp\ccYj4tTD.s:30750  .debug_str:0000000000029ca4 .LASF1876
C:\Users\CYMR90~1\AppData\Local\Temp\ccYj4tTD.s:27018  .debug_str:000000000001b04f .LASF1877
C:\Users\CYMR90~1\AppData\Local\Temp\ccYj4tTD.s:27758  .debug_str:000000000001e030 .LASF1878
C:\Users\CYMR90~1\AppData\Local\Temp\ccYj4tTD.s:24161  .debug_str:000000000000f5f6 .LASF1879
C:\Users\CYMR90~1\AppData\Local\Temp\ccYj4tTD.s:22509  .debug_str:0000000000008c6e .LASF1880
C:\Users\CYMR90~1\AppData\Local\Temp\ccYj4tTD.s:28058  .debug_str:000000000001f221 .LASF1881
C:\Users\CYMR90~1\AppData\Local\Temp\ccYj4tTD.s:20547  .debug_str:000000000000100b .LASF1882
C:\Users\CYMR90~1\AppData\Local\Temp\ccYj4tTD.s:28458  .debug_str:0000000000020ac1 .LASF1883
C:\Users\CYMR90~1\AppData\Local\Temp\ccYj4tTD.s:31170  .debug_str:000000000002b62c .LASF1884
C:\Users\CYMR90~1\AppData\Local\Temp\ccYj4tTD.s:28166  .debug_str:000000000001f890 .LASF1885
C:\Users\CYMR90~1\AppData\Local\Temp\ccYj4tTD.s:30298  .debug_str:0000000000027f0c .LASF1886
C:\Users\CYMR90~1\AppData\Local\Temp\ccYj4tTD.s:22729  .debug_str:0000000000009a4a .LASF1887
C:\Users\CYMR90~1\AppData\Local\Temp\ccYj4tTD.s:22541  .debug_str:0000000000008ecc .LASF1888
C:\Users\CYMR90~1\AppData\Local\Temp\ccYj4tTD.s:31202  .debug_str:000000000002b816 .LASF1889
C:\Users\CYMR90~1\AppData\Local\Temp\ccYj4tTD.s:26636  .debug_str:000000000001961e .LASF1890
C:\Users\CYMR90~1\AppData\Local\Temp\ccYj4tTD.s:22721  .debug_str:00000000000099bf .LASF1891
C:\Users\CYMR90~1\AppData\Local\Temp\ccYj4tTD.s:22813  .debug_str:0000000000009f5a .LASF1892
C:\Users\CYMR90~1\AppData\Local\Temp\ccYj4tTD.s:27382  .debug_str:000000000001c65e .LASF1893
C:\Users\CYMR90~1\AppData\Local\Temp\ccYj4tTD.s:22535  .debug_str:0000000000008e60 .LASF1894
C:\Users\CYMR90~1\AppData\Local\Temp\ccYj4tTD.s:21233  .debug_str:0000000000003a78 .LASF1895
C:\Users\CYMR90~1\AppData\Local\Temp\ccYj4tTD.s:26086  .debug_str:0000000000017317 .LASF1896
C:\Users\CYMR90~1\AppData\Local\Temp\ccYj4tTD.s:20751  .debug_str:0000000000001c7a .LASF1897
C:\Users\CYMR90~1\AppData\Local\Temp\ccYj4tTD.s:30036  .debug_str:0000000000026e11 .LASF1898
C:\Users\CYMR90~1\AppData\Local\Temp\ccYj4tTD.s:26886  .debug_str:000000000001a75a .LASF1899
C:\Users\CYMR90~1\AppData\Local\Temp\ccYj4tTD.s:23603  .debug_str:000000000000d476 .LASF1900
C:\Users\CYMR90~1\AppData\Local\Temp\ccYj4tTD.s:20359  .debug_str:000000000000043a .LASF1901
C:\Users\CYMR90~1\AppData\Local\Temp\ccYj4tTD.s:21183  .debug_str:0000000000003702 .LASF1902
C:\Users\CYMR90~1\AppData\Local\Temp\ccYj4tTD.s:23233  .debug_str:000000000000bb52 .LASF1903
C:\Users\CYMR90~1\AppData\Local\Temp\ccYj4tTD.s:31456  .debug_str:000000000002c887 .LASF1904
C:\Users\CYMR90~1\AppData\Local\Temp\ccYj4tTD.s:25957  .debug_str:000000000001690f .LASF1905
C:\Users\CYMR90~1\AppData\Local\Temp\ccYj4tTD.s:22691  .debug_str:0000000000009790 .LASF1906
C:\Users\CYMR90~1\AppData\Local\Temp\ccYj4tTD.s:30376  .debug_str:000000000002851c .LASF1907
C:\Users\CYMR90~1\AppData\Local\Temp\ccYj4tTD.s:27420  .debug_str:000000000001c979 .LASF1908
C:\Users\CYMR90~1\AppData\Local\Temp\ccYj4tTD.s:21709  .debug_str:00000000000058bc .LASF1909
C:\Users\CYMR90~1\AppData\Local\Temp\ccYj4tTD.s:30742  .debug_str:0000000000029c27 .LASF1910
C:\Users\CYMR90~1\AppData\Local\Temp\ccYj4tTD.s:27062  .debug_str:000000000001b334 .LASF1911
C:\Users\CYMR90~1\AppData\Local\Temp\ccYj4tTD.s:26736  .debug_str:0000000000019d4d .LASF1912
C:\Users\CYMR90~1\AppData\Local\Temp\ccYj4tTD.s:23143  .debug_str:000000000000b58b .LASF1913
C:\Users\CYMR90~1\AppData\Local\Temp\ccYj4tTD.s:22985  .debug_str:000000000000aa9a .LASF1914
C:\Users\CYMR90~1\AppData\Local\Temp\ccYj4tTD.s:28362  .debug_str:0000000000020495 .LASF1915
C:\Users\CYMR90~1\AppData\Local\Temp\ccYj4tTD.s:29640  .debug_str:00000000000254df .LASF1916
C:\Users\CYMR90~1\AppData\Local\Temp\ccYj4tTD.s:26252  .debug_str:0000000000017d63 .LASF1917
C:\Users\CYMR90~1\AppData\Local\Temp\ccYj4tTD.s:22889  .debug_str:000000000000a438 .LASF1918
C:\Users\CYMR90~1\AppData\Local\Temp\ccYj4tTD.s:30798  .debug_str:0000000000029f5e .LASF1919
C:\Users\CYMR90~1\AppData\Local\Temp\ccYj4tTD.s:27392  .debug_str:000000000001c701 .LASF1920
C:\Users\CYMR90~1\AppData\Local\Temp\ccYj4tTD.s:23183  .debug_str:000000000000b83f .LASF1921
C:\Users\CYMR90~1\AppData\Local\Temp\ccYj4tTD.s:22099  .debug_str:000000000000712b .LASF1922
C:\Users\CYMR90~1\AppData\Local\Temp\ccYj4tTD.s:28430  .debug_str:000000000002091c .LASF1923
C:\Users\CYMR90~1\AppData\Local\Temp\ccYj4tTD.s:30522  .debug_str:0000000000028e62 .LASF1924
C:\Users\CYMR90~1\AppData\Local\Temp\ccYj4tTD.s:23005  .debug_str:000000000000ac05 .LASF1925
C:\Users\CYMR90~1\AppData\Local\Temp\ccYj4tTD.s:28258  .debug_str:000000000001fe65 .LASF1926
C:\Users\CYMR90~1\AppData\Local\Temp\ccYj4tTD.s:27284  .debug_str:000000000001c083 .LASF1927
C:\Users\CYMR90~1\AppData\Local\Temp\ccYj4tTD.s:21221  .debug_str:000000000000397c .LASF1928
C:\Users\CYMR90~1\AppData\Local\Temp\ccYj4tTD.s:22149  .debug_str:000000000000749f .LASF1929
C:\Users\CYMR90~1\AppData\Local\Temp\ccYj4tTD.s:28184  .debug_str:000000000001f9b0 .LASF1930
C:\Users\CYMR90~1\AppData\Local\Temp\ccYj4tTD.s:31484  .debug_str:000000000002ca80 .LASF1931
C:\Users\CYMR90~1\AppData\Local\Temp\ccYj4tTD.s:31162  .debug_str:000000000002b592 .LASF1932
C:\Users\CYMR90~1\AppData\Local\Temp\ccYj4tTD.s:22259  .debug_str:0000000000007b74 .LASF1933
C:\Users\CYMR90~1\AppData\Local\Temp\ccYj4tTD.s:23311  .debug_str:000000000000c110 .LASF1934
C:\Users\CYMR90~1\AppData\Local\Temp\ccYj4tTD.s:27364  .debug_str:000000000001c523 .LASF1935
C:\Users\CYMR90~1\AppData\Local\Temp\ccYj4tTD.s:21751  .debug_str:0000000000005b7e .LASF1936
C:\Users\CYMR90~1\AppData\Local\Temp\ccYj4tTD.s:27222  .debug_str:000000000001bc70 .LASF1937
C:\Users\CYMR90~1\AppData\Local\Temp\ccYj4tTD.s:26198  .debug_str:0000000000017a3b .LASF1938
C:\Users\CYMR90~1\AppData\Local\Temp\ccYj4tTD.s:25515  .debug_str:0000000000014cc8 .LASF1939
C:\Users\CYMR90~1\AppData\Local\Temp\ccYj4tTD.s:22451  .debug_str:00000000000088bb .LASF1940
C:\Users\CYMR90~1\AppData\Local\Temp\ccYj4tTD.s:30586  .debug_str:000000000002924f .LASF1941
C:\Users\CYMR90~1\AppData\Local\Temp\ccYj4tTD.s:27474  .debug_str:000000000001ccce .LASF1942
C:\Users\CYMR90~1\AppData\Local\Temp\ccYj4tTD.s:23367  .debug_str:000000000000c47b .LASF1943
C:\Users\CYMR90~1\AppData\Local\Temp\ccYj4tTD.s:24495  .debug_str:0000000000010aee .LASF1944
C:\Users\CYMR90~1\AppData\Local\Temp\ccYj4tTD.s:28294  .debug_str:00000000000200a5 .LASF1945
C:\Users\CYMR90~1\AppData\Local\Temp\ccYj4tTD.s:25227  .debug_str:0000000000013ae7 .LASF1946
C:\Users\CYMR90~1\AppData\Local\Temp\ccYj4tTD.s:22045  .debug_str:0000000000006d49 .LASF1947
C:\Users\CYMR90~1\AppData\Local\Temp\ccYj4tTD.s:20957  .debug_str:00000000000028bd .LASF1948
C:\Users\CYMR90~1\AppData\Local\Temp\ccYj4tTD.s:27112  .debug_str:000000000001b5ff .LASF1949
C:\Users\CYMR90~1\AppData\Local\Temp\ccYj4tTD.s:24043  .debug_str:000000000000eecb .LASF1950
C:\Users\CYMR90~1\AppData\Local\Temp\ccYj4tTD.s:20823  .debug_str:000000000000208e .LASF1951
C:\Users\CYMR90~1\AppData\Local\Temp\ccYj4tTD.s:29052  .debug_str:0000000000022eac .LASF1952
C:\Users\CYMR90~1\AppData\Local\Temp\ccYj4tTD.s:29774  .debug_str:0000000000025dea .LASF1953
C:\Users\CYMR90~1\AppData\Local\Temp\ccYj4tTD.s:25351  .debug_str:00000000000142ad .LASF1954
C:\Users\CYMR90~1\AppData\Local\Temp\ccYj4tTD.s:28576  .debug_str:00000000000211aa .LASF1955
C:\Users\CYMR90~1\AppData\Local\Temp\ccYj4tTD.s:29254  .debug_str:0000000000023ac2 .LASF1956
C:\Users\CYMR90~1\AppData\Local\Temp\ccYj4tTD.s:20879  .debug_str:000000000000238b .LASF1957
C:\Users\CYMR90~1\AppData\Local\Temp\ccYj4tTD.s:31004  .debug_str:000000000002aba3 .LASF1958
C:\Users\CYMR90~1\AppData\Local\Temp\ccYj4tTD.s:22265  .debug_str:0000000000007be5 .LASF1959
C:\Users\CYMR90~1\AppData\Local\Temp\ccYj4tTD.s:30570  .debug_str:0000000000029180 .LASF1960
C:\Users\CYMR90~1\AppData\Local\Temp\ccYj4tTD.s:27428  .debug_str:000000000001c9ff .LASF1961
C:\Users\CYMR90~1\AppData\Local\Temp\ccYj4tTD.s:20401  .debug_str:000000000000069f .LASF1962
C:\Users\CYMR90~1\AppData\Local\Temp\ccYj4tTD.s:25741  .debug_str:0000000000015a82 .LASF1963
C:\Users\CYMR90~1\AppData\Local\Temp\ccYj4tTD.s:29622  .debug_str:0000000000025392 .LASF1964
C:\Users\CYMR90~1\AppData\Local\Temp\ccYj4tTD.s:22103  .debug_str:0000000000007196 .LASF1965
C:\Users\CYMR90~1\AppData\Local\Temp\ccYj4tTD.s:27564  .debug_str:000000000001d356 .LASF1966
C:\Users\CYMR90~1\AppData\Local\Temp\ccYj4tTD.s:31102  .debug_str:000000000002b15a .LASF1967
C:\Users\CYMR90~1\AppData\Local\Temp\ccYj4tTD.s:27406  .debug_str:000000000001c890 .LASF1968
C:\Users\CYMR90~1\AppData\Local\Temp\ccYj4tTD.s:28934  .debug_str:00000000000227b4 .LASF1969
C:\Users\CYMR90~1\AppData\Local\Temp\ccYj4tTD.s:20779  .debug_str:0000000000001e36 .LASF1970
C:\Users\CYMR90~1\AppData\Local\Temp\ccYj4tTD.s:28938  .debug_str:00000000000227e5 .LASF1971
C:\Users\CYMR90~1\AppData\Local\Temp\ccYj4tTD.s:29658  .debug_str:000000000002560f .LASF1972
C:\Users\CYMR90~1\AppData\Local\Temp\ccYj4tTD.s:26724  .debug_str:0000000000019c8d .LASF1973
C:\Users\CYMR90~1\AppData\Local\Temp\ccYj4tTD.s:26530  .debug_str:0000000000018f2c .LASF1974
C:\Users\CYMR90~1\AppData\Local\Temp\ccYj4tTD.s:31052  .debug_str:000000000002ae87 .LASF1975
C:\Users\CYMR90~1\AppData\Local\Temp\ccYj4tTD.s:22285  .debug_str:0000000000007dc3 .LASF1976
C:\Users\CYMR90~1\AppData\Local\Temp\ccYj4tTD.s:22641  .debug_str:000000000000947f .LASF1977
C:\Users\CYMR90~1\AppData\Local\Temp\ccYj4tTD.s:28798  .debug_str:0000000000021f92 .LASF1978
C:\Users\CYMR90~1\AppData\Local\Temp\ccYj4tTD.s:21573  .debug_str:00000000000050bf .LASF1979
C:\Users\CYMR90~1\AppData\Local\Temp\ccYj4tTD.s:29558  .debug_str:0000000000024e90 .LASF1980
C:\Users\CYMR90~1\AppData\Local\Temp\ccYj4tTD.s:29416  .debug_str:0000000000024532 .LASF1981
C:\Users\CYMR90~1\AppData\Local\Temp\ccYj4tTD.s:29260  .debug_str:0000000000023b1d .LASF1982
C:\Users\CYMR90~1\AppData\Local\Temp\ccYj4tTD.s:30086  .debug_str:00000000000270e6 .LASF1983
C:\Users\CYMR90~1\AppData\Local\Temp\ccYj4tTD.s:31008  .debug_str:000000000002abf9 .LASF1984
C:\Users\CYMR90~1\AppData\Local\Temp\ccYj4tTD.s:27950  .debug_str:000000000001eb7d .LASF1985
C:\Users\CYMR90~1\AppData\Local\Temp\ccYj4tTD.s:27142  .debug_str:000000000001b7ea .LASF1986
C:\Users\CYMR90~1\AppData\Local\Temp\ccYj4tTD.s:25431  .debug_str:000000000001478c .LASF1987
C:\Users\CYMR90~1\AppData\Local\Temp\ccYj4tTD.s:26428  .debug_str:0000000000018812 .LASF1988
C:\Users\CYMR90~1\AppData\Local\Temp\ccYj4tTD.s:23467  .debug_str:000000000000cb66 .LASF1989
C:\Users\CYMR90~1\AppData\Local\Temp\ccYj4tTD.s:21321  .debug_str:0000000000003ffc .LASF1990
C:\Users\CYMR90~1\AppData\Local\Temp\ccYj4tTD.s:23529  .debug_str:000000000000ceeb .LASF1991
C:\Users\CYMR90~1\AppData\Local\Temp\ccYj4tTD.s:24419  .debug_str:0000000000010619 .LASF1992
C:\Users\CYMR90~1\AppData\Local\Temp\ccYj4tTD.s:27148  .debug_str:000000000001b848 .LASF1993
C:\Users\CYMR90~1\AppData\Local\Temp\ccYj4tTD.s:20543  .debug_str:0000000000000fdb .LASF1994
C:\Users\CYMR90~1\AppData\Local\Temp\ccYj4tTD.s:29674  .debug_str:000000000002574d .LASF1995
C:\Users\CYMR90~1\AppData\Local\Temp\ccYj4tTD.s:21181  .debug_str:00000000000036ce .LASF1996
C:\Users\CYMR90~1\AppData\Local\Temp\ccYj4tTD.s:30140  .debug_str:000000000002751b .LASF1997
C:\Users\CYMR90~1\AppData\Local\Temp\ccYj4tTD.s:22423  .debug_str:0000000000008700 .LASF1998
C:\Users\CYMR90~1\AppData\Local\Temp\ccYj4tTD.s:26354  .debug_str:000000000001839a .LASF1999
C:\Users\CYMR90~1\AppData\Local\Temp\ccYj4tTD.s:25841  .debug_str:000000000001617b .LASF2000
C:\Users\CYMR90~1\AppData\Local\Temp\ccYj4tTD.s:24653  .debug_str:0000000000011495 .LASF2001
C:\Users\CYMR90~1\AppData\Local\Temp\ccYj4tTD.s:28946  .debug_str:0000000000022877 .LASF2002
C:\Users\CYMR90~1\AppData\Local\Temp\ccYj4tTD.s:30354  .debug_str:00000000000283cf .LASF2003
C:\Users\CYMR90~1\AppData\Local\Temp\ccYj4tTD.s:25381  .debug_str:000000000001442d .LASF2004
C:\Users\CYMR90~1\AppData\Local\Temp\ccYj4tTD.s:28836  .debug_str:00000000000221ea .LASF2005
C:\Users\CYMR90~1\AppData\Local\Temp\ccYj4tTD.s:26048  .debug_str:00000000000170fc .LASF2006
C:\Users\CYMR90~1\AppData\Local\Temp\ccYj4tTD.s:31254  .debug_str:000000000002bbaa .LASF2007
C:\Users\CYMR90~1\AppData\Local\Temp\ccYj4tTD.s:21619  .debug_str:000000000000539a .LASF2008
C:\Users\CYMR90~1\AppData\Local\Temp\ccYj4tTD.s:25153  .debug_str:0000000000013684 .LASF2009
C:\Users\CYMR90~1\AppData\Local\Temp\ccYj4tTD.s:27848  .debug_str:000000000001e57b .LASF2010
C:\Users\CYMR90~1\AppData\Local\Temp\ccYj4tTD.s:23497  .debug_str:000000000000cd5b .LASF2011
C:\Users\CYMR90~1\AppData\Local\Temp\ccYj4tTD.s:20733  .debug_str:0000000000001b7c .LASF2012
C:\Users\CYMR90~1\AppData\Local\Temp\ccYj4tTD.s:29132  .debug_str:000000000002331f .LASF2013
C:\Users\CYMR90~1\AppData\Local\Temp\ccYj4tTD.s:28886  .debug_str:0000000000022490 .LASF2014
C:\Users\CYMR90~1\AppData\Local\Temp\ccYj4tTD.s:26864  .debug_str:000000000001a5fd .LASF2015
C:\Users\CYMR90~1\AppData\Local\Temp\ccYj4tTD.s:30730  .debug_str:0000000000029b73 .LASF2016
C:\Users\CYMR90~1\AppData\Local\Temp\ccYj4tTD.s:29044  .debug_str:0000000000022e55 .LASF2017
C:\Users\CYMR90~1\AppData\Local\Temp\ccYj4tTD.s:31164  .debug_str:000000000002b5c2 .LASF2018
C:\Users\CYMR90~1\AppData\Local\Temp\ccYj4tTD.s:27604  .debug_str:000000000001d5ce .LASF2019
C:\Users\CYMR90~1\AppData\Local\Temp\ccYj4tTD.s:21981  .debug_str:0000000000006912 .LASF2020
C:\Users\CYMR90~1\AppData\Local\Temp\ccYj4tTD.s:29086  .debug_str:0000000000023096 .LASF2021
C:\Users\CYMR90~1\AppData\Local\Temp\ccYj4tTD.s:30076  .debug_str:0000000000027068 .LASF2022
C:\Users\CYMR90~1\AppData\Local\Temp\ccYj4tTD.s:24539  .debug_str:0000000000010dbe .LASF2023
C:\Users\CYMR90~1\AppData\Local\Temp\ccYj4tTD.s:30014  .debug_str:0000000000026c75 .LASF2024
C:\Users\CYMR90~1\AppData\Local\Temp\ccYj4tTD.s:23207  .debug_str:000000000000ba05 .LASF2025
C:\Users\CYMR90~1\AppData\Local\Temp\ccYj4tTD.s:31116  .debug_str:000000000002b229 .LASF2026
C:\Users\CYMR90~1\AppData\Local\Temp\ccYj4tTD.s:21143  .debug_str:00000000000034ae .LASF2027
C:\Users\CYMR90~1\AppData\Local\Temp\ccYj4tTD.s:29144  .debug_str:00000000000233ba .LASF2028
C:\Users\CYMR90~1\AppData\Local\Temp\ccYj4tTD.s:28154  .debug_str:000000000001f7c5 .LASF2029
C:\Users\CYMR90~1\AppData\Local\Temp\ccYj4tTD.s:20305  .debug_str:00000000000000ff .LASF2030
C:\Users\CYMR90~1\AppData\Local\Temp\ccYj4tTD.s:26256  .debug_str:0000000000017da4 .LASF2031
C:\Users\CYMR90~1\AppData\Local\Temp\ccYj4tTD.s:22979  .debug_str:000000000000aa55 .LASF2032
C:\Users\CYMR90~1\AppData\Local\Temp\ccYj4tTD.s:24177  .debug_str:000000000000f793 .LASF2033
C:\Users\CYMR90~1\AppData\Local\Temp\ccYj4tTD.s:23187  .debug_str:000000000000b882 .LASF2034
C:\Users\CYMR90~1\AppData\Local\Temp\ccYj4tTD.s:24727  .debug_str:0000000000011a78 .LASF2035
C:\Users\CYMR90~1\AppData\Local\Temp\ccYj4tTD.s:28610  .debug_str:0000000000021447 .LASF2036
C:\Users\CYMR90~1\AppData\Local\Temp\ccYj4tTD.s:29022  .debug_str:0000000000022d2a .LASF2037
C:\Users\CYMR90~1\AppData\Local\Temp\ccYj4tTD.s:29602  .debug_str:00000000000251ac .LASF2038
C:\Users\CYMR90~1\AppData\Local\Temp\ccYj4tTD.s:24823  .debug_str:000000000001206d .LASF2039
C:\Users\CYMR90~1\AppData\Local\Temp\ccYj4tTD.s:26802  .debug_str:000000000001a10c .LASF2040
C:\Users\CYMR90~1\AppData\Local\Temp\ccYj4tTD.s:23525  .debug_str:000000000000cebf .LASF2041
C:\Users\CYMR90~1\AppData\Local\Temp\ccYj4tTD.s:20965  .debug_str:0000000000002930 .LASF2042
C:\Users\CYMR90~1\AppData\Local\Temp\ccYj4tTD.s:21711  .debug_str:00000000000058fa .LASF2043
C:\Users\CYMR90~1\AppData\Local\Temp\ccYj4tTD.s:31534  .debug_str:000000000002cded .LASF2044
C:\Users\CYMR90~1\AppData\Local\Temp\ccYj4tTD.s:25123  .debug_str:0000000000013484 .LASF2045
C:\Users\CYMR90~1\AppData\Local\Temp\ccYj4tTD.s:28902  .debug_str:000000000002259c .LASF2046
C:\Users\CYMR90~1\AppData\Local\Temp\ccYj4tTD.s:30534  .debug_str:0000000000028f35 .LASF2047
C:\Users\CYMR90~1\AppData\Local\Temp\ccYj4tTD.s:27266  .debug_str:000000000001bf6a .LASF2048
C:\Users\CYMR90~1\AppData\Local\Temp\ccYj4tTD.s:27806  .debug_str:000000000001e2ec .LASF2049
C:\Users\CYMR90~1\AppData\Local\Temp\ccYj4tTD.s:21775  .debug_str:0000000000005ce8 .LASF2050
C:\Users\CYMR90~1\AppData\Local\Temp\ccYj4tTD.s:21129  .debug_str:00000000000033b4 .LASF2051
C:\Users\CYMR90~1\AppData\Local\Temp\ccYj4tTD.s:23091  .debug_str:000000000000b221 .LASF2052
C:\Users\CYMR90~1\AppData\Local\Temp\ccYj4tTD.s:29638  .debug_str:0000000000025498 .LASF2053
C:\Users\CYMR90~1\AppData\Local\Temp\ccYj4tTD.s:30960  .debug_str:000000000002a916 .LASF2054
C:\Users\CYMR90~1\AppData\Local\Temp\ccYj4tTD.s:21583  .debug_str:0000000000005167 .LASF2055
C:\Users\CYMR90~1\AppData\Local\Temp\ccYj4tTD.s:29970  .debug_str:00000000000269f1 .LASF2056
C:\Users\CYMR90~1\AppData\Local\Temp\ccYj4tTD.s:27968  .debug_str:000000000001ec9e .LASF2057
C:\Users\CYMR90~1\AppData\Local\Temp\ccYj4tTD.s:26104  .debug_str:0000000000017421 .LASF2058
C:\Users\CYMR90~1\AppData\Local\Temp\ccYj4tTD.s:22969  .debug_str:000000000000a9ac .LASF2059
C:\Users\CYMR90~1\AppData\Local\Temp\ccYj4tTD.s:23771  .debug_str:000000000000deac .LASF2060
C:\Users\CYMR90~1\AppData\Local\Temp\ccYj4tTD.s:28416  .debug_str:0000000000020867 .LASF2061
C:\Users\CYMR90~1\AppData\Local\Temp\ccYj4tTD.s:25255  .debug_str:0000000000013c88 .LASF2062
C:\Users\CYMR90~1\AppData\Local\Temp\ccYj4tTD.s:20937  .debug_str:000000000000274d .LASF2063
C:\Users\CYMR90~1\AppData\Local\Temp\ccYj4tTD.s:27006  .debug_str:000000000001af2b .LASF2064
C:\Users\CYMR90~1\AppData\Local\Temp\ccYj4tTD.s:25873  .debug_str:0000000000016360 .LASF2065
C:\Users\CYMR90~1\AppData\Local\Temp\ccYj4tTD.s:22657  .debug_str:000000000000955f .LASF2066
C:\Users\CYMR90~1\AppData\Local\Temp\ccYj4tTD.s:23119  .debug_str:000000000000b3a1 .LASF2067
C:\Users\CYMR90~1\AppData\Local\Temp\ccYj4tTD.s:26204  .debug_str:0000000000017a91 .LASF2068
C:\Users\CYMR90~1\AppData\Local\Temp\ccYj4tTD.s:25815  .debug_str:0000000000015fc5 .LASF2069
C:\Users\CYMR90~1\AppData\Local\Temp\ccYj4tTD.s:23659  .debug_str:000000000000d7d5 .LASF2070
C:\Users\CYMR90~1\AppData\Local\Temp\ccYj4tTD.s:21745  .debug_str:0000000000005b37 .LASF2071
C:\Users\CYMR90~1\AppData\Local\Temp\ccYj4tTD.s:24981  .debug_str:0000000000012ac4 .LASF2072
C:\Users\CYMR90~1\AppData\Local\Temp\ccYj4tTD.s:24003  .debug_str:000000000000ecda .LASF2073
C:\Users\CYMR90~1\AppData\Local\Temp\ccYj4tTD.s:23249  .debug_str:000000000000bc85 .LASF2074
C:\Users\CYMR90~1\AppData\Local\Temp\ccYj4tTD.s:31338  .debug_str:000000000002c11c .LASF2075
C:\Users\CYMR90~1\AppData\Local\Temp\ccYj4tTD.s:22527  .debug_str:0000000000008df4 .LASF2076
C:\Users\CYMR90~1\AppData\Local\Temp\ccYj4tTD.s:30618  .debug_str:00000000000294a3 .LASF2077
C:\Users\CYMR90~1\AppData\Local\Temp\ccYj4tTD.s:21597  .debug_str:0000000000005238 .LASF2078
C:\Users\CYMR90~1\AppData\Local\Temp\ccYj4tTD.s:20701  .debug_str:0000000000001973 .LASF2079
C:\Users\CYMR90~1\AppData\Local\Temp\ccYj4tTD.s:29176  .debug_str:00000000000235f1 .LASF2080
C:\Users\CYMR90~1\AppData\Local\Temp\ccYj4tTD.s:30496  .debug_str:0000000000028cce .LASF2081
C:\Users\CYMR90~1\AppData\Local\Temp\ccYj4tTD.s:30588  .debug_str:0000000000029277 .LASF2082
C:\Users\CYMR90~1\AppData\Local\Temp\ccYj4tTD.s:24849  .debug_str:00000000000121e9 .LASF2083
C:\Users\CYMR90~1\AppData\Local\Temp\ccYj4tTD.s:22307  .debug_str:0000000000007f2e .LASF2084
C:\Users\CYMR90~1\AppData\Local\Temp\ccYj4tTD.s:29058  .debug_str:0000000000022f0a .LASF2085
C:\Users\CYMR90~1\AppData\Local\Temp\ccYj4tTD.s:20595  .debug_str:00000000000012b4 .LASF2086
C:\Users\CYMR90~1\AppData\Local\Temp\ccYj4tTD.s:20451  .debug_str:00000000000009bf .LASF2087
C:\Users\CYMR90~1\AppData\Local\Temp\ccYj4tTD.s:27066  .debug_str:000000000001b37a .LASF2088
C:\Users\CYMR90~1\AppData\Local\Temp\ccYj4tTD.s:28124  .debug_str:000000000001f624 .LASF2089
C:\Users\CYMR90~1\AppData\Local\Temp\ccYj4tTD.s:26038  .debug_str:000000000001705b .LASF2090
C:\Users\CYMR90~1\AppData\Local\Temp\ccYj4tTD.s:24783  .debug_str:0000000000011da7 .LASF2091
C:\Users\CYMR90~1\AppData\Local\Temp\ccYj4tTD.s:26130  .debug_str:00000000000175be .LASF2092
C:\Users\CYMR90~1\AppData\Local\Temp\ccYj4tTD.s:25285  .debug_str:0000000000013e70 .LASF2093
C:\Users\CYMR90~1\AppData\Local\Temp\ccYj4tTD.s:31332  .debug_str:000000000002c0c8 .LASF2094
C:\Users\CYMR90~1\AppData\Local\Temp\ccYj4tTD.s:21347  .debug_str:000000000000420a .LASF2095
C:\Users\CYMR90~1\AppData\Local\Temp\ccYj4tTD.s:22769  .debug_str:0000000000009c8f .LASF2096
C:\Users\CYMR90~1\AppData\Local\Temp\ccYj4tTD.s:21099  .debug_str:00000000000031b5 .LASF2097
C:\Users\CYMR90~1\AppData\Local\Temp\ccYj4tTD.s:29784  .debug_str:0000000000025e88 .LASF2098
C:\Users\CYMR90~1\AppData\Local\Temp\ccYj4tTD.s:24335  .debug_str:0000000000010147 .LASF2099
C:\Users\CYMR90~1\AppData\Local\Temp\ccYj4tTD.s:23127  .debug_str:000000000000b428 .LASF2100
C:\Users\CYMR90~1\AppData\Local\Temp\ccYj4tTD.s:21919  .debug_str:000000000000657e .LASF2101
C:\Users\CYMR90~1\AppData\Local\Temp\ccYj4tTD.s:21015  .debug_str:0000000000002c64 .LASF2102
C:\Users\CYMR90~1\AppData\Local\Temp\ccYj4tTD.s:22805  .debug_str:0000000000009eb3 .LASF2103
C:\Users\CYMR90~1\AppData\Local\Temp\ccYj4tTD.s:31286  .debug_str:000000000002bd92 .LASF2104
C:\Users\CYMR90~1\AppData\Local\Temp\ccYj4tTD.s:26128  .debug_str:000000000001759a .LASF2105
C:\Users\CYMR90~1\AppData\Local\Temp\ccYj4tTD.s:21117  .debug_str:00000000000032dc .LASF2106
C:\Users\CYMR90~1\AppData\Local\Temp\ccYj4tTD.s:30558  .debug_str:00000000000290c8 .LASF2107
C:\Users\CYMR90~1\AppData\Local\Temp\ccYj4tTD.s:24817  .debug_str:0000000000011ff3 .LASF2108
C:\Users\CYMR90~1\AppData\Local\Temp\ccYj4tTD.s:21133  .debug_str:00000000000033f2 .LASF2109
C:\Users\CYMR90~1\AppData\Local\Temp\ccYj4tTD.s:23569  .debug_str:000000000000d1a0 .LASF2110
C:\Users\CYMR90~1\AppData\Local\Temp\ccYj4tTD.s:26080  .debug_str:00000000000172bb .LASF2111
C:\Users\CYMR90~1\AppData\Local\Temp\ccYj4tTD.s:28144  .debug_str:000000000001f73f .LASF2112
C:\Users\CYMR90~1\AppData\Local\Temp\ccYj4tTD.s:30724  .debug_str:0000000000029b19 .LASF2113
C:\Users\CYMR90~1\AppData\Local\Temp\ccYj4tTD.s:30122  .debug_str:00000000000273fc .LASF2114
C:\Users\CYMR90~1\AppData\Local\Temp\ccYj4tTD.s:25177  .debug_str:00000000000137dd .LASF2115
C:\Users\CYMR90~1\AppData\Local\Temp\ccYj4tTD.s:26994  .debug_str:000000000001ae4d .LASF2116
C:\Users\CYMR90~1\AppData\Local\Temp\ccYj4tTD.s:25363  .debug_str:000000000001434a .LASF2117
C:\Users\CYMR90~1\AppData\Local\Temp\ccYj4tTD.s:29408  .debug_str:00000000000244c3 .LASF2118
C:\Users\CYMR90~1\AppData\Local\Temp\ccYj4tTD.s:28088  .debug_str:000000000001f3fd .LASF2119
C:\Users\CYMR90~1\AppData\Local\Temp\ccYj4tTD.s:20969  .debug_str:0000000000002967 .LASF2120
C:\Users\CYMR90~1\AppData\Local\Temp\ccYj4tTD.s:28516  .debug_str:0000000000020e5a .LASF2121
C:\Users\CYMR90~1\AppData\Local\Temp\ccYj4tTD.s:22381  .debug_str:00000000000084a8 .LASF2122
C:\Users\CYMR90~1\AppData\Local\Temp\ccYj4tTD.s:25225  .debug_str:0000000000013ac3 .LASF2123
C:\Users\CYMR90~1\AppData\Local\Temp\ccYj4tTD.s:27832  .debug_str:000000000001e47e .LASF2124
C:\Users\CYMR90~1\AppData\Local\Temp\ccYj4tTD.s:25077  .debug_str:000000000001310b .LASF2125
C:\Users\CYMR90~1\AppData\Local\Temp\ccYj4tTD.s:26196  .debug_str:0000000000017a14 .LASF2126
C:\Users\CYMR90~1\AppData\Local\Temp\ccYj4tTD.s:30100  .debug_str:00000000000271f1 .LASF2127
C:\Users\CYMR90~1\AppData\Local\Temp\ccYj4tTD.s:28624  .debug_str:000000000002151d .LASF2128
C:\Users\CYMR90~1\AppData\Local\Temp\ccYj4tTD.s:24535  .debug_str:0000000000010d83 .LASF2129
C:\Users\CYMR90~1\AppData\Local\Temp\ccYj4tTD.s:28532  .debug_str:0000000000020f34 .LASF2130
C:\Users\CYMR90~1\AppData\Local\Temp\ccYj4tTD.s:26418  .debug_str:000000000001877c .LASF2131
C:\Users\CYMR90~1\AppData\Local\Temp\ccYj4tTD.s:28358  .debug_str:0000000000020450 .LASF2132
C:\Users\CYMR90~1\AppData\Local\Temp\ccYj4tTD.s:24721  .debug_str:0000000000011a02 .LASF2133
C:\Users\CYMR90~1\AppData\Local\Temp\ccYj4tTD.s:27416  .debug_str:000000000001c947 .LASF2134
C:\Users\CYMR90~1\AppData\Local\Temp\ccYj4tTD.s:20847  .debug_str:00000000000021dd .LASF2135
C:\Users\CYMR90~1\AppData\Local\Temp\ccYj4tTD.s:26578  .debug_str:00000000000192be .LASF2136
C:\Users\CYMR90~1\AppData\Local\Temp\ccYj4tTD.s:30826  .debug_str:000000000002a110 .LASF2137
C:\Users\CYMR90~1\AppData\Local\Temp\ccYj4tTD.s:22383  .debug_str:00000000000084cd .LASF2138
C:\Users\CYMR90~1\AppData\Local\Temp\ccYj4tTD.s:28716  .debug_str:0000000000021acd .LASF2139
C:\Users\CYMR90~1\AppData\Local\Temp\ccYj4tTD.s:24629  .debug_str:00000000000112f4 .LASF2140
C:\Users\CYMR90~1\AppData\Local\Temp\ccYj4tTD.s:24121  .debug_str:000000000000f3b3 .LASF2141
C:\Users\CYMR90~1\AppData\Local\Temp\ccYj4tTD.s:28104  .debug_str:000000000001f4f8 .LASF2142
C:\Users\CYMR90~1\AppData\Local\Temp\ccYj4tTD.s:28646  .debug_str:000000000002165f .LASF2143
C:\Users\CYMR90~1\AppData\Local\Temp\ccYj4tTD.s:24915  .debug_str:000000000001264e .LASF2144
C:\Users\CYMR90~1\AppData\Local\Temp\ccYj4tTD.s:21135  .debug_str:0000000000003419 .LASF2145
C:\Users\CYMR90~1\AppData\Local\Temp\ccYj4tTD.s:20313  .debug_str:000000000000015b .LASF2146
C:\Users\CYMR90~1\AppData\Local\Temp\ccYj4tTD.s:23975  .debug_str:000000000000eb10 .LASF2147
C:\Users\CYMR90~1\AppData\Local\Temp\ccYj4tTD.s:26136  .debug_str:0000000000017614 .LASF2148
C:\Users\CYMR90~1\AppData\Local\Temp\ccYj4tTD.s:30524  .debug_str:0000000000028ea2 .LASF2149
C:\Users\CYMR90~1\AppData\Local\Temp\ccYj4tTD.s:30124  .debug_str:0000000000027423 .LASF2150
C:\Users\CYMR90~1\AppData\Local\Temp\ccYj4tTD.s:25179  .debug_str:0000000000013804 .LASF2151
C:\Users\CYMR90~1\AppData\Local\Temp\ccYj4tTD.s:23739  .debug_str:000000000000dc56 .LASF2152
C:\Users\CYMR90~1\AppData\Local\Temp\ccYj4tTD.s:30682  .debug_str:00000000000298e2 .LASF2153
C:\Users\CYMR90~1\AppData\Local\Temp\ccYj4tTD.s:25919  .debug_str:000000000001667c .LASF2154
C:\Users\CYMR90~1\AppData\Local\Temp\ccYj4tTD.s:20653  .debug_str:00000000000015f5 .LASF2155
C:\Users\CYMR90~1\AppData\Local\Temp\ccYj4tTD.s:21209  .debug_str:00000000000038ce .LASF2156
C:\Users\CYMR90~1\AppData\Local\Temp\ccYj4tTD.s:30088  .debug_str:0000000000027109 .LASF2157
C:\Users\CYMR90~1\AppData\Local\Temp\ccYj4tTD.s:24571  .debug_str:0000000000010f8a .LASF2158
C:\Users\CYMR90~1\AppData\Local\Temp\ccYj4tTD.s:26480  .debug_str:0000000000018b6e .LASF2159
C:\Users\CYMR90~1\AppData\Local\Temp\ccYj4tTD.s:29888  .debug_str:0000000000026519 .LASF2160
C:\Users\CYMR90~1\AppData\Local\Temp\ccYj4tTD.s:22557  .debug_str:0000000000008fcc .LASF2161
C:\Users\CYMR90~1\AppData\Local\Temp\ccYj4tTD.s:30808  .debug_str:000000000002a004 .LASF2162
C:\Users\CYMR90~1\AppData\Local\Temp\ccYj4tTD.s:31522  .debug_str:000000000002cccb .LASF2163
C:\Users\CYMR90~1\AppData\Local\Temp\ccYj4tTD.s:21247  .debug_str:0000000000003b49 .LASF2164
C:\Users\CYMR90~1\AppData\Local\Temp\ccYj4tTD.s:29154  .debug_str:0000000000023456 .LASF2165
C:\Users\CYMR90~1\AppData\Local\Temp\ccYj4tTD.s:26562  .debug_str:00000000000191f7 .LASF2166
C:\Users\CYMR90~1\AppData\Local\Temp\ccYj4tTD.s:24115  .debug_str:000000000000f35c .LASF2167
C:\Users\CYMR90~1\AppData\Local\Temp\ccYj4tTD.s:22415  .debug_str:0000000000008694 .LASF2168
C:\Users\CYMR90~1\AppData\Local\Temp\ccYj4tTD.s:27658  .debug_str:000000000001d997 .LASF2169
C:\Users\CYMR90~1\AppData\Local\Temp\ccYj4tTD.s:25863  .debug_str:00000000000162c8 .LASF2170
C:\Users\CYMR90~1\AppData\Local\Temp\ccYj4tTD.s:23889  .debug_str:000000000000e582 .LASF2171
C:\Users\CYMR90~1\AppData\Local\Temp\ccYj4tTD.s:24031  .debug_str:000000000000ee3b .LASF2172
C:\Users\CYMR90~1\AppData\Local\Temp\ccYj4tTD.s:28108  .debug_str:000000000001f52f .LASF2173
C:\Users\CYMR90~1\AppData\Local\Temp\ccYj4tTD.s:25803  .debug_str:0000000000015ee8 .LASF2174
C:\Users\CYMR90~1\AppData\Local\Temp\ccYj4tTD.s:24777  .debug_str:0000000000011d65 .LASF2175
C:\Users\CYMR90~1\AppData\Local\Temp\ccYj4tTD.s:27898  .debug_str:000000000001e8a4 .LASF2176
C:\Users\CYMR90~1\AppData\Local\Temp\ccYj4tTD.s:23129  .debug_str:000000000000b437 .LASF2177
C:\Users\CYMR90~1\AppData\Local\Temp\ccYj4tTD.s:28796  .debug_str:0000000000021f7b .LASF2178
C:\Users\CYMR90~1\AppData\Local\Temp\ccYj4tTD.s:23753  .debug_str:000000000000dd4f .LASF2179
C:\Users\CYMR90~1\AppData\Local\Temp\ccYj4tTD.s:22255  .debug_str:0000000000007b3e .LASF2180
C:\Users\CYMR90~1\AppData\Local\Temp\ccYj4tTD.s:25017  .debug_str:0000000000012d18 .LASF2181
C:\Users\CYMR90~1\AppData\Local\Temp\ccYj4tTD.s:23919  .debug_str:000000000000e7a7 .LASF2182
C:\Users\CYMR90~1\AppData\Local\Temp\ccYj4tTD.s:25837  .debug_str:0000000000016145 .LASF2183
C:\Users\CYMR90~1\AppData\Local\Temp\ccYj4tTD.s:21367  .debug_str:000000000000432a .LASF2184
C:\Users\CYMR90~1\AppData\Local\Temp\ccYj4tTD.s:24203  .debug_str:000000000000f920 .LASF2185
C:\Users\CYMR90~1\AppData\Local\Temp\ccYj4tTD.s:31074  .debug_str:000000000002afd5 .LASF2186
C:\Users\CYMR90~1\AppData\Local\Temp\ccYj4tTD.s:27908  .debug_str:000000000001e944 .LASF2187
C:\Users\CYMR90~1\AppData\Local\Temp\ccYj4tTD.s:22753  .debug_str:0000000000009bbd .LASF2188
C:\Users\CYMR90~1\AppData\Local\Temp\ccYj4tTD.s:26900  .debug_str:000000000001a8c6 .LASF2189
C:\Users\CYMR90~1\AppData\Local\Temp\ccYj4tTD.s:21305  .debug_str:0000000000003e94 .LASF2190
C:\Users\CYMR90~1\AppData\Local\Temp\ccYj4tTD.s:22851  .debug_str:000000000000a1bc .LASF2191
C:\Users\CYMR90~1\AppData\Local\Temp\ccYj4tTD.s:27988  .debug_str:000000000001edb4 .LASF2192
C:\Users\CYMR90~1\AppData\Local\Temp\ccYj4tTD.s:21225  .debug_str:00000000000039c9 .LASF2193
C:\Users\CYMR90~1\AppData\Local\Temp\ccYj4tTD.s:24659  .debug_str:00000000000114eb .LASF2194
C:\Users\CYMR90~1\AppData\Local\Temp\ccYj4tTD.s:20993  .debug_str:0000000000002afc .LASF2195
C:\Users\CYMR90~1\AppData\Local\Temp\ccYj4tTD.s:26452  .debug_str:00000000000189ae .LASF2196
C:\Users\CYMR90~1\AppData\Local\Temp\ccYj4tTD.s:25529  .debug_str:0000000000014dc1 .LASF2197
C:\Users\CYMR90~1\AppData\Local\Temp\ccYj4tTD.s:22481  .debug_str:0000000000008ac2 .LASF2198
C:\Users\CYMR90~1\AppData\Local\Temp\ccYj4tTD.s:28352  .debug_str:0000000000020407 .LASF2199
C:\Users\CYMR90~1\AppData\Local\Temp\ccYj4tTD.s:22993  .debug_str:000000000000ab34 .LASF2200
C:\Users\CYMR90~1\AppData\Local\Temp\ccYj4tTD.s:28862  .debug_str:0000000000022365 .LASF2201
C:\Users\CYMR90~1\AppData\Local\Temp\ccYj4tTD.s:28188  .debug_str:000000000001f9f1 .LASF2202
C:\Users\CYMR90~1\AppData\Local\Temp\ccYj4tTD.s:29374  .debug_str:000000000002424d .LASF2203
C:\Users\CYMR90~1\AppData\Local\Temp\ccYj4tTD.s:29954  .debug_str:0000000000026916 .LASF2204
C:\Users\CYMR90~1\AppData\Local\Temp\ccYj4tTD.s:29788  .debug_str:0000000000025ebb .LASF2205
C:\Users\CYMR90~1\AppData\Local\Temp\ccYj4tTD.s:29424  .debug_str:0000000000024599 .LASF2206
C:\Users\CYMR90~1\AppData\Local\Temp\ccYj4tTD.s:28482  .debug_str:0000000000020c6a .LASF2207
C:\Users\CYMR90~1\AppData\Local\Temp\ccYj4tTD.s:24383  .debug_str:00000000000103ed .LASF2208
C:\Users\CYMR90~1\AppData\Local\Temp\ccYj4tTD.s:26526  .debug_str:0000000000018ede .LASF2209
C:\Users\CYMR90~1\AppData\Local\Temp\ccYj4tTD.s:28332  .debug_str:000000000002028c .LASF2210
C:\Users\CYMR90~1\AppData\Local\Temp\ccYj4tTD.s:23261  .debug_str:000000000000bd8e .LASF2211
C:\Users\CYMR90~1\AppData\Local\Temp\ccYj4tTD.s:21979  .debug_str:00000000000068ea .LASF2212
C:\Users\CYMR90~1\AppData\Local\Temp\ccYj4tTD.s:24559  .debug_str:0000000000010eb3 .LASF2213
C:\Users\CYMR90~1\AppData\Local\Temp\ccYj4tTD.s:31340  .debug_str:000000000002c12d .LASF2214
C:\Users\CYMR90~1\AppData\Local\Temp\ccYj4tTD.s:25271  .debug_str:0000000000013d85 .LASF2215
C:\Users\CYMR90~1\AppData\Local\Temp\ccYj4tTD.s:22953  .debug_str:000000000000a7f0 .LASF2216
C:\Users\CYMR90~1\AppData\Local\Temp\ccYj4tTD.s:27138  .debug_str:000000000001b7b2 .LASF2217
C:\Users\CYMR90~1\AppData\Local\Temp\ccYj4tTD.s:29988  .debug_str:0000000000026b2d .LASF2218
C:\Users\CYMR90~1\AppData\Local\Temp\ccYj4tTD.s:31106  .debug_str:000000000002b197 .LASF2219
C:\Users\CYMR90~1\AppData\Local\Temp\ccYj4tTD.s:27686  .debug_str:000000000001db47 .LASF2220
C:\Users\CYMR90~1\AppData\Local\Temp\ccYj4tTD.s:26540  .debug_str:0000000000018fa3 .LASF2221
C:\Users\CYMR90~1\AppData\Local\Temp\ccYj4tTD.s:24951  .debug_str:00000000000128a9 .LASF2222
C:\Users\CYMR90~1\AppData\Local\Temp\ccYj4tTD.s:27180  .debug_str:000000000001b9ce .LASF2223
C:\Users\CYMR90~1\AppData\Local\Temp\ccYj4tTD.s:29780  .debug_str:0000000000025e4d .LASF2224
C:\Users\CYMR90~1\AppData\Local\Temp\ccYj4tTD.s:20335  .debug_str:00000000000002a5 .LASF2225
C:\Users\CYMR90~1\AppData\Local\Temp\ccYj4tTD.s:21443  .debug_str:0000000000004865 .LASF2226
C:\Users\CYMR90~1\AppData\Local\Temp\ccYj4tTD.s:26726  .debug_str:0000000000019c9e .LASF2227
C:\Users\CYMR90~1\AppData\Local\Temp\ccYj4tTD.s:26008  .debug_str:0000000000016e7a .LASF2228
C:\Users\CYMR90~1\AppData\Local\Temp\ccYj4tTD.s:27738  .debug_str:000000000001defa .LASF2229
C:\Users\CYMR90~1\AppData\Local\Temp\ccYj4tTD.s:21411  .debug_str:0000000000004635 .LASF2230
C:\Users\CYMR90~1\AppData\Local\Temp\ccYj4tTD.s:27960  .debug_str:000000000001ec15 .LASF2231
C:\Users\CYMR90~1\AppData\Local\Temp\ccYj4tTD.s:20711  .debug_str:0000000000001a0e .LASF2232
C:\Users\CYMR90~1\AppData\Local\Temp\ccYj4tTD.s:26714  .debug_str:0000000000019bda .LASF2233
C:\Users\CYMR90~1\AppData\Local\Temp\ccYj4tTD.s:23429  .debug_str:000000000000c8c3 .LASF2234
C:\Users\CYMR90~1\AppData\Local\Temp\ccYj4tTD.s:21647  .debug_str:000000000000555e .LASF2235
C:\Users\CYMR90~1\AppData\Local\Temp\ccYj4tTD.s:31292  .debug_str:000000000002bdef .LASF2236
C:\Users\CYMR90~1\AppData\Local\Temp\ccYj4tTD.s:23893  .debug_str:000000000000e5bd .LASF2237
C:\Users\CYMR90~1\AppData\Local\Temp\ccYj4tTD.s:28600  .debug_str:00000000000213ab .LASF2238
C:\Users\CYMR90~1\AppData\Local\Temp\ccYj4tTD.s:27638  .debug_str:000000000001d825 .LASF2239
C:\Users\CYMR90~1\AppData\Local\Temp\ccYj4tTD.s:27568  .debug_str:000000000001d393 .LASF2240
C:\Users\CYMR90~1\AppData\Local\Temp\ccYj4tTD.s:20771  .debug_str:0000000000001db9 .LASF2241
C:\Users\CYMR90~1\AppData\Local\Temp\ccYj4tTD.s:28618  .debug_str:00000000000214c9 .LASF2242
C:\Users\CYMR90~1\AppData\Local\Temp\ccYj4tTD.s:30168  .debug_str:00000000000276a5 .LASF2243
C:\Users\CYMR90~1\AppData\Local\Temp\ccYj4tTD.s:24799  .debug_str:0000000000011e8f .LASF2244
C:\Users\CYMR90~1\AppData\Local\Temp\ccYj4tTD.s:26018  .debug_str:0000000000016f11 .LASF2245
C:\Users\CYMR90~1\AppData\Local\Temp\ccYj4tTD.s:22943  .debug_str:000000000000a70d .LASF2246
C:\Users\CYMR90~1\AppData\Local\Temp\ccYj4tTD.s:25595  .debug_str:000000000001520c .LASF2247
C:\Users\CYMR90~1\AppData\Local\Temp\ccYj4tTD.s:21137  .debug_str:0000000000003440 .LASF2248
C:\Users\CYMR90~1\AppData\Local\Temp\ccYj4tTD.s:27982  .debug_str:000000000001ed5a .LASF2249
C:\Users\CYMR90~1\AppData\Local\Temp\ccYj4tTD.s:27116  .debug_str:000000000001b63d .LASF2250
C:\Users\CYMR90~1\AppData\Local\Temp\ccYj4tTD.s:26170  .debug_str:0000000000017833 .LASF2251
C:\Users\CYMR90~1\AppData\Local\Temp\ccYj4tTD.s:29382  .debug_str:00000000000242e7 .LASF2252
C:\Users\CYMR90~1\AppData\Local\Temp\ccYj4tTD.s:24957  .debug_str:0000000000012906 .LASF2253
C:\Users\CYMR90~1\AppData\Local\Temp\ccYj4tTD.s:23701  .debug_str:000000000000da42 .LASF2254
C:\Users\CYMR90~1\AppData\Local\Temp\ccYj4tTD.s:22467  .debug_str:00000000000089e3 .LASF2255
C:\Users\CYMR90~1\AppData\Local\Temp\ccYj4tTD.s:24361  .debug_str:00000000000102c8 .LASF2256
C:\Users\CYMR90~1\AppData\Local\Temp\ccYj4tTD.s:27384  .debug_str:000000000001c68a .LASF2257
C:\Users\CYMR90~1\AppData\Local\Temp\ccYj4tTD.s:24649  .debug_str:0000000000011449 .LASF2258
C:\Users\CYMR90~1\AppData\Local\Temp\ccYj4tTD.s:24877  .debug_str:00000000000123bf .LASF2259
C:\Users\CYMR90~1\AppData\Local\Temp\ccYj4tTD.s:24555  .debug_str:0000000000010e71 .LASF2260
C:\Users\CYMR90~1\AppData\Local\Temp\ccYj4tTD.s:25643  .debug_str:00000000000154ed .LASF2261
C:\Users\CYMR90~1\AppData\Local\Temp\ccYj4tTD.s:20831  .debug_str:00000000000020ff .LASF2262
C:\Users\CYMR90~1\AppData\Local\Temp\ccYj4tTD.s:23941  .debug_str:000000000000e8e6 .LASF2263
C:\Users\CYMR90~1\AppData\Local\Temp\ccYj4tTD.s:27760  .debug_str:000000000001e05a .LASF2264
C:\Users\CYMR90~1\AppData\Local\Temp\ccYj4tTD.s:26816  .debug_str:000000000001a1c5 .LASF2265
C:\Users\CYMR90~1\AppData\Local\Temp\ccYj4tTD.s:23787  .debug_str:000000000000df92 .LASF2266
C:\Users\CYMR90~1\AppData\Local\Temp\ccYj4tTD.s:23141  .debug_str:000000000000b56b .LASF2267
C:\Users\CYMR90~1\AppData\Local\Temp\ccYj4tTD.s:26178  .debug_str:00000000000178ed .LASF2268
C:\Users\CYMR90~1\AppData\Local\Temp\ccYj4tTD.s:31026  .debug_str:000000000002acd3 .LASF2269
C:\Users\CYMR90~1\AppData\Local\Temp\ccYj4tTD.s:21465  .debug_str:0000000000004a49 .LASF2270
C:\Users\CYMR90~1\AppData\Local\Temp\ccYj4tTD.s:27262  .debug_str:000000000001bf2a .LASF2271
C:\Users\CYMR90~1\AppData\Local\Temp\ccYj4tTD.s:27660  .debug_str:000000000001d9af .LASF2272
C:\Users\CYMR90~1\AppData\Local\Temp\ccYj4tTD.s:25485  .debug_str:0000000000014ad8 .LASF2273
C:\Users\CYMR90~1\AppData\Local\Temp\ccYj4tTD.s:30370  .debug_str:00000000000284cc .LASF2274
C:\Users\CYMR90~1\AppData\Local\Temp\ccYj4tTD.s:27024  .debug_str:000000000001b0b2 .LASF2275
C:\Users\CYMR90~1\AppData\Local\Temp\ccYj4tTD.s:23707  .debug_str:000000000000daad .LASF2276
C:\Users\CYMR90~1\AppData\Local\Temp\ccYj4tTD.s:21241  .debug_str:0000000000003ae3 .LASF2277
C:\Users\CYMR90~1\AppData\Local\Temp\ccYj4tTD.s:20507  .debug_str:0000000000000d6a .LASF2278
C:\Users\CYMR90~1\AppData\Local\Temp\ccYj4tTD.s:30228  .debug_str:0000000000027a3a .LASF2279
C:\Users\CYMR90~1\AppData\Local\Temp\ccYj4tTD.s:28604  .debug_str:00000000000213e9 .LASF2280
C:\Users\CYMR90~1\AppData\Local\Temp\ccYj4tTD.s:21651  .debug_str:0000000000005592 .LASF2281
C:\Users\CYMR90~1\AppData\Local\Temp\ccYj4tTD.s:26748  .debug_str:0000000000019e0e .LASF2282
C:\Users\CYMR90~1\AppData\Local\Temp\ccYj4tTD.s:26068  .debug_str:0000000000017204 .LASF2283
C:\Users\CYMR90~1\AppData\Local\Temp\ccYj4tTD.s:27440  .debug_str:000000000001ca9e .LASF2284
C:\Users\CYMR90~1\AppData\Local\Temp\ccYj4tTD.s:26980  .debug_str:000000000001ad8a .LASF2285
C:\Users\CYMR90~1\AppData\Local\Temp\ccYj4tTD.s:30150  .debug_str:00000000000275b1 .LASF2286
C:\Users\CYMR90~1\AppData\Local\Temp\ccYj4tTD.s:24561  .debug_str:0000000000010edb .LASF2287
C:\Users\CYMR90~1\AppData\Local\Temp\ccYj4tTD.s:28756  .debug_str:0000000000021d4b .LASF2288
C:\Users\CYMR90~1\AppData\Local\Temp\ccYj4tTD.s:24641  .debug_str:00000000000113d4 .LASF2289
C:\Users\CYMR90~1\AppData\Local\Temp\ccYj4tTD.s:24769  .debug_str:0000000000011cba .LASF2290
C:\Users\CYMR90~1\AppData\Local\Temp\ccYj4tTD.s:31158  .debug_str:000000000002b548 .LASF2291
C:\Users\CYMR90~1\AppData\Local\Temp\ccYj4tTD.s:27852  .debug_str:000000000001e5c8 .LASF2292
C:\Users\CYMR90~1\AppData\Local\Temp\ccYj4tTD.s:21545  .debug_str:0000000000004f18 .LASF2293
C:\Users\CYMR90~1\AppData\Local\Temp\ccYj4tTD.s:30548  .debug_str:0000000000029006 .LASF2294
C:\Users\CYMR90~1\AppData\Local\Temp\ccYj4tTD.s:31122  .debug_str:000000000002b2c0 .LASF2295
C:\Users\CYMR90~1\AppData\Local\Temp\ccYj4tTD.s:23769  .debug_str:000000000000de81 .LASF2296
C:\Users\CYMR90~1\AppData\Local\Temp\ccYj4tTD.s:23743  .debug_str:000000000000dc8c .LASF2297
C:\Users\CYMR90~1\AppData\Local\Temp\ccYj4tTD.s:23121  .debug_str:000000000000b3b2 .LASF2298
C:\Users\CYMR90~1\AppData\Local\Temp\ccYj4tTD.s:25283  .debug_str:0000000000013e45 .LASF2299
C:\Users\CYMR90~1\AppData\Local\Temp\ccYj4tTD.s:30384  .debug_str:00000000000285c1 .LASF2300
C:\Users\CYMR90~1\AppData\Local\Temp\ccYj4tTD.s:24093  .debug_str:000000000000f1d6 .LASF2301
C:\Users\CYMR90~1\AppData\Local\Temp\ccYj4tTD.s:27212  .debug_str:000000000001bbea .LASF2302
C:\Users\CYMR90~1\AppData\Local\Temp\ccYj4tTD.s:29514  .debug_str:0000000000024bab .LASF2303
C:\Users\CYMR90~1\AppData\Local\Temp\ccYj4tTD.s:23699  .debug_str:000000000000da1b .LASF2304
C:\Users\CYMR90~1\AppData\Local\Temp\ccYj4tTD.s:28650  .debug_str:000000000002169a .LASF2305
C:\Users\CYMR90~1\AppData\Local\Temp\ccYj4tTD.s:20585  .debug_str:0000000000001235 .LASF2306
C:\Users\CYMR90~1\AppData\Local\Temp\ccYj4tTD.s:26924  .debug_str:000000000001aa20 .LASF2307
C:\Users\CYMR90~1\AppData\Local\Temp\ccYj4tTD.s:27404  .debug_str:000000000001c867 .LASF2308
C:\Users\CYMR90~1\AppData\Local\Temp\ccYj4tTD.s:21085  .debug_str:00000000000030e9 .LASF2309
C:\Users\CYMR90~1\AppData\Local\Temp\ccYj4tTD.s:29802  .debug_str:0000000000025fcf .LASF2310
C:\Users\CYMR90~1\AppData\Local\Temp\ccYj4tTD.s:30630  .debug_str:0000000000029556 .LASF2311
C:\Users\CYMR90~1\AppData\Local\Temp\ccYj4tTD.s:25321  .debug_str:00000000000140c5 .LASF2312
C:\Users\CYMR90~1\AppData\Local\Temp\ccYj4tTD.s:30336  .debug_str:0000000000028209 .LASF2313
C:\Users\CYMR90~1\AppData\Local\Temp\ccYj4tTD.s:22165  .debug_str:000000000000759a .LASF2314
C:\Users\CYMR90~1\AppData\Local\Temp\ccYj4tTD.s:28434  .debug_str:000000000002096c .LASF2315
C:\Users\CYMR90~1\AppData\Local\Temp\ccYj4tTD.s:22223  .debug_str:0000000000007911 .LASF2316
C:\Users\CYMR90~1\AppData\Local\Temp\ccYj4tTD.s:27228  .debug_str:000000000001bce6 .LASF2317
C:\Users\CYMR90~1\AppData\Local\Temp\ccYj4tTD.s:30380  .debug_str:0000000000028580 .LASF2318
C:\Users\CYMR90~1\AppData\Local\Temp\ccYj4tTD.s:23979  .debug_str:000000000000eb4e .LASF2319
C:\Users\CYMR90~1\AppData\Local\Temp\ccYj4tTD.s:21477  .debug_str:0000000000004b05 .LASF2320
C:\Users\CYMR90~1\AppData\Local\Temp\ccYj4tTD.s:21007  .debug_str:0000000000002c08 .LASF2321
C:\Users\CYMR90~1\AppData\Local\Temp\ccYj4tTD.s:31606  .debug_str:000000000002d24b .LASF2322
C:\Users\CYMR90~1\AppData\Local\Temp\ccYj4tTD.s:21837  .debug_str:0000000000006099 .LASF2323
C:\Users\CYMR90~1\AppData\Local\Temp\ccYj4tTD.s:25447  .debug_str:0000000000014897 .LASF2324
C:\Users\CYMR90~1\AppData\Local\Temp\ccYj4tTD.s:31184  .debug_str:000000000002b6e2 .LASF2325
C:\Users\CYMR90~1\AppData\Local\Temp\ccYj4tTD.s:22921  .debug_str:000000000000a5f1 .LASF2326
C:\Users\CYMR90~1\AppData\Local\Temp\ccYj4tTD.s:26412  .debug_str:000000000001871e .LASF2327
C:\Users\CYMR90~1\AppData\Local\Temp\ccYj4tTD.s:20867  .debug_str:00000000000022e0 .LASF2328
C:\Users\CYMR90~1\AppData\Local\Temp\ccYj4tTD.s:25355  .debug_str:00000000000142d8 .LASF2329
C:\Users\CYMR90~1\AppData\Local\Temp\ccYj4tTD.s:24455  .debug_str:0000000000010838 .LASF2330
C:\Users\CYMR90~1\AppData\Local\Temp\ccYj4tTD.s:23361  .debug_str:000000000000c41c .LASF2331
C:\Users\CYMR90~1\AppData\Local\Temp\ccYj4tTD.s:24403  .debug_str:0000000000010517 .LASF2332
C:\Users\CYMR90~1\AppData\Local\Temp\ccYj4tTD.s:28560  .debug_str:00000000000210b4 .LASF2333
C:\Users\CYMR90~1\AppData\Local\Temp\ccYj4tTD.s:29980  .debug_str:0000000000026ab0 .LASF2334
C:\Users\CYMR90~1\AppData\Local\Temp\ccYj4tTD.s:24415  .debug_str:00000000000105d1 .LASF2335
C:\Users\CYMR90~1\AppData\Local\Temp\ccYj4tTD.s:24809  .debug_str:0000000000011f69 .LASF2336
C:\Users\CYMR90~1\AppData\Local\Temp\ccYj4tTD.s:23869  .debug_str:000000000000e44f .LASF2337
C:\Users\CYMR90~1\AppData\Local\Temp\ccYj4tTD.s:21851  .debug_str:0000000000006194 .LASF2338
C:\Users\CYMR90~1\AppData\Local\Temp\ccYj4tTD.s:20913  .debug_str:000000000000257c .LASF2339
C:\Users\CYMR90~1\AppData\Local\Temp\ccYj4tTD.s:27624  .debug_str:000000000001d746 .LASF2340
C:\Users\CYMR90~1\AppData\Local\Temp\ccYj4tTD.s:29862  .debug_str:0000000000026371 .LASF2341
C:\Users\CYMR90~1\AppData\Local\Temp\ccYj4tTD.s:28218  .debug_str:000000000001fbe7 .LASF2342
C:\Users\CYMR90~1\AppData\Local\Temp\ccYj4tTD.s:28234  .debug_str:000000000001fcbf .LASF2343
C:\Users\CYMR90~1\AppData\Local\Temp\ccYj4tTD.s:29280  .debug_str:0000000000023c49 .LASF2344
C:\Users\CYMR90~1\AppData\Local\Temp\ccYj4tTD.s:30090  .debug_str:000000000002711f .LASF2345
C:\Users\CYMR90~1\AppData\Local\Temp\ccYj4tTD.s:27328  .debug_str:000000000001c34f .LASF2346
C:\Users\CYMR90~1\AppData\Local\Temp\ccYj4tTD.s:27496  .debug_str:000000000001cec9 .LASF2347
C:\Users\CYMR90~1\AppData\Local\Temp\ccYj4tTD.s:22437  .debug_str:00000000000087e1 .LASF2348
C:\Users\CYMR90~1\AppData\Local\Temp\ccYj4tTD.s:25163  .debug_str:000000000001372e .LASF2349
C:\Users\CYMR90~1\AppData\Local\Temp\ccYj4tTD.s:28700  .debug_str:000000000002199c .LASF2350
C:\Users\CYMR90~1\AppData\Local\Temp\ccYj4tTD.s:30990  .debug_str:000000000002aacf .LASF2351
C:\Users\CYMR90~1\AppData\Local\Temp\ccYj4tTD.s:29500  .debug_str:0000000000024abc .LASF2352
C:\Users\CYMR90~1\AppData\Local\Temp\ccYj4tTD.s:22005  .debug_str:0000000000006a74 .LASF2353
C:\Users\CYMR90~1\AppData\Local\Temp\ccYj4tTD.s:24315  .debug_str:000000000000ffd7 .LASF2354
C:\Users\CYMR90~1\AppData\Local\Temp\ccYj4tTD.s:21951  .debug_str:000000000000675b .LASF2355
C:\Users\CYMR90~1\AppData\Local\Temp\ccYj4tTD.s:31398  .debug_str:000000000002c51c .LASF2356
C:\Users\CYMR90~1\AppData\Local\Temp\ccYj4tTD.s:30814  .debug_str:000000000002a043 .LASF2357
C:\Users\CYMR90~1\AppData\Local\Temp\ccYj4tTD.s:23617  .debug_str:000000000000d555 .LASF2358
C:\Users\CYMR90~1\AppData\Local\Temp\ccYj4tTD.s:22667  .debug_str:0000000000009652 .LASF2359
C:\Users\CYMR90~1\AppData\Local\Temp\ccYj4tTD.s:21231  .debug_str:0000000000003a52 .LASF2360
C:\Users\CYMR90~1\AppData\Local\Temp\ccYj4tTD.s:24327  .debug_str:00000000000100b0 .LASF2361
C:\Users\CYMR90~1\AppData\Local\Temp\ccYj4tTD.s:23101  .debug_str:000000000000b2bd .LASF2362
C:\Users\CYMR90~1\AppData\Local\Temp\ccYj4tTD.s:21881  .debug_str:0000000000006336 .LASF2363
C:\Users\CYMR90~1\AppData\Local\Temp\ccYj4tTD.s:29286  .debug_str:0000000000023c99 .LASF2364
C:\Users\CYMR90~1\AppData\Local\Temp\ccYj4tTD.s:28442  .debug_str:00000000000209e7 .LASF2365
C:\Users\CYMR90~1\AppData\Local\Temp\ccYj4tTD.s:24871  .debug_str:000000000001235e .LASF2366
C:\Users\CYMR90~1\AppData\Local\Temp\ccYj4tTD.s:29534  .debug_str:0000000000024d34 .LASF2367
C:\Users\CYMR90~1\AppData\Local\Temp\ccYj4tTD.s:30164  .debug_str:0000000000027678 .LASF2368
C:\Users\CYMR90~1\AppData\Local\Temp\ccYj4tTD.s:22653  .debug_str:000000000000952f .LASF2369
C:\Users\CYMR90~1\AppData\Local\Temp\ccYj4tTD.s:23973  .debug_str:000000000000eaeb .LASF2370
C:\Users\CYMR90~1\AppData\Local\Temp\ccYj4tTD.s:22019  .debug_str:0000000000006b7c .LASF2371
C:\Users\CYMR90~1\AppData\Local\Temp\ccYj4tTD.s:24379  .debug_str:00000000000103b4 .LASF2372
C:\Users\CYMR90~1\AppData\Local\Temp\ccYj4tTD.s:31270  .debug_str:000000000002bc8c .LASF2373
C:\Users\CYMR90~1\AppData\Local\Temp\ccYj4tTD.s:29930  .debug_str:00000000000267b2 .LASF2374
C:\Users\CYMR90~1\AppData\Local\Temp\ccYj4tTD.s:20445  .debug_str:000000000000096b .LASF2375
C:\Users\CYMR90~1\AppData\Local\Temp\ccYj4tTD.s:24773  .debug_str:0000000000011d0f .LASF2376
C:\Users\CYMR90~1\AppData\Local\Temp\ccYj4tTD.s:27930  .debug_str:000000000001ea88 .LASF2377
C:\Users\CYMR90~1\AppData\Local\Temp\ccYj4tTD.s:31216  .debug_str:000000000002b942 .LASF2378
C:\Users\CYMR90~1\AppData\Local\Temp\ccYj4tTD.s:23103  .debug_str:000000000000b2e2 .LASF2379
C:\Users\CYMR90~1\AppData\Local\Temp\ccYj4tTD.s:22061  .debug_str:0000000000006e5c .LASF2380
C:\Users\CYMR90~1\AppData\Local\Temp\ccYj4tTD.s:29492  .debug_str:0000000000024a39 .LASF2381
C:\Users\CYMR90~1\AppData\Local\Temp\ccYj4tTD.s:29242  .debug_str:0000000000023a21 .LASF2382
C:\Users\CYMR90~1\AppData\Local\Temp\ccYj4tTD.s:24545  .debug_str:0000000000010e12 .LASF2383
C:\Users\CYMR90~1\AppData\Local\Temp\ccYj4tTD.s:27706  .debug_str:000000000001dc86 .LASF2384
C:\Users\CYMR90~1\AppData\Local\Temp\ccYj4tTD.s:30958  .debug_str:000000000002a8fd .LASF2385
C:\Users\CYMR90~1\AppData\Local\Temp\ccYj4tTD.s:20745  .debug_str:0000000000001c34 .LASF2386
C:\Users\CYMR90~1\AppData\Local\Temp\ccYj4tTD.s:25455  .debug_str:00000000000148ff .LASF2387
C:\Users\CYMR90~1\AppData\Local\Temp\ccYj4tTD.s:30166  .debug_str:000000000002768a .LASF2388
C:\Users\CYMR90~1\AppData\Local\Temp\ccYj4tTD.s:27078  .debug_str:000000000001b42d .LASF2389
C:\Users\CYMR90~1\AppData\Local\Temp\ccYj4tTD.s:28226  .debug_str:000000000001fc5f .LASF2390
C:\Users\CYMR90~1\AppData\Local\Temp\ccYj4tTD.s:21623  .debug_str:00000000000053d6 .LASF2391
C:\Users\CYMR90~1\AppData\Local\Temp\ccYj4tTD.s:26336  .debug_str:0000000000018270 .LASF2392
C:\Users\CYMR90~1\AppData\Local\Temp\ccYj4tTD.s:31060  .debug_str:000000000002aefb .LASF2393
C:\Users\CYMR90~1\AppData\Local\Temp\ccYj4tTD.s:27188  .debug_str:000000000001ba56 .LASF2394
C:\Users\CYMR90~1\AppData\Local\Temp\ccYj4tTD.s:30222  .debug_str:00000000000279d5 .LASF2395
C:\Users\CYMR90~1\AppData\Local\Temp\ccYj4tTD.s:23631  .debug_str:000000000000d638 .LASF2396
C:\Users\CYMR90~1\AppData\Local\Temp\ccYj4tTD.s:28282  .debug_str:000000000001ffda .LASF2397
C:\Users\CYMR90~1\AppData\Local\Temp\ccYj4tTD.s:21671  .debug_str:000000000000568c .LASF2398
C:\Users\CYMR90~1\AppData\Local\Temp\ccYj4tTD.s:26390  .debug_str:00000000000185cf .LASF2399
C:\Users\CYMR90~1\AppData\Local\Temp\ccYj4tTD.s:31118  .debug_str:000000000002b28f .LASF2400
C:\Users\CYMR90~1\AppData\Local\Temp\ccYj4tTD.s:30994  .debug_str:000000000002ab07 .LASF2401
C:\Users\CYMR90~1\AppData\Local\Temp\ccYj4tTD.s:22895  .debug_str:000000000000a47f .LASF2402
C:\Users\CYMR90~1\AppData\Local\Temp\ccYj4tTD.s:26084  .debug_str:0000000000017300 .LASF2403
C:\Users\CYMR90~1\AppData\Local\Temp\ccYj4tTD.s:29290  .debug_str:0000000000023cca .LASF2404
C:\Users\CYMR90~1\AppData\Local\Temp\ccYj4tTD.s:21263  .debug_str:0000000000003c23 .LASF2405
C:\Users\CYMR90~1\AppData\Local\Temp\ccYj4tTD.s:24423  .debug_str:0000000000010675 .LASF2406
C:\Users\CYMR90~1\AppData\Local\Temp\ccYj4tTD.s:27596  .debug_str:000000000001d569 .LASF2407
C:\Users\CYMR90~1\AppData\Local\Temp\ccYj4tTD.s:30838  .debug_str:000000000002a1d9 .LASF2408
C:\Users\CYMR90~1\AppData\Local\Temp\ccYj4tTD.s:25211  .debug_str:00000000000139eb .LASF2409
C:\Users\CYMR90~1\AppData\Local\Temp\ccYj4tTD.s:23607  .debug_str:000000000000d4ae .LASF2410
C:\Users\CYMR90~1\AppData\Local\Temp\ccYj4tTD.s:26970  .debug_str:000000000001ace7 .LASF2411
C:\Users\CYMR90~1\AppData\Local\Temp\ccYj4tTD.s:20329  .debug_str:0000000000000249 .LASF2412
C:\Users\CYMR90~1\AppData\Local\Temp\ccYj4tTD.s:26998  .debug_str:000000000001ae9f .LASF2413
C:\Users\CYMR90~1\AppData\Local\Temp\ccYj4tTD.s:29704  .debug_str:00000000000259ba .LASF2414
C:\Users\CYMR90~1\AppData\Local\Temp\ccYj4tTD.s:23137  .debug_str:000000000000b4b5 .LASF2415
C:\Users\CYMR90~1\AppData\Local\Temp\ccYj4tTD.s:27776  .debug_str:000000000001e14b .LASF2416
C:\Users\CYMR90~1\AppData\Local\Temp\ccYj4tTD.s:23459  .debug_str:000000000000caeb .LASF2417
C:\Users\CYMR90~1\AppData\Local\Temp\ccYj4tTD.s:25881  .debug_str:00000000000163c0 .LASF2418
C:\Users\CYMR90~1\AppData\Local\Temp\ccYj4tTD.s:27984  .debug_str:000000000001ed89 .LASF2419
C:\Users\CYMR90~1\AppData\Local\Temp\ccYj4tTD.s:25083  .debug_str:000000000001316b .LASF2420
C:\Users\CYMR90~1\AppData\Local\Temp\ccYj4tTD.s:29756  .debug_str:0000000000025cdd .LASF2421
C:\Users\CYMR90~1\AppData\Local\Temp\ccYj4tTD.s:23179  .debug_str:000000000000b810 .LASF2422
C:\Users\CYMR90~1\AppData\Local\Temp\ccYj4tTD.s:27824  .debug_str:000000000001e415 .LASF2423
C:\Users\CYMR90~1\AppData\Local\Temp\ccYj4tTD.s:21227  .debug_str:0000000000003a07 .LASF2424
C:\Users\CYMR90~1\AppData\Local\Temp\ccYj4tTD.s:25941  .debug_str:00000000000167bb .LASF2425
C:\Users\CYMR90~1\AppData\Local\Temp\ccYj4tTD.s:23019  .debug_str:000000000000acef .LASF2426
C:\Users\CYMR90~1\AppData\Local\Temp\ccYj4tTD.s:26110  .debug_str:0000000000017468 .LASF2427
C:\Users\CYMR90~1\AppData\Local\Temp\ccYj4tTD.s:29326  .debug_str:0000000000023ec3 .LASF2428
C:\Users\CYMR90~1\AppData\Local\Temp\ccYj4tTD.s:21211  .debug_str:00000000000038e4 .LASF2429
C:\Users\CYMR90~1\AppData\Local\Temp\ccYj4tTD.s:24457  .debug_str:000000000001084e .LASF2430
C:\Users\CYMR90~1\AppData\Local\Temp\ccYj4tTD.s:24703  .debug_str:0000000000011871 .LASF2431
C:\Users\CYMR90~1\AppData\Local\Temp\ccYj4tTD.s:30880  .debug_str:000000000002a40a .LASF2432
C:\Users\CYMR90~1\AppData\Local\Temp\ccYj4tTD.s:21419  .debug_str:00000000000046be .LASF2433
C:\Users\CYMR90~1\AppData\Local\Temp\ccYj4tTD.s:30134  .debug_str:00000000000274cf .LASF2434
C:\Users\CYMR90~1\AppData\Local\Temp\ccYj4tTD.s:29084  .debug_str:000000000002307f .LASF2435
C:\Users\CYMR90~1\AppData\Local\Temp\ccYj4tTD.s:30440  .debug_str:0000000000028986 .LASF2436
C:\Users\CYMR90~1\AppData\Local\Temp\ccYj4tTD.s:23843  .debug_str:000000000000e2d7 .LASF2437
C:\Users\CYMR90~1\AppData\Local\Temp\ccYj4tTD.s:28502  .debug_str:0000000000020d8e .LASF2438
C:\Users\CYMR90~1\AppData\Local\Temp\ccYj4tTD.s:21901  .debug_str:000000000000647e .LASF2439
C:\Users\CYMR90~1\AppData\Local\Temp\ccYj4tTD.s:26630  .debug_str:00000000000195e6 .LASF2440
C:\Users\CYMR90~1\AppData\Local\Temp\ccYj4tTD.s:31342  .debug_str:000000000002c155 .LASF2441
C:\Users\CYMR90~1\AppData\Local\Temp\ccYj4tTD.s:24711  .debug_str:00000000000118de .LASF2442
C:\Users\CYMR90~1\AppData\Local\Temp\ccYj4tTD.s:29392  .debug_str:00000000000243ca .LASF2443
C:\Users\CYMR90~1\AppData\Local\Temp\ccYj4tTD.s:27472  .debug_str:000000000001ccb5 .LASF2444
C:\Users\CYMR90~1\AppData\Local\Temp\ccYj4tTD.s:28554  .debug_str:0000000000021049 .LASF2445
C:\Users\CYMR90~1\AppData\Local\Temp\ccYj4tTD.s:21955  .debug_str:0000000000006794 .LASF2446
C:\Users\CYMR90~1\AppData\Local\Temp\ccYj4tTD.s:26678  .debug_str:000000000001998b .LASF2447
C:\Users\CYMR90~1\AppData\Local\Temp\ccYj4tTD.s:31394  .debug_str:000000000002c4dd .LASF2448
C:\Users\CYMR90~1\AppData\Local\Temp\ccYj4tTD.s:24765  .debug_str:0000000000011c6c .LASF2449
C:\Users\CYMR90~1\AppData\Local\Temp\ccYj4tTD.s:24685  .debug_str:00000000000116c1 .LASF2450
C:\Users\CYMR90~1\AppData\Local\Temp\ccYj4tTD.s:28248  .debug_str:000000000001fdc0 .LASF2451
C:\Users\CYMR90~1\AppData\Local\Temp\ccYj4tTD.s:29552  .debug_str:0000000000024e46 .LASF2452
C:\Users\CYMR90~1\AppData\Local\Temp\ccYj4tTD.s:27896  .debug_str:000000000001e88d .LASF2453
C:\Users\CYMR90~1\AppData\Local\Temp\ccYj4tTD.s:26522  .debug_str:0000000000018eb3 .LASF2454
C:\Users\CYMR90~1\AppData\Local\Temp\ccYj4tTD.s:29706  .debug_str:00000000000259d3 .LASF2455
C:\Users\CYMR90~1\AppData\Local\Temp\ccYj4tTD.s:23081  .debug_str:000000000000b1a5 .LASF2456
C:\Users\CYMR90~1\AppData\Local\Temp\ccYj4tTD.s:24843  .debug_str:00000000000121a6 .LASF2457
C:\Users\CYMR90~1\AppData\Local\Temp\ccYj4tTD.s:27992  .debug_str:000000000001ee05 .LASF2458
C:\Users\CYMR90~1\AppData\Local\Temp\ccYj4tTD.s:29482  .debug_str:00000000000249af .LASF2459
C:\Users\CYMR90~1\AppData\Local\Temp\ccYj4tTD.s:23085  .debug_str:000000000000b1e2 .LASF2460
C:\Users\CYMR90~1\AppData\Local\Temp\ccYj4tTD.s:29120  .debug_str:0000000000023256 .LASF2461
C:\Users\CYMR90~1\AppData\Local\Temp\ccYj4tTD.s:31212  .debug_str:000000000002b8b2 .LASF2462
C:\Users\CYMR90~1\AppData\Local\Temp\ccYj4tTD.s:27484  .debug_str:000000000001ce1f .LASF2463
C:\Users\CYMR90~1\AppData\Local\Temp\ccYj4tTD.s:20873  .debug_str:000000000000232c .LASF2464
C:\Users\CYMR90~1\AppData\Local\Temp\ccYj4tTD.s:25575  .debug_str:00000000000150cf .LASF2465
C:\Users\CYMR90~1\AppData\Local\Temp\ccYj4tTD.s:30286  .debug_str:0000000000027e52 .LASF2466
C:\Users\CYMR90~1\AppData\Local\Temp\ccYj4tTD.s:23691  .debug_str:000000000000d99b .LASF2467
C:\Users\CYMR90~1\AppData\Local\Temp\ccYj4tTD.s:28348  .debug_str:00000000000203bf .LASF2468
C:\Users\CYMR90~1\AppData\Local\Temp\ccYj4tTD.s:26464  .debug_str:0000000000018a71 .LASF2469
C:\Users\CYMR90~1\AppData\Local\Temp\ccYj4tTD.s:21291  .debug_str:0000000000003dfc .LASF2470
C:\Users\CYMR90~1\AppData\Local\Temp\ccYj4tTD.s:20929  .debug_str:00000000000026c0 .LASF2471
C:\Users\CYMR90~1\AppData\Local\Temp\ccYj4tTD.s:25133  .debug_str:0000000000013540 .LASF2472
C:\Users\CYMR90~1\AppData\Local\Temp\ccYj4tTD.s:30340  .debug_str:00000000000282ed .LASF2473
C:\Users\CYMR90~1\AppData\Local\Temp\ccYj4tTD.s:23747  .debug_str:000000000000dcdd .LASF2474
C:\Users\CYMR90~1\AppData\Local\Temp\ccYj4tTD.s:28404  .debug_str:0000000000020779 .LASF2475
C:\Users\CYMR90~1\AppData\Local\Temp\ccYj4tTD.s:30566  .debug_str:0000000000029128 .LASF2476
C:\Users\CYMR90~1\AppData\Local\Temp\ccYj4tTD.s:21069  .debug_str:0000000000002fd1 .LASF2477
C:\Users\CYMR90~1\AppData\Local\Temp\ccYj4tTD.s:25655  .debug_str:0000000000015578 .LASF2478
C:\Users\CYMR90~1\AppData\Local\Temp\ccYj4tTD.s:30326  .debug_str:0000000000028149 .LASF2479
C:\Users\CYMR90~1\AppData\Local\Temp\ccYj4tTD.s:28668  .debug_str:00000000000217da .LASF2480
C:\Users\CYMR90~1\AppData\Local\Temp\ccYj4tTD.s:27082  .debug_str:000000000001b451 .LASF2481
C:\Users\CYMR90~1\AppData\Local\Temp\ccYj4tTD.s:27194  .debug_str:000000000001baa1 .LASF2482
C:\Users\CYMR90~1\AppData\Local\Temp\ccYj4tTD.s:30414  .debug_str:000000000002880e .LASF2483
C:\Users\CYMR90~1\AppData\Local\Temp\ccYj4tTD.s:22311  .debug_str:0000000000007f67 .LASF2484
C:\Users\CYMR90~1\AppData\Local\Temp\ccYj4tTD.s:25427  .debug_str:000000000001475c .LASF2485
C:\Users\CYMR90~1\AppData\Local\Temp\ccYj4tTD.s:25137  .debug_str:000000000001356d .LASF2486
C:\Users\CYMR90~1\AppData\Local\Temp\ccYj4tTD.s:29816  .debug_str:00000000000260c4 .LASF2487
C:\Users\CYMR90~1\AppData\Local\Temp\ccYj4tTD.s:23229  .debug_str:000000000000bb20 .LASF2488
C:\Users\CYMR90~1\AppData\Local\Temp\ccYj4tTD.s:27876  .debug_str:000000000001e710 .LASF2489
C:\Users\CYMR90~1\AppData\Local\Temp\ccYj4tTD.s:21281  .debug_str:0000000000003d69 .LASF2490
C:\Users\CYMR90~1\AppData\Local\Temp\ccYj4tTD.s:26004  .debug_str:0000000000016e35 .LASF2491
C:\Users\CYMR90~1\AppData\Local\Temp\ccYj4tTD.s:30710  .debug_str:0000000000029a41 .LASF2492
C:\Users\CYMR90~1\AppData\Local\Temp\ccYj4tTD.s:24105  .debug_str:000000000000f28c .LASF2493
C:\Users\CYMR90~1\AppData\Local\Temp\ccYj4tTD.s:22171  .debug_str:00000000000075eb .LASF2494
C:\Users\CYMR90~1\AppData\Local\Temp\ccYj4tTD.s:23283  .debug_str:000000000000bf33 .LASF2495
C:\Users\CYMR90~1\AppData\Local\Temp\ccYj4tTD.s:27920  .debug_str:000000000001ea03 .LASF2496
C:\Users\CYMR90~1\AppData\Local\Temp\ccYj4tTD.s:21331  .debug_str:0000000000004077 .LASF2497
C:\Users\CYMR90~1\AppData\Local\Temp\ccYj4tTD.s:20713  .debug_str:0000000000001a2f .LASF2498
C:\Users\CYMR90~1\AppData\Local\Temp\ccYj4tTD.s:30762  .debug_str:0000000000029d5e .LASF2499
C:\Users\CYMR90~1\AppData\Local\Temp\ccYj4tTD.s:24167  .debug_str:000000000000f656 .LASF2500
C:\Users\CYMR90~1\AppData\Local\Temp\ccYj4tTD.s:23883  .debug_str:000000000000e520 .LASF2501
C:\Users\CYMR90~1\AppData\Local\Temp\ccYj4tTD.s:27092  .debug_str:000000000001b4ff .LASF2502
C:\Users\CYMR90~1\AppData\Local\Temp\ccYj4tTD.s:30296  .debug_str:0000000000027ef9 .LASF2503
C:\Users\CYMR90~1\AppData\Local\Temp\ccYj4tTD.s:22187  .debug_str:0000000000007706 .LASF2504
C:\Users\CYMR90~1\AppData\Local\Temp\ccYj4tTD.s:25307  .debug_str:0000000000013fba .LASF2505
C:\Users\CYMR90~1\AppData\Local\Temp\ccYj4tTD.s:28500  .debug_str:0000000000020d7b .LASF2506
C:\Users\CYMR90~1\AppData\Local\Temp\ccYj4tTD.s:30696  .debug_str:000000000002997e .LASF2507
C:\Users\CYMR90~1\AppData\Local\Temp\ccYj4tTD.s:23657  .debug_str:000000000000d7c2 .LASF2508
C:\Users\CYMR90~1\AppData\Local\Temp\ccYj4tTD.s:26876  .debug_str:000000000001a6af .LASF2509
C:\Users\CYMR90~1\AppData\Local\Temp\ccYj4tTD.s:30056  .debug_str:0000000000026f58 .LASF2510
C:\Users\CYMR90~1\AppData\Local\Temp\ccYj4tTD.s:30382  .debug_str:00000000000285ac .LASF2511
C:\Users\CYMR90~1\AppData\Local\Temp\ccYj4tTD.s:23789  .debug_str:000000000000dfb2 .LASF2512
C:\Users\CYMR90~1\AppData\Local\Temp\ccYj4tTD.s:28446  .debug_str:0000000000020a16 .LASF2513
C:\Users\CYMR90~1\AppData\Local\Temp\ccYj4tTD.s:21829  .debug_str:0000000000006002 .LASF2514
C:\Users\CYMR90~1\AppData\Local\Temp\ccYj4tTD.s:26568  .debug_str:000000000001925e .LASF2515
C:\Users\CYMR90~1\AppData\Local\Temp\ccYj4tTD.s:23465  .debug_str:000000000000cb51 .LASF2516
C:\Users\CYMR90~1\AppData\Local\Temp\ccYj4tTD.s:24647  .debug_str:0000000000011434 .LASF2517
C:\Users\CYMR90~1\AppData\Local\Temp\ccYj4tTD.s:29336  .debug_str:0000000000023f33 .LASF2518
C:\Users\CYMR90~1\AppData\Local\Temp\ccYj4tTD.s:27422  .debug_str:000000000001c9b4 .LASF2519
C:\Users\CYMR90~1\AppData\Local\Temp\ccYj4tTD.s:28588  .debug_str:0000000000021250 .LASF2520
C:\Users\CYMR90~1\AppData\Local\Temp\ccYj4tTD.s:21985  .debug_str:0000000000006949 .LASF2521
C:\Users\CYMR90~1\AppData\Local\Temp\ccYj4tTD.s:26704  .debug_str:0000000000019b42 .LASF2522
C:\Users\CYMR90~1\AppData\Local\Temp\ccYj4tTD.s:31424  .debug_str:000000000002c6ca .LASF2523
C:\Users\CYMR90~1\AppData\Local\Temp\ccYj4tTD.s:24791  .debug_str:0000000000011e14 .LASF2524
C:\Users\CYMR90~1\AppData\Local\Temp\ccYj4tTD.s:29464  .debug_str:0000000000024826 .LASF2525
C:\Users\CYMR90~1\AppData\Local\Temp\ccYj4tTD.s:24991  .debug_str:0000000000012b3f .LASF2526
C:\Users\CYMR90~1\AppData\Local\Temp\ccYj4tTD.s:21161  .debug_str:00000000000035d7 .LASF2527
C:\Users\CYMR90~1\AppData\Local\Temp\ccYj4tTD.s:26360  .debug_str:00000000000183f6 .LASF2528
C:\Users\CYMR90~1\AppData\Local\Temp\ccYj4tTD.s:22725  .debug_str:0000000000009a0f .LASF2529
C:\Users\CYMR90~1\AppData\Local\Temp\ccYj4tTD.s:21501  .debug_str:0000000000004c8c .LASF2530
C:\Users\CYMR90~1\AppData\Local\Temp\ccYj4tTD.s:29776  .debug_str:0000000000025e0a .LASF2531
C:\Users\CYMR90~1\AppData\Local\Temp\ccYj4tTD.s:25781  .debug_str:0000000000015d52 .LASF2532
C:\Users\CYMR90~1\AppData\Local\Temp\ccYj4tTD.s:25543  .debug_str:0000000000014ee0 .LASF2533
C:\Users\CYMR90~1\AppData\Local\Temp\ccYj4tTD.s:25925  .debug_str:00000000000166bf .LASF2534
C:\Users\CYMR90~1\AppData\Local\Temp\ccYj4tTD.s:22789  .debug_str:0000000000009dcc .LASF2535
C:\Users\CYMR90~1\AppData\Local\Temp\ccYj4tTD.s:29440  .debug_str:00000000000246ac .LASF2536
C:\Users\CYMR90~1\AppData\Local\Temp\ccYj4tTD.s:30516  .debug_str:0000000000028df3 .LASF2537
C:\Users\CYMR90~1\AppData\Local\Temp\ccYj4tTD.s:20411  .debug_str:0000000000000750 .LASF2538
C:\Users\CYMR90~1\AppData\Local\Temp\ccYj4tTD.s:22207  .debug_str:000000000000781f .LASF2539
C:\Users\CYMR90~1\AppData\Local\Temp\ccYj4tTD.s:21205  .debug_str:0000000000003891 .LASF2540
C:\Users\CYMR90~1\AppData\Local\Temp\ccYj4tTD.s:29670  .debug_str:0000000000025711 .LASF2541
C:\Users\CYMR90~1\AppData\Local\Temp\ccYj4tTD.s:24793  .debug_str:0000000000011e29 .LASF2542
C:\Users\CYMR90~1\AppData\Local\Temp\ccYj4tTD.s:23571  .debug_str:000000000000d1c5 .LASF2543
C:\Users\CYMR90~1\AppData\Local\Temp\ccYj4tTD.s:28180  .debug_str:000000000001f968 .LASF2544
C:\Users\CYMR90~1\AppData\Local\Temp\ccYj4tTD.s:27300  .debug_str:000000000001c1b9 .LASF2545
C:\Users\CYMR90~1\AppData\Local\Temp\ccYj4tTD.s:21255  .debug_str:0000000000003ba4 .LASF2546
C:\Users\CYMR90~1\AppData\Local\Temp\ccYj4tTD.s:29824  .debug_str:0000000000026154 .LASF2547
C:\Users\CYMR90~1\AppData\Local\Temp\ccYj4tTD.s:23545  .debug_str:000000000000d025 .LASF2548
C:\Users\CYMR90~1\AppData\Local\Temp\ccYj4tTD.s:22631  .debug_str:00000000000093e7 .LASF2549
C:\Users\CYMR90~1\AppData\Local\Temp\ccYj4tTD.s:21593  .debug_str:00000000000051eb .LASF2550
C:\Users\CYMR90~1\AppData\Local\Temp\ccYj4tTD.s:30174  .debug_str:000000000002770a .LASF2551
C:\Users\CYMR90~1\AppData\Local\Temp\ccYj4tTD.s:30466  .debug_str:0000000000028b3a .LASF2552
C:\Users\CYMR90~1\AppData\Local\Temp\ccYj4tTD.s:24645  .debug_str:0000000000011412 .LASF2553
C:\Users\CYMR90~1\AppData\Local\Temp\ccYj4tTD.s:28538  .debug_str:0000000000020f81 .LASF2554
C:\Users\CYMR90~1\AppData\Local\Temp\ccYj4tTD.s:25701  .debug_str:0000000000015817 .LASF2555
C:\Users\CYMR90~1\AppData\Local\Temp\ccYj4tTD.s:26264  .debug_str:0000000000017e17 .LASF2556
C:\Users\CYMR90~1\AppData\Local\Temp\ccYj4tTD.s:25115  .debug_str:0000000000013409 .LASF2557
C:\Users\CYMR90~1\AppData\Local\Temp\ccYj4tTD.s:25603  .debug_str:00000000000152ca .LASF2558
C:\Users\CYMR90~1\AppData\Local\Temp\ccYj4tTD.s:24319  .debug_str:0000000000010016 .LASF2559
C:\Users\CYMR90~1\AppData\Local\Temp\ccYj4tTD.s:24599  .debug_str:0000000000011127 .LASF2560
C:\Users\CYMR90~1\AppData\Local\Temp\ccYj4tTD.s:23695  .debug_str:000000000000d9e0 .LASF2561
C:\Users\CYMR90~1\AppData\Local\Temp\ccYj4tTD.s:22705  .debug_str:0000000000009888 .LASF2562
C:\Users\CYMR90~1\AppData\Local\Temp\ccYj4tTD.s:31178  .debug_str:000000000002b698 .LASF2563
C:\Users\CYMR90~1\AppData\Local\Temp\ccYj4tTD.s:24343  .debug_str:00000000000101c9 .LASF2564
C:\Users\CYMR90~1\AppData\Local\Temp\ccYj4tTD.s:30510  .debug_str:0000000000028d96 .LASF2565
C:\Users\CYMR90~1\AppData\Local\Temp\ccYj4tTD.s:29230  .debug_str:000000000002395a .LASF2566
C:\Users\CYMR90~1\AppData\Local\Temp\ccYj4tTD.s:26092  .debug_str:000000000001736f .LASF2567
C:\Users\CYMR90~1\AppData\Local\Temp\ccYj4tTD.s:25721  .debug_str:0000000000015972 .LASF2568
C:\Users\CYMR90~1\AppData\Local\Temp\ccYj4tTD.s:25849  .debug_str:0000000000016200 .LASF2569
C:\Users\CYMR90~1\AppData\Local\Temp\ccYj4tTD.s:30196  .debug_str:0000000000027848 .LASF2570
C:\Users\CYMR90~1\AppData\Local\Temp\ccYj4tTD.s:23561  .debug_str:000000000000d129 .LASF2571
C:\Users\CYMR90~1\AppData\Local\Temp\ccYj4tTD.s:27962  .debug_str:000000000001ec36 .LASF2572
C:\Users\CYMR90~1\AppData\Local\Temp\ccYj4tTD.s:22107  .debug_str:00000000000071d0 .LASF2573
C:\Users\CYMR90~1\AppData\Local\Temp\ccYj4tTD.s:20549  .debug_str:0000000000001036 .LASF2574
C:\Users\CYMR90~1\AppData\Local\Temp\ccYj4tTD.s:26960  .debug_str:000000000001ac63 .LASF2575
C:\Users\CYMR90~1\AppData\Local\Temp\ccYj4tTD.s:22965  .debug_str:000000000000a985 .LASF2576
C:\Users\CYMR90~1\AppData\Local\Temp\ccYj4tTD.s:25829  .debug_str:00000000000160c9 .LASF2577
C:\Users\CYMR90~1\AppData\Local\Temp\ccYj4tTD.s:23281  .debug_str:000000000000bf1b .LASF2578
C:\Users\CYMR90~1\AppData\Local\Temp\ccYj4tTD.s:23407  .debug_str:000000000000c6fe .LASF2579
C:\Users\CYMR90~1\AppData\Local\Temp\ccYj4tTD.s:27342  .debug_str:000000000001c3ff .LASF2580
C:\Users\CYMR90~1\AppData\Local\Temp\ccYj4tTD.s:21537  .debug_str:0000000000004eae .LASF2581
C:\Users\CYMR90~1\AppData\Local\Temp\ccYj4tTD.s:27200  .debug_str:000000000001baf8 .LASF2582
C:\Users\CYMR90~1\AppData\Local\Temp\ccYj4tTD.s:25705  .debug_str:0000000000015880 .LASF2583
C:\Users\CYMR90~1\AppData\Local\Temp\ccYj4tTD.s:30662  .debug_str:0000000000029790 .LASF2584
C:\Users\CYMR90~1\AppData\Local\Temp\ccYj4tTD.s:28826  .debug_str:0000000000022156 .LASF2585
C:\Users\CYMR90~1\AppData\Local\Temp\ccYj4tTD.s:21507  .debug_str:0000000000004cf1 .LASF2586
C:\Users\CYMR90~1\AppData\Local\Temp\ccYj4tTD.s:28564  .debug_str:00000000000210e9 .LASF2587
C:\Users\CYMR90~1\AppData\Local\Temp\ccYj4tTD.s:30940  .debug_str:000000000002a7e7 .LASF2588
C:\Users\CYMR90~1\AppData\Local\Temp\ccYj4tTD.s:20505  .debug_str:0000000000000d4a .LASF2589
C:\Users\CYMR90~1\AppData\Local\Temp\ccYj4tTD.s:22227  .debug_str:0000000000007963 .LASF2590
C:\Users\CYMR90~1\AppData\Local\Temp\ccYj4tTD.s:22703  .debug_str:0000000000009868 .LASF2591
C:\Users\CYMR90~1\AppData\Local\Temp\ccYj4tTD.s:24971  .debug_str:0000000000012a1d .LASF2592
C:\Users\CYMR90~1\AppData\Local\Temp\ccYj4tTD.s:22761  .debug_str:0000000000009c33 .LASF2593
C:\Users\CYMR90~1\AppData\Local\Temp\ccYj4tTD.s:21293  .debug_str:0000000000003e15 .LASF2594
C:\Users\CYMR90~1\AppData\Local\Temp\ccYj4tTD.s:27210  .debug_str:000000000001bbc8 .LASF2595
C:\Users\CYMR90~1\AppData\Local\Temp\ccYj4tTD.s:26352  .debug_str:0000000000018376 .LASF2596
C:\Users\CYMR90~1\AppData\Local\Temp\ccYj4tTD.s:22821  .debug_str:0000000000009fe7 .LASF2597
C:\Users\CYMR90~1\AppData\Local\Temp\ccYj4tTD.s:31514  .debug_str:000000000002cc62 .LASF2598
C:\Users\CYMR90~1\AppData\Local\Temp\ccYj4tTD.s:20741  .debug_str:0000000000001bfa .LASF2599
C:\Users\CYMR90~1\AppData\Local\Temp\ccYj4tTD.s:25223  .debug_str:0000000000013a9f .LASF2600
C:\Users\CYMR90~1\AppData\Local\Temp\ccYj4tTD.s:28802  .debug_str:0000000000021fd6 .LASF2601
C:\Users\CYMR90~1\AppData\Local\Temp\ccYj4tTD.s:31290  .debug_str:000000000002bdd1 .LASF2602
C:\Users\CYMR90~1\AppData\Local\Temp\ccYj4tTD.s:24651  .debug_str:0000000000011478 .LASF2603
C:\Users\CYMR90~1\AppData\Local\Temp\ccYj4tTD.s:23995  .debug_str:000000000000ec78 .LASF2604
C:\Users\CYMR90~1\AppData\Local\Temp\ccYj4tTD.s:27466  .debug_str:000000000001cc5f .LASF2605
C:\Users\CYMR90~1\AppData\Local\Temp\ccYj4tTD.s:26740  .debug_str:0000000000019d7f .LASF2606
C:\Users\CYMR90~1\AppData\Local\Temp\ccYj4tTD.s:21553  .debug_str:0000000000004f99 .LASF2607
C:\Users\CYMR90~1\AppData\Local\Temp\ccYj4tTD.s:21471  .debug_str:0000000000004ab4 .LASF2608
C:\Users\CYMR90~1\AppData\Local\Temp\ccYj4tTD.s:31546  .debug_str:000000000002ceac .LASF2609
C:\Users\CYMR90~1\AppData\Local\Temp\ccYj4tTD.s:28086  .debug_str:000000000001f3df .LASF2610
C:\Users\CYMR90~1\AppData\Local\Temp\ccYj4tTD.s:22385  .debug_str:00000000000084f4 .LASF2611
C:\Users\CYMR90~1\AppData\Local\Temp\ccYj4tTD.s:22373  .debug_str:0000000000008453 .LASF2612
C:\Users\CYMR90~1\AppData\Local\Temp\ccYj4tTD.s:29712  .debug_str:0000000000025a2d .LASF2613
C:\Users\CYMR90~1\AppData\Local\Temp\ccYj4tTD.s:24609  .debug_str:00000000000111d7 .LASF2614
C:\Users\CYMR90~1\AppData\Local\Temp\ccYj4tTD.s:25847  .debug_str:00000000000161dc .LASF2615
C:\Users\CYMR90~1\AppData\Local\Temp\ccYj4tTD.s:27158  .debug_str:000000000001b8e5 .LASF2616
C:\Users\CYMR90~1\AppData\Local\Temp\ccYj4tTD.s:30446  .debug_str:0000000000028a15 .LASF2617
C:\Users\CYMR90~1\AppData\Local\Temp\ccYj4tTD.s:28674  .debug_str:0000000000021848 .LASF2618
C:\Users\CYMR90~1\AppData\Local\Temp\ccYj4tTD.s:27710  .debug_str:000000000001dcb1 .LASF2619
C:\Users\CYMR90~1\AppData\Local\Temp\ccYj4tTD.s:26716  .debug_str:0000000000019c17 .LASF2620
C:\Users\CYMR90~1\AppData\Local\Temp\ccYj4tTD.s:25805  .debug_str:0000000000015f06 .LASF2621
C:\Users\CYMR90~1\AppData\Local\Temp\ccYj4tTD.s:24879  .debug_str:00000000000123ee .LASF2622
C:\Users\CYMR90~1\AppData\Local\Temp\ccYj4tTD.s:29070  .debug_str:0000000000022fc2 .LASF2623
C:\Users\CYMR90~1\AppData\Local\Temp\ccYj4tTD.s:25633  .debug_str:000000000001545f .LASF2624
C:\Users\CYMR90~1\AppData\Local\Temp\ccYj4tTD.s:23779  .debug_str:000000000000df2c .LASF2625
C:\Users\CYMR90~1\AppData\Local\Temp\ccYj4tTD.s:21095  .debug_str:000000000000316a .LASF2626
C:\Users\CYMR90~1\AppData\Local\Temp\ccYj4tTD.s:22633  .debug_str:0000000000009409 .LASF2627
C:\Users\CYMR90~1\AppData\Local\Temp\ccYj4tTD.s:20501  .debug_str:0000000000000d13 .LASF2628
C:\Users\CYMR90~1\AppData\Local\Temp\ccYj4tTD.s:23785  .debug_str:000000000000df74 .LASF2629
C:\Users\CYMR90~1\AppData\Local\Temp\ccYj4tTD.s:22443  .debug_str:0000000000008843 .LASF2630
C:\Users\CYMR90~1\AppData\Local\Temp\ccYj4tTD.s:20791  .debug_str:0000000000001ef7 .LASF2631
C:\Users\CYMR90~1\AppData\Local\Temp\ccYj4tTD.s:23245  .debug_str:000000000000bc15 .LASF2632
C:\Users\CYMR90~1\AppData\Local\Temp\ccYj4tTD.s:20601  .debug_str:0000000000001306 .LASF2633
C:\Users\CYMR90~1\AppData\Local\Temp\ccYj4tTD.s:26844  .debug_str:000000000001a52b .LASF2634
C:\Users\CYMR90~1\AppData\Local\Temp\ccYj4tTD.s:26628  .debug_str:00000000000195d5 .LASF2635
C:\Users\CYMR90~1\AppData\Local\Temp\ccYj4tTD.s:25143  .debug_str:00000000000135da .LASF2636
C:\Users\CYMR90~1\AppData\Local\Temp\ccYj4tTD.s:30348  .debug_str:0000000000028367 .LASF2637
C:\Users\CYMR90~1\AppData\Local\Temp\ccYj4tTD.s:22829  .debug_str:000000000000a068 .LASF2638
C:\Users\CYMR90~1\AppData\Local\Temp\ccYj4tTD.s:26890  .debug_str:000000000001a79c .LASF2639
C:\Users\CYMR90~1\AppData\Local\Temp\ccYj4tTD.s:27514  .debug_str:000000000001d086 .LASF2640
C:\Users\CYMR90~1\AppData\Local\Temp\ccYj4tTD.s:26032  .debug_str:0000000000016fee .LASF2641
C:\Users\CYMR90~1\AppData\Local\Temp\ccYj4tTD.s:29940  .debug_str:0000000000026850 .LASF2642
C:\Users\CYMR90~1\AppData\Local\Temp\ccYj4tTD.s:25087  .debug_str:000000000001319c .LASF2643
C:\Users\CYMR90~1\AppData\Local\Temp\ccYj4tTD.s:20371  .debug_str:00000000000004ff .LASF2644
C:\Users\CYMR90~1\AppData\Local\Temp\ccYj4tTD.s:20855  .debug_str:000000000000224c .LASF2645
C:\Users\CYMR90~1\AppData\Local\Temp\ccYj4tTD.s:25663  .debug_str:00000000000155e8 .LASF2646
C:\Users\CYMR90~1\AppData\Local\Temp\ccYj4tTD.s:20489  .debug_str:0000000000000c72 .LASF2647
C:\Users\CYMR90~1\AppData\Local\Temp\ccYj4tTD.s:27612  .debug_str:000000000001d6a7 .LASF2648
C:\Users\CYMR90~1\AppData\Local\Temp\ccYj4tTD.s:28182  .debug_str:000000000001f98a .LASF2649
C:\Users\CYMR90~1\AppData\Local\Temp\ccYj4tTD.s:29512  .debug_str:0000000000024b85 .LASF2650
C:\Users\CYMR90~1\AppData\Local\Temp\ccYj4tTD.s:21655  .debug_str:00000000000055c1 .LASF2651
C:\Users\CYMR90~1\AppData\Local\Temp\ccYj4tTD.s:21257  .debug_str:0000000000003bc6 .LASF2652
C:\Users\CYMR90~1\AppData\Local\Temp\ccYj4tTD.s:25349  .debug_str:0000000000014280 .LASF2653
C:\Users\CYMR90~1\AppData\Local\Temp\ccYj4tTD.s:23317  .debug_str:000000000000c180 .LASF2654
C:\Users\CYMR90~1\AppData\Local\Temp\ccYj4tTD.s:28074  .debug_str:000000000001f324 .LASF2655
C:\Users\CYMR90~1\AppData\Local\Temp\ccYj4tTD.s:23867  .debug_str:000000000000e42a .LASF2656
C:\Users\CYMR90~1\AppData\Local\Temp\ccYj4tTD.s:28970  .debug_str:00000000000229d7 .LASF2657
C:\Users\CYMR90~1\AppData\Local\Temp\ccYj4tTD.s:31498  .debug_str:000000000002cb8c .LASF2658
C:\Users\CYMR90~1\AppData\Local\Temp\ccYj4tTD.s:21771  .debug_str:0000000000005cb0 .LASF2659
C:\Users\CYMR90~1\AppData\Local\Temp\ccYj4tTD.s:26874  .debug_str:000000000001a691 .LASF2660
C:\Users\CYMR90~1\AppData\Local\Temp\ccYj4tTD.s:23041  .debug_str:000000000000ae64 .LASF2661
C:\Users\CYMR90~1\AppData\Local\Temp\ccYj4tTD.s:29648  .debug_str:0000000000025552 .LASF2662
C:\Users\CYMR90~1\AppData\Local\Temp\ccYj4tTD.s:21045  .debug_str:0000000000002e4d .LASF2663
C:\Users\CYMR90~1\AppData\Local\Temp\ccYj4tTD.s:31380  .debug_str:000000000002c3b2 .LASF2664
C:\Users\CYMR90~1\AppData\Local\Temp\ccYj4tTD.s:20637  .debug_str:00000000000014e2 .LASF2665
C:\Users\CYMR90~1\AppData\Local\Temp\ccYj4tTD.s:28832  .debug_str:00000000000221a8 .LASF2666
C:\Users\CYMR90~1\AppData\Local\Temp\ccYj4tTD.s:28842  .debug_str:0000000000022248 .LASF2667
C:\Users\CYMR90~1\AppData\Local\Temp\ccYj4tTD.s:25243  .debug_str:0000000000013bdf .LASF2668
C:\Users\CYMR90~1\AppData\Local\Temp\ccYj4tTD.s:25035  .debug_str:0000000000012e2e .LASF2669
C:\Users\CYMR90~1\AppData\Local\Temp\ccYj4tTD.s:27882  .debug_str:000000000001e786 .LASF2670
C:\Users\CYMR90~1\AppData\Local\Temp\ccYj4tTD.s:23169  .debug_str:000000000000b74b .LASF2671
C:\Users\CYMR90~1\AppData\Local\Temp\ccYj4tTD.s:22043  .debug_str:0000000000006d1c .LASF2672
C:\Users\CYMR90~1\AppData\Local\Temp\ccYj4tTD.s:28178  .debug_str:000000000001f93a .LASF2673
C:\Users\CYMR90~1\AppData\Local\Temp\ccYj4tTD.s:30718  .debug_str:0000000000029aa8 .LASF2674
C:\Users\CYMR90~1\AppData\Local\Temp\ccYj4tTD.s:26176  .debug_str:00000000000178bd .LASF2675
C:\Users\CYMR90~1\AppData\Local\Temp\ccYj4tTD.s:27528  .debug_str:000000000001d15e .LASF2676
C:\Users\CYMR90~1\AppData\Local\Temp\ccYj4tTD.s:25411  .debug_str:0000000000014669 .LASF2677
C:\Users\CYMR90~1\AppData\Local\Temp\ccYj4tTD.s:23697  .debug_str:000000000000da03 .LASF2678
C:\Users\CYMR90~1\AppData\Local\Temp\ccYj4tTD.s:27052  .debug_str:000000000001b27e .LASF2679
C:\Users\CYMR90~1\AppData\Local\Temp\ccYj4tTD.s:31098  .debug_str:000000000002b129 .LASF2680
C:\Users\CYMR90~1\AppData\Local\Temp\ccYj4tTD.s:21565  .debug_str:0000000000005049 .LASF2681
C:\Users\CYMR90~1\AppData\Local\Temp\ccYj4tTD.s:22199  .debug_str:00000000000077c2 .LASF2682
C:\Users\CYMR90~1\AppData\Local\Temp\ccYj4tTD.s:30526  .debug_str:0000000000028ec8 .LASF2683
C:\Users\CYMR90~1\AppData\Local\Temp\ccYj4tTD.s:26554  .debug_str:0000000000019166 .LASF2684
C:\Users\CYMR90~1\AppData\Local\Temp\ccYj4tTD.s:29586  .debug_str:000000000002503b .LASF2685
C:\Users\CYMR90~1\AppData\Local\Temp\ccYj4tTD.s:23553  .debug_str:000000000000d09b .LASF2686
C:\Users\CYMR90~1\AppData\Local\Temp\ccYj4tTD.s:28732  .debug_str:0000000000021bbb .LASF2687
C:\Users\CYMR90~1\AppData\Local\Temp\ccYj4tTD.s:28990  .debug_str:0000000000022af4 .LASF2688
C:\Users\CYMR90~1\AppData\Local\Temp\ccYj4tTD.s:24639  .debug_str:00000000000113b9 .LASF2689
C:\Users\CYMR90~1\AppData\Local\Temp\ccYj4tTD.s:21239  .debug_str:0000000000003ac8 .LASF2690
C:\Users\CYMR90~1\AppData\Local\Temp\ccYj4tTD.s:26508  .debug_str:0000000000018dc0 .LASF2691
C:\Users\CYMR90~1\AppData\Local\Temp\ccYj4tTD.s:20421  .debug_str:00000000000007f9 .LASF2692
C:\Users\CYMR90~1\AppData\Local\Temp\ccYj4tTD.s:28274  .debug_str:000000000001ff78 .LASF2693
C:\Users\CYMR90~1\AppData\Local\Temp\ccYj4tTD.s:30436  .debug_str:0000000000028954 .LASF2694
C:\Users\CYMR90~1\AppData\Local\Temp\ccYj4tTD.s:22339  .debug_str:00000000000081ef .LASF2695
C:\Users\CYMR90~1\AppData\Local\Temp\ccYj4tTD.s:22977  .debug_str:000000000000aa3f .LASF2696
C:\Users\CYMR90~1\AppData\Local\Temp\ccYj4tTD.s:28728  .debug_str:0000000000021b81 .LASF2697
C:\Users\CYMR90~1\AppData\Local\Temp\ccYj4tTD.s:20551  .debug_str:0000000000001048 .LASF2698
C:\Users\CYMR90~1\AppData\Local\Temp\ccYj4tTD.s:23797  .debug_str:000000000000e023 .LASF2699
C:\Users\CYMR90~1\AppData\Local\Temp\ccYj4tTD.s:27020  .debug_str:000000000001b078 .LASF2700
C:\Users\CYMR90~1\AppData\Local\Temp\ccYj4tTD.s:30198  .debug_str:000000000002785b .LASF2701
C:\Users\CYMR90~1\AppData\Local\Temp\ccYj4tTD.s:22085  .debug_str:0000000000006fec .LASF2702
C:\Users\CYMR90~1\AppData\Local\Temp\ccYj4tTD.s:25299  .debug_str:0000000000013f2b .LASF2703
C:\Users\CYMR90~1\AppData\Local\Temp\ccYj4tTD.s:21765  .debug_str:0000000000005c60 .LASF2704
C:\Users\CYMR90~1\AppData\Local\Temp\ccYj4tTD.s:26502  .debug_str:0000000000018d63 .LASF2705
C:\Users\CYMR90~1\AppData\Local\Temp\ccYj4tTD.s:31222  .debug_str:000000000002b99b .LASF2706
C:\Users\CYMR90~1\AppData\Local\Temp\ccYj4tTD.s:24591  .debug_str:00000000000110ae .LASF2707
C:\Users\CYMR90~1\AppData\Local\Temp\ccYj4tTD.s:29266  .debug_str:0000000000023b71 .LASF2708
C:\Users\CYMR90~1\AppData\Local\Temp\ccYj4tTD.s:22681  .debug_str:0000000000009729 .LASF2709
C:\Users\CYMR90~1\AppData\Local\Temp\ccYj4tTD.s:23053  .debug_str:000000000000afed .LASF2710
C:\Users\CYMR90~1\AppData\Local\Temp\ccYj4tTD.s:23705  .debug_str:000000000000da93 .LASF2711
C:\Users\CYMR90~1\AppData\Local\Temp\ccYj4tTD.s:28984  .debug_str:0000000000022a8e .LASF2712
C:\Users\CYMR90~1\AppData\Local\Temp\ccYj4tTD.s:26232  .debug_str:0000000000017c38 .LASF2713
C:\Users\CYMR90~1\AppData\Local\Temp\ccYj4tTD.s:21485  .debug_str:0000000000004b81 .LASF2714
C:\Users\CYMR90~1\AppData\Local\Temp\ccYj4tTD.s:22927  .debug_str:000000000000a646 .LASF2715
C:\Users\CYMR90~1\AppData\Local\Temp\ccYj4tTD.s:28102  .debug_str:000000000001f4dc .LASF2716
C:\Users\CYMR90~1\AppData\Local\Temp\ccYj4tTD.s:22057  .debug_str:0000000000006e27 .LASF2717
C:\Users\CYMR90~1\AppData\Local\Temp\ccYj4tTD.s:27214  .debug_str:000000000001bc15 .LASF2718
C:\Users\CYMR90~1\AppData\Local\Temp\ccYj4tTD.s:23405  .debug_str:000000000000c6e2 .LASF2719
C:\Users\CYMR90~1\AppData\Local\Temp\ccYj4tTD.s:23153  .debug_str:000000000000b61a .LASF2720
C:\Users\CYMR90~1\AppData\Local\Temp\ccYj4tTD.s:28344  .debug_str:000000000002037e .LASF2721
C:\Users\CYMR90~1\AppData\Local\Temp\ccYj4tTD.s:22293  .debug_str:0000000000007e32 .LASF2722
C:\Users\CYMR90~1\AppData\Local\Temp\ccYj4tTD.s:27434  .debug_str:000000000001ca54 .LASF2723
C:\Users\CYMR90~1\AppData\Local\Temp\ccYj4tTD.s:21353  .debug_str:000000000000426a .LASF2724
C:\Users\CYMR90~1\AppData\Local\Temp\ccYj4tTD.s:29244  .debug_str:0000000000023a3a .LASF2725
C:\Users\CYMR90~1\AppData\Local\Temp\ccYj4tTD.s:26534  .debug_str:0000000000018f4f .LASF2726
C:\Users\CYMR90~1\AppData\Local\Temp\ccYj4tTD.s:20817  .debug_str:000000000000204c .LASF2727
C:\Users\CYMR90~1\AppData\Local\Temp\ccYj4tTD.s:21167  .debug_str:0000000000003620 .LASF2728
C:\Users\CYMR90~1\AppData\Local\Temp\ccYj4tTD.s:29716  .debug_str:0000000000025a70 .LASF2729
C:\Users\CYMR90~1\AppData\Local\Temp\ccYj4tTD.s:27076  .debug_str:000000000001b415 .LASF2730
C:\Users\CYMR90~1\AppData\Local\Temp\ccYj4tTD.s:26218  .debug_str:0000000000017b64 .LASF2731
C:\Users\CYMR90~1\AppData\Local\Temp\ccYj4tTD.s:31408  .debug_str:000000000002c5bd .LASF2732
C:\Users\CYMR90~1\AppData\Local\Temp\ccYj4tTD.s:25297  .debug_str:0000000000013f11 .LASF2733
C:\Users\CYMR90~1\AppData\Local\Temp\ccYj4tTD.s:30550  .debug_str:000000000002902f .LASF2734
C:\Users\CYMR90~1\AppData\Local\Temp\ccYj4tTD.s:24399  .debug_str:00000000000104e2 .LASF2735
C:\Users\CYMR90~1\AppData\Local\Temp\ccYj4tTD.s:26976  .debug_str:000000000001ad52 .LASF2736
C:\Users\CYMR90~1\AppData\Local\Temp\ccYj4tTD.s:20849  .debug_str:0000000000002201 .LASF2737
C:\Users\CYMR90~1\AppData\Local\Temp\ccYj4tTD.s:26022  .debug_str:0000000000016f69 .LASF2738
C:\Users\CYMR90~1\AppData\Local\Temp\ccYj4tTD.s:25331  .debug_str:0000000000014175 .LASF2739
C:\Users\CYMR90~1\AppData\Local\Temp\ccYj4tTD.s:25099  .debug_str:0000000000013298 .LASF2740
C:\Users\CYMR90~1\AppData\Local\Temp\ccYj4tTD.s:23999  .debug_str:000000000000eca9 .LASF2741
C:\Users\CYMR90~1\AppData\Local\Temp\ccYj4tTD.s:31100  .debug_str:000000000002b141 .LASF2742
C:\Users\CYMR90~1\AppData\Local\Temp\ccYj4tTD.s:22995  .debug_str:000000000000ab58 .LASF2743
C:\Users\CYMR90~1\AppData\Local\Temp\ccYj4tTD.s:26174  .debug_str:00000000000178a4 .LASF2744
C:\Users\CYMR90~1\AppData\Local\Temp\ccYj4tTD.s:29388  .debug_str:0000000000024363 .LASF2745
C:\Users\CYMR90~1\AppData\Local\Temp\ccYj4tTD.s:21279  .debug_str:0000000000003d50 .LASF2746
C:\Users\CYMR90~1\AppData\Local\Temp\ccYj4tTD.s:24523  .debug_str:0000000000010cf7 .LASF2747
C:\Users\CYMR90~1\AppData\Local\Temp\ccYj4tTD.s:27688  .debug_str:000000000001db6d .LASF2748
C:\Users\CYMR90~1\AppData\Local\Temp\ccYj4tTD.s:30848  .debug_str:000000000002a257 .LASF2749
C:\Users\CYMR90~1\AppData\Local\Temp\ccYj4tTD.s:22757  .debug_str:0000000000009bfe .LASF2750
C:\Users\CYMR90~1\AppData\Local\Temp\ccYj4tTD.s:25943  .debug_str:00000000000167d4 .LASF2751
C:\Users\CYMR90~1\AppData\Local\Temp\ccYj4tTD.s:27922  .debug_str:000000000001ea1e .LASF2752
C:\Users\CYMR90~1\AppData\Local\Temp\ccYj4tTD.s:21333  .debug_str:0000000000004092 .LASF2753
C:\Users\CYMR90~1\AppData\Local\Temp\ccYj4tTD.s:26054  .debug_str:0000000000017136 .LASF2754
C:\Users\CYMR90~1\AppData\Local\Temp\ccYj4tTD.s:30764  .debug_str:0000000000029d79 .LASF2755
C:\Users\CYMR90~1\AppData\Local\Temp\ccYj4tTD.s:24169  .debug_str:000000000000f671 .LASF2756
C:\Users\CYMR90~1\AppData\Local\Temp\ccYj4tTD.s:28820  .debug_str:000000000002210c .LASF2757
C:\Users\CYMR90~1\AppData\Local\Temp\ccYj4tTD.s:22213  .debug_str:0000000000007890 .LASF2758
C:\Users\CYMR90~1\AppData\Local\Temp\ccYj4tTD.s:25429  .debug_str:0000000000014775 .LASF2759
C:\Users\CYMR90~1\AppData\Local\Temp\ccYj4tTD.s:28526  .debug_str:0000000000020ee5 .LASF2760
C:\Users\CYMR90~1\AppData\Local\Temp\ccYj4tTD.s:20453  .debug_str:00000000000009db .LASF2761
C:\Users\CYMR90~1\AppData\Local\Temp\ccYj4tTD.s:23687  .debug_str:000000000000d964 .LASF2762
C:\Users\CYMR90~1\AppData\Local\Temp\ccYj4tTD.s:26906  .debug_str:000000000001a917 .LASF2763
C:\Users\CYMR90~1\AppData\Local\Temp\ccYj4tTD.s:30082  .debug_str:00000000000270bb .LASF2764
C:\Users\CYMR90~1\AppData\Local\Temp\ccYj4tTD.s:21973  .debug_str:0000000000006896 .LASF2765
C:\Users\CYMR90~1\AppData\Local\Temp\ccYj4tTD.s:25199  .debug_str:000000000001393f .LASF2766
C:\Users\CYMR90~1\AppData\Local\Temp\ccYj4tTD.s:28390  .debug_str:00000000000206c6 .LASF2767
C:\Users\CYMR90~1\AppData\Local\Temp\ccYj4tTD.s:25735  .debug_str:0000000000015a39 .LASF2768
C:\Users\CYMR90~1\AppData\Local\Temp\ccYj4tTD.s:30450  .debug_str:0000000000028a47 .LASF2769
C:\Users\CYMR90~1\AppData\Local\Temp\ccYj4tTD.s:23851  .debug_str:000000000000e361 .LASF2770
C:\Users\CYMR90~1\AppData\Local\Temp\ccYj4tTD.s:21909  .debug_str:00000000000064e8 .LASF2771
C:\Users\CYMR90~1\AppData\Local\Temp\ccYj4tTD.s:26640  .debug_str:0000000000019681 .LASF2772
C:\Users\CYMR90~1\AppData\Local\Temp\ccYj4tTD.s:25155  .debug_str:000000000001369a .LASF2773
C:\Users\CYMR90~1\AppData\Local\Temp\ccYj4tTD.s:28334  .debug_str:00000000000202b5 .LASF2774
C:\Users\CYMR90~1\AppData\Local\Temp\ccYj4tTD.s:31590  .debug_str:000000000002d15e .LASF2775
C:\Users\CYMR90~1\AppData\Local\Temp\ccYj4tTD.s:27302  .debug_str:000000000001c1db .LASF2776
C:\Users\CYMR90~1\AppData\Local\Temp\ccYj4tTD.s:29370  .debug_str:0000000000024216 .LASF2777
C:\Users\CYMR90~1\AppData\Local\Temp\ccYj4tTD.s:29790  .debug_str:0000000000025edf .LASF2778
C:\Users\CYMR90~1\AppData\Local\Temp\ccYj4tTD.s:21675  .debug_str:00000000000056cd .LASF2779
C:\Users\CYMR90~1\AppData\Local\Temp\ccYj4tTD.s:24927  .debug_str:000000000001270d .LASF2780
C:\Users\CYMR90~1\AppData\Local\Temp\ccYj4tTD.s:28076  .debug_str:000000000001f349 .LASF2781
C:\Users\CYMR90~1\AppData\Local\Temp\ccYj4tTD.s:31358  .debug_str:000000000002c26d .LASF2782
C:\Users\CYMR90~1\AppData\Local\Temp\ccYj4tTD.s:28822  .debug_str:0000000000022127 .LASF2783
C:\Users\CYMR90~1\AppData\Local\Temp\ccYj4tTD.s:30822  .debug_str:000000000002a0d3 .LASF2784
C:\Users\CYMR90~1\AppData\Local\Temp\ccYj4tTD.s:21253  .debug_str:0000000000003b8d .LASF2785
C:\Users\CYMR90~1\AppData\Local\Temp\ccYj4tTD.s:25967  .debug_str:00000000000169ac .LASF2786
C:\Users\CYMR90~1\AppData\Local\Temp\ccYj4tTD.s:30686  .debug_str:000000000002990f .LASF2787
C:\Users\CYMR90~1\AppData\Local\Temp\ccYj4tTD.s:24083  .debug_str:000000000000f127 .LASF2788
C:\Users\CYMR90~1\AppData\Local\Temp\ccYj4tTD.s:25933  .debug_str:000000000001674f .LASF2789
C:\Users\CYMR90~1\AppData\Local\Temp\ccYj4tTD.s:30652  .debug_str:00000000000296b6 .LASF2790
C:\Users\CYMR90~1\AppData\Local\Temp\ccYj4tTD.s:24057  .debug_str:000000000000efab .LASF2791
C:\Users\CYMR90~1\AppData\Local\Temp\ccYj4tTD.s:28704  .debug_str:00000000000219dd .LASF2792
C:\Users\CYMR90~1\AppData\Local\Temp\ccYj4tTD.s:25209  .debug_str:00000000000139d6 .LASF2793
C:\Users\CYMR90~1\AppData\Local\Temp\ccYj4tTD.s:20757  .debug_str:0000000000001cdb .LASF2794
C:\Users\CYMR90~1\AppData\Local\Temp\ccYj4tTD.s:25465  .debug_str:0000000000014978 .LASF2795
C:\Users\CYMR90~1\AppData\Local\Temp\ccYj4tTD.s:30180  .debug_str:0000000000027751 .LASF2796
C:\Users\CYMR90~1\AppData\Local\Temp\ccYj4tTD.s:23589  .debug_str:000000000000d339 .LASF2797
C:\Users\CYMR90~1\AppData\Local\Temp\ccYj4tTD.s:28236  .debug_str:000000000001fcd8 .LASF2798
C:\Users\CYMR90~1\AppData\Local\Temp\ccYj4tTD.s:23215  .debug_str:000000000000ba6b .LASF2799
C:\Users\CYMR90~1\AppData\Local\Temp\ccYj4tTD.s:27868  .debug_str:000000000001e682 .LASF2800
C:\Users\CYMR90~1\AppData\Local\Temp\ccYj4tTD.s:21269  .debug_str:0000000000003c85 .LASF2801
C:\Users\CYMR90~1\AppData\Local\Temp\ccYj4tTD.s:25983  .debug_str:0000000000016b51 .LASF2802
C:\Users\CYMR90~1\AppData\Local\Temp\ccYj4tTD.s:22601  .debug_str:000000000000922a .LASF2803
C:\Users\CYMR90~1\AppData\Local\Temp\ccYj4tTD.s:29342  .debug_str:0000000000023f93 .LASF2804
C:\Users\CYMR90~1\AppData\Local\Temp\ccYj4tTD.s:20767  .debug_str:0000000000001d7a .LASF2805
C:\Users\CYMR90~1\AppData\Local\Temp\ccYj4tTD.s:24021  .debug_str:000000000000edc4 .LASF2806
C:\Users\CYMR90~1\AppData\Local\Temp\ccYj4tTD.s:30138  .debug_str:0000000000027506 .LASF2807
C:\Users\CYMR90~1\AppData\Local\Temp\ccYj4tTD.s:30424  .debug_str:00000000000288b5 .LASF2808
C:\Users\CYMR90~1\AppData\Local\Temp\ccYj4tTD.s:22221  .debug_str:00000000000078fc .LASF2809
C:\Users\CYMR90~1\AppData\Local\Temp\ccYj4tTD.s:25437  .debug_str:00000000000147d4 .LASF2810
C:\Users\CYMR90~1\AppData\Local\Temp\ccYj4tTD.s:22767  .debug_str:0000000000009c7a .LASF2811
C:\Users\CYMR90~1\AppData\Local\Temp\ccYj4tTD.s:20539  .debug_str:0000000000000fae .LASF2812
C:\Users\CYMR90~1\AppData\Local\Temp\ccYj4tTD.s:23781  .debug_str:000000000000df48 .LASF2813
C:\Users\CYMR90~1\AppData\Local\Temp\ccYj4tTD.s:22317  .debug_str:0000000000007fe2 .LASF2814
C:\Users\CYMR90~1\AppData\Local\Temp\ccYj4tTD.s:26278  .debug_str:0000000000017f1f .LASF2815
C:\Users\CYMR90~1\AppData\Local\Temp\ccYj4tTD.s:31010  .debug_str:000000000002ac1c .LASF2816
C:\Users\CYMR90~1\AppData\Local\Temp\ccYj4tTD.s:24397  .debug_str:00000000000104cb .LASF2817
C:\Users\CYMR90~1\AppData\Local\Temp\ccYj4tTD.s:29068  .debug_str:0000000000022fab .LASF2818
C:\Users\CYMR90~1\AppData\Local\Temp\ccYj4tTD.s:29682  .debug_str:00000000000257df .LASF2819
C:\Users\CYMR90~1\AppData\Local\Temp\ccYj4tTD.s:27168  .debug_str:000000000001b94d .LASF2820
C:\Users\CYMR90~1\AppData\Local\Temp\ccYj4tTD.s:24577  .debug_str:0000000000010fd0 .LASF2821
C:\Users\CYMR90~1\AppData\Local\Temp\ccYj4tTD.s:30874  .debug_str:000000000002a39e .LASF2822
C:\Users\CYMR90~1\AppData\Local\Temp\ccYj4tTD.s:26796  .debug_str:000000000001a0b1 .LASF2823
C:\Users\CYMR90~1\AppData\Local\Temp\ccYj4tTD.s:22417  .debug_str:00000000000086ab .LASF2824
C:\Users\CYMR90~1\AppData\Local\Temp\ccYj4tTD.s:23381  .debug_str:000000000000c54b .LASF2825
C:\Users\CYMR90~1\AppData\Local\Temp\ccYj4tTD.s:30892  .debug_str:000000000002a4ba .LASF2826
C:\Users\CYMR90~1\AppData\Local\Temp\ccYj4tTD.s:21179  .debug_str:00000000000036b1 .LASF2827
C:\Users\CYMR90~1\AppData\Local\Temp\ccYj4tTD.s:26116  .debug_str:00000000000174bc .LASF2828
C:\Users\CYMR90~1\AppData\Local\Temp\ccYj4tTD.s:21541  .debug_str:0000000000004ee8 .LASF2829
C:\Users\CYMR90~1\AppData\Local\Temp\ccYj4tTD.s:24921  .debug_str:00000000000126aa .LASF2830
C:\Users\CYMR90~1\AppData\Local\Temp\ccYj4tTD.s:21587  .debug_str:000000000000519e .LASF2831
C:\Users\CYMR90~1\AppData\Local\Temp\ccYj4tTD.s:28400  .debug_str:0000000000020745 .LASF2832
C:\Users\CYMR90~1\AppData\Local\Temp\ccYj4tTD.s:25195  .debug_str:0000000000013903 .LASF2833
C:\Users\CYMR90~1\AppData\Local\Temp\ccYj4tTD.s:23989  .debug_str:000000000000ec0d .LASF2834
C:\Users\CYMR90~1\AppData\Local\Temp\ccYj4tTD.s:23045  .debug_str:000000000000aeb9 .LASF2835
C:\Users\CYMR90~1\AppData\Local\Temp\ccYj4tTD.s:20599  .debug_str:00000000000012e8 .LASF2836
C:\Users\CYMR90~1\AppData\Local\Temp\ccYj4tTD.s:23417  .debug_str:000000000000c7a4 .LASF2837
C:\Users\CYMR90~1\AppData\Local\Temp\ccYj4tTD.s:25203  .debug_str:000000000001397a .LASF2838
C:\Users\CYMR90~1\AppData\Local\Temp\ccYj4tTD.s:28396  .debug_str:0000000000020716 .LASF2839
C:\Users\CYMR90~1\AppData\Local\Temp\ccYj4tTD.s:20323  .debug_str:0000000000000212 .LASF2840
C:\Users\CYMR90~1\AppData\Local\Temp\ccYj4tTD.s:23551  .debug_str:000000000000d088 .LASF2841
C:\Users\CYMR90~1\AppData\Local\Temp\ccYj4tTD.s:26744  .debug_str:0000000000019dd5 .LASF2842
C:\Users\CYMR90~1\AppData\Local\Temp\ccYj4tTD.s:20517  .debug_str:0000000000000df8 .LASF2843
C:\Users\CYMR90~1\AppData\Local\Temp\ccYj4tTD.s:30204  .debug_str:00000000000278b3 .LASF2844
C:\Users\CYMR90~1\AppData\Local\Temp\ccYj4tTD.s:28552  .debug_str:0000000000021036 .LASF2845
C:\Users\CYMR90~1\AppData\Local\Temp\ccYj4tTD.s:26984  .debug_str:000000000001add6 .LASF2846
C:\Users\CYMR90~1\AppData\Local\Temp\ccYj4tTD.s:31418  .debug_str:000000000002c66f .LASF2847
C:\Users\CYMR90~1\AppData\Local\Temp\ccYj4tTD.s:20631  .debug_str:00000000000014ac .LASF2848
C:\Users\CYMR90~1\AppData\Local\Temp\ccYj4tTD.s:25341  .debug_str:0000000000014216 .LASF2849
C:\Users\CYMR90~1\AppData\Local\Temp\ccYj4tTD.s:30048  .debug_str:0000000000026ed8 .LASF2850
C:\Users\CYMR90~1\AppData\Local\Temp\ccYj4tTD.s:31092  .debug_str:000000000002b0c7 .LASF2851
C:\Users\CYMR90~1\AppData\Local\Temp\ccYj4tTD.s:27306  .debug_str:000000000001c209 .LASF2852
C:\Users\CYMR90~1\AppData\Local\Temp\ccYj4tTD.s:23597  .debug_str:000000000000d391 .LASF2853
C:\Users\CYMR90~1\AppData\Local\Temp\ccYj4tTD.s:28856  .debug_str:0000000000022310 .LASF2854
C:\Users\CYMR90~1\AppData\Local\Temp\ccYj4tTD.s:20749  .debug_str:0000000000001c67 .LASF2855
C:\Users\CYMR90~1\AppData\Local\Temp\ccYj4tTD.s:24005  .debug_str:000000000000ecf4 .LASF2856
C:\Users\CYMR90~1\AppData\Local\Temp\ccYj4tTD.s:27190  .debug_str:000000000001ba71 .LASF2857
C:\Users\CYMR90~1\AppData\Local\Temp\ccYj4tTD.s:30318  .debug_str:00000000000280c1 .LASF2858
C:\Users\CYMR90~1\AppData\Local\Temp\ccYj4tTD.s:23927  .debug_str:000000000000e82a .LASF2859
C:\Users\CYMR90~1\AppData\Local\Temp\ccYj4tTD.s:25421  .debug_str:0000000000014701 .LASF2860
C:\Users\CYMR90~1\AppData\Local\Temp\ccYj4tTD.s:25459  .debug_str:0000000000014933 .LASF2861
C:\Users\CYMR90~1\AppData\Local\Temp\ccYj4tTD.s:20531  .debug_str:0000000000000f4f .LASF2862
C:\Users\CYMR90~1\AppData\Local\Temp\ccYj4tTD.s:20673  .debug_str:00000000000017c5 .LASF2863
C:\Users\CYMR90~1\AppData\Local\Temp\ccYj4tTD.s:25991  .debug_str:0000000000016bcb .LASF2864
C:\Users\CYMR90~1\AppData\Local\Temp\ccYj4tTD.s:28854  .debug_str:00000000000222fb .LASF2865
C:\Users\CYMR90~1\AppData\Local\Temp\ccYj4tTD.s:24103  .debug_str:000000000000f277 .LASF2866
C:\Users\CYMR90~1\AppData\Local\Temp\ccYj4tTD.s:28754  .debug_str:0000000000021d36 .LASF2867
C:\Users\CYMR90~1\AppData\Local\Temp\ccYj4tTD.s:28924  .debug_str:00000000000226f6 .LASF2868
C:\Users\CYMR90~1\AppData\Local\Temp\ccYj4tTD.s:26898  .debug_str:000000000001a8b1 .LASF2869
C:\Users\CYMR90~1\AppData\Local\Temp\ccYj4tTD.s:26144  .debug_str:0000000000017681 .LASF2870
C:\Users\CYMR90~1\AppData\Local\Temp\ccYj4tTD.s:23871  .debug_str:000000000000e469 .LASF2871
C:\Users\CYMR90~1\AppData\Local\Temp\ccYj4tTD.s:25045  .debug_str:0000000000012ed6 .LASF2872
C:\Users\CYMR90~1\AppData\Local\Temp\ccYj4tTD.s:25009  .debug_str:0000000000012c7d .LASF2873
C:\Users\CYMR90~1\AppData\Local\Temp\ccYj4tTD.s:21089  .debug_str:0000000000003124 .LASF2874
C:\Users\CYMR90~1\AppData\Local\Temp\ccYj4tTD.s:20971  .debug_str:000000000000298e .LASF2875
C:\Users\CYMR90~1\AppData\Local\Temp\ccYj4tTD.s:28514  .debug_str:0000000000020e3f .LASF2876
C:\Users\CYMR90~1\AppData\Local\Temp\ccYj4tTD.s:29516  .debug_str:0000000000024bd6 .LASF2877
C:\Users\CYMR90~1\AppData\Local\Temp\ccYj4tTD.s:29196  .debug_str:0000000000023744 .LASF2878
C:\Users\CYMR90~1\AppData\Local\Temp\ccYj4tTD.s:23105  .debug_str:000000000000b2fb .LASF2879
C:\Users\CYMR90~1\AppData\Local\Temp\ccYj4tTD.s:26280  .debug_str:0000000000017f36 .LASF2880
C:\Users\CYMR90~1\AppData\Local\Temp\ccYj4tTD.s:29494  .debug_str:0000000000024a52 .LASF2881
C:\Users\CYMR90~1\AppData\Local\Temp\ccYj4tTD.s:21385  .debug_str:0000000000004468 .LASF2882
C:\Users\CYMR90~1\AppData\Local\Temp\ccYj4tTD.s:24547  .debug_str:0000000000010e2b .LASF2883
C:\Users\CYMR90~1\AppData\Local\Temp\ccYj4tTD.s:27708  .debug_str:000000000001dc9f .LASF2884
C:\Users\CYMR90~1\AppData\Local\Temp\ccYj4tTD.s:31518  .debug_str:000000000002ccac .LASF2885
C:\Users\CYMR90~1\AppData\Local\Temp\ccYj4tTD.s:22867  .debug_str:000000000000a2c7 .LASF2886
C:\Users\CYMR90~1\AppData\Local\Temp\ccYj4tTD.s:26060  .debug_str:0000000000017193 .LASF2887
C:\Users\CYMR90~1\AppData\Local\Temp\ccYj4tTD.s:29262  .debug_str:0000000000023b3f .LASF2888
C:\Users\CYMR90~1\AppData\Local\Temp\ccYj4tTD.s:27438  .debug_str:000000000001ca8a .LASF2889
C:\Users\CYMR90~1\AppData\Local\Temp\ccYj4tTD.s:20815  .debug_str:0000000000002038 .LASF2890
C:\Users\CYMR90~1\AppData\Local\Temp\ccYj4tTD.s:25521  .debug_str:0000000000014d3f .LASF2891
C:\Users\CYMR90~1\AppData\Local\Temp\ccYj4tTD.s:30238  .debug_str:0000000000027b1f .LASF2892
C:\Users\CYMR90~1\AppData\Local\Temp\ccYj4tTD.s:23647  .debug_str:000000000000d75b .LASF2893
C:\Users\CYMR90~1\AppData\Local\Temp\ccYj4tTD.s:28300  .debug_str:0000000000020103 .LASF2894
C:\Users\CYMR90~1\AppData\Local\Temp\ccYj4tTD.s:30916  .debug_str:000000000002a67d .LASF2895
C:\Users\CYMR90~1\AppData\Local\Temp\ccYj4tTD.s:31128  .debug_str:000000000002b32b .LASF2896
C:\Users\CYMR90~1\AppData\Local\Temp\ccYj4tTD.s:26934  .debug_str:000000000001aab0 .LASF2897
C:\Users\CYMR90~1\AppData\Local\Temp\ccYj4tTD.s:22119  .debug_str:00000000000072af .LASF2898
C:\Users\CYMR90~1\AppData\Local\Temp\ccYj4tTD.s:22425  .debug_str:0000000000008723 .LASF2899
C:\Users\CYMR90~1\AppData\Local\Temp\ccYj4tTD.s:26340  .debug_str:00000000000182a3 .LASF2900
C:\Users\CYMR90~1\AppData\Local\Temp\ccYj4tTD.s:31226  .debug_str:000000000002b9c8 .LASF2901
C:\Users\CYMR90~1\AppData\Local\Temp\ccYj4tTD.s:24787  .debug_str:0000000000011de2 .LASF2902
C:\Users\CYMR90~1\AppData\Local\Temp\ccYj4tTD.s:25619  .debug_str:0000000000015383 .LASF2903
C:\Users\CYMR90~1\AppData\Local\Temp\ccYj4tTD.s:21819  .debug_str:0000000000005f5b .LASF2904
C:\Users\CYMR90~1\AppData\Local\Temp\ccYj4tTD.s:28540  .debug_str:0000000000020fa3 .LASF2905
C:\Users\CYMR90~1\AppData\Local\Temp\ccYj4tTD.s:29928  .debug_str:0000000000026792 .LASF2906
C:\Users\CYMR90~1\AppData\Local\Temp\ccYj4tTD.s:31330  .debug_str:000000000002c0a8 .LASF2907
C:\Users\CYMR90~1\AppData\Local\Temp\ccYj4tTD.s:21343  .debug_str:00000000000041c4 .LASF2908
C:\Users\CYMR90~1\AppData\Local\Temp\ccYj4tTD.s:25053  .debug_str:0000000000012f64 .LASF2909
C:\Users\CYMR90~1\AppData\Local\Temp\ccYj4tTD.s:30428  .debug_str:00000000000288e3 .LASF2910
C:\Users\CYMR90~1\AppData\Local\Temp\ccYj4tTD.s:28364  .debug_str:00000000000204c3 .LASF2911
C:\Users\CYMR90~1\AppData\Local\Temp\ccYj4tTD.s:27264  .debug_str:000000000001bf47 .LASF2912
C:\Users\CYMR90~1\AppData\Local\Temp\ccYj4tTD.s:26842  .debug_str:000000000001a4ed .LASF2913
C:\Users\CYMR90~1\AppData\Local\Temp\ccYj4tTD.s:26762  .debug_str:0000000000019eb4 .LASF2914
C:\Users\CYMR90~1\AppData\Local\Temp\ccYj4tTD.s:28964  .debug_str:0000000000022963 .LASF2915
C:\Users\CYMR90~1\AppData\Local\Temp\ccYj4tTD.s:27260  .debug_str:000000000001bf1a .LASF2916
C:\Users\CYMR90~1\AppData\Local\Temp\ccYj4tTD.s:26404  .debug_str:00000000000186c5 .LASF2917
C:\Users\CYMR90~1\AppData\Local\Temp\ccYj4tTD.s:27786  .debug_str:000000000001e1e7 .LASF2918
C:\Users\CYMR90~1\AppData\Local\Temp\ccYj4tTD.s:24987  .debug_str:0000000000012b11 .LASF2919
C:\Users\CYMR90~1\AppData\Local\Temp\ccYj4tTD.s:23731  .debug_str:000000000000dbf2 .LASF2920
C:\Users\CYMR90~1\AppData\Local\Temp\ccYj4tTD.s:22861  .debug_str:000000000000a264 .LASF2921
C:\Users\CYMR90~1\AppData\Local\Temp\ccYj4tTD.s:21959  .debug_str:00000000000067c4 .LASF2922
C:\Users\CYMR90~1\AppData\Local\Temp\ccYj4tTD.s:21093  .debug_str:000000000000315a .LASF2923
C:\Users\CYMR90~1\AppData\Local\Temp\ccYj4tTD.s:31562  .debug_str:000000000002cf8e .LASF2924
C:\Users\CYMR90~1\AppData\Local\Temp\ccYj4tTD.s:30690  .debug_str:0000000000029940 .LASF2925
C:\Users\CYMR90~1\AppData\Local\Temp\ccYj4tTD.s:29422  .debug_str:0000000000024587 .LASF2926
C:\Users\CYMR90~1\AppData\Local\Temp\ccYj4tTD.s:21307  .debug_str:0000000000003f31 .LASF2927
C:\Users\CYMR90~1\AppData\Local\Temp\ccYj4tTD.s:24563  .debug_str:0000000000010f02 .LASF2928
C:\Users\CYMR90~1\AppData\Local\Temp\ccYj4tTD.s:27726  .debug_str:000000000001de35 .LASF2929
C:\Users\CYMR90~1\AppData\Local\Temp\ccYj4tTD.s:30980  .debug_str:000000000002aa32 .LASF2930
C:\Users\CYMR90~1\AppData\Local\Temp\ccYj4tTD.s:22881  .debug_str:000000000000a3d2 .LASF2931
C:\Users\CYMR90~1\AppData\Local\Temp\ccYj4tTD.s:29048  .debug_str:0000000000022e8d .LASF2932
C:\Users\CYMR90~1\AppData\Local\Temp\ccYj4tTD.s:31520  .debug_str:000000000002ccbe .LASF2933
C:\Users\CYMR90~1\AppData\Local\Temp\ccYj4tTD.s:24813  .debug_str:0000000000011fac .LASF2934
C:\Users\CYMR90~1\AppData\Local\Temp\ccYj4tTD.s:25677  .debug_str:00000000000156c2 .LASF2935
C:\Users\CYMR90~1\AppData\Local\Temp\ccYj4tTD.s:20901  .debug_str:00000000000024e2 .LASF2936
C:\Users\CYMR90~1\AppData\Local\Temp\ccYj4tTD.s:27508  .debug_str:000000000001d02d .LASF2937
C:\Users\CYMR90~1\AppData\Local\Temp\ccYj4tTD.s:26902  .debug_str:000000000001a8df .LASF2938
C:\Users\CYMR90~1\AppData\Local\Temp\ccYj4tTD.s:26940  .debug_str:000000000001ab3b .LASF2939
C:\Users\CYMR90~1\AppData\Local\Temp\ccYj4tTD.s:25899  .debug_str:00000000000164aa .LASF2940
C:\Users\CYMR90~1\AppData\Local\Temp\ccYj4tTD.s:23171  .debug_str:000000000000b779 .LASF2941
C:\Users\CYMR90~1\AppData\Local\Temp\ccYj4tTD.s:25291  .debug_str:0000000000013ec4 .LASF2942
C:\Users\CYMR90~1\AppData\Local\Temp\ccYj4tTD.s:29846  .debug_str:0000000000026279 .LASF2943
C:\Users\CYMR90~1\AppData\Local\Temp\ccYj4tTD.s:27098  .debug_str:000000000001b541 .LASF2944
C:\Users\CYMR90~1\AppData\Local\Temp\ccYj4tTD.s:21803  .debug_str:0000000000005e6c .LASF2945
C:\Users\CYMR90~1\AppData\Local\Temp\ccYj4tTD.s:23729  .debug_str:000000000000dbd0 .LASF2946
C:\Users\CYMR90~1\AppData\Local\Temp\ccYj4tTD.s:25601  .debug_str:000000000001528d .LASF2947
C:\Users\CYMR90~1\AppData\Local\Temp\ccYj4tTD.s:30214  .debug_str:0000000000027966 .LASF2948
C:\Users\CYMR90~1\AppData\Local\Temp\ccYj4tTD.s:23297  .debug_str:000000000000c03a .LASF2949
C:\Users\CYMR90~1\AppData\Local\Temp\ccYj4tTD.s:23853  .debug_str:000000000000e37a .LASF2950
C:\Users\CYMR90~1\AppData\Local\Temp\ccYj4tTD.s:27830  .debug_str:000000000001e46b .LASF2951
C:\Users\CYMR90~1\AppData\Local\Temp\ccYj4tTD.s:21563  .debug_str:0000000000005033 .LASF2952
C:\Users\CYMR90~1\AppData\Local\Temp\ccYj4tTD.s:31086  .debug_str:000000000002b06e .LASF2953
C:\Users\CYMR90~1\AppData\Local\Temp\ccYj4tTD.s:29278  .debug_str:0000000000023c34 .LASF2954
C:\Users\CYMR90~1\AppData\Local\Temp\ccYj4tTD.s:30084  .debug_str:00000000000270d2 .LASF2955
C:\Users\CYMR90~1\AppData\Local\Temp\ccYj4tTD.s:22001  .debug_str:0000000000006a45 .LASF2956
C:\Users\CYMR90~1\AppData\Local\Temp\ccYj4tTD.s:31594  .debug_str:000000000002d192 .LASF2957
C:\Users\CYMR90~1\AppData\Local\Temp\ccYj4tTD.s:21065  .debug_str:0000000000002f96 .LASF2958
C:\Users\CYMR90~1\AppData\Local\Temp\ccYj4tTD.s:20793  .debug_str:0000000000001f19 .LASF2959
C:\Users\CYMR90~1\AppData\Local\Temp\ccYj4tTD.s:27858  .debug_str:000000000001e616 .LASF2960
C:\Users\CYMR90~1\AppData\Local\Temp\ccYj4tTD.s:21043  .debug_str:0000000000002e36 .LASF2961
C:\Users\CYMR90~1\AppData\Local\Temp\ccYj4tTD.s:20343  .debug_str:000000000000034f .LASF2962
C:\Users\CYMR90~1\AppData\Local\Temp\ccYj4tTD.s:31376  .debug_str:000000000002c33d .LASF2963
C:\Users\CYMR90~1\AppData\Local\Temp\ccYj4tTD.s:29984  .debug_str:0000000000026ae2 .LASF2964
C:\Users\CYMR90~1\AppData\Local\Temp\ccYj4tTD.s:21789  .debug_str:0000000000005da7 .LASF2965
C:\Users\CYMR90~1\AppData\Local\Temp\ccYj4tTD.s:31058  .debug_str:000000000002aee6 .LASF2966
C:\Users\CYMR90~1\AppData\Local\Temp\ccYj4tTD.s:27424  .debug_str:000000000001c9c9 .LASF2967
C:\Users\CYMR90~1\AppData\Local\Temp\ccYj4tTD.s:28414  .debug_str:0000000000020841 .LASF2968
C:\Users\CYMR90~1\AppData\Local\Temp\ccYj4tTD.s:24223  .debug_str:000000000000fa47 .LASF2969
C:\Users\CYMR90~1\AppData\Local\Temp\ccYj4tTD.s:23365  .debug_str:000000000000c449 .LASF2970
C:\Users\CYMR90~1\AppData\Local\Temp\ccYj4tTD.s:27156  .debug_str:000000000001b8c9 .LASF2971
C:\Users\CYMR90~1\AppData\Local\Temp\ccYj4tTD.s:30388  .debug_str:000000000002860c .LASF2972
C:\Users\CYMR90~1\AppData\Local\Temp\ccYj4tTD.s:28814  .debug_str:0000000000022097 .LASF2973
C:\Users\CYMR90~1\AppData\Local\Temp\ccYj4tTD.s:29740  .debug_str:0000000000025bd8 .LASF2974
C:\Users\CYMR90~1\AppData\Local\Temp\ccYj4tTD.s:21395  .debug_str:000000000000450f .LASF2975
C:\Users\CYMR90~1\AppData\Local\Temp\ccYj4tTD.s:26244  .debug_str:0000000000017cdc .LASF2976
C:\Users\CYMR90~1\AppData\Local\Temp\ccYj4tTD.s:28718  .debug_str:0000000000021af4 .LASF2977
C:\Users\CYMR90~1\AppData\Local\Temp\ccYj4tTD.s:22273  .debug_str:0000000000007c59 .LASF2978
C:\Users\CYMR90~1\AppData\Local\Temp\ccYj4tTD.s:27602  .debug_str:000000000001d5a3 .LASF2979
C:\Users\CYMR90~1\AppData\Local\Temp\ccYj4tTD.s:23671  .debug_str:000000000000d89d .LASF2980
C:\Users\CYMR90~1\AppData\Local\Temp\ccYj4tTD.s:31150  .debug_str:000000000002b4b9 .LASF2981
C:\Users\CYMR90~1\AppData\Local\Temp\ccYj4tTD.s:26274  .debug_str:0000000000017ecd .LASF2982
C:\Users\CYMR90~1\AppData\Local\Temp\ccYj4tTD.s:21267  .debug_str:0000000000003c62 .LASF2983
C:\Users\CYMR90~1\AppData\Local\Temp\ccYj4tTD.s:26504  .debug_str:0000000000018d7b .LASF2984
C:\Users\CYMR90~1\AppData\Local\Temp\ccYj4tTD.s:20315  .debug_str:0000000000000180 .LASF2985
C:\Users\CYMR90~1\AppData\Local\Temp\ccYj4tTD.s:24047  .debug_str:000000000000ef04 .LASF2986
C:\Users\CYMR90~1\AppData\Local\Temp\ccYj4tTD.s:25503  .debug_str:0000000000014be8 .LASF2987
C:\Users\CYMR90~1\AppData\Local\Temp\ccYj4tTD.s:25403  .debug_str:00000000000145d8 .LASF2988
C:\Users\CYMR90~1\AppData\Local\Temp\ccYj4tTD.s:24073  .debug_str:000000000000f082 .LASF2989
C:\Users\CYMR90~1\AppData\Local\Temp\ccYj4tTD.s:23755  .debug_str:000000000000dd6d .LASF2990
C:\Users\CYMR90~1\AppData\Local\Temp\ccYj4tTD.s:29214  .debug_str:000000000002387e .LASF2991
C:\Users\CYMR90~1\AppData\Local\Temp\ccYj4tTD.s:26090  .debug_str:000000000001734a .LASF2992
C:\Users\CYMR90~1\AppData\Local\Temp\ccYj4tTD.s:25189  .debug_str:00000000000138a1 .LASF2993
C:\Users\CYMR90~1\AppData\Local\Temp\ccYj4tTD.s:22493  .debug_str:0000000000008b9b .LASF2994
C:\Users\CYMR90~1\AppData\Local\Temp\ccYj4tTD.s:30902  .debug_str:000000000002a572 .LASF2995
C:\Users\CYMR90~1\AppData\Local\Temp\ccYj4tTD.s:25501  .debug_str:0000000000014bca .LASF2996
C:\Users\CYMR90~1\AppData\Local\Temp\ccYj4tTD.s:25591  .debug_str:00000000000151c8 .LASF2997
C:\Users\CYMR90~1\AppData\Local\Temp\ccYj4tTD.s:21637  .debug_str:0000000000005498 .LASF2998
C:\Users\CYMR90~1\AppData\Local\Temp\ccYj4tTD.s:25773  .debug_str:0000000000015cd5 .LASF2999
C:\Users\CYMR90~1\AppData\Local\Temp\ccYj4tTD.s:28944  .debug_str:000000000002284a .LASF3000
C:\Users\CYMR90~1\AppData\Local\Temp\ccYj4tTD.s:24417  .debug_str:00000000000105ec .LASF3001
C:\Users\CYMR90~1\AppData\Local\Temp\ccYj4tTD.s:25751  .debug_str:0000000000015b31 .LASF3002
C:\Users\CYMR90~1\AppData\Local\Temp\ccYj4tTD.s:20443  .debug_str:0000000000000940 .LASF3003
C:\Users\CYMR90~1\AppData\Local\Temp\ccYj4tTD.s:28408  .debug_str:00000000000207c2 .LASF3004
C:\Users\CYMR90~1\AppData\Local\Temp\ccYj4tTD.s:31440  .debug_str:000000000002c782 .LASF3005
C:\Users\CYMR90~1\AppData\Local\Temp\ccYj4tTD.s:29338  .debug_str:0000000000023f48 .LASF3006
C:\Users\CYMR90~1\AppData\Local\Temp\ccYj4tTD.s:28714  .debug_str:0000000000021aa1 .LASF3007
C:\Users\CYMR90~1\AppData\Local\Temp\ccYj4tTD.s:21595  .debug_str:000000000000520d .LASF3008
C:\Users\CYMR90~1\AppData\Local\Temp\ccYj4tTD.s:31568  .debug_str:000000000002cfdc .LASF3009
C:\Users\CYMR90~1\AppData\Local\Temp\ccYj4tTD.s:23945  .debug_str:000000000000e91d .LASF3010
C:\Users\CYMR90~1\AppData\Local\Temp\ccYj4tTD.s:27276  .debug_str:000000000001c015 .LASF3011
C:\Users\CYMR90~1\AppData\Local\Temp\ccYj4tTD.s:20629  .debug_str:0000000000001495 .LASF3012
C:\Users\CYMR90~1\AppData\Local\Temp\ccYj4tTD.s:24541  .debug_str:0000000000010dd7 .LASF3013
C:\Users\CYMR90~1\AppData\Local\Temp\ccYj4tTD.s:23669  .debug_str:000000000000d884 .LASF3014
C:\Users\CYMR90~1\AppData\Local\Temp\ccYj4tTD.s:20819  .debug_str:0000000000002064 .LASF3015
C:\Users\CYMR90~1\AppData\Local\Temp\ccYj4tTD.s:27966  .debug_str:000000000001ec88 .LASF3016
C:\Users\CYMR90~1\AppData\Local\Temp\ccYj4tTD.s:23319  .debug_str:000000000000c1ae .LASF3017
C:\Users\CYMR90~1\AppData\Local\Temp\ccYj4tTD.s:22105  .debug_str:00000000000071b9 .LASF3018
C:\Users\CYMR90~1\AppData\Local\Temp\ccYj4tTD.s:26430  .debug_str:0000000000018835 .LASF3019
C:\Users\CYMR90~1\AppData\Local\Temp\ccYj4tTD.s:24269  .debug_str:000000000000fd2a .LASF3020
C:\Users\CYMR90~1\AppData\Local\Temp\ccYj4tTD.s:21051  .debug_str:0000000000002eb8 .LASF3021
C:\Users\CYMR90~1\AppData\Local\Temp\ccYj4tTD.s:23379  .debug_str:000000000000c537 .LASF3022
C:\Users\CYMR90~1\AppData\Local\Temp\ccYj4tTD.s:23877  .debug_str:000000000000e4cb .LASF3023
C:\Users\CYMR90~1\AppData\Local\Temp\ccYj4tTD.s:31180  .debug_str:000000000002b6bb .LASF3024
C:\Users\CYMR90~1\AppData\Local\Temp\ccYj4tTD.s:22075  .debug_str:0000000000006f20 .LASF3025
C:\Users\CYMR90~1\AppData\Local\Temp\ccYj4tTD.s:28296  .debug_str:00000000000200c4 .LASF3026
C:\Users\CYMR90~1\AppData\Local\Temp\ccYj4tTD.s:24257  .debug_str:000000000000fc57 .LASF3027
C:\Users\CYMR90~1\AppData\Local\Temp\ccYj4tTD.s:26102  .debug_str:000000000001740a .LASF3028
C:\Users\CYMR90~1\AppData\Local\Temp\ccYj4tTD.s:21549  .debug_str:0000000000004f5b .LASF3029
C:\Users\CYMR90~1\AppData\Local\Temp\ccYj4tTD.s:31108  .debug_str:000000000002b1b7 .LASF3030
C:\Users\CYMR90~1\AppData\Local\Temp\ccYj4tTD.s:23831  .debug_str:000000000000e208 .LASF3031
C:\Users\CYMR90~1\AppData\Local\Temp\ccYj4tTD.s:22935  .debug_str:000000000000a6c1 .LASF3032
C:\Users\CYMR90~1\AppData\Local\Temp\ccYj4tTD.s:29562  .debug_str:0000000000024ed9 .LASF3033
C:\Users\CYMR90~1\AppData\Local\Temp\ccYj4tTD.s:24001  .debug_str:000000000000ecc4 .LASF3034
C:\Users\CYMR90~1\AppData\Local\Temp\ccYj4tTD.s:23801  .debug_str:000000000000e069 .LASF3035
C:\Users\CYMR90~1\AppData\Local\Temp\ccYj4tTD.s:30314  .debug_str:0000000000028074 .LASF3036
C:\Users\CYMR90~1\AppData\Local\Temp\ccYj4tTD.s:22461  .debug_str:000000000000898c .LASF3037
C:\Users\CYMR90~1\AppData\Local\Temp\ccYj4tTD.s:31256  .debug_str:000000000002bbbf .LASF3038
C:\Users\CYMR90~1\AppData\Local\Temp\ccYj4tTD.s:30408  .debug_str:000000000002878b .LASF3039
C:\Users\CYMR90~1\AppData\Local\Temp\ccYj4tTD.s:20331  .debug_str:0000000000000262 .LASF3040
C:\Users\CYMR90~1\AppData\Local\Temp\ccYj4tTD.s:21315  .debug_str:0000000000003fb3 .LASF3041
C:\Users\CYMR90~1\AppData\Local\Temp\ccYj4tTD.s:27330  .debug_str:000000000001c36c .LASF3042
C:\Users\CYMR90~1\AppData\Local\Temp\ccYj4tTD.s:27136  .debug_str:000000000001b795 .LASF3043
C:\Users\CYMR90~1\AppData\Local\Temp\ccYj4tTD.s:29578  .debug_str:0000000000024fc5 .LASF3044
C:\Users\CYMR90~1\AppData\Local\Temp\ccYj4tTD.s:23675  .debug_str:000000000000d8e1 .LASF3045
C:\Users\CYMR90~1\AppData\Local\Temp\ccYj4tTD.s:26750  .debug_str:0000000000019e21 .LASF3046
C:\Users\CYMR90~1\AppData\Local\Temp\ccYj4tTD.s:20569  .debug_str:000000000000116d .LASF3047
C:\Users\CYMR90~1\AppData\Local\Temp\ccYj4tTD.s:24045  .debug_str:000000000000eeea .LASF3048
C:\Users\CYMR90~1\AppData\Local\Temp\ccYj4tTD.s:27334  .debug_str:000000000001c39b .LASF3049
C:\Users\CYMR90~1\AppData\Local\Temp\ccYj4tTD.s:30694  .debug_str:000000000002995f .LASF3050
C:\Users\CYMR90~1\AppData\Local\Temp\ccYj4tTD.s:20705  .debug_str:00000000000019b4 .LASF3051
C:\Users\CYMR90~1\AppData\Local\Temp\ccYj4tTD.s:22787  .debug_str:0000000000009db1 .LASF3052
C:\Users\CYMR90~1\AppData\Local\Temp\ccYj4tTD.s:30114  .debug_str:000000000002737d .LASF3053
C:\Users\CYMR90~1\AppData\Local\Temp\ccYj4tTD.s:22349  .debug_str:000000000000829a .LASF3054
C:\Users\CYMR90~1\AppData\Local\Temp\ccYj4tTD.s:23837  .debug_str:000000000000e281 .LASF3055
C:\Users\CYMR90~1\AppData\Local\Temp\ccYj4tTD.s:29340  .debug_str:0000000000023f74 .LASF3056
C:\Users\CYMR90~1\AppData\Local\Temp\ccYj4tTD.s:26680  .debug_str:00000000000199a4 .LASF3057
C:\Users\CYMR90~1\AppData\Local\Temp\ccYj4tTD.s:22739  .debug_str:0000000000009ae8 .LASF3058
C:\Users\CYMR90~1\AppData\Local\Temp\ccYj4tTD.s:28084  .debug_str:000000000001f3cc .LASF3059
C:\Users\CYMR90~1\AppData\Local\Temp\ccYj4tTD.s:22321  .debug_str:0000000000008027 .LASF3060
C:\Users\CYMR90~1\AppData\Local\Temp\ccYj4tTD.s:30300  .debug_str:0000000000027f4b .LASF3061
C:\Users\CYMR90~1\AppData\Local\Temp\ccYj4tTD.s:29964  .debug_str:00000000000269a5 .LASF3062
C:\Users\CYMR90~1\AppData\Local\Temp\ccYj4tTD.s:24635  .debug_str:000000000001134a .LASF3063
C:\Users\CYMR90~1\AppData\Local\Temp\ccYj4tTD.s:29470  .debug_str:0000000000024918 .LASF3064
C:\Users\CYMR90~1\AppData\Local\Temp\ccYj4tTD.s:28542  .debug_str:0000000000020fc3 .LASF3065
C:\Users\CYMR90~1\AppData\Local\Temp\ccYj4tTD.s:24527  .debug_str:0000000000010d25 .LASF3066
C:\Users\CYMR90~1\AppData\Local\Temp\ccYj4tTD.s:30054  .debug_str:0000000000026f40 .LASF3067
C:\Users\CYMR90~1\AppData\Local\Temp\ccYj4tTD.s:29218  .debug_str:00000000000238bb .LASF3068
C:\Users\CYMR90~1\AppData\Local\Temp\ccYj4tTD.s:26050  .debug_str:0000000000017111 .LASF3069
C:\Users\CYMR90~1\AppData\Local\Temp\ccYj4tTD.s:25791  .debug_str:0000000000015e28 .LASF3070
C:\Users\CYMR90~1\AppData\Local\Temp\ccYj4tTD.s:28040  .debug_str:000000000001f124 .LASF3071
C:\Users\CYMR90~1\AppData\Local\Temp\ccYj4tTD.s:24487  .debug_str:0000000000010a6b .LASF3072
C:\Users\CYMR90~1\AppData\Local\Temp\ccYj4tTD.s:24611  .debug_str:00000000000111fb .LASF3073
C:\Users\CYMR90~1\AppData\Local\Temp\ccYj4tTD.s:24017  .debug_str:000000000000ed93 .LASF3074
C:\Users\CYMR90~1\AppData\Local\Temp\ccYj4tTD.s:24151  .debug_str:000000000000f56e .LASF3075
C:\Users\CYMR90~1\AppData\Local\Temp\ccYj4tTD.s:27774  .debug_str:000000000001e134 .LASF3076
C:\Users\CYMR90~1\AppData\Local\Temp\ccYj4tTD.s:30426  .debug_str:00000000000288ca .LASF3077
C:\Users\CYMR90~1\AppData\Local\Temp\ccYj4tTD.s:25913  .debug_str:000000000001660e .LASF3078
C:\Users\CYMR90~1\AppData\Local\Temp\ccYj4tTD.s:29334  .debug_str:0000000000023f19 .LASF3079
C:\Users\CYMR90~1\AppData\Local\Temp\ccYj4tTD.s:20853  .debug_str:0000000000002233 .LASF3080
C:\Users\CYMR90~1\AppData\Local\Temp\ccYj4tTD.s:22097  .debug_str:0000000000007111 .LASF3081
C:\Users\CYMR90~1\AppData\Local\Temp\ccYj4tTD.s:30476  .debug_str:0000000000028bc5 .LASF3082
C:\Users\CYMR90~1\AppData\Local\Temp\ccYj4tTD.s:22839  .debug_str:000000000000a102 .LASF3083
C:\Users\CYMR90~1\AppData\Local\Temp\ccYj4tTD.s:25295  .debug_str:0000000000013efa .LASF3084
C:\Users\CYMR90~1\AppData\Local\Temp\ccYj4tTD.s:23977  .debug_str:000000000000eb34 .LASF3085
C:\Users\CYMR90~1\AppData\Local\Temp\ccYj4tTD.s:25641  .debug_str:00000000000154d3 .LASF3086
C:\Users\CYMR90~1\AppData\Local\Temp\ccYj4tTD.s:28484  .debug_str:0000000000020c92 .LASF3087
C:\Users\CYMR90~1\AppData\Local\Temp\ccYj4tTD.s:26402  .debug_str:0000000000018676 .LASF3088
C:\Users\CYMR90~1\AppData\Local\Temp\ccYj4tTD.s:28342  .debug_str:0000000000020329 .LASF3089
C:\Users\CYMR90~1\AppData\Local\Temp\ccYj4tTD.s:30502  .debug_str:0000000000028d0b .LASF3090
C:\Users\CYMR90~1\AppData\Local\Temp\ccYj4tTD.s:28992  .debug_str:0000000000022b0f .LASF3091
C:\Users\CYMR90~1\AppData\Local\Temp\ccYj4tTD.s:23391  .debug_str:000000000000c5e6 .LASF3092
C:\Users\CYMR90~1\AppData\Local\Temp\ccYj4tTD.s:31388  .debug_str:000000000002c464 .LASF3093
C:\Users\CYMR90~1\AppData\Local\Temp\ccYj4tTD.s:28132  .debug_str:000000000001f695 .LASF3094
C:\Users\CYMR90~1\AppData\Local\Temp\ccYj4tTD.s:30096  .debug_str:00000000000271ad .LASF3095
C:\Users\CYMR90~1\AppData\Local\Temp\ccYj4tTD.s:29834  .debug_str:00000000000261e9 .LASF3096
C:\Users\CYMR90~1\AppData\Local\Temp\ccYj4tTD.s:23295  .debug_str:000000000000c012 .LASF3097
C:\Users\CYMR90~1\AppData\Local\Temp\ccYj4tTD.s:25689  .debug_str:0000000000015763 .LASF3098
C:\Users\CYMR90~1\AppData\Local\Temp\ccYj4tTD.s:25593  .debug_str:00000000000151f3 .LASF3099
C:\Users\CYMR90~1\AppData\Local\Temp\ccYj4tTD.s:26494  .debug_str:0000000000018cf9 .LASF3100
C:\Users\CYMR90~1\AppData\Local\Temp\ccYj4tTD.s:28168  .debug_str:000000000001f8bb .LASF3101
C:\Users\CYMR90~1\AppData\Local\Temp\ccYj4tTD.s:28680  .debug_str:0000000000021890 .LASF3102
C:\Users\CYMR90~1\AppData\Local\Temp\ccYj4tTD.s:31524  .debug_str:000000000002cce2 .LASF3103
C:\Users\CYMR90~1\AppData\Local\Temp\ccYj4tTD.s:24205  .debug_str:000000000000f940 .LASF3104
C:\Users\CYMR90~1\AppData\Local\Temp\ccYj4tTD.s:21063  .debug_str:0000000000002f6a .LASF3105
C:\Users\CYMR90~1\AppData\Local\Temp\ccYj4tTD.s:24063  .debug_str:000000000000effb .LASF3106
C:\Users\CYMR90~1\AppData\Local\Temp\ccYj4tTD.s:28366  .debug_str:00000000000204e8 .LASF3107
C:\Users\CYMR90~1\AppData\Local\Temp\ccYj4tTD.s:25665  .debug_str:000000000001560d .LASF3108
C:\Users\CYMR90~1\AppData\Local\Temp\ccYj4tTD.s:24681  .debug_str:0000000000011669 .LASF3109
C:\Users\CYMR90~1\AppData\Local\Temp\ccYj4tTD.s:27272  .debug_str:000000000001bfde .LASF3110
C:\Users\CYMR90~1\AppData\Local\Temp\ccYj4tTD.s:26308  .debug_str:00000000000180a3 .LASF3111
C:\Users\CYMR90~1\AppData\Local\Temp\ccYj4tTD.s:28202  .debug_str:000000000001faeb .LASF3112
C:\Users\CYMR90~1\AppData\Local\Temp\ccYj4tTD.s:24489  .debug_str:0000000000010a83 .LASF3113
C:\Users\CYMR90~1\AppData\Local\Temp\ccYj4tTD.s:30358  .debug_str:00000000000283f8 .LASF3114
C:\Users\CYMR90~1\AppData\Local\Temp\ccYj4tTD.s:22563  .debug_str:0000000000008ffd .LASF3115
C:\Users\CYMR90~1\AppData\Local\Temp\ccYj4tTD.s:21645  .debug_str:0000000000005536 .LASF3116
C:\Users\CYMR90~1\AppData\Local\Temp\ccYj4tTD.s:20689  .debug_str:00000000000018c9 .LASF3117
C:\Users\CYMR90~1\AppData\Local\Temp\ccYj4tTD.s:31070  .debug_str:000000000002afa2 .LASF3118
C:\Users\CYMR90~1\AppData\Local\Temp\ccYj4tTD.s:28628  .debug_str:0000000000021568 .LASF3119
C:\Users\CYMR90~1\AppData\Local\Temp\ccYj4tTD.s:27664  .debug_str:000000000001d9f3 .LASF3120
C:\Users\CYMR90~1\AppData\Local\Temp\ccYj4tTD.s:26834  .debug_str:000000000001a2da .LASF3121
C:\Users\CYMR90~1\AppData\Local\Temp\ccYj4tTD.s:25833  .debug_str:0000000000016108 .LASF3122
C:\Users\CYMR90~1\AppData\Local\Temp\ccYj4tTD.s:24901  .debug_str:000000000001254f .LASF3123
C:\Users\CYMR90~1\AppData\Local\Temp\ccYj4tTD.s:23937  .debug_str:000000000000e8ac .LASF3124
C:\Users\CYMR90~1\AppData\Local\Temp\ccYj4tTD.s:24079  .debug_str:000000000000f0db .LASF3125
C:\Users\CYMR90~1\AppData\Local\Temp\ccYj4tTD.s:30046  .debug_str:0000000000026eab .LASF3126
C:\Users\CYMR90~1\AppData\Local\Temp\ccYj4tTD.s:29830  .debug_str:00000000000261b1 .LASF3127
C:\Users\CYMR90~1\AppData\Local\Temp\ccYj4tTD.s:24393  .debug_str:000000000001048a .LASF3128
C:\Users\CYMR90~1\AppData\Local\Temp\ccYj4tTD.s:23253  .debug_str:000000000000bce5 .LASF3129
C:\Users\CYMR90~1\AppData\Local\Temp\ccYj4tTD.s:22151  .debug_str:00000000000074ce .LASF3130
C:\Users\CYMR90~1\AppData\Local\Temp\ccYj4tTD.s:27500  .debug_str:000000000001cf14 .LASF3131
C:\Users\CYMR90~1\AppData\Local\Temp\ccYj4tTD.s:29110  .debug_str:00000000000231cb .LASF3132
C:\Users\CYMR90~1\AppData\Local\Temp\ccYj4tTD.s:23427  .debug_str:000000000000c892 .LASF3133
C:\Users\CYMR90~1\AppData\Local\Temp\ccYj4tTD.s:21713  .debug_str:0000000000005919 .LASF3134
C:\Users\CYMR90~1\AppData\Local\Temp\ccYj4tTD.s:21497  .debug_str:0000000000004c3f .LASF3135
C:\Users\CYMR90~1\AppData\Local\Temp\ccYj4tTD.s:20655  .debug_str:000000000000160b .LASF3136
C:\Users\CYMR90~1\AppData\Local\Temp\ccYj4tTD.s:25929  .debug_str:0000000000016709 .LASF3137
C:\Users\CYMR90~1\AppData\Local\Temp\ccYj4tTD.s:20997  .debug_str:0000000000002b5a .LASF3138
C:\Users\CYMR90~1\AppData\Local\Temp\ccYj4tTD.s:31464  .debug_str:000000000002c934 .LASF3139
C:\Users\CYMR90~1\AppData\Local\Temp\ccYj4tTD.s:30398  .debug_str:00000000000286bd .LASF3140
C:\Users\CYMR90~1\AppData\Local\Temp\ccYj4tTD.s:21467  .debug_str:0000000000004a66 .LASF3141
C:\Users\CYMR90~1\AppData\Local\Temp\ccYj4tTD.s:27252  .debug_str:000000000001be93 .LASF3142
C:\Users\CYMR90~1\AppData\Local\Temp\ccYj4tTD.s:24493  .debug_str:0000000000010ac8 .LASF3143
C:\Users\CYMR90~1\AppData\Local\Temp\ccYj4tTD.s:27552  .debug_str:000000000001d2b3 .LASF3144
C:\Users\CYMR90~1\AppData\Local\Temp\ccYj4tTD.s:20385  .debug_str:00000000000005cc .LASF3145
C:\Users\CYMR90~1\AppData\Local\Temp\ccYj4tTD.s:25075  .debug_str:00000000000130ef .LASF3146
C:\Users\CYMR90~1\AppData\Local\Temp\ccYj4tTD.s:29778  .debug_str:0000000000025e2b .LASF3147
C:\Users\CYMR90~1\AppData\Local\Temp\ccYj4tTD.s:24983  .debug_str:0000000000012add .LASF3148
C:\Users\CYMR90~1\AppData\Local\Temp\ccYj4tTD.s:21865  .debug_str:000000000000623e .LASF3149
C:\Users\CYMR90~1\AppData\Local\Temp\ccYj4tTD.s:26272  .debug_str:0000000000017eb5 .LASF3150
C:\Users\CYMR90~1\AppData\Local\Temp\ccYj4tTD.s:24741  .debug_str:0000000000011b35 .LASF3151
C:\Users\CYMR90~1\AppData\Local\Temp\ccYj4tTD.s:23293  .debug_str:000000000000bff6 .LASF3152
C:\Users\CYMR90~1\AppData\Local\Temp\ccYj4tTD.s:27122  .debug_str:000000000001b6a6 .LASF3153
C:\Users\CYMR90~1\AppData\Local\Temp\ccYj4tTD.s:23645  .debug_str:000000000000d73d .LASF3154
C:\Users\CYMR90~1\AppData\Local\Temp\ccYj4tTD.s:22629  .debug_str:00000000000093c7 .LASF3155
C:\Users\CYMR90~1\AppData\Local\Temp\ccYj4tTD.s:29480  .debug_str:000000000002498d .LASF3156
C:\Users\CYMR90~1\AppData\Local\Temp\ccYj4tTD.s:24785  .debug_str:0000000000011dc2 .LASF3157
C:\Users\CYMR90~1\AppData\Local\Temp\ccYj4tTD.s:29080  .debug_str:0000000000023054 .LASF3158
C:\Users\CYMR90~1\AppData\Local\Temp\ccYj4tTD.s:22961  .debug_str:000000000000a961 .LASF3159
C:\Users\CYMR90~1\AppData\Local\Temp\ccYj4tTD.s:26696  .debug_str:0000000000019ac8 .LASF3160
C:\Users\CYMR90~1\AppData\Local\Temp\ccYj4tTD.s:30008  .debug_str:0000000000026c30 .LASF3161
C:\Users\CYMR90~1\AppData\Local\Temp\ccYj4tTD.s:23673  .debug_str:000000000000d8bc .LASF3162
C:\Users\CYMR90~1\AppData\Local\Temp\ccYj4tTD.s:21761  .debug_str:0000000000005c2a .LASF3163
C:\Users\CYMR90~1\AppData\Local\Temp\ccYj4tTD.s:23277  .debug_str:000000000000beca .LASF3164
C:\Users\CYMR90~1\AppData\Local\Temp\ccYj4tTD.s:22059  .debug_str:0000000000006e43 .LASF3165
C:\Users\CYMR90~1\AppData\Local\Temp\ccYj4tTD.s:23965  .debug_str:000000000000ea91 .LASF3166
C:\Users\CYMR90~1\AppData\Local\Temp\ccYj4tTD.s:20529  .debug_str:0000000000000f32 .LASF3167
C:\Users\CYMR90~1\AppData\Local\Temp\ccYj4tTD.s:31204  .debug_str:000000000002b840 .LASF3168
C:\Users\CYMR90~1\AppData\Local\Temp\ccYj4tTD.s:30800  .debug_str:0000000000029f8a .LASF3169
C:\Users\CYMR90~1\AppData\Local\Temp\ccYj4tTD.s:28214  .debug_str:000000000001fba9 .LASF3170
C:\Users\CYMR90~1\AppData\Local\Temp\ccYj4tTD.s:29332  .debug_str:0000000000023f01 .LASF3171
C:\Users\CYMR90~1\AppData\Local\Temp\ccYj4tTD.s:27790  .debug_str:000000000001e21d .LASF3172
C:\Users\CYMR90~1\AppData\Local\Temp\ccYj4tTD.s:28174  .debug_str:000000000001f905 .LASF3173
C:\Users\CYMR90~1\AppData\Local\Temp\ccYj4tTD.s:30156  .debug_str:0000000000027605 .LASF3174
C:\Users\CYMR90~1\AppData\Local\Temp\ccYj4tTD.s:25371  .debug_str:00000000000143a9 .LASF3175
C:\Users\CYMR90~1\AppData\Local\Temp\ccYj4tTD.s:25935  .debug_str:0000000000016764 .LASF3176
C:\Users\CYMR90~1\AppData\Local\Temp\ccYj4tTD.s:20785  .debug_str:0000000000001e9c .LASF3177
C:\Users\CYMR90~1\AppData\Local\Temp\ccYj4tTD.s:28160  .debug_str:000000000001f81d .LASF3178
C:\Users\CYMR90~1\AppData\Local\Temp\ccYj4tTD.s:28110  .debug_str:000000000001f54d .LASF3179
C:\Users\CYMR90~1\AppData\Local\Temp\ccYj4tTD.s:27226  .debug_str:000000000001bcc4 .LASF3180
C:\Users\CYMR90~1\AppData\Local\Temp\ccYj4tTD.s:20955  .debug_str:0000000000002899 .LASF3181
C:\Users\CYMR90~1\AppData\Local\Temp\ccYj4tTD.s:29646  .debug_str:0000000000025533 .LASF3182
C:\Users\CYMR90~1\AppData\Local\Temp\ccYj4tTD.s:23563  .debug_str:000000000000d13c .LASF3183
C:\Users\CYMR90~1\AppData\Local\Temp\ccYj4tTD.s:21313  .debug_str:0000000000003f8d .LASF3184
C:\Users\CYMR90~1\AppData\Local\Temp\ccYj4tTD.s:21047  .debug_str:0000000000002e6d .LASF3185
C:\Users\CYMR90~1\AppData\Local\Temp\ccYj4tTD.s:22457  .debug_str:0000000000008952 .LASF3186
C:\Users\CYMR90~1\AppData\Local\Temp\ccYj4tTD.s:27780  .debug_str:000000000001e17f .LASF3187
C:\Users\CYMR90~1\AppData\Local\Temp\ccYj4tTD.s:28916  .debug_str:0000000000022677 .LASF3188
C:\Users\CYMR90~1\AppData\Local\Temp\ccYj4tTD.s:22831  .debug_str:000000000000a08f .LASF3189
C:\Users\CYMR90~1\AppData\Local\Temp\ccYj4tTD.s:23761  .debug_str:000000000000ddbe .LASF3190
C:\Users\CYMR90~1\AppData\Local\Temp\ccYj4tTD.s:25731  .debug_str:0000000000015a01 .LASF3191
C:\Users\CYMR90~1\AppData\Local\Temp\ccYj4tTD.s:21877  .debug_str:00000000000062e9 .LASF3192
C:\Users\CYMR90~1\AppData\Local\Temp\ccYj4tTD.s:27014  .debug_str:000000000001b00e .LASF3193
C:\Users\CYMR90~1\AppData\Local\Temp\ccYj4tTD.s:26654  .debug_str:000000000001976e .LASF3194
C:\Users\CYMR90~1\AppData\Local\Temp\ccYj4tTD.s:23285  .debug_str:000000000000bf4e .LASF3195
C:\Users\CYMR90~1\AppData\Local\Temp\ccYj4tTD.s:28370  .debug_str:000000000002052a .LASF3196
C:\Users\CYMR90~1\AppData\Local\Temp\ccYj4tTD.s:26206  .debug_str:0000000000017a9e .LASF3197
C:\Users\CYMR90~1\AppData\Local\Temp\ccYj4tTD.s:30392  .debug_str:000000000002864b .LASF3198
C:\Users\CYMR90~1\AppData\Local\Temp\ccYj4tTD.s:27884  .debug_str:000000000001e7b5 .LASF3199
C:\Users\CYMR90~1\AppData\Local\Temp\ccYj4tTD.s:27204  .debug_str:000000000001bb24 .LASF3200
C:\Users\CYMR90~1\AppData\Local\Temp\ccYj4tTD.s:30272  .debug_str:0000000000027d73 .LASF3201
C:\Users\CYMR90~1\AppData\Local\Temp\ccYj4tTD.s:20811  .debug_str:0000000000002007 .LASF3202
C:\Users\CYMR90~1\AppData\Local\Temp\ccYj4tTD.s:23991  .debug_str:000000000000ec2b .LASF3203
C:\Users\CYMR90~1\AppData\Local\Temp\ccYj4tTD.s:24033  .debug_str:000000000000ee54 .LASF3204
C:\Users\CYMR90~1\AppData\Local\Temp\ccYj4tTD.s:29916  .debug_str:00000000000266b4 .LASF3205
C:\Users\CYMR90~1\AppData\Local\Temp\ccYj4tTD.s:30276  .debug_str:0000000000027db2 .LASF3206
C:\Users\CYMR90~1\AppData\Local\Temp\ccYj4tTD.s:26298  .debug_str:0000000000018027 .LASF3207
C:\Users\CYMR90~1\AppData\Local\Temp\ccYj4tTD.s:29026  .debug_str:0000000000022d6e .LASF3208
C:\Users\CYMR90~1\AppData\Local\Temp\ccYj4tTD.s:20645  .debug_str:0000000000001550 .LASF3209
C:\Users\CYMR90~1\AppData\Local\Temp\ccYj4tTD.s:20949  .debug_str:000000000000283d .LASF3210
C:\Users\CYMR90~1\AppData\Local\Temp\ccYj4tTD.s:30876  .debug_str:000000000002a3b9 .LASF3211
C:\Users\CYMR90~1\AppData\Local\Temp\ccYj4tTD.s:21849  .debug_str:0000000000006171 .LASF3212
C:\Users\CYMR90~1\AppData\Local\Temp\ccYj4tTD.s:25079  .debug_str:0000000000013131 .LASF3213
C:\Users\CYMR90~1\AppData\Local\Temp\ccYj4tTD.s:23635  .debug_str:000000000000d685 .LASF3214
C:\Users\CYMR90~1\AppData\Local\Temp\ccYj4tTD.s:28590  .debug_str:0000000000021265 .LASF3215
C:\Users\CYMR90~1\AppData\Local\Temp\ccYj4tTD.s:26664  .debug_str:0000000000019853 .LASF3216
C:\Users\CYMR90~1\AppData\Local\Temp\ccYj4tTD.s:22809  .debug_str:0000000000009f0f .LASF3217
C:\Users\CYMR90~1\AppData\Local\Temp\ccYj4tTD.s:22567  .debug_str:000000000000903a .LASF3218
C:\Users\CYMR90~1\AppData\Local\Temp\ccYj4tTD.s:23155  .debug_str:000000000000b637 .LASF3219
C:\Users\CYMR90~1\AppData\Local\Temp\ccYj4tTD.s:21389  .debug_str:00000000000044a0 .LASF3220
C:\Users\CYMR90~1\AppData\Local\Temp\ccYj4tTD.s:24511  .debug_str:0000000000010c5e .LASF3221
C:\Users\CYMR90~1\AppData\Local\Temp\ccYj4tTD.s:26188  .debug_str:00000000000179a0 .LASF3222
C:\Users\CYMR90~1\AppData\Local\Temp\ccYj4tTD.s:22433  .debug_str:0000000000008793 .LASF3223
C:\Users\CYMR90~1\AppData\Local\Temp\ccYj4tTD.s:23231  .debug_str:000000000000bb3b .LASF3224
C:\Users\CYMR90~1\AppData\Local\Temp\ccYj4tTD.s:23181  .debug_str:000000000000b829 .LASF3225
C:\Users\CYMR90~1\AppData\Local\Temp\ccYj4tTD.s:26094  .debug_str:0000000000017385 .LASF3226
C:\Users\CYMR90~1\AppData\Local\Temp\ccYj4tTD.s:30004  .debug_str:0000000000026bf7 .LASF3227
C:\Users\CYMR90~1\AppData\Local\Temp\ccYj4tTD.s:22911  .debug_str:000000000000a576 .LASF3228
C:\Users\CYMR90~1\AppData\Local\Temp\ccYj4tTD.s:20925  .debug_str:0000000000002688 .LASF3229
C:\Users\CYMR90~1\AppData\Local\Temp\ccYj4tTD.s:27912  .debug_str:000000000001e975 .LASF3230
C:\Users\CYMR90~1\AppData\Local\Temp\ccYj4tTD.s:20611  .debug_str:0000000000001394 .LASF3231
C:\Users\CYMR90~1\AppData\Local\Temp\ccYj4tTD.s:26478  .debug_str:0000000000018b5a .LASF3232
C:\Users\CYMR90~1\AppData\Local\Temp\ccYj4tTD.s:20717  .debug_str:0000000000001a70 .LASF3233
C:\Users\CYMR90~1\AppData\Local\Temp\ccYj4tTD.s:31476  .debug_str:000000000002ca13 .LASF3234
C:\Users\CYMR90~1\AppData\Local\Temp\ccYj4tTD.s:25647  .debug_str:0000000000015511 .LASF3235
C:\Users\CYMR90~1\AppData\Local\Temp\ccYj4tTD.s:29428  .debug_str:00000000000245fc .LASF3236
C:\Users\CYMR90~1\AppData\Local\Temp\ccYj4tTD.s:22845  .debug_str:000000000000a163 .LASF3237
C:\Users\CYMR90~1\AppData\Local\Temp\ccYj4tTD.s:20743  .debug_str:0000000000001c1c .LASF3238
C:\Users\CYMR90~1\AppData\Local\Temp\ccYj4tTD.s:21871  .debug_str:00000000000062ac .LASF3239
C:\Users\CYMR90~1\AppData\Local\Temp\ccYj4tTD.s:27086  .debug_str:000000000001b487 .LASF3240
C:\Users\CYMR90~1\AppData\Local\Temp\ccYj4tTD.s:25193  .debug_str:00000000000138eb .LASF3241
C:\Users\CYMR90~1\AppData\Local\Temp\ccYj4tTD.s:22573  .debug_str:000000000000909d .LASF3242
C:\Users\CYMR90~1\AppData\Local\Temp\ccYj4tTD.s:21625  .debug_str:00000000000053f1 .LASF3243
C:\Users\CYMR90~1\AppData\Local\Temp\ccYj4tTD.s:30966  .debug_str:000000000002a975 .LASF3244
C:\Users\CYMR90~1\AppData\Local\Temp\ccYj4tTD.s:23303  .debug_str:000000000000c082 .LASF3245
C:\Users\CYMR90~1\AppData\Local\Temp\ccYj4tTD.s:20963  .debug_str:0000000000002914 .LASF3246
C:\Users\CYMR90~1\AppData\Local\Temp\ccYj4tTD.s:28876  .debug_str:000000000002241f .LASF3247
C:\Users\CYMR90~1\AppData\Local\Temp\ccYj4tTD.s:25555  .debug_str:0000000000014f92 .LASF3248
C:\Users\CYMR90~1\AppData\Local\Temp\ccYj4tTD.s:22147  .debug_str:0000000000007487 .LASF3249
C:\Users\CYMR90~1\AppData\Local\Temp\ccYj4tTD.s:27068  .debug_str:000000000001b394 .LASF3250
C:\Users\CYMR90~1\AppData\Local\Temp\ccYj4tTD.s:21759  .debug_str:0000000000005c0b .LASF3251
C:\Users\CYMR90~1\AppData\Local\Temp\ccYj4tTD.s:22663  .debug_str:0000000000009619 .LASF3252
C:\Users\CYMR90~1\AppData\Local\Temp\ccYj4tTD.s:24919  .debug_str:000000000001268e .LASF3253
C:\Users\CYMR90~1\AppData\Local\Temp\ccYj4tTD.s:28894  .debug_str:0000000000022510 .LASF3254
C:\Users\CYMR90~1\AppData\Local\Temp\ccYj4tTD.s:30260  .debug_str:0000000000027c8b .LASF3255
C:\Users\CYMR90~1\AppData\Local\Temp\ccYj4tTD.s:26288  .debug_str:0000000000017f9b .LASF3256
C:\Users\CYMR90~1\AppData\Local\Temp\ccYj4tTD.s:24149  .debug_str:000000000000f54e .LASF3257
C:\Users\CYMR90~1\AppData\Local\Temp\ccYj4tTD.s:28892  .debug_str:00000000000224f7 .LASF3258
C:\Users\CYMR90~1\AppData\Local\Temp\ccYj4tTD.s:30704  .debug_str:00000000000299d4 .LASF3259
C:\Users\CYMR90~1\AppData\Local\Temp\ccYj4tTD.s:26928  .debug_str:000000000001aa5d .LASF3260
C:\Users\CYMR90~1\AppData\Local\Temp\ccYj4tTD.s:22013  .debug_str:0000000000006b14 .LASF3261
C:\Users\CYMR90~1\AppData\Local\Temp\ccYj4tTD.s:21631  .debug_str:0000000000005435 .LASF3262
C:\Users\CYMR90~1\AppData\Local\Temp\ccYj4tTD.s:27828  .debug_str:000000000001e44e .LASF3263
C:\Users\CYMR90~1\AppData\Local\Temp\ccYj4tTD.s:23857  .debug_str:000000000000e39d .LASF3264
C:\Users\CYMR90~1\AppData\Local\Temp\ccYj4tTD.s:29098  .debug_str:000000000002311d .LASF3265
C:\Users\CYMR90~1\AppData\Local\Temp\ccYj4tTD.s:26146  .debug_str:00000000000176ba .LASF3266
C:\Users\CYMR90~1\AppData\Local\Temp\ccYj4tTD.s:29544  .debug_str:0000000000024dad .LASF3267
C:\Users\CYMR90~1\AppData\Local\Temp\ccYj4tTD.s:28932  .debug_str:0000000000022795 .LASF3268
C:\Users\CYMR90~1\AppData\Local\Temp\ccYj4tTD.s:31352  .debug_str:000000000002c1fd .LASF3269
C:\Users\CYMR90~1\AppData\Local\Temp\ccYj4tTD.s:31140  .debug_str:000000000002b405 .LASF3270
C:\Users\CYMR90~1\AppData\Local\Temp\ccYj4tTD.s:31446  .debug_str:000000000002c7ea .LASF3271
C:\Users\CYMR90~1\AppData\Local\Temp\ccYj4tTD.s:29850  .debug_str:00000000000262b6 .LASF3272
C:\Users\CYMR90~1\AppData\Local\Temp\ccYj4tTD.s:21273  .debug_str:0000000000003cd5 .LASF3273
C:\Users\CYMR90~1\AppData\Local\Temp\ccYj4tTD.s:24081  .debug_str:000000000000f10a .LASF3274
C:\Users\CYMR90~1\AppData\Local\Temp\ccYj4tTD.s:21243  .debug_str:0000000000003b01 .LASF3275
C:\Users\CYMR90~1\AppData\Local\Temp\ccYj4tTD.s:24623  .debug_str:000000000001129b .LASF3276
C:\Users\CYMR90~1\AppData\Local\Temp\ccYj4tTD.s:24447  .debug_str:00000000000107b5 .LASF3277
C:\Users\CYMR90~1\AppData\Local\Temp\ccYj4tTD.s:21983  .debug_str:000000000000692d .LASF3278
C:\Users\CYMR90~1\AppData\Local\Temp\ccYj4tTD.s:24835  .debug_str:0000000000012148 .LASF3279
C:\Users\CYMR90~1\AppData\Local\Temp\ccYj4tTD.s:24491  .debug_str:0000000000010aab .LASF3280
C:\Users\CYMR90~1\AppData\Local\Temp\ccYj4tTD.s:22231  .debug_str:00000000000079b2 .LASF3281
C:\Users\CYMR90~1\AppData\Local\Temp\ccYj4tTD.s:22917  .debug_str:000000000000a5c0 .LASF3282
C:\Users\CYMR90~1\AppData\Local\Temp\ccYj4tTD.s:25315  .debug_str:000000000001405d .LASF3283
C:\Users\CYMR90~1\AppData\Local\Temp\ccYj4tTD.s:27836  .debug_str:000000000001e4bd .LASF3284
C:\Users\CYMR90~1\AppData\Local\Temp\ccYj4tTD.s:21431  .debug_str:0000000000004795 .LASF3285
C:\Users\CYMR90~1\AppData\Local\Temp\ccYj4tTD.s:28368  .debug_str:0000000000020514 .LASF3286
C:\Users\CYMR90~1\AppData\Local\Temp\ccYj4tTD.s:28726  .debug_str:0000000000021b66 .LASF3287
C:\Users\CYMR90~1\AppData\Local\Temp\ccYj4tTD.s:22719  .debug_str:00000000000099a2 .LASF3288
C:\Users\CYMR90~1\AppData\Local\Temp\ccYj4tTD.s:22063  .debug_str:0000000000006e75 .LASF3289
C:\Users\CYMR90~1\AppData\Local\Temp\ccYj4tTD.s:22585  .debug_str:0000000000009125 .LASF3290
C:\Users\CYMR90~1\AppData\Local\Temp\ccYj4tTD.s:21025  .debug_str:0000000000002d36 .LASF3291
C:\Users\CYMR90~1\AppData\Local\Temp\ccYj4tTD.s:31294  .debug_str:000000000002be0e .LASF3292
C:\Users\CYMR90~1\AppData\Local\Temp\ccYj4tTD.s:21855  .debug_str:00000000000061c4 .LASF3293
C:\Users\CYMR90~1\AppData\Local\Temp\ccYj4tTD.s:20417  .debug_str:00000000000007b4 .LASF3294
C:\Users\CYMR90~1\AppData\Local\Temp\ccYj4tTD.s:21437  .debug_str:0000000000004812 .LASF3295
C:\Users\CYMR90~1\AppData\Local\Temp\ccYj4tTD.s:21213  .debug_str:00000000000038fb .LASF3296
C:\Users\CYMR90~1\AppData\Local\Temp\ccYj4tTD.s:24909  .debug_str:00000000000125dc .LASF3297
C:\Users\CYMR90~1\AppData\Local\Temp\ccYj4tTD.s:28452  .debug_str:0000000000020a58 .LASF3298
C:\Users\CYMR90~1\AppData\Local\Temp\ccYj4tTD.s:20355  .debug_str:0000000000000407 .LASF3299
C:\Users\CYMR90~1\AppData\Local\Temp\ccYj4tTD.s:28048  .debug_str:000000000001f19d .LASF3300
C:\Users\CYMR90~1\AppData\Local\Temp\ccYj4tTD.s:26916  .debug_str:000000000001a99b .LASF3301
C:\Users\CYMR90~1\AppData\Local\Temp\ccYj4tTD.s:27826  .debug_str:000000000001e42e .LASF3302
C:\Users\CYMR90~1\AppData\Local\Temp\ccYj4tTD.s:27408  .debug_str:000000000001c8b2 .LASF3303
C:\Users\CYMR90~1\AppData\Local\Temp\ccYj4tTD.s:26268  .debug_str:0000000000017e7f .LASF3304
C:\Users\CYMR90~1\AppData\Local\Temp\ccYj4tTD.s:24795  .debug_str:0000000000011e4b .LASF3305
C:\Users\CYMR90~1\AppData\Local\Temp\ccYj4tTD.s:22801  .debug_str:0000000000009e7c .LASF3306
C:\Users\CYMR90~1\AppData\Local\Temp\ccYj4tTD.s:27698  .debug_str:000000000001dbe2 .LASF3307
C:\Users\CYMR90~1\AppData\Local\Temp\ccYj4tTD.s:31392  .debug_str:000000000002c4c5 .LASF3308
C:\Users\CYMR90~1\AppData\Local\Temp\ccYj4tTD.s:26674  .debug_str:0000000000019959 .LASF3309
C:\Users\CYMR90~1\AppData\Local\Temp\ccYj4tTD.s:26986  .debug_str:000000000001ade9 .LASF3310
C:\Users\CYMR90~1\AppData\Local\Temp\ccYj4tTD.s:29472  .debug_str:000000000002492b .LASF3311
C:\Users\CYMR90~1\AppData\Local\Temp\ccYj4tTD.s:30872  .debug_str:000000000002a386 .LASF3312
C:\Users\CYMR90~1\AppData\Local\Temp\ccYj4tTD.s:24673  .debug_str:00000000000115e5 .LASF3313
C:\Users\CYMR90~1\AppData\Local\Temp\ccYj4tTD.s:27646  .debug_str:000000000001d8cd .LASF3314
C:\Users\CYMR90~1\AppData\Local\Temp\ccYj4tTD.s:23759  .debug_str:000000000000dda6 .LASF3315
C:\Users\CYMR90~1\AppData\Local\Temp\ccYj4tTD.s:30644  .debug_str:0000000000029644 .LASF3316
C:\Users\CYMR90~1\AppData\Local\Temp\ccYj4tTD.s:22159  .debug_str:000000000000753e .LASF3317
C:\Users\CYMR90~1\AppData\Local\Temp\ccYj4tTD.s:30920  .debug_str:000000000002a69d .LASF3318
C:\Users\CYMR90~1\AppData\Local\Temp\ccYj4tTD.s:29694  .debug_str:00000000000258ff .LASF3319
C:\Users\CYMR90~1\AppData\Local\Temp\ccYj4tTD.s:21197  .debug_str:0000000000003806 .LASF3320
C:\Users\CYMR90~1\AppData\Local\Temp\ccYj4tTD.s:24387  .debug_str:000000000001042c .LASF3321
C:\Users\CYMR90~1\AppData\Local\Temp\ccYj4tTD.s:30362  .debug_str:0000000000028446 .LASF3322
C:\Users\CYMR90~1\AppData\Local\Temp\ccYj4tTD.s:24859  .debug_str:00000000000122b4 .LASF3323
C:\Users\CYMR90~1\AppData\Local\Temp\ccYj4tTD.s:22975  .debug_str:000000000000aa20 .LASF3324
C:\Users\CYMR90~1\AppData\Local\Temp\ccYj4tTD.s:31196  .debug_str:000000000002b7ac .LASF3325
C:\Users\CYMR90~1\AppData\Local\Temp\ccYj4tTD.s:23059  .debug_str:000000000000b039 .LASF3326
C:\Users\CYMR90~1\AppData\Local\Temp\ccYj4tTD.s:26728  .debug_str:0000000000019cc5 .LASF3327
C:\Users\CYMR90~1\AppData\Local\Temp\ccYj4tTD.s:30946  .debug_str:000000000002a841 .LASF3328
C:\Users\CYMR90~1\AppData\Local\Temp\ccYj4tTD.s:21939  .debug_str:00000000000066ab .LASF3329
C:\Users\CYMR90~1\AppData\Local\Temp\ccYj4tTD.s:30988  .debug_str:000000000002aab0 .LASF3330
C:\Users\CYMR90~1\AppData\Local\Temp\ccYj4tTD.s:28556  .debug_str:0000000000021062 .LASF3331
C:\Users\CYMR90~1\AppData\Local\Temp\ccYj4tTD.s:29934  .debug_str:00000000000267ef .LASF3332
C:\Users\CYMR90~1\AppData\Local\Temp\ccYj4tTD.s:23611  .debug_str:000000000000d4ca .LASF3333
C:\Users\CYMR90~1\AppData\Local\Temp\ccYj4tTD.s:29322  .debug_str:0000000000023e87 .LASF3334
C:\Users\CYMR90~1\AppData\Local\Temp\ccYj4tTD.s:25443  .debug_str:0000000000014846 .LASF3335
C:\Users\CYMR90~1\AppData\Local\Temp\ccYj4tTD.s:24281  .debug_str:000000000000fde2 .LASF3336
C:\Users\CYMR90~1\AppData\Local\Temp\ccYj4tTD.s:27396  .debug_str:000000000001c748 .LASF3337
C:\Users\CYMR90~1\AppData\Local\Temp\ccYj4tTD.s:30200  .debug_str:0000000000027871 .LASF3338
C:\Users\CYMR90~1\AppData\Local\Temp\ccYj4tTD.s:21219  .debug_str:0000000000003957 .LASF3339
C:\Users\CYMR90~1\AppData\Local\Temp\ccYj4tTD.s:27626  .debug_str:000000000001d75d .LASF3340
C:\Users\CYMR90~1\AppData\Local\Temp\ccYj4tTD.s:30372  .debug_str:00000000000284ea .LASF3341
C:\Users\CYMR90~1\AppData\Local\Temp\ccYj4tTD.s:22477  .debug_str:0000000000008a87 .LASF3342
C:\Users\CYMR90~1\AppData\Local\Temp\ccYj4tTD.s:28804  .debug_str:0000000000021ff3 .LASF3343
C:\Users\CYMR90~1\AppData\Local\Temp\ccYj4tTD.s:25625  .debug_str:00000000000153d6 .LASF3344
C:\Users\CYMR90~1\AppData\Local\Temp\ccYj4tTD.s:22569  .debug_str:000000000000905e .LASF3345
C:\Users\CYMR90~1\AppData\Local\Temp\ccYj4tTD.s:23863  .debug_str:000000000000e3ed .LASF3346
C:\Users\CYMR90~1\AppData\Local\Temp\ccYj4tTD.s:25003  .debug_str:0000000000012c20 .LASF3347
C:\Users\CYMR90~1\AppData\Local\Temp\ccYj4tTD.s:23037  .debug_str:000000000000adff .LASF3348
C:\Users\CYMR90~1\AppData\Local\Temp\ccYj4tTD.s:27464  .debug_str:000000000001cc38 .LASF3349
C:\Users\CYMR90~1\AppData\Local\Temp\ccYj4tTD.s:29566  .debug_str:0000000000024f0e .LASF3350
C:\Users\CYMR90~1\AppData\Local\Temp\ccYj4tTD.s:21515  .debug_str:0000000000004d5d .LASF3351
C:\Users\CYMR90~1\AppData\Local\Temp\ccYj4tTD.s:30888  .debug_str:000000000002a480 .LASF3352
C:\Users\CYMR90~1\AppData\Local\Temp\ccYj4tTD.s:29760  .debug_str:0000000000025d09 .LASF3353
C:\Users\CYMR90~1\AppData\Local\Temp\ccYj4tTD.s:26772  .debug_str:0000000000019f43 .LASF3354
C:\Users\CYMR90~1\AppData\Local\Temp\ccYj4tTD.s:26780  .debug_str:0000000000019fc9 .LASF3355
C:\Users\CYMR90~1\AppData\Local\Temp\ccYj4tTD.s:30050  .debug_str:0000000000026eed .LASF3356
C:\Users\CYMR90~1\AppData\Local\Temp\ccYj4tTD.s:24891  .debug_str:00000000000124a1 .LASF3357
C:\Users\CYMR90~1\AppData\Local\Temp\ccYj4tTD.s:30856  .debug_str:000000000002a2ca .LASF3358
C:\Users\CYMR90~1\AppData\Local\Temp\ccYj4tTD.s:26436  .debug_str:000000000001887b .LASF3359
C:\Users\CYMR90~1\AppData\Local\Temp\ccYj4tTD.s:30132  .debug_str:0000000000027496 .LASF3360
C:\Users\CYMR90~1\AppData\Local\Temp\ccYj4tTD.s:21409  .debug_str:00000000000045fe .LASF3361
C:\Users\CYMR90~1\AppData\Local\Temp\ccYj4tTD.s:24481  .debug_str:00000000000109d1 .LASF3362
C:\Users\CYMR90~1\AppData\Local\Temp\ccYj4tTD.s:27808  .debug_str:000000000001e30f .LASF3363
C:\Users\CYMR90~1\AppData\Local\Temp\ccYj4tTD.s:24819  .debug_str:000000000001201a .LASF3364
C:\Users\CYMR90~1\AppData\Local\Temp\ccYj4tTD.s:24231  .debug_str:000000000000fac0 .LASF3365
C:\Users\CYMR90~1\AppData\Local\Temp\ccYj4tTD.s:25001  .debug_str:0000000000012be7 .LASF3366
C:\Users\CYMR90~1\AppData\Local\Temp\ccYj4tTD.s:29270  .debug_str:0000000000023ba1 .LASF3367
C:\Users\CYMR90~1\AppData\Local\Temp\ccYj4tTD.s:25811  .debug_str:0000000000015f7a .LASF3368
C:\Users\CYMR90~1\AppData\Local\Temp\ccYj4tTD.s:27378  .debug_str:000000000001c5fe .LASF3369
C:\Users\CYMR90~1\AppData\Local\Temp\ccYj4tTD.s:23257  .debug_str:000000000000bd27 .LASF3370
C:\Users\CYMR90~1\AppData\Local\Temp\ccYj4tTD.s:22263  .debug_str:0000000000007bc0 .LASF3371
C:\Users\CYMR90~1\AppData\Local\Temp\ccYj4tTD.s:21569  .debug_str:0000000000005074 .LASF3372
C:\Users\CYMR90~1\AppData\Local\Temp\ccYj4tTD.s:24953  .debug_str:00000000000128cf .LASF3373
C:\Users\CYMR90~1\AppData\Local\Temp\ccYj4tTD.s:22319  .debug_str:0000000000007ff7 .LASF3374
C:\Users\CYMR90~1\AppData\Local\Temp\ccYj4tTD.s:20661  .debug_str:000000000000165e .LASF3375
C:\Users\CYMR90~1\AppData\Local\Temp\ccYj4tTD.s:30322  .debug_str:00000000000280f9 .LASF3376
C:\Users\CYMR90~1\AppData\Local\Temp\ccYj4tTD.s:27054  .debug_str:000000000001b296 .LASF3377
C:\Users\CYMR90~1\AppData\Local\Temp\ccYj4tTD.s:23531  .debug_str:000000000000cf0d .LASF3378
C:\Users\CYMR90~1\AppData\Local\Temp\ccYj4tTD.s:25401  .debug_str:000000000001459f .LASF3379
C:\Users\CYMR90~1\AppData\Local\Temp\ccYj4tTD.s:26380  .debug_str:000000000001855b .LASF3380
C:\Users\CYMR90~1\AppData\Local\Temp\ccYj4tTD.s:24229  .debug_str:000000000000faa7 .LASF3381
C:\Users\CYMR90~1\AppData\Local\Temp\ccYj4tTD.s:27862  .debug_str:000000000001e64c .LASF3382
C:\Users\CYMR90~1\AppData\Local\Temp\ccYj4tTD.s:23341  .debug_str:000000000000c2fa .LASF3383
C:\Users\CYMR90~1\AppData\Local\Temp\ccYj4tTD.s:22915  .debug_str:000000000000a59d .LASF3384
C:\Users\CYMR90~1\AppData\Local\Temp\ccYj4tTD.s:25871  .debug_str:000000000001633c .LASF3385
C:\Users\CYMR90~1\AppData\Local\Temp\ccYj4tTD.s:26830  .debug_str:000000000001a298 .LASF3386
C:\Users\CYMR90~1\AppData\Local\Temp\ccYj4tTD.s:28112  .debug_str:000000000001f56c .LASF3387
C:\Users\CYMR90~1\AppData\Local\Temp\ccYj4tTD.s:24309  .debug_str:000000000000ff93 .LASF3388
C:\Users\CYMR90~1\AppData\Local\Temp\ccYj4tTD.s:31470  .debug_str:000000000002c9ad .LASF3389
C:\Users\CYMR90~1\AppData\Local\Temp\ccYj4tTD.s:26190  .debug_str:00000000000179b7 .LASF3390
C:\Users\CYMR90~1\AppData\Local\Temp\ccYj4tTD.s:28830  .debug_str:0000000000022184 .LASF3391
C:\Users\CYMR90~1\AppData\Local\Temp\ccYj4tTD.s:23219  .debug_str:000000000000ba97 .LASF3392
C:\Users\CYMR90~1\AppData\Local\Temp\ccYj4tTD.s:29112  .debug_str:00000000000231f8 .LASF3393
C:\Users\CYMR90~1\AppData\Local\Temp\ccYj4tTD.s:25279  .debug_str:0000000000013e03 .LASF3394
C:\Users\CYMR90~1\AppData\Local\Temp\ccYj4tTD.s:28004  .debug_str:000000000001eeae .LASF3395
C:\Users\CYMR90~1\AppData\Local\Temp\ccYj4tTD.s:24065  .debug_str:000000000000f01d .LASF3396
C:\Users\CYMR90~1\AppData\Local\Temp\ccYj4tTD.s:30850  .debug_str:000000000002a270 .LASF3397
C:\Users\CYMR90~1\AppData\Local\Temp\ccYj4tTD.s:24385  .debug_str:0000000000010415 .LASF3398
C:\Users\CYMR90~1\AppData\Local\Temp\ccYj4tTD.s:30452  .debug_str:0000000000028a60 .LASF3399
C:\Users\CYMR90~1\AppData\Local\Temp\ccYj4tTD.s:25571  .debug_str:00000000000150a2 .LASF3400
C:\Users\CYMR90~1\AppData\Local\Temp\ccYj4tTD.s:24705  .debug_str:0000000000011888 .LASF3401
C:\Users\CYMR90~1\AppData\Local\Temp\ccYj4tTD.s:22609  .debug_str:00000000000092ab .LASF3402
C:\Users\CYMR90~1\AppData\Local\Temp\ccYj4tTD.s:22189  .debug_str:0000000000007719 .LASF3403
C:\Users\CYMR90~1\AppData\Local\Temp\ccYj4tTD.s:31588  .debug_str:000000000002d146 .LASF3404
C:\Users\CYMR90~1\AppData\Local\Temp\ccYj4tTD.s:21363  .debug_str:00000000000042e9 .LASF3405
C:\Users\CYMR90~1\AppData\Local\Temp\ccYj4tTD.s:31114  .debug_str:000000000002b211 .LASF3406
C:\Users\CYMR90~1\AppData\Local\Temp\ccYj4tTD.s:23681  .debug_str:000000000000d921 .LASF3407
C:\Users\CYMR90~1\AppData\Local\Temp\ccYj4tTD.s:26358  .debug_str:00000000000183e0 .LASF3408
C:\Users\CYMR90~1\AppData\Local\Temp\ccYj4tTD.s:25809  .debug_str:0000000000015f62 .LASF3409
C:\Users\CYMR90~1\AppData\Local\Temp\ccYj4tTD.s:29124  .debug_str:000000000002328f .LASF3410
C:\Users\CYMR90~1\AppData\Local\Temp\ccYj4tTD.s:20581  .debug_str:0000000000001209 .LASF3411
C:\Users\CYMR90~1\AppData\Local\Temp\ccYj4tTD.s:21529  .debug_str:0000000000004e55 .LASF3412
C:\Users\CYMR90~1\AppData\Local\Temp\ccYj4tTD.s:28986  .debug_str:0000000000022aa8 .LASF3413
C:\Users\CYMR90~1\AppData\Local\Temp\ccYj4tTD.s:21777  .debug_str:0000000000005d07 .LASF3414
C:\Users\CYMR90~1\AppData\Local\Temp\ccYj4tTD.s:29308  .debug_str:0000000000023de8 .LASF3415
C:\Users\CYMR90~1\AppData\Local\Temp\ccYj4tTD.s:29722  .debug_str:0000000000025ad8 .LASF3416
C:\Users\CYMR90~1\AppData\Local\Temp\ccYj4tTD.s:28440  .debug_str:00000000000209d1 .LASF3417
C:\Users\CYMR90~1\AppData\Local\Temp\ccYj4tTD.s:25715  .debug_str:0000000000015920 .LASF3418
C:\Users\CYMR90~1\AppData\Local\Temp\ccYj4tTD.s:25461  .debug_str:0000000000014946 .LASF3419
C:\Users\CYMR90~1\AppData\Local\Temp\ccYj4tTD.s:26180  .debug_str:000000000001790d .LASF3420
C:\Users\CYMR90~1\AppData\Local\Temp\ccYj4tTD.s:28336  .debug_str:00000000000202ca .LASF3421
C:\Users\CYMR90~1\AppData\Local\Temp\ccYj4tTD.s:22155  .debug_str:0000000000007510 .LASF3422
C:\Users\CYMR90~1\AppData\Local\Temp\ccYj4tTD.s:20347  .debug_str:0000000000000388 .LASF3423
C:\Users\CYMR90~1\AppData\Local\Temp\ccYj4tTD.s:30472  .debug_str:0000000000028b9c .LASF3424
C:\Users\CYMR90~1\AppData\Local\Temp\ccYj4tTD.s:20479  .debug_str:0000000000000bee .LASF3425
C:\Users\CYMR90~1\AppData\Local\Temp\ccYj4tTD.s:28810  .debug_str:0000000000022067 .LASF3426
C:\Users\CYMR90~1\AppData\Local\Temp\ccYj4tTD.s:25609  .debug_str:0000000000015315 .LASF3427
C:\Users\CYMR90~1\AppData\Local\Temp\ccYj4tTD.s:25259  .debug_str:0000000000013cb4 .LASF3428
C:\Users\CYMR90~1\AppData\Local\Temp\ccYj4tTD.s:23555  .debug_str:000000000000d0b5 .LASF3429
C:\Users\CYMR90~1\AppData\Local\Temp\ccYj4tTD.s:29114  .debug_str:000000000002321e .LASF3430
C:\Users\CYMR90~1\AppData\Local\Temp\ccYj4tTD.s:27094  .debug_str:000000000001b512 .LASF3431
C:\Users\CYMR90~1\AppData\Local\Temp\ccYj4tTD.s:25869  .debug_str:000000000001631f .LASF3432
C:\Users\CYMR90~1\AppData\Local\Temp\ccYj4tTD.s:29564  .debug_str:0000000000024ef0 .LASF3433
C:\Users\CYMR90~1\AppData\Local\Temp\ccYj4tTD.s:24197  .debug_str:000000000000f8d6 .LASF3434
C:\Users\CYMR90~1\AppData\Local\Temp\ccYj4tTD.s:29032  .debug_str:0000000000022da8 .LASF3435
C:\Users\CYMR90~1\AppData\Local\Temp\ccYj4tTD.s:25097  .debug_str:000000000001327a .LASF3436
C:\Users\CYMR90~1\AppData\Local\Temp\ccYj4tTD.s:27578  .debug_str:000000000001d441 .LASF3437
C:\Users\CYMR90~1\AppData\Local\Temp\ccYj4tTD.s:30242  .debug_str:0000000000027b57 .LASF3438
C:\Users\CYMR90~1\AppData\Local\Temp\ccYj4tTD.s:31508  .debug_str:000000000002cc14 .LASF3439
C:\Users\CYMR90~1\AppData\Local\Temp\ccYj4tTD.s:20725  .debug_str:0000000000001aea .LASF3440
C:\Users\CYMR90~1\AppData\Local\Temp\ccYj4tTD.s:21289  .debug_str:0000000000003de2 .LASF3441
C:\Users\CYMR90~1\AppData\Local\Temp\ccYj4tTD.s:31186  .debug_str:000000000002b6fb .LASF3442
C:\Users\CYMR90~1\AppData\Local\Temp\ccYj4tTD.s:29540  .debug_str:0000000000024d71 .LASF3443
C:\Users\CYMR90~1\AppData\Local\Temp\ccYj4tTD.s:25253  .debug_str:0000000000013c66 .LASF3444
C:\Users\CYMR90~1\AppData\Local\Temp\ccYj4tTD.s:21561  .debug_str:0000000000005014 .LASF3445
C:\Users\CYMR90~1\AppData\Local\Temp\ccYj4tTD.s:22949  .debug_str:000000000000a79a .LASF3446
C:\Users\CYMR90~1\AppData\Local\Temp\ccYj4tTD.s:21755  .debug_str:0000000000005bbf .LASF3447
C:\Users\CYMR90~1\AppData\Local\Temp\ccYj4tTD.s:23163  .debug_str:000000000000b6c7 .LASF3448
C:\Users\CYMR90~1\AppData\Local\Temp\ccYj4tTD.s:21691  .debug_str:00000000000057b8 .LASF3449
C:\Users\CYMR90~1\AppData\Local\Temp\ccYj4tTD.s:24811  .debug_str:0000000000011f83 .LASF3450
C:\Users\CYMR90~1\AppData\Local\Temp\ccYj4tTD.s:30232  .debug_str:0000000000027aba .LASF3451
C:\Users\CYMR90~1\AppData\Local\Temp\ccYj4tTD.s:26616  .debug_str:000000000001951a .LASF3452
C:\Users\CYMR90~1\AppData\Local\Temp\ccYj4tTD.s:25399  .debug_str:0000000000014564 .LASF3453
C:\Users\CYMR90~1\AppData\Local\Temp\ccYj4tTD.s:31538  .debug_str:000000000002ce33 .LASF3454
C:\Users\CYMR90~1\AppData\Local\Temp\ccYj4tTD.s:28082  .debug_str:000000000001f3a5 .LASF3455
C:\Users\CYMR90~1\AppData\Local\Temp\ccYj4tTD.s:24743  .debug_str:0000000000011b4f .LASF3456
C:\Users\CYMR90~1\AppData\Local\Temp\ccYj4tTD.s:22163  .debug_str:0000000000007573 .LASF3457
C:\Users\CYMR90~1\AppData\Local\Temp\ccYj4tTD.s:29170  .debug_str:0000000000023566 .LASF3458
C:\Users\CYMR90~1\AppData\Local\Temp\ccYj4tTD.s:25765  .debug_str:0000000000015c35 .LASF3459
C:\Users\CYMR90~1\AppData\Local\Temp\ccYj4tTD.s:22395  .debug_str:0000000000008578 .LASF3460
C:\Users\CYMR90~1\AppData\Local\Temp\ccYj4tTD.s:26304  .debug_str:000000000001805a .LASF3461
C:\Users\CYMR90~1\AppData\Local\Temp\ccYj4tTD.s:31248  .debug_str:000000000002bb32 .LASF3462
C:\Users\CYMR90~1\AppData\Local\Temp\ccYj4tTD.s:29796  .debug_str:0000000000025f2f .LASF3463
C:\Users\CYMR90~1\AppData\Local\Temp\ccYj4tTD.s:20681  .debug_str:0000000000001843 .LASF3464
C:\Users\CYMR90~1\AppData\Local\Temp\ccYj4tTD.s:21729  .debug_str:00000000000059e8 .LASF3465
C:\Users\CYMR90~1\AppData\Local\Temp\ccYj4tTD.s:27870  .debug_str:000000000001e698 .LASF3466
C:\Users\CYMR90~1\AppData\Local\Temp\ccYj4tTD.s:28090  .debug_str:000000000001f423 .LASF3467
C:\Users\CYMR90~1\AppData\Local\Temp\ccYj4tTD.s:29220  .debug_str:00000000000238d2 .LASF3468
C:\Users\CYMR90~1\AppData\Local\Temp\ccYj4tTD.s:20677  .debug_str:00000000000017fc .LASF3469
C:\Users\CYMR90~1\AppData\Local\Temp\ccYj4tTD.s:26416  .debug_str:000000000001875a .LASF3470
C:\Users\CYMR90~1\AppData\Local\Temp\ccYj4tTD.s:31490  .debug_str:000000000002caf7 .LASF3471
C:\Users\CYMR90~1\AppData\Local\Temp\ccYj4tTD.s:23135  .debug_str:000000000000b476 .LASF3472
C:\Users\CYMR90~1\AppData\Local\Temp\ccYj4tTD.s:26286  .debug_str:0000000000017f7b .LASF3473
C:\Users\CYMR90~1\AppData\Local\Temp\ccYj4tTD.s:20613  .debug_str:00000000000013a7 .LASF3474
C:\Users\CYMR90~1\AppData\Local\Temp\ccYj4tTD.s:27356  .debug_str:000000000001c4bb .LASF3475
C:\Users\CYMR90~1\AppData\Local\Temp\ccYj4tTD.s:23349  .debug_str:000000000000c370 .LASF3476
C:\Users\CYMR90~1\AppData\Local\Temp\ccYj4tTD.s:23615  .debug_str:000000000000d515 .LASF3477
C:\Users\CYMR90~1\AppData\Local\Temp\ccYj4tTD.s:31244  .debug_str:000000000002bae7 .LASF3478
C:\Users\CYMR90~1\AppData\Local\Temp\ccYj4tTD.s:28286  .debug_str:000000000002001c .LASF3479
C:\Users\CYMR90~1\AppData\Local\Temp\ccYj4tTD.s:24095  .debug_str:000000000000f201 .LASF3480
C:\Users\CYMR90~1\AppData\Local\Temp\ccYj4tTD.s:29720  .debug_str:0000000000025ab0 .LASF3481
C:\Users\CYMR90~1\AppData\Local\Temp\ccYj4tTD.s:28656  .debug_str:000000000002170b .LASF3482
C:\Users\CYMR90~1\AppData\Local\Temp\ccYj4tTD.s:24351  .debug_str:0000000000010238 .LASF3483
C:\Users\CYMR90~1\AppData\Local\Temp\ccYj4tTD.s:28284  .debug_str:000000000001fff5 .LASF3484
C:\Users\CYMR90~1\AppData\Local\Temp\ccYj4tTD.s:25409  .debug_str:0000000000014642 .LASF3485
C:\Users\CYMR90~1\AppData\Local\Temp\ccYj4tTD.s:31124  .debug_str:000000000002b2e9 .LASF3486
C:\Users\CYMR90~1\AppData\Local\Temp\ccYj4tTD.s:20363  .debug_str:0000000000000471 .LASF3487
C:\Users\CYMR90~1\AppData\Local\Temp\ccYj4tTD.s:28316  .debug_str:00000000000201b6 .LASF3488
C:\Users\CYMR90~1\AppData\Local\Temp\ccYj4tTD.s:29856  .debug_str:0000000000026315 .LASF3489
C:\Users\CYMR90~1\AppData\Local\Temp\ccYj4tTD.s:31540  .debug_str:000000000002ce5a .LASF3490
C:\Users\CYMR90~1\AppData\Local\Temp\ccYj4tTD.s:22783  .debug_str:0000000000009d70 .LASF3491
C:\Users\CYMR90~1\AppData\Local\Temp\ccYj4tTD.s:26656  .debug_str:0000000000019791 .LASF3492
C:\Users\CYMR90~1\AppData\Local\Temp\ccYj4tTD.s:24071  .debug_str:000000000000f063 .LASF3493
C:\Users\CYMR90~1\AppData\Local\Temp\ccYj4tTD.s:28002  .debug_str:000000000001ee90 .LASF3494
C:\Users\CYMR90~1\AppData\Local\Temp\ccYj4tTD.s:26470  .debug_str:0000000000018ac3 .LASF3495
C:\Users\CYMR90~1\AppData\Local\Temp\ccYj4tTD.s:31050  .debug_str:000000000002ae67 .LASF3496
C:\Users\CYMR90~1\AppData\Local\Temp\ccYj4tTD.s:27238  .debug_str:000000000001bd97 .LASF3497
C:\Users\CYMR90~1\AppData\Local\Temp\ccYj4tTD.s:21277  .debug_str:0000000000003d23 .LASF3498
C:\Users\CYMR90~1\AppData\Local\Temp\ccYj4tTD.s:23049  .debug_str:000000000000aef5 .LASF3499
C:\Users\CYMR90~1\AppData\Local\Temp\ccYj4tTD.s:24091  .debug_str:000000000000f1b3 .LASF3500
C:\Users\CYMR90~1\AppData\Local\Temp\ccYj4tTD.s:28736  .debug_str:0000000000021bf9 .LASF3501
C:\Users\CYMR90~1\AppData\Local\Temp\ccYj4tTD.s:25979  .debug_str:0000000000016b22 .LASF3502
C:\Users\CYMR90~1\AppData\Local\Temp\ccYj4tTD.s:27770  .debug_str:000000000001e0e0 .LASF3503
C:\Users\CYMR90~1\AppData\Local\Temp\ccYj4tTD.s:27662  .debug_str:000000000001d9cc .LASF3504
C:\Users\CYMR90~1\AppData\Local\Temp\ccYj4tTD.s:28760  .debug_str:0000000000021d7a .LASF3505
C:\Users\CYMR90~1\AppData\Local\Temp\ccYj4tTD.s:23015  .debug_str:000000000000acb1 .LASF3506
C:\Users\CYMR90~1\AppData\Local\Temp\ccYj4tTD.s:25373  .debug_str:00000000000143c3 .LASF3507
C:\Users\CYMR90~1\AppData\Local\Temp\ccYj4tTD.s:21823  .debug_str:0000000000005fa6 .LASF3508
C:\Users\CYMR90~1\AppData\Local\Temp\ccYj4tTD.s:28496  .debug_str:0000000000020d3f .LASF3509
C:\Users\CYMR90~1\AppData\Local\Temp\ccYj4tTD.s:24989  .debug_str:0000000000012b21 .LASF3510
C:\Users\CYMR90~1\AppData\Local\Temp\ccYj4tTD.s:27072  .debug_str:000000000001b3ce .LASF3511
C:\Users\CYMR90~1\AppData\Local\Temp\ccYj4tTD.s:26944  .debug_str:000000000001ab71 .LASF3512
C:\Users\CYMR90~1\AppData\Local\Temp\ccYj4tTD.s:21581  .debug_str:000000000000514d .LASF3513
C:\Users\CYMR90~1\AppData\Local\Temp\ccYj4tTD.s:28360  .debug_str:0000000000020477 .LASF3514
C:\Users\CYMR90~1\AppData\Local\Temp\ccYj4tTD.s:25063  .debug_str:0000000000013014 .LASF3515
C:\Users\CYMR90~1\AppData\Local\Temp\ccYj4tTD.s:27936  .debug_str:000000000001ead4 .LASF3516
C:\Users\CYMR90~1\AppData\Local\Temp\ccYj4tTD.s:27398  .debug_str:000000000001c76d .LASF3517
C:\Users\CYMR90~1\AppData\Local\Temp\ccYj4tTD.s:22093  .debug_str:00000000000070b0 .LASF3518
C:\Users\CYMR90~1\AppData\Local\Temp\ccYj4tTD.s:30044  .debug_str:0000000000026e89 .LASF3519
C:\Users\CYMR90~1\AppData\Local\Temp\ccYj4tTD.s:21495  .debug_str:0000000000004c1b .LASF3520
C:\Users\CYMR90~1\AppData\Local\Temp\ccYj4tTD.s:21821  .debug_str:0000000000005f95 .LASF3521
C:\Users\CYMR90~1\AppData\Local\Temp\ccYj4tTD.s:20795  .debug_str:0000000000001f2f .LASF3522
C:\Users\CYMR90~1\AppData\Local\Temp\ccYj4tTD.s:26362  .debug_str:0000000000018417 .LASF3523
C:\Users\CYMR90~1\AppData\Local\Temp\ccYj4tTD.s:26082  .debug_str:00000000000172df .LASF3524
C:\Users\CYMR90~1\AppData\Local\Temp\ccYj4tTD.s:27120  .debug_str:000000000001b684 .LASF3525
C:\Users\CYMR90~1\AppData\Local\Temp\ccYj4tTD.s:23773  .debug_str:000000000000decd .LASF3526
C:\Users\CYMR90~1\AppData\Local\Temp\ccYj4tTD.s:28490  .debug_str:0000000000020ce9 .LASF3527
C:\Users\CYMR90~1\AppData\Local\Temp\ccYj4tTD.s:29368  .debug_str:00000000000241f1 .LASF3528
C:\Users\CYMR90~1\AppData\Local\Temp\ccYj4tTD.s:30244  .debug_str:0000000000027b6e .LASF3529
C:\Users\CYMR90~1\AppData\Local\Temp\ccYj4tTD.s:28612  .debug_str:0000000000021464 .LASF3530
C:\Users\CYMR90~1\AppData\Local\Temp\ccYj4tTD.s:29880  .debug_str:0000000000026473 .LASF3531
C:\Users\CYMR90~1\AppData\Local\Temp\ccYj4tTD.s:22111  .debug_str:000000000000721e .LASF3532
C:\Users\CYMR90~1\AppData\Local\Temp\ccYj4tTD.s:27128  .debug_str:000000000001b711 .LASF3533
C:\Users\CYMR90~1\AppData\Local\Temp\ccYj4tTD.s:20889  .debug_str:0000000000002404 .LASF3534
C:\Users\CYMR90~1\AppData\Local\Temp\ccYj4tTD.s:29636  .debug_str:0000000000025474 .LASF3535
C:\Users\CYMR90~1\AppData\Local\Temp\ccYj4tTD.s:23353  .debug_str:000000000000c3b5 .LASF3536
C:\Users\CYMR90~1\AppData\Local\Temp\ccYj4tTD.s:25843  .debug_str:0000000000016192 .LASF3537
C:\Users\CYMR90~1\AppData\Local\Temp\ccYj4tTD.s:30080  .debug_str:0000000000027098 .LASF3538
C:\Users\CYMR90~1\AppData\Local\Temp\ccYj4tTD.s:23003  .debug_str:000000000000abe1 .LASF3539
C:\Users\CYMR90~1\AppData\Local\Temp\ccYj4tTD.s:23847  .debug_str:000000000000e317 .LASF3540
C:\Users\CYMR90~1\AppData\Local\Temp\ccYj4tTD.s:21499  .debug_str:0000000000004c6a .LASF3541
C:\Users\CYMR90~1\AppData\Local\Temp\ccYj4tTD.s:20473  .debug_str:0000000000000b74 .LASF3542
C:\Users\CYMR90~1\AppData\Local\Temp\ccYj4tTD.s:28772  .debug_str:0000000000021e29 .LASF3543
C:\Users\CYMR90~1\AppData\Local\Temp\ccYj4tTD.s:23021  .debug_str:000000000000ad06 .LASF3544
C:\Users\CYMR90~1\AppData\Local\Temp\ccYj4tTD.s:21189  .debug_str:0000000000003766 .LASF3545
C:\Users\CYMR90~1\AppData\Local\Temp\ccYj4tTD.s:20641  .debug_str:0000000000001516 .LASF3546
C:\Users\CYMR90~1\AppData\Local\Temp\ccYj4tTD.s:26382  .debug_str:0000000000018574 .LASF3547
C:\Users\CYMR90~1\AppData\Local\Temp\ccYj4tTD.s:25865  .debug_str:00000000000162df .LASF3548
C:\Users\CYMR90~1\AppData\Local\Temp\ccYj4tTD.s:25051  .debug_str:0000000000012f48 .LASF3549
C:\Users\CYMR90~1\AppData\Local\Temp\ccYj4tTD.s:26734  .debug_str:0000000000019d2e .LASF3550
C:\Users\CYMR90~1\AppData\Local\Temp\ccYj4tTD.s:31014  .debug_str:000000000002ac47 .LASF3551
C:\Users\CYMR90~1\AppData\Local\Temp\ccYj4tTD.s:25931  .debug_str:0000000000016736 .LASF3552
C:\Users\CYMR90~1\AppData\Local\Temp\ccYj4tTD.s:24969  .debug_str:0000000000012a04 .LASF3553
C:\Users\CYMR90~1\AppData\Local\Temp\ccYj4tTD.s:27030  .debug_str:000000000001b105 .LASF3554
C:\Users\CYMR90~1\AppData\Local\Temp\ccYj4tTD.s:29910  .debug_str:0000000000026655 .LASF3555
C:\Users\CYMR90~1\AppData\Local\Temp\ccYj4tTD.s:22329  .debug_str:0000000000008133 .LASF3556
C:\Users\CYMR90~1\AppData\Local\Temp\ccYj4tTD.s:21011  .debug_str:0000000000002c34 .LASF3557
C:\Users\CYMR90~1\AppData\Local\Temp\ccYj4tTD.s:28696  .debug_str:0000000000021960 .LASF3558
C:\Users\CYMR90~1\AppData\Local\Temp\ccYj4tTD.s:28038  .debug_str:000000000001f109 .LASF3559
C:\Users\CYMR90~1\AppData\Local\Temp\ccYj4tTD.s:28328  .debug_str:000000000002025e .LASF3560
C:\Users\CYMR90~1\AppData\Local\Temp\ccYj4tTD.s:28858  .debug_str:0000000000022323 .LASF3561
C:\Users\CYMR90~1\AppData\Local\Temp\ccYj4tTD.s:24479  .debug_str:00000000000109b9 .LASF3562
C:\Users\CYMR90~1\AppData\Local\Temp\ccYj4tTD.s:22041  .debug_str:0000000000006d02 .LASF3563
C:\Users\CYMR90~1\AppData\Local\Temp\ccYj4tTD.s:31172  .debug_str:000000000002b657 .LASF3564
C:\Users\CYMR90~1\AppData\Local\Temp\ccYj4tTD.s:31002  .debug_str:000000000002ab86 .LASF3565
C:\Users\CYMR90~1\AppData\Local\Temp\ccYj4tTD.s:27720  .debug_str:000000000001ddc6 .LASF3566
C:\Users\CYMR90~1\AppData\Local\Temp\ccYj4tTD.s:20455  .debug_str:00000000000009f2 .LASF3567
C:\Users\CYMR90~1\AppData\Local\Temp\ccYj4tTD.s:30010  .debug_str:0000000000026c41 .LASF3568
C:\Users\CYMR90~1\AppData\Local\Temp\ccYj4tTD.s:24265  .debug_str:000000000000fcf0 .LASF3569
C:\Users\CYMR90~1\AppData\Local\Temp\ccYj4tTD.s:31480  .debug_str:000000000002ca40 .LASF3570
C:\Users\CYMR90~1\AppData\Local\Temp\ccYj4tTD.s:26550  .debug_str:0000000000019133 .LASF3571
C:\Users\CYMR90~1\AppData\Local\Temp\ccYj4tTD.s:31110  .debug_str:000000000002b1ce .LASF3572
C:\Users\CYMR90~1\AppData\Local\Temp\ccYj4tTD.s:26592  .debug_str:0000000000019394 .LASF3573
C:\Users\CYMR90~1\AppData\Local\Temp\ccYj4tTD.s:28844  .debug_str:0000000000022277 .LASF3574
C:\Users\CYMR90~1\AppData\Local\Temp\ccYj4tTD.s:25309  .debug_str:0000000000013fcd .LASF3575
C:\Users\CYMR90~1\AppData\Local\Temp\ccYj4tTD.s:23449  .debug_str:000000000000ca3c .LASF3576
C:\Users\CYMR90~1\AppData\Local\Temp\ccYj4tTD.s:21073  .debug_str:0000000000002ffa .LASF3577
C:\Users\CYMR90~1\AppData\Local\Temp\ccYj4tTD.s:26910  .debug_str:000000000001a947 .LASF3578
C:\Users\CYMR90~1\AppData\Local\Temp\ccYj4tTD.s:28116  .debug_str:000000000001f59f .LASF3579
C:\Users\CYMR90~1\AppData\Local\Temp\ccYj4tTD.s:30804  .debug_str:0000000000029fc7 .LASF3580
C:\Users\CYMR90~1\AppData\Local\Temp\ccYj4tTD.s:29996  .debug_str:0000000000026ba3 .LASF3581
C:\Users\CYMR90~1\AppData\Local\Temp\ccYj4tTD.s:28906  .debug_str:00000000000225e0 .LASF3582
C:\Users\CYMR90~1\AppData\Local\Temp\ccYj4tTD.s:29582  .debug_str:0000000000025006 .LASF3583
C:\Users\CYMR90~1\AppData\Local\Temp\ccYj4tTD.s:27718  .debug_str:000000000001ddaa .LASF3584
C:\Users\CYMR90~1\AppData\Local\Temp\ccYj4tTD.s:27778  .debug_str:000000000001e164 .LASF3585
C:\Users\CYMR90~1\AppData\Local\Temp\ccYj4tTD.s:26818  .debug_str:000000000001a1e5 .LASF3586
C:\Users\CYMR90~1\AppData\Local\Temp\ccYj4tTD.s:20357  .debug_str:0000000000000424 .LASF3587
C:\Users\CYMR90~1\AppData\Local\Temp\ccYj4tTD.s:26168  .debug_str:000000000001781a .LASF3588
C:\Users\CYMR90~1\AppData\Local\Temp\ccYj4tTD.s:29766  .debug_str:0000000000025d5f .LASF3589
C:\Users\CYMR90~1\AppData\Local\Temp\ccYj4tTD.s:21613  .debug_str:000000000000532e .LASF3590
C:\Users\CYMR90~1\AppData\Local\Temp\ccYj4tTD.s:20693  .debug_str:0000000000001918 .LASF3591
C:\Users\CYMR90~1\AppData\Local\Temp\ccYj4tTD.s:25723  .debug_str:0000000000015987 .LASF3592
C:\Users\CYMR90~1\AppData\Local\Temp\ccYj4tTD.s:24171  .debug_str:000000000000f68c .LASF3593
C:\Users\CYMR90~1\AppData\Local\Temp\ccYj4tTD.s:22697  .debug_str:000000000000981c .LASF3594
C:\Users\CYMR90~1\AppData\Local\Temp\ccYj4tTD.s:27794  .debug_str:000000000001e24f .LASF3595
C:\Users\CYMR90~1\AppData\Local\Temp\ccYj4tTD.s:20787  .debug_str:0000000000001eb9 .LASF3596
C:\Users\CYMR90~1\AppData\Local\Temp\ccYj4tTD.s:28098  .debug_str:000000000001f4b7 .LASF3597
C:\Users\CYMR90~1\AppData\Local\Temp\ccYj4tTD.s:22673  .debug_str:00000000000096ba .LASF3598
C:\Users\CYMR90~1\AppData\Local\Temp\ccYj4tTD.s:26294  .debug_str:0000000000017ffd .LASF3599
C:\Users\CYMR90~1\AppData\Local\Temp\ccYj4tTD.s:29868  .debug_str:00000000000263bb .LASF3600
C:\Users\CYMR90~1\AppData\Local\Temp\ccYj4tTD.s:23809  .debug_str:000000000000e0cb .LASF3601
C:\Users\CYMR90~1\AppData\Local\Temp\ccYj4tTD.s:27854  .debug_str:000000000001e5f1 .LASF3602
C:\Users\CYMR90~1\AppData\Local\Temp\ccYj4tTD.s:31374  .debug_str:000000000002c320 .LASF3603
C:\Users\CYMR90~1\AppData\Local\Temp\ccYj4tTD.s:24119  .debug_str:000000000000f398 .LASF3604
C:\Users\CYMR90~1\AppData\Local\Temp\ccYj4tTD.s:28138  .debug_str:000000000001f6f8 .LASF3605
C:\Users\CYMR90~1\AppData\Local\Temp\ccYj4tTD.s:21483  .debug_str:0000000000004b63 .LASF3606
C:\Users\CYMR90~1\AppData\Local\Temp\ccYj4tTD.s:28034  .debug_str:000000000001f0d5 .LASF3607
C:\Users\CYMR90~1\AppData\Local\Temp\ccYj4tTD.s:23819  .debug_str:000000000000e16b .LASF3608
C:\Users\CYMR90~1\AppData\Local\Temp\ccYj4tTD.s:31126  .debug_str:000000000002b310 .LASF3609
C:\Users\CYMR90~1\AppData\Local\Temp\ccYj4tTD.s:28686  .debug_str:00000000000218e4 .LASF3610
C:\Users\CYMR90~1\AppData\Local\Temp\ccYj4tTD.s:26064  .debug_str:00000000000171c2 .LASF3611
C:\Users\CYMR90~1\AppData\Local\Temp\ccYj4tTD.s:27588  .debug_str:000000000001d4ee .LASF3612
C:\Users\CYMR90~1\AppData\Local\Temp\ccYj4tTD.s:26112  .debug_str:000000000001747f .LASF3613
C:\Users\CYMR90~1\AppData\Local\Temp\ccYj4tTD.s:29600  .debug_str:000000000002518e .LASF3614
C:\Users\CYMR90~1\AppData\Local\Temp\ccYj4tTD.s:27742  .debug_str:000000000001df56 .LASF3615
C:\Users\CYMR90~1\AppData\Local\Temp\ccYj4tTD.s:28658  .debug_str:000000000002174a .LASF3616
C:\Users\CYMR90~1\AppData\Local\Temp\ccYj4tTD.s:24373  .debug_str:000000000001037e .LASF3617
C:\Users\CYMR90~1\AppData\Local\Temp\ccYj4tTD.s:25509  .debug_str:0000000000014c4f .LASF3618
C:\Users\CYMR90~1\AppData\Local\Temp\ccYj4tTD.s:31500  .debug_str:000000000002cbb6 .LASF3619
C:\Users\CYMR90~1\AppData\Local\Temp\ccYj4tTD.s:23543  .debug_str:000000000000d00e .LASF3620
C:\Users\CYMR90~1\AppData\Local\Temp\ccYj4tTD.s:26344  .debug_str:0000000000018302 .LASF3621
C:\Users\CYMR90~1\AppData\Local\Temp\ccYj4tTD.s:22701  .debug_str:000000000000984e .LASF3622
C:\Users\CYMR90~1\AppData\Local\Temp\ccYj4tTD.s:29866  .debug_str:000000000002639e .LASF3623
C:\Users\CYMR90~1\AppData\Local\Temp\ccYj4tTD.s:30944  .debug_str:000000000002a826 .LASF3624
C:\Users\CYMR90~1\AppData\Local\Temp\ccYj4tTD.s:23243  .debug_str:000000000000bbfa .LASF3625
C:\Users\CYMR90~1\AppData\Local\Temp\ccYj4tTD.s:30346  .debug_str:000000000002834c .LASF3626
C:\Users\CYMR90~1\AppData\Local\Temp\ccYj4tTD.s:27244  .debug_str:000000000001be0f .LASF3627
C:\Users\CYMR90~1\AppData\Local\Temp\ccYj4tTD.s:30816  .debug_str:000000000002a06b .LASF3628
C:\Users\CYMR90~1\AppData\Local\Temp\ccYj4tTD.s:20861  .debug_str:000000000000228f .LASF3629
C:\Users\CYMR90~1\AppData\Local\Temp\ccYj4tTD.s:23629  .debug_str:000000000000d61e .LASF3630
C:\Users\CYMR90~1\AppData\Local\Temp\ccYj4tTD.s:26686  .debug_str:0000000000019a35 .LASF3631
C:\Users\CYMR90~1\AppData\Local\Temp\ccYj4tTD.s:26610  .debug_str:00000000000194c8 .LASF3632
C:\Users\CYMR90~1\AppData\Local\Temp\ccYj4tTD.s:27034  .debug_str:000000000001b145 .LASF3633
C:\Users\CYMR90~1\AppData\Local\Temp\ccYj4tTD.s:20869  .debug_str:00000000000022f9 .LASF3634
C:\Users\CYMR90~1\AppData\Local\Temp\ccYj4tTD.s:30268  .debug_str:0000000000027d43 .LASF3635
C:\Users\CYMR90~1\AppData\Local\Temp\ccYj4tTD.s:27678  .debug_str:000000000001daec .LASF3636
C:\Users\CYMR90~1\AppData\Local\Temp\ccYj4tTD.s:29618  .debug_str:000000000002535f .LASF3637
C:\Users\CYMR90~1\AppData\Local\Temp\ccYj4tTD.s:28908  .debug_str:00000000000225fc .LASF3638
C:\Users\CYMR90~1\AppData\Local\Temp\ccYj4tTD.s:28450  .debug_str:0000000000020a3f .LASF3639
C:\Users\CYMR90~1\AppData\Local\Temp\ccYj4tTD.s:22391  .debug_str:000000000000854c .LASF3640
C:\Users\CYMR90~1\AppData\Local\Temp\ccYj4tTD.s:31068  .debug_str:000000000002af86 .LASF3641
C:\Users\CYMR90~1\AppData\Local\Temp\ccYj4tTD.s:20415  .debug_str:000000000000079a .LASF3642
C:\Users\CYMR90~1\AppData\Local\Temp\ccYj4tTD.s:28960  .debug_str:0000000000022922 .LASF3643
C:\Users\CYMR90~1\AppData\Local\Temp\ccYj4tTD.s:25413  .debug_str:0000000000014695 .LASF3644
C:\Users\CYMR90~1\AppData\Local\Temp\ccYj4tTD.s:29232  .debug_str:000000000002396f .LASF3645
C:\Users\CYMR90~1\AppData\Local\Temp\ccYj4tTD.s:26866  .debug_str:000000000001a615 .LASF3646
C:\Users\CYMR90~1\AppData\Local\Temp\ccYj4tTD.s:26014  .debug_str:0000000000016ed7 .LASF3647
C:\Users\CYMR90~1\AppData\Local\Temp\ccYj4tTD.s:26456  .debug_str:0000000000018a00 .LASF3648
C:\Users\CYMR90~1\AppData\Local\Temp\ccYj4tTD.s:30890  .debug_str:000000000002a49e .LASF3649
C:\Users\CYMR90~1\AppData\Local\Temp\ccYj4tTD.s:23591  .debug_str:000000000000d34e .LASF3650
C:\Users\CYMR90~1\AppData\Local\Temp\ccYj4tTD.s:26062  .debug_str:00000000000171a5 .LASF3651
C:\Users\CYMR90~1\AppData\Local\Temp\ccYj4tTD.s:25389  .debug_str:00000000000144bd .LASF3652
C:\Users\CYMR90~1\AppData\Local\Temp\ccYj4tTD.s:25483  .debug_str:0000000000014abb .LASF3653
C:\Users\CYMR90~1\AppData\Local\Temp\ccYj4tTD.s:27822  .debug_str:000000000001e3fc .LASF3654
C:\Users\CYMR90~1\AppData\Local\Temp\ccYj4tTD.s:30688  .debug_str:0000000000029926 .LASF3655
C:\Users\CYMR90~1\AppData\Local\Temp\ccYj4tTD.s:21005  .debug_str:0000000000002bee .LASF3656
C:\Users\CYMR90~1\AppData\Local\Temp\ccYj4tTD.s:28016  .debug_str:000000000001ef7d .LASF3657
C:\Users\CYMR90~1\AppData\Local\Temp\ccYj4tTD.s:22823  .debug_str:000000000000a009 .LASF3658
C:\Users\CYMR90~1\AppData\Local\Temp\ccYj4tTD.s:21125  .debug_str:0000000000003382 .LASF3659
C:\Users\CYMR90~1\AppData\Local\Temp\ccYj4tTD.s:23065  .debug_str:000000000000b08e .LASF3660
C:\Users\CYMR90~1\AppData\Local\Temp\ccYj4tTD.s:22003  .debug_str:0000000000006a59 .LASF3661
C:\Users\CYMR90~1\AppData\Local\Temp\ccYj4tTD.s:29542  .debug_str:0000000000024d91 .LASF3662
C:\Users\CYMR90~1\AppData\Local\Temp\ccYj4tTD.s:26930  .debug_str:000000000001aa7c .LASF3663
C:\Users\CYMR90~1\AppData\Local\Temp\ccYj4tTD.s:26788  .debug_str:000000000001a042 .LASF3664
C:\Users\CYMR90~1\AppData\Local\Temp\ccYj4tTD.s:21961  .debug_str:00000000000067d4 .LASF3665
C:\Users\CYMR90~1\AppData\Local\Temp\ccYj4tTD.s:23913  .debug_str:000000000000e731 .LASF3666
C:\Users\CYMR90~1\AppData\Local\Temp\ccYj4tTD.s:23757  .debug_str:000000000000dd89 .LASF3667
C:\Users\CYMR90~1\AppData\Local\Temp\ccYj4tTD.s:22397  .debug_str:000000000000859f .LASF3668
C:\Users\CYMR90~1\AppData\Local\Temp\ccYj4tTD.s:22587  .debug_str:0000000000009144 .LASF3669
C:\Users\CYMR90~1\AppData\Local\Temp\ccYj4tTD.s:23165  .debug_str:000000000000b6e9 .LASF3670
C:\Users\CYMR90~1\AppData\Local\Temp\ccYj4tTD.s:21149  .debug_str:0000000000003507 .LASF3671
C:\Users\CYMR90~1\AppData\Local\Temp\ccYj4tTD.s:22515  .debug_str:0000000000008cc2 .LASF3672
C:\Users\CYMR90~1\AppData\Local\Temp\ccYj4tTD.s:20337  .debug_str:00000000000002e6 .LASF3673
C:\Users\CYMR90~1\AppData\Local\Temp\ccYj4tTD.s:26058  .debug_str:0000000000017177 .LASF3674
C:\Users\CYMR90~1\AppData\Local\Temp\ccYj4tTD.s:23315  .debug_str:000000000000c165 .LASF3675
C:\Users\CYMR90~1\AppData\Local\Temp\ccYj4tTD.s:29166  .debug_str:000000000002352c .LASF3676
C:\Users\CYMR90~1\AppData\Local\Temp\ccYj4tTD.s:31242  .debug_str:000000000002bacd .LASF3677
C:\Users\CYMR90~1\AppData\Local\Temp\ccYj4tTD.s:24865  .debug_str:0000000000012310 .LASF3678
C:\Users\CYMR90~1\AppData\Local\Temp\ccYj4tTD.s:24719  .debug_str:00000000000119ec .LASF3679
C:\Users\CYMR90~1\AppData\Local\Temp\ccYj4tTD.s:27048  .debug_str:000000000001b257 .LASF3680
C:\Users\CYMR90~1\AppData\Local\Temp\ccYj4tTD.s:29180  .debug_str:0000000000023639 .LASF3681
C:\Users\CYMR90~1\AppData\Local\Temp\ccYj4tTD.s:30620  .debug_str:00000000000294c3 .LASF3682
C:\Users\CYMR90~1\AppData\Local\Temp\ccYj4tTD.s:26702  .debug_str:0000000000019b25 .LASF3683
C:\Users\CYMR90~1\AppData\Local\Temp\ccYj4tTD.s:28000  .debug_str:000000000001ee71 .LASF3684
C:\Users\CYMR90~1\AppData\Local\Temp\ccYj4tTD.s:27746  .debug_str:000000000001df99 .LASF3685
C:\Users\CYMR90~1\AppData\Local\Temp\ccYj4tTD.s:29950  .debug_str:00000000000268db .LASF3686
C:\Users\CYMR90~1\AppData\Local\Temp\ccYj4tTD.s:20515  .debug_str:0000000000000dd4 .LASF3687
C:\Users\CYMR90~1\AppData\Local\Temp\ccYj4tTD.s:23983  .debug_str:000000000000ebaf .LASF3688
C:\Users\CYMR90~1\AppData\Local\Temp\ccYj4tTD.s:31324  .debug_str:000000000002c06f .LASF3689
C:\Users\CYMR90~1\AppData\Local\Temp\ccYj4tTD.s:30094  .debug_str:000000000002715d .LASF3690
C:\Users\CYMR90~1\AppData\Local\Temp\ccYj4tTD.s:20991  .debug_str:0000000000002abe .LASF3691
C:\Users\CYMR90~1\AppData\Local\Temp\ccYj4tTD.s:20665  .debug_str:00000000000016a3 .LASF3692
C:\Users\CYMR90~1\AppData\Local\Temp\ccYj4tTD.s:22121  .debug_str:00000000000072f2 .LASF3693
C:\Users\CYMR90~1\AppData\Local\Temp\ccYj4tTD.s:23517  .debug_str:000000000000ce4f .LASF3694
C:\Users\CYMR90~1\AppData\Local\Temp\ccYj4tTD.s:21861  .debug_str:0000000000006217 .LASF3695
C:\Users\CYMR90~1\AppData\Local\Temp\ccYj4tTD.s:28548  .debug_str:0000000000021015 .LASF3696
C:\Users\CYMR90~1\AppData\Local\Temp\ccYj4tTD.s:28816  .debug_str:00000000000220b1 .LASF3697
C:\Users\CYMR90~1\AppData\Local\Temp\ccYj4tTD.s:22679  .debug_str:0000000000009711 .LASF3698
C:\Users\CYMR90~1\AppData\Local\Temp\ccYj4tTD.s:29228  .debug_str:0000000000023941 .LASF3699
C:\Users\CYMR90~1\AppData\Local\Temp\ccYj4tTD.s:31450  .debug_str:000000000002c82b .LASF3700
C:\Users\CYMR90~1\AppData\Local\Temp\ccYj4tTD.s:24307  .debug_str:000000000000ff7a .LASF3701
C:\Users\CYMR90~1\AppData\Local\Temp\ccYj4tTD.s:23807  .debug_str:000000000000e0b2 .LASF3702
C:\Users\CYMR90~1\AppData\Local\Temp\ccYj4tTD.s:27944  .debug_str:000000000001eb36 .LASF3703
C:\Users\CYMR90~1\AppData\Local\Temp\ccYj4tTD.s:21447  .debug_str:00000000000048ae .LASF3704
C:\Users\CYMR90~1\AppData\Local\Temp\ccYj4tTD.s:20737  .debug_str:0000000000001bb8 .LASF3705
C:\Users\CYMR90~1\AppData\Local\Temp\ccYj4tTD.s:22763  .debug_str:0000000000009c55 .LASF3706
C:\Users\CYMR90~1\AppData\Local\Temp\ccYj4tTD.s:29078  .debug_str:000000000002303c .LASF3707
C:\Users\CYMR90~1\AppData\Local\Temp\ccYj4tTD.s:24751  .debug_str:0000000000011be9 .LASF3708
C:\Users\CYMR90~1\AppData\Local\Temp\ccYj4tTD.s:25289  .debug_str:0000000000013eaf .LASF3709
C:\Users\CYMR90~1\AppData\Local\Temp\ccYj4tTD.s:22645  .debug_str:00000000000094b2 .LASF3710
C:\Users\CYMR90~1\AppData\Local\Temp\ccYj4tTD.s:26948  .debug_str:000000000001aba3 .LASF3711
C:\Users\CYMR90~1\AppData\Local\Temp\ccYj4tTD.s:26532  .debug_str:0000000000018f39 .LASF3712
C:\Users\CYMR90~1\AppData\Local\Temp\ccYj4tTD.s:28398  .debug_str:0000000000020729 .LASF3713
C:\Users\CYMR90~1\AppData\Local\Temp\ccYj4tTD.s:26214  .debug_str:0000000000017b13 .LASF3714
C:\Users\CYMR90~1\AppData\Local\Temp\ccYj4tTD.s:30386  .debug_str:00000000000285ec .LASF3715
C:\Users\CYMR90~1\AppData\Local\Temp\ccYj4tTD.s:23817  .debug_str:000000000000e14c .LASF3716
C:\Users\CYMR90~1\AppData\Local\Temp\ccYj4tTD.s:22309  .debug_str:0000000000007f47 .LASF3717
C:\Users\CYMR90~1\AppData\Local\Temp\ccYj4tTD.s:31382  .debug_str:000000000002c3d2 .LASF3718
C:\Users\CYMR90~1\AppData\Local\Temp\ccYj4tTD.s:25611  .debug_str:000000000001532e .LASF3719
C:\Users\CYMR90~1\AppData\Local\Temp\ccYj4tTD.s:27320  .debug_str:000000000001c2bc .LASF3720
C:\Users\CYMR90~1\AppData\Local\Temp\ccYj4tTD.s:26760  .debug_str:0000000000019e97 .LASF3721
C:\Users\CYMR90~1\AppData\Local\Temp\ccYj4tTD.s:29366  .debug_str:00000000000241b4 .LASF3722
C:\Users\CYMR90~1\AppData\Local\Temp\ccYj4tTD.s:28598  .debug_str:0000000000021389 .LASF3723
C:\Users\CYMR90~1\AppData\Local\Temp\ccYj4tTD.s:23193  .debug_str:000000000000b8cb .LASF3724
C:\Users\CYMR90~1\AppData\Local\Temp\ccYj4tTD.s:26810  .debug_str:000000000001a175 .LASF3725
C:\Users\CYMR90~1\AppData\Local\Temp\ccYj4tTD.s:20303  .debug_str:00000000000000dc .LASF3726
C:\Users\CYMR90~1\AppData\Local\Temp\ccYj4tTD.s:24713  .debug_str:00000000000118f7 .LASF3727
C:\Users\CYMR90~1\AppData\Local\Temp\ccYj4tTD.s:28638  .debug_str:00000000000215f0 .LASF3728
C:\Users\CYMR90~1\AppData\Local\Temp\ccYj4tTD.s:28904  .debug_str:00000000000225bb .LASF3729
C:\Users\CYMR90~1\AppData\Local\Temp\ccYj4tTD.s:25797  .debug_str:0000000000015e6c .LASF3730
C:\Users\CYMR90~1\AppData\Local\Temp\ccYj4tTD.s:30748  .debug_str:0000000000029c7f .LASF3731
C:\Users\CYMR90~1\AppData\Local\Temp\ccYj4tTD.s:23419  .debug_str:000000000000c7c2 .LASF3732
C:\Users\CYMR90~1\AppData\Local\Temp\ccYj4tTD.s:31564  .debug_str:000000000002cf9e .LASF3733
C:\Users\CYMR90~1\AppData\Local\Temp\ccYj4tTD.s:29206  .debug_str:00000000000237e7 .LASF3734
C:\Users\CYMR90~1\AppData\Local\Temp\ccYj4tTD.s:29634  .debug_str:0000000000025450 .LASF3735
C:\Users\CYMR90~1\AppData\Local\Temp\ccYj4tTD.s:24753  .debug_str:0000000000011bfe .LASF3736
C:\Users\CYMR90~1\AppData\Local\Temp\ccYj4tTD.s:25113  .debug_str:00000000000133e4 .LASF3737
C:\Users\CYMR90~1\AppData\Local\Temp\ccYj4tTD.s:20761  .debug_str:0000000000001d08 .LASF3738
C:\Users\CYMR90~1\AppData\Local\Temp\ccYj4tTD.s:22091  .debug_str:000000000000708c .LASF3739
C:\Users\CYMR90~1\AppData\Local\Temp\ccYj4tTD.s:31198  .debug_str:000000000002b7cb .LASF3740
C:\Users\CYMR90~1\AppData\Local\Temp\ccYj4tTD.s:25827  .debug_str:00000000000160a5 .LASF3741
C:\Users\CYMR90~1\AppData\Local\Temp\ccYj4tTD.s:26622  .debug_str:0000000000019581 .LASF3742
C:\Users\CYMR90~1\AppData\Local\Temp\ccYj4tTD.s:23313  .debug_str:000000000000c140 .LASF3743
C:\Users\CYMR90~1\AppData\Local\Temp\ccYj4tTD.s:24961  .debug_str:000000000001295d .LASF3744
C:\Users\CYMR90~1\AppData\Local\Temp\ccYj4tTD.s:20535  .debug_str:0000000000000f7c .LASF3745
C:\Users\CYMR90~1\AppData\Local\Temp\ccYj4tTD.s:26894  .debug_str:000000000001a7ea .LASF3746
C:\Users\CYMR90~1\AppData\Local\Temp\ccYj4tTD.s:21365  .debug_str:0000000000004308 .LASF3747
C:\Users\CYMR90~1\AppData\Local\Temp\ccYj4tTD.s:27134  .debug_str:000000000001b773 .LASF3748
C:\Users\CYMR90~1\AppData\Local\Temp\ccYj4tTD.s:21635  .debug_str:0000000000005476 .LASF3749
C:\Users\CYMR90~1\AppData\Local\Temp\ccYj4tTD.s:22745  .debug_str:0000000000009b33 .LASF3750
C:\Users\CYMR90~1\AppData\Local\Temp\ccYj4tTD.s:21905  .debug_str:00000000000064b1 .LASF3751
C:\Users\CYMR90~1\AppData\Local\Temp\ccYj4tTD.s:27636  .debug_str:000000000001d803 .LASF3752
C:\Users\CYMR90~1\AppData\Local\Temp\ccYj4tTD.s:30120  .debug_str:00000000000273da .LASF3753
C:\Users\CYMR90~1\AppData\Local\Temp\ccYj4tTD.s:28838  .debug_str:00000000000221ff .LASF3754
C:\Users\CYMR90~1\AppData\Local\Temp\ccYj4tTD.s:21945  .debug_str:0000000000006705 .LASF3755
C:\Users\CYMR90~1\AppData\Local\Temp\ccYj4tTD.s:30758  .debug_str:0000000000029d2c .LASF3756
C:\Users\CYMR90~1\AppData\Local\Temp\ccYj4tTD.s:28094  .debug_str:000000000001f47d .LASF3757
C:\Users\CYMR90~1\AppData\Local\Temp\ccYj4tTD.s:24009  .debug_str:000000000000ed1a .LASF3758
C:\Users\CYMR90~1\AppData\Local\Temp\ccYj4tTD.s:23017  .debug_str:000000000000accb .LASF3759
C:\Users\CYMR90~1\AppData\Local\Temp\ccYj4tTD.s:20399  .debug_str:000000000000067b .LASF3760
C:\Users\CYMR90~1\AppData\Local\Temp\ccYj4tTD.s:24249  .debug_str:000000000000fbf2 .LASF3761
C:\Users\CYMR90~1\AppData\Local\Temp\ccYj4tTD.s:23199  .debug_str:000000000000b921 .LASF3762
C:\Users\CYMR90~1\AppData\Local\Temp\ccYj4tTD.s:23963  .debug_str:000000000000ea6d .LASF3763
C:\Users\CYMR90~1\AppData\Local\Temp\ccYj4tTD.s:22127  .debug_str:000000000000735b .LASF3764
C:\Users\CYMR90~1\AppData\Local\Temp\ccYj4tTD.s:30188  .debug_str:00000000000277c7 .LASF3765
C:\Users\CYMR90~1\AppData\Local\Temp\ccYj4tTD.s:27560  .debug_str:000000000001d315 .LASF3766
C:\Users\CYMR90~1\AppData\Local\Temp\ccYj4tTD.s:25057  .debug_str:0000000000012fa8 .LASF3767
C:\Users\CYMR90~1\AppData\Local\Temp\ccYj4tTD.s:27150  .debug_str:000000000001b86a .LASF3768
C:\Users\CYMR90~1\AppData\Local\Temp\ccYj4tTD.s:31160  .debug_str:000000000002b56e .LASF3769
C:\Users\CYMR90~1\AppData\Local\Temp\ccYj4tTD.s:24391  .debug_str:0000000000010466 .LASF3770
C:\Users\CYMR90~1\AppData\Local\Temp\ccYj4tTD.s:30416  .debug_str:0000000000028827 .LASF3771
C:\Users\CYMR90~1\AppData\Local\Temp\ccYj4tTD.s:23399  .debug_str:000000000000c68d .LASF3772
C:\Users\CYMR90~1\AppData\Local\Temp\ccYj4tTD.s:20843  .debug_str:0000000000002197 .LASF3773
C:\Users\CYMR90~1\AppData\Local\Temp\ccYj4tTD.s:24369  .debug_str:0000000000010340 .LASF3774
C:\Users\CYMR90~1\AppData\Local\Temp\ccYj4tTD.s:25425  .debug_str:0000000000014738 .LASF3775
C:\Users\CYMR90~1\AppData\Local\Temp\ccYj4tTD.s:24499  .debug_str:0000000000010b27 .LASF3776
C:\Users\CYMR90~1\AppData\Local\Temp\ccYj4tTD.s:28818  .debug_str:00000000000220c9 .LASF3777
C:\Users\CYMR90~1\AppData\Local\Temp\ccYj4tTD.s:25173  .debug_str:0000000000013795 .LASF3778
C:\Users\CYMR90~1\AppData\Local\Temp\ccYj4tTD.s:22299  .debug_str:0000000000007eb2 .LASF3779
C:\Users\CYMR90~1\AppData\Local\Temp\ccYj4tTD.s:29054  .debug_str:0000000000022ecb .LASF3780
C:\Users\CYMR90~1\AppData\Local\Temp\ccYj4tTD.s:31200  .debug_str:000000000002b7ef .LASF3781
C:\Users\CYMR90~1\AppData\Local\Temp\ccYj4tTD.s:30732  .debug_str:0000000000029b89 .LASF3782
C:\Users\CYMR90~1\AppData\Local\Temp\ccYj4tTD.s:27234  .debug_str:000000000001bd47 .LASF3783
C:\Users\CYMR90~1\AppData\Local\Temp\ccYj4tTD.s:22095  .debug_str:00000000000070ce .LASF3784
C:\Users\CYMR90~1\AppData\Local\Temp\ccYj4tTD.s:21681  .debug_str:0000000000005725 .LASF3785
C:\Users\CYMR90~1\AppData\Local\Temp\ccYj4tTD.s:22181  .debug_str:0000000000007695 .LASF3786
C:\Users\CYMR90~1\AppData\Local\Temp\ccYj4tTD.s:21141  .debug_str:000000000000348c .LASF3787
C:\Users\CYMR90~1\AppData\Local\Temp\ccYj4tTD.s:29446  .debug_str:000000000002470c .LASF3788
C:\Users\CYMR90~1\AppData\Local\Temp\ccYj4tTD.s:24317  .debug_str:000000000000fff4 .LASF3789
C:\Users\CYMR90~1\AppData\Local\Temp\ccYj4tTD.s:22489  .debug_str:0000000000008b3a .LASF3790
C:\Users\CYMR90~1\AppData\Local\Temp\ccYj4tTD.s:22597  .debug_str:00000000000091f7 .LASF3791
C:\Users\CYMR90~1\AppData\Local\Temp\ccYj4tTD.s:28706  .debug_str:00000000000219f2 .LASF3792
C:\Users\CYMR90~1\AppData\Local\Temp\ccYj4tTD.s:30668  .debug_str:00000000000297e8 .LASF3793
C:\Users\CYMR90~1\AppData\Local\Temp\ccYj4tTD.s:28962  .debug_str:000000000002293c .LASF3794
C:\Users\CYMR90~1\AppData\Local\Temp\ccYj4tTD.s:30554  .debug_str:000000000002906d .LASF3795
C:\Users\CYMR90~1\AppData\Local\Temp\ccYj4tTD.s:20429  .debug_str:000000000000086d .LASF3796
C:\Users\CYMR90~1\AppData\Local\Temp\ccYj4tTD.s:28786  .debug_str:0000000000021eee .LASF3797
C:\Users\CYMR90~1\AppData\Local\Temp\ccYj4tTD.s:26016  .debug_str:0000000000016eef .LASF3798
C:\Users\CYMR90~1\AppData\Local\Temp\ccYj4tTD.s:23025  .debug_str:000000000000ad3f .LASF3799
C:\Users\CYMR90~1\AppData\Local\Temp\ccYj4tTD.s:23575  .debug_str:000000000000d234 .LASF3800
C:\Users\CYMR90~1\AppData\Local\Temp\ccYj4tTD.s:22081  .debug_str:0000000000006f86 .LASF3801
C:\Users\CYMR90~1\AppData\Local\Temp\ccYj4tTD.s:25629  .debug_str:0000000000015413 .LASF3802
C:\Users\CYMR90~1\AppData\Local\Temp\ccYj4tTD.s:23445  .debug_str:000000000000ca0c .LASF3803
C:\Users\CYMR90~1\AppData\Local\Temp\ccYj4tTD.s:29074  .debug_str:0000000000022ffd .LASF3804
C:\Users\CYMR90~1\AppData\Local\Temp\ccYj4tTD.s:27046  .debug_str:000000000001b214 .LASF3805
C:\Users\CYMR90~1\AppData\Local\Temp\ccYj4tTD.s:29008  .debug_str:0000000000022c62 .LASF3806
C:\Users\CYMR90~1\AppData\Local\Temp\ccYj4tTD.s:26154  .debug_str:000000000001773e .LASF3807
C:\Users\CYMR90~1\AppData\Local\Temp\ccYj4tTD.s:23879  .debug_str:000000000000e4e1 .LASF3808
C:\Users\CYMR90~1\AppData\Local\Temp\ccYj4tTD.s:28064  .debug_str:000000000001f273 .LASF3809
C:\Users\CYMR90~1\AppData\Local\Temp\ccYj4tTD.s:23079  .debug_str:000000000000b163 .LASF3810
C:\Users\CYMR90~1\AppData\Local\Temp\ccYj4tTD.s:25335  .debug_str:00000000000141cb .LASF3811
C:\Users\CYMR90~1\AppData\Local\Temp\ccYj4tTD.s:26292  .debug_str:0000000000017fdb .LASF3812
C:\Users\CYMR90~1\AppData\Local\Temp\ccYj4tTD.s:30006  .debug_str:0000000000026c0e .LASF3813
C:\Users\CYMR90~1\AppData\Local\Temp\ccYj4tTD.s:22869  .debug_str:000000000000a2d9 .LASF3814
C:\Users\CYMR90~1\AppData\Local\Temp\ccYj4tTD.s:21603  .debug_str:0000000000005282 .LASF3815
C:\Users\CYMR90~1\AppData\Local\Temp\ccYj4tTD.s:26590  .debug_str:0000000000019372 .LASF3816
C:\Users\CYMR90~1\AppData\Local\Temp\ccYj4tTD.s:23123  .debug_str:000000000000b3dd .LASF3817
C:\Users\CYMR90~1\AppData\Local\Temp\ccYj4tTD.s:23849  .debug_str:000000000000e33f .LASF3818
C:\Users\CYMR90~1\AppData\Local\Temp\ccYj4tTD.s:31300  .debug_str:000000000002be98 .LASF3819
C:\Users\CYMR90~1\AppData\Local\Temp\ccYj4tTD.s:31146  .debug_str:000000000002b470 .LASF3820
C:\Users\CYMR90~1\AppData\Local\Temp\ccYj4tTD.s:23713  .debug_str:000000000000db03 .LASF3821
C:\Users\CYMR90~1\AppData\Local\Temp\ccYj4tTD.s:21689  .debug_str:0000000000005794 .LASF3822
C:\Users\CYMR90~1\AppData\Local\Temp\ccYj4tTD.s:30788  .debug_str:0000000000029ed9 .LASF3823
C:\Users\CYMR90~1\AppData\Local\Temp\ccYj4tTD.s:28510  .debug_str:0000000000020dfd .LASF3824
C:\Users\CYMR90~1\AppData\Local\Temp\ccYj4tTD.s:21693  .debug_str:00000000000057f4 .LASF3825
C:\Users\CYMR90~1\AppData\Local\Temp\ccYj4tTD.s:25747  .debug_str:0000000000015af6 .LASF3826
C:\Users\CYMR90~1\AppData\Local\Temp\ccYj4tTD.s:21787  .debug_str:0000000000005d83 .LASF3827
C:\Users\CYMR90~1\AppData\Local\Temp\ccYj4tTD.s:25221  .debug_str:0000000000013a7b .LASF3828
C:\Users\CYMR90~1\AppData\Local\Temp\ccYj4tTD.s:28698  .debug_str:0000000000021978 .LASF3829
C:\Users\CYMR90~1\AppData\Local\Temp\ccYj4tTD.s:29814  .debug_str:00000000000260a0 .LASF3830
C:\Users\CYMR90~1\AppData\Local\Temp\ccYj4tTD.s:21517  .debug_str:0000000000004d79 .LASF3831
C:\Users\CYMR90~1\AppData\Local\Temp\ccYj4tTD.s:29292  .debug_str:0000000000023ce1 .LASF3832
C:\Users\CYMR90~1\AppData\Local\Temp\ccYj4tTD.s:28432  .debug_str:0000000000020948 .LASF3833
C:\Users\CYMR90~1\AppData\Local\Temp\ccYj4tTD.s:30942  .debug_str:000000000002a802 .LASF3834
C:\Users\CYMR90~1\AppData\Local\Temp\ccYj4tTD.s:23985  .debug_str:000000000000ebc7 .LASF3835
C:\Users\CYMR90~1\AppData\Local\Temp\ccYj4tTD.s:21217  .debug_str:0000000000003933 .LASF3836
C:\Users\CYMR90~1\AppData\Local\Temp\ccYj4tTD.s:23351  .debug_str:000000000000c391 .LASF3837
C:\Users\CYMR90~1\AppData\Local\Temp\ccYj4tTD.s:28522  .debug_str:0000000000020e9f .LASF3838
C:\Users\CYMR90~1\AppData\Local\Temp\ccYj4tTD.s:26394  .debug_str:0000000000018602 .LASF3839
C:\Users\CYMR90~1\AppData\Local\Temp\ccYj4tTD.s:27478  .debug_str:000000000001cd16 .LASF3840
C:\Users\CYMR90~1\AppData\Local\Temp\ccYj4tTD.s:30528  .debug_str:0000000000028ee2 .LASF3841
C:\Users\CYMR90~1\AppData\Local\Temp\ccYj4tTD.s:28346  .debug_str:000000000002039b .LASF3842
C:\Users\CYMR90~1\AppData\Local\Temp\ccYj4tTD.s:31474  .debug_str:000000000002c9ed .LASF3843
C:\Users\CYMR90~1\AppData\Local\Temp\ccYj4tTD.s:21185  .debug_str:0000000000003729 .LASF3844
C:\Users\CYMR90~1\AppData\Local\Temp\ccYj4tTD.s:29616  .debug_str:0000000000025335 .LASF3845
C:\Users\CYMR90~1\AppData\Local\Temp\ccYj4tTD.s:20553  .debug_str:000000000000105e .LASF3846
C:\Users\CYMR90~1\AppData\Local\Temp\ccYj4tTD.s:27640  .debug_str:000000000001d84a .LASF3847
C:\Users\CYMR90~1\AppData\Local\Temp\ccYj4tTD.s:25091  .debug_str:00000000000131cb .LASF3848
C:\Users\CYMR90~1\AppData\Local\Temp\ccYj4tTD.s:31558  .debug_str:000000000002cf50 .LASF3849
C:\Users\CYMR90~1\AppData\Local\Temp\ccYj4tTD.s:20979  .debug_str:0000000000002a09 .LASF3850
C:\Users\CYMR90~1\AppData\Local\Temp\ccYj4tTD.s:30064  .debug_str:0000000000026fb5 .LASF3851
C:\Users\CYMR90~1\AppData\Local\Temp\ccYj4tTD.s:24947  .debug_str:0000000000012859 .LASF3852
C:\Users\CYMR90~1\AppData\Local\Temp\ccYj4tTD.s:28338  .debug_str:00000000000202e1 .LASF3853
C:\Users\CYMR90~1\AppData\Local\Temp\ccYj4tTD.s:28476  .debug_str:0000000000020bf8 .LASF3854
C:\Users\CYMR90~1\AppData\Local\Temp\ccYj4tTD.s:20513  .debug_str:0000000000000db2 .LASF3855
C:\Users\CYMR90~1\AppData\Local\Temp\ccYj4tTD.s:27704  .debug_str:000000000001dc5a .LASF3856
C:\Users\CYMR90~1\AppData\Local\Temp\ccYj4tTD.s:22031  .debug_str:0000000000006c22 .LASF3857
C:\Users\CYMR90~1\AppData\Local\Temp\ccYj4tTD.s:30316  .debug_str:0000000000028091 .LASF3858
C:\Users\CYMR90~1\AppData\Local\Temp\ccYj4tTD.s:24851  .debug_str:0000000000012203 .LASF3859
C:\Users\CYMR90~1\AppData\Local\Temp\ccYj4tTD.s:27842  .debug_str:000000000001e512 .LASF3860
C:\Users\CYMR90~1\AppData\Local\Temp\ccYj4tTD.s:26758  .debug_str:0000000000019e67 .LASF3861
C:\Users\CYMR90~1\AppData\Local\Temp\ccYj4tTD.s:25517  .debug_str:0000000000014cf0 .LASF3862
C:\Users\CYMR90~1\AppData\Local\Temp\ccYj4tTD.s:24339  .debug_str:000000000001017f .LASF3863
C:\Users\CYMR90~1\AppData\Local\Temp\ccYj4tTD.s:31188  .debug_str:000000000002b717 .LASF3864
C:\Users\CYMR90~1\AppData\Local\Temp\ccYj4tTD.s:29530  .debug_str:0000000000024ca5 .LASF3865
C:\Users\CYMR90~1\AppData\Local\Temp\ccYj4tTD.s:20723  .debug_str:0000000000001aba .LASF3866
C:\Users\CYMR90~1\AppData\Local\Temp\ccYj4tTD.s:30304  .debug_str:0000000000027f6d .LASF3867
C:\Users\CYMR90~1\AppData\Local\Temp\ccYj4tTD.s:30546  .debug_str:0000000000028fd4 .LASF3868
C:\Users\CYMR90~1\AppData\Local\Temp\ccYj4tTD.s:23533  .debug_str:000000000000cf46 .LASF3869
C:\Users\CYMR90~1\AppData\Local\Temp\ccYj4tTD.s:31422  .debug_str:000000000002c698 .LASF3870
C:\Users\CYMR90~1\AppData\Local\Temp\ccYj4tTD.s:22971  .debug_str:000000000000a9cc .LASF3871
C:\Users\CYMR90~1\AppData\Local\Temp\ccYj4tTD.s:29546  .debug_str:0000000000024dcb .LASF3872
C:\Users\CYMR90~1\AppData\Local\Temp\ccYj4tTD.s:22827  .debug_str:000000000000a036 .LASF3873
C:\Users\CYMR90~1\AppData\Local\Temp\ccYj4tTD.s:28582  .debug_str:00000000000211f0 .LASF3874
C:\Users\CYMR90~1\AppData\Local\Temp\ccYj4tTD.s:21017  .debug_str:0000000000002c87 .LASF3875
C:\Users\CYMR90~1\AppData\Local\Temp\ccYj4tTD.s:26778  .debug_str:0000000000019f97 .LASF3876
C:\Users\CYMR90~1\AppData\Local\Temp\ccYj4tTD.s:23633  .debug_str:000000000000d653 .LASF3877
C:\Users\CYMR90~1\AppData\Local\Temp\ccYj4tTD.s:21739  .debug_str:0000000000005aa3 .LASF3878
C:\Users\CYMR90~1\AppData\Local\Temp\ccYj4tTD.s:30226  .debug_str:0000000000027a08 .LASF3879
C:\Users\CYMR90~1\AppData\Local\Temp\ccYj4tTD.s:24113  .debug_str:000000000000f32a .LASF3880
C:\Users\CYMR90~1\AppData\Local\Temp\ccYj4tTD.s:23309  .debug_str:000000000000c0de .LASF3881
C:\Users\CYMR90~1\AppData\Local\Temp\ccYj4tTD.s:29184  .debug_str:000000000002366e .LASF3882
C:\Users\CYMR90~1\AppData\Local\Temp\ccYj4tTD.s:20459  .debug_str:0000000000000a3d .LASF3883
C:\Users\CYMR90~1\AppData\Local\Temp\ccYj4tTD.s:24749  .debug_str:0000000000011bb7 .LASF3884
C:\Users\CYMR90~1\AppData\Local\Temp\ccYj4tTD.s:29004  .debug_str:0000000000022c1e .LASF3885
C:\Users\CYMR90~1\AppData\Local\Temp\ccYj4tTD.s:21887  .debug_str:0000000000006389 .LASF3886
C:\Users\CYMR90~1\AppData\Local\Temp\ccYj4tTD.s:23237  .debug_str:000000000000bb9f .LASF3887
C:\Users\CYMR90~1\AppData\Local\Temp\ccYj4tTD.s:24329  .debug_str:00000000000100d6 .LASF3888
C:\Users\CYMR90~1\AppData\Local\Temp\ccYj4tTD.s:28558  .debug_str:0000000000021082 .LASF3889
C:\Users\CYMR90~1\AppData\Local\Temp\ccYj4tTD.s:21527  .debug_str:0000000000004e23 .LASF3890
C:\Users\CYMR90~1\AppData\Local\Temp\ccYj4tTD.s:25729  .debug_str:00000000000159cf .LASF3891
C:\Users\CYMR90~1\AppData\Local\Temp\ccYj4tTD.s:30024  .debug_str:0000000000026d1e .LASF3892
C:\Users\CYMR90~1\AppData\Local\Temp\ccYj4tTD.s:23013  .debug_str:000000000000ac7f .LASF3893
C:\Users\CYMR90~1\AppData\Local\Temp\ccYj4tTD.s:25311  .debug_str:0000000000013fe8 .LASF3894
C:\Users\CYMR90~1\AppData\Local\Temp\ccYj4tTD.s:27732  .debug_str:000000000001de87 .LASF3895
C:\Users\CYMR90~1\AppData\Local\Temp\ccYj4tTD.s:23513  .debug_str:000000000000ce01 .LASF3896
C:\Users\CYMR90~1\AppData\Local\Temp\ccYj4tTD.s:28744  .debug_str:0000000000021c75 .LASF3897
C:\Users\CYMR90~1\AppData\Local\Temp\ccYj4tTD.s:21735  .debug_str:0000000000005a4b .LASF3898
C:\Users\CYMR90~1\AppData\Local\Temp\ccYj4tTD.s:31144  .debug_str:000000000002b43e .LASF3899
C:\Users\CYMR90~1\AppData\Local\Temp\ccYj4tTD.s:24107  .debug_str:000000000000f2a7 .LASF3900
C:\Users\CYMR90~1\AppData\Local\Temp\ccYj4tTD.s:28250  .debug_str:000000000001fdd7 .LASF3901
C:\Users\CYMR90~1\AppData\Local\Temp\ccYj4tTD.s:21229  .debug_str:0000000000003a20 .LASF3902
C:\Users\CYMR90~1\AppData\Local\Temp\ccYj4tTD.s:24181  .debug_str:000000000000f7d4 .LASF3903
C:\Users\CYMR90~1\AppData\Local\Temp\ccYj4tTD.s:29804  .debug_str:0000000000025ff8 .LASF3904
C:\Users\CYMR90~1\AppData\Local\Temp\ccYj4tTD.s:22713  .debug_str:0000000000009950 .LASF3905
C:\Users\CYMR90~1\AppData\Local\Temp\ccYj4tTD.s:27004  .debug_str:000000000001aef9 .LASF3906
C:\Users\CYMR90~1\AppData\Local\Temp\ccYj4tTD.s:21335  .debug_str:00000000000040ad .LASF3907
C:\Users\CYMR90~1\AppData\Local\Temp\ccYj4tTD.s:29364  .debug_str:0000000000024182 .LASF3908
C:\Users\CYMR90~1\AppData\Local\Temp\ccYj4tTD.s:22355  .debug_str:00000000000082e9 .LASF3909
C:\Users\CYMR90~1\AppData\Local\Temp\ccYj4tTD.s:23951  .debug_str:000000000000e979 .LASF3910
C:\Users\CYMR90~1\AppData\Local\Temp\ccYj4tTD.s:30820  .debug_str:000000000002a0a1 .LASF3911
C:\Users\CYMR90~1\AppData\Local\Temp\ccYj4tTD.s:22179  .debug_str:0000000000007663 .LASF3912
C:\Users\CYMR90~1\AppData\Local\Temp\ccYj4tTD.s:28122  .debug_str:000000000001f5f2 .LASF3913
C:\Users\CYMR90~1\AppData\Local\Temp\ccYj4tTD.s:20939  .debug_str:0000000000002778 .LASF3914
C:\Users\CYMR90~1\AppData\Local\Temp\ccYj4tTD.s:26326  .debug_str:00000000000181d7 .LASF3915
C:\Users\CYMR90~1\AppData\Local\Temp\ccYj4tTD.s:29498  .debug_str:0000000000024a8a .LASF3916
C:\Users\CYMR90~1\AppData\Local\Temp\ccYj4tTD.s:22363  .debug_str:0000000000008366 .LASF3917
C:\Users\CYMR90~1\AppData\Local\Temp\ccYj4tTD.s:29770  .debug_str:0000000000025d9e .LASF3918
C:\Users\CYMR90~1\AppData\Local\Temp\ccYj4tTD.s:24893  .debug_str:00000000000124d5 .LASF3919
C:\Users\CYMR90~1\AppData\Local\Temp\ccYj4tTD.s:29060  .debug_str:0000000000022f26 .LASF3920
C:\Users\CYMR90~1\AppData\Local\Temp\ccYj4tTD.s:22033  .debug_str:0000000000006c6f .LASF3921
C:\Users\CYMR90~1\AppData\Local\Temp\ccYj4tTD.s:24937  .debug_str:0000000000012799 .LASF3922
C:\Users\CYMR90~1\AppData\Local\Temp\ccYj4tTD.s:28252  .debug_str:000000000001fe09 .LASF3923
C:\Users\CYMR90~1\AppData\Local\Temp\ccYj4tTD.s:24857  .debug_str:0000000000012290 .LASF3924
C:\Users\CYMR90~1\AppData\Local\Temp\ccYj4tTD.s:29806  .debug_str:000000000002602a .LASF3925
C:\Users\CYMR90~1\AppData\Local\Temp\ccYj4tTD.s:28730  .debug_str:0000000000021b97 .LASF3926
C:\Users\CYMR90~1\AppData\Local\Temp\ccYj4tTD.s:23461  .debug_str:000000000000cb04 .LASF3927
C:\Users\CYMR90~1\AppData\Local\Temp\ccYj4tTD.s:23897  .debug_str:000000000000e5f6 .LASF3928
C:\Users\CYMR90~1\AppData\Local\Temp\ccYj4tTD.s:29372  .debug_str:000000000002422b .LASF3929
C:\Users\CYMR90~1\AppData\Local\Temp\ccYj4tTD.s:25743  .debug_str:0000000000015aa5 .LASF3930
C:\Users\CYMR90~1\AppData\Local\Temp\ccYj4tTD.s:26166  .debug_str:00000000000177f8 .LASF3931
C:\Users\CYMR90~1\AppData\Local\Temp\ccYj4tTD.s:25599  .debug_str:000000000001526b .LASF3932
C:\Users\CYMR90~1\AppData\Local\Temp\ccYj4tTD.s:25525  .debug_str:0000000000014d79 .LASF3933
C:\Users\CYMR90~1\AppData\Local\Temp\ccYj4tTD.s:28456  .debug_str:0000000000020a9f .LASF3934
C:\Users\CYMR90~1\AppData\Local\Temp\ccYj4tTD.s:25549  .debug_str:0000000000014f2e .LASF3935
C:\Users\CYMR90~1\AppData\Local\Temp\ccYj4tTD.s:29838  .debug_str:0000000000026228 .LASF3936
C:\Users\CYMR90~1\AppData\Local\Temp\ccYj4tTD.s:26614  .debug_str:00000000000194f7 .LASF3937
C:\Users\CYMR90~1\AppData\Local\Temp\ccYj4tTD.s:24601  .debug_str:000000000001114a .LASF3938
C:\Users\CYMR90~1\AppData\Local\Temp\ccYj4tTD.s:22275  .debug_str:0000000000007c7a .LASF3939
C:\Users\CYMR90~1\AppData\Local\Temp\ccYj4tTD.s:20621  .debug_str:0000000000001414 .LASF3940
C:\Users\CYMR90~1\AppData\Local\Temp\ccYj4tTD.s:24245  .debug_str:000000000000fbac .LASF3941
C:\Users\CYMR90~1\AppData\Local\Temp\ccYj4tTD.s:25167  .debug_str:0000000000013754 .LASF3942
C:\Users\CYMR90~1\AppData\Local\Temp\ccYj4tTD.s:21659  .debug_str:00000000000055f8 .LASF3943
C:\Users\CYMR90~1\AppData\Local\Temp\ccYj4tTD.s:23263  .debug_str:000000000000bdcf .LASF3944
C:\Users\CYMR90~1\AppData\Local\Temp\ccYj4tTD.s:23793  .debug_str:000000000000dfed .LASF3945
C:\Users\CYMR90~1\AppData\Local\Temp\ccYj4tTD.s:22835  .debug_str:000000000000a0d0 .LASF3946
C:\Users\CYMR90~1\AppData\Local\Temp\ccYj4tTD.s:24283  .debug_str:000000000000fe05 .LASF3947
C:\Users\CYMR90~1\AppData\Local\Temp\ccYj4tTD.s:26132  .debug_str:00000000000175d9 .LASF3948
C:\Users\CYMR90~1\AppData\Local\Temp\ccYj4tTD.s:25587  .debug_str:000000000001517e .LASF3949
C:\Users\CYMR90~1\AppData\Local\Temp\ccYj4tTD.s:24975  .debug_str:0000000000012a68 .LASF3950
C:\Users\CYMR90~1\AppData\Local\Temp\ccYj4tTD.s:27314  .debug_str:000000000001c272 .LASF3951
C:\Users\CYMR90~1\AppData\Local\Temp\ccYj4tTD.s:23901  .debug_str:000000000000e675 .LASF3952
C:\Users\CYMR90~1\AppData\Local\Temp\ccYj4tTD.s:20497  .debug_str:0000000000000cd6 .LASF3953
C:\Users\CYMR90~1\AppData\Local\Temp\ccYj4tTD.s:30552  .debug_str:0000000000029049 .LASF3954
C:\Users\CYMR90~1\AppData\Local\Temp\ccYj4tTD.s:25039  .debug_str:0000000000012e6d .LASF3955
C:\Users\CYMR90~1\AppData\Local\Temp\ccYj4tTD.s:27652  .debug_str:000000000001d92b .LASF3956
C:\Users\CYMR90~1\AppData\Local\Temp\ccYj4tTD.s:20881  .debug_str:00000000000023a8 .LASF3957
C:\Users\CYMR90~1\AppData\Local\Temp\ccYj4tTD.s:20789  .debug_str:0000000000001ed3 .LASF3958
C:\Users\CYMR90~1\AppData\Local\Temp\ccYj4tTD.s:29610  .debug_str:00000000000252ce .LASF3959
C:\Users\CYMR90~1\AppData\Local\Temp\ccYj4tTD.s:29386  .debug_str:000000000002433f .LASF3960
C:\Users\CYMR90~1\AppData\Local\Temp\ccYj4tTD.s:26010  .debug_str:0000000000016ea1 .LASF3961
C:\Users\CYMR90~1\AppData\Local\Temp\ccYj4tTD.s:25317  .debug_str:0000000000014077 .LASF3962
C:\Users\CYMR90~1\AppData\Local\Temp\ccYj4tTD.s:30540  .debug_str:0000000000028f8f .LASF3963
C:\Users\CYMR90~1\AppData\Local\Temp\ccYj4tTD.s:27144  .debug_str:000000000001b80d .LASF3964
C:\Users\CYMR90~1\AppData\Local\Temp\ccYj4tTD.s:21019  .debug_str:0000000000002cb9 .LASF3965
C:\Users\CYMR90~1\AppData\Local\Temp\ccYj4tTD.s:30926  .debug_str:000000000002a704 .LASF3966
C:\Users\CYMR90~1\AppData\Local\Temp\ccYj4tTD.s:31232  .debug_str:000000000002ba1e .LASF3967
C:\Users\CYMR90~1\AppData\Local\Temp\ccYj4tTD.s:22997  .debug_str:000000000000ab71 .LASF3968
C:\Users\CYMR90~1\AppData\Local\Temp\ccYj4tTD.s:21525  .debug_str:0000000000004dff .LASF3969
C:\Users\CYMR90~1\AppData\Local\Temp\ccYj4tTD.s:31458  .debug_str:000000000002c8c4 .LASF3970
C:\Users\CYMR90~1\AppData\Local\Temp\ccYj4tTD.s:24733  .debug_str:0000000000011ab3 .LASF3971
C:\Users\CYMR90~1\AppData\Local\Temp\ccYj4tTD.s:21309  .debug_str:0000000000003f43 .LASF3972
C:\Users\CYMR90~1\AppData\Local\Temp\ccYj4tTD.s:29250  .debug_str:0000000000023a86 .LASF3973
C:\Users\CYMR90~1\AppData\Local\Temp\ccYj4tTD.s:25845  .debug_str:00000000000161b8 .LASF3974
C:\Users\CYMR90~1\AppData\Local\Temp\ccYj4tTD.s:24297  .debug_str:000000000000feef .LASF3975
C:\Users\CYMR90~1\AppData\Local\Temp\ccYj4tTD.s:30396  .debug_str:0000000000028699 .LASF3976
C:\Users\CYMR90~1\AppData\Local\Temp\ccYj4tTD.s:28392  .debug_str:00000000000206dd .LASF3977
C:\Users\CYMR90~1\AppData\Local\Temp\ccYj4tTD.s:30116  .debug_str:000000000002739b .LASF3978
C:\Users\CYMR90~1\AppData\Local\Temp\ccYj4tTD.s:30240  .debug_str:0000000000027b33 .LASF3979
C:\Users\CYMR90~1\AppData\Local\Temp\ccYj4tTD.s:26872  .debug_str:000000000001a66d .LASF3980
C:\Users\CYMR90~1\AppData\Local\Temp\ccYj4tTD.s:23481  .debug_str:000000000000cc39 .LASF3981
C:\Users\CYMR90~1\AppData\Local\Temp\ccYj4tTD.s:31400  .debug_str:000000000002c543 .LASF3982
C:\Users\CYMR90~1\AppData\Local\Temp\ccYj4tTD.s:21425  .debug_str:000000000000471b .LASF3983
C:\Users\CYMR90~1\AppData\Local\Temp\ccYj4tTD.s:24605  .debug_str:00000000000111a0 .LASF3984
C:\Users\CYMR90~1\AppData\Local\Temp\ccYj4tTD.s:27494  .debug_str:000000000001cea5 .LASF3985
C:\Users\CYMR90~1\AppData\Local\Temp\ccYj4tTD.s:29104  .debug_str:000000000002316b .LASF3986
C:\Users\CYMR90~1\AppData\Local\Temp\ccYj4tTD.s:30470  .debug_str:0000000000028b78 .LASF3987
C:\Users\CYMR90~1\AppData\Local\Temp\ccYj4tTD.s:21023  .debug_str:0000000000002d12 .LASF3988
C:\Users\CYMR90~1\AppData\Local\Temp\ccYj4tTD.s:26126  .debug_str:0000000000017576 .LASF3989
C:\Users\CYMR90~1\AppData\Local\Temp\ccYj4tTD.s:25557  .debug_str:0000000000014fae .LASF3990
C:\Users\CYMR90~1\AppData\Local\Temp\ccYj4tTD.s:22173  .debug_str:0000000000007606 .LASF3991
C:\Users\CYMR90~1\AppData\Local\Temp\ccYj4tTD.s:22295  .debug_str:0000000000007e4f .LASF3992
C:\Users\CYMR90~1\AppData\Local\Temp\ccYj4tTD.s:22291  .debug_str:0000000000007e0e .LASF3993
C:\Users\CYMR90~1\AppData\Local\Temp\ccYj4tTD.s:23329  .debug_str:000000000000c22d .LASF3994
C:\Users\CYMR90~1\AppData\Local\Temp\ccYj4tTD.s:31260  .debug_str:000000000002bbf0 .LASF3995
C:\Users\CYMR90~1\AppData\Local\Temp\ccYj4tTD.s:20931  .debug_str:00000000000026d9 .LASF3996
C:\Users\CYMR90~1\AppData\Local\Temp\ccYj4tTD.s:29272  .debug_str:0000000000023bd4 .LASF3997
C:\Users\CYMR90~1\AppData\Local\Temp\ccYj4tTD.s:24675  .debug_str:00000000000115fd .LASF3998
C:\Users\CYMR90~1\AppData\Local\Temp\ccYj4tTD.s:27654  .debug_str:000000000001d94f .LASF3999
C:\Users\CYMR90~1\AppData\Local\Temp\ccYj4tTD.s:24321  .debug_str:0000000000010039 .LASF4000
C:\Users\CYMR90~1\AppData\Local\Temp\ccYj4tTD.s:20727  .debug_str:0000000000001b04 .LASF4001
C:\Users\CYMR90~1\AppData\Local\Temp\ccYj4tTD.s:28800  .debug_str:0000000000021fb2 .LASF4002
C:\Users\CYMR90~1\AppData\Local\Temp\ccYj4tTD.s:25423  .debug_str:0000000000014714 .LASF4003
C:\Users\CYMR90~1\AppData\Local\Temp\ccYj4tTD.s:24117  .debug_str:000000000000f374 .LASF4004
C:\Users\CYMR90~1\AppData\Local\Temp\ccYj4tTD.s:26698  .debug_str:0000000000019adb .LASF4005
C:\Users\CYMR90~1\AppData\Local\Temp\ccYj4tTD.s:26580  .debug_str:00000000000192e2 .LASF4006
C:\Users\CYMR90~1\AppData\Local\Temp\ccYj4tTD.s:27954  .debug_str:000000000001ebcb .LASF4007
C:\Users\CYMR90~1\AppData\Local\Temp\ccYj4tTD.s:29886  .debug_str:00000000000264f5 .LASF4008
C:\Users\CYMR90~1\AppData\Local\Temp\ccYj4tTD.s:28022  .debug_str:000000000001efee .LASF4009
C:\Users\CYMR90~1\AppData\Local\Temp\ccYj4tTD.s:22649  .debug_str:00000000000094f3 .LASF4010
C:\Users\CYMR90~1\AppData\Local\Temp\ccYj4tTD.s:31044  .debug_str:000000000002ae14 .LASF4011
C:\Users\CYMR90~1\AppData\Local\Temp\ccYj4tTD.s:27530  .debug_str:000000000001d18a .LASF4012
C:\Users\CYMR90~1\AppData\Local\Temp\ccYj4tTD.s:28734  .debug_str:0000000000021bd5 .LASF4013
C:\Users\CYMR90~1\AppData\Local\Temp\ccYj4tTD.s:20735  .debug_str:0000000000001b94 .LASF4014
C:\Users\CYMR90~1\AppData\Local\Temp\ccYj4tTD.s:28652  .debug_str:00000000000216c1 .LASF4015
C:\Users\CYMR90~1\AppData\Local\Temp\ccYj4tTD.s:25273  .debug_str:0000000000013dae .LASF4016
C:\Users\CYMR90~1\AppData\Local\Temp\ccYj4tTD.s:30938  .debug_str:000000000002a7c3 .LASF4017
C:\Users\CYMR90~1\AppData\Local\Temp\ccYj4tTD.s:28592  .debug_str:0000000000021289 .LASF4018
C:\Users\CYMR90~1\AppData\Local\Temp\ccYj4tTD.s:25217  .debug_str:0000000000013a40 .LASF4019
C:\Users\CYMR90~1\AppData\Local\Temp\ccYj4tTD.s:29902  .debug_str:00000000000265e7 .LASF4020
C:\Users\CYMR90~1\AppData\Local\Temp\ccYj4tTD.s:29732  .debug_str:0000000000025b70 .LASF4021
C:\Users\CYMR90~1\AppData\Local\Temp\ccYj4tTD.s:26350  .debug_str:0000000000018352 .LASF4022
C:\Users\CYMR90~1\AppData\Local\Temp\ccYj4tTD.s:31510  .debug_str:000000000002cc2e .LASF4023
C:\Users\CYMR90~1\AppData\Local\Temp\ccYj4tTD.s:30894  .debug_str:000000000002a4d7 .LASF4024
C:\Users\CYMR90~1\AppData\Local\Temp\ccYj4tTD.s:28806  .debug_str:000000000002201f .LASF4025
C:\Users\CYMR90~1\AppData\Local\Temp\ccYj4tTD.s:27672  .debug_str:000000000001da74 .LASF4026
C:\Users\CYMR90~1\AppData\Local\Temp\ccYj4tTD.s:22083  .debug_str:0000000000006fc7 .LASF4027
C:\Users\CYMR90~1\AppData\Local\Temp\ccYj4tTD.s:22225  .debug_str:000000000000793d .LASF4028
C:\Users\CYMR90~1\AppData\Local\Temp\ccYj4tTD.s:26236  .debug_str:0000000000017c6d .LASF4029
C:\Users\CYMR90~1\AppData\Local\Temp\ccYj4tTD.s:30182  .debug_str:0000000000027766 .LASF4030
C:\Users\CYMR90~1\AppData\Local\Temp\ccYj4tTD.s:22811  .debug_str:0000000000009f34 .LASF4031
C:\Users\CYMR90~1\AppData\Local\Temp\ccYj4tTD.s:31334  .debug_str:000000000002c0e6 .LASF4032
C:\Users\CYMR90~1\AppData\Local\Temp\ccYj4tTD.s:22335  .debug_str:00000000000081a3 .LASF4033
C:\Users\CYMR90~1\AppData\Local\Temp\ccYj4tTD.s:24665  .debug_str:0000000000011565 .LASF4034
C:\Users\CYMR90~1\AppData\Local\Temp\ccYj4tTD.s:27196  .debug_str:000000000001baba .LASF4035
C:\Users\CYMR90~1\AppData\Local\Temp\ccYj4tTD.s:31250  .debug_str:000000000002bb6d .LASF4036
C:\Users\CYMR90~1\AppData\Local\Temp\ccYj4tTD.s:25359  .debug_str:000000000001430d .LASF4037
C:\Users\CYMR90~1\AppData\Local\Temp\ccYj4tTD.s:27788  .debug_str:000000000001e1f7 .LASF4038
C:\Users\CYMR90~1\AppData\Local\Temp\ccYj4tTD.s:30110  .debug_str:000000000002732b .LASF4039
C:\Users\CYMR90~1\AppData\Local\Temp\ccYj4tTD.s:21163  .debug_str:00000000000035e4 .LASF4040
C:\Users\CYMR90~1\AppData\Local\Temp\ccYj4tTD.s:28488  .debug_str:0000000000020cc3 .LASF4041
C:\Users\CYMR90~1\AppData\Local\Temp\ccYj4tTD.s:21075  .debug_str:0000000000003015 .LASF4042
C:\Users\CYMR90~1\AppData\Local\Temp\ccYj4tTD.s:28128  .debug_str:000000000001f656 .LASF4043
C:\Users\CYMR90~1\AppData\Local\Temp\ccYj4tTD.s:30506  .debug_str:0000000000028d50 .LASF4044
C:\Users\CYMR90~1\AppData\Local\Temp\ccYj4tTD.s:24993  .debug_str:0000000000012b50 .LASF4045
C:\Users\CYMR90~1\AppData\Local\Temp\ccYj4tTD.s:23791  .debug_str:000000000000dfc7 .LASF4046
C:\Users\CYMR90~1\AppData\Local\Temp\ccYj4tTD.s:20827  .debug_str:00000000000020c0 .LASF4047
C:\Users\CYMR90~1\AppData\Local\Temp\ccYj4tTD.s:22361  .debug_str:0000000000008340 .LASF4048
C:\Users\CYMR90~1\AppData\Local\Temp\ccYj4tTD.s:24697  .debug_str:0000000000011820 .LASF4049
C:\Users\CYMR90~1\AppData\Local\Temp\ccYj4tTD.s:26606  .debug_str:0000000000019486 .LASF4050
C:\Users\CYMR90~1\AppData\Local\Temp\ccYj4tTD.s:24655  .debug_str:00000000000114ac .LASF4051
C:\Users\CYMR90~1\AppData\Local\Temp\ccYj4tTD.s:20383  .debug_str:00000000000005a6 .LASF4052
C:\Users\CYMR90~1\AppData\Local\Temp\ccYj4tTD.s:22723  .debug_str:00000000000099e9 .LASF4053
C:\Users\CYMR90~1\AppData\Local\Temp\ccYj4tTD.s:25909  .debug_str:00000000000165d0 .LASF4054
C:\Users\CYMR90~1\AppData\Local\Temp\ccYj4tTD.s:23723  .debug_str:000000000000db89 .LASF4055
C:\Users\CYMR90~1\AppData\Local\Temp\ccYj4tTD.s:22741  .debug_str:0000000000009afc .LASF4056
C:\Users\CYMR90~1\AppData\Local\Temp\ccYj4tTD.s:26644  .debug_str:00000000000196ad .LASF4057
C:\Users\CYMR90~1\AppData\Local\Temp\ccYj4tTD.s:22617  .debug_str:0000000000009325 .LASF4058
C:\Users\CYMR90~1\AppData\Local\Temp\ccYj4tTD.s:26542  .debug_str:0000000000018fe4 .LASF4059
C:\Users\CYMR90~1\AppData\Local\Temp\ccYj4tTD.s:30462  .debug_str:0000000000028b00 .LASF4060
C:\Users\CYMR90~1\AppData\Local\Temp\ccYj4tTD.s:25491  .debug_str:0000000000014b22 .LASF4061
C:\Users\CYMR90~1\AppData\Local\Temp\ccYj4tTD.s:27038  .debug_str:000000000001b184 .LASF4062
C:\Users\CYMR90~1\AppData\Local\Temp\ccYj4tTD.s:31042  .debug_str:000000000002adee .LASF4063
C:\Users\CYMR90~1\AppData\Local\Temp\ccYj4tTD.s:23661  .debug_str:000000000000d7f2 .LASF4064
C:\Users\CYMR90~1\AppData\Local\Temp\ccYj4tTD.s:22797  .debug_str:0000000000009e3d .LASF4065
C:\Users\CYMR90~1\AppData\Local\Temp\ccYj4tTD.s:25125  .debug_str:00000000000134a3 .LASF4066
C:\Users\CYMR90~1\AppData\Local\Temp\ccYj4tTD.s:28546  .debug_str:0000000000020fef .LASF4067
C:\Users\CYMR90~1\AppData\Local\Temp\ccYj4tTD.s:30308  .debug_str:0000000000027ff6 .LASF4068
C:\Users\CYMR90~1\AppData\Local\Temp\ccYj4tTD.s:27620  .debug_str:000000000001d703 .LASF4069
C:\Users\CYMR90~1\AppData\Local\Temp\ccYj4tTD.s:23031  .debug_str:000000000000ad97 .LASF4070
C:\Users\CYMR90~1\AppData\Local\Temp\ccYj4tTD.s:26974  .debug_str:000000000001ad2c .LASF4071
C:\Users\CYMR90~1\AppData\Local\Temp\ccYj4tTD.s:30968  .debug_str:000000000002a990 .LASF4072
C:\Users\CYMR90~1\AppData\Local\Temp\ccYj4tTD.s:26290  .debug_str:0000000000017fb5 .LASF4073
C:\Users\CYMR90~1\AppData\Local\Temp\ccYj4tTD.s:25095  .debug_str:0000000000013254 .LASF4074
C:\Users\CYMR90~1\AppData\Local\Temp\ccYj4tTD.s:31460  .debug_str:000000000002c8e8 .LASF4075
C:\Users\CYMR90~1\AppData\Local\Temp\ccYj4tTD.s:24663  .debug_str:000000000001153f .LASF4076
C:\Users\CYMR90~1\AppData\Local\Temp\ccYj4tTD.s:21111  .debug_str:0000000000003278 .LASF4077
C:\Users\CYMR90~1\AppData\Local\Temp\ccYj4tTD.s:30332  .debug_str:0000000000028196 .LASF4078
C:\Users\CYMR90~1\AppData\Local\Temp\ccYj4tTD.s:30914  .debug_str:000000000002a657 .LASF4079
C:\Users\CYMR90~1\AppData\Local\Temp\ccYj4tTD.s:21911  .debug_str:0000000000006501 .LASF4080
C:\Users\CYMR90~1\AppData\Local\Temp\ccYj4tTD.s:30904  .debug_str:000000000002a580 .LASF4081
C:\Users\CYMR90~1\AppData\Local\Temp\ccYj4tTD.s:23535  .debug_str:000000000000cf78 .LASF4082
C:\Users\CYMR90~1\AppData\Local\Temp\ccYj4tTD.s:27430  .debug_str:000000000001ca1f .LASF4083
C:\Users\CYMR90~1\AppData\Local\Temp\ccYj4tTD.s:31396  .debug_str:000000000002c4f6 .LASF4084
C:\Users\CYMR90~1\AppData\Local\Temp\ccYj4tTD.s:22337  .debug_str:00000000000081c9 .LASF4085
C:\Users\CYMR90~1\AppData\Local\Temp\ccYj4tTD.s:25481  .debug_str:0000000000014a95 .LASF4086
C:\Users\CYMR90~1\AppData\Local\Temp\ccYj4tTD.s:25007  .debug_str:0000000000012c57 .LASF4087
C:\Users\CYMR90~1\AppData\Local\Temp\ccYj4tTD.s:22901  .debug_str:000000000000a4f6 .LASF4088
C:\Users\CYMR90~1\AppData\Local\Temp\ccYj4tTD.s:26828  .debug_str:000000000001a272 .LASF4089
C:\Users\CYMR90~1\AppData\Local\Temp\ccYj4tTD.s:24331  .debug_str:0000000000010108 .LASF4090
C:\Users\CYMR90~1\AppData\Local\Temp\ccYj4tTD.s:27208  .debug_str:000000000001bba2 .LASF4091
C:\Users\CYMR90~1\AppData\Local\Temp\ccYj4tTD.s:27362  .debug_str:000000000001c4fd .LASF4092
C:\Users\CYMR90~1\AppData\Local\Temp\ccYj4tTD.s:28654  .debug_str:00000000000216e5 .LASF4093
C:\Users\CYMR90~1\AppData\Local\Temp\ccYj4tTD.s:23933  .debug_str:000000000000e873 .LASF4094
C:\Users\CYMR90~1\AppData\Local\Temp\ccYj4tTD.s:27814  .debug_str:000000000001e35d .LASF4095
C:\Users\CYMR90~1\AppData\Local\Temp\ccYj4tTD.s:20471  .debug_str:0000000000000b4e .LASF4096
C:\Users\CYMR90~1\AppData\Local\Temp\ccYj4tTD.s:27368  .debug_str:000000000001c55b .LASF4097
C:\Users\CYMR90~1\AppData\Local\Temp\ccYj4tTD.s:28928  .debug_str:000000000002274e .LASF4098
C:\Users\CYMR90~1\AppData\Local\Temp\ccYj4tTD.s:30772  .debug_str:0000000000029dee .LASF4099
C:\Users\CYMR90~1\AppData\Local\Temp\ccYj4tTD.s:23395  .debug_str:000000000000c64b .LASF4100
C:\Users\CYMR90~1\AppData\Local\Temp\ccYj4tTD.s:21915  .debug_str:0000000000006540 .LASF4101
C:\Users\CYMR90~1\AppData\Local\Temp\ccYj4tTD.s:31264  .debug_str:000000000002bc2c .LASF4102
C:\Users\CYMR90~1\AppData\Local\Temp\ccYj4tTD.s:27840  .debug_str:000000000001e4ec .LASF4103
C:\Users\CYMR90~1\AppData\Local\Temp\ccYj4tTD.s:27750  .debug_str:000000000001dfc2 .LASF4104
C:\Users\CYMR90~1\AppData\Local\Temp\ccYj4tTD.s:20413  .debug_str:0000000000000774 .LASF4105
C:\Users\CYMR90~1\AppData\Local\Temp\ccYj4tTD.s:31448  .debug_str:000000000002c805 .LASF4106
C:\Users\CYMR90~1\AppData\Local\Temp\ccYj4tTD.s:21387  .debug_str:000000000000447a .LASF4107
C:\Users\CYMR90~1\AppData\Local\Temp\ccYj4tTD.s:30708  .debug_str:0000000000029a1b .LASF4108
C:\Users\CYMR90~1\AppData\Local\Temp\ccYj4tTD.s:26706  .debug_str:0000000000019b57 .LASF4109
C:\Users\CYMR90~1\AppData\Local\Temp\ccYj4tTD.s:29016  .debug_str:0000000000022cc0 .LASF4110
C:\Users\CYMR90~1\AppData\Local\Temp\ccYj4tTD.s:31208  .debug_str:000000000002b871 .LASF4111
C:\Users\CYMR90~1\AppData\Local\Temp\ccYj4tTD.s:23813  .debug_str:000000000000e0fa .LASF4112
C:\Users\CYMR90~1\AppData\Local\Temp\ccYj4tTD.s:21683  .debug_str:0000000000005747 .LASF4113
C:\Users\CYMR90~1\AppData\Local\Temp\ccYj4tTD.s:20341  .debug_str:0000000000000329 .LASF4114
C:\Users\CYMR90~1\AppData\Local\Temp\ccYj4tTD.s:24873  .debug_str:0000000000012385 .LASF4115
C:\Users\CYMR90~1\AppData\Local\Temp\ccYj4tTD.s:21261  .debug_str:0000000000003bfd .LASF4116
C:\Users\CYMR90~1\AppData\Local\Temp\ccYj4tTD.s:25347  .debug_str:000000000001425a .LASF4117
C:\Users\CYMR90~1\AppData\Local\Temp\ccYj4tTD.s:23269  .debug_str:000000000000be46 .LASF4118
C:\Users\CYMR90~1\AppData\Local\Temp\ccYj4tTD.s:20623  .debug_str:0000000000001438 .LASF4119
C:\Users\CYMR90~1\AppData\Local\Temp\ccYj4tTD.s:31132  .debug_str:000000000002b389 .LASF4120
C:\Users\CYMR90~1\AppData\Local\Temp\ccYj4tTD.s:28008  .debug_str:000000000001ef02 .LASF4121
C:\Users\CYMR90~1\AppData\Local\Temp\ccYj4tTD.s:28190  .debug_str:000000000001fa15 .LASF4122
C:\Users\CYMR90~1\AppData\Local\Temp\ccYj4tTD.s:31602  .debug_str:000000000002d20d .LASF4123
C:\Users\CYMR90~1\AppData\Local\Temp\ccYj4tTD.s:20617  .debug_str:00000000000013dc .LASF4124
C:\Users\CYMR90~1\AppData\Local\Temp\ccYj4tTD.s:24801  .debug_str:0000000000011ec2 .LASF4125
C:\Users\CYMR90~1\AppData\Local\Temp\ccYj4tTD.s:27130  .debug_str:000000000001b735 .LASF4126
C:\Users\CYMR90~1\AppData\Local\Temp\ccYj4tTD.s:29792  .debug_str:0000000000025ef4 .LASF4127
C:\Users\CYMR90~1\AppData\Local\Temp\ccYj4tTD.s:25527  .debug_str:0000000000014d9b .LASF4128
C:\Users\CYMR90~1\AppData\Local\Temp\ccYj4tTD.s:20349  .debug_str:00000000000003a0 .LASF4129
C:\Users\CYMR90~1\AppData\Local\Temp\ccYj4tTD.s:21067  .debug_str:0000000000002fab .LASF4130
C:\Users\CYMR90~1\AppData\Local\Temp\ccYj4tTD.s:22403  .debug_str:00000000000085e9 .LASF4131
C:\Users\CYMR90~1\AppData\Local\Temp\ccYj4tTD.s:26320  .debug_str:000000000001817a .LASF4132
C:\Users\CYMR90~1\AppData\Local\Temp\ccYj4tTD.s:30258  .debug_str:0000000000027c65 .LASF4133
C:\Users\CYMR90~1\AppData\Local\Temp\ccYj4tTD.s:30250  .debug_str:0000000000027bdb .LASF4134
C:\Users\CYMR90~1\AppData\Local\Temp\ccYj4tTD.s:31462  .debug_str:000000000002c90e .LASF4135
C:\Users\CYMR90~1\AppData\Local\Temp\ccYj4tTD.s:30824  .debug_str:000000000002a0ea .LASF4136
C:\Users\CYMR90~1\AppData\Local\Temp\ccYj4tTD.s:26528  .debug_str:0000000000018f06 .LASF4137
C:\Users\CYMR90~1\AppData\Local\Temp\ccYj4tTD.s:20945  .debug_str:00000000000027fd .LASF4138
C:\Users\CYMR90~1\AppData\Local\Temp\ccYj4tTD.s:29698  .debug_str:000000000002595d .LASF4139
C:\Users\CYMR90~1\AppData\Local\Temp\ccYj4tTD.s:22343  .debug_str:000000000000821b .LASF4140
C:\Users\CYMR90~1\AppData\Local\Temp\ccYj4tTD.s:26250  .debug_str:0000000000017d3d .LASF4141
C:\Users\CYMR90~1\AppData\Local\Temp\ccYj4tTD.s:31034  .debug_str:000000000002ad53 .LASF4142
C:\Users\CYMR90~1\AppData\Local\Temp\ccYj4tTD.s:21283  .debug_str:0000000000003d84 .LASF4143
C:\Users\CYMR90~1\AppData\Local\Temp\ccYj4tTD.s:26746  .debug_str:0000000000019de8 .LASF4144
C:\Users\CYMR90~1\AppData\Local\Temp\ccYj4tTD.s:30766  .debug_str:0000000000029d94 .LASF4145
C:\Users\CYMR90~1\AppData\Local\Temp\ccYj4tTD.s:29178  .debug_str:0000000000023613 .LASF4146
C:\Users\CYMR90~1\AppData\Local\Temp\ccYj4tTD.s:28224  .debug_str:000000000001fc39 .LASF4147
C:\Users\CYMR90~1\AppData\Local\Temp\ccYj4tTD.s:29526  .debug_str:0000000000024c6c .LASF4148
C:\Users\CYMR90~1\AppData\Local\Temp\ccYj4tTD.s:31550  .debug_str:000000000002cef4 .LASF4149
C:\Users\CYMR90~1\AppData\Local\Temp\ccYj4tTD.s:26186  .debug_str:000000000001797a .LASF4150
C:\Users\CYMR90~1\AppData\Local\Temp\ccYj4tTD.s:22495  .debug_str:0000000000008bac .LASF4151
C:\Users\CYMR90~1\AppData\Local\Temp\ccYj4tTD.s:26918  .debug_str:000000000001a9bb .LASF4152
C:\Users\CYMR90~1\AppData\Local\Temp\ccYj4tTD.s:27152  .debug_str:000000000001b88e .LASF4153
C:\Users\CYMR90~1\AppData\Local\Temp\ccYj4tTD.s:30698  .debug_str:0000000000029991 .LASF4154
C:\Users\CYMR90~1\AppData\Local\Temp\ccYj4tTD.s:23323  .debug_str:000000000000c1da .LASF4155
C:\Users\CYMR90~1\AppData\Local\Temp\ccYj4tTD.s:23737  .debug_str:000000000000dc30 .LASF4156
C:\Users\CYMR90~1\AppData\Local\Temp\ccYj4tTD.s:24193  .debug_str:000000000000f897 .LASF4157
C:\Users\CYMR90~1\AppData\Local\Temp\ccYj4tTD.s:22201  .debug_str:00000000000077da .LASF4158
C:\Users\CYMR90~1\AppData\Local\Temp\ccYj4tTD.s:26122  .debug_str:0000000000017538 .LASF4159
C:\Users\CYMR90~1\AppData\Local\Temp\ccYj4tTD.s:29156  .debug_str:000000000002346e .LASF4160
C:\Users\CYMR90~1\AppData\Local\Temp\ccYj4tTD.s:22677  .debug_str:00000000000096eb .LASF4161
C:\Users\CYMR90~1\AppData\Local\Temp\ccYj4tTD.s:31516  .debug_str:000000000002cc86 .LASF4162
C:\Users\CYMR90~1\AppData\Local\Temp\ccYj4tTD.s:30638  .debug_str:00000000000295f1 .LASF4163
C:\Users\CYMR90~1\AppData\Local\Temp\ccYj4tTD.s:28158  .debug_str:000000000001f7f7 .LASF4164
C:\Users\CYMR90~1\AppData\Local\Temp\ccYj4tTD.s:27224  .debug_str:000000000001bc9e .LASF4165
C:\Users\CYMR90~1\AppData\Local\Temp\ccYj4tTD.s:29548  .debug_str:0000000000024dfd .LASF4166
C:\Users\CYMR90~1\AppData\Local\Temp\ccYj4tTD.s:25589  .debug_str:00000000000151a2 .LASF4167
C:\Users\CYMR90~1\AppData\Local\Temp\ccYj4tTD.s:26066  .debug_str:00000000000171de .LASF4168
C:\Users\CYMR90~1\AppData\Local\Temp\ccYj4tTD.s:27516  .debug_str:000000000001d09f .LASF4169
C:\Users\CYMR90~1\AppData\Local\Temp\ccYj4tTD.s:20523  .debug_str:0000000000000e40 .LASF4170
C:\Users\CYMR90~1\AppData\Local\Temp\ccYj4tTD.s:26558  .debug_str:00000000000191ad .LASF4171
C:\Users\CYMR90~1\AppData\Local\Temp\ccYj4tTD.s:26072  .debug_str:000000000001724a .LASF4172
C:\Users\CYMR90~1\AppData\Local\Temp\ccYj4tTD.s:28388  .debug_str:00000000000206a0 .LASF4173
C:\Users\CYMR90~1\AppData\Local\Temp\ccYj4tTD.s:30746  .debug_str:0000000000029c59 .LASF4174
C:\Users\CYMR90~1\AppData\Local\Temp\ccYj4tTD.s:31054  .debug_str:000000000002aea8 .LASF4175
C:\Users\CYMR90~1\AppData\Local\Temp\ccYj4tTD.s:24111  .debug_str:000000000000f304 .LASF4176
C:\Users\CYMR90~1\AppData\Local\Temp\ccYj4tTD.s:31468  .debug_str:000000000002c987 .LASF4177
C:\Users\CYMR90~1\AppData\Local\Temp\ccYj4tTD.s:29924  .debug_str:0000000000026746 .LASF4178
C:\Users\CYMR90~1\AppData\Local\Temp\ccYj4tTD.s:24061  .debug_str:000000000000efd5 .LASF4179
C:\Users\CYMR90~1\AppData\Local\Temp\ccYj4tTD.s:26490  .debug_str:0000000000018cad .LASF4180
C:\Users\CYMR90~1\AppData\Local\Temp\ccYj4tTD.s:29572  .debug_str:0000000000024f71 .LASF4181
C:\Users\CYMR90~1\AppData\Local\Temp\ccYj4tTD.s:29400  .debug_str:0000000000024436 .LASF4182
C:\Users\CYMR90~1\AppData\Local\Temp\ccYj4tTD.s:27064  .debug_str:000000000001b354 .LASF4183
C:\Users\CYMR90~1\AppData\Local\Temp\ccYj4tTD.s:30984  .debug_str:000000000002aa6a .LASF4184
C:\Users\CYMR90~1\AppData\Local\Temp\ccYj4tTD.s:23613  .debug_str:000000000000d4ef .LASF4185
C:\Users\CYMR90~1\AppData\Local\Temp\ccYj4tTD.s:29926  .debug_str:000000000002676c .LASF4186
C:\Users\CYMR90~1\AppData\Local\Temp\ccYj4tTD.s:25971  .debug_str:00000000000169fa .LASF4187
C:\Users\CYMR90~1\AppData\Local\Temp\ccYj4tTD.s:22499  .debug_str:0000000000008be6 .LASF4188
C:\Users\CYMR90~1\AppData\Local\Temp\ccYj4tTD.s:26414  .debug_str:0000000000018734 .LASF4189
C:\Users\CYMR90~1\AppData\Local\Temp\ccYj4tTD.s:24463  .debug_str:000000000001089a .LASF4190
C:\Users\CYMR90~1\AppData\Local\Temp\ccYj4tTD.s:23069  .debug_str:000000000000b0cd .LASF4191
C:\Users\CYMR90~1\AppData\Local\Temp\ccYj4tTD.s:26450  .debug_str:0000000000018988 .LASF4192
C:\Users\CYMR90~1\AppData\Local\Temp\ccYj4tTD.s:26666  .debug_str:0000000000019878 .LASF4193
C:\Users\CYMR90~1\AppData\Local\Temp\ccYj4tTD.s:31138  .debug_str:000000000002b3df .LASF4194
C:\Users\CYMR90~1\AppData\Local\Temp\ccYj4tTD.s:22123  .debug_str:000000000000731a .LASF4195
C:\Users\CYMR90~1\AppData\Local\Temp\ccYj4tTD.s:31412  .debug_str:000000000002c606 .LASF4196
C:\Users\CYMR90~1\AppData\Local\Temp\ccYj4tTD.s:28438  .debug_str:00000000000209ab .LASF4197
C:\Users\CYMR90~1\AppData\Local\Temp\ccYj4tTD.s:22067  .debug_str:0000000000006eb0 .LASF4198
C:\Users\CYMR90~1\AppData\Local\Temp\ccYj4tTD.s:30368  .debug_str:00000000000284a6 .LASF4199
C:\Users\CYMR90~1\AppData\Local\Temp\ccYj4tTD.s:23001  .debug_str:000000000000abbb .LASF4200
C:\Users\CYMR90~1\AppData\Local\Temp\ccYj4tTD.s:21673  .debug_str:00000000000056a7 .LASF4201
C:\Users\CYMR90~1\AppData\Local\Temp\ccYj4tTD.s:22441  .debug_str:000000000000881d .LASF4202
C:\Users\CYMR90~1\AppData\Local\Temp\ccYj4tTD.s:23489  .debug_str:000000000000ccb3 .LASF4203
C:\Users\CYMR90~1\AppData\Local\Temp\ccYj4tTD.s:27380  .debug_str:000000000001c638 .LASF4204
C:\Users\CYMR90~1\AppData\Local\Temp\ccYj4tTD.s:31344  .debug_str:000000000002c16e .LASF4205
C:\Users\CYMR90~1\AppData\Local\Temp\ccYj4tTD.s:24049  .debug_str:000000000000ef30 .LASF4206
C:\Users\CYMR90~1\AppData\Local\Temp\ccYj4tTD.s:28164  .debug_str:000000000001f86a .LASF4207
C:\Users\CYMR90~1\AppData\Local\Temp\ccYj4tTD.s:27298  .debug_str:000000000001c193 .LASF4208
C:\Users\CYMR90~1\AppData\Local\Temp\ccYj4tTD.s:31166  .debug_str:000000000002b5d8 .LASF4209
C:\Users\CYMR90~1\AppData\Local\Temp\ccYj4tTD.s:26878  .debug_str:000000000001a6c2 .LASF4210
C:\Users\CYMR90~1\AppData\Local\Temp\ccYj4tTD.s:29506  .debug_str:0000000000024b2b .LASF4211
C:\Users\CYMR90~1\AppData\Local\Temp\ccYj4tTD.s:26846  .debug_str:000000000001a53e .LASF4212
C:\Users\CYMR90~1\AppData\Local\Temp\ccYj4tTD.s:27308  .debug_str:000000000001c21e .LASF4213
C:\Users\CYMR90~1\AppData\Local\Temp\ccYj4tTD.s:20419  .debug_str:00000000000007d3 .LASF4214
C:\Users\CYMR90~1\AppData\Local\Temp\ccYj4tTD.s:23409  .debug_str:000000000000c714 .LASF4215
C:\Users\CYMR90~1\AppData\Local\Temp\ccYj4tTD.s:23585  .debug_str:000000000000d2e8 .LASF4216
C:\Users\CYMR90~1\AppData\Local\Temp\ccYj4tTD.s:21743  .debug_str:0000000000005b11 .LASF4217
C:\Users\CYMR90~1\AppData\Local\Temp\ccYj4tTD.s:22871  .debug_str:000000000000a2fb .LASF4218
C:\Users\CYMR90~1\AppData\Local\Temp\ccYj4tTD.s:26792  .debug_str:000000000001a074 .LASF4219
C:\Users\CYMR90~1\AppData\Local\Temp\ccYj4tTD.s:30720  .debug_str:0000000000029ad8 .LASF4220
C:\Users\CYMR90~1\AppData\Local\Temp\ccYj4tTD.s:23347  .debug_str:000000000000c34a .LASF4221
C:\Users\CYMR90~1\AppData\Local\Temp\ccYj4tTD.s:27250  .debug_str:000000000001be6d .LASF4222
C:\Users\CYMR90~1\AppData\Local\Temp\ccYj4tTD.s:27488  .debug_str:000000000001ce54 .LASF4223
C:\Users\CYMR90~1\AppData\Local\Temp\ccYj4tTD.s:26938  .debug_str:000000000001ab15 .LASF4224
C:\Users\CYMR90~1\AppData\Local\Temp\ccYj4tTD.s:27784  .debug_str:000000000001e1c1 .LASF4225
C:\Users\CYMR90~1\AppData\Local\Temp\ccYj4tTD.s:31414  .debug_str:000000000002c62c .LASF4226
C:\Users\CYMR90~1\AppData\Local\Temp\ccYj4tTD.s:22959  .debug_str:000000000000a93b .LASF4227
C:\Users\CYMR90~1\AppData\Local\Temp\ccYj4tTD.s:21415  .debug_str:0000000000004680 .LASF4228
C:\Users\CYMR90~1\AppData\Local\Temp\ccYj4tTD.s:25449  .debug_str:00000000000148ad .LASF4229
C:\Users\CYMR90~1\AppData\Local\Temp\ccYj4tTD.s:29376  .debug_str:0000000000024271 .LASF4230
C:\Users\CYMR90~1\AppData\Local\Temp\ccYj4tTD.s:21991  .debug_str:00000000000069b8 .LASF4231
C:\Users\CYMR90~1\AppData\Local\Temp\ccYj4tTD.s:28866  .debug_str:000000000002239c .LASF4232
C:\Users\CYMR90~1\AppData\Local\Temp\ccYj4tTD.s:31246  .debug_str:000000000002bb0c .LASF4233
C:\Users\CYMR90~1\AppData\Local\Temp\ccYj4tTD.s:21975  .debug_str:00000000000068ad .LASF4234
C:\Users\CYMR90~1\AppData\Local\Temp\ccYj4tTD.s:26408  .debug_str:00000000000186e8 .LASF4235
C:\Users\CYMR90~1\AppData\Local\Temp\ccYj4tTD.s:30430  .debug_str:0000000000028908 .LASF4236
C:\Users\CYMR90~1\AppData\Local\Temp\ccYj4tTD.s:29768  .debug_str:0000000000025d78 .LASF4237
C:\Users\CYMR90~1\AppData\Local\Temp\ccYj4tTD.s:25383  .debug_str:0000000000014448 .LASF4238
C:\Users\CYMR90~1\AppData\Local\Temp\ccYj4tTD.s:29458  .debug_str:00000000000247ca .LASF4239
C:\Users\CYMR90~1\AppData\Local\Temp\ccYj4tTD.s:30060  .debug_str:0000000000026f7b .LASF4240
C:\Users\CYMR90~1\AppData\Local\Temp\ccYj4tTD.s:27586  .debug_str:000000000001d4c8 .LASF4241
C:\Users\CYMR90~1\AppData\Local\Temp\ccYj4tTD.s:28318  .debug_str:00000000000201d5 .LASF4242
C:\Users\CYMR90~1\AppData\Local\Temp\ccYj4tTD.s:24445  .debug_str:000000000001078f .LASF4243
C:\Users\CYMR90~1\AppData\Local\Temp\ccYj4tTD.s:28024  .debug_str:000000000001f012 .LASF4244
C:\Users\CYMR90~1\AppData\Local\Temp\ccYj4tTD.s:23745  .debug_str:000000000000dcb7 .LASF4245
C:\Users\CYMR90~1\AppData\Local\Temp\ccYj4tTD.s:22315  .debug_str:0000000000007fbc .LASF4246
C:\Users\CYMR90~1\AppData\Local\Temp\ccYj4tTD.s:29656  .debug_str:00000000000255e9 .LASF4247
C:\Users\CYMR90~1\AppData\Local\Temp\ccYj4tTD.s:31266  .debug_str:000000000002bc52 .LASF4248
C:\Users\CYMR90~1\AppData\Local\Temp\ccYj4tTD.s:22669  .debug_str:0000000000009672 .LASF4249
C:\Users\CYMR90~1\AppData\Local\Temp\ccYj4tTD.s:25785  .debug_str:0000000000015d8a .LASF4250
C:\Users\CYMR90~1\AppData\Local\Temp\ccYj4tTD.s:29714  .debug_str:0000000000025a4a .LASF4251
C:\Users\CYMR90~1\AppData\Local\Temp\ccYj4tTD.s:24867  .debug_str:000000000001232a .LASF4252
C:\Users\CYMR90~1\AppData\Local\Temp\ccYj4tTD.s:24911  .debug_str:00000000000125fc .LASF4253
C:\Users\CYMR90~1\AppData\Local\Temp\ccYj4tTD.s:23519  .debug_str:000000000000ce67 .LASF4254
C:\Users\CYMR90~1\AppData\Local\Temp\ccYj4tTD.s:22931  .debug_str:000000000000a67a .LASF4255
C:\Users\CYMR90~1\AppData\Local\Temp\ccYj4tTD.s:26868  .debug_str:000000000001a62f .LASF4256
C:\Users\CYMR90~1\AppData\Local\Temp\ccYj4tTD.s:23929  .debug_str:000000000000e83d .LASF4257
C:\Users\CYMR90~1\AppData\Local\Temp\ccYj4tTD.s:21785  .debug_str:0000000000005d5d .LASF4258
C:\Users\CYMR90~1\AppData\Local\Temp\ccYj4tTD.s:28054  .debug_str:000000000001f1e6 .LASF4259
C:\Users\CYMR90~1\AppData\Local\Temp\ccYj4tTD.s:29652  .debug_str:0000000000025597 .LASF4260
C:\Users\CYMR90~1\AppData\Local\Temp\ccYj4tTD.s:29438  .debug_str:0000000000024686 .LASF4261
C:\Users\CYMR90~1\AppData\Local\Temp\ccYj4tTD.s:21345  .debug_str:00000000000041e4 .LASF4262
C:\Users\CYMR90~1\AppData\Local\Temp\ccYj4tTD.s:27036  .debug_str:000000000001b15e .LASF4263
C:\Users\CYMR90~1\AppData\Local\Temp\ccYj4tTD.s:24529  .debug_str:0000000000010d3a .LASF4264
C:\Users\CYMR90~1\AppData\Local\Temp\ccYj4tTD.s:26784  .debug_str:0000000000019ffd .LASF4265
C:\Users\CYMR90~1\AppData\Local\Temp\ccYj4tTD.s:30714  .debug_str:0000000000029a6e .LASF4266
C:\Users\CYMR90~1\AppData\Local\Temp\ccYj4tTD.s:30042  .debug_str:0000000000026e63 .LASF4267
C:\Users\CYMR90~1\AppData\Local\Temp\ccYj4tTD.s:25659  .debug_str:00000000000155aa .LASF4268
C:\Users\CYMR90~1\AppData\Local\Temp\ccYj4tTD.s:31354  .debug_str:000000000002c219 .LASF4269
C:\Users\CYMR90~1\AppData\Local\Temp\ccYj4tTD.s:22209  .debug_str:0000000000007843 .LASF4270
C:\Users\CYMR90~1\AppData\Local\Temp\ccYj4tTD.s:29596  .debug_str:0000000000025152 .LASF4271
C:\Users\CYMR90~1\AppData\Local\Temp\ccYj4tTD.s:31596  .debug_str:000000000002d1a9 .LASF4272
C:\Users\CYMR90~1\AppData\Local\Temp\ccYj4tTD.s:21511  .debug_str:0000000000004d1e .LASF4273
C:\Users\CYMR90~1\AppData\Local\Temp\ccYj4tTD.s:26722  .debug_str:0000000000019c67 .LASF4274
C:\Users\CYMR90~1\AppData\Local\Temp\ccYj4tTD.s:21737  .debug_str:0000000000005a7d .LASF4275
C:\Users\CYMR90~1\AppData\Local\Temp\ccYj4tTD.s:23275  .debug_str:000000000000bea4 .LASF4276
C:\Users\CYMR90~1\AppData\Local\Temp\ccYj4tTD.s:24593  .debug_str:00000000000110c6 .LASF4277
C:\Users\CYMR90~1\AppData\Local\Temp\ccYj4tTD.s:22771  .debug_str:0000000000009cb5 .LASF4278
C:\Users\CYMR90~1\AppData\Local\Temp\ccYj4tTD.s:29810  .debug_str:0000000000026067 .LASF4279
C:\Users\CYMR90~1\AppData\Local\Temp\ccYj4tTD.s:26158  .debug_str:000000000001777d .LASF4280
C:\Users\CYMR90~1\AppData\Local\Temp\ccYj4tTD.s:26658  .debug_str:00000000000197ce .LASF4281
C:\Users\CYMR90~1\AppData\Local\Temp\ccYj4tTD.s:27370  .debug_str:000000000001c581 .LASF4282
C:\Users\CYMR90~1\AppData\Local\Temp\ccYj4tTD.s:26662  .debug_str:000000000001982d .LASF4283
C:\Users\CYMR90~1\AppData\Local\Temp\ccYj4tTD.s:30584  .debug_str:0000000000029229 .LASF4284
C:\Users\CYMR90~1\AppData\Local\Temp\ccYj4tTD.s:20715  .debug_str:0000000000001a4a .LASF4285
C:\Users\CYMR90~1\AppData\Local\Temp\ccYj4tTD.s:23083  .debug_str:000000000000b1bc .LASF4286
C:\Users\CYMR90~1\AppData\Local\Temp\ccYj4tTD.s:24221  .debug_str:000000000000fa21 .LASF4287
C:\Users\CYMR90~1\AppData\Local\Temp\ccYj4tTD.s:22077  .debug_str:0000000000006f39 .LASF4288
C:\Users\CYMR90~1\AppData\Local\Temp\ccYj4tTD.s:26100  .debug_str:00000000000173e4 .LASF4289
C:\Users\CYMR90~1\AppData\Local\Temp\ccYj4tTD.s:30034  .debug_str:0000000000026deb .LASF4290
C:\Users\CYMR90~1\AppData\Local\Temp\ccYj4tTD.s:28530  .debug_str:0000000000020f0e .LASF4291
C:\Users\CYMR90~1\AppData\Local\Temp\ccYj4tTD.s:26594  .debug_str:00000000000193af .LASF4292
C:\Users\CYMR90~1\AppData\Local\Temp\ccYj4tTD.s:21897  .debug_str:0000000000006447 .LASF4293
C:\Users\CYMR90~1\AppData\Local\Temp\ccYj4tTD.s:23149  .debug_str:000000000000b5e1 .LASF4294
C:\Users\CYMR90~1\AppData\Local\Temp\ccYj4tTD.s:26586  .debug_str:0000000000019339 .LASF4295
C:\Users\CYMR90~1\AppData\Local\Temp\ccYj4tTD.s:20575  .debug_str:00000000000011bc .LASF4296
C:\Users\CYMR90~1\AppData\Local\Temp\ccYj4tTD.s:21815  .debug_str:0000000000005f24 .LASF4297
C:\Users\CYMR90~1\AppData\Local\Temp\ccYj4tTD.s:26040  .debug_str:0000000000017077 .LASF4298
C:\Users\CYMR90~1\AppData\Local\Temp\ccYj4tTD.s:29962  .debug_str:000000000002697f .LASF4299
C:\Users\CYMR90~1\AppData\Local\Temp\ccYj4tTD.s:22603  .debug_str:0000000000009240 .LASF4300
C:\Users\CYMR90~1\AppData\Local\Temp\ccYj4tTD.s:20679  .debug_str:000000000000181d .LASF4301
C:\Users\CYMR90~1\AppData\Local\Temp\ccYj4tTD.s:26700  .debug_str:0000000000019aff .LASF4302
C:\Users\CYMR90~1\AppData\Local\Temp\ccYj4tTD.s:27724  .debug_str:000000000001de0f .LASF4303
C:\Users\CYMR90~1\AppData\Local\Temp\ccYj4tTD.s:27026  .debug_str:000000000001b0c5 .LASF4304
C:\Users\CYMR90~1\AppData\Local\Temp\ccYj4tTD.s:30932  .debug_str:000000000002a76e .LASF4305
C:\Users\CYMR90~1\AppData\Local\Temp\ccYj4tTD.s:23651  .debug_str:000000000000d77c .LASF4306
C:\Users\CYMR90~1\AppData\Local\Temp\ccYj4tTD.s:20685  .debug_str:0000000000001883 .LASF4307
C:\Users\CYMR90~1\AppData\Local\Temp\ccYj4tTD.s:29900  .debug_str:00000000000265c1 .LASF4308
C:\Users\CYMR90~1\AppData\Local\Temp\ccYj4tTD.s:24295  .debug_str:000000000000fec9 .LASF4309
C:\Users\CYMR90~1\AppData\Local\Temp\ccYj4tTD.s:26764  .debug_str:0000000000019eda .LASF4310
C:\Users\CYMR90~1\AppData\Local\Temp\ccYj4tTD.s:28922  .debug_str:00000000000226d0 .LASF4311
C:\Users\CYMR90~1\AppData\Local\Temp\ccYj4tTD.s:31296  .debug_str:000000000002be2b .LASF4312
C:\Users\CYMR90~1\AppData\Local\Temp\ccYj4tTD.s:26964  .debug_str:000000000001ac8e .LASF4313
C:\Users\CYMR90~1\AppData\Local\Temp\ccYj4tTD.s:30868  .debug_str:000000000002a359 .LASF4314
C:\Users\CYMR90~1\AppData\Local\Temp\ccYj4tTD.s:27800  .debug_str:000000000001e296 .LASF4315
C:\Users\CYMR90~1\AppData\Local\Temp\ccYj4tTD.s:24237  .debug_str:000000000000fb17 .LASF4316
C:\Users\CYMR90~1\AppData\Local\Temp\ccYj4tTD.s:24579  .debug_str:0000000000010fe6 .LASF4317
C:\Users\CYMR90~1\AppData\Local\Temp\ccYj4tTD.s:22469  .debug_str:0000000000008a11 .LASF4318
C:\Users\CYMR90~1\AppData\Local\Temp\ccYj4tTD.s:22547  .debug_str:0000000000008f27 .LASF4319
C:\Users\CYMR90~1\AppData\Local\Temp\ccYj4tTD.s:27518  .debug_str:000000000001d0c5 .LASF4320
C:\Users\CYMR90~1\AppData\Local\Temp\ccYj4tTD.s:24557  .debug_str:0000000000010e8d .LASF4321
C:\Users\CYMR90~1\AppData\Local\Temp\ccYj4tTD.s:26892  .debug_str:000000000001a7c4 .LASF4322
C:\Users\CYMR90~1\AppData\Local\Temp\ccYj4tTD.s:25267  .debug_str:0000000000013d4a .LASF4323
C:\Users\CYMR90~1\AppData\Local\Temp\ccYj4tTD.s:27844  .debug_str:000000000001e542 .LASF4324
C:\Users\CYMR90~1\AppData\Local\Temp\ccYj4tTD.s:28594  .debug_str:00000000000212ad .LASF4325
C:\Users\CYMR90~1\AppData\Local\Temp\ccYj4tTD.s:24707  .debug_str:00000000000118a0 .LASF4326
C:\Users\CYMR90~1\AppData\Local\Temp\ccYj4tTD.s:22999  .debug_str:000000000000ab95 .LASF4327
C:\Users\CYMR90~1\AppData\Local\Temp\ccYj4tTD.s:21115  .debug_str:00000000000032b6 .LASF4328
C:\Users\CYMR90~1\AppData\Local\Temp\ccYj4tTD.s:25067  .debug_str:0000000000013053 .LASF4329
C:\Users\CYMR90~1\AppData\Local\Temp\ccYj4tTD.s:28626  .debug_str:0000000000021542 .LASF4330
C:\Users\CYMR90~1\AppData\Local\Temp\ccYj4tTD.s:21579  .debug_str:0000000000005127 .LASF4331
C:\Users\CYMR90~1\AppData\Local\Temp\ccYj4tTD.s:25523  .debug_str:0000000000014d53 .LASF4332
C:\Users\CYMR90~1\AppData\Local\Temp\ccYj4tTD.s:29448  .debug_str:000000000002472e .LASF4333
C:\Users\CYMR90~1\AppData\Local\Temp\ccYj4tTD.s:22069  .debug_str:0000000000006ed6 .LASF4334
C:\Users\CYMR90~1\AppData\Local\Temp\ccYj4tTD.s:21359  .debug_str:00000000000042ba .LASF4335
C:\Users\CYMR90~1\AppData\Local\Temp\ccYj4tTD.s:30026  .debug_str:0000000000026d50 .LASF4336
C:\Users\CYMR90~1\AppData\Local\Temp\ccYj4tTD.s:28242  .debug_str:000000000001fd31 .LASF4337
C:\Users\CYMR90~1\AppData\Local\Temp\ccYj4tTD.s:25015  .debug_str:0000000000012cf2 .LASF4338
C:\Users\CYMR90~1\AppData\Local\Temp\ccYj4tTD.s:30612  .debug_str:000000000002945c .LASF4339
C:\Users\CYMR90~1\AppData\Local\Temp\ccYj4tTD.s:24853  .debug_str:0000000000012233 .LASF4340
C:\Users\CYMR90~1\AppData\Local\Temp\ccYj4tTD.s:25567  .debug_str:000000000001504f .LASF4341
C:\Users\CYMR90~1\AppData\Local\Temp\ccYj4tTD.s:31466  .debug_str:000000000002c961 .LASF4342
C:\Users\CYMR90~1\AppData\Local\Temp\ccYj4tTD.s:30190  .debug_str:00000000000277eb .LASF4343
C:\Users\CYMR90~1\AppData\Local\Temp\ccYj4tTD.s:25937  .debug_str:0000000000016780 .LASF4344
C:\Users\CYMR90~1\AppData\Local\Temp\ccYj4tTD.s:24437  .debug_str:000000000001072b .LASF4345
C:\Users\CYMR90~1\AppData\Local\Temp\ccYj4tTD.s:22595  .debug_str:00000000000091d1 .LASF4346
C:\Users\CYMR90~1\AppData\Local\Temp\ccYj4tTD.s:30982  .debug_str:000000000002aa44 .LASF4347
C:\Users\CYMR90~1\AppData\Local\Temp\ccYj4tTD.s:28840  .debug_str:0000000000022222 .LASF4348
C:\Users\CYMR90~1\AppData\Local\Temp\ccYj4tTD.s:25821  .debug_str:0000000000016040 .LASF4349
C:\Users\CYMR90~1\AppData\Local\Temp\ccYj4tTD.s:29024  .debug_str:0000000000022d48 .LASF4350
C:\Users\CYMR90~1\AppData\Local\Temp\ccYj4tTD.s:24145  .debug_str:000000000000f510 .LASF4351
C:\Users\CYMR90~1\AppData\Local\Temp\ccYj4tTD.s:21935  .debug_str:0000000000006663 .LASF4352
C:\Users\CYMR90~1\AppData\Local\Temp\ccYj4tTD.s:25867  .debug_str:00000000000162f9 .LASF4353
C:\Users\CYMR90~1\AppData\Local\Temp\ccYj4tTD.s:29892  .debug_str:0000000000026547 .LASF4354
C:\Users\CYMR90~1\AppData\Local\Temp\ccYj4tTD.s:22537  .debug_str:0000000000008e9c .LASF4355
C:\Users\CYMR90~1\AppData\Local\Temp\ccYj4tTD.s:26446  .debug_str:0000000000018928 .LASF4356
C:\Users\CYMR90~1\AppData\Local\Temp\ccYj4tTD.s:23547  .debug_str:000000000000d047 .LASF4357
C:\Users\CYMR90~1\AppData\Local\Temp\ccYj4tTD.s:21391  .debug_str:00000000000044c4 .LASF4358
C:\Users\CYMR90~1\AppData\Local\Temp\ccYj4tTD.s:25329  .debug_str:000000000001414f .LASF4359
C:\Users\CYMR90~1\AppData\Local\Temp\ccYj4tTD.s:23389  .debug_str:000000000000c5c0 .LASF4360
C:\Users\CYMR90~1\AppData\Local\Temp\ccYj4tTD.s:21869  .debug_str:0000000000006286 .LASF4361
C:\Users\CYMR90~1\AppData\Local\Temp\ccYj4tTD.s:20999  .debug_str:0000000000002b87 .LASF4362
C:\Users\CYMR90~1\AppData\Local\Temp\ccYj4tTD.s:29826  .debug_str:0000000000026176 .LASF4363
C:\Users\CYMR90~1\AppData\Local\Temp\ccYj4tTD.s:22483  .debug_str:0000000000008ae6 .LASF4364
C:\Users\CYMR90~1\AppData\Local\Temp\ccYj4tTD.s:26374  .debug_str:00000000000184ed .LASF4365
C:\Users\CYMR90~1\AppData\Local\Temp\ccYj4tTD.s:20753  .debug_str:0000000000001ca0 .LASF4366
C:\Users\CYMR90~1\AppData\Local\Temp\ccYj4tTD.s:27376  .debug_str:000000000001c5d8 .LASF4367
C:\Users\CYMR90~1\AppData\Local\Temp\ccYj4tTD.s:25261  .debug_str:0000000000013cd0 .LASF4368
C:\Users\CYMR90~1\AppData\Local\Temp\ccYj4tTD.s:29198  .debug_str:0000000000023763 .LASF4369
C:\Users\CYMR90~1\AppData\Local\Temp\ccYj4tTD.s:25669  .debug_str:000000000001565c .LASF4370
C:\Users\CYMR90~1\AppData\Local\Temp\ccYj4tTD.s:30360  .debug_str:0000000000028420 .LASF4371
C:\Users\CYMR90~1\AppData\Local\Temp\ccYj4tTD.s:23667  .debug_str:000000000000d85e .LASF4372
C:\Users\CYMR90~1\AppData\Local\Temp\ccYj4tTD.s:29560  .debug_str:0000000000024eb3 .LASF4373
C:\Users\CYMR90~1\AppData\Local\Temp\ccYj4tTD.s:28288  .debug_str:0000000000020043 .LASF4374
C:\Users\CYMR90~1\AppData\Local\Temp\ccYj4tTD.s:30246  .debug_str:0000000000027b93 .LASF4375
C:\Users\CYMR90~1\AppData\Local\Temp\ccYj4tTD.s:22877  .debug_str:000000000000a35b .LASF4376
C:\Users\CYMR90~1\AppData\Local\Temp\ccYj4tTD.s:31278  .debug_str:000000000002bce5 .LASF4377
C:\Users\CYMR90~1\AppData\Local\Temp\ccYj4tTD.s:22175  .debug_str:000000000000762a .LASF4378
C:\Users\CYMR90~1\AppData\Local\Temp\ccYj4tTD.s:21733  .debug_str:0000000000005a25 .LASF4379
C:\Users\CYMR90~1\AppData\Local\Temp\ccYj4tTD.s:24833  .debug_str:0000000000012122 .LASF4380
C:\Users\CYMR90~1\AppData\Local\Temp\ccYj4tTD.s:25719  .debug_str:000000000001594c .LASF4381
C:\Users\CYMR90~1\AppData\Local\Temp\ccYj4tTD.s:22327  .debug_str:000000000000810d .LASF4382
C:\Users\CYMR90~1\AppData\Local\Temp\ccYj4tTD.s:25905  .debug_str:000000000001658c .LASF4383
C:\Users\CYMR90~1\AppData\Local\Temp\ccYj4tTD.s:22863  .debug_str:000000000000a274 .LASF4384
C:\Users\CYMR90~1\AppData\Local\Temp\ccYj4tTD.s:20981  .debug_str:0000000000002a35 .LASF4385
C:\Users\CYMR90~1\AppData\Local\Temp\ccYj4tTD.s:28262  .debug_str:000000000001fec4 .LASF4386
C:\Users\CYMR90~1\AppData\Local\Temp\ccYj4tTD.s:23067  .debug_str:000000000000b0a7 .LASF4387
C:\Users\CYMR90~1\AppData\Local\Temp\ccYj4tTD.s:21667  .debug_str:000000000000565b .LASF4388
C:\Users\CYMR90~1\AppData\Local\Temp\ccYj4tTD.s:22279  .debug_str:0000000000007cb8 .LASF4389
C:\Users\CYMR90~1\AppData\Local\Temp\ccYj4tTD.s:30680  .debug_str:00000000000298bc .LASF4390
C:\Users\CYMR90~1\AppData\Local\Temp\ccYj4tTD.s:22249  .debug_str:0000000000007af3 .LASF4391
C:\Users\CYMR90~1\AppData\Local\Temp\ccYj4tTD.s:21831  .debug_str:0000000000006017 .LASF4392
C:\Users\CYMR90~1\AppData\Local\Temp\ccYj4tTD.s:22611  .debug_str:00000000000092c6 .LASF4393
C:\Users\CYMR90~1\AppData\Local\Temp\ccYj4tTD.s:29276  .debug_str:0000000000023c0e .LASF4394
C:\Users\CYMR90~1\AppData\Local\Temp\ccYj4tTD.s:21441  .debug_str:000000000000483f .LASF4395
C:\Users\CYMR90~1\AppData\Local\Temp\ccYj4tTD.s:22029  .debug_str:0000000000006bfc .LASF4396
C:\Users\CYMR90~1\AppData\Local\Temp\ccYj4tTD.s:31148  .debug_str:000000000002b493 .LASF4397
C:\Users\CYMR90~1\AppData\Local\Temp\ccYj4tTD.s:21609  .debug_str:00000000000052f0 .LASF4398
C:\Users\CYMR90~1\AppData\Local\Temp\ccYj4tTD.s:22885  .debug_str:000000000000a40b .LASF4399
C:\Users\CYMR90~1\AppData\Local\Temp\ccYj4tTD.s:22185  .debug_str:00000000000076e0 .LASF4400
C:\Users\CYMR90~1\AppData\Local\Temp\ccYj4tTD.s:27524  .debug_str:000000000001d12a .LASF4401
C:\Users\CYMR90~1\AppData\Local\Temp\ccYj4tTD.s:29858  .debug_str:0000000000026336 .LASF4402
C:\Users\CYMR90~1\AppData\Local\Temp\ccYj4tTD.s:26884  .debug_str:000000000001a734 .LASF4403
C:\Users\CYMR90~1\AppData\Local\Temp\ccYj4tTD.s:23235  .debug_str:000000000000bb79 .LASF4404
C:\Users\CYMR90~1\AppData\Local\Temp\ccYj4tTD.s:30624  .debug_str:00000000000294f8 .LASF4405
C:\Users\CYMR90~1\AppData\Local\Temp\ccYj4tTD.s:23007  .debug_str:000000000000ac33 .LASF4406
C:\Users\CYMR90~1\AppData\Local\Temp\ccYj4tTD.s:24815  .debug_str:0000000000011fcd .LASF4407
C:\Users\CYMR90~1\AppData\Local\Temp\ccYj4tTD.s:29496  .debug_str:0000000000024a64 .LASF4408
C:\Users\CYMR90~1\AppData\Local\Temp\ccYj4tTD.s:28682  .debug_str:00000000000218ad .LASF4409
C:\Users\CYMR90~1\AppData\Local\Temp\ccYj4tTD.s:26056  .debug_str:0000000000017151 .LASF4410
C:\Users\CYMR90~1\AppData\Local\Temp\ccYj4tTD.s:29978  .debug_str:0000000000026a8a .LASF4411
C:\Users\CYMR90~1\AppData\Local\Temp\ccYj4tTD.s:26182  .debug_str:0000000000017923 .LASF4412
C:\Users\CYMR90~1\AppData\Local\Temp\ccYj4tTD.s:26966  .debug_str:000000000001acb4 .LASF4413
C:\Users\CYMR90~1\AppData\Local\Temp\ccYj4tTD.s:29938  .debug_str:000000000002682a .LASF4414
C:\Users\CYMR90~1\AppData\Local\Temp\ccYj4tTD.s:30072  .debug_str:000000000002702b .LASF4415
C:\Users\CYMR90~1\AppData\Local\Temp\ccYj4tTD.s:27100  .debug_str:000000000001b562 .LASF4416
C:\Users\CYMR90~1\AppData\Local\Temp\ccYj4tTD.s:29128  .debug_str:00000000000232e0 .LASF4417
C:\Users\CYMR90~1\AppData\Local\Temp\ccYj4tTD.s:22047  .debug_str:0000000000006d68 .LASF4418
C:\Users\CYMR90~1\AppData\Local\Temp\ccYj4tTD.s:25985  .debug_str:0000000000016b67 .LASF4419
C:\Users\CYMR90~1\AppData\Local\Temp\ccYj4tTD.s:29914  .debug_str:000000000002668e .LASF4420
C:\Users\CYMR90~1\AppData\Local\Temp\ccYj4tTD.s:21381  .debug_str:000000000000441c .LASF4421
C:\Users\CYMR90~1\AppData\Local\Temp\ccYj4tTD.s:26492  .debug_str:0000000000018cd3 .LASF4422
C:\Users\CYMR90~1\AppData\Local\Temp\ccYj4tTD.s:25129  .debug_str:0000000000013503 .LASF4423
C:\Users\CYMR90~1\AppData\Local\Temp\ccYj4tTD.s:27232  .debug_str:000000000001bd21 .LASF4424
C:\Users\CYMR90~1\AppData\Local\Temp\ccYj4tTD.s:27056  .debug_str:000000000001b2c8 .LASF4425
C:\Users\CYMR90~1\AppData\Local\Temp\ccYj4tTD.s:25495  .debug_str:0000000000014b5c .LASF4426
C:\Users\CYMR90~1\AppData\Local\Temp\ccYj4tTD.s:21383  .debug_str:0000000000004442 .LASF4427
C:\Users\CYMR90~1\AppData\Local\Temp\ccYj4tTD.s:29882  .debug_str:0000000000026498 .LASF4428
C:\Users\CYMR90~1\AppData\Local\Temp\ccYj4tTD.s:24669  .debug_str:00000000000115b1 .LASF4429
C:\Users\CYMR90~1\AppData\Local\Temp\ccYj4tTD.s:28570  .debug_str:0000000000021146 .LASF4430
C:\Users\CYMR90~1\AppData\Local\Temp\ccYj4tTD.s:21195  .debug_str:00000000000037e0 .LASF4431
C:\Users\CYMR90~1\AppData\Local\Temp\ccYj4tTD.s:25147  .debug_str:000000000001362e .LASF4432
C:\Users\CYMR90~1\AppData\Local\Temp\ccYj4tTD.s:28478  .debug_str:0000000000020c19 .LASF4433
C:\Users\CYMR90~1\AppData\Local\Temp\ccYj4tTD.s:27348  .debug_str:000000000001c446 .LASF4434
C:\Users\CYMR90~1\AppData\Local\Temp\ccYj4tTD.s:26512  .debug_str:0000000000018e28 .LASF4435
C:\Users\CYMR90~1\AppData\Local\Temp\ccYj4tTD.s:28066  .debug_str:000000000001f29a .LASF4436
C:\Users\CYMR90~1\AppData\Local\Temp\ccYj4tTD.s:21379  .debug_str:00000000000043f6 .LASF4437
C:\Users\CYMR90~1\AppData\Local\Temp\ccYj4tTD.s:21311  .debug_str:0000000000003f67 .LASF4438
C:\Users\CYMR90~1\AppData\Local\Temp\ccYj4tTD.s:28504  .debug_str:0000000000020da7 .LASF4439
C:\Users\CYMR90~1\AppData\Local\Temp\ccYj4tTD.s:26474  .debug_str:0000000000018aed .LASF4440
C:\Users\CYMR90~1\AppData\Local\Temp\ccYj4tTD.s:25181  .debug_str:000000000001382b .LASF4441
C:\Users\CYMR90~1\AppData\Local\Temp\ccYj4tTD.s:29018  .debug_str:0000000000022ce6 .LASF4442
C:\Users\CYMR90~1\AppData\Local\Temp\ccYj4tTD.s:31572  .debug_str:000000000002d012 .LASF4443
C:\Users\CYMR90~1\AppData\Local\Temp\ccYj4tTD.s:22983  .debug_str:000000000000aa89 .LASF4444
C:\Users\CYMR90~1\AppData\Local\Temp\ccYj4tTD.s:23649  .debug_str:000000000000d76f .LASF4445
C:\Users\CYMR90~1\AppData\Local\Temp\ccYj4tTD.s:29148  .debug_str:00000000000233fb .LASF4446
C:\Users\CYMR90~1\AppData\Local\Temp\ccYj4tTD.s:27700  .debug_str:000000000001dc18 .LASF4447
C:\Users\CYMR90~1\AppData\Local\Temp\ccYj4tTD.s:20375  .debug_str:0000000000000528 .LASF4448
C:\Users\CYMR90~1\AppData\Local\Temp\ccYj4tTD.s:21433  .debug_str:00000000000047ab .LASF4449
C:\Users\CYMR90~1\AppData\Local\Temp\ccYj4tTD.s:23827  .debug_str:000000000000e1d3 .LASF4450
C:\Users\CYMR90~1\AppData\Local\Temp\ccYj4tTD.s:21997  .debug_str:0000000000006a12 .LASF4451
C:\Users\CYMR90~1\AppData\Local\Temp\ccYj4tTD.s:25201  .debug_str:0000000000013956 .LASF4452
C:\Users\CYMR90~1\AppData\Local\Temp\ccYj4tTD.s:24831  .debug_str:00000000000120fb .LASF4453
C:\Users\CYMR90~1\AppData\Local\Temp\ccYj4tTD.s:21059  .debug_str:0000000000002f21 .LASF4454
C:\Users\CYMR90~1\AppData\Local\Temp\ccYj4tTD.s:21633  .debug_str:0000000000005453 .LASF4455
C:\Users\CYMR90~1\AppData\Local\Temp\ccYj4tTD.s:21145  .debug_str:00000000000034cc .LASF4456
C:\Users\CYMR90~1\AppData\Local\Temp\ccYj4tTD.s:20333  .debug_str:000000000000027d .LASF4457
C:\Users\CYMR90~1\AppData\Local\Temp\ccYj4tTD.s:22605  .debug_str:0000000000009266 .LASF4458
C:\Users\CYMR90~1\AppData\Local\Temp\ccYj4tTD.s:25959  .debug_str:000000000001694b .LASF4459
C:\Users\CYMR90~1\AppData\Local\Temp\ccYj4tTD.s:21049  .debug_str:0000000000002e94 .LASF4460
C:\Users\CYMR90~1\AppData\Local\Temp\ccYj4tTD.s:30000  .debug_str:0000000000026bca .LASF4461
C:\Users\CYMR90~1\AppData\Local\Temp\ccYj4tTD.s:25825  .debug_str:0000000000016081 .LASF4462
C:\Users\CYMR90~1\AppData\Local\Temp\ccYj4tTD.s:26486  .debug_str:0000000000018c46 .LASF4463
C:\Users\CYMR90~1\AppData\Local\Temp\ccYj4tTD.s:29160  .debug_str:00000000000234cb .LASF4464
C:\Users\CYMR90~1\AppData\Local\Temp\ccYj4tTD.s:28940  .debug_str:000000000002280b .LASF4465
C:\Users\CYMR90~1\AppData\Local\Temp\ccYj4tTD.s:25033  .debug_str:0000000000012e0a .LASF4466
C:\Users\CYMR90~1\AppData\Local\Temp\ccYj4tTD.s:30672  .debug_str:0000000000029840 .LASF4467
C:\Users\CYMR90~1\AppData\Local\Temp\ccYj4tTD.s:30900  .debug_str:000000000002a54e .LASF4468
C:\Users\CYMR90~1\AppData\Local\Temp\ccYj4tTD.s:27594  .debug_str:000000000001d545 .LASF4469
C:\Users\CYMR90~1\AppData\Local\Temp\ccYj4tTD.s:29764  .debug_str:0000000000025d3b .LASF4470
C:\Users\CYMR90~1\AppData\Local\Temp\ccYj4tTD.s:24565  .debug_str:0000000000010f14 .LASF4471
C:\Users\CYMR90~1\AppData\Local\Temp\ccYj4tTD.s:27752  .debug_str:000000000001dfe8 .LASF4472
C:\Users\CYMR90~1\AppData\Local\Temp\ccYj4tTD.s:22775  .debug_str:0000000000009cf2 .LASF4473
C:\Users\CYMR90~1\AppData\Local\Temp\ccYj4tTD.s:27022  .debug_str:000000000001b08e .LASF4474
C:\Users\CYMR90~1\AppData\Local\Temp\ccYj4tTD.s:27592  .debug_str:000000000001d520 .LASF4475
C:\Users\CYMR90~1\AppData\Local\Temp\ccYj4tTD.s:23161  .debug_str:000000000000b6a2 .LASF4476
C:\Users\CYMR90~1\AppData\Local\Temp\ccYj4tTD.s:26162  .debug_str:00000000000177bb .LASF4477
C:\Users\CYMR90~1\AppData\Local\Temp\ccYj4tTD.s:27294  .debug_str:000000000001c132 .LASF4478
C:\Users\CYMR90~1\AppData\Local\Temp\ccYj4tTD.s:24965  .debug_str:00000000000129bc .LASF4479
C:\Users\CYMR90~1\AppData\Local\Temp\ccYj4tTD.s:28460  .debug_str:0000000000020aec .LASF4480
C:\Users\CYMR90~1\AppData\Local\Temp\ccYj4tTD.s:23093  .debug_str:000000000000b240 .LASF4481
C:\Users\CYMR90~1\AppData\Local\Temp\ccYj4tTD.s:20719  .debug_str:0000000000001a84 .LASF4482
C:\Users\CYMR90~1\AppData\Local\Temp\ccYj4tTD.s:25667  .debug_str:0000000000015637 .LASF4483
C:\Users\CYMR90~1\AppData\Local\Temp\ccYj4tTD.s:25013  .debug_str:0000000000012ccd .LASF4484
C:\Users\CYMR90~1\AppData\Local\Temp\ccYj4tTD.s:31274  .debug_str:000000000002bcc2 .LASF4485
C:\Users\CYMR90~1\AppData\Local\Temp\ccYj4tTD.s:26612  .debug_str:00000000000194e0 .LASF4486
C:\Users\CYMR90~1\AppData\Local\Temp\ccYj4tTD.s:26160  .debug_str:00000000000177a3 .LASF4487
C:\Users\CYMR90~1\AppData\Local\Temp\ccYj4tTD.s:27616  .debug_str:000000000001d6e2 .LASF4488
C:\Users\CYMR90~1\AppData\Local\Temp\ccYj4tTD.s:29284  .debug_str:0000000000023c80 .LASF4489
C:\Users\CYMR90~1\AppData\Local\Temp\ccYj4tTD.s:21665  .debug_str:0000000000005642 .LASF4490
C:\Users\CYMR90~1\AppData\Local\Temp\ccYj4tTD.s:20615  .debug_str:00000000000013c8 .LASF4491
C:\Users\CYMR90~1\AppData\Local\Temp\ccYj4tTD.s:27932  .debug_str:000000000001eaa1 .LASF4492
C:\Users\CYMR90~1\AppData\Local\Temp\ccYj4tTD.s:28642  .debug_str:000000000002162b .LASF4493
C:\Users\CYMR90~1\AppData\Local\Temp\ccYj4tTD.s:30842  .debug_str:000000000002a207 .LASF4494
C:\Users\CYMR90~1\AppData\Local\Temp\ccYj4tTD.s:24689  .debug_str:00000000000116f1 .LASF4495
C:\Users\CYMR90~1\AppData\Local\Temp\ccYj4tTD.s:30492  .debug_str:0000000000028c9d .LASF4496
C:\Users\CYMR90~1\AppData\Local\Temp\ccYj4tTD.s:25457  .debug_str:000000000001491a .LASF4497
C:\Users\CYMR90~1\AppData\Local\Temp\ccYj4tTD.s:23055  .debug_str:000000000000b007 .LASF4498
C:\Users\CYMR90~1\AppData\Local\Temp\ccYj4tTD.s:28422  .debug_str:00000000000208b1 .LASF4499
C:\Users\CYMR90~1\AppData\Local\Temp\ccYj4tTD.s:22497  .debug_str:0000000000008bd2 .LASF4500
C:\Users\CYMR90~1\AppData\Local\Temp\ccYj4tTD.s:26078  .debug_str:00000000000172a6 .LASF4501
C:\Users\CYMR90~1\AppData\Local\Temp\ccYj4tTD.s:29246  .debug_str:0000000000023a57 .LASF4502
C:\Users\CYMR90~1\AppData\Local\Temp\ccYj4tTD.s:30070  .debug_str:0000000000027019 .LASF4503
C:\Users\CYMR90~1\AppData\Local\Temp\ccYj4tTD.s:25493  .debug_str:0000000000014b48 .LASF4504
C:\Users\CYMR90~1\AppData\Local\Temp\ccYj4tTD.s:27838  .debug_str:000000000001e4d5 .LASF4505
C:\Users\CYMR90~1\AppData\Local\Temp\ccYj4tTD.s:23471  .debug_str:000000000000cba9 .LASF4506
C:\Users\CYMR90~1\AppData\Local\Temp\ccYj4tTD.s:25269  .debug_str:0000000000013d70 .LASF4507
C:\Users\CYMR90~1\AppData\Local\Temp\ccYj4tTD.s:27666  .debug_str:000000000001da1c .LASF4508
C:\Users\CYMR90~1\AppData\Local\Temp\ccYj4tTD.s:25041  .debug_str:0000000000012e91 .LASF4509
C:\Users\CYMR90~1\AppData\Local\Temp\ccYj4tTD.s:28492  .debug_str:0000000000020d0e .LASF4510
C:\Users\CYMR90~1\AppData\Local\Temp\ccYj4tTD.s:24019  .debug_str:000000000000edaf .LASF4511
C:\Users\CYMR90~1\AppData\Local\Temp\ccYj4tTD.s:27614  .debug_str:000000000001d6cd .LASF4512
C:\Users\CYMR90~1\AppData\Local\Temp\ccYj4tTD.s:21029  .debug_str:0000000000002d6b .LASF4513
C:\Users\CYMR90~1\AppData\Local\Temp\ccYj4tTD.s:20805  .debug_str:0000000000001fc7 .LASF4514
C:\Users\CYMR90~1\AppData\Local\Temp\ccYj4tTD.s:27336  .debug_str:000000000001c3b6 .LASF4515
C:\Users\CYMR90~1\AppData\Local\Temp\ccYj4tTD.s:22413  .debug_str:0000000000008680 .LASF4516
C:\Users\CYMR90~1\AppData\Local\Temp\ccYj4tTD.s:30974  .debug_str:000000000002a9f3 .LASF4517
C:\Users\CYMR90~1\AppData\Local\Temp\ccYj4tTD.s:22261  .debug_str:0000000000007ba9 .LASF4518
C:\Users\CYMR90~1\AppData\Local\Temp\ccYj4tTD.s:20387  .debug_str:00000000000005e4 .LASF4519
C:\Users\CYMR90~1\AppData\Local\Temp\ccYj4tTD.s:29488  .debug_str:00000000000249fb .LASF4520
C:\Users\CYMR90~1\AppData\Local\Temp\ccYj4tTD.s:26392  .debug_str:00000000000185ea .LASF4521
C:\Users\CYMR90~1\AppData\Local\Temp\ccYj4tTD.s:24125  .debug_str:000000000000f3f3 .LASF4522
C:\Users\CYMR90~1\AppData\Local\Temp\ccYj4tTD.s:29088  .debug_str:00000000000230b1 .LASF4523
C:\Users\CYMR90~1\AppData\Local\Temp\ccYj4tTD.s:30794  .debug_str:0000000000029f3f .LASF4524
C:\Users\CYMR90~1\AppData\Local\Temp\ccYj4tTD.s:23321  .debug_str:000000000000c1c6 .LASF4525
C:\Users\CYMR90~1\AppData\Local\Temp\ccYj4tTD.s:21853  .debug_str:00000000000061ae .LASF4526
C:\Users\CYMR90~1\AppData\Local\Temp\ccYj4tTD.s:21489  .debug_str:0000000000004bb3 .LASF4527
C:\Users\CYMR90~1\AppData\Local\Temp\ccYj4tTD.s:29836  .debug_str:0000000000026212 .LASF4528
C:\Users\CYMR90~1\AppData\Local\Temp\ccYj4tTD.s:23719  .debug_str:000000000000db4f .LASF4529
C:\Users\CYMR90~1\AppData\Local\Temp\ccYj4tTD.s:25121  .debug_str:000000000001346d .LASF4530
C:\Users\CYMR90~1\AppData\Local\Temp\ccYj4tTD.s:22475  .debug_str:0000000000008a72 .LASF4531
C:\Users\CYMR90~1\AppData\Local\Temp\ccYj4tTD.s:25675  .debug_str:00000000000156ad .LASF4532
C:\Users\CYMR90~1\AppData\Local\Temp\ccYj4tTD.s:29624  .debug_str:00000000000253b5 .LASF4533
C:\Users\CYMR90~1\AppData\Local\Temp\ccYj4tTD.s:20909  .debug_str:0000000000002550 .LASF4534
C:\Users\CYMR90~1\AppData\Local\Temp\ccYj4tTD.s:24067  .debug_str:000000000000f042 .LASF4535
C:\Users\CYMR90~1\AppData\Local\Temp\ccYj4tTD.s:20525  .debug_str:0000000000000e66 .LASF4536
C:\Users\CYMR90~1\AppData\Local\Temp\ccYj4tTD.s:24517  .debug_str:0000000000010ca2 .LASF4537
C:\Users\CYMR90~1\AppData\Local\Temp\ccYj4tTD.s:23203  .debug_str:000000000000b95b .LASF4538
C:\Users\CYMR90~1\AppData\Local\Temp\ccYj4tTD.s:28192  .debug_str:000000000001fa3b .LASF4539
C:\Users\CYMR90~1\AppData\Local\Temp\ccYj4tTD.s:27170  .debug_str:000000000001b964 .LASF4540
C:\Users\CYMR90~1\AppData\Local\Temp\ccYj4tTD.s:24931  .debug_str:000000000001275b .LASF4541
C:\Users\CYMR90~1\AppData\Local\Temp\ccYj4tTD.s:20903  .debug_str:0000000000002503 .LASF4542
C:\Users\CYMR90~1\AppData\Local\Temp\ccYj4tTD.s:27566  .debug_str:000000000001d379 .LASF4543
C:\Users\CYMR90~1\AppData\Local\Temp\ccYj4tTD.s:23443  .debug_str:000000000000c9f4 .LASF4544
C:\Users\CYMR90~1\AppData\Local\Temp\ccYj4tTD.s:30956  .debug_str:000000000002a8e2 .LASF4545
C:\Users\CYMR90~1\AppData\Local\Temp\ccYj4tTD.s:26848  .debug_str:000000000001a564 .LASF4546
C:\Users\CYMR90~1\AppData\Local\Temp\ccYj4tTD.s:29056  .debug_str:0000000000022ef1 .LASF4547
C:\Users\CYMR90~1\AppData\Local\Temp\ccYj4tTD.s:30632  .debug_str:000000000002957f .LASF4548
C:\Users\CYMR90~1\AppData\Local\Temp\ccYj4tTD.s:25923  .debug_str:00000000000166a3 .LASF4549
C:\Users\CYMR90~1\AppData\Local\Temp\ccYj4tTD.s:26582  .debug_str:0000000000019306 .LASF4550
C:\Users\CYMR90~1\AppData\Local\Temp\ccYj4tTD.s:21663  .debug_str:0000000000005629 .LASF4551
C:\Users\CYMR90~1\AppData\Local\Temp\ccYj4tTD.s:30768  .debug_str:0000000000029dba .LASF4552
C:\Users\CYMR90~1\AppData\Local\Temp\ccYj4tTD.s:24303  .debug_str:000000000000ff48 .LASF4553
C:\Users\CYMR90~1\AppData\Local\Temp\ccYj4tTD.s:27470  .debug_str:000000000001cc9c .LASF4554
C:\Users\CYMR90~1\AppData\Local\Temp\ccYj4tTD.s:28762  .debug_str:0000000000021d94 .LASF4555
C:\Users\CYMR90~1\AppData\Local\Temp\ccYj4tTD.s:23679  .debug_str:000000000000d90b .LASF4556
C:\Users\CYMR90~1\AppData\Local\Temp\ccYj4tTD.s:31120  .debug_str:000000000002b2aa .LASF4557
C:\Users\CYMR90~1\AppData\Local\Temp\ccYj4tTD.s:23223  .debug_str:000000000000bacc .LASF4558
C:\Users\CYMR90~1\AppData\Local\Temp\ccYj4tTD.s:28374  .debug_str:00000000000205da .LASF4559
C:\Users\CYMR90~1\AppData\Local\Temp\ccYj4tTD.s:25783  .debug_str:0000000000015d74 .LASF4560
C:\Users\CYMR90~1\AppData\Local\Temp\ccYj4tTD.s:29234  .debug_str:000000000002398a .LASF4561
C:\Users\CYMR90~1\AppData\Local\Temp\ccYj4tTD.s:31090  .debug_str:000000000002b0b0 .LASF4562
C:\Users\CYMR90~1\AppData\Local\Temp\ccYj4tTD.s:28566  .debug_str:0000000000021103 .LASF4563
C:\Users\CYMR90~1\AppData\Local\Temp\ccYj4tTD.s:28910  .debug_str:0000000000022617 .LASF4564
C:\Users\CYMR90~1\AppData\Local\Temp\ccYj4tTD.s:25911  .debug_str:00000000000165f6 .LASF4565
C:\Users\CYMR90~1\AppData\Local\Temp\ccYj4tTD.s:22459  .debug_str:0000000000008979 .LASF4566
C:\Users\CYMR90~1\AppData\Local\Temp\ccYj4tTD.s:29662  .debug_str:0000000000025684 .LASF4567
C:\Users\CYMR90~1\AppData\Local\Temp\ccYj4tTD.s:26904  .debug_str:000000000001a900 .LASF4568
C:\Users\CYMR90~1\AppData\Local\Temp\ccYj4tTD.s:20521  .debug_str:0000000000000e28 .LASF4569
C:\Users\CYMR90~1\AppData\Local\Temp\ccYj4tTD.s:28884  .debug_str:000000000002247b .LASF4570
C:\Users\CYMR90~1\AppData\Local\Temp\ccYj4tTD.s:30614  .debug_str:0000000000029482 .LASF4571
C:\Users\CYMR90~1\AppData\Local\Temp\ccYj4tTD.s:20989  .debug_str:0000000000002aa6 .LASF4572
C:\Users\CYMR90~1\AppData\Local\Temp\ccYj4tTD.s:23997  .debug_str:000000000000ec91 .LASF4573
C:\Users\CYMR90~1\AppData\Local\Temp\ccYj4tTD.s:27910  .debug_str:000000000001e95d .LASF4574
C:\Users\CYMR90~1\AppData\Local\Temp\ccYj4tTD.s:23477  .debug_str:000000000000cc0b .LASF4575
C:\Users\CYMR90~1\AppData\Local\Temp\ccYj4tTD.s:25245  .debug_str:0000000000013c0d .LASF4576
C:\Users\CYMR90~1\AppData\Local\Temp\ccYj4tTD.s:29576  .debug_str:0000000000024faf .LASF4577
C:\Users\CYMR90~1\AppData\Local\Temp\ccYj4tTD.s:24255  .debug_str:000000000000fc41 .LASF4578
C:\Users\CYMR90~1\AppData\Local\Temp\ccYj4tTD.s:25251  .debug_str:0000000000013c51 .LASF4579
C:\Users\CYMR90~1\AppData\Local\Temp\ccYj4tTD.s:21783  .debug_str:0000000000005d47 .LASF4580
C:\Users\CYMR90~1\AppData\Local\Temp\ccYj4tTD.s:21371  .debug_str:0000000000004362 .LASF4581
C:\Users\CYMR90~1\AppData\Local\Temp\ccYj4tTD.s:28678  .debug_str:000000000002187b .LASF4582
C:\Users\CYMR90~1\AppData\Local\Temp\ccYj4tTD.s:28208  .debug_str:000000000001fb39 .LASF4583
C:\Users\CYMR90~1\AppData\Local\Temp\ccYj4tTD.s:21463  .debug_str:0000000000004a30 .LASF4584
C:\Users\CYMR90~1\AppData\Local\Temp\ccYj4tTD.s:28472  .debug_str:0000000000020bbf .LASF4585
C:\Users\CYMR90~1\AppData\Local\Temp\ccYj4tTD.s:29890  .debug_str:0000000000026530 .LASF4586
C:\Users\CYMR90~1\AppData\Local\Temp\ccYj4tTD.s:31078  .debug_str:000000000002b006 .LASF4587
C:\Users\CYMR90~1\AppData\Local\Temp\ccYj4tTD.s:29808  .debug_str:000000000002604e .LASF4588
C:\Users\CYMR90~1\AppData\Local\Temp\ccYj4tTD.s:20667  .debug_str:00000000000016ce .LASF4589
C:\Users\CYMR90~1\AppData\Local\Temp\ccYj4tTD.s:27802  .debug_str:000000000001e2bc .LASF4590
C:\Users\CYMR90~1\AppData\Local\Temp\ccYj4tTD.s:30118  .debug_str:00000000000273bf .LASF4591
C:\Users\CYMR90~1\AppData\Local\Temp\ccYj4tTD.s:22907  .debug_str:000000000000a544 .LASF4592
C:\Users\CYMR90~1\AppData\Local\Temp\ccYj4tTD.s:31430  .debug_str:000000000002c712 .LASF4593
C:\Users\CYMR90~1\AppData\Local\Temp\ccYj4tTD.s:30782  .debug_str:0000000000029e9b .LASF4594
C:\Users\CYMR90~1\AppData\Local\Temp\ccYj4tTD.s:22267  .debug_str:0000000000007c03 .LASF4595
C:\Users\CYMR90~1\AppData\Local\Temp\ccYj4tTD.s:21355  .debug_str:0000000000004287 .LASF4596
C:\Users\CYMR90~1\AppData\Local\Temp\ccYj4tTD.s:29974  .debug_str:0000000000026a42 .LASF4597
C:\Users\CYMR90~1\AppData\Local\Temp\ccYj4tTD.s:27352  .debug_str:000000000001c48f .LASF4598
C:\Users\CYMR90~1\AppData\Local\Temp\ccYj4tTD.s:29946  .debug_str:00000000000268a8 .LASF4599
C:\Users\CYMR90~1\AppData\Local\Temp\ccYj4tTD.s:25281  .debug_str:0000000000013e2c .LASF4600
C:\Users\CYMR90~1\AppData\Local\Temp\ccYj4tTD.s:24195  .debug_str:000000000000f8bd .LASF4601
C:\Users\CYMR90~1\AppData\Local\Temp\ccYj4tTD.s:27902  .debug_str:000000000001e8e9 .LASF4602
C:\Users\CYMR90~1\AppData\Local\Temp\ccYj4tTD.s:21717  .debug_str:0000000000005959 .LASF4603
C:\Users\CYMR90~1\AppData\Local\Temp\ccYj4tTD.s:29108  .debug_str:00000000000231b1 .LASF4604
C:\Users\CYMR90~1\AppData\Local\Temp\ccYj4tTD.s:26514  .debug_str:0000000000018e4e .LASF4605
C:\Users\CYMR90~1\AppData\Local\Temp\ccYj4tTD.s:20871  .debug_str:0000000000002312 .LASF4606
C:\Users\CYMR90~1\AppData\Local\Temp\ccYj4tTD.s:21077  .debug_str:000000000000303b .LASF4607
C:\Users\CYMR90~1\AppData\Local\Temp\ccYj4tTD.s:29772  .debug_str:0000000000025dd0 .LASF4608
C:\Users\CYMR90~1\AppData\Local\Temp\ccYj4tTD.s:25683  .debug_str:0000000000015719 .LASF4609
C:\Users\CYMR90~1\AppData\Local\Temp\ccYj4tTD.s:31580  .debug_str:000000000002d0ca .LASF4610
C:\Users\CYMR90~1\AppData\Local\Temp\ccYj4tTD.s:22581  .debug_str:00000000000090f3 .LASF4611
C:\Users\CYMR90~1\AppData\Local\Temp\ccYj4tTD.s:30366  .debug_str:000000000002848c .LASF4612
C:\Users\CYMR90~1\AppData\Local\Temp\ccYj4tTD.s:31578  .debug_str:000000000002d091 .LASF4613
C:\Users\CYMR90~1\AppData\Local\Temp\ccYj4tTD.s:27734  .debug_str:000000000001deb9 .LASF4614
C:\Users\CYMR90~1\AppData\Local\Temp\ccYj4tTD.s:22037  .debug_str:0000000000006cb1 .LASF4615
C:\Users\CYMR90~1\AppData\Local\Temp\ccYj4tTD.s:21503  .debug_str:0000000000004cae .LASF4616
C:\Users\CYMR90~1\AppData\Local\Temp\ccYj4tTD.s:26034  .debug_str:0000000000017006 .LASF4617
C:\Users\CYMR90~1\AppData\Local\Temp\ccYj4tTD.s:31218  .debug_str:000000000002b95b .LASF4618
C:\Users\CYMR90~1\AppData\Local\Temp\ccYj4tTD.s:25065  .debug_str:0000000000013034 .LASF4619
C:\Users\CYMR90~1\AppData\Local\Temp\ccYj4tTD.s:30844  .debug_str:000000000002a220 .LASF4620
C:\Users\CYMR90~1\AppData\Local\Temp\ccYj4tTD.s:29920  .debug_str:00000000000266f6 .LASF4621
C:\Users\CYMR90~1\AppData\Local\Temp\ccYj4tTD.s:30142  .debug_str:0000000000027531 .LASF4622
C:\Users\CYMR90~1\AppData\Local\Temp\ccYj4tTD.s:30678  .debug_str:0000000000029881 .LASF4623
C:\Users\CYMR90~1\AppData\Local\Temp\ccYj4tTD.s:27258  .debug_str:000000000001beed .LASF4624
C:\Users\CYMR90~1\AppData\Local\Temp\ccYj4tTD.s:26730  .debug_str:0000000000019ce4 .LASF4625
C:\Users\CYMR90~1\AppData\Local\Temp\ccYj4tTD.s:22325  .debug_str:00000000000080f4 .LASF4626
C:\Users\CYMR90~1\AppData\Local\Temp\ccYj4tTD.s:27436  .debug_str:000000000001ca71 .LASF4627
C:\Users\CYMR90~1\AppData\Local\Temp\ccYj4tTD.s:27040  .debug_str:000000000001b1aa .LASF4628
C:\Users\CYMR90~1\AppData\Local\Temp\ccYj4tTD.s:28952  .debug_str:00000000000228b3 .LASF4629
C:\Users\CYMR90~1\AppData\Local\Temp\ccYj4tTD.s:29876  .debug_str:000000000002643f .LASF4630
C:\Users\CYMR90~1\AppData\Local\Temp\ccYj4tTD.s:20781  .debug_str:0000000000001e59 .LASF4631
C:\Users\CYMR90~1\AppData\Local\Temp\ccYj4tTD.s:25857  .debug_str:000000000001624b .LASF4632
C:\Users\CYMR90~1\AppData\Local\Temp\ccYj4tTD.s:21091  .debug_str:0000000000003141 .LASF4633
C:\Users\CYMR90~1\AppData\Local\Temp\ccYj4tTD.s:23291  .debug_str:000000000000bfdd .LASF4634
C:\Users\CYMR90~1\AppData\Local\Temp\ccYj4tTD.s:27914  .debug_str:000000000001e98f .LASF4635
C:\Users\CYMR90~1\AppData\Local\Temp\ccYj4tTD.s:20573  .debug_str:00000000000011a3 .LASF4636
C:\Users\CYMR90~1\AppData\Local\Temp\ccYj4tTD.s:29604  .debug_str:00000000000251ca .LASF4637
C:\Users\CYMR90~1\AppData\Local\Temp\ccYj4tTD.s:22435  .debug_str:00000000000087a9 .LASF4638
C:\Users\CYMR90~1\AppData\Local\Temp\ccYj4tTD.s:27538  .debug_str:000000000001d1eb .LASF4639
C:\Users\CYMR90~1\AppData\Local\Temp\ccYj4tTD.s:27556  .debug_str:000000000001d2e2 .LASF4640
C:\Users\CYMR90~1\AppData\Local\Temp\ccYj4tTD.s:28512  .debug_str:0000000000020e21 .LASF4641
C:\Users\CYMR90~1\AppData\Local\Temp\ccYj4tTD.s:26978  .debug_str:000000000001ad6d .LASF4642
C:\Users\CYMR90~1\AppData\Local\Temp\ccYj4tTD.s:21753  .debug_str:0000000000005ba4 .LASF4643
C:\Users\CYMR90~1\AppData\Local\Temp\ccYj4tTD.s:30328  .debug_str:0000000000028162 .LASF4644
C:\Users\CYMR90~1\AppData\Local\Temp\ccYj4tTD.s:29240  .debug_str:0000000000023a06 .LASF4645
C:\Users\CYMR90~1\AppData\Local\Temp\ccYj4tTD.s:25577  .debug_str:00000000000150e8 .LASF4646
C:\Users\CYMR90~1\AppData\Local\Temp\ccYj4tTD.s:27668  .debug_str:000000000001da31 .LASF4647
C:\Users\CYMR90~1\AppData\Local\Temp\ccYj4tTD.s:21055  .debug_str:0000000000002ee3 .LASF4648
C:\Users\CYMR90~1\AppData\Local\Temp\ccYj4tTD.s:20319  .debug_str:00000000000001d0 .LASF4649
C:\Users\CYMR90~1\AppData\Local\Temp\ccYj4tTD.s:26682  .debug_str:00000000000199bf .LASF4650
C:\Users\CYMR90~1\AppData\Local\Temp\ccYj4tTD.s:24465  .debug_str:00000000000108c0 .LASF4651
C:\Users\CYMR90~1\AppData\Local\Temp\ccYj4tTD.s:21369  .debug_str:000000000000434a .LASF4652
C:\Users\CYMR90~1\AppData\Local\Temp\ccYj4tTD.s:26618  .debug_str:0000000000019547 .LASF4653
C:\Users\CYMR90~1\AppData\Local\Temp\ccYj4tTD.s:29932  .debug_str:00000000000267d7 .LASF4654
C:\Users\CYMR90~1\AppData\Local\Temp\ccYj4tTD.s:20345  .debug_str:0000000000000365 .LASF4655
C:\Users\CYMR90~1\AppData\Local\Temp\ccYj4tTD.s:20395  .debug_str:0000000000000632 .LASF4656
C:\Users\CYMR90~1\AppData\Local\Temp\ccYj4tTD.s:30590  .debug_str:0000000000029290 .LASF4657
C:\Users\CYMR90~1\AppData\Local\Temp\ccYj4tTD.s:21401  .debug_str:000000000000458d .LASF4658
C:\Users\CYMR90~1\AppData\Local\Temp\ccYj4tTD.s:23047  .debug_str:000000000000aed7 .LASF4659
C:\Users\CYMR90~1\AppData\Local\Temp\ccYj4tTD.s:20367  .debug_str:00000000000004c7 .LASF4660
C:\Users\CYMR90~1\AppData\Local\Temp\ccYj4tTD.s:27890  .debug_str:000000000001e827 .LASF4661
C:\Users\CYMR90~1\AppData\Local\Temp\ccYj4tTD.s:26042  .debug_str:000000000001709d .LASF4662
C:\Users\CYMR90~1\AppData\Local\Temp\ccYj4tTD.s:20921  .debug_str:000000000000262c .LASF4663
C:\Users\CYMR90~1\AppData\Local\Temp\ccYj4tTD.s:30040  .debug_str:0000000000026e4d .LASF4664
C:\Users\CYMR90~1\AppData\Local\Temp\ccYj4tTD.s:31384  .debug_str:000000000002c40d .LASF4665
C:\Users\CYMR90~1\AppData\Local\Temp\ccYj4tTD.s:28340  .debug_str:0000000000020301 .LASF4666
C:\Users\CYMR90~1\AppData\Local\Temp\ccYj4tTD.s:23383  .debug_str:000000000000c568 .LASF4667
C:\Users\CYMR90~1\AppData\Local\Temp\ccYj4tTD.s:21235  .debug_str:0000000000003a9d .LASF4668
C:\Users\CYMR90~1\AppData\Local\Temp\ccYj4tTD.s:23287  .debug_str:000000000000bf79 .LASF4669
C:\Users\CYMR90~1\AppData\Local\Temp\ccYj4tTD.s:28950  .debug_str:0000000000022895 .LASF4670
C:\Users\CYMR90~1\AppData\Local\Temp\ccYj4tTD.s:30482  .debug_str:0000000000028c06 .LASF4671
C:\Users\CYMR90~1\AppData\Local\Temp\ccYj4tTD.s:21797  .debug_str:0000000000005e23 .LASF4672
C:\Users\CYMR90~1\AppData\Local\Temp\ccYj4tTD.s:24583  .debug_str:0000000000011027 .LASF4673
C:\Users\CYMR90~1\AppData\Local\Temp\ccYj4tTD.s:23765  .debug_str:000000000000de1a .LASF4674
C:\Users\CYMR90~1\AppData\Local\Temp\ccYj4tTD.s:21453  .debug_str:0000000000004996 .LASF4675
C:\Users\CYMR90~1\AppData\Local\Temp\ccYj4tTD.s:23493  .debug_str:000000000000cd04 .LASF4676
C:\Users\CYMR90~1\AppData\Local\Temp\ccYj4tTD.s:25241  .debug_str:0000000000013bad .LASF4677
C:\Users\CYMR90~1\AppData\Local\Temp\ccYj4tTD.s:21271  .debug_str:0000000000003c9b .LASF4678
C:\Users\CYMR90~1\AppData\Local\Temp\ccYj4tTD.s:25569  .debug_str:0000000000015075 .LASF4679
C:\Users\CYMR90~1\AppData\Local\Temp\ccYj4tTD.s:20293  .debug_str:000000000000002e .LASF4680
C:\Users\CYMR90~1\AppData\Local\Temp\ccYj4tTD.s:24567  .debug_str:0000000000010f38 .LASF4681
C:\Users\CYMR90~1\AppData\Local\Temp\ccYj4tTD.s:26936  .debug_str:000000000001aad7 .LASF4682
C:\Users\CYMR90~1\AppData\Local\Temp\ccYj4tTD.s:25987  .debug_str:0000000000016b8d .LASF4683
C:\Users\CYMR90~1\AppData\Local\Temp\ccYj4tTD.s:31322  .debug_str:000000000002c030 .LASF4684
C:\Users\CYMR90~1\AppData\Local\Temp\ccYj4tTD.s:29378  .debug_str:0000000000024297 .LASF4685
C:\Users\CYMR90~1\AppData\Local\Temp\ccYj4tTD.s:22017  .debug_str:0000000000006b50 .LASF4686
C:\Users\CYMR90~1\AppData\Local\Temp\ccYj4tTD.s:28012  .debug_str:000000000001ef3f .LASF4687
C:\Users\CYMR90~1\AppData\Local\Temp\ccYj4tTD.s:25507  .debug_str:0000000000014c2a .LASF4688
C:\Users\CYMR90~1\AppData\Local\Temp\ccYj4tTD.s:30666  .debug_str:00000000000297c1 .LASF4689
C:\Users\CYMR90~1\AppData\Local\Temp\ccYj4tTD.s:26538  .debug_str:0000000000018f7c .LASF4690
C:\Users\CYMR90~1\AppData\Local\Temp\ccYj4tTD.s:25093  .debug_str:00000000000131fb .LASF4691
C:\Users\CYMR90~1\AppData\Local\Temp\ccYj4tTD.s:20915  .debug_str:0000000000002596 .LASF4692
C:\Users\CYMR90~1\AppData\Local\Temp\ccYj4tTD.s:27994  .debug_str:000000000001ee1c .LASF4693
C:\Users\CYMR90~1\AppData\Local\Temp\ccYj4tTD.s:22899  .debug_str:000000000000a4bd .LASF4694
C:\Users\CYMR90~1\AppData\Local\Temp\ccYj4tTD.s:20423  .debug_str:0000000000000814 .LASF4695
C:\Users\CYMR90~1\AppData\Local\Temp\ccYj4tTD.s:26952  .debug_str:000000000001abd6 .LASF4696
C:\Users\CYMR90~1\AppData\Local\Temp\ccYj4tTD.s:30252  .debug_str:0000000000027c01 .LASF4697
C:\Users\CYMR90~1\AppData\Local\Temp\ccYj4tTD.s:25651  .debug_str:0000000000015539 .LASF4698
C:\Users\CYMR90~1\AppData\Local\Temp\ccYj4tTD.s:26602  .debug_str:0000000000019413 .LASF4699
C:\Users\CYMR90~1\AppData\Local\Temp\ccYj4tTD.s:23279  .debug_str:000000000000bef1 .LASF4700
C:\Users\CYMR90~1\AppData\Local\Temp\ccYj4tTD.s:26660  .debug_str:00000000000197f4 .LASF4701
C:\Users\CYMR90~1\AppData\Local\Temp\ccYj4tTD.s:28568  .debug_str:000000000002111b .LASF4702
C:\Users\CYMR90~1\AppData\Local\Temp\ccYj4tTD.s:26684  .debug_str:00000000000199fa .LASF4703
C:\Users\CYMR90~1\AppData\Local\Temp\ccYj4tTD.s:21351  .debug_str:000000000000423e .LASF4704
C:\Users\CYMR90~1\AppData\Local\Temp\ccYj4tTD.s:22947  .debug_str:000000000000a761 .LASF4705
C:\Users\CYMR90~1\AppData\Local\Temp\ccYj4tTD.s:23637  .debug_str:000000000000d6a9 .LASF4706
C:\Users\CYMR90~1\AppData\Local\Temp\ccYj4tTD.s:28410  .debug_str:00000000000207ee .LASF4707
C:\Users\CYMR90~1\AppData\Local\Temp\ccYj4tTD.s:28006  .debug_str:000000000001eed6 .LASF4708
C:\Users\CYMR90~1\AppData\Local\Temp\ccYj4tTD.s:23763  .debug_str:000000000000ddde .LASF4709
C:\Users\CYMR90~1\AppData\Local\Temp\ccYj4tTD.s:27058  .debug_str:000000000001b2ee .LASF4710
C:\Users\CYMR90~1\AppData\Local\Temp\ccYj4tTD.s:30896  .debug_str:000000000002a4fb .LASF4711
C:\Users\CYMR90~1\AppData\Local\Temp\ccYj4tTD.s:24485  .debug_str:0000000000010a30 .LASF4712
C:\Users\CYMR90~1\AppData\Local\Temp\ccYj4tTD.s:25207  .debug_str:00000000000139a3 .LASF4713
C:\Users\CYMR90~1\AppData\Local\Temp\ccYj4tTD.s:28850  .debug_str:00000000000222bd .LASF4714
C:\Users\CYMR90~1\AppData\Local\Temp\ccYj4tTD.s:31000  .debug_str:000000000002ab5d .LASF4715
C:\Users\CYMR90~1\AppData\Local\Temp\ccYj4tTD.s:24271  .debug_str:000000000000fd40 .LASF4716
C:\Users\CYMR90~1\AppData\Local\Temp\ccYj4tTD.s:28914  .debug_str:0000000000022644 .LASF4717
C:\Users\CYMR90~1\AppData\Local\Temp\ccYj4tTD.s:31236  .debug_str:000000000002ba59 .LASF4718
C:\Users\CYMR90~1\AppData\Local\Temp\ccYj4tTD.s:29420  .debug_str:0000000000024562 .LASF4719
C:\Users\CYMR90~1\AppData\Local\Temp\ccYj4tTD.s:27468  .debug_str:000000000001cc78 .LASF4720
C:\Users\CYMR90~1\AppData\Local\Temp\ccYj4tTD.s:27402  .debug_str:000000000001c843 .LASF4721
C:\Users\CYMR90~1\AppData\Local\Temp\ccYj4tTD.s:26710  .debug_str:0000000000019b9a .LASF4722
C:\Users\CYMR90~1\AppData\Local\Temp\ccYj4tTD.s:24407  .debug_str:0000000000010553 .LASF4723
C:\Users\CYMR90~1\AppData\Local\Temp\ccYj4tTD.s:24841  .debug_str:000000000001218d .LASF4724
C:\Users\CYMR90~1\AppData\Local\Temp\ccYj4tTD.s:21147  .debug_str:00000000000034ee .LASF4725
C:\Users\CYMR90~1\AppData\Local\Temp\ccYj4tTD.s:22023  .debug_str:0000000000006bb6 .LASF4726
C:\Users\CYMR90~1\AppData\Local\Temp\ccYj4tTD.s:24897  .debug_str:000000000001251e .LASF4727
C:\Users\CYMR90~1\AppData\Local\Temp\ccYj4tTD.s:31040  .debug_str:000000000002adb1 .LASF4728
C:\Users\CYMR90~1\AppData\Local\Temp\ccYj4tTD.s:23881  .debug_str:000000000000e507 .LASF4729
C:\Users\CYMR90~1\AppData\Local\Temp\ccYj4tTD.s:26812  .debug_str:000000000001a197 .LASF4730
C:\Users\CYMR90~1\AppData\Local\Temp\ccYj4tTD.s:20509  .debug_str:0000000000000d88 .LASF4731
C:\Users\CYMR90~1\AppData\Local\Temp\ccYj4tTD.s:30256  .debug_str:0000000000027c4e .LASF4732
C:\Users\CYMR90~1\AppData\Local\Temp\ccYj4tTD.s:31494  .debug_str:000000000002cb35 .LASF4733
C:\Users\CYMR90~1\AppData\Local\Temp\ccYj4tTD.s:23665  .debug_str:000000000000d83f .LASF4734
C:\Users\CYMR90~1\AppData\Local\Temp\ccYj4tTD.s:26328  .debug_str:0000000000018209 .LASF4735
C:\Users\CYMR90~1\AppData\Local\Temp\ccYj4tTD.s:20657  .debug_str:0000000000001638 .LASF4736
C:\Users\CYMR90~1\AppData\Local\Temp\ccYj4tTD.s:29300  .debug_str:0000000000023d73 .LASF4737
C:\Users\CYMR90~1\AppData\Local\Temp\ccYj4tTD.s:25795  .debug_str:0000000000015e4e .LASF4738
C:\Users\CYMR90~1\AppData\Local\Temp\ccYj4tTD.s:30962  .debug_str:000000000002a93a .LASF4739
C:\Users\CYMR90~1\AppData\Local\Temp\ccYj4tTD.s:29906  .debug_str:000000000002661d .LASF4740
C:\Users\CYMR90~1\AppData\Local\Temp\ccYj4tTD.s:30964  .debug_str:000000000002a958 .LASF4741
C:\Users\CYMR90~1\AppData\Local\Temp\ccYj4tTD.s:27340  .debug_str:000000000001c3e4 .LASF4742
C:\Users\CYMR90~1\AppData\Local\Temp\ccYj4tTD.s:20603  .debug_str:0000000000001330 .LASF4743
C:\Users\CYMR90~1\AppData\Local\Temp\ccYj4tTD.s:29680  .debug_str:00000000000257a8 .LASF4744
C:\Users\CYMR90~1\AppData\Local\Temp\ccYj4tTD.s:27242  .debug_str:000000000001bde0 .LASF4745
C:\Users\CYMR90~1\AppData\Local\Temp\ccYj4tTD.s:21791  .debug_str:0000000000005dbb .LASF4746
C:\Users\CYMR90~1\AppData\Local\Temp\ccYj4tTD.s:23887  .debug_str:000000000000e555 .LASF4747
C:\Users\CYMR90~1\AppData\Local\Temp\ccYj4tTD.s:28350  .debug_str:00000000000203d8 .LASF4748
C:\Users\CYMR90~1\AppData\Local\Temp\ccYj4tTD.s:25029  .debug_str:0000000000012dc7 .LASF4749
C:\Users\CYMR90~1\AppData\Local\Temp\ccYj4tTD.s:30052  .debug_str:0000000000026f1f .LASF4750
C:\Users\CYMR90~1\AppData\Local\Temp\ccYj4tTD.s:25561  .debug_str:0000000000014fe6 .LASF4751
C:\Users\CYMR90~1\AppData\Local\Temp\ccYj4tTD.s:25313  .debug_str:000000000001401a .LASF4752
C:\Users\CYMR90~1\AppData\Local\Temp\ccYj4tTD.s:23373  .debug_str:000000000000c4c9 .LASF4753
C:\Users\CYMR90~1\AppData\Local\Temp\ccYj4tTD.s:28220  .debug_str:000000000001fbff .LASF4754
C:\Users\CYMR90~1\AppData\Local\Temp\ccYj4tTD.s:23987  .debug_str:000000000000ebeb .LASF4755
C:\Users\CYMR90~1\AppData\Local\Temp\ccYj4tTD.s:21703  .debug_str:0000000000005861 .LASF4756
C:\Users\CYMR90~1\AppData\Local\Temp\ccYj4tTD.s:30802  .debug_str:0000000000029fa5 .LASF4757
C:\Users\CYMR90~1\AppData\Local\Temp\ccYj4tTD.s:28524  .debug_str:0000000000020ec3 .LASF4758
C:\Users\CYMR90~1\AppData\Local\Temp\ccYj4tTD.s:21757  .debug_str:0000000000005be9 .LASF4759
C:\Users\CYMR90~1\AppData\Local\Temp\ccYj4tTD.s:24187  .debug_str:000000000000f848 .LASF4760
C:\Users\CYMR90~1\AppData\Local\Temp\ccYj4tTD.s:22615  .debug_str:0000000000009303 .LASF4761
C:\Users\CYMR90~1\AppData\Local\Temp\ccYj4tTD.s:30998  .debug_str:000000000002ab3b .LASF4762
C:\Users\CYMR90~1\AppData\Local\Temp\ccYj4tTD.s:28614  .debug_str:0000000000021489 .LASF4763
C:\Users\CYMR90~1\AppData\Local\Temp\ccYj4tTD.s:30456  .debug_str:0000000000028a9e .LASF4764
C:\Users\CYMR90~1\AppData\Local\Temp\ccYj4tTD.s:22009  .debug_str:0000000000006acd .LASF4765
C:\Users\CYMR90~1\AppData\Local\Temp\ccYj4tTD.s:28766  .debug_str:0000000000021db8 .LASF4766
C:\Users\CYMR90~1\AppData\Local\Temp\ccYj4tTD.s:30628  .debug_str:0000000000029535 .LASF4767
C:\Users\CYMR90~1\AppData\Local\Temp\ccYj4tTD.s:30352  .debug_str:00000000000283ac .LASF4768
C:\Users\CYMR90~1\AppData\Local\Temp\ccYj4tTD.s:29644  .debug_str:0000000000025514 .LASF4769
C:\Users\CYMR90~1\AppData\Local\Temp\ccYj4tTD.s:26786  .debug_str:000000000001a023 .LASF4770
C:\Users\CYMR90~1\AppData\Local\Temp\ccYj4tTD.s:22785  .debug_str:0000000000009d92 .LASF4771
C:\Users\CYMR90~1\AppData\Local\Temp\ccYj4tTD.s:24189  .debug_str:000000000000f86a .LASF4772
C:\Users\CYMR90~1\AppData\Local\Temp\ccYj4tTD.s:20875  .debug_str:0000000000002345 .LASF4773
C:\Users\CYMR90~1\AppData\Local\Temp\ccYj4tTD.s:22933  .debug_str:000000000000a6a0 .LASF4774
C:\Users\CYMR90~1\AppData\Local\Temp\ccYj4tTD.s:27860  .debug_str:000000000001e62b .LASF4775
C:\Users\CYMR90~1\AppData\Local\Temp\ccYj4tTD.s:26106  .debug_str:000000000001743e .LASF4776
C:\Users\CYMR90~1\AppData\Local\Temp\ccYj4tTD.s:23587  .debug_str:000000000000d30e .LASF4777
C:\Users\CYMR90~1\AppData\Local\Temp\ccYj4tTD.s:31372  .debug_str:000000000002c2f9 .LASF4778
C:\Users\CYMR90~1\AppData\Local\Temp\ccYj4tTD.s:25945  .debug_str:00000000000167ed .LASF4779
C:\Users\CYMR90~1\AppData\Local\Temp\ccYj4tTD.s:31028  .debug_str:000000000002acf3 .LASF4780
C:\Users\CYMR90~1\AppData\Local\Temp\ccYj4tTD.s:21083  .debug_str:00000000000030c3 .LASF4781
C:\Users\CYMR90~1\AppData\Local\Temp\ccYj4tTD.s:29396  .debug_str:00000000000243f7 .LASF4782
C:\Users\CYMR90~1\AppData\Local\Temp\ccYj4tTD.s:25955  .debug_str:00000000000168f3 .LASF4783
C:\Users\CYMR90~1\AppData\Local\Temp\ccYj4tTD.s:22503  .debug_str:0000000000008c20 .LASF4784
C:\Users\CYMR90~1\AppData\Local\Temp\ccYj4tTD.s:30136  .debug_str:00000000000274e6 .LASF4785
C:\Users\CYMR90~1\AppData\Local\Temp\ccYj4tTD.s:29062  .debug_str:0000000000022f58 .LASF4786
C:\Users\CYMR90~1\AppData\Local\Temp\ccYj4tTD.s:20845  .debug_str:00000000000021bb .LASF4787
C:\Users\CYMR90~1\AppData\Local\Temp\ccYj4tTD.s:21969  .debug_str:0000000000006860 .LASF4788
C:\Users\CYMR90~1\AppData\Local\Temp\ccYj4tTD.s:30274  .debug_str:0000000000027d97 .LASF4789
C:\Users\CYMR90~1\AppData\Local\Temp\ccYj4tTD.s:27792  .debug_str:000000000001e235 .LASF4790
C:\Users\CYMR90~1\AppData\Local\Temp\ccYj4tTD.s:22331  .debug_str:000000000000814b .LASF4791
C:\Users\CYMR90~1\AppData\Local\Temp\ccYj4tTD.s:30194  .debug_str:000000000002782b .LASF4792
C:\Users\CYMR90~1\AppData\Local\Temp\ccYj4tTD.s:24051  .debug_str:000000000000ef56 .LASF4793
C:\Users\CYMR90~1\AppData\Local\Temp\ccYj4tTD.s:27476  .debug_str:000000000001ccf6 .LASF4794
C:\Users\CYMR90~1\AppData\Local\Temp\ccYj4tTD.s:27606  .debug_str:000000000001d5e4 .LASF4795
C:\Users\CYMR90~1\AppData\Local\Temp\ccYj4tTD.s:20829  .debug_str:00000000000020e6 .LASF4796
C:\Users\CYMR90~1\AppData\Local\Temp\ccYj4tTD.s:24213  .debug_str:000000000000f9a9 .LASF4797
C:\Users\CYMR90~1\AppData\Local\Temp\ccYj4tTD.s:30780  .debug_str:0000000000029e7c .LASF4798
C:\Users\CYMR90~1\AppData\Local\Temp\ccYj4tTD.s:24029  .debug_str:000000000000ee20 .LASF4799
C:\Users\CYMR90~1\AppData\Local\Temp\ccYj4tTD.s:27394  .debug_str:000000000001c72d .LASF4800
C:\Users\CYMR90~1\AppData\Local\Temp\ccYj4tTD.s:21319  .debug_str:0000000000003fe8 .LASF4801
C:\Users\CYMR90~1\AppData\Local\Temp\ccYj4tTD.s:29758  .debug_str:0000000000025cf6 .LASF4802
C:\Users\CYMR90~1\AppData\Local\Temp\ccYj4tTD.s:23923  .debug_str:000000000000e7da .LASF4803
C:\Users\CYMR90~1\AppData\Local\Temp\ccYj4tTD.s:28660  .debug_str:0000000000021769 .LASF4804
C:\Users\CYMR90~1\AppData\Local\Temp\ccYj4tTD.s:25397  .debug_str:0000000000014539 .LASF4805
C:\Users\CYMR90~1\AppData\Local\Temp\ccYj4tTD.s:23071  .debug_str:000000000000b0f3 .LASF4806
C:\Users\CYMR90~1\AppData\Local\Temp\ccYj4tTD.s:28480  .debug_str:0000000000020c3f .LASF4807
C:\Users\CYMR90~1\AppData\Local\Temp\ccYj4tTD.s:29872  .debug_str:00000000000263ef .LASF4808
C:\Users\CYMR90~1\AppData\Local\Temp\ccYj4tTD.s:28170  .debug_str:000000000001f8d8 .LASF4809
C:\Users\CYMR90~1\AppData\Local\Temp\ccYj4tTD.s:28768  .debug_str:0000000000021ddc .LASF4810
C:\Users\CYMR90~1\AppData\Local\Temp\ccYj4tTD.s:27042  .debug_str:000000000001b1c3 .LASF4811
C:\Users\CYMR90~1\AppData\Local\Temp\ccYj4tTD.s:28322  .debug_str:000000000002020c .LASF4812
C:\Users\CYMR90~1\AppData\Local\Temp\ccYj4tTD.s:29820  .debug_str:00000000000260f7 .LASF4813
C:\Users\CYMR90~1\AppData\Local\Temp\ccYj4tTD.s:29304  .debug_str:0000000000023db3 .LASF4814
C:\Users\CYMR90~1\AppData\Local\Temp\ccYj4tTD.s:22523  .debug_str:0000000000008d1c .LASF4815
C:\Users\CYMR90~1\AppData\Local\Temp\ccYj4tTD.s:31584  .debug_str:000000000002d0f7 .LASF4816
C:\Users\CYMR90~1\AppData\Local\Temp\ccYj4tTD.s:21933  .debug_str:0000000000006640 .LASF4817
C:\Users\CYMR90~1\AppData\Local\Temp\ccYj4tTD.s:21571  .debug_str:000000000000509b .LASF4818
C:\Users\CYMR90~1\AppData\Local\Temp\ccYj4tTD.s:29020  .debug_str:0000000000022d08 .LASF4819
C:\Users\CYMR90~1\AppData\Local\Temp\ccYj4tTD.s:28968  .debug_str:00000000000229b5 .LASF4820
C:\Users\CYMR90~1\AppData\Local\Temp\ccYj4tTD.s:28266  .debug_str:000000000001fefc .LASF4821
C:\Users\CYMR90~1\AppData\Local\Temp\ccYj4tTD.s:20461  .debug_str:0000000000000a6f .LASF4822
C:\Users\CYMR90~1\AppData\Local\Temp\ccYj4tTD.s:25185  .debug_str:0000000000013867 .LASF4823
C:\Users\CYMR90~1\AppData\Local\Temp\ccYj4tTD.s:26306  .debug_str:0000000000018081 .LASF4824
C:\Users\CYMR90~1\AppData\Local\Temp\ccYj4tTD.s:23909  .debug_str:000000000000e6fa .LASF4825
C:\Users\CYMR90~1\AppData\Local\Temp\ccYj4tTD.s:27502  .debug_str:000000000001cf41 .LASF4826
C:\Users\CYMR90~1\AppData\Local\Temp\ccYj4tTD.s:25533  .debug_str:0000000000014e19 .LASF4827
C:\Users\CYMR90~1\AppData\Local\Temp\ccYj4tTD.s:20841  .debug_str:0000000000002174 .LASF4828
C:\Users\CYMR90~1\AppData\Local\Temp\ccYj4tTD.s:22305  .debug_str:0000000000007f0a .LASF4829
C:\Users\CYMR90~1\AppData\Local\Temp\ccYj4tTD.s:23345  .debug_str:000000000000c325 .LASF4830
C:\Users\CYMR90~1\AppData\Local\Temp\ccYj4tTD.s:25679  .debug_str:00000000000156e2 .LASF4831
C:\Users\CYMR90~1\AppData\Local\Temp\ccYj4tTD.s:27192  .debug_str:000000000001ba84 .LASF4832
C:\Users\CYMR90~1\AppData\Local\Temp\ccYj4tTD.s:21407  .debug_str:00000000000045e2 .LASF4833
C:\Users\CYMR90~1\AppData\Local\Temp\ccYj4tTD.s:22429  .debug_str:0000000000008761 .LASF4834
C:\Users\CYMR90~1\AppData\Local\Temp\ccYj4tTD.s:21459  .debug_str:00000000000049f7 .LASF4835
C:\Users\CYMR90~1\AppData\Local\Temp\ccYj4tTD.s:27772  .debug_str:000000000001e112 .LASF4836
C:\Users\CYMR90~1\AppData\Local\Temp\ccYj4tTD.s:29398  .debug_str:0000000000024413 .LASF4837
C:\Users\CYMR90~1\AppData\Local\Temp\ccYj4tTD.s:30912  .debug_str:000000000002a633 .LASF4838
C:\Users\CYMR90~1\AppData\Local\Temp\ccYj4tTD.s:24259  .debug_str:000000000000fc71 .LASF4839
C:\Users\CYMR90~1\AppData\Local\Temp\ccYj4tTD.s:28794  .debug_str:0000000000021f57 .LASF4840
C:\Users\CYMR90~1\AppData\Local\Temp\ccYj4tTD.s:30344  .debug_str:0000000000028328 .LASF4841
C:\Users\CYMR90~1\AppData\Local\Temp\ccYj4tTD.s:29188  .debug_str:00000000000236ae .LASF4842
C:\Users\CYMR90~1\AppData\Local\Temp\ccYj4tTD.s:25553  .debug_str:0000000000014f69 .LASF4843
C:\Users\CYMR90~1\AppData\Local\Temp\ccYj4tTD.s:31112  .debug_str:000000000002b1e8 .LASF4844
C:\Users\CYMR90~1\AppData\Local\Temp\ccYj4tTD.s:23107  .debug_str:000000000000b30d .LASF4845
C:\Users\CYMR90~1\AppData\Local\Temp\ccYj4tTD.s:30610  .debug_str:0000000000029433 .LASF4846
C:\Users\CYMR90~1\AppData\Local\Temp\ccYj4tTD.s:25631  .debug_str:0000000000015436 .LASF4847
C:\Users\CYMR90~1\AppData\Local\Temp\ccYj4tTD.s:28670  .debug_str:00000000000217f3 .LASF4848
C:\Users\CYMR90~1\AppData\Local\Temp\ccYj4tTD.s:25597  .debug_str:0000000000015240 .LASF4849
C:\Users\CYMR90~1\AppData\Local\Temp\ccYj4tTD.s:20433  .debug_str:00000000000008ab .LASF4850
C:\Users\CYMR90~1\AppData\Local\Temp\ccYj4tTD.s:20381  .debug_str:000000000000057c .LASF4851
C:\Users\CYMR90~1\AppData\Local\Temp\ccYj4tTD.s:27972  .debug_str:000000000001ecda .LASF4852
C:\Users\CYMR90~1\AppData\Local\Temp\ccYj4tTD.s:22849  .debug_str:000000000000a192 .LASF4853
C:\Users\CYMR90~1\AppData\Local\Temp\ccYj4tTD.s:21679  .debug_str:00000000000056fb .LASF4854
C:\Users\CYMR90~1\AppData\Local\Temp\ccYj4tTD.s:24185  .debug_str:000000000000f81e .LASF4855
C:\Users\CYMR90~1\AppData\Local\Temp\ccYj4tTD.s:26442  .debug_str:00000000000188dc .LASF4856
C:\Users\CYMR90~1\AppData\Local\Temp\ccYj4tTD.s:20941  .debug_str:00000000000027aa .LASF4857
C:\Users\CYMR90~1\AppData\Local\Temp\ccYj4tTD.s:26688  .debug_str:0000000000019a4d .LASF4858
C:\Users\CYMR90~1\AppData\Local\Temp\ccYj4tTD.s:28028  .debug_str:000000000001f055 .LASF4859
C:\Users\CYMR90~1\AppData\Local\Temp\ccYj4tTD.s:20469  .debug_str:0000000000000b35 .LASF4860
C:\Users\CYMR90~1\AppData\Local\Temp\ccYj4tTD.s:21913  .debug_str:0000000000006527 .LASF4861
C:\Users\CYMR90~1\AppData\Local\Temp\ccYj4tTD.s:24939  .debug_str:00000000000127de .LASF4862
C:\Users\CYMR90~1\AppData\Local\Temp\ccYj4tTD.s:27304  .debug_str:000000000001c1f0 .LASF4863
C:\Users\CYMR90~1\AppData\Local\Temp\ccYj4tTD.s:26690  .debug_str:0000000000019a79 .LASF4864
C:\Users\CYMR90~1\AppData\Local\Temp\ccYj4tTD.s:31064  .debug_str:000000000002af3b .LASF4865
C:\Users\CYMR90~1\AppData\Local\Temp\ccYj4tTD.s:23265  .debug_str:000000000000bdf3 .LASF4866
C:\Users\CYMR90~1\AppData\Local\Temp\ccYj4tTD.s:26276  .debug_str:0000000000017efc .LASF4867
C:\Users\CYMR90~1\AppData\Local\Temp\ccYj4tTD.s:25287  .debug_str:0000000000013e8c .LASF4868
C:\Users\CYMR90~1\AppData\Local\Temp\ccYj4tTD.s:27918  .debug_str:000000000001e9e0 .LASF4869
C:\Users\CYMR90~1\AppData\Local\Temp\ccYj4tTD.s:28466  .debug_str:0000000000020b64 .LASF4870
C:\Users\CYMR90~1\AppData\Local\Temp\ccYj4tTD.s:28470  .debug_str:0000000000020b9d .LASF4871
C:\Users\CYMR90~1\AppData\Local\Temp\ccYj4tTD.s:21061  .debug_str:0000000000002f48 .LASF4872
C:\Users\CYMR90~1\AppData\Local\Temp\ccYj4tTD.s:24357  .debug_str:0000000000010294 .LASF4873
C:\Users\CYMR90~1\AppData\Local\Temp\ccYj4tTD.s:30806  .debug_str:0000000000029fe2 .LASF4874
C:\Users\CYMR90~1\AppData\Local\Temp\ccYj4tTD.s:22463  .debug_str:00000000000089a4 .LASF4875
C:\Users\CYMR90~1\AppData\Local\Temp\ccYj4tTD.s:24219  .debug_str:000000000000f9ff .LASF4876
C:\Users\CYMR90~1\AppData\Local\Temp\ccYj4tTD.s:21003  .debug_str:0000000000002bcc .LASF4877
C:\Users\CYMR90~1\AppData\Local\Temp\ccYj4tTD.s:24247  .debug_str:000000000000fbd0 .LASF4878
C:\Users\CYMR90~1\AppData\Local\Temp\ccYj4tTD.s:26070  .debug_str:0000000000017228 .LASF4879
C:\Users\CYMR90~1\AppData\Local\Temp\ccYj4tTD.s:23703  .debug_str:000000000000da70 .LASF4880
C:\Users\CYMR90~1\AppData\Local\Temp\ccYj4tTD.s:26148  .debug_str:00000000000176d9 .LASF4881
C:\Users\CYMR90~1\AppData\Local\Temp\ccYj4tTD.s:22735  .debug_str:0000000000009aad .LASF4882
C:\Users\CYMR90~1\AppData\Local\Temp\ccYj4tTD.s:25547  .debug_str:0000000000014f0b .LASF4883
C:\Users\CYMR90~1\AppData\Local\Temp\ccYj4tTD.s:22485  .debug_str:0000000000008b0c .LASF4884
C:\Users\CYMR90~1\AppData\Local\Temp\ccYj4tTD.s:22419  .debug_str:00000000000086c7 .LASF4885
C:\Users\CYMR90~1\AppData\Local\Temp\ccYj4tTD.s:31062  .debug_str:000000000002af16 .LASF4886
C:\Users\CYMR90~1\AppData\Local\Temp\ccYj4tTD.s:29352  .debug_str:00000000000240e6 .LASF4887
C:\Users\CYMR90~1\AppData\Local\Temp\ccYj4tTD.s:31048  .debug_str:000000000002ae4b .LASF4888
C:\Users\CYMR90~1\AppData\Local\Temp\ccYj4tTD.s:26338  .debug_str:000000000001828b .LASF4889
C:\Users\CYMR90~1\AppData\Local\Temp\ccYj4tTD.s:30536  .debug_str:0000000000028f54 .LASF4890
C:\Users\CYMR90~1\AppData\Local\Temp\ccYj4tTD.s:30218  .debug_str:000000000002798d .LASF4891
C:\Users\CYMR90~1\AppData\Local\Temp\ccYj4tTD.s:22711  .debug_str:000000000000992e .LASF4892
C:\Users\CYMR90~1\AppData\Local\Temp\ccYj4tTD.s:29960  .debug_str:000000000002695d .LASF4893
C:\Users\CYMR90~1\AppData\Local\Temp\ccYj4tTD.s:26322  .debug_str:00000000000181a0 .LASF4894
C:\Users\CYMR90~1\AppData\Local\Temp\ccYj4tTD.s:26230  .debug_str:0000000000017c15 .LASF4895
C:\Users\CYMR90~1\AppData\Local\Temp\ccYj4tTD.s:30092  .debug_str:000000000002713a .LASF4896
C:\Users\CYMR90~1\AppData\Local\Temp\ccYj4tTD.s:24109  .debug_str:000000000000f2d9 .LASF4897
C:\Users\CYMR90~1\AppData\Local\Temp\ccYj4tTD.s:27480  .debug_str:000000000001cd3a .LASF4898
C:\Users\CYMR90~1\AppData\Local\Temp\ccYj4tTD.s:26516  .debug_str:0000000000018e68 .LASF4899
C:\Users\CYMR90~1\AppData\Local\Temp\ccYj4tTD.s:23423  .debug_str:000000000000c850 .LASF4900
C:\Users\CYMR90~1\AppData\Local\Temp\ccYj4tTD.s:29612  .debug_str:00000000000252f2 .LASF4901
C:\Users\CYMR90~1\AppData\Local\Temp\ccYj4tTD.s:22841  .debug_str:000000000000a11c .LASF4902
C:\Users\CYMR90~1\AppData\Local\Temp\ccYj4tTD.s:29434  .debug_str:000000000002463f .LASF4903
C:\Users\CYMR90~1\AppData\Local\Temp\ccYj4tTD.s:27246  .debug_str:000000000001be2a .LASF4904
C:\Users\CYMR90~1\AppData\Local\Temp\ccYj4tTD.s:23565  .debug_str:000000000000d161 .LASF4905
C:\Users\CYMR90~1\AppData\Local\Temp\ccYj4tTD.s:24425  .debug_str:000000000001068c .LASF4906
C:\Users\CYMR90~1\AppData\Local\Temp\ccYj4tTD.s:20783  .debug_str:0000000000001e72 .LASF4907
C:\Users\CYMR90~1\AppData\Local\Temp\ccYj4tTD.s:26024  .debug_str:0000000000016f84 .LASF4908
C:\Users\CYMR90~1\AppData\Local\Temp\ccYj4tTD.s:27324  .debug_str:000000000001c300 .LASF4909
C:\Users\CYMR90~1\AppData\Local\Temp\ccYj4tTD.s:25445  .debug_str:000000000001486b .LASF4910
C:\Users\CYMR90~1\AppData\Local\Temp\ccYj4tTD.s:21399  .debug_str:0000000000004561 .LASF4911
C:\Users\CYMR90~1\AppData\Local\Temp\ccYj4tTD.s:26972  .debug_str:000000000001ad00 .LASF4912
C:\Users\CYMR90~1\AppData\Local\Temp\ccYj4tTD.s:29708  .debug_str:00000000000259ea .LASF4913
C:\Users\CYMR90~1\AppData\Local\Temp\ccYj4tTD.s:24163  .debug_str:000000000000f61f .LASF4914
C:\Users\CYMR90~1\AppData\Local\Temp\ccYj4tTD.s:23259  .debug_str:000000000000bd61 .LASF4915
C:\Users\CYMR90~1\AppData\Local\Temp\ccYj4tTD.s:20295  .debug_str:000000000000006a .LASF4916
C:\Users\CYMR90~1\AppData\Local\Temp\ccYj4tTD.s:23335  .debug_str:000000000000c2a2 .LASF4917
C:\Users\CYMR90~1\AppData\Local\Temp\ccYj4tTD.s:29142  .debug_str:00000000000233a4 .LASF4918
C:\Users\CYMR90~1\AppData\Local\Temp\ccYj4tTD.s:31258  .debug_str:000000000002bbd8 .LASF4919
C:\Users\CYMR90~1\AppData\Local\Temp\ccYj4tTD.s:25685  .debug_str:0000000000015733 .LASF4920
C:\Users\CYMR90~1\AppData\Local\Temp\ccYj4tTD.s:23217  .debug_str:000000000000ba81 .LASF4921
C:\Users\CYMR90~1\AppData\Local\Temp\ccYj4tTD.s:25537  .debug_str:0000000000014e60 .LASF4922
C:\Users\CYMR90~1\AppData\Local\Temp\ccYj4tTD.s:23173  .debug_str:000000000000b79a .LASF4923
C:\Users\CYMR90~1\AppData\Local\Temp\ccYj4tTD.s:25733  .debug_str:0000000000015a22 .LASF4924
C:\Users\CYMR90~1\AppData\Local\Temp\ccYj4tTD.s:24617  .debug_str:0000000000011236 .LASF4925
C:\Users\CYMR90~1\AppData\Local\Temp\ccYj4tTD.s:24549  .debug_str:0000000000010e3d .LASF4926
C:\Users\CYMR90~1\AppData\Local\Temp\ccYj4tTD.s:24863  .debug_str:00000000000122f9 .LASF4927
C:\Users\CYMR90~1\AppData\Local\Temp\ccYj4tTD.s:25607  .debug_str:00000000000152fe .LASF4928
C:\Users\CYMR90~1\AppData\Local\Temp\ccYj4tTD.s:24531  .debug_str:0000000000010d60 .LASF4929
C:\Users\CYMR90~1\AppData\Local\Temp\ccYj4tTD.s:30406  .debug_str:0000000000028774 .LASF4930
C:\Users\CYMR90~1\AppData\Local\Temp\ccYj4tTD.s:22193  .debug_str:0000000000007752 .LASF4931
C:\Users\CYMR90~1\AppData\Local\Temp\ccYj4tTD.s:31308  .debug_str:000000000002beef .LASF4932
C:\Users\CYMR90~1\AppData\Local\Temp\ccYj4tTD.s:31326  .debug_str:000000000002c088 .LASF4933
C:\Users\CYMR90~1\AppData\Local\Temp\ccYj4tTD.s:28494  .debug_str:0000000000020d26 .LASF4934
C:\Users\CYMR90~1\AppData\Local\Temp\ccYj4tTD.s:20495  .debug_str:0000000000000cbe .LASF4935
C:\Users\CYMR90~1\AppData\Local\Temp\ccYj4tTD.s:23213  .debug_str:000000000000ba52 .LASF4936
C:\Users\CYMR90~1\AppData\Local\Temp\ccYj4tTD.s:26396  .debug_str:0000000000018626 .LASF4937
C:\Users\CYMR90~1\AppData\Local\Temp\ccYj4tTD.s:21923  .debug_str:00000000000065b8 .LASF4938
C:\Users\CYMR90~1\AppData\Local\Temp\ccYj4tTD.s:22387  .debug_str:0000000000008512 .LASF4939
C:\Users\CYMR90~1\AppData\Local\Temp\ccYj4tTD.s:25049  .debug_str:0000000000012f2a .LASF4940
C:\Users\CYMR90~1\AppData\Local\Temp\ccYj4tTD.s:24467  .debug_str:00000000000108d9 .LASF4941
C:\Users\CYMR90~1\AppData\Local\Temp\ccYj4tTD.s:28782  .debug_str:0000000000021ec0 .LASF4942
C:\Users\CYMR90~1\AppData\Local\Temp\ccYj4tTD.s:27834  .debug_str:000000000001e4a2 .LASF4943
C:\Users\CYMR90~1\AppData\Local\Temp\ccYj4tTD.s:21599  .debug_str:000000000000525a .LASF4944
C:\Users\CYMR90~1\AppData\Local\Temp\ccYj4tTD.s:28616  .debug_str:00000000000214ad .LASF4945
C:\Users\CYMR90~1\AppData\Local\Temp\ccYj4tTD.s:31472  .debug_str:000000000002c9d1 .LASF4946
C:\Users\CYMR90~1\AppData\Local\Temp\ccYj4tTD.s:21833  .debug_str:000000000000603d .LASF4947
C:\Users\CYMR90~1\AppData\Local\Temp\ccYj4tTD.s:26774  .debug_str:0000000000019f64 .LASF4948
C:\Users\CYMR90~1\AppData\Local\Temp\ccYj4tTD.s:25617  .debug_str:0000000000015367 .LASF4949
C:\Users\CYMR90~1\AppData\Local\Temp\ccYj4tTD.s:28270  .debug_str:000000000001ff4a .LASF4950
C:\Users\CYMR90~1\AppData\Local\Temp\ccYj4tTD.s:30438  .debug_str:000000000002896a .LASF4951
C:\Users\CYMR90~1\AppData\Local\Temp\ccYj4tTD.s:25265  .debug_str:0000000000013d2d .LASF4952
C:\Users\CYMR90~1\AppData\Local\Temp\ccYj4tTD.s:25197  .debug_str:0000000000013921 .LASF4953
C:\Users\CYMR90~1\AppData\Local\Temp\ccYj4tTD.s:20893  .debug_str:000000000000247c .LASF4954
C:\Users\CYMR90~1\AppData\Local\Temp\ccYj4tTD.s:27886  .debug_str:000000000001e7d3 .LASF4955
C:\Users\CYMR90~1\AppData\Local\Temp\ccYj4tTD.s:27344  .debug_str:000000000001c418 .LASF4956
C:\Users\CYMR90~1\AppData\Local\Temp\ccYj4tTD.s:29664  .debug_str:000000000002569b .LASF4957
C:\Users\CYMR90~1\AppData\Local\Temp\ccYj4tTD.s:21977  .debug_str:00000000000068d3 .LASF4958
C:\Users\CYMR90~1\AppData\Local\Temp\ccYj4tTD.s:20747  .debug_str:0000000000001c4f .LASF4959
C:\Users\CYMR90~1\AppData\Local\Temp\ccYj4tTD.s:22575  .debug_str:00000000000090b4 .LASF4960
C:\Users\CYMR90~1\AppData\Local\Temp\ccYj4tTD.s:22737  .debug_str:0000000000009ad0 .LASF4961
C:\Users\CYMR90~1\AppData\Local\Temp\ccYj4tTD.s:20759  .debug_str:0000000000001cf0 .LASF4962
C:\Users\CYMR90~1\AppData\Local\Temp\ccYj4tTD.s:31350  .debug_str:000000000002c1e5 .LASF4963
C:\Users\CYMR90~1\AppData\Local\Temp\ccYj4tTD.s:25489  .debug_str:0000000000014b0a .LASF4964
C:\Users\CYMR90~1\AppData\Local\Temp\ccYj4tTD.s:25893  .debug_str:0000000000016471 .LASF4965
C:\Users\CYMR90~1\AppData\Local\Temp\ccYj4tTD.s:24985  .debug_str:0000000000012af9 .LASF4966
C:\Users\CYMR90~1\AppData\Local\Temp\ccYj4tTD.s:23057  .debug_str:000000000000b020 .LASF4967
C:\Users\CYMR90~1\AppData\Local\Temp\ccYj4tTD.s:25551  .debug_str:0000000000014f50 .LASF4968
C:\Users\CYMR90~1\AppData\Local\Temp\ccYj4tTD.s:22115  .debug_str:0000000000007255 .LASF4969
C:\Users\CYMR90~1\AppData\Local\Temp\ccYj4tTD.s:26318  .debug_str:0000000000018163 .LASF4970
C:\Users\CYMR90~1\AppData\Local\Temp\ccYj4tTD.s:24207  .debug_str:000000000000f958 .LASF4971
C:\Users\CYMR90~1\AppData\Local\Temp\ccYj4tTD.s:25717  .debug_str:0000000000015934 .LASF4972
C:\Users\CYMR90~1\AppData\Local\Temp\ccYj4tTD.s:22257  .debug_str:0000000000007b5c .LASF4973
C:\Users\CYMR90~1\AppData\Local\Temp\ccYj4tTD.s:26992  .debug_str:000000000001ae35 .LASF4974
C:\Users\CYMR90~1\AppData\Local\Temp\ccYj4tTD.s:31600  .debug_str:000000000002d1f5 .LASF4975
C:\Users\CYMR90~1\AppData\Local\Temp\ccYj4tTD.s:21187  .debug_str:000000000000374e .LASF4976
C:\Users\CYMR90~1\AppData\Local\Temp\ccYj4tTD.s:24845  .debug_str:00000000000121bd .LASF4977
C:\Users\CYMR90~1\AppData\Local\Temp\ccYj4tTD.s:28980  .debug_str:0000000000022a5a .LASF4978
C:\Users\CYMR90~1\AppData\Local\Temp\ccYj4tTD.s:21555  .debug_str:0000000000004fb5 .LASF4979
C:\Users\CYMR90~1\AppData\Local\Temp\ccYj4tTD.s:20763  .debug_str:0000000000001d49 .LASF4980
C:\Users\CYMR90~1\AppData\Local\Temp\ccYj4tTD.s:22733  .debug_str:0000000000009a8c .LASF4981
C:\Users\CYMR90~1\AppData\Local\Temp\ccYj4tTD.s:23623  .debug_str:000000000000d5a4 .LASF4982
C:\Users\CYMR90~1\AppData\Local\Temp\ccYj4tTD.s:20839  .debug_str:0000000000002157 .LASF4983
C:\Users\CYMR90~1\AppData\Local\Temp\ccYj4tTD.s:28746  .debug_str:0000000000021ca7 .LASF4984
C:\Users\CYMR90~1\AppData\Local\Temp\ccYj4tTD.s:28386  .debug_str:0000000000020681 .LASF4985
C:\Users\CYMR90~1\AppData\Local\Temp\ccYj4tTD.s:30102  .debug_str:0000000000027218 .LASF4986
C:\Users\CYMR90~1\AppData\Local\Temp\ccYj4tTD.s:20703  .debug_str:0000000000001995 .LASF4987
C:\Users\CYMR90~1\AppData\Local\Temp\ccYj4tTD.s:24227  .debug_str:000000000000fa86 .LASF4988
C:\Users\CYMR90~1\AppData\Local\Temp\ccYj4tTD.s:22621  .debug_str:000000000000935b .LASF4989
C:\Users\CYMR90~1\AppData\Local\Temp\ccYj4tTD.s:29550  .debug_str:0000000000024e23 .LASF4990
C:\Users\CYMR90~1\AppData\Local\Temp\ccYj4tTD.s:31030  .debug_str:000000000002ad19 .LASF4991
C:\Users\CYMR90~1\AppData\Local\Temp\ccYj4tTD.s:26044  .debug_str:00000000000170cb .LASF4992
C:\Users\CYMR90~1\AppData\Local\Temp\ccYj4tTD.s:26152  .debug_str:0000000000017720 .LASF4993
C:\Users\CYMR90~1\AppData\Local\Temp\ccYj4tTD.s:27702  .debug_str:000000000001dc3c .LASF4994
C:\Users\CYMR90~1\AppData\Local\Temp\ccYj4tTD.s:22859  .debug_str:000000000000a243 .LASF4995
C:\Users\CYMR90~1\AppData\Local\Temp\ccYj4tTD.s:28136  .debug_str:000000000001f6da .LASF4996
C:\Users\CYMR90~1\AppData\Local\Temp\ccYj4tTD.s:29318  .debug_str:0000000000023e53 .LASF4997
C:\Users\CYMR90~1\AppData\Local\Temp\ccYj4tTD.s:24977  .debug_str:0000000000012a8c .LASF4998
C:\Users\CYMR90~1\AppData\Local\Temp\ccYj4tTD.s:21191  .debug_str:0000000000003787 .LASF4999
C:\Users\CYMR90~1\AppData\Local\Temp\ccYj4tTD.s:21377  .debug_str:00000000000043d3 .LASF5000
C:\Users\CYMR90~1\AppData\Local\Temp\ccYj4tTD.s:30254  .debug_str:0000000000027c2f .LASF5001
C:\Users\CYMR90~1\AppData\Local\Temp\ccYj4tTD.s:24633  .debug_str:0000000000011329 .LASF5002
C:\Users\CYMR90~1\AppData\Local\Temp\ccYj4tTD.s:23225  .debug_str:000000000000bae8 .LASF5003
C:\Users\CYMR90~1\AppData\Local\Temp\ccYj4tTD.s:29310  .debug_str:0000000000023e02 .LASF5004
C:\Users\CYMR90~1\AppData\Local\Temp\ccYj4tTD.s:29412  .debug_str:0000000000024502 .LASF5005
C:\Users\CYMR90~1\AppData\Local\Temp\ccYj4tTD.s:25687  .debug_str:0000000000015749 .LASF5006
C:\Users\CYMR90~1\AppData\Local\Temp\ccYj4tTD.s:21215  .debug_str:000000000000391a .LASF5007
C:\Users\CYMR90~1\AppData\Local\Temp\ccYj4tTD.s:26026  .debug_str:0000000000016fae .LASF5008
C:\Users\CYMR90~1\AppData\Local\Temp\ccYj4tTD.s:21155  .debug_str:000000000000357f .LASF5009
C:\Users\CYMR90~1\AppData\Local\Temp\ccYj4tTD.s:21493  .debug_str:0000000000004c01 .LASF5010
C:\Users\CYMR90~1\AppData\Local\Temp\ccYj4tTD.s:21885  .debug_str:0000000000006370 .LASF5011
C:\Users\CYMR90~1\AppData\Local\Temp\ccYj4tTD.s:29894  .debug_str:000000000002656d .LASF5012
C:\Users\CYMR90~1\AppData\Local\Temp\ccYj4tTD.s:30810  .debug_str:000000000002a01b .LASF5013
C:\Users\CYMR90~1\AppData\Local\Temp\ccYj4tTD.s:20407  .debug_str:000000000000070f .LASF5014
C:\Users\CYMR90~1\AppData\Local\Temp\ccYj4tTD.s:26908  .debug_str:000000000001a92e .LASF5015
C:\Users\CYMR90~1\AppData\Local\Temp\ccYj4tTD.s:31288  .debug_str:000000000002bdb5 .LASF5016
C:\Users\CYMR90~1\AppData\Local\Temp\ccYj4tTD.s:23043  .debug_str:000000000000ae9e .LASF5017
C:\Users\CYMR90~1\AppData\Local\Temp\ccYj4tTD.s:21971  .debug_str:000000000000687b .LASF5018
C:\Users\CYMR90~1\AppData\Local\Temp\ccYj4tTD.s:30206  .debug_str:00000000000278c6 .LASF5019
C:\Users\CYMR90~1\AppData\Local\Temp\ccYj4tTD.s:26932  .debug_str:000000000001aa95 .LASF5020
C:\Users\CYMR90~1\AppData\Local\Temp\ccYj4tTD.s:28044  .debug_str:000000000001f15e .LASF5021
C:\Users\CYMR90~1\AppData\Local\Temp\ccYj4tTD.s:27184  .debug_str:000000000001ba1f .LASF5022
C:\Users\CYMR90~1\AppData\Local\Temp\ccYj4tTD.s:21677  .debug_str:00000000000056e2 .LASF5023
C:\Users\CYMR90~1\AppData\Local\Temp\ccYj4tTD.s:29076  .debug_str:0000000000023020 .LASF5024
C:\Users\CYMR90~1\AppData\Local\Temp\ccYj4tTD.s:29094  .debug_str:00000000000230ef .LASF5025
C:\Users\CYMR90~1\AppData\Local\Temp\ccYj4tTD.s:29584  .debug_str:0000000000025021 .LASF5026
C:\Users\CYMR90~1\AppData\Local\Temp\ccYj4tTD.s:30512  .debug_str:0000000000028db1 .LASF5027
C:\Users\CYMR90~1\AppData\Local\Temp\ccYj4tTD.s:29134  .debug_str:0000000000023337 .LASF5028
C:\Users\CYMR90~1\AppData\Local\Temp\ccYj4tTD.s:30640  .debug_str:0000000000029617 .LASF5029
C:\Users\CYMR90~1\AppData\Local\Temp\ccYj4tTD.s:25055  .debug_str:0000000000012f88 .LASF5030
C:\Users\CYMR90~1\AppData\Local\Temp\ccYj4tTD.s:24885  .debug_str:000000000001244e .LASF5031
C:\Users\CYMR90~1\AppData\Local\Temp\ccYj4tTD.s:29380  .debug_str:00000000000242c7 .LASF5032
C:\Users\CYMR90~1\AppData\Local\Temp\ccYj4tTD.s:31570  .debug_str:000000000002cff2 .LASF5033
C:\Users\CYMR90~1\AppData\Local\Temp\ccYj4tTD.s:25059  .debug_str:0000000000012fcc .LASF5034
C:\Users\CYMR90~1\AppData\Local\Temp\ccYj4tTD.s:26234  .debug_str:0000000000017c52 .LASF5035
C:\Users\CYMR90~1\AppData\Local\Temp\ccYj4tTD.s:21547  .debug_str:0000000000004f41 .LASF5036
C:\Users\CYMR90~1\AppData\Local\Temp\ccYj4tTD.s:28640  .debug_str:0000000000021614 .LASF5037
C:\Users\CYMR90~1\AppData\Local\Temp\ccYj4tTD.s:25963  .debug_str:000000000001697e .LASF5038
C:\Users\CYMR90~1\AppData\Local\Temp\ccYj4tTD.s:28464  .debug_str:0000000000020b4b .LASF5039
C:\Users\CYMR90~1\AppData\Local\Temp\ccYj4tTD.s:27948  .debug_str:000000000001eb65 .LASF5040
C:\Users\CYMR90~1\AppData\Local\Temp\ccYj4tTD.s:28882  .debug_str:0000000000022463 .LASF5041
C:\Users\CYMR90~1\AppData\Local\Temp\ccYj4tTD.s:21839  .debug_str:00000000000060af .LASF5042
C:\Users\CYMR90~1\AppData\Local\Temp\ccYj4tTD.s:29346  .debug_str:0000000000023fbf .LASF5043
C:\Users\CYMR90~1\AppData\Local\Temp\ccYj4tTD.s:27582  .debug_str:000000000001d46c .LASF5044
C:\Users\CYMR90~1\AppData\Local\Temp\ccYj4tTD.s:27562  .debug_str:000000000001d339 .LASF5045
C:\Users\CYMR90~1\AppData\Local\Temp\ccYj4tTD.s:28662  .debug_str:0000000000021794 .LASF5046
C:\Users\CYMR90~1\AppData\Local\Temp\ccYj4tTD.s:24933  .debug_str:0000000000012770 .LASF5047
C:\Users\CYMR90~1\AppData\Local\Temp\ccYj4tTD.s:26334  .debug_str:000000000001824f .LASF5048
C:\Users\CYMR90~1\AppData\Local\Temp\ccYj4tTD.s:22141  .debug_str:0000000000007430 .LASF5049
C:\Users\CYMR90~1\AppData\Local\Temp\ccYj4tTD.s:26914  .debug_str:000000000001a978 .LASF5050
C:\Users\CYMR90~1\AppData\Local\Temp\ccYj4tTD.s:30756  .debug_str:0000000000029d09 .LASF5051
C:\Users\CYMR90~1\AppData\Local\Temp\ccYj4tTD.s:23403  .debug_str:000000000000c6bf .LASF5052
C:\Users\CYMR90~1\AppData\Local\Temp\ccYj4tTD.s:23027  .debug_str:000000000000ad61 .LASF5053
C:\Users\CYMR90~1\AppData\Local\Temp\ccYj4tTD.s:24039  .debug_str:000000000000ee90 .LASF5054
C:\Users\CYMR90~1\AppData\Local\Temp\ccYj4tTD.s:22011  .debug_str:0000000000006af1 .LASF5055
C:\Users\CYMR90~1\AppData\Local\Temp\ccYj4tTD.s:28312  .debug_str:0000000000020181 .LASF5056
C:\Users\CYMR90~1\AppData\Local\Temp\ccYj4tTD.s:20897  .debug_str:00000000000024b2 .LASF5057
C:\Users\CYMR90~1\AppData\Local\Temp\ccYj4tTD.s:29122  .debug_str:000000000002326f .LASF5058
C:\Users\CYMR90~1\AppData\Local\Temp\ccYj4tTD.s:25949  .debug_str:0000000000016854 .LASF5059
C:\Users\CYMR90~1\AppData\Local\Temp\ccYj4tTD.s:30986  .debug_str:000000000002aa90 .LASF5060
C:\Users\CYMR90~1\AppData\Local\Temp\ccYj4tTD.s:24225  .debug_str:000000000000fa66 .LASF5061
C:\Users\CYMR90~1\AppData\Local\Temp\ccYj4tTD.s:30294  .debug_str:0000000000027ed9 .LASF5062
C:\Users\CYMR90~1\AppData\Local\Temp\ccYj4tTD.s:22215  .debug_str:00000000000078a7 .LASF5063
C:\Users\CYMR90~1\AppData\Local\Temp\ccYj4tTD.s:23643  .debug_str:000000000000d71c .LASF5064
C:\Users\CYMR90~1\AppData\Local\Temp\ccYj4tTD.s:31482  .debug_str:000000000002ca5f .LASF5065
C:\Users\CYMR90~1\AppData\Local\Temp\ccYj4tTD.s:23271  .debug_str:000000000000be6c .LASF5066
C:\Users\CYMR90~1\AppData\Local\Temp\ccYj4tTD.s:22833  .debug_str:000000000000a0af .LASF5067
C:\Users\CYMR90~1\AppData\Local\Temp\ccYj4tTD.s:30210  .debug_str:000000000002791e .LASF5068
C:\Users\CYMR90~1\AppData\Local\Temp\ccYj4tTD.s:24677  .debug_str:0000000000011621 .LASF5069
C:\Users\CYMR90~1\AppData\Local\Temp\ccYj4tTD.s:21469  .debug_str:0000000000004a90 .LASF5070
C:\Users\CYMR90~1\AppData\Local\Temp\ccYj4tTD.s:22779  .debug_str:0000000000009d2b .LASF5071
C:\Users\CYMR90~1\AppData\Local\Temp\ccYj4tTD.s:26560  .debug_str:00000000000191d3 .LASF5072
C:\Users\CYMR90~1\AppData\Local\Temp\ccYj4tTD.s:27522  .debug_str:000000000001d106 .LASF5073
C:\Users\CYMR90~1\AppData\Local\Temp\ccYj4tTD.s:27744  .debug_str:000000000001df75 .LASF5074
C:\Users\CYMR90~1\AppData\Local\Temp\ccYj4tTD.s:23485  .debug_str:000000000000cc78 .LASF5075
C:\Users\CYMR90~1\AppData\Local\Temp\ccYj4tTD.s:25745  .debug_str:0000000000015ac7 .LASF5076
C:\Users\CYMR90~1\AppData\Local\Temp\ccYj4tTD.s:23875  .debug_str:000000000000e49a .LASF5077
C:\Users\CYMR90~1\AppData\Local\Temp\ccYj4tTD.s:26732  .debug_str:0000000000019cfd .LASF5078
C:\Users\CYMR90~1\AppData\Local\Temp\ccYj4tTD.s:26476  .debug_str:0000000000018b29 .LASF5079
C:\Users\CYMR90~1\AppData\Local\Temp\ccYj4tTD.s:29202  .debug_str:000000000002379e .LASF5080
C:\Users\CYMR90~1\AppData\Local\Temp\ccYj4tTD.s:21429  .debug_str:0000000000004764 .LASF5081
C:\Users\CYMR90~1\AppData\Local\Temp\ccYj4tTD.s:20475  .debug_str:0000000000000b98 .LASF5082
C:\Users\CYMR90~1\AppData\Local\Temp\ccYj4tTD.s:24767  .debug_str:0000000000011c85 .LASF5083
C:\Users\CYMR90~1\AppData\Local\Temp\ccYj4tTD.s:25511  .debug_str:0000000000014c66 .LASF5084
C:\Users\CYMR90~1\AppData\Local\Temp\ccYj4tTD.s:27648  .debug_str:000000000001d8e5 .LASF5085
C:\Users\CYMR90~1\AppData\Local\Temp\ccYj4tTD.s:22367  .debug_str:00000000000083ac .LASF5086
C:\Users\CYMR90~1\AppData\Local\Temp\ccYj4tTD.s:22923  .debug_str:000000000000a607 .LASF5087
C:\Users\CYMR90~1\AppData\Local\Temp\ccYj4tTD.s:26566  .debug_str:0000000000019235 .LASF5088
C:\Users\CYMR90~1\AppData\Local\Temp\ccYj4tTD.s:23815  .debug_str:000000000000e120 .LASF5089
C:\Users\CYMR90~1\AppData\Local\Temp\ccYj4tTD.s:31402  .debug_str:000000000002c567 .LASF5090
C:\Users\CYMR90~1\AppData\Local\Temp\ccYj4tTD.s:20707  .debug_str:00000000000019d3 .LASF5091
C:\Users\CYMR90~1\AppData\Local\Temp\ccYj4tTD.s:30284  .debug_str:0000000000027e28 .LASF5092
C:\Users\CYMR90~1\AppData\Local\Temp\ccYj4tTD.s:27642  .debug_str:000000000001d88a .LASF5093
C:\Users\CYMR90~1\AppData\Local\Temp\ccYj4tTD.s:26006  .debug_str:0000000000016e50 .LASF5094
C:\Users\CYMR90~1\AppData\Local\Temp\ccYj4tTD.s:22883  .debug_str:000000000000a3e4 .LASF5095
C:\Users\CYMR90~1\AppData\Local\Temp\ccYj4tTD.s:28702  .debug_str:00000000000219b5 .LASF5096
C:\Users\CYMR90~1\AppData\Local\Temp\ccYj4tTD.s:25061  .debug_str:0000000000012fec .LASF5097
C:\Users\CYMR90~1\AppData\Local\Temp\ccYj4tTD.s:26462  .debug_str:0000000000018a48 .LASF5098
C:\Users\CYMR90~1\AppData\Local\Temp\ccYj4tTD.s:25159  .debug_str:00000000000136d1 .LASF5099
C:\Users\CYMR90~1\AppData\Local\Temp\ccYj4tTD.s:29384  .debug_str:0000000000024315 .LASF5100
C:\Users\CYMR90~1\AppData\Local\Temp\ccYj4tTD.s:22405  .debug_str:000000000000860f .LASF5101
C:\Users\CYMR90~1\AppData\Local\Temp\ccYj4tTD.s:20959  .debug_str:00000000000028dc .LASF5102
C:\Users\CYMR90~1\AppData\Local\Temp\ccYj4tTD.s:24737  .debug_str:0000000000011afe .LASF5103
C:\Users\CYMR90~1\AppData\Local\Temp\ccYj4tTD.s:28268  .debug_str:000000000001ff1f .LASF5104
C:\Users\CYMR90~1\AppData\Local\Temp\ccYj4tTD.s:21105  .debug_str:0000000000003230 .LASF5105
C:\Users\CYMR90~1\AppData\Local\Temp\ccYj4tTD.s:28200  .debug_str:000000000001faac .LASF5106
C:\Users\CYMR90~1\AppData\Local\Temp\ccYj4tTD.s:25145  .debug_str:0000000000013601 .LASF5107
C:\Users\CYMR90~1\AppData\Local\Temp\ccYj4tTD.s:30634  .debug_str:000000000002959b .LASF5108
C:\Users\CYMR90~1\AppData\Local\Temp\ccYj4tTD.s:22865  .debug_str:000000000000a29a .LASF5109
C:\Users\CYMR90~1\AppData\Local\Temp\ccYj4tTD.s:26556  .debug_str:0000000000019180 .LASF5110
C:\Users\CYMR90~1\AppData\Local\Temp\ccYj4tTD.s:30886  .debug_str:000000000002a453 .LASF5111
C:\Users\CYMR90~1\AppData\Local\Temp\ccYj4tTD.s:21925  .debug_str:00000000000065cf .LASF5112
C:\Users\CYMR90~1\AppData\Local\Temp\ccYj4tTD.s:30878  .debug_str:000000000002a3dd .LASF5113
C:\Users\CYMR90~1\AppData\Local\Temp\ccYj4tTD.s:21039  .debug_str:0000000000002df3 .LASF5114
C:\Users\CYMR90~1\AppData\Local\Temp\ccYj4tTD.s:26996  .debug_str:000000000001ae72 .LASF5115
C:\Users\CYMR90~1\AppData\Local\Temp\ccYj4tTD.s:24139  .debug_str:000000000000f4ad .LASF5116
C:\Users\CYMR90~1\AppData\Local\Temp\ccYj4tTD.s:25323  .debug_str:00000000000140f1 .LASF5117
C:\Users\CYMR90~1\AppData\Local\Temp\ccYj4tTD.s:30518  .debug_str:0000000000028e17 .LASF5118
C:\Users\CYMR90~1\AppData\Local\Temp\ccYj4tTD.s:22593  .debug_str:00000000000091a2 .LASF5119
C:\Users\CYMR90~1\AppData\Local\Temp\ccYj4tTD.s:27498  .debug_str:000000000001cee5 .LASF5120
C:\Users\CYMR90~1\AppData\Local\Temp\ccYj4tTD.s:30928  .debug_str:000000000002a728 .LASF5121
C:\Users\CYMR90~1\AppData\Local\Temp\ccYj4tTD.s:21423  .debug_str:00000000000046ec .LASF5122
C:\Users\CYMR90~1\AppData\Local\Temp\ccYj4tTD.s:29668  .debug_str:00000000000256e2 .LASF5123
C:\Users\CYMR90~1\AppData\Local\Temp\ccYj4tTD.s:31410  .debug_str:000000000002c5d7 .LASF5124
C:\Users\CYMR90~1\AppData\Local\Temp\ccYj4tTD.s:27322  .debug_str:000000000001c2d8 .LASF5125
C:\Users\CYMR90~1\AppData\Local\Temp\ccYj4tTD.s:28292  .debug_str:000000000002007c .LASF5126
C:\Users\CYMR90~1\AppData\Local\Temp\ccYj4tTD.s:31548  .debug_str:000000000002cecb .LASF5127
C:\Users\CYMR90~1\AppData\Local\Temp\ccYj4tTD.s:21159  .debug_str:00000000000035ae .LASF5128
C:\Users\CYMR90~1\AppData\Local\Temp\ccYj4tTD.s:27906  .debug_str:000000000001e91b .LASF5129
C:\Users\CYMR90~1\AppData\Local\Temp\ccYj4tTD.s:28672  .debug_str:000000000002181f .LASF5130
C:\Users\CYMR90~1\AppData\Local\Temp\ccYj4tTD.s:20729  .debug_str:0000000000001b28 .LASF5131
C:\Users\CYMR90~1\AppData\Local\Temp\ccYj4tTD.s:24973  .debug_str:0000000000012a3f .LASF5132
C:\Users\CYMR90~1\AppData\Local\Temp\ccYj4tTD.s:26266  .debug_str:0000000000017e39 .LASF5133
C:\Users\CYMR90~1\AppData\Local\Temp\ccYj4tTD.s:24475  .debug_str:0000000000010987 .LASF5134
C:\Users\CYMR90~1\AppData\Local\Temp\ccYj4tTD.s:26368  .debug_str:0000000000018468 .LASF5135
C:\Users\CYMR90~1\AppData\Local\Temp\ccYj4tTD.s:26954  .debug_str:000000000001ac15 .LASF5136
C:\Users\CYMR90~1\AppData\Local\Temp\ccYj4tTD.s:28298  .debug_str:00000000000200dd .LASF5137
C:\Users\CYMR90~1\AppData\Local\Temp\ccYj4tTD.s:31586  .debug_str:000000000002d119 .LASF5138
C:\Users\CYMR90~1\AppData\Local\Temp\ccYj4tTD.s:25439  .debug_str:00000000000147e9 .LASF5139
C:\Users\CYMR90~1\AppData\Local\Temp\ccYj4tTD.s:26806  .debug_str:000000000001a13c .LASF5140
C:\Users\CYMR90~1\AppData\Local\Temp\ccYj4tTD.s:21639  .debug_str:00000000000054c3 .LASF5141
C:\Users\CYMR90~1\AppData\Local\Temp\ccYj4tTD.s:29406  .debug_str:000000000002447b .LASF5142
C:\Users\CYMR90~1\AppData\Local\Temp\ccYj4tTD.s:30288  .debug_str:0000000000027e6b .LASF5143
C:\Users\CYMR90~1\AppData\Local\Temp\ccYj4tTD.s:22235  .debug_str:00000000000079e6 .LASF5144
C:\Users\CYMR90~1\AppData\Local\Temp\ccYj4tTD.s:31360  .debug_str:000000000002c282 .LASF5145
C:\Users\CYMR90~1\AppData\Local\Temp\ccYj4tTD.s:23993  .debug_str:000000000000ec4b .LASF5146
C:\Users\CYMR90~1\AppData\Local\Temp\ccYj4tTD.s:26184  .debug_str:0000000000017949 .LASF5147
C:\Users\CYMR90~1\AppData\Local\Temp\ccYj4tTD.s:22347  .debug_str:0000000000008269 .LASF5148
C:\Users\CYMR90~1\AppData\Local\Temp\ccYj4tTD.s:21941  .debug_str:00000000000066c7 .LASF5149
C:\Users\CYMR90~1\AppData\Local\Temp\ccYj4tTD.s:24603  .debug_str:000000000001116e .LASF5150
C:\Users\CYMR90~1\AppData\Local\Temp\ccYj4tTD.s:30112  .debug_str:0000000000027351 .LASF5151
C:\Users\CYMR90~1\AppData\Local\Temp\ccYj4tTD.s:26310  .debug_str:00000000000180cb .LASF5152
C:\Users\CYMR90~1\AppData\Local\Temp\ccYj4tTD.s:24913  .debug_str:0000000000012622 .LASF5153
C:\Users\CYMR90~1\AppData\Local\Temp\ccYj4tTD.s:23431  .debug_str:000000000000c8e2 .LASF5154
C:\Users\CYMR90~1\AppData\Local\Temp\ccYj4tTD.s:27888  .debug_str:000000000001e7f1 .LASF5155
C:\Users\CYMR90~1\AppData\Local\Temp\ccYj4tTD.s:22591  .debug_str:0000000000009171 .LASF5156
C:\Users\CYMR90~1\AppData\Local\Temp\ccYj4tTD.s:31088  .debug_str:000000000002b086 .LASF5157
C:\Users\CYMR90~1\AppData\Local\Temp\ccYj4tTD.s:27880  .debug_str:000000000001e73f .LASF5158
C:\Users\CYMR90~1\AppData\Local\Temp\ccYj4tTD.s:22439  .debug_str:00000000000087fc .LASF5159
C:\Users\CYMR90~1\AppData\Local\Temp\ccYj4tTD.s:30202  .debug_str:0000000000027894 .LASF5160
C:\Users\CYMR90~1\AppData\Local\Temp\ccYj4tTD.s:31592  .debug_str:000000000002d173 .LASF5161
C:\Users\CYMR90~1\AppData\Local\Temp\ccYj4tTD.s:28210  .debug_str:000000000001fb52 .LASF5162
C:\Users\CYMR90~1\AppData\Local\Temp\ccYj4tTD.s:30484  .debug_str:0000000000028c24 .LASF5163
C:\Users\CYMR90~1\AppData\Local\Temp\ccYj4tTD.s:21523  .debug_str:0000000000004dd7 .LASF5164
C:\Users\CYMR90~1\AppData\Local\Temp\ccYj4tTD.s:21859  .debug_str:00000000000061f8 .LASF5165
C:\Users\CYMR90~1\AppData\Local\Temp\ccYj4tTD.s:26826  .debug_str:000000000001a253 .LASF5166
C:\Users\CYMR90~1\AppData\Local\Temp\ccYj4tTD.s:25519  .debug_str:0000000000014d20 .LASF5167
C:\Users\CYMR90~1\AppData\Local\Temp\ccYj4tTD.s:24279  .debug_str:000000000000fdc3 .LASF5168
C:\Users\CYMR90~1\AppData\Local\Temp\ccYj4tTD.s:21393  .debug_str:00000000000044ea .LASF5169
C:\Users\CYMR90~1\AppData\Local\Temp\ccYj4tTD.s:27928  .debug_str:000000000001ea62 .LASF5170
C:\Users\CYMR90~1\AppData\Local\Temp\ccYj4tTD.s:28738  .debug_str:0000000000021c25 .LASF5171
C:\Users\CYMR90~1\AppData\Local\Temp\ccYj4tTD.s:27032  .debug_str:000000000001b11e .LASF5172
C:\Users\CYMR90~1\AppData\Local\Temp\ccYj4tTD.s:22639  .debug_str:0000000000009454 .LASF5173
C:\Users\CYMR90~1\AppData\Local\Temp\ccYj4tTD.s:20351  .debug_str:00000000000003c6 .LASF5174
C:\Users\CYMR90~1\AppData\Local\Temp\ccYj4tTD.s:23693  .debug_str:000000000000d9b4 .LASF5175
C:\Users\CYMR90~1\AppData\Local\Temp\ccYj4tTD.s:20943  .debug_str:00000000000027d2 .LASF5176
C:\Users\CYMR90~1\AppData\Local\Temp\ccYj4tTD.s:30972  .debug_str:000000000002a9c7 .LASF5177
C:\Users\CYMR90~1\AppData\Local\Temp\ccYj4tTD.s:25541  .debug_str:0000000000014eb5 .LASF5178
C:\Users\CYMR90~1\AppData\Local\Temp\ccYj4tTD.s:20291  .debug_str:0000000000000000 .LASF5179
C:\Users\CYMR90~1\AppData\Local\Temp\ccYj4tTD.s:20739  .debug_str:0000000000001bcd .LASF5180
C:\Users\CYMR90~1\AppData\Local\Temp\ccYj4tTD.s:30636  .debug_str:00000000000295c8 .LASF5181
C:\Users\CYMR90~1\AppData\Local\Temp\ccYj4tTD.s:29486  .debug_str:00000000000249d2 .LASF5182
C:\Users\CYMR90~1\AppData\Local\Temp\ccYj4tTD.s:27952  .debug_str:000000000001eba0 .LASF5183
C:\Users\CYMR90~1\AppData\Local\Temp\ccYj4tTD.s:21643  .debug_str:000000000000550d .LASF5184
C:\Users\CYMR90~1\AppData\Local\Temp\ccYj4tTD.s:25975  .debug_str:0000000000016a44 .LASF5185
C:\Users\CYMR90~1\AppData\Local\Temp\ccYj4tTD.s:28246  .debug_str:000000000001fd99 .LASF5186
C:\Users\CYMR90~1\AppData\Local\Temp\ccYj4tTD.s:26920  .debug_str:000000000001a9e1 .LASF5187
C:\Users\CYMR90~1\AppData\Local\Temp\ccYj4tTD.s:31574  .debug_str:000000000002d034 .LASF5188
C:\Users\CYMR90~1\AppData\Local\Temp\ccYj4tTD.s:26098  .debug_str:00000000000173b9 .LASF5189
C:\Users\CYMR90~1\AppData\Local\Temp\ccYj4tTD.s:21827  .debug_str:0000000000005fd6 .LASF5190
C:\Users\CYMR90~1\AppData\Local\Temp\ccYj4tTD.s:24099  .debug_str:000000000000f23d .LASF5191
C:\Users\CYMR90~1\AppData\Local\Temp\ccYj4tTD.s:24805  .debug_str:0000000000011f27 .LASF5192
C:\Users\CYMR90~1\AppData\Local\Temp\ccYj4tTD.s:26424  .debug_str:00000000000187db .LASF5193
C:\Users\CYMR90~1\AppData\Local\Temp\ccYj4tTD.s:21615  .debug_str:0000000000005347 .LASF5194
C:\Users\CYMR90~1\AppData\Local\Temp\ccYj4tTD.s:29654  .debug_str:00000000000255bd .LASF5195
C:\Users\CYMR90~1\AppData\Local\Temp\ccYj4tTD.s:30442  .debug_str:000000000002899f .LASF5196
C:\Users\CYMR90~1\AppData\Local\Temp\ccYj4tTD.s:29898  .debug_str:0000000000026594 .LASF5197
C:\Users\CYMR90~1\AppData\Local\Temp\ccYj4tTD.s:26356  .debug_str:00000000000183b2 .LASF5198
C:\Users\CYMR90~1\AppData\Local\Temp\ccYj4tTD.s:21397  .debug_str:0000000000004531 .LASF5199
C:\Users\CYMR90~1\AppData\Local\Temp\ccYj4tTD.s:28406  .debug_str:0000000000020792 .LASF5200
C:\Users\CYMR90~1\AppData\Local\Temp\ccYj4tTD.s:24175  .debug_str:000000000000f761 .LASF5201
C:\Users\CYMR90~1\AppData\Local\Temp\ccYj4tTD.s:23491  .debug_str:000000000000ccd9 .LASF5202
C:\Users\CYMR90~1\AppData\Local\Temp\ccYj4tTD.s:29874  .debug_str:0000000000026419 .LASF5203
C:\Users\CYMR90~1\AppData\Local\Temp\ccYj4tTD.s:25073  .debug_str:00000000000130c9 .LASF5204
C:\Users\CYMR90~1\AppData\Local\Temp\ccYj4tTD.s:23301  .debug_str:000000000000c05c .LASF5205
C:\Users\CYMR90~1\AppData\Local\Temp\ccYj4tTD.s:21203  .debug_str:000000000000386b .LASF5206
C:\Users\CYMR90~1\AppData\Local\Temp\ccYj4tTD.s:22131  .debug_str:0000000000007395 .LASF5207
C:\Users\CYMR90~1\AppData\Local\Temp\ccYj4tTD.s:24179  .debug_str:000000000000f7b0 .LASF5208
C:\Users\CYMR90~1\AppData\Local\Temp\ccYj4tTD.s:21705  .debug_str:0000000000005883 .LASF5209
C:\Users\CYMR90~1\AppData\Local\Temp\ccYj4tTD.s:30320  .debug_str:00000000000280d4 .LASF5210
C:\Users\CYMR90~1\AppData\Local\Temp\ccYj4tTD.s:24861  .debug_str:00000000000122d7 .LASF5211
C:\Users\CYMR90~1\AppData\Local\Temp\ccYj4tTD.s:21033  .debug_str:0000000000002d97 .LASF5212
C:\Users\CYMR90~1\AppData\Local\Temp\ccYj4tTD.s:29730  .debug_str:0000000000025b4b .LASF5213
C:\Users\CYMR90~1\AppData\Local\Temp\ccYj4tTD.s:30126  .debug_str:000000000002744a .LASF5214
C:\Users\CYMR90~1\AppData\Local\Temp\ccYj4tTD.s:24621  .debug_str:0000000000011276 .LASF5215
C:\Users\CYMR90~1\AppData\Local\Temp\ccYj4tTD.s:25807  .debug_str:0000000000015f2b .LASF5216
C:\Users\CYMR90~1\AppData\Local\Temp\ccYj4tTD.s:29126  .debug_str:00000000000232a8 .LASF5217
C:\Users\CYMR90~1\AppData\Local\Temp\ccYj4tTD.s:27872  .debug_str:000000000001e6bf .LASF5218
C:\Users\CYMR90~1\AppData\Local\Temp\ccYj4tTD.s:28770  .debug_str:0000000000021e04 .LASF5219
C:\Users\CYMR90~1\AppData\Local\Temp\ccYj4tTD.s:31598  .debug_str:000000000002d1cf .LASF5220
C:\Users\CYMR90~1\AppData\Local\Temp\ccYj4tTD.s:28954  .debug_str:00000000000228cc .LASF5221
C:\Users\CYMR90~1\AppData\Local\Temp\ccYj4tTD.s:22271  .debug_str:0000000000007c33 .LASF5222
C:\Users\CYMR90~1\AppData\Local\Temp\ccYj4tTD.s:22219  .debug_str:00000000000078da .LASF5223
C:\Users\CYMR90~1\AppData\Local\Temp\ccYj4tTD.s:21575  .debug_str:00000000000050e2 .LASF5224
C:\Users\CYMR90~1\AppData\Local\Temp\ccYj4tTD.s:28988  .debug_str:0000000000022ac1 .LASF5225
C:\Users\CYMR90~1\AppData\Local\Temp\ccYj4tTD.s:24923  .debug_str:00000000000126c5 .LASF5226
C:\Users\CYMR90~1\AppData\Local\Temp\ccYj4tTD.s:29456  .debug_str:00000000000247a2 .LASF5227
C:\Users\CYMR90~1\AppData\Local\Temp\ccYj4tTD.s:30774  .debug_str:0000000000029e14 .LASF5228
C:\Users\CYMR90~1\AppData\Local\Temp\ccYj4tTD.s:29042  .debug_str:0000000000022e2d .LASF5229
C:\Users\CYMR90~1\AppData\Local\Temp\ccYj4tTD.s:29696  .debug_str:0000000000025934 .LASF5230
C:\Users\CYMR90~1\AppData\Local\Temp\ccYj4tTD.s:29746  .debug_str:0000000000025c56 .LASF5231
C:\Users\CYMR90~1\AppData\Local\Temp\ccYj4tTD.s:28518  .debug_str:0000000000020e81 .LASF5232
C:\Users\CYMR90~1\AppData\Local\Temp\ccYj4tTD.s:24275  .debug_str:000000000000fd7d .LASF5233
C:\Users\CYMR90~1\AppData\Local\Temp\ccYj4tTD.s:24679  .debug_str:0000000000011645 .LASF5234
C:\Users\CYMR90~1\AppData\Local\Temp\ccYj4tTD.s:29580  .debug_str:0000000000024fe2 .LASF5235
C:\Users\CYMR90~1\AppData\Local\Temp\ccYj4tTD.s:22981  .debug_str:000000000000aa72 .LASF5236
C:\Users\CYMR90~1\AppData\Local\Temp\ccYj4tTD.s:24477  .debug_str:00000000000109a6 .LASF5237
C:\Users\CYMR90~1\AppData\Local\Temp\ccYj4tTD.s:31036  .debug_str:000000000002ad79 .LASF5238
C:\Users\CYMR90~1\AppData\Local\Temp\ccYj4tTD.s:22511  .debug_str:0000000000008c98 .LASF5239
C:\Users\CYMR90~1\AppData\Local\Temp\ccYj4tTD.s:23087  .debug_str:000000000000b1f9 .LASF5240
C:\Users\CYMR90~1\AppData\Local\Temp\ccYj4tTD.s:29754  .debug_str:0000000000025cc7 .LASF5241
C:\Users\CYMR90~1\AppData\Local\Temp\ccYj4tTD.s:20565  .debug_str:000000000000113c .LASF5242
C:\Users\CYMR90~1\AppData\Local\Temp\ccYj4tTD.s:25885  .debug_str:00000000000163f6 .LASF5243
C:\Users\CYMR90~1\AppData\Local\Temp\ccYj4tTD.s:28828  .debug_str:0000000000022171 .LASF5244
C:\Users\CYMR90~1\AppData\Local\Temp\ccYj4tTD.s:30248  .debug_str:0000000000027bb9 .LASF5245
C:\Users\CYMR90~1\AppData\Local\Temp\ccYj4tTD.s:23939  .debug_str:000000000000e8d5 .LASF5246
C:\Users\CYMR90~1\AppData\Local\Temp\ccYj4tTD.s:22353  .debug_str:00000000000082c8 .LASF5247
C:\Users\CYMR90~1\AppData\Local\Temp\ccYj4tTD.s:27892  .debug_str:000000000001e845 .LASF5248
C:\Users\CYMR90~1\AppData\Local\Temp\ccYj4tTD.s:24683  .debug_str:0000000000011690 .LASF5249
C:\Users\CYMR90~1\AppData\Local\Temp\ccYj4tTD.s:28198  .debug_str:000000000001fa7b .LASF5250
C:\Users\CYMR90~1\AppData\Local\Temp\ccYj4tTD.s:21557  .debug_str:0000000000004fd3 .LASF5251
C:\Users\CYMR90~1\AppData\Local\Temp\ccYj4tTD.s:25213  .debug_str:0000000000013a02 .LASF5252
C:\Users\CYMR90~1\AppData\Local\Temp\ccYj4tTD.s:28240  .debug_str:000000000001fd02 .LASF5253
C:\Users\CYMR90~1\AppData\Local\Temp\ccYj4tTD.s:23799  .debug_str:000000000000e039 .LASF5254
C:\Users\CYMR90~1\AppData\Local\Temp\ccYj4tTD.s:27458  .debug_str:000000000001cbbc .LASF5255
C:\Users\CYMR90~1\AppData\Local\Temp\ccYj4tTD.s:23917  .debug_str:000000000000e776 .LASF5256
C:\Users\CYMR90~1\AppData\Local\Temp\ccYj4tTD.s:30670  .debug_str:000000000002980e .LASF5257
C:\Users\CYMR90~1\AppData\Local\Temp\ccYj4tTD.s:31442  .debug_str:000000000002c7ac .LASF5258
C:\Users\CYMR90~1\AppData\Local\Temp\ccYj4tTD.s:23949  .debug_str:000000000000e949 .LASF5259
C:\Users\CYMR90~1\AppData\Local\Temp\ccYj4tTD.s:20647  .debug_str:0000000000001574 .LASF5260
C:\Users\CYMR90~1\AppData\Local\Temp\ccYj4tTD.s:27442  .debug_str:000000000001cac4 .LASF5261
C:\Users\CYMR90~1\AppData\Local\Temp\ccYj4tTD.s:30078  .debug_str:0000000000027081 .LASF5262
C:\Users\CYMR90~1\AppData\Local\Temp\ccYj4tTD.s:26962  .debug_str:000000000001ac78 .LASF5263
C:\Users\CYMR90~1\AppData\Local\Temp\ccYj4tTD.s:27946  .debug_str:000000000001eb4f .LASF5264
C:\Users\CYMR90~1\AppData\Local\Temp\ccYj4tTD.s:20499  .debug_str:0000000000000cfa .LASF5265
C:\Users\CYMR90~1\AppData\Local\Temp\ccYj4tTD.s:28536  .debug_str:0000000000020f68 .LASF5266
C:\Users\CYMR90~1\AppData\Local\Temp\ccYj4tTD.s:23435  .debug_str:000000000000c956 .LASF5267
C:\Users\CYMR90~1\AppData\Local\Temp\ccYj4tTD.s:25753  .debug_str:0000000000015b5f .LASF5268
C:\Users\CYMR90~1\AppData\Local\Temp\ccYj4tTD.s:24201  .debug_str:000000000000f907 .LASF5269
C:\Users\CYMR90~1\AppData\Local\Temp\ccYj4tTD.s:26364  .debug_str:0000000000018438 .LASF5270
C:\Users\CYMR90~1\AppData\Local\Temp\ccYj4tTD.s:30936  .debug_str:000000000002a7ab .LASF5271
C:\Users\CYMR90~1\AppData\Local\Temp\ccYj4tTD.s:25141  .debug_str:00000000000135c4 .LASF5272
C:\Users\CYMR90~1\AppData\Local\Temp\ccYj4tTD.s:28126  .debug_str:000000000001f640 .LASF5273
C:\Users\CYMR90~1\AppData\Local\Temp\ccYj4tTD.s:22197  .debug_str:00000000000077ab .LASF5274
C:\Users\CYMR90~1\AppData\Local\Temp\ccYj4tTD.s:29614  .debug_str:000000000002531d .LASF5275
C:\Users\CYMR90~1\AppData\Local\Temp\ccYj4tTD.s:22073  .debug_str:0000000000006f06 .LASF5276
C:\Users\CYMR90~1\AppData\Local\Temp\ccYj4tTD.s:30160  .debug_str:0000000000027645 .LASF5277
C:\Users\CYMR90~1\AppData\Local\Temp\ccYj4tTD.s:30648  .debug_str:0000000000029683 .LASF5278
C:\Users\CYMR90~1\AppData\Local\Temp\ccYj4tTD.s:28868  .debug_str:00000000000223c2 .LASF5279
C:\Users\CYMR90~1\AppData\Local\Temp\ccYj4tTD.s:25661  .debug_str:00000000000155d0 .LASF5280
C:\Users\CYMR90~1\AppData\Local\Temp\ccYj4tTD.s:22517  .debug_str:0000000000008cdf .LASF5281
C:\Users\CYMR90~1\AppData\Local\Temp\ccYj4tTD.s:21113  .debug_str:000000000000329e .LASF5282
C:\Users\CYMR90~1\AppData\Local\Temp\ccYj4tTD.s:31348  .debug_str:000000000002c1cd .LASF5283
C:\Users\CYMR90~1\AppData\Local\Temp\ccYj4tTD.s:22699  .debug_str:0000000000009837 .LASF5284
C:\Users\CYMR90~1\AppData\Local\Temp\ccYj4tTD.s:22521  .debug_str:0000000000008d06 .LASF5285
C:\Users\CYMR90~1\AppData\Local\Temp\ccYj4tTD.s:30840  .debug_str:000000000002a1f0 .LASF5286
C:\Users\CYMR90~1\AppData\Local\Temp\ccYj4tTD.s:24041  .debug_str:000000000000eeb3 .LASF5287
C:\Users\CYMR90~1\AppData\Local\Temp\ccYj4tTD.s:30530  .debug_str:0000000000028f06 .LASF5288
C:\Users\CYMR90~1\AppData\Local\Temp\ccYj4tTD.s:22637  .debug_str:000000000000943c .LASF5289
C:\Users\CYMR90~1\AppData\Local\Temp\ccYj4tTD.s:31238  .debug_str:000000000002ba9c .LASF5290
C:\Users\CYMR90~1\AppData\Local\Temp\ccYj4tTD.s:26220  .debug_str:0000000000017b7e .LASF5291
C:\Users\CYMR90~1\AppData\Local\Temp\ccYj4tTD.s:24183  .debug_str:000000000000f806 .LASF5292
C:\Users\CYMR90~1\AppData\Local\Temp\ccYj4tTD.s:21405  .debug_str:00000000000045ca .LASF5293
C:\Users\CYMR90~1\AppData\Local\Temp\ccYj4tTD.s:26922  .debug_str:000000000001aa08 .LASF5294
C:\Users\CYMR90~1\AppData\Local\Temp\ccYj4tTD.s:29574  .debug_str:0000000000024f97 .LASF5295
C:\Users\CYMR90~1\AppData\Local\Temp\ccYj4tTD.s:24123  .debug_str:000000000000f3d7 .LASF5296
C:\Users\CYMR90~1\AppData\Local\Temp\ccYj4tTD.s:20405  .debug_str:00000000000006f7 .LASF5297
C:\Users\CYMR90~1\AppData\Local\Temp\ccYj4tTD.s:20353  .debug_str:00000000000003f0 .LASF5298
C:\Users\CYMR90~1\AppData\Local\Temp\ccYj4tTD.s:20699  .debug_str:000000000000195c .LASF5299
C:\Users\CYMR90~1\AppData\Local\Temp\ccYj4tTD.s:29216  .debug_str:00000000000238a4 .LASF5300
C:\Users\CYMR90~1\AppData\Local\Temp\ccYj4tTD.s:29870  .debug_str:00000000000263d8 .LASF5301
C:\Users\CYMR90~1\AppData\Local\Temp\ccYj4tTD.s:25023  .debug_str:0000000000012d63 .LASF5302
C:\Users\CYMR90~1\AppData\Local\Temp\ccYj4tTD.s:26956  .debug_str:000000000001ac39 .LASF5303
C:\Users\CYMR90~1\AppData\Local\Temp\ccYj4tTD.s:20987  .debug_str:0000000000002a8f .LASF5304
C:\Users\CYMR90~1\AppData\Local\Temp\ccYj4tTD.s:25759  .debug_str:0000000000015bf8 .LASF5305
C:\Users\CYMR90~1\AppData\Local\Temp\ccYj4tTD.s:28324  .debug_str:0000000000020239 .LASF5306
C:\Users\CYMR90~1\AppData\Local\Temp\ccYj4tTD.s:27644  .debug_str:000000000001d8b4 .LASF5307
C:\Users\CYMR90~1\AppData\Local\Temp\ccYj4tTD.s:22427  .debug_str:000000000000874a .LASF5308
C:\Users\CYMR90~1\AppData\Local\Temp\ccYj4tTD.s:29014  .debug_str:0000000000022ca8 .LASF5309
C:\Users\CYMR90~1\AppData\Local\Temp\ccYj4tTD.s:28304  .debug_str:0000000000020129 .LASF5310
C:\Users\CYMR90~1\AppData\Local\Temp\ccYj4tTD.s:21461  .debug_str:0000000000004a19 .LASF5311
C:\Users\CYMR90~1\AppData\Local\Temp\ccYj4tTD.s:21883  .debug_str:0000000000006359 .LASF5312
C:\Users\CYMR90~1\AppData\Local\Temp\ccYj4tTD.s:28966  .debug_str:0000000000022996 .LASF5313
C:\Users\CYMR90~1\AppData\Local\Temp\ccYj4tTD.s:30722  .debug_str:0000000000029afe .LASF5314
C:\Users\CYMR90~1\AppData\Local\Temp\ccYj4tTD.s:26544  .debug_str:000000000001900a .LASF5315
C:\Users\CYMR90~1\AppData\Local\Temp\ccYj4tTD.s:23337  .debug_str:000000000000c2cc .LASF5316
C:\Users\CYMR90~1\AppData\Local\Temp\ccYj4tTD.s:28026  .debug_str:000000000001f038 .LASF5317
C:\Users\CYMR90~1\AppData\Local\Temp\ccYj4tTD.s:24895  .debug_str:0000000000012507 .LASF5318
C:\Users\CYMR90~1\AppData\Local\Temp\ccYj4tTD.s:28412  .debug_str:0000000000020828 .LASF5319
C:\Users\CYMR90~1\AppData\Local\Temp\ccYj4tTD.s:25219  .debug_str:0000000000013a64 .LASF5320
C:\Users\CYMR90~1\AppData\Local\Temp\ccYj4tTD.s:30674  .debug_str:0000000000029864 .LASF5321
C:\Users\CYMR90~1\AppData\Local\Temp\ccYj4tTD.s:24365  .debug_str:000000000001030f .LASF5322
C:\Users\CYMR90~1\AppData\Local\Temp\ccYj4tTD.s:23593  .debug_str:000000000000d36b .LASF5323
C:\Users\CYMR90~1\AppData\Local\Temp\ccYj4tTD.s:28036  .debug_str:000000000001f0f1 .LASF5324
C:\Users\CYMR90~1\AppData\Local\Temp\ccYj4tTD.s:31262  .debug_str:000000000002bc14 .LASF5325
C:\Users\CYMR90~1\AppData\Local\Temp\ccYj4tTD.s:30074  .debug_str:0000000000027051 .LASF5326
C:\Users\CYMR90~1\AppData\Local\Temp\ccYj4tTD.s:29138  .debug_str:0000000000023376 .LASF5327
C:\Users\CYMR90~1\AppData\Local\Temp\ccYj4tTD.s:23131  .debug_str:000000000000b450 .LASF5328
C:\Users\CYMR90~1\AppData\Local\Temp\ccYj4tTD.s:29268  .debug_str:0000000000023b89 .LASF5329
C:\Users\CYMR90~1\AppData\Local\Temp\ccYj4tTD.s:28872  .debug_str:00000000000223f3 .LASF5330
C:\Users\CYMR90~1\AppData\Local\Temp\ccYj4tTD.s:26794  .debug_str:000000000001a09a .LASF5331
C:\Users\CYMR90~1\AppData\Local\Temp\ccYj4tTD.s:26324  .debug_str:00000000000181c2 .LASF5332
C:\Users\CYMR90~1\AppData\Local\Temp\ccYj4tTD.s:28740  .debug_str:0000000000021c4b .LASF5333
C:\Users\CYMR90~1\AppData\Local\Temp\ccYj4tTD.s:31234  .debug_str:000000000002ba42 .LASF5334
C:\Users\CYMR90~1\AppData\Local\Temp\ccYj4tTD.s:22269  .debug_str:0000000000007c1c .LASF5335
C:\Users\CYMR90~1\AppData\Local\Temp\ccYj4tTD.s:21715  .debug_str:0000000000005942 .LASF5336
C:\Users\CYMR90~1\AppData\Local\Temp\ccYj4tTD.s:22025  .debug_str:0000000000006bcf .LASF5337
C:\Users\CYMR90~1\AppData\Local\Temp\ccYj4tTD.s:23479  .debug_str:000000000000cc22 .LASF5338
C:\Users\CYMR90~1\AppData\Local\Temp\ccYj4tTD.s:24827  .debug_str:00000000000120c1 .LASF5339
C:\Users\CYMR90~1\AppData\Local\Temp\ccYj4tTD.s:23227  .debug_str:000000000000bb09 .LASF5340
C:\Users\CYMR90~1\AppData\Local\Temp\ccYj4tTD.s:30266  .debug_str:0000000000027d2c .LASF5341
C:\Users\CYMR90~1\AppData\Local\Temp\ccYj4tTD.s:29854  .debug_str:00000000000262fe .LASF5342
C:\Users\CYMR90~1\AppData\Local\Temp\ccYj4tTD.s:25573  .debug_str:00000000000150b8 .LASF5343
C:\Users\CYMR90~1\AppData\Local\Temp\ccYj4tTD.s:28194  .debug_str:000000000001fa53 .LASF5344
C:\Users\CYMR90~1\AppData\Local\Temp\ccYj4tTD.s:25131  .debug_str:0000000000013529 .LASF5345
C:\Users\CYMR90~1\AppData\Local\Temp\ccYj4tTD.s:31420  .debug_str:000000000002c682 .LASF5346
C:\Users\CYMR90~1\AppData\Local\Temp\ccYj4tTD.s:27690  .debug_str:000000000001db86 .LASF5347
C:\Users\CYMR90~1\AppData\Local\Temp\ccYj4tTD.s:28428  .debug_str:0000000000020906 .LASF5348
C:\Users\CYMR90~1\AppData\Local\Temp\ccYj4tTD.s:28586  .debug_str:0000000000021239 .LASF5349
C:\Users\CYMR90~1\AppData\Local\Temp\ccYj4tTD.s:23557  .debug_str:000000000000d0d5 .LASF5350
C:\Users\CYMR90~1\AppData\Local\Temp\ccYj4tTD.s:27634  .debug_str:000000000001d7ed .LASF5351
C:\Users\CYMR90~1\AppData\Local\Temp\ccYj4tTD.s:26208  .debug_str:0000000000017ac4 .LASF5352
C:\Users\CYMR90~1\AppData\Local\Temp\ccYj4tTD.s:25375  .debug_str:00000000000143e1 .LASF5353
C:\Users\CYMR90~1\AppData\Local\Temp\ccYj4tTD.s:25405  .debug_str:0000000000014603 .LASF5354
C:\Users\CYMR90~1\AppData\Local\Temp\ccYj4tTD.s:25581  .debug_str:0000000000015136 .LASF5355
C:\Users\CYMR90~1\AppData\Local\Temp\ccYj4tTD.s:23619  .debug_str:000000000000d57d .LASF5356
C:\Users\CYMR90~1\AppData\Local\Temp\ccYj4tTD.s:25247  .debug_str:0000000000013c24 .LASF5357
C:\Users\CYMR90~1\AppData\Local\Temp\ccYj4tTD.s:20985  .debug_str:0000000000002a73 .LASF5358
C:\Users\CYMR90~1\AppData\Local\Temp\ccYj4tTD.s:22815  .debug_str:0000000000009f84 .LASF5359
C:\Users\CYMR90~1\AppData\Local\Temp\ccYj4tTD.s:29594  .debug_str:000000000002513d .LASF5360
C:\Users\CYMR90~1\AppData\Local\Temp\ccYj4tTD.s:27548  .debug_str:000000000001d284 .LASF5361
C:\Users\CYMR90~1\AppData\Local\Temp\ccYj4tTD.s:31502  .debug_str:000000000002cbcd .LASF5362
C:\Users\CYMR90~1\AppData\Local\Temp\ccYj4tTD.s:25763  .debug_str:0000000000015c1e .LASF5363
C:\Users\CYMR90~1\AppData\Local\Temp\ccYj4tTD.s:22847  .debug_str:000000000000a17a .LASF5364
C:\Users\CYMR90~1\AppData\Local\Temp\ccYj4tTD.s:23655  .debug_str:000000000000d7ab .LASF5365
C:\Users\CYMR90~1\AppData\Local\Temp\ccYj4tTD.s:28314  .debug_str:000000000002019f .LASF5366
C:\Users\CYMR90~1\AppData\Local\Temp\ccYj4tTD.s:29690  .debug_str:00000000000258c3 .LASF5367
C:\Users\CYMR90~1\AppData\Local\Temp\ccYj4tTD.s:23453  .debug_str:000000000000ca77 .LASF5368
C:\Users\CYMR90~1\AppData\Local\Temp\ccYj4tTD.s:22879  .debug_str:000000000000a381 .LASF5369
C:\Users\CYMR90~1\AppData\Local\Temp\ccYj4tTD.s:27012  .debug_str:000000000001afb3 .LASF5370
C:\Users\CYMR90~1\AppData\Local\Temp\ccYj4tTD.s:24261  .debug_str:000000000000fc95 .LASF5371
C:\Users\CYMR90~1\AppData\Local\Temp\ccYj4tTD.s:26484  .debug_str:0000000000018ba6 .LASF5372
C:\Users\CYMR90~1\AppData\Local\Temp\ccYj4tTD.s:23421  .debug_str:000000000000c803 .LASF5373
C:\Users\CYMR90~1\AppData\Local\Temp\ccYj4tTD.s:23559  .debug_str:000000000000d0ed .LASF5374
C:\Users\CYMR90~1\AppData\Local\Temp\ccYj4tTD.s:24625  .debug_str:00000000000112ba .LASF5375
C:\Users\CYMR90~1\AppData\Local\Temp\ccYj4tTD.s:27684  .debug_str:000000000001db25 .LASF5376
C:\Users\CYMR90~1\AppData\Local\Temp\ccYj4tTD.s:22607  .debug_str:0000000000009289 .LASF5377
C:\Users\CYMR90~1\AppData\Local\Temp\ccYj4tTD.s:22671  .debug_str:0000000000009698 .LASF5378
C:\Users\CYMR90~1\AppData\Local\Temp\ccYj4tTD.s:27572  .debug_str:000000000001d3f1 .LASF5379
C:\Users\CYMR90~1\AppData\Local\Temp\ccYj4tTD.s:26142  .debug_str:000000000001765f .LASF5380
C:\Users\CYMR90~1\AppData\Local\Temp\ccYj4tTD.s:28890  .debug_str:00000000000224c1 .LASF5381
C:\Users\CYMR90~1\AppData\Local\Temp\ccYj4tTD.s:20299  .debug_str:00000000000000a6 .LASF5382
C:\Users\CYMR90~1\AppData\Local\Temp\ccYj4tTD.s:28278  .debug_str:000000000001ffad .LASF5383
C:\Users\CYMR90~1\AppData\Local\Temp\ccYj4tTD.s:31576  .debug_str:000000000002d05b .LASF5384
C:\Users\CYMR90~1\AppData\Local\Temp\ccYj4tTD.s:27714  .debug_str:000000000001dd71 .LASF5385
C:\Users\CYMR90~1\AppData\Local\Temp\ccYj4tTD.s:21767  .debug_str:0000000000005c78 .LASF5386
C:\Users\CYMR90~1\AppData\Local\Temp\ccYj4tTD.s:20923  .debug_str:000000000000264f .LASF5387
C:\Users\CYMR90~1\AppData\Local\Temp\ccYj4tTD.s:28508  .debug_str:0000000000020de4 .LASF5388
C:\Users\CYMR90~1\AppData\Local\Temp\ccYj4tTD.s:30390  .debug_str:0000000000028632 .LASF5389
C:\Users\CYMR90~1\AppData\Local\Temp\ccYj4tTD.s:20397  .debug_str:0000000000000663 .LASF5390
C:\Users\CYMR90~1\AppData\Local\Temp\ccYj4tTD.s:24855  .debug_str:0000000000012259 .LASF5391
C:\Users\CYMR90~1\AppData\Local\Temp\ccYj4tTD.s:25275  .debug_str:0000000000013dd2 .LASF5392
C:\Users\CYMR90~1\AppData\Local\Temp\ccYj4tTD.s:24825  .debug_str:00000000000120a8 .LASF5393
C:\Users\CYMR90~1\AppData\Local\Temp\ccYj4tTD.s:21889  .debug_str:00000000000063bb .LASF5394
C:\Users\CYMR90~1\AppData\Local\Temp\ccYj4tTD.s:28014  .debug_str:000000000001ef64 .LASF5395
C:\Users\CYMR90~1\AppData\Local\Temp\ccYj4tTD.s:26156  .debug_str:0000000000017764 .LASF5396
C:\Users\CYMR90~1\AppData\Local\Temp\ccYj4tTD.s:20651  .debug_str:00000000000015ba .LASF5397
C:\Users\CYMR90~1\AppData\Local\Temp\ccYj4tTD.s:28232  .debug_str:000000000001fca1 .LASF5398
C:\Users\CYMR90~1\AppData\Local\Temp\ccYj4tTD.s:21001  .debug_str:0000000000002bad .LASF5399
C:\Users\CYMR90~1\AppData\Local\Temp\ccYj4tTD.s:29158  .debug_str:0000000000023494 .LASF5400
C:\Users\CYMR90~1\AppData\Local\Temp\ccYj4tTD.s:20607  .debug_str:0000000000001365 .LASF5401
C:\Users\CYMR90~1\AppData\Local\Temp\ccYj4tTD.s:30018  .debug_str:0000000000026cbe .LASF5402
C:\Users\CYMR90~1\AppData\Local\Temp\ccYj4tTD.s:25817  .debug_str:0000000000015fe1 .LASF5403
C:\Users\CYMR90~1\AppData\Local\Temp\ccYj4tTD.s:21223  .debug_str:00000000000039ab .LASF5404
C:\Users\CYMR90~1\AppData\Local\Temp\ccYj4tTD.s:23095  .debug_str:000000000000b265 .LASF5405
C:\Users\CYMR90~1\AppData\Local\Temp\ccYj4tTD.s:25263  .debug_str:0000000000013cf6 .LASF5406
C:\Users\CYMR90~1\AppData\Local\Temp\ccYj4tTD.s:21793  .debug_str:0000000000005df0 .LASF5407
C:\Users\CYMR90~1\AppData\Local\Temp\ccYj4tTD.s:30170  .debug_str:00000000000276d6 .LASF5408
C:\Users\CYMR90~1\AppData\Local\Temp\ccYj4tTD.s:22369  .debug_str:00000000000083d4 .LASF5409
C:\Users\CYMR90~1\AppData\Local\Temp\ccYj4tTD.s:31136  .debug_str:000000000002b3c5 .LASF5410
C:\Users\CYMR90~1\AppData\Local\Temp\ccYj4tTD.s:28308  .debug_str:0000000000020154 .LASF5411
C:\Users\CYMR90~1\AppData\Local\Temp\ccYj4tTD.s:26638  .debug_str:0000000000019649 .LASF5412
C:\Users\CYMR90~1\AppData\Local\Temp\ccYj4tTD.s:20533  .debug_str:0000000000000f62 .LASF5413
C:\Users\CYMR90~1\AppData\Local\Temp\ccYj4tTD.s:28140  .debug_str:000000000001f715 .LASF5414
C:\Users\CYMR90~1\AppData\Local\Temp\ccYj4tTD.s:21741  .debug_str:0000000000005ad5 .LASF5415
C:\Users\CYMR90~1\AppData\Local\Temp\ccYj4tTD.s:31104  .debug_str:000000000002b17c .LASF5416
C:\Users\CYMR90~1\AppData\Local\Temp\ccYj4tTD.s:25883  .debug_str:00000000000163d9 .LASF5417
C:\Users\CYMR90~1\AppData\Local\Temp\ccYj4tTD.s:25681  .debug_str:00000000000156fe .LASF5418
C:\Users\CYMR90~1\AppData\Local\Temp\ccYj4tTD.s:26708  .debug_str:0000000000019b7d .LASF5419
C:\Users\CYMR90~1\AppData\Local\Temp\ccYj4tTD.s:23157  .debug_str:000000000000b65c .LASF5420
C:\Users\CYMR90~1\AppData\Local\Temp\ccYj4tTD.s:29478  .debug_str:0000000000024971 .LASF5421
C:\Users\CYMR90~1\AppData\Local\Temp\ccYj4tTD.s:31082  .debug_str:000000000002b03c .LASF5422
C:\Users\CYMR90~1\AppData\Local\Temp\ccYj4tTD.s:21275  .debug_str:0000000000003cec .LASF5423
C:\Users\CYMR90~1\AppData\Local\Temp\ccYj4tTD.s:27938  .debug_str:000000000001eaf6 .LASF5424
C:\Users\CYMR90~1\AppData\Local\Temp\ccYj4tTD.s:27456  .debug_str:000000000001cb9d .LASF5425
C:\Users\CYMR90~1\AppData\Local\Temp\ccYj4tTD.s:25047  .debug_str:0000000000012ef3 .LASF5426
C:\Users\CYMR90~1\AppData\Local\Temp\ccYj4tTD.s:30832  .debug_str:000000000002a183 .LASF5427
C:\Users\CYMR90~1\AppData\Local\Temp\ccYj4tTD.s:28712  .debug_str:0000000000021a7a .LASF5428
C:\Users\CYMR90~1\AppData\Local\Temp\ccYj4tTD.s:22693  .debug_str:00000000000097cc .LASF5429
C:\Users\CYMR90~1\AppData\Local\Temp\ccYj4tTD.s:31486  .debug_str:000000000002cab0 .LASF5430
C:\Users\CYMR90~1\AppData\Local\Temp\ccYj4tTD.s:30538  .debug_str:0000000000028f67 .LASF5431
C:\Users\CYMR90~1\AppData\Local\Temp\ccYj4tTD.s:21101  .debug_str:00000000000031e0 .LASF5432
C:\Users\CYMR90~1\AppData\Local\Temp\ccYj4tTD.s:28664  .debug_str:00000000000217ac .LASF5433
C:\Users\CYMR90~1\AppData\Local\Temp\ccYj4tTD.s:31454  .debug_str:000000000002c867 .LASF5434
C:\Users\CYMR90~1\AppData\Local\Temp\ccYj4tTD.s:27916  .debug_str:000000000001e9a8 .LASF5435
C:\Users\CYMR90~1\AppData\Local\Temp\ccYj4tTD.s:30792  .debug_str:0000000000029f20 .LASF5436
C:\Users\CYMR90~1\AppData\Local\Temp\ccYj4tTD.s:25757  .debug_str:0000000000015bd8 .LASF5437
C:\Users\CYMR90~1\AppData\Local\Temp\ccYj4tTD.s:27850  .debug_str:000000000001e590 .LASF5438
C:\Users\CYMR90~1\AppData\Local\Temp\ccYj4tTD.s:24155  .debug_str:000000000000f5a2 .LASF5439
C:\Users\CYMR90~1\AppData\Local\Temp\ccYj4tTD.s:24143  .debug_str:000000000000f4f5 .LASF5440
C:\Users\CYMR90~1\AppData\Local\Temp\ccYj4tTD.s:28212  .debug_str:000000000001fb71 .LASF5441
C:\Users\CYMR90~1\AppData\Local\Temp\ccYj4tTD.s:29908  .debug_str:000000000002663a .LASF5442
C:\Users\CYMR90~1\AppData\Local\Temp\ccYj4tTD.s:20683  .debug_str:0000000000001869 .LASF5443
C:\Users\CYMR90~1\AppData\Local\Temp\ccYj4tTD.s:26652  .debug_str:0000000000019732 .LASF5444
C:\Users\CYMR90~1\AppData\Local\Temp\ccYj4tTD.s:20487  .debug_str:0000000000000c57 .LASF5445
C:\Users\CYMR90~1\AppData\Local\Temp\ccYj4tTD.s:26194  .debug_str:00000000000179f7 .LASF5446
C:\Users\CYMR90~1\AppData\Local\Temp\ccYj4tTD.s:20799  .debug_str:0000000000001f55 .LASF5447
C:\Users\CYMR90~1\AppData\Local\Temp\ccYj4tTD.s:21123  .debug_str:000000000000334d .LASF5448
C:\Users\CYMR90~1\AppData\Local\Temp\ccYj4tTD.s:23895  .debug_str:000000000000e5dc .LASF5449
C:\Users\CYMR90~1\AppData\Local\Temp\ccYj4tTD.s:24627  .debug_str:00000000000112dc .LASF5450
C:\Users\CYMR90~1\AppData\Local\Temp\ccYj4tTD.s:23029  .debug_str:000000000000ad84 .LASF5451
C:\Users\CYMR90~1\AppData\Local\Temp\ccYj4tTD.s:21323  .debug_str:000000000000401f .LASF5452
C:\Users\CYMR90~1\AppData\Local\Temp\ccYj4tTD.s:31192  .debug_str:000000000002b758 .LASF5453
C:\Users\CYMR90~1\AppData\Local\Temp\ccYj4tTD.s:22855  .debug_str:000000000000a206 .LASF5454
C:\Users\CYMR90~1\AppData\Local\Temp\ccYj4tTD.s:28454  .debug_str:0000000000020a77 .LASF5455
C:\Users\CYMR90~1\AppData\Local\Temp\ccYj4tTD.s:29152  .debug_str:000000000002343e .LASF5456
C:\Users\CYMR90~1\AppData\Local\Temp\ccYj4tTD.s:31228  .debug_str:000000000002b9f1 .LASF5457
C:\Users\CYMR90~1\AppData\Local\Temp\ccYj4tTD.s:20589  .debug_str:0000000000001271 .LASF5458
C:\Users\CYMR90~1\AppData\Local\Temp\ccYj4tTD.s:29818  .debug_str:00000000000260df .LASF5459
C:\Users\CYMR90~1\AppData\Local\Temp\ccYj4tTD.s:28784  .debug_str:0000000000021ed8 .LASF5460
C:\Users\CYMR90~1\AppData\Local\Temp\ccYj4tTD.s:27716  .debug_str:000000000001dd93 .LASF5461
C:\Users\CYMR90~1\AppData\Local\Temp\ccYj4tTD.s:24325  .debug_str:0000000000010077 .LASF5462
C:\Users\CYMR90~1\AppData\Local\Temp\ccYj4tTD.s:20769  .debug_str:0000000000001d8f .LASF5463
C:\Users\CYMR90~1\AppData\Local\Temp\ccYj4tTD.s:26990  .debug_str:000000000001ae0b .LASF5464
C:\Users\CYMR90~1\AppData\Local\Temp\ccYj4tTD.s:23775  .debug_str:000000000000deee .LASF5465
C:\Users\CYMR90~1\AppData\Local\Temp\ccYj4tTD.s:25319  .debug_str:000000000001409b .LASF5466
C:\Users\CYMR90~1\AppData\Local\Temp\ccYj4tTD.s:30400  .debug_str:00000000000286ea .LASF5467
C:\Users\CYMR90~1\AppData\Local\Temp\ccYj4tTD.s:31346  .debug_str:000000000002c194 .LASF5468
C:\Users\CYMR90~1\AppData\Local\Temp\ccYj4tTD.s:26258  .debug_str:0000000000017dc1 .LASF5469
C:\Users\CYMR90~1\AppData\Local\Temp\ccYj4tTD.s:24435  .debug_str:0000000000010709 .LASF5470
C:\Users\CYMR90~1\AppData\Local\Temp\ccYj4tTD.s:20919  .debug_str:000000000000260a .LASF5471
C:\Users\CYMR90~1\AppData\Local\Temp\ccYj4tTD.s:29046  .debug_str:0000000000022e6b .LASF5472
C:\Users\CYMR90~1\AppData\Local\Temp\ccYj4tTD.s:20643  .debug_str:000000000000152e .LASF5473
C:\Users\CYMR90~1\AppData\Local\Temp\ccYj4tTD.s:20477  .debug_str:0000000000000bc9 .LASF5474
C:\Users\CYMR90~1\AppData\Local\Temp\ccYj4tTD.s:21551  .debug_str:0000000000004f77 .LASF5475
C:\Users\CYMR90~1\AppData\Local\Temp\ccYj4tTD.s:22191  .debug_str:0000000000007730 .LASF5476
C:\Users\CYMR90~1\AppData\Local\Temp\ccYj4tTD.s:29860  .debug_str:000000000002635c .LASF5477
C:\Users\CYMR90~1\AppData\Local\Temp\ccYj4tTD.s:20833  .debug_str:000000000000211b .LASF5478
C:\Users\CYMR90~1\AppData\Local\Temp\ccYj4tTD.s:28584  .debug_str:0000000000021222 .LASF5479
C:\Users\CYMR90~1\AppData\Local\Temp\ccYj4tTD.s:23185  .debug_str:000000000000b86b .LASF5480
C:\Users\CYMR90~1\AppData\Local\Temp\ccYj4tTD.s:26028  .debug_str:0000000000016fc9 .LASF5481
C:\Users\CYMR90~1\AppData\Local\Temp\ccYj4tTD.s:22543  .debug_str:0000000000008ef7 .LASF5482
C:\Users\CYMR90~1\AppData\Local\Temp\ccYj4tTD.s:28206  .debug_str:000000000001fb23 .LASF5483
C:\Users\CYMR90~1\AppData\Local\Temp\ccYj4tTD.s:28978  .debug_str:0000000000022a42 .LASF5484
C:\Users\CYMR90~1\AppData\Local\Temp\ccYj4tTD.s:29462  .debug_str:0000000000024812 .LASF5485
C:\Users\CYMR90~1\AppData\Local\Temp\ccYj4tTD.s:28920  .debug_str:00000000000226ba .LASF5486
C:\Users\CYMR90~1\AppData\Local\Temp\ccYj4tTD.s:25875  .debug_str:0000000000016383 .LASF5487
C:\Users\CYMR90~1\AppData\Local\Temp\ccYj4tTD.s:25779  .debug_str:0000000000015d3b .LASF5488
C:\Users\CYMR90~1\AppData\Local\Temp\ccYj4tTD.s:25361  .debug_str:0000000000014333 .LASF5489
C:\Users\CYMR90~1\AppData\Local\Temp\ccYj4tTD.s:22341  .debug_str:0000000000008205 .LASF5490
C:\Users\CYMR90~1\AppData\Local\Temp\ccYj4tTD.s:28774  .debug_str:0000000000021e51 .LASF5491
C:\Users\CYMR90~1\AppData\Local\Temp\ccYj4tTD.s:30480  .debug_str:0000000000028bef .LASF5492
C:\Users\CYMR90~1\AppData\Local\Temp\ccYj4tTD.s:31552  .debug_str:000000000002cf1a .LASF5493
C:\Users\CYMR90~1\AppData\Local\Temp\ccYj4tTD.s:23873  .debug_str:000000000000e485 .LASF5494
C:\Users\CYMR90~1\AppData\Local\Temp\ccYj4tTD.s:25385  .debug_str:000000000001446e .LASF5495
C:\Users\CYMR90~1\AppData\Local\Temp\ccYj4tTD.s:20695  .debug_str:0000000000001933 .LASF5496
C:\Users\CYMR90~1\AppData\Local\Temp\ccYj4tTD.s:21337  .debug_str:00000000000040df .LASF5497
C:\Users\CYMR90~1\AppData\Local\Temp\ccYj4tTD.s:21341  .debug_str:00000000000041af .LASF5498
C:\Users\CYMR90~1\AppData\Local\Temp\ccYj4tTD.s:24515  .debug_str:0000000000010c8e .LASF5499
C:\Users\CYMR90~1\AppData\Local\Temp\ccYj4tTD.s:29320  .debug_str:0000000000023e70 .LASF5500
C:\Users\CYMR90~1\AppData\Local\Temp\ccYj4tTD.s:23211  .debug_str:000000000000ba3a .LASF5501
C:\Users\CYMR90~1\AppData\Local\Temp\ccYj4tTD.s:22929  .debug_str:000000000000a662 .LASF5502
C:\Users\CYMR90~1\AppData\Local\Temp\ccYj4tTD.s:21173  .debug_str:0000000000003663 .LASF5503
C:\Users\CYMR90~1\AppData\Local\Temp\ccYj4tTD.s:29200  .debug_str:0000000000023789 .LASF5504
C:\Users\CYMR90~1\AppData\Local\Temp\ccYj4tTD.s:29738  .debug_str:0000000000025bbf .LASF5505
C:\Users\CYMR90~1\AppData\Local\Temp\ccYj4tTD.s:22015  .debug_str:0000000000006b31 .LASF5506
C:\Users\CYMR90~1\AppData\Local\Temp\ccYj4tTD.s:24349  .debug_str:000000000001021f .LASF5507
C:\Users\CYMR90~1\AppData\Local\Temp\ccYj4tTD.s:25657  .debug_str:0000000000015591 .LASF5508
C:\Users\CYMR90~1\AppData\Local\Temp\ccYj4tTD.s:31168  .debug_str:000000000002b5fe .LASF5509
C:\Users\CYMR90~1\AppData\Local\Temp\ccYj4tTD.s:29426  .debug_str:00000000000245da .LASF5510
C:\Users\CYMR90~1\AppData\Local\Temp\ccYj4tTD.s:26648  .debug_str:00000000000196ea .LASF5511
C:\Users\CYMR90~1\AppData\Local\Temp\ccYj4tTD.s:27676  .debug_str:000000000001dac0 .LASF5512
C:\Users\CYMR90~1\AppData\Local\Temp\ccYj4tTD.s:25861  .debug_str:0000000000016297 .LASF5513
C:\Users\CYMR90~1\AppData\Local\Temp\ccYj4tTD.s:22555  .debug_str:0000000000008fa6 .LASF5514
C:\Users\CYMR90~1\AppData\Local\Temp\ccYj4tTD.s:24483  .debug_str:0000000000010a0a .LASF5515
C:\Users\CYMR90~1\AppData\Local\Temp\ccYj4tTD.s:26448  .debug_str:000000000001894e .LASF5516
C:\Users\CYMR90~1\AppData\Local\Temp\ccYj4tTD.s:26114  .debug_str:000000000001749a .LASF5517
C:\Users\CYMR90~1\AppData\Local\Temp\ccYj4tTD.s:25889  .debug_str:000000000001642e .LASF5518
C:\Users\CYMR90~1\AppData\Local\Temp\ccYj4tTD.s:21285  .debug_str:0000000000003daa .LASF5519
C:\Users\CYMR90~1\AppData\Local\Temp\ccYj4tTD.s:30158  .debug_str:0000000000027620 .LASF5520
C:\Users\CYMR90~1\AppData\Local\Temp\ccYj4tTD.s:23845  .debug_str:000000000000e2f0 .LASF5521
C:\Users\CYMR90~1\AppData\Local\Temp\ccYj4tTD.s:21329  .debug_str:000000000000405c .LASF5522
C:\Users\CYMR90~1\AppData\Local\Temp\ccYj4tTD.s:25497  .debug_str:0000000000014b82 .LASF5523
C:\Users\CYMR90~1\AppData\Local\Temp\ccYj4tTD.s:23841  .debug_str:000000000000e2b1 .LASF5524
C:\Users\CYMR90~1\AppData\Local\Temp\ccYj4tTD.s:25713  .debug_str:00000000000158fb .LASF5525
C:\Users\CYMR90~1\AppData\Local\Temp\ccYj4tTD.s:31006  .debug_str:000000000002abc1 .LASF5526
C:\Users\CYMR90~1\AppData\Local\Temp\ccYj4tTD.s:22453  .debug_str:00000000000088e3 .LASF5527
C:\Users\CYMR90~1\AppData\Local\Temp\ccYj4tTD.s:21041  .debug_str:0000000000002e20 .LASF5528
C:\Users\CYMR90~1\AppData\Local\Temp\ccYj4tTD.s:25027  .debug_str:0000000000012db1 .LASF5529
C:\Users\CYMR90~1\AppData\Local\Temp\ccYj4tTD.s:30736  .debug_str:0000000000029bba .LASF5530
C:\Users\CYMR90~1\AppData\Local\Temp\ccYj4tTD.s:26776  .debug_str:0000000000019f80 .LASF5531
C:\Users\CYMR90~1\AppData\Local\Temp\ccYj4tTD.s:26814  .debug_str:000000000001a1ae .LASF5532
C:\Users\CYMR90~1\AppData\Local\Temp\ccYj4tTD.s:29684  .debug_str:00000000000257f6 .LASF5533
C:\Users\CYMR90~1\AppData\Local\Temp\ccYj4tTD.s:31320  .debug_str:000000000002c018 .LASF5534
C:\Users\CYMR90~1\AppData\Local\Temp\ccYj4tTD.s:31526  .debug_str:000000000002ccff .LASF5535
C:\Users\CYMR90~1\AppData\Local\Temp\ccYj4tTD.s:30404  .debug_str:0000000000028752 .LASF5536
C:\Users\CYMR90~1\AppData\Local\Temp\ccYj4tTD.s:25175  .debug_str:00000000000137bc .LASF5537
C:\Users\CYMR90~1\AppData\Local\Temp\ccYj4tTD.s:27956  .debug_str:000000000001ebef .LASF5538
C:\Users\CYMR90~1\AppData\Local\Temp\ccYj4tTD.s:24409  .debug_str:0000000000010591 .LASF5539
C:\Users\CYMR90~1\AppData\Local\Temp\ccYj4tTD.s:31416  .debug_str:000000000002c652 .LASF5540
C:\Users\CYMR90~1\AppData\Local\Temp\ccYj4tTD.s:29556  .debug_str:0000000000024e72 .LASF5541
C:\Users\CYMR90~1\AppData\Local\Temp\ccYj4tTD.s:29466  .debug_str:000000000002483b .LASF5542
C:\Users\CYMR90~1\AppData\Local\Temp\ccYj4tTD.s:22065  .debug_str:0000000000006e8e .LASF5543
C:\Users\CYMR90~1\AppData\Local\Temp\ccYj4tTD.s:25915  .debug_str:0000000000016625 .LASF5544
C:\Users\CYMR90~1\AppData\Local\Temp\ccYj4tTD.s:30220  .debug_str:00000000000279af .LASF5545
C:\Users\CYMR90~1\AppData\Local\Temp\ccYj4tTD.s:30608  .debug_str:000000000002940d .LASF5546
C:\Users\CYMR90~1\AppData\Local\Temp\ccYj4tTD.s:30016  .debug_str:0000000000026c99 .LASF5547
C:\Users\CYMR90~1\AppData\Local\Temp\ccYj4tTD.s:23721  .debug_str:000000000000db66 .LASF5548
C:\Users\CYMR90~1\AppData\Local\Temp\ccYj4tTD.s:29162  .debug_str:00000000000234f2 .LASF5549
C:\Users\CYMR90~1\AppData\Local\Temp\ccYj4tTD.s:27534  .debug_str:000000000001d1bb .LASF5550
C:\Users\CYMR90~1\AppData\Local\Temp\ccYj4tTD.s:23959  .debug_str:000000000000ea23 .LASF5551
C:\Users\CYMR90~1\AppData\Local\Temp\ccYj4tTD.s:22973  .debug_str:000000000000a9fe .LASF5552
C:\Users\CYMR90~1\AppData\Local\Temp\ccYj4tTD.s:21937  .debug_str:0000000000006689 .LASF5553
C:\Users\CYMR90~1\AppData\Local\Temp\ccYj4tTD.s:25907  .debug_str:00000000000165b2 .LASF5554
C:\Users\CYMR90~1\AppData\Local\Temp\ccYj4tTD.s:27070  .debug_str:000000000001b3b2 .LASF5555
                           .group:0000000000000000 wm4.0.10abbef32179bc1260444192115bdf5e
                           .group:0000000000000000 wm4.stddef.h.39.144cf5ddcd53cbfdac30259dc1a6c87f
                           .group:0000000000000000 wm4._newlib_version.h.4.bfdf54b0af045d4a71376ae00f63a22c
                           .group:0000000000000000 wm4.newlib.h.18.08a2ecba46890ca2aa56bbe21686e6c3
                           .group:0000000000000000 wm4.ieeefp.h.202.4f2759f5758fd82153cfbf98692f2ced
                           .group:0000000000000000 wm4.features.h.22.fad1cec3bc7ff06488171438dbdcfd02
                           .group:0000000000000000 wm4.config.h.83.13bbc8852bfac55b724c9822481355b5
                           .group:0000000000000000 wm4._ansi.h.31.de524f58584151836e90d8620a16f8e8
                           .group:0000000000000000 wm4.stdio.h.31.7c0e28c411445f3f9c5b11accf882760
                           .group:0000000000000000 wm4._default_types.h.6.959254cf5f09734ea7516c89e8bb21bd
                           .group:0000000000000000 wm4.stddef.h.155.ba788add86a0e365f264484f110c3c29
                           .group:0000000000000000 wm4.cdefs.h.49.39045112216f6a021dbdffe3bf5accce
                           .group:0000000000000000 wm4.stdarg.h.34.3a23a216c0c293b3d2ea2e89281481e6
                           .group:0000000000000000 wm4._types.h.20.dd0d04dca3800a0d2a6129b87f3adbb2
                           .group:0000000000000000 wm4.stddef.h.155.3588ebfdd1e8c7ede80509bb9c3b8009
                           .group:0000000000000000 wm4._types.h.127.34941de1b2539d59d5cac00e0dd27a45
                           .group:0000000000000000 wm4.reent.h.17.e292bf8b0bec6c96e131a54347145a30
                           .group:0000000000000000 wm4.lock.h.2.c0958401bd0ce484d507ee19aacab817
                           .group:0000000000000000 wm4.reent.h.77.dcd6129ff07fe81bd5636db29abe53b2
                           .group:0000000000000000 wm4.types.h.40.8b6acba56cefbb11746718204edc8f5e
                           .group:0000000000000000 wm4._stdint.h.10.c24fa3af3bc1706662bb5593a907e841
                           .group:0000000000000000 wm4._endian.h.18.1bf9649e8e5bbc91042012680270b9ed
                           .group:0000000000000000 wm4.endian.h.9.49f3a4695c1b61e8a0808de3c4a106cb
                           .group:0000000000000000 wm4._timeval.h.32.bec3221fa7a9bb0bdde696c9c57e47d2
                           .group:0000000000000000 wm4.timespec.h.41.d855182eb0e690443ab8651bcedca6e1
                           .group:0000000000000000 wm4.select.h.19.40cd3f2bfc456b193b790c2754690ebf
                           .group:0000000000000000 wm4.types.h.51.5571ec98f267d17d3c670b7a3ba33afa
                           .group:0000000000000000 wm4.sched.h.22.c60982713a5c428609783c78f9c78d95
                           .group:0000000000000000 wm4._pthreadtypes.h.36.fcee9961c35163dde6267ef772ad1972
                           .group:0000000000000000 wm4.stdio.h.2.4aa87247282eca6c8f36f9de33d8df1a
                           .group:0000000000000000 wm4.stdio.h.81.932d0c162786b883f622b8d05c120c78
                           .group:0000000000000000 wm4.gd32vw55x.h.47.379378190858578060a317909b2c8d8a
                           .group:0000000000000000 wm4._intsup.h.10.48bafbb683905c4daa4565a85aeeb264
                           .group:0000000000000000 wm4.stdint.h.23.d53047a68f4a85177f80b422d52785ed
                           .group:0000000000000000 wm4.nmsis_version.h.19.ffa173da8efb17b1050904994d6f500e
                           .group:0000000000000000 wm4.riscv_bits.h.19.ee94eb3d39937793d4cd0a62363e5d00
                           .group:0000000000000000 wm4.riscv_encoding.h.35.f5d37fad7abbab8278b4bb6f1e32fa65
                           .group:0000000000000000 wm4.nmsis_gcc.h.61.5d70d7598ffc79c3c991d847a574cf23
                           .group:0000000000000000 wm4.core_feature_base.h.20.e99d3e75c26a8f3341d35bf20d0e1d20
                           .group:0000000000000000 wm4.core_feature_fpu.h.19.695f2200274659b530cb97cda749ff4f
                           .group:0000000000000000 wm4.core_feature_dsp.h.19.e8f8d7aa42f197807aefedb6584486cd
                           .group:0000000000000000 wm4.core_compatiable.h.19.5b8282d61b1f6889a82895616b730084
                           .group:0000000000000000 wm4.core_feature_eclic.h.19.e0c091d0cbda79e8b3b031b979ebd5a1
                           .group:0000000000000000 wm4.core_feature_timer.h.19.21a5151282de34c37dfa6d84e262aa54
                           .group:0000000000000000 wm4.system_gd32vw55x.h.32.f1fcb1212d387c35ac955b0e96ada468
                           .group:0000000000000000 wm4.gd32vw55x.h.231.3529c650aff38c9372f7e03177fd2c8a
                           .group:0000000000000000 wm4.gd32vw55x_adc.h.42.ae73acec1704ef509ccecb41a875b50e
                           .group:0000000000000000 wm4.gd32vw55x_cau.h.36.c98428fe1eae7edb4721da5c8078c974
                           .group:0000000000000000 wm4.gd32vw55x_crc.h.37.c58f296814c2300a4b067c08bd88d54e
                           .group:0000000000000000 wm4.gd32vw55x_dbg.h.36.311650c8545549d482ceca8befc5a232
                           .group:0000000000000000 wm4.gd32vw55x_dma.h.36.f4adc751172b2a7b1533dda72e948737
                           .group:0000000000000000 wm4.gd32vw55x_eclic.h.36.0411499f2b2493c67246e32ccae096c1
                           .group:0000000000000000 wm4.gd32vw55x_efuse.h.36.091404cecbab70359dfd93faec5fdb62
                           .group:0000000000000000 wm4.gd32vw55x_exti.h.36.de7508334dd12f1a6a673521a1a835f5
                           .group:0000000000000000 wm4.gd32vw55x_fmc.h.36.a4b0b94c47ffe23a2fa09260c5ed4850
                           .group:0000000000000000 wm4.gd32vw55x_fwdgt.h.36.4846b6900fd24b5bfce4986c9a8ce677
                           .group:0000000000000000 wm4.gd32vw55x_gpio.h.36.adfee1371bb58d3d9043c47bdb25a90f
                           .group:0000000000000000 wm4.gd32vw55x_hau.h.36.f3cbcbd7b67c9e5bdc7a1100b1bf3458
                           .group:0000000000000000 wm4.gd32vw55x_i2c.h.36.3848990933925e084eb427083790c53f
                           .group:0000000000000000 wm4.gd32vw55x_pkcau.h.36.bb2235f4cf4967063a51bfa9aca5ef27
                           .group:0000000000000000 wm4.gd32vw55x_pmu.h.36.4c76091f1415551526d489ccf2c42052
                           .group:0000000000000000 wm4.gd32vw55x_qspi.h.36.2d2c181cfe19b935a9641008fc786613
                           .group:0000000000000000 wm4.gd32vw55x_rcu.h.36.780a8a45c00d563711cceb445027ef47
                           .group:0000000000000000 wm4.gd32vw55x_rtc.h.36.3172855e8715659e080e0eab46fdf175
                           .group:0000000000000000 wm4.gd32vw55x_syscfg.h.36.010551f05591f5e34051d2e15df0352b
                           .group:0000000000000000 wm4.gd32vw55x_timer.h.38.2cbee78ea60d47145be361b2d2c55070
                           .group:0000000000000000 wm4.gd32vw55x_trng.h.36.c9e7807af1b1ab68d3bbb54f4ed5cd73
                           .group:0000000000000000 wm4.gd32vw55x_usart.h.36.f5c497cca17945a34f154b0e17017d02
                           .group:0000000000000000 wm4.gd32vw55x_wwdgt.h.36.f7a443b7302efc0e5c335888582ee197
                           .group:0000000000000000 wm4.gd32vw55x_spi.h.40.5cac3a0af8bca3ed9cba060a464bc571

UNDEFINED SYMBOLS
rcu_periph_reset_enable
rcu_periph_reset_disable
