   1              		.file	"gd32vw55x_syscfg.c"
   2              		.option nopic
   3              		.attribute arch, "rv32i2p0_m2p0_a2p0_c2p0"
   4              		.attribute unaligned_access, 0
   5              		.attribute stack_align, 16
   6              		.text
   7              	.Ltext0:
   8              		.cfi_sections	.debug_frame
   9              		.section	.text.syscfg_deinit,"ax",@progbits
  10              		.align	1
  11              		.globl	syscfg_deinit
  13              	syscfg_deinit:
  14              	.LFB347:
  15              		.file 1 "../Firmware/GD32VW55x_standard_peripheral/Source/gd32vw55x_syscfg.c"
   1:../Firmware/GD32VW55x_standard_peripheral/Source/gd32vw55x_syscfg.c **** /*!
   2:../Firmware/GD32VW55x_standard_peripheral/Source/gd32vw55x_syscfg.c ****     \file    gd32vw55x_syscfg.c
   3:../Firmware/GD32VW55x_standard_peripheral/Source/gd32vw55x_syscfg.c ****     \brief   SYSCFG driver
   4:../Firmware/GD32VW55x_standard_peripheral/Source/gd32vw55x_syscfg.c **** 
   5:../Firmware/GD32VW55x_standard_peripheral/Source/gd32vw55x_syscfg.c ****     \version 2025-01-16, V1.4.0, firmware for GD32VW55x
   6:../Firmware/GD32VW55x_standard_peripheral/Source/gd32vw55x_syscfg.c **** */
   7:../Firmware/GD32VW55x_standard_peripheral/Source/gd32vw55x_syscfg.c **** 
   8:../Firmware/GD32VW55x_standard_peripheral/Source/gd32vw55x_syscfg.c **** /*
   9:../Firmware/GD32VW55x_standard_peripheral/Source/gd32vw55x_syscfg.c ****     Copyright (c) 2025, GigaDevice Semiconductor Inc.
  10:../Firmware/GD32VW55x_standard_peripheral/Source/gd32vw55x_syscfg.c **** 
  11:../Firmware/GD32VW55x_standard_peripheral/Source/gd32vw55x_syscfg.c ****     Redistribution and use in source and binary forms, with or without modification,
  12:../Firmware/GD32VW55x_standard_peripheral/Source/gd32vw55x_syscfg.c **** are permitted provided that the following conditions are met:
  13:../Firmware/GD32VW55x_standard_peripheral/Source/gd32vw55x_syscfg.c **** 
  14:../Firmware/GD32VW55x_standard_peripheral/Source/gd32vw55x_syscfg.c ****     1. Redistributions of source code must retain the above copyright notice, this
  15:../Firmware/GD32VW55x_standard_peripheral/Source/gd32vw55x_syscfg.c ****        list of conditions and the following disclaimer.
  16:../Firmware/GD32VW55x_standard_peripheral/Source/gd32vw55x_syscfg.c ****     2. Redistributions in binary form must reproduce the above copyright notice,
  17:../Firmware/GD32VW55x_standard_peripheral/Source/gd32vw55x_syscfg.c ****        this list of conditions and the following disclaimer in the documentation
  18:../Firmware/GD32VW55x_standard_peripheral/Source/gd32vw55x_syscfg.c ****        and/or other materials provided with the distribution.
  19:../Firmware/GD32VW55x_standard_peripheral/Source/gd32vw55x_syscfg.c ****     3. Neither the name of the copyright holder nor the names of its contributors
  20:../Firmware/GD32VW55x_standard_peripheral/Source/gd32vw55x_syscfg.c ****        may be used to endorse or promote products derived from this software without
  21:../Firmware/GD32VW55x_standard_peripheral/Source/gd32vw55x_syscfg.c ****        specific prior written permission.
  22:../Firmware/GD32VW55x_standard_peripheral/Source/gd32vw55x_syscfg.c **** 
  23:../Firmware/GD32VW55x_standard_peripheral/Source/gd32vw55x_syscfg.c ****     THIS SOFTWARE IS PROVIDED BY THE COPYRIGHT HOLDERS AND CONTRIBUTORS "AS IS"
  24:../Firmware/GD32VW55x_standard_peripheral/Source/gd32vw55x_syscfg.c **** AND ANY EXPRESS OR IMPLIED WARRANTIES, INCLUDING, BUT NOT LIMITED TO, THE IMPLIED
  25:../Firmware/GD32VW55x_standard_peripheral/Source/gd32vw55x_syscfg.c **** WARRANTIES OF MERCHANTABILITY AND FITNESS FOR A PARTICULAR PURPOSE ARE DISCLAIMED.
  26:../Firmware/GD32VW55x_standard_peripheral/Source/gd32vw55x_syscfg.c **** IN NO EVENT SHALL THE COPYRIGHT HOLDER OR CONTRIBUTORS BE LIABLE FOR ANY DIRECT,
  27:../Firmware/GD32VW55x_standard_peripheral/Source/gd32vw55x_syscfg.c **** INDIRECT, INCIDENTAL, SPECIAL, EXEMPLARY, OR CONSEQUENTIAL DAMAGES (INCLUDING, BUT
  28:../Firmware/GD32VW55x_standard_peripheral/Source/gd32vw55x_syscfg.c **** NOT LIMITED TO, PROCUREMENT OF SUBSTITUTE GOODS OR SERVICES; LOSS OF USE, DATA, OR
  29:../Firmware/GD32VW55x_standard_peripheral/Source/gd32vw55x_syscfg.c **** PROFITS; OR BUSINESS INTERRUPTION) HOWEVER CAUSED AND ON ANY THEORY OF LIABILITY,
  30:../Firmware/GD32VW55x_standard_peripheral/Source/gd32vw55x_syscfg.c **** WHETHER IN CONTRACT, STRICT LIABILITY, OR TORT (INCLUDING NEGLIGENCE OR OTHERWISE)
  31:../Firmware/GD32VW55x_standard_peripheral/Source/gd32vw55x_syscfg.c **** ARISING IN ANY WAY OUT OF THE USE OF THIS SOFTWARE, EVEN IF ADVISED OF THE POSSIBILITY
  32:../Firmware/GD32VW55x_standard_peripheral/Source/gd32vw55x_syscfg.c **** OF SUCH DAMAGE.
  33:../Firmware/GD32VW55x_standard_peripheral/Source/gd32vw55x_syscfg.c **** */
  34:../Firmware/GD32VW55x_standard_peripheral/Source/gd32vw55x_syscfg.c **** 
  35:../Firmware/GD32VW55x_standard_peripheral/Source/gd32vw55x_syscfg.c **** #include "gd32vw55x_syscfg.h"
  36:../Firmware/GD32VW55x_standard_peripheral/Source/gd32vw55x_syscfg.c **** 
  37:../Firmware/GD32VW55x_standard_peripheral/Source/gd32vw55x_syscfg.c **** /* SYSCFG_TIMERxCFG bit 0..27 mask */
  38:../Firmware/GD32VW55x_standard_peripheral/Source/gd32vw55x_syscfg.c **** #define SYSCFG_TIMERCFG_BIT0_27_MASK        0xFFFFFFFU
  39:../Firmware/GD32VW55x_standard_peripheral/Source/gd32vw55x_syscfg.c **** 
  40:../Firmware/GD32VW55x_standard_peripheral/Source/gd32vw55x_syscfg.c **** /*!
  41:../Firmware/GD32VW55x_standard_peripheral/Source/gd32vw55x_syscfg.c ****     \brief      reset the SYSCFG registers
  42:../Firmware/GD32VW55x_standard_peripheral/Source/gd32vw55x_syscfg.c ****     \param[in]  none
  43:../Firmware/GD32VW55x_standard_peripheral/Source/gd32vw55x_syscfg.c ****     \param[out] none
  44:../Firmware/GD32VW55x_standard_peripheral/Source/gd32vw55x_syscfg.c ****     \retval     none
  45:../Firmware/GD32VW55x_standard_peripheral/Source/gd32vw55x_syscfg.c **** */
  46:../Firmware/GD32VW55x_standard_peripheral/Source/gd32vw55x_syscfg.c **** void syscfg_deinit(void)
  47:../Firmware/GD32VW55x_standard_peripheral/Source/gd32vw55x_syscfg.c **** {
  16              		.loc 1 47 1
  17              		.cfi_startproc
  18 0000 4111     		addi	sp,sp,-16
  19              		.cfi_def_cfa_offset 16
  20 0002 06C6     		sw	ra,12(sp)
  21 0004 22C4     		sw	s0,8(sp)
  22              		.cfi_offset 1, -4
  23              		.cfi_offset 8, -8
  24 0006 0008     		addi	s0,sp,16
  25              		.cfi_def_cfa 8, 0
  48:../Firmware/GD32VW55x_standard_peripheral/Source/gd32vw55x_syscfg.c ****     rcu_periph_reset_enable(RCU_SYSCFGRST);
  26              		.loc 1 48 5
  27 0008 8567     		li	a5,4096
  28 000a 1385E790 		addi	a0,a5,-1778
  29 000e 97000000 		call	rcu_periph_reset_enable
  29      E7800000 
  49:../Firmware/GD32VW55x_standard_peripheral/Source/gd32vw55x_syscfg.c ****     rcu_periph_reset_disable(RCU_SYSCFGRST);
  30              		.loc 1 49 5
  31 0016 8567     		li	a5,4096
  32 0018 1385E790 		addi	a0,a5,-1778
  33 001c 97000000 		call	rcu_periph_reset_disable
  33      E7800000 
  50:../Firmware/GD32VW55x_standard_peripheral/Source/gd32vw55x_syscfg.c **** }
  34              		.loc 1 50 1
  35 0024 0100     		nop
  36 0026 B240     		lw	ra,12(sp)
  37              		.cfi_restore 1
  38 0028 2244     		lw	s0,8(sp)
  39              		.cfi_restore 8
  40              		.cfi_def_cfa 2, 16
  41 002a 4101     		addi	sp,sp,16
  42              		.cfi_def_cfa_offset 0
  43 002c 8280     		jr	ra
  44              		.cfi_endproc
  45              	.LFE347:
  47              		.section	.text.syscfg_exti_line_config,"ax",@progbits
  48              		.align	1
  49              		.globl	syscfg_exti_line_config
  51              	syscfg_exti_line_config:
  52              	.LFB348:
  51:../Firmware/GD32VW55x_standard_peripheral/Source/gd32vw55x_syscfg.c **** 
  52:../Firmware/GD32VW55x_standard_peripheral/Source/gd32vw55x_syscfg.c **** /*!
  53:../Firmware/GD32VW55x_standard_peripheral/Source/gd32vw55x_syscfg.c ****     \brief      configure the GPIO pin as EXTI Line
  54:../Firmware/GD32VW55x_standard_peripheral/Source/gd32vw55x_syscfg.c ****     \param[in]  exti_port: specify the GPIO port used in EXTI
  55:../Firmware/GD32VW55x_standard_peripheral/Source/gd32vw55x_syscfg.c ****                 only one parameter can be selected which is shown as below:
  56:../Firmware/GD32VW55x_standard_peripheral/Source/gd32vw55x_syscfg.c ****       \arg          EXTI_SOURCE_GPIOx(x = A,B,C): EXTI GPIO port
  57:../Firmware/GD32VW55x_standard_peripheral/Source/gd32vw55x_syscfg.c ****     \param[in]  exti_pin: specify the EXTI line
  58:../Firmware/GD32VW55x_standard_peripheral/Source/gd32vw55x_syscfg.c ****                 only one parameter can be selected which is shown as below:
  59:../Firmware/GD32VW55x_standard_peripheral/Source/gd32vw55x_syscfg.c ****       \arg          EXTI_SOURCE_PINx(GPIOA x = 0..15, GPIOB x = 0..4,11,12,13,15, GPIOC x = 8,13,14
  60:../Firmware/GD32VW55x_standard_peripheral/Source/gd32vw55x_syscfg.c ****     \param[out] none
  61:../Firmware/GD32VW55x_standard_peripheral/Source/gd32vw55x_syscfg.c ****     \retval     none
  62:../Firmware/GD32VW55x_standard_peripheral/Source/gd32vw55x_syscfg.c **** */
  63:../Firmware/GD32VW55x_standard_peripheral/Source/gd32vw55x_syscfg.c **** void syscfg_exti_line_config(uint8_t exti_port, uint8_t exti_pin)
  64:../Firmware/GD32VW55x_standard_peripheral/Source/gd32vw55x_syscfg.c **** {
  53              		.loc 1 64 1
  54              		.cfi_startproc
  55 0000 7971     		addi	sp,sp,-48
  56              		.cfi_def_cfa_offset 48
  57 0002 22D6     		sw	s0,44(sp)
  58              		.cfi_offset 8, -4
  59 0004 0018     		addi	s0,sp,48
  60              		.cfi_def_cfa 8, 0
  61 0006 AA87     		mv	a5,a0
  62 0008 2E87     		mv	a4,a1
  63 000a A30FF4FC 		sb	a5,-33(s0)
  64 000e BA87     		mv	a5,a4
  65 0010 230FF4FC 		sb	a5,-34(s0)
  65:../Firmware/GD32VW55x_standard_peripheral/Source/gd32vw55x_syscfg.c ****     uint32_t clear_exti_mask = ~((uint32_t)EXTI_SS_MASK << (EXTI_SS_MSTEP(exti_pin)));
  66              		.loc 1 65 61
  67 0014 8347E4FD 		lbu	a5,-34(s0)
  68 0018 8D8B     		andi	a5,a5,3
  69 001a 8A07     		slli	a5,a5,2
  70              		.loc 1 65 57
  71 001c 3D47     		li	a4,15
  72 001e B317F700 		sll	a5,a4,a5
  73              		.loc 1 65 14
  74 0022 93C7F7FF 		not	a5,a5
  75 0026 2326F4FE 		sw	a5,-20(s0)
  66:../Firmware/GD32VW55x_standard_peripheral/Source/gd32vw55x_syscfg.c ****     uint32_t config_exti_mask = ((uint32_t)exti_port) << (EXTI_SS_MSTEP(exti_pin));
  76              		.loc 1 66 34
  77 002a 0347F4FD 		lbu	a4,-33(s0)
  78              		.loc 1 66 59
  79 002e 8347E4FD 		lbu	a5,-34(s0)
  80 0032 8D8B     		andi	a5,a5,3
  81 0034 8A07     		slli	a5,a5,2
  82              		.loc 1 66 14
  83 0036 B317F700 		sll	a5,a4,a5
  84 003a 2324F4FE 		sw	a5,-24(s0)
  67:../Firmware/GD32VW55x_standard_peripheral/Source/gd32vw55x_syscfg.c **** 
  68:../Firmware/GD32VW55x_standard_peripheral/Source/gd32vw55x_syscfg.c ****     switch (exti_pin / EXTI_SS_JSTEP){
  85              		.loc 1 68 22
  86 003e 8347E4FD 		lbu	a5,-34(s0)
  87 0042 8983     		srli	a5,a5,2
  88 0044 93F7F70F 		andi	a5,a5,0xff
  89              		.loc 1 68 5
  90 0048 0D47     		li	a4,3
  91 004a 6381E70C 		beq	a5,a4,.L3
  92 004e 0D47     		li	a4,3
  93 0050 6349F70E 		bgt	a5,a4,.L9
  94 0054 0947     		li	a4,2
  95 0056 6380E708 		beq	a5,a4,.L5
  96 005a 0947     		li	a4,2
  97 005c 6343F70E 		bgt	a5,a4,.L9
  98 0060 89C7     		beq	a5,zero,.L6
  99 0062 0547     		li	a4,1
 100 0064 638EE702 		beq	a5,a4,.L7
  69:../Firmware/GD32VW55x_standard_peripheral/Source/gd32vw55x_syscfg.c ****     case EXTISS0:
  70:../Firmware/GD32VW55x_standard_peripheral/Source/gd32vw55x_syscfg.c ****         /* clear EXTI source line(0..3) */
  71:../Firmware/GD32VW55x_standard_peripheral/Source/gd32vw55x_syscfg.c ****         SYSCFG_EXTISS0 &= clear_exti_mask;
  72:../Firmware/GD32VW55x_standard_peripheral/Source/gd32vw55x_syscfg.c ****         /* configure EXTI source line(0..3) */
  73:../Firmware/GD32VW55x_standard_peripheral/Source/gd32vw55x_syscfg.c ****         SYSCFG_EXTISS0 |= config_exti_mask;
  74:../Firmware/GD32VW55x_standard_peripheral/Source/gd32vw55x_syscfg.c ****         break;
  75:../Firmware/GD32VW55x_standard_peripheral/Source/gd32vw55x_syscfg.c ****     case EXTISS1:
  76:../Firmware/GD32VW55x_standard_peripheral/Source/gd32vw55x_syscfg.c ****         /* clear EXTI source line(4..7) */
  77:../Firmware/GD32VW55x_standard_peripheral/Source/gd32vw55x_syscfg.c ****         SYSCFG_EXTISS1 &= clear_exti_mask;
  78:../Firmware/GD32VW55x_standard_peripheral/Source/gd32vw55x_syscfg.c ****         /* configure EXTI source line(4..7) */
  79:../Firmware/GD32VW55x_standard_peripheral/Source/gd32vw55x_syscfg.c ****         SYSCFG_EXTISS1 |= config_exti_mask;
  80:../Firmware/GD32VW55x_standard_peripheral/Source/gd32vw55x_syscfg.c ****         break;
  81:../Firmware/GD32VW55x_standard_peripheral/Source/gd32vw55x_syscfg.c ****     case EXTISS2:
  82:../Firmware/GD32VW55x_standard_peripheral/Source/gd32vw55x_syscfg.c ****         /* clear EXTI source line(8..11) */
  83:../Firmware/GD32VW55x_standard_peripheral/Source/gd32vw55x_syscfg.c ****         SYSCFG_EXTISS2 &= clear_exti_mask;
  84:../Firmware/GD32VW55x_standard_peripheral/Source/gd32vw55x_syscfg.c ****         /* configure EXTI source line(8..11) */
  85:../Firmware/GD32VW55x_standard_peripheral/Source/gd32vw55x_syscfg.c ****         SYSCFG_EXTISS2 |= config_exti_mask;
  86:../Firmware/GD32VW55x_standard_peripheral/Source/gd32vw55x_syscfg.c ****         break;
  87:../Firmware/GD32VW55x_standard_peripheral/Source/gd32vw55x_syscfg.c ****     case EXTISS3:
  88:../Firmware/GD32VW55x_standard_peripheral/Source/gd32vw55x_syscfg.c ****         /* clear EXTI source line(12..15) */
  89:../Firmware/GD32VW55x_standard_peripheral/Source/gd32vw55x_syscfg.c ****         SYSCFG_EXTISS3 &= clear_exti_mask;
  90:../Firmware/GD32VW55x_standard_peripheral/Source/gd32vw55x_syscfg.c ****         /* configure EXTI source line(12..15) */
  91:../Firmware/GD32VW55x_standard_peripheral/Source/gd32vw55x_syscfg.c ****         SYSCFG_EXTISS3 |= config_exti_mask;
  92:../Firmware/GD32VW55x_standard_peripheral/Source/gd32vw55x_syscfg.c ****         break;
  93:../Firmware/GD32VW55x_standard_peripheral/Source/gd32vw55x_syscfg.c ****     default:
  94:../Firmware/GD32VW55x_standard_peripheral/Source/gd32vw55x_syscfg.c ****         break;
 101              		.loc 1 94 9
 102 0068 E9A8     		j	.L9
 103              	.L6:
  71:../Firmware/GD32VW55x_standard_peripheral/Source/gd32vw55x_syscfg.c ****         /* configure EXTI source line(0..3) */
 104              		.loc 1 71 24
 105 006a B7470140 		li	a5,1073823744
 106 006e 93878780 		addi	a5,a5,-2040
 107 0072 9443     		lw	a3,0(a5)
 108 0074 B7470140 		li	a5,1073823744
 109 0078 93878780 		addi	a5,a5,-2040
 110 007c 0327C4FE 		lw	a4,-20(s0)
 111 0080 758F     		and	a4,a3,a4
 112 0082 98C3     		sw	a4,0(a5)
  73:../Firmware/GD32VW55x_standard_peripheral/Source/gd32vw55x_syscfg.c ****         break;
 113              		.loc 1 73 24
 114 0084 B7470140 		li	a5,1073823744
 115 0088 93878780 		addi	a5,a5,-2040
 116 008c 9443     		lw	a3,0(a5)
 117 008e B7470140 		li	a5,1073823744
 118 0092 93878780 		addi	a5,a5,-2040
 119 0096 032784FE 		lw	a4,-24(s0)
 120 009a 558F     		or	a4,a3,a4
 121 009c 98C3     		sw	a4,0(a5)
  74:../Firmware/GD32VW55x_standard_peripheral/Source/gd32vw55x_syscfg.c ****     case EXTISS1:
 122              		.loc 1 74 9
 123 009e 5DA0     		j	.L8
 124              	.L7:
  77:../Firmware/GD32VW55x_standard_peripheral/Source/gd32vw55x_syscfg.c ****         /* configure EXTI source line(4..7) */
 125              		.loc 1 77 24
 126 00a0 B7470140 		li	a5,1073823744
 127 00a4 9387C780 		addi	a5,a5,-2036
 128 00a8 9443     		lw	a3,0(a5)
 129 00aa B7470140 		li	a5,1073823744
 130 00ae 9387C780 		addi	a5,a5,-2036
 131 00b2 0327C4FE 		lw	a4,-20(s0)
 132 00b6 758F     		and	a4,a3,a4
 133 00b8 98C3     		sw	a4,0(a5)
  79:../Firmware/GD32VW55x_standard_peripheral/Source/gd32vw55x_syscfg.c ****         break;
 134              		.loc 1 79 24
 135 00ba B7470140 		li	a5,1073823744
 136 00be 9387C780 		addi	a5,a5,-2036
 137 00c2 9443     		lw	a3,0(a5)
 138 00c4 B7470140 		li	a5,1073823744
 139 00c8 9387C780 		addi	a5,a5,-2036
 140 00cc 032784FE 		lw	a4,-24(s0)
 141 00d0 558F     		or	a4,a3,a4
 142 00d2 98C3     		sw	a4,0(a5)
  80:../Firmware/GD32VW55x_standard_peripheral/Source/gd32vw55x_syscfg.c ****     case EXTISS2:
 143              		.loc 1 80 9
 144 00d4 85A8     		j	.L8
 145              	.L5:
  83:../Firmware/GD32VW55x_standard_peripheral/Source/gd32vw55x_syscfg.c ****         /* configure EXTI source line(8..11) */
 146              		.loc 1 83 24
 147 00d6 B7470140 		li	a5,1073823744
 148 00da 93870781 		addi	a5,a5,-2032
 149 00de 9443     		lw	a3,0(a5)
 150 00e0 B7470140 		li	a5,1073823744
 151 00e4 93870781 		addi	a5,a5,-2032
 152 00e8 0327C4FE 		lw	a4,-20(s0)
 153 00ec 758F     		and	a4,a3,a4
 154 00ee 98C3     		sw	a4,0(a5)
  85:../Firmware/GD32VW55x_standard_peripheral/Source/gd32vw55x_syscfg.c ****         break;
 155              		.loc 1 85 24
 156 00f0 B7470140 		li	a5,1073823744
 157 00f4 93870781 		addi	a5,a5,-2032
 158 00f8 9443     		lw	a3,0(a5)
 159 00fa B7470140 		li	a5,1073823744
 160 00fe 93870781 		addi	a5,a5,-2032
 161 0102 032784FE 		lw	a4,-24(s0)
 162 0106 558F     		or	a4,a3,a4
 163 0108 98C3     		sw	a4,0(a5)
  86:../Firmware/GD32VW55x_standard_peripheral/Source/gd32vw55x_syscfg.c ****     case EXTISS3:
 164              		.loc 1 86 9
 165 010a 2DA8     		j	.L8
 166              	.L3:
  89:../Firmware/GD32VW55x_standard_peripheral/Source/gd32vw55x_syscfg.c ****         /* configure EXTI source line(12..15) */
 167              		.loc 1 89 24
 168 010c B7470140 		li	a5,1073823744
 169 0110 93874781 		addi	a5,a5,-2028
 170 0114 9443     		lw	a3,0(a5)
 171 0116 B7470140 		li	a5,1073823744
 172 011a 93874781 		addi	a5,a5,-2028
 173 011e 0327C4FE 		lw	a4,-20(s0)
 174 0122 758F     		and	a4,a3,a4
 175 0124 98C3     		sw	a4,0(a5)
  91:../Firmware/GD32VW55x_standard_peripheral/Source/gd32vw55x_syscfg.c ****         break;
 176              		.loc 1 91 24
 177 0126 B7470140 		li	a5,1073823744
 178 012a 93874781 		addi	a5,a5,-2028
 179 012e 9443     		lw	a3,0(a5)
 180 0130 B7470140 		li	a5,1073823744
 181 0134 93874781 		addi	a5,a5,-2028
 182 0138 032784FE 		lw	a4,-24(s0)
 183 013c 558F     		or	a4,a3,a4
 184 013e 98C3     		sw	a4,0(a5)
  92:../Firmware/GD32VW55x_standard_peripheral/Source/gd32vw55x_syscfg.c ****     default:
 185              		.loc 1 92 9
 186 0140 11A0     		j	.L8
 187              	.L9:
 188              		.loc 1 94 9
 189 0142 0100     		nop
 190              	.L8:
  95:../Firmware/GD32VW55x_standard_peripheral/Source/gd32vw55x_syscfg.c ****     }
  96:../Firmware/GD32VW55x_standard_peripheral/Source/gd32vw55x_syscfg.c **** }
 191              		.loc 1 96 1
 192 0144 0100     		nop
 193 0146 3254     		lw	s0,44(sp)
 194              		.cfi_restore 8
 195              		.cfi_def_cfa 2, 48
 196 0148 4561     		addi	sp,sp,48
 197              		.cfi_def_cfa_offset 0
 198 014a 8280     		jr	ra
 199              		.cfi_endproc
 200              	.LFE348:
 202              		.section	.text.syscfg_io_compensation_enable,"ax",@progbits
 203              		.align	1
 204              		.globl	syscfg_io_compensation_enable
 206              	syscfg_io_compensation_enable:
 207              	.LFB349:
  97:../Firmware/GD32VW55x_standard_peripheral/Source/gd32vw55x_syscfg.c **** 
  98:../Firmware/GD32VW55x_standard_peripheral/Source/gd32vw55x_syscfg.c **** /*!
  99:../Firmware/GD32VW55x_standard_peripheral/Source/gd32vw55x_syscfg.c ****     \brief      enable I/O compensation cell
 100:../Firmware/GD32VW55x_standard_peripheral/Source/gd32vw55x_syscfg.c ****     \param[in]  none
 101:../Firmware/GD32VW55x_standard_peripheral/Source/gd32vw55x_syscfg.c ****     \param[out] none
 102:../Firmware/GD32VW55x_standard_peripheral/Source/gd32vw55x_syscfg.c ****     \retval     none
 103:../Firmware/GD32VW55x_standard_peripheral/Source/gd32vw55x_syscfg.c **** */
 104:../Firmware/GD32VW55x_standard_peripheral/Source/gd32vw55x_syscfg.c **** void syscfg_io_compensation_enable(void)
 105:../Firmware/GD32VW55x_standard_peripheral/Source/gd32vw55x_syscfg.c **** {
 208              		.loc 1 105 1
 209              		.cfi_startproc
 210 0000 4111     		addi	sp,sp,-16
 211              		.cfi_def_cfa_offset 16
 212 0002 22C6     		sw	s0,12(sp)
 213              		.cfi_offset 8, -4
 214 0004 0008     		addi	s0,sp,16
 215              		.cfi_def_cfa 8, 0
 106:../Firmware/GD32VW55x_standard_peripheral/Source/gd32vw55x_syscfg.c ****     SYSCFG_CPSCTL |= SYSCFG_CPSCTL_CPS_EN;
 216              		.loc 1 106 19
 217 0006 B7470140 		li	a5,1073823744
 218 000a 93870782 		addi	a5,a5,-2016
 219 000e 9843     		lw	a4,0(a5)
 220 0010 B7470140 		li	a5,1073823744
 221 0014 93870782 		addi	a5,a5,-2016
 222 0018 13671700 		ori	a4,a4,1
 223 001c 98C3     		sw	a4,0(a5)
 107:../Firmware/GD32VW55x_standard_peripheral/Source/gd32vw55x_syscfg.c **** }
 224              		.loc 1 107 1
 225 001e 0100     		nop
 226 0020 3244     		lw	s0,12(sp)
 227              		.cfi_restore 8
 228              		.cfi_def_cfa 2, 16
 229 0022 4101     		addi	sp,sp,16
 230              		.cfi_def_cfa_offset 0
 231 0024 8280     		jr	ra
 232              		.cfi_endproc
 233              	.LFE349:
 235              		.section	.text.syscfg_io_compensation_disable,"ax",@progbits
 236              		.align	1
 237              		.globl	syscfg_io_compensation_disable
 239              	syscfg_io_compensation_disable:
 240              	.LFB350:
 108:../Firmware/GD32VW55x_standard_peripheral/Source/gd32vw55x_syscfg.c **** 
 109:../Firmware/GD32VW55x_standard_peripheral/Source/gd32vw55x_syscfg.c **** /*!
 110:../Firmware/GD32VW55x_standard_peripheral/Source/gd32vw55x_syscfg.c ****     \brief      disable I/O compensation cell
 111:../Firmware/GD32VW55x_standard_peripheral/Source/gd32vw55x_syscfg.c ****     \param[in]  none
 112:../Firmware/GD32VW55x_standard_peripheral/Source/gd32vw55x_syscfg.c ****     \param[out] none
 113:../Firmware/GD32VW55x_standard_peripheral/Source/gd32vw55x_syscfg.c ****     \retval     none
 114:../Firmware/GD32VW55x_standard_peripheral/Source/gd32vw55x_syscfg.c **** */
 115:../Firmware/GD32VW55x_standard_peripheral/Source/gd32vw55x_syscfg.c **** void syscfg_io_compensation_disable(void)
 116:../Firmware/GD32VW55x_standard_peripheral/Source/gd32vw55x_syscfg.c **** {
 241              		.loc 1 116 1
 242              		.cfi_startproc
 243 0000 4111     		addi	sp,sp,-16
 244              		.cfi_def_cfa_offset 16
 245 0002 22C6     		sw	s0,12(sp)
 246              		.cfi_offset 8, -4
 247 0004 0008     		addi	s0,sp,16
 248              		.cfi_def_cfa 8, 0
 117:../Firmware/GD32VW55x_standard_peripheral/Source/gd32vw55x_syscfg.c ****     SYSCFG_CPSCTL &= ~(SYSCFG_CPSCTL_CPS_EN);
 249              		.loc 1 117 19
 250 0006 B7470140 		li	a5,1073823744
 251 000a 93870782 		addi	a5,a5,-2016
 252 000e 9843     		lw	a4,0(a5)
 253 0010 B7470140 		li	a5,1073823744
 254 0014 93870782 		addi	a5,a5,-2016
 255 0018 799B     		andi	a4,a4,-2
 256 001a 98C3     		sw	a4,0(a5)
 118:../Firmware/GD32VW55x_standard_peripheral/Source/gd32vw55x_syscfg.c **** }
 257              		.loc 1 118 1
 258 001c 0100     		nop
 259 001e 3244     		lw	s0,12(sp)
 260              		.cfi_restore 8
 261              		.cfi_def_cfa 2, 16
 262 0020 4101     		addi	sp,sp,16
 263              		.cfi_def_cfa_offset 0
 264 0022 8280     		jr	ra
 265              		.cfi_endproc
 266              	.LFE350:
 268              		.section	.text.syscfg_lock_config,"ax",@progbits
 269              		.align	1
 270              		.globl	syscfg_lock_config
 272              	syscfg_lock_config:
 273              	.LFB351:
 119:../Firmware/GD32VW55x_standard_peripheral/Source/gd32vw55x_syscfg.c **** 
 120:../Firmware/GD32VW55x_standard_peripheral/Source/gd32vw55x_syscfg.c **** /*!
 121:../Firmware/GD32VW55x_standard_peripheral/Source/gd32vw55x_syscfg.c ****     \brief      connect TIMER0/15/16 break input to the selected parameter
 122:../Firmware/GD32VW55x_standard_peripheral/Source/gd32vw55x_syscfg.c ****     \param[in]  none
 123:../Firmware/GD32VW55x_standard_peripheral/Source/gd32vw55x_syscfg.c ****     \param[out] none
 124:../Firmware/GD32VW55x_standard_peripheral/Source/gd32vw55x_syscfg.c ****     \retval     none
 125:../Firmware/GD32VW55x_standard_peripheral/Source/gd32vw55x_syscfg.c **** */
 126:../Firmware/GD32VW55x_standard_peripheral/Source/gd32vw55x_syscfg.c **** void syscfg_lock_config(void)
 127:../Firmware/GD32VW55x_standard_peripheral/Source/gd32vw55x_syscfg.c **** {
 274              		.loc 1 127 1
 275              		.cfi_startproc
 276 0000 4111     		addi	sp,sp,-16
 277              		.cfi_def_cfa_offset 16
 278 0002 22C6     		sw	s0,12(sp)
 279              		.cfi_offset 8, -4
 280 0004 0008     		addi	s0,sp,16
 281              		.cfi_def_cfa 8, 0
 128:../Firmware/GD32VW55x_standard_peripheral/Source/gd32vw55x_syscfg.c ****     SYSCFG_CFG1 |= SYSCFG_LOCK_LVD;
 282              		.loc 1 128 17
 283 0006 B7470140 		li	a5,1073823744
 284 000a 93874785 		addi	a5,a5,-1964
 285 000e 9843     		lw	a4,0(a5)
 286 0010 B7470140 		li	a5,1073823744
 287 0014 93874785 		addi	a5,a5,-1964
 288 0018 13674700 		ori	a4,a4,4
 289 001c 98C3     		sw	a4,0(a5)
 129:../Firmware/GD32VW55x_standard_peripheral/Source/gd32vw55x_syscfg.c **** }
 290              		.loc 1 129 1
 291 001e 0100     		nop
 292 0020 3244     		lw	s0,12(sp)
 293              		.cfi_restore 8
 294              		.cfi_def_cfa 2, 16
 295 0022 4101     		addi	sp,sp,16
 296              		.cfi_def_cfa_offset 0
 297 0024 8280     		jr	ra
 298              		.cfi_endproc
 299              	.LFE351:
 301              		.section	.text.syscfg_io_compensation_ready_flag_get,"ax",@progbits
 302              		.align	1
 303              		.globl	syscfg_io_compensation_ready_flag_get
 305              	syscfg_io_compensation_ready_flag_get:
 306              	.LFB352:
 130:../Firmware/GD32VW55x_standard_peripheral/Source/gd32vw55x_syscfg.c **** 
 131:../Firmware/GD32VW55x_standard_peripheral/Source/gd32vw55x_syscfg.c **** /*!
 132:../Firmware/GD32VW55x_standard_peripheral/Source/gd32vw55x_syscfg.c ****     \brief      get the compensation ready flag
 133:../Firmware/GD32VW55x_standard_peripheral/Source/gd32vw55x_syscfg.c ****     \param[in]  none
 134:../Firmware/GD32VW55x_standard_peripheral/Source/gd32vw55x_syscfg.c ****     \param[out] none
 135:../Firmware/GD32VW55x_standard_peripheral/Source/gd32vw55x_syscfg.c ****     \retval     FlagStatus: status of flag (RESET or SET)
 136:../Firmware/GD32VW55x_standard_peripheral/Source/gd32vw55x_syscfg.c **** */
 137:../Firmware/GD32VW55x_standard_peripheral/Source/gd32vw55x_syscfg.c **** FlagStatus syscfg_io_compensation_ready_flag_get(void)
 138:../Firmware/GD32VW55x_standard_peripheral/Source/gd32vw55x_syscfg.c **** {
 307              		.loc 1 138 1
 308              		.cfi_startproc
 309 0000 4111     		addi	sp,sp,-16
 310              		.cfi_def_cfa_offset 16
 311 0002 22C6     		sw	s0,12(sp)
 312              		.cfi_offset 8, -4
 313 0004 0008     		addi	s0,sp,16
 314              		.cfi_def_cfa 8, 0
 139:../Firmware/GD32VW55x_standard_peripheral/Source/gd32vw55x_syscfg.c ****     if(RESET != (SYSCFG_CPSCTL & SYSCFG_CPSCTL_CPS_RDY)){
 315              		.loc 1 139 18
 316 0006 B7470140 		li	a5,1073823744
 317 000a 93870782 		addi	a5,a5,-2016
 318 000e 9C43     		lw	a5,0(a5)
 319              		.loc 1 139 32
 320 0010 93F70710 		andi	a5,a5,256
 321              		.loc 1 139 7
 322 0014 99C3     		beq	a5,zero,.L14
 140:../Firmware/GD32VW55x_standard_peripheral/Source/gd32vw55x_syscfg.c ****         return SET;
 323              		.loc 1 140 16
 324 0016 8547     		li	a5,1
 325 0018 11A0     		j	.L15
 326              	.L14:
 141:../Firmware/GD32VW55x_standard_peripheral/Source/gd32vw55x_syscfg.c ****     }
 142:../Firmware/GD32VW55x_standard_peripheral/Source/gd32vw55x_syscfg.c ****     return RESET;
 327              		.loc 1 142 12
 328 001a 8147     		li	a5,0
 329              	.L15:
 143:../Firmware/GD32VW55x_standard_peripheral/Source/gd32vw55x_syscfg.c **** }
 330              		.loc 1 143 1
 331 001c 3E85     		mv	a0,a5
 332 001e 3244     		lw	s0,12(sp)
 333              		.cfi_restore 8
 334              		.cfi_def_cfa 2, 16
 335 0020 4101     		addi	sp,sp,16
 336              		.cfi_def_cfa_offset 0
 337 0022 8280     		jr	ra
 338              		.cfi_endproc
 339              	.LFE352:
 341              		.section	.text.syscfg_sram_ownership_config,"ax",@progbits
 342              		.align	1
 343              		.globl	syscfg_sram_ownership_config
 345              	syscfg_sram_ownership_config:
 346              	.LFB353:
 144:../Firmware/GD32VW55x_standard_peripheral/Source/gd32vw55x_syscfg.c **** 
 145:../Firmware/GD32VW55x_standard_peripheral/Source/gd32vw55x_syscfg.c **** /*!
 146:../Firmware/GD32VW55x_standard_peripheral/Source/gd32vw55x_syscfg.c ****     \brief      configure the ownership of the shared 32k SRAM
 147:../Firmware/GD32VW55x_standard_peripheral/Source/gd32vw55x_syscfg.c ****     \param[in]  sram_owner: the ownership of the shared SRAM
 148:../Firmware/GD32VW55x_standard_peripheral/Source/gd32vw55x_syscfg.c ****                 only one parameter can be selected which is shown as below:
 149:../Firmware/GD32VW55x_standard_peripheral/Source/gd32vw55x_syscfg.c ****       \arg        SRAMEN_WIRELESS: wireless
 150:../Firmware/GD32VW55x_standard_peripheral/Source/gd32vw55x_syscfg.c ****       \arg        SRAMEN_CORE: core
 151:../Firmware/GD32VW55x_standard_peripheral/Source/gd32vw55x_syscfg.c ****     \param[out] none
 152:../Firmware/GD32VW55x_standard_peripheral/Source/gd32vw55x_syscfg.c ****     \retval     none
 153:../Firmware/GD32VW55x_standard_peripheral/Source/gd32vw55x_syscfg.c **** */
 154:../Firmware/GD32VW55x_standard_peripheral/Source/gd32vw55x_syscfg.c **** void syscfg_sram_ownership_config(uint32_t sram_owner)
 155:../Firmware/GD32VW55x_standard_peripheral/Source/gd32vw55x_syscfg.c **** {
 347              		.loc 1 155 1
 348              		.cfi_startproc
 349 0000 0111     		addi	sp,sp,-32
 350              		.cfi_def_cfa_offset 32
 351 0002 22CE     		sw	s0,28(sp)
 352              		.cfi_offset 8, -4
 353 0004 0010     		addi	s0,sp,32
 354              		.cfi_def_cfa 8, 0
 355 0006 2326A4FE 		sw	a0,-20(s0)
 156:../Firmware/GD32VW55x_standard_peripheral/Source/gd32vw55x_syscfg.c ****     if(SRAMEN_WIRELESS == sram_owner){
 356              		.loc 1 156 7
 357 000a 8327C4FE 		lw	a5,-20(s0)
 358 000e 89EF     		bne	a5,zero,.L17
 157:../Firmware/GD32VW55x_standard_peripheral/Source/gd32vw55x_syscfg.c ****         SYSCFG_SCFG &= ~SYSCFG_SCFG_SOWNSEL;
 359              		.loc 1 157 21
 360 0010 B7470140 		li	a5,1073823744
 361 0014 93878786 		addi	a5,a5,-1944
 362 0018 9843     		lw	a4,0(a5)
 363 001a B7470140 		li	a5,1073823744
 364 001e 93878786 		addi	a5,a5,-1944
 365 0022 799B     		andi	a4,a4,-2
 366 0024 98C3     		sw	a4,0(a5)
 158:../Firmware/GD32VW55x_standard_peripheral/Source/gd32vw55x_syscfg.c ****     }else{
 159:../Firmware/GD32VW55x_standard_peripheral/Source/gd32vw55x_syscfg.c ****         SYSCFG_SCFG |= SRAMEN_CORE;
 160:../Firmware/GD32VW55x_standard_peripheral/Source/gd32vw55x_syscfg.c ****     }
 161:../Firmware/GD32VW55x_standard_peripheral/Source/gd32vw55x_syscfg.c **** }
 367              		.loc 1 161 1
 368 0026 29A8     		j	.L19
 369              	.L17:
 159:../Firmware/GD32VW55x_standard_peripheral/Source/gd32vw55x_syscfg.c ****     }
 370              		.loc 1 159 21
 371 0028 B7470140 		li	a5,1073823744
 372 002c 93878786 		addi	a5,a5,-1944
 373 0030 9843     		lw	a4,0(a5)
 374 0032 B7470140 		li	a5,1073823744
 375 0036 93878786 		addi	a5,a5,-1944
 376 003a 13671700 		ori	a4,a4,1
 377 003e 98C3     		sw	a4,0(a5)
 378              	.L19:
 379              		.loc 1 161 1
 380 0040 0100     		nop
 381 0042 7244     		lw	s0,28(sp)
 382              		.cfi_restore 8
 383              		.cfi_def_cfa 2, 32
 384 0044 0561     		addi	sp,sp,32
 385              		.cfi_def_cfa_offset 0
 386 0046 8280     		jr	ra
 387              		.cfi_endproc
 388              	.LFE353:
 390              		.section	.text.syscfg_boot_mode_get,"ax",@progbits
 391              		.align	1
 392              		.globl	syscfg_boot_mode_get
 394              	syscfg_boot_mode_get:
 395              	.LFB354:
 162:../Firmware/GD32VW55x_standard_peripheral/Source/gd32vw55x_syscfg.c **** 
 163:../Firmware/GD32VW55x_standard_peripheral/Source/gd32vw55x_syscfg.c **** /*!
 164:../Firmware/GD32VW55x_standard_peripheral/Source/gd32vw55x_syscfg.c ****     \brief      get code start mode
 165:../Firmware/GD32VW55x_standard_peripheral/Source/gd32vw55x_syscfg.c ****     \param[in]  none
 166:../Firmware/GD32VW55x_standard_peripheral/Source/gd32vw55x_syscfg.c ****     \param[out] none
 167:../Firmware/GD32VW55x_standard_peripheral/Source/gd32vw55x_syscfg.c ****     \retval     syscfg_code_start_enum: code start mode (FLASH_START or SRAM_START or SYSTEM_START)
 168:../Firmware/GD32VW55x_standard_peripheral/Source/gd32vw55x_syscfg.c **** */
 169:../Firmware/GD32VW55x_standard_peripheral/Source/gd32vw55x_syscfg.c **** syscfg_code_start_enum syscfg_boot_mode_get(void)
 170:../Firmware/GD32VW55x_standard_peripheral/Source/gd32vw55x_syscfg.c **** {
 396              		.loc 1 170 1
 397              		.cfi_startproc
 398 0000 0111     		addi	sp,sp,-32
 399              		.cfi_def_cfa_offset 32
 400 0002 22CE     		sw	s0,28(sp)
 401              		.cfi_offset 8, -4
 402 0004 0010     		addi	s0,sp,32
 403              		.cfi_def_cfa 8, 0
 171:../Firmware/GD32VW55x_standard_peripheral/Source/gd32vw55x_syscfg.c ****     syscfg_code_start_enum mode;
 172:../Firmware/GD32VW55x_standard_peripheral/Source/gd32vw55x_syscfg.c ****     if(0x03U == SYSCFG_CFG0){
 404              		.loc 1 172 17
 405 0006 B7470140 		li	a5,1073823744
 406 000a 93870780 		addi	a5,a5,-2048
 407 000e 9843     		lw	a4,0(a5)
 408              		.loc 1 172 7
 409 0010 8D47     		li	a5,3
 410 0012 6316F700 		bne	a4,a5,.L21
 173:../Firmware/GD32VW55x_standard_peripheral/Source/gd32vw55x_syscfg.c ****         mode = SRAM_START;
 411              		.loc 1 173 14
 412 0016 8547     		li	a5,1
 413 0018 2326F4FE 		sw	a5,-20(s0)
 414 001c 39A8     		j	.L22
 415              	.L21:
 174:../Firmware/GD32VW55x_standard_peripheral/Source/gd32vw55x_syscfg.c ****     }else if(0x01==SYSCFG_CFG0){
 416              		.loc 1 174 20
 417 001e B7470140 		li	a5,1073823744
 418 0022 93870780 		addi	a5,a5,-2048
 419 0026 9843     		lw	a4,0(a5)
 420              		.loc 1 174 13
 421 0028 8547     		li	a5,1
 422 002a 6316F700 		bne	a4,a5,.L23
 175:../Firmware/GD32VW55x_standard_peripheral/Source/gd32vw55x_syscfg.c ****         mode = SYSTEM_START;
 423              		.loc 1 175 14
 424 002e 8947     		li	a5,2
 425 0030 2326F4FE 		sw	a5,-20(s0)
 426 0034 19A0     		j	.L22
 427              	.L23:
 176:../Firmware/GD32VW55x_standard_peripheral/Source/gd32vw55x_syscfg.c ****     }else{
 177:../Firmware/GD32VW55x_standard_peripheral/Source/gd32vw55x_syscfg.c ****         mode = FLASH_START;
 428              		.loc 1 177 14
 429 0036 232604FE 		sw	zero,-20(s0)
 430              	.L22:
 178:../Firmware/GD32VW55x_standard_peripheral/Source/gd32vw55x_syscfg.c ****     }
 179:../Firmware/GD32VW55x_standard_peripheral/Source/gd32vw55x_syscfg.c ****     return mode;
 431              		.loc 1 179 12
 432 003a 8327C4FE 		lw	a5,-20(s0)
 180:../Firmware/GD32VW55x_standard_peripheral/Source/gd32vw55x_syscfg.c **** }
 433              		.loc 1 180 1
 434 003e 3E85     		mv	a0,a5
 435 0040 7244     		lw	s0,28(sp)
 436              		.cfi_restore 8
 437              		.cfi_def_cfa 2, 32
 438 0042 0561     		addi	sp,sp,32
 439              		.cfi_def_cfa_offset 0
 440 0044 8280     		jr	ra
 441              		.cfi_endproc
 442              	.LFE354:
 444              		.text
 445              	.Letext0:
 446              		.file 2 "e:\\gd32\\gd32embeddedbuilder_v1.5.2.30854\\tools\\nuclei_riscv_newlibc_prebuilt_win32_20
 447              		.file 3 "e:\\gd32\\gd32embeddedbuilder_v1.5.2.30854\\tools\\nuclei_riscv_newlibc_prebuilt_win32_20
 448              		.file 4 "../Firmware/GD32VW55x_standard_peripheral/gd32vw55x.h"
 449              		.file 5 "../Firmware/GD32VW55x_standard_peripheral/Include/gd32vw55x_rcu.h"
 450              		.file 6 "../Firmware/GD32VW55x_standard_peripheral/Include/gd32vw55x_syscfg.h"