   1              		.file	"gd32vw55x_hau.c"
   2              		.option nopic
   3              		.attribute arch, "rv32i2p0_m2p0_a2p0_c2p0"
   4              		.attribute unaligned_access, 0
   5              		.attribute stack_align, 16
   6              		.text
   7              	.Ltext0:
   8              		.cfi_sections	.debug_frame
   9              		.section	.text.hau_deinit,"ax",@progbits
  10              		.align	1
  11              		.globl	hau_deinit
  13              	hau_deinit:
  14              	.LFB347:
  15              		.file 1 "../Firmware/GD32VW55x_standard_peripheral/Source/gd32vw55x_hau.c"
   1:../Firmware/GD32VW55x_standard_peripheral/Source/gd32vw55x_hau.c **** /*!
   2:../Firmware/GD32VW55x_standard_peripheral/Source/gd32vw55x_hau.c ****     \file    gd32vw55x_hau.c
   3:../Firmware/GD32VW55x_standard_peripheral/Source/gd32vw55x_hau.c ****     \brief   HAU driver
   4:../Firmware/GD32VW55x_standard_peripheral/Source/gd32vw55x_hau.c **** 
   5:../Firmware/GD32VW55x_standard_peripheral/Source/gd32vw55x_hau.c ****     \version 2025-01-16, V1.4.0, firmware for GD32VW55x
   6:../Firmware/GD32VW55x_standard_peripheral/Source/gd32vw55x_hau.c **** */
   7:../Firmware/GD32VW55x_standard_peripheral/Source/gd32vw55x_hau.c **** 
   8:../Firmware/GD32VW55x_standard_peripheral/Source/gd32vw55x_hau.c **** /*
   9:../Firmware/GD32VW55x_standard_peripheral/Source/gd32vw55x_hau.c ****     Copyright (c) 2025, GigaDevice Semiconductor Inc.
  10:../Firmware/GD32VW55x_standard_peripheral/Source/gd32vw55x_hau.c **** 
  11:../Firmware/GD32VW55x_standard_peripheral/Source/gd32vw55x_hau.c ****     Redistribution and use in source and binary forms, with or without modification,
  12:../Firmware/GD32VW55x_standard_peripheral/Source/gd32vw55x_hau.c **** are permitted provided that the following conditions are met:
  13:../Firmware/GD32VW55x_standard_peripheral/Source/gd32vw55x_hau.c **** 
  14:../Firmware/GD32VW55x_standard_peripheral/Source/gd32vw55x_hau.c ****     1. Redistributions of source code must retain the above copyright notice, this
  15:../Firmware/GD32VW55x_standard_peripheral/Source/gd32vw55x_hau.c ****        list of conditions and the following disclaimer.
  16:../Firmware/GD32VW55x_standard_peripheral/Source/gd32vw55x_hau.c ****     2. Redistributions in binary form must reproduce the above copyright notice,
  17:../Firmware/GD32VW55x_standard_peripheral/Source/gd32vw55x_hau.c ****        this list of conditions and the following disclaimer in the documentation
  18:../Firmware/GD32VW55x_standard_peripheral/Source/gd32vw55x_hau.c ****        and/or other materials provided with the distribution.
  19:../Firmware/GD32VW55x_standard_peripheral/Source/gd32vw55x_hau.c ****     3. Neither the name of the copyright holder nor the names of its contributors
  20:../Firmware/GD32VW55x_standard_peripheral/Source/gd32vw55x_hau.c ****        may be used to endorse or promote products derived from this software without
  21:../Firmware/GD32VW55x_standard_peripheral/Source/gd32vw55x_hau.c ****        specific prior written permission.
  22:../Firmware/GD32VW55x_standard_peripheral/Source/gd32vw55x_hau.c **** 
  23:../Firmware/GD32VW55x_standard_peripheral/Source/gd32vw55x_hau.c ****     THIS SOFTWARE IS PROVIDED BY THE COPYRIGHT HOLDERS AND CONTRIBUTORS "AS IS"
  24:../Firmware/GD32VW55x_standard_peripheral/Source/gd32vw55x_hau.c **** AND ANY EXPRESS OR IMPLIED WARRANTIES, INCLUDING, BUT NOT LIMITED TO, THE IMPLIED
  25:../Firmware/GD32VW55x_standard_peripheral/Source/gd32vw55x_hau.c **** WARRANTIES OF MERCHANTABILITY AND FITNESS FOR A PARTICULAR PURPOSE ARE DISCLAIMED.
  26:../Firmware/GD32VW55x_standard_peripheral/Source/gd32vw55x_hau.c **** IN NO EVENT SHALL THE COPYRIGHT HOLDER OR CONTRIBUTORS BE LIABLE FOR ANY DIRECT,
  27:../Firmware/GD32VW55x_standard_peripheral/Source/gd32vw55x_hau.c **** INDIRECT, INCIDENTAL, SPECIAL, EXEMPLARY, OR CONSEQUENTIAL DAMAGES (INCLUDING, BUT
  28:../Firmware/GD32VW55x_standard_peripheral/Source/gd32vw55x_hau.c **** NOT LIMITED TO, PROCUREMENT OF SUBSTITUTE GOODS OR SERVICES; LOSS OF USE, DATA, OR
  29:../Firmware/GD32VW55x_standard_peripheral/Source/gd32vw55x_hau.c **** PROFITS; OR BUSINESS INTERRUPTION) HOWEVER CAUSED AND ON ANY THEORY OF LIABILITY,
  30:../Firmware/GD32VW55x_standard_peripheral/Source/gd32vw55x_hau.c **** WHETHER IN CONTRACT, STRICT LIABILITY, OR TORT (INCLUDING NEGLIGENCE OR OTHERWISE)
  31:../Firmware/GD32VW55x_standard_peripheral/Source/gd32vw55x_hau.c **** ARISING IN ANY WAY OUT OF THE USE OF THIS SOFTWARE, EVEN IF ADVISED OF THE POSSIBILITY
  32:../Firmware/GD32VW55x_standard_peripheral/Source/gd32vw55x_hau.c **** OF SUCH DAMAGE.
  33:../Firmware/GD32VW55x_standard_peripheral/Source/gd32vw55x_hau.c **** */
  34:../Firmware/GD32VW55x_standard_peripheral/Source/gd32vw55x_hau.c **** 
  35:../Firmware/GD32VW55x_standard_peripheral/Source/gd32vw55x_hau.c **** #include "gd32vw55x_hau.h"
  36:../Firmware/GD32VW55x_standard_peripheral/Source/gd32vw55x_hau.c **** 
  37:../Firmware/GD32VW55x_standard_peripheral/Source/gd32vw55x_hau.c **** #define HASH_CONTEXT_INTERNAL_REG     37U
  38:../Firmware/GD32VW55x_standard_peripheral/Source/gd32vw55x_hau.c **** #define HMAC_CONTEXT_INTERNAL_REG     53U
  39:../Firmware/GD32VW55x_standard_peripheral/Source/gd32vw55x_hau.c **** 
  40:../Firmware/GD32VW55x_standard_peripheral/Source/gd32vw55x_hau.c **** /*!
  41:../Firmware/GD32VW55x_standard_peripheral/Source/gd32vw55x_hau.c ****     \brief      reset the HAU peripheral
  42:../Firmware/GD32VW55x_standard_peripheral/Source/gd32vw55x_hau.c ****     \param[in]  none
  43:../Firmware/GD32VW55x_standard_peripheral/Source/gd32vw55x_hau.c ****     \param[out] none
  44:../Firmware/GD32VW55x_standard_peripheral/Source/gd32vw55x_hau.c ****     \retval     none
  45:../Firmware/GD32VW55x_standard_peripheral/Source/gd32vw55x_hau.c **** */
  46:../Firmware/GD32VW55x_standard_peripheral/Source/gd32vw55x_hau.c **** void hau_deinit(void)
  47:../Firmware/GD32VW55x_standard_peripheral/Source/gd32vw55x_hau.c **** {
  16              		.loc 1 47 1
  17              		.cfi_startproc
  18 0000 4111     		addi	sp,sp,-16
  19              		.cfi_def_cfa_offset 16
  20 0002 06C6     		sw	ra,12(sp)
  21 0004 22C4     		sw	s0,8(sp)
  22              		.cfi_offset 1, -4
  23              		.cfi_offset 8, -8
  24 0006 0008     		addi	s0,sp,16
  25              		.cfi_def_cfa 8, 0
  48:../Firmware/GD32VW55x_standard_peripheral/Source/gd32vw55x_hau.c ****     /* enable HAU reset state */
  49:../Firmware/GD32VW55x_standard_peripheral/Source/gd32vw55x_hau.c ****     rcu_periph_reset_enable(RCU_HAURST);
  26              		.loc 1 49 5
  27 0008 13055050 		li	a0,1285
  28 000c 97000000 		call	rcu_periph_reset_enable
  28      E7800000 
  50:../Firmware/GD32VW55x_standard_peripheral/Source/gd32vw55x_hau.c ****     /* release HAU from reset state */
  51:../Firmware/GD32VW55x_standard_peripheral/Source/gd32vw55x_hau.c ****     rcu_periph_reset_disable(RCU_HAURST);
  29              		.loc 1 51 5
  30 0014 13055050 		li	a0,1285
  31 0018 97000000 		call	rcu_periph_reset_disable
  31      E7800000 
  52:../Firmware/GD32VW55x_standard_peripheral/Source/gd32vw55x_hau.c **** }
  32              		.loc 1 52 1
  33 0020 0100     		nop
  34 0022 B240     		lw	ra,12(sp)
  35              		.cfi_restore 1
  36 0024 2244     		lw	s0,8(sp)
  37              		.cfi_restore 8
  38              		.cfi_def_cfa 2, 16
  39 0026 4101     		addi	sp,sp,16
  40              		.cfi_def_cfa_offset 0
  41 0028 8280     		jr	ra
  42              		.cfi_endproc
  43              	.LFE347:
  45              		.section	.text.hau_init,"ax",@progbits
  46              		.align	1
  47              		.globl	hau_init
  49              	hau_init:
  50              	.LFB348:
  53:../Firmware/GD32VW55x_standard_peripheral/Source/gd32vw55x_hau.c **** 
  54:../Firmware/GD32VW55x_standard_peripheral/Source/gd32vw55x_hau.c **** /*!
  55:../Firmware/GD32VW55x_standard_peripheral/Source/gd32vw55x_hau.c ****     \brief      initialize the HAU peripheral parameters
  56:../Firmware/GD32VW55x_standard_peripheral/Source/gd32vw55x_hau.c ****     \param[in]  none
  57:../Firmware/GD32VW55x_standard_peripheral/Source/gd32vw55x_hau.c ****     \param[out] initpara: HAU init parameter struct
  58:../Firmware/GD32VW55x_standard_peripheral/Source/gd32vw55x_hau.c ****                 members of the structure and the member values are shown as below:
  59:../Firmware/GD32VW55x_standard_peripheral/Source/gd32vw55x_hau.c ****                   algo: HAU_ALGO_SHA1, HAU_ALGO_SHA224, HAU_ALGO_SHA256, HAU_ALGO_MD5
  60:../Firmware/GD32VW55x_standard_peripheral/Source/gd32vw55x_hau.c ****                   mode: HAU_MODE_HASH, HAU_MODE_HMAC
  61:../Firmware/GD32VW55x_standard_peripheral/Source/gd32vw55x_hau.c ****                   datatype: HAU_SWAPPING_32BIT, HAU_SWAPPING_16BIT, HAU_SWAPPING_8BIT, HAU_SWAPPING
  62:../Firmware/GD32VW55x_standard_peripheral/Source/gd32vw55x_hau.c ****                   keytype: HAU_KEY_SHORTER_64, HAU_KEY_LONGGER_64
  63:../Firmware/GD32VW55x_standard_peripheral/Source/gd32vw55x_hau.c ****     \retval     none
  64:../Firmware/GD32VW55x_standard_peripheral/Source/gd32vw55x_hau.c **** */
  65:../Firmware/GD32VW55x_standard_peripheral/Source/gd32vw55x_hau.c **** void hau_init(hau_init_parameter_struct* initpara)
  66:../Firmware/GD32VW55x_standard_peripheral/Source/gd32vw55x_hau.c **** {
  51              		.loc 1 66 1
  52              		.cfi_startproc
  53 0000 0111     		addi	sp,sp,-32
  54              		.cfi_def_cfa_offset 32
  55 0002 22CE     		sw	s0,28(sp)
  56              		.cfi_offset 8, -4
  57 0004 0010     		addi	s0,sp,32
  58              		.cfi_def_cfa 8, 0
  59 0006 2326A4FE 		sw	a0,-20(s0)
  67:../Firmware/GD32VW55x_standard_peripheral/Source/gd32vw55x_hau.c ****     /* configure the algorithm, mode and the data type */
  68:../Firmware/GD32VW55x_standard_peripheral/Source/gd32vw55x_hau.c ****     HAU_CTL &= (~(uint32_t)(HAU_CTL_ALGM_0 | HAU_CTL_ALGM_1 | HAU_CTL_DATAM | HAU_CTL_HMS));
  60              		.loc 1 68 13
  61 000a B707064C 		li	a5,1275461632
  62 000e 93870740 		addi	a5,a5,1024
  63 0012 9443     		lw	a3,0(a5)
  64 0014 B707064C 		li	a5,1275461632
  65 0018 93870740 		addi	a5,a5,1024
  66 001c 3707FCFF 		li	a4,-262144
  67 0020 1307F7F0 		addi	a4,a4,-241
  68 0024 758F     		and	a4,a3,a4
  69 0026 98C3     		sw	a4,0(a5)
  69:../Firmware/GD32VW55x_standard_peripheral/Source/gd32vw55x_hau.c ****     HAU_CTL |= (initpara->algo | initpara->datatype | initpara->mode);
  70              		.loc 1 69 13
  71 0028 B707064C 		li	a5,1275461632
  72 002c 93870740 		addi	a5,a5,1024
  73 0030 9443     		lw	a3,0(a5)
  74              		.loc 1 69 25
  75 0032 8327C4FE 		lw	a5,-20(s0)
  76 0036 9843     		lw	a4,0(a5)
  77              		.loc 1 69 42
  78 0038 8327C4FE 		lw	a5,-20(s0)
  79 003c 9C47     		lw	a5,8(a5)
  80              		.loc 1 69 32
  81 003e 5D8F     		or	a4,a4,a5
  82              		.loc 1 69 63
  83 0040 8327C4FE 		lw	a5,-20(s0)
  84 0044 DC43     		lw	a5,4(a5)
  85              		.loc 1 69 53
  86 0046 5D8F     		or	a4,a4,a5
  87              		.loc 1 69 13
  88 0048 B707064C 		li	a5,1275461632
  89 004c 93870740 		addi	a5,a5,1024
  90 0050 558F     		or	a4,a3,a4
  91 0052 98C3     		sw	a4,0(a5)
  70:../Firmware/GD32VW55x_standard_peripheral/Source/gd32vw55x_hau.c **** 
  71:../Firmware/GD32VW55x_standard_peripheral/Source/gd32vw55x_hau.c ****     /* when mode is HMAC, set the key */
  72:../Firmware/GD32VW55x_standard_peripheral/Source/gd32vw55x_hau.c ****     if(HAU_MODE_HMAC == initpara->mode){
  92              		.loc 1 72 33
  93 0054 8327C4FE 		lw	a5,-20(s0)
  94 0058 D843     		lw	a4,4(a5)
  95              		.loc 1 72 7
  96 005a 93070004 		li	a5,64
  97 005e 631DF702 		bne	a4,a5,.L3
  73:../Firmware/GD32VW55x_standard_peripheral/Source/gd32vw55x_hau.c ****         HAU_CTL &= (~(uint32_t)(HAU_CTL_KLM));
  98              		.loc 1 73 17
  99 0062 B707064C 		li	a5,1275461632
 100 0066 93870740 		addi	a5,a5,1024
 101 006a 9443     		lw	a3,0(a5)
 102 006c B707064C 		li	a5,1275461632
 103 0070 93870740 		addi	a5,a5,1024
 104 0074 4177     		li	a4,-65536
 105 0076 7D17     		addi	a4,a4,-1
 106 0078 758F     		and	a4,a3,a4
 107 007a 98C3     		sw	a4,0(a5)
  74:../Firmware/GD32VW55x_standard_peripheral/Source/gd32vw55x_hau.c ****         HAU_CTL |= initpara->keytype;
 108              		.loc 1 74 17
 109 007c B707064C 		li	a5,1275461632
 110 0080 93870740 		addi	a5,a5,1024
 111 0084 9443     		lw	a3,0(a5)
 112              		.loc 1 74 28
 113 0086 8327C4FE 		lw	a5,-20(s0)
 114 008a D847     		lw	a4,12(a5)
 115              		.loc 1 74 17
 116 008c B707064C 		li	a5,1275461632
 117 0090 93870740 		addi	a5,a5,1024
 118 0094 558F     		or	a4,a3,a4
 119 0096 98C3     		sw	a4,0(a5)
 120              	.L3:
  75:../Firmware/GD32VW55x_standard_peripheral/Source/gd32vw55x_hau.c ****     }
  76:../Firmware/GD32VW55x_standard_peripheral/Source/gd32vw55x_hau.c **** 
  77:../Firmware/GD32VW55x_standard_peripheral/Source/gd32vw55x_hau.c ****     /* start the digest of a new message */
  78:../Firmware/GD32VW55x_standard_peripheral/Source/gd32vw55x_hau.c ****     HAU_CTL |= HAU_CTL_START;
 121              		.loc 1 78 13
 122 0098 B707064C 		li	a5,1275461632
 123 009c 93870740 		addi	a5,a5,1024
 124 00a0 9843     		lw	a4,0(a5)
 125 00a2 B707064C 		li	a5,1275461632
 126 00a6 93870740 		addi	a5,a5,1024
 127 00aa 13674700 		ori	a4,a4,4
 128 00ae 98C3     		sw	a4,0(a5)
  79:../Firmware/GD32VW55x_standard_peripheral/Source/gd32vw55x_hau.c **** }
 129              		.loc 1 79 1
 130 00b0 0100     		nop
 131 00b2 7244     		lw	s0,28(sp)
 132              		.cfi_restore 8
 133              		.cfi_def_cfa 2, 32
 134 00b4 0561     		addi	sp,sp,32
 135              		.cfi_def_cfa_offset 0
 136 00b6 8280     		jr	ra
 137              		.cfi_endproc
 138              	.LFE348:
 140              		.section	.text.hau_init_struct_para_init,"ax",@progbits
 141              		.align	1
 142              		.globl	hau_init_struct_para_init
 144              	hau_init_struct_para_init:
 145              	.LFB349:
  80:../Firmware/GD32VW55x_standard_peripheral/Source/gd32vw55x_hau.c **** 
  81:../Firmware/GD32VW55x_standard_peripheral/Source/gd32vw55x_hau.c **** /*!
  82:../Firmware/GD32VW55x_standard_peripheral/Source/gd32vw55x_hau.c ****     \brief      initialize the structure hau_initpara with default value 
  83:../Firmware/GD32VW55x_standard_peripheral/Source/gd32vw55x_hau.c ****     \param[in]  none
  84:../Firmware/GD32VW55x_standard_peripheral/Source/gd32vw55x_hau.c ****     \param[out] initpara: HAU init parameter struct 
  85:../Firmware/GD32VW55x_standard_peripheral/Source/gd32vw55x_hau.c ****     \retval     none
  86:../Firmware/GD32VW55x_standard_peripheral/Source/gd32vw55x_hau.c **** */
  87:../Firmware/GD32VW55x_standard_peripheral/Source/gd32vw55x_hau.c **** void hau_init_struct_para_init(hau_init_parameter_struct* initpara)
  88:../Firmware/GD32VW55x_standard_peripheral/Source/gd32vw55x_hau.c **** {
 146              		.loc 1 88 1
 147              		.cfi_startproc
 148 0000 0111     		addi	sp,sp,-32
 149              		.cfi_def_cfa_offset 32
 150 0002 22CE     		sw	s0,28(sp)
 151              		.cfi_offset 8, -4
 152 0004 0010     		addi	s0,sp,32
 153              		.cfi_def_cfa 8, 0
 154 0006 2326A4FE 		sw	a0,-20(s0)
  89:../Firmware/GD32VW55x_standard_peripheral/Source/gd32vw55x_hau.c ****     initpara->algo = HAU_ALGO_SHA1;
 155              		.loc 1 89 20
 156 000a 8327C4FE 		lw	a5,-20(s0)
 157 000e 23A00700 		sw	zero,0(a5)
  90:../Firmware/GD32VW55x_standard_peripheral/Source/gd32vw55x_hau.c ****     initpara->mode = HAU_MODE_HASH;
 158              		.loc 1 90 20
 159 0012 8327C4FE 		lw	a5,-20(s0)
 160 0016 23A20700 		sw	zero,4(a5)
  91:../Firmware/GD32VW55x_standard_peripheral/Source/gd32vw55x_hau.c ****     initpara->datatype = HAU_SWAPPING_32BIT;
 161              		.loc 1 91 24
 162 001a 8327C4FE 		lw	a5,-20(s0)
 163 001e 23A40700 		sw	zero,8(a5)
  92:../Firmware/GD32VW55x_standard_peripheral/Source/gd32vw55x_hau.c ****     initpara->keytype = HAU_KEY_SHORTER_64;
 164              		.loc 1 92 23
 165 0022 8327C4FE 		lw	a5,-20(s0)
 166 0026 23A60700 		sw	zero,12(a5)
  93:../Firmware/GD32VW55x_standard_peripheral/Source/gd32vw55x_hau.c **** }
 167              		.loc 1 93 1
 168 002a 0100     		nop
 169 002c 7244     		lw	s0,28(sp)
 170              		.cfi_restore 8
 171              		.cfi_def_cfa 2, 32
 172 002e 0561     		addi	sp,sp,32
 173              		.cfi_def_cfa_offset 0
 174 0030 8280     		jr	ra
 175              		.cfi_endproc
 176              	.LFE349:
 178              		.section	.text.hau_reset,"ax",@progbits
 179              		.align	1
 180              		.globl	hau_reset
 182              	hau_reset:
 183              	.LFB350:
  94:../Firmware/GD32VW55x_standard_peripheral/Source/gd32vw55x_hau.c **** 
  95:../Firmware/GD32VW55x_standard_peripheral/Source/gd32vw55x_hau.c **** /*!
  96:../Firmware/GD32VW55x_standard_peripheral/Source/gd32vw55x_hau.c ****     \brief      reset the HAU processor core
  97:../Firmware/GD32VW55x_standard_peripheral/Source/gd32vw55x_hau.c ****     \param[in]  none
  98:../Firmware/GD32VW55x_standard_peripheral/Source/gd32vw55x_hau.c ****     \param[out] none
  99:../Firmware/GD32VW55x_standard_peripheral/Source/gd32vw55x_hau.c ****     \retval     none
 100:../Firmware/GD32VW55x_standard_peripheral/Source/gd32vw55x_hau.c **** */
 101:../Firmware/GD32VW55x_standard_peripheral/Source/gd32vw55x_hau.c **** void hau_reset(void)
 102:../Firmware/GD32VW55x_standard_peripheral/Source/gd32vw55x_hau.c **** {
 184              		.loc 1 102 1
 185              		.cfi_startproc
 186 0000 4111     		addi	sp,sp,-16
 187              		.cfi_def_cfa_offset 16
 188 0002 22C6     		sw	s0,12(sp)
 189              		.cfi_offset 8, -4
 190 0004 0008     		addi	s0,sp,16
 191              		.cfi_def_cfa 8, 0
 103:../Firmware/GD32VW55x_standard_peripheral/Source/gd32vw55x_hau.c ****     /* set to 1 to reset the HAU processor core, then it is ready to start the digest calculation *
 104:../Firmware/GD32VW55x_standard_peripheral/Source/gd32vw55x_hau.c ****     HAU_CTL |= HAU_CTL_START;
 192              		.loc 1 104 13
 193 0006 B707064C 		li	a5,1275461632
 194 000a 93870740 		addi	a5,a5,1024
 195 000e 9843     		lw	a4,0(a5)
 196 0010 B707064C 		li	a5,1275461632
 197 0014 93870740 		addi	a5,a5,1024
 198 0018 13674700 		ori	a4,a4,4
 199 001c 98C3     		sw	a4,0(a5)
 105:../Firmware/GD32VW55x_standard_peripheral/Source/gd32vw55x_hau.c **** }
 200              		.loc 1 105 1
 201 001e 0100     		nop
 202 0020 3244     		lw	s0,12(sp)
 203              		.cfi_restore 8
 204              		.cfi_def_cfa 2, 16
 205 0022 4101     		addi	sp,sp,16
 206              		.cfi_def_cfa_offset 0
 207 0024 8280     		jr	ra
 208              		.cfi_endproc
 209              	.LFE350:
 211              		.section	.text.hau_last_word_validbits_num_config,"ax",@progbits
 212              		.align	1
 213              		.globl	hau_last_word_validbits_num_config
 215              	hau_last_word_validbits_num_config:
 216              	.LFB351:
 106:../Firmware/GD32VW55x_standard_peripheral/Source/gd32vw55x_hau.c **** 
 107:../Firmware/GD32VW55x_standard_peripheral/Source/gd32vw55x_hau.c **** /*!
 108:../Firmware/GD32VW55x_standard_peripheral/Source/gd32vw55x_hau.c ****     \brief      configure the number of valid bits in last word of the message
 109:../Firmware/GD32VW55x_standard_peripheral/Source/gd32vw55x_hau.c ****     \param[in]  valid_num: number of valid bits in last word of the message
 110:../Firmware/GD32VW55x_standard_peripheral/Source/gd32vw55x_hau.c ****                 only one parameter can be selected which is shown as below:
 111:../Firmware/GD32VW55x_standard_peripheral/Source/gd32vw55x_hau.c ****       \arg        0x00: all 32 bits of the last data written are valid
 112:../Firmware/GD32VW55x_standard_peripheral/Source/gd32vw55x_hau.c ****       \arg        0x01: only bit [31] of the last data written to HAU_DI after data swapping are va
 113:../Firmware/GD32VW55x_standard_peripheral/Source/gd32vw55x_hau.c ****       \arg        0x02: only bits [31:30] of the last data written to HAU_DI after data swapping ar
 114:../Firmware/GD32VW55x_standard_peripheral/Source/gd32vw55x_hau.c ****       \arg        0x03: only bits [31:29] of the last data written to HAU_DI after data swapping ar
 115:../Firmware/GD32VW55x_standard_peripheral/Source/gd32vw55x_hau.c ****                   ...
 116:../Firmware/GD32VW55x_standard_peripheral/Source/gd32vw55x_hau.c ****       \arg        0x1F: only bit [0] of the last data written to HAU_DI after data swapping are val
 117:../Firmware/GD32VW55x_standard_peripheral/Source/gd32vw55x_hau.c ****     \param[out] none
 118:../Firmware/GD32VW55x_standard_peripheral/Source/gd32vw55x_hau.c ****     \retval     none
 119:../Firmware/GD32VW55x_standard_peripheral/Source/gd32vw55x_hau.c **** */
 120:../Firmware/GD32VW55x_standard_peripheral/Source/gd32vw55x_hau.c **** void hau_last_word_validbits_num_config(uint32_t valid_num)
 121:../Firmware/GD32VW55x_standard_peripheral/Source/gd32vw55x_hau.c **** {
 217              		.loc 1 121 1
 218              		.cfi_startproc
 219 0000 0111     		addi	sp,sp,-32
 220              		.cfi_def_cfa_offset 32
 221 0002 22CE     		sw	s0,28(sp)
 222              		.cfi_offset 8, -4
 223 0004 0010     		addi	s0,sp,32
 224              		.cfi_def_cfa 8, 0
 225 0006 2326A4FE 		sw	a0,-20(s0)
 122:../Firmware/GD32VW55x_standard_peripheral/Source/gd32vw55x_hau.c ****     HAU_CFG &= (~(uint32_t)(HAU_CFG_VBL));
 226              		.loc 1 122 13
 227 000a B707064C 		li	a5,1275461632
 228 000e 93878740 		addi	a5,a5,1032
 229 0012 9843     		lw	a4,0(a5)
 230 0014 B707064C 		li	a5,1275461632
 231 0018 93878740 		addi	a5,a5,1032
 232 001c 019B     		andi	a4,a4,-32
 233 001e 98C3     		sw	a4,0(a5)
 123:../Firmware/GD32VW55x_standard_peripheral/Source/gd32vw55x_hau.c ****     HAU_CFG |= CFG_VBL(valid_num);
 234              		.loc 1 123 13
 235 0020 B707064C 		li	a5,1275461632
 236 0024 93878740 		addi	a5,a5,1032
 237 0028 9443     		lw	a3,0(a5)
 238              		.loc 1 123 16
 239 002a 8327C4FE 		lw	a5,-20(s0)
 240 002e 13F7F701 		andi	a4,a5,31
 241              		.loc 1 123 13
 242 0032 B707064C 		li	a5,1275461632
 243 0036 93878740 		addi	a5,a5,1032
 244 003a 558F     		or	a4,a3,a4
 245 003c 98C3     		sw	a4,0(a5)
 124:../Firmware/GD32VW55x_standard_peripheral/Source/gd32vw55x_hau.c **** }
 246              		.loc 1 124 1
 247 003e 0100     		nop
 248 0040 7244     		lw	s0,28(sp)
 249              		.cfi_restore 8
 250              		.cfi_def_cfa 2, 32
 251 0042 0561     		addi	sp,sp,32
 252              		.cfi_def_cfa_offset 0
 253 0044 8280     		jr	ra
 254              		.cfi_endproc
 255              	.LFE351:
 257              		.section	.text.hau_data_write,"ax",@progbits
 258              		.align	1
 259              		.globl	hau_data_write
 261              	hau_data_write:
 262              	.LFB352:
 125:../Firmware/GD32VW55x_standard_peripheral/Source/gd32vw55x_hau.c **** 
 126:../Firmware/GD32VW55x_standard_peripheral/Source/gd32vw55x_hau.c **** /*!
 127:../Firmware/GD32VW55x_standard_peripheral/Source/gd32vw55x_hau.c ****     \brief      write data to the IN FIFO
 128:../Firmware/GD32VW55x_standard_peripheral/Source/gd32vw55x_hau.c ****     \param[in]  data: data to write
 129:../Firmware/GD32VW55x_standard_peripheral/Source/gd32vw55x_hau.c ****     \param[out] none
 130:../Firmware/GD32VW55x_standard_peripheral/Source/gd32vw55x_hau.c ****     \retval     none
 131:../Firmware/GD32VW55x_standard_peripheral/Source/gd32vw55x_hau.c **** */
 132:../Firmware/GD32VW55x_standard_peripheral/Source/gd32vw55x_hau.c **** void hau_data_write(uint32_t data)
 133:../Firmware/GD32VW55x_standard_peripheral/Source/gd32vw55x_hau.c **** {
 263              		.loc 1 133 1
 264              		.cfi_startproc
 265 0000 0111     		addi	sp,sp,-32
 266              		.cfi_def_cfa_offset 32
 267 0002 22CE     		sw	s0,28(sp)
 268              		.cfi_offset 8, -4
 269 0004 0010     		addi	s0,sp,32
 270              		.cfi_def_cfa 8, 0
 271 0006 2326A4FE 		sw	a0,-20(s0)
 134:../Firmware/GD32VW55x_standard_peripheral/Source/gd32vw55x_hau.c ****     HAU_DI = data;
 272              		.loc 1 134 5
 273 000a B707064C 		li	a5,1275461632
 274 000e 93874740 		addi	a5,a5,1028
 275              		.loc 1 134 12
 276 0012 0327C4FE 		lw	a4,-20(s0)
 277 0016 98C3     		sw	a4,0(a5)
 135:../Firmware/GD32VW55x_standard_peripheral/Source/gd32vw55x_hau.c **** }
 278              		.loc 1 135 1
 279 0018 0100     		nop
 280 001a 7244     		lw	s0,28(sp)
 281              		.cfi_restore 8
 282              		.cfi_def_cfa 2, 32
 283 001c 0561     		addi	sp,sp,32
 284              		.cfi_def_cfa_offset 0
 285 001e 8280     		jr	ra
 286              		.cfi_endproc
 287              	.LFE352:
 289              		.section	.text.hau_infifo_words_num_get,"ax",@progbits
 290              		.align	1
 291              		.globl	hau_infifo_words_num_get
 293              	hau_infifo_words_num_get:
 294              	.LFB353:
 136:../Firmware/GD32VW55x_standard_peripheral/Source/gd32vw55x_hau.c **** 
 137:../Firmware/GD32VW55x_standard_peripheral/Source/gd32vw55x_hau.c **** /*!
 138:../Firmware/GD32VW55x_standard_peripheral/Source/gd32vw55x_hau.c ****     \brief      return the number of words already written into the IN FIFO
 139:../Firmware/GD32VW55x_standard_peripheral/Source/gd32vw55x_hau.c ****     \param[in]  none
 140:../Firmware/GD32VW55x_standard_peripheral/Source/gd32vw55x_hau.c ****     \param[out] none
 141:../Firmware/GD32VW55x_standard_peripheral/Source/gd32vw55x_hau.c ****     \retval     number of words in the input FIFO
 142:../Firmware/GD32VW55x_standard_peripheral/Source/gd32vw55x_hau.c **** */
 143:../Firmware/GD32VW55x_standard_peripheral/Source/gd32vw55x_hau.c **** uint32_t hau_infifo_words_num_get(void)
 144:../Firmware/GD32VW55x_standard_peripheral/Source/gd32vw55x_hau.c **** {
 295              		.loc 1 144 1
 296              		.cfi_startproc
 297 0000 0111     		addi	sp,sp,-32
 298              		.cfi_def_cfa_offset 32
 299 0002 22CE     		sw	s0,28(sp)
 300              		.cfi_offset 8, -4
 301 0004 0010     		addi	s0,sp,32
 302              		.cfi_def_cfa 8, 0
 145:../Firmware/GD32VW55x_standard_peripheral/Source/gd32vw55x_hau.c ****     uint32_t ret = 0U;
 303              		.loc 1 145 14
 304 0006 232604FE 		sw	zero,-20(s0)
 146:../Firmware/GD32VW55x_standard_peripheral/Source/gd32vw55x_hau.c ****     ret = GET_CTL_NWIF(HAU_CTL);
 305              		.loc 1 146 11
 306 000a B707064C 		li	a5,1275461632
 307 000e 93870740 		addi	a5,a5,1024
 308 0012 9C43     		lw	a5,0(a5)
 309 0014 A183     		srli	a5,a5,8
 310              		.loc 1 146 9
 311 0016 BD8B     		andi	a5,a5,15
 312 0018 2326F4FE 		sw	a5,-20(s0)
 147:../Firmware/GD32VW55x_standard_peripheral/Source/gd32vw55x_hau.c ****     return ret;
 313              		.loc 1 147 12
 314 001c 8327C4FE 		lw	a5,-20(s0)
 148:../Firmware/GD32VW55x_standard_peripheral/Source/gd32vw55x_hau.c **** }
 315              		.loc 1 148 1
 316 0020 3E85     		mv	a0,a5
 317 0022 7244     		lw	s0,28(sp)
 318              		.cfi_restore 8
 319              		.cfi_def_cfa 2, 32
 320 0024 0561     		addi	sp,sp,32
 321              		.cfi_def_cfa_offset 0
 322 0026 8280     		jr	ra
 323              		.cfi_endproc
 324              	.LFE353:
 326              		.section	.text.hau_digest_read,"ax",@progbits
 327              		.align	1
 328              		.globl	hau_digest_read
 330              	hau_digest_read:
 331              	.LFB354:
 149:../Firmware/GD32VW55x_standard_peripheral/Source/gd32vw55x_hau.c **** 
 150:../Firmware/GD32VW55x_standard_peripheral/Source/gd32vw55x_hau.c **** /*!
 151:../Firmware/GD32VW55x_standard_peripheral/Source/gd32vw55x_hau.c ****     \brief      read the message digest result
 152:../Firmware/GD32VW55x_standard_peripheral/Source/gd32vw55x_hau.c ****     \param[in]  none
 153:../Firmware/GD32VW55x_standard_peripheral/Source/gd32vw55x_hau.c ****     \param[out] digestpara: HAU digest parameter struct
 154:../Firmware/GD32VW55x_standard_peripheral/Source/gd32vw55x_hau.c ****                   out[7:0]: message digest result 0-7
 155:../Firmware/GD32VW55x_standard_peripheral/Source/gd32vw55x_hau.c ****     \retval     none
 156:../Firmware/GD32VW55x_standard_peripheral/Source/gd32vw55x_hau.c **** */
 157:../Firmware/GD32VW55x_standard_peripheral/Source/gd32vw55x_hau.c **** void hau_digest_read(hau_digest_parameter_struct* digestpara)
 158:../Firmware/GD32VW55x_standard_peripheral/Source/gd32vw55x_hau.c **** {
 332              		.loc 1 158 1
 333              		.cfi_startproc
 334 0000 0111     		addi	sp,sp,-32
 335              		.cfi_def_cfa_offset 32
 336 0002 22CE     		sw	s0,28(sp)
 337              		.cfi_offset 8, -4
 338 0004 0010     		addi	s0,sp,32
 339              		.cfi_def_cfa 8, 0
 340 0006 2326A4FE 		sw	a0,-20(s0)
 159:../Firmware/GD32VW55x_standard_peripheral/Source/gd32vw55x_hau.c ****     digestpara->out[0] = HAU_DO0;
 341              		.loc 1 159 26
 342 000a B707064C 		li	a5,1275461632
 343 000e 9387C740 		addi	a5,a5,1036
 344 0012 9843     		lw	a4,0(a5)
 345              		.loc 1 159 24
 346 0014 8327C4FE 		lw	a5,-20(s0)
 347 0018 98C3     		sw	a4,0(a5)
 160:../Firmware/GD32VW55x_standard_peripheral/Source/gd32vw55x_hau.c ****     digestpara->out[1] = HAU_DO1;
 348              		.loc 1 160 26
 349 001a B707064C 		li	a5,1275461632
 350 001e 93870741 		addi	a5,a5,1040
 351 0022 9843     		lw	a4,0(a5)
 352              		.loc 1 160 24
 353 0024 8327C4FE 		lw	a5,-20(s0)
 354 0028 D8C3     		sw	a4,4(a5)
 161:../Firmware/GD32VW55x_standard_peripheral/Source/gd32vw55x_hau.c ****     digestpara->out[2] = HAU_DO2;
 355              		.loc 1 161 26
 356 002a B707064C 		li	a5,1275461632
 357 002e 93874741 		addi	a5,a5,1044
 358 0032 9843     		lw	a4,0(a5)
 359              		.loc 1 161 24
 360 0034 8327C4FE 		lw	a5,-20(s0)
 361 0038 98C7     		sw	a4,8(a5)
 162:../Firmware/GD32VW55x_standard_peripheral/Source/gd32vw55x_hau.c ****     digestpara->out[3] = HAU_DO3;
 362              		.loc 1 162 26
 363 003a B707064C 		li	a5,1275461632
 364 003e 93878741 		addi	a5,a5,1048
 365 0042 9843     		lw	a4,0(a5)
 366              		.loc 1 162 24
 367 0044 8327C4FE 		lw	a5,-20(s0)
 368 0048 D8C7     		sw	a4,12(a5)
 163:../Firmware/GD32VW55x_standard_peripheral/Source/gd32vw55x_hau.c ****     digestpara->out[4] = HAU_DO4;
 369              		.loc 1 163 26
 370 004a B707064C 		li	a5,1275461632
 371 004e 9387C741 		addi	a5,a5,1052
 372 0052 9843     		lw	a4,0(a5)
 373              		.loc 1 163 24
 374 0054 8327C4FE 		lw	a5,-20(s0)
 375 0058 98CB     		sw	a4,16(a5)
 164:../Firmware/GD32VW55x_standard_peripheral/Source/gd32vw55x_hau.c ****     digestpara->out[5] = HAU_DO5;
 376              		.loc 1 164 26
 377 005a B707064C 		li	a5,1275461632
 378 005e 93874772 		addi	a5,a5,1828
 379 0062 9843     		lw	a4,0(a5)
 380              		.loc 1 164 24
 381 0064 8327C4FE 		lw	a5,-20(s0)
 382 0068 D8CB     		sw	a4,20(a5)
 165:../Firmware/GD32VW55x_standard_peripheral/Source/gd32vw55x_hau.c ****     digestpara->out[6] = HAU_DO6;
 383              		.loc 1 165 26
 384 006a B707064C 		li	a5,1275461632
 385 006e 93878772 		addi	a5,a5,1832
 386 0072 9843     		lw	a4,0(a5)
 387              		.loc 1 165 24
 388 0074 8327C4FE 		lw	a5,-20(s0)
 389 0078 98CF     		sw	a4,24(a5)
 166:../Firmware/GD32VW55x_standard_peripheral/Source/gd32vw55x_hau.c ****     digestpara->out[7] = HAU_DO7;
 390              		.loc 1 166 26
 391 007a B707064C 		li	a5,1275461632
 392 007e 9387C772 		addi	a5,a5,1836
 393 0082 9843     		lw	a4,0(a5)
 394              		.loc 1 166 24
 395 0084 8327C4FE 		lw	a5,-20(s0)
 396 0088 D8CF     		sw	a4,28(a5)
 167:../Firmware/GD32VW55x_standard_peripheral/Source/gd32vw55x_hau.c **** }
 397              		.loc 1 167 1
 398 008a 0100     		nop
 399 008c 7244     		lw	s0,28(sp)
 400              		.cfi_restore 8
 401              		.cfi_def_cfa 2, 32
 402 008e 0561     		addi	sp,sp,32
 403              		.cfi_def_cfa_offset 0
 404 0090 8280     		jr	ra
 405              		.cfi_endproc
 406              	.LFE354:
 408              		.section	.text.hau_digest_calculation_enable,"ax",@progbits
 409              		.align	1
 410              		.globl	hau_digest_calculation_enable
 412              	hau_digest_calculation_enable:
 413              	.LFB355:
 168:../Firmware/GD32VW55x_standard_peripheral/Source/gd32vw55x_hau.c **** 
 169:../Firmware/GD32VW55x_standard_peripheral/Source/gd32vw55x_hau.c **** /*!
 170:../Firmware/GD32VW55x_standard_peripheral/Source/gd32vw55x_hau.c ****     \brief      enable digest calculation
 171:../Firmware/GD32VW55x_standard_peripheral/Source/gd32vw55x_hau.c ****     \param[in]  none
 172:../Firmware/GD32VW55x_standard_peripheral/Source/gd32vw55x_hau.c ****     \param[out] none
 173:../Firmware/GD32VW55x_standard_peripheral/Source/gd32vw55x_hau.c ****     \retval     none
 174:../Firmware/GD32VW55x_standard_peripheral/Source/gd32vw55x_hau.c **** */
 175:../Firmware/GD32VW55x_standard_peripheral/Source/gd32vw55x_hau.c **** void hau_digest_calculation_enable(void)
 176:../Firmware/GD32VW55x_standard_peripheral/Source/gd32vw55x_hau.c **** {
 414              		.loc 1 176 1
 415              		.cfi_startproc
 416 0000 4111     		addi	sp,sp,-16
 417              		.cfi_def_cfa_offset 16
 418 0002 22C6     		sw	s0,12(sp)
 419              		.cfi_offset 8, -4
 420 0004 0008     		addi	s0,sp,16
 421              		.cfi_def_cfa 8, 0
 177:../Firmware/GD32VW55x_standard_peripheral/Source/gd32vw55x_hau.c ****     HAU_CFG |= HAU_CFG_CALEN;
 422              		.loc 1 177 13
 423 0006 B707064C 		li	a5,1275461632
 424 000a 93878740 		addi	a5,a5,1032
 425 000e 9843     		lw	a4,0(a5)
 426 0010 B707064C 		li	a5,1275461632
 427 0014 93878740 		addi	a5,a5,1032
 428 0018 13670710 		ori	a4,a4,256
 429 001c 98C3     		sw	a4,0(a5)
 178:../Firmware/GD32VW55x_standard_peripheral/Source/gd32vw55x_hau.c **** }
 430              		.loc 1 178 1
 431 001e 0100     		nop
 432 0020 3244     		lw	s0,12(sp)
 433              		.cfi_restore 8
 434              		.cfi_def_cfa 2, 16
 435 0022 4101     		addi	sp,sp,16
 436              		.cfi_def_cfa_offset 0
 437 0024 8280     		jr	ra
 438              		.cfi_endproc
 439              	.LFE355:
 441              		.section	.text.hau_multiple_single_dma_config,"ax",@progbits
 442              		.align	1
 443              		.globl	hau_multiple_single_dma_config
 445              	hau_multiple_single_dma_config:
 446              	.LFB356:
 179:../Firmware/GD32VW55x_standard_peripheral/Source/gd32vw55x_hau.c **** 
 180:../Firmware/GD32VW55x_standard_peripheral/Source/gd32vw55x_hau.c **** /*!
 181:../Firmware/GD32VW55x_standard_peripheral/Source/gd32vw55x_hau.c ****     \brief      configure single or multiple DMA is used, and digest calculation at the end of a DM
 182:../Firmware/GD32VW55x_standard_peripheral/Source/gd32vw55x_hau.c ****     \param[in]  multi_single
 183:../Firmware/GD32VW55x_standard_peripheral/Source/gd32vw55x_hau.c ****                 only one parameter can be selected which is shown as below
 184:../Firmware/GD32VW55x_standard_peripheral/Source/gd32vw55x_hau.c ****       \arg        SINGLE_DMA_AUTO_DIGEST: message padding and message digest calculation at the end
 185:../Firmware/GD32VW55x_standard_peripheral/Source/gd32vw55x_hau.c ****       \arg        MULTIPLE_DMA_NO_DIGEST: multiple DMA transfers needed and CALEN bit is not automa
 186:../Firmware/GD32VW55x_standard_peripheral/Source/gd32vw55x_hau.c ****     \param[out] none
 187:../Firmware/GD32VW55x_standard_peripheral/Source/gd32vw55x_hau.c ****     \retval     none
 188:../Firmware/GD32VW55x_standard_peripheral/Source/gd32vw55x_hau.c **** */
 189:../Firmware/GD32VW55x_standard_peripheral/Source/gd32vw55x_hau.c **** void hau_multiple_single_dma_config(uint32_t multi_single)
 190:../Firmware/GD32VW55x_standard_peripheral/Source/gd32vw55x_hau.c **** {
 447              		.loc 1 190 1
 448              		.cfi_startproc
 449 0000 0111     		addi	sp,sp,-32
 450              		.cfi_def_cfa_offset 32
 451 0002 22CE     		sw	s0,28(sp)
 452              		.cfi_offset 8, -4
 453 0004 0010     		addi	s0,sp,32
 454              		.cfi_def_cfa 8, 0
 455 0006 2326A4FE 		sw	a0,-20(s0)
 191:../Firmware/GD32VW55x_standard_peripheral/Source/gd32vw55x_hau.c ****     HAU_CTL &= (~(uint32_t)(HAU_CTL_MDS));
 456              		.loc 1 191 13
 457 000a B707064C 		li	a5,1275461632
 458 000e 93870740 		addi	a5,a5,1024
 459 0012 9443     		lw	a3,0(a5)
 460 0014 B707064C 		li	a5,1275461632
 461 0018 93870740 		addi	a5,a5,1024
 462 001c 7977     		li	a4,-8192
 463 001e 7D17     		addi	a4,a4,-1
 464 0020 758F     		and	a4,a3,a4
 465 0022 98C3     		sw	a4,0(a5)
 192:../Firmware/GD32VW55x_standard_peripheral/Source/gd32vw55x_hau.c ****     HAU_CTL |= multi_single;
 466              		.loc 1 192 13
 467 0024 B707064C 		li	a5,1275461632
 468 0028 93870740 		addi	a5,a5,1024
 469 002c 9443     		lw	a3,0(a5)
 470 002e B707064C 		li	a5,1275461632
 471 0032 93870740 		addi	a5,a5,1024
 472 0036 0327C4FE 		lw	a4,-20(s0)
 473 003a 558F     		or	a4,a3,a4
 474 003c 98C3     		sw	a4,0(a5)
 193:../Firmware/GD32VW55x_standard_peripheral/Source/gd32vw55x_hau.c **** }
 475              		.loc 1 193 1
 476 003e 0100     		nop
 477 0040 7244     		lw	s0,28(sp)
 478              		.cfi_restore 8
 479              		.cfi_def_cfa 2, 32
 480 0042 0561     		addi	sp,sp,32
 481              		.cfi_def_cfa_offset 0
 482 0044 8280     		jr	ra
 483              		.cfi_endproc
 484              	.LFE356:
 486              		.section	.text.hau_dma_enable,"ax",@progbits
 487              		.align	1
 488              		.globl	hau_dma_enable
 490              	hau_dma_enable:
 491              	.LFB357:
 194:../Firmware/GD32VW55x_standard_peripheral/Source/gd32vw55x_hau.c **** 
 195:../Firmware/GD32VW55x_standard_peripheral/Source/gd32vw55x_hau.c **** /*!
 196:../Firmware/GD32VW55x_standard_peripheral/Source/gd32vw55x_hau.c ****     \brief      enable the HAU DMA interface
 197:../Firmware/GD32VW55x_standard_peripheral/Source/gd32vw55x_hau.c ****     \param[in]  none
 198:../Firmware/GD32VW55x_standard_peripheral/Source/gd32vw55x_hau.c ****     \param[out] none
 199:../Firmware/GD32VW55x_standard_peripheral/Source/gd32vw55x_hau.c ****     \retval     none
 200:../Firmware/GD32VW55x_standard_peripheral/Source/gd32vw55x_hau.c **** */
 201:../Firmware/GD32VW55x_standard_peripheral/Source/gd32vw55x_hau.c **** void hau_dma_enable(void)
 202:../Firmware/GD32VW55x_standard_peripheral/Source/gd32vw55x_hau.c **** {
 492              		.loc 1 202 1
 493              		.cfi_startproc
 494 0000 4111     		addi	sp,sp,-16
 495              		.cfi_def_cfa_offset 16
 496 0002 22C6     		sw	s0,12(sp)
 497              		.cfi_offset 8, -4
 498 0004 0008     		addi	s0,sp,16
 499              		.cfi_def_cfa 8, 0
 203:../Firmware/GD32VW55x_standard_peripheral/Source/gd32vw55x_hau.c ****     HAU_CTL |= HAU_CTL_DMAE;
 500              		.loc 1 203 13
 501 0006 B707064C 		li	a5,1275461632
 502 000a 93870740 		addi	a5,a5,1024
 503 000e 9843     		lw	a4,0(a5)
 504 0010 B707064C 		li	a5,1275461632
 505 0014 93870740 		addi	a5,a5,1024
 506 0018 13678700 		ori	a4,a4,8
 507 001c 98C3     		sw	a4,0(a5)
 204:../Firmware/GD32VW55x_standard_peripheral/Source/gd32vw55x_hau.c **** }
 508              		.loc 1 204 1
 509 001e 0100     		nop
 510 0020 3244     		lw	s0,12(sp)
 511              		.cfi_restore 8
 512              		.cfi_def_cfa 2, 16
 513 0022 4101     		addi	sp,sp,16
 514              		.cfi_def_cfa_offset 0
 515 0024 8280     		jr	ra
 516              		.cfi_endproc
 517              	.LFE357:
 519              		.section	.text.hau_dma_disable,"ax",@progbits
 520              		.align	1
 521              		.globl	hau_dma_disable
 523              	hau_dma_disable:
 524              	.LFB358:
 205:../Firmware/GD32VW55x_standard_peripheral/Source/gd32vw55x_hau.c **** 
 206:../Firmware/GD32VW55x_standard_peripheral/Source/gd32vw55x_hau.c **** /*!
 207:../Firmware/GD32VW55x_standard_peripheral/Source/gd32vw55x_hau.c ****     \brief      disable the HAU DMA interface
 208:../Firmware/GD32VW55x_standard_peripheral/Source/gd32vw55x_hau.c ****     \param[in]  none
 209:../Firmware/GD32VW55x_standard_peripheral/Source/gd32vw55x_hau.c ****     \param[out] none
 210:../Firmware/GD32VW55x_standard_peripheral/Source/gd32vw55x_hau.c ****     \retval     none
 211:../Firmware/GD32VW55x_standard_peripheral/Source/gd32vw55x_hau.c **** */
 212:../Firmware/GD32VW55x_standard_peripheral/Source/gd32vw55x_hau.c **** void hau_dma_disable(void)
 213:../Firmware/GD32VW55x_standard_peripheral/Source/gd32vw55x_hau.c **** {
 525              		.loc 1 213 1
 526              		.cfi_startproc
 527 0000 4111     		addi	sp,sp,-16
 528              		.cfi_def_cfa_offset 16
 529 0002 22C6     		sw	s0,12(sp)
 530              		.cfi_offset 8, -4
 531 0004 0008     		addi	s0,sp,16
 532              		.cfi_def_cfa 8, 0
 214:../Firmware/GD32VW55x_standard_peripheral/Source/gd32vw55x_hau.c ****     HAU_CTL &= (~(uint32_t)(HAU_CTL_DMAE));
 533              		.loc 1 214 13
 534 0006 B707064C 		li	a5,1275461632
 535 000a 93870740 		addi	a5,a5,1024
 536 000e 9843     		lw	a4,0(a5)
 537 0010 B707064C 		li	a5,1275461632
 538 0014 93870740 		addi	a5,a5,1024
 539 0018 5D9B     		andi	a4,a4,-9
 540 001a 98C3     		sw	a4,0(a5)
 215:../Firmware/GD32VW55x_standard_peripheral/Source/gd32vw55x_hau.c **** }
 541              		.loc 1 215 1
 542 001c 0100     		nop
 543 001e 3244     		lw	s0,12(sp)
 544              		.cfi_restore 8
 545              		.cfi_def_cfa 2, 16
 546 0020 4101     		addi	sp,sp,16
 547              		.cfi_def_cfa_offset 0
 548 0022 8280     		jr	ra
 549              		.cfi_endproc
 550              	.LFE358:
 552              		.section	.text.hau_context_struct_para_init,"ax",@progbits
 553              		.align	1
 554              		.globl	hau_context_struct_para_init
 556              	hau_context_struct_para_init:
 557              	.LFB359:
 216:../Firmware/GD32VW55x_standard_peripheral/Source/gd32vw55x_hau.c **** 
 217:../Firmware/GD32VW55x_standard_peripheral/Source/gd32vw55x_hau.c **** /*!
 218:../Firmware/GD32VW55x_standard_peripheral/Source/gd32vw55x_hau.c ****     \brief      initialize the struct context
 219:../Firmware/GD32VW55x_standard_peripheral/Source/gd32vw55x_hau.c ****     \param[in]  context: HAU context parameter struct
 220:../Firmware/GD32VW55x_standard_peripheral/Source/gd32vw55x_hau.c ****     \param[out] none
 221:../Firmware/GD32VW55x_standard_peripheral/Source/gd32vw55x_hau.c ****     \retval     none
 222:../Firmware/GD32VW55x_standard_peripheral/Source/gd32vw55x_hau.c **** */
 223:../Firmware/GD32VW55x_standard_peripheral/Source/gd32vw55x_hau.c **** void hau_context_struct_para_init(hau_context_parameter_struct* context)
 224:../Firmware/GD32VW55x_standard_peripheral/Source/gd32vw55x_hau.c **** {
 558              		.loc 1 224 1
 559              		.cfi_startproc
 560 0000 7971     		addi	sp,sp,-48
 561              		.cfi_def_cfa_offset 48
 562 0002 22D6     		sw	s0,44(sp)
 563              		.cfi_offset 8, -4
 564 0004 0018     		addi	s0,sp,48
 565              		.cfi_def_cfa 8, 0
 566 0006 232EA4FC 		sw	a0,-36(s0)
 225:../Firmware/GD32VW55x_standard_peripheral/Source/gd32vw55x_hau.c ****     uint8_t i = 0U;
 567              		.loc 1 225 13
 568 000a A30704FE 		sb	zero,-17(s0)
 226:../Firmware/GD32VW55x_standard_peripheral/Source/gd32vw55x_hau.c **** 
 227:../Firmware/GD32VW55x_standard_peripheral/Source/gd32vw55x_hau.c ****     /* initialize context parameter struct */
 228:../Firmware/GD32VW55x_standard_peripheral/Source/gd32vw55x_hau.c ****     context->hau_inten_bak = 0U;
 569              		.loc 1 228 28
 570 000e 8327C4FD 		lw	a5,-36(s0)
 571 0012 23A40700 		sw	zero,8(a5)
 229:../Firmware/GD32VW55x_standard_peripheral/Source/gd32vw55x_hau.c ****     context->hau_cfg_bak = 0U;
 572              		.loc 1 229 26
 573 0016 8327C4FD 		lw	a5,-36(s0)
 574 001a 23A20700 		sw	zero,4(a5)
 230:../Firmware/GD32VW55x_standard_peripheral/Source/gd32vw55x_hau.c ****     context->hau_ctl_bak  = 0U;
 575              		.loc 1 230 27
 576 001e 8327C4FD 		lw	a5,-36(s0)
 577 0022 23A00700 		sw	zero,0(a5)
 231:../Firmware/GD32VW55x_standard_peripheral/Source/gd32vw55x_hau.c ****     for(i = 0U; i <= HMAC_CONTEXT_INTERNAL_REG; i++){
 578              		.loc 1 231 11
 579 0026 A30704FE 		sb	zero,-17(s0)
 580              		.loc 1 231 5
 581 002a 31A8     		j	.L16
 582              	.L17:
 232:../Firmware/GD32VW55x_standard_peripheral/Source/gd32vw55x_hau.c ****         context->hau_ctxs_bak[i] = 0U;
 583              		.loc 1 232 30 discriminator 3
 584 002c 8347F4FE 		lbu	a5,-17(s0)
 585              		.loc 1 232 34 discriminator 3
 586 0030 0327C4FD 		lw	a4,-36(s0)
 587 0034 8A07     		slli	a5,a5,2
 588 0036 BA97     		add	a5,a4,a5
 589 0038 23A60700 		sw	zero,12(a5)
 231:../Firmware/GD32VW55x_standard_peripheral/Source/gd32vw55x_hau.c ****     for(i = 0U; i <= HMAC_CONTEXT_INTERNAL_REG; i++){
 590              		.loc 1 231 50 discriminator 3
 591 003c 8347F4FE 		lbu	a5,-17(s0)
 592 0040 8507     		addi	a5,a5,1
 593 0042 A307F4FE 		sb	a5,-17(s0)
 594              	.L16:
 231:../Firmware/GD32VW55x_standard_peripheral/Source/gd32vw55x_hau.c ****     for(i = 0U; i <= HMAC_CONTEXT_INTERNAL_REG; i++){
 595              		.loc 1 231 5 discriminator 1
 596 0046 0347F4FE 		lbu	a4,-17(s0)
 597 004a 93075003 		li	a5,53
 598 004e E3FFE7FC 		bleu	a4,a5,.L17
 233:../Firmware/GD32VW55x_standard_peripheral/Source/gd32vw55x_hau.c ****     }
 234:../Firmware/GD32VW55x_standard_peripheral/Source/gd32vw55x_hau.c **** }
 599              		.loc 1 234 1
 600 0052 0100     		nop
 601 0054 0100     		nop
 602 0056 3254     		lw	s0,44(sp)
 603              		.cfi_restore 8
 604              		.cfi_def_cfa 2, 48
 605 0058 4561     		addi	sp,sp,48
 606              		.cfi_def_cfa_offset 0
 607 005a 8280     		jr	ra
 608              		.cfi_endproc
 609              	.LFE359:
 611              		.section	.text.hau_context_save,"ax",@progbits
 612              		.align	1
 613              		.globl	hau_context_save
 615              	hau_context_save:
 616              	.LFB360:
 235:../Firmware/GD32VW55x_standard_peripheral/Source/gd32vw55x_hau.c **** 
 236:../Firmware/GD32VW55x_standard_peripheral/Source/gd32vw55x_hau.c **** /*!
 237:../Firmware/GD32VW55x_standard_peripheral/Source/gd32vw55x_hau.c ****     \brief      save the HAU peripheral context
 238:../Firmware/GD32VW55x_standard_peripheral/Source/gd32vw55x_hau.c ****     \param[in]  none
 239:../Firmware/GD32VW55x_standard_peripheral/Source/gd32vw55x_hau.c ****     \param[out] context_save: pointer to a hau_context structure that contains the repository for c
 240:../Firmware/GD32VW55x_standard_peripheral/Source/gd32vw55x_hau.c ****     \retval     none
 241:../Firmware/GD32VW55x_standard_peripheral/Source/gd32vw55x_hau.c **** */
 242:../Firmware/GD32VW55x_standard_peripheral/Source/gd32vw55x_hau.c **** void hau_context_save(hau_context_parameter_struct* context_save)
 243:../Firmware/GD32VW55x_standard_peripheral/Source/gd32vw55x_hau.c **** {
 617              		.loc 1 243 1
 618              		.cfi_startproc
 619 0000 7971     		addi	sp,sp,-48
 620              		.cfi_def_cfa_offset 48
 621 0002 06D6     		sw	ra,44(sp)
 622 0004 22D4     		sw	s0,40(sp)
 623              		.cfi_offset 1, -4
 624              		.cfi_offset 8, -8
 625 0006 0018     		addi	s0,sp,48
 626              		.cfi_def_cfa 8, 0
 627 0008 232EA4FC 		sw	a0,-36(s0)
 244:../Firmware/GD32VW55x_standard_peripheral/Source/gd32vw55x_hau.c ****     uint8_t i = 0U;
 628              		.loc 1 244 13
 629 000c A30704FE 		sb	zero,-17(s0)
 245:../Firmware/GD32VW55x_standard_peripheral/Source/gd32vw55x_hau.c ****     uint8_t i_max = HASH_CONTEXT_INTERNAL_REG;
 630              		.loc 1 245 13
 631 0010 93075002 		li	a5,37
 632 0014 2307F4FE 		sb	a5,-18(s0)
 246:../Firmware/GD32VW55x_standard_peripheral/Source/gd32vw55x_hau.c **** 
 247:../Firmware/GD32VW55x_standard_peripheral/Source/gd32vw55x_hau.c ****     hau_context_struct_para_init(context_save);
 633              		.loc 1 247 5
 634 0018 0325C4FD 		lw	a0,-36(s0)
 635 001c 97000000 		call	hau_context_struct_para_init
 635      E7800000 
 248:../Firmware/GD32VW55x_standard_peripheral/Source/gd32vw55x_hau.c ****     /* save context registers */
 249:../Firmware/GD32VW55x_standard_peripheral/Source/gd32vw55x_hau.c ****     context_save->hau_inten_bak = HAU_INTEN;
 636              		.loc 1 249 35
 637 0024 B707064C 		li	a5,1275461632
 638 0028 93870742 		addi	a5,a5,1056
 639 002c 9843     		lw	a4,0(a5)
 640              		.loc 1 249 33
 641 002e 8327C4FD 		lw	a5,-36(s0)
 642 0032 98C7     		sw	a4,8(a5)
 250:../Firmware/GD32VW55x_standard_peripheral/Source/gd32vw55x_hau.c ****     context_save->hau_cfg_bak = HAU_CFG;
 643              		.loc 1 250 33
 644 0034 B707064C 		li	a5,1275461632
 645 0038 93878740 		addi	a5,a5,1032
 646 003c 9843     		lw	a4,0(a5)
 647              		.loc 1 250 31
 648 003e 8327C4FD 		lw	a5,-36(s0)
 649 0042 D8C3     		sw	a4,4(a5)
 251:../Firmware/GD32VW55x_standard_peripheral/Source/gd32vw55x_hau.c ****     context_save->hau_ctl_bak  = HAU_CTL;
 650              		.loc 1 251 34
 651 0044 B707064C 		li	a5,1275461632
 652 0048 93870740 		addi	a5,a5,1024
 653 004c 9843     		lw	a4,0(a5)
 654              		.loc 1 251 32
 655 004e 8327C4FD 		lw	a5,-36(s0)
 656 0052 98C3     		sw	a4,0(a5)
 252:../Firmware/GD32VW55x_standard_peripheral/Source/gd32vw55x_hau.c **** 
 253:../Firmware/GD32VW55x_standard_peripheral/Source/gd32vw55x_hau.c ****     if(0U != (HAU_CTL & HAU_CTL_HMS)){
 657              		.loc 1 253 15
 658 0054 B707064C 		li	a5,1275461632
 659 0058 93870740 		addi	a5,a5,1024
 660 005c 9C43     		lw	a5,0(a5)
 661              		.loc 1 253 23
 662 005e 93F70704 		andi	a5,a5,64
 663              		.loc 1 253 7
 664 0062 89C7     		beq	a5,zero,.L19
 254:../Firmware/GD32VW55x_standard_peripheral/Source/gd32vw55x_hau.c ****         i_max = HMAC_CONTEXT_INTERNAL_REG;
 665              		.loc 1 254 15
 666 0064 93075003 		li	a5,53
 667 0068 2307F4FE 		sb	a5,-18(s0)
 668              	.L19:
 255:../Firmware/GD32VW55x_standard_peripheral/Source/gd32vw55x_hau.c ****     }
 256:../Firmware/GD32VW55x_standard_peripheral/Source/gd32vw55x_hau.c ****     for(i = 0U; i <= i_max; i++){
 669              		.loc 1 256 11
 670 006c A30704FE 		sb	zero,-17(s0)
 671              		.loc 1 256 5
 672 0070 3DA0     		j	.L20
 673              	.L21:
 257:../Firmware/GD32VW55x_standard_peripheral/Source/gd32vw55x_hau.c ****         context_save->hau_ctxs_bak[i] = HAU_CTXS(i);
 674              		.loc 1 257 41 discriminator 3
 675 0072 0347F4FE 		lbu	a4,-17(s0)
 676 0076 B7870113 		li	a5,318865408
 677 007a 9387E713 		addi	a5,a5,318
 678 007e BA97     		add	a5,a4,a5
 679 0080 8A07     		slli	a5,a5,2
 680 0082 3E87     		mv	a4,a5
 681              		.loc 1 257 35 discriminator 3
 682 0084 8347F4FE 		lbu	a5,-17(s0)
 683              		.loc 1 257 41 discriminator 3
 684 0088 1843     		lw	a4,0(a4)
 685              		.loc 1 257 39 discriminator 3
 686 008a 8326C4FD 		lw	a3,-36(s0)
 687 008e 8A07     		slli	a5,a5,2
 688 0090 B697     		add	a5,a3,a5
 689 0092 D8C7     		sw	a4,12(a5)
 256:../Firmware/GD32VW55x_standard_peripheral/Source/gd32vw55x_hau.c ****         context_save->hau_ctxs_bak[i] = HAU_CTXS(i);
 690              		.loc 1 256 30 discriminator 3
 691 0094 8347F4FE 		lbu	a5,-17(s0)
 692 0098 8507     		addi	a5,a5,1
 693 009a A307F4FE 		sb	a5,-17(s0)
 694              	.L20:
 256:../Firmware/GD32VW55x_standard_peripheral/Source/gd32vw55x_hau.c ****         context_save->hau_ctxs_bak[i] = HAU_CTXS(i);
 695              		.loc 1 256 5 discriminator 1
 696 009e 0347F4FE 		lbu	a4,-17(s0)
 697 00a2 8347E4FE 		lbu	a5,-18(s0)
 698 00a6 E3F6E7FC 		bleu	a4,a5,.L21
 258:../Firmware/GD32VW55x_standard_peripheral/Source/gd32vw55x_hau.c ****     }
 259:../Firmware/GD32VW55x_standard_peripheral/Source/gd32vw55x_hau.c **** }
 699              		.loc 1 259 1
 700 00aa 0100     		nop
 701 00ac 0100     		nop
 702 00ae B250     		lw	ra,44(sp)
 703              		.cfi_restore 1
 704 00b0 2254     		lw	s0,40(sp)
 705              		.cfi_restore 8
 706              		.cfi_def_cfa 2, 48
 707 00b2 4561     		addi	sp,sp,48
 708              		.cfi_def_cfa_offset 0
 709 00b4 8280     		jr	ra
 710              		.cfi_endproc
 711              	.LFE360:
 713              		.section	.text.hau_context_restore,"ax",@progbits
 714              		.align	1
 715              		.globl	hau_context_restore
 717              	hau_context_restore:
 718              	.LFB361:
 260:../Firmware/GD32VW55x_standard_peripheral/Source/gd32vw55x_hau.c **** 
 261:../Firmware/GD32VW55x_standard_peripheral/Source/gd32vw55x_hau.c **** /*!
 262:../Firmware/GD32VW55x_standard_peripheral/Source/gd32vw55x_hau.c ****     \brief      restore the HAU peripheral context
 263:../Firmware/GD32VW55x_standard_peripheral/Source/gd32vw55x_hau.c ****     \param[in]  context_restore: pointer to a hau_context_parameter_struct structure that contains 
 264:../Firmware/GD32VW55x_standard_peripheral/Source/gd32vw55x_hau.c ****     \param[out] none
 265:../Firmware/GD32VW55x_standard_peripheral/Source/gd32vw55x_hau.c ****     \retval     none
 266:../Firmware/GD32VW55x_standard_peripheral/Source/gd32vw55x_hau.c **** */
 267:../Firmware/GD32VW55x_standard_peripheral/Source/gd32vw55x_hau.c **** void hau_context_restore(hau_context_parameter_struct* context_restore)
 268:../Firmware/GD32VW55x_standard_peripheral/Source/gd32vw55x_hau.c **** {
 719              		.loc 1 268 1
 720              		.cfi_startproc
 721 0000 7971     		addi	sp,sp,-48
 722              		.cfi_def_cfa_offset 48
 723 0002 22D6     		sw	s0,44(sp)
 724              		.cfi_offset 8, -4
 725 0004 0018     		addi	s0,sp,48
 726              		.cfi_def_cfa 8, 0
 727 0006 232EA4FC 		sw	a0,-36(s0)
 269:../Firmware/GD32VW55x_standard_peripheral/Source/gd32vw55x_hau.c ****     uint8_t i = 0U;
 728              		.loc 1 269 13
 729 000a A30704FE 		sb	zero,-17(s0)
 270:../Firmware/GD32VW55x_standard_peripheral/Source/gd32vw55x_hau.c ****     uint8_t i_max = HASH_CONTEXT_INTERNAL_REG;
 730              		.loc 1 270 13
 731 000e 93075002 		li	a5,37
 732 0012 2307F4FE 		sb	a5,-18(s0)
 271:../Firmware/GD32VW55x_standard_peripheral/Source/gd32vw55x_hau.c **** 
 272:../Firmware/GD32VW55x_standard_peripheral/Source/gd32vw55x_hau.c ****     /* restore context registers */
 273:../Firmware/GD32VW55x_standard_peripheral/Source/gd32vw55x_hau.c ****     HAU_INTEN = context_restore->hau_inten_bak;
 733              		.loc 1 273 5
 734 0016 B707064C 		li	a5,1275461632
 735 001a 93870742 		addi	a5,a5,1056
 736              		.loc 1 273 32
 737 001e 0327C4FD 		lw	a4,-36(s0)
 738 0022 1847     		lw	a4,8(a4)
 739              		.loc 1 273 15
 740 0024 98C3     		sw	a4,0(a5)
 274:../Firmware/GD32VW55x_standard_peripheral/Source/gd32vw55x_hau.c ****     HAU_CFG = context_restore->hau_cfg_bak;
 741              		.loc 1 274 5
 742 0026 B707064C 		li	a5,1275461632
 743 002a 93878740 		addi	a5,a5,1032
 744              		.loc 1 274 30
 745 002e 0327C4FD 		lw	a4,-36(s0)
 746 0032 5843     		lw	a4,4(a4)
 747              		.loc 1 274 13
 748 0034 98C3     		sw	a4,0(a5)
 275:../Firmware/GD32VW55x_standard_peripheral/Source/gd32vw55x_hau.c ****     HAU_CTL = context_restore->hau_ctl_bak;
 749              		.loc 1 275 5
 750 0036 B707064C 		li	a5,1275461632
 751 003a 93870740 		addi	a5,a5,1024
 752              		.loc 1 275 30
 753 003e 0327C4FD 		lw	a4,-36(s0)
 754 0042 1843     		lw	a4,0(a4)
 755              		.loc 1 275 13
 756 0044 98C3     		sw	a4,0(a5)
 276:../Firmware/GD32VW55x_standard_peripheral/Source/gd32vw55x_hau.c ****     /* Initialize the hash processor */
 277:../Firmware/GD32VW55x_standard_peripheral/Source/gd32vw55x_hau.c ****     HAU_CTL |= HAU_CTL_START;
 757              		.loc 1 277 13
 758 0046 B707064C 		li	a5,1275461632
 759 004a 93870740 		addi	a5,a5,1024
 760 004e 9843     		lw	a4,0(a5)
 761 0050 B707064C 		li	a5,1275461632
 762 0054 93870740 		addi	a5,a5,1024
 763 0058 13674700 		ori	a4,a4,4
 764 005c 98C3     		sw	a4,0(a5)
 278:../Firmware/GD32VW55x_standard_peripheral/Source/gd32vw55x_hau.c **** 
 279:../Firmware/GD32VW55x_standard_peripheral/Source/gd32vw55x_hau.c ****     /* continue restoring context registers */
 280:../Firmware/GD32VW55x_standard_peripheral/Source/gd32vw55x_hau.c ****     if(0U != (HAU_CTL & HAU_CTL_HMS)){
 765              		.loc 1 280 15
 766 005e B707064C 		li	a5,1275461632
 767 0062 93870740 		addi	a5,a5,1024
 768 0066 9C43     		lw	a5,0(a5)
 769              		.loc 1 280 23
 770 0068 93F70704 		andi	a5,a5,64
 771              		.loc 1 280 7
 772 006c 89C7     		beq	a5,zero,.L23
 281:../Firmware/GD32VW55x_standard_peripheral/Source/gd32vw55x_hau.c ****         i_max = HMAC_CONTEXT_INTERNAL_REG;
 773              		.loc 1 281 15
 774 006e 93075003 		li	a5,53
 775 0072 2307F4FE 		sb	a5,-18(s0)
 776              	.L23:
 282:../Firmware/GD32VW55x_standard_peripheral/Source/gd32vw55x_hau.c ****     }
 283:../Firmware/GD32VW55x_standard_peripheral/Source/gd32vw55x_hau.c ****     for(i = 0U; i <= i_max; i++){
 777              		.loc 1 283 11
 778 0076 A30704FE 		sb	zero,-17(s0)
 779              		.loc 1 283 5
 780 007a 3DA0     		j	.L24
 781              	.L25:
 284:../Firmware/GD32VW55x_standard_peripheral/Source/gd32vw55x_hau.c ****         HAU_CTXS(i) = context_restore->hau_ctxs_bak[i];
 782              		.loc 1 284 52 discriminator 3
 783 007c 8347F4FE 		lbu	a5,-17(s0)
 784              		.loc 1 284 9 discriminator 3
 785 0080 8346F4FE 		lbu	a3,-17(s0)
 786 0084 37870113 		li	a4,318865408
 787 0088 1307E713 		addi	a4,a4,318
 788 008c 3697     		add	a4,a3,a4
 789 008e 0A07     		slli	a4,a4,2
 790 0090 BA86     		mv	a3,a4
 791              		.loc 1 284 52 discriminator 3
 792 0092 0327C4FD 		lw	a4,-36(s0)
 793 0096 8A07     		slli	a5,a5,2
 794 0098 BA97     		add	a5,a4,a5
 795 009a DC47     		lw	a5,12(a5)
 796              		.loc 1 284 21 discriminator 3
 797 009c 9CC2     		sw	a5,0(a3)
 283:../Firmware/GD32VW55x_standard_peripheral/Source/gd32vw55x_hau.c ****         HAU_CTXS(i) = context_restore->hau_ctxs_bak[i];
 798              		.loc 1 283 30 discriminator 3
 799 009e 8347F4FE 		lbu	a5,-17(s0)
 800 00a2 8507     		addi	a5,a5,1
 801 00a4 A307F4FE 		sb	a5,-17(s0)
 802              	.L24:
 283:../Firmware/GD32VW55x_standard_peripheral/Source/gd32vw55x_hau.c ****         HAU_CTXS(i) = context_restore->hau_ctxs_bak[i];
 803              		.loc 1 283 5 discriminator 1
 804 00a8 0347F4FE 		lbu	a4,-17(s0)
 805 00ac 8347E4FE 		lbu	a5,-18(s0)
 806 00b0 E3F6E7FC 		bleu	a4,a5,.L25
 285:../Firmware/GD32VW55x_standard_peripheral/Source/gd32vw55x_hau.c ****     }
 286:../Firmware/GD32VW55x_standard_peripheral/Source/gd32vw55x_hau.c **** }
 807              		.loc 1 286 1
 808 00b4 0100     		nop
 809 00b6 0100     		nop
 810 00b8 3254     		lw	s0,44(sp)
 811              		.cfi_restore 8
 812              		.cfi_def_cfa 2, 48
 813 00ba 4561     		addi	sp,sp,48
 814              		.cfi_def_cfa_offset 0
 815 00bc 8280     		jr	ra
 816              		.cfi_endproc
 817              	.LFE361:
 819              		.section	.text.hau_flag_get,"ax",@progbits
 820              		.align	1
 821              		.globl	hau_flag_get
 823              	hau_flag_get:
 824              	.LFB362:
 287:../Firmware/GD32VW55x_standard_peripheral/Source/gd32vw55x_hau.c **** 
 288:../Firmware/GD32VW55x_standard_peripheral/Source/gd32vw55x_hau.c **** /*!
 289:../Firmware/GD32VW55x_standard_peripheral/Source/gd32vw55x_hau.c ****     \brief      get the HAU flag status
 290:../Firmware/GD32VW55x_standard_peripheral/Source/gd32vw55x_hau.c ****     \param[in]  flag: HAU flag status
 291:../Firmware/GD32VW55x_standard_peripheral/Source/gd32vw55x_hau.c ****                 only one parameter can be selected which is shown as below:
 292:../Firmware/GD32VW55x_standard_peripheral/Source/gd32vw55x_hau.c ****       \arg        HAU_FLAG_DATA_INPUT: there is enough space (16 bytes) in the input FIFO
 293:../Firmware/GD32VW55x_standard_peripheral/Source/gd32vw55x_hau.c ****       \arg        HAU_FLAG_CALCULATION_COMPLETE: digest calculation is completed
 294:../Firmware/GD32VW55x_standard_peripheral/Source/gd32vw55x_hau.c ****       \arg        HAU_FLAG_DMA: DMA is enabled (DMAE =1) or a transfer is processing
 295:../Firmware/GD32VW55x_standard_peripheral/Source/gd32vw55x_hau.c ****       \arg        HAU_FLAG_BUSY: data block is in process
 296:../Firmware/GD32VW55x_standard_peripheral/Source/gd32vw55x_hau.c ****       \arg        HAU_FLAG_INFIFO_NO_EMPTY: the input FIFO is not empty
 297:../Firmware/GD32VW55x_standard_peripheral/Source/gd32vw55x_hau.c ****     \param[out] none
 298:../Firmware/GD32VW55x_standard_peripheral/Source/gd32vw55x_hau.c ****     \retval     FlagStatus: SET or RESET
 299:../Firmware/GD32VW55x_standard_peripheral/Source/gd32vw55x_hau.c **** */
 300:../Firmware/GD32VW55x_standard_peripheral/Source/gd32vw55x_hau.c **** FlagStatus hau_flag_get(uint32_t flag)
 301:../Firmware/GD32VW55x_standard_peripheral/Source/gd32vw55x_hau.c **** {
 825              		.loc 1 301 1
 826              		.cfi_startproc
 827 0000 7971     		addi	sp,sp,-48
 828              		.cfi_def_cfa_offset 48
 829 0002 22D6     		sw	s0,44(sp)
 830              		.cfi_offset 8, -4
 831 0004 0018     		addi	s0,sp,48
 832              		.cfi_def_cfa 8, 0
 833 0006 232EA4FC 		sw	a0,-36(s0)
 302:../Firmware/GD32VW55x_standard_peripheral/Source/gd32vw55x_hau.c ****     uint32_t ret = 0U;
 834              		.loc 1 302 14
 835 000a 232604FE 		sw	zero,-20(s0)
 303:../Firmware/GD32VW55x_standard_peripheral/Source/gd32vw55x_hau.c ****     FlagStatus ret_flag = RESET;
 836              		.loc 1 303 16
 837 000e 232404FE 		sw	zero,-24(s0)
 304:../Firmware/GD32VW55x_standard_peripheral/Source/gd32vw55x_hau.c **** 
 305:../Firmware/GD32VW55x_standard_peripheral/Source/gd32vw55x_hau.c ****     /* check if the flag is in HAU_CTL register */
 306:../Firmware/GD32VW55x_standard_peripheral/Source/gd32vw55x_hau.c ****     if(RESET != (flag & HAU_FLAG_INFIFO_NO_EMPTY)){
 838              		.loc 1 306 23
 839 0012 0327C4FD 		lw	a4,-36(s0)
 840 0016 8567     		li	a5,4096
 841 0018 F98F     		and	a5,a4,a5
 842              		.loc 1 306 7
 843 001a 89CB     		beq	a5,zero,.L27
 307:../Firmware/GD32VW55x_standard_peripheral/Source/gd32vw55x_hau.c ****         ret = HAU_CTL;
 844              		.loc 1 307 15
 845 001c B707064C 		li	a5,1275461632
 846 0020 93870740 		addi	a5,a5,1024
 847              		.loc 1 307 13
 848 0024 9C43     		lw	a5,0(a5)
 849 0026 2326F4FE 		sw	a5,-20(s0)
 850 002a 01A8     		j	.L28
 851              	.L27:
 308:../Firmware/GD32VW55x_standard_peripheral/Source/gd32vw55x_hau.c ****     }else{
 309:../Firmware/GD32VW55x_standard_peripheral/Source/gd32vw55x_hau.c ****         ret = HAU_STAT;
 852              		.loc 1 309 15
 853 002c B707064C 		li	a5,1275461632
 854 0030 93874742 		addi	a5,a5,1060
 855              		.loc 1 309 13
 856 0034 9C43     		lw	a5,0(a5)
 857 0036 2326F4FE 		sw	a5,-20(s0)
 858              	.L28:
 310:../Firmware/GD32VW55x_standard_peripheral/Source/gd32vw55x_hau.c ****     }
 311:../Firmware/GD32VW55x_standard_peripheral/Source/gd32vw55x_hau.c **** 
 312:../Firmware/GD32VW55x_standard_peripheral/Source/gd32vw55x_hau.c ****     if (RESET != (ret & flag)){
 859              		.loc 1 312 23
 860 003a 0327C4FE 		lw	a4,-20(s0)
 861 003e 8327C4FD 		lw	a5,-36(s0)
 862 0042 F98F     		and	a5,a4,a5
 863              		.loc 1 312 8
 864 0044 81C7     		beq	a5,zero,.L29
 313:../Firmware/GD32VW55x_standard_peripheral/Source/gd32vw55x_hau.c ****         ret_flag = SET;
 865              		.loc 1 313 18
 866 0046 8547     		li	a5,1
 867 0048 2324F4FE 		sw	a5,-24(s0)
 868              	.L29:
 314:../Firmware/GD32VW55x_standard_peripheral/Source/gd32vw55x_hau.c ****     }
 315:../Firmware/GD32VW55x_standard_peripheral/Source/gd32vw55x_hau.c **** 
 316:../Firmware/GD32VW55x_standard_peripheral/Source/gd32vw55x_hau.c ****     return ret_flag;
 869              		.loc 1 316 12
 870 004c 832784FE 		lw	a5,-24(s0)
 317:../Firmware/GD32VW55x_standard_peripheral/Source/gd32vw55x_hau.c **** }
 871              		.loc 1 317 1
 872 0050 3E85     		mv	a0,a5
 873 0052 3254     		lw	s0,44(sp)
 874              		.cfi_restore 8
 875              		.cfi_def_cfa 2, 48
 876 0054 4561     		addi	sp,sp,48
 877              		.cfi_def_cfa_offset 0
 878 0056 8280     		jr	ra
 879              		.cfi_endproc
 880              	.LFE362:
 882              		.section	.text.hau_flag_clear,"ax",@progbits
 883              		.align	1
 884              		.globl	hau_flag_clear
 886              	hau_flag_clear:
 887              	.LFB363:
 318:../Firmware/GD32VW55x_standard_peripheral/Source/gd32vw55x_hau.c **** 
 319:../Firmware/GD32VW55x_standard_peripheral/Source/gd32vw55x_hau.c **** /*!
 320:../Firmware/GD32VW55x_standard_peripheral/Source/gd32vw55x_hau.c ****     \brief      clear the HAU flag status
 321:../Firmware/GD32VW55x_standard_peripheral/Source/gd32vw55x_hau.c ****     \param[in]  flag: HAU flag status
 322:../Firmware/GD32VW55x_standard_peripheral/Source/gd32vw55x_hau.c ****                 one or more parameters can be selected which are shown as below
 323:../Firmware/GD32VW55x_standard_peripheral/Source/gd32vw55x_hau.c ****       \arg        HAU_FLAG_DATA_INPUT: there is enough space (16 bytes) in the input FIFO
 324:../Firmware/GD32VW55x_standard_peripheral/Source/gd32vw55x_hau.c ****       \arg        HAU_FLAG_CALCULATION_COMPLETE: digest calculation is completed
 325:../Firmware/GD32VW55x_standard_peripheral/Source/gd32vw55x_hau.c ****     \param[out] none
 326:../Firmware/GD32VW55x_standard_peripheral/Source/gd32vw55x_hau.c ****     \retval     none
 327:../Firmware/GD32VW55x_standard_peripheral/Source/gd32vw55x_hau.c **** */
 328:../Firmware/GD32VW55x_standard_peripheral/Source/gd32vw55x_hau.c **** void hau_flag_clear(uint32_t flag)
 329:../Firmware/GD32VW55x_standard_peripheral/Source/gd32vw55x_hau.c **** {
 888              		.loc 1 329 1
 889              		.cfi_startproc
 890 0000 0111     		addi	sp,sp,-32
 891              		.cfi_def_cfa_offset 32
 892 0002 22CE     		sw	s0,28(sp)
 893              		.cfi_offset 8, -4
 894 0004 0010     		addi	s0,sp,32
 895              		.cfi_def_cfa 8, 0
 896 0006 2326A4FE 		sw	a0,-20(s0)
 330:../Firmware/GD32VW55x_standard_peripheral/Source/gd32vw55x_hau.c ****     HAU_STAT = ~(uint32_t)(flag);
 897              		.loc 1 330 5
 898 000a B707064C 		li	a5,1275461632
 899 000e 93874742 		addi	a5,a5,1060
 900              		.loc 1 330 16
 901 0012 0327C4FE 		lw	a4,-20(s0)
 902 0016 1347F7FF 		not	a4,a4
 903              		.loc 1 330 14
 904 001a 98C3     		sw	a4,0(a5)
 331:../Firmware/GD32VW55x_standard_peripheral/Source/gd32vw55x_hau.c **** }
 905              		.loc 1 331 1
 906 001c 0100     		nop
 907 001e 7244     		lw	s0,28(sp)
 908              		.cfi_restore 8
 909              		.cfi_def_cfa 2, 32
 910 0020 0561     		addi	sp,sp,32
 911              		.cfi_def_cfa_offset 0
 912 0022 8280     		jr	ra
 913              		.cfi_endproc
 914              	.LFE363:
 916              		.section	.text.hau_interrupt_enable,"ax",@progbits
 917              		.align	1
 918              		.globl	hau_interrupt_enable
 920              	hau_interrupt_enable:
 921              	.LFB364:
 332:../Firmware/GD32VW55x_standard_peripheral/Source/gd32vw55x_hau.c **** 
 333:../Firmware/GD32VW55x_standard_peripheral/Source/gd32vw55x_hau.c **** /*!
 334:../Firmware/GD32VW55x_standard_peripheral/Source/gd32vw55x_hau.c ****     \brief      enable the HAU interrupts
 335:../Firmware/GD32VW55x_standard_peripheral/Source/gd32vw55x_hau.c ****     \param[in]  interrupt: specify the HAU interrupt source to be enabled
 336:../Firmware/GD32VW55x_standard_peripheral/Source/gd32vw55x_hau.c ****                 one or more parameters can be selected which are shown as below
 337:../Firmware/GD32VW55x_standard_peripheral/Source/gd32vw55x_hau.c ****       \arg        HAU_INT_DATA_INPUT: a new block can be entered into the IN buffer
 338:../Firmware/GD32VW55x_standard_peripheral/Source/gd32vw55x_hau.c ****       \arg        HAU_INT_CALCULATION_COMPLETE: calculation complete
 339:../Firmware/GD32VW55x_standard_peripheral/Source/gd32vw55x_hau.c ****     \param[out] none
 340:../Firmware/GD32VW55x_standard_peripheral/Source/gd32vw55x_hau.c ****     \retval     none
 341:../Firmware/GD32VW55x_standard_peripheral/Source/gd32vw55x_hau.c **** */
 342:../Firmware/GD32VW55x_standard_peripheral/Source/gd32vw55x_hau.c **** void hau_interrupt_enable(uint32_t interrupt)
 343:../Firmware/GD32VW55x_standard_peripheral/Source/gd32vw55x_hau.c **** {
 922              		.loc 1 343 1
 923              		.cfi_startproc
 924 0000 0111     		addi	sp,sp,-32
 925              		.cfi_def_cfa_offset 32
 926 0002 22CE     		sw	s0,28(sp)
 927              		.cfi_offset 8, -4
 928 0004 0010     		addi	s0,sp,32
 929              		.cfi_def_cfa 8, 0
 930 0006 2326A4FE 		sw	a0,-20(s0)
 344:../Firmware/GD32VW55x_standard_peripheral/Source/gd32vw55x_hau.c ****     HAU_INTEN |= interrupt;
 931              		.loc 1 344 15
 932 000a B707064C 		li	a5,1275461632
 933 000e 93870742 		addi	a5,a5,1056
 934 0012 9443     		lw	a3,0(a5)
 935 0014 B707064C 		li	a5,1275461632
 936 0018 93870742 		addi	a5,a5,1056
 937 001c 0327C4FE 		lw	a4,-20(s0)
 938 0020 558F     		or	a4,a3,a4
 939 0022 98C3     		sw	a4,0(a5)
 345:../Firmware/GD32VW55x_standard_peripheral/Source/gd32vw55x_hau.c **** }
 940              		.loc 1 345 1
 941 0024 0100     		nop
 942 0026 7244     		lw	s0,28(sp)
 943              		.cfi_restore 8
 944              		.cfi_def_cfa 2, 32
 945 0028 0561     		addi	sp,sp,32
 946              		.cfi_def_cfa_offset 0
 947 002a 8280     		jr	ra
 948              		.cfi_endproc
 949              	.LFE364:
 951              		.section	.text.hau_interrupt_disable,"ax",@progbits
 952              		.align	1
 953              		.globl	hau_interrupt_disable
 955              	hau_interrupt_disable:
 956              	.LFB365:
 346:../Firmware/GD32VW55x_standard_peripheral/Source/gd32vw55x_hau.c **** 
 347:../Firmware/GD32VW55x_standard_peripheral/Source/gd32vw55x_hau.c **** /*!
 348:../Firmware/GD32VW55x_standard_peripheral/Source/gd32vw55x_hau.c ****     \brief      disable the HAU interrupts
 349:../Firmware/GD32VW55x_standard_peripheral/Source/gd32vw55x_hau.c ****     \param[in]  interrupt: specify the HAU interrupt source to be disabled
 350:../Firmware/GD32VW55x_standard_peripheral/Source/gd32vw55x_hau.c ****                 one or more parameters can be selected which are shown as below
 351:../Firmware/GD32VW55x_standard_peripheral/Source/gd32vw55x_hau.c ****       \arg        HAU_INT_DATA_INPUT: a new block can be entered into the IN buffer
 352:../Firmware/GD32VW55x_standard_peripheral/Source/gd32vw55x_hau.c ****       \arg        HAU_INT_CALCULATION_COMPLETE: calculation complete
 353:../Firmware/GD32VW55x_standard_peripheral/Source/gd32vw55x_hau.c ****     \param[out] none
 354:../Firmware/GD32VW55x_standard_peripheral/Source/gd32vw55x_hau.c ****     \retval     none
 355:../Firmware/GD32VW55x_standard_peripheral/Source/gd32vw55x_hau.c **** */
 356:../Firmware/GD32VW55x_standard_peripheral/Source/gd32vw55x_hau.c **** void hau_interrupt_disable(uint32_t interrupt)
 357:../Firmware/GD32VW55x_standard_peripheral/Source/gd32vw55x_hau.c **** {
 957              		.loc 1 357 1
 958              		.cfi_startproc
 959 0000 0111     		addi	sp,sp,-32
 960              		.cfi_def_cfa_offset 32
 961 0002 22CE     		sw	s0,28(sp)
 962              		.cfi_offset 8, -4
 963 0004 0010     		addi	s0,sp,32
 964              		.cfi_def_cfa 8, 0
 965 0006 2326A4FE 		sw	a0,-20(s0)
 358:../Firmware/GD32VW55x_standard_peripheral/Source/gd32vw55x_hau.c ****     HAU_INTEN &= ~(uint32_t)(interrupt);
 966              		.loc 1 358 15
 967 000a B707064C 		li	a5,1275461632
 968 000e 93870742 		addi	a5,a5,1056
 969 0012 9443     		lw	a3,0(a5)
 970              		.loc 1 358 18
 971 0014 8327C4FE 		lw	a5,-20(s0)
 972 0018 13C7F7FF 		not	a4,a5
 973              		.loc 1 358 15
 974 001c B707064C 		li	a5,1275461632
 975 0020 93870742 		addi	a5,a5,1056
 976 0024 758F     		and	a4,a3,a4
 977 0026 98C3     		sw	a4,0(a5)
 359:../Firmware/GD32VW55x_standard_peripheral/Source/gd32vw55x_hau.c **** }
 978              		.loc 1 359 1
 979 0028 0100     		nop
 980 002a 7244     		lw	s0,28(sp)
 981              		.cfi_restore 8
 982              		.cfi_def_cfa 2, 32
 983 002c 0561     		addi	sp,sp,32
 984              		.cfi_def_cfa_offset 0
 985 002e 8280     		jr	ra
 986              		.cfi_endproc
 987              	.LFE365:
 989              		.section	.text.hau_interrupt_flag_get,"ax",@progbits
 990              		.align	1
 991              		.globl	hau_interrupt_flag_get
 993              	hau_interrupt_flag_get:
 994              	.LFB366:
 360:../Firmware/GD32VW55x_standard_peripheral/Source/gd32vw55x_hau.c **** 
 361:../Firmware/GD32VW55x_standard_peripheral/Source/gd32vw55x_hau.c **** /*!
 362:../Firmware/GD32VW55x_standard_peripheral/Source/gd32vw55x_hau.c ****     \brief      get the HAU interrupt flag status
 363:../Firmware/GD32VW55x_standard_peripheral/Source/gd32vw55x_hau.c ****     \param[in]  int_flag: HAU interrupt flag status
 364:../Firmware/GD32VW55x_standard_peripheral/Source/gd32vw55x_hau.c ****                 only one parameter can be selected which is shown as below
 365:../Firmware/GD32VW55x_standard_peripheral/Source/gd32vw55x_hau.c ****       \arg        HAU_INT_FLAG_DATA_INPUT: there is enough space (16 bytes) in the input FIFO
 366:../Firmware/GD32VW55x_standard_peripheral/Source/gd32vw55x_hau.c ****       \arg        HAU_INT_FLAG_CALCULATION_COMPLETE: digest calculation is completed
 367:../Firmware/GD32VW55x_standard_peripheral/Source/gd32vw55x_hau.c ****     \param[out] none
 368:../Firmware/GD32VW55x_standard_peripheral/Source/gd32vw55x_hau.c ****     \retval     FlagStatus: SET or RESET
 369:../Firmware/GD32VW55x_standard_peripheral/Source/gd32vw55x_hau.c **** */
 370:../Firmware/GD32VW55x_standard_peripheral/Source/gd32vw55x_hau.c **** FlagStatus hau_interrupt_flag_get(uint32_t int_flag)
 371:../Firmware/GD32VW55x_standard_peripheral/Source/gd32vw55x_hau.c **** {
 995              		.loc 1 371 1
 996              		.cfi_startproc
 997 0000 7971     		addi	sp,sp,-48
 998              		.cfi_def_cfa_offset 48
 999 0002 22D6     		sw	s0,44(sp)
 1000              		.cfi_offset 8, -4
 1001 0004 0018     		addi	s0,sp,48
 1002              		.cfi_def_cfa 8, 0
 1003 0006 232EA4FC 		sw	a0,-36(s0)
 372:../Firmware/GD32VW55x_standard_peripheral/Source/gd32vw55x_hau.c ****     uint32_t ret = 0U;
 1004              		.loc 1 372 14
 1005 000a 232404FE 		sw	zero,-24(s0)
 373:../Firmware/GD32VW55x_standard_peripheral/Source/gd32vw55x_hau.c ****     FlagStatus flag = RESET;
 1006              		.loc 1 373 16
 1007 000e 232604FE 		sw	zero,-20(s0)
 374:../Firmware/GD32VW55x_standard_peripheral/Source/gd32vw55x_hau.c **** 
 375:../Firmware/GD32VW55x_standard_peripheral/Source/gd32vw55x_hau.c ****     /* return the status of the interrupt */
 376:../Firmware/GD32VW55x_standard_peripheral/Source/gd32vw55x_hau.c ****     ret =  HAU_STAT;
 1008              		.loc 1 376 12
 1009 0012 B707064C 		li	a5,1275461632
 1010 0016 93874742 		addi	a5,a5,1060
 1011              		.loc 1 376 9
 1012 001a 9C43     		lw	a5,0(a5)
 1013 001c 2324F4FE 		sw	a5,-24(s0)
 377:../Firmware/GD32VW55x_standard_peripheral/Source/gd32vw55x_hau.c **** 
 378:../Firmware/GD32VW55x_standard_peripheral/Source/gd32vw55x_hau.c ****     if(RESET != ((HAU_INTEN & ret) & int_flag)){
 1014              		.loc 1 378 19
 1015 0020 B707064C 		li	a5,1275461632
 1016 0024 93870742 		addi	a5,a5,1056
 1017 0028 9843     		lw	a4,0(a5)
 1018              		.loc 1 378 29
 1019 002a 832784FE 		lw	a5,-24(s0)
 1020 002e 7D8F     		and	a4,a4,a5
 1021              		.loc 1 378 36
 1022 0030 8327C4FD 		lw	a5,-36(s0)
 1023 0034 F98F     		and	a5,a4,a5
 1024              		.loc 1 378 7
 1025 0036 81C7     		beq	a5,zero,.L35
 379:../Firmware/GD32VW55x_standard_peripheral/Source/gd32vw55x_hau.c ****         flag = SET;
 1026              		.loc 1 379 14
 1027 0038 8547     		li	a5,1
 1028 003a 2326F4FE 		sw	a5,-20(s0)
 1029              	.L35:
 380:../Firmware/GD32VW55x_standard_peripheral/Source/gd32vw55x_hau.c ****     }
 381:../Firmware/GD32VW55x_standard_peripheral/Source/gd32vw55x_hau.c **** 
 382:../Firmware/GD32VW55x_standard_peripheral/Source/gd32vw55x_hau.c ****     return flag;
 1030              		.loc 1 382 12
 1031 003e 8327C4FE 		lw	a5,-20(s0)
 383:../Firmware/GD32VW55x_standard_peripheral/Source/gd32vw55x_hau.c **** }
 1032              		.loc 1 383 1
 1033 0042 3E85     		mv	a0,a5
 1034 0044 3254     		lw	s0,44(sp)
 1035              		.cfi_restore 8
 1036              		.cfi_def_cfa 2, 48
 1037 0046 4561     		addi	sp,sp,48
 1038              		.cfi_def_cfa_offset 0
 1039 0048 8280     		jr	ra
 1040              		.cfi_endproc
 1041              	.LFE366:
 1043              		.section	.text.hau_interrupt_flag_clear,"ax",@progbits
 1044              		.align	1
 1045              		.globl	hau_interrupt_flag_clear
 1047              	hau_interrupt_flag_clear:
 1048              	.LFB367:
 384:../Firmware/GD32VW55x_standard_peripheral/Source/gd32vw55x_hau.c **** 
 385:../Firmware/GD32VW55x_standard_peripheral/Source/gd32vw55x_hau.c **** /*!
 386:../Firmware/GD32VW55x_standard_peripheral/Source/gd32vw55x_hau.c ****     \brief      clear the HAU interrupt flag status
 387:../Firmware/GD32VW55x_standard_peripheral/Source/gd32vw55x_hau.c ****     \param[in]  int_flag: HAU interrupt flag status
 388:../Firmware/GD32VW55x_standard_peripheral/Source/gd32vw55x_hau.c ****                 one or more parameters can be selected which are shown as below
 389:../Firmware/GD32VW55x_standard_peripheral/Source/gd32vw55x_hau.c ****       \arg        HAU_INT_FLAG_DATA_INPUT: there is enough space (16 bytes) in the input FIFO
 390:../Firmware/GD32VW55x_standard_peripheral/Source/gd32vw55x_hau.c ****       \arg        HAU_INT_FLAG_CALCULATION_COMPLETE: digest calculation is completed
 391:../Firmware/GD32VW55x_standard_peripheral/Source/gd32vw55x_hau.c ****     \param[out] none
 392:../Firmware/GD32VW55x_standard_peripheral/Source/gd32vw55x_hau.c ****     \retval     none
 393:../Firmware/GD32VW55x_standard_peripheral/Source/gd32vw55x_hau.c **** */
 394:../Firmware/GD32VW55x_standard_peripheral/Source/gd32vw55x_hau.c **** void hau_interrupt_flag_clear(uint32_t int_flag)
 395:../Firmware/GD32VW55x_standard_peripheral/Source/gd32vw55x_hau.c **** {
 1049              		.loc 1 395 1
 1050              		.cfi_startproc
 1051 0000 0111     		addi	sp,sp,-32
 1052              		.cfi_def_cfa_offset 32
 1053 0002 22CE     		sw	s0,28(sp)
 1054              		.cfi_offset 8, -4
 1055 0004 0010     		addi	s0,sp,32
 1056              		.cfi_def_cfa 8, 0
 1057 0006 2326A4FE 		sw	a0,-20(s0)
 396:../Firmware/GD32VW55x_standard_peripheral/Source/gd32vw55x_hau.c ****     HAU_STAT = ~(uint32_t)(int_flag);
 1058              		.loc 1 396 5
 1059 000a B707064C 		li	a5,1275461632
 1060 000e 93874742 		addi	a5,a5,1060
 1061              		.loc 1 396 16
 1062 0012 0327C4FE 		lw	a4,-20(s0)
 1063 0016 1347F7FF 		not	a4,a4
 1064              		.loc 1 396 14
 1065 001a 98C3     		sw	a4,0(a5)
 397:../Firmware/GD32VW55x_standard_peripheral/Source/gd32vw55x_hau.c **** }
 1066              		.loc 1 397 1
 1067 001c 0100     		nop
 1068 001e 7244     		lw	s0,28(sp)
 1069              		.cfi_restore 8
 1070              		.cfi_def_cfa 2, 32
 1071 0020 0561     		addi	sp,sp,32
 1072              		.cfi_def_cfa_offset 0
 1073 0022 8280     		jr	ra
 1074              		.cfi_endproc
 1075              	.LFE367:
 1077              		.text
 1078              	.Letext0:
 1079              		.file 2 "e:\\gd32\\gd32embeddedbuilder_v1.5.2.30854\\tools\\nuclei_riscv_newlibc_prebuilt_win32_20
 1080              		.file 3 "e:\\gd32\\gd32embeddedbuilder_v1.5.2.30854\\tools\\nuclei_riscv_newlibc_prebuilt_win32_20
 1081              		.file 4 "../Firmware/GD32VW55x_standard_peripheral/gd32vw55x.h"
 1082              		.file 5 "../Firmware/GD32VW55x_standard_peripheral/Include/gd32vw55x_rcu.h"
 1083              		.file 6 "../Firmware/GD32VW55x_standard_peripheral/Include/gd32vw55x_hau.h"
DEFINED SYMBOLS
                            *ABS*:0000000000000000 gd32vw55x_hau.c
C:\Users\CYMR90~1\AppData\Local\Temp\ccxAEgth.s:13     .text.hau_deinit:0000000000000000 hau_deinit
C:\Users\CYMR90~1\AppData\Local\Temp\ccxAEgth.s:17     .text.hau_deinit:0000000000000000 .L0 
C:\Users\CYMR90~1\AppData\Local\Temp\ccxAEgth.s:18     .text.hau_deinit:0000000000000000 .L0 
C:\Users\CYMR90~1\AppData\Local\Temp\ccxAEgth.s:19     .text.hau_deinit:0000000000000002 .L0 
C:\Users\CYMR90~1\AppData\Local\Temp\ccxAEgth.s:22     .text.hau_deinit:0000000000000006 .L0 
C:\Users\CYMR90~1\AppData\Local\Temp\ccxAEgth.s:23     .text.hau_deinit:0000000000000006 .L0 
C:\Users\CYMR90~1\AppData\Local\Temp\ccxAEgth.s:25     .text.hau_deinit:0000000000000008 .L0 
C:\Users\CYMR90~1\AppData\Local\Temp\ccxAEgth.s:27     .text.hau_deinit:0000000000000008 .L0 
C:\Users\CYMR90~1\AppData\Local\Temp\ccxAEgth.s:30     .text.hau_deinit:0000000000000014 .L0 
C:\Users\CYMR90~1\AppData\Local\Temp\ccxAEgth.s:33     .text.hau_deinit:0000000000000020 .L0 
C:\Users\CYMR90~1\AppData\Local\Temp\ccxAEgth.s:35     .text.hau_deinit:0000000000000024 .L0 
C:\Users\CYMR90~1\AppData\Local\Temp\ccxAEgth.s:37     .text.hau_deinit:0000000000000026 .L0 
C:\Users\CYMR90~1\AppData\Local\Temp\ccxAEgth.s:38     .text.hau_deinit:0000000000000026 .L0 
C:\Users\CYMR90~1\AppData\Local\Temp\ccxAEgth.s:40     .text.hau_deinit:0000000000000028 .L0 
C:\Users\CYMR90~1\AppData\Local\Temp\ccxAEgth.s:42     .text.hau_deinit:000000000000002a .L0 
C:\Users\CYMR90~1\AppData\Local\Temp\ccxAEgth.s:49     .text.hau_init:0000000000000000 hau_init
C:\Users\CYMR90~1\AppData\Local\Temp\ccxAEgth.s:52     .text.hau_init:0000000000000000 .L0 
C:\Users\CYMR90~1\AppData\Local\Temp\ccxAEgth.s:53     .text.hau_init:0000000000000000 .L0 
C:\Users\CYMR90~1\AppData\Local\Temp\ccxAEgth.s:54     .text.hau_init:0000000000000002 .L0 
C:\Users\CYMR90~1\AppData\Local\Temp\ccxAEgth.s:56     .text.hau_init:0000000000000004 .L0 
C:\Users\CYMR90~1\AppData\Local\Temp\ccxAEgth.s:58     .text.hau_init:0000000000000006 .L0 
C:\Users\CYMR90~1\AppData\Local\Temp\ccxAEgth.s:61     .text.hau_init:000000000000000a .L0 
C:\Users\CYMR90~1\AppData\Local\Temp\ccxAEgth.s:71     .text.hau_init:0000000000000028 .L0 
C:\Users\CYMR90~1\AppData\Local\Temp\ccxAEgth.s:75     .text.hau_init:0000000000000032 .L0 
C:\Users\CYMR90~1\AppData\Local\Temp\ccxAEgth.s:78     .text.hau_init:0000000000000038 .L0 
C:\Users\CYMR90~1\AppData\Local\Temp\ccxAEgth.s:81     .text.hau_init:000000000000003e .L0 
C:\Users\CYMR90~1\AppData\Local\Temp\ccxAEgth.s:83     .text.hau_init:0000000000000040 .L0 
C:\Users\CYMR90~1\AppData\Local\Temp\ccxAEgth.s:86     .text.hau_init:0000000000000046 .L0 
C:\Users\CYMR90~1\AppData\Local\Temp\ccxAEgth.s:88     .text.hau_init:0000000000000048 .L0 
C:\Users\CYMR90~1\AppData\Local\Temp\ccxAEgth.s:93     .text.hau_init:0000000000000054 .L0 
C:\Users\CYMR90~1\AppData\Local\Temp\ccxAEgth.s:96     .text.hau_init:000000000000005a .L0 
C:\Users\CYMR90~1\AppData\Local\Temp\ccxAEgth.s:99     .text.hau_init:0000000000000062 .L0 
C:\Users\CYMR90~1\AppData\Local\Temp\ccxAEgth.s:109    .text.hau_init:000000000000007c .L0 
C:\Users\CYMR90~1\AppData\Local\Temp\ccxAEgth.s:113    .text.hau_init:0000000000000086 .L0 
C:\Users\CYMR90~1\AppData\Local\Temp\ccxAEgth.s:116    .text.hau_init:000000000000008c .L0 
C:\Users\CYMR90~1\AppData\Local\Temp\ccxAEgth.s:122    .text.hau_init:0000000000000098 .L0 
C:\Users\CYMR90~1\AppData\Local\Temp\ccxAEgth.s:130    .text.hau_init:00000000000000b0 .L0 
C:\Users\CYMR90~1\AppData\Local\Temp\ccxAEgth.s:132    .text.hau_init:00000000000000b4 .L0 
C:\Users\CYMR90~1\AppData\Local\Temp\ccxAEgth.s:133    .text.hau_init:00000000000000b4 .L0 
C:\Users\CYMR90~1\AppData\Local\Temp\ccxAEgth.s:135    .text.hau_init:00000000000000b6 .L0 
C:\Users\CYMR90~1\AppData\Local\Temp\ccxAEgth.s:137    .text.hau_init:00000000000000b8 .L0 
C:\Users\CYMR90~1\AppData\Local\Temp\ccxAEgth.s:144    .text.hau_init_struct_para_init:0000000000000000 hau_init_struct_para_init
C:\Users\CYMR90~1\AppData\Local\Temp\ccxAEgth.s:147    .text.hau_init_struct_para_init:0000000000000000 .L0 
C:\Users\CYMR90~1\AppData\Local\Temp\ccxAEgth.s:148    .text.hau_init_struct_para_init:0000000000000000 .L0 
C:\Users\CYMR90~1\AppData\Local\Temp\ccxAEgth.s:149    .text.hau_init_struct_para_init:0000000000000002 .L0 
C:\Users\CYMR90~1\AppData\Local\Temp\ccxAEgth.s:151    .text.hau_init_struct_para_init:0000000000000004 .L0 
C:\Users\CYMR90~1\AppData\Local\Temp\ccxAEgth.s:153    .text.hau_init_struct_para_init:0000000000000006 .L0 
C:\Users\CYMR90~1\AppData\Local\Temp\ccxAEgth.s:156    .text.hau_init_struct_para_init:000000000000000a .L0 
C:\Users\CYMR90~1\AppData\Local\Temp\ccxAEgth.s:159    .text.hau_init_struct_para_init:0000000000000012 .L0 
C:\Users\CYMR90~1\AppData\Local\Temp\ccxAEgth.s:162    .text.hau_init_struct_para_init:000000000000001a .L0 
C:\Users\CYMR90~1\AppData\Local\Temp\ccxAEgth.s:165    .text.hau_init_struct_para_init:0000000000000022 .L0 
C:\Users\CYMR90~1\AppData\Local\Temp\ccxAEgth.s:168    .text.hau_init_struct_para_init:000000000000002a .L0 
C:\Users\CYMR90~1\AppData\Local\Temp\ccxAEgth.s:170    .text.hau_init_struct_para_init:000000000000002e .L0 
C:\Users\CYMR90~1\AppData\Local\Temp\ccxAEgth.s:171    .text.hau_init_struct_para_init:000000000000002e .L0 
C:\Users\CYMR90~1\AppData\Local\Temp\ccxAEgth.s:173    .text.hau_init_struct_para_init:0000000000000030 .L0 
C:\Users\CYMR90~1\AppData\Local\Temp\ccxAEgth.s:175    .text.hau_init_struct_para_init:0000000000000032 .L0 
C:\Users\CYMR90~1\AppData\Local\Temp\ccxAEgth.s:182    .text.hau_reset:0000000000000000 hau_reset
C:\Users\CYMR90~1\AppData\Local\Temp\ccxAEgth.s:185    .text.hau_reset:0000000000000000 .L0 
C:\Users\CYMR90~1\AppData\Local\Temp\ccxAEgth.s:186    .text.hau_reset:0000000000000000 .L0 
C:\Users\CYMR90~1\AppData\Local\Temp\ccxAEgth.s:187    .text.hau_reset:0000000000000002 .L0 
C:\Users\CYMR90~1\AppData\Local\Temp\ccxAEgth.s:189    .text.hau_reset:0000000000000004 .L0 
C:\Users\CYMR90~1\AppData\Local\Temp\ccxAEgth.s:191    .text.hau_reset:0000000000000006 .L0 
C:\Users\CYMR90~1\AppData\Local\Temp\ccxAEgth.s:193    .text.hau_reset:0000000000000006 .L0 
C:\Users\CYMR90~1\AppData\Local\Temp\ccxAEgth.s:201    .text.hau_reset:000000000000001e .L0 
C:\Users\CYMR90~1\AppData\Local\Temp\ccxAEgth.s:203    .text.hau_reset:0000000000000022 .L0 
C:\Users\CYMR90~1\AppData\Local\Temp\ccxAEgth.s:204    .text.hau_reset:0000000000000022 .L0 
C:\Users\CYMR90~1\AppData\Local\Temp\ccxAEgth.s:206    .text.hau_reset:0000000000000024 .L0 
C:\Users\CYMR90~1\AppData\Local\Temp\ccxAEgth.s:208    .text.hau_reset:0000000000000026 .L0 
C:\Users\CYMR90~1\AppData\Local\Temp\ccxAEgth.s:215    .text.hau_last_word_validbits_num_config:0000000000000000 hau_last_word_validbits_num_config
C:\Users\CYMR90~1\AppData\Local\Temp\ccxAEgth.s:218    .text.hau_last_word_validbits_num_config:0000000000000000 .L0 
C:\Users\CYMR90~1\AppData\Local\Temp\ccxAEgth.s:219    .text.hau_last_word_validbits_num_config:0000000000000000 .L0 
C:\Users\CYMR90~1\AppData\Local\Temp\ccxAEgth.s:220    .text.hau_last_word_validbits_num_config:0000000000000002 .L0 
C:\Users\CYMR90~1\AppData\Local\Temp\ccxAEgth.s:222    .text.hau_last_word_validbits_num_config:0000000000000004 .L0 
C:\Users\CYMR90~1\AppData\Local\Temp\ccxAEgth.s:224    .text.hau_last_word_validbits_num_config:0000000000000006 .L0 
C:\Users\CYMR90~1\AppData\Local\Temp\ccxAEgth.s:227    .text.hau_last_word_validbits_num_config:000000000000000a .L0 
C:\Users\CYMR90~1\AppData\Local\Temp\ccxAEgth.s:235    .text.hau_last_word_validbits_num_config:0000000000000020 .L0 
C:\Users\CYMR90~1\AppData\Local\Temp\ccxAEgth.s:239    .text.hau_last_word_validbits_num_config:000000000000002a .L0 
C:\Users\CYMR90~1\AppData\Local\Temp\ccxAEgth.s:242    .text.hau_last_word_validbits_num_config:0000000000000032 .L0 
C:\Users\CYMR90~1\AppData\Local\Temp\ccxAEgth.s:247    .text.hau_last_word_validbits_num_config:000000000000003e .L0 
C:\Users\CYMR90~1\AppData\Local\Temp\ccxAEgth.s:249    .text.hau_last_word_validbits_num_config:0000000000000042 .L0 
C:\Users\CYMR90~1\AppData\Local\Temp\ccxAEgth.s:250    .text.hau_last_word_validbits_num_config:0000000000000042 .L0 
C:\Users\CYMR90~1\AppData\Local\Temp\ccxAEgth.s:252    .text.hau_last_word_validbits_num_config:0000000000000044 .L0 
C:\Users\CYMR90~1\AppData\Local\Temp\ccxAEgth.s:254    .text.hau_last_word_validbits_num_config:0000000000000046 .L0 
C:\Users\CYMR90~1\AppData\Local\Temp\ccxAEgth.s:261    .text.hau_data_write:0000000000000000 hau_data_write
C:\Users\CYMR90~1\AppData\Local\Temp\ccxAEgth.s:264    .text.hau_data_write:0000000000000000 .L0 
C:\Users\CYMR90~1\AppData\Local\Temp\ccxAEgth.s:265    .text.hau_data_write:0000000000000000 .L0 
C:\Users\CYMR90~1\AppData\Local\Temp\ccxAEgth.s:266    .text.hau_data_write:0000000000000002 .L0 
C:\Users\CYMR90~1\AppData\Local\Temp\ccxAEgth.s:268    .text.hau_data_write:0000000000000004 .L0 
C:\Users\CYMR90~1\AppData\Local\Temp\ccxAEgth.s:270    .text.hau_data_write:0000000000000006 .L0 
C:\Users\CYMR90~1\AppData\Local\Temp\ccxAEgth.s:273    .text.hau_data_write:000000000000000a .L0 
C:\Users\CYMR90~1\AppData\Local\Temp\ccxAEgth.s:276    .text.hau_data_write:0000000000000012 .L0 
C:\Users\CYMR90~1\AppData\Local\Temp\ccxAEgth.s:279    .text.hau_data_write:0000000000000018 .L0 
C:\Users\CYMR90~1\AppData\Local\Temp\ccxAEgth.s:281    .text.hau_data_write:000000000000001c .L0 
C:\Users\CYMR90~1\AppData\Local\Temp\ccxAEgth.s:282    .text.hau_data_write:000000000000001c .L0 
C:\Users\CYMR90~1\AppData\Local\Temp\ccxAEgth.s:284    .text.hau_data_write:000000000000001e .L0 
C:\Users\CYMR90~1\AppData\Local\Temp\ccxAEgth.s:286    .text.hau_data_write:0000000000000020 .L0 
C:\Users\CYMR90~1\AppData\Local\Temp\ccxAEgth.s:293    .text.hau_infifo_words_num_get:0000000000000000 hau_infifo_words_num_get
C:\Users\CYMR90~1\AppData\Local\Temp\ccxAEgth.s:296    .text.hau_infifo_words_num_get:0000000000000000 .L0 
C:\Users\CYMR90~1\AppData\Local\Temp\ccxAEgth.s:297    .text.hau_infifo_words_num_get:0000000000000000 .L0 
C:\Users\CYMR90~1\AppData\Local\Temp\ccxAEgth.s:298    .text.hau_infifo_words_num_get:0000000000000002 .L0 
C:\Users\CYMR90~1\AppData\Local\Temp\ccxAEgth.s:300    .text.hau_infifo_words_num_get:0000000000000004 .L0 
C:\Users\CYMR90~1\AppData\Local\Temp\ccxAEgth.s:302    .text.hau_infifo_words_num_get:0000000000000006 .L0 
C:\Users\CYMR90~1\AppData\Local\Temp\ccxAEgth.s:304    .text.hau_infifo_words_num_get:0000000000000006 .L0 
C:\Users\CYMR90~1\AppData\Local\Temp\ccxAEgth.s:306    .text.hau_infifo_words_num_get:000000000000000a .L0 
C:\Users\CYMR90~1\AppData\Local\Temp\ccxAEgth.s:311    .text.hau_infifo_words_num_get:0000000000000016 .L0 
C:\Users\CYMR90~1\AppData\Local\Temp\ccxAEgth.s:314    .text.hau_infifo_words_num_get:000000000000001c .L0 
C:\Users\CYMR90~1\AppData\Local\Temp\ccxAEgth.s:316    .text.hau_infifo_words_num_get:0000000000000020 .L0 
C:\Users\CYMR90~1\AppData\Local\Temp\ccxAEgth.s:318    .text.hau_infifo_words_num_get:0000000000000024 .L0 
C:\Users\CYMR90~1\AppData\Local\Temp\ccxAEgth.s:319    .text.hau_infifo_words_num_get:0000000000000024 .L0 
C:\Users\CYMR90~1\AppData\Local\Temp\ccxAEgth.s:321    .text.hau_infifo_words_num_get:0000000000000026 .L0 
C:\Users\CYMR90~1\AppData\Local\Temp\ccxAEgth.s:323    .text.hau_infifo_words_num_get:0000000000000028 .L0 
C:\Users\CYMR90~1\AppData\Local\Temp\ccxAEgth.s:330    .text.hau_digest_read:0000000000000000 hau_digest_read
C:\Users\CYMR90~1\AppData\Local\Temp\ccxAEgth.s:333    .text.hau_digest_read:0000000000000000 .L0 
C:\Users\CYMR90~1\AppData\Local\Temp\ccxAEgth.s:334    .text.hau_digest_read:0000000000000000 .L0 
C:\Users\CYMR90~1\AppData\Local\Temp\ccxAEgth.s:335    .text.hau_digest_read:0000000000000002 .L0 
C:\Users\CYMR90~1\AppData\Local\Temp\ccxAEgth.s:337    .text.hau_digest_read:0000000000000004 .L0 
C:\Users\CYMR90~1\AppData\Local\Temp\ccxAEgth.s:339    .text.hau_digest_read:0000000000000006 .L0 
C:\Users\CYMR90~1\AppData\Local\Temp\ccxAEgth.s:342    .text.hau_digest_read:000000000000000a .L0 
C:\Users\CYMR90~1\AppData\Local\Temp\ccxAEgth.s:346    .text.hau_digest_read:0000000000000014 .L0 
C:\Users\CYMR90~1\AppData\Local\Temp\ccxAEgth.s:349    .text.hau_digest_read:000000000000001a .L0 
C:\Users\CYMR90~1\AppData\Local\Temp\ccxAEgth.s:353    .text.hau_digest_read:0000000000000024 .L0 
C:\Users\CYMR90~1\AppData\Local\Temp\ccxAEgth.s:356    .text.hau_digest_read:000000000000002a .L0 
C:\Users\CYMR90~1\AppData\Local\Temp\ccxAEgth.s:360    .text.hau_digest_read:0000000000000034 .L0 
C:\Users\CYMR90~1\AppData\Local\Temp\ccxAEgth.s:363    .text.hau_digest_read:000000000000003a .L0 
C:\Users\CYMR90~1\AppData\Local\Temp\ccxAEgth.s:367    .text.hau_digest_read:0000000000000044 .L0 
C:\Users\CYMR90~1\AppData\Local\Temp\ccxAEgth.s:370    .text.hau_digest_read:000000000000004a .L0 
C:\Users\CYMR90~1\AppData\Local\Temp\ccxAEgth.s:374    .text.hau_digest_read:0000000000000054 .L0 
C:\Users\CYMR90~1\AppData\Local\Temp\ccxAEgth.s:377    .text.hau_digest_read:000000000000005a .L0 
C:\Users\CYMR90~1\AppData\Local\Temp\ccxAEgth.s:381    .text.hau_digest_read:0000000000000064 .L0 
C:\Users\CYMR90~1\AppData\Local\Temp\ccxAEgth.s:384    .text.hau_digest_read:000000000000006a .L0 
C:\Users\CYMR90~1\AppData\Local\Temp\ccxAEgth.s:388    .text.hau_digest_read:0000000000000074 .L0 
C:\Users\CYMR90~1\AppData\Local\Temp\ccxAEgth.s:391    .text.hau_digest_read:000000000000007a .L0 
C:\Users\CYMR90~1\AppData\Local\Temp\ccxAEgth.s:395    .text.hau_digest_read:0000000000000084 .L0 
C:\Users\CYMR90~1\AppData\Local\Temp\ccxAEgth.s:398    .text.hau_digest_read:000000000000008a .L0 
C:\Users\CYMR90~1\AppData\Local\Temp\ccxAEgth.s:400    .text.hau_digest_read:000000000000008e .L0 
C:\Users\CYMR90~1\AppData\Local\Temp\ccxAEgth.s:401    .text.hau_digest_read:000000000000008e .L0 
C:\Users\CYMR90~1\AppData\Local\Temp\ccxAEgth.s:403    .text.hau_digest_read:0000000000000090 .L0 
C:\Users\CYMR90~1\AppData\Local\Temp\ccxAEgth.s:405    .text.hau_digest_read:0000000000000092 .L0 
C:\Users\CYMR90~1\AppData\Local\Temp\ccxAEgth.s:412    .text.hau_digest_calculation_enable:0000000000000000 hau_digest_calculation_enable
C:\Users\CYMR90~1\AppData\Local\Temp\ccxAEgth.s:415    .text.hau_digest_calculation_enable:0000000000000000 .L0 
C:\Users\CYMR90~1\AppData\Local\Temp\ccxAEgth.s:416    .text.hau_digest_calculation_enable:0000000000000000 .L0 
C:\Users\CYMR90~1\AppData\Local\Temp\ccxAEgth.s:417    .text.hau_digest_calculation_enable:0000000000000002 .L0 
C:\Users\CYMR90~1\AppData\Local\Temp\ccxAEgth.s:419    .text.hau_digest_calculation_enable:0000000000000004 .L0 
C:\Users\CYMR90~1\AppData\Local\Temp\ccxAEgth.s:421    .text.hau_digest_calculation_enable:0000000000000006 .L0 
C:\Users\CYMR90~1\AppData\Local\Temp\ccxAEgth.s:423    .text.hau_digest_calculation_enable:0000000000000006 .L0 
C:\Users\CYMR90~1\AppData\Local\Temp\ccxAEgth.s:431    .text.hau_digest_calculation_enable:000000000000001e .L0 
C:\Users\CYMR90~1\AppData\Local\Temp\ccxAEgth.s:433    .text.hau_digest_calculation_enable:0000000000000022 .L0 
C:\Users\CYMR90~1\AppData\Local\Temp\ccxAEgth.s:434    .text.hau_digest_calculation_enable:0000000000000022 .L0 
C:\Users\CYMR90~1\AppData\Local\Temp\ccxAEgth.s:436    .text.hau_digest_calculation_enable:0000000000000024 .L0 
C:\Users\CYMR90~1\AppData\Local\Temp\ccxAEgth.s:438    .text.hau_digest_calculation_enable:0000000000000026 .L0 
C:\Users\CYMR90~1\AppData\Local\Temp\ccxAEgth.s:445    .text.hau_multiple_single_dma_config:0000000000000000 hau_multiple_single_dma_config
C:\Users\CYMR90~1\AppData\Local\Temp\ccxAEgth.s:448    .text.hau_multiple_single_dma_config:0000000000000000 .L0 
C:\Users\CYMR90~1\AppData\Local\Temp\ccxAEgth.s:449    .text.hau_multiple_single_dma_config:0000000000000000 .L0 
C:\Users\CYMR90~1\AppData\Local\Temp\ccxAEgth.s:450    .text.hau_multiple_single_dma_config:0000000000000002 .L0 
C:\Users\CYMR90~1\AppData\Local\Temp\ccxAEgth.s:452    .text.hau_multiple_single_dma_config:0000000000000004 .L0 
C:\Users\CYMR90~1\AppData\Local\Temp\ccxAEgth.s:454    .text.hau_multiple_single_dma_config:0000000000000006 .L0 
C:\Users\CYMR90~1\AppData\Local\Temp\ccxAEgth.s:457    .text.hau_multiple_single_dma_config:000000000000000a .L0 
C:\Users\CYMR90~1\AppData\Local\Temp\ccxAEgth.s:467    .text.hau_multiple_single_dma_config:0000000000000024 .L0 
C:\Users\CYMR90~1\AppData\Local\Temp\ccxAEgth.s:476    .text.hau_multiple_single_dma_config:000000000000003e .L0 
C:\Users\CYMR90~1\AppData\Local\Temp\ccxAEgth.s:478    .text.hau_multiple_single_dma_config:0000000000000042 .L0 
C:\Users\CYMR90~1\AppData\Local\Temp\ccxAEgth.s:479    .text.hau_multiple_single_dma_config:0000000000000042 .L0 
C:\Users\CYMR90~1\AppData\Local\Temp\ccxAEgth.s:481    .text.hau_multiple_single_dma_config:0000000000000044 .L0 
C:\Users\CYMR90~1\AppData\Local\Temp\ccxAEgth.s:483    .text.hau_multiple_single_dma_config:0000000000000046 .L0 
C:\Users\CYMR90~1\AppData\Local\Temp\ccxAEgth.s:490    .text.hau_dma_enable:0000000000000000 hau_dma_enable
C:\Users\CYMR90~1\AppData\Local\Temp\ccxAEgth.s:493    .text.hau_dma_enable:0000000000000000 .L0 
C:\Users\CYMR90~1\AppData\Local\Temp\ccxAEgth.s:494    .text.hau_dma_enable:0000000000000000 .L0 
C:\Users\CYMR90~1\AppData\Local\Temp\ccxAEgth.s:495    .text.hau_dma_enable:0000000000000002 .L0 
C:\Users\CYMR90~1\AppData\Local\Temp\ccxAEgth.s:497    .text.hau_dma_enable:0000000000000004 .L0 
C:\Users\CYMR90~1\AppData\Local\Temp\ccxAEgth.s:499    .text.hau_dma_enable:0000000000000006 .L0 
C:\Users\CYMR90~1\AppData\Local\Temp\ccxAEgth.s:501    .text.hau_dma_enable:0000000000000006 .L0 
C:\Users\CYMR90~1\AppData\Local\Temp\ccxAEgth.s:509    .text.hau_dma_enable:000000000000001e .L0 
C:\Users\CYMR90~1\AppData\Local\Temp\ccxAEgth.s:511    .text.hau_dma_enable:0000000000000022 .L0 
C:\Users\CYMR90~1\AppData\Local\Temp\ccxAEgth.s:512    .text.hau_dma_enable:0000000000000022 .L0 
C:\Users\CYMR90~1\AppData\Local\Temp\ccxAEgth.s:514    .text.hau_dma_enable:0000000000000024 .L0 
C:\Users\CYMR90~1\AppData\Local\Temp\ccxAEgth.s:516    .text.hau_dma_enable:0000000000000026 .L0 
C:\Users\CYMR90~1\AppData\Local\Temp\ccxAEgth.s:523    .text.hau_dma_disable:0000000000000000 hau_dma_disable
C:\Users\CYMR90~1\AppData\Local\Temp\ccxAEgth.s:526    .text.hau_dma_disable:0000000000000000 .L0 
C:\Users\CYMR90~1\AppData\Local\Temp\ccxAEgth.s:527    .text.hau_dma_disable:0000000000000000 .L0 
C:\Users\CYMR90~1\AppData\Local\Temp\ccxAEgth.s:528    .text.hau_dma_disable:0000000000000002 .L0 
C:\Users\CYMR90~1\AppData\Local\Temp\ccxAEgth.s:530    .text.hau_dma_disable:0000000000000004 .L0 
C:\Users\CYMR90~1\AppData\Local\Temp\ccxAEgth.s:532    .text.hau_dma_disable:0000000000000006 .L0 
C:\Users\CYMR90~1\AppData\Local\Temp\ccxAEgth.s:534    .text.hau_dma_disable:0000000000000006 .L0 
C:\Users\CYMR90~1\AppData\Local\Temp\ccxAEgth.s:542    .text.hau_dma_disable:000000000000001c .L0 
C:\Users\CYMR90~1\AppData\Local\Temp\ccxAEgth.s:544    .text.hau_dma_disable:0000000000000020 .L0 
C:\Users\CYMR90~1\AppData\Local\Temp\ccxAEgth.s:545    .text.hau_dma_disable:0000000000000020 .L0 
C:\Users\CYMR90~1\AppData\Local\Temp\ccxAEgth.s:547    .text.hau_dma_disable:0000000000000022 .L0 
C:\Users\CYMR90~1\AppData\Local\Temp\ccxAEgth.s:549    .text.hau_dma_disable:0000000000000024 .L0 
C:\Users\CYMR90~1\AppData\Local\Temp\ccxAEgth.s:556    .text.hau_context_struct_para_init:0000000000000000 hau_context_struct_para_init
C:\Users\CYMR90~1\AppData\Local\Temp\ccxAEgth.s:559    .text.hau_context_struct_para_init:0000000000000000 .L0 
C:\Users\CYMR90~1\AppData\Local\Temp\ccxAEgth.s:560    .text.hau_context_struct_para_init:0000000000000000 .L0 
C:\Users\CYMR90~1\AppData\Local\Temp\ccxAEgth.s:561    .text.hau_context_struct_para_init:0000000000000002 .L0 
C:\Users\CYMR90~1\AppData\Local\Temp\ccxAEgth.s:563    .text.hau_context_struct_para_init:0000000000000004 .L0 
C:\Users\CYMR90~1\AppData\Local\Temp\ccxAEgth.s:565    .text.hau_context_struct_para_init:0000000000000006 .L0 
C:\Users\CYMR90~1\AppData\Local\Temp\ccxAEgth.s:568    .text.hau_context_struct_para_init:000000000000000a .L0 
C:\Users\CYMR90~1\AppData\Local\Temp\ccxAEgth.s:570    .text.hau_context_struct_para_init:000000000000000e .L0 
C:\Users\CYMR90~1\AppData\Local\Temp\ccxAEgth.s:573    .text.hau_context_struct_para_init:0000000000000016 .L0 
C:\Users\CYMR90~1\AppData\Local\Temp\ccxAEgth.s:576    .text.hau_context_struct_para_init:000000000000001e .L0 
C:\Users\CYMR90~1\AppData\Local\Temp\ccxAEgth.s:579    .text.hau_context_struct_para_init:0000000000000026 .L0 
C:\Users\CYMR90~1\AppData\Local\Temp\ccxAEgth.s:581    .text.hau_context_struct_para_init:000000000000002a .L0 
C:\Users\CYMR90~1\AppData\Local\Temp\ccxAEgth.s:584    .text.hau_context_struct_para_init:000000000000002c .L0 
C:\Users\CYMR90~1\AppData\Local\Temp\ccxAEgth.s:586    .text.hau_context_struct_para_init:0000000000000030 .L0 
C:\Users\CYMR90~1\AppData\Local\Temp\ccxAEgth.s:591    .text.hau_context_struct_para_init:000000000000003c .L0 
C:\Users\CYMR90~1\AppData\Local\Temp\ccxAEgth.s:596    .text.hau_context_struct_para_init:0000000000000046 .L0 
C:\Users\CYMR90~1\AppData\Local\Temp\ccxAEgth.s:600    .text.hau_context_struct_para_init:0000000000000052 .L0 
C:\Users\CYMR90~1\AppData\Local\Temp\ccxAEgth.s:603    .text.hau_context_struct_para_init:0000000000000058 .L0 
C:\Users\CYMR90~1\AppData\Local\Temp\ccxAEgth.s:604    .text.hau_context_struct_para_init:0000000000000058 .L0 
C:\Users\CYMR90~1\AppData\Local\Temp\ccxAEgth.s:606    .text.hau_context_struct_para_init:000000000000005a .L0 
C:\Users\CYMR90~1\AppData\Local\Temp\ccxAEgth.s:608    .text.hau_context_struct_para_init:000000000000005c .L0 
C:\Users\CYMR90~1\AppData\Local\Temp\ccxAEgth.s:615    .text.hau_context_save:0000000000000000 hau_context_save
C:\Users\CYMR90~1\AppData\Local\Temp\ccxAEgth.s:618    .text.hau_context_save:0000000000000000 .L0 
C:\Users\CYMR90~1\AppData\Local\Temp\ccxAEgth.s:619    .text.hau_context_save:0000000000000000 .L0 
C:\Users\CYMR90~1\AppData\Local\Temp\ccxAEgth.s:620    .text.hau_context_save:0000000000000002 .L0 
C:\Users\CYMR90~1\AppData\Local\Temp\ccxAEgth.s:623    .text.hau_context_save:0000000000000006 .L0 
C:\Users\CYMR90~1\AppData\Local\Temp\ccxAEgth.s:624    .text.hau_context_save:0000000000000006 .L0 
C:\Users\CYMR90~1\AppData\Local\Temp\ccxAEgth.s:626    .text.hau_context_save:0000000000000008 .L0 
C:\Users\CYMR90~1\AppData\Local\Temp\ccxAEgth.s:629    .text.hau_context_save:000000000000000c .L0 
C:\Users\CYMR90~1\AppData\Local\Temp\ccxAEgth.s:631    .text.hau_context_save:0000000000000010 .L0 
C:\Users\CYMR90~1\AppData\Local\Temp\ccxAEgth.s:634    .text.hau_context_save:0000000000000018 .L0 
C:\Users\CYMR90~1\AppData\Local\Temp\ccxAEgth.s:637    .text.hau_context_save:0000000000000024 .L0 
C:\Users\CYMR90~1\AppData\Local\Temp\ccxAEgth.s:641    .text.hau_context_save:000000000000002e .L0 
C:\Users\CYMR90~1\AppData\Local\Temp\ccxAEgth.s:644    .text.hau_context_save:0000000000000034 .L0 
C:\Users\CYMR90~1\AppData\Local\Temp\ccxAEgth.s:648    .text.hau_context_save:000000000000003e .L0 
C:\Users\CYMR90~1\AppData\Local\Temp\ccxAEgth.s:651    .text.hau_context_save:0000000000000044 .L0 
C:\Users\CYMR90~1\AppData\Local\Temp\ccxAEgth.s:655    .text.hau_context_save:000000000000004e .L0 
C:\Users\CYMR90~1\AppData\Local\Temp\ccxAEgth.s:658    .text.hau_context_save:0000000000000054 .L0 
C:\Users\CYMR90~1\AppData\Local\Temp\ccxAEgth.s:662    .text.hau_context_save:000000000000005e .L0 
C:\Users\CYMR90~1\AppData\Local\Temp\ccxAEgth.s:664    .text.hau_context_save:0000000000000062 .L0 
C:\Users\CYMR90~1\AppData\Local\Temp\ccxAEgth.s:666    .text.hau_context_save:0000000000000064 .L0 
C:\Users\CYMR90~1\AppData\Local\Temp\ccxAEgth.s:670    .text.hau_context_save:000000000000006c .L0 
C:\Users\CYMR90~1\AppData\Local\Temp\ccxAEgth.s:672    .text.hau_context_save:0000000000000070 .L0 
C:\Users\CYMR90~1\AppData\Local\Temp\ccxAEgth.s:675    .text.hau_context_save:0000000000000072 .L0 
C:\Users\CYMR90~1\AppData\Local\Temp\ccxAEgth.s:682    .text.hau_context_save:0000000000000084 .L0 
C:\Users\CYMR90~1\AppData\Local\Temp\ccxAEgth.s:684    .text.hau_context_save:0000000000000088 .L0 
C:\Users\CYMR90~1\AppData\Local\Temp\ccxAEgth.s:686    .text.hau_context_save:000000000000008a .L0 
C:\Users\CYMR90~1\AppData\Local\Temp\ccxAEgth.s:691    .text.hau_context_save:0000000000000094 .L0 
C:\Users\CYMR90~1\AppData\Local\Temp\ccxAEgth.s:696    .text.hau_context_save:000000000000009e .L0 
C:\Users\CYMR90~1\AppData\Local\Temp\ccxAEgth.s:700    .text.hau_context_save:00000000000000aa .L0 
C:\Users\CYMR90~1\AppData\Local\Temp\ccxAEgth.s:703    .text.hau_context_save:00000000000000b0 .L0 
C:\Users\CYMR90~1\AppData\Local\Temp\ccxAEgth.s:705    .text.hau_context_save:00000000000000b2 .L0 
C:\Users\CYMR90~1\AppData\Local\Temp\ccxAEgth.s:706    .text.hau_context_save:00000000000000b2 .L0 
C:\Users\CYMR90~1\AppData\Local\Temp\ccxAEgth.s:708    .text.hau_context_save:00000000000000b4 .L0 
C:\Users\CYMR90~1\AppData\Local\Temp\ccxAEgth.s:710    .text.hau_context_save:00000000000000b6 .L0 
C:\Users\CYMR90~1\AppData\Local\Temp\ccxAEgth.s:717    .text.hau_context_restore:0000000000000000 hau_context_restore
C:\Users\CYMR90~1\AppData\Local\Temp\ccxAEgth.s:720    .text.hau_context_restore:0000000000000000 .L0 
C:\Users\CYMR90~1\AppData\Local\Temp\ccxAEgth.s:721    .text.hau_context_restore:0000000000000000 .L0 
C:\Users\CYMR90~1\AppData\Local\Temp\ccxAEgth.s:722    .text.hau_context_restore:0000000000000002 .L0 
C:\Users\CYMR90~1\AppData\Local\Temp\ccxAEgth.s:724    .text.hau_context_restore:0000000000000004 .L0 
C:\Users\CYMR90~1\AppData\Local\Temp\ccxAEgth.s:726    .text.hau_context_restore:0000000000000006 .L0 
C:\Users\CYMR90~1\AppData\Local\Temp\ccxAEgth.s:729    .text.hau_context_restore:000000000000000a .L0 
C:\Users\CYMR90~1\AppData\Local\Temp\ccxAEgth.s:731    .text.hau_context_restore:000000000000000e .L0 
C:\Users\CYMR90~1\AppData\Local\Temp\ccxAEgth.s:734    .text.hau_context_restore:0000000000000016 .L0 
C:\Users\CYMR90~1\AppData\Local\Temp\ccxAEgth.s:737    .text.hau_context_restore:000000000000001e .L0 
C:\Users\CYMR90~1\AppData\Local\Temp\ccxAEgth.s:740    .text.hau_context_restore:0000000000000024 .L0 
C:\Users\CYMR90~1\AppData\Local\Temp\ccxAEgth.s:742    .text.hau_context_restore:0000000000000026 .L0 
C:\Users\CYMR90~1\AppData\Local\Temp\ccxAEgth.s:745    .text.hau_context_restore:000000000000002e .L0 
C:\Users\CYMR90~1\AppData\Local\Temp\ccxAEgth.s:748    .text.hau_context_restore:0000000000000034 .L0 
C:\Users\CYMR90~1\AppData\Local\Temp\ccxAEgth.s:750    .text.hau_context_restore:0000000000000036 .L0 
C:\Users\CYMR90~1\AppData\Local\Temp\ccxAEgth.s:753    .text.hau_context_restore:000000000000003e .L0 
C:\Users\CYMR90~1\AppData\Local\Temp\ccxAEgth.s:756    .text.hau_context_restore:0000000000000044 .L0 
C:\Users\CYMR90~1\AppData\Local\Temp\ccxAEgth.s:758    .text.hau_context_restore:0000000000000046 .L0 
C:\Users\CYMR90~1\AppData\Local\Temp\ccxAEgth.s:766    .text.hau_context_restore:000000000000005e .L0 
C:\Users\CYMR90~1\AppData\Local\Temp\ccxAEgth.s:770    .text.hau_context_restore:0000000000000068 .L0 
C:\Users\CYMR90~1\AppData\Local\Temp\ccxAEgth.s:772    .text.hau_context_restore:000000000000006c .L0 
C:\Users\CYMR90~1\AppData\Local\Temp\ccxAEgth.s:774    .text.hau_context_restore:000000000000006e .L0 
C:\Users\CYMR90~1\AppData\Local\Temp\ccxAEgth.s:778    .text.hau_context_restore:0000000000000076 .L0 
C:\Users\CYMR90~1\AppData\Local\Temp\ccxAEgth.s:780    .text.hau_context_restore:000000000000007a .L0 
C:\Users\CYMR90~1\AppData\Local\Temp\ccxAEgth.s:783    .text.hau_context_restore:000000000000007c .L0 
C:\Users\CYMR90~1\AppData\Local\Temp\ccxAEgth.s:785    .text.hau_context_restore:0000000000000080 .L0 
C:\Users\CYMR90~1\AppData\Local\Temp\ccxAEgth.s:792    .text.hau_context_restore:0000000000000092 .L0 
C:\Users\CYMR90~1\AppData\Local\Temp\ccxAEgth.s:797    .text.hau_context_restore:000000000000009c .L0 
C:\Users\CYMR90~1\AppData\Local\Temp\ccxAEgth.s:799    .text.hau_context_restore:000000000000009e .L0 
C:\Users\CYMR90~1\AppData\Local\Temp\ccxAEgth.s:804    .text.hau_context_restore:00000000000000a8 .L0 
C:\Users\CYMR90~1\AppData\Local\Temp\ccxAEgth.s:808    .text.hau_context_restore:00000000000000b4 .L0 
C:\Users\CYMR90~1\AppData\Local\Temp\ccxAEgth.s:811    .text.hau_context_restore:00000000000000ba .L0 
C:\Users\CYMR90~1\AppData\Local\Temp\ccxAEgth.s:812    .text.hau_context_restore:00000000000000ba .L0 
C:\Users\CYMR90~1\AppData\Local\Temp\ccxAEgth.s:814    .text.hau_context_restore:00000000000000bc .L0 
C:\Users\CYMR90~1\AppData\Local\Temp\ccxAEgth.s:816    .text.hau_context_restore:00000000000000be .L0 
C:\Users\CYMR90~1\AppData\Local\Temp\ccxAEgth.s:823    .text.hau_flag_get:0000000000000000 hau_flag_get
C:\Users\CYMR90~1\AppData\Local\Temp\ccxAEgth.s:826    .text.hau_flag_get:0000000000000000 .L0 
C:\Users\CYMR90~1\AppData\Local\Temp\ccxAEgth.s:827    .text.hau_flag_get:0000000000000000 .L0 
C:\Users\CYMR90~1\AppData\Local\Temp\ccxAEgth.s:828    .text.hau_flag_get:0000000000000002 .L0 
C:\Users\CYMR90~1\AppData\Local\Temp\ccxAEgth.s:830    .text.hau_flag_get:0000000000000004 .L0 
C:\Users\CYMR90~1\AppData\Local\Temp\ccxAEgth.s:832    .text.hau_flag_get:0000000000000006 .L0 
C:\Users\CYMR90~1\AppData\Local\Temp\ccxAEgth.s:835    .text.hau_flag_get:000000000000000a .L0 
C:\Users\CYMR90~1\AppData\Local\Temp\ccxAEgth.s:837    .text.hau_flag_get:000000000000000e .L0 
C:\Users\CYMR90~1\AppData\Local\Temp\ccxAEgth.s:839    .text.hau_flag_get:0000000000000012 .L0 
C:\Users\CYMR90~1\AppData\Local\Temp\ccxAEgth.s:843    .text.hau_flag_get:000000000000001a .L0 
C:\Users\CYMR90~1\AppData\Local\Temp\ccxAEgth.s:845    .text.hau_flag_get:000000000000001c .L0 
C:\Users\CYMR90~1\AppData\Local\Temp\ccxAEgth.s:848    .text.hau_flag_get:0000000000000024 .L0 
C:\Users\CYMR90~1\AppData\Local\Temp\ccxAEgth.s:853    .text.hau_flag_get:000000000000002c .L0 
C:\Users\CYMR90~1\AppData\Local\Temp\ccxAEgth.s:856    .text.hau_flag_get:0000000000000034 .L0 
C:\Users\CYMR90~1\AppData\Local\Temp\ccxAEgth.s:860    .text.hau_flag_get:000000000000003a .L0 
C:\Users\CYMR90~1\AppData\Local\Temp\ccxAEgth.s:864    .text.hau_flag_get:0000000000000044 .L0 
C:\Users\CYMR90~1\AppData\Local\Temp\ccxAEgth.s:866    .text.hau_flag_get:0000000000000046 .L0 
C:\Users\CYMR90~1\AppData\Local\Temp\ccxAEgth.s:870    .text.hau_flag_get:000000000000004c .L0 
C:\Users\CYMR90~1\AppData\Local\Temp\ccxAEgth.s:872    .text.hau_flag_get:0000000000000050 .L0 
C:\Users\CYMR90~1\AppData\Local\Temp\ccxAEgth.s:874    .text.hau_flag_get:0000000000000054 .L0 
C:\Users\CYMR90~1\AppData\Local\Temp\ccxAEgth.s:875    .text.hau_flag_get:0000000000000054 .L0 
C:\Users\CYMR90~1\AppData\Local\Temp\ccxAEgth.s:877    .text.hau_flag_get:0000000000000056 .L0 
C:\Users\CYMR90~1\AppData\Local\Temp\ccxAEgth.s:879    .text.hau_flag_get:0000000000000058 .L0 
C:\Users\CYMR90~1\AppData\Local\Temp\ccxAEgth.s:886    .text.hau_flag_clear:0000000000000000 hau_flag_clear
C:\Users\CYMR90~1\AppData\Local\Temp\ccxAEgth.s:889    .text.hau_flag_clear:0000000000000000 .L0 
C:\Users\CYMR90~1\AppData\Local\Temp\ccxAEgth.s:890    .text.hau_flag_clear:0000000000000000 .L0 
C:\Users\CYMR90~1\AppData\Local\Temp\ccxAEgth.s:891    .text.hau_flag_clear:0000000000000002 .L0 
C:\Users\CYMR90~1\AppData\Local\Temp\ccxAEgth.s:893    .text.hau_flag_clear:0000000000000004 .L0 
C:\Users\CYMR90~1\AppData\Local\Temp\ccxAEgth.s:895    .text.hau_flag_clear:0000000000000006 .L0 
C:\Users\CYMR90~1\AppData\Local\Temp\ccxAEgth.s:898    .text.hau_flag_clear:000000000000000a .L0 
C:\Users\CYMR90~1\AppData\Local\Temp\ccxAEgth.s:901    .text.hau_flag_clear:0000000000000012 .L0 
C:\Users\CYMR90~1\AppData\Local\Temp\ccxAEgth.s:904    .text.hau_flag_clear:000000000000001a .L0 
C:\Users\CYMR90~1\AppData\Local\Temp\ccxAEgth.s:906    .text.hau_flag_clear:000000000000001c .L0 
C:\Users\CYMR90~1\AppData\Local\Temp\ccxAEgth.s:908    .text.hau_flag_clear:0000000000000020 .L0 
C:\Users\CYMR90~1\AppData\Local\Temp\ccxAEgth.s:909    .text.hau_flag_clear:0000000000000020 .L0 
C:\Users\CYMR90~1\AppData\Local\Temp\ccxAEgth.s:911    .text.hau_flag_clear:0000000000000022 .L0 
C:\Users\CYMR90~1\AppData\Local\Temp\ccxAEgth.s:913    .text.hau_flag_clear:0000000000000024 .L0 
C:\Users\CYMR90~1\AppData\Local\Temp\ccxAEgth.s:920    .text.hau_interrupt_enable:0000000000000000 hau_interrupt_enable
C:\Users\CYMR90~1\AppData\Local\Temp\ccxAEgth.s:923    .text.hau_interrupt_enable:0000000000000000 .L0 
C:\Users\CYMR90~1\AppData\Local\Temp\ccxAEgth.s:924    .text.hau_interrupt_enable:0000000000000000 .L0 
C:\Users\CYMR90~1\AppData\Local\Temp\ccxAEgth.s:925    .text.hau_interrupt_enable:0000000000000002 .L0 
C:\Users\CYMR90~1\AppData\Local\Temp\ccxAEgth.s:927    .text.hau_interrupt_enable:0000000000000004 .L0 
C:\Users\CYMR90~1\AppData\Local\Temp\ccxAEgth.s:929    .text.hau_interrupt_enable:0000000000000006 .L0 
C:\Users\CYMR90~1\AppData\Local\Temp\ccxAEgth.s:932    .text.hau_interrupt_enable:000000000000000a .L0 
C:\Users\CYMR90~1\AppData\Local\Temp\ccxAEgth.s:941    .text.hau_interrupt_enable:0000000000000024 .L0 
C:\Users\CYMR90~1\AppData\Local\Temp\ccxAEgth.s:943    .text.hau_interrupt_enable:0000000000000028 .L0 
C:\Users\CYMR90~1\AppData\Local\Temp\ccxAEgth.s:944    .text.hau_interrupt_enable:0000000000000028 .L0 
C:\Users\CYMR90~1\AppData\Local\Temp\ccxAEgth.s:946    .text.hau_interrupt_enable:000000000000002a .L0 
C:\Users\CYMR90~1\AppData\Local\Temp\ccxAEgth.s:948    .text.hau_interrupt_enable:000000000000002c .L0 
C:\Users\CYMR90~1\AppData\Local\Temp\ccxAEgth.s:955    .text.hau_interrupt_disable:0000000000000000 hau_interrupt_disable
C:\Users\CYMR90~1\AppData\Local\Temp\ccxAEgth.s:958    .text.hau_interrupt_disable:0000000000000000 .L0 
C:\Users\CYMR90~1\AppData\Local\Temp\ccxAEgth.s:959    .text.hau_interrupt_disable:0000000000000000 .L0 
C:\Users\CYMR90~1\AppData\Local\Temp\ccxAEgth.s:960    .text.hau_interrupt_disable:0000000000000002 .L0 
C:\Users\CYMR90~1\AppData\Local\Temp\ccxAEgth.s:962    .text.hau_interrupt_disable:0000000000000004 .L0 
C:\Users\CYMR90~1\AppData\Local\Temp\ccxAEgth.s:964    .text.hau_interrupt_disable:0000000000000006 .L0 
C:\Users\CYMR90~1\AppData\Local\Temp\ccxAEgth.s:967    .text.hau_interrupt_disable:000000000000000a .L0 
C:\Users\CYMR90~1\AppData\Local\Temp\ccxAEgth.s:971    .text.hau_interrupt_disable:0000000000000014 .L0 
C:\Users\CYMR90~1\AppData\Local\Temp\ccxAEgth.s:974    .text.hau_interrupt_disable:000000000000001c .L0 
C:\Users\CYMR90~1\AppData\Local\Temp\ccxAEgth.s:979    .text.hau_interrupt_disable:0000000000000028 .L0 
C:\Users\CYMR90~1\AppData\Local\Temp\ccxAEgth.s:981    .text.hau_interrupt_disable:000000000000002c .L0 
C:\Users\CYMR90~1\AppData\Local\Temp\ccxAEgth.s:982    .text.hau_interrupt_disable:000000000000002c .L0 
C:\Users\CYMR90~1\AppData\Local\Temp\ccxAEgth.s:984    .text.hau_interrupt_disable:000000000000002e .L0 
C:\Users\CYMR90~1\AppData\Local\Temp\ccxAEgth.s:986    .text.hau_interrupt_disable:0000000000000030 .L0 
C:\Users\CYMR90~1\AppData\Local\Temp\ccxAEgth.s:993    .text.hau_interrupt_flag_get:0000000000000000 hau_interrupt_flag_get
C:\Users\CYMR90~1\AppData\Local\Temp\ccxAEgth.s:996    .text.hau_interrupt_flag_get:0000000000000000 .L0 
C:\Users\CYMR90~1\AppData\Local\Temp\ccxAEgth.s:997    .text.hau_interrupt_flag_get:0000000000000000 .L0 
C:\Users\CYMR90~1\AppData\Local\Temp\ccxAEgth.s:998    .text.hau_interrupt_flag_get:0000000000000002 .L0 
C:\Users\CYMR90~1\AppData\Local\Temp\ccxAEgth.s:1000   .text.hau_interrupt_flag_get:0000000000000004 .L0 
C:\Users\CYMR90~1\AppData\Local\Temp\ccxAEgth.s:1002   .text.hau_interrupt_flag_get:0000000000000006 .L0 
C:\Users\CYMR90~1\AppData\Local\Temp\ccxAEgth.s:1005   .text.hau_interrupt_flag_get:000000000000000a .L0 
C:\Users\CYMR90~1\AppData\Local\Temp\ccxAEgth.s:1007   .text.hau_interrupt_flag_get:000000000000000e .L0 
C:\Users\CYMR90~1\AppData\Local\Temp\ccxAEgth.s:1009   .text.hau_interrupt_flag_get:0000000000000012 .L0 
C:\Users\CYMR90~1\AppData\Local\Temp\ccxAEgth.s:1012   .text.hau_interrupt_flag_get:000000000000001a .L0 
C:\Users\CYMR90~1\AppData\Local\Temp\ccxAEgth.s:1015   .text.hau_interrupt_flag_get:0000000000000020 .L0 
C:\Users\CYMR90~1\AppData\Local\Temp\ccxAEgth.s:1019   .text.hau_interrupt_flag_get:000000000000002a .L0 
C:\Users\CYMR90~1\AppData\Local\Temp\ccxAEgth.s:1022   .text.hau_interrupt_flag_get:0000000000000030 .L0 
C:\Users\CYMR90~1\AppData\Local\Temp\ccxAEgth.s:1025   .text.hau_interrupt_flag_get:0000000000000036 .L0 
C:\Users\CYMR90~1\AppData\Local\Temp\ccxAEgth.s:1027   .text.hau_interrupt_flag_get:0000000000000038 .L0 
C:\Users\CYMR90~1\AppData\Local\Temp\ccxAEgth.s:1031   .text.hau_interrupt_flag_get:000000000000003e .L0 
C:\Users\CYMR90~1\AppData\Local\Temp\ccxAEgth.s:1033   .text.hau_interrupt_flag_get:0000000000000042 .L0 
C:\Users\CYMR90~1\AppData\Local\Temp\ccxAEgth.s:1035   .text.hau_interrupt_flag_get:0000000000000046 .L0 
C:\Users\CYMR90~1\AppData\Local\Temp\ccxAEgth.s:1036   .text.hau_interrupt_flag_get:0000000000000046 .L0 
C:\Users\CYMR90~1\AppData\Local\Temp\ccxAEgth.s:1038   .text.hau_interrupt_flag_get:0000000000000048 .L0 
C:\Users\CYMR90~1\AppData\Local\Temp\ccxAEgth.s:1040   .text.hau_interrupt_flag_get:000000000000004a .L0 
C:\Users\CYMR90~1\AppData\Local\Temp\ccxAEgth.s:1047   .text.hau_interrupt_flag_clear:0000000000000000 hau_interrupt_flag_clear
C:\Users\CYMR90~1\AppData\Local\Temp\ccxAEgth.s:1050   .text.hau_interrupt_flag_clear:0000000000000000 .L0 
C:\Users\CYMR90~1\AppData\Local\Temp\ccxAEgth.s:1051   .text.hau_interrupt_flag_clear:0000000000000000 .L0 
C:\Users\CYMR90~1\AppData\Local\Temp\ccxAEgth.s:1052   .text.hau_interrupt_flag_clear:0000000000000002 .L0 
C:\Users\CYMR90~1\AppData\Local\Temp\ccxAEgth.s:1054   .text.hau_interrupt_flag_clear:0000000000000004 .L0 
C:\Users\CYMR90~1\AppData\Local\Temp\ccxAEgth.s:1056   .text.hau_interrupt_flag_clear:0000000000000006 .L0 
C:\Users\CYMR90~1\AppData\Local\Temp\ccxAEgth.s:1059   .text.hau_interrupt_flag_clear:000000000000000a .L0 
C:\Users\CYMR90~1\AppData\Local\Temp\ccxAEgth.s:1062   .text.hau_interrupt_flag_clear:0000000000000012 .L0 
C:\Users\CYMR90~1\AppData\Local\Temp\ccxAEgth.s:1065   .text.hau_interrupt_flag_clear:000000000000001a .L0 
C:\Users\CYMR90~1\AppData\Local\Temp\ccxAEgth.s:1067   .text.hau_interrupt_flag_clear:000000000000001c .L0 
C:\Users\CYMR90~1\AppData\Local\Temp\ccxAEgth.s:1069   .text.hau_interrupt_flag_clear:0000000000000020 .L0 
C:\Users\CYMR90~1\AppData\Local\Temp\ccxAEgth.s:1070   .text.hau_interrupt_flag_clear:0000000000000020 .L0 
C:\Users\CYMR90~1\AppData\Local\Temp\ccxAEgth.s:1072   .text.hau_interrupt_flag_clear:0000000000000022 .L0 
C:\Users\CYMR90~1\AppData\Local\Temp\ccxAEgth.s:1074   .text.hau_interrupt_flag_clear:0000000000000024 .L0 
C:\Users\CYMR90~1\AppData\Local\Temp\ccxAEgth.s:45     .text.hau_deinit:000000000000002a .L0 
C:\Users\CYMR90~1\AppData\Local\Temp\ccxAEgth.s:140    .text.hau_init:00000000000000b8 .L0 
C:\Users\CYMR90~1\AppData\Local\Temp\ccxAEgth.s:178    .text.hau_init_struct_para_init:0000000000000032 .L0 
C:\Users\CYMR90~1\AppData\Local\Temp\ccxAEgth.s:211    .text.hau_reset:0000000000000026 .L0 
C:\Users\CYMR90~1\AppData\Local\Temp\ccxAEgth.s:257    .text.hau_last_word_validbits_num_config:0000000000000046 .L0 
C:\Users\CYMR90~1\AppData\Local\Temp\ccxAEgth.s:289    .text.hau_data_write:0000000000000020 .L0 
C:\Users\CYMR90~1\AppData\Local\Temp\ccxAEgth.s:326    .text.hau_infifo_words_num_get:0000000000000028 .L0 
C:\Users\CYMR90~1\AppData\Local\Temp\ccxAEgth.s:408    .text.hau_digest_read:0000000000000092 .L0 
C:\Users\CYMR90~1\AppData\Local\Temp\ccxAEgth.s:441    .text.hau_digest_calculation_enable:0000000000000026 .L0 
C:\Users\CYMR90~1\AppData\Local\Temp\ccxAEgth.s:486    .text.hau_multiple_single_dma_config:0000000000000046 .L0 
C:\Users\CYMR90~1\AppData\Local\Temp\ccxAEgth.s:519    .text.hau_dma_enable:0000000000000026 .L0 
C:\Users\CYMR90~1\AppData\Local\Temp\ccxAEgth.s:552    .text.hau_dma_disable:0000000000000024 .L0 
C:\Users\CYMR90~1\AppData\Local\Temp\ccxAEgth.s:611    .text.hau_context_struct_para_init:000000000000005c .L0 
C:\Users\CYMR90~1\AppData\Local\Temp\ccxAEgth.s:713    .text.hau_context_save:00000000000000b6 .L0 
C:\Users\CYMR90~1\AppData\Local\Temp\ccxAEgth.s:819    .text.hau_context_restore:00000000000000be .L0 
C:\Users\CYMR90~1\AppData\Local\Temp\ccxAEgth.s:882    .text.hau_flag_get:0000000000000058 .L0 
C:\Users\CYMR90~1\AppData\Local\Temp\ccxAEgth.s:916    .text.hau_flag_clear:0000000000000024 .L0 
C:\Users\CYMR90~1\AppData\Local\Temp\ccxAEgth.s:951    .text.hau_interrupt_enable:000000000000002c .L0 
C:\Users\CYMR90~1\AppData\Local\Temp\ccxAEgth.s:989    .text.hau_interrupt_disable:0000000000000030 .L0 
C:\Users\CYMR90~1\AppData\Local\Temp\ccxAEgth.s:1043   .text.hau_interrupt_flag_get:000000000000004a .L0 
C:\Users\CYMR90~1\AppData\Local\Temp\ccxAEgth.s:1077   .text.hau_interrupt_flag_clear:0000000000000024 .L0 
                     .debug_frame:0000000000000000 .L0 
C:\Users\CYMR90~1\AppData\Local\Temp\ccxAEgth.s:120    .text.hau_init:0000000000000098 .L3
C:\Users\CYMR90~1\AppData\Local\Temp\ccxAEgth.s:594    .text.hau_context_struct_para_init:0000000000000046 .L16
C:\Users\CYMR90~1\AppData\Local\Temp\ccxAEgth.s:582    .text.hau_context_struct_para_init:000000000000002c .L17
C:\Users\CYMR90~1\AppData\Local\Temp\ccxAEgth.s:668    .text.hau_context_save:000000000000006c .L19
C:\Users\CYMR90~1\AppData\Local\Temp\ccxAEgth.s:694    .text.hau_context_save:000000000000009e .L20
C:\Users\CYMR90~1\AppData\Local\Temp\ccxAEgth.s:673    .text.hau_context_save:0000000000000072 .L21
C:\Users\CYMR90~1\AppData\Local\Temp\ccxAEgth.s:776    .text.hau_context_restore:0000000000000076 .L23
C:\Users\CYMR90~1\AppData\Local\Temp\ccxAEgth.s:802    .text.hau_context_restore:00000000000000a8 .L24
C:\Users\CYMR90~1\AppData\Local\Temp\ccxAEgth.s:781    .text.hau_context_restore:000000000000007c .L25
C:\Users\CYMR90~1\AppData\Local\Temp\ccxAEgth.s:851    .text.hau_flag_get:000000000000002c .L27
C:\Users\CYMR90~1\AppData\Local\Temp\ccxAEgth.s:858    .text.hau_flag_get:000000000000003a .L28
C:\Users\CYMR90~1\AppData\Local\Temp\ccxAEgth.s:868    .text.hau_flag_get:000000000000004c .L29
C:\Users\CYMR90~1\AppData\Local\Temp\ccxAEgth.s:1029   .text.hau_interrupt_flag_get:000000000000003e .L35
C:\Users\CYMR90~1\AppData\Local\Temp\ccxAEgth.s:1867   .debug_abbrev:0000000000000000 .Ldebug_abbrev0
C:\Users\CYMR90~1\AppData\Local\Temp\ccxAEgth.s:22843  .debug_str:000000000000ad81 .LASF5649
C:\Users\CYMR90~1\AppData\Local\Temp\ccxAEgth.s:27184  .debug_str:000000000001c4cc .LASF5650
C:\Users\CYMR90~1\AppData\Local\Temp\ccxAEgth.s:25759  .debug_str:00000000000167f0 .LASF5651
C:\Users\CYMR90~1\AppData\Local\Temp\ccxAEgth.s:2412   .debug_ranges:0000000000000000 .Ldebug_ranges0
C:\Users\CYMR90~1\AppData\Local\Temp\ccxAEgth.s:20099  .debug_line:0000000000000000 .Ldebug_line0
C:\Users\CYMR90~1\AppData\Local\Temp\ccxAEgth.s:2458   .debug_macro:0000000000000000 .Ldebug_macro0
C:\Users\CYMR90~1\AppData\Local\Temp\ccxAEgth.s:31360  .debug_str:000000000002cf1f .LASF5558
C:\Users\CYMR90~1\AppData\Local\Temp\ccxAEgth.s:20117  .debug_str:000000000000011c .LASF5559
C:\Users\CYMR90~1\AppData\Local\Temp\ccxAEgth.s:21035  .debug_str:0000000000003972 .LASF5560
C:\Users\CYMR90~1\AppData\Local\Temp\ccxAEgth.s:26218  .debug_str:000000000001858b .LASF5561
C:\Users\CYMR90~1\AppData\Local\Temp\ccxAEgth.s:22327  .debug_str:0000000000008ca8 .LASF5566
C:\Users\CYMR90~1\AppData\Local\Temp\ccxAEgth.s:25671  .debug_str:0000000000016205 .LASF5562
C:\Users\CYMR90~1\AppData\Local\Temp\ccxAEgth.s:27542  .debug_str:000000000001ddcc .LASF5563
C:\Users\CYMR90~1\AppData\Local\Temp\ccxAEgth.s:29172  .debug_str:000000000002408a .LASF5564
C:\Users\CYMR90~1\AppData\Local\Temp\ccxAEgth.s:27950  .debug_str:000000000001f5dd .LASF5565
C:\Users\CYMR90~1\AppData\Local\Temp\ccxAEgth.s:26432  .debug_str:000000000001941e .LASF5567
C:\Users\CYMR90~1\AppData\Local\Temp\ccxAEgth.s:20233  .debug_str:00000000000007e9 .LASF5568
C:\Users\CYMR90~1\AppData\Local\Temp\ccxAEgth.s:29522  .debug_str:0000000000025984 .LASF5569
C:\Users\CYMR90~1\AppData\Local\Temp\ccxAEgth.s:27972  .debug_str:000000000001f746 .LASF855
C:\Users\CYMR90~1\AppData\Local\Temp\ccxAEgth.s:25439  .debug_str:0000000000015360 .LASF5570
C:\Users\CYMR90~1\AppData\Local\Temp\ccxAEgth.s:20909  .debug_str:000000000000314b .LASF5571
C:\Users\CYMR90~1\AppData\Local\Temp\ccxAEgth.s:29214  .debug_str:000000000002438f .LASF5572
C:\Users\CYMR90~1\AppData\Local\Temp\ccxAEgth.s:22693  .debug_str:000000000000a386 .LASF5573
C:\Users\CYMR90~1\AppData\Local\Temp\ccxAEgth.s:22853  .debug_str:000000000000aeb9 .LASF5574
C:\Users\CYMR90~1\AppData\Local\Temp\ccxAEgth.s:30386  .debug_str:000000000002919f .LASF5575
C:\Users\CYMR90~1\AppData\Local\Temp\ccxAEgth.s:27740  .debug_str:000000000001e986 .LASF5576
C:\Users\CYMR90~1\AppData\Local\Temp\ccxAEgth.s:28576  .debug_str:0000000000021c65 .LASF5577
C:\Users\CYMR90~1\AppData\Local\Temp\ccxAEgth.s:31338  .debug_str:000000000002cdd8 .LASF5578
C:\Users\CYMR90~1\AppData\Local\Temp\ccxAEgth.s:29814  .debug_str:0000000000026baa .LASF5579
C:\Users\CYMR90~1\AppData\Local\Temp\ccxAEgth.s:30860  .debug_str:000000000002ae52 .LASF5580
C:\Users\CYMR90~1\AppData\Local\Temp\ccxAEgth.s:25585  .debug_str:0000000000015c8b .LASF5581
C:\Users\CYMR90~1\AppData\Local\Temp\ccxAEgth.s:20881  .debug_str:0000000000002f46 .LASF5582
C:\Users\CYMR90~1\AppData\Local\Temp\ccxAEgth.s:24243  .debug_str:00000000000106d3 .LASF5583
C:\Users\CYMR90~1\AppData\Local\Temp\ccxAEgth.s:29712  .debug_str:000000000002655c .LASF5584
C:\Users\CYMR90~1\AppData\Local\Temp\ccxAEgth.s:21935  .debug_str:0000000000007255 .LASF5585
C:\Users\CYMR90~1\AppData\Local\Temp\ccxAEgth.s:23183  .debug_str:000000000000c422 .LASF5586
C:\Users\CYMR90~1\AppData\Local\Temp\ccxAEgth.s:31328  .debug_str:000000000002cca1 .LASF5587
C:\Users\CYMR90~1\AppData\Local\Temp\ccxAEgth.s:21735  .debug_str:000000000000651e .LASF5588
C:\Users\CYMR90~1\AppData\Local\Temp\ccxAEgth.s:30314  .debug_str:0000000000028cf9 .LASF5589
C:\Users\CYMR90~1\AppData\Local\Temp\ccxAEgth.s:30244  .debug_str:0000000000028903 .LASF5590
C:\Users\CYMR90~1\AppData\Local\Temp\ccxAEgth.s:25149  .debug_str:0000000000014191 .LASF5591
C:\Users\CYMR90~1\AppData\Local\Temp\ccxAEgth.s:21235  .debug_str:00000000000046b7 .LASF5592
C:\Users\CYMR90~1\AppData\Local\Temp\ccxAEgth.s:26660  .debug_str:000000000001a411 .LASF5593
C:\Users\CYMR90~1\AppData\Local\Temp\ccxAEgth.s:23473  .debug_str:000000000000d72f .LASF5594
C:\Users\CYMR90~1\AppData\Local\Temp\ccxAEgth.s:31172  .debug_str:000000000002c281 .LASF5595
C:\Users\CYMR90~1\AppData\Local\Temp\ccxAEgth.s:26368  .debug_str:000000000001907e .LASF5596
C:\Users\CYMR90~1\AppData\Local\Temp\ccxAEgth.s:21959  .debug_str:000000000000739f .LASF5597
C:\Users\CYMR90~1\AppData\Local\Temp\ccxAEgth.s:31142  .debug_str:000000000002c09d .LASF5598
C:\Users\CYMR90~1\AppData\Local\Temp\ccxAEgth.s:30818  .debug_str:000000000002abd6 .LASF5599
C:\Users\CYMR90~1\AppData\Local\Temp\ccxAEgth.s:21119  .debug_str:0000000000003eb5 .LASF5600
C:\Users\CYMR90~1\AppData\Local\Temp\ccxAEgth.s:29168  .debug_str:0000000000024060 .LASF5601
C:\Users\CYMR90~1\AppData\Local\Temp\ccxAEgth.s:22927  .debug_str:000000000000b2e8 .LASF5602
C:\Users\CYMR90~1\AppData\Local\Temp\ccxAEgth.s:26846  .debug_str:000000000001b063 .LASF5603
C:\Users\CYMR90~1\AppData\Local\Temp\ccxAEgth.s:27786  .debug_str:000000000001ebfb .LASF5604
C:\Users\CYMR90~1\AppData\Local\Temp\ccxAEgth.s:30602  .debug_str:0000000000029ed9 .LASF5605
C:\Users\CYMR90~1\AppData\Local\Temp\ccxAEgth.s:29160  .debug_str:0000000000023ff8 .LASF5606
C:\Users\CYMR90~1\AppData\Local\Temp\ccxAEgth.s:26132  .debug_str:000000000001808f .LASF5607
C:\Users\CYMR90~1\AppData\Local\Temp\ccxAEgth.s:27442  .debug_str:000000000001d721 .LASF5608
C:\Users\CYMR90~1\AppData\Local\Temp\ccxAEgth.s:20641  .debug_str:0000000000002034 .LASF5609
C:\Users\CYMR90~1\AppData\Local\Temp\ccxAEgth.s:24417  .debug_str:00000000000111b7 .LASF5610
C:\Users\CYMR90~1\AppData\Local\Temp\ccxAEgth.s:22789  .debug_str:000000000000a9ea .LASF5611
C:\Users\CYMR90~1\AppData\Local\Temp\ccxAEgth.s:21953  .debug_str:000000000000734d .LASF5612
C:\Users\CYMR90~1\AppData\Local\Temp\ccxAEgth.s:28022  .debug_str:000000000001fa5b .LASF5613
C:\Users\CYMR90~1\AppData\Local\Temp\ccxAEgth.s:29812  .debug_str:0000000000026b8d .LASF5614
C:\Users\CYMR90~1\AppData\Local\Temp\ccxAEgth.s:21337  .debug_str:0000000000004d6e .LASF5617
C:\Users\CYMR90~1\AppData\Local\Temp\ccxAEgth.s:1048   .text.hau_interrupt_flag_clear:0000000000000000 .LFB367
C:\Users\CYMR90~1\AppData\Local\Temp\ccxAEgth.s:1075   .text.hau_interrupt_flag_clear:0000000000000024 .LFE367
C:\Users\CYMR90~1\AppData\Local\Temp\ccxAEgth.s:25185  .debug_str:0000000000014371 .LASF5615
C:\Users\CYMR90~1\AppData\Local\Temp\ccxAEgth.s:22705  .debug_str:000000000000a40d .LASF5622
C:\Users\CYMR90~1\AppData\Local\Temp\ccxAEgth.s:994    .text.hau_interrupt_flag_get:0000000000000000 .LFB366
C:\Users\CYMR90~1\AppData\Local\Temp\ccxAEgth.s:1041   .text.hau_interrupt_flag_get:000000000000004a .LFE366
C:\Users\CYMR90~1\AppData\Local\Temp\ccxAEgth.s:22681  .debug_str:000000000000a2b6 .LASF5616
C:\Users\CYMR90~1\AppData\Local\Temp\ccxAEgth.s:28622  .debug_str:0000000000021f11 .LASF5618
C:\Users\CYMR90~1\AppData\Local\Temp\ccxAEgth.s:956    .text.hau_interrupt_disable:0000000000000000 .LFB365
C:\Users\CYMR90~1\AppData\Local\Temp\ccxAEgth.s:987    .text.hau_interrupt_disable:0000000000000030 .LFE365
C:\Users\CYMR90~1\AppData\Local\Temp\ccxAEgth.s:26784  .debug_str:000000000001ac09 .LASF5619
C:\Users\CYMR90~1\AppData\Local\Temp\ccxAEgth.s:29662  .debug_str:0000000000026268 .LASF5620
C:\Users\CYMR90~1\AppData\Local\Temp\ccxAEgth.s:921    .text.hau_interrupt_enable:0000000000000000 .LFB364
C:\Users\CYMR90~1\AppData\Local\Temp\ccxAEgth.s:949    .text.hau_interrupt_enable:000000000000002c .LFE364
C:\Users\CYMR90~1\AppData\Local\Temp\ccxAEgth.s:23977  .debug_str:000000000000f6ba .LASF5621
C:\Users\CYMR90~1\AppData\Local\Temp\ccxAEgth.s:887    .text.hau_flag_clear:0000000000000000 .LFB363
C:\Users\CYMR90~1\AppData\Local\Temp\ccxAEgth.s:914    .text.hau_flag_clear:0000000000000024 .LFE363
C:\Users\CYMR90~1\AppData\Local\Temp\ccxAEgth.s:28396  .debug_str:00000000000210f3 .LASF5623
C:\Users\CYMR90~1\AppData\Local\Temp\ccxAEgth.s:824    .text.hau_flag_get:0000000000000000 .LFB362
C:\Users\CYMR90~1\AppData\Local\Temp\ccxAEgth.s:880    .text.hau_flag_get:0000000000000058 .LFE362
C:\Users\CYMR90~1\AppData\Local\Temp\ccxAEgth.s:20511  .debug_str:00000000000018c7 .LASF5624
C:\Users\CYMR90~1\AppData\Local\Temp\ccxAEgth.s:27918  .debug_str:000000000001f408 .LASF5625
C:\Users\CYMR90~1\AppData\Local\Temp\ccxAEgth.s:718    .text.hau_context_restore:0000000000000000 .LFB361
C:\Users\CYMR90~1\AppData\Local\Temp\ccxAEgth.s:817    .text.hau_context_restore:00000000000000be .LFE361
C:\Users\CYMR90~1\AppData\Local\Temp\ccxAEgth.s:20719  .debug_str:00000000000024c5 .LASF5626
C:\Users\CYMR90~1\AppData\Local\Temp\ccxAEgth.s:21501  .debug_str:0000000000005723 .LASF5627
C:\Users\CYMR90~1\AppData\Local\Temp\ccxAEgth.s:26468  .debug_str:00000000000196ca .LASF5628
C:\Users\CYMR90~1\AppData\Local\Temp\ccxAEgth.s:616    .text.hau_context_save:0000000000000000 .LFB360
C:\Users\CYMR90~1\AppData\Local\Temp\ccxAEgth.s:711    .text.hau_context_save:00000000000000b6 .LFE360
C:\Users\CYMR90~1\AppData\Local\Temp\ccxAEgth.s:21503  .debug_str:0000000000005729 .LASF5629
C:\Users\CYMR90~1\AppData\Local\Temp\ccxAEgth.s:22533  .debug_str:0000000000009962 .LASF5630
C:\Users\CYMR90~1\AppData\Local\Temp\ccxAEgth.s:557    .text.hau_context_struct_para_init:0000000000000000 .LFB359
C:\Users\CYMR90~1\AppData\Local\Temp\ccxAEgth.s:609    .text.hau_context_struct_para_init:000000000000005c .LFE359
C:\Users\CYMR90~1\AppData\Local\Temp\ccxAEgth.s:28562  .debug_str:0000000000021b8f .LASF5631
C:\Users\CYMR90~1\AppData\Local\Temp\ccxAEgth.s:22725  .debug_str:000000000000a52a .LASF5632
C:\Users\CYMR90~1\AppData\Local\Temp\ccxAEgth.s:524    .text.hau_dma_disable:0000000000000000 .LFB358
C:\Users\CYMR90~1\AppData\Local\Temp\ccxAEgth.s:550    .text.hau_dma_disable:0000000000000024 .LFE358
C:\Users\CYMR90~1\AppData\Local\Temp\ccxAEgth.s:25830  .debug_str:0000000000016ea9 .LASF5633
C:\Users\CYMR90~1\AppData\Local\Temp\ccxAEgth.s:491    .text.hau_dma_enable:0000000000000000 .LFB357
C:\Users\CYMR90~1\AppData\Local\Temp\ccxAEgth.s:517    .text.hau_dma_enable:0000000000000026 .LFE357
C:\Users\CYMR90~1\AppData\Local\Temp\ccxAEgth.s:24237  .debug_str:0000000000010681 .LASF5634
C:\Users\CYMR90~1\AppData\Local\Temp\ccxAEgth.s:446    .text.hau_multiple_single_dma_config:0000000000000000 .LFB356
C:\Users\CYMR90~1\AppData\Local\Temp\ccxAEgth.s:484    .text.hau_multiple_single_dma_config:0000000000000046 .LFE356
C:\Users\CYMR90~1\AppData\Local\Temp\ccxAEgth.s:26978  .debug_str:000000000001b800 .LASF5635
C:\Users\CYMR90~1\AppData\Local\Temp\ccxAEgth.s:25894  .debug_str:0000000000017219 .LASF5636
C:\Users\CYMR90~1\AppData\Local\Temp\ccxAEgth.s:413    .text.hau_digest_calculation_enable:0000000000000000 .LFB355
C:\Users\CYMR90~1\AppData\Local\Temp\ccxAEgth.s:439    .text.hau_digest_calculation_enable:0000000000000026 .LFE355
C:\Users\CYMR90~1\AppData\Local\Temp\ccxAEgth.s:20321  .debug_str:0000000000000d5b .LASF5637
C:\Users\CYMR90~1\AppData\Local\Temp\ccxAEgth.s:331    .text.hau_digest_read:0000000000000000 .LFB354
C:\Users\CYMR90~1\AppData\Local\Temp\ccxAEgth.s:406    .text.hau_digest_read:0000000000000092 .LFE354
C:\Users\CYMR90~1\AppData\Local\Temp\ccxAEgth.s:25043  .debug_str:0000000000013b00 .LASF5638
C:\Users\CYMR90~1\AppData\Local\Temp\ccxAEgth.s:30026  .debug_str:0000000000027928 .LASF5639
C:\Users\CYMR90~1\AppData\Local\Temp\ccxAEgth.s:294    .text.hau_infifo_words_num_get:0000000000000000 .LFB353
C:\Users\CYMR90~1\AppData\Local\Temp\ccxAEgth.s:324    .text.hau_infifo_words_num_get:0000000000000028 .LFE353
C:\Users\CYMR90~1\AppData\Local\Temp\ccxAEgth.s:23569  .debug_str:000000000000dcfe .LASF5640
C:\Users\CYMR90~1\AppData\Local\Temp\ccxAEgth.s:262    .text.hau_data_write:0000000000000000 .LFB352
C:\Users\CYMR90~1\AppData\Local\Temp\ccxAEgth.s:287    .text.hau_data_write:0000000000000020 .LFE352
C:\Users\CYMR90~1\AppData\Local\Temp\ccxAEgth.s:30480  .debug_str:00000000000297e7 .LASF5641
C:\Users\CYMR90~1\AppData\Local\Temp\ccxAEgth.s:28772  .debug_str:00000000000227f0 .LASF5642
C:\Users\CYMR90~1\AppData\Local\Temp\ccxAEgth.s:216    .text.hau_last_word_validbits_num_config:0000000000000000 .LFB351
C:\Users\CYMR90~1\AppData\Local\Temp\ccxAEgth.s:255    .text.hau_last_word_validbits_num_config:0000000000000046 .LFE351
C:\Users\CYMR90~1\AppData\Local\Temp\ccxAEgth.s:20337  .debug_str:0000000000000ec2 .LASF5643
C:\Users\CYMR90~1\AppData\Local\Temp\ccxAEgth.s:25858  .debug_str:0000000000017018 .LASF5644
C:\Users\CYMR90~1\AppData\Local\Temp\ccxAEgth.s:183    .text.hau_reset:0000000000000000 .LFB350
C:\Users\CYMR90~1\AppData\Local\Temp\ccxAEgth.s:209    .text.hau_reset:0000000000000026 .LFE350
C:\Users\CYMR90~1\AppData\Local\Temp\ccxAEgth.s:20213  .debug_str:00000000000006b7 .LASF5645
C:\Users\CYMR90~1\AppData\Local\Temp\ccxAEgth.s:145    .text.hau_init_struct_para_init:0000000000000000 .LFB349
C:\Users\CYMR90~1\AppData\Local\Temp\ccxAEgth.s:176    .text.hau_init_struct_para_init:0000000000000032 .LFE349
C:\Users\CYMR90~1\AppData\Local\Temp\ccxAEgth.s:26236  .debug_str:00000000000186d4 .LASF5646
C:\Users\CYMR90~1\AppData\Local\Temp\ccxAEgth.s:30442  .debug_str:0000000000029579 .LASF5647
C:\Users\CYMR90~1\AppData\Local\Temp\ccxAEgth.s:50     .text.hau_init:0000000000000000 .LFB348
C:\Users\CYMR90~1\AppData\Local\Temp\ccxAEgth.s:138    .text.hau_init:00000000000000b8 .LFE348
C:\Users\CYMR90~1\AppData\Local\Temp\ccxAEgth.s:21899  .debug_str:0000000000006fed .LASF5648
C:\Users\CYMR90~1\AppData\Local\Temp\ccxAEgth.s:14     .text.hau_deinit:0000000000000000 .LFB347
C:\Users\CYMR90~1\AppData\Local\Temp\ccxAEgth.s:43     .text.hau_deinit:000000000000002a .LFE347
C:\Users\CYMR90~1\AppData\Local\Temp\ccxAEgth.s:1085   .debug_info:0000000000000000 .Ldebug_info0
C:\Users\CYMR90~1\AppData\Local\Temp\ccxAEgth.s:3084   .debug_macro:0000000000000000 .Ldebug_macro2
C:\Users\CYMR90~1\AppData\Local\Temp\ccxAEgth.s:28856  .debug_str:0000000000022d38 .LASF314
C:\Users\CYMR90~1\AppData\Local\Temp\ccxAEgth.s:25848  .debug_str:0000000000016f9c .LASF315
C:\Users\CYMR90~1\AppData\Local\Temp\ccxAEgth.s:4031   .debug_macro:0000000000000000 .Ldebug_macro3
C:\Users\CYMR90~1\AppData\Local\Temp\ccxAEgth.s:22275  .debug_str:0000000000008915 .LASF369
C:\Users\CYMR90~1\AppData\Local\Temp\ccxAEgth.s:21839  .debug_str:0000000000006bca .LASF370
C:\Users\CYMR90~1\AppData\Local\Temp\ccxAEgth.s:26092  .debug_str:0000000000017e37 .LASF371
C:\Users\CYMR90~1\AppData\Local\Temp\ccxAEgth.s:4195   .debug_macro:0000000000000000 .Ldebug_macro4
C:\Users\CYMR90~1\AppData\Local\Temp\ccxAEgth.s:4215   .debug_macro:0000000000000000 .Ldebug_macro5
C:\Users\CYMR90~1\AppData\Local\Temp\ccxAEgth.s:24749  .debug_str:00000000000127ec .LASF390
C:\Users\CYMR90~1\AppData\Local\Temp\ccxAEgth.s:4259   .debug_macro:0000000000000000 .Ldebug_macro6
C:\Users\CYMR90~1\AppData\Local\Temp\ccxAEgth.s:4273   .debug_macro:0000000000000000 .Ldebug_macro7
C:\Users\CYMR90~1\AppData\Local\Temp\ccxAEgth.s:4341   .debug_macro:0000000000000000 .Ldebug_macro8
C:\Users\CYMR90~1\AppData\Local\Temp\ccxAEgth.s:4367   .debug_macro:0000000000000000 .Ldebug_macro9
C:\Users\CYMR90~1\AppData\Local\Temp\ccxAEgth.s:4396   .debug_macro:0000000000000000 .Ldebug_macro10
C:\Users\CYMR90~1\AppData\Local\Temp\ccxAEgth.s:26230  .debug_str:0000000000018678 .LASF433
C:\Users\CYMR90~1\AppData\Local\Temp\ccxAEgth.s:4410   .debug_macro:0000000000000000 .Ldebug_macro11
C:\Users\CYMR90~1\AppData\Local\Temp\ccxAEgth.s:4454   .debug_macro:0000000000000000 .Ldebug_macro12
C:\Users\CYMR90~1\AppData\Local\Temp\ccxAEgth.s:4480   .debug_macro:0000000000000000 .Ldebug_macro13
C:\Users\CYMR90~1\AppData\Local\Temp\ccxAEgth.s:29804  .debug_str:0000000000026b27 .LASF569
C:\Users\CYMR90~1\AppData\Local\Temp\ccxAEgth.s:4851   .debug_macro:0000000000000000 .Ldebug_macro14
C:\Users\CYMR90~1\AppData\Local\Temp\ccxAEgth.s:24273  .debug_str:000000000001087b .LASF572
C:\Users\CYMR90~1\AppData\Local\Temp\ccxAEgth.s:29136  .debug_str:0000000000023dec .LASF573
C:\Users\CYMR90~1\AppData\Local\Temp\ccxAEgth.s:4862   .debug_macro:0000000000000000 .Ldebug_macro15
C:\Users\CYMR90~1\AppData\Local\Temp\ccxAEgth.s:4876   .debug_macro:0000000000000000 .Ldebug_macro16
C:\Users\CYMR90~1\AppData\Local\Temp\ccxAEgth.s:30936  .debug_str:000000000002b311 .LASF578
C:\Users\CYMR90~1\AppData\Local\Temp\ccxAEgth.s:4908   .debug_macro:0000000000000000 .Ldebug_macro17
C:\Users\CYMR90~1\AppData\Local\Temp\ccxAEgth.s:4934   .debug_macro:0000000000000000 .Ldebug_macro18
C:\Users\CYMR90~1\AppData\Local\Temp\ccxAEgth.s:4945   .debug_macro:0000000000000000 .Ldebug_macro19
C:\Users\CYMR90~1\AppData\Local\Temp\ccxAEgth.s:4989   .debug_macro:0000000000000000 .Ldebug_macro20
C:\Users\CYMR90~1\AppData\Local\Temp\ccxAEgth.s:5159   .debug_macro:0000000000000000 .Ldebug_macro21
C:\Users\CYMR90~1\AppData\Local\Temp\ccxAEgth.s:5170   .debug_macro:0000000000000000 .Ldebug_macro22
C:\Users\CYMR90~1\AppData\Local\Temp\ccxAEgth.s:24755  .debug_str:0000000000012845 .LASF675
C:\Users\CYMR90~1\AppData\Local\Temp\ccxAEgth.s:5226   .debug_macro:0000000000000000 .Ldebug_macro23
C:\Users\CYMR90~1\AppData\Local\Temp\ccxAEgth.s:5243   .debug_macro:0000000000000000 .Ldebug_macro24
C:\Users\CYMR90~1\AppData\Local\Temp\ccxAEgth.s:27942  .debug_str:000000000001f56d .LASF693
C:\Users\CYMR90~1\AppData\Local\Temp\ccxAEgth.s:26098  .debug_str:0000000000017e68 .LASF694
C:\Users\CYMR90~1\AppData\Local\Temp\ccxAEgth.s:5287   .debug_macro:0000000000000000 .Ldebug_macro25
C:\Users\CYMR90~1\AppData\Local\Temp\ccxAEgth.s:21305  .debug_str:0000000000004b92 .LASF700
C:\Users\CYMR90~1\AppData\Local\Temp\ccxAEgth.s:22413  .debug_str:0000000000009191 .LASF701
C:\Users\CYMR90~1\AppData\Local\Temp\ccxAEgth.s:5307   .debug_macro:0000000000000000 .Ldebug_macro26
C:\Users\CYMR90~1\AppData\Local\Temp\ccxAEgth.s:5318   .debug_macro:0000000000000000 .Ldebug_macro27
C:\Users\CYMR90~1\AppData\Local\Temp\ccxAEgth.s:5362   .debug_macro:0000000000000000 .Ldebug_macro28
C:\Users\CYMR90~1\AppData\Local\Temp\ccxAEgth.s:21669  .debug_str:000000000000612e .LASF749
C:\Users\CYMR90~1\AppData\Local\Temp\ccxAEgth.s:5463   .debug_macro:0000000000000000 .Ldebug_macro29
C:\Users\CYMR90~1\AppData\Local\Temp\ccxAEgth.s:5480   .debug_macro:0000000000000000 .Ldebug_macro30
C:\Users\CYMR90~1\AppData\Local\Temp\ccxAEgth.s:20167  .debug_str:000000000000042f .LASF763
C:\Users\CYMR90~1\AppData\Local\Temp\ccxAEgth.s:21485  .debug_str:0000000000005639 .LASF764
C:\Users\CYMR90~1\AppData\Local\Temp\ccxAEgth.s:5512   .debug_macro:0000000000000000 .Ldebug_macro31
C:\Users\CYMR90~1\AppData\Local\Temp\ccxAEgth.s:5526   .debug_macro:0000000000000000 .Ldebug_macro32
C:\Users\CYMR90~1\AppData\Local\Temp\ccxAEgth.s:5696   .debug_macro:0000000000000000 .Ldebug_macro33
C:\Users\CYMR90~1\AppData\Local\Temp\ccxAEgth.s:23929  .debug_str:000000000000f2b3 .LASF850
C:\Users\CYMR90~1\AppData\Local\Temp\ccxAEgth.s:26318  .debug_str:0000000000018cb3 .LASF851
C:\Users\CYMR90~1\AppData\Local\Temp\ccxAEgth.s:5782   .debug_macro:0000000000000000 .Ldebug_macro34
C:\Users\CYMR90~1\AppData\Local\Temp\ccxAEgth.s:5907   .debug_macro:0000000000000000 .Ldebug_macro35
C:\Users\CYMR90~1\AppData\Local\Temp\ccxAEgth.s:20449  .debug_str:00000000000014ea .LASF951
C:\Users\CYMR90~1\AppData\Local\Temp\ccxAEgth.s:6119   .debug_macro:0000000000000000 .Ldebug_macro36
C:\Users\CYMR90~1\AppData\Local\Temp\ccxAEgth.s:22161  .debug_str:0000000000008203 .LASF957
C:\Users\CYMR90~1\AppData\Local\Temp\ccxAEgth.s:21721  .debug_str:000000000000643f .LASF958
C:\Users\CYMR90~1\AppData\Local\Temp\ccxAEgth.s:20613  .debug_str:0000000000001ee5 .LASF959
C:\Users\CYMR90~1\AppData\Local\Temp\ccxAEgth.s:6139   .debug_macro:0000000000000000 .Ldebug_macro37
C:\Users\CYMR90~1\AppData\Local\Temp\ccxAEgth.s:6231   .debug_macro:0000000000000000 .Ldebug_macro38
C:\Users\CYMR90~1\AppData\Local\Temp\ccxAEgth.s:7877   .debug_macro:0000000000000000 .Ldebug_macro39
C:\Users\CYMR90~1\AppData\Local\Temp\ccxAEgth.s:7969   .debug_macro:0000000000000000 .Ldebug_macro40
C:\Users\CYMR90~1\AppData\Local\Temp\ccxAEgth.s:8025   .debug_macro:0000000000000000 .Ldebug_macro41
C:\Users\CYMR90~1\AppData\Local\Temp\ccxAEgth.s:8039   .debug_macro:0000000000000000 .Ldebug_macro42
C:\Users\CYMR90~1\AppData\Local\Temp\ccxAEgth.s:25631  .debug_str:0000000000015fad .LASF1655
C:\Users\CYMR90~1\AppData\Local\Temp\ccxAEgth.s:22539  .debug_str:00000000000099e2 .LASF1656
C:\Users\CYMR90~1\AppData\Local\Temp\ccxAEgth.s:8263   .debug_macro:0000000000000000 .Ldebug_macro43
C:\Users\CYMR90~1\AppData\Local\Temp\ccxAEgth.s:8310   .debug_macro:0000000000000000 .Ldebug_macro44
C:\Users\CYMR90~1\AppData\Local\Temp\ccxAEgth.s:8465   .debug_macro:0000000000000000 .Ldebug_macro45
C:\Users\CYMR90~1\AppData\Local\Temp\ccxAEgth.s:8521   .debug_macro:0000000000000000 .Ldebug_macro46
C:\Users\CYMR90~1\AppData\Local\Temp\ccxAEgth.s:8532   .debug_macro:0000000000000000 .Ldebug_macro47
C:\Users\CYMR90~1\AppData\Local\Temp\ccxAEgth.s:30582  .debug_str:0000000000029de4 .LASF1782
C:\Users\CYMR90~1\AppData\Local\Temp\ccxAEgth.s:25399  .debug_str:0000000000015144 .LASF1783
C:\Users\CYMR90~1\AppData\Local\Temp\ccxAEgth.s:8663   .debug_macro:0000000000000000 .Ldebug_macro48
C:\Users\CYMR90~1\AppData\Local\Temp\ccxAEgth.s:9235   .debug_macro:0000000000000000 .Ldebug_macro49
C:\Users\CYMR90~1\AppData\Local\Temp\ccxAEgth.s:9522   .debug_macro:0000000000000000 .Ldebug_macro50
C:\Users\CYMR90~1\AppData\Local\Temp\ccxAEgth.s:9551   .debug_macro:0000000000000000 .Ldebug_macro51
C:\Users\CYMR90~1\AppData\Local\Temp\ccxAEgth.s:9628   .debug_macro:0000000000000000 .Ldebug_macro52
C:\Users\CYMR90~1\AppData\Local\Temp\ccxAEgth.s:10161  .debug_macro:0000000000000000 .Ldebug_macro53
C:\Users\CYMR90~1\AppData\Local\Temp\ccxAEgth.s:10184  .debug_macro:0000000000000000 .Ldebug_macro54
C:\Users\CYMR90~1\AppData\Local\Temp\ccxAEgth.s:10450  .debug_macro:0000000000000000 .Ldebug_macro55
C:\Users\CYMR90~1\AppData\Local\Temp\ccxAEgth.s:10929  .debug_macro:0000000000000000 .Ldebug_macro56
C:\Users\CYMR90~1\AppData\Local\Temp\ccxAEgth.s:11258  .debug_macro:0000000000000000 .Ldebug_macro57
C:\Users\CYMR90~1\AppData\Local\Temp\ccxAEgth.s:11347  .debug_macro:0000000000000000 .Ldebug_macro58
C:\Users\CYMR90~1\AppData\Local\Temp\ccxAEgth.s:12162  .debug_macro:0000000000000000 .Ldebug_macro59
C:\Users\CYMR90~1\AppData\Local\Temp\ccxAEgth.s:12665  .debug_macro:0000000000000000 .Ldebug_macro60
C:\Users\CYMR90~1\AppData\Local\Temp\ccxAEgth.s:12811  .debug_macro:0000000000000000 .Ldebug_macro61
C:\Users\CYMR90~1\AppData\Local\Temp\ccxAEgth.s:13341  .debug_macro:0000000000000000 .Ldebug_macro62
C:\Users\CYMR90~1\AppData\Local\Temp\ccxAEgth.s:13763  .debug_macro:0000000000000000 .Ldebug_macro63
C:\Users\CYMR90~1\AppData\Local\Temp\ccxAEgth.s:16537  .debug_macro:0000000000000000 .Ldebug_macro64
C:\Users\CYMR90~1\AppData\Local\Temp\ccxAEgth.s:17613  .debug_macro:0000000000000000 .Ldebug_macro65
C:\Users\CYMR90~1\AppData\Local\Temp\ccxAEgth.s:17882  .debug_macro:0000000000000000 .Ldebug_macro66
C:\Users\CYMR90~1\AppData\Local\Temp\ccxAEgth.s:18154  .debug_macro:0000000000000000 .Ldebug_macro67
C:\Users\CYMR90~1\AppData\Local\Temp\ccxAEgth.s:19182  .debug_macro:0000000000000000 .Ldebug_macro68
C:\Users\CYMR90~1\AppData\Local\Temp\ccxAEgth.s:19226  .debug_macro:0000000000000000 .Ldebug_macro69
C:\Users\CYMR90~1\AppData\Local\Temp\ccxAEgth.s:19852  .debug_macro:0000000000000000 .Ldebug_macro70
C:\Users\CYMR90~1\AppData\Local\Temp\ccxAEgth.s:19911  .debug_macro:0000000000000000 .Ldebug_macro71
C:\Users\CYMR90~1\AppData\Local\Temp\ccxAEgth.s:23323  .debug_str:000000000000ccf4 .LASF5556
C:\Users\CYMR90~1\AppData\Local\Temp\ccxAEgth.s:29246  .debug_str:0000000000024586 .LASF5557
C:\Users\CYMR90~1\AppData\Local\Temp\ccxAEgth.s:21467  .debug_str:0000000000005536 .LASF0
C:\Users\CYMR90~1\AppData\Local\Temp\ccxAEgth.s:25826  .debug_str:0000000000016e74 .LASF1
C:\Users\CYMR90~1\AppData\Local\Temp\ccxAEgth.s:24099  .debug_str:000000000000fe4a .LASF2
C:\Users\CYMR90~1\AppData\Local\Temp\ccxAEgth.s:24157  .debug_str:00000000000101ca .LASF3
C:\Users\CYMR90~1\AppData\Local\Temp\ccxAEgth.s:25443  .debug_str:000000000001537e .LASF4
C:\Users\CYMR90~1\AppData\Local\Temp\ccxAEgth.s:30982  .debug_str:000000000002b60f .LASF5
C:\Users\CYMR90~1\AppData\Local\Temp\ccxAEgth.s:21695  .debug_str:00000000000062d6 .LASF6
C:\Users\CYMR90~1\AppData\Local\Temp\ccxAEgth.s:30304  .debug_str:0000000000028c82 .LASF7
C:\Users\CYMR90~1\AppData\Local\Temp\ccxAEgth.s:29254  .debug_str:0000000000024608 .LASF8
C:\Users\CYMR90~1\AppData\Local\Temp\ccxAEgth.s:27164  .debug_str:000000000001c35a .LASF9
C:\Users\CYMR90~1\AppData\Local\Temp\ccxAEgth.s:26520  .debug_str:0000000000019a7a .LASF10
C:\Users\CYMR90~1\AppData\Local\Temp\ccxAEgth.s:26374  .debug_str:00000000000190b6 .LASF11
C:\Users\CYMR90~1\AppData\Local\Temp\ccxAEgth.s:30820  .debug_str:000000000002abe1 .LASF12
C:\Users\CYMR90~1\AppData\Local\Temp\ccxAEgth.s:26386  .debug_str:000000000001916a .LASF13
C:\Users\CYMR90~1\AppData\Local\Temp\ccxAEgth.s:22697  .debug_str:000000000000a3b0 .LASF14
C:\Users\CYMR90~1\AppData\Local\Temp\ccxAEgth.s:27738  .debug_str:000000000001e96f .LASF15
C:\Users\CYMR90~1\AppData\Local\Temp\ccxAEgth.s:28496  .debug_str:000000000002178f .LASF16
C:\Users\CYMR90~1\AppData\Local\Temp\ccxAEgth.s:22747  .debug_str:000000000000a6a8 .LASF17
C:\Users\CYMR90~1\AppData\Local\Temp\ccxAEgth.s:29536  .debug_str:0000000000025a61 .LASF18
C:\Users\CYMR90~1\AppData\Local\Temp\ccxAEgth.s:23707  .debug_str:000000000000e556 .LASF19
C:\Users\CYMR90~1\AppData\Local\Temp\ccxAEgth.s:29344  .debug_str:0000000000024c47 .LASF20
C:\Users\CYMR90~1\AppData\Local\Temp\ccxAEgth.s:26184  .debug_str:00000000000183b6 .LASF21
C:\Users\CYMR90~1\AppData\Local\Temp\ccxAEgth.s:26182  .debug_str:000000000001839c .LASF22
C:\Users\CYMR90~1\AppData\Local\Temp\ccxAEgth.s:28806  .debug_str:0000000000022a5d .LASF23
C:\Users\CYMR90~1\AppData\Local\Temp\ccxAEgth.s:27114  .debug_str:000000000001c0a3 .LASF24
C:\Users\CYMR90~1\AppData\Local\Temp\ccxAEgth.s:21009  .debug_str:00000000000037af .LASF25
C:\Users\CYMR90~1\AppData\Local\Temp\ccxAEgth.s:25567  .debug_str:0000000000015b4c .LASF26
C:\Users\CYMR90~1\AppData\Local\Temp\ccxAEgth.s:28810  .debug_str:0000000000022a93 .LASF27
C:\Users\CYMR90~1\AppData\Local\Temp\ccxAEgth.s:28504  .debug_str:00000000000217ec .LASF28
C:\Users\CYMR90~1\AppData\Local\Temp\ccxAEgth.s:21419  .debug_str:0000000000005264 .LASF29
C:\Users\CYMR90~1\AppData\Local\Temp\ccxAEgth.s:27518  .debug_str:000000000001dc15 .LASF30
C:\Users\CYMR90~1\AppData\Local\Temp\ccxAEgth.s:20397  .debug_str:00000000000011ff .LASF31
C:\Users\CYMR90~1\AppData\Local\Temp\ccxAEgth.s:27978  .debug_str:000000000001f77a .LASF32
C:\Users\CYMR90~1\AppData\Local\Temp\ccxAEgth.s:22581  .debug_str:0000000000009c4d .LASF33
C:\Users\CYMR90~1\AppData\Local\Temp\ccxAEgth.s:22429  .debug_str:000000000000927c .LASF34
C:\Users\CYMR90~1\AppData\Local\Temp\ccxAEgth.s:23739  .debug_str:000000000000e734 .LASF35
C:\Users\CYMR90~1\AppData\Local\Temp\ccxAEgth.s:26632  .debug_str:000000000001a0f1 .LASF36
C:\Users\CYMR90~1\AppData\Local\Temp\ccxAEgth.s:21933  .debug_str:000000000000722d .LASF37
C:\Users\CYMR90~1\AppData\Local\Temp\ccxAEgth.s:24097  .debug_str:000000000000fe27 .LASF38
C:\Users\CYMR90~1\AppData\Local\Temp\ccxAEgth.s:20975  .debug_str:000000000000355f .LASF39
C:\Users\CYMR90~1\AppData\Local\Temp\ccxAEgth.s:20771  .debug_str:000000000000285e .LASF40
C:\Users\CYMR90~1\AppData\Local\Temp\ccxAEgth.s:24261  .debug_str:00000000000107cb .LASF41
C:\Users\CYMR90~1\AppData\Local\Temp\ccxAEgth.s:24687  .debug_str:00000000000123c6 .LASF42
C:\Users\CYMR90~1\AppData\Local\Temp\ccxAEgth.s:24953  .debug_str:00000000000135c1 .LASF43
C:\Users\CYMR90~1\AppData\Local\Temp\ccxAEgth.s:26622  .debug_str:000000000001a05f .LASF44
C:\Users\CYMR90~1\AppData\Local\Temp\ccxAEgth.s:24549  .debug_str:0000000000011b08 .LASF45
C:\Users\CYMR90~1\AppData\Local\Temp\ccxAEgth.s:21241  .debug_str:0000000000004711 .LASF46
C:\Users\CYMR90~1\AppData\Local\Temp\ccxAEgth.s:27524  .debug_str:000000000001dc7a .LASF47
C:\Users\CYMR90~1\AppData\Local\Temp\ccxAEgth.s:29256  .debug_str:000000000002461d .LASF48
C:\Users\CYMR90~1\AppData\Local\Temp\ccxAEgth.s:23485  .debug_str:000000000000d7ab .LASF49
C:\Users\CYMR90~1\AppData\Local\Temp\ccxAEgth.s:20609  .debug_str:0000000000001eb2 .LASF50
C:\Users\CYMR90~1\AppData\Local\Temp\ccxAEgth.s:20119  .debug_str:000000000000012a .LASF51
C:\Users\CYMR90~1\AppData\Local\Temp\ccxAEgth.s:30594  .debug_str:0000000000029e78 .LASF52
C:\Users\CYMR90~1\AppData\Local\Temp\ccxAEgth.s:23297  .debug_str:000000000000cb6f .LASF53
C:\Users\CYMR90~1\AppData\Local\Temp\ccxAEgth.s:25031  .debug_str:0000000000013a59 .LASF54
C:\Users\CYMR90~1\AppData\Local\Temp\ccxAEgth.s:24061  .debug_str:000000000000fb9d .LASF55
C:\Users\CYMR90~1\AppData\Local\Temp\ccxAEgth.s:22023  .debug_str:00000000000077a8 .LASF56
C:\Users\CYMR90~1\AppData\Local\Temp\ccxAEgth.s:25421  .debug_str:0000000000015253 .LASF57
C:\Users\CYMR90~1\AppData\Local\Temp\ccxAEgth.s:20351  .debug_str:0000000000000f5d .LASF58
C:\Users\CYMR90~1\AppData\Local\Temp\ccxAEgth.s:29540  .debug_str:0000000000025aa1 .LASF59
C:\Users\CYMR90~1\AppData\Local\Temp\ccxAEgth.s:24961  .debug_str:000000000001361c .LASF60
C:\Users\CYMR90~1\AppData\Local\Temp\ccxAEgth.s:26900  .debug_str:000000000001b3aa .LASF61
C:\Users\CYMR90~1\AppData\Local\Temp\ccxAEgth.s:20835  .debug_str:0000000000002c86 .LASF62
C:\Users\CYMR90~1\AppData\Local\Temp\ccxAEgth.s:23479  .debug_str:000000000000d767 .LASF63
C:\Users\CYMR90~1\AppData\Local\Temp\ccxAEgth.s:23209  .debug_str:000000000000c5c2 .LASF64
C:\Users\CYMR90~1\AppData\Local\Temp\ccxAEgth.s:26608  .debug_str:0000000000019f96 .LASF65
C:\Users\CYMR90~1\AppData\Local\Temp\ccxAEgth.s:25261  .debug_str:000000000001482e .LASF66
C:\Users\CYMR90~1\AppData\Local\Temp\ccxAEgth.s:30376  .debug_str:00000000000290df .LASF67
C:\Users\CYMR90~1\AppData\Local\Temp\ccxAEgth.s:30822  .debug_str:000000000002abf4 .LASF68
C:\Users\CYMR90~1\AppData\Local\Temp\ccxAEgth.s:24503  .debug_str:00000000000117cb .LASF69
C:\Users\CYMR90~1\AppData\Local\Temp\ccxAEgth.s:23633  .debug_str:000000000000e098 .LASF70
C:\Users\CYMR90~1\AppData\Local\Temp\ccxAEgth.s:21253  .debug_str:0000000000004864 .LASF71
C:\Users\CYMR90~1\AppData\Local\Temp\ccxAEgth.s:24537  .debug_str:0000000000011a45 .LASF72
C:\Users\CYMR90~1\AppData\Local\Temp\ccxAEgth.s:24165  .debug_str:000000000001023b .LASF73
C:\Users\CYMR90~1\AppData\Local\Temp\ccxAEgth.s:24767  .debug_str:0000000000012936 .LASF74
C:\Users\CYMR90~1\AppData\Local\Temp\ccxAEgth.s:24609  .debug_str:0000000000011ed9 .LASF75
C:\Users\CYMR90~1\AppData\Local\Temp\ccxAEgth.s:24707  .debug_str:0000000000012531 .LASF76
C:\Users\CYMR90~1\AppData\Local\Temp\ccxAEgth.s:29170  .debug_str:000000000002406f .LASF77
C:\Users\CYMR90~1\AppData\Local\Temp\ccxAEgth.s:27090  .debug_str:000000000001bf34 .LASF78
C:\Users\CYMR90~1\AppData\Local\Temp\ccxAEgth.s:27488  .debug_str:000000000001d9bb .LASF79
C:\Users\CYMR90~1\AppData\Local\Temp\ccxAEgth.s:30356  .debug_str:0000000000028f90 .LASF80
C:\Users\CYMR90~1\AppData\Local\Temp\ccxAEgth.s:22531  .debug_str:0000000000009951 .LASF81
C:\Users\CYMR90~1\AppData\Local\Temp\ccxAEgth.s:22733  .debug_str:000000000000a574 .LASF82
C:\Users\CYMR90~1\AppData\Local\Temp\ccxAEgth.s:30488  .debug_str:0000000000029863 .LASF83
C:\Users\CYMR90~1\AppData\Local\Temp\ccxAEgth.s:22471  .debug_str:0000000000009548 .LASF84
C:\Users\CYMR90~1\AppData\Local\Temp\ccxAEgth.s:21755  .debug_str:0000000000006679 .LASF85
C:\Users\CYMR90~1\AppData\Local\Temp\ccxAEgth.s:26806  .debug_str:000000000001ada5 .LASF86
C:\Users\CYMR90~1\AppData\Local\Temp\ccxAEgth.s:30518  .debug_str:00000000000299ed .LASF87
C:\Users\CYMR90~1\AppData\Local\Temp\ccxAEgth.s:27916  .debug_str:000000000001f3e4 .LASF88
C:\Users\CYMR90~1\AppData\Local\Temp\ccxAEgth.s:26722  .debug_str:000000000001a84f .LASF89
C:\Users\CYMR90~1\AppData\Local\Temp\ccxAEgth.s:27946  .debug_str:000000000001f5a0 .LASF90
C:\Users\CYMR90~1\AppData\Local\Temp\ccxAEgth.s:30728  .debug_str:000000000002a676 .LASF91
C:\Users\CYMR90~1\AppData\Local\Temp\ccxAEgth.s:29548  .debug_str:0000000000025b19 .LASF92
C:\Users\CYMR90~1\AppData\Local\Temp\ccxAEgth.s:22609  .debug_str:0000000000009e26 .LASF93
C:\Users\CYMR90~1\AppData\Local\Temp\ccxAEgth.s:27366  .debug_str:000000000001d21c .LASF94
C:\Users\CYMR90~1\AppData\Local\Temp\ccxAEgth.s:24989  .debug_str:00000000000137d5 .LASF95
C:\Users\CYMR90~1\AppData\Local\Temp\ccxAEgth.s:24973  .debug_str:00000000000136e5 .LASF96
C:\Users\CYMR90~1\AppData\Local\Temp\ccxAEgth.s:31030  .debug_str:000000000002b92d .LASF97
C:\Users\CYMR90~1\AppData\Local\Temp\ccxAEgth.s:24621  .debug_str:0000000000011fab .LASF98
C:\Users\CYMR90~1\AppData\Local\Temp\ccxAEgth.s:28522  .debug_str:0000000000021910 .LASF99
C:\Users\CYMR90~1\AppData\Local\Temp\ccxAEgth.s:21969  .debug_str:000000000000742b .LASF100
C:\Users\CYMR90~1\AppData\Local\Temp\ccxAEgth.s:24111  .debug_str:000000000000fed5 .LASF101
C:\Users\CYMR90~1\AppData\Local\Temp\ccxAEgth.s:25485  .debug_str:00000000000155d5 .LASF102
C:\Users\CYMR90~1\AppData\Local\Temp\ccxAEgth.s:24387  .debug_str:0000000000010fc9 .LASF103
C:\Users\CYMR90~1\AppData\Local\Temp\ccxAEgth.s:23397  .debug_str:000000000000d1e1 .LASF104
C:\Users\CYMR90~1\AppData\Local\Temp\ccxAEgth.s:24559  .debug_str:0000000000011b9f .LASF105
C:\Users\CYMR90~1\AppData\Local\Temp\ccxAEgth.s:27188  .debug_str:000000000001c523 .LASF106
C:\Users\CYMR90~1\AppData\Local\Temp\ccxAEgth.s:24381  .debug_str:0000000000010f64 .LASF107
C:\Users\CYMR90~1\AppData\Local\Temp\ccxAEgth.s:23393  .debug_str:000000000000d1bd .LASF108
C:\Users\CYMR90~1\AppData\Local\Temp\ccxAEgth.s:24823  .debug_str:0000000000012cb7 .LASF109
C:\Users\CYMR90~1\AppData\Local\Temp\ccxAEgth.s:23763  .debug_str:000000000000e8ce .LASF110
C:\Users\CYMR90~1\AppData\Local\Temp\ccxAEgth.s:26238  .debug_str:00000000000186dd .LASF111
C:\Users\CYMR90~1\AppData\Local\Temp\ccxAEgth.s:22871  .debug_str:000000000000afcb .LASF112
C:\Users\CYMR90~1\AppData\Local\Temp\ccxAEgth.s:22607  .debug_str:0000000000009dfd .LASF113
C:\Users\CYMR90~1\AppData\Local\Temp\ccxAEgth.s:25517  .debug_str:00000000000157d5 .LASF114
C:\Users\CYMR90~1\AppData\Local\Temp\ccxAEgth.s:30416  .debug_str:00000000000293d1 .LASF115
C:\Users\CYMR90~1\AppData\Local\Temp\ccxAEgth.s:29052  .debug_str:00000000000238e9 .LASF116
C:\Users\CYMR90~1\AppData\Local\Temp\ccxAEgth.s:22363  .debug_str:0000000000008e9d .LASF117
C:\Users\CYMR90~1\AppData\Local\Temp\ccxAEgth.s:26956  .debug_str:000000000001b70a .LASF118
C:\Users\CYMR90~1\AppData\Local\Temp\ccxAEgth.s:31136  .debug_str:000000000002c054 .LASF119
C:\Users\CYMR90~1\AppData\Local\Temp\ccxAEgth.s:23681  .debug_str:000000000000e36b .LASF120
C:\Users\CYMR90~1\AppData\Local\Temp\ccxAEgth.s:29152  .debug_str:0000000000023ebb .LASF121
C:\Users\CYMR90~1\AppData\Local\Temp\ccxAEgth.s:23171  .debug_str:000000000000c35b .LASF122
C:\Users\CYMR90~1\AppData\Local\Temp\ccxAEgth.s:23283  .debug_str:000000000000cac2 .LASF123
C:\Users\CYMR90~1\AppData\Local\Temp\ccxAEgth.s:20945  .debug_str:0000000000003396 .LASF124
C:\Users\CYMR90~1\AppData\Local\Temp\ccxAEgth.s:21217  .debug_str:000000000000455b .LASF125
C:\Users\CYMR90~1\AppData\Local\Temp\ccxAEgth.s:30094  .debug_str:0000000000027ddc .LASF126
C:\Users\CYMR90~1\AppData\Local\Temp\ccxAEgth.s:24565  .debug_str:0000000000011bdd .LASF127
C:\Users\CYMR90~1\AppData\Local\Temp\ccxAEgth.s:27342  .debug_str:000000000001d0be .LASF128
C:\Users\CYMR90~1\AppData\Local\Temp\ccxAEgth.s:22437  .debug_str:00000000000092f4 .LASF129
C:\Users\CYMR90~1\AppData\Local\Temp\ccxAEgth.s:29668  .debug_str:00000000000262b9 .LASF130
C:\Users\CYMR90~1\AppData\Local\Temp\ccxAEgth.s:29972  .debug_str:00000000000275e7 .LASF131
C:\Users\CYMR90~1\AppData\Local\Temp\ccxAEgth.s:29784  .debug_str:00000000000269cc .LASF132
C:\Users\CYMR90~1\AppData\Local\Temp\ccxAEgth.s:23657  .debug_str:000000000000e1fa .LASF133
C:\Users\CYMR90~1\AppData\Local\Temp\ccxAEgth.s:29070  .debug_str:00000000000239f9 .LASF134
C:\Users\CYMR90~1\AppData\Local\Temp\ccxAEgth.s:21211  .debug_str:00000000000044f4 .LASF135
C:\Users\CYMR90~1\AppData\Local\Temp\ccxAEgth.s:22067  .debug_str:0000000000007a84 .LASF136
C:\Users\CYMR90~1\AppData\Local\Temp\ccxAEgth.s:30814  .debug_str:000000000002abaa .LASF137
C:\Users\CYMR90~1\AppData\Local\Temp\ccxAEgth.s:24819  .debug_str:0000000000012c87 .LASF138
C:\Users\CYMR90~1\AppData\Local\Temp\ccxAEgth.s:30302  .debug_str:0000000000028c72 .LASF139
C:\Users\CYMR90~1\AppData\Local\Temp\ccxAEgth.s:29432  .debug_str:00000000000252b8 .LASF140
C:\Users\CYMR90~1\AppData\Local\Temp\ccxAEgth.s:27046  .debug_str:000000000001bc64 .LASF141
C:\Users\CYMR90~1\AppData\Local\Temp\ccxAEgth.s:22569  .debug_str:0000000000009b8e .LASF142
C:\Users\CYMR90~1\AppData\Local\Temp\ccxAEgth.s:30886  .debug_str:000000000002afba .LASF143
C:\Users\CYMR90~1\AppData\Local\Temp\ccxAEgth.s:26206  .debug_str:00000000000184ca .LASF144
C:\Users\CYMR90~1\AppData\Local\Temp\ccxAEgth.s:25273  .debug_str:0000000000014913 .LASF145
C:\Users\CYMR90~1\AppData\Local\Temp\ccxAEgth.s:23243  .debug_str:000000000000c89e .LASF146
C:\Users\CYMR90~1\AppData\Local\Temp\ccxAEgth.s:21251  .debug_str:000000000000484d .LASF147
C:\Users\CYMR90~1\AppData\Local\Temp\ccxAEgth.s:23805  .debug_str:000000000000eb44 .LASF148
C:\Users\CYMR90~1\AppData\Local\Temp\ccxAEgth.s:26186  .debug_str:00000000000183ca .LASF149
C:\Users\CYMR90~1\AppData\Local\Temp\ccxAEgth.s:20193  .debug_str:0000000000000587 .LASF150
C:\Users\CYMR90~1\AppData\Local\Temp\ccxAEgth.s:31368  .debug_str:000000000002cf7a .LASF151
C:\Users\CYMR90~1\AppData\Local\Temp\ccxAEgth.s:24813  .debug_str:0000000000012c05 .LASF152
C:\Users\CYMR90~1\AppData\Local\Temp\ccxAEgth.s:29438  .debug_str:000000000002530b .LASF153
C:\Users\CYMR90~1\AppData\Local\Temp\ccxAEgth.s:27248  .debug_str:000000000001c96d .LASF154
C:\Users\CYMR90~1\AppData\Local\Temp\ccxAEgth.s:24219  .debug_str:000000000001056b .LASF155
C:\Users\CYMR90~1\AppData\Local\Temp\ccxAEgth.s:27260  .debug_str:000000000001ca53 .LASF156
C:\Users\CYMR90~1\AppData\Local\Temp\ccxAEgth.s:27372  .debug_str:000000000001d284 .LASF157
C:\Users\CYMR90~1\AppData\Local\Temp\ccxAEgth.s:23103  .debug_str:000000000000bf38 .LASF158
C:\Users\CYMR90~1\AppData\Local\Temp\ccxAEgth.s:22165  .debug_str:0000000000008225 .LASF159
C:\Users\CYMR90~1\AppData\Local\Temp\ccxAEgth.s:26906  .debug_str:000000000001b3fe .LASF160
C:\Users\CYMR90~1\AppData\Local\Temp\ccxAEgth.s:28330  .debug_str:0000000000020d50 .LASF161
C:\Users\CYMR90~1\AppData\Local\Temp\ccxAEgth.s:26512  .debug_str:00000000000199e8 .LASF162
C:\Users\CYMR90~1\AppData\Local\Temp\ccxAEgth.s:29060  .debug_str:000000000002395b .LASF163
C:\Users\CYMR90~1\AppData\Local\Temp\ccxAEgth.s:30714  .debug_str:000000000002a5a8 .LASF164
C:\Users\CYMR90~1\AppData\Local\Temp\ccxAEgth.s:21923  .debug_str:00000000000071a9 .LASF165
C:\Users\CYMR90~1\AppData\Local\Temp\ccxAEgth.s:30404  .debug_str:00000000000292a2 .LASF166
C:\Users\CYMR90~1\AppData\Local\Temp\ccxAEgth.s:30224  .debug_str:00000000000287a1 .LASF167
C:\Users\CYMR90~1\AppData\Local\Temp\ccxAEgth.s:28980  .debug_str:000000000002343b .LASF168
C:\Users\CYMR90~1\AppData\Local\Temp\ccxAEgth.s:25972  .debug_str:00000000000176e9 .LASF169
C:\Users\CYMR90~1\AppData\Local\Temp\ccxAEgth.s:29846  .debug_str:0000000000026d79 .LASF170
C:\Users\CYMR90~1\AppData\Local\Temp\ccxAEgth.s:25593  .debug_str:0000000000015ce9 .LASF171
C:\Users\CYMR90~1\AppData\Local\Temp\ccxAEgth.s:27170  .debug_str:000000000001c3b9 .LASF172
C:\Users\CYMR90~1\AppData\Local\Temp\ccxAEgth.s:22561  .debug_str:0000000000009b1a .LASF173
C:\Users\CYMR90~1\AppData\Local\Temp\ccxAEgth.s:28872  .debug_str:0000000000022e25 .LASF174
C:\Users\CYMR90~1\AppData\Local\Temp\ccxAEgth.s:21591  .debug_str:0000000000005c79 .LASF175
C:\Users\CYMR90~1\AppData\Local\Temp\ccxAEgth.s:22405  .debug_str:0000000000009128 .LASF176
C:\Users\CYMR90~1\AppData\Local\Temp\ccxAEgth.s:21085  .debug_str:0000000000003c7e .LASF177
C:\Users\CYMR90~1\AppData\Local\Temp\ccxAEgth.s:26382  .debug_str:0000000000019128 .LASF178
C:\Users\CYMR90~1\AppData\Local\Temp\ccxAEgth.s:23337  .debug_str:000000000000ce1e .LASF179
C:\Users\CYMR90~1\AppData\Local\Temp\ccxAEgth.s:20603  .debug_str:0000000000001e46 .LASF180
C:\Users\CYMR90~1\AppData\Local\Temp\ccxAEgth.s:31026  .debug_str:000000000002b902 .LASF181
C:\Users\CYMR90~1\AppData\Local\Temp\ccxAEgth.s:20383  .debug_str:0000000000001154 .LASF182
C:\Users\CYMR90~1\AppData\Local\Temp\ccxAEgth.s:24929  .debug_str:0000000000013413 .LASF183
C:\Users\CYMR90~1\AppData\Local\Temp\ccxAEgth.s:25337  .debug_str:0000000000014d46 .LASF184
C:\Users\CYMR90~1\AppData\Local\Temp\ccxAEgth.s:30234  .debug_str:0000000000028850 .LASF185
C:\Users\CYMR90~1\AppData\Local\Temp\ccxAEgth.s:23435  .debug_str:000000000000d4f5 .LASF186
C:\Users\CYMR90~1\AppData\Local\Temp\ccxAEgth.s:21907  .debug_str:0000000000007048 .LASF187
C:\Users\CYMR90~1\AppData\Local\Temp\ccxAEgth.s:27892  .debug_str:000000000001f299 .LASF188
C:\Users\CYMR90~1\AppData\Local\Temp\ccxAEgth.s:23701  .debug_str:000000000000e4fc .LASF189
C:\Users\CYMR90~1\AppData\Local\Temp\ccxAEgth.s:25037  .debug_str:0000000000013ab8 .LASF190
C:\Users\CYMR90~1\AppData\Local\Temp\ccxAEgth.s:28390  .debug_str:0000000000021096 .LASF191
C:\Users\CYMR90~1\AppData\Local\Temp\ccxAEgth.s:25751  .debug_str:000000000001679b .LASF192
C:\Users\CYMR90~1\AppData\Local\Temp\ccxAEgth.s:24251  .debug_str:0000000000010743 .LASF193
C:\Users\CYMR90~1\AppData\Local\Temp\ccxAEgth.s:21547  .debug_str:00000000000059f2 .LASF194
C:\Users\CYMR90~1\AppData\Local\Temp\ccxAEgth.s:20911  .debug_str:0000000000003154 .LASF195
C:\Users\CYMR90~1\AppData\Local\Temp\ccxAEgth.s:23529  .debug_str:000000000000da29 .LASF196
C:\Users\CYMR90~1\AppData\Local\Temp\ccxAEgth.s:24449  .debug_str:00000000000113b2 .LASF197
C:\Users\CYMR90~1\AppData\Local\Temp\ccxAEgth.s:21403  .debug_str:0000000000005159 .LASF198
C:\Users\CYMR90~1\AppData\Local\Temp\ccxAEgth.s:30126  .debug_str:0000000000028023 .LASF199
C:\Users\CYMR90~1\AppData\Local\Temp\ccxAEgth.s:28268  .debug_str:00000000000209ab .LASF200
C:\Users\CYMR90~1\AppData\Local\Temp\ccxAEgth.s:27380  .debug_str:000000000001d2e2 .LASF201
C:\Users\CYMR90~1\AppData\Local\Temp\ccxAEgth.s:22537  .debug_str:00000000000099a1 .LASF202
C:\Users\CYMR90~1\AppData\Local\Temp\ccxAEgth.s:30574  .debug_str:0000000000029d53 .LASF203
C:\Users\CYMR90~1\AppData\Local\Temp\ccxAEgth.s:20925  .debug_str:000000000000324e .LASF204
C:\Users\CYMR90~1\AppData\Local\Temp\ccxAEgth.s:23935  .debug_str:000000000000f30d .LASF205
C:\Users\CYMR90~1\AppData\Local\Temp\ccxAEgth.s:30312  .debug_str:0000000000028ce3 .LASF206
C:\Users\CYMR90~1\AppData\Local\Temp\ccxAEgth.s:25157  .debug_str:000000000001420c .LASF207
C:\Users\CYMR90~1\AppData\Local\Temp\ccxAEgth.s:27934  .debug_str:000000000001f4fe .LASF208
C:\Users\CYMR90~1\AppData\Local\Temp\ccxAEgth.s:23165  .debug_str:000000000000c30a .LASF209
C:\Users\CYMR90~1\AppData\Local\Temp\ccxAEgth.s:31234  .debug_str:000000000002c69a .LASF210
C:\Users\CYMR90~1\AppData\Local\Temp\ccxAEgth.s:25127  .debug_str:0000000000014047 .LASF211
C:\Users\CYMR90~1\AppData\Local\Temp\ccxAEgth.s:27776  .debug_str:000000000001eb76 .LASF212
C:\Users\CYMR90~1\AppData\Local\Temp\ccxAEgth.s:26402  .debug_str:0000000000019256 .LASF213
C:\Users\CYMR90~1\AppData\Local\Temp\ccxAEgth.s:21631  .debug_str:0000000000005ec2 .LASF214
C:\Users\CYMR90~1\AppData\Local\Temp\ccxAEgth.s:25135  .debug_str:00000000000140b7 .LASF215
C:\Users\CYMR90~1\AppData\Local\Temp\ccxAEgth.s:27086  .debug_str:000000000001bee4 .LASF216
C:\Users\CYMR90~1\AppData\Local\Temp\ccxAEgth.s:28048  .debug_str:000000000001fbc0 .LASF217
C:\Users\CYMR90~1\AppData\Local\Temp\ccxAEgth.s:24015  .debug_str:000000000000f8bb .LASF218
C:\Users\CYMR90~1\AppData\Local\Temp\ccxAEgth.s:29440  .debug_str:0000000000025347 .LASF219
C:\Users\CYMR90~1\AppData\Local\Temp\ccxAEgth.s:29248  .debug_str:00000000000245a4 .LASF220
C:\Users\CYMR90~1\AppData\Local\Temp\ccxAEgth.s:28768  .debug_str:00000000000227bb .LASF221
C:\Users\CYMR90~1\AppData\Local\Temp\ccxAEgth.s:25407  .debug_str:00000000000151a2 .LASF222
C:\Users\CYMR90~1\AppData\Local\Temp\ccxAEgth.s:21601  .debug_str:0000000000005cf9 .LASF223
C:\Users\CYMR90~1\AppData\Local\Temp\ccxAEgth.s:22267  .debug_str:000000000000888c .LASF224
C:\Users\CYMR90~1\AppData\Local\Temp\ccxAEgth.s:30898  .debug_str:000000000002b055 .LASF225
C:\Users\CYMR90~1\AppData\Local\Temp\ccxAEgth.s:23597  .debug_str:000000000000de7f .LASF226
C:\Users\CYMR90~1\AppData\Local\Temp\ccxAEgth.s:27244  .debug_str:000000000001c93f .LASF227
C:\Users\CYMR90~1\AppData\Local\Temp\ccxAEgth.s:27096  .debug_str:000000000001bf8a .LASF228
C:\Users\CYMR90~1\AppData\Local\Temp\ccxAEgth.s:23543  .debug_str:000000000000db06 .LASF229
C:\Users\CYMR90~1\AppData\Local\Temp\ccxAEgth.s:27816  .debug_str:000000000001edb8 .LASF230
C:\Users\CYMR90~1\AppData\Local\Temp\ccxAEgth.s:22321  .debug_str:0000000000008c07 .LASF231
C:\Users\CYMR90~1\AppData\Local\Temp\ccxAEgth.s:21643  .debug_str:0000000000005f97 .LASF232
C:\Users\CYMR90~1\AppData\Local\Temp\ccxAEgth.s:22217  .debug_str:000000000000853b .LASF233
C:\Users\CYMR90~1\AppData\Local\Temp\ccxAEgth.s:24211  .debug_str:00000000000104e8 .LASF234
C:\Users\CYMR90~1\AppData\Local\Temp\ccxAEgth.s:23931  .debug_str:000000000000f2c5 .LASF235
C:\Users\CYMR90~1\AppData\Local\Temp\ccxAEgth.s:28988  .debug_str:00000000000234e7 .LASF236
C:\Users\CYMR90~1\AppData\Local\Temp\ccxAEgth.s:23953  .debug_str:000000000000f4b2 .LASF237
C:\Users\CYMR90~1\AppData\Local\Temp\ccxAEgth.s:29664  .debug_str:000000000002627d .LASF238
C:\Users\CYMR90~1\AppData\Local\Temp\ccxAEgth.s:28972  .debug_str:00000000000233bc .LASF239
C:\Users\CYMR90~1\AppData\Local\Temp\ccxAEgth.s:29212  .debug_str:0000000000024376 .LASF240
C:\Users\CYMR90~1\AppData\Local\Temp\ccxAEgth.s:22035  .debug_str:00000000000078b3 .LASF241
C:\Users\CYMR90~1\AppData\Local\Temp\ccxAEgth.s:23619  .debug_str:000000000000dfb7 .LASF242
C:\Users\CYMR90~1\AppData\Local\Temp\ccxAEgth.s:24605  .debug_str:0000000000011e71 .LASF243
C:\Users\CYMR90~1\AppData\Local\Temp\ccxAEgth.s:29000  .debug_str:0000000000023591 .LASF244
C:\Users\CYMR90~1\AppData\Local\Temp\ccxAEgth.s:24797  .debug_str:0000000000012ae5 .LASF245
C:\Users\CYMR90~1\AppData\Local\Temp\ccxAEgth.s:27828  .debug_str:000000000001ee9d .LASF246
C:\Users\CYMR90~1\AppData\Local\Temp\ccxAEgth.s:26170  .debug_str:00000000000182b6 .LASF247
C:\Users\CYMR90~1\AppData\Local\Temp\ccxAEgth.s:25683  .debug_str:00000000000162ac .LASF248
C:\Users\CYMR90~1\AppData\Local\Temp\ccxAEgth.s:27590  .debug_str:000000000001e07f .LASF249
C:\Users\CYMR90~1\AppData\Local\Temp\ccxAEgth.s:26570  .debug_str:0000000000019d57 .LASF250
C:\Users\CYMR90~1\AppData\Local\Temp\ccxAEgth.s:27116  .debug_str:000000000001c0b2 .LASF251
C:\Users\CYMR90~1\AppData\Local\Temp\ccxAEgth.s:28818  .debug_str:0000000000022b18 .LASF252
C:\Users\CYMR90~1\AppData\Local\Temp\ccxAEgth.s:23513  .debug_str:000000000000d965 .LASF253
C:\Users\CYMR90~1\AppData\Local\Temp\ccxAEgth.s:29512  .debug_str:00000000000258f1 .LASF254
C:\Users\CYMR90~1\AppData\Local\Temp\ccxAEgth.s:23379  .debug_str:000000000000d0b3 .LASF255
C:\Users\CYMR90~1\AppData\Local\Temp\ccxAEgth.s:26476  .debug_str:0000000000019797 .LASF256
C:\Users\CYMR90~1\AppData\Local\Temp\ccxAEgth.s:23615  .debug_str:000000000000df85 .LASF257
C:\Users\CYMR90~1\AppData\Local\Temp\ccxAEgth.s:27764  .debug_str:000000000001eaa7 .LASF258
C:\Users\CYMR90~1\AppData\Local\Temp\ccxAEgth.s:22831  .debug_str:000000000000ac82 .LASF259
C:\Users\CYMR90~1\AppData\Local\Temp\ccxAEgth.s:20269  .debug_str:0000000000000a21 .LASF260
C:\Users\CYMR90~1\AppData\Local\Temp\ccxAEgth.s:30636  .debug_str:000000000002a0d5 .LASF261
C:\Users\CYMR90~1\AppData\Local\Temp\ccxAEgth.s:30106  .debug_str:0000000000027e82 .LASF262
C:\Users\CYMR90~1\AppData\Local\Temp\ccxAEgth.s:25107  .debug_str:0000000000013ec9 .LASF263
C:\Users\CYMR90~1\AppData\Local\Temp\ccxAEgth.s:27070  .debug_str:000000000001bdf7 .LASF264
C:\Users\CYMR90~1\AppData\Local\Temp\ccxAEgth.s:24065  .debug_str:000000000000fbe4 .LASF265
C:\Users\CYMR90~1\AppData\Local\Temp\ccxAEgth.s:23545  .debug_str:000000000000db47 .LASF266
C:\Users\CYMR90~1\AppData\Local\Temp\ccxAEgth.s:22883  .debug_str:000000000000b090 .LASF267
C:\Users\CYMR90~1\AppData\Local\Temp\ccxAEgth.s:27172  .debug_str:000000000001c3ce .LASF268
C:\Users\CYMR90~1\AppData\Local\Temp\ccxAEgth.s:23189  .debug_str:000000000000c49d .LASF269
C:\Users\CYMR90~1\AppData\Local\Temp\ccxAEgth.s:24131  .debug_str:0000000000010042 .LASF270
C:\Users\CYMR90~1\AppData\Local\Temp\ccxAEgth.s:25381  .debug_str:0000000000015006 .LASF271
C:\Users\CYMR90~1\AppData\Local\Temp\ccxAEgth.s:29766  .debug_str:00000000000268d2 .LASF272
C:\Users\CYMR90~1\AppData\Local\Temp\ccxAEgth.s:21799  .debug_str:000000000000691f .LASF273
C:\Users\CYMR90~1\AppData\Local\Temp\ccxAEgth.s:20721  .debug_str:00000000000024d5 .LASF274
C:\Users\CYMR90~1\AppData\Local\Temp\ccxAEgth.s:21889  .debug_str:0000000000006f26 .LASF275
C:\Users\CYMR90~1\AppData\Local\Temp\ccxAEgth.s:23251  .debug_str:000000000000c901 .LASF276
C:\Users\CYMR90~1\AppData\Local\Temp\ccxAEgth.s:23085  .debug_str:000000000000be16 .LASF277
C:\Users\CYMR90~1\AppData\Local\Temp\ccxAEgth.s:20407  .debug_str:0000000000001273 .LASF278
C:\Users\CYMR90~1\AppData\Local\Temp\ccxAEgth.s:21725  .debug_str:0000000000006469 .LASF279
C:\Users\CYMR90~1\AppData\Local\Temp\ccxAEgth.s:30426  .debug_str:0000000000029465 .LASF280
C:\Users\CYMR90~1\AppData\Local\Temp\ccxAEgth.s:22585  .debug_str:0000000000009c85 .LASF281
C:\Users\CYMR90~1\AppData\Local\Temp\ccxAEgth.s:21691  .debug_str:0000000000006299 .LASF282
C:\Users\CYMR90~1\AppData\Local\Temp\ccxAEgth.s:21595  .debug_str:0000000000005ca9 .LASF283
C:\Users\CYMR90~1\AppData\Local\Temp\ccxAEgth.s:21357  .debug_str:0000000000004eb9 .LASF284
C:\Users\CYMR90~1\AppData\Local\Temp\ccxAEgth.s:29312  .debug_str:0000000000024a04 .LASF285
C:\Users\CYMR90~1\AppData\Local\Temp\ccxAEgth.s:30138  .debug_str:0000000000028119 .LASF286
C:\Users\CYMR90~1\AppData\Local\Temp\ccxAEgth.s:30412  .debug_str:00000000000292ff .LASF287
C:\Users\CYMR90~1\AppData\Local\Temp\ccxAEgth.s:30326  .debug_str:0000000000028d9b .LASF288
C:\Users\CYMR90~1\AppData\Local\Temp\ccxAEgth.s:31166  .debug_str:000000000002c22d .LASF289
C:\Users\CYMR90~1\AppData\Local\Temp\ccxAEgth.s:26112  .debug_str:0000000000017f61 .LASF290
C:\Users\CYMR90~1\AppData\Local\Temp\ccxAEgth.s:25161  .debug_str:0000000000014232 .LASF291
C:\Users\CYMR90~1\AppData\Local\Temp\ccxAEgth.s:29350  .debug_str:0000000000024c76 .LASF292
C:\Users\CYMR90~1\AppData\Local\Temp\ccxAEgth.s:31396  .debug_str:000000000002d141 .LASF293
C:\Users\CYMR90~1\AppData\Local\Temp\ccxAEgth.s:28282  .debug_str:0000000000020a85 .LASF294
C:\Users\CYMR90~1\AppData\Local\Temp\ccxAEgth.s:21277  .debug_str:00000000000049c5 .LASF295
C:\Users\CYMR90~1\AppData\Local\Temp\ccxAEgth.s:30758  .debug_str:000000000002a860 .LASF296
C:\Users\CYMR90~1\AppData\Local\Temp\ccxAEgth.s:30948  .debug_str:000000000002b3bc .LASF297
C:\Users\CYMR90~1\AppData\Local\Temp\ccxAEgth.s:25990  .debug_str:000000000001783e .LASF298
C:\Users\CYMR90~1\AppData\Local\Temp\ccxAEgth.s:20253  .debug_str:000000000000091b .LASF299
C:\Users\CYMR90~1\AppData\Local\Temp\ccxAEgth.s:24035  .debug_str:000000000000f9fc .LASF300
C:\Users\CYMR90~1\AppData\Local\Temp\ccxAEgth.s:26746  .debug_str:000000000001a9c7 .LASF301
C:\Users\CYMR90~1\AppData\Local\Temp\ccxAEgth.s:25267  .debug_str:0000000000014885 .LASF302
C:\Users\CYMR90~1\AppData\Local\Temp\ccxAEgth.s:24743  .debug_str:0000000000012788 .LASF303
C:\Users\CYMR90~1\AppData\Local\Temp\ccxAEgth.s:20643  .debug_str:0000000000002050 .LASF304
C:\Users\CYMR90~1\AppData\Local\Temp\ccxAEgth.s:23197  .debug_str:000000000000c521 .LASF305
C:\Users\CYMR90~1\AppData\Local\Temp\ccxAEgth.s:28488  .debug_str:0000000000021729 .LASF306
C:\Users\CYMR90~1\AppData\Local\Temp\ccxAEgth.s:24053  .debug_str:000000000000fb29 .LASF307
C:\Users\CYMR90~1\AppData\Local\Temp\ccxAEgth.s:29334  .debug_str:0000000000024b6f .LASF308
C:\Users\CYMR90~1\AppData\Local\Temp\ccxAEgth.s:28938  .debug_str:00000000000231b4 .LASF309
C:\Users\CYMR90~1\AppData\Local\Temp\ccxAEgth.s:23599  .debug_str:000000000000de98 .LASF310
C:\Users\CYMR90~1\AppData\Local\Temp\ccxAEgth.s:29658  .debug_str:000000000002621f .LASF311
C:\Users\CYMR90~1\AppData\Local\Temp\ccxAEgth.s:29164  .debug_str:0000000000024038 .LASF312
C:\Users\CYMR90~1\AppData\Local\Temp\ccxAEgth.s:23317  .debug_str:000000000000cc8d .LASF313
C:\Users\CYMR90~1\AppData\Local\Temp\ccxAEgth.s:26258  .debug_str:0000000000018837 .LASF316
C:\Users\CYMR90~1\AppData\Local\Temp\ccxAEgth.s:26624  .debug_str:000000000001a07c .LASF317
C:\Users\CYMR90~1\AppData\Local\Temp\ccxAEgth.s:26962  .debug_str:000000000001b748 .LASF318
C:\Users\CYMR90~1\AppData\Local\Temp\ccxAEgth.s:24043  .debug_str:000000000000fa99 .LASF319
C:\Users\CYMR90~1\AppData\Local\Temp\ccxAEgth.s:22951  .debug_str:000000000000b4e0 .LASF320
C:\Users\CYMR90~1\AppData\Local\Temp\ccxAEgth.s:30374  .debug_str:00000000000290d3 .LASF321
C:\Users\CYMR90~1\AppData\Local\Temp\ccxAEgth.s:23511  .debug_str:000000000000d958 .LASF322
C:\Users\CYMR90~1\AppData\Local\Temp\ccxAEgth.s:29608  .debug_str:0000000000025ec8 .LASF323
C:\Users\CYMR90~1\AppData\Local\Temp\ccxAEgth.s:20135  .debug_str:0000000000000229 .LASF324
C:\Users\CYMR90~1\AppData\Local\Temp\ccxAEgth.s:30780  .debug_str:000000000002a995 .LASF325
C:\Users\CYMR90~1\AppData\Local\Temp\ccxAEgth.s:21057  .debug_str:0000000000003aa3 .LASF326
C:\Users\CYMR90~1\AppData\Local\Temp\ccxAEgth.s:25095  .debug_str:0000000000013e0c .LASF327
C:\Users\CYMR90~1\AppData\Local\Temp\ccxAEgth.s:24745  .debug_str:000000000001279d .LASF328
C:\Users\CYMR90~1\AppData\Local\Temp\ccxAEgth.s:27614  .debug_str:000000000001e1c5 .LASF329
C:\Users\CYMR90~1\AppData\Local\Temp\ccxAEgth.s:27606  .debug_str:000000000001e174 .LASF330
C:\Users\CYMR90~1\AppData\Local\Temp\ccxAEgth.s:29806  .debug_str:0000000000026b39 .LASF331
C:\Users\CYMR90~1\AppData\Local\Temp\ccxAEgth.s:30354  .debug_str:0000000000028f81 .LASF332
C:\Users\CYMR90~1\AppData\Local\Temp\ccxAEgth.s:30540  .debug_str:0000000000029b41 .LASF333
C:\Users\CYMR90~1\AppData\Local\Temp\ccxAEgth.s:26598  .debug_str:0000000000019ef9 .LASF334
C:\Users\CYMR90~1\AppData\Local\Temp\ccxAEgth.s:26036  .debug_str:0000000000017af2 .LASF335
C:\Users\CYMR90~1\AppData\Local\Temp\ccxAEgth.s:30394  .debug_str:0000000000029213 .LASF336
C:\Users\CYMR90~1\AppData\Local\Temp\ccxAEgth.s:24669  .debug_str:00000000000122a8 .LASF337
C:\Users\CYMR90~1\AppData\Local\Temp\ccxAEgth.s:28338  .debug_str:0000000000020dbc .LASF338
C:\Users\CYMR90~1\AppData\Local\Temp\ccxAEgth.s:22701  .debug_str:000000000000a3d9 .LASF339
C:\Users\CYMR90~1\AppData\Local\Temp\ccxAEgth.s:24881  .debug_str:000000000001309a .LASF340
C:\Users\CYMR90~1\AppData\Local\Temp\ccxAEgth.s:26798  .debug_str:000000000001acee .LASF341
C:\Users\CYMR90~1\AppData\Local\Temp\ccxAEgth.s:23017  .debug_str:000000000000b94e .LASF342
C:\Users\CYMR90~1\AppData\Local\Temp\ccxAEgth.s:20389  .debug_str:000000000000119f .LASF343
C:\Users\CYMR90~1\AppData\Local\Temp\ccxAEgth.s:30508  .debug_str:000000000002995c .LASF344
C:\Users\CYMR90~1\AppData\Local\Temp\ccxAEgth.s:31108  .debug_str:000000000002be3e .LASF345
C:\Users\CYMR90~1\AppData\Local\Temp\ccxAEgth.s:23921  .debug_str:000000000000f23d .LASF346
C:\Users\CYMR90~1\AppData\Local\Temp\ccxAEgth.s:20241  .debug_str:0000000000000864 .LASF347
C:\Users\CYMR90~1\AppData\Local\Temp\ccxAEgth.s:28132  .debug_str:00000000000200db .LASF348
C:\Users\CYMR90~1\AppData\Local\Temp\ccxAEgth.s:30116  .debug_str:0000000000027f51 .LASF349
C:\Users\CYMR90~1\AppData\Local\Temp\ccxAEgth.s:27608  .debug_str:000000000001e180 .LASF350
C:\Users\CYMR90~1\AppData\Local\Temp\ccxAEgth.s:20173  .debug_str:0000000000000483 .LASF351
C:\Users\CYMR90~1\AppData\Local\Temp\ccxAEgth.s:27896  .debug_str:000000000001f2c9 .LASF352
C:\Users\CYMR90~1\AppData\Local\Temp\ccxAEgth.s:29600  .debug_str:0000000000025e5e .LASF353
C:\Users\CYMR90~1\AppData\Local\Temp\ccxAEgth.s:27230  .debug_str:000000000001c88d .LASF354
C:\Users\CYMR90~1\AppData\Local\Temp\ccxAEgth.s:27396  .debug_str:000000000001d3ed .LASF355
C:\Users\CYMR90~1\AppData\Local\Temp\ccxAEgth.s:23403  .debug_str:000000000000d2d7 .LASF356
C:\Users\CYMR90~1\AppData\Local\Temp\ccxAEgth.s:26552  .debug_str:0000000000019c63 .LASF357
C:\Users\CYMR90~1\AppData\Local\Temp\ccxAEgth.s:30028  .debug_str:0000000000027941 .LASF358
C:\Users\CYMR90~1\AppData\Local\Temp\ccxAEgth.s:24735  .debug_str:00000000000126dd .LASF359
C:\Users\CYMR90~1\AppData\Local\Temp\ccxAEgth.s:22801  .debug_str:000000000000aaba .LASF360
C:\Users\CYMR90~1\AppData\Local\Temp\ccxAEgth.s:27778  .debug_str:000000000001eb8e .LASF361
C:\Users\CYMR90~1\AppData\Local\Temp\ccxAEgth.s:24475  .debug_str:0000000000011569 .LASF362
C:\Users\CYMR90~1\AppData\Local\Temp\ccxAEgth.s:30294  .debug_str:0000000000028bf2 .LASF363
C:\Users\CYMR90~1\AppData\Local\Temp\ccxAEgth.s:22347  .debug_str:0000000000008dc9 .LASF364
C:\Users\CYMR90~1\AppData\Local\Temp\ccxAEgth.s:30188  .debug_str:00000000000284f9 .LASF365
C:\Users\CYMR90~1\AppData\Local\Temp\ccxAEgth.s:21759  .debug_str:00000000000066de .LASF366
C:\Users\CYMR90~1\AppData\Local\Temp\ccxAEgth.s:24873  .debug_str:0000000000012ffc .LASF367
C:\Users\CYMR90~1\AppData\Local\Temp\ccxAEgth.s:22043  .debug_str:0000000000007931 .LASF368
C:\Users\CYMR90~1\AppData\Local\Temp\ccxAEgth.s:26082  .debug_str:0000000000017daa .LASF372
C:\Users\CYMR90~1\AppData\Local\Temp\ccxAEgth.s:29848  .debug_str:0000000000026dbe .LASF373
C:\Users\CYMR90~1\AppData\Local\Temp\ccxAEgth.s:22783  .debug_str:000000000000a9a0 .LASF374
C:\Users\CYMR90~1\AppData\Local\Temp\ccxAEgth.s:25870  .debug_str:00000000000170d0 .LASF375
C:\Users\CYMR90~1\AppData\Local\Temp\ccxAEgth.s:26068  .debug_str:0000000000017cf8 .LASF376
C:\Users\CYMR90~1\AppData\Local\Temp\ccxAEgth.s:28586  .debug_str:0000000000021d09 .LASF377
C:\Users\CYMR90~1\AppData\Local\Temp\ccxAEgth.s:27246  .debug_str:000000000001c958 .LASF378
C:\Users\CYMR90~1\AppData\Local\Temp\ccxAEgth.s:30938  .debug_str:000000000002b324 .LASF379
C:\Users\CYMR90~1\AppData\Local\Temp\ccxAEgth.s:20737  .debug_str:000000000000260c .LASF380
C:\Users\CYMR90~1\AppData\Local\Temp\ccxAEgth.s:30878  .debug_str:000000000002af52 .LASF381
C:\Users\CYMR90~1\AppData\Local\Temp\ccxAEgth.s:26970  .debug_str:000000000001b799 .LASF382
C:\Users\CYMR90~1\AppData\Local\Temp\ccxAEgth.s:21815  .debug_str:0000000000006a2c .LASF383
C:\Users\CYMR90~1\AppData\Local\Temp\ccxAEgth.s:23167  .debug_str:000000000000c325 .LASF384
C:\Users\CYMR90~1\AppData\Local\Temp\ccxAEgth.s:26494  .debug_str:00000000000198cb .LASF385
C:\Users\CYMR90~1\AppData\Local\Temp\ccxAEgth.s:24161  .debug_str:000000000001020c .LASF386
C:\Users\CYMR90~1\AppData\Local\Temp\ccxAEgth.s:20669  .debug_str:00000000000021ef .LASF387
C:\Users\CYMR90~1\AppData\Local\Temp\ccxAEgth.s:23765  .debug_str:000000000000e8ee .LASF388
C:\Users\CYMR90~1\AppData\Local\Temp\ccxAEgth.s:22319  .debug_str:0000000000008bf3 .LASF389
C:\Users\CYMR90~1\AppData\Local\Temp\ccxAEgth.s:21143  .debug_str:00000000000040ad .LASF391
C:\Users\CYMR90~1\AppData\Local\Temp\ccxAEgth.s:24169  .debug_str:0000000000010278 .LASF392
C:\Users\CYMR90~1\AppData\Local\Temp\ccxAEgth.s:28232  .debug_str:000000000002077b .LASF393
C:\Users\CYMR90~1\AppData\Local\Temp\ccxAEgth.s:29986  .debug_str:00000000000276b3 .LASF394
C:\Users\CYMR90~1\AppData\Local\Temp\ccxAEgth.s:20695  .debug_str:000000000000234d .LASF395
C:\Users\CYMR90~1\AppData\Local\Temp\ccxAEgth.s:22825  .debug_str:000000000000ac1e .LASF396
C:\Users\CYMR90~1\AppData\Local\Temp\ccxAEgth.s:21003  .debug_str:0000000000003755 .LASF397
C:\Users\CYMR90~1\AppData\Local\Temp\ccxAEgth.s:30756  .debug_str:000000000002a84e .LASF398
C:\Users\CYMR90~1\AppData\Local\Temp\ccxAEgth.s:25433  .debug_str:000000000001531c .LASF399
C:\Users\CYMR90~1\AppData\Local\Temp\ccxAEgth.s:27858  .debug_str:000000000001f068 .LASF400
C:\Users\CYMR90~1\AppData\Local\Temp\ccxAEgth.s:22307  .debug_str:0000000000008adc .LASF401
C:\Users\CYMR90~1\AppData\Local\Temp\ccxAEgth.s:25924  .debug_str:00000000000173f3 .LASF402
C:\Users\CYMR90~1\AppData\Local\Temp\ccxAEgth.s:21659  .debug_str:0000000000006098 .LASF403
C:\Users\CYMR90~1\AppData\Local\Temp\ccxAEgth.s:22759  .debug_str:000000000000a814 .LASF404
C:\Users\CYMR90~1\AppData\Local\Temp\ccxAEgth.s:23821  .debug_str:000000000000ec13 .LASF405
C:\Users\CYMR90~1\AppData\Local\Temp\ccxAEgth.s:27156  .debug_str:000000000001c2ee .LASF406
C:\Users\CYMR90~1\AppData\Local\Temp\ccxAEgth.s:25361  .debug_str:0000000000014ef3 .LASF407
C:\Users\CYMR90~1\AppData\Local\Temp\ccxAEgth.s:26334  .debug_str:0000000000018d72 .LASF408
C:\Users\CYMR90~1\AppData\Local\Temp\ccxAEgth.s:28532  .debug_str:00000000000219ce .LASF409
C:\Users\CYMR90~1\AppData\Local\Temp\ccxAEgth.s:21613  .debug_str:0000000000005db4 .LASF410
C:\Users\CYMR90~1\AppData\Local\Temp\ccxAEgth.s:25541  .debug_str:000000000001595a .LASF411
C:\Users\CYMR90~1\AppData\Local\Temp\ccxAEgth.s:28658  .debug_str:000000000002215c .LASF412
C:\Users\CYMR90~1\AppData\Local\Temp\ccxAEgth.s:21791  .debug_str:00000000000068bf .LASF413
C:\Users\CYMR90~1\AppData\Local\Temp\ccxAEgth.s:30388  .debug_str:00000000000291ac .LASF414
C:\Users\CYMR90~1\AppData\Local\Temp\ccxAEgth.s:23923  .debug_str:000000000000f24b .LASF415
C:\Users\CYMR90~1\AppData\Local\Temp\ccxAEgth.s:29720  .debug_str:00000000000265df .LASF416
C:\Users\CYMR90~1\AppData\Local\Temp\ccxAEgth.s:31232  .debug_str:000000000002c68f .LASF417
C:\Users\CYMR90~1\AppData\Local\Temp\ccxAEgth.s:22235  .debug_str:0000000000008664 .LASF418
C:\Users\CYMR90~1\AppData\Local\Temp\ccxAEgth.s:30600  .debug_str:0000000000029ecf .LASF419
C:\Users\CYMR90~1\AppData\Local\Temp\ccxAEgth.s:21859  .debug_str:0000000000006d22 .LASF420
C:\Users\CYMR90~1\AppData\Local\Temp\ccxAEgth.s:30798  .debug_str:000000000002aa95 .LASF421
C:\Users\CYMR90~1\AppData\Local\Temp\ccxAEgth.s:23097  .debug_str:000000000000bee8 .LASF422
C:\Users\CYMR90~1\AppData\Local\Temp\ccxAEgth.s:23295  .debug_str:000000000000cb63 .LASF423
C:\Users\CYMR90~1\AppData\Local\Temp\ccxAEgth.s:27758  .debug_str:000000000001ea68 .LASF424
C:\Users\CYMR90~1\AppData\Local\Temp\ccxAEgth.s:26372  .debug_str:000000000001909d .LASF425
C:\Users\CYMR90~1\AppData\Local\Temp\ccxAEgth.s:20147  .debug_str:00000000000002f2 .LASF426
C:\Users\CYMR90~1\AppData\Local\Temp\ccxAEgth.s:30300  .debug_str:0000000000028c4f .LASF427
C:\Users\CYMR90~1\AppData\Local\Temp\ccxAEgth.s:25623  .debug_str:0000000000015f29 .LASF428
C:\Users\CYMR90~1\AppData\Local\Temp\ccxAEgth.s:27536  .debug_str:000000000001dd67 .LASF429
C:\Users\CYMR90~1\AppData\Local\Temp\ccxAEgth.s:24109  .debug_str:000000000000fecc .LASF430
C:\Users\CYMR90~1\AppData\Local\Temp\ccxAEgth.s:25820  .debug_str:0000000000016e11 .LASF431
C:\Users\CYMR90~1\AppData\Local\Temp\ccxAEgth.s:28608  .debug_str:0000000000021e37 .LASF432
C:\Users\CYMR90~1\AppData\Local\Temp\ccxAEgth.s:23279  .debug_str:000000000000ca83 .LASF434
C:\Users\CYMR90~1\AppData\Local\Temp\ccxAEgth.s:21331  .debug_str:0000000000004d1f .LASF435
C:\Users\CYMR90~1\AppData\Local\Temp\ccxAEgth.s:26010  .debug_str:000000000001796d .LASF436
C:\Users\CYMR90~1\AppData\Local\Temp\ccxAEgth.s:21877  .debug_str:0000000000006e4b .LASF437
C:\Users\CYMR90~1\AppData\Local\Temp\ccxAEgth.s:30316  .debug_str:0000000000028d06 .LASF438
C:\Users\CYMR90~1\AppData\Local\Temp\ccxAEgth.s:20111  .debug_str:00000000000000c7 .LASF439
C:\Users\CYMR90~1\AppData\Local\Temp\ccxAEgth.s:27794  .debug_str:000000000001ec58 .LASF440
C:\Users\CYMR90~1\AppData\Local\Temp\ccxAEgth.s:23519  .debug_str:000000000000d9bd .LASF441
C:\Users\CYMR90~1\AppData\Local\Temp\ccxAEgth.s:28846  .debug_str:0000000000022ca6 .LASF442
C:\Users\CYMR90~1\AppData\Local\Temp\ccxAEgth.s:27732  .debug_str:000000000001e90c .LASF443
C:\Users\CYMR90~1\AppData\Local\Temp\ccxAEgth.s:24241  .debug_str:00000000000106b8 .LASF444
C:\Users\CYMR90~1\AppData\Local\Temp\ccxAEgth.s:31226  .debug_str:000000000002c643 .LASF445
C:\Users\CYMR90~1\AppData\Local\Temp\ccxAEgth.s:31164  .debug_str:000000000002c227 .LASF446
C:\Users\CYMR90~1\AppData\Local\Temp\ccxAEgth.s:24591  .debug_str:0000000000011d8c .LASF447
C:\Users\CYMR90~1\AppData\Local\Temp\ccxAEgth.s:28820  .debug_str:0000000000022b2a .LASF448
C:\Users\CYMR90~1\AppData\Local\Temp\ccxAEgth.s:21155  .debug_str:0000000000004165 .LASF449
C:\Users\CYMR90~1\AppData\Local\Temp\ccxAEgth.s:21897  .debug_str:0000000000006fb4 .LASF450
C:\Users\CYMR90~1\AppData\Local\Temp\ccxAEgth.s:20625  .debug_str:0000000000001f6e .LASF451
C:\Users\CYMR90~1\AppData\Local\Temp\ccxAEgth.s:25275  .debug_str:0000000000014927 .LASF452
C:\Users\CYMR90~1\AppData\Local\Temp\ccxAEgth.s:20615  .debug_str:0000000000001efb .LASF453
C:\Users\CYMR90~1\AppData\Local\Temp\ccxAEgth.s:31170  .debug_str:000000000002c26d .LASF454
C:\Users\CYMR90~1\AppData\Local\Temp\ccxAEgth.s:23687  .debug_str:000000000000e3d2 .LASF455
C:\Users\CYMR90~1\AppData\Local\Temp\ccxAEgth.s:28434  .debug_str:00000000000213d6 .LASF456
C:\Users\CYMR90~1\AppData\Local\Temp\ccxAEgth.s:23373  .debug_str:000000000000d06f .LASF457
C:\Users\CYMR90~1\AppData\Local\Temp\ccxAEgth.s:21671  .debug_str:0000000000006145 .LASF458
C:\Users\CYMR90~1\AppData\Local\Temp\ccxAEgth.s:24311  .debug_str:0000000000010bb9 .LASF459
C:\Users\CYMR90~1\AppData\Local\Temp\ccxAEgth.s:28184  .debug_str:000000000002048f .LASF460
C:\Users\CYMR90~1\AppData\Local\Temp\ccxAEgth.s:29338  .debug_str:0000000000024ba5 .LASF461
C:\Users\CYMR90~1\AppData\Local\Temp\ccxAEgth.s:25783  .debug_str:0000000000016a0d .LASF462
C:\Users\CYMR90~1\AppData\Local\Temp\ccxAEgth.s:26654  .debug_str:000000000001a3d8 .LASF463
C:\Users\CYMR90~1\AppData\Local\Temp\ccxAEgth.s:23535  .debug_str:000000000000da8b .LASF464
C:\Users\CYMR90~1\AppData\Local\Temp\ccxAEgth.s:24681  .debug_str:000000000001236b .LASF465
C:\Users\CYMR90~1\AppData\Local\Temp\ccxAEgth.s:21809  .debug_str:00000000000069e6 .LASF466
C:\Users\CYMR90~1\AppData\Local\Temp\ccxAEgth.s:22365  .debug_str:0000000000008eac .LASF467
C:\Users\CYMR90~1\AppData\Local\Temp\ccxAEgth.s:24447  .debug_str:000000000001139b .LASF468
C:\Users\CYMR90~1\AppData\Local\Temp\ccxAEgth.s:20959  .debug_str:0000000000003483 .LASF469
C:\Users\CYMR90~1\AppData\Local\Temp\ccxAEgth.s:24203  .debug_str:0000000000010463 .LASF470
C:\Users\CYMR90~1\AppData\Local\Temp\ccxAEgth.s:24085  .debug_str:000000000000fd41 .LASF471
C:\Users\CYMR90~1\AppData\Local\Temp\ccxAEgth.s:23661  .debug_str:000000000000e246 .LASF472
C:\Users\CYMR90~1\AppData\Local\Temp\ccxAEgth.s:20325  .debug_str:0000000000000d7e .LASF473
C:\Users\CYMR90~1\AppData\Local\Temp\ccxAEgth.s:21925  .debug_str:00000000000071c0 .LASF474
C:\Users\CYMR90~1\AppData\Local\Temp\ccxAEgth.s:20271  .debug_str:0000000000000a5f .LASF475
C:\Users\CYMR90~1\AppData\Local\Temp\ccxAEgth.s:21121  .debug_str:0000000000003ec3 .LASF476
C:\Users\CYMR90~1\AppData\Local\Temp\ccxAEgth.s:20495  .debug_str:00000000000017db .LASF477
C:\Users\CYMR90~1\AppData\Local\Temp\ccxAEgth.s:25569  .debug_str:0000000000015b69 .LASF478
C:\Users\CYMR90~1\AppData\Local\Temp\ccxAEgth.s:22971  .debug_str:000000000000b65c .LASF479
C:\Users\CYMR90~1\AppData\Local\Temp\ccxAEgth.s:30794  .debug_str:000000000002aa65 .LASF480
C:\Users\CYMR90~1\AppData\Local\Temp\ccxAEgth.s:26164  .debug_str:000000000001825c .LASF481
C:\Users\CYMR90~1\AppData\Local\Temp\ccxAEgth.s:22893  .debug_str:000000000000b125 .LASF482
C:\Users\CYMR90~1\AppData\Local\Temp\ccxAEgth.s:21711  .debug_str:00000000000063a9 .LASF483
C:\Users\CYMR90~1\AppData\Local\Temp\ccxAEgth.s:20237  .debug_str:000000000000081d .LASF484
C:\Users\CYMR90~1\AppData\Local\Temp\ccxAEgth.s:26110  .debug_str:0000000000017f3e .LASF485
C:\Users\CYMR90~1\AppData\Local\Temp\ccxAEgth.s:21343  .debug_str:0000000000004dd6 .LASF486
C:\Users\CYMR90~1\AppData\Local\Temp\ccxAEgth.s:25035  .debug_str:0000000000013aa2 .LASF487
C:\Users\CYMR90~1\AppData\Local\Temp\ccxAEgth.s:24227  .debug_str:00000000000105f5 .LASF488
C:\Users\CYMR90~1\AppData\Local\Temp\ccxAEgth.s:24801  .debug_str:0000000000012b47 .LASF489
C:\Users\CYMR90~1\AppData\Local\Temp\ccxAEgth.s:23253  .debug_str:000000000000c942 .LASF490
C:\Users\CYMR90~1\AppData\Local\Temp\ccxAEgth.s:22233  .debug_str:0000000000008656 .LASF491
C:\Users\CYMR90~1\AppData\Local\Temp\ccxAEgth.s:23879  .debug_str:000000000000ef8d .LASF492
C:\Users\CYMR90~1\AppData\Local\Temp\ccxAEgth.s:24193  .debug_str:00000000000103e7 .LASF493
C:\Users\CYMR90~1\AppData\Local\Temp\ccxAEgth.s:24091  .debug_str:000000000000fdb5 .LASF494
C:\Users\CYMR90~1\AppData\Local\Temp\ccxAEgth.s:26362  .debug_str:000000000001901a .LASF495
C:\Users\CYMR90~1\AppData\Local\Temp\ccxAEgth.s:31250  .debug_str:000000000002c79c .LASF496
C:\Users\CYMR90~1\AppData\Local\Temp\ccxAEgth.s:31188  .debug_str:000000000002c3d2 .LASF497
C:\Users\CYMR90~1\AppData\Local\Temp\ccxAEgth.s:23927  .debug_str:000000000000f292 .LASF498
C:\Users\CYMR90~1\AppData\Local\Temp\ccxAEgth.s:30410  .debug_str:00000000000292da .LASF499
C:\Users\CYMR90~1\AppData\Local\Temp\ccxAEgth.s:30512  .debug_str:000000000002997f .LASF500
C:\Users\CYMR90~1\AppData\Local\Temp\ccxAEgth.s:25239  .debug_str:00000000000146ed .LASF501
C:\Users\CYMR90~1\AppData\Local\Temp\ccxAEgth.s:30464  .debug_str:00000000000296c8 .LASF502
C:\Users\CYMR90~1\AppData\Local\Temp\ccxAEgth.s:25189  .debug_str:00000000000143a0 .LASF503
C:\Users\CYMR90~1\AppData\Local\Temp\ccxAEgth.s:20821  .debug_str:0000000000002ba7 .LASF504
C:\Users\CYMR90~1\AppData\Local\Temp\ccxAEgth.s:29100  .debug_str:0000000000023b81 .LASF505
C:\Users\CYMR90~1\AppData\Local\Temp\ccxAEgth.s:29982  .debug_str:0000000000027678 .LASF506
C:\Users\CYMR90~1\AppData\Local\Temp\ccxAEgth.s:29554  .debug_str:0000000000025b83 .LASF507
C:\Users\CYMR90~1\AppData\Local\Temp\ccxAEgth.s:26280  .debug_str:0000000000018990 .LASF508
C:\Users\CYMR90~1\AppData\Local\Temp\ccxAEgth.s:28520  .debug_str:00000000000218d2 .LASF509
C:\Users\CYMR90~1\AppData\Local\Temp\ccxAEgth.s:30206  .debug_str:0000000000028644 .LASF510
C:\Users\CYMR90~1\AppData\Local\Temp\ccxAEgth.s:26056  .debug_str:0000000000017c06 .LASF511
C:\Users\CYMR90~1\AppData\Local\Temp\ccxAEgth.s:29836  .debug_str:0000000000026cc9 .LASF512
C:\Users\CYMR90~1\AppData\Local\Temp\ccxAEgth.s:29952  .debug_str:00000000000274ca .LASF513
C:\Users\CYMR90~1\AppData\Local\Temp\ccxAEgth.s:30392  .debug_str:00000000000291d8 .LASF514
C:\Users\CYMR90~1\AppData\Local\Temp\ccxAEgth.s:24965  .debug_str:0000000000013668 .LASF515
C:\Users\CYMR90~1\AppData\Local\Temp\ccxAEgth.s:30266  .debug_str:0000000000028a4b .LASF516
C:\Users\CYMR90~1\AppData\Local\Temp\ccxAEgth.s:26430  .debug_str:000000000001940a .LASF517
C:\Users\CYMR90~1\AppData\Local\Temp\ccxAEgth.s:30214  .debug_str:00000000000286f8 .LASF518
C:\Users\CYMR90~1\AppData\Local\Temp\ccxAEgth.s:27078  .debug_str:000000000001be5f .LASF519
C:\Users\CYMR90~1\AppData\Local\Temp\ccxAEgth.s:31158  .debug_str:000000000002c1c5 .LASF520
C:\Users\CYMR90~1\AppData\Local\Temp\ccxAEgth.s:27338  .debug_str:000000000001d075 .LASF521
C:\Users\CYMR90~1\AppData\Local\Temp\ccxAEgth.s:29460  .debug_str:0000000000025499 .LASF522
C:\Users\CYMR90~1\AppData\Local\Temp\ccxAEgth.s:24845  .debug_str:0000000000012e14 .LASF523
C:\Users\CYMR90~1\AppData\Local\Temp\ccxAEgth.s:29012  .debug_str:0000000000023687 .LASF524
C:\Users\CYMR90~1\AppData\Local\Temp\ccxAEgth.s:22445  .debug_str:0000000000009360 .LASF525
C:\Users\CYMR90~1\AppData\Local\Temp\ccxAEgth.s:31180  .debug_str:000000000002c2e6 .LASF526
C:\Users\CYMR90~1\AppData\Local\Temp\ccxAEgth.s:23695  .debug_str:000000000000e450 .LASF527
C:\Users\CYMR90~1\AppData\Local\Temp\ccxAEgth.s:24705  .debug_str:00000000000124f3 .LASF528
C:\Users\CYMR90~1\AppData\Local\Temp\ccxAEgth.s:25547  .debug_str:00000000000159be .LASF529
C:\Users\CYMR90~1\AppData\Local\Temp\ccxAEgth.s:25579  .debug_str:0000000000015bfa .LASF530
C:\Users\CYMR90~1\AppData\Local\Temp\ccxAEgth.s:24629  .debug_str:0000000000012030 .LASF531
C:\Users\CYMR90~1\AppData\Local\Temp\ccxAEgth.s:20883  .debug_str:0000000000002f51 .LASF532
C:\Users\CYMR90~1\AppData\Local\Temp\ccxAEgth.s:23381  .debug_str:000000000000d0cb .LASF533
C:\Users\CYMR90~1\AppData\Local\Temp\ccxAEgth.s:31020  .debug_str:000000000002b845 .LASF534
C:\Users\CYMR90~1\AppData\Local\Temp\ccxAEgth.s:23877  .debug_str:000000000000ef41 .LASF535
C:\Users\CYMR90~1\AppData\Local\Temp\ccxAEgth.s:29200  .debug_str:0000000000024296 .LASF536
C:\Users\CYMR90~1\AppData\Local\Temp\ccxAEgth.s:30670  .debug_str:000000000002a2bc .LASF537
C:\Users\CYMR90~1\AppData\Local\Temp\ccxAEgth.s:24463  .debug_str:000000000001148a .LASF538
C:\Users\CYMR90~1\AppData\Local\Temp\ccxAEgth.s:29382  .debug_str:0000000000024e8f .LASF539
C:\Users\CYMR90~1\AppData\Local\Temp\ccxAEgth.s:27136  .debug_str:000000000001c1dc .LASF540
C:\Users\CYMR90~1\AppData\Local\Temp\ccxAEgth.s:28730  .debug_str:0000000000022579 .LASF541
C:\Users\CYMR90~1\AppData\Local\Temp\ccxAEgth.s:27428  .debug_str:000000000001d602 .LASF542
C:\Users\CYMR90~1\AppData\Local\Temp\ccxAEgth.s:21231  .debug_str:0000000000004655 .LASF543
C:\Users\CYMR90~1\AppData\Local\Temp\ccxAEgth.s:23627  .debug_str:000000000000e01f .LASF544
C:\Users\CYMR90~1\AppData\Local\Temp\ccxAEgth.s:30450  .debug_str:00000000000295e4 .LASF545
C:\Users\CYMR90~1\AppData\Local\Temp\ccxAEgth.s:24975  .debug_str:00000000000136f7 .LASF546
C:\Users\CYMR90~1\AppData\Local\Temp\ccxAEgth.s:28712  .debug_str:0000000000022454 .LASF547
C:\Users\CYMR90~1\AppData\Local\Temp\ccxAEgth.s:30934  .debug_str:000000000002b2f6 .LASF548
C:\Users\CYMR90~1\AppData\Local\Temp\ccxAEgth.s:20933  .debug_str:00000000000032c1 .LASF549
C:\Users\CYMR90~1\AppData\Local\Temp\ccxAEgth.s:22071  .debug_str:0000000000007ac4 .LASF550
C:\Users\CYMR90~1\AppData\Local\Temp\ccxAEgth.s:29728  .debug_str:0000000000026642 .LASF551
C:\Users\CYMR90~1\AppData\Local\Temp\ccxAEgth.s:21639  .debug_str:0000000000005f4e .LASF552
C:\Users\CYMR90~1\AppData\Local\Temp\ccxAEgth.s:30688  .debug_str:000000000002a3b8 .LASF553
C:\Users\CYMR90~1\AppData\Local\Temp\ccxAEgth.s:23047  .debug_str:000000000000bb2b .LASF554
C:\Users\CYMR90~1\AppData\Local\Temp\ccxAEgth.s:23229  .debug_str:000000000000c77f .LASF555
C:\Users\CYMR90~1\AppData\Local\Temp\ccxAEgth.s:21757  .debug_str:000000000000668b .LASF556
C:\Users\CYMR90~1\AppData\Local\Temp\ccxAEgth.s:30148  .debug_str:00000000000281aa .LASF557
C:\Users\CYMR90~1\AppData\Local\Temp\ccxAEgth.s:24577  .debug_str:0000000000011cb1 .LASF558
C:\Users\CYMR90~1\AppData\Local\Temp\ccxAEgth.s:26308  .debug_str:0000000000018be6 .LASF559
C:\Users\CYMR90~1\AppData\Local\Temp\ccxAEgth.s:30256  .debug_str:00000000000289a3 .LASF560
C:\Users\CYMR90~1\AppData\Local\Temp\ccxAEgth.s:23043  .debug_str:000000000000bac7 .LASF561
C:\Users\CYMR90~1\AppData\Local\Temp\ccxAEgth.s:24041  .debug_str:000000000000fa4e .LASF562
C:\Users\CYMR90~1\AppData\Local\Temp\ccxAEgth.s:23423  .debug_str:000000000000d3fd .LASF563
C:\Users\CYMR90~1\AppData\Local\Temp\ccxAEgth.s:22743  .debug_str:000000000000a62b .LASF564
C:\Users\CYMR90~1\AppData\Local\Temp\ccxAEgth.s:28460  .debug_str:000000000002154c .LASF565
C:\Users\CYMR90~1\AppData\Local\Temp\ccxAEgth.s:27674  .debug_str:000000000001e55e .LASF566
C:\Users\CYMR90~1\AppData\Local\Temp\ccxAEgth.s:24573  .debug_str:0000000000011c69 .LASF567
C:\Users\CYMR90~1\AppData\Local\Temp\ccxAEgth.s:21641  .debug_str:0000000000005f62 .LASF568
C:\Users\CYMR90~1\AppData\Local\Temp\ccxAEgth.s:20295  .debug_str:0000000000000bfa .LASF570
C:\Users\CYMR90~1\AppData\Local\Temp\ccxAEgth.s:25940  .debug_str:00000000000174e4 .LASF571
C:\Users\CYMR90~1\AppData\Local\Temp\ccxAEgth.s:27074  .debug_str:000000000001be39 .LASF574
C:\Users\CYMR90~1\AppData\Local\Temp\ccxAEgth.s:21199  .debug_str:0000000000004442 .LASF575
C:\Users\CYMR90~1\AppData\Local\Temp\ccxAEgth.s:25195  .debug_str:000000000001442a .LASF576
C:\Users\CYMR90~1\AppData\Local\Temp\ccxAEgth.s:22163  .debug_str:0000000000008217 .LASF577
C:\Users\CYMR90~1\AppData\Local\Temp\ccxAEgth.s:28362  .debug_str:0000000000020f02 .LASF579
C:\Users\CYMR90~1\AppData\Local\Temp\ccxAEgth.s:27548  .debug_str:000000000001de20 .LASF580
C:\Users\CYMR90~1\AppData\Local\Temp\ccxAEgth.s:29098  .debug_str:0000000000023b78 .LASF581
C:\Users\CYMR90~1\AppData\Local\Temp\ccxAEgth.s:21597  .debug_str:0000000000005cc0 .LASF582
C:\Users\CYMR90~1\AppData\Local\Temp\ccxAEgth.s:24187  .debug_str:000000000001037d .LASF583
C:\Users\CYMR90~1\AppData\Local\Temp\ccxAEgth.s:20777  .debug_str:00000000000028d6 .LASF584
C:\Users\CYMR90~1\AppData\Local\Temp\ccxAEgth.s:30546  .debug_str:0000000000029ba0 .LASF585
C:\Users\CYMR90~1\AppData\Local\Temp\ccxAEgth.s:28758  .debug_str:000000000002273c .LASF586
C:\Users\CYMR90~1\AppData\Local\Temp\ccxAEgth.s:26958  .debug_str:000000000001b726 .LASF587
C:\Users\CYMR90~1\AppData\Local\Temp\ccxAEgth.s:21823  .debug_str:0000000000006ac7 .LASF588
C:\Users\CYMR90~1\AppData\Local\Temp\ccxAEgth.s:26216  .debug_str:000000000001855e .LASF589
C:\Users\CYMR90~1\AppData\Local\Temp\ccxAEgth.s:26600  .debug_str:0000000000019f02 .LASF590
C:\Users\CYMR90~1\AppData\Local\Temp\ccxAEgth.s:27420  .debug_str:000000000001d596 .LASF591
C:\Users\CYMR90~1\AppData\Local\Temp\ccxAEgth.s:27212  .debug_str:000000000001c759 .LASF592
C:\Users\CYMR90~1\AppData\Local\Temp\ccxAEgth.s:29086  .debug_str:0000000000023ad5 .LASF593
C:\Users\CYMR90~1\AppData\Local\Temp\ccxAEgth.s:24151  .debug_str:0000000000010172 .LASF594
C:\Users\CYMR90~1\AppData\Local\Temp\ccxAEgth.s:25033  .debug_str:0000000000013a82 .LASF595
C:\Users\CYMR90~1\AppData\Local\Temp\ccxAEgth.s:24759  .debug_str:0000000000012888 .LASF596
C:\Users\CYMR90~1\AppData\Local\Temp\ccxAEgth.s:21927  .debug_str:00000000000071df .LASF597
C:\Users\CYMR90~1\AppData\Local\Temp\ccxAEgth.s:30078  .debug_str:0000000000027cef .LASF598
C:\Users\CYMR90~1\AppData\Local\Temp\ccxAEgth.s:24921  .debug_str:00000000000133a5 .LASF599
C:\Users\CYMR90~1\AppData\Local\Temp\ccxAEgth.s:27876  .debug_str:000000000001f173 .LASF600
C:\Users\CYMR90~1\AppData\Local\Temp\ccxAEgth.s:27144  .debug_str:000000000001c248 .LASF601
C:\Users\CYMR90~1\AppData\Local\Temp\ccxAEgth.s:29562  .debug_str:0000000000025c16 .LASF602
C:\Users\CYMR90~1\AppData\Local\Temp\ccxAEgth.s:30272  .debug_str:0000000000028aad .LASF603
C:\Users\CYMR90~1\AppData\Local\Temp\ccxAEgth.s:30164  .debug_str:000000000002837c .LASF604
C:\Users\CYMR90~1\AppData\Local\Temp\ccxAEgth.s:24871  .debug_str:0000000000012fe4 .LASF605
C:\Users\CYMR90~1\AppData\Local\Temp\ccxAEgth.s:28898  .debug_str:0000000000022f71 .LASF606
C:\Users\CYMR90~1\AppData\Local\Temp\ccxAEgth.s:22515  .debug_str:0000000000009861 .LASF607
C:\Users\CYMR90~1\AppData\Local\Temp\ccxAEgth.s:22027  .debug_str:00000000000077f1 .LASF608
C:\Users\CYMR90~1\AppData\Local\Temp\ccxAEgth.s:22803  .debug_str:000000000000aac8 .LASF609
C:\Users\CYMR90~1\AppData\Local\Temp\ccxAEgth.s:26994  .debug_str:000000000001b8ce .LASF610
C:\Users\CYMR90~1\AppData\Local\Temp\ccxAEgth.s:21565  .debug_str:0000000000005b07 .LASF611
C:\Users\CYMR90~1\AppData\Local\Temp\ccxAEgth.s:28682  .debug_str:00000000000222a5 .LASF612
C:\Users\CYMR90~1\AppData\Local\Temp\ccxAEgth.s:25415  .debug_str:00000000000151fb .LASF613
C:\Users\CYMR90~1\AppData\Local\Temp\ccxAEgth.s:22091  .debug_str:0000000000007cbe .LASF614
C:\Users\CYMR90~1\AppData\Local\Temp\ccxAEgth.s:20197  .debug_str:00000000000005b4 .LASF615
C:\Users\CYMR90~1\AppData\Local\Temp\ccxAEgth.s:25651  .debug_str:00000000000160ae .LASF616
C:\Users\CYMR90~1\AppData\Local\Temp\ccxAEgth.s:26636  .debug_str:000000000001a138 .LASF617
C:\Users\CYMR90~1\AppData\Local\Temp\ccxAEgth.s:25785  .debug_str:0000000000016a1c .LASF618
C:\Users\CYMR90~1\AppData\Local\Temp\ccxAEgth.s:28766  .debug_str:00000000000227a1 .LASF619
C:\Users\CYMR90~1\AppData\Local\Temp\ccxAEgth.s:23063  .debug_str:000000000000bcaf .LASF620
C:\Users\CYMR90~1\AppData\Local\Temp\ccxAEgth.s:21837  .debug_str:0000000000006bb4 .LASF621
C:\Users\CYMR90~1\AppData\Local\Temp\ccxAEgth.s:28958  .debug_str:00000000000232cd .LASF622
C:\Users\CYMR90~1\AppData\Local\Temp\ccxAEgth.s:28060  .debug_str:000000000001fcb1 .LASF623
C:\Users\CYMR90~1\AppData\Local\Temp\ccxAEgth.s:30036  .debug_str:00000000000279b6 .LASF624
C:\Users\CYMR90~1\AppData\Local\Temp\ccxAEgth.s:30644  .debug_str:000000000002a15a .LASF625
C:\Users\CYMR90~1\AppData\Local\Temp\ccxAEgth.s:25103  .debug_str:0000000000013e68 .LASF626
C:\Users\CYMR90~1\AppData\Local\Temp\ccxAEgth.s:30900  .debug_str:000000000002b06c .LASF627
C:\Users\CYMR90~1\AppData\Local\Temp\ccxAEgth.s:25505  .debug_str:000000000001571a .LASF628
C:\Users\CYMR90~1\AppData\Local\Temp\ccxAEgth.s:28710  .debug_str:000000000002241c .LASF629
C:\Users\CYMR90~1\AppData\Local\Temp\ccxAEgth.s:22243  .debug_str:0000000000008702 .LASF630
C:\Users\CYMR90~1\AppData\Local\Temp\ccxAEgth.s:23459  .debug_str:000000000000d648 .LASF631
C:\Users\CYMR90~1\AppData\Local\Temp\ccxAEgth.s:28672  .debug_str:0000000000022205 .LASF632
C:\Users\CYMR90~1\AppData\Local\Temp\ccxAEgth.s:23173  .debug_str:000000000000c386 .LASF633
C:\Users\CYMR90~1\AppData\Local\Temp\ccxAEgth.s:20705  .debug_str:0000000000002407 .LASF634
C:\Users\CYMR90~1\AppData\Local\Temp\ccxAEgth.s:26542  .debug_str:0000000000019bc1 .LASF635
C:\Users\CYMR90~1\AppData\Local\Temp\ccxAEgth.s:25707  .debug_str:000000000001647a .LASF636
C:\Users\CYMR90~1\AppData\Local\Temp\ccxAEgth.s:27308  .debug_str:000000000001ce8f .LASF637
C:\Users\CYMR90~1\AppData\Local\Temp\ccxAEgth.s:20995  .debug_str:00000000000036ae .LASF638
C:\Users\CYMR90~1\AppData\Local\Temp\ccxAEgth.s:24525  .debug_str:0000000000011997 .LASF639
C:\Users\CYMR90~1\AppData\Local\Temp\ccxAEgth.s:22103  .debug_str:0000000000007d66 .LASF640
C:\Users\CYMR90~1\AppData\Local\Temp\ccxAEgth.s:24741  .debug_str:000000000001274c .LASF641
C:\Users\CYMR90~1\AppData\Local\Temp\ccxAEgth.s:22959  .debug_str:000000000000b55a .LASF642
C:\Users\CYMR90~1\AppData\Local\Temp\ccxAEgth.s:30018  .debug_str:0000000000027869 .LASF643
C:\Users\CYMR90~1\AppData\Local\Temp\ccxAEgth.s:23335  .debug_str:000000000000cddc .LASF644
C:\Users\CYMR90~1\AppData\Local\Temp\ccxAEgth.s:21167  .debug_str:00000000000041fd .LASF645
C:\Users\CYMR90~1\AppData\Local\Temp\ccxAEgth.s:21987  .debug_str:0000000000007544 .LASF646
C:\Users\CYMR90~1\AppData\Local\Temp\ccxAEgth.s:20921  .debug_str:00000000000031f1 .LASF647
C:\Users\CYMR90~1\AppData\Local\Temp\ccxAEgth.s:21287  .debug_str:0000000000004a4f .LASF648
C:\Users\CYMR90~1\AppData\Local\Temp\ccxAEgth.s:30544  .debug_str:0000000000029b61 .LASF649
C:\Users\CYMR90~1\AppData\Local\Temp\ccxAEgth.s:24443  .debug_str:0000000000011328 .LASF650
C:\Users\CYMR90~1\AppData\Local\Temp\ccxAEgth.s:30660  .debug_str:000000000002a234 .LASF651
C:\Users\CYMR90~1\AppData\Local\Temp\ccxAEgth.s:24051  .debug_str:000000000000fb0f .LASF652
C:\Users\CYMR90~1\AppData\Local\Temp\ccxAEgth.s:20177  .debug_str:00000000000004a3 .LASF653
C:\Users\CYMR90~1\AppData\Local\Temp\ccxAEgth.s:30882  .debug_str:000000000002af7d .LASF654
C:\Users\CYMR90~1\AppData\Local\Temp\ccxAEgth.s:22337  .debug_str:0000000000008d33 .LASF655
C:\Users\CYMR90~1\AppData\Local\Temp\ccxAEgth.s:30092  .debug_str:0000000000027dc4 .LASF656
C:\Users\CYMR90~1\AppData\Local\Temp\ccxAEgth.s:20231  .debug_str:00000000000007db .LASF657
C:\Users\CYMR90~1\AppData\Local\Temp\ccxAEgth.s:30710  .debug_str:000000000002a530 .LASF658
C:\Users\CYMR90~1\AppData\Local\Temp\ccxAEgth.s:24839  .debug_str:0000000000012dc6 .LASF659
C:\Users\CYMR90~1\AppData\Local\Temp\ccxAEgth.s:27242  .debug_str:000000000001c92c .LASF660
C:\Users\CYMR90~1\AppData\Local\Temp\ccxAEgth.s:23731  .debug_str:000000000000e6cb .LASF661
C:\Users\CYMR90~1\AppData\Local\Temp\ccxAEgth.s:27904  .debug_str:000000000001f345 .LASF662
C:\Users\CYMR90~1\AppData\Local\Temp\ccxAEgth.s:29878  .debug_str:0000000000026f8c .LASF663
C:\Users\CYMR90~1\AppData\Local\Temp\ccxAEgth.s:24421  .debug_str:00000000000111e9 .LASF664
C:\Users\CYMR90~1\AppData\Local\Temp\ccxAEgth.s:24411  .debug_str:000000000001116c .LASF665
C:\Users\CYMR90~1\AppData\Local\Temp\ccxAEgth.s:26316  .debug_str:0000000000018c9f .LASF666
C:\Users\CYMR90~1\AppData\Local\Temp\ccxAEgth.s:21577  .debug_str:0000000000005b9f .LASF667
C:\Users\CYMR90~1\AppData\Local\Temp\ccxAEgth.s:31386  .debug_str:000000000002d0b2 .LASF668
C:\Users\CYMR90~1\AppData\Local\Temp\ccxAEgth.s:21951  .debug_str:0000000000007339 .LASF669
C:\Users\CYMR90~1\AppData\Local\Temp\ccxAEgth.s:28554  .debug_str:0000000000021b1c .LASF670
C:\Users\CYMR90~1\AppData\Local\Temp\ccxAEgth.s:24821  .debug_str:0000000000012ca3 .LASF671
C:\Users\CYMR90~1\AppData\Local\Temp\ccxAEgth.s:27956  .debug_str:000000000001f61f .LASF672
C:\Users\CYMR90~1\AppData\Local\Temp\ccxAEgth.s:28686  .debug_str:00000000000222d6 .LASF673
C:\Users\CYMR90~1\AppData\Local\Temp\ccxAEgth.s:20563  .debug_str:0000000000001be6 .LASF674
C:\Users\CYMR90~1\AppData\Local\Temp\ccxAEgth.s:25491  .debug_str:000000000001563b .LASF676
C:\Users\CYMR90~1\AppData\Local\Temp\ccxAEgth.s:29116  .debug_str:0000000000023c98 .LASF677
C:\Users\CYMR90~1\AppData\Local\Temp\ccxAEgth.s:26554  .debug_str:0000000000019c6f .LASF678
C:\Users\CYMR90~1\AppData\Local\Temp\ccxAEgth.s:29220  .debug_str:0000000000024401 .LASF679
C:\Users\CYMR90~1\AppData\Local\Temp\ccxAEgth.s:27670  .debug_str:000000000001e532 .LASF680
C:\Users\CYMR90~1\AppData\Local\Temp\ccxAEgth.s:30558  .debug_str:0000000000029c5e .LASF681
C:\Users\CYMR90~1\AppData\Local\Temp\ccxAEgth.s:21169  .debug_str:000000000000423b .LASF682
C:\Users\CYMR90~1\AppData\Local\Temp\ccxAEgth.s:21093  .debug_str:0000000000003cef .LASF683
C:\Users\CYMR90~1\AppData\Local\Temp\ccxAEgth.s:22473  .debug_str:000000000000955b .LASF684
C:\Users\CYMR90~1\AppData\Local\Temp\ccxAEgth.s:26998  .debug_str:000000000001b8fb .LASF685
C:\Users\CYMR90~1\AppData\Local\Temp\ccxAEgth.s:28418  .debug_str:00000000000212ce .LASF686
C:\Users\CYMR90~1\AppData\Local\Temp\ccxAEgth.s:25763  .debug_str:000000000001684d .LASF687
C:\Users\CYMR90~1\AppData\Local\Temp\ccxAEgth.s:24347  .debug_str:0000000000010d77 .LASF688
C:\Users\CYMR90~1\AppData\Local\Temp\ccxAEgth.s:20977  .debug_str:0000000000003581 .LASF689
C:\Users\CYMR90~1\AppData\Local\Temp\ccxAEgth.s:21843  .debug_str:0000000000006c33 .LASF690
C:\Users\CYMR90~1\AppData\Local\Temp\ccxAEgth.s:24689  .debug_str:00000000000123df .LASF691
C:\Users\CYMR90~1\AppData\Local\Temp\ccxAEgth.s:25529  .debug_str:0000000000015884 .LASF692
C:\Users\CYMR90~1\AppData\Local\Temp\ccxAEgth.s:21545  .debug_str:00000000000059e0 .LASF695
C:\Users\CYMR90~1\AppData\Local\Temp\ccxAEgth.s:25938  .debug_str:00000000000174cd .LASF696
C:\Users\CYMR90~1\AppData\Local\Temp\ccxAEgth.s:23363  .debug_str:000000000000cfb5 .LASF697
C:\Users\CYMR90~1\AppData\Local\Temp\ccxAEgth.s:26968  .debug_str:000000000001b787 .LASF698
C:\Users\CYMR90~1\AppData\Local\Temp\ccxAEgth.s:29156  .debug_str:0000000000023eee .LASF699
C:\Users\CYMR90~1\AppData\Local\Temp\ccxAEgth.s:25271  .debug_str:00000000000148a4 .LASF702
C:\Users\CYMR90~1\AppData\Local\Temp\ccxAEgth.s:22495  .debug_str:00000000000096b2 .LASF703
C:\Users\CYMR90~1\AppData\Local\Temp\ccxAEgth.s:27848  .debug_str:000000000001efd8 .LASF704
C:\Users\CYMR90~1\AppData\Local\Temp\ccxAEgth.s:21365  .debug_str:0000000000004f16 .LASF705
C:\Users\CYMR90~1\AppData\Local\Temp\ccxAEgth.s:25591  .debug_str:0000000000015cdb .LASF706
C:\Users\CYMR90~1\AppData\Local\Temp\ccxAEgth.s:23925  .debug_str:000000000000f26c .LASF707
C:\Users\CYMR90~1\AppData\Local\Temp\ccxAEgth.s:30290  .debug_str:0000000000028bc6 .LASF708
C:\Users\CYMR90~1\AppData\Local\Temp\ccxAEgth.s:29530  .debug_str:00000000000259f6 .LASF709
C:\Users\CYMR90~1\AppData\Local\Temp\ccxAEgth.s:23571  .debug_str:000000000000dd0d .LASF710
C:\Users\CYMR90~1\AppData\Local\Temp\ccxAEgth.s:24089  .debug_str:000000000000fd82 .LASF711
C:\Users\CYMR90~1\AppData\Local\Temp\ccxAEgth.s:25737  .debug_str:0000000000016641 .LASF712
C:\Users\CYMR90~1\AppData\Local\Temp\ccxAEgth.s:22737  .debug_str:000000000000a5b9 .LASF713
C:\Users\CYMR90~1\AppData\Local\Temp\ccxAEgth.s:31102  .debug_str:000000000002bdbf .LASF714
C:\Users\CYMR90~1\AppData\Local\Temp\ccxAEgth.s:22087  .debug_str:0000000000007c59 .LASF715
C:\Users\CYMR90~1\AppData\Local\Temp\ccxAEgth.s:23001  .debug_str:000000000000b809 .LASF716
C:\Users\CYMR90~1\AppData\Local\Temp\ccxAEgth.s:28076  .debug_str:000000000001fdcf .LASF717
C:\Users\CYMR90~1\AppData\Local\Temp\ccxAEgth.s:30668  .debug_str:000000000002a2b0 .LASF718
C:\Users\CYMR90~1\AppData\Local\Temp\ccxAEgth.s:29264  .debug_str:00000000000246a1 .LASF719
C:\Users\CYMR90~1\AppData\Local\Temp\ccxAEgth.s:26252  .debug_str:00000000000187e5 .LASF720
C:\Users\CYMR90~1\AppData\Local\Temp\ccxAEgth.s:20619  .debug_str:0000000000001f30 .LASF721
C:\Users\CYMR90~1\AppData\Local\Temp\ccxAEgth.s:28188  .debug_str:00000000000204c3 .LASF722
C:\Users\CYMR90~1\AppData\Local\Temp\ccxAEgth.s:27158  .debug_str:000000000001c2fe .LASF723
C:\Users\CYMR90~1\AppData\Local\Temp\ccxAEgth.s:27722  .debug_str:000000000001e892 .LASF724
C:\Users\CYMR90~1\AppData\Local\Temp\ccxAEgth.s:28664  .debug_str:00000000000221b3 .LASF725
C:\Users\CYMR90~1\AppData\Local\Temp\ccxAEgth.s:24937  .debug_str:00000000000134a3 .LASF726
C:\Users\CYMR90~1\AppData\Local\Temp\ccxAEgth.s:22731  .debug_str:000000000000a55f .LASF727
C:\Users\CYMR90~1\AppData\Local\Temp\ccxAEgth.s:29626  .debug_str:000000000002601f .LASF728
C:\Users\CYMR90~1\AppData\Local\Temp\ccxAEgth.s:27962  .debug_str:000000000001f69d .LASF729
C:\Users\CYMR90~1\AppData\Local\Temp\ccxAEgth.s:26440  .debug_str:00000000000194a5 .LASF730
C:\Users\CYMR90~1\AppData\Local\Temp\ccxAEgth.s:24909  .debug_str:00000000000132dd .LASF731
C:\Users\CYMR90~1\AppData\Local\Temp\ccxAEgth.s:29564  .debug_str:0000000000025c51 .LASF732
C:\Users\CYMR90~1\AppData\Local\Temp\ccxAEgth.s:31306  .debug_str:000000000002cb75 .LASF733
C:\Users\CYMR90~1\AppData\Local\Temp\ccxAEgth.s:24397  .debug_str:0000000000011081 .LASF734
C:\Users\CYMR90~1\AppData\Local\Temp\ccxAEgth.s:24323  .debug_str:0000000000010c47 .LASF735
C:\Users\CYMR90~1\AppData\Local\Temp\ccxAEgth.s:31236  .debug_str:000000000002c6b0 .LASF736
C:\Users\CYMR90~1\AppData\Local\Temp\ccxAEgth.s:23303  .debug_str:000000000000cbc2 .LASF737
C:\Users\CYMR90~1\AppData\Local\Temp\ccxAEgth.s:27306  .debug_str:000000000001ce7e .LASF738
C:\Users\CYMR90~1\AppData\Local\Temp\ccxAEgth.s:30988  .debug_str:000000000002b654 .LASF739
C:\Users\CYMR90~1\AppData\Local\Temp\ccxAEgth.s:20529  .debug_str:00000000000019bf .LASF740
C:\Users\CYMR90~1\AppData\Local\Temp\ccxAEgth.s:23235  .debug_str:000000000000c7ef .LASF741
C:\Users\CYMR90~1\AppData\Local\Temp\ccxAEgth.s:20505  .debug_str:000000000000187c .LASF742
C:\Users\CYMR90~1\AppData\Local\Temp\ccxAEgth.s:24355  .debug_str:0000000000010dcc .LASF743
C:\Users\CYMR90~1\AppData\Local\Temp\ccxAEgth.s:20963  .debug_str:00000000000034c0 .LASF744
C:\Users\CYMR90~1\AppData\Local\Temp\ccxAEgth.s:22345  .debug_str:0000000000008db4 .LASF745
C:\Users\CYMR90~1\AppData\Local\Temp\ccxAEgth.s:28676  .debug_str:0000000000022254 .LASF746
C:\Users\CYMR90~1\AppData\Local\Temp\ccxAEgth.s:20403  .debug_str:0000000000001244 .LASF747
C:\Users\CYMR90~1\AppData\Local\Temp\ccxAEgth.s:20393  .debug_str:00000000000011c2 .LASF748
C:\Users\CYMR90~1\AppData\Local\Temp\ccxAEgth.s:21525  .debug_str:0000000000005867 .LASF750
C:\Users\CYMR90~1\AppData\Local\Temp\ccxAEgth.s:24275  .debug_str:000000000001088d .LASF751
C:\Users\CYMR90~1\AppData\Local\Temp\ccxAEgth.s:30446  .debug_str:00000000000295a2 .LASF752
C:\Users\CYMR90~1\AppData\Local\Temp\ccxAEgth.s:24209  .debug_str:00000000000104dd .LASF753
C:\Users\CYMR90~1\AppData\Local\Temp\ccxAEgth.s:21409  .debug_str:00000000000051cb .LASF754
C:\Users\CYMR90~1\AppData\Local\Temp\ccxAEgth.s:22983  .debug_str:000000000000b702 .LASF755
C:\Users\CYMR90~1\AppData\Local\Temp\ccxAEgth.s:26518  .debug_str:0000000000019a62 .LASF756
C:\Users\CYMR90~1\AppData\Local\Temp\ccxAEgth.s:22483  .debug_str:000000000000960a .LASF757
C:\Users\CYMR90~1\AppData\Local\Temp\ccxAEgth.s:29514  .debug_str:000000000002590e .LASF758
C:\Users\CYMR90~1\AppData\Local\Temp\ccxAEgth.s:31344  .debug_str:000000000002ce2d .LASF759
C:\Users\CYMR90~1\AppData\Local\Temp\ccxAEgth.s:26886  .debug_str:000000000001b2be .LASF760
C:\Users\CYMR90~1\AppData\Local\Temp\ccxAEgth.s:31084  .debug_str:000000000002bc79 .LASF761
C:\Users\CYMR90~1\AppData\Local\Temp\ccxAEgth.s:22911  .debug_str:000000000000b206 .LASF762
C:\Users\CYMR90~1\AppData\Local\Temp\ccxAEgth.s:26894  .debug_str:000000000001b352 .LASF765
C:\Users\CYMR90~1\AppData\Local\Temp\ccxAEgth.s:25563  .debug_str:0000000000015aca .LASF766
C:\Users\CYMR90~1\AppData\Local\Temp\ccxAEgth.s:28564  .debug_str:0000000000021b97 .LASF767
C:\Users\CYMR90~1\AppData\Local\Temp\ccxAEgth.s:25553  .debug_str:0000000000015a57 .LASF768
C:\Users\CYMR90~1\AppData\Local\Temp\ccxAEgth.s:20765  .debug_str:0000000000002815 .LASF769
C:\Users\CYMR90~1\AppData\Local\Temp\ccxAEgth.s:27014  .debug_str:000000000001ba3e .LASF770
C:\Users\CYMR90~1\AppData\Local\Temp\ccxAEgth.s:25647  .debug_str:0000000000016088 .LASF771
C:\Users\CYMR90~1\AppData\Local\Temp\ccxAEgth.s:29228  .debug_str:000000000002446f .LASF772
C:\Users\CYMR90~1\AppData\Local\Temp\ccxAEgth.s:28858  .debug_str:0000000000022d49 .LASF773
C:\Users\CYMR90~1\AppData\Local\Temp\ccxAEgth.s:23651  .debug_str:000000000000e1bc .LASF774
C:\Users\CYMR90~1\AppData\Local\Temp\ccxAEgth.s:29566  .debug_str:0000000000025c67 .LASF775
C:\Users\CYMR90~1\AppData\Local\Temp\ccxAEgth.s:22627  .debug_str:0000000000009f46 .LASF776
C:\Users\CYMR90~1\AppData\Local\Temp\ccxAEgth.s:22643  .debug_str:000000000000a04a .LASF777
C:\Users\CYMR90~1\AppData\Local\Temp\ccxAEgth.s:27660  .debug_str:000000000001e491 .LASF778
C:\Users\CYMR90~1\AppData\Local\Temp\ccxAEgth.s:24153  .debug_str:000000000001019a .LASF779
C:\Users\CYMR90~1\AppData\Local\Temp\ccxAEgth.s:27912  .debug_str:000000000001f3ba .LASF780
C:\Users\CYMR90~1\AppData\Local\Temp\ccxAEgth.s:28560  .debug_str:0000000000021b81 .LASF781
C:\Users\CYMR90~1\AppData\Local\Temp\ccxAEgth.s:24639  .debug_str:00000000000120d7 .LASF782
C:\Users\CYMR90~1\AppData\Local\Temp\ccxAEgth.s:25771  .debug_str:0000000000016970 .LASF783
C:\Users\CYMR90~1\AppData\Local\Temp\ccxAEgth.s:24541  .debug_str:0000000000011a95 .LASF784
C:\Users\CYMR90~1\AppData\Local\Temp\ccxAEgth.s:23829  .debug_str:000000000000ec84 .LASF785
C:\Users\CYMR90~1\AppData\Local\Temp\ccxAEgth.s:28926  .debug_str:00000000000230fb .LASF786
C:\Users\CYMR90~1\AppData\Local\Temp\ccxAEgth.s:25285  .debug_str:00000000000149c9 .LASF787
C:\Users\CYMR90~1\AppData\Local\Temp\ccxAEgth.s:27594  .debug_str:000000000001e0bb .LASF788
C:\Users\CYMR90~1\AppData\Local\Temp\ccxAEgth.s:24009  .debug_str:000000000000f87b .LASF789
C:\Users\CYMR90~1\AppData\Local\Temp\ccxAEgth.s:21459  .debug_str:00000000000054d1 .LASF790
C:\Users\CYMR90~1\AppData\Local\Temp\ccxAEgth.s:29922  .debug_str:00000000000272ed .LASF791
C:\Users\CYMR90~1\AppData\Local\Temp\ccxAEgth.s:22207  .debug_str:00000000000084a9 .LASF792
C:\Users\CYMR90~1\AppData\Local\Temp\ccxAEgth.s:31312  .debug_str:000000000002cbc3 .LASF793
C:\Users\CYMR90~1\AppData\Local\Temp\ccxAEgth.s:21999  .debug_str:0000000000007634 .LASF794
C:\Users\CYMR90~1\AppData\Local\Temp\ccxAEgth.s:30170  .debug_str:00000000000283db .LASF795
C:\Users\CYMR90~1\AppData\Local\Temp\ccxAEgth.s:28162  .debug_str:00000000000202cf .LASF796
C:\Users\CYMR90~1\AppData\Local\Temp\ccxAEgth.s:30874  .debug_str:000000000002af2c .LASF797
C:\Users\CYMR90~1\AppData\Local\Temp\ccxAEgth.s:21827  .debug_str:0000000000006b11 .LASF798
C:\Users\CYMR90~1\AppData\Local\Temp\ccxAEgth.s:30230  .debug_str:0000000000028820 .LASF799
C:\Users\CYMR90~1\AppData\Local\Temp\ccxAEgth.s:21425  .debug_str:00000000000052c2 .LASF800
C:\Users\CYMR90~1\AppData\Local\Temp\ccxAEgth.s:26656  .debug_str:000000000001a3e5 .LASF801
C:\Users\CYMR90~1\AppData\Local\Temp\ccxAEgth.s:26684  .debug_str:000000000001a588 .LASF802
C:\Users\CYMR90~1\AppData\Local\Temp\ccxAEgth.s:22547  .debug_str:0000000000009a56 .LASF803
C:\Users\CYMR90~1\AppData\Local\Temp\ccxAEgth.s:25041  .debug_str:0000000000013ae8 .LASF804
C:\Users\CYMR90~1\AppData\Local\Temp\ccxAEgth.s:21841  .debug_str:0000000000006bd8 .LASF805
C:\Users\CYMR90~1\AppData\Local\Temp\ccxAEgth.s:24497  .debug_str:0000000000011733 .LASF806
C:\Users\CYMR90~1\AppData\Local\Temp\ccxAEgth.s:27616  .debug_str:000000000001e1d1 .LASF807
C:\Users\CYMR90~1\AppData\Local\Temp\ccxAEgth.s:27208  .debug_str:000000000001c709 .LASF808
C:\Users\CYMR90~1\AppData\Local\Temp\ccxAEgth.s:29636  .debug_str:00000000000260b6 .LASF809
C:\Users\CYMR90~1\AppData\Local\Temp\ccxAEgth.s:31088  .debug_str:000000000002bcce .LASF810
C:\Users\CYMR90~1\AppData\Local\Temp\ccxAEgth.s:22231  .debug_str:000000000000861d .LASF811
C:\Users\CYMR90~1\AppData\Local\Temp\ccxAEgth.s:21151  .debug_str:0000000000004125 .LASF812
C:\Users\CYMR90~1\AppData\Local\Temp\ccxAEgth.s:31122  .debug_str:000000000002bf82 .LASF813
C:\Users\CYMR90~1\AppData\Local\Temp\ccxAEgth.s:21521  .debug_str:0000000000005840 .LASF814
C:\Users\CYMR90~1\AppData\Local\Temp\ccxAEgth.s:21739  .debug_str:0000000000006550 .LASF815
C:\Users\CYMR90~1\AppData\Local\Temp\ccxAEgth.s:26982  .debug_str:000000000001b828 .LASF816
C:\Users\CYMR90~1\AppData\Local\Temp\ccxAEgth.s:22409  .debug_str:0000000000009159 .LASF817
C:\Users\CYMR90~1\AppData\Local\Temp\ccxAEgth.s:27124  .debug_str:000000000001c138 .LASF818
C:\Users\CYMR90~1\AppData\Local\Temp\ccxAEgth.s:27018  .debug_str:000000000001ba56 .LASF819
C:\Users\CYMR90~1\AppData\Local\Temp\ccxAEgth.s:20273  .debug_str:0000000000000a98 .LASF820
C:\Users\CYMR90~1\AppData\Local\Temp\ccxAEgth.s:30712  .debug_str:000000000002a540 .LASF821
C:\Users\CYMR90~1\AppData\Local\Temp\ccxAEgth.s:29224  .debug_str:000000000002443f .LASF822
C:\Users\CYMR90~1\AppData\Local\Temp\ccxAEgth.s:22375  .debug_str:0000000000008f3b .LASF823
C:\Users\CYMR90~1\AppData\Local\Temp\ccxAEgth.s:25695  .debug_str:00000000000163d7 .LASF824
C:\Users\CYMR90~1\AppData\Local\Temp\ccxAEgth.s:27310  .debug_str:000000000001ceb9 .LASF825
C:\Users\CYMR90~1\AppData\Local\Temp\ccxAEgth.s:25489  .debug_str:000000000001561a .LASF826
C:\Users\CYMR90~1\AppData\Local\Temp\ccxAEgth.s:21043  .debug_str:00000000000039d5 .LASF827
C:\Users\CYMR90~1\AppData\Local\Temp\ccxAEgth.s:23809  .debug_str:000000000000eb77 .LASF828
C:\Users\CYMR90~1\AppData\Local\Temp\ccxAEgth.s:29332  .debug_str:0000000000024b44 .LASF829
C:\Users\CYMR90~1\AppData\Local\Temp\ccxAEgth.s:29504  .debug_str:000000000002584e .LASF830
C:\Users\CYMR90~1\AppData\Local\Temp\ccxAEgth.s:22989  .debug_str:000000000000b75d .LASF831
C:\Users\CYMR90~1\AppData\Local\Temp\ccxAEgth.s:23755  .debug_str:000000000000e855 .LASF832
C:\Users\CYMR90~1\AppData\Local\Temp\ccxAEgth.s:21605  .debug_str:0000000000005d2a .LASF833
C:\Users\CYMR90~1\AppData\Local\Temp\ccxAEgth.s:24399  .debug_str:0000000000011092 .LASF834
C:\Users\CYMR90~1\AppData\Local\Temp\ccxAEgth.s:26174  .debug_str:0000000000018322 .LASF835
C:\Users\CYMR90~1\AppData\Local\Temp\ccxAEgth.s:24305  .debug_str:0000000000010ad4 .LASF836
C:\Users\CYMR90~1\AppData\Local\Temp\ccxAEgth.s:28068  .debug_str:000000000001fd53 .LASF837
C:\Users\CYMR90~1\AppData\Local\Temp\ccxAEgth.s:22279  .debug_str:0000000000008963 .LASF838
C:\Users\CYMR90~1\AppData\Local\Temp\ccxAEgth.s:21447  .debug_str:0000000000005432 .LASF839
C:\Users\CYMR90~1\AppData\Local\Temp\ccxAEgth.s:24199  .debug_str:000000000001042c .LASF840
C:\Users\CYMR90~1\AppData\Local\Temp\ccxAEgth.s:23125  .debug_str:000000000000c0b2 .LASF841
C:\Users\CYMR90~1\AppData\Local\Temp\ccxAEgth.s:27224  .debug_str:000000000001c826 .LASF842
C:\Users\CYMR90~1\AppData\Local\Temp\ccxAEgth.s:20347  .debug_str:0000000000000f38 .LASF843
C:\Users\CYMR90~1\AppData\Local\Temp\ccxAEgth.s:20703  .debug_str:00000000000023f7 .LASF844
C:\Users\CYMR90~1\AppData\Local\Temp\ccxAEgth.s:29078  .debug_str:0000000000023a6d .LASF845
C:\Users\CYMR90~1\AppData\Local\Temp\ccxAEgth.s:20107  .debug_str:0000000000000096 .LASF846
C:\Users\CYMR90~1\AppData\Local\Temp\ccxAEgth.s:22077  .debug_str:0000000000007bcc .LASF847
C:\Users\CYMR90~1\AppData\Local\Temp\ccxAEgth.s:27920  .debug_str:000000000001f41c .LASF848
C:\Users\CYMR90~1\AppData\Local\Temp\ccxAEgth.s:22045  .debug_str:0000000000007943 .LASF849
C:\Users\CYMR90~1\AppData\Local\Temp\ccxAEgth.s:23419  .debug_str:000000000000d3cf .LASF852
C:\Users\CYMR90~1\AppData\Local\Temp\ccxAEgth.s:30284  .debug_str:0000000000028b6e .LASF853
C:\Users\CYMR90~1\AppData\Local\Temp\ccxAEgth.s:25343  .debug_str:0000000000014dd4 .LASF854
C:\Users\CYMR90~1\AppData\Local\Temp\ccxAEgth.s:28570  .debug_str:0000000000021c2c .LASF856
C:\Users\CYMR90~1\AppData\Local\Temp\ccxAEgth.s:27448  .debug_str:000000000001d76a .LASF857
C:\Users\CYMR90~1\AppData\Local\Temp\ccxAEgth.s:30104  .debug_str:0000000000027e78 .LASF858
C:\Users\CYMR90~1\AppData\Local\Temp\ccxAEgth.s:23407  .debug_str:000000000000d300 .LASF859
C:\Users\CYMR90~1\AppData\Local\Temp\ccxAEgth.s:24353  .debug_str:0000000000010dc2 .LASF860
C:\Users\CYMR90~1\AppData\Local\Temp\ccxAEgth.s:28500  .debug_str:00000000000217bd .LASF861
C:\Users\CYMR90~1\AppData\Local\Temp\ccxAEgth.s:27652  .debug_str:000000000001e441 .LASF862
C:\Users\CYMR90~1\AppData\Local\Temp\ccxAEgth.s:20441  .debug_str:0000000000001488 .LASF863
C:\Users\CYMR90~1\AppData\Local\Temp\ccxAEgth.s:21097  .debug_str:0000000000003d1d .LASF864
C:\Users\CYMR90~1\AppData\Local\Temp\ccxAEgth.s:21493  .debug_str:00000000000056cd .LASF865
C:\Users\CYMR90~1\AppData\Local\Temp\ccxAEgth.s:22675  .debug_str:000000000000a261 .LASF866
C:\Users\CYMR90~1\AppData\Local\Temp\ccxAEgth.s:22147  .debug_str:00000000000080f5 .LASF867
C:\Users\CYMR90~1\AppData\Local\Temp\ccxAEgth.s:27376  .debug_str:000000000001d2b4 .LASF868
C:\Users\CYMR90~1\AppData\Local\Temp\ccxAEgth.s:28008  .debug_str:000000000001f987 .LASF869
C:\Users\CYMR90~1\AppData\Local\Temp\ccxAEgth.s:29092  .debug_str:0000000000023b31 .LASF870
C:\Users\CYMR90~1\AppData\Local\Temp\ccxAEgth.s:22317  .debug_str:0000000000008be7 .LASF871
C:\Users\CYMR90~1\AppData\Local\Temp\ccxAEgth.s:22755  .debug_str:000000000000a7f2 .LASF872
C:\Users\CYMR90~1\AppData\Local\Temp\ccxAEgth.s:27216  .debug_str:000000000001c7a5 .LASF873
C:\Users\CYMR90~1\AppData\Local\Temp\ccxAEgth.s:29808  .debug_str:0000000000026b42 .LASF874
C:\Users\CYMR90~1\AppData\Local\Temp\ccxAEgth.s:24561  .debug_str:0000000000011bad .LASF875
C:\Users\CYMR90~1\AppData\Local\Temp\ccxAEgth.s:25249  .debug_str:00000000000147a7 .LASF876
C:\Users\CYMR90~1\AppData\Local\Temp\ccxAEgth.s:22553  .debug_str:0000000000009aab .LASF877
C:\Users\CYMR90~1\AppData\Local\Temp\ccxAEgth.s:26924  .debug_str:000000000001b525 .LASF878
C:\Users\CYMR90~1\AppData\Local\Temp\ccxAEgth.s:24351  .debug_str:0000000000010db4 .LASF879
C:\Users\CYMR90~1\AppData\Local\Temp\ccxAEgth.s:25884  .debug_str:000000000001719c .LASF880
C:\Users\CYMR90~1\AppData\Local\Temp\ccxAEgth.s:21427  .debug_str:00000000000052db .LASF881
C:\Users\CYMR90~1\AppData\Local\Temp\ccxAEgth.s:24779  .debug_str:0000000000012a00 .LASF882
C:\Users\CYMR90~1\AppData\Local\Temp\ccxAEgth.s:27888  .debug_str:000000000001f25b .LASF883
C:\Users\CYMR90~1\AppData\Local\Temp\ccxAEgth.s:28080  .debug_str:000000000001fdfc .LASF884
C:\Users\CYMR90~1\AppData\Local\Temp\ccxAEgth.s:31370  .debug_str:000000000002cf90 .LASF885
C:\Users\CYMR90~1\AppData\Local\Temp\ccxAEgth.s:26930  .debug_str:000000000001b57d .LASF886
C:\Users\CYMR90~1\AppData\Local\Temp\ccxAEgth.s:22421  .debug_str:0000000000009200 .LASF887
C:\Users\CYMR90~1\AppData\Local\Temp\ccxAEgth.s:29042  .debug_str:0000000000023869 .LASF888
C:\Users\CYMR90~1\AppData\Local\Temp\ccxAEgth.s:24715  .debug_str:00000000000125ae .LASF889
C:\Users\CYMR90~1\AppData\Local\Temp\ccxAEgth.s:28976  .debug_str:00000000000233f3 .LASF890
C:\Users\CYMR90~1\AppData\Local\Temp\ccxAEgth.s:21247  .debug_str:0000000000004800 .LASF891
C:\Users\CYMR90~1\AppData\Local\Temp\ccxAEgth.s:23703  .debug_str:000000000000e514 .LASF892
C:\Users\CYMR90~1\AppData\Local\Temp\ccxAEgth.s:29754  .debug_str:000000000002681e .LASF893
C:\Users\CYMR90~1\AppData\Local\Temp\ccxAEgth.s:29138  .debug_str:0000000000023dfb .LASF894
C:\Users\CYMR90~1\AppData\Local\Temp\ccxAEgth.s:20415  .debug_str:00000000000012ee .LASF895
C:\Users\CYMR90~1\AppData\Local\Temp\ccxAEgth.s:25105  .debug_str:0000000000013ea0 .LASF896
C:\Users\CYMR90~1\AppData\Local\Temp\ccxAEgth.s:21335  .debug_str:0000000000004d4a .LASF897
C:\Users\CYMR90~1\AppData\Local\Temp\ccxAEgth.s:22543  .debug_str:0000000000009a17 .LASF898
C:\Users\CYMR90~1\AppData\Local\Temp\ccxAEgth.s:30048  .debug_str:0000000000027ac6 .LASF899
C:\Users\CYMR90~1\AppData\Local\Temp\ccxAEgth.s:22869  .debug_str:000000000000afb1 .LASF900
C:\Users\CYMR90~1\AppData\Local\Temp\ccxAEgth.s:26974  .debug_str:000000000001b7bd .LASF901
C:\Users\CYMR90~1\AppData\Local\Temp\ccxAEgth.s:30580  .debug_str:0000000000029db9 .LASF902
C:\Users\CYMR90~1\AppData\Local\Temp\ccxAEgth.s:29330  .debug_str:0000000000024b1e .LASF903
C:\Users\CYMR90~1\AppData\Local\Temp\ccxAEgth.s:30192  .debug_str:0000000000028546 .LASF904
C:\Users\CYMR90~1\AppData\Local\Temp\ccxAEgth.s:24763  .debug_str:00000000000128f2 .LASF905
C:\Users\CYMR90~1\AppData\Local\Temp\ccxAEgth.s:22195  .debug_str:0000000000008406 .LASF906
C:\Users\CYMR90~1\AppData\Local\Temp\ccxAEgth.s:27304  .debug_str:000000000001ce62 .LASF907
C:\Users\CYMR90~1\AppData\Local\Temp\ccxAEgth.s:23699  .debug_str:000000000000e4d1 .LASF908
C:\Users\CYMR90~1\AppData\Local\Temp\ccxAEgth.s:30022  .debug_str:00000000000278c9 .LASF909
C:\Users\CYMR90~1\AppData\Local\Temp\ccxAEgth.s:24325  .debug_str:0000000000010c58 .LASF910
C:\Users\CYMR90~1\AppData\Local\Temp\ccxAEgth.s:20797  .debug_str:0000000000002a37 .LASF911
C:\Users\CYMR90~1\AppData\Local\Temp\ccxAEgth.s:20387  .debug_str:0000000000001185 .LASF912
C:\Users\CYMR90~1\AppData\Local\Temp\ccxAEgth.s:28420  .debug_str:00000000000212f2 .LASF913
C:\Users\CYMR90~1\AppData\Local\Temp\ccxAEgth.s:29310  .debug_str:00000000000249d9 .LASF914
C:\Users\CYMR90~1\AppData\Local\Temp\ccxAEgth.s:23247  .debug_str:000000000000c8c1 .LASF915
C:\Users\CYMR90~1\AppData\Local\Temp\ccxAEgth.s:23561  .debug_str:000000000000dc69 .LASF916
C:\Users\CYMR90~1\AppData\Local\Temp\ccxAEgth.s:24135  .debug_str:000000000001006c .LASF917
C:\Users\CYMR90~1\AppData\Local\Temp\ccxAEgth.s:30826  .debug_str:000000000002ac1d .LASF918
C:\Users\CYMR90~1\AppData\Local\Temp\ccxAEgth.s:20373  .debug_str:0000000000001091 .LASF919
C:\Users\CYMR90~1\AppData\Local\Temp\ccxAEgth.s:22855  .debug_str:000000000000aec6 .LASF920
C:\Users\CYMR90~1\AppData\Local\Temp\ccxAEgth.s:29266  .debug_str:00000000000246b6 .LASF921
C:\Users\CYMR90~1\AppData\Local\Temp\ccxAEgth.s:26678  .debug_str:000000000001a516 .LASF922
C:\Users\CYMR90~1\AppData\Local\Temp\ccxAEgth.s:29788  .debug_str:0000000000026a13 .LASF923
C:\Users\CYMR90~1\AppData\Local\Temp\ccxAEgth.s:25810  .debug_str:0000000000016d77 .LASF924
C:\Users\CYMR90~1\AppData\Local\Temp\ccxAEgth.s:20757  .debug_str:0000000000002782 .LASF925
C:\Users\CYMR90~1\AppData\Local\Temp\ccxAEgth.s:26888  .debug_str:000000000001b2f8 .LASF926
C:\Users\CYMR90~1\AppData\Local\Temp\ccxAEgth.s:20483  .debug_str:000000000000170a .LASF927
C:\Users\CYMR90~1\AppData\Local\Temp\ccxAEgth.s:25277  .debug_str:0000000000014943 .LASF928
C:\Users\CYMR90~1\AppData\Local\Temp\ccxAEgth.s:27952  .debug_str:000000000001f5e6 .LASF929
C:\Users\CYMR90~1\AppData\Local\Temp\ccxAEgth.s:31086  .debug_str:000000000002bcb1 .LASF930
C:\Users\CYMR90~1\AppData\Local\Temp\ccxAEgth.s:31304  .debug_str:000000000002cb57 .LASF931
C:\Users\CYMR90~1\AppData\Local\Temp\ccxAEgth.s:27850  .debug_str:000000000001efec .LASF932
C:\Users\CYMR90~1\AppData\Local\Temp\ccxAEgth.s:30560  .debug_str:0000000000029c6e .LASF933
C:\Users\CYMR90~1\AppData\Local\Temp\ccxAEgth.s:25611  .debug_str:0000000000015e63 .LASF934
C:\Users\CYMR90~1\AppData\Local\Temp\ccxAEgth.s:26448  .debug_str:000000000001951f .LASF935
C:\Users\CYMR90~1\AppData\Local\Temp\ccxAEgth.s:25493  .debug_str:000000000001564f .LASF936
C:\Users\CYMR90~1\AppData\Local\Temp\ccxAEgth.s:29404  .debug_str:0000000000025061 .LASF937
C:\Users\CYMR90~1\AppData\Local\Temp\ccxAEgth.s:20289  .debug_str:0000000000000ba0 .LASF938
C:\Users\CYMR90~1\AppData\Local\Temp\ccxAEgth.s:28228  .debug_str:000000000002074c .LASF939
C:\Users\CYMR90~1\AppData\Local\Temp\ccxAEgth.s:29488  .debug_str:00000000000256d1 .LASF940
C:\Users\CYMR90~1\AppData\Local\Temp\ccxAEgth.s:22991  .debug_str:000000000000b77b .LASF941
C:\Users\CYMR90~1\AppData\Local\Temp\ccxAEgth.s:26604  .debug_str:0000000000019f59 .LASF942
C:\Users\CYMR90~1\AppData\Local\Temp\ccxAEgth.s:23743  .debug_str:000000000000e763 .LASF943
C:\Users\CYMR90~1\AppData\Local\Temp\ccxAEgth.s:29614  .debug_str:0000000000025f5b .LASF944
C:\Users\CYMR90~1\AppData\Local\Temp\ccxAEgth.s:27068  .debug_str:000000000001bddf .LASF945
C:\Users\CYMR90~1\AppData\Local\Temp\ccxAEgth.s:23009  .debug_str:000000000000b8e4 .LASF946
C:\Users\CYMR90~1\AppData\Local\Temp\ccxAEgth.s:25964  .debug_str:0000000000017667 .LASF947
C:\Users\CYMR90~1\AppData\Local\Temp\ccxAEgth.s:27576  .debug_str:000000000001dfbb .LASF948
C:\Users\CYMR90~1\AppData\Local\Temp\ccxAEgth.s:24301  .debug_str:0000000000010a96 .LASF949
C:\Users\CYMR90~1\AppData\Local\Temp\ccxAEgth.s:23309  .debug_str:000000000000cc18 .LASF950
C:\Users\CYMR90~1\AppData\Local\Temp\ccxAEgth.s:21903  .debug_str:000000000000701c .LASF952
C:\Users\CYMR90~1\AppData\Local\Temp\ccxAEgth.s:25417  .debug_str:0000000000015212 .LASF953
C:\Users\CYMR90~1\AppData\Local\Temp\ccxAEgth.s:23345  .debug_str:000000000000ce94 .LASF954
C:\Users\CYMR90~1\AppData\Local\Temp\ccxAEgth.s:31296  .debug_str:000000000002cae2 .LASF955
C:\Users\CYMR90~1\AppData\Local\Temp\ccxAEgth.s:30460  .debug_str:000000000002964b .LASF956
C:\Users\CYMR90~1\AppData\Local\Temp\ccxAEgth.s:30550  .debug_str:0000000000029bd8 .LASF960
C:\Users\CYMR90~1\AppData\Local\Temp\ccxAEgth.s:22447  .debug_str:00000000000093ec .LASF961
C:\Users\CYMR90~1\AppData\Local\Temp\ccxAEgth.s:29818  .debug_str:0000000000026bd9 .LASF962
C:\Users\CYMR90~1\AppData\Local\Temp\ccxAEgth.s:24533  .debug_str:0000000000011a19 .LASF963
C:\Users\CYMR90~1\AppData\Local\Temp\ccxAEgth.s:21929  .debug_str:0000000000007203 .LASF964
C:\Users\CYMR90~1\AppData\Local\Temp\ccxAEgth.s:28602  .debug_str:0000000000021ded .LASF965
C:\Users\CYMR90~1\AppData\Local\Temp\ccxAEgth.s:26882  .debug_str:000000000001b28c .LASF966
C:\Users\CYMR90~1\AppData\Local\Temp\ccxAEgth.s:29760  .debug_str:000000000002687a .LASF967
C:\Users\CYMR90~1\AppData\Local\Temp\ccxAEgth.s:30868  .debug_str:000000000002aebe .LASF968
C:\Users\CYMR90~1\AppData\Local\Temp\ccxAEgth.s:21663  .debug_str:00000000000060c7 .LASF969
C:\Users\CYMR90~1\AppData\Local\Temp\ccxAEgth.s:25145  .debug_str:0000000000014152 .LASF970
C:\Users\CYMR90~1\AppData\Local\Temp\ccxAEgth.s:30960  .debug_str:000000000002b48e .LASF971
C:\Users\CYMR90~1\AppData\Local\Temp\ccxAEgth.s:23753  .debug_str:000000000000e82f .LASF972
C:\Users\CYMR90~1\AppData\Local\Temp\ccxAEgth.s:23723  .debug_str:000000000000e647 .LASF973
C:\Users\CYMR90~1\AppData\Local\Temp\ccxAEgth.s:23369  .debug_str:000000000000d000 .LASF974
C:\Users\CYMR90~1\AppData\Local\Temp\ccxAEgth.s:25743  .debug_str:00000000000166bb .LASF975
C:\Users\CYMR90~1\AppData\Local\Temp\ccxAEgth.s:31330  .debug_str:000000000002ccaf .LASF976
C:\Users\CYMR90~1\AppData\Local\Temp\ccxAEgth.s:23305  .debug_str:000000000000cbd3 .LASF977
C:\Users\CYMR90~1\AppData\Local\Temp\ccxAEgth.s:31358  .debug_str:000000000002cf0d .LASF978
C:\Users\CYMR90~1\AppData\Local\Temp\ccxAEgth.s:29596  .debug_str:0000000000025e22 .LASF979
C:\Users\CYMR90~1\AppData\Local\Temp\ccxAEgth.s:29656  .debug_str:0000000000026209 .LASF980
C:\Users\CYMR90~1\AppData\Local\Temp\ccxAEgth.s:23807  .debug_str:000000000000eb5d .LASF981
C:\Users\CYMR90~1\AppData\Local\Temp\ccxAEgth.s:21375  .debug_str:0000000000004fc0 .LASF982
C:\Users\CYMR90~1\AppData\Local\Temp\ccxAEgth.s:24557  .debug_str:0000000000011b90 .LASF983
C:\Users\CYMR90~1\AppData\Local\Temp\ccxAEgth.s:27286  .debug_str:000000000001ccaf .LASF984
C:\Users\CYMR90~1\AppData\Local\Temp\ccxAEgth.s:27300  .debug_str:000000000001cd9b .LASF985
C:\Users\CYMR90~1\AppData\Local\Temp\ccxAEgth.s:28890  .debug_str:0000000000022f1f .LASF986
C:\Users\CYMR90~1\AppData\Local\Temp\ccxAEgth.s:25559  .debug_str:0000000000015aa6 .LASF987
C:\Users\CYMR90~1\AppData\Local\Temp\ccxAEgth.s:20815  .debug_str:0000000000002b4a .LASF988
C:\Users\CYMR90~1\AppData\Local\Temp\ccxAEgth.s:28804  .debug_str:0000000000022a46 .LASF989
C:\Users\CYMR90~1\AppData\Local\Temp\ccxAEgth.s:26266  .debug_str:00000000000188a6 .LASF990
C:\Users\CYMR90~1\AppData\Local\Temp\ccxAEgth.s:23301  .debug_str:000000000000cbab .LASF991
C:\Users\CYMR90~1\AppData\Local\Temp\ccxAEgth.s:29762  .debug_str:00000000000268a2 .LASF992
C:\Users\CYMR90~1\AppData\Local\Temp\ccxAEgth.s:21947  .debug_str:0000000000007300 .LASF993
C:\Users\CYMR90~1\AppData\Local\Temp\ccxAEgth.s:29576  .debug_str:0000000000025cd1 .LASF994
C:\Users\CYMR90~1\AppData\Local\Temp\ccxAEgth.s:26350  .debug_str:0000000000018f59 .LASF995
C:\Users\CYMR90~1\AppData\Local\Temp\ccxAEgth.s:30368  .debug_str:000000000002907e .LASF996
C:\Users\CYMR90~1\AppData\Local\Temp\ccxAEgth.s:27490  .debug_str:000000000001d9cd .LASF997
C:\Users\CYMR90~1\AppData\Local\Temp\ccxAEgth.s:27558  .debug_str:000000000001dea1 .LASF998
C:\Users\CYMR90~1\AppData\Local\Temp\ccxAEgth.s:20715  .debug_str:0000000000002495 .LASF999
C:\Users\CYMR90~1\AppData\Local\Temp\ccxAEgth.s:21049  .debug_str:0000000000003a2d .LASF1000
C:\Users\CYMR90~1\AppData\Local\Temp\ccxAEgth.s:29240  .debug_str:000000000002452d .LASF1001
C:\Users\CYMR90~1\AppData\Local\Temp\ccxAEgth.s:24143  .debug_str:00000000000100f4 .LASF1002
C:\Users\CYMR90~1\AppData\Local\Temp\ccxAEgth.s:21327  .debug_str:0000000000004cf1 .LASF1003
C:\Users\CYMR90~1\AppData\Local\Temp\ccxAEgth.s:27108  .debug_str:000000000001c051 .LASF1004
C:\Users\CYMR90~1\AppData\Local\Temp\ccxAEgth.s:24511  .debug_str:0000000000011834 .LASF1005
C:\Users\CYMR90~1\AppData\Local\Temp\ccxAEgth.s:23263  .debug_str:000000000000c9b6 .LASF1006
C:\Users\CYMR90~1\AppData\Local\Temp\ccxAEgth.s:21637  .debug_str:0000000000005f30 .LASF1007
C:\Users\CYMR90~1\AppData\Local\Temp\ccxAEgth.s:28598  .debug_str:0000000000021db5 .LASF1008
C:\Users\CYMR90~1\AppData\Local\Temp\ccxAEgth.s:26042  .debug_str:0000000000017b36 .LASF1009
C:\Users\CYMR90~1\AppData\Local\Temp\ccxAEgth.s:26198  .debug_str:000000000001846a .LASF1010
C:\Users\CYMR90~1\AppData\Local\Temp\ccxAEgth.s:23577  .debug_str:000000000000dd5b .LASF1011
C:\Users\CYMR90~1\AppData\Local\Temp\ccxAEgth.s:27346  .debug_str:000000000001d0f3 .LASF1012
C:\Users\CYMR90~1\AppData\Local\Temp\ccxAEgth.s:23769  .debug_str:000000000000e922 .LASF1013
C:\Users\CYMR90~1\AppData\Local\Temp\ccxAEgth.s:30894  .debug_str:000000000002b029 .LASF1014
C:\Users\CYMR90~1\AppData\Local\Temp\ccxAEgth.s:21047  .debug_str:0000000000003a17 .LASF1015
C:\Users\CYMR90~1\AppData\Local\Temp\ccxAEgth.s:21529  .debug_str:000000000000589d .LASF1016
C:\Users\CYMR90~1\AppData\Local\Temp\ccxAEgth.s:21483  .debug_str:0000000000005622 .LASF1017
C:\Users\CYMR90~1\AppData\Local\Temp\ccxAEgth.s:29912  .debug_str:00000000000271ad .LASF1018
C:\Users\CYMR90~1\AppData\Local\Temp\ccxAEgth.s:23817  .debug_str:000000000000ebdf .LASF1019
C:\Users\CYMR90~1\AppData\Local\Temp\ccxAEgth.s:20709  .debug_str:000000000000244c .LASF1020
C:\Users\CYMR90~1\AppData\Local\Temp\ccxAEgth.s:26080  .debug_str:0000000000017d8d .LASF1021
C:\Users\CYMR90~1\AppData\Local\Temp\ccxAEgth.s:23123  .debug_str:000000000000c09a .LASF1022
C:\Users\CYMR90~1\AppData\Local\Temp\ccxAEgth.s:29838  .debug_str:0000000000026cf4 .LASF1023
C:\Users\CYMR90~1\AppData\Local\Temp\ccxAEgth.s:22357  .debug_str:0000000000008e57 .LASF1024
C:\Users\CYMR90~1\AppData\Local\Temp\ccxAEgth.s:24833  .debug_str:0000000000012d60 .LASF1025
C:\Users\CYMR90~1\AppData\Local\Temp\ccxAEgth.s:24329  .debug_str:0000000000010c99 .LASF1026
C:\Users\CYMR90~1\AppData\Local\Temp\ccxAEgth.s:25269  .debug_str:000000000001488f .LASF1027
C:\Users\CYMR90~1\AppData\Local\Temp\ccxAEgth.s:27426  .debug_str:000000000001d5ed .LASF1028
C:\Users\CYMR90~1\AppData\Local\Temp\ccxAEgth.s:27808  .debug_str:000000000001ed38 .LASF1029
C:\Users\CYMR90~1\AppData\Local\Temp\ccxAEgth.s:29110  .debug_str:0000000000023c46 .LASF1030
C:\Users\CYMR90~1\AppData\Local\Temp\ccxAEgth.s:28182  .debug_str:000000000002047d .LASF1031
C:\Users\CYMR90~1\AppData\Local\Temp\ccxAEgth.s:30462  .debug_str:00000000000296b3 .LASF1032
C:\Users\CYMR90~1\AppData\Local\Temp\ccxAEgth.s:22503  .debug_str:0000000000009789 .LASF1033
C:\Users\CYMR90~1\AppData\Local\Temp\ccxAEgth.s:21383  .debug_str:0000000000005042 .LASF1034
C:\Users\CYMR90~1\AppData\Local\Temp\ccxAEgth.s:26394  .debug_str:00000000000191e0 .LASF1035
C:\Users\CYMR90~1\AppData\Local\Temp\ccxAEgth.s:26658  .debug_str:000000000001a3ff .LASF1036
C:\Users\CYMR90~1\AppData\Local\Temp\ccxAEgth.s:28904  .debug_str:0000000000022fb6 .LASF1037
C:\Users\CYMR90~1\AppData\Local\Temp\ccxAEgth.s:23989  .debug_str:000000000000f77a .LASF1038
C:\Users\CYMR90~1\AppData\Local\Temp\ccxAEgth.s:27532  .debug_str:000000000001dd17 .LASF1039
C:\Users\CYMR90~1\AppData\Local\Temp\ccxAEgth.s:25431  .debug_str:000000000001530a .LASF1040
C:\Users\CYMR90~1\AppData\Local\Temp\ccxAEgth.s:23893  .debug_str:000000000000f068 .LASF1041
C:\Users\CYMR90~1\AppData\Local\Temp\ccxAEgth.s:29646  .debug_str:0000000000026170 .LASF1042
C:\Users\CYMR90~1\AppData\Local\Temp\ccxAEgth.s:24145  .debug_str:000000000001010b .LASF1043
C:\Users\CYMR90~1\AppData\Local\Temp\ccxAEgth.s:20125  .debug_str:0000000000000193 .LASF1044
C:\Users\CYMR90~1\AppData\Local\Temp\ccxAEgth.s:22369  .debug_str:0000000000008eea .LASF1045
C:\Users\CYMR90~1\AppData\Local\Temp\ccxAEgth.s:26590  .debug_str:0000000000019e8b .LASF1046
C:\Users\CYMR90~1\AppData\Local\Temp\ccxAEgth.s:25679  .debug_str:0000000000016266 .LASF1047
C:\Users\CYMR90~1\AppData\Local\Temp\ccxAEgth.s:28948  .debug_str:000000000002323b .LASF1048
C:\Users\CYMR90~1\AppData\Local\Temp\ccxAEgth.s:27774  .debug_str:000000000001eb5e .LASF1049
C:\Users\CYMR90~1\AppData\Local\Temp\ccxAEgth.s:20889  .debug_str:0000000000003003 .LASF1050
C:\Users\CYMR90~1\AppData\Local\Temp\ccxAEgth.s:27784  .debug_str:000000000001ebe9 .LASF1051
C:\Users\CYMR90~1\AppData\Local\Temp\ccxAEgth.s:27990  .debug_str:000000000001f853 .LASF1052
C:\Users\CYMR90~1\AppData\Local\Temp\ccxAEgth.s:22867  .debug_str:000000000000af9f .LASF1053
C:\Users\CYMR90~1\AppData\Local\Temp\ccxAEgth.s:28848  .debug_str:0000000000022cc0 .LASF1054
C:\Users\CYMR90~1\AppData\Local\Temp\ccxAEgth.s:24807  .debug_str:0000000000012bb0 .LASF1055
C:\Users\CYMR90~1\AppData\Local\Temp\ccxAEgth.s:23749  .debug_str:000000000000e7dd .LASF1056
C:\Users\CYMR90~1\AppData\Local\Temp\ccxAEgth.s:30084  .debug_str:0000000000027d4f .LASF1057
C:\Users\CYMR90~1\AppData\Local\Temp\ccxAEgth.s:30674  .debug_str:000000000002a2e1 .LASF1058
C:\Users\CYMR90~1\AppData\Local\Temp\ccxAEgth.s:29402  .debug_str:000000000002503f .LASF1059
C:\Users\CYMR90~1\AppData\Local\Temp\ccxAEgth.s:20571  .debug_str:0000000000001c69 .LASF1060
C:\Users\CYMR90~1\AppData\Local\Temp\ccxAEgth.s:22175  .debug_str:00000000000082c3 .LASF1061
C:\Users\CYMR90~1\AppData\Local\Temp\ccxAEgth.s:20255  .debug_str:0000000000000930 .LASF1062
C:\Users\CYMR90~1\AppData\Local\Temp\ccxAEgth.s:25183  .debug_str:0000000000014354 .LASF1063
C:\Users\CYMR90~1\AppData\Local\Temp\ccxAEgth.s:21095  .debug_str:0000000000003d06 .LASF1064
C:\Users\CYMR90~1\AppData\Local\Temp\ccxAEgth.s:20195  .debug_str:000000000000059d .LASF1065
C:\Users\CYMR90~1\AppData\Local\Temp\ccxAEgth.s:31364  .debug_str:000000000002cf56 .LASF1066
C:\Users\CYMR90~1\AppData\Local\Temp\ccxAEgth.s:29242  .debug_str:0000000000024545 .LASF1067
C:\Users\CYMR90~1\AppData\Local\Temp\ccxAEgth.s:25741  .debug_str:00000000000166a1 .LASF1068
C:\Users\CYMR90~1\AppData\Local\Temp\ccxAEgth.s:27318  .debug_str:000000000001cf2c .LASF1069
C:\Users\CYMR90~1\AppData\Local\Temp\ccxAEgth.s:20307  .debug_str:0000000000000c92 .LASF1070
C:\Users\CYMR90~1\AppData\Local\Temp\ccxAEgth.s:22633  .debug_str:0000000000009f9a .LASF1071
C:\Users\CYMR90~1\AppData\Local\Temp\ccxAEgth.s:28754  .debug_str:000000000002270b .LASF1072
C:\Users\CYMR90~1\AppData\Local\Temp\ccxAEgth.s:27282  .debug_str:000000000001cc6d .LASF1073
C:\Users\CYMR90~1\AppData\Local\Temp\ccxAEgth.s:30332  .debug_str:0000000000028e10 .LASF1074
C:\Users\CYMR90~1\AppData\Local\Temp\ccxAEgth.s:25892  .debug_str:00000000000171fd .LASF1075
C:\Users\CYMR90~1\AppData\Local\Temp\ccxAEgth.s:20751  .debug_str:0000000000002732 .LASF1076
C:\Users\CYMR90~1\AppData\Local\Temp\ccxAEgth.s:30760  .debug_str:000000000002a881 .LASF1077
C:\Users\CYMR90~1\AppData\Local\Temp\ccxAEgth.s:21699  .debug_str:0000000000006300 .LASF1078
C:\Users\CYMR90~1\AppData\Local\Temp\ccxAEgth.s:28226  .debug_str:000000000002073a .LASF1079
C:\Users\CYMR90~1\AppData\Local\Temp\ccxAEgth.s:23589  .debug_str:000000000000de0f .LASF1080
C:\Users\CYMR90~1\AppData\Local\Temp\ccxAEgth.s:27088  .debug_str:000000000001bf22 .LASF1081
C:\Users\CYMR90~1\AppData\Local\Temp\ccxAEgth.s:29942  .debug_str:0000000000027434 .LASF1082
C:\Users\CYMR90~1\AppData\Local\Temp\ccxAEgth.s:25375  .debug_str:0000000000014fc7 .LASF1083
C:\Users\CYMR90~1\AppData\Local\Temp\ccxAEgth.s:28442  .debug_str:0000000000021458 .LASF1084
C:\Users\CYMR90~1\AppData\Local\Temp\ccxAEgth.s:21405  .debug_str:0000000000005193 .LASF1085
C:\Users\CYMR90~1\AppData\Local\Temp\ccxAEgth.s:20519  .debug_str:0000000000001937 .LASF1086
C:\Users\CYMR90~1\AppData\Local\Temp\ccxAEgth.s:23623  .debug_str:000000000000dff4 .LASF1087
C:\Users\CYMR90~1\AppData\Local\Temp\ccxAEgth.s:29654  .debug_str:00000000000261fa .LASF1088
C:\Users\CYMR90~1\AppData\Local\Temp\ccxAEgth.s:28748  .debug_str:00000000000226b3 .LASF1089
C:\Users\CYMR90~1\AppData\Local\Temp\ccxAEgth.s:20365  .debug_str:000000000000101b .LASF1090
C:\Users\CYMR90~1\AppData\Local\Temp\ccxAEgth.s:31292  .debug_str:000000000002ca8a .LASF1091
C:\Users\CYMR90~1\AppData\Local\Temp\ccxAEgth.s:30046  .debug_str:0000000000027aae .LASF1092
C:\Users\CYMR90~1\AppData\Local\Temp\ccxAEgth.s:23967  .debug_str:000000000000f575 .LASF1093
C:\Users\CYMR90~1\AppData\Local\Temp\ccxAEgth.s:29700  .debug_str:0000000000026492 .LASF1094
C:\Users\CYMR90~1\AppData\Local\Temp\ccxAEgth.s:25447  .debug_str:00000000000153b5 .LASF1095
C:\Users\CYMR90~1\AppData\Local\Temp\ccxAEgth.s:26904  .debug_str:000000000001b3de .LASF1096
C:\Users\CYMR90~1\AppData\Local\Temp\ccxAEgth.s:27430  .debug_str:000000000001d63f .LASF1097
C:\Users\CYMR90~1\AppData\Local\Temp\ccxAEgth.s:21687  .debug_str:000000000000625b .LASF1098
C:\Users\CYMR90~1\AppData\Local\Temp\ccxAEgth.s:24827  .debug_str:0000000000012ce7 .LASF1099
C:\Users\CYMR90~1\AppData\Local\Temp\ccxAEgth.s:24139  .debug_str:00000000000100c3 .LASF1100
C:\Users\CYMR90~1\AppData\Local\Temp\ccxAEgth.s:29026  .debug_str:000000000002376d .LASF1101
C:\Users\CYMR90~1\AppData\Local\Temp\ccxAEgth.s:23315  .debug_str:000000000000cc72 .LASF1102
C:\Users\CYMR90~1\AppData\Local\Temp\ccxAEgth.s:28692  .debug_str:0000000000022317 .LASF1103
C:\Users\CYMR90~1\AppData\Local\Temp\ccxAEgth.s:30276  .debug_str:0000000000028afb .LASF1104
C:\Users\CYMR90~1\AppData\Local\Temp\ccxAEgth.s:28114  .debug_str:000000000001ffd7 .LASF1105
C:\Users\CYMR90~1\AppData\Local\Temp\ccxAEgth.s:25009  .debug_str:00000000000138ef .LASF1106
C:\Users\CYMR90~1\AppData\Local\Temp\ccxAEgth.s:28944  .debug_str:0000000000023205 .LASF1107
C:\Users\CYMR90~1\AppData\Local\Temp\ccxAEgth.s:26824  .debug_str:000000000001aeda .LASF1108
C:\Users\CYMR90~1\AppData\Local\Temp\ccxAEgth.s:21703  .debug_str:000000000000633c .LASF1109
C:\Users\CYMR90~1\AppData\Local\Temp\ccxAEgth.s:22663  .debug_str:000000000000a173 .LASF1110
C:\Users\CYMR90~1\AppData\Local\Temp\ccxAEgth.s:20583  .debug_str:0000000000001d2c .LASF1111
C:\Users\CYMR90~1\AppData\Local\Temp\ccxAEgth.s:21785  .debug_str:0000000000006868 .LASF1112
C:\Users\CYMR90~1\AppData\Local\Temp\ccxAEgth.s:22891  .debug_str:000000000000b104 .LASF1113
C:\Users\CYMR90~1\AppData\Local\Temp\ccxAEgth.s:21451  .debug_str:000000000000545a .LASF1114
C:\Users\CYMR90~1\AppData\Local\Temp\ccxAEgth.s:22451  .debug_str:0000000000009413 .LASF1115
C:\Users\CYMR90~1\AppData\Local\Temp\ccxAEgth.s:30124  .debug_str:000000000002800a .LASF1116
C:\Users\CYMR90~1\AppData\Local\Temp\ccxAEgth.s:30624  .debug_str:000000000002a003 .LASF1117
C:\Users\CYMR90~1\AppData\Local\Temp\ccxAEgth.s:21607  .debug_str:0000000000005d54 .LASF1118
C:\Users\CYMR90~1\AppData\Local\Temp\ccxAEgth.s:26058  .debug_str:0000000000017c32 .LASF1119
C:\Users\CYMR90~1\AppData\Local\Temp\ccxAEgth.s:22145  .debug_str:00000000000080d8 .LASF1120
C:\Users\CYMR90~1\AppData\Local\Temp\ccxAEgth.s:22351  .debug_str:0000000000008df6 .LASF1121
C:\Users\CYMR90~1\AppData\Local\Temp\ccxAEgth.s:24943  .debug_str:00000000000134f5 .LASF1122
C:\Users\CYMR90~1\AppData\Local\Temp\ccxAEgth.s:24583  .debug_str:0000000000011d1b .LASF1123
C:\Users\CYMR90~1\AppData\Local\Temp\ccxAEgth.s:28200  .debug_str:000000000002058b .LASF1124
C:\Users\CYMR90~1\AppData\Local\Temp\ccxAEgth.s:25379  .debug_str:0000000000014ff0 .LASF1125
C:\Users\CYMR90~1\AppData\Local\Temp\ccxAEgth.s:25467  .debug_str:00000000000154ee .LASF1126
C:\Users\CYMR90~1\AppData\Local\Temp\ccxAEgth.s:28838  .debug_str:0000000000022c22 .LASF1127
C:\Users\CYMR90~1\AppData\Local\Temp\ccxAEgth.s:29940  .debug_str:000000000002741f .LASF1128
C:\Users\CYMR90~1\AppData\Local\Temp\ccxAEgth.s:21495  .debug_str:00000000000056da .LASF1129
C:\Users\CYMR90~1\AppData\Local\Temp\ccxAEgth.s:25465  .debug_str:00000000000154d9 .LASF1130
C:\Users\CYMR90~1\AppData\Local\Temp\ccxAEgth.s:30458  .debug_str:0000000000029636 .LASF1131
C:\Users\CYMR90~1\AppData\Local\Temp\ccxAEgth.s:30858  .debug_str:000000000002ae3a .LASF1132
C:\Users\CYMR90~1\AppData\Local\Temp\ccxAEgth.s:26168  .debug_str:000000000001829d .LASF1133
C:\Users\CYMR90~1\AppData\Local\Temp\ccxAEgth.s:28998  .debug_str:000000000002357b .LASF1134
C:\Users\CYMR90~1\AppData\Local\Temp\ccxAEgth.s:22033  .debug_str:000000000000789d .LASF1135
C:\Users\CYMR90~1\AppData\Local\Temp\ccxAEgth.s:21271  .debug_str:0000000000004973 .LASF1136
C:\Users\CYMR90~1\AppData\Local\Temp\ccxAEgth.s:21099  .debug_str:0000000000003d28 .LASF1137
C:\Users\CYMR90~1\AppData\Local\Temp\ccxAEgth.s:30468  .debug_str:0000000000029712 .LASF1138
C:\Users\CYMR90~1\AppData\Local\Temp\ccxAEgth.s:27562  .debug_str:000000000001deda .LASF1139
C:\Users\CYMR90~1\AppData\Local\Temp\ccxAEgth.s:30454  .debug_str:0000000000029609 .LASF1140
C:\Users\CYMR90~1\AppData\Local\Temp\ccxAEgth.s:20169  .debug_str:000000000000043f .LASF1141
C:\Users\CYMR90~1\AppData\Local\Temp\ccxAEgth.s:24615  .debug_str:0000000000011f35 .LASF1142
C:\Users\CYMR90~1\AppData\Local\Temp\ccxAEgth.s:23629  .debug_str:000000000000e067 .LASF1143
C:\Users\CYMR90~1\AppData\Local\Temp\ccxAEgth.s:29994  .debug_str:0000000000027713 .LASF1144
C:\Users\CYMR90~1\AppData\Local\Temp\ccxAEgth.s:28160  .debug_str:00000000000202b5 .LASF1145
C:\Users\CYMR90~1\AppData\Local\Temp\ccxAEgth.s:23155  .debug_str:000000000000c274 .LASF1146
C:\Users\CYMR90~1\AppData\Local\Temp\ccxAEgth.s:31288  .debug_str:000000000002ca48 .LASF1147
C:\Users\CYMR90~1\AppData\Local\Temp\ccxAEgth.s:25918  .debug_str:000000000001737b .LASF1148
C:\Users\CYMR90~1\AppData\Local\Temp\ccxAEgth.s:26176  .debug_str:000000000001834a .LASF1149
C:\Users\CYMR90~1\AppData\Local\Temp\ccxAEgth.s:26922  .debug_str:000000000001b4ea .LASF1150
C:\Users\CYMR90~1\AppData\Local\Temp\ccxAEgth.s:20585  .debug_str:0000000000001d4a .LASF1151
C:\Users\CYMR90~1\AppData\Local\Temp\ccxAEgth.s:27336  .debug_str:000000000001d05e .LASF1152
C:\Users\CYMR90~1\AppData\Local\Temp\ccxAEgth.s:22477  .debug_str:000000000000957c .LASF1153
C:\Users\CYMR90~1\AppData\Local\Temp\ccxAEgth.s:28456  .debug_str:000000000002150a .LASF1154
C:\Users\CYMR90~1\AppData\Local\Temp\ccxAEgth.s:27692  .debug_str:000000000001e6d3 .LASF1155
C:\Users\CYMR90~1\AppData\Local\Temp\ccxAEgth.s:21387  .debug_str:000000000000506e .LASF1156
C:\Users\CYMR90~1\AppData\Local\Temp\ccxAEgth.s:27526  .debug_str:000000000001dc9c .LASF1157
C:\Users\CYMR90~1\AppData\Local\Temp\ccxAEgth.s:22909  .debug_str:000000000000b1f4 .LASF1158
C:\Users\CYMR90~1\AppData\Local\Temp\ccxAEgth.s:30642  .debug_str:000000000002a148 .LASF1159
C:\Users\CYMR90~1\AppData\Local\Temp\ccxAEgth.s:20469  .debug_str:000000000000163e .LASF1160
C:\Users\CYMR90~1\AppData\Local\Temp\ccxAEgth.s:30722  .debug_str:000000000002a61f .LASF1161
C:\Users\CYMR90~1\AppData\Local\Temp\ccxAEgth.s:30408  .debug_str:00000000000292d2 .LASF1162
C:\Users\CYMR90~1\AppData\Local\Temp\ccxAEgth.s:27416  .debug_str:000000000001d568 .LASF1163
C:\Users\CYMR90~1\AppData\Local\Temp\ccxAEgth.s:26556  .debug_str:0000000000019c80 .LASF1164
C:\Users\CYMR90~1\AppData\Local\Temp\ccxAEgth.s:23449  .debug_str:000000000000d5c3 .LASF1165
C:\Users\CYMR90~1\AppData\Local\Temp\ccxAEgth.s:28084  .debug_str:000000000001fe38 .LASF1166
C:\Users\CYMR90~1\AppData\Local\Temp\ccxAEgth.s:24337  .debug_str:0000000000010d02 .LASF1167
C:\Users\CYMR90~1\AppData\Local\Temp\ccxAEgth.s:22475  .debug_str:0000000000009572 .LASF1168
C:\Users\CYMR90~1\AppData\Local\Temp\ccxAEgth.s:25409  .debug_str:00000000000151b3 .LASF1169
C:\Users\CYMR90~1\AppData\Local\Temp\ccxAEgth.s:26764  .debug_str:000000000001aae2 .LASF1170
C:\Users\CYMR90~1\AppData\Local\Temp\ccxAEgth.s:26470  .debug_str:00000000000196db .LASF1171
C:\Users\CYMR90~1\AppData\Local\Temp\ccxAEgth.s:20219  .debug_str:000000000000071b .LASF1172
C:\Users\CYMR90~1\AppData\Local\Temp\ccxAEgth.s:25689  .debug_str:00000000000162ef .LASF1173
C:\Users\CYMR90~1\AppData\Local\Temp\ccxAEgth.s:20287  .debug_str:0000000000000b92 .LASF1174
C:\Users\CYMR90~1\AppData\Local\Temp\ccxAEgth.s:20689  .debug_str:0000000000002303 .LASF1175
C:\Users\CYMR90~1\AppData\Local\Temp\ccxAEgth.s:24913  .debug_str:0000000000013330 .LASF1176
C:\Users\CYMR90~1\AppData\Local\Temp\ccxAEgth.s:23259  .debug_str:000000000000c986 .LASF1177
C:\Users\CYMR90~1\AppData\Local\Temp\ccxAEgth.s:27476  .debug_str:000000000001d926 .LASF1178
C:\Users\CYMR90~1\AppData\Local\Temp\ccxAEgth.s:23861  .debug_str:000000000000ee52 .LASF1179
C:\Users\CYMR90~1\AppData\Local\Temp\ccxAEgth.s:23437  .debug_str:000000000000d531 .LASF1180
C:\Users\CYMR90~1\AppData\Local\Temp\ccxAEgth.s:29204  .debug_str:00000000000242fd .LASF1181
C:\Users\CYMR90~1\AppData\Local\Temp\ccxAEgth.s:22289  .debug_str:00000000000089f2 .LASF1182
C:\Users\CYMR90~1\AppData\Local\Temp\ccxAEgth.s:20853  .debug_str:0000000000002d99 .LASF1183
C:\Users\CYMR90~1\AppData\Local\Temp\ccxAEgth.s:27796  .debug_str:000000000001ec6d .LASF1184
C:\Users\CYMR90~1\AppData\Local\Temp\ccxAEgth.s:28256  .debug_str:00000000000208de .LASF1185
C:\Users\CYMR90~1\AppData\Local\Temp\ccxAEgth.s:29442  .debug_str:0000000000025360 .LASF1186
C:\Users\CYMR90~1\AppData\Local\Temp\ccxAEgth.s:23367  .debug_str:000000000000cfec .LASF1187
C:\Users\CYMR90~1\AppData\Local\Temp\ccxAEgth.s:21505  .debug_str:0000000000005736 .LASF1188
C:\Users\CYMR90~1\AppData\Local\Temp\ccxAEgth.s:28802  .debug_str:0000000000022a32 .LASF1189
C:\Users\CYMR90~1\AppData\Local\Temp\ccxAEgth.s:22037  .debug_str:00000000000078ce .LASF1190
C:\Users\CYMR90~1\AppData\Local\Temp\ccxAEgth.s:28782  .debug_str:000000000002289e .LASF1191
C:\Users\CYMR90~1\AppData\Local\Temp\ccxAEgth.s:23233  .debug_str:000000000000c7dd .LASF1192
C:\Users\CYMR90~1\AppData\Local\Temp\ccxAEgth.s:28444  .debug_str:000000000002146a .LASF1193
C:\Users\CYMR90~1\AppData\Local\Temp\ccxAEgth.s:23481  .debug_str:000000000000d789 .LASF1194
C:\Users\CYMR90~1\AppData\Local\Temp\ccxAEgth.s:27016  .debug_str:000000000001ba4b .LASF1195
C:\Users\CYMR90~1\AppData\Local\Temp\ccxAEgth.s:25061  .debug_str:0000000000013c07 .LASF1196
C:\Users\CYMR90~1\AppData\Local\Temp\ccxAEgth.s:28478  .debug_str:0000000000021687 .LASF1197
C:\Users\CYMR90~1\AppData\Local\Temp\ccxAEgth.s:30666  .debug_str:000000000002a2a1 .LASF1198
C:\Users\CYMR90~1\AppData\Local\Temp\ccxAEgth.s:25711  .debug_str:00000000000164c4 .LASF1199
C:\Users\CYMR90~1\AppData\Local\Temp\ccxAEgth.s:30672  .debug_str:000000000002a2d6 .LASF1200
C:\Users\CYMR90~1\AppData\Local\Temp\ccxAEgth.s:22729  .debug_str:000000000000a553 .LASF1201
C:\Users\CYMR90~1\AppData\Local\Temp\ccxAEgth.s:22385  .debug_str:0000000000008ffa .LASF1202
C:\Users\CYMR90~1\AppData\Local\Temp\ccxAEgth.s:25906  .debug_str:00000000000172da .LASF1203
C:\Users\CYMR90~1\AppData\Local\Temp\ccxAEgth.s:29774  .debug_str:000000000002694b .LASF1204
C:\Users\CYMR90~1\AppData\Local\Temp\ccxAEgth.s:24969  .debug_str:00000000000136b5 .LASF1205
C:\Users\CYMR90~1\AppData\Local\Temp\ccxAEgth.s:24033  .debug_str:000000000000f9f0 .LASF1206
C:\Users\CYMR90~1\AppData\Local\Temp\ccxAEgth.s:30638  .debug_str:000000000002a116 .LASF1207
C:\Users\CYMR90~1\AppData\Local\Temp\ccxAEgth.s:29292  .debug_str:00000000000248c4 .LASF1208
C:\Users\CYMR90~1\AppData\Local\Temp\ccxAEgth.s:23959  .debug_str:000000000000f518 .LASF1209
C:\Users\CYMR90~1\AppData\Local\Temp\ccxAEgth.s:21399  .debug_str:000000000000512b .LASF1210
C:\Users\CYMR90~1\AppData\Local\Temp\ccxAEgth.s:21497  .debug_str:00000000000056f0 .LASF1211
C:\Users\CYMR90~1\AppData\Local\Temp\ccxAEgth.s:22179  .debug_str:0000000000008307 .LASF1212
C:\Users\CYMR90~1\AppData\Local\Temp\ccxAEgth.s:21779  .debug_str:00000000000067e8 .LASF1213
C:\Users\CYMR90~1\AppData\Local\Temp\ccxAEgth.s:20699  .debug_str:00000000000023bf .LASF1214
C:\Users\CYMR90~1\AppData\Local\Temp\ccxAEgth.s:22519  .debug_str:00000000000098a3 .LASF1215
C:\Users\CYMR90~1\AppData\Local\Temp\ccxAEgth.s:31258  .debug_str:000000000002c843 .LASF1216
C:\Users\CYMR90~1\AppData\Local\Temp\ccxAEgth.s:28900  .debug_str:0000000000022f89 .LASF1217
C:\Users\CYMR90~1\AppData\Local\Temp\ccxAEgth.s:28914  .debug_str:000000000002303d .LASF1218
C:\Users\CYMR90~1\AppData\Local\Temp\ccxAEgth.s:29348  .debug_str:0000000000024c66 .LASF1219
C:\Users\CYMR90~1\AppData\Local\Temp\ccxAEgth.s:26908  .debug_str:000000000001b412 .LASF1220
C:\Users\CYMR90~1\AppData\Local\Temp\ccxAEgth.s:23521  .debug_str:000000000000d9d2 .LASF1221
C:\Users\CYMR90~1\AppData\Local\Temp\ccxAEgth.s:25233  .debug_str:000000000001469b .LASF1222
C:\Users\CYMR90~1\AppData\Local\Temp\ccxAEgth.s:20871  .debug_str:0000000000002ebc .LASF1223
C:\Users\CYMR90~1\AppData\Local\Temp\ccxAEgth.s:26652  .debug_str:000000000001a3c9 .LASF1224
C:\Users\CYMR90~1\AppData\Local\Temp\ccxAEgth.s:29956  .debug_str:000000000002750c .LASF1225
C:\Users\CYMR90~1\AppData\Local\Temp\ccxAEgth.s:22997  .debug_str:000000000000b7d6 .LASF1226
C:\Users\CYMR90~1\AppData\Local\Temp\ccxAEgth.s:21919  .debug_str:0000000000007159 .LASF1227
C:\Users\CYMR90~1\AppData\Local\Temp\ccxAEgth.s:20971  .debug_str:0000000000003531 .LASF1228
C:\Users\CYMR90~1\AppData\Local\Temp\ccxAEgth.s:31348  .debug_str:000000000002ce72 .LASF1229
C:\Users\CYMR90~1\AppData\Local\Temp\ccxAEgth.s:30390  .debug_str:00000000000291c2 .LASF1230
C:\Users\CYMR90~1\AppData\Local\Temp\ccxAEgth.s:29410  .debug_str:00000000000250b6 .LASF1231
C:\Users\CYMR90~1\AppData\Local\Temp\ccxAEgth.s:28432  .debug_str:00000000000213c0 .LASF1232
C:\Users\CYMR90~1\AppData\Local\Temp\ccxAEgth.s:28316  .debug_str:0000000000020c8d .LASF1233
C:\Users\CYMR90~1\AppData\Local\Temp\ccxAEgth.s:27354  .debug_str:000000000001d156 .LASF1234
C:\Users\CYMR90~1\AppData\Local\Temp\ccxAEgth.s:26424  .debug_str:00000000000193c9 .LASF1235
C:\Users\CYMR90~1\AppData\Local\Temp\ccxAEgth.s:25129  .debug_str:000000000001405f .LASF1236
C:\Users\CYMR90~1\AppData\Local\Temp\ccxAEgth.s:24501  .debug_str:00000000000117b4 .LASF1237
C:\Users\CYMR90~1\AppData\Local\Temp\ccxAEgth.s:25802  .debug_str:0000000000016cf2 .LASF1238
C:\Users\CYMR90~1\AppData\Local\Temp\ccxAEgth.s:22593  .debug_str:0000000000009cf9 .LASF1239
C:\Users\CYMR90~1\AppData\Local\Temp\ccxAEgth.s:21603  .debug_str:0000000000005d13 .LASF1240
C:\Users\CYMR90~1\AppData\Local\Temp\ccxAEgth.s:20657  .debug_str:0000000000002126 .LASF1241
C:\Users\CYMR90~1\AppData\Local\Temp\ccxAEgth.s:31058  .debug_str:000000000002bb0d .LASF1242
C:\Users\CYMR90~1\AppData\Local\Temp\ccxAEgth.s:20183  .debug_str:00000000000004f3 .LASF1243
C:\Users\CYMR90~1\AppData\Local\Temp\ccxAEgth.s:30534  .debug_str:0000000000029aed .LASF1244
C:\Users\CYMR90~1\AppData\Local\Temp\ccxAEgth.s:29556  .debug_str:0000000000025bad .LASF1245
C:\Users\CYMR90~1\AppData\Local\Temp\ccxAEgth.s:28588  .debug_str:0000000000021d20 .LASF1246
C:\Users\CYMR90~1\AppData\Local\Temp\ccxAEgth.s:27600  .debug_str:000000000001e103 .LASF1247
C:\Users\CYMR90~1\AppData\Local\Temp\ccxAEgth.s:26708  .debug_str:000000000001a769 .LASF1248
C:\Users\CYMR90~1\AppData\Local\Temp\ccxAEgth.s:25755  .debug_str:00000000000167c2 .LASF1249
C:\Users\CYMR90~1\AppData\Local\Temp\ccxAEgth.s:25922  .debug_str:00000000000173dc .LASF1250
C:\Users\CYMR90~1\AppData\Local\Temp\ccxAEgth.s:23867  .debug_str:000000000000eea0 .LASF1251
C:\Users\CYMR90~1\AppData\Local\Temp\ccxAEgth.s:26020  .debug_str:0000000000017a0f .LASF1252
C:\Users\CYMR90~1\AppData\Local\Temp\ccxAEgth.s:23377  .debug_str:000000000000d09c .LASF1253
C:\Users\CYMR90~1\AppData\Local\Temp\ccxAEgth.s:22399  .debug_str:00000000000090c9 .LASF1254
C:\Users\CYMR90~1\AppData\Local\Temp\ccxAEgth.s:20429  .debug_str:00000000000013e0 .LASF1255
C:\Users\CYMR90~1\AppData\Local\Temp\ccxAEgth.s:23293  .debug_str:000000000000cb55 .LASF1256
C:\Users\CYMR90~1\AppData\Local\Temp\ccxAEgth.s:21559  .debug_str:0000000000005abc .LASF1257
C:\Users\CYMR90~1\AppData\Local\Temp\ccxAEgth.s:26294  .debug_str:0000000000018b25 .LASF1258
C:\Users\CYMR90~1\AppData\Local\Temp\ccxAEgth.s:26296  .debug_str:0000000000018b38 .LASF1259
C:\Users\CYMR90~1\AppData\Local\Temp\ccxAEgth.s:28786  .debug_str:00000000000228ce .LASF1260
C:\Users\CYMR90~1\AppData\Local\Temp\ccxAEgth.s:26902  .debug_str:000000000001b3cb .LASF1261
C:\Users\CYMR90~1\AppData\Local\Temp\ccxAEgth.s:24307  .debug_str:0000000000010b9a .LASF1262
C:\Users\CYMR90~1\AppData\Local\Temp\ccxAEgth.s:21455  .debug_str:000000000000549d .LASF1263
C:\Users\CYMR90~1\AppData\Local\Temp\ccxAEgth.s:23605  .debug_str:000000000000dee6 .LASF1264
C:\Users\CYMR90~1\AppData\Local\Temp\ccxAEgth.s:25779  .debug_str:00000000000169e9 .LASF1265
C:\Users\CYMR90~1\AppData\Local\Temp\ccxAEgth.s:23655  .debug_str:000000000000e1e8 .LASF1266
C:\Users\CYMR90~1\AppData\Local\Temp\ccxAEgth.s:28814  .debug_str:0000000000022adf .LASF1267
C:\Users\CYMR90~1\AppData\Local\Temp\ccxAEgth.s:28992  .debug_str:0000000000023531 .LASF1268
C:\Users\CYMR90~1\AppData\Local\Temp\ccxAEgth.s:24437  .debug_str:00000000000112e0 .LASF1269
C:\Users\CYMR90~1\AppData\Local\Temp\ccxAEgth.s:31110  .debug_str:000000000002be48 .LASF1270
C:\Users\CYMR90~1\AppData\Local\Temp\ccxAEgth.s:26022  .debug_str:0000000000017a26 .LASF1271
C:\Users\CYMR90~1\AppData\Local\Temp\ccxAEgth.s:30496  .debug_str:00000000000298bb .LASF1272
C:\Users\CYMR90~1\AppData\Local\Temp\ccxAEgth.s:27478  .debug_str:000000000001d933 .LASF1273
C:\Users\CYMR90~1\AppData\Local\Temp\ccxAEgth.s:20245  .debug_str:00000000000008a2 .LASF1274
C:\Users\CYMR90~1\AppData\Local\Temp\ccxAEgth.s:26304  .debug_str:0000000000018bbb .LASF1275
C:\Users\CYMR90~1\AppData\Local\Temp\ccxAEgth.s:20355  .debug_str:0000000000000f97 .LASF1276
C:\Users\CYMR90~1\AppData\Local\Temp\ccxAEgth.s:22615  .debug_str:0000000000009e76 .LASF1277
C:\Users\CYMR90~1\AppData\Local\Temp\ccxAEgth.s:21621  .debug_str:0000000000005e2e .LASF1278
C:\Users\CYMR90~1\AppData\Local\Temp\ccxAEgth.s:20687  .debug_str:00000000000022f1 .LASF1279
C:\Users\CYMR90~1\AppData\Local\Temp\ccxAEgth.s:31078  .debug_str:000000000002bc2a .LASF1280
C:\Users\CYMR90~1\AppData\Local\Temp\ccxAEgth.s:21517  .debug_str:0000000000005801 .LASF1281
C:\Users\CYMR90~1\AppData\Local\Temp\ccxAEgth.s:20573  .debug_str:0000000000001c86 .LASF1282
C:\Users\CYMR90~1\AppData\Local\Temp\ccxAEgth.s:27642  .debug_str:000000000001e39b .LASF1283
C:\Users\CYMR90~1\AppData\Local\Temp\ccxAEgth.s:20315  .debug_str:0000000000000d02 .LASF1284
C:\Users\CYMR90~1\AppData\Local\Temp\ccxAEgth.s:29016  .debug_str:00000000000236e7 .LASF1285
C:\Users\CYMR90~1\AppData\Local\Temp\ccxAEgth.s:28034  .debug_str:000000000001faf7 .LASF1286
C:\Users\CYMR90~1\AppData\Local\Temp\ccxAEgth.s:27082  .debug_str:000000000001bea3 .LASF1287
C:\Users\CYMR90~1\AppData\Local\Temp\ccxAEgth.s:26128  .debug_str:000000000001805b .LASF1288
C:\Users\CYMR90~1\AppData\Local\Temp\ccxAEgth.s:25171  .debug_str:00000000000142c6 .LASF1289
C:\Users\CYMR90~1\AppData\Local\Temp\ccxAEgth.s:24231  .debug_str:0000000000010626 .LASF1290
C:\Users\CYMR90~1\AppData\Local\Temp\ccxAEgth.s:28536  .debug_str:0000000000021a0b .LASF1291
C:\Users\CYMR90~1\AppData\Local\Temp\ccxAEgth.s:27550  .debug_str:000000000001de30 .LASF1292
C:\Users\CYMR90~1\AppData\Local\Temp\ccxAEgth.s:26650  .debug_str:000000000001a3b5 .LASF1293
C:\Users\CYMR90~1\AppData\Local\Temp\ccxAEgth.s:25643  .debug_str:000000000001605c .LASF1294
C:\Users\CYMR90~1\AppData\Local\Temp\ccxAEgth.s:24723  .debug_str:0000000000012632 .LASF1295
C:\Users\CYMR90~1\AppData\Local\Temp\ccxAEgth.s:23761  .debug_str:000000000000e8ba .LASF1296
C:\Users\CYMR90~1\AppData\Local\Temp\ccxAEgth.s:23135  .debug_str:000000000000c158 .LASF1297
C:\Users\CYMR90~1\AppData\Local\Temp\ccxAEgth.s:28000  .debug_str:000000000001f8de .LASF1298
C:\Users\CYMR90~1\AppData\Local\Temp\ccxAEgth.s:27054  .debug_str:000000000001bce9 .LASF1299
C:\Users\CYMR90~1\AppData\Local\Temp\ccxAEgth.s:26096  .debug_str:0000000000017e57 .LASF1300
C:\Users\CYMR90~1\AppData\Local\Temp\ccxAEgth.s:27028  .debug_str:000000000001bb1f .LASF1301
C:\Users\CYMR90~1\AppData\Local\Temp\ccxAEgth.s:28252  .debug_str:00000000000208bb .LASF1302
C:\Users\CYMR90~1\AppData\Local\Temp\ccxAEgth.s:25687  .debug_str:00000000000162dc .LASF1303
C:\Users\CYMR90~1\AppData\Local\Temp\ccxAEgth.s:26566  .debug_str:0000000000019d24 .LASF1304
C:\Users\CYMR90~1\AppData\Local\Temp\ccxAEgth.s:26538  .debug_str:0000000000019b92 .LASF1305
C:\Users\CYMR90~1\AppData\Local\Temp\ccxAEgth.s:22293  .debug_str:0000000000008a26 .LASF1306
C:\Users\CYMR90~1\AppData\Local\Temp\ccxAEgth.s:21301  .debug_str:0000000000004b60 .LASF1307
C:\Users\CYMR90~1\AppData\Local\Temp\ccxAEgth.s:20367  .debug_str:000000000000102d .LASF1308
C:\Users\CYMR90~1\AppData\Local\Temp\ccxAEgth.s:30738  .debug_str:000000000002a71e .LASF1309
C:\Users\CYMR90~1\AppData\Local\Temp\ccxAEgth.s:29770  .debug_str:0000000000026910 .LASF1310
C:\Users\CYMR90~1\AppData\Local\Temp\ccxAEgth.s:28790  .debug_str:00000000000228fc .LASF1311
C:\Users\CYMR90~1\AppData\Local\Temp\ccxAEgth.s:25039  .debug_str:0000000000013ad1 .LASF1312
C:\Users\CYMR90~1\AppData\Local\Temp\ccxAEgth.s:23617  .debug_str:000000000000df9f .LASF1313
C:\Users\CYMR90~1\AppData\Local\Temp\ccxAEgth.s:24887  .debug_str:00000000000130dc .LASF1314
C:\Users\CYMR90~1\AppData\Local\Temp\ccxAEgth.s:30958  .debug_str:000000000002b476 .LASF1315
C:\Users\CYMR90~1\AppData\Local\Temp\ccxAEgth.s:29482  .debug_str:000000000002566a .LASF1316
C:\Users\CYMR90~1\AppData\Local\Temp\ccxAEgth.s:29008  .debug_str:000000000002364b .LASF1317
C:\Users\CYMR90~1\AppData\Local\Temp\ccxAEgth.s:28026  .debug_str:000000000001fa8a .LASF1318
C:\Users\CYMR90~1\AppData\Local\Temp\ccxAEgth.s:27092  .debug_str:000000000001bf4d .LASF1319
C:\Users\CYMR90~1\AppData\Local\Temp\ccxAEgth.s:26140  .debug_str:0000000000018111 .LASF1320
C:\Users\CYMR90~1\AppData\Local\Temp\ccxAEgth.s:25181  .debug_str:000000000001433c .LASF1321
C:\Users\CYMR90~1\AppData\Local\Temp\ccxAEgth.s:24239  .debug_str:00000000000106a0 .LASF1322
C:\Users\CYMR90~1\AppData\Local\Temp\ccxAEgth.s:24699  .debug_str:000000000001249c .LASF1323
C:\Users\CYMR90~1\AppData\Local\Temp\ccxAEgth.s:23139  .debug_str:000000000000c17d .LASF1324
C:\Users\CYMR90~1\AppData\Local\Temp\ccxAEgth.s:22779  .debug_str:000000000000a953 .LASF1325
C:\Users\CYMR90~1\AppData\Local\Temp\ccxAEgth.s:21787  .debug_str:0000000000006884 .LASF1326
C:\Users\CYMR90~1\AppData\Local\Temp\ccxAEgth.s:20831  .debug_str:0000000000002c49 .LASF1327
C:\Users\CYMR90~1\AppData\Local\Temp\ccxAEgth.s:31228  .debug_str:000000000002c65e .LASF1328
C:\Users\CYMR90~1\AppData\Local\Temp\ccxAEgth.s:30308  .debug_str:0000000000028cb1 .LASF1329
C:\Users\CYMR90~1\AppData\Local\Temp\ccxAEgth.s:29328  .debug_str:0000000000024b06 .LASF1330
C:\Users\CYMR90~1\AppData\Local\Temp\ccxAEgth.s:28356  .debug_str:0000000000020eac .LASF1331
C:\Users\CYMR90~1\AppData\Local\Temp\ccxAEgth.s:27386  .debug_str:000000000001d360 .LASF1332
C:\Users\CYMR90~1\AppData\Local\Temp\ccxAEgth.s:27818  .debug_str:000000000001edf4 .LASF1333
C:\Users\CYMR90~1\AppData\Local\Temp\ccxAEgth.s:26916  .debug_str:000000000001b48e .LASF1334
C:\Users\CYMR90~1\AppData\Local\Temp\ccxAEgth.s:25605  .debug_str:0000000000015df9 .LASF1335
C:\Users\CYMR90~1\AppData\Local\Temp\ccxAEgth.s:23289  .debug_str:000000000000cb2a .LASF1336
C:\Users\CYMR90~1\AppData\Local\Temp\ccxAEgth.s:28042  .debug_str:000000000001fb56 .LASF1337
C:\Users\CYMR90~1\AppData\Local\Temp\ccxAEgth.s:24581  .debug_str:0000000000011d06 .LASF1338
C:\Users\CYMR90~1\AppData\Local\Temp\ccxAEgth.s:20473  .debug_str:0000000000001676 .LASF1339
C:\Users\CYMR90~1\AppData\Local\Temp\ccxAEgth.s:22565  .debug_str:0000000000009b55 .LASF1340
C:\Users\CYMR90~1\AppData\Local\Temp\ccxAEgth.s:21575  .debug_str:0000000000005b8a .LASF1341
C:\Users\CYMR90~1\AppData\Local\Temp\ccxAEgth.s:20627  .debug_str:0000000000001f7d .LASF1342
C:\Users\CYMR90~1\AppData\Local\Temp\ccxAEgth.s:31036  .debug_str:000000000002b983 .LASF1343
C:\Users\CYMR90~1\AppData\Local\Temp\ccxAEgth.s:30824  .debug_str:000000000002ac07 .LASF1344
C:\Users\CYMR90~1\AppData\Local\Temp\ccxAEgth.s:29854  .debug_str:0000000000026e22 .LASF1345
C:\Users\CYMR90~1\AppData\Local\Temp\ccxAEgth.s:28880  .debug_str:0000000000022e92 .LASF1346
C:\Users\CYMR90~1\AppData\Local\Temp\ccxAEgth.s:30260  .debug_str:0000000000028a06 .LASF1347
C:\Users\CYMR90~1\AppData\Local\Temp\ccxAEgth.s:26960  .debug_str:000000000001b732 .LASF1348
C:\Users\CYMR90~1\AppData\Local\Temp\ccxAEgth.s:27468  .debug_str:000000000001d8a5 .LASF1349
C:\Users\CYMR90~1\AppData\Local\Temp\ccxAEgth.s:25053  .debug_str:0000000000013b99 .LASF1350
C:\Users\CYMR90~1\AppData\Local\Temp\ccxAEgth.s:28186  .debug_str:00000000000204ad .LASF1351
C:\Users\CYMR90~1\AppData\Local\Temp\ccxAEgth.s:23151  .debug_str:000000000000c249 .LASF1352
C:\Users\CYMR90~1\AppData\Local\Temp\ccxAEgth.s:22079  .debug_str:0000000000007bde .LASF1353
C:\Users\CYMR90~1\AppData\Local\Temp\ccxAEgth.s:22647  .debug_str:000000000000a07f .LASF1354
C:\Users\CYMR90~1\AppData\Local\Temp\ccxAEgth.s:21653  .debug_str:000000000000604b .LASF1355
C:\Users\CYMR90~1\AppData\Local\Temp\ccxAEgth.s:20711  .debug_str:0000000000002469 .LASF1356
C:\Users\CYMR90~1\AppData\Local\Temp\ccxAEgth.s:31106  .debug_str:000000000002be28 .LASF1357
C:\Users\CYMR90~1\AppData\Local\Temp\ccxAEgth.s:25141  .debug_str:0000000000014127 .LASF1358
C:\Users\CYMR90~1\AppData\Local\Temp\ccxAEgth.s:21781  .debug_str:000000000000682c .LASF1359
C:\Users\CYMR90~1\AppData\Local\Temp\ccxAEgth.s:28234  .debug_str:00000000000207a3 .LASF1360
C:\Users\CYMR90~1\AppData\Local\Temp\ccxAEgth.s:27186  .debug_str:000000000001c50d .LASF1361
C:\Users\CYMR90~1\AppData\Local\Temp\ccxAEgth.s:26234  .debug_str:00000000000186be .LASF1362
C:\Users\CYMR90~1\AppData\Local\Temp\ccxAEgth.s:30270  .debug_str:0000000000028a97 .LASF1363
C:\Users\CYMR90~1\AppData\Local\Temp\ccxAEgth.s:25531  .debug_str:000000000001589e .LASF1364
C:\Users\CYMR90~1\AppData\Local\Temp\ccxAEgth.s:22197  .debug_str:0000000000008420 .LASF1365
C:\Users\CYMR90~1\AppData\Local\Temp\ccxAEgth.s:29882  .debug_str:0000000000026fcd .LASF1366
C:\Users\CYMR90~1\AppData\Local\Temp\ccxAEgth.s:23271  .debug_str:000000000000ca1f .LASF1367
C:\Users\CYMR90~1\AppData\Local\Temp\ccxAEgth.s:28124  .debug_str:0000000000020064 .LASF1368
C:\Users\CYMR90~1\AppData\Local\Temp\ccxAEgth.s:26398  .debug_str:000000000001920c .LASF1369
C:\Users\CYMR90~1\AppData\Local\Temp\ccxAEgth.s:30996  .debug_str:000000000002b6ca .LASF1370
C:\Users\CYMR90~1\AppData\Local\Temp\ccxAEgth.s:27398  .debug_str:000000000001d400 .LASF1371
C:\Users\CYMR90~1\AppData\Local\Temp\ccxAEgth.s:20755  .debug_str:000000000000276f .LASF1372
C:\Users\CYMR90~1\AppData\Local\Temp\ccxAEgth.s:23333  .debug_str:000000000000cdc5 .LASF1373
C:\Users\CYMR90~1\AppData\Local\Temp\ccxAEgth.s:26444  .debug_str:00000000000194de .LASF1374
C:\Users\CYMR90~1\AppData\Local\Temp\ccxAEgth.s:29546  .debug_str:0000000000025b02 .LASF1375
C:\Users\CYMR90~1\AppData\Local\Temp\ccxAEgth.s:21329  .debug_str:0000000000004d08 .LASF1376
C:\Users\CYMR90~1\AppData\Local\Temp\ccxAEgth.s:24489  .debug_str:0000000000011648 .LASF1377
C:\Users\CYMR90~1\AppData\Local\Temp\ccxAEgth.s:27556  .debug_str:000000000001de8a .LASF1378
C:\Users\CYMR90~1\AppData\Local\Temp\ccxAEgth.s:30734  .debug_str:000000000002a6e1 .LASF1379
C:\Users\CYMR90~1\AppData\Local\Temp\ccxAEgth.s:30702  .debug_str:000000000002a4c0 .LASF1380
C:\Users\CYMR90~1\AppData\Local\Temp\ccxAEgth.s:22411  .debug_str:0000000000009179 .LASF1381
C:\Users\CYMR90~1\AppData\Local\Temp\ccxAEgth.s:25503  .debug_str:0000000000015702 .LASF1382
C:\Users\CYMR90~1\AppData\Local\Temp\ccxAEgth.s:28634  .debug_str:0000000000021fd8 .LASF1383
C:\Users\CYMR90~1\AppData\Local\Temp\ccxAEgth.s:20443  .debug_str:0000000000001491 .LASF1384
C:\Users\CYMR90~1\AppData\Local\Temp\ccxAEgth.s:24955  .debug_str:00000000000135d9 .LASF1385
C:\Users\CYMR90~1\AppData\Local\Temp\ccxAEgth.s:26742  .debug_str:000000000001a993 .LASF1386
C:\Users\CYMR90~1\AppData\Local\Temp\ccxAEgth.s:29844  .debug_str:0000000000026d61 .LASF1387
C:\Users\CYMR90~1\AppData\Local\Temp\ccxAEgth.s:21609  .debug_str:0000000000005d76 .LASF1388
C:\Users\CYMR90~1\AppData\Local\Temp\ccxAEgth.s:24683  .debug_str:000000000001238e .LASF1389
C:\Users\CYMR90~1\AppData\Local\Temp\ccxAEgth.s:24039  .debug_str:000000000000fa36 .LASF1390
C:\Users\CYMR90~1\AppData\Local\Temp\ccxAEgth.s:27038  .debug_str:000000000001bbd5 .LASF1391
C:\Users\CYMR90~1\AppData\Local\Temp\ccxAEgth.s:30178  .debug_str:0000000000028462 .LASF1392
C:\Users\CYMR90~1\AppData\Local\Temp\ccxAEgth.s:21957  .debug_str:0000000000007387 .LASF1393
C:\Users\CYMR90~1\AppData\Local\Temp\ccxAEgth.s:25079  .debug_str:0000000000013d12 .LASF1394
C:\Users\CYMR90~1\AppData\Local\Temp\ccxAEgth.s:25231  .debug_str:0000000000014683 .LASF1395
C:\Users\CYMR90~1\AppData\Local\Temp\ccxAEgth.s:31410  .debug_str:000000000002d22c .LASF1396
C:\Users\CYMR90~1\AppData\Local\Temp\ccxAEgth.s:23207  .debug_str:000000000000c5aa .LASF1397
C:\Users\CYMR90~1\AppData\Local\Temp\ccxAEgth.s:27768  .debug_str:000000000001eb09 .LASF1398
C:\Users\CYMR90~1\AppData\Local\Temp\ccxAEgth.s:24389  .debug_str:0000000000010fee .LASF1399
C:\Users\CYMR90~1\AppData\Local\Temp\ccxAEgth.s:25669  .debug_str:00000000000161ed .LASF1400
C:\Users\CYMR90~1\AppData\Local\Temp\ccxAEgth.s:20401  .debug_str:000000000000122c .LASF1401
C:\Users\CYMR90~1\AppData\Local\Temp\ccxAEgth.s:28106  .debug_str:000000000001ff80 .LASF1402
C:\Users\CYMR90~1\AppData\Local\Temp\ccxAEgth.s:23037  .debug_str:000000000000ba79 .LASF1403
C:\Users\CYMR90~1\AppData\Local\Temp\ccxAEgth.s:27866  .debug_str:000000000001f0eb .LASF1404
C:\Users\CYMR90~1\AppData\Local\Temp\ccxAEgth.s:21111  .debug_str:0000000000003e55 .LASF1405
C:\Users\CYMR90~1\AppData\Local\Temp\ccxAEgth.s:30662  .debug_str:000000000002a251 .LASF1406
C:\Users\CYMR90~1\AppData\Local\Temp\ccxAEgth.s:28836  .debug_str:0000000000022c0a .LASF1407
C:\Users\CYMR90~1\AppData\Local\Temp\ccxAEgth.s:28996  .debug_str:0000000000023563 .LASF1408
C:\Users\CYMR90~1\AppData\Local\Temp\ccxAEgth.s:20785  .debug_str:0000000000002957 .LASF1409
C:\Users\CYMR90~1\AppData\Local\Temp\ccxAEgth.s:23941  .debug_str:000000000000f368 .LASF1410
C:\Users\CYMR90~1\AppData\Local\Temp\ccxAEgth.s:30406  .debug_str:00000000000292b9 .LASF1411
C:\Users\CYMR90~1\AppData\Local\Temp\ccxAEgth.s:22185  .debug_str:000000000000835c .LASF1412
C:\Users\CYMR90~1\AppData\Local\Temp\ccxAEgth.s:25297  .debug_str:0000000000014a79 .LASF1413
C:\Users\CYMR90~1\AppData\Local\Temp\ccxAEgth.s:28414  .debug_str:0000000000021297 .LASF1414
C:\Users\CYMR90~1\AppData\Local\Temp\ccxAEgth.s:20247  .debug_str:00000000000008b5 .LASF1415
C:\Users\CYMR90~1\AppData\Local\Temp\ccxAEgth.s:23299  .debug_str:000000000000cb92 .LASF1416
C:\Users\CYMR90~1\AppData\Local\Temp\ccxAEgth.s:26422  .debug_str:00000000000193b0 .LASF1417
C:\Users\CYMR90~1\AppData\Local\Temp\ccxAEgth.s:27930  .debug_str:000000000001f4b9 .LASF1418
C:\Users\CYMR90~1\AppData\Local\Temp\ccxAEgth.s:21309  .debug_str:0000000000004bca .LASF1419
C:\Users\CYMR90~1\AppData\Local\Temp\ccxAEgth.s:24375  .debug_str:0000000000010f0f .LASF1420
C:\Users\CYMR90~1\AppData\Local\Temp\ccxAEgth.s:23719  .debug_str:000000000000e606 .LASF1421
C:\Users\CYMR90~1\AppData\Local\Temp\ccxAEgth.s:26856  .debug_str:000000000001b10a .LASF1422
C:\Users\CYMR90~1\AppData\Local\Temp\ccxAEgth.s:29954  .debug_str:00000000000274f3 .LASF1423
C:\Users\CYMR90~1\AppData\Local\Temp\ccxAEgth.s:20857  .debug_str:0000000000002dd2 .LASF1424
C:\Users\CYMR90~1\AppData\Local\Temp\ccxAEgth.s:24891  .debug_str:000000000001310a .LASF1425
C:\Users\CYMR90~1\AppData\Local\Temp\ccxAEgth.s:27860  .debug_str:000000000001f078 .LASF1426
C:\Users\CYMR90~1\AppData\Local\Temp\ccxAEgth.s:31116  .debug_str:000000000002bf1b .LASF1427
C:\Users\CYMR90~1\AppData\Local\Temp\ccxAEgth.s:22907  .debug_str:000000000000b1db .LASF1428
C:\Users\CYMR90~1\AppData\Local\Temp\ccxAEgth.s:25998  .debug_str:00000000000178ca .LASF1429
C:\Users\CYMR90~1\AppData\Local\Temp\ccxAEgth.s:29130  .debug_str:0000000000023d8a .LASF1430
C:\Users\CYMR90~1\AppData\Local\Temp\ccxAEgth.s:27868  .debug_str:000000000001f103 .LASF1431
C:\Users\CYMR90~1\AppData\Local\Temp\ccxAEgth.s:20207  .debug_str:000000000000066c .LASF1432
C:\Users\CYMR90~1\AppData\Local\Temp\ccxAEgth.s:29082  .debug_str:0000000000023aa9 .LASF1433
C:\Users\CYMR90~1\AppData\Local\Temp\ccxAEgth.s:28110  .debug_str:000000000001ffaa .LASF1434
C:\Users\CYMR90~1\AppData\Local\Temp\ccxAEgth.s:27152  .debug_str:000000000001c2ba .LASF1435
C:\Users\CYMR90~1\AppData\Local\Temp\ccxAEgth.s:26202  .debug_str:0000000000018491 .LASF1436
C:\Users\CYMR90~1\AppData\Local\Temp\ccxAEgth.s:25627  .debug_str:0000000000015f7b .LASF1437
C:\Users\CYMR90~1\AppData\Local\Temp\ccxAEgth.s:29988  .debug_str:00000000000276c4 .LASF1438
C:\Users\CYMR90~1\AppData\Local\Temp\ccxAEgth.s:29014  .debug_str:00000000000236d3 .LASF1439
C:\Users\CYMR90~1\AppData\Local\Temp\ccxAEgth.s:28032  .debug_str:000000000001fae3 .LASF1440
C:\Users\CYMR90~1\AppData\Local\Temp\ccxAEgth.s:27080  .debug_str:000000000001be8f .LASF1441
C:\Users\CYMR90~1\AppData\Local\Temp\ccxAEgth.s:26126  .debug_str:0000000000018047 .LASF1442
C:\Users\CYMR90~1\AppData\Local\Temp\ccxAEgth.s:25169  .debug_str:00000000000142b2 .LASF1443
C:\Users\CYMR90~1\AppData\Local\Temp\ccxAEgth.s:24229  .debug_str:0000000000010612 .LASF1444
C:\Users\CYMR90~1\AppData\Local\Temp\ccxAEgth.s:31074  .debug_str:000000000002bbf2 .LASF1445
C:\Users\CYMR90~1\AppData\Local\Temp\ccxAEgth.s:22301  .debug_str:0000000000008a94 .LASF1446
C:\Users\CYMR90~1\AppData\Local\Temp\ccxAEgth.s:23851  .debug_str:000000000000edba .LASF1447
C:\Users\CYMR90~1\AppData\Local\Temp\ccxAEgth.s:29364  .debug_str:0000000000024d5f .LASF1448
C:\Users\CYMR90~1\AppData\Local\Temp\ccxAEgth.s:28392  .debug_str:00000000000210ac .LASF1449
C:\Users\CYMR90~1\AppData\Local\Temp\ccxAEgth.s:27408  .debug_str:000000000001d4ff .LASF1450
C:\Users\CYMR90~1\AppData\Local\Temp\ccxAEgth.s:26492  .debug_str:00000000000198b6 .LASF1451
C:\Users\CYMR90~1\AppData\Local\Temp\ccxAEgth.s:25501  .debug_str:00000000000156ed .LASF1452
C:\Users\CYMR90~1\AppData\Local\Temp\ccxAEgth.s:22905  .debug_str:000000000000b1c8 .LASF1453
C:\Users\CYMR90~1\AppData\Local\Temp\ccxAEgth.s:21523  .debug_str:0000000000005857 .LASF1454
C:\Users\CYMR90~1\AppData\Local\Temp\ccxAEgth.s:22707  .debug_str:000000000000a424 .LASF1455
C:\Users\CYMR90~1\AppData\Local\Temp\ccxAEgth.s:27772  .debug_str:000000000001eb4b .LASF1456
C:\Users\CYMR90~1\AppData\Local\Temp\ccxAEgth.s:29418  .debug_str:0000000000025145 .LASF1457
C:\Users\CYMR90~1\AppData\Local\Temp\ccxAEgth.s:21275  .debug_str:00000000000049b5 .LASF1458
C:\Users\CYMR90~1\AppData\Local\Temp\ccxAEgth.s:27854  .debug_str:000000000001f02a .LASF1459
C:\Users\CYMR90~1\AppData\Local\Temp\ccxAEgth.s:24703  .debug_str:00000000000124dd .LASF1460
C:\Users\CYMR90~1\AppData\Local\Temp\ccxAEgth.s:22815  .debug_str:000000000000ab89 .LASF1461
C:\Users\CYMR90~1\AppData\Local\Temp\ccxAEgth.s:23997  .debug_str:000000000000f7e8 .LASF1462
C:\Users\CYMR90~1\AppData\Local\Temp\ccxAEgth.s:24495  .debug_str:0000000000011723 .LASF1463
C:\Users\CYMR90~1\AppData\Local\Temp\ccxAEgth.s:25561  .debug_str:0000000000015ab2 .LASF1464
C:\Users\CYMR90~1\AppData\Local\Temp\ccxAEgth.s:30848  .debug_str:000000000002ada4 .LASF1465
C:\Users\CYMR90~1\AppData\Local\Temp\ccxAEgth.s:26754  .debug_str:000000000001aa58 .LASF1466
C:\Users\CYMR90~1\AppData\Local\Temp\ccxAEgth.s:25173  .debug_str:00000000000142d9 .LASF1467
C:\Users\CYMR90~1\AppData\Local\Temp\ccxAEgth.s:29874  .debug_str:0000000000026f56 .LASF1468
C:\Users\CYMR90~1\AppData\Local\Temp\ccxAEgth.s:24173  .debug_str:00000000000102ac .LASF1469
C:\Users\CYMR90~1\AppData\Local\Temp\ccxAEgth.s:22259  .debug_str:000000000000881d .LASF1470
C:\Users\CYMR90~1\AppData\Local\Temp\ccxAEgth.s:24467  .debug_str:00000000000114e2 .LASF1471
C:\Users\CYMR90~1\AppData\Local\Temp\ccxAEgth.s:26024  .debug_str:0000000000017a39 .LASF1472
C:\Users\CYMR90~1\AppData\Local\Temp\ccxAEgth.s:29316  .debug_str:0000000000024a4f .LASF1473
C:\Users\CYMR90~1\AppData\Local\Temp\ccxAEgth.s:29960  .debug_str:0000000000027538 .LASF1474
C:\Users\CYMR90~1\AppData\Local\Temp\ccxAEgth.s:20297  .debug_str:0000000000000c0b .LASF1475
C:\Users\CYMR90~1\AppData\Local\Temp\ccxAEgth.s:22187  .debug_str:0000000000008375 .LASF1476
C:\Users\CYMR90~1\AppData\Local\Temp\ccxAEgth.s:20811  .debug_str:0000000000002b1a .LASF1477
C:\Users\CYMR90~1\AppData\Local\Temp\ccxAEgth.s:30144  .debug_str:000000000002816d .LASF1478
C:\Users\CYMR90~1\AppData\Local\Temp\ccxAEgth.s:29166  .debug_str:0000000000024049 .LASF1479
C:\Users\CYMR90~1\AppData\Local\Temp\ccxAEgth.s:20937  .debug_str:0000000000003306 .LASF1480
C:\Users\CYMR90~1\AppData\Local\Temp\ccxAEgth.s:23159  .debug_str:000000000000c2a5 .LASF1481
C:\Users\CYMR90~1\AppData\Local\Temp\ccxAEgth.s:29284  .debug_str:000000000002485b .LASF1482
C:\Users\CYMR90~1\AppData\Local\Temp\ccxAEgth.s:22497  .debug_str:0000000000009721 .LASF1483
C:\Users\CYMR90~1\AppData\Local\Temp\ccxAEgth.s:21315  .debug_str:0000000000004c23 .LASF1484
C:\Users\CYMR90~1\AppData\Local\Temp\ccxAEgth.s:23727  .debug_str:000000000000e695 .LASF1485
C:\Users\CYMR90~1\AppData\Local\Temp\ccxAEgth.s:25139  .debug_str:0000000000014114 .LASF1486
C:\Users\CYMR90~1\AppData\Local\Temp\ccxAEgth.s:26738  .debug_str:000000000001a964 .LASF1487
C:\Users\CYMR90~1\AppData\Local\Temp\ccxAEgth.s:20133  .debug_str:0000000000000216 .LASF1488
C:\Users\CYMR90~1\AppData\Local\Temp\ccxAEgth.s:25519  .debug_str:00000000000157ea .LASF1489
C:\Users\CYMR90~1\AppData\Local\Temp\ccxAEgth.s:23527  .debug_str:000000000000da12 .LASF1490
C:\Users\CYMR90~1\AppData\Local\Temp\ccxAEgth.s:30372  .debug_str:00000000000290bc .LASF1491
C:\Users\CYMR90~1\AppData\Local\Temp\ccxAEgth.s:20779  .debug_str:00000000000028f0 .LASF1492
C:\Users\CYMR90~1\AppData\Local\Temp\ccxAEgth.s:28346  .debug_str:0000000000020e2d .LASF1493
C:\Users\CYMR90~1\AppData\Local\Temp\ccxAEgth.s:30588  .debug_str:0000000000029e30 .LASF1494
C:\Users\CYMR90~1\AppData\Local\Temp\ccxAEgth.s:21943  .debug_str:00000000000072d5 .LASF1495
C:\Users\CYMR90~1\AppData\Local\Temp\ccxAEgth.s:29642  .debug_str:000000000002612e .LASF1496
C:\Users\CYMR90~1\AppData\Local\Temp\ccxAEgth.s:30344  .debug_str:0000000000028eef .LASF1497
C:\Users\CYMR90~1\AppData\Local\Temp\ccxAEgth.s:21741  .debug_str:000000000000656b .LASF1498
C:\Users\CYMR90~1\AppData\Local\Temp\ccxAEgth.s:22589  .debug_str:0000000000009cc0 .LASF1499
C:\Users\CYMR90~1\AppData\Local\Temp\ccxAEgth.s:31278  .debug_str:000000000002c99a .LASF1500
C:\Users\CYMR90~1\AppData\Local\Temp\ccxAEgth.s:30506  .debug_str:0000000000029948 .LASF1501
C:\Users\CYMR90~1\AppData\Local\Temp\ccxAEgth.s:28244  .debug_str:000000000002084b .LASF1502
C:\Users\CYMR90~1\AppData\Local\Temp\ccxAEgth.s:21723  .debug_str:0000000000006450 .LASF1503
C:\Users\CYMR90~1\AppData\Local\Temp\ccxAEgth.s:23269  .debug_str:000000000000ca08 .LASF1504
C:\Users\CYMR90~1\AppData\Local\Temp\ccxAEgth.s:27612  .debug_str:000000000001e1b1 .LASF1505
C:\Users\CYMR90~1\AppData\Local\Temp\ccxAEgth.s:26938  .debug_str:000000000001b5f3 .LASF1506
C:\Users\CYMR90~1\AppData\Local\Temp\ccxAEgth.s:22965  .debug_str:000000000000b5e6 .LASF1507
C:\Users\CYMR90~1\AppData\Local\Temp\ccxAEgth.s:28446  .debug_str:0000000000021475 .LASF1508
C:\Users\CYMR90~1\AppData\Local\Temp\ccxAEgth.s:24647  .debug_str:000000000001212d .LASF1509
C:\Users\CYMR90~1\AppData\Local\Temp\ccxAEgth.s:30246  .debug_str:000000000002890e .LASF1510
C:\Users\CYMR90~1\AppData\Local\Temp\ccxAEgth.s:29028  .debug_str:000000000002378d .LASF1511
C:\Users\CYMR90~1\AppData\Local\Temp\ccxAEgth.s:20979  .debug_str:000000000000359b .LASF1512
C:\Users\CYMR90~1\AppData\Local\Temp\ccxAEgth.s:25581  .debug_str:0000000000015c5d .LASF1513
C:\Users\CYMR90~1\AppData\Local\Temp\ccxAEgth.s:29444  .debug_str:0000000000025374 .LASF1514
C:\Users\CYMR90~1\AppData\Local\Temp\ccxAEgth.s:27830  .debug_str:000000000001eede .LASF1515
C:\Users\CYMR90~1\AppData\Local\Temp\ccxAEgth.s:31016  .debug_str:000000000002b811 .LASF1516
C:\Users\CYMR90~1\AppData\Local\Temp\ccxAEgth.s:27662  .debug_str:000000000001e49f .LASF1517
C:\Users\CYMR90~1\AppData\Local\Temp\ccxAEgth.s:29680  .debug_str:000000000002636c .LASF1518
C:\Users\CYMR90~1\AppData\Local\Temp\ccxAEgth.s:24637  .debug_str:00000000000120bc .LASF1519
C:\Users\CYMR90~1\AppData\Local\Temp\ccxAEgth.s:28058  .debug_str:000000000001fc96 .LASF1520
C:\Users\CYMR90~1\AppData\Local\Temp\ccxAEgth.s:27110  .debug_str:000000000001c067 .LASF1521
C:\Users\CYMR90~1\AppData\Local\Temp\ccxAEgth.s:28384  .debug_str:000000000002103d .LASF1522
C:\Users\CYMR90~1\AppData\Local\Temp\ccxAEgth.s:26396  .debug_str:00000000000191f0 .LASF1523
C:\Users\CYMR90~1\AppData\Local\Temp\ccxAEgth.s:29030  .debug_str:00000000000237a3 .LASF1524
C:\Users\CYMR90~1\AppData\Local\Temp\ccxAEgth.s:21389  .debug_str:0000000000005085 .LASF1525
C:\Users\CYMR90~1\AppData\Local\Temp\ccxAEgth.s:27052  .debug_str:000000000001bcce .LASF1526
C:\Users\CYMR90~1\AppData\Local\Temp\ccxAEgth.s:23181  .debug_str:000000000000c407 .LASF1527
C:\Users\CYMR90~1\AppData\Local\Temp\ccxAEgth.s:28784  .debug_str:00000000000228b2 .LASF1528
C:\Users\CYMR90~1\AppData\Local\Temp\ccxAEgth.s:30042  .debug_str:0000000000027a1e .LASF1529
C:\Users\CYMR90~1\AppData\Local\Temp\ccxAEgth.s:29276  .debug_str:0000000000024756 .LASF1530
C:\Users\CYMR90~1\AppData\Local\Temp\ccxAEgth.s:29342  .debug_str:0000000000024be8 .LASF1531
C:\Users\CYMR90~1\AppData\Local\Temp\ccxAEgth.s:21133  .debug_str:0000000000003f7a .LASF1532
C:\Users\CYMR90~1\AppData\Local\Temp\ccxAEgth.s:26346  .debug_str:0000000000018e45 .LASF1533
C:\Users\CYMR90~1\AppData\Local\Temp\ccxAEgth.s:29158  .debug_str:0000000000023f00 .LASF1534
C:\Users\CYMR90~1\AppData\Local\Temp\ccxAEgth.s:22749  .debug_str:000000000000a6ba .LASF1535
C:\Users\CYMR90~1\AppData\Local\Temp\ccxAEgth.s:29346  .debug_str:0000000000024c5a .LASF1536
C:\Users\CYMR90~1\AppData\Local\Temp\ccxAEgth.s:28690  .debug_str:0000000000022307 .LASF1537
C:\Users\CYMR90~1\AppData\Local\Temp\ccxAEgth.s:29918  .debug_str:000000000002720f .LASF1538
C:\Users\CYMR90~1\AppData\Local\Temp\ccxAEgth.s:29810  .debug_str:0000000000026b4b .LASF1539
C:\Users\CYMR90~1\AppData\Local\Temp\ccxAEgth.s:24519  .debug_str:0000000000011930 .LASF1540
C:\Users\CYMR90~1\AppData\Local\Temp\ccxAEgth.s:30532  .debug_str:0000000000029ad0 .LASF1541
C:\Users\CYMR90~1\AppData\Local\Temp\ccxAEgth.s:23505  .debug_str:000000000000d8fc .LASF1542
C:\Users\CYMR90~1\AppData\Local\Temp\ccxAEgth.s:20899  .debug_str:0000000000003075 .LASF1543
C:\Users\CYMR90~1\AppData\Local\Temp\ccxAEgth.s:24083  .debug_str:000000000000fd14 .LASF1544
C:\Users\CYMR90~1\AppData\Local\Temp\ccxAEgth.s:22123  .debug_str:0000000000007f42 .LASF1545
C:\Users\CYMR90~1\AppData\Local\Temp\ccxAEgth.s:22597  .debug_str:0000000000009d33 .LASF1546
C:\Users\CYMR90~1\AppData\Local\Temp\ccxAEgth.s:23237  .debug_str:000000000000c802 .LASF1547
C:\Users\CYMR90~1\AppData\Local\Temp\ccxAEgth.s:30120  .debug_str:0000000000027f8c .LASF1548
C:\Users\CYMR90~1\AppData\Local\Temp\ccxAEgth.s:29612  .debug_str:0000000000025ef9 .LASF1549
C:\Users\CYMR90~1\AppData\Local\Temp\ccxAEgth.s:27002  .debug_str:000000000001b938 .LASF1550
C:\Users\CYMR90~1\AppData\Local\Temp\ccxAEgth.s:24385  .debug_str:0000000000010fa0 .LASF1551
C:\Users\CYMR90~1\AppData\Local\Temp\ccxAEgth.s:26972  .debug_str:000000000001b7a7 .LASF1552
C:\Users\CYMR90~1\AppData\Local\Temp\ccxAEgth.s:20369  .debug_str:0000000000001044 .LASF1553
C:\Users\CYMR90~1\AppData\Local\Temp\ccxAEgth.s:20681  .debug_str:0000000000002286 .LASF1554
C:\Users\CYMR90~1\AppData\Local\Temp\ccxAEgth.s:27698  .debug_str:000000000001e71d .LASF1555
C:\Users\CYMR90~1\AppData\Local\Temp\ccxAEgth.s:26298  .debug_str:0000000000018b47 .LASF1556
C:\Users\CYMR90~1\AppData\Local\Temp\ccxAEgth.s:26322  .debug_str:0000000000018cd5 .LASF1557
C:\Users\CYMR90~1\AppData\Local\Temp\ccxAEgth.s:30618  .debug_str:0000000000029fb4 .LASF1558
C:\Users\CYMR90~1\AppData\Local\Temp\ccxAEgth.s:24225  .debug_str:00000000000105e6 .LASF1559
C:\Users\CYMR90~1\AppData\Local\Temp\ccxAEgth.s:29040  .debug_str:000000000002381c .LASF1560
C:\Users\CYMR90~1\AppData\Local\Temp\ccxAEgth.s:29470  .debug_str:000000000002556c .LASF1561
C:\Users\CYMR90~1\AppData\Local\Temp\ccxAEgth.s:24341  .debug_str:0000000000010d30 .LASF1562
C:\Users\CYMR90~1\AppData\Local\Temp\ccxAEgth.s:21569  .debug_str:0000000000005b3a .LASF1563
C:\Users\CYMR90~1\AppData\Local\Temp\ccxAEgth.s:31114  .debug_str:000000000002be75 .LASF1564
C:\Users\CYMR90~1\AppData\Local\Temp\ccxAEgth.s:21749  .debug_str:00000000000065d4 .LASF1565
C:\Users\CYMR90~1\AppData\Local\Temp\ccxAEgth.s:27406  .debug_str:000000000001d471 .LASF1566
C:\Users\CYMR90~1\AppData\Local\Temp\ccxAEgth.s:26692  .debug_str:000000000001a614 .LASF1567
C:\Users\CYMR90~1\AppData\Local\Temp\ccxAEgth.s:28178  .debug_str:00000000000203d8 .LASF1568
C:\Users\CYMR90~1\AppData\Local\Temp\ccxAEgth.s:24517  .debug_str:0000000000011889 .LASF1569
C:\Users\CYMR90~1\AppData\Local\Temp\ccxAEgth.s:29498  .debug_str:000000000002577b .LASF1570
C:\Users\CYMR90~1\AppData\Local\Temp\ccxAEgth.s:24911  .debug_str:00000000000132f0 .LASF1571
C:\Users\CYMR90~1\AppData\Local\Temp\ccxAEgth.s:21439  .debug_str:00000000000053a6 .LASF1572
C:\Users\CYMR90~1\AppData\Local\Temp\ccxAEgth.s:25329  .debug_str:0000000000014cd2 .LASF1573
C:\Users\CYMR90~1\AppData\Local\Temp\ccxAEgth.s:30232  .debug_str:0000000000028839 .LASF1574
C:\Users\CYMR90~1\AppData\Local\Temp\ccxAEgth.s:25792  .debug_str:0000000000016c46 .LASF1575
C:\Users\CYMR90~1\AppData\Local\Temp\ccxAEgth.s:23881  .debug_str:000000000000ef9d .LASF1576
C:\Users\CYMR90~1\AppData\Local\Temp\ccxAEgth.s:23493  .debug_str:000000000000d833 .LASF1577
C:\Users\CYMR90~1\AppData\Local\Temp\ccxAEgth.s:30726  .debug_str:000000000002a645 .LASF1578
C:\Users\CYMR90~1\AppData\Local\Temp\ccxAEgth.s:20691  .debug_str:0000000000002311 .LASF1579
C:\Users\CYMR90~1\AppData\Local\Temp\ccxAEgth.s:27252  .debug_str:000000000001c9db .LASF1580
C:\Users\CYMR90~1\AppData\Local\Temp\ccxAEgth.s:22715  .debug_str:000000000000a498 .LASF1581
C:\Users\CYMR90~1\AppData\Local\Temp\ccxAEgth.s:23425  .debug_str:000000000000d443 .LASF1582
C:\Users\CYMR90~1\AppData\Local\Temp\ccxAEgth.s:22113  .debug_str:0000000000007e16 .LASF1583
C:\Users\CYMR90~1\AppData\Local\Temp\ccxAEgth.s:29920  .debug_str:000000000002722d .LASF1584
C:\Users\CYMR90~1\AppData\Local\Temp\ccxAEgth.s:27508  .debug_str:000000000001daf5 .LASF1585
C:\Users\CYMR90~1\AppData\Local\Temp\ccxAEgth.s:31332  .debug_str:000000000002ccc1 .LASF1586
C:\Users\CYMR90~1\AppData\Local\Temp\ccxAEgth.s:23399  .debug_str:000000000000d1f9 .LASF1587
C:\Users\CYMR90~1\AppData\Local\Temp\ccxAEgth.s:22073  .debug_str:0000000000007af3 .LASF1588
C:\Users\CYMR90~1\AppData\Local\Temp\ccxAEgth.s:25767  .debug_str:0000000000016897 .LASF1589
C:\Users\CYMR90~1\AppData\Local\Temp\ccxAEgth.s:22933  .debug_str:000000000000b34f .LASF1590
C:\Users\CYMR90~1\AppData\Local\Temp\ccxAEgth.s:25693  .debug_str:0000000000016323 .LASF1591
C:\Users\CYMR90~1\AppData\Local\Temp\ccxAEgth.s:22313  .debug_str:0000000000008b24 .LASF1592
C:\Users\CYMR90~1\AppData\Local\Temp\ccxAEgth.s:24903  .debug_str:000000000001320b .LASF1593
C:\Users\CYMR90~1\AppData\Local\Temp\ccxAEgth.s:30414  .debug_str:000000000002931d .LASF1594
C:\Users\CYMR90~1\AppData\Local\Temp\ccxAEgth.s:30152  .debug_str:0000000000028223 .LASF1595
C:\Users\CYMR90~1\AppData\Local\Temp\ccxAEgth.s:20335  .debug_str:0000000000000e0c .LASF1596
C:\Users\CYMR90~1\AppData\Local\Temp\ccxAEgth.s:27278  .debug_str:000000000001cb9a .LASF1597
C:\Users\CYMR90~1\AppData\Local\Temp\ccxAEgth.s:21245  .debug_str:000000000000474c .LASF1598
C:\Users\CYMR90~1\AppData\Local\Temp\ccxAEgth.s:29420  .debug_str:0000000000025154 .LASF1599
C:\Users\CYMR90~1\AppData\Local\Temp\ccxAEgth.s:23947  .debug_str:000000000000f3ba .LASF1600
C:\Users\CYMR90~1\AppData\Local\Temp\ccxAEgth.s:23969  .debug_str:000000000000f58d .LASF1601
C:\Users\CYMR90~1\AppData\Local\Temp\ccxAEgth.s:28408  .debug_str:000000000002119a .LASF1602
C:\Users\CYMR90~1\AppData\Local\Temp\ccxAEgth.s:27302  .debug_str:000000000001cdaa .LASF1603
C:\Users\CYMR90~1\AppData\Local\Temp\ccxAEgth.s:27198  .debug_str:000000000001c5c4 .LASF1604
C:\Users\CYMR90~1\AppData\Local\Temp\ccxAEgth.s:29400  .debug_str:0000000000024f93 .LASF1605
C:\Users\CYMR90~1\AppData\Local\Temp\ccxAEgth.s:29318  .debug_str:0000000000024a65 .LASF1606
C:\Users\CYMR90~1\AppData\Local\Temp\ccxAEgth.s:29270  .debug_str:0000000000024702 .LASF1607
C:\Users\CYMR90~1\AppData\Local\Temp\ccxAEgth.s:26242  .debug_str:0000000000018719 .LASF1608
C:\Users\CYMR90~1\AppData\Local\Temp\ccxAEgth.s:21223  .debug_str:00000000000045c5 .LASF1609
C:\Users\CYMR90~1\AppData\Local\Temp\ccxAEgth.s:28618  .debug_str:0000000000021ed5 .LASF1610
C:\Users\CYMR90~1\AppData\Local\Temp\ccxAEgth.s:31238  .debug_str:000000000002c6c1 .LASF1611
C:\Users\CYMR90~1\AppData\Local\Temp\ccxAEgth.s:27148  .debug_str:000000000001c27e .LASF1612
C:\Users\CYMR90~1\AppData\Local\Temp\ccxAEgth.s:25217  .debug_str:00000000000145b3 .LASF1613
C:\Users\CYMR90~1\AppData\Local\Temp\ccxAEgth.s:22583  .debug_str:0000000000009c62 .LASF1614
C:\Users\CYMR90~1\AppData\Local\Temp\ccxAEgth.s:26840  .debug_str:000000000001afdf .LASF1615
C:\Users\CYMR90~1\AppData\Local\Temp\ccxAEgth.s:28502  .debug_str:00000000000217c9 .LASF1616
C:\Users\CYMR90~1\AppData\Local\Temp\ccxAEgth.s:25303  .debug_str:0000000000014ad9 .LASF1617
C:\Users\CYMR90~1\AppData\Local\Temp\ccxAEgth.s:27210  .debug_str:000000000001c738 .LASF1618
C:\Users\CYMR90~1\AppData\Local\Temp\ccxAEgth.s:21269  .debug_str:0000000000004955 .LASF1619
C:\Users\CYMR90~1\AppData\Local\Temp\ccxAEgth.s:22969  .debug_str:000000000000b616 .LASF1620
C:\Users\CYMR90~1\AppData\Local\Temp\ccxAEgth.s:23801  .debug_str:000000000000eb0d .LASF1621
C:\Users\CYMR90~1\AppData\Local\Temp\ccxAEgth.s:20837  .debug_str:0000000000002ca8 .LASF1622
C:\Users\CYMR90~1\AppData\Local\Temp\ccxAEgth.s:28210  .debug_str:0000000000020615 .LASF1623
C:\Users\CYMR90~1\AppData\Local\Temp\ccxAEgth.s:24905  .debug_str:00000000000132a6 .LASF1624
C:\Users\CYMR90~1\AppData\Local\Temp\ccxAEgth.s:23069  .debug_str:000000000000bd0c .LASF1625
C:\Users\CYMR90~1\AppData\Local\Temp\ccxAEgth.s:28908  .debug_str:0000000000022fe5 .LASF1626
C:\Users\CYMR90~1\AppData\Local\Temp\ccxAEgth.s:21745  .debug_str:00000000000065a6 .LASF1627
C:\Users\CYMR90~1\AppData\Local\Temp\ccxAEgth.s:27948  .debug_str:000000000001f5c6 .LASF1628
C:\Users\CYMR90~1\AppData\Local\Temp\ccxAEgth.s:22827  .debug_str:000000000000ac4b .LASF1629
C:\Users\CYMR90~1\AppData\Local\Temp\ccxAEgth.s:28700  .debug_str:0000000000022373 .LASF1630
C:\Users\CYMR90~1\AppData\Local\Temp\ccxAEgth.s:22295  .debug_str:0000000000008a3d .LASF1631
C:\Users\CYMR90~1\AppData\Local\Temp\ccxAEgth.s:20435  .debug_str:000000000000143c .LASF1632
C:\Users\CYMR90~1\AppData\Local\Temp\ccxAEgth.s:26950  .debug_str:000000000001b6bf .LASF1633
C:\Users\CYMR90~1\AppData\Local\Temp\ccxAEgth.s:25934  .debug_str:0000000000017492 .LASF1634
C:\Users\CYMR90~1\AppData\Local\Temp\ccxAEgth.s:23051  .debug_str:000000000000bba5 .LASF1635
C:\Users\CYMR90~1\AppData\Local\Temp\ccxAEgth.s:23153  .debug_str:000000000000c25f .LASF1636
C:\Users\CYMR90~1\AppData\Local\Temp\ccxAEgth.s:26812  .debug_str:000000000001ae2e .LASF1637
C:\Users\CYMR90~1\AppData\Local\Temp\ccxAEgth.s:23221  .debug_str:000000000000c6ef .LASF1638
C:\Users\CYMR90~1\AppData\Local\Temp\ccxAEgth.s:22943  .debug_str:000000000000b474 .LASF1639
C:\Users\CYMR90~1\AppData\Local\Temp\ccxAEgth.s:26144  .debug_str:0000000000018142 .LASF1640
C:\Users\CYMR90~1\AppData\Local\Temp\ccxAEgth.s:24179  .debug_str:0000000000010308 .LASF1641
C:\Users\CYMR90~1\AppData\Local\Temp\ccxAEgth.s:29262  .debug_str:000000000002468c .LASF1642
C:\Users\CYMR90~1\AppData\Local\Temp\ccxAEgth.s:24527  .debug_str:00000000000119d1 .LASF1643
C:\Users\CYMR90~1\AppData\Local\Temp\ccxAEgth.s:28094  .debug_str:000000000001fed2 .LASF1644
C:\Users\CYMR90~1\AppData\Local\Temp\ccxAEgth.s:31206  .debug_str:000000000002c522 .LASF1645
C:\Users\CYMR90~1\AppData\Local\Temp\ccxAEgth.s:20827  .debug_str:0000000000002c20 .LASF1646
C:\Users\CYMR90~1\AppData\Local\Temp\ccxAEgth.s:25729  .debug_str:00000000000165d3 .LASF1647
C:\Users\CYMR90~1\AppData\Local\Temp\ccxAEgth.s:25840  .debug_str:0000000000016f41 .LASF1648
C:\Users\CYMR90~1\AppData\Local\Temp\ccxAEgth.s:20631  .debug_str:0000000000001fb1 .LASF1649
C:\Users\CYMR90~1\AppData\Local\Temp\ccxAEgth.s:22139  .debug_str:0000000000008079 .LASF1650
C:\Users\CYMR90~1\AppData\Local\Temp\ccxAEgth.s:28924  .debug_str:00000000000230e5 .LASF1651
C:\Users\CYMR90~1\AppData\Local\Temp\ccxAEgth.s:24277  .debug_str:000000000001089b .LASF1652
C:\Users\CYMR90~1\AppData\Local\Temp\ccxAEgth.s:22031  .debug_str:0000000000007828 .LASF1653
C:\Users\CYMR90~1\AppData\Local\Temp\ccxAEgth.s:20375  .debug_str:00000000000010b5 .LASF1654
C:\Users\CYMR90~1\AppData\Local\Temp\ccxAEgth.s:26038  .debug_str:0000000000017afc .LASF1657
C:\Users\CYMR90~1\AppData\Local\Temp\ccxAEgth.s:30776  .debug_str:000000000002a96f .LASF1658
C:\Users\CYMR90~1\AppData\Local\Temp\ccxAEgth.s:24309  .debug_str:0000000000010ba8 .LASF1659
C:\Users\CYMR90~1\AppData\Local\Temp\ccxAEgth.s:26370  .debug_str:000000000001908c .LASF1660
C:\Users\CYMR90~1\AppData\Local\Temp\ccxAEgth.s:31012  .debug_str:000000000002b7d2 .LASF1661
C:\Users\CYMR90~1\AppData\Local\Temp\ccxAEgth.s:31046  .debug_str:000000000002ba2e .LASF1662
C:\Users\CYMR90~1\AppData\Local\Temp\ccxAEgth.s:28294  .debug_str:0000000000020b57 .LASF1663
C:\Users\CYMR90~1\AppData\Local\Temp\ccxAEgth.s:25265  .debug_str:0000000000014861 .LASF1664
C:\Users\CYMR90~1\AppData\Local\Temp\ccxAEgth.s:27454  .debug_str:000000000001d7ba .LASF1665
C:\Users\CYMR90~1\AppData\Local\Temp\ccxAEgth.s:28386  .debug_str:0000000000021058 .LASF1666
C:\Users\CYMR90~1\AppData\Local\Temp\ccxAEgth.s:29494  .debug_str:0000000000025737 .LASF1667
C:\Users\CYMR90~1\AppData\Local\Temp\ccxAEgth.s:23711  .debug_str:000000000000e583 .LASF1668
C:\Users\CYMR90~1\AppData\Local\Temp\ccxAEgth.s:21063  .debug_str:0000000000003af0 .LASF1669
C:\Users\CYMR90~1\AppData\Local\Temp\ccxAEgth.s:22333  .debug_str:0000000000008cf0 .LASF1670
C:\Users\CYMR90~1\AppData\Local\Temp\ccxAEgth.s:21283  .debug_str:0000000000004a21 .LASF1671
C:\Users\CYMR90~1\AppData\Local\Temp\ccxAEgth.s:20181  .debug_str:00000000000004d9 .LASF1672
C:\Users\CYMR90~1\AppData\Local\Temp\ccxAEgth.s:25193  .debug_str:00000000000143f1 .LASF1673
C:\Users\CYMR90~1\AppData\Local\Temp\ccxAEgth.s:24599  .debug_str:0000000000011dfb .LASF1674
C:\Users\CYMR90~1\AppData\Local\Temp\ccxAEgth.s:23751  .debug_str:000000000000e7f2 .LASF1675
C:\Users\CYMR90~1\AppData\Local\Temp\ccxAEgth.s:29282  .debug_str:0000000000024841 .LASF1676
C:\Users\CYMR90~1\AppData\Local\Temp\ccxAEgth.s:24727  .debug_str:000000000001265b .LASF1677
C:\Users\CYMR90~1\AppData\Local\Temp\ccxAEgth.s:31208  .debug_str:000000000002c537 .LASF1678
C:\Users\CYMR90~1\AppData\Local\Temp\ccxAEgth.s:20739  .debug_str:0000000000002623 .LASF1679
C:\Users\CYMR90~1\AppData\Local\Temp\ccxAEgth.s:24257  .debug_str:000000000001079f .LASF1680
C:\Users\CYMR90~1\AppData\Local\Temp\ccxAEgth.s:25429  .debug_str:00000000000152db .LASF1681
C:\Users\CYMR90~1\AppData\Local\Temp\ccxAEgth.s:24103  .debug_str:000000000000fe79 .LASF1682
C:\Users\CYMR90~1\AppData\Local\Temp\ccxAEgth.s:26796  .debug_str:000000000001acbf .LASF1683
C:\Users\CYMR90~1\AppData\Local\Temp\ccxAEgth.s:28874  .debug_str:0000000000022e3d .LASF1684
C:\Users\CYMR90~1\AppData\Local\Temp\ccxAEgth.s:29802  .debug_str:0000000000026af0 .LASF1685
C:\Users\CYMR90~1\AppData\Local\Temp\ccxAEgth.s:24255  .debug_str:0000000000010787 .LASF1686
C:\Users\CYMR90~1\AppData\Local\Temp\ccxAEgth.s:28190  .debug_str:00000000000204d6 .LASF1687
C:\Users\CYMR90~1\AppData\Local\Temp\ccxAEgth.s:30522  .debug_str:0000000000029a25 .LASF1688
C:\Users\CYMR90~1\AppData\Local\Temp\ccxAEgth.s:29056  .debug_str:0000000000023926 .LASF1689
C:\Users\CYMR90~1\AppData\Local\Temp\ccxAEgth.s:26912  .debug_str:000000000001b440 .LASF1690
C:\Users\CYMR90~1\AppData\Local\Temp\ccxAEgth.s:24993  .debug_str:000000000001381c .LASF1691
C:\Users\CYMR90~1\AppData\Local\Temp\ccxAEgth.s:28600  .debug_str:0000000000021dd1 .LASF1692
C:\Users\CYMR90~1\AppData\Local\Temp\ccxAEgth.s:26228  .debug_str:0000000000018657 .LASF1693
C:\Users\CYMR90~1\AppData\Local\Temp\ccxAEgth.s:22133  .debug_str:0000000000008005 .LASF1694
C:\Users\CYMR90~1\AppData\Local\Temp\ccxAEgth.s:24175  .debug_str:00000000000102bc .LASF1695
C:\Users\CYMR90~1\AppData\Local\Temp\ccxAEgth.s:26008  .debug_str:0000000000017949 .LASF1696
C:\Users\CYMR90~1\AppData\Local\Temp\ccxAEgth.s:25311  .debug_str:0000000000014b6c .LASF1697
C:\Users\CYMR90~1\AppData\Local\Temp\ccxAEgth.s:27844  .debug_str:000000000001ef97 .LASF1698
C:\Users\CYMR90~1\AppData\Local\Temp\ccxAEgth.s:26406  .debug_str:00000000000192b7 .LASF1699
C:\Users\CYMR90~1\AppData\Local\Temp\ccxAEgth.s:28306  .debug_str:0000000000020c0b .LASF1700
C:\Users\CYMR90~1\AppData\Local\Temp\ccxAEgth.s:27840  .debug_str:000000000001ef5a .LASF1701
C:\Users\CYMR90~1\AppData\Local\Temp\ccxAEgth.s:29102  .debug_str:0000000000023bbe .LASF1702
C:\Users\CYMR90~1\AppData\Local\Temp\ccxAEgth.s:29062  .debug_str:0000000000023975 .LASF1703
C:\Users\CYMR90~1\AppData\Local\Temp\ccxAEgth.s:28590  .debug_str:0000000000021d37 .LASF1704
C:\Users\CYMR90~1\AppData\Local\Temp\ccxAEgth.s:27034  .debug_str:000000000001bb7a .LASF1705
C:\Users\CYMR90~1\AppData\Local\Temp\ccxAEgth.s:28448  .debug_str:0000000000021489 .LASF1706
C:\Users\CYMR90~1\AppData\Local\Temp\ccxAEgth.s:25916  .debug_str:0000000000017357 .LASF1707
C:\Users\CYMR90~1\AppData\Local\Temp\ccxAEgth.s:24907  .debug_str:00000000000132b9 .LASF1708
C:\Users\CYMR90~1\AppData\Local\Temp\ccxAEgth.s:27592  .debug_str:000000000001e099 .LASF1709
C:\Users\CYMR90~1\AppData\Local\Temp\ccxAEgth.s:26146  .debug_str:0000000000018157 .LASF1710
C:\Users\CYMR90~1\AppData\Local\Temp\ccxAEgth.s:23053  .debug_str:000000000000bbba .LASF1711
C:\Users\CYMR90~1\AppData\Local\Temp\ccxAEgth.s:24547  .debug_str:0000000000011ae4 .LASF1712
C:\Users\CYMR90~1\AppData\Local\Temp\ccxAEgth.s:21675  .debug_str:0000000000006179 .LASF1713
C:\Users\CYMR90~1\AppData\Local\Temp\ccxAEgth.s:24017  .debug_str:000000000000f8d2 .LASF1714
C:\Users\CYMR90~1\AppData\Local\Temp\ccxAEgth.s:20957  .debug_str:0000000000003457 .LASF1715
C:\Users\CYMR90~1\AppData\Local\Temp\ccxAEgth.s:24253  .debug_str:000000000001075b .LASF1716
C:\Users\CYMR90~1\AppData\Local\Temp\ccxAEgth.s:27560  .debug_str:000000000001deb8 .LASF1717
C:\Users\CYMR90~1\AppData\Local\Temp\ccxAEgth.s:26108  .debug_str:0000000000017f1c .LASF1718
C:\Users\CYMR90~1\AppData\Local\Temp\ccxAEgth.s:24493  .debug_str:0000000000011675 .LASF1719
C:\Users\CYMR90~1\AppData\Local\Temp\ccxAEgth.s:26472  .debug_str:00000000000196e8 .LASF1720
C:\Users\CYMR90~1\AppData\Local\Temp\ccxAEgth.s:24985  .debug_str:0000000000013799 .LASF1721
C:\Users\CYMR90~1\AppData\Local\Temp\ccxAEgth.s:20667  .debug_str:00000000000021cd .LASF1722
C:\Users\CYMR90~1\AppData\Local\Temp\ccxAEgth.s:26804  .debug_str:000000000001ad5e .LASF1723
C:\Users\CYMR90~1\AppData\Local\Temp\ccxAEgth.s:20731  .debug_str:00000000000025ad .LASF1724
C:\Users\CYMR90~1\AppData\Local\Temp\ccxAEgth.s:25497  .debug_str:0000000000015690 .LASF1725
C:\Users\CYMR90~1\AppData\Local\Temp\ccxAEgth.s:30320  .debug_str:0000000000028d40 .LASF1726
C:\Users\CYMR90~1\AppData\Local\Temp\ccxAEgth.s:28738  .debug_str:00000000000225e7 .LASF1727
C:\Users\CYMR90~1\AppData\Local\Temp\ccxAEgth.s:29962  .debug_str:000000000002754c .LASF1728
C:\Users\CYMR90~1\AppData\Local\Temp\ccxAEgth.s:27250  .debug_str:000000000001c9a4 .LASF1729
C:\Users\CYMR90~1\AppData\Local\Temp\ccxAEgth.s:31118  .debug_str:000000000002bf34 .LASF1730
C:\Users\CYMR90~1\AppData\Local\Temp\ccxAEgth.s:29792  .debug_str:0000000000026a55 .LASF1731
C:\Users\CYMR90~1\AppData\Local\Temp\ccxAEgth.s:24425  .debug_str:0000000000011218 .LASF1732
C:\Users\CYMR90~1\AppData\Local\Temp\ccxAEgth.s:22441  .debug_str:000000000000931b .LASF1733
C:\Users\CYMR90~1\AppData\Local\Temp\ccxAEgth.s:20437  .debug_str:000000000000144f .LASF1734
C:\Users\CYMR90~1\AppData\Local\Temp\ccxAEgth.s:25872  .debug_str:00000000000170e3 .LASF1735
C:\Users\CYMR90~1\AppData\Local\Temp\ccxAEgth.s:28020  .debug_str:000000000001fa39 .LASF1736
C:\Users\CYMR90~1\AppData\Local\Temp\ccxAEgth.s:22433  .debug_str:00000000000092a5 .LASF1737
C:\Users\CYMR90~1\AppData\Local\Temp\ccxAEgth.s:22153  .debug_str:0000000000008155 .LASF1738
C:\Users\CYMR90~1\AppData\Local\Temp\ccxAEgth.s:29798  .debug_str:0000000000026ac1 .LASF1739
C:\Users\CYMR90~1\AppData\Local\Temp\ccxAEgth.s:23775  .debug_str:000000000000e980 .LASF1740
C:\Users\CYMR90~1\AppData\Local\Temp\ccxAEgth.s:22781  .debug_str:000000000000a96b .LASF1741
C:\Users\CYMR90~1\AppData\Local\Temp\ccxAEgth.s:27864  .debug_str:000000000001f0b8 .LASF1742
C:\Users\CYMR90~1\AppData\Local\Temp\ccxAEgth.s:27516  .debug_str:000000000001dbe5 .LASF1743
C:\Users\CYMR90~1\AppData\Local\Temp\ccxAEgth.s:30076  .debug_str:0000000000027c97 .LASF1744
C:\Users\CYMR90~1\AppData\Local\Temp\ccxAEgth.s:22157  .debug_str:000000000000819f .LASF1745
C:\Users\CYMR90~1\AppData\Local\Temp\ccxAEgth.s:24075  .debug_str:000000000000fc8b .LASF1746
C:\Users\CYMR90~1\AppData\Local\Temp\ccxAEgth.s:29106  .debug_str:0000000000023c04 .LASF1747
C:\Users\CYMR90~1\AppData\Local\Temp\ccxAEgth.s:28708  .debug_str:00000000000223f9 .LASF1748
C:\Users\CYMR90~1\AppData\Local\Temp\ccxAEgth.s:24249  .debug_str:0000000000010720 .LASF1749
C:\Users\CYMR90~1\AppData\Local\Temp\ccxAEgth.s:22939  .debug_str:000000000000b42b .LASF1750
C:\Users\CYMR90~1\AppData\Local\Temp\ccxAEgth.s:26044  .debug_str:0000000000017b52 .LASF1751
C:\Users\CYMR90~1\AppData\Local\Temp\ccxAEgth.s:21317  .debug_str:0000000000004c37 .LASF1752
C:\Users\CYMR90~1\AppData\Local\Temp\ccxAEgth.s:26778  .debug_str:000000000001abb8 .LASF1753
C:\Users\CYMR90~1\AppData\Local\Temp\ccxAEgth.s:26676  .debug_str:000000000001a4f0 .LASF1754
C:\Users\CYMR90~1\AppData\Local\Temp\ccxAEgth.s:23211  .debug_str:000000000000c5ee .LASF1755
C:\Users\CYMR90~1\AppData\Local\Temp\ccxAEgth.s:24799  .debug_str:0000000000012b24 .LASF1756
C:\Users\CYMR90~1\AppData\Local\Temp\ccxAEgth.s:26870  .debug_str:000000000001b1db .LASF1757
C:\Users\CYMR90~1\AppData\Local\Temp\ccxAEgth.s:23869  .debug_str:000000000000eeb7 .LASF1758
C:\Users\CYMR90~1\AppData\Local\Temp\ccxAEgth.s:21975  .debug_str:0000000000007492 .LASF1759
C:\Users\CYMR90~1\AppData\Local\Temp\ccxAEgth.s:26620  .debug_str:000000000001a036 .LASF1760
C:\Users\CYMR90~1\AppData\Local\Temp\ccxAEgth.s:22261  .debug_str:000000000000882f .LASF1761
C:\Users\CYMR90~1\AppData\Local\Temp\ccxAEgth.s:20499  .debug_str:0000000000001823 .LASF1762
C:\Users\CYMR90~1\AppData\Local\Temp\ccxAEgth.s:29298  .debug_str:0000000000024910 .LASF1763
C:\Users\CYMR90~1\AppData\Local\Temp\ccxAEgth.s:22005  .debug_str:0000000000007689 .LASF1764
C:\Users\CYMR90~1\AppData\Local\Temp\ccxAEgth.s:21689  .debug_str:0000000000006272 .LASF1765
C:\Users\CYMR90~1\AppData\Local\Temp\ccxAEgth.s:20479  .debug_str:00000000000016cf .LASF1766
C:\Users\CYMR90~1\AppData\Local\Temp\ccxAEgth.s:25557  .debug_str:0000000000015a7c .LASF1767
C:\Users\CYMR90~1\AppData\Local\Temp\ccxAEgth.s:20539  .debug_str:0000000000001a71 .LASF1768
C:\Users\CYMR90~1\AppData\Local\Temp\ccxAEgth.s:29500  .debug_str:0000000000025809 .LASF1769
C:\Users\CYMR90~1\AppData\Local\Temp\ccxAEgth.s:31192  .debug_str:000000000002c431 .LASF1770
C:\Users\CYMR90~1\AppData\Local\Temp\ccxAEgth.s:23105  .debug_str:000000000000bf4f .LASF1771
C:\Users\CYMR90~1\AppData\Local\Temp\ccxAEgth.s:22685  .debug_str:000000000000a2d2 .LASF1772
C:\Users\CYMR90~1\AppData\Local\Temp\ccxAEgth.s:31254  .debug_str:000000000002c7df .LASF1773
C:\Users\CYMR90~1\AppData\Local\Temp\ccxAEgth.s:20263  .debug_str:000000000000099f .LASF1774
C:\Users\CYMR90~1\AppData\Local\Temp\ccxAEgth.s:30222  .debug_str:000000000002877a .LASF1775
C:\Users\CYMR90~1\AppData\Local\Temp\ccxAEgth.s:25209  .debug_str:000000000001451f .LASF1776
C:\Users\CYMR90~1\AppData\Local\Temp\ccxAEgth.s:23951  .debug_str:000000000000f48b .LASF1777
C:\Users\CYMR90~1\AppData\Local\Temp\ccxAEgth.s:26034  .debug_str:0000000000017acb .LASF1778
C:\Users\CYMR90~1\AppData\Local\Temp\ccxAEgth.s:21415  .debug_str:0000000000005227 .LASF1779
C:\Users\CYMR90~1\AppData\Local\Temp\ccxAEgth.s:29538  .debug_str:0000000000025a78 .LASF1780
C:\Users\CYMR90~1\AppData\Local\Temp\ccxAEgth.s:28742  .debug_str:0000000000022650 .LASF1781
C:\Users\CYMR90~1\AppData\Local\Temp\ccxAEgth.s:27258  .debug_str:000000000001ca46 .LASF1784
C:\Users\CYMR90~1\AppData\Local\Temp\ccxAEgth.s:26418  .debug_str:000000000001936a .LASF1785
C:\Users\CYMR90~1\AppData\Local\Temp\ccxAEgth.s:26264  .debug_str:0000000000018884 .LASF1786
C:\Users\CYMR90~1\AppData\Local\Temp\ccxAEgth.s:25251  .debug_str:00000000000147b1 .LASF1787
C:\Users\CYMR90~1\AppData\Local\Temp\ccxAEgth.s:30654  .debug_str:000000000002a1d2 .LASF1788
C:\Users\CYMR90~1\AppData\Local\Temp\ccxAEgth.s:26814  .debug_str:000000000001ae43 .LASF1789
C:\Users\CYMR90~1\AppData\Local\Temp\ccxAEgth.s:21001  .debug_str:0000000000003732 .LASF1790
C:\Users\CYMR90~1\AppData\Local\Temp\ccxAEgth.s:20129  .debug_str:00000000000001e0 .LASF1791
C:\Users\CYMR90~1\AppData\Local\Temp\ccxAEgth.s:29884  .debug_str:0000000000026fe1 .LASF1792
C:\Users\CYMR90~1\AppData\Local\Temp\ccxAEgth.s:28954  .debug_str:0000000000023286 .LASF1793
C:\Users\CYMR90~1\AppData\Local\Temp\ccxAEgth.s:30840  .debug_str:000000000002acfb .LASF1794
C:\Users\CYMR90~1\AppData\Local\Temp\ccxAEgth.s:30156  .debug_str:00000000000282f4 .LASF1795
C:\Users\CYMR90~1\AppData\Local\Temp\ccxAEgth.s:24919  .debug_str:0000000000013383 .LASF1796
C:\Users\CYMR90~1\AppData\Local\Temp\ccxAEgth.s:25197  .debug_str:0000000000014433 .LASF1797
C:\Users\CYMR90~1\AppData\Local\Temp\ccxAEgth.s:24313  .debug_str:0000000000010bc5 .LASF1798
C:\Users\CYMR90~1\AppData\Local\Temp\ccxAEgth.s:23131  .debug_str:000000000000c11b .LASF1799
C:\Users\CYMR90~1\AppData\Local\Temp\ccxAEgth.s:25950  .debug_str:0000000000017591 .LASF1800
C:\Users\CYMR90~1\AppData\Local\Temp\ccxAEgth.s:26256  .debug_str:0000000000018813 .LASF1801
C:\Users\CYMR90~1\AppData\Local\Temp\ccxAEgth.s:25333  .debug_str:0000000000014d0c .LASF1802
C:\Users\CYMR90~1\AppData\Local\Temp\ccxAEgth.s:24371  .debug_str:0000000000010ed4 .LASF1803
C:\Users\CYMR90~1\AppData\Local\Temp\ccxAEgth.s:23847  .debug_str:000000000000ed82 .LASF1804
C:\Users\CYMR90~1\AppData\Local\Temp\ccxAEgth.s:28534  .debug_str:00000000000219e4 .LASF1805
C:\Users\CYMR90~1\AppData\Local\Temp\ccxAEgth.s:25219  .debug_str:00000000000145d7 .LASF1806
C:\Users\CYMR90~1\AppData\Local\Temp\ccxAEgth.s:28136  .debug_str:0000000000020102 .LASF1807
C:\Users\CYMR90~1\AppData\Local\Temp\ccxAEgth.s:25357  .debug_str:0000000000014ea2 .LASF1808
C:\Users\CYMR90~1\AppData\Local\Temp\ccxAEgth.s:23035  .debug_str:000000000000ba64 .LASF1809
C:\Users\CYMR90~1\AppData\Local\Temp\ccxAEgth.s:27350  .debug_str:000000000001d125 .LASF1810
C:\Users\CYMR90~1\AppData\Local\Temp\ccxAEgth.s:26050  .debug_str:0000000000017bc7 .LASF1811
C:\Users\CYMR90~1\AppData\Local\Temp\ccxAEgth.s:20459  .debug_str:000000000000158d .LASF1812
C:\Users\CYMR90~1\AppData\Local\Temp\ccxAEgth.s:24263  .debug_str:00000000000107e5 .LASF1813
C:\Users\CYMR90~1\AppData\Local\Temp\ccxAEgth.s:24531  .debug_str:0000000000011a03 .LASF1814
C:\Users\CYMR90~1\AppData\Local\Temp\ccxAEgth.s:27332  .debug_str:000000000001d02d .LASF1815
C:\Users\CYMR90~1\AppData\Local\Temp\ccxAEgth.s:26014  .debug_str:00000000000179bb .LASF1816
C:\Users\CYMR90~1\AppData\Local\Temp\ccxAEgth.s:27340  .debug_str:000000000001d0ab .LASF1817
C:\Users\CYMR90~1\AppData\Local\Temp\ccxAEgth.s:27788  .debug_str:000000000001ec00 .LASF1818
C:\Users\CYMR90~1\AppData\Local\Temp\ccxAEgth.s:24071  .debug_str:000000000000fc53 .LASF1819
C:\Users\CYMR90~1\AppData\Local\Temp\ccxAEgth.s:28276  .debug_str:0000000000020a32 .LASF1820
C:\Users\CYMR90~1\AppData\Local\Temp\ccxAEgth.s:21715  .debug_str:00000000000063e4 .LASF1821
C:\Users\CYMR90~1\AppData\Local\Temp\ccxAEgth.s:22093  .debug_str:0000000000007cd4 .LASF1822
C:\Users\CYMR90~1\AppData\Local\Temp\ccxAEgth.s:27720  .debug_str:000000000001e87b .LASF1823
C:\Users\CYMR90~1\AppData\Local\Temp\ccxAEgth.s:30430  .debug_str:00000000000294a6 .LASF1824
C:\Users\CYMR90~1\AppData\Local\Temp\ccxAEgth.s:23005  .debug_str:000000000000b8b1 .LASF1825
C:\Users\CYMR90~1\AppData\Local\Temp\ccxAEgth.s:28374  .debug_str:0000000000020fa6 .LASF1826
C:\Users\CYMR90~1\AppData\Local\Temp\ccxAEgth.s:24007  .debug_str:000000000000f865 .LASF1827
C:\Users\CYMR90~1\AppData\Local\Temp\ccxAEgth.s:23819  .debug_str:000000000000ebff .LASF1828
C:\Users\CYMR90~1\AppData\Local\Temp\ccxAEgth.s:23889  .debug_str:000000000000f02c .LASF1829
C:\Users\CYMR90~1\AppData\Local\Temp\ccxAEgth.s:24675  .debug_str:0000000000012303 .LASF1830
C:\Users\CYMR90~1\AppData\Local\Temp\ccxAEgth.s:22461  .debug_str:00000000000094b2 .LASF1831
C:\Users\CYMR90~1\AppData\Local\Temp\ccxAEgth.s:29828  .debug_str:0000000000026c4b .LASF1832
C:\Users\CYMR90~1\AppData\Local\Temp\ccxAEgth.s:23267  .debug_str:000000000000c9ed .LASF1833
C:\Users\CYMR90~1\AppData\Local\Temp\ccxAEgth.s:21915  .debug_str:000000000000711a .LASF1834
C:\Users\CYMR90~1\AppData\Local\Temp\ccxAEgth.s:25645  .debug_str:0000000000016070 .LASF1835
C:\Users\CYMR90~1\AppData\Local\Temp\ccxAEgth.s:29694  .debug_str:000000000002643b .LASF1836
C:\Users\CYMR90~1\AppData\Local\Temp\ccxAEgth.s:25615  .debug_str:0000000000015eb0 .LASF1837
C:\Users\CYMR90~1\AppData\Local\Temp\ccxAEgth.s:26344  .debug_str:0000000000018e2d .LASF1838
C:\Users\CYMR90~1\AppData\Local\Temp\ccxAEgth.s:24317  .debug_str:0000000000010bfd .LASF1839
C:\Users\CYMR90~1\AppData\Local\Temp\ccxAEgth.s:27288  .debug_str:000000000001ccc0 .LASF1840
C:\Users\CYMR90~1\AppData\Local\Temp\ccxAEgth.s:26582  .debug_str:0000000000019e13 .LASF1841
C:\Users\CYMR90~1\AppData\Local\Temp\ccxAEgth.s:29380  .debug_str:0000000000024e76 .LASF1842
C:\Users\CYMR90~1\AppData\Local\Temp\ccxAEgth.s:29782  .debug_str:00000000000269b4 .LASF1843
C:\Users\CYMR90~1\AppData\Local\Temp\ccxAEgth.s:30980  .debug_str:000000000002b5f7 .LASF1844
C:\Users\CYMR90~1\AppData\Local\Temp\ccxAEgth.s:30834  .debug_str:000000000002aca8 .LASF1845
C:\Users\CYMR90~1\AppData\Local\Temp\ccxAEgth.s:22193  .debug_str:00000000000083ef .LASF1846
C:\Users\CYMR90~1\AppData\Local\Temp\ccxAEgth.s:27492  .debug_str:000000000001d9e4 .LASF1847
C:\Users\CYMR90~1\AppData\Local\Temp\ccxAEgth.s:28644  .debug_str:0000000000022074 .LASF1848
C:\Users\CYMR90~1\AppData\Local\Temp\ccxAEgth.s:28660  .debug_str:000000000002216d .LASF1849
C:\Users\CYMR90~1\AppData\Local\Temp\ccxAEgth.s:27874  .debug_str:000000000001f156 .LASF1850
C:\Users\CYMR90~1\AppData\Local\Temp\ccxAEgth.s:22253  .debug_str:00000000000087ac .LASF1851
C:\Users\CYMR90~1\AppData\Local\Temp\ccxAEgth.s:29736  .debug_str:00000000000266e9 .LASF1852
C:\Users\CYMR90~1\AppData\Local\Temp\ccxAEgth.s:23507  .debug_str:000000000000d919 .LASF1853
C:\Users\CYMR90~1\AppData\Local\Temp\ccxAEgth.s:20905  .debug_str:0000000000003109 .LASF1854
C:\Users\CYMR90~1\AppData\Local\Temp\ccxAEgth.s:27370  .debug_str:000000000001d26a .LASF1855
C:\Users\CYMR90~1\AppData\Local\Temp\ccxAEgth.s:30002  .debug_str:000000000002779a .LASF1856
C:\Users\CYMR90~1\AppData\Local\Temp\ccxAEgth.s:22339  .debug_str:0000000000008d5b .LASF1857
C:\Users\CYMR90~1\AppData\Local\Temp\ccxAEgth.s:23193  .debug_str:000000000000c4e1 .LASF1858
C:\Users\CYMR90~1\AppData\Local\Temp\ccxAEgth.s:30096  .debug_str:0000000000027dfa .LASF1859
C:\Users\CYMR90~1\AppData\Local\Temp\ccxAEgth.s:25363  .debug_str:0000000000014f03 .LASF1860
C:\Users\CYMR90~1\AppData\Local\Temp\ccxAEgth.s:26286  .debug_str:0000000000018a78 .LASF1861
C:\Users\CYMR90~1\AppData\Local\Temp\ccxAEgth.s:24121  .debug_str:000000000000ff71 .LASF1862
C:\Users\CYMR90~1\AppData\Local\Temp\ccxAEgth.s:21867  .debug_str:0000000000006d85 .LASF1863
C:\Users\CYMR90~1\AppData\Local\Temp\ccxAEgth.s:26196  .debug_str:0000000000018449 .LASF1864
C:\Users\CYMR90~1\AppData\Local\Temp\ccxAEgth.s:21519  .debug_str:0000000000005814 .LASF1865
C:\Users\CYMR90~1\AppData\Local\Temp\ccxAEgth.s:28844  .debug_str:0000000000022c86 .LASF1866
C:\Users\CYMR90~1\AppData\Local\Temp\ccxAEgth.s:28064  .debug_str:000000000001fcfc .LASF1867
C:\Users\CYMR90~1\AppData\Local\Temp\ccxAEgth.s:23129  .debug_str:000000000000c0eb .LASF1868
C:\Users\CYMR90~1\AppData\Local\Temp\ccxAEgth.s:20243  .debug_str:0000000000000871 .LASF1869
C:\Users\CYMR90~1\AppData\Local\Temp\ccxAEgth.s:20607  .debug_str:0000000000001e7a .LASF1870
C:\Users\CYMR90~1\AppData\Local\Temp\ccxAEgth.s:30380  .debug_str:000000000002910f .LASF1871
C:\Users\CYMR90~1\AppData\Local\Temp\ccxAEgth.s:29476  .debug_str:00000000000255ee .LASF1872
C:\Users\CYMR90~1\AppData\Local\Temp\ccxAEgth.s:25487  .debug_str:00000000000155f1 .LASF1873
C:\Users\CYMR90~1\AppData\Local\Temp\ccxAEgth.s:22039  .debug_str:00000000000078e2 .LASF1874
C:\Users\CYMR90~1\AppData\Local\Temp\ccxAEgth.s:22919  .debug_str:000000000000b280 .LASF1875
C:\Users\CYMR90~1\AppData\Local\Temp\ccxAEgth.s:30556  .debug_str:0000000000029c35 .LASF1876
C:\Users\CYMR90~1\AppData\Local\Temp\ccxAEgth.s:20923  .debug_str:0000000000003225 .LASF1877
C:\Users\CYMR90~1\AppData\Local\Temp\ccxAEgth.s:27552  .debug_str:000000000001de44 .LASF1878
C:\Users\CYMR90~1\AppData\Local\Temp\ccxAEgth.s:23955  .debug_str:000000000000f4c4 .LASF1879
C:\Users\CYMR90~1\AppData\Local\Temp\ccxAEgth.s:22297  .debug_str:0000000000008a54 .LASF1880
C:\Users\CYMR90~1\AppData\Local\Temp\ccxAEgth.s:27856  .debug_str:000000000001f03f .LASF1881
C:\Users\CYMR90~1\AppData\Local\Temp\ccxAEgth.s:20357  .debug_str:0000000000000fa5 .LASF1882
C:\Users\CYMR90~1\AppData\Local\Temp\ccxAEgth.s:28264  .debug_str:000000000002095b .LASF1883
C:\Users\CYMR90~1\AppData\Local\Temp\ccxAEgth.s:30976  .debug_str:000000000002b5af .LASF1884
C:\Users\CYMR90~1\AppData\Local\Temp\ccxAEgth.s:27966  .debug_str:000000000001f6d6 .LASF1885
C:\Users\CYMR90~1\AppData\Local\Temp\ccxAEgth.s:30112  .debug_str:0000000000027efa .LASF1886
C:\Users\CYMR90~1\AppData\Local\Temp\ccxAEgth.s:22517  .debug_str:0000000000009879 .LASF1887
C:\Users\CYMR90~1\AppData\Local\Temp\ccxAEgth.s:22329  .debug_str:0000000000008cb2 .LASF1888
C:\Users\CYMR90~1\AppData\Local\Temp\ccxAEgth.s:31008  .debug_str:000000000002b790 .LASF1889
C:\Users\CYMR90~1\AppData\Local\Temp\ccxAEgth.s:26434  .debug_str:0000000000019429 .LASF1890
C:\Users\CYMR90~1\AppData\Local\Temp\ccxAEgth.s:22509  .debug_str:00000000000097d3 .LASF1891
C:\Users\CYMR90~1\AppData\Local\Temp\ccxAEgth.s:22603  .debug_str:0000000000009db7 .LASF1892
C:\Users\CYMR90~1\AppData\Local\Temp\ccxAEgth.s:27180  .debug_str:000000000001c470 .LASF1893
C:\Users\CYMR90~1\AppData\Local\Temp\ccxAEgth.s:22323  .debug_str:0000000000008c46 .LASF1894
C:\Users\CYMR90~1\AppData\Local\Temp\ccxAEgth.s:23573  .debug_str:000000000000dd21 .LASF1895
C:\Users\CYMR90~1\AppData\Local\Temp\ccxAEgth.s:25882  .debug_str:0000000000017177 .LASF1896
C:\Users\CYMR90~1\AppData\Local\Temp\ccxAEgth.s:20559  .debug_str:0000000000001b9a .LASF1897
C:\Users\CYMR90~1\AppData\Local\Temp\ccxAEgth.s:29852  .debug_str:0000000000026dfc .LASF1898
C:\Users\CYMR90~1\AppData\Local\Temp\ccxAEgth.s:26682  .debug_str:000000000001a562 .LASF1899
C:\Users\CYMR90~1\AppData\Local\Temp\ccxAEgth.s:23401  .debug_str:000000000000d2b1 .LASF1900
C:\Users\CYMR90~1\AppData\Local\Temp\ccxAEgth.s:20165  .debug_str:0000000000000408 .LASF1901
C:\Users\CYMR90~1\AppData\Local\Temp\ccxAEgth.s:20985  .debug_str:000000000000360a .LASF1902
C:\Users\CYMR90~1\AppData\Local\Temp\ccxAEgth.s:23029  .debug_str:000000000000b9e5 .LASF1903
C:\Users\CYMR90~1\AppData\Local\Temp\ccxAEgth.s:31256  .debug_str:000000000002c806 .LASF1904
C:\Users\CYMR90~1\AppData\Local\Temp\ccxAEgth.s:25747  .debug_str:000000000001673c .LASF1905
C:\Users\CYMR90~1\AppData\Local\Temp\ccxAEgth.s:22479  .debug_str:0000000000009597 .LASF1906
C:\Users\CYMR90~1\AppData\Local\Temp\ccxAEgth.s:30190  .debug_str:000000000002850a .LASF1907
C:\Users\CYMR90~1\AppData\Local\Temp\ccxAEgth.s:27218  .debug_str:000000000001c7b2 .LASF1908
C:\Users\CYMR90~1\AppData\Local\Temp\ccxAEgth.s:21507  .debug_str:000000000000574a .LASF1909
C:\Users\CYMR90~1\AppData\Local\Temp\ccxAEgth.s:30548  .debug_str:0000000000029bb8 .LASF1910
C:\Users\CYMR90~1\AppData\Local\Temp\ccxAEgth.s:26858  .debug_str:000000000001b123 .LASF1911
C:\Users\CYMR90~1\AppData\Local\Temp\ccxAEgth.s:26536  .debug_str:0000000000019b73 .LASF1912
C:\Users\CYMR90~1\AppData\Local\Temp\ccxAEgth.s:22937  .debug_str:000000000000b40c .LASF1913
C:\Users\CYMR90~1\AppData\Local\Temp\ccxAEgth.s:22777  .debug_str:000000000000a913 .LASF1914
C:\Users\CYMR90~1\AppData\Local\Temp\ccxAEgth.s:28168  .debug_str:000000000002031f .LASF1915
C:\Users\CYMR90~1\AppData\Local\Temp\ccxAEgth.s:29452  .debug_str:000000000002541d .LASF1916
C:\Users\CYMR90~1\AppData\Local\Temp\ccxAEgth.s:26048  .debug_str:0000000000017b9b .LASF1917
C:\Users\CYMR90~1\AppData\Local\Temp\ccxAEgth.s:22677  .debug_str:000000000000a268 .LASF1918
C:\Users\CYMR90~1\AppData\Local\Temp\ccxAEgth.s:30604  .debug_str:0000000000029ede .LASF1919
C:\Users\CYMR90~1\AppData\Local\Temp\ccxAEgth.s:27190  .debug_str:000000000001c53a .LASF1920
C:\Users\CYMR90~1\AppData\Local\Temp\ccxAEgth.s:22977  .debug_str:000000000000b6a2 .LASF1921
C:\Users\CYMR90~1\AppData\Local\Temp\ccxAEgth.s:21887  .debug_str:0000000000006efa .LASF1922
C:\Users\CYMR90~1\AppData\Local\Temp\ccxAEgth.s:28238  .debug_str:00000000000207cf .LASF1923
C:\Users\CYMR90~1\AppData\Local\Temp\ccxAEgth.s:30334  .debug_str:0000000000028e2c .LASF1924
C:\Users\CYMR90~1\AppData\Local\Temp\ccxAEgth.s:22797  .debug_str:000000000000aa66 .LASF1925
C:\Users\CYMR90~1\AppData\Local\Temp\ccxAEgth.s:28062  .debug_str:000000000001fcce .LASF1926
C:\Users\CYMR90~1\AppData\Local\Temp\ccxAEgth.s:27084  .debug_str:000000000001beb6 .LASF1927
C:\Users\CYMR90~1\AppData\Local\Temp\ccxAEgth.s:21023  .debug_str:0000000000003876 .LASF1928
C:\Users\CYMR90~1\AppData\Local\Temp\ccxAEgth.s:21939  .debug_str:0000000000007279 .LASF1929
C:\Users\CYMR90~1\AppData\Local\Temp\ccxAEgth.s:27988  .debug_str:000000000001f824 .LASF1930
C:\Users\CYMR90~1\AppData\Local\Temp\ccxAEgth.s:31284  .debug_str:000000000002c9f1 .LASF1931
C:\Users\CYMR90~1\AppData\Local\Temp\ccxAEgth.s:30968  .debug_str:000000000002b515 .LASF1932
C:\Users\CYMR90~1\AppData\Local\Temp\ccxAEgth.s:22051  .debug_str:000000000000798c .LASF1933
C:\Users\CYMR90~1\AppData\Local\Temp\ccxAEgth.s:23109  .debug_str:000000000000bfaa .LASF1934
C:\Users\CYMR90~1\AppData\Local\Temp\ccxAEgth.s:27162  .debug_str:000000000001c335 .LASF1935
C:\Users\CYMR90~1\AppData\Local\Temp\ccxAEgth.s:21549  .debug_str:0000000000005a0c .LASF1936
C:\Users\CYMR90~1\AppData\Local\Temp\ccxAEgth.s:27020  .debug_str:000000000001ba7d .LASF1937
C:\Users\CYMR90~1\AppData\Local\Temp\ccxAEgth.s:25996  .debug_str:000000000001789e .LASF1938
C:\Users\CYMR90~1\AppData\Local\Temp\ccxAEgth.s:25313  .debug_str:0000000000014b98 .LASF1939
C:\Users\CYMR90~1\AppData\Local\Temp\ccxAEgth.s:22237  .debug_str:000000000000867a .LASF1940
C:\Users\CYMR90~1\AppData\Local\Temp\ccxAEgth.s:30398  .debug_str:0000000000029243 .LASF1941
C:\Users\CYMR90~1\AppData\Local\Temp\ccxAEgth.s:27270  .debug_str:000000000001cb03 .LASF1942
C:\Users\CYMR90~1\AppData\Local\Temp\ccxAEgth.s:23163  .debug_str:000000000000c2eb .LASF1943
C:\Users\CYMR90~1\AppData\Local\Temp\ccxAEgth.s:24299  .debug_str:0000000000010a77 .LASF1944
C:\Users\CYMR90~1\AppData\Local\Temp\ccxAEgth.s:28098  .debug_str:000000000001ff0e .LASF1945
C:\Users\CYMR90~1\AppData\Local\Temp\ccxAEgth.s:25029  .debug_str:0000000000013a3a .LASF1946
C:\Users\CYMR90~1\AppData\Local\Temp\ccxAEgth.s:21833  .debug_str:0000000000006b6f .LASF1947
C:\Users\CYMR90~1\AppData\Local\Temp\ccxAEgth.s:20761  .debug_str:00000000000027cc .LASF1948
C:\Users\CYMR90~1\AppData\Local\Temp\ccxAEgth.s:26910  .debug_str:000000000001b421 .LASF1949
C:\Users\CYMR90~1\AppData\Local\Temp\ccxAEgth.s:23837  .debug_str:000000000000ece2 .LASF1950
C:\Users\CYMR90~1\AppData\Local\Temp\ccxAEgth.s:20629  .debug_str:0000000000001f92 .LASF1951
C:\Users\CYMR90~1\AppData\Local\Temp\ccxAEgth.s:28860  .debug_str:0000000000022d57 .LASF1952
C:\Users\CYMR90~1\AppData\Local\Temp\ccxAEgth.s:29588  .debug_str:0000000000025d98 .LASF1953
C:\Users\CYMR90~1\AppData\Local\Temp\ccxAEgth.s:25155  .debug_str:00000000000141f1 .LASF1954
C:\Users\CYMR90~1\AppData\Local\Temp\ccxAEgth.s:28388  .debug_str:000000000002107b .LASF1955
C:\Users\CYMR90~1\AppData\Local\Temp\ccxAEgth.s:29058  .debug_str:000000000002393e .LASF1956
C:\Users\CYMR90~1\AppData\Local\Temp\ccxAEgth.s:20683  .debug_str:00000000000022b0 .LASF1957
C:\Users\CYMR90~1\AppData\Local\Temp\ccxAEgth.s:30806  .debug_str:000000000002ab1a .LASF1958
C:\Users\CYMR90~1\AppData\Local\Temp\ccxAEgth.s:22057  .debug_str:00000000000079fd .LASF1959
C:\Users\CYMR90~1\AppData\Local\Temp\ccxAEgth.s:30382  .debug_str:000000000002914e .LASF1960
C:\Users\CYMR90~1\AppData\Local\Temp\ccxAEgth.s:27226  .debug_str:000000000001c847 .LASF1961
C:\Users\CYMR90~1\AppData\Local\Temp\ccxAEgth.s:20205  .debug_str:000000000000062d .LASF1962
C:\Users\CYMR90~1\AppData\Local\Temp\ccxAEgth.s:25533  .debug_str:00000000000158b4 .LASF1963
C:\Users\CYMR90~1\AppData\Local\Temp\ccxAEgth.s:29434  .debug_str:00000000000252d0 .LASF1964
C:\Users\CYMR90~1\AppData\Local\Temp\ccxAEgth.s:21891  .debug_str:0000000000006f65 .LASF1965
C:\Users\CYMR90~1\AppData\Local\Temp\ccxAEgth.s:27360  .debug_str:000000000001d1ae .LASF1966
C:\Users\CYMR90~1\AppData\Local\Temp\ccxAEgth.s:30906  .debug_str:000000000002b0d3 .LASF1967
C:\Users\CYMR90~1\AppData\Local\Temp\ccxAEgth.s:27204  .debug_str:000000000001c6c9 .LASF1968
C:\Users\CYMR90~1\AppData\Local\Temp\ccxAEgth.s:28746  .debug_str:0000000000022690 .LASF1969
C:\Users\CYMR90~1\AppData\Local\Temp\ccxAEgth.s:21875  .debug_str:0000000000006e28 .LASF1970
C:\Users\CYMR90~1\AppData\Local\Temp\ccxAEgth.s:28750  .debug_str:00000000000226c1 .LASF1971
C:\Users\CYMR90~1\AppData\Local\Temp\ccxAEgth.s:29468  .debug_str:0000000000025544 .LASF1972
C:\Users\CYMR90~1\AppData\Local\Temp\ccxAEgth.s:26524  .debug_str:0000000000019ab3 .LASF1973
C:\Users\CYMR90~1\AppData\Local\Temp\ccxAEgth.s:26328  .debug_str:0000000000018d37 .LASF1974
C:\Users\CYMR90~1\AppData\Local\Temp\ccxAEgth.s:30854  .debug_str:000000000002adf3 .LASF1975
C:\Users\CYMR90~1\AppData\Local\Temp\ccxAEgth.s:22075  .debug_str:0000000000007ba9 .LASF1976
C:\Users\CYMR90~1\AppData\Local\Temp\ccxAEgth.s:22427  .debug_str:000000000000925c .LASF1977
C:\Users\CYMR90~1\AppData\Local\Temp\ccxAEgth.s:30626  .debug_str:000000000002a020 .LASF1978
C:\Users\CYMR90~1\AppData\Local\Temp\ccxAEgth.s:21371  .debug_str:0000000000004f74 .LASF1979
C:\Users\CYMR90~1\AppData\Local\Temp\ccxAEgth.s:29370  .debug_str:0000000000024dce .LASF1980
C:\Users\CYMR90~1\AppData\Local\Temp\ccxAEgth.s:29226  .debug_str:000000000002444c .LASF1981
C:\Users\CYMR90~1\AppData\Local\Temp\ccxAEgth.s:29066  .debug_str:00000000000239c5 .LASF1982
C:\Users\CYMR90~1\AppData\Local\Temp\ccxAEgth.s:29900  .debug_str:00000000000270ba .LASF1983
C:\Users\CYMR90~1\AppData\Local\Temp\ccxAEgth.s:30810  .debug_str:000000000002ab70 .LASF1984
C:\Users\CYMR90~1\AppData\Local\Temp\ccxAEgth.s:27750  .debug_str:000000000001e9ed .LASF1985
C:\Users\CYMR90~1\AppData\Local\Temp\ccxAEgth.s:26940  .debug_str:000000000001b60c .LASF1986
C:\Users\CYMR90~1\AppData\Local\Temp\ccxAEgth.s:25229  .debug_str:0000000000014660 .LASF1987
C:\Users\CYMR90~1\AppData\Local\Temp\ccxAEgth.s:26224  .debug_str:00000000000185e5 .LASF1988
C:\Users\CYMR90~1\AppData\Local\Temp\ccxAEgth.s:23261  .debug_str:000000000000c993 .LASF1989
C:\Users\CYMR90~1\AppData\Local\Temp\ccxAEgth.s:21115  .debug_str:0000000000003e81 .LASF1990
C:\Users\CYMR90~1\AppData\Local\Temp\ccxAEgth.s:23325  .debug_str:000000000000cd12 .LASF1991
C:\Users\CYMR90~1\AppData\Local\Temp\ccxAEgth.s:24217  .debug_str:0000000000010549 .LASF1992
C:\Users\CYMR90~1\AppData\Local\Temp\ccxAEgth.s:26944  .debug_str:000000000001b653 .LASF1993
C:\Users\CYMR90~1\AppData\Local\Temp\ccxAEgth.s:20353  .debug_str:0000000000000f75 .LASF1994
C:\Users\CYMR90~1\AppData\Local\Temp\ccxAEgth.s:29484  .debug_str:0000000000025682 .LASF1995
C:\Users\CYMR90~1\AppData\Local\Temp\ccxAEgth.s:20983  .debug_str:00000000000035d6 .LASF1996
C:\Users\CYMR90~1\AppData\Local\Temp\ccxAEgth.s:29950  .debug_str:00000000000274b4 .LASF1997
C:\Users\CYMR90~1\AppData\Local\Temp\ccxAEgth.s:22209  .debug_str:00000000000084bf .LASF1998
C:\Users\CYMR90~1\AppData\Local\Temp\ccxAEgth.s:26152  .debug_str:00000000000181c1 .LASF1999
C:\Users\CYMR90~1\AppData\Local\Temp\ccxAEgth.s:25633  .debug_str:0000000000015fc5 .LASF2000
C:\Users\CYMR90~1\AppData\Local\Temp\ccxAEgth.s:24459  .debug_str:000000000001144d .LASF2001
C:\Users\CYMR90~1\AppData\Local\Temp\ccxAEgth.s:28756  .debug_str:0000000000022726 .LASF2002
C:\Users\CYMR90~1\AppData\Local\Temp\ccxAEgth.s:30168  .debug_str:00000000000283bd .LASF2003
C:\Users\CYMR90~1\AppData\Local\Temp\ccxAEgth.s:24011  .debug_str:000000000000f887 .LASF2004
C:\Users\CYMR90~1\AppData\Local\Temp\ccxAEgth.s:28646  .debug_str:000000000002208f .LASF2005
C:\Users\CYMR90~1\AppData\Local\Temp\ccxAEgth.s:25842  .debug_str:0000000000016f55 .LASF2006
C:\Users\CYMR90~1\AppData\Local\Temp\ccxAEgth.s:31060  .debug_str:000000000002bb24 .LASF2007
C:\Users\CYMR90~1\AppData\Local\Temp\ccxAEgth.s:21417  .debug_str:000000000000524f .LASF2008
C:\Users\CYMR90~1\AppData\Local\Temp\ccxAEgth.s:24957  .debug_str:00000000000135f1 .LASF2009
C:\Users\CYMR90~1\AppData\Local\Temp\ccxAEgth.s:27644  .debug_str:000000000001e3ae .LASF2010
C:\Users\CYMR90~1\AppData\Local\Temp\ccxAEgth.s:23291  .debug_str:000000000000cb40 .LASF2011
C:\Users\CYMR90~1\AppData\Local\Temp\ccxAEgth.s:20541  .debug_str:0000000000001a9c .LASF2012
C:\Users\CYMR90~1\AppData\Local\Temp\ccxAEgth.s:28940  .debug_str:00000000000231cd .LASF2013
C:\Users\CYMR90~1\AppData\Local\Temp\ccxAEgth.s:28698  .debug_str:000000000002235b .LASF2014
C:\Users\CYMR90~1\AppData\Local\Temp\ccxAEgth.s:26662  .debug_str:000000000001a41d .LASF2015
C:\Users\CYMR90~1\AppData\Local\Temp\ccxAEgth.s:30536  .debug_str:0000000000029b04 .LASF2016
C:\Users\CYMR90~1\AppData\Local\Temp\ccxAEgth.s:28852  .debug_str:0000000000022d00 .LASF2017
C:\Users\CYMR90~1\AppData\Local\Temp\ccxAEgth.s:30970  .debug_str:000000000002b545 .LASF2018
C:\Users\CYMR90~1\AppData\Local\Temp\ccxAEgth.s:27402  .debug_str:000000000001d43b .LASF2019
C:\Users\CYMR90~1\AppData\Local\Temp\ccxAEgth.s:21773  .debug_str:000000000000679c .LASF2020
C:\Users\CYMR90~1\AppData\Local\Temp\ccxAEgth.s:28894  .debug_str:0000000000022f41 .LASF2021
C:\Users\CYMR90~1\AppData\Local\Temp\ccxAEgth.s:29890  .debug_str:000000000002703c .LASF2022
C:\Users\CYMR90~1\AppData\Local\Temp\ccxAEgth.s:24343  .debug_str:0000000000010d47 .LASF2023
C:\Users\CYMR90~1\AppData\Local\Temp\ccxAEgth.s:29830  .debug_str:0000000000026c60 .LASF2024
C:\Users\CYMR90~1\AppData\Local\Temp\ccxAEgth.s:23003  .debug_str:000000000000b896 .LASF2025
C:\Users\CYMR90~1\AppData\Local\Temp\ccxAEgth.s:30920  .debug_str:000000000002b1b1 .LASF2026
C:\Users\CYMR90~1\AppData\Local\Temp\ccxAEgth.s:20949  .debug_str:00000000000033d5 .LASF2027
C:\Users\CYMR90~1\AppData\Local\Temp\ccxAEgth.s:28952  .debug_str:0000000000023268 .LASF2028
C:\Users\CYMR90~1\AppData\Local\Temp\ccxAEgth.s:27954  .debug_str:000000000001f602 .LASF2029
C:\Users\CYMR90~1\AppData\Local\Temp\ccxAEgth.s:20115  .debug_str:00000000000000ff .LASF2030
C:\Users\CYMR90~1\AppData\Local\Temp\ccxAEgth.s:26052  .debug_str:0000000000017bdc .LASF2031
C:\Users\CYMR90~1\AppData\Local\Temp\ccxAEgth.s:22771  .debug_str:000000000000a8ce .LASF2032
C:\Users\CYMR90~1\AppData\Local\Temp\ccxAEgth.s:23973  .debug_str:000000000000f679 .LASF2033
C:\Users\CYMR90~1\AppData\Local\Temp\ccxAEgth.s:22981  .debug_str:000000000000b6e5 .LASF2034
C:\Users\CYMR90~1\AppData\Local\Temp\ccxAEgth.s:24529  .debug_str:00000000000119e6 .LASF2035
C:\Users\CYMR90~1\AppData\Local\Temp\ccxAEgth.s:28422  .debug_str:000000000002130e .LASF2036
C:\Users\CYMR90~1\AppData\Local\Temp\ccxAEgth.s:28830  .debug_str:0000000000022bb9 .LASF2037
C:\Users\CYMR90~1\AppData\Local\Temp\ccxAEgth.s:29414  .debug_str:00000000000250ea .LASF2038
C:\Users\CYMR90~1\AppData\Local\Temp\ccxAEgth.s:24623  .debug_str:0000000000011fc5 .LASF2039
C:\Users\CYMR90~1\AppData\Local\Temp\ccxAEgth.s:26602  .debug_str:0000000000019f39 .LASF2040
C:\Users\CYMR90~1\AppData\Local\Temp\ccxAEgth.s:23319  .debug_str:000000000000cca4 .LASF2041
C:\Users\CYMR90~1\AppData\Local\Temp\ccxAEgth.s:20769  .debug_str:000000000000283f .LASF2042
C:\Users\CYMR90~1\AppData\Local\Temp\ccxAEgth.s:21509  .debug_str:0000000000005788 .LASF2043
C:\Users\CYMR90~1\AppData\Local\Temp\ccxAEgth.s:31334  .debug_str:000000000002cd77 .LASF2044
C:\Users\CYMR90~1\AppData\Local\Temp\ccxAEgth.s:24925  .debug_str:00000000000133dc .LASF2045
C:\Users\CYMR90~1\AppData\Local\Temp\ccxAEgth.s:28714  .debug_str:0000000000022467 .LASF2046
C:\Users\CYMR90~1\AppData\Local\Temp\ccxAEgth.s:30346  .debug_str:0000000000028f03 .LASF2047
C:\Users\CYMR90~1\AppData\Local\Temp\ccxAEgth.s:27066  .debug_str:000000000001bd9d .LASF2048
C:\Users\CYMR90~1\AppData\Local\Temp\ccxAEgth.s:27602  .debug_str:000000000001e11a .LASF2049
C:\Users\CYMR90~1\AppData\Local\Temp\ccxAEgth.s:21571  .debug_str:0000000000005b54 .LASF2050
C:\Users\CYMR90~1\AppData\Local\Temp\ccxAEgth.s:20935  .debug_str:00000000000032db .LASF2051
C:\Users\CYMR90~1\AppData\Local\Temp\ccxAEgth.s:22885  .debug_str:000000000000b0a2 .LASF2052
C:\Users\CYMR90~1\AppData\Local\Temp\ccxAEgth.s:29450  .debug_str:00000000000253d6 .LASF2053
C:\Users\CYMR90~1\AppData\Local\Temp\ccxAEgth.s:30766  .debug_str:000000000002a8cf .LASF2054
C:\Users\CYMR90~1\AppData\Local\Temp\ccxAEgth.s:21381  .debug_str:000000000000501c .LASF2055
C:\Users\CYMR90~1\AppData\Local\Temp\ccxAEgth.s:29786  .debug_str:00000000000269eb .LASF2056
C:\Users\CYMR90~1\AppData\Local\Temp\ccxAEgth.s:27766  .debug_str:000000000001eae5 .LASF2057
C:\Users\CYMR90~1\AppData\Local\Temp\ccxAEgth.s:25902  .debug_str:000000000001729f .LASF2058
C:\Users\CYMR90~1\AppData\Local\Temp\ccxAEgth.s:22761  .debug_str:000000000000a825 .LASF2059
C:\Users\CYMR90~1\AppData\Local\Temp\ccxAEgth.s:23565  .debug_str:000000000000dcbc .LASF2060
C:\Users\CYMR90~1\AppData\Local\Temp\ccxAEgth.s:28224  .debug_str:000000000002071a .LASF2061
C:\Users\CYMR90~1\AppData\Local\Temp\ccxAEgth.s:25059  .debug_str:0000000000013be6 .LASF2062
C:\Users\CYMR90~1\AppData\Local\Temp\ccxAEgth.s:20741  .debug_str:000000000000265c .LASF2063
C:\Users\CYMR90~1\AppData\Local\Temp\ccxAEgth.s:26802  .debug_str:000000000001ad32 .LASF2064
C:\Users\CYMR90~1\AppData\Local\Temp\ccxAEgth.s:25665  .debug_str:00000000000161b3 .LASF2065
C:\Users\CYMR90~1\AppData\Local\Temp\ccxAEgth.s:22443  .debug_str:000000000000933c .LASF2066
C:\Users\CYMR90~1\AppData\Local\Temp\ccxAEgth.s:22913  .debug_str:000000000000b222 .LASF2067
C:\Users\CYMR90~1\AppData\Local\Temp\ccxAEgth.s:26002  .debug_str:00000000000178ff .LASF2068
C:\Users\CYMR90~1\AppData\Local\Temp\ccxAEgth.s:25607  .debug_str:0000000000015e0f .LASF2069
C:\Users\CYMR90~1\AppData\Local\Temp\ccxAEgth.s:23455  .debug_str:000000000000d605 .LASF2070
C:\Users\CYMR90~1\AppData\Local\Temp\ccxAEgth.s:21543  .debug_str:00000000000059c5 .LASF2071
C:\Users\CYMR90~1\AppData\Local\Temp\ccxAEgth.s:24781  .debug_str:0000000000012a19 .LASF2072
C:\Users\CYMR90~1\AppData\Local\Temp\ccxAEgth.s:23797  .debug_str:000000000000eae0 .LASF2073
C:\Users\CYMR90~1\AppData\Local\Temp\ccxAEgth.s:23045  .debug_str:000000000000bb18 .LASF2074
C:\Users\CYMR90~1\AppData\Local\Temp\ccxAEgth.s:31138  .debug_str:000000000002c064 .LASF2075
C:\Users\CYMR90~1\AppData\Local\Temp\ccxAEgth.s:22315  .debug_str:0000000000008bda .LASF2076
C:\Users\CYMR90~1\AppData\Local\Temp\ccxAEgth.s:30422  .debug_str:000000000002942b .LASF2077
C:\Users\CYMR90~1\AppData\Local\Temp\ccxAEgth.s:21395  .debug_str:00000000000050ed .LASF2078
C:\Users\CYMR90~1\AppData\Local\Temp\ccxAEgth.s:20509  .debug_str:00000000000018a5 .LASF2079
C:\Users\CYMR90~1\AppData\Local\Temp\ccxAEgth.s:28982  .debug_str:0000000000023482 .LASF2080
C:\Users\CYMR90~1\AppData\Local\Temp\ccxAEgth.s:30310  .debug_str:0000000000028cc9 .LASF2081
C:\Users\CYMR90~1\AppData\Local\Temp\ccxAEgth.s:30400  .debug_str:000000000002926b .LASF2082
C:\Users\CYMR90~1\AppData\Local\Temp\ccxAEgth.s:24649  .debug_str:0000000000012141 .LASF2083
C:\Users\CYMR90~1\AppData\Local\Temp\ccxAEgth.s:22097  .debug_str:0000000000007d14 .LASF2084
C:\Users\CYMR90~1\AppData\Local\Temp\ccxAEgth.s:28866  .debug_str:0000000000022db5 .LASF2085
C:\Users\CYMR90~1\AppData\Local\Temp\ccxAEgth.s:20405  .debug_str:0000000000001257 .LASF2086
C:\Users\CYMR90~1\AppData\Local\Temp\ccxAEgth.s:20257  .debug_str:000000000000094d .LASF2087
C:\Users\CYMR90~1\AppData\Local\Temp\ccxAEgth.s:26862  .debug_str:000000000001b169 .LASF2088
C:\Users\CYMR90~1\AppData\Local\Temp\ccxAEgth.s:27924  .debug_str:000000000001f461 .LASF2089
C:\Users\CYMR90~1\AppData\Local\Temp\ccxAEgth.s:25828  .debug_str:0000000000016e8d .LASF2090
C:\Users\CYMR90~1\AppData\Local\Temp\ccxAEgth.s:24585  .debug_str:0000000000011d30 .LASF2091
C:\Users\CYMR90~1\AppData\Local\Temp\ccxAEgth.s:25930  .debug_str:0000000000017453 .LASF2092
C:\Users\CYMR90~1\AppData\Local\Temp\ccxAEgth.s:25087  .debug_str:0000000000013d97 .LASF2093
C:\Users\CYMR90~1\AppData\Local\Temp\ccxAEgth.s:20927  .debug_str:0000000000003267 .LASF2094
C:\Users\CYMR90~1\AppData\Local\Temp\ccxAEgth.s:21141  .debug_str:000000000000408f .LASF2095
C:\Users\CYMR90~1\AppData\Local\Temp\ccxAEgth.s:22557  .debug_str:0000000000009ace .LASF2096
C:\Users\CYMR90~1\AppData\Local\Temp\ccxAEgth.s:20901  .debug_str:00000000000030a6 .LASF2097
C:\Users\CYMR90~1\AppData\Local\Temp\ccxAEgth.s:29598  .debug_str:0000000000025e36 .LASF2098
C:\Users\CYMR90~1\AppData\Local\Temp\ccxAEgth.s:24133  .debug_str:000000000001005b .LASF2099
C:\Users\CYMR90~1\AppData\Local\Temp\ccxAEgth.s:22921  .debug_str:000000000000b2a9 .LASF2100
C:\Users\CYMR90~1\AppData\Local\Temp\ccxAEgth.s:21713  .debug_str:00000000000063c1 .LASF2101
C:\Users\CYMR90~1\AppData\Local\Temp\ccxAEgth.s:20817  .debug_str:0000000000002b60 .LASF2102
C:\Users\CYMR90~1\AppData\Local\Temp\ccxAEgth.s:22595  .debug_str:0000000000009d10 .LASF2103
C:\Users\CYMR90~1\AppData\Local\Temp\ccxAEgth.s:31090  .debug_str:000000000002bd00 .LASF2104
C:\Users\CYMR90~1\AppData\Local\Temp\ccxAEgth.s:25928  .debug_str:000000000001742f .LASF2105
C:\Users\CYMR90~1\AppData\Local\Temp\ccxAEgth.s:20919  .debug_str:00000000000031cd .LASF2106
C:\Users\CYMR90~1\AppData\Local\Temp\ccxAEgth.s:30370  .debug_str:0000000000029096 .LASF2107
C:\Users\CYMR90~1\AppData\Local\Temp\ccxAEgth.s:24617  .debug_str:0000000000011f4b .LASF2108
C:\Users\CYMR90~1\AppData\Local\Temp\ccxAEgth.s:20939  .debug_str:0000000000003319 .LASF2109
C:\Users\CYMR90~1\AppData\Local\Temp\ccxAEgth.s:23365  .debug_str:000000000000cfc7 .LASF2110
C:\Users\CYMR90~1\AppData\Local\Temp\ccxAEgth.s:25876  .debug_str:000000000001711b .LASF2111
C:\Users\CYMR90~1\AppData\Local\Temp\ccxAEgth.s:27944  .debug_str:000000000001f57c .LASF2112
C:\Users\CYMR90~1\AppData\Local\Temp\ccxAEgth.s:30530  .debug_str:0000000000029aaa .LASF2113
C:\Users\CYMR90~1\AppData\Local\Temp\ccxAEgth.s:29934  .debug_str:00000000000273ac .LASF2114
C:\Users\CYMR90~1\AppData\Local\Temp\ccxAEgth.s:24979  .debug_str:0000000000013729 .LASF2115
C:\Users\CYMR90~1\AppData\Local\Temp\ccxAEgth.s:26792  .debug_str:000000000001ac6d .LASF2116
C:\Users\CYMR90~1\AppData\Local\Temp\ccxAEgth.s:25167  .debug_str:000000000001428e .LASF2117
C:\Users\CYMR90~1\AppData\Local\Temp\ccxAEgth.s:29218  .debug_str:00000000000243dd .LASF2118
C:\Users\CYMR90~1\AppData\Local\Temp\ccxAEgth.s:27884  .debug_str:000000000001f1f5 .LASF2119
C:\Users\CYMR90~1\AppData\Local\Temp\ccxAEgth.s:20773  .debug_str:0000000000002876 .LASF2120
C:\Users\CYMR90~1\AppData\Local\Temp\ccxAEgth.s:28326  .debug_str:0000000000020d1a .LASF2121
C:\Users\CYMR90~1\AppData\Local\Temp\ccxAEgth.s:22167  .debug_str:000000000000823d .LASF2122
C:\Users\CYMR90~1\AppData\Local\Temp\ccxAEgth.s:25027  .debug_str:0000000000013a16 .LASF2123
C:\Users\CYMR90~1\AppData\Local\Temp\ccxAEgth.s:27628  .debug_str:000000000001e2b1 .LASF2124
C:\Users\CYMR90~1\AppData\Local\Temp\ccxAEgth.s:24877  .debug_str:0000000000013050 .LASF2125
C:\Users\CYMR90~1\AppData\Local\Temp\ccxAEgth.s:25994  .debug_str:0000000000017877 .LASF2126
C:\Users\CYMR90~1\AppData\Local\Temp\ccxAEgth.s:29914  .debug_str:00000000000271c5 .LASF2127
C:\Users\CYMR90~1\AppData\Local\Temp\ccxAEgth.s:28436  .debug_str:00000000000213e4 .LASF2128
C:\Users\CYMR90~1\AppData\Local\Temp\ccxAEgth.s:24339  .debug_str:0000000000010d0c .LASF2129
C:\Users\CYMR90~1\AppData\Local\Temp\ccxAEgth.s:28344  .debug_str:0000000000020e09 .LASF2130
C:\Users\CYMR90~1\AppData\Local\Temp\ccxAEgth.s:26214  .debug_str:0000000000018538 .LASF2131
C:\Users\CYMR90~1\AppData\Local\Temp\ccxAEgth.s:28164  .debug_str:00000000000202da .LASF2132
C:\Users\CYMR90~1\AppData\Local\Temp\ccxAEgth.s:24523  .debug_str:0000000000011970 .LASF2133
C:\Users\CYMR90~1\AppData\Local\Temp\ccxAEgth.s:27214  .debug_str:000000000001c780 .LASF2134
C:\Users\CYMR90~1\AppData\Local\Temp\ccxAEgth.s:20653  .debug_str:00000000000020e7 .LASF2135
C:\Users\CYMR90~1\AppData\Local\Temp\ccxAEgth.s:26376  .debug_str:00000000000190c9 .LASF2136
C:\Users\CYMR90~1\AppData\Local\Temp\ccxAEgth.s:30634  .debug_str:000000000002a0af .LASF2137
C:\Users\CYMR90~1\AppData\Local\Temp\ccxAEgth.s:22169  .debug_str:0000000000008262 .LASF2138
C:\Users\CYMR90~1\AppData\Local\Temp\ccxAEgth.s:28528  .debug_str:0000000000021986 .LASF2139
C:\Users\CYMR90~1\AppData\Local\Temp\ccxAEgth.s:24435  .debug_str:00000000000112bb .LASF2140
C:\Users\CYMR90~1\AppData\Local\Temp\ccxAEgth.s:23915  .debug_str:000000000000f1e5 .LASF2141
C:\Users\CYMR90~1\AppData\Local\Temp\ccxAEgth.s:27902  .debug_str:000000000001f321 .LASF2142
C:\Users\CYMR90~1\AppData\Local\Temp\ccxAEgth.s:28458  .debug_str:0000000000021526 .LASF2143
C:\Users\CYMR90~1\AppData\Local\Temp\ccxAEgth.s:24713  .debug_str:0000000000012587 .LASF2144
C:\Users\CYMR90~1\AppData\Local\Temp\ccxAEgth.s:20941  .debug_str:0000000000003340 .LASF2145
C:\Users\CYMR90~1\AppData\Local\Temp\ccxAEgth.s:20121  .debug_str:0000000000000148 .LASF2146
C:\Users\CYMR90~1\AppData\Local\Temp\ccxAEgth.s:20533  .debug_str:0000000000001a00 .LASF2147
C:\Users\CYMR90~1\AppData\Local\Temp\ccxAEgth.s:25936  .debug_str:00000000000174a9 .LASF2148
C:\Users\CYMR90~1\AppData\Local\Temp\ccxAEgth.s:25395  .debug_str:00000000000150fb .LASF2149
C:\Users\CYMR90~1\AppData\Local\Temp\ccxAEgth.s:29936  .debug_str:00000000000273d3 .LASF2150
C:\Users\CYMR90~1\AppData\Local\Temp\ccxAEgth.s:24981  .debug_str:0000000000013750 .LASF2151
C:\Users\CYMR90~1\AppData\Local\Temp\ccxAEgth.s:23533  .debug_str:000000000000da66 .LASF2152
C:\Users\CYMR90~1\AppData\Local\Temp\ccxAEgth.s:30486  .debug_str:000000000002984d .LASF2153
C:\Users\CYMR90~1\AppData\Local\Temp\ccxAEgth.s:25709  .debug_str:00000000000164ae .LASF2154
C:\Users\CYMR90~1\AppData\Local\Temp\ccxAEgth.s:20463  .debug_str:00000000000015dd .LASF2155
C:\Users\CYMR90~1\AppData\Local\Temp\ccxAEgth.s:21011  .debug_str:00000000000037c8 .LASF2156
C:\Users\CYMR90~1\AppData\Local\Temp\ccxAEgth.s:29902  .debug_str:00000000000270dd .LASF2157
C:\Users\CYMR90~1\AppData\Local\Temp\ccxAEgth.s:24373  .debug_str:0000000000010ef8 .LASF2158
C:\Users\CYMR90~1\AppData\Local\Temp\ccxAEgth.s:26278  .debug_str:0000000000018979 .LASF2159
C:\Users\CYMR90~1\AppData\Local\Temp\ccxAEgth.s:29704  .debug_str:00000000000264ed .LASF2160
C:\Users\CYMR90~1\AppData\Local\Temp\ccxAEgth.s:22343  .debug_str:0000000000008d9d .LASF2161
C:\Users\CYMR90~1\AppData\Local\Temp\ccxAEgth.s:30616  .debug_str:0000000000029f9d .LASF2162
C:\Users\CYMR90~1\AppData\Local\Temp\ccxAEgth.s:31322  .debug_str:000000000002cc55 .LASF2163
C:\Users\CYMR90~1\AppData\Local\Temp\ccxAEgth.s:21045  .debug_str:00000000000039ff .LASF2164
C:\Users\CYMR90~1\AppData\Local\Temp\ccxAEgth.s:28962  .debug_str:0000000000023304 .LASF2165
C:\Users\CYMR90~1\AppData\Local\Temp\ccxAEgth.s:26360  .debug_str:0000000000019002 .LASF2166
C:\Users\CYMR90~1\AppData\Local\Temp\ccxAEgth.s:23909  .debug_str:000000000000f18e .LASF2167
C:\Users\CYMR90~1\AppData\Local\Temp\ccxAEgth.s:22201  .debug_str:000000000000844a .LASF2168
C:\Users\CYMR90~1\AppData\Local\Temp\ccxAEgth.s:27456  .debug_str:000000000001d7de .LASF2169
C:\Users\CYMR90~1\AppData\Local\Temp\ccxAEgth.s:25655  .debug_str:000000000001611b .LASF2170
C:\Users\CYMR90~1\AppData\Local\Temp\ccxAEgth.s:23685  .debug_str:000000000000e3ba .LASF2171
C:\Users\CYMR90~1\AppData\Local\Temp\ccxAEgth.s:23825  .debug_str:000000000000ec41 .LASF2172
C:\Users\CYMR90~1\AppData\Local\Temp\ccxAEgth.s:27906  .debug_str:000000000001f358 .LASF2173
C:\Users\CYMR90~1\AppData\Local\Temp\ccxAEgth.s:25595  .debug_str:0000000000015d32 .LASF2174
C:\Users\CYMR90~1\AppData\Local\Temp\ccxAEgth.s:24579  .debug_str:0000000000011cee .LASF2175
C:\Users\CYMR90~1\AppData\Local\Temp\ccxAEgth.s:27696  .debug_str:000000000001e701 .LASF2176
C:\Users\CYMR90~1\AppData\Local\Temp\ccxAEgth.s:22923  .debug_str:000000000000b2b8 .LASF2177
C:\Users\CYMR90~1\AppData\Local\Temp\ccxAEgth.s:28606  .debug_str:0000000000021e20 .LASF2178
C:\Users\CYMR90~1\AppData\Local\Temp\ccxAEgth.s:23547  .debug_str:000000000000db5f .LASF2179
C:\Users\CYMR90~1\AppData\Local\Temp\ccxAEgth.s:22047  .debug_str:0000000000007956 .LASF2180
C:\Users\CYMR90~1\AppData\Local\Temp\ccxAEgth.s:29618  .debug_str:0000000000025f9e .LASF2181
C:\Users\CYMR90~1\AppData\Local\Temp\ccxAEgth.s:23717  .debug_str:000000000000e5ec .LASF2182
C:\Users\CYMR90~1\AppData\Local\Temp\ccxAEgth.s:25629  .debug_str:0000000000015f8f .LASF2183
C:\Users\CYMR90~1\AppData\Local\Temp\ccxAEgth.s:21161  .debug_str:00000000000041af .LASF2184
C:\Users\CYMR90~1\AppData\Local\Temp\ccxAEgth.s:24001  .debug_str:000000000000f815 .LASF2185
C:\Users\CYMR90~1\AppData\Local\Temp\ccxAEgth.s:30876  .debug_str:000000000002af37 .LASF2186
C:\Users\CYMR90~1\AppData\Local\Temp\ccxAEgth.s:27706  .debug_str:000000000001e79f .LASF2187
C:\Users\CYMR90~1\AppData\Local\Temp\ccxAEgth.s:22541  .debug_str:00000000000099fc .LASF2188
C:\Users\CYMR90~1\AppData\Local\Temp\ccxAEgth.s:26696  .debug_str:000000000001a6ce .LASF2189
C:\Users\CYMR90~1\AppData\Local\Temp\ccxAEgth.s:21101  .debug_str:0000000000003d3f .LASF2190
C:\Users\CYMR90~1\AppData\Local\Temp\ccxAEgth.s:22641  .debug_str:000000000000a00e .LASF2191
C:\Users\CYMR90~1\AppData\Local\Temp\ccxAEgth.s:29368  .debug_str:0000000000024d92 .LASF2192
C:\Users\CYMR90~1\AppData\Local\Temp\ccxAEgth.s:21027  .debug_str:00000000000038c3 .LASF2193
C:\Users\CYMR90~1\AppData\Local\Temp\ccxAEgth.s:24465  .debug_str:00000000000114a3 .LASF2194
C:\Users\CYMR90~1\AppData\Local\Temp\ccxAEgth.s:20795  .debug_str:00000000000029f8 .LASF2195
C:\Users\CYMR90~1\AppData\Local\Temp\ccxAEgth.s:21997  .debug_str:00000000000075f7 .LASF2196
C:\Users\CYMR90~1\AppData\Local\Temp\ccxAEgth.s:25327  .debug_str:0000000000014c91 .LASF2197
C:\Users\CYMR90~1\AppData\Local\Temp\ccxAEgth.s:22269  .debug_str:00000000000088a8 .LASF2198
C:\Users\CYMR90~1\AppData\Local\Temp\ccxAEgth.s:28158  .debug_str:0000000000020291 .LASF2199
C:\Users\CYMR90~1\AppData\Local\Temp\ccxAEgth.s:22785  .debug_str:000000000000a9ad .LASF2200
C:\Users\CYMR90~1\AppData\Local\Temp\ccxAEgth.s:28674  .debug_str:0000000000022230 .LASF2201
C:\Users\CYMR90~1\AppData\Local\Temp\ccxAEgth.s:27992  .debug_str:000000000001f865 .LASF2202
C:\Users\CYMR90~1\AppData\Local\Temp\ccxAEgth.s:29184  .debug_str:0000000000024168 .LASF2203
C:\Users\CYMR90~1\AppData\Local\Temp\ccxAEgth.s:29772  .debug_str:0000000000026927 .LASF2204
C:\Users\CYMR90~1\AppData\Local\Temp\ccxAEgth.s:29602  .debug_str:0000000000025e69 .LASF2205
C:\Users\CYMR90~1\AppData\Local\Temp\ccxAEgth.s:29234  .debug_str:00000000000244b3 .LASF2206
C:\Users\CYMR90~1\AppData\Local\Temp\ccxAEgth.s:28290  .debug_str:0000000000020b16 .LASF2207
C:\Users\CYMR90~1\AppData\Local\Temp\ccxAEgth.s:24181  .debug_str:000000000001031d .LASF2208
C:\Users\CYMR90~1\AppData\Local\Temp\ccxAEgth.s:26324  .debug_str:0000000000018ce9 .LASF2209
C:\Users\CYMR90~1\AppData\Local\Temp\ccxAEgth.s:28138  .debug_str:0000000000020116 .LASF2210
C:\Users\CYMR90~1\AppData\Local\Temp\ccxAEgth.s:23057  .debug_str:000000000000bc0b .LASF2211
C:\Users\CYMR90~1\AppData\Local\Temp\ccxAEgth.s:21771  .debug_str:0000000000006774 .LASF2212
C:\Users\CYMR90~1\AppData\Local\Temp\ccxAEgth.s:24361  .debug_str:0000000000010e21 .LASF2213
C:\Users\CYMR90~1\AppData\Local\Temp\ccxAEgth.s:31140  .debug_str:000000000002c075 .LASF2214
C:\Users\CYMR90~1\AppData\Local\Temp\ccxAEgth.s:25073  .debug_str:0000000000013cac .LASF2215
C:\Users\CYMR90~1\AppData\Local\Temp\ccxAEgth.s:22745  .debug_str:000000000000a669 .LASF2216
C:\Users\CYMR90~1\AppData\Local\Temp\ccxAEgth.s:26936  .debug_str:000000000001b5d4 .LASF2217
C:\Users\CYMR90~1\AppData\Local\Temp\ccxAEgth.s:26250  .debug_str:00000000000187c3 .LASF2218
C:\Users\CYMR90~1\AppData\Local\Temp\ccxAEgth.s:30910  .debug_str:000000000002b110 .LASF2219
C:\Users\CYMR90~1\AppData\Local\Temp\ccxAEgth.s:27482  .debug_str:000000000001d966 .LASF2220
C:\Users\CYMR90~1\AppData\Local\Temp\ccxAEgth.s:26338  .debug_str:0000000000018dae .LASF2221
C:\Users\CYMR90~1\AppData\Local\Temp\ccxAEgth.s:24751  .debug_str:00000000000127fe .LASF2222
C:\Users\CYMR90~1\AppData\Local\Temp\ccxAEgth.s:26976  .debug_str:000000000001b7d9 .LASF2223
C:\Users\CYMR90~1\AppData\Local\Temp\ccxAEgth.s:29594  .debug_str:0000000000025dfb .LASF2224
C:\Users\CYMR90~1\AppData\Local\Temp\ccxAEgth.s:20143  .debug_str:0000000000000296 .LASF2225
C:\Users\CYMR90~1\AppData\Local\Temp\ccxAEgth.s:21239  .debug_str:00000000000046eb .LASF2226
C:\Users\CYMR90~1\AppData\Local\Temp\ccxAEgth.s:26526  .debug_str:0000000000019ac4 .LASF2227
C:\Users\CYMR90~1\AppData\Local\Temp\ccxAEgth.s:25798  .debug_str:0000000000016ca7 .LASF2228
C:\Users\CYMR90~1\AppData\Local\Temp\ccxAEgth.s:27534  .debug_str:000000000001dd2d .LASF2229
C:\Users\CYMR90~1\AppData\Local\Temp\ccxAEgth.s:21209  .debug_str:00000000000044d3 .LASF2230
C:\Users\CYMR90~1\AppData\Local\Temp\ccxAEgth.s:27760  .debug_str:000000000001ea72 .LASF2231
C:\Users\CYMR90~1\AppData\Local\Temp\ccxAEgth.s:20521  .debug_str:0000000000001949 .LASF2232
C:\Users\CYMR90~1\AppData\Local\Temp\ccxAEgth.s:26514  .debug_str:0000000000019a00 .LASF2233
C:\Users\CYMR90~1\AppData\Local\Temp\ccxAEgth.s:23225  .debug_str:000000000000c733 .LASF2234
C:\Users\CYMR90~1\AppData\Local\Temp\ccxAEgth.s:21445  .debug_str:0000000000005413 .LASF2235
C:\Users\CYMR90~1\AppData\Local\Temp\ccxAEgth.s:31096  .debug_str:000000000002bd5d .LASF2236
C:\Users\CYMR90~1\AppData\Local\Temp\ccxAEgth.s:23689  .debug_str:000000000000e3f5 .LASF2237
C:\Users\CYMR90~1\AppData\Local\Temp\ccxAEgth.s:28412  .debug_str:0000000000021272 .LASF2238
C:\Users\CYMR90~1\AppData\Local\Temp\ccxAEgth.s:27436  .debug_str:000000000001d692 .LASF2239
C:\Users\CYMR90~1\AppData\Local\Temp\ccxAEgth.s:27364  .debug_str:000000000001d1eb .LASF2240
C:\Users\CYMR90~1\AppData\Local\Temp\ccxAEgth.s:20581  .debug_str:0000000000001cfa .LASF2241
C:\Users\CYMR90~1\AppData\Local\Temp\ccxAEgth.s:28430  .debug_str:0000000000021390 .LASF2242
C:\Users\CYMR90~1\AppData\Local\Temp\ccxAEgth.s:29978  .debug_str:000000000002762c .LASF2243
C:\Users\CYMR90~1\AppData\Local\Temp\ccxAEgth.s:24601  .debug_str:0000000000011e18 .LASF2244
C:\Users\CYMR90~1\AppData\Local\Temp\ccxAEgth.s:25808  .debug_str:0000000000016d43 .LASF2245
C:\Users\CYMR90~1\AppData\Local\Temp\ccxAEgth.s:22735  .debug_str:000000000000a586 .LASF2246
C:\Users\CYMR90~1\AppData\Local\Temp\ccxAEgth.s:25391  .debug_str:00000000000150af .LASF2247
C:\Users\CYMR90~1\AppData\Local\Temp\ccxAEgth.s:20943  .debug_str:0000000000003367 .LASF2248
C:\Users\CYMR90~1\AppData\Local\Temp\ccxAEgth.s:27780  .debug_str:000000000001eba1 .LASF2249
C:\Users\CYMR90~1\AppData\Local\Temp\ccxAEgth.s:26914  .debug_str:000000000001b45f .LASF2250
C:\Users\CYMR90~1\AppData\Local\Temp\ccxAEgth.s:25970  .debug_str:00000000000176ba .LASF2251
C:\Users\CYMR90~1\AppData\Local\Temp\ccxAEgth.s:29192  .debug_str:0000000000024201 .LASF2252
C:\Users\CYMR90~1\AppData\Local\Temp\ccxAEgth.s:24757  .debug_str:000000000001285b .LASF2253
C:\Users\CYMR90~1\AppData\Local\Temp\ccxAEgth.s:23497  .debug_str:000000000000d873 .LASF2254
C:\Users\CYMR90~1\AppData\Local\Temp\ccxAEgth.s:22255  .debug_str:00000000000087c9 .LASF2255
C:\Users\CYMR90~1\AppData\Local\Temp\ccxAEgth.s:24159  .debug_str:00000000000101dc .LASF2256
C:\Users\CYMR90~1\AppData\Local\Temp\ccxAEgth.s:27182  .debug_str:000000000001c49c .LASF2257
C:\Users\CYMR90~1\AppData\Local\Temp\ccxAEgth.s:24455  .debug_str:0000000000011401 .LASF2258
C:\Users\CYMR90~1\AppData\Local\Temp\ccxAEgth.s:24677  .debug_str:0000000000012317 .LASF2259
C:\Users\CYMR90~1\AppData\Local\Temp\ccxAEgth.s:24357  .debug_str:0000000000010ddf .LASF2260
C:\Users\CYMR90~1\AppData\Local\Temp\ccxAEgth.s:25437  .debug_str:0000000000015344 .LASF2261
C:\Users\CYMR90~1\AppData\Local\Temp\ccxAEgth.s:20637  .debug_str:0000000000002003 .LASF2262
C:\Users\CYMR90~1\AppData\Local\Temp\ccxAEgth.s:23737  .debug_str:000000000000e718 .LASF2263
C:\Users\CYMR90~1\AppData\Local\Temp\ccxAEgth.s:27554  .debug_str:000000000001de6e .LASF2264
C:\Users\CYMR90~1\AppData\Local\Temp\ccxAEgth.s:26616  .debug_str:0000000000019ffa .LASF2265
C:\Users\CYMR90~1\AppData\Local\Temp\ccxAEgth.s:23581  .debug_str:000000000000dd90 .LASF2266
C:\Users\CYMR90~1\AppData\Local\Temp\ccxAEgth.s:22935  .debug_str:000000000000b3ec .LASF2267
C:\Users\CYMR90~1\AppData\Local\Temp\ccxAEgth.s:25978  .debug_str:0000000000017774 .LASF2268
C:\Users\CYMR90~1\AppData\Local\Temp\ccxAEgth.s:30828  .debug_str:000000000002ac3f .LASF2269
C:\Users\CYMR90~1\AppData\Local\Temp\ccxAEgth.s:21261  .debug_str:00000000000048cf .LASF2270
C:\Users\CYMR90~1\AppData\Local\Temp\ccxAEgth.s:27062  .debug_str:000000000001bd5d .LASF2271
C:\Users\CYMR90~1\AppData\Local\Temp\ccxAEgth.s:27458  .debug_str:000000000001d7f6 .LASF2272
C:\Users\CYMR90~1\AppData\Local\Temp\ccxAEgth.s:25283  .debug_str:00000000000149ac .LASF2273
C:\Users\CYMR90~1\AppData\Local\Temp\ccxAEgth.s:30184  .debug_str:00000000000284ba .LASF2274
C:\Users\CYMR90~1\AppData\Local\Temp\ccxAEgth.s:26820  .debug_str:000000000001aea1 .LASF2275
C:\Users\CYMR90~1\AppData\Local\Temp\ccxAEgth.s:23503  .debug_str:000000000000d8de .LASF2276
C:\Users\CYMR90~1\AppData\Local\Temp\ccxAEgth.s:21039  .debug_str:0000000000003999 .LASF2277
C:\Users\CYMR90~1\AppData\Local\Temp\ccxAEgth.s:20311  .debug_str:0000000000000ccd .LASF2278
C:\Users\CYMR90~1\AppData\Local\Temp\ccxAEgth.s:30040  .debug_str:0000000000027a00 .LASF2279
C:\Users\CYMR90~1\AppData\Local\Temp\ccxAEgth.s:28416  .debug_str:00000000000212b0 .LASF2280
C:\Users\CYMR90~1\AppData\Local\Temp\ccxAEgth.s:21449  .debug_str:0000000000005447 .LASF2281
C:\Users\CYMR90~1\AppData\Local\Temp\ccxAEgth.s:26548  .debug_str:0000000000019c32 .LASF2282
C:\Users\CYMR90~1\AppData\Local\Temp\ccxAEgth.s:25864  .debug_str:0000000000017064 .LASF2283
C:\Users\CYMR90~1\AppData\Local\Temp\ccxAEgth.s:27238  .debug_str:000000000001c8e6 .LASF2284
C:\Users\CYMR90~1\AppData\Local\Temp\ccxAEgth.s:26776  .debug_str:000000000001ab92 .LASF2285
C:\Users\CYMR90~1\AppData\Local\Temp\ccxAEgth.s:29996  .debug_str:000000000002772a .LASF2286
C:\Users\CYMR90~1\AppData\Local\Temp\ccxAEgth.s:24363  .debug_str:0000000000010e49 .LASF2287
C:\Users\CYMR90~1\AppData\Local\Temp\ccxAEgth.s:28568  .debug_str:0000000000021c03 .LASF2288
C:\Users\CYMR90~1\AppData\Local\Temp\ccxAEgth.s:30498  .debug_str:00000000000298ca .LASF2289
C:\Users\CYMR90~1\AppData\Local\Temp\ccxAEgth.s:24571  .debug_str:0000000000011c43 .LASF2290
C:\Users\CYMR90~1\AppData\Local\Temp\ccxAEgth.s:30964  .debug_str:000000000002b4cb .LASF2291
C:\Users\CYMR90~1\AppData\Local\Temp\ccxAEgth.s:27648  .debug_str:000000000001e3fb .LASF2292
C:\Users\CYMR90~1\AppData\Local\Temp\ccxAEgth.s:21345  .debug_str:0000000000004de9 .LASF2293
C:\Users\CYMR90~1\AppData\Local\Temp\ccxAEgth.s:30360  .debug_str:0000000000028fd4 .LASF2294
C:\Users\CYMR90~1\AppData\Local\Temp\ccxAEgth.s:30926  .debug_str:000000000002b248 .LASF2295
C:\Users\CYMR90~1\AppData\Local\Temp\ccxAEgth.s:23563  .debug_str:000000000000dc91 .LASF2296
C:\Users\CYMR90~1\AppData\Local\Temp\ccxAEgth.s:23537  .debug_str:000000000000da9c .LASF2297
C:\Users\CYMR90~1\AppData\Local\Temp\ccxAEgth.s:22915  .debug_str:000000000000b233 .LASF2298
C:\Users\CYMR90~1\AppData\Local\Temp\ccxAEgth.s:25085  .debug_str:0000000000013d6c .LASF2299
C:\Users\CYMR90~1\AppData\Local\Temp\ccxAEgth.s:30198  .debug_str:00000000000285af .LASF2300
C:\Users\CYMR90~1\AppData\Local\Temp\ccxAEgth.s:23885  .debug_str:000000000000efd9 .LASF2301
C:\Users\CYMR90~1\AppData\Local\Temp\ccxAEgth.s:27008  .debug_str:000000000001b9d8 .LASF2302
C:\Users\CYMR90~1\AppData\Local\Temp\ccxAEgth.s:29322  .debug_str:0000000000024aa9 .LASF2303
C:\Users\CYMR90~1\AppData\Local\Temp\ccxAEgth.s:23495  .debug_str:000000000000d84c .LASF2304
C:\Users\CYMR90~1\AppData\Local\Temp\ccxAEgth.s:28462  .debug_str:0000000000021561 .LASF2305
C:\Users\CYMR90~1\AppData\Local\Temp\ccxAEgth.s:20395  .debug_str:00000000000011d8 .LASF2306
C:\Users\CYMR90~1\AppData\Local\Temp\ccxAEgth.s:26720  .debug_str:000000000001a828 .LASF2307
C:\Users\CYMR90~1\AppData\Local\Temp\ccxAEgth.s:27202  .debug_str:000000000001c6a0 .LASF2308
C:\Users\CYMR90~1\AppData\Local\Temp\ccxAEgth.s:20887  .debug_str:0000000000002fda .LASF2309
C:\Users\CYMR90~1\AppData\Local\Temp\ccxAEgth.s:29616  .debug_str:0000000000025f75 .LASF2310
C:\Users\CYMR90~1\AppData\Local\Temp\ccxAEgth.s:30434  .debug_str:00000000000294de .LASF2311
C:\Users\CYMR90~1\AppData\Local\Temp\ccxAEgth.s:25123  .debug_str:0000000000013fec .LASF2312
C:\Users\CYMR90~1\AppData\Local\Temp\ccxAEgth.s:30150  .debug_str:00000000000281f7 .LASF2313
C:\Users\CYMR90~1\AppData\Local\Temp\ccxAEgth.s:21955  .debug_str:000000000000735b .LASF2314
C:\Users\CYMR90~1\AppData\Local\Temp\ccxAEgth.s:28242  .debug_str:000000000002081f .LASF2315
C:\Users\CYMR90~1\AppData\Local\Temp\ccxAEgth.s:22017  .debug_str:0000000000007734 .LASF2316
C:\Users\CYMR90~1\AppData\Local\Temp\ccxAEgth.s:27026  .debug_str:000000000001baf3 .LASF2317
C:\Users\CYMR90~1\AppData\Local\Temp\ccxAEgth.s:30194  .debug_str:000000000002856e .LASF2318
C:\Users\CYMR90~1\AppData\Local\Temp\ccxAEgth.s:23773  .debug_str:000000000000e954 .LASF2319
C:\Users\CYMR90~1\AppData\Local\Temp\ccxAEgth.s:21273  .debug_str:000000000000498b .LASF2320
C:\Users\CYMR90~1\AppData\Local\Temp\ccxAEgth.s:20809  .debug_str:0000000000002b04 .LASF2321
C:\Users\CYMR90~1\AppData\Local\Temp\ccxAEgth.s:31412  .debug_str:000000000002d244 .LASF2322
C:\Users\CYMR90~1\AppData\Local\Temp\ccxAEgth.s:21633  .debug_str:0000000000005f02 .LASF2323
C:\Users\CYMR90~1\AppData\Local\Temp\ccxAEgth.s:25245  .debug_str:000000000001476b .LASF2324
C:\Users\CYMR90~1\AppData\Local\Temp\ccxAEgth.s:30990  .debug_str:000000000002b665 .LASF2325
C:\Users\CYMR90~1\AppData\Local\Temp\ccxAEgth.s:22709  .debug_str:000000000000a439 .LASF2326
C:\Users\CYMR90~1\AppData\Local\Temp\ccxAEgth.s:26208  .debug_str:00000000000184da .LASF2327
C:\Users\CYMR90~1\AppData\Local\Temp\ccxAEgth.s:20671  .debug_str:0000000000002205 .LASF2328
C:\Users\CYMR90~1\AppData\Local\Temp\ccxAEgth.s:25159  .debug_str:000000000001421c .LASF2329
C:\Users\CYMR90~1\AppData\Local\Temp\ccxAEgth.s:22011  .debug_str:00000000000076e7 .LASF2330
C:\Users\CYMR90~1\AppData\Local\Temp\ccxAEgth.s:23157  .debug_str:000000000000c28c .LASF2331
C:\Users\CYMR90~1\AppData\Local\Temp\ccxAEgth.s:24201  .debug_str:0000000000010447 .LASF2332
C:\Users\CYMR90~1\AppData\Local\Temp\ccxAEgth.s:28372  .debug_str:0000000000020f89 .LASF2333
C:\Users\CYMR90~1\AppData\Local\Temp\ccxAEgth.s:29796  .debug_str:0000000000026aaa .LASF2334
C:\Users\CYMR90~1\AppData\Local\Temp\ccxAEgth.s:24213  .debug_str:0000000000010501 .LASF2335
C:\Users\CYMR90~1\AppData\Local\Temp\ccxAEgth.s:24611  .debug_str:0000000000011ef2 .LASF2336
C:\Users\CYMR90~1\AppData\Local\Temp\ccxAEgth.s:23665  .debug_str:000000000000e287 .LASF2337
C:\Users\CYMR90~1\AppData\Local\Temp\ccxAEgth.s:21647  .debug_str:0000000000005ffd .LASF2338
C:\Users\CYMR90~1\AppData\Local\Temp\ccxAEgth.s:20717  .debug_str:00000000000024ab .LASF2339
C:\Users\CYMR90~1\AppData\Local\Temp\ccxAEgth.s:27422  .debug_str:000000000001d5b3 .LASF2340
C:\Users\CYMR90~1\AppData\Local\Temp\ccxAEgth.s:29678  .debug_str:0000000000026354 .LASF2341
C:\Users\CYMR90~1\AppData\Local\Temp\ccxAEgth.s:25954  .debug_str:00000000000175d3 .LASF2342
C:\Users\CYMR90~1\AppData\Local\Temp\ccxAEgth.s:28038  .debug_str:000000000001fb28 .LASF2343
C:\Users\CYMR90~1\AppData\Local\Temp\ccxAEgth.s:29084  .debug_str:0000000000023abc .LASF2344
C:\Users\CYMR90~1\AppData\Local\Temp\ccxAEgth.s:29904  .debug_str:00000000000270f3 .LASF2345
C:\Users\CYMR90~1\AppData\Local\Temp\ccxAEgth.s:27126  .debug_str:000000000001c15c .LASF2346
C:\Users\CYMR90~1\AppData\Local\Temp\ccxAEgth.s:27292  .debug_str:000000000001ccfe .LASF2347
C:\Users\CYMR90~1\AppData\Local\Temp\ccxAEgth.s:22223  .debug_str:00000000000085a0 .LASF2348
C:\Users\CYMR90~1\AppData\Local\Temp\ccxAEgth.s:24967  .debug_str:000000000001369b .LASF2349
C:\Users\CYMR90~1\AppData\Local\Temp\ccxAEgth.s:28512  .debug_str:0000000000021855 .LASF2350
C:\Users\CYMR90~1\AppData\Local\Temp\ccxAEgth.s:30792  .debug_str:000000000002aa46 .LASF2351
C:\Users\CYMR90~1\AppData\Local\Temp\ccxAEgth.s:29308  .debug_str:00000000000249ba .LASF2352
C:\Users\CYMR90~1\AppData\Local\Temp\ccxAEgth.s:21797  .debug_str:0000000000006905 .LASF2353
C:\Users\CYMR90~1\AppData\Local\Temp\ccxAEgth.s:24113  .debug_str:000000000000feeb .LASF2354
C:\Users\CYMR90~1\AppData\Local\Temp\ccxAEgth.s:21743  .debug_str:0000000000006582 .LASF2355
C:\Users\CYMR90~1\AppData\Local\Temp\ccxAEgth.s:31200  .debug_str:000000000002c4af .LASF2356
C:\Users\CYMR90~1\AppData\Local\Temp\ccxAEgth.s:30620  .debug_str:0000000000029fc2 .LASF2357
C:\Users\CYMR90~1\AppData\Local\Temp\ccxAEgth.s:23415  .debug_str:000000000000d390 .LASF2358
C:\Users\CYMR90~1\AppData\Local\Temp\ccxAEgth.s:22453  .debug_str:000000000000942f .LASF2359
C:\Users\CYMR90~1\AppData\Local\Temp\ccxAEgth.s:21033  .debug_str:000000000000394c .LASF2360
C:\Users\CYMR90~1\AppData\Local\Temp\ccxAEgth.s:24125  .debug_str:000000000000ffc4 .LASF2361
C:\Users\CYMR90~1\AppData\Local\Temp\ccxAEgth.s:22895  .debug_str:000000000000b13e .LASF2362
C:\Users\CYMR90~1\AppData\Local\Temp\ccxAEgth.s:21677  .debug_str:000000000000619f .LASF2363
C:\Users\CYMR90~1\AppData\Local\Temp\ccxAEgth.s:29090  .debug_str:0000000000023b0c .LASF2364
C:\Users\CYMR90~1\AppData\Local\Temp\ccxAEgth.s:28250  .debug_str:000000000002089a .LASF2365
C:\Users\CYMR90~1\AppData\Local\Temp\ccxAEgth.s:24671  .debug_str:00000000000122b6 .LASF2366
C:\Users\CYMR90~1\AppData\Local\Temp\ccxAEgth.s:22993  .debug_str:000000000000b791 .LASF2367
C:\Users\CYMR90~1\AppData\Local\Temp\ccxAEgth.s:29974  .debug_str:00000000000275ff .LASF2368
C:\Users\CYMR90~1\AppData\Local\Temp\ccxAEgth.s:22439  .debug_str:000000000000930c .LASF2369
C:\Users\CYMR90~1\AppData\Local\Temp\ccxAEgth.s:23767  .debug_str:000000000000e8fd .LASF2370
C:\Users\CYMR90~1\AppData\Local\Temp\ccxAEgth.s:21807  .debug_str:00000000000069c2 .LASF2371
C:\Users\CYMR90~1\AppData\Local\Temp\ccxAEgth.s:24177  .debug_str:00000000000102e4 .LASF2372
C:\Users\CYMR90~1\AppData\Local\Temp\ccxAEgth.s:31076  .debug_str:000000000002bc06 .LASF2373
C:\Users\CYMR90~1\AppData\Local\Temp\ccxAEgth.s:29748  .debug_str:00000000000267c3 .LASF2374
C:\Users\CYMR90~1\AppData\Local\Temp\ccxAEgth.s:20251  .debug_str:00000000000008f9 .LASF2375
C:\Users\CYMR90~1\AppData\Local\Temp\ccxAEgth.s:24575  .debug_str:0000000000011c98 .LASF2376
C:\Users\CYMR90~1\AppData\Local\Temp\ccxAEgth.s:27726  .debug_str:000000000001e8ba .LASF2377
C:\Users\CYMR90~1\AppData\Local\Temp\ccxAEgth.s:31022  .debug_str:000000000002b8bc .LASF2378
C:\Users\CYMR90~1\AppData\Local\Temp\ccxAEgth.s:22897  .debug_str:000000000000b163 .LASF2379
C:\Users\CYMR90~1\AppData\Local\Temp\ccxAEgth.s:21849  .debug_str:0000000000006c82 .LASF2380
C:\Users\CYMR90~1\AppData\Local\Temp\ccxAEgth.s:29300  .debug_str:0000000000024937 .LASF2381
C:\Users\CYMR90~1\AppData\Local\Temp\ccxAEgth.s:29046  .debug_str:000000000002389d .LASF2382
C:\Users\CYMR90~1\AppData\Local\Temp\ccxAEgth.s:24349  .debug_str:0000000000010d9b .LASF2383
C:\Users\CYMR90~1\AppData\Local\Temp\ccxAEgth.s:27502  .debug_str:000000000001daa5 .LASF2384
C:\Users\CYMR90~1\AppData\Local\Temp\ccxAEgth.s:30764  .debug_str:000000000002a8b6 .LASF2385
C:\Users\CYMR90~1\AppData\Local\Temp\ccxAEgth.s:20553  .debug_str:0000000000001b54 .LASF2386
C:\Users\CYMR90~1\AppData\Local\Temp\ccxAEgth.s:25253  .debug_str:00000000000147d3 .LASF2387
C:\Users\CYMR90~1\AppData\Local\Temp\ccxAEgth.s:29976  .debug_str:0000000000027611 .LASF2388
C:\Users\CYMR90~1\AppData\Local\Temp\ccxAEgth.s:26876  .debug_str:000000000001b232 .LASF2389
C:\Users\CYMR90~1\AppData\Local\Temp\ccxAEgth.s:28030  .debug_str:000000000001fac8 .LASF2390
C:\Users\CYMR90~1\AppData\Local\Temp\ccxAEgth.s:21421  .debug_str:000000000000528b .LASF2391
C:\Users\CYMR90~1\AppData\Local\Temp\ccxAEgth.s:26134  .debug_str:0000000000018097 .LASF2392
C:\Users\CYMR90~1\AppData\Local\Temp\ccxAEgth.s:30862  .debug_str:000000000002ae5d .LASF2393
C:\Users\CYMR90~1\AppData\Local\Temp\ccxAEgth.s:26984  .debug_str:000000000001b844 .LASF2394
C:\Users\CYMR90~1\AppData\Local\Temp\ccxAEgth.s:30034  .debug_str:000000000002799b .LASF2395
C:\Users\CYMR90~1\AppData\Local\Temp\ccxAEgth.s:23427  .debug_str:000000000000d459 .LASF2396
C:\Users\CYMR90~1\AppData\Local\Temp\ccxAEgth.s:28086  .debug_str:000000000001fe43 .LASF2397
C:\Users\CYMR90~1\AppData\Local\Temp\ccxAEgth.s:21469  .debug_str:0000000000005541 .LASF2398
C:\Users\CYMR90~1\AppData\Local\Temp\ccxAEgth.s:26188  .debug_str:00000000000183de .LASF2399
C:\Users\CYMR90~1\AppData\Local\Temp\ccxAEgth.s:30922  .debug_str:000000000002b217 .LASF2400
C:\Users\CYMR90~1\AppData\Local\Temp\ccxAEgth.s:30796  .debug_str:000000000002aa7e .LASF2401
C:\Users\CYMR90~1\AppData\Local\Temp\ccxAEgth.s:22683  .debug_str:000000000000a2bb .LASF2402
C:\Users\CYMR90~1\AppData\Local\Temp\ccxAEgth.s:25880  .debug_str:0000000000017160 .LASF2403
C:\Users\CYMR90~1\AppData\Local\Temp\ccxAEgth.s:29094  .debug_str:0000000000023b3d .LASF2404
C:\Users\CYMR90~1\AppData\Local\Temp\ccxAEgth.s:21061  .debug_str:0000000000003ad9 .LASF2405
C:\Users\CYMR90~1\AppData\Local\Temp\ccxAEgth.s:24221  .debug_str:00000000000105a5 .LASF2406
C:\Users\CYMR90~1\AppData\Local\Temp\ccxAEgth.s:27394  .debug_str:000000000001d3d6 .LASF2407
C:\Users\CYMR90~1\AppData\Local\Temp\ccxAEgth.s:30646  .debug_str:000000000002a178 .LASF2408
C:\Users\CYMR90~1\AppData\Local\Temp\ccxAEgth.s:25015  .debug_str:000000000001394d .LASF2409
C:\Users\CYMR90~1\AppData\Local\Temp\ccxAEgth.s:23405  .debug_str:000000000000d2e9 .LASF2410
C:\Users\CYMR90~1\AppData\Local\Temp\ccxAEgth.s:26766  .debug_str:000000000001aaef .LASF2411
C:\Users\CYMR90~1\AppData\Local\Temp\ccxAEgth.s:20137  .debug_str:000000000000023a .LASF2412
C:\Users\CYMR90~1\AppData\Local\Temp\ccxAEgth.s:20151  .debug_str:0000000000000340 .LASF2413
C:\Users\CYMR90~1\AppData\Local\Temp\ccxAEgth.s:29516  .debug_str:0000000000025928 .LASF2414
C:\Users\CYMR90~1\AppData\Local\Temp\ccxAEgth.s:22931  .debug_str:000000000000b336 .LASF2415
C:\Users\CYMR90~1\AppData\Local\Temp\ccxAEgth.s:27570  .debug_str:000000000001df5f .LASF2416
C:\Users\CYMR90~1\AppData\Local\Temp\ccxAEgth.s:23255  .debug_str:000000000000c95b .LASF2417
C:\Users\CYMR90~1\AppData\Local\Temp\ccxAEgth.s:25673  .debug_str:0000000000016213 .LASF2418
C:\Users\CYMR90~1\AppData\Local\Temp\ccxAEgth.s:27782  .debug_str:000000000001ebd0 .LASF2419
C:\Users\CYMR90~1\AppData\Local\Temp\ccxAEgth.s:24885  .debug_str:00000000000130c3 .LASF2420
C:\Users\CYMR90~1\AppData\Local\Temp\ccxAEgth.s:29570  .debug_str:0000000000025c8b .LASF2421
C:\Users\CYMR90~1\AppData\Local\Temp\ccxAEgth.s:22973  .debug_str:000000000000b673 .LASF2422
C:\Users\CYMR90~1\AppData\Local\Temp\ccxAEgth.s:27620  .debug_str:000000000001e243 .LASF2423
C:\Users\CYMR90~1\AppData\Local\Temp\ccxAEgth.s:21029  .debug_str:0000000000003901 .LASF2424
C:\Users\CYMR90~1\AppData\Local\Temp\ccxAEgth.s:25731  .debug_str:00000000000165e8 .LASF2425
C:\Users\CYMR90~1\AppData\Local\Temp\ccxAEgth.s:22811  .debug_str:000000000000ab50 .LASF2426
C:\Users\CYMR90~1\AppData\Local\Temp\ccxAEgth.s:25908  .debug_str:00000000000172e6 .LASF2427
C:\Users\CYMR90~1\AppData\Local\Temp\ccxAEgth.s:29134  .debug_str:0000000000023dd5 .LASF2428
C:\Users\CYMR90~1\AppData\Local\Temp\ccxAEgth.s:21013  .debug_str:00000000000037de .LASF2429
C:\Users\CYMR90~1\AppData\Local\Temp\ccxAEgth.s:24259  .debug_str:00000000000107b4 .LASF2430
C:\Users\CYMR90~1\AppData\Local\Temp\ccxAEgth.s:24505  .debug_str:00000000000117df .LASF2431
C:\Users\CYMR90~1\AppData\Local\Temp\ccxAEgth.s:30686  .debug_str:000000000002a3a1 .LASF2432
C:\Users\CYMR90~1\AppData\Local\Temp\ccxAEgth.s:21215  .debug_str:0000000000004544 .LASF2433
C:\Users\CYMR90~1\AppData\Local\Temp\ccxAEgth.s:30962  .debug_str:000000000002b4b4 .LASF2434
C:\Users\CYMR90~1\AppData\Local\Temp\ccxAEgth.s:28892  .debug_str:0000000000022f2a .LASF2435
C:\Users\CYMR90~1\AppData\Local\Temp\ccxAEgth.s:30252  .debug_str:000000000002895b .LASF2436
C:\Users\CYMR90~1\AppData\Local\Temp\ccxAEgth.s:23639  .debug_str:000000000000e0f1 .LASF2437
C:\Users\CYMR90~1\AppData\Local\Temp\ccxAEgth.s:28310  .debug_str:0000000000020c3a .LASF2438
C:\Users\CYMR90~1\AppData\Local\Temp\ccxAEgth.s:21697  .debug_str:00000000000062e7 .LASF2439
C:\Users\CYMR90~1\AppData\Local\Temp\ccxAEgth.s:26428  .debug_str:00000000000193f1 .LASF2440
C:\Users\CYMR90~1\AppData\Local\Temp\ccxAEgth.s:26810  .debug_str:000000000001ae15 .LASF2441
C:\Users\CYMR90~1\AppData\Local\Temp\ccxAEgth.s:24513  .debug_str:000000000001184c .LASF2442
C:\Users\CYMR90~1\AppData\Local\Temp\ccxAEgth.s:29202  .debug_str:00000000000242e4 .LASF2443
C:\Users\CYMR90~1\AppData\Local\Temp\ccxAEgth.s:27268  .debug_str:000000000001caea .LASF2444
C:\Users\CYMR90~1\AppData\Local\Temp\ccxAEgth.s:28366  .debug_str:0000000000020f1e .LASF2445
C:\Users\CYMR90~1\AppData\Local\Temp\ccxAEgth.s:21747  .debug_str:00000000000065bb .LASF2446
C:\Users\CYMR90~1\AppData\Local\Temp\ccxAEgth.s:26478  .debug_str:00000000000197b1 .LASF2447
C:\Users\CYMR90~1\AppData\Local\Temp\ccxAEgth.s:31196  .debug_str:000000000002c470 .LASF2448
C:\Users\CYMR90~1\AppData\Local\Temp\ccxAEgth.s:24567  .debug_str:0000000000011bf5 .LASF2449
C:\Users\CYMR90~1\AppData\Local\Temp\ccxAEgth.s:24487  .debug_str:000000000001162f .LASF2450
C:\Users\CYMR90~1\AppData\Local\Temp\ccxAEgth.s:28052  .debug_str:000000000001fc29 .LASF2451
C:\Users\CYMR90~1\AppData\Local\Temp\ccxAEgth.s:29362  .debug_str:0000000000024d48 .LASF2452
C:\Users\CYMR90~1\AppData\Local\Temp\ccxAEgth.s:27694  .debug_str:000000000001e6ea .LASF2453
C:\Users\CYMR90~1\AppData\Local\Temp\ccxAEgth.s:26320  .debug_str:0000000000018cbe .LASF2454
C:\Users\CYMR90~1\AppData\Local\Temp\ccxAEgth.s:29518  .debug_str:0000000000025941 .LASF2455
C:\Users\CYMR90~1\AppData\Local\Temp\ccxAEgth.s:22875  .debug_str:000000000000b026 .LASF2456
C:\Users\CYMR90~1\AppData\Local\Temp\ccxAEgth.s:24643  .debug_str:00000000000120fe .LASF2457
C:\Users\CYMR90~1\AppData\Local\Temp\ccxAEgth.s:27790  .debug_str:000000000001ec15 .LASF2458
C:\Users\CYMR90~1\AppData\Local\Temp\ccxAEgth.s:29290  .debug_str:00000000000248ad .LASF2459
C:\Users\CYMR90~1\AppData\Local\Temp\ccxAEgth.s:22879  .debug_str:000000000000b063 .LASF2460
C:\Users\CYMR90~1\AppData\Local\Temp\ccxAEgth.s:28928  .debug_str:0000000000023104 .LASF2461
C:\Users\CYMR90~1\AppData\Local\Temp\ccxAEgth.s:31018  .debug_str:000000000002b82c .LASF2462
C:\Users\CYMR90~1\AppData\Local\Temp\ccxAEgth.s:27280  .debug_str:000000000001cc54 .LASF2463
C:\Users\CYMR90~1\AppData\Local\Temp\ccxAEgth.s:20677  .debug_str:0000000000002251 .LASF2464
C:\Users\CYMR90~1\AppData\Local\Temp\ccxAEgth.s:25371  .debug_str:0000000000014f72 .LASF2465
C:\Users\CYMR90~1\AppData\Local\Temp\ccxAEgth.s:30100  .debug_str:0000000000027e40 .LASF2466
C:\Users\CYMR90~1\AppData\Local\Temp\ccxAEgth.s:23487  .debug_str:000000000000d7cb .LASF2467
C:\Users\CYMR90~1\AppData\Local\Temp\ccxAEgth.s:28154  .debug_str:0000000000020249 .LASF2468
C:\Users\CYMR90~1\AppData\Local\Temp\ccxAEgth.s:26262  .debug_str:000000000001886b .LASF2469
C:\Users\CYMR90~1\AppData\Local\Temp\ccxAEgth.s:21089  .debug_str:0000000000003cb2 .LASF2470
C:\Users\CYMR90~1\AppData\Local\Temp\ccxAEgth.s:20733  .debug_str:00000000000025cf .LASF2471
C:\Users\CYMR90~1\AppData\Local\Temp\ccxAEgth.s:24935  .debug_str:000000000001348a .LASF2472
C:\Users\CYMR90~1\AppData\Local\Temp\ccxAEgth.s:30154  .debug_str:00000000000282db .LASF2473
C:\Users\CYMR90~1\AppData\Local\Temp\ccxAEgth.s:23541  .debug_str:000000000000daed .LASF2474
C:\Users\CYMR90~1\AppData\Local\Temp\ccxAEgth.s:28212  .debug_str:000000000002062c .LASF2475
C:\Users\CYMR90~1\AppData\Local\Temp\ccxAEgth.s:30378  .debug_str:00000000000290f6 .LASF2476
C:\Users\CYMR90~1\AppData\Local\Temp\ccxAEgth.s:20869  .debug_str:0000000000002ea3 .LASF2477
C:\Users\CYMR90~1\AppData\Local\Temp\ccxAEgth.s:25449  .debug_str:00000000000153cf .LASF2478
C:\Users\CYMR90~1\AppData\Local\Temp\ccxAEgth.s:30140  .debug_str:0000000000028137 .LASF2479
C:\Users\CYMR90~1\AppData\Local\Temp\ccxAEgth.s:28480  .debug_str:0000000000021696 .LASF2480
C:\Users\CYMR90~1\AppData\Local\Temp\ccxAEgth.s:26880  .debug_str:000000000001b273 .LASF2481
C:\Users\CYMR90~1\AppData\Local\Temp\ccxAEgth.s:26990  .debug_str:000000000001b88f .LASF2482
C:\Users\CYMR90~1\AppData\Local\Temp\ccxAEgth.s:30226  .debug_str:00000000000287e3 .LASF2483
C:\Users\CYMR90~1\AppData\Local\Temp\ccxAEgth.s:22101  .debug_str:0000000000007d4d .LASF2484
C:\Users\CYMR90~1\AppData\Local\Temp\ccxAEgth.s:25225  .debug_str:0000000000014630 .LASF2485
C:\Users\CYMR90~1\AppData\Local\Temp\ccxAEgth.s:24939  .debug_str:00000000000134b7 .LASF2486
C:\Users\CYMR90~1\AppData\Local\Temp\ccxAEgth.s:29630  .debug_str:0000000000026056 .LASF2487
C:\Users\CYMR90~1\AppData\Local\Temp\ccxAEgth.s:23025  .debug_str:000000000000b9b3 .LASF2488
C:\Users\CYMR90~1\AppData\Local\Temp\ccxAEgth.s:27672  .debug_str:000000000001e543 .LASF2489
C:\Users\CYMR90~1\AppData\Local\Temp\ccxAEgth.s:21079  .debug_str:0000000000003c1f .LASF2490
C:\Users\CYMR90~1\AppData\Local\Temp\ccxAEgth.s:25794  .debug_str:0000000000016c62 .LASF2491
C:\Users\CYMR90~1\AppData\Local\Temp\ccxAEgth.s:30516  .debug_str:00000000000299d2 .LASF2492
C:\Users\CYMR90~1\AppData\Local\Temp\ccxAEgth.s:23899  .debug_str:000000000000f0be .LASF2493
C:\Users\CYMR90~1\AppData\Local\Temp\ccxAEgth.s:21961  .debug_str:00000000000073ac .LASF2494
C:\Users\CYMR90~1\AppData\Local\Temp\ccxAEgth.s:23079  .debug_str:000000000000bdb2 .LASF2495
C:\Users\CYMR90~1\AppData\Local\Temp\ccxAEgth.s:27716  .debug_str:000000000001e845 .LASF2496
C:\Users\CYMR90~1\AppData\Local\Temp\ccxAEgth.s:21125  .debug_str:0000000000003efc .LASF2497
C:\Users\CYMR90~1\AppData\Local\Temp\ccxAEgth.s:20523  .debug_str:000000000000196a .LASF2498
C:\Users\CYMR90~1\AppData\Local\Temp\ccxAEgth.s:30568  .debug_str:0000000000029cf7 .LASF2499
C:\Users\CYMR90~1\AppData\Local\Temp\ccxAEgth.s:23961  .debug_str:000000000000f524 .LASF2500
C:\Users\CYMR90~1\AppData\Local\Temp\ccxAEgth.s:23679  .debug_str:000000000000e358 .LASF2501
C:\Users\CYMR90~1\AppData\Local\Temp\ccxAEgth.s:26890  .debug_str:000000000001b321 .LASF2502
C:\Users\CYMR90~1\AppData\Local\Temp\ccxAEgth.s:30110  .debug_str:0000000000027ee7 .LASF2503
C:\Users\CYMR90~1\AppData\Local\Temp\ccxAEgth.s:21979  .debug_str:00000000000074e1 .LASF2504
C:\Users\CYMR90~1\AppData\Local\Temp\ccxAEgth.s:25109  .debug_str:0000000000013ee1 .LASF2505
C:\Users\CYMR90~1\AppData\Local\Temp\ccxAEgth.s:28308  .debug_str:0000000000020c27 .LASF2506
C:\Users\CYMR90~1\AppData\Local\Temp\ccxAEgth.s:30502  .debug_str:000000000002990f .LASF2507
C:\Users\CYMR90~1\AppData\Local\Temp\ccxAEgth.s:23453  .debug_str:000000000000d5f2 .LASF2508
C:\Users\CYMR90~1\AppData\Local\Temp\ccxAEgth.s:26672  .debug_str:000000000001a4b7 .LASF2509
C:\Users\CYMR90~1\AppData\Local\Temp\ccxAEgth.s:29872  .debug_str:0000000000026f43 .LASF2510
C:\Users\CYMR90~1\AppData\Local\Temp\ccxAEgth.s:30196  .debug_str:000000000002859a .LASF2511
C:\Users\CYMR90~1\AppData\Local\Temp\ccxAEgth.s:23583  .debug_str:000000000000ddb0 .LASF2512
C:\Users\CYMR90~1\AppData\Local\Temp\ccxAEgth.s:28254  .debug_str:00000000000208c9 .LASF2513
C:\Users\CYMR90~1\AppData\Local\Temp\ccxAEgth.s:21625  .debug_str:0000000000005e6c .LASF2514
C:\Users\CYMR90~1\AppData\Local\Temp\ccxAEgth.s:26366  .debug_str:0000000000019069 .LASF2515
C:\Users\CYMR90~1\AppData\Local\Temp\ccxAEgth.s:27130  .debug_str:000000000001c198 .LASF2516
C:\Users\CYMR90~1\AppData\Local\Temp\ccxAEgth.s:24453  .debug_str:00000000000113ec .LASF2517
C:\Users\CYMR90~1\AppData\Local\Temp\ccxAEgth.s:29144  .debug_str:0000000000023e45 .LASF2518
C:\Users\CYMR90~1\AppData\Local\Temp\ccxAEgth.s:27220  .debug_str:000000000001c7ed .LASF2519
C:\Users\CYMR90~1\AppData\Local\Temp\ccxAEgth.s:28400  .debug_str:0000000000021117 .LASF2520
C:\Users\CYMR90~1\AppData\Local\Temp\ccxAEgth.s:21777  .debug_str:00000000000067d3 .LASF2521
C:\Users\CYMR90~1\AppData\Local\Temp\ccxAEgth.s:26504  .debug_str:0000000000019968 .LASF2522
C:\Users\CYMR90~1\AppData\Local\Temp\ccxAEgth.s:31224  .debug_str:000000000002c62e .LASF2523
C:\Users\CYMR90~1\AppData\Local\Temp\ccxAEgth.s:24593  .debug_str:0000000000011d9d .LASF2524
C:\Users\CYMR90~1\AppData\Local\Temp\ccxAEgth.s:29272  .debug_str:0000000000024724 .LASF2525
C:\Users\CYMR90~1\AppData\Local\Temp\ccxAEgth.s:24793  .debug_str:0000000000012aae .LASF2526
C:\Users\CYMR90~1\AppData\Local\Temp\ccxAEgth.s:20967  .debug_str:00000000000034fe .LASF2527
C:\Users\CYMR90~1\AppData\Local\Temp\ccxAEgth.s:26158  .debug_str:0000000000018205 .LASF2528
C:\Users\CYMR90~1\AppData\Local\Temp\ccxAEgth.s:22513  .debug_str:000000000000983e .LASF2529
C:\Users\CYMR90~1\AppData\Local\Temp\ccxAEgth.s:21297  .debug_str:0000000000004b12 .LASF2530
C:\Users\CYMR90~1\AppData\Local\Temp\ccxAEgth.s:29590  .debug_str:0000000000025db8 .LASF2531
C:\Users\CYMR90~1\AppData\Local\Temp\ccxAEgth.s:25573  .debug_str:0000000000015b9c .LASF2532
C:\Users\CYMR90~1\AppData\Local\Temp\ccxAEgth.s:25341  .debug_str:0000000000014db0 .LASF2533
C:\Users\CYMR90~1\AppData\Local\Temp\ccxAEgth.s:25715  .debug_str:00000000000164f1 .LASF2534
C:\Users\CYMR90~1\AppData\Local\Temp\ccxAEgth.s:22579  .debug_str:0000000000009c29 .LASF2535
C:\Users\CYMR90~1\AppData\Local\Temp\ccxAEgth.s:29252  .debug_str:00000000000245e4 .LASF2536
C:\Users\CYMR90~1\AppData\Local\Temp\ccxAEgth.s:30328  .debug_str:0000000000028dbd .LASF2537
C:\Users\CYMR90~1\AppData\Local\Temp\ccxAEgth.s:20215  .debug_str:00000000000006d1 .LASF2538
C:\Users\CYMR90~1\AppData\Local\Temp\ccxAEgth.s:22001  .debug_str:000000000000763f .LASF2539
C:\Users\CYMR90~1\AppData\Local\Temp\ccxAEgth.s:21007  .debug_str:000000000000378b .LASF2540
C:\Users\CYMR90~1\AppData\Local\Temp\ccxAEgth.s:29480  .debug_str:0000000000025646 .LASF2541
C:\Users\CYMR90~1\AppData\Local\Temp\ccxAEgth.s:24595  .debug_str:0000000000011db2 .LASF2542
C:\Users\CYMR90~1\AppData\Local\Temp\ccxAEgth.s:23375  .debug_str:000000000000d07a .LASF2543
C:\Users\CYMR90~1\AppData\Local\Temp\ccxAEgth.s:27982  .debug_str:000000000001f7c3 .LASF2544
C:\Users\CYMR90~1\AppData\Local\Temp\ccxAEgth.s:27098  .debug_str:000000000001bfc6 .LASF2545
C:\Users\CYMR90~1\AppData\Local\Temp\ccxAEgth.s:21053  .debug_str:0000000000003a5a .LASF2546
C:\Users\CYMR90~1\AppData\Local\Temp\ccxAEgth.s:29638  .debug_str:00000000000260e6 .LASF2547
C:\Users\CYMR90~1\AppData\Local\Temp\ccxAEgth.s:23341  .debug_str:000000000000ce4c .LASF2548
C:\Users\CYMR90~1\AppData\Local\Temp\ccxAEgth.s:22417  .debug_str:00000000000091c4 .LASF2549
C:\Users\CYMR90~1\AppData\Local\Temp\ccxAEgth.s:21391  .debug_str:00000000000050a0 .LASF2550
C:\Users\CYMR90~1\AppData\Local\Temp\ccxAEgth.s:29984  .debug_str:0000000000027691 .LASF2551
C:\Users\CYMR90~1\AppData\Local\Temp\ccxAEgth.s:30282  .debug_str:0000000000028b4c .LASF2552
C:\Users\CYMR90~1\AppData\Local\Temp\ccxAEgth.s:24451  .debug_str:00000000000113ca .LASF2553
C:\Users\CYMR90~1\AppData\Local\Temp\ccxAEgth.s:28350  .debug_str:0000000000020e56 .LASF2554
C:\Users\CYMR90~1\AppData\Local\Temp\ccxAEgth.s:25495  .debug_str:000000000001566e .LASF2555
C:\Users\CYMR90~1\AppData\Local\Temp\ccxAEgth.s:26062  .debug_str:0000000000017c72 .LASF2556
C:\Users\CYMR90~1\AppData\Local\Temp\ccxAEgth.s:24917  .debug_str:0000000000013361 .LASF2557
C:\Users\CYMR90~1\AppData\Local\Temp\ccxAEgth.s:25397  .debug_str:0000000000015121 .LASF2558
C:\Users\CYMR90~1\AppData\Local\Temp\ccxAEgth.s:24117  .debug_str:000000000000ff2a .LASF2559
C:\Users\CYMR90~1\AppData\Local\Temp\ccxAEgth.s:24401  .debug_str:00000000000110bc .LASF2560
C:\Users\CYMR90~1\AppData\Local\Temp\ccxAEgth.s:23491  .debug_str:000000000000d810 .LASF2561
C:\Users\CYMR90~1\AppData\Local\Temp\ccxAEgth.s:22493  .debug_str:000000000000968f .LASF2562
C:\Users\CYMR90~1\AppData\Local\Temp\ccxAEgth.s:30984  .debug_str:000000000002b61b .LASF2563
C:\Users\CYMR90~1\AppData\Local\Temp\ccxAEgth.s:24141  .debug_str:00000000000100dd .LASF2564
C:\Users\CYMR90~1\AppData\Local\Temp\ccxAEgth.s:30322  .debug_str:0000000000028d60 .LASF2565
C:\Users\CYMR90~1\AppData\Local\Temp\ccxAEgth.s:29034  .debug_str:00000000000237d6 .LASF2566
C:\Users\CYMR90~1\AppData\Local\Temp\ccxAEgth.s:25888  .debug_str:00000000000171cf .LASF2567
C:\Users\CYMR90~1\AppData\Local\Temp\ccxAEgth.s:25513  .debug_str:00000000000157a4 .LASF2568
C:\Users\CYMR90~1\AppData\Local\Temp\ccxAEgth.s:25641  .debug_str:000000000001604a .LASF2569
C:\Users\CYMR90~1\AppData\Local\Temp\ccxAEgth.s:30006  .debug_str:00000000000277d1 .LASF2570
C:\Users\CYMR90~1\AppData\Local\Temp\ccxAEgth.s:23357  .debug_str:000000000000cf50 .LASF2571
C:\Users\CYMR90~1\AppData\Local\Temp\ccxAEgth.s:27762  .debug_str:000000000001ea93 .LASF2572
C:\Users\CYMR90~1\AppData\Local\Temp\ccxAEgth.s:21895  .debug_str:0000000000006f9f .LASF2573
C:\Users\CYMR90~1\AppData\Local\Temp\ccxAEgth.s:20359  .debug_str:0000000000000fd0 .LASF2574
C:\Users\CYMR90~1\AppData\Local\Temp\ccxAEgth.s:26756  .debug_str:000000000001aa6b .LASF2575
C:\Users\CYMR90~1\AppData\Local\Temp\ccxAEgth.s:22757  .debug_str:000000000000a7fe .LASF2576
C:\Users\CYMR90~1\AppData\Local\Temp\ccxAEgth.s:25621  .debug_str:0000000000015f13 .LASF2577
C:\Users\CYMR90~1\AppData\Local\Temp\ccxAEgth.s:23077  .debug_str:000000000000bd9a .LASF2578
C:\Users\CYMR90~1\AppData\Local\Temp\ccxAEgth.s:23203  .debug_str:000000000000c56e .LASF2579
C:\Users\CYMR90~1\AppData\Local\Temp\ccxAEgth.s:27140  .debug_str:000000000001c211 .LASF2580
C:\Users\CYMR90~1\AppData\Local\Temp\ccxAEgth.s:21333  .debug_str:0000000000004d34 .LASF2581
C:\Users\CYMR90~1\AppData\Local\Temp\ccxAEgth.s:26996  .debug_str:000000000001b8e6 .LASF2582
C:\Users\CYMR90~1\AppData\Local\Temp\ccxAEgth.s:25499  .debug_str:00000000000156d7 .LASF2583
C:\Users\CYMR90~1\AppData\Local\Temp\ccxAEgth.s:30466  .debug_str:00000000000296fb .LASF2584
C:\Users\CYMR90~1\AppData\Local\Temp\ccxAEgth.s:28636  .debug_str:0000000000021ff0 .LASF2585
C:\Users\CYMR90~1\AppData\Local\Temp\ccxAEgth.s:21303  .debug_str:0000000000004b77 .LASF2586
C:\Users\CYMR90~1\AppData\Local\Temp\ccxAEgth.s:20371  .debug_str:0000000000001077 .LASF2587
C:\Users\CYMR90~1\AppData\Local\Temp\ccxAEgth.s:30744  .debug_str:000000000002a771 .LASF2588
C:\Users\CYMR90~1\AppData\Local\Temp\ccxAEgth.s:20309  .debug_str:0000000000000cad .LASF2589
C:\Users\CYMR90~1\AppData\Local\Temp\ccxAEgth.s:22021  .debug_str:0000000000007786 .LASF2590
C:\Users\CYMR90~1\AppData\Local\Temp\ccxAEgth.s:22491  .debug_str:000000000000966f .LASF2591
C:\Users\CYMR90~1\AppData\Local\Temp\ccxAEgth.s:24771  .debug_str:0000000000012972 .LASF2592
C:\Users\CYMR90~1\AppData\Local\Temp\ccxAEgth.s:22549  .debug_str:0000000000009a72 .LASF2593
C:\Users\CYMR90~1\AppData\Local\Temp\ccxAEgth.s:21091  .debug_str:0000000000003ccb .LASF2594
C:\Users\CYMR90~1\AppData\Local\Temp\ccxAEgth.s:27006  .debug_str:000000000001b9b6 .LASF2595
C:\Users\CYMR90~1\AppData\Local\Temp\ccxAEgth.s:26150  .debug_str:000000000001819d .LASF2596
C:\Users\CYMR90~1\AppData\Local\Temp\ccxAEgth.s:27714  .debug_str:000000000001e823 .LASF2597
C:\Users\CYMR90~1\AppData\Local\Temp\ccxAEgth.s:31314  .debug_str:000000000002cbd3 .LASF2598
C:\Users\CYMR90~1\AppData\Local\Temp\ccxAEgth.s:20549  .debug_str:0000000000001b1a .LASF2599
C:\Users\CYMR90~1\AppData\Local\Temp\ccxAEgth.s:25025  .debug_str:00000000000139f2 .LASF2600
C:\Users\CYMR90~1\AppData\Local\Temp\ccxAEgth.s:28612  .debug_str:0000000000021e68 .LASF2601
C:\Users\CYMR90~1\AppData\Local\Temp\ccxAEgth.s:31094  .debug_str:000000000002bd3f .LASF2602
C:\Users\CYMR90~1\AppData\Local\Temp\ccxAEgth.s:24457  .debug_str:0000000000011430 .LASF2603
C:\Users\CYMR90~1\AppData\Local\Temp\ccxAEgth.s:23789  .debug_str:000000000000ea7e .LASF2604
C:\Users\CYMR90~1\AppData\Local\Temp\ccxAEgth.s:27264  .debug_str:000000000001cab8 .LASF2605
C:\Users\CYMR90~1\AppData\Local\Temp\ccxAEgth.s:26540  .debug_str:0000000000019ba5 .LASF2606
C:\Users\CYMR90~1\AppData\Local\Temp\ccxAEgth.s:21351  .debug_str:0000000000004e4e .LASF2607
C:\Users\CYMR90~1\AppData\Local\Temp\ccxAEgth.s:21267  .debug_str:000000000000493a .LASF2608
C:\Users\CYMR90~1\AppData\Local\Temp\ccxAEgth.s:31350  .debug_str:000000000002ce88 .LASF2609
C:\Users\CYMR90~1\AppData\Local\Temp\ccxAEgth.s:27882  .debug_str:000000000001f1d7 .LASF2610
C:\Users\CYMR90~1\AppData\Local\Temp\ccxAEgth.s:22171  .debug_str:0000000000008289 .LASF2611
C:\Users\CYMR90~1\AppData\Local\Temp\ccxAEgth.s:22159  .debug_str:00000000000081e8 .LASF2612
C:\Users\CYMR90~1\AppData\Local\Temp\ccxAEgth.s:29524  .debug_str:000000000002599b .LASF2613
C:\Users\CYMR90~1\AppData\Local\Temp\ccxAEgth.s:24413  .debug_str:000000000001117f .LASF2614
C:\Users\CYMR90~1\AppData\Local\Temp\ccxAEgth.s:25639  .debug_str:0000000000016026 .LASF2615
C:\Users\CYMR90~1\AppData\Local\Temp\ccxAEgth.s:26954  .debug_str:000000000001b6f0 .LASF2616
C:\Users\CYMR90~1\AppData\Local\Temp\ccxAEgth.s:30258  .debug_str:00000000000289ea .LASF2617
C:\Users\CYMR90~1\AppData\Local\Temp\ccxAEgth.s:28486  .debug_str:0000000000021704 .LASF2618
C:\Users\CYMR90~1\AppData\Local\Temp\ccxAEgth.s:27506  .debug_str:000000000001dad0 .LASF2619
C:\Users\CYMR90~1\AppData\Local\Temp\ccxAEgth.s:26516  .debug_str:0000000000019a3d .LASF2620
C:\Users\CYMR90~1\AppData\Local\Temp\ccxAEgth.s:25597  .debug_str:0000000000015d50 .LASF2621
C:\Users\CYMR90~1\AppData\Local\Temp\ccxAEgth.s:24679  .debug_str:0000000000012346 .LASF2622
C:\Users\CYMR90~1\AppData\Local\Temp\ccxAEgth.s:28878  .debug_str:0000000000022e6d .LASF2623
C:\Users\CYMR90~1\AppData\Local\Temp\ccxAEgth.s:25427  .debug_str:00000000000152b6 .LASF2624
C:\Users\CYMR90~1\AppData\Local\Temp\ccxAEgth.s:21187  .debug_str:0000000000004372 .LASF2625
C:\Users\CYMR90~1\AppData\Local\Temp\ccxAEgth.s:20897  .debug_str:000000000000305b .LASF2626
C:\Users\CYMR90~1\AppData\Local\Temp\ccxAEgth.s:22419  .debug_str:00000000000091e6 .LASF2627
C:\Users\CYMR90~1\AppData\Local\Temp\ccxAEgth.s:20305  .debug_str:0000000000000c76 .LASF2628
C:\Users\CYMR90~1\AppData\Local\Temp\ccxAEgth.s:23579  .debug_str:000000000000dd72 .LASF2629
C:\Users\CYMR90~1\AppData\Local\Temp\ccxAEgth.s:22229  .debug_str:0000000000008602 .LASF2630
C:\Users\CYMR90~1\AppData\Local\Temp\ccxAEgth.s:20597  .debug_str:0000000000001e01 .LASF2631
C:\Users\CYMR90~1\AppData\Local\Temp\ccxAEgth.s:23041  .debug_str:000000000000baa8 .LASF2632
C:\Users\CYMR90~1\AppData\Local\Temp\ccxAEgth.s:20411  .debug_str:00000000000012a9 .LASF2633
C:\Users\CYMR90~1\AppData\Local\Temp\ccxAEgth.s:26644  .debug_str:000000000001a360 .LASF2634
C:\Users\CYMR90~1\AppData\Local\Temp\ccxAEgth.s:26426  .debug_str:00000000000193e0 .LASF2635
C:\Users\CYMR90~1\AppData\Local\Temp\ccxAEgth.s:24947  .debug_str:0000000000013547 .LASF2636
C:\Users\CYMR90~1\AppData\Local\Temp\ccxAEgth.s:30162  .debug_str:0000000000028355 .LASF2637
C:\Users\CYMR90~1\AppData\Local\Temp\ccxAEgth.s:22619  .debug_str:0000000000009eba .LASF2638
C:\Users\CYMR90~1\AppData\Local\Temp\ccxAEgth.s:26686  .debug_str:000000000001a5a4 .LASF2639
C:\Users\CYMR90~1\AppData\Local\Temp\ccxAEgth.s:27312  .debug_str:000000000001cec7 .LASF2640
C:\Users\CYMR90~1\AppData\Local\Temp\ccxAEgth.s:25822  .debug_str:0000000000016e20 .LASF2641
C:\Users\CYMR90~1\AppData\Local\Temp\ccxAEgth.s:29758  .debug_str:0000000000026861 .LASF2642
C:\Users\CYMR90~1\AppData\Local\Temp\ccxAEgth.s:24889  .debug_str:00000000000130f4 .LASF2643
C:\Users\CYMR90~1\AppData\Local\Temp\ccxAEgth.s:20175  .debug_str:000000000000048d .LASF2644
C:\Users\CYMR90~1\AppData\Local\Temp\ccxAEgth.s:20661  .debug_str:0000000000002156 .LASF2645
C:\Users\CYMR90~1\AppData\Local\Temp\ccxAEgth.s:25457  .debug_str:000000000001543f .LASF2646
C:\Users\CYMR90~1\AppData\Local\Temp\ccxAEgth.s:20293  .debug_str:0000000000000bd5 .LASF2647
C:\Users\CYMR90~1\AppData\Local\Temp\ccxAEgth.s:27410  .debug_str:000000000001d514 .LASF2648
C:\Users\CYMR90~1\AppData\Local\Temp\ccxAEgth.s:27986  .debug_str:000000000001f7fe .LASF2649
C:\Users\CYMR90~1\AppData\Local\Temp\ccxAEgth.s:29320  .debug_str:0000000000024a83 .LASF2650
C:\Users\CYMR90~1\AppData\Local\Temp\ccxAEgth.s:21453  .debug_str:0000000000005476 .LASF2651
C:\Users\CYMR90~1\AppData\Local\Temp\ccxAEgth.s:21055  .debug_str:0000000000003a7c .LASF2652
C:\Users\CYMR90~1\AppData\Local\Temp\ccxAEgth.s:25153  .debug_str:00000000000141c4 .LASF2653
C:\Users\CYMR90~1\AppData\Local\Temp\ccxAEgth.s:23115  .debug_str:000000000000c01a .LASF2654
C:\Users\CYMR90~1\AppData\Local\Temp\ccxAEgth.s:27870  .debug_str:000000000001f11c .LASF2655
C:\Users\CYMR90~1\AppData\Local\Temp\ccxAEgth.s:23663  .debug_str:000000000000e262 .LASF2656
C:\Users\CYMR90~1\AppData\Local\Temp\ccxAEgth.s:27684  .debug_str:000000000001e624 .LASF2657
C:\Users\CYMR90~1\AppData\Local\Temp\ccxAEgth.s:31298  .debug_str:000000000002cafd .LASF2658
C:\Users\CYMR90~1\AppData\Local\Temp\ccxAEgth.s:21567  .debug_str:0000000000005b1c .LASF2659
C:\Users\CYMR90~1\AppData\Local\Temp\ccxAEgth.s:26670  .debug_str:000000000001a499 .LASF2660
C:\Users\CYMR90~1\AppData\Local\Temp\ccxAEgth.s:22833  .debug_str:000000000000acc5 .LASF2661
C:\Users\CYMR90~1\AppData\Local\Temp\ccxAEgth.s:29458  .debug_str:0000000000025487 .LASF2662
C:\Users\CYMR90~1\AppData\Local\Temp\ccxAEgth.s:20845  .debug_str:0000000000002d17 .LASF2663
C:\Users\CYMR90~1\AppData\Local\Temp\ccxAEgth.s:31182  .debug_str:000000000002c345 .LASF2664
C:\Users\CYMR90~1\AppData\Local\Temp\ccxAEgth.s:20447  .debug_str:00000000000014ca .LASF2665
C:\Users\CYMR90~1\AppData\Local\Temp\ccxAEgth.s:28642  .debug_str:0000000000022047 .LASF2666
C:\Users\CYMR90~1\AppData\Local\Temp\ccxAEgth.s:28652  .debug_str:00000000000220ed .LASF2667
C:\Users\CYMR90~1\AppData\Local\Temp\ccxAEgth.s:25047  .debug_str:0000000000013b3d .LASF2668
C:\Users\CYMR90~1\AppData\Local\Temp\ccxAEgth.s:24837  .debug_str:0000000000012d99 .LASF2669
C:\Users\CYMR90~1\AppData\Local\Temp\ccxAEgth.s:27678  .debug_str:000000000001e5b9 .LASF2670
C:\Users\CYMR90~1\AppData\Local\Temp\ccxAEgth.s:22963  .debug_str:000000000000b5b8 .LASF2671
C:\Users\CYMR90~1\AppData\Local\Temp\ccxAEgth.s:21831  .debug_str:0000000000006b42 .LASF2672
C:\Users\CYMR90~1\AppData\Local\Temp\ccxAEgth.s:27980  .debug_str:000000000001f795 .LASF2673
C:\Users\CYMR90~1\AppData\Local\Temp\ccxAEgth.s:30524  .debug_str:0000000000029a39 .LASF2674
C:\Users\CYMR90~1\AppData\Local\Temp\ccxAEgth.s:25976  .debug_str:0000000000017744 .LASF2675
C:\Users\CYMR90~1\AppData\Local\Temp\ccxAEgth.s:27326  .debug_str:000000000001cfbc .LASF2676
C:\Users\CYMR90~1\AppData\Local\Temp\ccxAEgth.s:25213  .debug_str:000000000001456e .LASF2677
C:\Users\CYMR90~1\AppData\Local\Temp\ccxAEgth.s:29486  .debug_str:00000000000256b9 .LASF2678
C:\Users\CYMR90~1\AppData\Local\Temp\ccxAEgth.s:26848  .debug_str:000000000001b06d .LASF2679
C:\Users\CYMR90~1\AppData\Local\Temp\ccxAEgth.s:30902  .debug_str:000000000002b0a2 .LASF2680
C:\Users\CYMR90~1\AppData\Local\Temp\ccxAEgth.s:21363  .debug_str:0000000000004efe .LASF2681
C:\Users\CYMR90~1\AppData\Local\Temp\ccxAEgth.s:21991  .debug_str:000000000000759d .LASF2682
C:\Users\CYMR90~1\AppData\Local\Temp\ccxAEgth.s:30338  .debug_str:0000000000028e96 .LASF2683
C:\Users\CYMR90~1\AppData\Local\Temp\ccxAEgth.s:26352  .debug_str:0000000000018f71 .LASF2684
C:\Users\CYMR90~1\AppData\Local\Temp\ccxAEgth.s:29398  .debug_str:0000000000024f79 .LASF2685
C:\Users\CYMR90~1\AppData\Local\Temp\ccxAEgth.s:23349  .debug_str:000000000000cec2 .LASF2686
C:\Users\CYMR90~1\AppData\Local\Temp\ccxAEgth.s:28544  .debug_str:0000000000021a76 .LASF2687
C:\Users\CYMR90~1\AppData\Local\Temp\ccxAEgth.s:28798  .debug_str:0000000000022979 .LASF2688
C:\Users\CYMR90~1\AppData\Local\Temp\ccxAEgth.s:24445  .debug_str:0000000000011380 .LASF2689
C:\Users\CYMR90~1\AppData\Local\Temp\ccxAEgth.s:21037  .debug_str:000000000000397e .LASF2690
C:\Users\CYMR90~1\AppData\Local\Temp\ccxAEgth.s:26306  .debug_str:0000000000018bcb .LASF2691
C:\Users\CYMR90~1\AppData\Local\Temp\ccxAEgth.s:20227  .debug_str:0000000000000787 .LASF2692
C:\Users\CYMR90~1\AppData\Local\Temp\ccxAEgth.s:28078  .debug_str:000000000001fde1 .LASF2693
C:\Users\CYMR90~1\AppData\Local\Temp\ccxAEgth.s:30248  .debug_str:0000000000028929 .LASF2694
C:\Users\CYMR90~1\AppData\Local\Temp\ccxAEgth.s:22129  .debug_str:0000000000007fc9 .LASF2695
C:\Users\CYMR90~1\AppData\Local\Temp\ccxAEgth.s:22769  .debug_str:000000000000a8b8 .LASF2696
C:\Users\CYMR90~1\AppData\Local\Temp\ccxAEgth.s:28540  .debug_str:0000000000021a3a .LASF2697
C:\Users\CYMR90~1\AppData\Local\Temp\ccxAEgth.s:20361  .debug_str:0000000000000fe2 .LASF2698
C:\Users\CYMR90~1\AppData\Local\Temp\ccxAEgth.s:23591  .debug_str:000000000000de21 .LASF2699
C:\Users\CYMR90~1\AppData\Local\Temp\ccxAEgth.s:26816  .debug_str:000000000001ae67 .LASF2700
C:\Users\CYMR90~1\AppData\Local\Temp\ccxAEgth.s:30008  .debug_str:00000000000277e4 .LASF2701
C:\Users\CYMR90~1\AppData\Local\Temp\ccxAEgth.s:21873  .debug_str:0000000000006e12 .LASF2702
C:\Users\CYMR90~1\AppData\Local\Temp\ccxAEgth.s:25101  .debug_str:0000000000013e52 .LASF2703
C:\Users\CYMR90~1\AppData\Local\Temp\ccxAEgth.s:21561  .debug_str:0000000000005acc .LASF2704
C:\Users\CYMR90~1\AppData\Local\Temp\ccxAEgth.s:26300  .debug_str:0000000000018b6e .LASF2705
C:\Users\CYMR90~1\AppData\Local\Temp\ccxAEgth.s:31028  .debug_str:000000000002b915 .LASF2706
C:\Users\CYMR90~1\AppData\Local\Temp\ccxAEgth.s:24391  .debug_str:0000000000011006 .LASF2707
C:\Users\CYMR90~1\AppData\Local\Temp\ccxAEgth.s:29072  .debug_str:0000000000023a19 .LASF2708
C:\Users\CYMR90~1\AppData\Local\Temp\ccxAEgth.s:22469  .debug_str:0000000000009530 .LASF2709
C:\Users\CYMR90~1\AppData\Local\Temp\ccxAEgth.s:22845  .debug_str:000000000000ae4e .LASF2710
C:\Users\CYMR90~1\AppData\Local\Temp\ccxAEgth.s:23501  .debug_str:000000000000d8c4 .LASF2711
C:\Users\CYMR90~1\AppData\Local\Temp\ccxAEgth.s:28792  .debug_str:0000000000022913 .LASF2712
C:\Users\CYMR90~1\AppData\Local\Temp\ccxAEgth.s:26028  .debug_str:0000000000017a70 .LASF2713
C:\Users\CYMR90~1\AppData\Local\Temp\ccxAEgth.s:21281  .debug_str:0000000000004a07 .LASF2714
C:\Users\CYMR90~1\AppData\Local\Temp\ccxAEgth.s:22717  .debug_str:000000000000a4af .LASF2715
C:\Users\CYMR90~1\AppData\Local\Temp\ccxAEgth.s:27900  .debug_str:000000000001f305 .LASF2716
C:\Users\CYMR90~1\AppData\Local\Temp\ccxAEgth.s:21845  .debug_str:0000000000006c4d .LASF2717
C:\Users\CYMR90~1\AppData\Local\Temp\ccxAEgth.s:27010  .debug_str:000000000001ba03 .LASF2718
C:\Users\CYMR90~1\AppData\Local\Temp\ccxAEgth.s:23201  .debug_str:000000000000c552 .LASF2719
C:\Users\CYMR90~1\AppData\Local\Temp\ccxAEgth.s:22945  .debug_str:000000000000b487 .LASF2720
C:\Users\CYMR90~1\AppData\Local\Temp\ccxAEgth.s:28150  .debug_str:0000000000020208 .LASF2721
C:\Users\CYMR90~1\AppData\Local\Temp\ccxAEgth.s:22083  .debug_str:0000000000007c18 .LASF2722
C:\Users\CYMR90~1\AppData\Local\Temp\ccxAEgth.s:27232  .debug_str:000000000001c89c .LASF2723
C:\Users\CYMR90~1\AppData\Local\Temp\ccxAEgth.s:21147  .debug_str:00000000000040ef .LASF2724
C:\Users\CYMR90~1\AppData\Local\Temp\ccxAEgth.s:29048  .debug_str:00000000000238b6 .LASF2725
C:\Users\CYMR90~1\AppData\Local\Temp\ccxAEgth.s:26332  .debug_str:0000000000018d5a .LASF2726
C:\Users\CYMR90~1\AppData\Local\Temp\ccxAEgth.s:20623  .debug_str:0000000000001f56 .LASF2727
C:\Users\CYMR90~1\AppData\Local\Temp\ccxAEgth.s:20973  .debug_str:0000000000003547 .LASF2728
C:\Users\CYMR90~1\AppData\Local\Temp\ccxAEgth.s:29528  .debug_str:00000000000259de .LASF2729
C:\Users\CYMR90~1\AppData\Local\Temp\ccxAEgth.s:26874  .debug_str:000000000001b21a .LASF2730
C:\Users\CYMR90~1\AppData\Local\Temp\ccxAEgth.s:26016  .debug_str:00000000000179d2 .LASF2731
C:\Users\CYMR90~1\AppData\Local\Temp\ccxAEgth.s:31210  .debug_str:000000000002c550 .LASF2732
C:\Users\CYMR90~1\AppData\Local\Temp\ccxAEgth.s:25099  .debug_str:0000000000013e38 .LASF2733
C:\Users\CYMR90~1\AppData\Local\Temp\ccxAEgth.s:30362  .debug_str:0000000000028ffd .LASF2734
C:\Users\CYMR90~1\AppData\Local\Temp\ccxAEgth.s:24197  .debug_str:0000000000010412 .LASF2735
C:\Users\CYMR90~1\AppData\Local\Temp\ccxAEgth.s:26772  .debug_str:000000000001ab5a .LASF2736
C:\Users\CYMR90~1\AppData\Local\Temp\ccxAEgth.s:20655  .debug_str:000000000000210b .LASF2737
C:\Users\CYMR90~1\AppData\Local\Temp\ccxAEgth.s:25812  .debug_str:0000000000016d9b .LASF2738
C:\Users\CYMR90~1\AppData\Local\Temp\ccxAEgth.s:25133  .debug_str:000000000001409c .LASF2739
C:\Users\CYMR90~1\AppData\Local\Temp\ccxAEgth.s:24901  .debug_str:00000000000131f0 .LASF2740
C:\Users\CYMR90~1\AppData\Local\Temp\ccxAEgth.s:23793  .debug_str:000000000000eaaf .LASF2741
C:\Users\CYMR90~1\AppData\Local\Temp\ccxAEgth.s:30904  .debug_str:000000000002b0ba .LASF2742
C:\Users\CYMR90~1\AppData\Local\Temp\ccxAEgth.s:22787  .debug_str:000000000000a9d1 .LASF2743
C:\Users\CYMR90~1\AppData\Local\Temp\ccxAEgth.s:25974  .debug_str:000000000001772b .LASF2744
C:\Users\CYMR90~1\AppData\Local\Temp\ccxAEgth.s:29198  .debug_str:000000000002427d .LASF2745
C:\Users\CYMR90~1\AppData\Local\Temp\ccxAEgth.s:21077  .debug_str:0000000000003c06 .LASF2746
C:\Users\CYMR90~1\AppData\Local\Temp\ccxAEgth.s:24327  .debug_str:0000000000010c80 .LASF2747
C:\Users\CYMR90~1\AppData\Local\Temp\ccxAEgth.s:27484  .debug_str:000000000001d98c .LASF2748
C:\Users\CYMR90~1\AppData\Local\Temp\ccxAEgth.s:30656  .debug_str:000000000002a1f6 .LASF2749
C:\Users\CYMR90~1\AppData\Local\Temp\ccxAEgth.s:22545  .debug_str:0000000000009a3d .LASF2750
C:\Users\CYMR90~1\AppData\Local\Temp\ccxAEgth.s:25733  .debug_str:0000000000016601 .LASF2751
C:\Users\CYMR90~1\AppData\Local\Temp\ccxAEgth.s:27718  .debug_str:000000000001e860 .LASF2752
C:\Users\CYMR90~1\AppData\Local\Temp\ccxAEgth.s:21127  .debug_str:0000000000003f17 .LASF2753
C:\Users\CYMR90~1\AppData\Local\Temp\ccxAEgth.s:25850  .debug_str:0000000000016fa9 .LASF2754
C:\Users\CYMR90~1\AppData\Local\Temp\ccxAEgth.s:30570  .debug_str:0000000000029d12 .LASF2755
C:\Users\CYMR90~1\AppData\Local\Temp\ccxAEgth.s:23963  .debug_str:000000000000f53f .LASF2756
C:\Users\CYMR90~1\AppData\Local\Temp\ccxAEgth.s:28630  .debug_str:0000000000021fa6 .LASF2757
C:\Users\CYMR90~1\AppData\Local\Temp\ccxAEgth.s:22007  .debug_str:00000000000076b0 .LASF2758
C:\Users\CYMR90~1\AppData\Local\Temp\ccxAEgth.s:25227  .debug_str:0000000000014649 .LASF2759
C:\Users\CYMR90~1\AppData\Local\Temp\ccxAEgth.s:28336  .debug_str:0000000000020da5 .LASF2760
C:\Users\CYMR90~1\AppData\Local\Temp\ccxAEgth.s:20259  .debug_str:0000000000000969 .LASF2761
C:\Users\CYMR90~1\AppData\Local\Temp\ccxAEgth.s:23483  .debug_str:000000000000d794 .LASF2762
C:\Users\CYMR90~1\AppData\Local\Temp\ccxAEgth.s:26702  .debug_str:000000000001a71f .LASF2763
C:\Users\CYMR90~1\AppData\Local\Temp\ccxAEgth.s:29896  .debug_str:000000000002708f .LASF2764
C:\Users\CYMR90~1\AppData\Local\Temp\ccxAEgth.s:21765  .debug_str:0000000000006720 .LASF2765
C:\Users\CYMR90~1\AppData\Local\Temp\ccxAEgth.s:25003  .debug_str:00000000000138a1 .LASF2766
C:\Users\CYMR90~1\AppData\Local\Temp\ccxAEgth.s:28196  .debug_str:0000000000020550 .LASF2767
C:\Users\CYMR90~1\AppData\Local\Temp\ccxAEgth.s:25527  .debug_str:000000000001586b .LASF2768
C:\Users\CYMR90~1\AppData\Local\Temp\ccxAEgth.s:30262  .debug_str:0000000000028a1c .LASF2769
C:\Users\CYMR90~1\AppData\Local\Temp\ccxAEgth.s:23647  .debug_str:000000000000e17b .LASF2770
C:\Users\CYMR90~1\AppData\Local\Temp\ccxAEgth.s:21705  .debug_str:0000000000006351 .LASF2771
C:\Users\CYMR90~1\AppData\Local\Temp\ccxAEgth.s:26438  .debug_str:000000000001948c .LASF2772
C:\Users\CYMR90~1\AppData\Local\Temp\ccxAEgth.s:24959  .debug_str:0000000000013607 .LASF2773
C:\Users\CYMR90~1\AppData\Local\Temp\ccxAEgth.s:28140  .debug_str:000000000002013f .LASF2774
C:\Users\CYMR90~1\AppData\Local\Temp\ccxAEgth.s:31394  .debug_str:000000000002d12c .LASF2775
C:\Users\CYMR90~1\AppData\Local\Temp\ccxAEgth.s:27100  .debug_str:000000000001bfe8 .LASF2776
C:\Users\CYMR90~1\AppData\Local\Temp\ccxAEgth.s:29180  .debug_str:0000000000024131 .LASF2777
C:\Users\CYMR90~1\AppData\Local\Temp\ccxAEgth.s:29604  .debug_str:0000000000025e8d .LASF2778
C:\Users\CYMR90~1\AppData\Local\Temp\ccxAEgth.s:21473  .debug_str:0000000000005582 .LASF2779
C:\Users\CYMR90~1\AppData\Local\Temp\ccxAEgth.s:24725  .debug_str:0000000000012646 .LASF2780
C:\Users\CYMR90~1\AppData\Local\Temp\ccxAEgth.s:27872  .debug_str:000000000001f141 .LASF2781
C:\Users\CYMR90~1\AppData\Local\Temp\ccxAEgth.s:31160  .debug_str:000000000002c1f3 .LASF2782
C:\Users\CYMR90~1\AppData\Local\Temp\ccxAEgth.s:28632  .debug_str:0000000000021fc1 .LASF2783
C:\Users\CYMR90~1\AppData\Local\Temp\ccxAEgth.s:30630  .debug_str:000000000002a072 .LASF2784
C:\Users\CYMR90~1\AppData\Local\Temp\ccxAEgth.s:21051  .debug_str:0000000000003a43 .LASF2785
C:\Users\CYMR90~1\AppData\Local\Temp\ccxAEgth.s:25757  .debug_str:00000000000167d9 .LASF2786
C:\Users\CYMR90~1\AppData\Local\Temp\ccxAEgth.s:30490  .debug_str:000000000002987a .LASF2787
C:\Users\CYMR90~1\AppData\Local\Temp\ccxAEgth.s:23875  .debug_str:000000000000ef2a .LASF2788
C:\Users\CYMR90~1\AppData\Local\Temp\ccxAEgth.s:25723  .debug_str:000000000001657c .LASF2789
C:\Users\CYMR90~1\AppData\Local\Temp\ccxAEgth.s:30456  .debug_str:0000000000029621 .LASF2790
C:\Users\CYMR90~1\AppData\Local\Temp\ccxAEgth.s:23849  .debug_str:000000000000eda5 .LASF2791
C:\Users\CYMR90~1\AppData\Local\Temp\ccxAEgth.s:28516  .debug_str:0000000000021896 .LASF2792
C:\Users\CYMR90~1\AppData\Local\Temp\ccxAEgth.s:25013  .debug_str:0000000000013938 .LASF2793
C:\Users\CYMR90~1\AppData\Local\Temp\ccxAEgth.s:20565  .debug_str:0000000000001bfb .LASF2794
C:\Users\CYMR90~1\AppData\Local\Temp\ccxAEgth.s:25263  .debug_str:000000000001484c .LASF2795
C:\Users\CYMR90~1\AppData\Local\Temp\ccxAEgth.s:29990  .debug_str:00000000000276d8 .LASF2796
C:\Users\CYMR90~1\AppData\Local\Temp\ccxAEgth.s:23387  .debug_str:000000000000d174 .LASF2797
C:\Users\CYMR90~1\AppData\Local\Temp\ccxAEgth.s:28040  .debug_str:000000000001fb41 .LASF2798
C:\Users\CYMR90~1\AppData\Local\Temp\ccxAEgth.s:23011  .debug_str:000000000000b8fe .LASF2799
C:\Users\CYMR90~1\AppData\Local\Temp\ccxAEgth.s:27664  .debug_str:000000000001e4b5 .LASF2800
C:\Users\CYMR90~1\AppData\Local\Temp\ccxAEgth.s:21067  .debug_str:0000000000003b3b .LASF2801
C:\Users\CYMR90~1\AppData\Local\Temp\ccxAEgth.s:25773  .debug_str:000000000001697e .LASF2802
C:\Users\CYMR90~1\AppData\Local\Temp\ccxAEgth.s:22387  .debug_str:0000000000009007 .LASF2803
C:\Users\CYMR90~1\AppData\Local\Temp\ccxAEgth.s:29150  .debug_str:0000000000023ea5 .LASF2804
C:\Users\CYMR90~1\AppData\Local\Temp\ccxAEgth.s:20575  .debug_str:0000000000001c99 .LASF2805
C:\Users\CYMR90~1\AppData\Local\Temp\ccxAEgth.s:23815  .debug_str:000000000000ebca .LASF2806
C:\Users\CYMR90~1\AppData\Local\Temp\ccxAEgth.s:29948  .debug_str:000000000002749f .LASF2807
C:\Users\CYMR90~1\AppData\Local\Temp\ccxAEgth.s:30236  .debug_str:000000000002888a .LASF2808
C:\Users\CYMR90~1\AppData\Local\Temp\ccxAEgth.s:22015  .debug_str:000000000000771f .LASF2809
C:\Users\CYMR90~1\AppData\Local\Temp\ccxAEgth.s:25235  .debug_str:00000000000146a8 .LASF2810
C:\Users\CYMR90~1\AppData\Local\Temp\ccxAEgth.s:22555  .debug_str:0000000000009ab9 .LASF2811
C:\Users\CYMR90~1\AppData\Local\Temp\ccxAEgth.s:20349  .debug_str:0000000000000f48 .LASF2812
C:\Users\CYMR90~1\AppData\Local\Temp\ccxAEgth.s:23575  .debug_str:000000000000dd46 .LASF2813
C:\Users\CYMR90~1\AppData\Local\Temp\ccxAEgth.s:22107  .debug_str:0000000000007dc8 .LASF2814
C:\Users\CYMR90~1\AppData\Local\Temp\ccxAEgth.s:26076  .debug_str:0000000000017d64 .LASF2815
C:\Users\CYMR90~1\AppData\Local\Temp\ccxAEgth.s:30812  .debug_str:000000000002ab93 .LASF2816
C:\Users\CYMR90~1\AppData\Local\Temp\ccxAEgth.s:24195  .debug_str:00000000000103fb .LASF2817
C:\Users\CYMR90~1\AppData\Local\Temp\ccxAEgth.s:28876  .debug_str:0000000000022e56 .LASF2818
C:\Users\CYMR90~1\AppData\Local\Temp\ccxAEgth.s:29492  .debug_str:0000000000025720 .LASF2819
C:\Users\CYMR90~1\AppData\Local\Temp\ccxAEgth.s:26964  .debug_str:000000000001b758 .LASF2820
C:\Users\CYMR90~1\AppData\Local\Temp\ccxAEgth.s:24377  .debug_str:0000000000010f28 .LASF2821
C:\Users\CYMR90~1\AppData\Local\Temp\ccxAEgth.s:30680  .debug_str:000000000002a335 .LASF2822
C:\Users\CYMR90~1\AppData\Local\Temp\ccxAEgth.s:21793  .debug_str:00000000000068cf .LASF2823
C:\Users\CYMR90~1\AppData\Local\Temp\ccxAEgth.s:22203  .debug_str:0000000000008461 .LASF2824
C:\Users\CYMR90~1\AppData\Local\Temp\ccxAEgth.s:23177  .debug_str:000000000000c3bb .LASF2825
C:\Users\CYMR90~1\AppData\Local\Temp\ccxAEgth.s:30696  .debug_str:000000000002a444 .LASF2826
C:\Users\CYMR90~1\AppData\Local\Temp\ccxAEgth.s:20981  .debug_str:00000000000035b9 .LASF2827
C:\Users\CYMR90~1\AppData\Local\Temp\ccxAEgth.s:25914  .debug_str:000000000001733a .LASF2828
C:\Users\CYMR90~1\AppData\Local\Temp\ccxAEgth.s:21341  .debug_str:0000000000004db9 .LASF2829
C:\Users\CYMR90~1\AppData\Local\Temp\ccxAEgth.s:24719  .debug_str:00000000000125e3 .LASF2830
C:\Users\CYMR90~1\AppData\Local\Temp\ccxAEgth.s:21385  .debug_str:0000000000005053 .LASF2831
C:\Users\CYMR90~1\AppData\Local\Temp\ccxAEgth.s:28208  .debug_str:00000000000205f8 .LASF2832
C:\Users\CYMR90~1\AppData\Local\Temp\ccxAEgth.s:24999  .debug_str:0000000000013865 .LASF2833
C:\Users\CYMR90~1\AppData\Local\Temp\ccxAEgth.s:23783  .debug_str:000000000000ea13 .LASF2834
C:\Users\CYMR90~1\AppData\Local\Temp\ccxAEgth.s:22837  .debug_str:000000000000ad1a .LASF2835
C:\Users\CYMR90~1\AppData\Local\Temp\ccxAEgth.s:20409  .debug_str:000000000000128b .LASF2836
C:\Users\CYMR90~1\AppData\Local\Temp\ccxAEgth.s:23213  .debug_str:000000000000c614 .LASF2837
C:\Users\CYMR90~1\AppData\Local\Temp\ccxAEgth.s:25007  .debug_str:00000000000138dc .LASF2838
C:\Users\CYMR90~1\AppData\Local\Temp\ccxAEgth.s:28202  .debug_str:00000000000205a0 .LASF2839
C:\Users\CYMR90~1\AppData\Local\Temp\ccxAEgth.s:20131  .debug_str:0000000000000203 .LASF2840
C:\Users\CYMR90~1\AppData\Local\Temp\ccxAEgth.s:23347  .debug_str:000000000000ceaf .LASF2841
C:\Users\CYMR90~1\AppData\Local\Temp\ccxAEgth.s:26544  .debug_str:0000000000019bfb .LASF2842
C:\Users\CYMR90~1\AppData\Local\Temp\ccxAEgth.s:20323  .debug_str:0000000000000d6b .LASF2843
C:\Users\CYMR90~1\AppData\Local\Temp\ccxAEgth.s:30014  .debug_str:000000000002783c .LASF2844
C:\Users\CYMR90~1\AppData\Local\Temp\ccxAEgth.s:28364  .debug_str:0000000000020f0b .LASF2845
C:\Users\CYMR90~1\AppData\Local\Temp\ccxAEgth.s:26780  .debug_str:000000000001abde .LASF2846
C:\Users\CYMR90~1\AppData\Local\Temp\ccxAEgth.s:31218  .debug_str:000000000002c5d3 .LASF2847
C:\Users\CYMR90~1\AppData\Local\Temp\ccxAEgth.s:20439  .debug_str:0000000000001473 .LASF2848
C:\Users\CYMR90~1\AppData\Local\Temp\ccxAEgth.s:25143  .debug_str:000000000001413d .LASF2849
C:\Users\CYMR90~1\AppData\Local\Temp\ccxAEgth.s:29864  .debug_str:0000000000026ec3 .LASF2850
C:\Users\CYMR90~1\AppData\Local\Temp\ccxAEgth.s:30896  .debug_str:000000000002b040 .LASF2851
C:\Users\CYMR90~1\AppData\Local\Temp\ccxAEgth.s:27104  .debug_str:000000000001c016 .LASF2852
C:\Users\CYMR90~1\AppData\Local\Temp\ccxAEgth.s:23395  .debug_str:000000000000d1cc .LASF2853
C:\Users\CYMR90~1\AppData\Local\Temp\ccxAEgth.s:28668  .debug_str:00000000000221db .LASF2854
C:\Users\CYMR90~1\AppData\Local\Temp\ccxAEgth.s:20557  .debug_str:0000000000001b87 .LASF2855
C:\Users\CYMR90~1\AppData\Local\Temp\ccxAEgth.s:23799  .debug_str:000000000000eafa .LASF2856
C:\Users\CYMR90~1\AppData\Local\Temp\ccxAEgth.s:26986  .debug_str:000000000001b85f .LASF2857
C:\Users\CYMR90~1\AppData\Local\Temp\ccxAEgth.s:30132  .debug_str:00000000000280af .LASF2858
C:\Users\CYMR90~1\AppData\Local\Temp\ccxAEgth.s:28506  .debug_str:0000000000021806 .LASF2859
C:\Users\CYMR90~1\AppData\Local\Temp\ccxAEgth.s:25221  .debug_str:00000000000145f9 .LASF2860
C:\Users\CYMR90~1\AppData\Local\Temp\ccxAEgth.s:25257  .debug_str:0000000000014807 .LASF2861
C:\Users\CYMR90~1\AppData\Local\Temp\ccxAEgth.s:20341  .debug_str:0000000000000ee9 .LASF2862
C:\Users\CYMR90~1\AppData\Local\Temp\ccxAEgth.s:20481  .debug_str:00000000000016f7 .LASF2863
C:\Users\CYMR90~1\AppData\Local\Temp\ccxAEgth.s:25781  .debug_str:00000000000169f8 .LASF2864
C:\Users\CYMR90~1\AppData\Local\Temp\ccxAEgth.s:28666  .debug_str:00000000000221c6 .LASF2865
C:\Users\CYMR90~1\AppData\Local\Temp\ccxAEgth.s:23895  .debug_str:000000000000f07a .LASF2866
C:\Users\CYMR90~1\AppData\Local\Temp\ccxAEgth.s:28566  .debug_str:0000000000021bee .LASF2867
C:\Users\CYMR90~1\AppData\Local\Temp\ccxAEgth.s:28736  .debug_str:00000000000225d2 .LASF2868
C:\Users\CYMR90~1\AppData\Local\Temp\ccxAEgth.s:26694  .debug_str:000000000001a6b9 .LASF2869
C:\Users\CYMR90~1\AppData\Local\Temp\ccxAEgth.s:25944  .debug_str:0000000000017516 .LASF2870
C:\Users\CYMR90~1\AppData\Local\Temp\ccxAEgth.s:23667  .debug_str:000000000000e2a1 .LASF2871
C:\Users\CYMR90~1\AppData\Local\Temp\ccxAEgth.s:24847  .debug_str:0000000000012e41 .LASF2872
C:\Users\CYMR90~1\AppData\Local\Temp\ccxAEgth.s:24811  .debug_str:0000000000012bec .LASF2873
C:\Users\CYMR90~1\AppData\Local\Temp\ccxAEgth.s:20891  .debug_str:0000000000003015 .LASF2874
C:\Users\CYMR90~1\AppData\Local\Temp\ccxAEgth.s:20775  .debug_str:000000000000289d .LASF2875
C:\Users\CYMR90~1\AppData\Local\Temp\ccxAEgth.s:28324  .debug_str:0000000000020cff .LASF2876
C:\Users\CYMR90~1\AppData\Local\Temp\ccxAEgth.s:29324  .debug_str:0000000000024ad4 .LASF2877
C:\Users\CYMR90~1\AppData\Local\Temp\ccxAEgth.s:29002  .debug_str:00000000000235d5 .LASF2878
C:\Users\CYMR90~1\AppData\Local\Temp\ccxAEgth.s:22899  .debug_str:000000000000b17c .LASF2879
C:\Users\CYMR90~1\AppData\Local\Temp\ccxAEgth.s:26078  .debug_str:0000000000017d7b .LASF2880
C:\Users\CYMR90~1\AppData\Local\Temp\ccxAEgth.s:29302  .debug_str:0000000000024950 .LASF2881
C:\Users\CYMR90~1\AppData\Local\Temp\ccxAEgth.s:21179  .debug_str:00000000000042f0 .LASF2882
C:\Users\CYMR90~1\AppData\Local\Temp\ccxAEgth.s:23257  .debug_str:000000000000c974 .LASF2883
C:\Users\CYMR90~1\AppData\Local\Temp\ccxAEgth.s:27504  .debug_str:000000000001dabe .LASF2884
C:\Users\CYMR90~1\AppData\Local\Temp\ccxAEgth.s:31318  .debug_str:000000000002cc1d .LASF2885
C:\Users\CYMR90~1\AppData\Local\Temp\ccxAEgth.s:22657  .debug_str:000000000000a119 .LASF2886
C:\Users\CYMR90~1\AppData\Local\Temp\ccxAEgth.s:25856  .debug_str:0000000000017006 .LASF2887
C:\Users\CYMR90~1\AppData\Local\Temp\ccxAEgth.s:29068  .debug_str:00000000000239e7 .LASF2888
C:\Users\CYMR90~1\AppData\Local\Temp\ccxAEgth.s:27236  .debug_str:000000000001c8d2 .LASF2889
C:\Users\CYMR90~1\AppData\Local\Temp\ccxAEgth.s:20621  .debug_str:0000000000001f42 .LASF2890
C:\Users\CYMR90~1\AppData\Local\Temp\ccxAEgth.s:25319  .debug_str:0000000000014c0f .LASF2891
C:\Users\CYMR90~1\AppData\Local\Temp\ccxAEgth.s:30050  .debug_str:0000000000027ae5 .LASF2892
C:\Users\CYMR90~1\AppData\Local\Temp\ccxAEgth.s:23443  .debug_str:000000000000d57c .LASF2893
C:\Users\CYMR90~1\AppData\Local\Temp\ccxAEgth.s:28104  .debug_str:000000000001ff6c .LASF2894
C:\Users\CYMR90~1\AppData\Local\Temp\ccxAEgth.s:30720  .debug_str:000000000002a607 .LASF2895
C:\Users\CYMR90~1\AppData\Local\Temp\ccxAEgth.s:30932  .debug_str:000000000002b2b3 .LASF2896
C:\Users\CYMR90~1\AppData\Local\Temp\ccxAEgth.s:26730  .debug_str:000000000001a8b8 .LASF2897
C:\Users\CYMR90~1\AppData\Local\Temp\ccxAEgth.s:21909  .debug_str:0000000000007089 .LASF2898
C:\Users\CYMR90~1\AppData\Local\Temp\ccxAEgth.s:22211  .debug_str:00000000000084e2 .LASF2899
C:\Users\CYMR90~1\AppData\Local\Temp\ccxAEgth.s:26138  .debug_str:00000000000180ca .LASF2900
C:\Users\CYMR90~1\AppData\Local\Temp\ccxAEgth.s:31032  .debug_str:000000000002b942 .LASF2901
C:\Users\CYMR90~1\AppData\Local\Temp\ccxAEgth.s:24589  .debug_str:0000000000011d6b .LASF2902
C:\Users\CYMR90~1\AppData\Local\Temp\ccxAEgth.s:25413  .debug_str:00000000000151da .LASF2903
C:\Users\CYMR90~1\AppData\Local\Temp\ccxAEgth.s:21615  .debug_str:0000000000005dc5 .LASF2904
C:\Users\CYMR90~1\AppData\Local\Temp\ccxAEgth.s:28352  .debug_str:0000000000020e78 .LASF2905
C:\Users\CYMR90~1\AppData\Local\Temp\ccxAEgth.s:29746  .debug_str:00000000000267a3 .LASF2906
C:\Users\CYMR90~1\AppData\Local\Temp\ccxAEgth.s:31130  .debug_str:000000000002bfe1 .LASF2907
C:\Users\CYMR90~1\AppData\Local\Temp\ccxAEgth.s:21137  .debug_str:0000000000004049 .LASF2908
C:\Users\CYMR90~1\AppData\Local\Temp\ccxAEgth.s:24855  .debug_str:0000000000012ecf .LASF2909
C:\Users\CYMR90~1\AppData\Local\Temp\ccxAEgth.s:30240  .debug_str:00000000000288b8 .LASF2910
C:\Users\CYMR90~1\AppData\Local\Temp\ccxAEgth.s:28170  .debug_str:000000000002034d .LASF2911
C:\Users\CYMR90~1\AppData\Local\Temp\ccxAEgth.s:27064  .debug_str:000000000001bd7a .LASF2912
C:\Users\CYMR90~1\AppData\Local\Temp\ccxAEgth.s:26642  .debug_str:000000000001a322 .LASF2913
C:\Users\CYMR90~1\AppData\Local\Temp\ccxAEgth.s:26562  .debug_str:0000000000019cd8 .LASF2914
C:\Users\CYMR90~1\AppData\Local\Temp\ccxAEgth.s:28774  .debug_str:0000000000022813 .LASF2915
C:\Users\CYMR90~1\AppData\Local\Temp\ccxAEgth.s:27058  .debug_str:000000000001bd27 .LASF2916
C:\Users\CYMR90~1\AppData\Local\Temp\ccxAEgth.s:26200  .debug_str:0000000000018481 .LASF2917
C:\Users\CYMR90~1\AppData\Local\Temp\ccxAEgth.s:27580  .debug_str:000000000001dffb .LASF2918
C:\Users\CYMR90~1\AppData\Local\Temp\ccxAEgth.s:24787  .debug_str:0000000000012a66 .LASF2919
C:\Users\CYMR90~1\AppData\Local\Temp\ccxAEgth.s:23525  .debug_str:000000000000da02 .LASF2920
C:\Users\CYMR90~1\AppData\Local\Temp\ccxAEgth.s:22651  .debug_str:000000000000a0b6 .LASF2921
C:\Users\CYMR90~1\AppData\Local\Temp\ccxAEgth.s:21751  .debug_str:000000000000664e .LASF2922
C:\Users\CYMR90~1\AppData\Local\Temp\ccxAEgth.s:20895  .debug_str:000000000000304b .LASF2923
C:\Users\CYMR90~1\AppData\Local\Temp\ccxAEgth.s:31366  .debug_str:000000000002cf6a .LASF2924
C:\Users\CYMR90~1\AppData\Local\Temp\ccxAEgth.s:30494  .debug_str:00000000000298ab .LASF2925
C:\Users\CYMR90~1\AppData\Local\Temp\ccxAEgth.s:29232  .debug_str:00000000000244a1 .LASF2926
C:\Users\CYMR90~1\AppData\Local\Temp\ccxAEgth.s:21103  .debug_str:0000000000003ddc .LASF2927
C:\Users\CYMR90~1\AppData\Local\Temp\ccxAEgth.s:24365  .debug_str:0000000000010e70 .LASF2928
C:\Users\CYMR90~1\AppData\Local\Temp\ccxAEgth.s:27522  .debug_str:000000000001dc68 .LASF2929
C:\Users\CYMR90~1\AppData\Local\Temp\ccxAEgth.s:30782  .debug_str:000000000002a9a9 .LASF2930
C:\Users\CYMR90~1\AppData\Local\Temp\ccxAEgth.s:22669  .debug_str:000000000000a202 .LASF2931
C:\Users\CYMR90~1\AppData\Local\Temp\ccxAEgth.s:22281  .debug_str:0000000000008981 .LASF2932
C:\Users\CYMR90~1\AppData\Local\Temp\ccxAEgth.s:30706  .debug_str:000000000002a4fc .LASF2933
C:\Users\CYMR90~1\AppData\Local\Temp\ccxAEgth.s:31168  .debug_str:000000000002c24f .LASF2934
C:\Users\CYMR90~1\AppData\Local\Temp\ccxAEgth.s:25387  .debug_str:000000000001506b .LASF2935
C:\Users\CYMR90~1\AppData\Local\Temp\ccxAEgth.s:21435  .debug_str:000000000000534d .LASF2936
C:\Users\CYMR90~1\AppData\Local\Temp\ccxAEgth.s:25565  .debug_str:0000000000015b1f .LASF2937
C:\Users\CYMR90~1\AppData\Local\Temp\ccxAEgth.s:31132  .debug_str:000000000002c001 .LASF2938
C:\Users\CYMR90~1\AppData\Local\Temp\ccxAEgth.s:24215  .debug_str:000000000001051c .LASF2939
C:\Users\CYMR90~1\AppData\Local\Temp\ccxAEgth.s:22691  .debug_str:000000000000a358 .LASF2940
C:\Users\CYMR90~1\AppData\Local\Temp\ccxAEgth.s:20249  .debug_str:00000000000008ce .LASF2941
C:\Users\CYMR90~1\AppData\Local\Temp\ccxAEgth.s:28216  .debug_str:0000000000020675 .LASF2942
C:\Users\CYMR90~1\AppData\Local\Temp\ccxAEgth.s:31240  .debug_str:000000000002c6e6 .LASF2943
C:\Users\CYMR90~1\AppData\Local\Temp\ccxAEgth.s:29146  .debug_str:0000000000023e5a .LASF2944
C:\Users\CYMR90~1\AppData\Local\Temp\ccxAEgth.s:28526  .debug_str:000000000002195a .LASF2945
C:\Users\CYMR90~1\AppData\Local\Temp\ccxAEgth.s:21393  .debug_str:00000000000050c2 .LASF2946
C:\Users\CYMR90~1\AppData\Local\Temp\ccxAEgth.s:31372  .debug_str:000000000002cfaa .LASF2947
C:\Users\CYMR90~1\AppData\Local\Temp\ccxAEgth.s:23741  .debug_str:000000000000e74f .LASF2948
C:\Users\CYMR90~1\AppData\Local\Temp\ccxAEgth.s:27076  .debug_str:000000000001be48 .LASF2949
C:\Users\CYMR90~1\AppData\Local\Temp\ccxAEgth.s:28780  .debug_str:0000000000022887 .LASF2950
C:\Users\CYMR90~1\AppData\Local\Temp\ccxAEgth.s:24345  .debug_str:0000000000010d60 .LASF2951
C:\Users\CYMR90~1\AppData\Local\Temp\ccxAEgth.s:23465  .debug_str:000000000000d6b4 .LASF2952
C:\Users\CYMR90~1\AppData\Local\Temp\ccxAEgth.s:28206  .debug_str:00000000000205e3 .LASF2953
C:\Users\CYMR90~1\AppData\Local\Temp\ccxAEgth.s:30566  .debug_str:0000000000029ce1 .LASF2954
C:\Users\CYMR90~1\AppData\Local\Temp\ccxAEgth.s:23117  .debug_str:000000000000c048 .LASF2955
C:\Users\CYMR90~1\AppData\Local\Temp\ccxAEgth.s:21893  .debug_str:0000000000006f88 .LASF2956
C:\Users\CYMR90~1\AppData\Local\Temp\ccxAEgth.s:28376  .debug_str:0000000000020fbe .LASF2957
C:\Users\CYMR90~1\AppData\Local\Temp\ccxAEgth.s:30590  .debug_str:0000000000029e3e .LASF2958
C:\Users\CYMR90~1\AppData\Local\Temp\ccxAEgth.s:20851  .debug_str:0000000000002d82 .LASF2959
C:\Users\CYMR90~1\AppData\Local\Temp\ccxAEgth.s:23175  .debug_str:000000000000c3a7 .LASF2960
C:\Users\CYMR90~1\AppData\Local\Temp\ccxAEgth.s:23673  .debug_str:000000000000e303 .LASF2961
C:\Users\CYMR90~1\AppData\Local\Temp\ccxAEgth.s:30986  .debug_str:000000000002b63e .LASF2962
C:\Users\CYMR90~1\AppData\Local\Temp\ccxAEgth.s:21863  .debug_str:0000000000006d46 .LASF2963
C:\Users\CYMR90~1\AppData\Local\Temp\ccxAEgth.s:28100  .debug_str:000000000001ff2d .LASF2964
C:\Users\CYMR90~1\AppData\Local\Temp\ccxAEgth.s:24057  .debug_str:000000000000fb50 .LASF2965
C:\Users\CYMR90~1\AppData\Local\Temp\ccxAEgth.s:25900  .debug_str:0000000000017288 .LASF2966
C:\Users\CYMR90~1\AppData\Local\Temp\ccxAEgth.s:22505  .debug_str:000000000000979a .LASF2967
C:\Users\CYMR90~1\AppData\Local\Temp\ccxAEgth.s:22611  .debug_str:0000000000009e44 .LASF2968
C:\Users\CYMR90~1\AppData\Local\Temp\ccxAEgth.s:23625  .debug_str:000000000000e006 .LASF2969
C:\Users\CYMR90~1\AppData\Local\Temp\ccxAEgth.s:22727  .debug_str:000000000000a53a .LASF2970
C:\Users\CYMR90~1\AppData\Local\Temp\ccxAEgth.s:29374  .debug_str:0000000000024e17 .LASF2971
C:\Users\CYMR90~1\AppData\Local\Temp\ccxAEgth.s:23795  .debug_str:000000000000eaca .LASF2972
C:\Users\CYMR90~1\AppData\Local\Temp\ccxAEgth.s:23595  .debug_str:000000000000de67 .LASF2973
C:\Users\CYMR90~1\AppData\Local\Temp\ccxAEgth.s:30128  .debug_str:0000000000028062 .LASF2974
C:\Users\CYMR90~1\AppData\Local\Temp\ccxAEgth.s:22249  .debug_str:0000000000008772 .LASF2975
C:\Users\CYMR90~1\AppData\Local\Temp\ccxAEgth.s:31062  .debug_str:000000000002bb39 .LASF2976
C:\Users\CYMR90~1\AppData\Local\Temp\ccxAEgth.s:30220  .debug_str:0000000000028760 .LASF2977
C:\Users\CYMR90~1\AppData\Local\Temp\ccxAEgth.s:20139  .debug_str:0000000000000253 .LASF2978
C:\Users\CYMR90~1\AppData\Local\Temp\ccxAEgth.s:21109  .debug_str:0000000000003e38 .LASF2979
C:\Users\CYMR90~1\AppData\Local\Temp\ccxAEgth.s:27128  .debug_str:000000000001c179 .LASF2980
C:\Users\CYMR90~1\AppData\Local\Temp\ccxAEgth.s:26934  .debug_str:000000000001b5b7 .LASF2981
C:\Users\CYMR90~1\AppData\Local\Temp\ccxAEgth.s:29390  .debug_str:0000000000024f03 .LASF2982
C:\Users\CYMR90~1\AppData\Local\Temp\ccxAEgth.s:23471  .debug_str:000000000000d711 .LASF2983
C:\Users\CYMR90~1\AppData\Local\Temp\ccxAEgth.s:26550  .debug_str:0000000000019c45 .LASF2984
C:\Users\CYMR90~1\AppData\Local\Temp\ccxAEgth.s:20381  .debug_str:0000000000001136 .LASF2985
C:\Users\CYMR90~1\AppData\Local\Temp\ccxAEgth.s:23839  .debug_str:000000000000ed01 .LASF2986
C:\Users\CYMR90~1\AppData\Local\Temp\ccxAEgth.s:27132  .debug_str:000000000001c1ad .LASF2987
C:\Users\CYMR90~1\AppData\Local\Temp\ccxAEgth.s:30500  .debug_str:00000000000298f0 .LASF2988
C:\Users\CYMR90~1\AppData\Local\Temp\ccxAEgth.s:20515  .debug_str:00000000000018ef .LASF2989
C:\Users\CYMR90~1\AppData\Local\Temp\ccxAEgth.s:22577  .debug_str:0000000000009c0e .LASF2990
C:\Users\CYMR90~1\AppData\Local\Temp\ccxAEgth.s:29928  .debug_str:0000000000027351 .LASF2991
C:\Users\CYMR90~1\AppData\Local\Temp\ccxAEgth.s:22137  .debug_str:000000000000805e .LASF2992
C:\Users\CYMR90~1\AppData\Local\Temp\ccxAEgth.s:23631  .debug_str:000000000000e07f .LASF2993
C:\Users\CYMR90~1\AppData\Local\Temp\ccxAEgth.s:29148  .debug_str:0000000000023e86 .LASF2994
C:\Users\CYMR90~1\AppData\Local\Temp\ccxAEgth.s:26480  .debug_str:00000000000197ca .LASF2995
C:\Users\CYMR90~1\AppData\Local\Temp\ccxAEgth.s:22527  .debug_str:0000000000009917 .LASF2996
C:\Users\CYMR90~1\AppData\Local\Temp\ccxAEgth.s:27880  .debug_str:000000000001f1c4 .LASF2997
C:\Users\CYMR90~1\AppData\Local\Temp\ccxAEgth.s:22111  .debug_str:0000000000007e01 .LASF2998
C:\Users\CYMR90~1\AppData\Local\Temp\ccxAEgth.s:30114  .debug_str:0000000000027f39 .LASF2999
C:\Users\CYMR90~1\AppData\Local\Temp\ccxAEgth.s:29780  .debug_str:000000000002699f .LASF3000
C:\Users\CYMR90~1\AppData\Local\Temp\ccxAEgth.s:24441  .debug_str:0000000000011311 .LASF3001
C:\Users\CYMR90~1\AppData\Local\Temp\ccxAEgth.s:29278  .debug_str:0000000000024816 .LASF3002
C:\Users\CYMR90~1\AppData\Local\Temp\ccxAEgth.s:28354  .debug_str:0000000000020e98 .LASF3003
C:\Users\CYMR90~1\AppData\Local\Temp\ccxAEgth.s:24331  .debug_str:0000000000010cae .LASF3004
C:\Users\CYMR90~1\AppData\Local\Temp\ccxAEgth.s:29870  .debug_str:0000000000026f2b .LASF3005
C:\Users\CYMR90~1\AppData\Local\Temp\ccxAEgth.s:29022  .debug_str:0000000000023737 .LASF3006
C:\Users\CYMR90~1\AppData\Local\Temp\ccxAEgth.s:25846  .debug_str:0000000000016f84 .LASF3007
C:\Users\CYMR90~1\AppData\Local\Temp\ccxAEgth.s:25583  .debug_str:0000000000015c72 .LASF3008
C:\Users\CYMR90~1\AppData\Local\Temp\ccxAEgth.s:27838  .debug_str:000000000001ef42 .LASF3009
C:\Users\CYMR90~1\AppData\Local\Temp\ccxAEgth.s:24291  .debug_str:00000000000109f4 .LASF3010
C:\Users\CYMR90~1\AppData\Local\Temp\ccxAEgth.s:24415  .debug_str:00000000000111a3 .LASF3011
C:\Users\CYMR90~1\AppData\Local\Temp\ccxAEgth.s:23811  .debug_str:000000000000eb99 .LASF3012
C:\Users\CYMR90~1\AppData\Local\Temp\ccxAEgth.s:23945  .debug_str:000000000000f3a0 .LASF3013
C:\Users\CYMR90~1\AppData\Local\Temp\ccxAEgth.s:27568  .debug_str:000000000001df48 .LASF3014
C:\Users\CYMR90~1\AppData\Local\Temp\ccxAEgth.s:30238  .debug_str:000000000002889f .LASF3015
C:\Users\CYMR90~1\AppData\Local\Temp\ccxAEgth.s:25703  .debug_str:0000000000016440 .LASF3016
C:\Users\CYMR90~1\AppData\Local\Temp\ccxAEgth.s:29142  .debug_str:0000000000023e2b .LASF3017
C:\Users\CYMR90~1\AppData\Local\Temp\ccxAEgth.s:20659  .debug_str:000000000000213d .LASF3018
C:\Users\CYMR90~1\AppData\Local\Temp\ccxAEgth.s:21885  .debug_str:0000000000006ee0 .LASF3019
C:\Users\CYMR90~1\AppData\Local\Temp\ccxAEgth.s:30292  .debug_str:0000000000028bd7 .LASF3020
C:\Users\CYMR90~1\AppData\Local\Temp\ccxAEgth.s:22629  .debug_str:0000000000009f54 .LASF3021
C:\Users\CYMR90~1\AppData\Local\Temp\ccxAEgth.s:25097  .debug_str:0000000000013e21 .LASF3022
C:\Users\CYMR90~1\AppData\Local\Temp\ccxAEgth.s:23771  .debug_str:000000000000e93a .LASF3023
C:\Users\CYMR90~1\AppData\Local\Temp\ccxAEgth.s:25435  .debug_str:000000000001532a .LASF3024
C:\Users\CYMR90~1\AppData\Local\Temp\ccxAEgth.s:28292  .debug_str:0000000000020b3e .LASF3025
C:\Users\CYMR90~1\AppData\Local\Temp\ccxAEgth.s:26226  .debug_str:0000000000018608 .LASF3026
C:\Users\CYMR90~1\AppData\Local\Temp\ccxAEgth.s:28148  .debug_str:00000000000201b3 .LASF3027
C:\Users\CYMR90~1\AppData\Local\Temp\ccxAEgth.s:30384  .debug_str:000000000002916e .LASF3028
C:\Users\CYMR90~1\AppData\Local\Temp\ccxAEgth.s:28800  .debug_str:0000000000022994 .LASF3029
C:\Users\CYMR90~1\AppData\Local\Temp\ccxAEgth.s:23187  .debug_str:000000000000c456 .LASF3030
C:\Users\CYMR90~1\AppData\Local\Temp\ccxAEgth.s:31190  .debug_str:000000000002c3f7 .LASF3031
C:\Users\CYMR90~1\AppData\Local\Temp\ccxAEgth.s:27932  .debug_str:000000000001f4d2 .LASF3032
C:\Users\CYMR90~1\AppData\Local\Temp\ccxAEgth.s:29910  .debug_str:0000000000027181 .LASF3033
C:\Users\CYMR90~1\AppData\Local\Temp\ccxAEgth.s:29648  .debug_str:0000000000026199 .LASF3034
C:\Users\CYMR90~1\AppData\Local\Temp\ccxAEgth.s:23093  .debug_str:000000000000beac .LASF3035
C:\Users\CYMR90~1\AppData\Local\Temp\ccxAEgth.s:25483  .debug_str:00000000000155ba .LASF3036
C:\Users\CYMR90~1\AppData\Local\Temp\ccxAEgth.s:25389  .debug_str:0000000000015096 .LASF3037
C:\Users\CYMR90~1\AppData\Local\Temp\ccxAEgth.s:26292  .debug_str:0000000000018b04 .LASF3038
C:\Users\CYMR90~1\AppData\Local\Temp\ccxAEgth.s:27968  .debug_str:000000000001f701 .LASF3039
C:\Users\CYMR90~1\AppData\Local\Temp\ccxAEgth.s:28492  .debug_str:000000000002174c .LASF3040
C:\Users\CYMR90~1\AppData\Local\Temp\ccxAEgth.s:31324  .debug_str:000000000002cc6c .LASF3041
C:\Users\CYMR90~1\AppData\Local\Temp\ccxAEgth.s:24003  .debug_str:000000000000f835 .LASF3042
C:\Users\CYMR90~1\AppData\Local\Temp\ccxAEgth.s:20863  .debug_str:0000000000002e2b .LASF3043
C:\Users\CYMR90~1\AppData\Local\Temp\ccxAEgth.s:23855  .debug_str:000000000000edf5 .LASF3044
C:\Users\CYMR90~1\AppData\Local\Temp\ccxAEgth.s:28172  .debug_str:0000000000020372 .LASF3045
C:\Users\CYMR90~1\AppData\Local\Temp\ccxAEgth.s:25459  .debug_str:0000000000015464 .LASF3046
C:\Users\CYMR90~1\AppData\Local\Temp\ccxAEgth.s:24483  .debug_str:00000000000115d7 .LASF3047
C:\Users\CYMR90~1\AppData\Local\Temp\ccxAEgth.s:27072  .debug_str:000000000001be11 .LASF3048
C:\Users\CYMR90~1\AppData\Local\Temp\ccxAEgth.s:26104  .debug_str:0000000000017ec2 .LASF3049
C:\Users\CYMR90~1\AppData\Local\Temp\ccxAEgth.s:28006  .debug_str:000000000001f95f .LASF3050
C:\Users\CYMR90~1\AppData\Local\Temp\ccxAEgth.s:24293  .debug_str:0000000000010a0c .LASF3051
C:\Users\CYMR90~1\AppData\Local\Temp\ccxAEgth.s:30172  .debug_str:00000000000283e6 .LASF3052
C:\Users\CYMR90~1\AppData\Local\Temp\ccxAEgth.s:22349  .debug_str:0000000000008dce .LASF3053
C:\Users\CYMR90~1\AppData\Local\Temp\ccxAEgth.s:21443  .debug_str:00000000000053eb .LASF3054
C:\Users\CYMR90~1\AppData\Local\Temp\ccxAEgth.s:20497  .debug_str:00000000000017fb .LASF3055
C:\Users\CYMR90~1\AppData\Local\Temp\ccxAEgth.s:30872  .debug_str:000000000002af04 .LASF3056
C:\Users\CYMR90~1\AppData\Local\Temp\ccxAEgth.s:28440  .debug_str:000000000002142f .LASF3057
C:\Users\CYMR90~1\AppData\Local\Temp\ccxAEgth.s:27462  .debug_str:000000000001d83a .LASF3058
C:\Users\CYMR90~1\AppData\Local\Temp\ccxAEgth.s:26634  .debug_str:000000000001a10f .LASF3059
C:\Users\CYMR90~1\AppData\Local\Temp\ccxAEgth.s:25625  .debug_str:0000000000015f52 .LASF3060
C:\Users\CYMR90~1\AppData\Local\Temp\ccxAEgth.s:24701  .debug_str:00000000000124b4 .LASF3061
C:\Users\CYMR90~1\AppData\Local\Temp\ccxAEgth.s:23733  .debug_str:000000000000e6de .LASF3062
C:\Users\CYMR90~1\AppData\Local\Temp\ccxAEgth.s:23871  .debug_str:000000000000eede .LASF3063
C:\Users\CYMR90~1\AppData\Local\Temp\ccxAEgth.s:29862  .debug_str:0000000000026e96 .LASF3064
C:\Users\CYMR90~1\AppData\Local\Temp\ccxAEgth.s:29644  .debug_str:0000000000026143 .LASF3065
C:\Users\CYMR90~1\AppData\Local\Temp\ccxAEgth.s:24191  .debug_str:00000000000103ba .LASF3066
C:\Users\CYMR90~1\AppData\Local\Temp\ccxAEgth.s:23049  .debug_str:000000000000bb78 .LASF3067
C:\Users\CYMR90~1\AppData\Local\Temp\ccxAEgth.s:21941  .debug_str:00000000000072a8 .LASF3068
C:\Users\CYMR90~1\AppData\Local\Temp\ccxAEgth.s:27296  .debug_str:000000000001cd49 .LASF3069
C:\Users\CYMR90~1\AppData\Local\Temp\ccxAEgth.s:28918  .debug_str:0000000000023079 .LASF3070
C:\Users\CYMR90~1\AppData\Local\Temp\ccxAEgth.s:23223  .debug_str:000000000000c702 .LASF3071
C:\Users\CYMR90~1\AppData\Local\Temp\ccxAEgth.s:21511  .debug_str:00000000000057a7 .LASF3072
C:\Users\CYMR90~1\AppData\Local\Temp\ccxAEgth.s:21293  .debug_str:0000000000004ac5 .LASF3073
C:\Users\CYMR90~1\AppData\Local\Temp\ccxAEgth.s:20465  .debug_str:00000000000015f3 .LASF3074
C:\Users\CYMR90~1\AppData\Local\Temp\ccxAEgth.s:25719  .debug_str:0000000000016536 .LASF3075
C:\Users\CYMR90~1\AppData\Local\Temp\ccxAEgth.s:20799  .debug_str:0000000000002a56 .LASF3076
C:\Users\CYMR90~1\AppData\Local\Temp\ccxAEgth.s:31264  .debug_str:000000000002c8a5 .LASF3077
C:\Users\CYMR90~1\AppData\Local\Temp\ccxAEgth.s:30210  .debug_str:0000000000028692 .LASF3078
C:\Users\CYMR90~1\AppData\Local\Temp\ccxAEgth.s:21263  .debug_str:00000000000048ec .LASF3079
C:\Users\CYMR90~1\AppData\Local\Temp\ccxAEgth.s:27050  .debug_str:000000000001bca0 .LASF3080
C:\Users\CYMR90~1\AppData\Local\Temp\ccxAEgth.s:24297  .debug_str:0000000000010a51 .LASF3081
C:\Users\CYMR90~1\AppData\Local\Temp\ccxAEgth.s:27348  .debug_str:000000000001d10b .LASF3082
C:\Users\CYMR90~1\AppData\Local\Temp\ccxAEgth.s:20189  .debug_str:000000000000055a .LASF3083
C:\Users\CYMR90~1\AppData\Local\Temp\ccxAEgth.s:24875  .debug_str:0000000000013034 .LASF3084
C:\Users\CYMR90~1\AppData\Local\Temp\ccxAEgth.s:29592  .debug_str:0000000000025dd9 .LASF3085
C:\Users\CYMR90~1\AppData\Local\Temp\ccxAEgth.s:24783  .debug_str:0000000000012a32 .LASF3086
C:\Users\CYMR90~1\AppData\Local\Temp\ccxAEgth.s:21661  .debug_str:00000000000060a7 .LASF3087
C:\Users\CYMR90~1\AppData\Local\Temp\ccxAEgth.s:26070  .debug_str:0000000000017d10 .LASF3088
C:\Users\CYMR90~1\AppData\Local\Temp\ccxAEgth.s:24543  .debug_str:0000000000011aa3 .LASF3089
C:\Users\CYMR90~1\AppData\Local\Temp\ccxAEgth.s:23089  .debug_str:000000000000be75 .LASF3090
C:\Users\CYMR90~1\AppData\Local\Temp\ccxAEgth.s:26920  .debug_str:000000000001b4c8 .LASF3091
C:\Users\CYMR90~1\AppData\Local\Temp\ccxAEgth.s:23441  .debug_str:000000000000d55e .LASF3092
C:\Users\CYMR90~1\AppData\Local\Temp\ccxAEgth.s:22415  .debug_str:00000000000091a4 .LASF3093
C:\Users\CYMR90~1\AppData\Local\Temp\ccxAEgth.s:29288  .debug_str:000000000002488b .LASF3094
C:\Users\CYMR90~1\AppData\Local\Temp\ccxAEgth.s:24587  .debug_str:0000000000011d4b .LASF3095
C:\Users\CYMR90~1\AppData\Local\Temp\ccxAEgth.s:28888  .debug_str:0000000000022eff .LASF3096
C:\Users\CYMR90~1\AppData\Local\Temp\ccxAEgth.s:22753  .debug_str:000000000000a7da .LASF3097
C:\Users\CYMR90~1\AppData\Local\Temp\ccxAEgth.s:26496  .debug_str:00000000000198ee .LASF3098
C:\Users\CYMR90~1\AppData\Local\Temp\ccxAEgth.s:29824  .debug_str:0000000000026c1b .LASF3099
C:\Users\CYMR90~1\AppData\Local\Temp\ccxAEgth.s:23469  .debug_str:000000000000d6ec .LASF3100
C:\Users\CYMR90~1\AppData\Local\Temp\ccxAEgth.s:21557  .debug_str:0000000000005a96 .LASF3101
C:\Users\CYMR90~1\AppData\Local\Temp\ccxAEgth.s:23073  .debug_str:000000000000bd49 .LASF3102
C:\Users\CYMR90~1\AppData\Local\Temp\ccxAEgth.s:21847  .debug_str:0000000000006c69 .LASF3103
C:\Users\CYMR90~1\AppData\Local\Temp\ccxAEgth.s:23759  .debug_str:000000000000e8a3 .LASF3104
C:\Users\CYMR90~1\AppData\Local\Temp\ccxAEgth.s:20339  .debug_str:0000000000000ecc .LASF3105
C:\Users\CYMR90~1\AppData\Local\Temp\ccxAEgth.s:31010  .debug_str:000000000002b7ba .LASF3106
C:\Users\CYMR90~1\AppData\Local\Temp\ccxAEgth.s:30606  .debug_str:0000000000029f0a .LASF3107
C:\Users\CYMR90~1\AppData\Local\Temp\ccxAEgth.s:28018  .debug_str:000000000001fa1d .LASF3108
C:\Users\CYMR90~1\AppData\Local\Temp\ccxAEgth.s:29140  .debug_str:0000000000023e13 .LASF3109
C:\Users\CYMR90~1\AppData\Local\Temp\ccxAEgth.s:27584  .debug_str:000000000001e031 .LASF3110
C:\Users\CYMR90~1\AppData\Local\Temp\ccxAEgth.s:27976  .debug_str:000000000001f760 .LASF3111
C:\Users\CYMR90~1\AppData\Local\Temp\ccxAEgth.s:29966  .debug_str:000000000002758c .LASF3112
C:\Users\CYMR90~1\AppData\Local\Temp\ccxAEgth.s:25175  .debug_str:00000000000142ed .LASF3113
C:\Users\CYMR90~1\AppData\Local\Temp\ccxAEgth.s:25725  .debug_str:0000000000016591 .LASF3114
C:\Users\CYMR90~1\AppData\Local\Temp\ccxAEgth.s:20591  .debug_str:0000000000001da6 .LASF3115
C:\Users\CYMR90~1\AppData\Local\Temp\ccxAEgth.s:27960  .debug_str:000000000001f663 .LASF3116
C:\Users\CYMR90~1\AppData\Local\Temp\ccxAEgth.s:27908  .debug_str:000000000001f376 .LASF3117
C:\Users\CYMR90~1\AppData\Local\Temp\ccxAEgth.s:27024  .debug_str:000000000001bad1 .LASF3118
C:\Users\CYMR90~1\AppData\Local\Temp\ccxAEgth.s:20759  .debug_str:00000000000027a8 .LASF3119
C:\Users\CYMR90~1\AppData\Local\Temp\ccxAEgth.s:29456  .debug_str:0000000000025468 .LASF3120
C:\Users\CYMR90~1\AppData\Local\Temp\ccxAEgth.s:23359  .debug_str:000000000000cf63 .LASF3121
C:\Users\CYMR90~1\AppData\Local\Temp\ccxAEgth.s:21107  .debug_str:0000000000003e12 .LASF3122
C:\Users\CYMR90~1\AppData\Local\Temp\ccxAEgth.s:20847  .debug_str:0000000000002d37 .LASF3123
C:\Users\CYMR90~1\AppData\Local\Temp\ccxAEgth.s:22245  .debug_str:0000000000008738 .LASF3124
C:\Users\CYMR90~1\AppData\Local\Temp\ccxAEgth.s:27574  .debug_str:000000000001df93 .LASF3125
C:\Users\CYMR90~1\AppData\Local\Temp\ccxAEgth.s:28728  .debug_str:0000000000022553 .LASF3126
C:\Users\CYMR90~1\AppData\Local\Temp\ccxAEgth.s:22621  .debug_str:0000000000009ee1 .LASF3127
C:\Users\CYMR90~1\AppData\Local\Temp\ccxAEgth.s:23555  .debug_str:000000000000dbce .LASF3128
C:\Users\CYMR90~1\AppData\Local\Temp\ccxAEgth.s:25523  .debug_str:0000000000015833 .LASF3129
C:\Users\CYMR90~1\AppData\Local\Temp\ccxAEgth.s:21673  .debug_str:0000000000006152 .LASF3130
C:\Users\CYMR90~1\AppData\Local\Temp\ccxAEgth.s:29064  .debug_str:0000000000023999 .LASF3131
C:\Users\CYMR90~1\AppData\Local\Temp\ccxAEgth.s:26452  .debug_str:0000000000019579 .LASF3132
C:\Users\CYMR90~1\AppData\Local\Temp\ccxAEgth.s:23081  .debug_str:000000000000bdcd .LASF3133
C:\Users\CYMR90~1\AppData\Local\Temp\ccxAEgth.s:28176  .debug_str:00000000000203b4 .LASF3134
C:\Users\CYMR90~1\AppData\Local\Temp\ccxAEgth.s:26004  .debug_str:000000000001790c .LASF3135
C:\Users\CYMR90~1\AppData\Local\Temp\ccxAEgth.s:30204  .debug_str:0000000000028620 .LASF3136
C:\Users\CYMR90~1\AppData\Local\Temp\ccxAEgth.s:27680  .debug_str:000000000001e5e8 .LASF3137
C:\Users\CYMR90~1\AppData\Local\Temp\ccxAEgth.s:27000  .debug_str:000000000001b912 .LASF3138
C:\Users\CYMR90~1\AppData\Local\Temp\ccxAEgth.s:23523  .debug_str:000000000000d9de .LASF3139
C:\Users\CYMR90~1\AppData\Local\Temp\ccxAEgth.s:20617  .debug_str:0000000000001f11 .LASF3140
C:\Users\CYMR90~1\AppData\Local\Temp\ccxAEgth.s:23785  .debug_str:000000000000ea31 .LASF3141
C:\Users\CYMR90~1\AppData\Local\Temp\ccxAEgth.s:23827  .debug_str:000000000000ec5a .LASF3142
C:\Users\CYMR90~1\AppData\Local\Temp\ccxAEgth.s:29734  .debug_str:00000000000266c1 .LASF3143
C:\Users\CYMR90~1\AppData\Local\Temp\ccxAEgth.s:30090  .debug_str:0000000000027da0 .LASF3144
C:\Users\CYMR90~1\AppData\Local\Temp\ccxAEgth.s:26094  .debug_str:0000000000017e46 .LASF3145
C:\Users\CYMR90~1\AppData\Local\Temp\ccxAEgth.s:28834  .debug_str:0000000000022bfd .LASF3146
C:\Users\CYMR90~1\AppData\Local\Temp\ccxAEgth.s:20455  .debug_str:0000000000001538 .LASF3147
C:\Users\CYMR90~1\AppData\Local\Temp\ccxAEgth.s:20753  .debug_str:000000000000274c .LASF3148
C:\Users\CYMR90~1\AppData\Local\Temp\ccxAEgth.s:30682  .debug_str:000000000002a350 .LASF3149
C:\Users\CYMR90~1\AppData\Local\Temp\ccxAEgth.s:21645  .debug_str:0000000000005fda .LASF3150
C:\Users\CYMR90~1\AppData\Local\Temp\ccxAEgth.s:24879  .debug_str:0000000000013076 .LASF3151
C:\Users\CYMR90~1\AppData\Local\Temp\ccxAEgth.s:23431  .debug_str:000000000000d4a6 .LASF3152
C:\Users\CYMR90~1\AppData\Local\Temp\ccxAEgth.s:28402  .debug_str:000000000002112c .LASF3153
C:\Users\CYMR90~1\AppData\Local\Temp\ccxAEgth.s:26464  .debug_str:000000000001967f .LASF3154
C:\Users\CYMR90~1\AppData\Local\Temp\ccxAEgth.s:22599  .debug_str:0000000000009d6c .LASF3155
C:\Users\CYMR90~1\AppData\Local\Temp\ccxAEgth.s:22353  .debug_str:0000000000008e0b .LASF3156
C:\Users\CYMR90~1\AppData\Local\Temp\ccxAEgth.s:22947  .debug_str:000000000000b4a4 .LASF3157
C:\Users\CYMR90~1\AppData\Local\Temp\ccxAEgth.s:21183  .debug_str:0000000000004328 .LASF3158
C:\Users\CYMR90~1\AppData\Local\Temp\ccxAEgth.s:24315  .debug_str:0000000000010be7 .LASF3159
C:\Users\CYMR90~1\AppData\Local\Temp\ccxAEgth.s:25988  .debug_str:0000000000017827 .LASF3160
C:\Users\CYMR90~1\AppData\Local\Temp\ccxAEgth.s:22219  .debug_str:0000000000008552 .LASF3161
C:\Users\CYMR90~1\AppData\Local\Temp\ccxAEgth.s:23027  .debug_str:000000000000b9ce .LASF3162
C:\Users\CYMR90~1\AppData\Local\Temp\ccxAEgth.s:22975  .debug_str:000000000000b68c .LASF3163
C:\Users\CYMR90~1\AppData\Local\Temp\ccxAEgth.s:25890  .debug_str:00000000000171e5 .LASF3164
C:\Users\CYMR90~1\AppData\Local\Temp\ccxAEgth.s:29820  .debug_str:0000000000026be2 .LASF3165
C:\Users\CYMR90~1\AppData\Local\Temp\ccxAEgth.s:22699  .debug_str:000000000000a3c3 .LASF3166
C:\Users\CYMR90~1\AppData\Local\Temp\ccxAEgth.s:20729  .debug_str:0000000000002597 .LASF3167
C:\Users\CYMR90~1\AppData\Local\Temp\ccxAEgth.s:27708  .debug_str:000000000001e7b8 .LASF3168
C:\Users\CYMR90~1\AppData\Local\Temp\ccxAEgth.s:20421  .debug_str:0000000000001372 .LASF3169
C:\Users\CYMR90~1\AppData\Local\Temp\ccxAEgth.s:26276  .debug_str:0000000000018965 .LASF3170
C:\Users\CYMR90~1\AppData\Local\Temp\ccxAEgth.s:20527  .debug_str:00000000000019ab .LASF3171
C:\Users\CYMR90~1\AppData\Local\Temp\ccxAEgth.s:31276  .debug_str:000000000002c984 .LASF3172
C:\Users\CYMR90~1\AppData\Local\Temp\ccxAEgth.s:25441  .debug_str:0000000000015368 .LASF3173
C:\Users\CYMR90~1\AppData\Local\Temp\ccxAEgth.s:29238  .debug_str:0000000000024516 .LASF3174
C:\Users\CYMR90~1\AppData\Local\Temp\ccxAEgth.s:22635  .debug_str:0000000000009fb5 .LASF3175
C:\Users\CYMR90~1\AppData\Local\Temp\ccxAEgth.s:20551  .debug_str:0000000000001b3c .LASF3176
C:\Users\CYMR90~1\AppData\Local\Temp\ccxAEgth.s:21667  .debug_str:0000000000006115 .LASF3177
C:\Users\CYMR90~1\AppData\Local\Temp\ccxAEgth.s:26884  .debug_str:000000000001b2a9 .LASF3178
C:\Users\CYMR90~1\AppData\Local\Temp\ccxAEgth.s:24997  .debug_str:000000000001384d .LASF3179
C:\Users\CYMR90~1\AppData\Local\Temp\ccxAEgth.s:22359  .debug_str:0000000000008e6e .LASF3180
C:\Users\CYMR90~1\AppData\Local\Temp\ccxAEgth.s:21423  .debug_str:00000000000052a6 .LASF3181
C:\Users\CYMR90~1\AppData\Local\Temp\ccxAEgth.s:30772  .debug_str:000000000002a92e .LASF3182
C:\Users\CYMR90~1\AppData\Local\Temp\ccxAEgth.s:23101  .debug_str:000000000000bf1c .LASF3183
C:\Users\CYMR90~1\AppData\Local\Temp\ccxAEgth.s:20767  .debug_str:0000000000002823 .LASF3184
C:\Users\CYMR90~1\AppData\Local\Temp\ccxAEgth.s:28688  .debug_str:00000000000222ea .LASF3185
C:\Users\CYMR90~1\AppData\Local\Temp\ccxAEgth.s:25353  .debug_str:0000000000014e62 .LASF3186
C:\Users\CYMR90~1\AppData\Local\Temp\ccxAEgth.s:21937  .debug_str:0000000000007261 .LASF3187
C:\Users\CYMR90~1\AppData\Local\Temp\ccxAEgth.s:26864  .debug_str:000000000001b183 .LASF3188
C:\Users\CYMR90~1\AppData\Local\Temp\ccxAEgth.s:21555  .debug_str:0000000000005a77 .LASF3189
C:\Users\CYMR90~1\AppData\Local\Temp\ccxAEgth.s:22449  .debug_str:00000000000093f6 .LASF3190
C:\Users\CYMR90~1\AppData\Local\Temp\ccxAEgth.s:24717  .debug_str:00000000000125c7 .LASF3191
C:\Users\CYMR90~1\AppData\Local\Temp\ccxAEgth.s:28706  .debug_str:00000000000223db .LASF3192
C:\Users\CYMR90~1\AppData\Local\Temp\ccxAEgth.s:30072  .debug_str:0000000000027c51 .LASF3193
C:\Users\CYMR90~1\AppData\Local\Temp\ccxAEgth.s:26086  .debug_str:0000000000017de0 .LASF3194
C:\Users\CYMR90~1\AppData\Local\Temp\ccxAEgth.s:23943  .debug_str:000000000000f380 .LASF3195
C:\Users\CYMR90~1\AppData\Local\Temp\ccxAEgth.s:28704  .debug_str:00000000000223c2 .LASF3196
C:\Users\CYMR90~1\AppData\Local\Temp\ccxAEgth.s:30510  .debug_str:0000000000029965 .LASF3197
C:\Users\CYMR90~1\AppData\Local\Temp\ccxAEgth.s:26724  .debug_str:000000000001a865 .LASF3198
C:\Users\CYMR90~1\AppData\Local\Temp\ccxAEgth.s:21805  .debug_str:00000000000069a5 .LASF3199
C:\Users\CYMR90~1\AppData\Local\Temp\ccxAEgth.s:21429  .debug_str:00000000000052ea .LASF3200
C:\Users\CYMR90~1\AppData\Local\Temp\ccxAEgth.s:27624  .debug_str:000000000001e27c .LASF3201
C:\Users\CYMR90~1\AppData\Local\Temp\ccxAEgth.s:23653  .debug_str:000000000000e1ca .LASF3202
C:\Users\CYMR90~1\AppData\Local\Temp\ccxAEgth.s:28906  .debug_str:0000000000022fc8 .LASF3203
C:\Users\CYMR90~1\AppData\Local\Temp\ccxAEgth.s:25946  .debug_str:000000000001754f .LASF3204
C:\Users\CYMR90~1\AppData\Local\Temp\ccxAEgth.s:29354  .debug_str:0000000000024caf .LASF3205
C:\Users\CYMR90~1\AppData\Local\Temp\ccxAEgth.s:28744  .debug_str:0000000000022671 .LASF3206
C:\Users\CYMR90~1\AppData\Local\Temp\ccxAEgth.s:26000  .debug_str:00000000000178e3 .LASF3207
C:\Users\CYMR90~1\AppData\Local\Temp\ccxAEgth.s:30944  .debug_str:000000000002b37a .LASF3208
C:\Users\CYMR90~1\AppData\Local\Temp\ccxAEgth.s:31244  .debug_str:000000000002c742 .LASF3209
C:\Users\CYMR90~1\AppData\Local\Temp\ccxAEgth.s:29666  .debug_str:0000000000026299 .LASF3210
C:\Users\CYMR90~1\AppData\Local\Temp\ccxAEgth.s:21071  .debug_str:0000000000003b8b .LASF3211
C:\Users\CYMR90~1\AppData\Local\Temp\ccxAEgth.s:23873  .debug_str:000000000000ef0d .LASF3212
C:\Users\CYMR90~1\AppData\Local\Temp\ccxAEgth.s:21041  .debug_str:00000000000039b7 .LASF3213
C:\Users\CYMR90~1\AppData\Local\Temp\ccxAEgth.s:24429  .debug_str:0000000000011262 .LASF3214
C:\Users\CYMR90~1\AppData\Local\Temp\ccxAEgth.s:24247  .debug_str:0000000000010704 .LASF3215
C:\Users\CYMR90~1\AppData\Local\Temp\ccxAEgth.s:21775  .debug_str:00000000000067b7 .LASF3216
C:\Users\CYMR90~1\AppData\Local\Temp\ccxAEgth.s:24635  .debug_str:00000000000120a0 .LASF3217
C:\Users\CYMR90~1\AppData\Local\Temp\ccxAEgth.s:24295  .debug_str:0000000000010a34 .LASF3218
C:\Users\CYMR90~1\AppData\Local\Temp\ccxAEgth.s:22025  .debug_str:00000000000077d5 .LASF3219
C:\Users\CYMR90~1\AppData\Local\Temp\ccxAEgth.s:21995  .debug_str:00000000000075db .LASF3220
C:\Users\CYMR90~1\AppData\Local\Temp\ccxAEgth.s:25117  .debug_str:0000000000013f84 .LASF3221
C:\Users\CYMR90~1\AppData\Local\Temp\ccxAEgth.s:27632  .debug_str:000000000001e2f0 .LASF3222
C:\Users\CYMR90~1\AppData\Local\Temp\ccxAEgth.s:21227  .debug_str:000000000000461b .LASF3223
C:\Users\CYMR90~1\AppData\Local\Temp\ccxAEgth.s:28174  .debug_str:000000000002039e .LASF3224
C:\Users\CYMR90~1\AppData\Local\Temp\ccxAEgth.s:28538  .debug_str:0000000000021a1f .LASF3225
C:\Users\CYMR90~1\AppData\Local\Temp\ccxAEgth.s:22507  .debug_str:00000000000097b6 .LASF3226
C:\Users\CYMR90~1\AppData\Local\Temp\ccxAEgth.s:21851  .debug_str:0000000000006c9b .LASF3227
C:\Users\CYMR90~1\AppData\Local\Temp\ccxAEgth.s:22371  .debug_str:0000000000008f02 .LASF3228
C:\Users\CYMR90~1\AppData\Local\Temp\ccxAEgth.s:20825  .debug_str:0000000000002c00 .LASF3229
C:\Users\CYMR90~1\AppData\Local\Temp\ccxAEgth.s:31098  .debug_str:000000000002bd7c .LASF3230
C:\Users\CYMR90~1\AppData\Local\Temp\ccxAEgth.s:21651  .debug_str:000000000000602d .LASF3231
C:\Users\CYMR90~1\AppData\Local\Temp\ccxAEgth.s:20223  .debug_str:0000000000000742 .LASF3232
C:\Users\CYMR90~1\AppData\Local\Temp\ccxAEgth.s:21233  .debug_str:0000000000004698 .LASF3233
C:\Users\CYMR90~1\AppData\Local\Temp\ccxAEgth.s:21015  .debug_str:00000000000037f5 .LASF3234
C:\Users\CYMR90~1\AppData\Local\Temp\ccxAEgth.s:24709  .debug_str:0000000000012541 .LASF3235
C:\Users\CYMR90~1\AppData\Local\Temp\ccxAEgth.s:28258  .debug_str:00000000000208f2 .LASF3236
C:\Users\CYMR90~1\AppData\Local\Temp\ccxAEgth.s:20161  .debug_str:00000000000003d5 .LASF3237
C:\Users\CYMR90~1\AppData\Local\Temp\ccxAEgth.s:27846  .debug_str:000000000001efbb .LASF3238
C:\Users\CYMR90~1\AppData\Local\Temp\ccxAEgth.s:26712  .debug_str:000000000001a7a3 .LASF3239
C:\Users\CYMR90~1\AppData\Local\Temp\ccxAEgth.s:27622  .debug_str:000000000001e25c .LASF3240
C:\Users\CYMR90~1\AppData\Local\Temp\ccxAEgth.s:27206  .debug_str:000000000001c6eb .LASF3241
C:\Users\CYMR90~1\AppData\Local\Temp\ccxAEgth.s:26066  .debug_str:0000000000017cda .LASF3242
C:\Users\CYMR90~1\AppData\Local\Temp\ccxAEgth.s:24597  .debug_str:0000000000011dd4 .LASF3243
C:\Users\CYMR90~1\AppData\Local\Temp\ccxAEgth.s:22591  .debug_str:0000000000009cd9 .LASF3244
C:\Users\CYMR90~1\AppData\Local\Temp\ccxAEgth.s:27494  .debug_str:000000000001da01 .LASF3245
C:\Users\CYMR90~1\AppData\Local\Temp\ccxAEgth.s:31194  .debug_str:000000000002c458 .LASF3246
C:\Users\CYMR90~1\AppData\Local\Temp\ccxAEgth.s:26474  .debug_str:000000000001977f .LASF3247
C:\Users\CYMR90~1\AppData\Local\Temp\ccxAEgth.s:26782  .debug_str:000000000001abf1 .LASF3248
C:\Users\CYMR90~1\AppData\Local\Temp\ccxAEgth.s:29280  .debug_str:0000000000024829 .LASF3249
C:\Users\CYMR90~1\AppData\Local\Temp\ccxAEgth.s:30678  .debug_str:000000000002a31d .LASF3250
C:\Users\CYMR90~1\AppData\Local\Temp\ccxAEgth.s:24477  .debug_str:0000000000011577 .LASF3251
C:\Users\CYMR90~1\AppData\Local\Temp\ccxAEgth.s:27444  .debug_str:000000000001d73b .LASF3252
C:\Users\CYMR90~1\AppData\Local\Temp\ccxAEgth.s:23553  .debug_str:000000000000dbb6 .LASF3253
C:\Users\CYMR90~1\AppData\Local\Temp\ccxAEgth.s:30448  .debug_str:00000000000295af .LASF3254
C:\Users\CYMR90~1\AppData\Local\Temp\ccxAEgth.s:21949  .debug_str:0000000000007318 .LASF3255
C:\Users\CYMR90~1\AppData\Local\Temp\ccxAEgth.s:30724  .debug_str:000000000002a627 .LASF3256
C:\Users\CYMR90~1\AppData\Local\Temp\ccxAEgth.s:29506  .debug_str:000000000002586d .LASF3257
C:\Users\CYMR90~1\AppData\Local\Temp\ccxAEgth.s:20999  .debug_str:000000000000370e .LASF3258
C:\Users\CYMR90~1\AppData\Local\Temp\ccxAEgth.s:24185  .debug_str:000000000001035c .LASF3259
C:\Users\CYMR90~1\AppData\Local\Temp\ccxAEgth.s:30176  .debug_str:0000000000028434 .LASF3260
C:\Users\CYMR90~1\AppData\Local\Temp\ccxAEgth.s:24659  .debug_str:000000000001220c .LASF3261
C:\Users\CYMR90~1\AppData\Local\Temp\ccxAEgth.s:22767  .debug_str:000000000000a899 .LASF3262
C:\Users\CYMR90~1\AppData\Local\Temp\ccxAEgth.s:31002  .debug_str:000000000002b726 .LASF3263
C:\Users\CYMR90~1\AppData\Local\Temp\ccxAEgth.s:22851  .debug_str:000000000000ae9a .LASF3264
C:\Users\CYMR90~1\AppData\Local\Temp\ccxAEgth.s:26528  .debug_str:0000000000019aeb .LASF3265
C:\Users\CYMR90~1\AppData\Local\Temp\ccxAEgth.s:30752  .debug_str:000000000002a7f0 .LASF3266
C:\Users\CYMR90~1\AppData\Local\Temp\ccxAEgth.s:26270  .debug_str:00000000000188dc .LASF3267
C:\Users\CYMR90~1\AppData\Local\Temp\ccxAEgth.s:30790  .debug_str:000000000002aa27 .LASF3268
C:\Users\CYMR90~1\AppData\Local\Temp\ccxAEgth.s:28368  .debug_str:0000000000020f37 .LASF3269
C:\Users\CYMR90~1\AppData\Local\Temp\ccxAEgth.s:29752  .debug_str:0000000000026800 .LASF3270
C:\Users\CYMR90~1\AppData\Local\Temp\ccxAEgth.s:23409  .debug_str:000000000000d305 .LASF3271
C:\Users\CYMR90~1\AppData\Local\Temp\ccxAEgth.s:29128  .debug_str:0000000000023d67 .LASF3272
C:\Users\CYMR90~1\AppData\Local\Temp\ccxAEgth.s:25241  .debug_str:000000000001471a .LASF3273
C:\Users\CYMR90~1\AppData\Local\Temp\ccxAEgth.s:24079  .debug_str:000000000000fccd .LASF3274
C:\Users\CYMR90~1\AppData\Local\Temp\ccxAEgth.s:27194  .debug_str:000000000001c581 .LASF3275
C:\Users\CYMR90~1\AppData\Local\Temp\ccxAEgth.s:30010  .debug_str:00000000000277fa .LASF3276
C:\Users\CYMR90~1\AppData\Local\Temp\ccxAEgth.s:21021  .debug_str:0000000000003851 .LASF3277
C:\Users\CYMR90~1\AppData\Local\Temp\ccxAEgth.s:27424  .debug_str:000000000001d5ca .LASF3278
C:\Users\CYMR90~1\AppData\Local\Temp\ccxAEgth.s:30186  .debug_str:00000000000284d8 .LASF3279
C:\Users\CYMR90~1\AppData\Local\Temp\ccxAEgth.s:22265  .debug_str:000000000000886d .LASF3280
C:\Users\CYMR90~1\AppData\Local\Temp\ccxAEgth.s:28614  .debug_str:0000000000021e85 .LASF3281
C:\Users\CYMR90~1\AppData\Local\Temp\ccxAEgth.s:25419  .debug_str:000000000001522d .LASF3282
C:\Users\CYMR90~1\AppData\Local\Temp\ccxAEgth.s:22355  .debug_str:0000000000008e2f .LASF3283
C:\Users\CYMR90~1\AppData\Local\Temp\ccxAEgth.s:27330  .debug_str:000000000001d00c .LASF3284
C:\Users\CYMR90~1\AppData\Local\Temp\ccxAEgth.s:24805  .debug_str:0000000000012b8f .LASF3285
C:\Users\CYMR90~1\AppData\Local\Temp\ccxAEgth.s:22829  .debug_str:000000000000ac60 .LASF3286
C:\Users\CYMR90~1\AppData\Local\Temp\ccxAEgth.s:27262  .debug_str:000000000001ca91 .LASF3287
C:\Users\CYMR90~1\AppData\Local\Temp\ccxAEgth.s:29378  .debug_str:0000000000024e4c .LASF3288
C:\Users\CYMR90~1\AppData\Local\Temp\ccxAEgth.s:21311  .debug_str:0000000000004be3 .LASF3289
C:\Users\CYMR90~1\AppData\Local\Temp\ccxAEgth.s:30692  .debug_str:000000000002a40a .LASF3290
C:\Users\CYMR90~1\AppData\Local\Temp\ccxAEgth.s:29574  .debug_str:0000000000025cb7 .LASF3291
C:\Users\CYMR90~1\AppData\Local\Temp\ccxAEgth.s:26572  .debug_str:0000000000019d72 .LASF3292
C:\Users\CYMR90~1\AppData\Local\Temp\ccxAEgth.s:26580  .debug_str:0000000000019df8 .LASF3293
C:\Users\CYMR90~1\AppData\Local\Temp\ccxAEgth.s:29866  .debug_str:0000000000026ed8 .LASF3294
C:\Users\CYMR90~1\AppData\Local\Temp\ccxAEgth.s:24691  .debug_str:00000000000123f9 .LASF3295
C:\Users\CYMR90~1\AppData\Local\Temp\ccxAEgth.s:30664  .debug_str:000000000002a269 .LASF3296
C:\Users\CYMR90~1\AppData\Local\Temp\ccxAEgth.s:26232  .debug_str:0000000000018687 .LASF3297
C:\Users\CYMR90~1\AppData\Local\Temp\ccxAEgth.s:29944  .debug_str:0000000000027446 .LASF3298
C:\Users\CYMR90~1\AppData\Local\Temp\ccxAEgth.s:21207  .debug_str:000000000000449c .LASF3299
C:\Users\CYMR90~1\AppData\Local\Temp\ccxAEgth.s:24285  .debug_str:000000000001095a .LASF3300
C:\Users\CYMR90~1\AppData\Local\Temp\ccxAEgth.s:27604  .debug_str:000000000001e13d .LASF3301
C:\Users\CYMR90~1\AppData\Local\Temp\ccxAEgth.s:24619  .debug_str:0000000000011f72 .LASF3302
C:\Users\CYMR90~1\AppData\Local\Temp\ccxAEgth.s:24031  .debug_str:000000000000f9b9 .LASF3303
C:\Users\CYMR90~1\AppData\Local\Temp\ccxAEgth.s:24803  .debug_str:0000000000012b56 .LASF3304
C:\Users\CYMR90~1\AppData\Local\Temp\ccxAEgth.s:28842  .debug_str:0000000000022c53 .LASF3305
C:\Users\CYMR90~1\AppData\Local\Temp\ccxAEgth.s:25603  .debug_str:0000000000015dc4 .LASF3306
C:\Users\CYMR90~1\AppData\Local\Temp\ccxAEgth.s:27176  .debug_str:000000000001c410 .LASF3307
C:\Users\CYMR90~1\AppData\Local\Temp\ccxAEgth.s:25653  .debug_str:00000000000160e1 .LASF3308
C:\Users\CYMR90~1\AppData\Local\Temp\ccxAEgth.s:22055  .debug_str:00000000000079d8 .LASF3309
C:\Users\CYMR90~1\AppData\Local\Temp\ccxAEgth.s:21367  .debug_str:0000000000004f29 .LASF3310
C:\Users\CYMR90~1\AppData\Local\Temp\ccxAEgth.s:24753  .debug_str:0000000000012824 .LASF3311
C:\Users\CYMR90~1\AppData\Local\Temp\ccxAEgth.s:20379  .debug_str:0000000000001106 .LASF3312
C:\Users\CYMR90~1\AppData\Local\Temp\ccxAEgth.s:20471  .debug_str:0000000000001646 .LASF3313
C:\Users\CYMR90~1\AppData\Local\Temp\ccxAEgth.s:30136  .debug_str:00000000000280e7 .LASF3314
C:\Users\CYMR90~1\AppData\Local\Temp\ccxAEgth.s:26850  .debug_str:000000000001b085 .LASF3315
C:\Users\CYMR90~1\AppData\Local\Temp\ccxAEgth.s:23327  .debug_str:000000000000cd34 .LASF3316
C:\Users\CYMR90~1\AppData\Local\Temp\ccxAEgth.s:30024  .debug_str:00000000000278ef .LASF3317
C:\Users\CYMR90~1\AppData\Local\Temp\ccxAEgth.s:26178  .debug_str:000000000001836a .LASF3318
C:\Users\CYMR90~1\AppData\Local\Temp\ccxAEgth.s:24029  .debug_str:000000000000f9a0 .LASF3319
C:\Users\CYMR90~1\AppData\Local\Temp\ccxAEgth.s:27658  .debug_str:000000000001e47f .LASF3320
C:\Users\CYMR90~1\AppData\Local\Temp\ccxAEgth.s:23137  .debug_str:000000000000c16a .LASF3321
C:\Users\CYMR90~1\AppData\Local\Temp\ccxAEgth.s:22703  .debug_str:000000000000a3ea .LASF3322
C:\Users\CYMR90~1\AppData\Local\Temp\ccxAEgth.s:25663  .debug_str:000000000001618f .LASF3323
C:\Users\CYMR90~1\AppData\Local\Temp\ccxAEgth.s:26630  .debug_str:000000000001a0cd .LASF3324
C:\Users\CYMR90~1\AppData\Local\Temp\ccxAEgth.s:27910  .debug_str:000000000001f395 .LASF3325
C:\Users\CYMR90~1\AppData\Local\Temp\ccxAEgth.s:24107  .debug_str:000000000000fea7 .LASF3326
C:\Users\CYMR90~1\AppData\Local\Temp\ccxAEgth.s:31270  .debug_str:000000000002c91e .LASF3327
C:\Users\CYMR90~1\AppData\Local\Temp\ccxAEgth.s:28624  .debug_str:0000000000021f27 .LASF3328
C:\Users\CYMR90~1\AppData\Local\Temp\ccxAEgth.s:28640  .debug_str:0000000000022023 .LASF3329
C:\Users\CYMR90~1\AppData\Local\Temp\ccxAEgth.s:23015  .debug_str:000000000000b92a .LASF3330
C:\Users\CYMR90~1\AppData\Local\Temp\ccxAEgth.s:28920  .debug_str:00000000000230a6 .LASF3331
C:\Users\CYMR90~1\AppData\Local\Temp\ccxAEgth.s:25081  .debug_str:0000000000013d2a .LASF3332
C:\Users\CYMR90~1\AppData\Local\Temp\ccxAEgth.s:27802  .debug_str:000000000001ecbe .LASF3333
C:\Users\CYMR90~1\AppData\Local\Temp\ccxAEgth.s:23857  .debug_str:000000000000ee17 .LASF3334
C:\Users\CYMR90~1\AppData\Local\Temp\ccxAEgth.s:30658  .debug_str:000000000002a20f .LASF3335
C:\Users\CYMR90~1\AppData\Local\Temp\ccxAEgth.s:24183  .debug_str:0000000000010345 .LASF3336
C:\Users\CYMR90~1\AppData\Local\Temp\ccxAEgth.s:30264  .debug_str:0000000000028a35 .LASF3337
C:\Users\CYMR90~1\AppData\Local\Temp\ccxAEgth.s:25367  .debug_str:0000000000014f45 .LASF3338
C:\Users\CYMR90~1\AppData\Local\Temp\ccxAEgth.s:24507  .debug_str:00000000000117f6 .LASF3339
C:\Users\CYMR90~1\AppData\Local\Temp\ccxAEgth.s:22395  .debug_str:0000000000009088 .LASF3340
C:\Users\CYMR90~1\AppData\Local\Temp\ccxAEgth.s:21981  .debug_str:00000000000074f4 .LASF3341
C:\Users\CYMR90~1\AppData\Local\Temp\ccxAEgth.s:31392  .debug_str:000000000002d114 .LASF3342
C:\Users\CYMR90~1\AppData\Local\Temp\ccxAEgth.s:21157  .debug_str:000000000000416e .LASF3343
C:\Users\CYMR90~1\AppData\Local\Temp\ccxAEgth.s:30918  .debug_str:000000000002b199 .LASF3344
C:\Users\CYMR90~1\AppData\Local\Temp\ccxAEgth.s:23477  .debug_str:000000000000d751 .LASF3345
C:\Users\CYMR90~1\AppData\Local\Temp\ccxAEgth.s:26156  .debug_str:00000000000181ef .LASF3346
C:\Users\CYMR90~1\AppData\Local\Temp\ccxAEgth.s:25601  .debug_str:0000000000015dac .LASF3347
C:\Users\CYMR90~1\AppData\Local\Temp\ccxAEgth.s:28932  .debug_str:000000000002313d .LASF3348
C:\Users\CYMR90~1\AppData\Local\Temp\ccxAEgth.s:20391  .debug_str:00000000000011ac .LASF3349
C:\Users\CYMR90~1\AppData\Local\Temp\ccxAEgth.s:21325  .debug_str:0000000000004cdb .LASF3350
C:\Users\CYMR90~1\AppData\Local\Temp\ccxAEgth.s:28794  .debug_str:000000000002292d .LASF3351
C:\Users\CYMR90~1\AppData\Local\Temp\ccxAEgth.s:21573  .debug_str:0000000000005b73 .LASF3352
C:\Users\CYMR90~1\AppData\Local\Temp\ccxAEgth.s:29112  .debug_str:0000000000023c5b .LASF3353
C:\Users\CYMR90~1\AppData\Local\Temp\ccxAEgth.s:29534  .debug_str:0000000000025a46 .LASF3354
C:\Users\CYMR90~1\AppData\Local\Temp\ccxAEgth.s:28248  .debug_str:0000000000020884 .LASF3355
C:\Users\CYMR90~1\AppData\Local\Temp\ccxAEgth.s:25507  .debug_str:0000000000015752 .LASF3356
C:\Users\CYMR90~1\AppData\Local\Temp\ccxAEgth.s:25259  .debug_str:000000000001481a .LASF3357
C:\Users\CYMR90~1\AppData\Local\Temp\ccxAEgth.s:25980  .debug_str:0000000000017794 .LASF3358
C:\Users\CYMR90~1\AppData\Local\Temp\ccxAEgth.s:28142  .debug_str:0000000000020154 .LASF3359
C:\Users\CYMR90~1\AppData\Local\Temp\ccxAEgth.s:21945  .debug_str:00000000000072ea .LASF3360
C:\Users\CYMR90~1\AppData\Local\Temp\ccxAEgth.s:20155  .debug_str:000000000000037c .LASF3361
C:\Users\CYMR90~1\AppData\Local\Temp\ccxAEgth.s:30288  .debug_str:0000000000028bae .LASF3362
C:\Users\CYMR90~1\AppData\Local\Temp\ccxAEgth.s:20285  .debug_str:0000000000000b7c .LASF3363
C:\Users\CYMR90~1\AppData\Local\Temp\ccxAEgth.s:28620  .debug_str:0000000000021ef9 .LASF3364
C:\Users\CYMR90~1\AppData\Local\Temp\ccxAEgth.s:25403  .debug_str:000000000001516c .LASF3365
C:\Users\CYMR90~1\AppData\Local\Temp\ccxAEgth.s:25063  .debug_str:0000000000013c12 .LASF3366
C:\Users\CYMR90~1\AppData\Local\Temp\ccxAEgth.s:23351  .debug_str:000000000000cedc .LASF3367
C:\Users\CYMR90~1\AppData\Local\Temp\ccxAEgth.s:28922  .debug_str:00000000000230cc .LASF3368
C:\Users\CYMR90~1\AppData\Local\Temp\ccxAEgth.s:26892  .debug_str:000000000001b334 .LASF3369
C:\Users\CYMR90~1\AppData\Local\Temp\ccxAEgth.s:25661  .debug_str:0000000000016172 .LASF3370
C:\Users\CYMR90~1\AppData\Local\Temp\ccxAEgth.s:29376  .debug_str:0000000000024e2e .LASF3371
C:\Users\CYMR90~1\AppData\Local\Temp\ccxAEgth.s:23995  .debug_str:000000000000f7cb .LASF3372
C:\Users\CYMR90~1\AppData\Local\Temp\ccxAEgth.s:28840  .debug_str:0000000000022c37 .LASF3373
C:\Users\CYMR90~1\AppData\Local\Temp\ccxAEgth.s:24899  .debug_str:00000000000131d2 .LASF3374
C:\Users\CYMR90~1\AppData\Local\Temp\ccxAEgth.s:27374  .debug_str:000000000001d299 .LASF3375
C:\Users\CYMR90~1\AppData\Local\Temp\ccxAEgth.s:30054  .debug_str:0000000000027b1d .LASF3376
C:\Users\CYMR90~1\AppData\Local\Temp\ccxAEgth.s:31308  .debug_str:000000000002cb85 .LASF3377
C:\Users\CYMR90~1\AppData\Local\Temp\ccxAEgth.s:21967  .debug_str:0000000000007411 .LASF3378
C:\Users\CYMR90~1\AppData\Local\Temp\ccxAEgth.s:21087  .debug_str:0000000000003c98 .LASF3379
C:\Users\CYMR90~1\AppData\Local\Temp\ccxAEgth.s:30992  .debug_str:000000000002b67e .LASF3380
C:\Users\CYMR90~1\AppData\Local\Temp\ccxAEgth.s:22859  .debug_str:000000000000af08 .LASF3381
C:\Users\CYMR90~1\AppData\Local\Temp\ccxAEgth.s:25057  .debug_str:0000000000013bc4 .LASF3382
C:\Users\CYMR90~1\AppData\Local\Temp\ccxAEgth.s:21359  .debug_str:0000000000004ec9 .LASF3383
C:\Users\CYMR90~1\AppData\Local\Temp\ccxAEgth.s:22741  .debug_str:000000000000a613 .LASF3384
C:\Users\CYMR90~1\AppData\Local\Temp\ccxAEgth.s:21553  .debug_str:0000000000005a4d .LASF3385
C:\Users\CYMR90~1\AppData\Local\Temp\ccxAEgth.s:22955  .debug_str:000000000000b512 .LASF3386
C:\Users\CYMR90~1\AppData\Local\Temp\ccxAEgth.s:21489  .debug_str:000000000000566d .LASF3387
C:\Users\CYMR90~1\AppData\Local\Temp\ccxAEgth.s:24613  .debug_str:0000000000011f0c .LASF3388
C:\Users\CYMR90~1\AppData\Local\Temp\ccxAEgth.s:30044  .debug_str:0000000000027a80 .LASF3389
C:\Users\CYMR90~1\AppData\Local\Temp\ccxAEgth.s:26414  .debug_str:0000000000019325 .LASF3390
C:\Users\CYMR90~1\AppData\Local\Temp\ccxAEgth.s:25201  .debug_str:0000000000014480 .LASF3391
C:\Users\CYMR90~1\AppData\Local\Temp\ccxAEgth.s:31340  .debug_str:000000000002cde4 .LASF3392
C:\Users\CYMR90~1\AppData\Local\Temp\ccxAEgth.s:27878  .debug_str:000000000001f19d .LASF3393
C:\Users\CYMR90~1\AppData\Local\Temp\ccxAEgth.s:24545  .debug_str:0000000000011abd .LASF3394
C:\Users\CYMR90~1\AppData\Local\Temp\ccxAEgth.s:22239  .debug_str:00000000000086a2 .LASF3395
C:\Users\CYMR90~1\AppData\Local\Temp\ccxAEgth.s:28978  .debug_str:0000000000023414 .LASF3396
C:\Users\CYMR90~1\AppData\Local\Temp\ccxAEgth.s:27812  .debug_str:000000000001ed74 .LASF3397
C:\Users\CYMR90~1\AppData\Local\Temp\ccxAEgth.s:22181  .debug_str:0000000000008318 .LASF3398
C:\Users\CYMR90~1\AppData\Local\Temp\ccxAEgth.s:26100  .debug_str:0000000000017e79 .LASF3399
C:\Users\CYMR90~1\AppData\Local\Temp\ccxAEgth.s:31054  .debug_str:000000000002baac .LASF3400
C:\Users\CYMR90~1\AppData\Local\Temp\ccxAEgth.s:29610  .debug_str:0000000000025ed5 .LASF3401
C:\Users\CYMR90~1\AppData\Local\Temp\ccxAEgth.s:20489  .debug_str:0000000000001775 .LASF3402
C:\Users\CYMR90~1\AppData\Local\Temp\ccxAEgth.s:21527  .debug_str:0000000000005876 .LASF3403
C:\Users\CYMR90~1\AppData\Local\Temp\ccxAEgth.s:27666  .debug_str:000000000001e4cb .LASF3404
C:\Users\CYMR90~1\AppData\Local\Temp\ccxAEgth.s:27886  .debug_str:000000000001f21b .LASF3405
C:\Users\CYMR90~1\AppData\Local\Temp\ccxAEgth.s:29024  .debug_str:000000000002374e .LASF3406
C:\Users\CYMR90~1\AppData\Local\Temp\ccxAEgth.s:20485  .debug_str:000000000000172e .LASF3407
C:\Users\CYMR90~1\AppData\Local\Temp\ccxAEgth.s:26212  .debug_str:0000000000018516 .LASF3408
C:\Users\CYMR90~1\AppData\Local\Temp\ccxAEgth.s:31290  .debug_str:000000000002ca68 .LASF3409
C:\Users\CYMR90~1\AppData\Local\Temp\ccxAEgth.s:22929  .debug_str:000000000000b2f7 .LASF3410
C:\Users\CYMR90~1\AppData\Local\Temp\ccxAEgth.s:26084  .debug_str:0000000000017dc0 .LASF3411
C:\Users\CYMR90~1\AppData\Local\Temp\ccxAEgth.s:20423  .debug_str:0000000000001385 .LASF3412
C:\Users\CYMR90~1\AppData\Local\Temp\ccxAEgth.s:27154  .debug_str:000000000001c2cd .LASF3413
C:\Users\CYMR90~1\AppData\Local\Temp\ccxAEgth.s:23145  .debug_str:000000000000c1e0 .LASF3414
C:\Users\CYMR90~1\AppData\Local\Temp\ccxAEgth.s:23413  .debug_str:000000000000d350 .LASF3415
C:\Users\CYMR90~1\AppData\Local\Temp\ccxAEgth.s:31050  .debug_str:000000000002ba61 .LASF3416
C:\Users\CYMR90~1\AppData\Local\Temp\ccxAEgth.s:28090  .debug_str:000000000001fe85 .LASF3417
C:\Users\CYMR90~1\AppData\Local\Temp\ccxAEgth.s:23887  .debug_str:000000000000f004 .LASF3418
C:\Users\CYMR90~1\AppData\Local\Temp\ccxAEgth.s:29532  .debug_str:0000000000025a1e .LASF3419
C:\Users\CYMR90~1\AppData\Local\Temp\ccxAEgth.s:28470  .debug_str:00000000000215f2 .LASF3420
C:\Users\CYMR90~1\AppData\Local\Temp\ccxAEgth.s:24149  .debug_str:000000000001014c .LASF3421
C:\Users\CYMR90~1\AppData\Local\Temp\ccxAEgth.s:28088  .debug_str:000000000001fe5e .LASF3422
C:\Users\CYMR90~1\AppData\Local\Temp\ccxAEgth.s:25211  .debug_str:0000000000014547 .LASF3423
C:\Users\CYMR90~1\AppData\Local\Temp\ccxAEgth.s:30928  .debug_str:000000000002b271 .LASF3424
C:\Users\CYMR90~1\AppData\Local\Temp\ccxAEgth.s:22191  .debug_str:00000000000083af .LASF3425
C:\Users\CYMR90~1\AppData\Local\Temp\ccxAEgth.s:28120  .debug_str:000000000002001f .LASF3426
C:\Users\CYMR90~1\AppData\Local\Temp\ccxAEgth.s:29672  .debug_str:00000000000262f8 .LASF3427
C:\Users\CYMR90~1\AppData\Local\Temp\ccxAEgth.s:31342  .debug_str:000000000002ce0b .LASF3428
C:\Users\CYMR90~1\AppData\Local\Temp\ccxAEgth.s:22571  .debug_str:0000000000009baf .LASF3429
C:\Users\CYMR90~1\AppData\Local\Temp\ccxAEgth.s:26454  .debug_str:000000000001959c .LASF3430
C:\Users\CYMR90~1\AppData\Local\Temp\ccxAEgth.s:23863  .debug_str:000000000000ee5d .LASF3431
C:\Users\CYMR90~1\AppData\Local\Temp\ccxAEgth.s:27800  .debug_str:000000000001eca0 .LASF3432
C:\Users\CYMR90~1\AppData\Local\Temp\ccxAEgth.s:26268  .debug_str:00000000000188bd .LASF3433
C:\Users\CYMR90~1\AppData\Local\Temp\ccxAEgth.s:30852  .debug_str:000000000002add3 .LASF3434
C:\Users\CYMR90~1\AppData\Local\Temp\ccxAEgth.s:27036  .debug_str:000000000001bba4 .LASF3435
C:\Users\CYMR90~1\AppData\Local\Temp\ccxAEgth.s:21075  .debug_str:0000000000003bd9 .LASF3436
C:\Users\CYMR90~1\AppData\Local\Temp\ccxAEgth.s:22841  .debug_str:000000000000ad56 .LASF3437
C:\Users\CYMR90~1\AppData\Local\Temp\ccxAEgth.s:23883  .debug_str:000000000000efb6 .LASF3438
C:\Users\CYMR90~1\AppData\Local\Temp\ccxAEgth.s:28548  .debug_str:0000000000021ab4 .LASF3439
C:\Users\CYMR90~1\AppData\Local\Temp\ccxAEgth.s:25769  .debug_str:000000000001694f .LASF3440
C:\Users\CYMR90~1\AppData\Local\Temp\ccxAEgth.s:27564  .debug_str:000000000001def4 .LASF3441
C:\Users\CYMR90~1\AppData\Local\Temp\ccxAEgth.s:27460  .debug_str:000000000001d813 .LASF3442
C:\Users\CYMR90~1\AppData\Local\Temp\ccxAEgth.s:28572  .debug_str:0000000000021c32 .LASF3443
C:\Users\CYMR90~1\AppData\Local\Temp\ccxAEgth.s:22807  .debug_str:000000000000ab12 .LASF3444
C:\Users\CYMR90~1\AppData\Local\Temp\ccxAEgth.s:25177  .debug_str:0000000000014307 .LASF3445
C:\Users\CYMR90~1\AppData\Local\Temp\ccxAEgth.s:21619  .debug_str:0000000000005e10 .LASF3446
C:\Users\CYMR90~1\AppData\Local\Temp\ccxAEgth.s:28304  .debug_str:0000000000020beb .LASF3447
C:\Users\CYMR90~1\AppData\Local\Temp\ccxAEgth.s:24791  .debug_str:0000000000012a90 .LASF3448
C:\Users\CYMR90~1\AppData\Local\Temp\ccxAEgth.s:26868  .debug_str:000000000001b1bd .LASF3449
C:\Users\CYMR90~1\AppData\Local\Temp\ccxAEgth.s:26740  .debug_str:000000000001a979 .LASF3450
C:\Users\CYMR90~1\AppData\Local\Temp\ccxAEgth.s:21379  .debug_str:0000000000005002 .LASF3451
C:\Users\CYMR90~1\AppData\Local\Temp\ccxAEgth.s:28166  .debug_str:0000000000020301 .LASF3452
C:\Users\CYMR90~1\AppData\Local\Temp\ccxAEgth.s:24865  .debug_str:0000000000012f7f .LASF3453
C:\Users\CYMR90~1\AppData\Local\Temp\ccxAEgth.s:22679  .debug_str:000000000000a294 .LASF3454
C:\Users\CYMR90~1\AppData\Local\Temp\ccxAEgth.s:27196  .debug_str:000000000001c5a6 .LASF3455
C:\Users\CYMR90~1\AppData\Local\Temp\ccxAEgth.s:21881  .debug_str:0000000000006e7f .LASF3456
C:\Users\CYMR90~1\AppData\Local\Temp\ccxAEgth.s:29860  .debug_str:0000000000026e74 .LASF3457
C:\Users\CYMR90~1\AppData\Local\Temp\ccxAEgth.s:21291  .debug_str:0000000000004aa1 .LASF3458
C:\Users\CYMR90~1\AppData\Local\Temp\ccxAEgth.s:21617  .debug_str:0000000000005dff .LASF3459
C:\Users\CYMR90~1\AppData\Local\Temp\ccxAEgth.s:20601  .debug_str:0000000000001e39 .LASF3460
C:\Users\CYMR90~1\AppData\Local\Temp\ccxAEgth.s:26160  .debug_str:0000000000018226 .LASF3461
C:\Users\CYMR90~1\AppData\Local\Temp\ccxAEgth.s:25878  .debug_str:000000000001713f .LASF3462
C:\Users\CYMR90~1\AppData\Local\Temp\ccxAEgth.s:26918  .debug_str:000000000001b4a6 .LASF3463
C:\Users\CYMR90~1\AppData\Local\Temp\ccxAEgth.s:23567  .debug_str:000000000000dcdd .LASF3464
C:\Users\CYMR90~1\AppData\Local\Temp\ccxAEgth.s:28298  .debug_str:0000000000020b95 .LASF3465
C:\Users\CYMR90~1\AppData\Local\Temp\ccxAEgth.s:29178  .debug_str:000000000002410c .LASF3466
C:\Users\CYMR90~1\AppData\Local\Temp\ccxAEgth.s:30056  .debug_str:0000000000027b34 .LASF3467
C:\Users\CYMR90~1\AppData\Local\Temp\ccxAEgth.s:28424  .debug_str:000000000002132b .LASF3468
C:\Users\CYMR90~1\AppData\Local\Temp\ccxAEgth.s:29696  .debug_str:0000000000026456 .LASF3469
C:\Users\CYMR90~1\AppData\Local\Temp\ccxAEgth.s:21901  .debug_str:0000000000006ff8 .LASF3470
C:\Users\CYMR90~1\AppData\Local\Temp\ccxAEgth.s:26926  .debug_str:000000000001b533 .LASF3471
C:\Users\CYMR90~1\AppData\Local\Temp\ccxAEgth.s:20693  .debug_str:0000000000002329 .LASF3472
C:\Users\CYMR90~1\AppData\Local\Temp\ccxAEgth.s:29448  .debug_str:00000000000253b2 .LASF3473
C:\Users\CYMR90~1\AppData\Local\Temp\ccxAEgth.s:23149  .debug_str:000000000000c225 .LASF3474
C:\Users\CYMR90~1\AppData\Local\Temp\ccxAEgth.s:25635  .debug_str:0000000000015fdc .LASF3475
C:\Users\CYMR90~1\AppData\Local\Temp\ccxAEgth.s:29894  .debug_str:000000000002706c .LASF3476
C:\Users\CYMR90~1\AppData\Local\Temp\ccxAEgth.s:22795  .debug_str:000000000000aa42 .LASF3477
C:\Users\CYMR90~1\AppData\Local\Temp\ccxAEgth.s:23643  .debug_str:000000000000e131 .LASF3478
C:\Users\CYMR90~1\AppData\Local\Temp\ccxAEgth.s:21295  .debug_str:0000000000004af0 .LASF3479
C:\Users\CYMR90~1\AppData\Local\Temp\ccxAEgth.s:20279  .debug_str:0000000000000b02 .LASF3480
C:\Users\CYMR90~1\AppData\Local\Temp\ccxAEgth.s:28584  .debug_str:0000000000021ce1 .LASF3481
C:\Users\CYMR90~1\AppData\Local\Temp\ccxAEgth.s:22813  .debug_str:000000000000ab67 .LASF3482
C:\Users\CYMR90~1\AppData\Local\Temp\ccxAEgth.s:20991  .debug_str:000000000000366e .LASF3483
C:\Users\CYMR90~1\AppData\Local\Temp\ccxAEgth.s:20451  .debug_str:00000000000014fe .LASF3484
C:\Users\CYMR90~1\AppData\Local\Temp\ccxAEgth.s:26180  .debug_str:0000000000018383 .LASF3485
C:\Users\CYMR90~1\AppData\Local\Temp\ccxAEgth.s:25657  .debug_str:0000000000016132 .LASF3486
C:\Users\CYMR90~1\AppData\Local\Temp\ccxAEgth.s:24853  .debug_str:0000000000012eb3 .LASF3487
C:\Users\CYMR90~1\AppData\Local\Temp\ccxAEgth.s:26534  .debug_str:0000000000019b54 .LASF3488
C:\Users\CYMR90~1\AppData\Local\Temp\ccxAEgth.s:30816  .debug_str:000000000002abbe .LASF3489
C:\Users\CYMR90~1\AppData\Local\Temp\ccxAEgth.s:25721  .debug_str:0000000000016563 .LASF3490
C:\Users\CYMR90~1\AppData\Local\Temp\ccxAEgth.s:24769  .debug_str:0000000000012959 .LASF3491
C:\Users\CYMR90~1\AppData\Local\Temp\ccxAEgth.s:26826  .debug_str:000000000001aef4 .LASF3492
C:\Users\CYMR90~1\AppData\Local\Temp\ccxAEgth.s:29726  .debug_str:0000000000026629 .LASF3493
C:\Users\CYMR90~1\AppData\Local\Temp\ccxAEgth.s:22119  .debug_str:0000000000007f0d .LASF3494
C:\Users\CYMR90~1\AppData\Local\Temp\ccxAEgth.s:20813  .debug_str:0000000000002b30 .LASF3495
C:\Users\CYMR90~1\AppData\Local\Temp\ccxAEgth.s:28508  .debug_str:0000000000021819 .LASF3496
C:\Users\CYMR90~1\AppData\Local\Temp\ccxAEgth.s:27836  .debug_str:000000000001ef27 .LASF3497
C:\Users\CYMR90~1\AppData\Local\Temp\ccxAEgth.s:28134  .debug_str:00000000000200e8 .LASF3498
C:\Users\CYMR90~1\AppData\Local\Temp\ccxAEgth.s:28670  .debug_str:00000000000221ee .LASF3499
C:\Users\CYMR90~1\AppData\Local\Temp\ccxAEgth.s:24283  .debug_str:0000000000010942 .LASF3500
C:\Users\CYMR90~1\AppData\Local\Temp\ccxAEgth.s:21829  .debug_str:0000000000006b28 .LASF3501
C:\Users\CYMR90~1\AppData\Local\Temp\ccxAEgth.s:30978  .debug_str:000000000002b5da .LASF3502
C:\Users\CYMR90~1\AppData\Local\Temp\ccxAEgth.s:30804  .debug_str:000000000002aafd .LASF3503
C:\Users\CYMR90~1\AppData\Local\Temp\ccxAEgth.s:24731  .debug_str:00000000000126a9 .LASF3504
C:\Users\CYMR90~1\AppData\Local\Temp\ccxAEgth.s:20261  .debug_str:0000000000000980 .LASF3505
C:\Users\CYMR90~1\AppData\Local\Temp\ccxAEgth.s:29826  .debug_str:0000000000026c2c .LASF3506
C:\Users\CYMR90~1\AppData\Local\Temp\ccxAEgth.s:24063  .debug_str:000000000000fbc5 .LASF3507
C:\Users\CYMR90~1\AppData\Local\Temp\ccxAEgth.s:31280  .debug_str:000000000002c9b1 .LASF3508
C:\Users\CYMR90~1\AppData\Local\Temp\ccxAEgth.s:26348  .debug_str:0000000000018f3e .LASF3509
C:\Users\CYMR90~1\AppData\Local\Temp\ccxAEgth.s:30914  .debug_str:000000000002b156 .LASF3510
C:\Users\CYMR90~1\AppData\Local\Temp\ccxAEgth.s:26390  .debug_str:000000000001919f .LASF3511
C:\Users\CYMR90~1\AppData\Local\Temp\ccxAEgth.s:28654  .debug_str:000000000002211c .LASF3512
C:\Users\CYMR90~1\AppData\Local\Temp\ccxAEgth.s:25111  .debug_str:0000000000013ef4 .LASF3513
C:\Users\CYMR90~1\AppData\Local\Temp\ccxAEgth.s:23245  .debug_str:000000000000c8ac .LASF3514
C:\Users\CYMR90~1\AppData\Local\Temp\ccxAEgth.s:20875  .debug_str:0000000000002eeb .LASF3515
C:\Users\CYMR90~1\AppData\Local\Temp\ccxAEgth.s:26706  .debug_str:000000000001a74f .LASF3516
C:\Users\CYMR90~1\AppData\Local\Temp\ccxAEgth.s:27914  .debug_str:000000000001f3c8 .LASF3517
C:\Users\CYMR90~1\AppData\Local\Temp\ccxAEgth.s:30610  .debug_str:0000000000029f47 .LASF3518
C:\Users\CYMR90~1\AppData\Local\Temp\ccxAEgth.s:23637  .debug_str:000000000000e0d5 .LASF3519
C:\Users\CYMR90~1\AppData\Local\Temp\ccxAEgth.s:28718  .debug_str:00000000000224ab .LASF3520
C:\Users\CYMR90~1\AppData\Local\Temp\ccxAEgth.s:29394  .debug_str:0000000000024f44 .LASF3521
C:\Users\CYMR90~1\AppData\Local\Temp\ccxAEgth.s:27514  .debug_str:000000000001dbc9 .LASF3522
C:\Users\CYMR90~1\AppData\Local\Temp\ccxAEgth.s:27572  .debug_str:000000000001df78 .LASF3523
C:\Users\CYMR90~1\AppData\Local\Temp\ccxAEgth.s:26618  .debug_str:000000000001a01a .LASF3524
C:\Users\CYMR90~1\AppData\Local\Temp\ccxAEgth.s:20163  .debug_str:00000000000003f2 .LASF3525
C:\Users\CYMR90~1\AppData\Local\Temp\ccxAEgth.s:25968  .debug_str:00000000000176a1 .LASF3526
C:\Users\CYMR90~1\AppData\Local\Temp\ccxAEgth.s:29580  .debug_str:0000000000025d0d .LASF3527
C:\Users\CYMR90~1\AppData\Local\Temp\ccxAEgth.s:21411  .debug_str:00000000000051e3 .LASF3528
C:\Users\CYMR90~1\AppData\Local\Temp\ccxAEgth.s:20501  .debug_str:000000000000184a .LASF3529
C:\Users\CYMR90~1\AppData\Local\Temp\ccxAEgth.s:25515  .debug_str:00000000000157b9 .LASF3530
C:\Users\CYMR90~1\AppData\Local\Temp\ccxAEgth.s:23965  .debug_str:000000000000f55a .LASF3531
C:\Users\CYMR90~1\AppData\Local\Temp\ccxAEgth.s:22485  .debug_str:0000000000009623 .LASF3532
C:\Users\CYMR90~1\AppData\Local\Temp\ccxAEgth.s:27588  .debug_str:000000000001e063 .LASF3533
C:\Users\CYMR90~1\AppData\Local\Temp\ccxAEgth.s:20593  .debug_str:0000000000001dc3 .LASF3534
C:\Users\CYMR90~1\AppData\Local\Temp\ccxAEgth.s:27894  .debug_str:000000000001f2af .LASF3535
C:\Users\CYMR90~1\AppData\Local\Temp\ccxAEgth.s:22459  .debug_str:0000000000009497 .LASF3536
C:\Users\CYMR90~1\AppData\Local\Temp\ccxAEgth.s:26090  .debug_str:0000000000017e1c .LASF3537
C:\Users\CYMR90~1\AppData\Local\Temp\ccxAEgth.s:29684  .debug_str:000000000002639e .LASF3538
C:\Users\CYMR90~1\AppData\Local\Temp\ccxAEgth.s:23603  .debug_str:000000000000dec9 .LASF3539
C:\Users\CYMR90~1\AppData\Local\Temp\ccxAEgth.s:27650  .debug_str:000000000001e424 .LASF3540
C:\Users\CYMR90~1\AppData\Local\Temp\ccxAEgth.s:31176  .debug_str:000000000002c2b3 .LASF3541
C:\Users\CYMR90~1\AppData\Local\Temp\ccxAEgth.s:23913  .debug_str:000000000000f1ca .LASF3542
C:\Users\CYMR90~1\AppData\Local\Temp\ccxAEgth.s:27938  .debug_str:000000000001f535 .LASF3543
C:\Users\CYMR90~1\AppData\Local\Temp\ccxAEgth.s:21279  .debug_str:00000000000049e9 .LASF3544
C:\Users\CYMR90~1\AppData\Local\Temp\ccxAEgth.s:27832  .debug_str:000000000001eef3 .LASF3545
C:\Users\CYMR90~1\AppData\Local\Temp\ccxAEgth.s:23613  .debug_str:000000000000df69 .LASF3546
C:\Users\CYMR90~1\AppData\Local\Temp\ccxAEgth.s:30930  .debug_str:000000000002b298 .LASF3547
C:\Users\CYMR90~1\AppData\Local\Temp\ccxAEgth.s:28498  .debug_str:00000000000217a0 .LASF3548
C:\Users\CYMR90~1\AppData\Local\Temp\ccxAEgth.s:25860  .debug_str:0000000000017022 .LASF3549
C:\Users\CYMR90~1\AppData\Local\Temp\ccxAEgth.s:27384  .debug_str:000000000001d346 .LASF3550
C:\Users\CYMR90~1\AppData\Local\Temp\ccxAEgth.s:25910  .debug_str:00000000000172fd .LASF3551
C:\Users\CYMR90~1\AppData\Local\Temp\ccxAEgth.s:29412  .debug_str:00000000000250cc .LASF3552
C:\Users\CYMR90~1\AppData\Local\Temp\ccxAEgth.s:27538  .debug_str:000000000001dd89 .LASF3553
C:\Users\CYMR90~1\AppData\Local\Temp\ccxAEgth.s:28472  .debug_str:0000000000021631 .LASF3554
C:\Users\CYMR90~1\AppData\Local\Temp\ccxAEgth.s:24171  .debug_str:0000000000010292 .LASF3555
C:\Users\CYMR90~1\AppData\Local\Temp\ccxAEgth.s:25307  .debug_str:0000000000014b1f .LASF3556
C:\Users\CYMR90~1\AppData\Local\Temp\ccxAEgth.s:31300  .debug_str:000000000002cb27 .LASF3557
C:\Users\CYMR90~1\AppData\Local\Temp\ccxAEgth.s:23339  .debug_str:000000000000ce35 .LASF3558
C:\Users\CYMR90~1\AppData\Local\Temp\ccxAEgth.s:26142  .debug_str:0000000000018129 .LASF3559
C:\Users\CYMR90~1\AppData\Local\Temp\ccxAEgth.s:22489  .debug_str:0000000000009655 .LASF3560
C:\Users\CYMR90~1\AppData\Local\Temp\ccxAEgth.s:29682  .debug_str:0000000000026381 .LASF3561
C:\Users\CYMR90~1\AppData\Local\Temp\ccxAEgth.s:30748  .debug_str:000000000002a7b0 .LASF3562
C:\Users\CYMR90~1\AppData\Local\Temp\ccxAEgth.s:23039  .debug_str:000000000000ba8d .LASF3563
C:\Users\CYMR90~1\AppData\Local\Temp\ccxAEgth.s:30160  .debug_str:000000000002833a .LASF3564
C:\Users\CYMR90~1\AppData\Local\Temp\ccxAEgth.s:27042  .debug_str:000000000001bc1c .LASF3565
C:\Users\CYMR90~1\AppData\Local\Temp\ccxAEgth.s:30622  .debug_str:0000000000029fea .LASF3566
C:\Users\CYMR90~1\AppData\Local\Temp\ccxAEgth.s:20665  .debug_str:00000000000021b4 .LASF3567
C:\Users\CYMR90~1\AppData\Local\Temp\ccxAEgth.s:29740  .debug_str:000000000002673d .LASF3568
C:\Users\CYMR90~1\AppData\Local\Temp\ccxAEgth.s:26486  .debug_str:000000000001985b .LASF3569
C:\Users\CYMR90~1\AppData\Local\Temp\ccxAEgth.s:26408  .debug_str:00000000000192d3 .LASF3570
C:\Users\CYMR90~1\AppData\Local\Temp\ccxAEgth.s:26830  .debug_str:000000000001af34 .LASF3571
C:\Users\CYMR90~1\AppData\Local\Temp\ccxAEgth.s:20673  .debug_str:000000000000221e .LASF3572
C:\Users\CYMR90~1\AppData\Local\Temp\ccxAEgth.s:30082  .debug_str:0000000000027d34 .LASF3573
C:\Users\CYMR90~1\AppData\Local\Temp\ccxAEgth.s:27474  .debug_str:000000000001d90b .LASF3574
C:\Users\CYMR90~1\AppData\Local\Temp\ccxAEgth.s:29430  .debug_str:000000000002529d .LASF3575
C:\Users\CYMR90~1\AppData\Local\Temp\ccxAEgth.s:28720  .debug_str:00000000000224c7 .LASF3576
C:\Users\CYMR90~1\AppData\Local\Temp\ccxAEgth.s:26072  .debug_str:0000000000017d28 .LASF3577
C:\Users\CYMR90~1\AppData\Local\Temp\ccxAEgth.s:31128  .debug_str:000000000002bfc6 .LASF3578
C:\Users\CYMR90~1\AppData\Local\Temp\ccxAEgth.s:30870  .debug_str:000000000002aee8 .LASF3579
C:\Users\CYMR90~1\AppData\Local\Temp\ccxAEgth.s:20221  .debug_str:0000000000000728 .LASF3580
C:\Users\CYMR90~1\AppData\Local\Temp\ccxAEgth.s:23831  .debug_str:000000000000ec8d .LASF3581
C:\Users\CYMR90~1\AppData\Local\Temp\ccxAEgth.s:25215  .debug_str:000000000001459a .LASF3582
C:\Users\CYMR90~1\AppData\Local\Temp\ccxAEgth.s:29036  .debug_str:00000000000237eb .LASF3583
C:\Users\CYMR90~1\AppData\Local\Temp\ccxAEgth.s:26664  .debug_str:000000000001a435 .LASF3584
C:\Users\CYMR90~1\AppData\Local\Temp\ccxAEgth.s:25804  .debug_str:0000000000016d09 .LASF3585
C:\Users\CYMR90~1\AppData\Local\Temp\ccxAEgth.s:26254  .debug_str:00000000000187fa .LASF3586
C:\Users\CYMR90~1\AppData\Local\Temp\ccxAEgth.s:30694  .debug_str:000000000002a428 .LASF3587
C:\Users\CYMR90~1\AppData\Local\Temp\ccxAEgth.s:23389  .debug_str:000000000000d189 .LASF3588
C:\Users\CYMR90~1\AppData\Local\Temp\ccxAEgth.s:20327  .debug_str:0000000000000d9b .LASF3589
C:\Users\CYMR90~1\AppData\Local\Temp\ccxAEgth.s:25191  .debug_str:00000000000143d9 .LASF3590
C:\Users\CYMR90~1\AppData\Local\Temp\ccxAEgth.s:25281  .debug_str:000000000001498f .LASF3591
C:\Users\CYMR90~1\AppData\Local\Temp\ccxAEgth.s:27618  .debug_str:000000000001e22a .LASF3592
C:\Users\CYMR90~1\AppData\Local\Temp\ccxAEgth.s:30492  .debug_str:0000000000029891 .LASF3593
C:\Users\CYMR90~1\AppData\Local\Temp\ccxAEgth.s:20807  .debug_str:0000000000002aea .LASF3594
C:\Users\CYMR90~1\AppData\Local\Temp\ccxAEgth.s:27814  .debug_str:000000000001ed9b .LASF3595
C:\Users\CYMR90~1\AppData\Local\Temp\ccxAEgth.s:22613  .debug_str:0000000000009e5b .LASF3596
C:\Users\CYMR90~1\AppData\Local\Temp\ccxAEgth.s:20929  .debug_str:0000000000003285 .LASF3597
C:\Users\CYMR90~1\AppData\Local\Temp\ccxAEgth.s:22857  .debug_str:000000000000aeef .LASF3598
C:\Users\CYMR90~1\AppData\Local\Temp\ccxAEgth.s:21795  .debug_str:00000000000068ea .LASF3599
C:\Users\CYMR90~1\AppData\Local\Temp\ccxAEgth.s:29352  .debug_str:0000000000024c93 .LASF3600
C:\Users\CYMR90~1\AppData\Local\Temp\ccxAEgth.s:26726  .debug_str:000000000001a884 .LASF3601
C:\Users\CYMR90~1\AppData\Local\Temp\ccxAEgth.s:26588  .debug_str:0000000000019e71 .LASF3602
C:\Users\CYMR90~1\AppData\Local\Temp\ccxAEgth.s:21753  .debug_str:000000000000665e .LASF3603
C:\Users\CYMR90~1\AppData\Local\Temp\ccxAEgth.s:23709  .debug_str:000000000000e569 .LASF3604
C:\Users\CYMR90~1\AppData\Local\Temp\ccxAEgth.s:23551  .debug_str:000000000000db99 .LASF3605
C:\Users\CYMR90~1\AppData\Local\Temp\ccxAEgth.s:22183  .debug_str:000000000000833f .LASF3606
C:\Users\CYMR90~1\AppData\Local\Temp\ccxAEgth.s:22373  .debug_str:0000000000008f21 .LASF3607
C:\Users\CYMR90~1\AppData\Local\Temp\ccxAEgth.s:22957  .debug_str:000000000000b534 .LASF3608
C:\Users\CYMR90~1\AppData\Local\Temp\ccxAEgth.s:20955  .debug_str:000000000000342e .LASF3609
C:\Users\CYMR90~1\AppData\Local\Temp\ccxAEgth.s:22303  .debug_str:0000000000008aa8 .LASF3610
C:\Users\CYMR90~1\AppData\Local\Temp\ccxAEgth.s:20145  .debug_str:00000000000002d7 .LASF3611
C:\Users\CYMR90~1\AppData\Local\Temp\ccxAEgth.s:25854  .debug_str:0000000000016fea .LASF3612
C:\Users\CYMR90~1\AppData\Local\Temp\ccxAEgth.s:23113  .debug_str:000000000000bfff .LASF3613
C:\Users\CYMR90~1\AppData\Local\Temp\ccxAEgth.s:28974  .debug_str:00000000000233da .LASF3614
C:\Users\CYMR90~1\AppData\Local\Temp\ccxAEgth.s:31048  .debug_str:000000000002ba47 .LASF3615
C:\Users\CYMR90~1\AppData\Local\Temp\ccxAEgth.s:24665  .debug_str:0000000000012268 .LASF3616
C:\Users\CYMR90~1\AppData\Local\Temp\ccxAEgth.s:24521  .debug_str:000000000001195a .LASF3617
C:\Users\CYMR90~1\AppData\Local\Temp\ccxAEgth.s:26844  .debug_str:000000000001b046 .LASF3618
C:\Users\CYMR90~1\AppData\Local\Temp\ccxAEgth.s:28986  .debug_str:00000000000234ca .LASF3619
C:\Users\CYMR90~1\AppData\Local\Temp\ccxAEgth.s:30424  .debug_str:000000000002944b .LASF3620
C:\Users\CYMR90~1\AppData\Local\Temp\ccxAEgth.s:26502  .debug_str:000000000001994b .LASF3621
C:\Users\CYMR90~1\AppData\Local\Temp\ccxAEgth.s:27798  .debug_str:000000000001ec81 .LASF3622
C:\Users\CYMR90~1\AppData\Local\Temp\ccxAEgth.s:28910  .debug_str:0000000000022ffa .LASF3623
C:\Users\CYMR90~1\AppData\Local\Temp\ccxAEgth.s:29768  .debug_str:00000000000268ec .LASF3624
C:\Users\CYMR90~1\AppData\Local\Temp\ccxAEgth.s:20319  .debug_str:0000000000000d37 .LASF3625
C:\Users\CYMR90~1\AppData\Local\Temp\ccxAEgth.s:23777  .debug_str:000000000000e9b5 .LASF3626
C:\Users\CYMR90~1\AppData\Local\Temp\ccxAEgth.s:31124  .debug_str:000000000002bf95 .LASF3627
C:\Users\CYMR90~1\AppData\Local\Temp\ccxAEgth.s:29908  .debug_str:0000000000027131 .LASF3628
C:\Users\CYMR90~1\AppData\Local\Temp\ccxAEgth.s:20793  .debug_str:00000000000029ba .LASF3629
C:\Users\CYMR90~1\AppData\Local\Temp\ccxAEgth.s:20475  .debug_str:000000000000168b .LASF3630
C:\Users\CYMR90~1\AppData\Local\Temp\ccxAEgth.s:21911  .debug_str:00000000000070cc .LASF3631
C:\Users\CYMR90~1\AppData\Local\Temp\ccxAEgth.s:23311  .debug_str:000000000000cc34 .LASF3632
C:\Users\CYMR90~1\AppData\Local\Temp\ccxAEgth.s:21657  .debug_str:0000000000006080 .LASF3633
C:\Users\CYMR90~1\AppData\Local\Temp\ccxAEgth.s:28360  .debug_str:0000000000020eea .LASF3634
C:\Users\CYMR90~1\AppData\Local\Temp\ccxAEgth.s:28626  .debug_str:0000000000021f4b .LASF3635
C:\Users\CYMR90~1\AppData\Local\Temp\ccxAEgth.s:22467  .debug_str:0000000000009518 .LASF3636
C:\Users\CYMR90~1\AppData\Local\Temp\ccxAEgth.s:29032  .debug_str:00000000000237bd .LASF3637
C:\Users\CYMR90~1\AppData\Local\Temp\ccxAEgth.s:31248  .debug_str:000000000002c783 .LASF3638
C:\Users\CYMR90~1\AppData\Local\Temp\ccxAEgth.s:24105  .debug_str:000000000000fe8e .LASF3639
C:\Users\CYMR90~1\AppData\Local\Temp\ccxAEgth.s:23601  .debug_str:000000000000deb0 .LASF3640
C:\Users\CYMR90~1\AppData\Local\Temp\ccxAEgth.s:27742  .debug_str:000000000001e993 .LASF3641
C:\Users\CYMR90~1\AppData\Local\Temp\ccxAEgth.s:21243  .debug_str:0000000000004734 .LASF3642
C:\Users\CYMR90~1\AppData\Local\Temp\ccxAEgth.s:20545  .debug_str:0000000000001ad8 .LASF3643
C:\Users\CYMR90~1\AppData\Local\Temp\ccxAEgth.s:22551  .debug_str:0000000000009a94 .LASF3644
C:\Users\CYMR90~1\AppData\Local\Temp\ccxAEgth.s:28886  .debug_str:0000000000022ee7 .LASF3645
C:\Users\CYMR90~1\AppData\Local\Temp\ccxAEgth.s:24553  .debug_str:0000000000011b57 .LASF3646
C:\Users\CYMR90~1\AppData\Local\Temp\ccxAEgth.s:25091  .debug_str:0000000000013dd6 .LASF3647
C:\Users\CYMR90~1\AppData\Local\Temp\ccxAEgth.s:22431  .debug_str:000000000000928f .LASF3648
C:\Users\CYMR90~1\AppData\Local\Temp\ccxAEgth.s:26744  .debug_str:000000000001a9ab .LASF3649
C:\Users\CYMR90~1\AppData\Local\Temp\ccxAEgth.s:26330  .debug_str:0000000000018d44 .LASF3650
C:\Users\CYMR90~1\AppData\Local\Temp\ccxAEgth.s:30280  .debug_str:0000000000028b30 .LASF3651
C:\Users\CYMR90~1\AppData\Local\Temp\ccxAEgth.s:26012  .debug_str:0000000000017981 .LASF3652
C:\Users\CYMR90~1\AppData\Local\Temp\ccxAEgth.s:30200  .debug_str:00000000000285da .LASF3653
C:\Users\CYMR90~1\AppData\Local\Temp\ccxAEgth.s:23611  .debug_str:000000000000df4a .LASF3654
C:\Users\CYMR90~1\AppData\Local\Temp\ccxAEgth.s:22099  .debug_str:0000000000007d2d .LASF3655
C:\Users\CYMR90~1\AppData\Local\Temp\ccxAEgth.s:31184  .debug_str:000000000002c365 .LASF3656
C:\Users\CYMR90~1\AppData\Local\Temp\ccxAEgth.s:25405  .debug_str:0000000000015185 .LASF3657
C:\Users\CYMR90~1\AppData\Local\Temp\ccxAEgth.s:27118  .debug_str:000000000001c0c9 .LASF3658
C:\Users\CYMR90~1\AppData\Local\Temp\ccxAEgth.s:26560  .debug_str:0000000000019cbb .LASF3659
C:\Users\CYMR90~1\AppData\Local\Temp\ccxAEgth.s:29176  .debug_str:00000000000240cf .LASF3660
C:\Users\CYMR90~1\AppData\Local\Temp\ccxAEgth.s:28410  .debug_str:0000000000021250 .LASF3661
C:\Users\CYMR90~1\AppData\Local\Temp\ccxAEgth.s:22987  .debug_str:000000000000b73b .LASF3662
C:\Users\CYMR90~1\AppData\Local\Temp\ccxAEgth.s:26610  .debug_str:0000000000019faa .LASF3663
C:\Users\CYMR90~1\AppData\Local\Temp\ccxAEgth.s:20113  .debug_str:00000000000000dc .LASF3664
C:\Users\CYMR90~1\AppData\Local\Temp\ccxAEgth.s:24515  .debug_str:0000000000011865 .LASF3665
C:\Users\CYMR90~1\AppData\Local\Temp\ccxAEgth.s:28450  .debug_str:00000000000214b7 .LASF3666
C:\Users\CYMR90~1\AppData\Local\Temp\ccxAEgth.s:28716  .debug_str:0000000000022486 .LASF3667
C:\Users\CYMR90~1\AppData\Local\Temp\ccxAEgth.s:25589  .debug_str:0000000000015cb6 .LASF3668
C:\Users\CYMR90~1\AppData\Local\Temp\ccxAEgth.s:30554  .debug_str:0000000000029c10 .LASF3669
C:\Users\CYMR90~1\AppData\Local\Temp\ccxAEgth.s:23215  .debug_str:000000000000c632 .LASF3670
C:\Users\CYMR90~1\AppData\Local\Temp\ccxAEgth.s:24695  .debug_str:000000000001245f .LASF3671
C:\Users\CYMR90~1\AppData\Local\Temp\ccxAEgth.s:29010  .debug_str:0000000000023663 .LASF3672
C:\Users\CYMR90~1\AppData\Local\Temp\ccxAEgth.s:29446  .debug_str:000000000002538e .LASF3673
C:\Users\CYMR90~1\AppData\Local\Temp\ccxAEgth.s:24555  .debug_str:0000000000011b6c .LASF3674
C:\Users\CYMR90~1\AppData\Local\Temp\ccxAEgth.s:24915  .debug_str:000000000001333c .LASF3675
C:\Users\CYMR90~1\AppData\Local\Temp\ccxAEgth.s:20569  .debug_str:0000000000001c28 .LASF3676
C:\Users\CYMR90~1\AppData\Local\Temp\ccxAEgth.s:21879  .debug_str:0000000000006e5b .LASF3677
C:\Users\CYMR90~1\AppData\Local\Temp\ccxAEgth.s:31004  .debug_str:000000000002b745 .LASF3678
C:\Users\CYMR90~1\AppData\Local\Temp\ccxAEgth.s:25619  .debug_str:0000000000015eef .LASF3679
C:\Users\CYMR90~1\AppData\Local\Temp\ccxAEgth.s:26420  .debug_str:000000000001938c .LASF3680
C:\Users\CYMR90~1\AppData\Local\Temp\ccxAEgth.s:23111  .debug_str:000000000000bfda .LASF3681
C:\Users\CYMR90~1\AppData\Local\Temp\ccxAEgth.s:24761  .debug_str:00000000000128b2 .LASF3682
C:\Users\CYMR90~1\AppData\Local\Temp\ccxAEgth.s:20345  .debug_str:0000000000000f16 .LASF3683
C:\Users\CYMR90~1\AppData\Local\Temp\ccxAEgth.s:26690  .debug_str:000000000001a5f2 .LASF3684
C:\Users\CYMR90~1\AppData\Local\Temp\ccxAEgth.s:21159  .debug_str:000000000000418d .LASF3685
C:\Users\CYMR90~1\AppData\Local\Temp\ccxAEgth.s:26932  .debug_str:000000000001b595 .LASF3686
C:\Users\CYMR90~1\AppData\Local\Temp\ccxAEgth.s:21433  .debug_str:000000000000532b .LASF3687
C:\Users\CYMR90~1\AppData\Local\Temp\ccxAEgth.s:22535  .debug_str:000000000000997f .LASF3688
C:\Users\CYMR90~1\AppData\Local\Temp\ccxAEgth.s:21701  .debug_str:000000000000631a .LASF3689
C:\Users\CYMR90~1\AppData\Local\Temp\ccxAEgth.s:27434  .debug_str:000000000001d670 .LASF3690
C:\Users\CYMR90~1\AppData\Local\Temp\ccxAEgth.s:29932  .debug_str:000000000002738a .LASF3691
C:\Users\CYMR90~1\AppData\Local\Temp\ccxAEgth.s:28648  .debug_str:00000000000220a4 .LASF3692
C:\Users\CYMR90~1\AppData\Local\Temp\ccxAEgth.s:21737  .debug_str:000000000000652c .LASF3693
C:\Users\CYMR90~1\AppData\Local\Temp\ccxAEgth.s:30564  .debug_str:0000000000029cbd .LASF3694
C:\Users\CYMR90~1\AppData\Local\Temp\ccxAEgth.s:27890  .debug_str:000000000001f275 .LASF3695
C:\Users\CYMR90~1\AppData\Local\Temp\ccxAEgth.s:23803  .debug_str:000000000000eb20 .LASF3696
C:\Users\CYMR90~1\AppData\Local\Temp\ccxAEgth.s:22809  .debug_str:000000000000ab2c .LASF3697
C:\Users\CYMR90~1\AppData\Local\Temp\ccxAEgth.s:20203  .debug_str:0000000000000609 .LASF3698
C:\Users\CYMR90~1\AppData\Local\Temp\ccxAEgth.s:24049  .debug_str:000000000000faeb .LASF3699
C:\Users\CYMR90~1\AppData\Local\Temp\ccxAEgth.s:22995  .debug_str:000000000000b7b2 .LASF3700
C:\Users\CYMR90~1\AppData\Local\Temp\ccxAEgth.s:23757  .debug_str:000000000000e87f .LASF3701
C:\Users\CYMR90~1\AppData\Local\Temp\ccxAEgth.s:21917  .debug_str:0000000000007135 .LASF3702
C:\Users\CYMR90~1\AppData\Local\Temp\ccxAEgth.s:29998  .debug_str:0000000000027750 .LASF3703
C:\Users\CYMR90~1\AppData\Local\Temp\ccxAEgth.s:27356  .debug_str:000000000001d16d .LASF3704
C:\Users\CYMR90~1\AppData\Local\Temp\ccxAEgth.s:24859  .debug_str:0000000000012f13 .LASF3705
C:\Users\CYMR90~1\AppData\Local\Temp\ccxAEgth.s:26946  .debug_str:000000000001b675 .LASF3706
C:\Users\CYMR90~1\AppData\Local\Temp\ccxAEgth.s:30966  .debug_str:000000000002b4f1 .LASF3707
C:\Users\CYMR90~1\AppData\Local\Temp\ccxAEgth.s:24189  .debug_str:0000000000010396 .LASF3708
C:\Users\CYMR90~1\AppData\Local\Temp\ccxAEgth.s:30228  .debug_str:00000000000287fc .LASF3709
C:\Users\CYMR90~1\AppData\Local\Temp\ccxAEgth.s:23195  .debug_str:000000000000c4fd .LASF3710
C:\Users\CYMR90~1\AppData\Local\Temp\ccxAEgth.s:20649  .debug_str:00000000000020a1 .LASF3711
C:\Users\CYMR90~1\AppData\Local\Temp\ccxAEgth.s:24167  .debug_str:0000000000010254 .LASF3712
C:\Users\CYMR90~1\AppData\Local\Temp\ccxAEgth.s:24087  .debug_str:000000000000fd5e .LASF3713
C:\Users\CYMR90~1\AppData\Local\Temp\ccxAEgth.s:24303  .debug_str:0000000000010ab0 .LASF3714
C:\Users\CYMR90~1\AppData\Local\Temp\ccxAEgth.s:28628  .debug_str:0000000000021f63 .LASF3715
C:\Users\CYMR90~1\AppData\Local\Temp\ccxAEgth.s:24977  .debug_str:0000000000013702 .LASF3716
C:\Users\CYMR90~1\AppData\Local\Temp\ccxAEgth.s:22089  .debug_str:0000000000007c98 .LASF3717
C:\Users\CYMR90~1\AppData\Local\Temp\ccxAEgth.s:28862  .debug_str:0000000000022d76 .LASF3718
C:\Users\CYMR90~1\AppData\Local\Temp\ccxAEgth.s:31006  .debug_str:000000000002b769 .LASF3719
C:\Users\CYMR90~1\AppData\Local\Temp\ccxAEgth.s:30538  .debug_str:0000000000029b1a .LASF3720
C:\Users\CYMR90~1\AppData\Local\Temp\ccxAEgth.s:27032  .debug_str:000000000001bb54 .LASF3721
C:\Users\CYMR90~1\AppData\Local\Temp\ccxAEgth.s:21883  .debug_str:0000000000006e9d .LASF3722
C:\Users\CYMR90~1\AppData\Local\Temp\ccxAEgth.s:21479  .debug_str:00000000000055da .LASF3723
C:\Users\CYMR90~1\AppData\Local\Temp\ccxAEgth.s:21973  .debug_str:0000000000007470 .LASF3724
C:\Users\CYMR90~1\AppData\Local\Temp\ccxAEgth.s:20947  .debug_str:00000000000033b3 .LASF3725
C:\Users\CYMR90~1\AppData\Local\Temp\ccxAEgth.s:29258  .debug_str:0000000000024644 .LASF3726
C:\Users\CYMR90~1\AppData\Local\Temp\ccxAEgth.s:24115  .debug_str:000000000000ff08 .LASF3727
C:\Users\CYMR90~1\AppData\Local\Temp\ccxAEgth.s:22277  .debug_str:0000000000008920 .LASF3728
C:\Users\CYMR90~1\AppData\Local\Temp\ccxAEgth.s:22383  .debug_str:0000000000008fd4 .LASF3729
C:\Users\CYMR90~1\AppData\Local\Temp\ccxAEgth.s:28518  .debug_str:00000000000218ab .LASF3730
C:\Users\CYMR90~1\AppData\Local\Temp\ccxAEgth.s:30472  .debug_str:0000000000029753 .LASF3731
C:\Users\CYMR90~1\AppData\Local\Temp\ccxAEgth.s:31336  .debug_str:000000000002cdb1 .LASF3732
C:\Users\CYMR90~1\AppData\Local\Temp\ccxAEgth.s:30366  .debug_str:000000000002903b .LASF3733
C:\Users\CYMR90~1\AppData\Local\Temp\ccxAEgth.s:20235  .debug_str:00000000000007fb .LASF3734
C:\Users\CYMR90~1\AppData\Local\Temp\ccxAEgth.s:28808  .debug_str:0000000000022a71 .LASF3735
C:\Users\CYMR90~1\AppData\Local\Temp\ccxAEgth.s:25806  .debug_str:0000000000016d21 .LASF3736
C:\Users\CYMR90~1\AppData\Local\Temp\ccxAEgth.s:22817  .debug_str:000000000000aba0 .LASF3737
C:\Users\CYMR90~1\AppData\Local\Temp\ccxAEgth.s:23371  .debug_str:000000000000d04d .LASF3738
C:\Users\CYMR90~1\AppData\Local\Temp\ccxAEgth.s:21869  .debug_str:0000000000006dac .LASF3739
C:\Users\CYMR90~1\AppData\Local\Temp\ccxAEgth.s:25423  .debug_str:000000000001526a .LASF3740
C:\Users\CYMR90~1\AppData\Local\Temp\ccxAEgth.s:23241  .debug_str:000000000000c87c .LASF3741
C:\Users\CYMR90~1\AppData\Local\Temp\ccxAEgth.s:28882  .debug_str:0000000000022ea8 .LASF3742
C:\Users\CYMR90~1\AppData\Local\Temp\ccxAEgth.s:26842  .debug_str:000000000001b003 .LASF3743
C:\Users\CYMR90~1\AppData\Local\Temp\ccxAEgth.s:28816  .debug_str:0000000000022af1 .LASF3744
C:\Users\CYMR90~1\AppData\Local\Temp\ccxAEgth.s:29964  .debug_str:0000000000027566 .LASF3745
C:\Users\CYMR90~1\AppData\Local\Temp\ccxAEgth.s:23675  .debug_str:000000000000e319 .LASF3746
C:\Users\CYMR90~1\AppData\Local\Temp\ccxAEgth.s:27862  .debug_str:000000000001f091 .LASF3747
C:\Users\CYMR90~1\AppData\Local\Temp\ccxAEgth.s:22873  .debug_str:000000000000afe4 .LASF3748
C:\Users\CYMR90~1\AppData\Local\Temp\ccxAEgth.s:25137  .debug_str:00000000000140f2 .LASF3749
C:\Users\CYMR90~1\AppData\Local\Temp\ccxAEgth.s:26088  .debug_str:0000000000017dfa .LASF3750
C:\Users\CYMR90~1\AppData\Local\Temp\ccxAEgth.s:29822  .debug_str:0000000000026bf9 .LASF3751
C:\Users\CYMR90~1\AppData\Local\Temp\ccxAEgth.s:22659  .debug_str:000000000000a12b .LASF3752
C:\Users\CYMR90~1\AppData\Local\Temp\ccxAEgth.s:21401  .debug_str:0000000000005137 .LASF3753
C:\Users\CYMR90~1\AppData\Local\Temp\ccxAEgth.s:26388  .debug_str:000000000001917d .LASF3754
C:\Users\CYMR90~1\AppData\Local\Temp\ccxAEgth.s:22917  .debug_str:000000000000b25e .LASF3755
C:\Users\CYMR90~1\AppData\Local\Temp\ccxAEgth.s:23645  .debug_str:000000000000e159 .LASF3756
C:\Users\CYMR90~1\AppData\Local\Temp\ccxAEgth.s:31104  .debug_str:000000000002be06 .LASF3757
C:\Users\CYMR90~1\AppData\Local\Temp\ccxAEgth.s:30952  .debug_str:000000000002b40a .LASF3758
C:\Users\CYMR90~1\AppData\Local\Temp\ccxAEgth.s:23509  .debug_str:000000000000d934 .LASF3759
C:\Users\CYMR90~1\AppData\Local\Temp\ccxAEgth.s:21487  .debug_str:0000000000005649 .LASF3760
C:\Users\CYMR90~1\AppData\Local\Temp\ccxAEgth.s:30592  .debug_str:0000000000029e54 .LASF3761
C:\Users\CYMR90~1\AppData\Local\Temp\ccxAEgth.s:28320  .debug_str:0000000000020cbd .LASF3762
C:\Users\CYMR90~1\AppData\Local\Temp\ccxAEgth.s:21491  .debug_str:00000000000056a9 .LASF3763
C:\Users\CYMR90~1\AppData\Local\Temp\ccxAEgth.s:23865  .debug_str:000000000000ee7c .LASF3764
C:\Users\CYMR90~1\AppData\Local\Temp\ccxAEgth.s:21583  .debug_str:0000000000005bef .LASF3765
C:\Users\CYMR90~1\AppData\Local\Temp\ccxAEgth.s:25023  .debug_str:00000000000139ce .LASF3766
C:\Users\CYMR90~1\AppData\Local\Temp\ccxAEgth.s:28510  .debug_str:0000000000021831 .LASF3767
C:\Users\CYMR90~1\AppData\Local\Temp\ccxAEgth.s:29628  .debug_str:0000000000026032 .LASF3768
C:\Users\CYMR90~1\AppData\Local\Temp\ccxAEgth.s:21313  .debug_str:0000000000004bff .LASF3769
C:\Users\CYMR90~1\AppData\Local\Temp\ccxAEgth.s:29096  .debug_str:0000000000023b54 .LASF3770
C:\Users\CYMR90~1\AppData\Local\Temp\ccxAEgth.s:28240  .debug_str:00000000000207fb .LASF3771
C:\Users\CYMR90~1\AppData\Local\Temp\ccxAEgth.s:30746  .debug_str:000000000002a78c .LASF3772
C:\Users\CYMR90~1\AppData\Local\Temp\ccxAEgth.s:23779  .debug_str:000000000000e9cd .LASF3773
C:\Users\CYMR90~1\AppData\Local\Temp\ccxAEgth.s:21499  .debug_str:00000000000056ff .LASF3774
C:\Users\CYMR90~1\AppData\Local\Temp\ccxAEgth.s:23147  .debug_str:000000000000c201 .LASF3775
C:\Users\CYMR90~1\AppData\Local\Temp\ccxAEgth.s:28332  .debug_str:0000000000020d5f .LASF3776
C:\Users\CYMR90~1\AppData\Local\Temp\ccxAEgth.s:26192  .debug_str:0000000000018411 .LASF3777
C:\Users\CYMR90~1\AppData\Local\Temp\ccxAEgth.s:27274  .debug_str:000000000001cb4b .LASF3778
C:\Users\CYMR90~1\AppData\Local\Temp\ccxAEgth.s:30340  .debug_str:0000000000028eb0 .LASF3779
C:\Users\CYMR90~1\AppData\Local\Temp\ccxAEgth.s:28152  .debug_str:0000000000020225 .LASF3780
C:\Users\CYMR90~1\AppData\Local\Temp\ccxAEgth.s:31274  .debug_str:000000000002c95e .LASF3781
C:\Users\CYMR90~1\AppData\Local\Temp\ccxAEgth.s:20987  .debug_str:0000000000003631 .LASF3782
C:\Users\CYMR90~1\AppData\Local\Temp\ccxAEgth.s:29428  .debug_str:0000000000025273 .LASF3783
C:\Users\CYMR90~1\AppData\Local\Temp\ccxAEgth.s:20363  .debug_str:0000000000000ff8 .LASF3784
C:\Users\CYMR90~1\AppData\Local\Temp\ccxAEgth.s:27438  .debug_str:000000000001d6b7 .LASF3785
C:\Users\CYMR90~1\AppData\Local\Temp\ccxAEgth.s:24893  .debug_str:0000000000013123 .LASF3786
C:\Users\CYMR90~1\AppData\Local\Temp\ccxAEgth.s:31362  .debug_str:000000000002cf2c .LASF3787
C:\Users\CYMR90~1\AppData\Local\Temp\ccxAEgth.s:20781  .debug_str:0000000000002905 .LASF3788
C:\Users\CYMR90~1\AppData\Local\Temp\ccxAEgth.s:29880  .debug_str:0000000000026fa0 .LASF3789
C:\Users\CYMR90~1\AppData\Local\Temp\ccxAEgth.s:24747  .debug_str:00000000000127ae .LASF3790
C:\Users\CYMR90~1\AppData\Local\Temp\ccxAEgth.s:28144  .debug_str:000000000002016b .LASF3791
C:\Users\CYMR90~1\AppData\Local\Temp\ccxAEgth.s:28284  .debug_str:0000000000020aa4 .LASF3792
C:\Users\CYMR90~1\AppData\Local\Temp\ccxAEgth.s:20317  .debug_str:0000000000000d15 .LASF3793
C:\Users\CYMR90~1\AppData\Local\Temp\ccxAEgth.s:27500  .debug_str:000000000001da79 .LASF3794
C:\Users\CYMR90~1\AppData\Local\Temp\ccxAEgth.s:20419  .debug_str:0000000000001325 .LASF3795
C:\Users\CYMR90~1\AppData\Local\Temp\ccxAEgth.s:30130  .debug_str:000000000002807f .LASF3796
C:\Users\CYMR90~1\AppData\Local\Temp\ccxAEgth.s:24651  .debug_str:000000000001215b .LASF3797
C:\Users\CYMR90~1\AppData\Local\Temp\ccxAEgth.s:27638  .debug_str:000000000001e345 .LASF3798
C:\Users\CYMR90~1\AppData\Local\Temp\ccxAEgth.s:26558  .debug_str:0000000000019c8b .LASF3799
C:\Users\CYMR90~1\AppData\Local\Temp\ccxAEgth.s:25315  .debug_str:0000000000014bc0 .LASF3800
C:\Users\CYMR90~1\AppData\Local\Temp\ccxAEgth.s:24137  .debug_str:0000000000010093 .LASF3801
C:\Users\CYMR90~1\AppData\Local\Temp\ccxAEgth.s:30994  .debug_str:000000000002b69a .LASF3802
C:\Users\CYMR90~1\AppData\Local\Temp\ccxAEgth.s:29340  .debug_str:0000000000024bb8 .LASF3803
C:\Users\CYMR90~1\AppData\Local\Temp\ccxAEgth.s:20531  .debug_str:00000000000019d0 .LASF3804
C:\Users\CYMR90~1\AppData\Local\Temp\ccxAEgth.s:30118  .debug_str:0000000000027f5b .LASF3805
C:\Users\CYMR90~1\AppData\Local\Temp\ccxAEgth.s:30358  .debug_str:0000000000028fa2 .LASF3806
C:\Users\CYMR90~1\AppData\Local\Temp\ccxAEgth.s:23329  .debug_str:000000000000cd6d .LASF3807
C:\Users\CYMR90~1\AppData\Local\Temp\ccxAEgth.s:31222  .debug_str:000000000002c5fc .LASF3808
C:\Users\CYMR90~1\AppData\Local\Temp\ccxAEgth.s:22763  .debug_str:000000000000a845 .LASF3809
C:\Users\CYMR90~1\AppData\Local\Temp\ccxAEgth.s:29356  .debug_str:0000000000024ccd .LASF3810
C:\Users\CYMR90~1\AppData\Local\Temp\ccxAEgth.s:22617  .debug_str:0000000000009e88 .LASF3811
C:\Users\CYMR90~1\AppData\Local\Temp\ccxAEgth.s:28394  .debug_str:00000000000210c1 .LASF3812
C:\Users\CYMR90~1\AppData\Local\Temp\ccxAEgth.s:25539  .debug_str:0000000000015928 .LASF3813
C:\Users\CYMR90~1\AppData\Local\Temp\ccxAEgth.s:26578  .debug_str:0000000000019dc6 .LASF3814
C:\Users\CYMR90~1\AppData\Local\Temp\ccxAEgth.s:23429  .debug_str:000000000000d474 .LASF3815
C:\Users\CYMR90~1\AppData\Local\Temp\ccxAEgth.s:21537  .debug_str:0000000000005931 .LASF3816
C:\Users\CYMR90~1\AppData\Local\Temp\ccxAEgth.s:30038  .debug_str:00000000000279ce .LASF3817
C:\Users\CYMR90~1\AppData\Local\Temp\ccxAEgth.s:23907  .debug_str:000000000000f15c .LASF3818
C:\Users\CYMR90~1\AppData\Local\Temp\ccxAEgth.s:23107  .debug_str:000000000000bf78 .LASF3819
C:\Users\CYMR90~1\AppData\Local\Temp\ccxAEgth.s:28990  .debug_str:00000000000234ff .LASF3820
C:\Users\CYMR90~1\AppData\Local\Temp\ccxAEgth.s:20265  .debug_str:00000000000009cb .LASF3821
C:\Users\CYMR90~1\AppData\Local\Temp\ccxAEgth.s:24551  .debug_str:0000000000011b25 .LASF3822
C:\Users\CYMR90~1\AppData\Local\Temp\ccxAEgth.s:28812  .debug_str:0000000000022aad .LASF3823
C:\Users\CYMR90~1\AppData\Local\Temp\ccxAEgth.s:21683  .debug_str:00000000000061f2 .LASF3824
C:\Users\CYMR90~1\AppData\Local\Temp\ccxAEgth.s:23033  .debug_str:000000000000ba32 .LASF3825
C:\Users\CYMR90~1\AppData\Local\Temp\ccxAEgth.s:24127  .debug_str:000000000000ffea .LASF3826
C:\Users\CYMR90~1\AppData\Local\Temp\ccxAEgth.s:28370  .debug_str:0000000000020f57 .LASF3827
C:\Users\CYMR90~1\AppData\Local\Temp\ccxAEgth.s:21323  .debug_str:0000000000004ca9 .LASF3828
C:\Users\CYMR90~1\AppData\Local\Temp\ccxAEgth.s:25521  .debug_str:0000000000015801 .LASF3829
C:\Users\CYMR90~1\AppData\Local\Temp\ccxAEgth.s:29840  .debug_str:0000000000026d09 .LASF3830
C:\Users\CYMR90~1\AppData\Local\Temp\ccxAEgth.s:22805  .debug_str:000000000000aae0 .LASF3831
C:\Users\CYMR90~1\AppData\Local\Temp\ccxAEgth.s:25113  .debug_str:0000000000013f0f .LASF3832
C:\Users\CYMR90~1\AppData\Local\Temp\ccxAEgth.s:27528  .debug_str:000000000001dcba .LASF3833
C:\Users\CYMR90~1\AppData\Local\Temp\ccxAEgth.s:23307  .debug_str:000000000000cbe6 .LASF3834
C:\Users\CYMR90~1\AppData\Local\Temp\ccxAEgth.s:28556  .debug_str:0000000000021b30 .LASF3835
C:\Users\CYMR90~1\AppData\Local\Temp\ccxAEgth.s:21533  .debug_str:00000000000058d9 .LASF3836
C:\Users\CYMR90~1\AppData\Local\Temp\ccxAEgth.s:30950  .debug_str:000000000002b3d8 .LASF3837
C:\Users\CYMR90~1\AppData\Local\Temp\ccxAEgth.s:23901  .debug_str:000000000000f0d9 .LASF3838
C:\Users\CYMR90~1\AppData\Local\Temp\ccxAEgth.s:28054  .debug_str:000000000001fc40 .LASF3839
C:\Users\CYMR90~1\AppData\Local\Temp\ccxAEgth.s:21031  .debug_str:000000000000391a .LASF3840
C:\Users\CYMR90~1\AppData\Local\Temp\ccxAEgth.s:23979  .debug_str:000000000000f6c9 .LASF3841
C:\Users\CYMR90~1\AppData\Local\Temp\ccxAEgth.s:29132  .debug_str:0000000000023da3 .LASF3842
C:\Users\CYMR90~1\AppData\Local\Temp\ccxAEgth.s:22501  .debug_str:0000000000009757 .LASF3843
C:\Users\CYMR90~1\AppData\Local\Temp\ccxAEgth.s:26800  .debug_str:000000000001ad00 .LASF3844
C:\Users\CYMR90~1\AppData\Local\Temp\ccxAEgth.s:21129  .debug_str:0000000000003f32 .LASF3845
C:\Users\CYMR90~1\AppData\Local\Temp\ccxAEgth.s:29174  .debug_str:000000000002409d .LASF3846
C:\Users\CYMR90~1\AppData\Local\Temp\ccxAEgth.s:22143  .debug_str:00000000000080a6 .LASF3847
C:\Users\CYMR90~1\AppData\Local\Temp\ccxAEgth.s:23747  .debug_str:000000000000e7ab .LASF3848
C:\Users\CYMR90~1\AppData\Local\Temp\ccxAEgth.s:30628  .debug_str:000000000002a040 .LASF3849
C:\Users\CYMR90~1\AppData\Local\Temp\ccxAEgth.s:21971  .debug_str:000000000000743e .LASF3850
C:\Users\CYMR90~1\AppData\Local\Temp\ccxAEgth.s:27922  .debug_str:000000000001f42f .LASF3851
C:\Users\CYMR90~1\AppData\Local\Temp\ccxAEgth.s:20743  .debug_str:0000000000002687 .LASF3852
C:\Users\CYMR90~1\AppData\Local\Temp\ccxAEgth.s:26122  .debug_str:0000000000017ff6 .LASF3853
C:\Users\CYMR90~1\AppData\Local\Temp\ccxAEgth.s:29306  .debug_str:0000000000024988 .LASF3854
C:\Users\CYMR90~1\AppData\Local\Temp\ccxAEgth.s:22151  .debug_str:0000000000008123 .LASF3855
C:\Users\CYMR90~1\AppData\Local\Temp\ccxAEgth.s:29584  .debug_str:0000000000025d4c .LASF3856
C:\Users\CYMR90~1\AppData\Local\Temp\ccxAEgth.s:24693  .debug_str:000000000001242d .LASF3857
C:\Users\CYMR90~1\AppData\Local\Temp\ccxAEgth.s:28868  .debug_str:0000000000022dd1 .LASF3858
C:\Users\CYMR90~1\AppData\Local\Temp\ccxAEgth.s:21821  .debug_str:0000000000006a95 .LASF3859
C:\Users\CYMR90~1\AppData\Local\Temp\ccxAEgth.s:24737  .debug_str:00000000000126ee .LASF3860
C:\Users\CYMR90~1\AppData\Local\Temp\ccxAEgth.s:28056  .debug_str:000000000001fc72 .LASF3861
C:\Users\CYMR90~1\AppData\Local\Temp\ccxAEgth.s:24657  .debug_str:00000000000121e8 .LASF3862
C:\Users\CYMR90~1\AppData\Local\Temp\ccxAEgth.s:29620  .debug_str:0000000000025fbc .LASF3863
C:\Users\CYMR90~1\AppData\Local\Temp\ccxAEgth.s:21019  .debug_str:000000000000382d .LASF3864
C:\Users\CYMR90~1\AppData\Local\Temp\ccxAEgth.s:29558  .debug_str:0000000000025bc4 .LASF3865
C:\Users\CYMR90~1\AppData\Local\Temp\ccxAEgth.s:23693  .debug_str:000000000000e42e .LASF3866
C:\Users\CYMR90~1\AppData\Local\Temp\ccxAEgth.s:29182  .debug_str:0000000000024146 .LASF3867
C:\Users\CYMR90~1\AppData\Local\Temp\ccxAEgth.s:25535  .debug_str:00000000000158d7 .LASF3868
C:\Users\CYMR90~1\AppData\Local\Temp\ccxAEgth.s:25966  .debug_str:000000000001767f .LASF3869
C:\Users\CYMR90~1\AppData\Local\Temp\ccxAEgth.s:22985  .debug_str:000000000000b719 .LASF3870
C:\Users\CYMR90~1\AppData\Local\Temp\ccxAEgth.s:25323  .debug_str:0000000000014c49 .LASF3871
C:\Users\CYMR90~1\AppData\Local\Temp\ccxAEgth.s:28262  .debug_str:0000000000020939 .LASF3872
C:\Users\CYMR90~1\AppData\Local\Temp\ccxAEgth.s:25347  .debug_str:0000000000014dfe .LASF3873
C:\Users\CYMR90~1\AppData\Local\Temp\ccxAEgth.s:29652  .debug_str:00000000000261d8 .LASF3874
C:\Users\CYMR90~1\AppData\Local\Temp\ccxAEgth.s:26412  .debug_str:0000000000019302 .LASF3875
C:\Users\CYMR90~1\AppData\Local\Temp\ccxAEgth.s:24403  .debug_str:00000000000110df .LASF3876
C:\Users\CYMR90~1\AppData\Local\Temp\ccxAEgth.s:22065  .debug_str:0000000000007a60 .LASF3877
C:\Users\CYMR90~1\AppData\Local\Temp\ccxAEgth.s:20431  .debug_str:00000000000013f2 .LASF3878
C:\Users\CYMR90~1\AppData\Local\Temp\ccxAEgth.s:24045  .debug_str:000000000000faa5 .LASF3879
C:\Users\CYMR90~1\AppData\Local\Temp\ccxAEgth.s:24971  .debug_str:00000000000136c1 .LASF3880
C:\Users\CYMR90~1\AppData\Local\Temp\ccxAEgth.s:21457  .debug_str:00000000000054ad .LASF3881
C:\Users\CYMR90~1\AppData\Local\Temp\ccxAEgth.s:26222  .debug_str:00000000000185c1 .LASF3882
C:\Users\CYMR90~1\AppData\Local\Temp\ccxAEgth.s:23587  .debug_str:000000000000ddeb .LASF3883
C:\Users\CYMR90~1\AppData\Local\Temp\ccxAEgth.s:22625  .debug_str:0000000000009f22 .LASF3884
C:\Users\CYMR90~1\AppData\Local\Temp\ccxAEgth.s:24081  .debug_str:000000000000fcf0 .LASF3885
C:\Users\CYMR90~1\AppData\Local\Temp\ccxAEgth.s:25932  .debug_str:000000000001746e .LASF3886
C:\Users\CYMR90~1\AppData\Local\Temp\ccxAEgth.s:25383  .debug_str:0000000000015021 .LASF3887
C:\Users\CYMR90~1\AppData\Local\Temp\ccxAEgth.s:24775  .debug_str:00000000000129bd .LASF3888
C:\Users\CYMR90~1\AppData\Local\Temp\ccxAEgth.s:27112  .debug_str:000000000001c07f .LASF3889
C:\Users\CYMR90~1\AppData\Local\Temp\ccxAEgth.s:23697  .debug_str:000000000000e4ad .LASF3890
C:\Users\CYMR90~1\AppData\Local\Temp\ccxAEgth.s:20301  .debug_str:0000000000000c39 .LASF3891
C:\Users\CYMR90~1\AppData\Local\Temp\ccxAEgth.s:30364  .debug_str:0000000000029017 .LASF3892
C:\Users\CYMR90~1\AppData\Local\Temp\ccxAEgth.s:24841  .debug_str:0000000000012dd8 .LASF3893
C:\Users\CYMR90~1\AppData\Local\Temp\ccxAEgth.s:27450  .debug_str:000000000001d772 .LASF3894
C:\Users\CYMR90~1\AppData\Local\Temp\ccxAEgth.s:20685  .debug_str:00000000000022cd .LASF3895
C:\Users\CYMR90~1\AppData\Local\Temp\ccxAEgth.s:20595  .debug_str:0000000000001ddd .LASF3896
C:\Users\CYMR90~1\AppData\Local\Temp\ccxAEgth.s:29422  .debug_str:000000000002520c .LASF3897
C:\Users\CYMR90~1\AppData\Local\Temp\ccxAEgth.s:29196  .debug_str:0000000000024259 .LASF3898
C:\Users\CYMR90~1\AppData\Local\Temp\ccxAEgth.s:25800  .debug_str:0000000000016cce .LASF3899
C:\Users\CYMR90~1\AppData\Local\Temp\ccxAEgth.s:25119  .debug_str:0000000000013f9e .LASF3900
C:\Users\CYMR90~1\AppData\Local\Temp\ccxAEgth.s:30352  .debug_str:0000000000028f5d .LASF3901
C:\Users\CYMR90~1\AppData\Local\Temp\ccxAEgth.s:26942  .debug_str:000000000001b62f .LASF3902
C:\Users\CYMR90~1\AppData\Local\Temp\ccxAEgth.s:20819  .debug_str:0000000000002b83 .LASF3903
C:\Users\CYMR90~1\AppData\Local\Temp\ccxAEgth.s:30730  .debug_str:000000000002a68e .LASF3904
C:\Users\CYMR90~1\AppData\Local\Temp\ccxAEgth.s:31038  .debug_str:000000000002b998 .LASF3905
C:\Users\CYMR90~1\AppData\Local\Temp\ccxAEgth.s:20931  .debug_str:000000000000329d .LASF3906
C:\Users\CYMR90~1\AppData\Local\Temp\ccxAEgth.s:21321  .debug_str:0000000000004c85 .LASF3907
C:\Users\CYMR90~1\AppData\Local\Temp\ccxAEgth.s:26546  .debug_str:0000000000019c0e .LASF3908
C:\Users\CYMR90~1\AppData\Local\Temp\ccxAEgth.s:24535  .debug_str:0000000000011a21 .LASF3909
C:\Users\CYMR90~1\AppData\Local\Temp\ccxAEgth.s:21105  .debug_str:0000000000003dee .LASF3910
C:\Users\CYMR90~1\AppData\Local\Temp\ccxAEgth.s:29054  .debug_str:0000000000023902 .LASF3911
C:\Users\CYMR90~1\AppData\Local\Temp\ccxAEgth.s:25637  .debug_str:0000000000016002 .LASF3912
C:\Users\CYMR90~1\AppData\Local\Temp\ccxAEgth.s:24095  .debug_str:000000000000fe03 .LASF3913
C:\Users\CYMR90~1\AppData\Local\Temp\ccxAEgth.s:30208  .debug_str:000000000002866e .LASF3914
C:\Users\CYMR90~1\AppData\Local\Temp\ccxAEgth.s:28198  .debug_str:0000000000020567 .LASF3915
C:\Users\CYMR90~1\AppData\Local\Temp\ccxAEgth.s:22109  .debug_str:0000000000007ddd .LASF3916
C:\Users\CYMR90~1\AppData\Local\Temp\ccxAEgth.s:30052  .debug_str:0000000000027af9 .LASF3917
C:\Users\CYMR90~1\AppData\Local\Temp\ccxAEgth.s:26668  .debug_str:000000000001a475 .LASF3918
C:\Users\CYMR90~1\AppData\Local\Temp\ccxAEgth.s:23277  .debug_str:000000000000ca5f .LASF3919
C:\Users\CYMR90~1\AppData\Local\Temp\ccxAEgth.s:31202  .debug_str:000000000002c4d6 .LASF3920
C:\Users\CYMR90~1\AppData\Local\Temp\ccxAEgth.s:21221  .debug_str:00000000000045a1 .LASF3921
C:\Users\CYMR90~1\AppData\Local\Temp\ccxAEgth.s:24407  .debug_str:000000000001111a .LASF3922
C:\Users\CYMR90~1\AppData\Local\Temp\ccxAEgth.s:27290  .debug_str:000000000001ccda .LASF3923
C:\Users\CYMR90~1\AppData\Local\Temp\ccxAEgth.s:28912  .debug_str:0000000000023019 .LASF3924
C:\Users\CYMR90~1\AppData\Local\Temp\ccxAEgth.s:30286  .debug_str:0000000000028b8a .LASF3925
C:\Users\CYMR90~1\AppData\Local\Temp\ccxAEgth.s:20823  .debug_str:0000000000002bdc .LASF3926
C:\Users\CYMR90~1\AppData\Local\Temp\ccxAEgth.s:25926  .debug_str:000000000001740b .LASF3927
C:\Users\CYMR90~1\AppData\Local\Temp\ccxAEgth.s:25355  .debug_str:0000000000014e7e .LASF3928
C:\Users\CYMR90~1\AppData\Local\Temp\ccxAEgth.s:21963  .debug_str:00000000000073c7 .LASF3929
C:\Users\CYMR90~1\AppData\Local\Temp\ccxAEgth.s:22085  .debug_str:0000000000007c35 .LASF3930
C:\Users\CYMR90~1\AppData\Local\Temp\ccxAEgth.s:22081  .debug_str:0000000000007bf4 .LASF3931
C:\Users\CYMR90~1\AppData\Local\Temp\ccxAEgth.s:23127  .debug_str:000000000000c0c7 .LASF3932
C:\Users\CYMR90~1\AppData\Local\Temp\ccxAEgth.s:31066  .debug_str:000000000002bb6a .LASF3933
C:\Users\CYMR90~1\AppData\Local\Temp\ccxAEgth.s:20735  .debug_str:00000000000025e8 .LASF3934
C:\Users\CYMR90~1\AppData\Local\Temp\ccxAEgth.s:29076  .debug_str:0000000000023a49 .LASF3935
C:\Users\CYMR90~1\AppData\Local\Temp\ccxAEgth.s:31000  .debug_str:000000000002b702 .LASF3936
C:\Users\CYMR90~1\AppData\Local\Temp\ccxAEgth.s:27452  .debug_str:000000000001d796 .LASF3937
C:\Users\CYMR90~1\AppData\Local\Temp\ccxAEgth.s:24119  .debug_str:000000000000ff4d .LASF3938
C:\Users\CYMR90~1\AppData\Local\Temp\ccxAEgth.s:20535  .debug_str:0000000000001a24 .LASF3939
C:\Users\CYMR90~1\AppData\Local\Temp\ccxAEgth.s:28610  .debug_str:0000000000021e44 .LASF3940
C:\Users\CYMR90~1\AppData\Local\Temp\ccxAEgth.s:25223  .debug_str:000000000001460c .LASF3941
C:\Users\CYMR90~1\AppData\Local\Temp\ccxAEgth.s:23911  .debug_str:000000000000f1a6 .LASF3942
C:\Users\CYMR90~1\AppData\Local\Temp\ccxAEgth.s:26498  .debug_str:0000000000019901 .LASF3943
C:\Users\CYMR90~1\AppData\Local\Temp\ccxAEgth.s:26378  .debug_str:00000000000190ed .LASF3944
C:\Users\CYMR90~1\AppData\Local\Temp\ccxAEgth.s:27754  .debug_str:000000000001ea28 .LASF3945
C:\Users\CYMR90~1\AppData\Local\Temp\ccxAEgth.s:29702  .debug_str:00000000000264c9 .LASF3946
C:\Users\CYMR90~1\AppData\Local\Temp\ccxAEgth.s:27820  .debug_str:000000000001ee0c .LASF3947
C:\Users\CYMR90~1\AppData\Local\Temp\ccxAEgth.s:22435  .debug_str:00000000000092d0 .LASF3948
C:\Users\CYMR90~1\AppData\Local\Temp\ccxAEgth.s:30846  .debug_str:000000000002ad80 .LASF3949
C:\Users\CYMR90~1\AppData\Local\Temp\ccxAEgth.s:27328  .debug_str:000000000001cfe8 .LASF3950
C:\Users\CYMR90~1\AppData\Local\Temp\ccxAEgth.s:28546  .debug_str:0000000000021a90 .LASF3951
C:\Users\CYMR90~1\AppData\Local\Temp\ccxAEgth.s:20543  .debug_str:0000000000001ab4 .LASF3952
C:\Users\CYMR90~1\AppData\Local\Temp\ccxAEgth.s:28464  .debug_str:0000000000021588 .LASF3953
C:\Users\CYMR90~1\AppData\Local\Temp\ccxAEgth.s:25075  .debug_str:0000000000013cd5 .LASF3954
C:\Users\CYMR90~1\AppData\Local\Temp\ccxAEgth.s:30742  .debug_str:000000000002a74d .LASF3955
C:\Users\CYMR90~1\AppData\Local\Temp\ccxAEgth.s:28404  .debug_str:0000000000021150 .LASF3956
C:\Users\CYMR90~1\AppData\Local\Temp\ccxAEgth.s:25019  .debug_str:0000000000013993 .LASF3957
C:\Users\CYMR90~1\AppData\Local\Temp\ccxAEgth.s:29718  .debug_str:00000000000265bb .LASF3958
C:\Users\CYMR90~1\AppData\Local\Temp\ccxAEgth.s:29544  .debug_str:0000000000025ade .LASF3959
C:\Users\CYMR90~1\AppData\Local\Temp\ccxAEgth.s:26148  .debug_str:0000000000018179 .LASF3960
C:\Users\CYMR90~1\AppData\Local\Temp\ccxAEgth.s:31310  .debug_str:000000000002cb9f .LASF3961
C:\Users\CYMR90~1\AppData\Local\Temp\ccxAEgth.s:30698  .debug_str:000000000002a461 .LASF3962
C:\Users\CYMR90~1\AppData\Local\Temp\ccxAEgth.s:28616  .debug_str:0000000000021eb1 .LASF3963
C:\Users\CYMR90~1\AppData\Local\Temp\ccxAEgth.s:27470  .debug_str:000000000001d8bb .LASF3964
C:\Users\CYMR90~1\AppData\Local\Temp\ccxAEgth.s:21871  .debug_str:0000000000006ded .LASF3965
C:\Users\CYMR90~1\AppData\Local\Temp\ccxAEgth.s:22019  .debug_str:0000000000007760 .LASF3966
C:\Users\CYMR90~1\AppData\Local\Temp\ccxAEgth.s:26032  .debug_str:0000000000017aa5 .LASF3967
C:\Users\CYMR90~1\AppData\Local\Temp\ccxAEgth.s:29992  .debug_str:00000000000276ed .LASF3968
C:\Users\CYMR90~1\AppData\Local\Temp\ccxAEgth.s:22601  .debug_str:0000000000009d91 .LASF3969
C:\Users\CYMR90~1\AppData\Local\Temp\ccxAEgth.s:31134  .debug_str:000000000002c02e .LASF3970
C:\Users\CYMR90~1\AppData\Local\Temp\ccxAEgth.s:22125  .debug_str:0000000000007f7d .LASF3971
C:\Users\CYMR90~1\AppData\Local\Temp\ccxAEgth.s:24471  .debug_str:000000000001151d .LASF3972
C:\Users\CYMR90~1\AppData\Local\Temp\ccxAEgth.s:26992  .debug_str:000000000001b8a8 .LASF3973
C:\Users\CYMR90~1\AppData\Local\Temp\ccxAEgth.s:31056  .debug_str:000000000002bae7 .LASF3974
C:\Users\CYMR90~1\AppData\Local\Temp\ccxAEgth.s:25163  .debug_str:0000000000014251 .LASF3975
C:\Users\CYMR90~1\AppData\Local\Temp\ccxAEgth.s:27582  .debug_str:000000000001e00b .LASF3976
C:\Users\CYMR90~1\AppData\Local\Temp\ccxAEgth.s:29924  .debug_str:00000000000272ff .LASF3977
C:\Users\CYMR90~1\AppData\Local\Temp\ccxAEgth.s:20969  .debug_str:000000000000350b .LASF3978
C:\Users\CYMR90~1\AppData\Local\Temp\ccxAEgth.s:28296  .debug_str:0000000000020b6f .LASF3979
C:\Users\CYMR90~1\AppData\Local\Temp\ccxAEgth.s:20877  .debug_str:0000000000002f06 .LASF3980
C:\Users\CYMR90~1\AppData\Local\Temp\ccxAEgth.s:27928  .debug_str:000000000001f493 .LASF3981
C:\Users\CYMR90~1\AppData\Local\Temp\ccxAEgth.s:30318  .debug_str:0000000000028d1a .LASF3982
C:\Users\CYMR90~1\AppData\Local\Temp\ccxAEgth.s:24795  .debug_str:0000000000012abf .LASF3983
C:\Users\CYMR90~1\AppData\Local\Temp\ccxAEgth.s:23585  .debug_str:000000000000ddc5 .LASF3984
C:\Users\CYMR90~1\AppData\Local\Temp\ccxAEgth.s:20633  .debug_str:0000000000001fc4 .LASF3985
C:\Users\CYMR90~1\AppData\Local\Temp\ccxAEgth.s:22149  .debug_str:00000000000080fd .LASF3986
C:\Users\CYMR90~1\AppData\Local\Temp\ccxAEgth.s:24499  .debug_str:000000000001178e .LASF3987
C:\Users\CYMR90~1\AppData\Local\Temp\ccxAEgth.s:26404  .debug_str:0000000000019291 .LASF3988
C:\Users\CYMR90~1\AppData\Local\Temp\ccxAEgth.s:24461  .debug_str:0000000000011464 .LASF3989
C:\Users\CYMR90~1\AppData\Local\Temp\ccxAEgth.s:20187  .debug_str:0000000000000534 .LASF3990
C:\Users\CYMR90~1\AppData\Local\Temp\ccxAEgth.s:26878  .debug_str:000000000001b24d .LASF3991
C:\Users\CYMR90~1\AppData\Local\Temp\ccxAEgth.s:30912  .debug_str:000000000002b130 .LASF3992
C:\Users\CYMR90~1\AppData\Local\Temp\ccxAEgth.s:23517  .debug_str:000000000000d997 .LASF3993
C:\Users\CYMR90~1\AppData\Local\Temp\ccxAEgth.s:22529  .debug_str:000000000000992b .LASF3994
C:\Users\CYMR90~1\AppData\Local\Temp\ccxAEgth.s:26442  .debug_str:00000000000194b8 .LASF3995
C:\Users\CYMR90~1\AppData\Local\Temp\ccxAEgth.s:22403  .debug_str:0000000000009102 .LASF3996
C:\Users\CYMR90~1\AppData\Local\Temp\ccxAEgth.s:26340  .debug_str:0000000000018def .LASF3997
C:\Users\CYMR90~1\AppData\Local\Temp\ccxAEgth.s:30274  .debug_str:0000000000028ad5 .LASF3998
C:\Users\CYMR90~1\AppData\Local\Temp\ccxAEgth.s:25289  .debug_str:00000000000149ea .LASF3999
C:\Users\CYMR90~1\AppData\Local\Temp\ccxAEgth.s:26834  .debug_str:000000000001af73 .LASF4000
C:\Users\CYMR90~1\AppData\Local\Temp\ccxAEgth.s:30844  .debug_str:000000000002ad5a .LASF4001
C:\Users\CYMR90~1\AppData\Local\Temp\ccxAEgth.s:23457  .debug_str:000000000000d622 .LASF4002
C:\Users\CYMR90~1\AppData\Local\Temp\ccxAEgth.s:22587  .debug_str:0000000000009c9a .LASF4003
C:\Users\CYMR90~1\AppData\Local\Temp\ccxAEgth.s:31320  .debug_str:000000000002cc2f .LASF4004
C:\Users\CYMR90~1\AppData\Local\Temp\ccxAEgth.s:28358  .debug_str:0000000000020ec4 .LASF4005
C:\Users\CYMR90~1\AppData\Local\Temp\ccxAEgth.s:30122  .debug_str:0000000000027fe4 .LASF4006
C:\Users\CYMR90~1\AppData\Local\Temp\ccxAEgth.s:27418  .debug_str:000000000001d570 .LASF4007
C:\Users\CYMR90~1\AppData\Local\Temp\ccxAEgth.s:22823  .debug_str:000000000000abf8 .LASF4008
C:\Users\CYMR90~1\AppData\Local\Temp\ccxAEgth.s:26770  .debug_str:000000000001ab34 .LASF4009
C:\Users\CYMR90~1\AppData\Local\Temp\ccxAEgth.s:30774  .debug_str:000000000002a949 .LASF4010
C:\Users\CYMR90~1\AppData\Local\Temp\ccxAEgth.s:25691  .debug_str:00000000000162fd .LASF4011
C:\Users\CYMR90~1\AppData\Local\Temp\ccxAEgth.s:24897  .debug_str:00000000000131ac .LASF4012
C:\Users\CYMR90~1\AppData\Local\Temp\ccxAEgth.s:31260  .debug_str:000000000002c859 .LASF4013
C:\Users\CYMR90~1\AppData\Local\Temp\ccxAEgth.s:24469  .debug_str:00000000000114f7 .LASF4014
C:\Users\CYMR90~1\AppData\Local\Temp\ccxAEgth.s:20913  .debug_str:0000000000003169 .LASF4015
C:\Users\CYMR90~1\AppData\Local\Temp\ccxAEgth.s:30146  .debug_str:0000000000028184 .LASF4016
C:\Users\CYMR90~1\AppData\Local\Temp\ccxAEgth.s:30718  .debug_str:000000000002a5e1 .LASF4017
C:\Users\CYMR90~1\AppData\Local\Temp\ccxAEgth.s:21707  .debug_str:000000000000636a .LASF4018
C:\Users\CYMR90~1\AppData\Local\Temp\ccxAEgth.s:30708  .debug_str:000000000002a50a .LASF4019
C:\Users\CYMR90~1\AppData\Local\Temp\ccxAEgth.s:23331  .debug_str:000000000000cd9f .LASF4020
C:\Users\CYMR90~1\AppData\Local\Temp\ccxAEgth.s:27228  .debug_str:000000000001c867 .LASF4021
C:\Users\CYMR90~1\AppData\Local\Temp\ccxAEgth.s:31198  .debug_str:000000000002c489 .LASF4022
C:\Users\CYMR90~1\AppData\Local\Temp\ccxAEgth.s:22127  .debug_str:0000000000007fa3 .LASF4023
C:\Users\CYMR90~1\AppData\Local\Temp\ccxAEgth.s:25279  .debug_str:0000000000014969 .LASF4024
C:\Users\CYMR90~1\AppData\Local\Temp\ccxAEgth.s:24809  .debug_str:0000000000012bc6 .LASF4025
C:\Users\CYMR90~1\AppData\Local\Temp\ccxAEgth.s:22689  .debug_str:000000000000a332 .LASF4026
C:\Users\CYMR90~1\AppData\Local\Temp\ccxAEgth.s:26628  .debug_str:000000000001a0a7 .LASF4027
C:\Users\CYMR90~1\AppData\Local\Temp\ccxAEgth.s:24129  .debug_str:000000000001001c .LASF4028
C:\Users\CYMR90~1\AppData\Local\Temp\ccxAEgth.s:27004  .debug_str:000000000001b990 .LASF4029
C:\Users\CYMR90~1\AppData\Local\Temp\ccxAEgth.s:27160  .debug_str:000000000001c30f .LASF4030
C:\Users\CYMR90~1\AppData\Local\Temp\ccxAEgth.s:28466  .debug_str:00000000000215ac .LASF4031
C:\Users\CYMR90~1\AppData\Local\Temp\ccxAEgth.s:23729  .debug_str:000000000000e6a5 .LASF4032
C:\Users\CYMR90~1\AppData\Local\Temp\ccxAEgth.s:27610  .debug_str:000000000001e18b .LASF4033
C:\Users\CYMR90~1\AppData\Local\Temp\ccxAEgth.s:20277  .debug_str:0000000000000adc .LASF4034
C:\Users\CYMR90~1\AppData\Local\Temp\ccxAEgth.s:27166  .debug_str:000000000001c36d .LASF4035
C:\Users\CYMR90~1\AppData\Local\Temp\ccxAEgth.s:28740  .debug_str:000000000002262a .LASF4036
C:\Users\CYMR90~1\AppData\Local\Temp\ccxAEgth.s:30576  .debug_str:0000000000029d6a .LASF4037
C:\Users\CYMR90~1\AppData\Local\Temp\ccxAEgth.s:23191  .debug_str:000000000000c4bb .LASF4038
C:\Users\CYMR90~1\AppData\Local\Temp\ccxAEgth.s:25299  .debug_str:0000000000014a92 .LASF4039
C:\Users\CYMR90~1\AppData\Local\Temp\ccxAEgth.s:31070  .debug_str:000000000002bba6 .LASF4040
C:\Users\CYMR90~1\AppData\Local\Temp\ccxAEgth.s:27636  .debug_str:000000000001e31f .LASF4041
C:\Users\CYMR90~1\AppData\Local\Temp\ccxAEgth.s:27544  .debug_str:000000000001ddd6 .LASF4042
C:\Users\CYMR90~1\AppData\Local\Temp\ccxAEgth.s:20217  .debug_str:00000000000006f5 .LASF4043
C:\Users\CYMR90~1\AppData\Local\Temp\ccxAEgth.s:31246  .debug_str:000000000002c75d .LASF4044
C:\Users\CYMR90~1\AppData\Local\Temp\ccxAEgth.s:21181  .debug_str:0000000000004302 .LASF4045
C:\Users\CYMR90~1\AppData\Local\Temp\ccxAEgth.s:30514  .debug_str:00000000000299ac .LASF4046
C:\Users\CYMR90~1\AppData\Local\Temp\ccxAEgth.s:26506  .debug_str:000000000001997d .LASF4047
C:\Users\CYMR90~1\AppData\Local\Temp\ccxAEgth.s:28824  .debug_str:0000000000022b4f .LASF4048
C:\Users\CYMR90~1\AppData\Local\Temp\ccxAEgth.s:31014  .debug_str:000000000002b7eb .LASF4049
C:\Users\CYMR90~1\AppData\Local\Temp\ccxAEgth.s:23607  .debug_str:000000000000def8 .LASF4050
C:\Users\CYMR90~1\AppData\Local\Temp\ccxAEgth.s:21481  .debug_str:00000000000055fc .LASF4051
C:\Users\CYMR90~1\AppData\Local\Temp\ccxAEgth.s:20149  .debug_str:000000000000031a .LASF4052
C:\Users\CYMR90~1\AppData\Local\Temp\ccxAEgth.s:24673  .debug_str:00000000000122dd .LASF4053
C:\Users\CYMR90~1\AppData\Local\Temp\ccxAEgth.s:21059  .debug_str:0000000000003ab3 .LASF4054
C:\Users\CYMR90~1\AppData\Local\Temp\ccxAEgth.s:25151  .debug_str:000000000001419e .LASF4055
C:\Users\CYMR90~1\AppData\Local\Temp\ccxAEgth.s:23065  .debug_str:000000000000bcc5 .LASF4056
C:\Users\CYMR90~1\AppData\Local\Temp\ccxAEgth.s:20433  .debug_str:0000000000001416 .LASF4057
C:\Users\CYMR90~1\AppData\Local\Temp\ccxAEgth.s:23383  .debug_str:000000000000d123 .LASF4058
C:\Users\CYMR90~1\AppData\Local\Temp\ccxAEgth.s:27806  .debug_str:000000000001ed12 .LASF4059
C:\Users\CYMR90~1\AppData\Local\Temp\ccxAEgth.s:27994  .debug_str:000000000001f889 .LASF4060
C:\Users\CYMR90~1\AppData\Local\Temp\ccxAEgth.s:31408  .debug_str:000000000002d206 .LASF4061
C:\Users\CYMR90~1\AppData\Local\Temp\ccxAEgth.s:20427  .debug_str:00000000000013ba .LASF4062
C:\Users\CYMR90~1\AppData\Local\Temp\ccxAEgth.s:24603  .debug_str:0000000000011e4b .LASF4063
C:\Users\CYMR90~1\AppData\Local\Temp\ccxAEgth.s:26928  .debug_str:000000000001b557 .LASF4064
C:\Users\CYMR90~1\AppData\Local\Temp\ccxAEgth.s:29606  .debug_str:0000000000025ea2 .LASF4065
C:\Users\CYMR90~1\AppData\Local\Temp\ccxAEgth.s:25325  .debug_str:0000000000014c6b .LASF4066
C:\Users\CYMR90~1\AppData\Local\Temp\ccxAEgth.s:28542  .debug_str:0000000000021a50 .LASF4067
C:\Users\CYMR90~1\AppData\Local\Temp\ccxAEgth.s:20867  .debug_str:0000000000002e7d .LASF4068
C:\Users\CYMR90~1\AppData\Local\Temp\ccxAEgth.s:22189  .debug_str:0000000000008389 .LASF4069
C:\Users\CYMR90~1\AppData\Local\Temp\ccxAEgth.s:26116  .debug_str:0000000000017f99 .LASF4070
C:\Users\CYMR90~1\AppData\Local\Temp\ccxAEgth.s:30070  .debug_str:0000000000027c2b .LASF4071
C:\Users\CYMR90~1\AppData\Local\Temp\ccxAEgth.s:30062  .debug_str:0000000000027ba1 .LASF4072
C:\Users\CYMR90~1\AppData\Local\Temp\ccxAEgth.s:31262  .debug_str:000000000002c87f .LASF4073
C:\Users\CYMR90~1\AppData\Local\Temp\ccxAEgth.s:30632  .debug_str:000000000002a089 .LASF4074
C:\Users\CYMR90~1\AppData\Local\Temp\ccxAEgth.s:26326  .debug_str:0000000000018d11 .LASF4075
C:\Users\CYMR90~1\AppData\Local\Temp\ccxAEgth.s:20749  .debug_str:000000000000270c .LASF4076
C:\Users\CYMR90~1\AppData\Local\Temp\ccxAEgth.s:29510  .debug_str:00000000000258cb .LASF4077
C:\Users\CYMR90~1\AppData\Local\Temp\ccxAEgth.s:22131  .debug_str:0000000000007fdf .LASF4078
C:\Users\CYMR90~1\AppData\Local\Temp\ccxAEgth.s:26046  .debug_str:0000000000017b75 .LASF4079
C:\Users\CYMR90~1\AppData\Local\Temp\ccxAEgth.s:30836  .debug_str:000000000002acbf .LASF4080
C:\Users\CYMR90~1\AppData\Local\Temp\ccxAEgth.s:21081  .debug_str:0000000000003c3a .LASF4081
C:\Users\CYMR90~1\AppData\Local\Temp\ccxAEgth.s:23451  .debug_str:000000000000d5cc .LASF4082
C:\Users\CYMR90~1\AppData\Local\Temp\ccxAEgth.s:30572  .debug_str:0000000000029d2d .LASF4083
C:\Users\CYMR90~1\AppData\Local\Temp\ccxAEgth.s:28984  .debug_str:00000000000234a4 .LASF4084
C:\Users\CYMR90~1\AppData\Local\Temp\ccxAEgth.s:28028  .debug_str:000000000001faa2 .LASF4085
C:\Users\CYMR90~1\AppData\Local\Temp\ccxAEgth.s:29336  .debug_str:0000000000024b7f .LASF4086
C:\Users\CYMR90~1\AppData\Local\Temp\ccxAEgth.s:31354  .debug_str:000000000002ced0 .LASF4087
C:\Users\CYMR90~1\AppData\Local\Temp\ccxAEgth.s:25986  .debug_str:0000000000017801 .LASF4088
C:\Users\CYMR90~1\AppData\Local\Temp\ccxAEgth.s:22283  .debug_str:0000000000008992 .LASF4089
C:\Users\CYMR90~1\AppData\Local\Temp\ccxAEgth.s:26714  .debug_str:000000000001a7c3 .LASF4090
C:\Users\CYMR90~1\AppData\Local\Temp\ccxAEgth.s:26948  .debug_str:000000000001b699 .LASF4091
C:\Users\CYMR90~1\AppData\Local\Temp\ccxAEgth.s:30504  .debug_str:0000000000029922 .LASF4092
C:\Users\CYMR90~1\AppData\Local\Temp\ccxAEgth.s:23121  .debug_str:000000000000c074 .LASF4093
C:\Users\CYMR90~1\AppData\Local\Temp\ccxAEgth.s:23531  .debug_str:000000000000da40 .LASF4094
C:\Users\CYMR90~1\AppData\Local\Temp\ccxAEgth.s:23991  .debug_str:000000000000f78c .LASF4095
C:\Users\CYMR90~1\AppData\Local\Temp\ccxAEgth.s:21993  .debug_str:00000000000075b5 .LASF4096
C:\Users\CYMR90~1\AppData\Local\Temp\ccxAEgth.s:25920  .debug_str:00000000000173b6 .LASF4097
C:\Users\CYMR90~1\AppData\Local\Temp\ccxAEgth.s:28964  .debug_str:000000000002331c .LASF4098
C:\Users\CYMR90~1\AppData\Local\Temp\ccxAEgth.s:22465  .debug_str:00000000000094f2 .LASF4099
C:\Users\CYMR90~1\AppData\Local\Temp\ccxAEgth.s:31316  .debug_str:000000000002cbf7 .LASF4100
C:\Users\CYMR90~1\AppData\Local\Temp\ccxAEgth.s:22367  .debug_str:0000000000008ec4 .LASF4101
C:\Users\CYMR90~1\AppData\Local\Temp\ccxAEgth.s:23059  .debug_str:000000000000bc4c .LASF4102
C:\Users\CYMR90~1\AppData\Local\Temp\ccxAEgth.s:27022  .debug_str:000000000001baab .LASF4103
C:\Users\CYMR90~1\AppData\Local\Temp\ccxAEgth.s:29358  .debug_str:0000000000024cff .LASF4104
C:\Users\CYMR90~1\AppData\Local\Temp\ccxAEgth.s:25385  .debug_str:0000000000015045 .LASF4105
C:\Users\CYMR90~1\AppData\Local\Temp\ccxAEgth.s:25862  .debug_str:000000000001703e .LASF4106
C:\Users\CYMR90~1\AppData\Local\Temp\ccxAEgth.s:27314  .debug_str:000000000001cee0 .LASF4107
C:\Users\CYMR90~1\AppData\Local\Temp\ccxAEgth.s:20331  .debug_str:0000000000000dd0 .LASF4108
C:\Users\CYMR90~1\AppData\Local\Temp\ccxAEgth.s:26356  .debug_str:0000000000018fb8 .LASF4109
C:\Users\CYMR90~1\AppData\Local\Temp\ccxAEgth.s:25868  .debug_str:00000000000170aa .LASF4110
C:\Users\CYMR90~1\AppData\Local\Temp\ccxAEgth.s:28194  .debug_str:000000000002052a .LASF4111
C:\Users\CYMR90~1\AppData\Local\Temp\ccxAEgth.s:30552  .debug_str:0000000000029bea .LASF4112
C:\Users\CYMR90~1\AppData\Local\Temp\ccxAEgth.s:30856  .debug_str:000000000002ae14 .LASF4113
C:\Users\CYMR90~1\AppData\Local\Temp\ccxAEgth.s:23905  .debug_str:000000000000f136 .LASF4114
C:\Users\CYMR90~1\AppData\Local\Temp\ccxAEgth.s:31268  .debug_str:000000000002c8f8 .LASF4115
C:\Users\CYMR90~1\AppData\Local\Temp\ccxAEgth.s:29742  .debug_str:0000000000026757 .LASF4116
C:\Users\CYMR90~1\AppData\Local\Temp\ccxAEgth.s:23853  .debug_str:000000000000edcf .LASF4117
C:\Users\CYMR90~1\AppData\Local\Temp\ccxAEgth.s:26288  .debug_str:0000000000018ab8 .LASF4118
C:\Users\CYMR90~1\AppData\Local\Temp\ccxAEgth.s:29384  .debug_str:0000000000024eaf .LASF4119
C:\Users\CYMR90~1\AppData\Local\Temp\ccxAEgth.s:29210  .debug_str:0000000000024350 .LASF4120
C:\Users\CYMR90~1\AppData\Local\Temp\ccxAEgth.s:26860  .debug_str:000000000001b143 .LASF4121
C:\Users\CYMR90~1\AppData\Local\Temp\ccxAEgth.s:30786  .debug_str:000000000002a9e1 .LASF4122
C:\Users\CYMR90~1\AppData\Local\Temp\ccxAEgth.s:23411  .debug_str:000000000000d32a .LASF4123
C:\Users\CYMR90~1\AppData\Local\Temp\ccxAEgth.s:29744  .debug_str:000000000002677d .LASF4124
C:\Users\CYMR90~1\AppData\Local\Temp\ccxAEgth.s:25761  .debug_str:0000000000016827 .LASF4125
C:\Users\CYMR90~1\AppData\Local\Temp\ccxAEgth.s:22287  .debug_str:00000000000089cc .LASF4126
C:\Users\CYMR90~1\AppData\Local\Temp\ccxAEgth.s:26210  .debug_str:00000000000184f0 .LASF4127
C:\Users\CYMR90~1\AppData\Local\Temp\ccxAEgth.s:24265  .debug_str:0000000000010800 .LASF4128
C:\Users\CYMR90~1\AppData\Local\Temp\ccxAEgth.s:22863  .debug_str:000000000000af4e .LASF4129
C:\Users\CYMR90~1\AppData\Local\Temp\ccxAEgth.s:26248  .debug_str:000000000001879d .LASF4130
C:\Users\CYMR90~1\AppData\Local\Temp\ccxAEgth.s:26466  .debug_str:00000000000196a4 .LASF4131
C:\Users\CYMR90~1\AppData\Local\Temp\ccxAEgth.s:30942  .debug_str:000000000002b354 .LASF4132
C:\Users\CYMR90~1\AppData\Local\Temp\ccxAEgth.s:21913  .debug_str:00000000000070f4 .LASF4133
C:\Users\CYMR90~1\AppData\Local\Temp\ccxAEgth.s:31212  .debug_str:000000000002c56a .LASF4134
C:\Users\CYMR90~1\AppData\Local\Temp\ccxAEgth.s:28246  .debug_str:000000000002085e .LASF4135
C:\Users\CYMR90~1\AppData\Local\Temp\ccxAEgth.s:21855  .debug_str:0000000000006cd6 .LASF4136
C:\Users\CYMR90~1\AppData\Local\Temp\ccxAEgth.s:30182  .debug_str:0000000000028494 .LASF4137
C:\Users\CYMR90~1\AppData\Local\Temp\ccxAEgth.s:22793  .debug_str:000000000000aa1c .LASF4138
C:\Users\CYMR90~1\AppData\Local\Temp\ccxAEgth.s:21471  .debug_str:000000000000555c .LASF4139
C:\Users\CYMR90~1\AppData\Local\Temp\ccxAEgth.s:22227  .debug_str:00000000000085dc .LASF4140
C:\Users\CYMR90~1\AppData\Local\Temp\ccxAEgth.s:23285  .debug_str:000000000000cad9 .LASF4141
C:\Users\CYMR90~1\AppData\Local\Temp\ccxAEgth.s:27178  .debug_str:000000000001c44a .LASF4142
C:\Users\CYMR90~1\AppData\Local\Temp\ccxAEgth.s:31144  .debug_str:000000000002c0a8 .LASF4143
C:\Users\CYMR90~1\AppData\Local\Temp\ccxAEgth.s:23843  .debug_str:000000000000ed41 .LASF4144
C:\Users\CYMR90~1\AppData\Local\Temp\ccxAEgth.s:27964  .debug_str:000000000001f6b0 .LASF4145
C:\Users\CYMR90~1\AppData\Local\Temp\ccxAEgth.s:28596  .debug_str:0000000000021d8f .LASF4146
C:\Users\CYMR90~1\AppData\Local\Temp\ccxAEgth.s:30972  .debug_str:000000000002b55b .LASF4147
C:\Users\CYMR90~1\AppData\Local\Temp\ccxAEgth.s:26674  .debug_str:000000000001a4ca .LASF4148
C:\Users\CYMR90~1\AppData\Local\Temp\ccxAEgth.s:29314  .debug_str:0000000000024a29 .LASF4149
C:\Users\CYMR90~1\AppData\Local\Temp\ccxAEgth.s:26646  .debug_str:000000000001a373 .LASF4150
C:\Users\CYMR90~1\AppData\Local\Temp\ccxAEgth.s:27106  .debug_str:000000000001c02b .LASF4151
C:\Users\CYMR90~1\AppData\Local\Temp\ccxAEgth.s:20225  .debug_str:0000000000000761 .LASF4152
C:\Users\CYMR90~1\AppData\Local\Temp\ccxAEgth.s:23205  .debug_str:000000000000c584 .LASF4153
C:\Users\CYMR90~1\AppData\Local\Temp\ccxAEgth.s:21171  .debug_str:0000000000004258 .LASF4154
C:\Users\CYMR90~1\AppData\Local\Temp\ccxAEgth.s:21541  .debug_str:000000000000599f .LASF4155
C:\Users\CYMR90~1\AppData\Local\Temp\ccxAEgth.s:22661  .debug_str:000000000000a14d .LASF4156
C:\Users\CYMR90~1\AppData\Local\Temp\ccxAEgth.s:26592  .debug_str:0000000000019ea3 .LASF4157
C:\Users\CYMR90~1\AppData\Local\Temp\ccxAEgth.s:30526  .debug_str:0000000000029a69 .LASF4158
C:\Users\CYMR90~1\AppData\Local\Temp\ccxAEgth.s:23143  .debug_str:000000000000c1ba .LASF4159
C:\Users\CYMR90~1\AppData\Local\Temp\ccxAEgth.s:27048  .debug_str:000000000001bc7a .LASF4160
C:\Users\CYMR90~1\AppData\Local\Temp\ccxAEgth.s:27284  .debug_str:000000000001cc89 .LASF4161
C:\Users\CYMR90~1\AppData\Local\Temp\ccxAEgth.s:26734  .debug_str:000000000001a91d .LASF4162
C:\Users\CYMR90~1\AppData\Local\Temp\ccxAEgth.s:27578  .debug_str:000000000001dfd5 .LASF4163
C:\Users\CYMR90~1\AppData\Local\Temp\ccxAEgth.s:31214  .debug_str:000000000002c590 .LASF4164
C:\Users\CYMR90~1\AppData\Local\Temp\ccxAEgth.s:22751  .debug_str:000000000000a7b4 .LASF4165
C:\Users\CYMR90~1\AppData\Local\Temp\ccxAEgth.s:21213  .debug_str:000000000000451e .LASF4166
C:\Users\CYMR90~1\AppData\Local\Temp\ccxAEgth.s:25247  .debug_str:0000000000014781 .LASF4167
C:\Users\CYMR90~1\AppData\Local\Temp\ccxAEgth.s:29186  .debug_str:000000000002418c .LASF4168
C:\Users\CYMR90~1\AppData\Local\Temp\ccxAEgth.s:21783  .debug_str:0000000000006842 .LASF4169
C:\Users\CYMR90~1\AppData\Local\Temp\ccxAEgth.s:28678  .debug_str:0000000000022267 .LASF4170
C:\Users\CYMR90~1\AppData\Local\Temp\ccxAEgth.s:31052  .debug_str:000000000002ba86 .LASF4171
C:\Users\CYMR90~1\AppData\Local\Temp\ccxAEgth.s:21767  .debug_str:0000000000006737 .LASF4172
C:\Users\CYMR90~1\AppData\Local\Temp\ccxAEgth.s:26204  .debug_str:00000000000184a4 .LASF4173
C:\Users\CYMR90~1\AppData\Local\Temp\ccxAEgth.s:30242  .debug_str:00000000000288dd .LASF4174
C:\Users\CYMR90~1\AppData\Local\Temp\ccxAEgth.s:29582  .debug_str:0000000000025d26 .LASF4175
C:\Users\CYMR90~1\AppData\Local\Temp\ccxAEgth.s:25187  .debug_str:000000000001437a .LASF4176
C:\Users\CYMR90~1\AppData\Local\Temp\ccxAEgth.s:29118  .debug_str:0000000000023ca9 .LASF4177
C:\Users\CYMR90~1\AppData\Local\Temp\ccxAEgth.s:29876  .debug_str:0000000000026f66 .LASF4178
C:\Users\CYMR90~1\AppData\Local\Temp\ccxAEgth.s:27382  .debug_str:000000000001d320 .LASF4179
C:\Users\CYMR90~1\AppData\Local\Temp\ccxAEgth.s:28122  .debug_str:000000000002003e .LASF4180
C:\Users\CYMR90~1\AppData\Local\Temp\ccxAEgth.s:24245  .debug_str:00000000000106de .LASF4181
C:\Users\CYMR90~1\AppData\Local\Temp\ccxAEgth.s:27822  .debug_str:000000000001ee30 .LASF4182
C:\Users\CYMR90~1\AppData\Local\Temp\ccxAEgth.s:23539  .debug_str:000000000000dac7 .LASF4183
C:\Users\CYMR90~1\AppData\Local\Temp\ccxAEgth.s:22105  .debug_str:0000000000007da2 .LASF4184
C:\Users\CYMR90~1\AppData\Local\Temp\ccxAEgth.s:29466  .debug_str:000000000002551e .LASF4185
C:\Users\CYMR90~1\AppData\Local\Temp\ccxAEgth.s:31072  .debug_str:000000000002bbcc .LASF4186
C:\Users\CYMR90~1\AppData\Local\Temp\ccxAEgth.s:22455  .debug_str:000000000000944f .LASF4187
C:\Users\CYMR90~1\AppData\Local\Temp\ccxAEgth.s:25577  .debug_str:0000000000015bd4 .LASF4188
C:\Users\CYMR90~1\AppData\Local\Temp\ccxAEgth.s:29526  .debug_str:00000000000259b8 .LASF4189
C:\Users\CYMR90~1\AppData\Local\Temp\ccxAEgth.s:24667  .debug_str:0000000000012282 .LASF4190
C:\Users\CYMR90~1\AppData\Local\Temp\ccxAEgth.s:24711  .debug_str:0000000000012561 .LASF4191
C:\Users\CYMR90~1\AppData\Local\Temp\ccxAEgth.s:23313  .debug_str:000000000000cc4c .LASF4192
C:\Users\CYMR90~1\AppData\Local\Temp\ccxAEgth.s:22721  .debug_str:000000000000a4e3 .LASF4193
C:\Users\CYMR90~1\AppData\Local\Temp\ccxAEgth.s:26666  .debug_str:000000000001a44f .LASF4194
C:\Users\CYMR90~1\AppData\Local\Temp\ccxAEgth.s:23725  .debug_str:000000000000e66f .LASF4195
C:\Users\CYMR90~1\AppData\Local\Temp\ccxAEgth.s:21581  .debug_str:0000000000005bc9 .LASF4196
C:\Users\CYMR90~1\AppData\Local\Temp\ccxAEgth.s:27852  .debug_str:000000000001f004 .LASF4197
C:\Users\CYMR90~1\AppData\Local\Temp\ccxAEgth.s:29462  .debug_str:00000000000254cc .LASF4198
C:\Users\CYMR90~1\AppData\Local\Temp\ccxAEgth.s:29250  .debug_str:00000000000245be .LASF4199
C:\Users\CYMR90~1\AppData\Local\Temp\ccxAEgth.s:21139  .debug_str:0000000000004069 .LASF4200
C:\Users\CYMR90~1\AppData\Local\Temp\ccxAEgth.s:26832  .debug_str:000000000001af4d .LASF4201
C:\Users\CYMR90~1\AppData\Local\Temp\ccxAEgth.s:24333  .debug_str:0000000000010cc3 .LASF4202
C:\Users\CYMR90~1\AppData\Local\Temp\ccxAEgth.s:26584  .debug_str:0000000000019e2c .LASF4203
C:\Users\CYMR90~1\AppData\Local\Temp\ccxAEgth.s:30520  .debug_str:00000000000299ff .LASF4204
C:\Users\CYMR90~1\AppData\Local\Temp\ccxAEgth.s:29858  .debug_str:0000000000026e4e .LASF4205
C:\Users\CYMR90~1\AppData\Local\Temp\ccxAEgth.s:25453  .debug_str:0000000000015401 .LASF4206
C:\Users\CYMR90~1\AppData\Local\Temp\ccxAEgth.s:31156  .debug_str:000000000002c19f .LASF4207
C:\Users\CYMR90~1\AppData\Local\Temp\ccxAEgth.s:22003  .debug_str:0000000000007663 .LASF4208
C:\Users\CYMR90~1\AppData\Local\Temp\ccxAEgth.s:29408  .debug_str:0000000000025090 .LASF4209
C:\Users\CYMR90~1\AppData\Local\Temp\ccxAEgth.s:31400  .debug_str:000000000002d176 .LASF4210
C:\Users\CYMR90~1\AppData\Local\Temp\ccxAEgth.s:21307  .debug_str:0000000000004ba4 .LASF4211
C:\Users\CYMR90~1\AppData\Local\Temp\ccxAEgth.s:26522  .debug_str:0000000000019a8d .LASF4212
C:\Users\CYMR90~1\AppData\Local\Temp\ccxAEgth.s:21535  .debug_str:000000000000590b .LASF4213
C:\Users\CYMR90~1\AppData\Local\Temp\ccxAEgth.s:23071  .debug_str:000000000000bd23 .LASF4214
C:\Users\CYMR90~1\AppData\Local\Temp\ccxAEgth.s:24395  .debug_str:000000000001105b .LASF4215
C:\Users\CYMR90~1\AppData\Local\Temp\ccxAEgth.s:22559  .debug_str:0000000000009af4 .LASF4216
C:\Users\CYMR90~1\AppData\Local\Temp\ccxAEgth.s:29624  .debug_str:0000000000025ff9 .LASF4217
C:\Users\CYMR90~1\AppData\Local\Temp\ccxAEgth.s:25958  .debug_str:0000000000017604 .LASF4218
C:\Users\CYMR90~1\AppData\Local\Temp\ccxAEgth.s:26458  .debug_str:00000000000195fa .LASF4219
C:\Users\CYMR90~1\AppData\Local\Temp\ccxAEgth.s:27168  .debug_str:000000000001c393 .LASF4220
C:\Users\CYMR90~1\AppData\Local\Temp\ccxAEgth.s:26462  .debug_str:0000000000019659 .LASF4221
C:\Users\CYMR90~1\AppData\Local\Temp\ccxAEgth.s:30396  .debug_str:000000000002921d .LASF4222
C:\Users\CYMR90~1\AppData\Local\Temp\ccxAEgth.s:20525  .debug_str:0000000000001985 .LASF4223
C:\Users\CYMR90~1\AppData\Local\Temp\ccxAEgth.s:22877  .debug_str:000000000000b03d .LASF4224
C:\Users\CYMR90~1\AppData\Local\Temp\ccxAEgth.s:24021  .debug_str:000000000000f91a .LASF4225
C:\Users\CYMR90~1\AppData\Local\Temp\ccxAEgth.s:21865  .debug_str:0000000000006d5f .LASF4226
C:\Users\CYMR90~1\AppData\Local\Temp\ccxAEgth.s:25898  .debug_str:0000000000017262 .LASF4227
C:\Users\CYMR90~1\AppData\Local\Temp\ccxAEgth.s:29850  .debug_str:0000000000026dd6 .LASF4228
C:\Users\CYMR90~1\AppData\Local\Temp\ccxAEgth.s:28342  .debug_str:0000000000020de3 .LASF4229
C:\Users\CYMR90~1\AppData\Local\Temp\ccxAEgth.s:26392  .debug_str:00000000000191ba .LASF4230
C:\Users\CYMR90~1\AppData\Local\Temp\ccxAEgth.s:21693  .debug_str:00000000000062b0 .LASF4231
C:\Users\CYMR90~1\AppData\Local\Temp\ccxAEgth.s:22941  .debug_str:000000000000b44e .LASF4232
C:\Users\CYMR90~1\AppData\Local\Temp\ccxAEgth.s:26384  .debug_str:0000000000019144 .LASF4233
C:\Users\CYMR90~1\AppData\Local\Temp\ccxAEgth.s:24563  .debug_str:0000000000011bb7 .LASF4234
C:\Users\CYMR90~1\AppData\Local\Temp\ccxAEgth.s:21611  .debug_str:0000000000005d8e .LASF4235
C:\Users\CYMR90~1\AppData\Local\Temp\ccxAEgth.s:25834  .debug_str:0000000000016ed0 .LASF4236
C:\Users\CYMR90~1\AppData\Local\Temp\ccxAEgth.s:29778  .debug_str:0000000000026979 .LASF4237
C:\Users\CYMR90~1\AppData\Local\Temp\ccxAEgth.s:22389  .debug_str:000000000000901d .LASF4238
C:\Users\CYMR90~1\AppData\Local\Temp\ccxAEgth.s:20487  .debug_str:000000000000174f .LASF4239
C:\Users\CYMR90~1\AppData\Local\Temp\ccxAEgth.s:26500  .debug_str:0000000000019925 .LASF4240
C:\Users\CYMR90~1\AppData\Local\Temp\ccxAEgth.s:27520  .debug_str:000000000001dc42 .LASF4241
C:\Users\CYMR90~1\AppData\Local\Temp\ccxAEgth.s:26822  .debug_str:000000000001aeb4 .LASF4242
C:\Users\CYMR90~1\AppData\Local\Temp\ccxAEgth.s:30736  .debug_str:000000000002a6f8 .LASF4243
C:\Users\CYMR90~1\AppData\Local\Temp\ccxAEgth.s:23447  .debug_str:000000000000d59d .LASF4244
C:\Users\CYMR90~1\AppData\Local\Temp\ccxAEgth.s:20493  .debug_str:00000000000017b5 .LASF4245
C:\Users\CYMR90~1\AppData\Local\Temp\ccxAEgth.s:29716  .debug_str:0000000000026595 .LASF4246
C:\Users\CYMR90~1\AppData\Local\Temp\ccxAEgth.s:24093  .debug_str:000000000000fddd .LASF4247
C:\Users\CYMR90~1\AppData\Local\Temp\ccxAEgth.s:26564  .debug_str:0000000000019cfe .LASF4248
C:\Users\CYMR90~1\AppData\Local\Temp\ccxAEgth.s:28734  .debug_str:00000000000225ac .LASF4249
C:\Users\CYMR90~1\AppData\Local\Temp\ccxAEgth.s:31100  .debug_str:000000000002bd99 .LASF4250
C:\Users\CYMR90~1\AppData\Local\Temp\ccxAEgth.s:26760  .debug_str:000000000001aa96 .LASF4251
C:\Users\CYMR90~1\AppData\Local\Temp\ccxAEgth.s:30676  .debug_str:000000000002a2f7 .LASF4252
C:\Users\CYMR90~1\AppData\Local\Temp\ccxAEgth.s:27596  .debug_str:000000000001e0c4 .LASF4253
C:\Users\CYMR90~1\AppData\Local\Temp\ccxAEgth.s:24037  .debug_str:000000000000fa10 .LASF4254
C:\Users\CYMR90~1\AppData\Local\Temp\ccxAEgth.s:24379  .debug_str:0000000000010f3e .LASF4255
C:\Users\CYMR90~1\AppData\Local\Temp\ccxAEgth.s:22257  .debug_str:00000000000087f7 .LASF4256
C:\Users\CYMR90~1\AppData\Local\Temp\ccxAEgth.s:22335  .debug_str:0000000000008d0d .LASF4257
C:\Users\CYMR90~1\AppData\Local\Temp\ccxAEgth.s:27316  .debug_str:000000000001cf06 .LASF4258
C:\Users\CYMR90~1\AppData\Local\Temp\ccxAEgth.s:24359  .debug_str:0000000000010dfb .LASF4259
C:\Users\CYMR90~1\AppData\Local\Temp\ccxAEgth.s:26688  .debug_str:000000000001a5cc .LASF4260
C:\Users\CYMR90~1\AppData\Local\Temp\ccxAEgth.s:25069  .debug_str:0000000000013c71 .LASF4261
C:\Users\CYMR90~1\AppData\Local\Temp\ccxAEgth.s:27640  .debug_str:000000000001e375 .LASF4262
C:\Users\CYMR90~1\AppData\Local\Temp\ccxAEgth.s:28406  .debug_str:0000000000021174 .LASF4263
C:\Users\CYMR90~1\AppData\Local\Temp\ccxAEgth.s:24509  .debug_str:000000000001180e .LASF4264
C:\Users\CYMR90~1\AppData\Local\Temp\ccxAEgth.s:22791  .debug_str:000000000000a9f6 .LASF4265
C:\Users\CYMR90~1\AppData\Local\Temp\ccxAEgth.s:20917  .debug_str:00000000000031a7 .LASF4266
C:\Users\CYMR90~1\AppData\Local\Temp\ccxAEgth.s:24869  .debug_str:0000000000012fbe .LASF4267
C:\Users\CYMR90~1\AppData\Local\Temp\ccxAEgth.s:28438  .debug_str:0000000000021409 .LASF4268
C:\Users\CYMR90~1\AppData\Local\Temp\ccxAEgth.s:21377  .debug_str:0000000000004fdc .LASF4269
C:\Users\CYMR90~1\AppData\Local\Temp\ccxAEgth.s:25321  .debug_str:0000000000014c23 .LASF4270
C:\Users\CYMR90~1\AppData\Local\Temp\ccxAEgth.s:29260  .debug_str:0000000000024666 .LASF4271
C:\Users\CYMR90~1\AppData\Local\Temp\ccxAEgth.s:21857  .debug_str:0000000000006cfc .LASF4272
C:\Users\CYMR90~1\AppData\Local\Temp\ccxAEgth.s:21153  .debug_str:000000000000413f .LASF4273
C:\Users\CYMR90~1\AppData\Local\Temp\ccxAEgth.s:29842  .debug_str:0000000000026d3b .LASF4274
C:\Users\CYMR90~1\AppData\Local\Temp\ccxAEgth.s:28046  .debug_str:000000000001fb9a .LASF4275
C:\Users\CYMR90~1\AppData\Local\Temp\ccxAEgth.s:24817  .debug_str:0000000000012c61 .LASF4276
C:\Users\CYMR90~1\AppData\Local\Temp\ccxAEgth.s:28724  .debug_str:00000000000224fa .LASF4277
C:\Users\CYMR90~1\AppData\Local\Temp\ccxAEgth.s:24653  .debug_str:000000000001218b .LASF4278
C:\Users\CYMR90~1\AppData\Local\Temp\ccxAEgth.s:25365  .debug_str:0000000000014f1f .LASF4279
C:\Users\CYMR90~1\AppData\Local\Temp\ccxAEgth.s:31266  .debug_str:000000000002c8d2 .LASF4280
C:\Users\CYMR90~1\AppData\Local\Temp\ccxAEgth.s:30000  .debug_str:0000000000027774 .LASF4281
C:\Users\CYMR90~1\AppData\Local\Temp\ccxAEgth.s:25727  .debug_str:00000000000165ad .LASF4282
C:\Users\CYMR90~1\AppData\Local\Temp\ccxAEgth.s:24235  .debug_str:000000000001065b .LASF4283
C:\Users\CYMR90~1\AppData\Local\Temp\ccxAEgth.s:22381  .debug_str:0000000000008fae .LASF4284
C:\Users\CYMR90~1\AppData\Local\Temp\ccxAEgth.s:30784  .debug_str:000000000002a9bb .LASF4285
C:\Users\CYMR90~1\AppData\Local\Temp\ccxAEgth.s:28650  .debug_str:00000000000220c7 .LASF4286
C:\Users\CYMR90~1\AppData\Local\Temp\ccxAEgth.s:25613  .debug_str:0000000000015e8a .LASF4287
C:\Users\CYMR90~1\AppData\Local\Temp\ccxAEgth.s:28832  .debug_str:0000000000022bd7 .LASF4288
C:\Users\CYMR90~1\AppData\Local\Temp\ccxAEgth.s:23939  .debug_str:000000000000f342 .LASF4289
C:\Users\CYMR90~1\AppData\Local\Temp\ccxAEgth.s:21729  .debug_str:00000000000064a6 .LASF4290
C:\Users\CYMR90~1\AppData\Local\Temp\ccxAEgth.s:25659  .debug_str:000000000001614c .LASF4291
C:\Users\CYMR90~1\AppData\Local\Temp\ccxAEgth.s:29708  .debug_str:000000000002651b .LASF4292
C:\Users\CYMR90~1\AppData\Local\Temp\ccxAEgth.s:22325  .debug_str:0000000000008c82 .LASF4293
C:\Users\CYMR90~1\AppData\Local\Temp\ccxAEgth.s:26244  .debug_str:000000000001873d .LASF4294
C:\Users\CYMR90~1\AppData\Local\Temp\ccxAEgth.s:23343  .debug_str:000000000000ce6e .LASF4295
C:\Users\CYMR90~1\AppData\Local\Temp\ccxAEgth.s:21185  .debug_str:000000000000434c .LASF4296
C:\Users\CYMR90~1\AppData\Local\Temp\ccxAEgth.s:25131  .debug_str:0000000000014076 .LASF4297
C:\Users\CYMR90~1\AppData\Local\Temp\ccxAEgth.s:23185  .debug_str:000000000000c430 .LASF4298
C:\Users\CYMR90~1\AppData\Local\Temp\ccxAEgth.s:21665  .debug_str:00000000000060ef .LASF4299
C:\Users\CYMR90~1\AppData\Local\Temp\ccxAEgth.s:20801  .debug_str:0000000000002a83 .LASF4300
C:\Users\CYMR90~1\AppData\Local\Temp\ccxAEgth.s:29640  .debug_str:0000000000026108 .LASF4301
C:\Users\CYMR90~1\AppData\Local\Temp\ccxAEgth.s:22271  .debug_str:00000000000088cc .LASF4302
C:\Users\CYMR90~1\AppData\Local\Temp\ccxAEgth.s:26172  .debug_str:00000000000182fc .LASF4303
C:\Users\CYMR90~1\AppData\Local\Temp\ccxAEgth.s:20561  .debug_str:0000000000001bc0 .LASF4304
C:\Users\CYMR90~1\AppData\Local\Temp\ccxAEgth.s:27174  .debug_str:000000000001c3ea .LASF4305
C:\Users\CYMR90~1\AppData\Local\Temp\ccxAEgth.s:25065  .debug_str:0000000000013c2e .LASF4306
C:\Users\CYMR90~1\AppData\Local\Temp\ccxAEgth.s:29004  .debug_str:00000000000235f4 .LASF4307
C:\Users\CYMR90~1\AppData\Local\Temp\ccxAEgth.s:25463  .debug_str:00000000000154b3 .LASF4308
C:\Users\CYMR90~1\AppData\Local\Temp\ccxAEgth.s:30174  .debug_str:000000000002840e .LASF4309
C:\Users\CYMR90~1\AppData\Local\Temp\ccxAEgth.s:23463  .debug_str:000000000000d68e .LASF4310
C:\Users\CYMR90~1\AppData\Local\Temp\ccxAEgth.s:22177  .debug_str:00000000000082e1 .LASF4311
C:\Users\CYMR90~1\AppData\Local\Temp\ccxAEgth.s:28092  .debug_str:000000000001feac .LASF4312
C:\Users\CYMR90~1\AppData\Local\Temp\ccxAEgth.s:30058  .debug_str:0000000000027b59 .LASF4313
C:\Users\CYMR90~1\AppData\Local\Temp\ccxAEgth.s:22665  .debug_str:000000000000a18b .LASF4314
C:\Users\CYMR90~1\AppData\Local\Temp\ccxAEgth.s:31082  .debug_str:000000000002bc53 .LASF4315
C:\Users\CYMR90~1\AppData\Local\Temp\ccxAEgth.s:21965  .debug_str:00000000000073eb .LASF4316
C:\Users\CYMR90~1\AppData\Local\Temp\ccxAEgth.s:21531  .debug_str:00000000000058b3 .LASF4317
C:\Users\CYMR90~1\AppData\Local\Temp\ccxAEgth.s:24633  .debug_str:000000000001207a .LASF4318
C:\Users\CYMR90~1\AppData\Local\Temp\ccxAEgth.s:25511  .debug_str:000000000001577e .LASF4319
C:\Users\CYMR90~1\AppData\Local\Temp\ccxAEgth.s:22117  .debug_str:0000000000007ee7 .LASF4320
C:\Users\CYMR90~1\AppData\Local\Temp\ccxAEgth.s:25697  .debug_str:00000000000163e4 .LASF4321
C:\Users\CYMR90~1\AppData\Local\Temp\ccxAEgth.s:22653  .debug_str:000000000000a0c6 .LASF4322
C:\Users\CYMR90~1\AppData\Local\Temp\ccxAEgth.s:20783  .debug_str:0000000000002931 .LASF4323
C:\Users\CYMR90~1\AppData\Local\Temp\ccxAEgth.s:28066  .debug_str:000000000001fd2d .LASF4324
C:\Users\CYMR90~1\AppData\Local\Temp\ccxAEgth.s:22861  .debug_str:000000000000af28 .LASF4325
C:\Users\CYMR90~1\AppData\Local\Temp\ccxAEgth.s:21465  .debug_str:0000000000005510 .LASF4326
C:\Users\CYMR90~1\AppData\Local\Temp\ccxAEgth.s:22069  .debug_str:0000000000007a9e .LASF4327
C:\Users\CYMR90~1\AppData\Local\Temp\ccxAEgth.s:30484  .debug_str:0000000000029827 .LASF4328
C:\Users\CYMR90~1\AppData\Local\Temp\ccxAEgth.s:22041  .debug_str:000000000000790b .LASF4329
C:\Users\CYMR90~1\AppData\Local\Temp\ccxAEgth.s:23841  .debug_str:000000000000ed1b .LASF4330
C:\Users\CYMR90~1\AppData\Local\Temp\ccxAEgth.s:22397  .debug_str:00000000000090a3 .LASF4331
C:\Users\CYMR90~1\AppData\Local\Temp\ccxAEgth.s:29080  .debug_str:0000000000023a83 .LASF4332
C:\Users\CYMR90~1\AppData\Local\Temp\ccxAEgth.s:21237  .debug_str:00000000000046c5 .LASF4333
C:\Users\CYMR90~1\AppData\Local\Temp\ccxAEgth.s:21817  .debug_str:0000000000006a42 .LASF4334
C:\Users\CYMR90~1\AppData\Local\Temp\ccxAEgth.s:30954  .debug_str:000000000002b42d .LASF4335
C:\Users\CYMR90~1\AppData\Local\Temp\ccxAEgth.s:21407  .debug_str:00000000000051a5 .LASF4336
C:\Users\CYMR90~1\AppData\Local\Temp\ccxAEgth.s:22673  .debug_str:000000000000a23b .LASF4337
C:\Users\CYMR90~1\AppData\Local\Temp\ccxAEgth.s:21977  .debug_str:00000000000074bb .LASF4338
C:\Users\CYMR90~1\AppData\Local\Temp\ccxAEgth.s:27322  .debug_str:000000000001cf6b .LASF4339
C:\Users\CYMR90~1\AppData\Local\Temp\ccxAEgth.s:29674  .debug_str:0000000000026319 .LASF4340
C:\Users\CYMR90~1\AppData\Local\Temp\ccxAEgth.s:26680  .debug_str:000000000001a53c .LASF4341
C:\Users\CYMR90~1\AppData\Local\Temp\ccxAEgth.s:23031  .debug_str:000000000000ba0c .LASF4342
C:\Users\CYMR90~1\AppData\Local\Temp\ccxAEgth.s:30428  .debug_str:0000000000029480 .LASF4343
C:\Users\CYMR90~1\AppData\Local\Temp\ccxAEgth.s:22799  .debug_str:000000000000aa94 .LASF4344
C:\Users\CYMR90~1\AppData\Local\Temp\ccxAEgth.s:20123  .debug_str:000000000000016d .LASF4345
C:\Users\CYMR90~1\AppData\Local\Temp\ccxAEgth.s:29304  .debug_str:0000000000024962 .LASF4346
C:\Users\CYMR90~1\AppData\Local\Temp\ccxAEgth.s:28494  .debug_str:0000000000021769 .LASF4347
C:\Users\CYMR90~1\AppData\Local\Temp\ccxAEgth.s:25852  .debug_str:0000000000016fc4 .LASF4348
C:\Users\CYMR90~1\AppData\Local\Temp\ccxAEgth.s:29794  .debug_str:0000000000026a84 .LASF4349
C:\Users\CYMR90~1\AppData\Local\Temp\ccxAEgth.s:25982  .debug_str:00000000000177aa .LASF4350
C:\Users\CYMR90~1\AppData\Local\Temp\ccxAEgth.s:26762  .debug_str:000000000001aabc .LASF4351
C:\Users\CYMR90~1\AppData\Local\Temp\ccxAEgth.s:29756  .debug_str:000000000002683b .LASF4352
C:\Users\CYMR90~1\AppData\Local\Temp\ccxAEgth.s:29888  .debug_str:0000000000027016 .LASF4353
C:\Users\CYMR90~1\AppData\Local\Temp\ccxAEgth.s:26898  .debug_str:000000000001b384 .LASF4354
C:\Users\CYMR90~1\AppData\Local\Temp\ccxAEgth.s:28936  .debug_str:000000000002318e .LASF4355
C:\Users\CYMR90~1\AppData\Local\Temp\ccxAEgth.s:21835  .debug_str:0000000000006b8e .LASF4356
C:\Users\CYMR90~1\AppData\Local\Temp\ccxAEgth.s:25775  .debug_str:0000000000016994 .LASF4357
C:\Users\CYMR90~1\AppData\Local\Temp\ccxAEgth.s:29730  .debug_str:0000000000026662 .LASF4358
C:\Users\CYMR90~1\AppData\Local\Temp\ccxAEgth.s:21175  .debug_str:00000000000042a4 .LASF4359
C:\Users\CYMR90~1\AppData\Local\Temp\ccxAEgth.s:26290  .debug_str:0000000000018ade .LASF4360
C:\Users\CYMR90~1\AppData\Local\Temp\ccxAEgth.s:24931  .debug_str:000000000001344d .LASF4361
C:\Users\CYMR90~1\AppData\Local\Temp\ccxAEgth.s:27030  .debug_str:000000000001bb2e .LASF4362
C:\Users\CYMR90~1\AppData\Local\Temp\ccxAEgth.s:26852  .debug_str:000000000001b0b7 .LASF4363
C:\Users\CYMR90~1\AppData\Local\Temp\ccxAEgth.s:25293  .debug_str:0000000000014a24 .LASF4364
C:\Users\CYMR90~1\AppData\Local\Temp\ccxAEgth.s:21177  .debug_str:00000000000042ca .LASF4365
C:\Users\CYMR90~1\AppData\Local\Temp\ccxAEgth.s:28222  .debug_str:00000000000206f4 .LASF4366
C:\Users\CYMR90~1\AppData\Local\Temp\ccxAEgth.s:24473  .debug_str:0000000000011543 .LASF4367
C:\Users\CYMR90~1\AppData\Local\Temp\ccxAEgth.s:28382  .debug_str:0000000000021017 .LASF4368
C:\Users\CYMR90~1\AppData\Local\Temp\ccxAEgth.s:20997  .debug_str:00000000000036e8 .LASF4369
C:\Users\CYMR90~1\AppData\Local\Temp\ccxAEgth.s:24951  .debug_str:000000000001359b .LASF4370
C:\Users\CYMR90~1\AppData\Local\Temp\ccxAEgth.s:28286  .debug_str:0000000000020ac5 .LASF4371
C:\Users\CYMR90~1\AppData\Local\Temp\ccxAEgth.s:27146  .debug_str:000000000001c258 .LASF4372
C:\Users\CYMR90~1\AppData\Local\Temp\ccxAEgth.s:26310  .debug_str:0000000000018c33 .LASF4373
C:\Users\CYMR90~1\AppData\Local\Temp\ccxAEgth.s:20865  .debug_str:0000000000002e57 .LASF4374
C:\Users\CYMR90~1\AppData\Local\Temp\ccxAEgth.s:21173  .debug_str:000000000000427e .LASF4375
C:\Users\CYMR90~1\AppData\Local\Temp\ccxAEgth.s:24419  .debug_str:00000000000111c3 .LASF4376
C:\Users\CYMR90~1\AppData\Local\Temp\ccxAEgth.s:28312  .debug_str:0000000000020c53 .LASF4377
C:\Users\CYMR90~1\AppData\Local\Temp\ccxAEgth.s:26272  .debug_str:00000000000188f8 .LASF4378
C:\Users\CYMR90~1\AppData\Local\Temp\ccxAEgth.s:24983  .debug_str:0000000000013777 .LASF4379
C:\Users\CYMR90~1\AppData\Local\Temp\ccxAEgth.s:28826  .debug_str:0000000000022b75 .LASF4380
C:\Users\CYMR90~1\AppData\Local\Temp\ccxAEgth.s:31376  .debug_str:000000000002cfe0 .LASF4381
C:\Users\CYMR90~1\AppData\Local\Temp\ccxAEgth.s:22775  .debug_str:000000000000a902 .LASF4382
C:\Users\CYMR90~1\AppData\Local\Temp\ccxAEgth.s:23445  .debug_str:000000000000d590 .LASF4383
C:\Users\CYMR90~1\AppData\Local\Temp\ccxAEgth.s:28956  .debug_str:00000000000232a9 .LASF4384
C:\Users\CYMR90~1\AppData\Local\Temp\ccxAEgth.s:27496  .debug_str:000000000001da37 .LASF4385
C:\Users\CYMR90~1\AppData\Local\Temp\ccxAEgth.s:20179  .debug_str:00000000000004b6 .LASF4386
C:\Users\CYMR90~1\AppData\Local\Temp\ccxAEgth.s:21229  .debug_str:0000000000004631 .LASF4387
C:\Users\CYMR90~1\AppData\Local\Temp\ccxAEgth.s:23621  .debug_str:000000000000dfd1 .LASF4388
C:\Users\CYMR90~1\AppData\Local\Temp\ccxAEgth.s:21789  .debug_str:000000000000689c .LASF4389
C:\Users\CYMR90~1\AppData\Local\Temp\ccxAEgth.s:25005  .debug_str:00000000000138b8 .LASF4390
C:\Users\CYMR90~1\AppData\Local\Temp\ccxAEgth.s:24631  .debug_str:0000000000012053 .LASF4391
C:\Users\CYMR90~1\AppData\Local\Temp\ccxAEgth.s:20859  .debug_str:0000000000002deb .LASF4392
C:\Users\CYMR90~1\AppData\Local\Temp\ccxAEgth.s:21431  .debug_str:0000000000005308 .LASF4393
C:\Users\CYMR90~1\AppData\Local\Temp\ccxAEgth.s:20951  .debug_str:00000000000033f3 .LASF4394
C:\Users\CYMR90~1\AppData\Local\Temp\ccxAEgth.s:20141  .debug_str:000000000000026e .LASF4395
C:\Users\CYMR90~1\AppData\Local\Temp\ccxAEgth.s:22391  .debug_str:0000000000009043 .LASF4396
C:\Users\CYMR90~1\AppData\Local\Temp\ccxAEgth.s:25749  .debug_str:0000000000016778 .LASF4397
C:\Users\CYMR90~1\AppData\Local\Temp\ccxAEgth.s:20849  .debug_str:0000000000002d5e .LASF4398
C:\Users\CYMR90~1\AppData\Local\Temp\ccxAEgth.s:29816  .debug_str:0000000000026bb5 .LASF4399
C:\Users\CYMR90~1\AppData\Local\Temp\ccxAEgth.s:25617  .debug_str:0000000000015ecb .LASF4400
C:\Users\CYMR90~1\AppData\Local\Temp\ccxAEgth.s:26284  .debug_str:0000000000018a51 .LASF4401
C:\Users\CYMR90~1\AppData\Local\Temp\ccxAEgth.s:28968  .debug_str:0000000000023379 .LASF4402
C:\Users\CYMR90~1\AppData\Local\Temp\ccxAEgth.s:28752  .debug_str:00000000000226e7 .LASF4403
C:\Users\CYMR90~1\AppData\Local\Temp\ccxAEgth.s:24835  .debug_str:0000000000012d75 .LASF4404
C:\Users\CYMR90~1\AppData\Local\Temp\ccxAEgth.s:30476  .debug_str:00000000000297ab .LASF4405
C:\Users\CYMR90~1\AppData\Local\Temp\ccxAEgth.s:30704  .debug_str:000000000002a4d8 .LASF4406
C:\Users\CYMR90~1\AppData\Local\Temp\ccxAEgth.s:27390  .debug_str:000000000001d39d .LASF4407
C:\Users\CYMR90~1\AppData\Local\Temp\ccxAEgth.s:29578  .debug_str:0000000000025ce9 .LASF4408
C:\Users\CYMR90~1\AppData\Local\Temp\ccxAEgth.s:24367  .debug_str:0000000000010e82 .LASF4409
C:\Users\CYMR90~1\AppData\Local\Temp\ccxAEgth.s:27546  .debug_str:000000000001ddfc .LASF4410
C:\Users\CYMR90~1\AppData\Local\Temp\ccxAEgth.s:22563  .debug_str:0000000000009b31 .LASF4411
C:\Users\CYMR90~1\AppData\Local\Temp\ccxAEgth.s:26818  .debug_str:000000000001ae7d .LASF4412
C:\Users\CYMR90~1\AppData\Local\Temp\ccxAEgth.s:27388  .debug_str:000000000001d378 .LASF4413
C:\Users\CYMR90~1\AppData\Local\Temp\ccxAEgth.s:22953  .debug_str:000000000000b4ed .LASF4414
C:\Users\CYMR90~1\AppData\Local\Temp\ccxAEgth.s:25962  .debug_str:0000000000017642 .LASF4415
C:\Users\CYMR90~1\AppData\Local\Temp\ccxAEgth.s:27094  .debug_str:000000000001bf65 .LASF4416
C:\Users\CYMR90~1\AppData\Local\Temp\ccxAEgth.s:24765  .debug_str:0000000000012911 .LASF4417
C:\Users\CYMR90~1\AppData\Local\Temp\ccxAEgth.s:28266  .debug_str:0000000000020986 .LASF4418
C:\Users\CYMR90~1\AppData\Local\Temp\ccxAEgth.s:22887  .debug_str:000000000000b0c1 .LASF4419
C:\Users\CYMR90~1\AppData\Local\Temp\ccxAEgth.s:21627  .debug_str:0000000000005e81 .LASF4420
C:\Users\CYMR90~1\AppData\Local\Temp\ccxAEgth.s:25461  .debug_str:000000000001548e .LASF4421
C:\Users\CYMR90~1\AppData\Local\Temp\ccxAEgth.s:24815  .debug_str:0000000000012c3c .LASF4422
C:\Users\CYMR90~1\AppData\Local\Temp\ccxAEgth.s:31080  .debug_str:000000000002bc3c .LASF4423
C:\Users\CYMR90~1\AppData\Local\Temp\ccxAEgth.s:26410  .debug_str:00000000000192eb .LASF4424
C:\Users\CYMR90~1\AppData\Local\Temp\ccxAEgth.s:25960  .debug_str:000000000001762a .LASF4425
C:\Users\CYMR90~1\AppData\Local\Temp\ccxAEgth.s:27414  .debug_str:000000000001d54f .LASF4426
C:\Users\CYMR90~1\AppData\Local\Temp\ccxAEgth.s:29088  .debug_str:0000000000023af3 .LASF4427
C:\Users\CYMR90~1\AppData\Local\Temp\ccxAEgth.s:21463  .debug_str:00000000000054f7 .LASF4428
C:\Users\CYMR90~1\AppData\Local\Temp\ccxAEgth.s:20425  .debug_str:00000000000013a6 .LASF4429
C:\Users\CYMR90~1\AppData\Local\Temp\ccxAEgth.s:27730  .debug_str:000000000001e8f4 .LASF4430
C:\Users\CYMR90~1\AppData\Local\Temp\ccxAEgth.s:28454  .debug_str:00000000000214f2 .LASF4431
C:\Users\CYMR90~1\AppData\Local\Temp\ccxAEgth.s:30650  .debug_str:000000000002a1a6 .LASF4432
C:\Users\CYMR90~1\AppData\Local\Temp\ccxAEgth.s:24491  .debug_str:000000000001165f .LASF4433
C:\Users\CYMR90~1\AppData\Local\Temp\ccxAEgth.s:30306  .debug_str:0000000000028c98 .LASF4434
C:\Users\CYMR90~1\AppData\Local\Temp\ccxAEgth.s:25255  .debug_str:00000000000147ee .LASF4435
C:\Users\CYMR90~1\AppData\Local\Temp\ccxAEgth.s:22847  .debug_str:000000000000ae68 .LASF4436
C:\Users\CYMR90~1\AppData\Local\Temp\ccxAEgth.s:28230  .debug_str:0000000000020764 .LASF4437
C:\Users\CYMR90~1\AppData\Local\Temp\ccxAEgth.s:22285  .debug_str:00000000000089b8 .LASF4438
C:\Users\CYMR90~1\AppData\Local\Temp\ccxAEgth.s:25874  .debug_str:0000000000017106 .LASF4439
C:\Users\CYMR90~1\AppData\Local\Temp\ccxAEgth.s:29050  .debug_str:00000000000238d3 .LASF4440
C:\Users\CYMR90~1\AppData\Local\Temp\ccxAEgth.s:29886  .debug_str:0000000000027004 .LASF4441
C:\Users\CYMR90~1\AppData\Local\Temp\ccxAEgth.s:25291  .debug_str:0000000000014a10 .LASF4442
C:\Users\CYMR90~1\AppData\Local\Temp\ccxAEgth.s:27634  .debug_str:000000000001e308 .LASF4443
C:\Users\CYMR90~1\AppData\Local\Temp\ccxAEgth.s:23265  .debug_str:000000000000c9d6 .LASF4444
C:\Users\CYMR90~1\AppData\Local\Temp\ccxAEgth.s:25071  .debug_str:0000000000013c97 .LASF4445
C:\Users\CYMR90~1\AppData\Local\Temp\ccxAEgth.s:27464  .debug_str:000000000001d863 .LASF4446
C:\Users\CYMR90~1\AppData\Local\Temp\ccxAEgth.s:24843  .debug_str:0000000000012dfc .LASF4447
C:\Users\CYMR90~1\AppData\Local\Temp\ccxAEgth.s:28300  .debug_str:0000000000020bba .LASF4448
C:\Users\CYMR90~1\AppData\Local\Temp\ccxAEgth.s:23813  .debug_str:000000000000ebb5 .LASF4449
C:\Users\CYMR90~1\AppData\Local\Temp\ccxAEgth.s:27412  .debug_str:000000000001d53a .LASF4450
C:\Users\CYMR90~1\AppData\Local\Temp\ccxAEgth.s:20829  .debug_str:0000000000002c35 .LASF4451
C:\Users\CYMR90~1\AppData\Local\Temp\ccxAEgth.s:20611  .debug_str:0000000000001ed1 .LASF4452
C:\Users\CYMR90~1\AppData\Local\Temp\ccxAEgth.s:27134  .debug_str:000000000001c1c8 .LASF4453
C:\Users\CYMR90~1\AppData\Local\Temp\ccxAEgth.s:22199  .debug_str:0000000000008436 .LASF4454
C:\Users\CYMR90~1\AppData\Local\Temp\ccxAEgth.s:30778  .debug_str:000000000002a980 .LASF4455
C:\Users\CYMR90~1\AppData\Local\Temp\ccxAEgth.s:22053  .debug_str:00000000000079c1 .LASF4456
C:\Users\CYMR90~1\AppData\Local\Temp\ccxAEgth.s:20191  .debug_str:0000000000000572 .LASF4457
C:\Users\CYMR90~1\AppData\Local\Temp\ccxAEgth.s:29296  .debug_str:00000000000248f9 .LASF4458
C:\Users\CYMR90~1\AppData\Local\Temp\ccxAEgth.s:26190  .debug_str:00000000000183f9 .LASF4459
C:\Users\CYMR90~1\AppData\Local\Temp\ccxAEgth.s:23919  .debug_str:000000000000f225 .LASF4460
C:\Users\CYMR90~1\AppData\Local\Temp\ccxAEgth.s:28896  .debug_str:0000000000022f5c .LASF4461
C:\Users\CYMR90~1\AppData\Local\Temp\ccxAEgth.s:30598  .debug_str:0000000000029eba .LASF4462
C:\Users\CYMR90~1\AppData\Local\Temp\ccxAEgth.s:23119  .debug_str:000000000000c060 .LASF4463
C:\Users\CYMR90~1\AppData\Local\Temp\ccxAEgth.s:21649  .debug_str:0000000000006017 .LASF4464
C:\Users\CYMR90~1\AppData\Local\Temp\ccxAEgth.s:21285  .debug_str:0000000000004a39 .LASF4465
C:\Users\CYMR90~1\AppData\Local\Temp\ccxAEgth.s:29650  .debug_str:00000000000261c2 .LASF4466
C:\Users\CYMR90~1\AppData\Local\Temp\ccxAEgth.s:23515  .debug_str:000000000000d980 .LASF4467
C:\Users\CYMR90~1\AppData\Local\Temp\ccxAEgth.s:24923  .debug_str:00000000000133c5 .LASF4468
C:\Users\CYMR90~1\AppData\Local\Temp\ccxAEgth.s:22263  .debug_str:0000000000008858 .LASF4469
C:\Users\CYMR90~1\AppData\Local\Temp\ccxAEgth.s:25469  .debug_str:0000000000015504 .LASF4470
C:\Users\CYMR90~1\AppData\Local\Temp\ccxAEgth.s:29436  .debug_str:00000000000252f3 .LASF4471
C:\Users\CYMR90~1\AppData\Local\Temp\ccxAEgth.s:20713  .debug_str:000000000000247f .LASF4472
C:\Users\CYMR90~1\AppData\Local\Temp\ccxAEgth.s:23859  .debug_str:000000000000ee3c .LASF4473
C:\Users\CYMR90~1\AppData\Local\Temp\ccxAEgth.s:20333  .debug_str:0000000000000df6 .LASF4474
C:\Users\CYMR90~1\AppData\Local\Temp\ccxAEgth.s:24321  .debug_str:0000000000010c2b .LASF4475
C:\Users\CYMR90~1\AppData\Local\Temp\ccxAEgth.s:22999  .debug_str:000000000000b7ec .LASF4476
C:\Users\CYMR90~1\AppData\Local\Temp\ccxAEgth.s:27996  .debug_str:000000000001f8af .LASF4477
C:\Users\CYMR90~1\AppData\Local\Temp\ccxAEgth.s:26966  .debug_str:000000000001b76f .LASF4478
C:\Users\CYMR90~1\AppData\Local\Temp\ccxAEgth.s:24729  .debug_str:0000000000012694 .LASF4479
C:\Users\CYMR90~1\AppData\Local\Temp\ccxAEgth.s:20707  .debug_str:0000000000002432 .LASF4480
C:\Users\CYMR90~1\AppData\Local\Temp\ccxAEgth.s:27362  .debug_str:000000000001d1d1 .LASF4481
C:\Users\CYMR90~1\AppData\Local\Temp\ccxAEgth.s:23239  .debug_str:000000000000c864 .LASF4482
C:\Users\CYMR90~1\AppData\Local\Temp\ccxAEgth.s:30762  .debug_str:000000000002a89b .LASF4483
C:\Users\CYMR90~1\AppData\Local\Temp\ccxAEgth.s:26648  .debug_str:000000000001a399 .LASF4484
C:\Users\CYMR90~1\AppData\Local\Temp\ccxAEgth.s:28864  .debug_str:0000000000022d9c .LASF4485
C:\Users\CYMR90~1\AppData\Local\Temp\ccxAEgth.s:30436  .debug_str:0000000000029507 .LASF4486
C:\Users\CYMR90~1\AppData\Local\Temp\ccxAEgth.s:25713  .debug_str:00000000000164d5 .LASF4487
C:\Users\CYMR90~1\AppData\Local\Temp\ccxAEgth.s:26380  .debug_str:0000000000019111 .LASF4488
C:\Users\CYMR90~1\AppData\Local\Temp\ccxAEgth.s:21461  .debug_str:00000000000054de .LASF4489
C:\Users\CYMR90~1\AppData\Local\Temp\ccxAEgth.s:25147  .debug_str:0000000000014174 .LASF4490
C:\Users\CYMR90~1\AppData\Local\Temp\ccxAEgth.s:24101  .debug_str:000000000000fe5c .LASF4491
C:\Users\CYMR90~1\AppData\Local\Temp\ccxAEgth.s:27266  .debug_str:000000000001cad1 .LASF4492
C:\Users\CYMR90~1\AppData\Local\Temp\ccxAEgth.s:28574  .debug_str:0000000000021c4c .LASF4493
C:\Users\CYMR90~1\AppData\Local\Temp\ccxAEgth.s:23475  .debug_str:000000000000d73b .LASF4494
C:\Users\CYMR90~1\AppData\Local\Temp\ccxAEgth.s:30924  .debug_str:000000000002b232 .LASF4495
C:\Users\CYMR90~1\AppData\Local\Temp\ccxAEgth.s:23019  .debug_str:000000000000b95f .LASF4496
C:\Users\CYMR90~1\AppData\Local\Temp\ccxAEgth.s:28180  .debug_str:0000000000020464 .LASF4497
C:\Users\CYMR90~1\AppData\Local\Temp\ccxAEgth.s:25575  .debug_str:0000000000015bbe .LASF4498
C:\Users\CYMR90~1\AppData\Local\Temp\ccxAEgth.s:29038  .debug_str:0000000000023806 .LASF4499
C:\Users\CYMR90~1\AppData\Local\Temp\ccxAEgth.s:30892  .debug_str:000000000002b012 .LASF4500
C:\Users\CYMR90~1\AppData\Local\Temp\ccxAEgth.s:28378  .debug_str:0000000000020fd4 .LASF4501
C:\Users\CYMR90~1\AppData\Local\Temp\ccxAEgth.s:28722  .debug_str:00000000000224e2 .LASF4502
C:\Users\CYMR90~1\AppData\Local\Temp\ccxAEgth.s:25701  .debug_str:0000000000016428 .LASF4503
C:\Users\CYMR90~1\AppData\Local\Temp\ccxAEgth.s:22247  .debug_str:000000000000875f .LASF4504
C:\Users\CYMR90~1\AppData\Local\Temp\ccxAEgth.s:29472  .debug_str:00000000000255b9 .LASF4505
C:\Users\CYMR90~1\AppData\Local\Temp\ccxAEgth.s:26700  .debug_str:000000000001a708 .LASF4506
C:\Users\CYMR90~1\AppData\Local\Temp\ccxAEgth.s:20329  .debug_str:0000000000000db8 .LASF4507
C:\Users\CYMR90~1\AppData\Local\Temp\ccxAEgth.s:28696  .debug_str:0000000000022346 .LASF4508
C:\Users\CYMR90~1\AppData\Local\Temp\ccxAEgth.s:30420  .debug_str:0000000000029413 .LASF4509
C:\Users\CYMR90~1\AppData\Local\Temp\ccxAEgth.s:20791  .debug_str:00000000000029a2 .LASF4510
C:\Users\CYMR90~1\AppData\Local\Temp\ccxAEgth.s:23791  .debug_str:000000000000ea97 .LASF4511
C:\Users\CYMR90~1\AppData\Local\Temp\ccxAEgth.s:27626  .debug_str:000000000001e299 .LASF4512
C:\Users\CYMR90~1\AppData\Local\Temp\ccxAEgth.s:23273  .debug_str:000000000000ca31 .LASF4513
C:\Users\CYMR90~1\AppData\Local\Temp\ccxAEgth.s:25049  .debug_str:0000000000013b6b .LASF4514
C:\Users\CYMR90~1\AppData\Local\Temp\ccxAEgth.s:29388  .debug_str:0000000000024eed .LASF4515
C:\Users\CYMR90~1\AppData\Local\Temp\ccxAEgth.s:24055  .debug_str:000000000000fb3a .LASF4516
C:\Users\CYMR90~1\AppData\Local\Temp\ccxAEgth.s:25055  .debug_str:0000000000013baf .LASF4517
C:\Users\CYMR90~1\AppData\Local\Temp\ccxAEgth.s:21579  .debug_str:0000000000005bb3 .LASF4518
C:\Users\CYMR90~1\AppData\Local\Temp\ccxAEgth.s:21165  .debug_str:00000000000041e7 .LASF4519
C:\Users\CYMR90~1\AppData\Local\Temp\ccxAEgth.s:28490  .debug_str:0000000000021737 .LASF4520
C:\Users\CYMR90~1\AppData\Local\Temp\ccxAEgth.s:28012  .debug_str:000000000001f9ad .LASF4521
C:\Users\CYMR90~1\AppData\Local\Temp\ccxAEgth.s:21259  .debug_str:00000000000048b6 .LASF4522
C:\Users\CYMR90~1\AppData\Local\Temp\ccxAEgth.s:28280  .debug_str:0000000000020a6b .LASF4523
C:\Users\CYMR90~1\AppData\Local\Temp\ccxAEgth.s:29706  .debug_str:0000000000026504 .LASF4524
C:\Users\CYMR90~1\AppData\Local\Temp\ccxAEgth.s:30880  .debug_str:000000000002af68 .LASF4525
C:\Users\CYMR90~1\AppData\Local\Temp\ccxAEgth.s:29622  .debug_str:0000000000025fe0 .LASF4526
C:\Users\CYMR90~1\AppData\Local\Temp\ccxAEgth.s:20477  .debug_str:00000000000016b6 .LASF4527
C:\Users\CYMR90~1\AppData\Local\Temp\ccxAEgth.s:27598  .debug_str:000000000001e0ea .LASF4528
C:\Users\CYMR90~1\AppData\Local\Temp\ccxAEgth.s:29930  .debug_str:000000000002736f .LASF4529
C:\Users\CYMR90~1\AppData\Local\Temp\ccxAEgth.s:22695  .debug_str:000000000000a391 .LASF4530
C:\Users\CYMR90~1\AppData\Local\Temp\ccxAEgth.s:31230  .debug_str:000000000002c676 .LASF4531
C:\Users\CYMR90~1\AppData\Local\Temp\ccxAEgth.s:30586  .debug_str:0000000000029e17 .LASF4532
C:\Users\CYMR90~1\AppData\Local\Temp\ccxAEgth.s:22059  .debug_str:0000000000007a1b .LASF4533
C:\Users\CYMR90~1\AppData\Local\Temp\ccxAEgth.s:21149  .debug_str:000000000000410c .LASF4534
C:\Users\CYMR90~1\AppData\Local\Temp\ccxAEgth.s:29790  .debug_str:0000000000026a3c .LASF4535
C:\Users\CYMR90~1\AppData\Local\Temp\ccxAEgth.s:27150  .debug_str:000000000001c2a1 .LASF4536
C:\Users\CYMR90~1\AppData\Local\Temp\ccxAEgth.s:29764  .debug_str:00000000000268b9 .LASF4537
C:\Users\CYMR90~1\AppData\Local\Temp\ccxAEgth.s:25083  .debug_str:0000000000013d53 .LASF4538
C:\Users\CYMR90~1\AppData\Local\Temp\ccxAEgth.s:23993  .debug_str:000000000000f7b2 .LASF4539
C:\Users\CYMR90~1\AppData\Local\Temp\ccxAEgth.s:27700  .debug_str:000000000001e746 .LASF4540
C:\Users\CYMR90~1\AppData\Local\Temp\ccxAEgth.s:21515  .debug_str:00000000000057e7 .LASF4541
C:\Users\CYMR90~1\AppData\Local\Temp\ccxAEgth.s:28916  .debug_str:000000000002305f .LASF4542
C:\Users\CYMR90~1\AppData\Local\Temp\ccxAEgth.s:26312  .debug_str:0000000000018c59 .LASF4543
C:\Users\CYMR90~1\AppData\Local\Temp\ccxAEgth.s:20675  .debug_str:0000000000002237 .LASF4544
C:\Users\CYMR90~1\AppData\Local\Temp\ccxAEgth.s:20879  .debug_str:0000000000002f2c .LASF4545
C:\Users\CYMR90~1\AppData\Local\Temp\ccxAEgth.s:29586  .debug_str:0000000000025d7e .LASF4546
C:\Users\CYMR90~1\AppData\Local\Temp\ccxAEgth.s:25477  .debug_str:0000000000015570 .LASF4547
C:\Users\CYMR90~1\AppData\Local\Temp\ccxAEgth.s:31384  .debug_str:000000000002d098 .LASF4548
C:\Users\CYMR90~1\AppData\Local\Temp\ccxAEgth.s:24789  .debug_str:0000000000012a76 .LASF4549
C:\Users\CYMR90~1\AppData\Local\Temp\ccxAEgth.s:30180  .debug_str:000000000002847a .LASF4550
C:\Users\CYMR90~1\AppData\Local\Temp\ccxAEgth.s:31382  .debug_str:000000000002d05f .LASF4551
C:\Users\CYMR90~1\AppData\Local\Temp\ccxAEgth.s:27530  .debug_str:000000000001dcec .LASF4552
C:\Users\CYMR90~1\AppData\Local\Temp\ccxAEgth.s:21825  .debug_str:0000000000006ad7 .LASF4553
C:\Users\CYMR90~1\AppData\Local\Temp\ccxAEgth.s:21299  .debug_str:0000000000004b34 .LASF4554
C:\Users\CYMR90~1\AppData\Local\Temp\ccxAEgth.s:25824  .debug_str:0000000000016e38 .LASF4555
C:\Users\CYMR90~1\AppData\Local\Temp\ccxAEgth.s:31024  .debug_str:000000000002b8d5 .LASF4556
C:\Users\CYMR90~1\AppData\Local\Temp\ccxAEgth.s:24867  .debug_str:0000000000012f9f .LASF4557
C:\Users\CYMR90~1\AppData\Local\Temp\ccxAEgth.s:30652  .debug_str:000000000002a1bf .LASF4558
C:\Users\CYMR90~1\AppData\Local\Temp\ccxAEgth.s:29738  .debug_str:0000000000026703 .LASF4559
C:\Users\CYMR90~1\AppData\Local\Temp\ccxAEgth.s:24067  .debug_str:000000000000fbff .LASF4560
C:\Users\CYMR90~1\AppData\Local\Temp\ccxAEgth.s:30482  .debug_str:00000000000297ec .LASF4561
C:\Users\CYMR90~1\AppData\Local\Temp\ccxAEgth.s:27056  .debug_str:000000000001bcfa .LASF4562
C:\Users\CYMR90~1\AppData\Local\Temp\ccxAEgth.s:26530  .debug_str:0000000000019b0a .LASF4563
C:\Users\CYMR90~1\AppData\Local\Temp\ccxAEgth.s:22115  .debug_str:0000000000007ece .LASF4564
C:\Users\CYMR90~1\AppData\Local\Temp\ccxAEgth.s:27234  .debug_str:000000000001c8b9 .LASF4565
C:\Users\CYMR90~1\AppData\Local\Temp\ccxAEgth.s:26836  .debug_str:000000000001af99 .LASF4566
C:\Users\CYMR90~1\AppData\Local\Temp\ccxAEgth.s:28762  .debug_str:0000000000022762 .LASF4567
C:\Users\CYMR90~1\AppData\Local\Temp\ccxAEgth.s:29692  .debug_str:0000000000026422 .LASF4568
C:\Users\CYMR90~1\AppData\Local\Temp\ccxAEgth.s:20587  .debug_str:0000000000001d63 .LASF4569
C:\Users\CYMR90~1\AppData\Local\Temp\ccxAEgth.s:25649  .debug_str:0000000000016095 .LASF4570
C:\Users\CYMR90~1\AppData\Local\Temp\ccxAEgth.s:20893  .debug_str:0000000000003032 .LASF4571
C:\Users\CYMR90~1\AppData\Local\Temp\ccxAEgth.s:23087  .debug_str:000000000000be5c .LASF4572
C:\Users\CYMR90~1\AppData\Local\Temp\ccxAEgth.s:27710  .debug_str:000000000001e7d2 .LASF4573
C:\Users\CYMR90~1\AppData\Local\Temp\ccxAEgth.s:20385  .debug_str:000000000000116c .LASF4574
C:\Users\CYMR90~1\AppData\Local\Temp\ccxAEgth.s:29416  .debug_str:0000000000025108 .LASF4575
C:\Users\CYMR90~1\AppData\Local\Temp\ccxAEgth.s:22221  .debug_str:0000000000008568 .LASF4576
C:\Users\CYMR90~1\AppData\Local\Temp\ccxAEgth.s:27334  .debug_str:000000000001d043 .LASF4577
C:\Users\CYMR90~1\AppData\Local\Temp\ccxAEgth.s:27352  .debug_str:000000000001d13a .LASF4578
C:\Users\CYMR90~1\AppData\Local\Temp\ccxAEgth.s:28322  .debug_str:0000000000020ce1 .LASF4579
C:\Users\CYMR90~1\AppData\Local\Temp\ccxAEgth.s:26774  .debug_str:000000000001ab75 .LASF4580
C:\Users\CYMR90~1\AppData\Local\Temp\ccxAEgth.s:21551  .debug_str:0000000000005a32 .LASF4581
C:\Users\CYMR90~1\AppData\Local\Temp\ccxAEgth.s:30142  .debug_str:0000000000028150 .LASF4582
C:\Users\CYMR90~1\AppData\Local\Temp\ccxAEgth.s:29044  .debug_str:0000000000023882 .LASF4583
C:\Users\CYMR90~1\AppData\Local\Temp\ccxAEgth.s:25373  .debug_str:0000000000014f8b .LASF4584
C:\Users\CYMR90~1\AppData\Local\Temp\ccxAEgth.s:27466  .debug_str:000000000001d878 .LASF4585
C:\Users\CYMR90~1\AppData\Local\Temp\ccxAEgth.s:20855  .debug_str:0000000000002dad .LASF4586
C:\Users\CYMR90~1\AppData\Local\Temp\ccxAEgth.s:20127  .debug_str:00000000000001c1 .LASF4587
C:\Users\CYMR90~1\AppData\Local\Temp\ccxAEgth.s:26482  .debug_str:00000000000197e5 .LASF4588
C:\Users\CYMR90~1\AppData\Local\Temp\ccxAEgth.s:24267  .debug_str:0000000000010826 .LASF4589
C:\Users\CYMR90~1\AppData\Local\Temp\ccxAEgth.s:21163  .debug_str:00000000000041cf .LASF4590
C:\Users\CYMR90~1\AppData\Local\Temp\ccxAEgth.s:26416  .debug_str:0000000000019352 .LASF4591
C:\Users\CYMR90~1\AppData\Local\Temp\ccxAEgth.s:29750  .debug_str:00000000000267e8 .LASF4592
C:\Users\CYMR90~1\AppData\Local\Temp\ccxAEgth.s:20153  .debug_str:0000000000000359 .LASF4593
C:\Users\CYMR90~1\AppData\Local\Temp\ccxAEgth.s:20199  .debug_str:00000000000005c0 .LASF4594
C:\Users\CYMR90~1\AppData\Local\Temp\ccxAEgth.s:30402  .debug_str:0000000000029284 .LASF4595
C:\Users\CYMR90~1\AppData\Local\Temp\ccxAEgth.s:21195  .debug_str:00000000000043fd .LASF4596
C:\Users\CYMR90~1\AppData\Local\Temp\ccxAEgth.s:22839  .debug_str:000000000000ad38 .LASF4597
C:\Users\CYMR90~1\AppData\Local\Temp\ccxAEgth.s:20171  .debug_str:0000000000000455 .LASF4598
C:\Users\CYMR90~1\AppData\Local\Temp\ccxAEgth.s:27688  .debug_str:000000000001e684 .LASF4599
C:\Users\CYMR90~1\AppData\Local\Temp\ccxAEgth.s:25836  .debug_str:0000000000016ef6 .LASF4600
C:\Users\CYMR90~1\AppData\Local\Temp\ccxAEgth.s:20725  .debug_str:000000000000253b .LASF4601
C:\Users\CYMR90~1\AppData\Local\Temp\ccxAEgth.s:29856  .debug_str:0000000000026e38 .LASF4602
C:\Users\CYMR90~1\AppData\Local\Temp\ccxAEgth.s:31186  .debug_str:000000000002c3a0 .LASF4603
C:\Users\CYMR90~1\AppData\Local\Temp\ccxAEgth.s:28146  .debug_str:000000000002018b .LASF4604
C:\Users\CYMR90~1\AppData\Local\Temp\ccxAEgth.s:23179  .debug_str:000000000000c3d8 .LASF4605
C:\Users\CYMR90~1\AppData\Local\Temp\ccxAEgth.s:28770  .debug_str:00000000000227d1 .LASF4606
C:\Users\CYMR90~1\AppData\Local\Temp\ccxAEgth.s:23083  .debug_str:000000000000bdf8 .LASF4607
C:\Users\CYMR90~1\AppData\Local\Temp\ccxAEgth.s:28760  .debug_str:0000000000022744 .LASF4608
C:\Users\CYMR90~1\AppData\Local\Temp\ccxAEgth.s:30296  .debug_str:0000000000028c01 .LASF4609
C:\Users\CYMR90~1\AppData\Local\Temp\ccxAEgth.s:21593  .debug_str:0000000000005c8f .LASF4610
C:\Users\CYMR90~1\AppData\Local\Temp\ccxAEgth.s:24383  .debug_str:0000000000010f7f .LASF4611
C:\Users\CYMR90~1\AppData\Local\Temp\ccxAEgth.s:23559  .debug_str:000000000000dc2a .LASF4612
C:\Users\CYMR90~1\AppData\Local\Temp\ccxAEgth.s:21249  .debug_str:000000000000481c .LASF4613
C:\Users\CYMR90~1\AppData\Local\Temp\ccxAEgth.s:22511  .debug_str:00000000000097fd .LASF4614
C:\Users\CYMR90~1\AppData\Local\Temp\ccxAEgth.s:25045  .debug_str:0000000000013b0b .LASF4615
C:\Users\CYMR90~1\AppData\Local\Temp\ccxAEgth.s:21069  .debug_str:0000000000003b51 .LASF4616
C:\Users\CYMR90~1\AppData\Local\Temp\ccxAEgth.s:21819  .debug_str:0000000000006a68 .LASF4617
C:\Users\CYMR90~1\AppData\Local\Temp\ccxAEgth.s:20103  .debug_str:000000000000002e .LASF4618
C:\Users\CYMR90~1\AppData\Local\Temp\ccxAEgth.s:24369  .debug_str:0000000000010ea6 .LASF4619
C:\Users\CYMR90~1\AppData\Local\Temp\ccxAEgth.s:26732  .debug_str:000000000001a8df .LASF4620
C:\Users\CYMR90~1\AppData\Local\Temp\ccxAEgth.s:25777  .debug_str:00000000000169ba .LASF4621
C:\Users\CYMR90~1\AppData\Local\Temp\ccxAEgth.s:29660  .debug_str:0000000000026229 .LASF4622
C:\Users\CYMR90~1\AppData\Local\Temp\ccxAEgth.s:29188  .debug_str:00000000000241b2 .LASF4623
C:\Users\CYMR90~1\AppData\Local\Temp\ccxAEgth.s:23659  .debug_str:000000000000e21a .LASF4624
C:\Users\CYMR90~1\AppData\Local\Temp\ccxAEgth.s:27810  .debug_str:000000000001ed4f .LASF4625
C:\Users\CYMR90~1\AppData\Local\Temp\ccxAEgth.s:25305  .debug_str:0000000000014afa .LASF4626
C:\Users\CYMR90~1\AppData\Local\Temp\ccxAEgth.s:30470  .debug_str:000000000002972c .LASF4627
C:\Users\CYMR90~1\AppData\Local\Temp\ccxAEgth.s:26336  .debug_str:0000000000018d87 .LASF4628
C:\Users\CYMR90~1\AppData\Local\Temp\ccxAEgth.s:24895  .debug_str:0000000000013153 .LASF4629
C:\Users\CYMR90~1\AppData\Local\Temp\ccxAEgth.s:28204  .debug_str:00000000000205b3 .LASF4630
C:\Users\CYMR90~1\AppData\Local\Temp\ccxAEgth.s:27792  .debug_str:000000000001ec2c .LASF4631
C:\Users\CYMR90~1\AppData\Local\Temp\ccxAEgth.s:22687  .debug_str:000000000000a2f9 .LASF4632
C:\Users\CYMR90~1\AppData\Local\Temp\ccxAEgth.s:20229  .debug_str:00000000000007a2 .LASF4633
C:\Users\CYMR90~1\AppData\Local\Temp\ccxAEgth.s:26748  .debug_str:000000000001a9de .LASF4634
C:\Users\CYMR90~1\AppData\Local\Temp\ccxAEgth.s:30064  .debug_str:0000000000027bc7 .LASF4635
C:\Users\CYMR90~1\AppData\Local\Temp\ccxAEgth.s:25445  .debug_str:0000000000015390 .LASF4636
C:\Users\CYMR90~1\AppData\Local\Temp\ccxAEgth.s:26400  .debug_str:000000000001921e .LASF4637
C:\Users\CYMR90~1\AppData\Local\Temp\ccxAEgth.s:23075  .debug_str:000000000000bd70 .LASF4638
C:\Users\CYMR90~1\AppData\Local\Temp\ccxAEgth.s:26460  .debug_str:0000000000019620 .LASF4639
C:\Users\CYMR90~1\AppData\Local\Temp\ccxAEgth.s:28380  .debug_str:0000000000020fec .LASF4640
C:\Users\CYMR90~1\AppData\Local\Temp\ccxAEgth.s:26484  .debug_str:0000000000019820 .LASF4641
C:\Users\CYMR90~1\AppData\Local\Temp\ccxAEgth.s:21145  .debug_str:00000000000040c3 .LASF4642
C:\Users\CYMR90~1\AppData\Local\Temp\ccxAEgth.s:22739  .debug_str:000000000000a5da .LASF4643
C:\Users\CYMR90~1\AppData\Local\Temp\ccxAEgth.s:23433  .debug_str:000000000000d4ca .LASF4644
C:\Users\CYMR90~1\AppData\Local\Temp\ccxAEgth.s:28218  .debug_str:00000000000206a1 .LASF4645
C:\Users\CYMR90~1\AppData\Local\Temp\ccxAEgth.s:27804  .debug_str:000000000001ece6 .LASF4646
C:\Users\CYMR90~1\AppData\Local\Temp\ccxAEgth.s:23557  .debug_str:000000000000dbee .LASF4647
C:\Users\CYMR90~1\AppData\Local\Temp\ccxAEgth.s:26854  .debug_str:000000000001b0dd .LASF4648
C:\Users\CYMR90~1\AppData\Local\Temp\ccxAEgth.s:30700  .debug_str:000000000002a485 .LASF4649
C:\Users\CYMR90~1\AppData\Local\Temp\ccxAEgth.s:24289  .debug_str:00000000000109b9 .LASF4650
C:\Users\CYMR90~1\AppData\Local\Temp\ccxAEgth.s:25011  .debug_str:0000000000013905 .LASF4651
C:\Users\CYMR90~1\AppData\Local\Temp\ccxAEgth.s:28662  .debug_str:0000000000022188 .LASF4652
C:\Users\CYMR90~1\AppData\Local\Temp\ccxAEgth.s:30802  .debug_str:000000000002aad4 .LASF4653
C:\Users\CYMR90~1\AppData\Local\Temp\ccxAEgth.s:24069  .debug_str:000000000000fc2b .LASF4654
C:\Users\CYMR90~1\AppData\Local\Temp\ccxAEgth.s:28726  .debug_str:0000000000022520 .LASF4655
C:\Users\CYMR90~1\AppData\Local\Temp\ccxAEgth.s:31042  .debug_str:000000000002b9d3 .LASF4656
C:\Users\CYMR90~1\AppData\Local\Temp\ccxAEgth.s:29230  .debug_str:000000000002447c .LASF4657
C:\Users\CYMR90~1\AppData\Local\Temp\ccxAEgth.s:25717  .debug_str:0000000000016512 .LASF4658
C:\Users\CYMR90~1\AppData\Local\Temp\ccxAEgth.s:27200  .debug_str:000000000001c67c .LASF4659
C:\Users\CYMR90~1\AppData\Local\Temp\ccxAEgth.s:26510  .debug_str:00000000000199c0 .LASF4660
C:\Users\CYMR90~1\AppData\Local\Temp\ccxAEgth.s:24205  .debug_str:0000000000010483 .LASF4661
C:\Users\CYMR90~1\AppData\Local\Temp\ccxAEgth.s:24641  .debug_str:00000000000120e5 .LASF4662
C:\Users\CYMR90~1\AppData\Local\Temp\ccxAEgth.s:20953  .debug_str:0000000000003415 .LASF4663
C:\Users\CYMR90~1\AppData\Local\Temp\ccxAEgth.s:21811  .debug_str:00000000000069fc .LASF4664
C:\Users\CYMR90~1\AppData\Local\Temp\ccxAEgth.s:24697  .debug_str:0000000000012483 .LASF4665
C:\Users\CYMR90~1\AppData\Local\Temp\ccxAEgth.s:30842  .debug_str:000000000002ad1d .LASF4666
C:\Users\CYMR90~1\AppData\Local\Temp\ccxAEgth.s:23677  .debug_str:000000000000e33f .LASF4667
C:\Users\CYMR90~1\AppData\Local\Temp\ccxAEgth.s:26612  .debug_str:0000000000019fcc .LASF4668
C:\Users\CYMR90~1\AppData\Local\Temp\ccxAEgth.s:20313  .debug_str:0000000000000ceb .LASF4669
C:\Users\CYMR90~1\AppData\Local\Temp\ccxAEgth.s:30068  .debug_str:0000000000027c14 .LASF4670
C:\Users\CYMR90~1\AppData\Local\Temp\ccxAEgth.s:31294  .debug_str:000000000002caa6 .LASF4671
C:\Users\CYMR90~1\AppData\Local\Temp\ccxAEgth.s:23461  .debug_str:000000000000d66f .LASF4672
C:\Users\CYMR90~1\AppData\Local\Temp\ccxAEgth.s:26124  .debug_str:0000000000018028 .LASF4673
C:\Users\CYMR90~1\AppData\Local\Temp\ccxAEgth.s:20467  .debug_str:0000000000001620 .LASF4674
C:\Users\CYMR90~1\AppData\Local\Temp\ccxAEgth.s:29104  .debug_str:0000000000023be6 .LASF4675
C:\Users\CYMR90~1\AppData\Local\Temp\ccxAEgth.s:25587  .debug_str:0000000000015c98 .LASF4676
C:\Users\CYMR90~1\AppData\Local\Temp\ccxAEgth.s:30768  .debug_str:000000000002a8f3 .LASF4677
C:\Users\CYMR90~1\AppData\Local\Temp\ccxAEgth.s:29722  .debug_str:00000000000265f1 .LASF4678
C:\Users\CYMR90~1\AppData\Local\Temp\ccxAEgth.s:30770  .debug_str:000000000002a911 .LASF4679
C:\Users\CYMR90~1\AppData\Local\Temp\ccxAEgth.s:27138  .debug_str:000000000001c1f6 .LASF4680
C:\Users\CYMR90~1\AppData\Local\Temp\ccxAEgth.s:20413  .debug_str:00000000000012d3 .LASF4681
C:\Users\CYMR90~1\AppData\Local\Temp\ccxAEgth.s:29490  .debug_str:00000000000256e9 .LASF4682
C:\Users\CYMR90~1\AppData\Local\Temp\ccxAEgth.s:27040  .debug_str:000000000001bbed .LASF4683
C:\Users\CYMR90~1\AppData\Local\Temp\ccxAEgth.s:21587  .debug_str:0000000000005c27 .LASF4684
C:\Users\CYMR90~1\AppData\Local\Temp\ccxAEgth.s:23683  .debug_str:000000000000e38d .LASF4685
C:\Users\CYMR90~1\AppData\Local\Temp\ccxAEgth.s:28156  .debug_str:0000000000020262 .LASF4686
C:\Users\CYMR90~1\AppData\Local\Temp\ccxAEgth.s:24831  .debug_str:0000000000012d34 .LASF4687
C:\Users\CYMR90~1\AppData\Local\Temp\ccxAEgth.s:29868  .debug_str:0000000000026f0a .LASF4688
C:\Users\CYMR90~1\AppData\Local\Temp\ccxAEgth.s:25359  .debug_str:0000000000014eb6 .LASF4689
C:\Users\CYMR90~1\AppData\Local\Temp\ccxAEgth.s:25115  .debug_str:0000000000013f41 .LASF4690
C:\Users\CYMR90~1\AppData\Local\Temp\ccxAEgth.s:23169  .debug_str:000000000000c339 .LASF4691
C:\Users\CYMR90~1\AppData\Local\Temp\ccxAEgth.s:28024  .debug_str:000000000001fa68 .LASF4692
C:\Users\CYMR90~1\AppData\Local\Temp\ccxAEgth.s:23781  .debug_str:000000000000e9f1 .LASF4693
C:\Users\CYMR90~1\AppData\Local\Temp\ccxAEgth.s:26568  .debug_str:0000000000019d35 .LASF4694
C:\Users\CYMR90~1\AppData\Local\Temp\ccxAEgth.s:30608  .debug_str:0000000000029f25 .LASF4695
C:\Users\CYMR90~1\AppData\Local\Temp\ccxAEgth.s:28334  .debug_str:0000000000020d83 .LASF4696
C:\Users\CYMR90~1\AppData\Local\Temp\ccxAEgth.s:31120  .debug_str:000000000002bf60 .LASF4697
C:\Users\CYMR90~1\AppData\Local\Temp\ccxAEgth.s:23985  .debug_str:000000000000f73d .LASF4698
C:\Users\CYMR90~1\AppData\Local\Temp\ccxAEgth.s:22401  .debug_str:00000000000090e0 .LASF4699
C:\Users\CYMR90~1\AppData\Local\Temp\ccxAEgth.s:30800  .debug_str:000000000002aab2 .LASF4700
C:\Users\CYMR90~1\AppData\Local\Temp\ccxAEgth.s:28426  .debug_str:0000000000021350 .LASF4701
C:\Users\CYMR90~1\AppData\Local\Temp\ccxAEgth.s:30268  .debug_str:0000000000028a73 .LASF4702
C:\Users\CYMR90~1\AppData\Local\Temp\ccxAEgth.s:21801  .debug_str:000000000000695e .LASF4703
C:\Users\CYMR90~1\AppData\Local\Temp\ccxAEgth.s:28578  .debug_str:0000000000021c70 .LASF4704
C:\Users\CYMR90~1\AppData\Local\Temp\ccxAEgth.s:30432  .debug_str:00000000000294bd .LASF4705
C:\Users\CYMR90~1\AppData\Local\Temp\ccxAEgth.s:30166  .debug_str:000000000002839a .LASF4706
C:\Users\CYMR90~1\AppData\Local\Temp\ccxAEgth.s:29454  .debug_str:0000000000025449 .LASF4707
C:\Users\CYMR90~1\AppData\Local\Temp\ccxAEgth.s:26586  .debug_str:0000000000019e52 .LASF4708
C:\Users\CYMR90~1\AppData\Local\Temp\ccxAEgth.s:22573  .debug_str:0000000000009bd1 .LASF4709
C:\Users\CYMR90~1\AppData\Local\Temp\ccxAEgth.s:23987  .debug_str:000000000000f75f .LASF4710
C:\Users\CYMR90~1\AppData\Local\Temp\ccxAEgth.s:20679  .debug_str:000000000000226a .LASF4711
C:\Users\CYMR90~1\AppData\Local\Temp\ccxAEgth.s:22723  .debug_str:000000000000a509 .LASF4712
C:\Users\CYMR90~1\AppData\Local\Temp\ccxAEgth.s:27656  .debug_str:000000000001e45e .LASF4713
C:\Users\CYMR90~1\AppData\Local\Temp\ccxAEgth.s:25904  .debug_str:00000000000172bc .LASF4714
C:\Users\CYMR90~1\AppData\Local\Temp\ccxAEgth.s:23385  .debug_str:000000000000d149 .LASF4715
C:\Users\CYMR90~1\AppData\Local\Temp\ccxAEgth.s:31174  .debug_str:000000000002c28c .LASF4716
C:\Users\CYMR90~1\AppData\Local\Temp\ccxAEgth.s:25735  .debug_str:000000000001661a .LASF4717
C:\Users\CYMR90~1\AppData\Local\Temp\ccxAEgth.s:30830  .debug_str:000000000002ac5f .LASF4718
C:\Users\CYMR90~1\AppData\Local\Temp\ccxAEgth.s:20885  .debug_str:0000000000002fb4 .LASF4719
C:\Users\CYMR90~1\AppData\Local\Temp\ccxAEgth.s:29206  .debug_str:0000000000024311 .LASF4720
C:\Users\CYMR90~1\AppData\Local\Temp\ccxAEgth.s:25745  .debug_str:0000000000016720 .LASF4721
C:\Users\CYMR90~1\AppData\Local\Temp\ccxAEgth.s:22291  .debug_str:0000000000008a06 .LASF4722
C:\Users\CYMR90~1\AppData\Local\Temp\ccxAEgth.s:29946  .debug_str:000000000002747f .LASF4723
C:\Users\CYMR90~1\AppData\Local\Temp\ccxAEgth.s:28870  .debug_str:0000000000022e03 .LASF4724
C:\Users\CYMR90~1\AppData\Local\Temp\ccxAEgth.s:20651  .debug_str:00000000000020c5 .LASF4725
C:\Users\CYMR90~1\AppData\Local\Temp\ccxAEgth.s:21761  .debug_str:00000000000066ea .LASF4726
C:\Users\CYMR90~1\AppData\Local\Temp\ccxAEgth.s:30086  .debug_str:0000000000027d64 .LASF4727
C:\Users\CYMR90~1\AppData\Local\Temp\ccxAEgth.s:27586  .debug_str:000000000001e049 .LASF4728
C:\Users\CYMR90~1\AppData\Local\Temp\ccxAEgth.s:22121  .debug_str:0000000000007f25 .LASF4729
C:\Users\CYMR90~1\AppData\Local\Temp\ccxAEgth.s:30004  .debug_str:00000000000277b4 .LASF4730
C:\Users\CYMR90~1\AppData\Local\Temp\ccxAEgth.s:23845  .debug_str:000000000000ed67 .LASF4731
C:\Users\CYMR90~1\AppData\Local\Temp\ccxAEgth.s:27272  .debug_str:000000000001cb2b .LASF4732
C:\Users\CYMR90~1\AppData\Local\Temp\ccxAEgth.s:27404  .debug_str:000000000001d451 .LASF4733
C:\Users\CYMR90~1\AppData\Local\Temp\ccxAEgth.s:20635  .debug_str:0000000000001fea .LASF4734
C:\Users\CYMR90~1\AppData\Local\Temp\ccxAEgth.s:24013  .debug_str:000000000000f8a2 .LASF4735
C:\Users\CYMR90~1\AppData\Local\Temp\ccxAEgth.s:30584  .debug_str:0000000000029df8 .LASF4736
C:\Users\CYMR90~1\AppData\Local\Temp\ccxAEgth.s:23823  .debug_str:000000000000ec26 .LASF4737
C:\Users\CYMR90~1\AppData\Local\Temp\ccxAEgth.s:27192  .debug_str:000000000001c566 .LASF4738
C:\Users\CYMR90~1\AppData\Local\Temp\ccxAEgth.s:22903  .debug_str:000000000000b1b7 .LASF4739
C:\Users\CYMR90~1\AppData\Local\Temp\ccxAEgth.s:26054  .debug_str:0000000000017bf9 .LASF4740
C:\Users\CYMR90~1\AppData\Local\Temp\ccxAEgth.s:24233  .debug_str:0000000000010639 .LASF4741
C:\Users\CYMR90~1\AppData\Local\Temp\ccxAEgth.s:20723  .debug_str:0000000000002519 .LASF4742
C:\Users\CYMR90~1\AppData\Local\Temp\ccxAEgth.s:28854  .debug_str:0000000000022d16 .LASF4743
C:\Users\CYMR90~1\AppData\Local\Temp\ccxAEgth.s:20453  .debug_str:0000000000001516 .LASF4744
C:\Users\CYMR90~1\AppData\Local\Temp\ccxAEgth.s:20283  .debug_str:0000000000000b57 .LASF4745
C:\Users\CYMR90~1\AppData\Local\Temp\ccxAEgth.s:21349  .debug_str:0000000000004e2c .LASF4746
C:\Users\CYMR90~1\AppData\Local\Temp\ccxAEgth.s:21983  .debug_str:000000000000750b .LASF4747
C:\Users\CYMR90~1\AppData\Local\Temp\ccxAEgth.s:29676  .debug_str:000000000002633f .LASF4748
C:\Users\CYMR90~1\AppData\Local\Temp\ccxAEgth.s:20639  .debug_str:000000000000201f .LASF4749
C:\Users\CYMR90~1\AppData\Local\Temp\ccxAEgth.s:21205  .debug_str:0000000000004485 .LASF4750
C:\Users\CYMR90~1\AppData\Local\Temp\ccxAEgth.s:22979  .debug_str:000000000000b6ce .LASF4751
C:\Users\CYMR90~1\AppData\Local\Temp\ccxAEgth.s:25818  .debug_str:0000000000016dfb .LASF4752
C:\Users\CYMR90~1\AppData\Local\Temp\ccxAEgth.s:22331  .debug_str:0000000000008cdd .LASF4753
C:\Users\CYMR90~1\AppData\Local\Temp\ccxAEgth.s:28010  .debug_str:000000000001f997 .LASF4754
C:\Users\CYMR90~1\AppData\Local\Temp\ccxAEgth.s:28638  .debug_str:000000000002200b .LASF4755
C:\Users\CYMR90~1\AppData\Local\Temp\ccxAEgth.s:26194  .debug_str:0000000000018435 .LASF4756
C:\Users\CYMR90~1\AppData\Local\Temp\ccxAEgth.s:28732  .debug_str:0000000000022596 .LASF4757
C:\Users\CYMR90~1\AppData\Local\Temp\ccxAEgth.s:25667  .debug_str:00000000000161d6 .LASF4758
C:\Users\CYMR90~1\AppData\Local\Temp\ccxAEgth.s:25571  .debug_str:0000000000015b85 .LASF4759
C:\Users\CYMR90~1\AppData\Local\Temp\ccxAEgth.s:25165  .debug_str:0000000000014277 .LASF4760
C:\Users\CYMR90~1\AppData\Local\Temp\ccxAEgth.s:27724  .debug_str:000000000001e8a4 .LASF4761
C:\Users\CYMR90~1\AppData\Local\Temp\ccxAEgth.s:24405  .debug_str:0000000000011103 .LASF4762
C:\Users\CYMR90~1\AppData\Local\Temp\ccxAEgth.s:27446  .debug_str:000000000001d753 .LASF4763
C:\Users\CYMR90~1\AppData\Local\Temp\ccxAEgth.s:31356  .debug_str:000000000002cef6 .LASF4764
C:\Users\CYMR90~1\AppData\Local\Temp\ccxAEgth.s:23669  .debug_str:000000000000e2bd .LASF4765
C:\Users\CYMR90~1\AppData\Local\Temp\ccxAEgth.s:26154  .debug_str:00000000000181d9 .LASF4766
C:\Users\CYMR90~1\AppData\Local\Temp\ccxAEgth.s:20503  .debug_str:0000000000001865 .LASF4767
C:\Users\CYMR90~1\AppData\Local\Temp\ccxAEgth.s:21131  .debug_str:0000000000003f64 .LASF4768
C:\Users\CYMR90~1\AppData\Local\Temp\ccxAEgth.s:21135  .debug_str:0000000000004034 .LASF4769
C:\Users\CYMR90~1\AppData\Local\Temp\ccxAEgth.s:24319  .debug_str:0000000000010c17 .LASF4770
C:\Users\CYMR90~1\AppData\Local\Temp\ccxAEgth.s:29126  .debug_str:0000000000023d50 .LASF4771
C:\Users\CYMR90~1\AppData\Local\Temp\ccxAEgth.s:24927  .debug_str:00000000000133fb .LASF4772
C:\Users\CYMR90~1\AppData\Local\Temp\ccxAEgth.s:22719  .debug_str:000000000000a4cb .LASF4773
C:\Users\CYMR90~1\AppData\Local\Temp\ccxAEgth.s:28270  .debug_str:00000000000209e5 .LASF4774
C:\Users\CYMR90~1\AppData\Local\Temp\ccxAEgth.s:22063  .debug_str:0000000000007a4b .LASF4775
C:\Users\CYMR90~1\AppData\Local\Temp\ccxAEgth.s:29550  .debug_str:0000000000025b2d .LASF4776
C:\Users\CYMR90~1\AppData\Local\Temp\ccxAEgth.s:29190  .debug_str:00000000000241e2 .LASF4777
C:\Users\CYMR90~1\AppData\Local\Temp\ccxAEgth.s:24147  .debug_str:0000000000010133 .LASF4778
C:\Users\CYMR90~1\AppData\Local\Temp\ccxAEgth.s:25451  .debug_str:00000000000153e8 .LASF4779
C:\Users\CYMR90~1\AppData\Local\Temp\ccxAEgth.s:30974  .debug_str:000000000002b581 .LASF4780
C:\Users\CYMR90~1\AppData\Local\Temp\ccxAEgth.s:29236  .debug_str:00000000000244f4 .LASF4781
C:\Users\CYMR90~1\AppData\Local\Temp\ccxAEgth.s:26446  .debug_str:00000000000194f5 .LASF4782
C:\Users\CYMR90~1\AppData\Local\Temp\ccxAEgth.s:27472  .debug_str:000000000001d8df .LASF4783
C:\Users\CYMR90~1\AppData\Local\Temp\ccxAEgth.s:27898  .debug_str:000000000001f2d4 .LASF4784
C:\Users\CYMR90~1\AppData\Local\Temp\ccxAEgth.s:22341  .debug_str:0000000000008d77 .LASF4785
C:\Users\CYMR90~1\AppData\Local\Temp\ccxAEgth.s:24287  .debug_str:0000000000010993 .LASF4786
C:\Users\CYMR90~1\AppData\Local\Temp\ccxAEgth.s:26246  .debug_str:0000000000018763 .LASF4787
C:\Users\CYMR90~1\AppData\Local\Temp\ccxAEgth.s:25912  .debug_str:0000000000017318 .LASF4788
C:\Users\CYMR90~1\AppData\Local\Temp\ccxAEgth.s:25681  .debug_str:0000000000016281 .LASF4789
C:\Users\CYMR90~1\AppData\Local\Temp\ccxAEgth.s:21083  .debug_str:0000000000003c60 .LASF4790
C:\Users\CYMR90~1\AppData\Local\Temp\ccxAEgth.s:29968  .debug_str:00000000000275a7 .LASF4791
C:\Users\CYMR90~1\AppData\Local\Temp\ccxAEgth.s:23641  .debug_str:000000000000e10a .LASF4792
C:\Users\CYMR90~1\AppData\Local\Temp\ccxAEgth.s:21123  .debug_str:0000000000003ee1 .LASF4793
C:\Users\CYMR90~1\AppData\Local\Temp\ccxAEgth.s:25295  .debug_str:0000000000014a4a .LASF4794
C:\Users\CYMR90~1\AppData\Local\Temp\ccxAEgth.s:23635  .debug_str:000000000000e0af .LASF4795
C:\Users\CYMR90~1\AppData\Local\Temp\ccxAEgth.s:20663  .debug_str:000000000000218f .LASF4796
C:\Users\CYMR90~1\AppData\Local\Temp\ccxAEgth.s:30808  .debug_str:000000000002ab38 .LASF4797
C:\Users\CYMR90~1\AppData\Local\Temp\ccxAEgth.s:22241  .debug_str:00000000000086c9 .LASF4798
C:\Users\CYMR90~1\AppData\Local\Temp\ccxAEgth.s:20841  .debug_str:0000000000002cea .LASF4799
C:\Users\CYMR90~1\AppData\Local\Temp\ccxAEgth.s:24829  .debug_str:0000000000012d1e .LASF4800
C:\Users\CYMR90~1\AppData\Local\Temp\ccxAEgth.s:30542  .debug_str:0000000000029b4b .LASF4801
C:\Users\CYMR90~1\AppData\Local\Temp\ccxAEgth.s:26576  .debug_str:0000000000019daf .LASF4802
C:\Users\CYMR90~1\AppData\Local\Temp\ccxAEgth.s:26614  .debug_str:0000000000019fe3 .LASF4803
C:\Users\CYMR90~1\AppData\Local\Temp\ccxAEgth.s:29496  .debug_str:0000000000025764 .LASF4804
C:\Users\CYMR90~1\AppData\Local\Temp\ccxAEgth.s:25393  .debug_str:00000000000150e3 .LASF4805
C:\Users\CYMR90~1\AppData\Local\Temp\ccxAEgth.s:31326  .debug_str:000000000002cc89 .LASF4806
C:\Users\CYMR90~1\AppData\Local\Temp\ccxAEgth.s:30216  .debug_str:0000000000028727 .LASF4807
C:\Users\CYMR90~1\AppData\Local\Temp\ccxAEgth.s:21599  .debug_str:0000000000005cd8 .LASF4808
C:\Users\CYMR90~1\AppData\Local\Temp\ccxAEgth.s:27756  .debug_str:000000000001ea4c .LASF4809
C:\Users\CYMR90~1\AppData\Local\Temp\ccxAEgth.s:24207  .debug_str:00000000000104c1 .LASF4810
C:\Users\CYMR90~1\AppData\Local\Temp\ccxAEgth.s:31216  .debug_str:000000000002c5b6 .LASF4811
C:\Users\CYMR90~1\AppData\Local\Temp\ccxAEgth.s:29366  .debug_str:0000000000024d74 .LASF4812
C:\Users\CYMR90~1\AppData\Local\Temp\ccxAEgth.s:29274  .debug_str:0000000000024739 .LASF4813
C:\Users\CYMR90~1\AppData\Local\Temp\ccxAEgth.s:21853  .debug_str:0000000000006cb4 .LASF4814
C:\Users\CYMR90~1\AppData\Local\Temp\ccxAEgth.s:25705  .debug_str:0000000000016457 .LASF4815
C:\Users\CYMR90~1\AppData\Local\Temp\ccxAEgth.s:30032  .debug_str:0000000000027975 .LASF4816
C:\Users\CYMR90~1\AppData\Local\Temp\ccxAEgth.s:27254  .debug_str:000000000001c9ef .LASF4817
C:\Users\CYMR90~1\AppData\Local\Temp\ccxAEgth.s:29832  .debug_str:0000000000026c84 .LASF4818
C:\Users\CYMR90~1\AppData\Local\Temp\ccxAEgth.s:26018  .debug_str:00000000000179ec .LASF4819
C:\Users\CYMR90~1\AppData\Local\Temp\ccxAEgth.s:28970  .debug_str:00000000000233a0 .LASF4820
C:\Users\CYMR90~1\AppData\Local\Temp\ccxAEgth.s:22141  .debug_str:000000000000808c .LASF4821
C:\Users\CYMR90~1\AppData\Local\Temp\ccxAEgth.s:27240  .debug_str:000000000001c90c .LASF4822
C:\Users\CYMR90~1\AppData\Local\Temp\ccxAEgth.s:22765  .debug_str:000000000000a877 .LASF4823
C:\Users\CYMR90~1\AppData\Local\Temp\ccxAEgth.s:21731  .debug_str:00000000000064cc .LASF4824
C:\Users\CYMR90~1\AppData\Local\Temp\ccxAEgth.s:25699  .debug_str:000000000001640a .LASF4825
C:\Users\CYMR90~1\AppData\Local\Temp\ccxAEgth.s:26866  .debug_str:000000000001b1a1 .LASF4826
C:\Users\CYMR90~1\AppData\Local\Temp\ccxAEgth.s:21113  .debug_str:0000000000003e6d .LASF4827
C:\Users\CYMR90~1\AppData\Local\Temp\ccxAEgth.s:29572  .debug_str:0000000000025ca4 .LASF4828
C:\Users\CYMR90~1\AppData\Local\Temp\ccxAEgth.s:23721  .debug_str:000000000000e61f .LASF4829
C:\Users\CYMR90~1\AppData\Local\Temp\ccxAEgth.s:27324  .debug_str:000000000001cf91 .LASF4830
C:\Users\CYMR90~1\AppData\Local\Temp\ccxAEgth.s:25199  .debug_str:0000000000014455 .LASF4831
C:\Users\CYMR90~1\AppData\Local\Temp\ccxAEgth.s:22865  .debug_str:000000000000af74 .LASF4832
C:\Users\CYMR90~1\AppData\Local\Temp\ccxAEgth.s:28288  .debug_str:0000000000020aeb .LASF4833
C:\Users\CYMR90~1\AppData\Local\Temp\ccxAEgth.s:29688  .debug_str:00000000000263d2 .LASF4834
C:\Users\CYMR90~1\AppData\Local\Temp\ccxAEgth.s:27970  .debug_str:000000000001f71e .LASF4835
C:\Users\CYMR90~1\AppData\Local\Temp\ccxAEgth.s:28580  .debug_str:0000000000021c94 .LASF4836
C:\Users\CYMR90~1\AppData\Local\Temp\ccxAEgth.s:26838  .debug_str:000000000001afb2 .LASF4837
C:\Users\CYMR90~1\AppData\Local\Temp\ccxAEgth.s:28126  .debug_str:0000000000020075 .LASF4838
C:\Users\CYMR90~1\AppData\Local\Temp\ccxAEgth.s:29634  .debug_str:0000000000026089 .LASF4839
C:\Users\CYMR90~1\AppData\Local\Temp\ccxAEgth.s:29108  .debug_str:0000000000023c26 .LASF4840
C:\Users\CYMR90~1\AppData\Local\Temp\ccxAEgth.s:22311  .debug_str:0000000000008b02 .LASF4841
C:\Users\CYMR90~1\AppData\Local\Temp\ccxAEgth.s:31388  .debug_str:000000000002d0c5 .LASF4842
C:\Users\CYMR90~1\AppData\Local\Temp\ccxAEgth.s:21727  .debug_str:0000000000006483 .LASF4843
C:\Users\CYMR90~1\AppData\Local\Temp\ccxAEgth.s:21369  .debug_str:0000000000004f50 .LASF4844
C:\Users\CYMR90~1\AppData\Local\Temp\ccxAEgth.s:28828  .debug_str:0000000000022b97 .LASF4845
C:\Users\CYMR90~1\AppData\Local\Temp\ccxAEgth.s:28778  .debug_str:0000000000022865 .LASF4846
C:\Users\CYMR90~1\AppData\Local\Temp\ccxAEgth.s:28070  .debug_str:000000000001fd65 .LASF4847
C:\Users\CYMR90~1\AppData\Local\Temp\ccxAEgth.s:20267  .debug_str:00000000000009fd .LASF4848
C:\Users\CYMR90~1\AppData\Local\Temp\ccxAEgth.s:24987  .debug_str:00000000000137b3 .LASF4849
C:\Users\CYMR90~1\AppData\Local\Temp\ccxAEgth.s:26102  .debug_str:0000000000017ea0 .LASF4850
C:\Users\CYMR90~1\AppData\Local\Temp\ccxAEgth.s:23705  .debug_str:000000000000e532 .LASF4851
C:\Users\CYMR90~1\AppData\Local\Temp\ccxAEgth.s:27298  .debug_str:000000000001cd76 .LASF4852
C:\Users\CYMR90~1\AppData\Local\Temp\ccxAEgth.s:25331  .debug_str:0000000000014ce9 .LASF4853
C:\Users\CYMR90~1\AppData\Local\Temp\ccxAEgth.s:20647  .debug_str:000000000000207e .LASF4854
C:\Users\CYMR90~1\AppData\Local\Temp\ccxAEgth.s:22095  .debug_str:0000000000007cf0 .LASF4855
C:\Users\CYMR90~1\AppData\Local\Temp\ccxAEgth.s:23141  .debug_str:000000000000c195 .LASF4856
C:\Users\CYMR90~1\AppData\Local\Temp\ccxAEgth.s:25473  .debug_str:0000000000015539 .LASF4857
C:\Users\CYMR90~1\AppData\Local\Temp\ccxAEgth.s:26988  .debug_str:000000000001b872 .LASF4858
C:\Users\CYMR90~1\AppData\Local\Temp\ccxAEgth.s:21203  .debug_str:0000000000004469 .LASF4859
C:\Users\CYMR90~1\AppData\Local\Temp\ccxAEgth.s:22215  .debug_str:0000000000008520 .LASF4860
C:\Users\CYMR90~1\AppData\Local\Temp\ccxAEgth.s:21255  .debug_str:000000000000487d .LASF4861
C:\Users\CYMR90~1\AppData\Local\Temp\ccxAEgth.s:27566  .debug_str:000000000001df26 .LASF4862
C:\Users\CYMR90~1\AppData\Local\Temp\ccxAEgth.s:29208  .debug_str:000000000002432d .LASF4863
C:\Users\CYMR90~1\AppData\Local\Temp\ccxAEgth.s:30716  .debug_str:000000000002a5bd .LASF4864
C:\Users\CYMR90~1\AppData\Local\Temp\ccxAEgth.s:27222  .debug_str:000000000001c802 .LASF4865
C:\Users\CYMR90~1\AppData\Local\Temp\ccxAEgth.s:28604  .debug_str:0000000000021dfc .LASF4866
C:\Users\CYMR90~1\AppData\Local\Temp\ccxAEgth.s:30158  .debug_str:0000000000028316 .LASF4867
C:\Users\CYMR90~1\AppData\Local\Temp\ccxAEgth.s:28994  .debug_str:000000000002353f .LASF4868
C:\Users\CYMR90~1\AppData\Local\Temp\ccxAEgth.s:25351  .debug_str:0000000000014e39 .LASF4869
C:\Users\CYMR90~1\AppData\Local\Temp\ccxAEgth.s:30916  .debug_str:000000000002b170 .LASF4870
C:\Users\CYMR90~1\AppData\Local\Temp\ccxAEgth.s:22901  .debug_str:000000000000b18e .LASF4871
C:\Users\CYMR90~1\AppData\Local\Temp\ccxAEgth.s:30418  .debug_str:00000000000293ea .LASF4872
C:\Users\CYMR90~1\AppData\Local\Temp\ccxAEgth.s:25425  .debug_str:000000000001528d .LASF4873
C:\Users\CYMR90~1\AppData\Local\Temp\ccxAEgth.s:28482  .debug_str:00000000000216af .LASF4874
C:\Users\CYMR90~1\AppData\Local\Temp\ccxAEgth.s:31346  .debug_str:000000000002ce47 .LASF4875
C:\Users\CYMR90~1\AppData\Local\Temp\ccxAEgth.s:20239  .debug_str:0000000000000839 .LASF4876
C:\Users\CYMR90~1\AppData\Local\Temp\ccxAEgth.s:20185  .debug_str:000000000000050a .LASF4877
C:\Users\CYMR90~1\AppData\Local\Temp\ccxAEgth.s:27770  .debug_str:000000000001eb21 .LASF4878
C:\Users\CYMR90~1\AppData\Local\Temp\ccxAEgth.s:22639  .debug_str:0000000000009fe4 .LASF4879
C:\Users\CYMR90~1\AppData\Local\Temp\ccxAEgth.s:21477  .debug_str:00000000000055b0 .LASF4880
C:\Users\CYMR90~1\AppData\Local\Temp\ccxAEgth.s:23983  .debug_str:000000000000f713 .LASF4881
C:\Users\CYMR90~1\AppData\Local\Temp\ccxAEgth.s:26240  .debug_str:00000000000186f1 .LASF4882
C:\Users\CYMR90~1\AppData\Local\Temp\ccxAEgth.s:20745  .debug_str:00000000000026b9 .LASF4883
C:\Users\CYMR90~1\AppData\Local\Temp\ccxAEgth.s:26488  .debug_str:0000000000019873 .LASF4884
C:\Users\CYMR90~1\AppData\Local\Temp\ccxAEgth.s:27826  .debug_str:000000000001ee73 .LASF4885
C:\Users\CYMR90~1\AppData\Local\Temp\ccxAEgth.s:20275  .debug_str:0000000000000ac3 .LASF4886
C:\Users\CYMR90~1\AppData\Local\Temp\ccxAEgth.s:21709  .debug_str:0000000000006390 .LASF4887
C:\Users\CYMR90~1\AppData\Local\Temp\ccxAEgth.s:24739  .debug_str:0000000000012733 .LASF4888
C:\Users\CYMR90~1\AppData\Local\Temp\ccxAEgth.s:27102  .debug_str:000000000001bffd .LASF4889
C:\Users\CYMR90~1\AppData\Local\Temp\ccxAEgth.s:26490  .debug_str:000000000001989f .LASF4890
C:\Users\CYMR90~1\AppData\Local\Temp\ccxAEgth.s:30866  .debug_str:000000000002ae9d .LASF4891
C:\Users\CYMR90~1\AppData\Local\Temp\ccxAEgth.s:23061  .debug_str:000000000000bc72 .LASF4892
C:\Users\CYMR90~1\AppData\Local\Temp\ccxAEgth.s:26074  .debug_str:0000000000017d41 .LASF4893
C:\Users\CYMR90~1\AppData\Local\Temp\ccxAEgth.s:25089  .debug_str:0000000000013db3 .LASF4894
C:\Users\CYMR90~1\AppData\Local\Temp\ccxAEgth.s:26060  .debug_str:0000000000017c4f .LASF4895
C:\Users\CYMR90~1\AppData\Local\Temp\ccxAEgth.s:28274  .debug_str:0000000000020a10 .LASF4896
C:\Users\CYMR90~1\AppData\Local\Temp\ccxAEgth.s:28278  .debug_str:0000000000020a49 .LASF4897
C:\Users\CYMR90~1\AppData\Local\Temp\ccxAEgth.s:25203  .debug_str:00000000000144bb .LASF4898
C:\Users\CYMR90~1\AppData\Local\Temp\ccxAEgth.s:24155  .debug_str:00000000000101a8 .LASF4899
C:\Users\CYMR90~1\AppData\Local\Temp\ccxAEgth.s:30612  .debug_str:0000000000029f62 .LASF4900
C:\Users\CYMR90~1\AppData\Local\Temp\ccxAEgth.s:22251  .debug_str:000000000000878a .LASF4901
C:\Users\CYMR90~1\AppData\Local\Temp\ccxAEgth.s:24019  .debug_str:000000000000f8f8 .LASF4902
C:\Users\CYMR90~1\AppData\Local\Temp\ccxAEgth.s:20805  .debug_str:0000000000002ac8 .LASF4903
C:\Users\CYMR90~1\AppData\Local\Temp\ccxAEgth.s:24047  .debug_str:000000000000fac9 .LASF4904
C:\Users\CYMR90~1\AppData\Local\Temp\ccxAEgth.s:25866  .debug_str:0000000000017088 .LASF4905
C:\Users\CYMR90~1\AppData\Local\Temp\ccxAEgth.s:23499  .debug_str:000000000000d8a1 .LASF4906
C:\Users\CYMR90~1\AppData\Local\Temp\ccxAEgth.s:25948  .debug_str:000000000001756e .LASF4907
C:\Users\CYMR90~1\AppData\Local\Temp\ccxAEgth.s:22523  .debug_str:00000000000098dc .LASF4908
C:\Users\CYMR90~1\AppData\Local\Temp\ccxAEgth.s:25345  .debug_str:0000000000014ddb .LASF4909
C:\Users\CYMR90~1\AppData\Local\Temp\ccxAEgth.s:22273  .debug_str:00000000000088f2 .LASF4910
C:\Users\CYMR90~1\AppData\Local\Temp\ccxAEgth.s:30956  .debug_str:000000000002b453 .LASF4911
C:\Users\CYMR90~1\AppData\Local\Temp\ccxAEgth.s:30864  .debug_str:000000000002ae78 .LASF4912
C:\Users\CYMR90~1\AppData\Local\Temp\ccxAEgth.s:29162  .debug_str:0000000000024001 .LASF4913
C:\Users\CYMR90~1\AppData\Local\Temp\ccxAEgth.s:30850  .debug_str:000000000002adb7 .LASF4914
C:\Users\CYMR90~1\AppData\Local\Temp\ccxAEgth.s:26136  .debug_str:00000000000180b2 .LASF4915
C:\Users\CYMR90~1\AppData\Local\Temp\ccxAEgth.s:30348  .debug_str:0000000000028f22 .LASF4916
C:\Users\CYMR90~1\AppData\Local\Temp\ccxAEgth.s:30030  .debug_str:0000000000027953 .LASF4917
C:\Users\CYMR90~1\AppData\Local\Temp\ccxAEgth.s:22499  .debug_str:0000000000009735 .LASF4918
C:\Users\CYMR90~1\AppData\Local\Temp\ccxAEgth.s:29776  .debug_str:0000000000026957 .LASF4919
C:\Users\CYMR90~1\AppData\Local\Temp\ccxAEgth.s:26118  .debug_str:0000000000017fbf .LASF4920
C:\Users\CYMR90~1\AppData\Local\Temp\ccxAEgth.s:26026  .debug_str:0000000000017a4d .LASF4921
C:\Users\CYMR90~1\AppData\Local\Temp\ccxAEgth.s:29906  .debug_str:000000000002710e .LASF4922
C:\Users\CYMR90~1\AppData\Local\Temp\ccxAEgth.s:23903  .debug_str:000000000000f10b .LASF4923
C:\Users\CYMR90~1\AppData\Local\Temp\ccxAEgth.s:27276  .debug_str:000000000001cb6f .LASF4924
C:\Users\CYMR90~1\AppData\Local\Temp\ccxAEgth.s:26314  .debug_str:0000000000018c73 .LASF4925
C:\Users\CYMR90~1\AppData\Local\Temp\ccxAEgth.s:23219  .debug_str:000000000000c6c0 .LASF4926
C:\Users\CYMR90~1\AppData\Local\Temp\ccxAEgth.s:29424  .debug_str:0000000000025230 .LASF4927
C:\Users\CYMR90~1\AppData\Local\Temp\ccxAEgth.s:22631  .debug_str:0000000000009f6e .LASF4928
C:\Users\CYMR90~1\AppData\Local\Temp\ccxAEgth.s:29244  .debug_str:0000000000024559 .LASF4929
C:\Users\CYMR90~1\AppData\Local\Temp\ccxAEgth.s:27044  .debug_str:000000000001bc37 .LASF4930
C:\Users\CYMR90~1\AppData\Local\Temp\ccxAEgth.s:23361  .debug_str:000000000000cf88 .LASF4931
C:\Users\CYMR90~1\AppData\Local\Temp\ccxAEgth.s:24223  .debug_str:00000000000105bc .LASF4932
C:\Users\CYMR90~1\AppData\Local\Temp\ccxAEgth.s:20589  .debug_str:0000000000001d7c .LASF4933
C:\Users\CYMR90~1\AppData\Local\Temp\ccxAEgth.s:25814  .debug_str:0000000000016db6 .LASF4934
C:\Users\CYMR90~1\AppData\Local\Temp\ccxAEgth.s:27122  .debug_str:000000000001c10d .LASF4935
C:\Users\CYMR90~1\AppData\Local\Temp\ccxAEgth.s:25243  .debug_str:000000000001473f .LASF4936
C:\Users\CYMR90~1\AppData\Local\Temp\ccxAEgth.s:21193  .debug_str:00000000000043d1 .LASF4937
C:\Users\CYMR90~1\AppData\Local\Temp\ccxAEgth.s:26768  .debug_str:000000000001ab08 .LASF4938
C:\Users\CYMR90~1\AppData\Local\Temp\ccxAEgth.s:29520  .debug_str:0000000000025958 .LASF4939
C:\Users\CYMR90~1\AppData\Local\Temp\ccxAEgth.s:23957  .debug_str:000000000000f4ed .LASF4940
C:\Users\CYMR90~1\AppData\Local\Temp\ccxAEgth.s:23055  .debug_str:000000000000bbde .LASF4941
C:\Users\CYMR90~1\AppData\Local\Temp\ccxAEgth.s:20105  .debug_str:000000000000006a .LASF4942
C:\Users\CYMR90~1\AppData\Local\Temp\ccxAEgth.s:30336  .debug_str:0000000000028e6c .LASF4943
C:\Users\CYMR90~1\AppData\Local\Temp\ccxAEgth.s:28950  .debug_str:0000000000023252 .LASF4944
C:\Users\CYMR90~1\AppData\Local\Temp\ccxAEgth.s:31064  .debug_str:000000000002bb52 .LASF4945
C:\Users\CYMR90~1\AppData\Local\Temp\ccxAEgth.s:25479  .debug_str:000000000001558a .LASF4946
C:\Users\CYMR90~1\AppData\Local\Temp\ccxAEgth.s:23013  .debug_str:000000000000b914 .LASF4947
C:\Users\CYMR90~1\AppData\Local\Temp\ccxAEgth.s:25335  .debug_str:0000000000014d30 .LASF4948
C:\Users\CYMR90~1\AppData\Local\Temp\ccxAEgth.s:22967  .debug_str:000000000000b5fd .LASF4949
C:\Users\CYMR90~1\AppData\Local\Temp\ccxAEgth.s:25525  .debug_str:0000000000015854 .LASF4950
C:\Users\CYMR90~1\AppData\Local\Temp\ccxAEgth.s:24423  .debug_str:00000000000111fd .LASF4951
C:\Users\CYMR90~1\AppData\Local\Temp\ccxAEgth.s:29698  .debug_str:000000000002647b .LASF4952
C:\Users\CYMR90~1\AppData\Local\Temp\ccxAEgth.s:24663  .debug_str:0000000000012251 .LASF4953
C:\Users\CYMR90~1\AppData\Local\Temp\ccxAEgth.s:25401  .debug_str:0000000000015155 .LASF4954
C:\Users\CYMR90~1\AppData\Local\Temp\ccxAEgth.s:24335  .debug_str:0000000000010ce9 .LASF4955
C:\Users\CYMR90~1\AppData\Local\Temp\ccxAEgth.s:30218  .debug_str:0000000000028749 .LASF4956
C:\Users\CYMR90~1\AppData\Local\Temp\ccxAEgth.s:21985  .debug_str:000000000000752d .LASF4957
C:\Users\CYMR90~1\AppData\Local\Temp\ccxAEgth.s:31112  .debug_str:000000000002be5d .LASF4958
C:\Users\CYMR90~1\AppData\Local\Temp\ccxAEgth.s:31126  .debug_str:000000000002bfae .LASF4959
C:\Users\CYMR90~1\AppData\Local\Temp\ccxAEgth.s:28302  .debug_str:0000000000020bd2 .LASF4960
C:\Users\CYMR90~1\AppData\Local\Temp\ccxAEgth.s:20299  .debug_str:0000000000000c21 .LASF4961
C:\Users\CYMR90~1\AppData\Local\Temp\ccxAEgth.s:23007  .debug_str:000000000000b8cb .LASF4962
C:\Users\CYMR90~1\AppData\Local\Temp\ccxAEgth.s:27752  .debug_str:000000000001ea10 .LASF4963
C:\Users\CYMR90~1\AppData\Local\Temp\ccxAEgth.s:21717  .debug_str:00000000000063fb .LASF4964
C:\Users\CYMR90~1\AppData\Local\Temp\ccxAEgth.s:22173  .debug_str:00000000000082a7 .LASF4965
C:\Users\CYMR90~1\AppData\Local\Temp\ccxAEgth.s:24851  .debug_str:0000000000012e95 .LASF4966
C:\Users\CYMR90~1\AppData\Local\Temp\ccxAEgth.s:24271  .debug_str:0000000000010862 .LASF4967
C:\Users\CYMR90~1\AppData\Local\Temp\ccxAEgth.s:28592  .debug_str:0000000000021d61 .LASF4968
C:\Users\CYMR90~1\AppData\Local\Temp\ccxAEgth.s:27630  .debug_str:000000000001e2d5 .LASF4969
C:\Users\CYMR90~1\AppData\Local\Temp\ccxAEgth.s:21397  .debug_str:000000000000510f .LASF4970
C:\Users\CYMR90~1\AppData\Local\Temp\ccxAEgth.s:28428  .debug_str:0000000000021374 .LASF4971
C:\Users\CYMR90~1\AppData\Local\Temp\ccxAEgth.s:31272  .debug_str:000000000002c942 .LASF4972
C:\Users\CYMR90~1\AppData\Local\Temp\ccxAEgth.s:21629  .debug_str:0000000000005ea6 .LASF4973
C:\Users\CYMR90~1\AppData\Local\Temp\ccxAEgth.s:26574  .debug_str:0000000000019d93 .LASF4974
C:\Users\CYMR90~1\AppData\Local\Temp\ccxAEgth.s:25411  .debug_str:00000000000151be .LASF4975
C:\Users\CYMR90~1\AppData\Local\Temp\ccxAEgth.s:28074  .debug_str:000000000001fdb3 .LASF4976
C:\Users\CYMR90~1\AppData\Local\Temp\ccxAEgth.s:30250  .debug_str:000000000002893f .LASF4977
C:\Users\CYMR90~1\AppData\Local\Temp\ccxAEgth.s:25067  .debug_str:0000000000013c54 .LASF4978
C:\Users\CYMR90~1\AppData\Local\Temp\ccxAEgth.s:25001  .debug_str:0000000000013883 .LASF4979
C:\Users\CYMR90~1\AppData\Local\Temp\ccxAEgth.s:20697  .debug_str:00000000000023a1 .LASF4980
C:\Users\CYMR90~1\AppData\Local\Temp\ccxAEgth.s:27682  .debug_str:000000000001e606 .LASF4981
C:\Users\CYMR90~1\AppData\Local\Temp\ccxAEgth.s:27142  .debug_str:000000000001c22a .LASF4982
C:\Users\CYMR90~1\AppData\Local\Temp\ccxAEgth.s:29474  .debug_str:00000000000255d0 .LASF4983
C:\Users\CYMR90~1\AppData\Local\Temp\ccxAEgth.s:21769  .debug_str:000000000000675d .LASF4984
C:\Users\CYMR90~1\AppData\Local\Temp\ccxAEgth.s:20555  .debug_str:0000000000001b6f .LASF4985
C:\Users\CYMR90~1\AppData\Local\Temp\ccxAEgth.s:22361  .debug_str:0000000000008e85 .LASF4986
C:\Users\CYMR90~1\AppData\Local\Temp\ccxAEgth.s:22525  .debug_str:00000000000098ff .LASF4987
C:\Users\CYMR90~1\AppData\Local\Temp\ccxAEgth.s:20567  .debug_str:0000000000001c10 .LASF4988
C:\Users\CYMR90~1\AppData\Local\Temp\ccxAEgth.s:31152  .debug_str:000000000002c149 .LASF4989
C:\Users\CYMR90~1\AppData\Local\Temp\ccxAEgth.s:25287  .debug_str:00000000000149d2 .LASF4990
C:\Users\CYMR90~1\AppData\Local\Temp\ccxAEgth.s:25685  .debug_str:00000000000162c4 .LASF4991
C:\Users\CYMR90~1\AppData\Local\Temp\ccxAEgth.s:24785  .debug_str:0000000000012a4e .LASF4992
C:\Users\CYMR90~1\AppData\Local\Temp\ccxAEgth.s:22849  .debug_str:000000000000ae81 .LASF4993
C:\Users\CYMR90~1\AppData\Local\Temp\ccxAEgth.s:25349  .debug_str:0000000000014e20 .LASF4994
C:\Users\CYMR90~1\AppData\Local\Temp\ccxAEgth.s:21905  .debug_str:000000000000702f .LASF4995
C:\Users\CYMR90~1\AppData\Local\Temp\ccxAEgth.s:26114  .debug_str:0000000000017f82 .LASF4996
C:\Users\CYMR90~1\AppData\Local\Temp\ccxAEgth.s:24005  .debug_str:000000000000f84d .LASF4997
C:\Users\CYMR90~1\AppData\Local\Temp\ccxAEgth.s:25509  .debug_str:0000000000015766 .LASF4998
C:\Users\CYMR90~1\AppData\Local\Temp\ccxAEgth.s:22049  .debug_str:0000000000007974 .LASF4999
C:\Users\CYMR90~1\AppData\Local\Temp\ccxAEgth.s:26790  .debug_str:000000000001ac55 .LASF5000
C:\Users\CYMR90~1\AppData\Local\Temp\ccxAEgth.s:31404  .debug_str:000000000002d1c2 .LASF5001
C:\Users\CYMR90~1\AppData\Local\Temp\ccxAEgth.s:20989  .debug_str:0000000000003656 .LASF5002
C:\Users\CYMR90~1\AppData\Local\Temp\ccxAEgth.s:24645  .debug_str:0000000000012115 .LASF5003
C:\Users\CYMR90~1\AppData\Local\Temp\ccxAEgth.s:28788  .debug_str:00000000000228df .LASF5004
C:\Users\CYMR90~1\AppData\Local\Temp\ccxAEgth.s:21353  .debug_str:0000000000004e6a .LASF5005
C:\Users\CYMR90~1\AppData\Local\Temp\ccxAEgth.s:22575  .debug_str:0000000000009bf0 .LASF5006
C:\Users\CYMR90~1\AppData\Local\Temp\ccxAEgth.s:22521  .debug_str:00000000000098bb .LASF5007
C:\Users\CYMR90~1\AppData\Local\Temp\ccxAEgth.s:23421  .debug_str:000000000000d3df .LASF5008
C:\Users\CYMR90~1\AppData\Local\Temp\ccxAEgth.s:20645  .debug_str:0000000000002061 .LASF5009
C:\Users\CYMR90~1\AppData\Local\Temp\ccxAEgth.s:28558  .debug_str:0000000000021b62 .LASF5010
C:\Users\CYMR90~1\AppData\Local\Temp\ccxAEgth.s:28192  .debug_str:000000000002050b .LASF5011
C:\Users\CYMR90~1\AppData\Local\Temp\ccxAEgth.s:29916  .debug_str:00000000000271ec .LASF5012
C:\Users\CYMR90~1\AppData\Local\Temp\ccxAEgth.s:20513  .debug_str:00000000000018d0 .LASF5013
C:\Users\CYMR90~1\AppData\Local\Temp\ccxAEgth.s:24027  .debug_str:000000000000f97f .LASF5014
C:\Users\CYMR90~1\AppData\Local\Temp\ccxAEgth.s:22407  .debug_str:0000000000009138 .LASF5015
C:\Users\CYMR90~1\AppData\Local\Temp\ccxAEgth.s:29360  .debug_str:0000000000024d25 .LASF5016
C:\Users\CYMR90~1\AppData\Local\Temp\ccxAEgth.s:30832  .debug_str:000000000002ac85 .LASF5017
C:\Users\CYMR90~1\AppData\Local\Temp\ccxAEgth.s:25838  .debug_str:0000000000016f24 .LASF5018
C:\Users\CYMR90~1\AppData\Local\Temp\ccxAEgth.s:25952  .debug_str:00000000000175b5 .LASF5019
C:\Users\CYMR90~1\AppData\Local\Temp\ccxAEgth.s:27498  .debug_str:000000000001da5b .LASF5020
C:\Users\CYMR90~1\AppData\Local\Temp\ccxAEgth.s:22649  .debug_str:000000000000a095 .LASF5021
C:\Users\CYMR90~1\AppData\Local\Temp\ccxAEgth.s:27936  .debug_str:000000000001f517 .LASF5022
C:\Users\CYMR90~1\AppData\Local\Temp\ccxAEgth.s:29124  .debug_str:0000000000023d33 .LASF5023
C:\Users\CYMR90~1\AppData\Local\Temp\ccxAEgth.s:24777  .debug_str:00000000000129e1 .LASF5024
C:\Users\CYMR90~1\AppData\Local\Temp\ccxAEgth.s:20993  .debug_str:000000000000368f .LASF5025
C:\Users\CYMR90~1\AppData\Local\Temp\ccxAEgth.s:24941  .debug_str:00000000000134d2 .LASF5026
C:\Users\CYMR90~1\AppData\Local\Temp\ccxAEgth.s:30066  .debug_str:0000000000027bf5 .LASF5027
C:\Users\CYMR90~1\AppData\Local\Temp\ccxAEgth.s:24439  .debug_str:00000000000112f0 .LASF5028
C:\Users\CYMR90~1\AppData\Local\Temp\ccxAEgth.s:23021  .debug_str:000000000000b97b .LASF5029
C:\Users\CYMR90~1\AppData\Local\Temp\ccxAEgth.s:29114  .debug_str:0000000000023c75 .LASF5030
C:\Users\CYMR90~1\AppData\Local\Temp\ccxAEgth.s:29222  .debug_str:000000000002441c .LASF5031
C:\Users\CYMR90~1\AppData\Local\Temp\ccxAEgth.s:25481  .debug_str:00000000000155a0 .LASF5032
C:\Users\CYMR90~1\AppData\Local\Temp\ccxAEgth.s:21017  .debug_str:0000000000003814 .LASF5033
C:\Users\CYMR90~1\AppData\Local\Temp\ccxAEgth.s:25816  .debug_str:0000000000016de0 .LASF5034
C:\Users\CYMR90~1\AppData\Local\Temp\ccxAEgth.s:20961  .debug_str:00000000000034a6 .LASF5035
C:\Users\CYMR90~1\AppData\Local\Temp\ccxAEgth.s:21289  .debug_str:0000000000004a87 .LASF5036
C:\Users\CYMR90~1\AppData\Local\Temp\ccxAEgth.s:21681  .debug_str:00000000000061d9 .LASF5037
C:\Users\CYMR90~1\AppData\Local\Temp\ccxAEgth.s:29710  .debug_str:0000000000026541 .LASF5038
C:\Users\CYMR90~1\AppData\Local\Temp\ccxAEgth.s:29958  .debug_str:000000000002751e .LASF5039
C:\Users\CYMR90~1\AppData\Local\Temp\ccxAEgth.s:20211  .debug_str:000000000000069d .LASF5040
C:\Users\CYMR90~1\AppData\Local\Temp\ccxAEgth.s:26704  .debug_str:000000000001a736 .LASF5041
C:\Users\CYMR90~1\AppData\Local\Temp\ccxAEgth.s:31092  .debug_str:000000000002bd23 .LASF5042
C:\Users\CYMR90~1\AppData\Local\Temp\ccxAEgth.s:22835  .debug_str:000000000000acff .LASF5043
C:\Users\CYMR90~1\AppData\Local\Temp\ccxAEgth.s:21763  .debug_str:0000000000006705 .LASF5044
C:\Users\CYMR90~1\AppData\Local\Temp\ccxAEgth.s:30016  .debug_str:000000000002784f .LASF5045
C:\Users\CYMR90~1\AppData\Local\Temp\ccxAEgth.s:26728  .debug_str:000000000001a89d .LASF5046
C:\Users\CYMR90~1\AppData\Local\Temp\ccxAEgth.s:27842  .debug_str:000000000001ef7c .LASF5047
C:\Users\CYMR90~1\AppData\Local\Temp\ccxAEgth.s:26980  .debug_str:000000000001b80d .LASF5048
C:\Users\CYMR90~1\AppData\Local\Temp\ccxAEgth.s:21475  .debug_str:0000000000005597 .LASF5049
C:\Users\CYMR90~1\AppData\Local\Temp\ccxAEgth.s:28884  .debug_str:0000000000022ecb .LASF5050
C:\Users\CYMR90~1\AppData\Local\Temp\ccxAEgth.s:28902  .debug_str:0000000000022f9a .LASF5051
C:\Users\CYMR90~1\AppData\Local\Temp\ccxAEgth.s:29396  .debug_str:0000000000024f5f .LASF5052
C:\Users\CYMR90~1\AppData\Local\Temp\ccxAEgth.s:30324  .debug_str:0000000000028d7b .LASF5053
C:\Users\CYMR90~1\AppData\Local\Temp\ccxAEgth.s:28942  .debug_str:00000000000231e5 .LASF5054
C:\Users\CYMR90~1\AppData\Local\Temp\ccxAEgth.s:30444  .debug_str:0000000000029582 .LASF5055
C:\Users\CYMR90~1\AppData\Local\Temp\ccxAEgth.s:24857  .debug_str:0000000000012ef3 .LASF5056
C:\Users\CYMR90~1\AppData\Local\Temp\ccxAEgth.s:24685  .debug_str:00000000000123a6 .LASF5057
C:\Users\CYMR90~1\AppData\Local\Temp\ccxAEgth.s:28468  .debug_str:00000000000215d2 .LASF5058
C:\Users\CYMR90~1\AppData\Local\Temp\ccxAEgth.s:31374  .debug_str:000000000002cfc0 .LASF5059
C:\Users\CYMR90~1\AppData\Local\Temp\ccxAEgth.s:24861  .debug_str:0000000000012f37 .LASF5060
C:\Users\CYMR90~1\AppData\Local\Temp\ccxAEgth.s:26030  .debug_str:0000000000017a8a .LASF5061
C:\Users\CYMR90~1\AppData\Local\Temp\ccxAEgth.s:21347  .debug_str:0000000000004e12 .LASF5062
C:\Users\CYMR90~1\AppData\Local\Temp\ccxAEgth.s:28452  .debug_str:00000000000214db .LASF5063
C:\Users\CYMR90~1\AppData\Local\Temp\ccxAEgth.s:25753  .debug_str:00000000000167ab .LASF5064
C:\Users\CYMR90~1\AppData\Local\Temp\ccxAEgth.s:20861  .debug_str:0000000000002e12 .LASF5065
C:\Users\CYMR90~1\AppData\Local\Temp\ccxAEgth.s:27746  .debug_str:000000000001e9c2 .LASF5066
C:\Users\CYMR90~1\AppData\Local\Temp\ccxAEgth.s:28694  .debug_str:000000000002232e .LASF5067
C:\Users\CYMR90~1\AppData\Local\Temp\ccxAEgth.s:21635  .debug_str:0000000000005f18 .LASF5068
C:\Users\CYMR90~1\AppData\Local\Temp\ccxAEgth.s:29154  .debug_str:0000000000023ed1 .LASF5069
C:\Users\CYMR90~1\AppData\Local\Temp\ccxAEgth.s:27378  .debug_str:000000000001d2c4 .LASF5070
C:\Users\CYMR90~1\AppData\Local\Temp\ccxAEgth.s:27358  .debug_str:000000000001d191 .LASF5071
C:\Users\CYMR90~1\AppData\Local\Temp\ccxAEgth.s:28474  .debug_str:0000000000021650 .LASF5072
C:\Users\CYMR90~1\AppData\Local\Temp\ccxAEgth.s:24733  .debug_str:00000000000126c5 .LASF5073
C:\Users\CYMR90~1\AppData\Local\Temp\ccxAEgth.s:26130  .debug_str:000000000001806e .LASF5074
C:\Users\CYMR90~1\AppData\Local\Temp\ccxAEgth.s:21931  .debug_str:000000000000720a .LASF5075
C:\Users\CYMR90~1\AppData\Local\Temp\ccxAEgth.s:26710  .debug_str:000000000001a780 .LASF5076
C:\Users\CYMR90~1\AppData\Local\Temp\ccxAEgth.s:30562  .debug_str:0000000000029c9a .LASF5077
C:\Users\CYMR90~1\AppData\Local\Temp\ccxAEgth.s:23199  .debug_str:000000000000c52f .LASF5078
C:\Users\CYMR90~1\AppData\Local\Temp\ccxAEgth.s:22819  .debug_str:000000000000abc2 .LASF5079
C:\Users\CYMR90~1\AppData\Local\Temp\ccxAEgth.s:23833  .debug_str:000000000000eca7 .LASF5080
C:\Users\CYMR90~1\AppData\Local\Temp\ccxAEgth.s:21803  .debug_str:0000000000006982 .LASF5081
C:\Users\CYMR90~1\AppData\Local\Temp\ccxAEgth.s:28116  .debug_str:000000000001ffea .LASF5082
C:\Users\CYMR90~1\AppData\Local\Temp\ccxAEgth.s:20701  .debug_str:00000000000023d7 .LASF5083
C:\Users\CYMR90~1\AppData\Local\Temp\ccxAEgth.s:28930  .debug_str:000000000002311d .LASF5084
C:\Users\CYMR90~1\AppData\Local\Temp\ccxAEgth.s:25739  .debug_str:0000000000016681 .LASF5085
C:\Users\CYMR90~1\AppData\Local\Temp\ccxAEgth.s:30788  .debug_str:000000000002aa07 .LASF5086
C:\Users\CYMR90~1\AppData\Local\Temp\ccxAEgth.s:24025  .debug_str:000000000000f95f .LASF5087
C:\Users\CYMR90~1\AppData\Local\Temp\ccxAEgth.s:30108  .debug_str:0000000000027ec7 .LASF5088
C:\Users\CYMR90~1\AppData\Local\Temp\ccxAEgth.s:22009  .debug_str:00000000000076c7 .LASF5089
C:\Users\CYMR90~1\AppData\Local\Temp\ccxAEgth.s:23439  .debug_str:000000000000d53d .LASF5090
C:\Users\CYMR90~1\AppData\Local\Temp\ccxAEgth.s:31282  .debug_str:000000000002c9d0 .LASF5091
C:\Users\CYMR90~1\AppData\Local\Temp\ccxAEgth.s:23067  .debug_str:000000000000bceb .LASF5092
C:\Users\CYMR90~1\AppData\Local\Temp\ccxAEgth.s:22623  .debug_str:0000000000009f01 .LASF5093
C:\Users\CYMR90~1\AppData\Local\Temp\ccxAEgth.s:30020  .debug_str:00000000000278a7 .LASF5094
C:\Users\CYMR90~1\AppData\Local\Temp\ccxAEgth.s:24479  .debug_str:000000000001158f .LASF5095
C:\Users\CYMR90~1\AppData\Local\Temp\ccxAEgth.s:21265  .debug_str:0000000000004916 .LASF5096
C:\Users\CYMR90~1\AppData\Local\Temp\ccxAEgth.s:22567  .debug_str:0000000000009b6a .LASF5097
C:\Users\CYMR90~1\AppData\Local\Temp\ccxAEgth.s:26358  .debug_str:0000000000018fde .LASF5098
C:\Users\CYMR90~1\AppData\Local\Temp\ccxAEgth.s:27320  .debug_str:000000000001cf47 .LASF5099
C:\Users\CYMR90~1\AppData\Local\Temp\ccxAEgth.s:27540  .debug_str:000000000001dda8 .LASF5100
C:\Users\CYMR90~1\AppData\Local\Temp\ccxAEgth.s:23281  .debug_str:000000000000ca9e .LASF5101
C:\Users\CYMR90~1\AppData\Local\Temp\ccxAEgth.s:25537  .debug_str:00000000000158f9 .LASF5102
C:\Users\CYMR90~1\AppData\Local\Temp\ccxAEgth.s:23671  .debug_str:000000000000e2d2 .LASF5103
C:\Users\CYMR90~1\AppData\Local\Temp\ccxAEgth.s:26532  .debug_str:0000000000019b23 .LASF5104
C:\Users\CYMR90~1\AppData\Local\Temp\ccxAEgth.s:26274  .debug_str:0000000000018934 .LASF5105
C:\Users\CYMR90~1\AppData\Local\Temp\ccxAEgth.s:29006  .debug_str:000000000002361a .LASF5106
C:\Users\CYMR90~1\AppData\Local\Temp\ccxAEgth.s:21225  .debug_str:00000000000045ea .LASF5107
C:\Users\CYMR90~1\AppData\Local\Temp\ccxAEgth.s:20281  .debug_str:0000000000000b26 .LASF5108
C:\Users\CYMR90~1\AppData\Local\Temp\ccxAEgth.s:24569  .debug_str:0000000000011c0e .LASF5109
C:\Users\CYMR90~1\AppData\Local\Temp\ccxAEgth.s:25309  .debug_str:0000000000014b36 .LASF5110
C:\Users\CYMR90~1\AppData\Local\Temp\ccxAEgth.s:31154  .debug_str:000000000002c161 .LASF5111
C:\Users\CYMR90~1\AppData\Local\Temp\ccxAEgth.s:23649  .debug_str:000000000000e194 .LASF5112
C:\Users\CYMR90~1\AppData\Local\Temp\ccxAEgth.s:22711  .debug_str:000000000000a44f .LASF5113
C:\Users\CYMR90~1\AppData\Local\Temp\ccxAEgth.s:26364  .debug_str:0000000000019040 .LASF5114
C:\Users\CYMR90~1\AppData\Local\Temp\ccxAEgth.s:23609  .debug_str:000000000000df1e .LASF5115
C:\Users\CYMR90~1\AppData\Local\Temp\ccxAEgth.s:31204  .debug_str:000000000002c4fa .LASF5116
C:\Users\CYMR90~1\AppData\Local\Temp\ccxAEgth.s:20517  .debug_str:000000000000190e .LASF5117
C:\Users\CYMR90~1\AppData\Local\Temp\ccxAEgth.s:30098  .debug_str:0000000000027e16 .LASF5118
C:\Users\CYMR90~1\AppData\Local\Temp\ccxAEgth.s:27440  .debug_str:000000000001d6f7 .LASF5119
C:\Users\CYMR90~1\AppData\Local\Temp\ccxAEgth.s:25796  .debug_str:0000000000016c7d .LASF5120
C:\Users\CYMR90~1\AppData\Local\Temp\ccxAEgth.s:22671  .debug_str:000000000000a214 .LASF5121
C:\Users\CYMR90~1\AppData\Local\Temp\ccxAEgth.s:28514  .debug_str:000000000002186e .LASF5122
C:\Users\CYMR90~1\AppData\Local\Temp\ccxAEgth.s:24863  .debug_str:0000000000012f57 .LASF5123
C:\Users\CYMR90~1\AppData\Local\Temp\ccxAEgth.s:26260  .debug_str:0000000000018842 .LASF5124
C:\Users\CYMR90~1\AppData\Local\Temp\ccxAEgth.s:24963  .debug_str:000000000001363e .LASF5125
C:\Users\CYMR90~1\AppData\Local\Temp\ccxAEgth.s:29194  .debug_str:000000000002422f .LASF5126
C:\Users\CYMR90~1\AppData\Local\Temp\ccxAEgth.s:22463  .debug_str:00000000000094c8 .LASF5127
C:\Users\CYMR90~1\AppData\Local\Temp\ccxAEgth.s:20763  .debug_str:00000000000027eb .LASF5128
C:\Users\CYMR90~1\AppData\Local\Temp\ccxAEgth.s:24539  .debug_str:0000000000011a6c .LASF5129
C:\Users\CYMR90~1\AppData\Local\Temp\ccxAEgth.s:28072  .debug_str:000000000001fd88 .LASF5130
C:\Users\CYMR90~1\AppData\Local\Temp\ccxAEgth.s:20907  .debug_str:0000000000003121 .LASF5131
C:\Users\CYMR90~1\AppData\Local\Temp\ccxAEgth.s:28004  .debug_str:000000000001f920 .LASF5132
C:\Users\CYMR90~1\AppData\Local\Temp\ccxAEgth.s:24949  .debug_str:000000000001356e .LASF5133
C:\Users\CYMR90~1\AppData\Local\Temp\ccxAEgth.s:30438  .debug_str:0000000000029523 .LASF5134
C:\Users\CYMR90~1\AppData\Local\Temp\ccxAEgth.s:22655  .debug_str:000000000000a0ec .LASF5135
C:\Users\CYMR90~1\AppData\Local\Temp\ccxAEgth.s:26354  .debug_str:0000000000018f8b .LASF5136
C:\Users\CYMR90~1\AppData\Local\Temp\ccxAEgth.s:30690  .debug_str:000000000002a3dd .LASF5137
C:\Users\CYMR90~1\AppData\Local\Temp\ccxAEgth.s:21719  .debug_str:0000000000006412 .LASF5138
C:\Users\CYMR90~1\AppData\Local\Temp\ccxAEgth.s:30684  .debug_str:000000000002a374 .LASF5139
C:\Users\CYMR90~1\AppData\Local\Temp\ccxAEgth.s:20839  .debug_str:0000000000002cbd .LASF5140
C:\Users\CYMR90~1\AppData\Local\Temp\ccxAEgth.s:26794  .debug_str:000000000001ac92 .LASF5141
C:\Users\CYMR90~1\AppData\Local\Temp\ccxAEgth.s:23933  .debug_str:000000000000f2df .LASF5142
C:\Users\CYMR90~1\AppData\Local\Temp\ccxAEgth.s:25125  .debug_str:0000000000014018 .LASF5143
C:\Users\CYMR90~1\AppData\Local\Temp\ccxAEgth.s:30330  .debug_str:0000000000028de1 .LASF5144
C:\Users\CYMR90~1\AppData\Local\Temp\ccxAEgth.s:22379  .debug_str:0000000000008f7f .LASF5145
C:\Users\CYMR90~1\AppData\Local\Temp\ccxAEgth.s:27294  .debug_str:000000000001cd1a .LASF5146
C:\Users\CYMR90~1\AppData\Local\Temp\ccxAEgth.s:30732  .debug_str:000000000002a6b2 .LASF5147
C:\Users\CYMR90~1\AppData\Local\Temp\ccxAEgth.s:21219  .debug_str:0000000000004572 .LASF5148
C:\Users\CYMR90~1\AppData\Local\Temp\ccxAEgth.s:29478  .debug_str:0000000000025617 .LASF5149
C:\Users\CYMR90~1\AppData\Local\Temp\ccxAEgth.s:27958  .debug_str:000000000001f634 .LASF5150
C:\Users\CYMR90~1\AppData\Local\Temp\ccxAEgth.s:27120  .debug_str:000000000001c0e5 .LASF5151
C:\Users\CYMR90~1\AppData\Local\Temp\ccxAEgth.s:28096  .debug_str:000000000001fee5 .LASF5152
C:\Users\CYMR90~1\AppData\Local\Temp\ccxAEgth.s:31352  .debug_str:000000000002cea7 .LASF5153
C:\Users\CYMR90~1\AppData\Local\Temp\ccxAEgth.s:20965  .debug_str:00000000000034d5 .LASF5154
C:\Users\CYMR90~1\AppData\Local\Temp\ccxAEgth.s:27704  .debug_str:000000000001e776 .LASF5155
C:\Users\CYMR90~1\AppData\Local\Temp\ccxAEgth.s:28484  .debug_str:00000000000216db .LASF5156
C:\Users\CYMR90~1\AppData\Local\Temp\ccxAEgth.s:20537  .debug_str:0000000000001a48 .LASF5157
C:\Users\CYMR90~1\AppData\Local\Temp\ccxAEgth.s:24773  .debug_str:0000000000012994 .LASF5158
C:\Users\CYMR90~1\AppData\Local\Temp\ccxAEgth.s:26064  .debug_str:0000000000017c94 .LASF5159
C:\Users\CYMR90~1\AppData\Local\Temp\ccxAEgth.s:24279  .debug_str:0000000000010910 .LASF5160
C:\Users\CYMR90~1\AppData\Local\Temp\ccxAEgth.s:26166  .debug_str:0000000000018277 .LASF5161
C:\Users\CYMR90~1\AppData\Local\Temp\ccxAEgth.s:26750  .debug_str:000000000001aa1d .LASF5162
C:\Users\CYMR90~1\AppData\Local\Temp\ccxAEgth.s:28102  .debug_str:000000000001ff46 .LASF5163
C:\Users\CYMR90~1\AppData\Local\Temp\ccxAEgth.s:31390  .debug_str:000000000002d0e7 .LASF5164
C:\Users\CYMR90~1\AppData\Local\Temp\ccxAEgth.s:25237  .debug_str:00000000000146bd .LASF5165
C:\Users\CYMR90~1\AppData\Local\Temp\ccxAEgth.s:26606  .debug_str:0000000000019f71 .LASF5166
C:\Users\CYMR90~1\AppData\Local\Temp\ccxAEgth.s:21437  .debug_str:0000000000005378 .LASF5167
C:\Users\CYMR90~1\AppData\Local\Temp\ccxAEgth.s:29216  .debug_str:0000000000024395 .LASF5168
C:\Users\CYMR90~1\AppData\Local\Temp\ccxAEgth.s:30102  .debug_str:0000000000027e59 .LASF5169
C:\Users\CYMR90~1\AppData\Local\Temp\ccxAEgth.s:22029  .debug_str:0000000000007809 .LASF5170
C:\Users\CYMR90~1\AppData\Local\Temp\ccxAEgth.s:31162  .debug_str:000000000002c208 .LASF5171
C:\Users\CYMR90~1\AppData\Local\Temp\ccxAEgth.s:23787  .debug_str:000000000000ea51 .LASF5172
C:\Users\CYMR90~1\AppData\Local\Temp\ccxAEgth.s:25984  .debug_str:00000000000177d0 .LASF5173
C:\Users\CYMR90~1\AppData\Local\Temp\ccxAEgth.s:22135  .debug_str:000000000000802d .LASF5174
C:\Users\CYMR90~1\AppData\Local\Temp\ccxAEgth.s:21733  .debug_str:00000000000064ee .LASF5175
C:\Users\CYMR90~1\AppData\Local\Temp\ccxAEgth.s:21339  .debug_str:0000000000004d87 .LASF5176
C:\Users\CYMR90~1\AppData\Local\Temp\ccxAEgth.s:29926  .debug_str:0000000000027325 .LASF5177
C:\Users\CYMR90~1\AppData\Local\Temp\ccxAEgth.s:26106  .debug_str:0000000000017eea .LASF5178
C:\Users\CYMR90~1\AppData\Local\Temp\ccxAEgth.s:22205  .debug_str:000000000000847d .LASF5179
C:\Users\CYMR90~1\AppData\Local\Temp\ccxAEgth.s:23227  .debug_str:000000000000c752 .LASF5180
C:\Users\CYMR90~1\AppData\Local\Temp\ccxAEgth.s:27686  .debug_str:000000000001e64e .LASF5181
C:\Users\CYMR90~1\AppData\Local\Temp\ccxAEgth.s:22377  .debug_str:0000000000008f4e .LASF5182
C:\Users\CYMR90~1\AppData\Local\Temp\ccxAEgth.s:30890  .debug_str:000000000002afe8 .LASF5183
C:\Users\CYMR90~1\AppData\Local\Temp\ccxAEgth.s:27676  .debug_str:000000000001e572 .LASF5184
C:\Users\CYMR90~1\AppData\Local\Temp\ccxAEgth.s:22225  .debug_str:00000000000085bb .LASF5185
C:\Users\CYMR90~1\AppData\Local\Temp\ccxAEgth.s:30012  .debug_str:000000000002781d .LASF5186
C:\Users\CYMR90~1\AppData\Local\Temp\ccxAEgth.s:20873  .debug_str:0000000000002ecc .LASF5187
C:\Users\CYMR90~1\AppData\Local\Temp\ccxAEgth.s:28014  .debug_str:000000000001f9c6 .LASF5188
C:\Users\CYMR90~1\AppData\Local\Temp\ccxAEgth.s:30298  .debug_str:0000000000028c1f .LASF5189
C:\Users\CYMR90~1\AppData\Local\Temp\ccxAEgth.s:21319  .debug_str:0000000000004c5d .LASF5190
C:\Users\CYMR90~1\AppData\Local\Temp\ccxAEgth.s:21655  .debug_str:0000000000006061 .LASF5191
C:\Users\CYMR90~1\AppData\Local\Temp\ccxAEgth.s:26626  .debug_str:000000000001a088 .LASF5192
C:\Users\CYMR90~1\AppData\Local\Temp\ccxAEgth.s:25317  .debug_str:0000000000014bf0 .LASF5193
C:\Users\CYMR90~1\AppData\Local\Temp\ccxAEgth.s:24077  .debug_str:000000000000fcae .LASF5194
C:\Users\CYMR90~1\AppData\Local\Temp\ccxAEgth.s:30750  .debug_str:000000000002a7cb .LASF5195
C:\Users\CYMR90~1\AppData\Local\Temp\ccxAEgth.s:27060  .debug_str:000000000001bd37 .LASF5196
C:\Users\CYMR90~1\AppData\Local\Temp\ccxAEgth.s:28550  .debug_str:0000000000021ae0 .LASF5197
C:\Users\CYMR90~1\AppData\Local\Temp\ccxAEgth.s:26828  .debug_str:000000000001af0d .LASF5198
C:\Users\CYMR90~1\AppData\Local\Temp\ccxAEgth.s:22425  .debug_str:0000000000009231 .LASF5199
C:\Users\CYMR90~1\AppData\Local\Temp\ccxAEgth.s:20157  .debug_str:0000000000000394 .LASF5200
C:\Users\CYMR90~1\AppData\Local\Temp\ccxAEgth.s:23489  .debug_str:000000000000d7e4 .LASF5201
C:\Users\CYMR90~1\AppData\Local\Temp\ccxAEgth.s:20747  .debug_str:00000000000026e1 .LASF5202
C:\Users\CYMR90~1\AppData\Local\Temp\ccxAEgth.s:27734  .debug_str:000000000001e927 .LASF5203
C:\Users\CYMR90~1\AppData\Local\Temp\ccxAEgth.s:25339  .debug_str:0000000000014d85 .LASF5204
C:\Users\CYMR90~1\AppData\Local\Temp\ccxAEgth.s:20101  .debug_str:0000000000000000 .LASF5205
C:\Users\CYMR90~1\AppData\Local\Temp\ccxAEgth.s:20547  .debug_str:0000000000001aed .LASF5206
C:\Users\CYMR90~1\AppData\Local\Temp\ccxAEgth.s:30440  .debug_str:0000000000029550 .LASF5207
C:\Users\CYMR90~1\AppData\Local\Temp\ccxAEgth.s:29294  .debug_str:00000000000248d0 .LASF5208
C:\Users\CYMR90~1\AppData\Local\Temp\ccxAEgth.s:30074  .debug_str:0000000000027c6c .LASF5209
C:\Users\CYMR90~1\AppData\Local\Temp\ccxAEgth.s:21441  .debug_str:00000000000053c2 .LASF5210
C:\Users\CYMR90~1\AppData\Local\Temp\ccxAEgth.s:25765  .debug_str:0000000000016871 .LASF5211
C:\Users\CYMR90~1\AppData\Local\Temp\ccxAEgth.s:28050  .debug_str:000000000001fc02 .LASF5212
C:\Users\CYMR90~1\AppData\Local\Temp\ccxAEgth.s:26716  .debug_str:000000000001a7e9 .LASF5213
C:\Users\CYMR90~1\AppData\Local\Temp\ccxAEgth.s:31378  .debug_str:000000000002d002 .LASF5214
C:\Users\CYMR90~1\AppData\Local\Temp\ccxAEgth.s:25896  .debug_str:0000000000017237 .LASF5215
C:\Users\CYMR90~1\AppData\Local\Temp\ccxAEgth.s:21623  .debug_str:0000000000005e40 .LASF5216
C:\Users\CYMR90~1\AppData\Local\Temp\ccxAEgth.s:23891  .debug_str:000000000000f040 .LASF5217
C:\Users\CYMR90~1\AppData\Local\Temp\ccxAEgth.s:24607  .debug_str:0000000000011eb0 .LASF5218
C:\Users\CYMR90~1\AppData\Local\Temp\ccxAEgth.s:26220  .debug_str:0000000000018597 .LASF5219
C:\Users\CYMR90~1\AppData\Local\Temp\ccxAEgth.s:21413  .debug_str:00000000000051fc .LASF5220
C:\Users\CYMR90~1\AppData\Local\Temp\ccxAEgth.s:29464  .debug_str:00000000000254f2 .LASF5221
C:\Users\CYMR90~1\AppData\Local\Temp\ccxAEgth.s:30254  .debug_str:0000000000028974 .LASF5222
C:\Users\CYMR90~1\AppData\Local\Temp\ccxAEgth.s:29714  .debug_str:0000000000026568 .LASF5223
C:\Users\CYMR90~1\AppData\Local\Temp\ccxAEgth.s:24409  .debug_str:000000000001113e .LASF5224
C:\Users\CYMR90~1\AppData\Local\Temp\ccxAEgth.s:23321  .debug_str:000000000000ccc4 .LASF5225
C:\Users\CYMR90~1\AppData\Local\Temp\ccxAEgth.s:28214  .debug_str:0000000000020645 .LASF5226
C:\Users\CYMR90~1\AppData\Local\Temp\ccxAEgth.s:23971  .debug_str:000000000000f647 .LASF5227
C:\Users\CYMR90~1\AppData\Local\Temp\ccxAEgth.s:23287  .debug_str:000000000000caff .LASF5228
C:\Users\CYMR90~1\AppData\Local\Temp\ccxAEgth.s:29690  .debug_str:00000000000263fc .LASF5229
C:\Users\CYMR90~1\AppData\Local\Temp\ccxAEgth.s:30754  .debug_str:000000000002a828 .LASF5230
C:\Users\CYMR90~1\AppData\Local\Temp\ccxAEgth.s:23099  .debug_str:000000000000bef6 .LASF5231
C:\Users\CYMR90~1\AppData\Local\Temp\ccxAEgth.s:21005  .debug_str:0000000000003765 .LASF5232
C:\Users\CYMR90~1\AppData\Local\Temp\ccxAEgth.s:21921  .debug_str:000000000000716f .LASF5233
C:\Users\CYMR90~1\AppData\Local\Temp\ccxAEgth.s:23975  .debug_str:000000000000f696 .LASF5234
C:\Users\CYMR90~1\AppData\Local\Temp\ccxAEgth.s:30946  .debug_str:000000000002b397 .LASF5235
C:\Users\CYMR90~1\AppData\Local\Temp\ccxAEgth.s:30134  .debug_str:00000000000280c2 .LASF5236
C:\Users\CYMR90~1\AppData\Local\Temp\ccxAEgth.s:24661  .debug_str:000000000001222f .LASF5237
C:\Users\CYMR90~1\AppData\Local\Temp\ccxAEgth.s:20833  .debug_str:0000000000002c61 .LASF5238
C:\Users\CYMR90~1\AppData\Local\Temp\ccxAEgth.s:29542  .debug_str:0000000000025ab9 .LASF5239
C:\Users\CYMR90~1\AppData\Local\Temp\ccxAEgth.s:29938  .debug_str:00000000000273fa .LASF5240
C:\Users\CYMR90~1\AppData\Local\Temp\ccxAEgth.s:24427  .debug_str:000000000001123d .LASF5241
C:\Users\CYMR90~1\AppData\Local\Temp\ccxAEgth.s:25599  .debug_str:0000000000015d75 .LASF5242
C:\Users\CYMR90~1\AppData\Local\Temp\ccxAEgth.s:28934  .debug_str:0000000000023156 .LASF5243
C:\Users\CYMR90~1\AppData\Local\Temp\ccxAEgth.s:27668  .debug_str:000000000001e4f2 .LASF5244
C:\Users\CYMR90~1\AppData\Local\Temp\ccxAEgth.s:28582  .debug_str:0000000000021cbc .LASF5245
C:\Users\CYMR90~1\AppData\Local\Temp\ccxAEgth.s:31402  .debug_str:000000000002d19c .LASF5246
C:\Users\CYMR90~1\AppData\Local\Temp\ccxAEgth.s:28764  .debug_str:000000000002277b .LASF5247
C:\Users\CYMR90~1\AppData\Local\Temp\ccxAEgth.s:29372  .debug_str:0000000000024df1 .LASF5248
C:\Users\CYMR90~1\AppData\Local\Temp\ccxAEgth.s:22013  .debug_str:00000000000076fd .LASF5249
C:\Users\CYMR90~1\AppData\Local\Temp\ccxAEgth.s:21373  .debug_str:0000000000004f97 .LASF5250
C:\Users\CYMR90~1\AppData\Local\Temp\ccxAEgth.s:28796  .debug_str:0000000000022946 .LASF5251
C:\Users\CYMR90~1\AppData\Local\Temp\ccxAEgth.s:24721  .debug_str:00000000000125fe .LASF5252
C:\Users\CYMR90~1\AppData\Local\Temp\ccxAEgth.s:29268  .debug_str:00000000000246da .LASF5253
C:\Users\CYMR90~1\AppData\Local\Temp\ccxAEgth.s:30578  .debug_str:0000000000029d90 .LASF5254
C:\Users\CYMR90~1\AppData\Local\Temp\ccxAEgth.s:28850  .debug_str:0000000000022cd8 .LASF5255
C:\Users\CYMR90~1\AppData\Local\Temp\ccxAEgth.s:29508  .debug_str:00000000000258a2 .LASF5256
C:\Users\CYMR90~1\AppData\Local\Temp\ccxAEgth.s:29560  .debug_str:0000000000025c04 .LASF5257
C:\Users\CYMR90~1\AppData\Local\Temp\ccxAEgth.s:28328  .debug_str:0000000000020d41 .LASF5258
C:\Users\CYMR90~1\AppData\Local\Temp\ccxAEgth.s:24073  .debug_str:000000000000fc68 .LASF5259
C:\Users\CYMR90~1\AppData\Local\Temp\ccxAEgth.s:24481  .debug_str:00000000000115b3 .LASF5260
C:\Users\CYMR90~1\AppData\Local\Temp\ccxAEgth.s:29392  .debug_str:0000000000024f20 .LASF5261
C:\Users\CYMR90~1\AppData\Local\Temp\ccxAEgth.s:22773  .debug_str:000000000000a8eb .LASF5262
C:\Users\CYMR90~1\AppData\Local\Temp\ccxAEgth.s:24281  .debug_str:000000000001092f .LASF5263
C:\Users\CYMR90~1\AppData\Local\Temp\ccxAEgth.s:30838  .debug_str:000000000002ace5 .LASF5264
C:\Users\CYMR90~1\AppData\Local\Temp\ccxAEgth.s:22299  .debug_str:0000000000008a7e .LASF5265
C:\Users\CYMR90~1\AppData\Local\Temp\ccxAEgth.s:22881  .debug_str:000000000000b07a .LASF5266
C:\Users\CYMR90~1\AppData\Local\Temp\ccxAEgth.s:29568  .debug_str:0000000000025c75 .LASF5267
C:\Users\CYMR90~1\AppData\Local\Temp\ccxAEgth.s:20377  .debug_str:00000000000010f0 .LASF5268
C:\Users\CYMR90~1\AppData\Local\Temp\ccxAEgth.s:25677  .debug_str:0000000000016249 .LASF5269
C:\Users\CYMR90~1\AppData\Local\Temp\ccxAEgth.s:27748  .debug_str:000000000001e9da .LASF5270
C:\Users\CYMR90~1\AppData\Local\Temp\ccxAEgth.s:30060  .debug_str:0000000000027b7f .LASF5271
C:\Users\CYMR90~1\AppData\Local\Temp\ccxAEgth.s:23735  .debug_str:000000000000e707 .LASF5272
C:\Users\CYMR90~1\AppData\Local\Temp\ccxAEgth.s:30088  .debug_str:0000000000027d7f .LASF5273
C:\Users\CYMR90~1\AppData\Local\Temp\ccxAEgth.s:27690  .debug_str:000000000001e6a2 .LASF5274
C:\Users\CYMR90~1\AppData\Local\Temp\ccxAEgth.s:24485  .debug_str:00000000000115fe .LASF5275
C:\Users\CYMR90~1\AppData\Local\Temp\ccxAEgth.s:28002  .debug_str:000000000001f8ef .LASF5276
C:\Users\CYMR90~1\AppData\Local\Temp\ccxAEgth.s:21355  .debug_str:0000000000004e88 .LASF5277
C:\Users\CYMR90~1\AppData\Local\Temp\ccxAEgth.s:25017  .debug_str:0000000000013964 .LASF5278
C:\Users\CYMR90~1\AppData\Local\Temp\ccxAEgth.s:28044  .debug_str:000000000001fb6b .LASF5279
C:\Users\CYMR90~1\AppData\Local\Temp\ccxAEgth.s:23593  .debug_str:000000000000de37 .LASF5280
C:\Users\CYMR90~1\AppData\Local\Temp\ccxAEgth.s:27256  .debug_str:000000000001ca15 .LASF5281
C:\Users\CYMR90~1\AppData\Local\Temp\ccxAEgth.s:23715  .debug_str:000000000000e5bb .LASF5282
C:\Users\CYMR90~1\AppData\Local\Temp\ccxAEgth.s:30474  .debug_str:0000000000029779 .LASF5283
C:\Users\CYMR90~1\AppData\Local\Temp\ccxAEgth.s:31242  .debug_str:000000000002c710 .LASF5284
C:\Users\CYMR90~1\AppData\Local\Temp\ccxAEgth.s:23745  .debug_str:000000000000e77b .LASF5285
C:\Users\CYMR90~1\AppData\Local\Temp\ccxAEgth.s:20457  .debug_str:000000000000155c .LASF5286
C:\Users\CYMR90~1\AppData\Local\Temp\ccxAEgth.s:26872  .debug_str:000000000001b204 .LASF5287
C:\Users\CYMR90~1\AppData\Local\Temp\ccxAEgth.s:29892  .debug_str:0000000000027055 .LASF5288
C:\Users\CYMR90~1\AppData\Local\Temp\ccxAEgth.s:26758  .debug_str:000000000001aa80 .LASF5289
C:\Users\CYMR90~1\AppData\Local\Temp\ccxAEgth.s:27744  .debug_str:000000000001e9ac .LASF5290
C:\Users\CYMR90~1\AppData\Local\Temp\ccxAEgth.s:20303  .debug_str:0000000000000c5d .LASF5291
C:\Users\CYMR90~1\AppData\Local\Temp\ccxAEgth.s:28348  .debug_str:0000000000020e3d .LASF5292
C:\Users\CYMR90~1\AppData\Local\Temp\ccxAEgth.s:23231  .debug_str:000000000000c7c6 .LASF5293
C:\Users\CYMR90~1\AppData\Local\Temp\ccxAEgth.s:25543  .debug_str:0000000000015971 .LASF5294
C:\Users\CYMR90~1\AppData\Local\Temp\ccxAEgth.s:23999  .debug_str:000000000000f7fc .LASF5295
C:\Users\CYMR90~1\AppData\Local\Temp\ccxAEgth.s:26162  .debug_str:0000000000018247 .LASF5296
C:\Users\CYMR90~1\AppData\Local\Temp\ccxAEgth.s:30740  .debug_str:000000000002a735 .LASF5297
C:\Users\CYMR90~1\AppData\Local\Temp\ccxAEgth.s:24945  .debug_str:0000000000013531 .LASF5298
C:\Users\CYMR90~1\AppData\Local\Temp\ccxAEgth.s:27926  .debug_str:000000000001f47d .LASF5299
C:\Users\CYMR90~1\AppData\Local\Temp\ccxAEgth.s:21989  .debug_str:0000000000007586 .LASF5300
C:\Users\CYMR90~1\AppData\Local\Temp\ccxAEgth.s:29426  .debug_str:000000000002525b .LASF5301
C:\Users\CYMR90~1\AppData\Local\Temp\ccxAEgth.s:21861  .debug_str:0000000000006d2c .LASF5302
C:\Users\CYMR90~1\AppData\Local\Temp\ccxAEgth.s:29970  .debug_str:00000000000275cc .LASF5303
C:\Users\CYMR90~1\AppData\Local\Temp\ccxAEgth.s:30452  .debug_str:00000000000295ee .LASF5304
C:\Users\CYMR90~1\AppData\Local\Temp\ccxAEgth.s:28680  .debug_str:000000000002228d .LASF5305
C:\Users\CYMR90~1\AppData\Local\Temp\ccxAEgth.s:25455  .debug_str:0000000000015427 .LASF5306
C:\Users\CYMR90~1\AppData\Local\Temp\ccxAEgth.s:22305  .debug_str:0000000000008ac5 .LASF5307
C:\Users\CYMR90~1\AppData\Local\Temp\ccxAEgth.s:20915  .debug_str:000000000000318f .LASF5308
C:\Users\CYMR90~1\AppData\Local\Temp\ccxAEgth.s:31150  .debug_str:000000000002c131 .LASF5309
C:\Users\CYMR90~1\AppData\Local\Temp\ccxAEgth.s:22487  .debug_str:000000000000963e .LASF5310
C:\Users\CYMR90~1\AppData\Local\Temp\ccxAEgth.s:22309  .debug_str:0000000000008aec .LASF5311
C:\Users\CYMR90~1\AppData\Local\Temp\ccxAEgth.s:30648  .debug_str:000000000002a18f .LASF5312
C:\Users\CYMR90~1\AppData\Local\Temp\ccxAEgth.s:23835  .debug_str:000000000000ecca .LASF5313
C:\Users\CYMR90~1\AppData\Local\Temp\ccxAEgth.s:30342  .debug_str:0000000000028ed4 .LASF5314
C:\Users\CYMR90~1\AppData\Local\Temp\ccxAEgth.s:22423  .debug_str:0000000000009219 .LASF5315
C:\Users\CYMR90~1\AppData\Local\Temp\ccxAEgth.s:31044  .debug_str:000000000002ba16 .LASF5316
C:\Users\CYMR90~1\AppData\Local\Temp\ccxAEgth.s:29632  .debug_str:0000000000026071 .LASF5317
C:\Users\CYMR90~1\AppData\Local\Temp\ccxAEgth.s:23981  .debug_str:000000000000f6fb .LASF5318
C:\Users\CYMR90~1\AppData\Local\Temp\ccxAEgth.s:21201  .debug_str:0000000000004451 .LASF5319
C:\Users\CYMR90~1\AppData\Local\Temp\ccxAEgth.s:26718  .debug_str:000000000001a810 .LASF5320
C:\Users\CYMR90~1\AppData\Local\Temp\ccxAEgth.s:29386  .debug_str:0000000000024ed5 .LASF5321
C:\Users\CYMR90~1\AppData\Local\Temp\ccxAEgth.s:23917  .debug_str:000000000000f209 .LASF5322
C:\Users\CYMR90~1\AppData\Local\Temp\ccxAEgth.s:20209  .debug_str:0000000000000685 .LASF5323
C:\Users\CYMR90~1\AppData\Local\Temp\ccxAEgth.s:20159  .debug_str:00000000000003be .LASF5324
C:\Users\CYMR90~1\AppData\Local\Temp\ccxAEgth.s:20507  .debug_str:000000000000188e .LASF5325
C:\Users\CYMR90~1\AppData\Local\Temp\ccxAEgth.s:29020  .debug_str:0000000000023720 .LASF5326
C:\Users\CYMR90~1\AppData\Local\Temp\ccxAEgth.s:29686  .debug_str:00000000000263bb .LASF5327
C:\Users\CYMR90~1\AppData\Local\Temp\ccxAEgth.s:24825  .debug_str:0000000000012cd0 .LASF5328
C:\Users\CYMR90~1\AppData\Local\Temp\ccxAEgth.s:26752  .debug_str:000000000001aa41 .LASF5329
C:\Users\CYMR90~1\AppData\Local\Temp\ccxAEgth.s:20789  .debug_str:000000000000298b .LASF5330
C:\Users\CYMR90~1\AppData\Local\Temp\ccxAEgth.s:25551  .debug_str:0000000000015a3f .LASF5331
C:\Users\CYMR90~1\AppData\Local\Temp\ccxAEgth.s:28128  .debug_str:00000000000200a2 .LASF5332
C:\Users\CYMR90~1\AppData\Local\Temp\ccxAEgth.s:30614  .debug_str:0000000000029f84 .LASF5333
C:\Users\CYMR90~1\AppData\Local\Temp\ccxAEgth.s:22213  .debug_str:0000000000008509 .LASF5334
C:\Users\CYMR90~1\AppData\Local\Temp\ccxAEgth.s:28822  .debug_str:0000000000022b37 .LASF5335
C:\Users\CYMR90~1\AppData\Local\Temp\ccxAEgth.s:28108  .debug_str:000000000001ff92 .LASF5336
C:\Users\CYMR90~1\AppData\Local\Temp\ccxAEgth.s:21257  .debug_str:000000000000489f .LASF5337
C:\Users\CYMR90~1\AppData\Local\Temp\ccxAEgth.s:21679  .debug_str:00000000000061c2 .LASF5338
C:\Users\CYMR90~1\AppData\Local\Temp\ccxAEgth.s:28776  .debug_str:0000000000022846 .LASF5339
C:\Users\CYMR90~1\AppData\Local\Temp\ccxAEgth.s:30528  .debug_str:0000000000029a8f .LASF5340
C:\Users\CYMR90~1\AppData\Local\Temp\ccxAEgth.s:26342  .debug_str:0000000000018e15 .LASF5341
C:\Users\CYMR90~1\AppData\Local\Temp\ccxAEgth.s:23133  .debug_str:000000000000c13c .LASF5342
C:\Users\CYMR90~1\AppData\Local\Temp\ccxAEgth.s:27824  .debug_str:000000000001ee56 .LASF5343
C:\Users\CYMR90~1\AppData\Local\Temp\ccxAEgth.s:22949  .debug_str:000000000000b4c9 .LASF5344
C:\Users\CYMR90~1\AppData\Local\Temp\ccxAEgth.s:28220  .debug_str:00000000000206db .LASF5345
C:\Users\CYMR90~1\AppData\Local\Temp\ccxAEgth.s:25021  .debug_str:00000000000139b7 .LASF5346
C:\Users\CYMR90~1\AppData\Local\Temp\ccxAEgth.s:30478  .debug_str:00000000000297cf .LASF5347
C:\Users\CYMR90~1\AppData\Local\Temp\ccxAEgth.s:24163  .debug_str:0000000000010223 .LASF5348
C:\Users\CYMR90~1\AppData\Local\Temp\ccxAEgth.s:23391  .debug_str:000000000000d1a6 .LASF5349
C:\Users\CYMR90~1\AppData\Local\Temp\ccxAEgth.s:27834  .debug_str:000000000001ef0f .LASF5350
C:\Users\CYMR90~1\AppData\Local\Temp\ccxAEgth.s:31068  .debug_str:000000000002bb8e .LASF5351
C:\Users\CYMR90~1\AppData\Local\Temp\ccxAEgth.s:27702  .debug_str:000000000001e75f .LASF5352
C:\Users\CYMR90~1\AppData\Local\Temp\ccxAEgth.s:28946  .debug_str:0000000000023224 .LASF5353
C:\Users\CYMR90~1\AppData\Local\Temp\ccxAEgth.s:22925  .debug_str:000000000000b2d1 .LASF5354
C:\Users\CYMR90~1\AppData\Local\Temp\ccxAEgth.s:29074  .debug_str:0000000000023a31 .LASF5355
C:\Users\CYMR90~1\AppData\Local\Temp\ccxAEgth.s:28684  .debug_str:00000000000222be .LASF5356
C:\Users\CYMR90~1\AppData\Local\Temp\ccxAEgth.s:26594  .debug_str:0000000000019ec9 .LASF5357
C:\Users\CYMR90~1\AppData\Local\Temp\ccxAEgth.s:26120  .debug_str:0000000000017fe1 .LASF5358
C:\Users\CYMR90~1\AppData\Local\Temp\ccxAEgth.s:28552  .debug_str:0000000000021b06 .LASF5359
C:\Users\CYMR90~1\AppData\Local\Temp\ccxAEgth.s:31040  .debug_str:000000000002b9bc .LASF5360
C:\Users\CYMR90~1\AppData\Local\Temp\ccxAEgth.s:22061  .debug_str:0000000000007a34 .LASF5361
C:\Users\CYMR90~1\AppData\Local\Temp\ccxAEgth.s:21513  .debug_str:00000000000057d0 .LASF5362
C:\Users\CYMR90~1\AppData\Local\Temp\ccxAEgth.s:21813  .debug_str:0000000000006a15 .LASF5363
C:\Users\CYMR90~1\AppData\Local\Temp\ccxAEgth.s:23275  .debug_str:000000000000ca48 .LASF5364
C:\Users\CYMR90~1\AppData\Local\Temp\ccxAEgth.s:24627  .debug_str:0000000000012019 .LASF5365
C:\Users\CYMR90~1\AppData\Local\Temp\ccxAEgth.s:23023  .debug_str:000000000000b99c .LASF5366
C:\Users\CYMR90~1\AppData\Local\Temp\ccxAEgth.s:30080  .debug_str:0000000000027d1d .LASF5367
C:\Users\CYMR90~1\AppData\Local\Temp\ccxAEgth.s:29670  .debug_str:00000000000262e1 .LASF5368
C:\Users\CYMR90~1\AppData\Local\Temp\ccxAEgth.s:25369  .debug_str:0000000000014f5b .LASF5369
C:\Users\CYMR90~1\AppData\Local\Temp\ccxAEgth.s:27998  .debug_str:000000000001f8c7 .LASF5370
C:\Users\CYMR90~1\AppData\Local\Temp\ccxAEgth.s:24933  .debug_str:0000000000013473 .LASF5371
C:\Users\CYMR90~1\AppData\Local\Temp\ccxAEgth.s:31220  .debug_str:000000000002c5e6 .LASF5372
C:\Users\CYMR90~1\AppData\Local\Temp\ccxAEgth.s:27486  .debug_str:000000000001d9a5 .LASF5373
C:\Users\CYMR90~1\AppData\Local\Temp\ccxAEgth.s:28236  .debug_str:00000000000207b9 .LASF5374
C:\Users\CYMR90~1\AppData\Local\Temp\ccxAEgth.s:28398  .debug_str:0000000000021100 .LASF5375
C:\Users\CYMR90~1\AppData\Local\Temp\ccxAEgth.s:23353  .debug_str:000000000000cefc .LASF5376
C:\Users\CYMR90~1\AppData\Local\Temp\ccxAEgth.s:27432  .debug_str:000000000001d65a .LASF5377
C:\Users\CYMR90~1\AppData\Local\Temp\ccxAEgth.s:26006  .debug_str:0000000000017932 .LASF5378
C:\Users\CYMR90~1\AppData\Local\Temp\ccxAEgth.s:25179  .debug_str:0000000000014325 .LASF5379
C:\Users\CYMR90~1\AppData\Local\Temp\ccxAEgth.s:25207  .debug_str:0000000000014508 .LASF5380
C:\Users\CYMR90~1\AppData\Local\Temp\ccxAEgth.s:25377  .debug_str:0000000000014fd9 .LASF5381
C:\Users\CYMR90~1\AppData\Local\Temp\ccxAEgth.s:23417  .debug_str:000000000000d3b8 .LASF5382
C:\Users\CYMR90~1\AppData\Local\Temp\ccxAEgth.s:25051  .debug_str:0000000000013b82 .LASF5383
C:\Users\CYMR90~1\AppData\Local\Temp\ccxAEgth.s:20787  .debug_str:000000000000296f .LASF5384
C:\Users\CYMR90~1\AppData\Local\Temp\ccxAEgth.s:22605  .debug_str:0000000000009de1 .LASF5385
C:\Users\CYMR90~1\AppData\Local\Temp\ccxAEgth.s:29406  .debug_str:000000000002507b .LASF5386
C:\Users\CYMR90~1\AppData\Local\Temp\ccxAEgth.s:27344  .debug_str:000000000001d0dc .LASF5387
C:\Users\CYMR90~1\AppData\Local\Temp\ccxAEgth.s:31302  .debug_str:000000000002cb3e .LASF5388
C:\Users\CYMR90~1\AppData\Local\Temp\ccxAEgth.s:25555  .debug_str:0000000000015a65 .LASF5389
C:\Users\CYMR90~1\AppData\Local\Temp\ccxAEgth.s:22637  .debug_str:0000000000009fcc .LASF5390
C:\Users\CYMR90~1\AppData\Local\Temp\ccxAEgth.s:21197  .debug_str:000000000000442b .LASF5391
C:\Users\CYMR90~1\AppData\Local\Temp\ccxAEgth.s:28118  .debug_str:0000000000020008 .LASF5392
C:\Users\CYMR90~1\AppData\Local\Temp\ccxAEgth.s:29502  .debug_str:0000000000025831 .LASF5393
C:\Users\CYMR90~1\AppData\Local\Temp\ccxAEgth.s:23249  .debug_str:000000000000c8e7 .LASF5394
C:\Users\CYMR90~1\AppData\Local\Temp\ccxAEgth.s:22667  .debug_str:000000000000a1b1 .LASF5395
C:\Users\CYMR90~1\AppData\Local\Temp\ccxAEgth.s:26808  .debug_str:000000000001adba .LASF5396
C:\Users\CYMR90~1\AppData\Local\Temp\ccxAEgth.s:24059  .debug_str:000000000000fb6a .LASF5397
C:\Users\CYMR90~1\AppData\Local\Temp\ccxAEgth.s:26282  .debug_str:00000000000189b1 .LASF5398
C:\Users\CYMR90~1\AppData\Local\Temp\ccxAEgth.s:23217  .debug_str:000000000000c673 .LASF5399
C:\Users\CYMR90~1\AppData\Local\Temp\ccxAEgth.s:23355  .debug_str:000000000000cf14 .LASF5400
C:\Users\CYMR90~1\AppData\Local\Temp\ccxAEgth.s:24431  .debug_str:0000000000011281 .LASF5401
C:\Users\CYMR90~1\AppData\Local\Temp\ccxAEgth.s:27480  .debug_str:000000000001d944 .LASF5402
C:\Users\CYMR90~1\AppData\Local\Temp\ccxAEgth.s:22393  .debug_str:0000000000009066 .LASF5403
C:\Users\CYMR90~1\AppData\Local\Temp\ccxAEgth.s:22457  .debug_str:0000000000009475 .LASF5404
C:\Users\CYMR90~1\AppData\Local\Temp\ccxAEgth.s:27368  .debug_str:000000000001d249 .LASF5405
C:\Users\CYMR90~1\AppData\Local\Temp\ccxAEgth.s:25942  .debug_str:00000000000174f4 .LASF5406
C:\Users\CYMR90~1\AppData\Local\Temp\ccxAEgth.s:28702  .debug_str:000000000002238c .LASF5407
C:\Users\CYMR90~1\AppData\Local\Temp\ccxAEgth.s:20109  .debug_str:00000000000000a6 .LASF5408
C:\Users\CYMR90~1\AppData\Local\Temp\ccxAEgth.s:28082  .debug_str:000000000001fe16 .LASF5409
C:\Users\CYMR90~1\AppData\Local\Temp\ccxAEgth.s:31380  .debug_str:000000000002d029 .LASF5410
C:\Users\CYMR90~1\AppData\Local\Temp\ccxAEgth.s:27510  .debug_str:000000000001db90 .LASF5411
C:\Users\CYMR90~1\AppData\Local\Temp\ccxAEgth.s:21563  .debug_str:0000000000005ae4 .LASF5412
C:\Users\CYMR90~1\AppData\Local\Temp\ccxAEgth.s:20727  .debug_str:000000000000255e .LASF5413
C:\Users\CYMR90~1\AppData\Local\Temp\ccxAEgth.s:28318  .debug_str:0000000000020ca4 .LASF5414
C:\Users\CYMR90~1\AppData\Local\Temp\ccxAEgth.s:26596  .debug_str:0000000000019ee0 .LASF5415
C:\Users\CYMR90~1\AppData\Local\Temp\ccxAEgth.s:20201  .debug_str:00000000000005f1 .LASF5416
C:\Users\CYMR90~1\AppData\Local\Temp\ccxAEgth.s:24655  .debug_str:00000000000121b1 .LASF5417
C:\Users\CYMR90~1\AppData\Local\Temp\ccxAEgth.s:25077  .debug_str:0000000000013cf9 .LASF5418
C:\Users\CYMR90~1\AppData\Local\Temp\ccxAEgth.s:24625  .debug_str:0000000000012000 .LASF5419
C:\Users\CYMR90~1\AppData\Local\Temp\ccxAEgth.s:21685  .debug_str:0000000000006224 .LASF5420
C:\Users\CYMR90~1\AppData\Local\Temp\ccxAEgth.s:27984  .debug_str:000000000001f7e5 .LASF5421
C:\Users\CYMR90~1\AppData\Local\Temp\ccxAEgth.s:25956  .debug_str:00000000000175eb .LASF5422
C:\Users\CYMR90~1\AppData\Local\Temp\ccxAEgth.s:20461  .debug_str:00000000000015a2 .LASF5423
C:\Users\CYMR90~1\AppData\Local\Temp\ccxAEgth.s:28036  .debug_str:000000000001fb0a .LASF5424
C:\Users\CYMR90~1\AppData\Local\Temp\ccxAEgth.s:20803  .debug_str:0000000000002aa9 .LASF5425
C:\Users\CYMR90~1\AppData\Local\Temp\ccxAEgth.s:28966  .debug_str:0000000000023342 .LASF5426
C:\Users\CYMR90~1\AppData\Local\Temp\ccxAEgth.s:20417  .debug_str:0000000000001308 .LASF5427
C:\Users\CYMR90~1\AppData\Local\Temp\ccxAEgth.s:29834  .debug_str:0000000000026ca9 .LASF5428
C:\Users\CYMR90~1\AppData\Local\Temp\ccxAEgth.s:25609  .debug_str:0000000000015e2b .LASF5429
C:\Users\CYMR90~1\AppData\Local\Temp\ccxAEgth.s:21025  .debug_str:00000000000038a5 .LASF5430
C:\Users\CYMR90~1\AppData\Local\Temp\ccxAEgth.s:22889  .debug_str:000000000000b0e6 .LASF5431
C:\Users\CYMR90~1\AppData\Local\Temp\ccxAEgth.s:29120  .debug_str:0000000000023ccf .LASF5432
C:\Users\CYMR90~1\AppData\Local\Temp\ccxAEgth.s:21589  .debug_str:0000000000005c5c .LASF5433
C:\Users\CYMR90~1\AppData\Local\Temp\ccxAEgth.s:29980  .debug_str:000000000002765d .LASF5434
C:\Users\CYMR90~1\AppData\Local\Temp\ccxAEgth.s:22155  .debug_str:0000000000008169 .LASF5435
C:\Users\CYMR90~1\AppData\Local\Temp\ccxAEgth.s:30940  .debug_str:000000000002b33a .LASF5436
C:\Users\CYMR90~1\AppData\Local\Temp\ccxAEgth.s:28112  .debug_str:000000000001ffbd .LASF5437
C:\Users\CYMR90~1\AppData\Local\Temp\ccxAEgth.s:26436  .debug_str:0000000000019454 .LASF5438
C:\Users\CYMR90~1\AppData\Local\Temp\ccxAEgth.s:20343  .debug_str:0000000000000efc .LASF5439
C:\Users\CYMR90~1\AppData\Local\Temp\ccxAEgth.s:27940  .debug_str:000000000001f552 .LASF5440
C:\Users\CYMR90~1\AppData\Local\Temp\ccxAEgth.s:21539  .debug_str:0000000000005963 .LASF5441
C:\Users\CYMR90~1\AppData\Local\Temp\ccxAEgth.s:30908  .debug_str:000000000002b0f5 .LASF5442
C:\Users\CYMR90~1\AppData\Local\Temp\ccxAEgth.s:25675  .debug_str:000000000001622c .LASF5443
C:\Users\CYMR90~1\AppData\Local\Temp\ccxAEgth.s:25475  .debug_str:0000000000015555 .LASF5444
C:\Users\CYMR90~1\AppData\Local\Temp\ccxAEgth.s:26508  .debug_str:00000000000199a3 .LASF5445
C:\Users\CYMR90~1\AppData\Local\Temp\ccxAEgth.s:29732  .debug_str:0000000000026688 .LASF5446
C:\Users\CYMR90~1\AppData\Local\Temp\ccxAEgth.s:29286  .debug_str:000000000002486f .LASF5447
C:\Users\CYMR90~1\AppData\Local\Temp\ccxAEgth.s:30884  .debug_str:000000000002af9e .LASF5448
C:\Users\CYMR90~1\AppData\Local\Temp\ccxAEgth.s:21073  .debug_str:0000000000003ba2 .LASF5449
C:\Users\CYMR90~1\AppData\Local\Temp\ccxAEgth.s:27736  .debug_str:000000000001e953 .LASF5450
C:\Users\CYMR90~1\AppData\Local\Temp\ccxAEgth.s:27012  .debug_str:000000000001ba1f .LASF5451
C:\Users\CYMR90~1\AppData\Local\Temp\ccxAEgth.s:24849  .debug_str:0000000000012e5e .LASF5452
C:\Users\CYMR90~1\AppData\Local\Temp\ccxAEgth.s:30640  .debug_str:000000000002a122 .LASF5453
C:\Users\CYMR90~1\AppData\Local\Temp\ccxAEgth.s:28524  .debug_str:0000000000021933 .LASF5454
C:\Users\CYMR90~1\AppData\Local\Temp\ccxAEgth.s:22481  .debug_str:00000000000095d3 .LASF5455
C:\Users\CYMR90~1\AppData\Local\Temp\ccxAEgth.s:31286  .debug_str:000000000002ca21 .LASF5456
C:\Users\CYMR90~1\AppData\Local\Temp\ccxAEgth.s:30350  .debug_str:0000000000028f35 .LASF5457
C:\Users\CYMR90~1\AppData\Local\Temp\ccxAEgth.s:20903  .debug_str:00000000000030d1 .LASF5458
C:\Users\CYMR90~1\AppData\Local\Temp\ccxAEgth.s:28476  .debug_str:0000000000021668 .LASF5459
C:\Users\CYMR90~1\AppData\Local\Temp\ccxAEgth.s:31252  .debug_str:000000000002c7bf .LASF5460
C:\Users\CYMR90~1\AppData\Local\Temp\ccxAEgth.s:27712  .debug_str:000000000001e7eb .LASF5461
C:\Users\CYMR90~1\AppData\Local\Temp\ccxAEgth.s:30596  .debug_str:0000000000029e9b .LASF5462
C:\Users\CYMR90~1\AppData\Local\Temp\ccxAEgth.s:25549  .debug_str:0000000000015a1f .LASF5463
C:\Users\CYMR90~1\AppData\Local\Temp\ccxAEgth.s:27646  .debug_str:000000000001e3c3 .LASF5464
C:\Users\CYMR90~1\AppData\Local\Temp\ccxAEgth.s:23949  .debug_str:000000000000f470 .LASF5465
C:\Users\CYMR90~1\AppData\Local\Temp\ccxAEgth.s:23937  .debug_str:000000000000f327 .LASF5466
C:\Users\CYMR90~1\AppData\Local\Temp\ccxAEgth.s:28016  .debug_str:000000000001f9e5 .LASF5467
C:\Users\CYMR90~1\AppData\Local\Temp\ccxAEgth.s:29724  .debug_str:000000000002660e .LASF5468
C:\Users\CYMR90~1\AppData\Local\Temp\ccxAEgth.s:20491  .debug_str:000000000000179b .LASF5469
C:\Users\CYMR90~1\AppData\Local\Temp\ccxAEgth.s:26450  .debug_str:000000000001953d .LASF5470
C:\Users\CYMR90~1\AppData\Local\Temp\ccxAEgth.s:20291  .debug_str:0000000000000bba .LASF5471
C:\Users\CYMR90~1\AppData\Local\Temp\ccxAEgth.s:25992  .debug_str:000000000001785a .LASF5472
C:\Users\CYMR90~1\AppData\Local\Temp\ccxAEgth.s:20605  .debug_str:0000000000001e5f .LASF5473
C:\Users\CYMR90~1\AppData\Local\Temp\ccxAEgth.s:25545  .debug_str:0000000000015989 .LASF5474
C:\Users\CYMR90~1\AppData\Local\Temp\ccxAEgth.s:23691  .debug_str:000000000000e414 .LASF5475
C:\Users\CYMR90~1\AppData\Local\Temp\ccxAEgth.s:24433  .debug_str:00000000000112a3 .LASF5476
C:\Users\CYMR90~1\AppData\Local\Temp\ccxAEgth.s:22821  .debug_str:000000000000abe5 .LASF5477
C:\Users\CYMR90~1\AppData\Local\Temp\ccxAEgth.s:21117  .debug_str:0000000000003ea4 .LASF5478
C:\Users\CYMR90~1\AppData\Local\Temp\ccxAEgth.s:30998  .debug_str:000000000002b6db .LASF5479
C:\Users\CYMR90~1\AppData\Local\Temp\ccxAEgth.s:22645  .debug_str:000000000000a058 .LASF5480
C:\Users\CYMR90~1\AppData\Local\Temp\ccxAEgth.s:28260  .debug_str:0000000000020911 .LASF5481
C:\Users\CYMR90~1\AppData\Local\Temp\ccxAEgth.s:28960  .debug_str:00000000000232ec .LASF5482
C:\Users\CYMR90~1\AppData\Local\Temp\ccxAEgth.s:31034  .debug_str:000000000002b96b .LASF5483
C:\Users\CYMR90~1\AppData\Local\Temp\ccxAEgth.s:20399  .debug_str:0000000000001214 .LASF5484
C:\Users\CYMR90~1\AppData\Local\Temp\ccxAEgth.s:25832  .debug_str:0000000000016eb8 .LASF5485
C:\Users\CYMR90~1\AppData\Local\Temp\ccxAEgth.s:28594  .debug_str:0000000000021d79 .LASF5486
C:\Users\CYMR90~1\AppData\Local\Temp\ccxAEgth.s:27512  .debug_str:000000000001dbb2 .LASF5487
C:\Users\CYMR90~1\AppData\Local\Temp\ccxAEgth.s:24123  .debug_str:000000000000ff8b .LASF5488
C:\Users\CYMR90~1\AppData\Local\Temp\ccxAEgth.s:20577  .debug_str:0000000000001cae .LASF5489
C:\Users\CYMR90~1\AppData\Local\Temp\ccxAEgth.s:26788  .debug_str:000000000001ac2b .LASF5490
C:\Users\CYMR90~1\AppData\Local\Temp\ccxAEgth.s:31146  .debug_str:000000000002c0ce .LASF5491
C:\Users\CYMR90~1\AppData\Local\Temp\ccxAEgth.s:25121  .debug_str:0000000000013fc2 .LASF5492
C:\Users\CYMR90~1\AppData\Local\Temp\ccxAEgth.s:30212  .debug_str:00000000000286bf .LASF5493
C:\Users\CYMR90~1\AppData\Local\Temp\ccxAEgth.s:31148  .debug_str:000000000002c0f8 .LASF5494
C:\Users\CYMR90~1\AppData\Local\Temp\ccxAEgth.s:23713  .debug_str:000000000000e5ae .LASF5495
C:\Users\CYMR90~1\AppData\Local\Temp\ccxAEgth.s:22713  .debug_str:000000000000a477 .LASF5496
C:\Users\CYMR90~1\AppData\Local\Temp\ccxAEgth.s:25471  .debug_str:0000000000015519 .LASF5497
C:\Users\CYMR90~1\AppData\Local\Temp\ccxAEgth.s:20445  .debug_str:00000000000014a9 .LASF5498
C:\Users\CYMR90~1\AppData\Local\Temp\ccxAEgth.s:21189  .debug_str:000000000000438e .LASF5499
C:\Users\CYMR90~1\AppData\Local\Temp\ccxAEgth.s:26698  .debug_str:000000000001a6e7 .LASF5500
C:\Users\CYMR90~1\AppData\Local\Temp\ccxAEgth.s:26736  .debug_str:000000000001a943 .LASF5501
C:\Users\CYMR90~1\AppData\Local\Temp\ccxAEgth.s:30278  .debug_str:0000000000028b0f .LASF5502
C:\Users\CYMR90~1\AppData\Local\Temp\ccxAEgth.s:26456  .debug_str:00000000000195d9 .LASF5503
C:\Users\CYMR90~1\AppData\Local\Temp\ccxAEgth.s:25093  .debug_str:0000000000013deb .LASF5504
C:\Users\CYMR90~1\AppData\Local\Temp\ccxAEgth.s:28130  .debug_str:00000000000200ba .LASF5505
C:\Users\CYMR90~1\AppData\Local\Temp\ccxAEgth.s:26896  .debug_str:000000000001b363 .LASF5506
C:\Users\CYMR90~1\AppData\Local\Temp\ccxAEgth.s:24269  .debug_str:000000000001083f .LASF5507
C:\Users\CYMR90~1\AppData\Local\Temp\ccxAEgth.s:22961  .debug_str:000000000000b596 .LASF5508
C:\Users\CYMR90~1\AppData\Local\Temp\ccxAEgth.s:24393  .debug_str:000000000001101e .LASF5509
C:\Users\CYMR90~1\AppData\Local\Temp\ccxAEgth.s:29326  .debug_str:0000000000024af1 .LASF5510
C:\Users\CYMR90~1\AppData\Local\Temp\ccxAEgth.s:23095  .debug_str:000000000000bed4 .LASF5511
C:\Users\CYMR90~1\AppData\Local\Temp\ccxAEgth.s:26786  .debug_str:000000000001ac13 .LASF5512
C:\Users\CYMR90~1\AppData\Local\Temp\ccxAEgth.s:24883  .debug_str:00000000000130b0 .LASF5513
C:\Users\CYMR90~1\AppData\Local\Temp\ccxAEgth.s:21361  .debug_str:0000000000004ee8 .LASF5514
C:\Users\CYMR90~1\AppData\Local\Temp\ccxAEgth.s:30888  .debug_str:000000000002afd0 .LASF5515
C:\Users\CYMR90~1\AppData\Local\Temp\ccxAEgth.s:27974  .debug_str:000000000001f74b .LASF5516
C:\Users\CYMR90~1\AppData\Local\Temp\ccxAEgth.s:29898  .debug_str:00000000000270a6 .LASF5517
C:\Users\CYMR90~1\AppData\Local\Temp\ccxAEgth.s:28314  .debug_str:0000000000020c79 .LASF5518
C:\Users\CYMR90~1\AppData\Local\Temp\ccxAEgth.s:31398  .debug_str:000000000002d15f .LASF5519
C:\Users\CYMR90~1\AppData\Local\Temp\ccxAEgth.s:28340  .debug_str:0000000000020dce .LASF5520
C:\Users\CYMR90~1\AppData\Local\Temp\ccxAEgth.s:20599  .debug_str:0000000000001e23 .LASF5521
C:\Users\CYMR90~1\AppData\Local\Temp\ccxAEgth.s:27654  .debug_str:000000000001e449 .LASF5522
C:\Users\CYMR90~1\AppData\Local\Temp\ccxAEgth.s:20843  .debug_str:0000000000002d00 .LASF5523
C:\Users\CYMR90~1\AppData\Local\Temp\ccxAEgth.s:24995  .debug_str:0000000000013837 .LASF5524
C:\Users\CYMR90~1\AppData\Local\Temp\ccxAEgth.s:31178  .debug_str:000000000002c2d0 .LASF5525
C:\Users\CYMR90~1\AppData\Local\Temp\ccxAEgth.s:29800  .debug_str:0000000000026adc .LASF5526
C:\Users\CYMR90~1\AppData\Local\Temp\ccxAEgth.s:21585  .debug_str:0000000000005c13 .LASF5527
C:\Users\CYMR90~1\AppData\Local\Temp\ccxAEgth.s:28272  .debug_str:00000000000209fb .LASF5528
C:\Users\CYMR90~1\AppData\Local\Temp\ccxAEgth.s:27392  .debug_str:000000000001d3c1 .LASF5529
C:\Users\CYMR90~1\AppData\Local\Temp\ccxAEgth.s:28656  .debug_str:0000000000022136 .LASF5530
C:\Users\CYMR90~1\AppData\Local\Temp\ccxAEgth.s:24023  .debug_str:000000000000f940 .LASF5531
C:\Users\CYMR90~1\AppData\Local\Temp\ccxAEgth.s:23161  .debug_str:000000000000c2b9 .LASF5532
C:\Users\CYMR90~1\AppData\Local\Temp\ccxAEgth.s:26952  .debug_str:000000000001b6d4 .LASF5533
C:\Users\CYMR90~1\AppData\Local\Temp\ccxAEgth.s:30202  .debug_str:00000000000285fa .LASF5534
C:\Users\CYMR90~1\AppData\Local\Temp\ccxAEgth.s:25844  .debug_str:0000000000016f6a .LASF5535
C:\Users\CYMR90~1\AppData\Local\Temp\ccxAEgth.s:29552  .debug_str:0000000000025b46 .LASF5536
C:\Users\CYMR90~1\AppData\Local\Temp\ccxAEgth.s:21191  .debug_str:00000000000043af .LASF5537
C:\Users\CYMR90~1\AppData\Local\Temp\ccxAEgth.s:26040  .debug_str:0000000000017b14 .LASF5538
C:\Users\CYMR90~1\AppData\Local\Temp\ccxAEgth.s:28530  .debug_str:00000000000219ad .LASF5539
C:\Users\CYMR90~1\AppData\Local\Temp\ccxAEgth.s:27728  .debug_str:000000000001e8d3 .LASF5540
C:\Users\CYMR90~1\AppData\Local\Temp\ccxAEgth.s:27400  .debug_str:000000000001d410 .LASF5541
C:\Users\CYMR90~1\AppData\Local\Temp\ccxAEgth.s:23467  .debug_str:000000000000d6cd .LASF5542
C:\Users\CYMR90~1\AppData\Local\Temp\ccxAEgth.s:29122  .debug_str:0000000000023d06 .LASF5543
C:\Users\CYMR90~1\AppData\Local\Temp\ccxAEgth.s:23897  .debug_str:000000000000f08f .LASF5544
C:\Users\CYMR90~1\AppData\Local\Temp\ccxAEgth.s:21065  .debug_str:0000000000003b18 .LASF5545
C:\Users\CYMR90~1\AppData\Local\Temp\ccxAEgth.s:26302  .debug_str:0000000000018b86 .LASF5546
C:\Users\CYMR90~1\AppData\Local\Temp\ccxAEgth.s:20579  .debug_str:0000000000001cd8 .LASF5547
C:\Users\CYMR90~1\AppData\Local\Temp\ccxAEgth.s:31406  .debug_str:000000000002d1da .LASF5548
C:\Users\CYMR90~1\AppData\Local\Temp\ccxAEgth.s:25301  .debug_str:0000000000014ab8 .LASF5549
C:\Users\CYMR90~1\AppData\Local\Temp\ccxAEgth.s:25205  .debug_str:00000000000144dd .LASF5550
C:\Users\CYMR90~1\AppData\Local\Temp\ccxAEgth.s:23091  .debug_str:000000000000be91 .LASF5551
C:\Users\CYMR90~1\AppData\Local\Temp\ccxAEgth.s:23549  .debug_str:000000000000db7d .LASF5552
C:\Users\CYMR90~1\AppData\Local\Temp\ccxAEgth.s:29018  .debug_str:00000000000236fa .LASF5553
C:\Users\CYMR90~1\AppData\Local\Temp\ccxAEgth.s:25886  .debug_str:00000000000171aa .LASF5554
C:\Users\CYMR90~1\AppData\Local\Temp\ccxAEgth.s:24991  .debug_str:00000000000137ed .LASF5555
                           .group:0000000000000000 wm4.0.10abbef32179bc1260444192115bdf5e
                           .group:0000000000000000 wm4.stddef.h.39.144cf5ddcd53cbfdac30259dc1a6c87f
                           .group:0000000000000000 wm4._newlib_version.h.4.bfdf54b0af045d4a71376ae00f63a22c
                           .group:0000000000000000 wm4.newlib.h.18.08a2ecba46890ca2aa56bbe21686e6c3
                           .group:0000000000000000 wm4.ieeefp.h.202.4f2759f5758fd82153cfbf98692f2ced
                           .group:0000000000000000 wm4.features.h.22.fad1cec3bc7ff06488171438dbdcfd02
                           .group:0000000000000000 wm4.config.h.83.13bbc8852bfac55b724c9822481355b5
                           .group:0000000000000000 wm4._ansi.h.31.de524f58584151836e90d8620a16f8e8
                           .group:0000000000000000 wm4.stdio.h.31.7c0e28c411445f3f9c5b11accf882760
                           .group:0000000000000000 wm4._default_types.h.6.959254cf5f09734ea7516c89e8bb21bd
                           .group:0000000000000000 wm4.stddef.h.155.ba788add86a0e365f264484f110c3c29
                           .group:0000000000000000 wm4.cdefs.h.49.39045112216f6a021dbdffe3bf5accce
                           .group:0000000000000000 wm4.stdarg.h.34.3a23a216c0c293b3d2ea2e89281481e6
                           .group:0000000000000000 wm4._types.h.20.dd0d04dca3800a0d2a6129b87f3adbb2
                           .group:0000000000000000 wm4.stddef.h.155.3588ebfdd1e8c7ede80509bb9c3b8009
                           .group:0000000000000000 wm4._types.h.127.34941de1b2539d59d5cac00e0dd27a45
                           .group:0000000000000000 wm4.reent.h.17.e292bf8b0bec6c96e131a54347145a30
                           .group:0000000000000000 wm4.lock.h.2.c0958401bd0ce484d507ee19aacab817
                           .group:0000000000000000 wm4.reent.h.77.dcd6129ff07fe81bd5636db29abe53b2
                           .group:0000000000000000 wm4.types.h.40.8b6acba56cefbb11746718204edc8f5e
                           .group:0000000000000000 wm4._stdint.h.10.c24fa3af3bc1706662bb5593a907e841
                           .group:0000000000000000 wm4._endian.h.18.1bf9649e8e5bbc91042012680270b9ed
                           .group:0000000000000000 wm4.endian.h.9.49f3a4695c1b61e8a0808de3c4a106cb
                           .group:0000000000000000 wm4._timeval.h.32.bec3221fa7a9bb0bdde696c9c57e47d2
                           .group:0000000000000000 wm4.timespec.h.41.d855182eb0e690443ab8651bcedca6e1
                           .group:0000000000000000 wm4.select.h.19.40cd3f2bfc456b193b790c2754690ebf
                           .group:0000000000000000 wm4.types.h.51.5571ec98f267d17d3c670b7a3ba33afa
                           .group:0000000000000000 wm4.sched.h.22.c60982713a5c428609783c78f9c78d95
                           .group:0000000000000000 wm4._pthreadtypes.h.36.fcee9961c35163dde6267ef772ad1972
                           .group:0000000000000000 wm4.stdio.h.2.4aa87247282eca6c8f36f9de33d8df1a
                           .group:0000000000000000 wm4.stdio.h.81.932d0c162786b883f622b8d05c120c78
                           .group:0000000000000000 wm4.gd32vw55x.h.47.379378190858578060a317909b2c8d8a
                           .group:0000000000000000 wm4._intsup.h.10.48bafbb683905c4daa4565a85aeeb264
                           .group:0000000000000000 wm4.stdint.h.23.d53047a68f4a85177f80b422d52785ed
                           .group:0000000000000000 wm4.nmsis_version.h.19.ffa173da8efb17b1050904994d6f500e
                           .group:0000000000000000 wm4.riscv_bits.h.19.ee94eb3d39937793d4cd0a62363e5d00
                           .group:0000000000000000 wm4.riscv_encoding.h.35.f5d37fad7abbab8278b4bb6f1e32fa65
                           .group:0000000000000000 wm4.nmsis_gcc.h.61.5d70d7598ffc79c3c991d847a574cf23
                           .group:0000000000000000 wm4.core_feature_base.h.20.e99d3e75c26a8f3341d35bf20d0e1d20
                           .group:0000000000000000 wm4.core_feature_fpu.h.19.695f2200274659b530cb97cda749ff4f
                           .group:0000000000000000 wm4.core_feature_dsp.h.19.e8f8d7aa42f197807aefedb6584486cd
                           .group:0000000000000000 wm4.core_compatiable.h.19.5b8282d61b1f6889a82895616b730084
                           .group:0000000000000000 wm4.core_feature_eclic.h.19.e0c091d0cbda79e8b3b031b979ebd5a1
                           .group:0000000000000000 wm4.core_feature_timer.h.19.21a5151282de34c37dfa6d84e262aa54
                           .group:0000000000000000 wm4.system_gd32vw55x.h.32.f1fcb1212d387c35ac955b0e96ada468
                           .group:0000000000000000 wm4.gd32vw55x.h.231.3529c650aff38c9372f7e03177fd2c8a
                           .group:0000000000000000 wm4.gd32vw55x_adc.h.42.ae73acec1704ef509ccecb41a875b50e
                           .group:0000000000000000 wm4.gd32vw55x_cau.h.36.c98428fe1eae7edb4721da5c8078c974
                           .group:0000000000000000 wm4.gd32vw55x_crc.h.37.c58f296814c2300a4b067c08bd88d54e
                           .group:0000000000000000 wm4.gd32vw55x_dbg.h.36.311650c8545549d482ceca8befc5a232
                           .group:0000000000000000 wm4.gd32vw55x_dma.h.36.f4adc751172b2a7b1533dda72e948737
                           .group:0000000000000000 wm4.gd32vw55x_eclic.h.36.0411499f2b2493c67246e32ccae096c1
                           .group:0000000000000000 wm4.gd32vw55x_efuse.h.36.091404cecbab70359dfd93faec5fdb62
                           .group:0000000000000000 wm4.gd32vw55x_exti.h.36.de7508334dd12f1a6a673521a1a835f5
                           .group:0000000000000000 wm4.gd32vw55x_fmc.h.36.a4b0b94c47ffe23a2fa09260c5ed4850
                           .group:0000000000000000 wm4.gd32vw55x_fwdgt.h.36.4846b6900fd24b5bfce4986c9a8ce677
                           .group:0000000000000000 wm4.gd32vw55x_gpio.h.36.adfee1371bb58d3d9043c47bdb25a90f
                           .group:0000000000000000 wm4.gd32vw55x_i2c.h.36.3848990933925e084eb427083790c53f
                           .group:0000000000000000 wm4.gd32vw55x_pkcau.h.36.bb2235f4cf4967063a51bfa9aca5ef27
                           .group:0000000000000000 wm4.gd32vw55x_pmu.h.36.4c76091f1415551526d489ccf2c42052
                           .group:0000000000000000 wm4.gd32vw55x_qspi.h.36.2d2c181cfe19b935a9641008fc786613
                           .group:0000000000000000 wm4.gd32vw55x_rcu.h.36.780a8a45c00d563711cceb445027ef47
                           .group:0000000000000000 wm4.gd32vw55x_rtc.h.36.3172855e8715659e080e0eab46fdf175
                           .group:0000000000000000 wm4.gd32vw55x_spi.h.36.9fa1be2b09fb73e4b5886e97f0e96d58
                           .group:0000000000000000 wm4.gd32vw55x_syscfg.h.36.010551f05591f5e34051d2e15df0352b
                           .group:0000000000000000 wm4.gd32vw55x_timer.h.38.2cbee78ea60d47145be361b2d2c55070
                           .group:0000000000000000 wm4.gd32vw55x_trng.h.36.c9e7807af1b1ab68d3bbb54f4ed5cd73
                           .group:0000000000000000 wm4.gd32vw55x_usart.h.36.f5c497cca17945a34f154b0e17017d02
                           .group:0000000000000000 wm4.gd32vw55x_wwdgt.h.36.f7a443b7302efc0e5c335888582ee197
                           .group:0000000000000000 wm4.gd32vw55x_hau.h.41.c15834d7deff02978f8681be035d2e9b

UNDEFINED SYMBOLS
rcu_periph_reset_enable
rcu_periph_reset_disable
