   1              		.file	"gd32vw55x_fmc.c"
   2              		.option nopic
   3              		.attribute arch, "rv32i2p0_m2p0_a2p0_c2p0"
   4              		.attribute unaligned_access, 0
   5              		.attribute stack_align, 16
   6              		.text
   7              	.Ltext0:
   8              		.cfi_sections	.debug_frame
   9              		.section	.text.fmc_unlock,"ax",@progbits
  10              		.align	1
  11              		.globl	fmc_unlock
  13              	fmc_unlock:
  14              	.LFB347:
  15              		.file 1 "../Firmware/GD32VW55x_standard_peripheral/Source/gd32vw55x_fmc.c"
   1:../Firmware/GD32VW55x_standard_peripheral/Source/gd32vw55x_fmc.c **** /*!
   2:../Firmware/GD32VW55x_standard_peripheral/Source/gd32vw55x_fmc.c ****     \file    gd32vw55x_fmc.h
   3:../Firmware/GD32VW55x_standard_peripheral/Source/gd32vw55x_fmc.c ****     \brief   definitions for the FMC
   4:../Firmware/GD32VW55x_standard_peripheral/Source/gd32vw55x_fmc.c **** 
   5:../Firmware/GD32VW55x_standard_peripheral/Source/gd32vw55x_fmc.c ****     \version 2025-01-16, V1.4.0, firmware for GD32VW55x
   6:../Firmware/GD32VW55x_standard_peripheral/Source/gd32vw55x_fmc.c **** */
   7:../Firmware/GD32VW55x_standard_peripheral/Source/gd32vw55x_fmc.c **** 
   8:../Firmware/GD32VW55x_standard_peripheral/Source/gd32vw55x_fmc.c **** /*
   9:../Firmware/GD32VW55x_standard_peripheral/Source/gd32vw55x_fmc.c ****     Copyright (c) 2025, GigaDevice Semiconductor Inc.
  10:../Firmware/GD32VW55x_standard_peripheral/Source/gd32vw55x_fmc.c **** 
  11:../Firmware/GD32VW55x_standard_peripheral/Source/gd32vw55x_fmc.c ****     Redistribution and use in source and binary forms, with or without modification,
  12:../Firmware/GD32VW55x_standard_peripheral/Source/gd32vw55x_fmc.c **** are permitted provided that the following conditions are met:
  13:../Firmware/GD32VW55x_standard_peripheral/Source/gd32vw55x_fmc.c **** 
  14:../Firmware/GD32VW55x_standard_peripheral/Source/gd32vw55x_fmc.c ****     1. Redistributions of source code must retain the above copyright notice, this
  15:../Firmware/GD32VW55x_standard_peripheral/Source/gd32vw55x_fmc.c ****        list of conditions and the following disclaimer.
  16:../Firmware/GD32VW55x_standard_peripheral/Source/gd32vw55x_fmc.c ****     2. Redistributions in binary form must reproduce the above copyright notice,
  17:../Firmware/GD32VW55x_standard_peripheral/Source/gd32vw55x_fmc.c ****        this list of conditions and the following disclaimer in the documentation
  18:../Firmware/GD32VW55x_standard_peripheral/Source/gd32vw55x_fmc.c ****        and/or other materials provided with the distribution.
  19:../Firmware/GD32VW55x_standard_peripheral/Source/gd32vw55x_fmc.c ****     3. Neither the name of the copyright holder nor the names of its contributors
  20:../Firmware/GD32VW55x_standard_peripheral/Source/gd32vw55x_fmc.c ****        may be used to endorse or promote products derived from this software without
  21:../Firmware/GD32VW55x_standard_peripheral/Source/gd32vw55x_fmc.c ****        specific prior written permission.
  22:../Firmware/GD32VW55x_standard_peripheral/Source/gd32vw55x_fmc.c **** 
  23:../Firmware/GD32VW55x_standard_peripheral/Source/gd32vw55x_fmc.c ****     THIS SOFTWARE IS PROVIDED BY THE COPYRIGHT HOLDERS AND CONTRIBUTORS "AS IS"
  24:../Firmware/GD32VW55x_standard_peripheral/Source/gd32vw55x_fmc.c **** AND ANY EXPRESS OR IMPLIED WARRANTIES, INCLUDING, BUT NOT LIMITED TO, THE IMPLIED
  25:../Firmware/GD32VW55x_standard_peripheral/Source/gd32vw55x_fmc.c **** WARRANTIES OF MERCHANTABILITY AND FITNESS FOR A PARTICULAR PURPOSE ARE DISCLAIMED.
  26:../Firmware/GD32VW55x_standard_peripheral/Source/gd32vw55x_fmc.c **** IN NO EVENT SHALL THE COPYRIGHT HOLDER OR CONTRIBUTORS BE LIABLE FOR ANY DIRECT,
  27:../Firmware/GD32VW55x_standard_peripheral/Source/gd32vw55x_fmc.c **** INDIRECT, INCIDENTAL, SPECIAL, EXEMPLARY, OR CONSEQUENTIAL DAMAGES (INCLUDING, BUT
  28:../Firmware/GD32VW55x_standard_peripheral/Source/gd32vw55x_fmc.c **** NOT LIMITED TO, PROCUREMENT OF SUBSTITUTE GOODS OR SERVICES; LOSS OF USE, DATA, OR
  29:../Firmware/GD32VW55x_standard_peripheral/Source/gd32vw55x_fmc.c **** PROFITS; OR BUSINESS INTERRUPTION) HOWEVER CAUSED AND ON ANY THEORY OF LIABILITY,
  30:../Firmware/GD32VW55x_standard_peripheral/Source/gd32vw55x_fmc.c **** WHETHER IN CONTRACT, STRICT LIABILITY, OR TORT (INCLUDING NEGLIGENCE OR OTHERWISE)
  31:../Firmware/GD32VW55x_standard_peripheral/Source/gd32vw55x_fmc.c **** ARISING IN ANY WAY OUT OF THE USE OF THIS SOFTWARE, EVEN IF ADVISED OF THE POSSIBILITY
  32:../Firmware/GD32VW55x_standard_peripheral/Source/gd32vw55x_fmc.c **** OF SUCH DAMAGE.
  33:../Firmware/GD32VW55x_standard_peripheral/Source/gd32vw55x_fmc.c ****  */
  34:../Firmware/GD32VW55x_standard_peripheral/Source/gd32vw55x_fmc.c **** 
  35:../Firmware/GD32VW55x_standard_peripheral/Source/gd32vw55x_fmc.c **** #include "gd32vw55x_fmc.h"
  36:../Firmware/GD32VW55x_standard_peripheral/Source/gd32vw55x_fmc.c **** 
  37:../Firmware/GD32VW55x_standard_peripheral/Source/gd32vw55x_fmc.c **** /* FMC mask */
  38:../Firmware/GD32VW55x_standard_peripheral/Source/gd32vw55x_fmc.c **** /* FMC_OBR_SPC mask */
  39:../Firmware/GD32VW55x_standard_peripheral/Source/gd32vw55x_fmc.c **** #define FMC_OBR_SPC_MASK                  ((uint32_t)0xFFFFFF00U)
  40:../Firmware/GD32VW55x_standard_peripheral/Source/gd32vw55x_fmc.c **** /* FMC_OBUSER mask */
  41:../Firmware/GD32VW55x_standard_peripheral/Source/gd32vw55x_fmc.c **** #define FMC_OBUSER_MASK                   ((uint32_t)0x00000000U)
  42:../Firmware/GD32VW55x_standard_peripheral/Source/gd32vw55x_fmc.c **** /* FMC_OBSTAT security protection mask */
  43:../Firmware/GD32VW55x_standard_peripheral/Source/gd32vw55x_fmc.c **** #define FMC_OBSTAT_SPCSTAT_MASK           ((uint32_t)0x00000002U)
  44:../Firmware/GD32VW55x_standard_peripheral/Source/gd32vw55x_fmc.c **** /* FMC_OBWRPx/FMC_OFRG end page of region offset */
  45:../Firmware/GD32VW55x_standard_peripheral/Source/gd32vw55x_fmc.c **** #define FMC_EPAGE_OFFSET                  ((uint32_t)16U)
  46:../Firmware/GD32VW55x_standard_peripheral/Source/gd32vw55x_fmc.c **** 
  47:../Firmware/GD32VW55x_standard_peripheral/Source/gd32vw55x_fmc.c **** /* return the FMC state */
  48:../Firmware/GD32VW55x_standard_peripheral/Source/gd32vw55x_fmc.c **** static fmc_state_enum fmc_state_get(void);
  49:../Firmware/GD32VW55x_standard_peripheral/Source/gd32vw55x_fmc.c **** /* check FMC ready or not */
  50:../Firmware/GD32VW55x_standard_peripheral/Source/gd32vw55x_fmc.c **** static fmc_state_enum fmc_ready_wait(uint32_t timeout);
  51:../Firmware/GD32VW55x_standard_peripheral/Source/gd32vw55x_fmc.c **** 
  52:../Firmware/GD32VW55x_standard_peripheral/Source/gd32vw55x_fmc.c **** /*!
  53:../Firmware/GD32VW55x_standard_peripheral/Source/gd32vw55x_fmc.c ****     \brief      unlock the main FMC operation
  54:../Firmware/GD32VW55x_standard_peripheral/Source/gd32vw55x_fmc.c ****                 it is better to used in pairs with fmc_lock
  55:../Firmware/GD32VW55x_standard_peripheral/Source/gd32vw55x_fmc.c ****     \param[in]  none
  56:../Firmware/GD32VW55x_standard_peripheral/Source/gd32vw55x_fmc.c ****     \param[out] none
  57:../Firmware/GD32VW55x_standard_peripheral/Source/gd32vw55x_fmc.c ****     \retval     none
  58:../Firmware/GD32VW55x_standard_peripheral/Source/gd32vw55x_fmc.c **** */
  59:../Firmware/GD32VW55x_standard_peripheral/Source/gd32vw55x_fmc.c **** void fmc_unlock(void)
  60:../Firmware/GD32VW55x_standard_peripheral/Source/gd32vw55x_fmc.c **** {
  16              		.loc 1 60 1
  17              		.cfi_startproc
  18 0000 4111     		addi	sp,sp,-16
  19              		.cfi_def_cfa_offset 16
  20 0002 22C6     		sw	s0,12(sp)
  21              		.cfi_offset 8, -4
  22 0004 0008     		addi	s0,sp,16
  23              		.cfi_def_cfa 8, 0
  61:../Firmware/GD32VW55x_standard_peripheral/Source/gd32vw55x_fmc.c ****     if(RESET != (FMC_CTL & FMC_CTL_LK)){
  24              		.loc 1 61 18
  25 0006 B7270240 		li	a5,1073881088
  26 000a C107     		addi	a5,a5,16
  27 000c 9C43     		lw	a5,0(a5)
  28              		.loc 1 61 26
  29 000e 93F70708 		andi	a5,a5,128
  30              		.loc 1 61 7
  31 0012 8DC3     		beq	a5,zero,.L3
  62:../Firmware/GD32VW55x_standard_peripheral/Source/gd32vw55x_fmc.c ****         /* write the FMC unlock key */
  63:../Firmware/GD32VW55x_standard_peripheral/Source/gd32vw55x_fmc.c ****         FMC_KEY = UNLOCK_KEY0;
  32              		.loc 1 63 9
  33 0014 B7270240 		li	a5,1073881088
  34 0018 9107     		addi	a5,a5,4
  35              		.loc 1 63 17
  36 001a 37076745 		li	a4,1164378112
  37 001e 13073712 		addi	a4,a4,291
  38 0022 98C3     		sw	a4,0(a5)
  64:../Firmware/GD32VW55x_standard_peripheral/Source/gd32vw55x_fmc.c ****         FMC_KEY = UNLOCK_KEY1;
  39              		.loc 1 64 9
  40 0024 B7270240 		li	a5,1073881088
  41 0028 9107     		addi	a5,a5,4
  42              		.loc 1 64 17
  43 002a 3797EFCD 		li	a4,-839938048
  44 002e 1307B79A 		addi	a4,a4,-1621
  45 0032 98C3     		sw	a4,0(a5)
  46              	.L3:
  65:../Firmware/GD32VW55x_standard_peripheral/Source/gd32vw55x_fmc.c ****     }
  66:../Firmware/GD32VW55x_standard_peripheral/Source/gd32vw55x_fmc.c **** }
  47              		.loc 1 66 1
  48 0034 0100     		nop
  49 0036 3244     		lw	s0,12(sp)
  50              		.cfi_restore 8
  51              		.cfi_def_cfa 2, 16
  52 0038 4101     		addi	sp,sp,16
  53              		.cfi_def_cfa_offset 0
  54 003a 8280     		jr	ra
  55              		.cfi_endproc
  56              	.LFE347:
  58              		.section	.text.fmc_lock,"ax",@progbits
  59              		.align	1
  60              		.globl	fmc_lock
  62              	fmc_lock:
  63              	.LFB348:
  67:../Firmware/GD32VW55x_standard_peripheral/Source/gd32vw55x_fmc.c **** 
  68:../Firmware/GD32VW55x_standard_peripheral/Source/gd32vw55x_fmc.c **** /*!
  69:../Firmware/GD32VW55x_standard_peripheral/Source/gd32vw55x_fmc.c ****     \brief      lock the main FMC operation
  70:../Firmware/GD32VW55x_standard_peripheral/Source/gd32vw55x_fmc.c ****                 it is better to used in pairs with fmc_unlock after an operation
  71:../Firmware/GD32VW55x_standard_peripheral/Source/gd32vw55x_fmc.c ****     \param[in]  none
  72:../Firmware/GD32VW55x_standard_peripheral/Source/gd32vw55x_fmc.c ****     \param[out] none
  73:../Firmware/GD32VW55x_standard_peripheral/Source/gd32vw55x_fmc.c ****     \retval     none
  74:../Firmware/GD32VW55x_standard_peripheral/Source/gd32vw55x_fmc.c **** */
  75:../Firmware/GD32VW55x_standard_peripheral/Source/gd32vw55x_fmc.c **** void fmc_lock(void)
  76:../Firmware/GD32VW55x_standard_peripheral/Source/gd32vw55x_fmc.c **** {
  64              		.loc 1 76 1
  65              		.cfi_startproc
  66 0000 4111     		addi	sp,sp,-16
  67              		.cfi_def_cfa_offset 16
  68 0002 22C6     		sw	s0,12(sp)
  69              		.cfi_offset 8, -4
  70 0004 0008     		addi	s0,sp,16
  71              		.cfi_def_cfa 8, 0
  77:../Firmware/GD32VW55x_standard_peripheral/Source/gd32vw55x_fmc.c ****     /* set the LK bit */
  78:../Firmware/GD32VW55x_standard_peripheral/Source/gd32vw55x_fmc.c ****     FMC_CTL |= FMC_CTL_LK;
  72              		.loc 1 78 13
  73 0006 B7270240 		li	a5,1073881088
  74 000a C107     		addi	a5,a5,16
  75 000c 9843     		lw	a4,0(a5)
  76 000e B7270240 		li	a5,1073881088
  77 0012 C107     		addi	a5,a5,16
  78 0014 13670708 		ori	a4,a4,128
  79 0018 98C3     		sw	a4,0(a5)
  79:../Firmware/GD32VW55x_standard_peripheral/Source/gd32vw55x_fmc.c **** }
  80              		.loc 1 79 1
  81 001a 0100     		nop
  82 001c 3244     		lw	s0,12(sp)
  83              		.cfi_restore 8
  84              		.cfi_def_cfa 2, 16
  85 001e 4101     		addi	sp,sp,16
  86              		.cfi_def_cfa_offset 0
  87 0020 8280     		jr	ra
  88              		.cfi_endproc
  89              	.LFE348:
  91              		.section	.text.fmc_page_erase,"ax",@progbits
  92              		.align	1
  93              		.globl	fmc_page_erase
  95              	fmc_page_erase:
  96              	.LFB349:
  80:../Firmware/GD32VW55x_standard_peripheral/Source/gd32vw55x_fmc.c **** 
  81:../Firmware/GD32VW55x_standard_peripheral/Source/gd32vw55x_fmc.c **** /*!
  82:../Firmware/GD32VW55x_standard_peripheral/Source/gd32vw55x_fmc.c ****     \brief      FMC erase page
  83:../Firmware/GD32VW55x_standard_peripheral/Source/gd32vw55x_fmc.c ****     \param[in]  page_address: target page address
  84:../Firmware/GD32VW55x_standard_peripheral/Source/gd32vw55x_fmc.c ****     \param[out] none
  85:../Firmware/GD32VW55x_standard_peripheral/Source/gd32vw55x_fmc.c ****     \retval     state of FMC
  86:../Firmware/GD32VW55x_standard_peripheral/Source/gd32vw55x_fmc.c ****       \arg        FMC_READY: the operation has been completed
  87:../Firmware/GD32VW55x_standard_peripheral/Source/gd32vw55x_fmc.c ****       \arg        FMC_WPERR: erase/program protection error
  88:../Firmware/GD32VW55x_standard_peripheral/Source/gd32vw55x_fmc.c ****       \arg        FMC_TOERR: timeout error
  89:../Firmware/GD32VW55x_standard_peripheral/Source/gd32vw55x_fmc.c **** */
  90:../Firmware/GD32VW55x_standard_peripheral/Source/gd32vw55x_fmc.c **** fmc_state_enum fmc_page_erase(uint32_t page_address)
  91:../Firmware/GD32VW55x_standard_peripheral/Source/gd32vw55x_fmc.c **** {
  97              		.loc 1 91 1
  98              		.cfi_startproc
  99 0000 7971     		addi	sp,sp,-48
 100              		.cfi_def_cfa_offset 48
 101 0002 06D6     		sw	ra,44(sp)
 102 0004 22D4     		sw	s0,40(sp)
 103              		.cfi_offset 1, -4
 104              		.cfi_offset 8, -8
 105 0006 0018     		addi	s0,sp,48
 106              		.cfi_def_cfa 8, 0
 107 0008 232EA4FC 		sw	a0,-36(s0)
  92:../Firmware/GD32VW55x_standard_peripheral/Source/gd32vw55x_fmc.c ****     fmc_state_enum fmc_state = FMC_READY;
 108              		.loc 1 92 20
 109 000c 232604FE 		sw	zero,-20(s0)
  93:../Firmware/GD32VW55x_standard_peripheral/Source/gd32vw55x_fmc.c **** 
  94:../Firmware/GD32VW55x_standard_peripheral/Source/gd32vw55x_fmc.c ****     /* wait for the FMC ready */
  95:../Firmware/GD32VW55x_standard_peripheral/Source/gd32vw55x_fmc.c ****     fmc_state = fmc_ready_wait(FMC_TIMEOUT_COUNT);
 110              		.loc 1 95 17
 111 0010 37050001 		li	a0,16777216
 112 0014 97000000 		call	fmc_ready_wait
 112      E7800000 
 113 001c 2326A4FE 		sw	a0,-20(s0)
  96:../Firmware/GD32VW55x_standard_peripheral/Source/gd32vw55x_fmc.c **** 
  97:../Firmware/GD32VW55x_standard_peripheral/Source/gd32vw55x_fmc.c ****     if(FMC_READY == fmc_state){
 114              		.loc 1 97 7
 115 0020 8327C4FE 		lw	a5,-20(s0)
 116 0024 A1EF     		bne	a5,zero,.L6
  98:../Firmware/GD32VW55x_standard_peripheral/Source/gd32vw55x_fmc.c ****         /* start page erase */
  99:../Firmware/GD32VW55x_standard_peripheral/Source/gd32vw55x_fmc.c ****         FMC_CTL |= FMC_CTL_PER;
 117              		.loc 1 99 17
 118 0026 B7270240 		li	a5,1073881088
 119 002a C107     		addi	a5,a5,16
 120 002c 9843     		lw	a4,0(a5)
 121 002e B7270240 		li	a5,1073881088
 122 0032 C107     		addi	a5,a5,16
 123 0034 13672700 		ori	a4,a4,2
 124 0038 98C3     		sw	a4,0(a5)
 100:../Firmware/GD32VW55x_standard_peripheral/Source/gd32vw55x_fmc.c ****         FMC_ADDR = page_address;
 125              		.loc 1 100 9
 126 003a B7270240 		li	a5,1073881088
 127 003e D107     		addi	a5,a5,20
 128              		.loc 1 100 18
 129 0040 0327C4FD 		lw	a4,-36(s0)
 130 0044 98C3     		sw	a4,0(a5)
 101:../Firmware/GD32VW55x_standard_peripheral/Source/gd32vw55x_fmc.c ****         FMC_CTL |= FMC_CTL_START;
 131              		.loc 1 101 17
 132 0046 B7270240 		li	a5,1073881088
 133 004a C107     		addi	a5,a5,16
 134 004c 9843     		lw	a4,0(a5)
 135 004e B7270240 		li	a5,1073881088
 136 0052 C107     		addi	a5,a5,16
 137 0054 13670704 		ori	a4,a4,64
 138 0058 98C3     		sw	a4,0(a5)
 102:../Firmware/GD32VW55x_standard_peripheral/Source/gd32vw55x_fmc.c ****         /* wait for the FMC ready */
 103:../Firmware/GD32VW55x_standard_peripheral/Source/gd32vw55x_fmc.c ****         fmc_state = fmc_ready_wait(FMC_TIMEOUT_COUNT);
 139              		.loc 1 103 21
 140 005a 37050001 		li	a0,16777216
 141 005e 97000000 		call	fmc_ready_wait
 141      E7800000 
 142 0066 2326A4FE 		sw	a0,-20(s0)
 104:../Firmware/GD32VW55x_standard_peripheral/Source/gd32vw55x_fmc.c ****         /* reset the PER bit */
 105:../Firmware/GD32VW55x_standard_peripheral/Source/gd32vw55x_fmc.c ****         FMC_CTL &= ~FMC_CTL_PER;
 143              		.loc 1 105 17
 144 006a B7270240 		li	a5,1073881088
 145 006e C107     		addi	a5,a5,16
 146 0070 9843     		lw	a4,0(a5)
 147 0072 B7270240 		li	a5,1073881088
 148 0076 C107     		addi	a5,a5,16
 149 0078 759B     		andi	a4,a4,-3
 150 007a 98C3     		sw	a4,0(a5)
 151              	.L6:
 106:../Firmware/GD32VW55x_standard_peripheral/Source/gd32vw55x_fmc.c ****     }
 107:../Firmware/GD32VW55x_standard_peripheral/Source/gd32vw55x_fmc.c **** 
 108:../Firmware/GD32VW55x_standard_peripheral/Source/gd32vw55x_fmc.c ****     /* return the FMC state */
 109:../Firmware/GD32VW55x_standard_peripheral/Source/gd32vw55x_fmc.c ****     return fmc_state;
 152              		.loc 1 109 12
 153 007c 8327C4FE 		lw	a5,-20(s0)
 110:../Firmware/GD32VW55x_standard_peripheral/Source/gd32vw55x_fmc.c **** }
 154              		.loc 1 110 1
 155 0080 3E85     		mv	a0,a5
 156 0082 B250     		lw	ra,44(sp)
 157              		.cfi_restore 1
 158 0084 2254     		lw	s0,40(sp)
 159              		.cfi_restore 8
 160              		.cfi_def_cfa 2, 48
 161 0086 4561     		addi	sp,sp,48
 162              		.cfi_def_cfa_offset 0
 163 0088 8280     		jr	ra
 164              		.cfi_endproc
 165              	.LFE349:
 167              		.section	.text.fmc_mass_erase,"ax",@progbits
 168              		.align	1
 169              		.globl	fmc_mass_erase
 171              	fmc_mass_erase:
 172              	.LFB350:
 111:../Firmware/GD32VW55x_standard_peripheral/Source/gd32vw55x_fmc.c **** 
 112:../Firmware/GD32VW55x_standard_peripheral/Source/gd32vw55x_fmc.c **** /*!
 113:../Firmware/GD32VW55x_standard_peripheral/Source/gd32vw55x_fmc.c ****     \brief      FMC erase whole chip
 114:../Firmware/GD32VW55x_standard_peripheral/Source/gd32vw55x_fmc.c ****     \param[in]  none
 115:../Firmware/GD32VW55x_standard_peripheral/Source/gd32vw55x_fmc.c ****     \param[out] none
 116:../Firmware/GD32VW55x_standard_peripheral/Source/gd32vw55x_fmc.c ****     \retval     state of FMC
 117:../Firmware/GD32VW55x_standard_peripheral/Source/gd32vw55x_fmc.c ****       \arg        FMC_READY: the operation has been completed
 118:../Firmware/GD32VW55x_standard_peripheral/Source/gd32vw55x_fmc.c ****       \arg        FMC_WPERR: erase/program protection error
 119:../Firmware/GD32VW55x_standard_peripheral/Source/gd32vw55x_fmc.c ****       \arg        FMC_TOERR: timeout error
 120:../Firmware/GD32VW55x_standard_peripheral/Source/gd32vw55x_fmc.c **** */
 121:../Firmware/GD32VW55x_standard_peripheral/Source/gd32vw55x_fmc.c **** fmc_state_enum fmc_mass_erase(void)
 122:../Firmware/GD32VW55x_standard_peripheral/Source/gd32vw55x_fmc.c **** {
 173              		.loc 1 122 1
 174              		.cfi_startproc
 175 0000 0111     		addi	sp,sp,-32
 176              		.cfi_def_cfa_offset 32
 177 0002 06CE     		sw	ra,28(sp)
 178 0004 22CC     		sw	s0,24(sp)
 179              		.cfi_offset 1, -4
 180              		.cfi_offset 8, -8
 181 0006 0010     		addi	s0,sp,32
 182              		.cfi_def_cfa 8, 0
 123:../Firmware/GD32VW55x_standard_peripheral/Source/gd32vw55x_fmc.c ****     fmc_state_enum fmc_state = FMC_READY;
 183              		.loc 1 123 20
 184 0008 232604FE 		sw	zero,-20(s0)
 124:../Firmware/GD32VW55x_standard_peripheral/Source/gd32vw55x_fmc.c **** 
 125:../Firmware/GD32VW55x_standard_peripheral/Source/gd32vw55x_fmc.c ****     /* wait for the FMC ready */
 126:../Firmware/GD32VW55x_standard_peripheral/Source/gd32vw55x_fmc.c ****     fmc_state = fmc_ready_wait(FMC_TIMEOUT_COUNT);
 185              		.loc 1 126 17
 186 000c 37050001 		li	a0,16777216
 187 0010 97000000 		call	fmc_ready_wait
 187      E7800000 
 188 0018 2326A4FE 		sw	a0,-20(s0)
 127:../Firmware/GD32VW55x_standard_peripheral/Source/gd32vw55x_fmc.c **** 
 128:../Firmware/GD32VW55x_standard_peripheral/Source/gd32vw55x_fmc.c ****     if(FMC_READY == fmc_state){
 189              		.loc 1 128 7
 190 001c 8327C4FE 		lw	a5,-20(s0)
 191 0020 B1E7     		bne	a5,zero,.L9
 129:../Firmware/GD32VW55x_standard_peripheral/Source/gd32vw55x_fmc.c ****         /* start chip erase */
 130:../Firmware/GD32VW55x_standard_peripheral/Source/gd32vw55x_fmc.c ****         FMC_CTL |= FMC_CTL_MER;
 192              		.loc 1 130 17
 193 0022 B7270240 		li	a5,1073881088
 194 0026 C107     		addi	a5,a5,16
 195 0028 9843     		lw	a4,0(a5)
 196 002a B7270240 		li	a5,1073881088
 197 002e C107     		addi	a5,a5,16
 198 0030 13674700 		ori	a4,a4,4
 199 0034 98C3     		sw	a4,0(a5)
 131:../Firmware/GD32VW55x_standard_peripheral/Source/gd32vw55x_fmc.c ****         FMC_CTL |= FMC_CTL_START;
 200              		.loc 1 131 17
 201 0036 B7270240 		li	a5,1073881088
 202 003a C107     		addi	a5,a5,16
 203 003c 9843     		lw	a4,0(a5)
 204 003e B7270240 		li	a5,1073881088
 205 0042 C107     		addi	a5,a5,16
 206 0044 13670704 		ori	a4,a4,64
 207 0048 98C3     		sw	a4,0(a5)
 132:../Firmware/GD32VW55x_standard_peripheral/Source/gd32vw55x_fmc.c ****         /* wait for the FMC ready */
 133:../Firmware/GD32VW55x_standard_peripheral/Source/gd32vw55x_fmc.c ****         fmc_state = fmc_ready_wait(FMC_TIMEOUT_COUNT);
 208              		.loc 1 133 21
 209 004a 37050001 		li	a0,16777216
 210 004e 97000000 		call	fmc_ready_wait
 210      E7800000 
 211 0056 2326A4FE 		sw	a0,-20(s0)
 134:../Firmware/GD32VW55x_standard_peripheral/Source/gd32vw55x_fmc.c ****         /* reset the MER bit */
 135:../Firmware/GD32VW55x_standard_peripheral/Source/gd32vw55x_fmc.c ****         FMC_CTL &= ~FMC_CTL_MER;
 212              		.loc 1 135 17
 213 005a B7270240 		li	a5,1073881088
 214 005e C107     		addi	a5,a5,16
 215 0060 9843     		lw	a4,0(a5)
 216 0062 B7270240 		li	a5,1073881088
 217 0066 C107     		addi	a5,a5,16
 218 0068 6D9B     		andi	a4,a4,-5
 219 006a 98C3     		sw	a4,0(a5)
 220              	.L9:
 136:../Firmware/GD32VW55x_standard_peripheral/Source/gd32vw55x_fmc.c ****     }
 137:../Firmware/GD32VW55x_standard_peripheral/Source/gd32vw55x_fmc.c **** 
 138:../Firmware/GD32VW55x_standard_peripheral/Source/gd32vw55x_fmc.c ****     /* return the FMC state  */
 139:../Firmware/GD32VW55x_standard_peripheral/Source/gd32vw55x_fmc.c ****     return fmc_state;
 221              		.loc 1 139 12
 222 006c 8327C4FE 		lw	a5,-20(s0)
 140:../Firmware/GD32VW55x_standard_peripheral/Source/gd32vw55x_fmc.c **** }
 223              		.loc 1 140 1
 224 0070 3E85     		mv	a0,a5
 225 0072 F240     		lw	ra,28(sp)
 226              		.cfi_restore 1
 227 0074 6244     		lw	s0,24(sp)
 228              		.cfi_restore 8
 229              		.cfi_def_cfa 2, 32
 230 0076 0561     		addi	sp,sp,32
 231              		.cfi_def_cfa_offset 0
 232 0078 8280     		jr	ra
 233              		.cfi_endproc
 234              	.LFE350:
 236              		.section	.text.fmc_word_program,"ax",@progbits
 237              		.align	1
 238              		.globl	fmc_word_program
 240              	fmc_word_program:
 241              	.LFB351:
 141:../Firmware/GD32VW55x_standard_peripheral/Source/gd32vw55x_fmc.c **** 
 142:../Firmware/GD32VW55x_standard_peripheral/Source/gd32vw55x_fmc.c **** /*!
 143:../Firmware/GD32VW55x_standard_peripheral/Source/gd32vw55x_fmc.c ****     \brief      FMC program a word at the corresponding address
 144:../Firmware/GD32VW55x_standard_peripheral/Source/gd32vw55x_fmc.c ****     \param[in]  address: address to program
 145:../Firmware/GD32VW55x_standard_peripheral/Source/gd32vw55x_fmc.c ****     \param[in]  data: word to program
 146:../Firmware/GD32VW55x_standard_peripheral/Source/gd32vw55x_fmc.c ****     \param[out] none
 147:../Firmware/GD32VW55x_standard_peripheral/Source/gd32vw55x_fmc.c ****     \retval     state of FMC
 148:../Firmware/GD32VW55x_standard_peripheral/Source/gd32vw55x_fmc.c ****       \arg        FMC_READY: the operation has been completed
 149:../Firmware/GD32VW55x_standard_peripheral/Source/gd32vw55x_fmc.c ****       \arg        FMC_WPERR: erase/program protection error
 150:../Firmware/GD32VW55x_standard_peripheral/Source/gd32vw55x_fmc.c ****       \arg        FMC_TOERR: timeout error
 151:../Firmware/GD32VW55x_standard_peripheral/Source/gd32vw55x_fmc.c **** */
 152:../Firmware/GD32VW55x_standard_peripheral/Source/gd32vw55x_fmc.c **** fmc_state_enum fmc_word_program(uint32_t address, uint32_t data)
 153:../Firmware/GD32VW55x_standard_peripheral/Source/gd32vw55x_fmc.c **** {
 242              		.loc 1 153 1
 243              		.cfi_startproc
 244 0000 7971     		addi	sp,sp,-48
 245              		.cfi_def_cfa_offset 48
 246 0002 06D6     		sw	ra,44(sp)
 247 0004 22D4     		sw	s0,40(sp)
 248              		.cfi_offset 1, -4
 249              		.cfi_offset 8, -8
 250 0006 0018     		addi	s0,sp,48
 251              		.cfi_def_cfa 8, 0
 252 0008 232EA4FC 		sw	a0,-36(s0)
 253 000c 232CB4FC 		sw	a1,-40(s0)
 154:../Firmware/GD32VW55x_standard_peripheral/Source/gd32vw55x_fmc.c ****     fmc_state_enum fmc_state = FMC_READY;
 254              		.loc 1 154 20
 255 0010 232604FE 		sw	zero,-20(s0)
 155:../Firmware/GD32VW55x_standard_peripheral/Source/gd32vw55x_fmc.c **** 
 156:../Firmware/GD32VW55x_standard_peripheral/Source/gd32vw55x_fmc.c ****     /* wait for the FMC ready */
 157:../Firmware/GD32VW55x_standard_peripheral/Source/gd32vw55x_fmc.c ****     fmc_state = fmc_ready_wait(FMC_TIMEOUT_COUNT);
 256              		.loc 1 157 17
 257 0014 37050001 		li	a0,16777216
 258 0018 97000000 		call	fmc_ready_wait
 258      E7800000 
 259 0020 2326A4FE 		sw	a0,-20(s0)
 158:../Firmware/GD32VW55x_standard_peripheral/Source/gd32vw55x_fmc.c **** 
 159:../Firmware/GD32VW55x_standard_peripheral/Source/gd32vw55x_fmc.c ****     if(FMC_READY == fmc_state){
 260              		.loc 1 159 7
 261 0024 8327C4FE 		lw	a5,-20(s0)
 262 0028 A9E3     		bne	a5,zero,.L12
 160:../Firmware/GD32VW55x_standard_peripheral/Source/gd32vw55x_fmc.c ****         /* set the PG bit to start program */
 161:../Firmware/GD32VW55x_standard_peripheral/Source/gd32vw55x_fmc.c ****         FMC_CTL |= FMC_CTL_PG;
 263              		.loc 1 161 17
 264 002a B7270240 		li	a5,1073881088
 265 002e C107     		addi	a5,a5,16
 266 0030 9843     		lw	a4,0(a5)
 267 0032 B7270240 		li	a5,1073881088
 268 0036 C107     		addi	a5,a5,16
 269 0038 13671700 		ori	a4,a4,1
 270 003c 98C3     		sw	a4,0(a5)
 162:../Firmware/GD32VW55x_standard_peripheral/Source/gd32vw55x_fmc.c ****         REG32(address) = data;
 271              		.loc 1 162 9
 272 003e 8327C4FD 		lw	a5,-36(s0)
 273              		.loc 1 162 24
 274 0042 032784FD 		lw	a4,-40(s0)
 275 0046 98C3     		sw	a4,0(a5)
 163:../Firmware/GD32VW55x_standard_peripheral/Source/gd32vw55x_fmc.c ****         /* wait for the FMC ready */
 164:../Firmware/GD32VW55x_standard_peripheral/Source/gd32vw55x_fmc.c ****         fmc_state = fmc_ready_wait(FMC_TIMEOUT_COUNT);
 276              		.loc 1 164 21
 277 0048 37050001 		li	a0,16777216
 278 004c 97000000 		call	fmc_ready_wait
 278      E7800000 
 279 0054 2326A4FE 		sw	a0,-20(s0)
 165:../Firmware/GD32VW55x_standard_peripheral/Source/gd32vw55x_fmc.c ****         /* reset the PG bit */
 166:../Firmware/GD32VW55x_standard_peripheral/Source/gd32vw55x_fmc.c ****         FMC_CTL &= ~FMC_CTL_PG;
 280              		.loc 1 166 17
 281 0058 B7270240 		li	a5,1073881088
 282 005c C107     		addi	a5,a5,16
 283 005e 9843     		lw	a4,0(a5)
 284 0060 B7270240 		li	a5,1073881088
 285 0064 C107     		addi	a5,a5,16
 286 0066 799B     		andi	a4,a4,-2
 287 0068 98C3     		sw	a4,0(a5)
 288              	.L12:
 167:../Firmware/GD32VW55x_standard_peripheral/Source/gd32vw55x_fmc.c ****     }
 168:../Firmware/GD32VW55x_standard_peripheral/Source/gd32vw55x_fmc.c **** 
 169:../Firmware/GD32VW55x_standard_peripheral/Source/gd32vw55x_fmc.c ****     /* return the FMC state */
 170:../Firmware/GD32VW55x_standard_peripheral/Source/gd32vw55x_fmc.c ****     return fmc_state;
 289              		.loc 1 170 12
 290 006a 8327C4FE 		lw	a5,-20(s0)
 171:../Firmware/GD32VW55x_standard_peripheral/Source/gd32vw55x_fmc.c **** }
 291              		.loc 1 171 1
 292 006e 3E85     		mv	a0,a5
 293 0070 B250     		lw	ra,44(sp)
 294              		.cfi_restore 1
 295 0072 2254     		lw	s0,40(sp)
 296              		.cfi_restore 8
 297              		.cfi_def_cfa 2, 48
 298 0074 4561     		addi	sp,sp,48
 299              		.cfi_def_cfa_offset 0
 300 0076 8280     		jr	ra
 301              		.cfi_endproc
 302              	.LFE351:
 304              		.section	.text.fmc_continuous_program,"ax",@progbits
 305              		.align	1
 306              		.globl	fmc_continuous_program
 308              	fmc_continuous_program:
 309              	.LFB352:
 172:../Firmware/GD32VW55x_standard_peripheral/Source/gd32vw55x_fmc.c **** 
 173:../Firmware/GD32VW55x_standard_peripheral/Source/gd32vw55x_fmc.c **** /*!
 174:../Firmware/GD32VW55x_standard_peripheral/Source/gd32vw55x_fmc.c ****     \brief      FMC program data continuously at the corresponding address
 175:../Firmware/GD32VW55x_standard_peripheral/Source/gd32vw55x_fmc.c ****     \param[in]  address: address to program, must be 4-byte aligned
 176:../Firmware/GD32VW55x_standard_peripheral/Source/gd32vw55x_fmc.c ****     \param[in]  data: data buffer to program
 177:../Firmware/GD32VW55x_standard_peripheral/Source/gd32vw55x_fmc.c ****     \param[in]  size: data buffer size in bytes, must be 4-byte aligned
 178:../Firmware/GD32VW55x_standard_peripheral/Source/gd32vw55x_fmc.c ****     \param[out] none
 179:../Firmware/GD32VW55x_standard_peripheral/Source/gd32vw55x_fmc.c ****     \retval     state of FMC
 180:../Firmware/GD32VW55x_standard_peripheral/Source/gd32vw55x_fmc.c ****       \arg        FMC_READY: the operation has been completed
 181:../Firmware/GD32VW55x_standard_peripheral/Source/gd32vw55x_fmc.c ****       \arg        FMC_WPERR: erase/program protection error
 182:../Firmware/GD32VW55x_standard_peripheral/Source/gd32vw55x_fmc.c ****       \arg        FMC_TOERR: timeout error
 183:../Firmware/GD32VW55x_standard_peripheral/Source/gd32vw55x_fmc.c **** */
 184:../Firmware/GD32VW55x_standard_peripheral/Source/gd32vw55x_fmc.c **** fmc_state_enum fmc_continuous_program(uint32_t address, uint32_t data[], uint32_t size)
 185:../Firmware/GD32VW55x_standard_peripheral/Source/gd32vw55x_fmc.c **** {
 310              		.loc 1 185 1
 311              		.cfi_startproc
 312 0000 7971     		addi	sp,sp,-48
 313              		.cfi_def_cfa_offset 48
 314 0002 06D6     		sw	ra,44(sp)
 315 0004 22D4     		sw	s0,40(sp)
 316              		.cfi_offset 1, -4
 317              		.cfi_offset 8, -8
 318 0006 0018     		addi	s0,sp,48
 319              		.cfi_def_cfa 8, 0
 320 0008 232EA4FC 		sw	a0,-36(s0)
 321 000c 232CB4FC 		sw	a1,-40(s0)
 322 0010 232AC4FC 		sw	a2,-44(s0)
 186:../Firmware/GD32VW55x_standard_peripheral/Source/gd32vw55x_fmc.c ****     fmc_state_enum fmc_state = FMC_READY;
 323              		.loc 1 186 20
 324 0014 232404FE 		sw	zero,-24(s0)
 187:../Firmware/GD32VW55x_standard_peripheral/Source/gd32vw55x_fmc.c **** 
 188:../Firmware/GD32VW55x_standard_peripheral/Source/gd32vw55x_fmc.c ****     /* wait for the FMC ready */
 189:../Firmware/GD32VW55x_standard_peripheral/Source/gd32vw55x_fmc.c ****     fmc_state = fmc_ready_wait(FMC_TIMEOUT_COUNT);
 325              		.loc 1 189 17
 326 0018 37050001 		li	a0,16777216
 327 001c 97000000 		call	fmc_ready_wait
 327      E7800000 
 328 0024 2324A4FE 		sw	a0,-24(s0)
 190:../Firmware/GD32VW55x_standard_peripheral/Source/gd32vw55x_fmc.c **** 
 191:../Firmware/GD32VW55x_standard_peripheral/Source/gd32vw55x_fmc.c ****     if(FMC_READY == fmc_state){
 329              		.loc 1 191 7
 330 0028 832784FE 		lw	a5,-24(s0)
 331 002c ADE3     		bne	a5,zero,.L15
 192:../Firmware/GD32VW55x_standard_peripheral/Source/gd32vw55x_fmc.c ****         /* set the PG bit to start program */
 193:../Firmware/GD32VW55x_standard_peripheral/Source/gd32vw55x_fmc.c ****         FMC_CTL |= FMC_CTL_PG;
 332              		.loc 1 193 17
 333 002e B7270240 		li	a5,1073881088
 334 0032 C107     		addi	a5,a5,16
 335 0034 9843     		lw	a4,0(a5)
 336 0036 B7270240 		li	a5,1073881088
 337 003a C107     		addi	a5,a5,16
 338 003c 13671700 		ori	a4,a4,1
 339 0040 98C3     		sw	a4,0(a5)
 340              	.LBB2:
 194:../Firmware/GD32VW55x_standard_peripheral/Source/gd32vw55x_fmc.c **** 
 195:../Firmware/GD32VW55x_standard_peripheral/Source/gd32vw55x_fmc.c ****         for(uint32_t i = 0U; i < size; i++){
 341              		.loc 1 195 22
 342 0042 232604FE 		sw	zero,-20(s0)
 343              		.loc 1 195 9
 344 0046 2DA0     		j	.L16
 345              	.L17:
 196:../Firmware/GD32VW55x_standard_peripheral/Source/gd32vw55x_fmc.c ****             REG32(address) = data[i];
 346              		.loc 1 196 34 discriminator 3
 347 0048 8327C4FE 		lw	a5,-20(s0)
 348 004c 8A07     		slli	a5,a5,2
 349 004e 032784FD 		lw	a4,-40(s0)
 350 0052 3E97     		add	a4,a4,a5
 351              		.loc 1 196 13 discriminator 3
 352 0054 8327C4FD 		lw	a5,-36(s0)
 353              		.loc 1 196 34 discriminator 3
 354 0058 1843     		lw	a4,0(a4)
 355              		.loc 1 196 28 discriminator 3
 356 005a 98C3     		sw	a4,0(a5)
 197:../Firmware/GD32VW55x_standard_peripheral/Source/gd32vw55x_fmc.c ****             address += 4U;
 357              		.loc 1 197 21 discriminator 3
 358 005c 8327C4FD 		lw	a5,-36(s0)
 359 0060 9107     		addi	a5,a5,4
 360 0062 232EF4FC 		sw	a5,-36(s0)
 195:../Firmware/GD32VW55x_standard_peripheral/Source/gd32vw55x_fmc.c ****             REG32(address) = data[i];
 361              		.loc 1 195 41 discriminator 3
 362 0066 8327C4FE 		lw	a5,-20(s0)
 363 006a 8507     		addi	a5,a5,1
 364 006c 2326F4FE 		sw	a5,-20(s0)
 365              	.L16:
 195:../Firmware/GD32VW55x_standard_peripheral/Source/gd32vw55x_fmc.c ****             REG32(address) = data[i];
 366              		.loc 1 195 9 discriminator 1
 367 0070 0327C4FE 		lw	a4,-20(s0)
 368 0074 832744FD 		lw	a5,-44(s0)
 369 0078 E368F7FC 		bltu	a4,a5,.L17
 370              	.LBE2:
 198:../Firmware/GD32VW55x_standard_peripheral/Source/gd32vw55x_fmc.c ****         }
 199:../Firmware/GD32VW55x_standard_peripheral/Source/gd32vw55x_fmc.c **** 
 200:../Firmware/GD32VW55x_standard_peripheral/Source/gd32vw55x_fmc.c ****         /* reset the PG bit */
 201:../Firmware/GD32VW55x_standard_peripheral/Source/gd32vw55x_fmc.c ****         FMC_CTL &= ~FMC_CTL_PG;
 371              		.loc 1 201 17
 372 007c B7270240 		li	a5,1073881088
 373 0080 C107     		addi	a5,a5,16
 374 0082 9843     		lw	a4,0(a5)
 375 0084 B7270240 		li	a5,1073881088
 376 0088 C107     		addi	a5,a5,16
 377 008a 799B     		andi	a4,a4,-2
 378 008c 98C3     		sw	a4,0(a5)
 379              	.L15:
 202:../Firmware/GD32VW55x_standard_peripheral/Source/gd32vw55x_fmc.c ****     }
 203:../Firmware/GD32VW55x_standard_peripheral/Source/gd32vw55x_fmc.c **** 
 204:../Firmware/GD32VW55x_standard_peripheral/Source/gd32vw55x_fmc.c ****     /* return the FMC state */
 205:../Firmware/GD32VW55x_standard_peripheral/Source/gd32vw55x_fmc.c ****     return fmc_state;
 380              		.loc 1 205 12
 381 008e 832784FE 		lw	a5,-24(s0)
 206:../Firmware/GD32VW55x_standard_peripheral/Source/gd32vw55x_fmc.c **** }
 382              		.loc 1 206 1
 383 0092 3E85     		mv	a0,a5
 384 0094 B250     		lw	ra,44(sp)
 385              		.cfi_restore 1
 386 0096 2254     		lw	s0,40(sp)
 387              		.cfi_restore 8
 388              		.cfi_def_cfa 2, 48
 389 0098 4561     		addi	sp,sp,48
 390              		.cfi_def_cfa_offset 0
 391 009a 8280     		jr	ra
 392              		.cfi_endproc
 393              	.LFE352:
 395              		.section	.text.fmc_obr_function_enable,"ax",@progbits
 396              		.align	1
 397              		.globl	fmc_obr_function_enable
 399              	fmc_obr_function_enable:
 400              	.LFB353:
 207:../Firmware/GD32VW55x_standard_peripheral/Source/gd32vw55x_fmc.c **** 
 208:../Firmware/GD32VW55x_standard_peripheral/Source/gd32vw55x_fmc.c **** /*!
 209:../Firmware/GD32VW55x_standard_peripheral/Source/gd32vw55x_fmc.c ****     \brief      enable FMC OBR function
 210:../Firmware/GD32VW55x_standard_peripheral/Source/gd32vw55x_fmc.c ****     \param[in]  obr_function: the OBR function
 211:../Firmware/GD32VW55x_standard_peripheral/Source/gd32vw55x_fmc.c ****                 one or more parameters can be selected which are shown as below:
 212:../Firmware/GD32VW55x_standard_peripheral/Source/gd32vw55x_fmc.c ****       \arg        FMC_OBR_NWDG_HW: watchdog status function
 213:../Firmware/GD32VW55x_standard_peripheral/Source/gd32vw55x_fmc.c ****       \arg        FMC_OBR_NRST_STDBY: no reset generated when entering Standby mode function
 214:../Firmware/GD32VW55x_standard_peripheral/Source/gd32vw55x_fmc.c ****       \arg        FMC_OBR_NSRT_DPSLP: no reset generated when entering DeepSleep mode function
 215:../Firmware/GD32VW55x_standard_peripheral/Source/gd32vw55x_fmc.c ****       \arg        FMC_OBR_SRAM1_RST: SRAM1 reset automatically function
 216:../Firmware/GD32VW55x_standard_peripheral/Source/gd32vw55x_fmc.c ****     \param[out] none
 217:../Firmware/GD32VW55x_standard_peripheral/Source/gd32vw55x_fmc.c ****     \retval     none
 218:../Firmware/GD32VW55x_standard_peripheral/Source/gd32vw55x_fmc.c **** */
 219:../Firmware/GD32VW55x_standard_peripheral/Source/gd32vw55x_fmc.c **** void fmc_obr_function_enable(uint32_t obr_function)
 220:../Firmware/GD32VW55x_standard_peripheral/Source/gd32vw55x_fmc.c **** {
 401              		.loc 1 220 1
 402              		.cfi_startproc
 403 0000 0111     		addi	sp,sp,-32
 404              		.cfi_def_cfa_offset 32
 405 0002 22CE     		sw	s0,28(sp)
 406              		.cfi_offset 8, -4
 407 0004 0010     		addi	s0,sp,32
 408              		.cfi_def_cfa 8, 0
 409 0006 2326A4FE 		sw	a0,-20(s0)
 221:../Firmware/GD32VW55x_standard_peripheral/Source/gd32vw55x_fmc.c ****     FMC_OBR |= obr_function;
 410              		.loc 1 221 13
 411 000a B7270240 		li	a5,1073881088
 412 000e 93870704 		addi	a5,a5,64
 413 0012 9443     		lw	a3,0(a5)
 414 0014 B7270240 		li	a5,1073881088
 415 0018 93870704 		addi	a5,a5,64
 416 001c 0327C4FE 		lw	a4,-20(s0)
 417 0020 558F     		or	a4,a3,a4
 418 0022 98C3     		sw	a4,0(a5)
 222:../Firmware/GD32VW55x_standard_peripheral/Source/gd32vw55x_fmc.c **** }
 419              		.loc 1 222 1
 420 0024 0100     		nop
 421 0026 7244     		lw	s0,28(sp)
 422              		.cfi_restore 8
 423              		.cfi_def_cfa 2, 32
 424 0028 0561     		addi	sp,sp,32
 425              		.cfi_def_cfa_offset 0
 426 002a 8280     		jr	ra
 427              		.cfi_endproc
 428              	.LFE353:
 430              		.section	.text.fmc_obr_function_disable,"ax",@progbits
 431              		.align	1
 432              		.globl	fmc_obr_function_disable
 434              	fmc_obr_function_disable:
 435              	.LFB354:
 223:../Firmware/GD32VW55x_standard_peripheral/Source/gd32vw55x_fmc.c **** 
 224:../Firmware/GD32VW55x_standard_peripheral/Source/gd32vw55x_fmc.c **** /*!
 225:../Firmware/GD32VW55x_standard_peripheral/Source/gd32vw55x_fmc.c ****     \brief      disable FMC OBR function
 226:../Firmware/GD32VW55x_standard_peripheral/Source/gd32vw55x_fmc.c ****     \param[in]  obr_function: the OBR function
 227:../Firmware/GD32VW55x_standard_peripheral/Source/gd32vw55x_fmc.c ****                 one or more parameters can be selected which are shown as below:
 228:../Firmware/GD32VW55x_standard_peripheral/Source/gd32vw55x_fmc.c ****       \arg        FMC_OBR_NWDG_HW: watchdog status function
 229:../Firmware/GD32VW55x_standard_peripheral/Source/gd32vw55x_fmc.c ****       \arg        FMC_OBR_NRST_STDBY: no reset generated when entering Standby mode function
 230:../Firmware/GD32VW55x_standard_peripheral/Source/gd32vw55x_fmc.c ****       \arg        FMC_OBR_NSRT_DPSLP: no reset generated when entering DeepSleep mode function
 231:../Firmware/GD32VW55x_standard_peripheral/Source/gd32vw55x_fmc.c ****       \arg        FMC_OBR_SRAM1_RST: SRAM1 reset automatically function
 232:../Firmware/GD32VW55x_standard_peripheral/Source/gd32vw55x_fmc.c ****     \param[out] none
 233:../Firmware/GD32VW55x_standard_peripheral/Source/gd32vw55x_fmc.c ****     \retval     none
 234:../Firmware/GD32VW55x_standard_peripheral/Source/gd32vw55x_fmc.c **** */
 235:../Firmware/GD32VW55x_standard_peripheral/Source/gd32vw55x_fmc.c **** void fmc_obr_function_disable(uint32_t obr_function)
 236:../Firmware/GD32VW55x_standard_peripheral/Source/gd32vw55x_fmc.c **** {
 436              		.loc 1 236 1
 437              		.cfi_startproc
 438 0000 0111     		addi	sp,sp,-32
 439              		.cfi_def_cfa_offset 32
 440 0002 22CE     		sw	s0,28(sp)
 441              		.cfi_offset 8, -4
 442 0004 0010     		addi	s0,sp,32
 443              		.cfi_def_cfa 8, 0
 444 0006 2326A4FE 		sw	a0,-20(s0)
 237:../Firmware/GD32VW55x_standard_peripheral/Source/gd32vw55x_fmc.c ****     FMC_OBR &= ~(uint32_t) obr_function;
 445              		.loc 1 237 13
 446 000a B7270240 		li	a5,1073881088
 447 000e 93870704 		addi	a5,a5,64
 448 0012 9443     		lw	a3,0(a5)
 449              		.loc 1 237 16
 450 0014 8327C4FE 		lw	a5,-20(s0)
 451 0018 13C7F7FF 		not	a4,a5
 452              		.loc 1 237 13
 453 001c B7270240 		li	a5,1073881088
 454 0020 93870704 		addi	a5,a5,64
 455 0024 758F     		and	a4,a3,a4
 456 0026 98C3     		sw	a4,0(a5)
 238:../Firmware/GD32VW55x_standard_peripheral/Source/gd32vw55x_fmc.c **** }
 457              		.loc 1 238 1
 458 0028 0100     		nop
 459 002a 7244     		lw	s0,28(sp)
 460              		.cfi_restore 8
 461              		.cfi_def_cfa 2, 32
 462 002c 0561     		addi	sp,sp,32
 463              		.cfi_def_cfa_offset 0
 464 002e 8280     		jr	ra
 465              		.cfi_endproc
 466              	.LFE354:
 468              		.section	.text.ob_unlock,"ax",@progbits
 469              		.align	1
 470              		.globl	ob_unlock
 472              	ob_unlock:
 473              	.LFB355:
 239:../Firmware/GD32VW55x_standard_peripheral/Source/gd32vw55x_fmc.c **** 
 240:../Firmware/GD32VW55x_standard_peripheral/Source/gd32vw55x_fmc.c **** /*!
 241:../Firmware/GD32VW55x_standard_peripheral/Source/gd32vw55x_fmc.c ****     \brief      unlock the option bytes operation
 242:../Firmware/GD32VW55x_standard_peripheral/Source/gd32vw55x_fmc.c ****     it is better to used in pairs with ob_lock
 243:../Firmware/GD32VW55x_standard_peripheral/Source/gd32vw55x_fmc.c ****     \param[in]  none
 244:../Firmware/GD32VW55x_standard_peripheral/Source/gd32vw55x_fmc.c ****     \param[out] none
 245:../Firmware/GD32VW55x_standard_peripheral/Source/gd32vw55x_fmc.c ****     \retval     none
 246:../Firmware/GD32VW55x_standard_peripheral/Source/gd32vw55x_fmc.c **** */
 247:../Firmware/GD32VW55x_standard_peripheral/Source/gd32vw55x_fmc.c **** void ob_unlock(void)
 248:../Firmware/GD32VW55x_standard_peripheral/Source/gd32vw55x_fmc.c **** {
 474              		.loc 1 248 1
 475              		.cfi_startproc
 476 0000 4111     		addi	sp,sp,-16
 477              		.cfi_def_cfa_offset 16
 478 0002 22C6     		sw	s0,12(sp)
 479              		.cfi_offset 8, -4
 480 0004 0008     		addi	s0,sp,16
 481              		.cfi_def_cfa 8, 0
 249:../Firmware/GD32VW55x_standard_peripheral/Source/gd32vw55x_fmc.c ****     if (RESET == (FMC_CTL & FMC_CTL_OBWEN)){
 482              		.loc 1 249 19
 483 0006 B7270240 		li	a5,1073881088
 484 000a C107     		addi	a5,a5,16
 485 000c 9C43     		lw	a5,0(a5)
 486              		.loc 1 249 27
 487 000e 93F70720 		andi	a5,a5,512
 488              		.loc 1 249 8
 489 0012 8DE3     		bne	a5,zero,.L23
 250:../Firmware/GD32VW55x_standard_peripheral/Source/gd32vw55x_fmc.c ****         /* write the FMC ob unlock key */
 251:../Firmware/GD32VW55x_standard_peripheral/Source/gd32vw55x_fmc.c ****         FMC_OBKEY = UNLOCK_KEY0;
 490              		.loc 1 251 9
 491 0014 B7270240 		li	a5,1073881088
 492 0018 A107     		addi	a5,a5,8
 493              		.loc 1 251 19
 494 001a 37076745 		li	a4,1164378112
 495 001e 13073712 		addi	a4,a4,291
 496 0022 98C3     		sw	a4,0(a5)
 252:../Firmware/GD32VW55x_standard_peripheral/Source/gd32vw55x_fmc.c ****         FMC_OBKEY = UNLOCK_KEY1;
 497              		.loc 1 252 9
 498 0024 B7270240 		li	a5,1073881088
 499 0028 A107     		addi	a5,a5,8
 500              		.loc 1 252 19
 501 002a 3797EFCD 		li	a4,-839938048
 502 002e 1307B79A 		addi	a4,a4,-1621
 503 0032 98C3     		sw	a4,0(a5)
 504              	.L23:
 253:../Firmware/GD32VW55x_standard_peripheral/Source/gd32vw55x_fmc.c ****     }
 254:../Firmware/GD32VW55x_standard_peripheral/Source/gd32vw55x_fmc.c **** }
 505              		.loc 1 254 1
 506 0034 0100     		nop
 507 0036 3244     		lw	s0,12(sp)
 508              		.cfi_restore 8
 509              		.cfi_def_cfa 2, 16
 510 0038 4101     		addi	sp,sp,16
 511              		.cfi_def_cfa_offset 0
 512 003a 8280     		jr	ra
 513              		.cfi_endproc
 514              	.LFE355:
 516              		.section	.text.ob_lock,"ax",@progbits
 517              		.align	1
 518              		.globl	ob_lock
 520              	ob_lock:
 521              	.LFB356:
 255:../Firmware/GD32VW55x_standard_peripheral/Source/gd32vw55x_fmc.c **** 
 256:../Firmware/GD32VW55x_standard_peripheral/Source/gd32vw55x_fmc.c **** /*!
 257:../Firmware/GD32VW55x_standard_peripheral/Source/gd32vw55x_fmc.c ****     \brief      lock the option bytes operation
 258:../Firmware/GD32VW55x_standard_peripheral/Source/gd32vw55x_fmc.c ****                 it is better to used in pairs with ob_unlock after an operation
 259:../Firmware/GD32VW55x_standard_peripheral/Source/gd32vw55x_fmc.c ****     \param[in]  none
 260:../Firmware/GD32VW55x_standard_peripheral/Source/gd32vw55x_fmc.c ****     \param[out] none
 261:../Firmware/GD32VW55x_standard_peripheral/Source/gd32vw55x_fmc.c ****     \retval     none
 262:../Firmware/GD32VW55x_standard_peripheral/Source/gd32vw55x_fmc.c **** */
 263:../Firmware/GD32VW55x_standard_peripheral/Source/gd32vw55x_fmc.c **** void ob_lock(void)
 264:../Firmware/GD32VW55x_standard_peripheral/Source/gd32vw55x_fmc.c **** {
 522              		.loc 1 264 1
 523              		.cfi_startproc
 524 0000 4111     		addi	sp,sp,-16
 525              		.cfi_def_cfa_offset 16
 526 0002 22C6     		sw	s0,12(sp)
 527              		.cfi_offset 8, -4
 528 0004 0008     		addi	s0,sp,16
 529              		.cfi_def_cfa 8, 0
 265:../Firmware/GD32VW55x_standard_peripheral/Source/gd32vw55x_fmc.c ****     /* reset the OBWEN bit */
 266:../Firmware/GD32VW55x_standard_peripheral/Source/gd32vw55x_fmc.c ****     FMC_CTL &= ~FMC_CTL_OBWEN;
 530              		.loc 1 266 13
 531 0006 B7270240 		li	a5,1073881088
 532 000a C107     		addi	a5,a5,16
 533 000c 9843     		lw	a4,0(a5)
 534 000e B7270240 		li	a5,1073881088
 535 0012 C107     		addi	a5,a5,16
 536 0014 1377F7DF 		andi	a4,a4,-513
 537 0018 98C3     		sw	a4,0(a5)
 267:../Firmware/GD32VW55x_standard_peripheral/Source/gd32vw55x_fmc.c **** }
 538              		.loc 1 267 1
 539 001a 0100     		nop
 540 001c 3244     		lw	s0,12(sp)
 541              		.cfi_restore 8
 542              		.cfi_def_cfa 2, 16
 543 001e 4101     		addi	sp,sp,16
 544              		.cfi_def_cfa_offset 0
 545 0020 8280     		jr	ra
 546              		.cfi_endproc
 547              	.LFE356:
 549              		.section	.text.ob_start,"ax",@progbits
 550              		.align	1
 551              		.globl	ob_start
 553              	ob_start:
 554              	.LFB357:
 268:../Firmware/GD32VW55x_standard_peripheral/Source/gd32vw55x_fmc.c **** 
 269:../Firmware/GD32VW55x_standard_peripheral/Source/gd32vw55x_fmc.c **** /*!
 270:../Firmware/GD32VW55x_standard_peripheral/Source/gd32vw55x_fmc.c ****     \brief      send option bytes modification start command
 271:../Firmware/GD32VW55x_standard_peripheral/Source/gd32vw55x_fmc.c ****     \param[in]  none
 272:../Firmware/GD32VW55x_standard_peripheral/Source/gd32vw55x_fmc.c ****     \param[out] none
 273:../Firmware/GD32VW55x_standard_peripheral/Source/gd32vw55x_fmc.c ****     \retval     none
 274:../Firmware/GD32VW55x_standard_peripheral/Source/gd32vw55x_fmc.c **** */
 275:../Firmware/GD32VW55x_standard_peripheral/Source/gd32vw55x_fmc.c **** void ob_start(void)
 276:../Firmware/GD32VW55x_standard_peripheral/Source/gd32vw55x_fmc.c **** {
 555              		.loc 1 276 1
 556              		.cfi_startproc
 557 0000 4111     		addi	sp,sp,-16
 558              		.cfi_def_cfa_offset 16
 559 0002 22C6     		sw	s0,12(sp)
 560              		.cfi_offset 8, -4
 561 0004 0008     		addi	s0,sp,16
 562              		.cfi_def_cfa 8, 0
 277:../Firmware/GD32VW55x_standard_peripheral/Source/gd32vw55x_fmc.c ****     /* set the OB_START bit in FMC_CTL register to start option bytes modification */
 278:../Firmware/GD32VW55x_standard_peripheral/Source/gd32vw55x_fmc.c ****     FMC_CTL |= (FMC_CTL_OBSTART | FMC_CTL_OBWEN);
 563              		.loc 1 278 13
 564 0006 B7270240 		li	a5,1073881088
 565 000a C107     		addi	a5,a5,16
 566 000c 9443     		lw	a3,0(a5)
 567 000e B7270240 		li	a5,1073881088
 568 0012 C107     		addi	a5,a5,16
 569 0014 1167     		li	a4,16384
 570 0016 13070720 		addi	a4,a4,512
 571 001a 558F     		or	a4,a3,a4
 572 001c 98C3     		sw	a4,0(a5)
 279:../Firmware/GD32VW55x_standard_peripheral/Source/gd32vw55x_fmc.c **** }
 573              		.loc 1 279 1
 574 001e 0100     		nop
 575 0020 3244     		lw	s0,12(sp)
 576              		.cfi_restore 8
 577              		.cfi_def_cfa 2, 16
 578 0022 4101     		addi	sp,sp,16
 579              		.cfi_def_cfa_offset 0
 580 0024 8280     		jr	ra
 581              		.cfi_endproc
 582              	.LFE357:
 584              		.section	.text.ob_reload,"ax",@progbits
 585              		.align	1
 586              		.globl	ob_reload
 588              	ob_reload:
 589              	.LFB358:
 280:../Firmware/GD32VW55x_standard_peripheral/Source/gd32vw55x_fmc.c **** 
 281:../Firmware/GD32VW55x_standard_peripheral/Source/gd32vw55x_fmc.c **** /*!
 282:../Firmware/GD32VW55x_standard_peripheral/Source/gd32vw55x_fmc.c ****     \brief      reload option bytes
 283:../Firmware/GD32VW55x_standard_peripheral/Source/gd32vw55x_fmc.c ****     \param[in]  none
 284:../Firmware/GD32VW55x_standard_peripheral/Source/gd32vw55x_fmc.c ****     \param[out] none
 285:../Firmware/GD32VW55x_standard_peripheral/Source/gd32vw55x_fmc.c ****     \retval     none
 286:../Firmware/GD32VW55x_standard_peripheral/Source/gd32vw55x_fmc.c **** */
 287:../Firmware/GD32VW55x_standard_peripheral/Source/gd32vw55x_fmc.c **** void ob_reload(void)
 288:../Firmware/GD32VW55x_standard_peripheral/Source/gd32vw55x_fmc.c **** {
 590              		.loc 1 288 1
 591              		.cfi_startproc
 592 0000 4111     		addi	sp,sp,-16
 593              		.cfi_def_cfa_offset 16
 594 0002 22C6     		sw	s0,12(sp)
 595              		.cfi_offset 8, -4
 596 0004 0008     		addi	s0,sp,16
 597              		.cfi_def_cfa 8, 0
 289:../Firmware/GD32VW55x_standard_peripheral/Source/gd32vw55x_fmc.c ****     /* set the FMC_CTL_OBRLD bit in FMC_CTL register to reload option bytes */
 290:../Firmware/GD32VW55x_standard_peripheral/Source/gd32vw55x_fmc.c ****     FMC_CTL |= FMC_CTL_OBRLD;
 598              		.loc 1 290 13
 599 0006 B7270240 		li	a5,1073881088
 600 000a C107     		addi	a5,a5,16
 601 000c 9443     		lw	a3,0(a5)
 602 000e B7270240 		li	a5,1073881088
 603 0012 C107     		addi	a5,a5,16
 604 0014 2167     		li	a4,32768
 605 0016 558F     		or	a4,a3,a4
 606 0018 98C3     		sw	a4,0(a5)
 291:../Firmware/GD32VW55x_standard_peripheral/Source/gd32vw55x_fmc.c **** }
 607              		.loc 1 291 1
 608 001a 0100     		nop
 609 001c 3244     		lw	s0,12(sp)
 610              		.cfi_restore 8
 611              		.cfi_def_cfa 2, 16
 612 001e 4101     		addi	sp,sp,16
 613              		.cfi_def_cfa_offset 0
 614 0020 8280     		jr	ra
 615              		.cfi_endproc
 616              	.LFE358:
 618              		.section	.text.ob_security_protection_config,"ax",@progbits
 619              		.align	1
 620              		.globl	ob_security_protection_config
 622              	ob_security_protection_config:
 623              	.LFB359:
 292:../Firmware/GD32VW55x_standard_peripheral/Source/gd32vw55x_fmc.c **** 
 293:../Firmware/GD32VW55x_standard_peripheral/Source/gd32vw55x_fmc.c **** /*!
 294:../Firmware/GD32VW55x_standard_peripheral/Source/gd32vw55x_fmc.c ****     \brief      configure security protection
 295:../Firmware/GD32VW55x_standard_peripheral/Source/gd32vw55x_fmc.c ****                 programmer must ensure FMC & option bytes are both unlocked before calling this fun
 296:../Firmware/GD32VW55x_standard_peripheral/Source/gd32vw55x_fmc.c ****     \param[in]  ob_spc: specify security protection
 297:../Firmware/GD32VW55x_standard_peripheral/Source/gd32vw55x_fmc.c ****                 only one parameter can be selected which is shown as below:
 298:../Firmware/GD32VW55x_standard_peripheral/Source/gd32vw55x_fmc.c ****       \arg        FMC_NSPC: no security protection
 299:../Firmware/GD32VW55x_standard_peripheral/Source/gd32vw55x_fmc.c ****       \arg        FMC_SPC_P1: security protection level 1
 300:../Firmware/GD32VW55x_standard_peripheral/Source/gd32vw55x_fmc.c ****     \param[out] none
 301:../Firmware/GD32VW55x_standard_peripheral/Source/gd32vw55x_fmc.c ****     \retval     state of FMC
 302:../Firmware/GD32VW55x_standard_peripheral/Source/gd32vw55x_fmc.c ****       \arg        FMC_READY: the operation has been completed
 303:../Firmware/GD32VW55x_standard_peripheral/Source/gd32vw55x_fmc.c ****       \arg        FMC_WPERR: erase/program protection error
 304:../Firmware/GD32VW55x_standard_peripheral/Source/gd32vw55x_fmc.c ****       \arg        FMC_TOERR: timeout error
 305:../Firmware/GD32VW55x_standard_peripheral/Source/gd32vw55x_fmc.c **** */
 306:../Firmware/GD32VW55x_standard_peripheral/Source/gd32vw55x_fmc.c **** fmc_state_enum ob_security_protection_config(uint8_t ob_spc)
 307:../Firmware/GD32VW55x_standard_peripheral/Source/gd32vw55x_fmc.c **** {
 624              		.loc 1 307 1
 625              		.cfi_startproc
 626 0000 7971     		addi	sp,sp,-48
 627              		.cfi_def_cfa_offset 48
 628 0002 06D6     		sw	ra,44(sp)
 629 0004 22D4     		sw	s0,40(sp)
 630              		.cfi_offset 1, -4
 631              		.cfi_offset 8, -8
 632 0006 0018     		addi	s0,sp,48
 633              		.cfi_def_cfa 8, 0
 634 0008 AA87     		mv	a5,a0
 635 000a A30FF4FC 		sb	a5,-33(s0)
 308:../Firmware/GD32VW55x_standard_peripheral/Source/gd32vw55x_fmc.c ****     fmc_state_enum fmc_state = fmc_ready_wait(FMC_TIMEOUT_COUNT);
 636              		.loc 1 308 32
 637 000e 37050001 		li	a0,16777216
 638 0012 97000000 		call	fmc_ready_wait
 638      E7800000 
 639 001a 2326A4FE 		sw	a0,-20(s0)
 309:../Firmware/GD32VW55x_standard_peripheral/Source/gd32vw55x_fmc.c **** 
 310:../Firmware/GD32VW55x_standard_peripheral/Source/gd32vw55x_fmc.c ****     if(FMC_READY == fmc_state){
 640              		.loc 1 310 7
 641 001e 8327C4FE 		lw	a5,-20(s0)
 642 0022 A1EF     		bne	a5,zero,.L28
 311:../Firmware/GD32VW55x_standard_peripheral/Source/gd32vw55x_fmc.c ****         FMC_OBR &= FMC_OBR_SPC_MASK;
 643              		.loc 1 311 17
 644 0024 B7270240 		li	a5,1073881088
 645 0028 93870704 		addi	a5,a5,64
 646 002c 9843     		lw	a4,0(a5)
 647 002e B7270240 		li	a5,1073881088
 648 0032 93870704 		addi	a5,a5,64
 649 0036 137707F0 		andi	a4,a4,-256
 650 003a 98C3     		sw	a4,0(a5)
 312:../Firmware/GD32VW55x_standard_peripheral/Source/gd32vw55x_fmc.c ****         FMC_OBR |= ob_spc;
 651              		.loc 1 312 17
 652 003c B7270240 		li	a5,1073881088
 653 0040 93870704 		addi	a5,a5,64
 654 0044 9443     		lw	a3,0(a5)
 655 0046 0347F4FD 		lbu	a4,-33(s0)
 656 004a B7270240 		li	a5,1073881088
 657 004e 93870704 		addi	a5,a5,64
 658 0052 558F     		or	a4,a3,a4
 659 0054 98C3     		sw	a4,0(a5)
 313:../Firmware/GD32VW55x_standard_peripheral/Source/gd32vw55x_fmc.c ****         /* start option bytes modification */
 314:../Firmware/GD32VW55x_standard_peripheral/Source/gd32vw55x_fmc.c ****         FMC_CTL |= FMC_CTL_OBSTART;
 660              		.loc 1 314 17
 661 0056 B7270240 		li	a5,1073881088
 662 005a C107     		addi	a5,a5,16
 663 005c 9443     		lw	a3,0(a5)
 664 005e B7270240 		li	a5,1073881088
 665 0062 C107     		addi	a5,a5,16
 666 0064 1167     		li	a4,16384
 667 0066 558F     		or	a4,a3,a4
 668 0068 98C3     		sw	a4,0(a5)
 315:../Firmware/GD32VW55x_standard_peripheral/Source/gd32vw55x_fmc.c ****         /* wait for the FMC ready */
 316:../Firmware/GD32VW55x_standard_peripheral/Source/gd32vw55x_fmc.c ****         fmc_state = fmc_ready_wait(FMC_TIMEOUT_COUNT);
 669              		.loc 1 316 21
 670 006a 37050001 		li	a0,16777216
 671 006e 97000000 		call	fmc_ready_wait
 671      E7800000 
 672 0076 2326A4FE 		sw	a0,-20(s0)
 673              	.L28:
 317:../Firmware/GD32VW55x_standard_peripheral/Source/gd32vw55x_fmc.c ****     }
 318:../Firmware/GD32VW55x_standard_peripheral/Source/gd32vw55x_fmc.c **** 
 319:../Firmware/GD32VW55x_standard_peripheral/Source/gd32vw55x_fmc.c ****     /* return the FMC state */
 320:../Firmware/GD32VW55x_standard_peripheral/Source/gd32vw55x_fmc.c ****     return fmc_state;
 674              		.loc 1 320 12
 675 007a 8327C4FE 		lw	a5,-20(s0)
 321:../Firmware/GD32VW55x_standard_peripheral/Source/gd32vw55x_fmc.c **** }
 676              		.loc 1 321 1
 677 007e 3E85     		mv	a0,a5
 678 0080 B250     		lw	ra,44(sp)
 679              		.cfi_restore 1
 680 0082 2254     		lw	s0,40(sp)
 681              		.cfi_restore 8
 682              		.cfi_def_cfa 2, 48
 683 0084 4561     		addi	sp,sp,48
 684              		.cfi_def_cfa_offset 0
 685 0086 8280     		jr	ra
 686              		.cfi_endproc
 687              	.LFE359:
 689              		.section	.text.ob_user_write,"ax",@progbits
 690              		.align	1
 691              		.globl	ob_user_write
 693              	ob_user_write:
 694              	.LFB360:
 322:../Firmware/GD32VW55x_standard_peripheral/Source/gd32vw55x_fmc.c **** 
 323:../Firmware/GD32VW55x_standard_peripheral/Source/gd32vw55x_fmc.c **** /*!
 324:../Firmware/GD32VW55x_standard_peripheral/Source/gd32vw55x_fmc.c ****     \brief      program option bytes USER
 325:../Firmware/GD32VW55x_standard_peripheral/Source/gd32vw55x_fmc.c ****                 programmer must ensure FMC & option bytes are both unlocked before calling this fun
 326:../Firmware/GD32VW55x_standard_peripheral/Source/gd32vw55x_fmc.c ****     \param[in]  ob_user: option bytes user value
 327:../Firmware/GD32VW55x_standard_peripheral/Source/gd32vw55x_fmc.c ****     \param[out] none
 328:../Firmware/GD32VW55x_standard_peripheral/Source/gd32vw55x_fmc.c ****     \retval     state of FMC
 329:../Firmware/GD32VW55x_standard_peripheral/Source/gd32vw55x_fmc.c ****       \arg        FMC_READY: the operation has been completed
 330:../Firmware/GD32VW55x_standard_peripheral/Source/gd32vw55x_fmc.c ****       \arg        FMC_WPERR: erase/program protection error
 331:../Firmware/GD32VW55x_standard_peripheral/Source/gd32vw55x_fmc.c ****       \arg        FMC_TOERR: timeout error
 332:../Firmware/GD32VW55x_standard_peripheral/Source/gd32vw55x_fmc.c **** */
 333:../Firmware/GD32VW55x_standard_peripheral/Source/gd32vw55x_fmc.c **** fmc_state_enum ob_user_write(uint32_t ob_user)
 334:../Firmware/GD32VW55x_standard_peripheral/Source/gd32vw55x_fmc.c **** {
 695              		.loc 1 334 1
 696              		.cfi_startproc
 697 0000 7971     		addi	sp,sp,-48
 698              		.cfi_def_cfa_offset 48
 699 0002 06D6     		sw	ra,44(sp)
 700 0004 22D4     		sw	s0,40(sp)
 701              		.cfi_offset 1, -4
 702              		.cfi_offset 8, -8
 703 0006 0018     		addi	s0,sp,48
 704              		.cfi_def_cfa 8, 0
 705 0008 232EA4FC 		sw	a0,-36(s0)
 335:../Firmware/GD32VW55x_standard_peripheral/Source/gd32vw55x_fmc.c ****     fmc_state_enum fmc_state = fmc_ready_wait(FMC_TIMEOUT_COUNT);
 706              		.loc 1 335 32
 707 000c 37050001 		li	a0,16777216
 708 0010 97000000 		call	fmc_ready_wait
 708      E7800000 
 709 0018 2326A4FE 		sw	a0,-20(s0)
 336:../Firmware/GD32VW55x_standard_peripheral/Source/gd32vw55x_fmc.c **** 
 337:../Firmware/GD32VW55x_standard_peripheral/Source/gd32vw55x_fmc.c ****     if(FMC_READY == fmc_state){
 710              		.loc 1 337 7
 711 001c 8327C4FE 		lw	a5,-20(s0)
 712 0020 B9EB     		bne	a5,zero,.L31
 338:../Firmware/GD32VW55x_standard_peripheral/Source/gd32vw55x_fmc.c ****         FMC_OBUSER &= FMC_OBUSER_MASK;
 713              		.loc 1 338 20
 714 0022 B7270240 		li	a5,1073881088
 715 0026 93874704 		addi	a5,a5,68
 716 002a 9C43     		lw	a5,0(a5)
 717 002c B7270240 		li	a5,1073881088
 718 0030 93874704 		addi	a5,a5,68
 719 0034 23A00700 		sw	zero,0(a5)
 339:../Firmware/GD32VW55x_standard_peripheral/Source/gd32vw55x_fmc.c ****         FMC_OBUSER |= ob_user;
 720              		.loc 1 339 20
 721 0038 B7270240 		li	a5,1073881088
 722 003c 93874704 		addi	a5,a5,68
 723 0040 9443     		lw	a3,0(a5)
 724 0042 B7270240 		li	a5,1073881088
 725 0046 93874704 		addi	a5,a5,68
 726 004a 0327C4FD 		lw	a4,-36(s0)
 727 004e 558F     		or	a4,a3,a4
 728 0050 98C3     		sw	a4,0(a5)
 340:../Firmware/GD32VW55x_standard_peripheral/Source/gd32vw55x_fmc.c ****         /* start option bytes modification */
 341:../Firmware/GD32VW55x_standard_peripheral/Source/gd32vw55x_fmc.c ****         FMC_CTL |= FMC_CTL_OBSTART;
 729              		.loc 1 341 17
 730 0052 B7270240 		li	a5,1073881088
 731 0056 C107     		addi	a5,a5,16
 732 0058 9443     		lw	a3,0(a5)
 733 005a B7270240 		li	a5,1073881088
 734 005e C107     		addi	a5,a5,16
 735 0060 1167     		li	a4,16384
 736 0062 558F     		or	a4,a3,a4
 737 0064 98C3     		sw	a4,0(a5)
 342:../Firmware/GD32VW55x_standard_peripheral/Source/gd32vw55x_fmc.c ****         /* wait for the FMC ready */
 343:../Firmware/GD32VW55x_standard_peripheral/Source/gd32vw55x_fmc.c ****         fmc_state = fmc_ready_wait(FMC_TIMEOUT_COUNT);
 738              		.loc 1 343 21
 739 0066 37050001 		li	a0,16777216
 740 006a 97000000 		call	fmc_ready_wait
 740      E7800000 
 741 0072 2326A4FE 		sw	a0,-20(s0)
 742              	.L31:
 344:../Firmware/GD32VW55x_standard_peripheral/Source/gd32vw55x_fmc.c ****     }
 345:../Firmware/GD32VW55x_standard_peripheral/Source/gd32vw55x_fmc.c **** 
 346:../Firmware/GD32VW55x_standard_peripheral/Source/gd32vw55x_fmc.c ****     /* return the FMC state */
 347:../Firmware/GD32VW55x_standard_peripheral/Source/gd32vw55x_fmc.c ****     return fmc_state;
 743              		.loc 1 347 12
 744 0076 8327C4FE 		lw	a5,-20(s0)
 348:../Firmware/GD32VW55x_standard_peripheral/Source/gd32vw55x_fmc.c **** }
 745              		.loc 1 348 1
 746 007a 3E85     		mv	a0,a5
 747 007c B250     		lw	ra,44(sp)
 748              		.cfi_restore 1
 749 007e 2254     		lw	s0,40(sp)
 750              		.cfi_restore 8
 751              		.cfi_def_cfa 2, 48
 752 0080 4561     		addi	sp,sp,48
 753              		.cfi_def_cfa_offset 0
 754 0082 8280     		jr	ra
 755              		.cfi_endproc
 756              	.LFE360:
 758              		.section	.text.ob_write_protection_config,"ax",@progbits
 759              		.align	1
 760              		.globl	ob_write_protection_config
 762              	ob_write_protection_config:
 763              	.LFB361:
 349:../Firmware/GD32VW55x_standard_peripheral/Source/gd32vw55x_fmc.c **** 
 350:../Firmware/GD32VW55x_standard_peripheral/Source/gd32vw55x_fmc.c **** /*!
 351:../Firmware/GD32VW55x_standard_peripheral/Source/gd32vw55x_fmc.c ****     \brief      configure write protection pages
 352:../Firmware/GD32VW55x_standard_peripheral/Source/gd32vw55x_fmc.c ****     \param[in]  wrp_spage: start page of write protection area, 0~0x3FF
 353:../Firmware/GD32VW55x_standard_peripheral/Source/gd32vw55x_fmc.c ****     \param[in]  wrp_epage: end page of write protection area, 0~0x3FF
 354:../Firmware/GD32VW55x_standard_peripheral/Source/gd32vw55x_fmc.c ****     \param[in]  wrp_register_index
 355:../Firmware/GD32VW55x_standard_peripheral/Source/gd32vw55x_fmc.c ****                 only one parameter can be selected which are shown as below:
 356:../Firmware/GD32VW55x_standard_peripheral/Source/gd32vw55x_fmc.c ****       \arg        OBWRP_INDEX0: option byte write protection area register 0
 357:../Firmware/GD32VW55x_standard_peripheral/Source/gd32vw55x_fmc.c ****       \arg        OBWRP_INDEX1: option byte write protection area register 1
 358:../Firmware/GD32VW55x_standard_peripheral/Source/gd32vw55x_fmc.c ****     \param[out] none
 359:../Firmware/GD32VW55x_standard_peripheral/Source/gd32vw55x_fmc.c ****     \retval     state of FMC
 360:../Firmware/GD32VW55x_standard_peripheral/Source/gd32vw55x_fmc.c ****       \arg        FMC_READY: the operation has been completed
 361:../Firmware/GD32VW55x_standard_peripheral/Source/gd32vw55x_fmc.c ****       \arg        FMC_WPERR: erase/program protection error
 362:../Firmware/GD32VW55x_standard_peripheral/Source/gd32vw55x_fmc.c ****       \arg        FMC_TOERR: timeout error
 363:../Firmware/GD32VW55x_standard_peripheral/Source/gd32vw55x_fmc.c **** */
 364:../Firmware/GD32VW55x_standard_peripheral/Source/gd32vw55x_fmc.c **** fmc_state_enum ob_write_protection_config(uint32_t wrp_spage, uint32_t wrp_epage, uint32_t wrp_regi
 365:../Firmware/GD32VW55x_standard_peripheral/Source/gd32vw55x_fmc.c **** {
 764              		.loc 1 365 1
 765              		.cfi_startproc
 766 0000 7971     		addi	sp,sp,-48
 767              		.cfi_def_cfa_offset 48
 768 0002 06D6     		sw	ra,44(sp)
 769 0004 22D4     		sw	s0,40(sp)
 770              		.cfi_offset 1, -4
 771              		.cfi_offset 8, -8
 772 0006 0018     		addi	s0,sp,48
 773              		.cfi_def_cfa 8, 0
 774 0008 232EA4FC 		sw	a0,-36(s0)
 775 000c 232CB4FC 		sw	a1,-40(s0)
 776 0010 232AC4FC 		sw	a2,-44(s0)
 366:../Firmware/GD32VW55x_standard_peripheral/Source/gd32vw55x_fmc.c ****     fmc_state_enum fmc_state = fmc_ready_wait(FMC_TIMEOUT_COUNT);
 777              		.loc 1 366 32
 778 0014 37050001 		li	a0,16777216
 779 0018 97000000 		call	fmc_ready_wait
 779      E7800000 
 780 0020 2326A4FE 		sw	a0,-20(s0)
 367:../Firmware/GD32VW55x_standard_peripheral/Source/gd32vw55x_fmc.c **** 
 368:../Firmware/GD32VW55x_standard_peripheral/Source/gd32vw55x_fmc.c ****     if(FMC_READY == fmc_state){
 781              		.loc 1 368 7
 782 0024 8327C4FE 		lw	a5,-20(s0)
 783 0028 F1E3     		bne	a5,zero,.L34
 369:../Firmware/GD32VW55x_standard_peripheral/Source/gd32vw55x_fmc.c ****         switch(wrp_register_index){
 784              		.loc 1 369 9
 785 002a 832744FD 		lw	a5,-44(s0)
 786 002e 99C7     		beq	a5,zero,.L35
 787 0030 032744FD 		lw	a4,-44(s0)
 788 0034 8547     		li	a5,1
 789 0036 6306F704 		beq	a4,a5,.L36
 370:../Firmware/GD32VW55x_standard_peripheral/Source/gd32vw55x_fmc.c ****         case OBWRP_INDEX0:
 371:../Firmware/GD32VW55x_standard_peripheral/Source/gd32vw55x_fmc.c ****             FMC_OBWRP0 = 0U;
 372:../Firmware/GD32VW55x_standard_peripheral/Source/gd32vw55x_fmc.c ****             FMC_OBWRP0 |= wrp_spage;
 373:../Firmware/GD32VW55x_standard_peripheral/Source/gd32vw55x_fmc.c ****             FMC_OBWRP0 |= wrp_epage << FMC_EPAGE_OFFSET;
 374:../Firmware/GD32VW55x_standard_peripheral/Source/gd32vw55x_fmc.c ****             break;
 375:../Firmware/GD32VW55x_standard_peripheral/Source/gd32vw55x_fmc.c ****         case OBWRP_INDEX1:
 376:../Firmware/GD32VW55x_standard_peripheral/Source/gd32vw55x_fmc.c ****             FMC_OBWRP1 = 0U;
 377:../Firmware/GD32VW55x_standard_peripheral/Source/gd32vw55x_fmc.c ****             FMC_OBWRP1 |= wrp_spage;
 378:../Firmware/GD32VW55x_standard_peripheral/Source/gd32vw55x_fmc.c ****             FMC_OBWRP1 |= wrp_epage << FMC_EPAGE_OFFSET;
 379:../Firmware/GD32VW55x_standard_peripheral/Source/gd32vw55x_fmc.c ****             break;
 380:../Firmware/GD32VW55x_standard_peripheral/Source/gd32vw55x_fmc.c ****         default:
 381:../Firmware/GD32VW55x_standard_peripheral/Source/gd32vw55x_fmc.c ****             break;
 790              		.loc 1 381 13
 791 003a 79A0     		j	.L38
 792              	.L35:
 371:../Firmware/GD32VW55x_standard_peripheral/Source/gd32vw55x_fmc.c ****             FMC_OBWRP0 |= wrp_spage;
 793              		.loc 1 371 13
 794 003c B7270240 		li	a5,1073881088
 795 0040 93878704 		addi	a5,a5,72
 371:../Firmware/GD32VW55x_standard_peripheral/Source/gd32vw55x_fmc.c ****             FMC_OBWRP0 |= wrp_spage;
 796              		.loc 1 371 24
 797 0044 23A00700 		sw	zero,0(a5)
 372:../Firmware/GD32VW55x_standard_peripheral/Source/gd32vw55x_fmc.c ****             FMC_OBWRP0 |= wrp_epage << FMC_EPAGE_OFFSET;
 798              		.loc 1 372 24
 799 0048 B7270240 		li	a5,1073881088
 800 004c 93878704 		addi	a5,a5,72
 801 0050 9443     		lw	a3,0(a5)
 802 0052 B7270240 		li	a5,1073881088
 803 0056 93878704 		addi	a5,a5,72
 804 005a 0327C4FD 		lw	a4,-36(s0)
 805 005e 558F     		or	a4,a3,a4
 806 0060 98C3     		sw	a4,0(a5)
 373:../Firmware/GD32VW55x_standard_peripheral/Source/gd32vw55x_fmc.c ****             break;
 807              		.loc 1 373 24
 808 0062 B7270240 		li	a5,1073881088
 809 0066 93878704 		addi	a5,a5,72
 810 006a 9443     		lw	a3,0(a5)
 373:../Firmware/GD32VW55x_standard_peripheral/Source/gd32vw55x_fmc.c ****             break;
 811              		.loc 1 373 37
 812 006c 832784FD 		lw	a5,-40(s0)
 813 0070 13970701 		slli	a4,a5,16
 373:../Firmware/GD32VW55x_standard_peripheral/Source/gd32vw55x_fmc.c ****             break;
 814              		.loc 1 373 24
 815 0074 B7270240 		li	a5,1073881088
 816 0078 93878704 		addi	a5,a5,72
 817 007c 558F     		or	a4,a3,a4
 818 007e 98C3     		sw	a4,0(a5)
 374:../Firmware/GD32VW55x_standard_peripheral/Source/gd32vw55x_fmc.c ****         case OBWRP_INDEX1:
 819              		.loc 1 374 13
 820 0080 A1A0     		j	.L38
 821              	.L36:
 376:../Firmware/GD32VW55x_standard_peripheral/Source/gd32vw55x_fmc.c ****             FMC_OBWRP1 |= wrp_spage;
 822              		.loc 1 376 13
 823 0082 B7270240 		li	a5,1073881088
 824 0086 9387C704 		addi	a5,a5,76
 376:../Firmware/GD32VW55x_standard_peripheral/Source/gd32vw55x_fmc.c ****             FMC_OBWRP1 |= wrp_spage;
 825              		.loc 1 376 24
 826 008a 23A00700 		sw	zero,0(a5)
 377:../Firmware/GD32VW55x_standard_peripheral/Source/gd32vw55x_fmc.c ****             FMC_OBWRP1 |= wrp_epage << FMC_EPAGE_OFFSET;
 827              		.loc 1 377 24
 828 008e B7270240 		li	a5,1073881088
 829 0092 9387C704 		addi	a5,a5,76
 830 0096 9443     		lw	a3,0(a5)
 831 0098 B7270240 		li	a5,1073881088
 832 009c 9387C704 		addi	a5,a5,76
 833 00a0 0327C4FD 		lw	a4,-36(s0)
 834 00a4 558F     		or	a4,a3,a4
 835 00a6 98C3     		sw	a4,0(a5)
 378:../Firmware/GD32VW55x_standard_peripheral/Source/gd32vw55x_fmc.c ****             break;
 836              		.loc 1 378 24
 837 00a8 B7270240 		li	a5,1073881088
 838 00ac 9387C704 		addi	a5,a5,76
 839 00b0 9443     		lw	a3,0(a5)
 378:../Firmware/GD32VW55x_standard_peripheral/Source/gd32vw55x_fmc.c ****             break;
 840              		.loc 1 378 37
 841 00b2 832784FD 		lw	a5,-40(s0)
 842 00b6 13970701 		slli	a4,a5,16
 378:../Firmware/GD32VW55x_standard_peripheral/Source/gd32vw55x_fmc.c ****             break;
 843              		.loc 1 378 24
 844 00ba B7270240 		li	a5,1073881088
 845 00be 9387C704 		addi	a5,a5,76
 846 00c2 558F     		or	a4,a3,a4
 847 00c4 98C3     		sw	a4,0(a5)
 379:../Firmware/GD32VW55x_standard_peripheral/Source/gd32vw55x_fmc.c ****         default:
 848              		.loc 1 379 13
 849 00c6 0100     		nop
 850              	.L38:
 382:../Firmware/GD32VW55x_standard_peripheral/Source/gd32vw55x_fmc.c ****         }
 383:../Firmware/GD32VW55x_standard_peripheral/Source/gd32vw55x_fmc.c ****         /* start option bytes modification */
 384:../Firmware/GD32VW55x_standard_peripheral/Source/gd32vw55x_fmc.c ****         FMC_CTL |= FMC_CTL_OBSTART;
 851              		.loc 1 384 17
 852 00c8 B7270240 		li	a5,1073881088
 853 00cc C107     		addi	a5,a5,16
 854 00ce 9443     		lw	a3,0(a5)
 855 00d0 B7270240 		li	a5,1073881088
 856 00d4 C107     		addi	a5,a5,16
 857 00d6 1167     		li	a4,16384
 858 00d8 558F     		or	a4,a3,a4
 859 00da 98C3     		sw	a4,0(a5)
 385:../Firmware/GD32VW55x_standard_peripheral/Source/gd32vw55x_fmc.c ****         /* wait for the FMC ready */
 386:../Firmware/GD32VW55x_standard_peripheral/Source/gd32vw55x_fmc.c ****         fmc_state = fmc_ready_wait(FMC_TIMEOUT_COUNT);
 860              		.loc 1 386 21
 861 00dc 37050001 		li	a0,16777216
 862 00e0 97000000 		call	fmc_ready_wait
 862      E7800000 
 863 00e8 2326A4FE 		sw	a0,-20(s0)
 864              	.L34:
 387:../Firmware/GD32VW55x_standard_peripheral/Source/gd32vw55x_fmc.c ****     }
 388:../Firmware/GD32VW55x_standard_peripheral/Source/gd32vw55x_fmc.c ****     /* return the FMC state */
 389:../Firmware/GD32VW55x_standard_peripheral/Source/gd32vw55x_fmc.c ****     return fmc_state;
 865              		.loc 1 389 12
 866 00ec 8327C4FE 		lw	a5,-20(s0)
 390:../Firmware/GD32VW55x_standard_peripheral/Source/gd32vw55x_fmc.c **** }
 867              		.loc 1 390 1
 868 00f0 3E85     		mv	a0,a5
 869 00f2 B250     		lw	ra,44(sp)
 870              		.cfi_restore 1
 871 00f4 2254     		lw	s0,40(sp)
 872              		.cfi_restore 8
 873              		.cfi_def_cfa 2, 48
 874 00f6 4561     		addi	sp,sp,48
 875              		.cfi_def_cfa_offset 0
 876 00f8 8280     		jr	ra
 877              		.cfi_endproc
 878              	.LFE361:
 880              		.section	.text.fmc_no_rtdec_config,"ax",@progbits
 881              		.align	1
 882              		.globl	fmc_no_rtdec_config
 884              	fmc_no_rtdec_config:
 885              	.LFB362:
 391:../Firmware/GD32VW55x_standard_peripheral/Source/gd32vw55x_fmc.c **** 
 392:../Firmware/GD32VW55x_standard_peripheral/Source/gd32vw55x_fmc.c **** /*!
 393:../Firmware/GD32VW55x_standard_peripheral/Source/gd32vw55x_fmc.c ****     \brief      configure NO-RTDEC pages
 394:../Firmware/GD32VW55x_standard_peripheral/Source/gd32vw55x_fmc.c ****     \param[in]  nodec_spage: start page of NO-RTDEC area, 0~0x03FF
 395:../Firmware/GD32VW55x_standard_peripheral/Source/gd32vw55x_fmc.c ****     \param[in]  nodec_epage: end page of NO-RTDEC area, 0~0x03FF
 396:../Firmware/GD32VW55x_standard_peripheral/Source/gd32vw55x_fmc.c ****     \param[in]  nodec_register_index
 397:../Firmware/GD32VW55x_standard_peripheral/Source/gd32vw55x_fmc.c ****                 only one parameter can be selected which are shown as below:
 398:../Firmware/GD32VW55x_standard_peripheral/Source/gd32vw55x_fmc.c ****       \arg        NODEC_INDEX0: NO-RTDEC region register 0
 399:../Firmware/GD32VW55x_standard_peripheral/Source/gd32vw55x_fmc.c ****       \arg        NODEC_INDEX1: NO-RTDEC region register 1
 400:../Firmware/GD32VW55x_standard_peripheral/Source/gd32vw55x_fmc.c ****       \arg        NODEC_INDEX2: NO-RTDEC region register 2
 401:../Firmware/GD32VW55x_standard_peripheral/Source/gd32vw55x_fmc.c ****       \arg        NODEC_INDEX3: NO-RTDEC region register 3
 402:../Firmware/GD32VW55x_standard_peripheral/Source/gd32vw55x_fmc.c ****     \param[out] none
 403:../Firmware/GD32VW55x_standard_peripheral/Source/gd32vw55x_fmc.c ****     \retval     none
 404:../Firmware/GD32VW55x_standard_peripheral/Source/gd32vw55x_fmc.c **** */
 405:../Firmware/GD32VW55x_standard_peripheral/Source/gd32vw55x_fmc.c **** void fmc_no_rtdec_config(uint32_t nodec_spage, uint32_t nodec_epage, uint32_t nodec_register_index)
 406:../Firmware/GD32VW55x_standard_peripheral/Source/gd32vw55x_fmc.c **** {
 886              		.loc 1 406 1
 887              		.cfi_startproc
 888 0000 0111     		addi	sp,sp,-32
 889              		.cfi_def_cfa_offset 32
 890 0002 22CE     		sw	s0,28(sp)
 891              		.cfi_offset 8, -4
 892 0004 0010     		addi	s0,sp,32
 893              		.cfi_def_cfa 8, 0
 894 0006 2326A4FE 		sw	a0,-20(s0)
 895 000a 2324B4FE 		sw	a1,-24(s0)
 896 000e 2322C4FE 		sw	a2,-28(s0)
 407:../Firmware/GD32VW55x_standard_peripheral/Source/gd32vw55x_fmc.c ****     switch(nodec_register_index){
 897              		.loc 1 407 5
 898 0012 032744FE 		lw	a4,-28(s0)
 899 0016 8D47     		li	a5,3
 900 0018 6303F710 		beq	a4,a5,.L41
 901 001c 032744FE 		lw	a4,-28(s0)
 902 0020 8D47     		li	a5,3
 903 0022 63E1E714 		bgtu	a4,a5,.L47
 904 0026 032744FE 		lw	a4,-28(s0)
 905 002a 8947     		li	a5,2
 906 002c 6306F70A 		beq	a4,a5,.L43
 907 0030 032744FE 		lw	a4,-28(s0)
 908 0034 8947     		li	a5,2
 909 0036 63E7E712 		bgtu	a4,a5,.L47
 910 003a 832744FE 		lw	a5,-28(s0)
 911 003e 99C7     		beq	a5,zero,.L44
 912 0040 032744FE 		lw	a4,-28(s0)
 913 0044 8547     		li	a5,1
 914 0046 6306F704 		beq	a4,a5,.L45
 408:../Firmware/GD32VW55x_standard_peripheral/Source/gd32vw55x_fmc.c ****     case NODEC_INDEX0:
 409:../Firmware/GD32VW55x_standard_peripheral/Source/gd32vw55x_fmc.c ****         FMC_NODEC0 = 0U;
 410:../Firmware/GD32VW55x_standard_peripheral/Source/gd32vw55x_fmc.c ****         FMC_NODEC0 |= nodec_spage;
 411:../Firmware/GD32VW55x_standard_peripheral/Source/gd32vw55x_fmc.c ****         FMC_NODEC0 |= nodec_epage << FMC_EPAGE_OFFSET;
 412:../Firmware/GD32VW55x_standard_peripheral/Source/gd32vw55x_fmc.c ****         break;
 413:../Firmware/GD32VW55x_standard_peripheral/Source/gd32vw55x_fmc.c ****     case NODEC_INDEX1:
 414:../Firmware/GD32VW55x_standard_peripheral/Source/gd32vw55x_fmc.c ****         FMC_NODEC1 = 0U;
 415:../Firmware/GD32VW55x_standard_peripheral/Source/gd32vw55x_fmc.c ****         FMC_NODEC1 |= nodec_spage;
 416:../Firmware/GD32VW55x_standard_peripheral/Source/gd32vw55x_fmc.c ****         FMC_NODEC1 |= nodec_epage << FMC_EPAGE_OFFSET;
 417:../Firmware/GD32VW55x_standard_peripheral/Source/gd32vw55x_fmc.c ****         break;
 418:../Firmware/GD32VW55x_standard_peripheral/Source/gd32vw55x_fmc.c ****     case NODEC_INDEX2:
 419:../Firmware/GD32VW55x_standard_peripheral/Source/gd32vw55x_fmc.c ****         FMC_NODEC2 = 0U;
 420:../Firmware/GD32VW55x_standard_peripheral/Source/gd32vw55x_fmc.c ****         FMC_NODEC2 |= nodec_spage;
 421:../Firmware/GD32VW55x_standard_peripheral/Source/gd32vw55x_fmc.c ****         FMC_NODEC2 |= nodec_epage << FMC_EPAGE_OFFSET;
 422:../Firmware/GD32VW55x_standard_peripheral/Source/gd32vw55x_fmc.c ****         break;
 423:../Firmware/GD32VW55x_standard_peripheral/Source/gd32vw55x_fmc.c ****     case NODEC_INDEX3:
 424:../Firmware/GD32VW55x_standard_peripheral/Source/gd32vw55x_fmc.c ****         FMC_NODEC3 = 0U;
 425:../Firmware/GD32VW55x_standard_peripheral/Source/gd32vw55x_fmc.c ****         FMC_NODEC3 |= nodec_spage;
 426:../Firmware/GD32VW55x_standard_peripheral/Source/gd32vw55x_fmc.c ****         FMC_NODEC3 |= nodec_epage << FMC_EPAGE_OFFSET;
 427:../Firmware/GD32VW55x_standard_peripheral/Source/gd32vw55x_fmc.c ****         break;
 428:../Firmware/GD32VW55x_standard_peripheral/Source/gd32vw55x_fmc.c ****     default:
 429:../Firmware/GD32VW55x_standard_peripheral/Source/gd32vw55x_fmc.c ****         break;
 915              		.loc 1 429 9
 916 004a 29AA     		j	.L47
 917              	.L44:
 409:../Firmware/GD32VW55x_standard_peripheral/Source/gd32vw55x_fmc.c ****         FMC_NODEC0 |= nodec_spage;
 918              		.loc 1 409 9
 919 004c B7270240 		li	a5,1073881088
 920 0050 93870707 		addi	a5,a5,112
 409:../Firmware/GD32VW55x_standard_peripheral/Source/gd32vw55x_fmc.c ****         FMC_NODEC0 |= nodec_spage;
 921              		.loc 1 409 20
 922 0054 23A00700 		sw	zero,0(a5)
 410:../Firmware/GD32VW55x_standard_peripheral/Source/gd32vw55x_fmc.c ****         FMC_NODEC0 |= nodec_epage << FMC_EPAGE_OFFSET;
 923              		.loc 1 410 20
 924 0058 B7270240 		li	a5,1073881088
 925 005c 93870707 		addi	a5,a5,112
 926 0060 9443     		lw	a3,0(a5)
 927 0062 B7270240 		li	a5,1073881088
 928 0066 93870707 		addi	a5,a5,112
 929 006a 0327C4FE 		lw	a4,-20(s0)
 930 006e 558F     		or	a4,a3,a4
 931 0070 98C3     		sw	a4,0(a5)
 411:../Firmware/GD32VW55x_standard_peripheral/Source/gd32vw55x_fmc.c ****         break;
 932              		.loc 1 411 20
 933 0072 B7270240 		li	a5,1073881088
 934 0076 93870707 		addi	a5,a5,112
 935 007a 9443     		lw	a3,0(a5)
 411:../Firmware/GD32VW55x_standard_peripheral/Source/gd32vw55x_fmc.c ****         break;
 936              		.loc 1 411 35
 937 007c 832784FE 		lw	a5,-24(s0)
 938 0080 13970701 		slli	a4,a5,16
 411:../Firmware/GD32VW55x_standard_peripheral/Source/gd32vw55x_fmc.c ****         break;
 939              		.loc 1 411 20
 940 0084 B7270240 		li	a5,1073881088
 941 0088 93870707 		addi	a5,a5,112
 942 008c 558F     		or	a4,a3,a4
 943 008e 98C3     		sw	a4,0(a5)
 412:../Firmware/GD32VW55x_standard_peripheral/Source/gd32vw55x_fmc.c ****     case NODEC_INDEX1:
 944              		.loc 1 412 9
 945 0090 D9A8     		j	.L46
 946              	.L45:
 414:../Firmware/GD32VW55x_standard_peripheral/Source/gd32vw55x_fmc.c ****         FMC_NODEC1 |= nodec_spage;
 947              		.loc 1 414 9
 948 0092 B7270240 		li	a5,1073881088
 949 0096 93874707 		addi	a5,a5,116
 414:../Firmware/GD32VW55x_standard_peripheral/Source/gd32vw55x_fmc.c ****         FMC_NODEC1 |= nodec_spage;
 950              		.loc 1 414 20
 951 009a 23A00700 		sw	zero,0(a5)
 415:../Firmware/GD32VW55x_standard_peripheral/Source/gd32vw55x_fmc.c ****         FMC_NODEC1 |= nodec_epage << FMC_EPAGE_OFFSET;
 952              		.loc 1 415 20
 953 009e B7270240 		li	a5,1073881088
 954 00a2 93874707 		addi	a5,a5,116
 955 00a6 9443     		lw	a3,0(a5)
 956 00a8 B7270240 		li	a5,1073881088
 957 00ac 93874707 		addi	a5,a5,116
 958 00b0 0327C4FE 		lw	a4,-20(s0)
 959 00b4 558F     		or	a4,a3,a4
 960 00b6 98C3     		sw	a4,0(a5)
 416:../Firmware/GD32VW55x_standard_peripheral/Source/gd32vw55x_fmc.c ****         break;
 961              		.loc 1 416 20
 962 00b8 B7270240 		li	a5,1073881088
 963 00bc 93874707 		addi	a5,a5,116
 964 00c0 9443     		lw	a3,0(a5)
 416:../Firmware/GD32VW55x_standard_peripheral/Source/gd32vw55x_fmc.c ****         break;
 965              		.loc 1 416 35
 966 00c2 832784FE 		lw	a5,-24(s0)
 967 00c6 13970701 		slli	a4,a5,16
 416:../Firmware/GD32VW55x_standard_peripheral/Source/gd32vw55x_fmc.c ****         break;
 968              		.loc 1 416 20
 969 00ca B7270240 		li	a5,1073881088
 970 00ce 93874707 		addi	a5,a5,116
 971 00d2 558F     		or	a4,a3,a4
 972 00d4 98C3     		sw	a4,0(a5)
 417:../Firmware/GD32VW55x_standard_peripheral/Source/gd32vw55x_fmc.c ****     case NODEC_INDEX2:
 973              		.loc 1 417 9
 974 00d6 41A8     		j	.L46
 975              	.L43:
 419:../Firmware/GD32VW55x_standard_peripheral/Source/gd32vw55x_fmc.c ****         FMC_NODEC2 |= nodec_spage;
 976              		.loc 1 419 9
 977 00d8 B7270240 		li	a5,1073881088
 978 00dc 93878707 		addi	a5,a5,120
 419:../Firmware/GD32VW55x_standard_peripheral/Source/gd32vw55x_fmc.c ****         FMC_NODEC2 |= nodec_spage;
 979              		.loc 1 419 20
 980 00e0 23A00700 		sw	zero,0(a5)
 420:../Firmware/GD32VW55x_standard_peripheral/Source/gd32vw55x_fmc.c ****         FMC_NODEC2 |= nodec_epage << FMC_EPAGE_OFFSET;
 981              		.loc 1 420 20
 982 00e4 B7270240 		li	a5,1073881088
 983 00e8 93878707 		addi	a5,a5,120
 984 00ec 9443     		lw	a3,0(a5)
 985 00ee B7270240 		li	a5,1073881088
 986 00f2 93878707 		addi	a5,a5,120
 987 00f6 0327C4FE 		lw	a4,-20(s0)
 988 00fa 558F     		or	a4,a3,a4
 989 00fc 98C3     		sw	a4,0(a5)
 421:../Firmware/GD32VW55x_standard_peripheral/Source/gd32vw55x_fmc.c ****         break;
 990              		.loc 1 421 20
 991 00fe B7270240 		li	a5,1073881088
 992 0102 93878707 		addi	a5,a5,120
 993 0106 9443     		lw	a3,0(a5)
 421:../Firmware/GD32VW55x_standard_peripheral/Source/gd32vw55x_fmc.c ****         break;
 994              		.loc 1 421 35
 995 0108 832784FE 		lw	a5,-24(s0)
 996 010c 13970701 		slli	a4,a5,16
 421:../Firmware/GD32VW55x_standard_peripheral/Source/gd32vw55x_fmc.c ****         break;
 997              		.loc 1 421 20
 998 0110 B7270240 		li	a5,1073881088
 999 0114 93878707 		addi	a5,a5,120
 1000 0118 558F     		or	a4,a3,a4
 1001 011a 98C3     		sw	a4,0(a5)
 422:../Firmware/GD32VW55x_standard_peripheral/Source/gd32vw55x_fmc.c ****     case NODEC_INDEX3:
 1002              		.loc 1 422 9
 1003 011c A9A0     		j	.L46
 1004              	.L41:
 424:../Firmware/GD32VW55x_standard_peripheral/Source/gd32vw55x_fmc.c ****         FMC_NODEC3 |= nodec_spage;
 1005              		.loc 1 424 9
 1006 011e B7270240 		li	a5,1073881088
 1007 0122 9387C707 		addi	a5,a5,124
 424:../Firmware/GD32VW55x_standard_peripheral/Source/gd32vw55x_fmc.c ****         FMC_NODEC3 |= nodec_spage;
 1008              		.loc 1 424 20
 1009 0126 23A00700 		sw	zero,0(a5)
 425:../Firmware/GD32VW55x_standard_peripheral/Source/gd32vw55x_fmc.c ****         FMC_NODEC3 |= nodec_epage << FMC_EPAGE_OFFSET;
 1010              		.loc 1 425 20
 1011 012a B7270240 		li	a5,1073881088
 1012 012e 9387C707 		addi	a5,a5,124
 1013 0132 9443     		lw	a3,0(a5)
 1014 0134 B7270240 		li	a5,1073881088
 1015 0138 9387C707 		addi	a5,a5,124
 1016 013c 0327C4FE 		lw	a4,-20(s0)
 1017 0140 558F     		or	a4,a3,a4
 1018 0142 98C3     		sw	a4,0(a5)
 426:../Firmware/GD32VW55x_standard_peripheral/Source/gd32vw55x_fmc.c ****         break;
 1019              		.loc 1 426 20
 1020 0144 B7270240 		li	a5,1073881088
 1021 0148 9387C707 		addi	a5,a5,124
 1022 014c 9443     		lw	a3,0(a5)
 426:../Firmware/GD32VW55x_standard_peripheral/Source/gd32vw55x_fmc.c ****         break;
 1023              		.loc 1 426 35
 1024 014e 832784FE 		lw	a5,-24(s0)
 1025 0152 13970701 		slli	a4,a5,16
 426:../Firmware/GD32VW55x_standard_peripheral/Source/gd32vw55x_fmc.c ****         break;
 1026              		.loc 1 426 20
 1027 0156 B7270240 		li	a5,1073881088
 1028 015a 9387C707 		addi	a5,a5,124
 1029 015e 558F     		or	a4,a3,a4
 1030 0160 98C3     		sw	a4,0(a5)
 427:../Firmware/GD32VW55x_standard_peripheral/Source/gd32vw55x_fmc.c ****     default:
 1031              		.loc 1 427 9
 1032 0162 11A0     		j	.L46
 1033              	.L47:
 1034              		.loc 1 429 9
 1035 0164 0100     		nop
 1036              	.L46:
 430:../Firmware/GD32VW55x_standard_peripheral/Source/gd32vw55x_fmc.c ****     }
 431:../Firmware/GD32VW55x_standard_peripheral/Source/gd32vw55x_fmc.c **** }
 1037              		.loc 1 431 1
 1038 0166 0100     		nop
 1039 0168 7244     		lw	s0,28(sp)
 1040              		.cfi_restore 8
 1041              		.cfi_def_cfa 2, 32
 1042 016a 0561     		addi	sp,sp,32
 1043              		.cfi_def_cfa_offset 0
 1044 016c 8280     		jr	ra
 1045              		.cfi_endproc
 1046              	.LFE362:
 1048              		.section	.text.fmc_offset_region_config,"ax",@progbits
 1049              		.align	1
 1050              		.globl	fmc_offset_region_config
 1052              	fmc_offset_region_config:
 1053              	.LFB363:
 432:../Firmware/GD32VW55x_standard_peripheral/Source/gd32vw55x_fmc.c **** 
 433:../Firmware/GD32VW55x_standard_peripheral/Source/gd32vw55x_fmc.c **** /*!
 434:../Firmware/GD32VW55x_standard_peripheral/Source/gd32vw55x_fmc.c ****     \brief      configure offset region
 435:../Firmware/GD32VW55x_standard_peripheral/Source/gd32vw55x_fmc.c ****     \param[in]  of_spage: start page of offset region, 0~0x1FFF
 436:../Firmware/GD32VW55x_standard_peripheral/Source/gd32vw55x_fmc.c ****     \param[in]  of_epage: end page of offset region, 0~0x1FFF
 437:../Firmware/GD32VW55x_standard_peripheral/Source/gd32vw55x_fmc.c ****     \param[out] none
 438:../Firmware/GD32VW55x_standard_peripheral/Source/gd32vw55x_fmc.c ****     \retval     none
 439:../Firmware/GD32VW55x_standard_peripheral/Source/gd32vw55x_fmc.c **** */
 440:../Firmware/GD32VW55x_standard_peripheral/Source/gd32vw55x_fmc.c **** void fmc_offset_region_config(uint32_t of_spage, uint32_t of_epage)
 441:../Firmware/GD32VW55x_standard_peripheral/Source/gd32vw55x_fmc.c **** {
 1054              		.loc 1 441 1
 1055              		.cfi_startproc
 1056 0000 0111     		addi	sp,sp,-32
 1057              		.cfi_def_cfa_offset 32
 1058 0002 22CE     		sw	s0,28(sp)
 1059              		.cfi_offset 8, -4
 1060 0004 0010     		addi	s0,sp,32
 1061              		.cfi_def_cfa 8, 0
 1062 0006 2326A4FE 		sw	a0,-20(s0)
 1063 000a 2324B4FE 		sw	a1,-24(s0)
 442:../Firmware/GD32VW55x_standard_peripheral/Source/gd32vw55x_fmc.c ****     FMC_OFRG = 0U;
 1064              		.loc 1 442 5
 1065 000e B7270240 		li	a5,1073881088
 1066 0012 93870708 		addi	a5,a5,128
 1067              		.loc 1 442 14
 1068 0016 23A00700 		sw	zero,0(a5)
 443:../Firmware/GD32VW55x_standard_peripheral/Source/gd32vw55x_fmc.c ****     FMC_OFRG |= (uint32_t) (of_spage);
 1069              		.loc 1 443 14
 1070 001a B7270240 		li	a5,1073881088
 1071 001e 93870708 		addi	a5,a5,128
 1072 0022 9443     		lw	a3,0(a5)
 1073 0024 B7270240 		li	a5,1073881088
 1074 0028 93870708 		addi	a5,a5,128
 1075 002c 0327C4FE 		lw	a4,-20(s0)
 1076 0030 558F     		or	a4,a3,a4
 1077 0032 98C3     		sw	a4,0(a5)
 444:../Firmware/GD32VW55x_standard_peripheral/Source/gd32vw55x_fmc.c ****     FMC_OFRG |= (uint32_t) (of_epage << FMC_EPAGE_OFFSET);
 1078              		.loc 1 444 14
 1079 0034 B7270240 		li	a5,1073881088
 1080 0038 93870708 		addi	a5,a5,128
 1081 003c 9443     		lw	a3,0(a5)
 1082              		.loc 1 444 38
 1083 003e 832784FE 		lw	a5,-24(s0)
 1084 0042 13970701 		slli	a4,a5,16
 1085              		.loc 1 444 14
 1086 0046 B7270240 		li	a5,1073881088
 1087 004a 93870708 		addi	a5,a5,128
 1088 004e 558F     		or	a4,a3,a4
 1089 0050 98C3     		sw	a4,0(a5)
 445:../Firmware/GD32VW55x_standard_peripheral/Source/gd32vw55x_fmc.c **** }
 1090              		.loc 1 445 1
 1091 0052 0100     		nop
 1092 0054 7244     		lw	s0,28(sp)
 1093              		.cfi_restore 8
 1094              		.cfi_def_cfa 2, 32
 1095 0056 0561     		addi	sp,sp,32
 1096              		.cfi_def_cfa_offset 0
 1097 0058 8280     		jr	ra
 1098              		.cfi_endproc
 1099              	.LFE363:
 1101              		.section	.text.fmc_offset_value_config,"ax",@progbits
 1102              		.align	1
 1103              		.globl	fmc_offset_value_config
 1105              	fmc_offset_value_config:
 1106              	.LFB364:
 446:../Firmware/GD32VW55x_standard_peripheral/Source/gd32vw55x_fmc.c **** 
 447:../Firmware/GD32VW55x_standard_peripheral/Source/gd32vw55x_fmc.c **** /*!
 448:../Firmware/GD32VW55x_standard_peripheral/Source/gd32vw55x_fmc.c ****     \brief      configure offset value
 449:../Firmware/GD32VW55x_standard_peripheral/Source/gd32vw55x_fmc.c ****     \param[in]  of_value: offset value, 0~0x1FFF
 450:../Firmware/GD32VW55x_standard_peripheral/Source/gd32vw55x_fmc.c ****     \param[out] none
 451:../Firmware/GD32VW55x_standard_peripheral/Source/gd32vw55x_fmc.c ****     \retval     none
 452:../Firmware/GD32VW55x_standard_peripheral/Source/gd32vw55x_fmc.c **** */
 453:../Firmware/GD32VW55x_standard_peripheral/Source/gd32vw55x_fmc.c **** void fmc_offset_value_config(uint32_t of_value)
 454:../Firmware/GD32VW55x_standard_peripheral/Source/gd32vw55x_fmc.c **** {
 1107              		.loc 1 454 1
 1108              		.cfi_startproc
 1109 0000 0111     		addi	sp,sp,-32
 1110              		.cfi_def_cfa_offset 32
 1111 0002 22CE     		sw	s0,28(sp)
 1112              		.cfi_offset 8, -4
 1113 0004 0010     		addi	s0,sp,32
 1114              		.cfi_def_cfa 8, 0
 1115 0006 2326A4FE 		sw	a0,-20(s0)
 455:../Firmware/GD32VW55x_standard_peripheral/Source/gd32vw55x_fmc.c ****     FMC_OFVR = 0U;
 1116              		.loc 1 455 5
 1117 000a B7270240 		li	a5,1073881088
 1118 000e 93874708 		addi	a5,a5,132
 1119              		.loc 1 455 14
 1120 0012 23A00700 		sw	zero,0(a5)
 456:../Firmware/GD32VW55x_standard_peripheral/Source/gd32vw55x_fmc.c ****     FMC_OFVR |= (uint32_t) (of_value);
 1121              		.loc 1 456 14
 1122 0016 B7270240 		li	a5,1073881088
 1123 001a 93874708 		addi	a5,a5,132
 1124 001e 9443     		lw	a3,0(a5)
 1125 0020 B7270240 		li	a5,1073881088
 1126 0024 93874708 		addi	a5,a5,132
 1127 0028 0327C4FE 		lw	a4,-20(s0)
 1128 002c 558F     		or	a4,a3,a4
 1129 002e 98C3     		sw	a4,0(a5)
 457:../Firmware/GD32VW55x_standard_peripheral/Source/gd32vw55x_fmc.c **** }
 1130              		.loc 1 457 1
 1131 0030 0100     		nop
 1132 0032 7244     		lw	s0,28(sp)
 1133              		.cfi_restore 8
 1134              		.cfi_def_cfa 2, 32
 1135 0034 0561     		addi	sp,sp,32
 1136              		.cfi_def_cfa_offset 0
 1137 0036 8280     		jr	ra
 1138              		.cfi_endproc
 1139              	.LFE364:
 1141              		.section	.text.fmc_wifi_trim_cal_get,"ax",@progbits
 1142              		.align	1
 1143              		.globl	fmc_wifi_trim_cal_get
 1145              	fmc_wifi_trim_cal_get:
 1146              	.LFB365:
 458:../Firmware/GD32VW55x_standard_peripheral/Source/gd32vw55x_fmc.c **** 
 459:../Firmware/GD32VW55x_standard_peripheral/Source/gd32vw55x_fmc.c **** /*!
 460:../Firmware/GD32VW55x_standard_peripheral/Source/gd32vw55x_fmc.c ****     \brief      get calibration value
 461:../Firmware/GD32VW55x_standard_peripheral/Source/gd32vw55x_fmc.c ****     \param[in]  none
 462:../Firmware/GD32VW55x_standard_peripheral/Source/gd32vw55x_fmc.c ****     \param[out] rft0_bletxcal: BLE transmit power calibration value
 463:../Firmware/GD32VW55x_standard_peripheral/Source/gd32vw55x_fmc.c ****     \param[out] rft0_wftxcal: WIFI transmit power calibration value
 464:../Firmware/GD32VW55x_standard_peripheral/Source/gd32vw55x_fmc.c ****     \param[out] rft0_thecal: thermal meter calibration value
 465:../Firmware/GD32VW55x_standard_peripheral/Source/gd32vw55x_fmc.c ****     \param[out] rft1_wfrxcal: WIFI receive gain calibration value
 466:../Firmware/GD32VW55x_standard_peripheral/Source/gd32vw55x_fmc.c ****     \retval     none
 467:../Firmware/GD32VW55x_standard_peripheral/Source/gd32vw55x_fmc.c **** */
 468:../Firmware/GD32VW55x_standard_peripheral/Source/gd32vw55x_fmc.c **** void fmc_wifi_trim_cal_get(uint32_t *rft0_bletxcal, uint32_t *rft0_wftxcal, uint32_t *rft0_thecal, 
 469:../Firmware/GD32VW55x_standard_peripheral/Source/gd32vw55x_fmc.c **** {
 1147              		.loc 1 469 1
 1148              		.cfi_startproc
 1149 0000 7971     		addi	sp,sp,-48
 1150              		.cfi_def_cfa_offset 48
 1151 0002 22D6     		sw	s0,44(sp)
 1152              		.cfi_offset 8, -4
 1153 0004 0018     		addi	s0,sp,48
 1154              		.cfi_def_cfa 8, 0
 1155 0006 232EA4FC 		sw	a0,-36(s0)
 1156 000a 232CB4FC 		sw	a1,-40(s0)
 1157 000e 232AC4FC 		sw	a2,-44(s0)
 1158 0012 2328D4FC 		sw	a3,-48(s0)
 470:../Firmware/GD32VW55x_standard_peripheral/Source/gd32vw55x_fmc.c ****     uint32_t rft0_reg;
 471:../Firmware/GD32VW55x_standard_peripheral/Source/gd32vw55x_fmc.c ****     uint32_t rft1_reg;
 472:../Firmware/GD32VW55x_standard_peripheral/Source/gd32vw55x_fmc.c **** 
 473:../Firmware/GD32VW55x_standard_peripheral/Source/gd32vw55x_fmc.c ****     rft0_reg = FMC_RFT0;
 1159              		.loc 1 473 16
 1160 0016 B7270240 		li	a5,1073881088
 1161 001a 93878710 		addi	a5,a5,264
 1162              		.loc 1 473 14
 1163 001e 9C43     		lw	a5,0(a5)
 1164 0020 2326F4FE 		sw	a5,-20(s0)
 474:../Firmware/GD32VW55x_standard_peripheral/Source/gd32vw55x_fmc.c ****     rft1_reg = FMC_RFT1;
 1165              		.loc 1 474 16
 1166 0024 B7270240 		li	a5,1073881088
 1167 0028 9387C710 		addi	a5,a5,268
 1168              		.loc 1 474 14
 1169 002c 9C43     		lw	a5,0(a5)
 1170 002e 2324F4FE 		sw	a5,-24(s0)
 475:../Firmware/GD32VW55x_standard_peripheral/Source/gd32vw55x_fmc.c ****     *rft0_bletxcal = (uint32_t)(rft0_reg & FMC_RFT0_BLETXCAL);
 1171              		.loc 1 475 22
 1172 0032 0327C4FE 		lw	a4,-20(s0)
 1173 0036 B70700FF 		li	a5,-16777216
 1174 003a 7D8F     		and	a4,a4,a5
 1175              		.loc 1 475 20
 1176 003c 8327C4FD 		lw	a5,-36(s0)
 1177 0040 98C3     		sw	a4,0(a5)
 476:../Firmware/GD32VW55x_standard_peripheral/Source/gd32vw55x_fmc.c ****     *rft0_wftxcal = (uint32_t)(rft0_reg & FMC_RFT0_WIFITXCAL);
 1178              		.loc 1 476 21
 1179 0042 0327C4FE 		lw	a4,-20(s0)
 1180 0046 B707FF00 		li	a5,16711680
 1181 004a 7D8F     		and	a4,a4,a5
 1182              		.loc 1 476 19
 1183 004c 832784FD 		lw	a5,-40(s0)
 1184 0050 98C3     		sw	a4,0(a5)
 477:../Firmware/GD32VW55x_standard_peripheral/Source/gd32vw55x_fmc.c ****     *rft0_thecal = (uint32_t)(rft0_reg & FMC_RFT0_THECAL);
 1185              		.loc 1 477 20
 1186 0052 0327C4FE 		lw	a4,-20(s0)
 1187 0056 C167     		li	a5,65536
 1188 0058 938707F0 		addi	a5,a5,-256
 1189 005c 7D8F     		and	a4,a4,a5
 1190              		.loc 1 477 18
 1191 005e 832744FD 		lw	a5,-44(s0)
 1192 0062 98C3     		sw	a4,0(a5)
 478:../Firmware/GD32VW55x_standard_peripheral/Source/gd32vw55x_fmc.c ****     *rft1_wfrxcal = (uint32_t)(rft1_reg & FMC_RFT1_WIFIRXGCAL);
 1193              		.loc 1 478 21
 1194 0064 832784FE 		lw	a5,-24(s0)
 1195 0068 13F7F700 		andi	a4,a5,15
 1196              		.loc 1 478 19
 1197 006c 832704FD 		lw	a5,-48(s0)
 1198 0070 98C3     		sw	a4,0(a5)
 479:../Firmware/GD32VW55x_standard_peripheral/Source/gd32vw55x_fmc.c **** }
 1199              		.loc 1 479 1
 1200 0072 0100     		nop
 1201 0074 3254     		lw	s0,44(sp)
 1202              		.cfi_restore 8
 1203              		.cfi_def_cfa 2, 48
 1204 0076 4561     		addi	sp,sp,48
 1205              		.cfi_def_cfa_offset 0
 1206 0078 8280     		jr	ra
 1207              		.cfi_endproc
 1208              	.LFE365:
 1210              		.section	.text.fmc_wifi_trim_pa_get,"ax",@progbits
 1211              		.align	1
 1212              		.globl	fmc_wifi_trim_pa_get
 1214              	fmc_wifi_trim_pa_get:
 1215              	.LFB366:
 480:../Firmware/GD32VW55x_standard_peripheral/Source/gd32vw55x_fmc.c **** 
 481:../Firmware/GD32VW55x_standard_peripheral/Source/gd32vw55x_fmc.c **** /*!
 482:../Firmware/GD32VW55x_standard_peripheral/Source/gd32vw55x_fmc.c ****     \brief      get Power Amplifier bias tune value
 483:../Firmware/GD32VW55x_standard_peripheral/Source/gd32vw55x_fmc.c ****     \param[in]  none
 484:../Firmware/GD32VW55x_standard_peripheral/Source/gd32vw55x_fmc.c ****     \param[out] rft0_pa_tune0: Power Amplifier bias coarse tune value
 485:../Firmware/GD32VW55x_standard_peripheral/Source/gd32vw55x_fmc.c ****     \param[out] rft0_pa_tune1: Power Amplifier bias fine tune value
 486:../Firmware/GD32VW55x_standard_peripheral/Source/gd32vw55x_fmc.c ****     \retval     none
 487:../Firmware/GD32VW55x_standard_peripheral/Source/gd32vw55x_fmc.c **** */
 488:../Firmware/GD32VW55x_standard_peripheral/Source/gd32vw55x_fmc.c **** void fmc_wifi_trim_pa_get(uint32_t *rft0_pa_tune0, uint32_t *rft0_pa_tune1)
 489:../Firmware/GD32VW55x_standard_peripheral/Source/gd32vw55x_fmc.c **** {
 1216              		.loc 1 489 1
 1217              		.cfi_startproc
 1218 0000 7971     		addi	sp,sp,-48
 1219              		.cfi_def_cfa_offset 48
 1220 0002 22D6     		sw	s0,44(sp)
 1221              		.cfi_offset 8, -4
 1222 0004 0018     		addi	s0,sp,48
 1223              		.cfi_def_cfa 8, 0
 1224 0006 232EA4FC 		sw	a0,-36(s0)
 1225 000a 232CB4FC 		sw	a1,-40(s0)
 490:../Firmware/GD32VW55x_standard_peripheral/Source/gd32vw55x_fmc.c ****     uint32_t rft0_reg;
 491:../Firmware/GD32VW55x_standard_peripheral/Source/gd32vw55x_fmc.c **** 
 492:../Firmware/GD32VW55x_standard_peripheral/Source/gd32vw55x_fmc.c ****     rft0_reg = FMC_RFT0;
 1226              		.loc 1 492 16
 1227 000e B7270240 		li	a5,1073881088
 1228 0012 93878710 		addi	a5,a5,264
 1229              		.loc 1 492 14
 1230 0016 9C43     		lw	a5,0(a5)
 1231 0018 2326F4FE 		sw	a5,-20(s0)
 493:../Firmware/GD32VW55x_standard_peripheral/Source/gd32vw55x_fmc.c ****     *rft0_pa_tune0 = (uint32_t)(rft0_reg & FMC_RFT0_PABIAST0);
 1232              		.loc 1 493 22
 1233 001c 8327C4FE 		lw	a5,-20(s0)
 1234 0020 13F7F700 		andi	a4,a5,15
 1235              		.loc 1 493 20
 1236 0024 8327C4FD 		lw	a5,-36(s0)
 1237 0028 98C3     		sw	a4,0(a5)
 494:../Firmware/GD32VW55x_standard_peripheral/Source/gd32vw55x_fmc.c ****     *rft0_pa_tune1 = (uint32_t)(rft0_reg & FMC_RFT0_PABIAST1);
 1238              		.loc 1 494 22
 1239 002a 8327C4FE 		lw	a5,-20(s0)
 1240 002e 13F7070F 		andi	a4,a5,240
 1241              		.loc 1 494 20
 1242 0032 832784FD 		lw	a5,-40(s0)
 1243 0036 98C3     		sw	a4,0(a5)
 495:../Firmware/GD32VW55x_standard_peripheral/Source/gd32vw55x_fmc.c **** }
 1244              		.loc 1 495 1
 1245 0038 0100     		nop
 1246 003a 3254     		lw	s0,44(sp)
 1247              		.cfi_restore 8
 1248              		.cfi_def_cfa 2, 48
 1249 003c 4561     		addi	sp,sp,48
 1250              		.cfi_def_cfa_offset 0
 1251 003e 8280     		jr	ra
 1252              		.cfi_endproc
 1253              	.LFE366:
 1255              		.section	.text.fmc_wifi_trim_get,"ax",@progbits
 1256              		.align	1
 1257              		.globl	fmc_wifi_trim_get
 1259              	fmc_wifi_trim_get:
 1260              	.LFB367:
 496:../Firmware/GD32VW55x_standard_peripheral/Source/gd32vw55x_fmc.c **** 
 497:../Firmware/GD32VW55x_standard_peripheral/Source/gd32vw55x_fmc.c **** /*!
 498:../Firmware/GD32VW55x_standard_peripheral/Source/gd32vw55x_fmc.c ****     \brief      get wifi trim
 499:../Firmware/GD32VW55x_standard_peripheral/Source/gd32vw55x_fmc.c ****     \param[in]  size: the size of data written to wifi trim, must be 16U
 500:../Firmware/GD32VW55x_standard_peripheral/Source/gd32vw55x_fmc.c ****     \param[in]  buf: the buffer of data read from wifi trim
 501:../Firmware/GD32VW55x_standard_peripheral/Source/gd32vw55x_fmc.c ****     \param[out] none
 502:../Firmware/GD32VW55x_standard_peripheral/Source/gd32vw55x_fmc.c ****     \retval     state of FMC
 503:../Firmware/GD32VW55x_standard_peripheral/Source/gd32vw55x_fmc.c **** */
 504:../Firmware/GD32VW55x_standard_peripheral/Source/gd32vw55x_fmc.c **** fmc_state_enum fmc_wifi_trim_get(uint32_t size, uint32_t buf[])
 505:../Firmware/GD32VW55x_standard_peripheral/Source/gd32vw55x_fmc.c **** {
 1261              		.loc 1 505 1
 1262              		.cfi_startproc
 1263 0000 7971     		addi	sp,sp,-48
 1264              		.cfi_def_cfa_offset 48
 1265 0002 22D6     		sw	s0,44(sp)
 1266              		.cfi_offset 8, -4
 1267 0004 0018     		addi	s0,sp,48
 1268              		.cfi_def_cfa 8, 0
 1269 0006 232EA4FC 		sw	a0,-36(s0)
 1270 000a 232CB4FC 		sw	a1,-40(s0)
 506:../Firmware/GD32VW55x_standard_peripheral/Source/gd32vw55x_fmc.c ****     uint32_t i;
 507:../Firmware/GD32VW55x_standard_peripheral/Source/gd32vw55x_fmc.c **** 
 508:../Firmware/GD32VW55x_standard_peripheral/Source/gd32vw55x_fmc.c ****     if(size != 16U){
 1271              		.loc 1 508 7
 1272 000e 0327C4FD 		lw	a4,-36(s0)
 1273 0012 C147     		li	a5,16
 1274 0014 6304F700 		beq	a4,a5,.L53
 509:../Firmware/GD32VW55x_standard_peripheral/Source/gd32vw55x_fmc.c ****         return FMC_ERR;
 1275              		.loc 1 509 16
 1276 0018 9147     		li	a5,4
 1277 001a 89A0     		j	.L54
 1278              	.L53:
 510:../Firmware/GD32VW55x_standard_peripheral/Source/gd32vw55x_fmc.c ****     }
 511:../Firmware/GD32VW55x_standard_peripheral/Source/gd32vw55x_fmc.c ****     for(i = 0; i < size; i++){
 1279              		.loc 1 511 11
 1280 001c 232604FE 		sw	zero,-20(s0)
 1281              		.loc 1 511 5
 1282 0020 3DA0     		j	.L55
 1283              	.L56:
 512:../Firmware/GD32VW55x_standard_peripheral/Source/gd32vw55x_fmc.c ****         buf[i] = REG32(FMC + 0x00000200U + i*4);
 1284              		.loc 1 512 18 discriminator 3
 1285 0022 0327C4FE 		lw	a4,-20(s0)
 1286 0026 B7970010 		li	a5,268472320
 1287 002a 93870788 		addi	a5,a5,-1920
 1288 002e BA97     		add	a5,a4,a5
 1289 0030 8A07     		slli	a5,a5,2
 1290 0032 BE86     		mv	a3,a5
 1291              		.loc 1 512 12 discriminator 3
 1292 0034 8327C4FE 		lw	a5,-20(s0)
 1293 0038 8A07     		slli	a5,a5,2
 1294 003a 032784FD 		lw	a4,-40(s0)
 1295 003e BA97     		add	a5,a4,a5
 1296              		.loc 1 512 18 discriminator 3
 1297 0040 9842     		lw	a4,0(a3)
 1298              		.loc 1 512 16 discriminator 3
 1299 0042 98C3     		sw	a4,0(a5)
 511:../Firmware/GD32VW55x_standard_peripheral/Source/gd32vw55x_fmc.c ****         buf[i] = REG32(FMC + 0x00000200U + i*4);
 1300              		.loc 1 511 27 discriminator 3
 1301 0044 8327C4FE 		lw	a5,-20(s0)
 1302 0048 8507     		addi	a5,a5,1
 1303 004a 2326F4FE 		sw	a5,-20(s0)
 1304              	.L55:
 511:../Firmware/GD32VW55x_standard_peripheral/Source/gd32vw55x_fmc.c ****         buf[i] = REG32(FMC + 0x00000200U + i*4);
 1305              		.loc 1 511 5 discriminator 1
 1306 004e 0327C4FE 		lw	a4,-20(s0)
 1307 0052 8327C4FD 		lw	a5,-36(s0)
 1308 0056 E366F7FC 		bltu	a4,a5,.L56
 513:../Firmware/GD32VW55x_standard_peripheral/Source/gd32vw55x_fmc.c ****     }
 514:../Firmware/GD32VW55x_standard_peripheral/Source/gd32vw55x_fmc.c ****     /* return the FMC state */
 515:../Firmware/GD32VW55x_standard_peripheral/Source/gd32vw55x_fmc.c ****     return FMC_READY;
 1309              		.loc 1 515 12
 1310 005a 8147     		li	a5,0
 1311              	.L54:
 516:../Firmware/GD32VW55x_standard_peripheral/Source/gd32vw55x_fmc.c **** }
 1312              		.loc 1 516 1
 1313 005c 3E85     		mv	a0,a5
 1314 005e 3254     		lw	s0,44(sp)
 1315              		.cfi_restore 8
 1316              		.cfi_def_cfa 2, 48
 1317 0060 4561     		addi	sp,sp,48
 1318              		.cfi_def_cfa_offset 0
 1319 0062 8280     		jr	ra
 1320              		.cfi_endproc
 1321              	.LFE367:
 1323              		.section	.text.fmc_pid_get,"ax",@progbits
 1324              		.align	1
 1325              		.globl	fmc_pid_get
 1327              	fmc_pid_get:
 1328              	.LFB368:
 517:../Firmware/GD32VW55x_standard_peripheral/Source/gd32vw55x_fmc.c **** 
 518:../Firmware/GD32VW55x_standard_peripheral/Source/gd32vw55x_fmc.c **** /*!
 519:../Firmware/GD32VW55x_standard_peripheral/Source/gd32vw55x_fmc.c ****     \brief      get product ID
 520:../Firmware/GD32VW55x_standard_peripheral/Source/gd32vw55x_fmc.c ****     \param[in]  none
 521:../Firmware/GD32VW55x_standard_peripheral/Source/gd32vw55x_fmc.c ****     \param[out] pid: product ID
 522:../Firmware/GD32VW55x_standard_peripheral/Source/gd32vw55x_fmc.c ****     \retval     none
 523:../Firmware/GD32VW55x_standard_peripheral/Source/gd32vw55x_fmc.c **** */
 524:../Firmware/GD32VW55x_standard_peripheral/Source/gd32vw55x_fmc.c **** void fmc_pid_get(uint32_t *pid)
 525:../Firmware/GD32VW55x_standard_peripheral/Source/gd32vw55x_fmc.c **** {
 1329              		.loc 1 525 1
 1330              		.cfi_startproc
 1331 0000 7971     		addi	sp,sp,-48
 1332              		.cfi_def_cfa_offset 48
 1333 0002 22D6     		sw	s0,44(sp)
 1334              		.cfi_offset 8, -4
 1335 0004 0018     		addi	s0,sp,48
 1336              		.cfi_def_cfa 8, 0
 1337 0006 232EA4FC 		sw	a0,-36(s0)
 526:../Firmware/GD32VW55x_standard_peripheral/Source/gd32vw55x_fmc.c ****     uint32_t pid_addr = (uint32_t)pid;
 1338              		.loc 1 526 14
 1339 000a 8327C4FD 		lw	a5,-36(s0)
 1340 000e 2326F4FE 		sw	a5,-20(s0)
 527:../Firmware/GD32VW55x_standard_peripheral/Source/gd32vw55x_fmc.c ****     *(uint32_t *)pid_addr = (uint32_t)(FMC_PID0);
 1341              		.loc 1 527 29
 1342 0012 B7270240 		li	a5,1073881088
 1343 0016 13870710 		addi	a4,a5,256
 1344              		.loc 1 527 6
 1345 001a 8327C4FE 		lw	a5,-20(s0)
 1346              		.loc 1 527 29
 1347 001e 1843     		lw	a4,0(a4)
 1348              		.loc 1 527 27
 1349 0020 98C3     		sw	a4,0(a5)
 528:../Firmware/GD32VW55x_standard_peripheral/Source/gd32vw55x_fmc.c ****     pid_addr += 4U;
 1350              		.loc 1 528 14
 1351 0022 8327C4FE 		lw	a5,-20(s0)
 1352 0026 9107     		addi	a5,a5,4
 1353 0028 2326F4FE 		sw	a5,-20(s0)
 529:../Firmware/GD32VW55x_standard_peripheral/Source/gd32vw55x_fmc.c ****     *(uint32_t *)pid_addr = (uint32_t)(FMC_PID1);
 1354              		.loc 1 529 29
 1355 002c B7270240 		li	a5,1073881088
 1356 0030 13874710 		addi	a4,a5,260
 1357              		.loc 1 529 6
 1358 0034 8327C4FE 		lw	a5,-20(s0)
 1359              		.loc 1 529 29
 1360 0038 1843     		lw	a4,0(a4)
 1361              		.loc 1 529 27
 1362 003a 98C3     		sw	a4,0(a5)
 530:../Firmware/GD32VW55x_standard_peripheral/Source/gd32vw55x_fmc.c **** }
 1363              		.loc 1 530 1
 1364 003c 0100     		nop
 1365 003e 3254     		lw	s0,44(sp)
 1366              		.cfi_restore 8
 1367              		.cfi_def_cfa 2, 48
 1368 0040 4561     		addi	sp,sp,48
 1369              		.cfi_def_cfa_offset 0
 1370 0042 8280     		jr	ra
 1371              		.cfi_endproc
 1372              	.LFE368:
 1374              		.section	.text.ob_write_protection_get,"ax",@progbits
 1375              		.align	1
 1376              		.globl	ob_write_protection_get
 1378              	ob_write_protection_get:
 1379              	.LFB369:
 531:../Firmware/GD32VW55x_standard_peripheral/Source/gd32vw55x_fmc.c **** 
 532:../Firmware/GD32VW55x_standard_peripheral/Source/gd32vw55x_fmc.c **** /*!
 533:../Firmware/GD32VW55x_standard_peripheral/Source/gd32vw55x_fmc.c ****     \brief      get option bytes write protection state, only applies to get the status of write/er
 534:../Firmware/GD32VW55x_standard_peripheral/Source/gd32vw55x_fmc.c ****     \param[in]  none
 535:../Firmware/GD32VW55x_standard_peripheral/Source/gd32vw55x_fmc.c ****     \param[out] none
 536:../Firmware/GD32VW55x_standard_peripheral/Source/gd32vw55x_fmc.c ****     \retval     FlagStatus: SET or RESET
 537:../Firmware/GD32VW55x_standard_peripheral/Source/gd32vw55x_fmc.c **** */
 538:../Firmware/GD32VW55x_standard_peripheral/Source/gd32vw55x_fmc.c **** FlagStatus ob_write_protection_get(void)
 539:../Firmware/GD32VW55x_standard_peripheral/Source/gd32vw55x_fmc.c **** {
 1380              		.loc 1 539 1
 1381              		.cfi_startproc
 1382 0000 0111     		addi	sp,sp,-32
 1383              		.cfi_def_cfa_offset 32
 1384 0002 22CE     		sw	s0,28(sp)
 1385              		.cfi_offset 8, -4
 1386 0004 0010     		addi	s0,sp,32
 1387              		.cfi_def_cfa 8, 0
 540:../Firmware/GD32VW55x_standard_peripheral/Source/gd32vw55x_fmc.c ****     FlagStatus status = RESET;
 1388              		.loc 1 540 16
 1389 0006 232604FE 		sw	zero,-20(s0)
 541:../Firmware/GD32VW55x_standard_peripheral/Source/gd32vw55x_fmc.c **** 
 542:../Firmware/GD32VW55x_standard_peripheral/Source/gd32vw55x_fmc.c ****     if(FMC_OBSTAT & FMC_OBSTAT_WP) {
 1390              		.loc 1 542 8
 1391 000a B7270240 		li	a5,1073881088
 1392 000e F107     		addi	a5,a5,28
 1393 0010 9C43     		lw	a5,0(a5)
 1394              		.loc 1 542 19
 1395 0012 918B     		andi	a5,a5,4
 1396              		.loc 1 542 7
 1397 0014 89C7     		beq	a5,zero,.L59
 543:../Firmware/GD32VW55x_standard_peripheral/Source/gd32vw55x_fmc.c ****         status = SET;
 1398              		.loc 1 543 16
 1399 0016 8547     		li	a5,1
 1400 0018 2326F4FE 		sw	a5,-20(s0)
 1401 001c 19A0     		j	.L60
 1402              	.L59:
 544:../Firmware/GD32VW55x_standard_peripheral/Source/gd32vw55x_fmc.c ****     } else {
 545:../Firmware/GD32VW55x_standard_peripheral/Source/gd32vw55x_fmc.c ****         status = RESET;
 1403              		.loc 1 545 16
 1404 001e 232604FE 		sw	zero,-20(s0)
 1405              	.L60:
 546:../Firmware/GD32VW55x_standard_peripheral/Source/gd32vw55x_fmc.c ****     }
 547:../Firmware/GD32VW55x_standard_peripheral/Source/gd32vw55x_fmc.c **** 
 548:../Firmware/GD32VW55x_standard_peripheral/Source/gd32vw55x_fmc.c ****     /* return the state of corresponding FMC flag */
 549:../Firmware/GD32VW55x_standard_peripheral/Source/gd32vw55x_fmc.c ****     return status;
 1406              		.loc 1 549 12
 1407 0022 8327C4FE 		lw	a5,-20(s0)
 550:../Firmware/GD32VW55x_standard_peripheral/Source/gd32vw55x_fmc.c **** }
 1408              		.loc 1 550 1
 1409 0026 3E85     		mv	a0,a5
 1410 0028 7244     		lw	s0,28(sp)
 1411              		.cfi_restore 8
 1412              		.cfi_def_cfa 2, 32
 1413 002a 0561     		addi	sp,sp,32
 1414              		.cfi_def_cfa_offset 0
 1415 002c 8280     		jr	ra
 1416              		.cfi_endproc
 1417              	.LFE369:
 1419              		.section	.text.ob_user_get,"ax",@progbits
 1420              		.align	1
 1421              		.globl	ob_user_get
 1423              	ob_user_get:
 1424              	.LFB370:
 551:../Firmware/GD32VW55x_standard_peripheral/Source/gd32vw55x_fmc.c **** 
 552:../Firmware/GD32VW55x_standard_peripheral/Source/gd32vw55x_fmc.c **** /*!
 553:../Firmware/GD32VW55x_standard_peripheral/Source/gd32vw55x_fmc.c ****     \brief      get the value of option bytes USER
 554:../Firmware/GD32VW55x_standard_peripheral/Source/gd32vw55x_fmc.c ****     \param[in]  none
 555:../Firmware/GD32VW55x_standard_peripheral/Source/gd32vw55x_fmc.c ****     \param[out] none
 556:../Firmware/GD32VW55x_standard_peripheral/Source/gd32vw55x_fmc.c ****     \retval     the option bytes USER value
 557:../Firmware/GD32VW55x_standard_peripheral/Source/gd32vw55x_fmc.c **** */
 558:../Firmware/GD32VW55x_standard_peripheral/Source/gd32vw55x_fmc.c **** uint32_t ob_user_get(void)
 559:../Firmware/GD32VW55x_standard_peripheral/Source/gd32vw55x_fmc.c **** {
 1425              		.loc 1 559 1
 1426              		.cfi_startproc
 1427 0000 4111     		addi	sp,sp,-16
 1428              		.cfi_def_cfa_offset 16
 1429 0002 22C6     		sw	s0,12(sp)
 1430              		.cfi_offset 8, -4
 1431 0004 0008     		addi	s0,sp,16
 1432              		.cfi_def_cfa 8, 0
 560:../Firmware/GD32VW55x_standard_peripheral/Source/gd32vw55x_fmc.c ****     /* return the FMC user option bytes value */
 561:../Firmware/GD32VW55x_standard_peripheral/Source/gd32vw55x_fmc.c ****     return (uint32_t) FMC_OBUSER;
 1433              		.loc 1 561 12
 1434 0006 B7270240 		li	a5,1073881088
 1435 000a 93874704 		addi	a5,a5,68
 1436 000e 9C43     		lw	a5,0(a5)
 562:../Firmware/GD32VW55x_standard_peripheral/Source/gd32vw55x_fmc.c **** }
 1437              		.loc 1 562 1
 1438 0010 3E85     		mv	a0,a5
 1439 0012 3244     		lw	s0,12(sp)
 1440              		.cfi_restore 8
 1441              		.cfi_def_cfa 2, 16
 1442 0014 4101     		addi	sp,sp,16
 1443              		.cfi_def_cfa_offset 0
 1444 0016 8280     		jr	ra
 1445              		.cfi_endproc
 1446              	.LFE370:
 1448              		.section	.text.ob_security_protection_flag_get,"ax",@progbits
 1449              		.align	1
 1450              		.globl	ob_security_protection_flag_get
 1452              	ob_security_protection_flag_get:
 1453              	.LFB371:
 563:../Firmware/GD32VW55x_standard_peripheral/Source/gd32vw55x_fmc.c **** 
 564:../Firmware/GD32VW55x_standard_peripheral/Source/gd32vw55x_fmc.c **** /*!
 565:../Firmware/GD32VW55x_standard_peripheral/Source/gd32vw55x_fmc.c ****     \brief      get the FMC option bytes security protection state
 566:../Firmware/GD32VW55x_standard_peripheral/Source/gd32vw55x_fmc.c ****     \param[in]  none
 567:../Firmware/GD32VW55x_standard_peripheral/Source/gd32vw55x_fmc.c ****     \param[out] none
 568:../Firmware/GD32VW55x_standard_peripheral/Source/gd32vw55x_fmc.c ****     \retval     FlagStatus: SET or RESET
 569:../Firmware/GD32VW55x_standard_peripheral/Source/gd32vw55x_fmc.c **** */
 570:../Firmware/GD32VW55x_standard_peripheral/Source/gd32vw55x_fmc.c **** FlagStatus ob_security_protection_flag_get(void)
 571:../Firmware/GD32VW55x_standard_peripheral/Source/gd32vw55x_fmc.c **** {
 1454              		.loc 1 571 1
 1455              		.cfi_startproc
 1456 0000 0111     		addi	sp,sp,-32
 1457              		.cfi_def_cfa_offset 32
 1458 0002 22CE     		sw	s0,28(sp)
 1459              		.cfi_offset 8, -4
 1460 0004 0010     		addi	s0,sp,32
 1461              		.cfi_def_cfa 8, 0
 572:../Firmware/GD32VW55x_standard_peripheral/Source/gd32vw55x_fmc.c ****     FlagStatus state = RESET;
 1462              		.loc 1 572 16
 1463 0006 232604FE 		sw	zero,-20(s0)
 573:../Firmware/GD32VW55x_standard_peripheral/Source/gd32vw55x_fmc.c **** 
 574:../Firmware/GD32VW55x_standard_peripheral/Source/gd32vw55x_fmc.c ****     if (FMC_OBSTAT & FMC_OBSTAT_SPCSTAT_MASK){
 1464              		.loc 1 574 9
 1465 000a B7270240 		li	a5,1073881088
 1466 000e F107     		addi	a5,a5,28
 1467 0010 9C43     		lw	a5,0(a5)
 1468              		.loc 1 574 20
 1469 0012 898B     		andi	a5,a5,2
 1470              		.loc 1 574 8
 1471 0014 89C7     		beq	a5,zero,.L65
 575:../Firmware/GD32VW55x_standard_peripheral/Source/gd32vw55x_fmc.c ****         state = SET;
 1472              		.loc 1 575 15
 1473 0016 8547     		li	a5,1
 1474 0018 2326F4FE 		sw	a5,-20(s0)
 1475 001c 19A0     		j	.L66
 1476              	.L65:
 576:../Firmware/GD32VW55x_standard_peripheral/Source/gd32vw55x_fmc.c ****     }else{
 577:../Firmware/GD32VW55x_standard_peripheral/Source/gd32vw55x_fmc.c ****         state = RESET;
 1477              		.loc 1 577 15
 1478 001e 232604FE 		sw	zero,-20(s0)
 1479              	.L66:
 578:../Firmware/GD32VW55x_standard_peripheral/Source/gd32vw55x_fmc.c ****     }
 579:../Firmware/GD32VW55x_standard_peripheral/Source/gd32vw55x_fmc.c **** 
 580:../Firmware/GD32VW55x_standard_peripheral/Source/gd32vw55x_fmc.c ****     /* return the state of corresponding FMC flag */
 581:../Firmware/GD32VW55x_standard_peripheral/Source/gd32vw55x_fmc.c ****     return state;
 1480              		.loc 1 581 12
 1481 0022 8327C4FE 		lw	a5,-20(s0)
 582:../Firmware/GD32VW55x_standard_peripheral/Source/gd32vw55x_fmc.c **** }
 1482              		.loc 1 582 1
 1483 0026 3E85     		mv	a0,a5
 1484 0028 7244     		lw	s0,28(sp)
 1485              		.cfi_restore 8
 1486              		.cfi_def_cfa 2, 32
 1487 002a 0561     		addi	sp,sp,32
 1488              		.cfi_def_cfa_offset 0
 1489 002c 8280     		jr	ra
 1490              		.cfi_endproc
 1491              	.LFE371:
 1493              		.section	.text.fmc_flag_get,"ax",@progbits
 1494              		.align	1
 1495              		.globl	fmc_flag_get
 1497              	fmc_flag_get:
 1498              	.LFB372:
 583:../Firmware/GD32VW55x_standard_peripheral/Source/gd32vw55x_fmc.c **** 
 584:../Firmware/GD32VW55x_standard_peripheral/Source/gd32vw55x_fmc.c **** /*!
 585:../Firmware/GD32VW55x_standard_peripheral/Source/gd32vw55x_fmc.c ****     \brief      get FMC flag status
 586:../Firmware/GD32VW55x_standard_peripheral/Source/gd32vw55x_fmc.c ****     \param[in]  flag: FMC flag
 587:../Firmware/GD32VW55x_standard_peripheral/Source/gd32vw55x_fmc.c ****                 only one parameter can be selected which is shown as below:
 588:../Firmware/GD32VW55x_standard_peripheral/Source/gd32vw55x_fmc.c ****       \arg        FMC_FLAG_BUSY: FMC busy flag
 589:../Firmware/GD32VW55x_standard_peripheral/Source/gd32vw55x_fmc.c ****       \arg        FMC_FLAG_WPERR: FMC erase/program protection error flag
 590:../Firmware/GD32VW55x_standard_peripheral/Source/gd32vw55x_fmc.c ****       \arg        FMC_FLAG_END: FMC end of operation flag
 591:../Firmware/GD32VW55x_standard_peripheral/Source/gd32vw55x_fmc.c ****     \param[out] none
 592:../Firmware/GD32VW55x_standard_peripheral/Source/gd32vw55x_fmc.c ****     \retval     FlagStatus: SET or RESET
 593:../Firmware/GD32VW55x_standard_peripheral/Source/gd32vw55x_fmc.c **** */
 594:../Firmware/GD32VW55x_standard_peripheral/Source/gd32vw55x_fmc.c **** FlagStatus fmc_flag_get(uint32_t flag)
 595:../Firmware/GD32VW55x_standard_peripheral/Source/gd32vw55x_fmc.c **** {
 1499              		.loc 1 595 1
 1500              		.cfi_startproc
 1501 0000 7971     		addi	sp,sp,-48
 1502              		.cfi_def_cfa_offset 48
 1503 0002 22D6     		sw	s0,44(sp)
 1504              		.cfi_offset 8, -4
 1505 0004 0018     		addi	s0,sp,48
 1506              		.cfi_def_cfa 8, 0
 1507 0006 232EA4FC 		sw	a0,-36(s0)
 596:../Firmware/GD32VW55x_standard_peripheral/Source/gd32vw55x_fmc.c ****     FlagStatus status = RESET;
 1508              		.loc 1 596 16
 1509 000a 232604FE 		sw	zero,-20(s0)
 597:../Firmware/GD32VW55x_standard_peripheral/Source/gd32vw55x_fmc.c **** 
 598:../Firmware/GD32VW55x_standard_peripheral/Source/gd32vw55x_fmc.c ****     if (FMC_STAT & flag){
 1510              		.loc 1 598 9
 1511 000e B7270240 		li	a5,1073881088
 1512 0012 B107     		addi	a5,a5,12
 1513 0014 9843     		lw	a4,0(a5)
 1514              		.loc 1 598 18
 1515 0016 8327C4FD 		lw	a5,-36(s0)
 1516 001a F98F     		and	a5,a4,a5
 1517              		.loc 1 598 8
 1518 001c 81C7     		beq	a5,zero,.L69
 599:../Firmware/GD32VW55x_standard_peripheral/Source/gd32vw55x_fmc.c ****         status = SET;
 1519              		.loc 1 599 16
 1520 001e 8547     		li	a5,1
 1521 0020 2326F4FE 		sw	a5,-20(s0)
 1522              	.L69:
 600:../Firmware/GD32VW55x_standard_peripheral/Source/gd32vw55x_fmc.c ****     }
 601:../Firmware/GD32VW55x_standard_peripheral/Source/gd32vw55x_fmc.c ****     /* return the state of corresponding FMC flag */
 602:../Firmware/GD32VW55x_standard_peripheral/Source/gd32vw55x_fmc.c ****     return status;
 1523              		.loc 1 602 12
 1524 0024 8327C4FE 		lw	a5,-20(s0)
 603:../Firmware/GD32VW55x_standard_peripheral/Source/gd32vw55x_fmc.c **** }
 1525              		.loc 1 603 1
 1526 0028 3E85     		mv	a0,a5
 1527 002a 3254     		lw	s0,44(sp)
 1528              		.cfi_restore 8
 1529              		.cfi_def_cfa 2, 48
 1530 002c 4561     		addi	sp,sp,48
 1531              		.cfi_def_cfa_offset 0
 1532 002e 8280     		jr	ra
 1533              		.cfi_endproc
 1534              	.LFE372:
 1536              		.section	.text.fmc_flag_clear,"ax",@progbits
 1537              		.align	1
 1538              		.globl	fmc_flag_clear
 1540              	fmc_flag_clear:
 1541              	.LFB373:
 604:../Firmware/GD32VW55x_standard_peripheral/Source/gd32vw55x_fmc.c **** 
 605:../Firmware/GD32VW55x_standard_peripheral/Source/gd32vw55x_fmc.c **** /*!
 606:../Firmware/GD32VW55x_standard_peripheral/Source/gd32vw55x_fmc.c ****     \brief      clear the FMC flag
 607:../Firmware/GD32VW55x_standard_peripheral/Source/gd32vw55x_fmc.c ****     \param[in]  flag: FMC flag
 608:../Firmware/GD32VW55x_standard_peripheral/Source/gd32vw55x_fmc.c ****                 only one parameter can be selected which is shown as below:
 609:../Firmware/GD32VW55x_standard_peripheral/Source/gd32vw55x_fmc.c ****       \arg        FMC_FLAG_WPERR: FMC erase/program protection error flag
 610:../Firmware/GD32VW55x_standard_peripheral/Source/gd32vw55x_fmc.c ****       \arg        FMC_FLAG_END: FMC end of operation flag
 611:../Firmware/GD32VW55x_standard_peripheral/Source/gd32vw55x_fmc.c ****     \param[out] none
 612:../Firmware/GD32VW55x_standard_peripheral/Source/gd32vw55x_fmc.c ****     \retval     none
 613:../Firmware/GD32VW55x_standard_peripheral/Source/gd32vw55x_fmc.c **** */
 614:../Firmware/GD32VW55x_standard_peripheral/Source/gd32vw55x_fmc.c **** void fmc_flag_clear(uint32_t flag)
 615:../Firmware/GD32VW55x_standard_peripheral/Source/gd32vw55x_fmc.c **** {
 1542              		.loc 1 615 1
 1543              		.cfi_startproc
 1544 0000 0111     		addi	sp,sp,-32
 1545              		.cfi_def_cfa_offset 32
 1546 0002 22CE     		sw	s0,28(sp)
 1547              		.cfi_offset 8, -4
 1548 0004 0010     		addi	s0,sp,32
 1549              		.cfi_def_cfa 8, 0
 1550 0006 2326A4FE 		sw	a0,-20(s0)
 616:../Firmware/GD32VW55x_standard_peripheral/Source/gd32vw55x_fmc.c ****     /* clear the flags */
 617:../Firmware/GD32VW55x_standard_peripheral/Source/gd32vw55x_fmc.c ****     FMC_STAT = flag;
 1551              		.loc 1 617 5
 1552 000a B7270240 		li	a5,1073881088
 1553 000e B107     		addi	a5,a5,12
 1554              		.loc 1 617 14
 1555 0010 0327C4FE 		lw	a4,-20(s0)
 1556 0014 98C3     		sw	a4,0(a5)
 618:../Firmware/GD32VW55x_standard_peripheral/Source/gd32vw55x_fmc.c **** }
 1557              		.loc 1 618 1
 1558 0016 0100     		nop
 1559 0018 7244     		lw	s0,28(sp)
 1560              		.cfi_restore 8
 1561              		.cfi_def_cfa 2, 32
 1562 001a 0561     		addi	sp,sp,32
 1563              		.cfi_def_cfa_offset 0
 1564 001c 8280     		jr	ra
 1565              		.cfi_endproc
 1566              	.LFE373:
 1568              		.section	.text.fmc_interrupt_enable,"ax",@progbits
 1569              		.align	1
 1570              		.globl	fmc_interrupt_enable
 1572              	fmc_interrupt_enable:
 1573              	.LFB374:
 619:../Firmware/GD32VW55x_standard_peripheral/Source/gd32vw55x_fmc.c **** 
 620:../Firmware/GD32VW55x_standard_peripheral/Source/gd32vw55x_fmc.c **** /*!
 621:../Firmware/GD32VW55x_standard_peripheral/Source/gd32vw55x_fmc.c ****     \brief      enable FMC interrupt
 622:../Firmware/GD32VW55x_standard_peripheral/Source/gd32vw55x_fmc.c ****     \param[in]  interrupt: the FMC interrupt
 623:../Firmware/GD32VW55x_standard_peripheral/Source/gd32vw55x_fmc.c ****                 only one parameter can be selected which is shown as below:
 624:../Firmware/GD32VW55x_standard_peripheral/Source/gd32vw55x_fmc.c ****       \arg        FMC_INT_END: FMC end of operation interrupt
 625:../Firmware/GD32VW55x_standard_peripheral/Source/gd32vw55x_fmc.c ****       \arg        FMC_INT_ERR: FMC error interrupt
 626:../Firmware/GD32VW55x_standard_peripheral/Source/gd32vw55x_fmc.c ****     \param[out] none
 627:../Firmware/GD32VW55x_standard_peripheral/Source/gd32vw55x_fmc.c ****     \retval     none
 628:../Firmware/GD32VW55x_standard_peripheral/Source/gd32vw55x_fmc.c **** */
 629:../Firmware/GD32VW55x_standard_peripheral/Source/gd32vw55x_fmc.c **** void fmc_interrupt_enable(uint32_t interrupt)
 630:../Firmware/GD32VW55x_standard_peripheral/Source/gd32vw55x_fmc.c **** {
 1574              		.loc 1 630 1
 1575              		.cfi_startproc
 1576 0000 0111     		addi	sp,sp,-32
 1577              		.cfi_def_cfa_offset 32
 1578 0002 22CE     		sw	s0,28(sp)
 1579              		.cfi_offset 8, -4
 1580 0004 0010     		addi	s0,sp,32
 1581              		.cfi_def_cfa 8, 0
 1582 0006 2326A4FE 		sw	a0,-20(s0)
 631:../Firmware/GD32VW55x_standard_peripheral/Source/gd32vw55x_fmc.c ****     FMC_CTL |= interrupt;
 1583              		.loc 1 631 13
 1584 000a B7270240 		li	a5,1073881088
 1585 000e C107     		addi	a5,a5,16
 1586 0010 9443     		lw	a3,0(a5)
 1587 0012 B7270240 		li	a5,1073881088
 1588 0016 C107     		addi	a5,a5,16
 1589 0018 0327C4FE 		lw	a4,-20(s0)
 1590 001c 558F     		or	a4,a3,a4
 1591 001e 98C3     		sw	a4,0(a5)
 632:../Firmware/GD32VW55x_standard_peripheral/Source/gd32vw55x_fmc.c **** }
 1592              		.loc 1 632 1
 1593 0020 0100     		nop
 1594 0022 7244     		lw	s0,28(sp)
 1595              		.cfi_restore 8
 1596              		.cfi_def_cfa 2, 32
 1597 0024 0561     		addi	sp,sp,32
 1598              		.cfi_def_cfa_offset 0
 1599 0026 8280     		jr	ra
 1600              		.cfi_endproc
 1601              	.LFE374:
 1603              		.section	.text.fmc_interrupt_disable,"ax",@progbits
 1604              		.align	1
 1605              		.globl	fmc_interrupt_disable
 1607              	fmc_interrupt_disable:
 1608              	.LFB375:
 633:../Firmware/GD32VW55x_standard_peripheral/Source/gd32vw55x_fmc.c **** 
 634:../Firmware/GD32VW55x_standard_peripheral/Source/gd32vw55x_fmc.c **** /*!
 635:../Firmware/GD32VW55x_standard_peripheral/Source/gd32vw55x_fmc.c ****     \brief      disable FMC interrupt
 636:../Firmware/GD32VW55x_standard_peripheral/Source/gd32vw55x_fmc.c ****     \param[in]  interrupt: the FMC interrupt
 637:../Firmware/GD32VW55x_standard_peripheral/Source/gd32vw55x_fmc.c ****                 only one parameter can be selected which is shown as below:
 638:../Firmware/GD32VW55x_standard_peripheral/Source/gd32vw55x_fmc.c ****       \arg        FMC_INT_END: FMC end of operation interrupt
 639:../Firmware/GD32VW55x_standard_peripheral/Source/gd32vw55x_fmc.c ****       \arg        FMC_INT_ERR: FMC error interrupt
 640:../Firmware/GD32VW55x_standard_peripheral/Source/gd32vw55x_fmc.c ****     \param[out] none
 641:../Firmware/GD32VW55x_standard_peripheral/Source/gd32vw55x_fmc.c ****     \retval     none
 642:../Firmware/GD32VW55x_standard_peripheral/Source/gd32vw55x_fmc.c **** */
 643:../Firmware/GD32VW55x_standard_peripheral/Source/gd32vw55x_fmc.c **** void fmc_interrupt_disable(uint32_t interrupt)
 644:../Firmware/GD32VW55x_standard_peripheral/Source/gd32vw55x_fmc.c **** {
 1609              		.loc 1 644 1
 1610              		.cfi_startproc
 1611 0000 0111     		addi	sp,sp,-32
 1612              		.cfi_def_cfa_offset 32
 1613 0002 22CE     		sw	s0,28(sp)
 1614              		.cfi_offset 8, -4
 1615 0004 0010     		addi	s0,sp,32
 1616              		.cfi_def_cfa 8, 0
 1617 0006 2326A4FE 		sw	a0,-20(s0)
 645:../Firmware/GD32VW55x_standard_peripheral/Source/gd32vw55x_fmc.c ****     FMC_CTL &= ~(uint32_t) interrupt;
 1618              		.loc 1 645 13
 1619 000a B7270240 		li	a5,1073881088
 1620 000e C107     		addi	a5,a5,16
 1621 0010 9443     		lw	a3,0(a5)
 1622              		.loc 1 645 16
 1623 0012 8327C4FE 		lw	a5,-20(s0)
 1624 0016 13C7F7FF 		not	a4,a5
 1625              		.loc 1 645 13
 1626 001a B7270240 		li	a5,1073881088
 1627 001e C107     		addi	a5,a5,16
 1628 0020 758F     		and	a4,a3,a4
 1629 0022 98C3     		sw	a4,0(a5)
 646:../Firmware/GD32VW55x_standard_peripheral/Source/gd32vw55x_fmc.c **** }
 1630              		.loc 1 646 1
 1631 0024 0100     		nop
 1632 0026 7244     		lw	s0,28(sp)
 1633              		.cfi_restore 8
 1634              		.cfi_def_cfa 2, 32
 1635 0028 0561     		addi	sp,sp,32
 1636              		.cfi_def_cfa_offset 0
 1637 002a 8280     		jr	ra
 1638              		.cfi_endproc
 1639              	.LFE375:
 1641              		.section	.text.fmc_interrupt_flag_get,"ax",@progbits
 1642              		.align	1
 1643              		.globl	fmc_interrupt_flag_get
 1645              	fmc_interrupt_flag_get:
 1646              	.LFB376:
 647:../Firmware/GD32VW55x_standard_peripheral/Source/gd32vw55x_fmc.c **** 
 648:../Firmware/GD32VW55x_standard_peripheral/Source/gd32vw55x_fmc.c **** /*!
 649:../Firmware/GD32VW55x_standard_peripheral/Source/gd32vw55x_fmc.c ****     \brief      get FMC interrupt flag
 650:../Firmware/GD32VW55x_standard_peripheral/Source/gd32vw55x_fmc.c ****     \param[in]  flag: FMC interrupt flag
 651:../Firmware/GD32VW55x_standard_peripheral/Source/gd32vw55x_fmc.c ****                 only one parameter can be selected which is shown as below:
 652:../Firmware/GD32VW55x_standard_peripheral/Source/gd32vw55x_fmc.c ****       \arg        FMC_INT_FLAG_WPERR: FMC erase/program protection error interrupt flag
 653:../Firmware/GD32VW55x_standard_peripheral/Source/gd32vw55x_fmc.c ****       \arg        FMC_INT_FLAG_END: FMC end of operation interrupt flag
 654:../Firmware/GD32VW55x_standard_peripheral/Source/gd32vw55x_fmc.c ****     \param[out] none
 655:../Firmware/GD32VW55x_standard_peripheral/Source/gd32vw55x_fmc.c ****     \retval     FlagStatus: SET or RESET
 656:../Firmware/GD32VW55x_standard_peripheral/Source/gd32vw55x_fmc.c **** */
 657:../Firmware/GD32VW55x_standard_peripheral/Source/gd32vw55x_fmc.c **** FlagStatus fmc_interrupt_flag_get(uint32_t flag)
 658:../Firmware/GD32VW55x_standard_peripheral/Source/gd32vw55x_fmc.c **** {
 1647              		.loc 1 658 1
 1648              		.cfi_startproc
 1649 0000 7971     		addi	sp,sp,-48
 1650              		.cfi_def_cfa_offset 48
 1651 0002 22D6     		sw	s0,44(sp)
 1652              		.cfi_offset 8, -4
 1653 0004 0018     		addi	s0,sp,48
 1654              		.cfi_def_cfa 8, 0
 1655 0006 232EA4FC 		sw	a0,-36(s0)
 659:../Firmware/GD32VW55x_standard_peripheral/Source/gd32vw55x_fmc.c ****     FlagStatus status = RESET;
 1656              		.loc 1 659 16
 1657 000a 232604FE 		sw	zero,-20(s0)
 660:../Firmware/GD32VW55x_standard_peripheral/Source/gd32vw55x_fmc.c **** 
 661:../Firmware/GD32VW55x_standard_peripheral/Source/gd32vw55x_fmc.c ****     if(FMC_STAT & flag){
 1658              		.loc 1 661 8
 1659 000e B7270240 		li	a5,1073881088
 1660 0012 B107     		addi	a5,a5,12
 1661 0014 9843     		lw	a4,0(a5)
 1662              		.loc 1 661 17
 1663 0016 8327C4FD 		lw	a5,-36(s0)
 1664 001a F98F     		and	a5,a4,a5
 1665              		.loc 1 661 7
 1666 001c 81C7     		beq	a5,zero,.L75
 662:../Firmware/GD32VW55x_standard_peripheral/Source/gd32vw55x_fmc.c ****         status = SET;
 1667              		.loc 1 662 16
 1668 001e 8547     		li	a5,1
 1669 0020 2326F4FE 		sw	a5,-20(s0)
 1670              	.L75:
 663:../Firmware/GD32VW55x_standard_peripheral/Source/gd32vw55x_fmc.c ****     }
 664:../Firmware/GD32VW55x_standard_peripheral/Source/gd32vw55x_fmc.c ****     /* return the state of corresponding FMC flag */
 665:../Firmware/GD32VW55x_standard_peripheral/Source/gd32vw55x_fmc.c ****     return status;
 1671              		.loc 1 665 12
 1672 0024 8327C4FE 		lw	a5,-20(s0)
 666:../Firmware/GD32VW55x_standard_peripheral/Source/gd32vw55x_fmc.c **** }
 1673              		.loc 1 666 1
 1674 0028 3E85     		mv	a0,a5
 1675 002a 3254     		lw	s0,44(sp)
 1676              		.cfi_restore 8
 1677              		.cfi_def_cfa 2, 48
 1678 002c 4561     		addi	sp,sp,48
 1679              		.cfi_def_cfa_offset 0
 1680 002e 8280     		jr	ra
 1681              		.cfi_endproc
 1682              	.LFE376:
 1684              		.section	.text.fmc_interrupt_flag_clear,"ax",@progbits
 1685              		.align	1
 1686              		.globl	fmc_interrupt_flag_clear
 1688              	fmc_interrupt_flag_clear:
 1689              	.LFB377:
 667:../Firmware/GD32VW55x_standard_peripheral/Source/gd32vw55x_fmc.c **** 
 668:../Firmware/GD32VW55x_standard_peripheral/Source/gd32vw55x_fmc.c **** /*!
 669:../Firmware/GD32VW55x_standard_peripheral/Source/gd32vw55x_fmc.c ****     \brief      clear FMC interrupt flag
 670:../Firmware/GD32VW55x_standard_peripheral/Source/gd32vw55x_fmc.c ****     \param[in]  flag: FMC interrupt flag
 671:../Firmware/GD32VW55x_standard_peripheral/Source/gd32vw55x_fmc.c ****                 only one parameter can be selected which is shown as below:
 672:../Firmware/GD32VW55x_standard_peripheral/Source/gd32vw55x_fmc.c ****       \arg        FMC_INT_FLAG_WPERR: FMC erase/program protection error interrupt flag
 673:../Firmware/GD32VW55x_standard_peripheral/Source/gd32vw55x_fmc.c ****       \arg        FMC_INT_FLAG_END: FMC end of operation interrupt flag
 674:../Firmware/GD32VW55x_standard_peripheral/Source/gd32vw55x_fmc.c ****     \param[out] none
 675:../Firmware/GD32VW55x_standard_peripheral/Source/gd32vw55x_fmc.c ****     \retval     none
 676:../Firmware/GD32VW55x_standard_peripheral/Source/gd32vw55x_fmc.c **** */
 677:../Firmware/GD32VW55x_standard_peripheral/Source/gd32vw55x_fmc.c **** void fmc_interrupt_flag_clear(uint32_t flag)
 678:../Firmware/GD32VW55x_standard_peripheral/Source/gd32vw55x_fmc.c **** {
 1690              		.loc 1 678 1
 1691              		.cfi_startproc
 1692 0000 0111     		addi	sp,sp,-32
 1693              		.cfi_def_cfa_offset 32
 1694 0002 22CE     		sw	s0,28(sp)
 1695              		.cfi_offset 8, -4
 1696 0004 0010     		addi	s0,sp,32
 1697              		.cfi_def_cfa 8, 0
 1698 0006 2326A4FE 		sw	a0,-20(s0)
 679:../Firmware/GD32VW55x_standard_peripheral/Source/gd32vw55x_fmc.c ****     /* clear the flag */
 680:../Firmware/GD32VW55x_standard_peripheral/Source/gd32vw55x_fmc.c ****     FMC_STAT = flag;
 1699              		.loc 1 680 5
 1700 000a B7270240 		li	a5,1073881088
 1701 000e B107     		addi	a5,a5,12
 1702              		.loc 1 680 14
 1703 0010 0327C4FE 		lw	a4,-20(s0)
 1704 0014 98C3     		sw	a4,0(a5)
 681:../Firmware/GD32VW55x_standard_peripheral/Source/gd32vw55x_fmc.c **** }
 1705              		.loc 1 681 1
 1706 0016 0100     		nop
 1707 0018 7244     		lw	s0,28(sp)
 1708              		.cfi_restore 8
 1709              		.cfi_def_cfa 2, 32
 1710 001a 0561     		addi	sp,sp,32
 1711              		.cfi_def_cfa_offset 0
 1712 001c 8280     		jr	ra
 1713              		.cfi_endproc
 1714              	.LFE377:
 1716              		.section	.text.fmc_state_get,"ax",@progbits
 1717              		.align	1
 1719              	fmc_state_get:
 1720              	.LFB378:
 682:../Firmware/GD32VW55x_standard_peripheral/Source/gd32vw55x_fmc.c **** 
 683:../Firmware/GD32VW55x_standard_peripheral/Source/gd32vw55x_fmc.c **** /*!
 684:../Firmware/GD32VW55x_standard_peripheral/Source/gd32vw55x_fmc.c ****     \brief      get the FMC state
 685:../Firmware/GD32VW55x_standard_peripheral/Source/gd32vw55x_fmc.c ****     \param[in]  none
 686:../Firmware/GD32VW55x_standard_peripheral/Source/gd32vw55x_fmc.c ****     \param[out] none
 687:../Firmware/GD32VW55x_standard_peripheral/Source/gd32vw55x_fmc.c ****     \retval     state of FMC
 688:../Firmware/GD32VW55x_standard_peripheral/Source/gd32vw55x_fmc.c ****       \arg        FMC_READY: the operation has been completed
 689:../Firmware/GD32VW55x_standard_peripheral/Source/gd32vw55x_fmc.c ****       \arg        FMC_BUSY: the operation is in progress
 690:../Firmware/GD32VW55x_standard_peripheral/Source/gd32vw55x_fmc.c ****       \arg        FMC_WPERR: erase/program protection error
 691:../Firmware/GD32VW55x_standard_peripheral/Source/gd32vw55x_fmc.c **** */
 692:../Firmware/GD32VW55x_standard_peripheral/Source/gd32vw55x_fmc.c **** static fmc_state_enum fmc_state_get(void)
 693:../Firmware/GD32VW55x_standard_peripheral/Source/gd32vw55x_fmc.c **** {
 1721              		.loc 1 693 1
 1722              		.cfi_startproc
 1723 0000 0111     		addi	sp,sp,-32
 1724              		.cfi_def_cfa_offset 32
 1725 0002 22CE     		sw	s0,28(sp)
 1726              		.cfi_offset 8, -4
 1727 0004 0010     		addi	s0,sp,32
 1728              		.cfi_def_cfa 8, 0
 694:../Firmware/GD32VW55x_standard_peripheral/Source/gd32vw55x_fmc.c ****     fmc_state_enum fmc_state = FMC_READY;
 1729              		.loc 1 694 20
 1730 0006 232604FE 		sw	zero,-20(s0)
 695:../Firmware/GD32VW55x_standard_peripheral/Source/gd32vw55x_fmc.c **** 
 696:../Firmware/GD32VW55x_standard_peripheral/Source/gd32vw55x_fmc.c ****     if((uint32_t) 0x00U != (FMC_STAT & FMC_STAT_BUSY)){
 1731              		.loc 1 696 29
 1732 000a B7270240 		li	a5,1073881088
 1733 000e B107     		addi	a5,a5,12
 1734 0010 9C43     		lw	a5,0(a5)
 1735              		.loc 1 696 38
 1736 0012 858B     		andi	a5,a5,1
 1737              		.loc 1 696 7
 1738 0014 89C7     		beq	a5,zero,.L79
 697:../Firmware/GD32VW55x_standard_peripheral/Source/gd32vw55x_fmc.c ****         fmc_state = FMC_BUSY;
 1739              		.loc 1 697 19
 1740 0016 8547     		li	a5,1
 1741 0018 2326F4FE 		sw	a5,-20(s0)
 1742 001c 11A8     		j	.L80
 1743              	.L79:
 698:../Firmware/GD32VW55x_standard_peripheral/Source/gd32vw55x_fmc.c ****     }else{
 699:../Firmware/GD32VW55x_standard_peripheral/Source/gd32vw55x_fmc.c ****         if((uint32_t) 0x00U != (FMC_STAT & FMC_STAT_WPERR)){
 1744              		.loc 1 699 33
 1745 001e B7270240 		li	a5,1073881088
 1746 0022 B107     		addi	a5,a5,12
 1747 0024 9C43     		lw	a5,0(a5)
 1748              		.loc 1 699 42
 1749 0026 C18B     		andi	a5,a5,16
 1750              		.loc 1 699 11
 1751 0028 81C7     		beq	a5,zero,.L80
 700:../Firmware/GD32VW55x_standard_peripheral/Source/gd32vw55x_fmc.c ****             fmc_state = FMC_WPERR;
 1752              		.loc 1 700 23
 1753 002a 8947     		li	a5,2
 1754 002c 2326F4FE 		sw	a5,-20(s0)
 1755              	.L80:
 701:../Firmware/GD32VW55x_standard_peripheral/Source/gd32vw55x_fmc.c ****         }
 702:../Firmware/GD32VW55x_standard_peripheral/Source/gd32vw55x_fmc.c ****     }
 703:../Firmware/GD32VW55x_standard_peripheral/Source/gd32vw55x_fmc.c ****     /* return the FMC state */
 704:../Firmware/GD32VW55x_standard_peripheral/Source/gd32vw55x_fmc.c ****     return fmc_state;
 1756              		.loc 1 704 12
 1757 0030 8327C4FE 		lw	a5,-20(s0)
 705:../Firmware/GD32VW55x_standard_peripheral/Source/gd32vw55x_fmc.c **** }
 1758              		.loc 1 705 1
 1759 0034 3E85     		mv	a0,a5
 1760 0036 7244     		lw	s0,28(sp)
 1761              		.cfi_restore 8
 1762              		.cfi_def_cfa 2, 32
 1763 0038 0561     		addi	sp,sp,32
 1764              		.cfi_def_cfa_offset 0
 1765 003a 8280     		jr	ra
 1766              		.cfi_endproc
 1767              	.LFE378:
 1769              		.section	.text.fmc_ready_wait,"ax",@progbits
 1770              		.align	1
 1772              	fmc_ready_wait:
 1773              	.LFB379:
 706:../Firmware/GD32VW55x_standard_peripheral/Source/gd32vw55x_fmc.c **** 
 707:../Firmware/GD32VW55x_standard_peripheral/Source/gd32vw55x_fmc.c **** /*!
 708:../Firmware/GD32VW55x_standard_peripheral/Source/gd32vw55x_fmc.c ****     \brief      check whether FMC is ready or not
 709:../Firmware/GD32VW55x_standard_peripheral/Source/gd32vw55x_fmc.c ****     \param[in]  timeout: timeout count
 710:../Firmware/GD32VW55x_standard_peripheral/Source/gd32vw55x_fmc.c ****     \param[out] none
 711:../Firmware/GD32VW55x_standard_peripheral/Source/gd32vw55x_fmc.c ****     \retval     state of FMC
 712:../Firmware/GD32VW55x_standard_peripheral/Source/gd32vw55x_fmc.c ****       \arg        FMC_READY: the operation has been completed
 713:../Firmware/GD32VW55x_standard_peripheral/Source/gd32vw55x_fmc.c ****       \arg        FMC_WPERR: erase/program protection error
 714:../Firmware/GD32VW55x_standard_peripheral/Source/gd32vw55x_fmc.c ****       \arg        FMC_TOERR: timeout error
 715:../Firmware/GD32VW55x_standard_peripheral/Source/gd32vw55x_fmc.c **** */
 716:../Firmware/GD32VW55x_standard_peripheral/Source/gd32vw55x_fmc.c **** static fmc_state_enum fmc_ready_wait(uint32_t timeout)
 717:../Firmware/GD32VW55x_standard_peripheral/Source/gd32vw55x_fmc.c **** {
 1774              		.loc 1 717 1
 1775              		.cfi_startproc
 1776 0000 7971     		addi	sp,sp,-48
 1777              		.cfi_def_cfa_offset 48
 1778 0002 06D6     		sw	ra,44(sp)
 1779 0004 22D4     		sw	s0,40(sp)
 1780              		.cfi_offset 1, -4
 1781              		.cfi_offset 8, -8
 1782 0006 0018     		addi	s0,sp,48
 1783              		.cfi_def_cfa 8, 0
 1784 0008 232EA4FC 		sw	a0,-36(s0)
 718:../Firmware/GD32VW55x_standard_peripheral/Source/gd32vw55x_fmc.c ****     fmc_state_enum fmc_state = FMC_BUSY;
 1785              		.loc 1 718 20
 1786 000c 8547     		li	a5,1
 1787 000e 2326F4FE 		sw	a5,-20(s0)
 1788              	.L84:
 719:../Firmware/GD32VW55x_standard_peripheral/Source/gd32vw55x_fmc.c **** 
 720:../Firmware/GD32VW55x_standard_peripheral/Source/gd32vw55x_fmc.c ****     /* wait for FMC ready */
 721:../Firmware/GD32VW55x_standard_peripheral/Source/gd32vw55x_fmc.c ****     do{
 722:../Firmware/GD32VW55x_standard_peripheral/Source/gd32vw55x_fmc.c ****         /* get FMC state */
 723:../Firmware/GD32VW55x_standard_peripheral/Source/gd32vw55x_fmc.c ****         fmc_state = fmc_state_get();
 1789              		.loc 1 723 21 discriminator 2
 1790 0012 97000000 		call	fmc_state_get
 1790      E7800000 
 1791 001a 2326A4FE 		sw	a0,-20(s0)
 724:../Firmware/GD32VW55x_standard_peripheral/Source/gd32vw55x_fmc.c ****         timeout--;
 1792              		.loc 1 724 16 discriminator 2
 1793 001e 8327C4FD 		lw	a5,-36(s0)
 1794 0022 FD17     		addi	a5,a5,-1
 1795 0024 232EF4FC 		sw	a5,-36(s0)
 725:../Firmware/GD32VW55x_standard_peripheral/Source/gd32vw55x_fmc.c ****     }while((FMC_BUSY == fmc_state) && (0x00U != timeout));
 1796              		.loc 1 725 5 discriminator 2
 1797 0028 0327C4FE 		lw	a4,-20(s0)
 1798 002c 8547     		li	a5,1
 1799 002e 6315F700 		bne	a4,a5,.L83
 1800              		.loc 1 725 36 discriminator 1
 1801 0032 8327C4FD 		lw	a5,-36(s0)
 1802 0036 F1FF     		bne	a5,zero,.L84
 1803              	.L83:
 726:../Firmware/GD32VW55x_standard_peripheral/Source/gd32vw55x_fmc.c **** 
 727:../Firmware/GD32VW55x_standard_peripheral/Source/gd32vw55x_fmc.c ****     if (FMC_BUSY == fmc_state){
 1804              		.loc 1 727 8
 1805 0038 0327C4FE 		lw	a4,-20(s0)
 1806 003c 8547     		li	a5,1
 1807 003e 6315F700 		bne	a4,a5,.L85
 728:../Firmware/GD32VW55x_standard_peripheral/Source/gd32vw55x_fmc.c ****         fmc_state = FMC_TOERR;
 1808              		.loc 1 728 19
 1809 0042 8D47     		li	a5,3
 1810 0044 2326F4FE 		sw	a5,-20(s0)
 1811              	.L85:
 729:../Firmware/GD32VW55x_standard_peripheral/Source/gd32vw55x_fmc.c ****     }
 730:../Firmware/GD32VW55x_standard_peripheral/Source/gd32vw55x_fmc.c **** 
 731:../Firmware/GD32VW55x_standard_peripheral/Source/gd32vw55x_fmc.c ****     /* return the FMC state */
 732:../Firmware/GD32VW55x_standard_peripheral/Source/gd32vw55x_fmc.c ****     return fmc_state;
 1812              		.loc 1 732 12
 1813 0048 8327C4FE 		lw	a5,-20(s0)
 733:../Firmware/GD32VW55x_standard_peripheral/Source/gd32vw55x_fmc.c **** }
 1814              		.loc 1 733 1
 1815 004c 3E85     		mv	a0,a5
 1816 004e B250     		lw	ra,44(sp)
 1817              		.cfi_restore 1
 1818 0050 2254     		lw	s0,40(sp)
 1819              		.cfi_restore 8
 1820              		.cfi_def_cfa 2, 48
 1821 0052 4561     		addi	sp,sp,48
 1822              		.cfi_def_cfa_offset 0
 1823 0054 8280     		jr	ra
 1824              		.cfi_endproc
 1825              	.LFE379:
 1827              		.text
 1828              	.Letext0:
 1829              		.file 2 "e:\\gd32\\gd32embeddedbuilder_v1.5.2.30854\\tools\\nuclei_riscv_newlibc_prebuilt_win32_20
 1830              		.file 3 "e:\\gd32\\gd32embeddedbuilder_v1.5.2.30854\\tools\\nuclei_riscv_newlibc_prebuilt_win32_20
 1831              		.file 4 "../Firmware/GD32VW55x_standard_peripheral/gd32vw55x.h"
 1832              		.file 5 "../Firmware/GD32VW55x_standard_peripheral/Include/gd32vw55x_fmc.h"
DEFINED SYMBOLS
                            *ABS*:0000000000000000 gd32vw55x_fmc.c
C:\Users\CYMR90~1\AppData\Local\Temp\ccBEkVPc.s:13     .text.fmc_unlock:0000000000000000 fmc_unlock
C:\Users\CYMR90~1\AppData\Local\Temp\ccBEkVPc.s:17     .text.fmc_unlock:0000000000000000 .L0 
C:\Users\CYMR90~1\AppData\Local\Temp\ccBEkVPc.s:18     .text.fmc_unlock:0000000000000000 .L0 
C:\Users\CYMR90~1\AppData\Local\Temp\ccBEkVPc.s:19     .text.fmc_unlock:0000000000000002 .L0 
C:\Users\CYMR90~1\AppData\Local\Temp\ccBEkVPc.s:21     .text.fmc_unlock:0000000000000004 .L0 
C:\Users\CYMR90~1\AppData\Local\Temp\ccBEkVPc.s:23     .text.fmc_unlock:0000000000000006 .L0 
C:\Users\CYMR90~1\AppData\Local\Temp\ccBEkVPc.s:25     .text.fmc_unlock:0000000000000006 .L0 
C:\Users\CYMR90~1\AppData\Local\Temp\ccBEkVPc.s:29     .text.fmc_unlock:000000000000000e .L0 
C:\Users\CYMR90~1\AppData\Local\Temp\ccBEkVPc.s:31     .text.fmc_unlock:0000000000000012 .L0 
C:\Users\CYMR90~1\AppData\Local\Temp\ccBEkVPc.s:33     .text.fmc_unlock:0000000000000014 .L0 
C:\Users\CYMR90~1\AppData\Local\Temp\ccBEkVPc.s:36     .text.fmc_unlock:000000000000001a .L0 
C:\Users\CYMR90~1\AppData\Local\Temp\ccBEkVPc.s:40     .text.fmc_unlock:0000000000000024 .L0 
C:\Users\CYMR90~1\AppData\Local\Temp\ccBEkVPc.s:43     .text.fmc_unlock:000000000000002a .L0 
C:\Users\CYMR90~1\AppData\Local\Temp\ccBEkVPc.s:48     .text.fmc_unlock:0000000000000034 .L0 
C:\Users\CYMR90~1\AppData\Local\Temp\ccBEkVPc.s:50     .text.fmc_unlock:0000000000000038 .L0 
C:\Users\CYMR90~1\AppData\Local\Temp\ccBEkVPc.s:51     .text.fmc_unlock:0000000000000038 .L0 
C:\Users\CYMR90~1\AppData\Local\Temp\ccBEkVPc.s:53     .text.fmc_unlock:000000000000003a .L0 
C:\Users\CYMR90~1\AppData\Local\Temp\ccBEkVPc.s:55     .text.fmc_unlock:000000000000003c .L0 
C:\Users\CYMR90~1\AppData\Local\Temp\ccBEkVPc.s:62     .text.fmc_lock:0000000000000000 fmc_lock
C:\Users\CYMR90~1\AppData\Local\Temp\ccBEkVPc.s:65     .text.fmc_lock:0000000000000000 .L0 
C:\Users\CYMR90~1\AppData\Local\Temp\ccBEkVPc.s:66     .text.fmc_lock:0000000000000000 .L0 
C:\Users\CYMR90~1\AppData\Local\Temp\ccBEkVPc.s:67     .text.fmc_lock:0000000000000002 .L0 
C:\Users\CYMR90~1\AppData\Local\Temp\ccBEkVPc.s:69     .text.fmc_lock:0000000000000004 .L0 
C:\Users\CYMR90~1\AppData\Local\Temp\ccBEkVPc.s:71     .text.fmc_lock:0000000000000006 .L0 
C:\Users\CYMR90~1\AppData\Local\Temp\ccBEkVPc.s:73     .text.fmc_lock:0000000000000006 .L0 
C:\Users\CYMR90~1\AppData\Local\Temp\ccBEkVPc.s:81     .text.fmc_lock:000000000000001a .L0 
C:\Users\CYMR90~1\AppData\Local\Temp\ccBEkVPc.s:83     .text.fmc_lock:000000000000001e .L0 
C:\Users\CYMR90~1\AppData\Local\Temp\ccBEkVPc.s:84     .text.fmc_lock:000000000000001e .L0 
C:\Users\CYMR90~1\AppData\Local\Temp\ccBEkVPc.s:86     .text.fmc_lock:0000000000000020 .L0 
C:\Users\CYMR90~1\AppData\Local\Temp\ccBEkVPc.s:88     .text.fmc_lock:0000000000000022 .L0 
C:\Users\CYMR90~1\AppData\Local\Temp\ccBEkVPc.s:95     .text.fmc_page_erase:0000000000000000 fmc_page_erase
C:\Users\CYMR90~1\AppData\Local\Temp\ccBEkVPc.s:98     .text.fmc_page_erase:0000000000000000 .L0 
C:\Users\CYMR90~1\AppData\Local\Temp\ccBEkVPc.s:99     .text.fmc_page_erase:0000000000000000 .L0 
C:\Users\CYMR90~1\AppData\Local\Temp\ccBEkVPc.s:100    .text.fmc_page_erase:0000000000000002 .L0 
C:\Users\CYMR90~1\AppData\Local\Temp\ccBEkVPc.s:103    .text.fmc_page_erase:0000000000000006 .L0 
C:\Users\CYMR90~1\AppData\Local\Temp\ccBEkVPc.s:104    .text.fmc_page_erase:0000000000000006 .L0 
C:\Users\CYMR90~1\AppData\Local\Temp\ccBEkVPc.s:106    .text.fmc_page_erase:0000000000000008 .L0 
C:\Users\CYMR90~1\AppData\Local\Temp\ccBEkVPc.s:109    .text.fmc_page_erase:000000000000000c .L0 
C:\Users\CYMR90~1\AppData\Local\Temp\ccBEkVPc.s:111    .text.fmc_page_erase:0000000000000010 .L0 
C:\Users\CYMR90~1\AppData\Local\Temp\ccBEkVPc.s:1772   .text.fmc_ready_wait:0000000000000000 fmc_ready_wait
C:\Users\CYMR90~1\AppData\Local\Temp\ccBEkVPc.s:115    .text.fmc_page_erase:0000000000000020 .L0 
C:\Users\CYMR90~1\AppData\Local\Temp\ccBEkVPc.s:118    .text.fmc_page_erase:0000000000000026 .L0 
C:\Users\CYMR90~1\AppData\Local\Temp\ccBEkVPc.s:126    .text.fmc_page_erase:000000000000003a .L0 
C:\Users\CYMR90~1\AppData\Local\Temp\ccBEkVPc.s:129    .text.fmc_page_erase:0000000000000040 .L0 
C:\Users\CYMR90~1\AppData\Local\Temp\ccBEkVPc.s:132    .text.fmc_page_erase:0000000000000046 .L0 
C:\Users\CYMR90~1\AppData\Local\Temp\ccBEkVPc.s:140    .text.fmc_page_erase:000000000000005a .L0 
C:\Users\CYMR90~1\AppData\Local\Temp\ccBEkVPc.s:144    .text.fmc_page_erase:000000000000006a .L0 
C:\Users\CYMR90~1\AppData\Local\Temp\ccBEkVPc.s:153    .text.fmc_page_erase:000000000000007c .L0 
C:\Users\CYMR90~1\AppData\Local\Temp\ccBEkVPc.s:155    .text.fmc_page_erase:0000000000000080 .L0 
C:\Users\CYMR90~1\AppData\Local\Temp\ccBEkVPc.s:157    .text.fmc_page_erase:0000000000000084 .L0 
C:\Users\CYMR90~1\AppData\Local\Temp\ccBEkVPc.s:159    .text.fmc_page_erase:0000000000000086 .L0 
C:\Users\CYMR90~1\AppData\Local\Temp\ccBEkVPc.s:160    .text.fmc_page_erase:0000000000000086 .L0 
C:\Users\CYMR90~1\AppData\Local\Temp\ccBEkVPc.s:162    .text.fmc_page_erase:0000000000000088 .L0 
C:\Users\CYMR90~1\AppData\Local\Temp\ccBEkVPc.s:164    .text.fmc_page_erase:000000000000008a .L0 
C:\Users\CYMR90~1\AppData\Local\Temp\ccBEkVPc.s:171    .text.fmc_mass_erase:0000000000000000 fmc_mass_erase
C:\Users\CYMR90~1\AppData\Local\Temp\ccBEkVPc.s:174    .text.fmc_mass_erase:0000000000000000 .L0 
C:\Users\CYMR90~1\AppData\Local\Temp\ccBEkVPc.s:175    .text.fmc_mass_erase:0000000000000000 .L0 
C:\Users\CYMR90~1\AppData\Local\Temp\ccBEkVPc.s:176    .text.fmc_mass_erase:0000000000000002 .L0 
C:\Users\CYMR90~1\AppData\Local\Temp\ccBEkVPc.s:179    .text.fmc_mass_erase:0000000000000006 .L0 
C:\Users\CYMR90~1\AppData\Local\Temp\ccBEkVPc.s:180    .text.fmc_mass_erase:0000000000000006 .L0 
C:\Users\CYMR90~1\AppData\Local\Temp\ccBEkVPc.s:182    .text.fmc_mass_erase:0000000000000008 .L0 
C:\Users\CYMR90~1\AppData\Local\Temp\ccBEkVPc.s:184    .text.fmc_mass_erase:0000000000000008 .L0 
C:\Users\CYMR90~1\AppData\Local\Temp\ccBEkVPc.s:186    .text.fmc_mass_erase:000000000000000c .L0 
C:\Users\CYMR90~1\AppData\Local\Temp\ccBEkVPc.s:190    .text.fmc_mass_erase:000000000000001c .L0 
C:\Users\CYMR90~1\AppData\Local\Temp\ccBEkVPc.s:193    .text.fmc_mass_erase:0000000000000022 .L0 
C:\Users\CYMR90~1\AppData\Local\Temp\ccBEkVPc.s:201    .text.fmc_mass_erase:0000000000000036 .L0 
C:\Users\CYMR90~1\AppData\Local\Temp\ccBEkVPc.s:209    .text.fmc_mass_erase:000000000000004a .L0 
C:\Users\CYMR90~1\AppData\Local\Temp\ccBEkVPc.s:213    .text.fmc_mass_erase:000000000000005a .L0 
C:\Users\CYMR90~1\AppData\Local\Temp\ccBEkVPc.s:222    .text.fmc_mass_erase:000000000000006c .L0 
C:\Users\CYMR90~1\AppData\Local\Temp\ccBEkVPc.s:224    .text.fmc_mass_erase:0000000000000070 .L0 
C:\Users\CYMR90~1\AppData\Local\Temp\ccBEkVPc.s:226    .text.fmc_mass_erase:0000000000000074 .L0 
C:\Users\CYMR90~1\AppData\Local\Temp\ccBEkVPc.s:228    .text.fmc_mass_erase:0000000000000076 .L0 
C:\Users\CYMR90~1\AppData\Local\Temp\ccBEkVPc.s:229    .text.fmc_mass_erase:0000000000000076 .L0 
C:\Users\CYMR90~1\AppData\Local\Temp\ccBEkVPc.s:231    .text.fmc_mass_erase:0000000000000078 .L0 
C:\Users\CYMR90~1\AppData\Local\Temp\ccBEkVPc.s:233    .text.fmc_mass_erase:000000000000007a .L0 
C:\Users\CYMR90~1\AppData\Local\Temp\ccBEkVPc.s:240    .text.fmc_word_program:0000000000000000 fmc_word_program
C:\Users\CYMR90~1\AppData\Local\Temp\ccBEkVPc.s:243    .text.fmc_word_program:0000000000000000 .L0 
C:\Users\CYMR90~1\AppData\Local\Temp\ccBEkVPc.s:244    .text.fmc_word_program:0000000000000000 .L0 
C:\Users\CYMR90~1\AppData\Local\Temp\ccBEkVPc.s:245    .text.fmc_word_program:0000000000000002 .L0 
C:\Users\CYMR90~1\AppData\Local\Temp\ccBEkVPc.s:248    .text.fmc_word_program:0000000000000006 .L0 
C:\Users\CYMR90~1\AppData\Local\Temp\ccBEkVPc.s:249    .text.fmc_word_program:0000000000000006 .L0 
C:\Users\CYMR90~1\AppData\Local\Temp\ccBEkVPc.s:251    .text.fmc_word_program:0000000000000008 .L0 
C:\Users\CYMR90~1\AppData\Local\Temp\ccBEkVPc.s:255    .text.fmc_word_program:0000000000000010 .L0 
C:\Users\CYMR90~1\AppData\Local\Temp\ccBEkVPc.s:257    .text.fmc_word_program:0000000000000014 .L0 
C:\Users\CYMR90~1\AppData\Local\Temp\ccBEkVPc.s:261    .text.fmc_word_program:0000000000000024 .L0 
C:\Users\CYMR90~1\AppData\Local\Temp\ccBEkVPc.s:264    .text.fmc_word_program:000000000000002a .L0 
C:\Users\CYMR90~1\AppData\Local\Temp\ccBEkVPc.s:272    .text.fmc_word_program:000000000000003e .L0 
C:\Users\CYMR90~1\AppData\Local\Temp\ccBEkVPc.s:274    .text.fmc_word_program:0000000000000042 .L0 
C:\Users\CYMR90~1\AppData\Local\Temp\ccBEkVPc.s:277    .text.fmc_word_program:0000000000000048 .L0 
C:\Users\CYMR90~1\AppData\Local\Temp\ccBEkVPc.s:281    .text.fmc_word_program:0000000000000058 .L0 
C:\Users\CYMR90~1\AppData\Local\Temp\ccBEkVPc.s:290    .text.fmc_word_program:000000000000006a .L0 
C:\Users\CYMR90~1\AppData\Local\Temp\ccBEkVPc.s:292    .text.fmc_word_program:000000000000006e .L0 
C:\Users\CYMR90~1\AppData\Local\Temp\ccBEkVPc.s:294    .text.fmc_word_program:0000000000000072 .L0 
C:\Users\CYMR90~1\AppData\Local\Temp\ccBEkVPc.s:296    .text.fmc_word_program:0000000000000074 .L0 
C:\Users\CYMR90~1\AppData\Local\Temp\ccBEkVPc.s:297    .text.fmc_word_program:0000000000000074 .L0 
C:\Users\CYMR90~1\AppData\Local\Temp\ccBEkVPc.s:299    .text.fmc_word_program:0000000000000076 .L0 
C:\Users\CYMR90~1\AppData\Local\Temp\ccBEkVPc.s:301    .text.fmc_word_program:0000000000000078 .L0 
C:\Users\CYMR90~1\AppData\Local\Temp\ccBEkVPc.s:308    .text.fmc_continuous_program:0000000000000000 fmc_continuous_program
C:\Users\CYMR90~1\AppData\Local\Temp\ccBEkVPc.s:311    .text.fmc_continuous_program:0000000000000000 .L0 
C:\Users\CYMR90~1\AppData\Local\Temp\ccBEkVPc.s:312    .text.fmc_continuous_program:0000000000000000 .L0 
C:\Users\CYMR90~1\AppData\Local\Temp\ccBEkVPc.s:313    .text.fmc_continuous_program:0000000000000002 .L0 
C:\Users\CYMR90~1\AppData\Local\Temp\ccBEkVPc.s:316    .text.fmc_continuous_program:0000000000000006 .L0 
C:\Users\CYMR90~1\AppData\Local\Temp\ccBEkVPc.s:317    .text.fmc_continuous_program:0000000000000006 .L0 
C:\Users\CYMR90~1\AppData\Local\Temp\ccBEkVPc.s:319    .text.fmc_continuous_program:0000000000000008 .L0 
C:\Users\CYMR90~1\AppData\Local\Temp\ccBEkVPc.s:324    .text.fmc_continuous_program:0000000000000014 .L0 
C:\Users\CYMR90~1\AppData\Local\Temp\ccBEkVPc.s:326    .text.fmc_continuous_program:0000000000000018 .L0 
C:\Users\CYMR90~1\AppData\Local\Temp\ccBEkVPc.s:330    .text.fmc_continuous_program:0000000000000028 .L0 
C:\Users\CYMR90~1\AppData\Local\Temp\ccBEkVPc.s:333    .text.fmc_continuous_program:000000000000002e .L0 
C:\Users\CYMR90~1\AppData\Local\Temp\ccBEkVPc.s:342    .text.fmc_continuous_program:0000000000000042 .L0 
C:\Users\CYMR90~1\AppData\Local\Temp\ccBEkVPc.s:344    .text.fmc_continuous_program:0000000000000046 .L0 
C:\Users\CYMR90~1\AppData\Local\Temp\ccBEkVPc.s:347    .text.fmc_continuous_program:0000000000000048 .L0 
C:\Users\CYMR90~1\AppData\Local\Temp\ccBEkVPc.s:352    .text.fmc_continuous_program:0000000000000054 .L0 
C:\Users\CYMR90~1\AppData\Local\Temp\ccBEkVPc.s:354    .text.fmc_continuous_program:0000000000000058 .L0 
C:\Users\CYMR90~1\AppData\Local\Temp\ccBEkVPc.s:356    .text.fmc_continuous_program:000000000000005a .L0 
C:\Users\CYMR90~1\AppData\Local\Temp\ccBEkVPc.s:358    .text.fmc_continuous_program:000000000000005c .L0 
C:\Users\CYMR90~1\AppData\Local\Temp\ccBEkVPc.s:362    .text.fmc_continuous_program:0000000000000066 .L0 
C:\Users\CYMR90~1\AppData\Local\Temp\ccBEkVPc.s:367    .text.fmc_continuous_program:0000000000000070 .L0 
C:\Users\CYMR90~1\AppData\Local\Temp\ccBEkVPc.s:372    .text.fmc_continuous_program:000000000000007c .L0 
C:\Users\CYMR90~1\AppData\Local\Temp\ccBEkVPc.s:381    .text.fmc_continuous_program:000000000000008e .L0 
C:\Users\CYMR90~1\AppData\Local\Temp\ccBEkVPc.s:383    .text.fmc_continuous_program:0000000000000092 .L0 
C:\Users\CYMR90~1\AppData\Local\Temp\ccBEkVPc.s:385    .text.fmc_continuous_program:0000000000000096 .L0 
C:\Users\CYMR90~1\AppData\Local\Temp\ccBEkVPc.s:387    .text.fmc_continuous_program:0000000000000098 .L0 
C:\Users\CYMR90~1\AppData\Local\Temp\ccBEkVPc.s:388    .text.fmc_continuous_program:0000000000000098 .L0 
C:\Users\CYMR90~1\AppData\Local\Temp\ccBEkVPc.s:390    .text.fmc_continuous_program:000000000000009a .L0 
C:\Users\CYMR90~1\AppData\Local\Temp\ccBEkVPc.s:392    .text.fmc_continuous_program:000000000000009c .L0 
C:\Users\CYMR90~1\AppData\Local\Temp\ccBEkVPc.s:399    .text.fmc_obr_function_enable:0000000000000000 fmc_obr_function_enable
C:\Users\CYMR90~1\AppData\Local\Temp\ccBEkVPc.s:402    .text.fmc_obr_function_enable:0000000000000000 .L0 
C:\Users\CYMR90~1\AppData\Local\Temp\ccBEkVPc.s:403    .text.fmc_obr_function_enable:0000000000000000 .L0 
C:\Users\CYMR90~1\AppData\Local\Temp\ccBEkVPc.s:404    .text.fmc_obr_function_enable:0000000000000002 .L0 
C:\Users\CYMR90~1\AppData\Local\Temp\ccBEkVPc.s:406    .text.fmc_obr_function_enable:0000000000000004 .L0 
C:\Users\CYMR90~1\AppData\Local\Temp\ccBEkVPc.s:408    .text.fmc_obr_function_enable:0000000000000006 .L0 
C:\Users\CYMR90~1\AppData\Local\Temp\ccBEkVPc.s:411    .text.fmc_obr_function_enable:000000000000000a .L0 
C:\Users\CYMR90~1\AppData\Local\Temp\ccBEkVPc.s:420    .text.fmc_obr_function_enable:0000000000000024 .L0 
C:\Users\CYMR90~1\AppData\Local\Temp\ccBEkVPc.s:422    .text.fmc_obr_function_enable:0000000000000028 .L0 
C:\Users\CYMR90~1\AppData\Local\Temp\ccBEkVPc.s:423    .text.fmc_obr_function_enable:0000000000000028 .L0 
C:\Users\CYMR90~1\AppData\Local\Temp\ccBEkVPc.s:425    .text.fmc_obr_function_enable:000000000000002a .L0 
C:\Users\CYMR90~1\AppData\Local\Temp\ccBEkVPc.s:427    .text.fmc_obr_function_enable:000000000000002c .L0 
C:\Users\CYMR90~1\AppData\Local\Temp\ccBEkVPc.s:434    .text.fmc_obr_function_disable:0000000000000000 fmc_obr_function_disable
C:\Users\CYMR90~1\AppData\Local\Temp\ccBEkVPc.s:437    .text.fmc_obr_function_disable:0000000000000000 .L0 
C:\Users\CYMR90~1\AppData\Local\Temp\ccBEkVPc.s:438    .text.fmc_obr_function_disable:0000000000000000 .L0 
C:\Users\CYMR90~1\AppData\Local\Temp\ccBEkVPc.s:439    .text.fmc_obr_function_disable:0000000000000002 .L0 
C:\Users\CYMR90~1\AppData\Local\Temp\ccBEkVPc.s:441    .text.fmc_obr_function_disable:0000000000000004 .L0 
C:\Users\CYMR90~1\AppData\Local\Temp\ccBEkVPc.s:443    .text.fmc_obr_function_disable:0000000000000006 .L0 
C:\Users\CYMR90~1\AppData\Local\Temp\ccBEkVPc.s:446    .text.fmc_obr_function_disable:000000000000000a .L0 
C:\Users\CYMR90~1\AppData\Local\Temp\ccBEkVPc.s:450    .text.fmc_obr_function_disable:0000000000000014 .L0 
C:\Users\CYMR90~1\AppData\Local\Temp\ccBEkVPc.s:453    .text.fmc_obr_function_disable:000000000000001c .L0 
C:\Users\CYMR90~1\AppData\Local\Temp\ccBEkVPc.s:458    .text.fmc_obr_function_disable:0000000000000028 .L0 
C:\Users\CYMR90~1\AppData\Local\Temp\ccBEkVPc.s:460    .text.fmc_obr_function_disable:000000000000002c .L0 
C:\Users\CYMR90~1\AppData\Local\Temp\ccBEkVPc.s:461    .text.fmc_obr_function_disable:000000000000002c .L0 
C:\Users\CYMR90~1\AppData\Local\Temp\ccBEkVPc.s:463    .text.fmc_obr_function_disable:000000000000002e .L0 
C:\Users\CYMR90~1\AppData\Local\Temp\ccBEkVPc.s:465    .text.fmc_obr_function_disable:0000000000000030 .L0 
C:\Users\CYMR90~1\AppData\Local\Temp\ccBEkVPc.s:472    .text.ob_unlock:0000000000000000 ob_unlock
C:\Users\CYMR90~1\AppData\Local\Temp\ccBEkVPc.s:475    .text.ob_unlock:0000000000000000 .L0 
C:\Users\CYMR90~1\AppData\Local\Temp\ccBEkVPc.s:476    .text.ob_unlock:0000000000000000 .L0 
C:\Users\CYMR90~1\AppData\Local\Temp\ccBEkVPc.s:477    .text.ob_unlock:0000000000000002 .L0 
C:\Users\CYMR90~1\AppData\Local\Temp\ccBEkVPc.s:479    .text.ob_unlock:0000000000000004 .L0 
C:\Users\CYMR90~1\AppData\Local\Temp\ccBEkVPc.s:481    .text.ob_unlock:0000000000000006 .L0 
C:\Users\CYMR90~1\AppData\Local\Temp\ccBEkVPc.s:483    .text.ob_unlock:0000000000000006 .L0 
C:\Users\CYMR90~1\AppData\Local\Temp\ccBEkVPc.s:487    .text.ob_unlock:000000000000000e .L0 
C:\Users\CYMR90~1\AppData\Local\Temp\ccBEkVPc.s:489    .text.ob_unlock:0000000000000012 .L0 
C:\Users\CYMR90~1\AppData\Local\Temp\ccBEkVPc.s:491    .text.ob_unlock:0000000000000014 .L0 
C:\Users\CYMR90~1\AppData\Local\Temp\ccBEkVPc.s:494    .text.ob_unlock:000000000000001a .L0 
C:\Users\CYMR90~1\AppData\Local\Temp\ccBEkVPc.s:498    .text.ob_unlock:0000000000000024 .L0 
C:\Users\CYMR90~1\AppData\Local\Temp\ccBEkVPc.s:501    .text.ob_unlock:000000000000002a .L0 
C:\Users\CYMR90~1\AppData\Local\Temp\ccBEkVPc.s:506    .text.ob_unlock:0000000000000034 .L0 
C:\Users\CYMR90~1\AppData\Local\Temp\ccBEkVPc.s:508    .text.ob_unlock:0000000000000038 .L0 
C:\Users\CYMR90~1\AppData\Local\Temp\ccBEkVPc.s:509    .text.ob_unlock:0000000000000038 .L0 
C:\Users\CYMR90~1\AppData\Local\Temp\ccBEkVPc.s:511    .text.ob_unlock:000000000000003a .L0 
C:\Users\CYMR90~1\AppData\Local\Temp\ccBEkVPc.s:513    .text.ob_unlock:000000000000003c .L0 
C:\Users\CYMR90~1\AppData\Local\Temp\ccBEkVPc.s:520    .text.ob_lock:0000000000000000 ob_lock
C:\Users\CYMR90~1\AppData\Local\Temp\ccBEkVPc.s:523    .text.ob_lock:0000000000000000 .L0 
C:\Users\CYMR90~1\AppData\Local\Temp\ccBEkVPc.s:524    .text.ob_lock:0000000000000000 .L0 
C:\Users\CYMR90~1\AppData\Local\Temp\ccBEkVPc.s:525    .text.ob_lock:0000000000000002 .L0 
C:\Users\CYMR90~1\AppData\Local\Temp\ccBEkVPc.s:527    .text.ob_lock:0000000000000004 .L0 
C:\Users\CYMR90~1\AppData\Local\Temp\ccBEkVPc.s:529    .text.ob_lock:0000000000000006 .L0 
C:\Users\CYMR90~1\AppData\Local\Temp\ccBEkVPc.s:531    .text.ob_lock:0000000000000006 .L0 
C:\Users\CYMR90~1\AppData\Local\Temp\ccBEkVPc.s:539    .text.ob_lock:000000000000001a .L0 
C:\Users\CYMR90~1\AppData\Local\Temp\ccBEkVPc.s:541    .text.ob_lock:000000000000001e .L0 
C:\Users\CYMR90~1\AppData\Local\Temp\ccBEkVPc.s:542    .text.ob_lock:000000000000001e .L0 
C:\Users\CYMR90~1\AppData\Local\Temp\ccBEkVPc.s:544    .text.ob_lock:0000000000000020 .L0 
C:\Users\CYMR90~1\AppData\Local\Temp\ccBEkVPc.s:546    .text.ob_lock:0000000000000022 .L0 
C:\Users\CYMR90~1\AppData\Local\Temp\ccBEkVPc.s:553    .text.ob_start:0000000000000000 ob_start
C:\Users\CYMR90~1\AppData\Local\Temp\ccBEkVPc.s:556    .text.ob_start:0000000000000000 .L0 
C:\Users\CYMR90~1\AppData\Local\Temp\ccBEkVPc.s:557    .text.ob_start:0000000000000000 .L0 
C:\Users\CYMR90~1\AppData\Local\Temp\ccBEkVPc.s:558    .text.ob_start:0000000000000002 .L0 
C:\Users\CYMR90~1\AppData\Local\Temp\ccBEkVPc.s:560    .text.ob_start:0000000000000004 .L0 
C:\Users\CYMR90~1\AppData\Local\Temp\ccBEkVPc.s:562    .text.ob_start:0000000000000006 .L0 
C:\Users\CYMR90~1\AppData\Local\Temp\ccBEkVPc.s:564    .text.ob_start:0000000000000006 .L0 
C:\Users\CYMR90~1\AppData\Local\Temp\ccBEkVPc.s:574    .text.ob_start:000000000000001e .L0 
C:\Users\CYMR90~1\AppData\Local\Temp\ccBEkVPc.s:576    .text.ob_start:0000000000000022 .L0 
C:\Users\CYMR90~1\AppData\Local\Temp\ccBEkVPc.s:577    .text.ob_start:0000000000000022 .L0 
C:\Users\CYMR90~1\AppData\Local\Temp\ccBEkVPc.s:579    .text.ob_start:0000000000000024 .L0 
C:\Users\CYMR90~1\AppData\Local\Temp\ccBEkVPc.s:581    .text.ob_start:0000000000000026 .L0 
C:\Users\CYMR90~1\AppData\Local\Temp\ccBEkVPc.s:588    .text.ob_reload:0000000000000000 ob_reload
C:\Users\CYMR90~1\AppData\Local\Temp\ccBEkVPc.s:591    .text.ob_reload:0000000000000000 .L0 
C:\Users\CYMR90~1\AppData\Local\Temp\ccBEkVPc.s:592    .text.ob_reload:0000000000000000 .L0 
C:\Users\CYMR90~1\AppData\Local\Temp\ccBEkVPc.s:593    .text.ob_reload:0000000000000002 .L0 
C:\Users\CYMR90~1\AppData\Local\Temp\ccBEkVPc.s:595    .text.ob_reload:0000000000000004 .L0 
C:\Users\CYMR90~1\AppData\Local\Temp\ccBEkVPc.s:597    .text.ob_reload:0000000000000006 .L0 
C:\Users\CYMR90~1\AppData\Local\Temp\ccBEkVPc.s:599    .text.ob_reload:0000000000000006 .L0 
C:\Users\CYMR90~1\AppData\Local\Temp\ccBEkVPc.s:608    .text.ob_reload:000000000000001a .L0 
C:\Users\CYMR90~1\AppData\Local\Temp\ccBEkVPc.s:610    .text.ob_reload:000000000000001e .L0 
C:\Users\CYMR90~1\AppData\Local\Temp\ccBEkVPc.s:611    .text.ob_reload:000000000000001e .L0 
C:\Users\CYMR90~1\AppData\Local\Temp\ccBEkVPc.s:613    .text.ob_reload:0000000000000020 .L0 
C:\Users\CYMR90~1\AppData\Local\Temp\ccBEkVPc.s:615    .text.ob_reload:0000000000000022 .L0 
C:\Users\CYMR90~1\AppData\Local\Temp\ccBEkVPc.s:622    .text.ob_security_protection_config:0000000000000000 ob_security_protection_config
C:\Users\CYMR90~1\AppData\Local\Temp\ccBEkVPc.s:625    .text.ob_security_protection_config:0000000000000000 .L0 
C:\Users\CYMR90~1\AppData\Local\Temp\ccBEkVPc.s:626    .text.ob_security_protection_config:0000000000000000 .L0 
C:\Users\CYMR90~1\AppData\Local\Temp\ccBEkVPc.s:627    .text.ob_security_protection_config:0000000000000002 .L0 
C:\Users\CYMR90~1\AppData\Local\Temp\ccBEkVPc.s:630    .text.ob_security_protection_config:0000000000000006 .L0 
C:\Users\CYMR90~1\AppData\Local\Temp\ccBEkVPc.s:631    .text.ob_security_protection_config:0000000000000006 .L0 
C:\Users\CYMR90~1\AppData\Local\Temp\ccBEkVPc.s:633    .text.ob_security_protection_config:0000000000000008 .L0 
C:\Users\CYMR90~1\AppData\Local\Temp\ccBEkVPc.s:637    .text.ob_security_protection_config:000000000000000e .L0 
C:\Users\CYMR90~1\AppData\Local\Temp\ccBEkVPc.s:641    .text.ob_security_protection_config:000000000000001e .L0 
C:\Users\CYMR90~1\AppData\Local\Temp\ccBEkVPc.s:644    .text.ob_security_protection_config:0000000000000024 .L0 
C:\Users\CYMR90~1\AppData\Local\Temp\ccBEkVPc.s:652    .text.ob_security_protection_config:000000000000003c .L0 
C:\Users\CYMR90~1\AppData\Local\Temp\ccBEkVPc.s:661    .text.ob_security_protection_config:0000000000000056 .L0 
C:\Users\CYMR90~1\AppData\Local\Temp\ccBEkVPc.s:670    .text.ob_security_protection_config:000000000000006a .L0 
C:\Users\CYMR90~1\AppData\Local\Temp\ccBEkVPc.s:675    .text.ob_security_protection_config:000000000000007a .L0 
C:\Users\CYMR90~1\AppData\Local\Temp\ccBEkVPc.s:677    .text.ob_security_protection_config:000000000000007e .L0 
C:\Users\CYMR90~1\AppData\Local\Temp\ccBEkVPc.s:679    .text.ob_security_protection_config:0000000000000082 .L0 
C:\Users\CYMR90~1\AppData\Local\Temp\ccBEkVPc.s:681    .text.ob_security_protection_config:0000000000000084 .L0 
C:\Users\CYMR90~1\AppData\Local\Temp\ccBEkVPc.s:682    .text.ob_security_protection_config:0000000000000084 .L0 
C:\Users\CYMR90~1\AppData\Local\Temp\ccBEkVPc.s:684    .text.ob_security_protection_config:0000000000000086 .L0 
C:\Users\CYMR90~1\AppData\Local\Temp\ccBEkVPc.s:686    .text.ob_security_protection_config:0000000000000088 .L0 
C:\Users\CYMR90~1\AppData\Local\Temp\ccBEkVPc.s:693    .text.ob_user_write:0000000000000000 ob_user_write
C:\Users\CYMR90~1\AppData\Local\Temp\ccBEkVPc.s:696    .text.ob_user_write:0000000000000000 .L0 
C:\Users\CYMR90~1\AppData\Local\Temp\ccBEkVPc.s:697    .text.ob_user_write:0000000000000000 .L0 
C:\Users\CYMR90~1\AppData\Local\Temp\ccBEkVPc.s:698    .text.ob_user_write:0000000000000002 .L0 
C:\Users\CYMR90~1\AppData\Local\Temp\ccBEkVPc.s:701    .text.ob_user_write:0000000000000006 .L0 
C:\Users\CYMR90~1\AppData\Local\Temp\ccBEkVPc.s:702    .text.ob_user_write:0000000000000006 .L0 
C:\Users\CYMR90~1\AppData\Local\Temp\ccBEkVPc.s:704    .text.ob_user_write:0000000000000008 .L0 
C:\Users\CYMR90~1\AppData\Local\Temp\ccBEkVPc.s:707    .text.ob_user_write:000000000000000c .L0 
C:\Users\CYMR90~1\AppData\Local\Temp\ccBEkVPc.s:711    .text.ob_user_write:000000000000001c .L0 
C:\Users\CYMR90~1\AppData\Local\Temp\ccBEkVPc.s:714    .text.ob_user_write:0000000000000022 .L0 
C:\Users\CYMR90~1\AppData\Local\Temp\ccBEkVPc.s:721    .text.ob_user_write:0000000000000038 .L0 
C:\Users\CYMR90~1\AppData\Local\Temp\ccBEkVPc.s:730    .text.ob_user_write:0000000000000052 .L0 
C:\Users\CYMR90~1\AppData\Local\Temp\ccBEkVPc.s:739    .text.ob_user_write:0000000000000066 .L0 
C:\Users\CYMR90~1\AppData\Local\Temp\ccBEkVPc.s:744    .text.ob_user_write:0000000000000076 .L0 
C:\Users\CYMR90~1\AppData\Local\Temp\ccBEkVPc.s:746    .text.ob_user_write:000000000000007a .L0 
C:\Users\CYMR90~1\AppData\Local\Temp\ccBEkVPc.s:748    .text.ob_user_write:000000000000007e .L0 
C:\Users\CYMR90~1\AppData\Local\Temp\ccBEkVPc.s:750    .text.ob_user_write:0000000000000080 .L0 
C:\Users\CYMR90~1\AppData\Local\Temp\ccBEkVPc.s:751    .text.ob_user_write:0000000000000080 .L0 
C:\Users\CYMR90~1\AppData\Local\Temp\ccBEkVPc.s:753    .text.ob_user_write:0000000000000082 .L0 
C:\Users\CYMR90~1\AppData\Local\Temp\ccBEkVPc.s:755    .text.ob_user_write:0000000000000084 .L0 
C:\Users\CYMR90~1\AppData\Local\Temp\ccBEkVPc.s:762    .text.ob_write_protection_config:0000000000000000 ob_write_protection_config
C:\Users\CYMR90~1\AppData\Local\Temp\ccBEkVPc.s:765    .text.ob_write_protection_config:0000000000000000 .L0 
C:\Users\CYMR90~1\AppData\Local\Temp\ccBEkVPc.s:766    .text.ob_write_protection_config:0000000000000000 .L0 
C:\Users\CYMR90~1\AppData\Local\Temp\ccBEkVPc.s:767    .text.ob_write_protection_config:0000000000000002 .L0 
C:\Users\CYMR90~1\AppData\Local\Temp\ccBEkVPc.s:770    .text.ob_write_protection_config:0000000000000006 .L0 
C:\Users\CYMR90~1\AppData\Local\Temp\ccBEkVPc.s:771    .text.ob_write_protection_config:0000000000000006 .L0 
C:\Users\CYMR90~1\AppData\Local\Temp\ccBEkVPc.s:773    .text.ob_write_protection_config:0000000000000008 .L0 
C:\Users\CYMR90~1\AppData\Local\Temp\ccBEkVPc.s:778    .text.ob_write_protection_config:0000000000000014 .L0 
C:\Users\CYMR90~1\AppData\Local\Temp\ccBEkVPc.s:782    .text.ob_write_protection_config:0000000000000024 .L0 
C:\Users\CYMR90~1\AppData\Local\Temp\ccBEkVPc.s:785    .text.ob_write_protection_config:000000000000002a .L0 
C:\Users\CYMR90~1\AppData\Local\Temp\ccBEkVPc.s:791    .text.ob_write_protection_config:000000000000003a .L0 
C:\Users\CYMR90~1\AppData\Local\Temp\ccBEkVPc.s:794    .text.ob_write_protection_config:000000000000003c .L0 
C:\Users\CYMR90~1\AppData\Local\Temp\ccBEkVPc.s:797    .text.ob_write_protection_config:0000000000000044 .L0 
C:\Users\CYMR90~1\AppData\Local\Temp\ccBEkVPc.s:799    .text.ob_write_protection_config:0000000000000048 .L0 
C:\Users\CYMR90~1\AppData\Local\Temp\ccBEkVPc.s:808    .text.ob_write_protection_config:0000000000000062 .L0 
C:\Users\CYMR90~1\AppData\Local\Temp\ccBEkVPc.s:812    .text.ob_write_protection_config:000000000000006c .L0 
C:\Users\CYMR90~1\AppData\Local\Temp\ccBEkVPc.s:815    .text.ob_write_protection_config:0000000000000074 .L0 
C:\Users\CYMR90~1\AppData\Local\Temp\ccBEkVPc.s:820    .text.ob_write_protection_config:0000000000000080 .L0 
C:\Users\CYMR90~1\AppData\Local\Temp\ccBEkVPc.s:823    .text.ob_write_protection_config:0000000000000082 .L0 
C:\Users\CYMR90~1\AppData\Local\Temp\ccBEkVPc.s:826    .text.ob_write_protection_config:000000000000008a .L0 
C:\Users\CYMR90~1\AppData\Local\Temp\ccBEkVPc.s:828    .text.ob_write_protection_config:000000000000008e .L0 
C:\Users\CYMR90~1\AppData\Local\Temp\ccBEkVPc.s:837    .text.ob_write_protection_config:00000000000000a8 .L0 
C:\Users\CYMR90~1\AppData\Local\Temp\ccBEkVPc.s:841    .text.ob_write_protection_config:00000000000000b2 .L0 
C:\Users\CYMR90~1\AppData\Local\Temp\ccBEkVPc.s:844    .text.ob_write_protection_config:00000000000000ba .L0 
C:\Users\CYMR90~1\AppData\Local\Temp\ccBEkVPc.s:849    .text.ob_write_protection_config:00000000000000c6 .L0 
C:\Users\CYMR90~1\AppData\Local\Temp\ccBEkVPc.s:852    .text.ob_write_protection_config:00000000000000c8 .L0 
C:\Users\CYMR90~1\AppData\Local\Temp\ccBEkVPc.s:861    .text.ob_write_protection_config:00000000000000dc .L0 
C:\Users\CYMR90~1\AppData\Local\Temp\ccBEkVPc.s:866    .text.ob_write_protection_config:00000000000000ec .L0 
C:\Users\CYMR90~1\AppData\Local\Temp\ccBEkVPc.s:868    .text.ob_write_protection_config:00000000000000f0 .L0 
C:\Users\CYMR90~1\AppData\Local\Temp\ccBEkVPc.s:870    .text.ob_write_protection_config:00000000000000f4 .L0 
C:\Users\CYMR90~1\AppData\Local\Temp\ccBEkVPc.s:872    .text.ob_write_protection_config:00000000000000f6 .L0 
C:\Users\CYMR90~1\AppData\Local\Temp\ccBEkVPc.s:873    .text.ob_write_protection_config:00000000000000f6 .L0 
C:\Users\CYMR90~1\AppData\Local\Temp\ccBEkVPc.s:875    .text.ob_write_protection_config:00000000000000f8 .L0 
C:\Users\CYMR90~1\AppData\Local\Temp\ccBEkVPc.s:877    .text.ob_write_protection_config:00000000000000fa .L0 
C:\Users\CYMR90~1\AppData\Local\Temp\ccBEkVPc.s:884    .text.fmc_no_rtdec_config:0000000000000000 fmc_no_rtdec_config
C:\Users\CYMR90~1\AppData\Local\Temp\ccBEkVPc.s:887    .text.fmc_no_rtdec_config:0000000000000000 .L0 
C:\Users\CYMR90~1\AppData\Local\Temp\ccBEkVPc.s:888    .text.fmc_no_rtdec_config:0000000000000000 .L0 
C:\Users\CYMR90~1\AppData\Local\Temp\ccBEkVPc.s:889    .text.fmc_no_rtdec_config:0000000000000002 .L0 
C:\Users\CYMR90~1\AppData\Local\Temp\ccBEkVPc.s:891    .text.fmc_no_rtdec_config:0000000000000004 .L0 
C:\Users\CYMR90~1\AppData\Local\Temp\ccBEkVPc.s:893    .text.fmc_no_rtdec_config:0000000000000006 .L0 
C:\Users\CYMR90~1\AppData\Local\Temp\ccBEkVPc.s:898    .text.fmc_no_rtdec_config:0000000000000012 .L0 
C:\Users\CYMR90~1\AppData\Local\Temp\ccBEkVPc.s:916    .text.fmc_no_rtdec_config:000000000000004a .L0 
C:\Users\CYMR90~1\AppData\Local\Temp\ccBEkVPc.s:919    .text.fmc_no_rtdec_config:000000000000004c .L0 
C:\Users\CYMR90~1\AppData\Local\Temp\ccBEkVPc.s:922    .text.fmc_no_rtdec_config:0000000000000054 .L0 
C:\Users\CYMR90~1\AppData\Local\Temp\ccBEkVPc.s:924    .text.fmc_no_rtdec_config:0000000000000058 .L0 
C:\Users\CYMR90~1\AppData\Local\Temp\ccBEkVPc.s:933    .text.fmc_no_rtdec_config:0000000000000072 .L0 
C:\Users\CYMR90~1\AppData\Local\Temp\ccBEkVPc.s:937    .text.fmc_no_rtdec_config:000000000000007c .L0 
C:\Users\CYMR90~1\AppData\Local\Temp\ccBEkVPc.s:940    .text.fmc_no_rtdec_config:0000000000000084 .L0 
C:\Users\CYMR90~1\AppData\Local\Temp\ccBEkVPc.s:945    .text.fmc_no_rtdec_config:0000000000000090 .L0 
C:\Users\CYMR90~1\AppData\Local\Temp\ccBEkVPc.s:948    .text.fmc_no_rtdec_config:0000000000000092 .L0 
C:\Users\CYMR90~1\AppData\Local\Temp\ccBEkVPc.s:951    .text.fmc_no_rtdec_config:000000000000009a .L0 
C:\Users\CYMR90~1\AppData\Local\Temp\ccBEkVPc.s:953    .text.fmc_no_rtdec_config:000000000000009e .L0 
C:\Users\CYMR90~1\AppData\Local\Temp\ccBEkVPc.s:962    .text.fmc_no_rtdec_config:00000000000000b8 .L0 
C:\Users\CYMR90~1\AppData\Local\Temp\ccBEkVPc.s:966    .text.fmc_no_rtdec_config:00000000000000c2 .L0 
C:\Users\CYMR90~1\AppData\Local\Temp\ccBEkVPc.s:969    .text.fmc_no_rtdec_config:00000000000000ca .L0 
C:\Users\CYMR90~1\AppData\Local\Temp\ccBEkVPc.s:974    .text.fmc_no_rtdec_config:00000000000000d6 .L0 
C:\Users\CYMR90~1\AppData\Local\Temp\ccBEkVPc.s:977    .text.fmc_no_rtdec_config:00000000000000d8 .L0 
C:\Users\CYMR90~1\AppData\Local\Temp\ccBEkVPc.s:980    .text.fmc_no_rtdec_config:00000000000000e0 .L0 
C:\Users\CYMR90~1\AppData\Local\Temp\ccBEkVPc.s:982    .text.fmc_no_rtdec_config:00000000000000e4 .L0 
C:\Users\CYMR90~1\AppData\Local\Temp\ccBEkVPc.s:991    .text.fmc_no_rtdec_config:00000000000000fe .L0 
C:\Users\CYMR90~1\AppData\Local\Temp\ccBEkVPc.s:995    .text.fmc_no_rtdec_config:0000000000000108 .L0 
C:\Users\CYMR90~1\AppData\Local\Temp\ccBEkVPc.s:998    .text.fmc_no_rtdec_config:0000000000000110 .L0 
C:\Users\CYMR90~1\AppData\Local\Temp\ccBEkVPc.s:1003   .text.fmc_no_rtdec_config:000000000000011c .L0 
C:\Users\CYMR90~1\AppData\Local\Temp\ccBEkVPc.s:1006   .text.fmc_no_rtdec_config:000000000000011e .L0 
C:\Users\CYMR90~1\AppData\Local\Temp\ccBEkVPc.s:1009   .text.fmc_no_rtdec_config:0000000000000126 .L0 
C:\Users\CYMR90~1\AppData\Local\Temp\ccBEkVPc.s:1011   .text.fmc_no_rtdec_config:000000000000012a .L0 
C:\Users\CYMR90~1\AppData\Local\Temp\ccBEkVPc.s:1020   .text.fmc_no_rtdec_config:0000000000000144 .L0 
C:\Users\CYMR90~1\AppData\Local\Temp\ccBEkVPc.s:1024   .text.fmc_no_rtdec_config:000000000000014e .L0 
C:\Users\CYMR90~1\AppData\Local\Temp\ccBEkVPc.s:1027   .text.fmc_no_rtdec_config:0000000000000156 .L0 
C:\Users\CYMR90~1\AppData\Local\Temp\ccBEkVPc.s:1032   .text.fmc_no_rtdec_config:0000000000000162 .L0 
C:\Users\CYMR90~1\AppData\Local\Temp\ccBEkVPc.s:1035   .text.fmc_no_rtdec_config:0000000000000164 .L0 
C:\Users\CYMR90~1\AppData\Local\Temp\ccBEkVPc.s:1038   .text.fmc_no_rtdec_config:0000000000000166 .L0 
C:\Users\CYMR90~1\AppData\Local\Temp\ccBEkVPc.s:1040   .text.fmc_no_rtdec_config:000000000000016a .L0 
C:\Users\CYMR90~1\AppData\Local\Temp\ccBEkVPc.s:1041   .text.fmc_no_rtdec_config:000000000000016a .L0 
C:\Users\CYMR90~1\AppData\Local\Temp\ccBEkVPc.s:1043   .text.fmc_no_rtdec_config:000000000000016c .L0 
C:\Users\CYMR90~1\AppData\Local\Temp\ccBEkVPc.s:1045   .text.fmc_no_rtdec_config:000000000000016e .L0 
C:\Users\CYMR90~1\AppData\Local\Temp\ccBEkVPc.s:1052   .text.fmc_offset_region_config:0000000000000000 fmc_offset_region_config
C:\Users\CYMR90~1\AppData\Local\Temp\ccBEkVPc.s:1055   .text.fmc_offset_region_config:0000000000000000 .L0 
C:\Users\CYMR90~1\AppData\Local\Temp\ccBEkVPc.s:1056   .text.fmc_offset_region_config:0000000000000000 .L0 
C:\Users\CYMR90~1\AppData\Local\Temp\ccBEkVPc.s:1057   .text.fmc_offset_region_config:0000000000000002 .L0 
C:\Users\CYMR90~1\AppData\Local\Temp\ccBEkVPc.s:1059   .text.fmc_offset_region_config:0000000000000004 .L0 
C:\Users\CYMR90~1\AppData\Local\Temp\ccBEkVPc.s:1061   .text.fmc_offset_region_config:0000000000000006 .L0 
C:\Users\CYMR90~1\AppData\Local\Temp\ccBEkVPc.s:1065   .text.fmc_offset_region_config:000000000000000e .L0 
C:\Users\CYMR90~1\AppData\Local\Temp\ccBEkVPc.s:1068   .text.fmc_offset_region_config:0000000000000016 .L0 
C:\Users\CYMR90~1\AppData\Local\Temp\ccBEkVPc.s:1070   .text.fmc_offset_region_config:000000000000001a .L0 
C:\Users\CYMR90~1\AppData\Local\Temp\ccBEkVPc.s:1079   .text.fmc_offset_region_config:0000000000000034 .L0 
C:\Users\CYMR90~1\AppData\Local\Temp\ccBEkVPc.s:1083   .text.fmc_offset_region_config:000000000000003e .L0 
C:\Users\CYMR90~1\AppData\Local\Temp\ccBEkVPc.s:1086   .text.fmc_offset_region_config:0000000000000046 .L0 
C:\Users\CYMR90~1\AppData\Local\Temp\ccBEkVPc.s:1091   .text.fmc_offset_region_config:0000000000000052 .L0 
C:\Users\CYMR90~1\AppData\Local\Temp\ccBEkVPc.s:1093   .text.fmc_offset_region_config:0000000000000056 .L0 
C:\Users\CYMR90~1\AppData\Local\Temp\ccBEkVPc.s:1094   .text.fmc_offset_region_config:0000000000000056 .L0 
C:\Users\CYMR90~1\AppData\Local\Temp\ccBEkVPc.s:1096   .text.fmc_offset_region_config:0000000000000058 .L0 
C:\Users\CYMR90~1\AppData\Local\Temp\ccBEkVPc.s:1098   .text.fmc_offset_region_config:000000000000005a .L0 
C:\Users\CYMR90~1\AppData\Local\Temp\ccBEkVPc.s:1105   .text.fmc_offset_value_config:0000000000000000 fmc_offset_value_config
C:\Users\CYMR90~1\AppData\Local\Temp\ccBEkVPc.s:1108   .text.fmc_offset_value_config:0000000000000000 .L0 
C:\Users\CYMR90~1\AppData\Local\Temp\ccBEkVPc.s:1109   .text.fmc_offset_value_config:0000000000000000 .L0 
C:\Users\CYMR90~1\AppData\Local\Temp\ccBEkVPc.s:1110   .text.fmc_offset_value_config:0000000000000002 .L0 
C:\Users\CYMR90~1\AppData\Local\Temp\ccBEkVPc.s:1112   .text.fmc_offset_value_config:0000000000000004 .L0 
C:\Users\CYMR90~1\AppData\Local\Temp\ccBEkVPc.s:1114   .text.fmc_offset_value_config:0000000000000006 .L0 
C:\Users\CYMR90~1\AppData\Local\Temp\ccBEkVPc.s:1117   .text.fmc_offset_value_config:000000000000000a .L0 
C:\Users\CYMR90~1\AppData\Local\Temp\ccBEkVPc.s:1120   .text.fmc_offset_value_config:0000000000000012 .L0 
C:\Users\CYMR90~1\AppData\Local\Temp\ccBEkVPc.s:1122   .text.fmc_offset_value_config:0000000000000016 .L0 
C:\Users\CYMR90~1\AppData\Local\Temp\ccBEkVPc.s:1131   .text.fmc_offset_value_config:0000000000000030 .L0 
C:\Users\CYMR90~1\AppData\Local\Temp\ccBEkVPc.s:1133   .text.fmc_offset_value_config:0000000000000034 .L0 
C:\Users\CYMR90~1\AppData\Local\Temp\ccBEkVPc.s:1134   .text.fmc_offset_value_config:0000000000000034 .L0 
C:\Users\CYMR90~1\AppData\Local\Temp\ccBEkVPc.s:1136   .text.fmc_offset_value_config:0000000000000036 .L0 
C:\Users\CYMR90~1\AppData\Local\Temp\ccBEkVPc.s:1138   .text.fmc_offset_value_config:0000000000000038 .L0 
C:\Users\CYMR90~1\AppData\Local\Temp\ccBEkVPc.s:1145   .text.fmc_wifi_trim_cal_get:0000000000000000 fmc_wifi_trim_cal_get
C:\Users\CYMR90~1\AppData\Local\Temp\ccBEkVPc.s:1148   .text.fmc_wifi_trim_cal_get:0000000000000000 .L0 
C:\Users\CYMR90~1\AppData\Local\Temp\ccBEkVPc.s:1149   .text.fmc_wifi_trim_cal_get:0000000000000000 .L0 
C:\Users\CYMR90~1\AppData\Local\Temp\ccBEkVPc.s:1150   .text.fmc_wifi_trim_cal_get:0000000000000002 .L0 
C:\Users\CYMR90~1\AppData\Local\Temp\ccBEkVPc.s:1152   .text.fmc_wifi_trim_cal_get:0000000000000004 .L0 
C:\Users\CYMR90~1\AppData\Local\Temp\ccBEkVPc.s:1154   .text.fmc_wifi_trim_cal_get:0000000000000006 .L0 
C:\Users\CYMR90~1\AppData\Local\Temp\ccBEkVPc.s:1160   .text.fmc_wifi_trim_cal_get:0000000000000016 .L0 
C:\Users\CYMR90~1\AppData\Local\Temp\ccBEkVPc.s:1163   .text.fmc_wifi_trim_cal_get:000000000000001e .L0 
C:\Users\CYMR90~1\AppData\Local\Temp\ccBEkVPc.s:1166   .text.fmc_wifi_trim_cal_get:0000000000000024 .L0 
C:\Users\CYMR90~1\AppData\Local\Temp\ccBEkVPc.s:1169   .text.fmc_wifi_trim_cal_get:000000000000002c .L0 
C:\Users\CYMR90~1\AppData\Local\Temp\ccBEkVPc.s:1172   .text.fmc_wifi_trim_cal_get:0000000000000032 .L0 
C:\Users\CYMR90~1\AppData\Local\Temp\ccBEkVPc.s:1176   .text.fmc_wifi_trim_cal_get:000000000000003c .L0 
C:\Users\CYMR90~1\AppData\Local\Temp\ccBEkVPc.s:1179   .text.fmc_wifi_trim_cal_get:0000000000000042 .L0 
C:\Users\CYMR90~1\AppData\Local\Temp\ccBEkVPc.s:1183   .text.fmc_wifi_trim_cal_get:000000000000004c .L0 
C:\Users\CYMR90~1\AppData\Local\Temp\ccBEkVPc.s:1186   .text.fmc_wifi_trim_cal_get:0000000000000052 .L0 
C:\Users\CYMR90~1\AppData\Local\Temp\ccBEkVPc.s:1191   .text.fmc_wifi_trim_cal_get:000000000000005e .L0 
C:\Users\CYMR90~1\AppData\Local\Temp\ccBEkVPc.s:1194   .text.fmc_wifi_trim_cal_get:0000000000000064 .L0 
C:\Users\CYMR90~1\AppData\Local\Temp\ccBEkVPc.s:1197   .text.fmc_wifi_trim_cal_get:000000000000006c .L0 
C:\Users\CYMR90~1\AppData\Local\Temp\ccBEkVPc.s:1200   .text.fmc_wifi_trim_cal_get:0000000000000072 .L0 
C:\Users\CYMR90~1\AppData\Local\Temp\ccBEkVPc.s:1202   .text.fmc_wifi_trim_cal_get:0000000000000076 .L0 
C:\Users\CYMR90~1\AppData\Local\Temp\ccBEkVPc.s:1203   .text.fmc_wifi_trim_cal_get:0000000000000076 .L0 
C:\Users\CYMR90~1\AppData\Local\Temp\ccBEkVPc.s:1205   .text.fmc_wifi_trim_cal_get:0000000000000078 .L0 
C:\Users\CYMR90~1\AppData\Local\Temp\ccBEkVPc.s:1207   .text.fmc_wifi_trim_cal_get:000000000000007a .L0 
C:\Users\CYMR90~1\AppData\Local\Temp\ccBEkVPc.s:1214   .text.fmc_wifi_trim_pa_get:0000000000000000 fmc_wifi_trim_pa_get
C:\Users\CYMR90~1\AppData\Local\Temp\ccBEkVPc.s:1217   .text.fmc_wifi_trim_pa_get:0000000000000000 .L0 
C:\Users\CYMR90~1\AppData\Local\Temp\ccBEkVPc.s:1218   .text.fmc_wifi_trim_pa_get:0000000000000000 .L0 
C:\Users\CYMR90~1\AppData\Local\Temp\ccBEkVPc.s:1219   .text.fmc_wifi_trim_pa_get:0000000000000002 .L0 
C:\Users\CYMR90~1\AppData\Local\Temp\ccBEkVPc.s:1221   .text.fmc_wifi_trim_pa_get:0000000000000004 .L0 
C:\Users\CYMR90~1\AppData\Local\Temp\ccBEkVPc.s:1223   .text.fmc_wifi_trim_pa_get:0000000000000006 .L0 
C:\Users\CYMR90~1\AppData\Local\Temp\ccBEkVPc.s:1227   .text.fmc_wifi_trim_pa_get:000000000000000e .L0 
C:\Users\CYMR90~1\AppData\Local\Temp\ccBEkVPc.s:1230   .text.fmc_wifi_trim_pa_get:0000000000000016 .L0 
C:\Users\CYMR90~1\AppData\Local\Temp\ccBEkVPc.s:1233   .text.fmc_wifi_trim_pa_get:000000000000001c .L0 
C:\Users\CYMR90~1\AppData\Local\Temp\ccBEkVPc.s:1236   .text.fmc_wifi_trim_pa_get:0000000000000024 .L0 
C:\Users\CYMR90~1\AppData\Local\Temp\ccBEkVPc.s:1239   .text.fmc_wifi_trim_pa_get:000000000000002a .L0 
C:\Users\CYMR90~1\AppData\Local\Temp\ccBEkVPc.s:1242   .text.fmc_wifi_trim_pa_get:0000000000000032 .L0 
C:\Users\CYMR90~1\AppData\Local\Temp\ccBEkVPc.s:1245   .text.fmc_wifi_trim_pa_get:0000000000000038 .L0 
C:\Users\CYMR90~1\AppData\Local\Temp\ccBEkVPc.s:1247   .text.fmc_wifi_trim_pa_get:000000000000003c .L0 
C:\Users\CYMR90~1\AppData\Local\Temp\ccBEkVPc.s:1248   .text.fmc_wifi_trim_pa_get:000000000000003c .L0 
C:\Users\CYMR90~1\AppData\Local\Temp\ccBEkVPc.s:1250   .text.fmc_wifi_trim_pa_get:000000000000003e .L0 
C:\Users\CYMR90~1\AppData\Local\Temp\ccBEkVPc.s:1252   .text.fmc_wifi_trim_pa_get:0000000000000040 .L0 
C:\Users\CYMR90~1\AppData\Local\Temp\ccBEkVPc.s:1259   .text.fmc_wifi_trim_get:0000000000000000 fmc_wifi_trim_get
C:\Users\CYMR90~1\AppData\Local\Temp\ccBEkVPc.s:1262   .text.fmc_wifi_trim_get:0000000000000000 .L0 
C:\Users\CYMR90~1\AppData\Local\Temp\ccBEkVPc.s:1263   .text.fmc_wifi_trim_get:0000000000000000 .L0 
C:\Users\CYMR90~1\AppData\Local\Temp\ccBEkVPc.s:1264   .text.fmc_wifi_trim_get:0000000000000002 .L0 
C:\Users\CYMR90~1\AppData\Local\Temp\ccBEkVPc.s:1266   .text.fmc_wifi_trim_get:0000000000000004 .L0 
C:\Users\CYMR90~1\AppData\Local\Temp\ccBEkVPc.s:1268   .text.fmc_wifi_trim_get:0000000000000006 .L0 
C:\Users\CYMR90~1\AppData\Local\Temp\ccBEkVPc.s:1272   .text.fmc_wifi_trim_get:000000000000000e .L0 
C:\Users\CYMR90~1\AppData\Local\Temp\ccBEkVPc.s:1276   .text.fmc_wifi_trim_get:0000000000000018 .L0 
C:\Users\CYMR90~1\AppData\Local\Temp\ccBEkVPc.s:1280   .text.fmc_wifi_trim_get:000000000000001c .L0 
C:\Users\CYMR90~1\AppData\Local\Temp\ccBEkVPc.s:1282   .text.fmc_wifi_trim_get:0000000000000020 .L0 
C:\Users\CYMR90~1\AppData\Local\Temp\ccBEkVPc.s:1285   .text.fmc_wifi_trim_get:0000000000000022 .L0 
C:\Users\CYMR90~1\AppData\Local\Temp\ccBEkVPc.s:1292   .text.fmc_wifi_trim_get:0000000000000034 .L0 
C:\Users\CYMR90~1\AppData\Local\Temp\ccBEkVPc.s:1297   .text.fmc_wifi_trim_get:0000000000000040 .L0 
C:\Users\CYMR90~1\AppData\Local\Temp\ccBEkVPc.s:1299   .text.fmc_wifi_trim_get:0000000000000042 .L0 
C:\Users\CYMR90~1\AppData\Local\Temp\ccBEkVPc.s:1301   .text.fmc_wifi_trim_get:0000000000000044 .L0 
C:\Users\CYMR90~1\AppData\Local\Temp\ccBEkVPc.s:1306   .text.fmc_wifi_trim_get:000000000000004e .L0 
C:\Users\CYMR90~1\AppData\Local\Temp\ccBEkVPc.s:1310   .text.fmc_wifi_trim_get:000000000000005a .L0 
C:\Users\CYMR90~1\AppData\Local\Temp\ccBEkVPc.s:1313   .text.fmc_wifi_trim_get:000000000000005c .L0 
C:\Users\CYMR90~1\AppData\Local\Temp\ccBEkVPc.s:1315   .text.fmc_wifi_trim_get:0000000000000060 .L0 
C:\Users\CYMR90~1\AppData\Local\Temp\ccBEkVPc.s:1316   .text.fmc_wifi_trim_get:0000000000000060 .L0 
C:\Users\CYMR90~1\AppData\Local\Temp\ccBEkVPc.s:1318   .text.fmc_wifi_trim_get:0000000000000062 .L0 
C:\Users\CYMR90~1\AppData\Local\Temp\ccBEkVPc.s:1320   .text.fmc_wifi_trim_get:0000000000000064 .L0 
C:\Users\CYMR90~1\AppData\Local\Temp\ccBEkVPc.s:1327   .text.fmc_pid_get:0000000000000000 fmc_pid_get
C:\Users\CYMR90~1\AppData\Local\Temp\ccBEkVPc.s:1330   .text.fmc_pid_get:0000000000000000 .L0 
C:\Users\CYMR90~1\AppData\Local\Temp\ccBEkVPc.s:1331   .text.fmc_pid_get:0000000000000000 .L0 
C:\Users\CYMR90~1\AppData\Local\Temp\ccBEkVPc.s:1332   .text.fmc_pid_get:0000000000000002 .L0 
C:\Users\CYMR90~1\AppData\Local\Temp\ccBEkVPc.s:1334   .text.fmc_pid_get:0000000000000004 .L0 
C:\Users\CYMR90~1\AppData\Local\Temp\ccBEkVPc.s:1336   .text.fmc_pid_get:0000000000000006 .L0 
C:\Users\CYMR90~1\AppData\Local\Temp\ccBEkVPc.s:1339   .text.fmc_pid_get:000000000000000a .L0 
C:\Users\CYMR90~1\AppData\Local\Temp\ccBEkVPc.s:1342   .text.fmc_pid_get:0000000000000012 .L0 
C:\Users\CYMR90~1\AppData\Local\Temp\ccBEkVPc.s:1345   .text.fmc_pid_get:000000000000001a .L0 
C:\Users\CYMR90~1\AppData\Local\Temp\ccBEkVPc.s:1347   .text.fmc_pid_get:000000000000001e .L0 
C:\Users\CYMR90~1\AppData\Local\Temp\ccBEkVPc.s:1349   .text.fmc_pid_get:0000000000000020 .L0 
C:\Users\CYMR90~1\AppData\Local\Temp\ccBEkVPc.s:1351   .text.fmc_pid_get:0000000000000022 .L0 
C:\Users\CYMR90~1\AppData\Local\Temp\ccBEkVPc.s:1355   .text.fmc_pid_get:000000000000002c .L0 
C:\Users\CYMR90~1\AppData\Local\Temp\ccBEkVPc.s:1358   .text.fmc_pid_get:0000000000000034 .L0 
C:\Users\CYMR90~1\AppData\Local\Temp\ccBEkVPc.s:1360   .text.fmc_pid_get:0000000000000038 .L0 
C:\Users\CYMR90~1\AppData\Local\Temp\ccBEkVPc.s:1362   .text.fmc_pid_get:000000000000003a .L0 
C:\Users\CYMR90~1\AppData\Local\Temp\ccBEkVPc.s:1364   .text.fmc_pid_get:000000000000003c .L0 
C:\Users\CYMR90~1\AppData\Local\Temp\ccBEkVPc.s:1366   .text.fmc_pid_get:0000000000000040 .L0 
C:\Users\CYMR90~1\AppData\Local\Temp\ccBEkVPc.s:1367   .text.fmc_pid_get:0000000000000040 .L0 
C:\Users\CYMR90~1\AppData\Local\Temp\ccBEkVPc.s:1369   .text.fmc_pid_get:0000000000000042 .L0 
C:\Users\CYMR90~1\AppData\Local\Temp\ccBEkVPc.s:1371   .text.fmc_pid_get:0000000000000044 .L0 
C:\Users\CYMR90~1\AppData\Local\Temp\ccBEkVPc.s:1378   .text.ob_write_protection_get:0000000000000000 ob_write_protection_get
C:\Users\CYMR90~1\AppData\Local\Temp\ccBEkVPc.s:1381   .text.ob_write_protection_get:0000000000000000 .L0 
C:\Users\CYMR90~1\AppData\Local\Temp\ccBEkVPc.s:1382   .text.ob_write_protection_get:0000000000000000 .L0 
C:\Users\CYMR90~1\AppData\Local\Temp\ccBEkVPc.s:1383   .text.ob_write_protection_get:0000000000000002 .L0 
C:\Users\CYMR90~1\AppData\Local\Temp\ccBEkVPc.s:1385   .text.ob_write_protection_get:0000000000000004 .L0 
C:\Users\CYMR90~1\AppData\Local\Temp\ccBEkVPc.s:1387   .text.ob_write_protection_get:0000000000000006 .L0 
C:\Users\CYMR90~1\AppData\Local\Temp\ccBEkVPc.s:1389   .text.ob_write_protection_get:0000000000000006 .L0 
C:\Users\CYMR90~1\AppData\Local\Temp\ccBEkVPc.s:1391   .text.ob_write_protection_get:000000000000000a .L0 
C:\Users\CYMR90~1\AppData\Local\Temp\ccBEkVPc.s:1395   .text.ob_write_protection_get:0000000000000012 .L0 
C:\Users\CYMR90~1\AppData\Local\Temp\ccBEkVPc.s:1397   .text.ob_write_protection_get:0000000000000014 .L0 
C:\Users\CYMR90~1\AppData\Local\Temp\ccBEkVPc.s:1399   .text.ob_write_protection_get:0000000000000016 .L0 
C:\Users\CYMR90~1\AppData\Local\Temp\ccBEkVPc.s:1404   .text.ob_write_protection_get:000000000000001e .L0 
C:\Users\CYMR90~1\AppData\Local\Temp\ccBEkVPc.s:1407   .text.ob_write_protection_get:0000000000000022 .L0 
C:\Users\CYMR90~1\AppData\Local\Temp\ccBEkVPc.s:1409   .text.ob_write_protection_get:0000000000000026 .L0 
C:\Users\CYMR90~1\AppData\Local\Temp\ccBEkVPc.s:1411   .text.ob_write_protection_get:000000000000002a .L0 
C:\Users\CYMR90~1\AppData\Local\Temp\ccBEkVPc.s:1412   .text.ob_write_protection_get:000000000000002a .L0 
C:\Users\CYMR90~1\AppData\Local\Temp\ccBEkVPc.s:1414   .text.ob_write_protection_get:000000000000002c .L0 
C:\Users\CYMR90~1\AppData\Local\Temp\ccBEkVPc.s:1416   .text.ob_write_protection_get:000000000000002e .L0 
C:\Users\CYMR90~1\AppData\Local\Temp\ccBEkVPc.s:1423   .text.ob_user_get:0000000000000000 ob_user_get
C:\Users\CYMR90~1\AppData\Local\Temp\ccBEkVPc.s:1426   .text.ob_user_get:0000000000000000 .L0 
C:\Users\CYMR90~1\AppData\Local\Temp\ccBEkVPc.s:1427   .text.ob_user_get:0000000000000000 .L0 
C:\Users\CYMR90~1\AppData\Local\Temp\ccBEkVPc.s:1428   .text.ob_user_get:0000000000000002 .L0 
C:\Users\CYMR90~1\AppData\Local\Temp\ccBEkVPc.s:1430   .text.ob_user_get:0000000000000004 .L0 
C:\Users\CYMR90~1\AppData\Local\Temp\ccBEkVPc.s:1432   .text.ob_user_get:0000000000000006 .L0 
C:\Users\CYMR90~1\AppData\Local\Temp\ccBEkVPc.s:1434   .text.ob_user_get:0000000000000006 .L0 
C:\Users\CYMR90~1\AppData\Local\Temp\ccBEkVPc.s:1438   .text.ob_user_get:0000000000000010 .L0 
C:\Users\CYMR90~1\AppData\Local\Temp\ccBEkVPc.s:1440   .text.ob_user_get:0000000000000014 .L0 
C:\Users\CYMR90~1\AppData\Local\Temp\ccBEkVPc.s:1441   .text.ob_user_get:0000000000000014 .L0 
C:\Users\CYMR90~1\AppData\Local\Temp\ccBEkVPc.s:1443   .text.ob_user_get:0000000000000016 .L0 
C:\Users\CYMR90~1\AppData\Local\Temp\ccBEkVPc.s:1445   .text.ob_user_get:0000000000000018 .L0 
C:\Users\CYMR90~1\AppData\Local\Temp\ccBEkVPc.s:1452   .text.ob_security_protection_flag_get:0000000000000000 ob_security_protection_flag_get
C:\Users\CYMR90~1\AppData\Local\Temp\ccBEkVPc.s:1455   .text.ob_security_protection_flag_get:0000000000000000 .L0 
C:\Users\CYMR90~1\AppData\Local\Temp\ccBEkVPc.s:1456   .text.ob_security_protection_flag_get:0000000000000000 .L0 
C:\Users\CYMR90~1\AppData\Local\Temp\ccBEkVPc.s:1457   .text.ob_security_protection_flag_get:0000000000000002 .L0 
C:\Users\CYMR90~1\AppData\Local\Temp\ccBEkVPc.s:1459   .text.ob_security_protection_flag_get:0000000000000004 .L0 
C:\Users\CYMR90~1\AppData\Local\Temp\ccBEkVPc.s:1461   .text.ob_security_protection_flag_get:0000000000000006 .L0 
C:\Users\CYMR90~1\AppData\Local\Temp\ccBEkVPc.s:1463   .text.ob_security_protection_flag_get:0000000000000006 .L0 
C:\Users\CYMR90~1\AppData\Local\Temp\ccBEkVPc.s:1465   .text.ob_security_protection_flag_get:000000000000000a .L0 
C:\Users\CYMR90~1\AppData\Local\Temp\ccBEkVPc.s:1469   .text.ob_security_protection_flag_get:0000000000000012 .L0 
C:\Users\CYMR90~1\AppData\Local\Temp\ccBEkVPc.s:1471   .text.ob_security_protection_flag_get:0000000000000014 .L0 
C:\Users\CYMR90~1\AppData\Local\Temp\ccBEkVPc.s:1473   .text.ob_security_protection_flag_get:0000000000000016 .L0 
C:\Users\CYMR90~1\AppData\Local\Temp\ccBEkVPc.s:1478   .text.ob_security_protection_flag_get:000000000000001e .L0 
C:\Users\CYMR90~1\AppData\Local\Temp\ccBEkVPc.s:1481   .text.ob_security_protection_flag_get:0000000000000022 .L0 
C:\Users\CYMR90~1\AppData\Local\Temp\ccBEkVPc.s:1483   .text.ob_security_protection_flag_get:0000000000000026 .L0 
C:\Users\CYMR90~1\AppData\Local\Temp\ccBEkVPc.s:1485   .text.ob_security_protection_flag_get:000000000000002a .L0 
C:\Users\CYMR90~1\AppData\Local\Temp\ccBEkVPc.s:1486   .text.ob_security_protection_flag_get:000000000000002a .L0 
C:\Users\CYMR90~1\AppData\Local\Temp\ccBEkVPc.s:1488   .text.ob_security_protection_flag_get:000000000000002c .L0 
C:\Users\CYMR90~1\AppData\Local\Temp\ccBEkVPc.s:1490   .text.ob_security_protection_flag_get:000000000000002e .L0 
C:\Users\CYMR90~1\AppData\Local\Temp\ccBEkVPc.s:1497   .text.fmc_flag_get:0000000000000000 fmc_flag_get
C:\Users\CYMR90~1\AppData\Local\Temp\ccBEkVPc.s:1500   .text.fmc_flag_get:0000000000000000 .L0 
C:\Users\CYMR90~1\AppData\Local\Temp\ccBEkVPc.s:1501   .text.fmc_flag_get:0000000000000000 .L0 
C:\Users\CYMR90~1\AppData\Local\Temp\ccBEkVPc.s:1502   .text.fmc_flag_get:0000000000000002 .L0 
C:\Users\CYMR90~1\AppData\Local\Temp\ccBEkVPc.s:1504   .text.fmc_flag_get:0000000000000004 .L0 
C:\Users\CYMR90~1\AppData\Local\Temp\ccBEkVPc.s:1506   .text.fmc_flag_get:0000000000000006 .L0 
C:\Users\CYMR90~1\AppData\Local\Temp\ccBEkVPc.s:1509   .text.fmc_flag_get:000000000000000a .L0 
C:\Users\CYMR90~1\AppData\Local\Temp\ccBEkVPc.s:1511   .text.fmc_flag_get:000000000000000e .L0 
C:\Users\CYMR90~1\AppData\Local\Temp\ccBEkVPc.s:1515   .text.fmc_flag_get:0000000000000016 .L0 
C:\Users\CYMR90~1\AppData\Local\Temp\ccBEkVPc.s:1518   .text.fmc_flag_get:000000000000001c .L0 
C:\Users\CYMR90~1\AppData\Local\Temp\ccBEkVPc.s:1520   .text.fmc_flag_get:000000000000001e .L0 
C:\Users\CYMR90~1\AppData\Local\Temp\ccBEkVPc.s:1524   .text.fmc_flag_get:0000000000000024 .L0 
C:\Users\CYMR90~1\AppData\Local\Temp\ccBEkVPc.s:1526   .text.fmc_flag_get:0000000000000028 .L0 
C:\Users\CYMR90~1\AppData\Local\Temp\ccBEkVPc.s:1528   .text.fmc_flag_get:000000000000002c .L0 
C:\Users\CYMR90~1\AppData\Local\Temp\ccBEkVPc.s:1529   .text.fmc_flag_get:000000000000002c .L0 
C:\Users\CYMR90~1\AppData\Local\Temp\ccBEkVPc.s:1531   .text.fmc_flag_get:000000000000002e .L0 
C:\Users\CYMR90~1\AppData\Local\Temp\ccBEkVPc.s:1533   .text.fmc_flag_get:0000000000000030 .L0 
C:\Users\CYMR90~1\AppData\Local\Temp\ccBEkVPc.s:1540   .text.fmc_flag_clear:0000000000000000 fmc_flag_clear
C:\Users\CYMR90~1\AppData\Local\Temp\ccBEkVPc.s:1543   .text.fmc_flag_clear:0000000000000000 .L0 
C:\Users\CYMR90~1\AppData\Local\Temp\ccBEkVPc.s:1544   .text.fmc_flag_clear:0000000000000000 .L0 
C:\Users\CYMR90~1\AppData\Local\Temp\ccBEkVPc.s:1545   .text.fmc_flag_clear:0000000000000002 .L0 
C:\Users\CYMR90~1\AppData\Local\Temp\ccBEkVPc.s:1547   .text.fmc_flag_clear:0000000000000004 .L0 
C:\Users\CYMR90~1\AppData\Local\Temp\ccBEkVPc.s:1549   .text.fmc_flag_clear:0000000000000006 .L0 
C:\Users\CYMR90~1\AppData\Local\Temp\ccBEkVPc.s:1552   .text.fmc_flag_clear:000000000000000a .L0 
C:\Users\CYMR90~1\AppData\Local\Temp\ccBEkVPc.s:1555   .text.fmc_flag_clear:0000000000000010 .L0 
C:\Users\CYMR90~1\AppData\Local\Temp\ccBEkVPc.s:1558   .text.fmc_flag_clear:0000000000000016 .L0 
C:\Users\CYMR90~1\AppData\Local\Temp\ccBEkVPc.s:1560   .text.fmc_flag_clear:000000000000001a .L0 
C:\Users\CYMR90~1\AppData\Local\Temp\ccBEkVPc.s:1561   .text.fmc_flag_clear:000000000000001a .L0 
C:\Users\CYMR90~1\AppData\Local\Temp\ccBEkVPc.s:1563   .text.fmc_flag_clear:000000000000001c .L0 
C:\Users\CYMR90~1\AppData\Local\Temp\ccBEkVPc.s:1565   .text.fmc_flag_clear:000000000000001e .L0 
C:\Users\CYMR90~1\AppData\Local\Temp\ccBEkVPc.s:1572   .text.fmc_interrupt_enable:0000000000000000 fmc_interrupt_enable
C:\Users\CYMR90~1\AppData\Local\Temp\ccBEkVPc.s:1575   .text.fmc_interrupt_enable:0000000000000000 .L0 
C:\Users\CYMR90~1\AppData\Local\Temp\ccBEkVPc.s:1576   .text.fmc_interrupt_enable:0000000000000000 .L0 
C:\Users\CYMR90~1\AppData\Local\Temp\ccBEkVPc.s:1577   .text.fmc_interrupt_enable:0000000000000002 .L0 
C:\Users\CYMR90~1\AppData\Local\Temp\ccBEkVPc.s:1579   .text.fmc_interrupt_enable:0000000000000004 .L0 
C:\Users\CYMR90~1\AppData\Local\Temp\ccBEkVPc.s:1581   .text.fmc_interrupt_enable:0000000000000006 .L0 
C:\Users\CYMR90~1\AppData\Local\Temp\ccBEkVPc.s:1584   .text.fmc_interrupt_enable:000000000000000a .L0 
C:\Users\CYMR90~1\AppData\Local\Temp\ccBEkVPc.s:1593   .text.fmc_interrupt_enable:0000000000000020 .L0 
C:\Users\CYMR90~1\AppData\Local\Temp\ccBEkVPc.s:1595   .text.fmc_interrupt_enable:0000000000000024 .L0 
C:\Users\CYMR90~1\AppData\Local\Temp\ccBEkVPc.s:1596   .text.fmc_interrupt_enable:0000000000000024 .L0 
C:\Users\CYMR90~1\AppData\Local\Temp\ccBEkVPc.s:1598   .text.fmc_interrupt_enable:0000000000000026 .L0 
C:\Users\CYMR90~1\AppData\Local\Temp\ccBEkVPc.s:1600   .text.fmc_interrupt_enable:0000000000000028 .L0 
C:\Users\CYMR90~1\AppData\Local\Temp\ccBEkVPc.s:1607   .text.fmc_interrupt_disable:0000000000000000 fmc_interrupt_disable
C:\Users\CYMR90~1\AppData\Local\Temp\ccBEkVPc.s:1610   .text.fmc_interrupt_disable:0000000000000000 .L0 
C:\Users\CYMR90~1\AppData\Local\Temp\ccBEkVPc.s:1611   .text.fmc_interrupt_disable:0000000000000000 .L0 
C:\Users\CYMR90~1\AppData\Local\Temp\ccBEkVPc.s:1612   .text.fmc_interrupt_disable:0000000000000002 .L0 
C:\Users\CYMR90~1\AppData\Local\Temp\ccBEkVPc.s:1614   .text.fmc_interrupt_disable:0000000000000004 .L0 
C:\Users\CYMR90~1\AppData\Local\Temp\ccBEkVPc.s:1616   .text.fmc_interrupt_disable:0000000000000006 .L0 
C:\Users\CYMR90~1\AppData\Local\Temp\ccBEkVPc.s:1619   .text.fmc_interrupt_disable:000000000000000a .L0 
C:\Users\CYMR90~1\AppData\Local\Temp\ccBEkVPc.s:1623   .text.fmc_interrupt_disable:0000000000000012 .L0 
C:\Users\CYMR90~1\AppData\Local\Temp\ccBEkVPc.s:1626   .text.fmc_interrupt_disable:000000000000001a .L0 
C:\Users\CYMR90~1\AppData\Local\Temp\ccBEkVPc.s:1631   .text.fmc_interrupt_disable:0000000000000024 .L0 
C:\Users\CYMR90~1\AppData\Local\Temp\ccBEkVPc.s:1633   .text.fmc_interrupt_disable:0000000000000028 .L0 
C:\Users\CYMR90~1\AppData\Local\Temp\ccBEkVPc.s:1634   .text.fmc_interrupt_disable:0000000000000028 .L0 
C:\Users\CYMR90~1\AppData\Local\Temp\ccBEkVPc.s:1636   .text.fmc_interrupt_disable:000000000000002a .L0 
C:\Users\CYMR90~1\AppData\Local\Temp\ccBEkVPc.s:1638   .text.fmc_interrupt_disable:000000000000002c .L0 
C:\Users\CYMR90~1\AppData\Local\Temp\ccBEkVPc.s:1645   .text.fmc_interrupt_flag_get:0000000000000000 fmc_interrupt_flag_get
C:\Users\CYMR90~1\AppData\Local\Temp\ccBEkVPc.s:1648   .text.fmc_interrupt_flag_get:0000000000000000 .L0 
C:\Users\CYMR90~1\AppData\Local\Temp\ccBEkVPc.s:1649   .text.fmc_interrupt_flag_get:0000000000000000 .L0 
C:\Users\CYMR90~1\AppData\Local\Temp\ccBEkVPc.s:1650   .text.fmc_interrupt_flag_get:0000000000000002 .L0 
C:\Users\CYMR90~1\AppData\Local\Temp\ccBEkVPc.s:1652   .text.fmc_interrupt_flag_get:0000000000000004 .L0 
C:\Users\CYMR90~1\AppData\Local\Temp\ccBEkVPc.s:1654   .text.fmc_interrupt_flag_get:0000000000000006 .L0 
C:\Users\CYMR90~1\AppData\Local\Temp\ccBEkVPc.s:1657   .text.fmc_interrupt_flag_get:000000000000000a .L0 
C:\Users\CYMR90~1\AppData\Local\Temp\ccBEkVPc.s:1659   .text.fmc_interrupt_flag_get:000000000000000e .L0 
C:\Users\CYMR90~1\AppData\Local\Temp\ccBEkVPc.s:1663   .text.fmc_interrupt_flag_get:0000000000000016 .L0 
C:\Users\CYMR90~1\AppData\Local\Temp\ccBEkVPc.s:1666   .text.fmc_interrupt_flag_get:000000000000001c .L0 
C:\Users\CYMR90~1\AppData\Local\Temp\ccBEkVPc.s:1668   .text.fmc_interrupt_flag_get:000000000000001e .L0 
C:\Users\CYMR90~1\AppData\Local\Temp\ccBEkVPc.s:1672   .text.fmc_interrupt_flag_get:0000000000000024 .L0 
C:\Users\CYMR90~1\AppData\Local\Temp\ccBEkVPc.s:1674   .text.fmc_interrupt_flag_get:0000000000000028 .L0 
C:\Users\CYMR90~1\AppData\Local\Temp\ccBEkVPc.s:1676   .text.fmc_interrupt_flag_get:000000000000002c .L0 
C:\Users\CYMR90~1\AppData\Local\Temp\ccBEkVPc.s:1677   .text.fmc_interrupt_flag_get:000000000000002c .L0 
C:\Users\CYMR90~1\AppData\Local\Temp\ccBEkVPc.s:1679   .text.fmc_interrupt_flag_get:000000000000002e .L0 
C:\Users\CYMR90~1\AppData\Local\Temp\ccBEkVPc.s:1681   .text.fmc_interrupt_flag_get:0000000000000030 .L0 
C:\Users\CYMR90~1\AppData\Local\Temp\ccBEkVPc.s:1688   .text.fmc_interrupt_flag_clear:0000000000000000 fmc_interrupt_flag_clear
C:\Users\CYMR90~1\AppData\Local\Temp\ccBEkVPc.s:1691   .text.fmc_interrupt_flag_clear:0000000000000000 .L0 
C:\Users\CYMR90~1\AppData\Local\Temp\ccBEkVPc.s:1692   .text.fmc_interrupt_flag_clear:0000000000000000 .L0 
C:\Users\CYMR90~1\AppData\Local\Temp\ccBEkVPc.s:1693   .text.fmc_interrupt_flag_clear:0000000000000002 .L0 
C:\Users\CYMR90~1\AppData\Local\Temp\ccBEkVPc.s:1695   .text.fmc_interrupt_flag_clear:0000000000000004 .L0 
C:\Users\CYMR90~1\AppData\Local\Temp\ccBEkVPc.s:1697   .text.fmc_interrupt_flag_clear:0000000000000006 .L0 
C:\Users\CYMR90~1\AppData\Local\Temp\ccBEkVPc.s:1700   .text.fmc_interrupt_flag_clear:000000000000000a .L0 
C:\Users\CYMR90~1\AppData\Local\Temp\ccBEkVPc.s:1703   .text.fmc_interrupt_flag_clear:0000000000000010 .L0 
C:\Users\CYMR90~1\AppData\Local\Temp\ccBEkVPc.s:1706   .text.fmc_interrupt_flag_clear:0000000000000016 .L0 
C:\Users\CYMR90~1\AppData\Local\Temp\ccBEkVPc.s:1708   .text.fmc_interrupt_flag_clear:000000000000001a .L0 
C:\Users\CYMR90~1\AppData\Local\Temp\ccBEkVPc.s:1709   .text.fmc_interrupt_flag_clear:000000000000001a .L0 
C:\Users\CYMR90~1\AppData\Local\Temp\ccBEkVPc.s:1711   .text.fmc_interrupt_flag_clear:000000000000001c .L0 
C:\Users\CYMR90~1\AppData\Local\Temp\ccBEkVPc.s:1713   .text.fmc_interrupt_flag_clear:000000000000001e .L0 
C:\Users\CYMR90~1\AppData\Local\Temp\ccBEkVPc.s:1719   .text.fmc_state_get:0000000000000000 fmc_state_get
C:\Users\CYMR90~1\AppData\Local\Temp\ccBEkVPc.s:1722   .text.fmc_state_get:0000000000000000 .L0 
C:\Users\CYMR90~1\AppData\Local\Temp\ccBEkVPc.s:1723   .text.fmc_state_get:0000000000000000 .L0 
C:\Users\CYMR90~1\AppData\Local\Temp\ccBEkVPc.s:1724   .text.fmc_state_get:0000000000000002 .L0 
C:\Users\CYMR90~1\AppData\Local\Temp\ccBEkVPc.s:1726   .text.fmc_state_get:0000000000000004 .L0 
C:\Users\CYMR90~1\AppData\Local\Temp\ccBEkVPc.s:1728   .text.fmc_state_get:0000000000000006 .L0 
C:\Users\CYMR90~1\AppData\Local\Temp\ccBEkVPc.s:1730   .text.fmc_state_get:0000000000000006 .L0 
C:\Users\CYMR90~1\AppData\Local\Temp\ccBEkVPc.s:1732   .text.fmc_state_get:000000000000000a .L0 
C:\Users\CYMR90~1\AppData\Local\Temp\ccBEkVPc.s:1736   .text.fmc_state_get:0000000000000012 .L0 
C:\Users\CYMR90~1\AppData\Local\Temp\ccBEkVPc.s:1738   .text.fmc_state_get:0000000000000014 .L0 
C:\Users\CYMR90~1\AppData\Local\Temp\ccBEkVPc.s:1740   .text.fmc_state_get:0000000000000016 .L0 
C:\Users\CYMR90~1\AppData\Local\Temp\ccBEkVPc.s:1745   .text.fmc_state_get:000000000000001e .L0 
C:\Users\CYMR90~1\AppData\Local\Temp\ccBEkVPc.s:1749   .text.fmc_state_get:0000000000000026 .L0 
C:\Users\CYMR90~1\AppData\Local\Temp\ccBEkVPc.s:1751   .text.fmc_state_get:0000000000000028 .L0 
C:\Users\CYMR90~1\AppData\Local\Temp\ccBEkVPc.s:1753   .text.fmc_state_get:000000000000002a .L0 
C:\Users\CYMR90~1\AppData\Local\Temp\ccBEkVPc.s:1757   .text.fmc_state_get:0000000000000030 .L0 
C:\Users\CYMR90~1\AppData\Local\Temp\ccBEkVPc.s:1759   .text.fmc_state_get:0000000000000034 .L0 
C:\Users\CYMR90~1\AppData\Local\Temp\ccBEkVPc.s:1761   .text.fmc_state_get:0000000000000038 .L0 
C:\Users\CYMR90~1\AppData\Local\Temp\ccBEkVPc.s:1762   .text.fmc_state_get:0000000000000038 .L0 
C:\Users\CYMR90~1\AppData\Local\Temp\ccBEkVPc.s:1764   .text.fmc_state_get:000000000000003a .L0 
C:\Users\CYMR90~1\AppData\Local\Temp\ccBEkVPc.s:1766   .text.fmc_state_get:000000000000003c .L0 
C:\Users\CYMR90~1\AppData\Local\Temp\ccBEkVPc.s:1775   .text.fmc_ready_wait:0000000000000000 .L0 
C:\Users\CYMR90~1\AppData\Local\Temp\ccBEkVPc.s:1776   .text.fmc_ready_wait:0000000000000000 .L0 
C:\Users\CYMR90~1\AppData\Local\Temp\ccBEkVPc.s:1777   .text.fmc_ready_wait:0000000000000002 .L0 
C:\Users\CYMR90~1\AppData\Local\Temp\ccBEkVPc.s:1780   .text.fmc_ready_wait:0000000000000006 .L0 
C:\Users\CYMR90~1\AppData\Local\Temp\ccBEkVPc.s:1781   .text.fmc_ready_wait:0000000000000006 .L0 
C:\Users\CYMR90~1\AppData\Local\Temp\ccBEkVPc.s:1783   .text.fmc_ready_wait:0000000000000008 .L0 
C:\Users\CYMR90~1\AppData\Local\Temp\ccBEkVPc.s:1786   .text.fmc_ready_wait:000000000000000c .L0 
C:\Users\CYMR90~1\AppData\Local\Temp\ccBEkVPc.s:1790   .text.fmc_ready_wait:0000000000000012 .L0 
C:\Users\CYMR90~1\AppData\Local\Temp\ccBEkVPc.s:1793   .text.fmc_ready_wait:000000000000001e .L0 
C:\Users\CYMR90~1\AppData\Local\Temp\ccBEkVPc.s:1797   .text.fmc_ready_wait:0000000000000028 .L0 
C:\Users\CYMR90~1\AppData\Local\Temp\ccBEkVPc.s:1801   .text.fmc_ready_wait:0000000000000032 .L0 
C:\Users\CYMR90~1\AppData\Local\Temp\ccBEkVPc.s:1805   .text.fmc_ready_wait:0000000000000038 .L0 
C:\Users\CYMR90~1\AppData\Local\Temp\ccBEkVPc.s:1809   .text.fmc_ready_wait:0000000000000042 .L0 
C:\Users\CYMR90~1\AppData\Local\Temp\ccBEkVPc.s:1813   .text.fmc_ready_wait:0000000000000048 .L0 
C:\Users\CYMR90~1\AppData\Local\Temp\ccBEkVPc.s:1815   .text.fmc_ready_wait:000000000000004c .L0 
C:\Users\CYMR90~1\AppData\Local\Temp\ccBEkVPc.s:1817   .text.fmc_ready_wait:0000000000000050 .L0 
C:\Users\CYMR90~1\AppData\Local\Temp\ccBEkVPc.s:1819   .text.fmc_ready_wait:0000000000000052 .L0 
C:\Users\CYMR90~1\AppData\Local\Temp\ccBEkVPc.s:1820   .text.fmc_ready_wait:0000000000000052 .L0 
C:\Users\CYMR90~1\AppData\Local\Temp\ccBEkVPc.s:1822   .text.fmc_ready_wait:0000000000000054 .L0 
C:\Users\CYMR90~1\AppData\Local\Temp\ccBEkVPc.s:1824   .text.fmc_ready_wait:0000000000000056 .L0 
C:\Users\CYMR90~1\AppData\Local\Temp\ccBEkVPc.s:58     .text.fmc_unlock:000000000000003c .L0 
C:\Users\CYMR90~1\AppData\Local\Temp\ccBEkVPc.s:91     .text.fmc_lock:0000000000000022 .L0 
C:\Users\CYMR90~1\AppData\Local\Temp\ccBEkVPc.s:167    .text.fmc_page_erase:000000000000008a .L0 
C:\Users\CYMR90~1\AppData\Local\Temp\ccBEkVPc.s:236    .text.fmc_mass_erase:000000000000007a .L0 
C:\Users\CYMR90~1\AppData\Local\Temp\ccBEkVPc.s:304    .text.fmc_word_program:0000000000000078 .L0 
C:\Users\CYMR90~1\AppData\Local\Temp\ccBEkVPc.s:395    .text.fmc_continuous_program:000000000000009c .L0 
C:\Users\CYMR90~1\AppData\Local\Temp\ccBEkVPc.s:430    .text.fmc_obr_function_enable:000000000000002c .L0 
C:\Users\CYMR90~1\AppData\Local\Temp\ccBEkVPc.s:468    .text.fmc_obr_function_disable:0000000000000030 .L0 
C:\Users\CYMR90~1\AppData\Local\Temp\ccBEkVPc.s:516    .text.ob_unlock:000000000000003c .L0 
C:\Users\CYMR90~1\AppData\Local\Temp\ccBEkVPc.s:549    .text.ob_lock:0000000000000022 .L0 
C:\Users\CYMR90~1\AppData\Local\Temp\ccBEkVPc.s:584    .text.ob_start:0000000000000026 .L0 
C:\Users\CYMR90~1\AppData\Local\Temp\ccBEkVPc.s:618    .text.ob_reload:0000000000000022 .L0 
C:\Users\CYMR90~1\AppData\Local\Temp\ccBEkVPc.s:689    .text.ob_security_protection_config:0000000000000088 .L0 
C:\Users\CYMR90~1\AppData\Local\Temp\ccBEkVPc.s:758    .text.ob_user_write:0000000000000084 .L0 
C:\Users\CYMR90~1\AppData\Local\Temp\ccBEkVPc.s:880    .text.ob_write_protection_config:00000000000000fa .L0 
C:\Users\CYMR90~1\AppData\Local\Temp\ccBEkVPc.s:1048   .text.fmc_no_rtdec_config:000000000000016e .L0 
C:\Users\CYMR90~1\AppData\Local\Temp\ccBEkVPc.s:1101   .text.fmc_offset_region_config:000000000000005a .L0 
C:\Users\CYMR90~1\AppData\Local\Temp\ccBEkVPc.s:1141   .text.fmc_offset_value_config:0000000000000038 .L0 
C:\Users\CYMR90~1\AppData\Local\Temp\ccBEkVPc.s:1210   .text.fmc_wifi_trim_cal_get:000000000000007a .L0 
C:\Users\CYMR90~1\AppData\Local\Temp\ccBEkVPc.s:1255   .text.fmc_wifi_trim_pa_get:0000000000000040 .L0 
C:\Users\CYMR90~1\AppData\Local\Temp\ccBEkVPc.s:1323   .text.fmc_wifi_trim_get:0000000000000064 .L0 
C:\Users\CYMR90~1\AppData\Local\Temp\ccBEkVPc.s:1374   .text.fmc_pid_get:0000000000000044 .L0 
C:\Users\CYMR90~1\AppData\Local\Temp\ccBEkVPc.s:1419   .text.ob_write_protection_get:000000000000002e .L0 
C:\Users\CYMR90~1\AppData\Local\Temp\ccBEkVPc.s:1448   .text.ob_user_get:0000000000000018 .L0 
C:\Users\CYMR90~1\AppData\Local\Temp\ccBEkVPc.s:1493   .text.ob_security_protection_flag_get:000000000000002e .L0 
C:\Users\CYMR90~1\AppData\Local\Temp\ccBEkVPc.s:1536   .text.fmc_flag_get:0000000000000030 .L0 
C:\Users\CYMR90~1\AppData\Local\Temp\ccBEkVPc.s:1568   .text.fmc_flag_clear:000000000000001e .L0 
C:\Users\CYMR90~1\AppData\Local\Temp\ccBEkVPc.s:1603   .text.fmc_interrupt_enable:0000000000000028 .L0 
C:\Users\CYMR90~1\AppData\Local\Temp\ccBEkVPc.s:1641   .text.fmc_interrupt_disable:000000000000002c .L0 
C:\Users\CYMR90~1\AppData\Local\Temp\ccBEkVPc.s:1684   .text.fmc_interrupt_flag_get:0000000000000030 .L0 
C:\Users\CYMR90~1\AppData\Local\Temp\ccBEkVPc.s:1716   .text.fmc_interrupt_flag_clear:000000000000001e .L0 
C:\Users\CYMR90~1\AppData\Local\Temp\ccBEkVPc.s:1769   .text.fmc_state_get:000000000000003c .L0 
C:\Users\CYMR90~1\AppData\Local\Temp\ccBEkVPc.s:1827   .text.fmc_ready_wait:0000000000000056 .L0 
                     .debug_frame:0000000000000000 .L0 
C:\Users\CYMR90~1\AppData\Local\Temp\ccBEkVPc.s:46     .text.fmc_unlock:0000000000000034 .L3
C:\Users\CYMR90~1\AppData\Local\Temp\ccBEkVPc.s:151    .text.fmc_page_erase:000000000000007c .L6
C:\Users\CYMR90~1\AppData\Local\Temp\ccBEkVPc.s:220    .text.fmc_mass_erase:000000000000006c .L9
C:\Users\CYMR90~1\AppData\Local\Temp\ccBEkVPc.s:288    .text.fmc_word_program:000000000000006a .L12
C:\Users\CYMR90~1\AppData\Local\Temp\ccBEkVPc.s:379    .text.fmc_continuous_program:000000000000008e .L15
C:\Users\CYMR90~1\AppData\Local\Temp\ccBEkVPc.s:365    .text.fmc_continuous_program:0000000000000070 .L16
C:\Users\CYMR90~1\AppData\Local\Temp\ccBEkVPc.s:345    .text.fmc_continuous_program:0000000000000048 .L17
C:\Users\CYMR90~1\AppData\Local\Temp\ccBEkVPc.s:504    .text.ob_unlock:0000000000000034 .L23
C:\Users\CYMR90~1\AppData\Local\Temp\ccBEkVPc.s:673    .text.ob_security_protection_config:000000000000007a .L28
C:\Users\CYMR90~1\AppData\Local\Temp\ccBEkVPc.s:742    .text.ob_user_write:0000000000000076 .L31
C:\Users\CYMR90~1\AppData\Local\Temp\ccBEkVPc.s:864    .text.ob_write_protection_config:00000000000000ec .L34
C:\Users\CYMR90~1\AppData\Local\Temp\ccBEkVPc.s:792    .text.ob_write_protection_config:000000000000003c .L35
C:\Users\CYMR90~1\AppData\Local\Temp\ccBEkVPc.s:821    .text.ob_write_protection_config:0000000000000082 .L36
C:\Users\CYMR90~1\AppData\Local\Temp\ccBEkVPc.s:850    .text.ob_write_protection_config:00000000000000c8 .L38
C:\Users\CYMR90~1\AppData\Local\Temp\ccBEkVPc.s:1004   .text.fmc_no_rtdec_config:000000000000011e .L41
C:\Users\CYMR90~1\AppData\Local\Temp\ccBEkVPc.s:1033   .text.fmc_no_rtdec_config:0000000000000164 .L47
C:\Users\CYMR90~1\AppData\Local\Temp\ccBEkVPc.s:975    .text.fmc_no_rtdec_config:00000000000000d8 .L43
C:\Users\CYMR90~1\AppData\Local\Temp\ccBEkVPc.s:917    .text.fmc_no_rtdec_config:000000000000004c .L44
C:\Users\CYMR90~1\AppData\Local\Temp\ccBEkVPc.s:946    .text.fmc_no_rtdec_config:0000000000000092 .L45
C:\Users\CYMR90~1\AppData\Local\Temp\ccBEkVPc.s:1036   .text.fmc_no_rtdec_config:0000000000000166 .L46
C:\Users\CYMR90~1\AppData\Local\Temp\ccBEkVPc.s:1278   .text.fmc_wifi_trim_get:000000000000001c .L53
C:\Users\CYMR90~1\AppData\Local\Temp\ccBEkVPc.s:1311   .text.fmc_wifi_trim_get:000000000000005c .L54
C:\Users\CYMR90~1\AppData\Local\Temp\ccBEkVPc.s:1304   .text.fmc_wifi_trim_get:000000000000004e .L55
C:\Users\CYMR90~1\AppData\Local\Temp\ccBEkVPc.s:1283   .text.fmc_wifi_trim_get:0000000000000022 .L56
C:\Users\CYMR90~1\AppData\Local\Temp\ccBEkVPc.s:1402   .text.ob_write_protection_get:000000000000001e .L59
C:\Users\CYMR90~1\AppData\Local\Temp\ccBEkVPc.s:1405   .text.ob_write_protection_get:0000000000000022 .L60
C:\Users\CYMR90~1\AppData\Local\Temp\ccBEkVPc.s:1476   .text.ob_security_protection_flag_get:000000000000001e .L65
C:\Users\CYMR90~1\AppData\Local\Temp\ccBEkVPc.s:1479   .text.ob_security_protection_flag_get:0000000000000022 .L66
C:\Users\CYMR90~1\AppData\Local\Temp\ccBEkVPc.s:1522   .text.fmc_flag_get:0000000000000024 .L69
C:\Users\CYMR90~1\AppData\Local\Temp\ccBEkVPc.s:1670   .text.fmc_interrupt_flag_get:0000000000000024 .L75
C:\Users\CYMR90~1\AppData\Local\Temp\ccBEkVPc.s:1743   .text.fmc_state_get:000000000000001e .L79
C:\Users\CYMR90~1\AppData\Local\Temp\ccBEkVPc.s:1755   .text.fmc_state_get:0000000000000030 .L80
C:\Users\CYMR90~1\AppData\Local\Temp\ccBEkVPc.s:1803   .text.fmc_ready_wait:0000000000000038 .L83
C:\Users\CYMR90~1\AppData\Local\Temp\ccBEkVPc.s:1788   .text.fmc_ready_wait:0000000000000012 .L84
C:\Users\CYMR90~1\AppData\Local\Temp\ccBEkVPc.s:1811   .text.fmc_ready_wait:0000000000000048 .L85
C:\Users\CYMR90~1\AppData\Local\Temp\ccBEkVPc.s:2830   .debug_abbrev:0000000000000000 .Ldebug_abbrev0
C:\Users\CYMR90~1\AppData\Local\Temp\ccBEkVPc.s:23893  .debug_str:000000000000afa5 .LASF5645
C:\Users\CYMR90~1\AppData\Local\Temp\ccBEkVPc.s:22003  .debug_str:00000000000035be .LASF5646
C:\Users\CYMR90~1\AppData\Local\Temp\ccBEkVPc.s:26823  .debug_str:0000000000016a41 .LASF5647
C:\Users\CYMR90~1\AppData\Local\Temp\ccBEkVPc.s:3413   .debug_ranges:0000000000000000 .Ldebug_ranges0
C:\Users\CYMR90~1\AppData\Local\Temp\ccBEkVPc.s:21131  .debug_line:0000000000000000 .Ldebug_line0
C:\Users\CYMR90~1\AppData\Local\Temp\ccBEkVPc.s:3483   .debug_macro:0000000000000000 .Ldebug_macro0
C:\Users\CYMR90~1\AppData\Local\Temp\ccBEkVPc.s:32390  .debug_str:000000000002cf89 .LASF5560
C:\Users\CYMR90~1\AppData\Local\Temp\ccBEkVPc.s:21151  .debug_str:000000000000013e .LASF5561
C:\Users\CYMR90~1\AppData\Local\Temp\ccBEkVPc.s:22059  .debug_str:00000000000039e2 .LASF5562
C:\Users\CYMR90~1\AppData\Local\Temp\ccBEkVPc.s:27276  .debug_str:00000000000187cf .LASF5563
C:\Users\CYMR90~1\AppData\Local\Temp\ccBEkVPc.s:23373  .debug_str:0000000000008f4d .LASF5568
C:\Users\CYMR90~1\AppData\Local\Temp\ccBEkVPc.s:26733  .debug_str:000000000001643f .LASF5564
C:\Users\CYMR90~1\AppData\Local\Temp\ccBEkVPc.s:28614  .debug_str:000000000001e066 .LASF5565
C:\Users\CYMR90~1\AppData\Local\Temp\ccBEkVPc.s:26195  .debug_str:0000000000014295 .LASF5566
C:\Users\CYMR90~1\AppData\Local\Temp\ccBEkVPc.s:29030  .debug_str:000000000001f943 .LASF5567
C:\Users\CYMR90~1\AppData\Local\Temp\ccBEkVPc.s:27492  .debug_str:000000000001963f .LASF5569
C:\Users\CYMR90~1\AppData\Local\Temp\ccBEkVPc.s:21265  .debug_str:000000000000080c .LASF5570
C:\Users\CYMR90~1\AppData\Local\Temp\ccBEkVPc.s:30564  .debug_str:00000000000259ce .LASF5571
C:\Users\CYMR90~1\AppData\Local\Temp\ccBEkVPc.s:29052  .debug_str:000000000001faad .LASF855
C:\Users\CYMR90~1\AppData\Local\Temp\ccBEkVPc.s:26499  .debug_str:000000000001556e .LASF5572
C:\Users\CYMR90~1\AppData\Local\Temp\ccBEkVPc.s:30680  .debug_str:0000000000026144 .LASF5573
C:\Users\CYMR90~1\AppData\Local\Temp\ccBEkVPc.s:30258  .debug_str:000000000002447d .LASF5574
C:\Users\CYMR90~1\AppData\Local\Temp\ccBEkVPc.s:23741  .debug_str:000000000000a64f .LASF5575
C:\Users\CYMR90~1\AppData\Local\Temp\ccBEkVPc.s:23869  .debug_str:000000000000adff .LASF5576
C:\Users\CYMR90~1\AppData\Local\Temp\ccBEkVPc.s:29736  .debug_str:00000000000224af .LASF5577
C:\Users\CYMR90~1\AppData\Local\Temp\ccBEkVPc.s:30380  .debug_str:0000000000024c4b .LASF5578
C:\Users\CYMR90~1\AppData\Local\Temp\ccBEkVPc.s:28352  .debug_str:000000000001cf22 .LASF5579
C:\Users\CYMR90~1\AppData\Local\Temp\ccBEkVPc.s:21723  .debug_str:0000000000002409 .LASF5580
C:\Users\CYMR90~1\AppData\Local\Temp\ccBEkVPc.s:26315  .debug_str:00000000000149f9 .LASF5581
C:\Users\CYMR90~1\AppData\Local\Temp\ccBEkVPc.s:25559  .debug_str:0000000000011943 .LASF5582
C:\Users\CYMR90~1\AppData\Local\Temp\ccBEkVPc.s:1773   .text.fmc_ready_wait:0000000000000000 .LFB379
C:\Users\CYMR90~1\AppData\Local\Temp\ccBEkVPc.s:1825   .text.fmc_ready_wait:0000000000000056 .LFE379
C:\Users\CYMR90~1\AppData\Local\Temp\ccBEkVPc.s:31868  .debug_str:000000000002ac97 .LASF5585
C:\Users\CYMR90~1\AppData\Local\Temp\ccBEkVPc.s:29242  .debug_str:0000000000020656 .LASF5584
C:\Users\CYMR90~1\AppData\Local\Temp\ccBEkVPc.s:22617  .debug_str:0000000000005dd4 .LASF5583
C:\Users\CYMR90~1\AppData\Local\Temp\ccBEkVPc.s:1720   .text.fmc_state_get:0000000000000000 .LFB378
C:\Users\CYMR90~1\AppData\Local\Temp\ccBEkVPc.s:1767   .text.fmc_state_get:000000000000003c .LFE378
C:\Users\CYMR90~1\AppData\Local\Temp\ccBEkVPc.s:29508  .debug_str:00000000000216ff .LASF5588
C:\Users\CYMR90~1\AppData\Local\Temp\ccBEkVPc.s:1689   .text.fmc_interrupt_flag_clear:0000000000000000 .LFB377
C:\Users\CYMR90~1\AppData\Local\Temp\ccBEkVPc.s:1714   .text.fmc_interrupt_flag_clear:000000000000001e .LFE377
C:\Users\CYMR90~1\AppData\Local\Temp\ccBEkVPc.s:23729  .debug_str:000000000000a57f .LASF5586
C:\Users\CYMR90~1\AppData\Local\Temp\ccBEkVPc.s:30002  .debug_str:00000000000233e4 .LASF5593
C:\Users\CYMR90~1\AppData\Local\Temp\ccBEkVPc.s:1646   .text.fmc_interrupt_flag_get:0000000000000000 .LFB376
C:\Users\CYMR90~1\AppData\Local\Temp\ccBEkVPc.s:1682   .text.fmc_interrupt_flag_get:0000000000000030 .LFE376
C:\Users\CYMR90~1\AppData\Local\Temp\ccBEkVPc.s:24175  .debug_str:000000000000c2a1 .LASF5587
C:\Users\CYMR90~1\AppData\Local\Temp\ccBEkVPc.s:24475  .debug_str:000000000000d6ae .LASF5589
C:\Users\CYMR90~1\AppData\Local\Temp\ccBEkVPc.s:1608   .text.fmc_interrupt_disable:0000000000000000 .LFB375
C:\Users\CYMR90~1\AppData\Local\Temp\ccBEkVPc.s:1639   .text.fmc_interrupt_disable:000000000000002c .LFE375
C:\Users\CYMR90~1\AppData\Local\Temp\ccBEkVPc.s:27840  .debug_str:000000000001aded .LASF5590
C:\Users\CYMR90~1\AppData\Local\Temp\ccBEkVPc.s:21535  .debug_str:0000000000001940 .LASF5591
C:\Users\CYMR90~1\AppData\Local\Temp\ccBEkVPc.s:1573   .text.fmc_interrupt_enable:0000000000000000 .LFB374
C:\Users\CYMR90~1\AppData\Local\Temp\ccBEkVPc.s:1601   .text.fmc_interrupt_enable:0000000000000028 .LFE374
C:\Users\CYMR90~1\AppData\Local\Temp\ccBEkVPc.s:27392  .debug_str:0000000000018f9a .LASF5592
C:\Users\CYMR90~1\AppData\Local\Temp\ccBEkVPc.s:1541   .text.fmc_flag_clear:0000000000000000 .LFB373
C:\Users\CYMR90~1\AppData\Local\Temp\ccBEkVPc.s:1566   .text.fmc_flag_clear:000000000000001e .LFE373
C:\Users\CYMR90~1\AppData\Local\Temp\ccBEkVPc.s:21245  .debug_str:00000000000006cd .LASF5594
C:\Users\CYMR90~1\AppData\Local\Temp\ccBEkVPc.s:1498   .text.fmc_flag_get:0000000000000000 .LFB372
C:\Users\CYMR90~1\AppData\Local\Temp\ccBEkVPc.s:1534   .text.fmc_flag_get:0000000000000030 .LFE372
C:\Users\CYMR90~1\AppData\Local\Temp\ccBEkVPc.s:25719  .debug_str:00000000000123a3 .LASF5595
C:\Users\CYMR90~1\AppData\Local\Temp\ccBEkVPc.s:1453   .text.ob_security_protection_flag_get:0000000000000000 .LFB371
C:\Users\CYMR90~1\AppData\Local\Temp\ccBEkVPc.s:1491   .text.ob_security_protection_flag_get:000000000000002e .LFE371
C:\Users\CYMR90~1\AppData\Local\Temp\ccBEkVPc.s:29264  .debug_str:00000000000207ec .LASF5596
C:\Users\CYMR90~1\AppData\Local\Temp\ccBEkVPc.s:27438  .debug_str:0000000000019315 .LASF5648
C:\Users\CYMR90~1\AppData\Local\Temp\ccBEkVPc.s:1424   .text.ob_user_get:0000000000000000 .LFB370
C:\Users\CYMR90~1\AppData\Local\Temp\ccBEkVPc.s:1446   .text.ob_user_get:0000000000000018 .LFE370
C:\Users\CYMR90~1\AppData\Local\Temp\ccBEkVPc.s:28998  .debug_str:000000000001f770 .LASF5597
C:\Users\CYMR90~1\AppData\Local\Temp\ccBEkVPc.s:1379   .text.ob_write_protection_get:0000000000000000 .LFB369
C:\Users\CYMR90~1\AppData\Local\Temp\ccBEkVPc.s:1417   .text.ob_write_protection_get:000000000000002e .LFE369
C:\Users\CYMR90~1\AppData\Local\Temp\ccBEkVPc.s:31192  .debug_str:00000000000282da .LASF5598
C:\Users\CYMR90~1\AppData\Local\Temp\ccBEkVPc.s:1328   .text.fmc_pid_get:0000000000000000 .LFB368
C:\Users\CYMR90~1\AppData\Local\Temp\ccBEkVPc.s:1372   .text.fmc_pid_get:0000000000000044 .LFE368
C:\Users\CYMR90~1\AppData\Local\Temp\ccBEkVPc.s:26121  .debug_str:0000000000013e1f .LASF5599
C:\Users\CYMR90~1\AppData\Local\Temp\ccBEkVPc.s:23619  .debug_str:0000000000009eb8 .LASF5600
C:\Users\CYMR90~1\AppData\Local\Temp\ccBEkVPc.s:1260   .text.fmc_wifi_trim_get:0000000000000000 .LFB367
C:\Users\CYMR90~1\AppData\Local\Temp\ccBEkVPc.s:1321   .text.fmc_wifi_trim_get:0000000000000064 .LFE367
C:\Users\CYMR90~1\AppData\Local\Temp\ccBEkVPc.s:22485  .debug_str:00000000000055bc .LASF5601
C:\Users\CYMR90~1\AppData\Local\Temp\ccBEkVPc.s:26455  .debug_str:0000000000015348 .LASF5602
C:\Users\CYMR90~1\AppData\Local\Temp\ccBEkVPc.s:1215   .text.fmc_wifi_trim_pa_get:0000000000000000 .LFB366
C:\Users\CYMR90~1\AppData\Local\Temp\ccBEkVPc.s:1253   .text.fmc_wifi_trim_pa_get:0000000000000040 .LFE366
C:\Users\CYMR90~1\AppData\Local\Temp\ccBEkVPc.s:24595  .debug_str:000000000000dd75 .LASF5603
C:\Users\CYMR90~1\AppData\Local\Temp\ccBEkVPc.s:24597  .debug_str:000000000000dd83 .LASF5604
C:\Users\CYMR90~1\AppData\Local\Temp\ccBEkVPc.s:28570  .debug_str:000000000001dd1f .LASF5605
C:\Users\CYMR90~1\AppData\Local\Temp\ccBEkVPc.s:23797  .debug_str:000000000000a98d .LASF5606
C:\Users\CYMR90~1\AppData\Local\Temp\ccBEkVPc.s:1146   .text.fmc_wifi_trim_cal_get:0000000000000000 .LFB365
C:\Users\CYMR90~1\AppData\Local\Temp\ccBEkVPc.s:1208   .text.fmc_wifi_trim_cal_get:000000000000007a .LFE365
C:\Users\CYMR90~1\AppData\Local\Temp\ccBEkVPc.s:26697  .debug_str:0000000000016231 .LASF5607
C:\Users\CYMR90~1\AppData\Local\Temp\ccBEkVPc.s:25947  .debug_str:0000000000013304 .LASF5608
C:\Users\CYMR90~1\AppData\Local\Temp\ccBEkVPc.s:25889  .debug_str:0000000000012f1c .LASF5609
C:\Users\CYMR90~1\AppData\Local\Temp\ccBEkVPc.s:27060  .debug_str:0000000000017b40 .LASF5610
C:\Users\CYMR90~1\AppData\Local\Temp\ccBEkVPc.s:30312  .debug_str:00000000000247a6 .LASF5611
C:\Users\CYMR90~1\AppData\Local\Temp\ccBEkVPc.s:21995  .debug_str:000000000000352d .LASF5612
C:\Users\CYMR90~1\AppData\Local\Temp\ccBEkVPc.s:1106   .text.fmc_offset_value_config:0000000000000000 .LFB364
C:\Users\CYMR90~1\AppData\Local\Temp\ccBEkVPc.s:1139   .text.fmc_offset_value_config:0000000000000038 .LFE364
C:\Users\CYMR90~1\AppData\Local\Temp\ccBEkVPc.s:24947  .debug_str:000000000000f2f4 .LASF5613
C:\Users\CYMR90~1\AppData\Local\Temp\ccBEkVPc.s:27844  .debug_str:000000000001ae15 .LASF5614
C:\Users\CYMR90~1\AppData\Local\Temp\ccBEkVPc.s:1053   .text.fmc_offset_region_config:0000000000000000 .LFB363
C:\Users\CYMR90~1\AppData\Local\Temp\ccBEkVPc.s:1099   .text.fmc_offset_region_config:000000000000005a .LFE363
C:\Users\CYMR90~1\AppData\Local\Temp\ccBEkVPc.s:26926  .debug_str:00000000000172d7 .LASF5615
C:\Users\CYMR90~1\AppData\Local\Temp\ccBEkVPc.s:25189  .debug_str:0000000000010276 .LASF5616
C:\Users\CYMR90~1\AppData\Local\Temp\ccBEkVPc.s:27230  .debug_str:0000000000018552 .LASF5617
C:\Users\CYMR90~1\AppData\Local\Temp\ccBEkVPc.s:885    .text.fmc_no_rtdec_config:0000000000000000 .LFB362
C:\Users\CYMR90~1\AppData\Local\Temp\ccBEkVPc.s:1046   .text.fmc_no_rtdec_config:000000000000016e .LFE362
C:\Users\CYMR90~1\AppData\Local\Temp\ccBEkVPc.s:23693  .debug_str:000000000000a33c .LASF5618
C:\Users\CYMR90~1\AppData\Local\Temp\ccBEkVPc.s:21893  .debug_str:0000000000002e99 .LASF5619
C:\Users\CYMR90~1\AppData\Local\Temp\ccBEkVPc.s:30132  .debug_str:0000000000023be5 .LASF5620
C:\Users\CYMR90~1\AppData\Local\Temp\ccBEkVPc.s:28606  .debug_str:000000000001dfd8 .LASF5621
C:\Users\CYMR90~1\AppData\Local\Temp\ccBEkVPc.s:763    .text.ob_write_protection_config:0000000000000000 .LFB361
C:\Users\CYMR90~1\AppData\Local\Temp\ccBEkVPc.s:878    .text.ob_write_protection_config:00000000000000fa .LFE361
C:\Users\CYMR90~1\AppData\Local\Temp\ccBEkVPc.s:31606  .debug_str:0000000000029d38 .LASF5622
C:\Users\CYMR90~1\AppData\Local\Temp\ccBEkVPc.s:26980  .debug_str:0000000000017614 .LASF5623
C:\Users\CYMR90~1\AppData\Local\Temp\ccBEkVPc.s:25317  .debug_str:0000000000010a1a .LASF5624
C:\Users\CYMR90~1\AppData\Local\Temp\ccBEkVPc.s:23745  .debug_str:000000000000a679 .LASF5625
C:\Users\CYMR90~1\AppData\Local\Temp\ccBEkVPc.s:694    .text.ob_user_write:0000000000000000 .LFB360
C:\Users\CYMR90~1\AppData\Local\Temp\ccBEkVPc.s:756    .text.ob_user_write:0000000000000084 .LFE360
C:\Users\CYMR90~1\AppData\Local\Temp\ccBEkVPc.s:27852  .debug_str:000000000001ae9d .LASF5626
C:\Users\CYMR90~1\AppData\Local\Temp\ccBEkVPc.s:24959  .debug_str:000000000000f3cd .LASF5627
C:\Users\CYMR90~1\AppData\Local\Temp\ccBEkVPc.s:623    .text.ob_security_protection_config:0000000000000000 .LFB359
C:\Users\CYMR90~1\AppData\Local\Temp\ccBEkVPc.s:687    .text.ob_security_protection_config:0000000000000088 .LFE359
C:\Users\CYMR90~1\AppData\Local\Temp\ccBEkVPc.s:30310  .debug_str:000000000002479f .LASF5628
C:\Users\CYMR90~1\AppData\Local\Temp\ccBEkVPc.s:23953  .debug_str:000000000000b3ae .LASF5629
C:\Users\CYMR90~1\AppData\Local\Temp\ccBEkVPc.s:589    .text.ob_reload:0000000000000000 .LFB358
C:\Users\CYMR90~1\AppData\Local\Temp\ccBEkVPc.s:616    .text.ob_reload:0000000000000022 .LFE358
C:\Users\CYMR90~1\AppData\Local\Temp\ccBEkVPc.s:21153  .debug_str:000000000000014c .LASF5630
C:\Users\CYMR90~1\AppData\Local\Temp\ccBEkVPc.s:554    .text.ob_start:0000000000000000 .LFB357
C:\Users\CYMR90~1\AppData\Local\Temp\ccBEkVPc.s:582    .text.ob_start:0000000000000026 .LFE357
C:\Users\CYMR90~1\AppData\Local\Temp\ccBEkVPc.s:28850  .debug_str:000000000001ee7d .LASF5631
C:\Users\CYMR90~1\AppData\Local\Temp\ccBEkVPc.s:521    .text.ob_lock:0000000000000000 .LFB356
C:\Users\CYMR90~1\AppData\Local\Temp\ccBEkVPc.s:547    .text.ob_lock:0000000000000022 .LFE356
C:\Users\CYMR90~1\AppData\Local\Temp\ccBEkVPc.s:27810  .debug_str:000000000001ac44 .LASF5632
C:\Users\CYMR90~1\AppData\Local\Temp\ccBEkVPc.s:473    .text.ob_unlock:0000000000000000 .LFB355
C:\Users\CYMR90~1\AppData\Local\Temp\ccBEkVPc.s:514    .text.ob_unlock:000000000000003c .LFE355
C:\Users\CYMR90~1\AppData\Local\Temp\ccBEkVPc.s:31634  .debug_str:0000000000029ec3 .LASF5633
C:\Users\CYMR90~1\AppData\Local\Temp\ccBEkVPc.s:435    .text.fmc_obr_function_disable:0000000000000000 .LFB354
C:\Users\CYMR90~1\AppData\Local\Temp\ccBEkVPc.s:466    .text.fmc_obr_function_disable:0000000000000030 .LFE354
C:\Users\CYMR90~1\AppData\Local\Temp\ccBEkVPc.s:25675  .debug_str:00000000000120f0 .LASF5634
C:\Users\CYMR90~1\AppData\Local\Temp\ccBEkVPc.s:23509  .debug_str:0000000000009797 .LASF5635
C:\Users\CYMR90~1\AppData\Local\Temp\ccBEkVPc.s:400    .text.fmc_obr_function_enable:0000000000000000 .LFB353
C:\Users\CYMR90~1\AppData\Local\Temp\ccBEkVPc.s:428    .text.fmc_obr_function_enable:000000000000002c .LFE353
C:\Users\CYMR90~1\AppData\Local\Temp\ccBEkVPc.s:26723  .debug_str:00000000000163b8 .LASF5636
C:\Users\CYMR90~1\AppData\Local\Temp\ccBEkVPc.s:309    .text.fmc_continuous_program:0000000000000000 .LFB352
C:\Users\CYMR90~1\AppData\Local\Temp\ccBEkVPc.s:393    .text.fmc_continuous_program:000000000000009c .LFE352
C:\Users\CYMR90~1\AppData\Local\Temp\ccBEkVPc.s:26477  .debug_str:0000000000015446 .LASF5637
C:\Users\CYMR90~1\AppData\Local\Temp\ccBEkVPc.s:31520  .debug_str:0000000000029837 .LASF5638
C:\Users\CYMR90~1\AppData\Local\Temp\ccBEkVPc.s:340    .text.fmc_continuous_program:0000000000000042 .LBB2
C:\Users\CYMR90~1\AppData\Local\Temp\ccBEkVPc.s:370    .text.fmc_continuous_program:000000000000007c .LBE2
C:\Users\CYMR90~1\AppData\Local\Temp\ccBEkVPc.s:23305  .debug_str:0000000000008aed .LASF5639
C:\Users\CYMR90~1\AppData\Local\Temp\ccBEkVPc.s:241    .text.fmc_word_program:0000000000000000 .LFB351
C:\Users\CYMR90~1\AppData\Local\Temp\ccBEkVPc.s:302    .text.fmc_word_program:0000000000000078 .LFE351
C:\Users\CYMR90~1\AppData\Local\Temp\ccBEkVPc.s:29592  .debug_str:0000000000021bf3 .LASF5640
C:\Users\CYMR90~1\AppData\Local\Temp\ccBEkVPc.s:172    .text.fmc_mass_erase:0000000000000000 .LFB350
C:\Users\CYMR90~1\AppData\Local\Temp\ccBEkVPc.s:234    .text.fmc_mass_erase:000000000000007a .LFE350
C:\Users\CYMR90~1\AppData\Local\Temp\ccBEkVPc.s:21555  .debug_str:0000000000001a66 .LASF5641
C:\Users\CYMR90~1\AppData\Local\Temp\ccBEkVPc.s:96     .text.fmc_page_erase:0000000000000000 .LFB349
C:\Users\CYMR90~1\AppData\Local\Temp\ccBEkVPc.s:165    .text.fmc_page_erase:000000000000008a .LFE349
C:\Users\CYMR90~1\AppData\Local\Temp\ccBEkVPc.s:23647  .debug_str:000000000000a068 .LASF5642
C:\Users\CYMR90~1\AppData\Local\Temp\ccBEkVPc.s:25469  .debug_str:0000000000011321 .LASF5643
C:\Users\CYMR90~1\AppData\Local\Temp\ccBEkVPc.s:63     .text.fmc_lock:0000000000000000 .LFB348
C:\Users\CYMR90~1\AppData\Local\Temp\ccBEkVPc.s:89     .text.fmc_lock:0000000000000022 .LFE348
C:\Users\CYMR90~1\AppData\Local\Temp\ccBEkVPc.s:31062  .debug_str:0000000000027946 .LASF5644
C:\Users\CYMR90~1\AppData\Local\Temp\ccBEkVPc.s:14     .text.fmc_unlock:0000000000000000 .LFB347
C:\Users\CYMR90~1\AppData\Local\Temp\ccBEkVPc.s:56     .text.fmc_unlock:000000000000003c .LFE347
C:\Users\CYMR90~1\AppData\Local\Temp\ccBEkVPc.s:1834   .debug_info:0000000000000000 .Ldebug_info0
C:\Users\CYMR90~1\AppData\Local\Temp\ccBEkVPc.s:4116   .debug_macro:0000000000000000 .Ldebug_macro2
C:\Users\CYMR90~1\AppData\Local\Temp\ccBEkVPc.s:25841  .debug_str:0000000000012be4 .LASF314
C:\Users\CYMR90~1\AppData\Local\Temp\ccBEkVPc.s:26904  .debug_str:000000000001718e .LASF315
C:\Users\CYMR90~1\AppData\Local\Temp\ccBEkVPc.s:5063   .debug_macro:0000000000000000 .Ldebug_macro3
C:\Users\CYMR90~1\AppData\Local\Temp\ccBEkVPc.s:23317  .debug_str:0000000000008ba6 .LASF369
C:\Users\CYMR90~1\AppData\Local\Temp\ccBEkVPc.s:22877  .debug_str:0000000000006de3 .LASF370
C:\Users\CYMR90~1\AppData\Local\Temp\ccBEkVPc.s:27152  .debug_str:000000000001809f .LASF371
C:\Users\CYMR90~1\AppData\Local\Temp\ccBEkVPc.s:5227   .debug_macro:0000000000000000 .Ldebug_macro4
C:\Users\CYMR90~1\AppData\Local\Temp\ccBEkVPc.s:5247   .debug_macro:0000000000000000 .Ldebug_macro5
C:\Users\CYMR90~1\AppData\Local\Temp\ccBEkVPc.s:25801  .debug_str:0000000000012955 .LASF390
C:\Users\CYMR90~1\AppData\Local\Temp\ccBEkVPc.s:5291   .debug_macro:0000000000000000 .Ldebug_macro6
C:\Users\CYMR90~1\AppData\Local\Temp\ccBEkVPc.s:5305   .debug_macro:0000000000000000 .Ldebug_macro7
C:\Users\CYMR90~1\AppData\Local\Temp\ccBEkVPc.s:5373   .debug_macro:0000000000000000 .Ldebug_macro8
C:\Users\CYMR90~1\AppData\Local\Temp\ccBEkVPc.s:5399   .debug_macro:0000000000000000 .Ldebug_macro9
C:\Users\CYMR90~1\AppData\Local\Temp\ccBEkVPc.s:5428   .debug_macro:0000000000000000 .Ldebug_macro10
C:\Users\CYMR90~1\AppData\Local\Temp\ccBEkVPc.s:27288  .debug_str:00000000000188bc .LASF433
C:\Users\CYMR90~1\AppData\Local\Temp\ccBEkVPc.s:5442   .debug_macro:0000000000000000 .Ldebug_macro11
C:\Users\CYMR90~1\AppData\Local\Temp\ccBEkVPc.s:5486   .debug_macro:0000000000000000 .Ldebug_macro12
C:\Users\CYMR90~1\AppData\Local\Temp\ccBEkVPc.s:5512   .debug_macro:0000000000000000 .Ldebug_macro13
C:\Users\CYMR90~1\AppData\Local\Temp\ccBEkVPc.s:30840  .debug_str:0000000000026b25 .LASF569
C:\Users\CYMR90~1\AppData\Local\Temp\ccBEkVPc.s:5883   .debug_macro:0000000000000000 .Ldebug_macro14
C:\Users\CYMR90~1\AppData\Local\Temp\ccBEkVPc.s:25321  .debug_str:0000000000010a46 .LASF572
C:\Users\CYMR90~1\AppData\Local\Temp\ccBEkVPc.s:30186  .debug_str:0000000000023ef6 .LASF573
C:\Users\CYMR90~1\AppData\Local\Temp\ccBEkVPc.s:5894   .debug_macro:0000000000000000 .Ldebug_macro15
C:\Users\CYMR90~1\AppData\Local\Temp\ccBEkVPc.s:5908   .debug_macro:0000000000000000 .Ldebug_macro16
C:\Users\CYMR90~1\AppData\Local\Temp\ccBEkVPc.s:21817  .debug_str:00000000000029f3 .LASF578
C:\Users\CYMR90~1\AppData\Local\Temp\ccBEkVPc.s:5940   .debug_macro:0000000000000000 .Ldebug_macro17
C:\Users\CYMR90~1\AppData\Local\Temp\ccBEkVPc.s:5966   .debug_macro:0000000000000000 .Ldebug_macro18
C:\Users\CYMR90~1\AppData\Local\Temp\ccBEkVPc.s:5977   .debug_macro:0000000000000000 .Ldebug_macro19
C:\Users\CYMR90~1\AppData\Local\Temp\ccBEkVPc.s:6021   .debug_macro:0000000000000000 .Ldebug_macro20
C:\Users\CYMR90~1\AppData\Local\Temp\ccBEkVPc.s:6191   .debug_macro:0000000000000000 .Ldebug_macro21
C:\Users\CYMR90~1\AppData\Local\Temp\ccBEkVPc.s:6202   .debug_macro:0000000000000000 .Ldebug_macro22
C:\Users\CYMR90~1\AppData\Local\Temp\ccBEkVPc.s:25807  .debug_str:00000000000129ae .LASF675
C:\Users\CYMR90~1\AppData\Local\Temp\ccBEkVPc.s:6258   .debug_macro:0000000000000000 .Ldebug_macro23
C:\Users\CYMR90~1\AppData\Local\Temp\ccBEkVPc.s:6275   .debug_macro:0000000000000000 .Ldebug_macro24
C:\Users\CYMR90~1\AppData\Local\Temp\ccBEkVPc.s:29022  .debug_str:000000000001f8d3 .LASF693
C:\Users\CYMR90~1\AppData\Local\Temp\ccBEkVPc.s:27158  .debug_str:00000000000180d0 .LASF694
C:\Users\CYMR90~1\AppData\Local\Temp\ccBEkVPc.s:6319   .debug_macro:0000000000000000 .Ldebug_macro25
C:\Users\CYMR90~1\AppData\Local\Temp\ccBEkVPc.s:22329  .debug_str:0000000000004c47 .LASF700
C:\Users\CYMR90~1\AppData\Local\Temp\ccBEkVPc.s:23459  .debug_str:0000000000009434 .LASF701
C:\Users\CYMR90~1\AppData\Local\Temp\ccBEkVPc.s:6339   .debug_macro:0000000000000000 .Ldebug_macro26
C:\Users\CYMR90~1\AppData\Local\Temp\ccBEkVPc.s:6350   .debug_macro:0000000000000000 .Ldebug_macro27
C:\Users\CYMR90~1\AppData\Local\Temp\ccBEkVPc.s:6394   .debug_macro:0000000000000000 .Ldebug_macro28
C:\Users\CYMR90~1\AppData\Local\Temp\ccBEkVPc.s:22699  .debug_str:00000000000062d5 .LASF749
C:\Users\CYMR90~1\AppData\Local\Temp\ccBEkVPc.s:6495   .debug_macro:0000000000000000 .Ldebug_macro29
C:\Users\CYMR90~1\AppData\Local\Temp\ccBEkVPc.s:6512   .debug_macro:0000000000000000 .Ldebug_macro30
C:\Users\CYMR90~1\AppData\Local\Temp\ccBEkVPc.s:21203  .debug_str:0000000000000479 .LASF763
C:\Users\CYMR90~1\AppData\Local\Temp\ccBEkVPc.s:22501  .debug_str:00000000000056d6 .LASF764
C:\Users\CYMR90~1\AppData\Local\Temp\ccBEkVPc.s:6544   .debug_macro:0000000000000000 .Ldebug_macro31
C:\Users\CYMR90~1\AppData\Local\Temp\ccBEkVPc.s:6558   .debug_macro:0000000000000000 .Ldebug_macro32
C:\Users\CYMR90~1\AppData\Local\Temp\ccBEkVPc.s:6728   .debug_macro:0000000000000000 .Ldebug_macro33
C:\Users\CYMR90~1\AppData\Local\Temp\ccBEkVPc.s:24981  .debug_str:000000000000f510 .LASF850
C:\Users\CYMR90~1\AppData\Local\Temp\ccBEkVPc.s:27374  .debug_str:0000000000018ec6 .LASF851
C:\Users\CYMR90~1\AppData\Local\Temp\ccBEkVPc.s:6814   .debug_macro:0000000000000000 .Ldebug_macro34
C:\Users\CYMR90~1\AppData\Local\Temp\ccBEkVPc.s:6939   .debug_macro:0000000000000000 .Ldebug_macro35
C:\Users\CYMR90~1\AppData\Local\Temp\ccBEkVPc.s:21475  .debug_str:00000000000014e6 .LASF951
C:\Users\CYMR90~1\AppData\Local\Temp\ccBEkVPc.s:7151   .debug_macro:0000000000000000 .Ldebug_macro36
C:\Users\CYMR90~1\AppData\Local\Temp\ccBEkVPc.s:23205  .debug_str:0000000000008504 .LASF957
C:\Users\CYMR90~1\AppData\Local\Temp\ccBEkVPc.s:22751  .debug_str:00000000000065e2 .LASF958
C:\Users\CYMR90~1\AppData\Local\Temp\ccBEkVPc.s:21641  .debug_str:0000000000001f7f .LASF959
C:\Users\CYMR90~1\AppData\Local\Temp\ccBEkVPc.s:7171   .debug_macro:0000000000000000 .Ldebug_macro37
C:\Users\CYMR90~1\AppData\Local\Temp\ccBEkVPc.s:7263   .debug_macro:0000000000000000 .Ldebug_macro38
C:\Users\CYMR90~1\AppData\Local\Temp\ccBEkVPc.s:8909   .debug_macro:0000000000000000 .Ldebug_macro39
C:\Users\CYMR90~1\AppData\Local\Temp\ccBEkVPc.s:9001   .debug_macro:0000000000000000 .Ldebug_macro40
C:\Users\CYMR90~1\AppData\Local\Temp\ccBEkVPc.s:9057   .debug_macro:0000000000000000 .Ldebug_macro41
C:\Users\CYMR90~1\AppData\Local\Temp\ccBEkVPc.s:9071   .debug_macro:0000000000000000 .Ldebug_macro42
C:\Users\CYMR90~1\AppData\Local\Temp\ccBEkVPc.s:26693  .debug_str:0000000000016203 .LASF1655
C:\Users\CYMR90~1\AppData\Local\Temp\ccBEkVPc.s:23587  .debug_str:0000000000009ceb .LASF1656
C:\Users\CYMR90~1\AppData\Local\Temp\ccBEkVPc.s:9295   .debug_macro:0000000000000000 .Ldebug_macro43
C:\Users\CYMR90~1\AppData\Local\Temp\ccBEkVPc.s:9342   .debug_macro:0000000000000000 .Ldebug_macro44
C:\Users\CYMR90~1\AppData\Local\Temp\ccBEkVPc.s:9497   .debug_macro:0000000000000000 .Ldebug_macro45
C:\Users\CYMR90~1\AppData\Local\Temp\ccBEkVPc.s:9553   .debug_macro:0000000000000000 .Ldebug_macro46
C:\Users\CYMR90~1\AppData\Local\Temp\ccBEkVPc.s:9564   .debug_macro:0000000000000000 .Ldebug_macro47
C:\Users\CYMR90~1\AppData\Local\Temp\ccBEkVPc.s:31626  .debug_str:0000000000029e69 .LASF1782
C:\Users\CYMR90~1\AppData\Local\Temp\ccBEkVPc.s:26457  .debug_str:000000000001535d .LASF1783
C:\Users\CYMR90~1\AppData\Local\Temp\ccBEkVPc.s:9695   .debug_macro:0000000000000000 .Ldebug_macro48
C:\Users\CYMR90~1\AppData\Local\Temp\ccBEkVPc.s:10267  .debug_macro:0000000000000000 .Ldebug_macro49
C:\Users\CYMR90~1\AppData\Local\Temp\ccBEkVPc.s:10554  .debug_macro:0000000000000000 .Ldebug_macro50
C:\Users\CYMR90~1\AppData\Local\Temp\ccBEkVPc.s:10583  .debug_macro:0000000000000000 .Ldebug_macro51
C:\Users\CYMR90~1\AppData\Local\Temp\ccBEkVPc.s:10660  .debug_macro:0000000000000000 .Ldebug_macro52
C:\Users\CYMR90~1\AppData\Local\Temp\ccBEkVPc.s:11193  .debug_macro:0000000000000000 .Ldebug_macro53
C:\Users\CYMR90~1\AppData\Local\Temp\ccBEkVPc.s:11216  .debug_macro:0000000000000000 .Ldebug_macro54
C:\Users\CYMR90~1\AppData\Local\Temp\ccBEkVPc.s:11482  .debug_macro:0000000000000000 .Ldebug_macro55
C:\Users\CYMR90~1\AppData\Local\Temp\ccBEkVPc.s:11961  .debug_macro:0000000000000000 .Ldebug_macro56
C:\Users\CYMR90~1\AppData\Local\Temp\ccBEkVPc.s:12050  .debug_macro:0000000000000000 .Ldebug_macro57
C:\Users\CYMR90~1\AppData\Local\Temp\ccBEkVPc.s:12865  .debug_macro:0000000000000000 .Ldebug_macro58
C:\Users\CYMR90~1\AppData\Local\Temp\ccBEkVPc.s:13056  .debug_macro:0000000000000000 .Ldebug_macro59
C:\Users\CYMR90~1\AppData\Local\Temp\ccBEkVPc.s:13559  .debug_macro:0000000000000000 .Ldebug_macro60
C:\Users\CYMR90~1\AppData\Local\Temp\ccBEkVPc.s:13705  .debug_macro:0000000000000000 .Ldebug_macro61
C:\Users\CYMR90~1\AppData\Local\Temp\ccBEkVPc.s:14235  .debug_macro:0000000000000000 .Ldebug_macro62
C:\Users\CYMR90~1\AppData\Local\Temp\ccBEkVPc.s:14657  .debug_macro:0000000000000000 .Ldebug_macro63
C:\Users\CYMR90~1\AppData\Local\Temp\ccBEkVPc.s:17431  .debug_macro:0000000000000000 .Ldebug_macro64
C:\Users\CYMR90~1\AppData\Local\Temp\ccBEkVPc.s:18507  .debug_macro:0000000000000000 .Ldebug_macro65
C:\Users\CYMR90~1\AppData\Local\Temp\ccBEkVPc.s:18776  .debug_macro:0000000000000000 .Ldebug_macro66
C:\Users\CYMR90~1\AppData\Local\Temp\ccBEkVPc.s:19048  .debug_macro:0000000000000000 .Ldebug_macro67
C:\Users\CYMR90~1\AppData\Local\Temp\ccBEkVPc.s:20076  .debug_macro:0000000000000000 .Ldebug_macro68
C:\Users\CYMR90~1\AppData\Local\Temp\ccBEkVPc.s:20120  .debug_macro:0000000000000000 .Ldebug_macro69
C:\Users\CYMR90~1\AppData\Local\Temp\ccBEkVPc.s:20746  .debug_macro:0000000000000000 .Ldebug_macro70
C:\Users\CYMR90~1\AppData\Local\Temp\ccBEkVPc.s:20805  .debug_macro:0000000000000000 .Ldebug_macro71
C:\Users\CYMR90~1\AppData\Local\Temp\ccBEkVPc.s:27442  .debug_str:0000000000019338 .LASF5556
C:\Users\CYMR90~1\AppData\Local\Temp\ccBEkVPc.s:23351  .debug_str:0000000000008d87 .LASF5557
C:\Users\CYMR90~1\AppData\Local\Temp\ccBEkVPc.s:28608  .debug_str:000000000001dff3 .LASF5558
C:\Users\CYMR90~1\AppData\Local\Temp\ccBEkVPc.s:22509  .debug_str:0000000000005756 .LASF5559
C:\Users\CYMR90~1\AppData\Local\Temp\ccBEkVPc.s:22483  .debug_str:00000000000055b1 .LASF0
C:\Users\CYMR90~1\AppData\Local\Temp\ccBEkVPc.s:26886  .debug_str:0000000000017095 .LASF1
C:\Users\CYMR90~1\AppData\Local\Temp\ccBEkVPc.s:25147  .debug_str:000000000000ffee .LASF2
C:\Users\CYMR90~1\AppData\Local\Temp\ccBEkVPc.s:25207  .debug_str:000000000001038b .LASF3
C:\Users\CYMR90~1\AppData\Local\Temp\ccBEkVPc.s:26487  .debug_str:00000000000154d7 .LASF4
C:\Users\CYMR90~1\AppData\Local\Temp\ccBEkVPc.s:32018  .debug_str:000000000002b661 .LASF5
C:\Users\CYMR90~1\AppData\Local\Temp\ccBEkVPc.s:22725  .debug_str:0000000000006479 .LASF6
C:\Users\CYMR90~1\AppData\Local\Temp\ccBEkVPc.s:31340  .debug_str:0000000000028c6e .LASF7
C:\Users\CYMR90~1\AppData\Local\Temp\ccBEkVPc.s:30296  .debug_str:00000000000246cd .LASF8
C:\Users\CYMR90~1\AppData\Local\Temp\ccBEkVPc.s:28234  .debug_str:000000000001c63b .LASF9
C:\Users\CYMR90~1\AppData\Local\Temp\ccBEkVPc.s:27574  .debug_str:0000000000019c10 .LASF10
C:\Users\CYMR90~1\AppData\Local\Temp\ccBEkVPc.s:27432  .debug_str:00000000000192ba .LASF11
C:\Users\CYMR90~1\AppData\Local\Temp\ccBEkVPc.s:31860  .debug_str:000000000002ac39 .LASF12
C:\Users\CYMR90~1\AppData\Local\Temp\ccBEkVPc.s:27448  .debug_str:00000000000193a3 .LASF13
C:\Users\CYMR90~1\AppData\Local\Temp\ccBEkVPc.s:24231  .debug_str:000000000000c5c0 .LASF14
C:\Users\CYMR90~1\AppData\Local\Temp\ccBEkVPc.s:28816  .debug_str:000000000001ec90 .LASF15
C:\Users\CYMR90~1\AppData\Local\Temp\ccBEkVPc.s:29564  .debug_str:0000000000021a4f .LASF16
C:\Users\CYMR90~1\AppData\Local\Temp\ccBEkVPc.s:23793  .debug_str:000000000000a955 .LASF17
C:\Users\CYMR90~1\AppData\Local\Temp\ccBEkVPc.s:30578  .debug_str:0000000000025adf .LASF18
C:\Users\CYMR90~1\AppData\Local\Temp\ccBEkVPc.s:24761  .debug_str:000000000000e7cb .LASF19
C:\Users\CYMR90~1\AppData\Local\Temp\ccBEkVPc.s:21801  .debug_str:00000000000028f4 .LASF20
C:\Users\CYMR90~1\AppData\Local\Temp\ccBEkVPc.s:27242  .debug_str:00000000000185fa .LASF21
C:\Users\CYMR90~1\AppData\Local\Temp\ccBEkVPc.s:27240  .debug_str:00000000000185e0 .LASF22
C:\Users\CYMR90~1\AppData\Local\Temp\ccBEkVPc.s:29862  .debug_str:0000000000022c30 .LASF23
C:\Users\CYMR90~1\AppData\Local\Temp\ccBEkVPc.s:28186  .debug_str:000000000001c3b0 .LASF24
C:\Users\CYMR90~1\AppData\Local\Temp\ccBEkVPc.s:22033  .debug_str:000000000000381f .LASF25
C:\Users\CYMR90~1\AppData\Local\Temp\ccBEkVPc.s:26627  .debug_str:0000000000015d77 .LASF26
C:\Users\CYMR90~1\AppData\Local\Temp\ccBEkVPc.s:29866  .debug_str:0000000000022c66 .LASF27
C:\Users\CYMR90~1\AppData\Local\Temp\ccBEkVPc.s:29572  .debug_str:0000000000021aac .LASF28
C:\Users\CYMR90~1\AppData\Local\Temp\ccBEkVPc.s:22435  .debug_str:00000000000052b0 .LASF29
C:\Users\CYMR90~1\AppData\Local\Temp\ccBEkVPc.s:28586  .debug_str:000000000001de64 .LASF30
C:\Users\CYMR90~1\AppData\Local\Temp\ccBEkVPc.s:21425  .debug_str:000000000000121c .LASF31
C:\Users\CYMR90~1\AppData\Local\Temp\ccBEkVPc.s:29056  .debug_str:000000000001facc .LASF32
C:\Users\CYMR90~1\AppData\Local\Temp\ccBEkVPc.s:23629  .debug_str:0000000000009f49 .LASF33
C:\Users\CYMR90~1\AppData\Local\Temp\ccBEkVPc.s:23475  .debug_str:000000000000954b .LASF34
C:\Users\CYMR90~1\AppData\Local\Temp\ccBEkVPc.s:24791  .debug_str:000000000000e996 .LASF35
C:\Users\CYMR90~1\AppData\Local\Temp\ccBEkVPc.s:27682  .debug_str:000000000001a24e .LASF36
C:\Users\CYMR90~1\AppData\Local\Temp\ccBEkVPc.s:22971  .debug_str:000000000000744e .LASF37
C:\Users\CYMR90~1\AppData\Local\Temp\ccBEkVPc.s:25145  .debug_str:000000000000ffcb .LASF38
C:\Users\CYMR90~1\AppData\Local\Temp\ccBEkVPc.s:21993  .debug_str:000000000000350b .LASF39
C:\Users\CYMR90~1\AppData\Local\Temp\ccBEkVPc.s:21793  .debug_str:0000000000002862 .LASF40
C:\Users\CYMR90~1\AppData\Local\Temp\ccBEkVPc.s:25309  .debug_str:00000000000109a6 .LASF41
C:\Users\CYMR90~1\AppData\Local\Temp\ccBEkVPc.s:25743  .debug_str:0000000000012571 .LASF42
C:\Users\CYMR90~1\AppData\Local\Temp\ccBEkVPc.s:26001  .debug_str:00000000000136f3 .LASF43
C:\Users\CYMR90~1\AppData\Local\Temp\ccBEkVPc.s:27672  .debug_str:000000000001a1bc .LASF44
C:\Users\CYMR90~1\AppData\Local\Temp\ccBEkVPc.s:25601  .debug_str:0000000000011c4c .LASF45
C:\Users\CYMR90~1\AppData\Local\Temp\ccBEkVPc.s:22265  .debug_str:00000000000047ab .LASF46
C:\Users\CYMR90~1\AppData\Local\Temp\ccBEkVPc.s:28592  .debug_str:000000000001dec9 .LASF47
C:\Users\CYMR90~1\AppData\Local\Temp\ccBEkVPc.s:30298  .debug_str:00000000000246e2 .LASF48
C:\Users\CYMR90~1\AppData\Local\Temp\ccBEkVPc.s:24527  .debug_str:000000000000d97c .LASF49
C:\Users\CYMR90~1\AppData\Local\Temp\ccBEkVPc.s:21637  .debug_str:0000000000001f4c .LASF50
C:\Users\CYMR90~1\AppData\Local\Temp\ccBEkVPc.s:21155  .debug_str:0000000000000155 .LASF51
C:\Users\CYMR90~1\AppData\Local\Temp\ccBEkVPc.s:31638  .debug_str:0000000000029f00 .LASF52
C:\Users\CYMR90~1\AppData\Local\Temp\ccBEkVPc.s:24341  .debug_str:000000000000cd71 .LASF53
C:\Users\CYMR90~1\AppData\Local\Temp\ccBEkVPc.s:26075  .debug_str:0000000000013b76 .LASF54
C:\Users\CYMR90~1\AppData\Local\Temp\ccBEkVPc.s:25109  .debug_str:000000000000fd57 .LASF55
C:\Users\CYMR90~1\AppData\Local\Temp\ccBEkVPc.s:23059  .debug_str:0000000000007a03 .LASF56
C:\Users\CYMR90~1\AppData\Local\Temp\ccBEkVPc.s:26481  .debug_str:0000000000015474 .LASF57
C:\Users\CYMR90~1\AppData\Local\Temp\ccBEkVPc.s:21379  .debug_str:0000000000000f7a .LASF58
C:\Users\CYMR90~1\AppData\Local\Temp\ccBEkVPc.s:30582  .debug_str:0000000000025b1f .LASF59
C:\Users\CYMR90~1\AppData\Local\Temp\ccBEkVPc.s:26007  .debug_str:0000000000013736 .LASF60
C:\Users\CYMR90~1\AppData\Local\Temp\ccBEkVPc.s:27962  .debug_str:000000000001b5f3 .LASF61
C:\Users\CYMR90~1\AppData\Local\Temp\ccBEkVPc.s:21859  .debug_str:0000000000002c93 .LASF62
C:\Users\CYMR90~1\AppData\Local\Temp\ccBEkVPc.s:24521  .debug_str:000000000000d938 .LASF63
C:\Users\CYMR90~1\AppData\Local\Temp\ccBEkVPc.s:24253  .debug_str:000000000000c6f8 .LASF64
C:\Users\CYMR90~1\AppData\Local\Temp\ccBEkVPc.s:27658  .debug_str:000000000001a0f3 .LASF65
C:\Users\CYMR90~1\AppData\Local\Temp\ccBEkVPc.s:26311  .debug_str:00000000000149b9 .LASF66
C:\Users\CYMR90~1\AppData\Local\Temp\ccBEkVPc.s:31412  .debug_str:00000000000290e0 .LASF67
C:\Users\CYMR90~1\AppData\Local\Temp\ccBEkVPc.s:31862  .debug_str:000000000002ac4c .LASF68
C:\Users\CYMR90~1\AppData\Local\Temp\ccBEkVPc.s:25551  .debug_str:00000000000118dd .LASF69
C:\Users\CYMR90~1\AppData\Local\Temp\ccBEkVPc.s:24685  .debug_str:000000000000e2f8 .LASF70
C:\Users\CYMR90~1\AppData\Local\Temp\ccBEkVPc.s:22277  .debug_str:00000000000048fe .LASF71
C:\Users\CYMR90~1\AppData\Local\Temp\ccBEkVPc.s:25589  .debug_str:0000000000011b89 .LASF72
C:\Users\CYMR90~1\AppData\Local\Temp\ccBEkVPc.s:25215  .debug_str:00000000000103fc .LASF73
C:\Users\CYMR90~1\AppData\Local\Temp\ccBEkVPc.s:25819  .debug_str:0000000000012a9f .LASF74
C:\Users\CYMR90~1\AppData\Local\Temp\ccBEkVPc.s:25663  .debug_str:0000000000012037 .LASF75
C:\Users\CYMR90~1\AppData\Local\Temp\ccBEkVPc.s:25763  .debug_str:00000000000126dc .LASF76
C:\Users\CYMR90~1\AppData\Local\Temp\ccBEkVPc.s:30218  .debug_str:00000000000241a0 .LASF77
C:\Users\CYMR90~1\AppData\Local\Temp\ccBEkVPc.s:28162  .debug_str:000000000001c24c .LASF78
C:\Users\CYMR90~1\AppData\Local\Temp\ccBEkVPc.s:28556  .debug_str:000000000001dc35 .LASF79
C:\Users\CYMR90~1\AppData\Local\Temp\ccBEkVPc.s:31392  .debug_str:0000000000028f91 .LASF80
C:\Users\CYMR90~1\AppData\Local\Temp\ccBEkVPc.s:23577  .debug_str:0000000000009c31 .LASF81
C:\Users\CYMR90~1\AppData\Local\Temp\ccBEkVPc.s:23779  .debug_str:000000000000a821 .LASF82
C:\Users\CYMR90~1\AppData\Local\Temp\ccBEkVPc.s:31528  .debug_str:00000000000298b8 .LASF83
C:\Users\CYMR90~1\AppData\Local\Temp\ccBEkVPc.s:23517  .debug_str:00000000000097f5 .LASF84
C:\Users\CYMR90~1\AppData\Local\Temp\ccBEkVPc.s:22789  .debug_str:000000000000685b .LASF85
C:\Users\CYMR90~1\AppData\Local\Temp\ccBEkVPc.s:27864  .debug_str:000000000001af86 .LASF86
C:\Users\CYMR90~1\AppData\Local\Temp\ccBEkVPc.s:31558  .debug_str:0000000000029a42 .LASF87
C:\Users\CYMR90~1\AppData\Local\Temp\ccBEkVPc.s:28996  .debug_str:000000000001f74c .LASF88
C:\Users\CYMR90~1\AppData\Local\Temp\ccBEkVPc.s:27776  .debug_str:000000000001aa19 .LASF89
C:\Users\CYMR90~1\AppData\Local\Temp\ccBEkVPc.s:29026  .debug_str:000000000001f906 .LASF90
C:\Users\CYMR90~1\AppData\Local\Temp\ccBEkVPc.s:31768  .debug_str:000000000002a6d6 .LASF91
C:\Users\CYMR90~1\AppData\Local\Temp\ccBEkVPc.s:30590  .debug_str:0000000000025b97 .LASF92
C:\Users\CYMR90~1\AppData\Local\Temp\ccBEkVPc.s:23657  .debug_str:000000000000a10a .LASF93
C:\Users\CYMR90~1\AppData\Local\Temp\ccBEkVPc.s:28440  .debug_str:000000000001d4f6 .LASF94
C:\Users\CYMR90~1\AppData\Local\Temp\ccBEkVPc.s:26035  .debug_str:00000000000138ef .LASF95
C:\Users\CYMR90~1\AppData\Local\Temp\ccBEkVPc.s:26019  .debug_str:00000000000137ff .LASF96
C:\Users\CYMR90~1\AppData\Local\Temp\ccBEkVPc.s:32068  .debug_str:000000000002b9ba .LASF97
C:\Users\CYMR90~1\AppData\Local\Temp\ccBEkVPc.s:25677  .debug_str:00000000000120fd .LASF98
C:\Users\CYMR90~1\AppData\Local\Temp\ccBEkVPc.s:29590  .debug_str:0000000000021bd0 .LASF99
C:\Users\CYMR90~1\AppData\Local\Temp\ccBEkVPc.s:23983  .debug_str:000000000000b569 .LASF100
C:\Users\CYMR90~1\AppData\Local\Temp\ccBEkVPc.s:25159  .debug_str:0000000000010079 .LASF101
C:\Users\CYMR90~1\AppData\Local\Temp\ccBEkVPc.s:26545  .debug_str:00000000000157fd .LASF102
C:\Users\CYMR90~1\AppData\Local\Temp\ccBEkVPc.s:25443  .debug_str:000000000001119f .LASF103
C:\Users\CYMR90~1\AppData\Local\Temp\ccBEkVPc.s:24439  .debug_str:000000000000d3c5 .LASF104
C:\Users\CYMR90~1\AppData\Local\Temp\ccBEkVPc.s:25611  .debug_str:0000000000011ce3 .LASF105
C:\Users\CYMR90~1\AppData\Local\Temp\ccBEkVPc.s:22321  .debug_str:0000000000004bc0 .LASF106
C:\Users\CYMR90~1\AppData\Local\Temp\ccBEkVPc.s:25437  .debug_str:000000000001113a .LASF107
C:\Users\CYMR90~1\AppData\Local\Temp\ccBEkVPc.s:24435  .debug_str:000000000000d3a1 .LASF108
C:\Users\CYMR90~1\AppData\Local\Temp\ccBEkVPc.s:25871  .debug_str:0000000000012ded .LASF109
C:\Users\CYMR90~1\AppData\Local\Temp\ccBEkVPc.s:24815  .debug_str:000000000000eb44 .LASF110
C:\Users\CYMR90~1\AppData\Local\Temp\ccBEkVPc.s:27294  .debug_str:0000000000018918 .LASF111
C:\Users\CYMR90~1\AppData\Local\Temp\ccBEkVPc.s:23921  .debug_str:000000000000b1f3 .LASF112
C:\Users\CYMR90~1\AppData\Local\Temp\ccBEkVPc.s:23655  .debug_str:000000000000a0e1 .LASF113
C:\Users\CYMR90~1\AppData\Local\Temp\ccBEkVPc.s:26579  .debug_str:0000000000015a28 .LASF114
C:\Users\CYMR90~1\AppData\Local\Temp\ccBEkVPc.s:31456  .debug_str:0000000000029427 .LASF115
C:\Users\CYMR90~1\AppData\Local\Temp\ccBEkVPc.s:29456  .debug_str:0000000000021344 .LASF116
C:\Users\CYMR90~1\AppData\Local\Temp\ccBEkVPc.s:23411  .debug_str:0000000000009162 .LASF117
C:\Users\CYMR90~1\AppData\Local\Temp\ccBEkVPc.s:28026  .debug_str:000000000001b9f4 .LASF118
C:\Users\CYMR90~1\AppData\Local\Temp\ccBEkVPc.s:32178  .debug_str:000000000002c160 .LASF119
C:\Users\CYMR90~1\AppData\Local\Temp\ccBEkVPc.s:24733  .debug_str:000000000000e5c5 .LASF120
C:\Users\CYMR90~1\AppData\Local\Temp\ccBEkVPc.s:30202  .debug_str:0000000000023fc5 .LASF121
C:\Users\CYMR90~1\AppData\Local\Temp\ccBEkVPc.s:24215  .debug_str:000000000000c4bb .LASF122
C:\Users\CYMR90~1\AppData\Local\Temp\ccBEkVPc.s:24327  .debug_str:000000000000ccc4 .LASF123
C:\Users\CYMR90~1\AppData\Local\Temp\ccBEkVPc.s:21963  .debug_str:000000000000332b .LASF124
C:\Users\CYMR90~1\AppData\Local\Temp\ccBEkVPc.s:22241  .debug_str:00000000000045ef .LASF125
C:\Users\CYMR90~1\AppData\Local\Temp\ccBEkVPc.s:31132  .debug_str:0000000000027e13 .LASF126
C:\Users\CYMR90~1\AppData\Local\Temp\ccBEkVPc.s:25617  .debug_str:0000000000011d21 .LASF127
C:\Users\CYMR90~1\AppData\Local\Temp\ccBEkVPc.s:28416  .debug_str:000000000001d398 .LASF128
C:\Users\CYMR90~1\AppData\Local\Temp\ccBEkVPc.s:23483  .debug_str:00000000000095c3 .LASF129
C:\Users\CYMR90~1\AppData\Local\Temp\ccBEkVPc.s:30706  .debug_str:00000000000262a5 .LASF130
C:\Users\CYMR90~1\AppData\Local\Temp\ccBEkVPc.s:31006  .debug_str:00000000000275f9 .LASF131
C:\Users\CYMR90~1\AppData\Local\Temp\ccBEkVPc.s:30820  .debug_str:00000000000269ca .LASF132
C:\Users\CYMR90~1\AppData\Local\Temp\ccBEkVPc.s:24709  .debug_str:000000000000e454 .LASF133
C:\Users\CYMR90~1\AppData\Local\Temp\ccBEkVPc.s:30122  .debug_str:0000000000023b5b .LASF134
C:\Users\CYMR90~1\AppData\Local\Temp\ccBEkVPc.s:22233  .debug_str:0000000000004569 .LASF135
C:\Users\CYMR90~1\AppData\Local\Temp\ccBEkVPc.s:23105  .debug_str:0000000000007d04 .LASF136
C:\Users\CYMR90~1\AppData\Local\Temp\ccBEkVPc.s:31854  .debug_str:000000000002abe2 .LASF137
C:\Users\CYMR90~1\AppData\Local\Temp\ccBEkVPc.s:25867  .debug_str:0000000000012dbd .LASF138
C:\Users\CYMR90~1\AppData\Local\Temp\ccBEkVPc.s:31336  .debug_str:0000000000028c4b .LASF139
C:\Users\CYMR90~1\AppData\Local\Temp\ccBEkVPc.s:30476  .debug_str:000000000002533b .LASF140
C:\Users\CYMR90~1\AppData\Local\Temp\ccBEkVPc.s:28120  .debug_str:000000000001bfa2 .LASF141
C:\Users\CYMR90~1\AppData\Local\Temp\ccBEkVPc.s:23617  .debug_str:0000000000009e97 .LASF142
C:\Users\CYMR90~1\AppData\Local\Temp\ccBEkVPc.s:31928  .debug_str:000000000002b037 .LASF143
C:\Users\CYMR90~1\AppData\Local\Temp\ccBEkVPc.s:27264  .debug_str:000000000001870e .LASF144
C:\Users\CYMR90~1\AppData\Local\Temp\ccBEkVPc.s:26325  .debug_str:0000000000014aba .LASF145
C:\Users\CYMR90~1\AppData\Local\Temp\ccBEkVPc.s:24287  .debug_str:000000000000c9d4 .LASF146
C:\Users\CYMR90~1\AppData\Local\Temp\ccBEkVPc.s:22275  .debug_str:00000000000048e7 .LASF147
C:\Users\CYMR90~1\AppData\Local\Temp\ccBEkVPc.s:24855  .debug_str:000000000000edab .LASF148
C:\Users\CYMR90~1\AppData\Local\Temp\ccBEkVPc.s:27244  .debug_str:000000000001860e .LASF149
C:\Users\CYMR90~1\AppData\Local\Temp\ccBEkVPc.s:21227  .debug_str:00000000000005b7 .LASF150
C:\Users\CYMR90~1\AppData\Local\Temp\ccBEkVPc.s:32398  .debug_str:000000000002cfe4 .LASF151
C:\Users\CYMR90~1\AppData\Local\Temp\ccBEkVPc.s:25861  .debug_str:0000000000012d3b .LASF152
C:\Users\CYMR90~1\AppData\Local\Temp\ccBEkVPc.s:30482  .debug_str:000000000002538e .LASF153
C:\Users\CYMR90~1\AppData\Local\Temp\ccBEkVPc.s:28318  .debug_str:000000000001cc0c .LASF154
C:\Users\CYMR90~1\AppData\Local\Temp\ccBEkVPc.s:25271  .debug_str:0000000000010760 .LASF155
C:\Users\CYMR90~1\AppData\Local\Temp\ccBEkVPc.s:28330  .debug_str:000000000001ccf2 .LASF156
C:\Users\CYMR90~1\AppData\Local\Temp\ccBEkVPc.s:28446  .debug_str:000000000001d55e .LASF157
C:\Users\CYMR90~1\AppData\Local\Temp\ccBEkVPc.s:24145  .debug_str:000000000000c0a9 .LASF158
C:\Users\CYMR90~1\AppData\Local\Temp\ccBEkVPc.s:23209  .debug_str:0000000000008526 .LASF159
C:\Users\CYMR90~1\AppData\Local\Temp\ccBEkVPc.s:27970  .debug_str:000000000001b66d .LASF160
C:\Users\CYMR90~1\AppData\Local\Temp\ccBEkVPc.s:29400  .debug_str:000000000002100a .LASF161
C:\Users\CYMR90~1\AppData\Local\Temp\ccBEkVPc.s:27566  .debug_str:0000000000019b8b .LASF162
C:\Users\CYMR90~1\AppData\Local\Temp\ccBEkVPc.s:30114  .debug_str:0000000000023ae9 .LASF163
C:\Users\CYMR90~1\AppData\Local\Temp\ccBEkVPc.s:31754  .debug_str:000000000002a608 .LASF164
C:\Users\CYMR90~1\AppData\Local\Temp\ccBEkVPc.s:22961  .debug_str:00000000000073ca .LASF165
C:\Users\CYMR90~1\AppData\Local\Temp\ccBEkVPc.s:31444  .debug_str:00000000000292f8 .LASF166
C:\Users\CYMR90~1\AppData\Local\Temp\ccBEkVPc.s:31262  .debug_str:000000000002878d .LASF167
C:\Users\CYMR90~1\AppData\Local\Temp\ccBEkVPc.s:30036  .debug_str:00000000000235e9 .LASF168
C:\Users\CYMR90~1\AppData\Local\Temp\ccBEkVPc.s:27030  .debug_str:0000000000017922 .LASF169
C:\Users\CYMR90~1\AppData\Local\Temp\ccBEkVPc.s:30880  .debug_str:0000000000026d6b .LASF170
C:\Users\CYMR90~1\AppData\Local\Temp\ccBEkVPc.s:26655  .debug_str:0000000000015f3f .LASF171
C:\Users\CYMR90~1\AppData\Local\Temp\ccBEkVPc.s:28240  .debug_str:000000000001c69a .LASF172
C:\Users\CYMR90~1\AppData\Local\Temp\ccBEkVPc.s:23609  .debug_str:0000000000009e23 .LASF173
C:\Users\CYMR90~1\AppData\Local\Temp\ccBEkVPc.s:29930  .debug_str:000000000002301c .LASF174
C:\Users\CYMR90~1\AppData\Local\Temp\ccBEkVPc.s:22615  .debug_str:0000000000005dbe .LASF175
C:\Users\CYMR90~1\AppData\Local\Temp\ccBEkVPc.s:23451  .debug_str:00000000000093cb .LASF176
C:\Users\CYMR90~1\AppData\Local\Temp\ccBEkVPc.s:22109  .debug_str:0000000000003cee .LASF177
C:\Users\CYMR90~1\AppData\Local\Temp\ccBEkVPc.s:27444  .debug_str:0000000000019361 .LASF178
C:\Users\CYMR90~1\AppData\Local\Temp\ccBEkVPc.s:24381  .debug_str:000000000000d014 .LASF179
C:\Users\CYMR90~1\AppData\Local\Temp\ccBEkVPc.s:21631  .debug_str:0000000000001ee0 .LASF180
C:\Users\CYMR90~1\AppData\Local\Temp\ccBEkVPc.s:32064  .debug_str:000000000002b98f .LASF181
C:\Users\CYMR90~1\AppData\Local\Temp\ccBEkVPc.s:21411  .debug_str:0000000000001171 .LASF182
C:\Users\CYMR90~1\AppData\Local\Temp\ccBEkVPc.s:25979  .debug_str:0000000000013568 .LASF183
C:\Users\CYMR90~1\AppData\Local\Temp\ccBEkVPc.s:26391  .debug_str:0000000000014f0f .LASF184
C:\Users\CYMR90~1\AppData\Local\Temp\ccBEkVPc.s:31272  .debug_str:000000000002883c .LASF185
C:\Users\CYMR90~1\AppData\Local\Temp\ccBEkVPc.s:24477  .debug_str:000000000000d6c4 .LASF186
C:\Users\CYMR90~1\AppData\Local\Temp\ccBEkVPc.s:22945  .debug_str:0000000000007269 .LASF187
C:\Users\CYMR90~1\AppData\Local\Temp\ccBEkVPc.s:28972  .debug_str:000000000001f610 .LASF188
C:\Users\CYMR90~1\AppData\Local\Temp\ccBEkVPc.s:24753  .debug_str:000000000000e756 .LASF189
C:\Users\CYMR90~1\AppData\Local\Temp\ccBEkVPc.s:26081  .debug_str:0000000000013bd5 .LASF190
C:\Users\CYMR90~1\AppData\Local\Temp\ccBEkVPc.s:29460  .debug_str:0000000000021378 .LASF191
C:\Users\CYMR90~1\AppData\Local\Temp\ccBEkVPc.s:26815  .debug_str:00000000000169ec .LASF192
C:\Users\CYMR90~1\AppData\Local\Temp\ccBEkVPc.s:29682  .debug_str:0000000000022169 .LASF193
C:\Users\CYMR90~1\AppData\Local\Temp\ccBEkVPc.s:22567  .debug_str:0000000000005add .LASF194
C:\Users\CYMR90~1\AppData\Local\Temp\ccBEkVPc.s:21931  .debug_str:000000000000310d .LASF195
C:\Users\CYMR90~1\AppData\Local\Temp\ccBEkVPc.s:24575  .debug_str:000000000000dc28 .LASF196
C:\Users\CYMR90~1\AppData\Local\Temp\ccBEkVPc.s:25499  .debug_str:00000000000114e8 .LASF197
C:\Users\CYMR90~1\AppData\Local\Temp\ccBEkVPc.s:22421  .debug_str:00000000000051d0 .LASF198
C:\Users\CYMR90~1\AppData\Local\Temp\ccBEkVPc.s:31164  .debug_str:000000000002805a .LASF199
C:\Users\CYMR90~1\AppData\Local\Temp\ccBEkVPc.s:29340  .debug_str:0000000000020c70 .LASF200
C:\Users\CYMR90~1\AppData\Local\Temp\ccBEkVPc.s:28454  .debug_str:000000000001d5bc .LASF201
C:\Users\CYMR90~1\AppData\Local\Temp\ccBEkVPc.s:23583  .debug_str:0000000000009c87 .LASF202
C:\Users\CYMR90~1\AppData\Local\Temp\ccBEkVPc.s:31618  .debug_str:0000000000029dd8 .LASF203
C:\Users\CYMR90~1\AppData\Local\Temp\ccBEkVPc.s:21945  .debug_str:0000000000003207 .LASF204
C:\Users\CYMR90~1\AppData\Local\Temp\ccBEkVPc.s:24987  .debug_str:000000000000f56a .LASF205
C:\Users\CYMR90~1\AppData\Local\Temp\ccBEkVPc.s:31348  .debug_str:0000000000028ccf .LASF206
C:\Users\CYMR90~1\AppData\Local\Temp\ccBEkVPc.s:26203  .debug_str:0000000000014316 .LASF207
C:\Users\CYMR90~1\AppData\Local\Temp\ccBEkVPc.s:29014  .debug_str:000000000001f864 .LASF208
C:\Users\CYMR90~1\AppData\Local\Temp\ccBEkVPc.s:24209  .debug_str:000000000000c476 .LASF209
C:\Users\CYMR90~1\AppData\Local\Temp\ccBEkVPc.s:32272  .debug_str:000000000002c75d .LASF210
C:\Users\CYMR90~1\AppData\Local\Temp\ccBEkVPc.s:26173  .debug_str:000000000001414b .LASF211
C:\Users\CYMR90~1\AppData\Local\Temp\ccBEkVPc.s:28856  .debug_str:000000000001eeb0 .LASF212
C:\Users\CYMR90~1\AppData\Local\Temp\ccBEkVPc.s:27464  .debug_str:000000000001948f .LASF213
C:\Users\CYMR90~1\AppData\Local\Temp\ccBEkVPc.s:22661  .debug_str:0000000000006069 .LASF214
C:\Users\CYMR90~1\AppData\Local\Temp\ccBEkVPc.s:26181  .debug_str:00000000000141bb .LASF215
C:\Users\CYMR90~1\AppData\Local\Temp\ccBEkVPc.s:28158  .debug_str:000000000001c1fc .LASF216
C:\Users\CYMR90~1\AppData\Local\Temp\ccBEkVPc.s:22473  .debug_str:000000000000550a .LASF217
C:\Users\CYMR90~1\AppData\Local\Temp\ccBEkVPc.s:25065  .debug_str:000000000000fa80 .LASF218
C:\Users\CYMR90~1\AppData\Local\Temp\ccBEkVPc.s:30484  .debug_str:00000000000253ca .LASF219
C:\Users\CYMR90~1\AppData\Local\Temp\ccBEkVPc.s:30290  .debug_str:0000000000024674 .LASF220
C:\Users\CYMR90~1\AppData\Local\Temp\ccBEkVPc.s:29824  .debug_str:000000000002297e .LASF221
C:\Users\CYMR90~1\AppData\Local\Temp\ccBEkVPc.s:26465  .debug_str:00000000000153bb .LASF222
C:\Users\CYMR90~1\AppData\Local\Temp\ccBEkVPc.s:22627  .debug_str:0000000000005e59 .LASF223
C:\Users\CYMR90~1\AppData\Local\Temp\ccBEkVPc.s:23309  .debug_str:0000000000008b1d .LASF224
C:\Users\CYMR90~1\AppData\Local\Temp\ccBEkVPc.s:31938  .debug_str:000000000002b0cc .LASF225
C:\Users\CYMR90~1\AppData\Local\Temp\ccBEkVPc.s:24647  .debug_str:000000000000e0b8 .LASF226
C:\Users\CYMR90~1\AppData\Local\Temp\ccBEkVPc.s:28314  .debug_str:000000000001cbde .LASF227
C:\Users\CYMR90~1\AppData\Local\Temp\ccBEkVPc.s:28168  .debug_str:000000000001c2a2 .LASF228
C:\Users\CYMR90~1\AppData\Local\Temp\ccBEkVPc.s:24589  .debug_str:000000000000dd05 .LASF229
C:\Users\CYMR90~1\AppData\Local\Temp\ccBEkVPc.s:28896  .debug_str:000000000001f126 .LASF230
C:\Users\CYMR90~1\AppData\Local\Temp\ccBEkVPc.s:28648  .debug_str:000000000001e257 .LASF231
C:\Users\CYMR90~1\AppData\Local\Temp\ccBEkVPc.s:22673  .debug_str:000000000000613e .LASF232
C:\Users\CYMR90~1\AppData\Local\Temp\ccBEkVPc.s:23261  .debug_str:000000000000883c .LASF233
C:\Users\CYMR90~1\AppData\Local\Temp\ccBEkVPc.s:25263  .debug_str:00000000000106dd .LASF234
C:\Users\CYMR90~1\AppData\Local\Temp\ccBEkVPc.s:24983  .debug_str:000000000000f522 .LASF235
C:\Users\CYMR90~1\AppData\Local\Temp\ccBEkVPc.s:30044  .debug_str:0000000000023695 .LASF236
C:\Users\CYMR90~1\AppData\Local\Temp\ccBEkVPc.s:25005  .debug_str:000000000000f673 .LASF237
C:\Users\CYMR90~1\AppData\Local\Temp\ccBEkVPc.s:30702  .debug_str:0000000000026269 .LASF238
C:\Users\CYMR90~1\AppData\Local\Temp\ccBEkVPc.s:30028  .debug_str:000000000002356a .LASF239
C:\Users\CYMR90~1\AppData\Local\Temp\ccBEkVPc.s:30256  .debug_str:0000000000024464 .LASF240
C:\Users\CYMR90~1\AppData\Local\Temp\ccBEkVPc.s:23073  .debug_str:0000000000007b27 .LASF241
C:\Users\CYMR90~1\AppData\Local\Temp\ccBEkVPc.s:24671  .debug_str:000000000000e217 .LASF242
C:\Users\CYMR90~1\AppData\Local\Temp\ccBEkVPc.s:25657  .debug_str:0000000000011fa9 .LASF243
C:\Users\CYMR90~1\AppData\Local\Temp\ccBEkVPc.s:30054  .debug_str:000000000002370d .LASF244
C:\Users\CYMR90~1\AppData\Local\Temp\ccBEkVPc.s:25845  .debug_str:0000000000012c1b .LASF245
C:\Users\CYMR90~1\AppData\Local\Temp\ccBEkVPc.s:28906  .debug_str:000000000001f1ee .LASF246
C:\Users\CYMR90~1\AppData\Local\Temp\ccBEkVPc.s:27228  .debug_str:000000000001850c .LASF247
C:\Users\CYMR90~1\AppData\Local\Temp\ccBEkVPc.s:26745  .debug_str:00000000000164e6 .LASF248
C:\Users\CYMR90~1\AppData\Local\Temp\ccBEkVPc.s:28254  .debug_str:000000000001c7ad .LASF249
C:\Users\CYMR90~1\AppData\Local\Temp\ccBEkVPc.s:27622  .debug_str:0000000000019ed7 .LASF250
C:\Users\CYMR90~1\AppData\Local\Temp\ccBEkVPc.s:28188  .debug_str:000000000001c3bf .LASF251
C:\Users\CYMR90~1\AppData\Local\Temp\ccBEkVPc.s:29874  .debug_str:0000000000022cfa .LASF252
C:\Users\CYMR90~1\AppData\Local\Temp\ccBEkVPc.s:24559  .debug_str:000000000000db66 .LASF253
C:\Users\CYMR90~1\AppData\Local\Temp\ccBEkVPc.s:30554  .debug_str:000000000002593b .LASF254
C:\Users\CYMR90~1\AppData\Local\Temp\ccBEkVPc.s:24421  .debug_str:000000000000d297 .LASF255
C:\Users\CYMR90~1\AppData\Local\Temp\ccBEkVPc.s:27532  .debug_str:0000000000019961 .LASF256
C:\Users\CYMR90~1\AppData\Local\Temp\ccBEkVPc.s:24667  .debug_str:000000000000e1e5 .LASF257
C:\Users\CYMR90~1\AppData\Local\Temp\ccBEkVPc.s:28842  .debug_str:000000000001edd9 .LASF258
C:\Users\CYMR90~1\AppData\Local\Temp\ccBEkVPc.s:23881  .debug_str:000000000000aea6 .LASF259
C:\Users\CYMR90~1\AppData\Local\Temp\ccBEkVPc.s:21301  .debug_str:0000000000000a44 .LASF260
C:\Users\CYMR90~1\AppData\Local\Temp\ccBEkVPc.s:29868  .debug_str:0000000000022c80 .LASF261
C:\Users\CYMR90~1\AppData\Local\Temp\ccBEkVPc.s:31144  .debug_str:0000000000027eb9 .LASF262
C:\Users\CYMR90~1\AppData\Local\Temp\ccBEkVPc.s:26153  .debug_str:0000000000013ff8 .LASF263
C:\Users\CYMR90~1\AppData\Local\Temp\ccBEkVPc.s:28142  .debug_str:000000000001c10f .LASF264
C:\Users\CYMR90~1\AppData\Local\Temp\ccBEkVPc.s:25113  .debug_str:000000000000fd9e .LASF265
C:\Users\CYMR90~1\AppData\Local\Temp\ccBEkVPc.s:24591  .debug_str:000000000000dd46 .LASF266
C:\Users\CYMR90~1\AppData\Local\Temp\ccBEkVPc.s:23931  .debug_str:000000000000b276 .LASF267
C:\Users\CYMR90~1\AppData\Local\Temp\ccBEkVPc.s:28242  .debug_str:000000000001c6af .LASF268
C:\Users\CYMR90~1\AppData\Local\Temp\ccBEkVPc.s:24233  .debug_str:000000000000c5d3 .LASF269
C:\Users\CYMR90~1\AppData\Local\Temp\ccBEkVPc.s:25179  .debug_str:00000000000101db .LASF270
C:\Users\CYMR90~1\AppData\Local\Temp\ccBEkVPc.s:26435  .debug_str:00000000000151cf .LASF271
C:\Users\CYMR90~1\AppData\Local\Temp\ccBEkVPc.s:30804  .debug_str:00000000000268e5 .LASF272
C:\Users\CYMR90~1\AppData\Local\Temp\ccBEkVPc.s:22833  .debug_str:0000000000006afd .LASF273
C:\Users\CYMR90~1\AppData\Local\Temp\ccBEkVPc.s:21747  .debug_str:000000000000253d .LASF274
C:\Users\CYMR90~1\AppData\Local\Temp\ccBEkVPc.s:22929  .debug_str:0000000000007152 .LASF275
C:\Users\CYMR90~1\AppData\Local\Temp\ccBEkVPc.s:21999  .debug_str:000000000000355f .LASF276
C:\Users\CYMR90~1\AppData\Local\Temp\ccBEkVPc.s:24129  .debug_str:000000000000bfa5 .LASF277
C:\Users\CYMR90~1\AppData\Local\Temp\ccBEkVPc.s:21435  .debug_str:0000000000001290 .LASF278
C:\Users\CYMR90~1\AppData\Local\Temp\ccBEkVPc.s:22755  .debug_str:000000000000660c .LASF279
C:\Users\CYMR90~1\AppData\Local\Temp\ccBEkVPc.s:31466  .debug_str:00000000000294bb .LASF280
C:\Users\CYMR90~1\AppData\Local\Temp\ccBEkVPc.s:23633  .debug_str:0000000000009f81 .LASF281
C:\Users\CYMR90~1\AppData\Local\Temp\ccBEkVPc.s:22721  .debug_str:000000000000643c .LASF282
C:\Users\CYMR90~1\AppData\Local\Temp\ccBEkVPc.s:22619  .debug_str:0000000000005de2 .LASF283
C:\Users\CYMR90~1\AppData\Local\Temp\ccBEkVPc.s:22381  .debug_str:0000000000004f6b .LASF284
C:\Users\CYMR90~1\AppData\Local\Temp\ccBEkVPc.s:30356  .debug_str:0000000000024ace .LASF285
C:\Users\CYMR90~1\AppData\Local\Temp\ccBEkVPc.s:31176  .debug_str:0000000000028150 .LASF286
C:\Users\CYMR90~1\AppData\Local\Temp\ccBEkVPc.s:31452  .debug_str:0000000000029355 .LASF287
C:\Users\CYMR90~1\AppData\Local\Temp\ccBEkVPc.s:31362  .debug_str:0000000000028da0 .LASF288
C:\Users\CYMR90~1\AppData\Local\Temp\ccBEkVPc.s:32206  .debug_str:000000000002c2fb .LASF289
C:\Users\CYMR90~1\AppData\Local\Temp\ccBEkVPc.s:27172  .debug_str:00000000000181c9 .LASF290
C:\Users\CYMR90~1\AppData\Local\Temp\ccBEkVPc.s:26207  .debug_str:000000000001433c .LASF291
C:\Users\CYMR90~1\AppData\Local\Temp\ccBEkVPc.s:30394  .debug_str:0000000000024d34 .LASF292
C:\Users\CYMR90~1\AppData\Local\Temp\ccBEkVPc.s:22027  .debug_str:00000000000037a9 .LASF293
C:\Users\CYMR90~1\AppData\Local\Temp\ccBEkVPc.s:29354  .debug_str:0000000000020d5a .LASF294
C:\Users\CYMR90~1\AppData\Local\Temp\ccBEkVPc.s:22301  .debug_str:0000000000004a72 .LASF295
C:\Users\CYMR90~1\AppData\Local\Temp\ccBEkVPc.s:31798  .debug_str:000000000002a8a2 .LASF296
C:\Users\CYMR90~1\AppData\Local\Temp\ccBEkVPc.s:31984  .debug_str:000000000002b404 .LASF297
C:\Users\CYMR90~1\AppData\Local\Temp\ccBEkVPc.s:27050  .debug_str:0000000000017a9b .LASF298
C:\Users\CYMR90~1\AppData\Local\Temp\ccBEkVPc.s:21285  .debug_str:000000000000093e .LASF299
C:\Users\CYMR90~1\AppData\Local\Temp\ccBEkVPc.s:25085  .debug_str:000000000000fbcc .LASF300
C:\Users\CYMR90~1\AppData\Local\Temp\ccBEkVPc.s:27802  .debug_str:000000000001abb3 .LASF301
C:\Users\CYMR90~1\AppData\Local\Temp\ccBEkVPc.s:26319  .debug_str:0000000000014a2c .LASF302
C:\Users\CYMR90~1\AppData\Local\Temp\ccBEkVPc.s:25795  .debug_str:00000000000128f1 .LASF303
C:\Users\CYMR90~1\AppData\Local\Temp\ccBEkVPc.s:21671  .debug_str:00000000000020e5 .LASF304
C:\Users\CYMR90~1\AppData\Local\Temp\ccBEkVPc.s:24241  .debug_str:000000000000c657 .LASF305
C:\Users\CYMR90~1\AppData\Local\Temp\ccBEkVPc.s:29556  .debug_str:00000000000219e9 .LASF306
C:\Users\CYMR90~1\AppData\Local\Temp\ccBEkVPc.s:25101  .debug_str:000000000000fcd5 .LASF307
C:\Users\CYMR90~1\AppData\Local\Temp\ccBEkVPc.s:30378  .debug_str:0000000000024c3b .LASF308
C:\Users\CYMR90~1\AppData\Local\Temp\ccBEkVPc.s:29996  .debug_str:0000000000023393 .LASF309
C:\Users\CYMR90~1\AppData\Local\Temp\ccBEkVPc.s:24649  .debug_str:000000000000e0d1 .LASF310
C:\Users\CYMR90~1\AppData\Local\Temp\ccBEkVPc.s:30698  .debug_str:000000000002623e .LASF311
C:\Users\CYMR90~1\AppData\Local\Temp\ccBEkVPc.s:30212  .debug_str:0000000000024139 .LASF312
C:\Users\CYMR90~1\AppData\Local\Temp\ccBEkVPc.s:24361  .debug_str:000000000000ce8f .LASF313
C:\Users\CYMR90~1\AppData\Local\Temp\ccBEkVPc.s:27314  .debug_str:0000000000018a72 .LASF316
C:\Users\CYMR90~1\AppData\Local\Temp\ccBEkVPc.s:27674  .debug_str:000000000001a1d9 .LASF317
C:\Users\CYMR90~1\AppData\Local\Temp\ccBEkVPc.s:28032  .debug_str:000000000001ba32 .LASF318
C:\Users\CYMR90~1\AppData\Local\Temp\ccBEkVPc.s:25093  .debug_str:000000000000fc69 .LASF319
C:\Users\CYMR90~1\AppData\Local\Temp\ccBEkVPc.s:24003  .debug_str:000000000000b70d .LASF320
C:\Users\CYMR90~1\AppData\Local\Temp\ccBEkVPc.s:31410  .debug_str:00000000000290d4 .LASF321
C:\Users\CYMR90~1\AppData\Local\Temp\ccBEkVPc.s:24557  .debug_str:000000000000db59 .LASF322
C:\Users\CYMR90~1\AppData\Local\Temp\ccBEkVPc.s:30648  .debug_str:0000000000025f09 .LASF323
C:\Users\CYMR90~1\AppData\Local\Temp\ccBEkVPc.s:21173  .debug_str:0000000000000286 .LASF324
C:\Users\CYMR90~1\AppData\Local\Temp\ccBEkVPc.s:31820  .debug_str:000000000002a9d7 .LASF325
C:\Users\CYMR90~1\AppData\Local\Temp\ccBEkVPc.s:22081  .debug_str:0000000000003b13 .LASF326
C:\Users\CYMR90~1\AppData\Local\Temp\ccBEkVPc.s:26141  .debug_str:0000000000013f3b .LASF327
C:\Users\CYMR90~1\AppData\Local\Temp\ccBEkVPc.s:25797  .debug_str:0000000000012906 .LASF328
C:\Users\CYMR90~1\AppData\Local\Temp\ccBEkVPc.s:28690  .debug_str:000000000001e4c9 .LASF329
C:\Users\CYMR90~1\AppData\Local\Temp\ccBEkVPc.s:28682  .debug_str:000000000001e478 .LASF330
C:\Users\CYMR90~1\AppData\Local\Temp\ccBEkVPc.s:30842  .debug_str:0000000000026b37 .LASF331
C:\Users\CYMR90~1\AppData\Local\Temp\ccBEkVPc.s:31390  .debug_str:0000000000028f82 .LASF332
C:\Users\CYMR90~1\AppData\Local\Temp\ccBEkVPc.s:31584  .debug_str:0000000000029bdf .LASF333
C:\Users\CYMR90~1\AppData\Local\Temp\ccBEkVPc.s:27648  .debug_str:000000000001a05e .LASF334
C:\Users\CYMR90~1\AppData\Local\Temp\ccBEkVPc.s:27096  .debug_str:0000000000017d40 .LASF335
C:\Users\CYMR90~1\AppData\Local\Temp\ccBEkVPc.s:31434  .debug_str:0000000000029269 .LASF336
C:\Users\CYMR90~1\AppData\Local\Temp\ccBEkVPc.s:25725  .debug_str:0000000000012403 .LASF337
C:\Users\CYMR90~1\AppData\Local\Temp\ccBEkVPc.s:29408  .debug_str:0000000000021076 .LASF338
C:\Users\CYMR90~1\AppData\Local\Temp\ccBEkVPc.s:23751  .debug_str:000000000000a6b2 .LASF339
C:\Users\CYMR90~1\AppData\Local\Temp\ccBEkVPc.s:25929  .debug_str:00000000000131ce .LASF340
C:\Users\CYMR90~1\AppData\Local\Temp\ccBEkVPc.s:27856  .debug_str:000000000001aed4 .LASF341
C:\Users\CYMR90~1\AppData\Local\Temp\ccBEkVPc.s:24065  .debug_str:000000000000bb44 .LASF342
C:\Users\CYMR90~1\AppData\Local\Temp\ccBEkVPc.s:21417  .debug_str:00000000000011bc .LASF343
C:\Users\CYMR90~1\AppData\Local\Temp\ccBEkVPc.s:31548  .debug_str:00000000000299b1 .LASF344
C:\Users\CYMR90~1\AppData\Local\Temp\ccBEkVPc.s:32146  .debug_str:000000000002beef .LASF345
C:\Users\CYMR90~1\AppData\Local\Temp\ccBEkVPc.s:24973  .debug_str:000000000000f49a .LASF346
C:\Users\CYMR90~1\AppData\Local\Temp\ccBEkVPc.s:21273  .debug_str:0000000000000887 .LASF347
C:\Users\CYMR90~1\AppData\Local\Temp\ccBEkVPc.s:29202  .debug_str:00000000000203bf .LASF348
C:\Users\CYMR90~1\AppData\Local\Temp\ccBEkVPc.s:31154  .debug_str:0000000000027f88 .LASF349
C:\Users\CYMR90~1\AppData\Local\Temp\ccBEkVPc.s:28684  .debug_str:000000000001e484 .LASF350
C:\Users\CYMR90~1\AppData\Local\Temp\ccBEkVPc.s:21209  .debug_str:00000000000004cd .LASF351
C:\Users\CYMR90~1\AppData\Local\Temp\ccBEkVPc.s:28976  .debug_str:000000000001f640 .LASF352
C:\Users\CYMR90~1\AppData\Local\Temp\ccBEkVPc.s:30640  .debug_str:0000000000025e9f .LASF353
C:\Users\CYMR90~1\AppData\Local\Temp\ccBEkVPc.s:28300  .debug_str:000000000001cb2c .LASF354
C:\Users\CYMR90~1\AppData\Local\Temp\ccBEkVPc.s:28468  .debug_str:000000000001d6b2 .LASF355
C:\Users\CYMR90~1\AppData\Local\Temp\ccBEkVPc.s:24445  .debug_str:000000000000d4bb .LASF356
C:\Users\CYMR90~1\AppData\Local\Temp\ccBEkVPc.s:27606  .debug_str:0000000000019e05 .LASF357
C:\Users\CYMR90~1\AppData\Local\Temp\ccBEkVPc.s:31064  .debug_str:0000000000027951 .LASF358
C:\Users\CYMR90~1\AppData\Local\Temp\ccBEkVPc.s:25787  .debug_str:0000000000012846 .LASF359
C:\Users\CYMR90~1\AppData\Local\Temp\ccBEkVPc.s:23851  .debug_str:000000000000acf7 .LASF360
C:\Users\CYMR90~1\AppData\Local\Temp\ccBEkVPc.s:28858  .debug_str:000000000001eec8 .LASF361
C:\Users\CYMR90~1\AppData\Local\Temp\ccBEkVPc.s:25521  .debug_str:000000000001164c .LASF362
C:\Users\CYMR90~1\AppData\Local\Temp\ccBEkVPc.s:31328  .debug_str:0000000000028bc0 .LASF363
C:\Users\CYMR90~1\AppData\Local\Temp\ccBEkVPc.s:23395  .debug_str:000000000000908e .LASF364
C:\Users\CYMR90~1\AppData\Local\Temp\ccBEkVPc.s:31226  .debug_str:00000000000284eb .LASF365
C:\Users\CYMR90~1\AppData\Local\Temp\ccBEkVPc.s:22793  .debug_str:00000000000068c0 .LASF366
C:\Users\CYMR90~1\AppData\Local\Temp\ccBEkVPc.s:25919  .debug_str:000000000001310a .LASF367
C:\Users\CYMR90~1\AppData\Local\Temp\ccBEkVPc.s:23081  .debug_str:0000000000007ba5 .LASF368
C:\Users\CYMR90~1\AppData\Local\Temp\ccBEkVPc.s:27140  .debug_str:0000000000017fec .LASF372
C:\Users\CYMR90~1\AppData\Local\Temp\ccBEkVPc.s:30882  .debug_str:0000000000026db0 .LASF373
C:\Users\CYMR90~1\AppData\Local\Temp\ccBEkVPc.s:23833  .debug_str:000000000000abc5 .LASF374
C:\Users\CYMR90~1\AppData\Local\Temp\ccBEkVPc.s:26928  .debug_str:00000000000172e0 .LASF375
C:\Users\CYMR90~1\AppData\Local\Temp\ccBEkVPc.s:27126  .debug_str:0000000000017f1e .LASF376
C:\Users\CYMR90~1\AppData\Local\Temp\ccBEkVPc.s:29648  .debug_str:0000000000021f89 .LASF377
C:\Users\CYMR90~1\AppData\Local\Temp\ccBEkVPc.s:28316  .debug_str:000000000001cbf7 .LASF378
C:\Users\CYMR90~1\AppData\Local\Temp\ccBEkVPc.s:31976  .debug_str:000000000002b391 .LASF379
C:\Users\CYMR90~1\AppData\Local\Temp\ccBEkVPc.s:21761  .debug_str:000000000000263b .LASF380
C:\Users\CYMR90~1\AppData\Local\Temp\ccBEkVPc.s:31920  .debug_str:000000000002afcf .LASF381
C:\Users\CYMR90~1\AppData\Local\Temp\ccBEkVPc.s:28040  .debug_str:000000000001ba83 .LASF382
C:\Users\CYMR90~1\AppData\Local\Temp\ccBEkVPc.s:22851  .debug_str:0000000000006c2d .LASF383
C:\Users\CYMR90~1\AppData\Local\Temp\ccBEkVPc.s:24211  .debug_str:000000000000c491 .LASF384
C:\Users\CYMR90~1\AppData\Local\Temp\ccBEkVPc.s:27548  .debug_str:0000000000019a7e .LASF385
C:\Users\CYMR90~1\AppData\Local\Temp\ccBEkVPc.s:25211  .debug_str:00000000000103cd .LASF386
C:\Users\CYMR90~1\AppData\Local\Temp\ccBEkVPc.s:21697  .debug_str:0000000000002273 .LASF387
C:\Users\CYMR90~1\AppData\Local\Temp\ccBEkVPc.s:24817  .debug_str:000000000000eb64 .LASF388
C:\Users\CYMR90~1\AppData\Local\Temp\ccBEkVPc.s:23365  .debug_str:0000000000008ec6 .LASF389
C:\Users\CYMR90~1\AppData\Local\Temp\ccBEkVPc.s:22169  .debug_str:000000000000415b .LASF391
C:\Users\CYMR90~1\AppData\Local\Temp\ccBEkVPc.s:25219  .debug_str:0000000000010439 .LASF392
C:\Users\CYMR90~1\AppData\Local\Temp\ccBEkVPc.s:29300  .debug_str:00000000000209ed .LASF393
C:\Users\CYMR90~1\AppData\Local\Temp\ccBEkVPc.s:31020  .debug_str:00000000000276bd .LASF394
C:\Users\CYMR90~1\AppData\Local\Temp\ccBEkVPc.s:21721  .debug_str:00000000000023b5 .LASF395
C:\Users\CYMR90~1\AppData\Local\Temp\ccBEkVPc.s:23875  .debug_str:000000000000ae42 .LASF396
C:\Users\CYMR90~1\AppData\Local\Temp\ccBEkVPc.s:27654  .debug_str:000000000001a0be .LASF397
C:\Users\CYMR90~1\AppData\Local\Temp\ccBEkVPc.s:31796  .debug_str:000000000002a890 .LASF398
C:\Users\CYMR90~1\AppData\Local\Temp\ccBEkVPc.s:26493  .debug_str:000000000001552a .LASF399
C:\Users\CYMR90~1\AppData\Local\Temp\ccBEkVPc.s:28936  .debug_str:000000000001f3b9 .LASF400
C:\Users\CYMR90~1\AppData\Local\Temp\ccBEkVPc.s:23353  .debug_str:0000000000008daf .LASF401
C:\Users\CYMR90~1\AppData\Local\Temp\ccBEkVPc.s:26982  .debug_str:000000000001761e .LASF402
C:\Users\CYMR90~1\AppData\Local\Temp\ccBEkVPc.s:22689  .debug_str:000000000000623f .LASF403
C:\Users\CYMR90~1\AppData\Local\Temp\ccBEkVPc.s:23805  .debug_str:000000000000a9f2 .LASF404
C:\Users\CYMR90~1\AppData\Local\Temp\ccBEkVPc.s:24871  .debug_str:000000000000ee7a .LASF405
C:\Users\CYMR90~1\AppData\Local\Temp\ccBEkVPc.s:28226  .debug_str:000000000001c5cf .LASF406
C:\Users\CYMR90~1\AppData\Local\Temp\ccBEkVPc.s:26415  .debug_str:00000000000150bc .LASF407
C:\Users\CYMR90~1\AppData\Local\Temp\ccBEkVPc.s:27390  .debug_str:0000000000018f85 .LASF408
C:\Users\CYMR90~1\AppData\Local\Temp\ccBEkVPc.s:29598  .debug_str:0000000000021c55 .LASF409
C:\Users\CYMR90~1\AppData\Local\Temp\ccBEkVPc.s:22641  .debug_str:0000000000005f38 .LASF410
C:\Users\CYMR90~1\AppData\Local\Temp\ccBEkVPc.s:26603  .debug_str:0000000000015b9f .LASF411
C:\Users\CYMR90~1\AppData\Local\Temp\ccBEkVPc.s:29716  .debug_str:00000000000223a4 .LASF412
C:\Users\CYMR90~1\AppData\Local\Temp\ccBEkVPc.s:22825  .debug_str:0000000000006a9d .LASF413
C:\Users\CYMR90~1\AppData\Local\Temp\ccBEkVPc.s:31424  .debug_str:00000000000291b6 .LASF414
C:\Users\CYMR90~1\AppData\Local\Temp\ccBEkVPc.s:24975  .debug_str:000000000000f4a8 .LASF415
C:\Users\CYMR90~1\AppData\Local\Temp\ccBEkVPc.s:30758  .debug_str:00000000000265f2 .LASF416
C:\Users\CYMR90~1\AppData\Local\Temp\ccBEkVPc.s:32270  .debug_str:000000000002c752 .LASF417
C:\Users\CYMR90~1\AppData\Local\Temp\ccBEkVPc.s:23279  .debug_str:0000000000008962 .LASF418
C:\Users\CYMR90~1\AppData\Local\Temp\ccBEkVPc.s:31644  .debug_str:0000000000029f57 .LASF419
C:\Users\CYMR90~1\AppData\Local\Temp\ccBEkVPc.s:22897  .debug_str:0000000000006f3b .LASF420
C:\Users\CYMR90~1\AppData\Local\Temp\ccBEkVPc.s:31838  .debug_str:000000000002aacd .LASF421
C:\Users\CYMR90~1\AppData\Local\Temp\ccBEkVPc.s:24139  .debug_str:000000000000c059 .LASF422
C:\Users\CYMR90~1\AppData\Local\Temp\ccBEkVPc.s:24339  .debug_str:000000000000cd65 .LASF423
C:\Users\CYMR90~1\AppData\Local\Temp\ccBEkVPc.s:28836  .debug_str:000000000001ed95 .LASF424
C:\Users\CYMR90~1\AppData\Local\Temp\ccBEkVPc.s:27430  .debug_str:00000000000192a1 .LASF425
C:\Users\CYMR90~1\AppData\Local\Temp\ccBEkVPc.s:21183  .debug_str:000000000000033f .LASF426
C:\Users\CYMR90~1\AppData\Local\Temp\ccBEkVPc.s:22279  .debug_str:0000000000004917 .LASF427
C:\Users\CYMR90~1\AppData\Local\Temp\ccBEkVPc.s:26685  .debug_str:000000000001617f .LASF428
C:\Users\CYMR90~1\AppData\Local\Temp\ccBEkVPc.s:28604  .debug_str:000000000001dfb6 .LASF429
C:\Users\CYMR90~1\AppData\Local\Temp\ccBEkVPc.s:25157  .debug_str:0000000000010070 .LASF430
C:\Users\CYMR90~1\AppData\Local\Temp\ccBEkVPc.s:26880  .debug_str:0000000000017032 .LASF431
C:\Users\CYMR90~1\AppData\Local\Temp\ccBEkVPc.s:29670  .debug_str:00000000000220b7 .LASF432
C:\Users\CYMR90~1\AppData\Local\Temp\ccBEkVPc.s:24323  .debug_str:000000000000cc85 .LASF434
C:\Users\CYMR90~1\AppData\Local\Temp\ccBEkVPc.s:22355  .debug_str:0000000000004de2 .LASF435
C:\Users\CYMR90~1\AppData\Local\Temp\ccBEkVPc.s:27070  .debug_str:0000000000017bbb .LASF436
C:\Users\CYMR90~1\AppData\Local\Temp\ccBEkVPc.s:22917  .debug_str:0000000000007077 .LASF437
C:\Users\CYMR90~1\AppData\Local\Temp\ccBEkVPc.s:31352  .debug_str:0000000000028d0b .LASF438
C:\Users\CYMR90~1\AppData\Local\Temp\ccBEkVPc.s:21145  .debug_str:00000000000000e9 .LASF439
C:\Users\CYMR90~1\AppData\Local\Temp\ccBEkVPc.s:28874  .debug_str:000000000001efc9 .LASF440
C:\Users\CYMR90~1\AppData\Local\Temp\ccBEkVPc.s:24565  .debug_str:000000000000dbbe .LASF441
C:\Users\CYMR90~1\AppData\Local\Temp\ccBEkVPc.s:29902  .debug_str:0000000000022e88 .LASF442
C:\Users\CYMR90~1\AppData\Local\Temp\ccBEkVPc.s:25457  .debug_str:0000000000011266 .LASF443
C:\Users\CYMR90~1\AppData\Local\Temp\ccBEkVPc.s:25291  .debug_str:0000000000010892 .LASF444
C:\Users\CYMR90~1\AppData\Local\Temp\ccBEkVPc.s:32264  .debug_str:000000000002c706 .LASF445
C:\Users\CYMR90~1\AppData\Local\Temp\ccBEkVPc.s:32204  .debug_str:000000000002c2f5 .LASF446
C:\Users\CYMR90~1\AppData\Local\Temp\ccBEkVPc.s:25645  .debug_str:0000000000011ee6 .LASF447
C:\Users\CYMR90~1\AppData\Local\Temp\ccBEkVPc.s:29876  .debug_str:0000000000022d0c .LASF448
C:\Users\CYMR90~1\AppData\Local\Temp\ccBEkVPc.s:22181  .debug_str:0000000000004206 .LASF449
C:\Users\CYMR90~1\AppData\Local\Temp\ccBEkVPc.s:22937  .debug_str:00000000000071e0 .LASF450
C:\Users\CYMR90~1\AppData\Local\Temp\ccBEkVPc.s:21653  .debug_str:0000000000002008 .LASF451
C:\Users\CYMR90~1\AppData\Local\Temp\ccBEkVPc.s:26327  .debug_str:0000000000014ace .LASF452
C:\Users\CYMR90~1\AppData\Local\Temp\ccBEkVPc.s:21643  .debug_str:0000000000001f95 .LASF453
C:\Users\CYMR90~1\AppData\Local\Temp\ccBEkVPc.s:32210  .debug_str:000000000002c33b .LASF454
C:\Users\CYMR90~1\AppData\Local\Temp\ccBEkVPc.s:24739  .debug_str:000000000000e62c .LASF455
C:\Users\CYMR90~1\AppData\Local\Temp\ccBEkVPc.s:29502  .debug_str:00000000000216a6 .LASF456
C:\Users\CYMR90~1\AppData\Local\Temp\ccBEkVPc.s:24415  .debug_str:000000000000d253 .LASF457
C:\Users\CYMR90~1\AppData\Local\Temp\ccBEkVPc.s:22701  .debug_str:00000000000062ec .LASF458
C:\Users\CYMR90~1\AppData\Local\Temp\ccBEkVPc.s:25359  .debug_str:0000000000010d22 .LASF459
C:\Users\CYMR90~1\AppData\Local\Temp\ccBEkVPc.s:29254  .debug_str:0000000000020751 .LASF460
C:\Users\CYMR90~1\AppData\Local\Temp\ccBEkVPc.s:30382  .debug_str:0000000000024c55 .LASF461
C:\Users\CYMR90~1\AppData\Local\Temp\ccBEkVPc.s:26847  .debug_str:0000000000016c5e .LASF462
C:\Users\CYMR90~1\AppData\Local\Temp\ccBEkVPc.s:27706  .debug_str:000000000001a55a .LASF463
C:\Users\CYMR90~1\AppData\Local\Temp\ccBEkVPc.s:24581  .debug_str:000000000000dc8a .LASF464
C:\Users\CYMR90~1\AppData\Local\Temp\ccBEkVPc.s:25737  .debug_str:0000000000012516 .LASF465
C:\Users\CYMR90~1\AppData\Local\Temp\ccBEkVPc.s:22843  .debug_str:0000000000006bc4 .LASF466
C:\Users\CYMR90~1\AppData\Local\Temp\ccBEkVPc.s:23413  .debug_str:0000000000009171 .LASF467
C:\Users\CYMR90~1\AppData\Local\Temp\ccBEkVPc.s:25497  .debug_str:00000000000114d1 .LASF468
C:\Users\CYMR90~1\AppData\Local\Temp\ccBEkVPc.s:21977  .debug_str:0000000000003418 .LASF469
C:\Users\CYMR90~1\AppData\Local\Temp\ccBEkVPc.s:25255  .debug_str:0000000000010658 .LASF470
C:\Users\CYMR90~1\AppData\Local\Temp\ccBEkVPc.s:25133  .debug_str:000000000000fee5 .LASF471
C:\Users\CYMR90~1\AppData\Local\Temp\ccBEkVPc.s:24713  .debug_str:000000000000e4a0 .LASF472
C:\Users\CYMR90~1\AppData\Local\Temp\ccBEkVPc.s:21357  .debug_str:0000000000000dd0 .LASF473
C:\Users\CYMR90~1\AppData\Local\Temp\ccBEkVPc.s:22963  .debug_str:00000000000073e1 .LASF474
C:\Users\CYMR90~1\AppData\Local\Temp\ccBEkVPc.s:21303  .debug_str:0000000000000a82 .LASF475
C:\Users\CYMR90~1\AppData\Local\Temp\ccBEkVPc.s:22147  .debug_str:0000000000003f71 .LASF476
C:\Users\CYMR90~1\AppData\Local\Temp\ccBEkVPc.s:21521  .debug_str:0000000000001873 .LASF477
C:\Users\CYMR90~1\AppData\Local\Temp\ccBEkVPc.s:26629  .debug_str:0000000000015d94 .LASF478
C:\Users\CYMR90~1\AppData\Local\Temp\ccBEkVPc.s:24021  .debug_str:000000000000b871 .LASF479
C:\Users\CYMR90~1\AppData\Local\Temp\ccBEkVPc.s:31834  .debug_str:000000000002aa9d .LASF480
C:\Users\CYMR90~1\AppData\Local\Temp\ccBEkVPc.s:27222  .debug_str:00000000000184b2 .LASF481
C:\Users\CYMR90~1\AppData\Local\Temp\ccBEkVPc.s:23941  .debug_str:000000000000b30b .LASF482
C:\Users\CYMR90~1\AppData\Local\Temp\ccBEkVPc.s:22741  .debug_str:000000000000654c .LASF483
C:\Users\CYMR90~1\AppData\Local\Temp\ccBEkVPc.s:21269  .debug_str:0000000000000840 .LASF484
C:\Users\CYMR90~1\AppData\Local\Temp\ccBEkVPc.s:27170  .debug_str:00000000000181a6 .LASF485
C:\Users\CYMR90~1\AppData\Local\Temp\ccBEkVPc.s:22367  .debug_str:0000000000004e93 .LASF486
C:\Users\CYMR90~1\AppData\Local\Temp\ccBEkVPc.s:26079  .debug_str:0000000000013bbf .LASF487
C:\Users\CYMR90~1\AppData\Local\Temp\ccBEkVPc.s:25279  .debug_str:00000000000107ea .LASF488
C:\Users\CYMR90~1\AppData\Local\Temp\ccBEkVPc.s:25849  .debug_str:0000000000012c7d .LASF489
C:\Users\CYMR90~1\AppData\Local\Temp\ccBEkVPc.s:24297  .debug_str:000000000000cb31 .LASF490
C:\Users\CYMR90~1\AppData\Local\Temp\ccBEkVPc.s:23277  .debug_str:0000000000008954 .LASF491
C:\Users\CYMR90~1\AppData\Local\Temp\ccBEkVPc.s:24929  .debug_str:000000000000f1f2 .LASF492
C:\Users\CYMR90~1\AppData\Local\Temp\ccBEkVPc.s:23283  .debug_str:00000000000089a0 .LASF493
C:\Users\CYMR90~1\AppData\Local\Temp\ccBEkVPc.s:25139  .debug_str:000000000000ff59 .LASF494
C:\Users\CYMR90~1\AppData\Local\Temp\ccBEkVPc.s:27420  .debug_str:0000000000019206 .LASF495
C:\Users\CYMR90~1\AppData\Local\Temp\ccBEkVPc.s:32288  .debug_str:000000000002c85f .LASF496
C:\Users\CYMR90~1\AppData\Local\Temp\ccBEkVPc.s:32226  .debug_str:000000000002c495 .LASF497
C:\Users\CYMR90~1\AppData\Local\Temp\ccBEkVPc.s:24979  .debug_str:000000000000f4ef .LASF498
C:\Users\CYMR90~1\AppData\Local\Temp\ccBEkVPc.s:31450  .debug_str:0000000000029330 .LASF499
C:\Users\CYMR90~1\AppData\Local\Temp\ccBEkVPc.s:31552  .debug_str:00000000000299d4 .LASF500
C:\Users\CYMR90~1\AppData\Local\Temp\ccBEkVPc.s:26289  .debug_str:0000000000014878 .LASF501
C:\Users\CYMR90~1\AppData\Local\Temp\ccBEkVPc.s:31508  .debug_str:000000000002977f .LASF502
C:\Users\CYMR90~1\AppData\Local\Temp\ccBEkVPc.s:26239  .debug_str:00000000000144f5 .LASF503
C:\Users\CYMR90~1\AppData\Local\Temp\ccBEkVPc.s:21845  .debug_str:0000000000002bac .LASF504
C:\Users\CYMR90~1\AppData\Local\Temp\ccBEkVPc.s:30152  .debug_str:0000000000023cd4 .LASF505
C:\Users\CYMR90~1\AppData\Local\Temp\ccBEkVPc.s:31016  .debug_str:000000000002768a .LASF506
C:\Users\CYMR90~1\AppData\Local\Temp\ccBEkVPc.s:30594  .debug_str:0000000000025bc4 .LASF507
C:\Users\CYMR90~1\AppData\Local\Temp\ccBEkVPc.s:27336  .debug_str:0000000000018bcb .LASF508
C:\Users\CYMR90~1\AppData\Local\Temp\ccBEkVPc.s:29588  .debug_str:0000000000021b92 .LASF509
C:\Users\CYMR90~1\AppData\Local\Temp\ccBEkVPc.s:31246  .debug_str:0000000000028652 .LASF510
C:\Users\CYMR90~1\AppData\Local\Temp\ccBEkVPc.s:27114  .debug_str:0000000000017e32 .LASF511
C:\Users\CYMR90~1\AppData\Local\Temp\ccBEkVPc.s:30870  .debug_str:0000000000026cbb .LASF512
C:\Users\CYMR90~1\AppData\Local\Temp\ccBEkVPc.s:30988  .debug_str:00000000000274f6 .LASF513
C:\Users\CYMR90~1\AppData\Local\Temp\ccBEkVPc.s:31432  .debug_str:000000000002922e .LASF514
C:\Users\CYMR90~1\AppData\Local\Temp\ccBEkVPc.s:26011  .debug_str:0000000000013782 .LASF515
C:\Users\CYMR90~1\AppData\Local\Temp\ccBEkVPc.s:31302  .debug_str:0000000000028a36 .LASF516
C:\Users\CYMR90~1\AppData\Local\Temp\ccBEkVPc.s:27490  .debug_str:000000000001962b .LASF517
C:\Users\CYMR90~1\AppData\Local\Temp\ccBEkVPc.s:31254  .debug_str:0000000000028706 .LASF518
C:\Users\CYMR90~1\AppData\Local\Temp\ccBEkVPc.s:28150  .debug_str:000000000001c177 .LASF519
C:\Users\CYMR90~1\AppData\Local\Temp\ccBEkVPc.s:32198  .debug_str:000000000002c293 .LASF520
C:\Users\CYMR90~1\AppData\Local\Temp\ccBEkVPc.s:28412  .debug_str:000000000001d34f .LASF521
C:\Users\CYMR90~1\AppData\Local\Temp\ccBEkVPc.s:30504  .debug_str:000000000002551c .LASF522
C:\Users\CYMR90~1\AppData\Local\Temp\ccBEkVPc.s:25893  .debug_str:0000000000012f40 .LASF523
C:\Users\CYMR90~1\AppData\Local\Temp\ccBEkVPc.s:30068  .debug_str:0000000000023818 .LASF524
C:\Users\CYMR90~1\AppData\Local\Temp\ccBEkVPc.s:23491  .debug_str:000000000000962f .LASF525
C:\Users\CYMR90~1\AppData\Local\Temp\ccBEkVPc.s:32218  .debug_str:000000000002c3a9 .LASF526
C:\Users\CYMR90~1\AppData\Local\Temp\ccBEkVPc.s:24747  .debug_str:000000000000e6aa .LASF527
C:\Users\CYMR90~1\AppData\Local\Temp\ccBEkVPc.s:25761  .debug_str:000000000001269e .LASF528
C:\Users\CYMR90~1\AppData\Local\Temp\ccBEkVPc.s:26609  .debug_str:0000000000015c03 .LASF529
C:\Users\CYMR90~1\AppData\Local\Temp\ccBEkVPc.s:26643  .debug_str:0000000000015e5d .LASF530
C:\Users\CYMR90~1\AppData\Local\Temp\ccBEkVPc.s:25685  .debug_str:0000000000012182 .LASF531
C:\Users\CYMR90~1\AppData\Local\Temp\ccBEkVPc.s:21905  .debug_str:0000000000002f29 .LASF532
C:\Users\CYMR90~1\AppData\Local\Temp\ccBEkVPc.s:24423  .debug_str:000000000000d2af .LASF533
C:\Users\CYMR90~1\AppData\Local\Temp\ccBEkVPc.s:32058  .debug_str:000000000002b8d2 .LASF534
C:\Users\CYMR90~1\AppData\Local\Temp\ccBEkVPc.s:24927  .debug_str:000000000000f1a6 .LASF535
C:\Users\CYMR90~1\AppData\Local\Temp\ccBEkVPc.s:30244  .debug_str:0000000000024384 .LASF536
C:\Users\CYMR90~1\AppData\Local\Temp\ccBEkVPc.s:31712  .debug_str:000000000002a339 .LASF537
C:\Users\CYMR90~1\AppData\Local\Temp\ccBEkVPc.s:25511  .debug_str:0000000000011593 .LASF538
C:\Users\CYMR90~1\AppData\Local\Temp\ccBEkVPc.s:26083  .debug_str:0000000000013bee .LASF539
C:\Users\CYMR90~1\AppData\Local\Temp\ccBEkVPc.s:28208  .debug_str:000000000001c4e3 .LASF540
C:\Users\CYMR90~1\AppData\Local\Temp\ccBEkVPc.s:24515  .debug_str:000000000000d8ef .LASF541
C:\Users\CYMR90~1\AppData\Local\Temp\ccBEkVPc.s:28500  .debug_str:000000000001d8c5 .LASF542
C:\Users\CYMR90~1\AppData\Local\Temp\ccBEkVPc.s:22255  .debug_str:00000000000046e9 .LASF543
C:\Users\CYMR90~1\AppData\Local\Temp\ccBEkVPc.s:24679  .debug_str:000000000000e27f .LASF544
C:\Users\CYMR90~1\AppData\Local\Temp\ccBEkVPc.s:31492  .debug_str:0000000000029670 .LASF545
C:\Users\CYMR90~1\AppData\Local\Temp\ccBEkVPc.s:26021  .debug_str:0000000000013811 .LASF546
C:\Users\CYMR90~1\AppData\Local\Temp\ccBEkVPc.s:29766  .debug_str:0000000000022631 .LASF547
C:\Users\CYMR90~1\AppData\Local\Temp\ccBEkVPc.s:31972  .debug_str:000000000002b350 .LASF548
C:\Users\CYMR90~1\AppData\Local\Temp\ccBEkVPc.s:21951  .debug_str:0000000000003256 .LASF549
C:\Users\CYMR90~1\AppData\Local\Temp\ccBEkVPc.s:23109  .debug_str:0000000000007d44 .LASF550
C:\Users\CYMR90~1\AppData\Local\Temp\ccBEkVPc.s:30766  .debug_str:0000000000026655 .LASF551
C:\Users\CYMR90~1\AppData\Local\Temp\ccBEkVPc.s:22669  .debug_str:00000000000060f5 .LASF552
C:\Users\CYMR90~1\AppData\Local\Temp\ccBEkVPc.s:31730  .debug_str:000000000002a435 .LASF553
C:\Users\CYMR90~1\AppData\Local\Temp\ccBEkVPc.s:24091  .debug_str:000000000000bcc7 .LASF554
C:\Users\CYMR90~1\AppData\Local\Temp\ccBEkVPc.s:24273  .debug_str:000000000000c8b5 .LASF555
C:\Users\CYMR90~1\AppData\Local\Temp\ccBEkVPc.s:22791  .debug_str:000000000000686d .LASF556
C:\Users\CYMR90~1\AppData\Local\Temp\ccBEkVPc.s:22489  .debug_str:00000000000055e7 .LASF557
C:\Users\CYMR90~1\AppData\Local\Temp\ccBEkVPc.s:25629  .debug_str:0000000000011dea .LASF558
C:\Users\CYMR90~1\AppData\Local\Temp\ccBEkVPc.s:27364  .debug_str:0000000000018df9 .LASF559
C:\Users\CYMR90~1\AppData\Local\Temp\ccBEkVPc.s:31292  .debug_str:0000000000028984 .LASF560
C:\Users\CYMR90~1\AppData\Local\Temp\ccBEkVPc.s:30566  .debug_str:00000000000259e5 .LASF561
C:\Users\CYMR90~1\AppData\Local\Temp\ccBEkVPc.s:25091  .debug_str:000000000000fc1e .LASF562
C:\Users\CYMR90~1\AppData\Local\Temp\ccBEkVPc.s:24465  .debug_str:000000000000d5e1 .LASF563
C:\Users\CYMR90~1\AppData\Local\Temp\ccBEkVPc.s:23789  .debug_str:000000000000a8d8 .LASF564
C:\Users\CYMR90~1\AppData\Local\Temp\ccBEkVPc.s:29528  .debug_str:000000000002180c .LASF565
C:\Users\CYMR90~1\AppData\Local\Temp\ccBEkVPc.s:28752  .debug_str:000000000001e881 .LASF566
C:\Users\CYMR90~1\AppData\Local\Temp\ccBEkVPc.s:25625  .debug_str:0000000000011da2 .LASF567
C:\Users\CYMR90~1\AppData\Local\Temp\ccBEkVPc.s:22671  .debug_str:0000000000006109 .LASF568
C:\Users\CYMR90~1\AppData\Local\Temp\ccBEkVPc.s:21329  .debug_str:0000000000000c48 .LASF570
C:\Users\CYMR90~1\AppData\Local\Temp\ccBEkVPc.s:26998  .debug_str:000000000001770f .LASF571
C:\Users\CYMR90~1\AppData\Local\Temp\ccBEkVPc.s:28146  .debug_str:000000000001c151 .LASF574
C:\Users\CYMR90~1\AppData\Local\Temp\ccBEkVPc.s:22223  .debug_str:00000000000044ce .LASF575
C:\Users\CYMR90~1\AppData\Local\Temp\ccBEkVPc.s:26245  .debug_str:000000000001458d .LASF576
C:\Users\CYMR90~1\AppData\Local\Temp\ccBEkVPc.s:23207  .debug_str:0000000000008518 .LASF577
C:\Users\CYMR90~1\AppData\Local\Temp\ccBEkVPc.s:29432  .debug_str:00000000000211ee .LASF579
C:\Users\CYMR90~1\AppData\Local\Temp\ccBEkVPc.s:28620  .debug_str:000000000001e0ba .LASF580
C:\Users\CYMR90~1\AppData\Local\Temp\ccBEkVPc.s:30150  .debug_str:0000000000023ccb .LASF581
C:\Users\CYMR90~1\AppData\Local\Temp\ccBEkVPc.s:22623  .debug_str:0000000000005e1e .LASF582
C:\Users\CYMR90~1\AppData\Local\Temp\ccBEkVPc.s:25237  .debug_str:000000000001053e .LASF583
C:\Users\CYMR90~1\AppData\Local\Temp\ccBEkVPc.s:21799  .debug_str:00000000000028da .LASF584
C:\Users\CYMR90~1\AppData\Local\Temp\ccBEkVPc.s:31590  .debug_str:0000000000029c3e .LASF585
C:\Users\CYMR90~1\AppData\Local\Temp\ccBEkVPc.s:29814  .debug_str:00000000000228ff .LASF586
C:\Users\CYMR90~1\AppData\Local\Temp\ccBEkVPc.s:28028  .debug_str:000000000001ba10 .LASF587
C:\Users\CYMR90~1\AppData\Local\Temp\ccBEkVPc.s:22861  .debug_str:0000000000006ce0 .LASF588
C:\Users\CYMR90~1\AppData\Local\Temp\ccBEkVPc.s:27274  .debug_str:00000000000187a2 .LASF589
C:\Users\CYMR90~1\AppData\Local\Temp\ccBEkVPc.s:27650  .debug_str:000000000001a067 .LASF590
C:\Users\CYMR90~1\AppData\Local\Temp\ccBEkVPc.s:28492  .debug_str:000000000001d859 .LASF591
C:\Users\CYMR90~1\AppData\Local\Temp\ccBEkVPc.s:30898  .debug_str:0000000000026eb5 .LASF592
C:\Users\CYMR90~1\AppData\Local\Temp\ccBEkVPc.s:30138  .debug_str:0000000000023c28 .LASF593
C:\Users\CYMR90~1\AppData\Local\Temp\ccBEkVPc.s:25201  .debug_str:0000000000010333 .LASF594
C:\Users\CYMR90~1\AppData\Local\Temp\ccBEkVPc.s:26077  .debug_str:0000000000013b9f .LASF595
C:\Users\CYMR90~1\AppData\Local\Temp\ccBEkVPc.s:25811  .debug_str:00000000000129f1 .LASF596
C:\Users\CYMR90~1\AppData\Local\Temp\ccBEkVPc.s:22965  .debug_str:0000000000007400 .LASF597
C:\Users\CYMR90~1\AppData\Local\Temp\ccBEkVPc.s:31114  .debug_str:0000000000027cfe .LASF598
C:\Users\CYMR90~1\AppData\Local\Temp\ccBEkVPc.s:25971  .debug_str:00000000000134ec .LASF599
C:\Users\CYMR90~1\AppData\Local\Temp\ccBEkVPc.s:28956  .debug_str:000000000001f4ea .LASF600
C:\Users\CYMR90~1\AppData\Local\Temp\ccBEkVPc.s:28216  .debug_str:000000000001c54f .LASF601
C:\Users\CYMR90~1\AppData\Local\Temp\ccBEkVPc.s:30602  .debug_str:0000000000025c57 .LASF602
C:\Users\CYMR90~1\AppData\Local\Temp\ccBEkVPc.s:31308  .debug_str:0000000000028a98 .LASF603
C:\Users\CYMR90~1\AppData\Local\Temp\ccBEkVPc.s:31202  .debug_str:000000000002836e .LASF604
C:\Users\CYMR90~1\AppData\Local\Temp\ccBEkVPc.s:25917  .debug_str:00000000000130f2 .LASF605
C:\Users\CYMR90~1\AppData\Local\Temp\ccBEkVPc.s:29958  .debug_str:0000000000023176 .LASF606
C:\Users\CYMR90~1\AppData\Local\Temp\ccBEkVPc.s:23563  .debug_str:0000000000009b52 .LASF607
C:\Users\CYMR90~1\AppData\Local\Temp\ccBEkVPc.s:23063  .debug_str:0000000000007a4c .LASF608
C:\Users\CYMR90~1\AppData\Local\Temp\ccBEkVPc.s:23853  .debug_str:000000000000ad05 .LASF609
C:\Users\CYMR90~1\AppData\Local\Temp\ccBEkVPc.s:28068  .debug_str:000000000001bc0c .LASF610
C:\Users\CYMR90~1\AppData\Local\Temp\ccBEkVPc.s:22587  .debug_str:0000000000005c08 .LASF611
C:\Users\CYMR90~1\AppData\Local\Temp\ccBEkVPc.s:29740  .debug_str:00000000000224d0 .LASF612
C:\Users\CYMR90~1\AppData\Local\Temp\ccBEkVPc.s:26475  .debug_str:000000000001542f .LASF613
C:\Users\CYMR90~1\AppData\Local\Temp\ccBEkVPc.s:23131  .debug_str:0000000000007f68 .LASF614
C:\Users\CYMR90~1\AppData\Local\Temp\ccBEkVPc.s:21231  .debug_str:00000000000005e4 .LASF615
C:\Users\CYMR90~1\AppData\Local\Temp\ccBEkVPc.s:26715  .debug_str:0000000000016323 .LASF616
C:\Users\CYMR90~1\AppData\Local\Temp\ccBEkVPc.s:27686  .debug_str:000000000001a295 .LASF617
C:\Users\CYMR90~1\AppData\Local\Temp\ccBEkVPc.s:26849  .debug_str:0000000000016c6d .LASF618
C:\Users\CYMR90~1\AppData\Local\Temp\ccBEkVPc.s:29822  .debug_str:0000000000022964 .LASF619
C:\Users\CYMR90~1\AppData\Local\Temp\ccBEkVPc.s:24107  .debug_str:000000000000be3e .LASF620
C:\Users\CYMR90~1\AppData\Local\Temp\ccBEkVPc.s:22875  .debug_str:0000000000006dcd .LASF621
C:\Users\CYMR90~1\AppData\Local\Temp\ccBEkVPc.s:30018  .debug_str:00000000000234ce .LASF622
C:\Users\CYMR90~1\AppData\Local\Temp\ccBEkVPc.s:29132  .debug_str:000000000001ff8f .LASF623
C:\Users\CYMR90~1\AppData\Local\Temp\ccBEkVPc.s:31072  .debug_str:00000000000279c6 .LASF624
C:\Users\CYMR90~1\AppData\Local\Temp\ccBEkVPc.s:31686  .debug_str:000000000002a1d6 .LASF625
C:\Users\CYMR90~1\AppData\Local\Temp\ccBEkVPc.s:26149  .debug_str:0000000000013f97 .LASF626
C:\Users\CYMR90~1\AppData\Local\Temp\ccBEkVPc.s:31940  .debug_str:000000000002b0e3 .LASF627
C:\Users\CYMR90~1\AppData\Local\Temp\ccBEkVPc.s:26565  .debug_str:0000000000015948 .LASF628
C:\Users\CYMR90~1\AppData\Local\Temp\ccBEkVPc.s:29764  .debug_str:00000000000225f9 .LASF629
C:\Users\CYMR90~1\AppData\Local\Temp\ccBEkVPc.s:25191  .debug_str:000000000001027f .LASF630
C:\Users\CYMR90~1\AppData\Local\Temp\ccBEkVPc.s:24501  .debug_str:000000000000d808 .LASF631
C:\Users\CYMR90~1\AppData\Local\Temp\ccBEkVPc.s:29730  .debug_str:000000000002244d .LASF632
C:\Users\CYMR90~1\AppData\Local\Temp\ccBEkVPc.s:24217  .debug_str:000000000000c4e6 .LASF633
C:\Users\CYMR90~1\AppData\Local\Temp\ccBEkVPc.s:21319  .debug_str:0000000000000bb5 .LASF634
C:\Users\CYMR90~1\AppData\Local\Temp\ccBEkVPc.s:27596  .debug_str:0000000000019d61 .LASF635
C:\Users\CYMR90~1\AppData\Local\Temp\ccBEkVPc.s:26771  .debug_str:00000000000166c6 .LASF636
C:\Users\CYMR90~1\AppData\Local\Temp\ccBEkVPc.s:28380  .debug_str:000000000001d168 .LASF637
C:\Users\CYMR90~1\AppData\Local\Temp\ccBEkVPc.s:22019  .debug_str:0000000000003702 .LASF638
C:\Users\CYMR90~1\AppData\Local\Temp\ccBEkVPc.s:25577  .debug_str:0000000000011adb .LASF639
C:\Users\CYMR90~1\AppData\Local\Temp\ccBEkVPc.s:23143  .debug_str:0000000000008010 .LASF640
C:\Users\CYMR90~1\AppData\Local\Temp\ccBEkVPc.s:25793  .debug_str:00000000000128b5 .LASF641
C:\Users\CYMR90~1\AppData\Local\Temp\ccBEkVPc.s:24011  .debug_str:000000000000b787 .LASF642
C:\Users\CYMR90~1\AppData\Local\Temp\ccBEkVPc.s:31056  .debug_str:00000000000278c0 .LASF643
C:\Users\CYMR90~1\AppData\Local\Temp\ccBEkVPc.s:24379  .debug_str:000000000000cfd2 .LASF644
C:\Users\CYMR90~1\AppData\Local\Temp\ccBEkVPc.s:22195  .debug_str:00000000000042c3 .LASF645
C:\Users\CYMR90~1\AppData\Local\Temp\ccBEkVPc.s:23025  .debug_str:00000000000077b0 .LASF646
C:\Users\CYMR90~1\AppData\Local\Temp\ccBEkVPc.s:21941  .debug_str:00000000000031aa .LASF647
C:\Users\CYMR90~1\AppData\Local\Temp\ccBEkVPc.s:22311  .debug_str:0000000000004afc .LASF648
C:\Users\CYMR90~1\AppData\Local\Temp\ccBEkVPc.s:31588  .debug_str:0000000000029bff .LASF649
C:\Users\CYMR90~1\AppData\Local\Temp\ccBEkVPc.s:25495  .debug_str:0000000000011479 .LASF650
C:\Users\CYMR90~1\AppData\Local\Temp\ccBEkVPc.s:31702  .debug_str:000000000002a2b0 .LASF651
C:\Users\CYMR90~1\AppData\Local\Temp\ccBEkVPc.s:25099  .debug_str:000000000000fcbb .LASF652
C:\Users\CYMR90~1\AppData\Local\Temp\ccBEkVPc.s:21213  .debug_str:00000000000004ed .LASF653
C:\Users\CYMR90~1\AppData\Local\Temp\ccBEkVPc.s:31924  .debug_str:000000000002affa .LASF654
C:\Users\CYMR90~1\AppData\Local\Temp\ccBEkVPc.s:23383  .debug_str:0000000000008fd8 .LASF655
C:\Users\CYMR90~1\AppData\Local\Temp\ccBEkVPc.s:31130  .debug_str:0000000000027dfb .LASF656
C:\Users\CYMR90~1\AppData\Local\Temp\ccBEkVPc.s:21263  .debug_str:00000000000007fe .LASF657
C:\Users\CYMR90~1\AppData\Local\Temp\ccBEkVPc.s:31750  .debug_str:000000000002a590 .LASF658
C:\Users\CYMR90~1\AppData\Local\Temp\ccBEkVPc.s:25885  .debug_str:0000000000012ee6 .LASF659
C:\Users\CYMR90~1\AppData\Local\Temp\ccBEkVPc.s:28312  .debug_str:000000000001cbcb .LASF660
C:\Users\CYMR90~1\AppData\Local\Temp\ccBEkVPc.s:24783  .debug_str:000000000000e92d .LASF661
C:\Users\CYMR90~1\AppData\Local\Temp\ccBEkVPc.s:28982  .debug_str:000000000001f68b .LASF662
C:\Users\CYMR90~1\AppData\Local\Temp\ccBEkVPc.s:30912  .debug_str:0000000000026f90 .LASF663
C:\Users\CYMR90~1\AppData\Local\Temp\ccBEkVPc.s:25475  .debug_str:0000000000011351 .LASF664
C:\Users\CYMR90~1\AppData\Local\Temp\ccBEkVPc.s:25467  .debug_str:000000000001130e .LASF665
C:\Users\CYMR90~1\AppData\Local\Temp\ccBEkVPc.s:27372  .debug_str:0000000000018eb2 .LASF666
C:\Users\CYMR90~1\AppData\Local\Temp\ccBEkVPc.s:22599  .debug_str:0000000000005cc9 .LASF667
C:\Users\CYMR90~1\AppData\Local\Temp\ccBEkVPc.s:32414  .debug_str:000000000002d0e6 .LASF668
C:\Users\CYMR90~1\AppData\Local\Temp\ccBEkVPc.s:22991  .debug_str:000000000000759b .LASF669
C:\Users\CYMR90~1\AppData\Local\Temp\ccBEkVPc.s:29620  .debug_str:0000000000021da3 .LASF670
C:\Users\CYMR90~1\AppData\Local\Temp\ccBEkVPc.s:25869  .debug_str:0000000000012dd9 .LASF671
C:\Users\CYMR90~1\AppData\Local\Temp\ccBEkVPc.s:29036  .debug_str:000000000001f985 .LASF672
C:\Users\CYMR90~1\AppData\Local\Temp\ccBEkVPc.s:29742  .debug_str:00000000000224e9 .LASF673
C:\Users\CYMR90~1\AppData\Local\Temp\ccBEkVPc.s:21591  .debug_str:0000000000001c80 .LASF674
C:\Users\CYMR90~1\AppData\Local\Temp\ccBEkVPc.s:26551  .debug_str:0000000000015863 .LASF676
C:\Users\CYMR90~1\AppData\Local\Temp\ccBEkVPc.s:30168  .debug_str:0000000000023de3 .LASF677
C:\Users\CYMR90~1\AppData\Local\Temp\ccBEkVPc.s:27608  .debug_str:0000000000019e11 .LASF678
C:\Users\CYMR90~1\AppData\Local\Temp\ccBEkVPc.s:30264  .debug_str:00000000000244ef .LASF679
C:\Users\CYMR90~1\AppData\Local\Temp\ccBEkVPc.s:28748  .debug_str:000000000001e855 .LASF680
C:\Users\CYMR90~1\AppData\Local\Temp\ccBEkVPc.s:31602  .debug_str:0000000000029cfc .LASF681
C:\Users\CYMR90~1\AppData\Local\Temp\ccBEkVPc.s:22197  .debug_str:0000000000004301 .LASF682
C:\Users\CYMR90~1\AppData\Local\Temp\ccBEkVPc.s:22117  .debug_str:0000000000003d4e .LASF683
C:\Users\CYMR90~1\AppData\Local\Temp\ccBEkVPc.s:23519  .debug_str:0000000000009808 .LASF684
C:\Users\CYMR90~1\AppData\Local\Temp\ccBEkVPc.s:28072  .debug_str:000000000001bc39 .LASF685
C:\Users\CYMR90~1\AppData\Local\Temp\ccBEkVPc.s:29488  .debug_str:00000000000215ba .LASF686
C:\Users\CYMR90~1\AppData\Local\Temp\ccBEkVPc.s:26827  .debug_str:0000000000016a9e .LASF687
C:\Users\CYMR90~1\AppData\Local\Temp\ccBEkVPc.s:25395  .debug_str:0000000000010ef9 .LASF688
C:\Users\CYMR90~1\AppData\Local\Temp\ccBEkVPc.s:21997  .debug_str:0000000000003545 .LASF689
C:\Users\CYMR90~1\AppData\Local\Temp\ccBEkVPc.s:22881  .debug_str:0000000000006e4c .LASF690
C:\Users\CYMR90~1\AppData\Local\Temp\ccBEkVPc.s:25745  .debug_str:000000000001258a .LASF691
C:\Users\CYMR90~1\AppData\Local\Temp\ccBEkVPc.s:26591  .debug_str:0000000000015ad7 .LASF692
C:\Users\CYMR90~1\AppData\Local\Temp\ccBEkVPc.s:22565  .debug_str:0000000000005acb .LASF695
C:\Users\CYMR90~1\AppData\Local\Temp\ccBEkVPc.s:26996  .debug_str:00000000000176f8 .LASF696
C:\Users\CYMR90~1\AppData\Local\Temp\ccBEkVPc.s:26890  .debug_str:00000000000170ca .LASF697
C:\Users\CYMR90~1\AppData\Local\Temp\ccBEkVPc.s:28038  .debug_str:000000000001ba71 .LASF698
C:\Users\CYMR90~1\AppData\Local\Temp\ccBEkVPc.s:30206  .debug_str:0000000000023ff8 .LASF699
C:\Users\CYMR90~1\AppData\Local\Temp\ccBEkVPc.s:26323  .debug_str:0000000000014a4b .LASF702
C:\Users\CYMR90~1\AppData\Local\Temp\ccBEkVPc.s:23541  .debug_str:000000000000997a .LASF703
C:\Users\CYMR90~1\AppData\Local\Temp\ccBEkVPc.s:28926  .debug_str:000000000001f329 .LASF704
C:\Users\CYMR90~1\AppData\Local\Temp\ccBEkVPc.s:22389  .debug_str:0000000000004fc8 .LASF705
C:\Users\CYMR90~1\AppData\Local\Temp\ccBEkVPc.s:26653  .debug_str:0000000000015f31 .LASF706
C:\Users\CYMR90~1\AppData\Local\Temp\ccBEkVPc.s:24977  .debug_str:000000000000f4c9 .LASF707
C:\Users\CYMR90~1\AppData\Local\Temp\ccBEkVPc.s:31324  .debug_str:0000000000028b94 .LASF708
C:\Users\CYMR90~1\AppData\Local\Temp\ccBEkVPc.s:30572  .debug_str:0000000000025a74 .LASF709
C:\Users\CYMR90~1\AppData\Local\Temp\ccBEkVPc.s:24619  .debug_str:000000000000df04 .LASF710
C:\Users\CYMR90~1\AppData\Local\Temp\ccBEkVPc.s:25137  .debug_str:000000000000ff26 .LASF711
C:\Users\CYMR90~1\AppData\Local\Temp\ccBEkVPc.s:26801  .debug_str:0000000000016892 .LASF712
C:\Users\CYMR90~1\AppData\Local\Temp\ccBEkVPc.s:23783  .debug_str:000000000000a866 .LASF713
C:\Users\CYMR90~1\AppData\Local\Temp\ccBEkVPc.s:32136  .debug_str:000000000002be31 .LASF714
C:\Users\CYMR90~1\AppData\Local\Temp\ccBEkVPc.s:23127  .debug_str:0000000000007f03 .LASF715
C:\Users\CYMR90~1\AppData\Local\Temp\ccBEkVPc.s:24049  .debug_str:000000000000b9f7 .LASF716
C:\Users\CYMR90~1\AppData\Local\Temp\ccBEkVPc.s:29148  .debug_str:00000000000200ad .LASF717
C:\Users\CYMR90~1\AppData\Local\Temp\ccBEkVPc.s:30530  .debug_str:000000000002573c .LASF718
C:\Users\CYMR90~1\AppData\Local\Temp\ccBEkVPc.s:30306  .debug_str:0000000000024766 .LASF719
C:\Users\CYMR90~1\AppData\Local\Temp\ccBEkVPc.s:27308  .debug_str:0000000000018a20 .LASF720
C:\Users\CYMR90~1\AppData\Local\Temp\ccBEkVPc.s:21647  .debug_str:0000000000001fca .LASF721
C:\Users\CYMR90~1\AppData\Local\Temp\ccBEkVPc.s:29258  .debug_str:0000000000020785 .LASF722
C:\Users\CYMR90~1\AppData\Local\Temp\ccBEkVPc.s:28228  .debug_str:000000000001c5df .LASF723
C:\Users\CYMR90~1\AppData\Local\Temp\ccBEkVPc.s:28802  .debug_str:000000000001ebcc .LASF724
C:\Users\CYMR90~1\AppData\Local\Temp\ccBEkVPc.s:29722  .debug_str:00000000000223fb .LASF725
C:\Users\CYMR90~1\AppData\Local\Temp\ccBEkVPc.s:25987  .debug_str:00000000000135f8 .LASF726
C:\Users\CYMR90~1\AppData\Local\Temp\ccBEkVPc.s:23777  .debug_str:000000000000a80c .LASF727
C:\Users\CYMR90~1\AppData\Local\Temp\ccBEkVPc.s:30666  .debug_str:000000000002605b .LASF728
C:\Users\CYMR90~1\AppData\Local\Temp\ccBEkVPc.s:21559  .debug_str:0000000000001a9a .LASF729
C:\Users\CYMR90~1\AppData\Local\Temp\ccBEkVPc.s:27500  .debug_str:00000000000196c6 .LASF730
C:\Users\CYMR90~1\AppData\Local\Temp\ccBEkVPc.s:25959  .debug_str:0000000000013422 .LASF731
C:\Users\CYMR90~1\AppData\Local\Temp\ccBEkVPc.s:30604  .debug_str:0000000000025c92 .LASF732
C:\Users\CYMR90~1\AppData\Local\Temp\ccBEkVPc.s:32342  .debug_str:000000000002cc29 .LASF733
C:\Users\CYMR90~1\AppData\Local\Temp\ccBEkVPc.s:25451  .debug_str:000000000001120d .LASF734
C:\Users\CYMR90~1\AppData\Local\Temp\ccBEkVPc.s:25371  .debug_str:0000000000010db0 .LASF735
C:\Users\CYMR90~1\AppData\Local\Temp\ccBEkVPc.s:32274  .debug_str:000000000002c773 .LASF736
C:\Users\CYMR90~1\AppData\Local\Temp\ccBEkVPc.s:24347  .debug_str:000000000000cdc4 .LASF737
C:\Users\CYMR90~1\AppData\Local\Temp\ccBEkVPc.s:28378  .debug_str:000000000001d157 .LASF738
C:\Users\CYMR90~1\AppData\Local\Temp\ccBEkVPc.s:32026  .debug_str:000000000002b6bd .LASF739
C:\Users\CYMR90~1\AppData\Local\Temp\ccBEkVPc.s:21561  .debug_str:0000000000001aad .LASF740
C:\Users\CYMR90~1\AppData\Local\Temp\ccBEkVPc.s:24279  .debug_str:000000000000c925 .LASF741
C:\Users\CYMR90~1\AppData\Local\Temp\ccBEkVPc.s:21533  .debug_str:000000000000192e .LASF742
C:\Users\CYMR90~1\AppData\Local\Temp\ccBEkVPc.s:25405  .debug_str:0000000000010f65 .LASF743
C:\Users\CYMR90~1\AppData\Local\Temp\ccBEkVPc.s:21981  .debug_str:0000000000003455 .LASF744
C:\Users\CYMR90~1\AppData\Local\Temp\ccBEkVPc.s:23393  .debug_str:0000000000009079 .LASF745
C:\Users\CYMR90~1\AppData\Local\Temp\ccBEkVPc.s:29734  .debug_str:000000000002249c .LASF746
C:\Users\CYMR90~1\AppData\Local\Temp\ccBEkVPc.s:21431  .debug_str:0000000000001261 .LASF747
C:\Users\CYMR90~1\AppData\Local\Temp\ccBEkVPc.s:21421  .debug_str:00000000000011df .LASF748
C:\Users\CYMR90~1\AppData\Local\Temp\ccBEkVPc.s:22543  .debug_str:0000000000005945 .LASF750
C:\Users\CYMR90~1\AppData\Local\Temp\ccBEkVPc.s:25323  .debug_str:0000000000010a58 .LASF751
C:\Users\CYMR90~1\AppData\Local\Temp\ccBEkVPc.s:31486  .debug_str:0000000000029615 .LASF752
C:\Users\CYMR90~1\AppData\Local\Temp\ccBEkVPc.s:25261  .debug_str:00000000000106d2 .LASF753
C:\Users\CYMR90~1\AppData\Local\Temp\ccBEkVPc.s:22427  .debug_str:0000000000005242 .LASF754
C:\Users\CYMR90~1\AppData\Local\Temp\ccBEkVPc.s:24033  .debug_str:000000000000b911 .LASF755
C:\Users\CYMR90~1\AppData\Local\Temp\ccBEkVPc.s:27572  .debug_str:0000000000019bf8 .LASF756
C:\Users\CYMR90~1\AppData\Local\Temp\ccBEkVPc.s:23529  .debug_str:00000000000098b7 .LASF757
C:\Users\CYMR90~1\AppData\Local\Temp\ccBEkVPc.s:30556  .debug_str:0000000000025958 .LASF758
C:\Users\CYMR90~1\AppData\Local\Temp\ccBEkVPc.s:27208  .debug_str:00000000000183fd .LASF759
C:\Users\CYMR90~1\AppData\Local\Temp\ccBEkVPc.s:27948  .debug_str:000000000001b507 .LASF760
C:\Users\CYMR90~1\AppData\Local\Temp\ccBEkVPc.s:32118  .debug_str:000000000002bce7 .LASF761
C:\Users\CYMR90~1\AppData\Local\Temp\ccBEkVPc.s:23961  .debug_str:000000000000b3f6 .LASF762
C:\Users\CYMR90~1\AppData\Local\Temp\ccBEkVPc.s:27956  .debug_str:000000000001b59b .LASF765
C:\Users\CYMR90~1\AppData\Local\Temp\ccBEkVPc.s:26623  .debug_str:0000000000015cf5 .LASF766
C:\Users\CYMR90~1\AppData\Local\Temp\ccBEkVPc.s:29628  .debug_str:0000000000021e22 .LASF767
C:\Users\CYMR90~1\AppData\Local\Temp\ccBEkVPc.s:26615  .debug_str:0000000000015c9c .LASF768
C:\Users\CYMR90~1\AppData\Local\Temp\ccBEkVPc.s:21787  .debug_str:0000000000002819 .LASF769
C:\Users\CYMR90~1\AppData\Local\Temp\ccBEkVPc.s:28088  .debug_str:000000000001bd7c .LASF770
C:\Users\CYMR90~1\AppData\Local\Temp\ccBEkVPc.s:26711  .debug_str:00000000000162fd .LASF771
C:\Users\CYMR90~1\AppData\Local\Temp\ccBEkVPc.s:30272  .debug_str:000000000002455d .LASF772
C:\Users\CYMR90~1\AppData\Local\Temp\ccBEkVPc.s:29914  .debug_str:0000000000022f2b .LASF773
C:\Users\CYMR90~1\AppData\Local\Temp\ccBEkVPc.s:24703  .debug_str:000000000000e416 .LASF774
C:\Users\CYMR90~1\AppData\Local\Temp\ccBEkVPc.s:30606  .debug_str:0000000000025ca8 .LASF775
C:\Users\CYMR90~1\AppData\Local\Temp\ccBEkVPc.s:23675  .debug_str:000000000000a22a .LASF776
C:\Users\CYMR90~1\AppData\Local\Temp\ccBEkVPc.s:23691  .debug_str:000000000000a32e .LASF777
C:\Users\CYMR90~1\AppData\Local\Temp\ccBEkVPc.s:28738  .debug_str:000000000001e7b4 .LASF778
C:\Users\CYMR90~1\AppData\Local\Temp\ccBEkVPc.s:25203  .debug_str:000000000001035b .LASF779
C:\Users\CYMR90~1\AppData\Local\Temp\ccBEkVPc.s:28992  .debug_str:000000000001f722 .LASF780
C:\Users\CYMR90~1\AppData\Local\Temp\ccBEkVPc.s:29624  .debug_str:0000000000021de9 .LASF781
C:\Users\CYMR90~1\AppData\Local\Temp\ccBEkVPc.s:25695  .debug_str:0000000000012229 .LASF782
C:\Users\CYMR90~1\AppData\Local\Temp\ccBEkVPc.s:26835  .debug_str:0000000000016bc1 .LASF783
C:\Users\CYMR90~1\AppData\Local\Temp\ccBEkVPc.s:25593  .debug_str:0000000000011bd9 .LASF784
C:\Users\CYMR90~1\AppData\Local\Temp\ccBEkVPc.s:24879  .debug_str:000000000000eeeb .LASF785
C:\Users\CYMR90~1\AppData\Local\Temp\ccBEkVPc.s:29986  .debug_str:0000000000023300 .LASF786
C:\Users\CYMR90~1\AppData\Local\Temp\ccBEkVPc.s:26337  .debug_str:0000000000014b70 .LASF787
C:\Users\CYMR90~1\AppData\Local\Temp\ccBEkVPc.s:28670  .debug_str:000000000001e3bf .LASF788
C:\Users\CYMR90~1\AppData\Local\Temp\ccBEkVPc.s:25057  .debug_str:000000000000fa0b .LASF789
C:\Users\CYMR90~1\AppData\Local\Temp\ccBEkVPc.s:22475  .debug_str:000000000000554c .LASF790
C:\Users\CYMR90~1\AppData\Local\Temp\ccBEkVPc.s:30956  .debug_str:00000000000272ed .LASF791
C:\Users\CYMR90~1\AppData\Local\Temp\ccBEkVPc.s:23251  .debug_str:00000000000087aa .LASF792
C:\Users\CYMR90~1\AppData\Local\Temp\ccBEkVPc.s:32348  .debug_str:000000000002cc77 .LASF793
C:\Users\CYMR90~1\AppData\Local\Temp\ccBEkVPc.s:23035  .debug_str:0000000000007884 .LASF794
C:\Users\CYMR90~1\AppData\Local\Temp\ccBEkVPc.s:31208  .debug_str:00000000000283cd .LASF795
C:\Users\CYMR90~1\AppData\Local\Temp\ccBEkVPc.s:29232  .debug_str:00000000000205b3 .LASF796
C:\Users\CYMR90~1\AppData\Local\Temp\ccBEkVPc.s:31916  .debug_str:000000000002afa9 .LASF797
C:\Users\CYMR90~1\AppData\Local\Temp\ccBEkVPc.s:22865  .debug_str:0000000000006d2a .LASF798
C:\Users\CYMR90~1\AppData\Local\Temp\ccBEkVPc.s:31268  .debug_str:000000000002880c .LASF799
C:\Users\CYMR90~1\AppData\Local\Temp\ccBEkVPc.s:22441  .debug_str:000000000000530e .LASF800
C:\Users\CYMR90~1\AppData\Local\Temp\ccBEkVPc.s:27708  .debug_str:000000000001a567 .LASF801
C:\Users\CYMR90~1\AppData\Local\Temp\ccBEkVPc.s:27736  .debug_str:000000000001a716 .LASF802
C:\Users\CYMR90~1\AppData\Local\Temp\ccBEkVPc.s:23595  .debug_str:0000000000009d5f .LASF803
C:\Users\CYMR90~1\AppData\Local\Temp\ccBEkVPc.s:26085  .debug_str:0000000000013c0e .LASF804
C:\Users\CYMR90~1\AppData\Local\Temp\ccBEkVPc.s:22879  .debug_str:0000000000006df1 .LASF805
C:\Users\CYMR90~1\AppData\Local\Temp\ccBEkVPc.s:25543  .debug_str:0000000000011819 .LASF806
C:\Users\CYMR90~1\AppData\Local\Temp\ccBEkVPc.s:28692  .debug_str:000000000001e4d5 .LASF807
C:\Users\CYMR90~1\AppData\Local\Temp\ccBEkVPc.s:28278  .debug_str:000000000001c9bb .LASF808
C:\Users\CYMR90~1\AppData\Local\Temp\ccBEkVPc.s:30676  .debug_str:00000000000260f2 .LASF809
C:\Users\CYMR90~1\AppData\Local\Temp\ccBEkVPc.s:32122  .debug_str:000000000002bd3c .LASF810
C:\Users\CYMR90~1\AppData\Local\Temp\ccBEkVPc.s:23275  .debug_str:000000000000891b .LASF811
C:\Users\CYMR90~1\AppData\Local\Temp\ccBEkVPc.s:22177  .debug_str:00000000000041d3 .LASF812
C:\Users\CYMR90~1\AppData\Local\Temp\ccBEkVPc.s:32162  .debug_str:000000000002c04f .LASF813
C:\Users\CYMR90~1\AppData\Local\Temp\ccBEkVPc.s:22539  .debug_str:000000000000591e .LASF814
C:\Users\CYMR90~1\AppData\Local\Temp\ccBEkVPc.s:22771  .debug_str:0000000000006714 .LASF815
C:\Users\CYMR90~1\AppData\Local\Temp\ccBEkVPc.s:28056  .debug_str:000000000001bb66 .LASF816
C:\Users\CYMR90~1\AppData\Local\Temp\ccBEkVPc.s:23455  .debug_str:00000000000093fc .LASF817
C:\Users\CYMR90~1\AppData\Local\Temp\ccBEkVPc.s:28196  .debug_str:000000000001c43f .LASF818
C:\Users\CYMR90~1\AppData\Local\Temp\ccBEkVPc.s:28092  .debug_str:000000000001bd94 .LASF819
C:\Users\CYMR90~1\AppData\Local\Temp\ccBEkVPc.s:21305  .debug_str:0000000000000abb .LASF820
C:\Users\CYMR90~1\AppData\Local\Temp\ccBEkVPc.s:31752  .debug_str:000000000002a5a0 .LASF821
C:\Users\CYMR90~1\AppData\Local\Temp\ccBEkVPc.s:30268  .debug_str:000000000002452d .LASF822
C:\Users\CYMR90~1\AppData\Local\Temp\ccBEkVPc.s:23423  .debug_str:00000000000091f4 .LASF823
C:\Users\CYMR90~1\AppData\Local\Temp\ccBEkVPc.s:26759  .debug_str:0000000000016623 .LASF824
C:\Users\CYMR90~1\AppData\Local\Temp\ccBEkVPc.s:28382  .debug_str:000000000001d192 .LASF825
C:\Users\CYMR90~1\AppData\Local\Temp\ccBEkVPc.s:26549  .debug_str:0000000000015842 .LASF826
C:\Users\CYMR90~1\AppData\Local\Temp\ccBEkVPc.s:22067  .debug_str:0000000000003a45 .LASF827
C:\Users\CYMR90~1\AppData\Local\Temp\ccBEkVPc.s:24859  .debug_str:000000000000edde .LASF828
C:\Users\CYMR90~1\AppData\Local\Temp\ccBEkVPc.s:30376  .debug_str:0000000000024c10 .LASF829
C:\Users\CYMR90~1\AppData\Local\Temp\ccBEkVPc.s:30546  .debug_str:0000000000025898 .LASF830
C:\Users\CYMR90~1\AppData\Local\Temp\ccBEkVPc.s:24039  .debug_str:000000000000b96c .LASF831
C:\Users\CYMR90~1\AppData\Local\Temp\ccBEkVPc.s:24807  .debug_str:000000000000eacb .LASF832
C:\Users\CYMR90~1\AppData\Local\Temp\ccBEkVPc.s:22631  .debug_str:0000000000005e8a .LASF833
C:\Users\CYMR90~1\AppData\Local\Temp\ccBEkVPc.s:25453  .debug_str:000000000001121e .LASF834
C:\Users\CYMR90~1\AppData\Local\Temp\ccBEkVPc.s:27232  .debug_str:0000000000018566 .LASF835
C:\Users\CYMR90~1\AppData\Local\Temp\ccBEkVPc.s:25353  .debug_str:0000000000010c3d .LASF836
C:\Users\CYMR90~1\AppData\Local\Temp\ccBEkVPc.s:29140  .debug_str:0000000000020031 .LASF837
C:\Users\CYMR90~1\AppData\Local\Temp\ccBEkVPc.s:23321  .debug_str:0000000000008bf4 .LASF838
C:\Users\CYMR90~1\AppData\Local\Temp\ccBEkVPc.s:29120  .debug_str:000000000001fecb .LASF839
C:\Users\CYMR90~1\AppData\Local\Temp\ccBEkVPc.s:25251  .debug_str:0000000000010621 .LASF840
C:\Users\CYMR90~1\AppData\Local\Temp\ccBEkVPc.s:24167  .debug_str:000000000000c217 .LASF841
C:\Users\CYMR90~1\AppData\Local\Temp\ccBEkVPc.s:28294  .debug_str:000000000001cac5 .LASF842
C:\Users\CYMR90~1\AppData\Local\Temp\ccBEkVPc.s:21375  .debug_str:0000000000000f55 .LASF843
C:\Users\CYMR90~1\AppData\Local\Temp\ccBEkVPc.s:21729  .debug_str:0000000000002449 .LASF844
C:\Users\CYMR90~1\AppData\Local\Temp\ccBEkVPc.s:30130  .debug_str:0000000000023bcf .LASF845
C:\Users\CYMR90~1\AppData\Local\Temp\ccBEkVPc.s:21141  .debug_str:00000000000000b8 .LASF846
C:\Users\CYMR90~1\AppData\Local\Temp\ccBEkVPc.s:23117  .debug_str:0000000000007e76 .LASF847
C:\Users\CYMR90~1\AppData\Local\Temp\ccBEkVPc.s:29000  .debug_str:000000000001f788 .LASF848
C:\Users\CYMR90~1\AppData\Local\Temp\ccBEkVPc.s:23083  .debug_str:0000000000007bb7 .LASF849
C:\Users\CYMR90~1\AppData\Local\Temp\ccBEkVPc.s:24461  .debug_str:000000000000d5b3 .LASF852
C:\Users\CYMR90~1\AppData\Local\Temp\ccBEkVPc.s:31318  .debug_str:0000000000028b3c .LASF853
C:\Users\CYMR90~1\AppData\Local\Temp\ccBEkVPc.s:26397  .debug_str:0000000000014f9d .LASF854
C:\Users\CYMR90~1\AppData\Local\Temp\ccBEkVPc.s:29634  .debug_str:0000000000021eb7 .LASF856
C:\Users\CYMR90~1\AppData\Local\Temp\ccBEkVPc.s:28518  .debug_str:000000000001da16 .LASF857
C:\Users\CYMR90~1\AppData\Local\Temp\ccBEkVPc.s:31142  .debug_str:0000000000027eaf .LASF858
C:\Users\CYMR90~1\AppData\Local\Temp\ccBEkVPc.s:24449  .debug_str:000000000000d4e4 .LASF859
C:\Users\CYMR90~1\AppData\Local\Temp\ccBEkVPc.s:25403  .debug_str:0000000000010f5b .LASF860
C:\Users\CYMR90~1\AppData\Local\Temp\ccBEkVPc.s:29568  .debug_str:0000000000021a7d .LASF861
C:\Users\CYMR90~1\AppData\Local\Temp\ccBEkVPc.s:28730  .debug_str:000000000001e764 .LASF862
C:\Users\CYMR90~1\AppData\Local\Temp\ccBEkVPc.s:21469  .debug_str:00000000000014a5 .LASF863
C:\Users\CYMR90~1\AppData\Local\Temp\ccBEkVPc.s:22121  .debug_str:0000000000003d7c .LASF864
C:\Users\CYMR90~1\AppData\Local\Temp\ccBEkVPc.s:22511  .debug_str:0000000000005777 .LASF865
C:\Users\CYMR90~1\AppData\Local\Temp\ccBEkVPc.s:23723  .debug_str:000000000000a52a .LASF866
C:\Users\CYMR90~1\AppData\Local\Temp\ccBEkVPc.s:23187  .debug_str:000000000000839f .LASF867
C:\Users\CYMR90~1\AppData\Local\Temp\ccBEkVPc.s:28450  .debug_str:000000000001d58e .LASF868
C:\Users\CYMR90~1\AppData\Local\Temp\ccBEkVPc.s:29080  .debug_str:000000000001fc87 .LASF869
C:\Users\CYMR90~1\AppData\Local\Temp\ccBEkVPc.s:30144  .debug_str:0000000000023c84 .LASF870
C:\Users\CYMR90~1\AppData\Local\Temp\ccBEkVPc.s:23363  .debug_str:0000000000008eba .LASF871
C:\Users\CYMR90~1\AppData\Local\Temp\ccBEkVPc.s:23801  .debug_str:000000000000a9bb .LASF872
C:\Users\CYMR90~1\AppData\Local\Temp\ccBEkVPc.s:28286  .debug_str:000000000001ca53 .LASF873
C:\Users\CYMR90~1\AppData\Local\Temp\ccBEkVPc.s:30844  .debug_str:0000000000026b40 .LASF874
C:\Users\CYMR90~1\AppData\Local\Temp\ccBEkVPc.s:25613  .debug_str:0000000000011cf1 .LASF875
C:\Users\CYMR90~1\AppData\Local\Temp\ccBEkVPc.s:26299  .debug_str:0000000000014932 .LASF876
C:\Users\CYMR90~1\AppData\Local\Temp\ccBEkVPc.s:23601  .debug_str:0000000000009db4 .LASF877
C:\Users\CYMR90~1\AppData\Local\Temp\ccBEkVPc.s:27990  .debug_str:000000000001b7b7 .LASF878
C:\Users\CYMR90~1\AppData\Local\Temp\ccBEkVPc.s:25399  .debug_str:0000000000010f36 .LASF879
C:\Users\CYMR90~1\AppData\Local\Temp\ccBEkVPc.s:26944  .debug_str:00000000000173db .LASF880
C:\Users\CYMR90~1\AppData\Local\Temp\ccBEkVPc.s:22443  .debug_str:0000000000005327 .LASF881
C:\Users\CYMR90~1\AppData\Local\Temp\ccBEkVPc.s:25829  .debug_str:0000000000012b50 .LASF882
C:\Users\CYMR90~1\AppData\Local\Temp\ccBEkVPc.s:28968  .debug_str:000000000001f5d2 .LASF883
C:\Users\CYMR90~1\AppData\Local\Temp\ccBEkVPc.s:29152  .debug_str:00000000000200da .LASF884
C:\Users\CYMR90~1\AppData\Local\Temp\ccBEkVPc.s:32400  .debug_str:000000000002cffa .LASF885
C:\Users\CYMR90~1\AppData\Local\Temp\ccBEkVPc.s:27996  .debug_str:000000000001b80f .LASF886
C:\Users\CYMR90~1\AppData\Local\Temp\ccBEkVPc.s:23467  .debug_str:00000000000094cf .LASF887
C:\Users\CYMR90~1\AppData\Local\Temp\ccBEkVPc.s:30100  .debug_str:0000000000023a26 .LASF888
C:\Users\CYMR90~1\AppData\Local\Temp\ccBEkVPc.s:25769  .debug_str:0000000000012733 .LASF889
C:\Users\CYMR90~1\AppData\Local\Temp\ccBEkVPc.s:30032  .debug_str:00000000000235a1 .LASF890
C:\Users\CYMR90~1\AppData\Local\Temp\ccBEkVPc.s:22271  .debug_str:000000000000489a .LASF891
C:\Users\CYMR90~1\AppData\Local\Temp\ccBEkVPc.s:24757  .debug_str:000000000000e789 .LASF892
C:\Users\CYMR90~1\AppData\Local\Temp\ccBEkVPc.s:30792  .debug_str:0000000000026831 .LASF893
C:\Users\CYMR90~1\AppData\Local\Temp\ccBEkVPc.s:30188  .debug_str:0000000000023f05 .LASF894
C:\Users\CYMR90~1\AppData\Local\Temp\ccBEkVPc.s:21443  .debug_str:000000000000130b .LASF895
C:\Users\CYMR90~1\AppData\Local\Temp\ccBEkVPc.s:26151  .debug_str:0000000000013fcf .LASF896
C:\Users\CYMR90~1\AppData\Local\Temp\ccBEkVPc.s:22359  .debug_str:0000000000004e0d .LASF897
C:\Users\CYMR90~1\AppData\Local\Temp\ccBEkVPc.s:23591  .debug_str:0000000000009d20 .LASF898
C:\Users\CYMR90~1\AppData\Local\Temp\ccBEkVPc.s:31084  .debug_str:0000000000027ad6 .LASF899
C:\Users\CYMR90~1\AppData\Local\Temp\ccBEkVPc.s:23919  .debug_str:000000000000b1d9 .LASF900
C:\Users\CYMR90~1\AppData\Local\Temp\ccBEkVPc.s:28044  .debug_str:000000000001baa7 .LASF901
C:\Users\CYMR90~1\AppData\Local\Temp\ccBEkVPc.s:31624  .debug_str:0000000000029e3e .LASF902
C:\Users\CYMR90~1\AppData\Local\Temp\ccBEkVPc.s:25649  .debug_str:0000000000011f0c .LASF903
C:\Users\CYMR90~1\AppData\Local\Temp\ccBEkVPc.s:31230  .debug_str:0000000000028538 .LASF904
C:\Users\CYMR90~1\AppData\Local\Temp\ccBEkVPc.s:25815  .debug_str:0000000000012a5b .LASF905
C:\Users\CYMR90~1\AppData\Local\Temp\ccBEkVPc.s:23239  .debug_str:0000000000008707 .LASF906
C:\Users\CYMR90~1\AppData\Local\Temp\ccBEkVPc.s:31794  .debug_str:000000000002a874 .LASF907
C:\Users\CYMR90~1\AppData\Local\Temp\ccBEkVPc.s:24751  .debug_str:000000000000e72b .LASF908
C:\Users\CYMR90~1\AppData\Local\Temp\ccBEkVPc.s:31060  .debug_str:0000000000027920 .LASF909
C:\Users\CYMR90~1\AppData\Local\Temp\ccBEkVPc.s:25373  .debug_str:0000000000010dc1 .LASF910
C:\Users\CYMR90~1\AppData\Local\Temp\ccBEkVPc.s:21819  .debug_str:0000000000002a06 .LASF911
C:\Users\CYMR90~1\AppData\Local\Temp\ccBEkVPc.s:21415  .debug_str:00000000000011a2 .LASF912
C:\Users\CYMR90~1\AppData\Local\Temp\ccBEkVPc.s:29490  .debug_str:00000000000215de .LASF913
C:\Users\CYMR90~1\AppData\Local\Temp\ccBEkVPc.s:30354  .debug_str:0000000000024aa3 .LASF914
C:\Users\CYMR90~1\AppData\Local\Temp\ccBEkVPc.s:24291  .debug_str:000000000000c9f7 .LASF915
C:\Users\CYMR90~1\AppData\Local\Temp\ccBEkVPc.s:26916  .debug_str:0000000000017227 .LASF916
C:\Users\CYMR90~1\AppData\Local\Temp\ccBEkVPc.s:25183  .debug_str:0000000000010205 .LASF917
C:\Users\CYMR90~1\AppData\Local\Temp\ccBEkVPc.s:31866  .debug_str:000000000002ac75 .LASF918
C:\Users\CYMR90~1\AppData\Local\Temp\ccBEkVPc.s:21401  .debug_str:00000000000010ae .LASF919
C:\Users\CYMR90~1\AppData\Local\Temp\ccBEkVPc.s:23905  .debug_str:000000000000b0f8 .LASF920
C:\Users\CYMR90~1\AppData\Local\Temp\ccBEkVPc.s:30308  .debug_str:000000000002477b .LASF921
C:\Users\CYMR90~1\AppData\Local\Temp\ccBEkVPc.s:27730  .debug_str:000000000001a6a4 .LASF922
C:\Users\CYMR90~1\AppData\Local\Temp\ccBEkVPc.s:30824  .debug_str:0000000000026a11 .LASF923
C:\Users\CYMR90~1\AppData\Local\Temp\ccBEkVPc.s:26872  .debug_str:0000000000016fae .LASF924
C:\Users\CYMR90~1\AppData\Local\Temp\ccBEkVPc.s:21779  .debug_str:0000000000002786 .LASF925
C:\Users\CYMR90~1\AppData\Local\Temp\ccBEkVPc.s:27950  .debug_str:000000000001b541 .LASF926
C:\Users\CYMR90~1\AppData\Local\Temp\ccBEkVPc.s:21509  .debug_str:00000000000017a2 .LASF927
C:\Users\CYMR90~1\AppData\Local\Temp\ccBEkVPc.s:26329  .debug_str:0000000000014aea .LASF928
C:\Users\CYMR90~1\AppData\Local\Temp\ccBEkVPc.s:29032  .debug_str:000000000001f94c .LASF929
C:\Users\CYMR90~1\AppData\Local\Temp\ccBEkVPc.s:32120  .debug_str:000000000002bd1f .LASF930
C:\Users\CYMR90~1\AppData\Local\Temp\ccBEkVPc.s:32340  .debug_str:000000000002cc0b .LASF931
C:\Users\CYMR90~1\AppData\Local\Temp\ccBEkVPc.s:28928  .debug_str:000000000001f33d .LASF932
C:\Users\CYMR90~1\AppData\Local\Temp\ccBEkVPc.s:31604  .debug_str:0000000000029d0c .LASF933
C:\Users\CYMR90~1\AppData\Local\Temp\ccBEkVPc.s:26673  .debug_str:00000000000160b9 .LASF934
C:\Users\CYMR90~1\AppData\Local\Temp\ccBEkVPc.s:27508  .debug_str:0000000000019740 .LASF935
C:\Users\CYMR90~1\AppData\Local\Temp\ccBEkVPc.s:26553  .debug_str:0000000000015877 .LASF936
C:\Users\CYMR90~1\AppData\Local\Temp\ccBEkVPc.s:30446  .debug_str:00000000000250c1 .LASF937
C:\Users\CYMR90~1\AppData\Local\Temp\ccBEkVPc.s:21323  .debug_str:0000000000000bee .LASF938
C:\Users\CYMR90~1\AppData\Local\Temp\ccBEkVPc.s:29296  .debug_str:00000000000209be .LASF939
C:\Users\CYMR90~1\AppData\Local\Temp\ccBEkVPc.s:30532  .debug_str:0000000000025748 .LASF940
C:\Users\CYMR90~1\AppData\Local\Temp\ccBEkVPc.s:24041  .debug_str:000000000000b98a .LASF941
C:\Users\CYMR90~1\AppData\Local\Temp\ccBEkVPc.s:27718  .debug_str:000000000001a5eb .LASF942
C:\Users\CYMR90~1\AppData\Local\Temp\ccBEkVPc.s:27570  .debug_str:0000000000019be0 .LASF943
C:\Users\CYMR90~1\AppData\Local\Temp\ccBEkVPc.s:30474  .debug_str:0000000000025321 .LASF944
C:\Users\CYMR90~1\AppData\Local\Temp\ccBEkVPc.s:28140  .debug_str:000000000001c0f7 .LASF945
C:\Users\CYMR90~1\AppData\Local\Temp\ccBEkVPc.s:24999  .debug_str:000000000000f617 .LASF946
C:\Users\CYMR90~1\AppData\Local\Temp\ccBEkVPc.s:27022  .debug_str:00000000000178a0 .LASF947
C:\Users\CYMR90~1\AppData\Local\Temp\ccBEkVPc.s:28654  .debug_str:000000000001e2d9 .LASF948
C:\Users\CYMR90~1\AppData\Local\Temp\ccBEkVPc.s:25349  .debug_str:0000000000010bff .LASF949
C:\Users\CYMR90~1\AppData\Local\Temp\ccBEkVPc.s:24353  .debug_str:000000000000ce1a .LASF950
C:\Users\CYMR90~1\AppData\Local\Temp\ccBEkVPc.s:22941  .debug_str:000000000000723d .LASF952
C:\Users\CYMR90~1\AppData\Local\Temp\ccBEkVPc.s:26469  .debug_str:00000000000153d7 .LASF953
C:\Users\CYMR90~1\AppData\Local\Temp\ccBEkVPc.s:24389  .debug_str:000000000000d087 .LASF954
C:\Users\CYMR90~1\AppData\Local\Temp\ccBEkVPc.s:32332  .debug_str:000000000002cb96 .LASF955
C:\Users\CYMR90~1\AppData\Local\Temp\ccBEkVPc.s:31504  .debug_str:0000000000029702 .LASF956
C:\Users\CYMR90~1\AppData\Local\Temp\ccBEkVPc.s:31594  .debug_str:0000000000029c76 .LASF960
C:\Users\CYMR90~1\AppData\Local\Temp\ccBEkVPc.s:23493  .debug_str:00000000000096bb .LASF961
C:\Users\CYMR90~1\AppData\Local\Temp\ccBEkVPc.s:30852  .debug_str:0000000000026bcb .LASF962
C:\Users\CYMR90~1\AppData\Local\Temp\ccBEkVPc.s:25585  .debug_str:0000000000011b5d .LASF963
C:\Users\CYMR90~1\AppData\Local\Temp\ccBEkVPc.s:22967  .debug_str:0000000000007424 .LASF964
C:\Users\CYMR90~1\AppData\Local\Temp\ccBEkVPc.s:29664  .debug_str:000000000002206d .LASF965
C:\Users\CYMR90~1\AppData\Local\Temp\ccBEkVPc.s:27944  .debug_str:000000000001b4d5 .LASF966
C:\Users\CYMR90~1\AppData\Local\Temp\ccBEkVPc.s:30798  .debug_str:000000000002688d .LASF967
C:\Users\CYMR90~1\AppData\Local\Temp\ccBEkVPc.s:31908  .debug_str:000000000002af25 .LASF968
C:\Users\CYMR90~1\AppData\Local\Temp\ccBEkVPc.s:22693  .debug_str:000000000000626e .LASF969
C:\Users\CYMR90~1\AppData\Local\Temp\ccBEkVPc.s:26191  .debug_str:0000000000014256 .LASF970
C:\Users\CYMR90~1\AppData\Local\Temp\ccBEkVPc.s:31996  .debug_str:000000000002b4e0 .LASF971
C:\Users\CYMR90~1\AppData\Local\Temp\ccBEkVPc.s:24805  .debug_str:000000000000eaa5 .LASF972
C:\Users\CYMR90~1\AppData\Local\Temp\ccBEkVPc.s:26257  .debug_str:0000000000014682 .LASF973
C:\Users\CYMR90~1\AppData\Local\Temp\ccBEkVPc.s:24411  .debug_str:000000000000d1e0 .LASF974
C:\Users\CYMR90~1\AppData\Local\Temp\ccBEkVPc.s:26807  .debug_str:000000000001690c .LASF975
C:\Users\CYMR90~1\AppData\Local\Temp\ccBEkVPc.s:32364  .debug_str:000000000002cd3c .LASF976
C:\Users\CYMR90~1\AppData\Local\Temp\ccBEkVPc.s:24349  .debug_str:000000000000cdd5 .LASF977
C:\Users\CYMR90~1\AppData\Local\Temp\ccBEkVPc.s:32388  .debug_str:000000000002cf77 .LASF978
C:\Users\CYMR90~1\AppData\Local\Temp\ccBEkVPc.s:30636  .debug_str:0000000000025e63 .LASF979
C:\Users\CYMR90~1\AppData\Local\Temp\ccBEkVPc.s:30696  .debug_str:0000000000026228 .LASF980
C:\Users\CYMR90~1\AppData\Local\Temp\ccBEkVPc.s:24857  .debug_str:000000000000edc4 .LASF981
C:\Users\CYMR90~1\AppData\Local\Temp\ccBEkVPc.s:22397  .debug_str:000000000000504e .LASF982
C:\Users\CYMR90~1\AppData\Local\Temp\ccBEkVPc.s:25609  .debug_str:0000000000011cd4 .LASF983
C:\Users\CYMR90~1\AppData\Local\Temp\ccBEkVPc.s:23367  .debug_str:0000000000008eda .LASF984
C:\Users\CYMR90~1\AppData\Local\Temp\ccBEkVPc.s:28372  .debug_str:000000000001d06f .LASF985
C:\Users\CYMR90~1\AppData\Local\Temp\ccBEkVPc.s:29948  .debug_str:0000000000023109 .LASF986
C:\Users\CYMR90~1\AppData\Local\Temp\ccBEkVPc.s:26619  .debug_str:0000000000015cd1 .LASF987
C:\Users\CYMR90~1\AppData\Local\Temp\ccBEkVPc.s:21837  .debug_str:0000000000002b19 .LASF988
C:\Users\CYMR90~1\AppData\Local\Temp\ccBEkVPc.s:29860  .debug_str:0000000000022c19 .LASF989
C:\Users\CYMR90~1\AppData\Local\Temp\ccBEkVPc.s:27322  .debug_str:0000000000018ae1 .LASF990
C:\Users\CYMR90~1\AppData\Local\Temp\ccBEkVPc.s:24345  .debug_str:000000000000cdad .LASF991
C:\Users\CYMR90~1\AppData\Local\Temp\ccBEkVPc.s:30800  .debug_str:00000000000268b5 .LASF992
C:\Users\CYMR90~1\AppData\Local\Temp\ccBEkVPc.s:22987  .debug_str:0000000000007562 .LASF993
C:\Users\CYMR90~1\AppData\Local\Temp\ccBEkVPc.s:30616  .debug_str:0000000000025d12 .LASF994
C:\Users\CYMR90~1\AppData\Local\Temp\ccBEkVPc.s:27406  .debug_str:000000000001912f .LASF995
C:\Users\CYMR90~1\AppData\Local\Temp\ccBEkVPc.s:31404  .debug_str:000000000002907f .LASF996
C:\Users\CYMR90~1\AppData\Local\Temp\ccBEkVPc.s:28558  .debug_str:000000000001dc47 .LASF997
C:\Users\CYMR90~1\AppData\Local\Temp\ccBEkVPc.s:28634  .debug_str:000000000001e180 .LASF998
C:\Users\CYMR90~1\AppData\Local\Temp\ccBEkVPc.s:21741  .debug_str:00000000000024dd .LASF999
C:\Users\CYMR90~1\AppData\Local\Temp\ccBEkVPc.s:22073  .debug_str:0000000000003a9d .LASF1000
C:\Users\CYMR90~1\AppData\Local\Temp\ccBEkVPc.s:30284  .debug_str:000000000002461b .LASF1001
C:\Users\CYMR90~1\AppData\Local\Temp\ccBEkVPc.s:25193  .debug_str:00000000000102b5 .LASF1002
C:\Users\CYMR90~1\AppData\Local\Temp\ccBEkVPc.s:22351  .debug_str:0000000000004db4 .LASF1003
C:\Users\CYMR90~1\AppData\Local\Temp\ccBEkVPc.s:28180  .debug_str:000000000001c35e .LASF1004
C:\Users\CYMR90~1\AppData\Local\Temp\ccBEkVPc.s:25561  .debug_str:0000000000011952 .LASF1005
C:\Users\CYMR90~1\AppData\Local\Temp\ccBEkVPc.s:24061  .debug_str:000000000000bb00 .LASF1006
C:\Users\CYMR90~1\AppData\Local\Temp\ccBEkVPc.s:22667  .debug_str:00000000000060d7 .LASF1007
C:\Users\CYMR90~1\AppData\Local\Temp\ccBEkVPc.s:29660  .debug_str:0000000000022035 .LASF1008
C:\Users\CYMR90~1\AppData\Local\Temp\ccBEkVPc.s:27100  .debug_str:0000000000017d62 .LASF1009
C:\Users\CYMR90~1\AppData\Local\Temp\ccBEkVPc.s:27256  .debug_str:00000000000186ae .LASF1010
C:\Users\CYMR90~1\AppData\Local\Temp\ccBEkVPc.s:24627  .debug_str:000000000000df72 .LASF1011
C:\Users\CYMR90~1\AppData\Local\Temp\ccBEkVPc.s:28420  .debug_str:000000000001d3cd .LASF1012
C:\Users\CYMR90~1\AppData\Local\Temp\ccBEkVPc.s:24821  .debug_str:000000000000eb98 .LASF1013
C:\Users\CYMR90~1\AppData\Local\Temp\ccBEkVPc.s:27524  .debug_str:000000000001988e .LASF1014
C:\Users\CYMR90~1\AppData\Local\Temp\ccBEkVPc.s:22071  .debug_str:0000000000003a87 .LASF1015
C:\Users\CYMR90~1\AppData\Local\Temp\ccBEkVPc.s:22547  .debug_str:000000000000597b .LASF1016
C:\Users\CYMR90~1\AppData\Local\Temp\ccBEkVPc.s:22499  .debug_str:00000000000056bf .LASF1017
C:\Users\CYMR90~1\AppData\Local\Temp\ccBEkVPc.s:30946  .debug_str:00000000000271ad .LASF1018
C:\Users\CYMR90~1\AppData\Local\Temp\ccBEkVPc.s:24867  .debug_str:000000000000ee46 .LASF1019
C:\Users\CYMR90~1\AppData\Local\Temp\ccBEkVPc.s:21735  .debug_str:0000000000002494 .LASF1020
C:\Users\CYMR90~1\AppData\Local\Temp\ccBEkVPc.s:27138  .debug_str:0000000000017fcf .LASF1021
C:\Users\CYMR90~1\AppData\Local\Temp\ccBEkVPc.s:24165  .debug_str:000000000000c1ff .LASF1022
C:\Users\CYMR90~1\AppData\Local\Temp\ccBEkVPc.s:30872  .debug_str:0000000000026ce6 .LASF1023
C:\Users\CYMR90~1\AppData\Local\Temp\ccBEkVPc.s:23405  .debug_str:000000000000911c .LASF1024
C:\Users\CYMR90~1\AppData\Local\Temp\ccBEkVPc.s:25879  .debug_str:0000000000012e80 .LASF1025
C:\Users\CYMR90~1\AppData\Local\Temp\ccBEkVPc.s:25377  .debug_str:0000000000010e02 .LASF1026
C:\Users\CYMR90~1\AppData\Local\Temp\ccBEkVPc.s:26321  .debug_str:0000000000014a36 .LASF1027
C:\Users\CYMR90~1\AppData\Local\Temp\ccBEkVPc.s:28498  .debug_str:000000000001d8b0 .LASF1028
C:\Users\CYMR90~1\AppData\Local\Temp\ccBEkVPc.s:28890  .debug_str:000000000001f0cd .LASF1029
C:\Users\CYMR90~1\AppData\Local\Temp\ccBEkVPc.s:30162  .debug_str:0000000000023d91 .LASF1030
C:\Users\CYMR90~1\AppData\Local\Temp\ccBEkVPc.s:29252  .debug_str:000000000002073f .LASF1031
C:\Users\CYMR90~1\AppData\Local\Temp\ccBEkVPc.s:31506  .debug_str:000000000002976a .LASF1032
C:\Users\CYMR90~1\AppData\Local\Temp\ccBEkVPc.s:23549  .debug_str:0000000000009a51 .LASF1033
C:\Users\CYMR90~1\AppData\Local\Temp\ccBEkVPc.s:22405  .debug_str:00000000000050d0 .LASF1034
C:\Users\CYMR90~1\AppData\Local\Temp\ccBEkVPc.s:27456  .debug_str:0000000000019419 .LASF1035
C:\Users\CYMR90~1\AppData\Local\Temp\ccBEkVPc.s:27710  .debug_str:000000000001a581 .LASF1036
C:\Users\CYMR90~1\AppData\Local\Temp\ccBEkVPc.s:29964  .debug_str:00000000000231bb .LASF1037
C:\Users\CYMR90~1\AppData\Local\Temp\ccBEkVPc.s:25039  .debug_str:000000000000f92c .LASF1038
C:\Users\CYMR90~1\AppData\Local\Temp\ccBEkVPc.s:28600  .debug_str:000000000001df66 .LASF1039
C:\Users\CYMR90~1\AppData\Local\Temp\ccBEkVPc.s:26491  .debug_str:0000000000015518 .LASF1040
C:\Users\CYMR90~1\AppData\Local\Temp\ccBEkVPc.s:24943  .debug_str:000000000000f2cd .LASF1041
C:\Users\CYMR90~1\AppData\Local\Temp\ccBEkVPc.s:30686  .debug_str:000000000002618f .LASF1042
C:\Users\CYMR90~1\AppData\Local\Temp\ccBEkVPc.s:25195  .debug_str:00000000000102cc .LASF1043
C:\Users\CYMR90~1\AppData\Local\Temp\ccBEkVPc.s:21163  .debug_str:00000000000001f0 .LASF1044
C:\Users\CYMR90~1\AppData\Local\Temp\ccBEkVPc.s:23417  .debug_str:00000000000091a3 .LASF1045
C:\Users\CYMR90~1\AppData\Local\Temp\ccBEkVPc.s:27938  .debug_str:000000000001b47e .LASF1046
C:\Users\CYMR90~1\AppData\Local\Temp\ccBEkVPc.s:26741  .debug_str:00000000000164a0 .LASF1047
C:\Users\CYMR90~1\AppData\Local\Temp\ccBEkVPc.s:30008  .debug_str:0000000000023431 .LASF1048
C:\Users\CYMR90~1\AppData\Local\Temp\ccBEkVPc.s:28854  .debug_str:000000000001ee98 .LASF1049
C:\Users\CYMR90~1\AppData\Local\Temp\ccBEkVPc.s:21911  .debug_str:0000000000002fdb .LASF1050
C:\Users\CYMR90~1\AppData\Local\Temp\ccBEkVPc.s:28864  .debug_str:000000000001ef23 .LASF1051
C:\Users\CYMR90~1\AppData\Local\Temp\ccBEkVPc.s:29064  .debug_str:000000000001fb6a .LASF1052
C:\Users\CYMR90~1\AppData\Local\Temp\ccBEkVPc.s:23917  .debug_str:000000000000b1c7 .LASF1053
C:\Users\CYMR90~1\AppData\Local\Temp\ccBEkVPc.s:29904  .debug_str:0000000000022ea2 .LASF1054
C:\Users\CYMR90~1\AppData\Local\Temp\ccBEkVPc.s:25855  .debug_str:0000000000012ce6 .LASF1055
C:\Users\CYMR90~1\AppData\Local\Temp\ccBEkVPc.s:24801  .debug_str:000000000000ea53 .LASF1056
C:\Users\CYMR90~1\AppData\Local\Temp\ccBEkVPc.s:31120  .debug_str:0000000000027d5e .LASF1057
C:\Users\CYMR90~1\AppData\Local\Temp\ccBEkVPc.s:31716  .debug_str:000000000002a35e .LASF1058
C:\Users\CYMR90~1\AppData\Local\Temp\ccBEkVPc.s:30444  .debug_str:000000000002509f .LASF1059
C:\Users\CYMR90~1\AppData\Local\Temp\ccBEkVPc.s:21599  .debug_str:0000000000001d03 .LASF1060
C:\Users\CYMR90~1\AppData\Local\Temp\ccBEkVPc.s:23219  .debug_str:00000000000085c4 .LASF1061
C:\Users\CYMR90~1\AppData\Local\Temp\ccBEkVPc.s:21287  .debug_str:0000000000000953 .LASF1062
C:\Users\CYMR90~1\AppData\Local\Temp\ccBEkVPc.s:26231  .debug_str:000000000001447a .LASF1063
C:\Users\CYMR90~1\AppData\Local\Temp\ccBEkVPc.s:22119  .debug_str:0000000000003d65 .LASF1064
C:\Users\CYMR90~1\AppData\Local\Temp\ccBEkVPc.s:21229  .debug_str:00000000000005cd .LASF1065
C:\Users\CYMR90~1\AppData\Local\Temp\ccBEkVPc.s:32394  .debug_str:000000000002cfc0 .LASF1066
C:\Users\CYMR90~1\AppData\Local\Temp\ccBEkVPc.s:30286  .debug_str:0000000000024633 .LASF1067
C:\Users\CYMR90~1\AppData\Local\Temp\ccBEkVPc.s:26805  .debug_str:00000000000168f2 .LASF1068
C:\Users\CYMR90~1\AppData\Local\Temp\ccBEkVPc.s:28390  .debug_str:000000000001d1ec .LASF1069
C:\Users\CYMR90~1\AppData\Local\Temp\ccBEkVPc.s:21341  .debug_str:0000000000000ce1 .LASF1070
C:\Users\CYMR90~1\AppData\Local\Temp\ccBEkVPc.s:23681  .debug_str:000000000000a27e .LASF1071
C:\Users\CYMR90~1\AppData\Local\Temp\ccBEkVPc.s:29810  .debug_str:00000000000228ce .LASF1072
C:\Users\CYMR90~1\AppData\Local\Temp\ccBEkVPc.s:28354  .debug_str:000000000001cf2c .LASF1073
C:\Users\CYMR90~1\AppData\Local\Temp\ccBEkVPc.s:31368  .debug_str:0000000000028e15 .LASF1074
C:\Users\CYMR90~1\AppData\Local\Temp\ccBEkVPc.s:26952  .debug_str:0000000000017453 .LASF1075
C:\Users\CYMR90~1\AppData\Local\Temp\ccBEkVPc.s:21773  .debug_str:0000000000002736 .LASF1076
C:\Users\CYMR90~1\AppData\Local\Temp\ccBEkVPc.s:31800  .debug_str:000000000002a8c3 .LASF1077
C:\Users\CYMR90~1\AppData\Local\Temp\ccBEkVPc.s:22729  .debug_str:00000000000064a3 .LASF1078
C:\Users\CYMR90~1\AppData\Local\Temp\ccBEkVPc.s:29294  .debug_str:00000000000209ac .LASF1079
C:\Users\CYMR90~1\AppData\Local\Temp\ccBEkVPc.s:29386  .debug_str:0000000000020f4c .LASF1080
C:\Users\CYMR90~1\AppData\Local\Temp\ccBEkVPc.s:28160  .debug_str:000000000001c23a .LASF1081
C:\Users\CYMR90~1\AppData\Local\Temp\ccBEkVPc.s:30976  .debug_str:0000000000027434 .LASF1082
C:\Users\CYMR90~1\AppData\Local\Temp\ccBEkVPc.s:26429  .debug_str:0000000000015190 .LASF1083
C:\Users\CYMR90~1\AppData\Local\Temp\ccBEkVPc.s:29510  .debug_str:0000000000021718 .LASF1084
C:\Users\CYMR90~1\AppData\Local\Temp\ccBEkVPc.s:22423  .debug_str:000000000000520a .LASF1085
C:\Users\CYMR90~1\AppData\Local\Temp\ccBEkVPc.s:21545  .debug_str:00000000000019de .LASF1086
C:\Users\CYMR90~1\AppData\Local\Temp\ccBEkVPc.s:24675  .debug_str:000000000000e254 .LASF1087
C:\Users\CYMR90~1\AppData\Local\Temp\ccBEkVPc.s:30694  .debug_str:0000000000026219 .LASF1088
C:\Users\CYMR90~1\AppData\Local\Temp\ccBEkVPc.s:29802  .debug_str:0000000000022859 .LASF1089
C:\Users\CYMR90~1\AppData\Local\Temp\ccBEkVPc.s:21393  .debug_str:0000000000001038 .LASF1090
C:\Users\CYMR90~1\AppData\Local\Temp\ccBEkVPc.s:32328  .debug_str:000000000002cb3e .LASF1091
C:\Users\CYMR90~1\AppData\Local\Temp\ccBEkVPc.s:31082  .debug_str:0000000000027abe .LASF1092
C:\Users\CYMR90~1\AppData\Local\Temp\ccBEkVPc.s:25019  .debug_str:000000000000f736 .LASF1093
C:\Users\CYMR90~1\AppData\Local\Temp\ccBEkVPc.s:30738  .debug_str:000000000002648d .LASF1094
C:\Users\CYMR90~1\AppData\Local\Temp\ccBEkVPc.s:26505  .debug_str:00000000000155b1 .LASF1095
C:\Users\CYMR90~1\AppData\Local\Temp\ccBEkVPc.s:27968  .debug_str:000000000001b64d .LASF1096
C:\Users\CYMR90~1\AppData\Local\Temp\ccBEkVPc.s:28502  .debug_str:000000000001d902 .LASF1097
C:\Users\CYMR90~1\AppData\Local\Temp\ccBEkVPc.s:22717  .debug_str:00000000000063fe .LASF1098
C:\Users\CYMR90~1\AppData\Local\Temp\ccBEkVPc.s:25875  .debug_str:0000000000012e1d .LASF1099
C:\Users\CYMR90~1\AppData\Local\Temp\ccBEkVPc.s:25187  .debug_str:000000000001025c .LASF1100
C:\Users\CYMR90~1\AppData\Local\Temp\ccBEkVPc.s:30082  .debug_str:00000000000238fe .LASF1101
C:\Users\CYMR90~1\AppData\Local\Temp\ccBEkVPc.s:24359  .debug_str:000000000000ce74 .LASF1102
C:\Users\CYMR90~1\AppData\Local\Temp\ccBEkVPc.s:29748  .debug_str:000000000002252a .LASF1103
C:\Users\CYMR90~1\AppData\Local\Temp\ccBEkVPc.s:31312  .debug_str:0000000000028ae6 .LASF1104
C:\Users\CYMR90~1\AppData\Local\Temp\ccBEkVPc.s:29186  .debug_str:00000000000202de .LASF1105
C:\Users\CYMR90~1\AppData\Local\Temp\ccBEkVPc.s:26053  .debug_str:00000000000139f3 .LASF1106
C:\Users\CYMR90~1\AppData\Local\Temp\ccBEkVPc.s:30004  .debug_str:00000000000233fb .LASF1107
C:\Users\CYMR90~1\AppData\Local\Temp\ccBEkVPc.s:27882  .debug_str:000000000001b0ce .LASF1108
C:\Users\CYMR90~1\AppData\Local\Temp\ccBEkVPc.s:22733  .debug_str:00000000000064df .LASF1109
C:\Users\CYMR90~1\AppData\Local\Temp\ccBEkVPc.s:23711  .debug_str:000000000000a43c .LASF1110
C:\Users\CYMR90~1\AppData\Local\Temp\ccBEkVPc.s:21609  .debug_str:0000000000001da4 .LASF1111
C:\Users\CYMR90~1\AppData\Local\Temp\ccBEkVPc.s:22819  .debug_str:0000000000006a46 .LASF1112
C:\Users\CYMR90~1\AppData\Local\Temp\ccBEkVPc.s:23939  .debug_str:000000000000b2ea .LASF1113
C:\Users\CYMR90~1\AppData\Local\Temp\ccBEkVPc.s:22467  .debug_str:00000000000054b7 .LASF1114
C:\Users\CYMR90~1\AppData\Local\Temp\ccBEkVPc.s:23497  .debug_str:00000000000096e2 .LASF1115
C:\Users\CYMR90~1\AppData\Local\Temp\ccBEkVPc.s:31162  .debug_str:0000000000028041 .LASF1116
C:\Users\CYMR90~1\AppData\Local\Temp\ccBEkVPc.s:31666  .debug_str:000000000002a087 .LASF1117
C:\Users\CYMR90~1\AppData\Local\Temp\ccBEkVPc.s:22633  .debug_str:0000000000005eb4 .LASF1118
C:\Users\CYMR90~1\AppData\Local\Temp\ccBEkVPc.s:27116  .debug_str:0000000000017e5e .LASF1119
C:\Users\CYMR90~1\AppData\Local\Temp\ccBEkVPc.s:23185  .debug_str:0000000000008382 .LASF1120
C:\Users\CYMR90~1\AppData\Local\Temp\ccBEkVPc.s:23399  .debug_str:00000000000090bb .LASF1121
C:\Users\CYMR90~1\AppData\Local\Temp\ccBEkVPc.s:25991  .debug_str:0000000000013627 .LASF1122
C:\Users\CYMR90~1\AppData\Local\Temp\ccBEkVPc.s:25637  .debug_str:0000000000011e75 .LASF1123
C:\Users\CYMR90~1\AppData\Local\Temp\ccBEkVPc.s:29270  .debug_str:000000000002082d .LASF1124
C:\Users\CYMR90~1\AppData\Local\Temp\ccBEkVPc.s:26433  .debug_str:00000000000151b9 .LASF1125
C:\Users\CYMR90~1\AppData\Local\Temp\ccBEkVPc.s:26525  .debug_str:00000000000156ea .LASF1126
C:\Users\CYMR90~1\AppData\Local\Temp\ccBEkVPc.s:29894  .debug_str:0000000000022e04 .LASF1127
C:\Users\CYMR90~1\AppData\Local\Temp\ccBEkVPc.s:30974  .debug_str:000000000002741f .LASF1128
C:\Users\CYMR90~1\AppData\Local\Temp\ccBEkVPc.s:22513  .debug_str:0000000000005784 .LASF1129
C:\Users\CYMR90~1\AppData\Local\Temp\ccBEkVPc.s:26523  .debug_str:00000000000156d5 .LASF1130
C:\Users\CYMR90~1\AppData\Local\Temp\ccBEkVPc.s:31500  .debug_str:00000000000296cb .LASF1131
C:\Users\CYMR90~1\AppData\Local\Temp\ccBEkVPc.s:31898  .debug_str:000000000002ae97 .LASF1132
C:\Users\CYMR90~1\AppData\Local\Temp\ccBEkVPc.s:27226  .debug_str:00000000000184f3 .LASF1133
C:\Users\CYMR90~1\AppData\Local\Temp\ccBEkVPc.s:30052  .debug_str:00000000000236f7 .LASF1134
C:\Users\CYMR90~1\AppData\Local\Temp\ccBEkVPc.s:23071  .debug_str:0000000000007b11 .LASF1135
C:\Users\CYMR90~1\AppData\Local\Temp\ccBEkVPc.s:22295  .debug_str:0000000000004a0e .LASF1136
C:\Users\CYMR90~1\AppData\Local\Temp\ccBEkVPc.s:22123  .debug_str:0000000000003d87 .LASF1137
C:\Users\CYMR90~1\AppData\Local\Temp\ccBEkVPc.s:31512  .debug_str:00000000000297c9 .LASF1138
C:\Users\CYMR90~1\AppData\Local\Temp\ccBEkVPc.s:28638  .debug_str:000000000001e1b9 .LASF1139
C:\Users\CYMR90~1\AppData\Local\Temp\ccBEkVPc.s:28534  .debug_str:000000000001dafd .LASF1140
C:\Users\CYMR90~1\AppData\Local\Temp\ccBEkVPc.s:21205  .debug_str:0000000000000489 .LASF1141
C:\Users\CYMR90~1\AppData\Local\Temp\ccBEkVPc.s:25427  .debug_str:00000000000110ad .LASF1142
C:\Users\CYMR90~1\AppData\Local\Temp\ccBEkVPc.s:24681  .debug_str:000000000000e2c7 .LASF1143
C:\Users\CYMR90~1\AppData\Local\Temp\ccBEkVPc.s:31028  .debug_str:000000000002771b .LASF1144
C:\Users\CYMR90~1\AppData\Local\Temp\ccBEkVPc.s:29230  .debug_str:0000000000020599 .LASF1145
C:\Users\CYMR90~1\AppData\Local\Temp\ccBEkVPc.s:24199  .debug_str:000000000000c3e0 .LASF1146
C:\Users\CYMR90~1\AppData\Local\Temp\ccBEkVPc.s:32324  .debug_str:000000000002cafc .LASF1147
C:\Users\CYMR90~1\AppData\Local\Temp\ccBEkVPc.s:26976  .debug_str:00000000000175b3 .LASF1148
C:\Users\CYMR90~1\AppData\Local\Temp\ccBEkVPc.s:27234  .debug_str:000000000001858e .LASF1149
C:\Users\CYMR90~1\AppData\Local\Temp\ccBEkVPc.s:27988  .debug_str:000000000001b77c .LASF1150
C:\Users\CYMR90~1\AppData\Local\Temp\ccBEkVPc.s:21611  .debug_str:0000000000001dc2 .LASF1151
C:\Users\CYMR90~1\AppData\Local\Temp\ccBEkVPc.s:28410  .debug_str:000000000001d338 .LASF1152
C:\Users\CYMR90~1\AppData\Local\Temp\ccBEkVPc.s:23523  .debug_str:0000000000009829 .LASF1153
C:\Users\CYMR90~1\AppData\Local\Temp\ccBEkVPc.s:29524  .debug_str:00000000000217ca .LASF1154
C:\Users\CYMR90~1\AppData\Local\Temp\ccBEkVPc.s:28772  .debug_str:000000000001ea0a .LASF1155
C:\Users\CYMR90~1\AppData\Local\Temp\ccBEkVPc.s:26349  .debug_str:0000000000014c20 .LASF1156
C:\Users\CYMR90~1\AppData\Local\Temp\ccBEkVPc.s:28594  .debug_str:000000000001deeb .LASF1157
C:\Users\CYMR90~1\AppData\Local\Temp\ccBEkVPc.s:23959  .debug_str:000000000000b3e4 .LASF1158
C:\Users\CYMR90~1\AppData\Local\Temp\ccBEkVPc.s:31684  .debug_str:000000000002a1c4 .LASF1159
C:\Users\CYMR90~1\AppData\Local\Temp\ccBEkVPc.s:21493  .debug_str:000000000000160d .LASF1160
C:\Users\CYMR90~1\AppData\Local\Temp\ccBEkVPc.s:31762  .debug_str:000000000002a67f .LASF1161
C:\Users\CYMR90~1\AppData\Local\Temp\ccBEkVPc.s:31448  .debug_str:0000000000029328 .LASF1162
C:\Users\CYMR90~1\AppData\Local\Temp\ccBEkVPc.s:28488  .debug_str:000000000001d82d .LASF1163
C:\Users\CYMR90~1\AppData\Local\Temp\ccBEkVPc.s:27610  .debug_str:0000000000019e22 .LASF1164
C:\Users\CYMR90~1\AppData\Local\Temp\ccBEkVPc.s:24491  .debug_str:000000000000d792 .LASF1165
C:\Users\CYMR90~1\AppData\Local\Temp\ccBEkVPc.s:29156  .debug_str:0000000000020116 .LASF1166
C:\Users\CYMR90~1\AppData\Local\Temp\ccBEkVPc.s:25385  .debug_str:0000000000010e6b .LASF1167
C:\Users\CYMR90~1\AppData\Local\Temp\ccBEkVPc.s:23521  .debug_str:000000000000981f .LASF1168
C:\Users\CYMR90~1\AppData\Local\Temp\ccBEkVPc.s:26467  .debug_str:00000000000153cc .LASF1169
C:\Users\CYMR90~1\AppData\Local\Temp\ccBEkVPc.s:27820  .debug_str:000000000001acc6 .LASF1170
C:\Users\CYMR90~1\AppData\Local\Temp\ccBEkVPc.s:27526  .debug_str:00000000000198a5 .LASF1171
C:\Users\CYMR90~1\AppData\Local\Temp\ccBEkVPc.s:31710  .debug_str:000000000002a32c .LASF1172
C:\Users\CYMR90~1\AppData\Local\Temp\ccBEkVPc.s:26753  .debug_str:0000000000016540 .LASF1173
C:\Users\CYMR90~1\AppData\Local\Temp\ccBEkVPc.s:21321  .debug_str:0000000000000be0 .LASF1174
C:\Users\CYMR90~1\AppData\Local\Temp\ccBEkVPc.s:21715  .debug_str:000000000000236b .LASF1175
C:\Users\CYMR90~1\AppData\Local\Temp\ccBEkVPc.s:25963  .debug_str:0000000000013475 .LASF1176
C:\Users\CYMR90~1\AppData\Local\Temp\ccBEkVPc.s:24303  .debug_str:000000000000cb75 .LASF1177
C:\Users\CYMR90~1\AppData\Local\Temp\ccBEkVPc.s:28544  .debug_str:000000000001db96 .LASF1178
C:\Users\CYMR90~1\AppData\Local\Temp\ccBEkVPc.s:24911  .debug_str:000000000000f0c0 .LASF1179
C:\Users\CYMR90~1\AppData\Local\Temp\ccBEkVPc.s:24479  .debug_str:000000000000d700 .LASF1180
C:\Users\CYMR90~1\AppData\Local\Temp\ccBEkVPc.s:30248  .debug_str:00000000000243eb .LASF1181
C:\Users\CYMR90~1\AppData\Local\Temp\ccBEkVPc.s:23333  .debug_str:0000000000008c9d .LASF1182
C:\Users\CYMR90~1\AppData\Local\Temp\ccBEkVPc.s:21877  .debug_str:0000000000002da6 .LASF1183
C:\Users\CYMR90~1\AppData\Local\Temp\ccBEkVPc.s:28876  .debug_str:000000000001efde .LASF1184
C:\Users\CYMR90~1\AppData\Local\Temp\ccBEkVPc.s:29326  .debug_str:0000000000020b8a .LASF1185
C:\Users\CYMR90~1\AppData\Local\Temp\ccBEkVPc.s:30486  .debug_str:00000000000253e3 .LASF1186
C:\Users\CYMR90~1\AppData\Local\Temp\ccBEkVPc.s:24409  .debug_str:000000000000d1cc .LASF1187
C:\Users\CYMR90~1\AppData\Local\Temp\ccBEkVPc.s:22523  .debug_str:0000000000005814 .LASF1188
C:\Users\CYMR90~1\AppData\Local\Temp\ccBEkVPc.s:29790  .debug_str:00000000000227a5 .LASF1189
C:\Users\CYMR90~1\AppData\Local\Temp\ccBEkVPc.s:23075  .debug_str:0000000000007b42 .LASF1190
C:\Users\CYMR90~1\AppData\Local\Temp\ccBEkVPc.s:29838  .debug_str:0000000000022a65 .LASF1191
C:\Users\CYMR90~1\AppData\Local\Temp\ccBEkVPc.s:24277  .debug_str:000000000000c913 .LASF1192
C:\Users\CYMR90~1\AppData\Local\Temp\ccBEkVPc.s:29512  .debug_str:000000000002172a .LASF1193
C:\Users\CYMR90~1\AppData\Local\Temp\ccBEkVPc.s:24523  .debug_str:000000000000d95a .LASF1194
C:\Users\CYMR90~1\AppData\Local\Temp\ccBEkVPc.s:28090  .debug_str:000000000001bd89 .LASF1195
C:\Users\CYMR90~1\AppData\Local\Temp\ccBEkVPc.s:26105  .debug_str:0000000000013d3c .LASF1196
C:\Users\CYMR90~1\AppData\Local\Temp\ccBEkVPc.s:29546  .debug_str:0000000000021947 .LASF1197
C:\Users\CYMR90~1\AppData\Local\Temp\ccBEkVPc.s:31708  .debug_str:000000000002a31d .LASF1198
C:\Users\CYMR90~1\AppData\Local\Temp\ccBEkVPc.s:26775  .debug_str:0000000000016710 .LASF1199
C:\Users\CYMR90~1\AppData\Local\Temp\ccBEkVPc.s:31714  .debug_str:000000000002a353 .LASF1200
C:\Users\CYMR90~1\AppData\Local\Temp\ccBEkVPc.s:23775  .debug_str:000000000000a800 .LASF1201
C:\Users\CYMR90~1\AppData\Local\Temp\ccBEkVPc.s:23433  .debug_str:00000000000092b3 .LASF1202
C:\Users\CYMR90~1\AppData\Local\Temp\ccBEkVPc.s:26964  .debug_str:0000000000017512 .LASF1203
C:\Users\CYMR90~1\AppData\Local\Temp\ccBEkVPc.s:30812  .debug_str:000000000002695e .LASF1204
C:\Users\CYMR90~1\AppData\Local\Temp\ccBEkVPc.s:26015  .debug_str:00000000000137cf .LASF1205
C:\Users\CYMR90~1\AppData\Local\Temp\ccBEkVPc.s:25083  .debug_str:000000000000fbc0 .LASF1206
C:\Users\CYMR90~1\AppData\Local\Temp\ccBEkVPc.s:31680  .debug_str:000000000002a192 .LASF1207
C:\Users\CYMR90~1\AppData\Local\Temp\ccBEkVPc.s:30336  .debug_str:000000000002498e .LASF1208
C:\Users\CYMR90~1\AppData\Local\Temp\ccBEkVPc.s:25011  .debug_str:000000000000f6d9 .LASF1209
C:\Users\CYMR90~1\AppData\Local\Temp\ccBEkVPc.s:22417  .debug_str:00000000000051a2 .LASF1210
C:\Users\CYMR90~1\AppData\Local\Temp\ccBEkVPc.s:22515  .debug_str:000000000000579a .LASF1211
C:\Users\CYMR90~1\AppData\Local\Temp\ccBEkVPc.s:23223  .debug_str:0000000000008608 .LASF1212
C:\Users\CYMR90~1\AppData\Local\Temp\ccBEkVPc.s:22813  .debug_str:00000000000069c6 .LASF1213
C:\Users\CYMR90~1\AppData\Local\Temp\ccBEkVPc.s:21725  .debug_str:0000000000002411 .LASF1214
C:\Users\CYMR90~1\AppData\Local\Temp\ccBEkVPc.s:23567  .debug_str:0000000000009b94 .LASF1215
C:\Users\CYMR90~1\AppData\Local\Temp\ccBEkVPc.s:21669  .debug_str:00000000000020cf .LASF1216
C:\Users\CYMR90~1\AppData\Local\Temp\ccBEkVPc.s:29960  .debug_str:000000000002318e .LASF1217
C:\Users\CYMR90~1\AppData\Local\Temp\ccBEkVPc.s:29974  .debug_str:0000000000023242 .LASF1218
C:\Users\CYMR90~1\AppData\Local\Temp\ccBEkVPc.s:30392  .debug_str:0000000000024d24 .LASF1219
C:\Users\CYMR90~1\AppData\Local\Temp\ccBEkVPc.s:27972  .debug_str:000000000001b681 .LASF1220
C:\Users\CYMR90~1\AppData\Local\Temp\ccBEkVPc.s:24567  .debug_str:000000000000dbd3 .LASF1221
C:\Users\CYMR90~1\AppData\Local\Temp\ccBEkVPc.s:26283  .debug_str:0000000000014826 .LASF1222
C:\Users\CYMR90~1\AppData\Local\Temp\ccBEkVPc.s:21897  .debug_str:0000000000002ebe .LASF1223
C:\Users\CYMR90~1\AppData\Local\Temp\ccBEkVPc.s:27704  .debug_str:000000000001a54b .LASF1224
C:\Users\CYMR90~1\AppData\Local\Temp\ccBEkVPc.s:30992  .debug_str:0000000000027538 .LASF1225
C:\Users\CYMR90~1\AppData\Local\Temp\ccBEkVPc.s:24045  .debug_str:000000000000b9c4 .LASF1226
C:\Users\CYMR90~1\AppData\Local\Temp\ccBEkVPc.s:22957  .debug_str:000000000000737a .LASF1227
C:\Users\CYMR90~1\AppData\Local\Temp\ccBEkVPc.s:21989  .debug_str:00000000000034dd .LASF1228
C:\Users\CYMR90~1\AppData\Local\Temp\ccBEkVPc.s:32378  .debug_str:000000000002cecc .LASF1229
C:\Users\CYMR90~1\AppData\Local\Temp\ccBEkVPc.s:31430  .debug_str:0000000000029218 .LASF1230
C:\Users\CYMR90~1\AppData\Local\Temp\ccBEkVPc.s:30452  .debug_str:0000000000025116 .LASF1231
C:\Users\CYMR90~1\AppData\Local\Temp\ccBEkVPc.s:29500  .debug_str:0000000000021690 .LASF1232
C:\Users\CYMR90~1\AppData\Local\Temp\ccBEkVPc.s:29384  .debug_str:0000000000020f35 .LASF1233
C:\Users\CYMR90~1\AppData\Local\Temp\ccBEkVPc.s:28428  .debug_str:000000000001d430 .LASF1234
C:\Users\CYMR90~1\AppData\Local\Temp\ccBEkVPc.s:27484  .debug_str:00000000000195ea .LASF1235
C:\Users\CYMR90~1\AppData\Local\Temp\ccBEkVPc.s:26175  .debug_str:0000000000014163 .LASF1236
C:\Users\CYMR90~1\AppData\Local\Temp\ccBEkVPc.s:25549  .debug_str:00000000000118c6 .LASF1237
C:\Users\CYMR90~1\AppData\Local\Temp\ccBEkVPc.s:24593  .debug_str:000000000000dd5e .LASF1238
C:\Users\CYMR90~1\AppData\Local\Temp\ccBEkVPc.s:23641  .debug_str:0000000000009ff5 .LASF1239
C:\Users\CYMR90~1\AppData\Local\Temp\ccBEkVPc.s:22629  .debug_str:0000000000005e73 .LASF1240
C:\Users\CYMR90~1\AppData\Local\Temp\ccBEkVPc.s:21687  .debug_str:00000000000021df .LASF1241
C:\Users\CYMR90~1\AppData\Local\Temp\ccBEkVPc.s:32092  .debug_str:000000000002bb6b .LASF1242
C:\Users\CYMR90~1\AppData\Local\Temp\ccBEkVPc.s:21217  .debug_str:0000000000000523 .LASF1243
C:\Users\CYMR90~1\AppData\Local\Temp\ccBEkVPc.s:31576  .debug_str:0000000000029b69 .LASF1244
C:\Users\CYMR90~1\AppData\Local\Temp\ccBEkVPc.s:30596  .debug_str:0000000000025bee .LASF1245
C:\Users\CYMR90~1\AppData\Local\Temp\ccBEkVPc.s:29650  .debug_str:0000000000021fa0 .LASF1246
C:\Users\CYMR90~1\AppData\Local\Temp\ccBEkVPc.s:28676  .debug_str:000000000001e407 .LASF1247
C:\Users\CYMR90~1\AppData\Local\Temp\ccBEkVPc.s:27762  .debug_str:000000000001a933 .LASF1248
C:\Users\CYMR90~1\AppData\Local\Temp\ccBEkVPc.s:26819  .debug_str:0000000000016a13 .LASF1249
C:\Users\CYMR90~1\AppData\Local\Temp\ccBEkVPc.s:31510  .debug_str:00000000000297b2 .LASF1250
C:\Users\CYMR90~1\AppData\Local\Temp\ccBEkVPc.s:24917  .debug_str:000000000000f105 .LASF1251
C:\Users\CYMR90~1\AppData\Local\Temp\ccBEkVPc.s:27080  .debug_str:0000000000017c5d .LASF1252
C:\Users\CYMR90~1\AppData\Local\Temp\ccBEkVPc.s:24419  .debug_str:000000000000d280 .LASF1253
C:\Users\CYMR90~1\AppData\Local\Temp\ccBEkVPc.s:23445  .debug_str:000000000000936c .LASF1254
C:\Users\CYMR90~1\AppData\Local\Temp\ccBEkVPc.s:21457  .debug_str:00000000000013fd .LASF1255
C:\Users\CYMR90~1\AppData\Local\Temp\ccBEkVPc.s:24337  .debug_str:000000000000cd57 .LASF1256
C:\Users\CYMR90~1\AppData\Local\Temp\ccBEkVPc.s:22581  .debug_str:0000000000005bbd .LASF1257
C:\Users\CYMR90~1\AppData\Local\Temp\ccBEkVPc.s:27350  .debug_str:0000000000018d56 .LASF1258
C:\Users\CYMR90~1\AppData\Local\Temp\ccBEkVPc.s:27352  .debug_str:0000000000018d69 .LASF1259
C:\Users\CYMR90~1\AppData\Local\Temp\ccBEkVPc.s:29842  .debug_str:0000000000022a95 .LASF1260
C:\Users\CYMR90~1\AppData\Local\Temp\ccBEkVPc.s:27966  .debug_str:000000000001b63a .LASF1261
C:\Users\CYMR90~1\AppData\Local\Temp\ccBEkVPc.s:25355  .debug_str:0000000000010d03 .LASF1262
C:\Users\CYMR90~1\AppData\Local\Temp\ccBEkVPc.s:22471  .debug_str:00000000000054fa .LASF1263
C:\Users\CYMR90~1\AppData\Local\Temp\ccBEkVPc.s:24655  .debug_str:000000000000e11f .LASF1264
C:\Users\CYMR90~1\AppData\Local\Temp\ccBEkVPc.s:26843  .debug_str:0000000000016c3a .LASF1265
C:\Users\CYMR90~1\AppData\Local\Temp\ccBEkVPc.s:24707  .debug_str:000000000000e442 .LASF1266
C:\Users\CYMR90~1\AppData\Local\Temp\ccBEkVPc.s:29870  .debug_str:0000000000022cc1 .LASF1267
C:\Users\CYMR90~1\AppData\Local\Temp\ccBEkVPc.s:30046  .debug_str:00000000000236ad .LASF1268
C:\Users\CYMR90~1\AppData\Local\Temp\ccBEkVPc.s:25491  .debug_str:0000000000011448 .LASF1269
C:\Users\CYMR90~1\AppData\Local\Temp\ccBEkVPc.s:32150  .debug_str:000000000002bf15 .LASF1270
C:\Users\CYMR90~1\AppData\Local\Temp\ccBEkVPc.s:27082  .debug_str:0000000000017c74 .LASF1271
C:\Users\CYMR90~1\AppData\Local\Temp\ccBEkVPc.s:31536  .debug_str:0000000000029910 .LASF1272
C:\Users\CYMR90~1\AppData\Local\Temp\ccBEkVPc.s:23203  .debug_str:00000000000084f3 .LASF1273
C:\Users\CYMR90~1\AppData\Local\Temp\ccBEkVPc.s:21277  .debug_str:00000000000008c5 .LASF1274
C:\Users\CYMR90~1\AppData\Local\Temp\ccBEkVPc.s:27360  .debug_str:0000000000018dce .LASF1275
C:\Users\CYMR90~1\AppData\Local\Temp\ccBEkVPc.s:21383  .debug_str:0000000000000fb4 .LASF1276
C:\Users\CYMR90~1\AppData\Local\Temp\ccBEkVPc.s:23663  .debug_str:000000000000a15a .LASF1277
C:\Users\CYMR90~1\AppData\Local\Temp\ccBEkVPc.s:22651  .debug_str:0000000000005fd4 .LASF1278
C:\Users\CYMR90~1\AppData\Local\Temp\ccBEkVPc.s:21713  .debug_str:0000000000002359 .LASF1279
C:\Users\CYMR90~1\AppData\Local\Temp\ccBEkVPc.s:32112  .debug_str:000000000002bc98 .LASF1280
C:\Users\CYMR90~1\AppData\Local\Temp\ccBEkVPc.s:22535  .debug_str:00000000000058df .LASF1281
C:\Users\CYMR90~1\AppData\Local\Temp\ccBEkVPc.s:21601  .debug_str:0000000000001d20 .LASF1282
C:\Users\CYMR90~1\AppData\Local\Temp\ccBEkVPc.s:28720  .debug_str:000000000001e6be .LASF1283
C:\Users\CYMR90~1\AppData\Local\Temp\ccBEkVPc.s:31024  .debug_str:00000000000276e2 .LASF1284
C:\Users\CYMR90~1\AppData\Local\Temp\ccBEkVPc.s:30072  .debug_str:0000000000023878 .LASF1285
C:\Users\CYMR90~1\AppData\Local\Temp\ccBEkVPc.s:29106  .debug_str:000000000001fe02 .LASF1286
C:\Users\CYMR90~1\AppData\Local\Temp\ccBEkVPc.s:28154  .debug_str:000000000001c1bb .LASF1287
C:\Users\CYMR90~1\AppData\Local\Temp\ccBEkVPc.s:27188  .debug_str:00000000000182c3 .LASF1288
C:\Users\CYMR90~1\AppData\Local\Temp\ccBEkVPc.s:26219  .debug_str:00000000000143ec .LASF1289
C:\Users\CYMR90~1\AppData\Local\Temp\ccBEkVPc.s:25283  .debug_str:000000000001081b .LASF1290
C:\Users\CYMR90~1\AppData\Local\Temp\ccBEkVPc.s:29602  .debug_str:0000000000021c92 .LASF1291
C:\Users\CYMR90~1\AppData\Local\Temp\ccBEkVPc.s:28622  .debug_str:000000000001e0ca .LASF1292
C:\Users\CYMR90~1\AppData\Local\Temp\ccBEkVPc.s:27702  .debug_str:000000000001a537 .LASF1293
C:\Users\CYMR90~1\AppData\Local\Temp\ccBEkVPc.s:26707  .debug_str:00000000000162d1 .LASF1294
C:\Users\CYMR90~1\AppData\Local\Temp\ccBEkVPc.s:25777  .debug_str:00000000000127b7 .LASF1295
C:\Users\CYMR90~1\AppData\Local\Temp\ccBEkVPc.s:24813  .debug_str:000000000000eb30 .LASF1296
C:\Users\CYMR90~1\AppData\Local\Temp\ccBEkVPc.s:24179  .debug_str:000000000000c2c4 .LASF1297
C:\Users\CYMR90~1\AppData\Local\Temp\ccBEkVPc.s:29072  .debug_str:000000000001fbde .LASF1298
C:\Users\CYMR90~1\AppData\Local\Temp\ccBEkVPc.s:28128  .debug_str:000000000001c027 .LASF1299
C:\Users\CYMR90~1\AppData\Local\Temp\ccBEkVPc.s:27156  .debug_str:00000000000180bf .LASF1300
C:\Users\CYMR90~1\AppData\Local\Temp\ccBEkVPc.s:28102  .debug_str:000000000001be5d .LASF1301
C:\Users\CYMR90~1\AppData\Local\Temp\ccBEkVPc.s:29322  .debug_str:0000000000020b67 .LASF1302
C:\Users\CYMR90~1\AppData\Local\Temp\ccBEkVPc.s:26751  .debug_str:000000000001652d .LASF1303
C:\Users\CYMR90~1\AppData\Local\Temp\ccBEkVPc.s:27620  .debug_str:0000000000019ec6 .LASF1304
C:\Users\CYMR90~1\AppData\Local\Temp\ccBEkVPc.s:27592  .debug_str:0000000000019d28 .LASF1305
C:\Users\CYMR90~1\AppData\Local\Temp\ccBEkVPc.s:23337  .debug_str:0000000000008cd1 .LASF1306
C:\Users\CYMR90~1\AppData\Local\Temp\ccBEkVPc.s:22325  .debug_str:0000000000004c03 .LASF1307
C:\Users\CYMR90~1\AppData\Local\Temp\ccBEkVPc.s:21395  .debug_str:000000000000104a .LASF1308
C:\Users\CYMR90~1\AppData\Local\Temp\ccBEkVPc.s:31778  .debug_str:000000000002a778 .LASF1309
C:\Users\CYMR90~1\AppData\Local\Temp\ccBEkVPc.s:30808  .debug_str:0000000000026923 .LASF1310
C:\Users\CYMR90~1\AppData\Local\Temp\ccBEkVPc.s:29846  .debug_str:0000000000022ac1 .LASF1311
C:\Users\CYMR90~1\AppData\Local\Temp\ccBEkVPc.s:23287  .debug_str:00000000000089db .LASF1312
C:\Users\CYMR90~1\AppData\Local\Temp\ccBEkVPc.s:24669  .debug_str:000000000000e1ff .LASF1313
C:\Users\CYMR90~1\AppData\Local\Temp\ccBEkVPc.s:25933  .debug_str:00000000000131fd .LASF1314
C:\Users\CYMR90~1\AppData\Local\Temp\ccBEkVPc.s:31994  .debug_str:000000000002b4c8 .LASF1315
C:\Users\CYMR90~1\AppData\Local\Temp\ccBEkVPc.s:30526  .debug_str:00000000000256ed .LASF1316
C:\Users\CYMR90~1\AppData\Local\Temp\ccBEkVPc.s:30064  .debug_str:00000000000237dc .LASF1317
C:\Users\CYMR90~1\AppData\Local\Temp\ccBEkVPc.s:29098  .debug_str:000000000001fd95 .LASF1318
C:\Users\CYMR90~1\AppData\Local\Temp\ccBEkVPc.s:28164  .debug_str:000000000001c265 .LASF1319
C:\Users\CYMR90~1\AppData\Local\Temp\ccBEkVPc.s:27198  .debug_str:0000000000018371 .LASF1320
C:\Users\CYMR90~1\AppData\Local\Temp\ccBEkVPc.s:26229  .debug_str:0000000000014462 .LASF1321
C:\Users\CYMR90~1\AppData\Local\Temp\ccBEkVPc.s:25289  .debug_str:000000000001087a .LASF1322
C:\Users\CYMR90~1\AppData\Local\Temp\ccBEkVPc.s:25755  .debug_str:0000000000012647 .LASF1323
C:\Users\CYMR90~1\AppData\Local\Temp\ccBEkVPc.s:24183  .debug_str:000000000000c2e9 .LASF1324
C:\Users\CYMR90~1\AppData\Local\Temp\ccBEkVPc.s:23829  .debug_str:000000000000ab78 .LASF1325
C:\Users\CYMR90~1\AppData\Local\Temp\ccBEkVPc.s:22821  .debug_str:0000000000006a62 .LASF1326
C:\Users\CYMR90~1\AppData\Local\Temp\ccBEkVPc.s:21855  .debug_str:0000000000002c56 .LASF1327
C:\Users\CYMR90~1\AppData\Local\Temp\ccBEkVPc.s:32266  .debug_str:000000000002c721 .LASF1328
C:\Users\CYMR90~1\AppData\Local\Temp\ccBEkVPc.s:31344  .debug_str:0000000000028c9d .LASF1329
C:\Users\CYMR90~1\AppData\Local\Temp\ccBEkVPc.s:30372  .debug_str:0000000000024bd0 .LASF1330
C:\Users\CYMR90~1\AppData\Local\Temp\ccBEkVPc.s:29426  .debug_str:0000000000021198 .LASF1331
C:\Users\CYMR90~1\AppData\Local\Temp\ccBEkVPc.s:28460  .debug_str:000000000001d63a .LASF1332
C:\Users\CYMR90~1\AppData\Local\Temp\ccBEkVPc.s:28898  .debug_str:000000000001f162 .LASF1333
C:\Users\CYMR90~1\AppData\Local\Temp\ccBEkVPc.s:27982  .debug_str:000000000001b720 .LASF1334
C:\Users\CYMR90~1\AppData\Local\Temp\ccBEkVPc.s:26667  .debug_str:000000000001604f .LASF1335
C:\Users\CYMR90~1\AppData\Local\Temp\ccBEkVPc.s:24333  .debug_str:000000000000cd2c .LASF1336
C:\Users\CYMR90~1\AppData\Local\Temp\ccBEkVPc.s:29114  .debug_str:000000000001fe61 .LASF1337
C:\Users\CYMR90~1\AppData\Local\Temp\ccBEkVPc.s:25635  .debug_str:0000000000011e60 .LASF1338
C:\Users\CYMR90~1\AppData\Local\Temp\ccBEkVPc.s:21497  .debug_str:0000000000001645 .LASF1339
C:\Users\CYMR90~1\AppData\Local\Temp\ccBEkVPc.s:23613  .debug_str:0000000000009e5e .LASF1340
C:\Users\CYMR90~1\AppData\Local\Temp\ccBEkVPc.s:22597  .debug_str:0000000000005cb4 .LASF1341
C:\Users\CYMR90~1\AppData\Local\Temp\ccBEkVPc.s:21657  .debug_str:0000000000002031 .LASF1342
C:\Users\CYMR90~1\AppData\Local\Temp\ccBEkVPc.s:32072  .debug_str:000000000002b9f8 .LASF1343
C:\Users\CYMR90~1\AppData\Local\Temp\ccBEkVPc.s:31864  .debug_str:000000000002ac5f .LASF1344
C:\Users\CYMR90~1\AppData\Local\Temp\ccBEkVPc.s:30888  .debug_str:0000000000026e14 .LASF1345
C:\Users\CYMR90~1\AppData\Local\Temp\ccBEkVPc.s:29938  .debug_str:000000000002307c .LASF1346
C:\Users\CYMR90~1\AppData\Local\Temp\ccBEkVPc.s:31296  .debug_str:00000000000289f1 .LASF1347
C:\Users\CYMR90~1\AppData\Local\Temp\ccBEkVPc.s:28030  .debug_str:000000000001ba1c .LASF1348
C:\Users\CYMR90~1\AppData\Local\Temp\ccBEkVPc.s:28536  .debug_str:000000000001db15 .LASF1349
C:\Users\CYMR90~1\AppData\Local\Temp\ccBEkVPc.s:26095  .debug_str:0000000000013cb4 .LASF1350
C:\Users\CYMR90~1\AppData\Local\Temp\ccBEkVPc.s:29256  .debug_str:000000000002076f .LASF1351
C:\Users\CYMR90~1\AppData\Local\Temp\ccBEkVPc.s:24195  .debug_str:000000000000c3b5 .LASF1352
C:\Users\CYMR90~1\AppData\Local\Temp\ccBEkVPc.s:23119  .debug_str:0000000000007e88 .LASF1353
C:\Users\CYMR90~1\AppData\Local\Temp\ccBEkVPc.s:23695  .debug_str:000000000000a348 .LASF1354
C:\Users\CYMR90~1\AppData\Local\Temp\ccBEkVPc.s:22683  .debug_str:00000000000061f2 .LASF1355
C:\Users\CYMR90~1\AppData\Local\Temp\ccBEkVPc.s:21737  .debug_str:00000000000024b1 .LASF1356
C:\Users\CYMR90~1\AppData\Local\Temp\ccBEkVPc.s:32140  .debug_str:000000000002be9a .LASF1357
C:\Users\CYMR90~1\AppData\Local\Temp\ccBEkVPc.s:26187  .debug_str:000000000001422b .LASF1358
C:\Users\CYMR90~1\AppData\Local\Temp\ccBEkVPc.s:22815  .debug_str:0000000000006a0a .LASF1359
C:\Users\CYMR90~1\AppData\Local\Temp\ccBEkVPc.s:29302  .debug_str:0000000000020a15 .LASF1360
C:\Users\CYMR90~1\AppData\Local\Temp\ccBEkVPc.s:28256  .debug_str:000000000001c7c7 .LASF1361
C:\Users\CYMR90~1\AppData\Local\Temp\ccBEkVPc.s:27292  .debug_str:0000000000018902 .LASF1362
C:\Users\CYMR90~1\AppData\Local\Temp\ccBEkVPc.s:31306  .debug_str:0000000000028a82 .LASF1363
C:\Users\CYMR90~1\AppData\Local\Temp\ccBEkVPc.s:26593  .debug_str:0000000000015af1 .LASF1364
C:\Users\CYMR90~1\AppData\Local\Temp\ccBEkVPc.s:23241  .debug_str:0000000000008721 .LASF1365
C:\Users\CYMR90~1\AppData\Local\Temp\ccBEkVPc.s:30916  .debug_str:0000000000026fd1 .LASF1366
C:\Users\CYMR90~1\AppData\Local\Temp\ccBEkVPc.s:30170  .debug_str:0000000000023df4 .LASF1367
C:\Users\CYMR90~1\AppData\Local\Temp\ccBEkVPc.s:29198  .debug_str:0000000000020396 .LASF1368
C:\Users\CYMR90~1\AppData\Local\Temp\ccBEkVPc.s:27460  .debug_str:0000000000019445 .LASF1369
C:\Users\CYMR90~1\AppData\Local\Temp\ccBEkVPc.s:25335  .debug_str:0000000000010b11 .LASF1370
C:\Users\CYMR90~1\AppData\Local\Temp\ccBEkVPc.s:28470  .debug_str:000000000001d6c5 .LASF1371
C:\Users\CYMR90~1\AppData\Local\Temp\ccBEkVPc.s:21777  .debug_str:0000000000002773 .LASF1372
C:\Users\CYMR90~1\AppData\Local\Temp\ccBEkVPc.s:24377  .debug_str:000000000000cfbb .LASF1373
C:\Users\CYMR90~1\AppData\Local\Temp\ccBEkVPc.s:27504  .debug_str:00000000000196ff .LASF1374
C:\Users\CYMR90~1\AppData\Local\Temp\ccBEkVPc.s:30588  .debug_str:0000000000025b80 .LASF1375
C:\Users\CYMR90~1\AppData\Local\Temp\ccBEkVPc.s:22353  .debug_str:0000000000004dcb .LASF1376
C:\Users\CYMR90~1\AppData\Local\Temp\ccBEkVPc.s:25533  .debug_str:0000000000011714 .LASF1377
C:\Users\CYMR90~1\AppData\Local\Temp\ccBEkVPc.s:28632  .debug_str:000000000001e169 .LASF1378
C:\Users\CYMR90~1\AppData\Local\Temp\ccBEkVPc.s:31774  .debug_str:000000000002a73b .LASF1379
C:\Users\CYMR90~1\AppData\Local\Temp\ccBEkVPc.s:31742  .debug_str:000000000002a520 .LASF1380
C:\Users\CYMR90~1\AppData\Local\Temp\ccBEkVPc.s:23457  .debug_str:000000000000941c .LASF1381
C:\Users\CYMR90~1\AppData\Local\Temp\ccBEkVPc.s:26563  .debug_str:0000000000015930 .LASF1382
C:\Users\CYMR90~1\AppData\Local\Temp\ccBEkVPc.s:29694  .debug_str:0000000000022228 .LASF1383
C:\Users\CYMR90~1\AppData\Local\Temp\ccBEkVPc.s:21471  .debug_str:00000000000014ae .LASF1384
C:\Users\CYMR90~1\AppData\Local\Temp\ccBEkVPc.s:24639  .debug_str:000000000000e033 .LASF1385
C:\Users\CYMR90~1\AppData\Local\Temp\ccBEkVPc.s:27798  .debug_str:000000000001ab7f .LASF1386
C:\Users\CYMR90~1\AppData\Local\Temp\ccBEkVPc.s:30878  .debug_str:0000000000026d53 .LASF1387
C:\Users\CYMR90~1\AppData\Local\Temp\ccBEkVPc.s:22635  .debug_str:0000000000005ed6 .LASF1388
C:\Users\CYMR90~1\AppData\Local\Temp\ccBEkVPc.s:25739  .debug_str:0000000000012539 .LASF1389
C:\Users\CYMR90~1\AppData\Local\Temp\ccBEkVPc.s:25089  .debug_str:000000000000fc06 .LASF1390
C:\Users\CYMR90~1\AppData\Local\Temp\ccBEkVPc.s:28112  .debug_str:000000000001bf13 .LASF1391
C:\Users\CYMR90~1\AppData\Local\Temp\ccBEkVPc.s:31216  .debug_str:0000000000028454 .LASF1392
C:\Users\CYMR90~1\AppData\Local\Temp\ccBEkVPc.s:22995  .debug_str:00000000000075db .LASF1393
C:\Users\CYMR90~1\AppData\Local\Temp\ccBEkVPc.s:26125  .debug_str:0000000000013e41 .LASF1394
C:\Users\CYMR90~1\AppData\Local\Temp\ccBEkVPc.s:26281  .debug_str:000000000001480e .LASF1395
C:\Users\CYMR90~1\AppData\Local\Temp\ccBEkVPc.s:32436  .debug_str:000000000002d235 .LASF1396
C:\Users\CYMR90~1\AppData\Local\Temp\ccBEkVPc.s:24251  .debug_str:000000000000c6e0 .LASF1397
C:\Users\CYMR90~1\AppData\Local\Temp\ccBEkVPc.s:28846  .debug_str:000000000001ee3b .LASF1398
C:\Users\CYMR90~1\AppData\Local\Temp\ccBEkVPc.s:25445  .debug_str:00000000000111c4 .LASF1399
C:\Users\CYMR90~1\AppData\Local\Temp\ccBEkVPc.s:26731  .debug_str:0000000000016427 .LASF1400
C:\Users\CYMR90~1\AppData\Local\Temp\ccBEkVPc.s:21429  .debug_str:0000000000001249 .LASF1401
C:\Users\CYMR90~1\AppData\Local\Temp\ccBEkVPc.s:29178  .debug_str:000000000002025e .LASF1402
C:\Users\CYMR90~1\AppData\Local\Temp\ccBEkVPc.s:24083  .debug_str:000000000000bc5a .LASF1403
C:\Users\CYMR90~1\AppData\Local\Temp\ccBEkVPc.s:28946  .debug_str:000000000001f462 .LASF1404
C:\Users\CYMR90~1\AppData\Local\Temp\ccBEkVPc.s:32020  .debug_str:000000000002b66d .LASF1405
C:\Users\CYMR90~1\AppData\Local\Temp\ccBEkVPc.s:31704  .debug_str:000000000002a2cd .LASF1406
C:\Users\CYMR90~1\AppData\Local\Temp\ccBEkVPc.s:29892  .debug_str:0000000000022dec .LASF1407
C:\Users\CYMR90~1\AppData\Local\Temp\ccBEkVPc.s:30050  .debug_str:00000000000236df .LASF1408
C:\Users\CYMR90~1\AppData\Local\Temp\ccBEkVPc.s:21809  .debug_str:000000000000296e .LASF1409
C:\Users\CYMR90~1\AppData\Local\Temp\ccBEkVPc.s:24993  .debug_str:000000000000f5c5 .LASF1410
C:\Users\CYMR90~1\AppData\Local\Temp\ccBEkVPc.s:31446  .debug_str:000000000002930f .LASF1411
C:\Users\CYMR90~1\AppData\Local\Temp\ccBEkVPc.s:23229  .debug_str:000000000000865d .LASF1412
C:\Users\CYMR90~1\AppData\Local\Temp\ccBEkVPc.s:28822  .debug_str:000000000001ecd6 .LASF1413
C:\Users\CYMR90~1\AppData\Local\Temp\ccBEkVPc.s:29484  .debug_str:0000000000021583 .LASF1414
C:\Users\CYMR90~1\AppData\Local\Temp\ccBEkVPc.s:21279  .debug_str:00000000000008d8 .LASF1415
C:\Users\CYMR90~1\AppData\Local\Temp\ccBEkVPc.s:24343  .debug_str:000000000000cd94 .LASF1416
C:\Users\CYMR90~1\AppData\Local\Temp\ccBEkVPc.s:27482  .debug_str:00000000000195d1 .LASF1417
C:\Users\CYMR90~1\AppData\Local\Temp\ccBEkVPc.s:29010  .debug_str:000000000001f825 .LASF1418
C:\Users\CYMR90~1\AppData\Local\Temp\ccBEkVPc.s:22333  .debug_str:0000000000004c7f .LASF1419
C:\Users\CYMR90~1\AppData\Local\Temp\ccBEkVPc.s:25429  .debug_str:00000000000110c3 .LASF1420
C:\Users\CYMR90~1\AppData\Local\Temp\ccBEkVPc.s:24771  .debug_str:000000000000e86e .LASF1421
C:\Users\CYMR90~1\AppData\Local\Temp\ccBEkVPc.s:27914  .debug_str:000000000001b319 .LASF1422
C:\Users\CYMR90~1\AppData\Local\Temp\ccBEkVPc.s:30990  .debug_str:000000000002751f .LASF1423
C:\Users\CYMR90~1\AppData\Local\Temp\ccBEkVPc.s:22767  .debug_str:00000000000066d7 .LASF1424
C:\Users\CYMR90~1\AppData\Local\Temp\ccBEkVPc.s:25937  .debug_str:000000000001322b .LASF1425
C:\Users\CYMR90~1\AppData\Local\Temp\ccBEkVPc.s:28938  .debug_str:000000000001f3c9 .LASF1426
C:\Users\CYMR90~1\AppData\Local\Temp\ccBEkVPc.s:32156  .debug_str:000000000002bfe8 .LASF1427
C:\Users\CYMR90~1\AppData\Local\Temp\ccBEkVPc.s:23957  .debug_str:000000000000b3cb .LASF1428
C:\Users\CYMR90~1\AppData\Local\Temp\ccBEkVPc.s:27058  .debug_str:0000000000017b27 .LASF1429
C:\Users\CYMR90~1\AppData\Local\Temp\ccBEkVPc.s:30180  .debug_str:0000000000023e94 .LASF1430
C:\Users\CYMR90~1\AppData\Local\Temp\ccBEkVPc.s:28948  .debug_str:000000000001f47a .LASF1431
C:\Users\CYMR90~1\AppData\Local\Temp\ccBEkVPc.s:21241  .debug_str:000000000000069c .LASF1432
C:\Users\CYMR90~1\AppData\Local\Temp\ccBEkVPc.s:25473  .debug_str:000000000001133e .LASF1433
C:\Users\CYMR90~1\AppData\Local\Temp\ccBEkVPc.s:29182  .debug_str:00000000000202b1 .LASF1434
C:\Users\CYMR90~1\AppData\Local\Temp\ccBEkVPc.s:28222  .debug_str:000000000001c59b .LASF1435
C:\Users\CYMR90~1\AppData\Local\Temp\ccBEkVPc.s:27260  .debug_str:00000000000186d5 .LASF1436
C:\Users\CYMR90~1\AppData\Local\Temp\ccBEkVPc.s:26689  .debug_str:00000000000161d1 .LASF1437
C:\Users\CYMR90~1\AppData\Local\Temp\ccBEkVPc.s:31022  .debug_str:00000000000276ce .LASF1438
C:\Users\CYMR90~1\AppData\Local\Temp\ccBEkVPc.s:30070  .debug_str:0000000000023864 .LASF1439
C:\Users\CYMR90~1\AppData\Local\Temp\ccBEkVPc.s:29104  .debug_str:000000000001fdee .LASF1440
C:\Users\CYMR90~1\AppData\Local\Temp\ccBEkVPc.s:28152  .debug_str:000000000001c1a7 .LASF1441
C:\Users\CYMR90~1\AppData\Local\Temp\ccBEkVPc.s:27186  .debug_str:00000000000182af .LASF1442
C:\Users\CYMR90~1\AppData\Local\Temp\ccBEkVPc.s:26217  .debug_str:00000000000143d8 .LASF1443
C:\Users\CYMR90~1\AppData\Local\Temp\ccBEkVPc.s:25281  .debug_str:0000000000010807 .LASF1444
C:\Users\CYMR90~1\AppData\Local\Temp\ccBEkVPc.s:32108  .debug_str:000000000002bc60 .LASF1445
C:\Users\CYMR90~1\AppData\Local\Temp\ccBEkVPc.s:23345  .debug_str:0000000000008d3f .LASF1446
C:\Users\CYMR90~1\AppData\Local\Temp\ccBEkVPc.s:24903  .debug_str:000000000000f03e .LASF1447
C:\Users\CYMR90~1\AppData\Local\Temp\ccBEkVPc.s:30408  .debug_str:0000000000024e1d .LASF1448
C:\Users\CYMR90~1\AppData\Local\Temp\ccBEkVPc.s:29462  .debug_str:000000000002138e .LASF1449
C:\Users\CYMR90~1\AppData\Local\Temp\ccBEkVPc.s:28480  .debug_str:000000000001d7c4 .LASF1450
C:\Users\CYMR90~1\AppData\Local\Temp\ccBEkVPc.s:27546  .debug_str:0000000000019a69 .LASF1451
C:\Users\CYMR90~1\AppData\Local\Temp\ccBEkVPc.s:26561  .debug_str:000000000001591b .LASF1452
C:\Users\CYMR90~1\AppData\Local\Temp\ccBEkVPc.s:23955  .debug_str:000000000000b3b8 .LASF1453
C:\Users\CYMR90~1\AppData\Local\Temp\ccBEkVPc.s:22541  .debug_str:0000000000005935 .LASF1454
C:\Users\CYMR90~1\AppData\Local\Temp\ccBEkVPc.s:23757  .debug_str:000000000000a702 .LASF1455
C:\Users\CYMR90~1\AppData\Local\Temp\ccBEkVPc.s:28852  .debug_str:000000000001ee85 .LASF1456
C:\Users\CYMR90~1\AppData\Local\Temp\ccBEkVPc.s:30462  .debug_str:00000000000251c9 .LASF1457
C:\Users\CYMR90~1\AppData\Local\Temp\ccBEkVPc.s:22507  .debug_str:0000000000005746 .LASF1458
C:\Users\CYMR90~1\AppData\Local\Temp\ccBEkVPc.s:28932  .debug_str:000000000001f37b .LASF1459
C:\Users\CYMR90~1\AppData\Local\Temp\ccBEkVPc.s:25759  .debug_str:0000000000012688 .LASF1460
C:\Users\CYMR90~1\AppData\Local\Temp\ccBEkVPc.s:23865  .debug_str:000000000000adc6 .LASF1461
C:\Users\CYMR90~1\AppData\Local\Temp\ccBEkVPc.s:25045  .debug_str:000000000000f974 .LASF1462
C:\Users\CYMR90~1\AppData\Local\Temp\ccBEkVPc.s:25541  .debug_str:0000000000011809 .LASF1463
C:\Users\CYMR90~1\AppData\Local\Temp\ccBEkVPc.s:26621  .debug_str:0000000000015cdd .LASF1464
C:\Users\CYMR90~1\AppData\Local\Temp\ccBEkVPc.s:31888  .debug_str:000000000002ae01 .LASF1465
C:\Users\CYMR90~1\AppData\Local\Temp\ccBEkVPc.s:31338  .debug_str:0000000000028c5b .LASF1466
C:\Users\CYMR90~1\AppData\Local\Temp\ccBEkVPc.s:26221  .debug_str:00000000000143ff .LASF1467
C:\Users\CYMR90~1\AppData\Local\Temp\ccBEkVPc.s:30908  .debug_str:0000000000026f5a .LASF1468
C:\Users\CYMR90~1\AppData\Local\Temp\ccBEkVPc.s:25223  .debug_str:000000000001046d .LASF1469
C:\Users\CYMR90~1\AppData\Local\Temp\ccBEkVPc.s:23299  .debug_str:0000000000008a9d .LASF1470
C:\Users\CYMR90~1\AppData\Local\Temp\ccBEkVPc.s:25515  .debug_str:00000000000115eb .LASF1471
C:\Users\CYMR90~1\AppData\Local\Temp\ccBEkVPc.s:27084  .debug_str:0000000000017c87 .LASF1472
C:\Users\CYMR90~1\AppData\Local\Temp\ccBEkVPc.s:30360  .debug_str:0000000000024b19 .LASF1473
C:\Users\CYMR90~1\AppData\Local\Temp\ccBEkVPc.s:30996  .debug_str:0000000000027570 .LASF1474
C:\Users\CYMR90~1\AppData\Local\Temp\ccBEkVPc.s:21331  .debug_str:0000000000000c59 .LASF1475
C:\Users\CYMR90~1\AppData\Local\Temp\ccBEkVPc.s:23231  .debug_str:0000000000008676 .LASF1476
C:\Users\CYMR90~1\AppData\Local\Temp\ccBEkVPc.s:21833  .debug_str:0000000000002ae9 .LASF1477
C:\Users\CYMR90~1\AppData\Local\Temp\ccBEkVPc.s:31182  .debug_str:00000000000281a4 .LASF1478
C:\Users\CYMR90~1\AppData\Local\Temp\ccBEkVPc.s:30214  .debug_str:000000000002414a .LASF1479
C:\Users\CYMR90~1\AppData\Local\Temp\ccBEkVPc.s:21955  .debug_str:000000000000329b .LASF1480
C:\Users\CYMR90~1\AppData\Local\Temp\ccBEkVPc.s:24203  .debug_str:000000000000c411 .LASF1481
C:\Users\CYMR90~1\AppData\Local\Temp\ccBEkVPc.s:30328  .debug_str:0000000000024925 .LASF1482
C:\Users\CYMR90~1\AppData\Local\Temp\ccBEkVPc.s:23543  .debug_str:00000000000099e9 .LASF1483
C:\Users\CYMR90~1\AppData\Local\Temp\ccBEkVPc.s:22339  .debug_str:0000000000004cd8 .LASF1484
C:\Users\CYMR90~1\AppData\Local\Temp\ccBEkVPc.s:24779  .debug_str:000000000000e8f7 .LASF1485
C:\Users\CYMR90~1\AppData\Local\Temp\ccBEkVPc.s:26185  .debug_str:0000000000014218 .LASF1486
C:\Users\CYMR90~1\AppData\Local\Temp\ccBEkVPc.s:27794  .debug_str:000000000001ab50 .LASF1487
C:\Users\CYMR90~1\AppData\Local\Temp\ccBEkVPc.s:21171  .debug_str:0000000000000273 .LASF1488
C:\Users\CYMR90~1\AppData\Local\Temp\ccBEkVPc.s:26581  .debug_str:0000000000015a3d .LASF1489
C:\Users\CYMR90~1\AppData\Local\Temp\ccBEkVPc.s:24573  .debug_str:000000000000dc11 .LASF1490
C:\Users\CYMR90~1\AppData\Local\Temp\ccBEkVPc.s:31408  .debug_str:00000000000290bd .LASF1491
C:\Users\CYMR90~1\AppData\Local\Temp\ccBEkVPc.s:21803  .debug_str:0000000000002907 .LASF1492
C:\Users\CYMR90~1\AppData\Local\Temp\ccBEkVPc.s:29414  .debug_str:00000000000210d2 .LASF1493
C:\Users\CYMR90~1\AppData\Local\Temp\ccBEkVPc.s:31632  .debug_str:0000000000029eb5 .LASF1494
C:\Users\CYMR90~1\AppData\Local\Temp\ccBEkVPc.s:22983  .debug_str:0000000000007537 .LASF1495
C:\Users\CYMR90~1\AppData\Local\Temp\ccBEkVPc.s:30682  .debug_str:000000000002614d .LASF1496
C:\Users\CYMR90~1\AppData\Local\Temp\ccBEkVPc.s:31380  .debug_str:0000000000028ef0 .LASF1497
C:\Users\CYMR90~1\AppData\Local\Temp\ccBEkVPc.s:22773  .debug_str:000000000000672f .LASF1498
C:\Users\CYMR90~1\AppData\Local\Temp\ccBEkVPc.s:23637  .debug_str:0000000000009fbc .LASF1499
C:\Users\CYMR90~1\AppData\Local\Temp\ccBEkVPc.s:32314  .debug_str:000000000002ca4e .LASF1500
C:\Users\CYMR90~1\AppData\Local\Temp\ccBEkVPc.s:31546  .debug_str:000000000002999d .LASF1501
C:\Users\CYMR90~1\AppData\Local\Temp\ccBEkVPc.s:29314  .debug_str:0000000000020af7 .LASF1502
C:\Users\CYMR90~1\AppData\Local\Temp\ccBEkVPc.s:22753  .debug_str:00000000000065f3 .LASF1503
C:\Users\CYMR90~1\AppData\Local\Temp\ccBEkVPc.s:24313  .debug_str:000000000000cbec .LASF1504
C:\Users\CYMR90~1\AppData\Local\Temp\ccBEkVPc.s:28688  .debug_str:000000000001e4b5 .LASF1505
C:\Users\CYMR90~1\AppData\Local\Temp\ccBEkVPc.s:28006  .debug_str:000000000001b8a9 .LASF1506
C:\Users\CYMR90~1\AppData\Local\Temp\ccBEkVPc.s:24897  .debug_str:000000000000efef .LASF1507
C:\Users\CYMR90~1\AppData\Local\Temp\ccBEkVPc.s:29514  .debug_str:0000000000021735 .LASF1508
C:\Users\CYMR90~1\AppData\Local\Temp\ccBEkVPc.s:25703  .debug_str:000000000001227f .LASF1509
C:\Users\CYMR90~1\AppData\Local\Temp\ccBEkVPc.s:31282  .debug_str:00000000000288ef .LASF1510
C:\Users\CYMR90~1\AppData\Local\Temp\ccBEkVPc.s:30084  .debug_str:000000000002391e .LASF1511
C:\Users\CYMR90~1\AppData\Local\Temp\ccBEkVPc.s:22001  .debug_str:00000000000035a0 .LASF1512
C:\Users\CYMR90~1\AppData\Local\Temp\ccBEkVPc.s:26645  .debug_str:0000000000015ec0 .LASF1513
C:\Users\CYMR90~1\AppData\Local\Temp\ccBEkVPc.s:30488  .debug_str:00000000000253f7 .LASF1514
C:\Users\CYMR90~1\AppData\Local\Temp\ccBEkVPc.s:28908  .debug_str:000000000001f22f .LASF1515
C:\Users\CYMR90~1\AppData\Local\Temp\ccBEkVPc.s:32054  .debug_str:000000000002b89e .LASF1516
C:\Users\CYMR90~1\AppData\Local\Temp\ccBEkVPc.s:28740  .debug_str:000000000001e7c2 .LASF1517
C:\Users\CYMR90~1\AppData\Local\Temp\ccBEkVPc.s:30718  .debug_str:0000000000026358 .LASF1518
C:\Users\CYMR90~1\AppData\Local\Temp\ccBEkVPc.s:25693  .debug_str:000000000001220e .LASF1519
C:\Users\CYMR90~1\AppData\Local\Temp\ccBEkVPc.s:29130  .debug_str:000000000001ff74 .LASF1520
C:\Users\CYMR90~1\AppData\Local\Temp\ccBEkVPc.s:28182  .debug_str:000000000001c374 .LASF1521
C:\Users\CYMR90~1\AppData\Local\Temp\ccBEkVPc.s:29454  .debug_str:0000000000021329 .LASF1522
C:\Users\CYMR90~1\AppData\Local\Temp\ccBEkVPc.s:27458  .debug_str:0000000000019429 .LASF1523
C:\Users\CYMR90~1\AppData\Local\Temp\ccBEkVPc.s:30086  .debug_str:0000000000023934 .LASF1524
C:\Users\CYMR90~1\AppData\Local\Temp\ccBEkVPc.s:22409  .debug_str:00000000000050fc .LASF1525
C:\Users\CYMR90~1\AppData\Local\Temp\ccBEkVPc.s:28126  .debug_str:000000000001c00c .LASF1526
C:\Users\CYMR90~1\AppData\Local\Temp\ccBEkVPc.s:24225  .debug_str:000000000000c567 .LASF1527
C:\Users\CYMR90~1\AppData\Local\Temp\ccBEkVPc.s:29840  .debug_str:0000000000022a79 .LASF1528
C:\Users\CYMR90~1\AppData\Local\Temp\ccBEkVPc.s:31078  .debug_str:0000000000027a2e .LASF1529
C:\Users\CYMR90~1\AppData\Local\Temp\ccBEkVPc.s:30320  .debug_str:0000000000024803 .LASF1530
C:\Users\CYMR90~1\AppData\Local\Temp\ccBEkVPc.s:30386  .debug_str:0000000000024c98 .LASF1531
C:\Users\CYMR90~1\AppData\Local\Temp\ccBEkVPc.s:22159  .debug_str:0000000000004028 .LASF1532
C:\Users\CYMR90~1\AppData\Local\Temp\ccBEkVPc.s:27402  .debug_str:000000000001901b .LASF1533
C:\Users\CYMR90~1\AppData\Local\Temp\ccBEkVPc.s:30208  .debug_str:000000000002400a .LASF1534
C:\Users\CYMR90~1\AppData\Local\Temp\ccBEkVPc.s:24295  .debug_str:000000000000ca37 .LASF1535
C:\Users\CYMR90~1\AppData\Local\Temp\ccBEkVPc.s:30390  .debug_str:0000000000024d18 .LASF1536
C:\Users\CYMR90~1\AppData\Local\Temp\ccBEkVPc.s:29746  .debug_str:000000000002251a .LASF1537
C:\Users\CYMR90~1\AppData\Local\Temp\ccBEkVPc.s:30952  .debug_str:000000000002720f .LASF1538
C:\Users\CYMR90~1\AppData\Local\Temp\ccBEkVPc.s:30846  .debug_str:0000000000026b49 .LASF1539
C:\Users\CYMR90~1\AppData\Local\Temp\ccBEkVPc.s:25569  .debug_str:0000000000011a4e .LASF1540
C:\Users\CYMR90~1\AppData\Local\Temp\ccBEkVPc.s:31574  .debug_str:0000000000029b4c .LASF1541
C:\Users\CYMR90~1\AppData\Local\Temp\ccBEkVPc.s:24551  .debug_str:000000000000dafd .LASF1542
C:\Users\CYMR90~1\AppData\Local\Temp\ccBEkVPc.s:21921  .debug_str:000000000000304a .LASF1543
C:\Users\CYMR90~1\AppData\Local\Temp\ccBEkVPc.s:25131  .debug_str:000000000000feb8 .LASF1544
C:\Users\CYMR90~1\AppData\Local\Temp\ccBEkVPc.s:23163  .debug_str:00000000000081ec .LASF1545
C:\Users\CYMR90~1\AppData\Local\Temp\ccBEkVPc.s:23645  .debug_str:000000000000a02f .LASF1546
C:\Users\CYMR90~1\AppData\Local\Temp\ccBEkVPc.s:24281  .debug_str:000000000000c938 .LASF1547
C:\Users\CYMR90~1\AppData\Local\Temp\ccBEkVPc.s:31158  .debug_str:0000000000027fc3 .LASF1548
C:\Users\CYMR90~1\AppData\Local\Temp\ccBEkVPc.s:30652  .debug_str:0000000000025f3a .LASF1549
C:\Users\CYMR90~1\AppData\Local\Temp\ccBEkVPc.s:28076  .debug_str:000000000001bc76 .LASF1550
C:\Users\CYMR90~1\AppData\Local\Temp\ccBEkVPc.s:25441  .debug_str:0000000000011176 .LASF1551
C:\Users\CYMR90~1\AppData\Local\Temp\ccBEkVPc.s:28042  .debug_str:000000000001ba91 .LASF1552
C:\Users\CYMR90~1\AppData\Local\Temp\ccBEkVPc.s:21397  .debug_str:0000000000001061 .LASF1553
C:\Users\CYMR90~1\AppData\Local\Temp\ccBEkVPc.s:21707  .debug_str:00000000000022ee .LASF1554
C:\Users\CYMR90~1\AppData\Local\Temp\ccBEkVPc.s:28778  .debug_str:000000000001ea54 .LASF1555
C:\Users\CYMR90~1\AppData\Local\Temp\ccBEkVPc.s:27354  .debug_str:0000000000018d78 .LASF1556
C:\Users\CYMR90~1\AppData\Local\Temp\ccBEkVPc.s:27378  .debug_str:0000000000018ee8 .LASF1557
C:\Users\CYMR90~1\AppData\Local\Temp\ccBEkVPc.s:31660  .debug_str:000000000002a038 .LASF1558
C:\Users\CYMR90~1\AppData\Local\Temp\ccBEkVPc.s:25277  .debug_str:00000000000107db .LASF1559
C:\Users\CYMR90~1\AppData\Local\Temp\ccBEkVPc.s:30096  .debug_str:00000000000239be .LASF1560
C:\Users\CYMR90~1\AppData\Local\Temp\ccBEkVPc.s:30514  .debug_str:00000000000255ef .LASF1561
C:\Users\CYMR90~1\AppData\Local\Temp\ccBEkVPc.s:25389  .debug_str:0000000000010e99 .LASF1562
C:\Users\CYMR90~1\AppData\Local\Temp\ccBEkVPc.s:25055  .debug_str:000000000000f9f1 .LASF1563
C:\Users\CYMR90~1\AppData\Local\Temp\ccBEkVPc.s:32154  .debug_str:000000000002bf42 .LASF1564
C:\Users\CYMR90~1\AppData\Local\Temp\ccBEkVPc.s:22781  .debug_str:0000000000006798 .LASF1565
C:\Users\CYMR90~1\AppData\Local\Temp\ccBEkVPc.s:28478  .debug_str:000000000001d736 .LASF1566
C:\Users\CYMR90~1\AppData\Local\Temp\ccBEkVPc.s:27746  .debug_str:000000000001a7de .LASF1567
C:\Users\CYMR90~1\AppData\Local\Temp\ccBEkVPc.s:29248  .debug_str:000000000002069a .LASF1568
C:\Users\CYMR90~1\AppData\Local\Temp\ccBEkVPc.s:25567  .debug_str:00000000000119a7 .LASF1569
C:\Users\CYMR90~1\AppData\Local\Temp\ccBEkVPc.s:30540  .debug_str:00000000000257c5 .LASF1570
C:\Users\CYMR90~1\AppData\Local\Temp\ccBEkVPc.s:25961  .debug_str:0000000000013435 .LASF1571
C:\Users\CYMR90~1\AppData\Local\Temp\ccBEkVPc.s:22455  .debug_str:00000000000053f2 .LASF1572
C:\Users\CYMR90~1\AppData\Local\Temp\ccBEkVPc.s:26381  .debug_str:0000000000014e77 .LASF1573
C:\Users\CYMR90~1\AppData\Local\Temp\ccBEkVPc.s:31270  .debug_str:0000000000028825 .LASF1574
C:\Users\CYMR90~1\AppData\Local\Temp\ccBEkVPc.s:27394  .debug_str:0000000000018fa9 .LASF1575
C:\Users\CYMR90~1\AppData\Local\Temp\ccBEkVPc.s:24931  .debug_str:000000000000f202 .LASF1576
C:\Users\CYMR90~1\AppData\Local\Temp\ccBEkVPc.s:28782  .debug_str:000000000001ea96 .LASF1577
C:\Users\CYMR90~1\AppData\Local\Temp\ccBEkVPc.s:31766  .debug_str:000000000002a6a5 .LASF1578
C:\Users\CYMR90~1\AppData\Local\Temp\ccBEkVPc.s:21717  .debug_str:0000000000002379 .LASF1579
C:\Users\CYMR90~1\AppData\Local\Temp\ccBEkVPc.s:28322  .debug_str:000000000001cc7a .LASF1580
C:\Users\CYMR90~1\AppData\Local\Temp\ccBEkVPc.s:23763  .debug_str:000000000000a755 .LASF1581
C:\Users\CYMR90~1\AppData\Local\Temp\ccBEkVPc.s:24467  .debug_str:000000000000d627 .LASF1582
C:\Users\CYMR90~1\AppData\Local\Temp\ccBEkVPc.s:23153  .debug_str:00000000000080c0 .LASF1583
C:\Users\CYMR90~1\AppData\Local\Temp\ccBEkVPc.s:30954  .debug_str:000000000002722d .LASF1584
C:\Users\CYMR90~1\AppData\Local\Temp\ccBEkVPc.s:28576  .debug_str:000000000001dd58 .LASF1585
C:\Users\CYMR90~1\AppData\Local\Temp\ccBEkVPc.s:32366  .debug_str:000000000002cd4e .LASF1586
C:\Users\CYMR90~1\AppData\Local\Temp\ccBEkVPc.s:24441  .debug_str:000000000000d3dd .LASF1587
C:\Users\CYMR90~1\AppData\Local\Temp\ccBEkVPc.s:23111  .debug_str:0000000000007d73 .LASF1588
C:\Users\CYMR90~1\AppData\Local\Temp\ccBEkVPc.s:26831  .debug_str:0000000000016ae8 .LASF1589
C:\Users\CYMR90~1\AppData\Local\Temp\ccBEkVPc.s:23985  .debug_str:000000000000b57c .LASF1590
C:\Users\CYMR90~1\AppData\Local\Temp\ccBEkVPc.s:26757  .debug_str:000000000001656f .LASF1591
C:\Users\CYMR90~1\AppData\Local\Temp\ccBEkVPc.s:23359  .debug_str:0000000000008df7 .LASF1592
C:\Users\CYMR90~1\AppData\Local\Temp\ccBEkVPc.s:25951  .debug_str:000000000001332c .LASF1593
C:\Users\CYMR90~1\AppData\Local\Temp\ccBEkVPc.s:31454  .debug_str:0000000000029373 .LASF1594
C:\Users\CYMR90~1\AppData\Local\Temp\ccBEkVPc.s:31190  .debug_str:0000000000028222 .LASF1595
C:\Users\CYMR90~1\AppData\Local\Temp\ccBEkVPc.s:21365  .debug_str:0000000000000e33 .LASF1596
C:\Users\CYMR90~1\AppData\Local\Temp\ccBEkVPc.s:28348  .debug_str:000000000001ce4f .LASF1597
C:\Users\CYMR90~1\AppData\Local\Temp\ccBEkVPc.s:22269  .debug_str:00000000000047e6 .LASF1598
C:\Users\CYMR90~1\AppData\Local\Temp\ccBEkVPc.s:30464  .debug_str:00000000000251d8 .LASF1599
C:\Users\CYMR90~1\AppData\Local\Temp\ccBEkVPc.s:21503  .debug_str:000000000000169e .LASF1600
C:\Users\CYMR90~1\AppData\Local\Temp\ccBEkVPc.s:25021  .debug_str:000000000000f74e .LASF1601
C:\Users\CYMR90~1\AppData\Local\Temp\ccBEkVPc.s:29478  .debug_str:0000000000021486 .LASF1602
C:\Users\CYMR90~1\AppData\Local\Temp\ccBEkVPc.s:28374  .debug_str:000000000001d07e .LASF1603
C:\Users\CYMR90~1\AppData\Local\Temp\ccBEkVPc.s:28268  .debug_str:000000000001c882 .LASF1604
C:\Users\CYMR90~1\AppData\Local\Temp\ccBEkVPc.s:30442  .debug_str:0000000000024ff3 .LASF1605
C:\Users\CYMR90~1\AppData\Local\Temp\ccBEkVPc.s:30362  .debug_str:0000000000024b2f .LASF1606
C:\Users\CYMR90~1\AppData\Local\Temp\ccBEkVPc.s:30314  .debug_str:00000000000247af .LASF1607
C:\Users\CYMR90~1\AppData\Local\Temp\ccBEkVPc.s:27298  .debug_str:0000000000018954 .LASF1608
C:\Users\CYMR90~1\AppData\Local\Temp\ccBEkVPc.s:22247  .debug_str:0000000000004659 .LASF1609
C:\Users\CYMR90~1\AppData\Local\Temp\ccBEkVPc.s:29678  .debug_str:000000000002212d .LASF1610
C:\Users\CYMR90~1\AppData\Local\Temp\ccBEkVPc.s:32276  .debug_str:000000000002c784 .LASF1611
C:\Users\CYMR90~1\AppData\Local\Temp\ccBEkVPc.s:28218  .debug_str:000000000001c55f .LASF1612
C:\Users\CYMR90~1\AppData\Local\Temp\ccBEkVPc.s:26267  .debug_str:000000000001473e .LASF1613
C:\Users\CYMR90~1\AppData\Local\Temp\ccBEkVPc.s:23631  .debug_str:0000000000009f5e .LASF1614
C:\Users\CYMR90~1\AppData\Local\Temp\ccBEkVPc.s:27898  .debug_str:000000000001b1d3 .LASF1615
C:\Users\CYMR90~1\AppData\Local\Temp\ccBEkVPc.s:29570  .debug_str:0000000000021a89 .LASF1616
C:\Users\CYMR90~1\AppData\Local\Temp\ccBEkVPc.s:26355  .debug_str:0000000000014c7e .LASF1617
C:\Users\CYMR90~1\AppData\Local\Temp\ccBEkVPc.s:28280  .debug_str:000000000001c9ea .LASF1618
C:\Users\CYMR90~1\AppData\Local\Temp\ccBEkVPc.s:22293  .debug_str:00000000000049f0 .LASF1619
C:\Users\CYMR90~1\AppData\Local\Temp\ccBEkVPc.s:24019  .debug_str:000000000000b82b .LASF1620
C:\Users\CYMR90~1\AppData\Local\Temp\ccBEkVPc.s:24851  .debug_str:000000000000ed74 .LASF1621
C:\Users\CYMR90~1\AppData\Local\Temp\ccBEkVPc.s:21861  .debug_str:0000000000002cb5 .LASF1622
C:\Users\CYMR90~1\AppData\Local\Temp\ccBEkVPc.s:29278  .debug_str:0000000000020887 .LASF1623
C:\Users\CYMR90~1\AppData\Local\Temp\ccBEkVPc.s:25955  .debug_str:00000000000133eb .LASF1624
C:\Users\CYMR90~1\AppData\Local\Temp\ccBEkVPc.s:24113  .debug_str:000000000000be9b .LASF1625
C:\Users\CYMR90~1\AppData\Local\Temp\ccBEkVPc.s:29968  .debug_str:00000000000231ea .LASF1626
C:\Users\CYMR90~1\AppData\Local\Temp\ccBEkVPc.s:22777  .debug_str:000000000000676a .LASF1627
C:\Users\CYMR90~1\AppData\Local\Temp\ccBEkVPc.s:29028  .debug_str:000000000001f92c .LASF1628
C:\Users\CYMR90~1\AppData\Local\Temp\ccBEkVPc.s:23877  .debug_str:000000000000ae6f .LASF1629
C:\Users\CYMR90~1\AppData\Local\Temp\ccBEkVPc.s:29756  .debug_str:0000000000022586 .LASF1630
C:\Users\CYMR90~1\AppData\Local\Temp\ccBEkVPc.s:23339  .debug_str:0000000000008ce8 .LASF1631
C:\Users\CYMR90~1\AppData\Local\Temp\ccBEkVPc.s:21463  .debug_str:0000000000001459 .LASF1632
C:\Users\CYMR90~1\AppData\Local\Temp\ccBEkVPc.s:28020  .debug_str:000000000001b9ac .LASF1633
C:\Users\CYMR90~1\AppData\Local\Temp\ccBEkVPc.s:26992  .debug_str:00000000000176bd .LASF1634
C:\Users\CYMR90~1\AppData\Local\Temp\ccBEkVPc.s:24095  .debug_str:000000000000bd41 .LASF1635
C:\Users\CYMR90~1\AppData\Local\Temp\ccBEkVPc.s:24197  .debug_str:000000000000c3cb .LASF1636
C:\Users\CYMR90~1\AppData\Local\Temp\ccBEkVPc.s:27870  .debug_str:000000000001b022 .LASF1637
C:\Users\CYMR90~1\AppData\Local\Temp\ccBEkVPc.s:24265  .debug_str:000000000000c825 .LASF1638
C:\Users\CYMR90~1\AppData\Local\Temp\ccBEkVPc.s:23995  .debug_str:000000000000b6a1 .LASF1639
C:\Users\CYMR90~1\AppData\Local\Temp\ccBEkVPc.s:27202  .debug_str:00000000000183a2 .LASF1640
C:\Users\CYMR90~1\AppData\Local\Temp\ccBEkVPc.s:25229  .debug_str:00000000000104c9 .LASF1641
C:\Users\CYMR90~1\AppData\Local\Temp\ccBEkVPc.s:30304  .debug_str:0000000000024751 .LASF1642
C:\Users\CYMR90~1\AppData\Local\Temp\ccBEkVPc.s:25579  .debug_str:0000000000011b15 .LASF1643
C:\Users\CYMR90~1\AppData\Local\Temp\ccBEkVPc.s:29166  .debug_str:00000000000201b0 .LASF1644
C:\Users\CYMR90~1\AppData\Local\Temp\ccBEkVPc.s:32244  .debug_str:000000000002c5e5 .LASF1645
C:\Users\CYMR90~1\AppData\Local\Temp\ccBEkVPc.s:21851  .debug_str:0000000000002c25 .LASF1646
C:\Users\CYMR90~1\AppData\Local\Temp\ccBEkVPc.s:26793  .debug_str:0000000000016824 .LASF1647
C:\Users\CYMR90~1\AppData\Local\Temp\ccBEkVPc.s:26898  .debug_str:000000000001714d .LASF1648
C:\Users\CYMR90~1\AppData\Local\Temp\ccBEkVPc.s:21661  .debug_str:0000000000002065 .LASF1649
C:\Users\CYMR90~1\AppData\Local\Temp\ccBEkVPc.s:23179  .debug_str:0000000000008323 .LASF1650
C:\Users\CYMR90~1\AppData\Local\Temp\ccBEkVPc.s:29984  .debug_str:00000000000232ea .LASF1651
C:\Users\CYMR90~1\AppData\Local\Temp\ccBEkVPc.s:25735  .debug_str:00000000000124a1 .LASF1652
C:\Users\CYMR90~1\AppData\Local\Temp\ccBEkVPc.s:23067  .debug_str:0000000000007a83 .LASF1653
C:\Users\CYMR90~1\AppData\Local\Temp\ccBEkVPc.s:21403  .debug_str:00000000000010d2 .LASF1654
C:\Users\CYMR90~1\AppData\Local\Temp\ccBEkVPc.s:27098  .debug_str:0000000000017d4a .LASF1657
C:\Users\CYMR90~1\AppData\Local\Temp\ccBEkVPc.s:31816  .debug_str:000000000002a9b1 .LASF1658
C:\Users\CYMR90~1\AppData\Local\Temp\ccBEkVPc.s:25357  .debug_str:0000000000010d11 .LASF1659
C:\Users\CYMR90~1\AppData\Local\Temp\ccBEkVPc.s:27428  .debug_str:0000000000019290 .LASF1660
C:\Users\CYMR90~1\AppData\Local\Temp\ccBEkVPc.s:32050  .debug_str:000000000002b85f .LASF1661
C:\Users\CYMR90~1\AppData\Local\Temp\ccBEkVPc.s:32080  .debug_str:000000000002ba8c .LASF1662
C:\Users\CYMR90~1\AppData\Local\Temp\ccBEkVPc.s:29366  .debug_str:0000000000020e2c .LASF1663
C:\Users\CYMR90~1\AppData\Local\Temp\ccBEkVPc.s:26317  .debug_str:0000000000014a08 .LASF1664
C:\Users\CYMR90~1\AppData\Local\Temp\ccBEkVPc.s:28524  .debug_str:000000000001da66 .LASF1665
C:\Users\CYMR90~1\AppData\Local\Temp\ccBEkVPc.s:22375  .debug_str:0000000000004f0b .LASF1666
C:\Users\CYMR90~1\AppData\Local\Temp\ccBEkVPc.s:25059  .debug_str:000000000000fa17 .LASF1667
C:\Users\CYMR90~1\AppData\Local\Temp\ccBEkVPc.s:24765  .debug_str:000000000000e7f8 .LASF1668
C:\Users\CYMR90~1\AppData\Local\Temp\ccBEkVPc.s:22087  .debug_str:0000000000003b60 .LASF1669
C:\Users\CYMR90~1\AppData\Local\Temp\ccBEkVPc.s:23379  .debug_str:0000000000008f95 .LASF1670
C:\Users\CYMR90~1\AppData\Local\Temp\ccBEkVPc.s:22307  .debug_str:0000000000004ace .LASF1671
C:\Users\CYMR90~1\AppData\Local\Temp\ccBEkVPc.s:26169  .debug_str:000000000001410f .LASF1672
C:\Users\CYMR90~1\AppData\Local\Temp\ccBEkVPc.s:26243  .debug_str:0000000000014554 .LASF1673
C:\Users\CYMR90~1\AppData\Local\Temp\ccBEkVPc.s:25653  .debug_str:0000000000011f59 .LASF1674
C:\Users\CYMR90~1\AppData\Local\Temp\ccBEkVPc.s:24803  .debug_str:000000000000ea68 .LASF1675
C:\Users\CYMR90~1\AppData\Local\Temp\ccBEkVPc.s:30326  .debug_str:000000000002490b .LASF1676
C:\Users\CYMR90~1\AppData\Local\Temp\ccBEkVPc.s:25781  .debug_str:00000000000127e0 .LASF1677
C:\Users\CYMR90~1\AppData\Local\Temp\ccBEkVPc.s:32246  .debug_str:000000000002c5fa .LASF1678
C:\Users\CYMR90~1\AppData\Local\Temp\ccBEkVPc.s:21763  .debug_str:0000000000002652 .LASF1679
C:\Users\CYMR90~1\AppData\Local\Temp\ccBEkVPc.s:25305  .debug_str:000000000001097a .LASF1680
C:\Users\CYMR90~1\AppData\Local\Temp\ccBEkVPc.s:26489  .debug_str:00000000000154e9 .LASF1681
C:\Users\CYMR90~1\AppData\Local\Temp\ccBEkVPc.s:25151  .debug_str:000000000001001d .LASF1682
C:\Users\CYMR90~1\AppData\Local\Temp\ccBEkVPc.s:27854  .debug_str:000000000001aea5 .LASF1683
C:\Users\CYMR90~1\AppData\Local\Temp\ccBEkVPc.s:29932  .debug_str:0000000000023034 .LASF1684
C:\Users\CYMR90~1\AppData\Local\Temp\ccBEkVPc.s:30838  .debug_str:0000000000026aee .LASF1685
C:\Users\CYMR90~1\AppData\Local\Temp\ccBEkVPc.s:25303  .debug_str:0000000000010962 .LASF1686
C:\Users\CYMR90~1\AppData\Local\Temp\ccBEkVPc.s:29260  .debug_str:0000000000020798 .LASF1687
C:\Users\CYMR90~1\AppData\Local\Temp\ccBEkVPc.s:31564  .debug_str:0000000000029aa1 .LASF1688
C:\Users\CYMR90~1\AppData\Local\Temp\ccBEkVPc.s:30110  .debug_str:0000000000023ab4 .LASF1689
C:\Users\CYMR90~1\AppData\Local\Temp\ccBEkVPc.s:27978  .debug_str:000000000001b6d2 .LASF1690
C:\Users\CYMR90~1\AppData\Local\Temp\ccBEkVPc.s:26039  .debug_str:0000000000013936 .LASF1691
C:\Users\CYMR90~1\AppData\Local\Temp\ccBEkVPc.s:29662  .debug_str:0000000000022051 .LASF1692
C:\Users\CYMR90~1\AppData\Local\Temp\ccBEkVPc.s:27286  .debug_str:000000000001889b .LASF1693
C:\Users\CYMR90~1\AppData\Local\Temp\ccBEkVPc.s:23173  .debug_str:00000000000082af .LASF1694
C:\Users\CYMR90~1\AppData\Local\Temp\ccBEkVPc.s:25225  .debug_str:000000000001047d .LASF1695
C:\Users\CYMR90~1\AppData\Local\Temp\ccBEkVPc.s:27068  .debug_str:0000000000017b97 .LASF1696
C:\Users\CYMR90~1\AppData\Local\Temp\ccBEkVPc.s:26363  .debug_str:0000000000014d11 .LASF1697
C:\Users\CYMR90~1\AppData\Local\Temp\ccBEkVPc.s:28922  .debug_str:000000000001f2e8 .LASF1698
C:\Users\CYMR90~1\AppData\Local\Temp\ccBEkVPc.s:27468  .debug_str:00000000000194f0 .LASF1699
C:\Users\CYMR90~1\AppData\Local\Temp\ccBEkVPc.s:29376  .debug_str:0000000000020ec7 .LASF1700
C:\Users\CYMR90~1\AppData\Local\Temp\ccBEkVPc.s:28918  .debug_str:000000000001f2ab .LASF1701
C:\Users\CYMR90~1\AppData\Local\Temp\ccBEkVPc.s:30154  .debug_str:0000000000023d11 .LASF1702
C:\Users\CYMR90~1\AppData\Local\Temp\ccBEkVPc.s:30116  .debug_str:0000000000023b03 .LASF1703
C:\Users\CYMR90~1\AppData\Local\Temp\ccBEkVPc.s:29652  .debug_str:0000000000021fb7 .LASF1704
C:\Users\CYMR90~1\AppData\Local\Temp\ccBEkVPc.s:28108  .debug_str:000000000001beb8 .LASF1705
C:\Users\CYMR90~1\AppData\Local\Temp\ccBEkVPc.s:29516  .debug_str:0000000000021749 .LASF1706
C:\Users\CYMR90~1\AppData\Local\Temp\ccBEkVPc.s:26974  .debug_str:000000000001758f .LASF1707
C:\Users\CYMR90~1\AppData\Local\Temp\ccBEkVPc.s:25957  .debug_str:00000000000133fe .LASF1708
C:\Users\CYMR90~1\AppData\Local\Temp\ccBEkVPc.s:28668  .debug_str:000000000001e39d .LASF1709
C:\Users\CYMR90~1\AppData\Local\Temp\ccBEkVPc.s:27204  .debug_str:00000000000183b7 .LASF1710
C:\Users\CYMR90~1\AppData\Local\Temp\ccBEkVPc.s:31030  .debug_str:0000000000027732 .LASF1711
C:\Users\CYMR90~1\AppData\Local\Temp\ccBEkVPc.s:25599  .debug_str:0000000000011c28 .LASF1712
C:\Users\CYMR90~1\AppData\Local\Temp\ccBEkVPc.s:22705  .debug_str:000000000000631c .LASF1713
C:\Users\CYMR90~1\AppData\Local\Temp\ccBEkVPc.s:25069  .debug_str:000000000000fabb .LASF1714
C:\Users\CYMR90~1\AppData\Local\Temp\ccBEkVPc.s:21975  .debug_str:00000000000033ec .LASF1715
C:\Users\CYMR90~1\AppData\Local\Temp\ccBEkVPc.s:25301  .debug_str:0000000000010936 .LASF1716
C:\Users\CYMR90~1\AppData\Local\Temp\ccBEkVPc.s:28636  .debug_str:000000000001e197 .LASF1717
C:\Users\CYMR90~1\AppData\Local\Temp\ccBEkVPc.s:27168  .debug_str:0000000000018184 .LASF1718
C:\Users\CYMR90~1\AppData\Local\Temp\ccBEkVPc.s:25539  .debug_str:000000000001175b .LASF1719
C:\Users\CYMR90~1\AppData\Local\Temp\ccBEkVPc.s:27528  .debug_str:00000000000198b2 .LASF1720
C:\Users\CYMR90~1\AppData\Local\Temp\ccBEkVPc.s:26031  .debug_str:00000000000138b3 .LASF1721
C:\Users\CYMR90~1\AppData\Local\Temp\ccBEkVPc.s:21695  .debug_str:0000000000002251 .LASF1722
C:\Users\CYMR90~1\AppData\Local\Temp\ccBEkVPc.s:27862  .debug_str:000000000001af3f .LASF1723
C:\Users\CYMR90~1\AppData\Local\Temp\ccBEkVPc.s:21755  .debug_str:00000000000025dc .LASF1724
C:\Users\CYMR90~1\AppData\Local\Temp\ccBEkVPc.s:26557  .debug_str:00000000000158b1 .LASF1725
C:\Users\CYMR90~1\AppData\Local\Temp\ccBEkVPc.s:31356  .debug_str:0000000000028d45 .LASF1726
C:\Users\CYMR90~1\AppData\Local\Temp\ccBEkVPc.s:22591  .debug_str:0000000000005c3b .LASF1727
C:\Users\CYMR90~1\AppData\Local\Temp\ccBEkVPc.s:30998  .debug_str:0000000000027584 .LASF1728
C:\Users\CYMR90~1\AppData\Local\Temp\ccBEkVPc.s:28320  .debug_str:000000000001cc43 .LASF1729
C:\Users\CYMR90~1\AppData\Local\Temp\ccBEkVPc.s:32158  .debug_str:000000000002c001 .LASF1730
C:\Users\CYMR90~1\AppData\Local\Temp\ccBEkVPc.s:30828  .debug_str:0000000000026a53 .LASF1731
C:\Users\CYMR90~1\AppData\Local\Temp\ccBEkVPc.s:25479  .debug_str:0000000000011380 .LASF1732
C:\Users\CYMR90~1\AppData\Local\Temp\ccBEkVPc.s:23487  .debug_str:00000000000095ea .LASF1733
C:\Users\CYMR90~1\AppData\Local\Temp\ccBEkVPc.s:21465  .debug_str:000000000000146c .LASF1734
C:\Users\CYMR90~1\AppData\Local\Temp\ccBEkVPc.s:26930  .debug_str:00000000000172f3 .LASF1735
C:\Users\CYMR90~1\AppData\Local\Temp\ccBEkVPc.s:29092  .debug_str:000000000001fd39 .LASF1736
C:\Users\CYMR90~1\AppData\Local\Temp\ccBEkVPc.s:23479  .debug_str:0000000000009574 .LASF1737
C:\Users\CYMR90~1\AppData\Local\Temp\ccBEkVPc.s:23195  .debug_str:0000000000008438 .LASF1738
C:\Users\CYMR90~1\AppData\Local\Temp\ccBEkVPc.s:30834  .debug_str:0000000000026abf .LASF1739
C:\Users\CYMR90~1\AppData\Local\Temp\ccBEkVPc.s:24827  .debug_str:000000000000ebf6 .LASF1740
C:\Users\CYMR90~1\AppData\Local\Temp\ccBEkVPc.s:23831  .debug_str:000000000000ab90 .LASF1741
C:\Users\CYMR90~1\AppData\Local\Temp\ccBEkVPc.s:28944  .debug_str:000000000001f42f .LASF1742
C:\Users\CYMR90~1\AppData\Local\Temp\ccBEkVPc.s:24315  .debug_str:000000000000cc03 .LASF1743
C:\Users\CYMR90~1\AppData\Local\Temp\ccBEkVPc.s:31112  .debug_str:0000000000027ca6 .LASF1744
C:\Users\CYMR90~1\AppData\Local\Temp\ccBEkVPc.s:23201  .debug_str:00000000000084aa .LASF1745
C:\Users\CYMR90~1\AppData\Local\Temp\ccBEkVPc.s:25123  .debug_str:000000000000fe2f .LASF1746
C:\Users\CYMR90~1\AppData\Local\Temp\ccBEkVPc.s:30158  .debug_str:0000000000023d4f .LASF1747
C:\Users\CYMR90~1\AppData\Local\Temp\ccBEkVPc.s:29762  .debug_str:00000000000225d6 .LASF1748
C:\Users\CYMR90~1\AppData\Local\Temp\ccBEkVPc.s:25299  .debug_str:0000000000010913 .LASF1749
C:\Users\CYMR90~1\AppData\Local\Temp\ccBEkVPc.s:23991  .debug_str:000000000000b658 .LASF1750
C:\Users\CYMR90~1\AppData\Local\Temp\ccBEkVPc.s:27102  .debug_str:0000000000017d7e .LASF1751
C:\Users\CYMR90~1\AppData\Local\Temp\ccBEkVPc.s:22341  .debug_str:0000000000004cec .LASF1752
C:\Users\CYMR90~1\AppData\Local\Temp\ccBEkVPc.s:27834  .debug_str:000000000001ad9c .LASF1753
C:\Users\CYMR90~1\AppData\Local\Temp\ccBEkVPc.s:27728  .debug_str:000000000001a67e .LASF1754
C:\Users\CYMR90~1\AppData\Local\Temp\ccBEkVPc.s:24255  .debug_str:000000000000c724 .LASF1755
C:\Users\CYMR90~1\AppData\Local\Temp\ccBEkVPc.s:25847  .debug_str:0000000000012c5a .LASF1756
C:\Users\CYMR90~1\AppData\Local\Temp\ccBEkVPc.s:27930  .debug_str:000000000001b40c .LASF1757
C:\Users\CYMR90~1\AppData\Local\Temp\ccBEkVPc.s:24919  .debug_str:000000000000f11c .LASF1758
C:\Users\CYMR90~1\AppData\Local\Temp\ccBEkVPc.s:23013  .debug_str:00000000000076fe .LASF1759
C:\Users\CYMR90~1\AppData\Local\Temp\ccBEkVPc.s:27670  .debug_str:000000000001a193 .LASF1760
C:\Users\CYMR90~1\AppData\Local\Temp\ccBEkVPc.s:23301  .debug_str:0000000000008aaf .LASF1761
C:\Users\CYMR90~1\AppData\Local\Temp\ccBEkVPc.s:21525  .debug_str:00000000000018bb .LASF1762
C:\Users\CYMR90~1\AppData\Local\Temp\ccBEkVPc.s:30342  .debug_str:00000000000249da .LASF1763
C:\Users\CYMR90~1\AppData\Local\Temp\ccBEkVPc.s:23041  .debug_str:00000000000078d9 .LASF1764
C:\Users\CYMR90~1\AppData\Local\Temp\ccBEkVPc.s:22719  .debug_str:0000000000006415 .LASF1765
C:\Users\CYMR90~1\AppData\Local\Temp\ccBEkVPc.s:21505  .debug_str:0000000000001754 .LASF1766
C:\Users\CYMR90~1\AppData\Local\Temp\ccBEkVPc.s:28048  .debug_str:000000000001baea .LASF1767
C:\Users\CYMR90~1\AppData\Local\Temp\ccBEkVPc.s:24629  .debug_str:000000000000df89 .LASF1768
C:\Users\CYMR90~1\AppData\Local\Temp\ccBEkVPc.s:30542  .debug_str:0000000000025853 .LASF1769
C:\Users\CYMR90~1\AppData\Local\Temp\ccBEkVPc.s:32230  .debug_str:000000000002c4f4 .LASF1770
C:\Users\CYMR90~1\AppData\Local\Temp\ccBEkVPc.s:24147  .debug_str:000000000000c0c0 .LASF1771
C:\Users\CYMR90~1\AppData\Local\Temp\ccBEkVPc.s:23733  .debug_str:000000000000a59b .LASF1772
C:\Users\CYMR90~1\AppData\Local\Temp\ccBEkVPc.s:21247  .debug_str:00000000000006da .LASF1773
C:\Users\CYMR90~1\AppData\Local\Temp\ccBEkVPc.s:21295  .debug_str:00000000000009c2 .LASF1774
C:\Users\CYMR90~1\AppData\Local\Temp\ccBEkVPc.s:31260  .debug_str:0000000000028766 .LASF1775
C:\Users\CYMR90~1\AppData\Local\Temp\ccBEkVPc.s:26259  .debug_str:00000000000146aa .LASF1776
C:\Users\CYMR90~1\AppData\Local\Temp\ccBEkVPc.s:25003  .debug_str:000000000000f64c .LASF1777
C:\Users\CYMR90~1\AppData\Local\Temp\ccBEkVPc.s:27094  .debug_str:0000000000017d19 .LASF1778
C:\Users\CYMR90~1\AppData\Local\Temp\ccBEkVPc.s:22431  .debug_str:0000000000005273 .LASF1779
C:\Users\CYMR90~1\AppData\Local\Temp\ccBEkVPc.s:30580  .debug_str:0000000000025af6 .LASF1780
C:\Users\CYMR90~1\AppData\Local\Temp\ccBEkVPc.s:29796  .debug_str:00000000000227f6 .LASF1781
C:\Users\CYMR90~1\AppData\Local\Temp\ccBEkVPc.s:28328  .debug_str:000000000001cce5 .LASF1784
C:\Users\CYMR90~1\AppData\Local\Temp\ccBEkVPc.s:27478  .debug_str:000000000001958b .LASF1785
C:\Users\CYMR90~1\AppData\Local\Temp\ccBEkVPc.s:27320  .debug_str:0000000000018abf .LASF1786
C:\Users\CYMR90~1\AppData\Local\Temp\ccBEkVPc.s:26301  .debug_str:000000000001493c .LASF1787
C:\Users\CYMR90~1\AppData\Local\Temp\ccBEkVPc.s:31696  .debug_str:000000000002a24e .LASF1788
C:\Users\CYMR90~1\AppData\Local\Temp\ccBEkVPc.s:27872  .debug_str:000000000001b037 .LASF1789
C:\Users\CYMR90~1\AppData\Local\Temp\ccBEkVPc.s:22025  .debug_str:0000000000003786 .LASF1790
C:\Users\CYMR90~1\AppData\Local\Temp\ccBEkVPc.s:21167  .debug_str:000000000000023d .LASF1791
C:\Users\CYMR90~1\AppData\Local\Temp\ccBEkVPc.s:30918  .debug_str:0000000000026fe5 .LASF1792
C:\Users\CYMR90~1\AppData\Local\Temp\ccBEkVPc.s:30014  .debug_str:0000000000023487 .LASF1793
C:\Users\CYMR90~1\AppData\Local\Temp\ccBEkVPc.s:31880  .debug_str:000000000002ad58 .LASF1794
C:\Users\CYMR90~1\AppData\Local\Temp\ccBEkVPc.s:31194  .debug_str:00000000000282e6 .LASF1795
C:\Users\CYMR90~1\AppData\Local\Temp\ccBEkVPc.s:25969  .debug_str:00000000000134ca .LASF1796
C:\Users\CYMR90~1\AppData\Local\Temp\ccBEkVPc.s:26247  .debug_str:0000000000014596 .LASF1797
C:\Users\CYMR90~1\AppData\Local\Temp\ccBEkVPc.s:25361  .debug_str:0000000000010d2e .LASF1798
C:\Users\CYMR90~1\AppData\Local\Temp\ccBEkVPc.s:24173  .debug_str:000000000000c280 .LASF1799
C:\Users\CYMR90~1\AppData\Local\Temp\ccBEkVPc.s:27008  .debug_str:00000000000177bc .LASF1800
C:\Users\CYMR90~1\AppData\Local\Temp\ccBEkVPc.s:27312  .debug_str:0000000000018a4e .LASF1801
C:\Users\CYMR90~1\AppData\Local\Temp\ccBEkVPc.s:26385  .debug_str:0000000000014eb1 .LASF1802
C:\Users\CYMR90~1\AppData\Local\Temp\ccBEkVPc.s:25423  .debug_str:0000000000011072 .LASF1803
C:\Users\CYMR90~1\AppData\Local\Temp\ccBEkVPc.s:24899  .debug_str:000000000000f006 .LASF1804
C:\Users\CYMR90~1\AppData\Local\Temp\ccBEkVPc.s:29600  .debug_str:0000000000021c6b .LASF1805
C:\Users\CYMR90~1\AppData\Local\Temp\ccBEkVPc.s:26269  .debug_str:0000000000014762 .LASF1806
C:\Users\CYMR90~1\AppData\Local\Temp\ccBEkVPc.s:29206  .debug_str:00000000000203e6 .LASF1807
C:\Users\CYMR90~1\AppData\Local\Temp\ccBEkVPc.s:26411  .debug_str:000000000001506b .LASF1808
C:\Users\CYMR90~1\AppData\Local\Temp\ccBEkVPc.s:31186  .debug_str:00000000000281e1 .LASF1809
C:\Users\CYMR90~1\AppData\Local\Temp\ccBEkVPc.s:28424  .debug_str:000000000001d3ff .LASF1810
C:\Users\CYMR90~1\AppData\Local\Temp\ccBEkVPc.s:27108  .debug_str:0000000000017df3 .LASF1811
C:\Users\CYMR90~1\AppData\Local\Temp\ccBEkVPc.s:21485  .debug_str:0000000000001589 .LASF1812
C:\Users\CYMR90~1\AppData\Local\Temp\ccBEkVPc.s:25311  .debug_str:00000000000109c0 .LASF1813
C:\Users\CYMR90~1\AppData\Local\Temp\ccBEkVPc.s:25583  .debug_str:0000000000011b47 .LASF1814
C:\Users\CYMR90~1\AppData\Local\Temp\ccBEkVPc.s:28406  .debug_str:000000000001d307 .LASF1815
C:\Users\CYMR90~1\AppData\Local\Temp\ccBEkVPc.s:27074  .debug_str:0000000000017c09 .LASF1816
C:\Users\CYMR90~1\AppData\Local\Temp\ccBEkVPc.s:28414  .debug_str:000000000001d385 .LASF1817
C:\Users\CYMR90~1\AppData\Local\Temp\ccBEkVPc.s:28868  .debug_str:000000000001ef71 .LASF1818
C:\Users\CYMR90~1\AppData\Local\Temp\ccBEkVPc.s:25119  .debug_str:000000000000fdf7 .LASF1819
C:\Users\CYMR90~1\AppData\Local\Temp\ccBEkVPc.s:29348  .debug_str:0000000000020d07 .LASF1820
C:\Users\CYMR90~1\AppData\Local\Temp\ccBEkVPc.s:22745  .debug_str:0000000000006587 .LASF1821
C:\Users\CYMR90~1\AppData\Local\Temp\ccBEkVPc.s:23133  .debug_str:0000000000007f7e .LASF1822
C:\Users\CYMR90~1\AppData\Local\Temp\ccBEkVPc.s:28800  .debug_str:000000000001ebb5 .LASF1823
C:\Users\CYMR90~1\AppData\Local\Temp\ccBEkVPc.s:31470  .debug_str:00000000000294fc .LASF1824
C:\Users\CYMR90~1\AppData\Local\Temp\ccBEkVPc.s:24053  .debug_str:000000000000ba9f .LASF1825
C:\Users\CYMR90~1\AppData\Local\Temp\ccBEkVPc.s:29444  .debug_str:0000000000021292 .LASF1826
C:\Users\CYMR90~1\AppData\Local\Temp\ccBEkVPc.s:31822  .debug_str:000000000002a9eb .LASF1827
C:\Users\CYMR90~1\AppData\Local\Temp\ccBEkVPc.s:24869  .debug_str:000000000000ee66 .LASF1828
C:\Users\CYMR90~1\AppData\Local\Temp\ccBEkVPc.s:24939  .debug_str:000000000000f291 .LASF1829
C:\Users\CYMR90~1\AppData\Local\Temp\ccBEkVPc.s:25731  .debug_str:000000000001245e .LASF1830
C:\Users\CYMR90~1\AppData\Local\Temp\ccBEkVPc.s:23507  .debug_str:0000000000009781 .LASF1831
C:\Users\CYMR90~1\AppData\Local\Temp\ccBEkVPc.s:30862  .debug_str:0000000000026c3d .LASF1832
C:\Users\CYMR90~1\AppData\Local\Temp\ccBEkVPc.s:24311  .debug_str:000000000000cbd1 .LASF1833
C:\Users\CYMR90~1\AppData\Local\Temp\ccBEkVPc.s:22953  .debug_str:000000000000733b .LASF1834
C:\Users\CYMR90~1\AppData\Local\Temp\ccBEkVPc.s:26709  .debug_str:00000000000162e5 .LASF1835
C:\Users\CYMR90~1\AppData\Local\Temp\ccBEkVPc.s:30732  .debug_str:0000000000026427 .LASF1836
C:\Users\CYMR90~1\AppData\Local\Temp\ccBEkVPc.s:26677  .debug_str:0000000000016106 .LASF1837
C:\Users\CYMR90~1\AppData\Local\Temp\ccBEkVPc.s:27400  .debug_str:0000000000019003 .LASF1838
C:\Users\CYMR90~1\AppData\Local\Temp\ccBEkVPc.s:25365  .debug_str:0000000000010d66 .LASF1839
C:\Users\CYMR90~1\AppData\Local\Temp\ccBEkVPc.s:28360  .debug_str:000000000001cf94 .LASF1840
C:\Users\CYMR90~1\AppData\Local\Temp\ccBEkVPc.s:27632  .debug_str:0000000000019f77 .LASF1841
C:\Users\CYMR90~1\AppData\Local\Temp\ccBEkVPc.s:30422  .debug_str:0000000000024eec .LASF1842
C:\Users\CYMR90~1\AppData\Local\Temp\ccBEkVPc.s:30818  .debug_str:00000000000269b2 .LASF1843
C:\Users\CYMR90~1\AppData\Local\Temp\ccBEkVPc.s:32016  .debug_str:000000000002b649 .LASF1844
C:\Users\CYMR90~1\AppData\Local\Temp\ccBEkVPc.s:31874  .debug_str:000000000002ace8 .LASF1845
C:\Users\CYMR90~1\AppData\Local\Temp\ccBEkVPc.s:23237  .debug_str:00000000000086f0 .LASF1846
C:\Users\CYMR90~1\AppData\Local\Temp\ccBEkVPc.s:28560  .debug_str:000000000001dc5e .LASF1847
C:\Users\CYMR90~1\AppData\Local\Temp\ccBEkVPc.s:29704  .debug_str:00000000000222e2 .LASF1848
C:\Users\CYMR90~1\AppData\Local\Temp\ccBEkVPc.s:29718  .debug_str:00000000000223b5 .LASF1849
C:\Users\CYMR90~1\AppData\Local\Temp\ccBEkVPc.s:28954  .debug_str:000000000001f4cd .LASF1850
C:\Users\CYMR90~1\AppData\Local\Temp\ccBEkVPc.s:23293  .debug_str:0000000000008a2c .LASF1851
C:\Users\CYMR90~1\AppData\Local\Temp\ccBEkVPc.s:30774  .debug_str:00000000000266fc .LASF1852
C:\Users\CYMR90~1\AppData\Local\Temp\ccBEkVPc.s:24553  .debug_str:000000000000db1a .LASF1853
C:\Users\CYMR90~1\AppData\Local\Temp\ccBEkVPc.s:21925  .debug_str:00000000000030a6 .LASF1854
C:\Users\CYMR90~1\AppData\Local\Temp\ccBEkVPc.s:28444  .debug_str:000000000001d544 .LASF1855
C:\Users\CYMR90~1\AppData\Local\Temp\ccBEkVPc.s:31036  .debug_str:00000000000277a0 .LASF1856
C:\Users\CYMR90~1\AppData\Local\Temp\ccBEkVPc.s:23387  .debug_str:0000000000009020 .LASF1857
C:\Users\CYMR90~1\AppData\Local\Temp\ccBEkVPc.s:24237  .debug_str:000000000000c617 .LASF1858
C:\Users\CYMR90~1\AppData\Local\Temp\ccBEkVPc.s:31134  .debug_str:0000000000027e31 .LASF1859
C:\Users\CYMR90~1\AppData\Local\Temp\ccBEkVPc.s:26417  .debug_str:00000000000150cc .LASF1860
C:\Users\CYMR90~1\AppData\Local\Temp\ccBEkVPc.s:27342  .debug_str:0000000000018cb3 .LASF1861
C:\Users\CYMR90~1\AppData\Local\Temp\ccBEkVPc.s:25169  .debug_str:000000000001010a .LASF1862
C:\Users\CYMR90~1\AppData\Local\Temp\ccBEkVPc.s:22905  .debug_str:0000000000006f9e .LASF1863
C:\Users\CYMR90~1\AppData\Local\Temp\ccBEkVPc.s:27254  .debug_str:000000000001868d .LASF1864
C:\Users\CYMR90~1\AppData\Local\Temp\ccBEkVPc.s:22537  .debug_str:00000000000058f2 .LASF1865
C:\Users\CYMR90~1\AppData\Local\Temp\ccBEkVPc.s:29900  .debug_str:0000000000022e68 .LASF1866
C:\Users\CYMR90~1\AppData\Local\Temp\ccBEkVPc.s:29136  .debug_str:000000000001ffda .LASF1867
C:\Users\CYMR90~1\AppData\Local\Temp\ccBEkVPc.s:24171  .debug_str:000000000000c250 .LASF1868
C:\Users\CYMR90~1\AppData\Local\Temp\ccBEkVPc.s:21275  .debug_str:0000000000000894 .LASF1869
C:\Users\CYMR90~1\AppData\Local\Temp\ccBEkVPc.s:21635  .debug_str:0000000000001f14 .LASF1870
C:\Users\CYMR90~1\AppData\Local\Temp\ccBEkVPc.s:31416  .debug_str:0000000000029110 .LASF1871
C:\Users\CYMR90~1\AppData\Local\Temp\ccBEkVPc.s:30520  .debug_str:0000000000025671 .LASF1872
C:\Users\CYMR90~1\AppData\Local\Temp\ccBEkVPc.s:26547  .debug_str:0000000000015819 .LASF1873
C:\Users\CYMR90~1\AppData\Local\Temp\ccBEkVPc.s:23077  .debug_str:0000000000007b56 .LASF1874
C:\Users\CYMR90~1\AppData\Local\Temp\ccBEkVPc.s:23969  .debug_str:000000000000b470 .LASF1875
C:\Users\CYMR90~1\AppData\Local\Temp\ccBEkVPc.s:31600  .debug_str:0000000000029cd3 .LASF1876
C:\Users\CYMR90~1\AppData\Local\Temp\ccBEkVPc.s:21943  .debug_str:00000000000031de .LASF1877
C:\Users\CYMR90~1\AppData\Local\Temp\ccBEkVPc.s:28624  .debug_str:000000000001e0de .LASF1878
C:\Users\CYMR90~1\AppData\Local\Temp\ccBEkVPc.s:25007  .debug_str:000000000000f685 .LASF1879
C:\Users\CYMR90~1\AppData\Local\Temp\ccBEkVPc.s:23341  .debug_str:0000000000008cff .LASF1880
C:\Users\CYMR90~1\AppData\Local\Temp\ccBEkVPc.s:28934  .debug_str:000000000001f390 .LASF1881
C:\Users\CYMR90~1\AppData\Local\Temp\ccBEkVPc.s:21385  .debug_str:0000000000000fc2 .LASF1882
C:\Users\CYMR90~1\AppData\Local\Temp\ccBEkVPc.s:29336  .debug_str:0000000000020c20 .LASF1883
C:\Users\CYMR90~1\AppData\Local\Temp\ccBEkVPc.s:32012  .debug_str:000000000002b601 .LASF1884
C:\Users\CYMR90~1\AppData\Local\Temp\ccBEkVPc.s:29046  .debug_str:000000000001fa3d .LASF1885
C:\Users\CYMR90~1\AppData\Local\Temp\ccBEkVPc.s:31150  .debug_str:0000000000027f31 .LASF1886
C:\Users\CYMR90~1\AppData\Local\Temp\ccBEkVPc.s:23565  .debug_str:0000000000009b6a .LASF1887
C:\Users\CYMR90~1\AppData\Local\Temp\ccBEkVPc.s:23375  .debug_str:0000000000008f57 .LASF1888
C:\Users\CYMR90~1\AppData\Local\Temp\ccBEkVPc.s:32046  .debug_str:000000000002b81d .LASF1889
C:\Users\CYMR90~1\AppData\Local\Temp\ccBEkVPc.s:27494  .debug_str:000000000001964a .LASF1890
C:\Users\CYMR90~1\AppData\Local\Temp\ccBEkVPc.s:23555  .debug_str:0000000000009a9b .LASF1891
C:\Users\CYMR90~1\AppData\Local\Temp\ccBEkVPc.s:23651  .debug_str:000000000000a09b .LASF1892
C:\Users\CYMR90~1\AppData\Local\Temp\ccBEkVPc.s:28250  .debug_str:000000000001c751 .LASF1893
C:\Users\CYMR90~1\AppData\Local\Temp\ccBEkVPc.s:23369  .debug_str:0000000000008eeb .LASF1894
C:\Users\CYMR90~1\AppData\Local\Temp\ccBEkVPc.s:24623  .debug_str:000000000000df38 .LASF1895
C:\Users\CYMR90~1\AppData\Local\Temp\ccBEkVPc.s:26942  .debug_str:00000000000173b6 .LASF1896
C:\Users\CYMR90~1\AppData\Local\Temp\ccBEkVPc.s:21587  .debug_str:0000000000001c34 .LASF1897
C:\Users\CYMR90~1\AppData\Local\Temp\ccBEkVPc.s:30886  .debug_str:0000000000026dee .LASF1898
C:\Users\CYMR90~1\AppData\Local\Temp\ccBEkVPc.s:27734  .debug_str:000000000001a6f0 .LASF1899
C:\Users\CYMR90~1\AppData\Local\Temp\ccBEkVPc.s:24443  .debug_str:000000000000d495 .LASF1900
C:\Users\CYMR90~1\AppData\Local\Temp\ccBEkVPc.s:21201  .debug_str:0000000000000452 .LASF1901
C:\Users\CYMR90~1\AppData\Local\Temp\ccBEkVPc.s:22009  .debug_str:0000000000003650 .LASF1902
C:\Users\CYMR90~1\AppData\Local\Temp\ccBEkVPc.s:24077  .debug_str:000000000000bbdb .LASF1903
C:\Users\CYMR90~1\AppData\Local\Temp\ccBEkVPc.s:32292  .debug_str:000000000002c8a2 .LASF1904
C:\Users\CYMR90~1\AppData\Local\Temp\ccBEkVPc.s:26811  .debug_str:000000000001698d .LASF1905
C:\Users\CYMR90~1\AppData\Local\Temp\ccBEkVPc.s:23525  .debug_str:0000000000009844 .LASF1906
C:\Users\CYMR90~1\AppData\Local\Temp\ccBEkVPc.s:31228  .debug_str:00000000000284fc .LASF1907
C:\Users\CYMR90~1\AppData\Local\Temp\ccBEkVPc.s:28288  .debug_str:000000000001ca60 .LASF1908
C:\Users\CYMR90~1\AppData\Local\Temp\ccBEkVPc.s:22525  .debug_str:0000000000005828 .LASF1909
C:\Users\CYMR90~1\AppData\Local\Temp\ccBEkVPc.s:31592  .debug_str:0000000000029c56 .LASF1910
C:\Users\CYMR90~1\AppData\Local\Temp\ccBEkVPc.s:27918  .debug_str:000000000001b354 .LASF1911
C:\Users\CYMR90~1\AppData\Local\Temp\ccBEkVPc.s:27590  .debug_str:0000000000019d09 .LASF1912
C:\Users\CYMR90~1\AppData\Local\Temp\ccBEkVPc.s:23989  .debug_str:000000000000b639 .LASF1913
C:\Users\CYMR90~1\AppData\Local\Temp\ccBEkVPc.s:23827  .debug_str:000000000000ab38 .LASF1914
C:\Users\CYMR90~1\AppData\Local\Temp\ccBEkVPc.s:29238  .debug_str:0000000000020603 .LASF1915
C:\Users\CYMR90~1\AppData\Local\Temp\ccBEkVPc.s:30496  .debug_str:00000000000254a0 .LASF1916
C:\Users\CYMR90~1\AppData\Local\Temp\ccBEkVPc.s:27106  .debug_str:0000000000017dc7 .LASF1917
C:\Users\CYMR90~1\AppData\Local\Temp\ccBEkVPc.s:23725  .debug_str:000000000000a531 .LASF1918
C:\Users\CYMR90~1\AppData\Local\Temp\ccBEkVPc.s:31646  .debug_str:0000000000029f61 .LASF1919
C:\Users\CYMR90~1\AppData\Local\Temp\ccBEkVPc.s:28260  .debug_str:000000000001c7f8 .LASF1920
C:\Users\CYMR90~1\AppData\Local\Temp\ccBEkVPc.s:24405  .debug_str:000000000000d17b .LASF1921
C:\Users\CYMR90~1\AppData\Local\Temp\ccBEkVPc.s:22927  .debug_str:0000000000007126 .LASF1922
C:\Users\CYMR90~1\AppData\Local\Temp\ccBEkVPc.s:29308  .debug_str:0000000000020a7b .LASF1923
C:\Users\CYMR90~1\AppData\Local\Temp\ccBEkVPc.s:31370  .debug_str:0000000000028e31 .LASF1924
C:\Users\CYMR90~1\AppData\Local\Temp\ccBEkVPc.s:23847  .debug_str:000000000000aca3 .LASF1925
C:\Users\CYMR90~1\AppData\Local\Temp\ccBEkVPc.s:29134  .debug_str:000000000001ffac .LASF1926
C:\Users\CYMR90~1\AppData\Local\Temp\ccBEkVPc.s:28156  .debug_str:000000000001c1ce .LASF1927
C:\Users\CYMR90~1\AppData\Local\Temp\ccBEkVPc.s:22047  .debug_str:00000000000038e6 .LASF1928
C:\Users\CYMR90~1\AppData\Local\Temp\ccBEkVPc.s:22979  .debug_str:00000000000074db .LASF1929
C:\Users\CYMR90~1\AppData\Local\Temp\ccBEkVPc.s:29062  .debug_str:000000000001fb3b .LASF1930
C:\Users\CYMR90~1\AppData\Local\Temp\ccBEkVPc.s:32320  .debug_str:000000000002caa5 .LASF1931
C:\Users\CYMR90~1\AppData\Local\Temp\ccBEkVPc.s:32004  .debug_str:000000000002b567 .LASF1932
C:\Users\CYMR90~1\AppData\Local\Temp\ccBEkVPc.s:23089  .debug_str:0000000000007c00 .LASF1933
C:\Users\CYMR90~1\AppData\Local\Temp\ccBEkVPc.s:24151  .debug_str:000000000000c11b .LASF1934
C:\Users\CYMR90~1\AppData\Local\Temp\ccBEkVPc.s:28232  .debug_str:000000000001c616 .LASF1935
C:\Users\CYMR90~1\AppData\Local\Temp\ccBEkVPc.s:22569  .debug_str:0000000000005af7 .LASF1936
C:\Users\CYMR90~1\AppData\Local\Temp\ccBEkVPc.s:28094  .debug_str:000000000001bdbb .LASF1937
C:\Users\CYMR90~1\AppData\Local\Temp\ccBEkVPc.s:27056  .debug_str:0000000000017afb .LASF1938
C:\Users\CYMR90~1\AppData\Local\Temp\ccBEkVPc.s:26365  .debug_str:0000000000014d3d .LASF1939
C:\Users\CYMR90~1\AppData\Local\Temp\ccBEkVPc.s:23281  .debug_str:0000000000008978 .LASF1940
C:\Users\CYMR90~1\AppData\Local\Temp\ccBEkVPc.s:31438  .debug_str:0000000000029299 .LASF1941
C:\Users\CYMR90~1\AppData\Local\Temp\ccBEkVPc.s:28340  .debug_str:000000000001cdb8 .LASF1942
C:\Users\CYMR90~1\AppData\Local\Temp\ccBEkVPc.s:24207  .debug_str:000000000000c457 .LASF1943
C:\Users\CYMR90~1\AppData\Local\Temp\ccBEkVPc.s:25347  .debug_str:0000000000010be0 .LASF1944
C:\Users\CYMR90~1\AppData\Local\Temp\ccBEkVPc.s:29170  .debug_str:00000000000201ec .LASF1945
C:\Users\CYMR90~1\AppData\Local\Temp\ccBEkVPc.s:26073  .debug_str:0000000000013b57 .LASF1946
C:\Users\CYMR90~1\AppData\Local\Temp\ccBEkVPc.s:22871  .debug_str:0000000000006d88 .LASF1947
C:\Users\CYMR90~1\AppData\Local\Temp\ccBEkVPc.s:21783  .debug_str:00000000000027d0 .LASF1948
C:\Users\CYMR90~1\AppData\Local\Temp\ccBEkVPc.s:27974  .debug_str:000000000001b690 .LASF1949
C:\Users\CYMR90~1\AppData\Local\Temp\ccBEkVPc.s:24887  .debug_str:000000000000ef49 .LASF1950
C:\Users\CYMR90~1\AppData\Local\Temp\ccBEkVPc.s:21659  .debug_str:0000000000002046 .LASF1951
C:\Users\CYMR90~1\AppData\Local\Temp\ccBEkVPc.s:29918  .debug_str:0000000000022f4e .LASF1952
C:\Users\CYMR90~1\AppData\Local\Temp\ccBEkVPc.s:30628  .debug_str:0000000000025dd9 .LASF1953
C:\Users\CYMR90~1\AppData\Local\Temp\ccBEkVPc.s:26201  .debug_str:00000000000142fb .LASF1954
C:\Users\CYMR90~1\AppData\Local\Temp\ccBEkVPc.s:29458  .debug_str:000000000002135d .LASF1955
C:\Users\CYMR90~1\AppData\Local\Temp\ccBEkVPc.s:30112  .debug_str:0000000000023acc .LASF1956
C:\Users\CYMR90~1\AppData\Local\Temp\ccBEkVPc.s:21709  .debug_str:0000000000002318 .LASF1957
C:\Users\CYMR90~1\AppData\Local\Temp\ccBEkVPc.s:31846  .debug_str:000000000002ab52 .LASF1958
C:\Users\CYMR90~1\AppData\Local\Temp\ccBEkVPc.s:23095  .debug_str:0000000000007c71 .LASF1959
C:\Users\CYMR90~1\AppData\Local\Temp\ccBEkVPc.s:31418  .debug_str:000000000002914f .LASF1960
C:\Users\CYMR90~1\AppData\Local\Temp\ccBEkVPc.s:28296  .debug_str:000000000001cae6 .LASF1961
C:\Users\CYMR90~1\AppData\Local\Temp\ccBEkVPc.s:21239  .debug_str:000000000000065d .LASF1962
C:\Users\CYMR90~1\AppData\Local\Temp\ccBEkVPc.s:26595  .debug_str:0000000000015b07 .LASF1963
C:\Users\CYMR90~1\AppData\Local\Temp\ccBEkVPc.s:30478  .debug_str:0000000000025353 .LASF1964
C:\Users\CYMR90~1\AppData\Local\Temp\ccBEkVPc.s:22931  .debug_str:0000000000007191 .LASF1965
C:\Users\CYMR90~1\AppData\Local\Temp\ccBEkVPc.s:28434  .debug_str:000000000001d488 .LASF1966
C:\Users\CYMR90~1\AppData\Local\Temp\ccBEkVPc.s:31946  .debug_str:000000000002b14a .LASF1967
C:\Users\CYMR90~1\AppData\Local\Temp\ccBEkVPc.s:28274  .debug_str:000000000001c97b .LASF1968
C:\Users\CYMR90~1\AppData\Local\Temp\ccBEkVPc.s:29800  .debug_str:0000000000022836 .LASF1969
C:\Users\CYMR90~1\AppData\Local\Temp\ccBEkVPc.s:22915  .debug_str:0000000000007054 .LASF1970
C:\Users\CYMR90~1\AppData\Local\Temp\ccBEkVPc.s:29806  .debug_str:0000000000022884 .LASF1971
C:\Users\CYMR90~1\AppData\Local\Temp\ccBEkVPc.s:30512  .debug_str:00000000000255c7 .LASF1972
C:\Users\CYMR90~1\AppData\Local\Temp\ccBEkVPc.s:27578  .debug_str:0000000000019c49 .LASF1973
C:\Users\CYMR90~1\AppData\Local\Temp\ccBEkVPc.s:27384  .debug_str:0000000000018f4a .LASF1974
C:\Users\CYMR90~1\AppData\Local\Temp\ccBEkVPc.s:31894  .debug_str:000000000002ae50 .LASF1975
C:\Users\CYMR90~1\AppData\Local\Temp\ccBEkVPc.s:23115  .debug_str:0000000000007e53 .LASF1976
C:\Users\CYMR90~1\AppData\Local\Temp\ccBEkVPc.s:23473  .debug_str:000000000000952b .LASF1977
C:\Users\CYMR90~1\AppData\Local\Temp\ccBEkVPc.s:31668  .debug_str:000000000002a0a4 .LASF1978
C:\Users\CYMR90~1\AppData\Local\Temp\ccBEkVPc.s:22393  .debug_str:0000000000005002 .LASF1979
C:\Users\CYMR90~1\AppData\Local\Temp\ccBEkVPc.s:27976  .debug_str:000000000001b6af .LASF1980
C:\Users\CYMR90~1\AppData\Local\Temp\ccBEkVPc.s:30270  .debug_str:000000000002453a .LASF1981
C:\Users\CYMR90~1\AppData\Local\Temp\ccBEkVPc.s:30118  .debug_str:0000000000023b27 .LASF1982
C:\Users\CYMR90~1\AppData\Local\Temp\ccBEkVPc.s:30934  .debug_str:00000000000270ba .LASF1983
C:\Users\CYMR90~1\AppData\Local\Temp\ccBEkVPc.s:31850  .debug_str:000000000002aba8 .LASF1984
C:\Users\CYMR90~1\AppData\Local\Temp\ccBEkVPc.s:28828  .debug_str:000000000001ed1a .LASF1985
C:\Users\CYMR90~1\AppData\Local\Temp\ccBEkVPc.s:28008  .debug_str:000000000001b8c2 .LASF1986
C:\Users\CYMR90~1\AppData\Local\Temp\ccBEkVPc.s:26279  .debug_str:00000000000147eb .LASF1987
C:\Users\CYMR90~1\AppData\Local\Temp\ccBEkVPc.s:27282  .debug_str:0000000000018829 .LASF1988
C:\Users\CYMR90~1\AppData\Local\Temp\ccBEkVPc.s:24305  .debug_str:000000000000cb82 .LASF1989
C:\Users\CYMR90~1\AppData\Local\Temp\ccBEkVPc.s:22143  .debug_str:0000000000003f3d .LASF1990
C:\Users\CYMR90~1\AppData\Local\Temp\ccBEkVPc.s:24369  .debug_str:000000000000cf25 .LASF1991
C:\Users\CYMR90~1\AppData\Local\Temp\ccBEkVPc.s:25269  .debug_str:000000000001073e .LASF1992
C:\Users\CYMR90~1\AppData\Local\Temp\ccBEkVPc.s:22299  .debug_str:0000000000004a50 .LASF1993
C:\Users\CYMR90~1\AppData\Local\Temp\ccBEkVPc.s:21381  .debug_str:0000000000000f92 .LASF1994
C:\Users\CYMR90~1\AppData\Local\Temp\ccBEkVPc.s:30528  .debug_str:0000000000025705 .LASF1995
C:\Users\CYMR90~1\AppData\Local\Temp\ccBEkVPc.s:22007  .debug_str:000000000000361c .LASF1996
C:\Users\CYMR90~1\AppData\Local\Temp\ccBEkVPc.s:30984  .debug_str:00000000000274b4 .LASF1997
C:\Users\CYMR90~1\AppData\Local\Temp\ccBEkVPc.s:23253  .debug_str:00000000000087c0 .LASF1998
C:\Users\CYMR90~1\AppData\Local\Temp\ccBEkVPc.s:27210  .debug_str:0000000000018417 .LASF1999
C:\Users\CYMR90~1\AppData\Local\Temp\ccBEkVPc.s:28170  .debug_str:000000000001c2de .LASF2000
C:\Users\CYMR90~1\AppData\Local\Temp\ccBEkVPc.s:25509  .debug_str:000000000001157c .LASF2001
C:\Users\CYMR90~1\AppData\Local\Temp\ccBEkVPc.s:29812  .debug_str:00000000000228e9 .LASF2002
C:\Users\CYMR90~1\AppData\Local\Temp\ccBEkVPc.s:31206  .debug_str:00000000000283af .LASF2003
C:\Users\CYMR90~1\AppData\Local\Temp\ccBEkVPc.s:26233  .debug_str:0000000000014497 .LASF2004
C:\Users\CYMR90~1\AppData\Local\Temp\ccBEkVPc.s:29706  .debug_str:00000000000222fd .LASF2005
C:\Users\CYMR90~1\AppData\Local\Temp\ccBEkVPc.s:26900  .debug_str:0000000000017161 .LASF2006
C:\Users\CYMR90~1\AppData\Local\Temp\ccBEkVPc.s:32094  .debug_str:000000000002bb82 .LASF2007
C:\Users\CYMR90~1\AppData\Local\Temp\ccBEkVPc.s:22433  .debug_str:000000000000529b .LASF2008
C:\Users\CYMR90~1\AppData\Local\Temp\ccBEkVPc.s:26003  .debug_str:000000000001370b .LASF2009
C:\Users\CYMR90~1\AppData\Local\Temp\ccBEkVPc.s:28722  .debug_str:000000000001e6d1 .LASF2010
C:\Users\CYMR90~1\AppData\Local\Temp\ccBEkVPc.s:24335  .debug_str:000000000000cd42 .LASF2011
C:\Users\CYMR90~1\AppData\Local\Temp\ccBEkVPc.s:21571  .debug_str:0000000000001b5f .LASF2012
C:\Users\CYMR90~1\AppData\Local\Temp\ccBEkVPc.s:29998  .debug_str:00000000000233ac .LASF2013
C:\Users\CYMR90~1\AppData\Local\Temp\ccBEkVPc.s:29754  .debug_str:000000000002256e .LASF2014
C:\Users\CYMR90~1\AppData\Local\Temp\ccBEkVPc.s:27712  .debug_str:000000000001a593 .LASF2015
C:\Users\CYMR90~1\AppData\Local\Temp\ccBEkVPc.s:31578  .debug_str:0000000000029b80 .LASF2016
C:\Users\CYMR90~1\AppData\Local\Temp\ccBEkVPc.s:29908  .debug_str:0000000000022ee2 .LASF2017
C:\Users\CYMR90~1\AppData\Local\Temp\ccBEkVPc.s:32006  .debug_str:000000000002b597 .LASF2018
C:\Users\CYMR90~1\AppData\Local\Temp\ccBEkVPc.s:28474  .debug_str:000000000001d700 .LASF2019
C:\Users\CYMR90~1\AppData\Local\Temp\ccBEkVPc.s:28258  .debug_str:000000000001c7dd .LASF2020
C:\Users\CYMR90~1\AppData\Local\Temp\ccBEkVPc.s:29952  .debug_str:000000000002312b .LASF2021
C:\Users\CYMR90~1\AppData\Local\Temp\ccBEkVPc.s:30924  .debug_str:000000000002703c .LASF2022
C:\Users\CYMR90~1\AppData\Local\Temp\ccBEkVPc.s:27122  .debug_str:0000000000017ee7 .LASF2023
C:\Users\CYMR90~1\AppData\Local\Temp\ccBEkVPc.s:30864  .debug_str:0000000000026c52 .LASF2024
C:\Users\CYMR90~1\AppData\Local\Temp\ccBEkVPc.s:24051  .debug_str:000000000000ba84 .LASF2025
C:\Users\CYMR90~1\AppData\Local\Temp\ccBEkVPc.s:31960  .debug_str:000000000002b226 .LASF2026
C:\Users\CYMR90~1\AppData\Local\Temp\ccBEkVPc.s:21967  .debug_str:000000000000336a .LASF2027
C:\Users\CYMR90~1\AppData\Local\Temp\ccBEkVPc.s:30012  .debug_str:0000000000023469 .LASF2028
C:\Users\CYMR90~1\AppData\Local\Temp\ccBEkVPc.s:29034  .debug_str:000000000001f968 .LASF2029
C:\Users\CYMR90~1\AppData\Local\Temp\ccBEkVPc.s:21149  .debug_str:0000000000000121 .LASF2030
C:\Users\CYMR90~1\AppData\Local\Temp\ccBEkVPc.s:27110  .debug_str:0000000000017e08 .LASF2031
C:\Users\CYMR90~1\AppData\Local\Temp\ccBEkVPc.s:23821  .debug_str:000000000000aaf3 .LASF2032
C:\Users\CYMR90~1\AppData\Local\Temp\ccBEkVPc.s:25025  .debug_str:000000000000f83a .LASF2033
C:\Users\CYMR90~1\AppData\Local\Temp\ccBEkVPc.s:24031  .debug_str:000000000000b8f4 .LASF2034
C:\Users\CYMR90~1\AppData\Local\Temp\ccBEkVPc.s:25581  .debug_str:0000000000011b2a .LASF2035
C:\Users\CYMR90~1\AppData\Local\Temp\ccBEkVPc.s:29492  .debug_str:00000000000215fa .LASF2036
C:\Users\CYMR90~1\AppData\Local\Temp\ccBEkVPc.s:29886  .debug_str:0000000000022d9b .LASF2037
C:\Users\CYMR90~1\AppData\Local\Temp\ccBEkVPc.s:30456  .debug_str:000000000002514a .LASF2038
C:\Users\CYMR90~1\AppData\Local\Temp\ccBEkVPc.s:25679  .debug_str:0000000000012117 .LASF2039
C:\Users\CYMR90~1\AppData\Local\Temp\ccBEkVPc.s:27652  .debug_str:000000000001a09e .LASF2040
C:\Users\CYMR90~1\AppData\Local\Temp\ccBEkVPc.s:24363  .debug_str:000000000000cea6 .LASF2041
C:\Users\CYMR90~1\AppData\Local\Temp\ccBEkVPc.s:21791  .debug_str:0000000000002843 .LASF2042
C:\Users\CYMR90~1\AppData\Local\Temp\ccBEkVPc.s:22527  .debug_str:0000000000005866 .LASF2043
C:\Users\CYMR90~1\AppData\Local\Temp\ccBEkVPc.s:32368  .debug_str:000000000002ce04 .LASF2044
C:\Users\CYMR90~1\AppData\Local\Temp\ccBEkVPc.s:25975  .debug_str:0000000000013523 .LASF2045
C:\Users\CYMR90~1\AppData\Local\Temp\ccBEkVPc.s:29768  .debug_str:0000000000022644 .LASF2046
C:\Users\CYMR90~1\AppData\Local\Temp\ccBEkVPc.s:31382  .debug_str:0000000000028f04 .LASF2047
C:\Users\CYMR90~1\AppData\Local\Temp\ccBEkVPc.s:28138  .debug_str:000000000001c0b5 .LASF2048
C:\Users\CYMR90~1\AppData\Local\Temp\ccBEkVPc.s:28678  .debug_str:000000000001e41e .LASF2049
C:\Users\CYMR90~1\AppData\Local\Temp\ccBEkVPc.s:22593  .debug_str:0000000000005c7e .LASF2050
C:\Users\CYMR90~1\AppData\Local\Temp\ccBEkVPc.s:21953  .debug_str:0000000000003270 .LASF2051
C:\Users\CYMR90~1\AppData\Local\Temp\ccBEkVPc.s:23933  .debug_str:000000000000b288 .LASF2052
C:\Users\CYMR90~1\AppData\Local\Temp\ccBEkVPc.s:30494  .debug_str:0000000000025459 .LASF2053
C:\Users\CYMR90~1\AppData\Local\Temp\ccBEkVPc.s:31806  .debug_str:000000000002a911 .LASF2054
C:\Users\CYMR90~1\AppData\Local\Temp\ccBEkVPc.s:22403  .debug_str:00000000000050aa .LASF2055
C:\Users\CYMR90~1\AppData\Local\Temp\ccBEkVPc.s:30822  .debug_str:00000000000269e9 .LASF2056
C:\Users\CYMR90~1\AppData\Local\Temp\ccBEkVPc.s:28844  .debug_str:000000000001ee17 .LASF2057
C:\Users\CYMR90~1\AppData\Local\Temp\ccBEkVPc.s:26960  .debug_str:00000000000174d7 .LASF2058
C:\Users\CYMR90~1\AppData\Local\Temp\ccBEkVPc.s:23807  .debug_str:000000000000aa03 .LASF2059
C:\Users\CYMR90~1\AppData\Local\Temp\ccBEkVPc.s:24613  .debug_str:000000000000de98 .LASF2060
C:\Users\CYMR90~1\AppData\Local\Temp\ccBEkVPc.s:29292  .debug_str:000000000002098c .LASF2061
C:\Users\CYMR90~1\AppData\Local\Temp\ccBEkVPc.s:26103  .debug_str:0000000000013d1b .LASF2062
C:\Users\CYMR90~1\AppData\Local\Temp\ccBEkVPc.s:23803  .debug_str:000000000000a9c7 .LASF2063
C:\Users\CYMR90~1\AppData\Local\Temp\ccBEkVPc.s:25391  .debug_str:0000000000010eb0 .LASF2064
C:\Users\CYMR90~1\AppData\Local\Temp\ccBEkVPc.s:28810  .debug_str:000000000001ec25 .LASF2065
C:\Users\CYMR90~1\AppData\Local\Temp\ccBEkVPc.s:23489  .debug_str:000000000000960b .LASF2066
C:\Users\CYMR90~1\AppData\Local\Temp\ccBEkVPc.s:23963  .debug_str:000000000000b412 .LASF2067
C:\Users\CYMR90~1\AppData\Local\Temp\ccBEkVPc.s:27062  .debug_str:0000000000017b4d .LASF2068
C:\Users\CYMR90~1\AppData\Local\Temp\ccBEkVPc.s:26669  .debug_str:0000000000016065 .LASF2069
C:\Users\CYMR90~1\AppData\Local\Temp\ccBEkVPc.s:24497  .debug_str:000000000000d7c5 .LASF2070
C:\Users\CYMR90~1\AppData\Local\Temp\ccBEkVPc.s:22563  .debug_str:0000000000005ab0 .LASF2071
C:\Users\CYMR90~1\AppData\Local\Temp\ccBEkVPc.s:25831  .debug_str:0000000000012b69 .LASF2072
C:\Users\CYMR90~1\AppData\Local\Temp\ccBEkVPc.s:24847  .debug_str:000000000000ed47 .LASF2073
C:\Users\CYMR90~1\AppData\Local\Temp\ccBEkVPc.s:24089  .debug_str:000000000000bcb4 .LASF2074
C:\Users\CYMR90~1\AppData\Local\Temp\ccBEkVPc.s:32180  .debug_str:000000000002c170 .LASF2075
C:\Users\CYMR90~1\AppData\Local\Temp\ccBEkVPc.s:23361  .debug_str:0000000000008ead .LASF2076
C:\Users\CYMR90~1\AppData\Local\Temp\ccBEkVPc.s:31462  .debug_str:0000000000029481 .LASF2077
C:\Users\CYMR90~1\AppData\Local\Temp\ccBEkVPc.s:22415  .debug_str:0000000000005180 .LASF2078
C:\Users\CYMR90~1\AppData\Local\Temp\ccBEkVPc.s:21537  .debug_str:0000000000001955 .LASF2079
C:\Users\CYMR90~1\AppData\Local\Temp\ccBEkVPc.s:30038  .debug_str:0000000000023630 .LASF2080
C:\Users\CYMR90~1\AppData\Local\Temp\ccBEkVPc.s:31346  .debug_str:0000000000028cb5 .LASF2081
C:\Users\CYMR90~1\AppData\Local\Temp\ccBEkVPc.s:31440  .debug_str:00000000000292c1 .LASF2082
C:\Users\CYMR90~1\AppData\Local\Temp\ccBEkVPc.s:25705  .debug_str:0000000000012293 .LASF2083
C:\Users\CYMR90~1\AppData\Local\Temp\ccBEkVPc.s:23137  .debug_str:0000000000007fbe .LASF2084
C:\Users\CYMR90~1\AppData\Local\Temp\ccBEkVPc.s:29924  .debug_str:0000000000022fac .LASF2085
C:\Users\CYMR90~1\AppData\Local\Temp\ccBEkVPc.s:21433  .debug_str:0000000000001274 .LASF2086
C:\Users\CYMR90~1\AppData\Local\Temp\ccBEkVPc.s:21289  .debug_str:0000000000000970 .LASF2087
C:\Users\CYMR90~1\AppData\Local\Temp\ccBEkVPc.s:27922  .debug_str:000000000001b39a .LASF2088
C:\Users\CYMR90~1\AppData\Local\Temp\ccBEkVPc.s:29004  .debug_str:000000000001f7cd .LASF2089
C:\Users\CYMR90~1\AppData\Local\Temp\ccBEkVPc.s:26888  .debug_str:00000000000170ae .LASF2090
C:\Users\CYMR90~1\AppData\Local\Temp\ccBEkVPc.s:25639  .debug_str:0000000000011e8a .LASF2091
C:\Users\CYMR90~1\AppData\Local\Temp\ccBEkVPc.s:26988  .debug_str:000000000001767e .LASF2092
C:\Users\CYMR90~1\AppData\Local\Temp\ccBEkVPc.s:26133  .debug_str:0000000000013ec6 .LASF2093
C:\Users\CYMR90~1\AppData\Local\Temp\ccBEkVPc.s:21947  .debug_str:0000000000003220 .LASF2094
C:\Users\CYMR90~1\AppData\Local\Temp\ccBEkVPc.s:22167  .debug_str:000000000000413d .LASF2095
C:\Users\CYMR90~1\AppData\Local\Temp\ccBEkVPc.s:23605  .debug_str:0000000000009dd7 .LASF2096
C:\Users\CYMR90~1\AppData\Local\Temp\ccBEkVPc.s:21923  .debug_str:000000000000307b .LASF2097
C:\Users\CYMR90~1\AppData\Local\Temp\ccBEkVPc.s:30638  .debug_str:0000000000025e77 .LASF2098
C:\Users\CYMR90~1\AppData\Local\Temp\ccBEkVPc.s:25181  .debug_str:00000000000101f4 .LASF2099
C:\Users\CYMR90~1\AppData\Local\Temp\ccBEkVPc.s:23971  .debug_str:000000000000b499 .LASF2100
C:\Users\CYMR90~1\AppData\Local\Temp\ccBEkVPc.s:22743  .debug_str:0000000000006564 .LASF2101
C:\Users\CYMR90~1\AppData\Local\Temp\ccBEkVPc.s:21839  .debug_str:0000000000002b2f .LASF2102
C:\Users\CYMR90~1\AppData\Local\Temp\ccBEkVPc.s:23643  .debug_str:000000000000a00c .LASF2103
C:\Users\CYMR90~1\AppData\Local\Temp\ccBEkVPc.s:32124  .debug_str:000000000002bd6e .LASF2104
C:\Users\CYMR90~1\AppData\Local\Temp\ccBEkVPc.s:26986  .debug_str:000000000001765a .LASF2105
C:\Users\CYMR90~1\AppData\Local\Temp\ccBEkVPc.s:21939  .debug_str:0000000000003186 .LASF2106
C:\Users\CYMR90~1\AppData\Local\Temp\ccBEkVPc.s:31406  .debug_str:0000000000029097 .LASF2107
C:\Users\CYMR90~1\AppData\Local\Temp\ccBEkVPc.s:25673  .debug_str:00000000000120c9 .LASF2108
C:\Users\CYMR90~1\AppData\Local\Temp\ccBEkVPc.s:21957  .debug_str:00000000000032ae .LASF2109
C:\Users\CYMR90~1\AppData\Local\Temp\ccBEkVPc.s:24407  .debug_str:000000000000d1a7 .LASF2110
C:\Users\CYMR90~1\AppData\Local\Temp\ccBEkVPc.s:26934  .debug_str:000000000001732b .LASF2111
C:\Users\CYMR90~1\AppData\Local\Temp\ccBEkVPc.s:29024  .debug_str:000000000001f8e2 .LASF2112
C:\Users\CYMR90~1\AppData\Local\Temp\ccBEkVPc.s:31572  .debug_str:0000000000029b26 .LASF2113
C:\Users\CYMR90~1\AppData\Local\Temp\ccBEkVPc.s:30968  .debug_str:00000000000273ac .LASF2114
C:\Users\CYMR90~1\AppData\Local\Temp\ccBEkVPc.s:26025  .debug_str:0000000000013843 .LASF2115
C:\Users\CYMR90~1\AppData\Local\Temp\ccBEkVPc.s:27904  .debug_str:000000000001b257 .LASF2116
C:\Users\CYMR90~1\AppData\Local\Temp\ccBEkVPc.s:26215  .debug_str:00000000000143b4 .LASF2117
C:\Users\CYMR90~1\AppData\Local\Temp\ccBEkVPc.s:30262  .debug_str:00000000000244cb .LASF2118
C:\Users\CYMR90~1\AppData\Local\Temp\ccBEkVPc.s:28964  .debug_str:000000000001f56c .LASF2119
C:\Users\CYMR90~1\AppData\Local\Temp\ccBEkVPc.s:21795  .debug_str:000000000000287a .LASF2120
C:\Users\CYMR90~1\AppData\Local\Temp\ccBEkVPc.s:29396  .debug_str:0000000000020fd4 .LASF2121
C:\Users\CYMR90~1\AppData\Local\Temp\ccBEkVPc.s:23211  .debug_str:000000000000853e .LASF2122
C:\Users\CYMR90~1\AppData\Local\Temp\ccBEkVPc.s:26071  .debug_str:0000000000013b33 .LASF2123
C:\Users\CYMR90~1\AppData\Local\Temp\ccBEkVPc.s:28706  .debug_str:000000000001e5d4 .LASF2124
C:\Users\CYMR90~1\AppData\Local\Temp\ccBEkVPc.s:25925  .debug_str:0000000000013184 .LASF2125
C:\Users\CYMR90~1\AppData\Local\Temp\ccBEkVPc.s:27054  .debug_str:0000000000017ad4 .LASF2126
C:\Users\CYMR90~1\AppData\Local\Temp\ccBEkVPc.s:30948  .debug_str:00000000000271c5 .LASF2127
C:\Users\CYMR90~1\AppData\Local\Temp\ccBEkVPc.s:29504  .debug_str:00000000000216b4 .LASF2128
C:\Users\CYMR90~1\AppData\Local\Temp\ccBEkVPc.s:25387  .debug_str:0000000000010e75 .LASF2129
C:\Users\CYMR90~1\AppData\Local\Temp\ccBEkVPc.s:29412  .debug_str:00000000000210ae .LASF2130
C:\Users\CYMR90~1\AppData\Local\Temp\ccBEkVPc.s:27272  .debug_str:000000000001877c .LASF2131
C:\Users\CYMR90~1\AppData\Local\Temp\ccBEkVPc.s:29234  .debug_str:00000000000205be .LASF2132
C:\Users\CYMR90~1\AppData\Local\Temp\ccBEkVPc.s:25573  .debug_str:0000000000011a8e .LASF2133
C:\Users\CYMR90~1\AppData\Local\Temp\ccBEkVPc.s:21929  .debug_str:00000000000030e8 .LASF2134
C:\Users\CYMR90~1\AppData\Local\Temp\ccBEkVPc.s:21683  .debug_str:00000000000021a0 .LASF2135
C:\Users\CYMR90~1\AppData\Local\Temp\ccBEkVPc.s:27434  .debug_str:00000000000192cd .LASF2136
C:\Users\CYMR90~1\AppData\Local\Temp\ccBEkVPc.s:31676  .debug_str:000000000002a133 .LASF2137
C:\Users\CYMR90~1\AppData\Local\Temp\ccBEkVPc.s:23213  .debug_str:0000000000008563 .LASF2138
C:\Users\CYMR90~1\AppData\Local\Temp\ccBEkVPc.s:29596  .debug_str:0000000000021c2e .LASF2139
C:\Users\CYMR90~1\AppData\Local\Temp\ccBEkVPc.s:25489  .debug_str:0000000000011423 .LASF2140
C:\Users\CYMR90~1\AppData\Local\Temp\ccBEkVPc.s:24967  .debug_str:000000000000f442 .LASF2141
C:\Users\CYMR90~1\AppData\Local\Temp\ccBEkVPc.s:28980  .debug_str:000000000001f667 .LASF2142
C:\Users\CYMR90~1\AppData\Local\Temp\ccBEkVPc.s:29526  .debug_str:00000000000217e6 .LASF2143
C:\Users\CYMR90~1\AppData\Local\Temp\ccBEkVPc.s:25767  .debug_str:000000000001270c .LASF2144
C:\Users\CYMR90~1\AppData\Local\Temp\ccBEkVPc.s:21959  .debug_str:00000000000032d5 .LASF2145
C:\Users\CYMR90~1\AppData\Local\Temp\ccBEkVPc.s:21157  .debug_str:0000000000000173 .LASF2146
C:\Users\CYMR90~1\AppData\Local\Temp\ccBEkVPc.s:21565  .debug_str:0000000000001aee .LASF2147
C:\Users\CYMR90~1\AppData\Local\Temp\ccBEkVPc.s:26994  .debug_str:00000000000176d4 .LASF2148
C:\Users\CYMR90~1\AppData\Local\Temp\ccBEkVPc.s:31372  .debug_str:0000000000028e71 .LASF2149
C:\Users\CYMR90~1\AppData\Local\Temp\ccBEkVPc.s:30970  .debug_str:00000000000273d3 .LASF2150
C:\Users\CYMR90~1\AppData\Local\Temp\ccBEkVPc.s:26027  .debug_str:000000000001386a .LASF2151
C:\Users\CYMR90~1\AppData\Local\Temp\ccBEkVPc.s:24579  .debug_str:000000000000dc65 .LASF2152
C:\Users\CYMR90~1\AppData\Local\Temp\ccBEkVPc.s:22575  .debug_str:0000000000005b62 .LASF2153
C:\Users\CYMR90~1\AppData\Local\Temp\ccBEkVPc.s:26773  .debug_str:00000000000166fa .LASF2154
C:\Users\CYMR90~1\AppData\Local\Temp\ccBEkVPc.s:21489  .debug_str:00000000000015d9 .LASF2155
C:\Users\CYMR90~1\AppData\Local\Temp\ccBEkVPc.s:22035  .debug_str:0000000000003838 .LASF2156
C:\Users\CYMR90~1\AppData\Local\Temp\ccBEkVPc.s:30936  .debug_str:00000000000270dd .LASF2157
C:\Users\CYMR90~1\AppData\Local\Temp\ccBEkVPc.s:25425  .debug_str:0000000000011096 .LASF2158
C:\Users\CYMR90~1\AppData\Local\Temp\ccBEkVPc.s:27334  .debug_str:0000000000018bb4 .LASF2159
C:\Users\CYMR90~1\AppData\Local\Temp\ccBEkVPc.s:30742  .debug_str:00000000000264e8 .LASF2160
C:\Users\CYMR90~1\AppData\Local\Temp\ccBEkVPc.s:23391  .debug_str:0000000000009062 .LASF2161
C:\Users\CYMR90~1\AppData\Local\Temp\ccBEkVPc.s:31656  .debug_str:000000000002a007 .LASF2162
C:\Users\CYMR90~1\AppData\Local\Temp\ccBEkVPc.s:32358  .debug_str:000000000002ccf0 .LASF2163
C:\Users\CYMR90~1\AppData\Local\Temp\ccBEkVPc.s:22069  .debug_str:0000000000003a6f .LASF2164
C:\Users\CYMR90~1\AppData\Local\Temp\ccBEkVPc.s:30022  .debug_str:0000000000023505 .LASF2165
C:\Users\CYMR90~1\AppData\Local\Temp\ccBEkVPc.s:27416  .debug_str:00000000000191d8 .LASF2166
C:\Users\CYMR90~1\AppData\Local\Temp\ccBEkVPc.s:24961  .debug_str:000000000000f3eb .LASF2167
C:\Users\CYMR90~1\AppData\Local\Temp\ccBEkVPc.s:23245  .debug_str:000000000000874b .LASF2168
C:\Users\CYMR90~1\AppData\Local\Temp\ccBEkVPc.s:28526  .debug_str:000000000001da8a .LASF2169
C:\Users\CYMR90~1\AppData\Local\Temp\ccBEkVPc.s:26719  .debug_str:0000000000016387 .LASF2170
C:\Users\CYMR90~1\AppData\Local\Temp\ccBEkVPc.s:24737  .debug_str:000000000000e614 .LASF2171
C:\Users\CYMR90~1\AppData\Local\Temp\ccBEkVPc.s:24875  .debug_str:000000000000eea8 .LASF2172
C:\Users\CYMR90~1\AppData\Local\Temp\ccBEkVPc.s:28986  .debug_str:000000000001f6c0 .LASF2173
C:\Users\CYMR90~1\AppData\Local\Temp\ccBEkVPc.s:26657  .debug_str:0000000000015f88 .LASF2174
C:\Users\CYMR90~1\AppData\Local\Temp\ccBEkVPc.s:25633  .debug_str:0000000000011e48 .LASF2175
C:\Users\CYMR90~1\AppData\Local\Temp\ccBEkVPc.s:28776  .debug_str:000000000001ea38 .LASF2176
C:\Users\CYMR90~1\AppData\Local\Temp\ccBEkVPc.s:23973  .debug_str:000000000000b4a8 .LASF2177
C:\Users\CYMR90~1\AppData\Local\Temp\ccBEkVPc.s:29668  .debug_str:00000000000220a0 .LASF2178
C:\Users\CYMR90~1\AppData\Local\Temp\ccBEkVPc.s:25455  .debug_str:0000000000011248 .LASF2179
C:\Users\CYMR90~1\AppData\Local\Temp\ccBEkVPc.s:23085  .debug_str:0000000000007bca .LASF2180
C:\Users\CYMR90~1\AppData\Local\Temp\ccBEkVPc.s:30658  .debug_str:0000000000025fda .LASF2181
C:\Users\CYMR90~1\AppData\Local\Temp\ccBEkVPc.s:24769  .debug_str:000000000000e854 .LASF2182
C:\Users\CYMR90~1\AppData\Local\Temp\ccBEkVPc.s:26691  .debug_str:00000000000161e5 .LASF2183
C:\Users\CYMR90~1\AppData\Local\Temp\ccBEkVPc.s:22187  .debug_str:0000000000004250 .LASF2184
C:\Users\CYMR90~1\AppData\Local\Temp\ccBEkVPc.s:25049  .debug_str:000000000000f9a1 .LASF2185
C:\Users\CYMR90~1\AppData\Local\Temp\ccBEkVPc.s:31918  .debug_str:000000000002afb4 .LASF2186
C:\Users\CYMR90~1\AppData\Local\Temp\ccBEkVPc.s:28786  .debug_str:000000000001ead8 .LASF2187
C:\Users\CYMR90~1\AppData\Local\Temp\ccBEkVPc.s:23589  .debug_str:0000000000009d05 .LASF2188
C:\Users\CYMR90~1\AppData\Local\Temp\ccBEkVPc.s:27750  .debug_str:000000000001a898 .LASF2189
C:\Users\CYMR90~1\AppData\Local\Temp\ccBEkVPc.s:22125  .debug_str:0000000000003d9e .LASF2190
C:\Users\CYMR90~1\AppData\Local\Temp\ccBEkVPc.s:23689  .debug_str:000000000000a2f2 .LASF2191
C:\Users\CYMR90~1\AppData\Local\Temp\ccBEkVPc.s:28866  .debug_str:000000000001ef35 .LASF2192
C:\Users\CYMR90~1\AppData\Local\Temp\ccBEkVPc.s:22051  .debug_str:0000000000003933 .LASF2193
C:\Users\CYMR90~1\AppData\Local\Temp\ccBEkVPc.s:25513  .debug_str:00000000000115ac .LASF2194
C:\Users\CYMR90~1\AppData\Local\Temp\ccBEkVPc.s:30216  .debug_str:0000000000024161 .LASF2195
C:\Users\CYMR90~1\AppData\Local\Temp\ccBEkVPc.s:23033  .debug_str:0000000000007847 .LASF2196
C:\Users\CYMR90~1\AppData\Local\Temp\ccBEkVPc.s:26379  .debug_str:0000000000014e36 .LASF2197
C:\Users\CYMR90~1\AppData\Local\Temp\ccBEkVPc.s:23311  .debug_str:0000000000008b39 .LASF2198
C:\Users\CYMR90~1\AppData\Local\Temp\ccBEkVPc.s:29228  .debug_str:0000000000020575 .LASF2199
C:\Users\CYMR90~1\AppData\Local\Temp\ccBEkVPc.s:23835  .debug_str:000000000000abd2 .LASF2200
C:\Users\CYMR90~1\AppData\Local\Temp\ccBEkVPc.s:29732  .debug_str:0000000000022478 .LASF2201
C:\Users\CYMR90~1\AppData\Local\Temp\ccBEkVPc.s:29066  .debug_str:000000000001fb7c .LASF2202
C:\Users\CYMR90~1\AppData\Local\Temp\ccBEkVPc.s:30230  .debug_str:0000000000024286 .LASF2203
C:\Users\CYMR90~1\AppData\Local\Temp\ccBEkVPc.s:30810  .debug_str:000000000002693a .LASF2204
C:\Users\CYMR90~1\AppData\Local\Temp\ccBEkVPc.s:30642  .debug_str:0000000000025eaa .LASF2205
C:\Users\CYMR90~1\AppData\Local\Temp\ccBEkVPc.s:30278  .debug_str:00000000000245a1 .LASF2206
C:\Users\CYMR90~1\AppData\Local\Temp\ccBEkVPc.s:29362  .debug_str:0000000000020deb .LASF2207
C:\Users\CYMR90~1\AppData\Local\Temp\ccBEkVPc.s:25231  .debug_str:00000000000104de .LASF2208
C:\Users\CYMR90~1\AppData\Local\Temp\ccBEkVPc.s:27380  .debug_str:0000000000018efc .LASF2209
C:\Users\CYMR90~1\AppData\Local\Temp\ccBEkVPc.s:29208  .debug_str:00000000000203fa .LASF2210
C:\Users\CYMR90~1\AppData\Local\Temp\ccBEkVPc.s:24101  .debug_str:000000000000bdbd .LASF2211
C:\Users\CYMR90~1\AppData\Local\Temp\ccBEkVPc.s:22805  .debug_str:0000000000006956 .LASF2212
C:\Users\CYMR90~1\AppData\Local\Temp\ccBEkVPc.s:32098  .debug_str:000000000002bbb0 .LASF2213
C:\Users\CYMR90~1\AppData\Local\Temp\ccBEkVPc.s:32182  .debug_str:000000000002c181 .LASF2214
C:\Users\CYMR90~1\AppData\Local\Temp\ccBEkVPc.s:26119  .debug_str:0000000000013df6 .LASF2215
C:\Users\CYMR90~1\AppData\Local\Temp\ccBEkVPc.s:23791  .debug_str:000000000000a916 .LASF2216
C:\Users\CYMR90~1\AppData\Local\Temp\ccBEkVPc.s:28002  .debug_str:000000000001b866 .LASF2217
C:\Users\CYMR90~1\AppData\Local\Temp\ccBEkVPc.s:27306  .debug_str:00000000000189fe .LASF2218
C:\Users\CYMR90~1\AppData\Local\Temp\ccBEkVPc.s:31950  .debug_str:000000000002b187 .LASF2219
C:\Users\CYMR90~1\AppData\Local\Temp\ccBEkVPc.s:28550  .debug_str:000000000001dbe0 .LASF2220
C:\Users\CYMR90~1\AppData\Local\Temp\ccBEkVPc.s:29180  .debug_str:0000000000020270 .LASF2221
C:\Users\CYMR90~1\AppData\Local\Temp\ccBEkVPc.s:25803  .debug_str:0000000000012967 .LASF2222
C:\Users\CYMR90~1\AppData\Local\Temp\ccBEkVPc.s:28046  .debug_str:000000000001bac3 .LASF2223
C:\Users\CYMR90~1\AppData\Local\Temp\ccBEkVPc.s:30634  .debug_str:0000000000025e3c .LASF2224
C:\Users\CYMR90~1\AppData\Local\Temp\ccBEkVPc.s:21179  .debug_str:00000000000002d8 .LASF2225
C:\Users\CYMR90~1\AppData\Local\Temp\ccBEkVPc.s:22263  .debug_str:0000000000004785 .LASF2226
C:\Users\CYMR90~1\AppData\Local\Temp\ccBEkVPc.s:27580  .debug_str:0000000000019c5a .LASF2227
C:\Users\CYMR90~1\AppData\Local\Temp\ccBEkVPc.s:26862  .debug_str:0000000000016ef5 .LASF2228
C:\Users\CYMR90~1\AppData\Local\Temp\ccBEkVPc.s:28602  .debug_str:000000000001df7c .LASF2229
C:\Users\CYMR90~1\AppData\Local\Temp\ccBEkVPc.s:22231  .debug_str:0000000000004548 .LASF2230
C:\Users\CYMR90~1\AppData\Local\Temp\ccBEkVPc.s:28838  .debug_str:000000000001ed9f .LASF2231
C:\Users\CYMR90~1\AppData\Local\Temp\ccBEkVPc.s:21547  .debug_str:00000000000019f0 .LASF2232
C:\Users\CYMR90~1\AppData\Local\Temp\ccBEkVPc.s:27568  .debug_str:0000000000019ba3 .LASF2233
C:\Users\CYMR90~1\AppData\Local\Temp\ccBEkVPc.s:24269  .debug_str:000000000000c869 .LASF2234
C:\Users\CYMR90~1\AppData\Local\Temp\ccBEkVPc.s:22461  .debug_str:000000000000545f .LASF2235
C:\Users\CYMR90~1\AppData\Local\Temp\ccBEkVPc.s:32130  .debug_str:000000000002bdcf .LASF2236
C:\Users\CYMR90~1\AppData\Local\Temp\ccBEkVPc.s:24741  .debug_str:000000000000e64f .LASF2237
C:\Users\CYMR90~1\AppData\Local\Temp\ccBEkVPc.s:29482  .debug_str:000000000002155e .LASF2238
C:\Users\CYMR90~1\AppData\Local\Temp\ccBEkVPc.s:28506  .debug_str:000000000001d93f .LASF2239
C:\Users\CYMR90~1\AppData\Local\Temp\ccBEkVPc.s:28438  .debug_str:000000000001d4c5 .LASF2240
C:\Users\CYMR90~1\AppData\Local\Temp\ccBEkVPc.s:21607  .debug_str:0000000000001d72 .LASF2241
C:\Users\CYMR90~1\AppData\Local\Temp\ccBEkVPc.s:29498  .debug_str:0000000000021660 .LASF2242
C:\Users\CYMR90~1\AppData\Local\Temp\ccBEkVPc.s:31012  .debug_str:000000000002763e .LASF2243
C:\Users\CYMR90~1\AppData\Local\Temp\ccBEkVPc.s:25655  .debug_str:0000000000011f76 .LASF2244
C:\Users\CYMR90~1\AppData\Local\Temp\ccBEkVPc.s:26870  .debug_str:0000000000016f7a .LASF2245
C:\Users\CYMR90~1\AppData\Local\Temp\ccBEkVPc.s:23781  .debug_str:000000000000a833 .LASF2246
C:\Users\CYMR90~1\AppData\Local\Temp\ccBEkVPc.s:26445  .debug_str:0000000000015278 .LASF2247
C:\Users\CYMR90~1\AppData\Local\Temp\ccBEkVPc.s:21961  .debug_str:00000000000032fc .LASF2248
C:\Users\CYMR90~1\AppData\Local\Temp\ccBEkVPc.s:28860  .debug_str:000000000001eedb .LASF2249
C:\Users\CYMR90~1\AppData\Local\Temp\ccBEkVPc.s:27980  .debug_str:000000000001b6f1 .LASF2250
C:\Users\CYMR90~1\AppData\Local\Temp\ccBEkVPc.s:27028  .debug_str:00000000000178f3 .LASF2251
C:\Users\CYMR90~1\AppData\Local\Temp\ccBEkVPc.s:30236  .debug_str:00000000000242ef .LASF2252
C:\Users\CYMR90~1\AppData\Local\Temp\ccBEkVPc.s:25809  .debug_str:00000000000129c4 .LASF2253
C:\Users\CYMR90~1\AppData\Local\Temp\ccBEkVPc.s:24543  .debug_str:000000000000da74 .LASF2254
C:\Users\CYMR90~1\AppData\Local\Temp\ccBEkVPc.s:23295  .debug_str:0000000000008a49 .LASF2255
C:\Users\CYMR90~1\AppData\Local\Temp\ccBEkVPc.s:25209  .debug_str:000000000001039d .LASF2256
C:\Users\CYMR90~1\AppData\Local\Temp\ccBEkVPc.s:28252  .debug_str:000000000001c77d .LASF2257
C:\Users\CYMR90~1\AppData\Local\Temp\ccBEkVPc.s:25505  .debug_str:0000000000011537 .LASF2258
C:\Users\CYMR90~1\AppData\Local\Temp\ccBEkVPc.s:25733  .debug_str:0000000000012472 .LASF2259
C:\Users\CYMR90~1\AppData\Local\Temp\ccBEkVPc.s:25407  .debug_str:0000000000010f78 .LASF2260
C:\Users\CYMR90~1\AppData\Local\Temp\ccBEkVPc.s:26497  .debug_str:0000000000015552 .LASF2261
C:\Users\CYMR90~1\AppData\Local\Temp\ccBEkVPc.s:21665  .debug_str:000000000000209e .LASF2262
C:\Users\CYMR90~1\AppData\Local\Temp\ccBEkVPc.s:24789  .debug_str:000000000000e97a .LASF2263
C:\Users\CYMR90~1\AppData\Local\Temp\ccBEkVPc.s:28626  .debug_str:000000000001e108 .LASF2264
C:\Users\CYMR90~1\AppData\Local\Temp\ccBEkVPc.s:27666  .debug_str:000000000001a157 .LASF2265
C:\Users\CYMR90~1\AppData\Local\Temp\ccBEkVPc.s:24631  .debug_str:000000000000dfb4 .LASF2266
C:\Users\CYMR90~1\AppData\Local\Temp\ccBEkVPc.s:23987  .debug_str:000000000000b619 .LASF2267
C:\Users\CYMR90~1\AppData\Local\Temp\ccBEkVPc.s:27036  .debug_str:00000000000179ad .LASF2268
C:\Users\CYMR90~1\AppData\Local\Temp\ccBEkVPc.s:23385  .debug_str:0000000000009000 .LASF2269
C:\Users\CYMR90~1\AppData\Local\Temp\ccBEkVPc.s:22285  .debug_str:000000000000496a .LASF2270
C:\Users\CYMR90~1\AppData\Local\Temp\ccBEkVPc.s:28134  .debug_str:000000000001c075 .LASF2271
C:\Users\CYMR90~1\AppData\Local\Temp\ccBEkVPc.s:28528  .debug_str:000000000001daa2 .LASF2272
C:\Users\CYMR90~1\AppData\Local\Temp\ccBEkVPc.s:26335  .debug_str:0000000000014b53 .LASF2273
C:\Users\CYMR90~1\AppData\Local\Temp\ccBEkVPc.s:31222  .debug_str:00000000000284ac .LASF2274
C:\Users\CYMR90~1\AppData\Local\Temp\ccBEkVPc.s:27878  .debug_str:000000000001b095 .LASF2275
C:\Users\CYMR90~1\AppData\Local\Temp\ccBEkVPc.s:24549  .debug_str:000000000000dadf .LASF2276
C:\Users\CYMR90~1\AppData\Local\Temp\ccBEkVPc.s:22063  .debug_str:0000000000003a09 .LASF2277
C:\Users\CYMR90~1\AppData\Local\Temp\ccBEkVPc.s:21345  .debug_str:0000000000000d1c .LASF2278
C:\Users\CYMR90~1\AppData\Local\Temp\ccBEkVPc.s:31076  .debug_str:0000000000027a10 .LASF2279
C:\Users\CYMR90~1\AppData\Local\Temp\ccBEkVPc.s:29486  .debug_str:000000000002159c .LASF2280
C:\Users\CYMR90~1\AppData\Local\Temp\ccBEkVPc.s:22465  .debug_str:00000000000054a4 .LASF2281
C:\Users\CYMR90~1\AppData\Local\Temp\ccBEkVPc.s:27602  .debug_str:0000000000019dd4 .LASF2282
C:\Users\CYMR90~1\AppData\Local\Temp\ccBEkVPc.s:26922  .debug_str:0000000000017291 .LASF2283
C:\Users\CYMR90~1\AppData\Local\Temp\ccBEkVPc.s:28308  .debug_str:000000000001cb85 .LASF2284
C:\Users\CYMR90~1\AppData\Local\Temp\ccBEkVPc.s:27832  .debug_str:000000000001ad76 .LASF2285
C:\Users\CYMR90~1\AppData\Local\Temp\ccBEkVPc.s:30994  .debug_str:000000000002754a .LASF2286
C:\Users\CYMR90~1\AppData\Local\Temp\ccBEkVPc.s:25413  .debug_str:0000000000010fd2 .LASF2287
C:\Users\CYMR90~1\AppData\Local\Temp\ccBEkVPc.s:29632  .debug_str:0000000000021e8e .LASF2288
C:\Users\CYMR90~1\AppData\Local\Temp\ccBEkVPc.s:31538  .debug_str:000000000002991f .LASF2289
C:\Users\CYMR90~1\AppData\Local\Temp\ccBEkVPc.s:31334  .debug_str:0000000000028c25 .LASF2290
C:\Users\CYMR90~1\AppData\Local\Temp\ccBEkVPc.s:32000  .debug_str:000000000002b51d .LASF2291
C:\Users\CYMR90~1\AppData\Local\Temp\ccBEkVPc.s:28726  .debug_str:000000000001e71e .LASF2292
C:\Users\CYMR90~1\AppData\Local\Temp\ccBEkVPc.s:22369  .debug_str:0000000000004ea6 .LASF2293
C:\Users\CYMR90~1\AppData\Local\Temp\ccBEkVPc.s:31396  .debug_str:0000000000028fd5 .LASF2294
C:\Users\CYMR90~1\AppData\Local\Temp\ccBEkVPc.s:31966  .debug_str:000000000002b2bd .LASF2295
C:\Users\CYMR90~1\AppData\Local\Temp\ccBEkVPc.s:24087  .debug_str:000000000000bc89 .LASF2296
C:\Users\CYMR90~1\AppData\Local\Temp\ccBEkVPc.s:24583  .debug_str:000000000000dc9b .LASF2297
C:\Users\CYMR90~1\AppData\Local\Temp\ccBEkVPc.s:23965  .debug_str:000000000000b423 .LASF2298
C:\Users\CYMR90~1\AppData\Local\Temp\ccBEkVPc.s:26131  .debug_str:0000000000013e9b .LASF2299
C:\Users\CYMR90~1\AppData\Local\Temp\ccBEkVPc.s:31238  .debug_str:00000000000285bd .LASF2300
C:\Users\CYMR90~1\AppData\Local\Temp\ccBEkVPc.s:24935  .debug_str:000000000000f23e .LASF2301
C:\Users\CYMR90~1\AppData\Local\Temp\ccBEkVPc.s:28082  .debug_str:000000000001bd16 .LASF2302
C:\Users\CYMR90~1\AppData\Local\Temp\ccBEkVPc.s:30366  .debug_str:0000000000024b73 .LASF2303
C:\Users\CYMR90~1\AppData\Local\Temp\ccBEkVPc.s:24541  .debug_str:000000000000da4d .LASF2304
C:\Users\CYMR90~1\AppData\Local\Temp\ccBEkVPc.s:29530  .debug_str:0000000000021821 .LASF2305
C:\Users\CYMR90~1\AppData\Local\Temp\ccBEkVPc.s:21423  .debug_str:00000000000011f5 .LASF2306
C:\Users\CYMR90~1\AppData\Local\Temp\ccBEkVPc.s:27774  .debug_str:000000000001a9f2 .LASF2307
C:\Users\CYMR90~1\AppData\Local\Temp\ccBEkVPc.s:28272  .debug_str:000000000001c952 .LASF2308
C:\Users\CYMR90~1\AppData\Local\Temp\ccBEkVPc.s:21909  .debug_str:0000000000002fb2 .LASF2309
C:\Users\CYMR90~1\AppData\Local\Temp\ccBEkVPc.s:30656  .debug_str:0000000000025fb1 .LASF2310
C:\Users\CYMR90~1\AppData\Local\Temp\ccBEkVPc.s:31474  .debug_str:0000000000029534 .LASF2311
C:\Users\CYMR90~1\AppData\Local\Temp\ccBEkVPc.s:29304  .debug_str:0000000000020a2b .LASF2312
C:\Users\CYMR90~1\AppData\Local\Temp\ccBEkVPc.s:31188  .debug_str:00000000000281f6 .LASF2313
C:\Users\CYMR90~1\AppData\Local\Temp\ccBEkVPc.s:22993  .debug_str:00000000000075af .LASF2314
C:\Users\CYMR90~1\AppData\Local\Temp\ccBEkVPc.s:29312  .debug_str:0000000000020acb .LASF2315
C:\Users\CYMR90~1\AppData\Local\Temp\ccBEkVPc.s:23053  .debug_str:0000000000007984 .LASF2316
C:\Users\CYMR90~1\AppData\Local\Temp\ccBEkVPc.s:28100  .debug_str:000000000001be31 .LASF2317
C:\Users\CYMR90~1\AppData\Local\Temp\ccBEkVPc.s:31232  .debug_str:0000000000028560 .LASF2318
C:\Users\CYMR90~1\AppData\Local\Temp\ccBEkVPc.s:24825  .debug_str:000000000000ebca .LASF2319
C:\Users\CYMR90~1\AppData\Local\Temp\ccBEkVPc.s:22297  .debug_str:0000000000004a26 .LASF2320
C:\Users\CYMR90~1\AppData\Local\Temp\ccBEkVPc.s:21831  .debug_str:0000000000002ad3 .LASF2321
C:\Users\CYMR90~1\AppData\Local\Temp\ccBEkVPc.s:32438  .debug_str:000000000002d24d .LASF2322
C:\Users\CYMR90~1\AppData\Local\Temp\ccBEkVPc.s:22663  .debug_str:00000000000060a9 .LASF2323
C:\Users\CYMR90~1\AppData\Local\Temp\ccBEkVPc.s:26295  .debug_str:00000000000148f6 .LASF2324
C:\Users\CYMR90~1\AppData\Local\Temp\ccBEkVPc.s:32028  .debug_str:000000000002b6ce .LASF2325
C:\Users\CYMR90~1\AppData\Local\Temp\ccBEkVPc.s:23759  .debug_str:000000000000a717 .LASF2326
C:\Users\CYMR90~1\AppData\Local\Temp\ccBEkVPc.s:27266  .debug_str:000000000001871e .LASF2327
C:\Users\CYMR90~1\AppData\Local\Temp\ccBEkVPc.s:21699  .debug_str:0000000000002289 .LASF2328
C:\Users\CYMR90~1\AppData\Local\Temp\ccBEkVPc.s:26205  .debug_str:0000000000014326 .LASF2329
C:\Users\CYMR90~1\AppData\Local\Temp\ccBEkVPc.s:23047  .debug_str:0000000000007937 .LASF2330
C:\Users\CYMR90~1\AppData\Local\Temp\ccBEkVPc.s:24201  .debug_str:000000000000c3f8 .LASF2331
C:\Users\CYMR90~1\AppData\Local\Temp\ccBEkVPc.s:25253  .debug_str:000000000001063c .LASF2332
C:\Users\CYMR90~1\AppData\Local\Temp\ccBEkVPc.s:29442  .debug_str:0000000000021275 .LASF2333
C:\Users\CYMR90~1\AppData\Local\Temp\ccBEkVPc.s:30832  .debug_str:0000000000026aa8 .LASF2334
C:\Users\CYMR90~1\AppData\Local\Temp\ccBEkVPc.s:25265  .debug_str:00000000000106f6 .LASF2335
C:\Users\CYMR90~1\AppData\Local\Temp\ccBEkVPc.s:25667  .debug_str:0000000000012065 .LASF2336
C:\Users\CYMR90~1\AppData\Local\Temp\ccBEkVPc.s:24717  .debug_str:000000000000e4e1 .LASF2337
C:\Users\CYMR90~1\AppData\Local\Temp\ccBEkVPc.s:22677  .debug_str:00000000000061a4 .LASF2338
C:\Users\CYMR90~1\AppData\Local\Temp\ccBEkVPc.s:21743  .debug_str:00000000000024f3 .LASF2339
C:\Users\CYMR90~1\AppData\Local\Temp\ccBEkVPc.s:28494  .debug_str:000000000001d876 .LASF2340
C:\Users\CYMR90~1\AppData\Local\Temp\ccBEkVPc.s:30716  .debug_str:0000000000026340 .LASF2341
C:\Users\CYMR90~1\AppData\Local\Temp\ccBEkVPc.s:29094  .debug_str:000000000001fd5b .LASF2342
C:\Users\CYMR90~1\AppData\Local\Temp\ccBEkVPc.s:29110  .debug_str:000000000001fe33 .LASF2343
C:\Users\CYMR90~1\AppData\Local\Temp\ccBEkVPc.s:30136  .debug_str:0000000000023c0f .LASF2344
C:\Users\CYMR90~1\AppData\Local\Temp\ccBEkVPc.s:30938  .debug_str:00000000000270f3 .LASF2345
C:\Users\CYMR90~1\AppData\Local\Temp\ccBEkVPc.s:28198  .debug_str:000000000001c463 .LASF2346
C:\Users\CYMR90~1\AppData\Local\Temp\ccBEkVPc.s:28364  .debug_str:000000000001cfd2 .LASF2347
C:\Users\CYMR90~1\AppData\Local\Temp\ccBEkVPc.s:23267  .debug_str:00000000000088a1 .LASF2348
C:\Users\CYMR90~1\AppData\Local\Temp\ccBEkVPc.s:26013  .debug_str:00000000000137b5 .LASF2349
C:\Users\CYMR90~1\AppData\Local\Temp\ccBEkVPc.s:29580  .debug_str:0000000000021b15 .LASF2350
C:\Users\CYMR90~1\AppData\Local\Temp\ccBEkVPc.s:31832  .debug_str:000000000002aa7e .LASF2351
C:\Users\CYMR90~1\AppData\Local\Temp\ccBEkVPc.s:30352  .debug_str:0000000000024a84 .LASF2352
C:\Users\CYMR90~1\AppData\Local\Temp\ccBEkVPc.s:22831  .debug_str:0000000000006ae3 .LASF2353
C:\Users\CYMR90~1\AppData\Local\Temp\ccBEkVPc.s:25161  .debug_str:000000000001008f .LASF2354
C:\Users\CYMR90~1\AppData\Local\Temp\ccBEkVPc.s:22775  .debug_str:0000000000006746 .LASF2355
C:\Users\CYMR90~1\AppData\Local\Temp\ccBEkVPc.s:32238  .debug_str:000000000002c572 .LASF2356
C:\Users\CYMR90~1\AppData\Local\Temp\ccBEkVPc.s:31662  .debug_str:000000000002a046 .LASF2357
C:\Users\CYMR90~1\AppData\Local\Temp\ccBEkVPc.s:24457  .debug_str:000000000000d574 .LASF2358
C:\Users\CYMR90~1\AppData\Local\Temp\ccBEkVPc.s:23499  .debug_str:00000000000096fe .LASF2359
C:\Users\CYMR90~1\AppData\Local\Temp\ccBEkVPc.s:22057  .debug_str:00000000000039bc .LASF2360
C:\Users\CYMR90~1\AppData\Local\Temp\ccBEkVPc.s:25173  .debug_str:000000000001015d .LASF2361
C:\Users\CYMR90~1\AppData\Local\Temp\ccBEkVPc.s:23943  .debug_str:000000000000b324 .LASF2362
C:\Users\CYMR90~1\AppData\Local\Temp\ccBEkVPc.s:22707  .debug_str:0000000000006342 .LASF2363
C:\Users\CYMR90~1\AppData\Local\Temp\ccBEkVPc.s:30142  .debug_str:0000000000023c5f .LASF2364
C:\Users\CYMR90~1\AppData\Local\Temp\ccBEkVPc.s:29320  .debug_str:0000000000020b46 .LASF2365
C:\Users\CYMR90~1\AppData\Local\Temp\ccBEkVPc.s:25727  .debug_str:0000000000012411 .LASF2366
C:\Users\CYMR90~1\AppData\Local\Temp\ccBEkVPc.s:30388  .debug_str:0000000000024cf7 .LASF2367
C:\Users\CYMR90~1\AppData\Local\Temp\ccBEkVPc.s:31008  .debug_str:0000000000027611 .LASF2368
C:\Users\CYMR90~1\AppData\Local\Temp\ccBEkVPc.s:23485  .debug_str:00000000000095db .LASF2369
C:\Users\CYMR90~1\AppData\Local\Temp\ccBEkVPc.s:24819  .debug_str:000000000000eb73 .LASF2370
C:\Users\CYMR90~1\AppData\Local\Temp\ccBEkVPc.s:22841  .debug_str:0000000000006ba0 .LASF2371
C:\Users\CYMR90~1\AppData\Local\Temp\ccBEkVPc.s:25227  .debug_str:00000000000104a5 .LASF2372
C:\Users\CYMR90~1\AppData\Local\Temp\ccBEkVPc.s:32110  .debug_str:000000000002bc74 .LASF2373
C:\Users\CYMR90~1\AppData\Local\Temp\ccBEkVPc.s:30786  .debug_str:00000000000267d6 .LASF2374
C:\Users\CYMR90~1\AppData\Local\Temp\ccBEkVPc.s:21283  .debug_str:000000000000091c .LASF2375
C:\Users\CYMR90~1\AppData\Local\Temp\ccBEkVPc.s:25627  .debug_str:0000000000011dd1 .LASF2376
C:\Users\CYMR90~1\AppData\Local\Temp\ccBEkVPc.s:28806  .debug_str:000000000001ebf4 .LASF2377
C:\Users\CYMR90~1\AppData\Local\Temp\ccBEkVPc.s:32060  .debug_str:000000000002b949 .LASF2378
C:\Users\CYMR90~1\AppData\Local\Temp\ccBEkVPc.s:23945  .debug_str:000000000000b349 .LASF2379
C:\Users\CYMR90~1\AppData\Local\Temp\ccBEkVPc.s:22887  .debug_str:0000000000006e9b .LASF2380
C:\Users\CYMR90~1\AppData\Local\Temp\ccBEkVPc.s:30344  .debug_str:0000000000024a01 .LASF2381
C:\Users\CYMR90~1\AppData\Local\Temp\ccBEkVPc.s:30104  .debug_str:0000000000023a5a .LASF2382
C:\Users\CYMR90~1\AppData\Local\Temp\ccBEkVPc.s:25397  .debug_str:0000000000010f1d .LASF2383
C:\Users\CYMR90~1\AppData\Local\Temp\ccBEkVPc.s:26856  .debug_str:0000000000016e97 .LASF2384
C:\Users\CYMR90~1\AppData\Local\Temp\ccBEkVPc.s:31804  .debug_str:000000000002a8f8 .LASF2385
C:\Users\CYMR90~1\AppData\Local\Temp\ccBEkVPc.s:21581  .debug_str:0000000000001bee .LASF2386
C:\Users\CYMR90~1\AppData\Local\Temp\ccBEkVPc.s:26303  .debug_str:000000000001495e .LASF2387
C:\Users\CYMR90~1\AppData\Local\Temp\ccBEkVPc.s:31010  .debug_str:0000000000027623 .LASF2388
C:\Users\CYMR90~1\AppData\Local\Temp\ccBEkVPc.s:27936  .debug_str:000000000001b463 .LASF2389
C:\Users\CYMR90~1\AppData\Local\Temp\ccBEkVPc.s:29102  .debug_str:000000000001fdd3 .LASF2390
C:\Users\CYMR90~1\AppData\Local\Temp\ccBEkVPc.s:22437  .debug_str:00000000000052d7 .LASF2391
C:\Users\CYMR90~1\AppData\Local\Temp\ccBEkVPc.s:27192  .debug_str:00000000000182f7 .LASF2392
C:\Users\CYMR90~1\AppData\Local\Temp\ccBEkVPc.s:31902  .debug_str:000000000002aec4 .LASF2393
C:\Users\CYMR90~1\AppData\Local\Temp\ccBEkVPc.s:28058  .debug_str:000000000001bb82 .LASF2394
C:\Users\CYMR90~1\AppData\Local\Temp\ccBEkVPc.s:31070  .debug_str:00000000000279ab .LASF2395
C:\Users\CYMR90~1\AppData\Local\Temp\ccBEkVPc.s:24469  .debug_str:000000000000d63d .LASF2396
C:\Users\CYMR90~1\AppData\Local\Temp\ccBEkVPc.s:29158  .debug_str:0000000000020121 .LASF2397
C:\Users\CYMR90~1\AppData\Local\Temp\ccBEkVPc.s:25623  .debug_str:0000000000011d87 .LASF2398
C:\Users\CYMR90~1\AppData\Local\Temp\ccBEkVPc.s:27246  .debug_str:0000000000018622 .LASF2399
C:\Users\CYMR90~1\AppData\Local\Temp\ccBEkVPc.s:31962  .debug_str:000000000002b28c .LASF2400
C:\Users\CYMR90~1\AppData\Local\Temp\ccBEkVPc.s:31836  .debug_str:000000000002aab6 .LASF2401
C:\Users\CYMR90~1\AppData\Local\Temp\ccBEkVPc.s:23731  .debug_str:000000000000a584 .LASF2402
C:\Users\CYMR90~1\AppData\Local\Temp\ccBEkVPc.s:26940  .debug_str:000000000001739f .LASF2403
C:\Users\CYMR90~1\AppData\Local\Temp\ccBEkVPc.s:30146  .debug_str:0000000000023c90 .LASF2404
C:\Users\CYMR90~1\AppData\Local\Temp\ccBEkVPc.s:22085  .debug_str:0000000000003b49 .LASF2405
C:\Users\CYMR90~1\AppData\Local\Temp\ccBEkVPc.s:25273  .debug_str:000000000001079a .LASF2406
C:\Users\CYMR90~1\AppData\Local\Temp\ccBEkVPc.s:28466  .debug_str:000000000001d69b .LASF2407
C:\Users\CYMR90~1\AppData\Local\Temp\ccBEkVPc.s:31688  .debug_str:000000000002a1f4 .LASF2408
C:\Users\CYMR90~1\AppData\Local\Temp\ccBEkVPc.s:26059  .debug_str:0000000000013a51 .LASF2409
C:\Users\CYMR90~1\AppData\Local\Temp\ccBEkVPc.s:24447  .debug_str:000000000000d4cd .LASF2410
C:\Users\CYMR90~1\AppData\Local\Temp\ccBEkVPc.s:27822  .debug_str:000000000001acd3 .LASF2411
C:\Users\CYMR90~1\AppData\Local\Temp\ccBEkVPc.s:21175  .debug_str:0000000000000297 .LASF2412
C:\Users\CYMR90~1\AppData\Local\Temp\ccBEkVPc.s:29774  .debug_str:00000000000226a4 .LASF2413
C:\Users\CYMR90~1\AppData\Local\Temp\ccBEkVPc.s:30558  .debug_str:0000000000025972 .LASF2414
C:\Users\CYMR90~1\AppData\Local\Temp\ccBEkVPc.s:23981  .debug_str:000000000000b550 .LASF2415
C:\Users\CYMR90~1\AppData\Local\Temp\ccBEkVPc.s:28646  .debug_str:000000000001e23e .LASF2416
C:\Users\CYMR90~1\AppData\Local\Temp\ccBEkVPc.s:24299  .debug_str:000000000000cb4a .LASF2417
C:\Users\CYMR90~1\AppData\Local\Temp\ccBEkVPc.s:26735  .debug_str:000000000001644d .LASF2418
C:\Users\CYMR90~1\AppData\Local\Temp\ccBEkVPc.s:28862  .debug_str:000000000001ef0a .LASF2419
C:\Users\CYMR90~1\AppData\Local\Temp\ccBEkVPc.s:25931  .debug_str:00000000000131e4 .LASF2420
C:\Users\CYMR90~1\AppData\Local\Temp\ccBEkVPc.s:30610  .debug_str:0000000000025ccc .LASF2421
C:\Users\CYMR90~1\AppData\Local\Temp\ccBEkVPc.s:24023  .debug_str:000000000000b888 .LASF2422
C:\Users\CYMR90~1\AppData\Local\Temp\ccBEkVPc.s:28698  .debug_str:000000000001e56b .LASF2423
C:\Users\CYMR90~1\AppData\Local\Temp\ccBEkVPc.s:22053  .debug_str:0000000000003971 .LASF2424
C:\Users\CYMR90~1\AppData\Local\Temp\ccBEkVPc.s:26795  .debug_str:0000000000016839 .LASF2425
C:\Users\CYMR90~1\AppData\Local\Temp\ccBEkVPc.s:23861  .debug_str:000000000000ad8d .LASF2426
C:\Users\CYMR90~1\AppData\Local\Temp\ccBEkVPc.s:26966  .debug_str:000000000001751e .LASF2427
C:\Users\CYMR90~1\AppData\Local\Temp\ccBEkVPc.s:30184  .debug_str:0000000000023edf .LASF2428
C:\Users\CYMR90~1\AppData\Local\Temp\ccBEkVPc.s:22037  .debug_str:000000000000384e .LASF2429
C:\Users\CYMR90~1\AppData\Local\Temp\ccBEkVPc.s:25307  .debug_str:000000000001098f .LASF2430
C:\Users\CYMR90~1\AppData\Local\Temp\ccBEkVPc.s:25553  .debug_str:00000000000118f1 .LASF2431
C:\Users\CYMR90~1\AppData\Local\Temp\ccBEkVPc.s:31728  .debug_str:000000000002a41e .LASF2432
C:\Users\CYMR90~1\AppData\Local\Temp\ccBEkVPc.s:22239  .debug_str:00000000000045d8 .LASF2433
C:\Users\CYMR90~1\AppData\Local\Temp\ccBEkVPc.s:31998  .debug_str:000000000002b506 .LASF2434
C:\Users\CYMR90~1\AppData\Local\Temp\ccBEkVPc.s:29950  .debug_str:0000000000023114 .LASF2435
C:\Users\CYMR90~1\AppData\Local\Temp\ccBEkVPc.s:31288  .debug_str:000000000002893c .LASF2436
C:\Users\CYMR90~1\AppData\Local\Temp\ccBEkVPc.s:24689  .debug_str:000000000000e335 .LASF2437
C:\Users\CYMR90~1\AppData\Local\Temp\ccBEkVPc.s:29380  .debug_str:0000000000020ef6 .LASF2438
C:\Users\CYMR90~1\AppData\Local\Temp\ccBEkVPc.s:22727  .debug_str:000000000000648a .LASF2439
C:\Users\CYMR90~1\AppData\Local\Temp\ccBEkVPc.s:27488  .debug_str:0000000000019612 .LASF2440
C:\Users\CYMR90~1\AppData\Local\Temp\ccBEkVPc.s:32184  .debug_str:000000000002c1a9 .LASF2441
C:\Users\CYMR90~1\AppData\Local\Temp\ccBEkVPc.s:25563  .debug_str:000000000001196a .LASF2442
C:\Users\CYMR90~1\AppData\Local\Temp\ccBEkVPc.s:30246  .debug_str:00000000000243d2 .LASF2443
C:\Users\CYMR90~1\AppData\Local\Temp\ccBEkVPc.s:24153  .debug_str:000000000000c14b .LASF2444
C:\Users\CYMR90~1\AppData\Local\Temp\ccBEkVPc.s:29436  .debug_str:000000000002120a .LASF2445
C:\Users\CYMR90~1\AppData\Local\Temp\ccBEkVPc.s:22779  .debug_str:000000000000677f .LASF2446
C:\Users\CYMR90~1\AppData\Local\Temp\ccBEkVPc.s:27534  .debug_str:000000000001997b .LASF2447
C:\Users\CYMR90~1\AppData\Local\Temp\ccBEkVPc.s:32234  .debug_str:000000000002c533 .LASF2448
C:\Users\CYMR90~1\AppData\Local\Temp\ccBEkVPc.s:25619  .debug_str:0000000000011d39 .LASF2449
C:\Users\CYMR90~1\AppData\Local\Temp\ccBEkVPc.s:30294  .debug_str:00000000000246b4 .LASF2450
C:\Users\CYMR90~1\AppData\Local\Temp\ccBEkVPc.s:29124  .debug_str:000000000001ff07 .LASF2451
C:\Users\CYMR90~1\AppData\Local\Temp\ccBEkVPc.s:30406  .debug_str:0000000000024e06 .LASF2452
C:\Users\CYMR90~1\AppData\Local\Temp\ccBEkVPc.s:28774  .debug_str:000000000001ea21 .LASF2453
C:\Users\CYMR90~1\AppData\Local\Temp\ccBEkVPc.s:27376  .debug_str:0000000000018ed1 .LASF2454
C:\Users\CYMR90~1\AppData\Local\Temp\ccBEkVPc.s:30560  .debug_str:000000000002598b .LASF2455
C:\Users\CYMR90~1\AppData\Local\Temp\ccBEkVPc.s:23923  .debug_str:000000000000b20c .LASF2456
C:\Users\CYMR90~1\AppData\Local\Temp\ccBEkVPc.s:25699  .debug_str:0000000000012250 .LASF2457
C:\Users\CYMR90~1\AppData\Local\Temp\ccBEkVPc.s:28870  .debug_str:000000000001ef86 .LASF2458
C:\Users\CYMR90~1\AppData\Local\Temp\ccBEkVPc.s:30334  .debug_str:0000000000024977 .LASF2459
C:\Users\CYMR90~1\AppData\Local\Temp\ccBEkVPc.s:23927  .debug_str:000000000000b249 .LASF2460
C:\Users\CYMR90~1\AppData\Local\Temp\ccBEkVPc.s:29988  .debug_str:0000000000023309 .LASF2461
C:\Users\CYMR90~1\AppData\Local\Temp\ccBEkVPc.s:32056  .debug_str:000000000002b8b9 .LASF2462
C:\Users\CYMR90~1\AppData\Local\Temp\ccBEkVPc.s:28350  .debug_str:000000000001cf09 .LASF2463
C:\Users\CYMR90~1\AppData\Local\Temp\ccBEkVPc.s:21705  .debug_str:00000000000022d5 .LASF2464
C:\Users\CYMR90~1\AppData\Local\Temp\ccBEkVPc.s:26425  .debug_str:000000000001513b .LASF2465
C:\Users\CYMR90~1\AppData\Local\Temp\ccBEkVPc.s:31138  .debug_str:0000000000027e77 .LASF2466
C:\Users\CYMR90~1\AppData\Local\Temp\ccBEkVPc.s:24529  .debug_str:000000000000d99c .LASF2467
C:\Users\CYMR90~1\AppData\Local\Temp\ccBEkVPc.s:29224  .debug_str:000000000002052d .LASF2468
C:\Users\CYMR90~1\AppData\Local\Temp\ccBEkVPc.s:27318  .debug_str:0000000000018aa6 .LASF2469
C:\Users\CYMR90~1\AppData\Local\Temp\ccBEkVPc.s:22113  .debug_str:0000000000003d22 .LASF2470
C:\Users\CYMR90~1\AppData\Local\Temp\ccBEkVPc.s:21757  .debug_str:00000000000025fe .LASF2471
C:\Users\CYMR90~1\AppData\Local\Temp\ccBEkVPc.s:25985  .debug_str:00000000000135df .LASF2472
C:\Users\CYMR90~1\AppData\Local\Temp\ccBEkVPc.s:22179  .debug_str:00000000000041ed .LASF2473
C:\Users\CYMR90~1\AppData\Local\Temp\ccBEkVPc.s:24587  .debug_str:000000000000dcec .LASF2474
C:\Users\CYMR90~1\AppData\Local\Temp\ccBEkVPc.s:29280  .debug_str:000000000002089e .LASF2475
C:\Users\CYMR90~1\AppData\Local\Temp\ccBEkVPc.s:31414  .debug_str:00000000000290f7 .LASF2476
C:\Users\CYMR90~1\AppData\Local\Temp\ccBEkVPc.s:21895  .debug_str:0000000000002ea5 .LASF2477
C:\Users\CYMR90~1\AppData\Local\Temp\ccBEkVPc.s:26507  .debug_str:00000000000155cb .LASF2478
C:\Users\CYMR90~1\AppData\Local\Temp\ccBEkVPc.s:31178  .debug_str:000000000002816e .LASF2479
C:\Users\CYMR90~1\AppData\Local\Temp\ccBEkVPc.s:29548  .debug_str:0000000000021956 .LASF2480
C:\Users\CYMR90~1\AppData\Local\Temp\ccBEkVPc.s:27942  .debug_str:000000000001b4bc .LASF2481
C:\Users\CYMR90~1\AppData\Local\Temp\ccBEkVPc.s:28064  .debug_str:000000000001bbcd .LASF2482
C:\Users\CYMR90~1\AppData\Local\Temp\ccBEkVPc.s:31264  .debug_str:00000000000287cf .LASF2483
C:\Users\CYMR90~1\AppData\Local\Temp\ccBEkVPc.s:23141  .debug_str:0000000000007ff7 .LASF2484
C:\Users\CYMR90~1\AppData\Local\Temp\ccBEkVPc.s:26275  .debug_str:00000000000147bb .LASF2485
C:\Users\CYMR90~1\AppData\Local\Temp\ccBEkVPc.s:25989  .debug_str:000000000001360c .LASF2486
C:\Users\CYMR90~1\AppData\Local\Temp\ccBEkVPc.s:30670  .debug_str:0000000000026092 .LASF2487
C:\Users\CYMR90~1\AppData\Local\Temp\ccBEkVPc.s:24073  .debug_str:000000000000bba9 .LASF2488
C:\Users\CYMR90~1\AppData\Local\Temp\ccBEkVPc.s:28750  .debug_str:000000000001e866 .LASF2489
C:\Users\CYMR90~1\AppData\Local\Temp\ccBEkVPc.s:22103  .debug_str:0000000000003c8f .LASF2490
C:\Users\CYMR90~1\AppData\Local\Temp\ccBEkVPc.s:26858  .debug_str:0000000000016eb0 .LASF2491
C:\Users\CYMR90~1\AppData\Local\Temp\ccBEkVPc.s:31556  .debug_str:0000000000029a27 .LASF2492
C:\Users\CYMR90~1\AppData\Local\Temp\ccBEkVPc.s:24949  .debug_str:000000000000f2fd .LASF2493
C:\Users\CYMR90~1\AppData\Local\Temp\ccBEkVPc.s:22999  .debug_str:0000000000007610 .LASF2494
C:\Users\CYMR90~1\AppData\Local\Temp\ccBEkVPc.s:24123  .debug_str:000000000000bf41 .LASF2495
C:\Users\CYMR90~1\AppData\Local\Temp\ccBEkVPc.s:28796  .debug_str:000000000001eb7f .LASF2496
C:\Users\CYMR90~1\AppData\Local\Temp\ccBEkVPc.s:22151  .debug_str:0000000000003faa .LASF2497
C:\Users\CYMR90~1\AppData\Local\Temp\ccBEkVPc.s:21549  .debug_str:0000000000001a11 .LASF2498
C:\Users\CYMR90~1\AppData\Local\Temp\ccBEkVPc.s:31612  .debug_str:0000000000029d7c .LASF2499
C:\Users\CYMR90~1\AppData\Local\Temp\ccBEkVPc.s:25013  .debug_str:000000000000f6e5 .LASF2500
C:\Users\CYMR90~1\AppData\Local\Temp\ccBEkVPc.s:24731  .debug_str:000000000000e5b2 .LASF2501
C:\Users\CYMR90~1\AppData\Local\Temp\ccBEkVPc.s:27952  .debug_str:000000000001b56a .LASF2502
C:\Users\CYMR90~1\AppData\Local\Temp\ccBEkVPc.s:31148  .debug_str:0000000000027f1e .LASF2503
C:\Users\CYMR90~1\AppData\Local\Temp\ccBEkVPc.s:23017  .debug_str:000000000000774d .LASF2504
C:\Users\CYMR90~1\AppData\Local\Temp\ccBEkVPc.s:26155  .debug_str:0000000000014010 .LASF2505
C:\Users\CYMR90~1\AppData\Local\Temp\ccBEkVPc.s:29378  .debug_str:0000000000020ee3 .LASF2506
C:\Users\CYMR90~1\AppData\Local\Temp\ccBEkVPc.s:31542  .debug_str:0000000000029964 .LASF2507
C:\Users\CYMR90~1\AppData\Local\Temp\ccBEkVPc.s:24495  .debug_str:000000000000d7b2 .LASF2508
C:\Users\CYMR90~1\AppData\Local\Temp\ccBEkVPc.s:27724  .debug_str:000000000001a645 .LASF2509
C:\Users\CYMR90~1\AppData\Local\Temp\ccBEkVPc.s:30906  .debug_str:0000000000026f47 .LASF2510
C:\Users\CYMR90~1\AppData\Local\Temp\ccBEkVPc.s:31236  .debug_str:00000000000285a8 .LASF2511
C:\Users\CYMR90~1\AppData\Local\Temp\ccBEkVPc.s:24633  .debug_str:000000000000dfd4 .LASF2512
C:\Users\CYMR90~1\AppData\Local\Temp\ccBEkVPc.s:29324  .debug_str:0000000000020b75 .LASF2513
C:\Users\CYMR90~1\AppData\Local\Temp\ccBEkVPc.s:22655  .debug_str:0000000000006012 .LASF2514
C:\Users\CYMR90~1\AppData\Local\Temp\ccBEkVPc.s:27424  .debug_str:0000000000019255 .LASF2515
C:\Users\CYMR90~1\AppData\Local\Temp\ccBEkVPc.s:28202  .debug_str:000000000001c49f .LASF2516
C:\Users\CYMR90~1\AppData\Local\Temp\ccBEkVPc.s:25503  .debug_str:0000000000011522 .LASF2517
C:\Users\CYMR90~1\AppData\Local\Temp\ccBEkVPc.s:30194  .debug_str:0000000000023f4f .LASF2518
C:\Users\CYMR90~1\AppData\Local\Temp\ccBEkVPc.s:28290  .debug_str:000000000001ca9b .LASF2519
C:\Users\CYMR90~1\AppData\Local\Temp\ccBEkVPc.s:29470  .debug_str:0000000000021403 .LASF2520
C:\Users\CYMR90~1\AppData\Local\Temp\ccBEkVPc.s:22811  .debug_str:00000000000069b1 .LASF2521
C:\Users\CYMR90~1\AppData\Local\Temp\ccBEkVPc.s:27558  .debug_str:0000000000019b0b .LASF2522
C:\Users\CYMR90~1\AppData\Local\Temp\ccBEkVPc.s:32262  .debug_str:000000000002c6f1 .LASF2523
C:\Users\CYMR90~1\AppData\Local\Temp\ccBEkVPc.s:25647  .debug_str:0000000000011ef7 .LASF2524
C:\Users\CYMR90~1\AppData\Local\Temp\ccBEkVPc.s:30316  .debug_str:00000000000247d1 .LASF2525
C:\Users\CYMR90~1\AppData\Local\Temp\ccBEkVPc.s:27694  .debug_str:000000000001a4bd .LASF2526
C:\Users\CYMR90~1\AppData\Local\Temp\ccBEkVPc.s:27486  .debug_str:0000000000019601 .LASF2527
C:\Users\CYMR90~1\AppData\Local\Temp\ccBEkVPc.s:25995  .debug_str:0000000000013679 .LASF2528
C:\Users\CYMR90~1\AppData\Local\Temp\ccBEkVPc.s:31200  .debug_str:0000000000028347 .LASF2529
C:\Users\CYMR90~1\AppData\Local\Temp\ccBEkVPc.s:23667  .debug_str:000000000000a19e .LASF2530
C:\Users\CYMR90~1\AppData\Local\Temp\ccBEkVPc.s:27738  .debug_str:000000000001a732 .LASF2531
C:\Users\CYMR90~1\AppData\Local\Temp\ccBEkVPc.s:28384  .debug_str:000000000001d1a0 .LASF2532
C:\Users\CYMR90~1\AppData\Local\Temp\ccBEkVPc.s:26882  .debug_str:0000000000017041 .LASF2533
C:\Users\CYMR90~1\AppData\Local\Temp\ccBEkVPc.s:30796  .debug_str:0000000000026874 .LASF2534
C:\Users\CYMR90~1\AppData\Local\Temp\ccBEkVPc.s:25935  .debug_str:0000000000013215 .LASF2535
C:\Users\CYMR90~1\AppData\Local\Temp\ccBEkVPc.s:21211  .debug_str:00000000000004d7 .LASF2536
C:\Users\CYMR90~1\AppData\Local\Temp\ccBEkVPc.s:31678  .debug_str:000000000002a159 .LASF2537
C:\Users\CYMR90~1\AppData\Local\Temp\ccBEkVPc.s:26515  .debug_str:000000000001563b .LASF2538
C:\Users\CYMR90~1\AppData\Local\Temp\ccBEkVPc.s:21327  .debug_str:0000000000000c23 .LASF2539
C:\Users\CYMR90~1\AppData\Local\Temp\ccBEkVPc.s:28482  .debug_str:000000000001d7d9 .LASF2540
C:\Users\CYMR90~1\AppData\Local\Temp\ccBEkVPc.s:23795  .debug_str:000000000000a967 .LASF2541
C:\Users\CYMR90~1\AppData\Local\Temp\ccBEkVPc.s:30364  .debug_str:0000000000024b4d .LASF2542
C:\Users\CYMR90~1\AppData\Local\Temp\ccBEkVPc.s:22469  .debug_str:00000000000054d3 .LASF2543
C:\Users\CYMR90~1\AppData\Local\Temp\ccBEkVPc.s:22079  .debug_str:0000000000003aec .LASF2544
C:\Users\CYMR90~1\AppData\Local\Temp\ccBEkVPc.s:26199  .debug_str:00000000000142ce .LASF2545
C:\Users\CYMR90~1\AppData\Local\Temp\ccBEkVPc.s:24157  .debug_str:000000000000c17f .LASF2546
C:\Users\CYMR90~1\AppData\Local\Temp\ccBEkVPc.s:28950  .debug_str:000000000001f493 .LASF2547
C:\Users\CYMR90~1\AppData\Local\Temp\ccBEkVPc.s:24715  .debug_str:000000000000e4bc .LASF2548
C:\Users\CYMR90~1\AppData\Local\Temp\ccBEkVPc.s:28762  .debug_str:000000000001e947 .LASF2549
C:\Users\CYMR90~1\AppData\Local\Temp\ccBEkVPc.s:32334  .debug_str:000000000002cbb1 .LASF2550
C:\Users\CYMR90~1\AppData\Local\Temp\ccBEkVPc.s:22589  .debug_str:0000000000005c1d .LASF2551
C:\Users\CYMR90~1\AppData\Local\Temp\ccBEkVPc.s:27722  .debug_str:000000000001a627 .LASF2552
C:\Users\CYMR90~1\AppData\Local\Temp\ccBEkVPc.s:23883  .debug_str:000000000000aee9 .LASF2553
C:\Users\CYMR90~1\AppData\Local\Temp\ccBEkVPc.s:30502  .debug_str:000000000002550a .LASF2554
C:\Users\CYMR90~1\AppData\Local\Temp\ccBEkVPc.s:21869  .debug_str:0000000000002d24 .LASF2555
C:\Users\CYMR90~1\AppData\Local\Temp\ccBEkVPc.s:32220  .debug_str:000000000002c408 .LASF2556
C:\Users\CYMR90~1\AppData\Local\Temp\ccBEkVPc.s:21473  .debug_str:00000000000014c6 .LASF2557
C:\Users\CYMR90~1\AppData\Local\Temp\ccBEkVPc.s:29702  .debug_str:00000000000222b5 .LASF2558
C:\Users\CYMR90~1\AppData\Local\Temp\ccBEkVPc.s:29712  .debug_str:000000000002235b .LASF2559
C:\Users\CYMR90~1\AppData\Local\Temp\ccBEkVPc.s:26089  .debug_str:0000000000013c58 .LASF2560
C:\Users\CYMR90~1\AppData\Local\Temp\ccBEkVPc.s:25883  .debug_str:0000000000012eb9 .LASF2561
C:\Users\CYMR90~1\AppData\Local\Temp\ccBEkVPc.s:28756  .debug_str:000000000001e8dc .LASF2562
C:\Users\CYMR90~1\AppData\Local\Temp\ccBEkVPc.s:24013  .debug_str:000000000000b7c3 .LASF2563
C:\Users\CYMR90~1\AppData\Local\Temp\ccBEkVPc.s:22869  .debug_str:0000000000006d5b .LASF2564
C:\Users\CYMR90~1\AppData\Local\Temp\ccBEkVPc.s:29058  .debug_str:000000000001fae7 .LASF2565
C:\Users\CYMR90~1\AppData\Local\Temp\ccBEkVPc.s:31566  .debug_str:0000000000029ab5 .LASF2566
C:\Users\CYMR90~1\AppData\Local\Temp\ccBEkVPc.s:27034  .debug_str:000000000001797d .LASF2567
C:\Users\CYMR90~1\AppData\Local\Temp\ccBEkVPc.s:28400  .debug_str:000000000001d28e .LASF2568
C:\Users\CYMR90~1\AppData\Local\Temp\ccBEkVPc.s:26263  .debug_str:00000000000146f9 .LASF2569
C:\Users\CYMR90~1\AppData\Local\Temp\ccBEkVPc.s:24539  .debug_str:000000000000da35 .LASF2570
C:\Users\CYMR90~1\AppData\Local\Temp\ccBEkVPc.s:27906  .debug_str:000000000001b27c .LASF2571
C:\Users\CYMR90~1\AppData\Local\Temp\ccBEkVPc.s:31942  .debug_str:000000000002b119 .LASF2572
C:\Users\CYMR90~1\AppData\Local\Temp\ccBEkVPc.s:22387  .debug_str:0000000000004fb0 .LASF2573
C:\Users\CYMR90~1\AppData\Local\Temp\ccBEkVPc.s:23029  .debug_str:0000000000007809 .LASF2574
C:\Users\CYMR90~1\AppData\Local\Temp\ccBEkVPc.s:31374  .debug_str:0000000000028e97 .LASF2575
C:\Users\CYMR90~1\AppData\Local\Temp\ccBEkVPc.s:27408  .debug_str:0000000000019147 .LASF2576
C:\Users\CYMR90~1\AppData\Local\Temp\ccBEkVPc.s:30440  .debug_str:0000000000024fd9 .LASF2577
C:\Users\CYMR90~1\AppData\Local\Temp\ccBEkVPc.s:24393  .debug_str:000000000000d0b5 .LASF2578
C:\Users\CYMR90~1\AppData\Local\Temp\ccBEkVPc.s:29610  .debug_str:0000000000021cfd .LASF2579
C:\Users\CYMR90~1\AppData\Local\Temp\ccBEkVPc.s:23007  .debug_str:000000000000768f .LASF2580
C:\Users\CYMR90~1\AppData\Local\Temp\ccBEkVPc.s:28282  .debug_str:000000000001ca0b .LASF2581
C:\Users\CYMR90~1\AppData\Local\Temp\ccBEkVPc.s:22061  .debug_str:00000000000039ee .LASF2582
C:\Users\CYMR90~1\AppData\Local\Temp\ccBEkVPc.s:27362  .debug_str:0000000000018dde .LASF2583
C:\Users\CYMR90~1\AppData\Local\Temp\ccBEkVPc.s:21259  .debug_str:00000000000007aa .LASF2584
C:\Users\CYMR90~1\AppData\Local\Temp\ccBEkVPc.s:29150  .debug_str:00000000000200bf .LASF2585
C:\Users\CYMR90~1\AppData\Local\Temp\ccBEkVPc.s:31284  .debug_str:000000000002890a .LASF2586
C:\Users\CYMR90~1\AppData\Local\Temp\ccBEkVPc.s:23169  .debug_str:0000000000008273 .LASF2587
C:\Users\CYMR90~1\AppData\Local\Temp\ccBEkVPc.s:23819  .debug_str:000000000000aadd .LASF2588
C:\Users\CYMR90~1\AppData\Local\Temp\ccBEkVPc.s:29606  .debug_str:0000000000021cc1 .LASF2589
C:\Users\CYMR90~1\AppData\Local\Temp\ccBEkVPc.s:21389  .debug_str:0000000000000fff .LASF2590
C:\Users\CYMR90~1\AppData\Local\Temp\ccBEkVPc.s:24641  .debug_str:000000000000e04b .LASF2591
C:\Users\CYMR90~1\AppData\Local\Temp\ccBEkVPc.s:27874  .debug_str:000000000001b05b .LASF2592
C:\Users\CYMR90~1\AppData\Local\Temp\ccBEkVPc.s:31046  .debug_str:000000000002783b .LASF2593
C:\Users\CYMR90~1\AppData\Local\Temp\ccBEkVPc.s:22913  .debug_str:000000000000703e .LASF2594
C:\Users\CYMR90~1\AppData\Local\Temp\ccBEkVPc.s:26147  .debug_str:0000000000013f81 .LASF2595
C:\Users\CYMR90~1\AppData\Local\Temp\ccBEkVPc.s:22583  .debug_str:0000000000005bcd .LASF2596
C:\Users\CYMR90~1\AppData\Local\Temp\ccBEkVPc.s:27356  .debug_str:0000000000018d9f .LASF2597
C:\Users\CYMR90~1\AppData\Local\Temp\ccBEkVPc.s:32066  .debug_str:000000000002b9a2 .LASF2598
C:\Users\CYMR90~1\AppData\Local\Temp\ccBEkVPc.s:25447  .debug_str:00000000000111dc .LASF2599
C:\Users\CYMR90~1\AppData\Local\Temp\ccBEkVPc.s:30124  .debug_str:0000000000023b7b .LASF2600
C:\Users\CYMR90~1\AppData\Local\Temp\ccBEkVPc.s:23515  .debug_str:00000000000097dd .LASF2601
C:\Users\CYMR90~1\AppData\Local\Temp\ccBEkVPc.s:23895  .debug_str:000000000000b072 .LASF2602
C:\Users\CYMR90~1\AppData\Local\Temp\ccBEkVPc.s:24547  .debug_str:000000000000dac5 .LASF2603
C:\Users\CYMR90~1\AppData\Local\Temp\ccBEkVPc.s:29848  .debug_str:0000000000022ad8 .LASF2604
C:\Users\CYMR90~1\AppData\Local\Temp\ccBEkVPc.s:27088  .debug_str:0000000000017cbe .LASF2605
C:\Users\CYMR90~1\AppData\Local\Temp\ccBEkVPc.s:22305  .debug_str:0000000000004ab4 .LASF2606
C:\Users\CYMR90~1\AppData\Local\Temp\ccBEkVPc.s:23765  .debug_str:000000000000a76c .LASF2607
C:\Users\CYMR90~1\AppData\Local\Temp\ccBEkVPc.s:28978  .debug_str:000000000001f64b .LASF2608
C:\Users\CYMR90~1\AppData\Local\Temp\ccBEkVPc.s:22883  .debug_str:0000000000006e66 .LASF2609
C:\Users\CYMR90~1\AppData\Local\Temp\ccBEkVPc.s:28084  .debug_str:000000000001bd41 .LASF2610
C:\Users\CYMR90~1\AppData\Local\Temp\ccBEkVPc.s:24245  .debug_str:000000000000c688 .LASF2611
C:\Users\CYMR90~1\AppData\Local\Temp\ccBEkVPc.s:23997  .debug_str:000000000000b6b4 .LASF2612
C:\Users\CYMR90~1\AppData\Local\Temp\ccBEkVPc.s:29220  .debug_str:00000000000204ec .LASF2613
C:\Users\CYMR90~1\AppData\Local\Temp\ccBEkVPc.s:23123  .debug_str:0000000000007ec2 .LASF2614
C:\Users\CYMR90~1\AppData\Local\Temp\ccBEkVPc.s:28302  .debug_str:000000000001cb3b .LASF2615
C:\Users\CYMR90~1\AppData\Local\Temp\ccBEkVPc.s:22173  .debug_str:000000000000419d .LASF2616
C:\Users\CYMR90~1\AppData\Local\Temp\ccBEkVPc.s:30106  .debug_str:0000000000023a73 .LASF2617
C:\Users\CYMR90~1\AppData\Local\Temp\ccBEkVPc.s:27388  .debug_str:0000000000018f6d .LASF2618
C:\Users\CYMR90~1\AppData\Local\Temp\ccBEkVPc.s:21651  .debug_str:0000000000001ff0 .LASF2619
C:\Users\CYMR90~1\AppData\Local\Temp\ccBEkVPc.s:21991  .debug_str:00000000000034f3 .LASF2620
C:\Users\CYMR90~1\AppData\Local\Temp\ccBEkVPc.s:30570  .debug_str:0000000000025a5c .LASF2621
C:\Users\CYMR90~1\AppData\Local\Temp\ccBEkVPc.s:27934  .debug_str:000000000001b44b .LASF2622
C:\Users\CYMR90~1\AppData\Local\Temp\ccBEkVPc.s:27076  .debug_str:0000000000017c20 .LASF2623
C:\Users\CYMR90~1\AppData\Local\Temp\ccBEkVPc.s:32248  .debug_str:000000000002c613 .LASF2624
C:\Users\CYMR90~1\AppData\Local\Temp\ccBEkVPc.s:26145  .debug_str:0000000000013f67 .LASF2625
C:\Users\CYMR90~1\AppData\Local\Temp\ccBEkVPc.s:31398  .debug_str:0000000000028ffe .LASF2626
C:\Users\CYMR90~1\AppData\Local\Temp\ccBEkVPc.s:25249  .debug_str:0000000000010607 .LASF2627
C:\Users\CYMR90~1\AppData\Local\Temp\ccBEkVPc.s:27828  .debug_str:000000000001ad3e .LASF2628
C:\Users\CYMR90~1\AppData\Local\Temp\ccBEkVPc.s:21685  .debug_str:00000000000021c4 .LASF2629
C:\Users\CYMR90~1\AppData\Local\Temp\ccBEkVPc.s:26874  .debug_str:0000000000016fd2 .LASF2630
C:\Users\CYMR90~1\AppData\Local\Temp\ccBEkVPc.s:26179  .debug_str:00000000000141a0 .LASF2631
C:\Users\CYMR90~1\AppData\Local\Temp\ccBEkVPc.s:25949  .debug_str:0000000000013311 .LASF2632
C:\Users\CYMR90~1\AppData\Local\Temp\ccBEkVPc.s:24843  .debug_str:000000000000ed16 .LASF2633
C:\Users\CYMR90~1\AppData\Local\Temp\ccBEkVPc.s:31944  .debug_str:000000000002b131 .LASF2634
C:\Users\CYMR90~1\AppData\Local\Temp\ccBEkVPc.s:23837  .debug_str:000000000000abf6 .LASF2635
C:\Users\CYMR90~1\AppData\Local\Temp\ccBEkVPc.s:27032  .debug_str:0000000000017964 .LASF2636
C:\Users\CYMR90~1\AppData\Local\Temp\ccBEkVPc.s:30242  .debug_str:000000000002436b .LASF2637
C:\Users\CYMR90~1\AppData\Local\Temp\ccBEkVPc.s:22101  .debug_str:0000000000003c76 .LASF2638
C:\Users\CYMR90~1\AppData\Local\Temp\ccBEkVPc.s:25375  .debug_str:0000000000010de9 .LASF2639
C:\Users\CYMR90~1\AppData\Local\Temp\ccBEkVPc.s:28552  .debug_str:000000000001dc06 .LASF2640
C:\Users\CYMR90~1\AppData\Local\Temp\ccBEkVPc.s:31698  .debug_str:000000000002a272 .LASF2641
C:\Users\CYMR90~1\AppData\Local\Temp\ccBEkVPc.s:23593  .debug_str:0000000000009d46 .LASF2642
C:\Users\CYMR90~1\AppData\Local\Temp\ccBEkVPc.s:26797  .debug_str:0000000000016852 .LASF2643
C:\Users\CYMR90~1\AppData\Local\Temp\ccBEkVPc.s:28798  .debug_str:000000000001eb9a .LASF2644
C:\Users\CYMR90~1\AppData\Local\Temp\ccBEkVPc.s:22153  .debug_str:0000000000003fc5 .LASF2645
C:\Users\CYMR90~1\AppData\Local\Temp\ccBEkVPc.s:26906  .debug_str:000000000001719b .LASF2646
C:\Users\CYMR90~1\AppData\Local\Temp\ccBEkVPc.s:31614  .debug_str:0000000000029d97 .LASF2647
C:\Users\CYMR90~1\AppData\Local\Temp\ccBEkVPc.s:25015  .debug_str:000000000000f700 .LASF2648
C:\Users\CYMR90~1\AppData\Local\Temp\ccBEkVPc.s:29690  .debug_str:00000000000221f6 .LASF2649
C:\Users\CYMR90~1\AppData\Local\Temp\ccBEkVPc.s:23043  .debug_str:0000000000007900 .LASF2650
C:\Users\CYMR90~1\AppData\Local\Temp\ccBEkVPc.s:26277  .debug_str:00000000000147d4 .LASF2651
C:\Users\CYMR90~1\AppData\Local\Temp\ccBEkVPc.s:29406  .debug_str:000000000002105f .LASF2652
C:\Users\CYMR90~1\AppData\Local\Temp\ccBEkVPc.s:21291  .debug_str:000000000000098c .LASF2653
C:\Users\CYMR90~1\AppData\Local\Temp\ccBEkVPc.s:24525  .debug_str:000000000000d965 .LASF2654
C:\Users\CYMR90~1\AppData\Local\Temp\ccBEkVPc.s:27756  .debug_str:000000000001a8e9 .LASF2655
C:\Users\CYMR90~1\AppData\Local\Temp\ccBEkVPc.s:30930  .debug_str:000000000002708f .LASF2656
C:\Users\CYMR90~1\AppData\Local\Temp\ccBEkVPc.s:22799  .debug_str:0000000000006902 .LASF2657
C:\Users\CYMR90~1\AppData\Local\Temp\ccBEkVPc.s:26047  .debug_str:00000000000139a5 .LASF2658
C:\Users\CYMR90~1\AppData\Local\Temp\ccBEkVPc.s:29266  .debug_str:00000000000207f2 .LASF2659
C:\Users\CYMR90~1\AppData\Local\Temp\ccBEkVPc.s:26589  .debug_str:0000000000015abe .LASF2660
C:\Users\CYMR90~1\AppData\Local\Temp\ccBEkVPc.s:31298  .debug_str:0000000000028a07 .LASF2661
C:\Users\CYMR90~1\AppData\Local\Temp\ccBEkVPc.s:24699  .debug_str:000000000000e3e5 .LASF2662
C:\Users\CYMR90~1\AppData\Local\Temp\ccBEkVPc.s:22735  .debug_str:00000000000064f4 .LASF2663
C:\Users\CYMR90~1\AppData\Local\Temp\ccBEkVPc.s:27498  .debug_str:00000000000196ad .LASF2664
C:\Users\CYMR90~1\AppData\Local\Temp\ccBEkVPc.s:26005  .debug_str:0000000000013721 .LASF2665
C:\Users\CYMR90~1\AppData\Local\Temp\ccBEkVPc.s:29210  .debug_str:0000000000020423 .LASF2666
C:\Users\CYMR90~1\AppData\Local\Temp\ccBEkVPc.s:32422  .debug_str:000000000002d160 .LASF2667
C:\Users\CYMR90~1\AppData\Local\Temp\ccBEkVPc.s:28172  .debug_str:000000000001c2f5 .LASF2668
C:\Users\CYMR90~1\AppData\Local\Temp\ccBEkVPc.s:30226  .debug_str:000000000002424f .LASF2669
C:\Users\CYMR90~1\AppData\Local\Temp\ccBEkVPc.s:30644  .debug_str:0000000000025ece .LASF2670
C:\Users\CYMR90~1\AppData\Local\Temp\ccBEkVPc.s:24533  .debug_str:000000000000d9d8 .LASF2671
C:\Users\CYMR90~1\AppData\Local\Temp\ccBEkVPc.s:25779  .debug_str:00000000000127cb .LASF2672
C:\Users\CYMR90~1\AppData\Local\Temp\ccBEkVPc.s:28952  .debug_str:000000000001f4b8 .LASF2673
C:\Users\CYMR90~1\AppData\Local\Temp\ccBEkVPc.s:32200  .debug_str:000000000002c2c1 .LASF2674
C:\Users\CYMR90~1\AppData\Local\Temp\ccBEkVPc.s:29692  .debug_str:0000000000022211 .LASF2675
C:\Users\CYMR90~1\AppData\Local\Temp\ccBEkVPc.s:31672  .debug_str:000000000002a0f6 .LASF2676
C:\Users\CYMR90~1\AppData\Local\Temp\ccBEkVPc.s:22075  .debug_str:0000000000003ab3 .LASF2677
C:\Users\CYMR90~1\AppData\Local\Temp\ccBEkVPc.s:26821  .debug_str:0000000000016a2a .LASF2678
C:\Users\CYMR90~1\AppData\Local\Temp\ccBEkVPc.s:31530  .debug_str:00000000000298cf .LASF2679
C:\Users\CYMR90~1\AppData\Local\Temp\ccBEkVPc.s:24925  .debug_str:000000000000f18f .LASF2680
C:\Users\CYMR90~1\AppData\Local\Temp\ccBEkVPc.s:26787  .debug_str:00000000000167cd .LASF2681
C:\Users\CYMR90~1\AppData\Local\Temp\ccBEkVPc.s:31498  .debug_str:00000000000296b6 .LASF2682
C:\Users\CYMR90~1\AppData\Local\Temp\ccBEkVPc.s:24901  .debug_str:000000000000f029 .LASF2683
C:\Users\CYMR90~1\AppData\Local\Temp\ccBEkVPc.s:29584  .debug_str:0000000000021b56 .LASF2684
C:\Users\CYMR90~1\AppData\Local\Temp\ccBEkVPc.s:26057  .debug_str:0000000000013a3c .LASF2685
C:\Users\CYMR90~1\AppData\Local\Temp\ccBEkVPc.s:21593  .debug_str:0000000000001c95 .LASF2686
C:\Users\CYMR90~1\AppData\Local\Temp\ccBEkVPc.s:25665  .debug_str:0000000000012050 .LASF2687
C:\Users\CYMR90~1\AppData\Local\Temp\ccBEkVPc.s:26109  .debug_str:0000000000013d63 .LASF2688
C:\Users\CYMR90~1\AppData\Local\Temp\ccBEkVPc.s:24429  .debug_str:000000000000d358 .LASF2689
C:\Users\CYMR90~1\AppData\Local\Temp\ccBEkVPc.s:29112  .debug_str:000000000001fe4c .LASF2690
C:\Users\CYMR90~1\AppData\Local\Temp\ccBEkVPc.s:24059  .debug_str:000000000000baea .LASF2691
C:\Users\CYMR90~1\AppData\Local\Temp\ccBEkVPc.s:28742  .debug_str:000000000001e7d8 .LASF2692
C:\Users\CYMR90~1\AppData\Local\Temp\ccBEkVPc.s:22091  .debug_str:0000000000003bab .LASF2693
C:\Users\CYMR90~1\AppData\Local\Temp\ccBEkVPc.s:26837  .debug_str:0000000000016bcf .LASF2694
C:\Users\CYMR90~1\AppData\Local\Temp\ccBEkVPc.s:25507  .debug_str:0000000000011566 .LASF2695
C:\Users\CYMR90~1\AppData\Local\Temp\ccBEkVPc.s:30200  .debug_str:0000000000023faf .LASF2696
C:\Users\CYMR90~1\AppData\Local\Temp\ccBEkVPc.s:21603  .debug_str:0000000000001d33 .LASF2697
C:\Users\CYMR90~1\AppData\Local\Temp\ccBEkVPc.s:24865  .debug_str:000000000000ee31 .LASF2698
C:\Users\CYMR90~1\AppData\Local\Temp\ccBEkVPc.s:30982  .debug_str:000000000002749f .LASF2699
C:\Users\CYMR90~1\AppData\Local\Temp\ccBEkVPc.s:31274  .debug_str:0000000000028876 .LASF2700
C:\Users\CYMR90~1\AppData\Local\Temp\ccBEkVPc.s:23051  .debug_str:000000000000796f .LASF2701
C:\Users\CYMR90~1\AppData\Local\Temp\ccBEkVPc.s:26285  .debug_str:0000000000014833 .LASF2702
C:\Users\CYMR90~1\AppData\Local\Temp\ccBEkVPc.s:23603  .debug_str:0000000000009dc2 .LASF2703
C:\Users\CYMR90~1\AppData\Local\Temp\ccBEkVPc.s:21377  .debug_str:0000000000000f65 .LASF2704
C:\Users\CYMR90~1\AppData\Local\Temp\ccBEkVPc.s:24625  .debug_str:000000000000df5d .LASF2705
C:\Users\CYMR90~1\AppData\Local\Temp\ccBEkVPc.s:23147  .debug_str:0000000000008072 .LASF2706
C:\Users\CYMR90~1\AppData\Local\Temp\ccBEkVPc.s:27134  .debug_str:0000000000017fa6 .LASF2707
C:\Users\CYMR90~1\AppData\Local\Temp\ccBEkVPc.s:31852  .debug_str:000000000002abcb .LASF2708
C:\Users\CYMR90~1\AppData\Local\Temp\ccBEkVPc.s:25247  .debug_str:00000000000105f0 .LASF2709
C:\Users\CYMR90~1\AppData\Local\Temp\ccBEkVPc.s:29934  .debug_str:000000000002304d .LASF2710
C:\Users\CYMR90~1\AppData\Local\Temp\ccBEkVPc.s:30536  .debug_str:0000000000025797 .LASF2711
C:\Users\CYMR90~1\AppData\Local\Temp\ccBEkVPc.s:28034  .debug_str:000000000001ba42 .LASF2712
C:\Users\CYMR90~1\AppData\Local\Temp\ccBEkVPc.s:25433  .debug_str:00000000000110fe .LASF2713
C:\Users\CYMR90~1\AppData\Local\Temp\ccBEkVPc.s:31722  .debug_str:000000000002a3b2 .LASF2714
C:\Users\CYMR90~1\AppData\Local\Temp\ccBEkVPc.s:22827  .debug_str:0000000000006aad .LASF2715
C:\Users\CYMR90~1\AppData\Local\Temp\ccBEkVPc.s:23247  .debug_str:0000000000008762 .LASF2716
C:\Users\CYMR90~1\AppData\Local\Temp\ccBEkVPc.s:24221  .debug_str:000000000000c51b .LASF2717
C:\Users\CYMR90~1\AppData\Local\Temp\ccBEkVPc.s:21689  .debug_str:00000000000021f6 .LASF2718
C:\Users\CYMR90~1\AppData\Local\Temp\ccBEkVPc.s:22005  .debug_str:00000000000035ff .LASF2719
C:\Users\CYMR90~1\AppData\Local\Temp\ccBEkVPc.s:26972  .debug_str:0000000000017572 .LASF2720
C:\Users\CYMR90~1\AppData\Local\Temp\ccBEkVPc.s:22363  .debug_str:0000000000004e63 .LASF2721
C:\Users\CYMR90~1\AppData\Local\Temp\ccBEkVPc.s:25773  .debug_str:0000000000012768 .LASF2722
C:\Users\CYMR90~1\AppData\Local\Temp\ccBEkVPc.s:22407  .debug_str:00000000000050e1 .LASF2723
C:\Users\CYMR90~1\AppData\Local\Temp\ccBEkVPc.s:29276  .debug_str:000000000002086a .LASF2724
C:\Users\CYMR90~1\AppData\Local\Temp\ccBEkVPc.s:26043  .debug_str:0000000000013969 .LASF2725
C:\Users\CYMR90~1\AppData\Local\Temp\ccBEkVPc.s:24833  .debug_str:000000000000ec71 .LASF2726
C:\Users\CYMR90~1\AppData\Local\Temp\ccBEkVPc.s:23887  .debug_str:000000000000af3e .LASF2727
C:\Users\CYMR90~1\AppData\Local\Temp\ccBEkVPc.s:21437  .debug_str:00000000000012a8 .LASF2728
C:\Users\CYMR90~1\AppData\Local\Temp\ccBEkVPc.s:24257  .debug_str:000000000000c74a .LASF2729
C:\Users\CYMR90~1\AppData\Local\Temp\ccBEkVPc.s:26051  .debug_str:00000000000139e0 .LASF2730
C:\Users\CYMR90~1\AppData\Local\Temp\ccBEkVPc.s:29272  .debug_str:0000000000020842 .LASF2731
C:\Users\CYMR90~1\AppData\Local\Temp\ccBEkVPc.s:21169  .debug_str:0000000000000260 .LASF2732
C:\Users\CYMR90~1\AppData\Local\Temp\ccBEkVPc.s:24391  .debug_str:000000000000d0a2 .LASF2733
C:\Users\CYMR90~1\AppData\Local\Temp\ccBEkVPc.s:27598  .debug_str:0000000000019d9b .LASF2734
C:\Users\CYMR90~1\AppData\Local\Temp\ccBEkVPc.s:21355  .debug_str:0000000000000dbd .LASF2735
C:\Users\CYMR90~1\AppData\Local\Temp\ccBEkVPc.s:31052  .debug_str:0000000000027893 .LASF2736
C:\Users\CYMR90~1\AppData\Local\Temp\ccBEkVPc.s:29434  .debug_str:00000000000211f7 .LASF2737
C:\Users\CYMR90~1\AppData\Local\Temp\ccBEkVPc.s:27836  .debug_str:000000000001adc2 .LASF2738
C:\Users\CYMR90~1\AppData\Local\Temp\ccBEkVPc.s:32256  .debug_str:000000000002c696 .LASF2739
C:\Users\CYMR90~1\AppData\Local\Temp\ccBEkVPc.s:21467  .debug_str:0000000000001490 .LASF2740
C:\Users\CYMR90~1\AppData\Local\Temp\ccBEkVPc.s:26189  .debug_str:0000000000014241 .LASF2741
C:\Users\CYMR90~1\AppData\Local\Temp\ccBEkVPc.s:24373  .debug_str:000000000000cf80 .LASF2742
C:\Users\CYMR90~1\AppData\Local\Temp\ccBEkVPc.s:24307  .debug_str:000000000000cba5 .LASF2743
C:\Users\CYMR90~1\AppData\Local\Temp\ccBEkVPc.s:28176  .debug_str:000000000001c323 .LASF2744
C:\Users\CYMR90~1\AppData\Local\Temp\ccBEkVPc.s:24437  .debug_str:000000000000d3b0 .LASF2745
C:\Users\CYMR90~1\AppData\Local\Temp\ccBEkVPc.s:29726  .debug_str:0000000000022423 .LASF2746
C:\Users\CYMR90~1\AppData\Local\Temp\ccBEkVPc.s:21585  .debug_str:0000000000001c21 .LASF2747
C:\Users\CYMR90~1\AppData\Local\Temp\ccBEkVPc.s:24849  .debug_str:000000000000ed61 .LASF2748
C:\Users\CYMR90~1\AppData\Local\Temp\ccBEkVPc.s:28060  .debug_str:000000000001bb9d .LASF2749
C:\Users\CYMR90~1\AppData\Local\Temp\ccBEkVPc.s:31170  .debug_str:00000000000280e6 .LASF2750
C:\Users\CYMR90~1\AppData\Local\Temp\ccBEkVPc.s:29574  .debug_str:0000000000021ac6 .LASF2751
C:\Users\CYMR90~1\AppData\Local\Temp\ccBEkVPc.s:26271  .debug_str:0000000000014784 .LASF2752
C:\Users\CYMR90~1\AppData\Local\Temp\ccBEkVPc.s:26307  .debug_str:0000000000014992 .LASF2753
C:\Users\CYMR90~1\AppData\Local\Temp\ccBEkVPc.s:21369  .debug_str:0000000000000f06 .LASF2754
C:\Users\CYMR90~1\AppData\Local\Temp\ccBEkVPc.s:24609  .debug_str:000000000000de61 .LASF2755
C:\Users\CYMR90~1\AppData\Local\Temp\ccBEkVPc.s:26845  .debug_str:0000000000016c49 .LASF2756
C:\Users\CYMR90~1\AppData\Local\Temp\ccBEkVPc.s:29724  .debug_str:000000000002240e .LASF2757
C:\Users\CYMR90~1\AppData\Local\Temp\ccBEkVPc.s:24945  .debug_str:000000000000f2df .LASF2758
C:\Users\CYMR90~1\AppData\Local\Temp\ccBEkVPc.s:29630  .debug_str:0000000000021e79 .LASF2759
C:\Users\CYMR90~1\AppData\Local\Temp\ccBEkVPc.s:29788  .debug_str:0000000000022790 .LASF2760
C:\Users\CYMR90~1\AppData\Local\Temp\ccBEkVPc.s:27748  .debug_str:000000000001a883 .LASF2761
C:\Users\CYMR90~1\AppData\Local\Temp\ccBEkVPc.s:27002  .debug_str:0000000000017741 .LASF2762
C:\Users\CYMR90~1\AppData\Local\Temp\ccBEkVPc.s:24719  .debug_str:000000000000e4fb .LASF2763
C:\Users\CYMR90~1\AppData\Local\Temp\ccBEkVPc.s:25895  .debug_str:0000000000012f6d .LASF2764
C:\Users\CYMR90~1\AppData\Local\Temp\ccBEkVPc.s:25859  .debug_str:0000000000012d22 .LASF2765
C:\Users\CYMR90~1\AppData\Local\Temp\ccBEkVPc.s:21913  .debug_str:0000000000002fed .LASF2766
C:\Users\CYMR90~1\AppData\Local\Temp\ccBEkVPc.s:21797  .debug_str:00000000000028a1 .LASF2767
C:\Users\CYMR90~1\AppData\Local\Temp\ccBEkVPc.s:29394  .debug_str:0000000000020fb9 .LASF2768
C:\Users\CYMR90~1\AppData\Local\Temp\ccBEkVPc.s:30368  .debug_str:0000000000024b9e .LASF2769
C:\Users\CYMR90~1\AppData\Local\Temp\ccBEkVPc.s:30056  .debug_str:0000000000023751 .LASF2770
C:\Users\CYMR90~1\AppData\Local\Temp\ccBEkVPc.s:23947  .debug_str:000000000000b362 .LASF2771
C:\Users\CYMR90~1\AppData\Local\Temp\ccBEkVPc.s:27136  .debug_str:0000000000017fbd .LASF2772
C:\Users\CYMR90~1\AppData\Local\Temp\ccBEkVPc.s:30346  .debug_str:0000000000024a1a .LASF2773
C:\Users\CYMR90~1\AppData\Local\Temp\ccBEkVPc.s:22207  .debug_str:00000000000043ab .LASF2774
C:\Users\CYMR90~1\AppData\Local\Temp\ccBEkVPc.s:24301  .debug_str:000000000000cb63 .LASF2775
C:\Users\CYMR90~1\AppData\Local\Temp\ccBEkVPc.s:28572  .debug_str:000000000001dd28 .LASF2776
C:\Users\CYMR90~1\AppData\Local\Temp\ccBEkVPc.s:32354  .debug_str:000000000002ccd1 .LASF2777
C:\Users\CYMR90~1\AppData\Local\Temp\ccBEkVPc.s:23705  .debug_str:000000000000a3e2 .LASF2778
C:\Users\CYMR90~1\AppData\Local\Temp\ccBEkVPc.s:26912  .debug_str:00000000000171f8 .LASF2779
C:\Users\CYMR90~1\AppData\Local\Temp\ccBEkVPc.s:30120  .debug_str:0000000000023b49 .LASF2780
C:\Users\CYMR90~1\AppData\Local\Temp\ccBEkVPc.s:28306  .debug_str:000000000001cb71 .LASF2781
C:\Users\CYMR90~1\AppData\Local\Temp\ccBEkVPc.s:21649  .debug_str:0000000000001fdc .LASF2782
C:\Users\CYMR90~1\AppData\Local\Temp\ccBEkVPc.s:26371  .debug_str:0000000000014db4 .LASF2783
C:\Users\CYMR90~1\AppData\Local\Temp\ccBEkVPc.s:31086  .debug_str:0000000000027af5 .LASF2784
C:\Users\CYMR90~1\AppData\Local\Temp\ccBEkVPc.s:24485  .debug_str:000000000000d74b .LASF2785
C:\Users\CYMR90~1\AppData\Local\Temp\ccBEkVPc.s:29176  .debug_str:000000000002024a .LASF2786
C:\Users\CYMR90~1\AppData\Local\Temp\ccBEkVPc.s:31760  .debug_str:000000000002a667 .LASF2787
C:\Users\CYMR90~1\AppData\Local\Temp\ccBEkVPc.s:31970  .debug_str:000000000002b30d .LASF2788
C:\Users\CYMR90~1\AppData\Local\Temp\ccBEkVPc.s:27786  .debug_str:000000000001aaa4 .LASF2789
C:\Users\CYMR90~1\AppData\Local\Temp\ccBEkVPc.s:22947  .debug_str:00000000000072aa .LASF2790
C:\Users\CYMR90~1\AppData\Local\Temp\ccBEkVPc.s:23255  .debug_str:00000000000087e3 .LASF2791
C:\Users\CYMR90~1\AppData\Local\Temp\ccBEkVPc.s:27196  .debug_str:000000000001832a .LASF2792
C:\Users\CYMR90~1\AppData\Local\Temp\ccBEkVPc.s:32070  .debug_str:000000000002b9cf .LASF2793
C:\Users\CYMR90~1\AppData\Local\Temp\ccBEkVPc.s:25643  .debug_str:0000000000011ec5 .LASF2794
C:\Users\CYMR90~1\AppData\Local\Temp\ccBEkVPc.s:26473  .debug_str:000000000001540e .LASF2795
C:\Users\CYMR90~1\AppData\Local\Temp\ccBEkVPc.s:22645  .debug_str:0000000000005f6b .LASF2796
C:\Users\CYMR90~1\AppData\Local\Temp\ccBEkVPc.s:29420  .debug_str:000000000002111d .LASF2797
C:\Users\CYMR90~1\AppData\Local\Temp\ccBEkVPc.s:30784  .debug_str:00000000000267b6 .LASF2798
C:\Users\CYMR90~1\AppData\Local\Temp\ccBEkVPc.s:32172  .debug_str:000000000002c0ed .LASF2799
C:\Users\CYMR90~1\AppData\Local\Temp\ccBEkVPc.s:22163  .debug_str:00000000000040f7 .LASF2800
C:\Users\CYMR90~1\AppData\Local\Temp\ccBEkVPc.s:25901  .debug_str:0000000000012fdd .LASF2801
C:\Users\CYMR90~1\AppData\Local\Temp\ccBEkVPc.s:31278  .debug_str:00000000000288a4 .LASF2802
C:\Users\CYMR90~1\AppData\Local\Temp\ccBEkVPc.s:29240  .debug_str:0000000000020631 .LASF2803
C:\Users\CYMR90~1\AppData\Local\Temp\ccBEkVPc.s:28136  .debug_str:000000000001c092 .LASF2804
C:\Users\CYMR90~1\AppData\Local\Temp\ccBEkVPc.s:27692  .debug_str:000000000001a47f .LASF2805
C:\Users\CYMR90~1\AppData\Local\Temp\ccBEkVPc.s:27616  .debug_str:0000000000019e7a .LASF2806
C:\Users\CYMR90~1\AppData\Local\Temp\ccBEkVPc.s:29830  .debug_str:00000000000229da .LASF2807
C:\Users\CYMR90~1\AppData\Local\Temp\ccBEkVPc.s:28132  .debug_str:000000000001c065 .LASF2808
C:\Users\CYMR90~1\AppData\Local\Temp\ccBEkVPc.s:27258  .debug_str:00000000000186c5 .LASF2809
C:\Users\CYMR90~1\AppData\Local\Temp\ccBEkVPc.s:28658  .debug_str:000000000001e319 .LASF2810
C:\Users\CYMR90~1\AppData\Local\Temp\ccBEkVPc.s:25837  .debug_str:0000000000012bb6 .LASF2811
C:\Users\CYMR90~1\AppData\Local\Temp\ccBEkVPc.s:24571  .debug_str:000000000000dc01 .LASF2812
C:\Users\CYMR90~1\AppData\Local\Temp\ccBEkVPc.s:23699  .debug_str:000000000000a37f .LASF2813
C:\Users\CYMR90~1\AppData\Local\Temp\ccBEkVPc.s:22785  .debug_str:0000000000006830 .LASF2814
C:\Users\CYMR90~1\AppData\Local\Temp\ccBEkVPc.s:21917  .debug_str:0000000000003023 .LASF2815
C:\Users\CYMR90~1\AppData\Local\Temp\ccBEkVPc.s:32396  .debug_str:000000000002cfd4 .LASF2816
C:\Users\CYMR90~1\AppData\Local\Temp\ccBEkVPc.s:31534  .debug_str:0000000000029900 .LASF2817
C:\Users\CYMR90~1\AppData\Local\Temp\ccBEkVPc.s:30276  .debug_str:000000000002458f .LASF2818
C:\Users\CYMR90~1\AppData\Local\Temp\ccBEkVPc.s:22127  .debug_str:0000000000003e3b .LASF2819
C:\Users\CYMR90~1\AppData\Local\Temp\ccBEkVPc.s:25417  .debug_str:000000000001100e .LASF2820
C:\Users\CYMR90~1\AppData\Local\Temp\ccBEkVPc.s:28590  .debug_str:000000000001deb7 .LASF2821
C:\Users\CYMR90~1\AppData\Local\Temp\ccBEkVPc.s:31824  .debug_str:000000000002aa01 .LASF2822
C:\Users\CYMR90~1\AppData\Local\Temp\ccBEkVPc.s:23717  .debug_str:000000000000a4cb .LASF2823
C:\Users\CYMR90~1\AppData\Local\Temp\ccBEkVPc.s:29912  .debug_str:0000000000022f1a .LASF2824
C:\Users\CYMR90~1\AppData\Local\Temp\ccBEkVPc.s:32356  .debug_str:000000000002cce3 .LASF2825
C:\Users\CYMR90~1\AppData\Local\Temp\ccBEkVPc.s:25671  .debug_str:00000000000120a8 .LASF2826
C:\Users\CYMR90~1\AppData\Local\Temp\ccBEkVPc.s:26529  .debug_str:0000000000015715 .LASF2827
C:\Users\CYMR90~1\AppData\Local\Temp\ccBEkVPc.s:21731  .debug_str:0000000000002459 .LASF2828
C:\Users\CYMR90~1\AppData\Local\Temp\ccBEkVPc.s:28376  .debug_str:000000000001d136 .LASF2829
C:\Users\CYMR90~1\AppData\Local\Temp\ccBEkVPc.s:27752  .debug_str:000000000001a8b1 .LASF2830
C:\Users\CYMR90~1\AppData\Local\Temp\ccBEkVPc.s:27792  .debug_str:000000000001ab2f .LASF2831
C:\Users\CYMR90~1\AppData\Local\Temp\ccBEkVPc.s:26755  .debug_str:000000000001654e .LASF2832
C:\Users\CYMR90~1\AppData\Local\Temp\ccBEkVPc.s:24015  .debug_str:000000000000b7f1 .LASF2833
C:\Users\CYMR90~1\AppData\Local\Temp\ccBEkVPc.s:26139  .debug_str:0000000000013f1a .LASF2834
C:\Users\CYMR90~1\AppData\Local\Temp\ccBEkVPc.s:30700  .debug_str:0000000000026248 .LASF2835
C:\Users\CYMR90~1\AppData\Local\Temp\ccBEkVPc.s:27958  .debug_str:000000000001b5ac .LASF2836
C:\Users\CYMR90~1\AppData\Local\Temp\ccBEkVPc.s:22625  .debug_str:0000000000005e36 .LASF2837
C:\Users\CYMR90~1\AppData\Local\Temp\ccBEkVPc.s:24569  .debug_str:000000000000dbdf .LASF2838
C:\Users\CYMR90~1\AppData\Local\Temp\ccBEkVPc.s:26451  .debug_str:00000000000152e8 .LASF2839
C:\Users\CYMR90~1\AppData\Local\Temp\ccBEkVPc.s:30370  .debug_str:0000000000024bbb .LASF2840
C:\Users\CYMR90~1\AppData\Local\Temp\ccBEkVPc.s:24137  .debug_str:000000000000c045 .LASF2841
C:\Users\CYMR90~1\AppData\Local\Temp\ccBEkVPc.s:24701  .debug_str:000000000000e3fe .LASF2842
C:\Users\CYMR90~1\AppData\Local\Temp\ccBEkVPc.s:28704  .debug_str:000000000001e5c1 .LASF2843
C:\Users\CYMR90~1\AppData\Local\Temp\ccBEkVPc.s:22385  .debug_str:0000000000004f9a .LASF2844
C:\Users\CYMR90~1\AppData\Local\Temp\ccBEkVPc.s:31930  .debug_str:000000000002b04d .LASF2845
C:\Users\CYMR90~1\AppData\Local\Temp\ccBEkVPc.s:30134  .debug_str:0000000000023bfa .LASF2846
C:\Users\CYMR90~1\AppData\Local\Temp\ccBEkVPc.s:30932  .debug_str:00000000000270a6 .LASF2847
C:\Users\CYMR90~1\AppData\Local\Temp\ccBEkVPc.s:31784  .debug_str:000000000002a7cb .LASF2848
C:\Users\CYMR90~1\AppData\Local\Temp\ccBEkVPc.s:32426  .debug_str:000000000002d194 .LASF2849
C:\Users\CYMR90~1\AppData\Local\Temp\ccBEkVPc.s:21891  .debug_str:0000000000002e84 .LASF2850
C:\Users\CYMR90~1\AppData\Local\Temp\ccBEkVPc.s:21627  .debug_str:0000000000001ebd .LASF2851
C:\Users\CYMR90~1\AppData\Local\Temp\ccBEkVPc.s:28732  .debug_str:000000000001e76c .LASF2852
C:\Users\CYMR90~1\AppData\Local\Temp\ccBEkVPc.s:21867  .debug_str:0000000000002d0d .LASF2853
C:\Users\CYMR90~1\AppData\Local\Temp\ccBEkVPc.s:21187  .debug_str:000000000000038d .LASF2854
C:\Users\CYMR90~1\AppData\Local\Temp\ccBEkVPc.s:32216  .debug_str:000000000002c393 .LASF2855
C:\Users\CYMR90~1\AppData\Local\Temp\ccBEkVPc.s:30836  .debug_str:0000000000026ada .LASF2856
C:\Users\CYMR90~1\AppData\Local\Temp\ccBEkVPc.s:22607  .debug_str:0000000000005d3d .LASF2857
C:\Users\CYMR90~1\AppData\Local\Temp\ccBEkVPc.s:31900  .debug_str:000000000002aeaf .LASF2858
C:\Users\CYMR90~1\AppData\Local\Temp\ccBEkVPc.s:28292  .debug_str:000000000001cab0 .LASF2859
C:\Users\CYMR90~1\AppData\Local\Temp\ccBEkVPc.s:29290  .debug_str:0000000000020966 .LASF2860
C:\Users\CYMR90~1\AppData\Local\Temp\ccBEkVPc.s:25075  .debug_str:000000000000fb29 .LASF2861
C:\Users\CYMR90~1\AppData\Local\Temp\ccBEkVPc.s:24205  .debug_str:000000000000c425 .LASF2862
C:\Users\CYMR90~1\AppData\Local\Temp\ccBEkVPc.s:28022  .debug_str:000000000001b9c1 .LASF2863
C:\Users\CYMR90~1\AppData\Local\Temp\ccBEkVPc.s:31242  .debug_str:0000000000028608 .LASF2864
C:\Users\CYMR90~1\AppData\Local\Temp\ccBEkVPc.s:29684  .debug_str:0000000000022181 .LASF2865
C:\Users\CYMR90~1\AppData\Local\Temp\ccBEkVPc.s:28014  .debug_str:000000000001b925 .LASF2866
C:\Users\CYMR90~1\AppData\Local\Temp\ccBEkVPc.s:22217  .debug_str:0000000000004452 .LASF2867
C:\Users\CYMR90~1\AppData\Local\Temp\ccBEkVPc.s:28338  .debug_str:000000000001cd96 .LASF2868
C:\Users\CYMR90~1\AppData\Local\Temp\ccBEkVPc.s:31496  .debug_str:0000000000029695 .LASF2869
C:\Users\CYMR90~1\AppData\Local\Temp\ccBEkVPc.s:23101  .debug_str:0000000000007cbf .LASF2870
C:\Users\CYMR90~1\AppData\Local\Temp\ccBEkVPc.s:28472  .debug_str:000000000001d6d5 .LASF2871
C:\Users\CYMR90~1\AppData\Local\Temp\ccBEkVPc.s:24509  .debug_str:000000000000d88d .LASF2872
C:\Users\CYMR90~1\AppData\Local\Temp\ccBEkVPc.s:31992  .debug_str:000000000002b49b .LASF2873
C:\Users\CYMR90~1\AppData\Local\Temp\ccBEkVPc.s:27128  .debug_str:0000000000017f36 .LASF2874
C:\Users\CYMR90~1\AppData\Local\Temp\ccBEkVPc.s:22089  .debug_str:0000000000003b88 .LASF2875
C:\Users\CYMR90~1\AppData\Local\Temp\ccBEkVPc.s:32034  .debug_str:000000000002b733 .LASF2876
C:\Users\CYMR90~1\AppData\Local\Temp\ccBEkVPc.s:24775  .debug_str:000000000000e8af .LASF2877
C:\Users\CYMR90~1\AppData\Local\Temp\ccBEkVPc.s:24891  .debug_str:000000000000ef82 .LASF2878
C:\Users\CYMR90~1\AppData\Local\Temp\ccBEkVPc.s:26353  .debug_str:0000000000014c5d .LASF2879
C:\Users\CYMR90~1\AppData\Local\Temp\ccBEkVPc.s:26255  .debug_str:0000000000014657 .LASF2880
C:\Users\CYMR90~1\AppData\Local\Temp\ccBEkVPc.s:24915  .debug_str:000000000000f0ea .LASF2881
C:\Users\CYMR90~1\AppData\Local\Temp\ccBEkVPc.s:22977  .debug_str:00000000000074bf .LASF2882
C:\Users\CYMR90~1\AppData\Local\Temp\ccBEkVPc.s:30074  .debug_str:000000000002388b .LASF2883
C:\Users\CYMR90~1\AppData\Local\Temp\ccBEkVPc.s:26946  .debug_str:00000000000173e9 .LASF2884
C:\Users\CYMR90~1\AppData\Local\Temp\ccBEkVPc.s:26037  .debug_str:0000000000013907 .LASF2885
C:\Users\CYMR90~1\AppData\Local\Temp\ccBEkVPc.s:23325  .debug_str:0000000000008c2c .LASF2886
C:\Users\CYMR90~1\AppData\Local\Temp\ccBEkVPc.s:31746  .debug_str:000000000002a55c .LASF2887
C:\Users\CYMR90~1\AppData\Local\Temp\ccBEkVPc.s:32208  .debug_str:000000000002c31d .LASF2888
C:\Users\CYMR90~1\AppData\Local\Temp\ccBEkVPc.s:26441  .debug_str:0000000000015234 .LASF2889
C:\Users\CYMR90~1\AppData\Local\Temp\ccBEkVPc.s:22451  .debug_str:0000000000005399 .LASF2890
C:\Users\CYMR90~1\AppData\Local\Temp\ccBEkVPc.s:26625  .debug_str:0000000000015d4a .LASF2891
C:\Users\CYMR90~1\AppData\Local\Temp\ccBEkVPc.s:32174  .debug_str:000000000002c10d .LASF2892
C:\Users\CYMR90~1\AppData\Local\Temp\ccBEkVPc.s:25267  .debug_str:0000000000010711 .LASF2893
C:\Users\CYMR90~1\AppData\Local\Temp\ccBEkVPc.s:23739  .debug_str:000000000000a621 .LASF2894
C:\Users\CYMR90~1\AppData\Local\Temp\ccBEkVPc.s:21281  .debug_str:00000000000008f1 .LASF2895
C:\Users\CYMR90~1\AppData\Local\Temp\ccBEkVPc.s:29284  .debug_str:00000000000208e7 .LASF2896
C:\Users\CYMR90~1\AppData\Local\Temp\ccBEkVPc.s:32278  .debug_str:000000000002c7a9 .LASF2897
C:\Users\CYMR90~1\AppData\Local\Temp\ccBEkVPc.s:30196  .debug_str:0000000000023f64 .LASF2898
C:\Users\CYMR90~1\AppData\Local\Temp\ccBEkVPc.s:29594  .debug_str:0000000000021c02 .LASF2899
C:\Users\CYMR90~1\AppData\Local\Temp\ccBEkVPc.s:22413  .debug_str:0000000000005155 .LASF2900
C:\Users\CYMR90~1\AppData\Local\Temp\ccBEkVPc.s:32402  .debug_str:000000000002d014 .LASF2901
C:\Users\CYMR90~1\AppData\Local\Temp\ccBEkVPc.s:24793  .debug_str:000000000000e9b1 .LASF2902
C:\Users\CYMR90~1\AppData\Local\Temp\ccBEkVPc.s:28148  .debug_str:000000000001c160 .LASF2903
C:\Users\CYMR90~1\AppData\Local\Temp\ccBEkVPc.s:29836  .debug_str:0000000000022a4e .LASF2904
C:\Users\CYMR90~1\AppData\Local\Temp\ccBEkVPc.s:30412  .debug_str:0000000000024e50 .LASF2905
C:\Users\CYMR90~1\AppData\Local\Temp\ccBEkVPc.s:24507  .debug_str:000000000000d874 .LASF2906
C:\Users\CYMR90~1\AppData\Local\Temp\ccBEkVPc.s:29274  .debug_str:0000000000020855 .LASF2907
C:\Users\CYMR90~1\AppData\Local\Temp\ccBEkVPc.s:31610  .debug_str:0000000000029d66 .LASF2908
C:\Users\CYMR90~1\AppData\Local\Temp\ccBEkVPc.s:24159  .debug_str:000000000000c1ad .LASF2909
C:\Users\CYMR90~1\AppData\Local\Temp\ccBEkVPc.s:22933  .debug_str:00000000000071b4 .LASF2910
C:\Users\CYMR90~1\AppData\Local\Temp\ccBEkVPc.s:29446  .debug_str:00000000000212aa .LASF2911
C:\Users\CYMR90~1\AppData\Local\Temp\ccBEkVPc.s:25115  .debug_str:000000000000fdb9 .LASF2912
C:\Users\CYMR90~1\AppData\Local\Temp\ccBEkVPc.s:21875  .debug_str:0000000000002d8f .LASF2913
C:\Users\CYMR90~1\AppData\Local\Temp\ccBEkVPc.s:24219  .debug_str:000000000000c507 .LASF2914
C:\Users\CYMR90~1\AppData\Local\Temp\ccBEkVPc.s:24725  .debug_str:000000000000e55d .LASF2915
C:\Users\CYMR90~1\AppData\Local\Temp\ccBEkVPc.s:32024  .debug_str:000000000002b6a7 .LASF2916
C:\Users\CYMR90~1\AppData\Local\Temp\ccBEkVPc.s:22901  .debug_str:0000000000006f5f .LASF2917
C:\Users\CYMR90~1\AppData\Local\Temp\ccBEkVPc.s:29172  .debug_str:000000000002020b .LASF2918
C:\Users\CYMR90~1\AppData\Local\Temp\ccBEkVPc.s:25103  .debug_str:000000000000fce6 .LASF2919
C:\Users\CYMR90~1\AppData\Local\Temp\ccBEkVPc.s:26958  .debug_str:00000000000174c0 .LASF2920
C:\Users\CYMR90~1\AppData\Local\Temp\ccBEkVPc.s:23551  .debug_str:0000000000009a62 .LASF2921
C:\Users\CYMR90~1\AppData\Local\Temp\ccBEkVPc.s:23659  .debug_str:000000000000a128 .LASF2922
C:\Users\CYMR90~1\AppData\Local\Temp\ccBEkVPc.s:24677  .debug_str:000000000000e266 .LASF2923
C:\Users\CYMR90~1\AppData\Local\Temp\ccBEkVPc.s:23773  .debug_str:000000000000a7e7 .LASF2924
C:\Users\CYMR90~1\AppData\Local\Temp\ccBEkVPc.s:30416  .debug_str:0000000000024e8d .LASF2925
C:\Users\CYMR90~1\AppData\Local\Temp\ccBEkVPc.s:24845  .debug_str:000000000000ed31 .LASF2926
C:\Users\CYMR90~1\AppData\Local\Temp\ccBEkVPc.s:25411  .debug_str:0000000000010fba .LASF2927
C:\Users\CYMR90~1\AppData\Local\Temp\ccBEkVPc.s:31166  .debug_str:0000000000028099 .LASF2928
C:\Users\CYMR90~1\AppData\Local\Temp\ccBEkVPc.s:23289  .debug_str:00000000000089f2 .LASF2929
C:\Users\CYMR90~1\AppData\Local\Temp\ccBEkVPc.s:32096  .debug_str:000000000002bb97 .LASF2930
C:\Users\CYMR90~1\AppData\Local\Temp\ccBEkVPc.s:31258  .debug_str:000000000002874c .LASF2931
C:\Users\CYMR90~1\AppData\Local\Temp\ccBEkVPc.s:31526  .debug_str:000000000002989d .LASF2932
C:\Users\CYMR90~1\AppData\Local\Temp\ccBEkVPc.s:22137  .debug_str:0000000000003ee5 .LASF2933
C:\Users\CYMR90~1\AppData\Local\Temp\ccBEkVPc.s:28200  .debug_str:000000000001c480 .LASF2934
C:\Users\CYMR90~1\AppData\Local\Temp\ccBEkVPc.s:28000  .debug_str:000000000001b849 .LASF2935
C:\Users\CYMR90~1\AppData\Local\Temp\ccBEkVPc.s:30430  .debug_str:0000000000024f4a .LASF2936
C:\Users\CYMR90~1\AppData\Local\Temp\ccBEkVPc.s:24513  .debug_str:000000000000d8d1 .LASF2937
C:\Users\CYMR90~1\AppData\Local\Temp\ccBEkVPc.s:27604  .debug_str:0000000000019de7 .LASF2938
C:\Users\CYMR90~1\AppData\Local\Temp\ccBEkVPc.s:21409  .debug_str:0000000000001153 .LASF2939
C:\Users\CYMR90~1\AppData\Local\Temp\ccBEkVPc.s:24889  .debug_str:000000000000ef68 .LASF2940
C:\Users\CYMR90~1\AppData\Local\Temp\ccBEkVPc.s:28204  .debug_str:000000000001c4b4 .LASF2941
C:\Users\CYMR90~1\AppData\Local\Temp\ccBEkVPc.s:31540  .debug_str:0000000000029945 .LASF2942
C:\Users\CYMR90~1\AppData\Local\Temp\ccBEkVPc.s:21541  .debug_str:0000000000001996 .LASF2943
C:\Users\CYMR90~1\AppData\Local\Temp\ccBEkVPc.s:23625  .debug_str:0000000000009f07 .LASF2944
C:\Users\CYMR90~1\AppData\Local\Temp\ccBEkVPc.s:30962  .debug_str:0000000000027351 .LASF2945
C:\Users\CYMR90~1\AppData\Local\Temp\ccBEkVPc.s:23177  .debug_str:0000000000008308 .LASF2946
C:\Users\CYMR90~1\AppData\Local\Temp\ccBEkVPc.s:24683  .debug_str:000000000000e2df .LASF2947
C:\Users\CYMR90~1\AppData\Local\Temp\ccBEkVPc.s:30198  .debug_str:0000000000023f90 .LASF2948
C:\Users\CYMR90~1\AppData\Local\Temp\ccBEkVPc.s:27536  .debug_str:0000000000019994 .LASF2949
C:\Users\CYMR90~1\AppData\Local\Temp\ccBEkVPc.s:29042  .debug_str:000000000001fa03 .LASF2950
C:\Users\CYMR90~1\AppData\Local\Temp\ccBEkVPc.s:28960  .debug_str:000000000001f53b .LASF2951
C:\Users\CYMR90~1\AppData\Local\Temp\ccBEkVPc.s:23151  .debug_str:00000000000080ab .LASF2952
C:\Users\CYMR90~1\AppData\Local\Temp\ccBEkVPc.s:31152  .debug_str:0000000000027f70 .LASF2953
C:\Users\CYMR90~1\AppData\Local\Temp\ccBEkVPc.s:30654  .debug_str:0000000000025f9c .LASF2954
C:\Users\CYMR90~1\AppData\Local\Temp\ccBEkVPc.s:30424  .debug_str:0000000000024f05 .LASF2955
C:\Users\CYMR90~1\AppData\Local\Temp\ccBEkVPc.s:22115  .debug_str:0000000000003d3b .LASF2956
C:\Users\CYMR90~1\AppData\Local\Temp\ccBEkVPc.s:29424  .debug_str:0000000000021184 .LASF2957
C:\Users\CYMR90~1\AppData\Local\Temp\ccBEkVPc.s:25379  .debug_str:0000000000010e17 .LASF2958
C:\Users\CYMR90~1\AppData\Local\Temp\ccBEkVPc.s:30904  .debug_str:0000000000026f2f .LASF2959
C:\Users\CYMR90~1\AppData\Local\Temp\ccBEkVPc.s:30078  .debug_str:00000000000238c8 .LASF2960
C:\Users\CYMR90~1\AppData\Local\Temp\ccBEkVPc.s:26902  .debug_str:0000000000017176 .LASF2961
C:\Users\CYMR90~1\AppData\Local\Temp\ccBEkVPc.s:26647  .debug_str:0000000000015ed5 .LASF2962
C:\Users\CYMR90~1\AppData\Local\Temp\ccBEkVPc.s:28916  .debug_str:000000000001f293 .LASF2963
C:\Users\CYMR90~1\AppData\Local\Temp\ccBEkVPc.s:25339  .debug_str:0000000000010b5d .LASF2964
C:\Users\CYMR90~1\AppData\Local\Temp\ccBEkVPc.s:25471  .debug_str:000000000001132a .LASF2965
C:\Users\CYMR90~1\AppData\Local\Temp\ccBEkVPc.s:24861  .debug_str:000000000000ee00 .LASF2966
C:\Users\CYMR90~1\AppData\Local\Temp\ccBEkVPc.s:24997  .debug_str:000000000000f5fd .LASF2967
C:\Users\CYMR90~1\AppData\Local\Temp\ccBEkVPc.s:28644  .debug_str:000000000001e227 .LASF2968
C:\Users\CYMR90~1\AppData\Local\Temp\ccBEkVPc.s:31276  .debug_str:000000000002888b .LASF2969
C:\Users\CYMR90~1\AppData\Local\Temp\ccBEkVPc.s:26767  .debug_str:000000000001668c .LASF2970
C:\Users\CYMR90~1\AppData\Local\Temp\ccBEkVPc.s:30192  .debug_str:0000000000023f35 .LASF2971
C:\Users\CYMR90~1\AppData\Local\Temp\ccBEkVPc.s:27640  .debug_str:0000000000019fef .LASF2972
C:\Users\CYMR90~1\AppData\Local\Temp\ccBEkVPc.s:22925  .debug_str:000000000000710c .LASF2973
C:\Users\CYMR90~1\AppData\Local\Temp\ccBEkVPc.s:31326  .debug_str:0000000000028ba5 .LASF2974
C:\Users\CYMR90~1\AppData\Local\Temp\ccBEkVPc.s:23677  .debug_str:000000000000a238 .LASF2975
C:\Users\CYMR90~1\AppData\Local\Temp\ccBEkVPc.s:26143  .debug_str:0000000000013f50 .LASF2976
C:\Users\CYMR90~1\AppData\Local\Temp\ccBEkVPc.s:24823  .debug_str:000000000000ebb0 .LASF2977
C:\Users\CYMR90~1\AppData\Local\Temp\ccBEkVPc.s:26495  .debug_str:0000000000015538 .LASF2978
C:\Users\CYMR90~1\AppData\Local\Temp\ccBEkVPc.s:29364  .debug_str:0000000000020e13 .LASF2979
C:\Users\CYMR90~1\AppData\Local\Temp\ccBEkVPc.s:27284  .debug_str:000000000001884c .LASF2980
C:\Users\CYMR90~1\AppData\Local\Temp\ccBEkVPc.s:29218  .debug_str:0000000000020497 .LASF2981
C:\Users\CYMR90~1\AppData\Local\Temp\ccBEkVPc.s:31420  .debug_str:000000000002916f .LASF2982
C:\Users\CYMR90~1\AppData\Local\Temp\ccBEkVPc.s:29856  .debug_str:0000000000022b64 .LASF2983
C:\Users\CYMR90~1\AppData\Local\Temp\ccBEkVPc.s:29422  .debug_str:000000000002113d .LASF2984
C:\Users\CYMR90~1\AppData\Local\Temp\ccBEkVPc.s:32228  .debug_str:000000000002c4ba .LASF2985
C:\Users\CYMR90~1\AppData\Local\Temp\ccBEkVPc.s:24795  .debug_str:000000000000e9c5 .LASF2986
C:\Users\CYMR90~1\AppData\Local\Temp\ccBEkVPc.s:30944  .debug_str:0000000000027181 .LASF2987
C:\Users\CYMR90~1\AppData\Local\Temp\ccBEkVPc.s:30688  .debug_str:00000000000261b8 .LASF2988
C:\Users\CYMR90~1\AppData\Local\Temp\ccBEkVPc.s:24135  .debug_str:000000000000c01d .LASF2989
C:\Users\CYMR90~1\AppData\Local\Temp\ccBEkVPc.s:26543  .debug_str:00000000000157e2 .LASF2990
C:\Users\CYMR90~1\AppData\Local\Temp\ccBEkVPc.s:26443  .debug_str:000000000001525f .LASF2991
C:\Users\CYMR90~1\AppData\Local\Temp\ccBEkVPc.s:27348  .debug_str:0000000000018d35 .LASF2992
C:\Users\CYMR90~1\AppData\Local\Temp\ccBEkVPc.s:29048  .debug_str:000000000001fa68 .LASF2993
C:\Users\CYMR90~1\AppData\Local\Temp\ccBEkVPc.s:29560  .debug_str:0000000000021a0c .LASF2994
C:\Users\CYMR90~1\AppData\Local\Temp\ccBEkVPc.s:32360  .debug_str:000000000002cd07 .LASF2995
C:\Users\CYMR90~1\AppData\Local\Temp\ccBEkVPc.s:25051  .debug_str:000000000000f9c1 .LASF2996
C:\Users\CYMR90~1\AppData\Local\Temp\ccBEkVPc.s:21889  .debug_str:0000000000002e58 .LASF2997
C:\Users\CYMR90~1\AppData\Local\Temp\ccBEkVPc.s:24907  .debug_str:000000000000f079 .LASF2998
C:\Users\CYMR90~1\AppData\Local\Temp\ccBEkVPc.s:28402  .debug_str:000000000001d2ba .LASF2999
C:\Users\CYMR90~1\AppData\Local\Temp\ccBEkVPc.s:26517  .debug_str:0000000000015660 .LASF3000
C:\Users\CYMR90~1\AppData\Local\Temp\ccBEkVPc.s:25527  .debug_str:0000000000011696 .LASF3001
C:\Users\CYMR90~1\AppData\Local\Temp\ccBEkVPc.s:28144  .debug_str:000000000001c129 .LASF3002
C:\Users\CYMR90~1\AppData\Local\Temp\ccBEkVPc.s:27164  .debug_str:000000000001812a .LASF3003
C:\Users\CYMR90~1\AppData\Local\Temp\ccBEkVPc.s:29078  .debug_str:000000000001fc5f .LASF3004
C:\Users\CYMR90~1\AppData\Local\Temp\ccBEkVPc.s:25341  .debug_str:0000000000010b75 .LASF3005
C:\Users\CYMR90~1\AppData\Local\Temp\ccBEkVPc.s:31210  .debug_str:00000000000283d8 .LASF3006
C:\Users\CYMR90~1\AppData\Local\Temp\ccBEkVPc.s:23397  .debug_str:0000000000009093 .LASF3007
C:\Users\CYMR90~1\AppData\Local\Temp\ccBEkVPc.s:22459  .debug_str:0000000000005437 .LASF3008
C:\Users\CYMR90~1\AppData\Local\Temp\ccBEkVPc.s:21523  .debug_str:0000000000001893 .LASF3009
C:\Users\CYMR90~1\AppData\Local\Temp\ccBEkVPc.s:31914  .debug_str:000000000002af81 .LASF3010
C:\Users\CYMR90~1\AppData\Local\Temp\ccBEkVPc.s:31772  .debug_str:000000000002a712 .LASF3011
C:\Users\CYMR90~1\AppData\Local\Temp\ccBEkVPc.s:28530  .debug_str:000000000001dabf .LASF3012
C:\Users\CYMR90~1\AppData\Local\Temp\ccBEkVPc.s:27684  .debug_str:000000000001a26c .LASF3013
C:\Users\CYMR90~1\AppData\Local\Temp\ccBEkVPc.s:26687  .debug_str:00000000000161a8 .LASF3014
C:\Users\CYMR90~1\AppData\Local\Temp\ccBEkVPc.s:25757  .debug_str:000000000001265f .LASF3015
C:\Users\CYMR90~1\AppData\Local\Temp\ccBEkVPc.s:24785  .debug_str:000000000000e940 .LASF3016
C:\Users\CYMR90~1\AppData\Local\Temp\ccBEkVPc.s:24921  .debug_str:000000000000f143 .LASF3017
C:\Users\CYMR90~1\AppData\Local\Temp\ccBEkVPc.s:30896  .debug_str:0000000000026e88 .LASF3018
C:\Users\CYMR90~1\AppData\Local\Temp\ccBEkVPc.s:30684  .debug_str:0000000000026162 .LASF3019
C:\Users\CYMR90~1\AppData\Local\Temp\ccBEkVPc.s:25243  .debug_str:00000000000105a1 .LASF3020
C:\Users\CYMR90~1\AppData\Local\Temp\ccBEkVPc.s:24093  .debug_str:000000000000bd14 .LASF3021
C:\Users\CYMR90~1\AppData\Local\Temp\ccBEkVPc.s:22981  .debug_str:000000000000750a .LASF3022
C:\Users\CYMR90~1\AppData\Local\Temp\ccBEkVPc.s:28368  .debug_str:000000000001d01d .LASF3023
C:\Users\CYMR90~1\AppData\Local\Temp\ccBEkVPc.s:29978  .debug_str:000000000002327e .LASF3024
C:\Users\CYMR90~1\AppData\Local\Temp\ccBEkVPc.s:24267  .debug_str:000000000000c838 .LASF3025
C:\Users\CYMR90~1\AppData\Local\Temp\ccBEkVPc.s:22529  .debug_str:0000000000005885 .LASF3026
C:\Users\CYMR90~1\AppData\Local\Temp\ccBEkVPc.s:22317  .debug_str:0000000000004b73 .LASF3027
C:\Users\CYMR90~1\AppData\Local\Temp\ccBEkVPc.s:28284  .debug_str:000000000001ca26 .LASF3028
C:\Users\CYMR90~1\AppData\Local\Temp\ccBEkVPc.s:26783  .debug_str:0000000000016787 .LASF3029
C:\Users\CYMR90~1\AppData\Local\Temp\ccBEkVPc.s:21821  .debug_str:0000000000002a25 .LASF3030
C:\Users\CYMR90~1\AppData\Local\Temp\ccBEkVPc.s:32300  .debug_str:000000000002c94f .LASF3031
C:\Users\CYMR90~1\AppData\Local\Temp\ccBEkVPc.s:31250  .debug_str:00000000000286a0 .LASF3032
C:\Users\CYMR90~1\AppData\Local\Temp\ccBEkVPc.s:22287  .debug_str:0000000000004987 .LASF3033
C:\Users\CYMR90~1\AppData\Local\Temp\ccBEkVPc.s:28124  .debug_str:000000000001bfde .LASF3034
C:\Users\CYMR90~1\AppData\Local\Temp\ccBEkVPc.s:25345  .debug_str:0000000000010bba .LASF3035
C:\Users\CYMR90~1\AppData\Local\Temp\ccBEkVPc.s:28422  .debug_str:000000000001d3e5 .LASF3036
C:\Users\CYMR90~1\AppData\Local\Temp\ccBEkVPc.s:21223  .debug_str:000000000000058a .LASF3037
C:\Users\CYMR90~1\AppData\Local\Temp\ccBEkVPc.s:25923  .debug_str:0000000000013168 .LASF3038
C:\Users\CYMR90~1\AppData\Local\Temp\ccBEkVPc.s:30632  .debug_str:0000000000025e1a .LASF3039
C:\Users\CYMR90~1\AppData\Local\Temp\ccBEkVPc.s:25833  .debug_str:0000000000012b82 .LASF3040
C:\Users\CYMR90~1\AppData\Local\Temp\ccBEkVPc.s:22691  .debug_str:000000000000624e .LASF3041
C:\Users\CYMR90~1\AppData\Local\Temp\ccBEkVPc.s:23273  .debug_str:0000000000008903 .LASF3042
C:\Users\CYMR90~1\AppData\Local\Temp\ccBEkVPc.s:25595  .debug_str:0000000000011be7 .LASF3043
C:\Users\CYMR90~1\AppData\Local\Temp\ccBEkVPc.s:24131  .debug_str:000000000000bfeb .LASF3044
C:\Users\CYMR90~1\AppData\Local\Temp\ccBEkVPc.s:27986  .debug_str:000000000001b75a .LASF3045
C:\Users\CYMR90~1\AppData\Local\Temp\ccBEkVPc.s:24483  .debug_str:000000000000d72d .LASF3046
C:\Users\CYMR90~1\AppData\Local\Temp\ccBEkVPc.s:23461  .debug_str:0000000000009447 .LASF3047
C:\Users\CYMR90~1\AppData\Local\Temp\ccBEkVPc.s:30332  .debug_str:0000000000024955 .LASF3048
C:\Users\CYMR90~1\AppData\Local\Temp\ccBEkVPc.s:25641  .debug_str:0000000000011ea5 .LASF3049
C:\Users\CYMR90~1\AppData\Local\Temp\ccBEkVPc.s:29946  .debug_str:00000000000230e9 .LASF3050
C:\Users\CYMR90~1\AppData\Local\Temp\ccBEkVPc.s:23799  .debug_str:000000000000a9a3 .LASF3051
C:\Users\CYMR90~1\AppData\Local\Temp\ccBEkVPc.s:27550  .debug_str:0000000000019aa1 .LASF3052
C:\Users\CYMR90~1\AppData\Local\Temp\ccBEkVPc.s:30858  .debug_str:0000000000026c0d .LASF3053
C:\Users\CYMR90~1\AppData\Local\Temp\ccBEkVPc.s:24511  .debug_str:000000000000d8ac .LASF3054
C:\Users\CYMR90~1\AppData\Local\Temp\ccBEkVPc.s:22579  .debug_str:0000000000005b97 .LASF3055
C:\Users\CYMR90~1\AppData\Local\Temp\ccBEkVPc.s:24117  .debug_str:000000000000bed8 .LASF3056
C:\Users\CYMR90~1\AppData\Local\Temp\ccBEkVPc.s:22885  .debug_str:0000000000006e82 .LASF3057
C:\Users\CYMR90~1\AppData\Local\Temp\ccBEkVPc.s:24811  .debug_str:000000000000eb19 .LASF3058
C:\Users\CYMR90~1\AppData\Local\Temp\ccBEkVPc.s:21367  .debug_str:0000000000000ee9 .LASF3059
C:\Users\CYMR90~1\AppData\Local\Temp\ccBEkVPc.s:32048  .debug_str:000000000002b847 .LASF3060
C:\Users\CYMR90~1\AppData\Local\Temp\ccBEkVPc.s:31648  .debug_str:0000000000029f8d .LASF3061
C:\Users\CYMR90~1\AppData\Local\Temp\ccBEkVPc.s:29090  .debug_str:000000000001fd1d .LASF3062
C:\Users\CYMR90~1\AppData\Local\Temp\ccBEkVPc.s:30190  .debug_str:0000000000023f1d .LASF3063
C:\Users\CYMR90~1\AppData\Local\Temp\ccBEkVPc.s:28662  .debug_str:000000000001e34f .LASF3064
C:\Users\CYMR90~1\AppData\Local\Temp\ccBEkVPc.s:29054  .debug_str:000000000001fab2 .LASF3065
C:\Users\CYMR90~1\AppData\Local\Temp\ccBEkVPc.s:31000  .debug_str:000000000002759e .LASF3066
C:\Users\CYMR90~1\AppData\Local\Temp\ccBEkVPc.s:26223  .debug_str:0000000000014413 .LASF3067
C:\Users\CYMR90~1\AppData\Local\Temp\ccBEkVPc.s:26789  .debug_str:00000000000167e2 .LASF3068
C:\Users\CYMR90~1\AppData\Local\Temp\ccBEkVPc.s:21619  .debug_str:0000000000001e40 .LASF3069
C:\Users\CYMR90~1\AppData\Local\Temp\ccBEkVPc.s:29040  .debug_str:000000000001f9c9 .LASF3070
C:\Users\CYMR90~1\AppData\Local\Temp\ccBEkVPc.s:28988  .debug_str:000000000001f6de .LASF3071
C:\Users\CYMR90~1\AppData\Local\Temp\ccBEkVPc.s:28098  .debug_str:000000000001be0f .LASF3072
C:\Users\CYMR90~1\AppData\Local\Temp\ccBEkVPc.s:21781  .debug_str:00000000000027ac .LASF3073
C:\Users\CYMR90~1\AppData\Local\Temp\ccBEkVPc.s:30500  .debug_str:00000000000254eb .LASF3074
C:\Users\CYMR90~1\AppData\Local\Temp\ccBEkVPc.s:24403  .debug_str:000000000000d156 .LASF3075
C:\Users\CYMR90~1\AppData\Local\Temp\ccBEkVPc.s:22133  .debug_str:0000000000003e97 .LASF3076
C:\Users\CYMR90~1\AppData\Local\Temp\ccBEkVPc.s:21871  .debug_str:0000000000002d44 .LASF3077
C:\Users\CYMR90~1\AppData\Local\Temp\ccBEkVPc.s:23285  .debug_str:00000000000089b4 .LASF3078
C:\Users\CYMR90~1\AppData\Local\Temp\ccBEkVPc.s:28652  .debug_str:000000000001e2b1 .LASF3079
C:\Users\CYMR90~1\AppData\Local\Temp\ccBEkVPc.s:29782  .debug_str:000000000002272e .LASF3080
C:\Users\CYMR90~1\AppData\Local\Temp\ccBEkVPc.s:23669  .debug_str:000000000000a1c5 .LASF3081
C:\Users\CYMR90~1\AppData\Local\Temp\ccBEkVPc.s:24603  .debug_str:000000000000ddc6 .LASF3082
C:\Users\CYMR90~1\AppData\Local\Temp\ccBEkVPc.s:26585  .debug_str:0000000000015a86 .LASF3083
C:\Users\CYMR90~1\AppData\Local\Temp\ccBEkVPc.s:24645  .debug_str:000000000000e091 .LASF3084
C:\Users\CYMR90~1\AppData\Local\Temp\ccBEkVPc.s:27868  .debug_str:000000000001aff6 .LASF3085
C:\Users\CYMR90~1\AppData\Local\Temp\ccBEkVPc.s:27512  .debug_str:0000000000019784 .LASF3086
C:\Users\CYMR90~1\AppData\Local\Temp\ccBEkVPc.s:24125  .debug_str:000000000000bf5c .LASF3087
C:\Users\CYMR90~1\AppData\Local\Temp\ccBEkVPc.s:29246  .debug_str:0000000000020676 .LASF3088
C:\Users\CYMR90~1\AppData\Local\Temp\ccBEkVPc.s:27064  .debug_str:0000000000017b5a .LASF3089
C:\Users\CYMR90~1\AppData\Local\Temp\ccBEkVPc.s:31244  .debug_str:000000000002862e .LASF3090
C:\Users\CYMR90~1\AppData\Local\Temp\ccBEkVPc.s:28758  .debug_str:000000000001e90b .LASF3091
C:\Users\CYMR90~1\AppData\Local\Temp\ccBEkVPc.s:28074  .debug_str:000000000001bc50 .LASF3092
C:\Users\CYMR90~1\AppData\Local\Temp\ccBEkVPc.s:31122  .debug_str:0000000000027d73 .LASF3093
C:\Users\CYMR90~1\AppData\Local\Temp\ccBEkVPc.s:21645  .debug_str:0000000000001fab .LASF3094
C:\Users\CYMR90~1\AppData\Local\Temp\ccBEkVPc.s:24835  .debug_str:000000000000ec8f .LASF3095
C:\Users\CYMR90~1\AppData\Local\Temp\ccBEkVPc.s:24877  .debug_str:000000000000eec1 .LASF3096
C:\Users\CYMR90~1\AppData\Local\Temp\ccBEkVPc.s:30772  .debug_str:00000000000266d4 .LASF3097
C:\Users\CYMR90~1\AppData\Local\Temp\ccBEkVPc.s:31128  .debug_str:0000000000027dd7 .LASF3098
C:\Users\CYMR90~1\AppData\Local\Temp\ccBEkVPc.s:27154  .debug_str:00000000000180ae .LASF3099
C:\Users\CYMR90~1\AppData\Local\Temp\ccBEkVPc.s:29890  .debug_str:0000000000022ddf .LASF3100
C:\Users\CYMR90~1\AppData\Local\Temp\ccBEkVPc.s:21481  .debug_str:0000000000001534 .LASF3101
C:\Users\CYMR90~1\AppData\Local\Temp\ccBEkVPc.s:21775  .debug_str:0000000000002750 .LASF3102
C:\Users\CYMR90~1\AppData\Local\Temp\ccBEkVPc.s:31724  .debug_str:000000000002a3cd .LASF3103
C:\Users\CYMR90~1\AppData\Local\Temp\ccBEkVPc.s:22675  .debug_str:0000000000006181 .LASF3104
C:\Users\CYMR90~1\AppData\Local\Temp\ccBEkVPc.s:25927  .debug_str:00000000000131aa .LASF3105
C:\Users\CYMR90~1\AppData\Local\Temp\ccBEkVPc.s:24473  .debug_str:000000000000d68a .LASF3106
C:\Users\CYMR90~1\AppData\Local\Temp\ccBEkVPc.s:29472  .debug_str:0000000000021418 .LASF3107
C:\Users\CYMR90~1\AppData\Local\Temp\ccBEkVPc.s:27520  .debug_str:0000000000019843 .LASF3108
C:\Users\CYMR90~1\AppData\Local\Temp\ccBEkVPc.s:22621  .debug_str:0000000000005df9 .LASF3109
C:\Users\CYMR90~1\AppData\Local\Temp\ccBEkVPc.s:23401  .debug_str:00000000000090d0 .LASF3110
C:\Users\CYMR90~1\AppData\Local\Temp\ccBEkVPc.s:23999  .debug_str:000000000000b6d1 .LASF3111
C:\Users\CYMR90~1\AppData\Local\Temp\ccBEkVPc.s:22211  .debug_str:00000000000043e3 .LASF3112
C:\Users\CYMR90~1\AppData\Local\Temp\ccBEkVPc.s:25363  .debug_str:0000000000010d50 .LASF3113
C:\Users\CYMR90~1\AppData\Local\Temp\ccBEkVPc.s:27046  .debug_str:0000000000017a60 .LASF3114
C:\Users\CYMR90~1\AppData\Local\Temp\ccBEkVPc.s:23263  .debug_str:0000000000008853 .LASF3115
C:\Users\CYMR90~1\AppData\Local\Temp\ccBEkVPc.s:24075  .debug_str:000000000000bbc4 .LASF3116
C:\Users\CYMR90~1\AppData\Local\Temp\ccBEkVPc.s:24025  .debug_str:000000000000b8a1 .LASF3117
C:\Users\CYMR90~1\AppData\Local\Temp\ccBEkVPc.s:26950  .debug_str:000000000001743b .LASF3118
C:\Users\CYMR90~1\AppData\Local\Temp\ccBEkVPc.s:30854  .debug_str:0000000000026bd4 .LASF3119
C:\Users\CYMR90~1\AppData\Local\Temp\ccBEkVPc.s:23747  .debug_str:000000000000a687 .LASF3120
C:\Users\CYMR90~1\AppData\Local\Temp\ccBEkVPc.s:21753  .debug_str:00000000000025c6 .LASF3121
C:\Users\CYMR90~1\AppData\Local\Temp\ccBEkVPc.s:28788  .debug_str:000000000001eaf1 .LASF3122
C:\Users\CYMR90~1\AppData\Local\Temp\ccBEkVPc.s:21449  .debug_str:000000000000138f .LASF3123
C:\Users\CYMR90~1\AppData\Local\Temp\ccBEkVPc.s:27332  .debug_str:0000000000018ba0 .LASF3124
C:\Users\CYMR90~1\AppData\Local\Temp\ccBEkVPc.s:21553  .debug_str:0000000000001a52 .LASF3125
C:\Users\CYMR90~1\AppData\Local\Temp\ccBEkVPc.s:32312  .debug_str:000000000002ca38 .LASF3126
C:\Users\CYMR90~1\AppData\Local\Temp\ccBEkVPc.s:26501  .debug_str:0000000000015576 .LASF3127
C:\Users\CYMR90~1\AppData\Local\Temp\ccBEkVPc.s:30282  .debug_str:0000000000024604 .LASF3128
C:\Users\CYMR90~1\AppData\Local\Temp\ccBEkVPc.s:23683  .debug_str:000000000000a299 .LASF3129
C:\Users\CYMR90~1\AppData\Local\Temp\ccBEkVPc.s:21579  .debug_str:0000000000001bd6 .LASF3130
C:\Users\CYMR90~1\AppData\Local\Temp\ccBEkVPc.s:22697  .debug_str:00000000000062bc .LASF3131
C:\Users\CYMR90~1\AppData\Local\Temp\ccBEkVPc.s:27946  .debug_str:000000000001b4f2 .LASF3132
C:\Users\CYMR90~1\AppData\Local\Temp\ccBEkVPc.s:26041  .debug_str:0000000000013951 .LASF3133
C:\Users\CYMR90~1\AppData\Local\Temp\ccBEkVPc.s:23407  .debug_str:0000000000009133 .LASF3134
C:\Users\CYMR90~1\AppData\Local\Temp\ccBEkVPc.s:22439  .debug_str:00000000000052f2 .LASF3135
C:\Users\CYMR90~1\AppData\Local\Temp\ccBEkVPc.s:31812  .debug_str:000000000002a970 .LASF3136
C:\Users\CYMR90~1\AppData\Local\Temp\ccBEkVPc.s:24143  .debug_str:000000000000c08d .LASF3137
C:\Users\CYMR90~1\AppData\Local\Temp\ccBEkVPc.s:21789  .debug_str:0000000000002827 .LASF3138
C:\Users\CYMR90~1\AppData\Local\Temp\ccBEkVPc.s:29744  .debug_str:00000000000224fd .LASF3139
C:\Users\CYMR90~1\AppData\Local\Temp\ccBEkVPc.s:26407  .debug_str:000000000001502b .LASF3140
C:\Users\CYMR90~1\AppData\Local\Temp\ccBEkVPc.s:28270  .debug_str:000000000001c93a .LASF3141
C:\Users\CYMR90~1\AppData\Local\Temp\ccBEkVPc.s:27924  .debug_str:000000000001b3b4 .LASF3142
C:\Users\CYMR90~1\AppData\Local\Temp\ccBEkVPc.s:22577  .debug_str:0000000000005b78 .LASF3143
C:\Users\CYMR90~1\AppData\Local\Temp\ccBEkVPc.s:23495  .debug_str:00000000000096c5 .LASF3144
C:\Users\CYMR90~1\AppData\Local\Temp\ccBEkVPc.s:25771  .debug_str:000000000001274c .LASF3145
C:\Users\CYMR90~1\AppData\Local\Temp\ccBEkVPc.s:29760  .debug_str:00000000000225b8 .LASF3146
C:\Users\CYMR90~1\AppData\Local\Temp\ccBEkVPc.s:31108  .debug_str:0000000000027c60 .LASF3147
C:\Users\CYMR90~1\AppData\Local\Temp\ccBEkVPc.s:27144  .debug_str:0000000000018022 .LASF3148
C:\Users\CYMR90~1\AppData\Local\Temp\ccBEkVPc.s:24995  .debug_str:000000000000f5dd .LASF3149
C:\Users\CYMR90~1\AppData\Local\Temp\ccBEkVPc.s:29758  .debug_str:000000000002259f .LASF3150
C:\Users\CYMR90~1\AppData\Local\Temp\ccBEkVPc.s:31550  .debug_str:00000000000299ba .LASF3151
C:\Users\CYMR90~1\AppData\Local\Temp\ccBEkVPc.s:27778  .debug_str:000000000001aa2f .LASF3152
C:\Users\CYMR90~1\AppData\Local\Temp\ccBEkVPc.s:22839  .debug_str:0000000000006b83 .LASF3153
C:\Users\CYMR90~1\AppData\Local\Temp\ccBEkVPc.s:22445  .debug_str:0000000000005336 .LASF3154
C:\Users\CYMR90~1\AppData\Local\Temp\ccBEkVPc.s:28702  .debug_str:000000000001e5a4 .LASF3155
C:\Users\CYMR90~1\AppData\Local\Temp\ccBEkVPc.s:24705  .debug_str:000000000000e424 .LASF3156
C:\Users\CYMR90~1\AppData\Local\Temp\ccBEkVPc.s:29966  .debug_str:00000000000231cd .LASF3157
C:\Users\CYMR90~1\AppData\Local\Temp\ccBEkVPc.s:27004  .debug_str:000000000001777a .LASF3158
C:\Users\CYMR90~1\AppData\Local\Temp\ccBEkVPc.s:30398  .debug_str:0000000000024d6d .LASF3159
C:\Users\CYMR90~1\AppData\Local\Temp\ccBEkVPc.s:29798  .debug_str:0000000000022817 .LASF3160
C:\Users\CYMR90~1\AppData\Local\Temp\ccBEkVPc.s:32194  .debug_str:000000000002c251 .LASF3161
C:\Users\CYMR90~1\AppData\Local\Temp\ccBEkVPc.s:31982  .debug_str:000000000002b3e7 .LASF3162
C:\Users\CYMR90~1\AppData\Local\Temp\ccBEkVPc.s:32282  .debug_str:000000000002c805 .LASF3163
C:\Users\CYMR90~1\AppData\Local\Temp\ccBEkVPc.s:30704  .debug_str:0000000000026285 .LASF3164
C:\Users\CYMR90~1\AppData\Local\Temp\ccBEkVPc.s:22095  .debug_str:0000000000003bfb .LASF3165
C:\Users\CYMR90~1\AppData\Local\Temp\ccBEkVPc.s:24923  .debug_str:000000000000f172 .LASF3166
C:\Users\CYMR90~1\AppData\Local\Temp\ccBEkVPc.s:22065  .debug_str:0000000000003a27 .LASF3167
C:\Users\CYMR90~1\AppData\Local\Temp\ccBEkVPc.s:25483  .debug_str:00000000000113ca .LASF3168
C:\Users\CYMR90~1\AppData\Local\Temp\ccBEkVPc.s:25297  .debug_str:00000000000108f7 .LASF3169
C:\Users\CYMR90~1\AppData\Local\Temp\ccBEkVPc.s:22809  .debug_str:0000000000006995 .LASF3170
C:\Users\CYMR90~1\AppData\Local\Temp\ccBEkVPc.s:25691  .debug_str:00000000000121f2 .LASF3171
C:\Users\CYMR90~1\AppData\Local\Temp\ccBEkVPc.s:25343  .debug_str:0000000000010b9d .LASF3172
C:\Users\CYMR90~1\AppData\Local\Temp\ccBEkVPc.s:23061  .debug_str:0000000000007a30 .LASF3173
C:\Users\CYMR90~1\AppData\Local\Temp\ccBEkVPc.s:23755  .debug_str:000000000000a6e6 .LASF3174
C:\Users\CYMR90~1\AppData\Local\Temp\ccBEkVPc.s:26163  .debug_str:00000000000140a7 .LASF3175
C:\Users\CYMR90~1\AppData\Local\Temp\ccBEkVPc.s:28710  .debug_str:000000000001e613 .LASF3176
C:\Users\CYMR90~1\AppData\Local\Temp\ccBEkVPc.s:22251  .debug_str:00000000000046af .LASF3177
C:\Users\CYMR90~1\AppData\Local\Temp\ccBEkVPc.s:29244  .debug_str:0000000000020660 .LASF3178
C:\Users\CYMR90~1\AppData\Local\Temp\ccBEkVPc.s:29604  .debug_str:0000000000021ca6 .LASF3179
C:\Users\CYMR90~1\AppData\Local\Temp\ccBEkVPc.s:23553  .debug_str:0000000000009a7e .LASF3180
C:\Users\CYMR90~1\AppData\Local\Temp\ccBEkVPc.s:22889  .debug_str:0000000000006eb4 .LASF3181
C:\Users\CYMR90~1\AppData\Local\Temp\ccBEkVPc.s:23419  .debug_str:00000000000091bb .LASF3182
C:\Users\CYMR90~1\AppData\Local\Temp\ccBEkVPc.s:21849  .debug_str:0000000000002c05 .LASF3183
C:\Users\CYMR90~1\AppData\Local\Temp\ccBEkVPc.s:32132  .debug_str:000000000002bdee .LASF3184
C:\Users\CYMR90~1\AppData\Local\Temp\ccBEkVPc.s:22681  .debug_str:00000000000061d4 .LASF3185
C:\Users\CYMR90~1\AppData\Local\Temp\ccBEkVPc.s:21255  .debug_str:0000000000000765 .LASF3186
C:\Users\CYMR90~1\AppData\Local\Temp\ccBEkVPc.s:22257  .debug_str:000000000000472c .LASF3187
C:\Users\CYMR90~1\AppData\Local\Temp\ccBEkVPc.s:22039  .debug_str:0000000000003865 .LASF3188
C:\Users\CYMR90~1\AppData\Local\Temp\ccBEkVPc.s:25765  .debug_str:00000000000126ec .LASF3189
C:\Users\CYMR90~1\AppData\Local\Temp\ccBEkVPc.s:29330  .debug_str:0000000000020bb7 .LASF3190
C:\Users\CYMR90~1\AppData\Local\Temp\ccBEkVPc.s:21197  .debug_str:000000000000041f .LASF3191
C:\Users\CYMR90~1\AppData\Local\Temp\ccBEkVPc.s:28924  .debug_str:000000000001f30c .LASF3192
C:\Users\CYMR90~1\AppData\Local\Temp\ccBEkVPc.s:27766  .debug_str:000000000001a96d .LASF3193
C:\Users\CYMR90~1\AppData\Local\Temp\ccBEkVPc.s:28700  .debug_str:000000000001e584 .LASF3194
C:\Users\CYMR90~1\AppData\Local\Temp\ccBEkVPc.s:28276  .debug_str:000000000001c99d .LASF3195
C:\Users\CYMR90~1\AppData\Local\Temp\ccBEkVPc.s:27124  .debug_str:0000000000017f00 .LASF3196
C:\Users\CYMR90~1\AppData\Local\Temp\ccBEkVPc.s:25651  .debug_str:0000000000011f32 .LASF3197
C:\Users\CYMR90~1\AppData\Local\Temp\ccBEkVPc.s:23639  .debug_str:0000000000009fd5 .LASF3198
C:\Users\CYMR90~1\AppData\Local\Temp\ccBEkVPc.s:28562  .debug_str:000000000001dc7b .LASF3199
C:\Users\CYMR90~1\AppData\Local\Temp\ccBEkVPc.s:32232  .debug_str:000000000002c51b .LASF3200
C:\Users\CYMR90~1\AppData\Local\Temp\ccBEkVPc.s:27530  .debug_str:0000000000019949 .LASF3201
C:\Users\CYMR90~1\AppData\Local\Temp\ccBEkVPc.s:27838  .debug_str:000000000001add5 .LASF3202
C:\Users\CYMR90~1\AppData\Local\Temp\ccBEkVPc.s:30324  .debug_str:00000000000248f3 .LASF3203
C:\Users\CYMR90~1\AppData\Local\Temp\ccBEkVPc.s:31720  .debug_str:000000000002a39a .LASF3204
C:\Users\CYMR90~1\AppData\Local\Temp\ccBEkVPc.s:25523  .debug_str:000000000001165a .LASF3205
C:\Users\CYMR90~1\AppData\Local\Temp\ccBEkVPc.s:28514  .debug_str:000000000001d9e7 .LASF3206
C:\Users\CYMR90~1\AppData\Local\Temp\ccBEkVPc.s:24601  .debug_str:000000000000ddae .LASF3207
C:\Users\CYMR90~1\AppData\Local\Temp\ccBEkVPc.s:31488  .debug_str:0000000000029622 .LASF3208
C:\Users\CYMR90~1\AppData\Local\Temp\ccBEkVPc.s:22989  .debug_str:000000000000757a .LASF3209
C:\Users\CYMR90~1\AppData\Local\Temp\ccBEkVPc.s:31764  .debug_str:000000000002a687 .LASF3210
C:\Users\CYMR90~1\AppData\Local\Temp\ccBEkVPc.s:30548  .debug_str:00000000000258b7 .LASF3211
C:\Users\CYMR90~1\AppData\Local\Temp\ccBEkVPc.s:22023  .debug_str:0000000000003762 .LASF3212
C:\Users\CYMR90~1\AppData\Local\Temp\ccBEkVPc.s:25235  .debug_str:000000000001051d .LASF3213
C:\Users\CYMR90~1\AppData\Local\Temp\ccBEkVPc.s:31214  .debug_str:0000000000028426 .LASF3214
C:\Users\CYMR90~1\AppData\Local\Temp\ccBEkVPc.s:25715  .debug_str:000000000001235e .LASF3215
C:\Users\CYMR90~1\AppData\Local\Temp\ccBEkVPc.s:23817  .debug_str:000000000000aabe .LASF3216
C:\Users\CYMR90~1\AppData\Local\Temp\ccBEkVPc.s:32040  .debug_str:000000000002b7b3 .LASF3217
C:\Users\CYMR90~1\AppData\Local\Temp\ccBEkVPc.s:23901  .debug_str:000000000000b0be .LASF3218
C:\Users\CYMR90~1\AppData\Local\Temp\ccBEkVPc.s:27582  .debug_str:0000000000019c81 .LASF3219
C:\Users\CYMR90~1\AppData\Local\Temp\ccBEkVPc.s:31792  .debug_str:000000000002a83c .LASF3220
C:\Users\CYMR90~1\AppData\Local\Temp\ccBEkVPc.s:27326  .debug_str:0000000000018b17 .LASF3221
C:\Users\CYMR90~1\AppData\Local\Temp\ccBEkVPc.s:31830  .debug_str:000000000002aa5f .LASF3222
C:\Users\CYMR90~1\AppData\Local\Temp\ccBEkVPc.s:29438  .debug_str:0000000000021223 .LASF3223
C:\Users\CYMR90~1\AppData\Local\Temp\ccBEkVPc.s:30790  .debug_str:0000000000026813 .LASF3224
C:\Users\CYMR90~1\AppData\Local\Temp\ccBEkVPc.s:24451  .debug_str:000000000000d4e9 .LASF3225
C:\Users\CYMR90~1\AppData\Local\Temp\ccBEkVPc.s:30178  .debug_str:0000000000023e71 .LASF3226
C:\Users\CYMR90~1\AppData\Local\Temp\ccBEkVPc.s:26291  .debug_str:00000000000148a5 .LASF3227
C:\Users\CYMR90~1\AppData\Local\Temp\ccBEkVPc.s:25127  .debug_str:000000000000fe71 .LASF3228
C:\Users\CYMR90~1\AppData\Local\Temp\ccBEkVPc.s:28264  .debug_str:000000000001c83f .LASF3229
C:\Users\CYMR90~1\AppData\Local\Temp\ccBEkVPc.s:31048  .debug_str:0000000000027851 .LASF3230
C:\Users\CYMR90~1\AppData\Local\Temp\ccBEkVPc.s:22045  .debug_str:00000000000038c1 .LASF3231
C:\Users\CYMR90~1\AppData\Local\Temp\ccBEkVPc.s:28496  .debug_str:000000000001d88d .LASF3232
C:\Users\CYMR90~1\AppData\Local\Temp\ccBEkVPc.s:31224  .debug_str:00000000000284ca .LASF3233
C:\Users\CYMR90~1\AppData\Local\Temp\ccBEkVPc.s:23307  .debug_str:0000000000008afe .LASF3234
C:\Users\CYMR90~1\AppData\Local\Temp\ccBEkVPc.s:29676  .debug_str:0000000000022101 .LASF3235
C:\Users\CYMR90~1\AppData\Local\Temp\ccBEkVPc.s:26479  .debug_str:000000000001544e .LASF3236
C:\Users\CYMR90~1\AppData\Local\Temp\ccBEkVPc.s:23403  .debug_str:00000000000090f4 .LASF3237
C:\Users\CYMR90~1\AppData\Local\Temp\ccBEkVPc.s:28404  .debug_str:000000000001d2e6 .LASF3238
C:\Users\CYMR90~1\AppData\Local\Temp\ccBEkVPc.s:25853  .debug_str:0000000000012cc5 .LASF3239
C:\Users\CYMR90~1\AppData\Local\Temp\ccBEkVPc.s:23879  .debug_str:000000000000ae84 .LASF3240
C:\Users\CYMR90~1\AppData\Local\Temp\ccBEkVPc.s:28332  .debug_str:000000000001cd30 .LASF3241
C:\Users\CYMR90~1\AppData\Local\Temp\ccBEkVPc.s:30420  .debug_str:0000000000024ec2 .LASF3242
C:\Users\CYMR90~1\AppData\Local\Temp\ccBEkVPc.s:22335  .debug_str:0000000000004c98 .LASF3243
C:\Users\CYMR90~1\AppData\Local\Temp\ccBEkVPc.s:31734  .debug_str:000000000002a487 .LASF3244
C:\Users\CYMR90~1\AppData\Local\Temp\ccBEkVPc.s:30614  .debug_str:0000000000025cf8 .LASF3245
C:\Users\CYMR90~1\AppData\Local\Temp\ccBEkVPc.s:27624  .debug_str:0000000000019ef2 .LASF3246
C:\Users\CYMR90~1\AppData\Local\Temp\ccBEkVPc.s:27630  .debug_str:0000000000019f5c .LASF3247
C:\Users\CYMR90~1\AppData\Local\Temp\ccBEkVPc.s:30900  .debug_str:0000000000026edc .LASF3248
C:\Users\CYMR90~1\AppData\Local\Temp\ccBEkVPc.s:25747  .debug_str:00000000000125a4 .LASF3249
C:\Users\CYMR90~1\AppData\Local\Temp\ccBEkVPc.s:31706  .debug_str:000000000002a2e5 .LASF3250
C:\Users\CYMR90~1\AppData\Local\Temp\ccBEkVPc.s:27290  .debug_str:00000000000188cb .LASF3251
C:\Users\CYMR90~1\AppData\Local\Temp\ccBEkVPc.s:30978  .debug_str:0000000000027446 .LASF3252
C:\Users\CYMR90~1\AppData\Local\Temp\ccBEkVPc.s:22229  .debug_str:0000000000004511 .LASF3253
C:\Users\CYMR90~1\AppData\Local\Temp\ccBEkVPc.s:25333  .debug_str:0000000000010ad8 .LASF3254
C:\Users\CYMR90~1\AppData\Local\Temp\ccBEkVPc.s:28680  .debug_str:000000000001e441 .LASF3255
C:\Users\CYMR90~1\AppData\Local\Temp\ccBEkVPc.s:23189  .debug_str:00000000000083a7 .LASF3256
C:\Users\CYMR90~1\AppData\Local\Temp\ccBEkVPc.s:25081  .debug_str:000000000000fb89 .LASF3257
C:\Users\CYMR90~1\AppData\Local\Temp\ccBEkVPc.s:25851  .debug_str:0000000000012c8c .LASF3258
C:\Users\CYMR90~1\AppData\Local\Temp\ccBEkVPc.s:29898  .debug_str:0000000000022e35 .LASF3259
C:\Users\CYMR90~1\AppData\Local\Temp\ccBEkVPc.s:26665  .debug_str:000000000001601a .LASF3260
C:\Users\CYMR90~1\AppData\Local\Temp\ccBEkVPc.s:28246  .debug_str:000000000001c6f1 .LASF3261
C:\Users\CYMR90~1\AppData\Local\Temp\ccBEkVPc.s:24097  .debug_str:000000000000bd56 .LASF3262
C:\Users\CYMR90~1\AppData\Local\Temp\ccBEkVPc.s:23093  .debug_str:0000000000007c4c .LASF3263
C:\Users\CYMR90~1\AppData\Local\Temp\ccBEkVPc.s:22391  .debug_str:0000000000004fdb .LASF3264
C:\Users\CYMR90~1\AppData\Local\Temp\ccBEkVPc.s:25805  .debug_str:000000000001298d .LASF3265
C:\Users\CYMR90~1\AppData\Local\Temp\ccBEkVPc.s:21407  .debug_str:0000000000001123 .LASF3266
C:\Users\CYMR90~1\AppData\Local\Temp\ccBEkVPc.s:21495  .debug_str:0000000000001615 .LASF3267
C:\Users\CYMR90~1\AppData\Local\Temp\ccBEkVPc.s:31174  .debug_str:000000000002811e .LASF3268
C:\Users\CYMR90~1\AppData\Local\Temp\ccBEkVPc.s:27908  .debug_str:000000000001b294 .LASF3269
C:\Users\CYMR90~1\AppData\Local\Temp\ccBEkVPc.s:24371  .debug_str:000000000000cf47 .LASF3270
C:\Users\CYMR90~1\AppData\Local\Temp\ccBEkVPc.s:26253  .debug_str:000000000001461e .LASF3271
C:\Users\CYMR90~1\AppData\Local\Temp\ccBEkVPc.s:27236  .debug_str:00000000000185ae .LASF3272
C:\Users\CYMR90~1\AppData\Local\Temp\ccBEkVPc.s:31042  .debug_str:00000000000277f0 .LASF3273
C:\Users\CYMR90~1\AppData\Local\Temp\ccBEkVPc.s:28736  .debug_str:000000000001e7a2 .LASF3274
C:\Users\CYMR90~1\AppData\Local\Temp\ccBEkVPc.s:24181  .debug_str:000000000000c2d6 .LASF3275
C:\Users\CYMR90~1\AppData\Local\Temp\ccBEkVPc.s:23753  .debug_str:000000000000a6c3 .LASF3276
C:\Users\CYMR90~1\AppData\Local\Temp\ccBEkVPc.s:26727  .debug_str:00000000000163ec .LASF3277
C:\Users\CYMR90~1\AppData\Local\Temp\ccBEkVPc.s:27680  .debug_str:000000000001a22a .LASF3278
C:\Users\CYMR90~1\AppData\Local\Temp\ccBEkVPc.s:28990  .debug_str:000000000001f6fd .LASF3279
C:\Users\CYMR90~1\AppData\Local\Temp\ccBEkVPc.s:25155  .debug_str:000000000001004b .LASF3280
C:\Users\CYMR90~1\AppData\Local\Temp\ccBEkVPc.s:32306  .debug_str:000000000002c9c8 .LASF3281
C:\Users\CYMR90~1\AppData\Local\Temp\ccBEkVPc.s:27048  .debug_str:0000000000017a77 .LASF3282
C:\Users\CYMR90~1\AppData\Local\Temp\ccBEkVPc.s:29700  .debug_str:0000000000022291 .LASF3283
C:\Users\CYMR90~1\AppData\Local\Temp\ccBEkVPc.s:24063  .debug_str:000000000000bb20 .LASF3284
C:\Users\CYMR90~1\AppData\Local\Temp\ccBEkVPc.s:29980  .debug_str:00000000000232ab .LASF3285
C:\Users\CYMR90~1\AppData\Local\Temp\ccBEkVPc.s:26127  .debug_str:0000000000013e59 .LASF3286
C:\Users\CYMR90~1\AppData\Local\Temp\ccBEkVPc.s:28884  .debug_str:000000000001f053 .LASF3287
C:\Users\CYMR90~1\AppData\Local\Temp\ccBEkVPc.s:24909  .debug_str:000000000000f09b .LASF3288
C:\Users\CYMR90~1\AppData\Local\Temp\ccBEkVPc.s:31700  .debug_str:000000000002a28b .LASF3289
C:\Users\CYMR90~1\AppData\Local\Temp\ccBEkVPc.s:25233  .debug_str:0000000000010506 .LASF3290
C:\Users\CYMR90~1\AppData\Local\Temp\ccBEkVPc.s:31300  .debug_str:0000000000028a20 .LASF3291
C:\Users\CYMR90~1\AppData\Local\Temp\ccBEkVPc.s:26421  .debug_str:000000000001510e .LASF3292
C:\Users\CYMR90~1\AppData\Local\Temp\ccBEkVPc.s:25555  .debug_str:0000000000011908 .LASF3293
C:\Users\CYMR90~1\AppData\Local\Temp\ccBEkVPc.s:23441  .debug_str:000000000000932b .LASF3294
C:\Users\CYMR90~1\AppData\Local\Temp\ccBEkVPc.s:23019  .debug_str:0000000000007760 .LASF3295
C:\Users\CYMR90~1\AppData\Local\Temp\ccBEkVPc.s:32420  .debug_str:000000000002d148 .LASF3296
C:\Users\CYMR90~1\AppData\Local\Temp\ccBEkVPc.s:22183  .debug_str:000000000000420f .LASF3297
C:\Users\CYMR90~1\AppData\Local\Temp\ccBEkVPc.s:31958  .debug_str:000000000002b20e .LASF3298
C:\Users\CYMR90~1\AppData\Local\Temp\ccBEkVPc.s:24519  .debug_str:000000000000d922 .LASF3299
C:\Users\CYMR90~1\AppData\Local\Temp\ccBEkVPc.s:27214  .debug_str:0000000000018445 .LASF3300
C:\Users\CYMR90~1\AppData\Local\Temp\ccBEkVPc.s:26663  .debug_str:0000000000016002 .LASF3301
C:\Users\CYMR90~1\AppData\Local\Temp\ccBEkVPc.s:29992  .debug_str:0000000000023342 .LASF3302
C:\Users\CYMR90~1\AppData\Local\Temp\ccBEkVPc.s:21419  .debug_str:00000000000011c9 .LASF3303
C:\Users\CYMR90~1\AppData\Local\Temp\ccBEkVPc.s:22349  .debug_str:0000000000004d9e .LASF3304
C:\Users\CYMR90~1\AppData\Local\Temp\ccBEkVPc.s:29850  .debug_str:0000000000022af2 .LASF3305
C:\Users\CYMR90~1\AppData\Local\Temp\ccBEkVPc.s:22595  .debug_str:0000000000005c9d .LASF3306
C:\Users\CYMR90~1\AppData\Local\Temp\ccBEkVPc.s:30164  .debug_str:0000000000023da6 .LASF3307
C:\Users\CYMR90~1\AppData\Local\Temp\ccBEkVPc.s:30576  .debug_str:0000000000025ac4 .LASF3308
C:\Users\CYMR90~1\AppData\Local\Temp\ccBEkVPc.s:29318  .debug_str:0000000000020b30 .LASF3309
C:\Users\CYMR90~1\AppData\Local\Temp\ccBEkVPc.s:26567  .debug_str:0000000000015980 .LASF3310
C:\Users\CYMR90~1\AppData\Local\Temp\ccBEkVPc.s:26309  .debug_str:00000000000149a5 .LASF3311
C:\Users\CYMR90~1\AppData\Local\Temp\ccBEkVPc.s:27038  .debug_str:00000000000179cd .LASF3312
C:\Users\CYMR90~1\AppData\Local\Temp\ccBEkVPc.s:29212  .debug_str:0000000000020438 .LASF3313
C:\Users\CYMR90~1\AppData\Local\Temp\ccBEkVPc.s:22985  .debug_str:000000000000754c .LASF3314
C:\Users\CYMR90~1\AppData\Local\Temp\ccBEkVPc.s:21191  .debug_str:00000000000003c6 .LASF3315
C:\Users\CYMR90~1\AppData\Local\Temp\ccBEkVPc.s:31322  .debug_str:0000000000028b7c .LASF3316
C:\Users\CYMR90~1\AppData\Local\Temp\ccBEkVPc.s:21317  .debug_str:0000000000000b9f .LASF3317
C:\Users\CYMR90~1\AppData\Local\Temp\ccBEkVPc.s:29680  .debug_str:0000000000022151 .LASF3318
C:\Users\CYMR90~1\AppData\Local\Temp\ccBEkVPc.s:26461  .debug_str:0000000000015385 .LASF3319
C:\Users\CYMR90~1\AppData\Local\Temp\ccBEkVPc.s:26107  .debug_str:0000000000013d47 .LASF3320
C:\Users\CYMR90~1\AppData\Local\Temp\ccBEkVPc.s:24395  .debug_str:000000000000d0cf .LASF3321
C:\Users\CYMR90~1\AppData\Local\Temp\ccBEkVPc.s:29982  .debug_str:00000000000232d1 .LASF3322
C:\Users\CYMR90~1\AppData\Local\Temp\ccBEkVPc.s:27954  .debug_str:000000000001b57d .LASF3323
C:\Users\CYMR90~1\AppData\Local\Temp\ccBEkVPc.s:26725  .debug_str:00000000000163cf .LASF3324
C:\Users\CYMR90~1\AppData\Local\Temp\ccBEkVPc.s:30418  .debug_str:0000000000024ea4 .LASF3325
C:\Users\CYMR90~1\AppData\Local\Temp\ccBEkVPc.s:25043  .debug_str:000000000000f957 .LASF3326
C:\Users\CYMR90~1\AppData\Local\Temp\ccBEkVPc.s:29896  .debug_str:0000000000022e19 .LASF3327
C:\Users\CYMR90~1\AppData\Local\Temp\ccBEkVPc.s:25945  .debug_str:00000000000132e6 .LASF3328
C:\Users\CYMR90~1\AppData\Local\Temp\ccBEkVPc.s:28448  .debug_str:000000000001d573 .LASF3329
C:\Users\CYMR90~1\AppData\Local\Temp\ccBEkVPc.s:22807  .debug_str:000000000000697e .LASF3330
C:\Users\CYMR90~1\AppData\Local\Temp\ccBEkVPc.s:32344  .debug_str:000000000002cc39 .LASF3331
C:\Users\CYMR90~1\AppData\Local\Temp\ccBEkVPc.s:23005  .debug_str:0000000000007675 .LASF3332
C:\Users\CYMR90~1\AppData\Local\Temp\ccBEkVPc.s:22111  .debug_str:0000000000003d08 .LASF3333
C:\Users\CYMR90~1\AppData\Local\Temp\ccBEkVPc.s:32030  .debug_str:000000000002b6e7 .LASF3334
C:\Users\CYMR90~1\AppData\Local\Temp\ccBEkVPc.s:23909  .debug_str:000000000000b13a .LASF3335
C:\Users\CYMR90~1\AppData\Local\Temp\ccBEkVPc.s:26099  .debug_str:0000000000013cdf .LASF3336
C:\Users\CYMR90~1\AppData\Local\Temp\ccBEkVPc.s:22383  .debug_str:0000000000004f7b .LASF3337
C:\Users\CYMR90~1\AppData\Local\Temp\ccBEkVPc.s:23787  .debug_str:000000000000a8c0 .LASF3338
C:\Users\CYMR90~1\AppData\Local\Temp\ccBEkVPc.s:22573  .debug_str:0000000000005b38 .LASF3339
C:\Users\CYMR90~1\AppData\Local\Temp\ccBEkVPc.s:24007  .debug_str:000000000000b73f .LASF3340
C:\Users\CYMR90~1\AppData\Local\Temp\ccBEkVPc.s:22505  .debug_str:000000000000570a .LASF3341
C:\Users\CYMR90~1\AppData\Local\Temp\ccBEkVPc.s:25669  .debug_str:000000000001207f .LASF3342
C:\Users\CYMR90~1\AppData\Local\Temp\ccBEkVPc.s:31080  .debug_str:0000000000027a90 .LASF3343
C:\Users\CYMR90~1\AppData\Local\Temp\ccBEkVPc.s:27476  .debug_str:000000000001955e .LASF3344
C:\Users\CYMR90~1\AppData\Local\Temp\ccBEkVPc.s:26251  .debug_str:00000000000145e3 .LASF3345
C:\Users\CYMR90~1\AppData\Local\Temp\ccBEkVPc.s:32372  .debug_str:000000000002ce6b .LASF3346
C:\Users\CYMR90~1\AppData\Local\Temp\ccBEkVPc.s:28958  .debug_str:000000000001f514 .LASF3347
C:\Users\CYMR90~1\AppData\Local\Temp\ccBEkVPc.s:25597  .debug_str:0000000000011c01 .LASF3348
C:\Users\CYMR90~1\AppData\Local\Temp\ccBEkVPc.s:22139  .debug_str:0000000000003f02 .LASF3349
C:\Users\CYMR90~1\AppData\Local\Temp\ccBEkVPc.s:30034  .debug_str:00000000000235c2 .LASF3350
C:\Users\CYMR90~1\AppData\Local\Temp\ccBEkVPc.s:26617  .debug_str:0000000000015caa .LASF3351
C:\Users\CYMR90~1\AppData\Local\Temp\ccBEkVPc.s:23225  .debug_str:0000000000008619 .LASF3352
C:\Users\CYMR90~1\AppData\Local\Temp\ccBEkVPc.s:27160  .debug_str:00000000000180e1 .LASF3353
C:\Users\CYMR90~1\AppData\Local\Temp\ccBEkVPc.s:32088  .debug_str:000000000002bb0a .LASF3354
C:\Users\CYMR90~1\AppData\Local\Temp\ccBEkVPc.s:30650  .debug_str:0000000000025f16 .LASF3355
C:\Users\CYMR90~1\AppData\Local\Temp\ccBEkVPc.s:21515  .debug_str:000000000000180d .LASF3356
C:\Users\CYMR90~1\AppData\Local\Temp\ccBEkVPc.s:22545  .debug_str:0000000000005954 .LASF3357
C:\Users\CYMR90~1\AppData\Local\Temp\ccBEkVPc.s:28744  .debug_str:000000000001e7ee .LASF3358
C:\Users\CYMR90~1\AppData\Local\Temp\ccBEkVPc.s:28966  .debug_str:000000000001f592 .LASF3359
C:\Users\CYMR90~1\AppData\Local\Temp\ccBEkVPc.s:30080  .debug_str:00000000000238df .LASF3360
C:\Users\CYMR90~1\AppData\Local\Temp\ccBEkVPc.s:21511  .debug_str:00000000000017c6 .LASF3361
C:\Users\CYMR90~1\AppData\Local\Temp\ccBEkVPc.s:27270  .debug_str:000000000001875a .LASF3362
C:\Users\CYMR90~1\AppData\Local\Temp\ccBEkVPc.s:32326  .debug_str:000000000002cb1c .LASF3363
C:\Users\CYMR90~1\AppData\Local\Temp\ccBEkVPc.s:23979  .debug_str:000000000000b511 .LASF3364
C:\Users\CYMR90~1\AppData\Local\Temp\ccBEkVPc.s:27142  .debug_str:0000000000018002 .LASF3365
C:\Users\CYMR90~1\AppData\Local\Temp\ccBEkVPc.s:21451  .debug_str:00000000000013a2 .LASF3366
C:\Users\CYMR90~1\AppData\Local\Temp\ccBEkVPc.s:28224  .debug_str:000000000001c5ae .LASF3367
C:\Users\CYMR90~1\AppData\Local\Temp\ccBEkVPc.s:24189  .debug_str:000000000000c34c .LASF3368
C:\Users\CYMR90~1\AppData\Local\Temp\ccBEkVPc.s:24455  .debug_str:000000000000d534 .LASF3369
C:\Users\CYMR90~1\AppData\Local\Temp\ccBEkVPc.s:32084  .debug_str:000000000002babf .LASF3370
C:\Users\CYMR90~1\AppData\Local\Temp\ccBEkVPc.s:29162  .debug_str:0000000000020163 .LASF3371
C:\Users\CYMR90~1\AppData\Local\Temp\ccBEkVPc.s:24937  .debug_str:000000000000f269 .LASF3372
C:\Users\CYMR90~1\AppData\Local\Temp\ccBEkVPc.s:30574  .debug_str:0000000000025a9c .LASF3373
C:\Users\CYMR90~1\AppData\Local\Temp\ccBEkVPc.s:29538  .debug_str:00000000000218b2 .LASF3374
C:\Users\CYMR90~1\AppData\Local\Temp\ccBEkVPc.s:25199  .debug_str:000000000001030d .LASF3375
C:\Users\CYMR90~1\AppData\Local\Temp\ccBEkVPc.s:29160  .debug_str:000000000002013c .LASF3376
C:\Users\CYMR90~1\AppData\Local\Temp\ccBEkVPc.s:26261  .debug_str:00000000000146d2 .LASF3377
C:\Users\CYMR90~1\AppData\Local\Temp\ccBEkVPc.s:31968  .debug_str:000000000002b2e6 .LASF3378
C:\Users\CYMR90~1\AppData\Local\Temp\ccBEkVPc.s:23235  .debug_str:00000000000086b0 .LASF3379
C:\Users\CYMR90~1\AppData\Local\Temp\ccBEkVPc.s:24385  .debug_str:000000000000d042 .LASF3380
C:\Users\CYMR90~1\AppData\Local\Temp\ccBEkVPc.s:30710  .debug_str:00000000000262e4 .LASF3381
C:\Users\CYMR90~1\AppData\Local\Temp\ccBEkVPc.s:32374  .debug_str:000000000002ce92 .LASF3382
C:\Users\CYMR90~1\AppData\Local\Temp\ccBEkVPc.s:26171  .debug_str:0000000000014129 .LASF3383
C:\Users\CYMR90~1\AppData\Local\Temp\ccBEkVPc.s:27514  .debug_str:00000000000197a7 .LASF3384
C:\Users\CYMR90~1\AppData\Local\Temp\ccBEkVPc.s:24913  .debug_str:000000000000f0cb .LASF3385
C:\Users\CYMR90~1\AppData\Local\Temp\ccBEkVPc.s:28882  .debug_str:000000000001f035 .LASF3386
C:\Users\CYMR90~1\AppData\Local\Temp\ccBEkVPc.s:27324  .debug_str:0000000000018af8 .LASF3387
C:\Users\CYMR90~1\AppData\Local\Temp\ccBEkVPc.s:31892  .debug_str:000000000002ae30 .LASF3388
C:\Users\CYMR90~1\AppData\Local\Temp\ccBEkVPc.s:28110  .debug_str:000000000001bee2 .LASF3389
C:\Users\CYMR90~1\AppData\Local\Temp\ccBEkVPc.s:22099  .debug_str:0000000000003c49 .LASF3390
C:\Users\CYMR90~1\AppData\Local\Temp\ccBEkVPc.s:23891  .debug_str:000000000000af7a .LASF3391
C:\Users\CYMR90~1\AppData\Local\Temp\ccBEkVPc.s:24933  .debug_str:000000000000f21b .LASF3392
C:\Users\CYMR90~1\AppData\Local\Temp\ccBEkVPc.s:29614  .debug_str:0000000000021d3b .LASF3393
C:\Users\CYMR90~1\AppData\Local\Temp\ccBEkVPc.s:26833  .debug_str:0000000000016ba0 .LASF3394
C:\Users\CYMR90~1\AppData\Local\Temp\ccBEkVPc.s:28640  .debug_str:000000000001e1d3 .LASF3395
C:\Users\CYMR90~1\AppData\Local\Temp\ccBEkVPc.s:27860  .debug_str:000000000001af18 .LASF3396
C:\Users\CYMR90~1\AppData\Local\Temp\ccBEkVPc.s:29636  .debug_str:0000000000021ebd .LASF3397
C:\Users\CYMR90~1\AppData\Local\Temp\ccBEkVPc.s:23857  .debug_str:000000000000ad4f .LASF3398
C:\Users\CYMR90~1\AppData\Local\Temp\ccBEkVPc.s:26225  .debug_str:000000000001442d .LASF3399
C:\Users\CYMR90~1\AppData\Local\Temp\ccBEkVPc.s:22649  .debug_str:0000000000005fb6 .LASF3400
C:\Users\CYMR90~1\AppData\Local\Temp\ccBEkVPc.s:29374  .debug_str:0000000000020ea7 .LASF3401
C:\Users\CYMR90~1\AppData\Local\Temp\ccBEkVPc.s:25839  .debug_str:0000000000012bc6 .LASF3402
C:\Users\CYMR90~1\AppData\Local\Temp\ccBEkVPc.s:27928  .debug_str:000000000001b3ee .LASF3403
C:\Users\CYMR90~1\AppData\Local\Temp\ccBEkVPc.s:27796  .debug_str:000000000001ab65 .LASF3404
C:\Users\CYMR90~1\AppData\Local\Temp\ccBEkVPc.s:22401  .debug_str:0000000000005090 .LASF3405
C:\Users\CYMR90~1\AppData\Local\Temp\ccBEkVPc.s:29236  .debug_str:00000000000205e5 .LASF3406
C:\Users\CYMR90~1\AppData\Local\Temp\ccBEkVPc.s:25911  .debug_str:000000000001308d .LASF3407
C:\Users\CYMR90~1\AppData\Local\Temp\ccBEkVPc.s:23727  .debug_str:000000000000a55d .LASF3408
C:\Users\CYMR90~1\AppData\Local\Temp\ccBEkVPc.s:28266  .debug_str:000000000001c864 .LASF3409
C:\Users\CYMR90~1\AppData\Local\Temp\ccBEkVPc.s:22921  .debug_str:00000000000070ab .LASF3410
C:\Users\CYMR90~1\AppData\Local\Temp\ccBEkVPc.s:30894  .debug_str:0000000000026e66 .LASF3411
C:\Users\CYMR90~1\AppData\Local\Temp\ccBEkVPc.s:22315  .debug_str:0000000000004b4f .LASF3412
C:\Users\CYMR90~1\AppData\Local\Temp\ccBEkVPc.s:22647  .debug_str:0000000000005fa5 .LASF3413
C:\Users\CYMR90~1\AppData\Local\Temp\ccBEkVPc.s:21629  .debug_str:0000000000001ed3 .LASF3414
C:\Users\CYMR90~1\AppData\Local\Temp\ccBEkVPc.s:27218  .debug_str:000000000001847c .LASF3415
C:\Users\CYMR90~1\AppData\Local\Temp\ccBEkVPc.s:26936  .debug_str:000000000001734f .LASF3416
C:\Users\CYMR90~1\AppData\Local\Temp\ccBEkVPc.s:27984  .debug_str:000000000001b738 .LASF3417
C:\Users\CYMR90~1\AppData\Local\Temp\ccBEkVPc.s:24615  .debug_str:000000000000deb9 .LASF3418
C:\Users\CYMR90~1\AppData\Local\Temp\ccBEkVPc.s:29370  .debug_str:0000000000020e6a .LASF3419
C:\Users\CYMR90~1\AppData\Local\Temp\ccBEkVPc.s:30224  .debug_str:000000000002422a .LASF3420
C:\Users\CYMR90~1\AppData\Local\Temp\ccBEkVPc.s:31092  .debug_str:0000000000027b43 .LASF3421
C:\Users\CYMR90~1\AppData\Local\Temp\ccBEkVPc.s:29494  .debug_str:0000000000021617 .LASF3422
C:\Users\CYMR90~1\AppData\Local\Temp\ccBEkVPc.s:30734  .debug_str:0000000000026442 .LASF3423
C:\Users\CYMR90~1\AppData\Local\Temp\ccBEkVPc.s:22939  .debug_str:0000000000007219 .LASF3424
C:\Users\CYMR90~1\AppData\Local\Temp\ccBEkVPc.s:27992  .debug_str:000000000001b7c5 .LASF3425
C:\Users\CYMR90~1\AppData\Local\Temp\ccBEkVPc.s:21719  .debug_str:0000000000002391 .LASF3426
C:\Users\CYMR90~1\AppData\Local\Temp\ccBEkVPc.s:30492  .debug_str:0000000000025435 .LASF3427
C:\Users\CYMR90~1\AppData\Local\Temp\ccBEkVPc.s:24193  .debug_str:000000000000c391 .LASF3428
C:\Users\CYMR90~1\AppData\Local\Temp\ccBEkVPc.s:26699  .debug_str:000000000001623f .LASF3429
C:\Users\CYMR90~1\AppData\Local\Temp\ccBEkVPc.s:30928  .debug_str:000000000002706c .LASF3430
C:\Users\CYMR90~1\AppData\Local\Temp\ccBEkVPc.s:23845  .debug_str:000000000000ac7f .LASF3431
C:\Users\CYMR90~1\AppData\Local\Temp\ccBEkVPc.s:24695  .debug_str:000000000000e39b .LASF3432
C:\Users\CYMR90~1\AppData\Local\Temp\ccBEkVPc.s:22319  .debug_str:0000000000004b9e .LASF3433
C:\Users\CYMR90~1\AppData\Local\Temp\ccBEkVPc.s:21311  .debug_str:0000000000000b25 .LASF3434
C:\Users\CYMR90~1\AppData\Local\Temp\ccBEkVPc.s:29646  .debug_str:0000000000021f61 .LASF3435
C:\Users\CYMR90~1\AppData\Local\Temp\ccBEkVPc.s:23863  .debug_str:000000000000ada4 .LASF3436
C:\Users\CYMR90~1\AppData\Local\Temp\ccBEkVPc.s:22015  .debug_str:00000000000036c2 .LASF3437
C:\Users\CYMR90~1\AppData\Local\Temp\ccBEkVPc.s:21477  .debug_str:00000000000014fa .LASF3438
C:\Users\CYMR90~1\AppData\Local\Temp\ccBEkVPc.s:27238  .debug_str:00000000000185c7 .LASF3439
C:\Users\CYMR90~1\AppData\Local\Temp\ccBEkVPc.s:26721  .debug_str:000000000001639e .LASF3440
C:\Users\CYMR90~1\AppData\Local\Temp\ccBEkVPc.s:25899  .debug_str:0000000000012fc1 .LASF3441
C:\Users\CYMR90~1\AppData\Local\Temp\ccBEkVPc.s:27588  .debug_str:0000000000019cea .LASF3442
C:\Users\CYMR90~1\AppData\Local\Temp\ccBEkVPc.s:31856  .debug_str:000000000002abf6 .LASF3443
C:\Users\CYMR90~1\AppData\Local\Temp\ccBEkVPc.s:26785  .debug_str:00000000000167b4 .LASF3444
C:\Users\CYMR90~1\AppData\Local\Temp\ccBEkVPc.s:28212  .debug_str:000000000001c518 .LASF3445
C:\Users\CYMR90~1\AppData\Local\Temp\ccBEkVPc.s:27884  .debug_str:000000000001b0e8 .LASF3446
C:\Users\CYMR90~1\AppData\Local\Temp\ccBEkVPc.s:30764  .debug_str:000000000002663c .LASF3447
C:\Users\CYMR90~1\AppData\Local\Temp\ccBEkVPc.s:23159  .debug_str:00000000000081b7 .LASF3448
C:\Users\CYMR90~1\AppData\Local\Temp\ccBEkVPc.s:21835  .debug_str:0000000000002aff .LASF3449
C:\Users\CYMR90~1\AppData\Local\Temp\ccBEkVPc.s:29576  .debug_str:0000000000021ad9 .LASF3450
C:\Users\CYMR90~1\AppData\Local\Temp\ccBEkVPc.s:28914  .debug_str:000000000001f278 .LASF3451
C:\Users\CYMR90~1\AppData\Local\Temp\ccBEkVPc.s:29204  .debug_str:00000000000203cc .LASF3452
C:\Users\CYMR90~1\AppData\Local\Temp\ccBEkVPc.s:29728  .debug_str:0000000000022436 .LASF3453
C:\Users\CYMR90~1\AppData\Local\Temp\ccBEkVPc.s:25331  .debug_str:0000000000010ac0 .LASF3454
C:\Users\CYMR90~1\AppData\Local\Temp\ccBEkVPc.s:22867  .debug_str:0000000000006d41 .LASF3455
C:\Users\CYMR90~1\AppData\Local\Temp\ccBEkVPc.s:32014  .debug_str:000000000002b62c .LASF3456
C:\Users\CYMR90~1\AppData\Local\Temp\ccBEkVPc.s:31844  .debug_str:000000000002ab35 .LASF3457
C:\Users\CYMR90~1\AppData\Local\Temp\ccBEkVPc.s:28584  .debug_str:000000000001de48 .LASF3458
C:\Users\CYMR90~1\AppData\Local\Temp\ccBEkVPc.s:21293  .debug_str:00000000000009a3 .LASF3459
C:\Users\CYMR90~1\AppData\Local\Temp\ccBEkVPc.s:30860  .debug_str:0000000000026c1e .LASF3460
C:\Users\CYMR90~1\AppData\Local\Temp\ccBEkVPc.s:25111  .debug_str:000000000000fd7f .LASF3461
C:\Users\CYMR90~1\AppData\Local\Temp\ccBEkVPc.s:32316  .debug_str:000000000002ca65 .LASF3462
C:\Users\CYMR90~1\AppData\Local\Temp\ccBEkVPc.s:27404  .debug_str:0000000000019114 .LASF3463
C:\Users\CYMR90~1\AppData\Local\Temp\ccBEkVPc.s:31018  .debug_str:00000000000276a3 .LASF3464
C:\Users\CYMR90~1\AppData\Local\Temp\ccBEkVPc.s:27452  .debug_str:00000000000193d8 .LASF3465
C:\Users\CYMR90~1\AppData\Local\Temp\ccBEkVPc.s:29714  .debug_str:000000000002238a .LASF3466
C:\Users\CYMR90~1\AppData\Local\Temp\ccBEkVPc.s:26157  .debug_str:0000000000014023 .LASF3467
C:\Users\CYMR90~1\AppData\Local\Temp\ccBEkVPc.s:24289  .debug_str:000000000000c9e2 .LASF3468
C:\Users\CYMR90~1\AppData\Local\Temp\ccBEkVPc.s:21899  .debug_str:0000000000002ece .LASF3469
C:\Users\CYMR90~1\AppData\Local\Temp\ccBEkVPc.s:27760  .debug_str:000000000001a919 .LASF3470
C:\Users\CYMR90~1\AppData\Local\Temp\ccBEkVPc.s:28994  .debug_str:000000000001f730 .LASF3471
C:\Users\CYMR90~1\AppData\Local\Temp\ccBEkVPc.s:31652  .debug_str:0000000000029fca .LASF3472
C:\Users\CYMR90~1\AppData\Local\Temp\ccBEkVPc.s:30848  .debug_str:0000000000026b8b .LASF3473
C:\Users\CYMR90~1\AppData\Local\Temp\ccBEkVPc.s:29772  .debug_str:0000000000022688 .LASF3474
C:\Users\CYMR90~1\AppData\Local\Temp\ccBEkVPc.s:30434  .debug_str:0000000000024f8b .LASF3475
C:\Users\CYMR90~1\AppData\Local\Temp\ccBEkVPc.s:28582  .debug_str:000000000001de2c .LASF3476
C:\Users\CYMR90~1\AppData\Local\Temp\ccBEkVPc.s:28650  .debug_str:000000000001e296 .LASF3477
C:\Users\CYMR90~1\AppData\Local\Temp\ccBEkVPc.s:27668  .debug_str:000000000001a177 .LASF3478
C:\Users\CYMR90~1\AppData\Local\Temp\ccBEkVPc.s:21199  .debug_str:000000000000043c .LASF3479
C:\Users\CYMR90~1\AppData\Local\Temp\ccBEkVPc.s:27026  .debug_str:00000000000178da .LASF3480
C:\Users\CYMR90~1\AppData\Local\Temp\ccBEkVPc.s:30620  .debug_str:0000000000025d4e .LASF3481
C:\Users\CYMR90~1\AppData\Local\Temp\ccBEkVPc.s:22429  .debug_str:000000000000525a .LASF3482
C:\Users\CYMR90~1\AppData\Local\Temp\ccBEkVPc.s:21527  .debug_str:00000000000018e2 .LASF3483
C:\Users\CYMR90~1\AppData\Local\Temp\ccBEkVPc.s:26577  .debug_str:0000000000015a0c .LASF3484
C:\Users\CYMR90~1\AppData\Local\Temp\ccBEkVPc.s:25017  .debug_str:000000000000f71b .LASF3485
C:\Users\CYMR90~1\AppData\Local\Temp\ccBEkVPc.s:23531  .debug_str:00000000000098d0 .LASF3486
C:\Users\CYMR90~1\AppData\Local\Temp\ccBEkVPc.s:28666  .debug_str:000000000001e381 .LASF3487
C:\Users\CYMR90~1\AppData\Local\Temp\ccBEkVPc.s:21621  .debug_str:0000000000001e5d .LASF3488
C:\Users\CYMR90~1\AppData\Local\Temp\ccBEkVPc.s:28974  .debug_str:000000000001f626 .LASF3489
C:\Users\CYMR90~1\AppData\Local\Temp\ccBEkVPc.s:23505  .debug_str:0000000000009766 .LASF3490
C:\Users\CYMR90~1\AppData\Local\Temp\ccBEkVPc.s:27150  .debug_str:0000000000018084 .LASF3491
C:\Users\CYMR90~1\AppData\Local\Temp\ccBEkVPc.s:30722  .debug_str:000000000002638a .LASF3492
C:\Users\CYMR90~1\AppData\Local\Temp\ccBEkVPc.s:24653  .debug_str:000000000000e102 .LASF3493
C:\Users\CYMR90~1\AppData\Local\Temp\ccBEkVPc.s:28728  .debug_str:000000000001e747 .LASF3494
C:\Users\CYMR90~1\AppData\Local\Temp\ccBEkVPc.s:32214  .debug_str:000000000002c376 .LASF3495
C:\Users\CYMR90~1\AppData\Local\Temp\ccBEkVPc.s:24965  .debug_str:000000000000f427 .LASF3496
C:\Users\CYMR90~1\AppData\Local\Temp\ccBEkVPc.s:29018  .debug_str:000000000001f89b .LASF3497
C:\Users\CYMR90~1\AppData\Local\Temp\ccBEkVPc.s:22303  .debug_str:0000000000004a96 .LASF3498
C:\Users\CYMR90~1\AppData\Local\Temp\ccBEkVPc.s:28910  .debug_str:000000000001f244 .LASF3499
C:\Users\CYMR90~1\AppData\Local\Temp\ccBEkVPc.s:24665  .debug_str:000000000000e1c9 .LASF3500
C:\Users\CYMR90~1\AppData\Local\Temp\ccBEkVPc.s:26555  .debug_str:0000000000015896 .LASF3501
C:\Users\CYMR90~1\AppData\Local\Temp\ccBEkVPc.s:29566  .debug_str:0000000000021a60 .LASF3502
C:\Users\CYMR90~1\AppData\Local\Temp\ccBEkVPc.s:26918  .debug_str:000000000001724f .LASF3503
C:\Users\CYMR90~1\AppData\Local\Temp\ccBEkVPc.s:28458  .debug_str:000000000001d620 .LASF3504
C:\Users\CYMR90~1\AppData\Local\Temp\ccBEkVPc.s:26968  .debug_str:0000000000017535 .LASF3505
C:\Users\CYMR90~1\AppData\Local\Temp\ccBEkVPc.s:30454  .debug_str:000000000002512c .LASF3506
C:\Users\CYMR90~1\AppData\Local\Temp\ccBEkVPc.s:28610  .debug_str:000000000001e023 .LASF3507
C:\Users\CYMR90~1\AppData\Local\Temp\ccBEkVPc.s:29540  .debug_str:00000000000218f1 .LASF3508
C:\Users\CYMR90~1\AppData\Local\Temp\ccBEkVPc.s:25221  .debug_str:0000000000010453 .LASF3509
C:\Users\CYMR90~1\AppData\Local\Temp\ccBEkVPc.s:26359  .debug_str:0000000000014cc4 .LASF3510
C:\Users\CYMR90~1\AppData\Local\Temp\ccBEkVPc.s:32336  .debug_str:000000000002cbdb .LASF3511
C:\Users\CYMR90~1\AppData\Local\Temp\ccBEkVPc.s:24383  .debug_str:000000000000d02b .LASF3512
C:\Users\CYMR90~1\AppData\Local\Temp\ccBEkVPc.s:27200  .debug_str:0000000000018389 .LASF3513
C:\Users\CYMR90~1\AppData\Local\Temp\ccBEkVPc.s:23535  .debug_str:0000000000009902 .LASF3514
C:\Users\CYMR90~1\AppData\Local\Temp\ccBEkVPc.s:30720  .debug_str:000000000002636d .LASF3515
C:\Users\CYMR90~1\AppData\Local\Temp\ccBEkVPc.s:31788  .debug_str:000000000002a803 .LASF3516
C:\Users\CYMR90~1\AppData\Local\Temp\ccBEkVPc.s:24085  .debug_str:000000000000bc6e .LASF3517
C:\Users\CYMR90~1\AppData\Local\Temp\ccBEkVPc.s:31198  .debug_str:000000000002832c .LASF3518
C:\Users\CYMR90~1\AppData\Local\Temp\ccBEkVPc.s:28116  .debug_str:000000000001bf5a .LASF3519
C:\Users\CYMR90~1\AppData\Local\Temp\ccBEkVPc.s:31664  .debug_str:000000000002a06e .LASF3520
C:\Users\CYMR90~1\AppData\Local\Temp\ccBEkVPc.s:21693  .debug_str:0000000000002238 .LASF3521
C:\Users\CYMR90~1\AppData\Local\Temp\ccBEkVPc.s:30778  .debug_str:0000000000026750 .LASF3522
C:\Users\CYMR90~1\AppData\Local\Temp\ccBEkVPc.s:27542  .debug_str:0000000000019a25 .LASF3523
C:\Users\CYMR90~1\AppData\Local\Temp\ccBEkVPc.s:27470  .debug_str:000000000001950c .LASF3524
C:\Users\CYMR90~1\AppData\Local\Temp\ccBEkVPc.s:27888  .debug_str:000000000001b128 .LASF3525
C:\Users\CYMR90~1\AppData\Local\Temp\ccBEkVPc.s:21701  .debug_str:00000000000022a2 .LASF3526
C:\Users\CYMR90~1\AppData\Local\Temp\ccBEkVPc.s:31118  .debug_str:0000000000027d43 .LASF3527
C:\Users\CYMR90~1\AppData\Local\Temp\ccBEkVPc.s:28542  .debug_str:000000000001db7b .LASF3528
C:\Users\CYMR90~1\AppData\Local\Temp\ccBEkVPc.s:22313  .debug_str:0000000000004b34 .LASF3529
C:\Users\CYMR90~1\AppData\Local\Temp\ccBEkVPc.s:24755  .debug_str:000000000000e76e .LASF3530
C:\Users\CYMR90~1\AppData\Local\Temp\ccBEkVPc.s:29328  .debug_str:0000000000020b9e .LASF3531
C:\Users\CYMR90~1\AppData\Local\Temp\ccBEkVPc.s:32170  .debug_str:000000000002c0d2 .LASF3532
C:\Users\CYMR90~1\AppData\Local\Temp\ccBEkVPc.s:31910  .debug_str:000000000002af4f .LASF3533
C:\Users\CYMR90~1\AppData\Local\Temp\ccBEkVPc.s:21253  .debug_str:000000000000074b .LASF3534
C:\Users\CYMR90~1\AppData\Local\Temp\ccBEkVPc.s:24881  .debug_str:000000000000eef4 .LASF3535
C:\Users\CYMR90~1\AppData\Local\Temp\ccBEkVPc.s:26265  .debug_str:0000000000014725 .LASF3536
C:\Users\CYMR90~1\AppData\Local\Temp\ccBEkVPc.s:30092  .debug_str:000000000002398d .LASF3537
C:\Users\CYMR90~1\AppData\Local\Temp\ccBEkVPc.s:27714  .debug_str:000000000001a5ab .LASF3538
C:\Users\CYMR90~1\AppData\Local\Temp\ccBEkVPc.s:26866  .debug_str:0000000000016f40 .LASF3539
C:\Users\CYMR90~1\AppData\Local\Temp\ccBEkVPc.s:27310  .debug_str:0000000000018a35 .LASF3540
C:\Users\CYMR90~1\AppData\Local\Temp\ccBEkVPc.s:31736  .debug_str:000000000002a4a5 .LASF3541
C:\Users\CYMR90~1\AppData\Local\Temp\ccBEkVPc.s:24431  .debug_str:000000000000d36d .LASF3542
C:\Users\CYMR90~1\AppData\Local\Temp\ccBEkVPc.s:26914  .debug_str:000000000001720a .LASF3543
C:\Users\CYMR90~1\AppData\Local\Temp\ccBEkVPc.s:26575  .debug_str:00000000000159f4 .LASF3544
C:\Users\CYMR90~1\AppData\Local\Temp\ccBEkVPc.s:26333  .debug_str:0000000000014b36 .LASF3545
C:\Users\CYMR90~1\AppData\Local\Temp\ccBEkVPc.s:28696  .debug_str:000000000001e552 .LASF3546
C:\Users\CYMR90~1\AppData\Local\Temp\ccBEkVPc.s:31532  .debug_str:00000000000298e6 .LASF3547
C:\Users\CYMR90~1\AppData\Local\Temp\ccBEkVPc.s:21829  .debug_str:0000000000002ab9 .LASF3548
C:\Users\CYMR90~1\AppData\Local\Temp\ccBEkVPc.s:28894  .debug_str:000000000001f109 .LASF3549
C:\Users\CYMR90~1\AppData\Local\Temp\ccBEkVPc.s:23661  .debug_str:000000000000a13f .LASF3550
C:\Users\CYMR90~1\AppData\Local\Temp\ccBEkVPc.s:21949  .debug_str:000000000000323e .LASF3551
C:\Users\CYMR90~1\AppData\Local\Temp\ccBEkVPc.s:23907  .debug_str:000000000000b121 .LASF3552
C:\Users\CYMR90~1\AppData\Local\Temp\ccBEkVPc.s:22829  .debug_str:0000000000006ac8 .LASF3553
C:\Users\CYMR90~1\AppData\Local\Temp\ccBEkVPc.s:30396  .debug_str:0000000000024d51 .LASF3554
C:\Users\CYMR90~1\AppData\Local\Temp\ccBEkVPc.s:27780  .debug_str:000000000001aa4e .LASF3555
C:\Users\CYMR90~1\AppData\Local\Temp\ccBEkVPc.s:27638  .debug_str:0000000000019fd5 .LASF3556
C:\Users\CYMR90~1\AppData\Local\Temp\ccBEkVPc.s:22787  .debug_str:0000000000006840 .LASF3557
C:\Users\CYMR90~1\AppData\Local\Temp\ccBEkVPc.s:24763  .debug_str:000000000000e7de .LASF3558
C:\Users\CYMR90~1\AppData\Local\Temp\ccBEkVPc.s:24599  .debug_str:000000000000dd91 .LASF3559
C:\Users\CYMR90~1\AppData\Local\Temp\ccBEkVPc.s:23227  .debug_str:0000000000008640 .LASF3560
C:\Users\CYMR90~1\AppData\Local\Temp\ccBEkVPc.s:23421  .debug_str:00000000000091da .LASF3561
C:\Users\CYMR90~1\AppData\Local\Temp\ccBEkVPc.s:24009  .debug_str:000000000000b761 .LASF3562
C:\Users\CYMR90~1\AppData\Local\Temp\ccBEkVPc.s:21973  .debug_str:00000000000033c3 .LASF3563
C:\Users\CYMR90~1\AppData\Local\Temp\ccBEkVPc.s:23347  .debug_str:0000000000008d53 .LASF3564
C:\Users\CYMR90~1\AppData\Local\Temp\ccBEkVPc.s:31358  .debug_str:0000000000028d65 .LASF3565
C:\Users\CYMR90~1\AppData\Local\Temp\ccBEkVPc.s:26910  .debug_str:00000000000171dc .LASF3566
C:\Users\CYMR90~1\AppData\Local\Temp\ccBEkVPc.s:24155  .debug_str:000000000000c164 .LASF3567
C:\Users\CYMR90~1\AppData\Local\Temp\ccBEkVPc.s:30030  .debug_str:0000000000023588 .LASF3568
C:\Users\CYMR90~1\AppData\Local\Temp\ccBEkVPc.s:32082  .debug_str:000000000002baa5 .LASF3569
C:\Users\CYMR90~1\AppData\Local\Temp\ccBEkVPc.s:25721  .debug_str:00000000000123c3 .LASF3570
C:\Users\CYMR90~1\AppData\Local\Temp\ccBEkVPc.s:25571  .debug_str:0000000000011a78 .LASF3571
C:\Users\CYMR90~1\AppData\Local\Temp\ccBEkVPc.s:27902  .debug_str:000000000001b23a .LASF3572
C:\Users\CYMR90~1\AppData\Local\Temp\ccBEkVPc.s:30042  .debug_str:0000000000023678 .LASF3573
C:\Users\CYMR90~1\AppData\Local\Temp\ccBEkVPc.s:31464  .debug_str:00000000000294a1 .LASF3574
C:\Users\CYMR90~1\AppData\Local\Temp\ccBEkVPc.s:27556  .debug_str:0000000000019aee .LASF3575
C:\Users\CYMR90~1\AppData\Local\Temp\ccBEkVPc.s:28880  .debug_str:000000000001f016 .LASF3576
C:\Users\CYMR90~1\AppData\Local\Temp\ccBEkVPc.s:29970  .debug_str:00000000000231ff .LASF3577
C:\Users\CYMR90~1\AppData\Local\Temp\ccBEkVPc.s:30806  .debug_str:00000000000268ff .LASF3578
C:\Users\CYMR90~1\AppData\Local\Temp\ccBEkVPc.s:21353  .debug_str:0000000000000d99 .LASF3579
C:\Users\CYMR90~1\AppData\Local\Temp\ccBEkVPc.s:29936  .debug_str:0000000000023064 .LASF3580
C:\Users\CYMR90~1\AppData\Local\Temp\ccBEkVPc.s:32166  .debug_str:000000000002c0a1 .LASF3581
C:\Users\CYMR90~1\AppData\Local\Temp\ccBEkVPc.s:30942  .debug_str:0000000000027131 .LASF3582
C:\Users\CYMR90~1\AppData\Local\Temp\ccBEkVPc.s:21815  .debug_str:00000000000029b5 .LASF3583
C:\Users\CYMR90~1\AppData\Local\Temp\ccBEkVPc.s:21499  .debug_str:000000000000165a .LASF3584
C:\Users\CYMR90~1\AppData\Local\Temp\ccBEkVPc.s:22949  .debug_str:00000000000072ed .LASF3585
C:\Users\CYMR90~1\AppData\Local\Temp\ccBEkVPc.s:24355  .debug_str:000000000000ce36 .LASF3586
C:\Users\CYMR90~1\AppData\Local\Temp\ccBEkVPc.s:22687  .debug_str:0000000000006227 .LASF3587
C:\Users\CYMR90~1\AppData\Local\Temp\ccBEkVPc.s:29430  .debug_str:00000000000211d6 .LASF3588
C:\Users\CYMR90~1\AppData\Local\Temp\ccBEkVPc.s:29686  .debug_str:000000000002219b .LASF3589
C:\Users\CYMR90~1\AppData\Local\Temp\ccBEkVPc.s:23513  .debug_str:00000000000097c5 .LASF3590
C:\Users\CYMR90~1\AppData\Local\Temp\ccBEkVPc.s:30088  .debug_str:000000000002394e .LASF3591
C:\Users\CYMR90~1\AppData\Local\Temp\ccBEkVPc.s:32286  .debug_str:000000000002c846 .LASF3592
C:\Users\CYMR90~1\AppData\Local\Temp\ccBEkVPc.s:25153  .debug_str:0000000000010032 .LASF3593
C:\Users\CYMR90~1\AppData\Local\Temp\ccBEkVPc.s:24651  .debug_str:000000000000e0e9 .LASF3594
C:\Users\CYMR90~1\AppData\Local\Temp\ccBEkVPc.s:28818  .debug_str:000000000001eca7 .LASF3595
C:\Users\CYMR90~1\AppData\Local\Temp\ccBEkVPc.s:22267  .debug_str:00000000000047ce .LASF3596
C:\Users\CYMR90~1\AppData\Local\Temp\ccBEkVPc.s:21575  .debug_str:0000000000001b9b .LASF3597
C:\Users\CYMR90~1\AppData\Local\Temp\ccBEkVPc.s:23599  .debug_str:0000000000009d9d .LASF3598
C:\Users\CYMR90~1\AppData\Local\Temp\ccBEkVPc.s:29944  .debug_str:00000000000230d1 .LASF3599
C:\Users\CYMR90~1\AppData\Local\Temp\ccBEkVPc.s:25605  .debug_str:0000000000011c9b .LASF3600
C:\Users\CYMR90~1\AppData\Local\Temp\ccBEkVPc.s:26137  .debug_str:0000000000013f05 .LASF3601
C:\Users\CYMR90~1\AppData\Local\Temp\ccBEkVPc.s:23477  .debug_str:000000000000955e .LASF3602
C:\Users\CYMR90~1\AppData\Local\Temp\ccBEkVPc.s:27800  .debug_str:000000000001ab97 .LASF3603
C:\Users\CYMR90~1\AppData\Local\Temp\ccBEkVPc.s:27386  .debug_str:0000000000018f57 .LASF3604
C:\Users\CYMR90~1\AppData\Local\Temp\ccBEkVPc.s:31314  .debug_str:0000000000028afa .LASF3605
C:\Users\CYMR90~1\AppData\Local\Temp\ccBEkVPc.s:27072  .debug_str:0000000000017bcf .LASF3606
C:\Users\CYMR90~1\AppData\Local\Temp\ccBEkVPc.s:31240  .debug_str:00000000000285e8 .LASF3607
C:\Users\CYMR90~1\AppData\Local\Temp\ccBEkVPc.s:24663  .debug_str:000000000000e1aa .LASF3608
C:\Users\CYMR90~1\AppData\Local\Temp\ccBEkVPc.s:23139  .debug_str:0000000000007fd7 .LASF3609
C:\Users\CYMR90~1\AppData\Local\Temp\ccBEkVPc.s:32222  .debug_str:000000000002c428 .LASF3610
C:\Users\CYMR90~1\AppData\Local\Temp\ccBEkVPc.s:26463  .debug_str:000000000001539e .LASF3611
C:\Users\CYMR90~1\AppData\Local\Temp\ccBEkVPc.s:28190  .debug_str:000000000001c3d6 .LASF3612
C:\Users\CYMR90~1\AppData\Local\Temp\ccBEkVPc.s:27614  .debug_str:0000000000019e5d .LASF3613
C:\Users\CYMR90~1\AppData\Local\Temp\ccBEkVPc.s:30222  .debug_str:00000000000241ed .LASF3614
C:\Users\CYMR90~1\AppData\Local\Temp\ccBEkVPc.s:29480  .debug_str:000000000002153c .LASF3615
C:\Users\CYMR90~1\AppData\Local\Temp\ccBEkVPc.s:24037  .debug_str:000000000000b94a .LASF3616
C:\Users\CYMR90~1\AppData\Local\Temp\ccBEkVPc.s:27660  .debug_str:000000000001a107 .LASF3617
C:\Users\CYMR90~1\AppData\Local\Temp\ccBEkVPc.s:21147  .debug_str:00000000000000fe .LASF3618
C:\Users\CYMR90~1\AppData\Local\Temp\ccBEkVPc.s:25565  .debug_str:0000000000011983 .LASF3619
C:\Users\CYMR90~1\AppData\Local\Temp\ccBEkVPc.s:29518  .debug_str:0000000000021777 .LASF3620
C:\Users\CYMR90~1\AppData\Local\Temp\ccBEkVPc.s:29770  .debug_str:0000000000022663 .LASF3621
C:\Users\CYMR90~1\AppData\Local\Temp\ccBEkVPc.s:26651  .debug_str:0000000000015f0c .LASF3622
C:\Users\CYMR90~1\AppData\Local\Temp\ccBEkVPc.s:31598  .debug_str:0000000000029cae .LASF3623
C:\Users\CYMR90~1\AppData\Local\Temp\ccBEkVPc.s:24259  .debug_str:000000000000c768 .LASF3624
C:\Users\CYMR90~1\AppData\Local\Temp\ccBEkVPc.s:25751  .debug_str:000000000001260a .LASF3625
C:\Users\CYMR90~1\AppData\Local\Temp\ccBEkVPc.s:30066  .debug_str:00000000000237f4 .LASF3626
C:\Users\CYMR90~1\AppData\Local\Temp\ccBEkVPc.s:30490  .debug_str:0000000000025411 .LASF3627
C:\Users\CYMR90~1\AppData\Local\Temp\ccBEkVPc.s:25607  .debug_str:0000000000011cb0 .LASF3628
C:\Users\CYMR90~1\AppData\Local\Temp\ccBEkVPc.s:25965  .debug_str:0000000000013481 .LASF3629
C:\Users\CYMR90~1\AppData\Local\Temp\ccBEkVPc.s:21597  .debug_str:0000000000001cc2 .LASF3630
C:\Users\CYMR90~1\AppData\Local\Temp\ccBEkVPc.s:22919  .debug_str:0000000000007087 .LASF3631
C:\Users\CYMR90~1\AppData\Local\Temp\ccBEkVPc.s:32042  .debug_str:000000000002b7d2 .LASF3632
C:\Users\CYMR90~1\AppData\Local\Temp\ccBEkVPc.s:26681  .debug_str:0000000000016145 .LASF3633
C:\Users\CYMR90~1\AppData\Local\Temp\ccBEkVPc.s:27480  .debug_str:00000000000195ad .LASF3634
C:\Users\CYMR90~1\AppData\Local\Temp\ccBEkVPc.s:24535  .debug_str:000000000000d9ed .LASF3635
C:\Users\CYMR90~1\AppData\Local\Temp\ccBEkVPc.s:25813  .debug_str:0000000000012a1b .LASF3636
C:\Users\CYMR90~1\AppData\Local\Temp\ccBEkVPc.s:21373  .debug_str:0000000000000f33 .LASF3637
C:\Users\CYMR90~1\AppData\Local\Temp\ccBEkVPc.s:27744  .debug_str:000000000001a7bc .LASF3638
C:\Users\CYMR90~1\AppData\Local\Temp\ccBEkVPc.s:22185  .debug_str:000000000000422e .LASF3639
C:\Users\CYMR90~1\AppData\Local\Temp\ccBEkVPc.s:27998  .debug_str:000000000001b827 .LASF3640
C:\Users\CYMR90~1\AppData\Local\Temp\ccBEkVPc.s:22449  .debug_str:0000000000005377 .LASF3641
C:\Users\CYMR90~1\AppData\Local\Temp\ccBEkVPc.s:23581  .debug_str:0000000000009c65 .LASF3642
C:\Users\CYMR90~1\AppData\Local\Temp\ccBEkVPc.s:22731  .debug_str:00000000000064bd .LASF3643
C:\Users\CYMR90~1\AppData\Local\Temp\ccBEkVPc.s:28504  .debug_str:000000000001d91d .LASF3644
C:\Users\CYMR90~1\AppData\Local\Temp\ccBEkVPc.s:30966  .debug_str:000000000002738a .LASF3645
C:\Users\CYMR90~1\AppData\Local\Temp\ccBEkVPc.s:29708  .debug_str:0000000000022312 .LASF3646
C:\Users\CYMR90~1\AppData\Local\Temp\ccBEkVPc.s:22769  .debug_str:00000000000066f0 .LASF3647
C:\Users\CYMR90~1\AppData\Local\Temp\ccBEkVPc.s:31608  .debug_str:0000000000029d42 .LASF3648
C:\Users\CYMR90~1\AppData\Local\Temp\ccBEkVPc.s:28970  .debug_str:000000000001f5ec .LASF3649
C:\Users\CYMR90~1\AppData\Local\Temp\ccBEkVPc.s:24853  .debug_str:000000000000ed87 .LASF3650
C:\Users\CYMR90~1\AppData\Local\Temp\ccBEkVPc.s:23859  .debug_str:000000000000ad69 .LASF3651
C:\Users\CYMR90~1\AppData\Local\Temp\ccBEkVPc.s:21237  .debug_str:0000000000000639 .LASF3652
C:\Users\CYMR90~1\AppData\Local\Temp\ccBEkVPc.s:25097  .debug_str:000000000000fc97 .LASF3653
C:\Users\CYMR90~1\AppData\Local\Temp\ccBEkVPc.s:24043  .debug_str:000000000000b9a0 .LASF3654
C:\Users\CYMR90~1\AppData\Local\Temp\ccBEkVPc.s:24809  .debug_str:000000000000eaf5 .LASF3655
C:\Users\CYMR90~1\AppData\Local\Temp\ccBEkVPc.s:22955  .debug_str:0000000000007356 .LASF3656
C:\Users\CYMR90~1\AppData\Local\Temp\ccBEkVPc.s:31032  .debug_str:0000000000027756 .LASF3657
C:\Users\CYMR90~1\AppData\Local\Temp\ccBEkVPc.s:28430  .debug_str:000000000001d447 .LASF3658
C:\Users\CYMR90~1\AppData\Local\Temp\ccBEkVPc.s:25905  .debug_str:0000000000013021 .LASF3659
C:\Users\CYMR90~1\AppData\Local\Temp\ccBEkVPc.s:28016  .debug_str:000000000001b962 .LASF3660
C:\Users\CYMR90~1\AppData\Local\Temp\ccBEkVPc.s:32002  .debug_str:000000000002b543 .LASF3661
C:\Users\CYMR90~1\AppData\Local\Temp\ccBEkVPc.s:25241  .debug_str:000000000001057d .LASF3662
C:\Users\CYMR90~1\AppData\Local\Temp\ccBEkVPc.s:31266  .debug_str:00000000000287e8 .LASF3663
C:\Users\CYMR90~1\AppData\Local\Temp\ccBEkVPc.s:24239  .debug_str:000000000000c633 .LASF3664
C:\Users\CYMR90~1\AppData\Local\Temp\ccBEkVPc.s:21677  .debug_str:0000000000002136 .LASF3665
C:\Users\CYMR90~1\AppData\Local\Temp\ccBEkVPc.s:25217  .debug_str:0000000000010415 .LASF3666
C:\Users\CYMR90~1\AppData\Local\Temp\ccBEkVPc.s:25135  .debug_str:000000000000ff02 .LASF3667
C:\Users\CYMR90~1\AppData\Local\Temp\ccBEkVPc.s:25351  .debug_str:0000000000010c19 .LASF3668
C:\Users\CYMR90~1\AppData\Local\Temp\ccBEkVPc.s:29688  .debug_str:00000000000221b3 .LASF3669
C:\Users\CYMR90~1\AppData\Local\Temp\ccBEkVPc.s:26023  .debug_str:000000000001381c .LASF3670
C:\Users\CYMR90~1\AppData\Local\Temp\ccBEkVPc.s:23129  .debug_str:0000000000007f42 .LASF3671
C:\Users\CYMR90~1\AppData\Local\Temp\ccBEkVPc.s:29920  .debug_str:0000000000022f6d .LASF3672
C:\Users\CYMR90~1\AppData\Local\Temp\ccBEkVPc.s:32044  .debug_str:000000000002b7f6 .LASF3673
C:\Users\CYMR90~1\AppData\Local\Temp\ccBEkVPc.s:31580  .debug_str:0000000000029b96 .LASF3674
C:\Users\CYMR90~1\AppData\Local\Temp\ccBEkVPc.s:28106  .debug_str:000000000001be92 .LASF3675
C:\Users\CYMR90~1\AppData\Local\Temp\ccBEkVPc.s:22923  .debug_str:00000000000070c9 .LASF3676
C:\Users\CYMR90~1\AppData\Local\Temp\ccBEkVPc.s:22495  .debug_str:0000000000005677 .LASF3677
C:\Users\CYMR90~1\AppData\Local\Temp\ccBEkVPc.s:23011  .debug_str:00000000000076dc .LASF3678
C:\Users\CYMR90~1\AppData\Local\Temp\ccBEkVPc.s:21965  .debug_str:0000000000003348 .LASF3679
C:\Users\CYMR90~1\AppData\Local\Temp\ccBEkVPc.s:30300  .debug_str:0000000000024709 .LASF3680
C:\Users\CYMR90~1\AppData\Local\Temp\ccBEkVPc.s:25163  .debug_str:00000000000100ac .LASF3681
C:\Users\CYMR90~1\AppData\Local\Temp\ccBEkVPc.s:23319  .debug_str:0000000000008bb1 .LASF3682
C:\Users\CYMR90~1\AppData\Local\Temp\ccBEkVPc.s:23431  .debug_str:000000000000928d .LASF3683
C:\Users\CYMR90~1\AppData\Local\Temp\ccBEkVPc.s:29586  .debug_str:0000000000021b6b .LASF3684
C:\Users\CYMR90~1\AppData\Local\Temp\ccBEkVPc.s:31516  .debug_str:00000000000297f9 .LASF3685
C:\Users\CYMR90~1\AppData\Local\Temp\ccBEkVPc.s:29828  .debug_str:00000000000229b3 .LASF3686
C:\Users\CYMR90~1\AppData\Local\Temp\ccBEkVPc.s:31402  .debug_str:000000000002903c .LASF3687
C:\Users\CYMR90~1\AppData\Local\Temp\ccBEkVPc.s:21267  .debug_str:000000000000081e .LASF3688
C:\Users\CYMR90~1\AppData\Local\Temp\ccBEkVPc.s:29864  .debug_str:0000000000022c44 .LASF3689
C:\Users\CYMR90~1\AppData\Local\Temp\ccBEkVPc.s:26868  .debug_str:0000000000016f58 .LASF3690
C:\Users\CYMR90~1\AppData\Local\Temp\ccBEkVPc.s:23867  .debug_str:000000000000addd .LASF3691
C:\Users\CYMR90~1\AppData\Local\Temp\ccBEkVPc.s:25821  .debug_str:0000000000012ac2 .LASF3692
C:\Users\CYMR90~1\AppData\Local\Temp\ccBEkVPc.s:22907  .debug_str:0000000000006fc5 .LASF3693
C:\Users\CYMR90~1\AppData\Local\Temp\ccBEkVPc.s:26483  .debug_str:000000000001548b .LASF3694
C:\Users\CYMR90~1\AppData\Local\Temp\ccBEkVPc.s:24285  .debug_str:000000000000c9b2 .LASF3695
C:\Users\CYMR90~1\AppData\Local\Temp\ccBEkVPc.s:29940  .debug_str:0000000000023092 .LASF3696
C:\Users\CYMR90~1\AppData\Local\Temp\ccBEkVPc.s:27900  .debug_str:000000000001b1f7 .LASF3697
C:\Users\CYMR90~1\AppData\Local\Temp\ccBEkVPc.s:29872  .debug_str:0000000000022cd3 .LASF3698
C:\Users\CYMR90~1\AppData\Local\Temp\ccBEkVPc.s:27012  .debug_str:00000000000177fe .LASF3699
C:\Users\CYMR90~1\AppData\Local\Temp\ccBEkVPc.s:24727  .debug_str:000000000000e573 .LASF3700
C:\Users\CYMR90~1\AppData\Local\Temp\ccBEkVPc.s:28940  .debug_str:000000000001f3e2 .LASF3701
C:\Users\CYMR90~1\AppData\Local\Temp\ccBEkVPc.s:23463  .debug_str:0000000000009467 .LASF3702
C:\Users\CYMR90~1\AppData\Local\Temp\ccBEkVPc.s:26183  .debug_str:00000000000141f6 .LASF3703
C:\Users\CYMR90~1\AppData\Local\Temp\ccBEkVPc.s:27148  .debug_str:0000000000018062 .LASF3704
C:\Users\CYMR90~1\AppData\Local\Temp\ccBEkVPc.s:30856  .debug_str:0000000000026beb .LASF3705
C:\Users\CYMR90~1\AppData\Local\Temp\ccBEkVPc.s:23707  .debug_str:000000000000a3f4 .LASF3706
C:\Users\CYMR90~1\AppData\Local\Temp\ccBEkVPc.s:22419  .debug_str:00000000000051ae .LASF3707
C:\Users\CYMR90~1\AppData\Local\Temp\ccBEkVPc.s:27450  .debug_str:00000000000193b6 .LASF3708
C:\Users\CYMR90~1\AppData\Local\Temp\ccBEkVPc.s:23967  .debug_str:000000000000b44e .LASF3709
C:\Users\CYMR90~1\AppData\Local\Temp\ccBEkVPc.s:24697  .debug_str:000000000000e3c3 .LASF3710
C:\Users\CYMR90~1\AppData\Local\Temp\ccBEkVPc.s:32138  .debug_str:000000000002be78 .LASF3711
C:\Users\CYMR90~1\AppData\Local\Temp\ccBEkVPc.s:31988  .debug_str:000000000002b452 .LASF3712
C:\Users\CYMR90~1\AppData\Local\Temp\ccBEkVPc.s:24555  .debug_str:000000000000db35 .LASF3713
C:\Users\CYMR90~1\AppData\Local\Temp\ccBEkVPc.s:22503  .debug_str:00000000000056e6 .LASF3714
C:\Users\CYMR90~1\AppData\Local\Temp\ccBEkVPc.s:31636  .debug_str:0000000000029edc .LASF3715
C:\Users\CYMR90~1\AppData\Local\Temp\ccBEkVPc.s:29390  .debug_str:0000000000020f77 .LASF3716
C:\Users\CYMR90~1\AppData\Local\Temp\ccBEkVPc.s:29306  .debug_str:0000000000020a57 .LASF3717
C:\Users\CYMR90~1\AppData\Local\Temp\ccBEkVPc.s:26601  .debug_str:0000000000015b7b .LASF3718
C:\Users\CYMR90~1\AppData\Local\Temp\ccBEkVPc.s:22605  .debug_str:0000000000005d19 .LASF3719
C:\Users\CYMR90~1\AppData\Local\Temp\ccBEkVPc.s:26067  .debug_str:0000000000013ad2 .LASF3720
C:\Users\CYMR90~1\AppData\Local\Temp\ccBEkVPc.s:29578  .debug_str:0000000000021af1 .LASF3721
C:\Users\CYMR90~1\AppData\Local\Temp\ccBEkVPc.s:30668  .debug_str:000000000002606e .LASF3722
C:\Users\CYMR90~1\AppData\Local\Temp\ccBEkVPc.s:22337  .debug_str:0000000000004cb4 .LASF3723
C:\Users\CYMR90~1\AppData\Local\Temp\ccBEkVPc.s:30148  .debug_str:0000000000023ca7 .LASF3724
C:\Users\CYMR90~1\AppData\Local\Temp\ccBEkVPc.s:29310  .debug_str:0000000000020aa7 .LASF3725
C:\Users\CYMR90~1\AppData\Local\Temp\ccBEkVPc.s:31786  .debug_str:000000000002a7df .LASF3726
C:\Users\CYMR90~1\AppData\Local\Temp\ccBEkVPc.s:24829  .debug_str:000000000000ec2b .LASF3727
C:\Users\CYMR90~1\AppData\Local\Temp\ccBEkVPc.s:22517  .debug_str:00000000000057a9 .LASF3728
C:\Users\CYMR90~1\AppData\Local\Temp\ccBEkVPc.s:24191  .debug_str:000000000000c36d .LASF3729
C:\Users\CYMR90~1\AppData\Local\Temp\ccBEkVPc.s:29402  .debug_str:0000000000021019 .LASF3730
C:\Users\CYMR90~1\AppData\Local\Temp\ccBEkVPc.s:27250  .debug_str:0000000000018655 .LASF3731
C:\Users\CYMR90~1\AppData\Local\Temp\ccBEkVPc.s:28344  .debug_str:000000000001ce00 .LASF3732
C:\Users\CYMR90~1\AppData\Local\Temp\ccBEkVPc.s:31376  .debug_str:0000000000028eb1 .LASF3733
C:\Users\CYMR90~1\AppData\Local\Temp\ccBEkVPc.s:29222  .debug_str:0000000000020509 .LASF3734
C:\Users\CYMR90~1\AppData\Local\Temp\ccBEkVPc.s:32310  .debug_str:000000000002ca12 .LASF3735
C:\Users\CYMR90~1\AppData\Local\Temp\ccBEkVPc.s:22011  .debug_str:0000000000003677 .LASF3736
C:\Users\CYMR90~1\AppData\Local\Temp\ccBEkVPc.s:30472  .debug_str:00000000000252f7 .LASF3737
C:\Users\CYMR90~1\AppData\Local\Temp\ccBEkVPc.s:21391  .debug_str:0000000000001015 .LASF3738
C:\Users\CYMR90~1\AppData\Local\Temp\ccBEkVPc.s:28508  .debug_str:000000000001d964 .LASF3739
C:\Users\CYMR90~1\AppData\Local\Temp\ccBEkVPc.s:25939  .debug_str:0000000000013244 .LASF3740
C:\Users\CYMR90~1\AppData\Local\Temp\ccBEkVPc.s:32392  .debug_str:000000000002cf96 .LASF3741
C:\Users\CYMR90~1\AppData\Local\Temp\ccBEkVPc.s:21805  .debug_str:000000000000291c .LASF3742
C:\Users\CYMR90~1\AppData\Local\Temp\ccBEkVPc.s:30914  .debug_str:0000000000026fa4 .LASF3743
C:\Users\CYMR90~1\AppData\Local\Temp\ccBEkVPc.s:25799  .debug_str:0000000000012917 .LASF3744
C:\Users\CYMR90~1\AppData\Local\Temp\ccBEkVPc.s:29214  .debug_str:000000000002044f .LASF3745
C:\Users\CYMR90~1\AppData\Local\Temp\ccBEkVPc.s:29356  .debug_str:0000000000020d79 .LASF3746
C:\Users\CYMR90~1\AppData\Local\Temp\ccBEkVPc.s:21351  .debug_str:0000000000000d77 .LASF3747
C:\Users\CYMR90~1\AppData\Local\Temp\ccBEkVPc.s:28568  .debug_str:000000000001dcf3 .LASF3748
C:\Users\CYMR90~1\AppData\Local\Temp\ccBEkVPc.s:21447  .debug_str:0000000000001342 .LASF3749
C:\Users\CYMR90~1\AppData\Local\Temp\ccBEkVPc.s:31168  .debug_str:00000000000280b6 .LASF3750
C:\Users\CYMR90~1\AppData\Local\Temp\ccBEkVPc.s:25707  .debug_str:00000000000122ad .LASF3751
C:\Users\CYMR90~1\AppData\Local\Temp\ccBEkVPc.s:28716  .debug_str:000000000001e668 .LASF3752
C:\Users\CYMR90~1\AppData\Local\Temp\ccBEkVPc.s:27612  .debug_str:0000000000019e2d .LASF3753
C:\Users\CYMR90~1\AppData\Local\Temp\ccBEkVPc.s:26367  .debug_str:0000000000014d65 .LASF3754
C:\Users\CYMR90~1\AppData\Local\Temp\ccBEkVPc.s:25185  .debug_str:000000000001022c .LASF3755
C:\Users\CYMR90~1\AppData\Local\Temp\ccBEkVPc.s:32032  .debug_str:000000000002b703 .LASF3756
C:\Users\CYMR90~1\AppData\Local\Temp\ccBEkVPc.s:30384  .debug_str:0000000000024c68 .LASF3757
C:\Users\CYMR90~1\AppData\Local\Temp\ccBEkVPc.s:21563  .debug_str:0000000000001abe .LASF3758
C:\Users\CYMR90~1\AppData\Local\Temp\ccBEkVPc.s:31156  .debug_str:0000000000027f92 .LASF3759
C:\Users\CYMR90~1\AppData\Local\Temp\ccBEkVPc.s:31394  .debug_str:0000000000028fa3 .LASF3760
C:\Users\CYMR90~1\AppData\Local\Temp\ccBEkVPc.s:21159  .debug_str:0000000000000198 .LASF3761
C:\Users\CYMR90~1\AppData\Local\Temp\ccBEkVPc.s:32260  .debug_str:000000000002c6bf .LASF3762
C:\Users\CYMR90~1\AppData\Local\Temp\ccBEkVPc.s:23809  .debug_str:000000000000aa23 .LASF3763
C:\Users\CYMR90~1\AppData\Local\Temp\ccBEkVPc.s:30400  .debug_str:0000000000024d8b .LASF3764
C:\Users\CYMR90~1\AppData\Local\Temp\ccBEkVPc.s:23665  .debug_str:000000000000a16c .LASF3765
C:\Users\CYMR90~1\AppData\Local\Temp\ccBEkVPc.s:29464  .debug_str:00000000000213a3 .LASF3766
C:\Users\CYMR90~1\AppData\Local\Temp\ccBEkVPc.s:21841  .debug_str:0000000000002b52 .LASF3767
C:\Users\CYMR90~1\AppData\Local\Temp\ccBEkVPc.s:27628  .debug_str:0000000000019f2a .LASF3768
C:\Users\CYMR90~1\AppData\Local\Temp\ccBEkVPc.s:24471  .debug_str:000000000000d658 .LASF3769
C:\Users\CYMR90~1\AppData\Local\Temp\ccBEkVPc.s:22557  .debug_str:0000000000005a1c .LASF3770
C:\Users\CYMR90~1\AppData\Local\Temp\ccBEkVPc.s:31074  .debug_str:00000000000279de .LASF3771
C:\Users\CYMR90~1\AppData\Local\Temp\ccBEkVPc.s:24957  .debug_str:000000000000f39b .LASF3772
C:\Users\CYMR90~1\AppData\Local\Temp\ccBEkVPc.s:24149  .debug_str:000000000000c0e9 .LASF3773
C:\Users\CYMR90~1\AppData\Local\Temp\ccBEkVPc.s:29194  .debug_str:000000000002033e .LASF3774
C:\Users\CYMR90~1\AppData\Local\Temp\ccBEkVPc.s:21297  .debug_str:00000000000009ee .LASF3775
C:\Users\CYMR90~1\AppData\Local\Temp\ccBEkVPc.s:25603  .debug_str:0000000000011c69 .LASF3776
C:\Users\CYMR90~1\AppData\Local\Temp\ccBEkVPc.s:31044  .debug_str:0000000000027809 .LASF3777
C:\Users\CYMR90~1\AppData\Local\Temp\ccBEkVPc.s:22713  .debug_str:0000000000006395 .LASF3778
C:\Users\CYMR90~1\AppData\Local\Temp\ccBEkVPc.s:24081  .debug_str:000000000000bc28 .LASF3779
C:\Users\CYMR90~1\AppData\Local\Temp\ccBEkVPc.s:25175  .debug_str:0000000000010183 .LASF3780
C:\Users\CYMR90~1\AppData\Local\Temp\ccBEkVPc.s:29440  .debug_str:0000000000021243 .LASF3781
C:\Users\CYMR90~1\AppData\Local\Temp\ccBEkVPc.s:22347  .debug_str:0000000000004d6c .LASF3782
C:\Users\CYMR90~1\AppData\Local\Temp\ccBEkVPc.s:26583  .debug_str:0000000000015a54 .LASF3783
C:\Users\CYMR90~1\AppData\Local\Temp\ccBEkVPc.s:30874  .debug_str:0000000000026cfb .LASF3784
C:\Users\CYMR90~1\AppData\Local\Temp\ccBEkVPc.s:23855  .debug_str:000000000000ad1d .LASF3785
C:\Users\CYMR90~1\AppData\Local\Temp\ccBEkVPc.s:26159  .debug_str:000000000001403e .LASF3786
C:\Users\CYMR90~1\AppData\Local\Temp\ccBEkVPc.s:28596  .debug_str:000000000001df09 .LASF3787
C:\Users\CYMR90~1\AppData\Local\Temp\ccBEkVPc.s:24351  .debug_str:000000000000cde8 .LASF3788
C:\Users\CYMR90~1\AppData\Local\Temp\ccBEkVPc.s:29622  .debug_str:0000000000021db7 .LASF3789
C:\Users\CYMR90~1\AppData\Local\Temp\ccBEkVPc.s:22551  .debug_str:00000000000059b7 .LASF3790
C:\Users\CYMR90~1\AppData\Local\Temp\ccBEkVPc.s:31986  .debug_str:000000000002b420 .LASF3791
C:\Users\CYMR90~1\AppData\Local\Temp\ccBEkVPc.s:24951  .debug_str:000000000000f318 .LASF3792
C:\Users\CYMR90~1\AppData\Local\Temp\ccBEkVPc.s:29126  .debug_str:000000000001ff1e .LASF3793
C:\Users\CYMR90~1\AppData\Local\Temp\ccBEkVPc.s:22055  .debug_str:000000000000398a .LASF3794
C:\Users\CYMR90~1\AppData\Local\Temp\ccBEkVPc.s:25029  .debug_str:000000000000f87b .LASF3795
C:\Users\CYMR90~1\AppData\Local\Temp\ccBEkVPc.s:30182  .debug_str:0000000000023ead .LASF3796
C:\Users\CYMR90~1\AppData\Local\Temp\ccBEkVPc.s:23547  .debug_str:0000000000009a1f .LASF3797
C:\Users\CYMR90~1\AppData\Local\Temp\ccBEkVPc.s:27858  .debug_str:000000000001aee6 .LASF3798
C:\Users\CYMR90~1\AppData\Local\Temp\ccBEkVPc.s:22155  .debug_str:0000000000003fe0 .LASF3799
C:\Users\CYMR90~1\AppData\Local\Temp\ccBEkVPc.s:30220  .debug_str:00000000000241bb .LASF3800
C:\Users\CYMR90~1\AppData\Local\Temp\ccBEkVPc.s:23183  .debug_str:0000000000008350 .LASF3801
C:\Users\CYMR90~1\AppData\Local\Temp\ccBEkVPc.s:24799  .debug_str:000000000000ea21 .LASF3802
C:\Users\CYMR90~1\AppData\Local\Temp\ccBEkVPc.s:31670  .debug_str:000000000002a0c4 .LASF3803
C:\Users\CYMR90~1\AppData\Local\Temp\ccBEkVPc.s:23009  .debug_str:00000000000076aa .LASF3804
C:\Users\CYMR90~1\AppData\Local\Temp\ccBEkVPc.s:29002  .debug_str:000000000001f79b .LASF3805
C:\Users\CYMR90~1\AppData\Local\Temp\ccBEkVPc.s:21765  .debug_str:000000000000268b .LASF3806
C:\Users\CYMR90~1\AppData\Local\Temp\ccBEkVPc.s:27182  .debug_str:000000000001825e .LASF3807
C:\Users\CYMR90~1\AppData\Local\Temp\ccBEkVPc.s:30350  .debug_str:0000000000024a52 .LASF3808
C:\Users\CYMR90~1\AppData\Local\Temp\ccBEkVPc.s:23193  .debug_str:0000000000008406 .LASF3809
C:\Users\CYMR90~1\AppData\Local\Temp\ccBEkVPc.s:30624  .debug_str:0000000000025d8d .LASF3810
C:\Users\CYMR90~1\AppData\Local\Temp\ccBEkVPc.s:25749  .debug_str:00000000000125d8 .LASF3811
C:\Users\CYMR90~1\AppData\Local\Temp\ccBEkVPc.s:29926  .debug_str:0000000000022fc8 .LASF3812
C:\Users\CYMR90~1\AppData\Local\Temp\ccBEkVPc.s:22859  .debug_str:0000000000006cae .LASF3813
C:\Users\CYMR90~1\AppData\Local\Temp\ccBEkVPc.s:25789  .debug_str:0000000000012857 .LASF3814
C:\Users\CYMR90~1\AppData\Local\Temp\ccBEkVPc.s:29128  .debug_str:000000000001ff50 .LASF3815
C:\Users\CYMR90~1\AppData\Local\Temp\ccBEkVPc.s:25713  .debug_str:000000000001233a .LASF3816
C:\Users\CYMR90~1\AppData\Local\Temp\ccBEkVPc.s:30660  .debug_str:0000000000025ff8 .LASF3817
C:\Users\CYMR90~1\AppData\Local\Temp\ccBEkVPc.s:25967  .debug_str:00000000000134a6 .LASF3818
C:\Users\CYMR90~1\AppData\Local\Temp\ccBEkVPc.s:30598  .debug_str:0000000000025c05 .LASF3819
C:\Users\CYMR90~1\AppData\Local\Temp\ccBEkVPc.s:24745  .debug_str:000000000000e688 .LASF3820
C:\Users\CYMR90~1\AppData\Local\Temp\ccBEkVPc.s:30228  .debug_str:0000000000024264 .LASF3821
C:\Users\CYMR90~1\AppData\Local\Temp\ccBEkVPc.s:26597  .debug_str:0000000000015b2a .LASF3822
C:\Users\CYMR90~1\AppData\Local\Temp\ccBEkVPc.s:27024  .debug_str:00000000000178b8 .LASF3823
C:\Users\CYMR90~1\AppData\Local\Temp\ccBEkVPc.s:24035  .debug_str:000000000000b928 .LASF3824
C:\Users\CYMR90~1\AppData\Local\Temp\ccBEkVPc.s:26375  .debug_str:0000000000014dee .LASF3825
C:\Users\CYMR90~1\AppData\Local\Temp\ccBEkVPc.s:29334  .debug_str:0000000000020bfe .LASF3826
C:\Users\CYMR90~1\AppData\Local\Temp\ccBEkVPc.s:26401  .debug_str:0000000000014fc7 .LASF3827
C:\Users\CYMR90~1\AppData\Local\Temp\ccBEkVPc.s:30692  .debug_str:00000000000261f7 .LASF3828
C:\Users\CYMR90~1\AppData\Local\Temp\ccBEkVPc.s:27474  .debug_str:000000000001953b .LASF3829
C:\Users\CYMR90~1\AppData\Local\Temp\ccBEkVPc.s:25459  .debug_str:0000000000011281 .LASF3830
C:\Users\CYMR90~1\AppData\Local\Temp\ccBEkVPc.s:23103  .debug_str:0000000000007ce0 .LASF3831
C:\Users\CYMR90~1\AppData\Local\Temp\ccBEkVPc.s:21459  .debug_str:000000000000140f .LASF3832
C:\Users\CYMR90~1\AppData\Local\Temp\ccBEkVPc.s:21985  .debug_str:0000000000003493 .LASF3833
C:\Users\CYMR90~1\AppData\Local\Temp\ccBEkVPc.s:26017  .debug_str:00000000000137db .LASF3834
C:\Users\CYMR90~1\AppData\Local\Temp\ccBEkVPc.s:28694  .debug_str:000000000001e52e .LASF3835
C:\Users\CYMR90~1\AppData\Local\Temp\ccBEkVPc.s:27280  .debug_str:0000000000018805 .LASF3836
C:\Users\CYMR90~1\AppData\Local\Temp\ccBEkVPc.s:24637  .debug_str:000000000000e00f .LASF3837
C:\Users\CYMR90~1\AppData\Local\Temp\ccBEkVPc.s:23673  .debug_str:000000000000a206 .LASF3838
C:\Users\CYMR90~1\AppData\Local\Temp\ccBEkVPc.s:25129  .debug_str:000000000000fe94 .LASF3839
C:\Users\CYMR90~1\AppData\Local\Temp\ccBEkVPc.s:26990  .debug_str:0000000000017699 .LASF3840
C:\Users\CYMR90~1\AppData\Local\Temp\ccBEkVPc.s:26437  .debug_str:00000000000151ea .LASF3841
C:\Users\CYMR90~1\AppData\Local\Temp\ccBEkVPc.s:25825  .debug_str:0000000000012b0d .LASF3842
C:\Users\CYMR90~1\AppData\Local\Temp\ccBEkVPc.s:28184  .debug_str:000000000001c38c .LASF3843
C:\Users\CYMR90~1\AppData\Local\Temp\ccBEkVPc.s:24749  .debug_str:000000000000e707 .LASF3844
C:\Users\CYMR90~1\AppData\Local\Temp\ccBEkVPc.s:21335  .debug_str:0000000000000c87 .LASF3845
C:\Users\CYMR90~1\AppData\Local\Temp\ccBEkVPc.s:31400  .debug_str:0000000000029018 .LASF3846
C:\Users\CYMR90~1\AppData\Local\Temp\ccBEkVPc.s:25887  .debug_str:0000000000012ef8 .LASF3847
C:\Users\CYMR90~1\AppData\Local\Temp\ccBEkVPc.s:28520  .debug_str:000000000001da1e .LASF3848
C:\Users\CYMR90~1\AppData\Local\Temp\ccBEkVPc.s:21711  .debug_str:0000000000002335 .LASF3849
C:\Users\CYMR90~1\AppData\Local\Temp\ccBEkVPc.s:21623  .debug_str:0000000000001e77 .LASF3850
C:\Users\CYMR90~1\AppData\Local\Temp\ccBEkVPc.s:30466  .debug_str:0000000000025290 .LASF3851
C:\Users\CYMR90~1\AppData\Local\Temp\ccBEkVPc.s:30240  .debug_str:0000000000024347 .LASF3852
C:\Users\CYMR90~1\AppData\Local\Temp\ccBEkVPc.s:26864  .debug_str:0000000000016f1c .LASF3853
C:\Users\CYMR90~1\AppData\Local\Temp\ccBEkVPc.s:26165  .debug_str:00000000000140c1 .LASF3854
C:\Users\CYMR90~1\AppData\Local\Temp\ccBEkVPc.s:31388  .debug_str:0000000000028f5e .LASF3855
C:\Users\CYMR90~1\AppData\Local\Temp\ccBEkVPc.s:28010  .debug_str:000000000001b8e5 .LASF3856
C:\Users\CYMR90~1\AppData\Local\Temp\ccBEkVPc.s:24611  .debug_str:000000000000de74 .LASF3857
C:\Users\CYMR90~1\AppData\Local\Temp\ccBEkVPc.s:31770  .debug_str:000000000002a6ee .LASF3858
C:\Users\CYMR90~1\AppData\Local\Temp\ccBEkVPc.s:32074  .debug_str:000000000002ba0d .LASF3859
C:\Users\CYMR90~1\AppData\Local\Temp\ccBEkVPc.s:23839  .debug_str:000000000000ac0f .LASF3860
C:\Users\CYMR90~1\AppData\Local\Temp\ccBEkVPc.s:22345  .debug_str:0000000000004d48 .LASF3861
C:\Users\CYMR90~1\AppData\Local\Temp\ccBEkVPc.s:32294  .debug_str:000000000002c8df .LASF3862
C:\Users\CYMR90~1\AppData\Local\Temp\ccBEkVPc.s:25587  .debug_str:0000000000011b65 .LASF3863
C:\Users\CYMR90~1\AppData\Local\Temp\ccBEkVPc.s:22129  .debug_str:0000000000003e4d .LASF3864
C:\Users\CYMR90~1\AppData\Local\Temp\ccBEkVPc.s:30108  .debug_str:0000000000023a90 .LASF3865
C:\Users\CYMR90~1\AppData\Local\Temp\ccBEkVPc.s:26701  .debug_str:0000000000016265 .LASF3866
C:\Users\CYMR90~1\AppData\Local\Temp\ccBEkVPc.s:25143  .debug_str:000000000000ffa7 .LASF3867
C:\Users\CYMR90~1\AppData\Local\Temp\ccBEkVPc.s:31248  .debug_str:000000000002867c .LASF3868
C:\Users\CYMR90~1\AppData\Local\Temp\ccBEkVPc.s:29268  .debug_str:0000000000020809 .LASF3869
C:\Users\CYMR90~1\AppData\Local\Temp\ccBEkVPc.s:23149  .debug_str:0000000000008087 .LASF3870
C:\Users\CYMR90~1\AppData\Local\Temp\ccBEkVPc.s:31088  .debug_str:0000000000027b09 .LASF3871
C:\Users\CYMR90~1\AppData\Local\Temp\ccBEkVPc.s:27720  .debug_str:000000000001a603 .LASF3872
C:\Users\CYMR90~1\AppData\Local\Temp\ccBEkVPc.s:24321  .debug_str:000000000000cc61 .LASF3873
C:\Users\CYMR90~1\AppData\Local\Temp\ccBEkVPc.s:32240  .debug_str:000000000002c599 .LASF3874
C:\Users\CYMR90~1\AppData\Local\Temp\ccBEkVPc.s:22245  .debug_str:0000000000004635 .LASF3875
C:\Users\CYMR90~1\AppData\Local\Temp\ccBEkVPc.s:25463  .debug_str:00000000000112bc .LASF3876
C:\Users\CYMR90~1\AppData\Local\Temp\ccBEkVPc.s:28362  .debug_str:000000000001cfae .LASF3877
C:\Users\CYMR90~1\AppData\Local\Temp\ccBEkVPc.s:29972  .debug_str:000000000002321e .LASF3878
C:\Users\CYMR90~1\AppData\Local\Temp\ccBEkVPc.s:31320  .debug_str:0000000000028b58 .LASF3879
C:\Users\CYMR90~1\AppData\Local\Temp\ccBEkVPc.s:21847  .debug_str:0000000000002be1 .LASF3880
C:\Users\CYMR90~1\AppData\Local\Temp\ccBEkVPc.s:26984  .debug_str:0000000000017636 .LASF3881
C:\Users\CYMR90~1\AppData\Local\Temp\ccBEkVPc.s:26409  .debug_str:0000000000015047 .LASF3882
C:\Users\CYMR90~1\AppData\Local\Temp\ccBEkVPc.s:23001  .debug_str:000000000000762b .LASF3883
C:\Users\CYMR90~1\AppData\Local\Temp\ccBEkVPc.s:23125  .debug_str:0000000000007edf .LASF3884
C:\Users\CYMR90~1\AppData\Local\Temp\ccBEkVPc.s:23121  .debug_str:0000000000007e9e .LASF3885
C:\Users\CYMR90~1\AppData\Local\Temp\ccBEkVPc.s:24169  .debug_str:000000000000c22c .LASF3886
C:\Users\CYMR90~1\AppData\Local\Temp\ccBEkVPc.s:32100  .debug_str:000000000002bbd8 .LASF3887
C:\Users\CYMR90~1\AppData\Local\Temp\ccBEkVPc.s:21759  .debug_str:0000000000002617 .LASF3888
C:\Users\CYMR90~1\AppData\Local\Temp\ccBEkVPc.s:30128  .debug_str:0000000000023bab .LASF3889
C:\Users\CYMR90~1\AppData\Local\Temp\ccBEkVPc.s:32038  .debug_str:000000000002b78f .LASF3890
C:\Users\CYMR90~1\AppData\Local\Temp\ccBEkVPc.s:28522  .debug_str:000000000001da42 .LASF3891
C:\Users\CYMR90~1\AppData\Local\Temp\ccBEkVPc.s:25167  .debug_str:00000000000100e6 .LASF3892
C:\Users\CYMR90~1\AppData\Local\Temp\ccBEkVPc.s:21567  .debug_str:0000000000001b12 .LASF3893
C:\Users\CYMR90~1\AppData\Local\Temp\ccBEkVPc.s:29672  .debug_str:00000000000220c4 .LASF3894
C:\Users\CYMR90~1\AppData\Local\Temp\ccBEkVPc.s:26273  .debug_str:0000000000014797 .LASF3895
C:\Users\CYMR90~1\AppData\Local\Temp\ccBEkVPc.s:24963  .debug_str:000000000000f403 .LASF3896
C:\Users\CYMR90~1\AppData\Local\Temp\ccBEkVPc.s:27552  .debug_str:0000000000019ab4 .LASF3897
C:\Users\CYMR90~1\AppData\Local\Temp\ccBEkVPc.s:27436  .debug_str:00000000000192f1 .LASF3898
C:\Users\CYMR90~1\AppData\Local\Temp\ccBEkVPc.s:28832  .debug_str:000000000001ed55 .LASF3899
C:\Users\CYMR90~1\AppData\Local\Temp\ccBEkVPc.s:30740  .debug_str:00000000000264c4 .LASF3900
C:\Users\CYMR90~1\AppData\Local\Temp\ccBEkVPc.s:28900  .debug_str:000000000001f17a .LASF3901
C:\Users\CYMR90~1\AppData\Local\Temp\ccBEkVPc.s:23481  .debug_str:000000000000959f .LASF3902
C:\Users\CYMR90~1\AppData\Local\Temp\ccBEkVPc.s:31886  .debug_str:000000000002addd .LASF3903
C:\Users\CYMR90~1\AppData\Local\Temp\ccBEkVPc.s:25067  .debug_str:000000000000fa97 .LASF3904
C:\Users\CYMR90~1\AppData\Local\Temp\ccBEkVPc.s:29612  .debug_str:0000000000021d17 .LASF3905
C:\Users\CYMR90~1\AppData\Local\Temp\ccBEkVPc.s:21573  .debug_str:0000000000001b77 .LASF3906
C:\Users\CYMR90~1\AppData\Local\Temp\ccBEkVPc.s:29532  .debug_str:0000000000021848 .LASF3907
C:\Users\CYMR90~1\AppData\Local\Temp\ccBEkVPc.s:25329  .debug_str:0000000000010a9c .LASF3908
C:\Users\CYMR90~1\AppData\Local\Temp\ccBEkVPc.s:31782  .debug_str:000000000002a7a7 .LASF3909
C:\Users\CYMR90~1\AppData\Local\Temp\ccBEkVPc.s:29474  .debug_str:000000000002143c .LASF3910
C:\Users\CYMR90~1\AppData\Local\Temp\ccBEkVPc.s:26063  .debug_str:0000000000013a97 .LASF3911
C:\Users\CYMR90~1\AppData\Local\Temp\ccBEkVPc.s:26705  .debug_str:00000000000162ad .LASF3912
C:\Users\CYMR90~1\AppData\Local\Temp\ccBEkVPc.s:30586  .debug_str:0000000000025b5c .LASF3913
C:\Users\CYMR90~1\AppData\Local\Temp\ccBEkVPc.s:27206  .debug_str:00000000000183d9 .LASF3914
C:\Users\CYMR90~1\AppData\Local\Temp\ccBEkVPc.s:32346  .debug_str:000000000002cc53 .LASF3915
C:\Users\CYMR90~1\AppData\Local\Temp\ccBEkVPc.s:31738  .debug_str:000000000002a4c1 .LASF3916
C:\Users\CYMR90~1\AppData\Local\Temp\ccBEkVPc.s:22043  .debug_str:000000000000389d .LASF3917
C:\Users\CYMR90~1\AppData\Local\Temp\ccBEkVPc.s:28538  .debug_str:000000000001db2b .LASF3918
C:\Users\CYMR90~1\AppData\Local\Temp\ccBEkVPc.s:22911  .debug_str:0000000000007019 .LASF3919
C:\Users\CYMR90~1\AppData\Local\Temp\ccBEkVPc.s:23055  .debug_str:00000000000079b0 .LASF3920
C:\Users\CYMR90~1\AppData\Local\Temp\ccBEkVPc.s:27092  .debug_str:0000000000017cf3 .LASF3921
C:\Users\CYMR90~1\AppData\Local\Temp\ccBEkVPc.s:31026  .debug_str:00000000000276f5 .LASF3922
C:\Users\CYMR90~1\AppData\Local\Temp\ccBEkVPc.s:23649  .debug_str:000000000000a075 .LASF3923
C:\Users\CYMR90~1\AppData\Local\Temp\ccBEkVPc.s:32176  .debug_str:000000000002c13a .LASF3924
C:\Users\CYMR90~1\AppData\Local\Temp\ccBEkVPc.s:23165  .debug_str:0000000000008227 .LASF3925
C:\Users\CYMR90~1\AppData\Local\Temp\ccBEkVPc.s:25517  .debug_str:0000000000011600 .LASF3926
C:\Users\CYMR90~1\AppData\Local\Temp\ccBEkVPc.s:28066  .debug_str:000000000001bbe6 .LASF3927
C:\Users\CYMR90~1\AppData\Local\Temp\ccBEkVPc.s:32090  .debug_str:000000000002bb45 .LASF3928
C:\Users\CYMR90~1\AppData\Local\Temp\ccBEkVPc.s:26209  .debug_str:000000000001435b .LASF3929
C:\Users\CYMR90~1\AppData\Local\Temp\ccBEkVPc.s:28660  .debug_str:000000000001e329 .LASF3930
C:\Users\CYMR90~1\AppData\Local\Temp\ccBEkVPc.s:30958  .debug_str:00000000000272ff .LASF3931
C:\Users\CYMR90~1\AppData\Local\Temp\ccBEkVPc.s:21987  .debug_str:00000000000034b7 .LASF3932
C:\Users\CYMR90~1\AppData\Local\Temp\ccBEkVPc.s:29368  .debug_str:0000000000020e44 .LASF3933
C:\Users\CYMR90~1\AppData\Local\Temp\ccBEkVPc.s:21901  .debug_str:0000000000002ee9 .LASF3934
C:\Users\CYMR90~1\AppData\Local\Temp\ccBEkVPc.s:29008  .debug_str:000000000001f7ff .LASF3935
C:\Users\CYMR90~1\AppData\Local\Temp\ccBEkVPc.s:31354  .debug_str:0000000000028d1f .LASF3936
C:\Users\CYMR90~1\AppData\Local\Temp\ccBEkVPc.s:25843  .debug_str:0000000000012bf5 .LASF3937
C:\Users\CYMR90~1\AppData\Local\Temp\ccBEkVPc.s:24635  .debug_str:000000000000dfe9 .LASF3938
C:\Users\CYMR90~1\AppData\Local\Temp\ccBEkVPc.s:21663  .debug_str:0000000000002078 .LASF3939
C:\Users\CYMR90~1\AppData\Local\Temp\ccBEkVPc.s:23191  .debug_str:00000000000083e0 .LASF3940
C:\Users\CYMR90~1\AppData\Local\Temp\ccBEkVPc.s:25545  .debug_str:0000000000011874 .LASF3941
C:\Users\CYMR90~1\AppData\Local\Temp\ccBEkVPc.s:27466  .debug_str:00000000000194ca .LASF3942
C:\Users\CYMR90~1\AppData\Local\Temp\ccBEkVPc.s:29012  .debug_str:000000000001f83e .LASF3943
C:\Users\CYMR90~1\AppData\Local\Temp\ccBEkVPc.s:21221  .debug_str:0000000000000564 .LASF3944
C:\Users\CYMR90~1\AppData\Local\Temp\ccBEkVPc.s:27940  .debug_str:000000000001b496 .LASF3945
C:\Users\CYMR90~1\AppData\Local\Temp\ccBEkVPc.s:31952  .debug_str:000000000002b1a7 .LASF3946
C:\Users\CYMR90~1\AppData\Local\Temp\ccBEkVPc.s:24563  .debug_str:000000000000db98 .LASF3947
C:\Users\CYMR90~1\AppData\Local\Temp\ccBEkVPc.s:23575  .debug_str:0000000000009c0b .LASF3948
C:\Users\CYMR90~1\AppData\Local\Temp\ccBEkVPc.s:27502  .debug_str:00000000000196d9 .LASF3949
C:\Users\CYMR90~1\AppData\Local\Temp\ccBEkVPc.s:23449  .debug_str:00000000000093a5 .LASF3950
C:\Users\CYMR90~1\AppData\Local\Temp\ccBEkVPc.s:27396  .debug_str:0000000000018fc5 .LASF3951
C:\Users\CYMR90~1\AppData\Local\Temp\ccBEkVPc.s:31310  .debug_str:0000000000028ac0 .LASF3952
C:\Users\CYMR90~1\AppData\Local\Temp\ccBEkVPc.s:26341  .debug_str:0000000000014b91 .LASF3953
C:\Users\CYMR90~1\AppData\Local\Temp\ccBEkVPc.s:27892  .debug_str:000000000001b167 .LASF3954
C:\Users\CYMR90~1\AppData\Local\Temp\ccBEkVPc.s:31884  .debug_str:000000000002adb7 .LASF3955
C:\Users\CYMR90~1\AppData\Local\Temp\ccBEkVPc.s:24499  .debug_str:000000000000d7e2 .LASF3956
C:\Users\CYMR90~1\AppData\Local\Temp\ccBEkVPc.s:23635  .debug_str:0000000000009f96 .LASF3957
C:\Users\CYMR90~1\AppData\Local\Temp\ccBEkVPc.s:25977  .debug_str:0000000000013542 .LASF3958
C:\Users\CYMR90~1\AppData\Local\Temp\ccBEkVPc.s:29428  .debug_str:00000000000211b0 .LASF3959
C:\Users\CYMR90~1\AppData\Local\Temp\ccBEkVPc.s:31160  .debug_str:000000000002801b .LASF3960
C:\Users\CYMR90~1\AppData\Local\Temp\ccBEkVPc.s:22463  .debug_str:000000000000547e .LASF3961
C:\Users\CYMR90~1\AppData\Local\Temp\ccBEkVPc.s:23873  .debug_str:000000000000ae1c .LASF3962
C:\Users\CYMR90~1\AppData\Local\Temp\ccBEkVPc.s:27826  .debug_str:000000000001ad18 .LASF3963
C:\Users\CYMR90~1\AppData\Local\Temp\ccBEkVPc.s:31814  .debug_str:000000000002a98b .LASF3964
C:\Users\CYMR90~1\AppData\Local\Temp\ccBEkVPc.s:27146  .debug_str:000000000001803c .LASF3965
C:\Users\CYMR90~1\AppData\Local\Temp\ccBEkVPc.s:28358  .debug_str:000000000001cf6e .LASF3966
C:\Users\CYMR90~1\AppData\Local\Temp\ccBEkVPc.s:32296  .debug_str:000000000002c903 .LASF3967
C:\Users\CYMR90~1\AppData\Local\Temp\ccBEkVPc.s:27426  .debug_str:000000000001926a .LASF3968
C:\Users\CYMR90~1\AppData\Local\Temp\ccBEkVPc.s:21933  .debug_str:0000000000003122 .LASF3969
C:\Users\CYMR90~1\AppData\Local\Temp\ccBEkVPc.s:31184  .debug_str:00000000000281bb .LASF3970
C:\Users\CYMR90~1\AppData\Local\Temp\ccBEkVPc.s:31758  .debug_str:000000000002a641 .LASF3971
C:\Users\CYMR90~1\AppData\Local\Temp\ccBEkVPc.s:22737  .debug_str:000000000000650d .LASF3972
C:\Users\CYMR90~1\AppData\Local\Temp\ccBEkVPc.s:31748  .debug_str:000000000002a56a .LASF3973
C:\Users\CYMR90~1\AppData\Local\Temp\ccBEkVPc.s:24375  .debug_str:000000000000cf95 .LASF3974
C:\Users\CYMR90~1\AppData\Local\Temp\ccBEkVPc.s:28298  .debug_str:000000000001cb06 .LASF3975
C:\Users\CYMR90~1\AppData\Local\Temp\ccBEkVPc.s:32236  .debug_str:000000000002c54c .LASF3976
C:\Users\CYMR90~1\AppData\Local\Temp\ccBEkVPc.s:23167  .debug_str:000000000000824d .LASF3977
C:\Users\CYMR90~1\AppData\Local\Temp\ccBEkVPc.s:26331  .debug_str:0000000000014b10 .LASF3978
C:\Users\CYMR90~1\AppData\Local\Temp\ccBEkVPc.s:25857  .debug_str:0000000000012cfc .LASF3979
C:\Users\CYMR90~1\AppData\Local\Temp\ccBEkVPc.s:23737  .debug_str:000000000000a5fb .LASF3980
C:\Users\CYMR90~1\AppData\Local\Temp\ccBEkVPc.s:27678  .debug_str:000000000001a204 .LASF3981
C:\Users\CYMR90~1\AppData\Local\Temp\ccBEkVPc.s:25177  .debug_str:00000000000101b5 .LASF3982
C:\Users\CYMR90~1\AppData\Local\Temp\ccBEkVPc.s:28078  .debug_str:000000000001bcce .LASF3983
C:\Users\CYMR90~1\AppData\Local\Temp\ccBEkVPc.s:28230  .debug_str:000000000001c5f0 .LASF3984
C:\Users\CYMR90~1\AppData\Local\Temp\ccBEkVPc.s:29534  .debug_str:000000000002186c .LASF3985
C:\Users\CYMR90~1\AppData\Local\Temp\ccBEkVPc.s:24781  .debug_str:000000000000e907 .LASF3986
C:\Users\CYMR90~1\AppData\Local\Temp\ccBEkVPc.s:28686  .debug_str:000000000001e48f .LASF3987
C:\Users\CYMR90~1\AppData\Local\Temp\ccBEkVPc.s:21309  .debug_str:0000000000000aff .LASF3988
C:\Users\CYMR90~1\AppData\Local\Temp\ccBEkVPc.s:28236  .debug_str:000000000001c64e .LASF3989
C:\Users\CYMR90~1\AppData\Local\Temp\ccBEkVPc.s:29794  .debug_str:00000000000227d0 .LASF3990
C:\Users\CYMR90~1\AppData\Local\Temp\ccBEkVPc.s:31620  .debug_str:0000000000029def .LASF3991
C:\Users\CYMR90~1\AppData\Local\Temp\ccBEkVPc.s:24235  .debug_str:000000000000c5f1 .LASF3992
C:\Users\CYMR90~1\AppData\Local\Temp\ccBEkVPc.s:26351  .debug_str:0000000000014c37 .LASF3993
C:\Users\CYMR90~1\AppData\Local\Temp\ccBEkVPc.s:32104  .debug_str:000000000002bc14 .LASF3994
C:\Users\CYMR90~1\AppData\Local\Temp\ccBEkVPc.s:28714  .debug_str:000000000001e642 .LASF3995
C:\Users\CYMR90~1\AppData\Local\Temp\ccBEkVPc.s:28616  .debug_str:000000000001e070 .LASF3996
C:\Users\CYMR90~1\AppData\Local\Temp\ccBEkVPc.s:21251  .debug_str:0000000000000725 .LASF3997
C:\Users\CYMR90~1\AppData\Local\Temp\ccBEkVPc.s:32284  .debug_str:000000000002c820 .LASF3998
C:\Users\CYMR90~1\AppData\Local\Temp\ccBEkVPc.s:22209  .debug_str:00000000000043bd .LASF3999
C:\Users\CYMR90~1\AppData\Local\Temp\ccBEkVPc.s:31554  .debug_str:0000000000029a01 .LASF4000
C:\Users\CYMR90~1\AppData\Local\Temp\ccBEkVPc.s:27560  .debug_str:0000000000019b20 .LASF4001
C:\Users\CYMR90~1\AppData\Local\Temp\ccBEkVPc.s:29880  .debug_str:0000000000022d31 .LASF4002
C:\Users\CYMR90~1\AppData\Local\Temp\ccBEkVPc.s:32052  .debug_str:000000000002b878 .LASF4003
C:\Users\CYMR90~1\AppData\Local\Temp\ccBEkVPc.s:24657  .debug_str:000000000000e131 .LASF4004
C:\Users\CYMR90~1\AppData\Local\Temp\ccBEkVPc.s:22497  .debug_str:0000000000005699 .LASF4005
C:\Users\CYMR90~1\AppData\Local\Temp\ccBEkVPc.s:21185  .debug_str:0000000000000367 .LASF4006
C:\Users\CYMR90~1\AppData\Local\Temp\ccBEkVPc.s:25729  .debug_str:0000000000012438 .LASF4007
C:\Users\CYMR90~1\AppData\Local\Temp\ccBEkVPc.s:22083  .debug_str:0000000000003b23 .LASF4008
C:\Users\CYMR90~1\AppData\Local\Temp\ccBEkVPc.s:26197  .debug_str:00000000000142a8 .LASF4009
C:\Users\CYMR90~1\AppData\Local\Temp\ccBEkVPc.s:24109  .debug_str:000000000000be54 .LASF4010
C:\Users\CYMR90~1\AppData\Local\Temp\ccBEkVPc.s:21461  .debug_str:0000000000001433 .LASF4011
C:\Users\CYMR90~1\AppData\Local\Temp\ccBEkVPc.s:31974  .debug_str:000000000002b36b .LASF4012
C:\Users\CYMR90~1\AppData\Local\Temp\ccBEkVPc.s:28888  .debug_str:000000000001f0a7 .LASF4013
C:\Users\CYMR90~1\AppData\Local\Temp\ccBEkVPc.s:29068  .debug_str:000000000001fba0 .LASF4014
C:\Users\CYMR90~1\AppData\Local\Temp\ccBEkVPc.s:32434  .debug_str:000000000002d20f .LASF4015
C:\Users\CYMR90~1\AppData\Local\Temp\ccBEkVPc.s:21455  .debug_str:00000000000013d7 .LASF4016
C:\Users\CYMR90~1\AppData\Local\Temp\ccBEkVPc.s:29060  .debug_str:000000000001fb15 .LASF4017
C:\Users\CYMR90~1\AppData\Local\Temp\ccBEkVPc.s:27994  .debug_str:000000000001b7e9 .LASF4018
C:\Users\CYMR90~1\AppData\Local\Temp\ccBEkVPc.s:30646  .debug_str:0000000000025ee3 .LASF4019
C:\Users\CYMR90~1\AppData\Local\Temp\ccBEkVPc.s:26377  .debug_str:0000000000014e10 .LASF4020
C:\Users\CYMR90~1\AppData\Local\Temp\ccBEkVPc.s:29608  .debug_str:0000000000021cd7 .LASF4021
C:\Users\CYMR90~1\AppData\Local\Temp\ccBEkVPc.s:23221  .debug_str:00000000000085e2 .LASF4022
C:\Users\CYMR90~1\AppData\Local\Temp\ccBEkVPc.s:23233  .debug_str:000000000000868a .LASF4023
C:\Users\CYMR90~1\AppData\Local\Temp\ccBEkVPc.s:27176  .debug_str:0000000000018201 .LASF4024
C:\Users\CYMR90~1\AppData\Local\Temp\ccBEkVPc.s:31106  .debug_str:0000000000027c3a .LASF4025
C:\Users\CYMR90~1\AppData\Local\Temp\ccBEkVPc.s:31098  .debug_str:0000000000027bb0 .LASF4026
C:\Users\CYMR90~1\AppData\Local\Temp\ccBEkVPc.s:32298  .debug_str:000000000002c929 .LASF4027
C:\Users\CYMR90~1\AppData\Local\Temp\ccBEkVPc.s:31674  .debug_str:000000000002a10d .LASF4028
C:\Users\CYMR90~1\AppData\Local\Temp\ccBEkVPc.s:27382  .debug_str:0000000000018f24 .LASF4029
C:\Users\CYMR90~1\AppData\Local\Temp\ccBEkVPc.s:21771  .debug_str:0000000000002710 .LASF4030
C:\Users\CYMR90~1\AppData\Local\Temp\ccBEkVPc.s:30552  .debug_str:0000000000025915 .LASF4031
C:\Users\CYMR90~1\AppData\Local\Temp\ccBEkVPc.s:23171  .debug_str:0000000000008289 .LASF4032
C:\Users\CYMR90~1\AppData\Local\Temp\ccBEkVPc.s:27104  .debug_str:0000000000017da1 .LASF4033
C:\Users\CYMR90~1\AppData\Local\Temp\ccBEkVPc.s:31316  .debug_str:0000000000028b16 .LASF4034
C:\Users\CYMR90~1\AppData\Local\Temp\ccBEkVPc.s:22105  .debug_str:0000000000003caa .LASF4035
C:\Users\CYMR90~1\AppData\Local\Temp\ccBEkVPc.s:27600  .debug_str:0000000000019dae .LASF4036
C:\Users\CYMR90~1\AppData\Local\Temp\ccBEkVPc.s:31616  .debug_str:0000000000029db2 .LASF4037
C:\Users\CYMR90~1\AppData\Local\Temp\ccBEkVPc.s:30040  .debug_str:0000000000023652 .LASF4038
C:\Users\CYMR90~1\AppData\Local\Temp\ccBEkVPc.s:29100  .debug_str:000000000001fdad .LASF4039
C:\Users\CYMR90~1\AppData\Local\Temp\ccBEkVPc.s:24691  .debug_str:000000000000e34e .LASF4040
C:\Users\CYMR90~1\AppData\Local\Temp\ccBEkVPc.s:25531  .debug_str:00000000000116ee .LASF4041
C:\Users\CYMR90~1\AppData\Local\Temp\ccBEkVPc.s:27044  .debug_str:0000000000017a3a .LASF4042
C:\Users\CYMR90~1\AppData\Local\Temp\ccBEkVPc.s:23327  .debug_str:0000000000008c3d .LASF4043
C:\Users\CYMR90~1\AppData\Local\Temp\ccBEkVPc.s:27768  .debug_str:000000000001a98d .LASF4044
C:\Users\CYMR90~1\AppData\Local\Temp\ccBEkVPc.s:28018  .debug_str:000000000001b986 .LASF4045
C:\Users\CYMR90~1\AppData\Local\Temp\ccBEkVPc.s:31544  .debug_str:0000000000029977 .LASF4046
C:\Users\CYMR90~1\AppData\Local\Temp\ccBEkVPc.s:24163  .debug_str:000000000000c1d9 .LASF4047
C:\Users\CYMR90~1\AppData\Local\Temp\ccBEkVPc.s:24577  .debug_str:000000000000dc3f .LASF4048
C:\Users\CYMR90~1\AppData\Local\Temp\ccBEkVPc.s:31936  .debug_str:000000000002b0a6 .LASF4049
C:\Users\CYMR90~1\AppData\Local\Temp\ccBEkVPc.s:23031  .debug_str:0000000000007821 .LASF4050
C:\Users\CYMR90~1\AppData\Local\Temp\ccBEkVPc.s:26978  .debug_str:00000000000175ee .LASF4051
C:\Users\CYMR90~1\AppData\Local\Temp\ccBEkVPc.s:30024  .debug_str:000000000002351d .LASF4052
C:\Users\CYMR90~1\AppData\Local\Temp\ccBEkVPc.s:23537  .debug_str:000000000000991c .LASF4053
C:\Users\CYMR90~1\AppData\Local\Temp\ccBEkVPc.s:32352  .debug_str:000000000002ccab .LASF4054
C:\Users\CYMR90~1\AppData\Local\Temp\ccBEkVPc.s:31482  .debug_str:00000000000295cf .LASF4055
C:\Users\CYMR90~1\AppData\Local\Temp\ccBEkVPc.s:24103  .debug_str:000000000000bdfe .LASF4056
C:\Users\CYMR90~1\AppData\Local\Temp\ccBEkVPc.s:28096  .debug_str:000000000001bde9 .LASF4057
C:\Users\CYMR90~1\AppData\Local\Temp\ccBEkVPc.s:30402  .debug_str:0000000000024dbd .LASF4058
C:\Users\CYMR90~1\AppData\Local\Temp\ccBEkVPc.s:26439  .debug_str:000000000001520e .LASF4059
C:\Users\CYMR90~1\AppData\Local\Temp\ccBEkVPc.s:26920  .debug_str:000000000001726b .LASF4060
C:\Users\CYMR90~1\AppData\Local\Temp\ccBEkVPc.s:29854  .debug_str:0000000000022b3e .LASF4061
C:\Users\CYMR90~1\AppData\Local\Temp\ccBEkVPc.s:23465  .debug_str:00000000000094a9 .LASF4062
C:\Users\CYMR90~1\AppData\Local\Temp\ccBEkVPc.s:27412  .debug_str:000000000001918e .LASF4063
C:\Users\CYMR90~1\AppData\Local\Temp\ccBEkVPc.s:22379  .debug_str:0000000000004f45 .LASF4064
C:\Users\CYMR90~1\AppData\Local\Temp\ccBEkVPc.s:23157  .debug_str:0000000000008191 .LASF4065
C:\Users\CYMR90~1\AppData\Local\Temp\ccBEkVPc.s:31596  .debug_str:0000000000029c88 .LASF4066
C:\Users\CYMR90~1\AppData\Local\Temp\ccBEkVPc.s:31896  .debug_str:000000000002ae71 .LASF4067
C:\Users\CYMR90~1\AppData\Local\Temp\ccBEkVPc.s:24955  .debug_str:000000000000f375 .LASF4068
C:\Users\CYMR90~1\AppData\Local\Temp\ccBEkVPc.s:32304  .debug_str:000000000002c9a2 .LASF4069
C:\Users\CYMR90~1\AppData\Local\Temp\ccBEkVPc.s:30780  .debug_str:000000000002676a .LASF4070
C:\Users\CYMR90~1\AppData\Local\Temp\ccBEkVPc.s:24905  .debug_str:000000000000f053 .LASF4071
C:\Users\CYMR90~1\AppData\Local\Temp\ccBEkVPc.s:27344  .debug_str:0000000000018cf3 .LASF4072
C:\Users\CYMR90~1\AppData\Local\Temp\ccBEkVPc.s:31350  .debug_str:0000000000028ce5 .LASF4073
C:\Users\CYMR90~1\AppData\Local\Temp\ccBEkVPc.s:30254  .debug_str:000000000002443e .LASF4074
C:\Users\CYMR90~1\AppData\Local\Temp\ccBEkVPc.s:27920  .debug_str:000000000001b374 .LASF4075
C:\Users\CYMR90~1\AppData\Local\Temp\ccBEkVPc.s:31828  .debug_str:000000000002aa39 .LASF4076
C:\Users\CYMR90~1\AppData\Local\Temp\ccBEkVPc.s:24453  .debug_str:000000000000d50e .LASF4077
C:\Users\CYMR90~1\AppData\Local\Temp\ccBEkVPc.s:30782  .debug_str:0000000000026790 .LASF4078
C:\Users\CYMR90~1\AppData\Local\Temp\ccBEkVPc.s:26825  .debug_str:0000000000016a78 .LASF4079
C:\Users\CYMR90~1\AppData\Local\Temp\ccBEkVPc.s:23331  .debug_str:0000000000008c77 .LASF4080
C:\Users\CYMR90~1\AppData\Local\Temp\ccBEkVPc.s:27268  .debug_str:0000000000018734 .LASF4081
C:\Users\CYMR90~1\AppData\Local\Temp\ccBEkVPc.s:25313  .debug_str:00000000000109db .LASF4082
C:\Users\CYMR90~1\AppData\Local\Temp\ccBEkVPc.s:23913  .debug_str:000000000000b176 .LASF4083
C:\Users\CYMR90~1\AppData\Local\Temp\ccBEkVPc.s:27304  .debug_str:00000000000189d8 .LASF4084
C:\Users\CYMR90~1\AppData\Local\Temp\ccBEkVPc.s:27522  .debug_str:0000000000019868 .LASF4085
C:\Users\CYMR90~1\AppData\Local\Temp\ccBEkVPc.s:31980  .debug_str:000000000002b3c1 .LASF4086
C:\Users\CYMR90~1\AppData\Local\Temp\ccBEkVPc.s:22951  .debug_str:0000000000007315 .LASF4087
C:\Users\CYMR90~1\AppData\Local\Temp\ccBEkVPc.s:32250  .debug_str:000000000002c62d .LASF4088
C:\Users\CYMR90~1\AppData\Local\Temp\ccBEkVPc.s:29316  .debug_str:0000000000020b0a .LASF4089
C:\Users\CYMR90~1\AppData\Local\Temp\ccBEkVPc.s:22893  .debug_str:0000000000006eef .LASF4090
C:\Users\CYMR90~1\AppData\Local\Temp\ccBEkVPc.s:31220  .debug_str:0000000000028486 .LASF4091
C:\Users\CYMR90~1\AppData\Local\Temp\ccBEkVPc.s:23843  .debug_str:000000000000ac59 .LASF4092
C:\Users\CYMR90~1\AppData\Local\Temp\ccBEkVPc.s:22487  .debug_str:00000000000055c1 .LASF4093
C:\Users\CYMR90~1\AppData\Local\Temp\ccBEkVPc.s:23271  .debug_str:00000000000088dd .LASF4094
C:\Users\CYMR90~1\AppData\Local\Temp\ccBEkVPc.s:24329  .debug_str:000000000000ccdb .LASF4095
C:\Users\CYMR90~1\AppData\Local\Temp\ccBEkVPc.s:28248  .debug_str:000000000001c72b .LASF4096
C:\Users\CYMR90~1\AppData\Local\Temp\ccBEkVPc.s:32186  .debug_str:000000000002c1c2 .LASF4097
C:\Users\CYMR90~1\AppData\Local\Temp\ccBEkVPc.s:24893  .debug_str:000000000000efae .LASF4098
C:\Users\CYMR90~1\AppData\Local\Temp\ccBEkVPc.s:29044  .debug_str:000000000001fa17 .LASF4099
C:\Users\CYMR90~1\AppData\Local\Temp\ccBEkVPc.s:29658  .debug_str:000000000002200f .LASF4100
C:\Users\CYMR90~1\AppData\Local\Temp\ccBEkVPc.s:32008  .debug_str:000000000002b5ad .LASF4101
C:\Users\CYMR90~1\AppData\Local\Temp\ccBEkVPc.s:27726  .debug_str:000000000001a658 .LASF4102
C:\Users\CYMR90~1\AppData\Local\Temp\ccBEkVPc.s:30358  .debug_str:0000000000024af3 .LASF4103
C:\Users\CYMR90~1\AppData\Local\Temp\ccBEkVPc.s:27696  .debug_str:000000000001a4d0 .LASF4104
C:\Users\CYMR90~1\AppData\Local\Temp\ccBEkVPc.s:28178  .debug_str:000000000001c338 .LASF4105
C:\Users\CYMR90~1\AppData\Local\Temp\ccBEkVPc.s:21257  .debug_str:0000000000000784 .LASF4106
C:\Users\CYMR90~1\AppData\Local\Temp\ccBEkVPc.s:24249  .debug_str:000000000000c6ba .LASF4107
C:\Users\CYMR90~1\AppData\Local\Temp\ccBEkVPc.s:24425  .debug_str:000000000000d307 .LASF4108
C:\Users\CYMR90~1\AppData\Local\Temp\ccBEkVPc.s:22561  .debug_str:0000000000005a8a .LASF4109
C:\Users\CYMR90~1\AppData\Local\Temp\ccBEkVPc.s:23709  .debug_str:000000000000a416 .LASF4110
C:\Users\CYMR90~1\AppData\Local\Temp\ccBEkVPc.s:27642  .debug_str:000000000001a008 .LASF4111
C:\Users\CYMR90~1\AppData\Local\Temp\ccBEkVPc.s:31568  .debug_str:0000000000029ae5 .LASF4112
C:\Users\CYMR90~1\AppData\Local\Temp\ccBEkVPc.s:24187  .debug_str:000000000000c326 .LASF4113
C:\Users\CYMR90~1\AppData\Local\Temp\ccBEkVPc.s:28122  .debug_str:000000000001bfb8 .LASF4114
C:\Users\CYMR90~1\AppData\Local\Temp\ccBEkVPc.s:28356  .debug_str:000000000001cf48 .LASF4115
C:\Users\CYMR90~1\AppData\Local\Temp\ccBEkVPc.s:27790  .debug_str:000000000001ab09 .LASF4116
C:\Users\CYMR90~1\AppData\Local\Temp\ccBEkVPc.s:28656  .debug_str:000000000001e2f3 .LASF4117
C:\Users\CYMR90~1\AppData\Local\Temp\ccBEkVPc.s:32252  .debug_str:000000000002c653 .LASF4118
C:\Users\CYMR90~1\AppData\Local\Temp\ccBEkVPc.s:27964  .debug_str:000000000001b614 .LASF4119
C:\Users\CYMR90~1\AppData\Local\Temp\ccBEkVPc.s:22237  .debug_str:00000000000045b2 .LASF4120
C:\Users\CYMR90~1\AppData\Local\Temp\ccBEkVPc.s:26297  .debug_str:000000000001490c .LASF4121
C:\Users\CYMR90~1\AppData\Local\Temp\ccBEkVPc.s:30232  .debug_str:00000000000242aa .LASF4122
C:\Users\CYMR90~1\AppData\Local\Temp\ccBEkVPc.s:22817  .debug_str:0000000000006a20 .LASF4123
C:\Users\CYMR90~1\AppData\Local\Temp\ccBEkVPc.s:26779  .debug_str:000000000001673d .LASF4124
C:\Users\CYMR90~1\AppData\Local\Temp\ccBEkVPc.s:32086  .debug_str:000000000002bae4 .LASF4125
C:\Users\CYMR90~1\AppData\Local\Temp\ccBEkVPc.s:22801  .debug_str:0000000000006919 .LASF4126
C:\Users\CYMR90~1\AppData\Local\Temp\ccBEkVPc.s:27262  .debug_str:00000000000186e8 .LASF4127
C:\Users\CYMR90~1\AppData\Local\Temp\ccBEkVPc.s:31280  .debug_str:00000000000288c9 .LASF4128
C:\Users\CYMR90~1\AppData\Local\Temp\ccBEkVPc.s:30622  .debug_str:0000000000025d67 .LASF4129
C:\Users\CYMR90~1\AppData\Local\Temp\ccBEkVPc.s:26235  .debug_str:00000000000144b2 .LASF4130
C:\Users\CYMR90~1\AppData\Local\Temp\ccBEkVPc.s:28718  .debug_str:000000000001e698 .LASF4131
C:\Users\CYMR90~1\AppData\Local\Temp\ccBEkVPc.s:30910  .debug_str:0000000000026f6a .LASF4132
C:\Users\CYMR90~1\AppData\Local\Temp\ccBEkVPc.s:28456  .debug_str:000000000001d5fa .LASF4133
C:\Users\CYMR90~1\AppData\Local\Temp\ccBEkVPc.s:29196  .debug_str:0000000000020370 .LASF4134
C:\Users\CYMR90~1\AppData\Local\Temp\ccBEkVPc.s:25295  .debug_str:00000000000108d1 .LASF4135
C:\Users\CYMR90~1\AppData\Local\Temp\ccBEkVPc.s:28902  .debug_str:000000000001f19e .LASF4136
C:\Users\CYMR90~1\AppData\Local\Temp\ccBEkVPc.s:24585  .debug_str:000000000000dcc6 .LASF4137
C:\Users\CYMR90~1\AppData\Local\Temp\ccBEkVPc.s:23145  .debug_str:000000000000804c .LASF4138
C:\Users\CYMR90~1\AppData\Local\Temp\ccBEkVPc.s:30510  .debug_str:00000000000255a1 .LASF4139
C:\Users\CYMR90~1\AppData\Local\Temp\ccBEkVPc.s:32106  .debug_str:000000000002bc3a .LASF4140
C:\Users\CYMR90~1\AppData\Local\Temp\ccBEkVPc.s:23501  .debug_str:000000000000971e .LASF4141
C:\Users\CYMR90~1\AppData\Local\Temp\ccBEkVPc.s:26639  .debug_str:0000000000015e1b .LASF4142
C:\Users\CYMR90~1\AppData\Local\Temp\ccBEkVPc.s:30568  .debug_str:0000000000025a36 .LASF4143
C:\Users\CYMR90~1\AppData\Local\Temp\ccBEkVPc.s:25723  .debug_str:00000000000123dd .LASF4144
C:\Users\CYMR90~1\AppData\Local\Temp\ccBEkVPc.s:27118  .debug_str:0000000000017e7b .LASF4145
C:\Users\CYMR90~1\AppData\Local\Temp\ccBEkVPc.s:24357  .debug_str:000000000000ce4e .LASF4146
C:\Users\CYMR90~1\AppData\Local\Temp\ccBEkVPc.s:23769  .debug_str:000000000000a7a0 .LASF4147
C:\Users\CYMR90~1\AppData\Local\Temp\ccBEkVPc.s:27716  .debug_str:000000000001a5c5 .LASF4148
C:\Users\CYMR90~1\AppData\Local\Temp\ccBEkVPc.s:24777  .debug_str:000000000000e8d1 .LASF4149
C:\Users\CYMR90~1\AppData\Local\Temp\ccBEkVPc.s:22603  .debug_str:0000000000005cf3 .LASF4150
C:\Users\CYMR90~1\AppData\Local\Temp\ccBEkVPc.s:28930  .debug_str:000000000001f355 .LASF4151
C:\Users\CYMR90~1\AppData\Local\Temp\ccBEkVPc.s:30506  .debug_str:000000000002554f .LASF4152
C:\Users\CYMR90~1\AppData\Local\Temp\ccBEkVPc.s:30292  .debug_str:000000000002468e .LASF4153
C:\Users\CYMR90~1\AppData\Local\Temp\ccBEkVPc.s:22165  .debug_str:0000000000004117 .LASF4154
C:\Users\CYMR90~1\AppData\Local\Temp\ccBEkVPc.s:27890  .debug_str:000000000001b141 .LASF4155
C:\Users\CYMR90~1\AppData\Local\Temp\ccBEkVPc.s:25381  .debug_str:0000000000010e2c .LASF4156
C:\Users\CYMR90~1\AppData\Local\Temp\ccBEkVPc.s:27634  .debug_str:0000000000019f90 .LASF4157
C:\Users\CYMR90~1\AppData\Local\Temp\ccBEkVPc.s:31560  .debug_str:0000000000029a54 .LASF4158
C:\Users\CYMR90~1\AppData\Local\Temp\ccBEkVPc.s:30892  .debug_str:0000000000026e40 .LASF4159
C:\Users\CYMR90~1\AppData\Local\Temp\ccBEkVPc.s:26511  .debug_str:00000000000155fd .LASF4160
C:\Users\CYMR90~1\AppData\Local\Temp\ccBEkVPc.s:32196  .debug_str:000000000002c26d .LASF4161
C:\Users\CYMR90~1\AppData\Local\Temp\ccBEkVPc.s:23039  .debug_str:00000000000078b3 .LASF4162
C:\Users\CYMR90~1\AppData\Local\Temp\ccBEkVPc.s:30450  .debug_str:00000000000250f0 .LASF4163
C:\Users\CYMR90~1\AppData\Local\Temp\ccBEkVPc.s:32428  .debug_str:000000000002d1ab .LASF4164
C:\Users\CYMR90~1\AppData\Local\Temp\ccBEkVPc.s:22331  .debug_str:0000000000004c59 .LASF4165
C:\Users\CYMR90~1\AppData\Local\Temp\ccBEkVPc.s:27576  .debug_str:0000000000019c23 .LASF4166
C:\Users\CYMR90~1\AppData\Local\Temp\ccBEkVPc.s:22553  .debug_str:00000000000059e9 .LASF4167
C:\Users\CYMR90~1\AppData\Local\Temp\ccBEkVPc.s:24115  .debug_str:000000000000beb2 .LASF4168
C:\Users\CYMR90~1\AppData\Local\Temp\ccBEkVPc.s:21181  .debug_str:0000000000000319 .LASF4169
C:\Users\CYMR90~1\AppData\Local\Temp\ccBEkVPc.s:23607  .debug_str:0000000000009dfd .LASF4170
C:\Users\CYMR90~1\AppData\Local\Temp\ccBEkVPc.s:30664  .debug_str:0000000000026035 .LASF4171
C:\Users\CYMR90~1\AppData\Local\Temp\ccBEkVPc.s:27016  .debug_str:000000000001783d .LASF4172
C:\Users\CYMR90~1\AppData\Local\Temp\ccBEkVPc.s:23573  .debug_str:0000000000009be5 .LASF4173
C:\Users\CYMR90~1\AppData\Local\Temp\ccBEkVPc.s:28238  .debug_str:000000000001c674 .LASF4174
C:\Users\CYMR90~1\AppData\Local\Temp\ccBEkVPc.s:27518  .debug_str:000000000001981d .LASF4175
C:\Users\CYMR90~1\AppData\Local\Temp\ccBEkVPc.s:31436  .debug_str:0000000000029273 .LASF4176
C:\Users\CYMR90~1\AppData\Local\Temp\ccBEkVPc.s:21551  .debug_str:0000000000001a2c .LASF4177
C:\Users\CYMR90~1\AppData\Local\Temp\ccBEkVPc.s:23925  .debug_str:000000000000b223 .LASF4178
C:\Users\CYMR90~1\AppData\Local\Temp\ccBEkVPc.s:25073  .debug_str:000000000000fb03 .LASF4179
C:\Users\CYMR90~1\AppData\Local\Temp\ccBEkVPc.s:22903  .debug_str:0000000000006f78 .LASF4180
C:\Users\CYMR90~1\AppData\Local\Temp\ccBEkVPc.s:26956  .debug_str:000000000001749a .LASF4181
C:\Users\CYMR90~1\AppData\Local\Temp\ccBEkVPc.s:30884  .debug_str:0000000000026dc8 .LASF4182
C:\Users\CYMR90~1\AppData\Local\Temp\ccBEkVPc.s:29410  .debug_str:0000000000021088 .LASF4183
C:\Users\CYMR90~1\AppData\Local\Temp\ccBEkVPc.s:27454  .debug_str:00000000000193f3 .LASF4184
C:\Users\CYMR90~1\AppData\Local\Temp\ccBEkVPc.s:22723  .debug_str:0000000000006453 .LASF4185
C:\Users\CYMR90~1\AppData\Local\Temp\ccBEkVPc.s:23993  .debug_str:000000000000b67b .LASF4186
C:\Users\CYMR90~1\AppData\Local\Temp\ccBEkVPc.s:27446  .debug_str:000000000001937d .LASF4187
C:\Users\CYMR90~1\AppData\Local\Temp\ccBEkVPc.s:25615  .debug_str:0000000000011cfb .LASF4188
C:\Users\CYMR90~1\AppData\Local\Temp\ccBEkVPc.s:22639  .debug_str:0000000000005f12 .LASF4189
C:\Users\CYMR90~1\AppData\Local\Temp\ccBEkVPc.s:26892  .debug_str:00000000000170dc .LASF4190
C:\Users\CYMR90~1\AppData\Local\Temp\ccBEkVPc.s:30816  .debug_str:000000000002698c .LASF4191
C:\Users\CYMR90~1\AppData\Local\Temp\ccBEkVPc.s:23435  .debug_str:00000000000092c0 .LASF4192
C:\Users\CYMR90~1\AppData\Local\Temp\ccBEkVPc.s:21513  .debug_str:00000000000017e7 .LASF4193
C:\Users\CYMR90~1\AppData\Local\Temp\ccBEkVPc.s:31294  .debug_str:00000000000289cb .LASF4194
C:\Users\CYMR90~1\AppData\Local\Temp\ccBEkVPc.s:28588  .debug_str:000000000001de91 .LASF4195
C:\Users\CYMR90~1\AppData\Local\Temp\ccBEkVPc.s:27880  .debug_str:000000000001b0a8 .LASF4196
C:\Users\CYMR90~1\AppData\Local\Temp\ccBEkVPc.s:31776  .debug_str:000000000002a752 .LASF4197
C:\Users\CYMR90~1\AppData\Local\Temp\ccBEkVPc.s:24489  .debug_str:000000000000d76c .LASF4198
C:\Users\CYMR90~1\AppData\Local\Temp\ccBEkVPc.s:21519  .debug_str:000000000000184d .LASF4199
C:\Users\CYMR90~1\AppData\Local\Temp\ccBEkVPc.s:30756  .debug_str:00000000000265cc .LASF4200
C:\Users\CYMR90~1\AppData\Local\Temp\ccBEkVPc.s:25141  .debug_str:000000000000ff81 .LASF4201
C:\Users\CYMR90~1\AppData\Local\Temp\ccBEkVPc.s:27618  .debug_str:0000000000019ea0 .LASF4202
C:\Users\CYMR90~1\AppData\Local\Temp\ccBEkVPc.s:29786  .debug_str:000000000002276a .LASF4203
C:\Users\CYMR90~1\AppData\Local\Temp\ccBEkVPc.s:32134  .debug_str:000000000002be0b .LASF4204
C:\Users\CYMR90~1\AppData\Local\Temp\ccBEkVPc.s:27816  .debug_str:000000000001ac84 .LASF4205
C:\Users\CYMR90~1\AppData\Local\Temp\ccBEkVPc.s:31718  .debug_str:000000000002a374 .LASF4206
C:\Users\CYMR90~1\AppData\Local\Temp\ccBEkVPc.s:28672  .debug_str:000000000001e3c8 .LASF4207
C:\Users\CYMR90~1\AppData\Local\Temp\ccBEkVPc.s:25087  .debug_str:000000000000fbe0 .LASF4208
C:\Users\CYMR90~1\AppData\Local\Temp\ccBEkVPc.s:25435  .debug_str:0000000000011114 .LASF4209
C:\Users\CYMR90~1\AppData\Local\Temp\ccBEkVPc.s:23297  .debug_str:0000000000008a77 .LASF4210
C:\Users\CYMR90~1\AppData\Local\Temp\ccBEkVPc.s:23381  .debug_str:0000000000008fb2 .LASF4211
C:\Users\CYMR90~1\AppData\Local\Temp\ccBEkVPc.s:26241  .debug_str:000000000001452e .LASF4212
C:\Users\CYMR90~1\AppData\Local\Temp\ccBEkVPc.s:25409  .debug_str:0000000000010f94 .LASF4213
C:\Users\CYMR90~1\AppData\Local\Temp\ccBEkVPc.s:27742  .debug_str:000000000001a796 .LASF4214
C:\Users\CYMR90~1\AppData\Local\Temp\ccBEkVPc.s:26115  .debug_str:0000000000013dbb .LASF4215
C:\Users\CYMR90~1\AppData\Local\Temp\ccBEkVPc.s:25285  .debug_str:000000000001082e .LASF4216
C:\Users\CYMR90~1\AppData\Local\Temp\ccBEkVPc.s:29476  .debug_str:0000000000021460 .LASF4217
C:\Users\CYMR90~1\AppData\Local\Temp\ccBEkVPc.s:23557  .debug_str:0000000000009ac5 .LASF4218
C:\Users\CYMR90~1\AppData\Local\Temp\ccBEkVPc.s:23841  .debug_str:000000000000ac33 .LASF4219
C:\Users\CYMR90~1\AppData\Local\Temp\ccBEkVPc.s:21937  .debug_str:0000000000003160 .LASF4220
C:\Users\CYMR90~1\AppData\Local\Temp\ccBEkVPc.s:25915  .debug_str:00000000000130cc .LASF4221
C:\Users\CYMR90~1\AppData\Local\Temp\ccBEkVPc.s:29506  .debug_str:00000000000216d9 .LASF4222
C:\Users\CYMR90~1\AppData\Local\Temp\ccBEkVPc.s:22399  .debug_str:000000000000506a .LASF4223
C:\Users\CYMR90~1\AppData\Local\Temp\ccBEkVPc.s:26373  .debug_str:0000000000014dc8 .LASF4224
C:\Users\CYMR90~1\AppData\Local\Temp\ccBEkVPc.s:30302  .debug_str:000000000002472b .LASF4225
C:\Users\CYMR90~1\AppData\Local\Temp\ccBEkVPc.s:22895  .debug_str:0000000000006f15 .LASF4226
C:\Users\CYMR90~1\AppData\Local\Temp\ccBEkVPc.s:25239  .debug_str:0000000000010557 .LASF4227
C:\Users\CYMR90~1\AppData\Local\Temp\ccBEkVPc.s:30876  .debug_str:0000000000026d2d .LASF4228
C:\Users\CYMR90~1\AppData\Local\Temp\ccBEkVPc.s:29118  .debug_str:000000000001fea5 .LASF4229
C:\Users\CYMR90~1\AppData\Local\Temp\ccBEkVPc.s:25865  .debug_str:0000000000012d97 .LASF4230
C:\Users\CYMR90~1\AppData\Local\Temp\ccBEkVPc.s:29778  .debug_str:00000000000226d5 .LASF4231
C:\Users\CYMR90~1\AppData\Local\Temp\ccBEkVPc.s:25709  .debug_str:00000000000122dd .LASF4232
C:\Users\CYMR90~1\AppData\Local\Temp\ccBEkVPc.s:26419  .debug_str:00000000000150e8 .LASF4233
C:\Users\CYMR90~1\AppData\Local\Temp\ccBEkVPc.s:32302  .debug_str:000000000002c97c .LASF4234
C:\Users\CYMR90~1\AppData\Local\Temp\ccBEkVPc.s:31034  .debug_str:000000000002777a .LASF4235
C:\Users\CYMR90~1\AppData\Local\Temp\ccBEkVPc.s:26791  .debug_str:00000000000167fe .LASF4236
C:\Users\CYMR90~1\AppData\Local\Temp\ccBEkVPc.s:25287  .debug_str:0000000000010854 .LASF4237
C:\Users\CYMR90~1\AppData\Local\Temp\ccBEkVPc.s:23429  .debug_str:0000000000009267 .LASF4238
C:\Users\CYMR90~1\AppData\Local\Temp\ccBEkVPc.s:31826  .debug_str:000000000002aa13 .LASF4239
C:\Users\CYMR90~1\AppData\Local\Temp\ccBEkVPc.s:29710  .debug_str:0000000000022335 .LASF4240
C:\Users\CYMR90~1\AppData\Local\Temp\ccBEkVPc.s:26675  .debug_str:00000000000160e0 .LASF4241
C:\Users\CYMR90~1\AppData\Local\Temp\ccBEkVPc.s:29888  .debug_str:0000000000022db9 .LASF4242
C:\Users\CYMR90~1\AppData\Local\Temp\ccBEkVPc.s:24991  .debug_str:000000000000f59f .LASF4243
C:\Users\CYMR90~1\AppData\Local\Temp\ccBEkVPc.s:22761  .debug_str:000000000000665f .LASF4244
C:\Users\CYMR90~1\AppData\Local\Temp\ccBEkVPc.s:25575  .debug_str:0000000000011ab5 .LASF4245
C:\Users\CYMR90~1\AppData\Local\Temp\ccBEkVPc.s:30748  .debug_str:0000000000026534 .LASF4246
C:\Users\CYMR90~1\AppData\Local\Temp\ccBEkVPc.s:23371  .debug_str:0000000000008f27 .LASF4247
C:\Users\CYMR90~1\AppData\Local\Temp\ccBEkVPc.s:27300  .debug_str:0000000000018978 .LASF4248
C:\Users\CYMR90~1\AppData\Local\Temp\ccBEkVPc.s:24387  .debug_str:000000000000d061 .LASF4249
C:\Users\CYMR90~1\AppData\Local\Temp\ccBEkVPc.s:22213  .debug_str:0000000000004407 .LASF4250
C:\Users\CYMR90~1\AppData\Local\Temp\ccBEkVPc.s:26177  .debug_str:000000000001417a .LASF4251
C:\Users\CYMR90~1\AppData\Local\Temp\ccBEkVPc.s:24229  .debug_str:000000000000c59a .LASF4252
C:\Users\CYMR90~1\AppData\Local\Temp\ccBEkVPc.s:22695  .debug_str:0000000000006296 .LASF4253
C:\Users\CYMR90~1\AppData\Local\Temp\ccBEkVPc.s:21823  .debug_str:0000000000002a52 .LASF4254
C:\Users\CYMR90~1\AppData\Local\Temp\ccBEkVPc.s:32308  .debug_str:000000000002c9ec .LASF4255
C:\Users\CYMR90~1\AppData\Local\Temp\ccBEkVPc.s:23313  .debug_str:0000000000008b5d .LASF4256
C:\Users\CYMR90~1\AppData\Local\Temp\ccBEkVPc.s:25661  .debug_str:0000000000012011 .LASF4257
C:\Users\CYMR90~1\AppData\Local\Temp\ccBEkVPc.s:21589  .debug_str:0000000000001c5a .LASF4258
C:\Users\CYMR90~1\AppData\Local\Temp\ccBEkVPc.s:28244  .debug_str:000000000001c6cb .LASF4259
C:\Users\CYMR90~1\AppData\Local\Temp\ccBEkVPc.s:26111  .debug_str:0000000000013d78 .LASF4260
C:\Users\CYMR90~1\AppData\Local\Temp\ccBEkVPc.s:30058  .debug_str:0000000000023770 .LASF4261
C:\Users\CYMR90~1\AppData\Local\Temp\ccBEkVPc.s:26521  .debug_str:00000000000156af .LASF4262
C:\Users\CYMR90~1\AppData\Local\Temp\ccBEkVPc.s:31212  .debug_str:0000000000028400 .LASF4263
C:\Users\CYMR90~1\AppData\Local\Temp\ccBEkVPc.s:24505  .debug_str:000000000000d84e .LASF4264
C:\Users\CYMR90~1\AppData\Local\Temp\ccBEkVPc.s:30414  .debug_str:0000000000024e67 .LASF4265
C:\Users\CYMR90~1\AppData\Local\Temp\ccBEkVPc.s:29164  .debug_str:000000000002018a .LASF4266
C:\Users\CYMR90~1\AppData\Local\Temp\ccBEkVPc.s:31094  .debug_str:0000000000027b68 .LASF4267
C:\Users\CYMR90~1\AppData\Local\Temp\ccBEkVPc.s:23713  .debug_str:000000000000a454 .LASF4268
C:\Users\CYMR90~1\AppData\Local\Temp\ccBEkVPc.s:32116  .debug_str:000000000002bcc1 .LASF4269
C:\Users\CYMR90~1\AppData\Local\Temp\ccBEkVPc.s:23003  .debug_str:000000000000764f .LASF4270
C:\Users\CYMR90~1\AppData\Local\Temp\ccBEkVPc.s:22549  .debug_str:0000000000005991 .LASF4271
C:\Users\CYMR90~1\AppData\Local\Temp\ccBEkVPc.s:25689  .debug_str:00000000000121cc .LASF4272
C:\Users\CYMR90~1\AppData\Local\Temp\ccBEkVPc.s:26573  .debug_str:00000000000159ce .LASF4273
C:\Users\CYMR90~1\AppData\Local\Temp\ccBEkVPc.s:22013  .debug_str:000000000000369c .LASF4274
C:\Users\CYMR90~1\AppData\Local\Temp\ccBEkVPc.s:26761  .debug_str:0000000000016630 .LASF4275
C:\Users\CYMR90~1\AppData\Local\Temp\ccBEkVPc.s:23701  .debug_str:000000000000a38f .LASF4276
C:\Users\CYMR90~1\AppData\Local\Temp\ccBEkVPc.s:21807  .debug_str:0000000000002948 .LASF4277
C:\Users\CYMR90~1\AppData\Local\Temp\ccBEkVPc.s:29138  .debug_str:000000000002000b .LASF4278
C:\Users\CYMR90~1\AppData\Local\Temp\ccBEkVPc.s:24413  .debug_str:000000000000d22d .LASF4279
C:\Users\CYMR90~1\AppData\Local\Temp\ccBEkVPc.s:22481  .debug_str:000000000000558b .LASF4280
C:\Users\CYMR90~1\AppData\Local\Temp\ccBEkVPc.s:23107  .debug_str:0000000000007d1e .LASF4281
C:\Users\CYMR90~1\AppData\Local\Temp\ccBEkVPc.s:31524  .debug_str:0000000000029877 .LASF4282
C:\Users\CYMR90~1\AppData\Local\Temp\ccBEkVPc.s:23079  .debug_str:0000000000007b7f .LASF4283
C:\Users\CYMR90~1\AppData\Local\Temp\ccBEkVPc.s:22657  .debug_str:0000000000006027 .LASF4284
C:\Users\CYMR90~1\AppData\Local\Temp\ccBEkVPc.s:23443  .debug_str:0000000000009346 .LASF4285
C:\Users\CYMR90~1\AppData\Local\Temp\ccBEkVPc.s:31330  .debug_str:0000000000028bcf .LASF4286
C:\Users\CYMR90~1\AppData\Local\Temp\ccBEkVPc.s:22261  .debug_str:000000000000475f .LASF4287
C:\Users\CYMR90~1\AppData\Local\Temp\ccBEkVPc.s:22855  .debug_str:0000000000006c5b .LASF4288
C:\Users\CYMR90~1\AppData\Local\Temp\ccBEkVPc.s:31990  .debug_str:000000000002b475 .LASF4289
C:\Users\CYMR90~1\AppData\Local\Temp\ccBEkVPc.s:22425  .debug_str:000000000000521c .LASF4290
C:\Users\CYMR90~1\AppData\Local\Temp\ccBEkVPc.s:23721  .debug_str:000000000000a504 .LASF4291
C:\Users\CYMR90~1\AppData\Local\Temp\ccBEkVPc.s:23015  .debug_str:0000000000007727 .LASF4292
C:\Users\CYMR90~1\AppData\Local\Temp\ccBEkVPc.s:28394  .debug_str:000000000001d22b .LASF4293
C:\Users\CYMR90~1\AppData\Local\Temp\ccBEkVPc.s:30712  .debug_str:0000000000026305 .LASF4294
C:\Users\CYMR90~1\AppData\Local\Temp\ccBEkVPc.s:27732  .debug_str:000000000001a6ca .LASF4295
C:\Users\CYMR90~1\AppData\Local\Temp\ccBEkVPc.s:24079  .debug_str:000000000000bc02 .LASF4296
C:\Users\CYMR90~1\AppData\Local\Temp\ccBEkVPc.s:31468  .debug_str:00000000000294d6 .LASF4297
C:\Users\CYMR90~1\AppData\Local\Temp\ccBEkVPc.s:23849  .debug_str:000000000000acd1 .LASF4298
C:\Users\CYMR90~1\AppData\Local\Temp\ccBEkVPc.s:21161  .debug_str:00000000000001ca .LASF4299
C:\Users\CYMR90~1\AppData\Local\Temp\ccBEkVPc.s:30348  .debug_str:0000000000024a2c .LASF4300
C:\Users\CYMR90~1\AppData\Local\Temp\ccBEkVPc.s:29562  .debug_str:0000000000021a29 .LASF4301
C:\Users\CYMR90~1\AppData\Local\Temp\ccBEkVPc.s:26908  .debug_str:00000000000171b6 .LASF4302
C:\Users\CYMR90~1\AppData\Local\Temp\ccBEkVPc.s:30830  .debug_str:0000000000026a82 .LASF4303
C:\Users\CYMR90~1\AppData\Local\Temp\ccBEkVPc.s:27040  .debug_str:00000000000179e3 .LASF4304
C:\Users\CYMR90~1\AppData\Local\Temp\ccBEkVPc.s:27594  .debug_str:0000000000019d3b .LASF4305
C:\Users\CYMR90~1\AppData\Local\Temp\ccBEkVPc.s:30794  .debug_str:000000000002684e .LASF4306
C:\Users\CYMR90~1\AppData\Local\Temp\ccBEkVPc.s:24027  .debug_str:000000000000b8b7 .LASF4307
C:\Users\CYMR90~1\AppData\Local\Temp\ccBEkVPc.s:27960  .debug_str:000000000001b5cd .LASF4308
C:\Users\CYMR90~1\AppData\Local\Temp\ccBEkVPc.s:28334  .debug_str:000000000001cd57 .LASF4309
C:\Users\CYMR90~1\AppData\Local\Temp\ccBEkVPc.s:22873  .debug_str:0000000000006da7 .LASF4310
C:\Users\CYMR90~1\AppData\Local\Temp\ccBEkVPc.s:26839  .debug_str:0000000000016be5 .LASF4311
C:\Users\CYMR90~1\AppData\Local\Temp\ccBEkVPc.s:30768  .debug_str:0000000000026675 .LASF4312
C:\Users\CYMR90~1\AppData\Local\Temp\ccBEkVPc.s:22203  .debug_str:0000000000004367 .LASF4313
C:\Users\CYMR90~1\AppData\Local\Temp\ccBEkVPc.s:23561  .debug_str:0000000000009b2c .LASF4314
C:\Users\CYMR90~1\AppData\Local\Temp\ccBEkVPc.s:25981  .debug_str:00000000000135a2 .LASF4315
C:\Users\CYMR90~1\AppData\Local\Temp\ccBEkVPc.s:28104  .debug_str:000000000001be6c .LASF4316
C:\Users\CYMR90~1\AppData\Local\Temp\ccBEkVPc.s:27910  .debug_str:000000000001b2c6 .LASF4317
C:\Users\CYMR90~1\AppData\Local\Temp\ccBEkVPc.s:26345  .debug_str:0000000000014bcb .LASF4318
C:\Users\CYMR90~1\AppData\Local\Temp\ccBEkVPc.s:21349  .debug_str:0000000000000d51 .LASF4319
C:\Users\CYMR90~1\AppData\Local\Temp\ccBEkVPc.s:30736  .debug_str:0000000000026467 .LASF4320
C:\Users\CYMR90~1\AppData\Local\Temp\ccBEkVPc.s:25519  .debug_str:0000000000011626 .LASF4321
C:\Users\CYMR90~1\AppData\Local\Temp\ccBEkVPc.s:29452  .debug_str:0000000000021303 .LASF4322
C:\Users\CYMR90~1\AppData\Local\Temp\ccBEkVPc.s:22021  .debug_str:000000000000373c .LASF4323
C:\Users\CYMR90~1\AppData\Local\Temp\ccBEkVPc.s:25999  .debug_str:00000000000136cd .LASF4324
C:\Users\CYMR90~1\AppData\Local\Temp\ccBEkVPc.s:29358  .debug_str:0000000000020d9a .LASF4325
C:\Users\CYMR90~1\AppData\Local\Temp\ccBEkVPc.s:30090  .debug_str:0000000000023967 .LASF4326
C:\Users\CYMR90~1\AppData\Local\Temp\ccBEkVPc.s:27366  .debug_str:0000000000018e46 .LASF4327
C:\Users\CYMR90~1\AppData\Local\Temp\ccBEkVPc.s:28942  .debug_str:000000000001f409 .LASF4328
C:\Users\CYMR90~1\AppData\Local\Temp\ccBEkVPc.s:22201  .debug_str:0000000000004341 .LASF4329
C:\Users\CYMR90~1\AppData\Local\Temp\ccBEkVPc.s:22131  .debug_str:0000000000003e71 .LASF4330
C:\Users\CYMR90~1\AppData\Local\Temp\ccBEkVPc.s:29382  .debug_str:0000000000020f0f .LASF4331
C:\Users\CYMR90~1\AppData\Local\Temp\ccBEkVPc.s:27328  .debug_str:0000000000018b33 .LASF4332
C:\Users\CYMR90~1\AppData\Local\Temp\ccBEkVPc.s:26029  .debug_str:0000000000013891 .LASF4333
C:\Users\CYMR90~1\AppData\Local\Temp\ccBEkVPc.s:29882  .debug_str:0000000000022d57 .LASF4334
C:\Users\CYMR90~1\AppData\Local\Temp\ccBEkVPc.s:32406  .debug_str:000000000002d04a .LASF4335
C:\Users\CYMR90~1\AppData\Local\Temp\ccBEkVPc.s:23825  .debug_str:000000000000ab27 .LASF4336
C:\Users\CYMR90~1\AppData\Local\Temp\ccBEkVPc.s:24487  .debug_str:000000000000d75f .LASF4337
C:\Users\CYMR90~1\AppData\Local\Temp\ccBEkVPc.s:30016  .debug_str:00000000000234aa .LASF4338
C:\Users\CYMR90~1\AppData\Local\Temp\ccBEkVPc.s:28564  .debug_str:000000000001dcb1 .LASF4339
C:\Users\CYMR90~1\AppData\Local\Temp\ccBEkVPc.s:21215  .debug_str:0000000000000500 .LASF4340
C:\Users\CYMR90~1\AppData\Local\Temp\ccBEkVPc.s:22253  .debug_str:00000000000046c5 .LASF4341
C:\Users\CYMR90~1\AppData\Local\Temp\ccBEkVPc.s:24673  .debug_str:000000000000e231 .LASF4342
C:\Users\CYMR90~1\AppData\Local\Temp\ccBEkVPc.s:22823  .debug_str:0000000000006a7a .LASF4343
C:\Users\CYMR90~1\AppData\Local\Temp\ccBEkVPc.s:26049  .debug_str:00000000000139bc .LASF4344
C:\Users\CYMR90~1\AppData\Local\Temp\ccBEkVPc.s:25687  .debug_str:00000000000121a5 .LASF4345
C:\Users\CYMR90~1\AppData\Local\Temp\ccBEkVPc.s:21883  .debug_str:0000000000002df6 .LASF4346
C:\Users\CYMR90~1\AppData\Local\Temp\ccBEkVPc.s:22447  .debug_str:0000000000005354 .LASF4347
C:\Users\CYMR90~1\AppData\Local\Temp\ccBEkVPc.s:21969  .debug_str:0000000000003388 .LASF4348
C:\Users\CYMR90~1\AppData\Local\Temp\ccBEkVPc.s:21177  .debug_str:00000000000002b0 .LASF4349
C:\Users\CYMR90~1\AppData\Local\Temp\ccBEkVPc.s:23437  .debug_str:00000000000092e6 .LASF4350
C:\Users\CYMR90~1\AppData\Local\Temp\ccBEkVPc.s:26813  .debug_str:00000000000169c9 .LASF4351
C:\Users\CYMR90~1\AppData\Local\Temp\ccBEkVPc.s:21873  .debug_str:0000000000002d6b .LASF4352
C:\Users\CYMR90~1\AppData\Local\Temp\ccBEkVPc.s:30850  .debug_str:0000000000026ba7 .LASF4353
C:\Users\CYMR90~1\AppData\Local\Temp\ccBEkVPc.s:26679  .debug_str:0000000000016121 .LASF4354
C:\Users\CYMR90~1\AppData\Local\Temp\ccBEkVPc.s:27340  .debug_str:0000000000018c8c .LASF4355
C:\Users\CYMR90~1\AppData\Local\Temp\ccBEkVPc.s:30026  .debug_str:0000000000023543 .LASF4356
C:\Users\CYMR90~1\AppData\Local\Temp\ccBEkVPc.s:29808  .debug_str:00000000000228aa .LASF4357
C:\Users\CYMR90~1\AppData\Local\Temp\ccBEkVPc.s:25881  .debug_str:0000000000012e95 .LASF4358
C:\Users\CYMR90~1\AppData\Local\Temp\ccBEkVPc.s:28490  .debug_str:000000000001d835 .LASF4359
C:\Users\CYMR90~1\AppData\Local\Temp\ccBEkVPc.s:31744  .debug_str:000000000002a538 .LASF4360
C:\Users\CYMR90~1\AppData\Local\Temp\ccBEkVPc.s:28464  .debug_str:000000000001d677 .LASF4361
C:\Users\CYMR90~1\AppData\Local\Temp\ccBEkVPc.s:30618  .debug_str:0000000000025d2a .LASF4362
C:\Users\CYMR90~1\AppData\Local\Temp\ccBEkVPc.s:25419  .debug_str:0000000000011020 .LASF4363
C:\Users\CYMR90~1\AppData\Local\Temp\ccBEkVPc.s:28618  .debug_str:000000000001e096 .LASF4364
C:\Users\CYMR90~1\AppData\Local\Temp\ccBEkVPc.s:23611  .debug_str:0000000000009e3a .LASF4365
C:\Users\CYMR90~1\AppData\Local\Temp\ccBEkVPc.s:27876  .debug_str:000000000001b071 .LASF4366
C:\Users\CYMR90~1\AppData\Local\Temp\ccBEkVPc.s:28462  .debug_str:000000000001d652 .LASF4367
C:\Users\CYMR90~1\AppData\Local\Temp\ccBEkVPc.s:24005  .debug_str:000000000000b71a .LASF4368
C:\Users\CYMR90~1\AppData\Local\Temp\ccBEkVPc.s:27020  .debug_str:000000000001787b .LASF4369
C:\Users\CYMR90~1\AppData\Local\Temp\ccBEkVPc.s:28166  .debug_str:000000000001c27d .LASF4370
C:\Users\CYMR90~1\AppData\Local\Temp\ccBEkVPc.s:25817  .debug_str:0000000000012a7a .LASF4371
C:\Users\CYMR90~1\AppData\Local\Temp\ccBEkVPc.s:29338  .debug_str:0000000000020c4b .LASF4372
C:\Users\CYMR90~1\AppData\Local\Temp\ccBEkVPc.s:23935  .debug_str:000000000000b2a7 .LASF4373
C:\Users\CYMR90~1\AppData\Local\Temp\ccBEkVPc.s:21557  .debug_str:0000000000001a75 .LASF4374
C:\Users\CYMR90~1\AppData\Local\Temp\ccBEkVPc.s:26519  .debug_str:000000000001568a .LASF4375
C:\Users\CYMR90~1\AppData\Local\Temp\ccBEkVPc.s:25863  .debug_str:0000000000012d72 .LASF4376
C:\Users\CYMR90~1\AppData\Local\Temp\ccBEkVPc.s:32114  .debug_str:000000000002bcaa .LASF4377
C:\Users\CYMR90~1\AppData\Local\Temp\ccBEkVPc.s:27472  .debug_str:0000000000019524 .LASF4378
C:\Users\CYMR90~1\AppData\Local\Temp\ccBEkVPc.s:27018  .debug_str:0000000000017863 .LASF4379
C:\Users\CYMR90~1\AppData\Local\Temp\ccBEkVPc.s:28486  .debug_str:000000000001d814 .LASF4380
C:\Users\CYMR90~1\AppData\Local\Temp\ccBEkVPc.s:30140  .debug_str:0000000000023c46 .LASF4381
C:\Users\CYMR90~1\AppData\Local\Temp\ccBEkVPc.s:22479  .debug_str:0000000000005572 .LASF4382
C:\Users\CYMR90~1\AppData\Local\Temp\ccBEkVPc.s:21453  .debug_str:00000000000013c3 .LASF4383
C:\Users\CYMR90~1\AppData\Local\Temp\ccBEkVPc.s:28808  .debug_str:000000000001ec0d .LASF4384
C:\Users\CYMR90~1\AppData\Local\Temp\ccBEkVPc.s:29522  .debug_str:00000000000217b2 .LASF4385
C:\Users\CYMR90~1\AppData\Local\Temp\ccBEkVPc.s:31692  .debug_str:000000000002a222 .LASF4386
C:\Users\CYMR90~1\AppData\Local\Temp\ccBEkVPc.s:25535  .debug_str:000000000001172b .LASF4387
C:\Users\CYMR90~1\AppData\Local\Temp\ccBEkVPc.s:31342  .debug_str:0000000000028c84 .LASF4388
C:\Users\CYMR90~1\AppData\Local\Temp\ccBEkVPc.s:26305  .debug_str:0000000000014979 .LASF4389
C:\Users\CYMR90~1\AppData\Local\Temp\ccBEkVPc.s:23897  .debug_str:000000000000b08c .LASF4390
C:\Users\CYMR90~1\AppData\Local\Temp\ccBEkVPc.s:29298  .debug_str:00000000000209d6 .LASF4391
C:\Users\CYMR90~1\AppData\Local\Temp\ccBEkVPc.s:23329  .debug_str:0000000000008c63 .LASF4392
C:\Users\CYMR90~1\AppData\Local\Temp\ccBEkVPc.s:26932  .debug_str:0000000000017316 .LASF4393
C:\Users\CYMR90~1\AppData\Local\Temp\ccBEkVPc.s:27554  .debug_str:0000000000019ad8 .LASF4394
C:\Users\CYMR90~1\AppData\Local\Temp\ccBEkVPc.s:30920  .debug_str:0000000000027008 .LASF4395
C:\Users\CYMR90~1\AppData\Local\Temp\ccBEkVPc.s:26343  .debug_str:0000000000014bb7 .LASF4396
C:\Users\CYMR90~1\AppData\Local\Temp\ccBEkVPc.s:28712  .debug_str:000000000001e62b .LASF4397
C:\Users\CYMR90~1\AppData\Local\Temp\ccBEkVPc.s:24309  .debug_str:000000000000cbba .LASF4398
C:\Users\CYMR90~1\AppData\Local\Temp\ccBEkVPc.s:26117  .debug_str:0000000000013de1 .LASF4399
C:\Users\CYMR90~1\AppData\Local\Temp\ccBEkVPc.s:28532  .debug_str:000000000001dae8 .LASF4400
C:\Users\CYMR90~1\AppData\Local\Temp\ccBEkVPc.s:25891  .debug_str:0000000000012f28 .LASF4401
C:\Users\CYMR90~1\AppData\Local\Temp\ccBEkVPc.s:29372  .debug_str:0000000000020e8f .LASF4402
C:\Users\CYMR90~1\AppData\Local\Temp\ccBEkVPc.s:24863  .debug_str:000000000000ee1c .LASF4403
C:\Users\CYMR90~1\AppData\Local\Temp\ccBEkVPc.s:28484  .debug_str:000000000001d7ff .LASF4404
C:\Users\CYMR90~1\AppData\Local\Temp\ccBEkVPc.s:22259  .debug_str:000000000000474b .LASF4405
C:\Users\CYMR90~1\AppData\Local\Temp\ccBEkVPc.s:21639  .debug_str:0000000000001f6b .LASF4406
C:\Users\CYMR90~1\AppData\Local\Temp\ccBEkVPc.s:28206  .debug_str:000000000001c4cf .LASF4407
C:\Users\CYMR90~1\AppData\Local\Temp\ccBEkVPc.s:23243  .debug_str:0000000000008737 .LASF4408
C:\Users\CYMR90~1\AppData\Local\Temp\ccBEkVPc.s:31818  .debug_str:000000000002a9c2 .LASF4409
C:\Users\CYMR90~1\AppData\Local\Temp\ccBEkVPc.s:23091  .debug_str:0000000000007c35 .LASF4410
C:\Users\CYMR90~1\AppData\Local\Temp\ccBEkVPc.s:21225  .debug_str:00000000000005a2 .LASF4411
C:\Users\CYMR90~1\AppData\Local\Temp\ccBEkVPc.s:30340  .debug_str:00000000000249c3 .LASF4412
C:\Users\CYMR90~1\AppData\Local\Temp\ccBEkVPc.s:27248  .debug_str:000000000001863d .LASF4413
C:\Users\CYMR90~1\AppData\Local\Temp\ccBEkVPc.s:24971  .debug_str:000000000000f482 .LASF4414
C:\Users\CYMR90~1\AppData\Local\Temp\ccBEkVPc.s:29956  .debug_str:0000000000023161 .LASF4415
C:\Users\CYMR90~1\AppData\Local\Temp\ccBEkVPc.s:31642  .debug_str:0000000000029f42 .LASF4416
C:\Users\CYMR90~1\AppData\Local\Temp\ccBEkVPc.s:24161  .debug_str:000000000000c1c5 .LASF4417
C:\Users\CYMR90~1\AppData\Local\Temp\ccBEkVPc.s:22679  .debug_str:00000000000061be .LASF4418
C:\Users\CYMR90~1\AppData\Local\Temp\ccBEkVPc.s:22309  .debug_str:0000000000004ae6 .LASF4419
C:\Users\CYMR90~1\AppData\Local\Temp\ccBEkVPc.s:30690  .debug_str:00000000000261e1 .LASF4420
C:\Users\CYMR90~1\AppData\Local\Temp\ccBEkVPc.s:24561  .debug_str:000000000000db81 .LASF4421
C:\Users\CYMR90~1\AppData\Local\Temp\ccBEkVPc.s:25973  .debug_str:000000000001350c .LASF4422
C:\Users\CYMR90~1\AppData\Local\Temp\ccBEkVPc.s:23303  .debug_str:0000000000008ad8 .LASF4423
C:\Users\CYMR90~1\AppData\Local\Temp\ccBEkVPc.s:26527  .debug_str:0000000000015700 .LASF4424
C:\Users\CYMR90~1\AppData\Local\Temp\ccBEkVPc.s:30480  .debug_str:0000000000025376 .LASF4425
C:\Users\CYMR90~1\AppData\Local\Temp\ccBEkVPc.s:21739  .debug_str:00000000000024c7 .LASF4426
C:\Users\CYMR90~1\AppData\Local\Temp\ccBEkVPc.s:26695  .debug_str:000000000001621b .LASF4427
C:\Users\CYMR90~1\AppData\Local\Temp\ccBEkVPc.s:21363  .debug_str:0000000000000e1d .LASF4428
C:\Users\CYMR90~1\AppData\Local\Temp\ccBEkVPc.s:25369  .debug_str:0000000000010d94 .LASF4429
C:\Users\CYMR90~1\AppData\Local\Temp\ccBEkVPc.s:24047  .debug_str:000000000000b9da .LASF4430
C:\Users\CYMR90~1\AppData\Local\Temp\ccBEkVPc.s:29070  .debug_str:000000000001fbc6 .LASF4431
C:\Users\CYMR90~1\AppData\Local\Temp\ccBEkVPc.s:28036  .debug_str:000000000001ba59 .LASF4432
C:\Users\CYMR90~1\AppData\Local\Temp\ccBEkVPc.s:25783  .debug_str:0000000000012819 .LASF4433
C:\Users\CYMR90~1\AppData\Local\Temp\ccBEkVPc.s:21733  .debug_str:000000000000247a .LASF4434
C:\Users\CYMR90~1\AppData\Local\Temp\ccBEkVPc.s:28436  .debug_str:000000000001d4ab .LASF4435
C:\Users\CYMR90~1\AppData\Local\Temp\ccBEkVPc.s:24283  .debug_str:000000000000c99a .LASF4436
C:\Users\CYMR90~1\AppData\Local\Temp\ccBEkVPc.s:31802  .debug_str:000000000002a8dd .LASF4437
C:\Users\CYMR90~1\AppData\Local\Temp\ccBEkVPc.s:27698  .debug_str:000000000001a4f6 .LASF4438
C:\Users\CYMR90~1\AppData\Local\Temp\ccBEkVPc.s:29922  .debug_str:0000000000022f93 .LASF4439
C:\Users\CYMR90~1\AppData\Local\Temp\ccBEkVPc.s:31476  .debug_str:000000000002955d .LASF4440
C:\Users\CYMR90~1\AppData\Local\Temp\ccBEkVPc.s:26777  .debug_str:0000000000016721 .LASF4441
C:\Users\CYMR90~1\AppData\Local\Temp\ccBEkVPc.s:27440  .debug_str:0000000000019321 .LASF4442
C:\Users\CYMR90~1\AppData\Local\Temp\ccBEkVPc.s:22477  .debug_str:0000000000005559 .LASF4443
C:\Users\CYMR90~1\AppData\Local\Temp\ccBEkVPc.s:26193  .debug_str:0000000000014278 .LASF4444
C:\Users\CYMR90~1\AppData\Local\Temp\ccBEkVPc.s:25149  .debug_str:0000000000010000 .LASF4445
C:\Users\CYMR90~1\AppData\Local\Temp\ccBEkVPc.s:28336  .debug_str:000000000001cd7d .LASF4446
C:\Users\CYMR90~1\AppData\Local\Temp\ccBEkVPc.s:29638  .debug_str:0000000000021ed7 .LASF4447
C:\Users\CYMR90~1\AppData\Local\Temp\ccBEkVPc.s:24517  .debug_str:000000000000d90c .LASF4448
C:\Users\CYMR90~1\AppData\Local\Temp\ccBEkVPc.s:31964  .debug_str:000000000002b2a7 .LASF4449
C:\Users\CYMR90~1\AppData\Local\Temp\ccBEkVPc.s:24067  .debug_str:000000000000bb55 .LASF4450
C:\Users\CYMR90~1\AppData\Local\Temp\ccBEkVPc.s:29250  .debug_str:0000000000020726 .LASF4451
C:\Users\CYMR90~1\AppData\Local\Temp\ccBEkVPc.s:26637  .debug_str:0000000000015e05 .LASF4452
C:\Users\CYMR90~1\AppData\Local\Temp\ccBEkVPc.s:30094  .debug_str:00000000000239a8 .LASF4453
C:\Users\CYMR90~1\AppData\Local\Temp\ccBEkVPc.s:31934  .debug_str:000000000002b08f .LASF4454
C:\Users\CYMR90~1\AppData\Local\Temp\ccBEkVPc.s:29448  .debug_str:00000000000212c0 .LASF4455
C:\Users\CYMR90~1\AppData\Local\Temp\ccBEkVPc.s:29776  .debug_str:00000000000226bd .LASF4456
C:\Users\CYMR90~1\AppData\Local\Temp\ccBEkVPc.s:26765  .debug_str:0000000000016674 .LASF4457
C:\Users\CYMR90~1\AppData\Local\Temp\ccBEkVPc.s:22909  .debug_str:0000000000007006 .LASF4458
C:\Users\CYMR90~1\AppData\Local\Temp\ccBEkVPc.s:30516  .debug_str:000000000002563c .LASF4459
C:\Users\CYMR90~1\AppData\Local\Temp\ccBEkVPc.s:27754  .debug_str:000000000001a8d2 .LASF4460
C:\Users\CYMR90~1\AppData\Local\Temp\ccBEkVPc.s:21359  .debug_str:0000000000000ded .LASF4461
C:\Users\CYMR90~1\AppData\Local\Temp\ccBEkVPc.s:29752  .debug_str:0000000000022559 .LASF4462
C:\Users\CYMR90~1\AppData\Local\Temp\ccBEkVPc.s:31460  .debug_str:0000000000029469 .LASF4463
C:\Users\CYMR90~1\AppData\Local\Temp\ccBEkVPc.s:21813  .debug_str:000000000000299d .LASF4464
C:\Users\CYMR90~1\AppData\Local\Temp\ccBEkVPc.s:24841  .debug_str:000000000000ecfe .LASF4465
C:\Users\CYMR90~1\AppData\Local\Temp\ccBEkVPc.s:32376  .debug_str:000000000002ceb4 .LASF4466
C:\Users\CYMR90~1\AppData\Local\Temp\ccBEkVPc.s:24317  .debug_str:000000000000cc33 .LASF4467
C:\Users\CYMR90~1\AppData\Local\Temp\ccBEkVPc.s:26091  .debug_str:0000000000013c86 .LASF4468
C:\Users\CYMR90~1\AppData\Local\Temp\ccBEkVPc.s:30428  .debug_str:0000000000024f34 .LASF4469
C:\Users\CYMR90~1\AppData\Local\Temp\ccBEkVPc.s:31422  .debug_str:00000000000291a0 .LASF4470
C:\Users\CYMR90~1\AppData\Local\Temp\ccBEkVPc.s:26097  .debug_str:0000000000013cca .LASF4471
C:\Users\CYMR90~1\AppData\Local\Temp\ccBEkVPc.s:22601  .debug_str:0000000000005cdd .LASF4472
C:\Users\CYMR90~1\AppData\Local\Temp\ccBEkVPc.s:22193  .debug_str:00000000000042ad .LASF4473
C:\Users\CYMR90~1\AppData\Local\Temp\ccBEkVPc.s:29558  .debug_str:00000000000219f7 .LASF4474
C:\Users\CYMR90~1\AppData\Local\Temp\ccBEkVPc.s:25449  .debug_str:00000000000111f4 .LASF4475
C:\Users\CYMR90~1\AppData\Local\Temp\ccBEkVPc.s:22283  .debug_str:0000000000004951 .LASF4476
C:\Users\CYMR90~1\AppData\Local\Temp\ccBEkVPc.s:29352  .debug_str:0000000000020d40 .LASF4477
C:\Users\CYMR90~1\AppData\Local\Temp\ccBEkVPc.s:30746  .debug_str:000000000002651d .LASF4478
C:\Users\CYMR90~1\AppData\Local\Temp\ccBEkVPc.s:31922  .debug_str:000000000002afe5 .LASF4479
C:\Users\CYMR90~1\AppData\Local\Temp\ccBEkVPc.s:30662  .debug_str:000000000002601c .LASF4480
C:\Users\CYMR90~1\AppData\Local\Temp\ccBEkVPc.s:21501  .debug_str:0000000000001685 .LASF4481
C:\Users\CYMR90~1\AppData\Local\Temp\ccBEkVPc.s:28674  .debug_str:000000000001e3ee .LASF4482
C:\Users\CYMR90~1\AppData\Local\Temp\ccBEkVPc.s:30964  .debug_str:000000000002736f .LASF4483
C:\Users\CYMR90~1\AppData\Local\Temp\ccBEkVPc.s:23743  .debug_str:000000000000a65a .LASF4484
C:\Users\CYMR90~1\AppData\Local\Temp\ccBEkVPc.s:32268  .debug_str:000000000002c739 .LASF4485
C:\Users\CYMR90~1\AppData\Local\Temp\ccBEkVPc.s:31630  .debug_str:0000000000029e9c .LASF4486
C:\Users\CYMR90~1\AppData\Local\Temp\ccBEkVPc.s:23097  .debug_str:0000000000007c8f .LASF4487
C:\Users\CYMR90~1\AppData\Local\Temp\ccBEkVPc.s:22175  .debug_str:00000000000041ba .LASF4488
C:\Users\CYMR90~1\AppData\Local\Temp\ccBEkVPc.s:30826  .debug_str:0000000000026a3a .LASF4489
C:\Users\CYMR90~1\AppData\Local\Temp\ccBEkVPc.s:28220  .debug_str:000000000001c582 .LASF4490
C:\Users\CYMR90~1\AppData\Local\Temp\ccBEkVPc.s:30802  .debug_str:00000000000268cc .LASF4491
C:\Users\CYMR90~1\AppData\Local\Temp\ccBEkVPc.s:26129  .debug_str:0000000000013e82 .LASF4492
C:\Users\CYMR90~1\AppData\Local\Temp\ccBEkVPc.s:25041  .debug_str:000000000000f93e .LASF4493
C:\Users\CYMR90~1\AppData\Local\Temp\ccBEkVPc.s:28780  .debug_str:000000000001ea7d .LASF4494
C:\Users\CYMR90~1\AppData\Local\Temp\ccBEkVPc.s:22533  .debug_str:00000000000058c5 .LASF4495
C:\Users\CYMR90~1\AppData\Local\Temp\ccBEkVPc.s:29976  .debug_str:0000000000023264 .LASF4496
C:\Users\CYMR90~1\AppData\Local\Temp\ccBEkVPc.s:27368  .debug_str:0000000000018e6c .LASF4497
C:\Users\CYMR90~1\AppData\Local\Temp\ccBEkVPc.s:21703  .debug_str:00000000000022bb .LASF4498
C:\Users\CYMR90~1\AppData\Local\Temp\ccBEkVPc.s:21903  .debug_str:0000000000002f0f .LASF4499
C:\Users\CYMR90~1\AppData\Local\Temp\ccBEkVPc.s:30626  .debug_str:0000000000025dbf .LASF4500
C:\Users\CYMR90~1\AppData\Local\Temp\ccBEkVPc.s:26537  .debug_str:0000000000015787 .LASF4501
C:\Users\CYMR90~1\AppData\Local\Temp\ccBEkVPc.s:32412  .debug_str:000000000002d0cc .LASF4502
C:\Users\CYMR90~1\AppData\Local\Temp\ccBEkVPc.s:23415  .debug_str:0000000000009189 .LASF4503
C:\Users\CYMR90~1\AppData\Local\Temp\ccBEkVPc.s:31218  .debug_str:000000000002846c .LASF4504
C:\Users\CYMR90~1\AppData\Local\Temp\ccBEkVPc.s:32410  .debug_str:000000000002d093 .LASF4505
C:\Users\CYMR90~1\AppData\Local\Temp\ccBEkVPc.s:28598  .debug_str:000000000001df3b .LASF4506
C:\Users\CYMR90~1\AppData\Local\Temp\ccBEkVPc.s:22863  .debug_str:0000000000006cf0 .LASF4507
C:\Users\CYMR90~1\AppData\Local\Temp\ccBEkVPc.s:22323  .debug_str:0000000000004bd7 .LASF4508
C:\Users\CYMR90~1\AppData\Local\Temp\ccBEkVPc.s:26884  .debug_str:0000000000017059 .LASF4509
C:\Users\CYMR90~1\AppData\Local\Temp\ccBEkVPc.s:32062  .debug_str:000000000002b962 .LASF4510
C:\Users\CYMR90~1\AppData\Local\Temp\ccBEkVPc.s:25913  .debug_str:00000000000130ad .LASF4511
C:\Users\CYMR90~1\AppData\Local\Temp\ccBEkVPc.s:31694  .debug_str:000000000002a23b .LASF4512
C:\Users\CYMR90~1\AppData\Local\Temp\ccBEkVPc.s:30776  .debug_str:0000000000026716 .LASF4513
C:\Users\CYMR90~1\AppData\Local\Temp\ccBEkVPc.s:30986  .debug_str:00000000000274ca .LASF4514
C:\Users\CYMR90~1\AppData\Local\Temp\ccBEkVPc.s:31522  .debug_str:000000000002983c .LASF4515
C:\Users\CYMR90~1\AppData\Local\Temp\ccBEkVPc.s:28130  .debug_str:000000000001c038 .LASF4516
C:\Users\CYMR90~1\AppData\Local\Temp\ccBEkVPc.s:27584  .debug_str:0000000000019ca0 .LASF4517
C:\Users\CYMR90~1\AppData\Local\Temp\ccBEkVPc.s:23155  .debug_str:0000000000008178 .LASF4518
C:\Users\CYMR90~1\AppData\Local\Temp\ccBEkVPc.s:28304  .debug_str:000000000001cb58 .LASF4519
C:\Users\CYMR90~1\AppData\Local\Temp\ccBEkVPc.s:27894  .debug_str:000000000001b18d .LASF4520
C:\Users\CYMR90~1\AppData\Local\Temp\ccBEkVPc.s:29818  .debug_str:0000000000022925 .LASF4521
C:\Users\CYMR90~1\AppData\Local\Temp\ccBEkVPc.s:30730  .debug_str:000000000002640e .LASF4522
C:\Users\CYMR90~1\AppData\Local\Temp\ccBEkVPc.s:21615  .debug_str:0000000000001dfd .LASF4523
C:\Users\CYMR90~1\AppData\Local\Temp\ccBEkVPc.s:26713  .debug_str:000000000001630a .LASF4524
C:\Users\CYMR90~1\AppData\Local\Temp\ccBEkVPc.s:21915  .debug_str:000000000000300a .LASF4525
C:\Users\CYMR90~1\AppData\Local\Temp\ccBEkVPc.s:29084  .debug_str:000000000001fcad .LASF4526
C:\Users\CYMR90~1\AppData\Local\Temp\ccBEkVPc.s:28790  .debug_str:000000000001eb0b .LASF4527
C:\Users\CYMR90~1\AppData\Local\Temp\ccBEkVPc.s:21413  .debug_str:0000000000001189 .LASF4528
C:\Users\CYMR90~1\AppData\Local\Temp\ccBEkVPc.s:30460  .debug_str:000000000002518c .LASF4529
C:\Users\CYMR90~1\AppData\Local\Temp\ccBEkVPc.s:23265  .debug_str:0000000000008869 .LASF4530
C:\Users\CYMR90~1\AppData\Local\Temp\ccBEkVPc.s:28408  .debug_str:000000000001d31d .LASF4531
C:\Users\CYMR90~1\AppData\Local\Temp\ccBEkVPc.s:28426  .debug_str:000000000001d414 .LASF4532
C:\Users\CYMR90~1\AppData\Local\Temp\ccBEkVPc.s:29392  .debug_str:0000000000020f9b .LASF4533
C:\Users\CYMR90~1\AppData\Local\Temp\ccBEkVPc.s:27830  .debug_str:000000000001ad59 .LASF4534
C:\Users\CYMR90~1\AppData\Local\Temp\ccBEkVPc.s:22571  .debug_str:0000000000005b1d .LASF4535
C:\Users\CYMR90~1\AppData\Local\Temp\ccBEkVPc.s:31180  .debug_str:0000000000028187 .LASF4536
C:\Users\CYMR90~1\AppData\Local\Temp\ccBEkVPc.s:30102  .debug_str:0000000000023a3f .LASF4537
C:\Users\CYMR90~1\AppData\Local\Temp\ccBEkVPc.s:26427  .debug_str:0000000000015154 .LASF4538
C:\Users\CYMR90~1\AppData\Local\Temp\ccBEkVPc.s:32370  .debug_str:000000000002ce3e .LASF4539
C:\Users\CYMR90~1\AppData\Local\Temp\ccBEkVPc.s:21879  .debug_str:0000000000002dba .LASF4540
C:\Users\CYMR90~1\AppData\Local\Temp\ccBEkVPc.s:21165  .debug_str:000000000000021e .LASF4541
C:\Users\CYMR90~1\AppData\Local\Temp\ccBEkVPc.s:27538  .debug_str:00000000000199af .LASF4542
C:\Users\CYMR90~1\AppData\Local\Temp\ccBEkVPc.s:25315  .debug_str:0000000000010a01 .LASF4543
C:\Users\CYMR90~1\AppData\Local\Temp\ccBEkVPc.s:22189  .debug_str:0000000000004270 .LASF4544
C:\Users\CYMR90~1\AppData\Local\Temp\ccBEkVPc.s:24227  .debug_str:000000000000c582 .LASF4545
C:\Users\CYMR90~1\AppData\Local\Temp\ccBEkVPc.s:30788  .debug_str:00000000000267fb .LASF4546
C:\Users\CYMR90~1\AppData\Local\Temp\ccBEkVPc.s:21189  .debug_str:00000000000003a3 .LASF4547
C:\Users\CYMR90~1\AppData\Local\Temp\ccBEkVPc.s:21233  .debug_str:00000000000005f0 .LASF4548
C:\Users\CYMR90~1\AppData\Local\Temp\ccBEkVPc.s:31442  .debug_str:00000000000292da .LASF4549
C:\Users\CYMR90~1\AppData\Local\Temp\ccBEkVPc.s:22221  .debug_str:00000000000044a0 .LASF4550
C:\Users\CYMR90~1\AppData\Local\Temp\ccBEkVPc.s:23889  .debug_str:000000000000af5c .LASF4551
C:\Users\CYMR90~1\AppData\Local\Temp\ccBEkVPc.s:21207  .debug_str:000000000000049f .LASF4552
C:\Users\CYMR90~1\AppData\Local\Temp\ccBEkVPc.s:28768  .debug_str:000000000001e9bb .LASF4553
C:\Users\CYMR90~1\AppData\Local\Temp\ccBEkVPc.s:26894  .debug_str:0000000000017102 .LASF4554
C:\Users\CYMR90~1\AppData\Local\Temp\ccBEkVPc.s:21751  .debug_str:00000000000025a3 .LASF4555
C:\Users\CYMR90~1\AppData\Local\Temp\ccBEkVPc.s:30890  .debug_str:0000000000026e2a .LASF4556
C:\Users\CYMR90~1\AppData\Local\Temp\ccBEkVPc.s:32224  .debug_str:000000000002c463 .LASF4557
C:\Users\CYMR90~1\AppData\Local\Temp\ccBEkVPc.s:29216  .debug_str:000000000002046f .LASF4558
C:\Users\CYMR90~1\AppData\Local\Temp\ccBEkVPc.s:24223  .debug_str:000000000000c538 .LASF4559
C:\Users\CYMR90~1\AppData\Local\Temp\ccBEkVPc.s:29826  .debug_str:0000000000022994 .LASF4560
C:\Users\CYMR90~1\AppData\Local\Temp\ccBEkVPc.s:24127  .debug_str:000000000000bf87 .LASF4561
C:\Users\CYMR90~1\AppData\Local\Temp\ccBEkVPc.s:29816  .debug_str:0000000000022907 .LASF4562
C:\Users\CYMR90~1\AppData\Local\Temp\ccBEkVPc.s:27132  .debug_str:0000000000017f88 .LASF4563
C:\Users\CYMR90~1\AppData\Local\Temp\ccBEkVPc.s:24105  .debug_str:000000000000be24 .LASF4564
C:\Users\CYMR90~1\AppData\Local\Temp\ccBEkVPc.s:25439  .debug_str:0000000000011155 .LASF4565
C:\Users\CYMR90~1\AppData\Local\Temp\ccBEkVPc.s:24607  .debug_str:000000000000de22 .LASF4566
C:\Users\CYMR90~1\AppData\Local\Temp\ccBEkVPc.s:22273  .debug_str:00000000000048b6 .LASF4567
C:\Users\CYMR90~1\AppData\Local\Temp\ccBEkVPc.s:23559  .debug_str:0000000000009aeb .LASF4568
C:\Users\CYMR90~1\AppData\Local\Temp\ccBEkVPc.s:26087  .debug_str:0000000000013c26 .LASF4569
C:\Users\CYMR90~1\AppData\Local\Temp\ccBEkVPc.s:22093  .debug_str:0000000000003bc1 .LASF4570
C:\Users\CYMR90~1\AppData\Local\Temp\ccBEkVPc.s:22857  .debug_str:0000000000006c81 .LASF4571
C:\Users\CYMR90~1\AppData\Local\Temp\ccBEkVPc.s:21135  .debug_str:000000000000002e .LASF4572
C:\Users\CYMR90~1\AppData\Local\Temp\ccBEkVPc.s:25421  .debug_str:0000000000011044 .LASF4573
C:\Users\CYMR90~1\AppData\Local\Temp\ccBEkVPc.s:27788  .debug_str:000000000001aacb .LASF4574
C:\Users\CYMR90~1\AppData\Local\Temp\ccBEkVPc.s:26841  .debug_str:0000000000016c0b .LASF4575
C:\Users\CYMR90~1\AppData\Local\Temp\ccBEkVPc.s:32164  .debug_str:000000000002c062 .LASF4576
C:\Users\CYMR90~1\AppData\Local\Temp\ccBEkVPc.s:30322  .debug_str:00000000000248c3 .LASF4577
C:\Users\CYMR90~1\AppData\Local\Temp\ccBEkVPc.s:24711  .debug_str:000000000000e474 .LASF4578
C:\Users\CYMR90~1\AppData\Local\Temp\ccBEkVPc.s:28892  .debug_str:000000000001f0e4 .LASF4579
C:\Users\CYMR90~1\AppData\Local\Temp\ccBEkVPc.s:26357  .debug_str:0000000000014c9f .LASF4580
C:\Users\CYMR90~1\AppData\Local\Temp\ccBEkVPc.s:23627  .debug_str:0000000000009f22 .LASF4581
C:\Users\CYMR90~1\AppData\Local\Temp\ccBEkVPc.s:24659  .debug_str:000000000000e157 .LASF4582
C:\Users\CYMR90~1\AppData\Local\Temp\ccBEkVPc.s:25941  .debug_str:0000000000013274 .LASF4583
C:\Users\CYMR90~1\AppData\Local\Temp\ccBEkVPc.s:21745  .debug_str:000000000000250d .LASF4584
C:\Users\CYMR90~1\AppData\Local\Temp\ccBEkVPc.s:28872  .debug_str:000000000001ef9d .LASF4585
C:\Users\CYMR90~1\AppData\Local\Temp\ccBEkVPc.s:23735  .debug_str:000000000000a5c2 .LASF4586
C:\Users\CYMR90~1\AppData\Local\Temp\ccBEkVPc.s:21261  .debug_str:00000000000007c5 .LASF4587
C:\Users\CYMR90~1\AppData\Local\Temp\ccBEkVPc.s:27804  .debug_str:000000000001abca .LASF4588
C:\Users\CYMR90~1\AppData\Local\Temp\ccBEkVPc.s:31100  .debug_str:0000000000027bd6 .LASF4589
C:\Users\CYMR90~1\AppData\Local\Temp\ccBEkVPc.s:26503  .debug_str:000000000001558c .LASF4590
C:\Users\CYMR90~1\AppData\Local\Temp\ccBEkVPc.s:27462  .debug_str:0000000000019457 .LASF4591
C:\Users\CYMR90~1\AppData\Local\Temp\ccBEkVPc.s:24119  .debug_str:000000000000beff .LASF4592
C:\Users\CYMR90~1\AppData\Local\Temp\ccBEkVPc.s:27516  .debug_str:00000000000197e4 .LASF4593
C:\Users\CYMR90~1\AppData\Local\Temp\ccBEkVPc.s:29450  .debug_str:00000000000212d8 .LASF4594
C:\Users\CYMR90~1\AppData\Local\Temp\ccBEkVPc.s:27540  .debug_str:00000000000199ea .LASF4595
C:\Users\CYMR90~1\AppData\Local\Temp\ccBEkVPc.s:22171  .debug_str:0000000000004171 .LASF4596
C:\Users\CYMR90~1\AppData\Local\Temp\ccBEkVPc.s:23785  .debug_str:000000000000a887 .LASF4597
C:\Users\CYMR90~1\AppData\Local\Temp\ccBEkVPc.s:26541  .debug_str:00000000000157b7 .LASF4598
C:\Users\CYMR90~1\AppData\Local\Temp\ccBEkVPc.s:29286  .debug_str:0000000000020913 .LASF4599
C:\Users\CYMR90~1\AppData\Local\Temp\ccBEkVPc.s:28886  .debug_str:000000000001f07b .LASF4600
C:\Users\CYMR90~1\AppData\Local\Temp\ccBEkVPc.s:24605  .debug_str:000000000000dde6 .LASF4601
C:\Users\CYMR90~1\AppData\Local\Temp\ccBEkVPc.s:27912  .debug_str:000000000001b2ec .LASF4602
C:\Users\CYMR90~1\AppData\Local\Temp\ccBEkVPc.s:31740  .debug_str:000000000002a4e5 .LASF4603
C:\Users\CYMR90~1\AppData\Local\Temp\ccBEkVPc.s:25337  .debug_str:0000000000010b22 .LASF4604
C:\Users\CYMR90~1\AppData\Local\Temp\ccBEkVPc.s:26055  .debug_str:0000000000013a09 .LASF4605
C:\Users\CYMR90~1\AppData\Local\Temp\ccBEkVPc.s:29720  .debug_str:00000000000223d0 .LASF4606
C:\Users\CYMR90~1\AppData\Local\Temp\ccBEkVPc.s:31842  .debug_str:000000000002ab0c .LASF4607
C:\Users\CYMR90~1\AppData\Local\Temp\ccBEkVPc.s:25117  .debug_str:000000000000fdcf .LASF4608
C:\Users\CYMR90~1\AppData\Local\Temp\ccBEkVPc.s:29780  .debug_str:00000000000226fb .LASF4609
C:\Users\CYMR90~1\AppData\Local\Temp\ccBEkVPc.s:32076  .debug_str:000000000002ba31 .LASF4610
C:\Users\CYMR90~1\AppData\Local\Temp\ccBEkVPc.s:30274  .debug_str:000000000002456a .LASF4611
C:\Users\CYMR90~1\AppData\Local\Temp\ccBEkVPc.s:26781  .debug_str:0000000000016763 .LASF4612
C:\Users\CYMR90~1\AppData\Local\Temp\ccBEkVPc.s:28052  .debug_str:000000000001bb27 .LASF4613
C:\Users\CYMR90~1\AppData\Local\Temp\ccBEkVPc.s:27564  .debug_str:0000000000019b63 .LASF4614
C:\Users\CYMR90~1\AppData\Local\Temp\ccBEkVPc.s:25257  .debug_str:0000000000010678 .LASF4615
C:\Users\CYMR90~1\AppData\Local\Temp\ccBEkVPc.s:25697  .debug_str:0000000000012237 .LASF4616
C:\Users\CYMR90~1\AppData\Local\Temp\ccBEkVPc.s:21971  .debug_str:00000000000033aa .LASF4617
C:\Users\CYMR90~1\AppData\Local\Temp\ccBEkVPc.s:22845  .debug_str:0000000000006bda .LASF4618
C:\Users\CYMR90~1\AppData\Local\Temp\ccBEkVPc.s:25753  .debug_str:000000000001262e .LASF4619
C:\Users\CYMR90~1\AppData\Local\Temp\ccBEkVPc.s:31882  .debug_str:000000000002ad7a .LASF4620
C:\Users\CYMR90~1\AppData\Local\Temp\ccBEkVPc.s:24729  .debug_str:000000000000e599 .LASF4621
C:\Users\CYMR90~1\AppData\Local\Temp\ccBEkVPc.s:27662  .debug_str:000000000001a129 .LASF4622
C:\Users\CYMR90~1\AppData\Local\Temp\ccBEkVPc.s:21347  .debug_str:0000000000000d3a .LASF4623
C:\Users\CYMR90~1\AppData\Local\Temp\ccBEkVPc.s:31104  .debug_str:0000000000027c23 .LASF4624
C:\Users\CYMR90~1\AppData\Local\Temp\ccBEkVPc.s:32330  .debug_str:000000000002cb5a .LASF4625
C:\Users\CYMR90~1\AppData\Local\Temp\ccBEkVPc.s:24503  .debug_str:000000000000d82f .LASF4626
C:\Users\CYMR90~1\AppData\Local\Temp\ccBEkVPc.s:27184  .debug_str:0000000000018290 .LASF4627
C:\Users\CYMR90~1\AppData\Local\Temp\ccBEkVPc.s:21491  .debug_str:00000000000015ef .LASF4628
C:\Users\CYMR90~1\AppData\Local\Temp\ccBEkVPc.s:22205  .debug_str:000000000000438d .LASF4629
C:\Users\CYMR90~1\AppData\Local\Temp\ccBEkVPc.s:26649  .debug_str:0000000000015eee .LASF4630
C:\Users\CYMR90~1\AppData\Local\Temp\ccBEkVPc.s:31808  .debug_str:000000000002a935 .LASF4631
C:\Users\CYMR90~1\AppData\Local\Temp\ccBEkVPc.s:30760  .debug_str:0000000000026604 .LASF4632
C:\Users\CYMR90~1\AppData\Local\Temp\ccBEkVPc.s:31810  .debug_str:000000000002a953 .LASF4633
C:\Users\CYMR90~1\AppData\Local\Temp\ccBEkVPc.s:28210  .debug_str:000000000001c4fd .LASF4634
C:\Users\CYMR90~1\AppData\Local\Temp\ccBEkVPc.s:21441  .debug_str:00000000000012f0 .LASF4635
C:\Users\CYMR90~1\AppData\Local\Temp\ccBEkVPc.s:30534  .debug_str:0000000000025760 .LASF4636
C:\Users\CYMR90~1\AppData\Local\Temp\ccBEkVPc.s:28114  .debug_str:000000000001bf2b .LASF4637
C:\Users\CYMR90~1\AppData\Local\Temp\ccBEkVPc.s:22609  .debug_str:0000000000005d51 .LASF4638
C:\Users\CYMR90~1\AppData\Local\Temp\ccBEkVPc.s:24735  .debug_str:000000000000e5e7 .LASF4639
C:\Users\CYMR90~1\AppData\Local\Temp\ccBEkVPc.s:29226  .debug_str:0000000000020546 .LASF4640
C:\Users\CYMR90~1\AppData\Local\Temp\ccBEkVPc.s:25877  .debug_str:0000000000012e54 .LASF4641
C:\Users\CYMR90~1\AppData\Local\Temp\ccBEkVPc.s:30902  .debug_str:0000000000026f0e .LASF4642
C:\Users\CYMR90~1\AppData\Local\Temp\ccBEkVPc.s:26413  .debug_str:000000000001507f .LASF4643
C:\Users\CYMR90~1\AppData\Local\Temp\ccBEkVPc.s:31876  .debug_str:000000000002acff .LASF4644
C:\Users\CYMR90~1\AppData\Local\Temp\ccBEkVPc.s:25245  .debug_str:00000000000105ce .LASF4645
C:\Users\CYMR90~1\AppData\Local\Temp\ccBEkVPc.s:29096  .debug_str:000000000001fd73 .LASF4646
C:\Users\CYMR90~1\AppData\Local\Temp\ccBEkVPc.s:24831  .debug_str:000000000000ec4f .LASF4647
C:\Users\CYMR90~1\AppData\Local\Temp\ccBEkVPc.s:22519  .debug_str:00000000000057cd .LASF4648
C:\Users\CYMR90~1\AppData\Local\Temp\ccBEkVPc.s:31650  .debug_str:0000000000029fa8 .LASF4649
C:\Users\CYMR90~1\AppData\Local\Temp\ccBEkVPc.s:29404  .debug_str:000000000002103d .LASF4650
C:\Users\CYMR90~1\AppData\Local\Temp\ccBEkVPc.s:32160  .debug_str:000000000002c02d .LASF4651
C:\Users\CYMR90~1\AppData\Local\Temp\ccBEkVPc.s:25035  .debug_str:000000000000f8ef .LASF4652
C:\Users\CYMR90~1\AppData\Local\Temp\ccBEkVPc.s:23447  .debug_str:0000000000009383 .LASF4653
C:\Users\CYMR90~1\AppData\Local\Temp\ccBEkVPc.s:31840  .debug_str:000000000002aaea .LASF4654
C:\Users\CYMR90~1\AppData\Local\Temp\ccBEkVPc.s:29496  .debug_str:000000000002163c .LASF4655
C:\Users\CYMR90~1\AppData\Local\Temp\ccBEkVPc.s:31304  .debug_str:0000000000028a5e .LASF4656
C:\Users\CYMR90~1\AppData\Local\Temp\ccBEkVPc.s:22835  .debug_str:0000000000006b3c .LASF4657
C:\Users\CYMR90~1\AppData\Local\Temp\ccBEkVPc.s:29640  .debug_str:0000000000021ef0 .LASF4658
C:\Users\CYMR90~1\AppData\Local\Temp\ccBEkVPc.s:31472  .debug_str:0000000000029513 .LASF4659
C:\Users\CYMR90~1\AppData\Local\Temp\ccBEkVPc.s:31204  .debug_str:000000000002838c .LASF4660
C:\Users\CYMR90~1\AppData\Local\Temp\ccBEkVPc.s:30498  .debug_str:00000000000254cc .LASF4661
C:\Users\CYMR90~1\AppData\Local\Temp\ccBEkVPc.s:27636  .debug_str:0000000000019fb6 .LASF4662
C:\Users\CYMR90~1\AppData\Local\Temp\ccBEkVPc.s:23621  .debug_str:0000000000009eca .LASF4663
C:\Users\CYMR90~1\AppData\Local\Temp\ccBEkVPc.s:25037  .debug_str:000000000000f911 .LASF4664
C:\Users\CYMR90~1\AppData\Local\Temp\ccBEkVPc.s:26635  .debug_str:0000000000015de9 .LASF4665
C:\Users\CYMR90~1\AppData\Local\Temp\ccBEkVPc.s:23771  .debug_str:000000000000a7c6 .LASF4666
C:\Users\CYMR90~1\AppData\Local\Temp\ccBEkVPc.s:28734  .debug_str:000000000001e781 .LASF4667
C:\Users\CYMR90~1\AppData\Local\Temp\ccBEkVPc.s:26962  .debug_str:00000000000174f4 .LASF4668
C:\Users\CYMR90~1\AppData\Local\Temp\ccBEkVPc.s:24427  .debug_str:000000000000d32d .LASF4669
C:\Users\CYMR90~1\AppData\Local\Temp\ccBEkVPc.s:32212  .debug_str:000000000002c34f .LASF4670
C:\Users\CYMR90~1\AppData\Local\Temp\ccBEkVPc.s:26799  .debug_str:000000000001686b .LASF4671
C:\Users\CYMR90~1\AppData\Local\Temp\ccBEkVPc.s:31870  .debug_str:000000000002ac9f .LASF4672
C:\Users\CYMR90~1\AppData\Local\Temp\ccBEkVPc.s:21907  .debug_str:0000000000002f8c .LASF4673
C:\Users\CYMR90~1\AppData\Local\Temp\ccBEkVPc.s:30250  .debug_str:00000000000243ff .LASF4674
C:\Users\CYMR90~1\AppData\Local\Temp\ccBEkVPc.s:26809  .debug_str:0000000000016971 .LASF4675
C:\Users\CYMR90~1\AppData\Local\Temp\ccBEkVPc.s:23335  .debug_str:0000000000008cb1 .LASF4676
C:\Users\CYMR90~1\AppData\Local\Temp\ccBEkVPc.s:30980  .debug_str:000000000002747f .LASF4677
C:\Users\CYMR90~1\AppData\Local\Temp\ccBEkVPc.s:29928  .debug_str:0000000000022ffa .LASF4678
C:\Users\CYMR90~1\AppData\Local\Temp\ccBEkVPc.s:21681  .debug_str:000000000000217e .LASF4679
C:\Users\CYMR90~1\AppData\Local\Temp\ccBEkVPc.s:22795  .debug_str:00000000000068cc .LASF4680
C:\Users\CYMR90~1\AppData\Local\Temp\ccBEkVPc.s:28546  .debug_str:000000000001dba3 .LASF4681
C:\Users\CYMR90~1\AppData\Local\Temp\ccBEkVPc.s:28664  .debug_str:000000000001e367 .LASF4682
C:\Users\CYMR90~1\AppData\Local\Temp\ccBEkVPc.s:23161  .debug_str:00000000000081cf .LASF4683
C:\Users\CYMR90~1\AppData\Local\Temp\ccBEkVPc.s:31038  .debug_str:00000000000277ba .LASF4684
C:\Users\CYMR90~1\AppData\Local\Temp\ccBEkVPc.s:24895  .debug_str:000000000000efd4 .LASF4685
C:\Users\CYMR90~1\AppData\Local\Temp\ccBEkVPc.s:28342  .debug_str:000000000001cde0 .LASF4686
C:\Users\CYMR90~1\AppData\Local\Temp\ccBEkVPc.s:28476  .debug_str:000000000001d716 .LASF4687
C:\Users\CYMR90~1\AppData\Local\Temp\ccBEkVPc.s:29674  .debug_str:00000000000220e8 .LASF4688
C:\Users\CYMR90~1\AppData\Local\Temp\ccBEkVPc.s:25063  .debug_str:000000000000fa67 .LASF4689
C:\Users\CYMR90~1\AppData\Local\Temp\ccBEkVPc.s:31628  .debug_str:0000000000029e7d .LASF4690
C:\Users\CYMR90~1\AppData\Local\Temp\ccBEkVPc.s:24873  .debug_str:000000000000ee8d .LASF4691
C:\Users\CYMR90~1\AppData\Local\Temp\ccBEkVPc.s:28262  .debug_str:000000000001c824 .LASF4692
C:\Users\CYMR90~1\AppData\Local\Temp\ccBEkVPc.s:23951  .debug_str:000000000000b39d .LASF4693
C:\Users\CYMR90~1\AppData\Local\Temp\ccBEkVPc.s:27112  .debug_str:0000000000017e25 .LASF4694
C:\Users\CYMR90~1\AppData\Local\Temp\ccBEkVPc.s:23811  .debug_str:000000000000aa55 .LASF4695
C:\Users\CYMR90~1\AppData\Local\Temp\ccBEkVPc.s:21749  .debug_str:0000000000002581 .LASF4696
C:\Users\CYMR90~1\AppData\Local\Temp\ccBEkVPc.s:29910  .debug_str:0000000000022ef8 .LASF4697
C:\Users\CYMR90~1\AppData\Local\Temp\ccBEkVPc.s:21479  .debug_str:0000000000001512 .LASF4698
C:\Users\CYMR90~1\AppData\Local\Temp\ccBEkVPc.s:21315  .debug_str:0000000000000b7a .LASF4699
C:\Users\CYMR90~1\AppData\Local\Temp\ccBEkVPc.s:22373  .debug_str:0000000000004ee9 .LASF4700
C:\Users\CYMR90~1\AppData\Local\Temp\ccBEkVPc.s:23021  .debug_str:0000000000007777 .LASF4701
C:\Users\CYMR90~1\AppData\Local\Temp\ccBEkVPc.s:30714  .debug_str:000000000002632b .LASF4702
C:\Users\CYMR90~1\AppData\Local\Temp\ccBEkVPc.s:21667  .debug_str:00000000000020ba .LASF4703
C:\Users\CYMR90~1\AppData\Local\Temp\ccBEkVPc.s:29466  .debug_str:00000000000213d5 .LASF4704
C:\Users\CYMR90~1\AppData\Local\Temp\ccBEkVPc.s:24029  .debug_str:000000000000b8dd .LASF4705
C:\Users\CYMR90~1\AppData\Local\Temp\ccBEkVPc.s:30156  .debug_str:0000000000023d39 .LASF4706
C:\Users\CYMR90~1\AppData\Local\Temp\ccBEkVPc.s:23377  .debug_str:0000000000008f82 .LASF4707
C:\Users\CYMR90~1\AppData\Local\Temp\ccBEkVPc.s:29082  .debug_str:000000000001fc97 .LASF4708
C:\Users\CYMR90~1\AppData\Local\Temp\ccBEkVPc.s:29698  .debug_str:0000000000022279 .LASF4709
C:\Users\CYMR90~1\AppData\Local\Temp\ccBEkVPc.s:27252  .debug_str:0000000000018679 .LASF4710
C:\Users\CYMR90~1\AppData\Local\Temp\ccBEkVPc.s:29784  .debug_str:0000000000022754 .LASF4711
C:\Users\CYMR90~1\AppData\Local\Temp\ccBEkVPc.s:26729  .debug_str:0000000000016410 .LASF4712
C:\Users\CYMR90~1\AppData\Local\Temp\ccBEkVPc.s:26631  .debug_str:0000000000015db0 .LASF4713
C:\Users\CYMR90~1\AppData\Local\Temp\ccBEkVPc.s:26211  .debug_str:0000000000014381 .LASF4714
C:\Users\CYMR90~1\AppData\Local\Temp\ccBEkVPc.s:28804  .debug_str:000000000001ebde .LASF4715
C:\Users\CYMR90~1\AppData\Local\Temp\ccBEkVPc.s:25461  .debug_str:00000000000112a5 .LASF4716
C:\Users\CYMR90~1\AppData\Local\Temp\ccBEkVPc.s:28516  .debug_str:000000000001d9ff .LASF4717
C:\Users\CYMR90~1\AppData\Local\Temp\ccBEkVPc.s:32386  .debug_str:000000000002cf60 .LASF4718
C:\Users\CYMR90~1\AppData\Local\Temp\ccBEkVPc.s:24721  .debug_str:000000000000e517 .LASF4719
C:\Users\CYMR90~1\AppData\Local\Temp\ccBEkVPc.s:27212  .debug_str:000000000001842f .LASF4720
C:\Users\CYMR90~1\AppData\Local\Temp\ccBEkVPc.s:21531  .debug_str:0000000000001917 .LASF4721
C:\Users\CYMR90~1\AppData\Local\Temp\ccBEkVPc.s:22157  .debug_str:0000000000004012 .LASF4722
C:\Users\CYMR90~1\AppData\Local\Temp\ccBEkVPc.s:22161  .debug_str:00000000000040e2 .LASF4723
C:\Users\CYMR90~1\AppData\Local\Temp\ccBEkVPc.s:25367  .debug_str:0000000000010d80 .LASF4724
C:\Users\CYMR90~1\AppData\Local\Temp\ccBEkVPc.s:30176  .debug_str:0000000000023e5a .LASF4725
C:\Users\CYMR90~1\AppData\Local\Temp\ccBEkVPc.s:24055  .debug_str:000000000000bab9 .LASF4726
C:\Users\CYMR90~1\AppData\Local\Temp\ccBEkVPc.s:23767  .debug_str:000000000000a788 .LASF4727
C:\Users\CYMR90~1\AppData\Local\Temp\ccBEkVPc.s:29342  .debug_str:0000000000020caa .LASF4728
C:\Users\CYMR90~1\AppData\Local\Temp\ccBEkVPc.s:30060  .debug_str:0000000000023796 .LASF4729
C:\Users\CYMR90~1\AppData\Local\Temp\ccBEkVPc.s:30592  .debug_str:0000000000025bab .LASF4730
C:\Users\CYMR90~1\AppData\Local\Temp\ccBEkVPc.s:30234  .debug_str:00000000000242d0 .LASF4731
C:\Users\CYMR90~1\AppData\Local\Temp\ccBEkVPc.s:25197  .debug_str:00000000000102f4 .LASF4732
C:\Users\CYMR90~1\AppData\Local\Temp\ccBEkVPc.s:26509  .debug_str:00000000000155e4 .LASF4733
C:\Users\CYMR90~1\AppData\Local\Temp\ccBEkVPc.s:32010  .debug_str:000000000002b5d3 .LASF4734
C:\Users\CYMR90~1\AppData\Local\Temp\ccBEkVPc.s:30280  .debug_str:00000000000245e2 .LASF4735
C:\Users\CYMR90~1\AppData\Local\Temp\ccBEkVPc.s:27506  .debug_str:0000000000019716 .LASF4736
C:\Users\CYMR90~1\AppData\Local\Temp\ccBEkVPc.s:28540  .debug_str:000000000001db4f .LASF4737
C:\Users\CYMR90~1\AppData\Local\Temp\ccBEkVPc.s:26717  .debug_str:0000000000016356 .LASF4738
C:\Users\CYMR90~1\AppData\Local\Temp\ccBEkVPc.s:23389  .debug_str:000000000000903c .LASF4739
C:\Users\CYMR90~1\AppData\Local\Temp\ccBEkVPc.s:27510  .debug_str:000000000001975e .LASF4740
C:\Users\CYMR90~1\AppData\Local\Temp\ccBEkVPc.s:27302  .debug_str:000000000001899e .LASF4741
C:\Users\CYMR90~1\AppData\Local\Temp\ccBEkVPc.s:26970  .debug_str:0000000000017550 .LASF4742
C:\Users\CYMR90~1\AppData\Local\Temp\ccBEkVPc.s:26743  .debug_str:00000000000164bb .LASF4743
C:\Users\CYMR90~1\AppData\Local\Temp\ccBEkVPc.s:22107  .debug_str:0000000000003cd0 .LASF4744
C:\Users\CYMR90~1\AppData\Local\Temp\ccBEkVPc.s:31002  .debug_str:00000000000275b9 .LASF4745
C:\Users\CYMR90~1\AppData\Local\Temp\ccBEkVPc.s:24693  .debug_str:000000000000e374 .LASF4746
C:\Users\CYMR90~1\AppData\Local\Temp\ccBEkVPc.s:22149  .debug_str:0000000000003f8f .LASF4747
C:\Users\CYMR90~1\AppData\Local\Temp\ccBEkVPc.s:26347  .debug_str:0000000000014bf1 .LASF4748
C:\Users\CYMR90~1\AppData\Local\Temp\ccBEkVPc.s:24687  .debug_str:000000000000e30f .LASF4749
C:\Users\CYMR90~1\AppData\Local\Temp\ccBEkVPc.s:21691  .debug_str:0000000000002213 .LASF4750
C:\Users\CYMR90~1\AppData\Local\Temp\ccBEkVPc.s:31848  .debug_str:000000000002ab70 .LASF4751
C:\Users\CYMR90~1\AppData\Local\Temp\ccBEkVPc.s:23977  .debug_str:000000000000b4d8 .LASF4752
C:\Users\CYMR90~1\AppData\Local\Temp\ccBEkVPc.s:21865  .debug_str:0000000000002cf7 .LASF4753
C:\Users\CYMR90~1\AppData\Local\Temp\ccBEkVPc.s:31090  .debug_str:0000000000027b2d .LASF4754
C:\Users\CYMR90~1\AppData\Local\Temp\ccBEkVPc.s:31586  .debug_str:0000000000029be9 .LASF4755
C:\Users\CYMR90~1\AppData\Local\Temp\ccBEkVPc.s:27626  .debug_str:0000000000019f13 .LASF4756
C:\Users\CYMR90~1\AppData\Local\Temp\ccBEkVPc.s:27664  .debug_str:000000000001a140 .LASF4757
C:\Users\CYMR90~1\AppData\Local\Temp\ccBEkVPc.s:30538  .debug_str:00000000000257ae .LASF4758
C:\Users\CYMR90~1\AppData\Local\Temp\ccBEkVPc.s:26447  .debug_str:00000000000152ac .LASF4759
C:\Users\CYMR90~1\AppData\Local\Temp\ccBEkVPc.s:32362  .debug_str:000000000002cd24 .LASF4760
C:\Users\CYMR90~1\AppData\Local\Temp\ccBEkVPc.s:32128  .debug_str:000000000002bdad .LASF4761
C:\Users\CYMR90~1\AppData\Local\Temp\ccBEkVPc.s:30010  .debug_str:0000000000023448 .LASF4762
C:\Users\CYMR90~1\AppData\Local\Temp\ccBEkVPc.s:28834  .debug_str:000000000001ed79 .LASF4763
C:\Users\CYMR90~1\AppData\Local\Temp\ccBEkVPc.s:25259  .debug_str:00000000000106b6 .LASF4764
C:\Users\CYMR90~1\AppData\Local\Temp\ccBEkVPc.s:32254  .debug_str:000000000002c679 .LASF4765
C:\Users\CYMR90~1\AppData\Local\Temp\ccBEkVPc.s:30410  .debug_str:0000000000024e32 .LASF4766
C:\Users\CYMR90~1\AppData\Local\Temp\ccBEkVPc.s:30318  .debug_str:00000000000247e6 .LASF4767
C:\Users\CYMR90~1\AppData\Local\Temp\ccBEkVPc.s:22891  .debug_str:0000000000006ecd .LASF4768
C:\Users\CYMR90~1\AppData\Local\Temp\ccBEkVPc.s:26769  .debug_str:00000000000166a3 .LASF4769
C:\Users\CYMR90~1\AppData\Local\Temp\ccBEkVPc.s:31068  .debug_str:0000000000027985 .LASF4770
C:\Users\CYMR90~1\AppData\Local\Temp\ccBEkVPc.s:28324  .debug_str:000000000001cc8e .LASF4771
C:\Users\CYMR90~1\AppData\Local\Temp\ccBEkVPc.s:30866  .debug_str:0000000000026c76 .LASF4772
C:\Users\CYMR90~1\AppData\Local\Temp\ccBEkVPc.s:27078  .debug_str:0000000000017c3a .LASF4773
C:\Users\CYMR90~1\AppData\Local\Temp\ccBEkVPc.s:21853  .debug_str:0000000000002c3a .LASF4774
C:\Users\CYMR90~1\AppData\Local\Temp\ccBEkVPc.s:23181  .debug_str:0000000000008336 .LASF4775
C:\Users\CYMR90~1\AppData\Local\Temp\ccBEkVPc.s:28310  .debug_str:000000000001cbab .LASF4776
C:\Users\CYMR90~1\AppData\Local\Temp\ccBEkVPc.s:23815  .debug_str:000000000000aa9c .LASF4777
C:\Users\CYMR90~1\AppData\Local\Temp\ccBEkVPc.s:22763  .debug_str:0000000000006685 .LASF4778
C:\Users\CYMR90~1\AppData\Local\Temp\ccBEkVPc.s:26763  .debug_str:0000000000016656 .LASF4779
C:\Users\CYMR90~1\AppData\Local\Temp\ccBEkVPc.s:27926  .debug_str:000000000001b3d2 .LASF4780
C:\Users\CYMR90~1\AppData\Local\Temp\ccBEkVPc.s:22141  .debug_str:0000000000003f29 .LASF4781
C:\Users\CYMR90~1\AppData\Local\Temp\ccBEkVPc.s:30612  .debug_str:0000000000025ce5 .LASF4782
C:\Users\CYMR90~1\AppData\Local\Temp\ccBEkVPc.s:24773  .debug_str:000000000000e887 .LASF4783
C:\Users\CYMR90~1\AppData\Local\Temp\ccBEkVPc.s:28398  .debug_str:000000000001d263 .LASF4784
C:\Users\CYMR90~1\AppData\Local\Temp\ccBEkVPc.s:26249  .debug_str:00000000000145b8 .LASF4785
C:\Users\CYMR90~1\AppData\Local\Temp\ccBEkVPc.s:23915  .debug_str:000000000000b19c .LASF4786
C:\Users\CYMR90~1\AppData\Local\Temp\ccBEkVPc.s:29360  .debug_str:0000000000020dc0 .LASF4787
C:\Users\CYMR90~1\AppData\Local\Temp\ccBEkVPc.s:30726  .debug_str:00000000000263be .LASF4788
C:\Users\CYMR90~1\AppData\Local\Temp\ccBEkVPc.s:29050  .debug_str:000000000001fa85 .LASF4789
C:\Users\CYMR90~1\AppData\Local\Temp\ccBEkVPc.s:29642  .debug_str:0000000000021f14 .LASF4790
C:\Users\CYMR90~1\AppData\Local\Temp\ccBEkVPc.s:27896  .debug_str:000000000001b1a6 .LASF4791
C:\Users\CYMR90~1\AppData\Local\Temp\ccBEkVPc.s:26948  .debug_str:000000000001740e .LASF4792
C:\Users\CYMR90~1\AppData\Local\Temp\ccBEkVPc.s:30674  .debug_str:00000000000260c5 .LASF4793
C:\Users\CYMR90~1\AppData\Local\Temp\ccBEkVPc.s:30160  .debug_str:0000000000023d71 .LASF4794
C:\Users\CYMR90~1\AppData\Local\Temp\ccBEkVPc.s:23357  .debug_str:0000000000008dd5 .LASF4795
C:\Users\CYMR90~1\AppData\Local\Temp\ccBEkVPc.s:32416  .debug_str:000000000002d0f9 .LASF4796
C:\Users\CYMR90~1\AppData\Local\Temp\ccBEkVPc.s:22757  .debug_str:0000000000006626 .LASF4797
C:\Users\CYMR90~1\AppData\Local\Temp\ccBEkVPc.s:23037  .debug_str:000000000000788f .LASF4798
C:\Users\CYMR90~1\AppData\Local\Temp\ccBEkVPc.s:29884  .debug_str:0000000000022d79 .LASF4799
C:\Users\CYMR90~1\AppData\Local\Temp\ccBEkVPc.s:29834  .debug_str:0000000000022a2c .LASF4800
C:\Users\CYMR90~1\AppData\Local\Temp\ccBEkVPc.s:29142  .debug_str:0000000000020043 .LASF4801
C:\Users\CYMR90~1\AppData\Local\Temp\ccBEkVPc.s:21299  .debug_str:0000000000000a20 .LASF4802
C:\Users\CYMR90~1\AppData\Local\Temp\ccBEkVPc.s:26033  .debug_str:00000000000138cd .LASF4803
C:\Users\CYMR90~1\AppData\Local\Temp\ccBEkVPc.s:27162  .debug_str:0000000000018108 .LASF4804
C:\Users\CYMR90~1\AppData\Local\Temp\ccBEkVPc.s:24759  .debug_str:000000000000e7a7 .LASF4805
C:\Users\CYMR90~1\AppData\Local\Temp\ccBEkVPc.s:28370  .debug_str:000000000001d04a .LASF4806
C:\Users\CYMR90~1\AppData\Local\Temp\ccBEkVPc.s:26383  .debug_str:0000000000014e8e .LASF4807
C:\Users\CYMR90~1\AppData\Local\Temp\ccBEkVPc.s:21675  .debug_str:0000000000002113 .LASF4808
C:\Users\CYMR90~1\AppData\Local\Temp\ccBEkVPc.s:23135  .debug_str:0000000000007f9a .LASF4809
C:\Users\CYMR90~1\AppData\Local\Temp\ccBEkVPc.s:24185  .debug_str:000000000000c301 .LASF4810
C:\Users\CYMR90~1\AppData\Local\Temp\ccBEkVPc.s:26533  .debug_str:0000000000015750 .LASF4811
C:\Users\CYMR90~1\AppData\Local\Temp\ccBEkVPc.s:28062  .debug_str:000000000001bbb0 .LASF4812
C:\Users\CYMR90~1\AppData\Local\Temp\ccBEkVPc.s:22227  .debug_str:00000000000044f5 .LASF4813
C:\Users\CYMR90~1\AppData\Local\Temp\ccBEkVPc.s:23259  .debug_str:0000000000008821 .LASF4814
C:\Users\CYMR90~1\AppData\Local\Temp\ccBEkVPc.s:28192  .debug_str:000000000001c3f2 .LASF4815
C:\Users\CYMR90~1\AppData\Local\Temp\ccBEkVPc.s:28642  .debug_str:000000000001e205 .LASF4816
C:\Users\CYMR90~1\AppData\Local\Temp\ccBEkVPc.s:30252  .debug_str:000000000002441b .LASF4817
C:\Users\CYMR90~1\AppData\Local\Temp\ccBEkVPc.s:31756  .debug_str:000000000002a61d .LASF4818
C:\Users\CYMR90~1\AppData\Local\Temp\ccBEkVPc.s:25105  .debug_str:000000000000fd00 .LASF4819
C:\Users\CYMR90~1\AppData\Local\Temp\ccBEkVPc.s:29666  .debug_str:000000000002207c .LASF4820
C:\Users\CYMR90~1\AppData\Local\Temp\ccBEkVPc.s:31196  .debug_str:0000000000028308 .LASF4821
C:\Users\CYMR90~1\AppData\Local\Temp\ccBEkVPc.s:30048  .debug_str:00000000000236bb .LASF4822
C:\Users\CYMR90~1\AppData\Local\Temp\ccBEkVPc.s:26405  .debug_str:0000000000015002 .LASF4823
C:\Users\CYMR90~1\AppData\Local\Temp\ccBEkVPc.s:31956  .debug_str:000000000002b1e5 .LASF4824
C:\Users\CYMR90~1\AppData\Local\Temp\ccBEkVPc.s:23949  .debug_str:000000000000b374 .LASF4825
C:\Users\CYMR90~1\AppData\Local\Temp\ccBEkVPc.s:31458  .debug_str:0000000000029440 .LASF4826
C:\Users\CYMR90~1\AppData\Local\Temp\ccBEkVPc.s:26485  .debug_str:00000000000154ae .LASF4827
C:\Users\CYMR90~1\AppData\Local\Temp\ccBEkVPc.s:29550  .debug_str:000000000002196f .LASF4828
C:\Users\CYMR90~1\AppData\Local\Temp\ccBEkVPc.s:31858  .debug_str:000000000002ac0e .LASF4829
C:\Users\CYMR90~1\AppData\Local\Temp\ccBEkVPc.s:21271  .debug_str:000000000000085c .LASF4830
C:\Users\CYMR90~1\AppData\Local\Temp\ccBEkVPc.s:21219  .debug_str:000000000000053a .LASF4831
C:\Users\CYMR90~1\AppData\Local\Temp\ccBEkVPc.s:28848  .debug_str:000000000001ee53 .LASF4832
C:\Users\CYMR90~1\AppData\Local\Temp\ccBEkVPc.s:23687  .debug_str:000000000000a2c8 .LASF4833
C:\Users\CYMR90~1\AppData\Local\Temp\ccBEkVPc.s:22493  .debug_str:000000000000564d .LASF4834
C:\Users\CYMR90~1\AppData\Local\Temp\ccBEkVPc.s:25033  .debug_str:000000000000f8c5 .LASF4835
C:\Users\CYMR90~1\AppData\Local\Temp\ccBEkVPc.s:27296  .debug_str:000000000001892c .LASF4836
C:\Users\CYMR90~1\AppData\Local\Temp\ccBEkVPc.s:21767  .debug_str:00000000000026bd .LASF4837
C:\Users\CYMR90~1\AppData\Local\Temp\ccBEkVPc.s:27544  .debug_str:0000000000019a3d .LASF4838
C:\Users\CYMR90~1\AppData\Local\Temp\ccBEkVPc.s:28904  .debug_str:000000000001f1c4 .LASF4839
C:\Users\CYMR90~1\AppData\Local\Temp\ccBEkVPc.s:21307  .debug_str:0000000000000ae6 .LASF4840
C:\Users\CYMR90~1\AppData\Local\Temp\ccBEkVPc.s:22739  .debug_str:0000000000006533 .LASF4841
C:\Users\CYMR90~1\AppData\Local\Temp\ccBEkVPc.s:25791  .debug_str:000000000001289c .LASF4842
C:\Users\CYMR90~1\AppData\Local\Temp\ccBEkVPc.s:28174  .debug_str:000000000001c30a .LASF4843
C:\Users\CYMR90~1\AppData\Local\Temp\ccBEkVPc.s:28386  .debug_str:000000000001d1b9 .LASF4844
C:\Users\CYMR90~1\AppData\Local\Temp\ccBEkVPc.s:31906  .debug_str:000000000002af04 .LASF4845
C:\Users\CYMR90~1\AppData\Local\Temp\ccBEkVPc.s:26069  .debug_str:0000000000013af6 .LASF4846
C:\Users\CYMR90~1\AppData\Local\Temp\ccBEkVPc.s:27130  .debug_str:0000000000017f65 .LASF4847
C:\Users\CYMR90~1\AppData\Local\Temp\ccBEkVPc.s:26135  .debug_str:0000000000013ee2 .LASF4848
C:\Users\CYMR90~1\AppData\Local\Temp\ccBEkVPc.s:28794  .debug_str:000000000001eb5c .LASF4849
C:\Users\CYMR90~1\AppData\Local\Temp\ccBEkVPc.s:29344  .debug_str:0000000000020cc0 .LASF4850
C:\Users\CYMR90~1\AppData\Local\Temp\ccBEkVPc.s:29350  .debug_str:0000000000020d1e .LASF4851
C:\Users\CYMR90~1\AppData\Local\Temp\ccBEkVPc.s:21887  .debug_str:0000000000002e36 .LASF4852
C:\Users\CYMR90~1\AppData\Local\Temp\ccBEkVPc.s:25205  .debug_str:0000000000010369 .LASF4853
C:\Users\CYMR90~1\AppData\Local\Temp\ccBEkVPc.s:31654  .debug_str:0000000000029fe5 .LASF4854
C:\Users\CYMR90~1\AppData\Local\Temp\ccBEkVPc.s:23291  .debug_str:0000000000008a0a .LASF4855
C:\Users\CYMR90~1\AppData\Local\Temp\ccBEkVPc.s:25071  .debug_str:000000000000fae1 .LASF4856
C:\Users\CYMR90~1\AppData\Local\Temp\ccBEkVPc.s:21827  .debug_str:0000000000002a97 .LASF4857
C:\Users\CYMR90~1\AppData\Local\Temp\ccBEkVPc.s:25095  .debug_str:000000000000fc75 .LASF4858
C:\Users\CYMR90~1\AppData\Local\Temp\ccBEkVPc.s:26924  .debug_str:00000000000172b5 .LASF4859
C:\Users\CYMR90~1\AppData\Local\Temp\ccBEkVPc.s:24545  .debug_str:000000000000daa2 .LASF4860
C:\Users\CYMR90~1\AppData\Local\Temp\ccBEkVPc.s:27006  .debug_str:0000000000017799 .LASF4861
C:\Users\CYMR90~1\AppData\Local\Temp\ccBEkVPc.s:26559  .debug_str:00000000000158f8 .LASF4862
C:\Users\CYMR90~1\AppData\Local\Temp\ccBEkVPc.s:26399  .debug_str:0000000000014fa4 .LASF4863
C:\Users\CYMR90~1\AppData\Local\Temp\ccBEkVPc.s:23315  .debug_str:0000000000008b83 .LASF4864
C:\Users\CYMR90~1\AppData\Local\Temp\ccBEkVPc.s:22703  .debug_str:00000000000062f9 .LASF4865
C:\Users\CYMR90~1\AppData\Local\Temp\ccBEkVPc.s:31904  .debug_str:000000000002aedf .LASF4866
C:\Users\CYMR90~1\AppData\Local\Temp\ccBEkVPc.s:30210  .debug_str:0000000000024102 .LASF4867
C:\Users\CYMR90~1\AppData\Local\Temp\ccBEkVPc.s:31890  .debug_str:000000000002ae14 .LASF4868
C:\Users\CYMR90~1\AppData\Local\Temp\ccBEkVPc.s:27194  .debug_str:0000000000018312 .LASF4869
C:\Users\CYMR90~1\AppData\Local\Temp\ccBEkVPc.s:31384  .debug_str:0000000000028f23 .LASF4870
C:\Users\CYMR90~1\AppData\Local\Temp\ccBEkVPc.s:31066  .debug_str:0000000000027963 .LASF4871
C:\Users\CYMR90~1\AppData\Local\Temp\ccBEkVPc.s:23545  .debug_str:00000000000099fd .LASF4872
C:\Users\CYMR90~1\AppData\Local\Temp\ccBEkVPc.s:30814  .debug_str:000000000002696a .LASF4873
C:\Users\CYMR90~1\AppData\Local\Temp\ccBEkVPc.s:27178  .debug_str:0000000000018227 .LASF4874
C:\Users\CYMR90~1\AppData\Local\Temp\ccBEkVPc.s:27086  .debug_str:0000000000017c9b .LASF4875
C:\Users\CYMR90~1\AppData\Local\Temp\ccBEkVPc.s:30940  .debug_str:000000000002710e .LASF4876
C:\Users\CYMR90~1\AppData\Local\Temp\ccBEkVPc.s:24953  .debug_str:000000000000f34a .LASF4877
C:\Users\CYMR90~1\AppData\Local\Temp\ccBEkVPc.s:28346  .debug_str:000000000001ce24 .LASF4878
C:\Users\CYMR90~1\AppData\Local\Temp\ccBEkVPc.s:27370  .debug_str:0000000000018e86 .LASF4879
C:\Users\CYMR90~1\AppData\Local\Temp\ccBEkVPc.s:24263  .debug_str:000000000000c7f6 .LASF4880
C:\Users\CYMR90~1\AppData\Local\Temp\ccBEkVPc.s:30468  .debug_str:00000000000252b4 .LASF4881
C:\Users\CYMR90~1\AppData\Local\Temp\ccBEkVPc.s:23679  .debug_str:000000000000a252 .LASF4882
C:\Users\CYMR90~1\AppData\Local\Temp\ccBEkVPc.s:30288  .debug_str:0000000000024647 .LASF4883
C:\Users\CYMR90~1\AppData\Local\Temp\ccBEkVPc.s:28118  .debug_str:000000000001bf75 .LASF4884
C:\Users\CYMR90~1\AppData\Local\Temp\ccBEkVPc.s:22327  .debug_str:0000000000004c1a .LASF4885
C:\Users\CYMR90~1\AppData\Local\Temp\ccBEkVPc.s:25275  .debug_str:00000000000107b1 .LASF4886
C:\Users\CYMR90~1\AppData\Local\Temp\ccBEkVPc.s:21617  .debug_str:0000000000001e16 .LASF4887
C:\Users\CYMR90~1\AppData\Local\Temp\ccBEkVPc.s:26876  .debug_str:0000000000016fed .LASF4888
C:\Users\CYMR90~1\AppData\Local\Temp\ccBEkVPc.s:28194  .debug_str:000000000001c414 .LASF4889
C:\Users\CYMR90~1\AppData\Local\Temp\ccBEkVPc.s:26293  .debug_str:00000000000148ca .LASF4890
C:\Users\CYMR90~1\AppData\Local\Temp\ccBEkVPc.s:22219  .debug_str:0000000000004474 .LASF4891
C:\Users\CYMR90~1\AppData\Local\Temp\ccBEkVPc.s:27824  .debug_str:000000000001acec .LASF4892
C:\Users\CYMR90~1\AppData\Local\Temp\ccBEkVPc.s:30562  .debug_str:00000000000259a2 .LASF4893
C:\Users\CYMR90~1\AppData\Local\Temp\ccBEkVPc.s:25009  .debug_str:000000000000f6ae .LASF4894
C:\Users\CYMR90~1\AppData\Local\Temp\ccBEkVPc.s:24099  .debug_str:000000000000bd90 .LASF4895
C:\Users\CYMR90~1\AppData\Local\Temp\ccBEkVPc.s:21139  .debug_str:000000000000008c .LASF4896
C:\Users\CYMR90~1\AppData\Local\Temp\ccBEkVPc.s:23113  .debug_str:0000000000007e29 .LASF4897
C:\Users\CYMR90~1\AppData\Local\Temp\ccBEkVPc.s:22759  .debug_str:0000000000006649 .LASF4898
C:\Users\CYMR90~1\AppData\Local\Temp\ccBEkVPc.s:22975  .debug_str:00000000000074a7 .LASF4899
C:\Users\CYMR90~1\AppData\Local\Temp\ccBEkVPc.s:26539  .debug_str:00000000000157a1 .LASF4900
C:\Users\CYMR90~1\AppData\Local\Temp\ccBEkVPc.s:24133  .debug_str:000000000000c007 .LASF4901
C:\Users\CYMR90~1\AppData\Local\Temp\ccBEkVPc.s:26387  .debug_str:0000000000014ed5 .LASF4902
C:\Users\CYMR90~1\AppData\Local\Temp\ccBEkVPc.s:24017  .debug_str:000000000000b812 .LASF4903
C:\Users\CYMR90~1\AppData\Local\Temp\ccBEkVPc.s:26587  .debug_str:0000000000015aa7 .LASF4904
C:\Users\CYMR90~1\AppData\Local\Temp\ccBEkVPc.s:25477  .debug_str:0000000000011365 .LASF4905
C:\Users\CYMR90~1\AppData\Local\Temp\ccBEkVPc.s:25401  .debug_str:0000000000010f44 .LASF4906
C:\Users\CYMR90~1\AppData\Local\Temp\ccBEkVPc.s:22377  .debug_str:0000000000004f2e .LASF4907
C:\Users\CYMR90~1\AppData\Local\Temp\ccBEkVPc.s:26459  .debug_str:000000000001536e .LASF4908
C:\Users\CYMR90~1\AppData\Local\Temp\ccBEkVPc.s:25383  .debug_str:0000000000010e52 .LASF4909
C:\Users\CYMR90~1\AppData\Local\Temp\ccBEkVPc.s:31256  .debug_str:0000000000028735 .LASF4910
C:\Users\CYMR90~1\AppData\Local\Temp\ccBEkVPc.s:23023  .debug_str:0000000000007799 .LASF4911
C:\Users\CYMR90~1\AppData\Local\Temp\ccBEkVPc.s:32152  .debug_str:000000000002bf2a .LASF4912
C:\Users\CYMR90~1\AppData\Local\Temp\ccBEkVPc.s:32168  .debug_str:000000000002c0ba .LASF4913
C:\Users\CYMR90~1\AppData\Local\Temp\ccBEkVPc.s:25943  .debug_str:00000000000132cd .LASF4914
C:\Users\CYMR90~1\AppData\Local\Temp\ccBEkVPc.s:21333  .debug_str:0000000000000c6f .LASF4915
C:\Users\CYMR90~1\AppData\Local\Temp\ccBEkVPc.s:24057  .debug_str:000000000000bad1 .LASF4916
C:\Users\CYMR90~1\AppData\Local\Temp\ccBEkVPc.s:28830  .debug_str:000000000001ed3d .LASF4917
C:\Users\CYMR90~1\AppData\Local\Temp\ccBEkVPc.s:22747  .debug_str:000000000000659e .LASF4918
C:\Users\CYMR90~1\AppData\Local\Temp\ccBEkVPc.s:23217  .debug_str:00000000000085a8 .LASF4919
C:\Users\CYMR90~1\AppData\Local\Temp\ccBEkVPc.s:28574  .debug_str:000000000001dd3a .LASF4920
C:\Users\CYMR90~1\AppData\Local\Temp\ccBEkVPc.s:25319  .debug_str:0000000000010a2d .LASF4921
C:\Users\CYMR90~1\AppData\Local\Temp\ccBEkVPc.s:29654  .debug_str:0000000000021fe1 .LASF4922
C:\Users\CYMR90~1\AppData\Local\Temp\ccBEkVPc.s:28708  .debug_str:000000000001e5f8 .LASF4923
C:\Users\CYMR90~1\AppData\Local\Temp\ccBEkVPc.s:23911  .debug_str:000000000000b15a .LASF4924
C:\Users\CYMR90~1\AppData\Local\Temp\ccBEkVPc.s:27346  .debug_str:0000000000018d19 .LASF4925
C:\Users\CYMR90~1\AppData\Local\Temp\ccBEkVPc.s:26641  .debug_str:0000000000015e41 .LASF4926
C:\Users\CYMR90~1\AppData\Local\Temp\ccBEkVPc.s:22659  .debug_str:000000000000604d .LASF4927
C:\Users\CYMR90~1\AppData\Local\Temp\ccBEkVPc.s:27818  .debug_str:000000000001acaa .LASF4928
C:\Users\CYMR90~1\AppData\Local\Temp\ccBEkVPc.s:26471  .debug_str:00000000000153f2 .LASF4929
C:\Users\CYMR90~1\AppData\Local\Temp\ccBEkVPc.s:29146  .debug_str:0000000000020091 .LASF4930
C:\Users\CYMR90~1\AppData\Local\Temp\ccBEkVPc.s:31286  .debug_str:0000000000028920 .LASF4931
C:\Users\CYMR90~1\AppData\Local\Temp\ccBEkVPc.s:26113  .debug_str:0000000000013d9e .LASF4932
C:\Users\CYMR90~1\AppData\Local\Temp\ccBEkVPc.s:26045  .debug_str:0000000000013987 .LASF4933
C:\Users\CYMR90~1\AppData\Local\Temp\ccBEkVPc.s:22783  .debug_str:0000000000006812 .LASF4934
C:\Users\CYMR90~1\AppData\Local\Temp\ccBEkVPc.s:28760  .debug_str:000000000001e929 .LASF4935
C:\Users\CYMR90~1\AppData\Local\Temp\ccBEkVPc.s:28214  .debug_str:000000000001c531 .LASF4936
C:\Users\CYMR90~1\AppData\Local\Temp\ccBEkVPc.s:30518  .debug_str:0000000000025653 .LASF4937
C:\Users\CYMR90~1\AppData\Local\Temp\ccBEkVPc.s:22803  .debug_str:000000000000693f .LASF4938
C:\Users\CYMR90~1\AppData\Local\Temp\ccBEkVPc.s:21583  .debug_str:0000000000001c09 .LASF4939
C:\Users\CYMR90~1\AppData\Local\Temp\ccBEkVPc.s:23409  .debug_str:000000000000914a .LASF4940
C:\Users\CYMR90~1\AppData\Local\Temp\ccBEkVPc.s:23571  .debug_str:0000000000009bcd .LASF4941
C:\Users\CYMR90~1\AppData\Local\Temp\ccBEkVPc.s:21595  .debug_str:0000000000001caa .LASF4942
C:\Users\CYMR90~1\AppData\Local\Temp\ccBEkVPc.s:32192  .debug_str:000000000002c239 .LASF4943
C:\Users\CYMR90~1\AppData\Local\Temp\ccBEkVPc.s:26339  .debug_str:0000000000014b79 .LASF4944
C:\Users\CYMR90~1\AppData\Local\Temp\ccBEkVPc.s:26747  .debug_str:00000000000164fe .LASF4945
C:\Users\CYMR90~1\AppData\Local\Temp\ccBEkVPc.s:25835  .debug_str:0000000000012b9e .LASF4946
C:\Users\CYMR90~1\AppData\Local\Temp\ccBEkVPc.s:23899  .debug_str:000000000000b0a5 .LASF4947
C:\Users\CYMR90~1\AppData\Local\Temp\ccBEkVPc.s:26403  .debug_str:0000000000014fe9 .LASF4948
C:\Users\CYMR90~1\AppData\Local\Temp\ccBEkVPc.s:22943  .debug_str:0000000000007250 .LASF4949
C:\Users\CYMR90~1\AppData\Local\Temp\ccBEkVPc.s:27174  .debug_str:00000000000181ea .LASF4950
C:\Users\CYMR90~1\AppData\Local\Temp\ccBEkVPc.s:25053  .debug_str:000000000000f9d9 .LASF4951
C:\Users\CYMR90~1\AppData\Local\Temp\ccBEkVPc.s:26569  .debug_str:0000000000015994 .LASF4952
C:\Users\CYMR90~1\AppData\Local\Temp\ccBEkVPc.s:23087  .debug_str:0000000000007be8 .LASF4953
C:\Users\CYMR90~1\AppData\Local\Temp\ccBEkVPc.s:27848  .debug_str:000000000001ae58 .LASF4954
C:\Users\CYMR90~1\AppData\Local\Temp\ccBEkVPc.s:32432  .debug_str:000000000002d1f7 .LASF4955
C:\Users\CYMR90~1\AppData\Local\Temp\ccBEkVPc.s:22853  .debug_str:0000000000006c43 .LASF4956
C:\Users\CYMR90~1\AppData\Local\Temp\ccBEkVPc.s:25701  .debug_str:0000000000012267 .LASF4957
C:\Users\CYMR90~1\AppData\Local\Temp\ccBEkVPc.s:22997  .debug_str:00000000000075f3 .LASF4958
C:\Users\CYMR90~1\AppData\Local\Temp\ccBEkVPc.s:30744  .debug_str:00000000000264ff .LASF4959
C:\Users\CYMR90~1\AppData\Local\Temp\ccBEkVPc.s:23623  .debug_str:0000000000009ee9 .LASF4960
C:\Users\CYMR90~1\AppData\Local\Temp\ccBEkVPc.s:23569  .debug_str:0000000000009bac .LASF4961
C:\Users\CYMR90~1\AppData\Local\Temp\ccBEkVPc.s:24463  .debug_str:000000000000d5c3 .LASF4962
C:\Users\CYMR90~1\AppData\Local\Temp\ccBEkVPc.s:21673  .debug_str:00000000000020f6 .LASF4963
C:\Users\CYMR90~1\AppData\Local\Temp\ccBEkVPc.s:31124  .debug_str:0000000000027d97 .LASF4964
C:\Users\CYMR90~1\AppData\Local\Temp\ccBEkVPc.s:29262  .debug_str:00000000000207cd .LASF4965
C:\Users\CYMR90~1\AppData\Local\Temp\ccBEkVPc.s:30950  .debug_str:00000000000271ec .LASF4966
C:\Users\CYMR90~1\AppData\Local\Temp\ccBEkVPc.s:21539  .debug_str:0000000000001977 .LASF4967
C:\Users\CYMR90~1\AppData\Local\Temp\ccBEkVPc.s:25079  .debug_str:000000000000fb68 .LASF4968
C:\Users\CYMR90~1\AppData\Local\Temp\ccBEkVPc.s:23453  .debug_str:00000000000093db .LASF4969
C:\Users\CYMR90~1\AppData\Local\Temp\ccBEkVPc.s:30404  .debug_str:0000000000024de3 .LASF4970
C:\Users\CYMR90~1\AppData\Local\Temp\ccBEkVPc.s:31872  .debug_str:000000000002acc5 .LASF4971
C:\Users\CYMR90~1\AppData\Local\Temp\ccBEkVPc.s:26896  .debug_str:0000000000017130 .LASF4972
C:\Users\CYMR90~1\AppData\Local\Temp\ccBEkVPc.s:27010  .debug_str:00000000000177e0 .LASF4973
C:\Users\CYMR90~1\AppData\Local\Temp\ccBEkVPc.s:28566  .debug_str:000000000001dcd5 .LASF4974
C:\Users\CYMR90~1\AppData\Local\Temp\ccBEkVPc.s:23697  .debug_str:000000000000a35e .LASF4975
C:\Users\CYMR90~1\AppData\Local\Temp\ccBEkVPc.s:29016  .debug_str:000000000001f87d .LASF4976
C:\Users\CYMR90~1\AppData\Local\Temp\ccBEkVPc.s:30174  .debug_str:0000000000023e3d .LASF4977
C:\Users\CYMR90~1\AppData\Local\Temp\ccBEkVPc.s:25827  .debug_str:0000000000012b31 .LASF4978
C:\Users\CYMR90~1\AppData\Local\Temp\ccBEkVPc.s:22017  .debug_str:00000000000036e3 .LASF4979
C:\Users\CYMR90~1\AppData\Local\Temp\ccBEkVPc.s:22199  .debug_str:000000000000431e .LASF4980
C:\Users\CYMR90~1\AppData\Local\Temp\ccBEkVPc.s:31102  .debug_str:0000000000027c04 .LASF4981
C:\Users\CYMR90~1\AppData\Local\Temp\ccBEkVPc.s:25493  .debug_str:0000000000011458 .LASF4982
C:\Users\CYMR90~1\AppData\Local\Temp\ccBEkVPc.s:24069  .debug_str:000000000000bb71 .LASF4983
C:\Users\CYMR90~1\AppData\Local\Temp\ccBEkVPc.s:30166  .debug_str:0000000000023dc0 .LASF4984
C:\Users\CYMR90~1\AppData\Local\Temp\ccBEkVPc.s:30266  .debug_str:000000000002450a .LASF4985
C:\Users\CYMR90~1\AppData\Local\Temp\ccBEkVPc.s:21337  .debug_str:0000000000000cab .LASF4986
C:\Users\CYMR90~1\AppData\Local\Temp\ccBEkVPc.s:22041  .debug_str:0000000000003884 .LASF4987
C:\Users\CYMR90~1\AppData\Local\Temp\ccBEkVPc.s:26878  .debug_str:0000000000017017 .LASF4988
C:\Users\CYMR90~1\AppData\Local\Temp\ccBEkVPc.s:21979  .debug_str:000000000000343b .LASF4989
C:\Users\CYMR90~1\AppData\Local\Temp\ccBEkVPc.s:21655  .debug_str:0000000000002017 .LASF4990
C:\Users\CYMR90~1\AppData\Local\Temp\ccBEkVPc.s:22711  .debug_str:000000000000637c .LASF4991
C:\Users\CYMR90~1\AppData\Local\Temp\ccBEkVPc.s:30750  .debug_str:000000000002655a .LASF4992
C:\Users\CYMR90~1\AppData\Local\Temp\ccBEkVPc.s:31658  .debug_str:000000000002a01e .LASF4993
C:\Users\CYMR90~1\AppData\Local\Temp\ccBEkVPc.s:26101  .debug_str:0000000000013d01 .LASF4994
C:\Users\CYMR90~1\AppData\Local\Temp\ccBEkVPc.s:27758  .debug_str:000000000001a900 .LASF4995
C:\Users\CYMR90~1\AppData\Local\Temp\ccBEkVPc.s:32126  .debug_str:000000000002bd91 .LASF4996
C:\Users\CYMR90~1\AppData\Local\Temp\ccBEkVPc.s:23885  .debug_str:000000000000af23 .LASF4997
C:\Users\CYMR90~1\AppData\Local\Temp\ccBEkVPc.s:22797  .debug_str:00000000000068e7 .LASF4998
C:\Users\CYMR90~1\AppData\Local\Temp\ccBEkVPc.s:31054  .debug_str:00000000000278a6 .LASF4999
C:\Users\CYMR90~1\AppData\Local\Temp\ccBEkVPc.s:27784  .debug_str:000000000001aa89 .LASF5000
C:\Users\CYMR90~1\AppData\Local\Temp\ccBEkVPc.s:28920  .debug_str:000000000001f2cd .LASF5001
C:\Users\CYMR90~1\AppData\Local\Temp\ccBEkVPc.s:28054  .debug_str:000000000001bb4b .LASF5002
C:\Users\CYMR90~1\AppData\Local\Temp\ccBEkVPc.s:22491  .debug_str:0000000000005634 .LASF5003
C:\Users\CYMR90~1\AppData\Local\Temp\ccBEkVPc.s:29942  .debug_str:00000000000230b5 .LASF5004
C:\Users\CYMR90~1\AppData\Local\Temp\ccBEkVPc.s:29962  .debug_str:000000000002319f .LASF5005
C:\Users\CYMR90~1\AppData\Local\Temp\ccBEkVPc.s:30436  .debug_str:0000000000024fa6 .LASF5006
C:\Users\CYMR90~1\AppData\Local\Temp\ccBEkVPc.s:31360  .debug_str:0000000000028d80 .LASF5007
C:\Users\CYMR90~1\AppData\Local\Temp\ccBEkVPc.s:30000  .debug_str:00000000000233c4 .LASF5008
C:\Users\CYMR90~1\AppData\Local\Temp\ccBEkVPc.s:31484  .debug_str:00000000000295f5 .LASF5009
C:\Users\CYMR90~1\AppData\Local\Temp\ccBEkVPc.s:25903  .debug_str:0000000000013001 .LASF5010
C:\Users\CYMR90~1\AppData\Local\Temp\ccBEkVPc.s:25741  .debug_str:0000000000012551 .LASF5011
C:\Users\CYMR90~1\AppData\Local\Temp\ccBEkVPc.s:29536  .debug_str:0000000000021892 .LASF5012
C:\Users\CYMR90~1\AppData\Local\Temp\ccBEkVPc.s:32404  .debug_str:000000000002d02a .LASF5013
C:\Users\CYMR90~1\AppData\Local\Temp\ccBEkVPc.s:25907  .debug_str:0000000000013045 .LASF5014
C:\Users\CYMR90~1\AppData\Local\Temp\ccBEkVPc.s:27090  .debug_str:0000000000017cd8 .LASF5015
C:\Users\CYMR90~1\AppData\Local\Temp\ccBEkVPc.s:22371  .debug_str:0000000000004ecf .LASF5016
C:\Users\CYMR90~1\AppData\Local\Temp\ccBEkVPc.s:29520  .debug_str:000000000002179b .LASF5017
C:\Users\CYMR90~1\AppData\Local\Temp\ccBEkVPc.s:26817  .debug_str:00000000000169fc .LASF5018
C:\Users\CYMR90~1\AppData\Local\Temp\ccBEkVPc.s:21885  .debug_str:0000000000002e1d .LASF5019
C:\Users\CYMR90~1\AppData\Local\Temp\ccBEkVPc.s:28824  .debug_str:000000000001ecef .LASF5020
C:\Users\CYMR90~1\AppData\Local\Temp\ccBEkVPc.s:29750  .debug_str:0000000000022541 .LASF5021
C:\Users\CYMR90~1\AppData\Local\Temp\ccBEkVPc.s:22665  .debug_str:00000000000060bf .LASF5022
C:\Users\CYMR90~1\AppData\Local\Temp\ccBEkVPc.s:30204  .debug_str:0000000000023fdb .LASF5023
C:\Users\CYMR90~1\AppData\Local\Temp\ccBEkVPc.s:28452  .debug_str:000000000001d59e .LASF5024
C:\Users\CYMR90~1\AppData\Local\Temp\ccBEkVPc.s:28432  .debug_str:000000000001d46b .LASF5025
C:\Users\CYMR90~1\AppData\Local\Temp\ccBEkVPc.s:29542  .debug_str:0000000000021910 .LASF5026
C:\Users\CYMR90~1\AppData\Local\Temp\ccBEkVPc.s:25785  .debug_str:000000000001282e .LASF5027
C:\Users\CYMR90~1\AppData\Local\Temp\ccBEkVPc.s:27190  .debug_str:00000000000182d6 .LASF5028
C:\Users\CYMR90~1\AppData\Local\Temp\ccBEkVPc.s:22969  .debug_str:000000000000742b .LASF5029
C:\Users\CYMR90~1\AppData\Local\Temp\ccBEkVPc.s:27764  .debug_str:000000000001a94a .LASF5030
C:\Users\CYMR90~1\AppData\Local\Temp\ccBEkVPc.s:25557  .debug_str:0000000000011920 .LASF5031
C:\Users\CYMR90~1\AppData\Local\Temp\ccBEkVPc.s:24243  .debug_str:000000000000c665 .LASF5032
C:\Users\CYMR90~1\AppData\Local\Temp\ccBEkVPc.s:23585  .debug_str:0000000000009cc8 .LASF5033
C:\Users\CYMR90~1\AppData\Local\Temp\ccBEkVPc.s:24883  .debug_str:000000000000ef0e .LASF5034
C:\Users\CYMR90~1\AppData\Local\Temp\ccBEkVPc.s:22837  .debug_str:0000000000006b60 .LASF5035
C:\Users\CYMR90~1\AppData\Local\Temp\ccBEkVPc.s:29188  .debug_str:00000000000202f1 .LASF5036
C:\Users\CYMR90~1\AppData\Local\Temp\ccBEkVPc.s:21727  .debug_str:0000000000002429 .LASF5037
C:\Users\CYMR90~1\AppData\Local\Temp\ccBEkVPc.s:29990  .debug_str:0000000000023322 .LASF5038
C:\Users\CYMR90~1\AppData\Local\Temp\ccBEkVPc.s:26803  .debug_str:00000000000168d2 .LASF5039
C:\Users\CYMR90~1\AppData\Local\Temp\ccBEkVPc.s:27812  .debug_str:000000000001ac4e .LASF5040
C:\Users\CYMR90~1\AppData\Local\Temp\ccBEkVPc.s:25077  .debug_str:000000000000fb48 .LASF5041
C:\Users\CYMR90~1\AppData\Local\Temp\ccBEkVPc.s:31146  .debug_str:0000000000027efe .LASF5042
C:\Users\CYMR90~1\AppData\Local\Temp\ccBEkVPc.s:23045  .debug_str:0000000000007917 .LASF5043
C:\Users\CYMR90~1\AppData\Local\Temp\ccBEkVPc.s:24481  .debug_str:000000000000d70c .LASF5044
C:\Users\CYMR90~1\AppData\Local\Temp\ccBEkVPc.s:32318  .debug_str:000000000002ca84 .LASF5045
C:\Users\CYMR90~1\AppData\Local\Temp\ccBEkVPc.s:24111  .debug_str:000000000000be7a .LASF5046
C:\Users\CYMR90~1\AppData\Local\Temp\ccBEkVPc.s:23671  .debug_str:000000000000a1e5 .LASF5047
C:\Users\CYMR90~1\AppData\Local\Temp\ccBEkVPc.s:31058  .debug_str:00000000000278fe .LASF5048
C:\Users\CYMR90~1\AppData\Local\Temp\ccBEkVPc.s:25525  .debug_str:0000000000011672 .LASF5049
C:\Users\CYMR90~1\AppData\Local\Temp\ccBEkVPc.s:22289  .debug_str:00000000000049b1 .LASF5050
C:\Users\CYMR90~1\AppData\Local\Temp\ccBEkVPc.s:23615  .debug_str:0000000000009e73 .LASF5051
C:\Users\CYMR90~1\AppData\Local\Temp\ccBEkVPc.s:27414  .debug_str:00000000000191b4 .LASF5052
C:\Users\CYMR90~1\AppData\Local\Temp\ccBEkVPc.s:28392  .debug_str:000000000001d207 .LASF5053
C:\Users\CYMR90~1\AppData\Local\Temp\ccBEkVPc.s:28612  .debug_str:000000000001e042 .LASF5054
C:\Users\CYMR90~1\AppData\Local\Temp\ccBEkVPc.s:24325  .debug_str:000000000000cca0 .LASF5055
C:\Users\CYMR90~1\AppData\Local\Temp\ccBEkVPc.s:26599  .debug_str:0000000000015b4c .LASF5056
C:\Users\CYMR90~1\AppData\Local\Temp\ccBEkVPc.s:24723  .debug_str:000000000000e52c .LASF5057
C:\Users\CYMR90~1\AppData\Local\Temp\ccBEkVPc.s:27586  .debug_str:0000000000019cb9 .LASF5058
C:\Users\CYMR90~1\AppData\Local\Temp\ccBEkVPc.s:27330  .debug_str:0000000000018b6f .LASF5059
C:\Users\CYMR90~1\AppData\Local\Temp\ccBEkVPc.s:30062  .debug_str:00000000000237ab .LASF5060
C:\Users\CYMR90~1\AppData\Local\Temp\ccBEkVPc.s:22249  .debug_str:000000000000467e .LASF5061
C:\Users\CYMR90~1\AppData\Local\Temp\ccBEkVPc.s:21313  .debug_str:0000000000000b49 .LASF5062
C:\Users\CYMR90~1\AppData\Local\Temp\ccBEkVPc.s:25621  .debug_str:0000000000011d52 .LASF5063
C:\Users\CYMR90~1\AppData\Local\Temp\ccBEkVPc.s:26361  .debug_str:0000000000014cdb .LASF5064
C:\Users\CYMR90~1\AppData\Local\Temp\ccBEkVPc.s:22411  .debug_str:0000000000005117 .LASF5065
C:\Users\CYMR90~1\AppData\Local\Temp\ccBEkVPc.s:23197  .debug_str:000000000000844c .LASF5066
C:\Users\CYMR90~1\AppData\Local\Temp\ccBEkVPc.s:23761  .debug_str:000000000000a72d .LASF5067
C:\Users\CYMR90~1\AppData\Local\Temp\ccBEkVPc.s:27422  .debug_str:000000000001922c .LASF5068
C:\Users\CYMR90~1\AppData\Local\Temp\ccBEkVPc.s:24661  .debug_str:000000000000e17e .LASF5069
C:\Users\CYMR90~1\AppData\Local\Temp\ccBEkVPc.s:32242  .debug_str:000000000002c5bd .LASF5070
C:\Users\CYMR90~1\AppData\Local\Temp\ccBEkVPc.s:21543  .debug_str:00000000000019b5 .LASF5071
C:\Users\CYMR90~1\AppData\Local\Temp\ccBEkVPc.s:31136  .debug_str:0000000000027e4d .LASF5072
C:\Users\CYMR90~1\AppData\Local\Temp\ccBEkVPc.s:28510  .debug_str:000000000001d9a4 .LASF5073
C:\Users\CYMR90~1\AppData\Local\Temp\ccBEkVPc.s:26860  .debug_str:0000000000016ecb .LASF5074
C:\Users\CYMR90~1\AppData\Local\Temp\ccBEkVPc.s:23719  .debug_str:000000000000a4dd .LASF5075
C:\Users\CYMR90~1\AppData\Local\Temp\ccBEkVPc.s:29582  .debug_str:0000000000021b2e .LASF5076
C:\Users\CYMR90~1\AppData\Local\Temp\ccBEkVPc.s:25909  .debug_str:0000000000013065 .LASF5077
C:\Users\CYMR90~1\AppData\Local\Temp\ccBEkVPc.s:27316  .debug_str:0000000000018a7d .LASF5078
C:\Users\CYMR90~1\AppData\Local\Temp\ccBEkVPc.s:26009  .debug_str:0000000000013758 .LASF5079
C:\Users\CYMR90~1\AppData\Local\Temp\ccBEkVPc.s:30238  .debug_str:000000000002431d .LASF5080
C:\Users\CYMR90~1\AppData\Local\Temp\ccBEkVPc.s:30752  .debug_str:0000000000026575 .LASF5081
C:\Users\CYMR90~1\AppData\Local\Temp\ccBEkVPc.s:21785  .debug_str:00000000000027ef .LASF5082
C:\Users\CYMR90~1\AppData\Local\Temp\ccBEkVPc.s:25591  .debug_str:0000000000011bb0 .LASF5083
C:\Users\CYMR90~1\AppData\Local\Temp\ccBEkVPc.s:29144  .debug_str:0000000000020066 .LASF5084
C:\Users\CYMR90~1\AppData\Local\Temp\ccBEkVPc.s:21927  .debug_str:00000000000030be .LASF5085
C:\Users\CYMR90~1\AppData\Local\Temp\ccBEkVPc.s:29076  .debug_str:000000000001fc20 .LASF5086
C:\Users\CYMR90~1\AppData\Local\Temp\ccBEkVPc.s:25997  .debug_str:00000000000136a0 .LASF5087
C:\Users\CYMR90~1\AppData\Local\Temp\ccBEkVPc.s:31478  .debug_str:0000000000029579 .LASF5088
C:\Users\CYMR90~1\AppData\Local\Temp\ccBEkVPc.s:23703  .debug_str:000000000000a3b5 .LASF5089
C:\Users\CYMR90~1\AppData\Local\Temp\ccBEkVPc.s:27410  .debug_str:0000000000019161 .LASF5090
C:\Users\CYMR90~1\AppData\Local\Temp\ccBEkVPc.s:31732  .debug_str:000000000002a45a .LASF5091
C:\Users\CYMR90~1\AppData\Local\Temp\ccBEkVPc.s:22749  .debug_str:00000000000065b5 .LASF5092
C:\Users\CYMR90~1\AppData\Local\Temp\ccBEkVPc.s:31726  .debug_str:000000000002a3f1 .LASF5093
C:\Users\CYMR90~1\AppData\Local\Temp\ccBEkVPc.s:21863  .debug_str:0000000000002cca .LASF5094
C:\Users\CYMR90~1\AppData\Local\Temp\ccBEkVPc.s:27850  .debug_str:000000000001ae70 .LASF5095
C:\Users\CYMR90~1\AppData\Local\Temp\ccBEkVPc.s:24985  .debug_str:000000000000f53c .LASF5096
C:\Users\CYMR90~1\AppData\Local\Temp\ccBEkVPc.s:24367  .debug_str:000000000000cef6 .LASF5097
C:\Users\CYMR90~1\AppData\Local\Temp\ccBEkVPc.s:31366  .debug_str:0000000000028de6 .LASF5098
C:\Users\CYMR90~1\AppData\Local\Temp\ccBEkVPc.s:23427  .debug_str:0000000000009238 .LASF5099
C:\Users\CYMR90~1\AppData\Local\Temp\ccBEkVPc.s:28366  .debug_str:000000000001cfee .LASF5100
C:\Users\CYMR90~1\AppData\Local\Temp\ccBEkVPc.s:26938  .debug_str:0000000000017370 .LASF5101
C:\Users\CYMR90~1\AppData\Local\Temp\ccBEkVPc.s:22243  .debug_str:0000000000004606 .LASF5102
C:\Users\CYMR90~1\AppData\Local\Temp\ccBEkVPc.s:30522  .debug_str:000000000002569a .LASF5103
C:\Users\CYMR90~1\AppData\Local\Temp\ccBEkVPc.s:29038  .debug_str:000000000001f99a .LASF5104
C:\Users\CYMR90~1\AppData\Local\Temp\ccBEkVPc.s:22135  .debug_str:0000000000003ebd .LASF5105
C:\Users\CYMR90~1\AppData\Local\Temp\ccBEkVPc.s:29168  .debug_str:00000000000201c3 .LASF5106
C:\Users\CYMR90~1\AppData\Local\Temp\ccBEkVPc.s:32382  .debug_str:000000000002cf01 .LASF5107
C:\Users\CYMR90~1\AppData\Local\Temp\ccBEkVPc.s:21983  .debug_str:000000000000346a .LASF5108
C:\Users\CYMR90~1\AppData\Local\Temp\ccBEkVPc.s:28784  .debug_str:000000000001eaaf .LASF5109
C:\Users\CYMR90~1\AppData\Local\Temp\ccBEkVPc.s:29552  .debug_str:000000000002199b .LASF5110
C:\Users\CYMR90~1\AppData\Local\Temp\ccBEkVPc.s:21569  .debug_str:0000000000001b36 .LASF5111
C:\Users\CYMR90~1\AppData\Local\Temp\ccBEkVPc.s:25823  .debug_str:0000000000012ae4 .LASF5112
C:\Users\CYMR90~1\AppData\Local\Temp\ccBEkVPc.s:27120  .debug_str:0000000000017ea1 .LASF5113
C:\Users\CYMR90~1\AppData\Local\Temp\ccBEkVPc.s:25327  .debug_str:0000000000010a7d .LASF5114
C:\Users\CYMR90~1\AppData\Local\Temp\ccBEkVPc.s:27224  .debug_str:00000000000184cd .LASF5115
C:\Users\CYMR90~1\AppData\Local\Temp\ccBEkVPc.s:27806  .debug_str:000000000001ac09 .LASF5116
C:\Users\CYMR90~1\AppData\Local\Temp\ccBEkVPc.s:29174  .debug_str:0000000000020224 .LASF5117
C:\Users\CYMR90~1\AppData\Local\Temp\ccBEkVPc.s:32418  .debug_str:000000000002d11b .LASF5118
C:\Users\CYMR90~1\AppData\Local\Temp\ccBEkVPc.s:26287  .debug_str:0000000000014848 .LASF5119
C:\Users\CYMR90~1\AppData\Local\Temp\ccBEkVPc.s:27656  .debug_str:000000000001a0ce .LASF5120
C:\Users\CYMR90~1\AppData\Local\Temp\ccBEkVPc.s:22453  .debug_str:00000000000053c4 .LASF5121
C:\Users\CYMR90~1\AppData\Local\Temp\ccBEkVPc.s:30260  .debug_str:0000000000024483 .LASF5122
C:\Users\CYMR90~1\AppData\Local\Temp\ccBEkVPc.s:31140  .debug_str:0000000000027e90 .LASF5123
C:\Users\CYMR90~1\AppData\Local\Temp\ccBEkVPc.s:23065  .debug_str:0000000000007a64 .LASF5124
C:\Users\CYMR90~1\AppData\Local\Temp\ccBEkVPc.s:32202  .debug_str:000000000002c2d6 .LASF5125
C:\Users\CYMR90~1\AppData\Local\Temp\ccBEkVPc.s:24837  .debug_str:000000000000ecaf .LASF5126
C:\Users\CYMR90~1\AppData\Local\Temp\ccBEkVPc.s:27042  .debug_str:0000000000017a09 .LASF5127
C:\Users\CYMR90~1\AppData\Local\Temp\ccBEkVPc.s:23175  .debug_str:00000000000082d7 .LASF5128
C:\Users\CYMR90~1\AppData\Local\Temp\ccBEkVPc.s:22765  .debug_str:00000000000066a7 .LASF5129
C:\Users\CYMR90~1\AppData\Local\Temp\ccBEkVPc.s:22361  .debug_str:0000000000004e31 .LASF5130
C:\Users\CYMR90~1\AppData\Local\Temp\ccBEkVPc.s:30960  .debug_str:0000000000027325 .LASF5131
C:\Users\CYMR90~1\AppData\Local\Temp\ccBEkVPc.s:27166  .debug_str:0000000000018152 .LASF5132
C:\Users\CYMR90~1\AppData\Local\Temp\ccBEkVPc.s:23249  .debug_str:000000000000877e .LASF5133
C:\Users\CYMR90~1\AppData\Local\Temp\ccBEkVPc.s:24271  .debug_str:000000000000c888 .LASF5134
C:\Users\CYMR90~1\AppData\Local\Temp\ccBEkVPc.s:28766  .debug_str:000000000001e985 .LASF5135
C:\Users\CYMR90~1\AppData\Local\Temp\ccBEkVPc.s:23425  .debug_str:0000000000009207 .LASF5136
C:\Users\CYMR90~1\AppData\Local\Temp\ccBEkVPc.s:31932  .debug_str:000000000002b065 .LASF5137
C:\Users\CYMR90~1\AppData\Local\Temp\ccBEkVPc.s:28754  .debug_str:000000000001e895 .LASF5138
C:\Users\CYMR90~1\AppData\Local\Temp\ccBEkVPc.s:23269  .debug_str:00000000000088bc .LASF5139
C:\Users\CYMR90~1\AppData\Local\Temp\ccBEkVPc.s:31050  .debug_str:0000000000027874 .LASF5140
C:\Users\CYMR90~1\AppData\Local\Temp\ccBEkVPc.s:32424  .debug_str:000000000002d175 .LASF5141
C:\Users\CYMR90~1\AppData\Local\Temp\ccBEkVPc.s:29086  .debug_str:000000000001fcc6 .LASF5142
C:\Users\CYMR90~1\AppData\Local\Temp\ccBEkVPc.s:31332  .debug_str:0000000000028bf5 .LASF5143
C:\Users\CYMR90~1\AppData\Local\Temp\ccBEkVPc.s:21843  .debug_str:0000000000002b84 .LASF5144
C:\Users\CYMR90~1\AppData\Local\Temp\ccBEkVPc.s:22685  .debug_str:0000000000006208 .LASF5145
C:\Users\CYMR90~1\AppData\Local\Temp\ccBEkVPc.s:27676  .debug_str:000000000001a1e5 .LASF5146
C:\Users\CYMR90~1\AppData\Local\Temp\ccBEkVPc.s:26369  .debug_str:0000000000014d95 .LASF5147
C:\Users\CYMR90~1\AppData\Local\Temp\ccBEkVPc.s:25125  .debug_str:000000000000fe52 .LASF5148
C:\Users\CYMR90~1\AppData\Local\Temp\ccBEkVPc.s:22215  .debug_str:000000000000442d .LASF5149
C:\Users\CYMR90~1\AppData\Local\Temp\ccBEkVPc.s:21577  .debug_str:0000000000001bb0 .LASF5150
C:\Users\CYMR90~1\AppData\Local\Temp\ccBEkVPc.s:29616  .debug_str:0000000000021d67 .LASF5151
C:\Users\CYMR90~1\AppData\Local\Temp\ccBEkVPc.s:27886  .debug_str:000000000001b101 .LASF5152
C:\Users\CYMR90~1\AppData\Local\Temp\ccBEkVPc.s:23471  .debug_str:0000000000009500 .LASF5153
C:\Users\CYMR90~1\AppData\Local\Temp\ccBEkVPc.s:21193  .debug_str:00000000000003de .LASF5154
C:\Users\CYMR90~1\AppData\Local\Temp\ccBEkVPc.s:25547  .debug_str:000000000001189a .LASF5155
C:\Users\CYMR90~1\AppData\Local\Temp\ccBEkVPc.s:21769  .debug_str:00000000000026e5 .LASF5156
C:\Users\CYMR90~1\AppData\Local\Temp\ccBEkVPc.s:28812  .debug_str:000000000001ec48 .LASF5157
C:\Users\CYMR90~1\AppData\Local\Temp\ccBEkVPc.s:26393  .debug_str:0000000000014f4e .LASF5158
C:\Users\CYMR90~1\AppData\Local\Temp\ccBEkVPc.s:21133  .debug_str:0000000000000000 .LASF5159
C:\Users\CYMR90~1\AppData\Local\Temp\ccBEkVPc.s:23057  .debug_str:00000000000079d6 .LASF5160
C:\Users\CYMR90~1\AppData\Local\Temp\ccBEkVPc.s:31480  .debug_str:00000000000295a6 .LASF5161
C:\Users\CYMR90~1\AppData\Local\Temp\ccBEkVPc.s:30338  .debug_str:000000000002499a .LASF5162
C:\Users\CYMR90~1\AppData\Local\Temp\ccBEkVPc.s:31110  .debug_str:0000000000027c7b .LASF5163
C:\Users\CYMR90~1\AppData\Local\Temp\ccBEkVPc.s:22457  .debug_str:000000000000540e .LASF5164
C:\Users\CYMR90~1\AppData\Local\Temp\ccBEkVPc.s:26829  .debug_str:0000000000016ac2 .LASF5165
C:\Users\CYMR90~1\AppData\Local\Temp\ccBEkVPc.s:29122  .debug_str:000000000001fee0 .LASF5166
C:\Users\CYMR90~1\AppData\Local\Temp\ccBEkVPc.s:27770  .debug_str:000000000001a9b3 .LASF5167
C:\Users\CYMR90~1\AppData\Local\Temp\ccBEkVPc.s:32408  .debug_str:000000000002d06c .LASF5168
C:\Users\CYMR90~1\AppData\Local\Temp\ccBEkVPc.s:26954  .debug_str:000000000001746f .LASF5169
C:\Users\CYMR90~1\AppData\Local\Temp\ccBEkVPc.s:22653  .debug_str:0000000000005fe6 .LASF5170
C:\Users\CYMR90~1\AppData\Local\Temp\ccBEkVPc.s:24941  .debug_str:000000000000f2a5 .LASF5171
C:\Users\CYMR90~1\AppData\Local\Temp\ccBEkVPc.s:25659  .debug_str:0000000000011fe8 .LASF5172
C:\Users\CYMR90~1\AppData\Local\Temp\ccBEkVPc.s:27278  .debug_str:00000000000187db .LASF5173
C:\Users\CYMR90~1\AppData\Local\Temp\ccBEkVPc.s:29626  .debug_str:0000000000021df7 .LASF5174
C:\Users\CYMR90~1\AppData\Local\Temp\ccBEkVPc.s:30508  .debug_str:0000000000025575 .LASF5175
C:\Users\CYMR90~1\AppData\Local\Temp\ccBEkVPc.s:31290  .debug_str:0000000000028955 .LASF5176
C:\Users\CYMR90~1\AppData\Local\Temp\ccBEkVPc.s:30754  .debug_str:000000000002659f .LASF5177
C:\Users\CYMR90~1\AppData\Local\Temp\ccBEkVPc.s:25465  .debug_str:00000000000112e0 .LASF5178
C:\Users\CYMR90~1\AppData\Local\Temp\ccBEkVPc.s:24365  .debug_str:000000000000cec6 .LASF5179
C:\Users\CYMR90~1\AppData\Local\Temp\ccBEkVPc.s:29282  .debug_str:00000000000208b7 .LASF5180
C:\Users\CYMR90~1\AppData\Local\Temp\ccBEkVPc.s:25023  .debug_str:000000000000f808 .LASF5181
C:\Users\CYMR90~1\AppData\Local\Temp\ccBEkVPc.s:24331  .debug_str:000000000000cd01 .LASF5182
C:\Users\CYMR90~1\AppData\Local\Temp\ccBEkVPc.s:30728  .debug_str:00000000000263e8 .LASF5183
C:\Users\CYMR90~1\AppData\Local\Temp\ccBEkVPc.s:25921  .debug_str:0000000000013142 .LASF5184
C:\Users\CYMR90~1\AppData\Local\Temp\ccBEkVPc.s:24141  .debug_str:000000000000c067 .LASF5185
C:\Users\CYMR90~1\AppData\Local\Temp\ccBEkVPc.s:22029  .debug_str:00000000000037c7 .LASF5186
C:\Users\CYMR90~1\AppData\Local\Temp\ccBEkVPc.s:22959  .debug_str:0000000000007390 .LASF5187
C:\Users\CYMR90~1\AppData\Local\Temp\ccBEkVPc.s:25027  .debug_str:000000000000f857 .LASF5188
C:\Users\CYMR90~1\AppData\Local\Temp\ccBEkVPc.s:22521  .debug_str:00000000000057ef .LASF5189
C:\Users\CYMR90~1\AppData\Local\Temp\ccBEkVPc.s:31172  .debug_str:00000000000280f9 .LASF5190
C:\Users\CYMR90~1\AppData\Local\Temp\ccBEkVPc.s:25717  .debug_str:0000000000012381 .LASF5191
C:\Users\CYMR90~1\AppData\Local\Temp\ccBEkVPc.s:21857  .debug_str:0000000000002c6e .LASF5192
C:\Users\CYMR90~1\AppData\Local\Temp\ccBEkVPc.s:30584  .debug_str:0000000000025b37 .LASF5193
C:\Users\CYMR90~1\AppData\Local\Temp\ccBEkVPc.s:30972  .debug_str:00000000000273fa .LASF5194
C:\Users\CYMR90~1\AppData\Local\Temp\ccBEkVPc.s:25481  .debug_str:00000000000113a5 .LASF5195
C:\Users\CYMR90~1\AppData\Local\Temp\ccBEkVPc.s:26661  .debug_str:0000000000015fcb .LASF5196
C:\Users\CYMR90~1\AppData\Local\Temp\ccBEkVPc.s:29994  .debug_str:000000000002335b .LASF5197
C:\Users\CYMR90~1\AppData\Local\Temp\ccBEkVPc.s:28746  .debug_str:000000000001e815 .LASF5198
C:\Users\CYMR90~1\AppData\Local\Temp\ccBEkVPc.s:29644  .debug_str:0000000000021f3c .LASF5199
C:\Users\CYMR90~1\AppData\Local\Temp\ccBEkVPc.s:32430  .debug_str:000000000002d1d1 .LASF5200
C:\Users\CYMR90~1\AppData\Local\Temp\ccBEkVPc.s:29820  .debug_str:000000000002293e .LASF5201
C:\Users\CYMR90~1\AppData\Local\Temp\ccBEkVPc.s:21507  .debug_str:000000000000177c .LASF5202
C:\Users\CYMR90~1\AppData\Local\Temp\ccBEkVPc.s:23049  .debug_str:000000000000794d .LASF5203
C:\Users\CYMR90~1\AppData\Local\Temp\ccBEkVPc.s:22395  .debug_str:0000000000005025 .LASF5204
C:\Users\CYMR90~1\AppData\Local\Temp\ccBEkVPc.s:29852  .debug_str:0000000000022b0b .LASF5205
C:\Users\CYMR90~1\AppData\Local\Temp\ccBEkVPc.s:25775  .debug_str:0000000000012783 .LASF5206
C:\Users\CYMR90~1\AppData\Local\Temp\ccBEkVPc.s:30374  .debug_str:0000000000024be8 .LASF5207
C:\Users\CYMR90~1\AppData\Local\Temp\ccBEkVPc.s:31622  .debug_str:0000000000029e15 .LASF5208
C:\Users\CYMR90~1\AppData\Local\Temp\ccBEkVPc.s:29906  .debug_str:0000000000022eba .LASF5209
C:\Users\CYMR90~1\AppData\Local\Temp\ccBEkVPc.s:30550  .debug_str:00000000000258ec .LASF5210
C:\Users\CYMR90~1\AppData\Local\Temp\ccBEkVPc.s:30600  .debug_str:0000000000025c45 .LASF5211
C:\Users\CYMR90~1\AppData\Local\Temp\ccBEkVPc.s:29398  .debug_str:0000000000020ffb .LASF5212
C:\Users\CYMR90~1\AppData\Local\Temp\ccBEkVPc.s:25121  .debug_str:000000000000fe0c .LASF5213
C:\Users\CYMR90~1\AppData\Local\Temp\ccBEkVPc.s:25293  .debug_str:00000000000108ad .LASF5214
C:\Users\CYMR90~1\AppData\Local\Temp\ccBEkVPc.s:30432  .debug_str:0000000000024f67 .LASF5215
C:\Users\CYMR90~1\AppData\Local\Temp\ccBEkVPc.s:23823  .debug_str:000000000000ab10 .LASF5216
C:\Users\CYMR90~1\AppData\Local\Temp\ccBEkVPc.s:22365  .debug_str:0000000000004e80 .LASF5217
C:\Users\CYMR90~1\AppData\Local\Temp\ccBEkVPc.s:31878  .debug_str:000000000002ad42 .LASF5218
C:\Users\CYMR90~1\AppData\Local\Temp\ccBEkVPc.s:23343  .debug_str:0000000000008d29 .LASF5219
C:\Users\CYMR90~1\AppData\Local\Temp\ccBEkVPc.s:23929  .debug_str:000000000000b260 .LASF5220
C:\Users\CYMR90~1\AppData\Local\Temp\ccBEkVPc.s:30608  .debug_str:0000000000025cb6 .LASF5221
C:\Users\CYMR90~1\AppData\Local\Temp\ccBEkVPc.s:21405  .debug_str:000000000000110d .LASF5222
C:\Users\CYMR90~1\AppData\Local\Temp\ccBEkVPc.s:26739  .debug_str:0000000000016483 .LASF5223
C:\Users\CYMR90~1\AppData\Local\Temp\ccBEkVPc.s:28826  .debug_str:000000000001ed07 .LASF5224
C:\Users\CYMR90~1\AppData\Local\Temp\ccBEkVPc.s:31096  .debug_str:0000000000027b8e .LASF5225
C:\Users\CYMR90~1\AppData\Local\Temp\ccBEkVPc.s:24787  .debug_str:000000000000e969 .LASF5226
C:\Users\CYMR90~1\AppData\Local\Temp\ccBEkVPc.s:31126  .debug_str:0000000000027db6 .LASF5227
C:\Users\CYMR90~1\AppData\Local\Temp\ccBEkVPc.s:28770  .debug_str:000000000001e9d9 .LASF5228
C:\Users\CYMR90~1\AppData\Local\Temp\ccBEkVPc.s:25529  .debug_str:00000000000116bd .LASF5229
C:\Users\CYMR90~1\AppData\Local\Temp\ccBEkVPc.s:29074  .debug_str:000000000001fbef .LASF5230
C:\Users\CYMR90~1\AppData\Local\Temp\ccBEkVPc.s:22973  .debug_str:0000000000007476 .LASF5231
C:\Users\CYMR90~1\AppData\Local\Temp\ccBEkVPc.s:26061  .debug_str:0000000000013a68 .LASF5232
C:\Users\CYMR90~1\AppData\Local\Temp\ccBEkVPc.s:29116  .debug_str:000000000001fe76 .LASF5233
C:\Users\CYMR90~1\AppData\Local\Temp\ccBEkVPc.s:24643  .debug_str:000000000000e061 .LASF5234
C:\Users\CYMR90~1\AppData\Local\Temp\ccBEkVPc.s:28326  .debug_str:000000000001ccb4 .LASF5235
C:\Users\CYMR90~1\AppData\Local\Temp\ccBEkVPc.s:24767  .debug_str:000000000000e823 .LASF5236
C:\Users\CYMR90~1\AppData\Local\Temp\ccBEkVPc.s:22031  .debug_str:00000000000037ed .LASF5237
C:\Users\CYMR90~1\AppData\Local\Temp\ccBEkVPc.s:32280  .debug_str:000000000002c7d3 .LASF5238
C:\Users\CYMR90~1\AppData\Local\Temp\ccBEkVPc.s:24797  .debug_str:000000000000e9f1 .LASF5239
C:\Users\CYMR90~1\AppData\Local\Temp\ccBEkVPc.s:21483  .debug_str:0000000000001558 .LASF5240
C:\Users\CYMR90~1\AppData\Local\Temp\ccBEkVPc.s:27932  .debug_str:000000000001b435 .LASF5241
C:\Users\CYMR90~1\AppData\Local\Temp\ccBEkVPc.s:30926  .debug_str:0000000000027055 .LASF5242
C:\Users\CYMR90~1\AppData\Local\Temp\ccBEkVPc.s:27814  .debug_str:000000000001ac6e .LASF5243
C:\Users\CYMR90~1\AppData\Local\Temp\ccBEkVPc.s:28820  .debug_str:000000000001ecc0 .LASF5244
C:\Users\CYMR90~1\AppData\Local\Temp\ccBEkVPc.s:23069  .debug_str:0000000000007af8 .LASF5245
C:\Users\CYMR90~1\AppData\Local\Temp\ccBEkVPc.s:29416  .debug_str:00000000000210e2 .LASF5246
C:\Users\CYMR90~1\AppData\Local\Temp\ccBEkVPc.s:24275  .debug_str:000000000000c8fc .LASF5247
C:\Users\CYMR90~1\AppData\Local\Temp\ccBEkVPc.s:26605  .debug_str:0000000000015bb6 .LASF5248
C:\Users\CYMR90~1\AppData\Local\Temp\ccBEkVPc.s:25047  .debug_str:000000000000f988 .LASF5249
C:\Users\CYMR90~1\AppData\Local\Temp\ccBEkVPc.s:27220  .debug_str:000000000001849d .LASF5250
C:\Users\CYMR90~1\AppData\Local\Temp\ccBEkVPc.s:31780  .debug_str:000000000002a78f .LASF5251
C:\Users\CYMR90~1\AppData\Local\Temp\ccBEkVPc.s:25993  .debug_str:0000000000013663 .LASF5252
C:\Users\CYMR90~1\AppData\Local\Temp\ccBEkVPc.s:29006  .debug_str:000000000001f7e9 .LASF5253
C:\Users\CYMR90~1\AppData\Local\Temp\ccBEkVPc.s:23027  .debug_str:00000000000077f2 .LASF5254
C:\Users\CYMR90~1\AppData\Local\Temp\ccBEkVPc.s:30470  .debug_str:00000000000252df .LASF5255
C:\Users\CYMR90~1\AppData\Local\Temp\ccBEkVPc.s:22899  .debug_str:0000000000006f45 .LASF5256
C:\Users\CYMR90~1\AppData\Local\Temp\ccBEkVPc.s:31004  .debug_str:00000000000275de .LASF5257
C:\Users\CYMR90~1\AppData\Local\Temp\ccBEkVPc.s:31494  .debug_str:000000000002967a .LASF5258
C:\Users\CYMR90~1\AppData\Local\Temp\ccBEkVPc.s:29738  .debug_str:00000000000224b8 .LASF5259
C:\Users\CYMR90~1\AppData\Local\Temp\ccBEkVPc.s:26513  .debug_str:0000000000015623 .LASF5260
C:\Users\CYMR90~1\AppData\Local\Temp\ccBEkVPc.s:23349  .debug_str:0000000000008d70 .LASF5261
C:\Users\CYMR90~1\AppData\Local\Temp\ccBEkVPc.s:21935  .debug_str:0000000000003148 .LASF5262
C:\Users\CYMR90~1\AppData\Local\Temp\ccBEkVPc.s:32190  .debug_str:000000000002c221 .LASF5263
C:\Users\CYMR90~1\AppData\Local\Temp\ccBEkVPc.s:23533  .debug_str:00000000000098eb .LASF5264
C:\Users\CYMR90~1\AppData\Local\Temp\ccBEkVPc.s:23355  .debug_str:0000000000008dbf .LASF5265
C:\Users\CYMR90~1\AppData\Local\Temp\ccBEkVPc.s:25325  .debug_str:0000000000010a66 .LASF5266
C:\Users\CYMR90~1\AppData\Local\Temp\ccBEkVPc.s:24885  .debug_str:000000000000ef31 .LASF5267
C:\Users\CYMR90~1\AppData\Local\Temp\ccBEkVPc.s:31378  .debug_str:0000000000028ed5 .LASF5268
C:\Users\CYMR90~1\AppData\Local\Temp\ccBEkVPc.s:23469  .debug_str:00000000000094e8 .LASF5269
C:\Users\CYMR90~1\AppData\Local\Temp\ccBEkVPc.s:32078  .debug_str:000000000002ba74 .LASF5270
C:\Users\CYMR90~1\AppData\Local\Temp\ccBEkVPc.s:30672  .debug_str:00000000000260ad .LASF5271
C:\Users\CYMR90~1\AppData\Local\Temp\ccBEkVPc.s:25031  .debug_str:000000000000f8ad .LASF5272
C:\Users\CYMR90~1\AppData\Local\Temp\ccBEkVPc.s:22225  .debug_str:00000000000044dd .LASF5273
C:\Users\CYMR90~1\AppData\Local\Temp\ccBEkVPc.s:27772  .debug_str:000000000001a9da .LASF5274
C:\Users\CYMR90~1\AppData\Local\Temp\ccBEkVPc.s:30426  .debug_str:0000000000024f1c .LASF5275
C:\Users\CYMR90~1\AppData\Local\Temp\ccBEkVPc.s:24969  .debug_str:000000000000f466 .LASF5276
C:\Users\CYMR90~1\AppData\Local\Temp\ccBEkVPc.s:21243  .debug_str:00000000000006b5 .LASF5277
C:\Users\CYMR90~1\AppData\Local\Temp\ccBEkVPc.s:21195  .debug_str:0000000000000408 .LASF5278
C:\Users\CYMR90~1\AppData\Local\Temp\ccBEkVPc.s:26749  .debug_str:0000000000016516 .LASF5279
C:\Users\CYMR90~1\AppData\Local\Temp\ccBEkVPc.s:30076  .debug_str:00000000000238b1 .LASF5280
C:\Users\CYMR90~1\AppData\Local\Temp\ccBEkVPc.s:30724  .debug_str:00000000000263a7 .LASF5281
C:\Users\CYMR90~1\AppData\Local\Temp\ccBEkVPc.s:25873  .debug_str:0000000000012e06 .LASF5282
C:\Users\CYMR90~1\AppData\Local\Temp\ccBEkVPc.s:27808  .debug_str:000000000001ac2d .LASF5283
C:\Users\CYMR90~1\AppData\Local\Temp\ccBEkVPc.s:21811  .debug_str:0000000000002986 .LASF5284
C:\Users\CYMR90~1\AppData\Local\Temp\ccBEkVPc.s:26613  .debug_str:0000000000015c84 .LASF5285
C:\Users\CYMR90~1\AppData\Local\Temp\ccBEkVPc.s:29200  .debug_str:00000000000203a7 .LASF5286
C:\Users\CYMR90~1\AppData\Local\Temp\ccBEkVPc.s:28512  .debug_str:000000000001d9ce .LASF5287
C:\Users\CYMR90~1\AppData\Local\Temp\ccBEkVPc.s:23257  .debug_str:000000000000880a .LASF5288
C:\Users\CYMR90~1\AppData\Local\Temp\ccBEkVPc.s:29878  .debug_str:0000000000022d19 .LASF5289
C:\Users\CYMR90~1\AppData\Local\Temp\ccBEkVPc.s:29192  .debug_str:0000000000020326 .LASF5290
C:\Users\CYMR90~1\AppData\Local\Temp\ccBEkVPc.s:22281  .debug_str:000000000000493a .LASF5291
C:\Users\CYMR90~1\AppData\Local\Temp\ccBEkVPc.s:22709  .debug_str:0000000000006365 .LASF5292
C:\Users\CYMR90~1\AppData\Local\Temp\ccBEkVPc.s:29832  .debug_str:0000000000022a0d .LASF5293
C:\Users\CYMR90~1\AppData\Local\Temp\ccBEkVPc.s:31570  .debug_str:0000000000029b0b .LASF5294
C:\Users\CYMR90~1\AppData\Local\Temp\ccBEkVPc.s:27398  .debug_str:0000000000018feb .LASF5295
C:\Users\CYMR90~1\AppData\Local\Temp\ccBEkVPc.s:24177  .debug_str:000000000000c2a8 .LASF5296
C:\Users\CYMR90~1\AppData\Local\Temp\ccBEkVPc.s:25393  .debug_str:0000000000010edc .LASF5297
C:\Users\CYMR90~1\AppData\Local\Temp\ccBEkVPc.s:24001  .debug_str:000000000000b6f6 .LASF5298
C:\Users\CYMR90~1\AppData\Local\Temp\ccBEkVPc.s:29288  .debug_str:000000000002094d .LASF5299
C:\Users\CYMR90~1\AppData\Local\Temp\ccBEkVPc.s:26065  .debug_str:0000000000013abb .LASF5300
C:\Users\CYMR90~1\AppData\Local\Temp\ccBEkVPc.s:31518  .debug_str:000000000002981f .LASF5301
C:\Users\CYMR90~1\AppData\Local\Temp\ccBEkVPc.s:25213  .debug_str:00000000000103e4 .LASF5302
C:\Users\CYMR90~1\AppData\Local\Temp\ccBEkVPc.s:24433  .debug_str:000000000000d38a .LASF5303
C:\Users\CYMR90~1\AppData\Local\Temp\ccBEkVPc.s:28912  .debug_str:000000000001f260 .LASF5304
C:\Users\CYMR90~1\AppData\Local\Temp\ccBEkVPc.s:32102  .debug_str:000000000002bbfc .LASF5305
C:\Users\CYMR90~1\AppData\Local\Temp\ccBEkVPc.s:29858  .debug_str:0000000000022c02 .LASF5306
C:\Users\CYMR90~1\AppData\Local\Temp\ccBEkVPc.s:30006  .debug_str:000000000002341a .LASF5307
C:\Users\CYMR90~1\AppData\Local\Temp\ccBEkVPc.s:23975  .debug_str:000000000000b4c1 .LASF5308
C:\Users\CYMR90~1\AppData\Local\Temp\ccBEkVPc.s:30126  .debug_str:0000000000023b93 .LASF5309
C:\Users\CYMR90~1\AppData\Local\Temp\ccBEkVPc.s:21361  .debug_str:0000000000000e05 .LASF5310
C:\Users\CYMR90~1\AppData\Local\Temp\ccBEkVPc.s:27644  .debug_str:000000000001a02e .LASF5311
C:\Users\CYMR90~1\AppData\Local\Temp\ccBEkVPc.s:27180  .debug_str:0000000000018249 .LASF5312
C:\Users\CYMR90~1\AppData\Local\Temp\ccBEkVPc.s:29618  .debug_str:0000000000021d8d .LASF5313
C:\Users\CYMR90~1\AppData\Local\Temp\ccBEkVPc.s:28024  .debug_str:000000000001b9dd .LASF5314
C:\Users\CYMR90~1\AppData\Local\Temp\ccBEkVPc.s:23099  .debug_str:0000000000007ca8 .LASF5315
C:\Users\CYMR90~1\AppData\Local\Temp\ccBEkVPc.s:22531  .debug_str:00000000000058ae .LASF5316
C:\Users\CYMR90~1\AppData\Local\Temp\ccBEkVPc.s:22847  .debug_str:0000000000006bf3 .LASF5317
C:\Users\CYMR90~1\AppData\Local\Temp\ccBEkVPc.s:24319  .debug_str:000000000000cc4a .LASF5318
C:\Users\CYMR90~1\AppData\Local\Temp\ccBEkVPc.s:25683  .debug_str:000000000001216b .LASF5319
C:\Users\CYMR90~1\AppData\Local\Temp\ccBEkVPc.s:24071  .debug_str:000000000000bb92 .LASF5320
C:\Users\CYMR90~1\AppData\Local\Temp\ccBEkVPc.s:31116  .debug_str:0000000000027d2c .LASF5321
C:\Users\CYMR90~1\AppData\Local\Temp\ccBEkVPc.s:30708  .debug_str:00000000000262cd .LASF5322
C:\Users\CYMR90~1\AppData\Local\Temp\ccBEkVPc.s:26423  .debug_str:0000000000015124 .LASF5323
C:\Users\CYMR90~1\AppData\Local\Temp\ccBEkVPc.s:21919  .debug_str:0000000000003033 .LASF5324
C:\Users\CYMR90~1\AppData\Local\Temp\ccBEkVPc.s:25983  .debug_str:00000000000135c8 .LASF5325
C:\Users\CYMR90~1\AppData\Local\Temp\ccBEkVPc.s:32258  .debug_str:000000000002c6a9 .LASF5326
C:\Users\CYMR90~1\AppData\Local\Temp\ccBEkVPc.s:28554  .debug_str:000000000001dc1f .LASF5327
C:\Users\CYMR90~1\AppData\Local\Temp\ccBEkVPc.s:27418  .debug_str:00000000000191f0 .LASF5328
C:\Users\CYMR90~1\AppData\Local\Temp\ccBEkVPc.s:29468  .debug_str:00000000000213ec .LASF5329
C:\Users\CYMR90~1\AppData\Local\Temp\ccBEkVPc.s:24397  .debug_str:000000000000d0ef .LASF5330
C:\Users\CYMR90~1\AppData\Local\Temp\ccBEkVPc.s:31514  .debug_str:00000000000297e3 .LASF5331
C:\Users\CYMR90~1\AppData\Local\Temp\ccBEkVPc.s:27066  .debug_str:0000000000017b80 .LASF5332
C:\Users\CYMR90~1\AppData\Local\Temp\ccBEkVPc.s:26227  .debug_str:000000000001444b .LASF5333
C:\Users\CYMR90~1\AppData\Local\Temp\ccBEkVPc.s:21881  .debug_str:0000000000002ddf .LASF5334
C:\Users\CYMR90~1\AppData\Local\Temp\ccBEkVPc.s:26431  .debug_str:00000000000151a2 .LASF5335
C:\Users\CYMR90~1\AppData\Local\Temp\ccBEkVPc.s:24459  .debug_str:000000000000d59c .LASF5336
C:\Users\CYMR90~1\AppData\Local\Temp\ccBEkVPc.s:26093  .debug_str:0000000000013c9d .LASF5337
C:\Users\CYMR90~1\AppData\Local\Temp\ccBEkVPc.s:28388  .debug_str:000000000001d1d0 .LASF5338
C:\Users\CYMR90~1\AppData\Local\Temp\ccBEkVPc.s:23653  .debug_str:000000000000a0c5 .LASF5339
C:\Users\CYMR90~1\AppData\Local\Temp\ccBEkVPc.s:30448  .debug_str:00000000000250db .LASF5340
C:\Users\CYMR90~1\AppData\Local\Temp\ccBEkVPc.s:28418  .debug_str:000000000001d3b6 .LASF5341
C:\Users\CYMR90~1\AppData\Local\Temp\ccBEkVPc.s:32338  .debug_str:000000000002cbf2 .LASF5342
C:\Users\CYMR90~1\AppData\Local\Temp\ccBEkVPc.s:31690  .debug_str:000000000002a20b .LASF5343
C:\Users\CYMR90~1\AppData\Local\Temp\ccBEkVPc.s:23685  .debug_str:000000000000a2b0 .LASF5344
C:\Users\CYMR90~1\AppData\Local\Temp\ccBEkVPc.s:24493  .debug_str:000000000000d79b .LASF5345
C:\Users\CYMR90~1\AppData\Local\Temp\ccBEkVPc.s:29190  .debug_str:000000000002030f .LASF5346
C:\Users\CYMR90~1\AppData\Local\Temp\ccBEkVPc.s:30544  .debug_str:000000000002587b .LASF5347
C:\Users\CYMR90~1\AppData\Local\Temp\ccBEkVPc.s:24293  .debug_str:000000000000ca1d .LASF5348
C:\Users\CYMR90~1\AppData\Local\Temp\ccBEkVPc.s:23715  .debug_str:000000000000a47a .LASF5349
C:\Users\CYMR90~1\AppData\Local\Temp\ccBEkVPc.s:27866  .debug_str:000000000001af9b .LASF5350
C:\Users\CYMR90~1\AppData\Local\Temp\ccBEkVPc.s:25107  .debug_str:000000000000fd24 .LASF5351
C:\Users\CYMR90~1\AppData\Local\Temp\ccBEkVPc.s:27338  .debug_str:0000000000018bec .LASF5352
C:\Users\CYMR90~1\AppData\Local\Temp\ccBEkVPc.s:24261  .debug_str:000000000000c7a9 .LASF5353
C:\Users\CYMR90~1\AppData\Local\Temp\ccBEkVPc.s:24399  .debug_str:000000000000d107 .LASF5354
C:\Users\CYMR90~1\AppData\Local\Temp\ccBEkVPc.s:25485  .debug_str:00000000000113e9 .LASF5355
C:\Users\CYMR90~1\AppData\Local\Temp\ccBEkVPc.s:28548  .debug_str:000000000001dbbe .LASF5356
C:\Users\CYMR90~1\AppData\Local\Temp\ccBEkVPc.s:23439  .debug_str:0000000000009309 .LASF5357
C:\Users\CYMR90~1\AppData\Local\Temp\ccBEkVPc.s:23503  .debug_str:0000000000009744 .LASF5358
C:\Users\CYMR90~1\AppData\Local\Temp\ccBEkVPc.s:28442  .debug_str:000000000001d523 .LASF5359
C:\Users\CYMR90~1\AppData\Local\Temp\ccBEkVPc.s:27000  .debug_str:000000000001771f .LASF5360
C:\Users\CYMR90~1\AppData\Local\Temp\ccBEkVPc.s:22343  .debug_str:0000000000004d12 .LASF5361
C:\Users\CYMR90~1\AppData\Local\Temp\ccBEkVPc.s:21143  .debug_str:00000000000000c8 .LASF5362
C:\Users\CYMR90~1\AppData\Local\Temp\ccBEkVPc.s:29154  .debug_str:00000000000200f4 .LASF5363
C:\Users\CYMR90~1\AppData\Local\Temp\ccBEkVPc.s:32384  .debug_str:000000000002cf2a .LASF5364
C:\Users\CYMR90~1\AppData\Local\Temp\ccBEkVPc.s:28578  .debug_str:000000000001ddf3 .LASF5365
C:\Users\CYMR90~1\AppData\Local\Temp\ccBEkVPc.s:22585  .debug_str:0000000000005be5 .LASF5366
C:\Users\CYMR90~1\AppData\Local\Temp\ccBEkVPc.s:29696  .debug_str:0000000000022240 .LASF5367
C:\Users\CYMR90~1\AppData\Local\Temp\ccBEkVPc.s:29388  .debug_str:0000000000020f5e .LASF5368
C:\Users\CYMR90~1\AppData\Local\Temp\ccBEkVPc.s:27646  .debug_str:000000000001a045 .LASF5369
C:\Users\CYMR90~1\AppData\Local\Temp\ccBEkVPc.s:21235  .debug_str:0000000000000621 .LASF5370
C:\Users\CYMR90~1\AppData\Local\Temp\ccBEkVPc.s:25711  .debug_str:0000000000012303 .LASF5371
C:\Users\CYMR90~1\AppData\Local\Temp\ccBEkVPc.s:26123  .debug_str:0000000000013e28 .LASF5372
C:\Users\CYMR90~1\AppData\Local\Temp\ccBEkVPc.s:25681  .debug_str:0000000000012152 .LASF5373
C:\Users\CYMR90~1\AppData\Local\Temp\ccBEkVPc.s:22715  .debug_str:00000000000063c7 .LASF5374
C:\Users\CYMR90~1\AppData\Local\Temp\ccBEkVPc.s:28840  .debug_str:000000000001edc0 .LASF5375
C:\Users\CYMR90~1\AppData\Local\Temp\ccBEkVPc.s:27014  .debug_str:0000000000017824 .LASF5376
C:\Users\CYMR90~1\AppData\Local\Temp\ccBEkVPc.s:21487  .debug_str:000000000000159e .LASF5377
C:\Users\CYMR90~1\AppData\Local\Temp\ccBEkVPc.s:29108  .debug_str:000000000001fe15 .LASF5378
C:\Users\CYMR90~1\AppData\Local\Temp\ccBEkVPc.s:21825  .debug_str:0000000000002a78 .LASF5379
C:\Users\CYMR90~1\AppData\Local\Temp\ccBEkVPc.s:26161  .debug_str:0000000000014070 .LASF5380
C:\Users\CYMR90~1\AppData\Local\Temp\ccBEkVPc.s:21445  .debug_str:0000000000001325 .LASF5381
C:\Users\CYMR90~1\AppData\Local\Temp\ccBEkVPc.s:30868  .debug_str:0000000000026c9b .LASF5382
C:\Users\CYMR90~1\AppData\Local\Temp\ccBEkVPc.s:26671  .debug_str:0000000000016081 .LASF5383
C:\Users\CYMR90~1\AppData\Local\Temp\ccBEkVPc.s:22049  .debug_str:0000000000003915 .LASF5384
C:\Users\CYMR90~1\AppData\Local\Temp\ccBEkVPc.s:23937  .debug_str:000000000000b2cc .LASF5385
C:\Users\CYMR90~1\AppData\Local\Temp\ccBEkVPc.s:30172  .debug_str:0000000000023e06 .LASF5386
C:\Users\CYMR90~1\AppData\Local\Temp\ccBEkVPc.s:22613  .debug_str:0000000000005da1 .LASF5387
C:\Users\CYMR90~1\AppData\Local\Temp\ccBEkVPc.s:31014  .debug_str:000000000002766f .LASF5388
C:\Users\CYMR90~1\AppData\Local\Temp\ccBEkVPc.s:23199  .debug_str:0000000000008474 .LASF5389
C:\Users\CYMR90~1\AppData\Local\Temp\ccBEkVPc.s:31978  .debug_str:000000000002b3a7 .LASF5390
C:\Users\CYMR90~1\AppData\Local\Temp\ccBEkVPc.s:29184  .debug_str:00000000000202c4 .LASF5391
C:\Users\CYMR90~1\AppData\Local\Temp\ccBEkVPc.s:27496  .debug_str:0000000000019675 .LASF5392
C:\Users\CYMR90~1\AppData\Local\Temp\ccBEkVPc.s:21371  .debug_str:0000000000000f19 .LASF5393
C:\Users\CYMR90~1\AppData\Local\Temp\ccBEkVPc.s:29020  .debug_str:000000000001f8b8 .LASF5394
C:\Users\CYMR90~1\AppData\Local\Temp\ccBEkVPc.s:22559  .debug_str:0000000000005a4e .LASF5395
C:\Users\CYMR90~1\AppData\Local\Temp\ccBEkVPc.s:31948  .debug_str:000000000002b16c .LASF5396
C:\Users\CYMR90~1\AppData\Local\Temp\ccBEkVPc.s:26737  .debug_str:0000000000016466 .LASF5397
C:\Users\CYMR90~1\AppData\Local\Temp\ccBEkVPc.s:26535  .debug_str:000000000001576c .LASF5398
C:\Users\CYMR90~1\AppData\Local\Temp\ccBEkVPc.s:27562  .debug_str:0000000000019b46 .LASF5399
C:\Users\CYMR90~1\AppData\Local\Temp\ccBEkVPc.s:30770  .debug_str:000000000002669b .LASF5400
C:\Users\CYMR90~1\AppData\Local\Temp\ccBEkVPc.s:30330  .debug_str:0000000000024939 .LASF5401
C:\Users\CYMR90~1\AppData\Local\Temp\ccBEkVPc.s:31926  .debug_str:000000000002b01b .LASF5402
C:\Users\CYMR90~1\AppData\Local\Temp\ccBEkVPc.s:22097  .debug_str:0000000000003c12 .LASF5403
C:\Users\CYMR90~1\AppData\Local\Temp\ccBEkVPc.s:28814  .debug_str:000000000001ec74 .LASF5404
C:\Users\CYMR90~1\AppData\Local\Temp\ccBEkVPc.s:28086  .debug_str:000000000001bd5d .LASF5405
C:\Users\CYMR90~1\AppData\Local\Temp\ccBEkVPc.s:25897  .debug_str:0000000000012f8a .LASF5406
C:\Users\CYMR90~1\AppData\Local\Temp\ccBEkVPc.s:31682  .debug_str:000000000002a19e .LASF5407
C:\Users\CYMR90~1\AppData\Local\Temp\ccBEkVPc.s:31562  .debug_str:0000000000029a7a .LASF5408
C:\Users\CYMR90~1\AppData\Local\Temp\ccBEkVPc.s:23527  .debug_str:0000000000009880 .LASF5409
C:\Users\CYMR90~1\AppData\Local\Temp\ccBEkVPc.s:32322  .debug_str:000000000002cad5 .LASF5410
C:\Users\CYMR90~1\AppData\Local\Temp\ccBEkVPc.s:31386  .debug_str:0000000000028f36 .LASF5411
C:\Users\CYMR90~1\AppData\Local\Temp\ccBEkVPc.s:23539  .debug_str:0000000000009942 .LASF5412
C:\Users\CYMR90~1\AppData\Local\Temp\ccBEkVPc.s:29544  .debug_str:0000000000021928 .LASF5413
C:\Users\CYMR90~1\AppData\Local\Temp\ccBEkVPc.s:32290  .debug_str:000000000002c882 .LASF5414
C:\Users\CYMR90~1\AppData\Local\Temp\ccBEkVPc.s:28792  .debug_str:000000000001eb24 .LASF5415
C:\Users\CYMR90~1\AppData\Local\Temp\ccBEkVPc.s:31640  .debug_str:0000000000029f23 .LASF5416
C:\Users\CYMR90~1\AppData\Local\Temp\ccBEkVPc.s:26611  .debug_str:0000000000015c64 .LASF5417
C:\Users\CYMR90~1\AppData\Local\Temp\ccBEkVPc.s:28724  .debug_str:000000000001e6e6 .LASF5418
C:\Users\CYMR90~1\AppData\Local\Temp\ccBEkVPc.s:25001  .debug_str:000000000000f631 .LASF5419
C:\Users\CYMR90~1\AppData\Local\Temp\ccBEkVPc.s:24989  .debug_str:000000000000f584 .LASF5420
C:\Users\CYMR90~1\AppData\Local\Temp\ccBEkVPc.s:29088  .debug_str:000000000001fce5 .LASF5421
C:\Users\CYMR90~1\AppData\Local\Temp\ccBEkVPc.s:30762  .debug_str:0000000000026621 .LASF5422
C:\Users\CYMR90~1\AppData\Local\Temp\ccBEkVPc.s:21517  .debug_str:0000000000001833 .LASF5423
C:\Users\CYMR90~1\AppData\Local\Temp\ccBEkVPc.s:27740  .debug_str:000000000001a75a .LASF5424
C:\Users\CYMR90~1\AppData\Local\Temp\ccBEkVPc.s:21325  .debug_str:0000000000000c08 .LASF5425
C:\Users\CYMR90~1\AppData\Local\Temp\ccBEkVPc.s:27052  .debug_str:0000000000017ab7 .LASF5426
C:\Users\CYMR90~1\AppData\Local\Temp\ccBEkVPc.s:21633  .debug_str:0000000000001ef9 .LASF5427
C:\Users\CYMR90~1\AppData\Local\Temp\ccBEkVPc.s:26607  .debug_str:0000000000015bce .LASF5428
C:\Users\CYMR90~1\AppData\Local\Temp\ccBEkVPc.s:24743  .debug_str:000000000000e66e .LASF5429
C:\Users\CYMR90~1\AppData\Local\Temp\ccBEkVPc.s:25487  .debug_str:000000000001140b .LASF5430
C:\Users\CYMR90~1\AppData\Local\Temp\ccBEkVPc.s:23871  .debug_str:000000000000ae09 .LASF5431
C:\Users\CYMR90~1\AppData\Local\Temp\ccBEkVPc.s:22145  .debug_str:0000000000003f60 .LASF5432
C:\Users\CYMR90~1\AppData\Local\Temp\ccBEkVPc.s:32036  .debug_str:000000000002b768 .LASF5433
C:\Users\CYMR90~1\AppData\Local\Temp\ccBEkVPc.s:31428  .debug_str:00000000000291f1 .LASF5434
C:\Users\CYMR90~1\AppData\Local\Temp\ccBEkVPc.s:29332  .debug_str:0000000000020bd6 .LASF5435
C:\Users\CYMR90~1\AppData\Local\Temp\ccBEkVPc.s:30020  .debug_str:00000000000234ed .LASF5436
C:\Users\CYMR90~1\AppData\Local\Temp\ccBEkVPc.s:25165  .debug_str:00000000000100ce .LASF5437
C:\Users\CYMR90~1\AppData\Local\Temp\ccBEkVPc.s:21427  .debug_str:0000000000001231 .LASF5438
C:\Users\CYMR90~1\AppData\Local\Temp\ccBEkVPc.s:31954  .debug_str:000000000002b1cd .LASF5439
C:\Users\CYMR90~1\AppData\Local\Temp\ccBEkVPc.s:29656  .debug_str:0000000000021ff9 .LASF5440
C:\Users\CYMR90~1\AppData\Local\Temp\ccBEkVPc.s:28580  .debug_str:000000000001de15 .LASF5441
C:\Users\CYMR90~1\AppData\Local\Temp\ccBEkVPc.s:25171  .debug_str:0000000000010124 .LASF5442
C:\Users\CYMR90~1\AppData\Local\Temp\ccBEkVPc.s:21605  .debug_str:0000000000001d48 .LASF5443
C:\Users\CYMR90~1\AppData\Local\Temp\ccBEkVPc.s:27846  .debug_str:000000000001ae2e .LASF5444
C:\Users\CYMR90~1\AppData\Local\Temp\ccBEkVPc.s:24617  .debug_str:000000000000deda .LASF5445
C:\Users\CYMR90~1\AppData\Local\Temp\ccBEkVPc.s:26167  .debug_str:00000000000140e5 .LASF5446
C:\Users\CYMR90~1\AppData\Local\Temp\ccBEkVPc.s:31252  .debug_str:00000000000286cd .LASF5447
C:\Users\CYMR90~1\AppData\Local\Temp\ccBEkVPc.s:32188  .debug_str:000000000002c1e8 .LASF5448
C:\Users\CYMR90~1\AppData\Local\Temp\ccBEkVPc.s:22555  .debug_str:0000000000005a0f .LASF5449
C:\Users\CYMR90~1\AppData\Local\Temp\ccBEkVPc.s:27216  .debug_str:000000000001845b .LASF5450
C:\Users\CYMR90~1\AppData\Local\Temp\ccBEkVPc.s:26453  .debug_str:0000000000015325 .LASF5451
C:\Users\CYMR90~1\AppData\Local\Temp\ccBEkVPc.s:32022  .debug_str:000000000002b685 .LASF5452
C:\Users\CYMR90~1\AppData\Local\Temp\ccBEkVPc.s:30630  .debug_str:0000000000025df9 .LASF5453
C:\Users\CYMR90~1\AppData\Local\Temp\ccBEkVPc.s:22643  .debug_str:0000000000005f49 .LASF5454
C:\Users\CYMR90~1\AppData\Local\Temp\ccBEkVPc.s:26395  .debug_str:0000000000014f79 .LASF5455
C:\Users\CYMR90~1\AppData\Local\Temp\ccBEkVPc.s:25631  .debug_str:0000000000011e27 .LASF5456
C:\Users\CYMR90~1\AppData\Local\Temp\ccBEkVPc.s:30458  .debug_str:0000000000025168 .LASF5457
C:\Users\CYMR90~1\AppData\Local\Temp\ccBEkVPc.s:26389  .debug_str:0000000000014eeb .LASF5458
C:\Users\CYMR90~1\AppData\Local\Temp\ccBEkVPc.s:31364  .debug_str:0000000000028dc2 .LASF5459
C:\Users\CYMR90~1\AppData\Local\Temp\ccBEkVPc.s:21249  .debug_str:0000000000000701 .LASF5460
C:\Users\CYMR90~1\AppData\Local\Temp\ccBEkVPc.s:28004  .debug_str:000000000001b885 .LASF5461
C:\Users\CYMR90~1\AppData\Local\Temp\ccBEkVPc.s:26449  .debug_str:00000000000152c4 .LASF5462
C:\Users\CYMR90~1\AppData\Local\Temp\ccBEkVPc.s:30524  .debug_str:00000000000256c9 .LASF5463
C:\Users\CYMR90~1\AppData\Local\Temp\ccBEkVPc.s:26313  .debug_str:00000000000149d7 .LASF5464
C:\Users\CYMR90~1\AppData\Local\Temp\ccBEkVPc.s:24417  .debug_str:000000000000d25e .LASF5465
C:\Users\CYMR90~1\AppData\Local\Temp\ccBEkVPc.s:26571  .debug_str:00000000000159ac .LASF5466
C:\Users\CYMR90~1\AppData\Local\Temp\ccBEkVPc.s:31502  .debug_str:00000000000296e0 .LASF5467
C:\Users\CYMR90~1\AppData\Local\Temp\ccBEkVPc.s:22077  .debug_str:0000000000003aca .LASF5468
C:\Users\CYMR90~1\AppData\Local\Temp\ccBEkVPc.s:30678  .debug_str:0000000000026122 .LASF5469
C:\Users\CYMR90~1\AppData\Local\Temp\ccBEkVPc.s:30922  .debug_str:000000000002701a .LASF5470
C:\Users\CYMR90~1\AppData\Local\Temp\ccBEkVPc.s:31582  .debug_str:0000000000029bbd .LASF5471
C:\Users\CYMR90~1\AppData\Local\Temp\ccBEkVPc.s:24839  .debug_str:000000000000ecdc .LASF5472
C:\Users\CYMR90~1\AppData\Local\Temp\ccBEkVPc.s:28628  .debug_str:000000000001e124 .LASF5473
C:\Users\CYMR90~1\AppData\Local\Temp\ccBEkVPc.s:26633  .debug_str:0000000000015dc7 .LASF5474
C:\Users\CYMR90~1\AppData\Local\Temp\ccBEkVPc.s:25501  .debug_str:0000000000011500 .LASF5475
C:\Users\CYMR90~1\AppData\Local\Temp\ccBEkVPc.s:29418  .debug_str:00000000000210fb .LASF5476
C:\Users\CYMR90~1\AppData\Local\Temp\ccBEkVPc.s:27916  .debug_str:000000000001b332 .LASF5477
C:\Users\CYMR90~1\AppData\Local\Temp\ccBEkVPc.s:27782  .debug_str:000000000001aa67 .LASF5478
C:\Users\CYMR90~1\AppData\Local\Temp\ccBEkVPc.s:21137  .debug_str:000000000000006a .LASF5479
C:\Users\CYMR90~1\AppData\Local\Temp\ccBEkVPc.s:25061  .debug_str:000000000000fa44 .LASF5480
C:\Users\CYMR90~1\AppData\Local\Temp\ccBEkVPc.s:22849  .debug_str:0000000000006c0a .LASF5481
C:\Users\CYMR90~1\AppData\Local\Temp\ccBEkVPc.s:23579  .debug_str:0000000000009c42 .LASF5482
C:\Users\CYMR90~1\AppData\Local\Temp\ccBEkVPc.s:24537  .debug_str:000000000000da12 .LASF5483
C:\Users\CYMR90~1\AppData\Local\Temp\ccBEkVPc.s:24531  .debug_str:000000000000d9b5 .LASF5484
C:\Users\CYMR90~1\AppData\Local\Temp\ccBEkVPc.s:28630  .debug_str:000000000001e146 .LASF5485
C:\Users\CYMR90~1\AppData\Local\Temp\ccBEkVPc.s:29792  .debug_str:00000000000227b9 .LASF5486
C:\Users\CYMR90~1\AppData\Local\Temp\ccBEkVPc.s:23903  .debug_str:000000000000b0dd .LASF5487
C:\Users\CYMR90~1\AppData\Local\Temp\ccBEkVPc.s:25415  .debug_str:0000000000010ff9 .LASF5488
C:\Users\CYMR90~1\AppData\Local\Temp\ccBEkVPc.s:31912  .debug_str:000000000002af6b .LASF5489
C:\Users\CYMR90~1\AppData\Local\Temp\ccBEkVPc.s:23749  .debug_str:000000000000a69d .LASF5490
C:\Users\CYMR90~1\AppData\Local\Temp\ccBEkVPc.s:28396  .debug_str:000000000001d251 .LASF5491
C:\Users\CYMR90~1\AppData\Local\Temp\ccBEkVPc.s:28050  .debug_str:000000000001bb14 .LASF5492
C:\Users\CYMR90~1\AppData\Local\Temp\ccBEkVPc.s:24401  .debug_str:000000000000d143 .LASF5493
C:\Users\CYMR90~1\AppData\Local\Temp\ccBEkVPc.s:28764  .debug_str:000000000001e971 .LASF5494
C:\Users\CYMR90~1\AppData\Local\Temp\ccBEkVPc.s:22935  .debug_str:00000000000071cb .LASF5495
C:\Users\CYMR90~1\AppData\Local\Temp\ccBEkVPc.s:21387  .debug_str:0000000000000fed .LASF5496
C:\Users\CYMR90~1\AppData\Local\Temp\ccBEkVPc.s:29916  .debug_str:0000000000022f39 .LASF5497
C:\Users\CYMR90~1\AppData\Local\Temp\ccBEkVPc.s:24213  .debug_str:000000000000c4a5 .LASF5498
C:\Users\CYMR90~1\AppData\Local\Temp\ccBEkVPc.s:26683  .debug_str:0000000000016169 .LASF5499
C:\Users\CYMR90~1\AppData\Local\Temp\ccBEkVPc.s:24121  .debug_str:000000000000bf29 .LASF5500
C:\Users\CYMR90~1\AppData\Local\Temp\ccBEkVPc.s:24247  .debug_str:000000000000c6a4 .LASF5501
C:\Users\CYMR90~1\AppData\Local\Temp\ccBEkVPc.s:30438  .debug_str:0000000000024fc0 .LASF5502
C:\Users\CYMR90~1\AppData\Local\Temp\ccBEkVPc.s:22357  .debug_str:0000000000004df7 .LASF5503
C:\Users\CYMR90~1\AppData\Local\Temp\ccBEkVPc.s:28070  .debug_str:000000000001bc24 .LASF5504
C:\Users\CYMR90~1\AppData\Local\Temp\ccBEkVPc.s:23511  .debug_str:00000000000097af .LASF5505
C:\Users\CYMR90~1\AppData\Local\Temp\ccBEkVPc.s:27358  .debug_str:0000000000018db7 .LASF5506
C:\Users\CYMR90~1\AppData\Local\Temp\ccBEkVPc.s:29844  .debug_str:0000000000022aa6 .LASF5507
C:\Users\CYMR90~1\AppData\Local\Temp\ccBEkVPc.s:22611  .debug_str:0000000000005d86 .LASF5508
C:\Users\CYMR90~1\AppData\Local\Temp\ccBEkVPc.s:21399  .debug_str:0000000000001094 .LASF5509
C:\Users\CYMR90~1\AppData\Local\Temp\ccBEkVPc.s:26531  .debug_str:0000000000015735 .LASF5510
C:\Users\CYMR90~1\AppData\Local\Temp\ccBEkVPc.s:21343  .debug_str:0000000000000cfc .LASF5511
C:\Users\CYMR90~1\AppData\Local\Temp\ccBEkVPc.s:28984  .debug_str:000000000001f69e .LASF5512
C:\Users\CYMR90~1\AppData\Local\Temp\ccBEkVPc.s:24621  .debug_str:000000000000df18 .LASF5513
C:\Users\CYMR90~1\AppData\Local\Temp\ccBEkVPc.s:32142  .debug_str:000000000002beb0 .LASF5514
C:\Users\CYMR90~1\AppData\Local\Temp\ccBEkVPc.s:23597  .debug_str:0000000000009d7b .LASF5515
C:\Users\CYMR90~1\AppData\Local\Temp\ccBEkVPc.s:25953  .debug_str:00000000000133c7 .LASF5516
C:\Users\CYMR90~1\AppData\Local\Temp\ccBEkVPc.s:28080  .debug_str:000000000001bcf4 .LASF5517
C:\Users\CYMR90~1\AppData\Local\Temp\ccBEkVPc.s:21679  .debug_str:000000000000215a .LASF5518
C:\Users\CYMR90~1\AppData\Local\Temp\ccBEkVPc.s:21613  .debug_str:0000000000001ddb .LASF5519
C:\Users\CYMR90~1\AppData\Local\Temp\ccBEkVPc.s:32350  .debug_str:000000000002cc87 .LASF5520
C:\Users\CYMR90~1\AppData\Local\Temp\ccBEkVPc.s:25431  .debug_str:00000000000110dc .LASF5521
C:\Users\CYMR90~1\AppData\Local\Temp\ccBEkVPc.s:28878  .debug_str:000000000001eff2 .LASF5522
C:\Users\CYMR90~1\AppData\Local\Temp\ccBEkVPc.s:26237  .debug_str:00000000000144d8 .LASF5523
C:\Users\CYMR90~1\AppData\Local\Temp\ccBEkVPc.s:31790  .debug_str:000000000002a81e .LASF5524
C:\Users\CYMR90~1\AppData\Local\Temp\ccBEkVPc.s:29804  .debug_str:0000000000022867 .LASF5525
C:\Users\CYMR90~1\AppData\Local\Temp\ccBEkVPc.s:31040  .debug_str:00000000000277d7 .LASF5526
C:\Users\CYMR90~1\AppData\Local\Temp\ccBEkVPc.s:31490  .debug_str:0000000000029657 .LASF5527
C:\Users\CYMR90~1\AppData\Local\Temp\ccBEkVPc.s:32148  .debug_str:000000000002bef9 .LASF5528
C:\Users\CYMR90~1\AppData\Local\Temp\ccBEkVPc.s:26213  .debug_str:0000000000014398 .LASF5529
C:\Users\CYMR90~1\AppData\Local\Temp\ccBEkVPc.s:22291  .debug_str:00000000000049d5 .LASF5530
C:\Users\CYMR90~1\AppData\Local\Temp\ccBEkVPc.s:32380  .debug_str:000000000002cee2 .LASF5531
C:\Users\CYMR90~1\AppData\Local\Temp\ccBEkVPc.s:28962  .debug_str:000000000001f54e .LASF5532
C:\Users\CYMR90~1\AppData\Local\Temp\ccBEkVPc.s:23215  .debug_str:000000000000858a .LASF5533
C:\Users\CYMR90~1\AppData\Local\Temp\ccBEkVPc.s:29954  .debug_str:0000000000023146 .LASF5534
C:\Users\CYMR90~1\AppData\Local\Temp\ccBEkVPc.s:32144  .debug_str:000000000002bed2 .LASF5535
C:\Users\CYMR90~1\AppData\Local\Temp\ccBEkVPc.s:22637  .debug_str:0000000000005eee .LASF5536
C:\Users\CYMR90~1\AppData\Local\Temp\ccBEkVPc.s:26703  .debug_str:0000000000016289 .LASF5537
C:\Users\CYMR90~1\AppData\Local\Temp\ccBEkVPc.s:25537  .debug_str:0000000000011741 .LASF5538
C:\Users\CYMR90~1\AppData\Local\Temp\ccBEkVPc.s:28012  .debug_str:000000000001b909 .LASF5539
C:\Users\CYMR90~1\AppData\Local\Temp\ccBEkVPc.s:29554  .debug_str:00000000000219c4 .LASF5540
C:\Users\CYMR90~1\AppData\Local\Temp\ccBEkVPc.s:22191  .debug_str:0000000000004288 .LASF5541
C:\Users\CYMR90~1\AppData\Local\Temp\ccBEkVPc.s:29346  .debug_str:0000000000020ce2 .LASF5542
C:\Users\CYMR90~1\AppData\Local\Temp\ccBEkVPc.s:26659  .debug_str:0000000000015fa6 .LASF5543
C:\Users\CYMR90~1\AppData\Local\Temp\ccBEkVPc.s:31426  .debug_str:00000000000291cc .LASF5544
C:\Users\CYMR90~1\AppData\Local\Temp\ccBEkVPc.s:23813  .debug_str:000000000000aa77 .LASF5545
C:\Users\CYMR90~1\AppData\Local\Temp\ccBEkVPc.s:27700  .debug_str:000000000001a512 .LASF5546
C:\Users\CYMR90~1\AppData\Local\Temp\ccBEkVPc.s:31234  .debug_str:000000000002858c .LASF5547
C:\Users\CYMR90~1\AppData\Local\Temp\ccBEkVPc.s:21529  .debug_str:00000000000018fd .LASF5548
C:\Users\CYMR90~1\AppData\Local\Temp\ccBEkVPc.s:23323  .debug_str:0000000000008c12 .LASF5549
C:\Users\CYMR90~1\AppData\Local\Temp\ccBEkVPc.s:21339  .debug_str:0000000000000cc5 .LASF5550
C:\Users\CYMR90~1\AppData\Local\Temp\ccBEkVPc.s:27842  .debug_str:000000000001adf7 .LASF5551
C:\Users\CYMR90~1\AppData\Local\Temp\ccBEkVPc.s:30098  .debug_str:0000000000023a0b .LASF5552
C:\Users\CYMR90~1\AppData\Local\Temp\ccBEkVPc.s:21625  .debug_str:0000000000001e9b .LASF5553
C:\Users\CYMR90~1\AppData\Local\Temp\ccBEkVPc.s:22235  .debug_str:0000000000004593 .LASF5554
C:\Users\CYMR90~1\AppData\Local\Temp\ccBEkVPc.s:21439  .debug_str:00000000000012c6 .LASF5555
                           .group:0000000000000000 wm4.0.10abbef32179bc1260444192115bdf5e
                           .group:0000000000000000 wm4.stddef.h.39.144cf5ddcd53cbfdac30259dc1a6c87f
                           .group:0000000000000000 wm4._newlib_version.h.4.bfdf54b0af045d4a71376ae00f63a22c
                           .group:0000000000000000 wm4.newlib.h.18.08a2ecba46890ca2aa56bbe21686e6c3
                           .group:0000000000000000 wm4.ieeefp.h.202.4f2759f5758fd82153cfbf98692f2ced
                           .group:0000000000000000 wm4.features.h.22.fad1cec3bc7ff06488171438dbdcfd02
                           .group:0000000000000000 wm4.config.h.83.13bbc8852bfac55b724c9822481355b5
                           .group:0000000000000000 wm4._ansi.h.31.de524f58584151836e90d8620a16f8e8
                           .group:0000000000000000 wm4.stdio.h.31.7c0e28c411445f3f9c5b11accf882760
                           .group:0000000000000000 wm4._default_types.h.6.959254cf5f09734ea7516c89e8bb21bd
                           .group:0000000000000000 wm4.stddef.h.155.ba788add86a0e365f264484f110c3c29
                           .group:0000000000000000 wm4.cdefs.h.49.39045112216f6a021dbdffe3bf5accce
                           .group:0000000000000000 wm4.stdarg.h.34.3a23a216c0c293b3d2ea2e89281481e6
                           .group:0000000000000000 wm4._types.h.20.dd0d04dca3800a0d2a6129b87f3adbb2
                           .group:0000000000000000 wm4.stddef.h.155.3588ebfdd1e8c7ede80509bb9c3b8009
                           .group:0000000000000000 wm4._types.h.127.34941de1b2539d59d5cac00e0dd27a45
                           .group:0000000000000000 wm4.reent.h.17.e292bf8b0bec6c96e131a54347145a30
                           .group:0000000000000000 wm4.lock.h.2.c0958401bd0ce484d507ee19aacab817
                           .group:0000000000000000 wm4.reent.h.77.dcd6129ff07fe81bd5636db29abe53b2
                           .group:0000000000000000 wm4.types.h.40.8b6acba56cefbb11746718204edc8f5e
                           .group:0000000000000000 wm4._stdint.h.10.c24fa3af3bc1706662bb5593a907e841
                           .group:0000000000000000 wm4._endian.h.18.1bf9649e8e5bbc91042012680270b9ed
                           .group:0000000000000000 wm4.endian.h.9.49f3a4695c1b61e8a0808de3c4a106cb
                           .group:0000000000000000 wm4._timeval.h.32.bec3221fa7a9bb0bdde696c9c57e47d2
                           .group:0000000000000000 wm4.timespec.h.41.d855182eb0e690443ab8651bcedca6e1
                           .group:0000000000000000 wm4.select.h.19.40cd3f2bfc456b193b790c2754690ebf
                           .group:0000000000000000 wm4.types.h.51.5571ec98f267d17d3c670b7a3ba33afa
                           .group:0000000000000000 wm4.sched.h.22.c60982713a5c428609783c78f9c78d95
                           .group:0000000000000000 wm4._pthreadtypes.h.36.fcee9961c35163dde6267ef772ad1972
                           .group:0000000000000000 wm4.stdio.h.2.4aa87247282eca6c8f36f9de33d8df1a
                           .group:0000000000000000 wm4.stdio.h.81.932d0c162786b883f622b8d05c120c78
                           .group:0000000000000000 wm4.gd32vw55x.h.47.379378190858578060a317909b2c8d8a
                           .group:0000000000000000 wm4._intsup.h.10.48bafbb683905c4daa4565a85aeeb264
                           .group:0000000000000000 wm4.stdint.h.23.d53047a68f4a85177f80b422d52785ed
                           .group:0000000000000000 wm4.nmsis_version.h.19.ffa173da8efb17b1050904994d6f500e
                           .group:0000000000000000 wm4.riscv_bits.h.19.ee94eb3d39937793d4cd0a62363e5d00
                           .group:0000000000000000 wm4.riscv_encoding.h.35.f5d37fad7abbab8278b4bb6f1e32fa65
                           .group:0000000000000000 wm4.nmsis_gcc.h.61.5d70d7598ffc79c3c991d847a574cf23
                           .group:0000000000000000 wm4.core_feature_base.h.20.e99d3e75c26a8f3341d35bf20d0e1d20
                           .group:0000000000000000 wm4.core_feature_fpu.h.19.695f2200274659b530cb97cda749ff4f
                           .group:0000000000000000 wm4.core_feature_dsp.h.19.e8f8d7aa42f197807aefedb6584486cd
                           .group:0000000000000000 wm4.core_compatiable.h.19.5b8282d61b1f6889a82895616b730084
                           .group:0000000000000000 wm4.core_feature_eclic.h.19.e0c091d0cbda79e8b3b031b979ebd5a1
                           .group:0000000000000000 wm4.core_feature_timer.h.19.21a5151282de34c37dfa6d84e262aa54
                           .group:0000000000000000 wm4.system_gd32vw55x.h.32.f1fcb1212d387c35ac955b0e96ada468
                           .group:0000000000000000 wm4.gd32vw55x.h.231.3529c650aff38c9372f7e03177fd2c8a
                           .group:0000000000000000 wm4.gd32vw55x_adc.h.42.ae73acec1704ef509ccecb41a875b50e
                           .group:0000000000000000 wm4.gd32vw55x_cau.h.36.c98428fe1eae7edb4721da5c8078c974
                           .group:0000000000000000 wm4.gd32vw55x_crc.h.37.c58f296814c2300a4b067c08bd88d54e
                           .group:0000000000000000 wm4.gd32vw55x_dbg.h.36.311650c8545549d482ceca8befc5a232
                           .group:0000000000000000 wm4.gd32vw55x_dma.h.36.f4adc751172b2a7b1533dda72e948737
                           .group:0000000000000000 wm4.gd32vw55x_eclic.h.36.0411499f2b2493c67246e32ccae096c1
                           .group:0000000000000000 wm4.gd32vw55x_efuse.h.36.091404cecbab70359dfd93faec5fdb62
                           .group:0000000000000000 wm4.gd32vw55x_exti.h.36.de7508334dd12f1a6a673521a1a835f5
                           .group:0000000000000000 wm4.gd32vw55x_fwdgt.h.36.4846b6900fd24b5bfce4986c9a8ce677
                           .group:0000000000000000 wm4.gd32vw55x_gpio.h.36.adfee1371bb58d3d9043c47bdb25a90f
                           .group:0000000000000000 wm4.gd32vw55x_hau.h.36.f3cbcbd7b67c9e5bdc7a1100b1bf3458
                           .group:0000000000000000 wm4.gd32vw55x_i2c.h.36.3848990933925e084eb427083790c53f
                           .group:0000000000000000 wm4.gd32vw55x_pkcau.h.36.bb2235f4cf4967063a51bfa9aca5ef27
                           .group:0000000000000000 wm4.gd32vw55x_pmu.h.36.4c76091f1415551526d489ccf2c42052
                           .group:0000000000000000 wm4.gd32vw55x_qspi.h.36.2d2c181cfe19b935a9641008fc786613
                           .group:0000000000000000 wm4.gd32vw55x_rcu.h.36.780a8a45c00d563711cceb445027ef47
                           .group:0000000000000000 wm4.gd32vw55x_rtc.h.36.3172855e8715659e080e0eab46fdf175
                           .group:0000000000000000 wm4.gd32vw55x_spi.h.36.9fa1be2b09fb73e4b5886e97f0e96d58
                           .group:0000000000000000 wm4.gd32vw55x_syscfg.h.36.010551f05591f5e34051d2e15df0352b
                           .group:0000000000000000 wm4.gd32vw55x_timer.h.38.2cbee78ea60d47145be361b2d2c55070
                           .group:0000000000000000 wm4.gd32vw55x_trng.h.36.c9e7807af1b1ab68d3bbb54f4ed5cd73
                           .group:0000000000000000 wm4.gd32vw55x_usart.h.36.f5c497cca17945a34f154b0e17017d02
                           .group:0000000000000000 wm4.gd32vw55x_wwdgt.h.36.f7a443b7302efc0e5c335888582ee197
                           .group:0000000000000000 wm4.gd32vw55x_fmc.h.41.19f631b44741defa5abffa92dca975b8

NO UNDEFINED SYMBOLS
