   1              		.file	"gd32vw55x_gpio.c"
   2              		.option nopic
   3              		.attribute arch, "rv32i2p0_m2p0_a2p0_c2p0"
   4              		.attribute unaligned_access, 0
   5              		.attribute stack_align, 16
   6              		.text
   7              	.Ltext0:
   8              		.cfi_sections	.debug_frame
   9              		.section	.text.gpio_deinit,"ax",@progbits
  10              		.align	1
  11              		.globl	gpio_deinit
  13              	gpio_deinit:
  14              	.LFB347:
  15              		.file 1 "../Firmware/GD32VW55x_standard_peripheral/Source/gd32vw55x_gpio.c"
   1:../Firmware/GD32VW55x_standard_peripheral/Source/gd32vw55x_gpio.c **** /*!
   2:../Firmware/GD32VW55x_standard_peripheral/Source/gd32vw55x_gpio.c ****     \file    gd32vw55x_gpio.c
   3:../Firmware/GD32VW55x_standard_peripheral/Source/gd32vw55x_gpio.c ****     \brief   GPIO driver
   4:../Firmware/GD32VW55x_standard_peripheral/Source/gd32vw55x_gpio.c **** 
   5:../Firmware/GD32VW55x_standard_peripheral/Source/gd32vw55x_gpio.c ****     \version 2025-01-16, V1.4.0, firmware for GD32VW55x
   6:../Firmware/GD32VW55x_standard_peripheral/Source/gd32vw55x_gpio.c **** */
   7:../Firmware/GD32VW55x_standard_peripheral/Source/gd32vw55x_gpio.c **** 
   8:../Firmware/GD32VW55x_standard_peripheral/Source/gd32vw55x_gpio.c **** /*
   9:../Firmware/GD32VW55x_standard_peripheral/Source/gd32vw55x_gpio.c ****     Copyright (c) 2025, GigaDevice Semiconductor Inc.
  10:../Firmware/GD32VW55x_standard_peripheral/Source/gd32vw55x_gpio.c **** 
  11:../Firmware/GD32VW55x_standard_peripheral/Source/gd32vw55x_gpio.c ****     Redistribution and use in source and binary forms, with or without modification,
  12:../Firmware/GD32VW55x_standard_peripheral/Source/gd32vw55x_gpio.c **** are permitted provided that the following conditions are met:
  13:../Firmware/GD32VW55x_standard_peripheral/Source/gd32vw55x_gpio.c **** 
  14:../Firmware/GD32VW55x_standard_peripheral/Source/gd32vw55x_gpio.c ****     1. Redistributions of source code must retain the above copyright notice, this
  15:../Firmware/GD32VW55x_standard_peripheral/Source/gd32vw55x_gpio.c ****        list of conditions and the following disclaimer.
  16:../Firmware/GD32VW55x_standard_peripheral/Source/gd32vw55x_gpio.c ****     2. Redistributions in binary form must reproduce the above copyright notice,
  17:../Firmware/GD32VW55x_standard_peripheral/Source/gd32vw55x_gpio.c ****        this list of conditions and the following disclaimer in the documentation
  18:../Firmware/GD32VW55x_standard_peripheral/Source/gd32vw55x_gpio.c ****        and/or other materials provided with the distribution.
  19:../Firmware/GD32VW55x_standard_peripheral/Source/gd32vw55x_gpio.c ****     3. Neither the name of the copyright holder nor the names of its contributors
  20:../Firmware/GD32VW55x_standard_peripheral/Source/gd32vw55x_gpio.c ****        may be used to endorse or promote products derived from this software without
  21:../Firmware/GD32VW55x_standard_peripheral/Source/gd32vw55x_gpio.c ****        specific prior written permission.
  22:../Firmware/GD32VW55x_standard_peripheral/Source/gd32vw55x_gpio.c **** 
  23:../Firmware/GD32VW55x_standard_peripheral/Source/gd32vw55x_gpio.c ****     THIS SOFTWARE IS PROVIDED BY THE COPYRIGHT HOLDERS AND CONTRIBUTORS "AS IS"
  24:../Firmware/GD32VW55x_standard_peripheral/Source/gd32vw55x_gpio.c **** AND ANY EXPRESS OR IMPLIED WARRANTIES, INCLUDING, BUT NOT LIMITED TO, THE IMPLIED
  25:../Firmware/GD32VW55x_standard_peripheral/Source/gd32vw55x_gpio.c **** WARRANTIES OF MERCHANTABILITY AND FITNESS FOR A PARTICULAR PURPOSE ARE DISCLAIMED.
  26:../Firmware/GD32VW55x_standard_peripheral/Source/gd32vw55x_gpio.c **** IN NO EVENT SHALL THE COPYRIGHT HOLDER OR CONTRIBUTORS BE LIABLE FOR ANY DIRECT,
  27:../Firmware/GD32VW55x_standard_peripheral/Source/gd32vw55x_gpio.c **** INDIRECT, INCIDENTAL, SPECIAL, EXEMPLARY, OR CONSEQUENTIAL DAMAGES (INCLUDING, BUT
  28:../Firmware/GD32VW55x_standard_peripheral/Source/gd32vw55x_gpio.c **** NOT LIMITED TO, PROCUREMENT OF SUBSTITUTE GOODS OR SERVICES; LOSS OF USE, DATA, OR
  29:../Firmware/GD32VW55x_standard_peripheral/Source/gd32vw55x_gpio.c **** PROFITS; OR BUSINESS INTERRUPTION) HOWEVER CAUSED AND ON ANY THEORY OF LIABILITY,
  30:../Firmware/GD32VW55x_standard_peripheral/Source/gd32vw55x_gpio.c **** WHETHER IN CONTRACT, STRICT LIABILITY, OR TORT (INCLUDING NEGLIGENCE OR OTHERWISE)
  31:../Firmware/GD32VW55x_standard_peripheral/Source/gd32vw55x_gpio.c **** ARISING IN ANY WAY OUT OF THE USE OF THIS SOFTWARE, EVEN IF ADVISED OF THE POSSIBILITY
  32:../Firmware/GD32VW55x_standard_peripheral/Source/gd32vw55x_gpio.c **** OF SUCH DAMAGE.
  33:../Firmware/GD32VW55x_standard_peripheral/Source/gd32vw55x_gpio.c **** */
  34:../Firmware/GD32VW55x_standard_peripheral/Source/gd32vw55x_gpio.c **** 
  35:../Firmware/GD32VW55x_standard_peripheral/Source/gd32vw55x_gpio.c **** #include "gd32vw55x_gpio.h"
  36:../Firmware/GD32VW55x_standard_peripheral/Source/gd32vw55x_gpio.c **** 
  37:../Firmware/GD32VW55x_standard_peripheral/Source/gd32vw55x_gpio.c **** /*!
  38:../Firmware/GD32VW55x_standard_peripheral/Source/gd32vw55x_gpio.c ****     \brief      reset GPIO port
  39:../Firmware/GD32VW55x_standard_peripheral/Source/gd32vw55x_gpio.c ****     \param[in]  gpio_periph: GPIOx(x = A,B,C)
  40:../Firmware/GD32VW55x_standard_peripheral/Source/gd32vw55x_gpio.c ****                 only one parameter can be selected which is shown as below:
  41:../Firmware/GD32VW55x_standard_peripheral/Source/gd32vw55x_gpio.c ****       \arg        GPIOx(x = A,B,C)
  42:../Firmware/GD32VW55x_standard_peripheral/Source/gd32vw55x_gpio.c ****     \param[out] none
  43:../Firmware/GD32VW55x_standard_peripheral/Source/gd32vw55x_gpio.c ****     \retval     none
  44:../Firmware/GD32VW55x_standard_peripheral/Source/gd32vw55x_gpio.c **** */
  45:../Firmware/GD32VW55x_standard_peripheral/Source/gd32vw55x_gpio.c **** void gpio_deinit(uint32_t gpio_periph)
  46:../Firmware/GD32VW55x_standard_peripheral/Source/gd32vw55x_gpio.c **** {
  16              		.loc 1 46 1
  17              		.cfi_startproc
  18 0000 0111     		addi	sp,sp,-32
  19              		.cfi_def_cfa_offset 32
  20 0002 06CE     		sw	ra,28(sp)
  21 0004 22CC     		sw	s0,24(sp)
  22              		.cfi_offset 1, -4
  23              		.cfi_offset 8, -8
  24 0006 0010     		addi	s0,sp,32
  25              		.cfi_def_cfa 8, 0
  26 0008 2326A4FE 		sw	a0,-20(s0)
  47:../Firmware/GD32VW55x_standard_peripheral/Source/gd32vw55x_gpio.c ****     switch(gpio_periph) {
  27              		.loc 1 47 5
  28 000c 0327C4FE 		lw	a4,-20(s0)
  29 0010 B7170240 		li	a5,1073876992
  30 0014 93870780 		addi	a5,a5,-2048
  31 0018 6303F706 		beq	a4,a5,.L2
  32 001c 0327C4FE 		lw	a4,-20(s0)
  33 0020 B7170240 		li	a5,1073876992
  34 0024 93870780 		addi	a5,a5,-2048
  35 0028 63E8E706 		bgtu	a4,a5,.L7
  36 002c 0327C4FE 		lw	a4,-20(s0)
  37 0030 B7070240 		li	a5,1073872896
  38 0034 630BF700 		beq	a4,a5,.L4
  39 0038 0327C4FE 		lw	a4,-20(s0)
  40 003c B7070240 		li	a5,1073872896
  41 0040 93870740 		addi	a5,a5,1024
  42 0044 6300F702 		beq	a4,a5,.L5
  48:../Firmware/GD32VW55x_standard_peripheral/Source/gd32vw55x_gpio.c ****     case GPIOA:
  49:../Firmware/GD32VW55x_standard_peripheral/Source/gd32vw55x_gpio.c ****         /* reset GPIOA */
  50:../Firmware/GD32VW55x_standard_peripheral/Source/gd32vw55x_gpio.c ****         rcu_periph_reset_enable(RCU_GPIOARST);
  51:../Firmware/GD32VW55x_standard_peripheral/Source/gd32vw55x_gpio.c ****         rcu_periph_reset_disable(RCU_GPIOARST);
  52:../Firmware/GD32VW55x_standard_peripheral/Source/gd32vw55x_gpio.c ****         break;
  53:../Firmware/GD32VW55x_standard_peripheral/Source/gd32vw55x_gpio.c ****     case GPIOB:
  54:../Firmware/GD32VW55x_standard_peripheral/Source/gd32vw55x_gpio.c ****         /* reset GPIOB */
  55:../Firmware/GD32VW55x_standard_peripheral/Source/gd32vw55x_gpio.c ****         rcu_periph_reset_enable(RCU_GPIOBRST);
  56:../Firmware/GD32VW55x_standard_peripheral/Source/gd32vw55x_gpio.c ****         rcu_periph_reset_disable(RCU_GPIOBRST);
  57:../Firmware/GD32VW55x_standard_peripheral/Source/gd32vw55x_gpio.c ****         break;
  58:../Firmware/GD32VW55x_standard_peripheral/Source/gd32vw55x_gpio.c ****     case GPIOC:
  59:../Firmware/GD32VW55x_standard_peripheral/Source/gd32vw55x_gpio.c ****         /* reset GPIOC */
  60:../Firmware/GD32VW55x_standard_peripheral/Source/gd32vw55x_gpio.c ****         rcu_periph_reset_enable(RCU_GPIOCRST);
  61:../Firmware/GD32VW55x_standard_peripheral/Source/gd32vw55x_gpio.c ****         rcu_periph_reset_disable(RCU_GPIOCRST);
  62:../Firmware/GD32VW55x_standard_peripheral/Source/gd32vw55x_gpio.c ****         break;
  63:../Firmware/GD32VW55x_standard_peripheral/Source/gd32vw55x_gpio.c ****     default:
  64:../Firmware/GD32VW55x_standard_peripheral/Source/gd32vw55x_gpio.c ****         break;
  43              		.loc 1 64 9
  44 0048 81A8     		j	.L7
  45              	.L4:
  50:../Firmware/GD32VW55x_standard_peripheral/Source/gd32vw55x_gpio.c ****         rcu_periph_reset_disable(RCU_GPIOARST);
  46              		.loc 1 50 9
  47 004a 13050040 		li	a0,1024
  48 004e 97000000 		call	rcu_periph_reset_enable
  48      E7800000 
  51:../Firmware/GD32VW55x_standard_peripheral/Source/gd32vw55x_gpio.c ****         break;
  49              		.loc 1 51 9
  50 0056 13050040 		li	a0,1024
  51 005a 97000000 		call	rcu_periph_reset_disable
  51      E7800000 
  52:../Firmware/GD32VW55x_standard_peripheral/Source/gd32vw55x_gpio.c ****     case GPIOB:
  52              		.loc 1 52 9
  53 0062 25A8     		j	.L6
  54              	.L5:
  55:../Firmware/GD32VW55x_standard_peripheral/Source/gd32vw55x_gpio.c ****         rcu_periph_reset_disable(RCU_GPIOBRST);
  55              		.loc 1 55 9
  56 0064 13051040 		li	a0,1025
  57 0068 97000000 		call	rcu_periph_reset_enable
  57      E7800000 
  56:../Firmware/GD32VW55x_standard_peripheral/Source/gd32vw55x_gpio.c ****         break;
  58              		.loc 1 56 9
  59 0070 13051040 		li	a0,1025
  60 0074 97000000 		call	rcu_periph_reset_disable
  60      E7800000 
  57:../Firmware/GD32VW55x_standard_peripheral/Source/gd32vw55x_gpio.c ****     case GPIOC:
  61              		.loc 1 57 9
  62 007c 39A8     		j	.L6
  63              	.L2:
  60:../Firmware/GD32VW55x_standard_peripheral/Source/gd32vw55x_gpio.c ****         rcu_periph_reset_disable(RCU_GPIOCRST);
  64              		.loc 1 60 9
  65 007e 13052040 		li	a0,1026
  66 0082 97000000 		call	rcu_periph_reset_enable
  66      E7800000 
  61:../Firmware/GD32VW55x_standard_peripheral/Source/gd32vw55x_gpio.c ****         break;
  67              		.loc 1 61 9
  68 008a 13052040 		li	a0,1026
  69 008e 97000000 		call	rcu_periph_reset_disable
  69      E7800000 
  62:../Firmware/GD32VW55x_standard_peripheral/Source/gd32vw55x_gpio.c ****     default:
  70              		.loc 1 62 9
  71 0096 11A0     		j	.L6
  72              	.L7:
  73              		.loc 1 64 9
  74 0098 0100     		nop
  75              	.L6:
  65:../Firmware/GD32VW55x_standard_peripheral/Source/gd32vw55x_gpio.c ****     }
  66:../Firmware/GD32VW55x_standard_peripheral/Source/gd32vw55x_gpio.c **** }
  76              		.loc 1 66 1
  77 009a 0100     		nop
  78 009c F240     		lw	ra,28(sp)
  79              		.cfi_restore 1
  80 009e 6244     		lw	s0,24(sp)
  81              		.cfi_restore 8
  82              		.cfi_def_cfa 2, 32
  83 00a0 0561     		addi	sp,sp,32
  84              		.cfi_def_cfa_offset 0
  85 00a2 8280     		jr	ra
  86              		.cfi_endproc
  87              	.LFE347:
  89              		.section	.text.gpio_mode_set,"ax",@progbits
  90              		.align	1
  91              		.globl	gpio_mode_set
  93              	gpio_mode_set:
  94              	.LFB348:
  67:../Firmware/GD32VW55x_standard_peripheral/Source/gd32vw55x_gpio.c **** 
  68:../Firmware/GD32VW55x_standard_peripheral/Source/gd32vw55x_gpio.c **** /*!
  69:../Firmware/GD32VW55x_standard_peripheral/Source/gd32vw55x_gpio.c ****     \brief      set GPIO mode
  70:../Firmware/GD32VW55x_standard_peripheral/Source/gd32vw55x_gpio.c ****     \param[in]  gpio_periph: GPIOx(x = A,B,C)
  71:../Firmware/GD32VW55x_standard_peripheral/Source/gd32vw55x_gpio.c ****                 only one parameter can be selected which is shown as below:
  72:../Firmware/GD32VW55x_standard_peripheral/Source/gd32vw55x_gpio.c ****       \arg        GPIOx(x = A,B,C)
  73:../Firmware/GD32VW55x_standard_peripheral/Source/gd32vw55x_gpio.c ****     \param[in]  mode: gpio pin mode
  74:../Firmware/GD32VW55x_standard_peripheral/Source/gd32vw55x_gpio.c ****                 only one parameter can be selected which is shown as below:
  75:../Firmware/GD32VW55x_standard_peripheral/Source/gd32vw55x_gpio.c ****       \arg        GPIO_MODE_INPUT: input mode
  76:../Firmware/GD32VW55x_standard_peripheral/Source/gd32vw55x_gpio.c ****       \arg        GPIO_MODE_OUTPUT: output mode
  77:../Firmware/GD32VW55x_standard_peripheral/Source/gd32vw55x_gpio.c ****       \arg        GPIO_MODE_AF: alternate function mode
  78:../Firmware/GD32VW55x_standard_peripheral/Source/gd32vw55x_gpio.c ****       \arg        GPIO_MODE_ANALOG: analog mode
  79:../Firmware/GD32VW55x_standard_peripheral/Source/gd32vw55x_gpio.c ****     \param[in]  pull_up_down: gpio pin with pull-up or pull-down resistor
  80:../Firmware/GD32VW55x_standard_peripheral/Source/gd32vw55x_gpio.c ****                 only one parameter can be selected which is shown as below:
  81:../Firmware/GD32VW55x_standard_peripheral/Source/gd32vw55x_gpio.c ****       \arg        GPIO_PUPD_NONE: floating mode, no pull-up and pull-down resistors
  82:../Firmware/GD32VW55x_standard_peripheral/Source/gd32vw55x_gpio.c ****       \arg        GPIO_PUPD_PULLUP: with pull-up resistor
  83:../Firmware/GD32VW55x_standard_peripheral/Source/gd32vw55x_gpio.c ****       \arg        GPIO_PUPD_PULLDOWN:with pull-down resistor
  84:../Firmware/GD32VW55x_standard_peripheral/Source/gd32vw55x_gpio.c ****     \param[in]  pin: GPIO pin
  85:../Firmware/GD32VW55x_standard_peripheral/Source/gd32vw55x_gpio.c ****                 one or more parameters can be selected which are shown as below:
  86:../Firmware/GD32VW55x_standard_peripheral/Source/gd32vw55x_gpio.c ****       \arg        GPIO_PIN_x(x=0..15), GPIO_PIN_ALL
  87:../Firmware/GD32VW55x_standard_peripheral/Source/gd32vw55x_gpio.c ****     \param[out] none
  88:../Firmware/GD32VW55x_standard_peripheral/Source/gd32vw55x_gpio.c ****     \retval     none
  89:../Firmware/GD32VW55x_standard_peripheral/Source/gd32vw55x_gpio.c **** */
  90:../Firmware/GD32VW55x_standard_peripheral/Source/gd32vw55x_gpio.c **** void gpio_mode_set(uint32_t gpio_periph, uint32_t mode, uint32_t pull_up_down, uint32_t pin)
  91:../Firmware/GD32VW55x_standard_peripheral/Source/gd32vw55x_gpio.c **** {
  95              		.loc 1 91 1
  96              		.cfi_startproc
  97 0000 7971     		addi	sp,sp,-48
  98              		.cfi_def_cfa_offset 48
  99 0002 22D6     		sw	s0,44(sp)
 100              		.cfi_offset 8, -4
 101 0004 0018     		addi	s0,sp,48
 102              		.cfi_def_cfa 8, 0
 103 0006 232EA4FC 		sw	a0,-36(s0)
 104 000a 232CB4FC 		sw	a1,-40(s0)
 105 000e 232AC4FC 		sw	a2,-44(s0)
 106 0012 2328D4FC 		sw	a3,-48(s0)
  92:../Firmware/GD32VW55x_standard_peripheral/Source/gd32vw55x_gpio.c ****     uint16_t i;
  93:../Firmware/GD32VW55x_standard_peripheral/Source/gd32vw55x_gpio.c ****     uint32_t ctl, pupd;
  94:../Firmware/GD32VW55x_standard_peripheral/Source/gd32vw55x_gpio.c **** 
  95:../Firmware/GD32VW55x_standard_peripheral/Source/gd32vw55x_gpio.c ****     ctl = GPIO_CTL(gpio_periph);
 107              		.loc 1 95 11
 108 0016 8327C4FD 		lw	a5,-36(s0)
 109              		.loc 1 95 9
 110 001a 9C43     		lw	a5,0(a5)
 111 001c 2324F4FE 		sw	a5,-24(s0)
  96:../Firmware/GD32VW55x_standard_peripheral/Source/gd32vw55x_gpio.c ****     pupd = GPIO_PUD(gpio_periph);
 112              		.loc 1 96 12
 113 0020 8327C4FD 		lw	a5,-36(s0)
 114 0024 B107     		addi	a5,a5,12
 115              		.loc 1 96 10
 116 0026 9C43     		lw	a5,0(a5)
 117 0028 2322F4FE 		sw	a5,-28(s0)
  97:../Firmware/GD32VW55x_standard_peripheral/Source/gd32vw55x_gpio.c **** 
  98:../Firmware/GD32VW55x_standard_peripheral/Source/gd32vw55x_gpio.c ****     for(i = 0U; i < 16U; i++) {
 118              		.loc 1 98 11
 119 002c 231704FE 		sh	zero,-18(s0)
 120              		.loc 1 98 5
 121 0030 49A0     		j	.L9
 122              	.L11:
  99:../Firmware/GD32VW55x_standard_peripheral/Source/gd32vw55x_gpio.c ****         if((1U << i) & pin) {
 123              		.loc 1 99 16
 124 0032 8357E4FE 		lhu	a5,-18(s0)
 125 0036 0547     		li	a4,1
 126 0038 3317F700 		sll	a4,a4,a5
 127              		.loc 1 99 22
 128 003c 832704FD 		lw	a5,-48(s0)
 129 0040 F98F     		and	a5,a4,a5
 130              		.loc 1 99 11
 131 0042 BDC3     		beq	a5,zero,.L10
 100:../Firmware/GD32VW55x_standard_peripheral/Source/gd32vw55x_gpio.c ****             /* clear the specified pin mode bits */
 101:../Firmware/GD32VW55x_standard_peripheral/Source/gd32vw55x_gpio.c ****             ctl &= ~GPIO_MODE_MASK(i);
 132              		.loc 1 101 21
 133 0044 8357E4FE 		lhu	a5,-18(s0)
 134 0048 8607     		slli	a5,a5,1
 135 004a 0D47     		li	a4,3
 136 004c B317F700 		sll	a5,a4,a5
 137              		.loc 1 101 20
 138 0050 93C7F7FF 		not	a5,a5
 139              		.loc 1 101 17
 140 0054 032784FE 		lw	a4,-24(s0)
 141 0058 F98F     		and	a5,a4,a5
 142 005a 2324F4FE 		sw	a5,-24(s0)
 102:../Firmware/GD32VW55x_standard_peripheral/Source/gd32vw55x_gpio.c ****             /* set the specified pin mode bits */
 103:../Firmware/GD32VW55x_standard_peripheral/Source/gd32vw55x_gpio.c ****             ctl |= GPIO_MODE_SET(i, mode);
 143              		.loc 1 103 20
 144 005e 8357E4FE 		lhu	a5,-18(s0)
 145 0062 8607     		slli	a5,a5,1
 146 0064 032784FD 		lw	a4,-40(s0)
 147 0068 B317F700 		sll	a5,a4,a5
 148              		.loc 1 103 17
 149 006c 032784FE 		lw	a4,-24(s0)
 150 0070 D98F     		or	a5,a4,a5
 151 0072 2324F4FE 		sw	a5,-24(s0)
 104:../Firmware/GD32VW55x_standard_peripheral/Source/gd32vw55x_gpio.c **** 
 105:../Firmware/GD32VW55x_standard_peripheral/Source/gd32vw55x_gpio.c ****             /* clear the specified pin pupd bits */
 106:../Firmware/GD32VW55x_standard_peripheral/Source/gd32vw55x_gpio.c ****             pupd &= ~GPIO_PUPD_MASK(i);
 152              		.loc 1 106 22
 153 0076 8357E4FE 		lhu	a5,-18(s0)
 154 007a 8607     		slli	a5,a5,1
 155 007c 0D47     		li	a4,3
 156 007e B317F700 		sll	a5,a4,a5
 157              		.loc 1 106 21
 158 0082 93C7F7FF 		not	a5,a5
 159              		.loc 1 106 18
 160 0086 032744FE 		lw	a4,-28(s0)
 161 008a F98F     		and	a5,a4,a5
 162 008c 2322F4FE 		sw	a5,-28(s0)
 107:../Firmware/GD32VW55x_standard_peripheral/Source/gd32vw55x_gpio.c ****             /* set the specified pin pupd bits */
 108:../Firmware/GD32VW55x_standard_peripheral/Source/gd32vw55x_gpio.c ****             pupd |= GPIO_PUPD_SET(i, pull_up_down);
 163              		.loc 1 108 21
 164 0090 8357E4FE 		lhu	a5,-18(s0)
 165 0094 8607     		slli	a5,a5,1
 166 0096 032744FD 		lw	a4,-44(s0)
 167 009a B317F700 		sll	a5,a4,a5
 168              		.loc 1 108 18
 169 009e 032744FE 		lw	a4,-28(s0)
 170 00a2 D98F     		or	a5,a4,a5
 171 00a4 2322F4FE 		sw	a5,-28(s0)
 172              	.L10:
  98:../Firmware/GD32VW55x_standard_peripheral/Source/gd32vw55x_gpio.c ****         if((1U << i) & pin) {
 173              		.loc 1 98 27 discriminator 2
 174 00a8 8357E4FE 		lhu	a5,-18(s0)
 175 00ac 8507     		addi	a5,a5,1
 176 00ae 2317F4FE 		sh	a5,-18(s0)
 177              	.L9:
  98:../Firmware/GD32VW55x_standard_peripheral/Source/gd32vw55x_gpio.c ****         if((1U << i) & pin) {
 178              		.loc 1 98 5 discriminator 1
 179 00b2 0357E4FE 		lhu	a4,-18(s0)
 180 00b6 BD47     		li	a5,15
 181 00b8 E3FDE7F6 		bleu	a4,a5,.L11
 109:../Firmware/GD32VW55x_standard_peripheral/Source/gd32vw55x_gpio.c ****         }
 110:../Firmware/GD32VW55x_standard_peripheral/Source/gd32vw55x_gpio.c ****     }
 111:../Firmware/GD32VW55x_standard_peripheral/Source/gd32vw55x_gpio.c **** 
 112:../Firmware/GD32VW55x_standard_peripheral/Source/gd32vw55x_gpio.c ****     GPIO_CTL(gpio_periph) = ctl;
 182              		.loc 1 112 5
 183 00bc 8327C4FD 		lw	a5,-36(s0)
 184              		.loc 1 112 27
 185 00c0 032784FE 		lw	a4,-24(s0)
 186 00c4 98C3     		sw	a4,0(a5)
 113:../Firmware/GD32VW55x_standard_peripheral/Source/gd32vw55x_gpio.c ****     GPIO_PUD(gpio_periph) = pupd;
 187              		.loc 1 113 5
 188 00c6 8327C4FD 		lw	a5,-36(s0)
 189 00ca B107     		addi	a5,a5,12
 190 00cc 3E87     		mv	a4,a5
 191              		.loc 1 113 27
 192 00ce 832744FE 		lw	a5,-28(s0)
 193 00d2 1CC3     		sw	a5,0(a4)
 114:../Firmware/GD32VW55x_standard_peripheral/Source/gd32vw55x_gpio.c **** }
 194              		.loc 1 114 1
 195 00d4 0100     		nop
 196 00d6 3254     		lw	s0,44(sp)
 197              		.cfi_restore 8
 198              		.cfi_def_cfa 2, 48
 199 00d8 4561     		addi	sp,sp,48
 200              		.cfi_def_cfa_offset 0
 201 00da 8280     		jr	ra
 202              		.cfi_endproc
 203              	.LFE348:
 205              		.section	.text.gpio_output_options_set,"ax",@progbits
 206              		.align	1
 207              		.globl	gpio_output_options_set
 209              	gpio_output_options_set:
 210              	.LFB349:
 115:../Firmware/GD32VW55x_standard_peripheral/Source/gd32vw55x_gpio.c **** 
 116:../Firmware/GD32VW55x_standard_peripheral/Source/gd32vw55x_gpio.c **** /*!
 117:../Firmware/GD32VW55x_standard_peripheral/Source/gd32vw55x_gpio.c ****     \brief      set GPIO output type and speed
 118:../Firmware/GD32VW55x_standard_peripheral/Source/gd32vw55x_gpio.c ****     \param[in]  gpio_periph: GPIOx(x = A,B,C)
 119:../Firmware/GD32VW55x_standard_peripheral/Source/gd32vw55x_gpio.c ****                 only one parameter can be selected which is shown as below:
 120:../Firmware/GD32VW55x_standard_peripheral/Source/gd32vw55x_gpio.c ****       \arg        GPIOx(x = A,B,C)
 121:../Firmware/GD32VW55x_standard_peripheral/Source/gd32vw55x_gpio.c ****     \param[in]  otype: gpio pin output mode
 122:../Firmware/GD32VW55x_standard_peripheral/Source/gd32vw55x_gpio.c ****                 only one parameter can be selected which is shown as below:
 123:../Firmware/GD32VW55x_standard_peripheral/Source/gd32vw55x_gpio.c ****       \arg        GPIO_OTYPE_PP: push pull mode
 124:../Firmware/GD32VW55x_standard_peripheral/Source/gd32vw55x_gpio.c ****       \arg        GPIO_OTYPE_OD: open drain mode
 125:../Firmware/GD32VW55x_standard_peripheral/Source/gd32vw55x_gpio.c ****     \param[in]  speed: gpio pin output max speed
 126:../Firmware/GD32VW55x_standard_peripheral/Source/gd32vw55x_gpio.c ****                 only one parameter can be selected which is shown as below:
 127:../Firmware/GD32VW55x_standard_peripheral/Source/gd32vw55x_gpio.c ****       \arg        GPIO_OSPEED_2MHZ: output max speed 2MHz
 128:../Firmware/GD32VW55x_standard_peripheral/Source/gd32vw55x_gpio.c ****       \arg        GPIO_OSPEED_10MHZ: output max speed 10MHz
 129:../Firmware/GD32VW55x_standard_peripheral/Source/gd32vw55x_gpio.c ****       \arg        GPIO_OSPEED_25MHZ: output max speed 25MHz
 130:../Firmware/GD32VW55x_standard_peripheral/Source/gd32vw55x_gpio.c ****       \arg        GPIO_OSPEED_MAX: output max speed
 131:../Firmware/GD32VW55x_standard_peripheral/Source/gd32vw55x_gpio.c ****     \param[in]  pin: GPIO pin
 132:../Firmware/GD32VW55x_standard_peripheral/Source/gd32vw55x_gpio.c ****                 one or more parameters can be selected which are shown as below:
 133:../Firmware/GD32VW55x_standard_peripheral/Source/gd32vw55x_gpio.c ****       \arg        GPIO_PIN_x(x=0..15), GPIO_PIN_ALL
 134:../Firmware/GD32VW55x_standard_peripheral/Source/gd32vw55x_gpio.c ****     \param[out] none
 135:../Firmware/GD32VW55x_standard_peripheral/Source/gd32vw55x_gpio.c ****     \retval     none
 136:../Firmware/GD32VW55x_standard_peripheral/Source/gd32vw55x_gpio.c **** */
 137:../Firmware/GD32VW55x_standard_peripheral/Source/gd32vw55x_gpio.c **** void gpio_output_options_set(uint32_t gpio_periph, uint8_t otype, uint32_t speed, uint32_t pin)
 138:../Firmware/GD32VW55x_standard_peripheral/Source/gd32vw55x_gpio.c **** {
 211              		.loc 1 138 1
 212              		.cfi_startproc
 213 0000 7971     		addi	sp,sp,-48
 214              		.cfi_def_cfa_offset 48
 215 0002 22D6     		sw	s0,44(sp)
 216              		.cfi_offset 8, -4
 217 0004 0018     		addi	s0,sp,48
 218              		.cfi_def_cfa 8, 0
 219 0006 232EA4FC 		sw	a0,-36(s0)
 220 000a AE87     		mv	a5,a1
 221 000c 232AC4FC 		sw	a2,-44(s0)
 222 0010 2328D4FC 		sw	a3,-48(s0)
 223 0014 A30DF4FC 		sb	a5,-37(s0)
 139:../Firmware/GD32VW55x_standard_peripheral/Source/gd32vw55x_gpio.c ****     uint16_t i;
 140:../Firmware/GD32VW55x_standard_peripheral/Source/gd32vw55x_gpio.c ****     uint32_t ospeed;
 141:../Firmware/GD32VW55x_standard_peripheral/Source/gd32vw55x_gpio.c **** 
 142:../Firmware/GD32VW55x_standard_peripheral/Source/gd32vw55x_gpio.c ****     if(GPIO_OTYPE_OD == otype) {
 224              		.loc 1 142 7
 225 0018 0347B4FD 		lbu	a4,-37(s0)
 226 001c 8547     		li	a5,1
 227 001e 631FF700 		bne	a4,a5,.L13
 143:../Firmware/GD32VW55x_standard_peripheral/Source/gd32vw55x_gpio.c ****         GPIO_OMODE(gpio_periph) |= (uint32_t)pin;
 228              		.loc 1 143 33
 229 0022 8327C4FD 		lw	a5,-36(s0)
 230 0026 9107     		addi	a5,a5,4
 231 0028 9843     		lw	a4,0(a5)
 232 002a 8327C4FD 		lw	a5,-36(s0)
 233 002e 9107     		addi	a5,a5,4
 234 0030 BE86     		mv	a3,a5
 235 0032 832704FD 		lw	a5,-48(s0)
 236 0036 D98F     		or	a5,a4,a5
 237 0038 9CC2     		sw	a5,0(a3)
 238 003a 31A8     		j	.L14
 239              	.L13:
 144:../Firmware/GD32VW55x_standard_peripheral/Source/gd32vw55x_gpio.c ****     } else {
 145:../Firmware/GD32VW55x_standard_peripheral/Source/gd32vw55x_gpio.c ****         GPIO_OMODE(gpio_periph) &= (uint32_t)(~pin);
 240              		.loc 1 145 33
 241 003c 8327C4FD 		lw	a5,-36(s0)
 242 0040 9107     		addi	a5,a5,4
 243 0042 9843     		lw	a4,0(a5)
 244              		.loc 1 145 47
 245 0044 832704FD 		lw	a5,-48(s0)
 246 0048 93C7F7FF 		not	a5,a5
 247              		.loc 1 145 33
 248 004c 8326C4FD 		lw	a3,-36(s0)
 249 0050 9106     		addi	a3,a3,4
 250 0052 F98F     		and	a5,a4,a5
 251 0054 9CC2     		sw	a5,0(a3)
 252              	.L14:
 146:../Firmware/GD32VW55x_standard_peripheral/Source/gd32vw55x_gpio.c ****     }
 147:../Firmware/GD32VW55x_standard_peripheral/Source/gd32vw55x_gpio.c **** 
 148:../Firmware/GD32VW55x_standard_peripheral/Source/gd32vw55x_gpio.c ****     /* get the specified pin output speed bits value */
 149:../Firmware/GD32VW55x_standard_peripheral/Source/gd32vw55x_gpio.c ****     ospeed = GPIO_OSPD(gpio_periph);
 253              		.loc 1 149 14
 254 0056 8327C4FD 		lw	a5,-36(s0)
 255 005a A107     		addi	a5,a5,8
 256              		.loc 1 149 12
 257 005c 9C43     		lw	a5,0(a5)
 258 005e 2324F4FE 		sw	a5,-24(s0)
 150:../Firmware/GD32VW55x_standard_peripheral/Source/gd32vw55x_gpio.c **** 
 151:../Firmware/GD32VW55x_standard_peripheral/Source/gd32vw55x_gpio.c ****     for(i = 0U; i < 16U; i++) {
 259              		.loc 1 151 11
 260 0062 231704FE 		sh	zero,-18(s0)
 261              		.loc 1 151 5
 262 0066 81A8     		j	.L15
 263              	.L17:
 152:../Firmware/GD32VW55x_standard_peripheral/Source/gd32vw55x_gpio.c ****         if((1U << i) & pin) {
 264              		.loc 1 152 16
 265 0068 8357E4FE 		lhu	a5,-18(s0)
 266 006c 0547     		li	a4,1
 267 006e 3317F700 		sll	a4,a4,a5
 268              		.loc 1 152 22
 269 0072 832704FD 		lw	a5,-48(s0)
 270 0076 F98F     		and	a5,a4,a5
 271              		.loc 1 152 11
 272 0078 95CB     		beq	a5,zero,.L16
 153:../Firmware/GD32VW55x_standard_peripheral/Source/gd32vw55x_gpio.c ****             /* clear the specified pin output speed bits */
 154:../Firmware/GD32VW55x_standard_peripheral/Source/gd32vw55x_gpio.c ****             ospeed &= ~GPIO_OSPEED_MASK(i);
 273              		.loc 1 154 24
 274 007a 8357E4FE 		lhu	a5,-18(s0)
 275 007e 8607     		slli	a5,a5,1
 276 0080 0D47     		li	a4,3
 277 0082 B317F700 		sll	a5,a4,a5
 278              		.loc 1 154 23
 279 0086 93C7F7FF 		not	a5,a5
 280              		.loc 1 154 20
 281 008a 032784FE 		lw	a4,-24(s0)
 282 008e F98F     		and	a5,a4,a5
 283 0090 2324F4FE 		sw	a5,-24(s0)
 155:../Firmware/GD32VW55x_standard_peripheral/Source/gd32vw55x_gpio.c ****             /* set the specified pin output speed bits */
 156:../Firmware/GD32VW55x_standard_peripheral/Source/gd32vw55x_gpio.c ****             ospeed |= GPIO_OSPEED_SET(i, speed);
 284              		.loc 1 156 23
 285 0094 8357E4FE 		lhu	a5,-18(s0)
 286 0098 8607     		slli	a5,a5,1
 287 009a 032744FD 		lw	a4,-44(s0)
 288 009e B317F700 		sll	a5,a4,a5
 289              		.loc 1 156 20
 290 00a2 032784FE 		lw	a4,-24(s0)
 291 00a6 D98F     		or	a5,a4,a5
 292 00a8 2324F4FE 		sw	a5,-24(s0)
 293              	.L16:
 151:../Firmware/GD32VW55x_standard_peripheral/Source/gd32vw55x_gpio.c ****         if((1U << i) & pin) {
 294              		.loc 1 151 27 discriminator 2
 295 00ac 8357E4FE 		lhu	a5,-18(s0)
 296 00b0 8507     		addi	a5,a5,1
 297 00b2 2317F4FE 		sh	a5,-18(s0)
 298              	.L15:
 151:../Firmware/GD32VW55x_standard_peripheral/Source/gd32vw55x_gpio.c ****         if((1U << i) & pin) {
 299              		.loc 1 151 5 discriminator 1
 300 00b6 0357E4FE 		lhu	a4,-18(s0)
 301 00ba BD47     		li	a5,15
 302 00bc E3F6E7FA 		bleu	a4,a5,.L17
 157:../Firmware/GD32VW55x_standard_peripheral/Source/gd32vw55x_gpio.c ****         }
 158:../Firmware/GD32VW55x_standard_peripheral/Source/gd32vw55x_gpio.c ****     }
 159:../Firmware/GD32VW55x_standard_peripheral/Source/gd32vw55x_gpio.c **** 
 160:../Firmware/GD32VW55x_standard_peripheral/Source/gd32vw55x_gpio.c ****     GPIO_OSPD(gpio_periph) = ospeed;
 303              		.loc 1 160 5
 304 00c0 8327C4FD 		lw	a5,-36(s0)
 305 00c4 A107     		addi	a5,a5,8
 306 00c6 3E87     		mv	a4,a5
 307              		.loc 1 160 28
 308 00c8 832784FE 		lw	a5,-24(s0)
 309 00cc 1CC3     		sw	a5,0(a4)
 161:../Firmware/GD32VW55x_standard_peripheral/Source/gd32vw55x_gpio.c **** }
 310              		.loc 1 161 1
 311 00ce 0100     		nop
 312 00d0 3254     		lw	s0,44(sp)
 313              		.cfi_restore 8
 314              		.cfi_def_cfa 2, 48
 315 00d2 4561     		addi	sp,sp,48
 316              		.cfi_def_cfa_offset 0
 317 00d4 8280     		jr	ra
 318              		.cfi_endproc
 319              	.LFE349:
 321              		.section	.text.gpio_bit_set,"ax",@progbits
 322              		.align	1
 323              		.globl	gpio_bit_set
 325              	gpio_bit_set:
 326              	.LFB350:
 162:../Firmware/GD32VW55x_standard_peripheral/Source/gd32vw55x_gpio.c **** 
 163:../Firmware/GD32VW55x_standard_peripheral/Source/gd32vw55x_gpio.c **** /*!
 164:../Firmware/GD32VW55x_standard_peripheral/Source/gd32vw55x_gpio.c ****     \brief      set GPIO pin bit
 165:../Firmware/GD32VW55x_standard_peripheral/Source/gd32vw55x_gpio.c ****     \param[in]  gpio_periph: GPIOx(x = A,B,C)
 166:../Firmware/GD32VW55x_standard_peripheral/Source/gd32vw55x_gpio.c ****                 only one parameter can be selected which is shown as below:
 167:../Firmware/GD32VW55x_standard_peripheral/Source/gd32vw55x_gpio.c ****       \arg        GPIOx(x = A,B,C)
 168:../Firmware/GD32VW55x_standard_peripheral/Source/gd32vw55x_gpio.c ****     \param[in]  pin: GPIO pin
 169:../Firmware/GD32VW55x_standard_peripheral/Source/gd32vw55x_gpio.c ****                 one or more parameters can be selected which are shown as below:
 170:../Firmware/GD32VW55x_standard_peripheral/Source/gd32vw55x_gpio.c ****       \arg        GPIO_PIN_x(x=0..15), GPIO_PIN_ALL
 171:../Firmware/GD32VW55x_standard_peripheral/Source/gd32vw55x_gpio.c ****     \param[out] none
 172:../Firmware/GD32VW55x_standard_peripheral/Source/gd32vw55x_gpio.c ****     \retval     none
 173:../Firmware/GD32VW55x_standard_peripheral/Source/gd32vw55x_gpio.c **** */
 174:../Firmware/GD32VW55x_standard_peripheral/Source/gd32vw55x_gpio.c **** void gpio_bit_set(uint32_t gpio_periph, uint32_t pin)
 175:../Firmware/GD32VW55x_standard_peripheral/Source/gd32vw55x_gpio.c **** {
 327              		.loc 1 175 1
 328              		.cfi_startproc
 329 0000 0111     		addi	sp,sp,-32
 330              		.cfi_def_cfa_offset 32
 331 0002 22CE     		sw	s0,28(sp)
 332              		.cfi_offset 8, -4
 333 0004 0010     		addi	s0,sp,32
 334              		.cfi_def_cfa 8, 0
 335 0006 2326A4FE 		sw	a0,-20(s0)
 336 000a 2324B4FE 		sw	a1,-24(s0)
 176:../Firmware/GD32VW55x_standard_peripheral/Source/gd32vw55x_gpio.c ****     GPIO_BOP(gpio_periph) = (uint32_t)pin;
 337              		.loc 1 176 5
 338 000e 8327C4FE 		lw	a5,-20(s0)
 339 0012 E107     		addi	a5,a5,24
 340 0014 3E87     		mv	a4,a5
 341              		.loc 1 176 27
 342 0016 832784FE 		lw	a5,-24(s0)
 343 001a 1CC3     		sw	a5,0(a4)
 177:../Firmware/GD32VW55x_standard_peripheral/Source/gd32vw55x_gpio.c **** }
 344              		.loc 1 177 1
 345 001c 0100     		nop
 346 001e 7244     		lw	s0,28(sp)
 347              		.cfi_restore 8
 348              		.cfi_def_cfa 2, 32
 349 0020 0561     		addi	sp,sp,32
 350              		.cfi_def_cfa_offset 0
 351 0022 8280     		jr	ra
 352              		.cfi_endproc
 353              	.LFE350:
 355              		.section	.text.gpio_bit_reset,"ax",@progbits
 356              		.align	1
 357              		.globl	gpio_bit_reset
 359              	gpio_bit_reset:
 360              	.LFB351:
 178:../Firmware/GD32VW55x_standard_peripheral/Source/gd32vw55x_gpio.c **** 
 179:../Firmware/GD32VW55x_standard_peripheral/Source/gd32vw55x_gpio.c **** /*!
 180:../Firmware/GD32VW55x_standard_peripheral/Source/gd32vw55x_gpio.c ****     \brief      reset GPIO pin bit
 181:../Firmware/GD32VW55x_standard_peripheral/Source/gd32vw55x_gpio.c ****     \param[in]  gpio_periph: GPIOx(x = A,B,C)
 182:../Firmware/GD32VW55x_standard_peripheral/Source/gd32vw55x_gpio.c ****                 only one parameter can be selected which is shown as below:
 183:../Firmware/GD32VW55x_standard_peripheral/Source/gd32vw55x_gpio.c ****       \arg        GPIOx(x = A,B,C)
 184:../Firmware/GD32VW55x_standard_peripheral/Source/gd32vw55x_gpio.c ****     \param[in]  pin: GPIO pin
 185:../Firmware/GD32VW55x_standard_peripheral/Source/gd32vw55x_gpio.c ****                 one or more parameters can be selected which are shown as below:
 186:../Firmware/GD32VW55x_standard_peripheral/Source/gd32vw55x_gpio.c ****       \arg        GPIO_PIN_x(x=0..15), GPIO_PIN_ALL
 187:../Firmware/GD32VW55x_standard_peripheral/Source/gd32vw55x_gpio.c ****     \param[out] none
 188:../Firmware/GD32VW55x_standard_peripheral/Source/gd32vw55x_gpio.c ****     \retval     none
 189:../Firmware/GD32VW55x_standard_peripheral/Source/gd32vw55x_gpio.c **** */
 190:../Firmware/GD32VW55x_standard_peripheral/Source/gd32vw55x_gpio.c **** void gpio_bit_reset(uint32_t gpio_periph, uint32_t pin)
 191:../Firmware/GD32VW55x_standard_peripheral/Source/gd32vw55x_gpio.c **** {
 361              		.loc 1 191 1
 362              		.cfi_startproc
 363 0000 0111     		addi	sp,sp,-32
 364              		.cfi_def_cfa_offset 32
 365 0002 22CE     		sw	s0,28(sp)
 366              		.cfi_offset 8, -4
 367 0004 0010     		addi	s0,sp,32
 368              		.cfi_def_cfa 8, 0
 369 0006 2326A4FE 		sw	a0,-20(s0)
 370 000a 2324B4FE 		sw	a1,-24(s0)
 192:../Firmware/GD32VW55x_standard_peripheral/Source/gd32vw55x_gpio.c ****     GPIO_BC(gpio_periph) = (uint32_t)pin;
 371              		.loc 1 192 5
 372 000e 8327C4FE 		lw	a5,-20(s0)
 373 0012 93878702 		addi	a5,a5,40
 374 0016 3E87     		mv	a4,a5
 375              		.loc 1 192 26
 376 0018 832784FE 		lw	a5,-24(s0)
 377 001c 1CC3     		sw	a5,0(a4)
 193:../Firmware/GD32VW55x_standard_peripheral/Source/gd32vw55x_gpio.c **** }
 378              		.loc 1 193 1
 379 001e 0100     		nop
 380 0020 7244     		lw	s0,28(sp)
 381              		.cfi_restore 8
 382              		.cfi_def_cfa 2, 32
 383 0022 0561     		addi	sp,sp,32
 384              		.cfi_def_cfa_offset 0
 385 0024 8280     		jr	ra
 386              		.cfi_endproc
 387              	.LFE351:
 389              		.section	.text.gpio_bit_write,"ax",@progbits
 390              		.align	1
 391              		.globl	gpio_bit_write
 393              	gpio_bit_write:
 394              	.LFB352:
 194:../Firmware/GD32VW55x_standard_peripheral/Source/gd32vw55x_gpio.c **** 
 195:../Firmware/GD32VW55x_standard_peripheral/Source/gd32vw55x_gpio.c **** /*!
 196:../Firmware/GD32VW55x_standard_peripheral/Source/gd32vw55x_gpio.c ****     \brief      write data to the specified GPIO pin
 197:../Firmware/GD32VW55x_standard_peripheral/Source/gd32vw55x_gpio.c ****     \param[in]  gpio_periph: GPIOx(x = A,B,C)
 198:../Firmware/GD32VW55x_standard_peripheral/Source/gd32vw55x_gpio.c ****                 only one parameter can be selected which is shown as below:
 199:../Firmware/GD32VW55x_standard_peripheral/Source/gd32vw55x_gpio.c ****       \arg        GPIOx(x = A,B,C)
 200:../Firmware/GD32VW55x_standard_peripheral/Source/gd32vw55x_gpio.c ****     \param[in]  pin: GPIO pin
 201:../Firmware/GD32VW55x_standard_peripheral/Source/gd32vw55x_gpio.c ****                 one or more parameters can be selected which are shown as below:
 202:../Firmware/GD32VW55x_standard_peripheral/Source/gd32vw55x_gpio.c ****       \arg        GPIO_PIN_x(x=0..15), GPIO_PIN_ALL
 203:../Firmware/GD32VW55x_standard_peripheral/Source/gd32vw55x_gpio.c ****     \param[in]  bit_value: SET or RESET
 204:../Firmware/GD32VW55x_standard_peripheral/Source/gd32vw55x_gpio.c ****                 only one parameter can be selected which is shown as below:
 205:../Firmware/GD32VW55x_standard_peripheral/Source/gd32vw55x_gpio.c ****       \arg        RESET: clear the port pin
 206:../Firmware/GD32VW55x_standard_peripheral/Source/gd32vw55x_gpio.c ****       \arg        SET: set the port pin
 207:../Firmware/GD32VW55x_standard_peripheral/Source/gd32vw55x_gpio.c ****     \param[out] none
 208:../Firmware/GD32VW55x_standard_peripheral/Source/gd32vw55x_gpio.c ****     \retval     none
 209:../Firmware/GD32VW55x_standard_peripheral/Source/gd32vw55x_gpio.c **** */
 210:../Firmware/GD32VW55x_standard_peripheral/Source/gd32vw55x_gpio.c **** void gpio_bit_write(uint32_t gpio_periph, uint32_t pin, bit_status bit_value)
 211:../Firmware/GD32VW55x_standard_peripheral/Source/gd32vw55x_gpio.c **** {
 395              		.loc 1 211 1
 396              		.cfi_startproc
 397 0000 0111     		addi	sp,sp,-32
 398              		.cfi_def_cfa_offset 32
 399 0002 22CE     		sw	s0,28(sp)
 400              		.cfi_offset 8, -4
 401 0004 0010     		addi	s0,sp,32
 402              		.cfi_def_cfa 8, 0
 403 0006 2326A4FE 		sw	a0,-20(s0)
 404 000a 2324B4FE 		sw	a1,-24(s0)
 405 000e 2322C4FE 		sw	a2,-28(s0)
 212:../Firmware/GD32VW55x_standard_peripheral/Source/gd32vw55x_gpio.c ****     if(RESET != bit_value) {
 406              		.loc 1 212 7
 407 0012 832744FE 		lw	a5,-28(s0)
 408 0016 89CB     		beq	a5,zero,.L21
 213:../Firmware/GD32VW55x_standard_peripheral/Source/gd32vw55x_gpio.c ****         GPIO_BOP(gpio_periph) = (uint32_t)pin;
 409              		.loc 1 213 9
 410 0018 8327C4FE 		lw	a5,-20(s0)
 411 001c E107     		addi	a5,a5,24
 412 001e 3E87     		mv	a4,a5
 413              		.loc 1 213 31
 414 0020 832784FE 		lw	a5,-24(s0)
 415 0024 1CC3     		sw	a5,0(a4)
 214:../Firmware/GD32VW55x_standard_peripheral/Source/gd32vw55x_gpio.c ****     } else {
 215:../Firmware/GD32VW55x_standard_peripheral/Source/gd32vw55x_gpio.c ****         GPIO_BC(gpio_periph) = (uint32_t)pin;
 216:../Firmware/GD32VW55x_standard_peripheral/Source/gd32vw55x_gpio.c ****     }
 217:../Firmware/GD32VW55x_standard_peripheral/Source/gd32vw55x_gpio.c **** }
 416              		.loc 1 217 1
 417 0026 09A8     		j	.L23
 418              	.L21:
 215:../Firmware/GD32VW55x_standard_peripheral/Source/gd32vw55x_gpio.c ****     }
 419              		.loc 1 215 9
 420 0028 8327C4FE 		lw	a5,-20(s0)
 421 002c 93878702 		addi	a5,a5,40
 422 0030 3E87     		mv	a4,a5
 215:../Firmware/GD32VW55x_standard_peripheral/Source/gd32vw55x_gpio.c ****     }
 423              		.loc 1 215 30
 424 0032 832784FE 		lw	a5,-24(s0)
 425 0036 1CC3     		sw	a5,0(a4)
 426              	.L23:
 427              		.loc 1 217 1
 428 0038 0100     		nop
 429 003a 7244     		lw	s0,28(sp)
 430              		.cfi_restore 8
 431              		.cfi_def_cfa 2, 32
 432 003c 0561     		addi	sp,sp,32
 433              		.cfi_def_cfa_offset 0
 434 003e 8280     		jr	ra
 435              		.cfi_endproc
 436              	.LFE352:
 438              		.section	.text.gpio_port_write,"ax",@progbits
 439              		.align	1
 440              		.globl	gpio_port_write
 442              	gpio_port_write:
 443              	.LFB353:
 218:../Firmware/GD32VW55x_standard_peripheral/Source/gd32vw55x_gpio.c **** 
 219:../Firmware/GD32VW55x_standard_peripheral/Source/gd32vw55x_gpio.c **** /*!
 220:../Firmware/GD32VW55x_standard_peripheral/Source/gd32vw55x_gpio.c ****     \brief      write data to the specified GPIO port
 221:../Firmware/GD32VW55x_standard_peripheral/Source/gd32vw55x_gpio.c ****     \param[in]  gpio_periph: GPIOx(x = A,B,C)
 222:../Firmware/GD32VW55x_standard_peripheral/Source/gd32vw55x_gpio.c ****                 only one parameter can be selected which is shown as below:
 223:../Firmware/GD32VW55x_standard_peripheral/Source/gd32vw55x_gpio.c ****       \arg        GPIOx(x = A,B,C)
 224:../Firmware/GD32VW55x_standard_peripheral/Source/gd32vw55x_gpio.c ****     \param[in]  data: specify the value to be written to the port output control register
 225:../Firmware/GD32VW55x_standard_peripheral/Source/gd32vw55x_gpio.c ****     \param[out] none
 226:../Firmware/GD32VW55x_standard_peripheral/Source/gd32vw55x_gpio.c ****     \retval     none
 227:../Firmware/GD32VW55x_standard_peripheral/Source/gd32vw55x_gpio.c **** */
 228:../Firmware/GD32VW55x_standard_peripheral/Source/gd32vw55x_gpio.c **** void gpio_port_write(uint32_t gpio_periph, uint16_t data)
 229:../Firmware/GD32VW55x_standard_peripheral/Source/gd32vw55x_gpio.c **** {
 444              		.loc 1 229 1
 445              		.cfi_startproc
 446 0000 0111     		addi	sp,sp,-32
 447              		.cfi_def_cfa_offset 32
 448 0002 22CE     		sw	s0,28(sp)
 449              		.cfi_offset 8, -4
 450 0004 0010     		addi	s0,sp,32
 451              		.cfi_def_cfa 8, 0
 452 0006 2326A4FE 		sw	a0,-20(s0)
 453 000a AE87     		mv	a5,a1
 454 000c 2315F4FE 		sh	a5,-22(s0)
 230:../Firmware/GD32VW55x_standard_peripheral/Source/gd32vw55x_gpio.c ****     GPIO_OCTL(gpio_periph) = (uint32_t)data;
 455              		.loc 1 230 5
 456 0010 8327C4FE 		lw	a5,-20(s0)
 457 0014 D107     		addi	a5,a5,20
 458 0016 3E87     		mv	a4,a5
 459              		.loc 1 230 30
 460 0018 8357A4FE 		lhu	a5,-22(s0)
 461              		.loc 1 230 28
 462 001c 1CC3     		sw	a5,0(a4)
 231:../Firmware/GD32VW55x_standard_peripheral/Source/gd32vw55x_gpio.c **** }
 463              		.loc 1 231 1
 464 001e 0100     		nop
 465 0020 7244     		lw	s0,28(sp)
 466              		.cfi_restore 8
 467              		.cfi_def_cfa 2, 32
 468 0022 0561     		addi	sp,sp,32
 469              		.cfi_def_cfa_offset 0
 470 0024 8280     		jr	ra
 471              		.cfi_endproc
 472              	.LFE353:
 474              		.section	.text.gpio_input_bit_get,"ax",@progbits
 475              		.align	1
 476              		.globl	gpio_input_bit_get
 478              	gpio_input_bit_get:
 479              	.LFB354:
 232:../Firmware/GD32VW55x_standard_peripheral/Source/gd32vw55x_gpio.c **** 
 233:../Firmware/GD32VW55x_standard_peripheral/Source/gd32vw55x_gpio.c **** /*!
 234:../Firmware/GD32VW55x_standard_peripheral/Source/gd32vw55x_gpio.c ****     \brief      get GPIO pin input status
 235:../Firmware/GD32VW55x_standard_peripheral/Source/gd32vw55x_gpio.c ****     \param[in]  gpio_periph: GPIOx(x = A,B,C)
 236:../Firmware/GD32VW55x_standard_peripheral/Source/gd32vw55x_gpio.c ****                 only one parameter can be selected which is shown as below:
 237:../Firmware/GD32VW55x_standard_peripheral/Source/gd32vw55x_gpio.c ****       \arg        GPIOx(x = A,B,C)
 238:../Firmware/GD32VW55x_standard_peripheral/Source/gd32vw55x_gpio.c ****     \param[in]  pin: GPIO pin
 239:../Firmware/GD32VW55x_standard_peripheral/Source/gd32vw55x_gpio.c ****                 one or more parameters can be selected which are shown as below:
 240:../Firmware/GD32VW55x_standard_peripheral/Source/gd32vw55x_gpio.c ****       \arg        GPIO_PIN_x(x=0..15), GPIO_PIN_ALL
 241:../Firmware/GD32VW55x_standard_peripheral/Source/gd32vw55x_gpio.c ****     \param[out] none
 242:../Firmware/GD32VW55x_standard_peripheral/Source/gd32vw55x_gpio.c ****     \retval     SET or RESET
 243:../Firmware/GD32VW55x_standard_peripheral/Source/gd32vw55x_gpio.c **** */
 244:../Firmware/GD32VW55x_standard_peripheral/Source/gd32vw55x_gpio.c **** FlagStatus gpio_input_bit_get(uint32_t gpio_periph, uint32_t pin)
 245:../Firmware/GD32VW55x_standard_peripheral/Source/gd32vw55x_gpio.c **** {
 480              		.loc 1 245 1
 481              		.cfi_startproc
 482 0000 0111     		addi	sp,sp,-32
 483              		.cfi_def_cfa_offset 32
 484 0002 22CE     		sw	s0,28(sp)
 485              		.cfi_offset 8, -4
 486 0004 0010     		addi	s0,sp,32
 487              		.cfi_def_cfa 8, 0
 488 0006 2326A4FE 		sw	a0,-20(s0)
 489 000a 2324B4FE 		sw	a1,-24(s0)
 246:../Firmware/GD32VW55x_standard_peripheral/Source/gd32vw55x_gpio.c ****     if((uint32_t)RESET != (GPIO_ISTAT(gpio_periph) & (pin))) {
 490              		.loc 1 246 28
 491 000e 8327C4FE 		lw	a5,-20(s0)
 492 0012 C107     		addi	a5,a5,16
 493 0014 9843     		lw	a4,0(a5)
 494              		.loc 1 246 52
 495 0016 832784FE 		lw	a5,-24(s0)
 496 001a F98F     		and	a5,a4,a5
 497              		.loc 1 246 7
 498 001c 99C3     		beq	a5,zero,.L26
 247:../Firmware/GD32VW55x_standard_peripheral/Source/gd32vw55x_gpio.c ****         return SET;
 499              		.loc 1 247 16
 500 001e 8547     		li	a5,1
 501 0020 11A0     		j	.L27
 502              	.L26:
 248:../Firmware/GD32VW55x_standard_peripheral/Source/gd32vw55x_gpio.c ****     } else {
 249:../Firmware/GD32VW55x_standard_peripheral/Source/gd32vw55x_gpio.c ****         return RESET;
 503              		.loc 1 249 16
 504 0022 8147     		li	a5,0
 505              	.L27:
 250:../Firmware/GD32VW55x_standard_peripheral/Source/gd32vw55x_gpio.c ****     }
 251:../Firmware/GD32VW55x_standard_peripheral/Source/gd32vw55x_gpio.c **** }
 506              		.loc 1 251 1
 507 0024 3E85     		mv	a0,a5
 508 0026 7244     		lw	s0,28(sp)
 509              		.cfi_restore 8
 510              		.cfi_def_cfa 2, 32
 511 0028 0561     		addi	sp,sp,32
 512              		.cfi_def_cfa_offset 0
 513 002a 8280     		jr	ra
 514              		.cfi_endproc
 515              	.LFE354:
 517              		.section	.text.gpio_input_port_get,"ax",@progbits
 518              		.align	1
 519              		.globl	gpio_input_port_get
 521              	gpio_input_port_get:
 522              	.LFB355:
 252:../Firmware/GD32VW55x_standard_peripheral/Source/gd32vw55x_gpio.c **** 
 253:../Firmware/GD32VW55x_standard_peripheral/Source/gd32vw55x_gpio.c **** /*!
 254:../Firmware/GD32VW55x_standard_peripheral/Source/gd32vw55x_gpio.c ****     \brief      get GPIO port input status
 255:../Firmware/GD32VW55x_standard_peripheral/Source/gd32vw55x_gpio.c ****     \param[in]  gpio_periph: GPIOx(x = A,B,C)
 256:../Firmware/GD32VW55x_standard_peripheral/Source/gd32vw55x_gpio.c ****                 only one parameter can be selected which is shown as below:
 257:../Firmware/GD32VW55x_standard_peripheral/Source/gd32vw55x_gpio.c ****       \arg        GPIOx(x = A,B,C)
 258:../Firmware/GD32VW55x_standard_peripheral/Source/gd32vw55x_gpio.c ****     \param[out] none
 259:../Firmware/GD32VW55x_standard_peripheral/Source/gd32vw55x_gpio.c ****     \retval     state of GPIO all pins:0x0000-0xFFFF
 260:../Firmware/GD32VW55x_standard_peripheral/Source/gd32vw55x_gpio.c **** */
 261:../Firmware/GD32VW55x_standard_peripheral/Source/gd32vw55x_gpio.c **** uint16_t gpio_input_port_get(uint32_t gpio_periph)
 262:../Firmware/GD32VW55x_standard_peripheral/Source/gd32vw55x_gpio.c **** {
 523              		.loc 1 262 1
 524              		.cfi_startproc
 525 0000 0111     		addi	sp,sp,-32
 526              		.cfi_def_cfa_offset 32
 527 0002 22CE     		sw	s0,28(sp)
 528              		.cfi_offset 8, -4
 529 0004 0010     		addi	s0,sp,32
 530              		.cfi_def_cfa 8, 0
 531 0006 2326A4FE 		sw	a0,-20(s0)
 263:../Firmware/GD32VW55x_standard_peripheral/Source/gd32vw55x_gpio.c ****     return ((uint16_t)GPIO_ISTAT(gpio_periph));
 532              		.loc 1 263 23
 533 000a 8327C4FE 		lw	a5,-20(s0)
 534 000e C107     		addi	a5,a5,16
 535 0010 9C43     		lw	a5,0(a5)
 536              		.loc 1 263 13
 537 0012 C207     		slli	a5,a5,16
 538 0014 C183     		srli	a5,a5,16
 264:../Firmware/GD32VW55x_standard_peripheral/Source/gd32vw55x_gpio.c **** }
 539              		.loc 1 264 1
 540 0016 3E85     		mv	a0,a5
 541 0018 7244     		lw	s0,28(sp)
 542              		.cfi_restore 8
 543              		.cfi_def_cfa 2, 32
 544 001a 0561     		addi	sp,sp,32
 545              		.cfi_def_cfa_offset 0
 546 001c 8280     		jr	ra
 547              		.cfi_endproc
 548              	.LFE355:
 550              		.section	.text.gpio_output_bit_get,"ax",@progbits
 551              		.align	1
 552              		.globl	gpio_output_bit_get
 554              	gpio_output_bit_get:
 555              	.LFB356:
 265:../Firmware/GD32VW55x_standard_peripheral/Source/gd32vw55x_gpio.c **** 
 266:../Firmware/GD32VW55x_standard_peripheral/Source/gd32vw55x_gpio.c **** /*!
 267:../Firmware/GD32VW55x_standard_peripheral/Source/gd32vw55x_gpio.c ****     \brief      get GPIO pin output status
 268:../Firmware/GD32VW55x_standard_peripheral/Source/gd32vw55x_gpio.c ****     \param[in]  gpio_periph: GPIOx(x = A,B,C)
 269:../Firmware/GD32VW55x_standard_peripheral/Source/gd32vw55x_gpio.c ****                 only one parameter can be selected which is shown as below:
 270:../Firmware/GD32VW55x_standard_peripheral/Source/gd32vw55x_gpio.c ****       \arg        GPIOx(x = A,B,C)
 271:../Firmware/GD32VW55x_standard_peripheral/Source/gd32vw55x_gpio.c ****     \param[in]  pin: GPIO pin
 272:../Firmware/GD32VW55x_standard_peripheral/Source/gd32vw55x_gpio.c ****                 one or more parameters can be selected which are shown as below:
 273:../Firmware/GD32VW55x_standard_peripheral/Source/gd32vw55x_gpio.c ****       \arg        GPIO_PIN_x(x=0..15), GPIO_PIN_ALL
 274:../Firmware/GD32VW55x_standard_peripheral/Source/gd32vw55x_gpio.c ****     \param[out] none
 275:../Firmware/GD32VW55x_standard_peripheral/Source/gd32vw55x_gpio.c ****     \retval     SET or RESET
 276:../Firmware/GD32VW55x_standard_peripheral/Source/gd32vw55x_gpio.c **** */
 277:../Firmware/GD32VW55x_standard_peripheral/Source/gd32vw55x_gpio.c **** FlagStatus gpio_output_bit_get(uint32_t gpio_periph, uint32_t pin)
 278:../Firmware/GD32VW55x_standard_peripheral/Source/gd32vw55x_gpio.c **** {
 556              		.loc 1 278 1
 557              		.cfi_startproc
 558 0000 0111     		addi	sp,sp,-32
 559              		.cfi_def_cfa_offset 32
 560 0002 22CE     		sw	s0,28(sp)
 561              		.cfi_offset 8, -4
 562 0004 0010     		addi	s0,sp,32
 563              		.cfi_def_cfa 8, 0
 564 0006 2326A4FE 		sw	a0,-20(s0)
 565 000a 2324B4FE 		sw	a1,-24(s0)
 279:../Firmware/GD32VW55x_standard_peripheral/Source/gd32vw55x_gpio.c ****     if((uint32_t)RESET != (GPIO_OCTL(gpio_periph) & (pin))) {
 566              		.loc 1 279 28
 567 000e 8327C4FE 		lw	a5,-20(s0)
 568 0012 D107     		addi	a5,a5,20
 569 0014 9843     		lw	a4,0(a5)
 570              		.loc 1 279 51
 571 0016 832784FE 		lw	a5,-24(s0)
 572 001a F98F     		and	a5,a4,a5
 573              		.loc 1 279 7
 574 001c 99C3     		beq	a5,zero,.L31
 280:../Firmware/GD32VW55x_standard_peripheral/Source/gd32vw55x_gpio.c ****         return SET;
 575              		.loc 1 280 16
 576 001e 8547     		li	a5,1
 577 0020 11A0     		j	.L32
 578              	.L31:
 281:../Firmware/GD32VW55x_standard_peripheral/Source/gd32vw55x_gpio.c ****     } else {
 282:../Firmware/GD32VW55x_standard_peripheral/Source/gd32vw55x_gpio.c ****         return RESET;
 579              		.loc 1 282 16
 580 0022 8147     		li	a5,0
 581              	.L32:
 283:../Firmware/GD32VW55x_standard_peripheral/Source/gd32vw55x_gpio.c ****     }
 284:../Firmware/GD32VW55x_standard_peripheral/Source/gd32vw55x_gpio.c **** }
 582              		.loc 1 284 1
 583 0024 3E85     		mv	a0,a5
 584 0026 7244     		lw	s0,28(sp)
 585              		.cfi_restore 8
 586              		.cfi_def_cfa 2, 32
 587 0028 0561     		addi	sp,sp,32
 588              		.cfi_def_cfa_offset 0
 589 002a 8280     		jr	ra
 590              		.cfi_endproc
 591              	.LFE356:
 593              		.section	.text.gpio_output_port_get,"ax",@progbits
 594              		.align	1
 595              		.globl	gpio_output_port_get
 597              	gpio_output_port_get:
 598              	.LFB357:
 285:../Firmware/GD32VW55x_standard_peripheral/Source/gd32vw55x_gpio.c **** 
 286:../Firmware/GD32VW55x_standard_peripheral/Source/gd32vw55x_gpio.c **** /*!
 287:../Firmware/GD32VW55x_standard_peripheral/Source/gd32vw55x_gpio.c ****     \brief      get GPIO port output status
 288:../Firmware/GD32VW55x_standard_peripheral/Source/gd32vw55x_gpio.c ****     \param[in]  gpio_periph: GPIOx(x = A,B,C)
 289:../Firmware/GD32VW55x_standard_peripheral/Source/gd32vw55x_gpio.c ****                 only one parameter can be selected which is shown as below:
 290:../Firmware/GD32VW55x_standard_peripheral/Source/gd32vw55x_gpio.c ****       \arg        GPIOx(x = A,B,C)
 291:../Firmware/GD32VW55x_standard_peripheral/Source/gd32vw55x_gpio.c ****     \param[out] none
 292:../Firmware/GD32VW55x_standard_peripheral/Source/gd32vw55x_gpio.c ****     \retval     state of GPIO all pins:0x0000-0xFFFF
 293:../Firmware/GD32VW55x_standard_peripheral/Source/gd32vw55x_gpio.c **** */
 294:../Firmware/GD32VW55x_standard_peripheral/Source/gd32vw55x_gpio.c **** uint16_t gpio_output_port_get(uint32_t gpio_periph)
 295:../Firmware/GD32VW55x_standard_peripheral/Source/gd32vw55x_gpio.c **** {
 599              		.loc 1 295 1
 600              		.cfi_startproc
 601 0000 0111     		addi	sp,sp,-32
 602              		.cfi_def_cfa_offset 32
 603 0002 22CE     		sw	s0,28(sp)
 604              		.cfi_offset 8, -4
 605 0004 0010     		addi	s0,sp,32
 606              		.cfi_def_cfa 8, 0
 607 0006 2326A4FE 		sw	a0,-20(s0)
 296:../Firmware/GD32VW55x_standard_peripheral/Source/gd32vw55x_gpio.c ****     return ((uint16_t)GPIO_OCTL(gpio_periph));
 608              		.loc 1 296 23
 609 000a 8327C4FE 		lw	a5,-20(s0)
 610 000e D107     		addi	a5,a5,20
 611 0010 9C43     		lw	a5,0(a5)
 612              		.loc 1 296 13
 613 0012 C207     		slli	a5,a5,16
 614 0014 C183     		srli	a5,a5,16
 297:../Firmware/GD32VW55x_standard_peripheral/Source/gd32vw55x_gpio.c **** }
 615              		.loc 1 297 1
 616 0016 3E85     		mv	a0,a5
 617 0018 7244     		lw	s0,28(sp)
 618              		.cfi_restore 8
 619              		.cfi_def_cfa 2, 32
 620 001a 0561     		addi	sp,sp,32
 621              		.cfi_def_cfa_offset 0
 622 001c 8280     		jr	ra
 623              		.cfi_endproc
 624              	.LFE357:
 626              		.section	.text.gpio_af_set,"ax",@progbits
 627              		.align	1
 628              		.globl	gpio_af_set
 630              	gpio_af_set:
 631              	.LFB358:
 298:../Firmware/GD32VW55x_standard_peripheral/Source/gd32vw55x_gpio.c **** 
 299:../Firmware/GD32VW55x_standard_peripheral/Source/gd32vw55x_gpio.c **** /*!
 300:../Firmware/GD32VW55x_standard_peripheral/Source/gd32vw55x_gpio.c ****     \brief      set GPIO alternate function
 301:../Firmware/GD32VW55x_standard_peripheral/Source/gd32vw55x_gpio.c ****     \param[in]  gpio_periph: GPIOx(x = A,B,C)
 302:../Firmware/GD32VW55x_standard_peripheral/Source/gd32vw55x_gpio.c ****                 only one parameter can be selected which is shown as below:
 303:../Firmware/GD32VW55x_standard_peripheral/Source/gd32vw55x_gpio.c ****       \arg        GPIOx(x = A,B,C)
 304:../Firmware/GD32VW55x_standard_peripheral/Source/gd32vw55x_gpio.c ****     \param[in]  alt_func_num: gpio pin af function
 305:../Firmware/GD32VW55x_standard_peripheral/Source/gd32vw55x_gpio.c ****                 only one parameter can be selected which is shown as below:
 306:../Firmware/GD32VW55x_standard_peripheral/Source/gd32vw55x_gpio.c ****       \arg        GPIO_AF_0: USART0, UART1, I2C1, CK_OUT0, SPI, JTAG, CK_OUT1, RTC_REF, IFRP_OUT
 307:../Firmware/GD32VW55x_standard_peripheral/Source/gd32vw55x_gpio.c ****       \arg        GPIO_AF_1: TIMER0, TIMER1
 308:../Firmware/GD32VW55x_standard_peripheral/Source/gd32vw55x_gpio.c ****       \arg        GPIO_AF_2: USART0, TIMER0, TIMER2, SPI
 309:../Firmware/GD32VW55x_standard_peripheral/Source/gd32vw55x_gpio.c ****       \arg        GPIO_AF_3: QSPI, USART1, TIMER0, TIMER1, TIMER2
 310:../Firmware/GD32VW55x_standard_peripheral/Source/gd32vw55x_gpio.c ****       \arg        GPIO_AF_4: UART1, SPI, I2C0, QSPI, I2C1
 311:../Firmware/GD32VW55x_standard_peripheral/Source/gd32vw55x_gpio.c ****       \arg        GPIO_AF_5: SPI, I2C0
 312:../Firmware/GD32VW55x_standard_peripheral/Source/gd32vw55x_gpio.c ****       \arg        GPIO_AF_6: TIMER0, I2C0, SPI, I2C1
 313:../Firmware/GD32VW55x_standard_peripheral/Source/gd32vw55x_gpio.c ****       \arg        GPIO_AF_7: USART0, UART1, TIMER16, SPI
 314:../Firmware/GD32VW55x_standard_peripheral/Source/gd32vw55x_gpio.c ****       \arg        GPIO_AF_8: USART0, UART1, UART2, TIMER0, TIMER2, TIMER15
 315:../Firmware/GD32VW55x_standard_peripheral/Source/gd32vw55x_gpio.c ****       \arg        GPIO_AF_9: RTC, TIMER0, TIMER1, TIMER16, IFRP_OUT
 316:../Firmware/GD32VW55x_standard_peripheral/Source/gd32vw55x_gpio.c ****       \arg        GPIO_AF_10: UART2, TIMER2, TIMER16
 317:../Firmware/GD32VW55x_standard_peripheral/Source/gd32vw55x_gpio.c ****       \arg        GPIO_AF_11: TIMER0, TIMER15
 318:../Firmware/GD32VW55x_standard_peripheral/Source/gd32vw55x_gpio.c ****     \param[in]  pin: GPIO pin
 319:../Firmware/GD32VW55x_standard_peripheral/Source/gd32vw55x_gpio.c ****                 one or more parameters can be selected which are shown as below:
 320:../Firmware/GD32VW55x_standard_peripheral/Source/gd32vw55x_gpio.c ****       \arg        GPIO_PIN_x(x=0..15), GPIO_PIN_ALL
 321:../Firmware/GD32VW55x_standard_peripheral/Source/gd32vw55x_gpio.c ****     \param[out] none
 322:../Firmware/GD32VW55x_standard_peripheral/Source/gd32vw55x_gpio.c ****     \retval     none
 323:../Firmware/GD32VW55x_standard_peripheral/Source/gd32vw55x_gpio.c **** */
 324:../Firmware/GD32VW55x_standard_peripheral/Source/gd32vw55x_gpio.c **** void gpio_af_set(uint32_t gpio_periph, uint32_t alt_func_num, uint32_t pin)
 325:../Firmware/GD32VW55x_standard_peripheral/Source/gd32vw55x_gpio.c **** {
 632              		.loc 1 325 1
 633              		.cfi_startproc
 634 0000 7971     		addi	sp,sp,-48
 635              		.cfi_def_cfa_offset 48
 636 0002 22D6     		sw	s0,44(sp)
 637              		.cfi_offset 8, -4
 638 0004 0018     		addi	s0,sp,48
 639              		.cfi_def_cfa 8, 0
 640 0006 232EA4FC 		sw	a0,-36(s0)
 641 000a 232CB4FC 		sw	a1,-40(s0)
 642 000e 232AC4FC 		sw	a2,-44(s0)
 326:../Firmware/GD32VW55x_standard_peripheral/Source/gd32vw55x_gpio.c ****     uint16_t i;
 327:../Firmware/GD32VW55x_standard_peripheral/Source/gd32vw55x_gpio.c ****     uint32_t afrl, afrh;
 328:../Firmware/GD32VW55x_standard_peripheral/Source/gd32vw55x_gpio.c **** 
 329:../Firmware/GD32VW55x_standard_peripheral/Source/gd32vw55x_gpio.c ****     afrl = GPIO_AFSEL0(gpio_periph);
 643              		.loc 1 329 12
 644 0012 8327C4FD 		lw	a5,-36(s0)
 645 0016 93870702 		addi	a5,a5,32
 646              		.loc 1 329 10
 647 001a 9C43     		lw	a5,0(a5)
 648 001c 2324F4FE 		sw	a5,-24(s0)
 330:../Firmware/GD32VW55x_standard_peripheral/Source/gd32vw55x_gpio.c ****     afrh = GPIO_AFSEL1(gpio_periph);
 649              		.loc 1 330 12
 650 0020 8327C4FD 		lw	a5,-36(s0)
 651 0024 93874702 		addi	a5,a5,36
 652              		.loc 1 330 10
 653 0028 9C43     		lw	a5,0(a5)
 654 002a 2322F4FE 		sw	a5,-28(s0)
 331:../Firmware/GD32VW55x_standard_peripheral/Source/gd32vw55x_gpio.c **** 
 332:../Firmware/GD32VW55x_standard_peripheral/Source/gd32vw55x_gpio.c ****     for(i = 0U; i < 8U; i++) {
 655              		.loc 1 332 11
 656 002e 231704FE 		sh	zero,-18(s0)
 657              		.loc 1 332 5
 658 0032 81A8     		j	.L36
 659              	.L38:
 333:../Firmware/GD32VW55x_standard_peripheral/Source/gd32vw55x_gpio.c ****         if((1U << i) & pin) {
 660              		.loc 1 333 16
 661 0034 8357E4FE 		lhu	a5,-18(s0)
 662 0038 0547     		li	a4,1
 663 003a 3317F700 		sll	a4,a4,a5
 664              		.loc 1 333 22
 665 003e 832744FD 		lw	a5,-44(s0)
 666 0042 F98F     		and	a5,a4,a5
 667              		.loc 1 333 11
 668 0044 95CB     		beq	a5,zero,.L37
 334:../Firmware/GD32VW55x_standard_peripheral/Source/gd32vw55x_gpio.c ****             /* clear the specified pin alternate function bits */
 335:../Firmware/GD32VW55x_standard_peripheral/Source/gd32vw55x_gpio.c ****             afrl &= ~GPIO_AFR_MASK(i);
 669              		.loc 1 335 22
 670 0046 8357E4FE 		lhu	a5,-18(s0)
 671 004a 8A07     		slli	a5,a5,2
 672 004c 3D47     		li	a4,15
 673 004e B317F700 		sll	a5,a4,a5
 674              		.loc 1 335 21
 675 0052 93C7F7FF 		not	a5,a5
 676              		.loc 1 335 18
 677 0056 032784FE 		lw	a4,-24(s0)
 678 005a F98F     		and	a5,a4,a5
 679 005c 2324F4FE 		sw	a5,-24(s0)
 336:../Firmware/GD32VW55x_standard_peripheral/Source/gd32vw55x_gpio.c ****             afrl |= GPIO_AFR_SET(i, alt_func_num);
 680              		.loc 1 336 21
 681 0060 8357E4FE 		lhu	a5,-18(s0)
 682 0064 8A07     		slli	a5,a5,2
 683 0066 032784FD 		lw	a4,-40(s0)
 684 006a B317F700 		sll	a5,a4,a5
 685              		.loc 1 336 18
 686 006e 032784FE 		lw	a4,-24(s0)
 687 0072 D98F     		or	a5,a4,a5
 688 0074 2324F4FE 		sw	a5,-24(s0)
 689              	.L37:
 332:../Firmware/GD32VW55x_standard_peripheral/Source/gd32vw55x_gpio.c ****         if((1U << i) & pin) {
 690              		.loc 1 332 26 discriminator 2
 691 0078 8357E4FE 		lhu	a5,-18(s0)
 692 007c 8507     		addi	a5,a5,1
 693 007e 2317F4FE 		sh	a5,-18(s0)
 694              	.L36:
 332:../Firmware/GD32VW55x_standard_peripheral/Source/gd32vw55x_gpio.c ****         if((1U << i) & pin) {
 695              		.loc 1 332 5 discriminator 1
 696 0082 0357E4FE 		lhu	a4,-18(s0)
 697 0086 9D47     		li	a5,7
 698 0088 E3F6E7FA 		bleu	a4,a5,.L38
 337:../Firmware/GD32VW55x_standard_peripheral/Source/gd32vw55x_gpio.c ****         }
 338:../Firmware/GD32VW55x_standard_peripheral/Source/gd32vw55x_gpio.c ****     }
 339:../Firmware/GD32VW55x_standard_peripheral/Source/gd32vw55x_gpio.c **** 
 340:../Firmware/GD32VW55x_standard_peripheral/Source/gd32vw55x_gpio.c ****     for(i = 8U; i < 16U; i++) {
 699              		.loc 1 340 11
 700 008c A147     		li	a5,8
 701 008e 2317F4FE 		sh	a5,-18(s0)
 702              		.loc 1 340 5
 703 0092 91A8     		j	.L39
 704              	.L41:
 341:../Firmware/GD32VW55x_standard_peripheral/Source/gd32vw55x_gpio.c ****         if((1U << i) & pin) {
 705              		.loc 1 341 16
 706 0094 8357E4FE 		lhu	a5,-18(s0)
 707 0098 0547     		li	a4,1
 708 009a 3317F700 		sll	a4,a4,a5
 709              		.loc 1 341 22
 710 009e 832744FD 		lw	a5,-44(s0)
 711 00a2 F98F     		and	a5,a4,a5
 712              		.loc 1 341 11
 713 00a4 85CF     		beq	a5,zero,.L40
 342:../Firmware/GD32VW55x_standard_peripheral/Source/gd32vw55x_gpio.c ****             /* clear the specified pin alternate function bits */
 343:../Firmware/GD32VW55x_standard_peripheral/Source/gd32vw55x_gpio.c ****             afrh &= ~GPIO_AFR_MASK(i - 8U);
 714              		.loc 1 343 22
 715 00a6 8357E4FE 		lhu	a5,-18(s0)
 716 00aa E117     		addi	a5,a5,-8
 717 00ac 8A07     		slli	a5,a5,2
 718 00ae 3D47     		li	a4,15
 719 00b0 B317F700 		sll	a5,a4,a5
 720              		.loc 1 343 21
 721 00b4 93C7F7FF 		not	a5,a5
 722              		.loc 1 343 18
 723 00b8 032744FE 		lw	a4,-28(s0)
 724 00bc F98F     		and	a5,a4,a5
 725 00be 2322F4FE 		sw	a5,-28(s0)
 344:../Firmware/GD32VW55x_standard_peripheral/Source/gd32vw55x_gpio.c ****             afrh |= GPIO_AFR_SET(i - 8U, alt_func_num);
 726              		.loc 1 344 21
 727 00c2 8357E4FE 		lhu	a5,-18(s0)
 728 00c6 E117     		addi	a5,a5,-8
 729 00c8 8A07     		slli	a5,a5,2
 730 00ca 032784FD 		lw	a4,-40(s0)
 731 00ce B317F700 		sll	a5,a4,a5
 732              		.loc 1 344 18
 733 00d2 032744FE 		lw	a4,-28(s0)
 734 00d6 D98F     		or	a5,a4,a5
 735 00d8 2322F4FE 		sw	a5,-28(s0)
 736              	.L40:
 340:../Firmware/GD32VW55x_standard_peripheral/Source/gd32vw55x_gpio.c ****         if((1U << i) & pin) {
 737              		.loc 1 340 27 discriminator 2
 738 00dc 8357E4FE 		lhu	a5,-18(s0)
 739 00e0 8507     		addi	a5,a5,1
 740 00e2 2317F4FE 		sh	a5,-18(s0)
 741              	.L39:
 340:../Firmware/GD32VW55x_standard_peripheral/Source/gd32vw55x_gpio.c ****         if((1U << i) & pin) {
 742              		.loc 1 340 5 discriminator 1
 743 00e6 0357E4FE 		lhu	a4,-18(s0)
 744 00ea BD47     		li	a5,15
 745 00ec E3F4E7FA 		bleu	a4,a5,.L41
 345:../Firmware/GD32VW55x_standard_peripheral/Source/gd32vw55x_gpio.c ****         }
 346:../Firmware/GD32VW55x_standard_peripheral/Source/gd32vw55x_gpio.c ****     }
 347:../Firmware/GD32VW55x_standard_peripheral/Source/gd32vw55x_gpio.c **** 
 348:../Firmware/GD32VW55x_standard_peripheral/Source/gd32vw55x_gpio.c ****     GPIO_AFSEL0(gpio_periph) = afrl;
 746              		.loc 1 348 5
 747 00f0 8327C4FD 		lw	a5,-36(s0)
 748 00f4 93870702 		addi	a5,a5,32
 749 00f8 3E87     		mv	a4,a5
 750              		.loc 1 348 30
 751 00fa 832784FE 		lw	a5,-24(s0)
 752 00fe 1CC3     		sw	a5,0(a4)
 349:../Firmware/GD32VW55x_standard_peripheral/Source/gd32vw55x_gpio.c ****     GPIO_AFSEL1(gpio_periph) = afrh;
 753              		.loc 1 349 5
 754 0100 8327C4FD 		lw	a5,-36(s0)
 755 0104 93874702 		addi	a5,a5,36
 756 0108 3E87     		mv	a4,a5
 757              		.loc 1 349 30
 758 010a 832744FE 		lw	a5,-28(s0)
 759 010e 1CC3     		sw	a5,0(a4)
 350:../Firmware/GD32VW55x_standard_peripheral/Source/gd32vw55x_gpio.c **** }
 760              		.loc 1 350 1
 761 0110 0100     		nop
 762 0112 3254     		lw	s0,44(sp)
 763              		.cfi_restore 8
 764              		.cfi_def_cfa 2, 48
 765 0114 4561     		addi	sp,sp,48
 766              		.cfi_def_cfa_offset 0
 767 0116 8280     		jr	ra
 768              		.cfi_endproc
 769              	.LFE358:
 771              		.section	.text.gpio_pin_lock,"ax",@progbits
 772              		.align	1
 773              		.globl	gpio_pin_lock
 775              	gpio_pin_lock:
 776              	.LFB359:
 351:../Firmware/GD32VW55x_standard_peripheral/Source/gd32vw55x_gpio.c **** 
 352:../Firmware/GD32VW55x_standard_peripheral/Source/gd32vw55x_gpio.c **** /*!
 353:../Firmware/GD32VW55x_standard_peripheral/Source/gd32vw55x_gpio.c ****     \brief      lock GPIO pin bit
 354:../Firmware/GD32VW55x_standard_peripheral/Source/gd32vw55x_gpio.c ****     \param[in]  gpio_periph: GPIOx(x = A,B,C)
 355:../Firmware/GD32VW55x_standard_peripheral/Source/gd32vw55x_gpio.c ****                 only one parameter can be selected which is shown as below:
 356:../Firmware/GD32VW55x_standard_peripheral/Source/gd32vw55x_gpio.c ****       \arg        GPIOx(x = A,B,C)
 357:../Firmware/GD32VW55x_standard_peripheral/Source/gd32vw55x_gpio.c ****     \param[in]  pin: GPIO pin
 358:../Firmware/GD32VW55x_standard_peripheral/Source/gd32vw55x_gpio.c ****                 one or more parameters can be selected which are shown as below:
 359:../Firmware/GD32VW55x_standard_peripheral/Source/gd32vw55x_gpio.c ****       \arg        GPIO_PIN_x(x=0..15), GPIO_PIN_ALL
 360:../Firmware/GD32VW55x_standard_peripheral/Source/gd32vw55x_gpio.c ****     \param[out] none
 361:../Firmware/GD32VW55x_standard_peripheral/Source/gd32vw55x_gpio.c ****     \retval     none
 362:../Firmware/GD32VW55x_standard_peripheral/Source/gd32vw55x_gpio.c **** */
 363:../Firmware/GD32VW55x_standard_peripheral/Source/gd32vw55x_gpio.c **** void gpio_pin_lock(uint32_t gpio_periph, uint32_t pin)
 364:../Firmware/GD32VW55x_standard_peripheral/Source/gd32vw55x_gpio.c **** {
 777              		.loc 1 364 1
 778              		.cfi_startproc
 779 0000 7971     		addi	sp,sp,-48
 780              		.cfi_def_cfa_offset 48
 781 0002 22D6     		sw	s0,44(sp)
 782              		.cfi_offset 8, -4
 783 0004 0018     		addi	s0,sp,48
 784              		.cfi_def_cfa 8, 0
 785 0006 232EA4FC 		sw	a0,-36(s0)
 786 000a 232CB4FC 		sw	a1,-40(s0)
 365:../Firmware/GD32VW55x_standard_peripheral/Source/gd32vw55x_gpio.c ****     uint32_t lock = 0x00010000U;
 787              		.loc 1 365 14
 788 000e C167     		li	a5,65536
 789 0010 2326F4FE 		sw	a5,-20(s0)
 366:../Firmware/GD32VW55x_standard_peripheral/Source/gd32vw55x_gpio.c ****     lock |= pin;
 790              		.loc 1 366 10
 791 0014 0327C4FE 		lw	a4,-20(s0)
 792 0018 832784FD 		lw	a5,-40(s0)
 793 001c D98F     		or	a5,a4,a5
 794 001e 2326F4FE 		sw	a5,-20(s0)
 367:../Firmware/GD32VW55x_standard_peripheral/Source/gd32vw55x_gpio.c ****     /* lock key writing sequence: write 1->write 0->write 1->read 0->read 1 */
 368:../Firmware/GD32VW55x_standard_peripheral/Source/gd32vw55x_gpio.c ****     GPIO_LOCK(gpio_periph) = (uint32_t)lock;
 795              		.loc 1 368 5
 796 0022 8327C4FD 		lw	a5,-36(s0)
 797 0026 F107     		addi	a5,a5,28
 798 0028 3E87     		mv	a4,a5
 799              		.loc 1 368 28
 800 002a 8327C4FE 		lw	a5,-20(s0)
 801 002e 1CC3     		sw	a5,0(a4)
 369:../Firmware/GD32VW55x_standard_peripheral/Source/gd32vw55x_gpio.c ****     GPIO_LOCK(gpio_periph) = (uint32_t)pin;
 802              		.loc 1 369 5
 803 0030 8327C4FD 		lw	a5,-36(s0)
 804 0034 F107     		addi	a5,a5,28
 805 0036 3E87     		mv	a4,a5
 806              		.loc 1 369 28
 807 0038 832784FD 		lw	a5,-40(s0)
 808 003c 1CC3     		sw	a5,0(a4)
 370:../Firmware/GD32VW55x_standard_peripheral/Source/gd32vw55x_gpio.c ****     GPIO_LOCK(gpio_periph) = (uint32_t)lock;
 809              		.loc 1 370 5
 810 003e 8327C4FD 		lw	a5,-36(s0)
 811 0042 F107     		addi	a5,a5,28
 812 0044 3E87     		mv	a4,a5
 813              		.loc 1 370 28
 814 0046 8327C4FE 		lw	a5,-20(s0)
 815 004a 1CC3     		sw	a5,0(a4)
 371:../Firmware/GD32VW55x_standard_peripheral/Source/gd32vw55x_gpio.c ****     lock = GPIO_LOCK(gpio_periph);
 816              		.loc 1 371 12
 817 004c 8327C4FD 		lw	a5,-36(s0)
 818 0050 F107     		addi	a5,a5,28
 819              		.loc 1 371 10
 820 0052 9C43     		lw	a5,0(a5)
 821 0054 2326F4FE 		sw	a5,-20(s0)
 372:../Firmware/GD32VW55x_standard_peripheral/Source/gd32vw55x_gpio.c ****     lock = GPIO_LOCK(gpio_periph);
 822              		.loc 1 372 12
 823 0058 8327C4FD 		lw	a5,-36(s0)
 824 005c F107     		addi	a5,a5,28
 825              		.loc 1 372 10
 826 005e 9C43     		lw	a5,0(a5)
 827 0060 2326F4FE 		sw	a5,-20(s0)
 373:../Firmware/GD32VW55x_standard_peripheral/Source/gd32vw55x_gpio.c **** }
 828              		.loc 1 373 1
 829 0064 0100     		nop
 830 0066 3254     		lw	s0,44(sp)
 831              		.cfi_restore 8
 832              		.cfi_def_cfa 2, 48
 833 0068 4561     		addi	sp,sp,48
 834              		.cfi_def_cfa_offset 0
 835 006a 8280     		jr	ra
 836              		.cfi_endproc
 837              	.LFE359:
 839              		.section	.text.gpio_bit_toggle,"ax",@progbits
 840              		.align	1
 841              		.globl	gpio_bit_toggle
 843              	gpio_bit_toggle:
 844              	.LFB360:
 374:../Firmware/GD32VW55x_standard_peripheral/Source/gd32vw55x_gpio.c **** 
 375:../Firmware/GD32VW55x_standard_peripheral/Source/gd32vw55x_gpio.c **** /*!
 376:../Firmware/GD32VW55x_standard_peripheral/Source/gd32vw55x_gpio.c ****     \brief      toggle GPIO pin status
 377:../Firmware/GD32VW55x_standard_peripheral/Source/gd32vw55x_gpio.c ****     \param[in]  gpio_periph: GPIOx(x = A,B,C)
 378:../Firmware/GD32VW55x_standard_peripheral/Source/gd32vw55x_gpio.c ****                 only one parameter can be selected which is shown as below:
 379:../Firmware/GD32VW55x_standard_peripheral/Source/gd32vw55x_gpio.c ****       \arg        GPIOx(x = A,B,C)
 380:../Firmware/GD32VW55x_standard_peripheral/Source/gd32vw55x_gpio.c ****     \param[in]  pin: GPIO pin
 381:../Firmware/GD32VW55x_standard_peripheral/Source/gd32vw55x_gpio.c ****                 one or more parameters can be selected which are shown as below:
 382:../Firmware/GD32VW55x_standard_peripheral/Source/gd32vw55x_gpio.c ****       \arg        GPIO_PIN_x(x=0..15), GPIO_PIN_ALL
 383:../Firmware/GD32VW55x_standard_peripheral/Source/gd32vw55x_gpio.c ****     \param[out] none
 384:../Firmware/GD32VW55x_standard_peripheral/Source/gd32vw55x_gpio.c ****     \retval     none
 385:../Firmware/GD32VW55x_standard_peripheral/Source/gd32vw55x_gpio.c **** */
 386:../Firmware/GD32VW55x_standard_peripheral/Source/gd32vw55x_gpio.c **** void gpio_bit_toggle(uint32_t gpio_periph, uint32_t pin)
 387:../Firmware/GD32VW55x_standard_peripheral/Source/gd32vw55x_gpio.c **** {
 845              		.loc 1 387 1
 846              		.cfi_startproc
 847 0000 0111     		addi	sp,sp,-32
 848              		.cfi_def_cfa_offset 32
 849 0002 22CE     		sw	s0,28(sp)
 850              		.cfi_offset 8, -4
 851 0004 0010     		addi	s0,sp,32
 852              		.cfi_def_cfa 8, 0
 853 0006 2326A4FE 		sw	a0,-20(s0)
 854 000a 2324B4FE 		sw	a1,-24(s0)
 388:../Firmware/GD32VW55x_standard_peripheral/Source/gd32vw55x_gpio.c ****     GPIO_TG(gpio_periph) = (uint32_t)pin;
 855              		.loc 1 388 5
 856 000e 8327C4FE 		lw	a5,-20(s0)
 857 0012 9387C702 		addi	a5,a5,44
 858 0016 3E87     		mv	a4,a5
 859              		.loc 1 388 26
 860 0018 832784FE 		lw	a5,-24(s0)
 861 001c 1CC3     		sw	a5,0(a4)
 389:../Firmware/GD32VW55x_standard_peripheral/Source/gd32vw55x_gpio.c **** }
 862              		.loc 1 389 1
 863 001e 0100     		nop
 864 0020 7244     		lw	s0,28(sp)
 865              		.cfi_restore 8
 866              		.cfi_def_cfa 2, 32
 867 0022 0561     		addi	sp,sp,32
 868              		.cfi_def_cfa_offset 0
 869 0024 8280     		jr	ra
 870              		.cfi_endproc
 871              	.LFE360:
 873              		.section	.text.gpio_port_toggle,"ax",@progbits
 874              		.align	1
 875              		.globl	gpio_port_toggle
 877              	gpio_port_toggle:
 878              	.LFB361:
 390:../Firmware/GD32VW55x_standard_peripheral/Source/gd32vw55x_gpio.c **** 
 391:../Firmware/GD32VW55x_standard_peripheral/Source/gd32vw55x_gpio.c **** /*!
 392:../Firmware/GD32VW55x_standard_peripheral/Source/gd32vw55x_gpio.c ****     \brief      toggle GPIO port status
 393:../Firmware/GD32VW55x_standard_peripheral/Source/gd32vw55x_gpio.c ****     \param[in]  gpio_periph: GPIOx(x = A,B,C)
 394:../Firmware/GD32VW55x_standard_peripheral/Source/gd32vw55x_gpio.c ****                 only one parameter can be selected which is shown as below:
 395:../Firmware/GD32VW55x_standard_peripheral/Source/gd32vw55x_gpio.c ****       \arg        GPIOx(x = A,B,C)
 396:../Firmware/GD32VW55x_standard_peripheral/Source/gd32vw55x_gpio.c ****     \param[out] none
 397:../Firmware/GD32VW55x_standard_peripheral/Source/gd32vw55x_gpio.c ****     \retval     none
 398:../Firmware/GD32VW55x_standard_peripheral/Source/gd32vw55x_gpio.c **** */
 399:../Firmware/GD32VW55x_standard_peripheral/Source/gd32vw55x_gpio.c **** void gpio_port_toggle(uint32_t gpio_periph)
 400:../Firmware/GD32VW55x_standard_peripheral/Source/gd32vw55x_gpio.c **** {
 879              		.loc 1 400 1
 880              		.cfi_startproc
 881 0000 0111     		addi	sp,sp,-32
 882              		.cfi_def_cfa_offset 32
 883 0002 22CE     		sw	s0,28(sp)
 884              		.cfi_offset 8, -4
 885 0004 0010     		addi	s0,sp,32
 886              		.cfi_def_cfa 8, 0
 887 0006 2326A4FE 		sw	a0,-20(s0)
 401:../Firmware/GD32VW55x_standard_peripheral/Source/gd32vw55x_gpio.c ****     GPIO_TG(gpio_periph) = 0x0000FFFFU;
 888              		.loc 1 401 5
 889 000a 8327C4FE 		lw	a5,-20(s0)
 890 000e 9387C702 		addi	a5,a5,44
 891 0012 3E87     		mv	a4,a5
 892              		.loc 1 401 26
 893 0014 C167     		li	a5,65536
 894 0016 FD17     		addi	a5,a5,-1
 895 0018 1CC3     		sw	a5,0(a4)
 402:../Firmware/GD32VW55x_standard_peripheral/Source/gd32vw55x_gpio.c **** }
 896              		.loc 1 402 1
 897 001a 0100     		nop
 898 001c 7244     		lw	s0,28(sp)
 899              		.cfi_restore 8
 900              		.cfi_def_cfa 2, 32
 901 001e 0561     		addi	sp,sp,32
 902              		.cfi_def_cfa_offset 0
 903 0020 8280     		jr	ra
 904              		.cfi_endproc
 905              	.LFE361:
 907              		.text
 908              	.Letext0:
 909              		.file 2 "e:\\gd32\\gd32embeddedbuilder_v1.5.2.30854\\tools\\nuclei_riscv_newlibc_prebuilt_win32_20
 910              		.file 3 "e:\\gd32\\gd32embeddedbuilder_v1.5.2.30854\\tools\\nuclei_riscv_newlibc_prebuilt_win32_20
 911              		.file 4 "../Firmware/GD32VW55x_standard_peripheral/gd32vw55x.h"
 912              		.file 5 "../Firmware/GD32VW55x_standard_peripheral/Include/gd32vw55x_rcu.h"
 913              		.file 6 "../Firmware/GD32VW55x_standard_peripheral/Include/gd32vw55x_gpio.h"