   1              		.file	"gd32vw55x_efuse.c"
   2              		.option nopic
   3              		.attribute arch, "rv32i2p0_m2p0_a2p0_c2p0"
   4              		.attribute unaligned_access, 0
   5              		.attribute stack_align, 16
   6              		.text
   7              	.Ltext0:
   8              		.cfi_sections	.debug_frame
   9              		.section	.text.efuse_read,"ax",@progbits
  10              		.align	1
  11              		.globl	efuse_read
  13              	efuse_read:
  14              	.LFB347:
  15              		.file 1 "../Firmware/GD32VW55x_standard_peripheral/Source/gd32vw55x_efuse.c"
   1:../Firmware/GD32VW55x_standard_peripheral/Source/gd32vw55x_efuse.c **** /*!
   2:../Firmware/GD32VW55x_standard_peripheral/Source/gd32vw55x_efuse.c ****     \file    gd32vw55x_efuse.c
   3:../Firmware/GD32VW55x_standard_peripheral/Source/gd32vw55x_efuse.c ****     \brief   EFUSE driver
   4:../Firmware/GD32VW55x_standard_peripheral/Source/gd32vw55x_efuse.c **** 
   5:../Firmware/GD32VW55x_standard_peripheral/Source/gd32vw55x_efuse.c ****     \version 2025-01-16, V1.4.0, firmware for GD32VW55x
   6:../Firmware/GD32VW55x_standard_peripheral/Source/gd32vw55x_efuse.c **** */
   7:../Firmware/GD32VW55x_standard_peripheral/Source/gd32vw55x_efuse.c **** 
   8:../Firmware/GD32VW55x_standard_peripheral/Source/gd32vw55x_efuse.c **** /*
   9:../Firmware/GD32VW55x_standard_peripheral/Source/gd32vw55x_efuse.c ****     Copyright (c) 2025, GigaDevice Semiconductor Inc.
  10:../Firmware/GD32VW55x_standard_peripheral/Source/gd32vw55x_efuse.c **** 
  11:../Firmware/GD32VW55x_standard_peripheral/Source/gd32vw55x_efuse.c ****     Redistribution and use in source and binary forms, with or without modification,
  12:../Firmware/GD32VW55x_standard_peripheral/Source/gd32vw55x_efuse.c **** are permitted provided that the following conditions are met:
  13:../Firmware/GD32VW55x_standard_peripheral/Source/gd32vw55x_efuse.c **** 
  14:../Firmware/GD32VW55x_standard_peripheral/Source/gd32vw55x_efuse.c ****     1. Redistributions of source code must retain the above copyright notice, this
  15:../Firmware/GD32VW55x_standard_peripheral/Source/gd32vw55x_efuse.c ****        list of conditions and the following disclaimer.
  16:../Firmware/GD32VW55x_standard_peripheral/Source/gd32vw55x_efuse.c ****     2. Redistributions in binary form must reproduce the above copyright notice,
  17:../Firmware/GD32VW55x_standard_peripheral/Source/gd32vw55x_efuse.c ****        this list of conditions and the following disclaimer in the documentation
  18:../Firmware/GD32VW55x_standard_peripheral/Source/gd32vw55x_efuse.c ****        and/or other materials provided with the distribution.
  19:../Firmware/GD32VW55x_standard_peripheral/Source/gd32vw55x_efuse.c ****     3. Neither the name of the copyright holder nor the names of its contributors
  20:../Firmware/GD32VW55x_standard_peripheral/Source/gd32vw55x_efuse.c ****        may be used to endorse or promote products derived from this software without
  21:../Firmware/GD32VW55x_standard_peripheral/Source/gd32vw55x_efuse.c ****        specific prior written permission.
  22:../Firmware/GD32VW55x_standard_peripheral/Source/gd32vw55x_efuse.c **** 
  23:../Firmware/GD32VW55x_standard_peripheral/Source/gd32vw55x_efuse.c ****     THIS SOFTWARE IS PROVIDED BY THE COPYRIGHT HOLDERS AND CONTRIBUTORS "AS IS"
  24:../Firmware/GD32VW55x_standard_peripheral/Source/gd32vw55x_efuse.c **** AND ANY EXPRESS OR IMPLIED WARRANTIES, INCLUDING, BUT NOT LIMITED TO, THE IMPLIED
  25:../Firmware/GD32VW55x_standard_peripheral/Source/gd32vw55x_efuse.c **** WARRANTIES OF MERCHANTABILITY AND FITNESS FOR A PARTICULAR PURPOSE ARE DISCLAIMED.
  26:../Firmware/GD32VW55x_standard_peripheral/Source/gd32vw55x_efuse.c **** IN NO EVENT SHALL THE COPYRIGHT HOLDER OR CONTRIBUTORS BE LIABLE FOR ANY DIRECT,
  27:../Firmware/GD32VW55x_standard_peripheral/Source/gd32vw55x_efuse.c **** INDIRECT, INCIDENTAL, SPECIAL, EXEMPLARY, OR CONSEQUENTIAL DAMAGES (INCLUDING, BUT
  28:../Firmware/GD32VW55x_standard_peripheral/Source/gd32vw55x_efuse.c **** NOT LIMITED TO, PROCUREMENT OF SUBSTITUTE GOODS OR SERVICES; LOSS OF USE, DATA, OR
  29:../Firmware/GD32VW55x_standard_peripheral/Source/gd32vw55x_efuse.c **** PROFITS; OR BUSINESS INTERRUPTION) HOWEVER CAUSED AND ON ANY THEORY OF LIABILITY,
  30:../Firmware/GD32VW55x_standard_peripheral/Source/gd32vw55x_efuse.c **** WHETHER IN CONTRACT, STRICT LIABILITY, OR TORT (INCLUDING NEGLIGENCE OR OTHERWISE)
  31:../Firmware/GD32VW55x_standard_peripheral/Source/gd32vw55x_efuse.c **** ARISING IN ANY WAY OUT OF THE USE OF THIS SOFTWARE, EVEN IF ADVISED OF THE POSSIBILITY
  32:../Firmware/GD32VW55x_standard_peripheral/Source/gd32vw55x_efuse.c **** OF SUCH DAMAGE.
  33:../Firmware/GD32VW55x_standard_peripheral/Source/gd32vw55x_efuse.c **** */
  34:../Firmware/GD32VW55x_standard_peripheral/Source/gd32vw55x_efuse.c **** 
  35:../Firmware/GD32VW55x_standard_peripheral/Source/gd32vw55x_efuse.c **** #include "gd32vw55x_efuse.h"
  36:../Firmware/GD32VW55x_standard_peripheral/Source/gd32vw55x_efuse.c **** 
  37:../Firmware/GD32VW55x_standard_peripheral/Source/gd32vw55x_efuse.c **** /*!
  38:../Firmware/GD32VW55x_standard_peripheral/Source/gd32vw55x_efuse.c ****     \brief      read EFUSE value
  39:../Firmware/GD32VW55x_standard_peripheral/Source/gd32vw55x_efuse.c ****     \param[in]  ef_addr: EFUSE address, the starting address of each parameter segment, in bytes
  40:../Firmware/GD32VW55x_standard_peripheral/Source/gd32vw55x_efuse.c ****       \arg        0~0x60
  41:../Firmware/GD32VW55x_standard_peripheral/Source/gd32vw55x_efuse.c ****     \param[in]  size: size of EFUSE, in bytes
  42:../Firmware/GD32VW55x_standard_peripheral/Source/gd32vw55x_efuse.c ****       \arg        1~0x20
  43:../Firmware/GD32VW55x_standard_peripheral/Source/gd32vw55x_efuse.c ****     \param[out] buf: the buffer for storing read-out EFUSE register value
  44:../Firmware/GD32VW55x_standard_peripheral/Source/gd32vw55x_efuse.c ****     \retval     ErrStatus: ERROR or SUCCESS
  45:../Firmware/GD32VW55x_standard_peripheral/Source/gd32vw55x_efuse.c **** */
  46:../Firmware/GD32VW55x_standard_peripheral/Source/gd32vw55x_efuse.c **** ErrStatus efuse_read(uint32_t ef_addr, uint32_t size, uint32_t buf[])
  47:../Firmware/GD32VW55x_standard_peripheral/Source/gd32vw55x_efuse.c **** {
  16              		.loc 1 47 1
  17              		.cfi_startproc
  18 0000 7971     		addi	sp,sp,-48
  19              		.cfi_def_cfa_offset 48
  20 0002 06D6     		sw	ra,44(sp)
  21 0004 22D4     		sw	s0,40(sp)
  22              		.cfi_offset 1, -4
  23              		.cfi_offset 8, -8
  24 0006 0018     		addi	s0,sp,48
  25              		.cfi_def_cfa 8, 0
  26 0008 232EA4FC 		sw	a0,-36(s0)
  27 000c 232CB4FC 		sw	a1,-40(s0)
  28 0010 232AC4FC 		sw	a2,-44(s0)
  48:../Firmware/GD32VW55x_standard_peripheral/Source/gd32vw55x_efuse.c ****     uint32_t i = 0U;
  29              		.loc 1 48 14
  30 0014 232604FE 		sw	zero,-20(s0)
  49:../Firmware/GD32VW55x_standard_peripheral/Source/gd32vw55x_efuse.c ****     uint32_t timeout = 0xFFU;
  31              		.loc 1 49 14
  32 0018 9307F00F 		li	a5,255
  33 001c 2324F4FE 		sw	a5,-24(s0)
  50:../Firmware/GD32VW55x_standard_peripheral/Source/gd32vw55x_efuse.c ****     uint32_t reg_addr = 0U;
  34              		.loc 1 50 14
  35 0020 232204FE 		sw	zero,-28(s0)
  51:../Firmware/GD32VW55x_standard_peripheral/Source/gd32vw55x_efuse.c ****     uint32_t number = size / 4U;
  36              		.loc 1 51 14
  37 0024 832784FD 		lw	a5,-40(s0)
  38 0028 8983     		srli	a5,a5,2
  39 002a 2320F4FE 		sw	a5,-32(s0)
  52:../Firmware/GD32VW55x_standard_peripheral/Source/gd32vw55x_efuse.c **** 
  53:../Firmware/GD32VW55x_standard_peripheral/Source/gd32vw55x_efuse.c ****     if(0U == number) {
  40              		.loc 1 53 7
  41 002e 832704FE 		lw	a5,-32(s0)
  42 0032 81E7     		bne	a5,zero,.L2
  54:../Firmware/GD32VW55x_standard_peripheral/Source/gd32vw55x_efuse.c ****         number = 1U;
  43              		.loc 1 54 16
  44 0034 8547     		li	a5,1
  45 0036 2320F4FE 		sw	a5,-32(s0)
  46              	.L2:
  55:../Firmware/GD32VW55x_standard_peripheral/Source/gd32vw55x_efuse.c ****     }
  56:../Firmware/GD32VW55x_standard_peripheral/Source/gd32vw55x_efuse.c **** 
  57:../Firmware/GD32VW55x_standard_peripheral/Source/gd32vw55x_efuse.c ****     /* assert EFUSE address and size parameter */
  58:../Firmware/GD32VW55x_standard_peripheral/Source/gd32vw55x_efuse.c ****     if((END_ADDR < ef_addr) || (size > EFUSE_MAX_SIZE)) {
  47              		.loc 1 58 7
  48 003a 0327C4FD 		lw	a4,-36(s0)
  49 003e 93070008 		li	a5,128
  50 0042 63E8E700 		bgtu	a4,a5,.L3
  51              		.loc 1 58 29 discriminator 1
  52 0046 032784FD 		lw	a4,-40(s0)
  53 004a 93070002 		li	a5,32
  54 004e 63F4E700 		bleu	a4,a5,.L4
  55              	.L3:
  59:../Firmware/GD32VW55x_standard_peripheral/Source/gd32vw55x_efuse.c ****         return ERROR;
  56              		.loc 1 59 16
  57 0052 8147     		li	a5,0
  58 0054 29A2     		j	.L5
  59              	.L4:
  60:../Firmware/GD32VW55x_standard_peripheral/Source/gd32vw55x_efuse.c ****     }
  61:../Firmware/GD32VW55x_standard_peripheral/Source/gd32vw55x_efuse.c **** 
  62:../Firmware/GD32VW55x_standard_peripheral/Source/gd32vw55x_efuse.c ****     /* get the register address corresponding to EFUSE */
  63:../Firmware/GD32VW55x_standard_peripheral/Source/gd32vw55x_efuse.c ****     if(0x4U > ef_addr) {
  60              		.loc 1 63 7
  61 0056 0327C4FD 		lw	a4,-36(s0)
  62 005a 8D47     		li	a5,3
  63 005c 63EDE700 		bgtu	a4,a5,.L6
  64:../Firmware/GD32VW55x_standard_peripheral/Source/gd32vw55x_efuse.c ****         reg_addr = (uint32_t)(EFUSE + 0x08U + (ef_addr * 4U));
  64              		.loc 1 64 20
  65 0060 0327C4FD 		lw	a4,-36(s0)
  66 0064 B7970010 		li	a5,268472320
  67 0068 938727A0 		addi	a5,a5,-1534
  68 006c BA97     		add	a5,a4,a5
  69              		.loc 1 64 18
  70 006e 8A07     		slli	a5,a5,2
  71 0070 2322F4FE 		sw	a5,-28(s0)
  72 0074 0DA0     		j	.L7
  73              	.L6:
  65:../Firmware/GD32VW55x_standard_peripheral/Source/gd32vw55x_efuse.c ****     } else {
  66:../Firmware/GD32VW55x_standard_peripheral/Source/gd32vw55x_efuse.c ****         /* when EFUSE address is greater than 4, it must be an integral multiple of 4 */
  67:../Firmware/GD32VW55x_standard_peripheral/Source/gd32vw55x_efuse.c ****         if(0U == (ef_addr % 4U)) {
  74              		.loc 1 67 27
  75 0076 8327C4FD 		lw	a5,-36(s0)
  76 007a 8D8B     		andi	a5,a5,3
  77              		.loc 1 67 11
  78 007c 99EB     		bne	a5,zero,.L8
  68:../Firmware/GD32VW55x_standard_peripheral/Source/gd32vw55x_efuse.c ****             reg_addr = (uint32_t)(EFUSE + 0x14U + ef_addr);
  79              		.loc 1 68 22
  80 007e 0327C4FD 		lw	a4,-36(s0)
  81 0082 B7370240 		li	a5,1073885184
  82 0086 93874781 		addi	a5,a5,-2028
  83 008a BA97     		add	a5,a4,a5
  84 008c 2322F4FE 		sw	a5,-28(s0)
  85 0090 19A0     		j	.L7
  86              	.L8:
  69:../Firmware/GD32VW55x_standard_peripheral/Source/gd32vw55x_efuse.c ****         } else {
  70:../Firmware/GD32VW55x_standard_peripheral/Source/gd32vw55x_efuse.c ****             return ERROR;
  87              		.loc 1 70 20
  88 0092 8147     		li	a5,0
  89 0094 E9A0     		j	.L5
  90              	.L7:
  71:../Firmware/GD32VW55x_standard_peripheral/Source/gd32vw55x_efuse.c ****         }
  72:../Firmware/GD32VW55x_standard_peripheral/Source/gd32vw55x_efuse.c ****     }
  73:../Firmware/GD32VW55x_standard_peripheral/Source/gd32vw55x_efuse.c **** 
  74:../Firmware/GD32VW55x_standard_peripheral/Source/gd32vw55x_efuse.c ****     /* EFUSE read operation */
  75:../Firmware/GD32VW55x_standard_peripheral/Source/gd32vw55x_efuse.c ****     EFUSE_CS &= (~EFUSE_CS_EFRW);
  91              		.loc 1 75 14
  92 0096 B7370240 		li	a5,1073885184
  93 009a 93870780 		addi	a5,a5,-2048
  94 009e 9843     		lw	a4,0(a5)
  95 00a0 B7370240 		li	a5,1073885184
  96 00a4 93870780 		addi	a5,a5,-2048
  97 00a8 759B     		andi	a4,a4,-3
  98 00aa 98C3     		sw	a4,0(a5)
  76:../Firmware/GD32VW55x_standard_peripheral/Source/gd32vw55x_efuse.c ****     /* write EFUSE address and size */
  77:../Firmware/GD32VW55x_standard_peripheral/Source/gd32vw55x_efuse.c ****     EFUSE_ADDR = (uint32_t)((size << 8U) | ef_addr);
  99              		.loc 1 77 35
 100 00ac 832784FD 		lw	a5,-40(s0)
 101 00b0 93968700 		slli	a3,a5,8
 102              		.loc 1 77 5
 103 00b4 B7370240 		li	a5,1073885184
 104 00b8 93874780 		addi	a5,a5,-2044
 105              		.loc 1 77 42
 106 00bc 0327C4FD 		lw	a4,-36(s0)
 107 00c0 558F     		or	a4,a3,a4
 108              		.loc 1 77 16
 109 00c2 98C3     		sw	a4,0(a5)
  78:../Firmware/GD32VW55x_standard_peripheral/Source/gd32vw55x_efuse.c ****     /* start read EFUSE operation */
  79:../Firmware/GD32VW55x_standard_peripheral/Source/gd32vw55x_efuse.c ****     EFUSE_CS |= EFUSE_CS_EFSTR;
 110              		.loc 1 79 14
 111 00c4 B7370240 		li	a5,1073885184
 112 00c8 93870780 		addi	a5,a5,-2048
 113 00cc 9843     		lw	a4,0(a5)
 114 00ce B7370240 		li	a5,1073885184
 115 00d2 93870780 		addi	a5,a5,-2048
 116 00d6 13671700 		ori	a4,a4,1
 117 00da 98C3     		sw	a4,0(a5)
 118              	.L10:
  80:../Firmware/GD32VW55x_standard_peripheral/Source/gd32vw55x_efuse.c **** 
  81:../Firmware/GD32VW55x_standard_peripheral/Source/gd32vw55x_efuse.c ****     /* wait for the operation to complete */
  82:../Firmware/GD32VW55x_standard_peripheral/Source/gd32vw55x_efuse.c ****     do {
  83:../Firmware/GD32VW55x_standard_peripheral/Source/gd32vw55x_efuse.c ****         timeout--;
 119              		.loc 1 83 16 discriminator 2
 120 00dc 832784FE 		lw	a5,-24(s0)
 121 00e0 FD17     		addi	a5,a5,-1
 122 00e2 2324F4FE 		sw	a5,-24(s0)
  84:../Firmware/GD32VW55x_standard_peripheral/Source/gd32vw55x_efuse.c ****     } while((RESET == efuse_flag_get(EFUSE_RDIF)) && (0x00U != timeout));
 123              		.loc 1 84 23 discriminator 2
 124 00e6 37050200 		li	a0,131072
 125 00ea 97000000 		call	efuse_flag_get
 125      E7800000 
 126 00f2 AA87     		mv	a5,a0
 127              		.loc 1 84 5 discriminator 2
 128 00f4 81E7     		bne	a5,zero,.L9
 129              		.loc 1 84 51 discriminator 1
 130 00f6 832784FE 		lw	a5,-24(s0)
 131 00fa EDF3     		bne	a5,zero,.L10
 132              	.L9:
  85:../Firmware/GD32VW55x_standard_peripheral/Source/gd32vw55x_efuse.c ****     if(0x00U == timeout) {
 133              		.loc 1 85 7
 134 00fc 832784FE 		lw	a5,-24(s0)
 135 0100 99E3     		bne	a5,zero,.L11
  86:../Firmware/GD32VW55x_standard_peripheral/Source/gd32vw55x_efuse.c ****         return ERROR;
 136              		.loc 1 86 16
 137 0102 8147     		li	a5,0
 138 0104 A9A8     		j	.L5
 139              	.L11:
  87:../Firmware/GD32VW55x_standard_peripheral/Source/gd32vw55x_efuse.c ****     }
  88:../Firmware/GD32VW55x_standard_peripheral/Source/gd32vw55x_efuse.c **** 
  89:../Firmware/GD32VW55x_standard_peripheral/Source/gd32vw55x_efuse.c ****     /* read EFUSE */
  90:../Firmware/GD32VW55x_standard_peripheral/Source/gd32vw55x_efuse.c ****     for(i = 0U; i < number; i++) {
 140              		.loc 1 90 11
 141 0106 232604FE 		sw	zero,-20(s0)
 142              		.loc 1 90 5
 143 010a 35A0     		j	.L12
 144              	.L13:
  91:../Firmware/GD32VW55x_standard_peripheral/Source/gd32vw55x_efuse.c ****         buf[i] = REG32(reg_addr + (4U * i));
 145              		.loc 1 91 18 discriminator 3
 146 010c 8327C4FE 		lw	a5,-20(s0)
 147 0110 13972700 		slli	a4,a5,2
 148 0114 832744FE 		lw	a5,-28(s0)
 149 0118 BA97     		add	a5,a4,a5
 150 011a BE86     		mv	a3,a5
 151              		.loc 1 91 12 discriminator 3
 152 011c 8327C4FE 		lw	a5,-20(s0)
 153 0120 8A07     		slli	a5,a5,2
 154 0122 032744FD 		lw	a4,-44(s0)
 155 0126 BA97     		add	a5,a4,a5
 156              		.loc 1 91 18 discriminator 3
 157 0128 9842     		lw	a4,0(a3)
 158              		.loc 1 91 16 discriminator 3
 159 012a 98C3     		sw	a4,0(a5)
  90:../Firmware/GD32VW55x_standard_peripheral/Source/gd32vw55x_efuse.c ****         buf[i] = REG32(reg_addr + (4U * i));
 160              		.loc 1 90 30 discriminator 3
 161 012c 8327C4FE 		lw	a5,-20(s0)
 162 0130 8507     		addi	a5,a5,1
 163 0132 2326F4FE 		sw	a5,-20(s0)
 164              	.L12:
  90:../Firmware/GD32VW55x_standard_peripheral/Source/gd32vw55x_efuse.c ****         buf[i] = REG32(reg_addr + (4U * i));
 165              		.loc 1 90 5 discriminator 1
 166 0136 0327C4FE 		lw	a4,-20(s0)
 167 013a 832704FE 		lw	a5,-32(s0)
 168 013e E367F7FC 		bltu	a4,a5,.L13
  92:../Firmware/GD32VW55x_standard_peripheral/Source/gd32vw55x_efuse.c ****     }
  93:../Firmware/GD32VW55x_standard_peripheral/Source/gd32vw55x_efuse.c **** 
  94:../Firmware/GD32VW55x_standard_peripheral/Source/gd32vw55x_efuse.c ****     /* clear EFUSE read completed flag */
  95:../Firmware/GD32VW55x_standard_peripheral/Source/gd32vw55x_efuse.c ****     EFUSE_CS |= (uint32_t)EFUSE_CS_RDIC;
 169              		.loc 1 95 14
 170 0142 B7370240 		li	a5,1073885184
 171 0146 93870780 		addi	a5,a5,-2048
 172 014a 9443     		lw	a3,0(a5)
 173 014c B7370240 		li	a5,1073885184
 174 0150 93870780 		addi	a5,a5,-2048
 175 0154 37070002 		li	a4,33554432
 176 0158 558F     		or	a4,a3,a4
 177 015a 98C3     		sw	a4,0(a5)
  96:../Firmware/GD32VW55x_standard_peripheral/Source/gd32vw55x_efuse.c **** 
  97:../Firmware/GD32VW55x_standard_peripheral/Source/gd32vw55x_efuse.c ****     return SUCCESS;
 178              		.loc 1 97 12
 179 015c 8547     		li	a5,1
 180              	.L5:
  98:../Firmware/GD32VW55x_standard_peripheral/Source/gd32vw55x_efuse.c **** }
 181              		.loc 1 98 1
 182 015e 3E85     		mv	a0,a5
 183 0160 B250     		lw	ra,44(sp)
 184              		.cfi_restore 1
 185 0162 2254     		lw	s0,40(sp)
 186              		.cfi_restore 8
 187              		.cfi_def_cfa 2, 48
 188 0164 4561     		addi	sp,sp,48
 189              		.cfi_def_cfa_offset 0
 190 0166 8280     		jr	ra
 191              		.cfi_endproc
 192              	.LFE347:
 194              		.section	.text.efuse_write,"ax",@progbits
 195              		.align	1
 196              		.globl	efuse_write
 198              	efuse_write:
 199              	.LFB348:
  99:../Firmware/GD32VW55x_standard_peripheral/Source/gd32vw55x_efuse.c **** 
 100:../Firmware/GD32VW55x_standard_peripheral/Source/gd32vw55x_efuse.c **** /*!
 101:../Firmware/GD32VW55x_standard_peripheral/Source/gd32vw55x_efuse.c ****     \brief      write EFUSE
 102:../Firmware/GD32VW55x_standard_peripheral/Source/gd32vw55x_efuse.c ****     \param[in]  ef_addr: EFUSE address, the starting address of each parameter segment, in bytes.
 103:../Firmware/GD32VW55x_standard_peripheral/Source/gd32vw55x_efuse.c ****                          When ef_addr is greater than 4, the ef_addr must be an integral multiple o
 104:../Firmware/GD32VW55x_standard_peripheral/Source/gd32vw55x_efuse.c ****       \arg        0~0x60
 105:../Firmware/GD32VW55x_standard_peripheral/Source/gd32vw55x_efuse.c ****     \param[in]  size: size of EFUSE, in bytes
 106:../Firmware/GD32VW55x_standard_peripheral/Source/gd32vw55x_efuse.c ****       \arg        1~0x20
 107:../Firmware/GD32VW55x_standard_peripheral/Source/gd32vw55x_efuse.c ****     \param[in]  buf: the buffer of data written to EFUSE
 108:../Firmware/GD32VW55x_standard_peripheral/Source/gd32vw55x_efuse.c ****     \param[out] none
 109:../Firmware/GD32VW55x_standard_peripheral/Source/gd32vw55x_efuse.c ****     \retval     ErrStatus: ERROR or SUCCESS
 110:../Firmware/GD32VW55x_standard_peripheral/Source/gd32vw55x_efuse.c **** */
 111:../Firmware/GD32VW55x_standard_peripheral/Source/gd32vw55x_efuse.c **** ErrStatus efuse_write(uint32_t ef_addr, uint32_t size, uint32_t buf[])
 112:../Firmware/GD32VW55x_standard_peripheral/Source/gd32vw55x_efuse.c **** {
 200              		.loc 1 112 1
 201              		.cfi_startproc
 202 0000 7971     		addi	sp,sp,-48
 203              		.cfi_def_cfa_offset 48
 204 0002 06D6     		sw	ra,44(sp)
 205 0004 22D4     		sw	s0,40(sp)
 206              		.cfi_offset 1, -4
 207              		.cfi_offset 8, -8
 208 0006 0018     		addi	s0,sp,48
 209              		.cfi_def_cfa 8, 0
 210 0008 232EA4FC 		sw	a0,-36(s0)
 211 000c 232CB4FC 		sw	a1,-40(s0)
 212 0010 232AC4FC 		sw	a2,-44(s0)
 113:../Firmware/GD32VW55x_standard_peripheral/Source/gd32vw55x_efuse.c ****     uint32_t i = 0U;
 213              		.loc 1 113 14
 214 0014 232604FE 		sw	zero,-20(s0)
 114:../Firmware/GD32VW55x_standard_peripheral/Source/gd32vw55x_efuse.c ****     uint32_t timeout = 0xFFFFU;
 215              		.loc 1 114 14
 216 0018 C167     		li	a5,65536
 217 001a FD17     		addi	a5,a5,-1
 218 001c 2324F4FE 		sw	a5,-24(s0)
 115:../Firmware/GD32VW55x_standard_peripheral/Source/gd32vw55x_efuse.c ****     uint32_t reg_addr = 0U;
 219              		.loc 1 115 14
 220 0020 232204FE 		sw	zero,-28(s0)
 116:../Firmware/GD32VW55x_standard_peripheral/Source/gd32vw55x_efuse.c ****     uint32_t number = size / 4U;
 221              		.loc 1 116 14
 222 0024 832784FD 		lw	a5,-40(s0)
 223 0028 8983     		srli	a5,a5,2
 224 002a 2320F4FE 		sw	a5,-32(s0)
 117:../Firmware/GD32VW55x_standard_peripheral/Source/gd32vw55x_efuse.c **** 
 118:../Firmware/GD32VW55x_standard_peripheral/Source/gd32vw55x_efuse.c ****     if(0U == number) {
 225              		.loc 1 118 7
 226 002e 832704FE 		lw	a5,-32(s0)
 227 0032 81E7     		bne	a5,zero,.L15
 119:../Firmware/GD32VW55x_standard_peripheral/Source/gd32vw55x_efuse.c ****         number = 1U;
 228              		.loc 1 119 16
 229 0034 8547     		li	a5,1
 230 0036 2320F4FE 		sw	a5,-32(s0)
 231              	.L15:
 120:../Firmware/GD32VW55x_standard_peripheral/Source/gd32vw55x_efuse.c ****     }
 121:../Firmware/GD32VW55x_standard_peripheral/Source/gd32vw55x_efuse.c **** 
 122:../Firmware/GD32VW55x_standard_peripheral/Source/gd32vw55x_efuse.c ****     /* assert EFUSE address and size parameter */
 123:../Firmware/GD32VW55x_standard_peripheral/Source/gd32vw55x_efuse.c ****     if((END_ADDR < ef_addr) || (size > EFUSE_MAX_SIZE)) {
 232              		.loc 1 123 7
 233 003a 0327C4FD 		lw	a4,-36(s0)
 234 003e 93070008 		li	a5,128
 235 0042 63E8E700 		bgtu	a4,a5,.L16
 236              		.loc 1 123 29 discriminator 1
 237 0046 032784FD 		lw	a4,-40(s0)
 238 004a 93070002 		li	a5,32
 239 004e 63F4E700 		bleu	a4,a5,.L17
 240              	.L16:
 124:../Firmware/GD32VW55x_standard_peripheral/Source/gd32vw55x_efuse.c ****         return ERROR;
 241              		.loc 1 124 16
 242 0052 8147     		li	a5,0
 243 0054 BDA2     		j	.L18
 244              	.L17:
 125:../Firmware/GD32VW55x_standard_peripheral/Source/gd32vw55x_efuse.c ****     }
 126:../Firmware/GD32VW55x_standard_peripheral/Source/gd32vw55x_efuse.c **** 
 127:../Firmware/GD32VW55x_standard_peripheral/Source/gd32vw55x_efuse.c ****     /* PUID and HUK are not modifiable */
 128:../Firmware/GD32VW55x_standard_peripheral/Source/gd32vw55x_efuse.c ****     if((MCU_UID_ADDR <= ef_addr) && (ef_addr < USER_DATA_ADDR)) {
 245              		.loc 1 128 7
 246 0056 0327C4FD 		lw	a4,-36(s0)
 247 005a 9307F003 		li	a5,63
 248 005e 63FAE700 		bleu	a4,a5,.L19
 249              		.loc 1 128 34 discriminator 1
 250 0062 0327C4FD 		lw	a4,-36(s0)
 251 0066 9307F005 		li	a5,95
 252 006a 63E4E700 		bgtu	a4,a5,.L19
 129:../Firmware/GD32VW55x_standard_peripheral/Source/gd32vw55x_efuse.c ****         return ERROR;
 253              		.loc 1 129 16
 254 006e 8147     		li	a5,0
 255 0070 89AA     		j	.L18
 256              	.L19:
 130:../Firmware/GD32VW55x_standard_peripheral/Source/gd32vw55x_efuse.c ****     }
 131:../Firmware/GD32VW55x_standard_peripheral/Source/gd32vw55x_efuse.c **** 
 132:../Firmware/GD32VW55x_standard_peripheral/Source/gd32vw55x_efuse.c ****     /* get the register address corresponding to EFUSE */
 133:../Firmware/GD32VW55x_standard_peripheral/Source/gd32vw55x_efuse.c ****     if(0x4U > ef_addr) {
 257              		.loc 1 133 7
 258 0072 0327C4FD 		lw	a4,-36(s0)
 259 0076 8D47     		li	a5,3
 260 0078 63EDE700 		bgtu	a4,a5,.L20
 134:../Firmware/GD32VW55x_standard_peripheral/Source/gd32vw55x_efuse.c ****         reg_addr = (uint32_t)(EFUSE + 0x08U + (ef_addr * 4U));
 261              		.loc 1 134 20
 262 007c 0327C4FD 		lw	a4,-36(s0)
 263 0080 B7970010 		li	a5,268472320
 264 0084 938727A0 		addi	a5,a5,-1534
 265 0088 BA97     		add	a5,a4,a5
 266              		.loc 1 134 18
 267 008a 8A07     		slli	a5,a5,2
 268 008c 2322F4FE 		sw	a5,-28(s0)
 269 0090 05A0     		j	.L21
 270              	.L20:
 135:../Firmware/GD32VW55x_standard_peripheral/Source/gd32vw55x_efuse.c ****     } else {
 136:../Firmware/GD32VW55x_standard_peripheral/Source/gd32vw55x_efuse.c ****         /* when EFUSE address is greater than 4, it must be an integral multiple of 4 */
 137:../Firmware/GD32VW55x_standard_peripheral/Source/gd32vw55x_efuse.c ****         if(ef_addr % 4U) {
 271              		.loc 1 137 20
 272 0092 8327C4FD 		lw	a5,-36(s0)
 273 0096 8D8B     		andi	a5,a5,3
 274              		.loc 1 137 11
 275 0098 99C3     		beq	a5,zero,.L22
 138:../Firmware/GD32VW55x_standard_peripheral/Source/gd32vw55x_efuse.c ****             return ERROR;
 276              		.loc 1 138 20
 277 009a 8147     		li	a5,0
 278 009c 1DA2     		j	.L18
 279              	.L22:
 139:../Firmware/GD32VW55x_standard_peripheral/Source/gd32vw55x_efuse.c ****         } else {
 140:../Firmware/GD32VW55x_standard_peripheral/Source/gd32vw55x_efuse.c ****             reg_addr = (uint32_t)(EFUSE + 0x14U + ef_addr);
 280              		.loc 1 140 22
 281 009e 0327C4FD 		lw	a4,-36(s0)
 282 00a2 B7370240 		li	a5,1073885184
 283 00a6 93874781 		addi	a5,a5,-2028
 284 00aa BA97     		add	a5,a4,a5
 285 00ac 2322F4FE 		sw	a5,-28(s0)
 286              	.L21:
 141:../Firmware/GD32VW55x_standard_peripheral/Source/gd32vw55x_efuse.c ****         }
 142:../Firmware/GD32VW55x_standard_peripheral/Source/gd32vw55x_efuse.c ****     }
 143:../Firmware/GD32VW55x_standard_peripheral/Source/gd32vw55x_efuse.c **** 
 144:../Firmware/GD32VW55x_standard_peripheral/Source/gd32vw55x_efuse.c ****     /* EFUSE power on */
 145:../Firmware/GD32VW55x_standard_peripheral/Source/gd32vw55x_efuse.c ****     RCU_CFG1 |= RCU_CFG1_BGPU;
 287              		.loc 1 145 14
 288 00b0 B7470240 		li	a5,1073889280
 289 00b4 9387C788 		addi	a5,a5,-1908
 290 00b8 9443     		lw	a3,0(a5)
 291 00ba B7470240 		li	a5,1073889280
 292 00be 9387C788 		addi	a5,a5,-1908
 293 00c2 37070800 		li	a4,524288
 294 00c6 558F     		or	a4,a3,a4
 295 00c8 98C3     		sw	a4,0(a5)
 146:../Firmware/GD32VW55x_standard_peripheral/Source/gd32vw55x_efuse.c ****     /* EFUSE write operation */
 147:../Firmware/GD32VW55x_standard_peripheral/Source/gd32vw55x_efuse.c ****     EFUSE_CS |= EFUSE_CS_EFRW;
 296              		.loc 1 147 14
 297 00ca B7370240 		li	a5,1073885184
 298 00ce 93870780 		addi	a5,a5,-2048
 299 00d2 9843     		lw	a4,0(a5)
 300 00d4 B7370240 		li	a5,1073885184
 301 00d8 93870780 		addi	a5,a5,-2048
 302 00dc 13672700 		ori	a4,a4,2
 303 00e0 98C3     		sw	a4,0(a5)
 148:../Firmware/GD32VW55x_standard_peripheral/Source/gd32vw55x_efuse.c ****     /* write EFUSE address and size */
 149:../Firmware/GD32VW55x_standard_peripheral/Source/gd32vw55x_efuse.c ****     EFUSE_ADDR = (uint32_t)((size << 8U) | ef_addr);
 304              		.loc 1 149 35
 305 00e2 832784FD 		lw	a5,-40(s0)
 306 00e6 93968700 		slli	a3,a5,8
 307              		.loc 1 149 5
 308 00ea B7370240 		li	a5,1073885184
 309 00ee 93874780 		addi	a5,a5,-2044
 310              		.loc 1 149 42
 311 00f2 0327C4FD 		lw	a4,-36(s0)
 312 00f6 558F     		or	a4,a3,a4
 313              		.loc 1 149 16
 314 00f8 98C3     		sw	a4,0(a5)
 150:../Firmware/GD32VW55x_standard_peripheral/Source/gd32vw55x_efuse.c ****     /* write EFUSE */
 151:../Firmware/GD32VW55x_standard_peripheral/Source/gd32vw55x_efuse.c ****     for(i = 0U; i < number; i++) {
 315              		.loc 1 151 11
 316 00fa 232604FE 		sw	zero,-20(s0)
 317              		.loc 1 151 5
 318 00fe 2DA0     		j	.L23
 319              	.L24:
 152:../Firmware/GD32VW55x_standard_peripheral/Source/gd32vw55x_efuse.c ****         REG32(reg_addr + (4U * i)) = buf[i];
 320              		.loc 1 152 41 discriminator 3
 321 0100 8327C4FE 		lw	a5,-20(s0)
 322 0104 8A07     		slli	a5,a5,2
 323 0106 032744FD 		lw	a4,-44(s0)
 324 010a BA97     		add	a5,a4,a5
 325              		.loc 1 152 9 discriminator 3
 326 010c 0327C4FE 		lw	a4,-20(s0)
 327 0110 93162700 		slli	a3,a4,2
 328 0114 032744FE 		lw	a4,-28(s0)
 329 0118 3697     		add	a4,a3,a4
 330              		.loc 1 152 41 discriminator 3
 331 011a 9C43     		lw	a5,0(a5)
 332              		.loc 1 152 36 discriminator 3
 333 011c 1CC3     		sw	a5,0(a4)
 151:../Firmware/GD32VW55x_standard_peripheral/Source/gd32vw55x_efuse.c ****         REG32(reg_addr + (4U * i)) = buf[i];
 334              		.loc 1 151 30 discriminator 3
 335 011e 8327C4FE 		lw	a5,-20(s0)
 336 0122 8507     		addi	a5,a5,1
 337 0124 2326F4FE 		sw	a5,-20(s0)
 338              	.L23:
 151:../Firmware/GD32VW55x_standard_peripheral/Source/gd32vw55x_efuse.c ****         REG32(reg_addr + (4U * i)) = buf[i];
 339              		.loc 1 151 5 discriminator 1
 340 0128 0327C4FE 		lw	a4,-20(s0)
 341 012c 832704FE 		lw	a5,-32(s0)
 342 0130 E368F7FC 		bltu	a4,a5,.L24
 153:../Firmware/GD32VW55x_standard_peripheral/Source/gd32vw55x_efuse.c ****     }
 154:../Firmware/GD32VW55x_standard_peripheral/Source/gd32vw55x_efuse.c ****     /* start write EFUSE operation */
 155:../Firmware/GD32VW55x_standard_peripheral/Source/gd32vw55x_efuse.c ****     EFUSE_CS |= EFUSE_CS_EFSTR;
 343              		.loc 1 155 14
 344 0134 B7370240 		li	a5,1073885184
 345 0138 93870780 		addi	a5,a5,-2048
 346 013c 9843     		lw	a4,0(a5)
 347 013e B7370240 		li	a5,1073885184
 348 0142 93870780 		addi	a5,a5,-2048
 349 0146 13671700 		ori	a4,a4,1
 350 014a 98C3     		sw	a4,0(a5)
 351              	.L26:
 156:../Firmware/GD32VW55x_standard_peripheral/Source/gd32vw55x_efuse.c **** 
 157:../Firmware/GD32VW55x_standard_peripheral/Source/gd32vw55x_efuse.c ****     /* wait for the operation to complete */
 158:../Firmware/GD32VW55x_standard_peripheral/Source/gd32vw55x_efuse.c ****     do {
 159:../Firmware/GD32VW55x_standard_peripheral/Source/gd32vw55x_efuse.c ****         timeout--;
 352              		.loc 1 159 16 discriminator 2
 353 014c 832784FE 		lw	a5,-24(s0)
 354 0150 FD17     		addi	a5,a5,-1
 355 0152 2324F4FE 		sw	a5,-24(s0)
 160:../Firmware/GD32VW55x_standard_peripheral/Source/gd32vw55x_efuse.c ****     } while((RESET == efuse_flag_get(EFUSE_PGIF)) && (0x00U != timeout));
 356              		.loc 1 160 23 discriminator 2
 357 0156 4165     		li	a0,65536
 358 0158 97000000 		call	efuse_flag_get
 358      E7800000 
 359 0160 AA87     		mv	a5,a0
 360              		.loc 1 160 5 discriminator 2
 361 0162 81E7     		bne	a5,zero,.L25
 362              		.loc 1 160 51 discriminator 1
 363 0164 832784FE 		lw	a5,-24(s0)
 364 0168 F5F3     		bne	a5,zero,.L26
 365              	.L25:
 161:../Firmware/GD32VW55x_standard_peripheral/Source/gd32vw55x_efuse.c ****     if(0x00U == timeout) {
 366              		.loc 1 161 7
 367 016a 832784FE 		lw	a5,-24(s0)
 368 016e 99E3     		bne	a5,zero,.L27
 162:../Firmware/GD32VW55x_standard_peripheral/Source/gd32vw55x_efuse.c ****         return ERROR;
 369              		.loc 1 162 16
 370 0170 8147     		li	a5,0
 371 0172 81A8     		j	.L18
 372              	.L27:
 163:../Firmware/GD32VW55x_standard_peripheral/Source/gd32vw55x_efuse.c ****     }
 164:../Firmware/GD32VW55x_standard_peripheral/Source/gd32vw55x_efuse.c **** 
 165:../Firmware/GD32VW55x_standard_peripheral/Source/gd32vw55x_efuse.c ****     /* clear EFUSE write operation flag */
 166:../Firmware/GD32VW55x_standard_peripheral/Source/gd32vw55x_efuse.c ****     EFUSE_CS &= (~EFUSE_CS_EFRW);
 373              		.loc 1 166 14
 374 0174 B7370240 		li	a5,1073885184
 375 0178 93870780 		addi	a5,a5,-2048
 376 017c 9843     		lw	a4,0(a5)
 377 017e B7370240 		li	a5,1073885184
 378 0182 93870780 		addi	a5,a5,-2048
 379 0186 759B     		andi	a4,a4,-3
 380 0188 98C3     		sw	a4,0(a5)
 167:../Firmware/GD32VW55x_standard_peripheral/Source/gd32vw55x_efuse.c ****     /* clear EFUSE write completed flag*/
 168:../Firmware/GD32VW55x_standard_peripheral/Source/gd32vw55x_efuse.c ****     EFUSE_CS |= (uint32_t)EFUSE_CS_PGIC;
 381              		.loc 1 168 14
 382 018a B7370240 		li	a5,1073885184
 383 018e 93870780 		addi	a5,a5,-2048
 384 0192 9443     		lw	a3,0(a5)
 385 0194 B7370240 		li	a5,1073885184
 386 0198 93870780 		addi	a5,a5,-2048
 387 019c 37070001 		li	a4,16777216
 388 01a0 558F     		or	a4,a3,a4
 389 01a2 98C3     		sw	a4,0(a5)
 169:../Firmware/GD32VW55x_standard_peripheral/Source/gd32vw55x_efuse.c ****     /* EFUSE power off */
 170:../Firmware/GD32VW55x_standard_peripheral/Source/gd32vw55x_efuse.c ****     RCU_CFG1 &= (~RCU_CFG1_BGPU);
 390              		.loc 1 170 14
 391 01a4 B7470240 		li	a5,1073889280
 392 01a8 9387C788 		addi	a5,a5,-1908
 393 01ac 9443     		lw	a3,0(a5)
 394 01ae B7470240 		li	a5,1073889280
 395 01b2 9387C788 		addi	a5,a5,-1908
 396 01b6 3707F8FF 		li	a4,-524288
 397 01ba 7D17     		addi	a4,a4,-1
 398 01bc 758F     		and	a4,a3,a4
 399 01be 98C3     		sw	a4,0(a5)
 171:../Firmware/GD32VW55x_standard_peripheral/Source/gd32vw55x_efuse.c **** 
 172:../Firmware/GD32VW55x_standard_peripheral/Source/gd32vw55x_efuse.c ****     return SUCCESS;
 400              		.loc 1 172 12
 401 01c0 8547     		li	a5,1
 402              	.L18:
 173:../Firmware/GD32VW55x_standard_peripheral/Source/gd32vw55x_efuse.c **** }
 403              		.loc 1 173 1
 404 01c2 3E85     		mv	a0,a5
 405 01c4 B250     		lw	ra,44(sp)
 406              		.cfi_restore 1
 407 01c6 2254     		lw	s0,40(sp)
 408              		.cfi_restore 8
 409              		.cfi_def_cfa 2, 48
 410 01c8 4561     		addi	sp,sp,48
 411              		.cfi_def_cfa_offset 0
 412 01ca 8280     		jr	ra
 413              		.cfi_endproc
 414              	.LFE348:
 416              		.section	.text.efuse_boot_config,"ax",@progbits
 417              		.align	1
 418              		.globl	efuse_boot_config
 420              	efuse_boot_config:
 421              	.LFB349:
 174:../Firmware/GD32VW55x_standard_peripheral/Source/gd32vw55x_efuse.c **** 
 175:../Firmware/GD32VW55x_standard_peripheral/Source/gd32vw55x_efuse.c **** /*!
 176:../Firmware/GD32VW55x_standard_peripheral/Source/gd32vw55x_efuse.c ****     \brief      configure boot
 177:../Firmware/GD32VW55x_standard_peripheral/Source/gd32vw55x_efuse.c ****     \param[in]  size: size of data(byte)
 178:../Firmware/GD32VW55x_standard_peripheral/Source/gd32vw55x_efuse.c ****       \arg        the size must be 1
 179:../Firmware/GD32VW55x_standard_peripheral/Source/gd32vw55x_efuse.c ****     \param[in]  bt_value: the value of boot configuration
 180:../Firmware/GD32VW55x_standard_peripheral/Source/gd32vw55x_efuse.c ****     \param[out] none
 181:../Firmware/GD32VW55x_standard_peripheral/Source/gd32vw55x_efuse.c ****     \retval     ErrStatus: ERROR or SUCCESS
 182:../Firmware/GD32VW55x_standard_peripheral/Source/gd32vw55x_efuse.c **** */
 183:../Firmware/GD32VW55x_standard_peripheral/Source/gd32vw55x_efuse.c **** ErrStatus efuse_boot_config(uint32_t size, uint8_t bt_value[])
 184:../Firmware/GD32VW55x_standard_peripheral/Source/gd32vw55x_efuse.c **** {
 422              		.loc 1 184 1
 423              		.cfi_startproc
 424 0000 0111     		addi	sp,sp,-32
 425              		.cfi_def_cfa_offset 32
 426 0002 06CE     		sw	ra,28(sp)
 427 0004 22CC     		sw	s0,24(sp)
 428              		.cfi_offset 1, -4
 429              		.cfi_offset 8, -8
 430 0006 0010     		addi	s0,sp,32
 431              		.cfi_def_cfa 8, 0
 432 0008 2326A4FE 		sw	a0,-20(s0)
 433 000c 2324B4FE 		sw	a1,-24(s0)
 185:../Firmware/GD32VW55x_standard_peripheral/Source/gd32vw55x_efuse.c ****     if(size != 1U) {
 434              		.loc 1 185 7
 435 0010 0327C4FE 		lw	a4,-20(s0)
 436 0014 8547     		li	a5,1
 437 0016 6304F700 		beq	a4,a5,.L29
 186:../Firmware/GD32VW55x_standard_peripheral/Source/gd32vw55x_efuse.c ****         return ERROR;
 438              		.loc 1 186 16
 439 001a 8147     		li	a5,0
 440 001c 19A8     		j	.L30
 441              	.L29:
 187:../Firmware/GD32VW55x_standard_peripheral/Source/gd32vw55x_efuse.c ****     }
 188:../Firmware/GD32VW55x_standard_peripheral/Source/gd32vw55x_efuse.c ****     return efuse_write(EFUSE_CTL0_ADDR, size, (uint32_t *)bt_value);
 442              		.loc 1 188 12
 443 001e 032684FE 		lw	a2,-24(s0)
 444 0022 8325C4FE 		lw	a1,-20(s0)
 445 0026 0145     		li	a0,0
 446 0028 97000000 		call	efuse_write
 446      E7800000 
 447 0030 AA87     		mv	a5,a0
 448              	.L30:
 189:../Firmware/GD32VW55x_standard_peripheral/Source/gd32vw55x_efuse.c **** }
 449              		.loc 1 189 1
 450 0032 3E85     		mv	a0,a5
 451 0034 F240     		lw	ra,28(sp)
 452              		.cfi_restore 1
 453 0036 6244     		lw	s0,24(sp)
 454              		.cfi_restore 8
 455              		.cfi_def_cfa 2, 32
 456 0038 0561     		addi	sp,sp,32
 457              		.cfi_def_cfa_offset 0
 458 003a 8280     		jr	ra
 459              		.cfi_endproc
 460              	.LFE349:
 462              		.section	.text.efuse_control1_config,"ax",@progbits
 463              		.align	1
 464              		.globl	efuse_control1_config
 466              	efuse_control1_config:
 467              	.LFB350:
 190:../Firmware/GD32VW55x_standard_peripheral/Source/gd32vw55x_efuse.c **** 
 191:../Firmware/GD32VW55x_standard_peripheral/Source/gd32vw55x_efuse.c **** /*!
 192:../Firmware/GD32VW55x_standard_peripheral/Source/gd32vw55x_efuse.c ****     \brief      configure efuse control1
 193:../Firmware/GD32VW55x_standard_peripheral/Source/gd32vw55x_efuse.c ****     \param[in]  size: size of data(byte)
 194:../Firmware/GD32VW55x_standard_peripheral/Source/gd32vw55x_efuse.c ****       \arg      the size must be 1
 195:../Firmware/GD32VW55x_standard_peripheral/Source/gd32vw55x_efuse.c ****     \param[in]  ctl: control value
 196:../Firmware/GD32VW55x_standard_peripheral/Source/gd32vw55x_efuse.c ****     \param[out] none
 197:../Firmware/GD32VW55x_standard_peripheral/Source/gd32vw55x_efuse.c ****     \retval     ErrStatus: ERROR or SUCCESS
 198:../Firmware/GD32VW55x_standard_peripheral/Source/gd32vw55x_efuse.c **** */
 199:../Firmware/GD32VW55x_standard_peripheral/Source/gd32vw55x_efuse.c **** ErrStatus efuse_control1_config(uint32_t size, uint8_t ctl[])
 200:../Firmware/GD32VW55x_standard_peripheral/Source/gd32vw55x_efuse.c **** {
 468              		.loc 1 200 1
 469              		.cfi_startproc
 470 0000 0111     		addi	sp,sp,-32
 471              		.cfi_def_cfa_offset 32
 472 0002 06CE     		sw	ra,28(sp)
 473 0004 22CC     		sw	s0,24(sp)
 474              		.cfi_offset 1, -4
 475              		.cfi_offset 8, -8
 476 0006 0010     		addi	s0,sp,32
 477              		.cfi_def_cfa 8, 0
 478 0008 2326A4FE 		sw	a0,-20(s0)
 479 000c 2324B4FE 		sw	a1,-24(s0)
 201:../Firmware/GD32VW55x_standard_peripheral/Source/gd32vw55x_efuse.c ****     if(size != 1U) {
 480              		.loc 1 201 7
 481 0010 0327C4FE 		lw	a4,-20(s0)
 482 0014 8547     		li	a5,1
 483 0016 6304F700 		beq	a4,a5,.L32
 202:../Firmware/GD32VW55x_standard_peripheral/Source/gd32vw55x_efuse.c ****         return ERROR;
 484              		.loc 1 202 16
 485 001a 8147     		li	a5,0
 486 001c 19A8     		j	.L33
 487              	.L32:
 203:../Firmware/GD32VW55x_standard_peripheral/Source/gd32vw55x_efuse.c ****     }
 204:../Firmware/GD32VW55x_standard_peripheral/Source/gd32vw55x_efuse.c ****     return efuse_write(EFUSE_CTL1_ADDR, size, (uint32_t *)ctl);
 488              		.loc 1 204 12
 489 001e 032684FE 		lw	a2,-24(s0)
 490 0022 8325C4FE 		lw	a1,-20(s0)
 491 0026 0545     		li	a0,1
 492 0028 97000000 		call	efuse_write
 492      E7800000 
 493 0030 AA87     		mv	a5,a0
 494              	.L33:
 205:../Firmware/GD32VW55x_standard_peripheral/Source/gd32vw55x_efuse.c **** }
 495              		.loc 1 205 1
 496 0032 3E85     		mv	a0,a5
 497 0034 F240     		lw	ra,28(sp)
 498              		.cfi_restore 1
 499 0036 6244     		lw	s0,24(sp)
 500              		.cfi_restore 8
 501              		.cfi_def_cfa 2, 32
 502 0038 0561     		addi	sp,sp,32
 503              		.cfi_def_cfa_offset 0
 504 003a 8280     		jr	ra
 505              		.cfi_endproc
 506              	.LFE350:
 508              		.section	.text.efuse_fp_config,"ax",@progbits
 509              		.align	1
 510              		.globl	efuse_fp_config
 512              	efuse_fp_config:
 513              	.LFB351:
 206:../Firmware/GD32VW55x_standard_peripheral/Source/gd32vw55x_efuse.c **** 
 207:../Firmware/GD32VW55x_standard_peripheral/Source/gd32vw55x_efuse.c **** /*!
 208:../Firmware/GD32VW55x_standard_peripheral/Source/gd32vw55x_efuse.c ****     \brief      configure flash protection
 209:../Firmware/GD32VW55x_standard_peripheral/Source/gd32vw55x_efuse.c ****     \param[in]  size: size of data(byte)
 210:../Firmware/GD32VW55x_standard_peripheral/Source/gd32vw55x_efuse.c ****       \arg        the size must be 1
 211:../Firmware/GD32VW55x_standard_peripheral/Source/gd32vw55x_efuse.c ****     \param[in]  fp_value: flash protection value
 212:../Firmware/GD32VW55x_standard_peripheral/Source/gd32vw55x_efuse.c ****     \param[out] none
 213:../Firmware/GD32VW55x_standard_peripheral/Source/gd32vw55x_efuse.c ****     \retval     ErrStatus: ERROR or SUCCESS
 214:../Firmware/GD32VW55x_standard_peripheral/Source/gd32vw55x_efuse.c **** */
 215:../Firmware/GD32VW55x_standard_peripheral/Source/gd32vw55x_efuse.c **** ErrStatus efuse_fp_config(uint32_t size, uint8_t fp_value[])
 216:../Firmware/GD32VW55x_standard_peripheral/Source/gd32vw55x_efuse.c **** {
 514              		.loc 1 216 1
 515              		.cfi_startproc
 516 0000 0111     		addi	sp,sp,-32
 517              		.cfi_def_cfa_offset 32
 518 0002 06CE     		sw	ra,28(sp)
 519 0004 22CC     		sw	s0,24(sp)
 520              		.cfi_offset 1, -4
 521              		.cfi_offset 8, -8
 522 0006 0010     		addi	s0,sp,32
 523              		.cfi_def_cfa 8, 0
 524 0008 2326A4FE 		sw	a0,-20(s0)
 525 000c 2324B4FE 		sw	a1,-24(s0)
 217:../Firmware/GD32VW55x_standard_peripheral/Source/gd32vw55x_efuse.c ****     if(size != 1U) {
 526              		.loc 1 217 7
 527 0010 0327C4FE 		lw	a4,-20(s0)
 528 0014 8547     		li	a5,1
 529 0016 6304F700 		beq	a4,a5,.L35
 218:../Firmware/GD32VW55x_standard_peripheral/Source/gd32vw55x_efuse.c ****         return ERROR;
 530              		.loc 1 218 16
 531 001a 8147     		li	a5,0
 532 001c 19A8     		j	.L36
 533              	.L35:
 219:../Firmware/GD32VW55x_standard_peripheral/Source/gd32vw55x_efuse.c ****     }
 220:../Firmware/GD32VW55x_standard_peripheral/Source/gd32vw55x_efuse.c ****     return efuse_write(FP_ADDR, size, (uint32_t *)fp_value);
 534              		.loc 1 220 12
 535 001e 032684FE 		lw	a2,-24(s0)
 536 0022 8325C4FE 		lw	a1,-20(s0)
 537 0026 0945     		li	a0,2
 538 0028 97000000 		call	efuse_write
 538      E7800000 
 539 0030 AA87     		mv	a5,a0
 540              	.L36:
 221:../Firmware/GD32VW55x_standard_peripheral/Source/gd32vw55x_efuse.c **** }
 541              		.loc 1 221 1
 542 0032 3E85     		mv	a0,a5
 543 0034 F240     		lw	ra,28(sp)
 544              		.cfi_restore 1
 545 0036 6244     		lw	s0,24(sp)
 546              		.cfi_restore 8
 547              		.cfi_def_cfa 2, 32
 548 0038 0561     		addi	sp,sp,32
 549              		.cfi_def_cfa_offset 0
 550 003a 8280     		jr	ra
 551              		.cfi_endproc
 552              	.LFE351:
 554              		.section	.text.efuse_user_control_config,"ax",@progbits
 555              		.align	1
 556              		.globl	efuse_user_control_config
 558              	efuse_user_control_config:
 559              	.LFB352:
 222:../Firmware/GD32VW55x_standard_peripheral/Source/gd32vw55x_efuse.c **** 
 223:../Firmware/GD32VW55x_standard_peripheral/Source/gd32vw55x_efuse.c **** /*!
 224:../Firmware/GD32VW55x_standard_peripheral/Source/gd32vw55x_efuse.c ****     \brief      configure user control
 225:../Firmware/GD32VW55x_standard_peripheral/Source/gd32vw55x_efuse.c ****     \param[in]  size: size of data(byte)
 226:../Firmware/GD32VW55x_standard_peripheral/Source/gd32vw55x_efuse.c ****       \arg        the size must be 1
 227:../Firmware/GD32VW55x_standard_peripheral/Source/gd32vw55x_efuse.c ****     \param[in]  user_ctl: user control value
 228:../Firmware/GD32VW55x_standard_peripheral/Source/gd32vw55x_efuse.c ****     \param[out] none
 229:../Firmware/GD32VW55x_standard_peripheral/Source/gd32vw55x_efuse.c ****     \retval     ErrStatus: ERROR or SUCCESS
 230:../Firmware/GD32VW55x_standard_peripheral/Source/gd32vw55x_efuse.c **** */
 231:../Firmware/GD32VW55x_standard_peripheral/Source/gd32vw55x_efuse.c **** ErrStatus efuse_user_control_config(uint32_t size, uint8_t user_ctl[])
 232:../Firmware/GD32VW55x_standard_peripheral/Source/gd32vw55x_efuse.c **** {
 560              		.loc 1 232 1
 561              		.cfi_startproc
 562 0000 0111     		addi	sp,sp,-32
 563              		.cfi_def_cfa_offset 32
 564 0002 06CE     		sw	ra,28(sp)
 565 0004 22CC     		sw	s0,24(sp)
 566              		.cfi_offset 1, -4
 567              		.cfi_offset 8, -8
 568 0006 0010     		addi	s0,sp,32
 569              		.cfi_def_cfa 8, 0
 570 0008 2326A4FE 		sw	a0,-20(s0)
 571 000c 2324B4FE 		sw	a1,-24(s0)
 233:../Firmware/GD32VW55x_standard_peripheral/Source/gd32vw55x_efuse.c ****     if(size != 1U) {
 572              		.loc 1 233 7
 573 0010 0327C4FE 		lw	a4,-20(s0)
 574 0014 8547     		li	a5,1
 575 0016 6304F700 		beq	a4,a5,.L38
 234:../Firmware/GD32VW55x_standard_peripheral/Source/gd32vw55x_efuse.c ****         return ERROR;
 576              		.loc 1 234 16
 577 001a 8147     		li	a5,0
 578 001c 19A8     		j	.L39
 579              	.L38:
 235:../Firmware/GD32VW55x_standard_peripheral/Source/gd32vw55x_efuse.c ****     }
 236:../Firmware/GD32VW55x_standard_peripheral/Source/gd32vw55x_efuse.c ****     return efuse_write(USER_CTL_ADDR, size, (uint32_t *)user_ctl);
 580              		.loc 1 236 12
 581 001e 032684FE 		lw	a2,-24(s0)
 582 0022 8325C4FE 		lw	a1,-20(s0)
 583 0026 0D45     		li	a0,3
 584 0028 97000000 		call	efuse_write
 584      E7800000 
 585 0030 AA87     		mv	a5,a0
 586              	.L39:
 237:../Firmware/GD32VW55x_standard_peripheral/Source/gd32vw55x_efuse.c **** }
 587              		.loc 1 237 1
 588 0032 3E85     		mv	a0,a5
 589 0034 F240     		lw	ra,28(sp)
 590              		.cfi_restore 1
 591 0036 6244     		lw	s0,24(sp)
 592              		.cfi_restore 8
 593              		.cfi_def_cfa 2, 32
 594 0038 0561     		addi	sp,sp,32
 595              		.cfi_def_cfa_offset 0
 596 003a 8280     		jr	ra
 597              		.cfi_endproc
 598              	.LFE352:
 600              		.section	.text.efuse_res_write,"ax",@progbits
 601              		.align	1
 602              		.globl	efuse_res_write
 604              	efuse_res_write:
 605              	.LFB353:
 238:../Firmware/GD32VW55x_standard_peripheral/Source/gd32vw55x_efuse.c **** 
 239:../Firmware/GD32VW55x_standard_peripheral/Source/gd32vw55x_efuse.c **** /*!
 240:../Firmware/GD32VW55x_standard_peripheral/Source/gd32vw55x_efuse.c ****     \brief      write MCU reserved value
 241:../Firmware/GD32VW55x_standard_peripheral/Source/gd32vw55x_efuse.c ****     \param[in]  size: size of data(byte)
 242:../Firmware/GD32VW55x_standard_peripheral/Source/gd32vw55x_efuse.c ****       \arg        the size must be 12
 243:../Firmware/GD32VW55x_standard_peripheral/Source/gd32vw55x_efuse.c ****     \param[in]  buf: MCU reserved value
 244:../Firmware/GD32VW55x_standard_peripheral/Source/gd32vw55x_efuse.c ****     \param[out] none
 245:../Firmware/GD32VW55x_standard_peripheral/Source/gd32vw55x_efuse.c ****     \retval     ErrStatus: ERROR or SUCCESS
 246:../Firmware/GD32VW55x_standard_peripheral/Source/gd32vw55x_efuse.c **** */
 247:../Firmware/GD32VW55x_standard_peripheral/Source/gd32vw55x_efuse.c **** ErrStatus efuse_res_write(uint32_t size, uint8_t buf[])
 248:../Firmware/GD32VW55x_standard_peripheral/Source/gd32vw55x_efuse.c **** {
 606              		.loc 1 248 1
 607              		.cfi_startproc
 608 0000 0111     		addi	sp,sp,-32
 609              		.cfi_def_cfa_offset 32
 610 0002 06CE     		sw	ra,28(sp)
 611 0004 22CC     		sw	s0,24(sp)
 612              		.cfi_offset 1, -4
 613              		.cfi_offset 8, -8
 614 0006 0010     		addi	s0,sp,32
 615              		.cfi_def_cfa 8, 0
 616 0008 2326A4FE 		sw	a0,-20(s0)
 617 000c 2324B4FE 		sw	a1,-24(s0)
 249:../Firmware/GD32VW55x_standard_peripheral/Source/gd32vw55x_efuse.c ****     if(size != 12U) {
 618              		.loc 1 249 7
 619 0010 0327C4FE 		lw	a4,-20(s0)
 620 0014 B147     		li	a5,12
 621 0016 6304F700 		beq	a4,a5,.L41
 250:../Firmware/GD32VW55x_standard_peripheral/Source/gd32vw55x_efuse.c ****         return ERROR;
 622              		.loc 1 250 16
 623 001a 8147     		li	a5,0
 624 001c 19A8     		j	.L42
 625              	.L41:
 251:../Firmware/GD32VW55x_standard_peripheral/Source/gd32vw55x_efuse.c ****     }
 252:../Firmware/GD32VW55x_standard_peripheral/Source/gd32vw55x_efuse.c ****     return efuse_write(RESERVED_ADDR, size, (uint32_t *)buf);
 626              		.loc 1 252 12
 627 001e 032684FE 		lw	a2,-24(s0)
 628 0022 8325C4FE 		lw	a1,-20(s0)
 629 0026 1145     		li	a0,4
 630 0028 97000000 		call	efuse_write
 630      E7800000 
 631 0030 AA87     		mv	a5,a0
 632              	.L42:
 253:../Firmware/GD32VW55x_standard_peripheral/Source/gd32vw55x_efuse.c **** }
 633              		.loc 1 253 1
 634 0032 3E85     		mv	a0,a5
 635 0034 F240     		lw	ra,28(sp)
 636              		.cfi_restore 1
 637 0036 6244     		lw	s0,24(sp)
 638              		.cfi_restore 8
 639              		.cfi_def_cfa 2, 32
 640 0038 0561     		addi	sp,sp,32
 641              		.cfi_def_cfa_offset 0
 642 003a 8280     		jr	ra
 643              		.cfi_endproc
 644              	.LFE353:
 646              		.section	.text.efuse_aes_key_write,"ax",@progbits
 647              		.align	1
 648              		.globl	efuse_aes_key_write
 650              	efuse_aes_key_write:
 651              	.LFB354:
 254:../Firmware/GD32VW55x_standard_peripheral/Source/gd32vw55x_efuse.c **** 
 255:../Firmware/GD32VW55x_standard_peripheral/Source/gd32vw55x_efuse.c **** /*!
 256:../Firmware/GD32VW55x_standard_peripheral/Source/gd32vw55x_efuse.c ****     \brief      write AES key
 257:../Firmware/GD32VW55x_standard_peripheral/Source/gd32vw55x_efuse.c ****     \param[in]  size: size of data(byte)
 258:../Firmware/GD32VW55x_standard_peripheral/Source/gd32vw55x_efuse.c ****       \arg        the size must be 16
 259:../Firmware/GD32VW55x_standard_peripheral/Source/gd32vw55x_efuse.c ****     \param[in]  buf: the buffer of data written to efuse
 260:../Firmware/GD32VW55x_standard_peripheral/Source/gd32vw55x_efuse.c ****     \param[out] none
 261:../Firmware/GD32VW55x_standard_peripheral/Source/gd32vw55x_efuse.c ****     \retval     ErrStatus: ERROR or SUCCESS
 262:../Firmware/GD32VW55x_standard_peripheral/Source/gd32vw55x_efuse.c **** */
 263:../Firmware/GD32VW55x_standard_peripheral/Source/gd32vw55x_efuse.c **** ErrStatus efuse_aes_key_write(uint32_t size, uint8_t buf[])
 264:../Firmware/GD32VW55x_standard_peripheral/Source/gd32vw55x_efuse.c **** {
 652              		.loc 1 264 1
 653              		.cfi_startproc
 654 0000 0111     		addi	sp,sp,-32
 655              		.cfi_def_cfa_offset 32
 656 0002 06CE     		sw	ra,28(sp)
 657 0004 22CC     		sw	s0,24(sp)
 658              		.cfi_offset 1, -4
 659              		.cfi_offset 8, -8
 660 0006 0010     		addi	s0,sp,32
 661              		.cfi_def_cfa 8, 0
 662 0008 2326A4FE 		sw	a0,-20(s0)
 663 000c 2324B4FE 		sw	a1,-24(s0)
 265:../Firmware/GD32VW55x_standard_peripheral/Source/gd32vw55x_efuse.c ****     if(size != 16U) {
 664              		.loc 1 265 7
 665 0010 0327C4FE 		lw	a4,-20(s0)
 666 0014 C147     		li	a5,16
 667 0016 6304F700 		beq	a4,a5,.L44
 266:../Firmware/GD32VW55x_standard_peripheral/Source/gd32vw55x_efuse.c ****         return ERROR;
 668              		.loc 1 266 16
 669 001a 8147     		li	a5,0
 670 001c 19A8     		j	.L45
 671              	.L44:
 267:../Firmware/GD32VW55x_standard_peripheral/Source/gd32vw55x_efuse.c ****     }
 268:../Firmware/GD32VW55x_standard_peripheral/Source/gd32vw55x_efuse.c ****     return efuse_write(AES_KEY_ADDR, size, (uint32_t *)buf);
 672              		.loc 1 268 12
 673 001e 032684FE 		lw	a2,-24(s0)
 674 0022 8325C4FE 		lw	a1,-20(s0)
 675 0026 4145     		li	a0,16
 676 0028 97000000 		call	efuse_write
 676      E7800000 
 677 0030 AA87     		mv	a5,a0
 678              	.L45:
 269:../Firmware/GD32VW55x_standard_peripheral/Source/gd32vw55x_efuse.c **** }
 679              		.loc 1 269 1
 680 0032 3E85     		mv	a0,a5
 681 0034 F240     		lw	ra,28(sp)
 682              		.cfi_restore 1
 683 0036 6244     		lw	s0,24(sp)
 684              		.cfi_restore 8
 685              		.cfi_def_cfa 2, 32
 686 0038 0561     		addi	sp,sp,32
 687              		.cfi_def_cfa_offset 0
 688 003a 8280     		jr	ra
 689              		.cfi_endproc
 690              	.LFE354:
 692              		.section	.text.efuse_rotpk_key_write,"ax",@progbits
 693              		.align	1
 694              		.globl	efuse_rotpk_key_write
 696              	efuse_rotpk_key_write:
 697              	.LFB355:
 270:../Firmware/GD32VW55x_standard_peripheral/Source/gd32vw55x_efuse.c **** 
 271:../Firmware/GD32VW55x_standard_peripheral/Source/gd32vw55x_efuse.c **** /*!
 272:../Firmware/GD32VW55x_standard_peripheral/Source/gd32vw55x_efuse.c ****     \brief      write ROTPK key
 273:../Firmware/GD32VW55x_standard_peripheral/Source/gd32vw55x_efuse.c ****     \param[in]  size: size of data(byte)
 274:../Firmware/GD32VW55x_standard_peripheral/Source/gd32vw55x_efuse.c ****       \arg        the size must be 32
 275:../Firmware/GD32VW55x_standard_peripheral/Source/gd32vw55x_efuse.c ****     \param[in]  buf: the buffer of data written to efuse
 276:../Firmware/GD32VW55x_standard_peripheral/Source/gd32vw55x_efuse.c ****     \param[out] none
 277:../Firmware/GD32VW55x_standard_peripheral/Source/gd32vw55x_efuse.c ****     \retval     ErrStatus: ERROR or SUCCESS
 278:../Firmware/GD32VW55x_standard_peripheral/Source/gd32vw55x_efuse.c **** */
 279:../Firmware/GD32VW55x_standard_peripheral/Source/gd32vw55x_efuse.c **** ErrStatus efuse_rotpk_key_write(uint32_t size, uint8_t buf[])
 280:../Firmware/GD32VW55x_standard_peripheral/Source/gd32vw55x_efuse.c **** {
 698              		.loc 1 280 1
 699              		.cfi_startproc
 700 0000 0111     		addi	sp,sp,-32
 701              		.cfi_def_cfa_offset 32
 702 0002 06CE     		sw	ra,28(sp)
 703 0004 22CC     		sw	s0,24(sp)
 704              		.cfi_offset 1, -4
 705              		.cfi_offset 8, -8
 706 0006 0010     		addi	s0,sp,32
 707              		.cfi_def_cfa 8, 0
 708 0008 2326A4FE 		sw	a0,-20(s0)
 709 000c 2324B4FE 		sw	a1,-24(s0)
 281:../Firmware/GD32VW55x_standard_peripheral/Source/gd32vw55x_efuse.c ****     if(size != 32U) {
 710              		.loc 1 281 7
 711 0010 0327C4FE 		lw	a4,-20(s0)
 712 0014 93070002 		li	a5,32
 713 0018 6304F700 		beq	a4,a5,.L47
 282:../Firmware/GD32VW55x_standard_peripheral/Source/gd32vw55x_efuse.c ****         return ERROR;
 714              		.loc 1 282 16
 715 001c 8147     		li	a5,0
 716 001e 21A8     		j	.L48
 717              	.L47:
 283:../Firmware/GD32VW55x_standard_peripheral/Source/gd32vw55x_efuse.c ****     }
 284:../Firmware/GD32VW55x_standard_peripheral/Source/gd32vw55x_efuse.c ****     return efuse_write(ROTPK_ADDR, size, (uint32_t *)buf);
 718              		.loc 1 284 12
 719 0020 032684FE 		lw	a2,-24(s0)
 720 0024 8325C4FE 		lw	a1,-20(s0)
 721 0028 13050002 		li	a0,32
 722 002c 97000000 		call	efuse_write
 722      E7800000 
 723 0034 AA87     		mv	a5,a0
 724              	.L48:
 285:../Firmware/GD32VW55x_standard_peripheral/Source/gd32vw55x_efuse.c **** }
 725              		.loc 1 285 1
 726 0036 3E85     		mv	a0,a5
 727 0038 F240     		lw	ra,28(sp)
 728              		.cfi_restore 1
 729 003a 6244     		lw	s0,24(sp)
 730              		.cfi_restore 8
 731              		.cfi_def_cfa 2, 32
 732 003c 0561     		addi	sp,sp,32
 733              		.cfi_def_cfa_offset 0
 734 003e 8280     		jr	ra
 735              		.cfi_endproc
 736              	.LFE355:
 738              		.section	.text.efuse_user_data_write,"ax",@progbits
 739              		.align	1
 740              		.globl	efuse_user_data_write
 742              	efuse_user_data_write:
 743              	.LFB356:
 286:../Firmware/GD32VW55x_standard_peripheral/Source/gd32vw55x_efuse.c **** 
 287:../Firmware/GD32VW55x_standard_peripheral/Source/gd32vw55x_efuse.c **** /*!
 288:../Firmware/GD32VW55x_standard_peripheral/Source/gd32vw55x_efuse.c ****     \brief      write user data
 289:../Firmware/GD32VW55x_standard_peripheral/Source/gd32vw55x_efuse.c ****     \param[in]  size: size of data(byte)
 290:../Firmware/GD32VW55x_standard_peripheral/Source/gd32vw55x_efuse.c ****       \arg        the size must be 32
 291:../Firmware/GD32VW55x_standard_peripheral/Source/gd32vw55x_efuse.c ****     \param[in]  buf: the buffer of data written to efuse
 292:../Firmware/GD32VW55x_standard_peripheral/Source/gd32vw55x_efuse.c ****     \param[out] none
 293:../Firmware/GD32VW55x_standard_peripheral/Source/gd32vw55x_efuse.c ****     \retval     ErrStatus: ERROR or SUCCESS
 294:../Firmware/GD32VW55x_standard_peripheral/Source/gd32vw55x_efuse.c **** */
 295:../Firmware/GD32VW55x_standard_peripheral/Source/gd32vw55x_efuse.c **** ErrStatus efuse_user_data_write(uint32_t size, uint8_t buf[])
 296:../Firmware/GD32VW55x_standard_peripheral/Source/gd32vw55x_efuse.c **** {
 744              		.loc 1 296 1
 745              		.cfi_startproc
 746 0000 0111     		addi	sp,sp,-32
 747              		.cfi_def_cfa_offset 32
 748 0002 06CE     		sw	ra,28(sp)
 749 0004 22CC     		sw	s0,24(sp)
 750              		.cfi_offset 1, -4
 751              		.cfi_offset 8, -8
 752 0006 0010     		addi	s0,sp,32
 753              		.cfi_def_cfa 8, 0
 754 0008 2326A4FE 		sw	a0,-20(s0)
 755 000c 2324B4FE 		sw	a1,-24(s0)
 297:../Firmware/GD32VW55x_standard_peripheral/Source/gd32vw55x_efuse.c ****     if(size != 32U) {
 756              		.loc 1 297 7
 757 0010 0327C4FE 		lw	a4,-20(s0)
 758 0014 93070002 		li	a5,32
 759 0018 6304F700 		beq	a4,a5,.L50
 298:../Firmware/GD32VW55x_standard_peripheral/Source/gd32vw55x_efuse.c ****         return ERROR;
 760              		.loc 1 298 16
 761 001c 8147     		li	a5,0
 762 001e 21A8     		j	.L51
 763              	.L50:
 299:../Firmware/GD32VW55x_standard_peripheral/Source/gd32vw55x_efuse.c ****     }
 300:../Firmware/GD32VW55x_standard_peripheral/Source/gd32vw55x_efuse.c ****     return efuse_write(USER_DATA_ADDR, size, (uint32_t *)buf);
 764              		.loc 1 300 12
 765 0020 032684FE 		lw	a2,-24(s0)
 766 0024 8325C4FE 		lw	a1,-20(s0)
 767 0028 13050006 		li	a0,96
 768 002c 97000000 		call	efuse_write
 768      E7800000 
 769 0034 AA87     		mv	a5,a0
 770              	.L51:
 301:../Firmware/GD32VW55x_standard_peripheral/Source/gd32vw55x_efuse.c **** }
 771              		.loc 1 301 1
 772 0036 3E85     		mv	a0,a5
 773 0038 F240     		lw	ra,28(sp)
 774              		.cfi_restore 1
 775 003a 6244     		lw	s0,24(sp)
 776              		.cfi_restore 8
 777              		.cfi_def_cfa 2, 32
 778 003c 0561     		addi	sp,sp,32
 779              		.cfi_def_cfa_offset 0
 780 003e 8280     		jr	ra
 781              		.cfi_endproc
 782              	.LFE356:
 784              		.section	.text.efuse_res_read,"ax",@progbits
 785              		.align	1
 786              		.globl	efuse_res_read
 788              	efuse_res_read:
 789              	.LFB357:
 302:../Firmware/GD32VW55x_standard_peripheral/Source/gd32vw55x_efuse.c **** 
 303:../Firmware/GD32VW55x_standard_peripheral/Source/gd32vw55x_efuse.c **** /*!
 304:../Firmware/GD32VW55x_standard_peripheral/Source/gd32vw55x_efuse.c ****     \brief      read MCU reserved value
 305:../Firmware/GD32VW55x_standard_peripheral/Source/gd32vw55x_efuse.c ****     \param[in]  none
 306:../Firmware/GD32VW55x_standard_peripheral/Source/gd32vw55x_efuse.c ****     \param[out] buf: MCU reserved value after system reset
 307:../Firmware/GD32VW55x_standard_peripheral/Source/gd32vw55x_efuse.c ****     \retval     none
 308:../Firmware/GD32VW55x_standard_peripheral/Source/gd32vw55x_efuse.c **** */
 309:../Firmware/GD32VW55x_standard_peripheral/Source/gd32vw55x_efuse.c **** void efuse_res_read(uint32_t buf[])
 310:../Firmware/GD32VW55x_standard_peripheral/Source/gd32vw55x_efuse.c **** {
 790              		.loc 1 310 1
 791              		.cfi_startproc
 792 0000 7971     		addi	sp,sp,-48
 793              		.cfi_def_cfa_offset 48
 794 0002 22D6     		sw	s0,44(sp)
 795              		.cfi_offset 8, -4
 796 0004 0018     		addi	s0,sp,48
 797              		.cfi_def_cfa 8, 0
 798 0006 232EA4FC 		sw	a0,-36(s0)
 311:../Firmware/GD32VW55x_standard_peripheral/Source/gd32vw55x_efuse.c ****     uint8_t i = 0U;
 799              		.loc 1 311 13
 800 000a A30704FE 		sb	zero,-17(s0)
 312:../Firmware/GD32VW55x_standard_peripheral/Source/gd32vw55x_efuse.c ****     for(i = 0U; i < 3U; i++) {
 801              		.loc 1 312 11
 802 000e A30704FE 		sb	zero,-17(s0)
 803              		.loc 1 312 5
 804 0012 3DA0     		j	.L53
 805              	.L54:
 313:../Firmware/GD32VW55x_standard_peripheral/Source/gd32vw55x_efuse.c ****         buf[i] = REG32(EFUSE + 0x18U + 0x04U * i);
 806              		.loc 1 313 18 discriminator 3
 807 0014 0347F4FE 		lbu	a4,-17(s0)
 808 0018 B7970010 		li	a5,268472320
 809 001c 938767A0 		addi	a5,a5,-1530
 810 0020 BA97     		add	a5,a4,a5
 811 0022 8A07     		slli	a5,a5,2
 812 0024 BE86     		mv	a3,a5
 813              		.loc 1 313 12 discriminator 3
 814 0026 8347F4FE 		lbu	a5,-17(s0)
 815 002a 8A07     		slli	a5,a5,2
 816 002c 0327C4FD 		lw	a4,-36(s0)
 817 0030 BA97     		add	a5,a4,a5
 818              		.loc 1 313 18 discriminator 3
 819 0032 9842     		lw	a4,0(a3)
 820              		.loc 1 313 16 discriminator 3
 821 0034 98C3     		sw	a4,0(a5)
 312:../Firmware/GD32VW55x_standard_peripheral/Source/gd32vw55x_efuse.c ****     for(i = 0U; i < 3U; i++) {
 822              		.loc 1 312 26 discriminator 3
 823 0036 8347F4FE 		lbu	a5,-17(s0)
 824 003a 8507     		addi	a5,a5,1
 825 003c A307F4FE 		sb	a5,-17(s0)
 826              	.L53:
 312:../Firmware/GD32VW55x_standard_peripheral/Source/gd32vw55x_efuse.c ****     for(i = 0U; i < 3U; i++) {
 827              		.loc 1 312 5 discriminator 1
 828 0040 0347F4FE 		lbu	a4,-17(s0)
 829 0044 8947     		li	a5,2
 830 0046 E3F7E7FC 		bleu	a4,a5,.L54
 314:../Firmware/GD32VW55x_standard_peripheral/Source/gd32vw55x_efuse.c ****     }
 315:../Firmware/GD32VW55x_standard_peripheral/Source/gd32vw55x_efuse.c **** }
 831              		.loc 1 315 1
 832 004a 0100     		nop
 833 004c 0100     		nop
 834 004e 3254     		lw	s0,44(sp)
 835              		.cfi_restore 8
 836              		.cfi_def_cfa 2, 48
 837 0050 4561     		addi	sp,sp,48
 838              		.cfi_def_cfa_offset 0
 839 0052 8280     		jr	ra
 840              		.cfi_endproc
 841              	.LFE357:
 843              		.section	.text.efuse_aes_key_read,"ax",@progbits
 844              		.align	1
 845              		.globl	efuse_aes_key_read
 847              	efuse_aes_key_read:
 848              	.LFB358:
 316:../Firmware/GD32VW55x_standard_peripheral/Source/gd32vw55x_efuse.c **** 
 317:../Firmware/GD32VW55x_standard_peripheral/Source/gd32vw55x_efuse.c **** /*!
 318:../Firmware/GD32VW55x_standard_peripheral/Source/gd32vw55x_efuse.c ****     \brief      read AES key
 319:../Firmware/GD32VW55x_standard_peripheral/Source/gd32vw55x_efuse.c ****     \param[in]  none
 320:../Firmware/GD32VW55x_standard_peripheral/Source/gd32vw55x_efuse.c ****     \param[out] buf: AES_KEY data after system reset
 321:../Firmware/GD32VW55x_standard_peripheral/Source/gd32vw55x_efuse.c ****     \retval     none
 322:../Firmware/GD32VW55x_standard_peripheral/Source/gd32vw55x_efuse.c **** */
 323:../Firmware/GD32VW55x_standard_peripheral/Source/gd32vw55x_efuse.c **** void efuse_aes_key_read(uint32_t buf[])
 324:../Firmware/GD32VW55x_standard_peripheral/Source/gd32vw55x_efuse.c **** {
 849              		.loc 1 324 1
 850              		.cfi_startproc
 851 0000 7971     		addi	sp,sp,-48
 852              		.cfi_def_cfa_offset 48
 853 0002 22D6     		sw	s0,44(sp)
 854              		.cfi_offset 8, -4
 855 0004 0018     		addi	s0,sp,48
 856              		.cfi_def_cfa 8, 0
 857 0006 232EA4FC 		sw	a0,-36(s0)
 325:../Firmware/GD32VW55x_standard_peripheral/Source/gd32vw55x_efuse.c ****     uint8_t i = 0U;
 858              		.loc 1 325 13
 859 000a A30704FE 		sb	zero,-17(s0)
 326:../Firmware/GD32VW55x_standard_peripheral/Source/gd32vw55x_efuse.c ****     for(i = 0U; i < 4U; i++) {
 860              		.loc 1 326 11
 861 000e A30704FE 		sb	zero,-17(s0)
 862              		.loc 1 326 5
 863 0012 3DA0     		j	.L56
 864              	.L57:
 327:../Firmware/GD32VW55x_standard_peripheral/Source/gd32vw55x_efuse.c ****         buf[i] = REG32(EFUSE + 0x24U + 0x04U * i);
 865              		.loc 1 327 18 discriminator 3
 866 0014 0347F4FE 		lbu	a4,-17(s0)
 867 0018 B7970010 		li	a5,268472320
 868 001c 938797A0 		addi	a5,a5,-1527
 869 0020 BA97     		add	a5,a4,a5
 870 0022 8A07     		slli	a5,a5,2
 871 0024 BE86     		mv	a3,a5
 872              		.loc 1 327 12 discriminator 3
 873 0026 8347F4FE 		lbu	a5,-17(s0)
 874 002a 8A07     		slli	a5,a5,2
 875 002c 0327C4FD 		lw	a4,-36(s0)
 876 0030 BA97     		add	a5,a4,a5
 877              		.loc 1 327 18 discriminator 3
 878 0032 9842     		lw	a4,0(a3)
 879              		.loc 1 327 16 discriminator 3
 880 0034 98C3     		sw	a4,0(a5)
 326:../Firmware/GD32VW55x_standard_peripheral/Source/gd32vw55x_efuse.c ****     for(i = 0U; i < 4U; i++) {
 881              		.loc 1 326 26 discriminator 3
 882 0036 8347F4FE 		lbu	a5,-17(s0)
 883 003a 8507     		addi	a5,a5,1
 884 003c A307F4FE 		sb	a5,-17(s0)
 885              	.L56:
 326:../Firmware/GD32VW55x_standard_peripheral/Source/gd32vw55x_efuse.c ****     for(i = 0U; i < 4U; i++) {
 886              		.loc 1 326 5 discriminator 1
 887 0040 0347F4FE 		lbu	a4,-17(s0)
 888 0044 8D47     		li	a5,3
 889 0046 E3F7E7FC 		bleu	a4,a5,.L57
 328:../Firmware/GD32VW55x_standard_peripheral/Source/gd32vw55x_efuse.c ****     }
 329:../Firmware/GD32VW55x_standard_peripheral/Source/gd32vw55x_efuse.c **** }
 890              		.loc 1 329 1
 891 004a 0100     		nop
 892 004c 0100     		nop
 893 004e 3254     		lw	s0,44(sp)
 894              		.cfi_restore 8
 895              		.cfi_def_cfa 2, 48
 896 0050 4561     		addi	sp,sp,48
 897              		.cfi_def_cfa_offset 0
 898 0052 8280     		jr	ra
 899              		.cfi_endproc
 900              	.LFE358:
 902              		.section	.text.efuse_rotpk_key_read,"ax",@progbits
 903              		.align	1
 904              		.globl	efuse_rotpk_key_read
 906              	efuse_rotpk_key_read:
 907              	.LFB359:
 330:../Firmware/GD32VW55x_standard_peripheral/Source/gd32vw55x_efuse.c **** 
 331:../Firmware/GD32VW55x_standard_peripheral/Source/gd32vw55x_efuse.c **** /*!
 332:../Firmware/GD32VW55x_standard_peripheral/Source/gd32vw55x_efuse.c ****     \brief      read ROTPK key
 333:../Firmware/GD32VW55x_standard_peripheral/Source/gd32vw55x_efuse.c ****     \param[in]  none
 334:../Firmware/GD32VW55x_standard_peripheral/Source/gd32vw55x_efuse.c ****     \param[out] buf: rotpk_key data after system reset
 335:../Firmware/GD32VW55x_standard_peripheral/Source/gd32vw55x_efuse.c ****     \retval     none
 336:../Firmware/GD32VW55x_standard_peripheral/Source/gd32vw55x_efuse.c **** */
 337:../Firmware/GD32VW55x_standard_peripheral/Source/gd32vw55x_efuse.c **** void efuse_rotpk_key_read(uint32_t buf[])
 338:../Firmware/GD32VW55x_standard_peripheral/Source/gd32vw55x_efuse.c **** {
 908              		.loc 1 338 1
 909              		.cfi_startproc
 910 0000 7971     		addi	sp,sp,-48
 911              		.cfi_def_cfa_offset 48
 912 0002 22D6     		sw	s0,44(sp)
 913              		.cfi_offset 8, -4
 914 0004 0018     		addi	s0,sp,48
 915              		.cfi_def_cfa 8, 0
 916 0006 232EA4FC 		sw	a0,-36(s0)
 339:../Firmware/GD32VW55x_standard_peripheral/Source/gd32vw55x_efuse.c ****     uint8_t i = 0U;
 917              		.loc 1 339 13
 918 000a A30704FE 		sb	zero,-17(s0)
 340:../Firmware/GD32VW55x_standard_peripheral/Source/gd32vw55x_efuse.c ****     for(i = 0U; i < 8U; i++) {
 919              		.loc 1 340 11
 920 000e A30704FE 		sb	zero,-17(s0)
 921              		.loc 1 340 5
 922 0012 3DA0     		j	.L59
 923              	.L60:
 341:../Firmware/GD32VW55x_standard_peripheral/Source/gd32vw55x_efuse.c ****         buf[i] = REG32(EFUSE + 0x34U + 0x04U * i);
 924              		.loc 1 341 18 discriminator 3
 925 0014 0347F4FE 		lbu	a4,-17(s0)
 926 0018 B7970010 		li	a5,268472320
 927 001c 9387D7A0 		addi	a5,a5,-1523
 928 0020 BA97     		add	a5,a4,a5
 929 0022 8A07     		slli	a5,a5,2
 930 0024 BE86     		mv	a3,a5
 931              		.loc 1 341 12 discriminator 3
 932 0026 8347F4FE 		lbu	a5,-17(s0)
 933 002a 8A07     		slli	a5,a5,2
 934 002c 0327C4FD 		lw	a4,-36(s0)
 935 0030 BA97     		add	a5,a4,a5
 936              		.loc 1 341 18 discriminator 3
 937 0032 9842     		lw	a4,0(a3)
 938              		.loc 1 341 16 discriminator 3
 939 0034 98C3     		sw	a4,0(a5)
 340:../Firmware/GD32VW55x_standard_peripheral/Source/gd32vw55x_efuse.c ****     for(i = 0U; i < 8U; i++) {
 940              		.loc 1 340 26 discriminator 3
 941 0036 8347F4FE 		lbu	a5,-17(s0)
 942 003a 8507     		addi	a5,a5,1
 943 003c A307F4FE 		sb	a5,-17(s0)
 944              	.L59:
 340:../Firmware/GD32VW55x_standard_peripheral/Source/gd32vw55x_efuse.c ****     for(i = 0U; i < 8U; i++) {
 945              		.loc 1 340 5 discriminator 1
 946 0040 0347F4FE 		lbu	a4,-17(s0)
 947 0044 9D47     		li	a5,7
 948 0046 E3F7E7FC 		bleu	a4,a5,.L60
 342:../Firmware/GD32VW55x_standard_peripheral/Source/gd32vw55x_efuse.c ****     }
 343:../Firmware/GD32VW55x_standard_peripheral/Source/gd32vw55x_efuse.c **** }
 949              		.loc 1 343 1
 950 004a 0100     		nop
 951 004c 0100     		nop
 952 004e 3254     		lw	s0,44(sp)
 953              		.cfi_restore 8
 954              		.cfi_def_cfa 2, 48
 955 0050 4561     		addi	sp,sp,48
 956              		.cfi_def_cfa_offset 0
 957 0052 8280     		jr	ra
 958              		.cfi_endproc
 959              	.LFE359:
 961              		.section	.text.efuse_puid_read,"ax",@progbits
 962              		.align	1
 963              		.globl	efuse_puid_read
 965              	efuse_puid_read:
 966              	.LFB360:
 344:../Firmware/GD32VW55x_standard_peripheral/Source/gd32vw55x_efuse.c **** 
 345:../Firmware/GD32VW55x_standard_peripheral/Source/gd32vw55x_efuse.c **** /*!
 346:../Firmware/GD32VW55x_standard_peripheral/Source/gd32vw55x_efuse.c ****     \brief      read puid
 347:../Firmware/GD32VW55x_standard_peripheral/Source/gd32vw55x_efuse.c ****     \param[in]  none
 348:../Firmware/GD32VW55x_standard_peripheral/Source/gd32vw55x_efuse.c ****     \param[out] buf: puid data after system reset
 349:../Firmware/GD32VW55x_standard_peripheral/Source/gd32vw55x_efuse.c ****     \retval     none
 350:../Firmware/GD32VW55x_standard_peripheral/Source/gd32vw55x_efuse.c **** */
 351:../Firmware/GD32VW55x_standard_peripheral/Source/gd32vw55x_efuse.c **** void efuse_puid_read(uint32_t buf[])
 352:../Firmware/GD32VW55x_standard_peripheral/Source/gd32vw55x_efuse.c **** {
 967              		.loc 1 352 1
 968              		.cfi_startproc
 969 0000 7971     		addi	sp,sp,-48
 970              		.cfi_def_cfa_offset 48
 971 0002 22D6     		sw	s0,44(sp)
 972              		.cfi_offset 8, -4
 973 0004 0018     		addi	s0,sp,48
 974              		.cfi_def_cfa 8, 0
 975 0006 232EA4FC 		sw	a0,-36(s0)
 353:../Firmware/GD32VW55x_standard_peripheral/Source/gd32vw55x_efuse.c ****     uint8_t i = 0U;
 976              		.loc 1 353 13
 977 000a A30704FE 		sb	zero,-17(s0)
 354:../Firmware/GD32VW55x_standard_peripheral/Source/gd32vw55x_efuse.c ****     for(i = 0U; i < 4U; i++) {
 978              		.loc 1 354 11
 979 000e A30704FE 		sb	zero,-17(s0)
 980              		.loc 1 354 5
 981 0012 3DA0     		j	.L62
 982              	.L63:
 355:../Firmware/GD32VW55x_standard_peripheral/Source/gd32vw55x_efuse.c ****         buf[i] = REG32(EFUSE + 0x54U  + 0x04U * i);
 983              		.loc 1 355 18 discriminator 3
 984 0014 0347F4FE 		lbu	a4,-17(s0)
 985 0018 B7970010 		li	a5,268472320
 986 001c 938757A1 		addi	a5,a5,-1515
 987 0020 BA97     		add	a5,a4,a5
 988 0022 8A07     		slli	a5,a5,2
 989 0024 BE86     		mv	a3,a5
 990              		.loc 1 355 12 discriminator 3
 991 0026 8347F4FE 		lbu	a5,-17(s0)
 992 002a 8A07     		slli	a5,a5,2
 993 002c 0327C4FD 		lw	a4,-36(s0)
 994 0030 BA97     		add	a5,a4,a5
 995              		.loc 1 355 18 discriminator 3
 996 0032 9842     		lw	a4,0(a3)
 997              		.loc 1 355 16 discriminator 3
 998 0034 98C3     		sw	a4,0(a5)
 354:../Firmware/GD32VW55x_standard_peripheral/Source/gd32vw55x_efuse.c ****     for(i = 0U; i < 4U; i++) {
 999              		.loc 1 354 26 discriminator 3
 1000 0036 8347F4FE 		lbu	a5,-17(s0)
 1001 003a 8507     		addi	a5,a5,1
 1002 003c A307F4FE 		sb	a5,-17(s0)
 1003              	.L62:
 354:../Firmware/GD32VW55x_standard_peripheral/Source/gd32vw55x_efuse.c ****     for(i = 0U; i < 4U; i++) {
 1004              		.loc 1 354 5 discriminator 1
 1005 0040 0347F4FE 		lbu	a4,-17(s0)
 1006 0044 8D47     		li	a5,3
 1007 0046 E3F7E7FC 		bleu	a4,a5,.L63
 356:../Firmware/GD32VW55x_standard_peripheral/Source/gd32vw55x_efuse.c ****     }
 357:../Firmware/GD32VW55x_standard_peripheral/Source/gd32vw55x_efuse.c **** }
 1008              		.loc 1 357 1
 1009 004a 0100     		nop
 1010 004c 0100     		nop
 1011 004e 3254     		lw	s0,44(sp)
 1012              		.cfi_restore 8
 1013              		.cfi_def_cfa 2, 48
 1014 0050 4561     		addi	sp,sp,48
 1015              		.cfi_def_cfa_offset 0
 1016 0052 8280     		jr	ra
 1017              		.cfi_endproc
 1018              	.LFE360:
 1020              		.section	.text.efuse_huk_key_read,"ax",@progbits
 1021              		.align	1
 1022              		.globl	efuse_huk_key_read
 1024              	efuse_huk_key_read:
 1025              	.LFB361:
 358:../Firmware/GD32VW55x_standard_peripheral/Source/gd32vw55x_efuse.c **** 
 359:../Firmware/GD32VW55x_standard_peripheral/Source/gd32vw55x_efuse.c **** /*!
 360:../Firmware/GD32VW55x_standard_peripheral/Source/gd32vw55x_efuse.c ****     \brief      read huk key
 361:../Firmware/GD32VW55x_standard_peripheral/Source/gd32vw55x_efuse.c ****     \param[in]  none
 362:../Firmware/GD32VW55x_standard_peripheral/Source/gd32vw55x_efuse.c ****     \param[out] buf: huk key data after system reset
 363:../Firmware/GD32VW55x_standard_peripheral/Source/gd32vw55x_efuse.c ****     \retval     none
 364:../Firmware/GD32VW55x_standard_peripheral/Source/gd32vw55x_efuse.c **** */
 365:../Firmware/GD32VW55x_standard_peripheral/Source/gd32vw55x_efuse.c **** void efuse_huk_key_read(uint32_t buf[])
 366:../Firmware/GD32VW55x_standard_peripheral/Source/gd32vw55x_efuse.c **** {
 1026              		.loc 1 366 1
 1027              		.cfi_startproc
 1028 0000 7971     		addi	sp,sp,-48
 1029              		.cfi_def_cfa_offset 48
 1030 0002 22D6     		sw	s0,44(sp)
 1031              		.cfi_offset 8, -4
 1032 0004 0018     		addi	s0,sp,48
 1033              		.cfi_def_cfa 8, 0
 1034 0006 232EA4FC 		sw	a0,-36(s0)
 367:../Firmware/GD32VW55x_standard_peripheral/Source/gd32vw55x_efuse.c ****     uint8_t i = 0U;
 1035              		.loc 1 367 13
 1036 000a A30704FE 		sb	zero,-17(s0)
 368:../Firmware/GD32VW55x_standard_peripheral/Source/gd32vw55x_efuse.c ****     for(i = 0U; i < 4U; i++) {
 1037              		.loc 1 368 11
 1038 000e A30704FE 		sb	zero,-17(s0)
 1039              		.loc 1 368 5
 1040 0012 3DA0     		j	.L65
 1041              	.L66:
 369:../Firmware/GD32VW55x_standard_peripheral/Source/gd32vw55x_efuse.c ****         buf[i] = REG32(EFUSE + 0x64U + 0x04U * i);
 1042              		.loc 1 369 18 discriminator 3
 1043 0014 0347F4FE 		lbu	a4,-17(s0)
 1044 0018 B7970010 		li	a5,268472320
 1045 001c 938797A1 		addi	a5,a5,-1511
 1046 0020 BA97     		add	a5,a4,a5
 1047 0022 8A07     		slli	a5,a5,2
 1048 0024 BE86     		mv	a3,a5
 1049              		.loc 1 369 12 discriminator 3
 1050 0026 8347F4FE 		lbu	a5,-17(s0)
 1051 002a 8A07     		slli	a5,a5,2
 1052 002c 0327C4FD 		lw	a4,-36(s0)
 1053 0030 BA97     		add	a5,a4,a5
 1054              		.loc 1 369 18 discriminator 3
 1055 0032 9842     		lw	a4,0(a3)
 1056              		.loc 1 369 16 discriminator 3
 1057 0034 98C3     		sw	a4,0(a5)
 368:../Firmware/GD32VW55x_standard_peripheral/Source/gd32vw55x_efuse.c ****     for(i = 0U; i < 4U; i++) {
 1058              		.loc 1 368 26 discriminator 3
 1059 0036 8347F4FE 		lbu	a5,-17(s0)
 1060 003a 8507     		addi	a5,a5,1
 1061 003c A307F4FE 		sb	a5,-17(s0)
 1062              	.L65:
 368:../Firmware/GD32VW55x_standard_peripheral/Source/gd32vw55x_efuse.c ****     for(i = 0U; i < 4U; i++) {
 1063              		.loc 1 368 5 discriminator 1
 1064 0040 0347F4FE 		lbu	a4,-17(s0)
 1065 0044 8D47     		li	a5,3
 1066 0046 E3F7E7FC 		bleu	a4,a5,.L66
 370:../Firmware/GD32VW55x_standard_peripheral/Source/gd32vw55x_efuse.c ****     }
 371:../Firmware/GD32VW55x_standard_peripheral/Source/gd32vw55x_efuse.c **** }
 1067              		.loc 1 371 1
 1068 004a 0100     		nop
 1069 004c 0100     		nop
 1070 004e 3254     		lw	s0,44(sp)
 1071              		.cfi_restore 8
 1072              		.cfi_def_cfa 2, 48
 1073 0050 4561     		addi	sp,sp,48
 1074              		.cfi_def_cfa_offset 0
 1075 0052 8280     		jr	ra
 1076              		.cfi_endproc
 1077              	.LFE361:
 1079              		.section	.text.efuse_user_data_read,"ax",@progbits
 1080              		.align	1
 1081              		.globl	efuse_user_data_read
 1083              	efuse_user_data_read:
 1084              	.LFB362:
 372:../Firmware/GD32VW55x_standard_peripheral/Source/gd32vw55x_efuse.c **** 
 373:../Firmware/GD32VW55x_standard_peripheral/Source/gd32vw55x_efuse.c **** /*!
 374:../Firmware/GD32VW55x_standard_peripheral/Source/gd32vw55x_efuse.c ****     \brief      read user data
 375:../Firmware/GD32VW55x_standard_peripheral/Source/gd32vw55x_efuse.c ****     \param[in]  none
 376:../Firmware/GD32VW55x_standard_peripheral/Source/gd32vw55x_efuse.c ****     \param[out] buf: user data after system reset
 377:../Firmware/GD32VW55x_standard_peripheral/Source/gd32vw55x_efuse.c ****     \retval     none
 378:../Firmware/GD32VW55x_standard_peripheral/Source/gd32vw55x_efuse.c **** */
 379:../Firmware/GD32VW55x_standard_peripheral/Source/gd32vw55x_efuse.c **** void efuse_user_data_read(uint32_t buf[])
 380:../Firmware/GD32VW55x_standard_peripheral/Source/gd32vw55x_efuse.c **** {
 1085              		.loc 1 380 1
 1086              		.cfi_startproc
 1087 0000 7971     		addi	sp,sp,-48
 1088              		.cfi_def_cfa_offset 48
 1089 0002 22D6     		sw	s0,44(sp)
 1090              		.cfi_offset 8, -4
 1091 0004 0018     		addi	s0,sp,48
 1092              		.cfi_def_cfa 8, 0
 1093 0006 232EA4FC 		sw	a0,-36(s0)
 381:../Firmware/GD32VW55x_standard_peripheral/Source/gd32vw55x_efuse.c ****     uint8_t i = 0U;
 1094              		.loc 1 381 13
 1095 000a A30704FE 		sb	zero,-17(s0)
 382:../Firmware/GD32VW55x_standard_peripheral/Source/gd32vw55x_efuse.c ****     for(i = 0U; i < 8U; i++) {
 1096              		.loc 1 382 11
 1097 000e A30704FE 		sb	zero,-17(s0)
 1098              		.loc 1 382 5
 1099 0012 3DA0     		j	.L68
 1100              	.L69:
 383:../Firmware/GD32VW55x_standard_peripheral/Source/gd32vw55x_efuse.c ****         buf[i] = REG32(EFUSE + 0x74U + 0x04U * i);
 1101              		.loc 1 383 18 discriminator 3
 1102 0014 0347F4FE 		lbu	a4,-17(s0)
 1103 0018 B7970010 		li	a5,268472320
 1104 001c 9387D7A1 		addi	a5,a5,-1507
 1105 0020 BA97     		add	a5,a4,a5
 1106 0022 8A07     		slli	a5,a5,2
 1107 0024 BE86     		mv	a3,a5
 1108              		.loc 1 383 12 discriminator 3
 1109 0026 8347F4FE 		lbu	a5,-17(s0)
 1110 002a 8A07     		slli	a5,a5,2
 1111 002c 0327C4FD 		lw	a4,-36(s0)
 1112 0030 BA97     		add	a5,a4,a5
 1113              		.loc 1 383 18 discriminator 3
 1114 0032 9842     		lw	a4,0(a3)
 1115              		.loc 1 383 16 discriminator 3
 1116 0034 98C3     		sw	a4,0(a5)
 382:../Firmware/GD32VW55x_standard_peripheral/Source/gd32vw55x_efuse.c ****     for(i = 0U; i < 8U; i++) {
 1117              		.loc 1 382 26 discriminator 3
 1118 0036 8347F4FE 		lbu	a5,-17(s0)
 1119 003a 8507     		addi	a5,a5,1
 1120 003c A307F4FE 		sb	a5,-17(s0)
 1121              	.L68:
 382:../Firmware/GD32VW55x_standard_peripheral/Source/gd32vw55x_efuse.c ****     for(i = 0U; i < 8U; i++) {
 1122              		.loc 1 382 5 discriminator 1
 1123 0040 0347F4FE 		lbu	a4,-17(s0)
 1124 0044 9D47     		li	a5,7
 1125 0046 E3F7E7FC 		bleu	a4,a5,.L69
 384:../Firmware/GD32VW55x_standard_peripheral/Source/gd32vw55x_efuse.c ****     }
 385:../Firmware/GD32VW55x_standard_peripheral/Source/gd32vw55x_efuse.c **** }
 1126              		.loc 1 385 1
 1127 004a 0100     		nop
 1128 004c 0100     		nop
 1129 004e 3254     		lw	s0,44(sp)
 1130              		.cfi_restore 8
 1131              		.cfi_def_cfa 2, 48
 1132 0050 4561     		addi	sp,sp,48
 1133              		.cfi_def_cfa_offset 0
 1134 0052 8280     		jr	ra
 1135              		.cfi_endproc
 1136              	.LFE362:
 1138              		.section	.text.efuse_boot_address_get,"ax",@progbits
 1139              		.align	1
 1140              		.globl	efuse_boot_address_get
 1142              	efuse_boot_address_get:
 1143              	.LFB363:
 386:../Firmware/GD32VW55x_standard_peripheral/Source/gd32vw55x_efuse.c **** 
 387:../Firmware/GD32VW55x_standard_peripheral/Source/gd32vw55x_efuse.c **** /*!
 388:../Firmware/GD32VW55x_standard_peripheral/Source/gd32vw55x_efuse.c ****     \brief      get boot address information
 389:../Firmware/GD32VW55x_standard_peripheral/Source/gd32vw55x_efuse.c ****     \param[in]  none
 390:../Firmware/GD32VW55x_standard_peripheral/Source/gd32vw55x_efuse.c ****     \param[out] none
 391:../Firmware/GD32VW55x_standard_peripheral/Source/gd32vw55x_efuse.c ****     \retval     current boot address
 392:../Firmware/GD32VW55x_standard_peripheral/Source/gd32vw55x_efuse.c **** */
 393:../Firmware/GD32VW55x_standard_peripheral/Source/gd32vw55x_efuse.c **** uint32_t efuse_boot_address_get(void)
 394:../Firmware/GD32VW55x_standard_peripheral/Source/gd32vw55x_efuse.c **** {
 1144              		.loc 1 394 1
 1145              		.cfi_startproc
 1146 0000 4111     		addi	sp,sp,-16
 1147              		.cfi_def_cfa_offset 16
 1148 0002 22C6     		sw	s0,12(sp)
 1149              		.cfi_offset 8, -4
 1150 0004 0008     		addi	s0,sp,16
 1151              		.cfi_def_cfa 8, 0
 395:../Firmware/GD32VW55x_standard_peripheral/Source/gd32vw55x_efuse.c ****     return EFUSE_BOOTADDR;
 1152              		.loc 1 395 12
 1153 0006 B7370240 		li	a5,1073885184
 1154 000a 93874792 		addi	a5,a5,-1756
 1155 000e 9C43     		lw	a5,0(a5)
 396:../Firmware/GD32VW55x_standard_peripheral/Source/gd32vw55x_efuse.c **** }
 1156              		.loc 1 396 1
 1157 0010 3E85     		mv	a0,a5
 1158 0012 3244     		lw	s0,12(sp)
 1159              		.cfi_restore 8
 1160              		.cfi_def_cfa 2, 16
 1161 0014 4101     		addi	sp,sp,16
 1162              		.cfi_def_cfa_offset 0
 1163 0016 8280     		jr	ra
 1164              		.cfi_endproc
 1165              	.LFE363:
 1167              		.section	.text.efuse_lock_config,"ax",@progbits
 1168              		.align	1
 1169              		.globl	efuse_lock_config
 1171              	efuse_lock_config:
 1172              	.LFB364:
 397:../Firmware/GD32VW55x_standard_peripheral/Source/gd32vw55x_efuse.c **** 
 398:../Firmware/GD32VW55x_standard_peripheral/Source/gd32vw55x_efuse.c **** /*!
 399:../Firmware/GD32VW55x_standard_peripheral/Source/gd32vw55x_efuse.c ****     \brief      lock efuse filed
 400:../Firmware/GD32VW55x_standard_peripheral/Source/gd32vw55x_efuse.c ****     \param[in]  source: specifies filed to lock
 401:../Firmware/GD32VW55x_standard_peripheral/Source/gd32vw55x_efuse.c ****                 one parameter can be selected which is shown as below:
 402:../Firmware/GD32VW55x_standard_peripheral/Source/gd32vw55x_efuse.c ****       \arg        EFUSE_BOOT_LOCK: EFUSE boot bits lock bit
 403:../Firmware/GD32VW55x_standard_peripheral/Source/gd32vw55x_efuse.c ****       \arg        EFUSE_OPTION_BYTE_LOCK: option byte lock bit
 404:../Firmware/GD32VW55x_standard_peripheral/Source/gd32vw55x_efuse.c ****       \arg        EFUSE_ROTPKKEY_LOCK: EFUSE_ROTPK_KEY register lock bit
 405:../Firmware/GD32VW55x_standard_peripheral/Source/gd32vw55x_efuse.c ****       \arg        EFUSE_USER_DATA_LOCK: EFUSE_USER_DATA register lock bit
 406:../Firmware/GD32VW55x_standard_peripheral/Source/gd32vw55x_efuse.c ****       \arg        EFUSE_AESKEY_LOCK: lock EFUSE_AES_KEY register and enable AES decrypt function
 407:../Firmware/GD32VW55x_standard_peripheral/Source/gd32vw55x_efuse.c ****       \arg        EFUSE_FPCTL_USERCTL_LOCK: EFUSE_FPCTL and EFUSE_USER_CTL register lock bit
 408:../Firmware/GD32VW55x_standard_peripheral/Source/gd32vw55x_efuse.c ****     \param[out] none
 409:../Firmware/GD32VW55x_standard_peripheral/Source/gd32vw55x_efuse.c ****     \retval     none
 410:../Firmware/GD32VW55x_standard_peripheral/Source/gd32vw55x_efuse.c **** */
 411:../Firmware/GD32VW55x_standard_peripheral/Source/gd32vw55x_efuse.c **** void efuse_lock_config(efuse_reg_lock_enum source)
 412:../Firmware/GD32VW55x_standard_peripheral/Source/gd32vw55x_efuse.c **** {
 1173              		.loc 1 412 1
 1174              		.cfi_startproc
 1175 0000 7971     		addi	sp,sp,-48
 1176              		.cfi_def_cfa_offset 48
 1177 0002 06D6     		sw	ra,44(sp)
 1178 0004 22D4     		sw	s0,40(sp)
 1179              		.cfi_offset 1, -4
 1180              		.cfi_offset 8, -8
 1181 0006 0018     		addi	s0,sp,48
 1182              		.cfi_def_cfa 8, 0
 1183 0008 232EA4FC 		sw	a0,-36(s0)
 413:../Firmware/GD32VW55x_standard_peripheral/Source/gd32vw55x_efuse.c ****     uint32_t temp;
 414:../Firmware/GD32VW55x_standard_peripheral/Source/gd32vw55x_efuse.c ****     temp = source;
 1184              		.loc 1 414 10
 1185 000c 8327C4FD 		lw	a5,-36(s0)
 1186 0010 2326F4FE 		sw	a5,-20(s0)
 415:../Firmware/GD32VW55x_standard_peripheral/Source/gd32vw55x_efuse.c ****     if(source == EFUSE_BOOT_LOCK) {
 1187              		.loc 1 415 7
 1188 0014 0327C4FD 		lw	a4,-36(s0)
 1189 0018 8947     		li	a5,2
 1190 001a 631CF700 		bne	a4,a5,.L73
 416:../Firmware/GD32VW55x_standard_peripheral/Source/gd32vw55x_efuse.c ****         efuse_write(EFUSE_CTL0_ADDR, 1U, &temp);
 1191              		.loc 1 416 9
 1192 001e 9307C4FE 		addi	a5,s0,-20
 1193 0022 3E86     		mv	a2,a5
 1194 0024 8545     		li	a1,1
 1195 0026 0145     		li	a0,0
 1196 0028 97000000 		call	efuse_write
 1196      E7800000 
 417:../Firmware/GD32VW55x_standard_peripheral/Source/gd32vw55x_efuse.c ****     } else if(source == EFUSE_ROTPKKEY_LOCK) {
 418:../Firmware/GD32VW55x_standard_peripheral/Source/gd32vw55x_efuse.c ****         efuse_write(EFUSE_CTL1_ADDR, 1U, &temp);
 419:../Firmware/GD32VW55x_standard_peripheral/Source/gd32vw55x_efuse.c ****     } else if(source == EFUSE_USER_DATA_LOCK) {
 420:../Firmware/GD32VW55x_standard_peripheral/Source/gd32vw55x_efuse.c ****         efuse_write(USER_CTL_ADDR, 1U, &temp);
 421:../Firmware/GD32VW55x_standard_peripheral/Source/gd32vw55x_efuse.c ****     } else if(source == EFUSE_AESKEY_LOCK) {
 422:../Firmware/GD32VW55x_standard_peripheral/Source/gd32vw55x_efuse.c ****         efuse_write(USER_CTL_ADDR, 1U, &temp);
 423:../Firmware/GD32VW55x_standard_peripheral/Source/gd32vw55x_efuse.c ****     } else if(source == EFUSE_FPCTL_USERCTL_LOCK) {
 424:../Firmware/GD32VW55x_standard_peripheral/Source/gd32vw55x_efuse.c ****         efuse_write(USER_CTL_ADDR, 1U, &temp);
 425:../Firmware/GD32VW55x_standard_peripheral/Source/gd32vw55x_efuse.c ****     }
 426:../Firmware/GD32VW55x_standard_peripheral/Source/gd32vw55x_efuse.c **** }
 1197              		.loc 1 426 1
 1198 0030 B5A8     		j	.L78
 1199              	.L73:
 417:../Firmware/GD32VW55x_standard_peripheral/Source/gd32vw55x_efuse.c ****     } else if(source == EFUSE_ROTPKKEY_LOCK) {
 1200              		.loc 1 417 14
 1201 0032 0327C4FD 		lw	a4,-36(s0)
 1202 0036 9147     		li	a5,4
 1203 0038 631CF700 		bne	a4,a5,.L75
 418:../Firmware/GD32VW55x_standard_peripheral/Source/gd32vw55x_efuse.c ****     } else if(source == EFUSE_USER_DATA_LOCK) {
 1204              		.loc 1 418 9
 1205 003c 9307C4FE 		addi	a5,s0,-20
 1206 0040 3E86     		mv	a2,a5
 1207 0042 8545     		li	a1,1
 1208 0044 0545     		li	a0,1
 1209 0046 97000000 		call	efuse_write
 1209      E7800000 
 1210              		.loc 1 426 1
 1211 004e B9A8     		j	.L78
 1212              	.L75:
 419:../Firmware/GD32VW55x_standard_peripheral/Source/gd32vw55x_efuse.c ****         efuse_write(USER_CTL_ADDR, 1U, &temp);
 1213              		.loc 1 419 14
 1214 0050 0327C4FD 		lw	a4,-36(s0)
 1215 0054 93070004 		li	a5,64
 1216 0058 631CF700 		bne	a4,a5,.L76
 420:../Firmware/GD32VW55x_standard_peripheral/Source/gd32vw55x_efuse.c ****     } else if(source == EFUSE_AESKEY_LOCK) {
 1217              		.loc 1 420 9
 1218 005c 9307C4FE 		addi	a5,s0,-20
 1219 0060 3E86     		mv	a2,a5
 1220 0062 8545     		li	a1,1
 1221 0064 0D45     		li	a0,3
 1222 0066 97000000 		call	efuse_write
 1222      E7800000 
 1223              		.loc 1 426 1
 1224 006e 3DA8     		j	.L78
 1225              	.L76:
 421:../Firmware/GD32VW55x_standard_peripheral/Source/gd32vw55x_efuse.c ****         efuse_write(USER_CTL_ADDR, 1U, &temp);
 1226              		.loc 1 421 14
 1227 0070 0327C4FD 		lw	a4,-36(s0)
 1228 0074 93070002 		li	a5,32
 1229 0078 631CF700 		bne	a4,a5,.L77
 422:../Firmware/GD32VW55x_standard_peripheral/Source/gd32vw55x_efuse.c ****     } else if(source == EFUSE_FPCTL_USERCTL_LOCK) {
 1230              		.loc 1 422 9
 1231 007c 9307C4FE 		addi	a5,s0,-20
 1232 0080 3E86     		mv	a2,a5
 1233 0082 8545     		li	a1,1
 1234 0084 0D45     		li	a0,3
 1235 0086 97000000 		call	efuse_write
 1235      E7800000 
 1236              		.loc 1 426 1
 1237 008e 39A8     		j	.L78
 1238              	.L77:
 423:../Firmware/GD32VW55x_standard_peripheral/Source/gd32vw55x_efuse.c ****         efuse_write(USER_CTL_ADDR, 1U, &temp);
 1239              		.loc 1 423 14
 1240 0090 0327C4FD 		lw	a4,-36(s0)
 1241 0094 A147     		li	a5,8
 1242 0096 631BF700 		bne	a4,a5,.L78
 424:../Firmware/GD32VW55x_standard_peripheral/Source/gd32vw55x_efuse.c ****     }
 1243              		.loc 1 424 9
 1244 009a 9307C4FE 		addi	a5,s0,-20
 1245 009e 3E86     		mv	a2,a5
 1246 00a0 8545     		li	a1,1
 1247 00a2 0D45     		li	a0,3
 1248 00a4 97000000 		call	efuse_write
 1248      E7800000 
 1249              	.L78:
 1250              		.loc 1 426 1
 1251 00ac 0100     		nop
 1252 00ae B250     		lw	ra,44(sp)
 1253              		.cfi_restore 1
 1254 00b0 2254     		lw	s0,40(sp)
 1255              		.cfi_restore 8
 1256              		.cfi_def_cfa 2, 48
 1257 00b2 4561     		addi	sp,sp,48
 1258              		.cfi_def_cfa_offset 0
 1259 00b4 8280     		jr	ra
 1260              		.cfi_endproc
 1261              	.LFE364:
 1263              		.section	.text.efuse_flag_get,"ax",@progbits
 1264              		.align	1
 1265              		.globl	efuse_flag_get
 1267              	efuse_flag_get:
 1268              	.LFB365:
 427:../Firmware/GD32VW55x_standard_peripheral/Source/gd32vw55x_efuse.c **** 
 428:../Firmware/GD32VW55x_standard_peripheral/Source/gd32vw55x_efuse.c **** /*!
 429:../Firmware/GD32VW55x_standard_peripheral/Source/gd32vw55x_efuse.c ****     \brief      check EFUSE flag is set or not
 430:../Firmware/GD32VW55x_standard_peripheral/Source/gd32vw55x_efuse.c ****     \param[in]  flag: specifies to get a flag
 431:../Firmware/GD32VW55x_standard_peripheral/Source/gd32vw55x_efuse.c ****                 only one parameter can be selected which is shown as below:
 432:../Firmware/GD32VW55x_standard_peripheral/Source/gd32vw55x_efuse.c ****       \arg        EFUSE_PGIF: programming operation completion flag
 433:../Firmware/GD32VW55x_standard_peripheral/Source/gd32vw55x_efuse.c ****       \arg        EFUSE_RDIF: read operation completion flag
 434:../Firmware/GD32VW55x_standard_peripheral/Source/gd32vw55x_efuse.c ****       \arg        EFUSE_OVBERIF: overstep boundary error flag
 435:../Firmware/GD32VW55x_standard_peripheral/Source/gd32vw55x_efuse.c ****     \param[out] none
 436:../Firmware/GD32VW55x_standard_peripheral/Source/gd32vw55x_efuse.c ****     \retval     FlagStatus: SET or RESET
 437:../Firmware/GD32VW55x_standard_peripheral/Source/gd32vw55x_efuse.c **** */
 438:../Firmware/GD32VW55x_standard_peripheral/Source/gd32vw55x_efuse.c **** FlagStatus efuse_flag_get(efuse_flag_enum flag)
 439:../Firmware/GD32VW55x_standard_peripheral/Source/gd32vw55x_efuse.c **** {
 1269              		.loc 1 439 1
 1270              		.cfi_startproc
 1271 0000 0111     		addi	sp,sp,-32
 1272              		.cfi_def_cfa_offset 32
 1273 0002 22CE     		sw	s0,28(sp)
 1274              		.cfi_offset 8, -4
 1275 0004 0010     		addi	s0,sp,32
 1276              		.cfi_def_cfa 8, 0
 1277 0006 2326A4FE 		sw	a0,-20(s0)
 440:../Firmware/GD32VW55x_standard_peripheral/Source/gd32vw55x_efuse.c ****     if(EFUSE_CS & (uint32_t)flag) {
 1278              		.loc 1 440 8
 1279 000a B7370240 		li	a5,1073885184
 1280 000e 93870780 		addi	a5,a5,-2048
 1281 0012 9843     		lw	a4,0(a5)
 1282              		.loc 1 440 17
 1283 0014 8327C4FE 		lw	a5,-20(s0)
 1284 0018 F98F     		and	a5,a4,a5
 1285              		.loc 1 440 7
 1286 001a 99C3     		beq	a5,zero,.L80
 441:../Firmware/GD32VW55x_standard_peripheral/Source/gd32vw55x_efuse.c ****         return SET;
 1287              		.loc 1 441 16
 1288 001c 8547     		li	a5,1
 1289 001e 11A0     		j	.L81
 1290              	.L80:
 442:../Firmware/GD32VW55x_standard_peripheral/Source/gd32vw55x_efuse.c ****     } else {
 443:../Firmware/GD32VW55x_standard_peripheral/Source/gd32vw55x_efuse.c ****         return RESET;
 1291              		.loc 1 443 16
 1292 0020 8147     		li	a5,0
 1293              	.L81:
 444:../Firmware/GD32VW55x_standard_peripheral/Source/gd32vw55x_efuse.c ****     }
 445:../Firmware/GD32VW55x_standard_peripheral/Source/gd32vw55x_efuse.c **** }
 1294              		.loc 1 445 1
 1295 0022 3E85     		mv	a0,a5
 1296 0024 7244     		lw	s0,28(sp)
 1297              		.cfi_restore 8
 1298              		.cfi_def_cfa 2, 32
 1299 0026 0561     		addi	sp,sp,32
 1300              		.cfi_def_cfa_offset 0
 1301 0028 8280     		jr	ra
 1302              		.cfi_endproc
 1303              	.LFE365:
 1305              		.section	.text.efuse_flag_clear,"ax",@progbits
 1306              		.align	1
 1307              		.globl	efuse_flag_clear
 1309              	efuse_flag_clear:
 1310              	.LFB366:
 446:../Firmware/GD32VW55x_standard_peripheral/Source/gd32vw55x_efuse.c **** 
 447:../Firmware/GD32VW55x_standard_peripheral/Source/gd32vw55x_efuse.c **** /*!
 448:../Firmware/GD32VW55x_standard_peripheral/Source/gd32vw55x_efuse.c ****     \brief      clear EFUSE pending flag
 449:../Firmware/GD32VW55x_standard_peripheral/Source/gd32vw55x_efuse.c ****     \param[in]  flag: specifies to clear a flag
 450:../Firmware/GD32VW55x_standard_peripheral/Source/gd32vw55x_efuse.c ****                 only one parameter can be selected which is shown as below:
 451:../Firmware/GD32VW55x_standard_peripheral/Source/gd32vw55x_efuse.c ****       \arg        EFUSE_PGIC: clear programming operation completion flag
 452:../Firmware/GD32VW55x_standard_peripheral/Source/gd32vw55x_efuse.c ****       \arg        EFUSE_RDIC: clear read operation completion flag
 453:../Firmware/GD32VW55x_standard_peripheral/Source/gd32vw55x_efuse.c ****       \arg        EFUSE_OVBERIC: clear overstep boundary error flag
 454:../Firmware/GD32VW55x_standard_peripheral/Source/gd32vw55x_efuse.c ****     \param[out] none
 455:../Firmware/GD32VW55x_standard_peripheral/Source/gd32vw55x_efuse.c ****     \retval     none
 456:../Firmware/GD32VW55x_standard_peripheral/Source/gd32vw55x_efuse.c **** */
 457:../Firmware/GD32VW55x_standard_peripheral/Source/gd32vw55x_efuse.c **** void efuse_flag_clear(efuse_clear_flag_enum flag)
 458:../Firmware/GD32VW55x_standard_peripheral/Source/gd32vw55x_efuse.c **** {
 1311              		.loc 1 458 1
 1312              		.cfi_startproc
 1313 0000 0111     		addi	sp,sp,-32
 1314              		.cfi_def_cfa_offset 32
 1315 0002 22CE     		sw	s0,28(sp)
 1316              		.cfi_offset 8, -4
 1317 0004 0010     		addi	s0,sp,32
 1318              		.cfi_def_cfa 8, 0
 1319 0006 2326A4FE 		sw	a0,-20(s0)
 459:../Firmware/GD32VW55x_standard_peripheral/Source/gd32vw55x_efuse.c ****     EFUSE_CS |= (uint32_t)flag;
 1320              		.loc 1 459 14
 1321 000a B7370240 		li	a5,1073885184
 1322 000e 93870780 		addi	a5,a5,-2048
 1323 0012 9443     		lw	a3,0(a5)
 1324 0014 B7370240 		li	a5,1073885184
 1325 0018 93870780 		addi	a5,a5,-2048
 1326 001c 0327C4FE 		lw	a4,-20(s0)
 1327 0020 558F     		or	a4,a3,a4
 1328 0022 98C3     		sw	a4,0(a5)
 460:../Firmware/GD32VW55x_standard_peripheral/Source/gd32vw55x_efuse.c **** }
 1329              		.loc 1 460 1
 1330 0024 0100     		nop
 1331 0026 7244     		lw	s0,28(sp)
 1332              		.cfi_restore 8
 1333              		.cfi_def_cfa 2, 32
 1334 0028 0561     		addi	sp,sp,32
 1335              		.cfi_def_cfa_offset 0
 1336 002a 8280     		jr	ra
 1337              		.cfi_endproc
 1338              	.LFE366:
 1340              		.section	.text.efuse_interrupt_enable,"ax",@progbits
 1341              		.align	1
 1342              		.globl	efuse_interrupt_enable
 1344              	efuse_interrupt_enable:
 1345              	.LFB367:
 461:../Firmware/GD32VW55x_standard_peripheral/Source/gd32vw55x_efuse.c **** 
 462:../Firmware/GD32VW55x_standard_peripheral/Source/gd32vw55x_efuse.c **** /*!
 463:../Firmware/GD32VW55x_standard_peripheral/Source/gd32vw55x_efuse.c ****     \brief      enable EFUSE interrupt
 464:../Firmware/GD32VW55x_standard_peripheral/Source/gd32vw55x_efuse.c ****     \param[in]  source: specifies an interrupt to enbale
 465:../Firmware/GD32VW55x_standard_peripheral/Source/gd32vw55x_efuse.c ****                 one or more parameters can be selected which are shown as below:
 466:../Firmware/GD32VW55x_standard_peripheral/Source/gd32vw55x_efuse.c ****       \arg        EFUSE_INTEN_PG: programming operation completion interrupt
 467:../Firmware/GD32VW55x_standard_peripheral/Source/gd32vw55x_efuse.c ****       \arg        EFUSE_INTEN_RD: read operation completion interrupt
 468:../Firmware/GD32VW55x_standard_peripheral/Source/gd32vw55x_efuse.c ****       \arg        EFUSE_INTEN_OVBER: overstep boundary error interrupt
 469:../Firmware/GD32VW55x_standard_peripheral/Source/gd32vw55x_efuse.c ****     \param[out] none
 470:../Firmware/GD32VW55x_standard_peripheral/Source/gd32vw55x_efuse.c ****     \retval     none
 471:../Firmware/GD32VW55x_standard_peripheral/Source/gd32vw55x_efuse.c **** */
 472:../Firmware/GD32VW55x_standard_peripheral/Source/gd32vw55x_efuse.c **** void efuse_interrupt_enable(efuse_int_enum source)
 473:../Firmware/GD32VW55x_standard_peripheral/Source/gd32vw55x_efuse.c **** {
 1346              		.loc 1 473 1
 1347              		.cfi_startproc
 1348 0000 0111     		addi	sp,sp,-32
 1349              		.cfi_def_cfa_offset 32
 1350 0002 22CE     		sw	s0,28(sp)
 1351              		.cfi_offset 8, -4
 1352 0004 0010     		addi	s0,sp,32
 1353              		.cfi_def_cfa 8, 0
 1354 0006 2326A4FE 		sw	a0,-20(s0)
 474:../Firmware/GD32VW55x_standard_peripheral/Source/gd32vw55x_efuse.c ****     EFUSE_CS |= (uint32_t)source;
 1355              		.loc 1 474 14
 1356 000a B7370240 		li	a5,1073885184
 1357 000e 93870780 		addi	a5,a5,-2048
 1358 0012 9443     		lw	a3,0(a5)
 1359 0014 B7370240 		li	a5,1073885184
 1360 0018 93870780 		addi	a5,a5,-2048
 1361 001c 0327C4FE 		lw	a4,-20(s0)
 1362 0020 558F     		or	a4,a3,a4
 1363 0022 98C3     		sw	a4,0(a5)
 475:../Firmware/GD32VW55x_standard_peripheral/Source/gd32vw55x_efuse.c **** }
 1364              		.loc 1 475 1
 1365 0024 0100     		nop
 1366 0026 7244     		lw	s0,28(sp)
 1367              		.cfi_restore 8
 1368              		.cfi_def_cfa 2, 32
 1369 0028 0561     		addi	sp,sp,32
 1370              		.cfi_def_cfa_offset 0
 1371 002a 8280     		jr	ra
 1372              		.cfi_endproc
 1373              	.LFE367:
 1375              		.section	.text.efuse_interrupt_disable,"ax",@progbits
 1376              		.align	1
 1377              		.globl	efuse_interrupt_disable
 1379              	efuse_interrupt_disable:
 1380              	.LFB368:
 476:../Firmware/GD32VW55x_standard_peripheral/Source/gd32vw55x_efuse.c **** 
 477:../Firmware/GD32VW55x_standard_peripheral/Source/gd32vw55x_efuse.c **** /*!
 478:../Firmware/GD32VW55x_standard_peripheral/Source/gd32vw55x_efuse.c ****     \brief      disable EFUSE interrupt
 479:../Firmware/GD32VW55x_standard_peripheral/Source/gd32vw55x_efuse.c ****     \param[in]  source: specifies an interrupt to disbale
 480:../Firmware/GD32VW55x_standard_peripheral/Source/gd32vw55x_efuse.c ****                 one or more parameters can be selected which are shown as below:
 481:../Firmware/GD32VW55x_standard_peripheral/Source/gd32vw55x_efuse.c ****       \arg        EFUSE_INTEN_PG: programming operation completion interrupt
 482:../Firmware/GD32VW55x_standard_peripheral/Source/gd32vw55x_efuse.c ****       \arg        EFUSE_INTEN_RD: read operation completion interrupt
 483:../Firmware/GD32VW55x_standard_peripheral/Source/gd32vw55x_efuse.c ****       \arg        EFUSE_INTEN_OVBER: overstep boundary error interrupt
 484:../Firmware/GD32VW55x_standard_peripheral/Source/gd32vw55x_efuse.c ****     \param[out] none
 485:../Firmware/GD32VW55x_standard_peripheral/Source/gd32vw55x_efuse.c ****     \retval     none
 486:../Firmware/GD32VW55x_standard_peripheral/Source/gd32vw55x_efuse.c **** */
 487:../Firmware/GD32VW55x_standard_peripheral/Source/gd32vw55x_efuse.c **** void efuse_interrupt_disable(efuse_int_enum source)
 488:../Firmware/GD32VW55x_standard_peripheral/Source/gd32vw55x_efuse.c **** {
 1381              		.loc 1 488 1
 1382              		.cfi_startproc
 1383 0000 0111     		addi	sp,sp,-32
 1384              		.cfi_def_cfa_offset 32
 1385 0002 22CE     		sw	s0,28(sp)
 1386              		.cfi_offset 8, -4
 1387 0004 0010     		addi	s0,sp,32
 1388              		.cfi_def_cfa 8, 0
 1389 0006 2326A4FE 		sw	a0,-20(s0)
 489:../Firmware/GD32VW55x_standard_peripheral/Source/gd32vw55x_efuse.c ****     EFUSE_CS &= (~(uint32_t)source);
 1390              		.loc 1 489 14
 1391 000a B7370240 		li	a5,1073885184
 1392 000e 93870780 		addi	a5,a5,-2048
 1393 0012 9443     		lw	a3,0(a5)
 1394              		.loc 1 489 18
 1395 0014 8327C4FE 		lw	a5,-20(s0)
 1396 0018 13C7F7FF 		not	a4,a5
 1397              		.loc 1 489 14
 1398 001c B7370240 		li	a5,1073885184
 1399 0020 93870780 		addi	a5,a5,-2048
 1400 0024 758F     		and	a4,a3,a4
 1401 0026 98C3     		sw	a4,0(a5)
 490:../Firmware/GD32VW55x_standard_peripheral/Source/gd32vw55x_efuse.c **** }
 1402              		.loc 1 490 1
 1403 0028 0100     		nop
 1404 002a 7244     		lw	s0,28(sp)
 1405              		.cfi_restore 8
 1406              		.cfi_def_cfa 2, 32
 1407 002c 0561     		addi	sp,sp,32
 1408              		.cfi_def_cfa_offset 0
 1409 002e 8280     		jr	ra
 1410              		.cfi_endproc
 1411              	.LFE368:
 1413              		.section	.text.efuse_interrupt_flag_get,"ax",@progbits
 1414              		.align	1
 1415              		.globl	efuse_interrupt_flag_get
 1417              	efuse_interrupt_flag_get:
 1418              	.LFB369:
 491:../Firmware/GD32VW55x_standard_peripheral/Source/gd32vw55x_efuse.c **** 
 492:../Firmware/GD32VW55x_standard_peripheral/Source/gd32vw55x_efuse.c **** /*!
 493:../Firmware/GD32VW55x_standard_peripheral/Source/gd32vw55x_efuse.c ****     \brief      get EFUSE interrupt flag is set or not
 494:../Firmware/GD32VW55x_standard_peripheral/Source/gd32vw55x_efuse.c ****     \param[in]  int_flag: specifies to get a flag
 495:../Firmware/GD32VW55x_standard_peripheral/Source/gd32vw55x_efuse.c ****                 only one parameter can be selected which is shown as below:
 496:../Firmware/GD32VW55x_standard_peripheral/Source/gd32vw55x_efuse.c ****       \arg        EFUSE_INT_PGIF: programming operation completion interrupt flag
 497:../Firmware/GD32VW55x_standard_peripheral/Source/gd32vw55x_efuse.c ****       \arg        EFUSE_INT_RDIF: read operation completion interrupt flag
 498:../Firmware/GD32VW55x_standard_peripheral/Source/gd32vw55x_efuse.c ****       \arg        EFUSE_INT_OVBERIF: overstep boundary error interrupt flag
 499:../Firmware/GD32VW55x_standard_peripheral/Source/gd32vw55x_efuse.c ****     \param[out] none
 500:../Firmware/GD32VW55x_standard_peripheral/Source/gd32vw55x_efuse.c ****     \retval     FlagStatus: SET or RESET
 501:../Firmware/GD32VW55x_standard_peripheral/Source/gd32vw55x_efuse.c **** */
 502:../Firmware/GD32VW55x_standard_peripheral/Source/gd32vw55x_efuse.c **** FlagStatus efuse_interrupt_flag_get(efuse_int_flag_enum int_flag)
 503:../Firmware/GD32VW55x_standard_peripheral/Source/gd32vw55x_efuse.c **** {
 1419              		.loc 1 503 1
 1420              		.cfi_startproc
 1421 0000 0111     		addi	sp,sp,-32
 1422              		.cfi_def_cfa_offset 32
 1423 0002 22CE     		sw	s0,28(sp)
 1424              		.cfi_offset 8, -4
 1425 0004 0010     		addi	s0,sp,32
 1426              		.cfi_def_cfa 8, 0
 1427 0006 2326A4FE 		sw	a0,-20(s0)
 504:../Firmware/GD32VW55x_standard_peripheral/Source/gd32vw55x_efuse.c ****     if(EFUSE_CS & (uint32_t)int_flag) {
 1428              		.loc 1 504 8
 1429 000a B7370240 		li	a5,1073885184
 1430 000e 93870780 		addi	a5,a5,-2048
 1431 0012 9843     		lw	a4,0(a5)
 1432              		.loc 1 504 17
 1433 0014 8327C4FE 		lw	a5,-20(s0)
 1434 0018 F98F     		and	a5,a4,a5
 1435              		.loc 1 504 7
 1436 001a 99C3     		beq	a5,zero,.L86
 505:../Firmware/GD32VW55x_standard_peripheral/Source/gd32vw55x_efuse.c ****         return SET;
 1437              		.loc 1 505 16
 1438 001c 8547     		li	a5,1
 1439 001e 11A0     		j	.L87
 1440              	.L86:
 506:../Firmware/GD32VW55x_standard_peripheral/Source/gd32vw55x_efuse.c ****     } else {
 507:../Firmware/GD32VW55x_standard_peripheral/Source/gd32vw55x_efuse.c ****         return RESET;
 1441              		.loc 1 507 16
 1442 0020 8147     		li	a5,0
 1443              	.L87:
 508:../Firmware/GD32VW55x_standard_peripheral/Source/gd32vw55x_efuse.c ****     }
 509:../Firmware/GD32VW55x_standard_peripheral/Source/gd32vw55x_efuse.c **** }
 1444              		.loc 1 509 1
 1445 0022 3E85     		mv	a0,a5
 1446 0024 7244     		lw	s0,28(sp)
 1447              		.cfi_restore 8
 1448              		.cfi_def_cfa 2, 32
 1449 0026 0561     		addi	sp,sp,32
 1450              		.cfi_def_cfa_offset 0
 1451 0028 8280     		jr	ra
 1452              		.cfi_endproc
 1453              	.LFE369:
 1455              		.section	.text.efuse_interrupt_flag_clear,"ax",@progbits
 1456              		.align	1
 1457              		.globl	efuse_interrupt_flag_clear
 1459              	efuse_interrupt_flag_clear:
 1460              	.LFB370:
 510:../Firmware/GD32VW55x_standard_peripheral/Source/gd32vw55x_efuse.c **** 
 511:../Firmware/GD32VW55x_standard_peripheral/Source/gd32vw55x_efuse.c **** /*!
 512:../Firmware/GD32VW55x_standard_peripheral/Source/gd32vw55x_efuse.c ****     \brief      clear EFUSE pending interrupt flag
 513:../Firmware/GD32VW55x_standard_peripheral/Source/gd32vw55x_efuse.c ****     \param[in]  int_flag: specifies to clear a flag
 514:../Firmware/GD32VW55x_standard_peripheral/Source/gd32vw55x_efuse.c ****                 only one parameter can be selected which is shown as below:
 515:../Firmware/GD32VW55x_standard_peripheral/Source/gd32vw55x_efuse.c ****       \arg        EFUSE_INT_PGIC: clear programming operation completion interrupt flag
 516:../Firmware/GD32VW55x_standard_peripheral/Source/gd32vw55x_efuse.c ****       \arg        EFUSE_INT_RDIC: clear operation completion interrupt flag
 517:../Firmware/GD32VW55x_standard_peripheral/Source/gd32vw55x_efuse.c ****       \arg        EFUSE_INT_OVBERIC: clear overstep boundary error interrupt flag
 518:../Firmware/GD32VW55x_standard_peripheral/Source/gd32vw55x_efuse.c ****     \param[out] none
 519:../Firmware/GD32VW55x_standard_peripheral/Source/gd32vw55x_efuse.c ****     \retval     none
 520:../Firmware/GD32VW55x_standard_peripheral/Source/gd32vw55x_efuse.c **** */
 521:../Firmware/GD32VW55x_standard_peripheral/Source/gd32vw55x_efuse.c **** void efuse_interrupt_flag_clear(efuse_clear_int_flag_enum int_flag)
 522:../Firmware/GD32VW55x_standard_peripheral/Source/gd32vw55x_efuse.c **** {
 1461              		.loc 1 522 1
 1462              		.cfi_startproc
 1463 0000 0111     		addi	sp,sp,-32
 1464              		.cfi_def_cfa_offset 32
 1465 0002 22CE     		sw	s0,28(sp)
 1466              		.cfi_offset 8, -4
 1467 0004 0010     		addi	s0,sp,32
 1468              		.cfi_def_cfa 8, 0
 1469 0006 2326A4FE 		sw	a0,-20(s0)
 523:../Firmware/GD32VW55x_standard_peripheral/Source/gd32vw55x_efuse.c ****     EFUSE_CS |= ((uint32_t)int_flag);
 1470              		.loc 1 523 14
 1471 000a B7370240 		li	a5,1073885184
 1472 000e 93870780 		addi	a5,a5,-2048
 1473 0012 9443     		lw	a3,0(a5)
 1474 0014 B7370240 		li	a5,1073885184
 1475 0018 93870780 		addi	a5,a5,-2048
 1476 001c 0327C4FE 		lw	a4,-20(s0)
 1477 0020 558F     		or	a4,a3,a4
 1478 0022 98C3     		sw	a4,0(a5)
 524:../Firmware/GD32VW55x_standard_peripheral/Source/gd32vw55x_efuse.c **** }
 1479              		.loc 1 524 1
 1480 0024 0100     		nop
 1481 0026 7244     		lw	s0,28(sp)
 1482              		.cfi_restore 8
 1483              		.cfi_def_cfa 2, 32
 1484 0028 0561     		addi	sp,sp,32
 1485              		.cfi_def_cfa_offset 0
 1486 002a 8280     		jr	ra
 1487              		.cfi_endproc
 1488              	.LFE370:
 1490              		.text
 1491              	.Letext0:
 1492              		.file 2 "e:\\gd32\\gd32embeddedbuilder_v1.5.2.30854\\tools\\nuclei_riscv_newlibc_prebuilt_win32_20
 1493              		.file 3 "e:\\gd32\\gd32embeddedbuilder_v1.5.2.30854\\tools\\nuclei_riscv_newlibc_prebuilt_win32_20
 1494              		.file 4 "../Firmware/GD32VW55x_standard_peripheral/gd32vw55x.h"
 1495              		.file 5 "../Firmware/GD32VW55x_standard_peripheral/Include/gd32vw55x_efuse.h"
DEFINED SYMBOLS
                            *ABS*:0000000000000000 gd32vw55x_efuse.c
C:\Users\CYMR90~1\AppData\Local\Temp\ccZ8Xcmd.s:13     .text.efuse_read:0000000000000000 efuse_read
C:\Users\CYMR90~1\AppData\Local\Temp\ccZ8Xcmd.s:17     .text.efuse_read:0000000000000000 .L0 
C:\Users\CYMR90~1\AppData\Local\Temp\ccZ8Xcmd.s:18     .text.efuse_read:0000000000000000 .L0 
C:\Users\CYMR90~1\AppData\Local\Temp\ccZ8Xcmd.s:19     .text.efuse_read:0000000000000002 .L0 
C:\Users\CYMR90~1\AppData\Local\Temp\ccZ8Xcmd.s:22     .text.efuse_read:0000000000000006 .L0 
C:\Users\CYMR90~1\AppData\Local\Temp\ccZ8Xcmd.s:23     .text.efuse_read:0000000000000006 .L0 
C:\Users\CYMR90~1\AppData\Local\Temp\ccZ8Xcmd.s:25     .text.efuse_read:0000000000000008 .L0 
C:\Users\CYMR90~1\AppData\Local\Temp\ccZ8Xcmd.s:30     .text.efuse_read:0000000000000014 .L0 
C:\Users\CYMR90~1\AppData\Local\Temp\ccZ8Xcmd.s:32     .text.efuse_read:0000000000000018 .L0 
C:\Users\CYMR90~1\AppData\Local\Temp\ccZ8Xcmd.s:35     .text.efuse_read:0000000000000020 .L0 
C:\Users\CYMR90~1\AppData\Local\Temp\ccZ8Xcmd.s:37     .text.efuse_read:0000000000000024 .L0 
C:\Users\CYMR90~1\AppData\Local\Temp\ccZ8Xcmd.s:41     .text.efuse_read:000000000000002e .L0 
C:\Users\CYMR90~1\AppData\Local\Temp\ccZ8Xcmd.s:44     .text.efuse_read:0000000000000034 .L0 
C:\Users\CYMR90~1\AppData\Local\Temp\ccZ8Xcmd.s:48     .text.efuse_read:000000000000003a .L0 
C:\Users\CYMR90~1\AppData\Local\Temp\ccZ8Xcmd.s:52     .text.efuse_read:0000000000000046 .L0 
C:\Users\CYMR90~1\AppData\Local\Temp\ccZ8Xcmd.s:57     .text.efuse_read:0000000000000052 .L0 
C:\Users\CYMR90~1\AppData\Local\Temp\ccZ8Xcmd.s:61     .text.efuse_read:0000000000000056 .L0 
C:\Users\CYMR90~1\AppData\Local\Temp\ccZ8Xcmd.s:65     .text.efuse_read:0000000000000060 .L0 
C:\Users\CYMR90~1\AppData\Local\Temp\ccZ8Xcmd.s:70     .text.efuse_read:000000000000006e .L0 
C:\Users\CYMR90~1\AppData\Local\Temp\ccZ8Xcmd.s:75     .text.efuse_read:0000000000000076 .L0 
C:\Users\CYMR90~1\AppData\Local\Temp\ccZ8Xcmd.s:78     .text.efuse_read:000000000000007c .L0 
C:\Users\CYMR90~1\AppData\Local\Temp\ccZ8Xcmd.s:80     .text.efuse_read:000000000000007e .L0 
C:\Users\CYMR90~1\AppData\Local\Temp\ccZ8Xcmd.s:88     .text.efuse_read:0000000000000092 .L0 
C:\Users\CYMR90~1\AppData\Local\Temp\ccZ8Xcmd.s:92     .text.efuse_read:0000000000000096 .L0 
C:\Users\CYMR90~1\AppData\Local\Temp\ccZ8Xcmd.s:100    .text.efuse_read:00000000000000ac .L0 
C:\Users\CYMR90~1\AppData\Local\Temp\ccZ8Xcmd.s:103    .text.efuse_read:00000000000000b4 .L0 
C:\Users\CYMR90~1\AppData\Local\Temp\ccZ8Xcmd.s:106    .text.efuse_read:00000000000000bc .L0 
C:\Users\CYMR90~1\AppData\Local\Temp\ccZ8Xcmd.s:109    .text.efuse_read:00000000000000c2 .L0 
C:\Users\CYMR90~1\AppData\Local\Temp\ccZ8Xcmd.s:111    .text.efuse_read:00000000000000c4 .L0 
C:\Users\CYMR90~1\AppData\Local\Temp\ccZ8Xcmd.s:120    .text.efuse_read:00000000000000dc .L0 
C:\Users\CYMR90~1\AppData\Local\Temp\ccZ8Xcmd.s:124    .text.efuse_read:00000000000000e6 .L0 
C:\Users\CYMR90~1\AppData\Local\Temp\ccZ8Xcmd.s:1267   .text.efuse_flag_get:0000000000000000 efuse_flag_get
C:\Users\CYMR90~1\AppData\Local\Temp\ccZ8Xcmd.s:128    .text.efuse_read:00000000000000f4 .L0 
C:\Users\CYMR90~1\AppData\Local\Temp\ccZ8Xcmd.s:130    .text.efuse_read:00000000000000f6 .L0 
C:\Users\CYMR90~1\AppData\Local\Temp\ccZ8Xcmd.s:134    .text.efuse_read:00000000000000fc .L0 
C:\Users\CYMR90~1\AppData\Local\Temp\ccZ8Xcmd.s:137    .text.efuse_read:0000000000000102 .L0 
C:\Users\CYMR90~1\AppData\Local\Temp\ccZ8Xcmd.s:141    .text.efuse_read:0000000000000106 .L0 
C:\Users\CYMR90~1\AppData\Local\Temp\ccZ8Xcmd.s:143    .text.efuse_read:000000000000010a .L0 
C:\Users\CYMR90~1\AppData\Local\Temp\ccZ8Xcmd.s:146    .text.efuse_read:000000000000010c .L0 
C:\Users\CYMR90~1\AppData\Local\Temp\ccZ8Xcmd.s:152    .text.efuse_read:000000000000011c .L0 
C:\Users\CYMR90~1\AppData\Local\Temp\ccZ8Xcmd.s:157    .text.efuse_read:0000000000000128 .L0 
C:\Users\CYMR90~1\AppData\Local\Temp\ccZ8Xcmd.s:159    .text.efuse_read:000000000000012a .L0 
C:\Users\CYMR90~1\AppData\Local\Temp\ccZ8Xcmd.s:161    .text.efuse_read:000000000000012c .L0 
C:\Users\CYMR90~1\AppData\Local\Temp\ccZ8Xcmd.s:166    .text.efuse_read:0000000000000136 .L0 
C:\Users\CYMR90~1\AppData\Local\Temp\ccZ8Xcmd.s:170    .text.efuse_read:0000000000000142 .L0 
C:\Users\CYMR90~1\AppData\Local\Temp\ccZ8Xcmd.s:179    .text.efuse_read:000000000000015c .L0 
C:\Users\CYMR90~1\AppData\Local\Temp\ccZ8Xcmd.s:182    .text.efuse_read:000000000000015e .L0 
C:\Users\CYMR90~1\AppData\Local\Temp\ccZ8Xcmd.s:184    .text.efuse_read:0000000000000162 .L0 
C:\Users\CYMR90~1\AppData\Local\Temp\ccZ8Xcmd.s:186    .text.efuse_read:0000000000000164 .L0 
C:\Users\CYMR90~1\AppData\Local\Temp\ccZ8Xcmd.s:187    .text.efuse_read:0000000000000164 .L0 
C:\Users\CYMR90~1\AppData\Local\Temp\ccZ8Xcmd.s:189    .text.efuse_read:0000000000000166 .L0 
C:\Users\CYMR90~1\AppData\Local\Temp\ccZ8Xcmd.s:191    .text.efuse_read:0000000000000168 .L0 
C:\Users\CYMR90~1\AppData\Local\Temp\ccZ8Xcmd.s:198    .text.efuse_write:0000000000000000 efuse_write
C:\Users\CYMR90~1\AppData\Local\Temp\ccZ8Xcmd.s:201    .text.efuse_write:0000000000000000 .L0 
C:\Users\CYMR90~1\AppData\Local\Temp\ccZ8Xcmd.s:202    .text.efuse_write:0000000000000000 .L0 
C:\Users\CYMR90~1\AppData\Local\Temp\ccZ8Xcmd.s:203    .text.efuse_write:0000000000000002 .L0 
C:\Users\CYMR90~1\AppData\Local\Temp\ccZ8Xcmd.s:206    .text.efuse_write:0000000000000006 .L0 
C:\Users\CYMR90~1\AppData\Local\Temp\ccZ8Xcmd.s:207    .text.efuse_write:0000000000000006 .L0 
C:\Users\CYMR90~1\AppData\Local\Temp\ccZ8Xcmd.s:209    .text.efuse_write:0000000000000008 .L0 
C:\Users\CYMR90~1\AppData\Local\Temp\ccZ8Xcmd.s:214    .text.efuse_write:0000000000000014 .L0 
C:\Users\CYMR90~1\AppData\Local\Temp\ccZ8Xcmd.s:216    .text.efuse_write:0000000000000018 .L0 
C:\Users\CYMR90~1\AppData\Local\Temp\ccZ8Xcmd.s:220    .text.efuse_write:0000000000000020 .L0 
C:\Users\CYMR90~1\AppData\Local\Temp\ccZ8Xcmd.s:222    .text.efuse_write:0000000000000024 .L0 
C:\Users\CYMR90~1\AppData\Local\Temp\ccZ8Xcmd.s:226    .text.efuse_write:000000000000002e .L0 
C:\Users\CYMR90~1\AppData\Local\Temp\ccZ8Xcmd.s:229    .text.efuse_write:0000000000000034 .L0 
C:\Users\CYMR90~1\AppData\Local\Temp\ccZ8Xcmd.s:233    .text.efuse_write:000000000000003a .L0 
C:\Users\CYMR90~1\AppData\Local\Temp\ccZ8Xcmd.s:237    .text.efuse_write:0000000000000046 .L0 
C:\Users\CYMR90~1\AppData\Local\Temp\ccZ8Xcmd.s:242    .text.efuse_write:0000000000000052 .L0 
C:\Users\CYMR90~1\AppData\Local\Temp\ccZ8Xcmd.s:246    .text.efuse_write:0000000000000056 .L0 
C:\Users\CYMR90~1\AppData\Local\Temp\ccZ8Xcmd.s:250    .text.efuse_write:0000000000000062 .L0 
C:\Users\CYMR90~1\AppData\Local\Temp\ccZ8Xcmd.s:254    .text.efuse_write:000000000000006e .L0 
C:\Users\CYMR90~1\AppData\Local\Temp\ccZ8Xcmd.s:258    .text.efuse_write:0000000000000072 .L0 
C:\Users\CYMR90~1\AppData\Local\Temp\ccZ8Xcmd.s:262    .text.efuse_write:000000000000007c .L0 
C:\Users\CYMR90~1\AppData\Local\Temp\ccZ8Xcmd.s:267    .text.efuse_write:000000000000008a .L0 
C:\Users\CYMR90~1\AppData\Local\Temp\ccZ8Xcmd.s:272    .text.efuse_write:0000000000000092 .L0 
C:\Users\CYMR90~1\AppData\Local\Temp\ccZ8Xcmd.s:275    .text.efuse_write:0000000000000098 .L0 
C:\Users\CYMR90~1\AppData\Local\Temp\ccZ8Xcmd.s:277    .text.efuse_write:000000000000009a .L0 
C:\Users\CYMR90~1\AppData\Local\Temp\ccZ8Xcmd.s:281    .text.efuse_write:000000000000009e .L0 
C:\Users\CYMR90~1\AppData\Local\Temp\ccZ8Xcmd.s:288    .text.efuse_write:00000000000000b0 .L0 
C:\Users\CYMR90~1\AppData\Local\Temp\ccZ8Xcmd.s:297    .text.efuse_write:00000000000000ca .L0 
C:\Users\CYMR90~1\AppData\Local\Temp\ccZ8Xcmd.s:305    .text.efuse_write:00000000000000e2 .L0 
C:\Users\CYMR90~1\AppData\Local\Temp\ccZ8Xcmd.s:308    .text.efuse_write:00000000000000ea .L0 
C:\Users\CYMR90~1\AppData\Local\Temp\ccZ8Xcmd.s:311    .text.efuse_write:00000000000000f2 .L0 
C:\Users\CYMR90~1\AppData\Local\Temp\ccZ8Xcmd.s:314    .text.efuse_write:00000000000000f8 .L0 
C:\Users\CYMR90~1\AppData\Local\Temp\ccZ8Xcmd.s:316    .text.efuse_write:00000000000000fa .L0 
C:\Users\CYMR90~1\AppData\Local\Temp\ccZ8Xcmd.s:318    .text.efuse_write:00000000000000fe .L0 
C:\Users\CYMR90~1\AppData\Local\Temp\ccZ8Xcmd.s:321    .text.efuse_write:0000000000000100 .L0 
C:\Users\CYMR90~1\AppData\Local\Temp\ccZ8Xcmd.s:326    .text.efuse_write:000000000000010c .L0 
C:\Users\CYMR90~1\AppData\Local\Temp\ccZ8Xcmd.s:331    .text.efuse_write:000000000000011a .L0 
C:\Users\CYMR90~1\AppData\Local\Temp\ccZ8Xcmd.s:333    .text.efuse_write:000000000000011c .L0 
C:\Users\CYMR90~1\AppData\Local\Temp\ccZ8Xcmd.s:335    .text.efuse_write:000000000000011e .L0 
C:\Users\CYMR90~1\AppData\Local\Temp\ccZ8Xcmd.s:340    .text.efuse_write:0000000000000128 .L0 
C:\Users\CYMR90~1\AppData\Local\Temp\ccZ8Xcmd.s:344    .text.efuse_write:0000000000000134 .L0 
C:\Users\CYMR90~1\AppData\Local\Temp\ccZ8Xcmd.s:353    .text.efuse_write:000000000000014c .L0 
C:\Users\CYMR90~1\AppData\Local\Temp\ccZ8Xcmd.s:357    .text.efuse_write:0000000000000156 .L0 
C:\Users\CYMR90~1\AppData\Local\Temp\ccZ8Xcmd.s:361    .text.efuse_write:0000000000000162 .L0 
C:\Users\CYMR90~1\AppData\Local\Temp\ccZ8Xcmd.s:363    .text.efuse_write:0000000000000164 .L0 
C:\Users\CYMR90~1\AppData\Local\Temp\ccZ8Xcmd.s:367    .text.efuse_write:000000000000016a .L0 
C:\Users\CYMR90~1\AppData\Local\Temp\ccZ8Xcmd.s:370    .text.efuse_write:0000000000000170 .L0 
C:\Users\CYMR90~1\AppData\Local\Temp\ccZ8Xcmd.s:374    .text.efuse_write:0000000000000174 .L0 
C:\Users\CYMR90~1\AppData\Local\Temp\ccZ8Xcmd.s:382    .text.efuse_write:000000000000018a .L0 
C:\Users\CYMR90~1\AppData\Local\Temp\ccZ8Xcmd.s:391    .text.efuse_write:00000000000001a4 .L0 
C:\Users\CYMR90~1\AppData\Local\Temp\ccZ8Xcmd.s:401    .text.efuse_write:00000000000001c0 .L0 
C:\Users\CYMR90~1\AppData\Local\Temp\ccZ8Xcmd.s:404    .text.efuse_write:00000000000001c2 .L0 
C:\Users\CYMR90~1\AppData\Local\Temp\ccZ8Xcmd.s:406    .text.efuse_write:00000000000001c6 .L0 
C:\Users\CYMR90~1\AppData\Local\Temp\ccZ8Xcmd.s:408    .text.efuse_write:00000000000001c8 .L0 
C:\Users\CYMR90~1\AppData\Local\Temp\ccZ8Xcmd.s:409    .text.efuse_write:00000000000001c8 .L0 
C:\Users\CYMR90~1\AppData\Local\Temp\ccZ8Xcmd.s:411    .text.efuse_write:00000000000001ca .L0 
C:\Users\CYMR90~1\AppData\Local\Temp\ccZ8Xcmd.s:413    .text.efuse_write:00000000000001cc .L0 
C:\Users\CYMR90~1\AppData\Local\Temp\ccZ8Xcmd.s:420    .text.efuse_boot_config:0000000000000000 efuse_boot_config
C:\Users\CYMR90~1\AppData\Local\Temp\ccZ8Xcmd.s:423    .text.efuse_boot_config:0000000000000000 .L0 
C:\Users\CYMR90~1\AppData\Local\Temp\ccZ8Xcmd.s:424    .text.efuse_boot_config:0000000000000000 .L0 
C:\Users\CYMR90~1\AppData\Local\Temp\ccZ8Xcmd.s:425    .text.efuse_boot_config:0000000000000002 .L0 
C:\Users\CYMR90~1\AppData\Local\Temp\ccZ8Xcmd.s:428    .text.efuse_boot_config:0000000000000006 .L0 
C:\Users\CYMR90~1\AppData\Local\Temp\ccZ8Xcmd.s:429    .text.efuse_boot_config:0000000000000006 .L0 
C:\Users\CYMR90~1\AppData\Local\Temp\ccZ8Xcmd.s:431    .text.efuse_boot_config:0000000000000008 .L0 
C:\Users\CYMR90~1\AppData\Local\Temp\ccZ8Xcmd.s:435    .text.efuse_boot_config:0000000000000010 .L0 
C:\Users\CYMR90~1\AppData\Local\Temp\ccZ8Xcmd.s:439    .text.efuse_boot_config:000000000000001a .L0 
C:\Users\CYMR90~1\AppData\Local\Temp\ccZ8Xcmd.s:443    .text.efuse_boot_config:000000000000001e .L0 
C:\Users\CYMR90~1\AppData\Local\Temp\ccZ8Xcmd.s:450    .text.efuse_boot_config:0000000000000032 .L0 
C:\Users\CYMR90~1\AppData\Local\Temp\ccZ8Xcmd.s:452    .text.efuse_boot_config:0000000000000036 .L0 
C:\Users\CYMR90~1\AppData\Local\Temp\ccZ8Xcmd.s:454    .text.efuse_boot_config:0000000000000038 .L0 
C:\Users\CYMR90~1\AppData\Local\Temp\ccZ8Xcmd.s:455    .text.efuse_boot_config:0000000000000038 .L0 
C:\Users\CYMR90~1\AppData\Local\Temp\ccZ8Xcmd.s:457    .text.efuse_boot_config:000000000000003a .L0 
C:\Users\CYMR90~1\AppData\Local\Temp\ccZ8Xcmd.s:459    .text.efuse_boot_config:000000000000003c .L0 
C:\Users\CYMR90~1\AppData\Local\Temp\ccZ8Xcmd.s:466    .text.efuse_control1_config:0000000000000000 efuse_control1_config
C:\Users\CYMR90~1\AppData\Local\Temp\ccZ8Xcmd.s:469    .text.efuse_control1_config:0000000000000000 .L0 
C:\Users\CYMR90~1\AppData\Local\Temp\ccZ8Xcmd.s:470    .text.efuse_control1_config:0000000000000000 .L0 
C:\Users\CYMR90~1\AppData\Local\Temp\ccZ8Xcmd.s:471    .text.efuse_control1_config:0000000000000002 .L0 
C:\Users\CYMR90~1\AppData\Local\Temp\ccZ8Xcmd.s:474    .text.efuse_control1_config:0000000000000006 .L0 
C:\Users\CYMR90~1\AppData\Local\Temp\ccZ8Xcmd.s:475    .text.efuse_control1_config:0000000000000006 .L0 
C:\Users\CYMR90~1\AppData\Local\Temp\ccZ8Xcmd.s:477    .text.efuse_control1_config:0000000000000008 .L0 
C:\Users\CYMR90~1\AppData\Local\Temp\ccZ8Xcmd.s:481    .text.efuse_control1_config:0000000000000010 .L0 
C:\Users\CYMR90~1\AppData\Local\Temp\ccZ8Xcmd.s:485    .text.efuse_control1_config:000000000000001a .L0 
C:\Users\CYMR90~1\AppData\Local\Temp\ccZ8Xcmd.s:489    .text.efuse_control1_config:000000000000001e .L0 
C:\Users\CYMR90~1\AppData\Local\Temp\ccZ8Xcmd.s:496    .text.efuse_control1_config:0000000000000032 .L0 
C:\Users\CYMR90~1\AppData\Local\Temp\ccZ8Xcmd.s:498    .text.efuse_control1_config:0000000000000036 .L0 
C:\Users\CYMR90~1\AppData\Local\Temp\ccZ8Xcmd.s:500    .text.efuse_control1_config:0000000000000038 .L0 
C:\Users\CYMR90~1\AppData\Local\Temp\ccZ8Xcmd.s:501    .text.efuse_control1_config:0000000000000038 .L0 
C:\Users\CYMR90~1\AppData\Local\Temp\ccZ8Xcmd.s:503    .text.efuse_control1_config:000000000000003a .L0 
C:\Users\CYMR90~1\AppData\Local\Temp\ccZ8Xcmd.s:505    .text.efuse_control1_config:000000000000003c .L0 
C:\Users\CYMR90~1\AppData\Local\Temp\ccZ8Xcmd.s:512    .text.efuse_fp_config:0000000000000000 efuse_fp_config
C:\Users\CYMR90~1\AppData\Local\Temp\ccZ8Xcmd.s:515    .text.efuse_fp_config:0000000000000000 .L0 
C:\Users\CYMR90~1\AppData\Local\Temp\ccZ8Xcmd.s:516    .text.efuse_fp_config:0000000000000000 .L0 
C:\Users\CYMR90~1\AppData\Local\Temp\ccZ8Xcmd.s:517    .text.efuse_fp_config:0000000000000002 .L0 
C:\Users\CYMR90~1\AppData\Local\Temp\ccZ8Xcmd.s:520    .text.efuse_fp_config:0000000000000006 .L0 
C:\Users\CYMR90~1\AppData\Local\Temp\ccZ8Xcmd.s:521    .text.efuse_fp_config:0000000000000006 .L0 
C:\Users\CYMR90~1\AppData\Local\Temp\ccZ8Xcmd.s:523    .text.efuse_fp_config:0000000000000008 .L0 
C:\Users\CYMR90~1\AppData\Local\Temp\ccZ8Xcmd.s:527    .text.efuse_fp_config:0000000000000010 .L0 
C:\Users\CYMR90~1\AppData\Local\Temp\ccZ8Xcmd.s:531    .text.efuse_fp_config:000000000000001a .L0 
C:\Users\CYMR90~1\AppData\Local\Temp\ccZ8Xcmd.s:535    .text.efuse_fp_config:000000000000001e .L0 
C:\Users\CYMR90~1\AppData\Local\Temp\ccZ8Xcmd.s:542    .text.efuse_fp_config:0000000000000032 .L0 
C:\Users\CYMR90~1\AppData\Local\Temp\ccZ8Xcmd.s:544    .text.efuse_fp_config:0000000000000036 .L0 
C:\Users\CYMR90~1\AppData\Local\Temp\ccZ8Xcmd.s:546    .text.efuse_fp_config:0000000000000038 .L0 
C:\Users\CYMR90~1\AppData\Local\Temp\ccZ8Xcmd.s:547    .text.efuse_fp_config:0000000000000038 .L0 
C:\Users\CYMR90~1\AppData\Local\Temp\ccZ8Xcmd.s:549    .text.efuse_fp_config:000000000000003a .L0 
C:\Users\CYMR90~1\AppData\Local\Temp\ccZ8Xcmd.s:551    .text.efuse_fp_config:000000000000003c .L0 
C:\Users\CYMR90~1\AppData\Local\Temp\ccZ8Xcmd.s:558    .text.efuse_user_control_config:0000000000000000 efuse_user_control_config
C:\Users\CYMR90~1\AppData\Local\Temp\ccZ8Xcmd.s:561    .text.efuse_user_control_config:0000000000000000 .L0 
C:\Users\CYMR90~1\AppData\Local\Temp\ccZ8Xcmd.s:562    .text.efuse_user_control_config:0000000000000000 .L0 
C:\Users\CYMR90~1\AppData\Local\Temp\ccZ8Xcmd.s:563    .text.efuse_user_control_config:0000000000000002 .L0 
C:\Users\CYMR90~1\AppData\Local\Temp\ccZ8Xcmd.s:566    .text.efuse_user_control_config:0000000000000006 .L0 
C:\Users\CYMR90~1\AppData\Local\Temp\ccZ8Xcmd.s:567    .text.efuse_user_control_config:0000000000000006 .L0 
C:\Users\CYMR90~1\AppData\Local\Temp\ccZ8Xcmd.s:569    .text.efuse_user_control_config:0000000000000008 .L0 
C:\Users\CYMR90~1\AppData\Local\Temp\ccZ8Xcmd.s:573    .text.efuse_user_control_config:0000000000000010 .L0 
C:\Users\CYMR90~1\AppData\Local\Temp\ccZ8Xcmd.s:577    .text.efuse_user_control_config:000000000000001a .L0 
C:\Users\CYMR90~1\AppData\Local\Temp\ccZ8Xcmd.s:581    .text.efuse_user_control_config:000000000000001e .L0 
C:\Users\CYMR90~1\AppData\Local\Temp\ccZ8Xcmd.s:588    .text.efuse_user_control_config:0000000000000032 .L0 
C:\Users\CYMR90~1\AppData\Local\Temp\ccZ8Xcmd.s:590    .text.efuse_user_control_config:0000000000000036 .L0 
C:\Users\CYMR90~1\AppData\Local\Temp\ccZ8Xcmd.s:592    .text.efuse_user_control_config:0000000000000038 .L0 
C:\Users\CYMR90~1\AppData\Local\Temp\ccZ8Xcmd.s:593    .text.efuse_user_control_config:0000000000000038 .L0 
C:\Users\CYMR90~1\AppData\Local\Temp\ccZ8Xcmd.s:595    .text.efuse_user_control_config:000000000000003a .L0 
C:\Users\CYMR90~1\AppData\Local\Temp\ccZ8Xcmd.s:597    .text.efuse_user_control_config:000000000000003c .L0 
C:\Users\CYMR90~1\AppData\Local\Temp\ccZ8Xcmd.s:604    .text.efuse_res_write:0000000000000000 efuse_res_write
C:\Users\CYMR90~1\AppData\Local\Temp\ccZ8Xcmd.s:607    .text.efuse_res_write:0000000000000000 .L0 
C:\Users\CYMR90~1\AppData\Local\Temp\ccZ8Xcmd.s:608    .text.efuse_res_write:0000000000000000 .L0 
C:\Users\CYMR90~1\AppData\Local\Temp\ccZ8Xcmd.s:609    .text.efuse_res_write:0000000000000002 .L0 
C:\Users\CYMR90~1\AppData\Local\Temp\ccZ8Xcmd.s:612    .text.efuse_res_write:0000000000000006 .L0 
C:\Users\CYMR90~1\AppData\Local\Temp\ccZ8Xcmd.s:613    .text.efuse_res_write:0000000000000006 .L0 
C:\Users\CYMR90~1\AppData\Local\Temp\ccZ8Xcmd.s:615    .text.efuse_res_write:0000000000000008 .L0 
C:\Users\CYMR90~1\AppData\Local\Temp\ccZ8Xcmd.s:619    .text.efuse_res_write:0000000000000010 .L0 
C:\Users\CYMR90~1\AppData\Local\Temp\ccZ8Xcmd.s:623    .text.efuse_res_write:000000000000001a .L0 
C:\Users\CYMR90~1\AppData\Local\Temp\ccZ8Xcmd.s:627    .text.efuse_res_write:000000000000001e .L0 
C:\Users\CYMR90~1\AppData\Local\Temp\ccZ8Xcmd.s:634    .text.efuse_res_write:0000000000000032 .L0 
C:\Users\CYMR90~1\AppData\Local\Temp\ccZ8Xcmd.s:636    .text.efuse_res_write:0000000000000036 .L0 
C:\Users\CYMR90~1\AppData\Local\Temp\ccZ8Xcmd.s:638    .text.efuse_res_write:0000000000000038 .L0 
C:\Users\CYMR90~1\AppData\Local\Temp\ccZ8Xcmd.s:639    .text.efuse_res_write:0000000000000038 .L0 
C:\Users\CYMR90~1\AppData\Local\Temp\ccZ8Xcmd.s:641    .text.efuse_res_write:000000000000003a .L0 
C:\Users\CYMR90~1\AppData\Local\Temp\ccZ8Xcmd.s:643    .text.efuse_res_write:000000000000003c .L0 
C:\Users\CYMR90~1\AppData\Local\Temp\ccZ8Xcmd.s:650    .text.efuse_aes_key_write:0000000000000000 efuse_aes_key_write
C:\Users\CYMR90~1\AppData\Local\Temp\ccZ8Xcmd.s:653    .text.efuse_aes_key_write:0000000000000000 .L0 
C:\Users\CYMR90~1\AppData\Local\Temp\ccZ8Xcmd.s:654    .text.efuse_aes_key_write:0000000000000000 .L0 
C:\Users\CYMR90~1\AppData\Local\Temp\ccZ8Xcmd.s:655    .text.efuse_aes_key_write:0000000000000002 .L0 
C:\Users\CYMR90~1\AppData\Local\Temp\ccZ8Xcmd.s:658    .text.efuse_aes_key_write:0000000000000006 .L0 
C:\Users\CYMR90~1\AppData\Local\Temp\ccZ8Xcmd.s:659    .text.efuse_aes_key_write:0000000000000006 .L0 
C:\Users\CYMR90~1\AppData\Local\Temp\ccZ8Xcmd.s:661    .text.efuse_aes_key_write:0000000000000008 .L0 
C:\Users\CYMR90~1\AppData\Local\Temp\ccZ8Xcmd.s:665    .text.efuse_aes_key_write:0000000000000010 .L0 
C:\Users\CYMR90~1\AppData\Local\Temp\ccZ8Xcmd.s:669    .text.efuse_aes_key_write:000000000000001a .L0 
C:\Users\CYMR90~1\AppData\Local\Temp\ccZ8Xcmd.s:673    .text.efuse_aes_key_write:000000000000001e .L0 
C:\Users\CYMR90~1\AppData\Local\Temp\ccZ8Xcmd.s:680    .text.efuse_aes_key_write:0000000000000032 .L0 
C:\Users\CYMR90~1\AppData\Local\Temp\ccZ8Xcmd.s:682    .text.efuse_aes_key_write:0000000000000036 .L0 
C:\Users\CYMR90~1\AppData\Local\Temp\ccZ8Xcmd.s:684    .text.efuse_aes_key_write:0000000000000038 .L0 
C:\Users\CYMR90~1\AppData\Local\Temp\ccZ8Xcmd.s:685    .text.efuse_aes_key_write:0000000000000038 .L0 
C:\Users\CYMR90~1\AppData\Local\Temp\ccZ8Xcmd.s:687    .text.efuse_aes_key_write:000000000000003a .L0 
C:\Users\CYMR90~1\AppData\Local\Temp\ccZ8Xcmd.s:689    .text.efuse_aes_key_write:000000000000003c .L0 
C:\Users\CYMR90~1\AppData\Local\Temp\ccZ8Xcmd.s:696    .text.efuse_rotpk_key_write:0000000000000000 efuse_rotpk_key_write
C:\Users\CYMR90~1\AppData\Local\Temp\ccZ8Xcmd.s:699    .text.efuse_rotpk_key_write:0000000000000000 .L0 
C:\Users\CYMR90~1\AppData\Local\Temp\ccZ8Xcmd.s:700    .text.efuse_rotpk_key_write:0000000000000000 .L0 
C:\Users\CYMR90~1\AppData\Local\Temp\ccZ8Xcmd.s:701    .text.efuse_rotpk_key_write:0000000000000002 .L0 
C:\Users\CYMR90~1\AppData\Local\Temp\ccZ8Xcmd.s:704    .text.efuse_rotpk_key_write:0000000000000006 .L0 
C:\Users\CYMR90~1\AppData\Local\Temp\ccZ8Xcmd.s:705    .text.efuse_rotpk_key_write:0000000000000006 .L0 
C:\Users\CYMR90~1\AppData\Local\Temp\ccZ8Xcmd.s:707    .text.efuse_rotpk_key_write:0000000000000008 .L0 
C:\Users\CYMR90~1\AppData\Local\Temp\ccZ8Xcmd.s:711    .text.efuse_rotpk_key_write:0000000000000010 .L0 
C:\Users\CYMR90~1\AppData\Local\Temp\ccZ8Xcmd.s:715    .text.efuse_rotpk_key_write:000000000000001c .L0 
C:\Users\CYMR90~1\AppData\Local\Temp\ccZ8Xcmd.s:719    .text.efuse_rotpk_key_write:0000000000000020 .L0 
C:\Users\CYMR90~1\AppData\Local\Temp\ccZ8Xcmd.s:726    .text.efuse_rotpk_key_write:0000000000000036 .L0 
C:\Users\CYMR90~1\AppData\Local\Temp\ccZ8Xcmd.s:728    .text.efuse_rotpk_key_write:000000000000003a .L0 
C:\Users\CYMR90~1\AppData\Local\Temp\ccZ8Xcmd.s:730    .text.efuse_rotpk_key_write:000000000000003c .L0 
C:\Users\CYMR90~1\AppData\Local\Temp\ccZ8Xcmd.s:731    .text.efuse_rotpk_key_write:000000000000003c .L0 
C:\Users\CYMR90~1\AppData\Local\Temp\ccZ8Xcmd.s:733    .text.efuse_rotpk_key_write:000000000000003e .L0 
C:\Users\CYMR90~1\AppData\Local\Temp\ccZ8Xcmd.s:735    .text.efuse_rotpk_key_write:0000000000000040 .L0 
C:\Users\CYMR90~1\AppData\Local\Temp\ccZ8Xcmd.s:742    .text.efuse_user_data_write:0000000000000000 efuse_user_data_write
C:\Users\CYMR90~1\AppData\Local\Temp\ccZ8Xcmd.s:745    .text.efuse_user_data_write:0000000000000000 .L0 
C:\Users\CYMR90~1\AppData\Local\Temp\ccZ8Xcmd.s:746    .text.efuse_user_data_write:0000000000000000 .L0 
C:\Users\CYMR90~1\AppData\Local\Temp\ccZ8Xcmd.s:747    .text.efuse_user_data_write:0000000000000002 .L0 
C:\Users\CYMR90~1\AppData\Local\Temp\ccZ8Xcmd.s:750    .text.efuse_user_data_write:0000000000000006 .L0 
C:\Users\CYMR90~1\AppData\Local\Temp\ccZ8Xcmd.s:751    .text.efuse_user_data_write:0000000000000006 .L0 
C:\Users\CYMR90~1\AppData\Local\Temp\ccZ8Xcmd.s:753    .text.efuse_user_data_write:0000000000000008 .L0 
C:\Users\CYMR90~1\AppData\Local\Temp\ccZ8Xcmd.s:757    .text.efuse_user_data_write:0000000000000010 .L0 
C:\Users\CYMR90~1\AppData\Local\Temp\ccZ8Xcmd.s:761    .text.efuse_user_data_write:000000000000001c .L0 
C:\Users\CYMR90~1\AppData\Local\Temp\ccZ8Xcmd.s:765    .text.efuse_user_data_write:0000000000000020 .L0 
C:\Users\CYMR90~1\AppData\Local\Temp\ccZ8Xcmd.s:772    .text.efuse_user_data_write:0000000000000036 .L0 
C:\Users\CYMR90~1\AppData\Local\Temp\ccZ8Xcmd.s:774    .text.efuse_user_data_write:000000000000003a .L0 
C:\Users\CYMR90~1\AppData\Local\Temp\ccZ8Xcmd.s:776    .text.efuse_user_data_write:000000000000003c .L0 
C:\Users\CYMR90~1\AppData\Local\Temp\ccZ8Xcmd.s:777    .text.efuse_user_data_write:000000000000003c .L0 
C:\Users\CYMR90~1\AppData\Local\Temp\ccZ8Xcmd.s:779    .text.efuse_user_data_write:000000000000003e .L0 
C:\Users\CYMR90~1\AppData\Local\Temp\ccZ8Xcmd.s:781    .text.efuse_user_data_write:0000000000000040 .L0 
C:\Users\CYMR90~1\AppData\Local\Temp\ccZ8Xcmd.s:788    .text.efuse_res_read:0000000000000000 efuse_res_read
C:\Users\CYMR90~1\AppData\Local\Temp\ccZ8Xcmd.s:791    .text.efuse_res_read:0000000000000000 .L0 
C:\Users\CYMR90~1\AppData\Local\Temp\ccZ8Xcmd.s:792    .text.efuse_res_read:0000000000000000 .L0 
C:\Users\CYMR90~1\AppData\Local\Temp\ccZ8Xcmd.s:793    .text.efuse_res_read:0000000000000002 .L0 
C:\Users\CYMR90~1\AppData\Local\Temp\ccZ8Xcmd.s:795    .text.efuse_res_read:0000000000000004 .L0 
C:\Users\CYMR90~1\AppData\Local\Temp\ccZ8Xcmd.s:797    .text.efuse_res_read:0000000000000006 .L0 
C:\Users\CYMR90~1\AppData\Local\Temp\ccZ8Xcmd.s:800    .text.efuse_res_read:000000000000000a .L0 
C:\Users\CYMR90~1\AppData\Local\Temp\ccZ8Xcmd.s:802    .text.efuse_res_read:000000000000000e .L0 
C:\Users\CYMR90~1\AppData\Local\Temp\ccZ8Xcmd.s:804    .text.efuse_res_read:0000000000000012 .L0 
C:\Users\CYMR90~1\AppData\Local\Temp\ccZ8Xcmd.s:807    .text.efuse_res_read:0000000000000014 .L0 
C:\Users\CYMR90~1\AppData\Local\Temp\ccZ8Xcmd.s:814    .text.efuse_res_read:0000000000000026 .L0 
C:\Users\CYMR90~1\AppData\Local\Temp\ccZ8Xcmd.s:819    .text.efuse_res_read:0000000000000032 .L0 
C:\Users\CYMR90~1\AppData\Local\Temp\ccZ8Xcmd.s:821    .text.efuse_res_read:0000000000000034 .L0 
C:\Users\CYMR90~1\AppData\Local\Temp\ccZ8Xcmd.s:823    .text.efuse_res_read:0000000000000036 .L0 
C:\Users\CYMR90~1\AppData\Local\Temp\ccZ8Xcmd.s:828    .text.efuse_res_read:0000000000000040 .L0 
C:\Users\CYMR90~1\AppData\Local\Temp\ccZ8Xcmd.s:832    .text.efuse_res_read:000000000000004a .L0 
C:\Users\CYMR90~1\AppData\Local\Temp\ccZ8Xcmd.s:835    .text.efuse_res_read:0000000000000050 .L0 
C:\Users\CYMR90~1\AppData\Local\Temp\ccZ8Xcmd.s:836    .text.efuse_res_read:0000000000000050 .L0 
C:\Users\CYMR90~1\AppData\Local\Temp\ccZ8Xcmd.s:838    .text.efuse_res_read:0000000000000052 .L0 
C:\Users\CYMR90~1\AppData\Local\Temp\ccZ8Xcmd.s:840    .text.efuse_res_read:0000000000000054 .L0 
C:\Users\CYMR90~1\AppData\Local\Temp\ccZ8Xcmd.s:847    .text.efuse_aes_key_read:0000000000000000 efuse_aes_key_read
C:\Users\CYMR90~1\AppData\Local\Temp\ccZ8Xcmd.s:850    .text.efuse_aes_key_read:0000000000000000 .L0 
C:\Users\CYMR90~1\AppData\Local\Temp\ccZ8Xcmd.s:851    .text.efuse_aes_key_read:0000000000000000 .L0 
C:\Users\CYMR90~1\AppData\Local\Temp\ccZ8Xcmd.s:852    .text.efuse_aes_key_read:0000000000000002 .L0 
C:\Users\CYMR90~1\AppData\Local\Temp\ccZ8Xcmd.s:854    .text.efuse_aes_key_read:0000000000000004 .L0 
C:\Users\CYMR90~1\AppData\Local\Temp\ccZ8Xcmd.s:856    .text.efuse_aes_key_read:0000000000000006 .L0 
C:\Users\CYMR90~1\AppData\Local\Temp\ccZ8Xcmd.s:859    .text.efuse_aes_key_read:000000000000000a .L0 
C:\Users\CYMR90~1\AppData\Local\Temp\ccZ8Xcmd.s:861    .text.efuse_aes_key_read:000000000000000e .L0 
C:\Users\CYMR90~1\AppData\Local\Temp\ccZ8Xcmd.s:863    .text.efuse_aes_key_read:0000000000000012 .L0 
C:\Users\CYMR90~1\AppData\Local\Temp\ccZ8Xcmd.s:866    .text.efuse_aes_key_read:0000000000000014 .L0 
C:\Users\CYMR90~1\AppData\Local\Temp\ccZ8Xcmd.s:873    .text.efuse_aes_key_read:0000000000000026 .L0 
C:\Users\CYMR90~1\AppData\Local\Temp\ccZ8Xcmd.s:878    .text.efuse_aes_key_read:0000000000000032 .L0 
C:\Users\CYMR90~1\AppData\Local\Temp\ccZ8Xcmd.s:880    .text.efuse_aes_key_read:0000000000000034 .L0 
C:\Users\CYMR90~1\AppData\Local\Temp\ccZ8Xcmd.s:882    .text.efuse_aes_key_read:0000000000000036 .L0 
C:\Users\CYMR90~1\AppData\Local\Temp\ccZ8Xcmd.s:887    .text.efuse_aes_key_read:0000000000000040 .L0 
C:\Users\CYMR90~1\AppData\Local\Temp\ccZ8Xcmd.s:891    .text.efuse_aes_key_read:000000000000004a .L0 
C:\Users\CYMR90~1\AppData\Local\Temp\ccZ8Xcmd.s:894    .text.efuse_aes_key_read:0000000000000050 .L0 
C:\Users\CYMR90~1\AppData\Local\Temp\ccZ8Xcmd.s:895    .text.efuse_aes_key_read:0000000000000050 .L0 
C:\Users\CYMR90~1\AppData\Local\Temp\ccZ8Xcmd.s:897    .text.efuse_aes_key_read:0000000000000052 .L0 
C:\Users\CYMR90~1\AppData\Local\Temp\ccZ8Xcmd.s:899    .text.efuse_aes_key_read:0000000000000054 .L0 
C:\Users\CYMR90~1\AppData\Local\Temp\ccZ8Xcmd.s:906    .text.efuse_rotpk_key_read:0000000000000000 efuse_rotpk_key_read
C:\Users\CYMR90~1\AppData\Local\Temp\ccZ8Xcmd.s:909    .text.efuse_rotpk_key_read:0000000000000000 .L0 
C:\Users\CYMR90~1\AppData\Local\Temp\ccZ8Xcmd.s:910    .text.efuse_rotpk_key_read:0000000000000000 .L0 
C:\Users\CYMR90~1\AppData\Local\Temp\ccZ8Xcmd.s:911    .text.efuse_rotpk_key_read:0000000000000002 .L0 
C:\Users\CYMR90~1\AppData\Local\Temp\ccZ8Xcmd.s:913    .text.efuse_rotpk_key_read:0000000000000004 .L0 
C:\Users\CYMR90~1\AppData\Local\Temp\ccZ8Xcmd.s:915    .text.efuse_rotpk_key_read:0000000000000006 .L0 
C:\Users\CYMR90~1\AppData\Local\Temp\ccZ8Xcmd.s:918    .text.efuse_rotpk_key_read:000000000000000a .L0 
C:\Users\CYMR90~1\AppData\Local\Temp\ccZ8Xcmd.s:920    .text.efuse_rotpk_key_read:000000000000000e .L0 
C:\Users\CYMR90~1\AppData\Local\Temp\ccZ8Xcmd.s:922    .text.efuse_rotpk_key_read:0000000000000012 .L0 
C:\Users\CYMR90~1\AppData\Local\Temp\ccZ8Xcmd.s:925    .text.efuse_rotpk_key_read:0000000000000014 .L0 
C:\Users\CYMR90~1\AppData\Local\Temp\ccZ8Xcmd.s:932    .text.efuse_rotpk_key_read:0000000000000026 .L0 
C:\Users\CYMR90~1\AppData\Local\Temp\ccZ8Xcmd.s:937    .text.efuse_rotpk_key_read:0000000000000032 .L0 
C:\Users\CYMR90~1\AppData\Local\Temp\ccZ8Xcmd.s:939    .text.efuse_rotpk_key_read:0000000000000034 .L0 
C:\Users\CYMR90~1\AppData\Local\Temp\ccZ8Xcmd.s:941    .text.efuse_rotpk_key_read:0000000000000036 .L0 
C:\Users\CYMR90~1\AppData\Local\Temp\ccZ8Xcmd.s:946    .text.efuse_rotpk_key_read:0000000000000040 .L0 
C:\Users\CYMR90~1\AppData\Local\Temp\ccZ8Xcmd.s:950    .text.efuse_rotpk_key_read:000000000000004a .L0 
C:\Users\CYMR90~1\AppData\Local\Temp\ccZ8Xcmd.s:953    .text.efuse_rotpk_key_read:0000000000000050 .L0 
C:\Users\CYMR90~1\AppData\Local\Temp\ccZ8Xcmd.s:954    .text.efuse_rotpk_key_read:0000000000000050 .L0 
C:\Users\CYMR90~1\AppData\Local\Temp\ccZ8Xcmd.s:956    .text.efuse_rotpk_key_read:0000000000000052 .L0 
C:\Users\CYMR90~1\AppData\Local\Temp\ccZ8Xcmd.s:958    .text.efuse_rotpk_key_read:0000000000000054 .L0 
C:\Users\CYMR90~1\AppData\Local\Temp\ccZ8Xcmd.s:965    .text.efuse_puid_read:0000000000000000 efuse_puid_read
C:\Users\CYMR90~1\AppData\Local\Temp\ccZ8Xcmd.s:968    .text.efuse_puid_read:0000000000000000 .L0 
C:\Users\CYMR90~1\AppData\Local\Temp\ccZ8Xcmd.s:969    .text.efuse_puid_read:0000000000000000 .L0 
C:\Users\CYMR90~1\AppData\Local\Temp\ccZ8Xcmd.s:970    .text.efuse_puid_read:0000000000000002 .L0 
C:\Users\CYMR90~1\AppData\Local\Temp\ccZ8Xcmd.s:972    .text.efuse_puid_read:0000000000000004 .L0 
C:\Users\CYMR90~1\AppData\Local\Temp\ccZ8Xcmd.s:974    .text.efuse_puid_read:0000000000000006 .L0 
C:\Users\CYMR90~1\AppData\Local\Temp\ccZ8Xcmd.s:977    .text.efuse_puid_read:000000000000000a .L0 
C:\Users\CYMR90~1\AppData\Local\Temp\ccZ8Xcmd.s:979    .text.efuse_puid_read:000000000000000e .L0 
C:\Users\CYMR90~1\AppData\Local\Temp\ccZ8Xcmd.s:981    .text.efuse_puid_read:0000000000000012 .L0 
C:\Users\CYMR90~1\AppData\Local\Temp\ccZ8Xcmd.s:984    .text.efuse_puid_read:0000000000000014 .L0 
C:\Users\CYMR90~1\AppData\Local\Temp\ccZ8Xcmd.s:991    .text.efuse_puid_read:0000000000000026 .L0 
C:\Users\CYMR90~1\AppData\Local\Temp\ccZ8Xcmd.s:996    .text.efuse_puid_read:0000000000000032 .L0 
C:\Users\CYMR90~1\AppData\Local\Temp\ccZ8Xcmd.s:998    .text.efuse_puid_read:0000000000000034 .L0 
C:\Users\CYMR90~1\AppData\Local\Temp\ccZ8Xcmd.s:1000   .text.efuse_puid_read:0000000000000036 .L0 
C:\Users\CYMR90~1\AppData\Local\Temp\ccZ8Xcmd.s:1005   .text.efuse_puid_read:0000000000000040 .L0 
C:\Users\CYMR90~1\AppData\Local\Temp\ccZ8Xcmd.s:1009   .text.efuse_puid_read:000000000000004a .L0 
C:\Users\CYMR90~1\AppData\Local\Temp\ccZ8Xcmd.s:1012   .text.efuse_puid_read:0000000000000050 .L0 
C:\Users\CYMR90~1\AppData\Local\Temp\ccZ8Xcmd.s:1013   .text.efuse_puid_read:0000000000000050 .L0 
C:\Users\CYMR90~1\AppData\Local\Temp\ccZ8Xcmd.s:1015   .text.efuse_puid_read:0000000000000052 .L0 
C:\Users\CYMR90~1\AppData\Local\Temp\ccZ8Xcmd.s:1017   .text.efuse_puid_read:0000000000000054 .L0 
C:\Users\CYMR90~1\AppData\Local\Temp\ccZ8Xcmd.s:1024   .text.efuse_huk_key_read:0000000000000000 efuse_huk_key_read
C:\Users\CYMR90~1\AppData\Local\Temp\ccZ8Xcmd.s:1027   .text.efuse_huk_key_read:0000000000000000 .L0 
C:\Users\CYMR90~1\AppData\Local\Temp\ccZ8Xcmd.s:1028   .text.efuse_huk_key_read:0000000000000000 .L0 
C:\Users\CYMR90~1\AppData\Local\Temp\ccZ8Xcmd.s:1029   .text.efuse_huk_key_read:0000000000000002 .L0 
C:\Users\CYMR90~1\AppData\Local\Temp\ccZ8Xcmd.s:1031   .text.efuse_huk_key_read:0000000000000004 .L0 
C:\Users\CYMR90~1\AppData\Local\Temp\ccZ8Xcmd.s:1033   .text.efuse_huk_key_read:0000000000000006 .L0 
C:\Users\CYMR90~1\AppData\Local\Temp\ccZ8Xcmd.s:1036   .text.efuse_huk_key_read:000000000000000a .L0 
C:\Users\CYMR90~1\AppData\Local\Temp\ccZ8Xcmd.s:1038   .text.efuse_huk_key_read:000000000000000e .L0 
C:\Users\CYMR90~1\AppData\Local\Temp\ccZ8Xcmd.s:1040   .text.efuse_huk_key_read:0000000000000012 .L0 
C:\Users\CYMR90~1\AppData\Local\Temp\ccZ8Xcmd.s:1043   .text.efuse_huk_key_read:0000000000000014 .L0 
C:\Users\CYMR90~1\AppData\Local\Temp\ccZ8Xcmd.s:1050   .text.efuse_huk_key_read:0000000000000026 .L0 
C:\Users\CYMR90~1\AppData\Local\Temp\ccZ8Xcmd.s:1055   .text.efuse_huk_key_read:0000000000000032 .L0 
C:\Users\CYMR90~1\AppData\Local\Temp\ccZ8Xcmd.s:1057   .text.efuse_huk_key_read:0000000000000034 .L0 
C:\Users\CYMR90~1\AppData\Local\Temp\ccZ8Xcmd.s:1059   .text.efuse_huk_key_read:0000000000000036 .L0 
C:\Users\CYMR90~1\AppData\Local\Temp\ccZ8Xcmd.s:1064   .text.efuse_huk_key_read:0000000000000040 .L0 
C:\Users\CYMR90~1\AppData\Local\Temp\ccZ8Xcmd.s:1068   .text.efuse_huk_key_read:000000000000004a .L0 
C:\Users\CYMR90~1\AppData\Local\Temp\ccZ8Xcmd.s:1071   .text.efuse_huk_key_read:0000000000000050 .L0 
C:\Users\CYMR90~1\AppData\Local\Temp\ccZ8Xcmd.s:1072   .text.efuse_huk_key_read:0000000000000050 .L0 
C:\Users\CYMR90~1\AppData\Local\Temp\ccZ8Xcmd.s:1074   .text.efuse_huk_key_read:0000000000000052 .L0 
C:\Users\CYMR90~1\AppData\Local\Temp\ccZ8Xcmd.s:1076   .text.efuse_huk_key_read:0000000000000054 .L0 
C:\Users\CYMR90~1\AppData\Local\Temp\ccZ8Xcmd.s:1083   .text.efuse_user_data_read:0000000000000000 efuse_user_data_read
C:\Users\CYMR90~1\AppData\Local\Temp\ccZ8Xcmd.s:1086   .text.efuse_user_data_read:0000000000000000 .L0 
C:\Users\CYMR90~1\AppData\Local\Temp\ccZ8Xcmd.s:1087   .text.efuse_user_data_read:0000000000000000 .L0 
C:\Users\CYMR90~1\AppData\Local\Temp\ccZ8Xcmd.s:1088   .text.efuse_user_data_read:0000000000000002 .L0 
C:\Users\CYMR90~1\AppData\Local\Temp\ccZ8Xcmd.s:1090   .text.efuse_user_data_read:0000000000000004 .L0 
C:\Users\CYMR90~1\AppData\Local\Temp\ccZ8Xcmd.s:1092   .text.efuse_user_data_read:0000000000000006 .L0 
C:\Users\CYMR90~1\AppData\Local\Temp\ccZ8Xcmd.s:1095   .text.efuse_user_data_read:000000000000000a .L0 
C:\Users\CYMR90~1\AppData\Local\Temp\ccZ8Xcmd.s:1097   .text.efuse_user_data_read:000000000000000e .L0 
C:\Users\CYMR90~1\AppData\Local\Temp\ccZ8Xcmd.s:1099   .text.efuse_user_data_read:0000000000000012 .L0 
C:\Users\CYMR90~1\AppData\Local\Temp\ccZ8Xcmd.s:1102   .text.efuse_user_data_read:0000000000000014 .L0 
C:\Users\CYMR90~1\AppData\Local\Temp\ccZ8Xcmd.s:1109   .text.efuse_user_data_read:0000000000000026 .L0 
C:\Users\CYMR90~1\AppData\Local\Temp\ccZ8Xcmd.s:1114   .text.efuse_user_data_read:0000000000000032 .L0 
C:\Users\CYMR90~1\AppData\Local\Temp\ccZ8Xcmd.s:1116   .text.efuse_user_data_read:0000000000000034 .L0 
C:\Users\CYMR90~1\AppData\Local\Temp\ccZ8Xcmd.s:1118   .text.efuse_user_data_read:0000000000000036 .L0 
C:\Users\CYMR90~1\AppData\Local\Temp\ccZ8Xcmd.s:1123   .text.efuse_user_data_read:0000000000000040 .L0 
C:\Users\CYMR90~1\AppData\Local\Temp\ccZ8Xcmd.s:1127   .text.efuse_user_data_read:000000000000004a .L0 
C:\Users\CYMR90~1\AppData\Local\Temp\ccZ8Xcmd.s:1130   .text.efuse_user_data_read:0000000000000050 .L0 
C:\Users\CYMR90~1\AppData\Local\Temp\ccZ8Xcmd.s:1131   .text.efuse_user_data_read:0000000000000050 .L0 
C:\Users\CYMR90~1\AppData\Local\Temp\ccZ8Xcmd.s:1133   .text.efuse_user_data_read:0000000000000052 .L0 
C:\Users\CYMR90~1\AppData\Local\Temp\ccZ8Xcmd.s:1135   .text.efuse_user_data_read:0000000000000054 .L0 
C:\Users\CYMR90~1\AppData\Local\Temp\ccZ8Xcmd.s:1142   .text.efuse_boot_address_get:0000000000000000 efuse_boot_address_get
C:\Users\CYMR90~1\AppData\Local\Temp\ccZ8Xcmd.s:1145   .text.efuse_boot_address_get:0000000000000000 .L0 
C:\Users\CYMR90~1\AppData\Local\Temp\ccZ8Xcmd.s:1146   .text.efuse_boot_address_get:0000000000000000 .L0 
C:\Users\CYMR90~1\AppData\Local\Temp\ccZ8Xcmd.s:1147   .text.efuse_boot_address_get:0000000000000002 .L0 
C:\Users\CYMR90~1\AppData\Local\Temp\ccZ8Xcmd.s:1149   .text.efuse_boot_address_get:0000000000000004 .L0 
C:\Users\CYMR90~1\AppData\Local\Temp\ccZ8Xcmd.s:1151   .text.efuse_boot_address_get:0000000000000006 .L0 
C:\Users\CYMR90~1\AppData\Local\Temp\ccZ8Xcmd.s:1153   .text.efuse_boot_address_get:0000000000000006 .L0 
C:\Users\CYMR90~1\AppData\Local\Temp\ccZ8Xcmd.s:1157   .text.efuse_boot_address_get:0000000000000010 .L0 
C:\Users\CYMR90~1\AppData\Local\Temp\ccZ8Xcmd.s:1159   .text.efuse_boot_address_get:0000000000000014 .L0 
C:\Users\CYMR90~1\AppData\Local\Temp\ccZ8Xcmd.s:1160   .text.efuse_boot_address_get:0000000000000014 .L0 
C:\Users\CYMR90~1\AppData\Local\Temp\ccZ8Xcmd.s:1162   .text.efuse_boot_address_get:0000000000000016 .L0 
C:\Users\CYMR90~1\AppData\Local\Temp\ccZ8Xcmd.s:1164   .text.efuse_boot_address_get:0000000000000018 .L0 
C:\Users\CYMR90~1\AppData\Local\Temp\ccZ8Xcmd.s:1171   .text.efuse_lock_config:0000000000000000 efuse_lock_config
C:\Users\CYMR90~1\AppData\Local\Temp\ccZ8Xcmd.s:1174   .text.efuse_lock_config:0000000000000000 .L0 
C:\Users\CYMR90~1\AppData\Local\Temp\ccZ8Xcmd.s:1175   .text.efuse_lock_config:0000000000000000 .L0 
C:\Users\CYMR90~1\AppData\Local\Temp\ccZ8Xcmd.s:1176   .text.efuse_lock_config:0000000000000002 .L0 
C:\Users\CYMR90~1\AppData\Local\Temp\ccZ8Xcmd.s:1179   .text.efuse_lock_config:0000000000000006 .L0 
C:\Users\CYMR90~1\AppData\Local\Temp\ccZ8Xcmd.s:1180   .text.efuse_lock_config:0000000000000006 .L0 
C:\Users\CYMR90~1\AppData\Local\Temp\ccZ8Xcmd.s:1182   .text.efuse_lock_config:0000000000000008 .L0 
C:\Users\CYMR90~1\AppData\Local\Temp\ccZ8Xcmd.s:1185   .text.efuse_lock_config:000000000000000c .L0 
C:\Users\CYMR90~1\AppData\Local\Temp\ccZ8Xcmd.s:1188   .text.efuse_lock_config:0000000000000014 .L0 
C:\Users\CYMR90~1\AppData\Local\Temp\ccZ8Xcmd.s:1192   .text.efuse_lock_config:000000000000001e .L0 
C:\Users\CYMR90~1\AppData\Local\Temp\ccZ8Xcmd.s:1198   .text.efuse_lock_config:0000000000000030 .L0 
C:\Users\CYMR90~1\AppData\Local\Temp\ccZ8Xcmd.s:1201   .text.efuse_lock_config:0000000000000032 .L0 
C:\Users\CYMR90~1\AppData\Local\Temp\ccZ8Xcmd.s:1205   .text.efuse_lock_config:000000000000003c .L0 
C:\Users\CYMR90~1\AppData\Local\Temp\ccZ8Xcmd.s:1211   .text.efuse_lock_config:000000000000004e .L0 
C:\Users\CYMR90~1\AppData\Local\Temp\ccZ8Xcmd.s:1214   .text.efuse_lock_config:0000000000000050 .L0 
C:\Users\CYMR90~1\AppData\Local\Temp\ccZ8Xcmd.s:1218   .text.efuse_lock_config:000000000000005c .L0 
C:\Users\CYMR90~1\AppData\Local\Temp\ccZ8Xcmd.s:1224   .text.efuse_lock_config:000000000000006e .L0 
C:\Users\CYMR90~1\AppData\Local\Temp\ccZ8Xcmd.s:1227   .text.efuse_lock_config:0000000000000070 .L0 
C:\Users\CYMR90~1\AppData\Local\Temp\ccZ8Xcmd.s:1231   .text.efuse_lock_config:000000000000007c .L0 
C:\Users\CYMR90~1\AppData\Local\Temp\ccZ8Xcmd.s:1237   .text.efuse_lock_config:000000000000008e .L0 
C:\Users\CYMR90~1\AppData\Local\Temp\ccZ8Xcmd.s:1240   .text.efuse_lock_config:0000000000000090 .L0 
C:\Users\CYMR90~1\AppData\Local\Temp\ccZ8Xcmd.s:1244   .text.efuse_lock_config:000000000000009a .L0 
C:\Users\CYMR90~1\AppData\Local\Temp\ccZ8Xcmd.s:1251   .text.efuse_lock_config:00000000000000ac .L0 
C:\Users\CYMR90~1\AppData\Local\Temp\ccZ8Xcmd.s:1253   .text.efuse_lock_config:00000000000000b0 .L0 
C:\Users\CYMR90~1\AppData\Local\Temp\ccZ8Xcmd.s:1255   .text.efuse_lock_config:00000000000000b2 .L0 
C:\Users\CYMR90~1\AppData\Local\Temp\ccZ8Xcmd.s:1256   .text.efuse_lock_config:00000000000000b2 .L0 
C:\Users\CYMR90~1\AppData\Local\Temp\ccZ8Xcmd.s:1258   .text.efuse_lock_config:00000000000000b4 .L0 
C:\Users\CYMR90~1\AppData\Local\Temp\ccZ8Xcmd.s:1260   .text.efuse_lock_config:00000000000000b6 .L0 
C:\Users\CYMR90~1\AppData\Local\Temp\ccZ8Xcmd.s:1270   .text.efuse_flag_get:0000000000000000 .L0 
C:\Users\CYMR90~1\AppData\Local\Temp\ccZ8Xcmd.s:1271   .text.efuse_flag_get:0000000000000000 .L0 
C:\Users\CYMR90~1\AppData\Local\Temp\ccZ8Xcmd.s:1272   .text.efuse_flag_get:0000000000000002 .L0 
C:\Users\CYMR90~1\AppData\Local\Temp\ccZ8Xcmd.s:1274   .text.efuse_flag_get:0000000000000004 .L0 
C:\Users\CYMR90~1\AppData\Local\Temp\ccZ8Xcmd.s:1276   .text.efuse_flag_get:0000000000000006 .L0 
C:\Users\CYMR90~1\AppData\Local\Temp\ccZ8Xcmd.s:1279   .text.efuse_flag_get:000000000000000a .L0 
C:\Users\CYMR90~1\AppData\Local\Temp\ccZ8Xcmd.s:1283   .text.efuse_flag_get:0000000000000014 .L0 
C:\Users\CYMR90~1\AppData\Local\Temp\ccZ8Xcmd.s:1286   .text.efuse_flag_get:000000000000001a .L0 
C:\Users\CYMR90~1\AppData\Local\Temp\ccZ8Xcmd.s:1288   .text.efuse_flag_get:000000000000001c .L0 
C:\Users\CYMR90~1\AppData\Local\Temp\ccZ8Xcmd.s:1292   .text.efuse_flag_get:0000000000000020 .L0 
C:\Users\CYMR90~1\AppData\Local\Temp\ccZ8Xcmd.s:1295   .text.efuse_flag_get:0000000000000022 .L0 
C:\Users\CYMR90~1\AppData\Local\Temp\ccZ8Xcmd.s:1297   .text.efuse_flag_get:0000000000000026 .L0 
C:\Users\CYMR90~1\AppData\Local\Temp\ccZ8Xcmd.s:1298   .text.efuse_flag_get:0000000000000026 .L0 
C:\Users\CYMR90~1\AppData\Local\Temp\ccZ8Xcmd.s:1300   .text.efuse_flag_get:0000000000000028 .L0 
C:\Users\CYMR90~1\AppData\Local\Temp\ccZ8Xcmd.s:1302   .text.efuse_flag_get:000000000000002a .L0 
C:\Users\CYMR90~1\AppData\Local\Temp\ccZ8Xcmd.s:1309   .text.efuse_flag_clear:0000000000000000 efuse_flag_clear
C:\Users\CYMR90~1\AppData\Local\Temp\ccZ8Xcmd.s:1312   .text.efuse_flag_clear:0000000000000000 .L0 
C:\Users\CYMR90~1\AppData\Local\Temp\ccZ8Xcmd.s:1313   .text.efuse_flag_clear:0000000000000000 .L0 
C:\Users\CYMR90~1\AppData\Local\Temp\ccZ8Xcmd.s:1314   .text.efuse_flag_clear:0000000000000002 .L0 
C:\Users\CYMR90~1\AppData\Local\Temp\ccZ8Xcmd.s:1316   .text.efuse_flag_clear:0000000000000004 .L0 
C:\Users\CYMR90~1\AppData\Local\Temp\ccZ8Xcmd.s:1318   .text.efuse_flag_clear:0000000000000006 .L0 
C:\Users\CYMR90~1\AppData\Local\Temp\ccZ8Xcmd.s:1321   .text.efuse_flag_clear:000000000000000a .L0 
C:\Users\CYMR90~1\AppData\Local\Temp\ccZ8Xcmd.s:1330   .text.efuse_flag_clear:0000000000000024 .L0 
C:\Users\CYMR90~1\AppData\Local\Temp\ccZ8Xcmd.s:1332   .text.efuse_flag_clear:0000000000000028 .L0 
C:\Users\CYMR90~1\AppData\Local\Temp\ccZ8Xcmd.s:1333   .text.efuse_flag_clear:0000000000000028 .L0 
C:\Users\CYMR90~1\AppData\Local\Temp\ccZ8Xcmd.s:1335   .text.efuse_flag_clear:000000000000002a .L0 
C:\Users\CYMR90~1\AppData\Local\Temp\ccZ8Xcmd.s:1337   .text.efuse_flag_clear:000000000000002c .L0 
C:\Users\CYMR90~1\AppData\Local\Temp\ccZ8Xcmd.s:1344   .text.efuse_interrupt_enable:0000000000000000 efuse_interrupt_enable
C:\Users\CYMR90~1\AppData\Local\Temp\ccZ8Xcmd.s:1347   .text.efuse_interrupt_enable:0000000000000000 .L0 
C:\Users\CYMR90~1\AppData\Local\Temp\ccZ8Xcmd.s:1348   .text.efuse_interrupt_enable:0000000000000000 .L0 
C:\Users\CYMR90~1\AppData\Local\Temp\ccZ8Xcmd.s:1349   .text.efuse_interrupt_enable:0000000000000002 .L0 
C:\Users\CYMR90~1\AppData\Local\Temp\ccZ8Xcmd.s:1351   .text.efuse_interrupt_enable:0000000000000004 .L0 
C:\Users\CYMR90~1\AppData\Local\Temp\ccZ8Xcmd.s:1353   .text.efuse_interrupt_enable:0000000000000006 .L0 
C:\Users\CYMR90~1\AppData\Local\Temp\ccZ8Xcmd.s:1356   .text.efuse_interrupt_enable:000000000000000a .L0 
C:\Users\CYMR90~1\AppData\Local\Temp\ccZ8Xcmd.s:1365   .text.efuse_interrupt_enable:0000000000000024 .L0 
C:\Users\CYMR90~1\AppData\Local\Temp\ccZ8Xcmd.s:1367   .text.efuse_interrupt_enable:0000000000000028 .L0 
C:\Users\CYMR90~1\AppData\Local\Temp\ccZ8Xcmd.s:1368   .text.efuse_interrupt_enable:0000000000000028 .L0 
C:\Users\CYMR90~1\AppData\Local\Temp\ccZ8Xcmd.s:1370   .text.efuse_interrupt_enable:000000000000002a .L0 
C:\Users\CYMR90~1\AppData\Local\Temp\ccZ8Xcmd.s:1372   .text.efuse_interrupt_enable:000000000000002c .L0 
C:\Users\CYMR90~1\AppData\Local\Temp\ccZ8Xcmd.s:1379   .text.efuse_interrupt_disable:0000000000000000 efuse_interrupt_disable
C:\Users\CYMR90~1\AppData\Local\Temp\ccZ8Xcmd.s:1382   .text.efuse_interrupt_disable:0000000000000000 .L0 
C:\Users\CYMR90~1\AppData\Local\Temp\ccZ8Xcmd.s:1383   .text.efuse_interrupt_disable:0000000000000000 .L0 
C:\Users\CYMR90~1\AppData\Local\Temp\ccZ8Xcmd.s:1384   .text.efuse_interrupt_disable:0000000000000002 .L0 
C:\Users\CYMR90~1\AppData\Local\Temp\ccZ8Xcmd.s:1386   .text.efuse_interrupt_disable:0000000000000004 .L0 
C:\Users\CYMR90~1\AppData\Local\Temp\ccZ8Xcmd.s:1388   .text.efuse_interrupt_disable:0000000000000006 .L0 
C:\Users\CYMR90~1\AppData\Local\Temp\ccZ8Xcmd.s:1391   .text.efuse_interrupt_disable:000000000000000a .L0 
C:\Users\CYMR90~1\AppData\Local\Temp\ccZ8Xcmd.s:1395   .text.efuse_interrupt_disable:0000000000000014 .L0 
C:\Users\CYMR90~1\AppData\Local\Temp\ccZ8Xcmd.s:1398   .text.efuse_interrupt_disable:000000000000001c .L0 
C:\Users\CYMR90~1\AppData\Local\Temp\ccZ8Xcmd.s:1403   .text.efuse_interrupt_disable:0000000000000028 .L0 
C:\Users\CYMR90~1\AppData\Local\Temp\ccZ8Xcmd.s:1405   .text.efuse_interrupt_disable:000000000000002c .L0 
C:\Users\CYMR90~1\AppData\Local\Temp\ccZ8Xcmd.s:1406   .text.efuse_interrupt_disable:000000000000002c .L0 
C:\Users\CYMR90~1\AppData\Local\Temp\ccZ8Xcmd.s:1408   .text.efuse_interrupt_disable:000000000000002e .L0 
C:\Users\CYMR90~1\AppData\Local\Temp\ccZ8Xcmd.s:1410   .text.efuse_interrupt_disable:0000000000000030 .L0 
C:\Users\CYMR90~1\AppData\Local\Temp\ccZ8Xcmd.s:1417   .text.efuse_interrupt_flag_get:0000000000000000 efuse_interrupt_flag_get
C:\Users\CYMR90~1\AppData\Local\Temp\ccZ8Xcmd.s:1420   .text.efuse_interrupt_flag_get:0000000000000000 .L0 
C:\Users\CYMR90~1\AppData\Local\Temp\ccZ8Xcmd.s:1421   .text.efuse_interrupt_flag_get:0000000000000000 .L0 
C:\Users\CYMR90~1\AppData\Local\Temp\ccZ8Xcmd.s:1422   .text.efuse_interrupt_flag_get:0000000000000002 .L0 
C:\Users\CYMR90~1\AppData\Local\Temp\ccZ8Xcmd.s:1424   .text.efuse_interrupt_flag_get:0000000000000004 .L0 
C:\Users\CYMR90~1\AppData\Local\Temp\ccZ8Xcmd.s:1426   .text.efuse_interrupt_flag_get:0000000000000006 .L0 
C:\Users\CYMR90~1\AppData\Local\Temp\ccZ8Xcmd.s:1429   .text.efuse_interrupt_flag_get:000000000000000a .L0 
C:\Users\CYMR90~1\AppData\Local\Temp\ccZ8Xcmd.s:1433   .text.efuse_interrupt_flag_get:0000000000000014 .L0 
C:\Users\CYMR90~1\AppData\Local\Temp\ccZ8Xcmd.s:1436   .text.efuse_interrupt_flag_get:000000000000001a .L0 
C:\Users\CYMR90~1\AppData\Local\Temp\ccZ8Xcmd.s:1438   .text.efuse_interrupt_flag_get:000000000000001c .L0 
C:\Users\CYMR90~1\AppData\Local\Temp\ccZ8Xcmd.s:1442   .text.efuse_interrupt_flag_get:0000000000000020 .L0 
C:\Users\CYMR90~1\AppData\Local\Temp\ccZ8Xcmd.s:1445   .text.efuse_interrupt_flag_get:0000000000000022 .L0 
C:\Users\CYMR90~1\AppData\Local\Temp\ccZ8Xcmd.s:1447   .text.efuse_interrupt_flag_get:0000000000000026 .L0 
C:\Users\CYMR90~1\AppData\Local\Temp\ccZ8Xcmd.s:1448   .text.efuse_interrupt_flag_get:0000000000000026 .L0 
C:\Users\CYMR90~1\AppData\Local\Temp\ccZ8Xcmd.s:1450   .text.efuse_interrupt_flag_get:0000000000000028 .L0 
C:\Users\CYMR90~1\AppData\Local\Temp\ccZ8Xcmd.s:1452   .text.efuse_interrupt_flag_get:000000000000002a .L0 
C:\Users\CYMR90~1\AppData\Local\Temp\ccZ8Xcmd.s:1459   .text.efuse_interrupt_flag_clear:0000000000000000 efuse_interrupt_flag_clear
C:\Users\CYMR90~1\AppData\Local\Temp\ccZ8Xcmd.s:1462   .text.efuse_interrupt_flag_clear:0000000000000000 .L0 
C:\Users\CYMR90~1\AppData\Local\Temp\ccZ8Xcmd.s:1463   .text.efuse_interrupt_flag_clear:0000000000000000 .L0 
C:\Users\CYMR90~1\AppData\Local\Temp\ccZ8Xcmd.s:1464   .text.efuse_interrupt_flag_clear:0000000000000002 .L0 
C:\Users\CYMR90~1\AppData\Local\Temp\ccZ8Xcmd.s:1466   .text.efuse_interrupt_flag_clear:0000000000000004 .L0 
C:\Users\CYMR90~1\AppData\Local\Temp\ccZ8Xcmd.s:1468   .text.efuse_interrupt_flag_clear:0000000000000006 .L0 
C:\Users\CYMR90~1\AppData\Local\Temp\ccZ8Xcmd.s:1471   .text.efuse_interrupt_flag_clear:000000000000000a .L0 
C:\Users\CYMR90~1\AppData\Local\Temp\ccZ8Xcmd.s:1480   .text.efuse_interrupt_flag_clear:0000000000000024 .L0 
C:\Users\CYMR90~1\AppData\Local\Temp\ccZ8Xcmd.s:1482   .text.efuse_interrupt_flag_clear:0000000000000028 .L0 
C:\Users\CYMR90~1\AppData\Local\Temp\ccZ8Xcmd.s:1483   .text.efuse_interrupt_flag_clear:0000000000000028 .L0 
C:\Users\CYMR90~1\AppData\Local\Temp\ccZ8Xcmd.s:1485   .text.efuse_interrupt_flag_clear:000000000000002a .L0 
C:\Users\CYMR90~1\AppData\Local\Temp\ccZ8Xcmd.s:1487   .text.efuse_interrupt_flag_clear:000000000000002c .L0 
C:\Users\CYMR90~1\AppData\Local\Temp\ccZ8Xcmd.s:194    .text.efuse_read:0000000000000168 .L0 
C:\Users\CYMR90~1\AppData\Local\Temp\ccZ8Xcmd.s:416    .text.efuse_write:00000000000001cc .L0 
C:\Users\CYMR90~1\AppData\Local\Temp\ccZ8Xcmd.s:462    .text.efuse_boot_config:000000000000003c .L0 
C:\Users\CYMR90~1\AppData\Local\Temp\ccZ8Xcmd.s:508    .text.efuse_control1_config:000000000000003c .L0 
C:\Users\CYMR90~1\AppData\Local\Temp\ccZ8Xcmd.s:554    .text.efuse_fp_config:000000000000003c .L0 
C:\Users\CYMR90~1\AppData\Local\Temp\ccZ8Xcmd.s:600    .text.efuse_user_control_config:000000000000003c .L0 
C:\Users\CYMR90~1\AppData\Local\Temp\ccZ8Xcmd.s:646    .text.efuse_res_write:000000000000003c .L0 
C:\Users\CYMR90~1\AppData\Local\Temp\ccZ8Xcmd.s:692    .text.efuse_aes_key_write:000000000000003c .L0 
C:\Users\CYMR90~1\AppData\Local\Temp\ccZ8Xcmd.s:738    .text.efuse_rotpk_key_write:0000000000000040 .L0 
C:\Users\CYMR90~1\AppData\Local\Temp\ccZ8Xcmd.s:784    .text.efuse_user_data_write:0000000000000040 .L0 
C:\Users\CYMR90~1\AppData\Local\Temp\ccZ8Xcmd.s:843    .text.efuse_res_read:0000000000000054 .L0 
C:\Users\CYMR90~1\AppData\Local\Temp\ccZ8Xcmd.s:902    .text.efuse_aes_key_read:0000000000000054 .L0 
C:\Users\CYMR90~1\AppData\Local\Temp\ccZ8Xcmd.s:961    .text.efuse_rotpk_key_read:0000000000000054 .L0 
C:\Users\CYMR90~1\AppData\Local\Temp\ccZ8Xcmd.s:1020   .text.efuse_puid_read:0000000000000054 .L0 
C:\Users\CYMR90~1\AppData\Local\Temp\ccZ8Xcmd.s:1079   .text.efuse_huk_key_read:0000000000000054 .L0 
C:\Users\CYMR90~1\AppData\Local\Temp\ccZ8Xcmd.s:1138   .text.efuse_user_data_read:0000000000000054 .L0 
C:\Users\CYMR90~1\AppData\Local\Temp\ccZ8Xcmd.s:1167   .text.efuse_boot_address_get:0000000000000018 .L0 
C:\Users\CYMR90~1\AppData\Local\Temp\ccZ8Xcmd.s:1263   .text.efuse_lock_config:00000000000000b6 .L0 
C:\Users\CYMR90~1\AppData\Local\Temp\ccZ8Xcmd.s:1305   .text.efuse_flag_get:000000000000002a .L0 
C:\Users\CYMR90~1\AppData\Local\Temp\ccZ8Xcmd.s:1340   .text.efuse_flag_clear:000000000000002c .L0 
C:\Users\CYMR90~1\AppData\Local\Temp\ccZ8Xcmd.s:1375   .text.efuse_interrupt_enable:000000000000002c .L0 
C:\Users\CYMR90~1\AppData\Local\Temp\ccZ8Xcmd.s:1413   .text.efuse_interrupt_disable:0000000000000030 .L0 
C:\Users\CYMR90~1\AppData\Local\Temp\ccZ8Xcmd.s:1455   .text.efuse_interrupt_flag_get:000000000000002a .L0 
C:\Users\CYMR90~1\AppData\Local\Temp\ccZ8Xcmd.s:1490   .text.efuse_interrupt_flag_clear:000000000000002c .L0 
                     .debug_frame:0000000000000000 .L0 
C:\Users\CYMR90~1\AppData\Local\Temp\ccZ8Xcmd.s:46     .text.efuse_read:000000000000003a .L2
C:\Users\CYMR90~1\AppData\Local\Temp\ccZ8Xcmd.s:55     .text.efuse_read:0000000000000052 .L3
C:\Users\CYMR90~1\AppData\Local\Temp\ccZ8Xcmd.s:59     .text.efuse_read:0000000000000056 .L4
C:\Users\CYMR90~1\AppData\Local\Temp\ccZ8Xcmd.s:180    .text.efuse_read:000000000000015e .L5
C:\Users\CYMR90~1\AppData\Local\Temp\ccZ8Xcmd.s:73     .text.efuse_read:0000000000000076 .L6
C:\Users\CYMR90~1\AppData\Local\Temp\ccZ8Xcmd.s:90     .text.efuse_read:0000000000000096 .L7
C:\Users\CYMR90~1\AppData\Local\Temp\ccZ8Xcmd.s:86     .text.efuse_read:0000000000000092 .L8
C:\Users\CYMR90~1\AppData\Local\Temp\ccZ8Xcmd.s:132    .text.efuse_read:00000000000000fc .L9
C:\Users\CYMR90~1\AppData\Local\Temp\ccZ8Xcmd.s:118    .text.efuse_read:00000000000000dc .L10
C:\Users\CYMR90~1\AppData\Local\Temp\ccZ8Xcmd.s:139    .text.efuse_read:0000000000000106 .L11
C:\Users\CYMR90~1\AppData\Local\Temp\ccZ8Xcmd.s:164    .text.efuse_read:0000000000000136 .L12
C:\Users\CYMR90~1\AppData\Local\Temp\ccZ8Xcmd.s:144    .text.efuse_read:000000000000010c .L13
C:\Users\CYMR90~1\AppData\Local\Temp\ccZ8Xcmd.s:231    .text.efuse_write:000000000000003a .L15
C:\Users\CYMR90~1\AppData\Local\Temp\ccZ8Xcmd.s:240    .text.efuse_write:0000000000000052 .L16
C:\Users\CYMR90~1\AppData\Local\Temp\ccZ8Xcmd.s:244    .text.efuse_write:0000000000000056 .L17
C:\Users\CYMR90~1\AppData\Local\Temp\ccZ8Xcmd.s:402    .text.efuse_write:00000000000001c2 .L18
C:\Users\CYMR90~1\AppData\Local\Temp\ccZ8Xcmd.s:256    .text.efuse_write:0000000000000072 .L19
C:\Users\CYMR90~1\AppData\Local\Temp\ccZ8Xcmd.s:270    .text.efuse_write:0000000000000092 .L20
C:\Users\CYMR90~1\AppData\Local\Temp\ccZ8Xcmd.s:286    .text.efuse_write:00000000000000b0 .L21
C:\Users\CYMR90~1\AppData\Local\Temp\ccZ8Xcmd.s:279    .text.efuse_write:000000000000009e .L22
C:\Users\CYMR90~1\AppData\Local\Temp\ccZ8Xcmd.s:338    .text.efuse_write:0000000000000128 .L23
C:\Users\CYMR90~1\AppData\Local\Temp\ccZ8Xcmd.s:319    .text.efuse_write:0000000000000100 .L24
C:\Users\CYMR90~1\AppData\Local\Temp\ccZ8Xcmd.s:365    .text.efuse_write:000000000000016a .L25
C:\Users\CYMR90~1\AppData\Local\Temp\ccZ8Xcmd.s:351    .text.efuse_write:000000000000014c .L26
C:\Users\CYMR90~1\AppData\Local\Temp\ccZ8Xcmd.s:372    .text.efuse_write:0000000000000174 .L27
C:\Users\CYMR90~1\AppData\Local\Temp\ccZ8Xcmd.s:441    .text.efuse_boot_config:000000000000001e .L29
C:\Users\CYMR90~1\AppData\Local\Temp\ccZ8Xcmd.s:448    .text.efuse_boot_config:0000000000000032 .L30
C:\Users\CYMR90~1\AppData\Local\Temp\ccZ8Xcmd.s:487    .text.efuse_control1_config:000000000000001e .L32
C:\Users\CYMR90~1\AppData\Local\Temp\ccZ8Xcmd.s:494    .text.efuse_control1_config:0000000000000032 .L33
C:\Users\CYMR90~1\AppData\Local\Temp\ccZ8Xcmd.s:533    .text.efuse_fp_config:000000000000001e .L35
C:\Users\CYMR90~1\AppData\Local\Temp\ccZ8Xcmd.s:540    .text.efuse_fp_config:0000000000000032 .L36
C:\Users\CYMR90~1\AppData\Local\Temp\ccZ8Xcmd.s:579    .text.efuse_user_control_config:000000000000001e .L38
C:\Users\CYMR90~1\AppData\Local\Temp\ccZ8Xcmd.s:586    .text.efuse_user_control_config:0000000000000032 .L39
C:\Users\CYMR90~1\AppData\Local\Temp\ccZ8Xcmd.s:625    .text.efuse_res_write:000000000000001e .L41
C:\Users\CYMR90~1\AppData\Local\Temp\ccZ8Xcmd.s:632    .text.efuse_res_write:0000000000000032 .L42
C:\Users\CYMR90~1\AppData\Local\Temp\ccZ8Xcmd.s:671    .text.efuse_aes_key_write:000000000000001e .L44
C:\Users\CYMR90~1\AppData\Local\Temp\ccZ8Xcmd.s:678    .text.efuse_aes_key_write:0000000000000032 .L45
C:\Users\CYMR90~1\AppData\Local\Temp\ccZ8Xcmd.s:717    .text.efuse_rotpk_key_write:0000000000000020 .L47
C:\Users\CYMR90~1\AppData\Local\Temp\ccZ8Xcmd.s:724    .text.efuse_rotpk_key_write:0000000000000036 .L48
C:\Users\CYMR90~1\AppData\Local\Temp\ccZ8Xcmd.s:763    .text.efuse_user_data_write:0000000000000020 .L50
C:\Users\CYMR90~1\AppData\Local\Temp\ccZ8Xcmd.s:770    .text.efuse_user_data_write:0000000000000036 .L51
C:\Users\CYMR90~1\AppData\Local\Temp\ccZ8Xcmd.s:826    .text.efuse_res_read:0000000000000040 .L53
C:\Users\CYMR90~1\AppData\Local\Temp\ccZ8Xcmd.s:805    .text.efuse_res_read:0000000000000014 .L54
C:\Users\CYMR90~1\AppData\Local\Temp\ccZ8Xcmd.s:885    .text.efuse_aes_key_read:0000000000000040 .L56
C:\Users\CYMR90~1\AppData\Local\Temp\ccZ8Xcmd.s:864    .text.efuse_aes_key_read:0000000000000014 .L57
C:\Users\CYMR90~1\AppData\Local\Temp\ccZ8Xcmd.s:944    .text.efuse_rotpk_key_read:0000000000000040 .L59
C:\Users\CYMR90~1\AppData\Local\Temp\ccZ8Xcmd.s:923    .text.efuse_rotpk_key_read:0000000000000014 .L60
C:\Users\CYMR90~1\AppData\Local\Temp\ccZ8Xcmd.s:1003   .text.efuse_puid_read:0000000000000040 .L62
C:\Users\CYMR90~1\AppData\Local\Temp\ccZ8Xcmd.s:982    .text.efuse_puid_read:0000000000000014 .L63
C:\Users\CYMR90~1\AppData\Local\Temp\ccZ8Xcmd.s:1062   .text.efuse_huk_key_read:0000000000000040 .L65
C:\Users\CYMR90~1\AppData\Local\Temp\ccZ8Xcmd.s:1041   .text.efuse_huk_key_read:0000000000000014 .L66
C:\Users\CYMR90~1\AppData\Local\Temp\ccZ8Xcmd.s:1121   .text.efuse_user_data_read:0000000000000040 .L68
C:\Users\CYMR90~1\AppData\Local\Temp\ccZ8Xcmd.s:1100   .text.efuse_user_data_read:0000000000000014 .L69
C:\Users\CYMR90~1\AppData\Local\Temp\ccZ8Xcmd.s:1199   .text.efuse_lock_config:0000000000000032 .L73
C:\Users\CYMR90~1\AppData\Local\Temp\ccZ8Xcmd.s:1249   .text.efuse_lock_config:00000000000000ac .L78
C:\Users\CYMR90~1\AppData\Local\Temp\ccZ8Xcmd.s:1212   .text.efuse_lock_config:0000000000000050 .L75
C:\Users\CYMR90~1\AppData\Local\Temp\ccZ8Xcmd.s:1225   .text.efuse_lock_config:0000000000000070 .L76
C:\Users\CYMR90~1\AppData\Local\Temp\ccZ8Xcmd.s:1238   .text.efuse_lock_config:0000000000000090 .L77
C:\Users\CYMR90~1\AppData\Local\Temp\ccZ8Xcmd.s:1290   .text.efuse_flag_get:0000000000000020 .L80
C:\Users\CYMR90~1\AppData\Local\Temp\ccZ8Xcmd.s:1293   .text.efuse_flag_get:0000000000000022 .L81
C:\Users\CYMR90~1\AppData\Local\Temp\ccZ8Xcmd.s:1440   .text.efuse_interrupt_flag_get:0000000000000020 .L86
C:\Users\CYMR90~1\AppData\Local\Temp\ccZ8Xcmd.s:1443   .text.efuse_interrupt_flag_get:0000000000000022 .L87
C:\Users\CYMR90~1\AppData\Local\Temp\ccZ8Xcmd.s:2507   .debug_abbrev:0000000000000000 .Ldebug_abbrev0
C:\Users\CYMR90~1\AppData\Local\Temp\ccZ8Xcmd.s:23426  .debug_str:000000000000acc1 .LASF5636
C:\Users\CYMR90~1\AppData\Local\Temp\ccZ8Xcmd.s:23076  .debug_str:0000000000009672 .LASF5637
C:\Users\CYMR90~1\AppData\Local\Temp\ccZ8Xcmd.s:26346  .debug_str:0000000000016855 .LASF5638
C:\Users\CYMR90~1\AppData\Local\Temp\ccZ8Xcmd.s:3012   .debug_ranges:0000000000000000 .Ldebug_ranges0
C:\Users\CYMR90~1\AppData\Local\Temp\ccZ8Xcmd.s:20700  .debug_line:0000000000000000 .Ldebug_line0
C:\Users\CYMR90~1\AppData\Local\Temp\ccZ8Xcmd.s:3064   .debug_macro:0000000000000000 .Ldebug_macro0
C:\Users\CYMR90~1\AppData\Local\Temp\ccZ8Xcmd.s:31939  .debug_str:000000000002cec8 .LASF5556
C:\Users\CYMR90~1\AppData\Local\Temp\ccZ8Xcmd.s:20720  .debug_str:0000000000000145 .LASF5557
C:\Users\CYMR90~1\AppData\Local\Temp\ccZ8Xcmd.s:21624  .debug_str:0000000000003970 .LASF5558
C:\Users\CYMR90~1\AppData\Local\Temp\ccZ8Xcmd.s:26805  .debug_str:0000000000018623 .LASF5559
C:\Users\CYMR90~1\AppData\Local\Temp\ccZ8Xcmd.s:22910  .debug_str:0000000000008cc6 .LASF5564
C:\Users\CYMR90~1\AppData\Local\Temp\ccZ8Xcmd.s:26258  .debug_str:000000000001626f .LASF5560
C:\Users\CYMR90~1\AppData\Local\Temp\ccZ8Xcmd.s:28125  .debug_str:000000000001dd94 .LASF5561
C:\Users\CYMR90~1\AppData\Local\Temp\ccZ8Xcmd.s:25726  .debug_str:000000000001417f .LASF5562
C:\Users\CYMR90~1\AppData\Local\Temp\ccZ8Xcmd.s:28537  .debug_str:000000000001f615 .LASF5563
C:\Users\CYMR90~1\AppData\Local\Temp\ccZ8Xcmd.s:27013  .debug_str:000000000001944e .LASF5565
C:\Users\CYMR90~1\AppData\Local\Temp\ccZ8Xcmd.s:20830  .debug_str:0000000000000776 .LASF5566
C:\Users\CYMR90~1\AppData\Local\Temp\ccZ8Xcmd.s:30097  .debug_str:00000000000258ca .LASF5567
C:\Users\CYMR90~1\AppData\Local\Temp\ccZ8Xcmd.s:28559  .debug_str:000000000001f77f .LASF855
C:\Users\CYMR90~1\AppData\Local\Temp\ccZ8Xcmd.s:26022  .debug_str:00000000000153c9 .LASF5568
C:\Users\CYMR90~1\AppData\Local\Temp\ccZ8Xcmd.s:30213  .debug_str:0000000000025fdd .LASF5569
C:\Users\CYMR90~1\AppData\Local\Temp\ccZ8Xcmd.s:29787  .debug_str:00000000000242d3 .LASF5570
C:\Users\CYMR90~1\AppData\Local\Temp\ccZ8Xcmd.s:23280  .debug_str:000000000000a3c9 .LASF5571
C:\Users\CYMR90~1\AppData\Local\Temp\ccZ8Xcmd.s:28335  .debug_str:000000000001e9e9 .LASF5572
C:\Users\CYMR90~1\AppData\Local\Temp\ccZ8Xcmd.s:25574  .debug_str:0000000000013848 .LASF5573
C:\Users\CYMR90~1\AppData\Local\Temp\ccZ8Xcmd.s:31915  .debug_str:000000000002cd37 .LASF5574
C:\Users\CYMR90~1\AppData\Local\Temp\ccZ8Xcmd.s:20742  .debug_str:000000000000027c .LASF5575
C:\Users\CYMR90~1\AppData\Local\Temp\ccZ8Xcmd.s:30895  .debug_str:0000000000028bbc .LASF5576
C:\Users\CYMR90~1\AppData\Local\Temp\ccZ8Xcmd.s:29557  .debug_str:00000000000233c8 .LASF5577
C:\Users\CYMR90~1\AppData\Local\Temp\ccZ8Xcmd.s:21234  .debug_str:0000000000002003 .LASF5578
C:\Users\CYMR90~1\AppData\Local\Temp\ccZ8Xcmd.s:21872  .debug_str:0000000000004a09 .LASF5579
C:\Users\CYMR90~1\AppData\Local\Temp\ccZ8Xcmd.s:27531  .debug_str:000000000001b723 .LASF5580
C:\Users\CYMR90~1\AppData\Local\Temp\ccZ8Xcmd.s:23290  .debug_str:000000000000a42d .LASF5581
C:\Users\CYMR90~1\AppData\Local\Temp\ccZ8Xcmd.s:26451  .debug_str:0000000000017106 .LASF5582
C:\Users\CYMR90~1\AppData\Local\Temp\ccZ8Xcmd.s:27127  .debug_str:0000000000019c0d .LASF5583
C:\Users\CYMR90~1\AppData\Local\Temp\ccZ8Xcmd.s:27337  .debug_str:000000000001aac0 .LASF5584
C:\Users\CYMR90~1\AppData\Local\Temp\ccZ8Xcmd.s:31731  .debug_str:000000000002c0c8 .LASF5585
C:\Users\CYMR90~1\AppData\Local\Temp\ccZ8Xcmd.s:29173  .debug_str:0000000000021d77 .LASF5586
C:\Users\CYMR90~1\AppData\Local\Temp\ccZ8Xcmd.s:29715  .debug_str:0000000000023d42 .LASF5587
C:\Users\CYMR90~1\AppData\Local\Temp\ccZ8Xcmd.s:27409  .debug_str:000000000001af62 .LASF5588
C:\Users\CYMR90~1\AppData\Local\Temp\ccZ8Xcmd.s:23514  .debug_str:000000000000b291 .LASF5589
C:\Users\CYMR90~1\AppData\Local\Temp\ccZ8Xcmd.s:27285  .debug_str:000000000001a768 .LASF5590
C:\Users\CYMR90~1\AppData\Local\Temp\ccZ8Xcmd.s:27581  .debug_str:000000000001b993 .LASF5591
C:\Users\CYMR90~1\AppData\Local\Temp\ccZ8Xcmd.s:27407  .debug_str:000000000001af53 .LASF5592
C:\Users\CYMR90~1\AppData\Local\Temp\ccZ8Xcmd.s:29781  .debug_str:0000000000024282 .LASF5593
C:\Users\CYMR90~1\AppData\Local\Temp\ccZ8Xcmd.s:26250  .debug_str:0000000000016202 .LASF5594
C:\Users\CYMR90~1\AppData\Local\Temp\ccZ8Xcmd.s:30823  .debug_str:00000000000287a9 .LASF5595
C:\Users\CYMR90~1\AppData\Local\Temp\ccZ8Xcmd.s:22434  .debug_str:0000000000006c7c .LASF5596
C:\Users\CYMR90~1\AppData\Local\Temp\ccZ8Xcmd.s:31531  .debug_str:000000000002b330 .LASF5597
C:\Users\CYMR90~1\AppData\Local\Temp\ccZ8Xcmd.s:25694  .debug_str:0000000000013f8c .LASF5598
C:\Users\CYMR90~1\AppData\Local\Temp\ccZ8Xcmd.s:22792  .debug_str:00000000000084d9 .LASF5599
C:\Users\CYMR90~1\AppData\Local\Temp\ccZ8Xcmd.s:27727  .debug_str:000000000001c2b6 .LASF5600
C:\Users\CYMR90~1\AppData\Local\Temp\ccZ8Xcmd.s:29411  .debug_str:0000000000022b69 .LASF5602
C:\Users\CYMR90~1\AppData\Local\Temp\ccZ8Xcmd.s:1460   .text.efuse_interrupt_flag_clear:0000000000000000 .LFB370
C:\Users\CYMR90~1\AppData\Local\Temp\ccZ8Xcmd.s:1488   .text.efuse_interrupt_flag_clear:000000000000002c .LFE370
C:\Users\CYMR90~1\AppData\Local\Temp\ccZ8Xcmd.s:25762  .debug_str:0000000000014365 .LASF5601
C:\Users\CYMR90~1\AppData\Local\Temp\ccZ8Xcmd.s:29115  .debug_str:00000000000219e6 .LASF5608
C:\Users\CYMR90~1\AppData\Local\Temp\ccZ8Xcmd.s:1418   .text.efuse_interrupt_flag_get:0000000000000000 .LFB369
C:\Users\CYMR90~1\AppData\Local\Temp\ccZ8Xcmd.s:1453   .text.efuse_interrupt_flag_get:000000000000002a .LFE369
C:\Users\CYMR90~1\AppData\Local\Temp\ccZ8Xcmd.s:24090  .debug_str:000000000000d981 .LASF5603
C:\Users\CYMR90~1\AppData\Local\Temp\ccZ8Xcmd.s:1380   .text.efuse_interrupt_disable:0000000000000000 .LFB368
C:\Users\CYMR90~1\AppData\Local\Temp\ccZ8Xcmd.s:1411   .text.efuse_interrupt_disable:0000000000000030 .LFE368
C:\Users\CYMR90~1\AppData\Local\Temp\ccZ8Xcmd.s:27755  .debug_str:000000000001c425 .LASF5604
C:\Users\CYMR90~1\AppData\Local\Temp\ccZ8Xcmd.s:23342  .debug_str:000000000000a73f .LASF5605
C:\Users\CYMR90~1\AppData\Local\Temp\ccZ8Xcmd.s:1345   .text.efuse_interrupt_enable:0000000000000000 .LFB367
C:\Users\CYMR90~1\AppData\Local\Temp\ccZ8Xcmd.s:1373   .text.efuse_interrupt_enable:000000000000002c .LFE367
C:\Users\CYMR90~1\AppData\Local\Temp\ccZ8Xcmd.s:27997  .debug_str:000000000001d563 .LASF5606
C:\Users\CYMR90~1\AppData\Local\Temp\ccZ8Xcmd.s:1310   .text.efuse_flag_clear:0000000000000000 .LFB366
C:\Users\CYMR90~1\AppData\Local\Temp\ccZ8Xcmd.s:1338   .text.efuse_flag_clear:000000000000002c .LFE366
C:\Users\CYMR90~1\AppData\Local\Temp\ccZ8Xcmd.s:23268  .debug_str:000000000000a2f9 .LASF5607
C:\Users\CYMR90~1\AppData\Local\Temp\ccZ8Xcmd.s:29409  .debug_str:0000000000022b5a .LASF5609
C:\Users\CYMR90~1\AppData\Local\Temp\ccZ8Xcmd.s:1268   .text.efuse_flag_get:0000000000000000 .LFB365
C:\Users\CYMR90~1\AppData\Local\Temp\ccZ8Xcmd.s:1303   .text.efuse_flag_get:000000000000002a .LFE365
C:\Users\CYMR90~1\AppData\Local\Temp\ccZ8Xcmd.s:27903  .debug_str:000000000001cf5a .LASF5610
C:\Users\CYMR90~1\AppData\Local\Temp\ccZ8Xcmd.s:1172   .text.efuse_lock_config:0000000000000000 .LFB364
C:\Users\CYMR90~1\AppData\Local\Temp\ccZ8Xcmd.s:1261   .text.efuse_lock_config:00000000000000b6 .LFE364
C:\Users\CYMR90~1\AppData\Local\Temp\ccZ8Xcmd.s:26855  .debug_str:0000000000018964 .LASF5612
C:\Users\CYMR90~1\AppData\Local\Temp\ccZ8Xcmd.s:21668  .debug_str:0000000000003c1d .LASF5639
C:\Users\CYMR90~1\AppData\Local\Temp\ccZ8Xcmd.s:1143   .text.efuse_boot_address_get:0000000000000000 .LFB363
C:\Users\CYMR90~1\AppData\Local\Temp\ccZ8Xcmd.s:1165   .text.efuse_boot_address_get:0000000000000018 .LFE363
C:\Users\CYMR90~1\AppData\Local\Temp\ccZ8Xcmd.s:28695  .debug_str:000000000001ffb6 .LASF5611
C:\Users\CYMR90~1\AppData\Local\Temp\ccZ8Xcmd.s:1084   .text.efuse_user_data_read:0000000000000000 .LFB362
C:\Users\CYMR90~1\AppData\Local\Temp\ccZ8Xcmd.s:1136   .text.efuse_user_data_read:0000000000000054 .LFE362
C:\Users\CYMR90~1\AppData\Local\Temp\ccZ8Xcmd.s:29483  .debug_str:0000000000022f40 .LASF5613
C:\Users\CYMR90~1\AppData\Local\Temp\ccZ8Xcmd.s:1025   .text.efuse_huk_key_read:0000000000000000 .LFB361
C:\Users\CYMR90~1\AppData\Local\Temp\ccZ8Xcmd.s:1077   .text.efuse_huk_key_read:0000000000000054 .LFE361
C:\Users\CYMR90~1\AppData\Local\Temp\ccZ8Xcmd.s:23244  .debug_str:000000000000a165 .LASF5614
C:\Users\CYMR90~1\AppData\Local\Temp\ccZ8Xcmd.s:966    .text.efuse_puid_read:0000000000000000 .LFB360
C:\Users\CYMR90~1\AppData\Local\Temp\ccZ8Xcmd.s:1018   .text.efuse_puid_read:0000000000000054 .LFE360
C:\Users\CYMR90~1\AppData\Local\Temp\ccZ8Xcmd.s:24788  .debug_str:00000000000104b0 .LASF5615
C:\Users\CYMR90~1\AppData\Local\Temp\ccZ8Xcmd.s:907    .text.efuse_rotpk_key_read:0000000000000000 .LFB359
C:\Users\CYMR90~1\AppData\Local\Temp\ccZ8Xcmd.s:959    .text.efuse_rotpk_key_read:0000000000000054 .LFE359
C:\Users\CYMR90~1\AppData\Local\Temp\ccZ8Xcmd.s:30521  .debug_str:0000000000027374 .LASF5616
C:\Users\CYMR90~1\AppData\Local\Temp\ccZ8Xcmd.s:848    .text.efuse_aes_key_read:0000000000000000 .LFB358
C:\Users\CYMR90~1\AppData\Local\Temp\ccZ8Xcmd.s:900    .text.efuse_aes_key_read:0000000000000054 .LFE358
C:\Users\CYMR90~1\AppData\Local\Temp\ccZ8Xcmd.s:27231  .debug_str:000000000001a3a6 .LASF5617
C:\Users\CYMR90~1\AppData\Local\Temp\ccZ8Xcmd.s:789    .text.efuse_res_read:0000000000000000 .LFB357
C:\Users\CYMR90~1\AppData\Local\Temp\ccZ8Xcmd.s:841    .text.efuse_res_read:0000000000000054 .LFE357
C:\Users\CYMR90~1\AppData\Local\Temp\ccZ8Xcmd.s:29117  .debug_str:00000000000219ff .LASF5618
C:\Users\CYMR90~1\AppData\Local\Temp\ccZ8Xcmd.s:743    .text.efuse_user_data_write:0000000000000000 .LFB356
C:\Users\CYMR90~1\AppData\Local\Temp\ccZ8Xcmd.s:782    .text.efuse_user_data_write:0000000000000040 .LFE356
C:\Users\CYMR90~1\AppData\Local\Temp\ccZ8Xcmd.s:22046  .debug_str:000000000000545a .LASF5619
C:\Users\CYMR90~1\AppData\Local\Temp\ccZ8Xcmd.s:29317  .debug_str:00000000000225c9 .LASF5620
C:\Users\CYMR90~1\AppData\Local\Temp\ccZ8Xcmd.s:697    .text.efuse_rotpk_key_write:0000000000000000 .LFB355
C:\Users\CYMR90~1\AppData\Local\Temp\ccZ8Xcmd.s:736    .text.efuse_rotpk_key_write:0000000000000040 .LFE355
C:\Users\CYMR90~1\AppData\Local\Temp\ccZ8Xcmd.s:26465  .debug_str:00000000000171c3 .LASF5621
C:\Users\CYMR90~1\AppData\Local\Temp\ccZ8Xcmd.s:651    .text.efuse_aes_key_write:0000000000000000 .LFB354
C:\Users\CYMR90~1\AppData\Local\Temp\ccZ8Xcmd.s:690    .text.efuse_aes_key_write:000000000000003c .LFE354
C:\Users\CYMR90~1\AppData\Local\Temp\ccZ8Xcmd.s:23690  .debug_str:000000000000bf0a .LASF5622
C:\Users\CYMR90~1\AppData\Local\Temp\ccZ8Xcmd.s:605    .text.efuse_res_write:0000000000000000 .LFB353
C:\Users\CYMR90~1\AppData\Local\Temp\ccZ8Xcmd.s:644    .text.efuse_res_write:000000000000003c .LFE353
C:\Users\CYMR90~1\AppData\Local\Temp\ccZ8Xcmd.s:26651  .debug_str:0000000000017d21 .LASF5623
C:\Users\CYMR90~1\AppData\Local\Temp\ccZ8Xcmd.s:559    .text.efuse_user_control_config:0000000000000000 .LFB352
C:\Users\CYMR90~1\AppData\Local\Temp\ccZ8Xcmd.s:598    .text.efuse_user_control_config:000000000000003c .LFE352
C:\Users\CYMR90~1\AppData\Local\Temp\ccZ8Xcmd.s:29207  .debug_str:0000000000021f6e .LASF5624
C:\Users\CYMR90~1\AppData\Local\Temp\ccZ8Xcmd.s:21968  .debug_str:0000000000004fcc .LASF5625
C:\Users\CYMR90~1\AppData\Local\Temp\ccZ8Xcmd.s:513    .text.efuse_fp_config:0000000000000000 .LFB351
C:\Users\CYMR90~1\AppData\Local\Temp\ccZ8Xcmd.s:552    .text.efuse_fp_config:000000000000003c .LFE351
C:\Users\CYMR90~1\AppData\Local\Temp\ccZ8Xcmd.s:20832  .debug_str:0000000000000788 .LASF5626
C:\Users\CYMR90~1\AppData\Local\Temp\ccZ8Xcmd.s:24166  .debug_str:000000000000de0f .LASF5627
C:\Users\CYMR90~1\AppData\Local\Temp\ccZ8Xcmd.s:467    .text.efuse_control1_config:0000000000000000 .LFB350
C:\Users\CYMR90~1\AppData\Local\Temp\ccZ8Xcmd.s:506    .text.efuse_control1_config:000000000000003c .LFE350
C:\Users\CYMR90~1\AppData\Local\Temp\ccZ8Xcmd.s:28795  .debug_str:0000000000020651 .LASF5628
C:\Users\CYMR90~1\AppData\Local\Temp\ccZ8Xcmd.s:421    .text.efuse_boot_config:0000000000000000 .LFB349
C:\Users\CYMR90~1\AppData\Local\Temp\ccZ8Xcmd.s:460    .text.efuse_boot_config:000000000000003c .LFE349
C:\Users\CYMR90~1\AppData\Local\Temp\ccZ8Xcmd.s:27123  .debug_str:0000000000019bde .LASF5629
C:\Users\CYMR90~1\AppData\Local\Temp\ccZ8Xcmd.s:20746  .debug_str:00000000000002af .LASF5630
C:\Users\CYMR90~1\AppData\Local\Temp\ccZ8Xcmd.s:199    .text.efuse_write:0000000000000000 .LFB348
C:\Users\CYMR90~1\AppData\Local\Temp\ccZ8Xcmd.s:414    .text.efuse_write:00000000000001cc .LFE348
C:\Users\CYMR90~1\AppData\Local\Temp\ccZ8Xcmd.s:21740  .debug_str:0000000000004128 .LASF5631
C:\Users\CYMR90~1\AppData\Local\Temp\ccZ8Xcmd.s:31415  .debug_str:000000000002abb1 .LASF5632
C:\Users\CYMR90~1\AppData\Local\Temp\ccZ8Xcmd.s:28295  .debug_str:000000000001e7c2 .LASF5633
C:\Users\CYMR90~1\AppData\Local\Temp\ccZ8Xcmd.s:26138  .debug_str:0000000000015ad2 .LASF5634
C:\Users\CYMR90~1\AppData\Local\Temp\ccZ8Xcmd.s:26174  .debug_str:0000000000015d26 .LASF5635
C:\Users\CYMR90~1\AppData\Local\Temp\ccZ8Xcmd.s:14     .text.efuse_read:0000000000000000 .LFB347
C:\Users\CYMR90~1\AppData\Local\Temp\ccZ8Xcmd.s:192    .text.efuse_read:0000000000000168 .LFE347
C:\Users\CYMR90~1\AppData\Local\Temp\ccZ8Xcmd.s:1497   .debug_info:0000000000000000 .Ldebug_info0
C:\Users\CYMR90~1\AppData\Local\Temp\ccZ8Xcmd.s:3685   .debug_macro:0000000000000000 .Ldebug_macro2
C:\Users\CYMR90~1\AppData\Local\Temp\ccZ8Xcmd.s:22026  .debug_str:000000000000535c .LASF314
C:\Users\CYMR90~1\AppData\Local\Temp\ccZ8Xcmd.s:26427  .debug_str:0000000000016fa0 .LASF315
C:\Users\CYMR90~1\AppData\Local\Temp\ccZ8Xcmd.s:4632   .debug_macro:0000000000000000 .Ldebug_macro3
C:\Users\CYMR90~1\AppData\Local\Temp\ccZ8Xcmd.s:22858  .debug_str:000000000000891a .LASF369
C:\Users\CYMR90~1\AppData\Local\Temp\ccZ8Xcmd.s:22420  .debug_str:0000000000006b92 .LASF370
C:\Users\CYMR90~1\AppData\Local\Temp\ccZ8Xcmd.s:26681  .debug_str:0000000000017ed4 .LASF371
C:\Users\CYMR90~1\AppData\Local\Temp\ccZ8Xcmd.s:4796   .debug_macro:0000000000000000 .Ldebug_macro4
C:\Users\CYMR90~1\AppData\Local\Temp\ccZ8Xcmd.s:4816   .debug_macro:0000000000000000 .Ldebug_macro5
C:\Users\CYMR90~1\AppData\Local\Temp\ccZ8Xcmd.s:25322  .debug_str:0000000000012780 .LASF390
C:\Users\CYMR90~1\AppData\Local\Temp\ccZ8Xcmd.s:4860   .debug_macro:0000000000000000 .Ldebug_macro6
C:\Users\CYMR90~1\AppData\Local\Temp\ccZ8Xcmd.s:4874   .debug_macro:0000000000000000 .Ldebug_macro7
C:\Users\CYMR90~1\AppData\Local\Temp\ccZ8Xcmd.s:4942   .debug_macro:0000000000000000 .Ldebug_macro8
C:\Users\CYMR90~1\AppData\Local\Temp\ccZ8Xcmd.s:4968   .debug_macro:0000000000000000 .Ldebug_macro9
C:\Users\CYMR90~1\AppData\Local\Temp\ccZ8Xcmd.s:4997   .debug_macro:0000000000000000 .Ldebug_macro10
C:\Users\CYMR90~1\AppData\Local\Temp\ccZ8Xcmd.s:26817  .debug_str:0000000000018704 .LASF433
C:\Users\CYMR90~1\AppData\Local\Temp\ccZ8Xcmd.s:5011   .debug_macro:0000000000000000 .Ldebug_macro11
C:\Users\CYMR90~1\AppData\Local\Temp\ccZ8Xcmd.s:5055   .debug_macro:0000000000000000 .Ldebug_macro12
C:\Users\CYMR90~1\AppData\Local\Temp\ccZ8Xcmd.s:5081   .debug_macro:0000000000000000 .Ldebug_macro13
C:\Users\CYMR90~1\AppData\Local\Temp\ccZ8Xcmd.s:30373  .debug_str:00000000000269bc .LASF569
C:\Users\CYMR90~1\AppData\Local\Temp\ccZ8Xcmd.s:5452   .debug_macro:0000000000000000 .Ldebug_macro14
C:\Users\CYMR90~1\AppData\Local\Temp\ccZ8Xcmd.s:24850  .debug_str:000000000001083d .LASF572
C:\Users\CYMR90~1\AppData\Local\Temp\ccZ8Xcmd.s:29711  .debug_str:0000000000023d1b .LASF573
C:\Users\CYMR90~1\AppData\Local\Temp\ccZ8Xcmd.s:5463   .debug_macro:0000000000000000 .Ldebug_macro15
C:\Users\CYMR90~1\AppData\Local\Temp\ccZ8Xcmd.s:5477   .debug_macro:0000000000000000 .Ldebug_macro16
C:\Users\CYMR90~1\AppData\Local\Temp\ccZ8Xcmd.s:22588  .debug_str:0000000000007698 .LASF578
C:\Users\CYMR90~1\AppData\Local\Temp\ccZ8Xcmd.s:5509   .debug_macro:0000000000000000 .Ldebug_macro17
C:\Users\CYMR90~1\AppData\Local\Temp\ccZ8Xcmd.s:5535   .debug_macro:0000000000000000 .Ldebug_macro18
C:\Users\CYMR90~1\AppData\Local\Temp\ccZ8Xcmd.s:5546   .debug_macro:0000000000000000 .Ldebug_macro19
C:\Users\CYMR90~1\AppData\Local\Temp\ccZ8Xcmd.s:5590   .debug_macro:0000000000000000 .Ldebug_macro20
C:\Users\CYMR90~1\AppData\Local\Temp\ccZ8Xcmd.s:5760   .debug_macro:0000000000000000 .Ldebug_macro21
C:\Users\CYMR90~1\AppData\Local\Temp\ccZ8Xcmd.s:5771   .debug_macro:0000000000000000 .Ldebug_macro22
C:\Users\CYMR90~1\AppData\Local\Temp\ccZ8Xcmd.s:25328  .debug_str:00000000000127d9 .LASF675
C:\Users\CYMR90~1\AppData\Local\Temp\ccZ8Xcmd.s:5827   .debug_macro:0000000000000000 .Ldebug_macro23
C:\Users\CYMR90~1\AppData\Local\Temp\ccZ8Xcmd.s:5844   .debug_macro:0000000000000000 .Ldebug_macro24
C:\Users\CYMR90~1\AppData\Local\Temp\ccZ8Xcmd.s:28529  .debug_str:000000000001f5a5 .LASF693
C:\Users\CYMR90~1\AppData\Local\Temp\ccZ8Xcmd.s:26687  .debug_str:0000000000017f05 .LASF694
C:\Users\CYMR90~1\AppData\Local\Temp\ccZ8Xcmd.s:5888   .debug_macro:0000000000000000 .Ldebug_macro25
C:\Users\CYMR90~1\AppData\Local\Temp\ccZ8Xcmd.s:21886  .debug_str:0000000000004ae1 .LASF700
C:\Users\CYMR90~1\AppData\Local\Temp\ccZ8Xcmd.s:23002  .debug_str:00000000000091fe .LASF701
C:\Users\CYMR90~1\AppData\Local\Temp\ccZ8Xcmd.s:5908   .debug_macro:0000000000000000 .Ldebug_macro26
C:\Users\CYMR90~1\AppData\Local\Temp\ccZ8Xcmd.s:5919   .debug_macro:0000000000000000 .Ldebug_macro27
C:\Users\CYMR90~1\AppData\Local\Temp\ccZ8Xcmd.s:5963   .debug_macro:0000000000000000 .Ldebug_macro28
C:\Users\CYMR90~1\AppData\Local\Temp\ccZ8Xcmd.s:29133  .debug_str:0000000000021b01 .LASF749
C:\Users\CYMR90~1\AppData\Local\Temp\ccZ8Xcmd.s:6064   .debug_macro:0000000000000000 .Ldebug_macro29
C:\Users\CYMR90~1\AppData\Local\Temp\ccZ8Xcmd.s:6081   .debug_macro:0000000000000000 .Ldebug_macro30
C:\Users\CYMR90~1\AppData\Local\Temp\ccZ8Xcmd.s:20770  .debug_str:0000000000000410 .LASF763
C:\Users\CYMR90~1\AppData\Local\Temp\ccZ8Xcmd.s:22060  .debug_str:0000000000005552 .LASF764
C:\Users\CYMR90~1\AppData\Local\Temp\ccZ8Xcmd.s:6113   .debug_macro:0000000000000000 .Ldebug_macro31
C:\Users\CYMR90~1\AppData\Local\Temp\ccZ8Xcmd.s:6127   .debug_macro:0000000000000000 .Ldebug_macro32
C:\Users\CYMR90~1\AppData\Local\Temp\ccZ8Xcmd.s:6297   .debug_macro:0000000000000000 .Ldebug_macro33
C:\Users\CYMR90~1\AppData\Local\Temp\ccZ8Xcmd.s:24512  .debug_str:000000000000f316 .LASF850
C:\Users\CYMR90~1\AppData\Local\Temp\ccZ8Xcmd.s:26905  .debug_str:0000000000018d24 .LASF851
C:\Users\CYMR90~1\AppData\Local\Temp\ccZ8Xcmd.s:6383   .debug_macro:0000000000000000 .Ldebug_macro34
C:\Users\CYMR90~1\AppData\Local\Temp\ccZ8Xcmd.s:6508   .debug_macro:0000000000000000 .Ldebug_macro35
C:\Users\CYMR90~1\AppData\Local\Temp\ccZ8Xcmd.s:21042  .debug_str:0000000000001468 .LASF951
C:\Users\CYMR90~1\AppData\Local\Temp\ccZ8Xcmd.s:6720   .debug_macro:0000000000000000 .Ldebug_macro36
C:\Users\CYMR90~1\AppData\Local\Temp\ccZ8Xcmd.s:22744  .debug_str:0000000000008226 .LASF957
C:\Users\CYMR90~1\AppData\Local\Temp\ccZ8Xcmd.s:22298  .debug_str:00000000000063ca .LASF958
C:\Users\CYMR90~1\AppData\Local\Temp\ccZ8Xcmd.s:21200  .debug_str:0000000000001e70 .LASF959
C:\Users\CYMR90~1\AppData\Local\Temp\ccZ8Xcmd.s:6740   .debug_macro:0000000000000000 .Ldebug_macro37
C:\Users\CYMR90~1\AppData\Local\Temp\ccZ8Xcmd.s:6832   .debug_macro:0000000000000000 .Ldebug_macro38
C:\Users\CYMR90~1\AppData\Local\Temp\ccZ8Xcmd.s:8478   .debug_macro:0000000000000000 .Ldebug_macro39
C:\Users\CYMR90~1\AppData\Local\Temp\ccZ8Xcmd.s:8570   .debug_macro:0000000000000000 .Ldebug_macro40
C:\Users\CYMR90~1\AppData\Local\Temp\ccZ8Xcmd.s:8626   .debug_macro:0000000000000000 .Ldebug_macro41
C:\Users\CYMR90~1\AppData\Local\Temp\ccZ8Xcmd.s:8640   .debug_macro:0000000000000000 .Ldebug_macro42
C:\Users\CYMR90~1\AppData\Local\Temp\ccZ8Xcmd.s:26220  .debug_str:0000000000016046 .LASF1655
C:\Users\CYMR90~1\AppData\Local\Temp\ccZ8Xcmd.s:23124  .debug_str:0000000000009a15 .LASF1656
C:\Users\CYMR90~1\AppData\Local\Temp\ccZ8Xcmd.s:8864   .debug_macro:0000000000000000 .Ldebug_macro43
C:\Users\CYMR90~1\AppData\Local\Temp\ccZ8Xcmd.s:8911   .debug_macro:0000000000000000 .Ldebug_macro44
C:\Users\CYMR90~1\AppData\Local\Temp\ccZ8Xcmd.s:9066   .debug_macro:0000000000000000 .Ldebug_macro45
C:\Users\CYMR90~1\AppData\Local\Temp\ccZ8Xcmd.s:9122   .debug_macro:0000000000000000 .Ldebug_macro46
C:\Users\CYMR90~1\AppData\Local\Temp\ccZ8Xcmd.s:9133   .debug_macro:0000000000000000 .Ldebug_macro47
C:\Users\CYMR90~1\AppData\Local\Temp\ccZ8Xcmd.s:31167  .debug_str:0000000000029d03 .LASF1782
C:\Users\CYMR90~1\AppData\Local\Temp\ccZ8Xcmd.s:25980  .debug_str:000000000001518e .LASF1783
C:\Users\CYMR90~1\AppData\Local\Temp\ccZ8Xcmd.s:9264   .debug_macro:0000000000000000 .Ldebug_macro48
C:\Users\CYMR90~1\AppData\Local\Temp\ccZ8Xcmd.s:9836   .debug_macro:0000000000000000 .Ldebug_macro49
C:\Users\CYMR90~1\AppData\Local\Temp\ccZ8Xcmd.s:10123  .debug_macro:0000000000000000 .Ldebug_macro50
C:\Users\CYMR90~1\AppData\Local\Temp\ccZ8Xcmd.s:10152  .debug_macro:0000000000000000 .Ldebug_macro51
C:\Users\CYMR90~1\AppData\Local\Temp\ccZ8Xcmd.s:10229  .debug_macro:0000000000000000 .Ldebug_macro52
C:\Users\CYMR90~1\AppData\Local\Temp\ccZ8Xcmd.s:10762  .debug_macro:0000000000000000 .Ldebug_macro53
C:\Users\CYMR90~1\AppData\Local\Temp\ccZ8Xcmd.s:10785  .debug_macro:0000000000000000 .Ldebug_macro54
C:\Users\CYMR90~1\AppData\Local\Temp\ccZ8Xcmd.s:11264  .debug_macro:0000000000000000 .Ldebug_macro55
C:\Users\CYMR90~1\AppData\Local\Temp\ccZ8Xcmd.s:11593  .debug_macro:0000000000000000 .Ldebug_macro56
C:\Users\CYMR90~1\AppData\Local\Temp\ccZ8Xcmd.s:11682  .debug_macro:0000000000000000 .Ldebug_macro57
C:\Users\CYMR90~1\AppData\Local\Temp\ccZ8Xcmd.s:12497  .debug_macro:0000000000000000 .Ldebug_macro58
C:\Users\CYMR90~1\AppData\Local\Temp\ccZ8Xcmd.s:12688  .debug_macro:0000000000000000 .Ldebug_macro59
C:\Users\CYMR90~1\AppData\Local\Temp\ccZ8Xcmd.s:13191  .debug_macro:0000000000000000 .Ldebug_macro60
C:\Users\CYMR90~1\AppData\Local\Temp\ccZ8Xcmd.s:13337  .debug_macro:0000000000000000 .Ldebug_macro61
C:\Users\CYMR90~1\AppData\Local\Temp\ccZ8Xcmd.s:13867  .debug_macro:0000000000000000 .Ldebug_macro62
C:\Users\CYMR90~1\AppData\Local\Temp\ccZ8Xcmd.s:14289  .debug_macro:0000000000000000 .Ldebug_macro63
C:\Users\CYMR90~1\AppData\Local\Temp\ccZ8Xcmd.s:17063  .debug_macro:0000000000000000 .Ldebug_macro64
C:\Users\CYMR90~1\AppData\Local\Temp\ccZ8Xcmd.s:18139  .debug_macro:0000000000000000 .Ldebug_macro65
C:\Users\CYMR90~1\AppData\Local\Temp\ccZ8Xcmd.s:18408  .debug_macro:0000000000000000 .Ldebug_macro66
C:\Users\CYMR90~1\AppData\Local\Temp\ccZ8Xcmd.s:18680  .debug_macro:0000000000000000 .Ldebug_macro67
C:\Users\CYMR90~1\AppData\Local\Temp\ccZ8Xcmd.s:19708  .debug_macro:0000000000000000 .Ldebug_macro68
C:\Users\CYMR90~1\AppData\Local\Temp\ccZ8Xcmd.s:19752  .debug_macro:0000000000000000 .Ldebug_macro69
C:\Users\CYMR90~1\AppData\Local\Temp\ccZ8Xcmd.s:20378  .debug_macro:0000000000000000 .Ldebug_macro70
C:\Users\CYMR90~1\AppData\Local\Temp\ccZ8Xcmd.s:20437  .debug_macro:0000000000000000 .Ldebug_macro71
C:\Users\CYMR90~1\AppData\Local\Temp\ccZ8Xcmd.s:22044  .debug_str:000000000000544f .LASF0
C:\Users\CYMR90~1\AppData\Local\Temp\ccZ8Xcmd.s:26409  .debug_str:0000000000016e99 .LASF1
C:\Users\CYMR90~1\AppData\Local\Temp\ccZ8Xcmd.s:24674  .debug_str:000000000000fdd4 .LASF2
C:\Users\CYMR90~1\AppData\Local\Temp\ccZ8Xcmd.s:24734  .debug_str:0000000000010162 .LASF3
C:\Users\CYMR90~1\AppData\Local\Temp\ccZ8Xcmd.s:26026  .debug_str:00000000000153e7 .LASF4
C:\Users\CYMR90~1\AppData\Local\Temp\ccZ8Xcmd.s:31561  .debug_str:000000000002b53e .LASF5
C:\Users\CYMR90~1\AppData\Local\Temp\ccZ8Xcmd.s:22272  .debug_str:0000000000006260 .LASF6
C:\Users\CYMR90~1\AppData\Local\Temp\ccZ8Xcmd.s:30883  .debug_str:0000000000028b1f .LASF7
C:\Users\CYMR90~1\AppData\Local\Temp\ccZ8Xcmd.s:29827  .debug_str:0000000000024557 .LASF8
C:\Users\CYMR90~1\AppData\Local\Temp\ccZ8Xcmd.s:27745  .debug_str:000000000001c395 .LASF9
C:\Users\CYMR90~1\AppData\Local\Temp\ccZ8Xcmd.s:27097  .debug_str:0000000000019a53 .LASF10
C:\Users\CYMR90~1\AppData\Local\Temp\ccZ8Xcmd.s:26957  .debug_str:00000000000190fe .LASF11
C:\Users\CYMR90~1\AppData\Local\Temp\ccZ8Xcmd.s:31407  .debug_str:000000000002ab53 .LASF12
C:\Users\CYMR90~1\AppData\Local\Temp\ccZ8Xcmd.s:26969  .debug_str:00000000000191b2 .LASF13
C:\Users\CYMR90~1\AppData\Local\Temp\ccZ8Xcmd.s:23284  .debug_str:000000000000a3f3 .LASF14
C:\Users\CYMR90~1\AppData\Local\Temp\ccZ8Xcmd.s:28321  .debug_str:000000000001e936 .LASF15
C:\Users\CYMR90~1\AppData\Local\Temp\ccZ8Xcmd.s:29071  .debug_str:0000000000021738 .LASF16
C:\Users\CYMR90~1\AppData\Local\Temp\ccZ8Xcmd.s:23330  .debug_str:000000000000a6a7 .LASF17
C:\Users\CYMR90~1\AppData\Local\Temp\ccZ8Xcmd.s:30111  .debug_str:00000000000259a7 .LASF18
C:\Users\CYMR90~1\AppData\Local\Temp\ccZ8Xcmd.s:24288  .debug_str:000000000000e5a3 .LASF19
C:\Users\CYMR90~1\AppData\Local\Temp\ccZ8Xcmd.s:29917  .debug_str:0000000000024bac .LASF20
C:\Users\CYMR90~1\AppData\Local\Temp\ccZ8Xcmd.s:26771  .debug_str:000000000001844b .LASF21
C:\Users\CYMR90~1\AppData\Local\Temp\ccZ8Xcmd.s:26769  .debug_str:0000000000018431 .LASF22
C:\Users\CYMR90~1\AppData\Local\Temp\ccZ8Xcmd.s:29377  .debug_str:0000000000022995 .LASF23
C:\Users\CYMR90~1\AppData\Local\Temp\ccZ8Xcmd.s:27699  .debug_str:000000000001c12a .LASF24
C:\Users\CYMR90~1\AppData\Local\Temp\ccZ8Xcmd.s:21598  .debug_str:00000000000037a8 .LASF25
C:\Users\CYMR90~1\AppData\Local\Temp\ccZ8Xcmd.s:26154  .debug_str:0000000000015bcb .LASF26
C:\Users\CYMR90~1\AppData\Local\Temp\ccZ8Xcmd.s:29381  .debug_str:00000000000229cb .LASF27
C:\Users\CYMR90~1\AppData\Local\Temp\ccZ8Xcmd.s:29079  .debug_str:0000000000021795 .LASF28
C:\Users\CYMR90~1\AppData\Local\Temp\ccZ8Xcmd.s:21996  .debug_str:0000000000005179 .LASF29
C:\Users\CYMR90~1\AppData\Local\Temp\ccZ8Xcmd.s:28101  .debug_str:000000000001dbd3 .LASF30
C:\Users\CYMR90~1\AppData\Local\Temp\ccZ8Xcmd.s:28617  .debug_str:000000000001faf8 .LASF31
C:\Users\CYMR90~1\AppData\Local\Temp\ccZ8Xcmd.s:28563  .debug_str:000000000001f79e .LASF32
C:\Users\CYMR90~1\AppData\Local\Temp\ccZ8Xcmd.s:23166  .debug_str:0000000000009c80 .LASF33
C:\Users\CYMR90~1\AppData\Local\Temp\ccZ8Xcmd.s:23018  .debug_str:00000000000092e9 .LASF34
C:\Users\CYMR90~1\AppData\Local\Temp\ccZ8Xcmd.s:24318  .debug_str:000000000000e76e .LASF35
C:\Users\CYMR90~1\AppData\Local\Temp\ccZ8Xcmd.s:27213  .debug_str:000000000001a0e2 .LASF36
C:\Users\CYMR90~1\AppData\Local\Temp\ccZ8Xcmd.s:22516  .debug_str:000000000000721b .LASF37
C:\Users\CYMR90~1\AppData\Local\Temp\ccZ8Xcmd.s:24672  .debug_str:000000000000fdb1 .LASF38
C:\Users\CYMR90~1\AppData\Local\Temp\ccZ8Xcmd.s:21560  .debug_str:00000000000034f5 .LASF39
C:\Users\CYMR90~1\AppData\Local\Temp\ccZ8Xcmd.s:21358  .debug_str:00000000000027e9 .LASF40
C:\Users\CYMR90~1\AppData\Local\Temp\ccZ8Xcmd.s:24840  .debug_str:00000000000107b1 .LASF41
C:\Users\CYMR90~1\AppData\Local\Temp\ccZ8Xcmd.s:25262  .debug_str:0000000000012370 .LASF42
C:\Users\CYMR90~1\AppData\Local\Temp\ccZ8Xcmd.s:25528  .debug_str:0000000000013597 .LASF43
C:\Users\CYMR90~1\AppData\Local\Temp\ccZ8Xcmd.s:27203  .debug_str:000000000001a050 .LASF44
C:\Users\CYMR90~1\AppData\Local\Temp\ccZ8Xcmd.s:25126  .debug_str:0000000000011ac0 .LASF45
C:\Users\CYMR90~1\AppData\Local\Temp\ccZ8Xcmd.s:21826  .debug_str:00000000000046af .LASF46
C:\Users\CYMR90~1\AppData\Local\Temp\ccZ8Xcmd.s:28107  .debug_str:000000000001dc38 .LASF47
C:\Users\CYMR90~1\AppData\Local\Temp\ccZ8Xcmd.s:29829  .debug_str:000000000002456c .LASF48
C:\Users\CYMR90~1\AppData\Local\Temp\ccZ8Xcmd.s:24060  .debug_str:000000000000d7ba .LASF49
C:\Users\CYMR90~1\AppData\Local\Temp\ccZ8Xcmd.s:21196  .debug_str:0000000000001e3d .LASF50
C:\Users\CYMR90~1\AppData\Local\Temp\ccZ8Xcmd.s:20722  .debug_str:0000000000000153 .LASF51
C:\Users\CYMR90~1\AppData\Local\Temp\ccZ8Xcmd.s:31179  .debug_str:0000000000029d91 .LASF52
C:\Users\CYMR90~1\AppData\Local\Temp\ccZ8Xcmd.s:23874  .debug_str:000000000000cb94 .LASF53
C:\Users\CYMR90~1\AppData\Local\Temp\ccZ8Xcmd.s:25606  .debug_str:0000000000013a47 .LASF54
C:\Users\CYMR90~1\AppData\Local\Temp\ccZ8Xcmd.s:24636  .debug_str:000000000000fb20 .LASF55
C:\Users\CYMR90~1\AppData\Local\Temp\ccZ8Xcmd.s:22600  .debug_str:0000000000007756 .LASF56
C:\Users\CYMR90~1\AppData\Local\Temp\ccZ8Xcmd.s:26004  .debug_str:00000000000152bc .LASF57
C:\Users\CYMR90~1\AppData\Local\Temp\ccZ8Xcmd.s:20948  .debug_str:0000000000000f20 .LASF58
C:\Users\CYMR90~1\AppData\Local\Temp\ccZ8Xcmd.s:30115  .debug_str:00000000000259e7 .LASF59
C:\Users\CYMR90~1\AppData\Local\Temp\ccZ8Xcmd.s:25536  .debug_str:00000000000135f2 .LASF60
C:\Users\CYMR90~1\AppData\Local\Temp\ccZ8Xcmd.s:27559  .debug_str:000000000001b848 .LASF61
C:\Users\CYMR90~1\AppData\Local\Temp\ccZ8Xcmd.s:21426  .debug_str:0000000000002c4b .LASF62
C:\Users\CYMR90~1\AppData\Local\Temp\ccZ8Xcmd.s:24054  .debug_str:000000000000d776 .LASF63
C:\Users\CYMR90~1\AppData\Local\Temp\ccZ8Xcmd.s:23790  .debug_str:000000000000c513 .LASF64
C:\Users\CYMR90~1\AppData\Local\Temp\ccZ8Xcmd.s:27189  .debug_str:0000000000019f87 .LASF65
C:\Users\CYMR90~1\AppData\Local\Temp\ccZ8Xcmd.s:25840  .debug_str:0000000000014848 .LASF66
C:\Users\CYMR90~1\AppData\Local\Temp\ccZ8Xcmd.s:30957  .debug_str:0000000000028fa0 .LASF67
C:\Users\CYMR90~1\AppData\Local\Temp\ccZ8Xcmd.s:31409  .debug_str:000000000002ab66 .LASF68
C:\Users\CYMR90~1\AppData\Local\Temp\ccZ8Xcmd.s:25078  .debug_str:0000000000011758 .LASF69
C:\Users\CYMR90~1\AppData\Local\Temp\ccZ8Xcmd.s:24214  .debug_str:000000000000e0df .LASF70
C:\Users\CYMR90~1\AppData\Local\Temp\ccZ8Xcmd.s:21838  .debug_str:0000000000004802 .LASF71
C:\Users\CYMR90~1\AppData\Local\Temp\ccZ8Xcmd.s:25114  .debug_str:00000000000119fd .LASF72
C:\Users\CYMR90~1\AppData\Local\Temp\ccZ8Xcmd.s:24742  .debug_str:00000000000101d3 .LASF73
C:\Users\CYMR90~1\AppData\Local\Temp\ccZ8Xcmd.s:25340  .debug_str:00000000000128ca .LASF74
C:\Users\CYMR90~1\AppData\Local\Temp\ccZ8Xcmd.s:25186  .debug_str:0000000000011e9c .LASF75
C:\Users\CYMR90~1\AppData\Local\Temp\ccZ8Xcmd.s:25282  .debug_str:00000000000124db .LASF76
C:\Users\CYMR90~1\AppData\Local\Temp\ccZ8Xcmd.s:29745  .debug_str:0000000000023fdb .LASF77
C:\Users\CYMR90~1\AppData\Local\Temp\ccZ8Xcmd.s:27675  .debug_str:000000000001bfbb .LASF78
C:\Users\CYMR90~1\AppData\Local\Temp\ccZ8Xcmd.s:28071  .debug_str:000000000001d98d .LASF79
C:\Users\CYMR90~1\AppData\Local\Temp\ccZ8Xcmd.s:30937  .debug_str:0000000000028e51 .LASF80
C:\Users\CYMR90~1\AppData\Local\Temp\ccZ8Xcmd.s:23118  .debug_str:00000000000099a1 .LASF81
C:\Users\CYMR90~1\AppData\Local\Temp\ccZ8Xcmd.s:23316  .debug_str:000000000000a57b .LASF82
C:\Users\CYMR90~1\AppData\Local\Temp\ccZ8Xcmd.s:31071  .debug_str:0000000000029763 .LASF83
C:\Users\CYMR90~1\AppData\Local\Temp\ccZ8Xcmd.s:23058  .debug_str:0000000000009582 .LASF84
C:\Users\CYMR90~1\AppData\Local\Temp\ccZ8Xcmd.s:22334  .debug_str:0000000000006623 .LASF85
C:\Users\CYMR90~1\AppData\Local\Temp\ccZ8Xcmd.s:27387  .debug_str:000000000001adf7 .LASF86
C:\Users\CYMR90~1\AppData\Local\Temp\ccZ8Xcmd.s:31101  .debug_str:00000000000298ed .LASF87
C:\Users\CYMR90~1\AppData\Local\Temp\ccZ8Xcmd.s:28505  .debug_str:000000000001f430 .LASF88
C:\Users\CYMR90~1\AppData\Local\Temp\ccZ8Xcmd.s:27305  .debug_str:000000000001a890 .LASF89
C:\Users\CYMR90~1\AppData\Local\Temp\ccZ8Xcmd.s:28533  .debug_str:000000000001f5d8 .LASF90
C:\Users\CYMR90~1\AppData\Local\Temp\ccZ8Xcmd.s:31313  .debug_str:000000000002a5b5 .LASF91
C:\Users\CYMR90~1\AppData\Local\Temp\ccZ8Xcmd.s:30123  .debug_str:0000000000025a5f .LASF92
C:\Users\CYMR90~1\AppData\Local\Temp\ccZ8Xcmd.s:23194  .debug_str:0000000000009e59 .LASF93
C:\Users\CYMR90~1\AppData\Local\Temp\ccZ8Xcmd.s:27953  .debug_str:000000000001d266 .LASF94
C:\Users\CYMR90~1\AppData\Local\Temp\ccZ8Xcmd.s:25564  .debug_str:00000000000137b0 .LASF95
C:\Users\CYMR90~1\AppData\Local\Temp\ccZ8Xcmd.s:25548  .debug_str:00000000000136c0 .LASF96
C:\Users\CYMR90~1\AppData\Local\Temp\ccZ8Xcmd.s:31609  .debug_str:000000000002b875 .LASF97
C:\Users\CYMR90~1\AppData\Local\Temp\ccZ8Xcmd.s:25198  .debug_str:0000000000011f79 .LASF98
C:\Users\CYMR90~1\AppData\Local\Temp\ccZ8Xcmd.s:29095  .debug_str:00000000000218a1 .LASF99
C:\Users\CYMR90~1\AppData\Local\Temp\ccZ8Xcmd.s:22548  .debug_str:00000000000073f8 .LASF100
C:\Users\CYMR90~1\AppData\Local\Temp\ccZ8Xcmd.s:24688  .debug_str:000000000000fe8f .LASF101
C:\Users\CYMR90~1\AppData\Local\Temp\ccZ8Xcmd.s:26066  .debug_str:000000000001561e .LASF102
C:\Users\CYMR90~1\AppData\Local\Temp\ccZ8Xcmd.s:24966  .debug_str:0000000000010f8a .LASF103
C:\Users\CYMR90~1\AppData\Local\Temp\ccZ8Xcmd.s:23970  .debug_str:000000000000d1c9 .LASF104
C:\Users\CYMR90~1\AppData\Local\Temp\ccZ8Xcmd.s:25136  .debug_str:0000000000011b57 .LASF105
C:\Users\CYMR90~1\AppData\Local\Temp\ccZ8Xcmd.s:27769  .debug_str:000000000001c518 .LASF106
C:\Users\CYMR90~1\AppData\Local\Temp\ccZ8Xcmd.s:24960  .debug_str:0000000000010f25 .LASF107
C:\Users\CYMR90~1\AppData\Local\Temp\ccZ8Xcmd.s:23966  .debug_str:000000000000d1a5 .LASF108
C:\Users\CYMR90~1\AppData\Local\Temp\ccZ8Xcmd.s:25396  .debug_str:0000000000012c4c .LASF109
C:\Users\CYMR90~1\AppData\Local\Temp\ccZ8Xcmd.s:24342  .debug_str:000000000000e908 .LASF110
C:\Users\CYMR90~1\AppData\Local\Temp\ccZ8Xcmd.s:26823  .debug_str:0000000000018760 .LASF111
C:\Users\CYMR90~1\AppData\Local\Temp\ccZ8Xcmd.s:23452  .debug_str:000000000000aef4 .LASF112
C:\Users\CYMR90~1\AppData\Local\Temp\ccZ8Xcmd.s:23192  .debug_str:0000000000009e30 .LASF113
C:\Users\CYMR90~1\AppData\Local\Temp\ccZ8Xcmd.s:26098  .debug_str:000000000001581e .LASF114
C:\Users\CYMR90~1\AppData\Local\Temp\ccZ8Xcmd.s:30997  .debug_str:000000000002929b .LASF115
C:\Users\CYMR90~1\AppData\Local\Temp\ccZ8Xcmd.s:29629  .debug_str:0000000000023852 .LASF116
C:\Users\CYMR90~1\AppData\Local\Temp\ccZ8Xcmd.s:22950  .debug_str:0000000000008f02 .LASF117
C:\Users\CYMR90~1\AppData\Local\Temp\ccZ8Xcmd.s:27539  .debug_str:000000000001b779 .LASF118
C:\Users\CYMR90~1\AppData\Local\Temp\ccZ8Xcmd.s:31721  .debug_str:000000000002c040 .LASF119
C:\Users\CYMR90~1\AppData\Local\Temp\ccZ8Xcmd.s:24262  .debug_str:000000000000e3b8 .LASF120
C:\Users\CYMR90~1\AppData\Local\Temp\ccZ8Xcmd.s:29727  .debug_str:0000000000023de1 .LASF121
C:\Users\CYMR90~1\AppData\Local\Temp\ccZ8Xcmd.s:23752  .debug_str:000000000000c2a2 .LASF122
C:\Users\CYMR90~1\AppData\Local\Temp\ccZ8Xcmd.s:23860  .debug_str:000000000000cae7 .LASF123
C:\Users\CYMR90~1\AppData\Local\Temp\ccZ8Xcmd.s:21530  .debug_str:000000000000332c .LASF124
C:\Users\CYMR90~1\AppData\Local\Temp\ccZ8Xcmd.s:21804  .debug_str:0000000000004517 .LASF125
C:\Users\CYMR90~1\AppData\Local\Temp\ccZ8Xcmd.s:30669  .debug_str:0000000000027c9f .LASF126
C:\Users\CYMR90~1\AppData\Local\Temp\ccZ8Xcmd.s:25142  .debug_str:0000000000011baf .LASF127
C:\Users\CYMR90~1\AppData\Local\Temp\ccZ8Xcmd.s:27929  .debug_str:000000000001d101 .LASF128
C:\Users\CYMR90~1\AppData\Local\Temp\ccZ8Xcmd.s:23026  .debug_str:0000000000009361 .LASF129
C:\Users\CYMR90~1\AppData\Local\Temp\ccZ8Xcmd.s:30237  .debug_str:000000000002611c .LASF130
C:\Users\CYMR90~1\AppData\Local\Temp\ccZ8Xcmd.s:30545  .debug_str:00000000000274a8 .LASF131
C:\Users\CYMR90~1\AppData\Local\Temp\ccZ8Xcmd.s:30353  .debug_str:0000000000026865 .LASF132
C:\Users\CYMR90~1\AppData\Local\Temp\ccZ8Xcmd.s:24238  .debug_str:000000000000e234 .LASF133
C:\Users\CYMR90~1\AppData\Local\Temp\ccZ8Xcmd.s:29645  .debug_str:0000000000023939 .LASF134
C:\Users\CYMR90~1\AppData\Local\Temp\ccZ8Xcmd.s:21798  .debug_str:00000000000044b0 .LASF135
C:\Users\CYMR90~1\AppData\Local\Temp\ccZ8Xcmd.s:22646  .debug_str:0000000000007a55 .LASF136
C:\Users\CYMR90~1\AppData\Local\Temp\ccZ8Xcmd.s:31401  .debug_str:000000000002aafc .LASF137
C:\Users\CYMR90~1\AppData\Local\Temp\ccZ8Xcmd.s:25392  .debug_str:0000000000012c1c .LASF138
C:\Users\CYMR90~1\AppData\Local\Temp\ccZ8Xcmd.s:30879  .debug_str:0000000000028afc .LASF139
C:\Users\CYMR90~1\AppData\Local\Temp\ccZ8Xcmd.s:30005  .debug_str:00000000000251e9 .LASF140
C:\Users\CYMR90~1\AppData\Local\Temp\ccZ8Xcmd.s:27633  .debug_str:000000000001bd18 .LASF141
C:\Users\CYMR90~1\AppData\Local\Temp\ccZ8Xcmd.s:23154  .debug_str:0000000000009bc1 .LASF142
C:\Users\CYMR90~1\AppData\Local\Temp\ccZ8Xcmd.s:31469  .debug_str:000000000002aeff .LASF143
C:\Users\CYMR90~1\AppData\Local\Temp\ccZ8Xcmd.s:26793  .debug_str:000000000001855f .LASF144
C:\Users\CYMR90~1\AppData\Local\Temp\ccZ8Xcmd.s:25852  .debug_str:000000000001492d .LASF145
C:\Users\CYMR90~1\AppData\Local\Temp\ccZ8Xcmd.s:23824  .debug_str:000000000000c7ef .LASF146
C:\Users\CYMR90~1\AppData\Local\Temp\ccZ8Xcmd.s:21836  .debug_str:00000000000047eb .LASF147
C:\Users\CYMR90~1\AppData\Local\Temp\ccZ8Xcmd.s:24384  .debug_str:000000000000eb7e .LASF148
C:\Users\CYMR90~1\AppData\Local\Temp\ccZ8Xcmd.s:26773  .debug_str:000000000001845f .LASF149
C:\Users\CYMR90~1\AppData\Local\Temp\ccZ8Xcmd.s:20792  .debug_str:000000000000052b .LASF150
C:\Users\CYMR90~1\AppData\Local\Temp\ccZ8Xcmd.s:31947  .debug_str:000000000002cf23 .LASF151
C:\Users\CYMR90~1\AppData\Local\Temp\ccZ8Xcmd.s:25386  .debug_str:0000000000012b9a .LASF152
C:\Users\CYMR90~1\AppData\Local\Temp\ccZ8Xcmd.s:30011  .debug_str:000000000002523c .LASF153
C:\Users\CYMR90~1\AppData\Local\Temp\ccZ8Xcmd.s:27829  .debug_str:000000000001c952 .LASF154
C:\Users\CYMR90~1\AppData\Local\Temp\ccZ8Xcmd.s:24802  .debug_str:000000000001056f .LASF155
C:\Users\CYMR90~1\AppData\Local\Temp\ccZ8Xcmd.s:27841  .debug_str:000000000001ca38 .LASF156
C:\Users\CYMR90~1\AppData\Local\Temp\ccZ8Xcmd.s:27957  .debug_str:000000000001d2ad .LASF157
C:\Users\CYMR90~1\AppData\Local\Temp\ccZ8Xcmd.s:23684  .debug_str:000000000000be98 .LASF158
C:\Users\CYMR90~1\AppData\Local\Temp\ccZ8Xcmd.s:22748  .debug_str:0000000000008248 .LASF159
C:\Users\CYMR90~1\AppData\Local\Temp\ccZ8Xcmd.s:27485  .debug_str:000000000001b41e .LASF160
C:\Users\CYMR90~1\AppData\Local\Temp\ccZ8Xcmd.s:28907  .debug_str:0000000000020d04 .LASF161
C:\Users\CYMR90~1\AppData\Local\Temp\ccZ8Xcmd.s:27089  .debug_str:00000000000199c1 .LASF162
C:\Users\CYMR90~1\AppData\Local\Temp\ccZ8Xcmd.s:29637  .debug_str:00000000000238c4 .LASF163
C:\Users\CYMR90~1\AppData\Local\Temp\ccZ8Xcmd.s:31299  .debug_str:000000000002a4e7 .LASF164
C:\Users\CYMR90~1\AppData\Local\Temp\ccZ8Xcmd.s:22506  .debug_str:0000000000007197 .LASF165
C:\Users\CYMR90~1\AppData\Local\Temp\ccZ8Xcmd.s:30985  .debug_str:000000000002916c .LASF166
C:\Users\CYMR90~1\AppData\Local\Temp\ccZ8Xcmd.s:30801  .debug_str:000000000002862e .LASF167
C:\Users\CYMR90~1\AppData\Local\Temp\ccZ8Xcmd.s:29559  .debug_str:00000000000233d6 .LASF168
C:\Users\CYMR90~1\AppData\Local\Temp\ccZ8Xcmd.s:26555  .debug_str:0000000000017739 .LASF169
C:\Users\CYMR90~1\AppData\Local\Temp\ccZ8Xcmd.s:30413  .debug_str:0000000000026c02 .LASF170
C:\Users\CYMR90~1\AppData\Local\Temp\ccZ8Xcmd.s:26182  .debug_str:0000000000015d82 .LASF171
C:\Users\CYMR90~1\AppData\Local\Temp\ccZ8Xcmd.s:27751  .debug_str:000000000001c3f4 .LASF172
C:\Users\CYMR90~1\AppData\Local\Temp\ccZ8Xcmd.s:23146  .debug_str:0000000000009b4d .LASF173
C:\Users\CYMR90~1\AppData\Local\Temp\ccZ8Xcmd.s:29447  .debug_str:0000000000022d87 .LASF174
C:\Users\CYMR90~1\AppData\Local\Temp\ccZ8Xcmd.s:22170  .debug_str:0000000000005c08 .LASF175
C:\Users\CYMR90~1\AppData\Local\Temp\ccZ8Xcmd.s:22994  .debug_str:0000000000009195 .LASF176
C:\Users\CYMR90~1\AppData\Local\Temp\ccZ8Xcmd.s:21676  .debug_str:0000000000003c93 .LASF177
C:\Users\CYMR90~1\AppData\Local\Temp\ccZ8Xcmd.s:26965  .debug_str:0000000000019170 .LASF178
C:\Users\CYMR90~1\AppData\Local\Temp\ccZ8Xcmd.s:23912  .debug_str:000000000000ce25 .LASF179
C:\Users\CYMR90~1\AppData\Local\Temp\ccZ8Xcmd.s:21190  .debug_str:0000000000001dd1 .LASF180
C:\Users\CYMR90~1\AppData\Local\Temp\ccZ8Xcmd.s:31605  .debug_str:000000000002b84a .LASF181
C:\Users\CYMR90~1\AppData\Local\Temp\ccZ8Xcmd.s:20980  .debug_str:0000000000001117 .LASF182
C:\Users\CYMR90~1\AppData\Local\Temp\ccZ8Xcmd.s:25506  .debug_str:000000000001340c .LASF183
C:\Users\CYMR90~1\AppData\Local\Temp\ccZ8Xcmd.s:25918  .debug_str:0000000000014d78 .LASF184
C:\Users\CYMR90~1\AppData\Local\Temp\ccZ8Xcmd.s:30813  .debug_str:00000000000286f6 .LASF185
C:\Users\CYMR90~1\AppData\Local\Temp\ccZ8Xcmd.s:24008  .debug_str:000000000000d4d9 .LASF186
C:\Users\CYMR90~1\AppData\Local\Temp\ccZ8Xcmd.s:22490  .debug_str:0000000000007036 .LASF187
C:\Users\CYMR90~1\AppData\Local\Temp\ccZ8Xcmd.s:28485  .debug_str:000000000001f332 .LASF188
C:\Users\CYMR90~1\AppData\Local\Temp\ccZ8Xcmd.s:24282  .debug_str:000000000000e549 .LASF189
C:\Users\CYMR90~1\AppData\Local\Temp\ccZ8Xcmd.s:25612  .debug_str:0000000000013aa6 .LASF190
C:\Users\CYMR90~1\AppData\Local\Temp\ccZ8Xcmd.s:28965  .debug_str:0000000000021035 .LASF191
C:\Users\CYMR90~1\AppData\Local\Temp\ccZ8Xcmd.s:26338  .debug_str:0000000000016800 .LASF192
C:\Users\CYMR90~1\AppData\Local\Temp\ccZ8Xcmd.s:29197  .debug_str:0000000000021ec6 .LASF193
C:\Users\CYMR90~1\AppData\Local\Temp\ccZ8Xcmd.s:22124  .debug_str:0000000000005942 .LASF194
C:\Users\CYMR90~1\AppData\Local\Temp\ccZ8Xcmd.s:21500  .debug_str:0000000000003137 .LASF195
C:\Users\CYMR90~1\AppData\Local\Temp\ccZ8Xcmd.s:24106  .debug_str:000000000000da40 .LASF196
C:\Users\CYMR90~1\AppData\Local\Temp\ccZ8Xcmd.s:25024  .debug_str:000000000001131b .LASF197
C:\Users\CYMR90~1\AppData\Local\Temp\ccZ8Xcmd.s:21982  .debug_str:0000000000005099 .LASF198
C:\Users\CYMR90~1\AppData\Local\Temp\ccZ8Xcmd.s:30701  .debug_str:0000000000027ee6 .LASF199
C:\Users\CYMR90~1\AppData\Local\Temp\ccZ8Xcmd.s:28847  .debug_str:0000000000020969 .LASF200
C:\Users\CYMR90~1\AppData\Local\Temp\ccZ8Xcmd.s:27965  .debug_str:000000000001d30b .LASF201
C:\Users\CYMR90~1\AppData\Local\Temp\ccZ8Xcmd.s:23122  .debug_str:00000000000099d4 .LASF202
C:\Users\CYMR90~1\AppData\Local\Temp\ccZ8Xcmd.s:31159  .debug_str:0000000000029c72 .LASF203
C:\Users\CYMR90~1\AppData\Local\Temp\ccZ8Xcmd.s:21512  .debug_str:0000000000003208 .LASF204
C:\Users\CYMR90~1\AppData\Local\Temp\ccZ8Xcmd.s:24518  .debug_str:000000000000f370 .LASF205
C:\Users\CYMR90~1\AppData\Local\Temp\ccZ8Xcmd.s:30891  .debug_str:0000000000028b80 .LASF206
C:\Users\CYMR90~1\AppData\Local\Temp\ccZ8Xcmd.s:25734  .debug_str:0000000000014200 .LASF207
C:\Users\CYMR90~1\AppData\Local\Temp\ccZ8Xcmd.s:28521  .debug_str:000000000001f536 .LASF208
C:\Users\CYMR90~1\AppData\Local\Temp\ccZ8Xcmd.s:23748  .debug_str:000000000000c273 .LASF209
C:\Users\CYMR90~1\AppData\Local\Temp\ccZ8Xcmd.s:31817  .debug_str:000000000002c66c .LASF210
C:\Users\CYMR90~1\AppData\Local\Temp\ccZ8Xcmd.s:25704  .debug_str:0000000000014035 .LASF211
C:\Users\CYMR90~1\AppData\Local\Temp\ccZ8Xcmd.s:28361  .debug_str:000000000001eb55 .LASF212
C:\Users\CYMR90~1\AppData\Local\Temp\ccZ8Xcmd.s:26985  .debug_str:000000000001929e .LASF213
C:\Users\CYMR90~1\AppData\Local\Temp\ccZ8Xcmd.s:22210  .debug_str:0000000000005e54 .LASF214
C:\Users\CYMR90~1\AppData\Local\Temp\ccZ8Xcmd.s:25712  .debug_str:00000000000140a5 .LASF215
C:\Users\CYMR90~1\AppData\Local\Temp\ccZ8Xcmd.s:27671  .debug_str:000000000001bf6b .LASF216
C:\Users\CYMR90~1\AppData\Local\Temp\ccZ8Xcmd.s:28627  .debug_str:000000000001fb8c .LASF217
C:\Users\CYMR90~1\AppData\Local\Temp\ccZ8Xcmd.s:24594  .debug_str:000000000000f872 .LASF218
C:\Users\CYMR90~1\AppData\Local\Temp\ccZ8Xcmd.s:30013  .debug_str:0000000000025278 .LASF219
C:\Users\CYMR90~1\AppData\Local\Temp\ccZ8Xcmd.s:29821  .debug_str:00000000000244fe .LASF220
C:\Users\CYMR90~1\AppData\Local\Temp\ccZ8Xcmd.s:29341  .debug_str:0000000000022709 .LASF221
C:\Users\CYMR90~1\AppData\Local\Temp\ccZ8Xcmd.s:25988  .debug_str:00000000000151ec .LASF222
C:\Users\CYMR90~1\AppData\Local\Temp\ccZ8Xcmd.s:22180  .debug_str:0000000000005c8a .LASF223
C:\Users\CYMR90~1\AppData\Local\Temp\ccZ8Xcmd.s:22850  .debug_str:000000000000889e .LASF224
C:\Users\CYMR90~1\AppData\Local\Temp\ccZ8Xcmd.s:31477  .debug_str:000000000002af6c .LASF225
C:\Users\CYMR90~1\AppData\Local\Temp\ccZ8Xcmd.s:24176  .debug_str:000000000000dea4 .LASF226
C:\Users\CYMR90~1\AppData\Local\Temp\ccZ8Xcmd.s:27825  .debug_str:000000000001c924 .LASF227
C:\Users\CYMR90~1\AppData\Local\Temp\ccZ8Xcmd.s:27681  .debug_str:000000000001c011 .LASF228
C:\Users\CYMR90~1\AppData\Local\Temp\ccZ8Xcmd.s:24120  .debug_str:000000000000db07 .LASF229
C:\Users\CYMR90~1\AppData\Local\Temp\ccZ8Xcmd.s:28405  .debug_str:000000000001edfa .LASF230
C:\Users\CYMR90~1\AppData\Local\Temp\ccZ8Xcmd.s:22904  .debug_str:0000000000008c25 .LASF231
C:\Users\CYMR90~1\AppData\Local\Temp\ccZ8Xcmd.s:22222  .debug_str:0000000000005f2b .LASF232
C:\Users\CYMR90~1\AppData\Local\Temp\ccZ8Xcmd.s:22800  .debug_str:000000000000854b .LASF233
C:\Users\CYMR90~1\AppData\Local\Temp\ccZ8Xcmd.s:24794  .debug_str:00000000000104ec .LASF234
C:\Users\CYMR90~1\AppData\Local\Temp\ccZ8Xcmd.s:24514  .debug_str:000000000000f328 .LASF235
C:\Users\CYMR90~1\AppData\Local\Temp\ccZ8Xcmd.s:29567  .debug_str:0000000000023482 .LASF236
C:\Users\CYMR90~1\AppData\Local\Temp\ccZ8Xcmd.s:24536  .debug_str:000000000000f479 .LASF237
C:\Users\CYMR90~1\AppData\Local\Temp\ccZ8Xcmd.s:30233  .debug_str:00000000000260e0 .LASF238
C:\Users\CYMR90~1\AppData\Local\Temp\ccZ8Xcmd.s:29549  .debug_str:000000000002333f .LASF239
C:\Users\CYMR90~1\AppData\Local\Temp\ccZ8Xcmd.s:29785  .debug_str:00000000000242ba .LASF240
C:\Users\CYMR90~1\AppData\Local\Temp\ccZ8Xcmd.s:22614  .debug_str:0000000000007884 .LASF241
C:\Users\CYMR90~1\AppData\Local\Temp\ccZ8Xcmd.s:24198  .debug_str:000000000000dfdc .LASF242
C:\Users\CYMR90~1\AppData\Local\Temp\ccZ8Xcmd.s:25180  .debug_str:0000000000011e09 .LASF243
C:\Users\CYMR90~1\AppData\Local\Temp\ccZ8Xcmd.s:29577  .debug_str:00000000000234fa .LASF244
C:\Users\CYMR90~1\AppData\Local\Temp\ccZ8Xcmd.s:25370  .debug_str:0000000000012a7a .LASF245
C:\Users\CYMR90~1\AppData\Local\Temp\ccZ8Xcmd.s:28417  .debug_str:000000000001eedf .LASF246
C:\Users\CYMR90~1\AppData\Local\Temp\ccZ8Xcmd.s:26757  .debug_str:000000000001834b .LASF247
C:\Users\CYMR90~1\AppData\Local\Temp\ccZ8Xcmd.s:26270  .debug_str:0000000000016316 .LASF248
C:\Users\CYMR90~1\AppData\Local\Temp\ccZ8Xcmd.s:27765  .debug_str:000000000001c4e8 .LASF249
C:\Users\CYMR90~1\AppData\Local\Temp\ccZ8Xcmd.s:27147  .debug_str:0000000000019d0c .LASF250
C:\Users\CYMR90~1\AppData\Local\Temp\ccZ8Xcmd.s:27701  .debug_str:000000000001c139 .LASF251
C:\Users\CYMR90~1\AppData\Local\Temp\ccZ8Xcmd.s:29389  .debug_str:0000000000022a50 .LASF252
C:\Users\CYMR90~1\AppData\Local\Temp\ccZ8Xcmd.s:30029  .debug_str:0000000000025390 .LASF253
C:\Users\CYMR90~1\AppData\Local\Temp\ccZ8Xcmd.s:30087  .debug_str:0000000000025837 .LASF254
C:\Users\CYMR90~1\AppData\Local\Temp\ccZ8Xcmd.s:23950  .debug_str:000000000000d07d .LASF255
C:\Users\CYMR90~1\AppData\Local\Temp\ccZ8Xcmd.s:27053  .debug_str:0000000000019770 .LASF256
C:\Users\CYMR90~1\AppData\Local\Temp\ccZ8Xcmd.s:24194  .debug_str:000000000000dfaa .LASF257
C:\Users\CYMR90~1\AppData\Local\Temp\ccZ8Xcmd.s:28349  .debug_str:000000000001ea86 .LASF258
C:\Users\CYMR90~1\AppData\Local\Temp\ccZ8Xcmd.s:23414  .debug_str:000000000000abc2 .LASF259
C:\Users\CYMR90~1\AppData\Local\Temp\ccZ8Xcmd.s:20868  .debug_str:00000000000009b7 .LASF260
C:\Users\CYMR90~1\AppData\Local\Temp\ccZ8Xcmd.s:31221  .debug_str:000000000002a005 .LASF261
C:\Users\CYMR90~1\AppData\Local\Temp\ccZ8Xcmd.s:30681  .debug_str:0000000000027d45 .LASF262
C:\Users\CYMR90~1\AppData\Local\Temp\ccZ8Xcmd.s:25682  .debug_str:0000000000013eb7 .LASF263
C:\Users\CYMR90~1\AppData\Local\Temp\ccZ8Xcmd.s:27655  .debug_str:000000000001be7e .LASF264
C:\Users\CYMR90~1\AppData\Local\Temp\ccZ8Xcmd.s:26445  .debug_str:00000000000170a3 .LASF265
C:\Users\CYMR90~1\AppData\Local\Temp\ccZ8Xcmd.s:24122  .debug_str:000000000000db48 .LASF266
C:\Users\CYMR90~1\AppData\Local\Temp\ccZ8Xcmd.s:23464  .debug_str:000000000000afb9 .LASF267
C:\Users\CYMR90~1\AppData\Local\Temp\ccZ8Xcmd.s:27753  .debug_str:000000000001c409 .LASF268
C:\Users\CYMR90~1\AppData\Local\Temp\ccZ8Xcmd.s:23770  .debug_str:000000000000c3ee .LASF269
C:\Users\CYMR90~1\AppData\Local\Temp\ccZ8Xcmd.s:24708  .debug_str:000000000000ffda .LASF270
C:\Users\CYMR90~1\AppData\Local\Temp\ccZ8Xcmd.s:25962  .debug_str:0000000000015039 .LASF271
C:\Users\CYMR90~1\AppData\Local\Temp\ccZ8Xcmd.s:30337  .debug_str:0000000000026780 .LASF272
C:\Users\CYMR90~1\AppData\Local\Temp\ccZ8Xcmd.s:22378  .debug_str:00000000000068bd .LASF273
C:\Users\CYMR90~1\AppData\Local\Temp\ccZ8Xcmd.s:21308  .debug_str:0000000000002460 .LASF274
C:\Users\CYMR90~1\AppData\Local\Temp\ccZ8Xcmd.s:22474  .debug_str:0000000000006f1f .LASF275
C:\Users\CYMR90~1\AppData\Local\Temp\ccZ8Xcmd.s:21566  .debug_str:0000000000003545 .LASF276
C:\Users\CYMR90~1\AppData\Local\Temp\ccZ8Xcmd.s:23666  .debug_str:000000000000bd6a .LASF277
C:\Users\CYMR90~1\AppData\Local\Temp\ccZ8Xcmd.s:21004  .debug_str:0000000000001238 .LASF278
C:\Users\CYMR90~1\AppData\Local\Temp\ccZ8Xcmd.s:22302  .debug_str:00000000000063f4 .LASF279
C:\Users\CYMR90~1\AppData\Local\Temp\ccZ8Xcmd.s:31009  .debug_str:0000000000029342 .LASF280
C:\Users\CYMR90~1\AppData\Local\Temp\ccZ8Xcmd.s:23170  .debug_str:0000000000009cb8 .LASF281
C:\Users\CYMR90~1\AppData\Local\Temp\ccZ8Xcmd.s:22270  .debug_str:0000000000006249 .LASF282
C:\Users\CYMR90~1\AppData\Local\Temp\ccZ8Xcmd.s:22174  .debug_str:0000000000005c38 .LASF283
C:\Users\CYMR90~1\AppData\Local\Temp\ccZ8Xcmd.s:21938  .debug_str:0000000000004e17 .LASF284
C:\Users\CYMR90~1\AppData\Local\Temp\ccZ8Xcmd.s:29887  .debug_str:0000000000024996 .LASF285
C:\Users\CYMR90~1\AppData\Local\Temp\ccZ8Xcmd.s:30713  .debug_str:0000000000027fdc .LASF286
C:\Users\CYMR90~1\AppData\Local\Temp\ccZ8Xcmd.s:30993  .debug_str:00000000000291c9 .LASF287
C:\Users\CYMR90~1\AppData\Local\Temp\ccZ8Xcmd.s:27711  .debug_str:000000000001c1e3 .LASF288
C:\Users\CYMR90~1\AppData\Local\Temp\ccZ8Xcmd.s:31751  .debug_str:000000000002c20f .LASF289
C:\Users\CYMR90~1\AppData\Local\Temp\ccZ8Xcmd.s:26701  .debug_str:0000000000017ffe .LASF290
C:\Users\CYMR90~1\AppData\Local\Temp\ccZ8Xcmd.s:25738  .debug_str:0000000000014226 .LASF291
C:\Users\CYMR90~1\AppData\Local\Temp\ccZ8Xcmd.s:29923  .debug_str:0000000000024bdb .LASF292
C:\Users\CYMR90~1\AppData\Local\Temp\ccZ8Xcmd.s:21592  .debug_str:0000000000003740 .LASF293
C:\Users\CYMR90~1\AppData\Local\Temp\ccZ8Xcmd.s:28859  .debug_str:0000000000020a38 .LASF294
C:\Users\CYMR90~1\AppData\Local\Temp\ccZ8Xcmd.s:21858  .debug_str:000000000000492c .LASF295
C:\Users\CYMR90~1\AppData\Local\Temp\ccZ8Xcmd.s:31343  .debug_str:000000000002a795 .LASF296
C:\Users\CYMR90~1\AppData\Local\Temp\ccZ8Xcmd.s:25790  .debug_str:000000000001458a .LASF297
C:\Users\CYMR90~1\AppData\Local\Temp\ccZ8Xcmd.s:26575  .debug_str:00000000000178bd .LASF298
C:\Users\CYMR90~1\AppData\Local\Temp\ccZ8Xcmd.s:20852  .debug_str:00000000000008b1 .LASF299
C:\Users\CYMR90~1\AppData\Local\Temp\ccZ8Xcmd.s:24614  .debug_str:000000000000f9c7 .LASF300
C:\Users\CYMR90~1\AppData\Local\Temp\ccZ8Xcmd.s:27329  .debug_str:000000000001aa2f .LASF301
C:\Users\CYMR90~1\AppData\Local\Temp\ccZ8Xcmd.s:25846  .debug_str:000000000001489f .LASF302
C:\Users\CYMR90~1\AppData\Local\Temp\ccZ8Xcmd.s:25316  .debug_str:000000000001271c .LASF303
C:\Users\CYMR90~1\AppData\Local\Temp\ccZ8Xcmd.s:21230  .debug_str:0000000000001fd5 .LASF304
C:\Users\CYMR90~1\AppData\Local\Temp\ccZ8Xcmd.s:23778  .debug_str:000000000000c472 .LASF305
C:\Users\CYMR90~1\AppData\Local\Temp\ccZ8Xcmd.s:29063  .debug_str:00000000000216d2 .LASF306
C:\Users\CYMR90~1\AppData\Local\Temp\ccZ8Xcmd.s:24632  .debug_str:000000000000faf5 .LASF307
C:\Users\CYMR90~1\AppData\Local\Temp\ccZ8Xcmd.s:29907  .debug_str:0000000000024ad4 .LASF308
C:\Users\CYMR90~1\AppData\Local\Temp\ccZ8Xcmd.s:29517  .debug_str:0000000000023148 .LASF309
C:\Users\CYMR90~1\AppData\Local\Temp\ccZ8Xcmd.s:24178  .debug_str:000000000000debd .LASF310
C:\Users\CYMR90~1\AppData\Local\Temp\ccZ8Xcmd.s:30229  .debug_str:00000000000260b5 .LASF311
C:\Users\CYMR90~1\AppData\Local\Temp\ccZ8Xcmd.s:29739  .debug_str:0000000000023f74 .LASF312
C:\Users\CYMR90~1\AppData\Local\Temp\ccZ8Xcmd.s:23894  .debug_str:000000000000ccb2 .LASF313
C:\Users\CYMR90~1\AppData\Local\Temp\ccZ8Xcmd.s:26843  .debug_str:00000000000188ba .LASF316
C:\Users\CYMR90~1\AppData\Local\Temp\ccZ8Xcmd.s:27205  .debug_str:000000000001a06d .LASF317
C:\Users\CYMR90~1\AppData\Local\Temp\ccZ8Xcmd.s:27545  .debug_str:000000000001b7b7 .LASF318
C:\Users\CYMR90~1\AppData\Local\Temp\ccZ8Xcmd.s:24622  .debug_str:000000000000fa64 .LASF319
C:\Users\CYMR90~1\AppData\Local\Temp\ccZ8Xcmd.s:23534  .debug_str:000000000000b434 .LASF320
C:\Users\CYMR90~1\AppData\Local\Temp\ccZ8Xcmd.s:30955  .debug_str:0000000000028f94 .LASF321
C:\Users\CYMR90~1\AppData\Local\Temp\ccZ8Xcmd.s:24088  .debug_str:000000000000d974 .LASF322
C:\Users\CYMR90~1\AppData\Local\Temp\ccZ8Xcmd.s:30181  .debug_str:0000000000025da7 .LASF323
C:\Users\CYMR90~1\AppData\Local\Temp\ccZ8Xcmd.s:20738  .debug_str:0000000000000252 .LASF324
C:\Users\CYMR90~1\AppData\Local\Temp\ccZ8Xcmd.s:31365  .debug_str:000000000002a8ca .LASF325
C:\Users\CYMR90~1\AppData\Local\Temp\ccZ8Xcmd.s:21646  .debug_str:0000000000003aa1 .LASF326
C:\Users\CYMR90~1\AppData\Local\Temp\ccZ8Xcmd.s:25670  .debug_str:0000000000013dfa .LASF327
C:\Users\CYMR90~1\AppData\Local\Temp\ccZ8Xcmd.s:25318  .debug_str:0000000000012731 .LASF328
C:\Users\CYMR90~1\AppData\Local\Temp\ccZ8Xcmd.s:28193  .debug_str:000000000001e173 .LASF329
C:\Users\CYMR90~1\AppData\Local\Temp\ccZ8Xcmd.s:28185  .debug_str:000000000001e122 .LASF330
C:\Users\CYMR90~1\AppData\Local\Temp\ccZ8Xcmd.s:30375  .debug_str:00000000000269ce .LASF331
C:\Users\CYMR90~1\AppData\Local\Temp\ccZ8Xcmd.s:30935  .debug_str:0000000000028e42 .LASF332
C:\Users\CYMR90~1\AppData\Local\Temp\ccZ8Xcmd.s:31123  .debug_str:0000000000029a41 .LASF333
C:\Users\CYMR90~1\AppData\Local\Temp\ccZ8Xcmd.s:27179  .debug_str:0000000000019ef2 .LASF334
C:\Users\CYMR90~1\AppData\Local\Temp\ccZ8Xcmd.s:26621  .debug_str:0000000000017b71 .LASF335
C:\Users\CYMR90~1\AppData\Local\Temp\ccZ8Xcmd.s:30975  .debug_str:00000000000290dd .LASF336
C:\Users\CYMR90~1\AppData\Local\Temp\ccZ8Xcmd.s:25246  .debug_str:0000000000012276 .LASF337
C:\Users\CYMR90~1\AppData\Local\Temp\ccZ8Xcmd.s:28915  .debug_str:0000000000020d70 .LASF338
C:\Users\CYMR90~1\AppData\Local\Temp\ccZ8Xcmd.s:23288  .debug_str:000000000000a41c .LASF339
C:\Users\CYMR90~1\AppData\Local\Temp\ccZ8Xcmd.s:25460  .debug_str:0000000000013098 .LASF340
C:\Users\CYMR90~1\AppData\Local\Temp\ccZ8Xcmd.s:27379  .debug_str:000000000001ad45 .LASF341
C:\Users\CYMR90~1\AppData\Local\Temp\ccZ8Xcmd.s:23600  .debug_str:000000000000b8a1 .LASF342
C:\Users\CYMR90~1\AppData\Local\Temp\ccZ8Xcmd.s:20986  .debug_str:0000000000001162 .LASF343
C:\Users\CYMR90~1\AppData\Local\Temp\ccZ8Xcmd.s:31091  .debug_str:000000000002985c .LASF344
C:\Users\CYMR90~1\AppData\Local\Temp\ccZ8Xcmd.s:31691  .debug_str:000000000002bdeb .LASF345
C:\Users\CYMR90~1\AppData\Local\Temp\ccZ8Xcmd.s:24504  .debug_str:000000000000f2a0 .LASF346
C:\Users\CYMR90~1\AppData\Local\Temp\ccZ8Xcmd.s:20840  .debug_str:00000000000007fa .LASF347
C:\Users\CYMR90~1\AppData\Local\Temp\ccZ8Xcmd.s:28713  .debug_str:00000000000200d1 .LASF348
C:\Users\CYMR90~1\AppData\Local\Temp\ccZ8Xcmd.s:30691  .debug_str:0000000000027e14 .LASF349
C:\Users\CYMR90~1\AppData\Local\Temp\ccZ8Xcmd.s:28187  .debug_str:000000000001e12e .LASF350
C:\Users\CYMR90~1\AppData\Local\Temp\ccZ8Xcmd.s:20776  .debug_str:0000000000000464 .LASF351
C:\Users\CYMR90~1\AppData\Local\Temp\ccZ8Xcmd.s:28489  .debug_str:000000000001f362 .LASF352
C:\Users\CYMR90~1\AppData\Local\Temp\ccZ8Xcmd.s:30173  .debug_str:0000000000025d3d .LASF353
C:\Users\CYMR90~1\AppData\Local\Temp\ccZ8Xcmd.s:27811  .debug_str:000000000001c872 .LASF354
C:\Users\CYMR90~1\AppData\Local\Temp\ccZ8Xcmd.s:27979  .debug_str:000000000001d401 .LASF355
C:\Users\CYMR90~1\AppData\Local\Temp\ccZ8Xcmd.s:23976  .debug_str:000000000000d2bf .LASF356
C:\Users\CYMR90~1\AppData\Local\Temp\ccZ8Xcmd.s:27131  .debug_str:0000000000019c3a .LASF357
C:\Users\CYMR90~1\AppData\Local\Temp\ccZ8Xcmd.s:30599  .debug_str:00000000000277c7 .LASF358
C:\Users\CYMR90~1\AppData\Local\Temp\ccZ8Xcmd.s:25308  .debug_str:0000000000012671 .LASF359
C:\Users\CYMR90~1\AppData\Local\Temp\ccZ8Xcmd.s:23384  .debug_str:000000000000a9fa .LASF360
C:\Users\CYMR90~1\AppData\Local\Temp\ccZ8Xcmd.s:28363  .debug_str:000000000001eb6d .LASF361
C:\Users\CYMR90~1\AppData\Local\Temp\ccZ8Xcmd.s:25048  .debug_str:00000000000114ac .LASF362
C:\Users\CYMR90~1\AppData\Local\Temp\ccZ8Xcmd.s:30871  .debug_str:0000000000028a7c .LASF363
C:\Users\CYMR90~1\AppData\Local\Temp\ccZ8Xcmd.s:22934  .debug_str:0000000000008e2e .LASF364
C:\Users\CYMR90~1\AppData\Local\Temp\ccZ8Xcmd.s:30763  .debug_str:0000000000028384 .LASF365
C:\Users\CYMR90~1\AppData\Local\Temp\ccZ8Xcmd.s:22338  .debug_str:0000000000006688 .LASF366
C:\Users\CYMR90~1\AppData\Local\Temp\ccZ8Xcmd.s:25450  .debug_str:0000000000012fd4 .LASF367
C:\Users\CYMR90~1\AppData\Local\Temp\ccZ8Xcmd.s:22622  .debug_str:0000000000007902 .LASF368
C:\Users\CYMR90~1\AppData\Local\Temp\ccZ8Xcmd.s:26669  .debug_str:0000000000017e21 .LASF372
C:\Users\CYMR90~1\AppData\Local\Temp\ccZ8Xcmd.s:30415  .debug_str:0000000000026c47 .LASF373
C:\Users\CYMR90~1\AppData\Local\Temp\ccZ8Xcmd.s:23364  .debug_str:000000000000a8af .LASF374
C:\Users\CYMR90~1\AppData\Local\Temp\ccZ8Xcmd.s:26453  .debug_str:000000000001711c .LASF375
C:\Users\CYMR90~1\AppData\Local\Temp\ccZ8Xcmd.s:26655  .debug_str:0000000000017d59 .LASF376
C:\Users\CYMR90~1\AppData\Local\Temp\ccZ8Xcmd.s:29159  .debug_str:0000000000021caf .LASF377
C:\Users\CYMR90~1\AppData\Local\Temp\ccZ8Xcmd.s:27827  .debug_str:000000000001c93d .LASF378
C:\Users\CYMR90~1\AppData\Local\Temp\ccZ8Xcmd.s:31517  .debug_str:000000000002b242 .LASF379
C:\Users\CYMR90~1\AppData\Local\Temp\ccZ8Xcmd.s:21324  .debug_str:0000000000002597 .LASF380
C:\Users\CYMR90~1\AppData\Local\Temp\ccZ8Xcmd.s:31461  .debug_str:000000000002ae97 .LASF381
C:\Users\CYMR90~1\AppData\Local\Temp\ccZ8Xcmd.s:27553  .debug_str:000000000001b808 .LASF382
C:\Users\CYMR90~1\AppData\Local\Temp\ccZ8Xcmd.s:22396  .debug_str:00000000000069e0 .LASF383
C:\Users\CYMR90~1\AppData\Local\Temp\ccZ8Xcmd.s:23750  .debug_str:000000000000c28e .LASF384
C:\Users\CYMR90~1\AppData\Local\Temp\ccZ8Xcmd.s:27071  .debug_str:00000000000198a4 .LASF385
C:\Users\CYMR90~1\AppData\Local\Temp\ccZ8Xcmd.s:24738  .debug_str:00000000000101a4 .LASF386
C:\Users\CYMR90~1\AppData\Local\Temp\ccZ8Xcmd.s:21256  .debug_str:0000000000002161 .LASF387
C:\Users\CYMR90~1\AppData\Local\Temp\ccZ8Xcmd.s:24344  .debug_str:000000000000e928 .LASF388
C:\Users\CYMR90~1\AppData\Local\Temp\ccZ8Xcmd.s:22902  .debug_str:0000000000008c11 .LASF389
C:\Users\CYMR90~1\AppData\Local\Temp\ccZ8Xcmd.s:21734  .debug_str:00000000000040c9 .LASF391
C:\Users\CYMR90~1\AppData\Local\Temp\ccZ8Xcmd.s:24746  .debug_str:0000000000010210 .LASF392
C:\Users\CYMR90~1\AppData\Local\Temp\ccZ8Xcmd.s:28809  .debug_str:0000000000020703 .LASF393
C:\Users\CYMR90~1\AppData\Local\Temp\ccZ8Xcmd.s:30559  .debug_str:0000000000027574 .LASF394
C:\Users\CYMR90~1\AppData\Local\Temp\ccZ8Xcmd.s:21282  .debug_str:00000000000022c2 .LASF395
C:\Users\CYMR90~1\AppData\Local\Temp\ccZ8Xcmd.s:23408  .debug_str:000000000000ab5e .LASF396
C:\Users\CYMR90~1\AppData\Local\Temp\ccZ8Xcmd.s:27185  .debug_str:0000000000019f52 .LASF397
C:\Users\CYMR90~1\AppData\Local\Temp\ccZ8Xcmd.s:31341  .debug_str:000000000002a783 .LASF398
C:\Users\CYMR90~1\AppData\Local\Temp\ccZ8Xcmd.s:26016  .debug_str:0000000000015385 .LASF399
C:\Users\CYMR90~1\AppData\Local\Temp\ccZ8Xcmd.s:28447  .debug_str:000000000001f0aa .LASF400
C:\Users\CYMR90~1\AppData\Local\Temp\ccZ8Xcmd.s:22890  .debug_str:0000000000008ae1 .LASF401
C:\Users\CYMR90~1\AppData\Local\Temp\ccZ8Xcmd.s:26507  .debug_str:0000000000017435 .LASF402
C:\Users\CYMR90~1\AppData\Local\Temp\ccZ8Xcmd.s:22238  .debug_str:0000000000006038 .LASF403
C:\Users\CYMR90~1\AppData\Local\Temp\ccZ8Xcmd.s:31033  .debug_str:00000000000294ca .LASF404
C:\Users\CYMR90~1\AppData\Local\Temp\ccZ8Xcmd.s:24400  .debug_str:000000000000ec4d .LASF405
C:\Users\CYMR90~1\AppData\Local\Temp\ccZ8Xcmd.s:27737  .debug_str:000000000001c329 .LASF406
C:\Users\CYMR90~1\AppData\Local\Temp\ccZ8Xcmd.s:25942  .debug_str:0000000000014f25 .LASF407
C:\Users\CYMR90~1\AppData\Local\Temp\ccZ8Xcmd.s:26921  .debug_str:0000000000018de3 .LASF408
C:\Users\CYMR90~1\AppData\Local\Temp\ccZ8Xcmd.s:29103  .debug_str:000000000002193e .LASF409
C:\Users\CYMR90~1\AppData\Local\Temp\ccZ8Xcmd.s:22192  .debug_str:0000000000005d45 .LASF410
C:\Users\CYMR90~1\AppData\Local\Temp\ccZ8Xcmd.s:26124  .debug_str:00000000000159be .LASF411
C:\Users\CYMR90~1\AppData\Local\Temp\ccZ8Xcmd.s:29233  .debug_str:00000000000220f0 .LASF412
C:\Users\CYMR90~1\AppData\Local\Temp\ccZ8Xcmd.s:22370  .debug_str:0000000000006869 .LASF413
C:\Users\CYMR90~1\AppData\Local\Temp\ccZ8Xcmd.s:30969  .debug_str:0000000000029076 .LASF414
C:\Users\CYMR90~1\AppData\Local\Temp\ccZ8Xcmd.s:24506  .debug_str:000000000000f2ae .LASF415
C:\Users\CYMR90~1\AppData\Local\Temp\ccZ8Xcmd.s:30473  .debug_str:0000000000026f94 .LASF416
C:\Users\CYMR90~1\AppData\Local\Temp\ccZ8Xcmd.s:31815  .debug_str:000000000002c661 .LASF417
C:\Users\CYMR90~1\AppData\Local\Temp\ccZ8Xcmd.s:22820  .debug_str:0000000000008699 .LASF418
C:\Users\CYMR90~1\AppData\Local\Temp\ccZ8Xcmd.s:31185  .debug_str:0000000000029de8 .LASF419
C:\Users\CYMR90~1\AppData\Local\Temp\ccZ8Xcmd.s:22440  .debug_str:0000000000006cdc .LASF420
C:\Users\CYMR90~1\AppData\Local\Temp\ccZ8Xcmd.s:31385  .debug_str:000000000002a9e7 .LASF421
C:\Users\CYMR90~1\AppData\Local\Temp\ccZ8Xcmd.s:23676  .debug_str:000000000000be21 .LASF422
C:\Users\CYMR90~1\AppData\Local\Temp\ccZ8Xcmd.s:23872  .debug_str:000000000000cb88 .LASF423
C:\Users\CYMR90~1\AppData\Local\Temp\ccZ8Xcmd.s:28343  .debug_str:000000000001ea47 .LASF424
C:\Users\CYMR90~1\AppData\Local\Temp\ccZ8Xcmd.s:26955  .debug_str:00000000000190e5 .LASF425
C:\Users\CYMR90~1\AppData\Local\Temp\ccZ8Xcmd.s:20750  .debug_str:00000000000002d6 .LASF426
C:\Users\CYMR90~1\AppData\Local\Temp\ccZ8Xcmd.s:30877  .debug_str:0000000000028ad9 .LASF427
C:\Users\CYMR90~1\AppData\Local\Temp\ccZ8Xcmd.s:26212  .debug_str:0000000000015fc2 .LASF428
C:\Users\CYMR90~1\AppData\Local\Temp\ccZ8Xcmd.s:28119  .debug_str:000000000001dd25 .LASF429
C:\Users\CYMR90~1\AppData\Local\Temp\ccZ8Xcmd.s:24686  .debug_str:000000000000fe86 .LASF430
C:\Users\CYMR90~1\AppData\Local\Temp\ccZ8Xcmd.s:26403  .debug_str:0000000000016e36 .LASF431
C:\Users\CYMR90~1\AppData\Local\Temp\ccZ8Xcmd.s:29183  .debug_str:0000000000021dec .LASF432
C:\Users\CYMR90~1\AppData\Local\Temp\ccZ8Xcmd.s:23856  .debug_str:000000000000caa8 .LASF434
C:\Users\CYMR90~1\AppData\Local\Temp\ccZ8Xcmd.s:21912  .debug_str:0000000000004c7c .LASF435
C:\Users\CYMR90~1\AppData\Local\Temp\ccZ8Xcmd.s:26595  .debug_str:00000000000179ec .LASF436
C:\Users\CYMR90~1\AppData\Local\Temp\ccZ8Xcmd.s:22462  .debug_str:0000000000006e44 .LASF437
C:\Users\CYMR90~1\AppData\Local\Temp\ccZ8Xcmd.s:30897  .debug_str:0000000000028bc7 .LASF438
C:\Users\CYMR90~1\AppData\Local\Temp\ccZ8Xcmd.s:20714  .debug_str:00000000000000f0 .LASF439
C:\Users\CYMR90~1\AppData\Local\Temp\ccZ8Xcmd.s:28381  .debug_str:000000000001ec95 .LASF440
C:\Users\CYMR90~1\AppData\Local\Temp\ccZ8Xcmd.s:24096  .debug_str:000000000000d9d6 .LASF441
C:\Users\CYMR90~1\AppData\Local\Temp\ccZ8Xcmd.s:29421  .debug_str:0000000000022c08 .LASF442
C:\Users\CYMR90~1\AppData\Local\Temp\ccZ8Xcmd.s:24980  .debug_str:0000000000011063 .LASF443
C:\Users\CYMR90~1\AppData\Local\Temp\ccZ8Xcmd.s:24822  .debug_str:000000000001069d .LASF444
C:\Users\CYMR90~1\AppData\Local\Temp\ccZ8Xcmd.s:31809  .debug_str:000000000002c615 .LASF445
C:\Users\CYMR90~1\AppData\Local\Temp\ccZ8Xcmd.s:31749  .debug_str:000000000002c209 .LASF446
C:\Users\CYMR90~1\AppData\Local\Temp\ccZ8Xcmd.s:25166  .debug_str:0000000000011d24 .LASF447
C:\Users\CYMR90~1\AppData\Local\Temp\ccZ8Xcmd.s:29391  .debug_str:0000000000022a62 .LASF448
C:\Users\CYMR90~1\AppData\Local\Temp\ccZ8Xcmd.s:21748  .debug_str:000000000000417b .LASF449
C:\Users\CYMR90~1\AppData\Local\Temp\ccZ8Xcmd.s:22482  .debug_str:0000000000006fad .LASF450
C:\Users\CYMR90~1\AppData\Local\Temp\ccZ8Xcmd.s:21212  .debug_str:0000000000001ef9 .LASF451
C:\Users\CYMR90~1\AppData\Local\Temp\ccZ8Xcmd.s:25854  .debug_str:0000000000014941 .LASF452
C:\Users\CYMR90~1\AppData\Local\Temp\ccZ8Xcmd.s:21202  .debug_str:0000000000001e86 .LASF453
C:\Users\CYMR90~1\AppData\Local\Temp\ccZ8Xcmd.s:31755  .debug_str:000000000002c24f .LASF454
C:\Users\CYMR90~1\AppData\Local\Temp\ccZ8Xcmd.s:24268  .debug_str:000000000000e41f .LASF455
C:\Users\CYMR90~1\AppData\Local\Temp\ccZ8Xcmd.s:29009  .debug_str:000000000002137f .LASF456
C:\Users\CYMR90~1\AppData\Local\Temp\ccZ8Xcmd.s:23946  .debug_str:000000000000d05b .LASF457
C:\Users\CYMR90~1\AppData\Local\Temp\ccZ8Xcmd.s:22250  .debug_str:00000000000060e1 .LASF458
C:\Users\CYMR90~1\AppData\Local\Temp\ccZ8Xcmd.s:24888  .debug_str:0000000000010b66 .LASF459
C:\Users\CYMR90~1\AppData\Local\Temp\ccZ8Xcmd.s:28765  .debug_str:0000000000020485 .LASF460
C:\Users\CYMR90~1\AppData\Local\Temp\ccZ8Xcmd.s:29911  .debug_str:0000000000024b0a .LASF461
C:\Users\CYMR90~1\AppData\Local\Temp\ccZ8Xcmd.s:26370  .debug_str:0000000000016a72 .LASF462
C:\Users\CYMR90~1\AppData\Local\Temp\ccZ8Xcmd.s:27235  .debug_str:000000000001a3c4 .LASF463
C:\Users\CYMR90~1\AppData\Local\Temp\ccZ8Xcmd.s:24112  .debug_str:000000000000daa2 .LASF464
C:\Users\CYMR90~1\AppData\Local\Temp\ccZ8Xcmd.s:25258  .debug_str:0000000000012335 .LASF465
C:\Users\CYMR90~1\AppData\Local\Temp\ccZ8Xcmd.s:22390  .debug_str:000000000000699a .LASF466
C:\Users\CYMR90~1\AppData\Local\Temp\ccZ8Xcmd.s:22952  .debug_str:0000000000008f11 .LASF467
C:\Users\CYMR90~1\AppData\Local\Temp\ccZ8Xcmd.s:25022  .debug_str:0000000000011304 .LASF468
C:\Users\CYMR90~1\AppData\Local\Temp\ccZ8Xcmd.s:21544  .debug_str:0000000000003419 .LASF469
C:\Users\CYMR90~1\AppData\Local\Temp\ccZ8Xcmd.s:24784  .debug_str:0000000000010452 .LASF470
C:\Users\CYMR90~1\AppData\Local\Temp\ccZ8Xcmd.s:24660  .debug_str:000000000000fccb .LASF471
C:\Users\CYMR90~1\AppData\Local\Temp\ccZ8Xcmd.s:24242  .debug_str:000000000000e280 .LASF472
C:\Users\CYMR90~1\AppData\Local\Temp\ccZ8Xcmd.s:20924  .debug_str:0000000000000d42 .LASF473
C:\Users\CYMR90~1\AppData\Local\Temp\ccZ8Xcmd.s:22508  .debug_str:00000000000071ae .LASF474
C:\Users\CYMR90~1\AppData\Local\Temp\ccZ8Xcmd.s:20870  .debug_str:00000000000009f5 .LASF475
C:\Users\CYMR90~1\AppData\Local\Temp\ccZ8Xcmd.s:21712  .debug_str:0000000000003edf .LASF476
C:\Users\CYMR90~1\AppData\Local\Temp\ccZ8Xcmd.s:21084  .debug_str:00000000000017ba .LASF477
C:\Users\CYMR90~1\AppData\Local\Temp\ccZ8Xcmd.s:26156  .debug_str:0000000000015be8 .LASF478
C:\Users\CYMR90~1\AppData\Local\Temp\ccZ8Xcmd.s:23554  .debug_str:000000000000b5ba .LASF479
C:\Users\CYMR90~1\AppData\Local\Temp\ccZ8Xcmd.s:31381  .debug_str:000000000002a9b7 .LASF480
C:\Users\CYMR90~1\AppData\Local\Temp\ccZ8Xcmd.s:26751  .debug_str:00000000000182f1 .LASF481
C:\Users\CYMR90~1\AppData\Local\Temp\ccZ8Xcmd.s:23474  .debug_str:000000000000b04e .LASF482
C:\Users\CYMR90~1\AppData\Local\Temp\ccZ8Xcmd.s:22288  .debug_str:0000000000006334 .LASF483
C:\Users\CYMR90~1\AppData\Local\Temp\ccZ8Xcmd.s:20836  .debug_str:00000000000007b3 .LASF484
C:\Users\CYMR90~1\AppData\Local\Temp\ccZ8Xcmd.s:26699  .debug_str:0000000000017fdb .LASF485
C:\Users\CYMR90~1\AppData\Local\Temp\ccZ8Xcmd.s:21922  .debug_str:0000000000004d1a .LASF486
C:\Users\CYMR90~1\AppData\Local\Temp\ccZ8Xcmd.s:25610  .debug_str:0000000000013a90 .LASF487
C:\Users\CYMR90~1\AppData\Local\Temp\ccZ8Xcmd.s:24810  .debug_str:00000000000105f9 .LASF488
C:\Users\CYMR90~1\AppData\Local\Temp\ccZ8Xcmd.s:25374  .debug_str:0000000000012adc .LASF489
C:\Users\CYMR90~1\AppData\Local\Temp\ccZ8Xcmd.s:23832  .debug_str:000000000000c932 .LASF490
C:\Users\CYMR90~1\AppData\Local\Temp\ccZ8Xcmd.s:22818  .debug_str:000000000000868b .LASF491
C:\Users\CYMR90~1\AppData\Local\Temp\ccZ8Xcmd.s:24464  .debug_str:000000000000f01f .LASF492
C:\Users\CYMR90~1\AppData\Local\Temp\ccZ8Xcmd.s:24774  .debug_str:00000000000103da .LASF493
C:\Users\CYMR90~1\AppData\Local\Temp\ccZ8Xcmd.s:24666  .debug_str:000000000000fd3f .LASF494
C:\Users\CYMR90~1\AppData\Local\Temp\ccZ8Xcmd.s:26945  .debug_str:000000000001904a .LASF495
C:\Users\CYMR90~1\AppData\Local\Temp\ccZ8Xcmd.s:31833  .debug_str:000000000002c76e .LASF496
C:\Users\CYMR90~1\AppData\Local\Temp\ccZ8Xcmd.s:31771  .debug_str:000000000002c3a9 .LASF497
C:\Users\CYMR90~1\AppData\Local\Temp\ccZ8Xcmd.s:24510  .debug_str:000000000000f2f5 .LASF498
C:\Users\CYMR90~1\AppData\Local\Temp\ccZ8Xcmd.s:30991  .debug_str:00000000000291a4 .LASF499
C:\Users\CYMR90~1\AppData\Local\Temp\ccZ8Xcmd.s:31095  .debug_str:000000000002987f .LASF500
C:\Users\CYMR90~1\AppData\Local\Temp\ccZ8Xcmd.s:27167  .debug_str:0000000000019e3b .LASF501
C:\Users\CYMR90~1\AppData\Local\Temp\ccZ8Xcmd.s:31049  .debug_str:00000000000295c8 .LASF502
C:\Users\CYMR90~1\AppData\Local\Temp\ccZ8Xcmd.s:25766  .debug_str:0000000000014394 .LASF503
C:\Users\CYMR90~1\AppData\Local\Temp\ccZ8Xcmd.s:21412  .debug_str:0000000000002b62 .LASF504
C:\Users\CYMR90~1\AppData\Local\Temp\ccZ8Xcmd.s:29675  .debug_str:0000000000023ad5 .LASF505
C:\Users\CYMR90~1\AppData\Local\Temp\ccZ8Xcmd.s:30555  .debug_str:0000000000027539 .LASF506
C:\Users\CYMR90~1\AppData\Local\Temp\ccZ8Xcmd.s:30127  .debug_str:0000000000025a8c .LASF507
C:\Users\CYMR90~1\AppData\Local\Temp\ccZ8Xcmd.s:26867  .debug_str:0000000000018a1d .LASF508
C:\Users\CYMR90~1\AppData\Local\Temp\ccZ8Xcmd.s:29093  .debug_str:0000000000021863 .LASF509
C:\Users\CYMR90~1\AppData\Local\Temp\ccZ8Xcmd.s:30783  .debug_str:00000000000284d1 .LASF510
C:\Users\CYMR90~1\AppData\Local\Temp\ccZ8Xcmd.s:26639  .debug_str:0000000000017c63 .LASF511
C:\Users\CYMR90~1\AppData\Local\Temp\ccZ8Xcmd.s:30403  .debug_str:0000000000026b52 .LASF512
C:\Users\CYMR90~1\AppData\Local\Temp\ccZ8Xcmd.s:30527  .debug_str:00000000000273b2 .LASF513
C:\Users\CYMR90~1\AppData\Local\Temp\ccZ8Xcmd.s:30973  .debug_str:00000000000290a2 .LASF514
C:\Users\CYMR90~1\AppData\Local\Temp\ccZ8Xcmd.s:25540  .debug_str:000000000001363e .LASF515
C:\Users\CYMR90~1\AppData\Local\Temp\ccZ8Xcmd.s:30845  .debug_str:00000000000288f6 .LASF516
C:\Users\CYMR90~1\AppData\Local\Temp\ccZ8Xcmd.s:27011  .debug_str:000000000001943a .LASF517
C:\Users\CYMR90~1\AppData\Local\Temp\ccZ8Xcmd.s:30791  .debug_str:0000000000028585 .LASF518
C:\Users\CYMR90~1\AppData\Local\Temp\ccZ8Xcmd.s:27663  .debug_str:000000000001bee6 .LASF519
C:\Users\CYMR90~1\AppData\Local\Temp\ccZ8Xcmd.s:31743  .debug_str:000000000002c1a7 .LASF520
C:\Users\CYMR90~1\AppData\Local\Temp\ccZ8Xcmd.s:27925  .debug_str:000000000001d0b8 .LASF521
C:\Users\CYMR90~1\AppData\Local\Temp\ccZ8Xcmd.s:30037  .debug_str:00000000000253fb .LASF522
C:\Users\CYMR90~1\AppData\Local\Temp\ccZ8Xcmd.s:25420  .debug_str:0000000000012dcf .LASF523
C:\Users\CYMR90~1\AppData\Local\Temp\ccZ8Xcmd.s:29589  .debug_str:00000000000235f0 .LASF524
C:\Users\CYMR90~1\AppData\Local\Temp\ccZ8Xcmd.s:23034  .debug_str:00000000000093cd .LASF525
C:\Users\CYMR90~1\AppData\Local\Temp\ccZ8Xcmd.s:31763  .debug_str:000000000002c2bd .LASF526
C:\Users\CYMR90~1\AppData\Local\Temp\ccZ8Xcmd.s:24276  .debug_str:000000000000e49d .LASF527
C:\Users\CYMR90~1\AppData\Local\Temp\ccZ8Xcmd.s:25280  .debug_str:000000000001249d .LASF528
C:\Users\CYMR90~1\AppData\Local\Temp\ccZ8Xcmd.s:26132  .debug_str:0000000000015a39 .LASF529
C:\Users\CYMR90~1\AppData\Local\Temp\ccZ8Xcmd.s:26168  .debug_str:0000000000015c95 .LASF530
C:\Users\CYMR90~1\AppData\Local\Temp\ccZ8Xcmd.s:25206  .debug_str:0000000000011ffe .LASF531
C:\Users\CYMR90~1\AppData\Local\Temp\ccZ8Xcmd.s:21472  .debug_str:0000000000002efb .LASF532
C:\Users\CYMR90~1\AppData\Local\Temp\ccZ8Xcmd.s:23952  .debug_str:000000000000d095 .LASF533
C:\Users\CYMR90~1\AppData\Local\Temp\ccZ8Xcmd.s:31599  .debug_str:000000000002b78d .LASF534
C:\Users\CYMR90~1\AppData\Local\Temp\ccZ8Xcmd.s:24462  .debug_str:000000000000efd3 .LASF535
C:\Users\CYMR90~1\AppData\Local\Temp\ccZ8Xcmd.s:29773  .debug_str:00000000000241eb .LASF536
C:\Users\CYMR90~1\AppData\Local\Temp\ccZ8Xcmd.s:31255  .debug_str:000000000002a1ed .LASF537
C:\Users\CYMR90~1\AppData\Local\Temp\ccZ8Xcmd.s:25038  .debug_str:00000000000113f3 .LASF538
C:\Users\CYMR90~1\AppData\Local\Temp\ccZ8Xcmd.s:25614  .debug_str:0000000000013abf .LASF539
C:\Users\CYMR90~1\AppData\Local\Temp\ccZ8Xcmd.s:27721  .debug_str:000000000001c268 .LASF540
C:\Users\CYMR90~1\AppData\Local\Temp\ccZ8Xcmd.s:24048  .debug_str:000000000000d72d .LASF541
C:\Users\CYMR90~1\AppData\Local\Temp\ccZ8Xcmd.s:28011  .debug_str:000000000001d606 .LASF542
C:\Users\CYMR90~1\AppData\Local\Temp\ccZ8Xcmd.s:21816  .debug_str:00000000000045ed .LASF543
C:\Users\CYMR90~1\AppData\Local\Temp\ccZ8Xcmd.s:24206  .debug_str:000000000000e044 .LASF544
C:\Users\CYMR90~1\AppData\Local\Temp\ccZ8Xcmd.s:31035  .debug_str:00000000000294db .LASF545
C:\Users\CYMR90~1\AppData\Local\Temp\ccZ8Xcmd.s:25550  .debug_str:00000000000136d2 .LASF546
C:\Users\CYMR90~1\AppData\Local\Temp\ccZ8Xcmd.s:29283  .debug_str:000000000002239d .LASF547
C:\Users\CYMR90~1\AppData\Local\Temp\ccZ8Xcmd.s:31513  .debug_str:000000000002b201 .LASF548
C:\Users\CYMR90~1\AppData\Local\Temp\ccZ8Xcmd.s:21518  .debug_str:0000000000003257 .LASF549
C:\Users\CYMR90~1\AppData\Local\Temp\ccZ8Xcmd.s:22650  .debug_str:0000000000007a95 .LASF550
C:\Users\CYMR90~1\AppData\Local\Temp\ccZ8Xcmd.s:30299  .debug_str:00000000000264f0 .LASF551
C:\Users\CYMR90~1\AppData\Local\Temp\ccZ8Xcmd.s:22218  .debug_str:0000000000005ee2 .LASF552
C:\Users\CYMR90~1\AppData\Local\Temp\ccZ8Xcmd.s:31273  .debug_str:000000000002a2e9 .LASF553
C:\Users\CYMR90~1\AppData\Local\Temp\ccZ8Xcmd.s:23628  .debug_str:000000000000ba69 .LASF554
C:\Users\CYMR90~1\AppData\Local\Temp\ccZ8Xcmd.s:23810  .debug_str:000000000000c6d0 .LASF555
C:\Users\CYMR90~1\AppData\Local\Temp\ccZ8Xcmd.s:22336  .debug_str:0000000000006635 .LASF556
C:\Users\CYMR90~1\AppData\Local\Temp\ccZ8Xcmd.s:22050  .debug_str:0000000000005485 .LASF557
C:\Users\CYMR90~1\AppData\Local\Temp\ccZ8Xcmd.s:25152  .debug_str:0000000000011c49 .LASF558
C:\Users\CYMR90~1\AppData\Local\Temp\ccZ8Xcmd.s:26893  .debug_str:0000000000018c3e .LASF559
C:\Users\CYMR90~1\AppData\Local\Temp\ccZ8Xcmd.s:30835  .debug_str:000000000002884e .LASF560
C:\Users\CYMR90~1\AppData\Local\Temp\ccZ8Xcmd.s:23624  .debug_str:000000000000ba05 .LASF561
C:\Users\CYMR90~1\AppData\Local\Temp\ccZ8Xcmd.s:24620  .debug_str:000000000000fa19 .LASF562
C:\Users\CYMR90~1\AppData\Local\Temp\ccZ8Xcmd.s:23996  .debug_str:000000000000d3e1 .LASF563
C:\Users\CYMR90~1\AppData\Local\Temp\ccZ8Xcmd.s:23326  .debug_str:000000000000a62a .LASF564
C:\Users\CYMR90~1\AppData\Local\Temp\ccZ8Xcmd.s:29035  .debug_str:00000000000214f5 .LASF565
C:\Users\CYMR90~1\AppData\Local\Temp\ccZ8Xcmd.s:28253  .debug_str:000000000001e4f5 .LASF566
C:\Users\CYMR90~1\AppData\Local\Temp\ccZ8Xcmd.s:25580  .debug_str:000000000001388b .LASF567
C:\Users\CYMR90~1\AppData\Local\Temp\ccZ8Xcmd.s:22220  .debug_str:0000000000005ef6 .LASF568
C:\Users\CYMR90~1\AppData\Local\Temp\ccZ8Xcmd.s:20896  .debug_str:0000000000000bbb .LASF570
C:\Users\CYMR90~1\AppData\Local\Temp\ccZ8Xcmd.s:26523  .debug_str:0000000000017526 .LASF571
C:\Users\CYMR90~1\AppData\Local\Temp\ccZ8Xcmd.s:27659  .debug_str:000000000001bec0 .LASF574
C:\Users\CYMR90~1\AppData\Local\Temp\ccZ8Xcmd.s:21788  .debug_str:0000000000004415 .LASF575
C:\Users\CYMR90~1\AppData\Local\Temp\ccZ8Xcmd.s:25772  .debug_str:000000000001441e .LASF576
C:\Users\CYMR90~1\AppData\Local\Temp\ccZ8Xcmd.s:22746  .debug_str:000000000000823a .LASF577
C:\Users\CYMR90~1\AppData\Local\Temp\ccZ8Xcmd.s:28937  .debug_str:0000000000020ea1 .LASF579
C:\Users\CYMR90~1\AppData\Local\Temp\ccZ8Xcmd.s:28131  .debug_str:000000000001dde8 .LASF580
C:\Users\CYMR90~1\AppData\Local\Temp\ccZ8Xcmd.s:29673  .debug_str:0000000000023acc .LASF581
C:\Users\CYMR90~1\AppData\Local\Temp\ccZ8Xcmd.s:22176  .debug_str:0000000000005c4f .LASF582
C:\Users\CYMR90~1\AppData\Local\Temp\ccZ8Xcmd.s:24766  .debug_str:000000000001034a .LASF583
C:\Users\CYMR90~1\AppData\Local\Temp\ccZ8Xcmd.s:21364  .debug_str:0000000000002861 .LASF584
C:\Users\CYMR90~1\AppData\Local\Temp\ccZ8Xcmd.s:31129  .debug_str:0000000000029aa0 .LASF585
C:\Users\CYMR90~1\AppData\Local\Temp\ccZ8Xcmd.s:29329  .debug_str:0000000000022668 .LASF586
C:\Users\CYMR90~1\AppData\Local\Temp\ccZ8Xcmd.s:27541  .debug_str:000000000001b795 .LASF587
C:\Users\CYMR90~1\AppData\Local\Temp\ccZ8Xcmd.s:23324  .debug_str:000000000000a61a .LASF588
C:\Users\CYMR90~1\AppData\Local\Temp\ccZ8Xcmd.s:26803  .debug_str:00000000000185f6 .LASF589
C:\Users\CYMR90~1\AppData\Local\Temp\ccZ8Xcmd.s:27181  .debug_str:0000000000019efb .LASF590
C:\Users\CYMR90~1\AppData\Local\Temp\ccZ8Xcmd.s:28003  .debug_str:000000000001d5a2 .LASF591
C:\Users\CYMR90~1\AppData\Local\Temp\ccZ8Xcmd.s:27793  .debug_str:000000000001c745 .LASF592
C:\Users\CYMR90~1\AppData\Local\Temp\ccZ8Xcmd.s:29661  .debug_str:0000000000023a29 .LASF593
C:\Users\CYMR90~1\AppData\Local\Temp\ccZ8Xcmd.s:24728  .debug_str:000000000001010a .LASF594
C:\Users\CYMR90~1\AppData\Local\Temp\ccZ8Xcmd.s:25608  .debug_str:0000000000013a70 .LASF595
C:\Users\CYMR90~1\AppData\Local\Temp\ccZ8Xcmd.s:25332  .debug_str:000000000001281c .LASF596
C:\Users\CYMR90~1\AppData\Local\Temp\ccZ8Xcmd.s:22510  .debug_str:00000000000071cd .LASF597
C:\Users\CYMR90~1\AppData\Local\Temp\ccZ8Xcmd.s:30649  .debug_str:0000000000027b75 .LASF598
C:\Users\CYMR90~1\AppData\Local\Temp\ccZ8Xcmd.s:25498  .debug_str:0000000000013390 .LASF599
C:\Users\CYMR90~1\AppData\Local\Temp\ccZ8Xcmd.s:28467  .debug_str:000000000001f1db .LASF600
C:\Users\CYMR90~1\AppData\Local\Temp\ccZ8Xcmd.s:27729  .debug_str:000000000001c2ca .LASF601
C:\Users\CYMR90~1\AppData\Local\Temp\ccZ8Xcmd.s:30133  .debug_str:0000000000025adf .LASF602
C:\Users\CYMR90~1\AppData\Local\Temp\ccZ8Xcmd.s:30851  .debug_str:0000000000028958 .LASF603
C:\Users\CYMR90~1\AppData\Local\Temp\ccZ8Xcmd.s:30739  .debug_str:0000000000028207 .LASF604
C:\Users\CYMR90~1\AppData\Local\Temp\ccZ8Xcmd.s:25448  .debug_str:0000000000012fbc .LASF605
C:\Users\CYMR90~1\AppData\Local\Temp\ccZ8Xcmd.s:29475  .debug_str:0000000000022ee9 .LASF606
C:\Users\CYMR90~1\AppData\Local\Temp\ccZ8Xcmd.s:23102  .debug_str:000000000000989f .LASF607
C:\Users\CYMR90~1\AppData\Local\Temp\ccZ8Xcmd.s:22604  .debug_str:000000000000779f .LASF608
C:\Users\CYMR90~1\AppData\Local\Temp\ccZ8Xcmd.s:23386  .debug_str:000000000000aa08 .LASF609
C:\Users\CYMR90~1\AppData\Local\Temp\ccZ8Xcmd.s:27579  .debug_str:000000000001b97b .LASF610
C:\Users\CYMR90~1\AppData\Local\Temp\ccZ8Xcmd.s:22144  .debug_str:0000000000005a6d .LASF611
C:\Users\CYMR90~1\AppData\Local\Temp\ccZ8Xcmd.s:29257  .debug_str:0000000000022239 .LASF612
C:\Users\CYMR90~1\AppData\Local\Temp\ccZ8Xcmd.s:25996  .debug_str:0000000000015245 .LASF613
C:\Users\CYMR90~1\AppData\Local\Temp\ccZ8Xcmd.s:22670  .debug_str:0000000000007c8f .LASF614
C:\Users\CYMR90~1\AppData\Local\Temp\ccZ8Xcmd.s:20796  .debug_str:0000000000000558 .LASF615
C:\Users\CYMR90~1\AppData\Local\Temp\ccZ8Xcmd.s:26240  .debug_str:0000000000016147 .LASF616
C:\Users\CYMR90~1\AppData\Local\Temp\ccZ8Xcmd.s:27217  .debug_str:000000000001a129 .LASF617
C:\Users\CYMR90~1\AppData\Local\Temp\ccZ8Xcmd.s:26372  .debug_str:0000000000016a81 .LASF618
C:\Users\CYMR90~1\AppData\Local\Temp\ccZ8Xcmd.s:29339  .debug_str:00000000000226ef .LASF619
C:\Users\CYMR90~1\AppData\Local\Temp\ccZ8Xcmd.s:23644  .debug_str:000000000000bc03 .LASF620
C:\Users\CYMR90~1\AppData\Local\Temp\ccZ8Xcmd.s:22418  .debug_str:0000000000006b7c .LASF621
C:\Users\CYMR90~1\AppData\Local\Temp\ccZ8Xcmd.s:29537  .debug_str:000000000002326c .LASF622
C:\Users\CYMR90~1\AppData\Local\Temp\ccZ8Xcmd.s:28639  .debug_str:000000000001fc7d .LASF623
C:\Users\CYMR90~1\AppData\Local\Temp\ccZ8Xcmd.s:30607  .debug_str:000000000002783c .LASF624
C:\Users\CYMR90~1\AppData\Local\Temp\ccZ8Xcmd.s:31229  .debug_str:000000000002a08a .LASF625
C:\Users\CYMR90~1\AppData\Local\Temp\ccZ8Xcmd.s:25678  .debug_str:0000000000013e56 .LASF626
C:\Users\CYMR90~1\AppData\Local\Temp\ccZ8Xcmd.s:31479  .debug_str:000000000002af83 .LASF627
C:\Users\CYMR90~1\AppData\Local\Temp\ccZ8Xcmd.s:26086  .debug_str:0000000000015763 .LASF628
C:\Users\CYMR90~1\AppData\Local\Temp\ccZ8Xcmd.s:29281  .debug_str:0000000000022365 .LASF629
C:\Users\CYMR90~1\AppData\Local\Temp\ccZ8Xcmd.s:22826  .debug_str:0000000000008710 .LASF630
C:\Users\CYMR90~1\AppData\Local\Temp\ccZ8Xcmd.s:24034  .debug_str:000000000000d646 .LASF631
C:\Users\CYMR90~1\AppData\Local\Temp\ccZ8Xcmd.s:29247  .debug_str:0000000000022199 .LASF632
C:\Users\CYMR90~1\AppData\Local\Temp\ccZ8Xcmd.s:23754  .debug_str:000000000000c2cd .LASF633
C:\Users\CYMR90~1\AppData\Local\Temp\ccZ8Xcmd.s:20886  .debug_str:0000000000000b28 .LASF634
C:\Users\CYMR90~1\AppData\Local\Temp\ccZ8Xcmd.s:27119  .debug_str:0000000000019b91 .LASF635
C:\Users\CYMR90~1\AppData\Local\Temp\ccZ8Xcmd.s:26294  .debug_str:00000000000164df .LASF636
C:\Users\CYMR90~1\AppData\Local\Temp\ccZ8Xcmd.s:27891  .debug_str:000000000001cea2 .LASF637
C:\Users\CYMR90~1\AppData\Local\Temp\ccZ8Xcmd.s:21584  .debug_str:0000000000003699 .LASF638
C:\Users\CYMR90~1\AppData\Local\Temp\ccZ8Xcmd.s:25102  .debug_str:000000000001194f .LASF639
C:\Users\CYMR90~1\AppData\Local\Temp\ccZ8Xcmd.s:22682  .debug_str:0000000000007d37 .LASF640
C:\Users\CYMR90~1\AppData\Local\Temp\ccZ8Xcmd.s:25314  .debug_str:00000000000126e0 .LASF641
C:\Users\CYMR90~1\AppData\Local\Temp\ccZ8Xcmd.s:23542  .debug_str:000000000000b4ae .LASF642
C:\Users\CYMR90~1\AppData\Local\Temp\ccZ8Xcmd.s:30591  .debug_str:000000000002772c .LASF643
C:\Users\CYMR90~1\AppData\Local\Temp\ccZ8Xcmd.s:23910  .debug_str:000000000000cde3 .LASF644
C:\Users\CYMR90~1\AppData\Local\Temp\ccZ8Xcmd.s:21760  .debug_str:0000000000004213 .LASF645
C:\Users\CYMR90~1\AppData\Local\Temp\ccZ8Xcmd.s:22566  .debug_str:0000000000007511 .LASF646
C:\Users\CYMR90~1\AppData\Local\Temp\ccZ8Xcmd.s:21510  .debug_str:00000000000031d4 .LASF647
C:\Users\CYMR90~1\AppData\Local\Temp\ccZ8Xcmd.s:21868  .debug_str:00000000000049b6 .LASF648
C:\Users\CYMR90~1\AppData\Local\Temp\ccZ8Xcmd.s:31127  .debug_str:0000000000029a61 .LASF649
C:\Users\CYMR90~1\AppData\Local\Temp\ccZ8Xcmd.s:25018  .debug_str:0000000000011291 .LASF650
C:\Users\CYMR90~1\AppData\Local\Temp\ccZ8Xcmd.s:31245  .debug_str:000000000002a164 .LASF651
C:\Users\CYMR90~1\AppData\Local\Temp\ccZ8Xcmd.s:24630  .debug_str:000000000000fadb .LASF652
C:\Users\CYMR90~1\AppData\Local\Temp\ccZ8Xcmd.s:20780  .debug_str:0000000000000484 .LASF653
C:\Users\CYMR90~1\AppData\Local\Temp\ccZ8Xcmd.s:31465  .debug_str:000000000002aec2 .LASF654
C:\Users\CYMR90~1\AppData\Local\Temp\ccZ8Xcmd.s:22920  .debug_str:0000000000008d51 .LASF655
C:\Users\CYMR90~1\AppData\Local\Temp\ccZ8Xcmd.s:30667  .debug_str:0000000000027c87 .LASF656
C:\Users\CYMR90~1\AppData\Local\Temp\ccZ8Xcmd.s:20828  .debug_str:0000000000000768 .LASF657
C:\Users\CYMR90~1\AppData\Local\Temp\ccZ8Xcmd.s:31295  .debug_str:000000000002a46f .LASF658
C:\Users\CYMR90~1\AppData\Local\Temp\ccZ8Xcmd.s:25412  .debug_str:0000000000012d5b .LASF659
C:\Users\CYMR90~1\AppData\Local\Temp\ccZ8Xcmd.s:27823  .debug_str:000000000001c911 .LASF660
C:\Users\CYMR90~1\AppData\Local\Temp\ccZ8Xcmd.s:24310  .debug_str:000000000000e705 .LASF661
C:\Users\CYMR90~1\AppData\Local\Temp\ccZ8Xcmd.s:28495  .debug_str:000000000001f3ad .LASF662
C:\Users\CYMR90~1\AppData\Local\Temp\ccZ8Xcmd.s:30445  .debug_str:0000000000026e15 .LASF663
C:\Users\CYMR90~1\AppData\Local\Temp\ccZ8Xcmd.s:24998  .debug_str:0000000000011169 .LASF664
C:\Users\CYMR90~1\AppData\Local\Temp\ccZ8Xcmd.s:24990  .debug_str:000000000001110b .LASF665
C:\Users\CYMR90~1\AppData\Local\Temp\ccZ8Xcmd.s:26903  .debug_str:0000000000018d10 .LASF666
C:\Users\CYMR90~1\AppData\Local\Temp\ccZ8Xcmd.s:22156  .debug_str:0000000000005b2e .LASF667
C:\Users\CYMR90~1\AppData\Local\Temp\ccZ8Xcmd.s:31963  .debug_str:000000000002d025 .LASF668
C:\Users\CYMR90~1\AppData\Local\Temp\ccZ8Xcmd.s:22532  .debug_str:000000000000731b .LASF669
C:\Users\CYMR90~1\AppData\Local\Temp\ccZ8Xcmd.s:29129  .debug_str:0000000000021abb .LASF670
C:\Users\CYMR90~1\AppData\Local\Temp\ccZ8Xcmd.s:25394  .debug_str:0000000000012c38 .LASF671
C:\Users\CYMR90~1\AppData\Local\Temp\ccZ8Xcmd.s:28543  .debug_str:000000000001f657 .LASF672
C:\Users\CYMR90~1\AppData\Local\Temp\ccZ8Xcmd.s:29261  .debug_str:000000000002226a .LASF673
C:\Users\CYMR90~1\AppData\Local\Temp\ccZ8Xcmd.s:21150  .debug_str:0000000000001b7b .LASF674
C:\Users\CYMR90~1\AppData\Local\Temp\ccZ8Xcmd.s:26072  .debug_str:0000000000015684 .LASF676
C:\Users\CYMR90~1\AppData\Local\Temp\ccZ8Xcmd.s:29693  .debug_str:0000000000023c08 .LASF677
C:\Users\CYMR90~1\AppData\Local\Temp\ccZ8Xcmd.s:27133  .debug_str:0000000000019c46 .LASF678
C:\Users\CYMR90~1\AppData\Local\Temp\ccZ8Xcmd.s:29793  .debug_str:0000000000024345 .LASF679
C:\Users\CYMR90~1\AppData\Local\Temp\ccZ8Xcmd.s:28249  .debug_str:000000000001e4c9 .LASF680
C:\Users\CYMR90~1\AppData\Local\Temp\ccZ8Xcmd.s:31143  .debug_str:0000000000029b7d .LASF681
C:\Users\CYMR90~1\AppData\Local\Temp\ccZ8Xcmd.s:21762  .debug_str:0000000000004251 .LASF682
C:\Users\CYMR90~1\AppData\Local\Temp\ccZ8Xcmd.s:21684  .debug_str:0000000000003cf3 .LASF683
C:\Users\CYMR90~1\AppData\Local\Temp\ccZ8Xcmd.s:23060  .debug_str:0000000000009595 .LASF684
C:\Users\CYMR90~1\AppData\Local\Temp\ccZ8Xcmd.s:27585  .debug_str:000000000001b9b7 .LASF685
C:\Users\CYMR90~1\AppData\Local\Temp\ccZ8Xcmd.s:28993  .debug_str:0000000000021277 .LASF686
C:\Users\CYMR90~1\AppData\Local\Temp\ccZ8Xcmd.s:26350  .debug_str:00000000000168b2 .LASF687
C:\Users\CYMR90~1\AppData\Local\Temp\ccZ8Xcmd.s:24924  .debug_str:0000000000010d37 .LASF688
C:\Users\CYMR90~1\AppData\Local\Temp\ccZ8Xcmd.s:21564  .debug_str:000000000000352b .LASF689
C:\Users\CYMR90~1\AppData\Local\Temp\ccZ8Xcmd.s:22424  .debug_str:0000000000006bfb .LASF690
C:\Users\CYMR90~1\AppData\Local\Temp\ccZ8Xcmd.s:25264  .debug_str:0000000000012389 .LASF691
C:\Users\CYMR90~1\AppData\Local\Temp\ccZ8Xcmd.s:26112  .debug_str:00000000000158f6 .LASF692
C:\Users\CYMR90~1\AppData\Local\Temp\ccZ8Xcmd.s:22122  .debug_str:0000000000005930 .LASF695
C:\Users\CYMR90~1\AppData\Local\Temp\ccZ8Xcmd.s:26521  .debug_str:000000000001750f .LASF696
C:\Users\CYMR90~1\AppData\Local\Temp\ccZ8Xcmd.s:23936  .debug_str:000000000000cf8f .LASF697
C:\Users\CYMR90~1\AppData\Local\Temp\ccZ8Xcmd.s:27551  .debug_str:000000000001b7f6 .LASF698
C:\Users\CYMR90~1\AppData\Local\Temp\ccZ8Xcmd.s:29733  .debug_str:0000000000023e33 .LASF699
C:\Users\CYMR90~1\AppData\Local\Temp\ccZ8Xcmd.s:25850  .debug_str:00000000000148be .LASF702
C:\Users\CYMR90~1\AppData\Local\Temp\ccZ8Xcmd.s:23080  .debug_str:00000000000096d8 .LASF703
C:\Users\CYMR90~1\AppData\Local\Temp\ccZ8Xcmd.s:28437  .debug_str:000000000001f01a .LASF704
C:\Users\CYMR90~1\AppData\Local\Temp\ccZ8Xcmd.s:21946  .debug_str:0000000000004e74 .LASF705
C:\Users\CYMR90~1\AppData\Local\Temp\ccZ8Xcmd.s:26180  .debug_str:0000000000015d74 .LASF706
C:\Users\CYMR90~1\AppData\Local\Temp\ccZ8Xcmd.s:24508  .debug_str:000000000000f2cf .LASF707
C:\Users\CYMR90~1\AppData\Local\Temp\ccZ8Xcmd.s:30867  .debug_str:0000000000028a50 .LASF708
C:\Users\CYMR90~1\AppData\Local\Temp\ccZ8Xcmd.s:30105  .debug_str:000000000002593c .LASF709
C:\Users\CYMR90~1\AppData\Local\Temp\ccZ8Xcmd.s:24148  .debug_str:000000000000dd0d .LASF710
C:\Users\CYMR90~1\AppData\Local\Temp\ccZ8Xcmd.s:24664  .debug_str:000000000000fd0c .LASF711
C:\Users\CYMR90~1\AppData\Local\Temp\ccZ8Xcmd.s:26324  .debug_str:00000000000166a6 .LASF712
C:\Users\CYMR90~1\AppData\Local\Temp\ccZ8Xcmd.s:23320  .debug_str:000000000000a5c0 .LASF713
C:\Users\CYMR90~1\AppData\Local\Temp\ccZ8Xcmd.s:31685  .debug_str:000000000002bd6c .LASF714
C:\Users\CYMR90~1\AppData\Local\Temp\ccZ8Xcmd.s:22666  .debug_str:0000000000007c2a .LASF715
C:\Users\CYMR90~1\AppData\Local\Temp\ccZ8Xcmd.s:23584  .debug_str:000000000000b767 .LASF716
C:\Users\CYMR90~1\AppData\Local\Temp\ccZ8Xcmd.s:28655  .debug_str:000000000001fd9b .LASF717
C:\Users\CYMR90~1\AppData\Local\Temp\ccZ8Xcmd.s:30061  .debug_str:00000000000255f5 .LASF718
C:\Users\CYMR90~1\AppData\Local\Temp\ccZ8Xcmd.s:29837  .debug_str:00000000000245f0 .LASF719
C:\Users\CYMR90~1\AppData\Local\Temp\ccZ8Xcmd.s:26837  .debug_str:0000000000018868 .LASF720
C:\Users\CYMR90~1\AppData\Local\Temp\ccZ8Xcmd.s:21206  .debug_str:0000000000001ebb .LASF721
C:\Users\CYMR90~1\AppData\Local\Temp\ccZ8Xcmd.s:28767  .debug_str:00000000000204a3 .LASF722
C:\Users\CYMR90~1\AppData\Local\Temp\ccZ8Xcmd.s:27739  .debug_str:000000000001c339 .LASF723
C:\Users\CYMR90~1\AppData\Local\Temp\ccZ8Xcmd.s:28307  .debug_str:000000000001e872 .LASF724
C:\Users\CYMR90~1\AppData\Local\Temp\ccZ8Xcmd.s:29239  .debug_str:0000000000022147 .LASF725
C:\Users\CYMR90~1\AppData\Local\Temp\ccZ8Xcmd.s:25514  .debug_str:000000000001349c .LASF726
C:\Users\CYMR90~1\AppData\Local\Temp\ccZ8Xcmd.s:23314  .debug_str:000000000000a566 .LASF727
C:\Users\CYMR90~1\AppData\Local\Temp\ccZ8Xcmd.s:30199  .debug_str:0000000000025ef4 .LASF728
C:\Users\CYMR90~1\AppData\Local\Temp\ccZ8Xcmd.s:21116  .debug_str:0000000000001995 .LASF729
C:\Users\CYMR90~1\AppData\Local\Temp\ccZ8Xcmd.s:27021  .debug_str:00000000000194d5 .LASF730
C:\Users\CYMR90~1\AppData\Local\Temp\ccZ8Xcmd.s:25486  .debug_str:00000000000132c8 .LASF731
C:\Users\CYMR90~1\AppData\Local\Temp\ccZ8Xcmd.s:30135  .debug_str:0000000000025b1a .LASF732
C:\Users\CYMR90~1\AppData\Local\Temp\ccZ8Xcmd.s:31889  .debug_str:000000000002cb5c .LASF733
C:\Users\CYMR90~1\AppData\Local\Temp\ccZ8Xcmd.s:24974  .debug_str:0000000000011005 .LASF734
C:\Users\CYMR90~1\AppData\Local\Temp\ccZ8Xcmd.s:24900  .debug_str:0000000000010bf4 .LASF735
C:\Users\CYMR90~1\AppData\Local\Temp\ccZ8Xcmd.s:31819  .debug_str:000000000002c682 .LASF736
C:\Users\CYMR90~1\AppData\Local\Temp\ccZ8Xcmd.s:23880  .debug_str:000000000000cbe7 .LASF737
C:\Users\CYMR90~1\AppData\Local\Temp\ccZ8Xcmd.s:27889  .debug_str:000000000001ce91 .LASF738
C:\Users\CYMR90~1\AppData\Local\Temp\ccZ8Xcmd.s:31567  .debug_str:000000000002b583 .LASF739
C:\Users\CYMR90~1\AppData\Local\Temp\ccZ8Xcmd.s:21118  .debug_str:00000000000019a8 .LASF740
C:\Users\CYMR90~1\AppData\Local\Temp\ccZ8Xcmd.s:23816  .debug_str:000000000000c740 .LASF741
C:\Users\CYMR90~1\AppData\Local\Temp\ccZ8Xcmd.s:21094  .debug_str:000000000000185b .LASF742
C:\Users\CYMR90~1\AppData\Local\Temp\ccZ8Xcmd.s:24932  .debug_str:0000000000010d90 .LASF743
C:\Users\CYMR90~1\AppData\Local\Temp\ccZ8Xcmd.s:21548  .debug_str:0000000000003456 .LASF744
C:\Users\CYMR90~1\AppData\Local\Temp\ccZ8Xcmd.s:22932  .debug_str:0000000000008e19 .LASF745
C:\Users\CYMR90~1\AppData\Local\Temp\ccZ8Xcmd.s:29251  .debug_str:00000000000221e8 .LASF746
C:\Users\CYMR90~1\AppData\Local\Temp\ccZ8Xcmd.s:21000  .debug_str:0000000000001209 .LASF747
C:\Users\CYMR90~1\AppData\Local\Temp\ccZ8Xcmd.s:20990  .debug_str:0000000000001185 .LASF748
C:\Users\CYMR90~1\AppData\Local\Temp\ccZ8Xcmd.s:22102  .debug_str:00000000000057b7 .LASF750
C:\Users\CYMR90~1\AppData\Local\Temp\ccZ8Xcmd.s:24852  .debug_str:000000000001084f .LASF751
C:\Users\CYMR90~1\AppData\Local\Temp\ccZ8Xcmd.s:31031  .debug_str:00000000000294bd .LASF752
C:\Users\CYMR90~1\AppData\Local\Temp\ccZ8Xcmd.s:24792  .debug_str:00000000000104e1 .LASF753
C:\Users\CYMR90~1\AppData\Local\Temp\ccZ8Xcmd.s:21988  .debug_str:000000000000510b .LASF754
C:\Users\CYMR90~1\AppData\Local\Temp\ccZ8Xcmd.s:23566  .debug_str:000000000000b660 .LASF755
C:\Users\CYMR90~1\AppData\Local\Temp\ccZ8Xcmd.s:27095  .debug_str:0000000000019a3b .LASF756
C:\Users\CYMR90~1\AppData\Local\Temp\ccZ8Xcmd.s:23068  .debug_str:000000000000960d .LASF757
C:\Users\CYMR90~1\AppData\Local\Temp\ccZ8Xcmd.s:30089  .debug_str:0000000000025854 .LASF758
C:\Users\CYMR90~1\AppData\Local\Temp\ccZ8Xcmd.s:31925  .debug_str:000000000002cdf1 .LASF759
C:\Users\CYMR90~1\AppData\Local\Temp\ccZ8Xcmd.s:27467  .debug_str:000000000001b2ff .LASF760
C:\Users\CYMR90~1\AppData\Local\Temp\ccZ8Xcmd.s:31667  .debug_str:000000000002bc26 .LASF761
C:\Users\CYMR90~1\AppData\Local\Temp\ccZ8Xcmd.s:23492  .debug_str:000000000000b125 .LASF762
C:\Users\CYMR90~1\AppData\Local\Temp\ccZ8Xcmd.s:27475  .debug_str:000000000001b393 .LASF765
C:\Users\CYMR90~1\AppData\Local\Temp\ccZ8Xcmd.s:26150  .debug_str:0000000000015b49 .LASF766
C:\Users\CYMR90~1\AppData\Local\Temp\ccZ8Xcmd.s:29139  .debug_str:0000000000021b51 .LASF767
C:\Users\CYMR90~1\AppData\Local\Temp\ccZ8Xcmd.s:26140  .debug_str:0000000000015ad9 .LASF768
C:\Users\CYMR90~1\AppData\Local\Temp\ccZ8Xcmd.s:21352  .debug_str:00000000000027a0 .LASF769
C:\Users\CYMR90~1\AppData\Local\Temp\ccZ8Xcmd.s:27601  .debug_str:000000000001bafc .LASF770
C:\Users\CYMR90~1\AppData\Local\Temp\ccZ8Xcmd.s:26236  .debug_str:0000000000016121 .LASF771
C:\Users\CYMR90~1\AppData\Local\Temp\ccZ8Xcmd.s:29803  .debug_str:00000000000243cc .LASF772
C:\Users\CYMR90~1\AppData\Local\Temp\ccZ8Xcmd.s:29433  .debug_str:0000000000022cab .LASF773
C:\Users\CYMR90~1\AppData\Local\Temp\ccZ8Xcmd.s:24232  .debug_str:000000000000e1fd .LASF774
C:\Users\CYMR90~1\AppData\Local\Temp\ccZ8Xcmd.s:30137  .debug_str:0000000000025b30 .LASF775
C:\Users\CYMR90~1\AppData\Local\Temp\ccZ8Xcmd.s:23210  .debug_str:0000000000009f5e .LASF776
C:\Users\CYMR90~1\AppData\Local\Temp\ccZ8Xcmd.s:23226  .debug_str:000000000000a062 .LASF777
C:\Users\CYMR90~1\AppData\Local\Temp\ccZ8Xcmd.s:28239  .debug_str:000000000001e428 .LASF778
C:\Users\CYMR90~1\AppData\Local\Temp\ccZ8Xcmd.s:24730  .debug_str:0000000000010132 .LASF779
C:\Users\CYMR90~1\AppData\Local\Temp\ccZ8Xcmd.s:28503  .debug_str:000000000001f422 .LASF780
C:\Users\CYMR90~1\AppData\Local\Temp\ccZ8Xcmd.s:29135  .debug_str:0000000000021b18 .LASF781
C:\Users\CYMR90~1\AppData\Local\Temp\ccZ8Xcmd.s:25216  .debug_str:00000000000120a5 .LASF782
C:\Users\CYMR90~1\AppData\Local\Temp\ccZ8Xcmd.s:26358  .debug_str:00000000000169d5 .LASF783
C:\Users\CYMR90~1\AppData\Local\Temp\ccZ8Xcmd.s:25118  .debug_str:0000000000011a4d .LASF784
C:\Users\CYMR90~1\AppData\Local\Temp\ccZ8Xcmd.s:24408  .debug_str:000000000000ecbe .LASF785
C:\Users\CYMR90~1\AppData\Local\Temp\ccZ8Xcmd.s:21120  .debug_str:00000000000019b9 .LASF786
C:\Users\CYMR90~1\AppData\Local\Temp\ccZ8Xcmd.s:25864  .debug_str:00000000000149e3 .LASF787
C:\Users\CYMR90~1\AppData\Local\Temp\ccZ8Xcmd.s:28173  .debug_str:000000000001e069 .LASF788
C:\Users\CYMR90~1\AppData\Local\Temp\ccZ8Xcmd.s:24590  .debug_str:000000000000f84b .LASF789
C:\Users\CYMR90~1\AppData\Local\Temp\ccZ8Xcmd.s:22036  .debug_str:00000000000053e6 .LASF790
C:\Users\CYMR90~1\AppData\Local\Temp\ccZ8Xcmd.s:30493  .debug_str:00000000000271ab .LASF791
C:\Users\CYMR90~1\AppData\Local\Temp\ccZ8Xcmd.s:22790  .debug_str:00000000000084c3 .LASF792
C:\Users\CYMR90~1\AppData\Local\Temp\ccZ8Xcmd.s:31895  .debug_str:000000000002cbaa .LASF793
C:\Users\CYMR90~1\AppData\Local\Temp\ccZ8Xcmd.s:22576  .debug_str:00000000000075e5 .LASF794
C:\Users\CYMR90~1\AppData\Local\Temp\ccZ8Xcmd.s:30745  .debug_str:0000000000028266 .LASF795
C:\Users\CYMR90~1\AppData\Local\Temp\ccZ8Xcmd.s:28743  .debug_str:00000000000202c5 .LASF796
C:\Users\CYMR90~1\AppData\Local\Temp\ccZ8Xcmd.s:31457  .debug_str:000000000002ae71 .LASF797
C:\Users\CYMR90~1\AppData\Local\Temp\ccZ8Xcmd.s:22408  .debug_str:0000000000006ad9 .LASF798
C:\Users\CYMR90~1\AppData\Local\Temp\ccZ8Xcmd.s:30809  .debug_str:00000000000286c6 .LASF799
C:\Users\CYMR90~1\AppData\Local\Temp\ccZ8Xcmd.s:22002  .debug_str:00000000000051d7 .LASF800
C:\Users\CYMR90~1\AppData\Local\Temp\ccZ8Xcmd.s:27237  .debug_str:000000000001a3d1 .LASF801
C:\Users\CYMR90~1\AppData\Local\Temp\ccZ8Xcmd.s:27265  .debug_str:000000000001a595 .LASF802
C:\Users\CYMR90~1\AppData\Local\Temp\ccZ8Xcmd.s:23132  .debug_str:0000000000009a89 .LASF803
C:\Users\CYMR90~1\AppData\Local\Temp\ccZ8Xcmd.s:25616  .debug_str:0000000000013adf .LASF804
C:\Users\CYMR90~1\AppData\Local\Temp\ccZ8Xcmd.s:22422  .debug_str:0000000000006ba0 .LASF805
C:\Users\CYMR90~1\AppData\Local\Temp\ccZ8Xcmd.s:25070  .debug_str:0000000000011694 .LASF806
C:\Users\CYMR90~1\AppData\Local\Temp\ccZ8Xcmd.s:28195  .debug_str:000000000001e17f .LASF807
C:\Users\CYMR90~1\AppData\Local\Temp\ccZ8Xcmd.s:27789  .debug_str:000000000001c6f5 .LASF808
C:\Users\CYMR90~1\AppData\Local\Temp\ccZ8Xcmd.s:30209  .debug_str:0000000000025f8b .LASF809
C:\Users\CYMR90~1\AppData\Local\Temp\ccZ8Xcmd.s:31671  .debug_str:000000000002bc7b .LASF810
C:\Users\CYMR90~1\AppData\Local\Temp\ccZ8Xcmd.s:22816  .debug_str:0000000000008652 .LASF811
C:\Users\CYMR90~1\AppData\Local\Temp\ccZ8Xcmd.s:21744  .debug_str:0000000000004149 .LASF812
C:\Users\CYMR90~1\AppData\Local\Temp\ccZ8Xcmd.s:31705  .debug_str:000000000002bf2f .LASF813
C:\Users\CYMR90~1\AppData\Local\Temp\ccZ8Xcmd.s:22098  .debug_str:0000000000005790 .LASF814
C:\Users\CYMR90~1\AppData\Local\Temp\ccZ8Xcmd.s:22318  .debug_str:00000000000064fc .LASF815
C:\Users\CYMR90~1\AppData\Local\Temp\ccZ8Xcmd.s:27565  .debug_str:000000000001b8ae .LASF816
C:\Users\CYMR90~1\AppData\Local\Temp\ccZ8Xcmd.s:22998  .debug_str:00000000000091c6 .LASF817
C:\Users\CYMR90~1\AppData\Local\Temp\ccZ8Xcmd.s:27709  .debug_str:000000000001c1bf .LASF818
C:\Users\CYMR90~1\AppData\Local\Temp\ccZ8Xcmd.s:27605  .debug_str:000000000001bb14 .LASF819
C:\Users\CYMR90~1\AppData\Local\Temp\ccZ8Xcmd.s:20872  .debug_str:0000000000000a2e .LASF820
C:\Users\CYMR90~1\AppData\Local\Temp\ccZ8Xcmd.s:31297  .debug_str:000000000002a47f .LASF821
C:\Users\CYMR90~1\AppData\Local\Temp\ccZ8Xcmd.s:29797  .debug_str:0000000000024383 .LASF822
C:\Users\CYMR90~1\AppData\Local\Temp\ccZ8Xcmd.s:22964  .debug_str:0000000000008fa8 .LASF823
C:\Users\CYMR90~1\AppData\Local\Temp\ccZ8Xcmd.s:26282  .debug_str:000000000001643c .LASF824
C:\Users\CYMR90~1\AppData\Local\Temp\ccZ8Xcmd.s:27893  .debug_str:000000000001cecc .LASF825
C:\Users\CYMR90~1\AppData\Local\Temp\ccZ8Xcmd.s:26070  .debug_str:0000000000015663 .LASF826
C:\Users\CYMR90~1\AppData\Local\Temp\ccZ8Xcmd.s:21632  .debug_str:00000000000039d3 .LASF827
C:\Users\CYMR90~1\AppData\Local\Temp\ccZ8Xcmd.s:24388  .debug_str:000000000000ebb1 .LASF828
C:\Users\CYMR90~1\AppData\Local\Temp\ccZ8Xcmd.s:29905  .debug_str:0000000000024aa9 .LASF829
C:\Users\CYMR90~1\AppData\Local\Temp\ccZ8Xcmd.s:30079  .debug_str:0000000000025794 .LASF830
C:\Users\CYMR90~1\AppData\Local\Temp\ccZ8Xcmd.s:23572  .debug_str:000000000000b6bb .LASF831
C:\Users\CYMR90~1\AppData\Local\Temp\ccZ8Xcmd.s:24334  .debug_str:000000000000e88f .LASF832
C:\Users\CYMR90~1\AppData\Local\Temp\ccZ8Xcmd.s:22184  .debug_str:0000000000005cbb .LASF833
C:\Users\CYMR90~1\AppData\Local\Temp\ccZ8Xcmd.s:24976  .debug_str:0000000000011016 .LASF834
C:\Users\CYMR90~1\AppData\Local\Temp\ccZ8Xcmd.s:26761  .debug_str:00000000000183b7 .LASF835
C:\Users\CYMR90~1\AppData\Local\Temp\ccZ8Xcmd.s:24882  .debug_str:0000000000010a81 .LASF836
C:\Users\CYMR90~1\AppData\Local\Temp\ccZ8Xcmd.s:28647  .debug_str:000000000001fd1f .LASF837
C:\Users\CYMR90~1\AppData\Local\Temp\ccZ8Xcmd.s:22862  .debug_str:0000000000008968 .LASF838
C:\Users\CYMR90~1\AppData\Local\Temp\ccZ8Xcmd.s:22024  .debug_str:0000000000005347 .LASF839
C:\Users\CYMR90~1\AppData\Local\Temp\ccZ8Xcmd.s:24780  .debug_str:000000000001041f .LASF840
C:\Users\CYMR90~1\AppData\Local\Temp\ccZ8Xcmd.s:23962  .debug_str:000000000000d179 .LASF841
C:\Users\CYMR90~1\AppData\Local\Temp\ccZ8Xcmd.s:27805  .debug_str:000000000001c80b .LASF842
C:\Users\CYMR90~1\AppData\Local\Temp\ccZ8Xcmd.s:20944  .debug_str:0000000000000efb .LASF843
C:\Users\CYMR90~1\AppData\Local\Temp\ccZ8Xcmd.s:21290  .debug_str:000000000000236c .LASF844
C:\Users\CYMR90~1\AppData\Local\Temp\ccZ8Xcmd.s:29653  .debug_str:00000000000239bc .LASF845
C:\Users\CYMR90~1\AppData\Local\Temp\ccZ8Xcmd.s:20710  .debug_str:00000000000000bf .LASF846
C:\Users\CYMR90~1\AppData\Local\Temp\ccZ8Xcmd.s:22656  .debug_str:0000000000007b9d .LASF847
C:\Users\CYMR90~1\AppData\Local\Temp\ccZ8Xcmd.s:28507  .debug_str:000000000001f454 .LASF848
C:\Users\CYMR90~1\AppData\Local\Temp\ccZ8Xcmd.s:22624  .debug_str:0000000000007914 .LASF849
C:\Users\CYMR90~1\AppData\Local\Temp\ccZ8Xcmd.s:23992  .debug_str:000000000000d3b3 .LASF852
C:\Users\CYMR90~1\AppData\Local\Temp\ccZ8Xcmd.s:30861  .debug_str:00000000000289f8 .LASF853
C:\Users\CYMR90~1\AppData\Local\Temp\ccZ8Xcmd.s:25924  .debug_str:0000000000014e06 .LASF854
C:\Users\CYMR90~1\AppData\Local\Temp\ccZ8Xcmd.s:29145  .debug_str:0000000000021bdd .LASF856
C:\Users\CYMR90~1\AppData\Local\Temp\ccZ8Xcmd.s:28031  .debug_str:000000000001d755 .LASF857
C:\Users\CYMR90~1\AppData\Local\Temp\ccZ8Xcmd.s:30679  .debug_str:0000000000027d3b .LASF858
C:\Users\CYMR90~1\AppData\Local\Temp\ccZ8Xcmd.s:23980  .debug_str:000000000000d2e8 .LASF859
C:\Users\CYMR90~1\AppData\Local\Temp\ccZ8Xcmd.s:24930  .debug_str:0000000000010d86 .LASF860
C:\Users\CYMR90~1\AppData\Local\Temp\ccZ8Xcmd.s:29075  .debug_str:0000000000021766 .LASF861
C:\Users\CYMR90~1\AppData\Local\Temp\ccZ8Xcmd.s:28231  .debug_str:000000000001e3d8 .LASF862
C:\Users\CYMR90~1\AppData\Local\Temp\ccZ8Xcmd.s:21036  .debug_str:0000000000001427 .LASF863
C:\Users\CYMR90~1\AppData\Local\Temp\ccZ8Xcmd.s:21688  .debug_str:0000000000003d21 .LASF864
C:\Users\CYMR90~1\AppData\Local\Temp\ccZ8Xcmd.s:22068  .debug_str:00000000000055d2 .LASF865
C:\Users\CYMR90~1\AppData\Local\Temp\ccZ8Xcmd.s:23262  .debug_str:000000000000a2a4 .LASF866
C:\Users\CYMR90~1\AppData\Local\Temp\ccZ8Xcmd.s:22726  .debug_str:00000000000080c6 .LASF867
C:\Users\CYMR90~1\AppData\Local\Temp\ccZ8Xcmd.s:27961  .debug_str:000000000001d2dd .LASF868
C:\Users\CYMR90~1\AppData\Local\Temp\ccZ8Xcmd.s:28589  .debug_str:000000000001f96c .LASF869
C:\Users\CYMR90~1\AppData\Local\Temp\ccZ8Xcmd.s:29667  .debug_str:0000000000023a85 .LASF870
C:\Users\CYMR90~1\AppData\Local\Temp\ccZ8Xcmd.s:22900  .debug_str:0000000000008c05 .LASF871
C:\Users\CYMR90~1\AppData\Local\Temp\ccZ8Xcmd.s:23338  .debug_str:000000000000a71d .LASF872
C:\Users\CYMR90~1\AppData\Local\Temp\ccZ8Xcmd.s:27797  .debug_str:000000000001c799 .LASF873
C:\Users\CYMR90~1\AppData\Local\Temp\ccZ8Xcmd.s:30377  .debug_str:00000000000269d7 .LASF874
C:\Users\CYMR90~1\AppData\Local\Temp\ccZ8Xcmd.s:28017  .debug_str:000000000001d674 .LASF875
C:\Users\CYMR90~1\AppData\Local\Temp\ccZ8Xcmd.s:25828  .debug_str:00000000000147c1 .LASF876
C:\Users\CYMR90~1\AppData\Local\Temp\ccZ8Xcmd.s:23138  .debug_str:0000000000009ade .LASF877
C:\Users\CYMR90~1\AppData\Local\Temp\ccZ8Xcmd.s:27505  .debug_str:000000000001b56e .LASF878
C:\Users\CYMR90~1\AppData\Local\Temp\ccZ8Xcmd.s:29987  .debug_str:000000000002502c .LASF879
C:\Users\CYMR90~1\AppData\Local\Temp\ccZ8Xcmd.s:26469  .debug_str:00000000000171fc .LASF880
C:\Users\CYMR90~1\AppData\Local\Temp\ccZ8Xcmd.s:22004  .debug_str:00000000000051f0 .LASF881
C:\Users\CYMR90~1\AppData\Local\Temp\ccZ8Xcmd.s:25352  .debug_str:0000000000012994 .LASF882
C:\Users\CYMR90~1\AppData\Local\Temp\ccZ8Xcmd.s:28481  .debug_str:000000000001f2f4 .LASF883
C:\Users\CYMR90~1\AppData\Local\Temp\ccZ8Xcmd.s:28659  .debug_str:000000000001fdc8 .LASF884
C:\Users\CYMR90~1\AppData\Local\Temp\ccZ8Xcmd.s:31949  .debug_str:000000000002cf39 .LASF885
C:\Users\CYMR90~1\AppData\Local\Temp\ccZ8Xcmd.s:27511  .debug_str:000000000001b5c6 .LASF886
C:\Users\CYMR90~1\AppData\Local\Temp\ccZ8Xcmd.s:23010  .debug_str:000000000000926d .LASF887
C:\Users\CYMR90~1\AppData\Local\Temp\ccZ8Xcmd.s:29619  .debug_str:00000000000237d2 .LASF888
C:\Users\CYMR90~1\AppData\Local\Temp\ccZ8Xcmd.s:25290  .debug_str:000000000001255e .LASF889
C:\Users\CYMR90~1\AppData\Local\Temp\ccZ8Xcmd.s:29553  .debug_str:0000000000023380 .LASF890
C:\Users\CYMR90~1\AppData\Local\Temp\ccZ8Xcmd.s:21832  .debug_str:000000000000479e .LASF891
C:\Users\CYMR90~1\AppData\Local\Temp\ccZ8Xcmd.s:24284  .debug_str:000000000000e561 .LASF892
C:\Users\CYMR90~1\AppData\Local\Temp\ccZ8Xcmd.s:30325  .debug_str:00000000000266cc .LASF893
C:\Users\CYMR90~1\AppData\Local\Temp\ccZ8Xcmd.s:29713  .debug_str:0000000000023d2a .LASF894
C:\Users\CYMR90~1\AppData\Local\Temp\ccZ8Xcmd.s:21012  .debug_str:00000000000012b3 .LASF895
C:\Users\CYMR90~1\AppData\Local\Temp\ccZ8Xcmd.s:25680  .debug_str:0000000000013e8e .LASF896
C:\Users\CYMR90~1\AppData\Local\Temp\ccZ8Xcmd.s:21916  .debug_str:0000000000004ca7 .LASF897
C:\Users\CYMR90~1\AppData\Local\Temp\ccZ8Xcmd.s:23128  .debug_str:0000000000009a4a .LASF898
C:\Users\CYMR90~1\AppData\Local\Temp\ccZ8Xcmd.s:30619  .debug_str:000000000002794c .LASF899
C:\Users\CYMR90~1\AppData\Local\Temp\ccZ8Xcmd.s:23450  .debug_str:000000000000aeda .LASF900
C:\Users\CYMR90~1\AppData\Local\Temp\ccZ8Xcmd.s:27557  .debug_str:000000000001b82c .LASF901
C:\Users\CYMR90~1\AppData\Local\Temp\ccZ8Xcmd.s:31165  .debug_str:0000000000029cd8 .LASF902
C:\Users\CYMR90~1\AppData\Local\Temp\ccZ8Xcmd.s:29903  .debug_str:0000000000024a83 .LASF903
C:\Users\CYMR90~1\AppData\Local\Temp\ccZ8Xcmd.s:30767  .debug_str:00000000000283d1 .LASF904
C:\Users\CYMR90~1\AppData\Local\Temp\ccZ8Xcmd.s:25336  .debug_str:0000000000012886 .LASF905
C:\Users\CYMR90~1\AppData\Local\Temp\ccZ8Xcmd.s:22778  .debug_str:0000000000008429 .LASF906
C:\Users\CYMR90~1\AppData\Local\Temp\ccZ8Xcmd.s:31339  .debug_str:000000000002a767 .LASF907
C:\Users\CYMR90~1\AppData\Local\Temp\ccZ8Xcmd.s:24280  .debug_str:000000000000e51e .LASF908
C:\Users\CYMR90~1\AppData\Local\Temp\ccZ8Xcmd.s:30595  .debug_str:000000000002778c .LASF909
C:\Users\CYMR90~1\AppData\Local\Temp\ccZ8Xcmd.s:24902  .debug_str:0000000000010c05 .LASF910
C:\Users\CYMR90~1\AppData\Local\Temp\ccZ8Xcmd.s:21386  .debug_str:00000000000029bc .LASF911
C:\Users\CYMR90~1\AppData\Local\Temp\ccZ8Xcmd.s:20984  .debug_str:0000000000001148 .LASF912
C:\Users\CYMR90~1\AppData\Local\Temp\ccZ8Xcmd.s:28995  .debug_str:000000000002129b .LASF913
C:\Users\CYMR90~1\AppData\Local\Temp\ccZ8Xcmd.s:29885  .debug_str:000000000002496b .LASF914
C:\Users\CYMR90~1\AppData\Local\Temp\ccZ8Xcmd.s:23828  .debug_str:000000000000c812 .LASF915
C:\Users\CYMR90~1\AppData\Local\Temp\ccZ8Xcmd.s:26439  .debug_str:0000000000017039 .LASF916
C:\Users\CYMR90~1\AppData\Local\Temp\ccZ8Xcmd.s:24712  .debug_str:0000000000010004 .LASF917
C:\Users\CYMR90~1\AppData\Local\Temp\ccZ8Xcmd.s:31413  .debug_str:000000000002ab8f .LASF918
C:\Users\CYMR90~1\AppData\Local\Temp\ccZ8Xcmd.s:20970  .debug_str:0000000000001054 .LASF919
C:\Users\CYMR90~1\AppData\Local\Temp\ccZ8Xcmd.s:23436  .debug_str:000000000000adf9 .LASF920
C:\Users\CYMR90~1\AppData\Local\Temp\ccZ8Xcmd.s:29839  .debug_str:0000000000024605 .LASF921
C:\Users\CYMR90~1\AppData\Local\Temp\ccZ8Xcmd.s:27259  .debug_str:000000000001a523 .LASF922
C:\Users\CYMR90~1\AppData\Local\Temp\ccZ8Xcmd.s:30357  .debug_str:00000000000268ac .LASF923
C:\Users\CYMR90~1\AppData\Local\Temp\ccZ8Xcmd.s:26397  .debug_str:0000000000016ddc .LASF924
C:\Users\CYMR90~1\AppData\Local\Temp\ccZ8Xcmd.s:21344  .debug_str:000000000000270d .LASF925
C:\Users\CYMR90~1\AppData\Local\Temp\ccZ8Xcmd.s:27469  .debug_str:000000000001b339 .LASF926
C:\Users\CYMR90~1\AppData\Local\Temp\ccZ8Xcmd.s:21074  .debug_str:000000000000170f .LASF927
C:\Users\CYMR90~1\AppData\Local\Temp\ccZ8Xcmd.s:25856  .debug_str:000000000001495d .LASF928
C:\Users\CYMR90~1\AppData\Local\Temp\ccZ8Xcmd.s:28539  .debug_str:000000000001f61e .LASF929
C:\Users\CYMR90~1\AppData\Local\Temp\ccZ8Xcmd.s:31669  .debug_str:000000000002bc5e .LASF930
C:\Users\CYMR90~1\AppData\Local\Temp\ccZ8Xcmd.s:31887  .debug_str:000000000002cb3e .LASF931
C:\Users\CYMR90~1\AppData\Local\Temp\ccZ8Xcmd.s:28439  .debug_str:000000000001f02e .LASF932
C:\Users\CYMR90~1\AppData\Local\Temp\ccZ8Xcmd.s:31145  .debug_str:0000000000029b8d .LASF933
C:\Users\CYMR90~1\AppData\Local\Temp\ccZ8Xcmd.s:26200  .debug_str:0000000000015efc .LASF934
C:\Users\CYMR90~1\AppData\Local\Temp\ccZ8Xcmd.s:27029  .debug_str:000000000001954f .LASF935
C:\Users\CYMR90~1\AppData\Local\Temp\ccZ8Xcmd.s:26074  .debug_str:0000000000015698 .LASF936
C:\Users\CYMR90~1\AppData\Local\Temp\ccZ8Xcmd.s:29977  .debug_str:0000000000024fa3 .LASF937
C:\Users\CYMR90~1\AppData\Local\Temp\ccZ8Xcmd.s:20890  .debug_str:0000000000000b61 .LASF938
C:\Users\CYMR90~1\AppData\Local\Temp\ccZ8Xcmd.s:28805  .debug_str:00000000000206d4 .LASF939
C:\Users\CYMR90~1\AppData\Local\Temp\ccZ8Xcmd.s:30063  .debug_str:0000000000025601 .LASF940
C:\Users\CYMR90~1\AppData\Local\Temp\ccZ8Xcmd.s:23574  .debug_str:000000000000b6d9 .LASF941
C:\Users\CYMR90~1\AppData\Local\Temp\ccZ8Xcmd.s:27247  .debug_str:000000000001a46a .LASF942
C:\Users\CYMR90~1\AppData\Local\Temp\ccZ8Xcmd.s:24322  .debug_str:000000000000e79d .LASF943
C:\Users\CYMR90~1\AppData\Local\Temp\ccZ8Xcmd.s:30003  .debug_str:00000000000251cf .LASF944
C:\Users\CYMR90~1\AppData\Local\Temp\ccZ8Xcmd.s:27653  .debug_str:000000000001be66 .LASF945
C:\Users\CYMR90~1\AppData\Local\Temp\ccZ8Xcmd.s:24530  .debug_str:000000000000f41d .LASF946
C:\Users\CYMR90~1\AppData\Local\Temp\ccZ8Xcmd.s:26547  .debug_str:00000000000176b7 .LASF947
C:\Users\CYMR90~1\AppData\Local\Temp\ccZ8Xcmd.s:21854  .debug_str:00000000000048f0 .LASF948
C:\Users\CYMR90~1\AppData\Local\Temp\ccZ8Xcmd.s:24878  .debug_str:0000000000010a43 .LASF949
C:\Users\CYMR90~1\AppData\Local\Temp\ccZ8Xcmd.s:23886  .debug_str:000000000000cc3d .LASF950
C:\Users\CYMR90~1\AppData\Local\Temp\ccZ8Xcmd.s:22486  .debug_str:000000000000700a .LASF952
C:\Users\CYMR90~1\AppData\Local\Temp\ccZ8Xcmd.s:25998  .debug_str:000000000001525c .LASF953
C:\Users\CYMR90~1\AppData\Local\Temp\ccZ8Xcmd.s:23920  .debug_str:000000000000ce9b .LASF954
C:\Users\CYMR90~1\AppData\Local\Temp\ccZ8Xcmd.s:31879  .debug_str:000000000002cac9 .LASF955
C:\Users\CYMR90~1\AppData\Local\Temp\ccZ8Xcmd.s:31045  .debug_str:000000000002954b .LASF956
C:\Users\CYMR90~1\AppData\Local\Temp\ccZ8Xcmd.s:31133  .debug_str:0000000000029ad8 .LASF960
C:\Users\CYMR90~1\AppData\Local\Temp\ccZ8Xcmd.s:23038  .debug_str:0000000000009476 .LASF961
C:\Users\CYMR90~1\AppData\Local\Temp\ccZ8Xcmd.s:30385  .debug_str:0000000000026a62 .LASF962
C:\Users\CYMR90~1\AppData\Local\Temp\ccZ8Xcmd.s:25110  .debug_str:00000000000119d1 .LASF963
C:\Users\CYMR90~1\AppData\Local\Temp\ccZ8Xcmd.s:22512  .debug_str:00000000000071f1 .LASF964
C:\Users\CYMR90~1\AppData\Local\Temp\ccZ8Xcmd.s:29177  .debug_str:0000000000021da2 .LASF965
C:\Users\CYMR90~1\AppData\Local\Temp\ccZ8Xcmd.s:27463  .debug_str:000000000001b2cd .LASF966
C:\Users\CYMR90~1\AppData\Local\Temp\ccZ8Xcmd.s:30331  .debug_str:0000000000026728 .LASF967
C:\Users\CYMR90~1\AppData\Local\Temp\ccZ8Xcmd.s:31453  .debug_str:000000000002ae1f .LASF968
C:\Users\CYMR90~1\AppData\Local\Temp\ccZ8Xcmd.s:22242  .debug_str:0000000000006067 .LASF969
C:\Users\CYMR90~1\AppData\Local\Temp\ccZ8Xcmd.s:25722  .debug_str:0000000000014140 .LASF970
C:\Users\CYMR90~1\AppData\Local\Temp\ccZ8Xcmd.s:31539  .debug_str:000000000002b3b0 .LASF971
C:\Users\CYMR90~1\AppData\Local\Temp\ccZ8Xcmd.s:24332  .debug_str:000000000000e869 .LASF972
C:\Users\CYMR90~1\AppData\Local\Temp\ccZ8Xcmd.s:25784  .debug_str:0000000000014513 .LASF973
C:\Users\CYMR90~1\AppData\Local\Temp\ccZ8Xcmd.s:23942  .debug_str:000000000000cfe8 .LASF974
C:\Users\CYMR90~1\AppData\Local\Temp\ccZ8Xcmd.s:26330  .debug_str:0000000000016720 .LASF975
C:\Users\CYMR90~1\AppData\Local\Temp\ccZ8Xcmd.s:31911  .debug_str:000000000002cc6f .LASF976
C:\Users\CYMR90~1\AppData\Local\Temp\ccZ8Xcmd.s:23882  .debug_str:000000000000cbf8 .LASF977
C:\Users\CYMR90~1\AppData\Local\Temp\ccZ8Xcmd.s:31937  .debug_str:000000000002ceb6 .LASF978
C:\Users\CYMR90~1\AppData\Local\Temp\ccZ8Xcmd.s:30169  .debug_str:0000000000025d01 .LASF979
C:\Users\CYMR90~1\AppData\Local\Temp\ccZ8Xcmd.s:30227  .debug_str:000000000002609f .LASF980
C:\Users\CYMR90~1\AppData\Local\Temp\ccZ8Xcmd.s:24386  .debug_str:000000000000eb97 .LASF981
C:\Users\CYMR90~1\AppData\Local\Temp\ccZ8Xcmd.s:21956  .debug_str:0000000000004f1e .LASF982
C:\Users\CYMR90~1\AppData\Local\Temp\ccZ8Xcmd.s:25134  .debug_str:0000000000011b48 .LASF983
C:\Users\CYMR90~1\AppData\Local\Temp\ccZ8Xcmd.s:27869  .debug_str:000000000001ccb3 .LASF984
C:\Users\CYMR90~1\AppData\Local\Temp\ccZ8Xcmd.s:27883  .debug_str:000000000001cda9 .LASF985
C:\Users\CYMR90~1\AppData\Local\Temp\ccZ8Xcmd.s:29465  .debug_str:0000000000022e81 .LASF986
C:\Users\CYMR90~1\AppData\Local\Temp\ccZ8Xcmd.s:26146  .debug_str:0000000000015b25 .LASF987
C:\Users\CYMR90~1\AppData\Local\Temp\ccZ8Xcmd.s:21404  .debug_str:0000000000002acf .LASF988
C:\Users\CYMR90~1\AppData\Local\Temp\ccZ8Xcmd.s:29375  .debug_str:000000000002297e .LASF989
C:\Users\CYMR90~1\AppData\Local\Temp\ccZ8Xcmd.s:26853  .debug_str:000000000001894d .LASF990
C:\Users\CYMR90~1\AppData\Local\Temp\ccZ8Xcmd.s:23878  .debug_str:000000000000cbd0 .LASF991
C:\Users\CYMR90~1\AppData\Local\Temp\ccZ8Xcmd.s:30333  .debug_str:0000000000026750 .LASF992
C:\Users\CYMR90~1\AppData\Local\Temp\ccZ8Xcmd.s:22528  .debug_str:00000000000072e2 .LASF993
C:\Users\CYMR90~1\AppData\Local\Temp\ccZ8Xcmd.s:30147  .debug_str:0000000000025b9a .LASF994
C:\Users\CYMR90~1\AppData\Local\Temp\ccZ8Xcmd.s:26935  .debug_str:0000000000018fa3 .LASF995
C:\Users\CYMR90~1\AppData\Local\Temp\ccZ8Xcmd.s:30949  .debug_str:0000000000028f3f .LASF996
C:\Users\CYMR90~1\AppData\Local\Temp\ccZ8Xcmd.s:28073  .debug_str:000000000001d99f .LASF997
C:\Users\CYMR90~1\AppData\Local\Temp\ccZ8Xcmd.s:28141  .debug_str:000000000001de69 .LASF998
C:\Users\CYMR90~1\AppData\Local\Temp\ccZ8Xcmd.s:21302  .debug_str:0000000000002400 .LASF999
C:\Users\CYMR90~1\AppData\Local\Temp\ccZ8Xcmd.s:21638  .debug_str:0000000000003a2b .LASF1000
C:\Users\CYMR90~1\AppData\Local\Temp\ccZ8Xcmd.s:29815  .debug_str:000000000002448a .LASF1001
C:\Users\CYMR90~1\AppData\Local\Temp\ccZ8Xcmd.s:24720  .debug_str:000000000001008c .LASF1002
C:\Users\CYMR90~1\AppData\Local\Temp\ccZ8Xcmd.s:21908  .debug_str:0000000000004c4e .LASF1003
C:\Users\CYMR90~1\AppData\Local\Temp\ccZ8Xcmd.s:27693  .debug_str:000000000001c0d8 .LASF1004
C:\Users\CYMR90~1\AppData\Local\Temp\ccZ8Xcmd.s:25086  .debug_str:00000000000117c1 .LASF1005
C:\Users\CYMR90~1\AppData\Local\Temp\ccZ8Xcmd.s:23842  .debug_str:000000000000c9d4 .LASF1006
C:\Users\CYMR90~1\AppData\Local\Temp\ccZ8Xcmd.s:22216  .debug_str:0000000000005ec4 .LASF1007
C:\Users\CYMR90~1\AppData\Local\Temp\ccZ8Xcmd.s:29171  .debug_str:0000000000021d5b .LASF1008
C:\Users\CYMR90~1\AppData\Local\Temp\ccZ8Xcmd.s:26625  .debug_str:0000000000017b93 .LASF1009
C:\Users\CYMR90~1\AppData\Local\Temp\ccZ8Xcmd.s:26785  .debug_str:00000000000184ff .LASF1010
C:\Users\CYMR90~1\AppData\Local\Temp\ccZ8Xcmd.s:24154  .debug_str:000000000000dd5b .LASF1011
C:\Users\CYMR90~1\AppData\Local\Temp\ccZ8Xcmd.s:27933  .debug_str:000000000001d136 .LASF1012
C:\Users\CYMR90~1\AppData\Local\Temp\ccZ8Xcmd.s:24348  .debug_str:000000000000e95c .LASF1013
C:\Users\CYMR90~1\AppData\Local\Temp\ccZ8Xcmd.s:27045  .debug_str:000000000001969d .LASF1014
C:\Users\CYMR90~1\AppData\Local\Temp\ccZ8Xcmd.s:21636  .debug_str:0000000000003a15 .LASF1015
C:\Users\CYMR90~1\AppData\Local\Temp\ccZ8Xcmd.s:22106  .debug_str:00000000000057ed .LASF1016
C:\Users\CYMR90~1\AppData\Local\Temp\ccZ8Xcmd.s:22058  .debug_str:000000000000553b .LASF1017
C:\Users\CYMR90~1\AppData\Local\Temp\ccZ8Xcmd.s:30483  .debug_str:000000000002706b .LASF1018
C:\Users\CYMR90~1\AppData\Local\Temp\ccZ8Xcmd.s:24396  .debug_str:000000000000ec19 .LASF1019
C:\Users\CYMR90~1\AppData\Local\Temp\ccZ8Xcmd.s:21296  .debug_str:00000000000023b7 .LASF1020
C:\Users\CYMR90~1\AppData\Local\Temp\ccZ8Xcmd.s:26667  .debug_str:0000000000017e04 .LASF1021
C:\Users\CYMR90~1\AppData\Local\Temp\ccZ8Xcmd.s:23704  .debug_str:000000000000bfce .LASF1022
C:\Users\CYMR90~1\AppData\Local\Temp\ccZ8Xcmd.s:30405  .debug_str:0000000000026b7d .LASF1023
C:\Users\CYMR90~1\AppData\Local\Temp\ccZ8Xcmd.s:22944  .debug_str:0000000000008ebc .LASF1024
C:\Users\CYMR90~1\AppData\Local\Temp\ccZ8Xcmd.s:25406  .debug_str:0000000000012cf5 .LASF1025
C:\Users\CYMR90~1\AppData\Local\Temp\ccZ8Xcmd.s:24906  .debug_str:0000000000010c46 .LASF1026
C:\Users\CYMR90~1\AppData\Local\Temp\ccZ8Xcmd.s:25848  .debug_str:00000000000148a9 .LASF1027
C:\Users\CYMR90~1\AppData\Local\Temp\ccZ8Xcmd.s:28009  .debug_str:000000000001d5f1 .LASF1028
C:\Users\CYMR90~1\AppData\Local\Temp\ccZ8Xcmd.s:28395  .debug_str:000000000001ed75 .LASF1029
C:\Users\CYMR90~1\AppData\Local\Temp\ccZ8Xcmd.s:29687  .debug_str:0000000000023bb6 .LASF1030
C:\Users\CYMR90~1\AppData\Local\Temp\ccZ8Xcmd.s:28763  .debug_str:0000000000020473 .LASF1031
C:\Users\CYMR90~1\AppData\Local\Temp\ccZ8Xcmd.s:31047  .debug_str:00000000000295b3 .LASF1032
C:\Users\CYMR90~1\AppData\Local\Temp\ccZ8Xcmd.s:23090  .debug_str:00000000000097c7 .LASF1033
C:\Users\CYMR90~1\AppData\Local\Temp\ccZ8Xcmd.s:21964  .debug_str:0000000000004fa0 .LASF1034
C:\Users\CYMR90~1\AppData\Local\Temp\ccZ8Xcmd.s:26977  .debug_str:0000000000019228 .LASF1035
C:\Users\CYMR90~1\AppData\Local\Temp\ccZ8Xcmd.s:29505  .debug_str:0000000000023086 .LASF1036
C:\Users\CYMR90~1\AppData\Local\Temp\ccZ8Xcmd.s:29481  .debug_str:0000000000022f2e .LASF1037
C:\Users\CYMR90~1\AppData\Local\Temp\ccZ8Xcmd.s:24572  .debug_str:000000000000f76c .LASF1038
C:\Users\CYMR90~1\AppData\Local\Temp\ccZ8Xcmd.s:28115  .debug_str:000000000001dcd5 .LASF1039
C:\Users\CYMR90~1\AppData\Local\Temp\ccZ8Xcmd.s:26014  .debug_str:0000000000015373 .LASF1040
C:\Users\CYMR90~1\AppData\Local\Temp\ccZ8Xcmd.s:24478  .debug_str:000000000000f0fa .LASF1041
C:\Users\CYMR90~1\AppData\Local\Temp\ccZ8Xcmd.s:30219  .debug_str:0000000000026028 .LASF1042
C:\Users\CYMR90~1\AppData\Local\Temp\ccZ8Xcmd.s:24722  .debug_str:00000000000100a3 .LASF1043
C:\Users\CYMR90~1\AppData\Local\Temp\ccZ8Xcmd.s:20728  .debug_str:00000000000001bc .LASF1044
C:\Users\CYMR90~1\AppData\Local\Temp\ccZ8Xcmd.s:22956  .debug_str:0000000000008f43 .LASF1045
C:\Users\CYMR90~1\AppData\Local\Temp\ccZ8Xcmd.s:27171  .debug_str:0000000000019e82 .LASF1046
C:\Users\CYMR90~1\AppData\Local\Temp\ccZ8Xcmd.s:26266  .debug_str:00000000000162d0 .LASF1047
C:\Users\CYMR90~1\AppData\Local\Temp\ccZ8Xcmd.s:29527  .debug_str:00000000000231cf .LASF1048
C:\Users\CYMR90~1\AppData\Local\Temp\ccZ8Xcmd.s:28359  .debug_str:000000000001eb3d .LASF1049
C:\Users\CYMR90~1\AppData\Local\Temp\ccZ8Xcmd.s:21478  .debug_str:0000000000002fca .LASF1050
C:\Users\CYMR90~1\AppData\Local\Temp\ccZ8Xcmd.s:28369  .debug_str:000000000001ebc8 .LASF1051
C:\Users\CYMR90~1\AppData\Local\Temp\ccZ8Xcmd.s:28571  .debug_str:000000000001f838 .LASF1052
C:\Users\CYMR90~1\AppData\Local\Temp\ccZ8Xcmd.s:23448  .debug_str:000000000000aec8 .LASF1053
C:\Users\CYMR90~1\AppData\Local\Temp\ccZ8Xcmd.s:29423  .debug_str:0000000000022c22 .LASF1054
C:\Users\CYMR90~1\AppData\Local\Temp\ccZ8Xcmd.s:25380  .debug_str:0000000000012b45 .LASF1055
C:\Users\CYMR90~1\AppData\Local\Temp\ccZ8Xcmd.s:24328  .debug_str:000000000000e817 .LASF1056
C:\Users\CYMR90~1\AppData\Local\Temp\ccZ8Xcmd.s:30657  .debug_str:0000000000027bee .LASF1057
C:\Users\CYMR90~1\AppData\Local\Temp\ccZ8Xcmd.s:31259  .debug_str:000000000002a212 .LASF1058
C:\Users\CYMR90~1\AppData\Local\Temp\ccZ8Xcmd.s:29975  .debug_str:0000000000024f81 .LASF1059
C:\Users\CYMR90~1\AppData\Local\Temp\ccZ8Xcmd.s:21156  .debug_str:0000000000001be6 .LASF1060
C:\Users\CYMR90~1\AppData\Local\Temp\ccZ8Xcmd.s:22758  .debug_str:00000000000082e6 .LASF1061
C:\Users\CYMR90~1\AppData\Local\Temp\ccZ8Xcmd.s:20854  .debug_str:00000000000008c6 .LASF1062
C:\Users\CYMR90~1\AppData\Local\Temp\ccZ8Xcmd.s:25760  .debug_str:0000000000014348 .LASF1063
C:\Users\CYMR90~1\AppData\Local\Temp\ccZ8Xcmd.s:21686  .debug_str:0000000000003d0a .LASF1064
C:\Users\CYMR90~1\AppData\Local\Temp\ccZ8Xcmd.s:20794  .debug_str:0000000000000541 .LASF1065
C:\Users\CYMR90~1\AppData\Local\Temp\ccZ8Xcmd.s:31943  .debug_str:000000000002ceff .LASF1066
C:\Users\CYMR90~1\AppData\Local\Temp\ccZ8Xcmd.s:22958  .debug_str:0000000000008f5b .LASF1067
C:\Users\CYMR90~1\AppData\Local\Temp\ccZ8Xcmd.s:26328  .debug_str:0000000000016706 .LASF1068
C:\Users\CYMR90~1\AppData\Local\Temp\ccZ8Xcmd.s:27901  .debug_str:000000000001cf3f .LASF1069
C:\Users\CYMR90~1\AppData\Local\Temp\ccZ8Xcmd.s:20908  .debug_str:0000000000000c53 .LASF1070
C:\Users\CYMR90~1\AppData\Local\Temp\ccZ8Xcmd.s:23216  .debug_str:0000000000009fb2 .LASF1071
C:\Users\CYMR90~1\AppData\Local\Temp\ccZ8Xcmd.s:29325  .debug_str:0000000000022637 .LASF1072
C:\Users\CYMR90~1\AppData\Local\Temp\ccZ8Xcmd.s:27865  .debug_str:000000000001cc71 .LASF1073
C:\Users\CYMR90~1\AppData\Local\Temp\ccZ8Xcmd.s:30913  .debug_str:0000000000028cd5 .LASF1074
C:\Users\CYMR90~1\AppData\Local\Temp\ccZ8Xcmd.s:26477  .debug_str:000000000001725d .LASF1075
C:\Users\CYMR90~1\AppData\Local\Temp\ccZ8Xcmd.s:21338  .debug_str:00000000000026bd .LASF1076
C:\Users\CYMR90~1\AppData\Local\Temp\ccZ8Xcmd.s:31345  .debug_str:000000000002a7b6 .LASF1077
C:\Users\CYMR90~1\AppData\Local\Temp\ccZ8Xcmd.s:22276  .debug_str:000000000000628a .LASF1078
C:\Users\CYMR90~1\AppData\Local\Temp\ccZ8Xcmd.s:28803  .debug_str:00000000000206c2 .LASF1079
C:\Users\CYMR90~1\AppData\Local\Temp\ccZ8Xcmd.s:24168  .debug_str:000000000000de25 .LASF1080
C:\Users\CYMR90~1\AppData\Local\Temp\ccZ8Xcmd.s:27673  .debug_str:000000000001bfa9 .LASF1081
C:\Users\CYMR90~1\AppData\Local\Temp\ccZ8Xcmd.s:30513  .debug_str:00000000000272f2 .LASF1082
C:\Users\CYMR90~1\AppData\Local\Temp\ccZ8Xcmd.s:25956  .debug_str:0000000000014ff9 .LASF1083
C:\Users\CYMR90~1\AppData\Local\Temp\ccZ8Xcmd.s:29017  .debug_str:0000000000021401 .LASF1084
C:\Users\CYMR90~1\AppData\Local\Temp\ccZ8Xcmd.s:21984  .debug_str:00000000000050d3 .LASF1085
C:\Users\CYMR90~1\AppData\Local\Temp\ccZ8Xcmd.s:21106  .debug_str:000000000000190d .LASF1086
C:\Users\CYMR90~1\AppData\Local\Temp\ccZ8Xcmd.s:24202  .debug_str:000000000000e019 .LASF1087
C:\Users\CYMR90~1\AppData\Local\Temp\ccZ8Xcmd.s:30225  .debug_str:0000000000026090 .LASF1088
C:\Users\CYMR90~1\AppData\Local\Temp\ccZ8Xcmd.s:29319  .debug_str:00000000000225df .LASF1089
C:\Users\CYMR90~1\AppData\Local\Temp\ccZ8Xcmd.s:20962  .debug_str:0000000000000fde .LASF1090
C:\Users\CYMR90~1\AppData\Local\Temp\ccZ8Xcmd.s:31875  .debug_str:000000000002ca71 .LASF1091
C:\Users\CYMR90~1\AppData\Local\Temp\ccZ8Xcmd.s:30617  .debug_str:0000000000027934 .LASF1092
C:\Users\CYMR90~1\AppData\Local\Temp\ccZ8Xcmd.s:24550  .debug_str:000000000000f53c .LASF1093
C:\Users\CYMR90~1\AppData\Local\Temp\ccZ8Xcmd.s:30271  .debug_str:0000000000026318 .LASF1094
C:\Users\CYMR90~1\AppData\Local\Temp\ccZ8Xcmd.s:26030  .debug_str:000000000001541e .LASF1095
C:\Users\CYMR90~1\AppData\Local\Temp\ccZ8Xcmd.s:27483  .debug_str:000000000001b3fe .LASF1096
C:\Users\CYMR90~1\AppData\Local\Temp\ccZ8Xcmd.s:28013  .debug_str:000000000001d643 .LASF1097
C:\Users\CYMR90~1\AppData\Local\Temp\ccZ8Xcmd.s:22266  .debug_str:000000000000620b .LASF1098
C:\Users\CYMR90~1\AppData\Local\Temp\ccZ8Xcmd.s:25400  .debug_str:0000000000012c7c .LASF1099
C:\Users\CYMR90~1\AppData\Local\Temp\ccZ8Xcmd.s:24716  .debug_str:000000000001005b .LASF1100
C:\Users\CYMR90~1\AppData\Local\Temp\ccZ8Xcmd.s:29603  .debug_str:00000000000236d6 .LASF1101
C:\Users\CYMR90~1\AppData\Local\Temp\ccZ8Xcmd.s:23892  .debug_str:000000000000cc97 .LASF1102
C:\Users\CYMR90~1\AppData\Local\Temp\ccZ8Xcmd.s:29267  .debug_str:00000000000222ab .LASF1103
C:\Users\CYMR90~1\AppData\Local\Temp\ccZ8Xcmd.s:30855  .debug_str:00000000000289a6 .LASF1104
C:\Users\CYMR90~1\AppData\Local\Temp\ccZ8Xcmd.s:28693  .debug_str:000000000001ffa3 .LASF1105
C:\Users\CYMR90~1\AppData\Local\Temp\ccZ8Xcmd.s:25582  .debug_str:00000000000138ba .LASF1106
C:\Users\CYMR90~1\AppData\Local\Temp\ccZ8Xcmd.s:29523  .debug_str:0000000000023199 .LASF1107
C:\Users\CYMR90~1\AppData\Local\Temp\ccZ8Xcmd.s:27403  .debug_str:000000000001af20 .LASF1108
C:\Users\CYMR90~1\AppData\Local\Temp\ccZ8Xcmd.s:22280  .debug_str:00000000000062c6 .LASF1109
C:\Users\CYMR90~1\AppData\Local\Temp\ccZ8Xcmd.s:23246  .debug_str:000000000000a175 .LASF1110
C:\Users\CYMR90~1\AppData\Local\Temp\ccZ8Xcmd.s:21168  .debug_str:0000000000001ca3 .LASF1111
C:\Users\CYMR90~1\AppData\Local\Temp\ccZ8Xcmd.s:22364  .debug_str:0000000000006812 .LASF1112
C:\Users\CYMR90~1\AppData\Local\Temp\ccZ8Xcmd.s:23472  .debug_str:000000000000b02d .LASF1113
C:\Users\CYMR90~1\AppData\Local\Temp\ccZ8Xcmd.s:22028  .debug_str:000000000000536f .LASF1114
C:\Users\CYMR90~1\AppData\Local\Temp\ccZ8Xcmd.s:23042  .debug_str:000000000000949d .LASF1115
C:\Users\CYMR90~1\AppData\Local\Temp\ccZ8Xcmd.s:30699  .debug_str:0000000000027ecd .LASF1116
C:\Users\CYMR90~1\AppData\Local\Temp\ccZ8Xcmd.s:31209  .debug_str:0000000000029f32 .LASF1117
C:\Users\CYMR90~1\AppData\Local\Temp\ccZ8Xcmd.s:22186  .debug_str:0000000000005ce5 .LASF1118
C:\Users\CYMR90~1\AppData\Local\Temp\ccZ8Xcmd.s:26641  .debug_str:0000000000017c8f .LASF1119
C:\Users\CYMR90~1\AppData\Local\Temp\ccZ8Xcmd.s:22724  .debug_str:00000000000080a9 .LASF1120
C:\Users\CYMR90~1\AppData\Local\Temp\ccZ8Xcmd.s:22938  .debug_str:0000000000008e5b .LASF1121
C:\Users\CYMR90~1\AppData\Local\Temp\ccZ8Xcmd.s:25518  .debug_str:00000000000134cb .LASF1122
C:\Users\CYMR90~1\AppData\Local\Temp\ccZ8Xcmd.s:25158  .debug_str:0000000000011cb3 .LASF1123
C:\Users\CYMR90~1\AppData\Local\Temp\ccZ8Xcmd.s:28779  .debug_str:000000000002056b .LASF1124
C:\Users\CYMR90~1\AppData\Local\Temp\ccZ8Xcmd.s:25960  .debug_str:0000000000015023 .LASF1125
C:\Users\CYMR90~1\AppData\Local\Temp\ccZ8Xcmd.s:26050  .debug_str:0000000000015557 .LASF1126
C:\Users\CYMR90~1\AppData\Local\Temp\ccZ8Xcmd.s:29413  .debug_str:0000000000022b84 .LASF1127
C:\Users\CYMR90~1\AppData\Local\Temp\ccZ8Xcmd.s:30511  .debug_str:00000000000272dd .LASF1128
C:\Users\CYMR90~1\AppData\Local\Temp\ccZ8Xcmd.s:22070  .debug_str:00000000000055df .LASF1129
C:\Users\CYMR90~1\AppData\Local\Temp\ccZ8Xcmd.s:26048  .debug_str:0000000000015542 .LASF1130
C:\Users\CYMR90~1\AppData\Local\Temp\ccZ8Xcmd.s:31043  .debug_str:0000000000029536 .LASF1131
C:\Users\CYMR90~1\AppData\Local\Temp\ccZ8Xcmd.s:31443  .debug_str:000000000002ad91 .LASF1132
C:\Users\CYMR90~1\AppData\Local\Temp\ccZ8Xcmd.s:26755  .debug_str:0000000000018332 .LASF1133
C:\Users\CYMR90~1\AppData\Local\Temp\ccZ8Xcmd.s:29575  .debug_str:00000000000234e4 .LASF1134
C:\Users\CYMR90~1\AppData\Local\Temp\ccZ8Xcmd.s:22612  .debug_str:000000000000786e .LASF1135
C:\Users\CYMR90~1\AppData\Local\Temp\ccZ8Xcmd.s:21852  .debug_str:00000000000048d8 .LASF1136
C:\Users\CYMR90~1\AppData\Local\Temp\ccZ8Xcmd.s:21690  .debug_str:0000000000003d2c .LASF1137
C:\Users\CYMR90~1\AppData\Local\Temp\ccZ8Xcmd.s:31053  .debug_str:0000000000029612 .LASF1138
C:\Users\CYMR90~1\AppData\Local\Temp\ccZ8Xcmd.s:28145  .debug_str:000000000001dea2 .LASF1139
C:\Users\CYMR90~1\AppData\Local\Temp\ccZ8Xcmd.s:28047  .debug_str:000000000001d83c .LASF1140
C:\Users\CYMR90~1\AppData\Local\Temp\ccZ8Xcmd.s:20772  .debug_str:0000000000000420 .LASF1141
C:\Users\CYMR90~1\AppData\Local\Temp\ccZ8Xcmd.s:24952  .debug_str:0000000000010eba .LASF1142
C:\Users\CYMR90~1\AppData\Local\Temp\ccZ8Xcmd.s:24208  .debug_str:000000000000e08c .LASF1143
C:\Users\CYMR90~1\AppData\Local\Temp\ccZ8Xcmd.s:30567  .debug_str:00000000000275d2 .LASF1144
C:\Users\CYMR90~1\AppData\Local\Temp\ccZ8Xcmd.s:28741  .debug_str:00000000000202ab .LASF1145
C:\Users\CYMR90~1\AppData\Local\Temp\ccZ8Xcmd.s:23738  .debug_str:000000000000c1dd .LASF1146
C:\Users\CYMR90~1\AppData\Local\Temp\ccZ8Xcmd.s:31871  .debug_str:000000000002ca2f .LASF1147
C:\Users\CYMR90~1\AppData\Local\Temp\ccZ8Xcmd.s:26501  .debug_str:00000000000173bd .LASF1148
C:\Users\CYMR90~1\AppData\Local\Temp\ccZ8Xcmd.s:26763  .debug_str:00000000000183df .LASF1149
C:\Users\CYMR90~1\AppData\Local\Temp\ccZ8Xcmd.s:27503  .debug_str:000000000001b533 .LASF1150
C:\Users\CYMR90~1\AppData\Local\Temp\ccZ8Xcmd.s:21170  .debug_str:0000000000001cc1 .LASF1151
C:\Users\CYMR90~1\AppData\Local\Temp\ccZ8Xcmd.s:27923  .debug_str:000000000001d0a1 .LASF1152
C:\Users\CYMR90~1\AppData\Local\Temp\ccZ8Xcmd.s:23064  .debug_str:00000000000095b6 .LASF1153
C:\Users\CYMR90~1\AppData\Local\Temp\ccZ8Xcmd.s:29031  .debug_str:00000000000214b3 .LASF1154
C:\Users\CYMR90~1\AppData\Local\Temp\ccZ8Xcmd.s:28271  .debug_str:000000000001e66a .LASF1155
C:\Users\CYMR90~1\AppData\Local\Temp\ccZ8Xcmd.s:25876  .debug_str:0000000000014a93 .LASF1156
C:\Users\CYMR90~1\AppData\Local\Temp\ccZ8Xcmd.s:28109  .debug_str:000000000001dc5a .LASF1157
C:\Users\CYMR90~1\AppData\Local\Temp\ccZ8Xcmd.s:23490  .debug_str:000000000000b113 .LASF1158
C:\Users\CYMR90~1\AppData\Local\Temp\ccZ8Xcmd.s:31227  .debug_str:000000000002a078 .LASF1159
C:\Users\CYMR90~1\AppData\Local\Temp\ccZ8Xcmd.s:21060  .debug_str:000000000000158f .LASF1160
C:\Users\CYMR90~1\AppData\Local\Temp\ccZ8Xcmd.s:31307  .debug_str:000000000002a55e .LASF1161
C:\Users\CYMR90~1\AppData\Local\Temp\ccZ8Xcmd.s:30989  .debug_str:000000000002919c .LASF1162
C:\Users\CYMR90~1\AppData\Local\Temp\ccZ8Xcmd.s:27999  .debug_str:000000000001d574 .LASF1163
C:\Users\CYMR90~1\AppData\Local\Temp\ccZ8Xcmd.s:27135  .debug_str:0000000000019c57 .LASF1164
C:\Users\CYMR90~1\AppData\Local\Temp\ccZ8Xcmd.s:24024  .debug_str:000000000000d5d0 .LASF1165
C:\Users\CYMR90~1\AppData\Local\Temp\ccZ8Xcmd.s:28663  .debug_str:000000000001fe04 .LASF1166
C:\Users\CYMR90~1\AppData\Local\Temp\ccZ8Xcmd.s:24914  .debug_str:0000000000010caf .LASF1167
C:\Users\CYMR90~1\AppData\Local\Temp\ccZ8Xcmd.s:23062  .debug_str:00000000000095ac .LASF1168
C:\Users\CYMR90~1\AppData\Local\Temp\ccZ8Xcmd.s:25990  .debug_str:00000000000151fd .LASF1169
C:\Users\CYMR90~1\AppData\Local\Temp\ccZ8Xcmd.s:27347  .debug_str:000000000001ab46 .LASF1170
C:\Users\CYMR90~1\AppData\Local\Temp\ccZ8Xcmd.s:27047  .debug_str:00000000000196b4 .LASF1171
C:\Users\CYMR90~1\AppData\Local\Temp\ccZ8Xcmd.s:31253  .debug_str:000000000002a1e0 .LASF1172
C:\Users\CYMR90~1\AppData\Local\Temp\ccZ8Xcmd.s:26276  .debug_str:0000000000016359 .LASF1173
C:\Users\CYMR90~1\AppData\Local\Temp\ccZ8Xcmd.s:20888  .debug_str:0000000000000b53 .LASF1174
C:\Users\CYMR90~1\AppData\Local\Temp\ccZ8Xcmd.s:21276  .debug_str:0000000000002278 .LASF1175
C:\Users\CYMR90~1\AppData\Local\Temp\ccZ8Xcmd.s:25490  .debug_str:000000000001331b .LASF1176
C:\Users\CYMR90~1\AppData\Local\Temp\ccZ8Xcmd.s:23838  .debug_str:000000000000c9a4 .LASF1177
C:\Users\CYMR90~1\AppData\Local\Temp\ccZ8Xcmd.s:28057  .debug_str:000000000001d8d5 .LASF1178
C:\Users\CYMR90~1\AppData\Local\Temp\ccZ8Xcmd.s:24444  .debug_str:000000000000eecf .LASF1179
C:\Users\CYMR90~1\AppData\Local\Temp\ccZ8Xcmd.s:24010  .debug_str:000000000000d515 .LASF1180
C:\Users\CYMR90~1\AppData\Local\Temp\ccZ8Xcmd.s:29777  .debug_str:0000000000024252 .LASF1181
C:\Users\CYMR90~1\AppData\Local\Temp\ccZ8Xcmd.s:22872  .debug_str:00000000000089f7 .LASF1182
C:\Users\CYMR90~1\AppData\Local\Temp\ccZ8Xcmd.s:21444  .debug_str:0000000000002d5e .LASF1183
C:\Users\CYMR90~1\AppData\Local\Temp\ccZ8Xcmd.s:28383  .debug_str:000000000001ecaa .LASF1184
C:\Users\CYMR90~1\AppData\Local\Temp\ccZ8Xcmd.s:28833  .debug_str:0000000000020883 .LASF1185
C:\Users\CYMR90~1\AppData\Local\Temp\ccZ8Xcmd.s:30015  .debug_str:0000000000025291 .LASF1186
C:\Users\CYMR90~1\AppData\Local\Temp\ccZ8Xcmd.s:21172  .debug_str:0000000000001cda .LASF1187
C:\Users\CYMR90~1\AppData\Local\Temp\ccZ8Xcmd.s:22080  .debug_str:000000000000566f .LASF1188
C:\Users\CYMR90~1\AppData\Local\Temp\ccZ8Xcmd.s:29307  .debug_str:000000000002252c .LASF1189
C:\Users\CYMR90~1\AppData\Local\Temp\ccZ8Xcmd.s:22616  .debug_str:000000000000789f .LASF1190
C:\Users\CYMR90~1\AppData\Local\Temp\ccZ8Xcmd.s:29355  .debug_str:00000000000227f0 .LASF1191
C:\Users\CYMR90~1\AppData\Local\Temp\ccZ8Xcmd.s:23814  .debug_str:000000000000c72e .LASF1192
C:\Users\CYMR90~1\AppData\Local\Temp\ccZ8Xcmd.s:29019  .debug_str:0000000000021413 .LASF1193
C:\Users\CYMR90~1\AppData\Local\Temp\ccZ8Xcmd.s:24056  .debug_str:000000000000d798 .LASF1194
C:\Users\CYMR90~1\AppData\Local\Temp\ccZ8Xcmd.s:27603  .debug_str:000000000001bb09 .LASF1195
C:\Users\CYMR90~1\AppData\Local\Temp\ccZ8Xcmd.s:25634  .debug_str:0000000000013bf3 .LASF1196
C:\Users\CYMR90~1\AppData\Local\Temp\ccZ8Xcmd.s:29053  .debug_str:0000000000021630 .LASF1197
C:\Users\CYMR90~1\AppData\Local\Temp\ccZ8Xcmd.s:31251  .debug_str:000000000002a1d1 .LASF1198
C:\Users\CYMR90~1\AppData\Local\Temp\ccZ8Xcmd.s:26298  .debug_str:0000000000016529 .LASF1199
C:\Users\CYMR90~1\AppData\Local\Temp\ccZ8Xcmd.s:31257  .debug_str:000000000002a207 .LASF1200
C:\Users\CYMR90~1\AppData\Local\Temp\ccZ8Xcmd.s:23312  .debug_str:000000000000a55a .LASF1201
C:\Users\CYMR90~1\AppData\Local\Temp\ccZ8Xcmd.s:22974  .debug_str:0000000000009067 .LASF1202
C:\Users\CYMR90~1\AppData\Local\Temp\ccZ8Xcmd.s:26489  .debug_str:000000000001731c .LASF1203
C:\Users\CYMR90~1\AppData\Local\Temp\ccZ8Xcmd.s:30345  .debug_str:00000000000267f9 .LASF1204
C:\Users\CYMR90~1\AppData\Local\Temp\ccZ8Xcmd.s:25544  .debug_str:0000000000013690 .LASF1205
C:\Users\CYMR90~1\AppData\Local\Temp\ccZ8Xcmd.s:24612  .debug_str:000000000000f9bb .LASF1206
C:\Users\CYMR90~1\AppData\Local\Temp\ccZ8Xcmd.s:31223  .debug_str:000000000002a046 .LASF1207
C:\Users\CYMR90~1\AppData\Local\Temp\ccZ8Xcmd.s:29867  .debug_str:0000000000024856 .LASF1208
C:\Users\CYMR90~1\AppData\Local\Temp\ccZ8Xcmd.s:24542  .debug_str:000000000000f4df .LASF1209
C:\Users\CYMR90~1\AppData\Local\Temp\ccZ8Xcmd.s:21978  .debug_str:000000000000506c .LASF1210
C:\Users\CYMR90~1\AppData\Local\Temp\ccZ8Xcmd.s:22072  .debug_str:00000000000055f5 .LASF1211
C:\Users\CYMR90~1\AppData\Local\Temp\ccZ8Xcmd.s:22762  .debug_str:000000000000832a .LASF1212
C:\Users\CYMR90~1\AppData\Local\Temp\ccZ8Xcmd.s:22358  .debug_str:0000000000006792 .LASF1213
C:\Users\CYMR90~1\AppData\Local\Temp\ccZ8Xcmd.s:21286  .debug_str:0000000000002334 .LASF1214
C:\Users\CYMR90~1\AppData\Local\Temp\ccZ8Xcmd.s:23106  .debug_str:00000000000098e1 .LASF1215
C:\Users\CYMR90~1\AppData\Local\Temp\ccZ8Xcmd.s:21228  .debug_str:0000000000001fbf .LASF1216
C:\Users\CYMR90~1\AppData\Local\Temp\ccZ8Xcmd.s:29477  .debug_str:0000000000022f01 .LASF1217
C:\Users\CYMR90~1\AppData\Local\Temp\ccZ8Xcmd.s:29493  .debug_str:0000000000022fc8 .LASF1218
C:\Users\CYMR90~1\AppData\Local\Temp\ccZ8Xcmd.s:29921  .debug_str:0000000000024bcb .LASF1219
C:\Users\CYMR90~1\AppData\Local\Temp\ccZ8Xcmd.s:27487  .debug_str:000000000001b432 .LASF1220
C:\Users\CYMR90~1\AppData\Local\Temp\ccZ8Xcmd.s:24098  .debug_str:000000000000d9eb .LASF1221
C:\Users\CYMR90~1\AppData\Local\Temp\ccZ8Xcmd.s:25810  .debug_str:00000000000146a7 .LASF1222
C:\Users\CYMR90~1\AppData\Local\Temp\ccZ8Xcmd.s:21464  .debug_str:0000000000002e90 .LASF1223
C:\Users\CYMR90~1\AppData\Local\Temp\ccZ8Xcmd.s:27233  .debug_str:000000000001a3b5 .LASF1224
C:\Users\CYMR90~1\AppData\Local\Temp\ccZ8Xcmd.s:30531  .debug_str:00000000000273f4 .LASF1225
C:\Users\CYMR90~1\AppData\Local\Temp\ccZ8Xcmd.s:23580  .debug_str:000000000000b734 .LASF1226
C:\Users\CYMR90~1\AppData\Local\Temp\ccZ8Xcmd.s:22502  .debug_str:0000000000007147 .LASF1227
C:\Users\CYMR90~1\AppData\Local\Temp\ccZ8Xcmd.s:21556  .debug_str:00000000000034c7 .LASF1228
C:\Users\CYMR90~1\AppData\Local\Temp\ccZ8Xcmd.s:31927  .debug_str:000000000002ce0b .LASF1229
C:\Users\CYMR90~1\AppData\Local\Temp\ccZ8Xcmd.s:30971  .debug_str:000000000002908c .LASF1230
C:\Users\CYMR90~1\AppData\Local\Temp\ccZ8Xcmd.s:29983  .debug_str:0000000000024ff8 .LASF1231
C:\Users\CYMR90~1\AppData\Local\Temp\ccZ8Xcmd.s:29007  .debug_str:0000000000021369 .LASF1232
C:\Users\CYMR90~1\AppData\Local\Temp\ccZ8Xcmd.s:28893  .debug_str:0000000000020c41 .LASF1233
C:\Users\CYMR90~1\AppData\Local\Temp\ccZ8Xcmd.s:27941  .debug_str:000000000001d1a0 .LASF1234
C:\Users\CYMR90~1\AppData\Local\Temp\ccZ8Xcmd.s:27005  .debug_str:00000000000193f9 .LASF1235
C:\Users\CYMR90~1\AppData\Local\Temp\ccZ8Xcmd.s:25706  .debug_str:000000000001404d .LASF1236
C:\Users\CYMR90~1\AppData\Local\Temp\ccZ8Xcmd.s:25076  .debug_str:0000000000011741 .LASF1237
C:\Users\CYMR90~1\AppData\Local\Temp\ccZ8Xcmd.s:26389  .debug_str:0000000000016d57 .LASF1238
C:\Users\CYMR90~1\AppData\Local\Temp\ccZ8Xcmd.s:23178  .debug_str:0000000000009d2c .LASF1239
C:\Users\CYMR90~1\AppData\Local\Temp\ccZ8Xcmd.s:22182  .debug_str:0000000000005ca4 .LASF1240
C:\Users\CYMR90~1\AppData\Local\Temp\ccZ8Xcmd.s:21244  .debug_str:0000000000002098 .LASF1241
C:\Users\CYMR90~1\AppData\Local\Temp\ccZ8Xcmd.s:31641  .debug_str:000000000002baaa .LASF1242
C:\Users\CYMR90~1\AppData\Local\Temp\ccZ8Xcmd.s:20782  .debug_str:0000000000000497 .LASF1243
C:\Users\CYMR90~1\AppData\Local\Temp\ccZ8Xcmd.s:31117  .debug_str:00000000000299ed .LASF1244
C:\Users\CYMR90~1\AppData\Local\Temp\ccZ8Xcmd.s:30129  .debug_str:0000000000025ab6 .LASF1245
C:\Users\CYMR90~1\AppData\Local\Temp\ccZ8Xcmd.s:29161  .debug_str:0000000000021cc6 .LASF1246
C:\Users\CYMR90~1\AppData\Local\Temp\ccZ8Xcmd.s:28179  .debug_str:000000000001e0b1 .LASF1247
C:\Users\CYMR90~1\AppData\Local\Temp\ccZ8Xcmd.s:27291  .debug_str:000000000001a7af .LASF1248
C:\Users\CYMR90~1\AppData\Local\Temp\ccZ8Xcmd.s:26342  .debug_str:0000000000016827 .LASF1249
C:\Users\CYMR90~1\AppData\Local\Temp\ccZ8Xcmd.s:26505  .debug_str:000000000001741e .LASF1250
C:\Users\CYMR90~1\AppData\Local\Temp\ccZ8Xcmd.s:24450  .debug_str:000000000000ef14 .LASF1251
C:\Users\CYMR90~1\AppData\Local\Temp\ccZ8Xcmd.s:26605  .debug_str:0000000000017a8e .LASF1252
C:\Users\CYMR90~1\AppData\Local\Temp\ccZ8Xcmd.s:23948  .debug_str:000000000000d066 .LASF1253
C:\Users\CYMR90~1\AppData\Local\Temp\ccZ8Xcmd.s:22988  .debug_str:0000000000009136 .LASF1254
C:\Users\CYMR90~1\AppData\Local\Temp\ccZ8Xcmd.s:21024  .debug_str:000000000000137f .LASF1255
C:\Users\CYMR90~1\AppData\Local\Temp\ccZ8Xcmd.s:23870  .debug_str:000000000000cb7a .LASF1256
C:\Users\CYMR90~1\AppData\Local\Temp\ccZ8Xcmd.s:22138  .debug_str:0000000000005a22 .LASF1257
C:\Users\CYMR90~1\AppData\Local\Temp\ccZ8Xcmd.s:26881  .debug_str:0000000000018bb2 .LASF1258
C:\Users\CYMR90~1\AppData\Local\Temp\ccZ8Xcmd.s:26883  .debug_str:0000000000018bc5 .LASF1259
C:\Users\CYMR90~1\AppData\Local\Temp\ccZ8Xcmd.s:29359  .debug_str:0000000000022820 .LASF1260
C:\Users\CYMR90~1\AppData\Local\Temp\ccZ8Xcmd.s:27481  .debug_str:000000000001b3eb .LASF1261
C:\Users\CYMR90~1\AppData\Local\Temp\ccZ8Xcmd.s:24884  .debug_str:0000000000010b47 .LASF1262
C:\Users\CYMR90~1\AppData\Local\Temp\ccZ8Xcmd.s:22032  .debug_str:00000000000053b2 .LASF1263
C:\Users\CYMR90~1\AppData\Local\Temp\ccZ8Xcmd.s:24184  .debug_str:000000000000df0b .LASF1264
C:\Users\CYMR90~1\AppData\Local\Temp\ccZ8Xcmd.s:26366  .debug_str:0000000000016a4e .LASF1265
C:\Users\CYMR90~1\AppData\Local\Temp\ccZ8Xcmd.s:24236  .debug_str:000000000000e222 .LASF1266
C:\Users\CYMR90~1\AppData\Local\Temp\ccZ8Xcmd.s:29385  .debug_str:0000000000022a17 .LASF1267
C:\Users\CYMR90~1\AppData\Local\Temp\ccZ8Xcmd.s:29569  .debug_str:000000000002349a .LASF1268
C:\Users\CYMR90~1\AppData\Local\Temp\ccZ8Xcmd.s:25014  .debug_str:0000000000011260 .LASF1269
C:\Users\CYMR90~1\AppData\Local\Temp\ccZ8Xcmd.s:31693  .debug_str:000000000002bdf5 .LASF1270
C:\Users\CYMR90~1\AppData\Local\Temp\ccZ8Xcmd.s:26607  .debug_str:0000000000017aa5 .LASF1271
C:\Users\CYMR90~1\AppData\Local\Temp\ccZ8Xcmd.s:31079  .debug_str:00000000000297bb .LASF1272
C:\Users\CYMR90~1\AppData\Local\Temp\ccZ8Xcmd.s:28059  .debug_str:000000000001d8e2 .LASF1273
C:\Users\CYMR90~1\AppData\Local\Temp\ccZ8Xcmd.s:20844  .debug_str:0000000000000838 .LASF1274
C:\Users\CYMR90~1\AppData\Local\Temp\ccZ8Xcmd.s:26889  .debug_str:0000000000018c13 .LASF1275
C:\Users\CYMR90~1\AppData\Local\Temp\ccZ8Xcmd.s:20952  .debug_str:0000000000000f5a .LASF1276
C:\Users\CYMR90~1\AppData\Local\Temp\ccZ8Xcmd.s:23198  .debug_str:0000000000009e8e .LASF1277
C:\Users\CYMR90~1\AppData\Local\Temp\ccZ8Xcmd.s:22200  .debug_str:0000000000005dbf .LASF1278
C:\Users\CYMR90~1\AppData\Local\Temp\ccZ8Xcmd.s:21274  .debug_str:0000000000002266 .LASF1279
C:\Users\CYMR90~1\AppData\Local\Temp\ccZ8Xcmd.s:31661  .debug_str:000000000002bbd7 .LASF1280
C:\Users\CYMR90~1\AppData\Local\Temp\ccZ8Xcmd.s:22094  .debug_str:0000000000005751 .LASF1281
C:\Users\CYMR90~1\AppData\Local\Temp\ccZ8Xcmd.s:21158  .debug_str:0000000000001c03 .LASF1282
C:\Users\CYMR90~1\AppData\Local\Temp\ccZ8Xcmd.s:28221  .debug_str:000000000001e344 .LASF1283
C:\Users\CYMR90~1\AppData\Local\Temp\ccZ8Xcmd.s:30563  .debug_str:0000000000027599 .LASF1284
C:\Users\CYMR90~1\AppData\Local\Temp\ccZ8Xcmd.s:29593  .debug_str:0000000000023650 .LASF1285
C:\Users\CYMR90~1\AppData\Local\Temp\ccZ8Xcmd.s:28613  .debug_str:000000000001fac7 .LASF1286
C:\Users\CYMR90~1\AppData\Local\Temp\ccZ8Xcmd.s:27667  .debug_str:000000000001bf2a .LASF1287
C:\Users\CYMR90~1\AppData\Local\Temp\ccZ8Xcmd.s:26717  .debug_str:00000000000180f8 .LASF1288
C:\Users\CYMR90~1\AppData\Local\Temp\ccZ8Xcmd.s:25748  .debug_str:00000000000142ba .LASF1289
C:\Users\CYMR90~1\AppData\Local\Temp\ccZ8Xcmd.s:24814  .debug_str:000000000001062a .LASF1290
C:\Users\CYMR90~1\AppData\Local\Temp\ccZ8Xcmd.s:29107  .debug_str:000000000002197b .LASF1291
C:\Users\CYMR90~1\AppData\Local\Temp\ccZ8Xcmd.s:28133  .debug_str:000000000001ddf8 .LASF1292
C:\Users\CYMR90~1\AppData\Local\Temp\ccZ8Xcmd.s:21562  .debug_str:0000000000003517 .LASF1293
C:\Users\CYMR90~1\AppData\Local\Temp\ccZ8Xcmd.s:26232  .debug_str:00000000000160f5 .LASF1294
C:\Users\CYMR90~1\AppData\Local\Temp\ccZ8Xcmd.s:25298  .debug_str:00000000000125e2 .LASF1295
C:\Users\CYMR90~1\AppData\Local\Temp\ccZ8Xcmd.s:24340  .debug_str:000000000000e8f4 .LASF1296
C:\Users\CYMR90~1\AppData\Local\Temp\ccZ8Xcmd.s:23718  .debug_str:000000000000c0c1 .LASF1297
C:\Users\CYMR90~1\AppData\Local\Temp\ccZ8Xcmd.s:28581  .debug_str:000000000001f8c3 .LASF1298
C:\Users\CYMR90~1\AppData\Local\Temp\ccZ8Xcmd.s:27641  .debug_str:000000000001bd9d .LASF1299
C:\Users\CYMR90~1\AppData\Local\Temp\ccZ8Xcmd.s:26685  .debug_str:0000000000017ef4 .LASF1300
C:\Users\CYMR90~1\AppData\Local\Temp\ccZ8Xcmd.s:27615  .debug_str:000000000001bbd3 .LASF1301
C:\Users\CYMR90~1\AppData\Local\Temp\ccZ8Xcmd.s:31569  .debug_str:000000000002b594 .LASF1302
C:\Users\CYMR90~1\AppData\Local\Temp\ccZ8Xcmd.s:26274  .debug_str:0000000000016346 .LASF1303
C:\Users\CYMR90~1\AppData\Local\Temp\ccZ8Xcmd.s:27145  .debug_str:0000000000019cfb .LASF1304
C:\Users\CYMR90~1\AppData\Local\Temp\ccZ8Xcmd.s:27115  .debug_str:0000000000019b62 .LASF1305
C:\Users\CYMR90~1\AppData\Local\Temp\ccZ8Xcmd.s:22876  .debug_str:0000000000008a2b .LASF1306
C:\Users\CYMR90~1\AppData\Local\Temp\ccZ8Xcmd.s:21882  .debug_str:0000000000004aaf .LASF1307
C:\Users\CYMR90~1\AppData\Local\Temp\ccZ8Xcmd.s:20964  .debug_str:0000000000000ff0 .LASF1308
C:\Users\CYMR90~1\AppData\Local\Temp\ccZ8Xcmd.s:31323  .debug_str:000000000002a65d .LASF1309
C:\Users\CYMR90~1\AppData\Local\Temp\ccZ8Xcmd.s:30341  .debug_str:00000000000267be .LASF1310
C:\Users\CYMR90~1\AppData\Local\Temp\ccZ8Xcmd.s:29361  .debug_str:0000000000022831 .LASF1311
C:\Users\CYMR90~1\AppData\Local\Temp\ccZ8Xcmd.s:22830  .debug_str:000000000000876d .LASF1312
C:\Users\CYMR90~1\AppData\Local\Temp\ccZ8Xcmd.s:24196  .debug_str:000000000000dfc4 .LASF1313
C:\Users\CYMR90~1\AppData\Local\Temp\ccZ8Xcmd.s:25464  .debug_str:00000000000130c7 .LASF1314
C:\Users\CYMR90~1\AppData\Local\Temp\ccZ8Xcmd.s:31537  .debug_str:000000000002b398 .LASF1315
C:\Users\CYMR90~1\AppData\Local\Temp\ccZ8Xcmd.s:30057  .debug_str:00000000000255a6 .LASF1316
C:\Users\CYMR90~1\AppData\Local\Temp\ccZ8Xcmd.s:29585  .debug_str:00000000000235b4 .LASF1317
C:\Users\CYMR90~1\AppData\Local\Temp\ccZ8Xcmd.s:28605  .debug_str:000000000001fa5a .LASF1318
C:\Users\CYMR90~1\AppData\Local\Temp\ccZ8Xcmd.s:27677  .debug_str:000000000001bfd4 .LASF1319
C:\Users\CYMR90~1\AppData\Local\Temp\ccZ8Xcmd.s:26727  .debug_str:00000000000181a6 .LASF1320
C:\Users\CYMR90~1\AppData\Local\Temp\ccZ8Xcmd.s:25758  .debug_str:0000000000014330 .LASF1321
C:\Users\CYMR90~1\AppData\Local\Temp\ccZ8Xcmd.s:24820  .debug_str:0000000000010685 .LASF1322
C:\Users\CYMR90~1\AppData\Local\Temp\ccZ8Xcmd.s:25274  .debug_str:0000000000012446 .LASF1323
C:\Users\CYMR90~1\AppData\Local\Temp\ccZ8Xcmd.s:23722  .debug_str:000000000000c0e6 .LASF1324
C:\Users\CYMR90~1\AppData\Local\Temp\ccZ8Xcmd.s:23360  .debug_str:000000000000a862 .LASF1325
C:\Users\CYMR90~1\AppData\Local\Temp\ccZ8Xcmd.s:22366  .debug_str:000000000000682e .LASF1326
C:\Users\CYMR90~1\AppData\Local\Temp\ccZ8Xcmd.s:21422  .debug_str:0000000000002c0e .LASF1327
C:\Users\CYMR90~1\AppData\Local\Temp\ccZ8Xcmd.s:31811  .debug_str:000000000002c630 .LASF1328
C:\Users\CYMR90~1\AppData\Local\Temp\ccZ8Xcmd.s:30887  .debug_str:0000000000028b4e .LASF1329
C:\Users\CYMR90~1\AppData\Local\Temp\ccZ8Xcmd.s:29901  .debug_str:0000000000024a6b .LASF1330
C:\Users\CYMR90~1\AppData\Local\Temp\ccZ8Xcmd.s:28931  .debug_str:0000000000020e4b .LASF1331
C:\Users\CYMR90~1\AppData\Local\Temp\ccZ8Xcmd.s:27971  .debug_str:000000000001d389 .LASF1332
C:\Users\CYMR90~1\AppData\Local\Temp\ccZ8Xcmd.s:28407  .debug_str:000000000001ee36 .LASF1333
C:\Users\CYMR90~1\AppData\Local\Temp\ccZ8Xcmd.s:27495  .debug_str:000000000001b4ae .LASF1334
C:\Users\CYMR90~1\AppData\Local\Temp\ccZ8Xcmd.s:26194  .debug_str:0000000000015e92 .LASF1335
C:\Users\CYMR90~1\AppData\Local\Temp\ccZ8Xcmd.s:23866  .debug_str:000000000000cb4f .LASF1336
C:\Users\CYMR90~1\AppData\Local\Temp\ccZ8Xcmd.s:28621  .debug_str:000000000001fb22 .LASF1337
C:\Users\CYMR90~1\AppData\Local\Temp\ccZ8Xcmd.s:25156  .debug_str:0000000000011c9e .LASF1338
C:\Users\CYMR90~1\AppData\Local\Temp\ccZ8Xcmd.s:24114  .debug_str:000000000000dab3 .LASF1339
C:\Users\CYMR90~1\AppData\Local\Temp\ccZ8Xcmd.s:23150  .debug_str:0000000000009b88 .LASF1340
C:\Users\CYMR90~1\AppData\Local\Temp\ccZ8Xcmd.s:22154  .debug_str:0000000000005b19 .LASF1341
C:\Users\CYMR90~1\AppData\Local\Temp\ccZ8Xcmd.s:21214  .debug_str:0000000000001f08 .LASF1342
C:\Users\CYMR90~1\AppData\Local\Temp\ccZ8Xcmd.s:31615  .debug_str:000000000002b8cb .LASF1343
C:\Users\CYMR90~1\AppData\Local\Temp\ccZ8Xcmd.s:31411  .debug_str:000000000002ab79 .LASF1344
C:\Users\CYMR90~1\AppData\Local\Temp\ccZ8Xcmd.s:30421  .debug_str:0000000000026cab .LASF1345
C:\Users\CYMR90~1\AppData\Local\Temp\ccZ8Xcmd.s:29455  .debug_str:0000000000022df4 .LASF1346
C:\Users\CYMR90~1\AppData\Local\Temp\ccZ8Xcmd.s:30839  .debug_str:00000000000288b1 .LASF1347
C:\Users\CYMR90~1\AppData\Local\Temp\ccZ8Xcmd.s:27543  .debug_str:000000000001b7a1 .LASF1348
C:\Users\CYMR90~1\AppData\Local\Temp\ccZ8Xcmd.s:28049  .debug_str:000000000001d854 .LASF1349
C:\Users\CYMR90~1\AppData\Local\Temp\ccZ8Xcmd.s:25626  .debug_str:0000000000013b85 .LASF1350
C:\Users\CYMR90~1\AppData\Local\Temp\ccZ8Xcmd.s:24700  .debug_str:000000000000ff49 .LASF1351
C:\Users\CYMR90~1\AppData\Local\Temp\ccZ8Xcmd.s:23734  .debug_str:000000000000c1b2 .LASF1352
C:\Users\CYMR90~1\AppData\Local\Temp\ccZ8Xcmd.s:22658  .debug_str:0000000000007baf .LASF1353
C:\Users\CYMR90~1\AppData\Local\Temp\ccZ8Xcmd.s:23230  .debug_str:000000000000a097 .LASF1354
C:\Users\CYMR90~1\AppData\Local\Temp\ccZ8Xcmd.s:22232  .debug_str:0000000000005feb .LASF1355
C:\Users\CYMR90~1\AppData\Local\Temp\ccZ8Xcmd.s:21298  .debug_str:00000000000023d4 .LASF1356
C:\Users\CYMR90~1\AppData\Local\Temp\ccZ8Xcmd.s:31689  .debug_str:000000000002bdd5 .LASF1357
C:\Users\CYMR90~1\AppData\Local\Temp\ccZ8Xcmd.s:25718  .debug_str:0000000000014115 .LASF1358
C:\Users\CYMR90~1\AppData\Local\Temp\ccZ8Xcmd.s:22360  .debug_str:00000000000067d6 .LASF1359
C:\Users\CYMR90~1\AppData\Local\Temp\ccZ8Xcmd.s:28811  .debug_str:000000000002072b .LASF1360
C:\Users\CYMR90~1\AppData\Local\Temp\ccZ8Xcmd.s:27767  .debug_str:000000000001c502 .LASF1361
C:\Users\CYMR90~1\AppData\Local\Temp\ccZ8Xcmd.s:26821  .debug_str:000000000001874a .LASF1362
C:\Users\CYMR90~1\AppData\Local\Temp\ccZ8Xcmd.s:30849  .debug_str:0000000000028942 .LASF1363
C:\Users\CYMR90~1\AppData\Local\Temp\ccZ8Xcmd.s:26114  .debug_str:0000000000015910 .LASF1364
C:\Users\CYMR90~1\AppData\Local\Temp\ccZ8Xcmd.s:22780  .debug_str:0000000000008443 .LASF1365
C:\Users\CYMR90~1\AppData\Local\Temp\ccZ8Xcmd.s:30451  .debug_str:0000000000026e6e .LASF1366
C:\Users\CYMR90~1\AppData\Local\Temp\ccZ8Xcmd.s:29695  .debug_str:0000000000023c19 .LASF1367
C:\Users\CYMR90~1\AppData\Local\Temp\ccZ8Xcmd.s:28707  .debug_str:000000000002007b .LASF1368
C:\Users\CYMR90~1\AppData\Local\Temp\ccZ8Xcmd.s:26981  .debug_str:0000000000019254 .LASF1369
C:\Users\CYMR90~1\AppData\Local\Temp\ccZ8Xcmd.s:24864  .debug_str:0000000000010955 .LASF1370
C:\Users\CYMR90~1\AppData\Local\Temp\ccZ8Xcmd.s:27981  .debug_str:000000000001d414 .LASF1371
C:\Users\CYMR90~1\AppData\Local\Temp\ccZ8Xcmd.s:21342  .debug_str:00000000000026fa .LASF1372
C:\Users\CYMR90~1\AppData\Local\Temp\ccZ8Xcmd.s:23908  .debug_str:000000000000cdcc .LASF1373
C:\Users\CYMR90~1\AppData\Local\Temp\ccZ8Xcmd.s:27025  .debug_str:000000000001950e .LASF1374
C:\Users\CYMR90~1\AppData\Local\Temp\ccZ8Xcmd.s:30121  .debug_str:0000000000025a48 .LASF1375
C:\Users\CYMR90~1\AppData\Local\Temp\ccZ8Xcmd.s:21910  .debug_str:0000000000004c65 .LASF1376
C:\Users\CYMR90~1\AppData\Local\Temp\ccZ8Xcmd.s:25062  .debug_str:00000000000115a9 .LASF1377
C:\Users\CYMR90~1\AppData\Local\Temp\ccZ8Xcmd.s:28139  .debug_str:000000000001de52 .LASF1378
C:\Users\CYMR90~1\AppData\Local\Temp\ccZ8Xcmd.s:31319  .debug_str:000000000002a620 .LASF1379
C:\Users\CYMR90~1\AppData\Local\Temp\ccZ8Xcmd.s:31287  .debug_str:000000000002a3ff .LASF1380
C:\Users\CYMR90~1\AppData\Local\Temp\ccZ8Xcmd.s:23000  .debug_str:00000000000091e6 .LASF1381
C:\Users\CYMR90~1\AppData\Local\Temp\ccZ8Xcmd.s:26084  .debug_str:000000000001574b .LASF1382
C:\Users\CYMR90~1\AppData\Local\Temp\ccZ8Xcmd.s:29211  .debug_str:0000000000021f8e .LASF1383
C:\Users\CYMR90~1\AppData\Local\Temp\ccZ8Xcmd.s:21038  .debug_str:0000000000001430 .LASF1384
C:\Users\CYMR90~1\AppData\Local\Temp\ccZ8Xcmd.s:25530  .debug_str:00000000000135af .LASF1385
C:\Users\CYMR90~1\AppData\Local\Temp\ccZ8Xcmd.s:27325  .debug_str:000000000001a9fb .LASF1386
C:\Users\CYMR90~1\AppData\Local\Temp\ccZ8Xcmd.s:30411  .debug_str:0000000000026bea .LASF1387
C:\Users\CYMR90~1\AppData\Local\Temp\ccZ8Xcmd.s:22188  .debug_str:0000000000005d07 .LASF1388
C:\Users\CYMR90~1\AppData\Local\Temp\ccZ8Xcmd.s:25260  .debug_str:0000000000012358 .LASF1389
C:\Users\CYMR90~1\AppData\Local\Temp\ccZ8Xcmd.s:24618  .debug_str:000000000000fa01 .LASF1390
C:\Users\CYMR90~1\AppData\Local\Temp\ccZ8Xcmd.s:27625  .debug_str:000000000001bc89 .LASF1391
C:\Users\CYMR90~1\AppData\Local\Temp\ccZ8Xcmd.s:30753  .debug_str:00000000000282ed .LASF1392
C:\Users\CYMR90~1\AppData\Local\Temp\ccZ8Xcmd.s:22536  .debug_str:0000000000007344 .LASF1393
C:\Users\CYMR90~1\AppData\Local\Temp\ccZ8Xcmd.s:25654  .debug_str:0000000000013d13 .LASF1394
C:\Users\CYMR90~1\AppData\Local\Temp\ccZ8Xcmd.s:25808  .debug_str:000000000001468f .LASF1395
C:\Users\CYMR90~1\AppData\Local\Temp\ccZ8Xcmd.s:31987  .debug_str:000000000002d19f .LASF1396
C:\Users\CYMR90~1\AppData\Local\Temp\ccZ8Xcmd.s:23788  .debug_str:000000000000c4fb .LASF1397
C:\Users\CYMR90~1\AppData\Local\Temp\ccZ8Xcmd.s:28353  .debug_str:000000000001eae8 .LASF1398
C:\Users\CYMR90~1\AppData\Local\Temp\ccZ8Xcmd.s:24968  .debug_str:0000000000010faf .LASF1399
C:\Users\CYMR90~1\AppData\Local\Temp\ccZ8Xcmd.s:26256  .debug_str:0000000000016257 .LASF1400
C:\Users\CYMR90~1\AppData\Local\Temp\ccZ8Xcmd.s:20998  .debug_str:00000000000011f1 .LASF1401
C:\Users\CYMR90~1\AppData\Local\Temp\ccZ8Xcmd.s:28685  .debug_str:000000000001ff4c .LASF1402
C:\Users\CYMR90~1\AppData\Local\Temp\ccZ8Xcmd.s:23618  .debug_str:000000000000b9b7 .LASF1403
C:\Users\CYMR90~1\AppData\Local\Temp\ccZ8Xcmd.s:28457  .debug_str:000000000001f153 .LASF1404
C:\Users\CYMR90~1\AppData\Local\Temp\ccZ8Xcmd.s:21704  .debug_str:0000000000003e7f .LASF1405
C:\Users\CYMR90~1\AppData\Local\Temp\ccZ8Xcmd.s:31247  .debug_str:000000000002a181 .LASF1406
C:\Users\CYMR90~1\AppData\Local\Temp\ccZ8Xcmd.s:29407  .debug_str:0000000000022b42 .LASF1407
C:\Users\CYMR90~1\AppData\Local\Temp\ccZ8Xcmd.s:29573  .debug_str:00000000000234cc .LASF1408
C:\Users\CYMR90~1\AppData\Local\Temp\ccZ8Xcmd.s:21374  .debug_str:0000000000002901 .LASF1409
C:\Users\CYMR90~1\AppData\Local\Temp\ccZ8Xcmd.s:24524  .debug_str:000000000000f3cb .LASF1410
C:\Users\CYMR90~1\AppData\Local\Temp\ccZ8Xcmd.s:30987  .debug_str:0000000000029183 .LASF1411
C:\Users\CYMR90~1\AppData\Local\Temp\ccZ8Xcmd.s:22768  .debug_str:000000000000837f .LASF1412
C:\Users\CYMR90~1\AppData\Local\Temp\ccZ8Xcmd.s:28327  .debug_str:000000000001e97c .LASF1413
C:\Users\CYMR90~1\AppData\Local\Temp\ccZ8Xcmd.s:28989  .debug_str:0000000000021240 .LASF1414
C:\Users\CYMR90~1\AppData\Local\Temp\ccZ8Xcmd.s:20846  .debug_str:000000000000084b .LASF1415
C:\Users\CYMR90~1\AppData\Local\Temp\ccZ8Xcmd.s:23876  .debug_str:000000000000cbb7 .LASF1416
C:\Users\CYMR90~1\AppData\Local\Temp\ccZ8Xcmd.s:27003  .debug_str:00000000000193e0 .LASF1417
C:\Users\CYMR90~1\AppData\Local\Temp\ccZ8Xcmd.s:28517  .debug_str:000000000001f4f1 .LASF1418
C:\Users\CYMR90~1\AppData\Local\Temp\ccZ8Xcmd.s:21890  .debug_str:0000000000004b19 .LASF1419
C:\Users\CYMR90~1\AppData\Local\Temp\ccZ8Xcmd.s:24954  .debug_str:0000000000010ed0 .LASF1420
C:\Users\CYMR90~1\AppData\Local\Temp\ccZ8Xcmd.s:24298  .debug_str:000000000000e646 .LASF1421
C:\Users\CYMR90~1\AppData\Local\Temp\ccZ8Xcmd.s:27435  .debug_str:000000000001b135 .LASF1422
C:\Users\CYMR90~1\AppData\Local\Temp\ccZ8Xcmd.s:30529  .debug_str:00000000000273db .LASF1423
C:\Users\CYMR90~1\AppData\Local\Temp\ccZ8Xcmd.s:22314  .debug_str:00000000000064bf .LASF1424
C:\Users\CYMR90~1\AppData\Local\Temp\ccZ8Xcmd.s:25468  .debug_str:00000000000130f5 .LASF1425
C:\Users\CYMR90~1\AppData\Local\Temp\ccZ8Xcmd.s:28449  .debug_str:000000000001f0ba .LASF1426
C:\Users\CYMR90~1\AppData\Local\Temp\ccZ8Xcmd.s:31699  .debug_str:000000000002bec8 .LASF1427
C:\Users\CYMR90~1\AppData\Local\Temp\ccZ8Xcmd.s:23488  .debug_str:000000000000b0fa .LASF1428
C:\Users\CYMR90~1\AppData\Local\Temp\ccZ8Xcmd.s:26583  .debug_str:0000000000017949 .LASF1429
C:\Users\CYMR90~1\AppData\Local\Temp\ccZ8Xcmd.s:29705  .debug_str:0000000000023cb9 .LASF1430
C:\Users\CYMR90~1\AppData\Local\Temp\ccZ8Xcmd.s:28459  .debug_str:000000000001f16b .LASF1431
C:\Users\CYMR90~1\AppData\Local\Temp\ccZ8Xcmd.s:20806  .debug_str:00000000000005f9 .LASF1432
C:\Users\CYMR90~1\AppData\Local\Temp\ccZ8Xcmd.s:24996  .debug_str:0000000000011156 .LASF1433
C:\Users\CYMR90~1\AppData\Local\Temp\ccZ8Xcmd.s:28689  .debug_str:000000000001ff76 .LASF1434
C:\Users\CYMR90~1\AppData\Local\Temp\ccZ8Xcmd.s:27735  .debug_str:000000000001c316 .LASF1435
C:\Users\CYMR90~1\AppData\Local\Temp\ccZ8Xcmd.s:26789  .debug_str:0000000000018526 .LASF1436
C:\Users\CYMR90~1\AppData\Local\Temp\ccZ8Xcmd.s:26216  .debug_str:0000000000016014 .LASF1437
C:\Users\CYMR90~1\AppData\Local\Temp\ccZ8Xcmd.s:30561  .debug_str:0000000000027585 .LASF1438
C:\Users\CYMR90~1\AppData\Local\Temp\ccZ8Xcmd.s:29591  .debug_str:000000000002363c .LASF1439
C:\Users\CYMR90~1\AppData\Local\Temp\ccZ8Xcmd.s:28611  .debug_str:000000000001fab3 .LASF1440
C:\Users\CYMR90~1\AppData\Local\Temp\ccZ8Xcmd.s:27665  .debug_str:000000000001bf16 .LASF1441
C:\Users\CYMR90~1\AppData\Local\Temp\ccZ8Xcmd.s:26715  .debug_str:00000000000180e4 .LASF1442
C:\Users\CYMR90~1\AppData\Local\Temp\ccZ8Xcmd.s:25746  .debug_str:00000000000142a6 .LASF1443
C:\Users\CYMR90~1\AppData\Local\Temp\ccZ8Xcmd.s:24812  .debug_str:0000000000010616 .LASF1444
C:\Users\CYMR90~1\AppData\Local\Temp\ccZ8Xcmd.s:31657  .debug_str:000000000002bb9f .LASF1445
C:\Users\CYMR90~1\AppData\Local\Temp\ccZ8Xcmd.s:22884  .debug_str:0000000000008a99 .LASF1446
C:\Users\CYMR90~1\AppData\Local\Temp\ccZ8Xcmd.s:24432  .debug_str:000000000000ee11 .LASF1447
C:\Users\CYMR90~1\AppData\Local\Temp\ccZ8Xcmd.s:29939  .debug_str:0000000000024cec .LASF1448
C:\Users\CYMR90~1\AppData\Local\Temp\ccZ8Xcmd.s:28967  .debug_str:000000000002104b .LASF1449
C:\Users\CYMR90~1\AppData\Local\Temp\ccZ8Xcmd.s:27991  .debug_str:000000000001d513 .LASF1450
C:\Users\CYMR90~1\AppData\Local\Temp\ccZ8Xcmd.s:27069  .debug_str:000000000001988f .LASF1451
C:\Users\CYMR90~1\AppData\Local\Temp\ccZ8Xcmd.s:26082  .debug_str:0000000000015736 .LASF1452
C:\Users\CYMR90~1\AppData\Local\Temp\ccZ8Xcmd.s:23486  .debug_str:000000000000b0e7 .LASF1453
C:\Users\CYMR90~1\AppData\Local\Temp\ccZ8Xcmd.s:22100  .debug_str:00000000000057a7 .LASF1454
C:\Users\CYMR90~1\AppData\Local\Temp\ccZ8Xcmd.s:23294  .debug_str:000000000000a457 .LASF1455
C:\Users\CYMR90~1\AppData\Local\Temp\ccZ8Xcmd.s:28357  .debug_str:000000000001eb2a .LASF1456
C:\Users\CYMR90~1\AppData\Local\Temp\ccZ8Xcmd.s:29991  .debug_str:0000000000025077 .LASF1457
C:\Users\CYMR90~1\AppData\Local\Temp\ccZ8Xcmd.s:22066  .debug_str:00000000000055c2 .LASF1458
C:\Users\CYMR90~1\AppData\Local\Temp\ccZ8Xcmd.s:28443  .debug_str:000000000001f06c .LASF1459
C:\Users\CYMR90~1\AppData\Local\Temp\ccZ8Xcmd.s:25278  .debug_str:0000000000012487 .LASF1460
C:\Users\CYMR90~1\AppData\Local\Temp\ccZ8Xcmd.s:23398  .debug_str:000000000000aac9 .LASF1461
C:\Users\CYMR90~1\AppData\Local\Temp\ccZ8Xcmd.s:24578  .debug_str:000000000000f7b4 .LASF1462
C:\Users\CYMR90~1\AppData\Local\Temp\ccZ8Xcmd.s:25068  .debug_str:0000000000011684 .LASF1463
C:\Users\CYMR90~1\AppData\Local\Temp\ccZ8Xcmd.s:26148  .debug_str:0000000000015b31 .LASF1464
C:\Users\CYMR90~1\AppData\Local\Temp\ccZ8Xcmd.s:31433  .debug_str:000000000002acfb .LASF1465
C:\Users\CYMR90~1\AppData\Local\Temp\ccZ8Xcmd.s:30881  .debug_str:0000000000028b0c .LASF1466
C:\Users\CYMR90~1\AppData\Local\Temp\ccZ8Xcmd.s:25750  .debug_str:00000000000142cd .LASF1467
C:\Users\CYMR90~1\AppData\Local\Temp\ccZ8Xcmd.s:30441  .debug_str:0000000000026ddf .LASF1468
C:\Users\CYMR90~1\AppData\Local\Temp\ccZ8Xcmd.s:24750  .debug_str:0000000000010244 .LASF1469
C:\Users\CYMR90~1\AppData\Local\Temp\ccZ8Xcmd.s:22842  .debug_str:000000000000882f .LASF1470
C:\Users\CYMR90~1\AppData\Local\Temp\ccZ8Xcmd.s:25042  .debug_str:000000000001144b .LASF1471
C:\Users\CYMR90~1\AppData\Local\Temp\ccZ8Xcmd.s:26609  .debug_str:0000000000017ab8 .LASF1472
C:\Users\CYMR90~1\AppData\Local\Temp\ccZ8Xcmd.s:29891  .debug_str:00000000000249e1 .LASF1473
C:\Users\CYMR90~1\AppData\Local\Temp\ccZ8Xcmd.s:30535  .debug_str:000000000002741f .LASF1474
C:\Users\CYMR90~1\AppData\Local\Temp\ccZ8Xcmd.s:20898  .debug_str:0000000000000bcc .LASF1475
C:\Users\CYMR90~1\AppData\Local\Temp\ccZ8Xcmd.s:22770  .debug_str:0000000000008398 .LASF1476
C:\Users\CYMR90~1\AppData\Local\Temp\ccZ8Xcmd.s:21400  .debug_str:0000000000002a9f .LASF1477
C:\Users\CYMR90~1\AppData\Local\Temp\ccZ8Xcmd.s:30719  .debug_str:0000000000028030 .LASF1478
C:\Users\CYMR90~1\AppData\Local\Temp\ccZ8Xcmd.s:29741  .debug_str:0000000000023f85 .LASF1479
C:\Users\CYMR90~1\AppData\Local\Temp\ccZ8Xcmd.s:21522  .debug_str:000000000000329c .LASF1480
C:\Users\CYMR90~1\AppData\Local\Temp\ccZ8Xcmd.s:23742  .debug_str:000000000000c20e .LASF1481
C:\Users\CYMR90~1\AppData\Local\Temp\ccZ8Xcmd.s:29859  .debug_str:00000000000247ed .LASF1482
C:\Users\CYMR90~1\AppData\Local\Temp\ccZ8Xcmd.s:23082  .debug_str:0000000000009747 .LASF1483
C:\Users\CYMR90~1\AppData\Local\Temp\ccZ8Xcmd.s:21896  .debug_str:0000000000004b72 .LASF1484
C:\Users\CYMR90~1\AppData\Local\Temp\ccZ8Xcmd.s:24306  .debug_str:000000000000e6cf .LASF1485
C:\Users\CYMR90~1\AppData\Local\Temp\ccZ8Xcmd.s:25716  .debug_str:0000000000014102 .LASF1486
C:\Users\CYMR90~1\AppData\Local\Temp\ccZ8Xcmd.s:27321  .debug_str:000000000001a9a5 .LASF1487
C:\Users\CYMR90~1\AppData\Local\Temp\ccZ8Xcmd.s:20736  .debug_str:000000000000023f .LASF1488
C:\Users\CYMR90~1\AppData\Local\Temp\ccZ8Xcmd.s:26100  .debug_str:0000000000015833 .LASF1489
C:\Users\CYMR90~1\AppData\Local\Temp\ccZ8Xcmd.s:24104  .debug_str:000000000000da29 .LASF1490
C:\Users\CYMR90~1\AppData\Local\Temp\ccZ8Xcmd.s:30953  .debug_str:0000000000028f7d .LASF1491
C:\Users\CYMR90~1\AppData\Local\Temp\ccZ8Xcmd.s:21368  .debug_str:000000000000289a .LASF1492
C:\Users\CYMR90~1\AppData\Local\Temp\ccZ8Xcmd.s:28921  .debug_str:0000000000020dcc .LASF1493
C:\Users\CYMR90~1\AppData\Local\Temp\ccZ8Xcmd.s:31173  .debug_str:0000000000029d49 .LASF1494
C:\Users\CYMR90~1\AppData\Local\Temp\ccZ8Xcmd.s:22524  .debug_str:00000000000072b7 .LASF1495
C:\Users\CYMR90~1\AppData\Local\Temp\ccZ8Xcmd.s:30215  .debug_str:0000000000025fe6 .LASF1496
C:\Users\CYMR90~1\AppData\Local\Temp\ccZ8Xcmd.s:30925  .debug_str:0000000000028db0 .LASF1497
C:\Users\CYMR90~1\AppData\Local\Temp\ccZ8Xcmd.s:22320  .debug_str:0000000000006517 .LASF1498
C:\Users\CYMR90~1\AppData\Local\Temp\ccZ8Xcmd.s:23174  .debug_str:0000000000009cf3 .LASF1499
C:\Users\CYMR90~1\AppData\Local\Temp\ccZ8Xcmd.s:31861  .debug_str:000000000002c981 .LASF1500
C:\Users\CYMR90~1\AppData\Local\Temp\ccZ8Xcmd.s:31089  .debug_str:0000000000029848 .LASF1501
C:\Users\CYMR90~1\AppData\Local\Temp\ccZ8Xcmd.s:28823  .debug_str:0000000000020803 .LASF1502
C:\Users\CYMR90~1\AppData\Local\Temp\ccZ8Xcmd.s:22300  .debug_str:00000000000063db .LASF1503
C:\Users\CYMR90~1\AppData\Local\Temp\ccZ8Xcmd.s:23848  .debug_str:000000000000ca26 .LASF1504
C:\Users\CYMR90~1\AppData\Local\Temp\ccZ8Xcmd.s:28191  .debug_str:000000000001e15f .LASF1505
C:\Users\CYMR90~1\AppData\Local\Temp\ccZ8Xcmd.s:27519  .debug_str:000000000001b63c .LASF1506
C:\Users\CYMR90~1\AppData\Local\Temp\ccZ8Xcmd.s:24426  .debug_str:000000000000edc2 .LASF1507
C:\Users\CYMR90~1\AppData\Local\Temp\ccZ8Xcmd.s:29021  .debug_str:000000000002141e .LASF1508
C:\Users\CYMR90~1\AppData\Local\Temp\ccZ8Xcmd.s:25224  .debug_str:00000000000120fb .LASF1509
C:\Users\CYMR90~1\AppData\Local\Temp\ccZ8Xcmd.s:30825  .debug_str:00000000000287b9 .LASF1510
C:\Users\CYMR90~1\AppData\Local\Temp\ccZ8Xcmd.s:29605  .debug_str:00000000000236f6 .LASF1511
C:\Users\CYMR90~1\AppData\Local\Temp\ccZ8Xcmd.s:21568  .debug_str:0000000000003586 .LASF1512
C:\Users\CYMR90~1\AppData\Local\Temp\ccZ8Xcmd.s:26170  .debug_str:0000000000015cf8 .LASF1513
C:\Users\CYMR90~1\AppData\Local\Temp\ccZ8Xcmd.s:30017  .debug_str:00000000000252a5 .LASF1514
C:\Users\CYMR90~1\AppData\Local\Temp\ccZ8Xcmd.s:28419  .debug_str:000000000001ef20 .LASF1515
C:\Users\CYMR90~1\AppData\Local\Temp\ccZ8Xcmd.s:31595  .debug_str:000000000002b759 .LASF1516
C:\Users\CYMR90~1\AppData\Local\Temp\ccZ8Xcmd.s:28241  .debug_str:000000000001e436 .LASF1517
C:\Users\CYMR90~1\AppData\Local\Temp\ccZ8Xcmd.s:30249  .debug_str:00000000000261cd .LASF1518
C:\Users\CYMR90~1\AppData\Local\Temp\ccZ8Xcmd.s:25214  .debug_str:000000000001208a .LASF1519
C:\Users\CYMR90~1\AppData\Local\Temp\ccZ8Xcmd.s:28637  .debug_str:000000000001fc62 .LASF1520
C:\Users\CYMR90~1\AppData\Local\Temp\ccZ8Xcmd.s:27695  .debug_str:000000000001c0ee .LASF1521
C:\Users\CYMR90~1\AppData\Local\Temp\ccZ8Xcmd.s:28959  .debug_str:0000000000020fdc .LASF1522
C:\Users\CYMR90~1\AppData\Local\Temp\ccZ8Xcmd.s:26979  .debug_str:0000000000019238 .LASF1523
C:\Users\CYMR90~1\AppData\Local\Temp\ccZ8Xcmd.s:29607  .debug_str:000000000002370c .LASF1524
C:\Users\CYMR90~1\AppData\Local\Temp\ccZ8Xcmd.s:21970  .debug_str:0000000000004fdc .LASF1525
C:\Users\CYMR90~1\AppData\Local\Temp\ccZ8Xcmd.s:27639  .debug_str:000000000001bd82 .LASF1526
C:\Users\CYMR90~1\AppData\Local\Temp\ccZ8Xcmd.s:23762  .debug_str:000000000000c34e .LASF1527
C:\Users\CYMR90~1\AppData\Local\Temp\ccZ8Xcmd.s:29357  .debug_str:0000000000022804 .LASF1528
C:\Users\CYMR90~1\AppData\Local\Temp\ccZ8Xcmd.s:30613  .debug_str:00000000000278a4 .LASF1529
C:\Users\CYMR90~1\AppData\Local\Temp\ccZ8Xcmd.s:29851  .debug_str:00000000000246cb .LASF1530
C:\Users\CYMR90~1\AppData\Local\Temp\ccZ8Xcmd.s:29915  .debug_str:0000000000024b4d .LASF1531
C:\Users\CYMR90~1\AppData\Local\Temp\ccZ8Xcmd.s:21724  .debug_str:0000000000003f96 .LASF1532
C:\Users\CYMR90~1\AppData\Local\Temp\ccZ8Xcmd.s:26931  .debug_str:0000000000018e8f .LASF1533
C:\Users\CYMR90~1\AppData\Local\Temp\ccZ8Xcmd.s:29735  .debug_str:0000000000023e45 .LASF1534
C:\Users\CYMR90~1\AppData\Local\Temp\ccZ8Xcmd.s:23830  .debug_str:000000000000c838 .LASF1535
C:\Users\CYMR90~1\AppData\Local\Temp\ccZ8Xcmd.s:29919  .debug_str:0000000000024bbf .LASF1536
C:\Users\CYMR90~1\AppData\Local\Temp\ccZ8Xcmd.s:29265  .debug_str:000000000002229b .LASF1537
C:\Users\CYMR90~1\AppData\Local\Temp\ccZ8Xcmd.s:30489  .debug_str:00000000000270cd .LASF1538
C:\Users\CYMR90~1\AppData\Local\Temp\ccZ8Xcmd.s:30379  .debug_str:00000000000269e0 .LASF1539
C:\Users\CYMR90~1\AppData\Local\Temp\ccZ8Xcmd.s:25094  .debug_str:00000000000118bd .LASF1540
C:\Users\CYMR90~1\AppData\Local\Temp\ccZ8Xcmd.s:31115  .debug_str:00000000000299d0 .LASF1541
C:\Users\CYMR90~1\AppData\Local\Temp\ccZ8Xcmd.s:24082  .debug_str:000000000000d918 .LASF1542
C:\Users\CYMR90~1\AppData\Local\Temp\ccZ8Xcmd.s:21488  .debug_str:000000000000303c .LASF1543
C:\Users\CYMR90~1\AppData\Local\Temp\ccZ8Xcmd.s:24658  .debug_str:000000000000fc9e .LASF1544
C:\Users\CYMR90~1\AppData\Local\Temp\ccZ8Xcmd.s:22702  .debug_str:0000000000007f13 .LASF1545
C:\Users\CYMR90~1\AppData\Local\Temp\ccZ8Xcmd.s:23182  .debug_str:0000000000009d66 .LASF1546
C:\Users\CYMR90~1\AppData\Local\Temp\ccZ8Xcmd.s:23818  .debug_str:000000000000c753 .LASF1547
C:\Users\CYMR90~1\AppData\Local\Temp\ccZ8Xcmd.s:30695  .debug_str:0000000000027e4f .LASF1548
C:\Users\CYMR90~1\AppData\Local\Temp\ccZ8Xcmd.s:30185  .debug_str:0000000000025dd8 .LASF1549
C:\Users\CYMR90~1\AppData\Local\Temp\ccZ8Xcmd.s:27589  .debug_str:000000000001b9f4 .LASF1550
C:\Users\CYMR90~1\AppData\Local\Temp\ccZ8Xcmd.s:24964  .debug_str:0000000000010f61 .LASF1551
C:\Users\CYMR90~1\AppData\Local\Temp\ccZ8Xcmd.s:27555  .debug_str:000000000001b816 .LASF1552
C:\Users\CYMR90~1\AppData\Local\Temp\ccZ8Xcmd.s:20966  .debug_str:0000000000001007 .LASF1553
C:\Users\CYMR90~1\AppData\Local\Temp\ccZ8Xcmd.s:21268  .debug_str:00000000000021fb .LASF1554
C:\Users\CYMR90~1\AppData\Local\Temp\ccZ8Xcmd.s:28279  .debug_str:000000000001e6da .LASF1555
C:\Users\CYMR90~1\AppData\Local\Temp\ccZ8Xcmd.s:26885  .debug_str:0000000000018bd4 .LASF1556
C:\Users\CYMR90~1\AppData\Local\Temp\ccZ8Xcmd.s:26909  .debug_str:0000000000018d46 .LASF1557
C:\Users\CYMR90~1\AppData\Local\Temp\ccZ8Xcmd.s:31203  .debug_str:0000000000029ee3 .LASF1558
C:\Users\CYMR90~1\AppData\Local\Temp\ccZ8Xcmd.s:24808  .debug_str:00000000000105ea .LASF1559
C:\Users\CYMR90~1\AppData\Local\Temp\ccZ8Xcmd.s:29617  .debug_str:0000000000023785 .LASF1560
C:\Users\CYMR90~1\AppData\Local\Temp\ccZ8Xcmd.s:30045  .debug_str:00000000000254a8 .LASF1561
C:\Users\CYMR90~1\AppData\Local\Temp\ccZ8Xcmd.s:24918  .debug_str:0000000000010cdd .LASF1562
C:\Users\CYMR90~1\AppData\Local\Temp\ccZ8Xcmd.s:24588  .debug_str:000000000000f831 .LASF1563
C:\Users\CYMR90~1\AppData\Local\Temp\ccZ8Xcmd.s:31697  .debug_str:000000000002be22 .LASF1564
C:\Users\CYMR90~1\AppData\Local\Temp\ccZ8Xcmd.s:22328  .debug_str:000000000000657e .LASF1565
C:\Users\CYMR90~1\AppData\Local\Temp\ccZ8Xcmd.s:27989  .debug_str:000000000001d485 .LASF1566
C:\Users\CYMR90~1\AppData\Local\Temp\ccZ8Xcmd.s:27275  .debug_str:000000000001a65d .LASF1567
C:\Users\CYMR90~1\AppData\Local\Temp\ccZ8Xcmd.s:28759  .debug_str:00000000000203ce .LASF1568
C:\Users\CYMR90~1\AppData\Local\Temp\ccZ8Xcmd.s:25092  .debug_str:0000000000011816 .LASF1569
C:\Users\CYMR90~1\AppData\Local\Temp\ccZ8Xcmd.s:30073  .debug_str:00000000000256c1 .LASF1570
C:\Users\CYMR90~1\AppData\Local\Temp\ccZ8Xcmd.s:25488  .debug_str:00000000000132db .LASF1571
C:\Users\CYMR90~1\AppData\Local\Temp\ccZ8Xcmd.s:22016  .debug_str:00000000000052bb .LASF1572
C:\Users\CYMR90~1\AppData\Local\Temp\ccZ8Xcmd.s:25910  .debug_str:0000000000014d04 .LASF1573
C:\Users\CYMR90~1\AppData\Local\Temp\ccZ8Xcmd.s:30811  .debug_str:00000000000286df .LASF1574
C:\Users\CYMR90~1\AppData\Local\Temp\ccZ8Xcmd.s:26379  .debug_str:0000000000016cab .LASF1575
C:\Users\CYMR90~1\AppData\Local\Temp\ccZ8Xcmd.s:24466  .debug_str:000000000000f02f .LASF1576
C:\Users\CYMR90~1\AppData\Local\Temp\ccZ8Xcmd.s:28283  .debug_str:000000000001e71c .LASF1577
C:\Users\CYMR90~1\AppData\Local\Temp\ccZ8Xcmd.s:31311  .debug_str:000000000002a584 .LASF1578
C:\Users\CYMR90~1\AppData\Local\Temp\ccZ8Xcmd.s:21278  .debug_str:0000000000002286 .LASF1579
C:\Users\CYMR90~1\AppData\Local\Temp\ccZ8Xcmd.s:27833  .debug_str:000000000001c9c0 .LASF1580
C:\Users\CYMR90~1\AppData\Local\Temp\ccZ8Xcmd.s:23300  .debug_str:000000000000a4b5 .LASF1581
C:\Users\CYMR90~1\AppData\Local\Temp\ccZ8Xcmd.s:23998  .debug_str:000000000000d427 .LASF1582
C:\Users\CYMR90~1\AppData\Local\Temp\ccZ8Xcmd.s:22692  .debug_str:0000000000007de7 .LASF1583
C:\Users\CYMR90~1\AppData\Local\Temp\ccZ8Xcmd.s:30491  .debug_str:00000000000270eb .LASF1584
C:\Users\CYMR90~1\AppData\Local\Temp\ccZ8Xcmd.s:28091  .debug_str:000000000001dac7 .LASF1585
C:\Users\CYMR90~1\AppData\Local\Temp\ccZ8Xcmd.s:31913  .debug_str:000000000002cc81 .LASF1586
C:\Users\CYMR90~1\AppData\Local\Temp\ccZ8Xcmd.s:23972  .debug_str:000000000000d1e1 .LASF1587
C:\Users\CYMR90~1\AppData\Local\Temp\ccZ8Xcmd.s:22652  .debug_str:0000000000007ac4 .LASF1588
C:\Users\CYMR90~1\AppData\Local\Temp\ccZ8Xcmd.s:26354  .debug_str:00000000000168fc .LASF1589
C:\Users\CYMR90~1\AppData\Local\Temp\ccZ8Xcmd.s:23516  .debug_str:000000000000b2a3 .LASF1590
C:\Users\CYMR90~1\AppData\Local\Temp\ccZ8Xcmd.s:26280  .debug_str:0000000000016388 .LASF1591
C:\Users\CYMR90~1\AppData\Local\Temp\ccZ8Xcmd.s:22896  .debug_str:0000000000008b29 .LASF1592
C:\Users\CYMR90~1\AppData\Local\Temp\ccZ8Xcmd.s:25480  .debug_str:00000000000131f6 .LASF1593
C:\Users\CYMR90~1\AppData\Local\Temp\ccZ8Xcmd.s:30995  .debug_str:00000000000291e7 .LASF1594
C:\Users\CYMR90~1\AppData\Local\Temp\ccZ8Xcmd.s:30727  .debug_str:00000000000280ae .LASF1595
C:\Users\CYMR90~1\AppData\Local\Temp\ccZ8Xcmd.s:20932  .debug_str:0000000000000db3 .LASF1596
C:\Users\CYMR90~1\AppData\Local\Temp\ccZ8Xcmd.s:27859  .debug_str:000000000001cb88 .LASF1597
C:\Users\CYMR90~1\AppData\Local\Temp\ccZ8Xcmd.s:21830  .debug_str:00000000000046ea .LASF1598
C:\Users\CYMR90~1\AppData\Local\Temp\ccZ8Xcmd.s:29993  .debug_str:0000000000025086 .LASF1599
C:\Users\CYMR90~1\AppData\Local\Temp\ccZ8Xcmd.s:21068  .debug_str:000000000000160b .LASF1600
C:\Users\CYMR90~1\AppData\Local\Temp\ccZ8Xcmd.s:24552  .debug_str:000000000000f554 .LASF1601
C:\Users\CYMR90~1\AppData\Local\Temp\ccZ8Xcmd.s:28983  .debug_str:0000000000021143 .LASF1602
C:\Users\CYMR90~1\AppData\Local\Temp\ccZ8Xcmd.s:27885  .debug_str:000000000001cdb8 .LASF1603
C:\Users\CYMR90~1\AppData\Local\Temp\ccZ8Xcmd.s:27779  .debug_str:000000000001c5b9 .LASF1604
C:\Users\CYMR90~1\AppData\Local\Temp\ccZ8Xcmd.s:29973  .debug_str:0000000000024ed5 .LASF1605
C:\Users\CYMR90~1\AppData\Local\Temp\ccZ8Xcmd.s:29893  .debug_str:00000000000249f7 .LASF1606
C:\Users\CYMR90~1\AppData\Local\Temp\ccZ8Xcmd.s:29845  .debug_str:0000000000024677 .LASF1607
C:\Users\CYMR90~1\AppData\Local\Temp\ccZ8Xcmd.s:26827  .debug_str:000000000001879c .LASF1608
C:\Users\CYMR90~1\AppData\Local\Temp\ccZ8Xcmd.s:21810  .debug_str:0000000000004581 .LASF1609
C:\Users\CYMR90~1\AppData\Local\Temp\ccZ8Xcmd.s:29193  .debug_str:0000000000021e8a .LASF1610
C:\Users\CYMR90~1\AppData\Local\Temp\ccZ8Xcmd.s:31821  .debug_str:000000000002c693 .LASF1611
C:\Users\CYMR90~1\AppData\Local\Temp\ccZ8Xcmd.s:27731  .debug_str:000000000001c2da .LASF1612
C:\Users\CYMR90~1\AppData\Local\Temp\ccZ8Xcmd.s:25794  .debug_str:00000000000145bf .LASF1613
C:\Users\CYMR90~1\AppData\Local\Temp\ccZ8Xcmd.s:23168  .debug_str:0000000000009c95 .LASF1614
C:\Users\CYMR90~1\AppData\Local\Temp\ccZ8Xcmd.s:27421  .debug_str:000000000001b01c .LASF1615
C:\Users\CYMR90~1\AppData\Local\Temp\ccZ8Xcmd.s:29077  .debug_str:0000000000021772 .LASF1616
C:\Users\CYMR90~1\AppData\Local\Temp\ccZ8Xcmd.s:25882  .debug_str:0000000000014af1 .LASF1617
C:\Users\CYMR90~1\AppData\Local\Temp\ccZ8Xcmd.s:27791  .debug_str:000000000001c724 .LASF1618
C:\Users\CYMR90~1\AppData\Local\Temp\ccZ8Xcmd.s:21850  .debug_str:00000000000048ba .LASF1619
C:\Users\CYMR90~1\AppData\Local\Temp\ccZ8Xcmd.s:23552  .debug_str:000000000000b574 .LASF1620
C:\Users\CYMR90~1\AppData\Local\Temp\ccZ8Xcmd.s:24380  .debug_str:000000000000eb47 .LASF1621
C:\Users\CYMR90~1\AppData\Local\Temp\ccZ8Xcmd.s:21428  .debug_str:0000000000002c6d .LASF1622
C:\Users\CYMR90~1\AppData\Local\Temp\ccZ8Xcmd.s:28787  .debug_str:00000000000205c5 .LASF1623
C:\Users\CYMR90~1\AppData\Local\Temp\ccZ8Xcmd.s:25482  .debug_str:0000000000013291 .LASF1624
C:\Users\CYMR90~1\AppData\Local\Temp\ccZ8Xcmd.s:23650  .debug_str:000000000000bc60 .LASF1625
C:\Users\CYMR90~1\AppData\Local\Temp\ccZ8Xcmd.s:29487  .debug_str:0000000000022f70 .LASF1626
C:\Users\CYMR90~1\AppData\Local\Temp\ccZ8Xcmd.s:22324  .debug_str:0000000000006550 .LASF1627
C:\Users\CYMR90~1\AppData\Local\Temp\ccZ8Xcmd.s:28535  .debug_str:000000000001f5fe .LASF1628
C:\Users\CYMR90~1\AppData\Local\Temp\ccZ8Xcmd.s:23410  .debug_str:000000000000ab8b .LASF1629
C:\Users\CYMR90~1\AppData\Local\Temp\ccZ8Xcmd.s:29273  .debug_str:00000000000222f2 .LASF1630
C:\Users\CYMR90~1\AppData\Local\Temp\ccZ8Xcmd.s:22878  .debug_str:0000000000008a42 .LASF1631
C:\Users\CYMR90~1\AppData\Local\Temp\ccZ8Xcmd.s:21030  .debug_str:00000000000013db .LASF1632
C:\Users\CYMR90~1\AppData\Local\Temp\ccZ8Xcmd.s:27533  .debug_str:000000000001b72e .LASF1633
C:\Users\CYMR90~1\AppData\Local\Temp\ccZ8Xcmd.s:26517  .debug_str:00000000000174d4 .LASF1634
C:\Users\CYMR90~1\AppData\Local\Temp\ccZ8Xcmd.s:23632  .debug_str:000000000000bae3 .LASF1635
C:\Users\CYMR90~1\AppData\Local\Temp\ccZ8Xcmd.s:23736  .debug_str:000000000000c1c8 .LASF1636
C:\Users\CYMR90~1\AppData\Local\Temp\ccZ8Xcmd.s:27393  .debug_str:000000000001ae93 .LASF1637
C:\Users\CYMR90~1\AppData\Local\Temp\ccZ8Xcmd.s:23802  .debug_str:000000000000c640 .LASF1638
C:\Users\CYMR90~1\AppData\Local\Temp\ccZ8Xcmd.s:23526  .debug_str:000000000000b3c8 .LASF1639
C:\Users\CYMR90~1\AppData\Local\Temp\ccZ8Xcmd.s:26731  .debug_str:00000000000181d7 .LASF1640
C:\Users\CYMR90~1\AppData\Local\Temp\ccZ8Xcmd.s:24756  .debug_str:00000000000102a0 .LASF1641
C:\Users\CYMR90~1\AppData\Local\Temp\ccZ8Xcmd.s:29835  .debug_str:00000000000245db .LASF1642
C:\Users\CYMR90~1\AppData\Local\Temp\ccZ8Xcmd.s:25104  .debug_str:0000000000011989 .LASF1643
C:\Users\CYMR90~1\AppData\Local\Temp\ccZ8Xcmd.s:28673  .debug_str:000000000001fe9e .LASF1644
C:\Users\CYMR90~1\AppData\Local\Temp\ccZ8Xcmd.s:31789  .debug_str:000000000002c507 .LASF1645
C:\Users\CYMR90~1\AppData\Local\Temp\ccZ8Xcmd.s:21418  .debug_str:0000000000002bdd .LASF1646
C:\Users\CYMR90~1\AppData\Local\Temp\ccZ8Xcmd.s:26316  .debug_str:0000000000016638 .LASF1647
C:\Users\CYMR90~1\AppData\Local\Temp\ccZ8Xcmd.s:26421  .debug_str:0000000000016f5f .LASF1648
C:\Users\CYMR90~1\AppData\Local\Temp\ccZ8Xcmd.s:21218  .debug_str:0000000000001f3c .LASF1649
C:\Users\CYMR90~1\AppData\Local\Temp\ccZ8Xcmd.s:22718  .debug_str:000000000000804a .LASF1650
C:\Users\CYMR90~1\AppData\Local\Temp\ccZ8Xcmd.s:29503  .debug_str:0000000000023070 .LASF1651
C:\Users\CYMR90~1\AppData\Local\Temp\ccZ8Xcmd.s:24854  .debug_str:000000000001085d .LASF1652
C:\Users\CYMR90~1\AppData\Local\Temp\ccZ8Xcmd.s:22610  .debug_str:00000000000077f9 .LASF1653
C:\Users\CYMR90~1\AppData\Local\Temp\ccZ8Xcmd.s:20972  .debug_str:0000000000001078 .LASF1654
C:\Users\CYMR90~1\AppData\Local\Temp\ccZ8Xcmd.s:26623  .debug_str:0000000000017b7b .LASF1657
C:\Users\CYMR90~1\AppData\Local\Temp\ccZ8Xcmd.s:31361  .debug_str:000000000002a8a4 .LASF1658
C:\Users\CYMR90~1\AppData\Local\Temp\ccZ8Xcmd.s:24886  .debug_str:0000000000010b55 .LASF1659
C:\Users\CYMR90~1\AppData\Local\Temp\ccZ8Xcmd.s:26953  .debug_str:00000000000190d4 .LASF1660
C:\Users\CYMR90~1\AppData\Local\Temp\ccZ8Xcmd.s:31591  .debug_str:000000000002b71a .LASF1661
C:\Users\CYMR90~1\AppData\Local\Temp\ccZ8Xcmd.s:31627  .debug_str:000000000002b99f .LASF1662
C:\Users\CYMR90~1\AppData\Local\Temp\ccZ8Xcmd.s:28871  .debug_str:0000000000020b0a .LASF1663
C:\Users\CYMR90~1\AppData\Local\Temp\ccZ8Xcmd.s:25844  .debug_str:000000000001487b .LASF1664
C:\Users\CYMR90~1\AppData\Local\Temp\ccZ8Xcmd.s:28037  .debug_str:000000000001d7a5 .LASF1665
C:\Users\CYMR90~1\AppData\Local\Temp\ccZ8Xcmd.s:28961  .debug_str:0000000000020ff7 .LASF1666
C:\Users\CYMR90~1\AppData\Local\Temp\ccZ8Xcmd.s:30069  .debug_str:000000000002567d .LASF1667
C:\Users\CYMR90~1\AppData\Local\Temp\ccZ8Xcmd.s:24292  .debug_str:000000000000e5d0 .LASF1668
C:\Users\CYMR90~1\AppData\Local\Temp\ccZ8Xcmd.s:21652  .debug_str:0000000000003aee .LASF1669
C:\Users\CYMR90~1\AppData\Local\Temp\ccZ8Xcmd.s:22916  .debug_str:0000000000008d0e .LASF1670
C:\Users\CYMR90~1\AppData\Local\Temp\ccZ8Xcmd.s:21864  .debug_str:0000000000004988 .LASF1671
C:\Users\CYMR90~1\AppData\Local\Temp\ccZ8Xcmd.s:25700  .debug_str:0000000000013fec .LASF1672
C:\Users\CYMR90~1\AppData\Local\Temp\ccZ8Xcmd.s:25770  .debug_str:00000000000143e5 .LASF1673
C:\Users\CYMR90~1\AppData\Local\Temp\ccZ8Xcmd.s:25174  .debug_str:0000000000011d93 .LASF1674
C:\Users\CYMR90~1\AppData\Local\Temp\ccZ8Xcmd.s:24330  .debug_str:000000000000e82c .LASF1675
C:\Users\CYMR90~1\AppData\Local\Temp\ccZ8Xcmd.s:29857  .debug_str:00000000000247d3 .LASF1676
C:\Users\CYMR90~1\AppData\Local\Temp\ccZ8Xcmd.s:25302  .debug_str:000000000001260b .LASF1677
C:\Users\CYMR90~1\AppData\Local\Temp\ccZ8Xcmd.s:31791  .debug_str:000000000002c51c .LASF1678
C:\Users\CYMR90~1\AppData\Local\Temp\ccZ8Xcmd.s:21326  .debug_str:00000000000025ae .LASF1679
C:\Users\CYMR90~1\AppData\Local\Temp\ccZ8Xcmd.s:24836  .debug_str:0000000000010785 .LASF1680
C:\Users\CYMR90~1\AppData\Local\Temp\ccZ8Xcmd.s:26012  .debug_str:0000000000015344 .LASF1681
C:\Users\CYMR90~1\AppData\Local\Temp\ccZ8Xcmd.s:24680  .debug_str:000000000000fe33 .LASF1682
C:\Users\CYMR90~1\AppData\Local\Temp\ccZ8Xcmd.s:27377  .debug_str:000000000001ad16 .LASF1683
C:\Users\CYMR90~1\AppData\Local\Temp\ccZ8Xcmd.s:29449  .debug_str:0000000000022d9f .LASF1684
C:\Users\CYMR90~1\AppData\Local\Temp\ccZ8Xcmd.s:30371  .debug_str:0000000000026985 .LASF1685
C:\Users\CYMR90~1\AppData\Local\Temp\ccZ8Xcmd.s:24834  .debug_str:000000000001076d .LASF1686
C:\Users\CYMR90~1\AppData\Local\Temp\ccZ8Xcmd.s:28769  .debug_str:00000000000204b6 .LASF1687
C:\Users\CYMR90~1\AppData\Local\Temp\ccZ8Xcmd.s:31105  .debug_str:0000000000029925 .LASF1688
C:\Users\CYMR90~1\AppData\Local\Temp\ccZ8Xcmd.s:29633  .debug_str:000000000002388f .LASF1689
C:\Users\CYMR90~1\AppData\Local\Temp\ccZ8Xcmd.s:27491  .debug_str:000000000001b460 .LASF1690
C:\Users\CYMR90~1\AppData\Local\Temp\ccZ8Xcmd.s:25568  .debug_str:00000000000137f7 .LASF1691
C:\Users\CYMR90~1\AppData\Local\Temp\ccZ8Xcmd.s:29175  .debug_str:0000000000021d86 .LASF1692
C:\Users\CYMR90~1\AppData\Local\Temp\ccZ8Xcmd.s:26815  .debug_str:00000000000186e3 .LASF1693
C:\Users\CYMR90~1\AppData\Local\Temp\ccZ8Xcmd.s:22712  .debug_str:0000000000007fd6 .LASF1694
C:\Users\CYMR90~1\AppData\Local\Temp\ccZ8Xcmd.s:24752  .debug_str:0000000000010254 .LASF1695
C:\Users\CYMR90~1\AppData\Local\Temp\ccZ8Xcmd.s:26593  .debug_str:00000000000179c8 .LASF1696
C:\Users\CYMR90~1\AppData\Local\Temp\ccZ8Xcmd.s:25890  .debug_str:0000000000014b84 .LASF1697
C:\Users\CYMR90~1\AppData\Local\Temp\ccZ8Xcmd.s:28433  .debug_str:000000000001efd9 .LASF1698
C:\Users\CYMR90~1\AppData\Local\Temp\ccZ8Xcmd.s:26989  .debug_str:00000000000192ff .LASF1699
C:\Users\CYMR90~1\AppData\Local\Temp\ccZ8Xcmd.s:28885  .debug_str:0000000000020bd3 .LASF1700
C:\Users\CYMR90~1\AppData\Local\Temp\ccZ8Xcmd.s:28429  .debug_str:000000000001ef9c .LASF1701
C:\Users\CYMR90~1\AppData\Local\Temp\ccZ8Xcmd.s:29677  .debug_str:0000000000023b12 .LASF1702
C:\Users\CYMR90~1\AppData\Local\Temp\ccZ8Xcmd.s:23988  .debug_str:000000000000d378 .LASF1703
C:\Users\CYMR90~1\AppData\Local\Temp\ccZ8Xcmd.s:29163  .debug_str:0000000000021cdd .LASF1704
C:\Users\CYMR90~1\AppData\Local\Temp\ccZ8Xcmd.s:27621  .debug_str:000000000001bc2e .LASF1705
C:\Users\CYMR90~1\AppData\Local\Temp\ccZ8Xcmd.s:29023  .debug_str:0000000000021432 .LASF1706
C:\Users\CYMR90~1\AppData\Local\Temp\ccZ8Xcmd.s:26499  .debug_str:0000000000017399 .LASF1707
C:\Users\CYMR90~1\AppData\Local\Temp\ccZ8Xcmd.s:25484  .debug_str:00000000000132a4 .LASF1708
C:\Users\CYMR90~1\AppData\Local\Temp\ccZ8Xcmd.s:28171  .debug_str:000000000001e047 .LASF1709
C:\Users\CYMR90~1\AppData\Local\Temp\ccZ8Xcmd.s:26733  .debug_str:00000000000181ec .LASF1710
C:\Users\CYMR90~1\AppData\Local\Temp\ccZ8Xcmd.s:30569  .debug_str:00000000000275e9 .LASF1711
C:\Users\CYMR90~1\AppData\Local\Temp\ccZ8Xcmd.s:25124  .debug_str:0000000000011a9c .LASF1712
C:\Users\CYMR90~1\AppData\Local\Temp\ccZ8Xcmd.s:22254  .debug_str:0000000000006115 .LASF1713
C:\Users\CYMR90~1\AppData\Local\Temp\ccZ8Xcmd.s:24596  .debug_str:000000000000f889 .LASF1714
C:\Users\CYMR90~1\AppData\Local\Temp\ccZ8Xcmd.s:21542  .debug_str:00000000000033ed .LASF1715
C:\Users\CYMR90~1\AppData\Local\Temp\ccZ8Xcmd.s:24832  .debug_str:0000000000010741 .LASF1716
C:\Users\CYMR90~1\AppData\Local\Temp\ccZ8Xcmd.s:28143  .debug_str:000000000001de80 .LASF1717
C:\Users\CYMR90~1\AppData\Local\Temp\ccZ8Xcmd.s:26697  .debug_str:0000000000017fb9 .LASF1718
C:\Users\CYMR90~1\AppData\Local\Temp\ccZ8Xcmd.s:25066  .debug_str:00000000000115d6 .LASF1719
C:\Users\CYMR90~1\AppData\Local\Temp\ccZ8Xcmd.s:27049  .debug_str:00000000000196c1 .LASF1720
C:\Users\CYMR90~1\AppData\Local\Temp\ccZ8Xcmd.s:25560  .debug_str:0000000000013774 .LASF1721
C:\Users\CYMR90~1\AppData\Local\Temp\ccZ8Xcmd.s:21254  .debug_str:000000000000213f .LASF1722
C:\Users\CYMR90~1\AppData\Local\Temp\ccZ8Xcmd.s:27385  .debug_str:000000000001adb0 .LASF1723
C:\Users\CYMR90~1\AppData\Local\Temp\ccZ8Xcmd.s:21318  .debug_str:0000000000002538 .LASF1724
C:\Users\CYMR90~1\AppData\Local\Temp\ccZ8Xcmd.s:26078  .debug_str:00000000000156d9 .LASF1725
C:\Users\CYMR90~1\AppData\Local\Temp\ccZ8Xcmd.s:30901  .debug_str:0000000000028c01 .LASF1726
C:\Users\CYMR90~1\AppData\Local\Temp\ccZ8Xcmd.s:22148  .debug_str:0000000000005aa0 .LASF1727
C:\Users\CYMR90~1\AppData\Local\Temp\ccZ8Xcmd.s:30537  .debug_str:0000000000027433 .LASF1728
C:\Users\CYMR90~1\AppData\Local\Temp\ccZ8Xcmd.s:27831  .debug_str:000000000001c989 .LASF1729
C:\Users\CYMR90~1\AppData\Local\Temp\ccZ8Xcmd.s:31701  .debug_str:000000000002bee1 .LASF1730
C:\Users\CYMR90~1\AppData\Local\Temp\ccZ8Xcmd.s:29817  .debug_str:00000000000244a2 .LASF1731
C:\Users\CYMR90~1\AppData\Local\Temp\ccZ8Xcmd.s:25002  .debug_str:0000000000011198 .LASF1732
C:\Users\CYMR90~1\AppData\Local\Temp\ccZ8Xcmd.s:23030  .debug_str:0000000000009388 .LASF1733
C:\Users\CYMR90~1\AppData\Local\Temp\ccZ8Xcmd.s:21032  .debug_str:00000000000013ee .LASF1734
C:\Users\CYMR90~1\AppData\Local\Temp\ccZ8Xcmd.s:26455  .debug_str:000000000001712f .LASF1735
C:\Users\CYMR90~1\AppData\Local\Temp\ccZ8Xcmd.s:28601  .debug_str:000000000001fa1e .LASF1736
C:\Users\CYMR90~1\AppData\Local\Temp\ccZ8Xcmd.s:23022  .debug_str:0000000000009312 .LASF1737
C:\Users\CYMR90~1\AppData\Local\Temp\ccZ8Xcmd.s:22734  .debug_str:0000000000008150 .LASF1738
C:\Users\CYMR90~1\AppData\Local\Temp\ccZ8Xcmd.s:30367  .debug_str:0000000000026956 .LASF1739
C:\Users\CYMR90~1\AppData\Local\Temp\ccZ8Xcmd.s:24354  .debug_str:000000000000e9ba .LASF1740
C:\Users\CYMR90~1\AppData\Local\Temp\ccZ8Xcmd.s:23362  .debug_str:000000000000a87a .LASF1741
C:\Users\CYMR90~1\AppData\Local\Temp\ccZ8Xcmd.s:28455  .debug_str:000000000001f120 .LASF1742
C:\Users\CYMR90~1\AppData\Local\Temp\ccZ8Xcmd.s:23850  .debug_str:000000000000ca3d .LASF1743
C:\Users\CYMR90~1\AppData\Local\Temp\ccZ8Xcmd.s:30647  .debug_str:0000000000027b1d .LASF1744
C:\Users\CYMR90~1\AppData\Local\Temp\ccZ8Xcmd.s:22740  .debug_str:00000000000081c2 .LASF1745
C:\Users\CYMR90~1\AppData\Local\Temp\ccZ8Xcmd.s:24650  .debug_str:000000000000fc15 .LASF1746
C:\Users\CYMR90~1\AppData\Local\Temp\ccZ8Xcmd.s:29683  .debug_str:0000000000023b74 .LASF1747
C:\Users\CYMR90~1\AppData\Local\Temp\ccZ8Xcmd.s:29279  .debug_str:0000000000022342 .LASF1748
C:\Users\CYMR90~1\AppData\Local\Temp\ccZ8Xcmd.s:24830  .debug_str:000000000001071e .LASF1749
C:\Users\CYMR90~1\AppData\Local\Temp\ccZ8Xcmd.s:23522  .debug_str:000000000000b37f .LASF1750
C:\Users\CYMR90~1\AppData\Local\Temp\ccZ8Xcmd.s:26627  .debug_str:0000000000017baf .LASF1751
C:\Users\CYMR90~1\AppData\Local\Temp\ccZ8Xcmd.s:21898  .debug_str:0000000000004b86 .LASF1752
C:\Users\CYMR90~1\AppData\Local\Temp\ccZ8Xcmd.s:27361  .debug_str:000000000001ac18 .LASF1753
C:\Users\CYMR90~1\AppData\Local\Temp\ccZ8Xcmd.s:27257  .debug_str:000000000001a4fd .LASF1754
C:\Users\CYMR90~1\AppData\Local\Temp\ccZ8Xcmd.s:23792  .debug_str:000000000000c53f .LASF1755
C:\Users\CYMR90~1\AppData\Local\Temp\ccZ8Xcmd.s:25372  .debug_str:0000000000012ab9 .LASF1756
C:\Users\CYMR90~1\AppData\Local\Temp\ccZ8Xcmd.s:27451  .debug_str:000000000001b21c .LASF1757
C:\Users\CYMR90~1\AppData\Local\Temp\ccZ8Xcmd.s:24454  .debug_str:000000000000ef49 .LASF1758
C:\Users\CYMR90~1\AppData\Local\Temp\ccZ8Xcmd.s:22554  .debug_str:000000000000745f .LASF1759
C:\Users\CYMR90~1\AppData\Local\Temp\ccZ8Xcmd.s:27201  .debug_str:000000000001a027 .LASF1760
C:\Users\CYMR90~1\AppData\Local\Temp\ccZ8Xcmd.s:22844  .debug_str:0000000000008841 .LASF1761
C:\Users\CYMR90~1\AppData\Local\Temp\ccZ8Xcmd.s:21088  .debug_str:0000000000001802 .LASF1762
C:\Users\CYMR90~1\AppData\Local\Temp\ccZ8Xcmd.s:29873  .debug_str:00000000000248a2 .LASF1763
C:\Users\CYMR90~1\AppData\Local\Temp\ccZ8Xcmd.s:22582  .debug_str:000000000000763a .LASF1764
C:\Users\CYMR90~1\AppData\Local\Temp\ccZ8Xcmd.s:22268  .debug_str:0000000000006222 .LASF1765
C:\Users\CYMR90~1\AppData\Local\Temp\ccZ8Xcmd.s:21070  .debug_str:00000000000016c1 .LASF1766
C:\Users\CYMR90~1\AppData\Local\Temp\ccZ8Xcmd.s:27561  .debug_str:000000000001b869 .LASF1767
C:\Users\CYMR90~1\AppData\Local\Temp\ccZ8Xcmd.s:21128  .debug_str:0000000000001a33 .LASF1768
C:\Users\CYMR90~1\AppData\Local\Temp\ccZ8Xcmd.s:30075  .debug_str:000000000002574f .LASF1769
C:\Users\CYMR90~1\AppData\Local\Temp\ccZ8Xcmd.s:31775  .debug_str:000000000002c408 .LASF1770
C:\Users\CYMR90~1\AppData\Local\Temp\ccZ8Xcmd.s:23686  .debug_str:000000000000beaf .LASF1771
C:\Users\CYMR90~1\AppData\Local\Temp\ccZ8Xcmd.s:23272  .debug_str:000000000000a315 .LASF1772
C:\Users\CYMR90~1\AppData\Local\Temp\ccZ8Xcmd.s:20812  .debug_str:0000000000000644 .LASF1773
C:\Users\CYMR90~1\AppData\Local\Temp\ccZ8Xcmd.s:20862  .debug_str:0000000000000935 .LASF1774
C:\Users\CYMR90~1\AppData\Local\Temp\ccZ8Xcmd.s:30799  .debug_str:0000000000028607 .LASF1775
C:\Users\CYMR90~1\AppData\Local\Temp\ccZ8Xcmd.s:25786  .debug_str:000000000001453b .LASF1776
C:\Users\CYMR90~1\AppData\Local\Temp\ccZ8Xcmd.s:24534  .debug_str:000000000000f452 .LASF1777
C:\Users\CYMR90~1\AppData\Local\Temp\ccZ8Xcmd.s:26619  .debug_str:0000000000017b4a .LASF1778
C:\Users\CYMR90~1\AppData\Local\Temp\ccZ8Xcmd.s:21992  .debug_str:000000000000513c .LASF1779
C:\Users\CYMR90~1\AppData\Local\Temp\ccZ8Xcmd.s:30113  .debug_str:00000000000259be .LASF1780
C:\Users\CYMR90~1\AppData\Local\Temp\ccZ8Xcmd.s:29311  .debug_str:0000000000022566 .LASF1781
C:\Users\CYMR90~1\AppData\Local\Temp\ccZ8Xcmd.s:27839  .debug_str:000000000001ca2b .LASF1784
C:\Users\CYMR90~1\AppData\Local\Temp\ccZ8Xcmd.s:26999  .debug_str:000000000001939a .LASF1785
C:\Users\CYMR90~1\AppData\Local\Temp\ccZ8Xcmd.s:26851  .debug_str:000000000001892b .LASF1786
C:\Users\CYMR90~1\AppData\Local\Temp\ccZ8Xcmd.s:25830  .debug_str:00000000000147cb .LASF1787
C:\Users\CYMR90~1\AppData\Local\Temp\ccZ8Xcmd.s:31239  .debug_str:000000000002a102 .LASF1788
C:\Users\CYMR90~1\AppData\Local\Temp\ccZ8Xcmd.s:31541  .debug_str:000000000002b3d6 .LASF1789
C:\Users\CYMR90~1\AppData\Local\Temp\ccZ8Xcmd.s:21590  .debug_str:000000000000371d .LASF1790
C:\Users\CYMR90~1\AppData\Local\Temp\ccZ8Xcmd.s:20732  .debug_str:0000000000000209 .LASF1791
C:\Users\CYMR90~1\AppData\Local\Temp\ccZ8Xcmd.s:30453  .debug_str:0000000000026e82 .LASF1792
C:\Users\CYMR90~1\AppData\Local\Temp\ccZ8Xcmd.s:29533  .debug_str:0000000000023225 .LASF1793
C:\Users\CYMR90~1\AppData\Local\Temp\ccZ8Xcmd.s:31425  .debug_str:000000000002ac52 .LASF1794
C:\Users\CYMR90~1\AppData\Local\Temp\ccZ8Xcmd.s:30731  .debug_str:000000000002817f .LASF1795
C:\Users\CYMR90~1\AppData\Local\Temp\ccZ8Xcmd.s:25496  .debug_str:000000000001336e .LASF1796
C:\Users\CYMR90~1\AppData\Local\Temp\ccZ8Xcmd.s:25774  .debug_str:0000000000014427 .LASF1797
C:\Users\CYMR90~1\AppData\Local\Temp\ccZ8Xcmd.s:24890  .debug_str:0000000000010b72 .LASF1798
C:\Users\CYMR90~1\AppData\Local\Temp\ccZ8Xcmd.s:23712  .debug_str:000000000000c05a .LASF1799
C:\Users\CYMR90~1\AppData\Local\Temp\ccZ8Xcmd.s:26533  .debug_str:00000000000175d3 .LASF1800
C:\Users\CYMR90~1\AppData\Local\Temp\ccZ8Xcmd.s:26841  .debug_str:0000000000018896 .LASF1801
C:\Users\CYMR90~1\AppData\Local\Temp\ccZ8Xcmd.s:25914  .debug_str:0000000000014d3e .LASF1802
C:\Users\CYMR90~1\AppData\Local\Temp\ccZ8Xcmd.s:24948  .debug_str:0000000000010e7f .LASF1803
C:\Users\CYMR90~1\AppData\Local\Temp\ccZ8Xcmd.s:24428  .debug_str:000000000000edd9 .LASF1804
C:\Users\CYMR90~1\AppData\Local\Temp\ccZ8Xcmd.s:29105  .debug_str:0000000000021954 .LASF1805
C:\Users\CYMR90~1\AppData\Local\Temp\ccZ8Xcmd.s:25796  .debug_str:00000000000145e3 .LASF1806
C:\Users\CYMR90~1\AppData\Local\Temp\ccZ8Xcmd.s:28717  .debug_str:00000000000200f8 .LASF1807
C:\Users\CYMR90~1\AppData\Local\Temp\ccZ8Xcmd.s:25938  .debug_str:0000000000014ed4 .LASF1808
C:\Users\CYMR90~1\AppData\Local\Temp\ccZ8Xcmd.s:30723  .debug_str:000000000002806d .LASF1809
C:\Users\CYMR90~1\AppData\Local\Temp\ccZ8Xcmd.s:27937  .debug_str:000000000001d16f .LASF1810
C:\Users\CYMR90~1\AppData\Local\Temp\ccZ8Xcmd.s:26633  .debug_str:0000000000017c24 .LASF1811
C:\Users\CYMR90~1\AppData\Local\Temp\ccZ8Xcmd.s:21052  .debug_str:000000000000150b .LASF1812
C:\Users\CYMR90~1\AppData\Local\Temp\ccZ8Xcmd.s:23308  .debug_str:000000000000a526 .LASF1813
C:\Users\CYMR90~1\AppData\Local\Temp\ccZ8Xcmd.s:25108  .debug_str:00000000000119bb .LASF1814
C:\Users\CYMR90~1\AppData\Local\Temp\ccZ8Xcmd.s:27919  .debug_str:000000000001d070 .LASF1815
C:\Users\CYMR90~1\AppData\Local\Temp\ccZ8Xcmd.s:26599  .debug_str:0000000000017a3a .LASF1816
C:\Users\CYMR90~1\AppData\Local\Temp\ccZ8Xcmd.s:27927  .debug_str:000000000001d0ee .LASF1817
C:\Users\CYMR90~1\AppData\Local\Temp\ccZ8Xcmd.s:28373  .debug_str:000000000001ec16 .LASF1818
C:\Users\CYMR90~1\AppData\Local\Temp\ccZ8Xcmd.s:24646  .debug_str:000000000000fbdd .LASF1819
C:\Users\CYMR90~1\AppData\Local\Temp\ccZ8Xcmd.s:28853  .debug_str:00000000000209db .LASF1820
C:\Users\CYMR90~1\AppData\Local\Temp\ccZ8Xcmd.s:22292  .debug_str:000000000000636f .LASF1821
C:\Users\CYMR90~1\AppData\Local\Temp\ccZ8Xcmd.s:22672  .debug_str:0000000000007ca5 .LASF1822
C:\Users\CYMR90~1\AppData\Local\Temp\ccZ8Xcmd.s:28305  .debug_str:000000000001e85b .LASF1823
C:\Users\CYMR90~1\AppData\Local\Temp\ccZ8Xcmd.s:31015  .debug_str:00000000000293a9 .LASF1824
C:\Users\CYMR90~1\AppData\Local\Temp\ccZ8Xcmd.s:23588  .debug_str:000000000000b80f .LASF1825
C:\Users\CYMR90~1\AppData\Local\Temp\ccZ8Xcmd.s:28949  .debug_str:0000000000020f45 .LASF1826
C:\Users\CYMR90~1\AppData\Local\Temp\ccZ8Xcmd.s:31367  .debug_str:000000000002a8de .LASF1827
C:\Users\CYMR90~1\AppData\Local\Temp\ccZ8Xcmd.s:24398  .debug_str:000000000000ec39 .LASF1828
C:\Users\CYMR90~1\AppData\Local\Temp\ccZ8Xcmd.s:24474  .debug_str:000000000000f0be .LASF1829
C:\Users\CYMR90~1\AppData\Local\Temp\ccZ8Xcmd.s:25252  .debug_str:00000000000122cd .LASF1830
C:\Users\CYMR90~1\AppData\Local\Temp\ccZ8Xcmd.s:23050  .debug_str:0000000000009516 .LASF1831
C:\Users\CYMR90~1\AppData\Local\Temp\ccZ8Xcmd.s:30395  .debug_str:0000000000026ad4 .LASF1832
C:\Users\CYMR90~1\AppData\Local\Temp\ccZ8Xcmd.s:23846  .debug_str:000000000000ca0b .LASF1833
C:\Users\CYMR90~1\AppData\Local\Temp\ccZ8Xcmd.s:22498  .debug_str:0000000000007108 .LASF1834
C:\Users\CYMR90~1\AppData\Local\Temp\ccZ8Xcmd.s:26234  .debug_str:0000000000016109 .LASF1835
C:\Users\CYMR90~1\AppData\Local\Temp\ccZ8Xcmd.s:30265  .debug_str:00000000000262c1 .LASF1836
C:\Users\CYMR90~1\AppData\Local\Temp\ccZ8Xcmd.s:26204  .debug_str:0000000000015f49 .LASF1837
C:\Users\CYMR90~1\AppData\Local\Temp\ccZ8Xcmd.s:26929  .debug_str:0000000000018e77 .LASF1838
C:\Users\CYMR90~1\AppData\Local\Temp\ccZ8Xcmd.s:24894  .debug_str:0000000000010baa .LASF1839
C:\Users\CYMR90~1\AppData\Local\Temp\ccZ8Xcmd.s:27871  .debug_str:000000000001ccc4 .LASF1840
C:\Users\CYMR90~1\AppData\Local\Temp\ccZ8Xcmd.s:27161  .debug_str:0000000000019de2 .LASF1841
C:\Users\CYMR90~1\AppData\Local\Temp\ccZ8Xcmd.s:29953  .debug_str:0000000000024dcc .LASF1842
C:\Users\CYMR90~1\AppData\Local\Temp\ccZ8Xcmd.s:30351  .debug_str:000000000002684d .LASF1843
C:\Users\CYMR90~1\AppData\Local\Temp\ccZ8Xcmd.s:31559  .debug_str:000000000002b526 .LASF1844
C:\Users\CYMR90~1\AppData\Local\Temp\ccZ8Xcmd.s:31421  .debug_str:000000000002ac15 .LASF1845
C:\Users\CYMR90~1\AppData\Local\Temp\ccZ8Xcmd.s:22776  .debug_str:0000000000008412 .LASF1846
C:\Users\CYMR90~1\AppData\Local\Temp\ccZ8Xcmd.s:28075  .debug_str:000000000001d9b6 .LASF1847
C:\Users\CYMR90~1\AppData\Local\Temp\ccZ8Xcmd.s:29219  .debug_str:0000000000022006 .LASF1848
C:\Users\CYMR90~1\AppData\Local\Temp\ccZ8Xcmd.s:29235  .debug_str:0000000000022101 .LASF1849
C:\Users\CYMR90~1\AppData\Local\Temp\ccZ8Xcmd.s:28465  .debug_str:000000000001f1be .LASF1850
C:\Users\CYMR90~1\AppData\Local\Temp\ccZ8Xcmd.s:22836  .debug_str:00000000000087be .LASF1851
C:\Users\CYMR90~1\AppData\Local\Temp\ccZ8Xcmd.s:30307  .debug_str:0000000000026597 .LASF1852
C:\Users\CYMR90~1\AppData\Local\Temp\ccZ8Xcmd.s:24084  .debug_str:000000000000d935 .LASF1853
C:\Users\CYMR90~1\AppData\Local\Temp\ccZ8Xcmd.s:21494  .debug_str:00000000000030d0 .LASF1854
C:\Users\CYMR90~1\AppData\Local\Temp\ccZ8Xcmd.s:27955  .debug_str:000000000001d293 .LASF1855
C:\Users\CYMR90~1\AppData\Local\Temp\ccZ8Xcmd.s:30575  .debug_str:0000000000027657 .LASF1856
C:\Users\CYMR90~1\AppData\Local\Temp\ccZ8Xcmd.s:22924  .debug_str:0000000000008d99 .LASF1857
C:\Users\CYMR90~1\AppData\Local\Temp\ccZ8Xcmd.s:23774  .debug_str:000000000000c432 .LASF1858
C:\Users\CYMR90~1\AppData\Local\Temp\ccZ8Xcmd.s:30671  .debug_str:0000000000027cbd .LASF1859
C:\Users\CYMR90~1\AppData\Local\Temp\ccZ8Xcmd.s:25944  .debug_str:0000000000014f35 .LASF1860
C:\Users\CYMR90~1\AppData\Local\Temp\ccZ8Xcmd.s:26873  .debug_str:0000000000018b05 .LASF1861
C:\Users\CYMR90~1\AppData\Local\Temp\ccZ8Xcmd.s:24698  .debug_str:000000000000ff2f .LASF1862
C:\Users\CYMR90~1\AppData\Local\Temp\ccZ8Xcmd.s:22450  .debug_str:0000000000006d6b .LASF1863
C:\Users\CYMR90~1\AppData\Local\Temp\ccZ8Xcmd.s:26783  .debug_str:00000000000184de .LASF1864
C:\Users\CYMR90~1\AppData\Local\Temp\ccZ8Xcmd.s:22096  .debug_str:0000000000005764 .LASF1865
C:\Users\CYMR90~1\AppData\Local\Temp\ccZ8Xcmd.s:29419  .debug_str:0000000000022be8 .LASF1866
C:\Users\CYMR90~1\AppData\Local\Temp\ccZ8Xcmd.s:28645  .debug_str:000000000001fcee .LASF1867
C:\Users\CYMR90~1\AppData\Local\Temp\ccZ8Xcmd.s:23710  .debug_str:000000000000c02a .LASF1868
C:\Users\CYMR90~1\AppData\Local\Temp\ccZ8Xcmd.s:20842  .debug_str:0000000000000807 .LASF1869
C:\Users\CYMR90~1\AppData\Local\Temp\ccZ8Xcmd.s:21194  .debug_str:0000000000001e05 .LASF1870
C:\Users\CYMR90~1\AppData\Local\Temp\ccZ8Xcmd.s:30961  .debug_str:0000000000028fd0 .LASF1871
C:\Users\CYMR90~1\AppData\Local\Temp\ccZ8Xcmd.s:30051  .debug_str:000000000002552a .LASF1872
C:\Users\CYMR90~1\AppData\Local\Temp\ccZ8Xcmd.s:26068  .debug_str:000000000001563a .LASF1873
C:\Users\CYMR90~1\AppData\Local\Temp\ccZ8Xcmd.s:22618  .debug_str:00000000000078b3 .LASF1874
C:\Users\CYMR90~1\AppData\Local\Temp\ccZ8Xcmd.s:23500  .debug_str:000000000000b19f .LASF1875
C:\Users\CYMR90~1\AppData\Local\Temp\ccZ8Xcmd.s:31141  .debug_str:0000000000029b54 .LASF1876
C:\Users\CYMR90~1\AppData\Local\Temp\ccZ8Xcmd.s:27395  .debug_str:000000000001aea8 .LASF1877
C:\Users\CYMR90~1\AppData\Local\Temp\ccZ8Xcmd.s:28135  .debug_str:000000000001de0c .LASF1878
C:\Users\CYMR90~1\AppData\Local\Temp\ccZ8Xcmd.s:24538  .debug_str:000000000000f48b .LASF1879
C:\Users\CYMR90~1\AppData\Local\Temp\ccZ8Xcmd.s:22880  .debug_str:0000000000008a59 .LASF1880
C:\Users\CYMR90~1\AppData\Local\Temp\ccZ8Xcmd.s:28445  .debug_str:000000000001f081 .LASF1881
C:\Users\CYMR90~1\AppData\Local\Temp\ccZ8Xcmd.s:20954  .debug_str:0000000000000f68 .LASF1882
C:\Users\CYMR90~1\AppData\Local\Temp\ccZ8Xcmd.s:28843  .debug_str:0000000000020919 .LASF1883
C:\Users\CYMR90~1\AppData\Local\Temp\ccZ8Xcmd.s:31555  .debug_str:000000000002b4de .LASF1884
C:\Users\CYMR90~1\AppData\Local\Temp\ccZ8Xcmd.s:28553  .debug_str:000000000001f70f .LASF1885
C:\Users\CYMR90~1\AppData\Local\Temp\ccZ8Xcmd.s:30687  .debug_str:0000000000027dbd .LASF1886
C:\Users\CYMR90~1\AppData\Local\Temp\ccZ8Xcmd.s:23104  .debug_str:00000000000098b7 .LASF1887
C:\Users\CYMR90~1\AppData\Local\Temp\ccZ8Xcmd.s:22912  .debug_str:0000000000008cd0 .LASF1888
C:\Users\CYMR90~1\AppData\Local\Temp\ccZ8Xcmd.s:31587  .debug_str:000000000002b6d8 .LASF1889
C:\Users\CYMR90~1\AppData\Local\Temp\ccZ8Xcmd.s:27015  .debug_str:0000000000019459 .LASF1890
C:\Users\CYMR90~1\AppData\Local\Temp\ccZ8Xcmd.s:23096  .debug_str:0000000000009811 .LASF1891
C:\Users\CYMR90~1\AppData\Local\Temp\ccZ8Xcmd.s:23188  .debug_str:0000000000009dea .LASF1892
C:\Users\CYMR90~1\AppData\Local\Temp\ccZ8Xcmd.s:27761  .debug_str:000000000001c48c .LASF1893
C:\Users\CYMR90~1\AppData\Local\Temp\ccZ8Xcmd.s:22906  .debug_str:0000000000008c64 .LASF1894
C:\Users\CYMR90~1\AppData\Local\Temp\ccZ8Xcmd.s:24150  .debug_str:000000000000dd21 .LASF1895
C:\Users\CYMR90~1\AppData\Local\Temp\ccZ8Xcmd.s:26467  .debug_str:00000000000171d7 .LASF1896
C:\Users\CYMR90~1\AppData\Local\Temp\ccZ8Xcmd.s:21146  .debug_str:0000000000001b2f .LASF1897
C:\Users\CYMR90~1\AppData\Local\Temp\ccZ8Xcmd.s:30419  .debug_str:0000000000026c85 .LASF1898
C:\Users\CYMR90~1\AppData\Local\Temp\ccZ8Xcmd.s:27263  .debug_str:000000000001a56f .LASF1899
C:\Users\CYMR90~1\AppData\Local\Temp\ccZ8Xcmd.s:23974  .debug_str:000000000000d299 .LASF1900
C:\Users\CYMR90~1\AppData\Local\Temp\ccZ8Xcmd.s:20768  .debug_str:00000000000003e9 .LASF1901
C:\Users\CYMR90~1\AppData\Local\Temp\ccZ8Xcmd.s:21574  .debug_str:00000000000035f5 .LASF1902
C:\Users\CYMR90~1\AppData\Local\Temp\ccZ8Xcmd.s:23612  .debug_str:000000000000b938 .LASF1903
C:\Users\CYMR90~1\AppData\Local\Temp\ccZ8Xcmd.s:31837  .debug_str:000000000002c7b1 .LASF1904
C:\Users\CYMR90~1\AppData\Local\Temp\ccZ8Xcmd.s:26334  .debug_str:00000000000167a1 .LASF1905
C:\Users\CYMR90~1\AppData\Local\Temp\ccZ8Xcmd.s:23066  .debug_str:00000000000095d1 .LASF1906
C:\Users\CYMR90~1\AppData\Local\Temp\ccZ8Xcmd.s:30765  .debug_str:0000000000028395 .LASF1907
C:\Users\CYMR90~1\AppData\Local\Temp\ccZ8Xcmd.s:27799  .debug_str:000000000001c7a6 .LASF1908
C:\Users\CYMR90~1\AppData\Local\Temp\ccZ8Xcmd.s:22084  .debug_str:000000000000569a .LASF1909
C:\Users\CYMR90~1\AppData\Local\Temp\ccZ8Xcmd.s:31131  .debug_str:0000000000029ab8 .LASF1910
C:\Users\CYMR90~1\AppData\Local\Temp\ccZ8Xcmd.s:27439  .debug_str:000000000001b164 .LASF1911
C:\Users\CYMR90~1\AppData\Local\Temp\ccZ8Xcmd.s:27113  .debug_str:0000000000019b43 .LASF1912
C:\Users\CYMR90~1\AppData\Local\Temp\ccZ8Xcmd.s:23520  .debug_str:000000000000b360 .LASF1913
C:\Users\CYMR90~1\AppData\Local\Temp\ccZ8Xcmd.s:23358  .debug_str:000000000000a822 .LASF1914
C:\Users\CYMR90~1\AppData\Local\Temp\ccZ8Xcmd.s:28749  .debug_str:0000000000020315 .LASF1915
C:\Users\CYMR90~1\AppData\Local\Temp\ccZ8Xcmd.s:30027  .debug_str:0000000000025364 .LASF1916
C:\Users\CYMR90~1\AppData\Local\Temp\ccZ8Xcmd.s:26631  .debug_str:0000000000017bf8 .LASF1917
C:\Users\CYMR90~1\AppData\Local\Temp\ccZ8Xcmd.s:23264  .debug_str:000000000000a2ab .LASF1918
C:\Users\CYMR90~1\AppData\Local\Temp\ccZ8Xcmd.s:31189  .debug_str:0000000000029e0c .LASF1919
C:\Users\CYMR90~1\AppData\Local\Temp\ccZ8Xcmd.s:27771  .debug_str:000000000001c52f .LASF1920
C:\Users\CYMR90~1\AppData\Local\Temp\ccZ8Xcmd.s:23560  .debug_str:000000000000b600 .LASF1921
C:\Users\CYMR90~1\AppData\Local\Temp\ccZ8Xcmd.s:22472  .debug_str:0000000000006ef3 .LASF1922
C:\Users\CYMR90~1\AppData\Local\Temp\ccZ8Xcmd.s:28817  .debug_str:0000000000020791 .LASF1923
C:\Users\CYMR90~1\AppData\Local\Temp\ccZ8Xcmd.s:30915  .debug_str:0000000000028cf1 .LASF1924
C:\Users\CYMR90~1\AppData\Local\Temp\ccZ8Xcmd.s:23380  .debug_str:000000000000a9a6 .LASF1925
C:\Users\CYMR90~1\AppData\Local\Temp\ccZ8Xcmd.s:28641  .debug_str:000000000001fc9a .LASF1926
C:\Users\CYMR90~1\AppData\Local\Temp\ccZ8Xcmd.s:27669  .debug_str:000000000001bf3d .LASF1927
C:\Users\CYMR90~1\AppData\Local\Temp\ccZ8Xcmd.s:21612  .debug_str:0000000000003867 .LASF1928
C:\Users\CYMR90~1\AppData\Local\Temp\ccZ8Xcmd.s:22520  .debug_str:000000000000725b .LASF1929
C:\Users\CYMR90~1\AppData\Local\Temp\ccZ8Xcmd.s:28569  .debug_str:000000000001f809 .LASF1930
C:\Users\CYMR90~1\AppData\Local\Temp\ccZ8Xcmd.s:31867  .debug_str:000000000002c9d8 .LASF1931
C:\Users\CYMR90~1\AppData\Local\Temp\ccZ8Xcmd.s:31547  .debug_str:000000000002b444 .LASF1932
C:\Users\CYMR90~1\AppData\Local\Temp\ccZ8Xcmd.s:22630  .debug_str:000000000000795d .LASF1933
C:\Users\CYMR90~1\AppData\Local\Temp\ccZ8Xcmd.s:24678  .debug_str:000000000000fe03 .LASF1934
C:\Users\CYMR90~1\AppData\Local\Temp\ccZ8Xcmd.s:27743  .debug_str:000000000001c370 .LASF1935
C:\Users\CYMR90~1\AppData\Local\Temp\ccZ8Xcmd.s:22126  .debug_str:000000000000595c .LASF1936
C:\Users\CYMR90~1\AppData\Local\Temp\ccZ8Xcmd.s:27607  .debug_str:000000000001bb3b .LASF1937
C:\Users\CYMR90~1\AppData\Local\Temp\ccZ8Xcmd.s:26581  .debug_str:000000000001791d .LASF1938
C:\Users\CYMR90~1\AppData\Local\Temp\ccZ8Xcmd.s:25892  .debug_str:0000000000014bb0 .LASF1939
C:\Users\CYMR90~1\AppData\Local\Temp\ccZ8Xcmd.s:22822  .debug_str:00000000000086af .LASF1940
C:\Users\CYMR90~1\AppData\Local\Temp\ccZ8Xcmd.s:30979  .debug_str:000000000002910d .LASF1941
C:\Users\CYMR90~1\AppData\Local\Temp\ccZ8Xcmd.s:27851  .debug_str:000000000001caf1 .LASF1942
C:\Users\CYMR90~1\AppData\Local\Temp\ccZ8Xcmd.s:23746  .debug_str:000000000000c254 .LASF1943
C:\Users\CYMR90~1\AppData\Local\Temp\ccZ8Xcmd.s:24876  .debug_str:0000000000010a24 .LASF1944
C:\Users\CYMR90~1\AppData\Local\Temp\ccZ8Xcmd.s:28677  .debug_str:000000000001feda .LASF1945
C:\Users\CYMR90~1\AppData\Local\Temp\ccZ8Xcmd.s:25604  .debug_str:0000000000013a28 .LASF1946
C:\Users\CYMR90~1\AppData\Local\Temp\ccZ8Xcmd.s:22414  .debug_str:0000000000006b37 .LASF1947
C:\Users\CYMR90~1\AppData\Local\Temp\ccZ8Xcmd.s:21348  .debug_str:0000000000002757 .LASF1948
C:\Users\CYMR90~1\AppData\Local\Temp\ccZ8Xcmd.s:27489  .debug_str:000000000001b441 .LASF1949
C:\Users\CYMR90~1\AppData\Local\Temp\ccZ8Xcmd.s:24416  .debug_str:000000000000ed1c .LASF1950
C:\Users\CYMR90~1\AppData\Local\Temp\ccZ8Xcmd.s:21216  .debug_str:0000000000001f1d .LASF1951
C:\Users\CYMR90~1\AppData\Local\Temp\ccZ8Xcmd.s:29435  .debug_str:0000000000022cb9 .LASF1952
C:\Users\CYMR90~1\AppData\Local\Temp\ccZ8Xcmd.s:30159  .debug_str:0000000000025c61 .LASF1953
C:\Users\CYMR90~1\AppData\Local\Temp\ccZ8Xcmd.s:25732  .debug_str:00000000000141e5 .LASF1954
C:\Users\CYMR90~1\AppData\Local\Temp\ccZ8Xcmd.s:28963  .debug_str:000000000002101a .LASF1955
C:\Users\CYMR90~1\AppData\Local\Temp\ccZ8Xcmd.s:29635  .debug_str:00000000000238a7 .LASF1956
C:\Users\CYMR90~1\AppData\Local\Temp\ccZ8Xcmd.s:21270  .debug_str:0000000000002225 .LASF1957
C:\Users\CYMR90~1\AppData\Local\Temp\ccZ8Xcmd.s:31393  .debug_str:000000000002aa6c .LASF1958
C:\Users\CYMR90~1\AppData\Local\Temp\ccZ8Xcmd.s:22636  .debug_str:00000000000079ce .LASF1959
C:\Users\CYMR90~1\AppData\Local\Temp\ccZ8Xcmd.s:30963  .debug_str:000000000002900f .LASF1960
C:\Users\CYMR90~1\AppData\Local\Temp\ccZ8Xcmd.s:27807  .debug_str:000000000001c82c .LASF1961
C:\Users\CYMR90~1\AppData\Local\Temp\ccZ8Xcmd.s:20804  .debug_str:00000000000005ba .LASF1962
C:\Users\CYMR90~1\AppData\Local\Temp\ccZ8Xcmd.s:26116  .debug_str:0000000000015926 .LASF1963
C:\Users\CYMR90~1\AppData\Local\Temp\ccZ8Xcmd.s:30007  .debug_str:0000000000025201 .LASF1964
C:\Users\CYMR90~1\AppData\Local\Temp\ccZ8Xcmd.s:22476  .debug_str:0000000000006f5e .LASF1965
C:\Users\CYMR90~1\AppData\Local\Temp\ccZ8Xcmd.s:27947  .debug_str:000000000001d1f8 .LASF1966
C:\Users\CYMR90~1\AppData\Local\Temp\ccZ8Xcmd.s:31487  .debug_str:000000000002b016 .LASF1967
C:\Users\CYMR90~1\AppData\Local\Temp\ccZ8Xcmd.s:27785  .debug_str:000000000001c6b5 .LASF1968
C:\Users\CYMR90~1\AppData\Local\Temp\ccZ8Xcmd.s:29315  .debug_str:00000000000225a6 .LASF1969
C:\Users\CYMR90~1\AppData\Local\Temp\ccZ8Xcmd.s:22460  .debug_str:0000000000006e21 .LASF1970
C:\Users\CYMR90~1\AppData\Local\Temp\ccZ8Xcmd.s:29321  .debug_str:00000000000225ed .LASF1971
C:\Users\CYMR90~1\AppData\Local\Temp\ccZ8Xcmd.s:30043  .debug_str:0000000000025480 .LASF1972
C:\Users\CYMR90~1\AppData\Local\Temp\ccZ8Xcmd.s:27101  .debug_str:0000000000019a8c .LASF1973
C:\Users\CYMR90~1\AppData\Local\Temp\ccZ8Xcmd.s:26915  .debug_str:0000000000018da8 .LASF1974
C:\Users\CYMR90~1\AppData\Local\Temp\ccZ8Xcmd.s:31439  .debug_str:000000000002ad4a .LASF1975
C:\Users\CYMR90~1\AppData\Local\Temp\ccZ8Xcmd.s:22654  .debug_str:0000000000007b7a .LASF1976
C:\Users\CYMR90~1\AppData\Local\Temp\ccZ8Xcmd.s:23016  .debug_str:00000000000092c9 .LASF1977
C:\Users\CYMR90~1\AppData\Local\Temp\ccZ8Xcmd.s:31211  .debug_str:0000000000029f4f .LASF1978
C:\Users\CYMR90~1\AppData\Local\Temp\ccZ8Xcmd.s:21952  .debug_str:0000000000004ed2 .LASF1979
C:\Users\CYMR90~1\AppData\Local\Temp\ccZ8Xcmd.s:29945  .debug_str:0000000000024d4a .LASF1980
C:\Users\CYMR90~1\AppData\Local\Temp\ccZ8Xcmd.s:29799  .debug_str:0000000000024390 .LASF1981
C:\Users\CYMR90~1\AppData\Local\Temp\ccZ8Xcmd.s:29641  .debug_str:0000000000023905 .LASF1982
C:\Users\CYMR90~1\AppData\Local\Temp\ccZ8Xcmd.s:30469  .debug_str:0000000000026f5b .LASF1983
C:\Users\CYMR90~1\AppData\Local\Temp\ccZ8Xcmd.s:31397  .debug_str:000000000002aac2 .LASF1984
C:\Users\CYMR90~1\AppData\Local\Temp\ccZ8Xcmd.s:22608  .debug_str:00000000000077d6 .LASF1985
C:\Users\CYMR90~1\AppData\Local\Temp\ccZ8Xcmd.s:27521  .debug_str:000000000001b655 .LASF1986
C:\Users\CYMR90~1\AppData\Local\Temp\ccZ8Xcmd.s:25806  .debug_str:000000000001466c .LASF1987
C:\Users\CYMR90~1\AppData\Local\Temp\ccZ8Xcmd.s:26811  .debug_str:0000000000018671 .LASF1988
C:\Users\CYMR90~1\AppData\Local\Temp\ccZ8Xcmd.s:23840  .debug_str:000000000000c9b1 .LASF1989
C:\Users\CYMR90~1\AppData\Local\Temp\ccZ8Xcmd.s:21708  .debug_str:0000000000003eab .LASF1990
C:\Users\CYMR90~1\AppData\Local\Temp\ccZ8Xcmd.s:23900  .debug_str:000000000000cd19 .LASF1991
C:\Users\CYMR90~1\AppData\Local\Temp\ccZ8Xcmd.s:24800  .debug_str:000000000001054d .LASF1992
C:\Users\CYMR90~1\AppData\Local\Temp\ccZ8Xcmd.s:21856  .debug_str:000000000000490a .LASF1993
C:\Users\CYMR90~1\AppData\Local\Temp\ccZ8Xcmd.s:20950  .debug_str:0000000000000f38 .LASF1994
C:\Users\CYMR90~1\AppData\Local\Temp\ccZ8Xcmd.s:30059  .debug_str:00000000000255be .LASF1995
C:\Users\CYMR90~1\AppData\Local\Temp\ccZ8Xcmd.s:21572  .debug_str:00000000000035c1 .LASF1996
C:\Users\CYMR90~1\AppData\Local\Temp\ccZ8Xcmd.s:30525  .debug_str:000000000002739c .LASF1997
C:\Users\CYMR90~1\AppData\Local\Temp\ccZ8Xcmd.s:29551  .debug_str:000000000002335d .LASF1998
C:\Users\CYMR90~1\AppData\Local\Temp\ccZ8Xcmd.s:26739  .debug_str:0000000000018256 .LASF1999
C:\Users\CYMR90~1\AppData\Local\Temp\ccZ8Xcmd.s:26222  .debug_str:000000000001605e .LASF2000
C:\Users\CYMR90~1\AppData\Local\Temp\ccZ8Xcmd.s:25034  .debug_str:00000000000113b6 .LASF2001
C:\Users\CYMR90~1\AppData\Local\Temp\ccZ8Xcmd.s:29327  .debug_str:0000000000022652 .LASF2002
C:\Users\CYMR90~1\AppData\Local\Temp\ccZ8Xcmd.s:30743  .debug_str:0000000000028248 .LASF2003
C:\Users\CYMR90~1\AppData\Local\Temp\ccZ8Xcmd.s:24592  .debug_str:000000000000f857 .LASF2004
C:\Users\CYMR90~1\AppData\Local\Temp\ccZ8Xcmd.s:29221  .debug_str:0000000000022021 .LASF2005
C:\Users\CYMR90~1\AppData\Local\Temp\ccZ8Xcmd.s:26423  .debug_str:0000000000016f73 .LASF2006
C:\Users\CYMR90~1\AppData\Local\Temp\ccZ8Xcmd.s:31643  .debug_str:000000000002bac1 .LASF2007
C:\Users\CYMR90~1\AppData\Local\Temp\ccZ8Xcmd.s:21994  .debug_str:0000000000005164 .LASF2008
C:\Users\CYMR90~1\AppData\Local\Temp\ccZ8Xcmd.s:25532  .debug_str:00000000000135c7 .LASF2009
C:\Users\CYMR90~1\AppData\Local\Temp\ccZ8Xcmd.s:28223  .debug_str:000000000001e357 .LASF2010
C:\Users\CYMR90~1\AppData\Local\Temp\ccZ8Xcmd.s:23868  .debug_str:000000000000cb65 .LASF2011
C:\Users\CYMR90~1\AppData\Local\Temp\ccZ8Xcmd.s:21130  .debug_str:0000000000001a5e .LASF2012
C:\Users\CYMR90~1\AppData\Local\Temp\ccZ8Xcmd.s:29519  .debug_str:0000000000023161 .LASF2013
C:\Users\CYMR90~1\AppData\Local\Temp\ccZ8Xcmd.s:29271  .debug_str:00000000000222da .LASF2014
C:\Users\CYMR90~1\AppData\Local\Temp\ccZ8Xcmd.s:27241  .debug_str:000000000001a412 .LASF2015
C:\Users\CYMR90~1\AppData\Local\Temp\ccZ8Xcmd.s:31119  .debug_str:0000000000029a04 .LASF2016
C:\Users\CYMR90~1\AppData\Local\Temp\ccZ8Xcmd.s:29427  .debug_str:0000000000022c62 .LASF2017
C:\Users\CYMR90~1\AppData\Local\Temp\ccZ8Xcmd.s:31549  .debug_str:000000000002b474 .LASF2018
C:\Users\CYMR90~1\AppData\Local\Temp\ccZ8Xcmd.s:27985  .debug_str:000000000001d44f .LASF2019
C:\Users\CYMR90~1\AppData\Local\Temp\ccZ8Xcmd.s:22352  .debug_str:0000000000006746 .LASF2020
C:\Users\CYMR90~1\AppData\Local\Temp\ccZ8Xcmd.s:29469  .debug_str:0000000000022ea3 .LASF2021
C:\Users\CYMR90~1\AppData\Local\Temp\ccZ8Xcmd.s:30459  .debug_str:0000000000026edd .LASF2022
C:\Users\CYMR90~1\AppData\Local\Temp\ccZ8Xcmd.s:26649  .debug_str:0000000000017d08 .LASF2023
C:\Users\CYMR90~1\AppData\Local\Temp\ccZ8Xcmd.s:30397  .debug_str:0000000000026ae9 .LASF2024
C:\Users\CYMR90~1\AppData\Local\Temp\ccZ8Xcmd.s:23586  .debug_str:000000000000b7f4 .LASF2025
C:\Users\CYMR90~1\AppData\Local\Temp\ccZ8Xcmd.s:31499  .debug_str:000000000002b0cb .LASF2026
C:\Users\CYMR90~1\AppData\Local\Temp\ccZ8Xcmd.s:21534  .debug_str:000000000000336b .LASF2027
C:\Users\CYMR90~1\AppData\Local\Temp\ccZ8Xcmd.s:29531  .debug_str:0000000000023207 .LASF2028
C:\Users\CYMR90~1\AppData\Local\Temp\ccZ8Xcmd.s:28541  .debug_str:000000000001f63a .LASF2029
C:\Users\CYMR90~1\AppData\Local\Temp\ccZ8Xcmd.s:20718  .debug_str:0000000000000128 .LASF2030
C:\Users\CYMR90~1\AppData\Local\Temp\ccZ8Xcmd.s:26635  .debug_str:0000000000017c39 .LASF2031
C:\Users\CYMR90~1\AppData\Local\Temp\ccZ8Xcmd.s:23352  .debug_str:000000000000a7dd .LASF2032
C:\Users\CYMR90~1\AppData\Local\Temp\ccZ8Xcmd.s:24556  .debug_str:000000000000f640 .LASF2033
C:\Users\CYMR90~1\AppData\Local\Temp\ccZ8Xcmd.s:23564  .debug_str:000000000000b643 .LASF2034
C:\Users\CYMR90~1\AppData\Local\Temp\ccZ8Xcmd.s:25106  .debug_str:000000000001199e .LASF2035
C:\Users\CYMR90~1\AppData\Local\Temp\ccZ8Xcmd.s:28997  .debug_str:00000000000212b7 .LASF2036
C:\Users\CYMR90~1\AppData\Local\Temp\ccZ8Xcmd.s:29401  .debug_str:0000000000022af1 .LASF2037
C:\Users\CYMR90~1\AppData\Local\Temp\ccZ8Xcmd.s:24452  .debug_str:000000000000ef2b .LASF2038
C:\Users\CYMR90~1\AppData\Local\Temp\ccZ8Xcmd.s:25200  .debug_str:0000000000011f93 .LASF2039
C:\Users\CYMR90~1\AppData\Local\Temp\ccZ8Xcmd.s:27183  .debug_str:0000000000019f32 .LASF2040
C:\Users\CYMR90~1\AppData\Local\Temp\ccZ8Xcmd.s:23896  .debug_str:000000000000ccc9 .LASF2041
C:\Users\CYMR90~1\AppData\Local\Temp\ccZ8Xcmd.s:21356  .debug_str:00000000000027ca .LASF2042
C:\Users\CYMR90~1\AppData\Local\Temp\ccZ8Xcmd.s:22086  .debug_str:00000000000056d8 .LASF2043
C:\Users\CYMR90~1\AppData\Local\Temp\ccZ8Xcmd.s:31917  .debug_str:000000000002cd41 .LASF2044
C:\Users\CYMR90~1\AppData\Local\Temp\ccZ8Xcmd.s:25502  .debug_str:00000000000133c7 .LASF2045
C:\Users\CYMR90~1\AppData\Local\Temp\ccZ8Xcmd.s:29285  .debug_str:00000000000223b0 .LASF2046
C:\Users\CYMR90~1\AppData\Local\Temp\ccZ8Xcmd.s:30927  .debug_str:0000000000028dc4 .LASF2047
C:\Users\CYMR90~1\AppData\Local\Temp\ccZ8Xcmd.s:27651  .debug_str:000000000001be24 .LASF2048
C:\Users\CYMR90~1\AppData\Local\Temp\ccZ8Xcmd.s:28181  .debug_str:000000000001e0c8 .LASF2049
C:\Users\CYMR90~1\AppData\Local\Temp\ccZ8Xcmd.s:22150  .debug_str:0000000000005ae3 .LASF2050
C:\Users\CYMR90~1\AppData\Local\Temp\ccZ8Xcmd.s:21520  .debug_str:0000000000003271 .LASF2051
C:\Users\CYMR90~1\AppData\Local\Temp\ccZ8Xcmd.s:23466  .debug_str:000000000000afcb .LASF2052
C:\Users\CYMR90~1\AppData\Local\Temp\ccZ8Xcmd.s:30025  .debug_str:000000000002531d .LASF2053
C:\Users\CYMR90~1\AppData\Local\Temp\ccZ8Xcmd.s:31351  .debug_str:000000000002a804 .LASF2054
C:\Users\CYMR90~1\AppData\Local\Temp\ccZ8Xcmd.s:21962  .debug_str:0000000000004f7a .LASF2055
C:\Users\CYMR90~1\AppData\Local\Temp\ccZ8Xcmd.s:30355  .debug_str:0000000000026884 .LASF2056
C:\Users\CYMR90~1\AppData\Local\Temp\ccZ8Xcmd.s:28351  .debug_str:000000000001eac4 .LASF2057
C:\Users\CYMR90~1\AppData\Local\Temp\ccZ8Xcmd.s:26485  .debug_str:00000000000172e1 .LASF2058
C:\Users\CYMR90~1\AppData\Local\Temp\ccZ8Xcmd.s:23344  .debug_str:000000000000a756 .LASF2059
C:\Users\CYMR90~1\AppData\Local\Temp\ccZ8Xcmd.s:24142  .debug_str:000000000000dca1 .LASF2060
C:\Users\CYMR90~1\AppData\Local\Temp\ccZ8Xcmd.s:28801  .debug_str:00000000000206a2 .LASF2061
C:\Users\CYMR90~1\AppData\Local\Temp\ccZ8Xcmd.s:25632  .debug_str:0000000000013bd2 .LASF2062
C:\Users\CYMR90~1\AppData\Local\Temp\ccZ8Xcmd.s:21328  .debug_str:00000000000025e7 .LASF2063
C:\Users\CYMR90~1\AppData\Local\Temp\ccZ8Xcmd.s:24920  .debug_str:0000000000010cf4 .LASF2064
C:\Users\CYMR90~1\AppData\Local\Temp\ccZ8Xcmd.s:28315  .debug_str:000000000001e8cb .LASF2065
C:\Users\CYMR90~1\AppData\Local\Temp\ccZ8Xcmd.s:23032  .debug_str:00000000000093a9 .LASF2066
C:\Users\CYMR90~1\AppData\Local\Temp\ccZ8Xcmd.s:23494  .debug_str:000000000000b141 .LASF2067
C:\Users\CYMR90~1\AppData\Local\Temp\ccZ8Xcmd.s:26587  .debug_str:000000000001797e .LASF2068
C:\Users\CYMR90~1\AppData\Local\Temp\ccZ8Xcmd.s:26196  .debug_str:0000000000015ea8 .LASF2069
C:\Users\CYMR90~1\AppData\Local\Temp\ccZ8Xcmd.s:24030  .debug_str:000000000000d603 .LASF2070
C:\Users\CYMR90~1\AppData\Local\Temp\ccZ8Xcmd.s:22120  .debug_str:0000000000005915 .LASF2071
C:\Users\CYMR90~1\AppData\Local\Temp\ccZ8Xcmd.s:25356  .debug_str:00000000000129c8 .LASF2072
C:\Users\CYMR90~1\AppData\Local\Temp\ccZ8Xcmd.s:24376  .debug_str:000000000000eb1a .LASF2073
C:\Users\CYMR90~1\AppData\Local\Temp\ccZ8Xcmd.s:23626  .debug_str:000000000000ba56 .LASF2074
C:\Users\CYMR90~1\AppData\Local\Temp\ccZ8Xcmd.s:31723  .debug_str:000000000002c050 .LASF2075
C:\Users\CYMR90~1\AppData\Local\Temp\ccZ8Xcmd.s:23594  .debug_str:000000000000b85a .LASF2076
C:\Users\CYMR90~1\AppData\Local\Temp\ccZ8Xcmd.s:31005  .debug_str:0000000000029308 .LASF2077
C:\Users\CYMR90~1\AppData\Local\Temp\ccZ8Xcmd.s:21976  .debug_str:000000000000504a .LASF2078
C:\Users\CYMR90~1\AppData\Local\Temp\ccZ8Xcmd.s:21098  .debug_str:0000000000001884 .LASF2079
C:\Users\CYMR90~1\AppData\Local\Temp\ccZ8Xcmd.s:29561  .debug_str:000000000002341d .LASF2080
C:\Users\CYMR90~1\AppData\Local\Temp\ccZ8Xcmd.s:30889  .debug_str:0000000000028b66 .LASF2081
C:\Users\CYMR90~1\AppData\Local\Temp\ccZ8Xcmd.s:30981  .debug_str:0000000000029135 .LASF2082
C:\Users\CYMR90~1\AppData\Local\Temp\ccZ8Xcmd.s:25226  .debug_str:000000000001210f .LASF2083
C:\Users\CYMR90~1\AppData\Local\Temp\ccZ8Xcmd.s:22676  .debug_str:0000000000007ce5 .LASF2084
C:\Users\CYMR90~1\AppData\Local\Temp\ccZ8Xcmd.s:29441  .debug_str:0000000000022d17 .LASF2085
C:\Users\CYMR90~1\AppData\Local\Temp\ccZ8Xcmd.s:21002  .debug_str:000000000000121c .LASF2086
C:\Users\CYMR90~1\AppData\Local\Temp\ccZ8Xcmd.s:20856  .debug_str:00000000000008e3 .LASF2087
C:\Users\CYMR90~1\AppData\Local\Temp\ccZ8Xcmd.s:27443  .debug_str:000000000001b1aa .LASF2088
C:\Users\CYMR90~1\AppData\Local\Temp\ccZ8Xcmd.s:28511  .debug_str:000000000001f499 .LASF2089
C:\Users\CYMR90~1\AppData\Local\Temp\ccZ8Xcmd.s:28829  .debug_str:0000000000020852 .LASF2090
C:\Users\CYMR90~1\AppData\Local\Temp\ccZ8Xcmd.s:25160  .debug_str:0000000000011cc8 .LASF2091
C:\Users\CYMR90~1\AppData\Local\Temp\ccZ8Xcmd.s:26513  .debug_str:0000000000017495 .LASF2092
C:\Users\CYMR90~1\AppData\Local\Temp\ccZ8Xcmd.s:25662  .debug_str:0000000000013d85 .LASF2093
C:\Users\CYMR90~1\AppData\Local\Temp\ccZ8Xcmd.s:21514  .debug_str:0000000000003221 .LASF2094
C:\Users\CYMR90~1\AppData\Local\Temp\ccZ8Xcmd.s:21732  .debug_str:00000000000040ab .LASF2095
C:\Users\CYMR90~1\AppData\Local\Temp\ccZ8Xcmd.s:23142  .debug_str:0000000000009b01 .LASF2096
C:\Users\CYMR90~1\AppData\Local\Temp\ccZ8Xcmd.s:21490  .debug_str:000000000000306d .LASF2097
C:\Users\CYMR90~1\AppData\Local\Temp\ccZ8Xcmd.s:30171  .debug_str:0000000000025d15 .LASF2098
C:\Users\CYMR90~1\AppData\Local\Temp\ccZ8Xcmd.s:24710  .debug_str:000000000000fff3 .LASF2099
C:\Users\CYMR90~1\AppData\Local\Temp\ccZ8Xcmd.s:23502  .debug_str:000000000000b1c8 .LASF2100
C:\Users\CYMR90~1\AppData\Local\Temp\ccZ8Xcmd.s:22290  .debug_str:000000000000634c .LASF2101
C:\Users\CYMR90~1\AppData\Local\Temp\ccZ8Xcmd.s:21406  .debug_str:0000000000002ae5 .LASF2102
C:\Users\CYMR90~1\AppData\Local\Temp\ccZ8Xcmd.s:23180  .debug_str:0000000000009d43 .LASF2103
C:\Users\CYMR90~1\AppData\Local\Temp\ccZ8Xcmd.s:31673  .debug_str:000000000002bcad .LASF2104
C:\Users\CYMR90~1\AppData\Local\Temp\ccZ8Xcmd.s:26511  .debug_str:0000000000017471 .LASF2105
C:\Users\CYMR90~1\AppData\Local\Temp\ccZ8Xcmd.s:21508  .debug_str:00000000000031b0 .LASF2106
C:\Users\CYMR90~1\AppData\Local\Temp\ccZ8Xcmd.s:30951  .debug_str:0000000000028f57 .LASF2107
C:\Users\CYMR90~1\AppData\Local\Temp\ccZ8Xcmd.s:25194  .debug_str:0000000000011f19 .LASF2108
C:\Users\CYMR90~1\AppData\Local\Temp\ccZ8Xcmd.s:21524  .debug_str:00000000000032af .LASF2109
C:\Users\CYMR90~1\AppData\Local\Temp\ccZ8Xcmd.s:23938  .debug_str:000000000000cfa1 .LASF2110
C:\Users\CYMR90~1\AppData\Local\Temp\ccZ8Xcmd.s:26459  .debug_str:0000000000017167 .LASF2111
C:\Users\CYMR90~1\AppData\Local\Temp\ccZ8Xcmd.s:28531  .debug_str:000000000001f5b4 .LASF2112
C:\Users\CYMR90~1\AppData\Local\Temp\ccZ8Xcmd.s:31113  .debug_str:00000000000299aa .LASF2113
C:\Users\CYMR90~1\AppData\Local\Temp\ccZ8Xcmd.s:30505  .debug_str:000000000002726a .LASF2114
C:\Users\CYMR90~1\AppData\Local\Temp\ccZ8Xcmd.s:25554  .debug_str:0000000000013704 .LASF2115
C:\Users\CYMR90~1\AppData\Local\Temp\ccZ8Xcmd.s:27427  .debug_str:000000000001b0a0 .LASF2116
C:\Users\CYMR90~1\AppData\Local\Temp\ccZ8Xcmd.s:25744  .debug_str:0000000000014282 .LASF2117
C:\Users\CYMR90~1\AppData\Local\Temp\ccZ8Xcmd.s:29791  .debug_str:0000000000024321 .LASF2118
C:\Users\CYMR90~1\AppData\Local\Temp\ccZ8Xcmd.s:28477  .debug_str:000000000001f28e .LASF2119
C:\Users\CYMR90~1\AppData\Local\Temp\ccZ8Xcmd.s:21360  .debug_str:0000000000002801 .LASF2120
C:\Users\CYMR90~1\AppData\Local\Temp\ccZ8Xcmd.s:28903  .debug_str:0000000000020cce .LASF2121
C:\Users\CYMR90~1\AppData\Local\Temp\ccZ8Xcmd.s:22750  .debug_str:0000000000008260 .LASF2122
C:\Users\CYMR90~1\AppData\Local\Temp\ccZ8Xcmd.s:25602  .debug_str:0000000000013a04 .LASF2123
C:\Users\CYMR90~1\AppData\Local\Temp\ccZ8Xcmd.s:28207  .debug_str:000000000001e25a .LASF2124
C:\Users\CYMR90~1\AppData\Local\Temp\ccZ8Xcmd.s:25456  .debug_str:000000000001304e .LASF2125
C:\Users\CYMR90~1\AppData\Local\Temp\ccZ8Xcmd.s:26579  .debug_str:00000000000178f6 .LASF2126
C:\Users\CYMR90~1\AppData\Local\Temp\ccZ8Xcmd.s:30485  .debug_str:0000000000027083 .LASF2127
C:\Users\CYMR90~1\AppData\Local\Temp\ccZ8Xcmd.s:29011  .debug_str:000000000002138d .LASF2128
C:\Users\CYMR90~1\AppData\Local\Temp\ccZ8Xcmd.s:24916  .debug_str:0000000000010cb9 .LASF2129
C:\Users\CYMR90~1\AppData\Local\Temp\ccZ8Xcmd.s:28919  .debug_str:0000000000020da8 .LASF2130
C:\Users\CYMR90~1\AppData\Local\Temp\ccZ8Xcmd.s:26801  .debug_str:00000000000185d0 .LASF2131
C:\Users\CYMR90~1\AppData\Local\Temp\ccZ8Xcmd.s:28745  .debug_str:00000000000202d0 .LASF2132
C:\Users\CYMR90~1\AppData\Local\Temp\ccZ8Xcmd.s:25100  .debug_str:0000000000011928 .LASF2133
C:\Users\CYMR90~1\AppData\Local\Temp\ccZ8Xcmd.s:21498  .debug_str:0000000000003112 .LASF2134
C:\Users\CYMR90~1\AppData\Local\Temp\ccZ8Xcmd.s:21240  .debug_str:0000000000002059 .LASF2135
C:\Users\CYMR90~1\AppData\Local\Temp\ccZ8Xcmd.s:26959  .debug_str:0000000000019111 .LASF2136
C:\Users\CYMR90~1\AppData\Local\Temp\ccZ8Xcmd.s:31219  .debug_str:0000000000029fdf .LASF2137
C:\Users\CYMR90~1\AppData\Local\Temp\ccZ8Xcmd.s:22752  .debug_str:0000000000008285 .LASF2138
C:\Users\CYMR90~1\AppData\Local\Temp\ccZ8Xcmd.s:29101  .debug_str:0000000000021917 .LASF2139
C:\Users\CYMR90~1\AppData\Local\Temp\ccZ8Xcmd.s:25012  .debug_str:000000000001123b .LASF2140
C:\Users\CYMR90~1\AppData\Local\Temp\ccZ8Xcmd.s:24498  .debug_str:000000000000f248 .LASF2141
C:\Users\CYMR90~1\AppData\Local\Temp\ccZ8Xcmd.s:28493  .debug_str:000000000001f389 .LASF2142
C:\Users\CYMR90~1\AppData\Local\Temp\ccZ8Xcmd.s:29033  .debug_str:00000000000214cf .LASF2143
C:\Users\CYMR90~1\AppData\Local\Temp\ccZ8Xcmd.s:25288  .debug_str:0000000000012537 .LASF2144
C:\Users\CYMR90~1\AppData\Local\Temp\ccZ8Xcmd.s:21526  .debug_str:00000000000032d6 .LASF2145
C:\Users\CYMR90~1\AppData\Local\Temp\ccZ8Xcmd.s:20724  .debug_str:0000000000000171 .LASF2146
C:\Users\CYMR90~1\AppData\Local\Temp\ccZ8Xcmd.s:21122  .debug_str:00000000000019c2 .LASF2147
C:\Users\CYMR90~1\AppData\Local\Temp\ccZ8Xcmd.s:26519  .debug_str:00000000000174eb .LASF2148
C:\Users\CYMR90~1\AppData\Local\Temp\ccZ8Xcmd.s:30917  .debug_str:0000000000028d31 .LASF2149
C:\Users\CYMR90~1\AppData\Local\Temp\ccZ8Xcmd.s:30507  .debug_str:0000000000027291 .LASF2150
C:\Users\CYMR90~1\AppData\Local\Temp\ccZ8Xcmd.s:25556  .debug_str:000000000001372b .LASF2151
C:\Users\CYMR90~1\AppData\Local\Temp\ccZ8Xcmd.s:24110  .debug_str:000000000000da7d .LASF2152
C:\Users\CYMR90~1\AppData\Local\Temp\ccZ8Xcmd.s:22132  .debug_str:00000000000059c7 .LASF2153
C:\Users\CYMR90~1\AppData\Local\Temp\ccZ8Xcmd.s:26296  .debug_str:0000000000016513 .LASF2154
C:\Users\CYMR90~1\AppData\Local\Temp\ccZ8Xcmd.s:21056  .debug_str:000000000000155b .LASF2155
C:\Users\CYMR90~1\AppData\Local\Temp\ccZ8Xcmd.s:21600  .debug_str:00000000000037c1 .LASF2156
C:\Users\CYMR90~1\AppData\Local\Temp\ccZ8Xcmd.s:30471  .debug_str:0000000000026f7e .LASF2157
C:\Users\CYMR90~1\AppData\Local\Temp\ccZ8Xcmd.s:24950  .debug_str:0000000000010ea3 .LASF2158
C:\Users\CYMR90~1\AppData\Local\Temp\ccZ8Xcmd.s:26865  .debug_str:0000000000018a06 .LASF2159
C:\Users\CYMR90~1\AppData\Local\Temp\ccZ8Xcmd.s:30275  .debug_str:0000000000026373 .LASF2160
C:\Users\CYMR90~1\AppData\Local\Temp\ccZ8Xcmd.s:22928  .debug_str:0000000000008ddb .LASF2161
C:\Users\CYMR90~1\AppData\Local\Temp\ccZ8Xcmd.s:31199  .debug_str:0000000000029eb2 .LASF2162
C:\Users\CYMR90~1\AppData\Local\Temp\ccZ8Xcmd.s:31905  .debug_str:000000000002cc23 .LASF2163
C:\Users\CYMR90~1\AppData\Local\Temp\ccZ8Xcmd.s:21634  .debug_str:00000000000039fd .LASF2164
C:\Users\CYMR90~1\AppData\Local\Temp\ccZ8Xcmd.s:29541  .debug_str:00000000000232a3 .LASF2165
C:\Users\CYMR90~1\AppData\Local\Temp\ccZ8Xcmd.s:26943  .debug_str:0000000000019032 .LASF2166
C:\Users\CYMR90~1\AppData\Local\Temp\ccZ8Xcmd.s:24492  .debug_str:000000000000f1f1 .LASF2167
C:\Users\CYMR90~1\AppData\Local\Temp\ccZ8Xcmd.s:22784  .debug_str:000000000000846d .LASF2168
C:\Users\CYMR90~1\AppData\Local\Temp\ccZ8Xcmd.s:28039  .debug_str:000000000001d7c9 .LASF2169
C:\Users\CYMR90~1\AppData\Local\Temp\ccZ8Xcmd.s:26244  .debug_str:00000000000161ab .LASF2170
C:\Users\CYMR90~1\AppData\Local\Temp\ccZ8Xcmd.s:24266  .debug_str:000000000000e407 .LASF2171
C:\Users\CYMR90~1\AppData\Local\Temp\ccZ8Xcmd.s:24404  .debug_str:000000000000ec7b .LASF2172
C:\Users\CYMR90~1\AppData\Local\Temp\ccZ8Xcmd.s:28497  .debug_str:000000000001f3c0 .LASF2173
C:\Users\CYMR90~1\AppData\Local\Temp\ccZ8Xcmd.s:26184  .debug_str:0000000000015dcb .LASF2174
C:\Users\CYMR90~1\AppData\Local\Temp\ccZ8Xcmd.s:25154  .debug_str:0000000000011c86 .LASF2175
C:\Users\CYMR90~1\AppData\Local\Temp\ccZ8Xcmd.s:28277  .debug_str:000000000001e6be .LASF2176
C:\Users\CYMR90~1\AppData\Local\Temp\ccZ8Xcmd.s:23504  .debug_str:000000000000b1d7 .LASF2177
C:\Users\CYMR90~1\AppData\Local\Temp\ccZ8Xcmd.s:29181  .debug_str:0000000000021dd5 .LASF2178
C:\Users\CYMR90~1\AppData\Local\Temp\ccZ8Xcmd.s:24124  .debug_str:000000000000db60 .LASF2179
C:\Users\CYMR90~1\AppData\Local\Temp\ccZ8Xcmd.s:22626  .debug_str:0000000000007927 .LASF2180
C:\Users\CYMR90~1\AppData\Local\Temp\ccZ8Xcmd.s:30191  .debug_str:0000000000025e73 .LASF2181
C:\Users\CYMR90~1\AppData\Local\Temp\ccZ8Xcmd.s:24296  .debug_str:000000000000e62c .LASF2182
C:\Users\CYMR90~1\AppData\Local\Temp\ccZ8Xcmd.s:26218  .debug_str:0000000000016028 .LASF2183
C:\Users\CYMR90~1\AppData\Local\Temp\ccZ8Xcmd.s:21754  .debug_str:00000000000041c5 .LASF2184
C:\Users\CYMR90~1\AppData\Local\Temp\ccZ8Xcmd.s:24582  .debug_str:000000000000f7e1 .LASF2185
C:\Users\CYMR90~1\AppData\Local\Temp\ccZ8Xcmd.s:31459  .debug_str:000000000002ae7c .LASF2186
C:\Users\CYMR90~1\AppData\Local\Temp\ccZ8Xcmd.s:28287  .debug_str:000000000001e75e .LASF2187
C:\Users\CYMR90~1\AppData\Local\Temp\ccZ8Xcmd.s:23126  .debug_str:0000000000009a2f .LASF2188
C:\Users\CYMR90~1\AppData\Local\Temp\ccZ8Xcmd.s:27279  .debug_str:000000000001a717 .LASF2189
C:\Users\CYMR90~1\AppData\Local\Temp\ccZ8Xcmd.s:21692  .debug_str:0000000000003d43 .LASF2190
C:\Users\CYMR90~1\AppData\Local\Temp\ccZ8Xcmd.s:23224  .debug_str:000000000000a026 .LASF2191
C:\Users\CYMR90~1\AppData\Local\Temp\ccZ8Xcmd.s:28371  .debug_str:000000000001ebda .LASF2192
C:\Users\CYMR90~1\AppData\Local\Temp\ccZ8Xcmd.s:21616  .debug_str:00000000000038b4 .LASF2193
C:\Users\CYMR90~1\AppData\Local\Temp\ccZ8Xcmd.s:25040  .debug_str:000000000001140c .LASF2194
C:\Users\CYMR90~1\AppData\Local\Temp\ccZ8Xcmd.s:29743  .debug_str:0000000000023f9c .LASF2195
C:\Users\CYMR90~1\AppData\Local\Temp\ccZ8Xcmd.s:22574  .debug_str:00000000000075a8 .LASF2196
C:\Users\CYMR90~1\AppData\Local\Temp\ccZ8Xcmd.s:25908  .debug_str:0000000000014cc3 .LASF2197
C:\Users\CYMR90~1\AppData\Local\Temp\ccZ8Xcmd.s:25138  .debug_str:0000000000011b65 .LASF2198
C:\Users\CYMR90~1\AppData\Local\Temp\ccZ8Xcmd.s:28739  .debug_str:0000000000020287 .LASF2199
C:\Users\CYMR90~1\AppData\Local\Temp\ccZ8Xcmd.s:23366  .debug_str:000000000000a8bc .LASF2200
C:\Users\CYMR90~1\AppData\Local\Temp\ccZ8Xcmd.s:29249  .debug_str:00000000000221c4 .LASF2201
C:\Users\CYMR90~1\AppData\Local\Temp\ccZ8Xcmd.s:28573  .debug_str:000000000001f84a .LASF2202
C:\Users\CYMR90~1\AppData\Local\Temp\ccZ8Xcmd.s:29757  .debug_str:00000000000240c1 .LASF2203
C:\Users\CYMR90~1\AppData\Local\Temp\ccZ8Xcmd.s:30343  .debug_str:00000000000267d5 .LASF2204
C:\Users\CYMR90~1\AppData\Local\Temp\ccZ8Xcmd.s:30175  .debug_str:0000000000025d48 .LASF2205
C:\Users\CYMR90~1\AppData\Local\Temp\ccZ8Xcmd.s:29809  .debug_str:0000000000024410 .LASF2206
C:\Users\CYMR90~1\AppData\Local\Temp\ccZ8Xcmd.s:28867  .debug_str:0000000000020ac9 .LASF2207
C:\Users\CYMR90~1\AppData\Local\Temp\ccZ8Xcmd.s:24758  .debug_str:00000000000102b5 .LASF2208
C:\Users\CYMR90~1\AppData\Local\Temp\ccZ8Xcmd.s:26911  .debug_str:0000000000018d5a .LASF2209
C:\Users\CYMR90~1\AppData\Local\Temp\ccZ8Xcmd.s:28719  .debug_str:000000000002010c .LASF2210
C:\Users\CYMR90~1\AppData\Local\Temp\ccZ8Xcmd.s:23638  .debug_str:000000000000bb5f .LASF2211
C:\Users\CYMR90~1\AppData\Local\Temp\ccZ8Xcmd.s:22350  .debug_str:000000000000671e .LASF2212
C:\Users\CYMR90~1\AppData\Local\Temp\ccZ8Xcmd.s:31647  .debug_str:000000000002baef .LASF2213
C:\Users\CYMR90~1\AppData\Local\Temp\ccZ8Xcmd.s:31725  .debug_str:000000000002c061 .LASF2214
C:\Users\CYMR90~1\AppData\Local\Temp\ccZ8Xcmd.s:25648  .debug_str:0000000000013cad .LASF2215
C:\Users\CYMR90~1\AppData\Local\Temp\ccZ8Xcmd.s:23328  .debug_str:000000000000a668 .LASF2216
C:\Users\CYMR90~1\AppData\Local\Temp\ccZ8Xcmd.s:27517  .debug_str:000000000001b61d .LASF2217
C:\Users\CYMR90~1\AppData\Local\Temp\ccZ8Xcmd.s:26835  .debug_str:0000000000018846 .LASF2218
C:\Users\CYMR90~1\AppData\Local\Temp\ccZ8Xcmd.s:31491  .debug_str:000000000002b053 .LASF2219
C:\Users\CYMR90~1\AppData\Local\Temp\ccZ8Xcmd.s:28063  .debug_str:000000000001d915 .LASF2220
C:\Users\CYMR90~1\AppData\Local\Temp\ccZ8Xcmd.s:26923  .debug_str:0000000000018df8 .LASF2221
C:\Users\CYMR90~1\AppData\Local\Temp\ccZ8Xcmd.s:25324  .debug_str:0000000000012792 .LASF2222
C:\Users\CYMR90~1\AppData\Local\Temp\ccZ8Xcmd.s:29647  .debug_str:0000000000023959 .LASF2223
C:\Users\CYMR90~1\AppData\Local\Temp\ccZ8Xcmd.s:22284  .debug_str:00000000000062f4 .LASF2224
C:\Users\CYMR90~1\AppData\Local\Temp\ccZ8Xcmd.s:27323  .debug_str:000000000001a9ba .LASF2225
C:\Users\CYMR90~1\AppData\Local\Temp\ccZ8Xcmd.s:21824  .debug_str:0000000000004689 .LASF2226
C:\Users\CYMR90~1\AppData\Local\Temp\ccZ8Xcmd.s:27239  .debug_str:000000000001a3eb .LASF2227
C:\Users\CYMR90~1\AppData\Local\Temp\ccZ8Xcmd.s:26385  .debug_str:0000000000016d0c .LASF2228
C:\Users\CYMR90~1\AppData\Local\Temp\ccZ8Xcmd.s:28117  .debug_str:000000000001dceb .LASF2229
C:\Users\CYMR90~1\AppData\Local\Temp\ccZ8Xcmd.s:21796  .debug_str:000000000000448f .LASF2230
C:\Users\CYMR90~1\AppData\Local\Temp\ccZ8Xcmd.s:28345  .debug_str:000000000001ea51 .LASF2231
C:\Users\CYMR90~1\AppData\Local\Temp\ccZ8Xcmd.s:21108  .debug_str:000000000000191f .LASF2232
C:\Users\CYMR90~1\AppData\Local\Temp\ccZ8Xcmd.s:27091  .debug_str:00000000000199d9 .LASF2233
C:\Users\CYMR90~1\AppData\Local\Temp\ccZ8Xcmd.s:23806  .debug_str:000000000000c684 .LASF2234
C:\Users\CYMR90~1\AppData\Local\Temp\ccZ8Xcmd.s:22022  .debug_str:0000000000005328 .LASF2235
C:\Users\CYMR90~1\AppData\Local\Temp\ccZ8Xcmd.s:31679  .debug_str:000000000002bd0a .LASF2236
C:\Users\CYMR90~1\AppData\Local\Temp\ccZ8Xcmd.s:24270  .debug_str:000000000000e442 .LASF2237
C:\Users\CYMR90~1\AppData\Local\Temp\ccZ8Xcmd.s:28987  .debug_str:000000000002121b .LASF2238
C:\Users\CYMR90~1\AppData\Local\Temp\ccZ8Xcmd.s:28019  .debug_str:000000000001d67e .LASF2239
C:\Users\CYMR90~1\AppData\Local\Temp\ccZ8Xcmd.s:27951  .debug_str:000000000001d235 .LASF2240
C:\Users\CYMR90~1\AppData\Local\Temp\ccZ8Xcmd.s:21166  .debug_str:0000000000001c71 .LASF2241
C:\Users\CYMR90~1\AppData\Local\Temp\ccZ8Xcmd.s:29005  .debug_str:0000000000021339 .LASF2242
C:\Users\CYMR90~1\AppData\Local\Temp\ccZ8Xcmd.s:30551  .debug_str:00000000000274ed .LASF2243
C:\Users\CYMR90~1\AppData\Local\Temp\ccZ8Xcmd.s:25176  .debug_str:0000000000011db0 .LASF2244
C:\Users\CYMR90~1\AppData\Local\Temp\ccZ8Xcmd.s:26395  .debug_str:0000000000016da8 .LASF2245
C:\Users\CYMR90~1\AppData\Local\Temp\ccZ8Xcmd.s:23318  .debug_str:000000000000a58d .LASF2246
C:\Users\CYMR90~1\AppData\Local\Temp\ccZ8Xcmd.s:25972  .debug_str:00000000000150e2 .LASF2247
C:\Users\CYMR90~1\AppData\Local\Temp\ccZ8Xcmd.s:21528  .debug_str:00000000000032fd .LASF2248
C:\Users\CYMR90~1\AppData\Local\Temp\ccZ8Xcmd.s:28365  .debug_str:000000000001eb80 .LASF2249
C:\Users\CYMR90~1\AppData\Local\Temp\ccZ8Xcmd.s:27493  .debug_str:000000000001b47f .LASF2250
C:\Users\CYMR90~1\AppData\Local\Temp\ccZ8Xcmd.s:26553  .debug_str:000000000001770a .LASF2251
C:\Users\CYMR90~1\AppData\Local\Temp\ccZ8Xcmd.s:29765  .debug_str:0000000000024156 .LASF2252
C:\Users\CYMR90~1\AppData\Local\Temp\ccZ8Xcmd.s:25330  .debug_str:00000000000127ef .LASF2253
C:\Users\CYMR90~1\AppData\Local\Temp\ccZ8Xcmd.s:24074  .debug_str:000000000000d88f .LASF2254
C:\Users\CYMR90~1\AppData\Local\Temp\ccZ8Xcmd.s:22838  .debug_str:00000000000087db .LASF2255
C:\Users\CYMR90~1\AppData\Local\Temp\ccZ8Xcmd.s:24736  .debug_str:0000000000010174 .LASF2256
C:\Users\CYMR90~1\AppData\Local\Temp\ccZ8Xcmd.s:27763  .debug_str:000000000001c4b8 .LASF2257
C:\Users\CYMR90~1\AppData\Local\Temp\ccZ8Xcmd.s:25030  .debug_str:000000000001136a .LASF2258
C:\Users\CYMR90~1\AppData\Local\Temp\ccZ8Xcmd.s:25254  .debug_str:00000000000122e1 .LASF2259
C:\Users\CYMR90~1\AppData\Local\Temp\ccZ8Xcmd.s:24934  .debug_str:0000000000010da3 .LASF2260
C:\Users\CYMR90~1\AppData\Local\Temp\ccZ8Xcmd.s:26020  .debug_str:00000000000153ad .LASF2261
C:\Users\CYMR90~1\AppData\Local\Temp\ccZ8Xcmd.s:21224  .debug_str:0000000000001f8e .LASF2262
C:\Users\CYMR90~1\AppData\Local\Temp\ccZ8Xcmd.s:24316  .debug_str:000000000000e752 .LASF2263
C:\Users\CYMR90~1\AppData\Local\Temp\ccZ8Xcmd.s:28137  .debug_str:000000000001de36 .LASF2264
C:\Users\CYMR90~1\AppData\Local\Temp\ccZ8Xcmd.s:27197  .debug_str:0000000000019feb .LASF2265
C:\Users\CYMR90~1\AppData\Local\Temp\ccZ8Xcmd.s:24158  .debug_str:000000000000dd90 .LASF2266
C:\Users\CYMR90~1\AppData\Local\Temp\ccZ8Xcmd.s:23518  .debug_str:000000000000b340 .LASF2267
C:\Users\CYMR90~1\AppData\Local\Temp\ccZ8Xcmd.s:26561  .debug_str:00000000000177c4 .LASF2268
C:\Users\CYMR90~1\AppData\Local\Temp\ccZ8Xcmd.s:22922  .debug_str:0000000000008d79 .LASF2269
C:\Users\CYMR90~1\AppData\Local\Temp\ccZ8Xcmd.s:21842  .debug_str:0000000000004834 .LASF2270
C:\Users\CYMR90~1\AppData\Local\Temp\ccZ8Xcmd.s:27647  .debug_str:000000000001bde4 .LASF2271
C:\Users\CYMR90~1\AppData\Local\Temp\ccZ8Xcmd.s:28041  .debug_str:000000000001d7e1 .LASF2272
C:\Users\CYMR90~1\AppData\Local\Temp\ccZ8Xcmd.s:25862  .debug_str:00000000000149c6 .LASF2273
C:\Users\CYMR90~1\AppData\Local\Temp\ccZ8Xcmd.s:30759  .debug_str:0000000000028345 .LASF2274
C:\Users\CYMR90~1\AppData\Local\Temp\ccZ8Xcmd.s:27399  .debug_str:000000000001aee7 .LASF2275
C:\Users\CYMR90~1\AppData\Local\Temp\ccZ8Xcmd.s:24080  .debug_str:000000000000d8fa .LASF2276
C:\Users\CYMR90~1\AppData\Local\Temp\ccZ8Xcmd.s:21628  .debug_str:0000000000003997 .LASF2277
C:\Users\CYMR90~1\AppData\Local\Temp\ccZ8Xcmd.s:20912  .debug_str:0000000000000c8e .LASF2278
C:\Users\CYMR90~1\AppData\Local\Temp\ccZ8Xcmd.s:30611  .debug_str:0000000000027886 .LASF2279
C:\Users\CYMR90~1\AppData\Local\Temp\ccZ8Xcmd.s:28991  .debug_str:0000000000021259 .LASF2280
C:\Users\CYMR90~1\AppData\Local\Temp\ccZ8Xcmd.s:30547  .debug_str:00000000000274c0 .LASF2281
C:\Users\CYMR90~1\AppData\Local\Temp\ccZ8Xcmd.s:23028  .debug_str:0000000000009379 .LASF2282
C:\Users\CYMR90~1\AppData\Local\Temp\ccZ8Xcmd.s:24346  .debug_str:000000000000e937 .LASF2283
C:\Users\CYMR90~1\AppData\Local\Temp\ccZ8Xcmd.s:22386  .debug_str:0000000000006960 .LASF2284
C:\Users\CYMR90~1\AppData\Local\Temp\ccZ8Xcmd.s:24754  .debug_str:000000000001027c .LASF2285
C:\Users\CYMR90~1\AppData\Local\Temp\ccZ8Xcmd.s:31659  .debug_str:000000000002bbb3 .LASF2286
C:\Users\CYMR90~1\AppData\Local\Temp\ccZ8Xcmd.s:30319  .debug_str:0000000000026671 .LASF2287
C:\Users\CYMR90~1\AppData\Local\Temp\ccZ8Xcmd.s:20850  .debug_str:000000000000088f .LASF2288
C:\Users\CYMR90~1\AppData\Local\Temp\ccZ8Xcmd.s:25150  .debug_str:0000000000011c30 .LASF2289
C:\Users\CYMR90~1\AppData\Local\Temp\ccZ8Xcmd.s:28311  .debug_str:000000000001e89a .LASF2290
C:\Users\CYMR90~1\AppData\Local\Temp\ccZ8Xcmd.s:31601  .debug_str:000000000002b804 .LASF2291
C:\Users\CYMR90~1\AppData\Local\Temp\ccZ8Xcmd.s:23478  .debug_str:000000000000b082 .LASF2292
C:\Users\CYMR90~1\AppData\Local\Temp\ccZ8Xcmd.s:22430  .debug_str:0000000000006c4a .LASF2293
C:\Users\CYMR90~1\AppData\Local\Temp\ccZ8Xcmd.s:29875  .debug_str:00000000000248c9 .LASF2294
C:\Users\CYMR90~1\AppData\Local\Temp\ccZ8Xcmd.s:29623  .debug_str:0000000000023806 .LASF2295
C:\Users\CYMR90~1\AppData\Local\Temp\ccZ8Xcmd.s:24926  .debug_str:0000000000010d5b .LASF2296
C:\Users\CYMR90~1\AppData\Local\Temp\ccZ8Xcmd.s:28085  .debug_str:000000000001da77 .LASF2297
C:\Users\CYMR90~1\AppData\Local\Temp\ccZ8Xcmd.s:31349  .debug_str:000000000002a7eb .LASF2298
C:\Users\CYMR90~1\AppData\Local\Temp\ccZ8Xcmd.s:21140  .debug_str:0000000000001ae9 .LASF2299
C:\Users\CYMR90~1\AppData\Local\Temp\ccZ8Xcmd.s:25832  .debug_str:00000000000147ed .LASF2300
C:\Users\CYMR90~1\AppData\Local\Temp\ccZ8Xcmd.s:30549  .debug_str:00000000000274d2 .LASF2301
C:\Users\CYMR90~1\AppData\Local\Temp\ccZ8Xcmd.s:27457  .debug_str:000000000001b273 .LASF2302
C:\Users\CYMR90~1\AppData\Local\Temp\ccZ8Xcmd.s:28609  .debug_str:000000000001fa98 .LASF2303
C:\Users\CYMR90~1\AppData\Local\Temp\ccZ8Xcmd.s:21998  .debug_str:00000000000051a0 .LASF2304
C:\Users\CYMR90~1\AppData\Local\Temp\ccZ8Xcmd.s:26721  .debug_str:000000000001812c .LASF2305
C:\Users\CYMR90~1\AppData\Local\Temp\ccZ8Xcmd.s:31447  .debug_str:000000000002adbe .LASF2306
C:\Users\CYMR90~1\AppData\Local\Temp\ccZ8Xcmd.s:27569  .debug_str:000000000001b8f1 .LASF2307
C:\Users\CYMR90~1\AppData\Local\Temp\ccZ8Xcmd.s:30605  .debug_str:0000000000027821 .LASF2308
C:\Users\CYMR90~1\AppData\Local\Temp\ccZ8Xcmd.s:24000  .debug_str:000000000000d43d .LASF2309
C:\Users\CYMR90~1\AppData\Local\Temp\ccZ8Xcmd.s:28665  .debug_str:000000000001fe0f .LASF2310
C:\Users\CYMR90~1\AppData\Local\Temp\ccZ8Xcmd.s:25148  .debug_str:0000000000011c15 .LASF2311
C:\Users\CYMR90~1\AppData\Local\Temp\ccZ8Xcmd.s:26775  .debug_str:0000000000018473 .LASF2312
C:\Users\CYMR90~1\AppData\Local\Temp\ccZ8Xcmd.s:31501  .debug_str:000000000002b131 .LASF2313
C:\Users\CYMR90~1\AppData\Local\Temp\ccZ8Xcmd.s:31383  .debug_str:000000000002a9d0 .LASF2314
C:\Users\CYMR90~1\AppData\Local\Temp\ccZ8Xcmd.s:23270  .debug_str:000000000000a2fe .LASF2315
C:\Users\CYMR90~1\AppData\Local\Temp\ccZ8Xcmd.s:26463  .debug_str:00000000000171ac .LASF2316
C:\Users\CYMR90~1\AppData\Local\Temp\ccZ8Xcmd.s:29669  .debug_str:0000000000023a91 .LASF2317
C:\Users\CYMR90~1\AppData\Local\Temp\ccZ8Xcmd.s:21650  .debug_str:0000000000003ad7 .LASF2318
C:\Users\CYMR90~1\AppData\Local\Temp\ccZ8Xcmd.s:24804  .debug_str:00000000000105a9 .LASF2319
C:\Users\CYMR90~1\AppData\Local\Temp\ccZ8Xcmd.s:27977  .debug_str:000000000001d3ea .LASF2320
C:\Users\CYMR90~1\AppData\Local\Temp\ccZ8Xcmd.s:31231  .debug_str:000000000002a0a8 .LASF2321
C:\Users\CYMR90~1\AppData\Local\Temp\ccZ8Xcmd.s:25588  .debug_str:0000000000013918 .LASF2322
C:\Users\CYMR90~1\AppData\Local\Temp\ccZ8Xcmd.s:23978  .debug_str:000000000000d2d1 .LASF2323
C:\Users\CYMR90~1\AppData\Local\Temp\ccZ8Xcmd.s:27349  .debug_str:000000000001ab53 .LASF2324
C:\Users\CYMR90~1\AppData\Local\Temp\ccZ8Xcmd.s:20740  .debug_str:0000000000000263 .LASF2325
C:\Users\CYMR90~1\AppData\Local\Temp\ccZ8Xcmd.s:27375  .debug_str:000000000001acfd .LASF2326
C:\Users\CYMR90~1\AppData\Local\Temp\ccZ8Xcmd.s:30091  .debug_str:000000000002586e .LASF2327
C:\Users\CYMR90~1\AppData\Local\Temp\ccZ8Xcmd.s:23512  .debug_str:000000000000b278 .LASF2328
C:\Users\CYMR90~1\AppData\Local\Temp\ccZ8Xcmd.s:28153  .debug_str:000000000001df27 .LASF2329
C:\Users\CYMR90~1\AppData\Local\Temp\ccZ8Xcmd.s:23834  .debug_str:000000000000c94b .LASF2330
C:\Users\CYMR90~1\AppData\Local\Temp\ccZ8Xcmd.s:26260  .debug_str:000000000001627d .LASF2331
C:\Users\CYMR90~1\AppData\Local\Temp\ccZ8Xcmd.s:28367  .debug_str:000000000001ebaf .LASF2332
C:\Users\CYMR90~1\AppData\Local\Temp\ccZ8Xcmd.s:25462  .debug_str:00000000000130ae .LASF2333
C:\Users\CYMR90~1\AppData\Local\Temp\ccZ8Xcmd.s:30141  .debug_str:0000000000025b54 .LASF2334
C:\Users\CYMR90~1\AppData\Local\Temp\ccZ8Xcmd.s:23556  .debug_str:000000000000b5d1 .LASF2335
C:\Users\CYMR90~1\AppData\Local\Temp\ccZ8Xcmd.s:28199  .debug_str:000000000001e1f1 .LASF2336
C:\Users\CYMR90~1\AppData\Local\Temp\ccZ8Xcmd.s:21618  .debug_str:00000000000038f2 .LASF2337
C:\Users\CYMR90~1\AppData\Local\Temp\ccZ8Xcmd.s:26318  .debug_str:000000000001664d .LASF2338
C:\Users\CYMR90~1\AppData\Local\Temp\ccZ8Xcmd.s:23394  .debug_str:000000000000aa90 .LASF2339
C:\Users\CYMR90~1\AppData\Local\Temp\ccZ8Xcmd.s:26491  .debug_str:0000000000017328 .LASF2340
C:\Users\CYMR90~1\AppData\Local\Temp\ccZ8Xcmd.s:29709  .debug_str:0000000000023d04 .LASF2341
C:\Users\CYMR90~1\AppData\Local\Temp\ccZ8Xcmd.s:21602  .debug_str:00000000000037d7 .LASF2342
C:\Users\CYMR90~1\AppData\Local\Temp\ccZ8Xcmd.s:24838  .debug_str:000000000001079a .LASF2343
C:\Users\CYMR90~1\AppData\Local\Temp\ccZ8Xcmd.s:25080  .debug_str:000000000001176c .LASF2344
C:\Users\CYMR90~1\AppData\Local\Temp\ccZ8Xcmd.s:31271  .debug_str:000000000002a2d2 .LASF2345
C:\Users\CYMR90~1\AppData\Local\Temp\ccZ8Xcmd.s:21802  .debug_str:0000000000004500 .LASF2346
C:\Users\CYMR90~1\AppData\Local\Temp\ccZ8Xcmd.s:30517  .debug_str:000000000002733d .LASF2347
C:\Users\CYMR90~1\AppData\Local\Temp\ccZ8Xcmd.s:29467  .debug_str:0000000000022e8c .LASF2348
C:\Users\CYMR90~1\AppData\Local\Temp\ccZ8Xcmd.s:30831  .debug_str:0000000000028806 .LASF2349
C:\Users\CYMR90~1\AppData\Local\Temp\ccZ8Xcmd.s:24220  .debug_str:000000000000e142 .LASF2350
C:\Users\CYMR90~1\AppData\Local\Temp\ccZ8Xcmd.s:28889  .debug_str:0000000000020c02 .LASF2351
C:\Users\CYMR90~1\AppData\Local\Temp\ccZ8Xcmd.s:22274  .debug_str:0000000000006271 .LASF2352
C:\Users\CYMR90~1\AppData\Local\Temp\ccZ8Xcmd.s:27009  .debug_str:0000000000019421 .LASF2353
C:\Users\CYMR90~1\AppData\Local\Temp\ccZ8Xcmd.s:31727  .debug_str:000000000002c089 .LASF2354
C:\Users\CYMR90~1\AppData\Local\Temp\ccZ8Xcmd.s:25088  .debug_str:00000000000117d9 .LASF2355
C:\Users\CYMR90~1\AppData\Local\Temp\ccZ8Xcmd.s:29775  .debug_str:0000000000024239 .LASF2356
C:\Users\CYMR90~1\AppData\Local\Temp\ccZ8Xcmd.s:23692  .debug_str:000000000000bf1a .LASF2357
C:\Users\CYMR90~1\AppData\Local\Temp\ccZ8Xcmd.s:28941  .debug_str:0000000000020ebd .LASF2358
C:\Users\CYMR90~1\AppData\Local\Temp\ccZ8Xcmd.s:22326  .debug_str:0000000000006565 .LASF2359
C:\Users\CYMR90~1\AppData\Local\Temp\ccZ8Xcmd.s:27055  .debug_str:000000000001978a .LASF2360
C:\Users\CYMR90~1\AppData\Local\Temp\ccZ8Xcmd.s:31779  .debug_str:000000000002c455 .LASF2361
C:\Users\CYMR90~1\AppData\Local\Temp\ccZ8Xcmd.s:25144  .debug_str:0000000000011bc7 .LASF2362
C:\Users\CYMR90~1\AppData\Local\Temp\ccZ8Xcmd.s:29825  .debug_str:000000000002453e .LASF2363
C:\Users\CYMR90~1\AppData\Local\Temp\ccZ8Xcmd.s:28631  .debug_str:000000000001fbf5 .LASF2364
C:\Users\CYMR90~1\AppData\Local\Temp\ccZ8Xcmd.s:29937  .debug_str:0000000000024cd5 .LASF2365
C:\Users\CYMR90~1\AppData\Local\Temp\ccZ8Xcmd.s:28275  .debug_str:000000000001e6a7 .LASF2366
C:\Users\CYMR90~1\AppData\Local\Temp\ccZ8Xcmd.s:26907  .debug_str:0000000000018d2f .LASF2367
C:\Users\CYMR90~1\AppData\Local\Temp\ccZ8Xcmd.s:30093  .debug_str:0000000000025887 .LASF2368
C:\Users\CYMR90~1\AppData\Local\Temp\ccZ8Xcmd.s:23456  .debug_str:000000000000af4f .LASF2369
C:\Users\CYMR90~1\AppData\Local\Temp\ccZ8Xcmd.s:25220  .debug_str:00000000000120cc .LASF2370
C:\Users\CYMR90~1\AppData\Local\Temp\ccZ8Xcmd.s:28375  .debug_str:000000000001ec2b .LASF2371
C:\Users\CYMR90~1\AppData\Local\Temp\ccZ8Xcmd.s:29865  .debug_str:000000000002483f .LASF2372
C:\Users\CYMR90~1\AppData\Local\Temp\ccZ8Xcmd.s:23460  .debug_str:000000000000af8c .LASF2373
C:\Users\CYMR90~1\AppData\Local\Temp\ccZ8Xcmd.s:29507  .debug_str:0000000000023098 .LASF2374
C:\Users\CYMR90~1\AppData\Local\Temp\ccZ8Xcmd.s:31597  .debug_str:000000000002b774 .LASF2375
C:\Users\CYMR90~1\AppData\Local\Temp\ccZ8Xcmd.s:27861  .debug_str:000000000001cc42 .LASF2376
C:\Users\CYMR90~1\AppData\Local\Temp\ccZ8Xcmd.s:21264  .debug_str:00000000000021c6 .LASF2377
C:\Users\CYMR90~1\AppData\Local\Temp\ccZ8Xcmd.s:25952  .debug_str:0000000000014fa4 .LASF2378
C:\Users\CYMR90~1\AppData\Local\Temp\ccZ8Xcmd.s:30675  .debug_str:0000000000027d03 .LASF2379
C:\Users\CYMR90~1\AppData\Local\Temp\ccZ8Xcmd.s:24062  .debug_str:000000000000d7da .LASF2380
C:\Users\CYMR90~1\AppData\Local\Temp\ccZ8Xcmd.s:28735  .debug_str:000000000002023f .LASF2381
C:\Users\CYMR90~1\AppData\Local\Temp\ccZ8Xcmd.s:26849  .debug_str:0000000000018912 .LASF2382
C:\Users\CYMR90~1\AppData\Local\Temp\ccZ8Xcmd.s:21680  .debug_str:0000000000003cc7 .LASF2383
C:\Users\CYMR90~1\AppData\Local\Temp\ccZ8Xcmd.s:21320  .debug_str:000000000000255a .LASF2384
C:\Users\CYMR90~1\AppData\Local\Temp\ccZ8Xcmd.s:25512  .debug_str:0000000000013483 .LASF2385
C:\Users\CYMR90~1\AppData\Local\Temp\ccZ8Xcmd.s:30729  .debug_str:0000000000028166 .LASF2386
C:\Users\CYMR90~1\AppData\Local\Temp\ccZ8Xcmd.s:24118  .debug_str:000000000000daee .LASF2387
C:\Users\CYMR90~1\AppData\Local\Temp\ccZ8Xcmd.s:28789  .debug_str:00000000000205dc .LASF2388
C:\Users\CYMR90~1\AppData\Local\Temp\ccZ8Xcmd.s:30959  .debug_str:0000000000028fb7 .LASF2389
C:\Users\CYMR90~1\AppData\Local\Temp\ccZ8Xcmd.s:21462  .debug_str:0000000000002e77 .LASF2390
C:\Users\CYMR90~1\AppData\Local\Temp\ccZ8Xcmd.s:26032  .debug_str:0000000000015438 .LASF2391
C:\Users\CYMR90~1\AppData\Local\Temp\ccZ8Xcmd.s:30715  .debug_str:0000000000027ffa .LASF2392
C:\Users\CYMR90~1\AppData\Local\Temp\ccZ8Xcmd.s:29055  .debug_str:000000000002163f .LASF2393
C:\Users\CYMR90~1\AppData\Local\Temp\ccZ8Xcmd.s:27461  .debug_str:000000000001b2b4 .LASF2394
C:\Users\CYMR90~1\AppData\Local\Temp\ccZ8Xcmd.s:27575  .debug_str:000000000001b93c .LASF2395
C:\Users\CYMR90~1\AppData\Local\Temp\ccZ8Xcmd.s:30803  .debug_str:0000000000028670 .LASF2396
C:\Users\CYMR90~1\AppData\Local\Temp\ccZ8Xcmd.s:22680  .debug_str:0000000000007d1e .LASF2397
C:\Users\CYMR90~1\AppData\Local\Temp\ccZ8Xcmd.s:25802  .debug_str:000000000001463c .LASF2398
C:\Users\CYMR90~1\AppData\Local\Temp\ccZ8Xcmd.s:25516  .debug_str:00000000000134b0 .LASF2399
C:\Users\CYMR90~1\AppData\Local\Temp\ccZ8Xcmd.s:30203  .debug_str:0000000000025f2b .LASF2400
C:\Users\CYMR90~1\AppData\Local\Temp\ccZ8Xcmd.s:23608  .debug_str:000000000000b906 .LASF2401
C:\Users\CYMR90~1\AppData\Local\Temp\ccZ8Xcmd.s:28251  .debug_str:000000000001e4da .LASF2402
C:\Users\CYMR90~1\AppData\Local\Temp\ccZ8Xcmd.s:21670  .debug_str:0000000000003c34 .LASF2403
C:\Users\CYMR90~1\AppData\Local\Temp\ccZ8Xcmd.s:26381  .debug_str:0000000000016cc7 .LASF2404
C:\Users\CYMR90~1\AppData\Local\Temp\ccZ8Xcmd.s:31099  .debug_str:00000000000298d2 .LASF2405
C:\Users\CYMR90~1\AppData\Local\Temp\ccZ8Xcmd.s:24482  .debug_str:000000000000f121 .LASF2406
C:\Users\CYMR90~1\AppData\Local\Temp\ccZ8Xcmd.s:22540  .debug_str:0000000000007379 .LASF2407
C:\Users\CYMR90~1\AppData\Local\Temp\ccZ8Xcmd.s:23660  .debug_str:000000000000bd06 .LASF2408
C:\Users\CYMR90~1\AppData\Local\Temp\ccZ8Xcmd.s:28301  .debug_str:000000000001e825 .LASF2409
C:\Users\CYMR90~1\AppData\Local\Temp\ccZ8Xcmd.s:21716  .debug_str:0000000000003f18 .LASF2410
C:\Users\CYMR90~1\AppData\Local\Temp\ccZ8Xcmd.s:21110  .debug_str:0000000000001940 .LASF2411
C:\Users\CYMR90~1\AppData\Local\Temp\ccZ8Xcmd.s:31153  .debug_str:0000000000029c16 .LASF2412
C:\Users\CYMR90~1\AppData\Local\Temp\ccZ8Xcmd.s:24544  .debug_str:000000000000f4eb .LASF2413
C:\Users\CYMR90~1\AppData\Local\Temp\ccZ8Xcmd.s:24260  .debug_str:000000000000e3a5 .LASF2414
C:\Users\CYMR90~1\AppData\Local\Temp\ccZ8Xcmd.s:27471  .debug_str:000000000001b362 .LASF2415
C:\Users\CYMR90~1\AppData\Local\Temp\ccZ8Xcmd.s:30685  .debug_str:0000000000027daa .LASF2416
C:\Users\CYMR90~1\AppData\Local\Temp\ccZ8Xcmd.s:22558  .debug_str:00000000000074ae .LASF2417
C:\Users\CYMR90~1\AppData\Local\Temp\ccZ8Xcmd.s:25684  .debug_str:0000000000013ecf .LASF2418
C:\Users\CYMR90~1\AppData\Local\Temp\ccZ8Xcmd.s:28887  .debug_str:0000000000020bef .LASF2419
C:\Users\CYMR90~1\AppData\Local\Temp\ccZ8Xcmd.s:31085  .debug_str:000000000002980f .LASF2420
C:\Users\CYMR90~1\AppData\Local\Temp\ccZ8Xcmd.s:24028  .debug_str:000000000000d5f0 .LASF2421
C:\Users\CYMR90~1\AppData\Local\Temp\ccZ8Xcmd.s:27253  .debug_str:000000000001a4c4 .LASF2422
C:\Users\CYMR90~1\AppData\Local\Temp\ccZ8Xcmd.s:30439  .debug_str:0000000000026dcc .LASF2423
C:\Users\CYMR90~1\AppData\Local\Temp\ccZ8Xcmd.s:30771  .debug_str:0000000000028418 .LASF2424
C:\Users\CYMR90~1\AppData\Local\Temp\ccZ8Xcmd.s:24160  .debug_str:000000000000ddb0 .LASF2425
C:\Users\CYMR90~1\AppData\Local\Temp\ccZ8Xcmd.s:28831  .debug_str:000000000002086e .LASF2426
C:\Users\CYMR90~1\AppData\Local\Temp\ccZ8Xcmd.s:22204  .debug_str:0000000000005dfd .LASF2427
C:\Users\CYMR90~1\AppData\Local\Temp\ccZ8Xcmd.s:26949  .debug_str:0000000000019099 .LASF2428
C:\Users\CYMR90~1\AppData\Local\Temp\ccZ8Xcmd.s:27715  .debug_str:000000000001c224 .LASF2429
C:\Users\CYMR90~1\AppData\Local\Temp\ccZ8Xcmd.s:25028  .debug_str:0000000000011355 .LASF2430
C:\Users\CYMR90~1\AppData\Local\Temp\ccZ8Xcmd.s:29719  .debug_str:0000000000023d6b .LASF2431
C:\Users\CYMR90~1\AppData\Local\Temp\ccZ8Xcmd.s:27801  .debug_str:000000000001c7e1 .LASF2432
C:\Users\CYMR90~1\AppData\Local\Temp\ccZ8Xcmd.s:28975  .debug_str:00000000000210c0 .LASF2433
C:\Users\CYMR90~1\AppData\Local\Temp\ccZ8Xcmd.s:22356  .debug_str:000000000000677d .LASF2434
C:\Users\CYMR90~1\AppData\Local\Temp\ccZ8Xcmd.s:27081  .debug_str:0000000000019941 .LASF2435
C:\Users\CYMR90~1\AppData\Local\Temp\ccZ8Xcmd.s:31807  .debug_str:000000000002c600 .LASF2436
C:\Users\CYMR90~1\AppData\Local\Temp\ccZ8Xcmd.s:25168  .debug_str:0000000000011d35 .LASF2437
C:\Users\CYMR90~1\AppData\Local\Temp\ccZ8Xcmd.s:29847  .debug_str:0000000000024699 .LASF2438
C:\Users\CYMR90~1\AppData\Local\Temp\ccZ8Xcmd.s:25366  .debug_str:0000000000012a43 .LASF2439
C:\Users\CYMR90~1\AppData\Local\Temp\ccZ8Xcmd.s:21552  .debug_str:0000000000003494 .LASF2440
C:\Users\CYMR90~1\AppData\Local\Temp\ccZ8Xcmd.s:26745  .debug_str:000000000001829a .LASF2441
C:\Users\CYMR90~1\AppData\Local\Temp\ccZ8Xcmd.s:23100  .debug_str:000000000000987c .LASF2442
C:\Users\CYMR90~1\AppData\Local\Temp\ccZ8Xcmd.s:21878  .debug_str:0000000000004a61 .LASF2443
C:\Users\CYMR90~1\AppData\Local\Temp\ccZ8Xcmd.s:30161  .debug_str:0000000000025c81 .LASF2444
C:\Users\CYMR90~1\AppData\Local\Temp\ccZ8Xcmd.s:26160  .debug_str:0000000000015c1b .LASF2445
C:\Users\CYMR90~1\AppData\Local\Temp\ccZ8Xcmd.s:25922  .debug_str:0000000000014de2 .LASF2446
C:\Users\CYMR90~1\AppData\Local\Temp\ccZ8Xcmd.s:26302  .debug_str:0000000000016556 .LASF2447
C:\Users\CYMR90~1\AppData\Local\Temp\ccZ8Xcmd.s:23164  .debug_str:0000000000009c5c .LASF2448
C:\Users\CYMR90~1\AppData\Local\Temp\ccZ8Xcmd.s:22404  .debug_str:0000000000006a7b .LASF2449
C:\Users\CYMR90~1\AppData\Local\Temp\ccZ8Xcmd.s:30909  .debug_str:0000000000028c82 .LASF2450
C:\Users\CYMR90~1\AppData\Local\Temp\ccZ8Xcmd.s:20814  .debug_str:000000000000066b .LASF2451
C:\Users\CYMR90~1\AppData\Local\Temp\ccZ8Xcmd.s:22578  .debug_str:00000000000075f0 .LASF2452
C:\Users\CYMR90~1\AppData\Local\Temp\ccZ8Xcmd.s:21596  .debug_str:0000000000003784 .LASF2453
C:\Users\CYMR90~1\AppData\Local\Temp\ccZ8Xcmd.s:30055  .debug_str:0000000000025582 .LASF2454
C:\Users\CYMR90~1\AppData\Local\Temp\ccZ8Xcmd.s:25170  .debug_str:0000000000011d4a .LASF2455
C:\Users\CYMR90~1\AppData\Local\Temp\ccZ8Xcmd.s:23940  .debug_str:000000000000cfc6 .LASF2456
C:\Users\CYMR90~1\AppData\Local\Temp\ccZ8Xcmd.s:28567  .debug_str:000000000001f7e7 .LASF2457
C:\Users\CYMR90~1\AppData\Local\Temp\ccZ8Xcmd.s:27683  .debug_str:000000000001c04d .LASF2458
C:\Users\CYMR90~1\AppData\Local\Temp\ccZ8Xcmd.s:21642  .debug_str:0000000000003a58 .LASF2459
C:\Users\CYMR90~1\AppData\Local\Temp\ccZ8Xcmd.s:30211  .debug_str:0000000000025fbb .LASF2460
C:\Users\CYMR90~1\AppData\Local\Temp\ccZ8Xcmd.s:23916  .debug_str:000000000000ce53 .LASF2461
C:\Users\CYMR90~1\AppData\Local\Temp\ccZ8Xcmd.s:23006  .debug_str:0000000000009231 .LASF2462
C:\Users\CYMR90~1\AppData\Local\Temp\ccZ8Xcmd.s:21972  .debug_str:0000000000004ff7 .LASF2463
C:\Users\CYMR90~1\AppData\Local\Temp\ccZ8Xcmd.s:30557  .debug_str:0000000000027552 .LASF2464
C:\Users\CYMR90~1\AppData\Local\Temp\ccZ8Xcmd.s:30859  .debug_str:00000000000289d6 .LASF2465
C:\Users\CYMR90~1\AppData\Local\Temp\ccZ8Xcmd.s:25026  .debug_str:0000000000011333 .LASF2466
C:\Users\CYMR90~1\AppData\Local\Temp\ccZ8Xcmd.s:28925  .debug_str:0000000000020df5 .LASF2467
C:\Users\CYMR90~1\AppData\Local\Temp\ccZ8Xcmd.s:26076  .debug_str:00000000000156b7 .LASF2468
C:\Users\CYMR90~1\AppData\Local\Temp\ccZ8Xcmd.s:26645  .debug_str:0000000000017ccf .LASF2469
C:\Users\CYMR90~1\AppData\Local\Temp\ccZ8Xcmd.s:25494  .debug_str:000000000001334c .LASF2470
C:\Users\CYMR90~1\AppData\Local\Temp\ccZ8Xcmd.s:25978  .debug_str:000000000001516b .LASF2471
C:\Users\CYMR90~1\AppData\Local\Temp\ccZ8Xcmd.s:24694  .debug_str:000000000000fee8 .LASF2472
C:\Users\CYMR90~1\AppData\Local\Temp\ccZ8Xcmd.s:24978  .debug_str:0000000000011040 .LASF2473
C:\Users\CYMR90~1\AppData\Local\Temp\ccZ8Xcmd.s:24068  .debug_str:000000000000d82d .LASF2474
C:\Users\CYMR90~1\AppData\Local\Temp\ccZ8Xcmd.s:23078  .debug_str:00000000000096b5 .LASF2475
C:\Users\CYMR90~1\AppData\Local\Temp\ccZ8Xcmd.s:31563  .debug_str:000000000002b54a .LASF2476
C:\Users\CYMR90~1\AppData\Local\Temp\ccZ8Xcmd.s:24718  .debug_str:0000000000010075 .LASF2477
C:\Users\CYMR90~1\AppData\Local\Temp\ccZ8Xcmd.s:30903  .debug_str:0000000000028c21 .LASF2478
C:\Users\CYMR90~1\AppData\Local\Temp\ccZ8Xcmd.s:29611  .debug_str:000000000002373f .LASF2479
C:\Users\CYMR90~1\AppData\Local\Temp\ccZ8Xcmd.s:26473  .debug_str:000000000001722f .LASF2480
C:\Users\CYMR90~1\AppData\Local\Temp\ccZ8Xcmd.s:26094  .debug_str:00000000000157ed .LASF2481
C:\Users\CYMR90~1\AppData\Local\Temp\ccZ8Xcmd.s:26230  .debug_str:00000000000160e3 .LASF2482
C:\Users\CYMR90~1\AppData\Local\Temp\ccZ8Xcmd.s:22248  .debug_str:00000000000060ce .LASF2483
C:\Users\CYMR90~1\AppData\Local\Temp\ccZ8Xcmd.s:23932  .debug_str:000000000000cf57 .LASF2484
C:\Users\CYMR90~1\AppData\Local\Temp\ccZ8Xcmd.s:28347  .debug_str:000000000001ea72 .LASF2485
C:\Users\CYMR90~1\AppData\Local\Temp\ccZ8Xcmd.s:22480  .debug_str:0000000000006f98 .LASF2486
C:\Users\CYMR90~1\AppData\Local\Temp\ccZ8Xcmd.s:20956  .debug_str:0000000000000f93 .LASF2487
C:\Users\CYMR90~1\AppData\Local\Temp\ccZ8Xcmd.s:27339  .debug_str:000000000001aacf .LASF2488
C:\Users\CYMR90~1\AppData\Local\Temp\ccZ8Xcmd.s:23340  .debug_str:000000000000a729 .LASF2489
C:\Users\CYMR90~1\AppData\Local\Temp\ccZ8Xcmd.s:26210  .debug_str:0000000000015fac .LASF2490
C:\Users\CYMR90~1\AppData\Local\Temp\ccZ8Xcmd.s:23658  .debug_str:000000000000bcee .LASF2491
C:\Users\CYMR90~1\AppData\Local\Temp\ccZ8Xcmd.s:23784  .debug_str:000000000000c4bf .LASF2492
C:\Users\CYMR90~1\AppData\Local\Temp\ccZ8Xcmd.s:27725  .debug_str:000000000001c29d .LASF2493
C:\Users\CYMR90~1\AppData\Local\Temp\ccZ8Xcmd.s:21914  .debug_str:0000000000004c91 .LASF2494
C:\Users\CYMR90~1\AppData\Local\Temp\ccZ8Xcmd.s:27583  .debug_str:000000000001b9a2 .LASF2495
C:\Users\CYMR90~1\AppData\Local\Temp\ccZ8Xcmd.s:26080  .debug_str:0000000000015720 .LASF2496
C:\Users\CYMR90~1\AppData\Local\Temp\ccZ8Xcmd.s:31051  .debug_str:00000000000295fb .LASF2497
C:\Users\CYMR90~1\AppData\Local\Temp\ccZ8Xcmd.s:29213  .debug_str:0000000000021fa6 .LASF2498
C:\Users\CYMR90~1\AppData\Local\Temp\ccZ8Xcmd.s:21884  .debug_str:0000000000004ac6 .LASF2499
C:\Users\CYMR90~1\AppData\Local\Temp\ccZ8Xcmd.s:20968  .debug_str:000000000000103a .LASF2500
C:\Users\CYMR90~1\AppData\Local\Temp\ccZ8Xcmd.s:31329  .debug_str:000000000002a6b0 .LASF2501
C:\Users\CYMR90~1\AppData\Local\Temp\ccZ8Xcmd.s:20910  .debug_str:0000000000000c6e .LASF2502
C:\Users\CYMR90~1\AppData\Local\Temp\ccZ8Xcmd.s:22598  .debug_str:0000000000007734 .LASF2503
C:\Users\CYMR90~1\AppData\Local\Temp\ccZ8Xcmd.s:30279  .debug_str:00000000000263a1 .LASF2504
C:\Users\CYMR90~1\AppData\Local\Temp\ccZ8Xcmd.s:25344  .debug_str:0000000000012906 .LASF2505
C:\Users\CYMR90~1\AppData\Local\Temp\ccZ8Xcmd.s:23134  .debug_str:0000000000009aa5 .LASF2506
C:\Users\CYMR90~1\AppData\Local\Temp\ccZ8Xcmd.s:29225  .debug_str:0000000000022059 .LASF2507
C:\Users\CYMR90~1\AppData\Local\Temp\ccZ8Xcmd.s:27593  .debug_str:000000000001ba72 .LASF2508
C:\Users\CYMR90~1\AppData\Local\Temp\ccZ8Xcmd.s:26737  .debug_str:0000000000018232 .LASF2509
C:\Users\CYMR90~1\AppData\Local\Temp\ccZ8Xcmd.s:28299  .debug_str:000000000001e803 .LASF2510
C:\Users\CYMR90~1\AppData\Local\Temp\ccZ8Xcmd.s:31897  .debug_str:000000000002cbba .LASF2511
C:\Users\CYMR90~1\AppData\Local\Temp\ccZ8Xcmd.s:21136  .debug_str:0000000000001aaf .LASF2512
C:\Users\CYMR90~1\AppData\Local\Temp\ccZ8Xcmd.s:25600  .debug_str:00000000000139e0 .LASF2513
C:\Users\CYMR90~1\AppData\Local\Temp\ccZ8Xcmd.s:29187  .debug_str:0000000000021e1d .LASF2514
C:\Users\CYMR90~1\AppData\Local\Temp\ccZ8Xcmd.s:31677  .debug_str:000000000002bcec .LASF2515
C:\Users\CYMR90~1\AppData\Local\Temp\ccZ8Xcmd.s:25032  .debug_str:0000000000011399 .LASF2516
C:\Users\CYMR90~1\AppData\Local\Temp\ccZ8Xcmd.s:24368  .debug_str:000000000000eab8 .LASF2517
C:\Users\CYMR90~1\AppData\Local\Temp\ccZ8Xcmd.s:27845  .debug_str:000000000001ca9d .LASF2518
C:\Users\CYMR90~1\AppData\Local\Temp\ccZ8Xcmd.s:27117  .debug_str:0000000000019b75 .LASF2519
C:\Users\CYMR90~1\AppData\Local\Temp\ccZ8Xcmd.s:21932  .debug_str:0000000000004dac .LASF2520
C:\Users\CYMR90~1\AppData\Local\Temp\ccZ8Xcmd.s:21848  .debug_str:000000000000489f .LASF2521
C:\Users\CYMR90~1\AppData\Local\Temp\ccZ8Xcmd.s:31929  .debug_str:000000000002ce21 .LASF2522
C:\Users\CYMR90~1\AppData\Local\Temp\ccZ8Xcmd.s:28475  .debug_str:000000000001f270 .LASF2523
C:\Users\CYMR90~1\AppData\Local\Temp\ccZ8Xcmd.s:22754  .debug_str:00000000000082ac .LASF2524
C:\Users\CYMR90~1\AppData\Local\Temp\ccZ8Xcmd.s:22742  .debug_str:000000000000820b .LASF2525
C:\Users\CYMR90~1\AppData\Local\Temp\ccZ8Xcmd.s:30099  .debug_str:00000000000258e1 .LASF2526
C:\Users\CYMR90~1\AppData\Local\Temp\ccZ8Xcmd.s:24992  .debug_str:000000000001111e .LASF2527
C:\Users\CYMR90~1\AppData\Local\Temp\ccZ8Xcmd.s:26228  .debug_str:00000000000160bf .LASF2528
C:\Users\CYMR90~1\AppData\Local\Temp\ccZ8Xcmd.s:27537  .debug_str:000000000001b75f .LASF2529
C:\Users\CYMR90~1\AppData\Local\Temp\ccZ8Xcmd.s:30837  .debug_str:0000000000028895 .LASF2530
C:\Users\CYMR90~1\AppData\Local\Temp\ccZ8Xcmd.s:29061  .debug_str:00000000000216ad .LASF2531
C:\Users\CYMR90~1\AppData\Local\Temp\ccZ8Xcmd.s:28089  .debug_str:000000000001daa2 .LASF2532
C:\Users\CYMR90~1\AppData\Local\Temp\ccZ8Xcmd.s:27093  .debug_str:0000000000019a16 .LASF2533
C:\Users\CYMR90~1\AppData\Local\Temp\ccZ8Xcmd.s:26186  .debug_str:0000000000015de9 .LASF2534
C:\Users\CYMR90~1\AppData\Local\Temp\ccZ8Xcmd.s:25256  .debug_str:0000000000012310 .LASF2535
C:\Users\CYMR90~1\AppData\Local\Temp\ccZ8Xcmd.s:29453  .debug_str:0000000000022dcf .LASF2536
C:\Users\CYMR90~1\AppData\Local\Temp\ccZ8Xcmd.s:26010  .debug_str:000000000001531f .LASF2537
C:\Users\CYMR90~1\AppData\Local\Temp\ccZ8Xcmd.s:21780  .debug_str:000000000000437d .LASF2538
C:\Users\CYMR90~1\AppData\Local\Temp\ccZ8Xcmd.s:21486  .debug_str:0000000000003022 .LASF2539
C:\Users\CYMR90~1\AppData\Local\Temp\ccZ8Xcmd.s:23008  .debug_str:0000000000009253 .LASF2540
C:\Users\CYMR90~1\AppData\Local\Temp\ccZ8Xcmd.s:20906  .debug_str:0000000000000c37 .LASF2541
C:\Users\CYMR90~1\AppData\Local\Temp\ccZ8Xcmd.s:24156  .debug_str:000000000000dd72 .LASF2542
C:\Users\CYMR90~1\AppData\Local\Temp\ccZ8Xcmd.s:22814  .debug_str:0000000000008637 .LASF2543
C:\Users\CYMR90~1\AppData\Local\Temp\ccZ8Xcmd.s:21184  .debug_str:0000000000001d8c .LASF2544
C:\Users\CYMR90~1\AppData\Local\Temp\ccZ8Xcmd.s:23622  .debug_str:000000000000b9e6 .LASF2545
C:\Users\CYMR90~1\AppData\Local\Temp\ccZ8Xcmd.s:21008  .debug_str:000000000000126e .LASF2546
C:\Users\CYMR90~1\AppData\Local\Temp\ccZ8Xcmd.s:27225  .debug_str:000000000001a351 .LASF2547
C:\Users\CYMR90~1\AppData\Local\Temp\ccZ8Xcmd.s:27007  .debug_str:0000000000019410 .LASF2548
C:\Users\CYMR90~1\AppData\Local\Temp\ccZ8Xcmd.s:25522  .debug_str:000000000001351d .LASF2549
C:\Users\CYMR90~1\AppData\Local\Temp\ccZ8Xcmd.s:30737  .debug_str:00000000000281e0 .LASF2550
C:\Users\CYMR90~1\AppData\Local\Temp\ccZ8Xcmd.s:23202  .debug_str:0000000000009ed2 .LASF2551
C:\Users\CYMR90~1\AppData\Local\Temp\ccZ8Xcmd.s:27267  .debug_str:000000000001a5b1 .LASF2552
C:\Users\CYMR90~1\AppData\Local\Temp\ccZ8Xcmd.s:27895  .debug_str:000000000001ceda .LASF2553
C:\Users\CYMR90~1\AppData\Local\Temp\ccZ8Xcmd.s:26405  .debug_str:0000000000016e45 .LASF2554
C:\Users\CYMR90~1\AppData\Local\Temp\ccZ8Xcmd.s:30329  .debug_str:000000000002670f .LASF2555
C:\Users\CYMR90~1\AppData\Local\Temp\ccZ8Xcmd.s:25466  .debug_str:00000000000130df .LASF2556
C:\Users\CYMR90~1\AppData\Local\Temp\ccZ8Xcmd.s:20778  .debug_str:000000000000046e .LASF2557
C:\Users\CYMR90~1\AppData\Local\Temp\ccZ8Xcmd.s:21248  .debug_str:00000000000020c8 .LASF2558
C:\Users\CYMR90~1\AppData\Local\Temp\ccZ8Xcmd.s:26040  .debug_str:00000000000154a8 .LASF2559
C:\Users\CYMR90~1\AppData\Local\Temp\ccZ8Xcmd.s:20894  .debug_str:0000000000000b96 .LASF2560
C:\Users\CYMR90~1\AppData\Local\Temp\ccZ8Xcmd.s:27993  .debug_str:000000000001d528 .LASF2561
C:\Users\CYMR90~1\AppData\Local\Temp\ccZ8Xcmd.s:23332  .debug_str:000000000000a6b9 .LASF2562
C:\Users\CYMR90~1\AppData\Local\Temp\ccZ8Xcmd.s:29895  .debug_str:0000000000024a15 .LASF2563
C:\Users\CYMR90~1\AppData\Local\Temp\ccZ8Xcmd.s:22030  .debug_str:000000000000538b .LASF2564
C:\Users\CYMR90~1\AppData\Local\Temp\ccZ8Xcmd.s:21644  .debug_str:0000000000003a7a .LASF2565
C:\Users\CYMR90~1\AppData\Local\Temp\ccZ8Xcmd.s:25730  .debug_str:00000000000141b8 .LASF2566
C:\Users\CYMR90~1\AppData\Local\Temp\ccZ8Xcmd.s:23696  .debug_str:000000000000bf4e .LASF2567
C:\Users\CYMR90~1\AppData\Local\Temp\ccZ8Xcmd.s:28461  .debug_str:000000000001f184 .LASF2568
C:\Users\CYMR90~1\AppData\Local\Temp\ccZ8Xcmd.s:24244  .debug_str:000000000000e29c .LASF2569
C:\Users\CYMR90~1\AppData\Local\Temp\ccZ8Xcmd.s:28263  .debug_str:000000000001e5bb .LASF2570
C:\Users\CYMR90~1\AppData\Local\Temp\ccZ8Xcmd.s:31881  .debug_str:000000000002cae4 .LASF2571
C:\Users\CYMR90~1\AppData\Local\Temp\ccZ8Xcmd.s:22146  .debug_str:0000000000005a82 .LASF2572
C:\Users\CYMR90~1\AppData\Local\Temp\ccZ8Xcmd.s:27251  .debug_str:000000000001a4a6 .LASF2573
C:\Users\CYMR90~1\AppData\Local\Temp\ccZ8Xcmd.s:23416  .debug_str:000000000000ac05 .LASF2574
C:\Users\CYMR90~1\AppData\Local\Temp\ccZ8Xcmd.s:30035  .debug_str:00000000000253e9 .LASF2575
C:\Users\CYMR90~1\AppData\Local\Temp\ccZ8Xcmd.s:21436  .debug_str:0000000000002cdc .LASF2576
C:\Users\CYMR90~1\AppData\Local\Temp\ccZ8Xcmd.s:31765  .debug_str:000000000002c31c .LASF2577
C:\Users\CYMR90~1\AppData\Local\Temp\ccZ8Xcmd.s:21040  .debug_str:0000000000001448 .LASF2578
C:\Users\CYMR90~1\AppData\Local\Temp\ccZ8Xcmd.s:29217  .debug_str:0000000000021fd9 .LASF2579
C:\Users\CYMR90~1\AppData\Local\Temp\ccZ8Xcmd.s:29227  .debug_str:000000000002207d .LASF2580
C:\Users\CYMR90~1\AppData\Local\Temp\ccZ8Xcmd.s:25620  .debug_str:0000000000013b29 .LASF2581
C:\Users\CYMR90~1\AppData\Local\Temp\ccZ8Xcmd.s:25410  .debug_str:0000000000012d2e .LASF2582
C:\Users\CYMR90~1\AppData\Local\Temp\ccZ8Xcmd.s:28257  .debug_str:000000000001e550 .LASF2583
C:\Users\CYMR90~1\AppData\Local\Temp\ccZ8Xcmd.s:23544  .debug_str:000000000000b4ea .LASF2584
C:\Users\CYMR90~1\AppData\Local\Temp\ccZ8Xcmd.s:22412  .debug_str:0000000000006b0a .LASF2585
C:\Users\CYMR90~1\AppData\Local\Temp\ccZ8Xcmd.s:28565  .debug_str:000000000001f7b9 .LASF2586
C:\Users\CYMR90~1\AppData\Local\Temp\ccZ8Xcmd.s:31107  .debug_str:0000000000029939 .LASF2587
C:\Users\CYMR90~1\AppData\Local\Temp\ccZ8Xcmd.s:26559  .debug_str:0000000000017794 .LASF2588
C:\Users\CYMR90~1\AppData\Local\Temp\ccZ8Xcmd.s:27913  .debug_str:000000000001cfff .LASF2589
C:\Users\CYMR90~1\AppData\Local\Temp\ccZ8Xcmd.s:28473  .debug_str:000000000001f244 .LASF2590
C:\Users\CYMR90~1\AppData\Local\Temp\ccZ8Xcmd.s:24070  .debug_str:000000000000d850 .LASF2591
C:\Users\CYMR90~1\AppData\Local\Temp\ccZ8Xcmd.s:27429  .debug_str:000000000001b0c5 .LASF2592
C:\Users\CYMR90~1\AppData\Local\Temp\ccZ8Xcmd.s:31481  .debug_str:000000000002afb9 .LASF2593
C:\Users\CYMR90~1\AppData\Local\Temp\ccZ8Xcmd.s:21944  .debug_str:0000000000004e5c .LASF2594
C:\Users\CYMR90~1\AppData\Local\Temp\ccZ8Xcmd.s:22570  .debug_str:000000000000756a .LASF2595
C:\Users\CYMR90~1\AppData\Local\Temp\ccZ8Xcmd.s:30919  .debug_str:0000000000028d57 .LASF2596
C:\Users\CYMR90~1\AppData\Local\Temp\ccZ8Xcmd.s:24842  .debug_str:00000000000107cb .LASF2597
C:\Users\CYMR90~1\AppData\Local\Temp\ccZ8Xcmd.s:29971  .debug_str:0000000000024ebb .LASF2598
C:\Users\CYMR90~1\AppData\Local\Temp\ccZ8Xcmd.s:23924  .debug_str:000000000000cec9 .LASF2599
C:\Users\CYMR90~1\AppData\Local\Temp\ccZ8Xcmd.s:29119  .debug_str:0000000000021a15 .LASF2600
C:\Users\CYMR90~1\AppData\Local\Temp\ccZ8Xcmd.s:29369  .debug_str:00000000000228ae .LASF2601
C:\Users\CYMR90~1\AppData\Local\Temp\ccZ8Xcmd.s:25020  .debug_str:00000000000112e9 .LASF2602
C:\Users\CYMR90~1\AppData\Local\Temp\ccZ8Xcmd.s:21626  .debug_str:000000000000397c .LASF2603
C:\Users\CYMR90~1\AppData\Local\Temp\ccZ8Xcmd.s:26891  .debug_str:0000000000018c23 .LASF2604
C:\Users\CYMR90~1\AppData\Local\Temp\ccZ8Xcmd.s:20824  .debug_str:0000000000000714 .LASF2605
C:\Users\CYMR90~1\AppData\Local\Temp\ccZ8Xcmd.s:28657  .debug_str:000000000001fdad .LASF2606
C:\Users\CYMR90~1\AppData\Local\Temp\ccZ8Xcmd.s:30827  .debug_str:00000000000287d4 .LASF2607
C:\Users\CYMR90~1\AppData\Local\Temp\ccZ8Xcmd.s:22708  .debug_str:0000000000007f9a .LASF2608
C:\Users\CYMR90~1\AppData\Local\Temp\ccZ8Xcmd.s:23350  .debug_str:000000000000a7c7 .LASF2609
C:\Users\CYMR90~1\AppData\Local\Temp\ccZ8Xcmd.s:29111  .debug_str:00000000000219aa .LASF2610
C:\Users\CYMR90~1\AppData\Local\Temp\ccZ8Xcmd.s:20958  .debug_str:0000000000000fa5 .LASF2611
C:\Users\CYMR90~1\AppData\Local\Temp\ccZ8Xcmd.s:24170  .debug_str:000000000000de37 .LASF2612
C:\Users\CYMR90~1\AppData\Local\Temp\ccZ8Xcmd.s:27397  .debug_str:000000000001aed1 .LASF2613
C:\Users\CYMR90~1\AppData\Local\Temp\ccZ8Xcmd.s:30581  .debug_str:00000000000276a7 .LASF2614
C:\Users\CYMR90~1\AppData\Local\Temp\ccZ8Xcmd.s:22458  .debug_str:0000000000006e0b .LASF2615
C:\Users\CYMR90~1\AppData\Local\Temp\ccZ8Xcmd.s:25676  .debug_str:0000000000013e40 .LASF2616
C:\Users\CYMR90~1\AppData\Local\Temp\ccZ8Xcmd.s:22140  .debug_str:0000000000005a32 .LASF2617
C:\Users\CYMR90~1\AppData\Local\Temp\ccZ8Xcmd.s:26887  .debug_str:0000000000018bfb .LASF2618
C:\Users\CYMR90~1\AppData\Local\Temp\ccZ8Xcmd.s:31607  .debug_str:000000000002b85d .LASF2619
C:\Users\CYMR90~1\AppData\Local\Temp\ccZ8Xcmd.s:24970  .debug_str:0000000000010fc7 .LASF2620
C:\Users\CYMR90~1\AppData\Local\Temp\ccZ8Xcmd.s:28469  .debug_str:000000000001f205 .LASF2621
C:\Users\CYMR90~1\AppData\Local\Temp\ccZ8Xcmd.s:23056  .debug_str:000000000000956a .LASF2622
C:\Users\CYMR90~1\AppData\Local\Temp\ccZ8Xcmd.s:23428  .debug_str:000000000000ad8e .LASF2623
C:\Users\CYMR90~1\AppData\Local\Temp\ccZ8Xcmd.s:24078  .debug_str:000000000000d8e0 .LASF2624
C:\Users\CYMR90~1\AppData\Local\Temp\ccZ8Xcmd.s:29363  .debug_str:0000000000022848 .LASF2625
C:\Users\CYMR90~1\AppData\Local\Temp\ccZ8Xcmd.s:26613  .debug_str:0000000000017aef .LASF2626
C:\Users\CYMR90~1\AppData\Local\Temp\ccZ8Xcmd.s:21862  .debug_str:000000000000496e .LASF2627
C:\Users\CYMR90~1\AppData\Local\Temp\ccZ8Xcmd.s:23302  .debug_str:000000000000a4cc .LASF2628
C:\Users\CYMR90~1\AppData\Local\Temp\ccZ8Xcmd.s:28491  .debug_str:000000000001f36d .LASF2629
C:\Users\CYMR90~1\AppData\Local\Temp\ccZ8Xcmd.s:22426  .debug_str:0000000000006c15 .LASF2630
C:\Users\CYMR90~1\AppData\Local\Temp\ccZ8Xcmd.s:27597  .debug_str:000000000001bac1 .LASF2631
C:\Users\CYMR90~1\AppData\Local\Temp\ccZ8Xcmd.s:23782  .debug_str:000000000000c4a3 .LASF2632
C:\Users\CYMR90~1\AppData\Local\Temp\ccZ8Xcmd.s:23528  .debug_str:000000000000b3db .LASF2633
C:\Users\CYMR90~1\AppData\Local\Temp\ccZ8Xcmd.s:28731  .debug_str:00000000000201fe .LASF2634
C:\Users\CYMR90~1\AppData\Local\Temp\ccZ8Xcmd.s:22662  .debug_str:0000000000007be9 .LASF2635
C:\Users\CYMR90~1\AppData\Local\Temp\ccZ8Xcmd.s:27813  .debug_str:000000000001c881 .LASF2636
C:\Users\CYMR90~1\AppData\Local\Temp\ccZ8Xcmd.s:21738  .debug_str:000000000000410b .LASF2637
C:\Users\CYMR90~1\AppData\Local\Temp\ccZ8Xcmd.s:29625  .debug_str:000000000002381f .LASF2638
C:\Users\CYMR90~1\AppData\Local\Temp\ccZ8Xcmd.s:26919  .debug_str:0000000000018dcb .LASF2639
C:\Users\CYMR90~1\AppData\Local\Temp\ccZ8Xcmd.s:21210  .debug_str:0000000000001ee1 .LASF2640
C:\Users\CYMR90~1\AppData\Local\Temp\ccZ8Xcmd.s:21558  .debug_str:00000000000034dd .LASF2641
C:\Users\CYMR90~1\AppData\Local\Temp\ccZ8Xcmd.s:30103  .debug_str:0000000000025924 .LASF2642
C:\Users\CYMR90~1\AppData\Local\Temp\ccZ8Xcmd.s:27455  .debug_str:000000000001b25b .LASF2643
C:\Users\CYMR90~1\AppData\Local\Temp\ccZ8Xcmd.s:26601  .debug_str:0000000000017a51 .LASF2644
C:\Users\CYMR90~1\AppData\Local\Temp\ccZ8Xcmd.s:31793  .debug_str:000000000002c535 .LASF2645
C:\Users\CYMR90~1\AppData\Local\Temp\ccZ8Xcmd.s:25674  .debug_str:0000000000013e26 .LASF2646
C:\Users\CYMR90~1\AppData\Local\Temp\ccZ8Xcmd.s:30943  .debug_str:0000000000028ebe .LASF2647
C:\Users\CYMR90~1\AppData\Local\Temp\ccZ8Xcmd.s:24778  .debug_str:0000000000010405 .LASF2648
C:\Users\CYMR90~1\AppData\Local\Temp\ccZ8Xcmd.s:27355  .debug_str:000000000001abbe .LASF2649
C:\Users\CYMR90~1\AppData\Local\Temp\ccZ8Xcmd.s:21242  .debug_str:000000000000207d .LASF2650
C:\Users\CYMR90~1\AppData\Local\Temp\ccZ8Xcmd.s:26399  .debug_str:0000000000016e00 .LASF2651
C:\Users\CYMR90~1\AppData\Local\Temp\ccZ8Xcmd.s:25710  .debug_str:000000000001408a .LASF2652
C:\Users\CYMR90~1\AppData\Local\Temp\ccZ8Xcmd.s:25478  .debug_str:00000000000131db .LASF2653
C:\Users\CYMR90~1\AppData\Local\Temp\ccZ8Xcmd.s:24372  .debug_str:000000000000eae9 .LASF2654
C:\Users\CYMR90~1\AppData\Local\Temp\ccZ8Xcmd.s:31483  .debug_str:000000000002afd1 .LASF2655
C:\Users\CYMR90~1\AppData\Local\Temp\ccZ8Xcmd.s:23368  .debug_str:000000000000a8e0 .LASF2656
C:\Users\CYMR90~1\AppData\Local\Temp\ccZ8Xcmd.s:26557  .debug_str:000000000001777b .LASF2657
C:\Users\CYMR90~1\AppData\Local\Temp\ccZ8Xcmd.s:29771  .debug_str:00000000000241d2 .LASF2658
C:\Users\CYMR90~1\AppData\Local\Temp\ccZ8Xcmd.s:21666  .debug_str:0000000000003c04 .LASF2659
C:\Users\CYMR90~1\AppData\Local\Temp\ccZ8Xcmd.s:24904  .debug_str:0000000000010c2d .LASF2660
C:\Users\CYMR90~1\AppData\Local\Temp\ccZ8Xcmd.s:28065  .debug_str:000000000001d93b .LASF2661
C:\Users\CYMR90~1\AppData\Local\Temp\ccZ8Xcmd.s:31241  .debug_str:000000000002a126 .LASF2662
C:\Users\CYMR90~1\AppData\Local\Temp\ccZ8Xcmd.s:23130  .debug_str:0000000000009a70 .LASF2663
C:\Users\CYMR90~1\AppData\Local\Temp\ccZ8Xcmd.s:26320  .debug_str:0000000000016666 .LASF2664
C:\Users\CYMR90~1\AppData\Local\Temp\ccZ8Xcmd.s:28303  .debug_str:000000000001e840 .LASF2665
C:\Users\CYMR90~1\AppData\Local\Temp\ccZ8Xcmd.s:21718  .debug_str:0000000000003f33 .LASF2666
C:\Users\CYMR90~1\AppData\Local\Temp\ccZ8Xcmd.s:26429  .debug_str:0000000000016fad .LASF2667
C:\Users\CYMR90~1\AppData\Local\Temp\ccZ8Xcmd.s:31155  .debug_str:0000000000029c31 .LASF2668
C:\Users\CYMR90~1\AppData\Local\Temp\ccZ8Xcmd.s:24546  .debug_str:000000000000f506 .LASF2669
C:\Users\CYMR90~1\AppData\Local\Temp\ccZ8Xcmd.s:29205  .debug_str:0000000000021f53 .LASF2670
C:\Users\CYMR90~1\AppData\Local\Temp\ccZ8Xcmd.s:22584  .debug_str:0000000000007661 .LASF2671
C:\Users\CYMR90~1\AppData\Local\Temp\ccZ8Xcmd.s:25804  .debug_str:0000000000014655 .LASF2672
C:\Users\CYMR90~1\AppData\Local\Temp\ccZ8Xcmd.s:28913  .debug_str:0000000000020d59 .LASF2673
C:\Users\CYMR90~1\AppData\Local\Temp\ccZ8Xcmd.s:20858  .debug_str:00000000000008ff .LASF2674
C:\Users\CYMR90~1\AppData\Local\Temp\ccZ8Xcmd.s:24058  .debug_str:000000000000d7a3 .LASF2675
C:\Users\CYMR90~1\AppData\Local\Temp\ccZ8Xcmd.s:26130  .debug_str:0000000000015a22 .LASF2676
C:\Users\CYMR90~1\AppData\Local\Temp\ccZ8Xcmd.s:30465  .debug_str:0000000000026f30 .LASF2677
C:\Users\CYMR90~1\AppData\Local\Temp\ccZ8Xcmd.s:22344  .debug_str:00000000000066ca .LASF2678
C:\Users\CYMR90~1\AppData\Local\Temp\ccZ8Xcmd.s:25576  .debug_str:0000000000013850 .LASF2679
C:\Users\CYMR90~1\AppData\Local\Temp\ccZ8Xcmd.s:28775  .debug_str:0000000000020530 .LASF2680
C:\Users\CYMR90~1\AppData\Local\Temp\ccZ8Xcmd.s:26110  .debug_str:00000000000158dd .LASF2681
C:\Users\CYMR90~1\AppData\Local\Temp\ccZ8Xcmd.s:30841  .debug_str:00000000000288c7 .LASF2682
C:\Users\CYMR90~1\AppData\Local\Temp\ccZ8Xcmd.s:24228  .debug_str:000000000000e1cc .LASF2683
C:\Users\CYMR90~1\AppData\Local\Temp\ccZ8Xcmd.s:22282  .debug_str:00000000000062db .LASF2684
C:\Users\CYMR90~1\AppData\Local\Temp\ccZ8Xcmd.s:27019  .debug_str:00000000000194bc .LASF2685
C:\Users\CYMR90~1\AppData\Local\Temp\ccZ8Xcmd.s:25534  .debug_str:00000000000135dd .LASF2686
C:\Users\CYMR90~1\AppData\Local\Temp\ccZ8Xcmd.s:28721  .debug_str:0000000000020135 .LASF2687
C:\Users\CYMR90~1\AppData\Local\Temp\ccZ8Xcmd.s:31971  .debug_str:000000000002d09f .LASF2688
C:\Users\CYMR90~1\AppData\Local\Temp\ccZ8Xcmd.s:27685  .debug_str:000000000001c06f .LASF2689
C:\Users\CYMR90~1\AppData\Local\Temp\ccZ8Xcmd.s:29753  .debug_str:000000000002408a .LASF2690
C:\Users\CYMR90~1\AppData\Local\Temp\ccZ8Xcmd.s:30177  .debug_str:0000000000025d6c .LASF2691
C:\Users\CYMR90~1\AppData\Local\Temp\ccZ8Xcmd.s:24064  .debug_str:000000000000d7f3 .LASF2692
C:\Users\CYMR90~1\AppData\Local\Temp\ccZ8Xcmd.s:25300  .debug_str:00000000000125f6 .LASF2693
C:\Users\CYMR90~1\AppData\Local\Temp\ccZ8Xcmd.s:28463  .debug_str:000000000001f1a9 .LASF2694
C:\Users\CYMR90~1\AppData\Local\Temp\ccZ8Xcmd.s:31745  .debug_str:000000000002c1d5 .LASF2695
C:\Users\CYMR90~1\AppData\Local\Temp\ccZ8Xcmd.s:29209  .debug_str:0000000000021f77 .LASF2696
C:\Users\CYMR90~1\AppData\Local\Temp\ccZ8Xcmd.s:28227  .debug_str:000000000001e3a4 .LASF2697
C:\Users\CYMR90~1\AppData\Local\Temp\ccZ8Xcmd.s:21640  .debug_str:0000000000003a41 .LASF2698
C:\Users\CYMR90~1\AppData\Local\Temp\ccZ8Xcmd.s:26344  .debug_str:000000000001683e .LASF2699
C:\Users\CYMR90~1\AppData\Local\Temp\ccZ8Xcmd.s:31073  .debug_str:000000000002977a .LASF2700
C:\Users\CYMR90~1\AppData\Local\Temp\ccZ8Xcmd.s:24460  .debug_str:000000000000efbc .LASF2701
C:\Users\CYMR90~1\AppData\Local\Temp\ccZ8Xcmd.s:26310  .debug_str:00000000000165e1 .LASF2702
C:\Users\CYMR90~1\AppData\Local\Temp\ccZ8Xcmd.s:31041  .debug_str:0000000000029521 .LASF2703
C:\Users\CYMR90~1\AppData\Local\Temp\ccZ8Xcmd.s:24430  .debug_str:000000000000edfc .LASF2704
C:\Users\CYMR90~1\AppData\Local\Temp\ccZ8Xcmd.s:29089  .debug_str:0000000000021827 .LASF2705
C:\Users\CYMR90~1\AppData\Local\Temp\ccZ8Xcmd.s:25586  .debug_str:0000000000013903 .LASF2706
C:\Users\CYMR90~1\AppData\Local\Temp\ccZ8Xcmd.s:21152  .debug_str:0000000000001b90 .LASF2707
C:\Users\CYMR90~1\AppData\Local\Temp\ccZ8Xcmd.s:25842  .debug_str:0000000000014866 .LASF2708
C:\Users\CYMR90~1\AppData\Local\Temp\ccZ8Xcmd.s:25638  .debug_str:0000000000013c1a .LASF2709
C:\Users\CYMR90~1\AppData\Local\Temp\ccZ8Xcmd.s:23960  .debug_str:000000000000d164 .LASF2710
C:\Users\CYMR90~1\AppData\Local\Temp\ccZ8Xcmd.s:28619  .debug_str:000000000001fb0d .LASF2711
C:\Users\CYMR90~1\AppData\Local\Temp\ccZ8Xcmd.s:27437  .debug_str:000000000001b14e .LASF2712
C:\Users\CYMR90~1\AppData\Local\Temp\ccZ8Xcmd.s:28243  .debug_str:000000000001e44c .LASF2713
C:\Users\CYMR90~1\AppData\Local\Temp\ccZ8Xcmd.s:21656  .debug_str:0000000000003b39 .LASF2714
C:\Users\CYMR90~1\AppData\Local\Temp\ccZ8Xcmd.s:26360  .debug_str:00000000000169e3 .LASF2715
C:\Users\CYMR90~1\AppData\Local\Temp\ccZ8Xcmd.s:22976  .debug_str:0000000000009074 .LASF2716
C:\Users\CYMR90~1\AppData\Local\Temp\ccZ8Xcmd.s:29725  .debug_str:0000000000023dcb .LASF2717
C:\Users\CYMR90~1\AppData\Local\Temp\ccZ8Xcmd.s:21160  .debug_str:0000000000001c16 .LASF2718
C:\Users\CYMR90~1\AppData\Local\Temp\ccZ8Xcmd.s:24394  .debug_str:000000000000ec04 .LASF2719
C:\Users\CYMR90~1\AppData\Local\Temp\ccZ8Xcmd.s:30523  .debug_str:0000000000027387 .LASF2720
C:\Users\CYMR90~1\AppData\Local\Temp\ccZ8Xcmd.s:30815  .debug_str:0000000000028730 .LASF2721
C:\Users\CYMR90~1\AppData\Local\Temp\ccZ8Xcmd.s:22592  .debug_str:00000000000076cd .LASF2722
C:\Users\CYMR90~1\AppData\Local\Temp\ccZ8Xcmd.s:25812  .debug_str:00000000000146b4 .LASF2723
C:\Users\CYMR90~1\AppData\Local\Temp\ccZ8Xcmd.s:23140  .debug_str:0000000000009aec .LASF2724
C:\Users\CYMR90~1\AppData\Local\Temp\ccZ8Xcmd.s:20946  .debug_str:0000000000000f0b .LASF2725
C:\Users\CYMR90~1\AppData\Local\Temp\ccZ8Xcmd.s:24152  .debug_str:000000000000dd46 .LASF2726
C:\Users\CYMR90~1\AppData\Local\Temp\ccZ8Xcmd.s:22686  .debug_str:0000000000007d99 .LASF2727
C:\Users\CYMR90~1\AppData\Local\Temp\ccZ8Xcmd.s:26663  .debug_str:0000000000017ddb .LASF2728
C:\Users\CYMR90~1\AppData\Local\Temp\ccZ8Xcmd.s:31399  .debug_str:000000000002aae5 .LASF2729
C:\Users\CYMR90~1\AppData\Local\Temp\ccZ8Xcmd.s:24776  .debug_str:00000000000103ee .LASF2730
C:\Users\CYMR90~1\AppData\Local\Temp\ccZ8Xcmd.s:29451  .debug_str:0000000000022db8 .LASF2731
C:\Users\CYMR90~1\AppData\Local\Temp\ccZ8Xcmd.s:22852  .debug_str:00000000000088ba .LASF2732
C:\Users\CYMR90~1\AppData\Local\Temp\ccZ8Xcmd.s:27547  .debug_str:000000000001b7c7 .LASF2733
C:\Users\CYMR90~1\AppData\Local\Temp\ccZ8Xcmd.s:24956  .debug_str:0000000000010ee9 .LASF2734
C:\Users\CYMR90~1\AppData\Local\Temp\ccZ8Xcmd.s:31265  .debug_str:000000000002a266 .LASF2735
C:\Users\CYMR90~1\AppData\Local\Temp\ccZ8Xcmd.s:27177  .debug_str:0000000000019ed7 .LASF2736
C:\Users\CYMR90~1\AppData\Local\Temp\ccZ8Xcmd.s:22786  .debug_str:0000000000008484 .LASF2737
C:\Users\CYMR90~1\AppData\Local\Temp\ccZ8Xcmd.s:23758  .debug_str:000000000000c302 .LASF2738
C:\Users\CYMR90~1\AppData\Local\Temp\ccZ8Xcmd.s:31281  .debug_str:000000000002a375 .LASF2739
C:\Users\CYMR90~1\AppData\Local\Temp\ccZ8Xcmd.s:21570  .debug_str:00000000000035a4 .LASF2740
C:\Users\CYMR90~1\AppData\Local\Temp\ccZ8Xcmd.s:26497  .debug_str:000000000001737c .LASF2741
C:\Users\CYMR90~1\AppData\Local\Temp\ccZ8Xcmd.s:21920  .debug_str:0000000000004cfd .LASF2742
C:\Users\CYMR90~1\AppData\Local\Temp\ccZ8Xcmd.s:25294  .debug_str:0000000000012593 .LASF2743
C:\Users\CYMR90~1\AppData\Local\Temp\ccZ8Xcmd.s:21966  .debug_str:0000000000004fb1 .LASF2744
C:\Users\CYMR90~1\AppData\Local\Temp\ccZ8Xcmd.s:28785  .debug_str:00000000000205a8 .LASF2745
C:\Users\CYMR90~1\AppData\Local\Temp\ccZ8Xcmd.s:25572  .debug_str:000000000001382a .LASF2746
C:\Users\CYMR90~1\AppData\Local\Temp\ccZ8Xcmd.s:24362  .debug_str:000000000000ea4d .LASF2747
C:\Users\CYMR90~1\AppData\Local\Temp\ccZ8Xcmd.s:23420  .debug_str:000000000000ac5a .LASF2748
C:\Users\CYMR90~1\AppData\Local\Temp\ccZ8Xcmd.s:21006  .debug_str:0000000000001250 .LASF2749
C:\Users\CYMR90~1\AppData\Local\Temp\ccZ8Xcmd.s:23794  .debug_str:000000000000c565 .LASF2750
C:\Users\CYMR90~1\AppData\Local\Temp\ccZ8Xcmd.s:29897  .debug_str:0000000000024a3b .LASF2751
C:\Users\CYMR90~1\AppData\Local\Temp\ccZ8Xcmd.s:28781  .debug_str:0000000000020580 .LASF2752
C:\Users\CYMR90~1\AppData\Local\Temp\ccZ8Xcmd.s:20734  .debug_str:000000000000022c .LASF2753
C:\Users\CYMR90~1\AppData\Local\Temp\ccZ8Xcmd.s:23922  .debug_str:000000000000ceb6 .LASF2754
C:\Users\CYMR90~1\AppData\Local\Temp\ccZ8Xcmd.s:27121  .debug_str:0000000000019bcb .LASF2755
C:\Users\CYMR90~1\AppData\Local\Temp\ccZ8Xcmd.s:20922  .debug_str:0000000000000d2f .LASF2756
C:\Users\CYMR90~1\AppData\Local\Temp\ccZ8Xcmd.s:30587  .debug_str:00000000000276ff .LASF2757
C:\Users\CYMR90~1\AppData\Local\Temp\ccZ8Xcmd.s:28939  .debug_str:0000000000020eaa .LASF2758
C:\Users\CYMR90~1\AppData\Local\Temp\ccZ8Xcmd.s:27363  .debug_str:000000000001ac3e .LASF2759
C:\Users\CYMR90~1\AppData\Local\Temp\ccZ8Xcmd.s:31801  .debug_str:000000000002c5b8 .LASF2760
C:\Users\CYMR90~1\AppData\Local\Temp\ccZ8Xcmd.s:21034  .debug_str:0000000000001412 .LASF2761
C:\Users\CYMR90~1\AppData\Local\Temp\ccZ8Xcmd.s:25720  .debug_str:000000000001412b .LASF2762
C:\Users\CYMR90~1\AppData\Local\Temp\ccZ8Xcmd.s:30431  .debug_str:0000000000026d4c .LASF2763
C:\Users\CYMR90~1\AppData\Local\Temp\ccZ8Xcmd.s:31475  .debug_str:000000000002af57 .LASF2764
C:\Users\CYMR90~1\AppData\Local\Temp\ccZ8Xcmd.s:27689  .debug_str:000000000001c09d .LASF2765
C:\Users\CYMR90~1\AppData\Local\Temp\ccZ8Xcmd.s:23968  .debug_str:000000000000d1b4 .LASF2766
C:\Users\CYMR90~1\AppData\Local\Temp\ccZ8Xcmd.s:29243  .debug_str:000000000002216f .LASF2767
C:\Users\CYMR90~1\AppData\Local\Temp\ccZ8Xcmd.s:21144  .debug_str:0000000000001b1c .LASF2768
C:\Users\CYMR90~1\AppData\Local\Temp\ccZ8Xcmd.s:24378  .debug_str:000000000000eb34 .LASF2769
C:\Users\CYMR90~1\AppData\Local\Temp\ccZ8Xcmd.s:27571  .debug_str:000000000001b90c .LASF2770
C:\Users\CYMR90~1\AppData\Local\Temp\ccZ8Xcmd.s:30707  .debug_str:0000000000027f72 .LASF2771
C:\Users\CYMR90~1\AppData\Local\Temp\ccZ8Xcmd.s:29081  .debug_str:00000000000217af .LASF2772
C:\Users\CYMR90~1\AppData\Local\Temp\ccZ8Xcmd.s:25798  .debug_str:0000000000014605 .LASF2773
C:\Users\CYMR90~1\AppData\Local\Temp\ccZ8Xcmd.s:25836  .debug_str:0000000000014821 .LASF2774
C:\Users\CYMR90~1\AppData\Local\Temp\ccZ8Xcmd.s:20936  .debug_str:0000000000000e86 .LASF2775
C:\Users\CYMR90~1\AppData\Local\Temp\ccZ8Xcmd.s:24138  .debug_str:000000000000dc6a .LASF2776
C:\Users\CYMR90~1\AppData\Local\Temp\ccZ8Xcmd.s:26368  .debug_str:0000000000016a5d .LASF2777
C:\Users\CYMR90~1\AppData\Local\Temp\ccZ8Xcmd.s:29241  .debug_str:000000000002215a .LASF2778
C:\Users\CYMR90~1\AppData\Local\Temp\ccZ8Xcmd.s:24480  .debug_str:000000000000f10c .LASF2779
C:\Users\CYMR90~1\AppData\Local\Temp\ccZ8Xcmd.s:29141  .debug_str:0000000000021ba8 .LASF2780
C:\Users\CYMR90~1\AppData\Local\Temp\ccZ8Xcmd.s:22534  .debug_str:000000000000732f .LASF2781
C:\Users\CYMR90~1\AppData\Local\Temp\ccZ8Xcmd.s:27277  .debug_str:000000000001a702 .LASF2782
C:\Users\CYMR90~1\AppData\Local\Temp\ccZ8Xcmd.s:26527  .debug_str:0000000000017558 .LASF2783
C:\Users\CYMR90~1\AppData\Local\Temp\ccZ8Xcmd.s:24248  .debug_str:000000000000e2ee .LASF2784
C:\Users\CYMR90~1\AppData\Local\Temp\ccZ8Xcmd.s:25422  .debug_str:0000000000012dfc .LASF2785
C:\Users\CYMR90~1\AppData\Local\Temp\ccZ8Xcmd.s:25384  .debug_str:0000000000012b81 .LASF2786
C:\Users\CYMR90~1\AppData\Local\Temp\ccZ8Xcmd.s:21480  .debug_str:0000000000002fdc .LASF2787
C:\Users\CYMR90~1\AppData\Local\Temp\ccZ8Xcmd.s:21362  .debug_str:0000000000002828 .LASF2788
C:\Users\CYMR90~1\AppData\Local\Temp\ccZ8Xcmd.s:28901  .debug_str:0000000000020cb3 .LASF2789
C:\Users\CYMR90~1\AppData\Local\Temp\ccZ8Xcmd.s:29899  .debug_str:0000000000024a4e .LASF2790
C:\Users\CYMR90~1\AppData\Local\Temp\ccZ8Xcmd.s:29579  .debug_str:000000000002353e .LASF2791
C:\Users\CYMR90~1\AppData\Local\Temp\ccZ8Xcmd.s:23480  .debug_str:000000000000b09b .LASF2792
C:\Users\CYMR90~1\AppData\Local\Temp\ccZ8Xcmd.s:26665  .debug_str:0000000000017df2 .LASF2793
C:\Users\CYMR90~1\AppData\Local\Temp\ccZ8Xcmd.s:29877  .debug_str:00000000000248e2 .LASF2794
C:\Users\CYMR90~1\AppData\Local\Temp\ccZ8Xcmd.s:21772  .debug_str:00000000000042fb .LASF2795
C:\Users\CYMR90~1\AppData\Local\Temp\ccZ8Xcmd.s:24928  .debug_str:0000000000010d74 .LASF2796
C:\Users\CYMR90~1\AppData\Local\Temp\ccZ8Xcmd.s:28087  .debug_str:000000000001da90 .LASF2797
C:\Users\CYMR90~1\AppData\Local\Temp\ccZ8Xcmd.s:31901  .debug_str:000000000002cc04 .LASF2798
C:\Users\CYMR90~1\AppData\Local\Temp\ccZ8Xcmd.s:23240  .debug_str:000000000000a131 .LASF2799
C:\Users\CYMR90~1\AppData\Local\Temp\ccZ8Xcmd.s:26435  .debug_str:000000000001700a .LASF2800
C:\Users\CYMR90~1\AppData\Local\Temp\ccZ8Xcmd.s:29643  .debug_str:0000000000023927 .LASF2801
C:\Users\CYMR90~1\AppData\Local\Temp\ccZ8Xcmd.s:27817  .debug_str:000000000001c8b7 .LASF2802
C:\Users\CYMR90~1\AppData\Local\Temp\ccZ8Xcmd.s:21208  .debug_str:0000000000001ecd .LASF2803
C:\Users\CYMR90~1\AppData\Local\Temp\ccZ8Xcmd.s:25900  .debug_str:0000000000014c41 .LASF2804
C:\Users\CYMR90~1\AppData\Local\Temp\ccZ8Xcmd.s:30621  .debug_str:000000000002796b .LASF2805
C:\Users\CYMR90~1\AppData\Local\Temp\ccZ8Xcmd.s:24016  .debug_str:000000000000d560 .LASF2806
C:\Users\CYMR90~1\AppData\Local\Temp\ccZ8Xcmd.s:28683  .debug_str:000000000001ff38 .LASF2807
C:\Users\CYMR90~1\AppData\Local\Temp\ccZ8Xcmd.s:31305  .debug_str:000000000002a546 .LASF2808
C:\Users\CYMR90~1\AppData\Local\Temp\ccZ8Xcmd.s:31511  .debug_str:000000000002b1be .LASF2809
C:\Users\CYMR90~1\AppData\Local\Temp\ccZ8Xcmd.s:27313  .debug_str:000000000001a8f9 .LASF2810
C:\Users\CYMR90~1\AppData\Local\Temp\ccZ8Xcmd.s:22492  .debug_str:0000000000007077 .LASF2811
C:\Users\CYMR90~1\AppData\Local\Temp\ccZ8Xcmd.s:22794  .debug_str:00000000000084f2 .LASF2812
C:\Users\CYMR90~1\AppData\Local\Temp\ccZ8Xcmd.s:26725  .debug_str:000000000001815f .LASF2813
C:\Users\CYMR90~1\AppData\Local\Temp\ccZ8Xcmd.s:31611  .debug_str:000000000002b88a .LASF2814
C:\Users\CYMR90~1\AppData\Local\Temp\ccZ8Xcmd.s:25164  .debug_str:0000000000011d03 .LASF2815
C:\Users\CYMR90~1\AppData\Local\Temp\ccZ8Xcmd.s:25994  .debug_str:0000000000015224 .LASF2816
C:\Users\CYMR90~1\AppData\Local\Temp\ccZ8Xcmd.s:22194  .debug_str:0000000000005d56 .LASF2817
C:\Users\CYMR90~1\AppData\Local\Temp\ccZ8Xcmd.s:28927  .debug_str:0000000000020e17 .LASF2818
C:\Users\CYMR90~1\AppData\Local\Temp\ccZ8Xcmd.s:30317  .debug_str:0000000000026651 .LASF2819
C:\Users\CYMR90~1\AppData\Local\Temp\ccZ8Xcmd.s:31715  .debug_str:000000000002bfcd .LASF2820
C:\Users\CYMR90~1\AppData\Local\Temp\ccZ8Xcmd.s:21728  .debug_str:0000000000004065 .LASF2821
C:\Users\CYMR90~1\AppData\Local\Temp\ccZ8Xcmd.s:25430  .debug_str:0000000000012e8a .LASF2822
C:\Users\CYMR90~1\AppData\Local\Temp\ccZ8Xcmd.s:30819  .debug_str:000000000002875e .LASF2823
C:\Users\CYMR90~1\AppData\Local\Temp\ccZ8Xcmd.s:28751  .debug_str:0000000000020343 .LASF2824
C:\Users\CYMR90~1\AppData\Local\Temp\ccZ8Xcmd.s:27649  .debug_str:000000000001be01 .LASF2825
C:\Users\CYMR90~1\AppData\Local\Temp\ccZ8Xcmd.s:27223  .debug_str:000000000001a313 .LASF2826
C:\Users\CYMR90~1\AppData\Local\Temp\ccZ8Xcmd.s:27141  .debug_str:0000000000019caf .LASF2827
C:\Users\CYMR90~1\AppData\Local\Temp\ccZ8Xcmd.s:29347  .debug_str:0000000000022765 .LASF2828
C:\Users\CYMR90~1\AppData\Local\Temp\ccZ8Xcmd.s:27643  .debug_str:000000000001bdae .LASF2829
C:\Users\CYMR90~1\AppData\Local\Temp\ccZ8Xcmd.s:26787  .debug_str:0000000000018516 .LASF2830
C:\Users\CYMR90~1\AppData\Local\Temp\ccZ8Xcmd.s:25816  .debug_str:00000000000146f9 .LASF2831
C:\Users\CYMR90~1\AppData\Local\Temp\ccZ8Xcmd.s:25362  .debug_str:0000000000012a15 .LASF2832
C:\Users\CYMR90~1\AppData\Local\Temp\ccZ8Xcmd.s:24102  .debug_str:000000000000da19 .LASF2833
C:\Users\CYMR90~1\AppData\Local\Temp\ccZ8Xcmd.s:23234  .debug_str:000000000000a0ce .LASF2834
C:\Users\CYMR90~1\AppData\Local\Temp\ccZ8Xcmd.s:22330  .debug_str:00000000000065f8 .LASF2835
C:\Users\CYMR90~1\AppData\Local\Temp\ccZ8Xcmd.s:21484  .debug_str:0000000000003012 .LASF2836
C:\Users\CYMR90~1\AppData\Local\Temp\ccZ8Xcmd.s:31945  .debug_str:000000000002cf13 .LASF2837
C:\Users\CYMR90~1\AppData\Local\Temp\ccZ8Xcmd.s:31077  .debug_str:00000000000297ab .LASF2838
C:\Users\CYMR90~1\AppData\Local\Temp\ccZ8Xcmd.s:29807  .debug_str:00000000000243fe .LASF2839
C:\Users\CYMR90~1\AppData\Local\Temp\ccZ8Xcmd.s:21694  .debug_str:0000000000003de0 .LASF2840
C:\Users\CYMR90~1\AppData\Local\Temp\ccZ8Xcmd.s:24942  .debug_str:0000000000010e1b .LASF2841
C:\Users\CYMR90~1\AppData\Local\Temp\ccZ8Xcmd.s:28105  .debug_str:000000000001dc26 .LASF2842
C:\Users\CYMR90~1\AppData\Local\Temp\ccZ8Xcmd.s:31369  .debug_str:000000000002a8f4 .LASF2843
C:\Users\CYMR90~1\AppData\Local\Temp\ccZ8Xcmd.s:23256  .debug_str:000000000000a245 .LASF2844
C:\Users\CYMR90~1\AppData\Local\Temp\ccZ8Xcmd.s:29431  .debug_str:0000000000022c9a .LASF2845
C:\Users\CYMR90~1\AppData\Local\Temp\ccZ8Xcmd.s:31903  .debug_str:000000000002cc16 .LASF2846
C:\Users\CYMR90~1\AppData\Local\Temp\ccZ8Xcmd.s:25192  .debug_str:0000000000011ef8 .LASF2847
C:\Users\CYMR90~1\AppData\Local\Temp\ccZ8Xcmd.s:23706  .debug_str:000000000000bfe6 .LASF2848
C:\Users\CYMR90~1\AppData\Local\Temp\ccZ8Xcmd.s:21292  .debug_str:000000000000237c .LASF2849
C:\Users\CYMR90~1\AppData\Local\Temp\ccZ8Xcmd.s:27887  .debug_str:000000000001ce70 .LASF2850
C:\Users\CYMR90~1\AppData\Local\Temp\ccZ8Xcmd.s:27281  .debug_str:000000000001a730 .LASF2851
C:\Users\CYMR90~1\AppData\Local\Temp\ccZ8Xcmd.s:27319  .debug_str:000000000001a984 .LASF2852
C:\Users\CYMR90~1\AppData\Local\Temp\ccZ8Xcmd.s:26278  .debug_str:0000000000016367 .LASF2853
C:\Users\CYMR90~1\AppData\Local\Temp\ccZ8Xcmd.s:23546  .debug_str:000000000000b518 .LASF2854
C:\Users\CYMR90~1\AppData\Local\Temp\ccZ8Xcmd.s:25668  .debug_str:0000000000013dd9 .LASF2855
C:\Users\CYMR90~1\AppData\Local\Temp\ccZ8Xcmd.s:30231  .debug_str:00000000000260bf .LASF2856
C:\Users\CYMR90~1\AppData\Local\Temp\ccZ8Xcmd.s:27477  .debug_str:000000000001b3a4 .LASF2857
C:\Users\CYMR90~1\AppData\Local\Temp\ccZ8Xcmd.s:22178  .debug_str:0000000000005c67 .LASF2858
C:\Users\CYMR90~1\AppData\Local\Temp\ccZ8Xcmd.s:24100  .debug_str:000000000000d9f7 .LASF2859
C:\Users\CYMR90~1\AppData\Local\Temp\ccZ8Xcmd.s:25976  .debug_str:000000000001512e .LASF2860
C:\Users\CYMR90~1\AppData\Local\Temp\ccZ8Xcmd.s:30597  .debug_str:00000000000277b2 .LASF2861
C:\Users\CYMR90~1\AppData\Local\Temp\ccZ8Xcmd.s:23674  .debug_str:000000000000be0d .LASF2862
C:\Users\CYMR90~1\AppData\Local\Temp\ccZ8Xcmd.s:24230  .debug_str:000000000000e1e5 .LASF2863
C:\Users\CYMR90~1\AppData\Local\Temp\ccZ8Xcmd.s:28205  .debug_str:000000000001e247 .LASF2864
C:\Users\CYMR90~1\AppData\Local\Temp\ccZ8Xcmd.s:21942  .debug_str:0000000000004e46 .LASF2865
C:\Users\CYMR90~1\AppData\Local\Temp\ccZ8Xcmd.s:31471  .debug_str:000000000002af15 .LASF2866
C:\Users\CYMR90~1\AppData\Local\Temp\ccZ8Xcmd.s:29657  .debug_str:00000000000239f8 .LASF2867
C:\Users\CYMR90~1\AppData\Local\Temp\ccZ8Xcmd.s:30467  .debug_str:0000000000026f47 .LASF2868
C:\Users\CYMR90~1\AppData\Local\Temp\ccZ8Xcmd.s:22372  .debug_str:0000000000006879 .LASF2869
C:\Users\CYMR90~1\AppData\Local\Temp\ccZ8Xcmd.s:31975  .debug_str:000000000002d0d3 .LASF2870
C:\Users\CYMR90~1\AppData\Local\Temp\ccZ8Xcmd.s:21458  .debug_str:0000000000002e3c .LASF2871
C:\Users\CYMR90~1\AppData\Local\Temp\ccZ8Xcmd.s:21186  .debug_str:0000000000001dae .LASF2872
C:\Users\CYMR90~1\AppData\Local\Temp\ccZ8Xcmd.s:28233  .debug_str:000000000001e3e0 .LASF2873
C:\Users\CYMR90~1\AppData\Local\Temp\ccZ8Xcmd.s:21434  .debug_str:0000000000002cc5 .LASF2874
C:\Users\CYMR90~1\AppData\Local\Temp\ccZ8Xcmd.s:20754  .debug_str:0000000000000324 .LASF2875
C:\Users\CYMR90~1\AppData\Local\Temp\ccZ8Xcmd.s:31761  .debug_str:000000000002c2a7 .LASF2876
C:\Users\CYMR90~1\AppData\Local\Temp\ccZ8Xcmd.s:30369  .debug_str:0000000000026971 .LASF2877
C:\Users\CYMR90~1\AppData\Local\Temp\ccZ8Xcmd.s:22164  .debug_str:0000000000005ba2 .LASF2878
C:\Users\CYMR90~1\AppData\Local\Temp\ccZ8Xcmd.s:31445  .debug_str:000000000002ada9 .LASF2879
C:\Users\CYMR90~1\AppData\Local\Temp\ccZ8Xcmd.s:27803  .debug_str:000000000001c7f6 .LASF2880
C:\Users\CYMR90~1\AppData\Local\Temp\ccZ8Xcmd.s:28799  .debug_str:000000000002067c .LASF2881
C:\Users\CYMR90~1\AppData\Local\Temp\ccZ8Xcmd.s:24602  .debug_str:000000000000f8f7 .LASF2882
C:\Users\CYMR90~1\AppData\Local\Temp\ccZ8Xcmd.s:23744  .debug_str:000000000000c222 .LASF2883
C:\Users\CYMR90~1\AppData\Local\Temp\ccZ8Xcmd.s:27535  .debug_str:000000000001b743 .LASF2884
C:\Users\CYMR90~1\AppData\Local\Temp\ccZ8Xcmd.s:30777  .debug_str:000000000002846e .LASF2885
C:\Users\CYMR90~1\AppData\Local\Temp\ccZ8Xcmd.s:29199  .debug_str:0000000000021ede .LASF2886
C:\Users\CYMR90~1\AppData\Local\Temp\ccZ8Xcmd.s:27525  .debug_str:000000000001b69c .LASF2887
C:\Users\CYMR90~1\AppData\Local\Temp\ccZ8Xcmd.s:21782  .debug_str:0000000000004399 .LASF2888
C:\Users\CYMR90~1\AppData\Local\Temp\ccZ8Xcmd.s:27849  .debug_str:000000000001cacf .LASF2889
C:\Users\CYMR90~1\AppData\Local\Temp\ccZ8Xcmd.s:31039  .debug_str:0000000000029500 .LASF2890
C:\Users\CYMR90~1\AppData\Local\Temp\ccZ8Xcmd.s:30165  .debug_str:0000000000025cc4 .LASF2891
C:\Users\CYMR90~1\AppData\Local\Temp\ccZ8Xcmd.s:27983  .debug_str:000000000001d424 .LASF2892
C:\Users\CYMR90~1\AppData\Local\Temp\ccZ8Xcmd.s:24042  .debug_str:000000000000d6cb .LASF2893
C:\Users\CYMR90~1\AppData\Local\Temp\ccZ8Xcmd.s:31535  .debug_str:000000000002b36b .LASF2894
C:\Users\CYMR90~1\AppData\Local\Temp\ccZ8Xcmd.s:26659  .debug_str:0000000000017d89 .LASF2895
C:\Users\CYMR90~1\AppData\Local\Temp\ccZ8Xcmd.s:21654  .debug_str:0000000000003b16 .LASF2896
C:\Users\CYMR90~1\AppData\Local\Temp\ccZ8Xcmd.s:31575  .debug_str:000000000002b5ee .LASF2897
C:\Users\CYMR90~1\AppData\Local\Temp\ccZ8Xcmd.s:24302  .debug_str:000000000000e687 .LASF2898
C:\Users\CYMR90~1\AppData\Local\Temp\ccZ8Xcmd.s:24420  .debug_str:000000000000ed55 .LASF2899
C:\Users\CYMR90~1\AppData\Local\Temp\ccZ8Xcmd.s:25880  .debug_str:0000000000014ad0 .LASF2900
C:\Users\CYMR90~1\AppData\Local\Temp\ccZ8Xcmd.s:25782  .debug_str:00000000000144e8 .LASF2901
C:\Users\CYMR90~1\AppData\Local\Temp\ccZ8Xcmd.s:24448  .debug_str:000000000000eef9 .LASF2902
C:\Users\CYMR90~1\AppData\Local\Temp\ccZ8Xcmd.s:24126  .debug_str:000000000000db7e .LASF2903
C:\Users\CYMR90~1\AppData\Local\Temp\ccZ8Xcmd.s:29595  .debug_str:0000000000023663 .LASF2904
C:\Users\CYMR90~1\AppData\Local\Temp\ccZ8Xcmd.s:26471  .debug_str:000000000001720a .LASF2905
C:\Users\CYMR90~1\AppData\Local\Temp\ccZ8Xcmd.s:25566  .debug_str:00000000000137c8 .LASF2906
C:\Users\CYMR90~1\AppData\Local\Temp\ccZ8Xcmd.s:22864  .debug_str:0000000000008986 .LASF2907
C:\Users\CYMR90~1\AppData\Local\Temp\ccZ8Xcmd.s:31291  .debug_str:000000000002a43b .LASF2908
C:\Users\CYMR90~1\AppData\Local\Temp\ccZ8Xcmd.s:31753  .debug_str:000000000002c231 .LASF2909
C:\Users\CYMR90~1\AppData\Local\Temp\ccZ8Xcmd.s:25968  .debug_str:000000000001509e .LASF2910
C:\Users\CYMR90~1\AppData\Local\Temp\ccZ8Xcmd.s:22012  .debug_str:0000000000005262 .LASF2911
C:\Users\CYMR90~1\AppData\Local\Temp\ccZ8Xcmd.s:26152  .debug_str:0000000000015b9e .LASF2912
C:\Users\CYMR90~1\AppData\Local\Temp\ccZ8Xcmd.s:31717  .debug_str:000000000002bfed .LASF2913
C:\Users\CYMR90~1\AppData\Local\Temp\ccZ8Xcmd.s:24798  .debug_str:0000000000010520 .LASF2914
C:\Users\CYMR90~1\AppData\Local\Temp\ccZ8Xcmd.s:23278  .debug_str:000000000000a39b .LASF2915
C:\Users\CYMR90~1\AppData\Local\Temp\ccZ8Xcmd.s:20848  .debug_str:0000000000000864 .LASF2916
C:\Users\CYMR90~1\AppData\Local\Temp\ccZ8Xcmd.s:28793  .debug_str:0000000000020625 .LASF2917
C:\Users\CYMR90~1\AppData\Local\Temp\ccZ8Xcmd.s:31823  .debug_str:000000000002c6b8 .LASF2918
C:\Users\CYMR90~1\AppData\Local\Temp\ccZ8Xcmd.s:29721  .debug_str:0000000000023d80 .LASF2919
C:\Users\CYMR90~1\AppData\Local\Temp\ccZ8Xcmd.s:29099  .debug_str:00000000000218eb .LASF2920
C:\Users\CYMR90~1\AppData\Local\Temp\ccZ8Xcmd.s:30361  .debug_str:00000000000268ee .LASF2921
C:\Users\CYMR90~1\AppData\Local\Temp\ccZ8Xcmd.s:31951  .debug_str:000000000002cf53 .LASF2922
C:\Users\CYMR90~1\AppData\Local\Temp\ccZ8Xcmd.s:24320  .debug_str:000000000000e789 .LASF2923
C:\Users\CYMR90~1\AppData\Local\Temp\ccZ8Xcmd.s:27661  .debug_str:000000000001becf .LASF2924
C:\Users\CYMR90~1\AppData\Local\Temp\ccZ8Xcmd.s:29353  .debug_str:00000000000227d9 .LASF2925
C:\Users\CYMR90~1\AppData\Local\Temp\ccZ8Xcmd.s:24922  .debug_str:0000000000010d20 .LASF2926
C:\Users\CYMR90~1\AppData\Local\Temp\ccZ8Xcmd.s:24040  .debug_str:000000000000d6b2 .LASF2927
C:\Users\CYMR90~1\AppData\Local\Temp\ccZ8Xcmd.s:28783  .debug_str:0000000000020593 .LASF2928
C:\Users\CYMR90~1\AppData\Local\Temp\ccZ8Xcmd.s:31151  .debug_str:0000000000029c00 .LASF2929
C:\Users\CYMR90~1\AppData\Local\Temp\ccZ8Xcmd.s:23698  .debug_str:000000000000bf7c .LASF2930
C:\Users\CYMR90~1\AppData\Local\Temp\ccZ8Xcmd.s:22478  .debug_str:0000000000006f81 .LASF2931
C:\Users\CYMR90~1\AppData\Local\Temp\ccZ8Xcmd.s:28951  .debug_str:0000000000020f5d .LASF2932
C:\Users\CYMR90~1\AppData\Local\Temp\ccZ8Xcmd.s:31175  .debug_str:0000000000029d57 .LASF2933
C:\Users\CYMR90~1\AppData\Local\Temp\ccZ8Xcmd.s:21442  .debug_str:0000000000002d47 .LASF2934
C:\Users\CYMR90~1\AppData\Local\Temp\ccZ8Xcmd.s:23756  .debug_str:000000000000c2ee .LASF2935
C:\Users\CYMR90~1\AppData\Local\Temp\ccZ8Xcmd.s:24254  .debug_str:000000000000e350 .LASF2936
C:\Users\CYMR90~1\AppData\Local\Temp\ccZ8Xcmd.s:31565  .debug_str:000000000002b56d .LASF2937
C:\Users\CYMR90~1\AppData\Local\Temp\ccZ8Xcmd.s:22446  .debug_str:0000000000006d2c .LASF2938
C:\Users\CYMR90~1\AppData\Local\Temp\ccZ8Xcmd.s:28679  .debug_str:000000000001fef9 .LASF2939
C:\Users\CYMR90~1\AppData\Local\Temp\ccZ8Xcmd.s:24634  .debug_str:000000000000fb06 .LASF2940
C:\Users\CYMR90~1\AppData\Local\Temp\ccZ8Xcmd.s:26483  .debug_str:00000000000172ca .LASF2941
C:\Users\CYMR90~1\AppData\Local\Temp\ccZ8Xcmd.s:23092  .debug_str:00000000000097d8 .LASF2942
C:\Users\CYMR90~1\AppData\Local\Temp\ccZ8Xcmd.s:23196  .debug_str:0000000000009e77 .LASF2943
C:\Users\CYMR90~1\AppData\Local\Temp\ccZ8Xcmd.s:24204  .debug_str:000000000000e02b .LASF2944
C:\Users\CYMR90~1\AppData\Local\Temp\ccZ8Xcmd.s:23310  .debug_str:000000000000a541 .LASF2945
C:\Users\CYMR90~1\AppData\Local\Temp\ccZ8Xcmd.s:29947  .debug_str:0000000000024d6d .LASF2946
C:\Users\CYMR90~1\AppData\Local\Temp\ccZ8Xcmd.s:24374  .debug_str:000000000000eb04 .LASF2947
C:\Users\CYMR90~1\AppData\Local\Temp\ccZ8Xcmd.s:24938  .debug_str:0000000000010de5 .LASF2948
C:\Users\CYMR90~1\AppData\Local\Temp\ccZ8Xcmd.s:30703  .debug_str:0000000000027f25 .LASF2949
C:\Users\CYMR90~1\AppData\Local\Temp\ccZ8Xcmd.s:22832  .debug_str:0000000000008784 .LASF2950
C:\Users\CYMR90~1\AppData\Local\Temp\ccZ8Xcmd.s:31645  .debug_str:000000000002bad6 .LASF2951
C:\Users\CYMR90~1\AppData\Local\Temp\ccZ8Xcmd.s:30797  .debug_str:00000000000285ed .LASF2952
C:\Users\CYMR90~1\AppData\Local\Temp\ccZ8Xcmd.s:31069  .debug_str:0000000000029748 .LASF2953
C:\Users\CYMR90~1\AppData\Local\Temp\ccZ8Xcmd.s:21702  .debug_str:0000000000003e62 .LASF2954
C:\Users\CYMR90~1\AppData\Local\Temp\ccZ8Xcmd.s:27713  .debug_str:000000000001c205 .LASF2955
C:\Users\CYMR90~1\AppData\Local\Temp\ccZ8Xcmd.s:27515  .debug_str:000000000001b600 .LASF2956
C:\Users\CYMR90~1\AppData\Local\Temp\ccZ8Xcmd.s:29961  .debug_str:0000000000024e2a .LASF2957
C:\Users\CYMR90~1\AppData\Local\Temp\ccZ8Xcmd.s:24046  .debug_str:000000000000d70f .LASF2958
C:\Users\CYMR90~1\AppData\Local\Temp\ccZ8Xcmd.s:27129  .debug_str:0000000000019c1c .LASF2959
C:\Users\CYMR90~1\AppData\Local\Temp\ccZ8Xcmd.s:20978  .debug_str:00000000000010f9 .LASF2960
C:\Users\CYMR90~1\AppData\Local\Temp\ccZ8Xcmd.s:24418  .debug_str:000000000000ed3b .LASF2961
C:\Users\CYMR90~1\AppData\Local\Temp\ccZ8Xcmd.s:27717  .debug_str:000000000001c239 .LASF2962
C:\Users\CYMR90~1\AppData\Local\Temp\ccZ8Xcmd.s:31083  .debug_str:00000000000297f0 .LASF2963
C:\Users\CYMR90~1\AppData\Local\Temp\ccZ8Xcmd.s:21102  .debug_str:00000000000018c5 .LASF2964
C:\Users\CYMR90~1\AppData\Local\Temp\ccZ8Xcmd.s:23162  .debug_str:0000000000009c41 .LASF2965
C:\Users\CYMR90~1\AppData\Local\Temp\ccZ8Xcmd.s:30499  .debug_str:000000000002720f .LASF2966
C:\Users\CYMR90~1\AppData\Local\Temp\ccZ8Xcmd.s:22716  .debug_str:000000000000802f .LASF2967
C:\Users\CYMR90~1\AppData\Local\Temp\ccZ8Xcmd.s:24212  .debug_str:000000000000e0c6 .LASF2968
C:\Users\CYMR90~1\AppData\Local\Temp\ccZ8Xcmd.s:29723  .debug_str:0000000000023dac .LASF2969
C:\Users\CYMR90~1\AppData\Local\Temp\ccZ8Xcmd.s:27057  .debug_str:00000000000197a3 .LASF2970
C:\Users\CYMR90~1\AppData\Local\Temp\ccZ8Xcmd.s:28549  .debug_str:000000000001f6d5 .LASF2971
C:\Users\CYMR90~1\AppData\Local\Temp\ccZ8Xcmd.s:28401  .debug_str:000000000001edca .LASF2972
C:\Users\CYMR90~1\AppData\Local\Temp\ccZ8Xcmd.s:22690  .debug_str:0000000000007dd2 .LASF2973
C:\Users\CYMR90~1\AppData\Local\Temp\ccZ8Xcmd.s:30689  .debug_str:0000000000027dfc .LASF2974
C:\Users\CYMR90~1\AppData\Local\Temp\ccZ8Xcmd.s:30187  .debug_str:0000000000025e3a .LASF2975
C:\Users\CYMR90~1\AppData\Local\Temp\ccZ8Xcmd.s:29955  .debug_str:0000000000024de5 .LASF2976
C:\Users\CYMR90~1\AppData\Local\Temp\ccZ8Xcmd.s:21682  .debug_str:0000000000003ce0 .LASF2977
C:\Users\CYMR90~1\AppData\Local\Temp\ccZ8Xcmd.s:28929  .debug_str:0000000000020e37 .LASF2978
C:\Users\CYMR90~1\AppData\Local\Temp\ccZ8Xcmd.s:24908  .debug_str:0000000000010c5b .LASF2979
C:\Users\CYMR90~1\AppData\Local\Temp\ccZ8Xcmd.s:30437  .debug_str:0000000000026db4 .LASF2980
C:\Users\CYMR90~1\AppData\Local\Temp\ccZ8Xcmd.s:29599  .debug_str:00000000000236a0 .LASF2981
C:\Users\CYMR90~1\AppData\Local\Temp\ccZ8Xcmd.s:26425  .debug_str:0000000000016f88 .LASF2982
C:\Users\CYMR90~1\AppData\Local\Temp\ccZ8Xcmd.s:26172  .debug_str:0000000000015d0d .LASF2983
C:\Users\CYMR90~1\AppData\Local\Temp\ccZ8Xcmd.s:28427  .debug_str:000000000001ef84 .LASF2984
C:\Users\CYMR90~1\AppData\Local\Temp\ccZ8Xcmd.s:24868  .debug_str:00000000000109a1 .LASF2985
C:\Users\CYMR90~1\AppData\Local\Temp\ccZ8Xcmd.s:24994  .debug_str:0000000000011142 .LASF2986
C:\Users\CYMR90~1\AppData\Local\Temp\ccZ8Xcmd.s:24390  .debug_str:000000000000ebd3 .LASF2987
C:\Users\CYMR90~1\AppData\Local\Temp\ccZ8Xcmd.s:24528  .debug_str:000000000000f403 .LASF2988
C:\Users\CYMR90~1\AppData\Local\Temp\ccZ8Xcmd.s:28151  .debug_str:000000000001df10 .LASF2989
C:\Users\CYMR90~1\AppData\Local\Temp\ccZ8Xcmd.s:30817  .debug_str:0000000000028745 .LASF2990
C:\Users\CYMR90~1\AppData\Local\Temp\ccZ8Xcmd.s:26290  .debug_str:00000000000164a5 .LASF2991
C:\Users\CYMR90~1\AppData\Local\Temp\ccZ8Xcmd.s:29717  .debug_str:0000000000023d51 .LASF2992
C:\Users\CYMR90~1\AppData\Local\Temp\ccZ8Xcmd.s:21246  .debug_str:00000000000020af .LASF2993
C:\Users\CYMR90~1\AppData\Local\Temp\ccZ8Xcmd.s:22470  .debug_str:0000000000006ed9 .LASF2994
C:\Users\CYMR90~1\AppData\Local\Temp\ccZ8Xcmd.s:30869  .debug_str:0000000000028a61 .LASF2995
C:\Users\CYMR90~1\AppData\Local\Temp\ccZ8Xcmd.s:23212  .debug_str:0000000000009f6c .LASF2996
C:\Users\CYMR90~1\AppData\Local\Temp\ccZ8Xcmd.s:25672  .debug_str:0000000000013e0f .LASF2997
C:\Users\CYMR90~1\AppData\Local\Temp\ccZ8Xcmd.s:24350  .debug_str:000000000000e974 .LASF2998
C:\Users\CYMR90~1\AppData\Local\Temp\ccZ8Xcmd.s:26018  .debug_str:0000000000015393 .LASF2999
C:\Users\CYMR90~1\AppData\Local\Temp\ccZ8Xcmd.s:28869  .debug_str:0000000000020af1 .LASF3000
C:\Users\CYMR90~1\AppData\Local\Temp\ccZ8Xcmd.s:26813  .debug_str:0000000000018694 .LASF3001
C:\Users\CYMR90~1\AppData\Local\Temp\ccZ8Xcmd.s:28729  .debug_str:00000000000201a9 .LASF3002
C:\Users\CYMR90~1\AppData\Local\Temp\ccZ8Xcmd.s:30965  .debug_str:000000000002902f .LASF3003
C:\Users\CYMR90~1\AppData\Local\Temp\ccZ8Xcmd.s:29371  .debug_str:00000000000228c9 .LASF3004
C:\Users\CYMR90~1\AppData\Local\Temp\ccZ8Xcmd.s:23768  .debug_str:000000000000c3a7 .LASF3005
C:\Users\CYMR90~1\AppData\Local\Temp\ccZ8Xcmd.s:31773  .debug_str:000000000002c3ce .LASF3006
C:\Users\CYMR90~1\AppData\Local\Temp\ccZ8Xcmd.s:28519  .debug_str:000000000001f50a .LASF3007
C:\Users\CYMR90~1\AppData\Local\Temp\ccZ8Xcmd.s:30481  .debug_str:000000000002703f .LASF3008
C:\Users\CYMR90~1\AppData\Local\Temp\ccZ8Xcmd.s:30221  .debug_str:0000000000026051 .LASF3009
C:\Users\CYMR90~1\AppData\Local\Temp\ccZ8Xcmd.s:23672  .debug_str:000000000000bde5 .LASF3010
C:\Users\CYMR90~1\AppData\Local\Temp\ccZ8Xcmd.s:26064  .debug_str:0000000000015603 .LASF3011
C:\Users\CYMR90~1\AppData\Local\Temp\ccZ8Xcmd.s:25970  .debug_str:00000000000150c9 .LASF3012
C:\Users\CYMR90~1\AppData\Local\Temp\ccZ8Xcmd.s:26879  .debug_str:0000000000018b91 .LASF3013
C:\Users\CYMR90~1\AppData\Local\Temp\ccZ8Xcmd.s:28555  .debug_str:000000000001f73a .LASF3014
C:\Users\CYMR90~1\AppData\Local\Temp\ccZ8Xcmd.s:29067  .debug_str:00000000000216f5 .LASF3015
C:\Users\CYMR90~1\AppData\Local\Temp\ccZ8Xcmd.s:31907  .debug_str:000000000002cc3a .LASF3016
C:\Users\CYMR90~1\AppData\Local\Temp\ccZ8Xcmd.s:24584  .debug_str:000000000000f801 .LASF3017
C:\Users\CYMR90~1\AppData\Local\Temp\ccZ8Xcmd.s:21456  .debug_str:0000000000002e10 .LASF3018
C:\Users\CYMR90~1\AppData\Local\Temp\ccZ8Xcmd.s:24438  .debug_str:000000000000ee72 .LASF3019
C:\Users\CYMR90~1\AppData\Local\Temp\ccZ8Xcmd.s:28753  .debug_str:0000000000020368 .LASF3020
C:\Users\CYMR90~1\AppData\Local\Temp\ccZ8Xcmd.s:26042  .debug_str:00000000000154cd .LASF3021
C:\Users\CYMR90~1\AppData\Local\Temp\ccZ8Xcmd.s:25056  .debug_str:000000000001152b .LASF3022
C:\Users\CYMR90~1\AppData\Local\Temp\ccZ8Xcmd.s:27657  .debug_str:000000000001be98 .LASF3023
C:\Users\CYMR90~1\AppData\Local\Temp\ccZ8Xcmd.s:26693  .debug_str:0000000000017f5f .LASF3024
C:\Users\CYMR90~1\AppData\Local\Temp\ccZ8Xcmd.s:28587  .debug_str:000000000001f944 .LASF3025
C:\Users\CYMR90~1\AppData\Local\Temp\ccZ8Xcmd.s:24870  .debug_str:00000000000109b9 .LASF3026
C:\Users\CYMR90~1\AppData\Local\Temp\ccZ8Xcmd.s:30747  .debug_str:0000000000028271 .LASF3027
C:\Users\CYMR90~1\AppData\Local\Temp\ccZ8Xcmd.s:22936  .debug_str:0000000000008e33 .LASF3028
C:\Users\CYMR90~1\AppData\Local\Temp\ccZ8Xcmd.s:22020  .debug_str:0000000000005300 .LASF3029
C:\Users\CYMR90~1\AppData\Local\Temp\ccZ8Xcmd.s:21086  .debug_str:00000000000017da .LASF3030
C:\Users\CYMR90~1\AppData\Local\Temp\ccZ8Xcmd.s:31455  .debug_str:000000000002ae49 .LASF3031
C:\Users\CYMR90~1\AppData\Local\Temp\ccZ8Xcmd.s:29015  .debug_str:00000000000213d8 .LASF3032
C:\Users\CYMR90~1\AppData\Local\Temp\ccZ8Xcmd.s:28043  .debug_str:000000000001d7fe .LASF3033
C:\Users\CYMR90~1\AppData\Local\Temp\ccZ8Xcmd.s:27215  .debug_str:000000000001a100 .LASF3034
C:\Users\CYMR90~1\AppData\Local\Temp\ccZ8Xcmd.s:26214  .debug_str:0000000000015feb .LASF3035
C:\Users\CYMR90~1\AppData\Local\Temp\ccZ8Xcmd.s:25276  .debug_str:000000000001245e .LASF3036
C:\Users\CYMR90~1\AppData\Local\Temp\ccZ8Xcmd.s:24312  .debug_str:000000000000e718 .LASF3037
C:\Users\CYMR90~1\AppData\Local\Temp\ccZ8Xcmd.s:24456  .debug_str:000000000000ef70 .LASF3038
C:\Users\CYMR90~1\AppData\Local\Temp\ccZ8Xcmd.s:30429  .debug_str:0000000000026d1f .LASF3039
C:\Users\CYMR90~1\AppData\Local\Temp\ccZ8Xcmd.s:30217  .debug_str:0000000000025ffb .LASF3040
C:\Users\CYMR90~1\AppData\Local\Temp\ccZ8Xcmd.s:24772  .debug_str:00000000000103ad .LASF3041
C:\Users\CYMR90~1\AppData\Local\Temp\ccZ8Xcmd.s:23630  .debug_str:000000000000bab6 .LASF3042
C:\Users\CYMR90~1\AppData\Local\Temp\ccZ8Xcmd.s:22522  .debug_str:000000000000728a .LASF3043
C:\Users\CYMR90~1\AppData\Local\Temp\ccZ8Xcmd.s:27879  .debug_str:000000000001cd57 .LASF3044
C:\Users\CYMR90~1\AppData\Local\Temp\ccZ8Xcmd.s:29497  .debug_str:0000000000023004 .LASF3045
C:\Users\CYMR90~1\AppData\Local\Temp\ccZ8Xcmd.s:23804  .debug_str:000000000000c653 .LASF3046
C:\Users\CYMR90~1\AppData\Local\Temp\ccZ8Xcmd.s:22088  .debug_str:00000000000056f7 .LASF3047
C:\Users\CYMR90~1\AppData\Local\Temp\ccZ8Xcmd.s:21874  .debug_str:0000000000004a14 .LASF3048
C:\Users\CYMR90~1\AppData\Local\Temp\ccZ8Xcmd.s:27795  .debug_str:000000000001c76c .LASF3049
C:\Users\CYMR90~1\AppData\Local\Temp\ccZ8Xcmd.s:26306  .debug_str:000000000001659b .LASF3050
C:\Users\CYMR90~1\AppData\Local\Temp\ccZ8Xcmd.s:21388  .debug_str:00000000000029db .LASF3051
C:\Users\CYMR90~1\AppData\Local\Temp\ccZ8Xcmd.s:31845  .debug_str:000000000002c85e .LASF3052
C:\Users\CYMR90~1\AppData\Local\Temp\ccZ8Xcmd.s:30787  .debug_str:000000000002851f .LASF3053
C:\Users\CYMR90~1\AppData\Local\Temp\ccZ8Xcmd.s:21844  .debug_str:0000000000004851 .LASF3054
C:\Users\CYMR90~1\AppData\Local\Temp\ccZ8Xcmd.s:27637  .debug_str:000000000001bd54 .LASF3055
C:\Users\CYMR90~1\AppData\Local\Temp\ccZ8Xcmd.s:24874  .debug_str:00000000000109fe .LASF3056
C:\Users\CYMR90~1\AppData\Local\Temp\ccZ8Xcmd.s:28603  .debug_str:000000000001fa40 .LASF3057
C:\Users\CYMR90~1\AppData\Local\Temp\ccZ8Xcmd.s:20788  .debug_str:00000000000004fe .LASF3058
C:\Users\CYMR90~1\AppData\Local\Temp\ccZ8Xcmd.s:25454  .debug_str:0000000000013032 .LASF3059
C:\Users\CYMR90~1\AppData\Local\Temp\ccZ8Xcmd.s:30163  .debug_str:0000000000025ca2 .LASF3060
C:\Users\CYMR90~1\AppData\Local\Temp\ccZ8Xcmd.s:25358  .debug_str:00000000000129e1 .LASF3061
C:\Users\CYMR90~1\AppData\Local\Temp\ccZ8Xcmd.s:22240  .debug_str:0000000000006047 .LASF3062
C:\Users\CYMR90~1\AppData\Local\Temp\ccZ8Xcmd.s:26657  .debug_str:0000000000017d71 .LASF3063
C:\Users\CYMR90~1\AppData\Local\Temp\ccZ8Xcmd.s:25120  .debug_str:0000000000011a5b .LASF3064
C:\Users\CYMR90~1\AppData\Local\Temp\ccZ8Xcmd.s:23670  .debug_str:000000000000bdc9 .LASF3065
C:\Users\CYMR90~1\AppData\Local\Temp\ccZ8Xcmd.s:27499  .debug_str:000000000001b4e8 .LASF3066
C:\Users\CYMR90~1\AppData\Local\Temp\ccZ8Xcmd.s:24014  .debug_str:000000000000d542 .LASF3067
C:\Users\CYMR90~1\AppData\Local\Temp\ccZ8Xcmd.s:23004  .debug_str:0000000000009211 .LASF3068
C:\Users\CYMR90~1\AppData\Local\Temp\ccZ8Xcmd.s:29863  .debug_str:000000000002481d .LASF3069
C:\Users\CYMR90~1\AppData\Local\Temp\ccZ8Xcmd.s:25162  .debug_str:0000000000011ce3 .LASF3070
C:\Users\CYMR90~1\AppData\Local\Temp\ccZ8Xcmd.s:29463  .debug_str:0000000000022e61 .LASF3071
C:\Users\CYMR90~1\AppData\Local\Temp\ccZ8Xcmd.s:23336  .debug_str:000000000000a705 .LASF3072
C:\Users\CYMR90~1\AppData\Local\Temp\ccZ8Xcmd.s:27073  .debug_str:00000000000198c7 .LASF3073
C:\Users\CYMR90~1\AppData\Local\Temp\ccZ8Xcmd.s:30391  .debug_str:0000000000026aa4 .LASF3074
C:\Users\CYMR90~1\AppData\Local\Temp\ccZ8Xcmd.s:24044  .debug_str:000000000000d6ea .LASF3075
C:\Users\CYMR90~1\AppData\Local\Temp\ccZ8Xcmd.s:22136  .debug_str:00000000000059fc .LASF3076
C:\Users\CYMR90~1\AppData\Local\Temp\ccZ8Xcmd.s:23654  .debug_str:000000000000bc9d .LASF3077
C:\Users\CYMR90~1\AppData\Local\Temp\ccZ8Xcmd.s:22428  .debug_str:0000000000006c31 .LASF3078
C:\Users\CYMR90~1\AppData\Local\Temp\ccZ8Xcmd.s:24338  .debug_str:000000000000e8dd .LASF3079
C:\Users\CYMR90~1\AppData\Local\Temp\ccZ8Xcmd.s:20934  .debug_str:0000000000000e69 .LASF3080
C:\Users\CYMR90~1\AppData\Local\Temp\ccZ8Xcmd.s:31589  .debug_str:000000000002b702 .LASF3081
C:\Users\CYMR90~1\AppData\Local\Temp\ccZ8Xcmd.s:31191  .debug_str:0000000000029e38 .LASF3082
C:\Users\CYMR90~1\AppData\Local\Temp\ccZ8Xcmd.s:28599  .debug_str:000000000001fa02 .LASF3083
C:\Users\CYMR90~1\AppData\Local\Temp\ccZ8Xcmd.s:21746  .debug_str:0000000000004163 .LASF3084
C:\Users\CYMR90~1\AppData\Local\Temp\ccZ8Xcmd.s:28165  .debug_str:000000000001dff9 .LASF3085
C:\Users\CYMR90~1\AppData\Local\Temp\ccZ8Xcmd.s:28561  .debug_str:000000000001f784 .LASF3086
C:\Users\CYMR90~1\AppData\Local\Temp\ccZ8Xcmd.s:30539  .debug_str:000000000002744d .LASF3087
C:\Users\CYMR90~1\AppData\Local\Temp\ccZ8Xcmd.s:25752  .debug_str:00000000000142e1 .LASF3088
C:\Users\CYMR90~1\AppData\Local\Temp\ccZ8Xcmd.s:26312  .debug_str:00000000000165f6 .LASF3089
C:\Users\CYMR90~1\AppData\Local\Temp\ccZ8Xcmd.s:21178  .debug_str:0000000000001d31 .LASF3090
C:\Users\CYMR90~1\AppData\Local\Temp\ccZ8Xcmd.s:28547  .debug_str:000000000001f69b .LASF3091
C:\Users\CYMR90~1\AppData\Local\Temp\ccZ8Xcmd.s:28499  .debug_str:000000000001f3de .LASF3092
C:\Users\CYMR90~1\AppData\Local\Temp\ccZ8Xcmd.s:27611  .debug_str:000000000001bb8f .LASF3093
C:\Users\CYMR90~1\AppData\Local\Temp\ccZ8Xcmd.s:21346  .debug_str:0000000000002733 .LASF3094
C:\Users\CYMR90~1\AppData\Local\Temp\ccZ8Xcmd.s:30033  .debug_str:00000000000253ca .LASF3095
C:\Users\CYMR90~1\AppData\Local\Temp\ccZ8Xcmd.s:23934  .debug_str:000000000000cf6a .LASF3096
C:\Users\CYMR90~1\AppData\Local\Temp\ccZ8Xcmd.s:21700  .debug_str:0000000000003e3c .LASF3097
C:\Users\CYMR90~1\AppData\Local\Temp\ccZ8Xcmd.s:21438  .debug_str:0000000000002cfc .LASF3098
C:\Users\CYMR90~1\AppData\Local\Temp\ccZ8Xcmd.s:22828  .debug_str:0000000000008746 .LASF3099
C:\Users\CYMR90~1\AppData\Local\Temp\ccZ8Xcmd.s:28157  .debug_str:000000000001df5b .LASF3100
C:\Users\CYMR90~1\AppData\Local\Temp\ccZ8Xcmd.s:29299  .debug_str:00000000000224a7 .LASF3101
C:\Users\CYMR90~1\AppData\Local\Temp\ccZ8Xcmd.s:23204  .debug_str:0000000000009ef9 .LASF3102
C:\Users\CYMR90~1\AppData\Local\Temp\ccZ8Xcmd.s:24132  .debug_str:000000000000dbcf .LASF3103
C:\Users\CYMR90~1\AppData\Local\Temp\ccZ8Xcmd.s:26104  .debug_str:000000000001587c .LASF3104
C:\Users\CYMR90~1\AppData\Local\Temp\ccZ8Xcmd.s:24174  .debug_str:000000000000de7d .LASF3105
C:\Users\CYMR90~1\AppData\Local\Temp\ccZ8Xcmd.s:27391  .debug_str:000000000001ae67 .LASF3106
C:\Users\CYMR90~1\AppData\Local\Temp\ccZ8Xcmd.s:27033  .debug_str:0000000000019593 .LASF3107
C:\Users\CYMR90~1\AppData\Local\Temp\ccZ8Xcmd.s:23662  .debug_str:000000000000bd21 .LASF3108
C:\Users\CYMR90~1\AppData\Local\Temp\ccZ8Xcmd.s:28757  .debug_str:00000000000203aa .LASF3109
C:\Users\CYMR90~1\AppData\Local\Temp\ccZ8Xcmd.s:26589  .debug_str:000000000001798b .LASF3110
C:\Users\CYMR90~1\AppData\Local\Temp\ccZ8Xcmd.s:30781  .debug_str:00000000000284ad .LASF3111
C:\Users\CYMR90~1\AppData\Local\Temp\ccZ8Xcmd.s:28259  .debug_str:000000000001e57f .LASF3112
C:\Users\CYMR90~1\AppData\Local\Temp\ccZ8Xcmd.s:27587  .debug_str:000000000001b9ce .LASF3113
C:\Users\CYMR90~1\AppData\Local\Temp\ccZ8Xcmd.s:30659  .debug_str:0000000000027c03 .LASF3114
C:\Users\CYMR90~1\AppData\Local\Temp\ccZ8Xcmd.s:21204  .debug_str:0000000000001e9c .LASF3115
C:\Users\CYMR90~1\AppData\Local\Temp\ccZ8Xcmd.s:24364  .debug_str:000000000000ea6b .LASF3116
C:\Users\CYMR90~1\AppData\Local\Temp\ccZ8Xcmd.s:24406  .debug_str:000000000000ec94 .LASF3117
C:\Users\CYMR90~1\AppData\Local\Temp\ccZ8Xcmd.s:30305  .debug_str:000000000002656f .LASF3118
C:\Users\CYMR90~1\AppData\Local\Temp\ccZ8Xcmd.s:30665  .debug_str:0000000000027c63 .LASF3119
C:\Users\CYMR90~1\AppData\Local\Temp\ccZ8Xcmd.s:26683  .debug_str:0000000000017ee3 .LASF3120
C:\Users\CYMR90~1\AppData\Local\Temp\ccZ8Xcmd.s:29405  .debug_str:0000000000022b35 .LASF3121
C:\Users\CYMR90~1\AppData\Local\Temp\ccZ8Xcmd.s:21048  .debug_str:00000000000014b6 .LASF3122
C:\Users\CYMR90~1\AppData\Local\Temp\ccZ8Xcmd.s:21340  .debug_str:00000000000026d7 .LASF3123
C:\Users\CYMR90~1\AppData\Local\Temp\ccZ8Xcmd.s:31267  .debug_str:000000000002a281 .LASF3124
C:\Users\CYMR90~1\AppData\Local\Temp\ccZ8Xcmd.s:22224  .debug_str:0000000000005f6e .LASF3125
C:\Users\CYMR90~1\AppData\Local\Temp\ccZ8Xcmd.s:25458  .debug_str:0000000000013074 .LASF3126
C:\Users\CYMR90~1\AppData\Local\Temp\ccZ8Xcmd.s:24004  .debug_str:000000000000d48a .LASF3127
C:\Users\CYMR90~1\AppData\Local\Temp\ccZ8Xcmd.s:28977  .debug_str:00000000000210d5 .LASF3128
C:\Users\CYMR90~1\AppData\Local\Temp\ccZ8Xcmd.s:27041  .debug_str:0000000000019652 .LASF3129
C:\Users\CYMR90~1\AppData\Local\Temp\ccZ8Xcmd.s:23184  .debug_str:0000000000009d9f .LASF3130
C:\Users\CYMR90~1\AppData\Local\Temp\ccZ8Xcmd.s:22940  .debug_str:0000000000008e70 .LASF3131
C:\Users\CYMR90~1\AppData\Local\Temp\ccZ8Xcmd.s:23530  .debug_str:000000000000b3f8 .LASF3132
C:\Users\CYMR90~1\AppData\Local\Temp\ccZ8Xcmd.s:21776  .debug_str:0000000000004333 .LASF3133
C:\Users\CYMR90~1\AppData\Local\Temp\ccZ8Xcmd.s:24892  .debug_str:0000000000010b94 .LASF3134
C:\Users\CYMR90~1\AppData\Local\Temp\ccZ8Xcmd.s:20994  .debug_str:00000000000011c2 .LASF3135
C:\Users\CYMR90~1\AppData\Local\Temp\ccZ8Xcmd.s:22802  .debug_str:0000000000008562 .LASF3136
C:\Users\CYMR90~1\AppData\Local\Temp\ccZ8Xcmd.s:23610  .debug_str:000000000000b921 .LASF3137
C:\Users\CYMR90~1\AppData\Local\Temp\ccZ8Xcmd.s:23558  .debug_str:000000000000b5ea .LASF3138
C:\Users\CYMR90~1\AppData\Local\Temp\ccZ8Xcmd.s:26475  .debug_str:0000000000017245 .LASF3139
C:\Users\CYMR90~1\AppData\Local\Temp\ccZ8Xcmd.s:30387  .debug_str:0000000000026a6b .LASF3140
C:\Users\CYMR90~1\AppData\Local\Temp\ccZ8Xcmd.s:23286  .debug_str:000000000000a406 .LASF3141
C:\Users\CYMR90~1\AppData\Local\Temp\ccZ8Xcmd.s:21316  .debug_str:0000000000002522 .LASF3142
C:\Users\CYMR90~1\AppData\Local\Temp\ccZ8Xcmd.s:28291  .debug_str:000000000001e78f .LASF3143
C:\Users\CYMR90~1\AppData\Local\Temp\ccZ8Xcmd.s:21018  .debug_str:0000000000001337 .LASF3144
C:\Users\CYMR90~1\AppData\Local\Temp\ccZ8Xcmd.s:26863  .debug_str:00000000000189f2 .LASF3145
C:\Users\CYMR90~1\AppData\Local\Temp\ccZ8Xcmd.s:21114  .debug_str:0000000000001981 .LASF3146
C:\Users\CYMR90~1\AppData\Local\Temp\ccZ8Xcmd.s:31857  .debug_str:000000000002c947 .LASF3147
C:\Users\CYMR90~1\AppData\Local\Temp\ccZ8Xcmd.s:26024  .debug_str:00000000000153d1 .LASF3148
C:\Users\CYMR90~1\AppData\Local\Temp\ccZ8Xcmd.s:29813  .debug_str:0000000000024473 .LASF3149
C:\Users\CYMR90~1\AppData\Local\Temp\ccZ8Xcmd.s:23218  .debug_str:0000000000009fcd .LASF3150
C:\Users\CYMR90~1\AppData\Local\Temp\ccZ8Xcmd.s:21138  .debug_str:0000000000001ad1 .LASF3151
C:\Users\CYMR90~1\AppData\Local\Temp\ccZ8Xcmd.s:22246  .debug_str:00000000000060b5 .LASF3152
C:\Users\CYMR90~1\AppData\Local\Temp\ccZ8Xcmd.s:27465  .debug_str:000000000001b2ea .LASF3153
C:\Users\CYMR90~1\AppData\Local\Temp\ccZ8Xcmd.s:25570  .debug_str:0000000000013812 .LASF3154
C:\Users\CYMR90~1\AppData\Local\Temp\ccZ8Xcmd.s:22946  .debug_str:0000000000008ed3 .LASF3155
C:\Users\CYMR90~1\AppData\Local\Temp\ccZ8Xcmd.s:22000  .debug_str:00000000000051bb .LASF3156
C:\Users\CYMR90~1\AppData\Local\Temp\ccZ8Xcmd.s:31357  .debug_str:000000000002a863 .LASF3157
C:\Users\CYMR90~1\AppData\Local\Temp\ccZ8Xcmd.s:23682  .debug_str:000000000000be7c .LASF3158
C:\Users\CYMR90~1\AppData\Local\Temp\ccZ8Xcmd.s:21354  .debug_str:00000000000027ae .LASF3159
C:\Users\CYMR90~1\AppData\Local\Temp\ccZ8Xcmd.s:29263  .debug_str:000000000002227e .LASF3160
C:\Users\CYMR90~1\AppData\Local\Temp\ccZ8Xcmd.s:25934  .debug_str:0000000000014e94 .LASF3161
C:\Users\CYMR90~1\AppData\Local\Temp\ccZ8Xcmd.s:22518  .debug_str:0000000000007243 .LASF3162
C:\Users\CYMR90~1\AppData\Local\Temp\ccZ8Xcmd.s:27445  .debug_str:000000000001b1c4 .LASF3163
C:\Users\CYMR90~1\AppData\Local\Temp\ccZ8Xcmd.s:22134  .debug_str:00000000000059dd .LASF3164
C:\Users\CYMR90~1\AppData\Local\Temp\ccZ8Xcmd.s:23040  .debug_str:0000000000009480 .LASF3165
C:\Users\CYMR90~1\AppData\Local\Temp\ccZ8Xcmd.s:25292  .debug_str:0000000000012577 .LASF3166
C:\Users\CYMR90~1\AppData\Local\Temp\ccZ8Xcmd.s:29277  .debug_str:0000000000022324 .LASF3167
C:\Users\CYMR90~1\AppData\Local\Temp\ccZ8Xcmd.s:30643  .debug_str:0000000000027ad7 .LASF3168
C:\Users\CYMR90~1\AppData\Local\Temp\ccZ8Xcmd.s:26673  .debug_str:0000000000017e57 .LASF3169
C:\Users\CYMR90~1\AppData\Local\Temp\ccZ8Xcmd.s:24526  .debug_str:000000000000f3e3 .LASF3170
C:\Users\CYMR90~1\AppData\Local\Temp\ccZ8Xcmd.s:29275  .debug_str:000000000002230b .LASF3171
C:\Users\CYMR90~1\AppData\Local\Temp\ccZ8Xcmd.s:31093  .debug_str:0000000000029865 .LASF3172
C:\Users\CYMR90~1\AppData\Local\Temp\ccZ8Xcmd.s:27307  .debug_str:000000000001a8a6 .LASF3173
C:\Users\CYMR90~1\AppData\Local\Temp\ccZ8Xcmd.s:22384  .debug_str:0000000000006943 .LASF3174
C:\Users\CYMR90~1\AppData\Local\Temp\ccZ8Xcmd.s:22006  .debug_str:00000000000051ff .LASF3175
C:\Users\CYMR90~1\AppData\Local\Temp\ccZ8Xcmd.s:28203  .debug_str:000000000001e22a .LASF3176
C:\Users\CYMR90~1\AppData\Local\Temp\ccZ8Xcmd.s:24940  .debug_str:0000000000010dfd .LASF3177
C:\Users\CYMR90~1\AppData\Local\Temp\ccZ8Xcmd.s:29485  .debug_str:0000000000022f53 .LASF3178
C:\Users\CYMR90~1\AppData\Local\Temp\ccZ8Xcmd.s:26529  .debug_str:0000000000017591 .LASF3179
C:\Users\CYMR90~1\AppData\Local\Temp\ccZ8Xcmd.s:29927  .debug_str:0000000000024c14 .LASF3180
C:\Users\CYMR90~1\AppData\Local\Temp\ccZ8Xcmd.s:29313  .debug_str:0000000000022587 .LASF3181
C:\Users\CYMR90~1\AppData\Local\Temp\ccZ8Xcmd.s:26585  .debug_str:0000000000017962 .LASF3182
C:\Users\CYMR90~1\AppData\Local\Temp\ccZ8Xcmd.s:31523  .debug_str:000000000002b298 .LASF3183
C:\Users\CYMR90~1\AppData\Local\Temp\ccZ8Xcmd.s:31827  .debug_str:000000000002c714 .LASF3184
C:\Users\CYMR90~1\AppData\Local\Temp\ccZ8Xcmd.s:30235  .debug_str:00000000000260fc .LASF3185
C:\Users\CYMR90~1\AppData\Local\Temp\ccZ8Xcmd.s:21660  .debug_str:0000000000003b89 .LASF3186
C:\Users\CYMR90~1\AppData\Local\Temp\ccZ8Xcmd.s:24458  .debug_str:000000000000ef9f .LASF3187
C:\Users\CYMR90~1\AppData\Local\Temp\ccZ8Xcmd.s:21630  .debug_str:00000000000039b5 .LASF3188
C:\Users\CYMR90~1\AppData\Local\Temp\ccZ8Xcmd.s:25006  .debug_str:00000000000111e2 .LASF3189
C:\Users\CYMR90~1\AppData\Local\Temp\ccZ8Xcmd.s:24828  .debug_str:0000000000010702 .LASF3190
C:\Users\CYMR90~1\AppData\Local\Temp\ccZ8Xcmd.s:22354  .debug_str:0000000000006761 .LASF3191
C:\Users\CYMR90~1\AppData\Local\Temp\ccZ8Xcmd.s:25212  .debug_str:000000000001206e .LASF3192
C:\Users\CYMR90~1\AppData\Local\Temp\ccZ8Xcmd.s:24872  .debug_str:00000000000109e1 .LASF3193
C:\Users\CYMR90~1\AppData\Local\Temp\ccZ8Xcmd.s:22602  .debug_str:0000000000007783 .LASF3194
C:\Users\CYMR90~1\AppData\Local\Temp\ccZ8Xcmd.s:23292  .debug_str:000000000000a43b .LASF3195
C:\Users\CYMR90~1\AppData\Local\Temp\ccZ8Xcmd.s:25692  .debug_str:0000000000013f72 .LASF3196
C:\Users\CYMR90~1\AppData\Local\Temp\ccZ8Xcmd.s:28211  .debug_str:000000000001e299 .LASF3197
C:\Users\CYMR90~1\AppData\Local\Temp\ccZ8Xcmd.s:21814  .debug_str:00000000000045d7 .LASF3198
C:\Users\CYMR90~1\AppData\Local\Temp\ccZ8Xcmd.s:28755  .debug_str:0000000000020394 .LASF3199
C:\Users\CYMR90~1\AppData\Local\Temp\ccZ8Xcmd.s:29109  .debug_str:000000000002198f .LASF3200
C:\Users\CYMR90~1\AppData\Local\Temp\ccZ8Xcmd.s:23094  .debug_str:00000000000097f4 .LASF3201
C:\Users\CYMR90~1\AppData\Local\Temp\ccZ8Xcmd.s:22432  .debug_str:0000000000006c63 .LASF3202
C:\Users\CYMR90~1\AppData\Local\Temp\ccZ8Xcmd.s:22960  .debug_str:0000000000008f6f .LASF3203
C:\Users\CYMR90~1\AppData\Local\Temp\ccZ8Xcmd.s:29143  .debug_str:0000000000021bbd .LASF3204
C:\Users\CYMR90~1\AppData\Local\Temp\ccZ8Xcmd.s:31681  .debug_str:000000000002bd29 .LASF3205
C:\Users\CYMR90~1\AppData\Local\Temp\ccZ8Xcmd.s:22230  .debug_str:0000000000005fcd .LASF3206
C:\Users\CYMR90~1\AppData\Local\Temp\ccZ8Xcmd.s:20820  .debug_str:00000000000006cf .LASF3207
C:\Users\CYMR90~1\AppData\Local\Temp\ccZ8Xcmd.s:21818  .debug_str:0000000000004630 .LASF3208
C:\Users\CYMR90~1\AppData\Local\Temp\ccZ8Xcmd.s:25542  .debug_str:0000000000013671 .LASF3209
C:\Users\CYMR90~1\AppData\Local\Temp\ccZ8Xcmd.s:25284  .debug_str:00000000000124eb .LASF3210
C:\Users\CYMR90~1\AppData\Local\Temp\ccZ8Xcmd.s:28837  .debug_str:00000000000208b0 .LASF3211
C:\Users\CYMR90~1\AppData\Local\Temp\ccZ8Xcmd.s:20764  .debug_str:00000000000003b6 .LASF3212
C:\Users\CYMR90~1\AppData\Local\Temp\ccZ8Xcmd.s:28435  .debug_str:000000000001effd .LASF3213
C:\Users\CYMR90~1\AppData\Local\Temp\ccZ8Xcmd.s:27295  .debug_str:000000000001a7e9 .LASF3214
C:\Users\CYMR90~1\AppData\Local\Temp\ccZ8Xcmd.s:28201  .debug_str:000000000001e20a .LASF3215
C:\Users\CYMR90~1\AppData\Local\Temp\ccZ8Xcmd.s:27787  .debug_str:000000000001c6d7 .LASF3216
C:\Users\CYMR90~1\AppData\Local\Temp\ccZ8Xcmd.s:26653  .debug_str:0000000000017d3b .LASF3217
C:\Users\CYMR90~1\AppData\Local\Temp\ccZ8Xcmd.s:25172  .debug_str:0000000000011d6c .LASF3218
C:\Users\CYMR90~1\AppData\Local\Temp\ccZ8Xcmd.s:23176  .debug_str:0000000000009d0c .LASF3219
C:\Users\CYMR90~1\AppData\Local\Temp\ccZ8Xcmd.s:28077  .debug_str:000000000001d9d3 .LASF3220
C:\Users\CYMR90~1\AppData\Local\Temp\ccZ8Xcmd.s:25660  .debug_str:0000000000013d6d .LASF3221
C:\Users\CYMR90~1\AppData\Local\Temp\ccZ8Xcmd.s:27051  .debug_str:0000000000019758 .LASF3222
C:\Users\CYMR90~1\AppData\Local\Temp\ccZ8Xcmd.s:27365  .debug_str:000000000001ac51 .LASF3223
C:\Users\CYMR90~1\AppData\Local\Temp\ccZ8Xcmd.s:29855  .debug_str:00000000000247bb .LASF3224
C:\Users\CYMR90~1\AppData\Local\Temp\ccZ8Xcmd.s:31263  .debug_str:000000000002a24e .LASF3225
C:\Users\CYMR90~1\AppData\Local\Temp\ccZ8Xcmd.s:25050  .debug_str:00000000000114ba .LASF3226
C:\Users\CYMR90~1\AppData\Local\Temp\ccZ8Xcmd.s:28027  .debug_str:000000000001d726 .LASF3227
C:\Users\CYMR90~1\AppData\Local\Temp\ccZ8Xcmd.s:24130  .debug_str:000000000000dbb7 .LASF3228
C:\Users\CYMR90~1\AppData\Local\Temp\ccZ8Xcmd.s:25052  .debug_str:00000000000114d2 .LASF3229
C:\Users\CYMR90~1\AppData\Local\Temp\ccZ8Xcmd.s:22530  .debug_str:00000000000072fa .LASF3230
C:\Users\CYMR90~1\AppData\Local\Temp\ccZ8Xcmd.s:31309  .debug_str:000000000002a566 .LASF3231
C:\Users\CYMR90~1\AppData\Local\Temp\ccZ8Xcmd.s:30081  .debug_str:00000000000257b3 .LASF3232
C:\Users\CYMR90~1\AppData\Local\Temp\ccZ8Xcmd.s:21588  .debug_str:00000000000036f9 .LASF3233
C:\Users\CYMR90~1\AppData\Local\Temp\ccZ8Xcmd.s:24764  .debug_str:0000000000010329 .LASF3234
C:\Users\CYMR90~1\AppData\Local\Temp\ccZ8Xcmd.s:30751  .debug_str:00000000000282bf .LASF3235
C:\Users\CYMR90~1\AppData\Local\Temp\ccZ8Xcmd.s:25236  .debug_str:00000000000121da .LASF3236
C:\Users\CYMR90~1\AppData\Local\Temp\ccZ8Xcmd.s:23348  .debug_str:000000000000a7a8 .LASF3237
C:\Users\CYMR90~1\AppData\Local\Temp\ccZ8Xcmd.s:31581  .debug_str:000000000002b66e .LASF3238
C:\Users\CYMR90~1\AppData\Local\Temp\ccZ8Xcmd.s:23434  .debug_str:000000000000adda .LASF3239
C:\Users\CYMR90~1\AppData\Local\Temp\ccZ8Xcmd.s:27105  .debug_str:0000000000019abb .LASF3240
C:\Users\CYMR90~1\AppData\Local\Temp\ccZ8Xcmd.s:31337  .debug_str:000000000002a72f .LASF3241
C:\Users\CYMR90~1\AppData\Local\Temp\ccZ8Xcmd.s:26857  .debug_str:0000000000018969 .LASF3242
C:\Users\CYMR90~1\AppData\Local\Temp\ccZ8Xcmd.s:31377  .debug_str:000000000002a972 .LASF3243
C:\Users\CYMR90~1\AppData\Local\Temp\ccZ8Xcmd.s:28943  .debug_str:0000000000020ed6 .LASF3244
C:\Users\CYMR90~1\AppData\Local\Temp\ccZ8Xcmd.s:30323  .debug_str:00000000000266ae .LASF3245
C:\Users\CYMR90~1\AppData\Local\Temp\ccZ8Xcmd.s:23982  .debug_str:000000000000d2ed .LASF3246
C:\Users\CYMR90~1\AppData\Local\Temp\ccZ8Xcmd.s:29703  .debug_str:0000000000023c96 .LASF3247
C:\Users\CYMR90~1\AppData\Local\Temp\ccZ8Xcmd.s:25818  .debug_str:0000000000014709 .LASF3248
C:\Users\CYMR90~1\AppData\Local\Temp\ccZ8Xcmd.s:24654  .debug_str:000000000000fc57 .LASF3249
C:\Users\CYMR90~1\AppData\Local\Temp\ccZ8Xcmd.s:27775  .debug_str:000000000001c576 .LASF3250
C:\Users\CYMR90~1\AppData\Local\Temp\ccZ8Xcmd.s:30583  .debug_str:00000000000276bd .LASF3251
C:\Users\CYMR90~1\AppData\Local\Temp\ccZ8Xcmd.s:21610  .debug_str:0000000000003842 .LASF3252
C:\Users\CYMR90~1\AppData\Local\Temp\ccZ8Xcmd.s:29305  .debug_str:0000000000022509 .LASF3253
C:\Users\CYMR90~1\AppData\Local\Temp\ccZ8Xcmd.s:30761  .debug_str:0000000000028363 .LASF3254
C:\Users\CYMR90~1\AppData\Local\Temp\ccZ8Xcmd.s:22848  .debug_str:000000000000887f .LASF3255
C:\Users\CYMR90~1\AppData\Local\Temp\ccZ8Xcmd.s:29189  .debug_str:0000000000021e3a .LASF3256
C:\Users\CYMR90~1\AppData\Local\Temp\ccZ8Xcmd.s:26002  .debug_str:0000000000015296 .LASF3257
C:\Users\CYMR90~1\AppData\Local\Temp\ccZ8Xcmd.s:22942  .debug_str:0000000000008e94 .LASF3258
C:\Users\CYMR90~1\AppData\Local\Temp\ccZ8Xcmd.s:27917  .debug_str:000000000001d04f .LASF3259
C:\Users\CYMR90~1\AppData\Local\Temp\ccZ8Xcmd.s:25378  .debug_str:0000000000012b24 .LASF3260
C:\Users\CYMR90~1\AppData\Local\Temp\ccZ8Xcmd.s:23412  .debug_str:000000000000aba0 .LASF3261
C:\Users\CYMR90~1\AppData\Local\Temp\ccZ8Xcmd.s:27843  .debug_str:000000000001ca76 .LASF3262
C:\Users\CYMR90~1\AppData\Local\Temp\ccZ8Xcmd.s:29951  .debug_str:0000000000024da2 .LASF3263
C:\Users\CYMR90~1\AppData\Local\Temp\ccZ8Xcmd.s:21892  .debug_str:0000000000004b32 .LASF3264
C:\Users\CYMR90~1\AppData\Local\Temp\ccZ8Xcmd.s:31277  .debug_str:000000000002a33b .LASF3265
C:\Users\CYMR90~1\AppData\Local\Temp\ccZ8Xcmd.s:30145  .debug_str:0000000000025b80 .LASF3266
C:\Users\CYMR90~1\AppData\Local\Temp\ccZ8Xcmd.s:27149  .debug_str:0000000000019d27 .LASF3267
C:\Users\CYMR90~1\AppData\Local\Temp\ccZ8Xcmd.s:27159  .debug_str:0000000000019dc7 .LASF3268
C:\Users\CYMR90~1\AppData\Local\Temp\ccZ8Xcmd.s:30433  .debug_str:0000000000026d61 .LASF3269
C:\Users\CYMR90~1\AppData\Local\Temp\ccZ8Xcmd.s:25266  .debug_str:00000000000123a3 .LASF3270
C:\Users\CYMR90~1\AppData\Local\Temp\ccZ8Xcmd.s:31249  .debug_str:000000000002a199 .LASF3271
C:\Users\CYMR90~1\AppData\Local\Temp\ccZ8Xcmd.s:26819  .debug_str:0000000000018713 .LASF3272
C:\Users\CYMR90~1\AppData\Local\Temp\ccZ8Xcmd.s:30515  .debug_str:0000000000027304 .LASF3273
C:\Users\CYMR90~1\AppData\Local\Temp\ccZ8Xcmd.s:21794  .debug_str:0000000000004458 .LASF3274
C:\Users\CYMR90~1\AppData\Local\Temp\ccZ8Xcmd.s:24862  .debug_str:000000000001091c .LASF3275
C:\Users\CYMR90~1\AppData\Local\Temp\ccZ8Xcmd.s:28183  .debug_str:000000000001e0eb .LASF3276
C:\Users\CYMR90~1\AppData\Local\Temp\ccZ8Xcmd.s:25196  .debug_str:0000000000011f40 .LASF3277
C:\Users\CYMR90~1\AppData\Local\Temp\ccZ8Xcmd.s:24610  .debug_str:000000000000f984 .LASF3278
C:\Users\CYMR90~1\AppData\Local\Temp\ccZ8Xcmd.s:25376  .debug_str:0000000000012aeb .LASF3279
C:\Users\CYMR90~1\AppData\Local\Temp\ccZ8Xcmd.s:29417  .debug_str:0000000000022bb5 .LASF3280
C:\Users\CYMR90~1\AppData\Local\Temp\ccZ8Xcmd.s:26192  .debug_str:0000000000015e5d .LASF3281
C:\Users\CYMR90~1\AppData\Local\Temp\ccZ8Xcmd.s:27757  .debug_str:000000000001c42c .LASF3282
C:\Users\CYMR90~1\AppData\Local\Temp\ccZ8Xcmd.s:23634  .debug_str:000000000000baf8 .LASF3283
C:\Users\CYMR90~1\AppData\Local\Temp\ccZ8Xcmd.s:22634  .debug_str:00000000000079a9 .LASF3284
C:\Users\CYMR90~1\AppData\Local\Temp\ccZ8Xcmd.s:21948  .debug_str:0000000000004e87 .LASF3285
C:\Users\CYMR90~1\AppData\Local\Temp\ccZ8Xcmd.s:25326  .debug_str:00000000000127b8 .LASF3286
C:\Users\CYMR90~1\AppData\Local\Temp\ccZ8Xcmd.s:20976  .debug_str:00000000000010c9 .LASF3287
C:\Users\CYMR90~1\AppData\Local\Temp\ccZ8Xcmd.s:21062  .debug_str:0000000000001597 .LASF3288
C:\Users\CYMR90~1\AppData\Local\Temp\ccZ8Xcmd.s:30711  .debug_str:0000000000027faa .LASF3289
C:\Users\CYMR90~1\AppData\Local\Temp\ccZ8Xcmd.s:27431  .debug_str:000000000001b0dd .LASF3290
C:\Users\CYMR90~1\AppData\Local\Temp\ccZ8Xcmd.s:23902  .debug_str:000000000000cd3b .LASF3291
C:\Users\CYMR90~1\AppData\Local\Temp\ccZ8Xcmd.s:25780  .debug_str:00000000000144af .LASF3292
C:\Users\CYMR90~1\AppData\Local\Temp\ccZ8Xcmd.s:26765  .debug_str:00000000000183ff .LASF3293
C:\Users\CYMR90~1\AppData\Local\Temp\ccZ8Xcmd.s:30579  .debug_str:000000000002768e .LASF3294
C:\Users\CYMR90~1\AppData\Local\Temp\ccZ8Xcmd.s:28237  .debug_str:000000000001e416 .LASF3295
C:\Users\CYMR90~1\AppData\Local\Temp\ccZ8Xcmd.s:23720  .debug_str:000000000000c0d3 .LASF3296
C:\Users\CYMR90~1\AppData\Local\Temp\ccZ8Xcmd.s:24706  .debug_str:000000000000ffb7 .LASF3297
C:\Users\CYMR90~1\AppData\Local\Temp\ccZ8Xcmd.s:26252  .debug_str:000000000001621c .LASF3298
C:\Users\CYMR90~1\AppData\Local\Temp\ccZ8Xcmd.s:27211  .debug_str:000000000001a0be .LASF3299
C:\Users\CYMR90~1\AppData\Local\Temp\ccZ8Xcmd.s:28501  .debug_str:000000000001f3fd .LASF3300
C:\Users\CYMR90~1\AppData\Local\Temp\ccZ8Xcmd.s:24684  .debug_str:000000000000fe61 .LASF3301
C:\Users\CYMR90~1\AppData\Local\Temp\ccZ8Xcmd.s:31851  .debug_str:000000000002c8d7 .LASF3302
C:\Users\CYMR90~1\AppData\Local\Temp\ccZ8Xcmd.s:26573  .debug_str:0000000000017899 .LASF3303
C:\Users\CYMR90~1\AppData\Local\Temp\ccZ8Xcmd.s:30189  .debug_str:0000000000025e4f .LASF3304
C:\Users\CYMR90~1\AppData\Local\Temp\ccZ8Xcmd.s:23598  .debug_str:000000000000b87d .LASF3305
C:\Users\CYMR90~1\AppData\Local\Temp\ccZ8Xcmd.s:29499  .debug_str:0000000000023031 .LASF3306
C:\Users\CYMR90~1\AppData\Local\Temp\ccZ8Xcmd.s:25656  .debug_str:0000000000013d2b .LASF3307
C:\Users\CYMR90~1\AppData\Local\Temp\ccZ8Xcmd.s:28389  .debug_str:000000000001ecfb .LASF3308
C:\Users\CYMR90~1\AppData\Local\Temp\ccZ8Xcmd.s:24440  .debug_str:000000000000ee94 .LASF3309
C:\Users\CYMR90~1\AppData\Local\Temp\ccZ8Xcmd.s:31243  .debug_str:000000000002a13f .LASF3310
C:\Users\CYMR90~1\AppData\Local\Temp\ccZ8Xcmd.s:28007  .debug_str:000000000001d5da .LASF3311
C:\Users\CYMR90~1\AppData\Local\Temp\ccZ8Xcmd.s:30843  .debug_str:00000000000288e0 .LASF3312
C:\Users\CYMR90~1\AppData\Local\Temp\ccZ8Xcmd.s:25948  .debug_str:0000000000014f77 .LASF3313
C:\Users\CYMR90~1\AppData\Local\Temp\ccZ8Xcmd.s:25082  .debug_str:0000000000011783 .LASF3314
C:\Users\CYMR90~1\AppData\Local\Temp\ccZ8Xcmd.s:22984  .debug_str:00000000000090f5 .LASF3315
C:\Users\CYMR90~1\AppData\Local\Temp\ccZ8Xcmd.s:22560  .debug_str:00000000000074c1 .LASF3316
C:\Users\CYMR90~1\AppData\Local\Temp\ccZ8Xcmd.s:31969  .debug_str:000000000002d087 .LASF3317
C:\Users\CYMR90~1\AppData\Local\Temp\ccZ8Xcmd.s:21750  .debug_str:0000000000004184 .LASF3318
C:\Users\CYMR90~1\AppData\Local\Temp\ccZ8Xcmd.s:31497  .debug_str:000000000002b0b3 .LASF3319
C:\Users\CYMR90~1\AppData\Local\Temp\ccZ8Xcmd.s:24052  .debug_str:000000000000d760 .LASF3320
C:\Users\CYMR90~1\AppData\Local\Temp\ccZ8Xcmd.s:26743  .debug_str:0000000000018284 .LASF3321
C:\Users\CYMR90~1\AppData\Local\Temp\ccZ8Xcmd.s:26190  .debug_str:0000000000015e45 .LASF3322
C:\Users\CYMR90~1\AppData\Local\Temp\ccZ8Xcmd.s:29511  .debug_str:00000000000230d1 .LASF3323
C:\Users\CYMR90~1\AppData\Local\Temp\ccZ8Xcmd.s:20988  .debug_str:000000000000116f .LASF3324
C:\Users\CYMR90~1\AppData\Local\Temp\ccZ8Xcmd.s:21906  .debug_str:0000000000004c38 .LASF3325
C:\Users\CYMR90~1\AppData\Local\Temp\ccZ8Xcmd.s:29365  .debug_str:0000000000022862 .LASF3326
C:\Users\CYMR90~1\AppData\Local\Temp\ccZ8Xcmd.s:22152  .debug_str:0000000000005b02 .LASF3327
C:\Users\CYMR90~1\AppData\Local\Temp\ccZ8Xcmd.s:29689  .debug_str:0000000000023bcb .LASF3328
C:\Users\CYMR90~1\AppData\Local\Temp\ccZ8Xcmd.s:30109  .debug_str:000000000002598c .LASF3329
C:\Users\CYMR90~1\AppData\Local\Temp\ccZ8Xcmd.s:28827  .debug_str:000000000002083c .LASF3330
C:\Users\CYMR90~1\AppData\Local\Temp\ccZ8Xcmd.s:26088  .debug_str:000000000001579b .LASF3331
C:\Users\CYMR90~1\AppData\Local\Temp\ccZ8Xcmd.s:25838  .debug_str:0000000000014834 .LASF3332
C:\Users\CYMR90~1\AppData\Local\Temp\ccZ8Xcmd.s:26563  .debug_str:00000000000177e4 .LASF3333
C:\Users\CYMR90~1\AppData\Local\Temp\ccZ8Xcmd.s:28723  .debug_str:000000000002014a .LASF3334
C:\Users\CYMR90~1\AppData\Local\Temp\ccZ8Xcmd.s:22526  .debug_str:00000000000072cc .LASF3335
C:\Users\CYMR90~1\AppData\Local\Temp\ccZ8Xcmd.s:20758  .debug_str:000000000000035d .LASF3336
C:\Users\CYMR90~1\AppData\Local\Temp\ccZ8Xcmd.s:30865  .debug_str:0000000000028a38 .LASF3337
C:\Users\CYMR90~1\AppData\Local\Temp\ccZ8Xcmd.s:20884  .debug_str:0000000000000b12 .LASF3338
C:\Users\CYMR90~1\AppData\Local\Temp\ccZ8Xcmd.s:29195  .debug_str:0000000000021eae .LASF3339
C:\Users\CYMR90~1\AppData\Local\Temp\ccZ8Xcmd.s:25984  .debug_str:00000000000151b6 .LASF3340
C:\Users\CYMR90~1\AppData\Local\Temp\ccZ8Xcmd.s:25636  .debug_str:0000000000013bfe .LASF3341
C:\Users\CYMR90~1\AppData\Local\Temp\ccZ8Xcmd.s:23926  .debug_str:000000000000cee3 .LASF3342
C:\Users\CYMR90~1\AppData\Local\Temp\ccZ8Xcmd.s:29501  .debug_str:0000000000023057 .LASF3343
C:\Users\CYMR90~1\AppData\Local\Temp\ccZ8Xcmd.s:27473  .debug_str:000000000001b375 .LASF3344
C:\Users\CYMR90~1\AppData\Local\Temp\ccZ8Xcmd.s:25444  .debug_str:0000000000012f79 .LASF3345
C:\Users\CYMR90~1\AppData\Local\Temp\ccZ8Xcmd.s:29949  .debug_str:0000000000024d84 .LASF3346
C:\Users\CYMR90~1\AppData\Local\Temp\ccZ8Xcmd.s:24576  .debug_str:000000000000f797 .LASF3347
C:\Users\CYMR90~1\AppData\Local\Temp\ccZ8Xcmd.s:29415  .debug_str:0000000000022b99 .LASF3348
C:\Users\CYMR90~1\AppData\Local\Temp\ccZ8Xcmd.s:25476  .debug_str:00000000000131bd .LASF3349
C:\Users\CYMR90~1\AppData\Local\Temp\ccZ8Xcmd.s:27959  .debug_str:000000000001d2c2 .LASF3350
C:\Users\CYMR90~1\AppData\Local\Temp\ccZ8Xcmd.s:30625  .debug_str:00000000000279a3 .LASF3351
C:\Users\CYMR90~1\AppData\Local\Temp\ccZ8Xcmd.s:31891  .debug_str:000000000002cb6c .LASF3352
C:\Users\CYMR90~1\AppData\Local\Temp\ccZ8Xcmd.s:22546  .debug_str:00000000000073de .LASF3353
C:\Users\CYMR90~1\AppData\Local\Temp\ccZ8Xcmd.s:21678  .debug_str:0000000000003cad .LASF3354
C:\Users\CYMR90~1\AppData\Local\Temp\ccZ8Xcmd.s:31571  .debug_str:000000000002b5a2 .LASF3355
C:\Users\CYMR90~1\AppData\Local\Temp\ccZ8Xcmd.s:23440  .debug_str:000000000000ae3b .LASF3356
C:\Users\CYMR90~1\AppData\Local\Temp\ccZ8Xcmd.s:25630  .debug_str:0000000000013bb0 .LASF3357
C:\Users\CYMR90~1\AppData\Local\Temp\ccZ8Xcmd.s:21940  .debug_str:0000000000004e27 .LASF3358
C:\Users\CYMR90~1\AppData\Local\Temp\ccZ8Xcmd.s:30449  .debug_str:0000000000026e56 .LASF3359
C:\Users\CYMR90~1\AppData\Local\Temp\ccZ8Xcmd.s:22130  .debug_str:000000000000599d .LASF3360
C:\Users\CYMR90~1\AppData\Local\Temp\ccZ8Xcmd.s:23538  .debug_str:000000000000b466 .LASF3361
C:\Users\CYMR90~1\AppData\Local\Temp\ccZ8Xcmd.s:22064  .debug_str:0000000000005586 .LASF3362
C:\Users\CYMR90~1\AppData\Local\Temp\ccZ8Xcmd.s:25190  .debug_str:0000000000011ecf .LASF3363
C:\Users\CYMR90~1\AppData\Local\Temp\ccZ8Xcmd.s:30615  .debug_str:0000000000027906 .LASF3364
C:\Users\CYMR90~1\AppData\Local\Temp\ccZ8Xcmd.s:26997  .debug_str:000000000001936d .LASF3365
C:\Users\CYMR90~1\AppData\Local\Temp\ccZ8Xcmd.s:25778  .debug_str:0000000000014474 .LASF3366
C:\Users\CYMR90~1\AppData\Local\Temp\ccZ8Xcmd.s:31921  .debug_str:000000000002cda8 .LASF3367
C:\Users\CYMR90~1\AppData\Local\Temp\ccZ8Xcmd.s:28471  .debug_str:000000000001f21d .LASF3368
C:\Users\CYMR90~1\AppData\Local\Temp\ccZ8Xcmd.s:25122  .debug_str:0000000000011a75 .LASF3369
C:\Users\CYMR90~1\AppData\Local\Temp\ccZ8Xcmd.s:22252  .debug_str:00000000000060ee .LASF3370
C:\Users\CYMR90~1\AppData\Local\Temp\ccZ8Xcmd.s:29555  .debug_str:00000000000233a1 .LASF3371
C:\Users\CYMR90~1\AppData\Local\Temp\ccZ8Xcmd.s:26144  .debug_str:0000000000015afe .LASF3372
C:\Users\CYMR90~1\AppData\Local\Temp\ccZ8Xcmd.s:22764  .debug_str:000000000000833b .LASF3373
C:\Users\CYMR90~1\AppData\Local\Temp\ccZ8Xcmd.s:26689  .debug_str:0000000000017f16 .LASF3374
C:\Users\CYMR90~1\AppData\Local\Temp\ccZ8Xcmd.s:31635  .debug_str:000000000002ba1d .LASF3375
C:\Users\CYMR90~1\AppData\Local\Temp\ccZ8Xcmd.s:30183  .debug_str:0000000000025db4 .LASF3376
C:\Users\CYMR90~1\AppData\Local\Temp\ccZ8Xcmd.s:21078  .debug_str:0000000000001754 .LASF3377
C:\Users\CYMR90~1\AppData\Local\Temp\ccZ8Xcmd.s:22104  .debug_str:00000000000057c6 .LASF3378
C:\Users\CYMR90~1\AppData\Local\Temp\ccZ8Xcmd.s:28245  .debug_str:000000000001e462 .LASF3379
C:\Users\CYMR90~1\AppData\Local\Temp\ccZ8Xcmd.s:28479  .debug_str:000000000001f2b4 .LASF3380
C:\Users\CYMR90~1\AppData\Local\Temp\ccZ8Xcmd.s:29601  .debug_str:00000000000236b7 .LASF3381
C:\Users\CYMR90~1\AppData\Local\Temp\ccZ8Xcmd.s:21076  .debug_str:0000000000001733 .LASF3382
C:\Users\CYMR90~1\AppData\Local\Temp\ccZ8Xcmd.s:26799  .debug_str:00000000000185ae .LASF3383
C:\Users\CYMR90~1\AppData\Local\Temp\ccZ8Xcmd.s:31873  .debug_str:000000000002ca4f .LASF3384
C:\Users\CYMR90~1\AppData\Local\Temp\ccZ8Xcmd.s:23510  .debug_str:000000000000b239 .LASF3385
C:\Users\CYMR90~1\AppData\Local\Temp\ccZ8Xcmd.s:26671  .debug_str:0000000000017e37 .LASF3386
C:\Users\CYMR90~1\AppData\Local\Temp\ccZ8Xcmd.s:21020  .debug_str:000000000000134a .LASF3387
C:\Users\CYMR90~1\AppData\Local\Temp\ccZ8Xcmd.s:30773  .debug_str:000000000002842d .LASF3388
C:\Users\CYMR90~1\AppData\Local\Temp\ccZ8Xcmd.s:23728  .debug_str:000000000000c149 .LASF3389
C:\Users\CYMR90~1\AppData\Local\Temp\ccZ8Xcmd.s:23986  .debug_str:000000000000d338 .LASF3390
C:\Users\CYMR90~1\AppData\Local\Temp\ccZ8Xcmd.s:31631  .debug_str:000000000002b9d2 .LASF3391
C:\Users\CYMR90~1\AppData\Local\Temp\ccZ8Xcmd.s:28669  .debug_str:000000000001fe51 .LASF3392
C:\Users\CYMR90~1\AppData\Local\Temp\ccZ8Xcmd.s:24472  .debug_str:000000000000f096 .LASF3393
C:\Users\CYMR90~1\AppData\Local\Temp\ccZ8Xcmd.s:30107  .debug_str:0000000000025964 .LASF3394
C:\Users\CYMR90~1\AppData\Local\Temp\ccZ8Xcmd.s:29045  .debug_str:000000000002159b .LASF3395
C:\Users\CYMR90~1\AppData\Local\Temp\ccZ8Xcmd.s:24726  .debug_str:00000000000100e4 .LASF3396
C:\Users\CYMR90~1\AppData\Local\Temp\ccZ8Xcmd.s:28667  .debug_str:000000000001fe2a .LASF3397
C:\Users\CYMR90~1\AppData\Local\Temp\ccZ8Xcmd.s:25788  .debug_str:0000000000014563 .LASF3398
C:\Users\CYMR90~1\AppData\Local\Temp\ccZ8Xcmd.s:31507  .debug_str:000000000002b17c .LASF3399
C:\Users\CYMR90~1\AppData\Local\Temp\ccZ8Xcmd.s:22774  .debug_str:00000000000083d2 .LASF3400
C:\Users\CYMR90~1\AppData\Local\Temp\ccZ8Xcmd.s:28703  .debug_str:0000000000020036 .LASF3401
C:\Users\CYMR90~1\AppData\Local\Temp\ccZ8Xcmd.s:30241  .debug_str:000000000002615b .LASF3402
C:\Users\CYMR90~1\AppData\Local\Temp\ccZ8Xcmd.s:31923  .debug_str:000000000002cdcf .LASF3403
C:\Users\CYMR90~1\AppData\Local\Temp\ccZ8Xcmd.s:23156  .debug_str:0000000000009be2 .LASF3404
C:\Users\CYMR90~1\AppData\Local\Temp\ccZ8Xcmd.s:27035  .debug_str:00000000000195b6 .LASF3405
C:\Users\CYMR90~1\AppData\Local\Temp\ccZ8Xcmd.s:24446  .debug_str:000000000000eeda .LASF3406
C:\Users\CYMR90~1\AppData\Local\Temp\ccZ8Xcmd.s:28387  .debug_str:000000000001ecdd .LASF3407
C:\Users\CYMR90~1\AppData\Local\Temp\ccZ8Xcmd.s:31805  .debug_str:000000000002c5e1 .LASF3408
C:\Users\CYMR90~1\AppData\Local\Temp\ccZ8Xcmd.s:31437  .debug_str:000000000002ad2a .LASF3409
C:\Users\CYMR90~1\AppData\Local\Temp\ccZ8Xcmd.s:27623  .debug_str:000000000001bc58 .LASF3410
C:\Users\CYMR90~1\AppData\Local\Temp\ccZ8Xcmd.s:21664  .debug_str:0000000000003bd7 .LASF3411
C:\Users\CYMR90~1\AppData\Local\Temp\ccZ8Xcmd.s:23424  .debug_str:000000000000ac96 .LASF3412
C:\Users\CYMR90~1\AppData\Local\Temp\ccZ8Xcmd.s:24468  .debug_str:000000000000f048 .LASF3413
C:\Users\CYMR90~1\AppData\Local\Temp\ccZ8Xcmd.s:29123  .debug_str:0000000000021a53 .LASF3414
C:\Users\CYMR90~1\AppData\Local\Temp\ccZ8Xcmd.s:26356  .debug_str:00000000000169b4 .LASF3415
C:\Users\CYMR90~1\AppData\Local\Temp\ccZ8Xcmd.s:28147  .debug_str:000000000001debc .LASF3416
C:\Users\CYMR90~1\AppData\Local\Temp\ccZ8Xcmd.s:27383  .debug_str:000000000001ad89 .LASF3417
C:\Users\CYMR90~1\AppData\Local\Temp\ccZ8Xcmd.s:29147  .debug_str:0000000000021be3 .LASF3418
C:\Users\CYMR90~1\AppData\Local\Temp\ccZ8Xcmd.s:23390  .debug_str:000000000000aa52 .LASF3419
C:\Users\CYMR90~1\AppData\Local\Temp\ccZ8Xcmd.s:25754  .debug_str:00000000000142fb .LASF3420
C:\Users\CYMR90~1\AppData\Local\Temp\ccZ8Xcmd.s:22198  .debug_str:0000000000005da1 .LASF3421
C:\Users\CYMR90~1\AppData\Local\Temp\ccZ8Xcmd.s:28883  .debug_str:0000000000020bb3 .LASF3422
C:\Users\CYMR90~1\AppData\Local\Temp\ccZ8Xcmd.s:25364  .debug_str:0000000000012a25 .LASF3423
C:\Users\CYMR90~1\AppData\Local\Temp\ccZ8Xcmd.s:27449  .debug_str:000000000001b1fe .LASF3424
C:\Users\CYMR90~1\AppData\Local\Temp\ccZ8Xcmd.s:27163  .debug_str:0000000000019dfb .LASF3425
C:\Users\CYMR90~1\AppData\Local\Temp\ccZ8Xcmd.s:21960  .debug_str:0000000000004f60 .LASF3426
C:\Users\CYMR90~1\AppData\Local\Temp\ccZ8Xcmd.s:28747  .debug_str:00000000000202f7 .LASF3427
C:\Users\CYMR90~1\AppData\Local\Temp\ccZ8Xcmd.s:25440  .debug_str:0000000000012f3a .LASF3428
C:\Users\CYMR90~1\AppData\Local\Temp\ccZ8Xcmd.s:23266  .debug_str:000000000000a2d7 .LASF3429
C:\Users\CYMR90~1\AppData\Local\Temp\ccZ8Xcmd.s:27777  .debug_str:000000000001c59b .LASF3430
C:\Users\CYMR90~1\AppData\Local\Temp\ccZ8Xcmd.s:22466  .debug_str:0000000000006e78 .LASF3431
C:\Users\CYMR90~1\AppData\Local\Temp\ccZ8Xcmd.s:30427  .debug_str:0000000000026cfd .LASF3432
C:\Users\CYMR90~1\AppData\Local\Temp\ccZ8Xcmd.s:28697  .debug_str:000000000001ffcb .LASF3433
C:\Users\CYMR90~1\AppData\Local\Temp\ccZ8Xcmd.s:22196  .debug_str:0000000000005d90 .LASF3434
C:\Users\CYMR90~1\AppData\Local\Temp\ccZ8Xcmd.s:21188  .debug_str:0000000000001dc4 .LASF3435
C:\Users\CYMR90~1\AppData\Local\Temp\ccZ8Xcmd.s:26747  .debug_str:00000000000182bb .LASF3436
C:\Users\CYMR90~1\AppData\Local\Temp\ccZ8Xcmd.s:26461  .debug_str:000000000001718b .LASF3437
C:\Users\CYMR90~1\AppData\Local\Temp\ccZ8Xcmd.s:27497  .debug_str:000000000001b4c6 .LASF3438
C:\Users\CYMR90~1\AppData\Local\Temp\ccZ8Xcmd.s:24144  .debug_str:000000000000dcc2 .LASF3439
C:\Users\CYMR90~1\AppData\Local\Temp\ccZ8Xcmd.s:28875  .debug_str:0000000000020b48 .LASF3440
C:\Users\CYMR90~1\AppData\Local\Temp\ccZ8Xcmd.s:29751  .debug_str:0000000000024065 .LASF3441
C:\Users\CYMR90~1\AppData\Local\Temp\ccZ8Xcmd.s:30627  .debug_str:00000000000279ba .LASF3442
C:\Users\CYMR90~1\AppData\Local\Temp\ccZ8Xcmd.s:28999  .debug_str:00000000000212d4 .LASF3443
C:\Users\CYMR90~1\AppData\Local\Temp\ccZ8Xcmd.s:30267  .debug_str:00000000000262dc .LASF3444
C:\Users\CYMR90~1\AppData\Local\Temp\ccZ8Xcmd.s:22484  .debug_str:0000000000006fe6 .LASF3445
C:\Users\CYMR90~1\AppData\Local\Temp\ccZ8Xcmd.s:27507  .debug_str:000000000001b57c .LASF3446
C:\Users\CYMR90~1\AppData\Local\Temp\ccZ8Xcmd.s:21280  .debug_str:000000000000229e .LASF3447
C:\Users\CYMR90~1\AppData\Local\Temp\ccZ8Xcmd.s:30023  .debug_str:00000000000252f9 .LASF3448
C:\Users\CYMR90~1\AppData\Local\Temp\ccZ8Xcmd.s:23732  .debug_str:000000000000c18e .LASF3449
C:\Users\CYMR90~1\AppData\Local\Temp\ccZ8Xcmd.s:26224  .debug_str:0000000000016075 .LASF3450
C:\Users\CYMR90~1\AppData\Local\Temp\ccZ8Xcmd.s:30463  .debug_str:0000000000026f0d .LASF3451
C:\Users\CYMR90~1\AppData\Local\Temp\ccZ8Xcmd.s:23376  .debug_str:000000000000a969 .LASF3452
C:\Users\CYMR90~1\AppData\Local\Temp\ccZ8Xcmd.s:24224  .debug_str:000000000000e182 .LASF3453
C:\Users\CYMR90~1\AppData\Local\Temp\ccZ8Xcmd.s:21876  .debug_str:0000000000004a3f .LASF3454
C:\Users\CYMR90~1\AppData\Local\Temp\ccZ8Xcmd.s:20878  .debug_str:0000000000000a98 .LASF3455
C:\Users\CYMR90~1\AppData\Local\Temp\ccZ8Xcmd.s:29157  .debug_str:0000000000021c87 .LASF3456
C:\Users\CYMR90~1\AppData\Local\Temp\ccZ8Xcmd.s:23396  .debug_str:000000000000aaa7 .LASF3457
C:\Users\CYMR90~1\AppData\Local\Temp\ccZ8Xcmd.s:21580  .debug_str:0000000000003659 .LASF3458
C:\Users\CYMR90~1\AppData\Local\Temp\ccZ8Xcmd.s:21044  .debug_str:000000000000147c .LASF3459
C:\Users\CYMR90~1\AppData\Local\Temp\ccZ8Xcmd.s:26767  .debug_str:0000000000018418 .LASF3460
C:\Users\CYMR90~1\AppData\Local\Temp\ccZ8Xcmd.s:26246  .debug_str:00000000000161c2 .LASF3461
C:\Users\CYMR90~1\AppData\Local\Temp\ccZ8Xcmd.s:25428  .debug_str:0000000000012e6e .LASF3462
C:\Users\CYMR90~1\AppData\Local\Temp\ccZ8Xcmd.s:27111  .debug_str:0000000000019b24 .LASF3463
C:\Users\CYMR90~1\AppData\Local\Temp\ccZ8Xcmd.s:31403  .debug_str:000000000002ab10 .LASF3464
C:\Users\CYMR90~1\AppData\Local\Temp\ccZ8Xcmd.s:26308  .debug_str:00000000000165c8 .LASF3465
C:\Users\CYMR90~1\AppData\Local\Temp\ccZ8Xcmd.s:25342  .debug_str:00000000000128ed .LASF3466
C:\Users\CYMR90~1\AppData\Local\Temp\ccZ8Xcmd.s:27405  .debug_str:000000000001af3a .LASF3467
C:\Users\CYMR90~1\AppData\Local\Temp\ccZ8Xcmd.s:30297  .debug_str:00000000000264d7 .LASF3468
C:\Users\CYMR90~1\AppData\Local\Temp\ccZ8Xcmd.s:22698  .debug_str:0000000000007ede .LASF3469
C:\Users\CYMR90~1\AppData\Local\Temp\ccZ8Xcmd.s:21402  .debug_str:0000000000002ab5 .LASF3470
C:\Users\CYMR90~1\AppData\Local\Temp\ccZ8Xcmd.s:22212  .debug_str:0000000000005e94 .LASF3471
C:\Users\CYMR90~1\AppData\Local\Temp\ccZ8Xcmd.s:28425  .debug_str:000000000001ef69 .LASF3472
C:\Users\CYMR90~1\AppData\Local\Temp\ccZ8Xcmd.s:28715  .debug_str:00000000000200de .LASF3473
C:\Users\CYMR90~1\AppData\Local\Temp\ccZ8Xcmd.s:29245  .debug_str:0000000000022182 .LASF3474
C:\Users\CYMR90~1\AppData\Local\Temp\ccZ8Xcmd.s:24860  .debug_str:0000000000010904 .LASF3475
C:\Users\CYMR90~1\AppData\Local\Temp\ccZ8Xcmd.s:22410  .debug_str:0000000000006af0 .LASF3476
C:\Users\CYMR90~1\AppData\Local\Temp\ccZ8Xcmd.s:31557  .debug_str:000000000002b509 .LASF3477
C:\Users\CYMR90~1\AppData\Local\Temp\ccZ8Xcmd.s:31391  .debug_str:000000000002aa4f .LASF3478
C:\Users\CYMR90~1\AppData\Local\Temp\ccZ8Xcmd.s:28099  .debug_str:000000000001dbb7 .LASF3479
C:\Users\CYMR90~1\AppData\Local\Temp\ccZ8Xcmd.s:20860  .debug_str:0000000000000916 .LASF3480
C:\Users\CYMR90~1\AppData\Local\Temp\ccZ8Xcmd.s:30393  .debug_str:0000000000026ab5 .LASF3481
C:\Users\CYMR90~1\AppData\Local\Temp\ccZ8Xcmd.s:24638  .debug_str:000000000000fb48 .LASF3482
C:\Users\CYMR90~1\AppData\Local\Temp\ccZ8Xcmd.s:31863  .debug_str:000000000002c998 .LASF3483
C:\Users\CYMR90~1\AppData\Local\Temp\ccZ8Xcmd.s:26933  .debug_str:0000000000018f88 .LASF3484
C:\Users\CYMR90~1\AppData\Local\Temp\ccZ8Xcmd.s:31495  .debug_str:000000000002b099 .LASF3485
C:\Users\CYMR90~1\AppData\Local\Temp\ccZ8Xcmd.s:26973  .debug_str:00000000000191e7 .LASF3486
C:\Users\CYMR90~1\AppData\Local\Temp\ccZ8Xcmd.s:29229  .debug_str:00000000000220ac .LASF3487
C:\Users\CYMR90~1\AppData\Local\Temp\ccZ8Xcmd.s:25686  .debug_str:0000000000013ee2 .LASF3488
C:\Users\CYMR90~1\AppData\Local\Temp\ccZ8Xcmd.s:23826  .debug_str:000000000000c7fd .LASF3489
C:\Users\CYMR90~1\AppData\Local\Temp\ccZ8Xcmd.s:21466  .debug_str:0000000000002ea0 .LASF3490
C:\Users\CYMR90~1\AppData\Local\Temp\ccZ8Xcmd.s:27289  .debug_str:000000000001a795 .LASF3491
C:\Users\CYMR90~1\AppData\Local\Temp\ccZ8Xcmd.s:21258  .debug_str:0000000000002177 .LASF3492
C:\Users\CYMR90~1\AppData\Local\Temp\ccZ8Xcmd.s:31195  .debug_str:0000000000029e75 .LASF3493
C:\Users\CYMR90~1\AppData\Local\Temp\ccZ8Xcmd.s:30381  .debug_str:0000000000026a22 .LASF3494
C:\Users\CYMR90~1\AppData\Local\Temp\ccZ8Xcmd.s:29289  .debug_str:00000000000223f4 .LASF3495
C:\Users\CYMR90~1\AppData\Local\Temp\ccZ8Xcmd.s:29965  .debug_str:0000000000024e6b .LASF3496
C:\Users\CYMR90~1\AppData\Local\Temp\ccZ8Xcmd.s:28097  .debug_str:000000000001db9b .LASF3497
C:\Users\CYMR90~1\AppData\Local\Temp\ccZ8Xcmd.s:28155  .debug_str:000000000001df40 .LASF3498
C:\Users\CYMR90~1\AppData\Local\Temp\ccZ8Xcmd.s:27199  .debug_str:000000000001a00b .LASF3499
C:\Users\CYMR90~1\AppData\Local\Temp\ccZ8Xcmd.s:20766  .debug_str:00000000000003d3 .LASF3500
C:\Users\CYMR90~1\AppData\Local\Temp\ccZ8Xcmd.s:26551  .debug_str:00000000000176f1 .LASF3501
C:\Users\CYMR90~1\AppData\Local\Temp\ccZ8Xcmd.s:30151  .debug_str:0000000000025bd6 .LASF3502
C:\Users\CYMR90~1\AppData\Local\Temp\ccZ8Xcmd.s:21990  .debug_str:0000000000005123 .LASF3503
C:\Users\CYMR90~1\AppData\Local\Temp\ccZ8Xcmd.s:21090  .debug_str:0000000000001829 .LASF3504
C:\Users\CYMR90~1\AppData\Local\Temp\ccZ8Xcmd.s:26096  .debug_str:0000000000015802 .LASF3505
C:\Users\CYMR90~1\AppData\Local\Temp\ccZ8Xcmd.s:24548  .debug_str:000000000000f521 .LASF3506
C:\Users\CYMR90~1\AppData\Local\Temp\ccZ8Xcmd.s:23070  .debug_str:0000000000009626 .LASF3507
C:\Users\CYMR90~1\AppData\Local\Temp\ccZ8Xcmd.s:28169  .debug_str:000000000001e02b .LASF3508
C:\Users\CYMR90~1\AppData\Local\Temp\ccZ8Xcmd.s:21180  .debug_str:0000000000001d4e .LASF3509
C:\Users\CYMR90~1\AppData\Local\Temp\ccZ8Xcmd.s:28487  .debug_str:000000000001f348 .LASF3510
C:\Users\CYMR90~1\AppData\Local\Temp\ccZ8Xcmd.s:23048  .debug_str:00000000000094fb .LASF3511
C:\Users\CYMR90~1\AppData\Local\Temp\ccZ8Xcmd.s:26679  .debug_str:0000000000017eb9 .LASF3512
C:\Users\CYMR90~1\AppData\Local\Temp\ccZ8Xcmd.s:30255  .debug_str:0000000000026224 .LASF3513
C:\Users\CYMR90~1\AppData\Local\Temp\ccZ8Xcmd.s:24182  .debug_str:000000000000deee .LASF3514
C:\Users\CYMR90~1\AppData\Local\Temp\ccZ8Xcmd.s:28229  .debug_str:000000000001e3bb .LASF3515
C:\Users\CYMR90~1\AppData\Local\Temp\ccZ8Xcmd.s:31759  .debug_str:000000000002c28a .LASF3516
C:\Users\CYMR90~1\AppData\Local\Temp\ccZ8Xcmd.s:24496  .debug_str:000000000000f22d .LASF3517
C:\Users\CYMR90~1\AppData\Local\Temp\ccZ8Xcmd.s:28525  .debug_str:000000000001f56d .LASF3518
C:\Users\CYMR90~1\AppData\Local\Temp\ccZ8Xcmd.s:21860  .debug_str:0000000000004950 .LASF3519
C:\Users\CYMR90~1\AppData\Local\Temp\ccZ8Xcmd.s:28421  .debug_str:000000000001ef35 .LASF3520
C:\Users\CYMR90~1\AppData\Local\Temp\ccZ8Xcmd.s:24192  .debug_str:000000000000df8e .LASF3521
C:\Users\CYMR90~1\AppData\Local\Temp\ccZ8Xcmd.s:31509  .debug_str:000000000002b1a3 .LASF3522
C:\Users\CYMR90~1\AppData\Local\Temp\ccZ8Xcmd.s:29073  .debug_str:0000000000021749 .LASF3523
C:\Users\CYMR90~1\AppData\Local\Temp\ccZ8Xcmd.s:26441  .debug_str:0000000000017061 .LASF3524
C:\Users\CYMR90~1\AppData\Local\Temp\ccZ8Xcmd.s:27969  .debug_str:000000000001d36f .LASF3525
C:\Users\CYMR90~1\AppData\Local\Temp\ccZ8Xcmd.s:26493  .debug_str:000000000001733f .LASF3526
C:\Users\CYMR90~1\AppData\Local\Temp\ccZ8Xcmd.s:29985  .debug_str:000000000002500e .LASF3527
C:\Users\CYMR90~1\AppData\Local\Temp\ccZ8Xcmd.s:30769  .debug_str:00000000000283f9 .LASF3528
C:\Users\CYMR90~1\AppData\Local\Temp\ccZ8Xcmd.s:29047  .debug_str:00000000000215da .LASF3529
C:\Users\CYMR90~1\AppData\Local\Temp\ccZ8Xcmd.s:24748  .debug_str:000000000001022a .LASF3530
C:\Users\CYMR90~1\AppData\Local\Temp\ccZ8Xcmd.s:25886  .debug_str:0000000000014b37 .LASF3531
C:\Users\CYMR90~1\AppData\Local\Temp\ccZ8Xcmd.s:31883  .debug_str:000000000002cb0e .LASF3532
C:\Users\CYMR90~1\AppData\Local\Temp\ccZ8Xcmd.s:23914  .debug_str:000000000000ce3c .LASF3533
C:\Users\CYMR90~1\AppData\Local\Temp\ccZ8Xcmd.s:26729  .debug_str:00000000000181be .LASF3534
C:\Users\CYMR90~1\AppData\Local\Temp\ccZ8Xcmd.s:23074  .debug_str:0000000000009658 .LASF3535
C:\Users\CYMR90~1\AppData\Local\Temp\ccZ8Xcmd.s:30253  .debug_str:0000000000026207 .LASF3536
C:\Users\CYMR90~1\AppData\Local\Temp\ccZ8Xcmd.s:31333  .debug_str:000000000002a6ef .LASF3537
C:\Users\CYMR90~1\AppData\Local\Temp\ccZ8Xcmd.s:23620  .debug_str:000000000000b9cb .LASF3538
C:\Users\CYMR90~1\AppData\Local\Temp\ccZ8Xcmd.s:30735  .debug_str:00000000000281c5 .LASF3539
C:\Users\CYMR90~1\AppData\Local\Temp\ccZ8Xcmd.s:27629  .debug_str:000000000001bcd0 .LASF3540
C:\Users\CYMR90~1\AppData\Local\Temp\ccZ8Xcmd.s:31207  .debug_str:0000000000029f19 .LASF3541
C:\Users\CYMR90~1\AppData\Local\Temp\ccZ8Xcmd.s:21252  .debug_str:0000000000002126 .LASF3542
C:\Users\CYMR90~1\AppData\Local\Temp\ccZ8Xcmd.s:30311  .debug_str:00000000000265eb .LASF3543
C:\Users\CYMR90~1\AppData\Local\Temp\ccZ8Xcmd.s:27063  .debug_str:0000000000019834 .LASF3544
C:\Users\CYMR90~1\AppData\Local\Temp\ccZ8Xcmd.s:26991  .debug_str:000000000001931b .LASF3545
C:\Users\CYMR90~1\AppData\Local\Temp\ccZ8Xcmd.s:27411  .debug_str:000000000001af71 .LASF3546
C:\Users\CYMR90~1\AppData\Local\Temp\ccZ8Xcmd.s:21260  .debug_str:0000000000002193 .LASF3547
C:\Users\CYMR90~1\AppData\Local\Temp\ccZ8Xcmd.s:30655  .debug_str:0000000000027bd3 .LASF3548
C:\Users\CYMR90~1\AppData\Local\Temp\ccZ8Xcmd.s:28055  .debug_str:000000000001d8ba .LASF3549
C:\Users\CYMR90~1\AppData\Local\Temp\ccZ8Xcmd.s:21870  .debug_str:00000000000049ee .LASF3550
C:\Users\CYMR90~1\AppData\Local\Temp\ccZ8Xcmd.s:28005  .debug_str:000000000001d5bf .LASF3551
C:\Users\CYMR90~1\AppData\Local\Temp\ccZ8Xcmd.s:28835  .debug_str:0000000000020897 .LASF3552
C:\Users\CYMR90~1\AppData\Local\Temp\ccZ8Xcmd.s:31713  .debug_str:000000000002bfb2 .LASF3553
C:\Users\CYMR90~1\AppData\Local\Temp\ccZ8Xcmd.s:29659  .debug_str:0000000000023a0d .LASF3554
C:\Users\CYMR90~1\AppData\Local\Temp\ccZ8Xcmd.s:20818  .debug_str:00000000000006b5 .LASF3555
C:\Users\CYMR90~1\AppData\Local\Temp\ccZ8Xcmd.s:24410  .debug_str:000000000000ecc7 .LASF3556
C:\Users\CYMR90~1\AppData\Local\Temp\ccZ8Xcmd.s:25792  .debug_str:00000000000145a6 .LASF3557
C:\Users\CYMR90~1\AppData\Local\Temp\ccZ8Xcmd.s:29613  .debug_str:0000000000023754 .LASF3558
C:\Users\CYMR90~1\AppData\Local\Temp\ccZ8Xcmd.s:27243  .debug_str:000000000001a42a .LASF3559
C:\Users\CYMR90~1\AppData\Local\Temp\ccZ8Xcmd.s:26391  .debug_str:0000000000016d6e .LASF3560
C:\Users\CYMR90~1\AppData\Local\Temp\ccZ8Xcmd.s:26839  .debug_str:000000000001887d .LASF3561
C:\Users\CYMR90~1\AppData\Local\Temp\ccZ8Xcmd.s:31279  .debug_str:000000000002a359 .LASF3562
C:\Users\CYMR90~1\AppData\Local\Temp\ccZ8Xcmd.s:22038  .debug_str:00000000000053f3 .LASF3563
C:\Users\CYMR90~1\AppData\Local\Temp\ccZ8Xcmd.s:26437  .debug_str:000000000001701c .LASF3564
C:\Users\CYMR90~1\AppData\Local\Temp\ccZ8Xcmd.s:25768  .debug_str:00000000000143cd .LASF3565
C:\Users\CYMR90~1\AppData\Local\Temp\ccZ8Xcmd.s:25860  .debug_str:00000000000149a9 .LASF3566
C:\Users\CYMR90~1\AppData\Local\Temp\ccZ8Xcmd.s:28197  .debug_str:000000000001e1d8 .LASF3567
C:\Users\CYMR90~1\AppData\Local\Temp\ccZ8Xcmd.s:31075  .debug_str:0000000000029791 .LASF3568
C:\Users\CYMR90~1\AppData\Local\Temp\ccZ8Xcmd.s:21396  .debug_str:0000000000002a6f .LASF3569
C:\Users\CYMR90~1\AppData\Local\Temp\ccZ8Xcmd.s:28403  .debug_str:000000000001eddd .LASF3570
C:\Users\CYMR90~1\AppData\Local\Temp\ccZ8Xcmd.s:23476  .debug_str:000000000000b067 .LASF3571
C:\Users\CYMR90~1\AppData\Local\Temp\ccZ8Xcmd.s:21516  .debug_str:000000000000323f .LASF3572
C:\Users\CYMR90~1\AppData\Local\Temp\ccZ8Xcmd.s:23438  .debug_str:000000000000ae22 .LASF3573
C:\Users\CYMR90~1\AppData\Local\Temp\ccZ8Xcmd.s:22374  .debug_str:000000000000688d .LASF3574
C:\Users\CYMR90~1\AppData\Local\Temp\ccZ8Xcmd.s:29925  .debug_str:0000000000024bf8 .LASF3575
C:\Users\CYMR90~1\AppData\Local\Temp\ccZ8Xcmd.s:27309  .debug_str:000000000001a8c5 .LASF3576
C:\Users\CYMR90~1\AppData\Local\Temp\ccZ8Xcmd.s:27169  .debug_str:0000000000019e68 .LASF3577
C:\Users\CYMR90~1\AppData\Local\Temp\ccZ8Xcmd.s:22332  .debug_str:0000000000006608 .LASF3578
C:\Users\CYMR90~1\AppData\Local\Temp\ccZ8Xcmd.s:24290  .debug_str:000000000000e5b6 .LASF3579
C:\Users\CYMR90~1\AppData\Local\Temp\ccZ8Xcmd.s:24128  .debug_str:000000000000db9a .LASF3580
C:\Users\CYMR90~1\AppData\Local\Temp\ccZ8Xcmd.s:22766  .debug_str:0000000000008362 .LASF3581
C:\Users\CYMR90~1\AppData\Local\Temp\ccZ8Xcmd.s:22962  .debug_str:0000000000008f8e .LASF3582
C:\Users\CYMR90~1\AppData\Local\Temp\ccZ8Xcmd.s:23540  .debug_str:000000000000b488 .LASF3583
C:\Users\CYMR90~1\AppData\Local\Temp\ccZ8Xcmd.s:21540  .debug_str:00000000000033c4 .LASF3584
C:\Users\CYMR90~1\AppData\Local\Temp\ccZ8Xcmd.s:22886  .debug_str:0000000000008aad .LASF3585
C:\Users\CYMR90~1\AppData\Local\Temp\ccZ8Xcmd.s:20748  .debug_str:00000000000002bb .LASF3586
C:\Users\CYMR90~1\AppData\Local\Temp\ccZ8Xcmd.s:26433  .debug_str:0000000000016fee .LASF3587
C:\Users\CYMR90~1\AppData\Local\Temp\ccZ8Xcmd.s:23694  .debug_str:000000000000bf33 .LASF3588
C:\Users\CYMR90~1\AppData\Local\Temp\ccZ8Xcmd.s:31169  .debug_str:0000000000029d17 .LASF3589
C:\Users\CYMR90~1\AppData\Local\Temp\ccZ8Xcmd.s:31629  .debug_str:000000000002b9b8 .LASF3590
C:\Users\CYMR90~1\AppData\Local\Temp\ccZ8Xcmd.s:25242  .debug_str:0000000000012236 .LASF3591
C:\Users\CYMR90~1\AppData\Local\Temp\ccZ8Xcmd.s:25096  .debug_str:00000000000118e7 .LASF3592
C:\Users\CYMR90~1\AppData\Local\Temp\ccZ8Xcmd.s:27425  .debug_str:000000000001b083 .LASF3593
C:\Users\CYMR90~1\AppData\Local\Temp\ccZ8Xcmd.s:29565  .debug_str:0000000000023465 .LASF3594
C:\Users\CYMR90~1\AppData\Local\Temp\ccZ8Xcmd.s:31007  .debug_str:0000000000029328 .LASF3595
C:\Users\CYMR90~1\AppData\Local\Temp\ccZ8Xcmd.s:27079  .debug_str:0000000000019924 .LASF3596
C:\Users\CYMR90~1\AppData\Local\Temp\ccZ8Xcmd.s:28385  .debug_str:000000000001ecbe .LASF3597
C:\Users\CYMR90~1\AppData\Local\Temp\ccZ8Xcmd.s:29489  .debug_str:0000000000022f85 .LASF3598
C:\Users\CYMR90~1\AppData\Local\Temp\ccZ8Xcmd.s:30339  .debug_str:000000000002679a .LASF3599
C:\Users\CYMR90~1\AppData\Local\Temp\ccZ8Xcmd.s:20920  .debug_str:0000000000000d0b .LASF3600
C:\Users\CYMR90~1\AppData\Local\Temp\ccZ8Xcmd.s:24356  .debug_str:000000000000e9ef .LASF3601
C:\Users\CYMR90~1\AppData\Local\Temp\ccZ8Xcmd.s:31709  .debug_str:000000000002bf81 .LASF3602
C:\Users\CYMR90~1\AppData\Local\Temp\ccZ8Xcmd.s:30479  .debug_str:0000000000026fef .LASF3603
C:\Users\CYMR90~1\AppData\Local\Temp\ccZ8Xcmd.s:21382  .debug_str:0000000000002964 .LASF3604
C:\Users\CYMR90~1\AppData\Local\Temp\ccZ8Xcmd.s:21064  .debug_str:00000000000015c7 .LASF3605
C:\Users\CYMR90~1\AppData\Local\Temp\ccZ8Xcmd.s:22494  .debug_str:00000000000070ba .LASF3606
C:\Users\CYMR90~1\AppData\Local\Temp\ccZ8Xcmd.s:23888  .debug_str:000000000000cc59 .LASF3607
C:\Users\CYMR90~1\AppData\Local\Temp\ccZ8Xcmd.s:22236  .debug_str:0000000000006020 .LASF3608
C:\Users\CYMR90~1\AppData\Local\Temp\ccZ8Xcmd.s:28935  .debug_str:0000000000020e89 .LASF3609
C:\Users\CYMR90~1\AppData\Local\Temp\ccZ8Xcmd.s:29201  .debug_str:0000000000021ef8 .LASF3610
C:\Users\CYMR90~1\AppData\Local\Temp\ccZ8Xcmd.s:23054  .debug_str:0000000000009552 .LASF3611
C:\Users\CYMR90~1\AppData\Local\Temp\ccZ8Xcmd.s:29609  .debug_str:0000000000023726 .LASF3612
C:\Users\CYMR90~1\AppData\Local\Temp\ccZ8Xcmd.s:31831  .debug_str:000000000002c755 .LASF3613
C:\Users\CYMR90~1\AppData\Local\Temp\ccZ8Xcmd.s:24682  .debug_str:000000000000fe48 .LASF3614
C:\Users\CYMR90~1\AppData\Local\Temp\ccZ8Xcmd.s:24180  .debug_str:000000000000ded5 .LASF3615
C:\Users\CYMR90~1\AppData\Local\Temp\ccZ8Xcmd.s:28323  .debug_str:000000000001e94d .LASF3616
C:\Users\CYMR90~1\AppData\Local\Temp\ccZ8Xcmd.s:21828  .debug_str:00000000000046d2 .LASF3617
C:\Users\CYMR90~1\AppData\Local\Temp\ccZ8Xcmd.s:21134  .debug_str:0000000000001a9a .LASF3618
C:\Users\CYMR90~1\AppData\Local\Temp\ccZ8Xcmd.s:23136  .debug_str:0000000000009ac7 .LASF3619
C:\Users\CYMR90~1\AppData\Local\Temp\ccZ8Xcmd.s:29461  .debug_str:0000000000022e49 .LASF3620
C:\Users\CYMR90~1\AppData\Local\Temp\ccZ8Xcmd.s:25130  .debug_str:0000000000011b0f .LASF3621
C:\Users\CYMR90~1\AppData\Local\Temp\ccZ8Xcmd.s:25666  .debug_str:0000000000013dc4 .LASF3622
C:\Users\CYMR90~1\AppData\Local\Temp\ccZ8Xcmd.s:23020  .debug_str:00000000000092fc .LASF3623
C:\Users\CYMR90~1\AppData\Local\Temp\ccZ8Xcmd.s:27327  .debug_str:000000000001aa13 .LASF3624
C:\Users\CYMR90~1\AppData\Local\Temp\ccZ8Xcmd.s:26917  .debug_str:0000000000018db5 .LASF3625
C:\Users\CYMR90~1\AppData\Local\Temp\ccZ8Xcmd.s:30857  .debug_str:00000000000289ba .LASF3626
C:\Users\CYMR90~1\AppData\Local\Temp\ccZ8Xcmd.s:26597  .debug_str:0000000000017a00 .LASF3627
C:\Users\CYMR90~1\AppData\Local\Temp\ccZ8Xcmd.s:30775  .debug_str:000000000002844e .LASF3628
C:\Users\CYMR90~1\AppData\Local\Temp\ccZ8Xcmd.s:24190  .debug_str:000000000000df6f .LASF3629
C:\Users\CYMR90~1\AppData\Local\Temp\ccZ8Xcmd.s:22678  .debug_str:0000000000007cfe .LASF3630
C:\Users\CYMR90~1\AppData\Local\Temp\ccZ8Xcmd.s:31767  .debug_str:000000000002c33c .LASF3631
C:\Users\CYMR90~1\AppData\Local\Temp\ccZ8Xcmd.s:25986  .debug_str:00000000000151cf .LASF3632
C:\Users\CYMR90~1\AppData\Local\Temp\ccZ8Xcmd.s:27703  .debug_str:000000000001c150 .LASF3633
C:\Users\CYMR90~1\AppData\Local\Temp\ccZ8Xcmd.s:27139  .debug_str:0000000000019c92 .LASF3634
C:\Users\CYMR90~1\AppData\Local\Temp\ccZ8Xcmd.s:29749  .debug_str:0000000000024028 .LASF3635
C:\Users\CYMR90~1\AppData\Local\Temp\ccZ8Xcmd.s:28985  .debug_str:00000000000211f9 .LASF3636
C:\Users\CYMR90~1\AppData\Local\Temp\ccZ8Xcmd.s:23570  .debug_str:000000000000b699 .LASF3637
C:\Users\CYMR90~1\AppData\Local\Temp\ccZ8Xcmd.s:27191  .debug_str:0000000000019f9b .LASF3638
C:\Users\CYMR90~1\AppData\Local\Temp\ccZ8Xcmd.s:20716  .debug_str:0000000000000105 .LASF3639
C:\Users\CYMR90~1\AppData\Local\Temp\ccZ8Xcmd.s:25090  .debug_str:00000000000117f2 .LASF3640
C:\Users\CYMR90~1\AppData\Local\Temp\ccZ8Xcmd.s:29025  .debug_str:0000000000021460 .LASF3641
C:\Users\CYMR90~1\AppData\Local\Temp\ccZ8Xcmd.s:29287  .debug_str:00000000000223cf .LASF3642
C:\Users\CYMR90~1\AppData\Local\Temp\ccZ8Xcmd.s:26178  .debug_str:0000000000015d4f .LASF3643
C:\Users\CYMR90~1\AppData\Local\Temp\ccZ8Xcmd.s:31139  .debug_str:0000000000029b2f .LASF3644
C:\Users\CYMR90~1\AppData\Local\Temp\ccZ8Xcmd.s:23796  .debug_str:000000000000c583 .LASF3645
C:\Users\CYMR90~1\AppData\Local\Temp\ccZ8Xcmd.s:25270  .debug_str:0000000000012409 .LASF3646
C:\Users\CYMR90~1\AppData\Local\Temp\ccZ8Xcmd.s:29587  .debug_str:00000000000235cc .LASF3647
C:\Users\CYMR90~1\AppData\Local\Temp\ccZ8Xcmd.s:30019  .debug_str:00000000000252bf .LASF3648
C:\Users\CYMR90~1\AppData\Local\Temp\ccZ8Xcmd.s:25132  .debug_str:0000000000011b24 .LASF3649
C:\Users\CYMR90~1\AppData\Local\Temp\ccZ8Xcmd.s:25492  .debug_str:0000000000013327 .LASF3650
C:\Users\CYMR90~1\AppData\Local\Temp\ccZ8Xcmd.s:21154  .debug_str:0000000000001ba5 .LASF3651
C:\Users\CYMR90~1\AppData\Local\Temp\ccZ8Xcmd.s:22464  .debug_str:0000000000006e54 .LASF3652
C:\Users\CYMR90~1\AppData\Local\Temp\ccZ8Xcmd.s:31583  .debug_str:000000000002b68d .LASF3653
C:\Users\CYMR90~1\AppData\Local\Temp\ccZ8Xcmd.s:26208  .debug_str:0000000000015f88 .LASF3654
C:\Users\CYMR90~1\AppData\Local\Temp\ccZ8Xcmd.s:27001  .debug_str:00000000000193bc .LASF3655
C:\Users\CYMR90~1\AppData\Local\Temp\ccZ8Xcmd.s:24066  .debug_str:000000000000d808 .LASF3656
C:\Users\CYMR90~1\AppData\Local\Temp\ccZ8Xcmd.s:25334  .debug_str:0000000000012846 .LASF3657
C:\Users\CYMR90~1\AppData\Local\Temp\ccZ8Xcmd.s:20940  .debug_str:0000000000000eb3 .LASF3658
C:\Users\CYMR90~1\AppData\Local\Temp\ccZ8Xcmd.s:27273  .debug_str:000000000001a63b .LASF3659
C:\Users\CYMR90~1\AppData\Local\Temp\ccZ8Xcmd.s:21752  .debug_str:00000000000041a3 .LASF3660
C:\Users\CYMR90~1\AppData\Local\Temp\ccZ8Xcmd.s:27513  .debug_str:000000000001b5de .LASF3661
C:\Users\CYMR90~1\AppData\Local\Temp\ccZ8Xcmd.s:22010  .debug_str:0000000000005240 .LASF3662
C:\Users\CYMR90~1\AppData\Local\Temp\ccZ8Xcmd.s:23120  .debug_str:00000000000099b2 .LASF3663
C:\Users\CYMR90~1\AppData\Local\Temp\ccZ8Xcmd.s:22278  .debug_str:00000000000062a4 .LASF3664
C:\Users\CYMR90~1\AppData\Local\Temp\ccZ8Xcmd.s:24210  .debug_str:000000000000e0a4 .LASF3665
C:\Users\CYMR90~1\AppData\Local\Temp\ccZ8Xcmd.s:30503  .debug_str:0000000000027248 .LASF3666
C:\Users\CYMR90~1\AppData\Local\Temp\ccZ8Xcmd.s:29223  .debug_str:0000000000022036 .LASF3667
C:\Users\CYMR90~1\AppData\Local\Temp\ccZ8Xcmd.s:22316  .debug_str:00000000000064d8 .LASF3668
C:\Users\CYMR90~1\AppData\Local\Temp\ccZ8Xcmd.s:31149  .debug_str:0000000000029bdc .LASF3669
C:\Users\CYMR90~1\AppData\Local\Temp\ccZ8Xcmd.s:28483  .debug_str:000000000001f30e .LASF3670
C:\Users\CYMR90~1\AppData\Local\Temp\ccZ8Xcmd.s:24382  .debug_str:000000000000eb5a .LASF3671
C:\Users\CYMR90~1\AppData\Local\Temp\ccZ8Xcmd.s:23392  .debug_str:000000000000aa6c .LASF3672
C:\Users\CYMR90~1\AppData\Local\Temp\ccZ8Xcmd.s:20802  .debug_str:0000000000000596 .LASF3673
C:\Users\CYMR90~1\AppData\Local\Temp\ccZ8Xcmd.s:24628  .debug_str:000000000000fab7 .LASF3674
C:\Users\CYMR90~1\AppData\Local\Temp\ccZ8Xcmd.s:23578  .debug_str:000000000000b710 .LASF3675
C:\Users\CYMR90~1\AppData\Local\Temp\ccZ8Xcmd.s:24336  .debug_str:000000000000e8b9 .LASF3676
C:\Users\CYMR90~1\AppData\Local\Temp\ccZ8Xcmd.s:22500  .debug_str:0000000000007123 .LASF3677
C:\Users\CYMR90~1\AppData\Local\Temp\ccZ8Xcmd.s:30571  .debug_str:000000000002760d .LASF3678
C:\Users\CYMR90~1\AppData\Local\Temp\ccZ8Xcmd.s:27943  .debug_str:000000000001d1b7 .LASF3679
C:\Users\CYMR90~1\AppData\Local\Temp\ccZ8Xcmd.s:25434  .debug_str:0000000000012ece .LASF3680
C:\Users\CYMR90~1\AppData\Local\Temp\ccZ8Xcmd.s:27527  .debug_str:000000000001b6d9 .LASF3681
C:\Users\CYMR90~1\AppData\Local\Temp\ccZ8Xcmd.s:31545  .debug_str:000000000002b420 .LASF3682
C:\Users\CYMR90~1\AppData\Local\Temp\ccZ8Xcmd.s:24770  .debug_str:0000000000010389 .LASF3683
C:\Users\CYMR90~1\AppData\Local\Temp\ccZ8Xcmd.s:30807  .debug_str:00000000000286a2 .LASF3684
C:\Users\CYMR90~1\AppData\Local\Temp\ccZ8Xcmd.s:23776  .debug_str:000000000000c44e .LASF3685
C:\Users\CYMR90~1\AppData\Local\Temp\ccZ8Xcmd.s:21236  .debug_str:0000000000002013 .LASF3686
C:\Users\CYMR90~1\AppData\Local\Temp\ccZ8Xcmd.s:24744  .debug_str:00000000000101ec .LASF3687
C:\Users\CYMR90~1\AppData\Local\Temp\ccZ8Xcmd.s:24662  .debug_str:000000000000fce8 .LASF3688
C:\Users\CYMR90~1\AppData\Local\Temp\ccZ8Xcmd.s:24880  .debug_str:0000000000010a5d .LASF3689
C:\Users\CYMR90~1\AppData\Local\Temp\ccZ8Xcmd.s:29203  .debug_str:0000000000021f10 .LASF3690
C:\Users\CYMR90~1\AppData\Local\Temp\ccZ8Xcmd.s:25552  .debug_str:00000000000136dd .LASF3691
C:\Users\CYMR90~1\AppData\Local\Temp\ccZ8Xcmd.s:22668  .debug_str:0000000000007c69 .LASF3692
C:\Users\CYMR90~1\AppData\Local\Temp\ccZ8Xcmd.s:29437  .debug_str:0000000000022cd8 .LASF3693
C:\Users\CYMR90~1\AppData\Local\Temp\ccZ8Xcmd.s:31585  .debug_str:000000000002b6b1 .LASF3694
C:\Users\CYMR90~1\AppData\Local\Temp\ccZ8Xcmd.s:31121  .debug_str:0000000000029a1a .LASF3695
C:\Users\CYMR90~1\AppData\Local\Temp\ccZ8Xcmd.s:27619  .debug_str:000000000001bc08 .LASF3696
C:\Users\CYMR90~1\AppData\Local\Temp\ccZ8Xcmd.s:22468  .debug_str:0000000000006e96 .LASF3697
C:\Users\CYMR90~1\AppData\Local\Temp\ccZ8Xcmd.s:27303  .debug_str:000000000001a86e .LASF3698
C:\Users\CYMR90~1\AppData\Local\Temp\ccZ8Xcmd.s:22552  .debug_str:000000000000743d .LASF3699
C:\Users\CYMR90~1\AppData\Local\Temp\ccZ8Xcmd.s:21532  .debug_str:0000000000003349 .LASF3700
C:\Users\CYMR90~1\AppData\Local\Temp\ccZ8Xcmd.s:29831  .debug_str:0000000000024593 .LASF3701
C:\Users\CYMR90~1\AppData\Local\Temp\ccZ8Xcmd.s:22322  .debug_str:000000000000652e .LASF3702
C:\Users\CYMR90~1\AppData\Local\Temp\ccZ8Xcmd.s:22860  .debug_str:0000000000008925 .LASF3703
C:\Users\CYMR90~1\AppData\Local\Temp\ccZ8Xcmd.s:22972  .debug_str:0000000000009041 .LASF3704
C:\Users\CYMR90~1\AppData\Local\Temp\ccZ8Xcmd.s:29091  .debug_str:000000000002183c .LASF3705
C:\Users\CYMR90~1\AppData\Local\Temp\ccZ8Xcmd.s:31057  .debug_str:0000000000029653 .LASF3706
C:\Users\CYMR90~1\AppData\Local\Temp\ccZ8Xcmd.s:29345  .debug_str:000000000002273e .LASF3707
C:\Users\CYMR90~1\AppData\Local\Temp\ccZ8Xcmd.s:30947  .debug_str:0000000000028efc .LASF3708
C:\Users\CYMR90~1\AppData\Local\Temp\ccZ8Xcmd.s:20834  .debug_str:0000000000000791 .LASF3709
C:\Users\CYMR90~1\AppData\Local\Temp\ccZ8Xcmd.s:29379  .debug_str:00000000000229a9 .LASF3710
C:\Users\CYMR90~1\AppData\Local\Temp\ccZ8Xcmd.s:26393  .debug_str:0000000000016d86 .LASF3711
C:\Users\CYMR90~1\AppData\Local\Temp\ccZ8Xcmd.s:23400  .debug_str:000000000000aae0 .LASF3712
C:\Users\CYMR90~1\AppData\Local\Temp\ccZ8Xcmd.s:30291  .debug_str:000000000002647d .LASF3713
C:\Users\CYMR90~1\AppData\Local\Temp\ccZ8Xcmd.s:22452  .debug_str:0000000000006d92 .LASF3714
C:\Users\CYMR90~1\AppData\Local\Temp\ccZ8Xcmd.s:26006  .debug_str:00000000000152d3 .LASF3715
C:\Users\CYMR90~1\AppData\Local\Temp\ccZ8Xcmd.s:23822  .debug_str:000000000000c7cd .LASF3716
C:\Users\CYMR90~1\AppData\Local\Temp\ccZ8Xcmd.s:29457  .debug_str:0000000000022e0a .LASF3717
C:\Users\CYMR90~1\AppData\Local\Temp\ccZ8Xcmd.s:27423  .debug_str:000000000001b040 .LASF3718
C:\Users\CYMR90~1\AppData\Local\Temp\ccZ8Xcmd.s:29387  .debug_str:0000000000022a29 .LASF3719
C:\Users\CYMR90~1\AppData\Local\Temp\ccZ8Xcmd.s:26537  .debug_str:0000000000017615 .LASF3720
C:\Users\CYMR90~1\AppData\Local\Temp\ccZ8Xcmd.s:24256  .debug_str:000000000000e366 .LASF3721
C:\Users\CYMR90~1\AppData\Local\Temp\ccZ8Xcmd.s:28451  .debug_str:000000000001f0d3 .LASF3722
C:\Users\CYMR90~1\AppData\Local\Temp\ccZ8Xcmd.s:23454  .debug_str:000000000000af0d .LASF3723
C:\Users\CYMR90~1\AppData\Local\Temp\ccZ8Xcmd.s:25714  .debug_str:00000000000140e0 .LASF3724
C:\Users\CYMR90~1\AppData\Local\Temp\ccZ8Xcmd.s:26677  .debug_str:0000000000017e97 .LASF3725
C:\Users\CYMR90~1\AppData\Local\Temp\ccZ8Xcmd.s:30389  .debug_str:0000000000026a82 .LASF3726
C:\Users\CYMR90~1\AppData\Local\Temp\ccZ8Xcmd.s:23242  .debug_str:000000000000a143 .LASF3727
C:\Users\CYMR90~1\AppData\Local\Temp\ccZ8Xcmd.s:24640  .debug_str:000000000000fb67 .LASF3728
C:\Users\CYMR90~1\AppData\Local\Temp\ccZ8Xcmd.s:26971  .debug_str:00000000000191c5 .LASF3729
C:\Users\CYMR90~1\AppData\Local\Temp\ccZ8Xcmd.s:23498  .debug_str:000000000000b17d .LASF3730
C:\Users\CYMR90~1\AppData\Local\Temp\ccZ8Xcmd.s:24226  .debug_str:000000000000e1aa .LASF3731
C:\Users\CYMR90~1\AppData\Local\Temp\ccZ8Xcmd.s:31687  .debug_str:000000000002bdb3 .LASF3732
C:\Users\CYMR90~1\AppData\Local\Temp\ccZ8Xcmd.s:31529  .debug_str:000000000002b30d .LASF3733
C:\Users\CYMR90~1\AppData\Local\Temp\ccZ8Xcmd.s:24086  .debug_str:000000000000d950 .LASF3734
C:\Users\CYMR90~1\AppData\Local\Temp\ccZ8Xcmd.s:22062  .debug_str:0000000000005562 .LASF3735
C:\Users\CYMR90~1\AppData\Local\Temp\ccZ8Xcmd.s:31177  .debug_str:0000000000029d6d .LASF3736
C:\Users\CYMR90~1\AppData\Local\Temp\ccZ8Xcmd.s:28897  .debug_str:0000000000020c71 .LASF3737
C:\Users\CYMR90~1\AppData\Local\Temp\ccZ8Xcmd.s:28815  .debug_str:000000000002076d .LASF3738
C:\Users\CYMR90~1\AppData\Local\Temp\ccZ8Xcmd.s:26122  .debug_str:000000000001599a .LASF3739
C:\Users\CYMR90~1\AppData\Local\Temp\ccZ8Xcmd.s:22162  .debug_str:0000000000005b7e .LASF3740
C:\Users\CYMR90~1\AppData\Local\Temp\ccZ8Xcmd.s:25598  .debug_str:00000000000139bc .LASF3741
C:\Users\CYMR90~1\AppData\Local\Temp\ccZ8Xcmd.s:29083  .debug_str:00000000000217c2 .LASF3742
C:\Users\CYMR90~1\AppData\Local\Temp\ccZ8Xcmd.s:30201  .debug_str:0000000000025f07 .LASF3743
C:\Users\CYMR90~1\AppData\Local\Temp\ccZ8Xcmd.s:21894  .debug_str:0000000000004b4e .LASF3744
C:\Users\CYMR90~1\AppData\Local\Temp\ccZ8Xcmd.s:29671  .debug_str:0000000000023aa8 .LASF3745
C:\Users\CYMR90~1\AppData\Local\Temp\ccZ8Xcmd.s:28819  .debug_str:00000000000207bd .LASF3746
C:\Users\CYMR90~1\AppData\Local\Temp\ccZ8Xcmd.s:31331  .debug_str:000000000002a6cb .LASF3747
C:\Users\CYMR90~1\AppData\Local\Temp\ccZ8Xcmd.s:24358  .debug_str:000000000000ea07 .LASF3748
C:\Users\CYMR90~1\AppData\Local\Temp\ccZ8Xcmd.s:22074  .debug_str:0000000000005604 .LASF3749
C:\Users\CYMR90~1\AppData\Local\Temp\ccZ8Xcmd.s:23730  .debug_str:000000000000c16a .LASF3750
C:\Users\CYMR90~1\AppData\Local\Temp\ccZ8Xcmd.s:28909  .debug_str:0000000000020d13 .LASF3751
C:\Users\CYMR90~1\AppData\Local\Temp\ccZ8Xcmd.s:26779  .debug_str:00000000000184a6 .LASF3752
C:\Users\CYMR90~1\AppData\Local\Temp\ccZ8Xcmd.s:27855  .debug_str:000000000001cb39 .LASF3753
C:\Users\CYMR90~1\AppData\Local\Temp\ccZ8Xcmd.s:30921  .debug_str:0000000000028d71 .LASF3754
C:\Users\CYMR90~1\AppData\Local\Temp\ccZ8Xcmd.s:28733  .debug_str:000000000002021b .LASF3755
C:\Users\CYMR90~1\AppData\Local\Temp\ccZ8Xcmd.s:31855  .debug_str:000000000002c921 .LASF3756
C:\Users\CYMR90~1\AppData\Local\Temp\ccZ8Xcmd.s:21576  .debug_str:000000000000361c .LASF3757
C:\Users\CYMR90~1\AppData\Local\Temp\ccZ8Xcmd.s:30001  .debug_str:00000000000251a5 .LASF3758
C:\Users\CYMR90~1\AppData\Local\Temp\ccZ8Xcmd.s:20960  .debug_str:0000000000000fbb .LASF3759
C:\Users\CYMR90~1\AppData\Local\Temp\ccZ8Xcmd.s:28021  .debug_str:000000000001d6a3 .LASF3760
C:\Users\CYMR90~1\AppData\Local\Temp\ccZ8Xcmd.s:25470  .debug_str:000000000001310e .LASF3761
C:\Users\CYMR90~1\AppData\Local\Temp\ccZ8Xcmd.s:31941  .debug_str:000000000002ced5 .LASF3762
C:\Users\CYMR90~1\AppData\Local\Temp\ccZ8Xcmd.s:21370  .debug_str:00000000000028af .LASF3763
C:\Users\CYMR90~1\AppData\Local\Temp\ccZ8Xcmd.s:30447  .debug_str:0000000000026e29 .LASF3764
C:\Users\CYMR90~1\AppData\Local\Temp\ccZ8Xcmd.s:25320  .debug_str:0000000000012742 .LASF3765
C:\Users\CYMR90~1\AppData\Local\Temp\ccZ8Xcmd.s:28725  .debug_str:0000000000020161 .LASF3766
C:\Users\CYMR90~1\AppData\Local\Temp\ccZ8Xcmd.s:28861  .debug_str:0000000000020a57 .LASF3767
C:\Users\CYMR90~1\AppData\Local\Temp\ccZ8Xcmd.s:20918  .debug_str:0000000000000ce9 .LASF3768
C:\Users\CYMR90~1\AppData\Local\Temp\ccZ8Xcmd.s:28083  .debug_str:000000000001da4b .LASF3769
C:\Users\CYMR90~1\AppData\Local\Temp\ccZ8Xcmd.s:21016  .debug_str:00000000000012ea .LASF3770
C:\Users\CYMR90~1\AppData\Local\Temp\ccZ8Xcmd.s:30705  .debug_str:0000000000027f42 .LASF3771
C:\Users\CYMR90~1\AppData\Local\Temp\ccZ8Xcmd.s:25228  .debug_str:0000000000012129 .LASF3772
C:\Users\CYMR90~1\AppData\Local\Temp\ccZ8Xcmd.s:28217  .debug_str:000000000001e2ee .LASF3773
C:\Users\CYMR90~1\AppData\Local\Temp\ccZ8Xcmd.s:27137  .debug_str:0000000000019c62 .LASF3774
C:\Users\CYMR90~1\AppData\Local\Temp\ccZ8Xcmd.s:25896  .debug_str:0000000000014bf2 .LASF3775
C:\Users\CYMR90~1\AppData\Local\Temp\ccZ8Xcmd.s:24714  .debug_str:000000000001002b .LASF3776
C:\Users\CYMR90~1\AppData\Local\Temp\ccZ8Xcmd.s:31573  .debug_str:000000000002b5be .LASF3777
C:\Users\CYMR90~1\AppData\Local\Temp\ccZ8Xcmd.s:29913  .debug_str:0000000000024b1d .LASF3778
C:\Users\CYMR90~1\AppData\Local\Temp\ccZ8Xcmd.s:28701  .debug_str:0000000000020006 .LASF3779
C:\Users\CYMR90~1\AppData\Local\Temp\ccZ8Xcmd.s:30693  .debug_str:0000000000027e1e .LASF3780
C:\Users\CYMR90~1\AppData\Local\Temp\ccZ8Xcmd.s:30939  .debug_str:0000000000028e63 .LASF3781
C:\Users\CYMR90~1\AppData\Local\Temp\ccZ8Xcmd.s:23904  .debug_str:000000000000cd74 .LASF3782
C:\Users\CYMR90~1\AppData\Local\Temp\ccZ8Xcmd.s:31283  .debug_str:000000000002a392 .LASF3783
C:\Users\CYMR90~1\AppData\Local\Temp\ccZ8Xcmd.s:23346  .debug_str:000000000000a776 .LASF3784
C:\Users\CYMR90~1\AppData\Local\Temp\ccZ8Xcmd.s:29929  .debug_str:0000000000024c32 .LASF3785
C:\Users\CYMR90~1\AppData\Local\Temp\ccZ8Xcmd.s:23200  .debug_str:0000000000009ea0 .LASF3786
C:\Users\CYMR90~1\AppData\Local\Temp\ccZ8Xcmd.s:28969  .debug_str:0000000000021060 .LASF3787
C:\Users\CYMR90~1\AppData\Local\Temp\ccZ8Xcmd.s:21408  .debug_str:0000000000002b08 .LASF3788
C:\Users\CYMR90~1\AppData\Local\Temp\ccZ8Xcmd.s:27157  .debug_str:0000000000019d95 .LASF3789
C:\Users\CYMR90~1\AppData\Local\Temp\ccZ8Xcmd.s:24002  .debug_str:000000000000d458 .LASF3790
C:\Users\CYMR90~1\AppData\Local\Temp\ccZ8Xcmd.s:22114  .debug_str:0000000000005881 .LASF3791
C:\Users\CYMR90~1\AppData\Local\Temp\ccZ8Xcmd.s:30609  .debug_str:0000000000027854 .LASF3792
C:\Users\CYMR90~1\AppData\Local\Temp\ccZ8Xcmd.s:24490  .debug_str:000000000000f1bf .LASF3793
C:\Users\CYMR90~1\AppData\Local\Temp\ccZ8Xcmd.s:23688  .debug_str:000000000000bed8 .LASF3794
C:\Users\CYMR90~1\AppData\Local\Temp\ccZ8Xcmd.s:23508  .debug_str:000000000000b207 .LASF3795
C:\Users\CYMR90~1\AppData\Local\Temp\ccZ8Xcmd.s:20864  .debug_str:0000000000000961 .LASF3796
C:\Users\CYMR90~1\AppData\Local\Temp\ccZ8Xcmd.s:25128  .debug_str:0000000000011add .LASF3797
C:\Users\CYMR90~1\AppData\Local\Temp\ccZ8Xcmd.s:29383  .debug_str:00000000000229e5 .LASF3798
C:\Users\CYMR90~1\AppData\Local\Temp\ccZ8Xcmd.s:22262  .debug_str:00000000000061a2 .LASF3799
C:\Users\CYMR90~1\AppData\Local\Temp\ccZ8Xcmd.s:23616  .debug_str:000000000000b985 .LASF3800
C:\Users\CYMR90~1\AppData\Local\Temp\ccZ8Xcmd.s:24702  .debug_str:000000000000ff5f .LASF3801
C:\Users\CYMR90~1\AppData\Local\Temp\ccZ8Xcmd.s:28945  .debug_str:0000000000020ef6 .LASF3802
C:\Users\CYMR90~1\AppData\Local\Temp\ccZ8Xcmd.s:21904  .debug_str:0000000000004c06 .LASF3803
C:\Users\CYMR90~1\AppData\Local\Temp\ccZ8Xcmd.s:26102  .debug_str:000000000001584a .LASF3804
C:\Users\CYMR90~1\AppData\Local\Temp\ccZ8Xcmd.s:30407  .debug_str:0000000000026b92 .LASF3805
C:\Users\CYMR90~1\AppData\Local\Temp\ccZ8Xcmd.s:23388  .debug_str:000000000000aa20 .LASF3806
C:\Users\CYMR90~1\AppData\Local\Temp\ccZ8Xcmd.s:25688  .debug_str:0000000000013efd .LASF3807
C:\Users\CYMR90~1\AppData\Local\Temp\ccZ8Xcmd.s:28111  .debug_str:000000000001dc78 .LASF3808
C:\Users\CYMR90~1\AppData\Local\Temp\ccZ8Xcmd.s:23884  .debug_str:000000000000cc0b .LASF3809
C:\Users\CYMR90~1\AppData\Local\Temp\ccZ8Xcmd.s:29131  .debug_str:0000000000021acf .LASF3810
C:\Users\CYMR90~1\AppData\Local\Temp\ccZ8Xcmd.s:22110  .debug_str:0000000000005829 .LASF3811
C:\Users\CYMR90~1\AppData\Local\Temp\ccZ8Xcmd.s:31527  .debug_str:000000000002b2db .LASF3812
C:\Users\CYMR90~1\AppData\Local\Temp\ccZ8Xcmd.s:24484  .debug_str:000000000000f13c .LASF3813
C:\Users\CYMR90~1\AppData\Local\Temp\ccZ8Xcmd.s:28633  .debug_str:000000000001fc0c .LASF3814
C:\Users\CYMR90~1\AppData\Local\Temp\ccZ8Xcmd.s:21620  .debug_str:000000000000390b .LASF3815
C:\Users\CYMR90~1\AppData\Local\Temp\ccZ8Xcmd.s:24560  .debug_str:000000000000f681 .LASF3816
C:\Users\CYMR90~1\AppData\Local\Temp\ccZ8Xcmd.s:29707  .debug_str:0000000000023cd2 .LASF3817
C:\Users\CYMR90~1\AppData\Local\Temp\ccZ8Xcmd.s:23088  .debug_str:0000000000009795 .LASF3818
C:\Users\CYMR90~1\AppData\Local\Temp\ccZ8Xcmd.s:27381  .debug_str:000000000001ad57 .LASF3819
C:\Users\CYMR90~1\AppData\Local\Temp\ccZ8Xcmd.s:21720  .debug_str:0000000000003f4e .LASF3820
C:\Users\CYMR90~1\AppData\Local\Temp\ccZ8Xcmd.s:29747  .debug_str:0000000000023ff6 .LASF3821
C:\Users\CYMR90~1\AppData\Local\Temp\ccZ8Xcmd.s:22722  .debug_str:0000000000008077 .LASF3822
C:\Users\CYMR90~1\AppData\Local\Temp\ccZ8Xcmd.s:24326  .debug_str:000000000000e7e5 .LASF3823
C:\Users\CYMR90~1\AppData\Local\Temp\ccZ8Xcmd.s:31213  .debug_str:0000000000029f6f .LASF3824
C:\Users\CYMR90~1\AppData\Local\Temp\ccZ8Xcmd.s:22550  .debug_str:000000000000740b .LASF3825
C:\Users\CYMR90~1\AppData\Local\Temp\ccZ8Xcmd.s:28509  .debug_str:000000000001f467 .LASF3826
C:\Users\CYMR90~1\AppData\Local\Temp\ccZ8Xcmd.s:21330  .debug_str:0000000000002612 .LASF3827
C:\Users\CYMR90~1\AppData\Local\Temp\ccZ8Xcmd.s:26711  .debug_str:0000000000018093 .LASF3828
C:\Users\CYMR90~1\AppData\Local\Temp\ccZ8Xcmd.s:29881  .debug_str:000000000002491a .LASF3829
C:\Users\CYMR90~1\AppData\Local\Temp\ccZ8Xcmd.s:22730  .debug_str:00000000000080f4 .LASF3830
C:\Users\CYMR90~1\AppData\Local\Temp\ccZ8Xcmd.s:30155  .debug_str:0000000000025c15 .LASF3831
C:\Users\CYMR90~1\AppData\Local\Temp\ccZ8Xcmd.s:25268  .debug_str:00000000000123d7 .LASF3832
C:\Users\CYMR90~1\AppData\Local\Temp\ccZ8Xcmd.s:29443  .debug_str:0000000000022d33 .LASF3833
C:\Users\CYMR90~1\AppData\Local\Temp\ccZ8Xcmd.s:22402  .debug_str:0000000000006a49 .LASF3834
C:\Users\CYMR90~1\AppData\Local\Temp\ccZ8Xcmd.s:25310  .debug_str:0000000000012682 .LASF3835
C:\Users\CYMR90~1\AppData\Local\Temp\ccZ8Xcmd.s:28635  .debug_str:000000000001fc3e .LASF3836
C:\Users\CYMR90~1\AppData\Local\Temp\ccZ8Xcmd.s:25234  .debug_str:00000000000121b6 .LASF3837
C:\Users\CYMR90~1\AppData\Local\Temp\ccZ8Xcmd.s:30193  .debug_str:0000000000025e91 .LASF3838
C:\Users\CYMR90~1\AppData\Local\Temp\ccZ8Xcmd.s:21608  .debug_str:000000000000381e .LASF3839
C:\Users\CYMR90~1\AppData\Local\Temp\ccZ8Xcmd.s:23836  .debug_str:000000000000c964 .LASF3840
C:\Users\CYMR90~1\AppData\Local\Temp\ccZ8Xcmd.s:24274  .debug_str:000000000000e47b .LASF3841
C:\Users\CYMR90~1\AppData\Local\Temp\ccZ8Xcmd.s:29755  .debug_str:000000000002409f .LASF3842
C:\Users\CYMR90~1\AppData\Local\Temp\ccZ8Xcmd.s:26118  .debug_str:0000000000015949 .LASF3843
C:\Users\CYMR90~1\AppData\Local\Temp\ccZ8Xcmd.s:26549  .debug_str:00000000000176cf .LASF3844
C:\Users\CYMR90~1\AppData\Local\Temp\ccZ8Xcmd.s:23568  .debug_str:000000000000b677 .LASF3845
C:\Users\CYMR90~1\AppData\Local\Temp\ccZ8Xcmd.s:25904  .debug_str:0000000000014c7b .LASF3846
C:\Users\CYMR90~1\AppData\Local\Temp\ccZ8Xcmd.s:28841  .debug_str:00000000000208f7 .LASF3847
C:\Users\CYMR90~1\AppData\Local\Temp\ccZ8Xcmd.s:25928  .debug_str:0000000000014e30 .LASF3848
C:\Users\CYMR90~1\AppData\Local\Temp\ccZ8Xcmd.s:26571  .debug_str:0000000000017877 .LASF3849
C:\Users\CYMR90~1\AppData\Local\Temp\ccZ8Xcmd.s:26995  .debug_str:000000000001934a .LASF3850
C:\Users\CYMR90~1\AppData\Local\Temp\ccZ8Xcmd.s:24982  .debug_str:000000000001107e .LASF3851
C:\Users\CYMR90~1\AppData\Local\Temp\ccZ8Xcmd.s:22644  .debug_str:0000000000007a31 .LASF3852
C:\Users\CYMR90~1\AppData\Local\Temp\ccZ8Xcmd.s:21026  .debug_str:0000000000001391 .LASF3853
C:\Users\CYMR90~1\AppData\Local\Temp\ccZ8Xcmd.s:24624  .debug_str:000000000000fa70 .LASF3854
C:\Users\CYMR90~1\AppData\Local\Temp\ccZ8Xcmd.s:25546  .debug_str:000000000001369c .LASF3855
C:\Users\CYMR90~1\AppData\Local\Temp\ccZ8Xcmd.s:22034  .debug_str:00000000000053c2 .LASF3856
C:\Users\CYMR90~1\AppData\Local\Temp\ccZ8Xcmd.s:26809  .debug_str:000000000001864d .LASF3857
C:\Users\CYMR90~1\AppData\Local\Temp\ccZ8Xcmd.s:24164  .debug_str:000000000000ddeb .LASF3858
C:\Users\CYMR90~1\AppData\Local\Temp\ccZ8Xcmd.s:23208  .debug_str:0000000000009f3a .LASF3859
C:\Users\CYMR90~1\AppData\Local\Temp\ccZ8Xcmd.s:24656  .debug_str:000000000000fc7a .LASF3860
C:\Users\CYMR90~1\AppData\Local\Temp\ccZ8Xcmd.s:26515  .debug_str:00000000000174b0 .LASF3861
C:\Users\CYMR90~1\AppData\Local\Temp\ccZ8Xcmd.s:25964  .debug_str:0000000000015054 .LASF3862
C:\Users\CYMR90~1\AppData\Local\Temp\ccZ8Xcmd.s:25348  .debug_str:0000000000012951 .LASF3863
C:\Users\CYMR90~1\AppData\Local\Temp\ccZ8Xcmd.s:27697  .debug_str:000000000001c106 .LASF3864
C:\Users\CYMR90~1\AppData\Local\Temp\ccZ8Xcmd.s:24278  .debug_str:000000000000e4fa .LASF3865
C:\Users\CYMR90~1\AppData\Local\Temp\ccZ8Xcmd.s:20902  .debug_str:0000000000000bfa .LASF3866
C:\Users\CYMR90~1\AppData\Local\Temp\ccZ8Xcmd.s:30945  .debug_str:0000000000028ed8 .LASF3867
C:\Users\CYMR90~1\AppData\Local\Temp\ccZ8Xcmd.s:25414  .debug_str:0000000000012d6d .LASF3868
C:\Users\CYMR90~1\AppData\Local\Temp\ccZ8Xcmd.s:28033  .debug_str:000000000001d75d .LASF3869
C:\Users\CYMR90~1\AppData\Local\Temp\ccZ8Xcmd.s:21272  .debug_str:0000000000002242 .LASF3870
C:\Users\CYMR90~1\AppData\Local\Temp\ccZ8Xcmd.s:21182  .debug_str:0000000000001d68 .LASF3871
C:\Users\CYMR90~1\AppData\Local\Temp\ccZ8Xcmd.s:29995  .debug_str:000000000002513e .LASF3872
C:\Users\CYMR90~1\AppData\Local\Temp\ccZ8Xcmd.s:29769  .debug_str:00000000000241ae .LASF3873
C:\Users\CYMR90~1\AppData\Local\Temp\ccZ8Xcmd.s:26387  .debug_str:0000000000016d33 .LASF3874
C:\Users\CYMR90~1\AppData\Local\Temp\ccZ8Xcmd.s:25696  .debug_str:0000000000013f9e .LASF3875
C:\Users\CYMR90~1\AppData\Local\Temp\ccZ8Xcmd.s:30933  .debug_str:0000000000028e1e .LASF3876
C:\Users\CYMR90~1\AppData\Local\Temp\ccZ8Xcmd.s:27523  .debug_str:000000000001b678 .LASF3877
C:\Users\CYMR90~1\AppData\Local\Temp\ccZ8Xcmd.s:24140  .debug_str:000000000000dc7d .LASF3878
C:\Users\CYMR90~1\AppData\Local\Temp\ccZ8Xcmd.s:31315  .debug_str:000000000002a5cd .LASF3879
C:\Users\CYMR90~1\AppData\Local\Temp\ccZ8Xcmd.s:31617  .debug_str:000000000002b8e0 .LASF3880
C:\Users\CYMR90~1\AppData\Local\Temp\ccZ8Xcmd.s:23370  .debug_str:000000000000a8f9 .LASF3881
C:\Users\CYMR90~1\AppData\Local\Temp\ccZ8Xcmd.s:21902  .debug_str:0000000000004be2 .LASF3882
C:\Users\CYMR90~1\AppData\Local\Temp\ccZ8Xcmd.s:31839  .debug_str:000000000002c7ee .LASF3883
C:\Users\CYMR90~1\AppData\Local\Temp\ccZ8Xcmd.s:25112  .debug_str:00000000000119d9 .LASF3884
C:\Users\CYMR90~1\AppData\Local\Temp\ccZ8Xcmd.s:21696  .debug_str:0000000000003df2 .LASF3885
C:\Users\CYMR90~1\AppData\Local\Temp\ccZ8Xcmd.s:29631  .debug_str:000000000002386b .LASF3886
C:\Users\CYMR90~1\AppData\Local\Temp\ccZ8Xcmd.s:26226  .debug_str:000000000001609b .LASF3887
C:\Users\CYMR90~1\AppData\Local\Temp\ccZ8Xcmd.s:24670  .debug_str:000000000000fd8d .LASF3888
C:\Users\CYMR90~1\AppData\Local\Temp\ccZ8Xcmd.s:30785  .debug_str:00000000000284fb .LASF3889
C:\Users\CYMR90~1\AppData\Local\Temp\ccZ8Xcmd.s:28777  .debug_str:0000000000020547 .LASF3890
C:\Users\CYMR90~1\AppData\Local\Temp\ccZ8Xcmd.s:22688  .debug_str:0000000000007dae .LASF3891
C:\Users\CYMR90~1\AppData\Local\Temp\ccZ8Xcmd.s:30623  .debug_str:000000000002797f .LASF3892
C:\Users\CYMR90~1\AppData\Local\Temp\ccZ8Xcmd.s:27249  .debug_str:000000000001a482 .LASF3893
C:\Users\CYMR90~1\AppData\Local\Temp\ccZ8Xcmd.s:23854  .debug_str:000000000000ca84 .LASF3894
C:\Users\CYMR90~1\AppData\Local\Temp\ccZ8Xcmd.s:31785  .debug_str:000000000002c4bb .LASF3895
C:\Users\CYMR90~1\AppData\Local\Temp\ccZ8Xcmd.s:21808  .debug_str:000000000000455d .LASF3896
C:\Users\CYMR90~1\AppData\Local\Temp\ccZ8Xcmd.s:24986  .debug_str:00000000000110b9 .LASF3897
C:\Users\CYMR90~1\AppData\Local\Temp\ccZ8Xcmd.s:27873  .debug_str:000000000001ccde .LASF3898
C:\Users\CYMR90~1\AppData\Local\Temp\ccZ8Xcmd.s:29491  .debug_str:0000000000022fa4 .LASF3899
C:\Users\CYMR90~1\AppData\Local\Temp\ccZ8Xcmd.s:30863  .debug_str:0000000000028a14 .LASF3900
C:\Users\CYMR90~1\AppData\Local\Temp\ccZ8Xcmd.s:21414  .debug_str:0000000000002b97 .LASF3901
C:\Users\CYMR90~1\AppData\Local\Temp\ccZ8Xcmd.s:26509  .debug_str:000000000001744d .LASF3902
C:\Users\CYMR90~1\AppData\Local\Temp\ccZ8Xcmd.s:25936  .debug_str:0000000000014eb0 .LASF3903
C:\Users\CYMR90~1\AppData\Local\Temp\ccZ8Xcmd.s:22542  .debug_str:0000000000007394 .LASF3904
C:\Users\CYMR90~1\AppData\Local\Temp\ccZ8Xcmd.s:22664  .debug_str:0000000000007c06 .LASF3905
C:\Users\CYMR90~1\AppData\Local\Temp\ccZ8Xcmd.s:22660  .debug_str:0000000000007bc5 .LASF3906
C:\Users\CYMR90~1\AppData\Local\Temp\ccZ8Xcmd.s:23708  .debug_str:000000000000c006 .LASF3907
C:\Users\CYMR90~1\AppData\Local\Temp\ccZ8Xcmd.s:31649  .debug_str:000000000002bb17 .LASF3908
C:\Users\CYMR90~1\AppData\Local\Temp\ccZ8Xcmd.s:21322  .debug_str:0000000000002573 .LASF3909
C:\Users\CYMR90~1\AppData\Local\Temp\ccZ8Xcmd.s:29651  .debug_str:0000000000023998 .LASF3910
C:\Users\CYMR90~1\AppData\Local\Temp\ccZ8Xcmd.s:31579  .debug_str:000000000002b64a .LASF3911
C:\Users\CYMR90~1\AppData\Local\Temp\ccZ8Xcmd.s:28035  .debug_str:000000000001d781 .LASF3912
C:\Users\CYMR90~1\AppData\Local\Temp\ccZ8Xcmd.s:24696  .debug_str:000000000000ff0b .LASF3913
C:\Users\CYMR90~1\AppData\Local\Temp\ccZ8Xcmd.s:21124  .debug_str:00000000000019e6 .LASF3914
C:\Users\CYMR90~1\AppData\Local\Temp\ccZ8Xcmd.s:29185  .debug_str:0000000000021df9 .LASF3915
C:\Users\CYMR90~1\AppData\Local\Temp\ccZ8Xcmd.s:25800  .debug_str:0000000000014618 .LASF3916
C:\Users\CYMR90~1\AppData\Local\Temp\ccZ8Xcmd.s:24494  .debug_str:000000000000f209 .LASF3917
C:\Users\CYMR90~1\AppData\Local\Temp\ccZ8Xcmd.s:27075  .debug_str:00000000000198da .LASF3918
C:\Users\CYMR90~1\AppData\Local\Temp\ccZ8Xcmd.s:26961  .debug_str:0000000000019135 .LASF3919
C:\Users\CYMR90~1\AppData\Local\Temp\ccZ8Xcmd.s:28339  .debug_str:000000000001ea07 .LASF3920
C:\Users\CYMR90~1\AppData\Local\Temp\ccZ8Xcmd.s:30273  .debug_str:000000000002634f .LASF3921
C:\Users\CYMR90~1\AppData\Local\Temp\ccZ8Xcmd.s:28409  .debug_str:000000000001ee4e .LASF3922
C:\Users\CYMR90~1\AppData\Local\Temp\ccZ8Xcmd.s:23024  .debug_str:000000000000933d .LASF3923
C:\Users\CYMR90~1\AppData\Local\Temp\ccZ8Xcmd.s:31431  .debug_str:000000000002acd7 .LASF3924
C:\Users\CYMR90~1\AppData\Local\Temp\ccZ8Xcmd.s:27915  .debug_str:000000000001d02b .LASF3925
C:\Users\CYMR90~1\AppData\Local\Temp\ccZ8Xcmd.s:29121  .debug_str:0000000000021a2f .LASF3926
C:\Users\CYMR90~1\AppData\Local\Temp\ccZ8Xcmd.s:21132  .debug_str:0000000000001a76 .LASF3927
C:\Users\CYMR90~1\AppData\Local\Temp\ccZ8Xcmd.s:29039  .debug_str:0000000000021531 .LASF3928
C:\Users\CYMR90~1\AppData\Local\Temp\ccZ8Xcmd.s:25650  .debug_str:0000000000013cd6 .LASF3929
C:\Users\CYMR90~1\AppData\Local\Temp\ccZ8Xcmd.s:31327  .debug_str:000000000002a68c .LASF3930
C:\Users\CYMR90~1\AppData\Local\Temp\ccZ8Xcmd.s:28979  .debug_str:00000000000210f9 .LASF3931
C:\Users\CYMR90~1\AppData\Local\Temp\ccZ8Xcmd.s:25594  .debug_str:0000000000013981 .LASF3932
C:\Users\CYMR90~1\AppData\Local\Temp\ccZ8Xcmd.s:30289  .debug_str:0000000000026459 .LASF3933
C:\Users\CYMR90~1\AppData\Local\Temp\ccZ8Xcmd.s:30119  .debug_str:0000000000025a24 .LASF3934
C:\Users\CYMR90~1\AppData\Local\Temp\ccZ8Xcmd.s:26735  .debug_str:000000000001820e .LASF3935
C:\Users\CYMR90~1\AppData\Local\Temp\ccZ8Xcmd.s:31893  .debug_str:000000000002cb86 .LASF3936
C:\Users\CYMR90~1\AppData\Local\Temp\ccZ8Xcmd.s:31859  .debug_str:000000000002c95d .LASF3937
C:\Users\CYMR90~1\AppData\Local\Temp\ccZ8Xcmd.s:29191  .debug_str:0000000000021e66 .LASF3938
C:\Users\CYMR90~1\AppData\Local\Temp\ccZ8Xcmd.s:28051  .debug_str:000000000001d86a .LASF3939
C:\Users\CYMR90~1\AppData\Local\Temp\ccZ8Xcmd.s:22456  .debug_str:0000000000006de6 .LASF3940
C:\Users\CYMR90~1\AppData\Local\Temp\ccZ8Xcmd.s:22596  .debug_str:000000000000770e .LASF3941
C:\Users\CYMR90~1\AppData\Local\Temp\ccZ8Xcmd.s:26617  .debug_str:0000000000017b24 .LASF3942
C:\Users\CYMR90~1\AppData\Local\Temp\ccZ8Xcmd.s:30565  .debug_str:00000000000275ac .LASF3943
C:\Users\CYMR90~1\AppData\Local\Temp\ccZ8Xcmd.s:23186  .debug_str:0000000000009dc4 .LASF3944
C:\Users\CYMR90~1\AppData\Local\Temp\ccZ8Xcmd.s:31719  .debug_str:000000000002c01a .LASF3945
C:\Users\CYMR90~1\AppData\Local\Temp\ccZ8Xcmd.s:22704  .debug_str:0000000000007f4e .LASF3946
C:\Users\CYMR90~1\AppData\Local\Temp\ccZ8Xcmd.s:25044  .debug_str:0000000000011460 .LASF3947
C:\Users\CYMR90~1\AppData\Local\Temp\ccZ8Xcmd.s:27577  .debug_str:000000000001b955 .LASF3948
C:\Users\CYMR90~1\AppData\Local\Temp\ccZ8Xcmd.s:31637  .debug_str:000000000002ba58 .LASF3949
C:\Users\CYMR90~1\AppData\Local\Temp\ccZ8Xcmd.s:25740  .debug_str:0000000000014245 .LASF3950
C:\Users\CYMR90~1\AppData\Local\Temp\ccZ8Xcmd.s:28163  .debug_str:000000000001dfd3 .LASF3951
C:\Users\CYMR90~1\AppData\Local\Temp\ccZ8Xcmd.s:30495  .debug_str:00000000000271bd .LASF3952
C:\Users\CYMR90~1\AppData\Local\Temp\ccZ8Xcmd.s:21554  .debug_str:00000000000034a1 .LASF3953
C:\Users\CYMR90~1\AppData\Local\Temp\ccZ8Xcmd.s:28873  .debug_str:0000000000020b22 .LASF3954
C:\Users\CYMR90~1\AppData\Local\Temp\ccZ8Xcmd.s:21468  .debug_str:0000000000002ebb .LASF3955
C:\Users\CYMR90~1\AppData\Local\Temp\ccZ8Xcmd.s:28515  .debug_str:000000000001f4cb .LASF3956
C:\Users\CYMR90~1\AppData\Local\Temp\ccZ8Xcmd.s:30899  .debug_str:0000000000028bdb .LASF3957
C:\Users\CYMR90~1\AppData\Local\Temp\ccZ8Xcmd.s:25368  .debug_str:0000000000012a54 .LASF3958
C:\Users\CYMR90~1\AppData\Local\Temp\ccZ8Xcmd.s:24162  .debug_str:000000000000ddc5 .LASF3959
C:\Users\CYMR90~1\AppData\Local\Temp\ccZ8Xcmd.s:21220  .debug_str:0000000000001f4f .LASF3960
C:\Users\CYMR90~1\AppData\Local\Temp\ccZ8Xcmd.s:22728  .debug_str:00000000000080ce .LASF3961
C:\Users\CYMR90~1\AppData\Local\Temp\ccZ8Xcmd.s:25072  .debug_str:00000000000116ef .LASF3962
C:\Users\CYMR90~1\AppData\Local\Temp\ccZ8Xcmd.s:26987  .debug_str:00000000000192d9 .LASF3963
C:\Users\CYMR90~1\AppData\Local\Temp\ccZ8Xcmd.s:25036  .debug_str:00000000000113cd .LASF3964
C:\Users\CYMR90~1\AppData\Local\Temp\ccZ8Xcmd.s:20786  .debug_str:00000000000004d8 .LASF3965
C:\Users\CYMR90~1\AppData\Local\Temp\ccZ8Xcmd.s:27459  .debug_str:000000000001b28e .LASF3966
C:\Users\CYMR90~1\AppData\Local\Temp\ccZ8Xcmd.s:31493  .debug_str:000000000002b073 .LASF3967
C:\Users\CYMR90~1\AppData\Local\Temp\ccZ8Xcmd.s:24094  .debug_str:000000000000d9b0 .LASF3968
C:\Users\CYMR90~1\AppData\Local\Temp\ccZ8Xcmd.s:23116  .debug_str:000000000000997b .LASF3969
C:\Users\CYMR90~1\AppData\Local\Temp\ccZ8Xcmd.s:27023  .debug_str:00000000000194e8 .LASF3970
C:\Users\CYMR90~1\AppData\Local\Temp\ccZ8Xcmd.s:22992  .debug_str:000000000000916f .LASF3971
C:\Users\CYMR90~1\AppData\Local\Temp\ccZ8Xcmd.s:26925  .debug_str:0000000000018e39 .LASF3972
C:\Users\CYMR90~1\AppData\Local\Temp\ccZ8Xcmd.s:30853  .debug_str:0000000000028980 .LASF3973
C:\Users\CYMR90~1\AppData\Local\Temp\ccZ8Xcmd.s:25868  .debug_str:0000000000014a04 .LASF3974
C:\Users\CYMR90~1\AppData\Local\Temp\ccZ8Xcmd.s:27415  .debug_str:000000000001afb0 .LASF3975
C:\Users\CYMR90~1\AppData\Local\Temp\ccZ8Xcmd.s:31429  .debug_str:000000000002acb1 .LASF3976
C:\Users\CYMR90~1\AppData\Local\Temp\ccZ8Xcmd.s:24032  .debug_str:000000000000d620 .LASF3977
C:\Users\CYMR90~1\AppData\Local\Temp\ccZ8Xcmd.s:23172  .debug_str:0000000000009ccd .LASF3978
C:\Users\CYMR90~1\AppData\Local\Temp\ccZ8Xcmd.s:25504  .debug_str:00000000000133e6 .LASF3979
C:\Users\CYMR90~1\AppData\Local\Temp\ccZ8Xcmd.s:28933  .debug_str:0000000000020e63 .LASF3980
C:\Users\CYMR90~1\AppData\Local\Temp\ccZ8Xcmd.s:30697  .debug_str:0000000000027ea7 .LASF3981
C:\Users\CYMR90~1\AppData\Local\Temp\ccZ8Xcmd.s:28001  .debug_str:000000000001d57c .LASF3982
C:\Users\CYMR90~1\AppData\Local\Temp\ccZ8Xcmd.s:23406  .debug_str:000000000000ab38 .LASF3983
C:\Users\CYMR90~1\AppData\Local\Temp\ccZ8Xcmd.s:27353  .debug_str:000000000001ab98 .LASF3984
C:\Users\CYMR90~1\AppData\Local\Temp\ccZ8Xcmd.s:31359  .debug_str:000000000002a87e .LASF3985
C:\Users\CYMR90~1\AppData\Local\Temp\ccZ8Xcmd.s:26675  .debug_str:0000000000017e71 .LASF3986
C:\Users\CYMR90~1\AppData\Local\Temp\ccZ8Xcmd.s:25474  .debug_str:0000000000013197 .LASF3987
C:\Users\CYMR90~1\AppData\Local\Temp\ccZ8Xcmd.s:31841  .debug_str:000000000002c812 .LASF3988
C:\Users\CYMR90~1\AppData\Local\Temp\ccZ8Xcmd.s:26951  .debug_str:00000000000190ae .LASF3989
C:\Users\CYMR90~1\AppData\Local\Temp\ccZ8Xcmd.s:21502  .debug_str:000000000000314c .LASF3990
C:\Users\CYMR90~1\AppData\Local\Temp\ccZ8Xcmd.s:30721  .debug_str:0000000000028047 .LASF3991
C:\Users\CYMR90~1\AppData\Local\Temp\ccZ8Xcmd.s:31303  .debug_str:000000000002a520 .LASF3992
C:\Users\CYMR90~1\AppData\Local\Temp\ccZ8Xcmd.s:28643  .debug_str:000000000001fcc8 .LASF3993
C:\Users\CYMR90~1\AppData\Local\Temp\ccZ8Xcmd.s:31293  .debug_str:000000000002a449 .LASF3994
C:\Users\CYMR90~1\AppData\Local\Temp\ccZ8Xcmd.s:23906  .debug_str:000000000000cda6 .LASF3995
C:\Users\CYMR90~1\AppData\Local\Temp\ccZ8Xcmd.s:27809  .debug_str:000000000001c84c .LASF3996
C:\Users\CYMR90~1\AppData\Local\Temp\ccZ8Xcmd.s:31781  .debug_str:000000000002c46e .LASF3997
C:\Users\CYMR90~1\AppData\Local\Temp\ccZ8Xcmd.s:22706  .debug_str:0000000000007f74 .LASF3998
C:\Users\CYMR90~1\AppData\Local\Temp\ccZ8Xcmd.s:25858  .debug_str:0000000000014983 .LASF3999
C:\Users\CYMR90~1\AppData\Local\Temp\ccZ8Xcmd.s:25382  .debug_str:0000000000012b5b .LASF4000
C:\Users\CYMR90~1\AppData\Local\Temp\ccZ8Xcmd.s:23276  .debug_str:000000000000a375 .LASF4001
C:\Users\CYMR90~1\AppData\Local\Temp\ccZ8Xcmd.s:27209  .debug_str:000000000001a098 .LASF4002
C:\Users\CYMR90~1\AppData\Local\Temp\ccZ8Xcmd.s:24704  .debug_str:000000000000ff91 .LASF4003
C:\Users\CYMR90~1\AppData\Local\Temp\ccZ8Xcmd.s:27591  .debug_str:000000000001ba4c .LASF4004
C:\Users\CYMR90~1\AppData\Local\Temp\ccZ8Xcmd.s:27741  .debug_str:000000000001c34a .LASF4005
C:\Users\CYMR90~1\AppData\Local\Temp\ccZ8Xcmd.s:29041  .debug_str:0000000000021555 .LASF4006
C:\Users\CYMR90~1\AppData\Local\Temp\ccZ8Xcmd.s:24308  .debug_str:000000000000e6df .LASF4007
C:\Users\CYMR90~1\AppData\Local\Temp\ccZ8Xcmd.s:28189  .debug_str:000000000001e139 .LASF4008
C:\Users\CYMR90~1\AppData\Local\Temp\ccZ8Xcmd.s:20876  .debug_str:0000000000000a72 .LASF4009
C:\Users\CYMR90~1\AppData\Local\Temp\ccZ8Xcmd.s:27747  .debug_str:000000000001c3a8 .LASF4010
C:\Users\CYMR90~1\AppData\Local\Temp\ccZ8Xcmd.s:29309  .debug_str:0000000000022540 .LASF4011
C:\Users\CYMR90~1\AppData\Local\Temp\ccZ8Xcmd.s:31161  .debug_str:0000000000029c89 .LASF4012
C:\Users\CYMR90~1\AppData\Local\Temp\ccZ8Xcmd.s:23772  .debug_str:000000000000c40c .LASF4013
C:\Users\CYMR90~1\AppData\Local\Temp\ccZ8Xcmd.s:25878  .debug_str:0000000000014aaa .LASF4014
C:\Users\CYMR90~1\AppData\Local\Temp\ccZ8Xcmd.s:31653  .debug_str:000000000002bb53 .LASF4015
C:\Users\CYMR90~1\AppData\Local\Temp\ccZ8Xcmd.s:28215  .debug_str:000000000001e2c8 .LASF4016
C:\Users\CYMR90~1\AppData\Local\Temp\ccZ8Xcmd.s:28127  .debug_str:000000000001dd9e .LASF4017
C:\Users\CYMR90~1\AppData\Local\Temp\ccZ8Xcmd.s:20816  .debug_str:000000000000068f .LASF4018
C:\Users\CYMR90~1\AppData\Local\Temp\ccZ8Xcmd.s:31829  .debug_str:000000000002c72f .LASF4019
C:\Users\CYMR90~1\AppData\Local\Temp\ccZ8Xcmd.s:21774  .debug_str:000000000000430d .LASF4020
C:\Users\CYMR90~1\AppData\Local\Temp\ccZ8Xcmd.s:31097  .debug_str:00000000000298ac .LASF4021
C:\Users\CYMR90~1\AppData\Local\Temp\ccZ8Xcmd.s:27083  .debug_str:0000000000019956 .LASF4022
C:\Users\CYMR90~1\AppData\Local\Temp\ccZ8Xcmd.s:29395  .debug_str:0000000000022a87 .LASF4023
C:\Users\CYMR90~1\AppData\Local\Temp\ccZ8Xcmd.s:31593  .debug_str:000000000002b733 .LASF4024
C:\Users\CYMR90~1\AppData\Local\Temp\ccZ8Xcmd.s:24186  .debug_str:000000000000df1d .LASF4025
C:\Users\CYMR90~1\AppData\Local\Temp\ccZ8Xcmd.s:22056  .debug_str:0000000000005515 .LASF4026
C:\Users\CYMR90~1\AppData\Local\Temp\ccZ8Xcmd.s:20752  .debug_str:00000000000002fe .LASF4027
C:\Users\CYMR90~1\AppData\Local\Temp\ccZ8Xcmd.s:25250  .debug_str:00000000000122a7 .LASF4028
C:\Users\CYMR90~1\AppData\Local\Temp\ccZ8Xcmd.s:21648  .debug_str:0000000000003ab1 .LASF4029
C:\Users\CYMR90~1\AppData\Local\Temp\ccZ8Xcmd.s:25728  .debug_str:0000000000014192 .LASF4030
C:\Users\CYMR90~1\AppData\Local\Temp\ccZ8Xcmd.s:23646  .debug_str:000000000000bc19 .LASF4031
C:\Users\CYMR90~1\AppData\Local\Temp\ccZ8Xcmd.s:21028  .debug_str:00000000000013b5 .LASF4032
C:\Users\CYMR90~1\AppData\Local\Temp\ccZ8Xcmd.s:31515  .debug_str:000000000002b21c .LASF4033
C:\Users\CYMR90~1\AppData\Local\Temp\ccZ8Xcmd.s:28393  .debug_str:000000000001ed4f .LASF4034
C:\Users\CYMR90~1\AppData\Local\Temp\ccZ8Xcmd.s:28575  .debug_str:000000000001f86e .LASF4035
C:\Users\CYMR90~1\AppData\Local\Temp\ccZ8Xcmd.s:31985  .debug_str:000000000002d179 .LASF4036
C:\Users\CYMR90~1\AppData\Local\Temp\ccZ8Xcmd.s:24692  .debug_str:000000000000fec2 .LASF4037
C:\Users\CYMR90~1\AppData\Local\Temp\ccZ8Xcmd.s:25178  .debug_str:0000000000011de3 .LASF4038
C:\Users\CYMR90~1\AppData\Local\Temp\ccZ8Xcmd.s:27509  .debug_str:000000000001b5a0 .LASF4039
C:\Users\CYMR90~1\AppData\Local\Temp\ccZ8Xcmd.s:30179  .debug_str:0000000000025d81 .LASF4040
C:\Users\CYMR90~1\AppData\Local\Temp\ccZ8Xcmd.s:25906  .debug_str:0000000000014c9d .LASF4041
C:\Users\CYMR90~1\AppData\Local\Temp\ccZ8Xcmd.s:29113  .debug_str:00000000000219c0 .LASF4042
C:\Users\CYMR90~1\AppData\Local\Temp\ccZ8Xcmd.s:21460  .debug_str:0000000000002e51 .LASF4043
C:\Users\CYMR90~1\AppData\Local\Temp\ccZ8Xcmd.s:22772  .debug_str:00000000000083ac .LASF4044
C:\Users\CYMR90~1\AppData\Local\Temp\ccZ8Xcmd.s:26705  .debug_str:0000000000018036 .LASF4045
C:\Users\CYMR90~1\AppData\Local\Temp\ccZ8Xcmd.s:30641  .debug_str:0000000000027ab1 .LASF4046
C:\Users\CYMR90~1\AppData\Local\Temp\ccZ8Xcmd.s:30633  .debug_str:0000000000027a27 .LASF4047
C:\Users\CYMR90~1\AppData\Local\Temp\ccZ8Xcmd.s:31843  .debug_str:000000000002c838 .LASF4048
C:\Users\CYMR90~1\AppData\Local\Temp\ccZ8Xcmd.s:31217  .debug_str:0000000000029fb9 .LASF4049
C:\Users\CYMR90~1\AppData\Local\Temp\ccZ8Xcmd.s:22898  .debug_str:0000000000008bdf .LASF4050
C:\Users\CYMR90~1\AppData\Local\Temp\ccZ8Xcmd.s:21336  .debug_str:0000000000002697 .LASF4051
C:\Users\CYMR90~1\AppData\Local\Temp\ccZ8Xcmd.s:30085  .debug_str:0000000000025811 .LASF4052
C:\Users\CYMR90~1\AppData\Local\Temp\ccZ8Xcmd.s:22710  .debug_str:0000000000007fb0 .LASF4053
C:\Users\CYMR90~1\AppData\Local\Temp\ccZ8Xcmd.s:26629  .debug_str:0000000000017bd2 .LASF4054
C:\Users\CYMR90~1\AppData\Local\Temp\ccZ8Xcmd.s:31423  .debug_str:000000000002ac2c .LASF4055
C:\Users\CYMR90~1\AppData\Local\Temp\ccZ8Xcmd.s:21672  .debug_str:0000000000003c4f .LASF4056
C:\Users\CYMR90~1\AppData\Local\Temp\ccZ8Xcmd.s:27125  .debug_str:0000000000019be7 .LASF4057
C:\Users\CYMR90~1\AppData\Local\Temp\ccZ8Xcmd.s:31157  .debug_str:0000000000029c4c .LASF4058
C:\Users\CYMR90~1\AppData\Local\Temp\ccZ8Xcmd.s:29563  .debug_str:000000000002343f .LASF4059
C:\Users\CYMR90~1\AppData\Local\Temp\ccZ8Xcmd.s:28607  .debug_str:000000000001fa72 .LASF4060
C:\Users\CYMR90~1\AppData\Local\Temp\ccZ8Xcmd.s:29909  .debug_str:0000000000024ae4 .LASF4061
C:\Users\CYMR90~1\AppData\Local\Temp\ccZ8Xcmd.s:25060  .debug_str:0000000000011583 .LASF4062
C:\Users\CYMR90~1\AppData\Local\Temp\ccZ8Xcmd.s:26569  .debug_str:0000000000017851 .LASF4063
C:\Users\CYMR90~1\AppData\Local\Temp\ccZ8Xcmd.s:22866  .debug_str:0000000000008997 .LASF4064
C:\Users\CYMR90~1\AppData\Local\Temp\ccZ8Xcmd.s:27297  .debug_str:000000000001a809 .LASF4065
C:\Users\CYMR90~1\AppData\Local\Temp\ccZ8Xcmd.s:27529  .debug_str:000000000001b6fd .LASF4066
C:\Users\CYMR90~1\AppData\Local\Temp\ccZ8Xcmd.s:31087  .debug_str:0000000000029822 .LASF4067
C:\Users\CYMR90~1\AppData\Local\Temp\ccZ8Xcmd.s:23702  .debug_str:000000000000bfa8 .LASF4068
C:\Users\CYMR90~1\AppData\Local\Temp\ccZ8Xcmd.s:24108  .debug_str:000000000000da57 .LASF4069
C:\Users\CYMR90~1\AppData\Local\Temp\ccZ8Xcmd.s:26913  .debug_str:0000000000018d82 .LASF4070
C:\Users\CYMR90~1\AppData\Local\Temp\ccZ8Xcmd.s:22572  .debug_str:0000000000007582 .LASF4071
C:\Users\CYMR90~1\AppData\Local\Temp\ccZ8Xcmd.s:26503  .debug_str:00000000000173f8 .LASF4072
C:\Users\CYMR90~1\AppData\Local\Temp\ccZ8Xcmd.s:29543  .debug_str:00000000000232bb .LASF4073
C:\Users\CYMR90~1\AppData\Local\Temp\ccZ8Xcmd.s:23052  .debug_str:000000000000952c .LASF4074
C:\Users\CYMR90~1\AppData\Local\Temp\ccZ8Xcmd.s:31899  .debug_str:000000000002cbde .LASF4075
C:\Users\CYMR90~1\AppData\Local\Temp\ccZ8Xcmd.s:31027  .debug_str:0000000000029477 .LASF4076
C:\Users\CYMR90~1\AppData\Local\Temp\ccZ8Xcmd.s:23640  .debug_str:000000000000bba0 .LASF4077
C:\Users\CYMR90~1\AppData\Local\Temp\ccZ8Xcmd.s:27609  .debug_str:000000000001bb69 .LASF4078
C:\Users\CYMR90~1\AppData\Local\Temp\ccZ8Xcmd.s:29931  .debug_str:0000000000024c64 .LASF4079
C:\Users\CYMR90~1\AppData\Local\Temp\ccZ8Xcmd.s:25966  .debug_str:0000000000015078 .LASF4080
C:\Users\CYMR90~1\AppData\Local\Temp\ccZ8Xcmd.s:26443  .debug_str:000000000001707d .LASF4081
C:\Users\CYMR90~1\AppData\Local\Temp\ccZ8Xcmd.s:27897  .debug_str:000000000001cef3 .LASF4082
C:\Users\CYMR90~1\AppData\Local\Temp\ccZ8Xcmd.s:20928  .debug_str:0000000000000d77 .LASF4083
C:\Users\CYMR90~1\AppData\Local\Temp\ccZ8Xcmd.s:26939  .debug_str:0000000000018fe8 .LASF4084
C:\Users\CYMR90~1\AppData\Local\Temp\ccZ8Xcmd.s:26449  .debug_str:00000000000170e0 .LASF4085
C:\Users\CYMR90~1\AppData\Local\Temp\ccZ8Xcmd.s:28773  .debug_str:000000000002050a .LASF4086
C:\Users\CYMR90~1\AppData\Local\Temp\ccZ8Xcmd.s:31137  .debug_str:0000000000029b09 .LASF4087
C:\Users\CYMR90~1\AppData\Local\Temp\ccZ8Xcmd.s:31441  .debug_str:000000000002ad6b .LASF4088
C:\Users\CYMR90~1\AppData\Local\Temp\ccZ8Xcmd.s:24488  .debug_str:000000000000f199 .LASF4089
C:\Users\CYMR90~1\AppData\Local\Temp\ccZ8Xcmd.s:31849  .debug_str:000000000002c8b1 .LASF4090
C:\Users\CYMR90~1\AppData\Local\Temp\ccZ8Xcmd.s:30313  .debug_str:0000000000026605 .LASF4091
C:\Users\CYMR90~1\AppData\Local\Temp\ccZ8Xcmd.s:24434  .debug_str:000000000000ee26 .LASF4092
C:\Users\CYMR90~1\AppData\Local\Temp\ccZ8Xcmd.s:26875  .debug_str:0000000000018b45 .LASF4093
C:\Users\CYMR90~1\AppData\Local\Temp\ccZ8Xcmd.s:30893  .debug_str:0000000000028b96 .LASF4094
C:\Users\CYMR90~1\AppData\Local\Temp\ccZ8Xcmd.s:29783  .debug_str:0000000000024294 .LASF4095
C:\Users\CYMR90~1\AppData\Local\Temp\ccZ8Xcmd.s:27441  .debug_str:000000000001b184 .LASF4096
C:\Users\CYMR90~1\AppData\Local\Temp\ccZ8Xcmd.s:31373  .debug_str:000000000002a92c .LASF4097
C:\Users\CYMR90~1\AppData\Local\Temp\ccZ8Xcmd.s:23984  .debug_str:000000000000d312 .LASF4098
C:\Users\CYMR90~1\AppData\Local\Temp\ccZ8Xcmd.s:30315  .debug_str:000000000002662b .LASF4099
C:\Users\CYMR90~1\AppData\Local\Temp\ccZ8Xcmd.s:26348  .debug_str:000000000001688c .LASF4100
C:\Users\CYMR90~1\AppData\Local\Temp\ccZ8Xcmd.s:22870  .debug_str:00000000000089d1 .LASF4101
C:\Users\CYMR90~1\AppData\Local\Temp\ccZ8Xcmd.s:26797  .debug_str:0000000000018588 .LASF4102
C:\Users\CYMR90~1\AppData\Local\Temp\ccZ8Xcmd.s:24844  .debug_str:00000000000107e5 .LASF4103
C:\Users\CYMR90~1\AppData\Local\Temp\ccZ8Xcmd.s:23444  .debug_str:000000000000ae77 .LASF4104
C:\Users\CYMR90~1\AppData\Local\Temp\ccZ8Xcmd.s:26833  .debug_str:0000000000018820 .LASF4105
C:\Users\CYMR90~1\AppData\Local\Temp\ccZ8Xcmd.s:27043  .debug_str:0000000000019677 .LASF4106
C:\Users\CYMR90~1\AppData\Local\Temp\ccZ8Xcmd.s:31521  .debug_str:000000000002b272 .LASF4107
C:\Users\CYMR90~1\AppData\Local\Temp\ccZ8Xcmd.s:22496  .debug_str:00000000000070e2 .LASF4108
C:\Users\CYMR90~1\AppData\Local\Temp\ccZ8Xcmd.s:31795  .debug_str:000000000002c54f .LASF4109
C:\Users\CYMR90~1\AppData\Local\Temp\ccZ8Xcmd.s:28825  .debug_str:0000000000020816 .LASF4110
C:\Users\CYMR90~1\AppData\Local\Temp\ccZ8Xcmd.s:22436  .debug_str:0000000000006c90 .LASF4111
C:\Users\CYMR90~1\AppData\Local\Temp\ccZ8Xcmd.s:30757  .debug_str:000000000002831f .LASF4112
C:\Users\CYMR90~1\AppData\Local\Temp\ccZ8Xcmd.s:23374  .debug_str:000000000000a943 .LASF4113
C:\Users\CYMR90~1\AppData\Local\Temp\ccZ8Xcmd.s:22048  .debug_str:000000000000545f .LASF4114
C:\Users\CYMR90~1\AppData\Local\Temp\ccZ8Xcmd.s:22812  .debug_str:0000000000008611 .LASF4115
C:\Users\CYMR90~1\AppData\Local\Temp\ccZ8Xcmd.s:23862  .debug_str:000000000000cafe .LASF4116
C:\Users\CYMR90~1\AppData\Local\Temp\ccZ8Xcmd.s:27759  .debug_str:000000000001c466 .LASF4117
C:\Users\CYMR90~1\AppData\Local\Temp\ccZ8Xcmd.s:31729  .debug_str:000000000002c0a2 .LASF4118
C:\Users\CYMR90~1\AppData\Local\Temp\ccZ8Xcmd.s:24422  .debug_str:000000000000ed81 .LASF4119
C:\Users\CYMR90~1\AppData\Local\Temp\ccZ8Xcmd.s:28551  .debug_str:000000000001f6e9 .LASF4120
C:\Users\CYMR90~1\AppData\Local\Temp\ccZ8Xcmd.s:29169  .debug_str:0000000000021d35 .LASF4121
C:\Users\CYMR90~1\AppData\Local\Temp\ccZ8Xcmd.s:31551  .debug_str:000000000002b48a .LASF4122
C:\Users\CYMR90~1\AppData\Local\Temp\ccZ8Xcmd.s:27255  .debug_str:000000000001a4d7 .LASF4123
C:\Users\CYMR90~1\AppData\Local\Temp\ccZ8Xcmd.s:29889  .debug_str:00000000000249bb .LASF4124
C:\Users\CYMR90~1\AppData\Local\Temp\ccZ8Xcmd.s:27227  .debug_str:000000000001a364 .LASF4125
C:\Users\CYMR90~1\AppData\Local\Temp\ccZ8Xcmd.s:27691  .debug_str:000000000001c0b2 .LASF4126
C:\Users\CYMR90~1\AppData\Local\Temp\ccZ8Xcmd.s:20822  .debug_str:00000000000006ee .LASF4127
C:\Users\CYMR90~1\AppData\Local\Temp\ccZ8Xcmd.s:23786  .debug_str:000000000000c4d5 .LASF4128
C:\Users\CYMR90~1\AppData\Local\Temp\ccZ8Xcmd.s:23954  .debug_str:000000000000d0ed .LASF4129
C:\Users\CYMR90~1\AppData\Local\Temp\ccZ8Xcmd.s:22118  .debug_str:00000000000058ef .LASF4130
C:\Users\CYMR90~1\AppData\Local\Temp\ccZ8Xcmd.s:24218  .debug_str:000000000000e11c .LASF4131
C:\Users\CYMR90~1\AppData\Local\Temp\ccZ8Xcmd.s:27173  .debug_str:0000000000019e9a .LASF4132
C:\Users\CYMR90~1\AppData\Local\Temp\ccZ8Xcmd.s:31109  .debug_str:0000000000029969 .LASF4133
C:\Users\CYMR90~1\AppData\Local\Temp\ccZ8Xcmd.s:23726  .debug_str:000000000000c123 .LASF4134
C:\Users\CYMR90~1\AppData\Local\Temp\ccZ8Xcmd.s:27635  .debug_str:000000000001bd2e .LASF4135
C:\Users\CYMR90~1\AppData\Local\Temp\ccZ8Xcmd.s:27867  .debug_str:000000000001cc8d .LASF4136
C:\Users\CYMR90~1\AppData\Local\Temp\ccZ8Xcmd.s:27317  .debug_str:000000000001a95e .LASF4137
C:\Users\CYMR90~1\AppData\Local\Temp\ccZ8Xcmd.s:28161  .debug_str:000000000001dfad .LASF4138
C:\Users\CYMR90~1\AppData\Local\Temp\ccZ8Xcmd.s:31797  .debug_str:000000000002c575 .LASF4139
C:\Users\CYMR90~1\AppData\Local\Temp\ccZ8Xcmd.s:23334  .debug_str:000000000000a6df .LASF4140
C:\Users\CYMR90~1\AppData\Local\Temp\ccZ8Xcmd.s:21800  .debug_str:00000000000044da .LASF4141
C:\Users\CYMR90~1\AppData\Local\Temp\ccZ8Xcmd.s:25824  .debug_str:0000000000014770 .LASF4142
C:\Users\CYMR90~1\AppData\Local\Temp\ccZ8Xcmd.s:29761  .debug_str:0000000000024111 .LASF4143
C:\Users\CYMR90~1\AppData\Local\Temp\ccZ8Xcmd.s:22362  .debug_str:00000000000067ec .LASF4144
C:\Users\CYMR90~1\AppData\Local\Temp\ccZ8Xcmd.s:29253  .debug_str:00000000000221fb .LASF4145
C:\Users\CYMR90~1\AppData\Local\Temp\ccZ8Xcmd.s:31633  .debug_str:000000000002b9f7 .LASF4146
C:\Users\CYMR90~1\AppData\Local\Temp\ccZ8Xcmd.s:22346  .debug_str:00000000000066e1 .LASF4147
C:\Users\CYMR90~1\AppData\Local\Temp\ccZ8Xcmd.s:26791  .debug_str:0000000000018539 .LASF4148
C:\Users\CYMR90~1\AppData\Local\Temp\ccZ8Xcmd.s:30821  .debug_str:0000000000028783 .LASF4149
C:\Users\CYMR90~1\AppData\Local\Temp\ccZ8Xcmd.s:30153  .debug_str:0000000000025bef .LASF4150
C:\Users\CYMR90~1\AppData\Local\Temp\ccZ8Xcmd.s:25764  .debug_str:000000000001436e .LASF4151
C:\Users\CYMR90~1\AppData\Local\Temp\ccZ8Xcmd.s:29843  .debug_str:0000000000024651 .LASF4152
C:\Users\CYMR90~1\AppData\Local\Temp\ccZ8Xcmd.s:30443  .debug_str:0000000000026def .LASF4153
C:\Users\CYMR90~1\AppData\Local\Temp\ccZ8Xcmd.s:27967  .debug_str:000000000001d349 .LASF4154
C:\Users\CYMR90~1\AppData\Local\Temp\ccZ8Xcmd.s:28705  .debug_str:0000000000020055 .LASF4155
C:\Users\CYMR90~1\AppData\Local\Temp\ccZ8Xcmd.s:24826  .debug_str:00000000000106dc .LASF4156
C:\Users\CYMR90~1\AppData\Local\Temp\ccZ8Xcmd.s:28411  .debug_str:000000000001ee72 .LASF4157
C:\Users\CYMR90~1\AppData\Local\Temp\ccZ8Xcmd.s:24116  .debug_str:000000000000dac8 .LASF4158
C:\Users\CYMR90~1\AppData\Local\Temp\ccZ8Xcmd.s:22684  .debug_str:0000000000007d73 .LASF4159
C:\Users\CYMR90~1\AppData\Local\Temp\ccZ8Xcmd.s:31777  .debug_str:000000000002c42f .LASF4160
C:\Users\CYMR90~1\AppData\Local\Temp\ccZ8Xcmd.s:31655  .debug_str:000000000002bb79 .LASF4161
C:\Users\CYMR90~1\AppData\Local\Temp\ccZ8Xcmd.s:22226  .debug_str:0000000000005f91 .LASF4162
C:\Users\CYMR90~1\AppData\Local\Temp\ccZ8Xcmd.s:26164  .debug_str:0000000000015c53 .LASF4163
C:\Users\CYMR90~1\AppData\Local\Temp\ccZ8Xcmd.s:30101  .debug_str:00000000000258fe .LASF4164
C:\Users\CYMR90~1\AppData\Local\Temp\ccZ8Xcmd.s:25244  .debug_str:0000000000012250 .LASF4165
C:\Users\CYMR90~1\AppData\Local\Temp\ccZ8Xcmd.s:31989  .debug_str:000000000002d1b7 .LASF4166
C:\Users\CYMR90~1\AppData\Local\Temp\ccZ8Xcmd.s:23890  .debug_str:000000000000cc71 .LASF4167
C:\Users\CYMR90~1\AppData\Local\Temp\ccZ8Xcmd.s:23306  .debug_str:000000000000a500 .LASF4168
C:\Users\CYMR90~1\AppData\Local\Temp\ccZ8Xcmd.s:27245  .debug_str:000000000001a444 .LASF4169
C:\Users\CYMR90~1\AppData\Local\Temp\ccZ8Xcmd.s:24304  .debug_str:000000000000e6a9 .LASF4170
C:\Users\CYMR90~1\AppData\Local\Temp\ccZ8Xcmd.s:22160  .debug_str:0000000000005b58 .LASF4171
C:\Users\CYMR90~1\AppData\Local\Temp\ccZ8Xcmd.s:28441  .debug_str:000000000001f046 .LASF4172
C:\Users\CYMR90~1\AppData\Local\Temp\ccZ8Xcmd.s:30039  .debug_str:000000000002542e .LASF4173
C:\Users\CYMR90~1\AppData\Local\Temp\ccZ8Xcmd.s:29823  .debug_str:0000000000024518 .LASF4174
C:\Users\CYMR90~1\AppData\Local\Temp\ccZ8Xcmd.s:21730  .debug_str:0000000000004085 .LASF4175
C:\Users\CYMR90~1\AppData\Local\Temp\ccZ8Xcmd.s:27413  .debug_str:000000000001af8a .LASF4176
C:\Users\CYMR90~1\AppData\Local\Temp\ccZ8Xcmd.s:24910  .debug_str:0000000000010c70 .LASF4177
C:\Users\CYMR90~1\AppData\Local\Temp\ccZ8Xcmd.s:27165  .debug_str:0000000000019e15 .LASF4178
C:\Users\CYMR90~1\AppData\Local\Temp\ccZ8Xcmd.s:31103  .debug_str:00000000000298ff .LASF4179
C:\Users\CYMR90~1\AppData\Local\Temp\ccZ8Xcmd.s:30425  .debug_str:0000000000026cd7 .LASF4180
C:\Users\CYMR90~1\AppData\Local\Temp\ccZ8Xcmd.s:26036  .debug_str:000000000001546a .LASF4181
C:\Users\CYMR90~1\AppData\Local\Temp\ccZ8Xcmd.s:31741  .debug_str:000000000002c181 .LASF4182
C:\Users\CYMR90~1\AppData\Local\Temp\ccZ8Xcmd.s:22580  .debug_str:0000000000007614 .LASF4183
C:\Users\CYMR90~1\AppData\Local\Temp\ccZ8Xcmd.s:29981  .debug_str:0000000000024fd2 .LASF4184
C:\Users\CYMR90~1\AppData\Local\Temp\ccZ8Xcmd.s:31977  .debug_str:000000000002d0ea .LASF4185
C:\Users\CYMR90~1\AppData\Local\Temp\ccZ8Xcmd.s:21888  .debug_str:0000000000004af3 .LASF4186
C:\Users\CYMR90~1\AppData\Local\Temp\ccZ8Xcmd.s:27099  .debug_str:0000000000019a66 .LASF4187
C:\Users\CYMR90~1\AppData\Local\Temp\ccZ8Xcmd.s:22112  .debug_str:000000000000585b .LASF4188
C:\Users\CYMR90~1\AppData\Local\Temp\ccZ8Xcmd.s:23652  .debug_str:000000000000bc77 .LASF4189
C:\Users\CYMR90~1\AppData\Local\Temp\ccZ8Xcmd.s:24972  .debug_str:0000000000010fdf .LASF4190
C:\Users\CYMR90~1\AppData\Local\Temp\ccZ8Xcmd.s:23144  .debug_str:0000000000009b27 .LASF4191
C:\Users\CYMR90~1\AppData\Local\Temp\ccZ8Xcmd.s:30197  .debug_str:0000000000025ece .LASF4192
C:\Users\CYMR90~1\AppData\Local\Temp\ccZ8Xcmd.s:26541  .debug_str:0000000000017654 .LASF4193
C:\Users\CYMR90~1\AppData\Local\Temp\ccZ8Xcmd.s:23114  .debug_str:0000000000009955 .LASF4194
C:\Users\CYMR90~1\AppData\Local\Temp\ccZ8Xcmd.s:27749  .debug_str:000000000001c3ce .LASF4195
C:\Users\CYMR90~1\AppData\Local\Temp\ccZ8Xcmd.s:27039  .debug_str:000000000001962c .LASF4196
C:\Users\CYMR90~1\AppData\Local\Temp\ccZ8Xcmd.s:30977  .debug_str:00000000000290e7 .LASF4197
C:\Users\CYMR90~1\AppData\Local\Temp\ccZ8Xcmd.s:21112  .debug_str:000000000000195b .LASF4198
C:\Users\CYMR90~1\AppData\Local\Temp\ccZ8Xcmd.s:23458  .debug_str:000000000000af66 .LASF4199
C:\Users\CYMR90~1\AppData\Local\Temp\ccZ8Xcmd.s:24600  .debug_str:000000000000f8d1 .LASF4200
C:\Users\CYMR90~1\AppData\Local\Temp\ccZ8Xcmd.s:22448  .debug_str:0000000000006d45 .LASF4201
C:\Users\CYMR90~1\AppData\Local\Temp\ccZ8Xcmd.s:26481  .debug_str:00000000000172a4 .LASF4202
C:\Users\CYMR90~1\AppData\Local\Temp\ccZ8Xcmd.s:30417  .debug_str:0000000000026c5f .LASF4203
C:\Users\CYMR90~1\AppData\Local\Temp\ccZ8Xcmd.s:28917  .debug_str:0000000000020d82 .LASF4204
C:\Users\CYMR90~1\AppData\Local\Temp\ccZ8Xcmd.s:26975  .debug_str:0000000000019202 .LASF4205
C:\Users\CYMR90~1\AppData\Local\Temp\ccZ8Xcmd.s:30907  .debug_str:0000000000028c5c .LASF4206
C:\Users\CYMR90~1\AppData\Local\Temp\ccZ8Xcmd.s:23524  .debug_str:000000000000b3a2 .LASF4207
C:\Users\CYMR90~1\AppData\Local\Temp\ccZ8Xcmd.s:26967  .debug_str:000000000001918c .LASF4208
C:\Users\CYMR90~1\AppData\Local\Temp\ccZ8Xcmd.s:25140  .debug_str:0000000000011b89 .LASF4209
C:\Users\CYMR90~1\AppData\Local\Temp\ccZ8Xcmd.s:22190  .debug_str:0000000000005d1f .LASF4210
C:\Users\CYMR90~1\AppData\Local\Temp\ccZ8Xcmd.s:26415  .debug_str:0000000000016eee .LASF4211
C:\Users\CYMR90~1\AppData\Local\Temp\ccZ8Xcmd.s:30349  .debug_str:0000000000026827 .LASF4212
C:\Users\CYMR90~1\AppData\Local\Temp\ccZ8Xcmd.s:22978  .debug_str:000000000000908a .LASF4213
C:\Users\CYMR90~1\AppData\Local\Temp\ccZ8Xcmd.s:31379  .debug_str:000000000002a991 .LASF4214
C:\Users\CYMR90~1\AppData\Local\Temp\ccZ8Xcmd.s:27077  .debug_str:00000000000198fe .LASF4215
C:\Users\CYMR90~1\AppData\Local\Temp\ccZ8Xcmd.s:28103  .debug_str:000000000001dc00 .LASF4216
C:\Users\CYMR90~1\AppData\Local\Temp\ccZ8Xcmd.s:27401  .debug_str:000000000001aefa .LASF4217
C:\Users\CYMR90~1\AppData\Local\Temp\ccZ8Xcmd.s:31321  .debug_str:000000000002a637 .LASF4218
C:\Users\CYMR90~1\AppData\Local\Temp\ccZ8Xcmd.s:24022  .debug_str:000000000000d5aa .LASF4219
C:\Users\CYMR90~1\AppData\Local\Temp\ccZ8Xcmd.s:21082  .debug_str:0000000000001794 .LASF4220
C:\Users\CYMR90~1\AppData\Local\Temp\ccZ8Xcmd.s:30287  .debug_str:0000000000026433 .LASF4221
C:\Users\CYMR90~1\AppData\Local\Temp\ccZ8Xcmd.s:24668  .debug_str:000000000000fd67 .LASF4222
C:\Users\CYMR90~1\AppData\Local\Temp\ccZ8Xcmd.s:27143  .debug_str:0000000000019cd5 .LASF4223
C:\Users\CYMR90~1\AppData\Local\Temp\ccZ8Xcmd.s:29303  .debug_str:00000000000224e3 .LASF4224
C:\Users\CYMR90~1\AppData\Local\Temp\ccZ8Xcmd.s:31683  .debug_str:000000000002bd46 .LASF4225
C:\Users\CYMR90~1\AppData\Local\Temp\ccZ8Xcmd.s:27343  .debug_str:000000000001aafa .LASF4226
C:\Users\CYMR90~1\AppData\Local\Temp\ccZ8Xcmd.s:31261  .debug_str:000000000002a228 .LASF4227
C:\Users\CYMR90~1\AppData\Local\Temp\ccZ8Xcmd.s:28175  .debug_str:000000000001e072 .LASF4228
C:\Users\CYMR90~1\AppData\Local\Temp\ccZ8Xcmd.s:24616  .debug_str:000000000000f9db .LASF4229
C:\Users\CYMR90~1\AppData\Local\Temp\ccZ8Xcmd.s:24958  .debug_str:0000000000010eff .LASF4230
C:\Users\CYMR90~1\AppData\Local\Temp\ccZ8Xcmd.s:22840  .debug_str:0000000000008809 .LASF4231
C:\Users\CYMR90~1\AppData\Local\Temp\ccZ8Xcmd.s:22918  .debug_str:0000000000008d2b .LASF4232
C:\Users\CYMR90~1\AppData\Local\Temp\ccZ8Xcmd.s:27899  .debug_str:000000000001cf19 .LASF4233
C:\Users\CYMR90~1\AppData\Local\Temp\ccZ8Xcmd.s:24936  .debug_str:0000000000010dbf .LASF4234
C:\Users\CYMR90~1\AppData\Local\Temp\ccZ8Xcmd.s:27271  .debug_str:000000000001a615 .LASF4235
C:\Users\CYMR90~1\AppData\Local\Temp\ccZ8Xcmd.s:25644  .debug_str:0000000000013c72 .LASF4236
C:\Users\CYMR90~1\AppData\Local\Temp\ccZ8Xcmd.s:28219  .debug_str:000000000001e31e .LASF4237
C:\Users\CYMR90~1\AppData\Local\Temp\ccZ8Xcmd.s:28981  .debug_str:000000000002111d .LASF4238
C:\Users\CYMR90~1\AppData\Local\Temp\ccZ8Xcmd.s:25084  .debug_str:000000000001179b .LASF4239
C:\Users\CYMR90~1\AppData\Local\Temp\ccZ8Xcmd.s:23372  .debug_str:000000000000a91d .LASF4240
C:\Users\CYMR90~1\AppData\Local\Temp\ccZ8Xcmd.s:21506  .debug_str:000000000000318a .LASF4241
C:\Users\CYMR90~1\AppData\Local\Temp\ccZ8Xcmd.s:25446  .debug_str:0000000000012f96 .LASF4242
C:\Users\CYMR90~1\AppData\Local\Temp\ccZ8Xcmd.s:29013  .debug_str:00000000000213b2 .LASF4243
C:\Users\CYMR90~1\AppData\Local\Temp\ccZ8Xcmd.s:21958  .debug_str:0000000000004f3a .LASF4244
C:\Users\CYMR90~1\AppData\Local\Temp\ccZ8Xcmd.s:25902  .debug_str:0000000000014c55 .LASF4245
C:\Users\CYMR90~1\AppData\Local\Temp\ccZ8Xcmd.s:29833  .debug_str:00000000000245b5 .LASF4246
C:\Users\CYMR90~1\AppData\Local\Temp\ccZ8Xcmd.s:22438  .debug_str:0000000000006cb6 .LASF4247
C:\Users\CYMR90~1\AppData\Local\Temp\ccZ8Xcmd.s:24768  .debug_str:0000000000010363 .LASF4248
C:\Users\CYMR90~1\AppData\Local\Temp\ccZ8Xcmd.s:30409  .debug_str:0000000000026bc4 .LASF4249
C:\Users\CYMR90~1\AppData\Local\Temp\ccZ8Xcmd.s:28625  .debug_str:000000000001fb66 .LASF4250
C:\Users\CYMR90~1\AppData\Local\Temp\ccZ8Xcmd.s:25390  .debug_str:0000000000012bf6 .LASF4251
C:\Users\CYMR90~1\AppData\Local\Temp\ccZ8Xcmd.s:29295  .debug_str:000000000002244e .LASF4252
C:\Users\CYMR90~1\AppData\Local\Temp\ccZ8Xcmd.s:25230  .debug_str:0000000000012159 .LASF4253
C:\Users\CYMR90~1\AppData\Local\Temp\ccZ8Xcmd.s:25946  .debug_str:0000000000014f51 .LASF4254
C:\Users\CYMR90~1\AppData\Local\Temp\ccZ8Xcmd.s:31847  .debug_str:000000000002c88b .LASF4255
C:\Users\CYMR90~1\AppData\Local\Temp\ccZ8Xcmd.s:30573  .debug_str:0000000000027631 .LASF4256
C:\Users\CYMR90~1\AppData\Local\Temp\ccZ8Xcmd.s:26314  .debug_str:0000000000016612 .LASF4257
C:\Users\CYMR90~1\AppData\Local\Temp\ccZ8Xcmd.s:24818  .debug_str:000000000001065f .LASF4258
C:\Users\CYMR90~1\AppData\Local\Temp\ccZ8Xcmd.s:22970  .debug_str:000000000000901b .LASF4259
C:\Users\CYMR90~1\AppData\Local\Temp\ccZ8Xcmd.s:31371  .debug_str:000000000002a906 .LASF4260
C:\Users\CYMR90~1\AppData\Local\Temp\ccZ8Xcmd.s:24762  .debug_str:0000000000010303 .LASF4261
C:\Users\CYMR90~1\AppData\Local\Temp\ccZ8Xcmd.s:26202  .debug_str:0000000000015f23 .LASF4262
C:\Users\CYMR90~1\AppData\Local\Temp\ccZ8Xcmd.s:29403  .debug_str:0000000000022b0f .LASF4263
C:\Users\CYMR90~1\AppData\Local\Temp\ccZ8Xcmd.s:24522  .debug_str:000000000000f3a5 .LASF4264
C:\Users\CYMR90~1\AppData\Local\Temp\ccZ8Xcmd.s:22308  .debug_str:0000000000006447 .LASF4265
C:\Users\CYMR90~1\AppData\Local\Temp\ccZ8Xcmd.s:26248  .debug_str:00000000000161dc .LASF4266
C:\Users\CYMR90~1\AppData\Local\Temp\ccZ8Xcmd.s:28273  .debug_str:000000000001e681 .LASF4267
C:\Users\CYMR90~1\AppData\Local\Temp\ccZ8Xcmd.s:22908  .debug_str:0000000000008ca0 .LASF4268
C:\Users\CYMR90~1\AppData\Local\Temp\ccZ8Xcmd.s:26829  .debug_str:00000000000187c0 .LASF4269
C:\Users\CYMR90~1\AppData\Local\Temp\ccZ8Xcmd.s:23918  .debug_str:000000000000ce75 .LASF4270
C:\Users\CYMR90~1\AppData\Local\Temp\ccZ8Xcmd.s:21778  .debug_str:0000000000004357 .LASF4271
C:\Users\CYMR90~1\AppData\Local\Temp\ccZ8Xcmd.s:25708  .debug_str:0000000000014064 .LASF4272
C:\Users\CYMR90~1\AppData\Local\Temp\ccZ8Xcmd.s:23766  .debug_str:000000000000c381 .LASF4273
C:\Users\CYMR90~1\AppData\Local\Temp\ccZ8Xcmd.s:22244  .debug_str:000000000000608f .LASF4274
C:\Users\CYMR90~1\AppData\Local\Temp\ccZ8Xcmd.s:21390  .debug_str:0000000000002a08 .LASF4275
C:\Users\CYMR90~1\AppData\Local\Temp\ccZ8Xcmd.s:31853  .debug_str:000000000002c8fb .LASF4276
C:\Users\CYMR90~1\AppData\Local\Temp\ccZ8Xcmd.s:22854  .debug_str:00000000000088d1 .LASF4277
C:\Users\CYMR90~1\AppData\Local\Temp\ccZ8Xcmd.s:26759  .debug_str:0000000000018391 .LASF4278
C:\Users\CYMR90~1\AppData\Local\Temp\ccZ8Xcmd.s:21148  .debug_str:0000000000001b55 .LASF4279
C:\Users\CYMR90~1\AppData\Local\Temp\ccZ8Xcmd.s:20942  .debug_str:0000000000000ed5 .LASF4280
C:\Users\CYMR90~1\AppData\Local\Temp\ccZ8Xcmd.s:25640  .debug_str:0000000000013c2f .LASF4281
C:\Users\CYMR90~1\AppData\Local\Temp\ccZ8Xcmd.s:29581  .debug_str:000000000002355d .LASF4282
C:\Users\CYMR90~1\AppData\Local\Temp\ccZ8Xcmd.s:26046  .debug_str:000000000001551c .LASF4283
C:\Users\CYMR90~1\AppData\Local\Temp\ccZ8Xcmd.s:30749  .debug_str:0000000000028299 .LASF4284
C:\Users\CYMR90~1\AppData\Local\Temp\ccZ8Xcmd.s:24038  .debug_str:000000000000d68c .LASF4285
C:\Users\CYMR90~1\AppData\Local\Temp\ccZ8Xcmd.s:22760  .debug_str:0000000000008304 .LASF4286
C:\Users\CYMR90~1\AppData\Local\Temp\ccZ8Xcmd.s:28671  .debug_str:000000000001fe78 .LASF4287
C:\Users\CYMR90~1\AppData\Local\Temp\ccZ8Xcmd.s:30629  .debug_str:00000000000279df .LASF4288
C:\Users\CYMR90~1\AppData\Local\Temp\ccZ8Xcmd.s:23248  .debug_str:000000000000a18d .LASF4289
C:\Users\CYMR90~1\AppData\Local\Temp\ccZ8Xcmd.s:31665  .debug_str:000000000002bc00 .LASF4290
C:\Users\CYMR90~1\AppData\Local\Temp\ccZ8Xcmd.s:22544  .debug_str:00000000000073b8 .LASF4291
C:\Users\CYMR90~1\AppData\Local\Temp\ccZ8Xcmd.s:22108  .debug_str:0000000000005803 .LASF4292
C:\Users\CYMR90~1\AppData\Local\Temp\ccZ8Xcmd.s:25210  .debug_str:0000000000012048 .LASF4293
C:\Users\CYMR90~1\AppData\Local\Temp\ccZ8Xcmd.s:26092  .debug_str:00000000000157c7 .LASF4294
C:\Users\CYMR90~1\AppData\Local\Temp\ccZ8Xcmd.s:22696  .debug_str:0000000000007eb8 .LASF4295
C:\Users\CYMR90~1\AppData\Local\Temp\ccZ8Xcmd.s:26284  .debug_str:0000000000016449 .LASF4296
C:\Users\CYMR90~1\AppData\Local\Temp\ccZ8Xcmd.s:23236  .debug_str:000000000000a0de .LASF4297
C:\Users\CYMR90~1\AppData\Local\Temp\ccZ8Xcmd.s:21372  .debug_str:00000000000028db .LASF4298
C:\Users\CYMR90~1\AppData\Local\Temp\ccZ8Xcmd.s:27875  .debug_str:000000000001cd02 .LASF4299
C:\Users\CYMR90~1\AppData\Local\Temp\ccZ8Xcmd.s:23944  .debug_str:000000000000d035 .LASF4300
C:\Users\CYMR90~1\AppData\Local\Temp\ccZ8Xcmd.s:22042  .debug_str:0000000000005429 .LASF4301
C:\Users\CYMR90~1\AppData\Local\Temp\ccZ8Xcmd.s:22648  .debug_str:0000000000007a6f .LASF4302
C:\Users\CYMR90~1\AppData\Local\Temp\ccZ8Xcmd.s:31067  .debug_str:0000000000029722 .LASF4303
C:\Users\CYMR90~1\AppData\Local\Temp\ccZ8Xcmd.s:22620  .debug_str:00000000000078dc .LASF4304
C:\Users\CYMR90~1\AppData\Local\Temp\ccZ8Xcmd.s:22206  .debug_str:0000000000005e12 .LASF4305
C:\Users\CYMR90~1\AppData\Local\Temp\ccZ8Xcmd.s:22986  .debug_str:0000000000009110 .LASF4306
C:\Users\CYMR90~1\AppData\Local\Temp\ccZ8Xcmd.s:29655  .debug_str:00000000000239d2 .LASF4307
C:\Users\CYMR90~1\AppData\Local\Temp\ccZ8Xcmd.s:21822  .debug_str:0000000000004663 .LASF4308
C:\Users\CYMR90~1\AppData\Local\Temp\ccZ8Xcmd.s:22398  .debug_str:00000000000069f6 .LASF4309
C:\Users\CYMR90~1\AppData\Local\Temp\ccZ8Xcmd.s:31533  .debug_str:000000000002b345 .LASF4310
C:\Users\CYMR90~1\AppData\Local\Temp\ccZ8Xcmd.s:21986  .debug_str:00000000000050e5 .LASF4311
C:\Users\CYMR90~1\AppData\Local\Temp\ccZ8Xcmd.s:23260  .debug_str:000000000000a27e .LASF4312
C:\Users\CYMR90~1\AppData\Local\Temp\ccZ8Xcmd.s:22556  .debug_str:0000000000007488 .LASF4313
C:\Users\CYMR90~1\AppData\Local\Temp\ccZ8Xcmd.s:27907  .debug_str:000000000001cf90 .LASF4314
C:\Users\CYMR90~1\AppData\Local\Temp\ccZ8Xcmd.s:30243  .debug_str:000000000002617c .LASF4315
C:\Users\CYMR90~1\AppData\Local\Temp\ccZ8Xcmd.s:27261  .debug_str:000000000001a549 .LASF4316
C:\Users\CYMR90~1\AppData\Local\Temp\ccZ8Xcmd.s:23614  .debug_str:000000000000b95f .LASF4317
C:\Users\CYMR90~1\AppData\Local\Temp\ccZ8Xcmd.s:31011  .debug_str:000000000002935d .LASF4318
C:\Users\CYMR90~1\AppData\Local\Temp\ccZ8Xcmd.s:23382  .debug_str:000000000000a9d4 .LASF4319
C:\Users\CYMR90~1\AppData\Local\Temp\ccZ8Xcmd.s:20726  .debug_str:0000000000000196 .LASF4320
C:\Users\CYMR90~1\AppData\Local\Temp\ccZ8Xcmd.s:29879  .debug_str:00000000000248f4 .LASF4321
C:\Users\CYMR90~1\AppData\Local\Temp\ccZ8Xcmd.s:29069  .debug_str:0000000000021712 .LASF4322
C:\Users\CYMR90~1\AppData\Local\Temp\ccZ8Xcmd.s:26431  .debug_str:0000000000016fc8 .LASF4323
C:\Users\CYMR90~1\AppData\Local\Temp\ccZ8Xcmd.s:30363  .debug_str:0000000000026919 .LASF4324
C:\Users\CYMR90~1\AppData\Local\Temp\ccZ8Xcmd.s:26565  .debug_str:00000000000177fa .LASF4325
C:\Users\CYMR90~1\AppData\Local\Temp\ccZ8Xcmd.s:27345  .debug_str:000000000001ab20 .LASF4326
C:\Users\CYMR90~1\AppData\Local\Temp\ccZ8Xcmd.s:30327  .debug_str:00000000000266e9 .LASF4327
C:\Users\CYMR90~1\AppData\Local\Temp\ccZ8Xcmd.s:30457  .debug_str:0000000000026eb7 .LASF4328
C:\Users\CYMR90~1\AppData\Local\Temp\ccZ8Xcmd.s:27479  .debug_str:000000000001b3c5 .LASF4329
C:\Users\CYMR90~1\AppData\Local\Temp\ccZ8Xcmd.s:29515  .debug_str:0000000000023122 .LASF4330
C:\Users\CYMR90~1\AppData\Local\Temp\ccZ8Xcmd.s:22416  .debug_str:0000000000006b56 .LASF4331
C:\Users\CYMR90~1\AppData\Local\Temp\ccZ8Xcmd.s:26362  .debug_str:00000000000169f9 .LASF4332
C:\Users\CYMR90~1\AppData\Local\Temp\ccZ8Xcmd.s:30301  .debug_str:0000000000026510 .LASF4333
C:\Users\CYMR90~1\AppData\Local\Temp\ccZ8Xcmd.s:21768  .debug_str:00000000000042b7 .LASF4334
C:\Users\CYMR90~1\AppData\Local\Temp\ccZ8Xcmd.s:26877  .debug_str:0000000000018b6b .LASF4335
C:\Users\CYMR90~1\AppData\Local\Temp\ccZ8Xcmd.s:25508  .debug_str:0000000000013446 .LASF4336
C:\Users\CYMR90~1\AppData\Local\Temp\ccZ8Xcmd.s:27617  .debug_str:000000000001bbe2 .LASF4337
C:\Users\CYMR90~1\AppData\Local\Temp\ccZ8Xcmd.s:27433  .debug_str:000000000001b10f .LASF4338
C:\Users\CYMR90~1\AppData\Local\Temp\ccZ8Xcmd.s:25872  .debug_str:0000000000014a3e .LASF4339
C:\Users\CYMR90~1\AppData\Local\Temp\ccZ8Xcmd.s:20916  .debug_str:0000000000000cc3 .LASF4340
C:\Users\CYMR90~1\AppData\Local\Temp\ccZ8Xcmd.s:29291  .debug_str:0000000000022410 .LASF4341
C:\Users\CYMR90~1\AppData\Local\Temp\ccZ8Xcmd.s:25046  .debug_str:0000000000011486 .LASF4342
C:\Users\CYMR90~1\AppData\Local\Temp\ccZ8Xcmd.s:28957  .debug_str:0000000000020fb6 .LASF4343
C:\Users\CYMR90~1\AppData\Local\Temp\ccZ8Xcmd.s:21586  .debug_str:00000000000036d3 .LASF4344
C:\Users\CYMR90~1\AppData\Local\Temp\ccZ8Xcmd.s:25526  .debug_str:0000000000013571 .LASF4345
C:\Users\CYMR90~1\AppData\Local\Temp\ccZ8Xcmd.s:28863  .debug_str:0000000000020a78 .LASF4346
C:\Users\CYMR90~1\AppData\Local\Temp\ccZ8Xcmd.s:31525  .debug_str:000000000002b2b5 .LASF4347
C:\Users\CYMR90~1\AppData\Local\Temp\ccZ8Xcmd.s:26895  .debug_str:0000000000018c8b .LASF4348
C:\Users\CYMR90~1\AppData\Local\Temp\ccZ8Xcmd.s:28453  .debug_str:000000000001f0fa .LASF4349
C:\Users\CYMR90~1\AppData\Local\Temp\ccZ8Xcmd.s:21766  .debug_str:0000000000004291 .LASF4350
C:\Users\CYMR90~1\AppData\Local\Temp\ccZ8Xcmd.s:21698  .debug_str:0000000000003e16 .LASF4351
C:\Users\CYMR90~1\AppData\Local\Temp\ccZ8Xcmd.s:28891  .debug_str:0000000000020c1b .LASF4352
C:\Users\CYMR90~1\AppData\Local\Temp\ccZ8Xcmd.s:26859  .debug_str:0000000000018985 .LASF4353
C:\Users\CYMR90~1\AppData\Local\Temp\ccZ8Xcmd.s:25558  .debug_str:0000000000013752 .LASF4354
C:\Users\CYMR90~1\AppData\Local\Temp\ccZ8Xcmd.s:29397  .debug_str:0000000000022aad .LASF4355
C:\Users\CYMR90~1\AppData\Local\Temp\ccZ8Xcmd.s:31955  .debug_str:000000000002cf89 .LASF4356
C:\Users\CYMR90~1\AppData\Local\Temp\ccZ8Xcmd.s:23356  .debug_str:000000000000a811 .LASF4357
C:\Users\CYMR90~1\AppData\Local\Temp\ccZ8Xcmd.s:24020  .debug_str:000000000000d59d .LASF4358
C:\Users\CYMR90~1\AppData\Local\Temp\ccZ8Xcmd.s:29535  .debug_str:0000000000023248 .LASF4359
C:\Users\CYMR90~1\AppData\Local\Temp\ccZ8Xcmd.s:28079  .debug_str:000000000001da09 .LASF4360
C:\Users\CYMR90~1\AppData\Local\Temp\ccZ8Xcmd.s:25248  .debug_str:0000000000012284 .LASF4361
C:\Users\CYMR90~1\AppData\Local\Temp\ccZ8Xcmd.s:31019  .debug_str:00000000000293e1 .LASF4362
C:\Users\CYMR90~1\AppData\Local\Temp\ccZ8Xcmd.s:24200  .debug_str:000000000000dff6 .LASF4363
C:\Users\CYMR90~1\AppData\Local\Temp\ccZ8Xcmd.s:22368  .debug_str:0000000000006846 .LASF4364
C:\Users\CYMR90~1\AppData\Local\Temp\ccZ8Xcmd.s:25578  .debug_str:0000000000013867 .LASF4365
C:\Users\CYMR90~1\AppData\Local\Temp\ccZ8Xcmd.s:25208  .debug_str:0000000000012021 .LASF4366
C:\Users\CYMR90~1\AppData\Local\Temp\ccZ8Xcmd.s:21450  .debug_str:0000000000002dae .LASF4367
C:\Users\CYMR90~1\AppData\Local\Temp\ccZ8Xcmd.s:22008  .debug_str:000000000000521d .LASF4368
C:\Users\CYMR90~1\AppData\Local\Temp\ccZ8Xcmd.s:21536  .debug_str:0000000000003389 .LASF4369
C:\Users\CYMR90~1\AppData\Local\Temp\ccZ8Xcmd.s:20744  .debug_str:0000000000000287 .LASF4370
C:\Users\CYMR90~1\AppData\Local\Temp\ccZ8Xcmd.s:22980  .debug_str:00000000000090b0 .LASF4371
C:\Users\CYMR90~1\AppData\Local\Temp\ccZ8Xcmd.s:26336  .debug_str:00000000000167dd .LASF4372
C:\Users\CYMR90~1\AppData\Local\Temp\ccZ8Xcmd.s:21440  .debug_str:0000000000002d23 .LASF4373
C:\Users\CYMR90~1\AppData\Local\Temp\ccZ8Xcmd.s:30383  .debug_str:0000000000026a3e .LASF4374
C:\Users\CYMR90~1\AppData\Local\Temp\ccZ8Xcmd.s:26206  .debug_str:0000000000015f64 .LASF4375
C:\Users\CYMR90~1\AppData\Local\Temp\ccZ8Xcmd.s:26871  .debug_str:0000000000018ade .LASF4376
C:\Users\CYMR90~1\AppData\Local\Temp\ccZ8Xcmd.s:29547  .debug_str:0000000000023318 .LASF4377
C:\Users\CYMR90~1\AppData\Local\Temp\ccZ8Xcmd.s:29323  .debug_str:0000000000022613 .LASF4378
C:\Users\CYMR90~1\AppData\Local\Temp\ccZ8Xcmd.s:25408  .debug_str:0000000000012d0a .LASF4379
C:\Users\CYMR90~1\AppData\Local\Temp\ccZ8Xcmd.s:31061  .debug_str:00000000000296ab .LASF4380
C:\Users\CYMR90~1\AppData\Local\Temp\ccZ8Xcmd.s:31289  .debug_str:000000000002a417 .LASF4381
C:\Users\CYMR90~1\AppData\Local\Temp\ccZ8Xcmd.s:27975  .debug_str:000000000001d3c6 .LASF4382
C:\Users\CYMR90~1\AppData\Local\Temp\ccZ8Xcmd.s:30149  .debug_str:0000000000025bb2 .LASF4383
C:\Users\CYMR90~1\AppData\Local\Temp\ccZ8Xcmd.s:24944  .debug_str:0000000000010e2d .LASF4384
C:\Users\CYMR90~1\AppData\Local\Temp\ccZ8Xcmd.s:28129  .debug_str:000000000001ddc4 .LASF4385
C:\Users\CYMR90~1\AppData\Local\Temp\ccZ8Xcmd.s:23148  .debug_str:0000000000009b64 .LASF4386
C:\Users\CYMR90~1\AppData\Local\Temp\ccZ8Xcmd.s:26411  .debug_str:0000000000016eb2 .LASF4387
C:\Users\CYMR90~1\AppData\Local\Temp\ccZ8Xcmd.s:27973  .debug_str:000000000001d3a1 .LASF4388
C:\Users\CYMR90~1\AppData\Local\Temp\ccZ8Xcmd.s:23536  .debug_str:000000000000b441 .LASF4389
C:\Users\CYMR90~1\AppData\Local\Temp\ccZ8Xcmd.s:26545  .debug_str:0000000000017692 .LASF4390
C:\Users\CYMR90~1\AppData\Local\Temp\ccZ8Xcmd.s:27679  .debug_str:000000000001bfec .LASF4391
C:\Users\CYMR90~1\AppData\Local\Temp\ccZ8Xcmd.s:25338  .debug_str:00000000000128a5 .LASF4392
C:\Users\CYMR90~1\AppData\Local\Temp\ccZ8Xcmd.s:28845  .debug_str:0000000000020944 .LASF4393
C:\Users\CYMR90~1\AppData\Local\Temp\ccZ8Xcmd.s:23468  .debug_str:000000000000afea .LASF4394
C:\Users\CYMR90~1\AppData\Local\Temp\ccZ8Xcmd.s:27367  .debug_str:000000000001ac69 .LASF4395
C:\Users\CYMR90~1\AppData\Local\Temp\ccZ8Xcmd.s:26044  .debug_str:00000000000154f7 .LASF4396
C:\Users\CYMR90~1\AppData\Local\Temp\ccZ8Xcmd.s:25388  .debug_str:0000000000012bd1 .LASF4397
C:\Users\CYMR90~1\AppData\Local\Temp\ccZ8Xcmd.s:31663  .debug_str:000000000002bbe9 .LASF4398
C:\Users\CYMR90~1\AppData\Local\Temp\ccZ8Xcmd.s:26993  .debug_str:0000000000019333 .LASF4399
C:\Users\CYMR90~1\AppData\Local\Temp\ccZ8Xcmd.s:26543  .debug_str:000000000001767a .LASF4400
C:\Users\CYMR90~1\AppData\Local\Temp\ccZ8Xcmd.s:30533  .debug_str:0000000000027406 .LASF4401
C:\Users\CYMR90~1\AppData\Local\Temp\ccZ8Xcmd.s:29663  .debug_str:0000000000023a47 .LASF4402
C:\Users\CYMR90~1\AppData\Local\Temp\ccZ8Xcmd.s:22040  .debug_str:0000000000005410 .LASF4403
C:\Users\CYMR90~1\AppData\Local\Temp\ccZ8Xcmd.s:21022  .debug_str:000000000000136b .LASF4404
C:\Users\CYMR90~1\AppData\Local\Temp\ccZ8Xcmd.s:28313  .debug_str:000000000001e8b3 .LASF4405
C:\Users\CYMR90~1\AppData\Local\Temp\ccZ8Xcmd.s:29029  .debug_str:000000000002149b .LASF4406
C:\Users\CYMR90~1\AppData\Local\Temp\ccZ8Xcmd.s:31235  .debug_str:000000000002a0d6 .LASF4407
C:\Users\CYMR90~1\AppData\Local\Temp\ccZ8Xcmd.s:25064  .debug_str:00000000000115c0 .LASF4408
C:\Users\CYMR90~1\AppData\Local\Temp\ccZ8Xcmd.s:30885  .debug_str:0000000000028b35 .LASF4409
C:\Users\CYMR90~1\AppData\Local\Temp\ccZ8Xcmd.s:25834  .debug_str:0000000000014808 .LASF4410
C:\Users\CYMR90~1\AppData\Local\Temp\ccZ8Xcmd.s:23430  .debug_str:000000000000ada8 .LASF4411
C:\Users\CYMR90~1\AppData\Local\Temp\ccZ8Xcmd.s:28807  .debug_str:00000000000206ec .LASF4412
C:\Users\CYMR90~1\AppData\Local\Temp\ccZ8Xcmd.s:22868  .debug_str:00000000000089bd .LASF4413
C:\Users\CYMR90~1\AppData\Local\Temp\ccZ8Xcmd.s:26457  .debug_str:0000000000017152 .LASF4414
C:\Users\CYMR90~1\AppData\Local\Temp\ccZ8Xcmd.s:29627  .debug_str:000000000002383c .LASF4415
C:\Users\CYMR90~1\AppData\Local\Temp\ccZ8Xcmd.s:30455  .debug_str:0000000000026ea5 .LASF4416
C:\Users\CYMR90~1\AppData\Local\Temp\ccZ8Xcmd.s:25870  .debug_str:0000000000014a2a .LASF4417
C:\Users\CYMR90~1\AppData\Local\Temp\ccZ8Xcmd.s:28213  .debug_str:000000000001e2b1 .LASF4418
C:\Users\CYMR90~1\AppData\Local\Temp\ccZ8Xcmd.s:23844  .debug_str:000000000000c9f4 .LASF4419
C:\Users\CYMR90~1\AppData\Local\Temp\ccZ8Xcmd.s:25646  .debug_str:0000000000013c98 .LASF4420
C:\Users\CYMR90~1\AppData\Local\Temp\ccZ8Xcmd.s:28045  .debug_str:000000000001d827 .LASF4421
C:\Users\CYMR90~1\AppData\Local\Temp\ccZ8Xcmd.s:25416  .debug_str:0000000000012d91 .LASF4422
C:\Users\CYMR90~1\AppData\Local\Temp\ccZ8Xcmd.s:28877  .debug_str:0000000000020b6d .LASF4423
C:\Users\CYMR90~1\AppData\Local\Temp\ccZ8Xcmd.s:24392  .debug_str:000000000000ebef .LASF4424
C:\Users\CYMR90~1\AppData\Local\Temp\ccZ8Xcmd.s:27995  .debug_str:000000000001d54e .LASF4425
C:\Users\CYMR90~1\AppData\Local\Temp\ccZ8Xcmd.s:21820  .debug_str:000000000000464f .LASF4426
C:\Users\CYMR90~1\AppData\Local\Temp\ccZ8Xcmd.s:21198  .debug_str:0000000000001e5c .LASF4427
C:\Users\CYMR90~1\AppData\Local\Temp\ccZ8Xcmd.s:27719  .debug_str:000000000001c254 .LASF4428
C:\Users\CYMR90~1\AppData\Local\Temp\ccZ8Xcmd.s:22782  .debug_str:0000000000008459 .LASF4429
C:\Users\CYMR90~1\AppData\Local\Temp\ccZ8Xcmd.s:31363  .debug_str:000000000002a8b5 .LASF4430
C:\Users\CYMR90~1\AppData\Local\Temp\ccZ8Xcmd.s:22632  .debug_str:0000000000007992 .LASF4431
C:\Users\CYMR90~1\AppData\Local\Temp\ccZ8Xcmd.s:20790  .debug_str:0000000000000516 .LASF4432
C:\Users\CYMR90~1\AppData\Local\Temp\ccZ8Xcmd.s:29871  .debug_str:000000000002488b .LASF4433
C:\Users\CYMR90~1\AppData\Local\Temp\ccZ8Xcmd.s:26777  .debug_str:000000000001848e .LASF4434
C:\Users\CYMR90~1\AppData\Local\Temp\ccZ8Xcmd.s:24502  .debug_str:000000000000f288 .LASF4435
C:\Users\CYMR90~1\AppData\Local\Temp\ccZ8Xcmd.s:29473  .debug_str:0000000000022ed4 .LASF4436
C:\Users\CYMR90~1\AppData\Local\Temp\ccZ8Xcmd.s:31183  .debug_str:0000000000029dd3 .LASF4437
C:\Users\CYMR90~1\AppData\Local\Temp\ccZ8Xcmd.s:23700  .debug_str:000000000000bf94 .LASF4438
C:\Users\CYMR90~1\AppData\Local\Temp\ccZ8Xcmd.s:22228  .debug_str:0000000000005fb7 .LASF4439
C:\Users\CYMR90~1\AppData\Local\Temp\ccZ8Xcmd.s:21866  .debug_str:00000000000049a0 .LASF4440
C:\Users\CYMR90~1\AppData\Local\Temp\ccZ8Xcmd.s:30223  .debug_str:000000000002607a .LASF4441
C:\Users\CYMR90~1\AppData\Local\Temp\ccZ8Xcmd.s:24092  .debug_str:000000000000d999 .LASF4442
C:\Users\CYMR90~1\AppData\Local\Temp\ccZ8Xcmd.s:25500  .debug_str:00000000000133b0 .LASF4443
C:\Users\CYMR90~1\AppData\Local\Temp\ccZ8Xcmd.s:22846  .debug_str:000000000000886a .LASF4444
C:\Users\CYMR90~1\AppData\Local\Temp\ccZ8Xcmd.s:26052  .debug_str:000000000001556d .LASF4445
C:\Users\CYMR90~1\AppData\Local\Temp\ccZ8Xcmd.s:30009  .debug_str:0000000000025224 .LASF4446
C:\Users\CYMR90~1\AppData\Local\Temp\ccZ8Xcmd.s:21300  .debug_str:00000000000023ea .LASF4447
C:\Users\CYMR90~1\AppData\Local\Temp\ccZ8Xcmd.s:24442  .debug_str:000000000000eeb9 .LASF4448
C:\Users\CYMR90~1\AppData\Local\Temp\ccZ8Xcmd.s:20930  .debug_str:0000000000000d9d .LASF4449
C:\Users\CYMR90~1\AppData\Local\Temp\ccZ8Xcmd.s:24898  .debug_str:0000000000010bd8 .LASF4450
C:\Users\CYMR90~1\AppData\Local\Temp\ccZ8Xcmd.s:23582  .debug_str:000000000000b74a .LASF4451
C:\Users\CYMR90~1\AppData\Local\Temp\ccZ8Xcmd.s:28577  .debug_str:000000000001f894 .LASF4452
C:\Users\CYMR90~1\AppData\Local\Temp\ccZ8Xcmd.s:27549  .debug_str:000000000001b7de .LASF4453
C:\Users\CYMR90~1\AppData\Local\Temp\ccZ8Xcmd.s:25304  .debug_str:0000000000012644 .LASF4454
C:\Users\CYMR90~1\AppData\Local\Temp\ccZ8Xcmd.s:21294  .debug_str:000000000000239d .LASF4455
C:\Users\CYMR90~1\AppData\Local\Temp\ccZ8Xcmd.s:27949  .debug_str:000000000001d21b .LASF4456
C:\Users\CYMR90~1\AppData\Local\Temp\ccZ8Xcmd.s:23820  .debug_str:000000000000c7b5 .LASF4457
C:\Users\CYMR90~1\AppData\Local\Temp\ccZ8Xcmd.s:31347  .debug_str:000000000002a7d0 .LASF4458
C:\Users\CYMR90~1\AppData\Local\Temp\ccZ8Xcmd.s:27229  .debug_str:000000000001a38a .LASF4459
C:\Users\CYMR90~1\AppData\Local\Temp\ccZ8Xcmd.s:29439  .debug_str:0000000000022cfe .LASF4460
C:\Users\CYMR90~1\AppData\Local\Temp\ccZ8Xcmd.s:31021  .debug_str:0000000000029405 .LASF4461
C:\Users\CYMR90~1\AppData\Local\Temp\ccZ8Xcmd.s:26300  .debug_str:000000000001653a .LASF4462
C:\Users\CYMR90~1\AppData\Local\Temp\ccZ8Xcmd.s:26963  .debug_str:0000000000019159 .LASF4463
C:\Users\CYMR90~1\AppData\Local\Temp\ccZ8Xcmd.s:30651  .debug_str:0000000000027ba3 .LASF4464
C:\Users\CYMR90~1\AppData\Local\Temp\ccZ8Xcmd.s:25724  .debug_str:0000000000014162 .LASF4465
C:\Users\CYMR90~1\AppData\Local\Temp\ccZ8Xcmd.s:24676  .debug_str:000000000000fde6 .LASF4466
C:\Users\CYMR90~1\AppData\Local\Temp\ccZ8Xcmd.s:27847  .debug_str:000000000001cab6 .LASF4467
C:\Users\CYMR90~1\AppData\Local\Temp\ccZ8Xcmd.s:29149  .debug_str:0000000000021bfd .LASF4468
C:\Users\CYMR90~1\AppData\Local\Temp\ccZ8Xcmd.s:24050  .debug_str:000000000000d74a .LASF4469
C:\Users\CYMR90~1\AppData\Local\Temp\ccZ8Xcmd.s:31503  .debug_str:000000000002b14c .LASF4470
C:\Users\CYMR90~1\AppData\Local\Temp\ccZ8Xcmd.s:23602  .debug_str:000000000000b8b2 .LASF4471
C:\Users\CYMR90~1\AppData\Local\Temp\ccZ8Xcmd.s:28761  .debug_str:000000000002045a .LASF4472
C:\Users\CYMR90~1\AppData\Local\Temp\ccZ8Xcmd.s:26162  .debug_str:0000000000015c3d .LASF4473
C:\Users\CYMR90~1\AppData\Local\Temp\ccZ8Xcmd.s:29615  .debug_str:000000000002376f .LASF4474
C:\Users\CYMR90~1\AppData\Local\Temp\ccZ8Xcmd.s:24234  .debug_str:000000000000e20b .LASF4475
C:\Users\CYMR90~1\AppData\Local\Temp\ccZ8Xcmd.s:28953  .debug_str:0000000000020f73 .LASF4476
C:\Users\CYMR90~1\AppData\Local\Temp\ccZ8Xcmd.s:29293  .debug_str:0000000000022436 .LASF4477
C:\Users\CYMR90~1\AppData\Local\Temp\ccZ8Xcmd.s:26288  .debug_str:000000000001648d .LASF4478
C:\Users\CYMR90~1\AppData\Local\Temp\ccZ8Xcmd.s:22454  .debug_str:0000000000006dd3 .LASF4479
C:\Users\CYMR90~1\AppData\Local\Temp\ccZ8Xcmd.s:30047  .debug_str:00000000000254f5 .LASF4480
C:\Users\CYMR90~1\AppData\Local\Temp\ccZ8Xcmd.s:27283  .debug_str:000000000001a751 .LASF4481
C:\Users\CYMR90~1\AppData\Local\Temp\ccZ8Xcmd.s:20926  .debug_str:0000000000000d5f .LASF4482
C:\Users\CYMR90~1\AppData\Local\Temp\ccZ8Xcmd.s:22376  .debug_str:00000000000068a8 .LASF4483
C:\Users\CYMR90~1\AppData\Local\Temp\ccZ8Xcmd.s:31003  .debug_str:00000000000292f0 .LASF4484
C:\Users\CYMR90~1\AppData\Local\Temp\ccZ8Xcmd.s:21380  .debug_str:000000000000294c .LASF4485
C:\Users\CYMR90~1\AppData\Local\Temp\ccZ8Xcmd.s:24370  .debug_str:000000000000ead1 .LASF4486
C:\Users\CYMR90~1\AppData\Local\Temp\ccZ8Xcmd.s:28289  .debug_str:000000000001e777 .LASF4487
C:\Users\CYMR90~1\AppData\Local\Temp\ccZ8Xcmd.s:21604  .debug_str:00000000000037ee .LASF4488
C:\Users\CYMR90~1\AppData\Local\Temp\ccZ8Xcmd.s:25622  .debug_str:0000000000013b57 .LASF4489
C:\Users\CYMR90~1\AppData\Local\Temp\ccZ8Xcmd.s:29959  .debug_str:0000000000024e14 .LASF4490
C:\Users\CYMR90~1\AppData\Local\Temp\ccZ8Xcmd.s:30967  .debug_str:0000000000029060 .LASF4491
C:\Users\CYMR90~1\AppData\Local\Temp\ccZ8Xcmd.s:25628  .debug_str:0000000000013b9b .LASF4492
C:\Users\CYMR90~1\AppData\Local\Temp\ccZ8Xcmd.s:22158  .debug_str:0000000000005b42 .LASF4493
C:\Users\CYMR90~1\AppData\Local\Temp\ccZ8Xcmd.s:21758  .debug_str:00000000000041fd .LASF4494
C:\Users\CYMR90~1\AppData\Local\Temp\ccZ8Xcmd.s:29065  .debug_str:00000000000216e0 .LASF4495
C:\Users\CYMR90~1\AppData\Local\Temp\ccZ8Xcmd.s:28593  .debug_str:000000000001f992 .LASF4496
C:\Users\CYMR90~1\AppData\Local\Temp\ccZ8Xcmd.s:21840  .debug_str:000000000000481b .LASF4497
C:\Users\CYMR90~1\AppData\Local\Temp\ccZ8Xcmd.s:31505  .debug_str:000000000002b162 .LASF4498
C:\Users\CYMR90~1\AppData\Local\Temp\ccZ8Xcmd.s:30277  .debug_str:000000000002638a .LASF4499
C:\Users\CYMR90~1\AppData\Local\Temp\ccZ8Xcmd.s:31463  .debug_str:000000000002aead .LASF4500
C:\Users\CYMR90~1\AppData\Local\Temp\ccZ8Xcmd.s:30195  .debug_str:0000000000025eb5 .LASF4501
C:\Users\CYMR90~1\AppData\Local\Temp\ccZ8Xcmd.s:21066  .debug_str:00000000000015f2 .LASF4502
C:\Users\CYMR90~1\AppData\Local\Temp\ccZ8Xcmd.s:28177  .debug_str:000000000001e098 .LASF4503
C:\Users\CYMR90~1\AppData\Local\Temp\ccZ8Xcmd.s:30501  .debug_str:000000000002722d .LASF4504
C:\Users\CYMR90~1\AppData\Local\Temp\ccZ8Xcmd.s:23282  .debug_str:000000000000a3d4 .LASF4505
C:\Users\CYMR90~1\AppData\Local\Temp\ccZ8Xcmd.s:31813  .debug_str:000000000002c648 .LASF4506
C:\Users\CYMR90~1\AppData\Local\Temp\ccZ8Xcmd.s:31171  .debug_str:0000000000029d30 .LASF4507
C:\Users\CYMR90~1\AppData\Local\Temp\ccZ8Xcmd.s:22638  .debug_str:00000000000079ec .LASF4508
C:\Users\CYMR90~1\AppData\Local\Temp\ccZ8Xcmd.s:21742  .debug_str:0000000000004130 .LASF4509
C:\Users\CYMR90~1\AppData\Local\Temp\ccZ8Xcmd.s:30359  .debug_str:00000000000268d5 .LASF4510
C:\Users\CYMR90~1\AppData\Local\Temp\ccZ8Xcmd.s:27733  .debug_str:000000000001c2fd .LASF4511
C:\Users\CYMR90~1\AppData\Local\Temp\ccZ8Xcmd.s:30335  .debug_str:0000000000026767 .LASF4512
C:\Users\CYMR90~1\AppData\Local\Temp\ccZ8Xcmd.s:25658  .debug_str:0000000000013d54 .LASF4513
C:\Users\CYMR90~1\AppData\Local\Temp\ccZ8Xcmd.s:24574  .debug_str:000000000000f77e .LASF4514
C:\Users\CYMR90~1\AppData\Local\Temp\ccZ8Xcmd.s:28281  .debug_str:000000000001e703 .LASF4515
C:\Users\CYMR90~1\AppData\Local\Temp\ccZ8Xcmd.s:22092  .debug_str:0000000000005737 .LASF4516
C:\Users\CYMR90~1\AppData\Local\Temp\ccZ8Xcmd.s:29495  .debug_str:0000000000022fea .LASF4517
C:\Users\CYMR90~1\AppData\Local\Temp\ccZ8Xcmd.s:26899  .debug_str:0000000000018cca .LASF4518
C:\Users\CYMR90~1\AppData\Local\Temp\ccZ8Xcmd.s:21262  .debug_str:00000000000021ac .LASF4519
C:\Users\CYMR90~1\AppData\Local\Temp\ccZ8Xcmd.s:21470  .debug_str:0000000000002ee1 .LASF4520
C:\Users\CYMR90~1\AppData\Local\Temp\ccZ8Xcmd.s:30157  .debug_str:0000000000025c47 .LASF4521
C:\Users\CYMR90~1\AppData\Local\Temp\ccZ8Xcmd.s:26058  .debug_str:00000000000155b9 .LASF4522
C:\Users\CYMR90~1\AppData\Local\Temp\ccZ8Xcmd.s:31961  .debug_str:000000000002d00b .LASF4523
C:\Users\CYMR90~1\AppData\Local\Temp\ccZ8Xcmd.s:22954  .debug_str:0000000000008f29 .LASF4524
C:\Users\CYMR90~1\AppData\Local\Temp\ccZ8Xcmd.s:30755  .debug_str:0000000000028305 .LASF4525
C:\Users\CYMR90~1\AppData\Local\Temp\ccZ8Xcmd.s:31959  .debug_str:000000000002cfd2 .LASF4526
C:\Users\CYMR90~1\AppData\Local\Temp\ccZ8Xcmd.s:28113  .debug_str:000000000001dcaa .LASF4527
C:\Users\CYMR90~1\AppData\Local\Temp\ccZ8Xcmd.s:22406  .debug_str:0000000000006a9f .LASF4528
C:\Users\CYMR90~1\AppData\Local\Temp\ccZ8Xcmd.s:21880  .debug_str:0000000000004a83 .LASF4529
C:\Users\CYMR90~1\AppData\Local\Temp\ccZ8Xcmd.s:26407  .debug_str:0000000000016e5d .LASF4530
C:\Users\CYMR90~1\AppData\Local\Temp\ccZ8Xcmd.s:31603  .debug_str:000000000002b81d .LASF4531
C:\Users\CYMR90~1\AppData\Local\Temp\ccZ8Xcmd.s:25442  .debug_str:0000000000012f5a .LASF4532
C:\Users\CYMR90~1\AppData\Local\Temp\ccZ8Xcmd.s:31237  .debug_str:000000000002a0ef .LASF4533
C:\Users\CYMR90~1\AppData\Local\Temp\ccZ8Xcmd.s:30309  .debug_str:00000000000265b1 .LASF4534
C:\Users\CYMR90~1\AppData\Local\Temp\ccZ8Xcmd.s:24642  .debug_str:000000000000fb89 .LASF4535
C:\Users\CYMR90~1\AppData\Local\Temp\ccZ8Xcmd.s:31065  .debug_str:00000000000296e7 .LASF4536
C:\Users\CYMR90~1\AppData\Local\Temp\ccZ8Xcmd.s:30067  .debug_str:0000000000025650 .LASF4537
C:\Users\CYMR90~1\AppData\Local\Temp\ccZ8Xcmd.s:27107  .debug_str:0000000000019ada .LASF4538
C:\Users\CYMR90~1\AppData\Local\Temp\ccZ8Xcmd.s:22694  .debug_str:0000000000007e9f .LASF4539
C:\Users\CYMR90~1\AppData\Local\Temp\ccZ8Xcmd.s:27815  .debug_str:000000000001c89e .LASF4540
C:\Users\CYMR90~1\AppData\Local\Temp\ccZ8Xcmd.s:27417  .debug_str:000000000001afd6 .LASF4541
C:\Users\CYMR90~1\AppData\Local\Temp\ccZ8Xcmd.s:29333  .debug_str:000000000002268e .LASF4542
C:\Users\CYMR90~1\AppData\Local\Temp\ccZ8Xcmd.s:30263  .debug_str:00000000000262a8 .LASF4543
C:\Users\CYMR90~1\AppData\Local\Temp\ccZ8Xcmd.s:21174  .debug_str:0000000000001cee .LASF4544
C:\Users\CYMR90~1\AppData\Local\Temp\ccZ8Xcmd.s:26238  .debug_str:000000000001612e .LASF4545
C:\Users\CYMR90~1\AppData\Local\Temp\ccZ8Xcmd.s:21482  .debug_str:0000000000002ff9 .LASF4546
C:\Users\CYMR90~1\AppData\Local\Temp\ccZ8Xcmd.s:23668  .debug_str:000000000000bdb0 .LASF4547
C:\Users\CYMR90~1\AppData\Local\Temp\ccZ8Xcmd.s:28293  .debug_str:000000000001e7a9 .LASF4548
C:\Users\CYMR90~1\AppData\Local\Temp\ccZ8Xcmd.s:20982  .debug_str:000000000000112f .LASF4549
C:\Users\CYMR90~1\AppData\Local\Temp\ccZ8Xcmd.s:29989  .debug_str:000000000002503a .LASF4550
C:\Users\CYMR90~1\AppData\Local\Temp\ccZ8Xcmd.s:22806  .debug_str:00000000000085a1 .LASF4551
C:\Users\CYMR90~1\AppData\Local\Temp\ccZ8Xcmd.s:27921  .debug_str:000000000001d086 .LASF4552
C:\Users\CYMR90~1\AppData\Local\Temp\ccZ8Xcmd.s:27939  .debug_str:000000000001d184 .LASF4553
C:\Users\CYMR90~1\AppData\Local\Temp\ccZ8Xcmd.s:28899  .debug_str:0000000000020c95 .LASF4554
C:\Users\CYMR90~1\AppData\Local\Temp\ccZ8Xcmd.s:27357  .debug_str:000000000001abd9 .LASF4555
C:\Users\CYMR90~1\AppData\Local\Temp\ccZ8Xcmd.s:22128  .debug_str:0000000000005982 .LASF4556
C:\Users\CYMR90~1\AppData\Local\Temp\ccZ8Xcmd.s:30717  .debug_str:0000000000028013 .LASF4557
C:\Users\CYMR90~1\AppData\Local\Temp\ccZ8Xcmd.s:29621  .debug_str:00000000000237eb .LASF4558
C:\Users\CYMR90~1\AppData\Local\Temp\ccZ8Xcmd.s:25954  .debug_str:0000000000014fbd .LASF4559
C:\Users\CYMR90~1\AppData\Local\Temp\ccZ8Xcmd.s:31919  .debug_str:000000000002cd7b .LASF4560
C:\Users\CYMR90~1\AppData\Local\Temp\ccZ8Xcmd.s:21446  .debug_str:0000000000002d72 .LASF4561
C:\Users\CYMR90~1\AppData\Local\Temp\ccZ8Xcmd.s:20730  .debug_str:00000000000001ea .LASF4562
C:\Users\CYMR90~1\AppData\Local\Temp\ccZ8Xcmd.s:27059  .debug_str:00000000000197be .LASF4563
C:\Users\CYMR90~1\AppData\Local\Temp\ccZ8Xcmd.s:24846  .debug_str:000000000001080b .LASF4564
C:\Users\CYMR90~1\AppData\Local\Temp\ccZ8Xcmd.s:21756  .debug_str:00000000000041e5 .LASF4565
C:\Users\CYMR90~1\AppData\Local\Temp\ccZ8Xcmd.s:23764  .debug_str:000000000000c369 .LASF4566
C:\Users\CYMR90~1\AppData\Local\Temp\ccZ8Xcmd.s:30321  .debug_str:0000000000026696 .LASF4567
C:\Users\CYMR90~1\AppData\Local\Temp\ccZ8Xcmd.s:20756  .debug_str:000000000000033a .LASF4568
C:\Users\CYMR90~1\AppData\Local\Temp\ccZ8Xcmd.s:21974  .debug_str:0000000000005019 .LASF4569
C:\Users\CYMR90~1\AppData\Local\Temp\ccZ8Xcmd.s:30983  .debug_str:000000000002914e .LASF4570
C:\Users\CYMR90~1\AppData\Local\Temp\ccZ8Xcmd.s:21786  .debug_str:00000000000043e7 .LASF4571
C:\Users\CYMR90~1\AppData\Local\Temp\ccZ8Xcmd.s:23422  .debug_str:000000000000ac78 .LASF4572
C:\Users\CYMR90~1\AppData\Local\Temp\ccZ8Xcmd.s:20774  .debug_str:0000000000000436 .LASF4573
C:\Users\CYMR90~1\AppData\Local\Temp\ccZ8Xcmd.s:28267  .debug_str:000000000001e61b .LASF4574
C:\Users\CYMR90~1\AppData\Local\Temp\ccZ8Xcmd.s:26417  .debug_str:0000000000016f14 .LASF4575
C:\Users\CYMR90~1\AppData\Local\Temp\ccZ8Xcmd.s:21312  .debug_str:00000000000024c6 .LASF4576
C:\Users\CYMR90~1\AppData\Local\Temp\ccZ8Xcmd.s:30423  .debug_str:0000000000026cc1 .LASF4577
C:\Users\CYMR90~1\AppData\Local\Temp\ccZ8Xcmd.s:31769  .debug_str:000000000002c377 .LASF4578
C:\Users\CYMR90~1\AppData\Local\Temp\ccZ8Xcmd.s:28727  .debug_str:0000000000020181 .LASF4579
C:\Users\CYMR90~1\AppData\Local\Temp\ccZ8Xcmd.s:23760  .debug_str:000000000000c31f .LASF4580
C:\Users\CYMR90~1\AppData\Local\Temp\ccZ8Xcmd.s:29343  .debug_str:000000000002271f .LASF4581
C:\Users\CYMR90~1\AppData\Local\Temp\ccZ8Xcmd.s:23664  .debug_str:000000000000bd4c .LASF4582
C:\Users\CYMR90~1\AppData\Local\Temp\ccZ8Xcmd.s:29331  .debug_str:0000000000022670 .LASF4583
C:\Users\CYMR90~1\AppData\Local\Temp\ccZ8Xcmd.s:30873  .debug_str:0000000000028a8b .LASF4584
C:\Users\CYMR90~1\AppData\Local\Temp\ccZ8Xcmd.s:22172  .debug_str:0000000000005c1e .LASF4585
C:\Users\CYMR90~1\AppData\Local\Temp\ccZ8Xcmd.s:24962  .debug_str:0000000000010f40 .LASF4586
C:\Users\CYMR90~1\AppData\Local\Temp\ccZ8Xcmd.s:24136  .debug_str:000000000000dc2b .LASF4587
C:\Users\CYMR90~1\AppData\Local\Temp\ccZ8Xcmd.s:21834  .debug_str:00000000000047ba .LASF4588
C:\Users\CYMR90~1\AppData\Local\Temp\ccZ8Xcmd.s:23098  .debug_str:000000000000983b .LASF4589
C:\Users\CYMR90~1\AppData\Local\Temp\ccZ8Xcmd.s:25618  .debug_str:0000000000013af7 .LASF4590
C:\Users\CYMR90~1\AppData\Local\Temp\ccZ8Xcmd.s:21658  .debug_str:0000000000003b4f .LASF4591
C:\Users\CYMR90~1\AppData\Local\Temp\ccZ8Xcmd.s:22400  .debug_str:0000000000006a1c .LASF4592
C:\Users\CYMR90~1\AppData\Local\Temp\ccZ8Xcmd.s:20704  .debug_str:000000000000002e .LASF4593
C:\Users\CYMR90~1\AppData\Local\Temp\ccZ8Xcmd.s:24946  .debug_str:0000000000010e51 .LASF4594
C:\Users\CYMR90~1\AppData\Local\Temp\ccZ8Xcmd.s:27315  .debug_str:000000000001a920 .LASF4595
C:\Users\CYMR90~1\AppData\Local\Temp\ccZ8Xcmd.s:26364  .debug_str:0000000000016a1f .LASF4596
C:\Users\CYMR90~1\AppData\Local\Temp\ccZ8Xcmd.s:31707  .debug_str:000000000002bf42 .LASF4597
C:\Users\CYMR90~1\AppData\Local\Temp\ccZ8Xcmd.s:29853  .debug_str:000000000002478b .LASF4598
C:\Users\CYMR90~1\AppData\Local\Temp\ccZ8Xcmd.s:24240  .debug_str:000000000000e254 .LASF4599
C:\Users\CYMR90~1\AppData\Local\Temp\ccZ8Xcmd.s:28397  .debug_str:000000000001ed8c .LASF4600
C:\Users\CYMR90~1\AppData\Local\Temp\ccZ8Xcmd.s:25884  .debug_str:0000000000014b12 .LASF4601
C:\Users\CYMR90~1\AppData\Local\Temp\ccZ8Xcmd.s:31055  .debug_str:000000000002962c .LASF4602
C:\Users\CYMR90~1\AppData\Local\Temp\ccZ8Xcmd.s:29639  .debug_str:00000000000238de .LASF4603
C:\Users\CYMR90~1\AppData\Local\Temp\ccZ8Xcmd.s:25472  .debug_str:000000000001313e .LASF4604
C:\Users\CYMR90~1\AppData\Local\Temp\ccZ8Xcmd.s:21306  .debug_str:0000000000002430 .LASF4605
C:\Users\CYMR90~1\AppData\Local\Temp\ccZ8Xcmd.s:28377  .debug_str:000000000001ec42 .LASF4606
C:\Users\CYMR90~1\AppData\Local\Temp\ccZ8Xcmd.s:23274  .debug_str:000000000000a33c .LASF4607
C:\Users\CYMR90~1\AppData\Local\Temp\ccZ8Xcmd.s:20826  .debug_str:000000000000072f .LASF4608
C:\Users\CYMR90~1\AppData\Local\Temp\ccZ8Xcmd.s:27331  .debug_str:000000000001aa46 .LASF4609
C:\Users\CYMR90~1\AppData\Local\Temp\ccZ8Xcmd.s:30635  .debug_str:0000000000027a4d .LASF4610
C:\Users\CYMR90~1\AppData\Local\Temp\ccZ8Xcmd.s:26028  .debug_str:00000000000153f9 .LASF4611
C:\Users\CYMR90~1\AppData\Local\Temp\ccZ8Xcmd.s:26983  .debug_str:0000000000019266 .LASF4612
C:\Users\CYMR90~1\AppData\Local\Temp\ccZ8Xcmd.s:23656  .debug_str:000000000000bcc4 .LASF4613
C:\Users\CYMR90~1\AppData\Local\Temp\ccZ8Xcmd.s:27037  .debug_str:00000000000195f3 .LASF4614
C:\Users\CYMR90~1\AppData\Local\Temp\ccZ8Xcmd.s:28955  .debug_str:0000000000020f8b .LASF4615
C:\Users\CYMR90~1\AppData\Local\Temp\ccZ8Xcmd.s:27061  .debug_str:00000000000197f9 .LASF4616
C:\Users\CYMR90~1\AppData\Local\Temp\ccZ8Xcmd.s:21736  .debug_str:00000000000040df .LASF4617
C:\Users\CYMR90~1\AppData\Local\Temp\ccZ8Xcmd.s:23322  .debug_str:000000000000a5e1 .LASF4618
C:\Users\CYMR90~1\AppData\Local\Temp\ccZ8Xcmd.s:24006  .debug_str:000000000000d4ae .LASF4619
C:\Users\CYMR90~1\AppData\Local\Temp\ccZ8Xcmd.s:24570  .debug_str:000000000000f732 .LASF4620
C:\Users\CYMR90~1\AppData\Local\Temp\ccZ8Xcmd.s:28391  .debug_str:000000000001ed23 .LASF4621
C:\Users\CYMR90~1\AppData\Local\Temp\ccZ8Xcmd.s:24134  .debug_str:000000000000dbef .LASF4622
C:\Users\CYMR90~1\AppData\Local\Temp\ccZ8Xcmd.s:27595  .debug_str:000000000001ba94 .LASF4623
C:\Users\CYMR90~1\AppData\Local\Temp\ccZ8Xcmd.s:31285  .debug_str:000000000002a3c4 .LASF4624
C:\Users\CYMR90~1\AppData\Local\Temp\ccZ8Xcmd.s:24866  .debug_str:0000000000010966 .LASF4625
C:\Users\CYMR90~1\AppData\Local\Temp\ccZ8Xcmd.s:25584  .debug_str:00000000000138d0 .LASF4626
C:\Users\CYMR90~1\AppData\Local\Temp\ccZ8Xcmd.s:29237  .debug_str:000000000002211c .LASF4627
C:\Users\CYMR90~1\AppData\Local\Temp\ccZ8Xcmd.s:31389  .debug_str:000000000002aa26 .LASF4628
C:\Users\CYMR90~1\AppData\Local\Temp\ccZ8Xcmd.s:24644  .debug_str:000000000000fbb5 .LASF4629
C:\Users\CYMR90~1\AppData\Local\Temp\ccZ8Xcmd.s:29297  .debug_str:0000000000022474 .LASF4630
C:\Users\CYMR90~1\AppData\Local\Temp\ccZ8Xcmd.s:31623  .debug_str:000000000002b944 .LASF4631
C:\Users\CYMR90~1\AppData\Local\Temp\ccZ8Xcmd.s:29805  .debug_str:00000000000243d9 .LASF4632
C:\Users\CYMR90~1\AppData\Local\Temp\ccZ8Xcmd.s:26304  .debug_str:0000000000016577 .LASF4633
C:\Users\CYMR90~1\AppData\Local\Temp\ccZ8Xcmd.s:27781  .debug_str:000000000001c671 .LASF4634
C:\Users\CYMR90~1\AppData\Local\Temp\ccZ8Xcmd.s:27087  .debug_str:0000000000019999 .LASF4635
C:\Users\CYMR90~1\AppData\Local\Temp\ccZ8Xcmd.s:24786  .debug_str:0000000000010472 .LASF4636
C:\Users\CYMR90~1\AppData\Local\Temp\ccZ8Xcmd.s:25218  .debug_str:00000000000120b3 .LASF4637
C:\Users\CYMR90~1\AppData\Local\Temp\ccZ8Xcmd.s:21538  .debug_str:00000000000033ab .LASF4638
C:\Users\CYMR90~1\AppData\Local\Temp\ccZ8Xcmd.s:22392  .debug_str:00000000000069b0 .LASF4639
C:\Users\CYMR90~1\AppData\Local\Temp\ccZ8Xcmd.s:25272  .debug_str:000000000001242d .LASF4640
C:\Users\CYMR90~1\AppData\Local\Temp\ccZ8Xcmd.s:31427  .debug_str:000000000002ac74 .LASF4641
C:\Users\CYMR90~1\AppData\Local\Temp\ccZ8Xcmd.s:24258  .debug_str:000000000000e38c .LASF4642
C:\Users\CYMR90~1\AppData\Local\Temp\ccZ8Xcmd.s:27193  .debug_str:0000000000019fbd .LASF4643
C:\Users\CYMR90~1\AppData\Local\Temp\ccZ8Xcmd.s:20914  .debug_str:0000000000000cac .LASF4644
C:\Users\CYMR90~1\AppData\Local\Temp\ccZ8Xcmd.s:30639  .debug_str:0000000000027a9a .LASF4645
C:\Users\CYMR90~1\AppData\Local\Temp\ccZ8Xcmd.s:31877  .debug_str:000000000002ca8d .LASF4646
C:\Users\CYMR90~1\AppData\Local\Temp\ccZ8Xcmd.s:24036  .debug_str:000000000000d66d .LASF4647
C:\Users\CYMR90~1\AppData\Local\Temp\ccZ8Xcmd.s:26713  .debug_str:00000000000180c5 .LASF4648
C:\Users\CYMR90~1\AppData\Local\Temp\ccZ8Xcmd.s:21058  .debug_str:0000000000001571 .LASF4649
C:\Users\CYMR90~1\AppData\Local\Temp\ccZ8Xcmd.s:21770  .debug_str:00000000000042dd .LASF4650
C:\Users\CYMR90~1\AppData\Local\Temp\ccZ8Xcmd.s:26176  .debug_str:0000000000015d31 .LASF4651
C:\Users\CYMR90~1\AppData\Local\Temp\ccZ8Xcmd.s:31353  .debug_str:000000000002a828 .LASF4652
C:\Users\CYMR90~1\AppData\Local\Temp\ccZ8Xcmd.s:30293  .debug_str:000000000002649f .LASF4653
C:\Users\CYMR90~1\AppData\Local\Temp\ccZ8Xcmd.s:31355  .debug_str:000000000002a846 .LASF4654
C:\Users\CYMR90~1\AppData\Local\Temp\ccZ8Xcmd.s:27723  .debug_str:000000000001c282 .LASF4655
C:\Users\CYMR90~1\AppData\Local\Temp\ccZ8Xcmd.s:21010  .debug_str:0000000000001298 .LASF4656
C:\Users\CYMR90~1\AppData\Local\Temp\ccZ8Xcmd.s:30065  .debug_str:0000000000025619 .LASF4657
C:\Users\CYMR90~1\AppData\Local\Temp\ccZ8Xcmd.s:27627  .debug_str:000000000001bca1 .LASF4658
C:\Users\CYMR90~1\AppData\Local\Temp\ccZ8Xcmd.s:22166  .debug_str:0000000000005bb6 .LASF4659
C:\Users\CYMR90~1\AppData\Local\Temp\ccZ8Xcmd.s:24264  .debug_str:000000000000e3da .LASF4660
C:\Users\CYMR90~1\AppData\Local\Temp\ccZ8Xcmd.s:28737  .debug_str:0000000000020258 .LASF4661
C:\Users\CYMR90~1\AppData\Local\Temp\ccZ8Xcmd.s:25404  .debug_str:0000000000012cc9 .LASF4662
C:\Users\CYMR90~1\AppData\Local\Temp\ccZ8Xcmd.s:30435  .debug_str:0000000000026d93 .LASF4663
C:\Users\CYMR90~1\AppData\Local\Temp\ccZ8Xcmd.s:25940  .debug_str:0000000000014ee8 .LASF4664
C:\Users\CYMR90~1\AppData\Local\Temp\ccZ8Xcmd.s:25690  .debug_str:0000000000013f2f .LASF4665
C:\Users\CYMR90~1\AppData\Local\Temp\ccZ8Xcmd.s:28821  .debug_str:00000000000207e1 .LASF4666
C:\Users\CYMR90~1\AppData\Local\Temp\ccZ8Xcmd.s:27613  .debug_str:000000000001bbb1 .LASF4667
C:\Users\CYMR90~1\AppData\Local\Temp\ccZ8Xcmd.s:24360  .debug_str:000000000000ea2b .LASF4668
C:\Users\CYMR90~1\AppData\Local\Temp\ccZ8Xcmd.s:22076  .debug_str:0000000000005628 .LASF4669
C:\Users\CYMR90~1\AppData\Local\Temp\ccZ8Xcmd.s:31193  .debug_str:0000000000029e53 .LASF4670
C:\Users\CYMR90~1\AppData\Local\Temp\ccZ8Xcmd.s:28911  .debug_str:0000000000020d37 .LASF4671
C:\Users\CYMR90~1\AppData\Local\Temp\ccZ8Xcmd.s:31703  .debug_str:000000000002bf0d .LASF4672
C:\Users\CYMR90~1\AppData\Local\Temp\ccZ8Xcmd.s:24566  .debug_str:000000000000f6f5 .LASF4673
C:\Users\CYMR90~1\AppData\Local\Temp\ccZ8Xcmd.s:22990  .debug_str:000000000000914d .LASF4674
C:\Users\CYMR90~1\AppData\Local\Temp\ccZ8Xcmd.s:31387  .debug_str:000000000002aa04 .LASF4675
C:\Users\CYMR90~1\AppData\Local\Temp\ccZ8Xcmd.s:29001  .debug_str:00000000000212f9 .LASF4676
C:\Users\CYMR90~1\AppData\Local\Temp\ccZ8Xcmd.s:30847  .debug_str:000000000002891e .LASF4677
C:\Users\CYMR90~1\AppData\Local\Temp\ccZ8Xcmd.s:22380  .debug_str:00000000000068fc .LASF4678
C:\Users\CYMR90~1\AppData\Local\Temp\ccZ8Xcmd.s:29151  .debug_str:0000000000021c16 .LASF4679
C:\Users\CYMR90~1\AppData\Local\Temp\ccZ8Xcmd.s:31017  .debug_str:00000000000293c0 .LASF4680
C:\Users\CYMR90~1\AppData\Local\Temp\ccZ8Xcmd.s:30741  .debug_str:0000000000028225 .LASF4681
C:\Users\CYMR90~1\AppData\Local\Temp\ccZ8Xcmd.s:30031  .debug_str:00000000000253ab .LASF4682
C:\Users\CYMR90~1\AppData\Local\Temp\ccZ8Xcmd.s:26000  .debug_str:0000000000015277 .LASF4683
C:\Users\CYMR90~1\AppData\Local\Temp\ccZ8Xcmd.s:23158  .debug_str:0000000000009c04 .LASF4684
C:\Users\CYMR90~1\AppData\Local\Temp\ccZ8Xcmd.s:24568  .debug_str:000000000000f717 .LASF4685
C:\Users\CYMR90~1\AppData\Local\Temp\ccZ8Xcmd.s:21266  .debug_str:00000000000021df .LASF4686
C:\Users\CYMR90~1\AppData\Local\Temp\ccZ8Xcmd.s:23296  .debug_str:000000000000a46c .LASF4687
C:\Users\CYMR90~1\AppData\Local\Temp\ccZ8Xcmd.s:28235  .debug_str:000000000001e3f5 .LASF4688
C:\Users\CYMR90~1\AppData\Local\Temp\ccZ8Xcmd.s:26487  .debug_str:00000000000172fe .LASF4689
C:\Users\CYMR90~1\AppData\Local\Temp\ccZ8Xcmd.s:23956  .debug_str:000000000000d113 .LASF4690
C:\Users\CYMR90~1\AppData\Local\Temp\ccZ8Xcmd.s:31757  .debug_str:000000000002c263 .LASF4691
C:\Users\CYMR90~1\AppData\Local\Temp\ccZ8Xcmd.s:26322  .debug_str:000000000001667f .LASF4692
C:\Users\CYMR90~1\AppData\Local\Temp\ccZ8Xcmd.s:24760  .debug_str:00000000000102dd .LASF4693
C:\Users\CYMR90~1\AppData\Local\Temp\ccZ8Xcmd.s:21474  .debug_str:0000000000002f5e .LASF4694
C:\Users\CYMR90~1\AppData\Local\Temp\ccZ8Xcmd.s:29779  .debug_str:0000000000024266 .LASF4695
C:\Users\CYMR90~1\AppData\Local\Temp\ccZ8Xcmd.s:26332  .debug_str:0000000000016785 .LASF4696
C:\Users\CYMR90~1\AppData\Local\Temp\ccZ8Xcmd.s:22874  .debug_str:0000000000008a0b .LASF4697
C:\Users\CYMR90~1\AppData\Local\Temp\ccZ8Xcmd.s:30519  .debug_str:0000000000027354 .LASF4698
C:\Users\CYMR90~1\AppData\Local\Temp\ccZ8Xcmd.s:29445  .debug_str:0000000000022d65 .LASF4699
C:\Users\CYMR90~1\AppData\Local\Temp\ccZ8Xcmd.s:21238  .debug_str:0000000000002037 .LASF4700
C:\Users\CYMR90~1\AppData\Local\Temp\ccZ8Xcmd.s:22340  .debug_str:0000000000006694 .LASF4701
C:\Users\CYMR90~1\AppData\Local\Temp\ccZ8Xcmd.s:30661  .debug_str:0000000000027c27 .LASF4702
C:\Users\CYMR90~1\AppData\Local\Temp\ccZ8Xcmd.s:28167  .debug_str:000000000001e011 .LASF4703
C:\Users\CYMR90~1\AppData\Local\Temp\ccZ8Xcmd.s:22700  .debug_str:0000000000007ef6 .LASF4704
C:\Users\CYMR90~1\AppData\Local\Temp\ccZ8Xcmd.s:30577  .debug_str:0000000000027671 .LASF4705
C:\Users\CYMR90~1\AppData\Local\Temp\ccZ8Xcmd.s:24424  .debug_str:000000000000eda7 .LASF4706
C:\Users\CYMR90~1\AppData\Local\Temp\ccZ8Xcmd.s:27853  .debug_str:000000000001cb19 .LASF4707
C:\Users\CYMR90~1\AppData\Local\Temp\ccZ8Xcmd.s:27987  .debug_str:000000000001d465 .LASF4708
C:\Users\CYMR90~1\AppData\Local\Temp\ccZ8Xcmd.s:21222  .debug_str:0000000000001f75 .LASF4709
C:\Users\CYMR90~1\AppData\Local\Temp\ccZ8Xcmd.s:26795  .debug_str:000000000001856f .LASF4710
C:\Users\CYMR90~1\AppData\Local\Temp\ccZ8Xcmd.s:21366  .debug_str:000000000000287b .LASF4711
C:\Users\CYMR90~1\AppData\Local\Temp\ccZ8Xcmd.s:24402  .debug_str:000000000000ec60 .LASF4712
C:\Users\CYMR90~1\AppData\Local\Temp\ccZ8Xcmd.s:27773  .debug_str:000000000001c55b .LASF4713
C:\Users\CYMR90~1\AppData\Local\Temp\ccZ8Xcmd.s:23484  .debug_str:000000000000b0d6 .LASF4714
C:\Users\CYMR90~1\AppData\Local\Temp\ccZ8Xcmd.s:26637  .debug_str:0000000000017c56 .LASF4715
C:\Users\CYMR90~1\AppData\Local\Temp\ccZ8Xcmd.s:24816  .debug_str:000000000001063d .LASF4716
C:\Users\CYMR90~1\AppData\Local\Temp\ccZ8Xcmd.s:21310  .debug_str:00000000000024a4 .LASF4717
C:\Users\CYMR90~1\AppData\Local\Temp\ccZ8Xcmd.s:29429  .debug_str:0000000000022c78 .LASF4718
C:\Users\CYMR90~1\AppData\Local\Temp\ccZ8Xcmd.s:21046  .debug_str:0000000000001494 .LASF4719
C:\Users\CYMR90~1\AppData\Local\Temp\ccZ8Xcmd.s:20882  .debug_str:0000000000000aed .LASF4720
C:\Users\CYMR90~1\AppData\Local\Temp\ccZ8Xcmd.s:21930  .debug_str:0000000000004d8a .LASF4721
C:\Users\CYMR90~1\AppData\Local\Temp\ccZ8Xcmd.s:22562  .debug_str:00000000000074d8 .LASF4722
C:\Users\CYMR90~1\AppData\Local\Temp\ccZ8Xcmd.s:30245  .debug_str:00000000000261a2 .LASF4723
C:\Users\CYMR90~1\AppData\Local\Temp\ccZ8Xcmd.s:21226  .debug_str:0000000000001faa .LASF4724
C:\Users\CYMR90~1\AppData\Local\Temp\ccZ8Xcmd.s:28971  .debug_str:0000000000021092 .LASF4725
C:\Users\CYMR90~1\AppData\Local\Temp\ccZ8Xcmd.s:23562  .debug_str:000000000000b62c .LASF4726
C:\Users\CYMR90~1\AppData\Local\Temp\ccZ8Xcmd.s:29679  .debug_str:0000000000023b3a .LASF4727
C:\Users\CYMR90~1\AppData\Local\Temp\ccZ8Xcmd.s:22914  .debug_str:0000000000008cfb .LASF4728
C:\Users\CYMR90~1\AppData\Local\Temp\ccZ8Xcmd.s:28591  .debug_str:000000000001f97c .LASF4729
C:\Users\CYMR90~1\AppData\Local\Temp\ccZ8Xcmd.s:29215  .debug_str:0000000000021fc1 .LASF4730
C:\Users\CYMR90~1\AppData\Local\Temp\ccZ8Xcmd.s:26781  .debug_str:00000000000184ca .LASF4731
C:\Users\CYMR90~1\AppData\Local\Temp\ccZ8Xcmd.s:29301  .debug_str:00000000000224cd .LASF4732
C:\Users\CYMR90~1\AppData\Local\Temp\ccZ8Xcmd.s:26254  .debug_str:0000000000016240 .LASF4733
C:\Users\CYMR90~1\AppData\Local\Temp\ccZ8Xcmd.s:26158  .debug_str:0000000000015c04 .LASF4734
C:\Users\CYMR90~1\AppData\Local\Temp\ccZ8Xcmd.s:25742  .debug_str:000000000001426b .LASF4735
C:\Users\CYMR90~1\AppData\Local\Temp\ccZ8Xcmd.s:28309  .debug_str:000000000001e884 .LASF4736
C:\Users\CYMR90~1\AppData\Local\Temp\ccZ8Xcmd.s:24984  .debug_str:00000000000110a2 .LASF4737
C:\Users\CYMR90~1\AppData\Local\Temp\ccZ8Xcmd.s:28029  .debug_str:000000000001d73e .LASF4738
C:\Users\CYMR90~1\AppData\Local\Temp\ccZ8Xcmd.s:31935  .debug_str:000000000002ce9f .LASF4739
C:\Users\CYMR90~1\AppData\Local\Temp\ccZ8Xcmd.s:24250  .debug_str:000000000000e30a .LASF4740
C:\Users\CYMR90~1\AppData\Local\Temp\ccZ8Xcmd.s:26741  .debug_str:000000000001826e .LASF4741
C:\Users\CYMR90~1\AppData\Local\Temp\ccZ8Xcmd.s:21092  .debug_str:0000000000001844 .LASF4742
C:\Users\CYMR90~1\AppData\Local\Temp\ccZ8Xcmd.s:21722  .debug_str:0000000000003f80 .LASF4743
C:\Users\CYMR90~1\AppData\Local\Temp\ccZ8Xcmd.s:21726  .debug_str:0000000000004050 .LASF4744
C:\Users\CYMR90~1\AppData\Local\Temp\ccZ8Xcmd.s:24896  .debug_str:0000000000010bc4 .LASF4745
C:\Users\CYMR90~1\AppData\Local\Temp\ccZ8Xcmd.s:29701  .debug_str:0000000000023c7f .LASF4746
C:\Users\CYMR90~1\AppData\Local\Temp\ccZ8Xcmd.s:23590  .debug_str:000000000000b829 .LASF4747
C:\Users\CYMR90~1\AppData\Local\Temp\ccZ8Xcmd.s:23304  .debug_str:000000000000a4e8 .LASF4748
C:\Users\CYMR90~1\AppData\Local\Temp\ccZ8Xcmd.s:28849  .debug_str:00000000000209a3 .LASF4749
C:\Users\CYMR90~1\AppData\Local\Temp\ccZ8Xcmd.s:22642  .debug_str:0000000000007a1c .LASF4750
C:\Users\CYMR90~1\AppData\Local\Temp\ccZ8Xcmd.s:30125  .debug_str:0000000000025a73 .LASF4751
C:\Users\CYMR90~1\AppData\Local\Temp\ccZ8Xcmd.s:29763  .debug_str:0000000000024137 .LASF4752
C:\Users\CYMR90~1\AppData\Local\Temp\ccZ8Xcmd.s:24724  .debug_str:00000000000100cb .LASF4753
C:\Users\CYMR90~1\AppData\Local\Temp\ccZ8Xcmd.s:26034  .debug_str:0000000000015451 .LASF4754
C:\Users\CYMR90~1\AppData\Local\Temp\ccZ8Xcmd.s:31553  .debug_str:000000000002b4b0 .LASF4755
C:\Users\CYMR90~1\AppData\Local\Temp\ccZ8Xcmd.s:29811  .debug_str:0000000000024451 .LASF4756
C:\Users\CYMR90~1\AppData\Local\Temp\ccZ8Xcmd.s:27027  .debug_str:0000000000019525 .LASF4757
C:\Users\CYMR90~1\AppData\Local\Temp\ccZ8Xcmd.s:28053  .debug_str:000000000001d88e .LASF4758
C:\Users\CYMR90~1\AppData\Local\Temp\ccZ8Xcmd.s:26242  .debug_str:000000000001617a .LASF4759
C:\Users\CYMR90~1\AppData\Local\Temp\ccZ8Xcmd.s:22926  .debug_str:0000000000008db5 .LASF4760
C:\Users\CYMR90~1\AppData\Local\Temp\ccZ8Xcmd.s:27031  .debug_str:000000000001956d .LASF4761
C:\Users\CYMR90~1\AppData\Local\Temp\ccZ8Xcmd.s:26831  .debug_str:00000000000187e6 .LASF4762
C:\Users\CYMR90~1\AppData\Local\Temp\ccZ8Xcmd.s:26495  .debug_str:000000000001735a .LASF4763
C:\Users\CYMR90~1\AppData\Local\Temp\ccZ8Xcmd.s:26268  .debug_str:00000000000162eb .LASF4764
C:\Users\CYMR90~1\AppData\Local\Temp\ccZ8Xcmd.s:21674  .debug_str:0000000000003c75 .LASF4765
C:\Users\CYMR90~1\AppData\Local\Temp\ccZ8Xcmd.s:30541  .debug_str:0000000000027468 .LASF4766
C:\Users\CYMR90~1\AppData\Local\Temp\ccZ8Xcmd.s:24222  .debug_str:000000000000e15b .LASF4767
C:\Users\CYMR90~1\AppData\Local\Temp\ccZ8Xcmd.s:21714  .debug_str:0000000000003efd .LASF4768
C:\Users\CYMR90~1\AppData\Local\Temp\ccZ8Xcmd.s:25874  .debug_str:0000000000014a64 .LASF4769
C:\Users\CYMR90~1\AppData\Local\Temp\ccZ8Xcmd.s:24216  .debug_str:000000000000e0f6 .LASF4770
C:\Users\CYMR90~1\AppData\Local\Temp\ccZ8Xcmd.s:21250  .debug_str:0000000000002101 .LASF4771
C:\Users\CYMR90~1\AppData\Local\Temp\ccZ8Xcmd.s:31395  .debug_str:000000000002aa8a .LASF4772
C:\Users\CYMR90~1\AppData\Local\Temp\ccZ8Xcmd.s:22824  .debug_str:00000000000086d7 .LASF4773
C:\Users\CYMR90~1\AppData\Local\Temp\ccZ8Xcmd.s:21432  .debug_str:0000000000002caf .LASF4774
C:\Users\CYMR90~1\AppData\Local\Temp\ccZ8Xcmd.s:25402  .debug_str:0000000000012cb3 .LASF4775
C:\Users\CYMR90~1\AppData\Local\Temp\ccZ8Xcmd.s:31125  .debug_str:0000000000029a4b .LASF4776
C:\Users\CYMR90~1\AppData\Local\Temp\ccZ8Xcmd.s:27153  .debug_str:0000000000019d64 .LASF4777
C:\Users\CYMR90~1\AppData\Local\Temp\ccZ8Xcmd.s:27195  .debug_str:0000000000019fd4 .LASF4778
C:\Users\CYMR90~1\AppData\Local\Temp\ccZ8Xcmd.s:30071  .debug_str:00000000000256aa .LASF4779
C:\Users\CYMR90~1\AppData\Local\Temp\ccZ8Xcmd.s:25974  .debug_str:0000000000015116 .LASF4780
C:\Users\CYMR90~1\AppData\Local\Temp\ccZ8Xcmd.s:31909  .debug_str:000000000002cc57 .LASF4781
C:\Users\CYMR90~1\AppData\Local\Temp\ccZ8Xcmd.s:30793  .debug_str:00000000000285b4 .LASF4782
C:\Users\CYMR90~1\AppData\Local\Temp\ccZ8Xcmd.s:29529  .debug_str:00000000000231e6 .LASF4783
C:\Users\CYMR90~1\AppData\Local\Temp\ccZ8Xcmd.s:28341  .debug_str:000000000001ea2b .LASF4784
C:\Users\CYMR90~1\AppData\Local\Temp\ccZ8Xcmd.s:24790  .debug_str:00000000000104c5 .LASF4785
C:\Users\CYMR90~1\AppData\Local\Temp\ccZ8Xcmd.s:31799  .debug_str:000000000002c59b .LASF4786
C:\Users\CYMR90~1\AppData\Local\Temp\ccZ8Xcmd.s:29941  .debug_str:0000000000024d01 .LASF4787
C:\Users\CYMR90~1\AppData\Local\Temp\ccZ8Xcmd.s:29849  .debug_str:00000000000246ae .LASF4788
C:\Users\CYMR90~1\AppData\Local\Temp\ccZ8Xcmd.s:23548  .debug_str:000000000000b539 .LASF4789
C:\Users\CYMR90~1\AppData\Local\Temp\ccZ8Xcmd.s:26292  .debug_str:00000000000164bc .LASF4790
C:\Users\CYMR90~1\AppData\Local\Temp\ccZ8Xcmd.s:30603  .debug_str:00000000000277fb .LASF4791
C:\Users\CYMR90~1\AppData\Local\Temp\ccZ8Xcmd.s:27835  .debug_str:000000000001c9d4 .LASF4792
C:\Users\CYMR90~1\AppData\Local\Temp\ccZ8Xcmd.s:30399  .debug_str:0000000000026b0d .LASF4793
C:\Users\CYMR90~1\AppData\Local\Temp\ccZ8Xcmd.s:26603  .debug_str:0000000000017a6b .LASF4794
C:\Users\CYMR90~1\AppData\Local\Temp\ccZ8Xcmd.s:21420  .debug_str:0000000000002bf2 .LASF4795
C:\Users\CYMR90~1\AppData\Local\Temp\ccZ8Xcmd.s:22720  .debug_str:000000000000805d .LASF4796
C:\Users\CYMR90~1\AppData\Local\Temp\ccZ8Xcmd.s:27821  .debug_str:000000000001c8f1 .LASF4797
C:\Users\CYMR90~1\AppData\Local\Temp\ccZ8Xcmd.s:21416  .debug_str:0000000000002bbb .LASF4798
C:\Users\CYMR90~1\AppData\Local\Temp\ccZ8Xcmd.s:22310  .debug_str:000000000000646d .LASF4799
C:\Users\CYMR90~1\AppData\Local\Temp\ccZ8Xcmd.s:26286  .debug_str:000000000001646f .LASF4800
C:\Users\CYMR90~1\AppData\Local\Temp\ccZ8Xcmd.s:27447  .debug_str:000000000001b1e2 .LASF4801
C:\Users\CYMR90~1\AppData\Local\Temp\ccZ8Xcmd.s:21706  .debug_str:0000000000003e97 .LASF4802
C:\Users\CYMR90~1\AppData\Local\Temp\ccZ8Xcmd.s:30143  .debug_str:0000000000025b6d .LASF4803
C:\Users\CYMR90~1\AppData\Local\Temp\ccZ8Xcmd.s:24300  .debug_str:000000000000e65f .LASF4804
C:\Users\CYMR90~1\AppData\Local\Temp\ccZ8Xcmd.s:27911  .debug_str:000000000001cfd4 .LASF4805
C:\Users\CYMR90~1\AppData\Local\Temp\ccZ8Xcmd.s:25776  .debug_str:0000000000014449 .LASF4806
C:\Users\CYMR90~1\AppData\Local\Temp\ccZ8Xcmd.s:23446  .debug_str:000000000000ae9d .LASF4807
C:\Users\CYMR90~1\AppData\Local\Temp\ccZ8Xcmd.s:28865  .debug_str:0000000000020a9e .LASF4808
C:\Users\CYMR90~1\AppData\Local\Temp\ccZ8Xcmd.s:30259  .debug_str:0000000000026258 .LASF4809
C:\Users\CYMR90~1\AppData\Local\Temp\ccZ8Xcmd.s:28557  .debug_str:000000000001f757 .LASF4810
C:\Users\CYMR90~1\AppData\Local\Temp\ccZ8Xcmd.s:29153  .debug_str:0000000000021c3a .LASF4811
C:\Users\CYMR90~1\AppData\Local\Temp\ccZ8Xcmd.s:27419  .debug_str:000000000001afef .LASF4812
C:\Users\CYMR90~1\AppData\Local\Temp\ccZ8Xcmd.s:28709  .debug_str:000000000002008c .LASF4813
C:\Users\CYMR90~1\AppData\Local\Temp\ccZ8Xcmd.s:30207  .debug_str:0000000000025f5e .LASF4814
C:\Users\CYMR90~1\AppData\Local\Temp\ccZ8Xcmd.s:29685  .debug_str:0000000000023b96 .LASF4815
C:\Users\CYMR90~1\AppData\Local\Temp\ccZ8Xcmd.s:22894  .debug_str:0000000000008b07 .LASF4816
C:\Users\CYMR90~1\AppData\Local\Temp\ccZ8Xcmd.s:31965  .debug_str:000000000002d038 .LASF4817
C:\Users\CYMR90~1\AppData\Local\Temp\ccZ8Xcmd.s:22304  .debug_str:000000000000640e .LASF4818
C:\Users\CYMR90~1\AppData\Local\Temp\ccZ8Xcmd.s:21950  .debug_str:0000000000004eae .LASF4819
C:\Users\CYMR90~1\AppData\Local\Temp\ccZ8Xcmd.s:29399  .debug_str:0000000000022acf .LASF4820
C:\Users\CYMR90~1\AppData\Local\Temp\ccZ8Xcmd.s:29351  .debug_str:00000000000227b7 .LASF4821
C:\Users\CYMR90~1\AppData\Local\Temp\ccZ8Xcmd.s:28649  .debug_str:000000000001fd31 .LASF4822
C:\Users\CYMR90~1\AppData\Local\Temp\ccZ8Xcmd.s:20866  .debug_str:0000000000000993 .LASF4823
C:\Users\CYMR90~1\AppData\Local\Temp\ccZ8Xcmd.s:25562  .debug_str:000000000001378e .LASF4824
C:\Users\CYMR90~1\AppData\Local\Temp\ccZ8Xcmd.s:26691  .debug_str:0000000000017f3d .LASF4825
C:\Users\CYMR90~1\AppData\Local\Temp\ccZ8Xcmd.s:24286  .debug_str:000000000000e57f .LASF4826
C:\Users\CYMR90~1\AppData\Local\Temp\ccZ8Xcmd.s:27881  .debug_str:000000000001cd84 .LASF4827
C:\Users\CYMR90~1\AppData\Local\Temp\ccZ8Xcmd.s:25912  .debug_str:0000000000014d1b .LASF4828
C:\Users\CYMR90~1\AppData\Local\Temp\ccZ8Xcmd.s:24626  .debug_str:000000000000fa94 .LASF4829
C:\Users\CYMR90~1\AppData\Local\Temp\ccZ8Xcmd.s:22674  .debug_str:0000000000007cc1 .LASF4830
C:\Users\CYMR90~1\AppData\Local\Temp\ccZ8Xcmd.s:23724  .debug_str:000000000000c0fe .LASF4831
C:\Users\CYMR90~1\AppData\Local\Temp\ccZ8Xcmd.s:26054  .debug_str:0000000000015582 .LASF4832
C:\Users\CYMR90~1\AppData\Local\Temp\ccZ8Xcmd.s:27573  .debug_str:000000000001b91f .LASF4833
C:\Users\CYMR90~1\AppData\Local\Temp\ccZ8Xcmd.s:21792  .debug_str:000000000000443c .LASF4834
C:\Users\CYMR90~1\AppData\Local\Temp\ccZ8Xcmd.s:22798  .debug_str:0000000000008530 .LASF4835
C:\Users\CYMR90~1\AppData\Local\Temp\ccZ8Xcmd.s:27359  .debug_str:000000000001abf6 .LASF4836
C:\Users\CYMR90~1\AppData\Local\Temp\ccZ8Xcmd.s:28149  .debug_str:000000000001deee .LASF4837
C:\Users\CYMR90~1\AppData\Local\Temp\ccZ8Xcmd.s:25592  .debug_str:000000000001395e .LASF4838
C:\Users\CYMR90~1\AppData\Local\Temp\ccZ8Xcmd.s:31301  .debug_str:000000000002a4fc .LASF4839
C:\Users\CYMR90~1\AppData\Local\Temp\ccZ8Xcmd.s:28857  .debug_str:0000000000020a14 .LASF4840
C:\Users\CYMR90~1\AppData\Local\Temp\ccZ8Xcmd.s:29179  .debug_str:0000000000021db1 .LASF4841
C:\Users\CYMR90~1\AppData\Local\Temp\ccZ8Xcmd.s:30733  .debug_str:00000000000281a1 .LASF4842
C:\Users\CYMR90~1\AppData\Local\Temp\ccZ8Xcmd.s:29571  .debug_str:00000000000234a8 .LASF4843
C:\Users\CYMR90~1\AppData\Local\Temp\ccZ8Xcmd.s:25932  .debug_str:0000000000014e6b .LASF4844
C:\Users\CYMR90~1\AppData\Local\Temp\ccZ8Xcmd.s:21924  .debug_str:0000000000004d2d .LASF4845
C:\Users\CYMR90~1\AppData\Local\Temp\ccZ8Xcmd.s:23482  .debug_str:000000000000b0ad .LASF4846
C:\Users\CYMR90~1\AppData\Local\Temp\ccZ8Xcmd.s:30999  .debug_str:00000000000292b4 .LASF4847
C:\Users\CYMR90~1\AppData\Local\Temp\ccZ8Xcmd.s:26008  .debug_str:00000000000152f6 .LASF4848
C:\Users\CYMR90~1\AppData\Local\Temp\ccZ8Xcmd.s:29057  .debug_str:0000000000021658 .LASF4849
C:\Users\CYMR90~1\AppData\Local\Temp\ccZ8Xcmd.s:31405  .debug_str:000000000002ab28 .LASF4850
C:\Users\CYMR90~1\AppData\Local\Temp\ccZ8Xcmd.s:20838  .debug_str:00000000000007cf .LASF4851
C:\Users\CYMR90~1\AppData\Local\Temp\ccZ8Xcmd.s:20784  .debug_str:00000000000004ae .LASF4852
C:\Users\CYMR90~1\AppData\Local\Temp\ccZ8Xcmd.s:28355  .debug_str:000000000001eb00 .LASF4853
C:\Users\CYMR90~1\AppData\Local\Temp\ccZ8Xcmd.s:23222  .debug_str:0000000000009ffc .LASF4854
C:\Users\CYMR90~1\AppData\Local\Temp\ccZ8Xcmd.s:22054  .debug_str:00000000000054eb .LASF4855
C:\Users\CYMR90~1\AppData\Local\Temp\ccZ8Xcmd.s:24564  .debug_str:000000000000f6cb .LASF4856
C:\Users\CYMR90~1\AppData\Local\Temp\ccZ8Xcmd.s:26825  .debug_str:0000000000018774 .LASF4857
C:\Users\CYMR90~1\AppData\Local\Temp\ccZ8Xcmd.s:21332  .debug_str:0000000000002644 .LASF4858
C:\Users\CYMR90~1\AppData\Local\Temp\ccZ8Xcmd.s:27065  .debug_str:000000000001984c .LASF4859
C:\Users\CYMR90~1\AppData\Local\Temp\ccZ8Xcmd.s:28415  .debug_str:000000000001eeb5 .LASF4860
C:\Users\CYMR90~1\AppData\Local\Temp\ccZ8Xcmd.s:20874  .debug_str:0000000000000a59 .LASF4861
C:\Users\CYMR90~1\AppData\Local\Temp\ccZ8Xcmd.s:22286  .debug_str:000000000000631b .LASF4862
C:\Users\CYMR90~1\AppData\Local\Temp\ccZ8Xcmd.s:25312  .debug_str:00000000000126c7 .LASF4863
C:\Users\CYMR90~1\AppData\Local\Temp\ccZ8Xcmd.s:27687  .debug_str:000000000001c084 .LASF4864
C:\Users\CYMR90~1\AppData\Local\Temp\ccZ8Xcmd.s:27067  .debug_str:0000000000019878 .LASF4865
C:\Users\CYMR90~1\AppData\Local\Temp\ccZ8Xcmd.s:31451  .debug_str:000000000002adfe .LASF4866
C:\Users\CYMR90~1\AppData\Local\Temp\ccZ8Xcmd.s:23642  .debug_str:000000000000bbc6 .LASF4867
C:\Users\CYMR90~1\AppData\Local\Temp\ccZ8Xcmd.s:26661  .debug_str:0000000000017db8 .LASF4868
C:\Users\CYMR90~1\AppData\Local\Temp\ccZ8Xcmd.s:25664  .debug_str:0000000000013da1 .LASF4869
C:\Users\CYMR90~1\AppData\Local\Temp\ccZ8Xcmd.s:26643  .debug_str:0000000000017cac .LASF4870
C:\Users\CYMR90~1\AppData\Local\Temp\ccZ8Xcmd.s:28851  .debug_str:00000000000209b9 .LASF4871
C:\Users\CYMR90~1\AppData\Local\Temp\ccZ8Xcmd.s:28855  .debug_str:00000000000209f2 .LASF4872
C:\Users\CYMR90~1\AppData\Local\Temp\ccZ8Xcmd.s:21454  .debug_str:0000000000002dee .LASF4873
C:\Users\CYMR90~1\AppData\Local\Temp\ccZ8Xcmd.s:24732  .debug_str:0000000000010140 .LASF4874
C:\Users\CYMR90~1\AppData\Local\Temp\ccZ8Xcmd.s:31197  .debug_str:0000000000029e90 .LASF4875
C:\Users\CYMR90~1\AppData\Local\Temp\ccZ8Xcmd.s:22834  .debug_str:000000000000879c .LASF4876
C:\Users\CYMR90~1\AppData\Local\Temp\ccZ8Xcmd.s:24598  .debug_str:000000000000f8af .LASF4877
C:\Users\CYMR90~1\AppData\Local\Temp\ccZ8Xcmd.s:21394  .debug_str:0000000000002a4d .LASF4878
C:\Users\CYMR90~1\AppData\Local\Temp\ccZ8Xcmd.s:28093  .debug_str:000000000001db62 .LASF4879
C:\Users\CYMR90~1\AppData\Local\Temp\ccZ8Xcmd.s:26447  .debug_str:00000000000170be .LASF4880
C:\Users\CYMR90~1\AppData\Local\Temp\ccZ8Xcmd.s:24076  .debug_str:000000000000d8bd .LASF4881
C:\Users\CYMR90~1\AppData\Local\Temp\ccZ8Xcmd.s:26531  .debug_str:00000000000175b0 .LASF4882
C:\Users\CYMR90~1\AppData\Local\Temp\ccZ8Xcmd.s:23110  .debug_str:000000000000991a .LASF4883
C:\Users\CYMR90~1\AppData\Local\Temp\ccZ8Xcmd.s:25926  .debug_str:0000000000014e0d .LASF4884
C:\Users\CYMR90~1\AppData\Local\Temp\ccZ8Xcmd.s:22856  .debug_str:00000000000088f7 .LASF4885
C:\Users\CYMR90~1\AppData\Local\Temp\ccZ8Xcmd.s:22788  .debug_str:00000000000084a0 .LASF4886
C:\Users\CYMR90~1\AppData\Local\Temp\ccZ8Xcmd.s:31449  .debug_str:000000000002add9 .LASF4887
C:\Users\CYMR90~1\AppData\Local\Temp\ccZ8Xcmd.s:29737  .debug_str:0000000000023f3d .LASF4888
C:\Users\CYMR90~1\AppData\Local\Temp\ccZ8Xcmd.s:31435  .debug_str:000000000002ad0e .LASF4889
C:\Users\CYMR90~1\AppData\Local\Temp\ccZ8Xcmd.s:26723  .debug_str:0000000000018147 .LASF4890
C:\Users\CYMR90~1\AppData\Local\Temp\ccZ8Xcmd.s:30929  .debug_str:0000000000028de3 .LASF4891
C:\Users\CYMR90~1\AppData\Local\Temp\ccZ8Xcmd.s:30601  .debug_str:00000000000277d9 .LASF4892
C:\Users\CYMR90~1\AppData\Local\Temp\ccZ8Xcmd.s:23086  .debug_str:0000000000009773 .LASF4893
C:\Users\CYMR90~1\AppData\Local\Temp\ccZ8Xcmd.s:30347  .debug_str:0000000000026805 .LASF4894
C:\Users\CYMR90~1\AppData\Local\Temp\ccZ8Xcmd.s:26707  .debug_str:000000000001805c .LASF4895
C:\Users\CYMR90~1\AppData\Local\Temp\ccZ8Xcmd.s:26611  .debug_str:0000000000017acc .LASF4896
C:\Users\CYMR90~1\AppData\Local\Temp\ccZ8Xcmd.s:30477  .debug_str:0000000000026fcc .LASF4897
C:\Users\CYMR90~1\AppData\Local\Temp\ccZ8Xcmd.s:24486  .debug_str:000000000000f16e .LASF4898
C:\Users\CYMR90~1\AppData\Local\Temp\ccZ8Xcmd.s:27857  .debug_str:000000000001cb5d .LASF4899
C:\Users\CYMR90~1\AppData\Local\Temp\ccZ8Xcmd.s:26901  .debug_str:0000000000018ce4 .LASF4900
C:\Users\CYMR90~1\AppData\Local\Temp\ccZ8Xcmd.s:23800  .debug_str:000000000000c611 .LASF4901
C:\Users\CYMR90~1\AppData\Local\Temp\ccZ8Xcmd.s:29997  .debug_str:0000000000025162 .LASF4902
C:\Users\CYMR90~1\AppData\Local\Temp\ccZ8Xcmd.s:23214  .debug_str:0000000000009f86 .LASF4903
C:\Users\CYMR90~1\AppData\Local\Temp\ccZ8Xcmd.s:29819  .debug_str:00000000000244d1 .LASF4904
C:\Users\CYMR90~1\AppData\Local\Temp\ccZ8Xcmd.s:27631  .debug_str:000000000001bceb .LASF4905
C:\Users\CYMR90~1\AppData\Local\Temp\ccZ8Xcmd.s:24246  .debug_str:000000000000e2c1 .LASF4906
C:\Users\CYMR90~1\AppData\Local\Temp\ccZ8Xcmd.s:24806  .debug_str:00000000000105c0 .LASF4907
C:\Users\CYMR90~1\AppData\Local\Temp\ccZ8Xcmd.s:21176  .debug_str:0000000000001d07 .LASF4908
C:\Users\CYMR90~1\AppData\Local\Temp\ccZ8Xcmd.s:28159  .debug_str:000000000001df83 .LASF4909
C:\Users\CYMR90~1\AppData\Local\Temp\ccZ8Xcmd.s:27707  .debug_str:000000000001c194 .LASF4910
C:\Users\CYMR90~1\AppData\Local\Temp\ccZ8Xcmd.s:25820  .debug_str:000000000001472e .LASF4911
C:\Users\CYMR90~1\AppData\Local\Temp\ccZ8Xcmd.s:21784  .debug_str:00000000000043bb .LASF4912
C:\Users\CYMR90~1\AppData\Local\Temp\ccZ8Xcmd.s:27351  .debug_str:000000000001ab6c .LASF4913
C:\Users\CYMR90~1\AppData\Local\Temp\ccZ8Xcmd.s:30095  .debug_str:000000000002589e .LASF4914
C:\Users\CYMR90~1\AppData\Local\Temp\ccZ8Xcmd.s:24540  .debug_str:000000000000f4b4 .LASF4915
C:\Users\CYMR90~1\AppData\Local\Temp\ccZ8Xcmd.s:23636  .debug_str:000000000000bb32 .LASF4916
C:\Users\CYMR90~1\AppData\Local\Temp\ccZ8Xcmd.s:20706  .debug_str:000000000000006a .LASF4917
C:\Users\CYMR90~1\AppData\Local\Temp\ccZ8Xcmd.s:23714  .debug_str:000000000000c07b .LASF4918
C:\Users\CYMR90~1\AppData\Local\Temp\ccZ8Xcmd.s:22306  .debug_str:0000000000006431 .LASF4919
C:\Users\CYMR90~1\AppData\Local\Temp\ccZ8Xcmd.s:24782  .debug_str:000000000001043a .LASF4920
C:\Users\CYMR90~1\AppData\Local\Temp\ccZ8Xcmd.s:26060  .debug_str:00000000000155d3 .LASF4921
C:\Users\CYMR90~1\AppData\Local\Temp\ccZ8Xcmd.s:23596  .debug_str:000000000000b867 .LASF4922
C:\Users\CYMR90~1\AppData\Local\Temp\ccZ8Xcmd.s:25916  .debug_str:0000000000014d62 .LASF4923
C:\Users\CYMR90~1\AppData\Local\Temp\ccZ8Xcmd.s:23550  .debug_str:000000000000b55b .LASF4924
C:\Users\CYMR90~1\AppData\Local\Temp\ccZ8Xcmd.s:26106  .debug_str:000000000001589d .LASF4925
C:\Users\CYMR90~1\AppData\Local\Temp\ccZ8Xcmd.s:25000  .debug_str:000000000001117d .LASF4926
C:\Users\CYMR90~1\AppData\Local\Temp\ccZ8Xcmd.s:30269  .debug_str:0000000000026301 .LASF4927
C:\Users\CYMR90~1\AppData\Local\Temp\ccZ8Xcmd.s:25240  .debug_str:000000000001221f .LASF4928
C:\Users\CYMR90~1\AppData\Local\Temp\ccZ8Xcmd.s:25982  .debug_str:000000000001519f .LASF4929
C:\Users\CYMR90~1\AppData\Local\Temp\ccZ8Xcmd.s:24912  .debug_str:0000000000010c96 .LASF4930
C:\Users\CYMR90~1\AppData\Local\Temp\ccZ8Xcmd.s:30795  .debug_str:00000000000285d6 .LASF4931
C:\Users\CYMR90~1\AppData\Local\Temp\ccZ8Xcmd.s:22564  .debug_str:00000000000074fa .LASF4932
C:\Users\CYMR90~1\AppData\Local\Temp\ccZ8Xcmd.s:31695  .debug_str:000000000002be0a .LASF4933
C:\Users\CYMR90~1\AppData\Local\Temp\ccZ8Xcmd.s:31711  .debug_str:000000000002bf9a .LASF4934
C:\Users\CYMR90~1\AppData\Local\Temp\ccZ8Xcmd.s:28879  .debug_str:0000000000020b85 .LASF4935
C:\Users\CYMR90~1\AppData\Local\Temp\ccZ8Xcmd.s:20900  .debug_str:0000000000000be2 .LASF4936
C:\Users\CYMR90~1\AppData\Local\Temp\ccZ8Xcmd.s:23592  .debug_str:000000000000b841 .LASF4937
C:\Users\CYMR90~1\AppData\Local\Temp\ccZ8Xcmd.s:28337  .debug_str:000000000001e9ef .LASF4938
C:\Users\CYMR90~1\AppData\Local\Temp\ccZ8Xcmd.s:22294  .debug_str:0000000000006386 .LASF4939
C:\Users\CYMR90~1\AppData\Local\Temp\ccZ8Xcmd.s:22756  .debug_str:00000000000082ca .LASF4940
C:\Users\CYMR90~1\AppData\Local\Temp\ccZ8Xcmd.s:25426  .debug_str:0000000000012e50 .LASF4941
C:\Users\CYMR90~1\AppData\Local\Temp\ccZ8Xcmd.s:24848  .debug_str:0000000000010824 .LASF4942
C:\Users\CYMR90~1\AppData\Local\Temp\ccZ8Xcmd.s:29165  .debug_str:0000000000021d07 .LASF4943
C:\Users\CYMR90~1\AppData\Local\Temp\ccZ8Xcmd.s:28209  .debug_str:000000000001e27e .LASF4944
C:\Users\CYMR90~1\AppData\Local\Temp\ccZ8Xcmd.s:23442  .debug_str:000000000000ae5b .LASF4945
C:\Users\CYMR90~1\AppData\Local\Temp\ccZ8Xcmd.s:29003  .debug_str:000000000002131d .LASF4946
C:\Users\CYMR90~1\AppData\Local\Temp\ccZ8Xcmd.s:26166  .debug_str:0000000000015c79 .LASF4947
C:\Users\CYMR90~1\AppData\Local\Temp\ccZ8Xcmd.s:22208  .debug_str:0000000000005e38 .LASF4948
C:\Users\CYMR90~1\AppData\Local\Temp\ccZ8Xcmd.s:27151  .debug_str:0000000000019d48 .LASF4949
C:\Users\CYMR90~1\AppData\Local\Temp\ccZ8Xcmd.s:25992  .debug_str:0000000000015208 .LASF4950
C:\Users\CYMR90~1\AppData\Local\Temp\ccZ8Xcmd.s:28653  .debug_str:000000000001fd7f .LASF4951
C:\Users\CYMR90~1\AppData\Local\Temp\ccZ8Xcmd.s:30829  .debug_str:00000000000287ea .LASF4952
C:\Users\CYMR90~1\AppData\Local\Temp\ccZ8Xcmd.s:25642  .debug_str:0000000000013c55 .LASF4953
C:\Users\CYMR90~1\AppData\Local\Temp\ccZ8Xcmd.s:26807  .debug_str:000000000001862f .LASF4954
C:\Users\CYMR90~1\AppData\Local\Temp\ccZ8Xcmd.s:21284  .debug_str:0000000000002316 .LASF4955
C:\Users\CYMR90~1\AppData\Local\Temp\ccZ8Xcmd.s:28261  .debug_str:000000000001e59d .LASF4956
C:\Users\CYMR90~1\AppData\Local\Temp\ccZ8Xcmd.s:27909  .debug_str:000000000001cfb6 .LASF4957
C:\Users\CYMR90~1\AppData\Local\Temp\ccZ8Xcmd.s:30049  .debug_str:000000000002550c .LASF4958
C:\Users\CYMR90~1\AppData\Local\Temp\ccZ8Xcmd.s:22348  .debug_str:0000000000006707 .LASF4959
C:\Users\CYMR90~1\AppData\Local\Temp\ccZ8Xcmd.s:21142  .debug_str:0000000000001b04 .LASF4960
C:\Users\CYMR90~1\AppData\Local\Temp\ccZ8Xcmd.s:22948  .debug_str:0000000000008eea .LASF4961
C:\Users\CYMR90~1\AppData\Local\Temp\ccZ8Xcmd.s:23112  .debug_str:000000000000993d .LASF4962
C:\Users\CYMR90~1\AppData\Local\Temp\ccZ8Xcmd.s:31215  .debug_str:0000000000029fa1 .LASF4963
C:\Users\CYMR90~1\AppData\Local\Temp\ccZ8Xcmd.s:31737  .debug_str:000000000002c12b .LASF4964
C:\Users\CYMR90~1\AppData\Local\Temp\ccZ8Xcmd.s:25866  .debug_str:00000000000149ec .LASF4965
C:\Users\CYMR90~1\AppData\Local\Temp\ccZ8Xcmd.s:26272  .debug_str:000000000001632e .LASF4966
C:\Users\CYMR90~1\AppData\Local\Temp\ccZ8Xcmd.s:25360  .debug_str:00000000000129fd .LASF4967
C:\Users\CYMR90~1\AppData\Local\Temp\ccZ8Xcmd.s:23432  .debug_str:000000000000adc1 .LASF4968
C:\Users\CYMR90~1\AppData\Local\Temp\ccZ8Xcmd.s:25930  .debug_str:0000000000014e52 .LASF4969
C:\Users\CYMR90~1\AppData\Local\Temp\ccZ8Xcmd.s:22488  .debug_str:000000000000701d .LASF4970
C:\Users\CYMR90~1\AppData\Local\Temp\ccZ8Xcmd.s:26703  .debug_str:000000000001801f .LASF4971
C:\Users\CYMR90~1\AppData\Local\Temp\ccZ8Xcmd.s:24586  .debug_str:000000000000f819 .LASF4972
C:\Users\CYMR90~1\AppData\Local\Temp\ccZ8Xcmd.s:26090  .debug_str:00000000000157af .LASF4973
C:\Users\CYMR90~1\AppData\Local\Temp\ccZ8Xcmd.s:22628  .debug_str:0000000000007945 .LASF4974
C:\Users\CYMR90~1\AppData\Local\Temp\ccZ8Xcmd.s:27371  .debug_str:000000000001acb8 .LASF4975
C:\Users\CYMR90~1\AppData\Local\Temp\ccZ8Xcmd.s:31981  .debug_str:000000000002d136 .LASF4976
C:\Users\CYMR90~1\AppData\Local\Temp\ccZ8Xcmd.s:21578  .debug_str:0000000000003641 .LASF4977
C:\Users\CYMR90~1\AppData\Local\Temp\ccZ8Xcmd.s:25222  .debug_str:00000000000120e3 .LASF4978
C:\Users\CYMR90~1\AppData\Local\Temp\ccZ8Xcmd.s:22538  .debug_str:000000000000735c .LASF4979
C:\Users\CYMR90~1\AppData\Local\Temp\ccZ8Xcmd.s:21934  .debug_str:0000000000004dc8 .LASF4980
C:\Users\CYMR90~1\AppData\Local\Temp\ccZ8Xcmd.s:23160  .debug_str:0000000000009c23 .LASF4981
C:\Users\CYMR90~1\AppData\Local\Temp\ccZ8Xcmd.s:23108  .debug_str:00000000000098f9 .LASF4982
C:\Users\CYMR90~1\AppData\Local\Temp\ccZ8Xcmd.s:23994  .debug_str:000000000000d3c3 .LASF4983
C:\Users\CYMR90~1\AppData\Local\Temp\ccZ8Xcmd.s:21232  .debug_str:0000000000001fe6 .LASF4984
C:\Users\CYMR90~1\AppData\Local\Temp\ccZ8Xcmd.s:31135  .debug_str:0000000000029aea .LASF4985
C:\Users\CYMR90~1\AppData\Local\Temp\ccZ8Xcmd.s:28771  .debug_str:00000000000204eb .LASF4986
C:\Users\CYMR90~1\AppData\Local\Temp\ccZ8Xcmd.s:30487  .debug_str:00000000000270aa .LASF4987
C:\Users\CYMR90~1\AppData\Local\Temp\ccZ8Xcmd.s:21100  .debug_str:00000000000018a6 .LASF4988
C:\Users\CYMR90~1\AppData\Local\Temp\ccZ8Xcmd.s:24606  .debug_str:000000000000f936 .LASF4989
C:\Users\CYMR90~1\AppData\Local\Temp\ccZ8Xcmd.s:22996  .debug_str:00000000000091a5 .LASF4990
C:\Users\CYMR90~1\AppData\Local\Temp\ccZ8Xcmd.s:29935  .debug_str:0000000000024cb2 .LASF4991
C:\Users\CYMR90~1\AppData\Local\Temp\ccZ8Xcmd.s:31419  .debug_str:000000000002abf2 .LASF4992
C:\Users\CYMR90~1\AppData\Local\Temp\ccZ8Xcmd.s:26419  .debug_str:0000000000016f42 .LASF4993
C:\Users\CYMR90~1\AppData\Local\Temp\ccZ8Xcmd.s:26535  .debug_str:00000000000175f7 .LASF4994
C:\Users\CYMR90~1\AppData\Local\Temp\ccZ8Xcmd.s:28081  .debug_str:000000000001da2d .LASF4995
C:\Users\CYMR90~1\AppData\Local\Temp\ccZ8Xcmd.s:23232  .debug_str:000000000000a0ad .LASF4996
C:\Users\CYMR90~1\AppData\Local\Temp\ccZ8Xcmd.s:28523  .debug_str:000000000001f54f .LASF4997
C:\Users\CYMR90~1\AppData\Local\Temp\ccZ8Xcmd.s:29699  .debug_str:0000000000023c62 .LASF4998
C:\Users\CYMR90~1\AppData\Local\Temp\ccZ8Xcmd.s:25350  .debug_str:0000000000012975 .LASF4999
C:\Users\CYMR90~1\AppData\Local\Temp\ccZ8Xcmd.s:21582  .debug_str:000000000000367a .LASF5000
C:\Users\CYMR90~1\AppData\Local\Temp\ccZ8Xcmd.s:21764  .debug_str:000000000000426e .LASF5001
C:\Users\CYMR90~1\AppData\Local\Temp\ccZ8Xcmd.s:30637  .debug_str:0000000000027a7b .LASF5002
C:\Users\CYMR90~1\AppData\Local\Temp\ccZ8Xcmd.s:25016  .debug_str:0000000000011270 .LASF5003
C:\Users\CYMR90~1\AppData\Local\Temp\ccZ8Xcmd.s:23604  .debug_str:000000000000b8ce .LASF5004
C:\Users\CYMR90~1\AppData\Local\Temp\ccZ8Xcmd.s:29691  .debug_str:0000000000023be5 .LASF5005
C:\Users\CYMR90~1\AppData\Local\Temp\ccZ8Xcmd.s:29795  .debug_str:0000000000024360 .LASF5006
C:\Users\CYMR90~1\AppData\Local\Temp\ccZ8Xcmd.s:26062  .debug_str:00000000000155e9 .LASF5007
C:\Users\CYMR90~1\AppData\Local\Temp\ccZ8Xcmd.s:21606  .debug_str:0000000000003805 .LASF5008
C:\Users\CYMR90~1\AppData\Local\Temp\ccZ8Xcmd.s:26401  .debug_str:0000000000016e1b .LASF5009
C:\Users\CYMR90~1\AppData\Local\Temp\ccZ8Xcmd.s:21546  .debug_str:000000000000343c .LASF5010
C:\Users\CYMR90~1\AppData\Local\Temp\ccZ8Xcmd.s:21384  .debug_str:00000000000029a2 .LASF5011
C:\Users\CYMR90~1\AppData\Local\Temp\ccZ8Xcmd.s:22260  .debug_str:0000000000006189 .LASF5012
C:\Users\CYMR90~1\AppData\Local\Temp\ccZ8Xcmd.s:30281  .debug_str:00000000000263c1 .LASF5013
C:\Users\CYMR90~1\AppData\Local\Temp\ccZ8Xcmd.s:31201  .debug_str:0000000000029ec9 .LASF5014
C:\Users\CYMR90~1\AppData\Local\Temp\ccZ8Xcmd.s:20810  .debug_str:000000000000062a .LASF5015
C:\Users\CYMR90~1\AppData\Local\Temp\ccZ8Xcmd.s:27287  .debug_str:000000000001a77c .LASF5016
C:\Users\CYMR90~1\AppData\Local\Temp\ccZ8Xcmd.s:31675  .debug_str:000000000002bcd0 .LASF5017
C:\Users\CYMR90~1\AppData\Local\Temp\ccZ8Xcmd.s:23418  .debug_str:000000000000ac3f .LASF5018
C:\Users\CYMR90~1\AppData\Local\Temp\ccZ8Xcmd.s:22342  .debug_str:00000000000066af .LASF5019
C:\Users\CYMR90~1\AppData\Local\Temp\ccZ8Xcmd.s:30589  .debug_str:0000000000027712 .LASF5020
C:\Users\CYMR90~1\AppData\Local\Temp\ccZ8Xcmd.s:27311  .debug_str:000000000001a8de .LASF5021
C:\Users\CYMR90~1\AppData\Local\Temp\ccZ8Xcmd.s:28431  .debug_str:000000000001efbe .LASF5022
C:\Users\CYMR90~1\AppData\Local\Temp\ccZ8Xcmd.s:27563  .debug_str:000000000001b893 .LASF5023
C:\Users\CYMR90~1\AppData\Local\Temp\ccZ8Xcmd.s:22052  .debug_str:00000000000054d2 .LASF5024
C:\Users\CYMR90~1\AppData\Local\Temp\ccZ8Xcmd.s:29459  .debug_str:0000000000022e2d .LASF5025
C:\Users\CYMR90~1\AppData\Local\Temp\ccZ8Xcmd.s:29479  .debug_str:0000000000022f12 .LASF5026
C:\Users\CYMR90~1\AppData\Local\Temp\ccZ8Xcmd.s:29967  .debug_str:0000000000024e86 .LASF5027
C:\Users\CYMR90~1\AppData\Local\Temp\ccZ8Xcmd.s:30905  .debug_str:0000000000028c3c .LASF5028
C:\Users\CYMR90~1\AppData\Local\Temp\ccZ8Xcmd.s:29521  .debug_str:0000000000023179 .LASF5029
C:\Users\CYMR90~1\AppData\Local\Temp\ccZ8Xcmd.s:31029  .debug_str:000000000002949d .LASF5030
C:\Users\CYMR90~1\AppData\Local\Temp\ccZ8Xcmd.s:25432  .debug_str:0000000000012eae .LASF5031
C:\Users\CYMR90~1\AppData\Local\Temp\ccZ8Xcmd.s:27783  .debug_str:000000000001c695 .LASF5032
C:\Users\CYMR90~1\AppData\Local\Temp\ccZ8Xcmd.s:29043  .debug_str:000000000002157b .LASF5033
C:\Users\CYMR90~1\AppData\Local\Temp\ccZ8Xcmd.s:31953  .debug_str:000000000002cf69 .LASF5034
C:\Users\CYMR90~1\AppData\Local\Temp\ccZ8Xcmd.s:25436  .debug_str:0000000000012ef2 .LASF5035
C:\Users\CYMR90~1\AppData\Local\Temp\ccZ8Xcmd.s:26615  .debug_str:0000000000017b09 .LASF5036
C:\Users\CYMR90~1\AppData\Local\Temp\ccZ8Xcmd.s:21926  .debug_str:0000000000004d56 .LASF5037
C:\Users\CYMR90~1\AppData\Local\Temp\ccZ8Xcmd.s:29027  .debug_str:0000000000021484 .LASF5038
C:\Users\CYMR90~1\AppData\Local\Temp\ccZ8Xcmd.s:26340  .debug_str:0000000000016810 .LASF5039
C:\Users\CYMR90~1\AppData\Local\Temp\ccZ8Xcmd.s:21452  .debug_str:0000000000002dd5 .LASF5040
C:\Users\CYMR90~1\AppData\Local\Temp\ccZ8Xcmd.s:28329  .debug_str:000000000001e995 .LASF5041
C:\Users\CYMR90~1\AppData\Local\Temp\ccZ8Xcmd.s:29269  .debug_str:00000000000222c2 .LASF5042
C:\Users\CYMR90~1\AppData\Local\Temp\ccZ8Xcmd.s:22214  .debug_str:0000000000005eac .LASF5043
C:\Users\CYMR90~1\AppData\Local\Temp\ccZ8Xcmd.s:29731  .debug_str:0000000000023e16 .LASF5044
C:\Users\CYMR90~1\AppData\Local\Temp\ccZ8Xcmd.s:27963  .debug_str:000000000001d2ed .LASF5045
C:\Users\CYMR90~1\AppData\Local\Temp\ccZ8Xcmd.s:27945  .debug_str:000000000001d1db .LASF5046
C:\Users\CYMR90~1\AppData\Local\Temp\ccZ8Xcmd.s:29049  .debug_str:00000000000215f9 .LASF5047
C:\Users\CYMR90~1\AppData\Local\Temp\ccZ8Xcmd.s:25306  .debug_str:0000000000012659 .LASF5048
C:\Users\CYMR90~1\AppData\Local\Temp\ccZ8Xcmd.s:26719  .debug_str:000000000001810b .LASF5049
C:\Users\CYMR90~1\AppData\Local\Temp\ccZ8Xcmd.s:22514  .debug_str:00000000000071f8 .LASF5050
C:\Users\CYMR90~1\AppData\Local\Temp\ccZ8Xcmd.s:27293  .debug_str:000000000001a7c6 .LASF5051
C:\Users\CYMR90~1\AppData\Local\Temp\ccZ8Xcmd.s:31147  .debug_str:0000000000029bb9 .LASF5052
C:\Users\CYMR90~1\AppData\Local\Temp\ccZ8Xcmd.s:23780  .debug_str:000000000000c480 .LASF5053
C:\Users\CYMR90~1\AppData\Local\Temp\ccZ8Xcmd.s:23402  .debug_str:000000000000ab02 .LASF5054
C:\Users\CYMR90~1\AppData\Local\Temp\ccZ8Xcmd.s:24412  .debug_str:000000000000ece1 .LASF5055
C:\Users\CYMR90~1\AppData\Local\Temp\ccZ8Xcmd.s:22382  .debug_str:0000000000006920 .LASF5056
C:\Users\CYMR90~1\AppData\Local\Temp\ccZ8Xcmd.s:27103  .debug_str:0000000000019a9d .LASF5057
C:\Users\CYMR90~1\AppData\Local\Temp\ccZ8Xcmd.s:21288  .debug_str:000000000000234c .LASF5058
C:\Users\CYMR90~1\AppData\Local\Temp\ccZ8Xcmd.s:29509  .debug_str:00000000000230b1 .LASF5059
C:\Users\CYMR90~1\AppData\Local\Temp\ccZ8Xcmd.s:26326  .debug_str:00000000000166e6 .LASF5060
C:\Users\CYMR90~1\AppData\Local\Temp\ccZ8Xcmd.s:31375  .debug_str:000000000002a952 .LASF5061
C:\Users\CYMR90~1\AppData\Local\Temp\ccZ8Xcmd.s:24604  .debug_str:000000000000f916 .LASF5062
C:\Users\CYMR90~1\AppData\Local\Temp\ccZ8Xcmd.s:30683  .debug_str:0000000000027d8a .LASF5063
C:\Users\CYMR90~1\AppData\Local\Temp\ccZ8Xcmd.s:22586  .debug_str:0000000000007678 .LASF5064
C:\Users\CYMR90~1\AppData\Local\Temp\ccZ8Xcmd.s:24012  .debug_str:000000000000d521 .LASF5065
C:\Users\CYMR90~1\AppData\Local\Temp\ccZ8Xcmd.s:31865  .debug_str:000000000002c9b7 .LASF5066
C:\Users\CYMR90~1\AppData\Local\Temp\ccZ8Xcmd.s:23648  .debug_str:000000000000bc3f .LASF5067
C:\Users\CYMR90~1\AppData\Local\Temp\ccZ8Xcmd.s:23206  .debug_str:0000000000009f19 .LASF5068
C:\Users\CYMR90~1\AppData\Local\Temp\ccZ8Xcmd.s:30593  .debug_str:000000000002776a .LASF5069
C:\Users\CYMR90~1\AppData\Local\Temp\ccZ8Xcmd.s:25054  .debug_str:0000000000011507 .LASF5070
C:\Users\CYMR90~1\AppData\Local\Temp\ccZ8Xcmd.s:21846  .debug_str:000000000000487b .LASF5071
C:\Users\CYMR90~1\AppData\Local\Temp\ccZ8Xcmd.s:23152  .debug_str:0000000000009b9d .LASF5072
C:\Users\CYMR90~1\AppData\Local\Temp\ccZ8Xcmd.s:26941  .debug_str:000000000001900e .LASF5073
C:\Users\CYMR90~1\AppData\Local\Temp\ccZ8Xcmd.s:27905  .debug_str:000000000001cf6c .LASF5074
C:\Users\CYMR90~1\AppData\Local\Temp\ccZ8Xcmd.s:28123  .debug_str:000000000001dd70 .LASF5075
C:\Users\CYMR90~1\AppData\Local\Temp\ccZ8Xcmd.s:23858  .debug_str:000000000000cac3 .LASF5076
C:\Users\CYMR90~1\AppData\Local\Temp\ccZ8Xcmd.s:26120  .debug_str:000000000001596b .LASF5077
C:\Users\CYMR90~1\AppData\Local\Temp\ccZ8Xcmd.s:24252  .debug_str:000000000000e31f .LASF5078
C:\Users\CYMR90~1\AppData\Local\Temp\ccZ8Xcmd.s:27109  .debug_str:0000000000019af3 .LASF5079
C:\Users\CYMR90~1\AppData\Local\Temp\ccZ8Xcmd.s:26861  .debug_str:00000000000189c1 .LASF5080
C:\Users\CYMR90~1\AppData\Local\Temp\ccZ8Xcmd.s:29583  .debug_str:0000000000023583 .LASF5081
C:\Users\CYMR90~1\AppData\Local\Temp\ccZ8Xcmd.s:21812  .debug_str:00000000000045a6 .LASF5082
C:\Users\CYMR90~1\AppData\Local\Temp\ccZ8Xcmd.s:20880  .debug_str:0000000000000abc .LASF5083
C:\Users\CYMR90~1\AppData\Local\Temp\ccZ8Xcmd.s:25146  .debug_str:0000000000011be0 .LASF5084
C:\Users\CYMR90~1\AppData\Local\Temp\ccZ8Xcmd.s:25888  .debug_str:0000000000014b4e .LASF5085
C:\Users\CYMR90~1\AppData\Local\Temp\ccZ8Xcmd.s:31739  .debug_str:000000000002c143 .LASF5086
C:\Users\CYMR90~1\AppData\Local\Temp\ccZ8Xcmd.s:22736  .debug_str:0000000000008164 .LASF5087
C:\Users\CYMR90~1\AppData\Local\Temp\ccZ8Xcmd.s:23298  .debug_str:000000000000a48d .LASF5088
C:\Users\CYMR90~1\AppData\Local\Temp\ccZ8Xcmd.s:26947  .debug_str:0000000000019070 .LASF5089
C:\Users\CYMR90~1\AppData\Local\Temp\ccZ8Xcmd.s:24188  .debug_str:000000000000df43 .LASF5090
C:\Users\CYMR90~1\AppData\Local\Temp\ccZ8Xcmd.s:31787  .debug_str:000000000002c4df .LASF5091
C:\Users\CYMR90~1\AppData\Local\Temp\ccZ8Xcmd.s:21104  .debug_str:00000000000018e4 .LASF5092
C:\Users\CYMR90~1\AppData\Local\Temp\ccZ8Xcmd.s:30673  .debug_str:0000000000027cd9 .LASF5093
C:\Users\CYMR90~1\AppData\Local\Temp\ccZ8Xcmd.s:28023  .debug_str:000000000001d6e3 .LASF5094
C:\Users\CYMR90~1\AppData\Local\Temp\ccZ8Xcmd.s:26383  .debug_str:0000000000016ce2 .LASF5095
C:\Users\CYMR90~1\AppData\Local\Temp\ccZ8Xcmd.s:23258  .debug_str:000000000000a257 .LASF5096
C:\Users\CYMR90~1\AppData\Local\Temp\ccZ8Xcmd.s:29087  .debug_str:00000000000217ff .LASF5097
C:\Users\CYMR90~1\AppData\Local\Temp\ccZ8Xcmd.s:25438  .debug_str:0000000000012f12 .LASF5098
C:\Users\CYMR90~1\AppData\Local\Temp\ccZ8Xcmd.s:26845  .debug_str:00000000000188c5 .LASF5099
C:\Users\CYMR90~1\AppData\Local\Temp\ccZ8Xcmd.s:25538  .debug_str:0000000000013614 .LASF5100
C:\Users\CYMR90~1\AppData\Local\Temp\ccZ8Xcmd.s:29767  .debug_str:0000000000024184 .LASF5101
C:\Users\CYMR90~1\AppData\Local\Temp\ccZ8Xcmd.s:30283  .debug_str:00000000000263dc .LASF5102
C:\Users\CYMR90~1\AppData\Local\Temp\ccZ8Xcmd.s:21350  .debug_str:0000000000002776 .LASF5103
C:\Users\CYMR90~1\AppData\Local\Temp\ccZ8Xcmd.s:25116  .debug_str:0000000000011a24 .LASF5104
C:\Users\CYMR90~1\AppData\Local\Temp\ccZ8Xcmd.s:28651  .debug_str:000000000001fd54 .LASF5105
C:\Users\CYMR90~1\AppData\Local\Temp\ccZ8Xcmd.s:21496  .debug_str:00000000000030e8 .LASF5106
C:\Users\CYMR90~1\AppData\Local\Temp\ccZ8Xcmd.s:28585  .debug_str:000000000001f905 .LASF5107
C:\Users\CYMR90~1\AppData\Local\Temp\ccZ8Xcmd.s:25524  .debug_str:0000000000013544 .LASF5108
C:\Users\CYMR90~1\AppData\Local\Temp\ccZ8Xcmd.s:31023  .debug_str:0000000000029421 .LASF5109
C:\Users\CYMR90~1\AppData\Local\Temp\ccZ8Xcmd.s:23238  .debug_str:000000000000a104 .LASF5110
C:\Users\CYMR90~1\AppData\Local\Temp\ccZ8Xcmd.s:26937  .debug_str:0000000000018fbb .LASF5111
C:\Users\CYMR90~1\AppData\Local\Temp\ccZ8Xcmd.s:31275  .debug_str:000000000002a30e .LASF5112
C:\Users\CYMR90~1\AppData\Local\Temp\ccZ8Xcmd.s:22296  .debug_str:000000000000639d .LASF5113
C:\Users\CYMR90~1\AppData\Local\Temp\ccZ8Xcmd.s:31269  .debug_str:000000000002a2a5 .LASF5114
C:\Users\CYMR90~1\AppData\Local\Temp\ccZ8Xcmd.s:21430  .debug_str:0000000000002c82 .LASF5115
C:\Users\CYMR90~1\AppData\Local\Temp\ccZ8Xcmd.s:27373  .debug_str:000000000001acd0 .LASF5116
C:\Users\CYMR90~1\AppData\Local\Temp\ccZ8Xcmd.s:24516  .debug_str:000000000000f342 .LASF5117
C:\Users\CYMR90~1\AppData\Local\Temp\ccZ8Xcmd.s:25702  .debug_str:0000000000014006 .LASF5118
C:\Users\CYMR90~1\AppData\Local\Temp\ccZ8Xcmd.s:30911  .debug_str:0000000000028ca6 .LASF5119
C:\Users\CYMR90~1\AppData\Local\Temp\ccZ8Xcmd.s:22968  .debug_str:0000000000008fec .LASF5120
C:\Users\CYMR90~1\AppData\Local\Temp\ccZ8Xcmd.s:27877  .debug_str:000000000001cd28 .LASF5121
C:\Users\CYMR90~1\AppData\Local\Temp\ccZ8Xcmd.s:31317  .debug_str:000000000002a5f1 .LASF5122
C:\Users\CYMR90~1\AppData\Local\Temp\ccZ8Xcmd.s:21806  .debug_str:000000000000452e .LASF5123
C:\Users\CYMR90~1\AppData\Local\Temp\ccZ8Xcmd.s:30053  .debug_str:0000000000025553 .LASF5124
C:\Users\CYMR90~1\AppData\Local\Temp\ccZ8Xcmd.s:28545  .debug_str:000000000001f66c .LASF5125
C:\Users\CYMR90~1\AppData\Local\Temp\ccZ8Xcmd.s:27705  .debug_str:000000000001c16c .LASF5126
C:\Users\CYMR90~1\AppData\Local\Temp\ccZ8Xcmd.s:28675  .debug_str:000000000001feb1 .LASF5127
C:\Users\CYMR90~1\AppData\Local\Temp\ccZ8Xcmd.s:31931  .debug_str:000000000002ce40 .LASF5128
C:\Users\CYMR90~1\AppData\Local\Temp\ccZ8Xcmd.s:21550  .debug_str:000000000000346b .LASF5129
C:\Users\CYMR90~1\AppData\Local\Temp\ccZ8Xcmd.s:28285  .debug_str:000000000001e735 .LASF5130
C:\Users\CYMR90~1\AppData\Local\Temp\ccZ8Xcmd.s:29059  .debug_str:0000000000021684 .LASF5131
C:\Users\CYMR90~1\AppData\Local\Temp\ccZ8Xcmd.s:21126  .debug_str:0000000000001a0a .LASF5132
C:\Users\CYMR90~1\AppData\Local\Temp\ccZ8Xcmd.s:25346  .debug_str:0000000000012928 .LASF5133
C:\Users\CYMR90~1\AppData\Local\Temp\ccZ8Xcmd.s:21476  .debug_str:0000000000002f84 .LASF5134
C:\Users\CYMR90~1\AppData\Local\Temp\ccZ8Xcmd.s:24856  .debug_str:00000000000108d2 .LASF5135
C:\Users\CYMR90~1\AppData\Local\Temp\ccZ8Xcmd.s:26753  .debug_str:000000000001830c .LASF5136
C:\Users\CYMR90~1\AppData\Local\Temp\ccZ8Xcmd.s:27333  .debug_str:000000000001aa85 .LASF5137
C:\Users\CYMR90~1\AppData\Local\Temp\ccZ8Xcmd.s:28681  .debug_str:000000000001ff12 .LASF5138
C:\Users\CYMR90~1\AppData\Local\Temp\ccZ8Xcmd.s:31967  .debug_str:000000000002d05a .LASF5139
C:\Users\CYMR90~1\AppData\Local\Temp\ccZ8Xcmd.s:25814  .debug_str:00000000000146c9 .LASF5140
C:\Users\CYMR90~1\AppData\Local\Temp\ccZ8Xcmd.s:27187  .debug_str:0000000000019f62 .LASF5141
C:\Users\CYMR90~1\AppData\Local\Temp\ccZ8Xcmd.s:22014  .debug_str:000000000000528d .LASF5142
C:\Users\CYMR90~1\AppData\Local\Temp\ccZ8Xcmd.s:29789  .debug_str:00000000000242d9 .LASF5143
C:\Users\CYMR90~1\AppData\Local\Temp\ccZ8Xcmd.s:30677  .debug_str:0000000000027d1c .LASF5144
C:\Users\CYMR90~1\AppData\Local\Temp\ccZ8Xcmd.s:22606  .debug_str:00000000000077b7 .LASF5145
C:\Users\CYMR90~1\AppData\Local\Temp\ccZ8Xcmd.s:31747  .debug_str:000000000002c1ea .LASF5146
C:\Users\CYMR90~1\AppData\Local\Temp\ccZ8Xcmd.s:24366  .debug_str:000000000000ea8b .LASF5147
C:\Users\CYMR90~1\AppData\Local\Temp\ccZ8Xcmd.s:26567  .debug_str:0000000000017820 .LASF5148
C:\Users\CYMR90~1\AppData\Local\Temp\ccZ8Xcmd.s:22714  .debug_str:0000000000007ffe .LASF5149
C:\Users\CYMR90~1\AppData\Local\Temp\ccZ8Xcmd.s:22312  .debug_str:000000000000648f .LASF5150
C:\Users\CYMR90~1\AppData\Local\Temp\ccZ8Xcmd.s:21918  .debug_str:0000000000004ccb .LASF5151
C:\Users\CYMR90~1\AppData\Local\Temp\ccZ8Xcmd.s:30497  .debug_str:00000000000271e3 .LASF5152
C:\Users\CYMR90~1\AppData\Local\Temp\ccZ8Xcmd.s:26695  .debug_str:0000000000017f87 .LASF5153
C:\Users\CYMR90~1\AppData\Local\Temp\ccZ8Xcmd.s:25286  .debug_str:000000000001250b .LASF5154
C:\Users\CYMR90~1\AppData\Local\Temp\ccZ8Xcmd.s:23808  .debug_str:000000000000c6a3 .LASF5155
C:\Users\CYMR90~1\AppData\Local\Temp\ccZ8Xcmd.s:28265  .debug_str:000000000001e5e5 .LASF5156
C:\Users\CYMR90~1\AppData\Local\Temp\ccZ8Xcmd.s:22966  .debug_str:0000000000008fbb .LASF5157
C:\Users\CYMR90~1\AppData\Local\Temp\ccZ8Xcmd.s:31473  .debug_str:000000000002af2d .LASF5158
C:\Users\CYMR90~1\AppData\Local\Temp\ccZ8Xcmd.s:28255  .debug_str:000000000001e509 .LASF5159
C:\Users\CYMR90~1\AppData\Local\Temp\ccZ8Xcmd.s:22810  .debug_str:00000000000085f0 .LASF5160
C:\Users\CYMR90~1\AppData\Local\Temp\ccZ8Xcmd.s:30585  .debug_str:00000000000276e0 .LASF5161
C:\Users\CYMR90~1\AppData\Local\Temp\ccZ8Xcmd.s:31973  .debug_str:000000000002d0b4 .LASF5162
C:\Users\CYMR90~1\AppData\Local\Temp\ccZ8Xcmd.s:28595  .debug_str:000000000001f9ab .LASF5163
C:\Users\CYMR90~1\AppData\Local\Temp\ccZ8Xcmd.s:30875  .debug_str:0000000000028aa9 .LASF5164
C:\Users\CYMR90~1\AppData\Local\Temp\ccZ8Xcmd.s:21410  .debug_str:0000000000002b3a .LASF5165
C:\Users\CYMR90~1\AppData\Local\Temp\ccZ8Xcmd.s:22234  .debug_str:0000000000006001 .LASF5166
C:\Users\CYMR90~1\AppData\Local\Temp\ccZ8Xcmd.s:27207  .debug_str:000000000001a079 .LASF5167
C:\Users\CYMR90~1\AppData\Local\Temp\ccZ8Xcmd.s:25898  .debug_str:0000000000014c22 .LASF5168
C:\Users\CYMR90~1\AppData\Local\Temp\ccZ8Xcmd.s:24652  .debug_str:000000000000fc38 .LASF5169
C:\Users\CYMR90~1\AppData\Local\Temp\ccZ8Xcmd.s:31335  .debug_str:000000000002a70a .LASF5170
C:\Users\CYMR90~1\AppData\Local\Temp\ccZ8Xcmd.s:27645  .debug_str:000000000001bdbe .LASF5171
C:\Users\CYMR90~1\AppData\Local\Temp\ccZ8Xcmd.s:29125  .debug_str:0000000000021a7f .LASF5172
C:\Users\CYMR90~1\AppData\Local\Temp\ccZ8Xcmd.s:28379  .debug_str:000000000001ec6e .LASF5173
C:\Users\CYMR90~1\AppData\Local\Temp\ccZ8Xcmd.s:23014  .debug_str:000000000000929e .LASF5174
C:\Users\CYMR90~1\AppData\Local\Temp\ccZ8Xcmd.s:20760  .debug_str:0000000000000375 .LASF5175
C:\Users\CYMR90~1\AppData\Local\Temp\ccZ8Xcmd.s:25074  .debug_str:0000000000011715 .LASF5176
C:\Users\CYMR90~1\AppData\Local\Temp\ccZ8Xcmd.s:21334  .debug_str:000000000000266c .LASF5177
C:\Users\CYMR90~1\AppData\Local\Temp\ccZ8Xcmd.s:28317  .debug_str:000000000001e8ee .LASF5178
C:\Users\CYMR90~1\AppData\Local\Temp\ccZ8Xcmd.s:25920  .debug_str:0000000000014db7 .LASF5179
C:\Users\CYMR90~1\AppData\Local\Temp\ccZ8Xcmd.s:20702  .debug_str:0000000000000000 .LASF5180
C:\Users\CYMR90~1\AppData\Local\Temp\ccZ8Xcmd.s:24608  .debug_str:000000000000f957 .LASF5181
C:\Users\CYMR90~1\AppData\Local\Temp\ccZ8Xcmd.s:31025  .debug_str:000000000002944e .LASF5182
C:\Users\CYMR90~1\AppData\Local\Temp\ccZ8Xcmd.s:29869  .debug_str:0000000000024862 .LASF5183
C:\Users\CYMR90~1\AppData\Local\Temp\ccZ8Xcmd.s:30645  .debug_str:0000000000027af2 .LASF5184
C:\Users\CYMR90~1\AppData\Local\Temp\ccZ8Xcmd.s:22018  .debug_str:00000000000052d7 .LASF5185
C:\Users\CYMR90~1\AppData\Local\Temp\ccZ8Xcmd.s:26352  .debug_str:00000000000168d6 .LASF5186
C:\Users\CYMR90~1\AppData\Local\Temp\ccZ8Xcmd.s:28629  .debug_str:000000000001fbce .LASF5187
C:\Users\CYMR90~1\AppData\Local\Temp\ccZ8Xcmd.s:27299  .debug_str:000000000001a82f .LASF5188
C:\Users\CYMR90~1\AppData\Local\Temp\ccZ8Xcmd.s:31957  .debug_str:000000000002cfab .LASF5189
C:\Users\CYMR90~1\AppData\Local\Temp\ccZ8Xcmd.s:26479  .debug_str:0000000000017279 .LASF5190
C:\Users\CYMR90~1\AppData\Local\Temp\ccZ8Xcmd.s:22202  .debug_str:0000000000005dd1 .LASF5191
C:\Users\CYMR90~1\AppData\Local\Temp\ccZ8Xcmd.s:24476  .debug_str:000000000000f0d2 .LASF5192
C:\Users\CYMR90~1\AppData\Local\Temp\ccZ8Xcmd.s:25182  .debug_str:0000000000011e48 .LASF5193
C:\Users\CYMR90~1\AppData\Local\Temp\ccZ8Xcmd.s:29231  .debug_str:00000000000220c6 .LASF5194
C:\Users\CYMR90~1\AppData\Local\Temp\ccZ8Xcmd.s:29137  .debug_str:0000000000021b26 .LASF5195
C:\Users\CYMR90~1\AppData\Local\Temp\ccZ8Xcmd.s:30041  .debug_str:0000000000025454 .LASF5196
C:\Users\CYMR90~1\AppData\Local\Temp\ccZ8Xcmd.s:30833  .debug_str:000000000002881f .LASF5197
C:\Users\CYMR90~1\AppData\Local\Temp\ccZ8Xcmd.s:30285  .debug_str:0000000000026406 .LASF5198
C:\Users\CYMR90~1\AppData\Local\Temp\ccZ8Xcmd.s:24988  .debug_str:00000000000110dd .LASF5199
C:\Users\CYMR90~1\AppData\Local\Temp\ccZ8Xcmd.s:23898  .debug_str:000000000000cce9 .LASF5200
C:\Users\CYMR90~1\AppData\Local\Temp\ccZ8Xcmd.s:28791  .debug_str:00000000000205f5 .LASF5201
C:\Users\CYMR90~1\AppData\Local\Temp\ccZ8Xcmd.s:24554  .debug_str:000000000000f60e .LASF5202
C:\Users\CYMR90~1\AppData\Local\Temp\ccZ8Xcmd.s:23864  .debug_str:000000000000cb24 .LASF5203
C:\Users\CYMR90~1\AppData\Local\Temp\ccZ8Xcmd.s:30261  .debug_str:0000000000026282 .LASF5204
C:\Users\CYMR90~1\AppData\Local\Temp\ccZ8Xcmd.s:25452  .debug_str:000000000001300c .LASF5205
C:\Users\CYMR90~1\AppData\Local\Temp\ccZ8Xcmd.s:23678  .debug_str:000000000000be2f .LASF5206
C:\Users\CYMR90~1\AppData\Local\Temp\ccZ8Xcmd.s:21594  .debug_str:000000000000375e .LASF5207
C:\Users\CYMR90~1\AppData\Local\Temp\ccZ8Xcmd.s:22504  .debug_str:000000000000715d .LASF5208
C:\Users\CYMR90~1\AppData\Local\Temp\ccZ8Xcmd.s:24558  .debug_str:000000000000f65d .LASF5209
C:\Users\CYMR90~1\AppData\Local\Temp\ccZ8Xcmd.s:22078  .debug_str:000000000000564a .LASF5210
C:\Users\CYMR90~1\AppData\Local\Temp\ccZ8Xcmd.s:30709  .debug_str:0000000000027f85 .LASF5211
C:\Users\CYMR90~1\AppData\Local\Temp\ccZ8Xcmd.s:25238  .debug_str:00000000000121fd .LASF5212
C:\Users\CYMR90~1\AppData\Local\Temp\ccZ8Xcmd.s:21424  .debug_str:0000000000002c26 .LASF5213
C:\Users\CYMR90~1\AppData\Local\Temp\ccZ8Xcmd.s:30117  .debug_str:00000000000259ff .LASF5214
C:\Users\CYMR90~1\AppData\Local\Temp\ccZ8Xcmd.s:30509  .debug_str:00000000000272b8 .LASF5215
C:\Users\CYMR90~1\AppData\Local\Temp\ccZ8Xcmd.s:25004  .debug_str:00000000000111bd .LASF5216
C:\Users\CYMR90~1\AppData\Local\Temp\ccZ8Xcmd.s:26188  .debug_str:0000000000015e0e .LASF5217
C:\Users\CYMR90~1\AppData\Local\Temp\ccZ8Xcmd.s:29513  .debug_str:00000000000230ea .LASF5218
C:\Users\CYMR90~1\AppData\Local\Temp\ccZ8Xcmd.s:28247  .debug_str:000000000001e489 .LASF5219
C:\Users\CYMR90~1\AppData\Local\Temp\ccZ8Xcmd.s:29155  .debug_str:0000000000021c62 .LASF5220
C:\Users\CYMR90~1\AppData\Local\Temp\ccZ8Xcmd.s:31979  .debug_str:000000000002d110 .LASF5221
C:\Users\CYMR90~1\AppData\Local\Temp\ccZ8Xcmd.s:29337  .debug_str:00000000000226c9 .LASF5222
C:\Users\CYMR90~1\AppData\Local\Temp\ccZ8Xcmd.s:21072  .debug_str:00000000000016e9 .LASF5223
C:\Users\CYMR90~1\AppData\Local\Temp\ccZ8Xcmd.s:22590  .debug_str:00000000000076ab .LASF5224
C:\Users\CYMR90~1\AppData\Local\Temp\ccZ8Xcmd.s:21954  .debug_str:0000000000004ef5 .LASF5225
C:\Users\CYMR90~1\AppData\Local\Temp\ccZ8Xcmd.s:29367  .debug_str:000000000002287b .LASF5226
C:\Users\CYMR90~1\AppData\Local\Temp\ccZ8Xcmd.s:25296  .debug_str:00000000000125ae .LASF5227
C:\Users\CYMR90~1\AppData\Local\Temp\ccZ8Xcmd.s:29841  .debug_str:0000000000024629 .LASF5228
C:\Users\CYMR90~1\AppData\Local\Temp\ccZ8Xcmd.s:31163  .debug_str:0000000000029caf .LASF5229
C:\Users\CYMR90~1\AppData\Local\Temp\ccZ8Xcmd.s:29425  .debug_str:0000000000022c3a .LASF5230
C:\Users\CYMR90~1\AppData\Local\Temp\ccZ8Xcmd.s:30083  .debug_str:00000000000257e8 .LASF5231
C:\Users\CYMR90~1\AppData\Local\Temp\ccZ8Xcmd.s:30131  .debug_str:0000000000025acd .LASF5232
C:\Users\CYMR90~1\AppData\Local\Temp\ccZ8Xcmd.s:28905  .debug_str:0000000000020cf5 .LASF5233
C:\Users\CYMR90~1\AppData\Local\Temp\ccZ8Xcmd.s:24648  .debug_str:000000000000fbf2 .LASF5234
C:\Users\CYMR90~1\AppData\Local\Temp\ccZ8Xcmd.s:24824  .debug_str:00000000000106b8 .LASF5235
C:\Users\CYMR90~1\AppData\Local\Temp\ccZ8Xcmd.s:29963  .debug_str:0000000000024e47 .LASF5236
C:\Users\CYMR90~1\AppData\Local\Temp\ccZ8Xcmd.s:23354  .debug_str:000000000000a7fa .LASF5237
C:\Users\CYMR90~1\AppData\Local\Temp\ccZ8Xcmd.s:24858  .debug_str:00000000000108f1 .LASF5238
C:\Users\CYMR90~1\AppData\Local\Temp\ccZ8Xcmd.s:30247  .debug_str:00000000000261b7 .LASF5239
C:\Users\CYMR90~1\AppData\Local\Temp\ccZ8Xcmd.s:22882  .debug_str:0000000000008a83 .LASF5240
C:\Users\CYMR90~1\AppData\Local\Temp\ccZ8Xcmd.s:23462  .debug_str:000000000000afa3 .LASF5241
C:\Users\CYMR90~1\AppData\Local\Temp\ccZ8Xcmd.s:30139  .debug_str:0000000000025b3e .LASF5242
C:\Users\CYMR90~1\AppData\Local\Temp\ccZ8Xcmd.s:20974  .debug_str:00000000000010b3 .LASF5243
C:\Users\CYMR90~1\AppData\Local\Temp\ccZ8Xcmd.s:26264  .debug_str:00000000000162b3 .LASF5244
C:\Users\CYMR90~1\AppData\Local\Temp\ccZ8Xcmd.s:28333  .debug_str:000000000001e9d6 .LASF5245
C:\Users\CYMR90~1\AppData\Local\Temp\ccZ8Xcmd.s:30631  .debug_str:0000000000027a05 .LASF5246
C:\Users\CYMR90~1\AppData\Local\Temp\ccZ8Xcmd.s:24314  .debug_str:000000000000e741 .LASF5247
C:\Users\CYMR90~1\AppData\Local\Temp\ccZ8Xcmd.s:30663  .debug_str:0000000000027c42 .LASF5248
C:\Users\CYMR90~1\AppData\Local\Temp\ccZ8Xcmd.s:28269  .debug_str:000000000001e639 .LASF5249
C:\Users\CYMR90~1\AppData\Local\Temp\ccZ8Xcmd.s:25058  .debug_str:0000000000011552 .LASF5250
C:\Users\CYMR90~1\AppData\Local\Temp\ccZ8Xcmd.s:28583  .debug_str:000000000001f8d4 .LASF5251
C:\Users\CYMR90~1\AppData\Local\Temp\ccZ8Xcmd.s:21936  .debug_str:0000000000004de6 .LASF5252
C:\Users\CYMR90~1\AppData\Local\Temp\ccZ8Xcmd.s:25590  .debug_str:000000000001392f .LASF5253
C:\Users\CYMR90~1\AppData\Local\Temp\ccZ8Xcmd.s:28623  .debug_str:000000000001fb37 .LASF5254
C:\Users\CYMR90~1\AppData\Local\Temp\ccZ8Xcmd.s:24172  .debug_str:000000000000de4d .LASF5255
C:\Users\CYMR90~1\AppData\Local\Temp\ccZ8Xcmd.s:27837  .debug_str:000000000001c9fa .LASF5256
C:\Users\CYMR90~1\AppData\Local\Temp\ccZ8Xcmd.s:24294  .debug_str:000000000000e5fb .LASF5257
C:\Users\CYMR90~1\AppData\Local\Temp\ccZ8Xcmd.s:31059  .debug_str:0000000000029679 .LASF5258
C:\Users\CYMR90~1\AppData\Local\Temp\ccZ8Xcmd.s:31825  .debug_str:000000000002c6e2 .LASF5259
C:\Users\CYMR90~1\AppData\Local\Temp\ccZ8Xcmd.s:24324  .debug_str:000000000000e7b5 .LASF5260
C:\Users\CYMR90~1\AppData\Local\Temp\ccZ8Xcmd.s:21050  .debug_str:00000000000014da .LASF5261
C:\Users\CYMR90~1\AppData\Local\Temp\ccZ8Xcmd.s:27453  .debug_str:000000000001b245 .LASF5262
C:\Users\CYMR90~1\AppData\Local\Temp\ccZ8Xcmd.s:30461  .debug_str:0000000000026ef6 .LASF5263
C:\Users\CYMR90~1\AppData\Local\Temp\ccZ8Xcmd.s:27341  .debug_str:000000000001aae4 .LASF5264
C:\Users\CYMR90~1\AppData\Local\Temp\ccZ8Xcmd.s:28325  .debug_str:000000000001e966 .LASF5265
C:\Users\CYMR90~1\AppData\Local\Temp\ccZ8Xcmd.s:20904  .debug_str:0000000000000c1e .LASF5266
C:\Users\CYMR90~1\AppData\Local\Temp\ccZ8Xcmd.s:28923  .debug_str:0000000000020ddc .LASF5267
C:\Users\CYMR90~1\AppData\Local\Temp\ccZ8Xcmd.s:23812  .debug_str:000000000000c717 .LASF5268
C:\Users\CYMR90~1\AppData\Local\Temp\ccZ8Xcmd.s:26126  .debug_str:00000000000159d5 .LASF5269
C:\Users\CYMR90~1\AppData\Local\Temp\ccZ8Xcmd.s:24580  .debug_str:000000000000f7c8 .LASF5270
C:\Users\CYMR90~1\AppData\Local\Temp\ccZ8Xcmd.s:26749  .debug_str:00000000000182dc .LASF5271
C:\Users\CYMR90~1\AppData\Local\Temp\ccZ8Xcmd.s:31325  .debug_str:000000000002a674 .LASF5272
C:\Users\CYMR90~1\AppData\Local\Temp\ccZ8Xcmd.s:25520  .debug_str:0000000000013507 .LASF5273
C:\Users\CYMR90~1\AppData\Local\Temp\ccZ8Xcmd.s:28513  .debug_str:000000000001f4b5 .LASF5274
C:\Users\CYMR90~1\AppData\Local\Temp\ccZ8Xcmd.s:22568  .debug_str:0000000000007553 .LASF5275
C:\Users\CYMR90~1\AppData\Local\Temp\ccZ8Xcmd.s:29999  .debug_str:000000000002518d .LASF5276
C:\Users\CYMR90~1\AppData\Local\Temp\ccZ8Xcmd.s:22444  .debug_str:0000000000006d12 .LASF5277
C:\Users\CYMR90~1\AppData\Local\Temp\ccZ8Xcmd.s:30543  .debug_str:000000000002748d .LASF5278
C:\Users\CYMR90~1\AppData\Local\Temp\ccZ8Xcmd.s:31037  .debug_str:00000000000294e5 .LASF5279
C:\Users\CYMR90~1\AppData\Local\Temp\ccZ8Xcmd.s:29255  .debug_str:0000000000022221 .LASF5280
C:\Users\CYMR90~1\AppData\Local\Temp\ccZ8Xcmd.s:26038  .debug_str:0000000000015490 .LASF5281
C:\Users\CYMR90~1\AppData\Local\Temp\ccZ8Xcmd.s:22888  .debug_str:0000000000008aca .LASF5282
C:\Users\CYMR90~1\AppData\Local\Temp\ccZ8Xcmd.s:21504  .debug_str:0000000000003172 .LASF5283
C:\Users\CYMR90~1\AppData\Local\Temp\ccZ8Xcmd.s:31735  .debug_str:000000000002c113 .LASF5284
C:\Users\CYMR90~1\AppData\Local\Temp\ccZ8Xcmd.s:23072  .debug_str:0000000000009641 .LASF5285
C:\Users\CYMR90~1\AppData\Local\Temp\ccZ8Xcmd.s:22892  .debug_str:0000000000008af1 .LASF5286
C:\Users\CYMR90~1\AppData\Local\Temp\ccZ8Xcmd.s:31233  .debug_str:000000000002a0bf .LASF5287
C:\Users\CYMR90~1\AppData\Local\Temp\ccZ8Xcmd.s:24414  .debug_str:000000000000ed04 .LASF5288
C:\Users\CYMR90~1\AppData\Local\Temp\ccZ8Xcmd.s:30923  .debug_str:0000000000028d95 .LASF5289
C:\Users\CYMR90~1\AppData\Local\Temp\ccZ8Xcmd.s:23012  .debug_str:0000000000009286 .LASF5290
C:\Users\CYMR90~1\AppData\Local\Temp\ccZ8Xcmd.s:31625  .debug_str:000000000002b987 .LASF5291
C:\Users\CYMR90~1\AppData\Local\Temp\ccZ8Xcmd.s:30205  .debug_str:0000000000025f46 .LASF5292
C:\Users\CYMR90~1\AppData\Local\Temp\ccZ8Xcmd.s:24562  .debug_str:000000000000f6b3 .LASF5293
C:\Users\CYMR90~1\AppData\Local\Temp\ccZ8Xcmd.s:21790  .debug_str:0000000000004424 .LASF5294
C:\Users\CYMR90~1\AppData\Local\Temp\ccZ8Xcmd.s:27301  .debug_str:000000000001a856 .LASF5295
C:\Users\CYMR90~1\AppData\Local\Temp\ccZ8Xcmd.s:29957  .debug_str:0000000000024dfc .LASF5296
C:\Users\CYMR90~1\AppData\Local\Temp\ccZ8Xcmd.s:24500  .debug_str:000000000000f26c .LASF5297
C:\Users\CYMR90~1\AppData\Local\Temp\ccZ8Xcmd.s:20808  .debug_str:0000000000000612 .LASF5298
C:\Users\CYMR90~1\AppData\Local\Temp\ccZ8Xcmd.s:20762  .debug_str:000000000000039f .LASF5299
C:\Users\CYMR90~1\AppData\Local\Temp\ccZ8Xcmd.s:21096  .debug_str:000000000000186d .LASF5300
C:\Users\CYMR90~1\AppData\Local\Temp\ccZ8Xcmd.s:29597  .debug_str:0000000000023689 .LASF5301
C:\Users\CYMR90~1\AppData\Local\Temp\ccZ8Xcmd.s:30257  .debug_str:0000000000026241 .LASF5302
C:\Users\CYMR90~1\AppData\Local\Temp\ccZ8Xcmd.s:25398  .debug_str:0000000000012c65 .LASF5303
C:\Users\CYMR90~1\AppData\Local\Temp\ccZ8Xcmd.s:27335  .debug_str:000000000001aaa9 .LASF5304
C:\Users\CYMR90~1\AppData\Local\Temp\ccZ8Xcmd.s:21378  .debug_str:0000000000002935 .LASF5305
C:\Users\CYMR90~1\AppData\Local\Temp\ccZ8Xcmd.s:26136  .debug_str:0000000000015aba .LASF5306
C:\Users\CYMR90~1\AppData\Local\Temp\ccZ8Xcmd.s:28711  .debug_str:00000000000200b9 .LASF5307
C:\Users\CYMR90~1\AppData\Local\Temp\ccZ8Xcmd.s:28025  .debug_str:000000000001d70d .LASF5308
C:\Users\CYMR90~1\AppData\Local\Temp\ccZ8Xcmd.s:22796  .debug_str:0000000000008519 .LASF5309
C:\Users\CYMR90~1\AppData\Local\Temp\ccZ8Xcmd.s:29393  .debug_str:0000000000022a6f .LASF5310
C:\Users\CYMR90~1\AppData\Local\Temp\ccZ8Xcmd.s:28687  .debug_str:000000000001ff5e .LASF5311
C:\Users\CYMR90~1\AppData\Local\Temp\ccZ8Xcmd.s:22808  .debug_str:00000000000085d9 .LASF5312
C:\Users\CYMR90~1\AppData\Local\Temp\ccZ8Xcmd.s:22258  .debug_str:0000000000006172 .LASF5313
C:\Users\CYMR90~1\AppData\Local\Temp\ccZ8Xcmd.s:29349  .debug_str:0000000000022798 .LASF5314
C:\Users\CYMR90~1\AppData\Local\Temp\ccZ8Xcmd.s:31111  .debug_str:000000000002998f .LASF5315
C:\Users\CYMR90~1\AppData\Local\Temp\ccZ8Xcmd.s:26927  .debug_str:0000000000018e5f .LASF5316
C:\Users\CYMR90~1\AppData\Local\Temp\ccZ8Xcmd.s:23716  .debug_str:000000000000c0a5 .LASF5317
C:\Users\CYMR90~1\AppData\Local\Temp\ccZ8Xcmd.s:28413  .debug_str:000000000001ee98 .LASF5318
C:\Users\CYMR90~1\AppData\Local\Temp\ccZ8Xcmd.s:23532  .debug_str:000000000000b41d .LASF5319
C:\Users\CYMR90~1\AppData\Local\Temp\ccZ8Xcmd.s:28797  .debug_str:0000000000020663 .LASF5320
C:\Users\CYMR90~1\AppData\Local\Temp\ccZ8Xcmd.s:25596  .debug_str:00000000000139a5 .LASF5321
C:\Users\CYMR90~1\AppData\Local\Temp\ccZ8Xcmd.s:31063  .debug_str:00000000000296cf .LASF5322
C:\Users\CYMR90~1\AppData\Local\Temp\ccZ8Xcmd.s:24740  .debug_str:00000000000101bb .LASF5323
C:\Users\CYMR90~1\AppData\Local\Temp\ccZ8Xcmd.s:23964  .debug_str:000000000000d18e .LASF5324
C:\Users\CYMR90~1\AppData\Local\Temp\ccZ8Xcmd.s:28423  .debug_str:000000000001ef51 .LASF5325
C:\Users\CYMR90~1\AppData\Local\Temp\ccZ8Xcmd.s:31651  .debug_str:000000000002bb3b .LASF5326
C:\Users\CYMR90~1\AppData\Local\Temp\ccZ8Xcmd.s:29373  .debug_str:0000000000022967 .LASF5327
C:\Users\CYMR90~1\AppData\Local\Temp\ccZ8Xcmd.s:29525  .debug_str:00000000000231b8 .LASF5328
C:\Users\CYMR90~1\AppData\Local\Temp\ccZ8Xcmd.s:23506  .debug_str:000000000000b1f0 .LASF5329
C:\Users\CYMR90~1\AppData\Local\Temp\ccZ8Xcmd.s:29649  .debug_str:0000000000023980 .LASF5330
C:\Users\CYMR90~1\AppData\Local\Temp\ccZ8Xcmd.s:29259  .debug_str:0000000000022252 .LASF5331
C:\Users\CYMR90~1\AppData\Local\Temp\ccZ8Xcmd.s:27175  .debug_str:0000000000019ec0 .LASF5332
C:\Users\CYMR90~1\AppData\Local\Temp\ccZ8Xcmd.s:26709  .debug_str:000000000001807e .LASF5333
C:\Users\CYMR90~1\AppData\Local\Temp\ccZ8Xcmd.s:29127  .debug_str:0000000000021aa5 .LASF5334
C:\Users\CYMR90~1\AppData\Local\Temp\ccZ8Xcmd.s:31621  .debug_str:000000000002b92d .LASF5335
C:\Users\CYMR90~1\AppData\Local\Temp\ccZ8Xcmd.s:22640  .debug_str:0000000000007a05 .LASF5336
C:\Users\CYMR90~1\AppData\Local\Temp\ccZ8Xcmd.s:22090  .debug_str:0000000000005720 .LASF5337
C:\Users\CYMR90~1\AppData\Local\Temp\ccZ8Xcmd.s:22394  .debug_str:00000000000069c9 .LASF5338
C:\Users\CYMR90~1\AppData\Local\Temp\ccZ8Xcmd.s:23852  .debug_str:000000000000ca6d .LASF5339
C:\Users\CYMR90~1\AppData\Local\Temp\ccZ8Xcmd.s:25204  .debug_str:0000000000011fe7 .LASF5340
C:\Users\CYMR90~1\AppData\Local\Temp\ccZ8Xcmd.s:23606  .debug_str:000000000000b8ef .LASF5341
C:\Users\CYMR90~1\AppData\Local\Temp\ccZ8Xcmd.s:30653  .debug_str:0000000000027bbc .LASF5342
C:\Users\CYMR90~1\AppData\Local\Temp\ccZ8Xcmd.s:30239  .debug_str:0000000000026144 .LASF5343
C:\Users\CYMR90~1\AppData\Local\Temp\ccZ8Xcmd.s:25950  .debug_str:0000000000014f8d .LASF5344
C:\Users\CYMR90~1\AppData\Local\Temp\ccZ8Xcmd.s:28579  .debug_str:000000000001f8ac .LASF5345
C:\Users\CYMR90~1\AppData\Local\Temp\ccZ8Xcmd.s:25510  .debug_str:000000000001346c .LASF5346
C:\Users\CYMR90~1\AppData\Local\Temp\ccZ8Xcmd.s:31803  .debug_str:000000000002c5cb .LASF5347
C:\Users\CYMR90~1\AppData\Local\Temp\ccZ8Xcmd.s:28069  .debug_str:000000000001d977 .LASF5348
C:\Users\CYMR90~1\AppData\Local\Temp\ccZ8Xcmd.s:27863  .debug_str:000000000001cc5b .LASF5349
C:\Users\CYMR90~1\AppData\Local\Temp\ccZ8Xcmd.s:28973  .debug_str:00000000000210a9 .LASF5350
C:\Users\CYMR90~1\AppData\Local\Temp\ccZ8Xcmd.s:23928  .debug_str:000000000000cf03 .LASF5351
C:\Users\CYMR90~1\AppData\Local\Temp\ccZ8Xcmd.s:28015  .debug_str:000000000001d65e .LASF5352
C:\Users\CYMR90~1\AppData\Local\Temp\ccZ8Xcmd.s:26591  .debug_str:00000000000179b1 .LASF5353
C:\Users\CYMR90~1\AppData\Local\Temp\ccZ8Xcmd.s:25756  .debug_str:0000000000014319 .LASF5354
C:\Users\CYMR90~1\AppData\Local\Temp\ccZ8Xcmd.s:21448  .debug_str:0000000000002d97 .LASF5355
C:\Users\CYMR90~1\AppData\Local\Temp\ccZ8Xcmd.s:26647  .debug_str:0000000000017cf1 .LASF5356
C:\Users\CYMR90~1\AppData\Local\Temp\ccZ8Xcmd.s:23990  .debug_str:000000000000d39c .LASF5357
C:\Users\CYMR90~1\AppData\Local\Temp\ccZ8Xcmd.s:25624  .debug_str:0000000000013b6e .LASF5358
C:\Users\CYMR90~1\AppData\Local\Temp\ccZ8Xcmd.s:21376  .debug_str:0000000000002919 .LASF5359
C:\Users\CYMR90~1\AppData\Local\Temp\ccZ8Xcmd.s:23190  .debug_str:0000000000009e14 .LASF5360
C:\Users\CYMR90~1\AppData\Local\Temp\ccZ8Xcmd.s:29979  .debug_str:0000000000024fbd .LASF5361
C:\Users\CYMR90~1\AppData\Local\Temp\ccZ8Xcmd.s:27931  .debug_str:000000000001d11f .LASF5362
C:\Users\CYMR90~1\AppData\Local\Temp\ccZ8Xcmd.s:31885  .debug_str:000000000002cb25 .LASF5363
C:\Users\CYMR90~1\AppData\Local\Temp\ccZ8Xcmd.s:26142  .debug_str:0000000000015ae7 .LASF5364
C:\Users\CYMR90~1\AppData\Local\Temp\ccZ8Xcmd.s:23220  .debug_str:0000000000009fe4 .LASF5365
C:\Users\CYMR90~1\AppData\Local\Temp\ccZ8Xcmd.s:24026  .debug_str:000000000000d5d9 .LASF5366
C:\Users\CYMR90~1\AppData\Local\Temp\ccZ8Xcmd.s:28699  .debug_str:000000000001ffef .LASF5367
C:\Users\CYMR90~1\AppData\Local\Temp\ccZ8Xcmd.s:30077  .debug_str:0000000000025777 .LASF5368
C:\Users\CYMR90~1\AppData\Local\Temp\ccZ8Xcmd.s:20798  .debug_str:0000000000000564 .LASF5369
C:\Users\CYMR90~1\AppData\Local\Temp\ccZ8Xcmd.s:23250  .debug_str:000000000000a1b3 .LASF5370
C:\Users\CYMR90~1\AppData\Local\Temp\ccZ8Xcmd.s:27389  .debug_str:000000000001ae0c .LASF5371
C:\Users\CYMR90~1\AppData\Local\Temp\ccZ8Xcmd.s:21622  .debug_str:000000000000393d .LASF5372
C:\Users\CYMR90~1\AppData\Local\Temp\ccZ8Xcmd.s:26869  .debug_str:0000000000018a3e .LASF5373
C:\Users\CYMR90~1\AppData\Local\Temp\ccZ8Xcmd.s:23798  .debug_str:000000000000c5c4 .LASF5374
C:\Users\CYMR90~1\AppData\Local\Temp\ccZ8Xcmd.s:23930  .debug_str:000000000000cf1b .LASF5375
C:\Users\CYMR90~1\AppData\Local\Temp\ccZ8Xcmd.s:25008  .debug_str:0000000000011201 .LASF5376
C:\Users\CYMR90~1\AppData\Local\Temp\ccZ8Xcmd.s:28061  .debug_str:000000000001d8f3 .LASF5377
C:\Users\CYMR90~1\AppData\Local\Temp\ccZ8Xcmd.s:22982  .debug_str:00000000000090d3 .LASF5378
C:\Users\CYMR90~1\AppData\Local\Temp\ccZ8Xcmd.s:23046  .debug_str:00000000000094d9 .LASF5379
C:\Users\CYMR90~1\AppData\Local\Temp\ccZ8Xcmd.s:27935  .debug_str:000000000001d14e .LASF5380
C:\Users\CYMR90~1\AppData\Local\Temp\ccZ8Xcmd.s:26525  .debug_str:0000000000017536 .LASF5381
C:\Users\CYMR90~1\AppData\Local\Temp\ccZ8Xcmd.s:21900  .debug_str:0000000000004bac .LASF5382
C:\Users\CYMR90~1\AppData\Local\Temp\ccZ8Xcmd.s:20712  .debug_str:00000000000000cf .LASF5383
C:\Users\CYMR90~1\AppData\Local\Temp\ccZ8Xcmd.s:28661  .debug_str:000000000001fde2 .LASF5384
C:\Users\CYMR90~1\AppData\Local\Temp\ccZ8Xcmd.s:31933  .debug_str:000000000002ce69 .LASF5385
C:\Users\CYMR90~1\AppData\Local\Temp\ccZ8Xcmd.s:29335  .debug_str:00000000000226a7 .LASF5386
C:\Users\CYMR90~1\AppData\Local\Temp\ccZ8Xcmd.s:22142  .debug_str:0000000000005a4a .LASF5387
C:\Users\CYMR90~1\AppData\Local\Temp\ccZ8Xcmd.s:21314  .debug_str:00000000000024e9 .LASF5388
C:\Users\CYMR90~1\AppData\Local\Temp\ccZ8Xcmd.s:28895  .debug_str:0000000000020c58 .LASF5389
C:\Users\CYMR90~1\AppData\Local\Temp\ccZ8Xcmd.s:30779  .debug_str:0000000000028494 .LASF5390
C:\Users\CYMR90~1\AppData\Local\Temp\ccZ8Xcmd.s:20800  .debug_str:000000000000057e .LASF5391
C:\Users\CYMR90~1\AppData\Local\Temp\ccZ8Xcmd.s:25232  .debug_str:000000000001217f .LASF5392
C:\Users\CYMR90~1\AppData\Local\Temp\ccZ8Xcmd.s:25652  .debug_str:0000000000013cfa .LASF5393
C:\Users\CYMR90~1\AppData\Local\Temp\ccZ8Xcmd.s:25202  .debug_str:0000000000011fce .LASF5394
C:\Users\CYMR90~1\AppData\Local\Temp\ccZ8Xcmd.s:22264  .debug_str:00000000000061d4 .LASF5395
C:\Users\CYMR90~1\AppData\Local\Temp\ccZ8Xcmd.s:28399  .debug_str:000000000001edb1 .LASF5396
C:\Users\CYMR90~1\AppData\Local\Temp\ccZ8Xcmd.s:26539  .debug_str:000000000001763b .LASF5397
C:\Users\CYMR90~1\AppData\Local\Temp\ccZ8Xcmd.s:21054  .debug_str:0000000000001520 .LASF5398
C:\Users\CYMR90~1\AppData\Local\Temp\ccZ8Xcmd.s:28615  .debug_str:000000000001fada .LASF5399
C:\Users\CYMR90~1\AppData\Local\Temp\ccZ8Xcmd.s:21392  .debug_str:0000000000002a2e .LASF5400
C:\Users\CYMR90~1\AppData\Local\Temp\ccZ8Xcmd.s:29545  .debug_str:00000000000232e1 .LASF5401
C:\Users\CYMR90~1\AppData\Local\Temp\ccZ8Xcmd.s:21014  .debug_str:00000000000012cd .LASF5402
C:\Users\CYMR90~1\AppData\Local\Temp\ccZ8Xcmd.s:30401  .debug_str:0000000000026b32 .LASF5403
C:\Users\CYMR90~1\AppData\Local\Temp\ccZ8Xcmd.s:26198  .debug_str:0000000000015ec4 .LASF5404
C:\Users\CYMR90~1\AppData\Local\Temp\ccZ8Xcmd.s:21614  .debug_str:0000000000003896 .LASF5405
C:\Users\CYMR90~1\AppData\Local\Temp\ccZ8Xcmd.s:23470  .debug_str:000000000000b00f .LASF5406
C:\Users\CYMR90~1\AppData\Local\Temp\ccZ8Xcmd.s:29697  .debug_str:0000000000023c2b .LASF5407
C:\Users\CYMR90~1\AppData\Local\Temp\ccZ8Xcmd.s:22168  .debug_str:0000000000005beb .LASF5408
C:\Users\CYMR90~1\AppData\Local\Temp\ccZ8Xcmd.s:30553  .debug_str:000000000002751e .LASF5409
C:\Users\CYMR90~1\AppData\Local\Temp\ccZ8Xcmd.s:22738  .debug_str:000000000000818c .LASF5410
C:\Users\CYMR90~1\AppData\Local\Temp\ccZ8Xcmd.s:31519  .debug_str:000000000002b258 .LASF5411
C:\Users\CYMR90~1\AppData\Local\Temp\ccZ8Xcmd.s:28691  .debug_str:000000000001ff89 .LASF5412
C:\Users\CYMR90~1\AppData\Local\Temp\ccZ8Xcmd.s:27017  .debug_str:0000000000019484 .LASF5413
C:\Users\CYMR90~1\AppData\Local\Temp\ccZ8Xcmd.s:20938  .debug_str:0000000000000e99 .LASF5414
C:\Users\CYMR90~1\AppData\Local\Temp\ccZ8Xcmd.s:28527  .debug_str:000000000001f58a .LASF5415
C:\Users\CYMR90~1\AppData\Local\Temp\ccZ8Xcmd.s:22116  .debug_str:00000000000058b3 .LASF5416
C:\Users\CYMR90~1\AppData\Local\Temp\ccZ8Xcmd.s:31489  .debug_str:000000000002b038 .LASF5417
C:\Users\CYMR90~1\AppData\Local\Temp\ccZ8Xcmd.s:26262  .debug_str:0000000000016296 .LASF5418
C:\Users\CYMR90~1\AppData\Local\Temp\ccZ8Xcmd.s:26056  .debug_str:000000000001559e .LASF5419
C:\Users\CYMR90~1\AppData\Local\Temp\ccZ8Xcmd.s:27085  .debug_str:000000000001997c .LASF5420
C:\Users\CYMR90~1\AppData\Local\Temp\ccZ8Xcmd.s:30303  .debug_str:0000000000026536 .LASF5421
C:\Users\CYMR90~1\AppData\Local\Temp\ccZ8Xcmd.s:29861  .debug_str:0000000000024801 .LASF5422
C:\Users\CYMR90~1\AppData\Local\Temp\ccZ8Xcmd.s:31467  .debug_str:000000000002aee3 .LASF5423
C:\Users\CYMR90~1\AppData\Local\Temp\ccZ8Xcmd.s:21662  .debug_str:0000000000003ba0 .LASF5424
C:\Users\CYMR90~1\AppData\Local\Temp\ccZ8Xcmd.s:28319  .debug_str:000000000001e91a .LASF5425
C:\Users\CYMR90~1\AppData\Local\Temp\ccZ8Xcmd.s:27599  .debug_str:000000000001badd .LASF5426
C:\Users\CYMR90~1\AppData\Local\Temp\ccZ8Xcmd.s:25424  .debug_str:0000000000012e19 .LASF5427
C:\Users\CYMR90~1\AppData\Local\Temp\ccZ8Xcmd.s:31225  .debug_str:000000000002a052 .LASF5428
C:\Users\CYMR90~1\AppData\Local\Temp\ccZ8Xcmd.s:29097  .debug_str:00000000000218c4 .LASF5429
C:\Users\CYMR90~1\AppData\Local\Temp\ccZ8Xcmd.s:22256  .debug_str:000000000000613b .LASF5430
C:\Users\CYMR90~1\AppData\Local\Temp\ccZ8Xcmd.s:31869  .debug_str:000000000002ca08 .LASF5431
C:\Users\CYMR90~1\AppData\Local\Temp\ccZ8Xcmd.s:30931  .debug_str:0000000000028df6 .LASF5432
C:\Users\CYMR90~1\AppData\Local\Temp\ccZ8Xcmd.s:21492  .debug_str:0000000000003098 .LASF5433
C:\Users\CYMR90~1\AppData\Local\Temp\ccZ8Xcmd.s:29051  .debug_str:0000000000021611 .LASF5434
C:\Users\CYMR90~1\AppData\Local\Temp\ccZ8Xcmd.s:31835  .debug_str:000000000002c791 .LASF5435
C:\Users\CYMR90~1\AppData\Local\Temp\ccZ8Xcmd.s:28297  .debug_str:000000000001e7cb .LASF5436
C:\Users\CYMR90~1\AppData\Local\Temp\ccZ8Xcmd.s:31181  .debug_str:0000000000029db4 .LASF5437
C:\Users\CYMR90~1\AppData\Local\Temp\ccZ8Xcmd.s:26134  .debug_str:0000000000015a9a .LASF5438
C:\Users\CYMR90~1\AppData\Local\Temp\ccZ8Xcmd.s:28225  .debug_str:000000000001e36c .LASF5439
C:\Users\CYMR90~1\AppData\Local\Temp\ccZ8Xcmd.s:24532  .debug_str:000000000000f437 .LASF5440
C:\Users\CYMR90~1\AppData\Local\Temp\ccZ8Xcmd.s:24520  .debug_str:000000000000f38a .LASF5441
C:\Users\CYMR90~1\AppData\Local\Temp\ccZ8Xcmd.s:28597  .debug_str:000000000001f9ca .LASF5442
C:\Users\CYMR90~1\AppData\Local\Temp\ccZ8Xcmd.s:30295  .debug_str:00000000000264bc .LASF5443
C:\Users\CYMR90~1\AppData\Local\Temp\ccZ8Xcmd.s:21080  .debug_str:000000000000177a .LASF5444
C:\Users\CYMR90~1\AppData\Local\Temp\ccZ8Xcmd.s:27269  .debug_str:000000000001a5d9 .LASF5445
C:\Users\CYMR90~1\AppData\Local\Temp\ccZ8Xcmd.s:20892  .debug_str:0000000000000b7b .LASF5446
C:\Users\CYMR90~1\AppData\Local\Temp\ccZ8Xcmd.s:26577  .debug_str:00000000000178d9 .LASF5447
C:\Users\CYMR90~1\AppData\Local\Temp\ccZ8Xcmd.s:21192  .debug_str:0000000000001dea .LASF5448
C:\Users\CYMR90~1\AppData\Local\Temp\ccZ8Xcmd.s:26128  .debug_str:00000000000159ed .LASF5449
C:\Users\CYMR90~1\AppData\Local\Temp\ccZ8Xcmd.s:24272  .debug_str:000000000000e461 .LASF5450
C:\Users\CYMR90~1\AppData\Local\Temp\ccZ8Xcmd.s:25010  .debug_str:0000000000011223 .LASF5451
C:\Users\CYMR90~1\AppData\Local\Temp\ccZ8Xcmd.s:23404  .debug_str:000000000000ab25 .LASF5452
C:\Users\CYMR90~1\AppData\Local\Temp\ccZ8Xcmd.s:21710  .debug_str:0000000000003ece .LASF5453
C:\Users\CYMR90~1\AppData\Local\Temp\ccZ8Xcmd.s:31577  .debug_str:000000000002b623 .LASF5454
C:\Users\CYMR90~1\AppData\Local\Temp\ccZ8Xcmd.s:23228  .debug_str:000000000000a070 .LASF5455
C:\Users\CYMR90~1\AppData\Local\Temp\ccZ8Xcmd.s:28839  .debug_str:00000000000208cf .LASF5456
C:\Users\CYMR90~1\AppData\Local\Temp\ccZ8Xcmd.s:29539  .debug_str:000000000002328b .LASF5457
C:\Users\CYMR90~1\AppData\Local\Temp\ccZ8Xcmd.s:31613  .debug_str:000000000002b8b3 .LASF5458
C:\Users\CYMR90~1\AppData\Local\Temp\ccZ8Xcmd.s:20996  .debug_str:00000000000011d9 .LASF5459
C:\Users\CYMR90~1\AppData\Local\Temp\ccZ8Xcmd.s:26413  .debug_str:0000000000016ed6 .LASF5460
C:\Users\CYMR90~1\AppData\Local\Temp\ccZ8Xcmd.s:29167  .debug_str:0000000000021d1f .LASF5461
C:\Users\CYMR90~1\AppData\Local\Temp\ccZ8Xcmd.s:28095  .debug_str:000000000001db84 .LASF5462
C:\Users\CYMR90~1\AppData\Local\Temp\ccZ8Xcmd.s:31417  .debug_str:000000000002abb9 .LASF5463
C:\Users\CYMR90~1\AppData\Local\Temp\ccZ8Xcmd.s:21162  .debug_str:0000000000001c2b .LASF5464
C:\Users\CYMR90~1\AppData\Local\Temp\ccZ8Xcmd.s:27369  .debug_str:000000000001ac8e .LASF5465
C:\Users\CYMR90~1\AppData\Local\Temp\ccZ8Xcmd.s:24146  .debug_str:000000000000dce3 .LASF5466
C:\Users\CYMR90~1\AppData\Local\Temp\ccZ8Xcmd.s:25698  .debug_str:0000000000013fc2 .LASF5467
C:\Users\CYMR90~1\AppData\Local\Temp\ccZ8Xcmd.s:30789  .debug_str:000000000002854c .LASF5468
C:\Users\CYMR90~1\AppData\Local\Temp\ccZ8Xcmd.s:31733  .debug_str:000000000002c0da .LASF5469
C:\Users\CYMR90~1\AppData\Local\Temp\ccZ8Xcmd.s:31001  .debug_str:00000000000292dd .LASF5470
C:\Users\CYMR90~1\AppData\Local\Temp\ccZ8Xcmd.s:26847  .debug_str:00000000000188ee .LASF5471
C:\Users\CYMR90~1\AppData\Local\Temp\ccZ8Xcmd.s:27819  .debug_str:000000000001c8cb .LASF5472
C:\Users\CYMR90~1\AppData\Local\Temp\ccZ8Xcmd.s:31013  .debug_str:0000000000029383 .LASF5473
C:\Users\CYMR90~1\AppData\Local\Temp\ccZ8Xcmd.s:30475  .debug_str:0000000000026fa6 .LASF5474
C:\Users\CYMR90~1\AppData\Local\Temp\ccZ8Xcmd.s:22930  .debug_str:0000000000008df2 .LASF5475
C:\Users\CYMR90~1\AppData\Local\Temp\ccZ8Xcmd.s:28121  .debug_str:000000000001dd47 .LASF5476
C:\Users\CYMR90~1\AppData\Local\Temp\ccZ8Xcmd.s:31081  .debug_str:00000000000297ca .LASF5477
C:\Users\CYMR90~1\AppData\Local\Temp\ccZ8Xcmd.s:25418  .debug_str:0000000000012da9 .LASF5478
C:\Users\CYMR90~1\AppData\Local\Temp\ccZ8Xcmd.s:31543  .debug_str:000000000002b3fa .LASF5479
C:\Users\CYMR90~1\AppData\Local\Temp\ccZ8Xcmd.s:26108  .debug_str:00000000000158b4 .LASF5480
C:\Users\CYMR90~1\AppData\Local\Temp\ccZ8Xcmd.s:31619  .debug_str:000000000002b904 .LASF5481
C:\Users\CYMR90~1\AppData\Local\Temp\ccZ8Xcmd.s:30941  .debug_str:0000000000028e95 .LASF5482
C:\Users\CYMR90~1\AppData\Local\Temp\ccZ8Xcmd.s:27501  .debug_str:000000000001b50a .LASF5483
C:\Users\CYMR90~1\AppData\Local\Temp\ccZ8Xcmd.s:25184  .debug_str:0000000000011e71 .LASF5484
C:\Users\CYMR90~1\AppData\Local\Temp\ccZ8Xcmd.s:31983  .debug_str:000000000002d14e .LASF5485
C:\Users\CYMR90~1\AppData\Local\Temp\ccZ8Xcmd.s:23496  .debug_str:000000000000b152 .LASF5486
C:\Users\CYMR90~1\AppData\Local\Temp\ccZ8Xcmd.s:25098  .debug_str:00000000000118fd .LASF5487
C:\Users\CYMR90~1\AppData\Local\Temp\ccZ8Xcmd.s:23254  .debug_str:000000000000a21a .LASF5488
C:\Users\CYMR90~1\AppData\Local\Temp\ccZ8Xcmd.s:24470  .debug_str:000000000000f06b .LASF5489
C:\Users\CYMR90~1\AppData\Local\Temp\ccZ8Xcmd.s:29943  .debug_str:0000000000024d1f .LASF5490
C:\Users\CYMR90~1\AppData\Local\Temp\ccZ8Xcmd.s:25826  .debug_str:0000000000014796 .LASF5491
C:\Users\CYMR90~1\AppData\Local\Temp\ccZ8Xcmd.s:24072  .debug_str:000000000000d868 .LASF5492
C:\Users\CYMR90~1\AppData\Local\Temp\ccZ8Xcmd.s:29037  .debug_str:000000000002150a .LASF5493
C:\Users\CYMR90~1\AppData\Local\Temp\ccZ8Xcmd.s:20992  .debug_str:000000000000119b .LASF5494
C:\Users\CYMR90~1\AppData\Local\Temp\ccZ8Xcmd.s:23680  .debug_str:000000000000be55 .LASF5495
C:\Users\CYMR90~1\AppData\Local\Temp\ccZ8Xcmd.s:22804  .debug_str:0000000000008578 .LASF5496
C:\Users\CYMR90~1\AppData\Local\Temp\ccZ8Xcmd.s:20708  .debug_str:0000000000000096 .LASF5497
C:\Users\CYMR90~1\AppData\Local\Temp\ccZ8Xcmd.s:24018  .debug_str:000000000000d574 .LASF5498
C:\Users\CYMR90~1\AppData\Local\Temp\ccZ8Xcmd.s:28331  .debug_str:000000000001e9ad .LASF5499
C:\Users\CYMR90~1\AppData\Local\Temp\ccZ8Xcmd.s:28813  .debug_str:0000000000020741 .LASF5500
C:\Users\CYMR90~1\AppData\Local\Temp\ccZ8Xcmd.s:30725  .debug_str:0000000000028082 .LASF5501
C:\Users\CYMR90~1\AppData\Local\Temp\ccZ8Xcmd.s:29759  .debug_str:00000000000240e5 .LASF5502
C:\Users\CYMR90~1\AppData\Local\Temp\ccZ8Xcmd.s:31639  .debug_str:000000000002ba7e .LASF5503
C:\Users\CYMR90~1\AppData\Local\Temp\ccZ8Xcmd.s:22594  .debug_str:00000000000076e2 .LASF5504
C:\Users\CYMR90~1\AppData\Local\Temp\ccZ8Xcmd.s:22442  .debug_str:0000000000006ce6 .LASF5505
C:\Users\CYMR90~1\AppData\Local\Temp\ccZ8Xcmd.s:31485  .debug_str:000000000002afea .LASF5506
C:\Users\CYMR90~1\AppData\Local\Temp\ccZ8Xcmd.s:24352  .debug_str:000000000000e98e .LASF5507
C:\Users\CYMR90~1\AppData\Local\Temp\ccZ8Xcmd.s:22732  .debug_str:0000000000008126 .LASF5508
C:\Users\CYMR90~1\AppData\Local\Temp\ccZ8Xcmd.s:21398  .debug_str:0000000000002a89 .LASF5509
C:\Users\CYMR90~1\AppData\Local\Temp\ccZ8Xcmd.s:28881  .debug_str:0000000000020b9e .LASF5510
C:\Users\CYMR90~1\AppData\Local\Temp\ccZ8Xcmd.s:23252  .debug_str:000000000000a204 .LASF5511
C:\Users\CYMR90~1\AppData\Local\Temp\ccZ8Xcmd.s:25822  .debug_str:000000000001475a .LASF5512
C:\Users\CYMR90~1\AppData\Local\Temp\ccZ8Xcmd.s:26897  .debug_str:0000000000018cb1 .LASF5513
C:\Users\CYMR90~1\AppData\Local\Temp\ccZ8Xcmd.s:30021  .debug_str:00000000000252e3 .LASF5514
C:\Users\CYMR90~1\AppData\Local\Temp\ccZ8Xcmd.s:22388  .debug_str:0000000000006984 .LASF5515
C:\Users\CYMR90~1\AppData\Local\Temp\ccZ8Xcmd.s:30805  .debug_str:0000000000028689 .LASF5516
C:\Users\CYMR90~1\AppData\Local\Temp\ccZ8Xcmd.s:25736  .debug_str:0000000000014210 .LASF5517
C:\Users\CYMR90~1\AppData\Local\Temp\ccZ8Xcmd.s:29471  .debug_str:0000000000022ebe .LASF5518
C:\Users\CYMR90~1\AppData\Local\Temp\ccZ8Xcmd.s:23740  .debug_str:000000000000c1f5 .LASF5519
C:\Users\CYMR90~1\AppData\Local\Temp\ccZ8Xcmd.s:21164  .debug_str:0000000000001c55 .LASF5520
C:\Users\CYMR90~1\AppData\Local\Temp\ccZ8Xcmd.s:28947  .debug_str:0000000000020f28 .LASF5521
C:\Users\CYMR90~1\AppData\Local\Temp\ccZ8Xcmd.s:30365  .debug_str:000000000002693f .LASF5522
C:\Users\CYMR90~1\AppData\Local\Temp\ccZ8Xcmd.s:24796  .debug_str:0000000000010505 .LASF5523
C:\Users\CYMR90~1\AppData\Local\Temp\ccZ8Xcmd.s:25188  .debug_str:0000000000011eb5 .LASF5524
C:\Users\CYMR90~1\AppData\Local\Temp\ccZ8Xcmd.s:31187  .debug_str:0000000000029df2 .LASF5525
C:\Users\CYMR90~1\AppData\Local\Temp\ccZ8Xcmd.s:27155  .debug_str:0000000000019d7b .LASF5526
C:\Users\CYMR90~1\AppData\Local\Temp\ccZ8Xcmd.s:21304  .debug_str:0000000000002416 .LASF5527
C:\Users\CYMR90~1\AppData\Local\Temp\ccZ8Xcmd.s:22082  .debug_str:0000000000005683 .LASF5528
C:\Users\CYMR90~1\AppData\Local\Temp\ccZ8Xcmd.s:25958  .debug_str:000000000001500b .LASF5529
C:\Users\CYMR90~1\AppData\Local\Temp\ccZ8Xcmd.s:23084  .debug_str:000000000000975b .LASF5530
C:\Users\CYMR90~1\AppData\Local\Temp\ccZ8Xcmd.s:23378  .debug_str:000000000000a98d .LASF5531
C:\Users\CYMR90~1\AppData\Local\Temp\ccZ8Xcmd.s:29801  .debug_str:00000000000243b3 .LASF5532
C:\Users\CYMR90~1\AppData\Local\Temp\ccZ8Xcmd.s:25354  .debug_str:00000000000129ad .LASF5533
C:\Users\CYMR90~1\AppData\Local\Temp\ccZ8Xcmd.s:23036  .debug_str:0000000000009459 .LASF5534
C:\Users\CYMR90~1\AppData\Local\Temp\ccZ8Xcmd.s:30167  .debug_str:0000000000025ce5 .LASF5535
C:\Users\CYMR90~1\AppData\Local\Temp\ccZ8Xcmd.s:29969  .debug_str:0000000000024ea0 .LASF5536
C:\Users\CYMR90~1\AppData\Local\Temp\ccZ8Xcmd.s:25894  .debug_str:0000000000014bd8 .LASF5537
C:\Users\CYMR90~1\AppData\Local\Temp\ccZ8Xcmd.s:29085  .debug_str:00000000000217e6 .LASF5538
C:\Users\CYMR90~1\AppData\Local\Temp\ccZ8Xcmd.s:29729  .debug_str:0000000000023df7 .LASF5539
C:\Users\CYMR90~1\AppData\Local\Temp\ccZ8Xcmd.s:29883  .debug_str:000000000002494c .LASF5540
C:\Users\CYMR90~1\AppData\Local\Temp\ccZ8Xcmd.s:21928  .debug_str:0000000000004d70 .LASF5541
C:\Users\CYMR90~1\AppData\Local\Temp\ccZ8Xcmd.s:24690  .debug_str:000000000000fea5 .LASF5542
C:\Users\CYMR90~1\AppData\Local\Temp\ccZ8Xcmd.s:29681  .debug_str:0000000000023b50 .LASF5543
C:\Users\CYMR90~1\AppData\Local\Temp\ccZ8Xcmd.s:31783  .debug_str:000000000002c494 .LASF5544
C:\Users\CYMR90~1\AppData\Local\Temp\ccZ8Xcmd.s:31205  .debug_str:0000000000029ef1 .LASF5545
C:\Users\CYMR90~1\AppData\Local\Temp\ccZ8Xcmd.s:29933  .debug_str:0000000000024c8a .LASF5546
C:\Users\CYMR90~1\AppData\Local\Temp\ccZ8Xcmd.s:23044  .debug_str:00000000000094b9 .LASF5547
C:\Users\CYMR90~1\AppData\Local\Temp\ccZ8Xcmd.s:23958  .debug_str:000000000000d13e .LASF5548
C:\Users\CYMR90~1\AppData\Local\Temp\ccZ8Xcmd.s:24436  .debug_str:000000000000ee4c .LASF5549
C:\Users\CYMR90~1\AppData\Local\Temp\ccZ8Xcmd.s:30251  .debug_str:00000000000261e2 .LASF5550
C:\Users\CYMR90~1\AppData\Local\Temp\ccZ8Xcmd.s:28067  .debug_str:000000000001d954 .LASF5551
C:\Users\CYMR90~1\AppData\Local\Temp\ccZ8Xcmd.s:29665  .debug_str:0000000000023a60 .LASF5552
C:\Users\CYMR90~1\AppData\Local\Temp\ccZ8Xcmd.s:21980  .debug_str:0000000000005078 .LASF5553
C:\Users\CYMR90~1\AppData\Local\Temp\ccZ8Xcmd.s:27567  .debug_str:000000000001b8ca .LASF5554
C:\Users\CYMR90~1\AppData\Local\Temp\ccZ8Xcmd.s:23576  .debug_str:000000000000b6ef .LASF5555
                           .group:0000000000000000 wm4.0.10abbef32179bc1260444192115bdf5e
                           .group:0000000000000000 wm4.stddef.h.39.144cf5ddcd53cbfdac30259dc1a6c87f
                           .group:0000000000000000 wm4._newlib_version.h.4.bfdf54b0af045d4a71376ae00f63a22c
                           .group:0000000000000000 wm4.newlib.h.18.08a2ecba46890ca2aa56bbe21686e6c3
                           .group:0000000000000000 wm4.ieeefp.h.202.4f2759f5758fd82153cfbf98692f2ced
                           .group:0000000000000000 wm4.features.h.22.fad1cec3bc7ff06488171438dbdcfd02
                           .group:0000000000000000 wm4.config.h.83.13bbc8852bfac55b724c9822481355b5
                           .group:0000000000000000 wm4._ansi.h.31.de524f58584151836e90d8620a16f8e8
                           .group:0000000000000000 wm4.stdio.h.31.7c0e28c411445f3f9c5b11accf882760
                           .group:0000000000000000 wm4._default_types.h.6.959254cf5f09734ea7516c89e8bb21bd
                           .group:0000000000000000 wm4.stddef.h.155.ba788add86a0e365f264484f110c3c29
                           .group:0000000000000000 wm4.cdefs.h.49.39045112216f6a021dbdffe3bf5accce
                           .group:0000000000000000 wm4.stdarg.h.34.3a23a216c0c293b3d2ea2e89281481e6
                           .group:0000000000000000 wm4._types.h.20.dd0d04dca3800a0d2a6129b87f3adbb2
                           .group:0000000000000000 wm4.stddef.h.155.3588ebfdd1e8c7ede80509bb9c3b8009
                           .group:0000000000000000 wm4._types.h.127.34941de1b2539d59d5cac00e0dd27a45
                           .group:0000000000000000 wm4.reent.h.17.e292bf8b0bec6c96e131a54347145a30
                           .group:0000000000000000 wm4.lock.h.2.c0958401bd0ce484d507ee19aacab817
                           .group:0000000000000000 wm4.reent.h.77.dcd6129ff07fe81bd5636db29abe53b2
                           .group:0000000000000000 wm4.types.h.40.8b6acba56cefbb11746718204edc8f5e
                           .group:0000000000000000 wm4._stdint.h.10.c24fa3af3bc1706662bb5593a907e841
                           .group:0000000000000000 wm4._endian.h.18.1bf9649e8e5bbc91042012680270b9ed
                           .group:0000000000000000 wm4.endian.h.9.49f3a4695c1b61e8a0808de3c4a106cb
                           .group:0000000000000000 wm4._timeval.h.32.bec3221fa7a9bb0bdde696c9c57e47d2
                           .group:0000000000000000 wm4.timespec.h.41.d855182eb0e690443ab8651bcedca6e1
                           .group:0000000000000000 wm4.select.h.19.40cd3f2bfc456b193b790c2754690ebf
                           .group:0000000000000000 wm4.types.h.51.5571ec98f267d17d3c670b7a3ba33afa
                           .group:0000000000000000 wm4.sched.h.22.c60982713a5c428609783c78f9c78d95
                           .group:0000000000000000 wm4._pthreadtypes.h.36.fcee9961c35163dde6267ef772ad1972
                           .group:0000000000000000 wm4.stdio.h.2.4aa87247282eca6c8f36f9de33d8df1a
                           .group:0000000000000000 wm4.stdio.h.81.932d0c162786b883f622b8d05c120c78
                           .group:0000000000000000 wm4.gd32vw55x.h.47.379378190858578060a317909b2c8d8a
                           .group:0000000000000000 wm4._intsup.h.10.48bafbb683905c4daa4565a85aeeb264
                           .group:0000000000000000 wm4.stdint.h.23.d53047a68f4a85177f80b422d52785ed
                           .group:0000000000000000 wm4.nmsis_version.h.19.ffa173da8efb17b1050904994d6f500e
                           .group:0000000000000000 wm4.riscv_bits.h.19.ee94eb3d39937793d4cd0a62363e5d00
                           .group:0000000000000000 wm4.riscv_encoding.h.35.f5d37fad7abbab8278b4bb6f1e32fa65
                           .group:0000000000000000 wm4.nmsis_gcc.h.61.5d70d7598ffc79c3c991d847a574cf23
                           .group:0000000000000000 wm4.core_feature_base.h.20.e99d3e75c26a8f3341d35bf20d0e1d20
                           .group:0000000000000000 wm4.core_feature_fpu.h.19.695f2200274659b530cb97cda749ff4f
                           .group:0000000000000000 wm4.core_feature_dsp.h.19.e8f8d7aa42f197807aefedb6584486cd
                           .group:0000000000000000 wm4.core_compatiable.h.19.5b8282d61b1f6889a82895616b730084
                           .group:0000000000000000 wm4.core_feature_eclic.h.19.e0c091d0cbda79e8b3b031b979ebd5a1
                           .group:0000000000000000 wm4.core_feature_timer.h.19.21a5151282de34c37dfa6d84e262aa54
                           .group:0000000000000000 wm4.system_gd32vw55x.h.32.f1fcb1212d387c35ac955b0e96ada468
                           .group:0000000000000000 wm4.gd32vw55x.h.231.3529c650aff38c9372f7e03177fd2c8a
                           .group:0000000000000000 wm4.gd32vw55x_adc.h.42.ae73acec1704ef509ccecb41a875b50e
                           .group:0000000000000000 wm4.gd32vw55x_cau.h.36.c98428fe1eae7edb4721da5c8078c974
                           .group:0000000000000000 wm4.gd32vw55x_crc.h.37.c58f296814c2300a4b067c08bd88d54e
                           .group:0000000000000000 wm4.gd32vw55x_dbg.h.36.311650c8545549d482ceca8befc5a232
                           .group:0000000000000000 wm4.gd32vw55x_dma.h.36.f4adc751172b2a7b1533dda72e948737
                           .group:0000000000000000 wm4.gd32vw55x_eclic.h.36.0411499f2b2493c67246e32ccae096c1
                           .group:0000000000000000 wm4.gd32vw55x_exti.h.36.de7508334dd12f1a6a673521a1a835f5
                           .group:0000000000000000 wm4.gd32vw55x_fmc.h.36.a4b0b94c47ffe23a2fa09260c5ed4850
                           .group:0000000000000000 wm4.gd32vw55x_fwdgt.h.36.4846b6900fd24b5bfce4986c9a8ce677
                           .group:0000000000000000 wm4.gd32vw55x_gpio.h.36.adfee1371bb58d3d9043c47bdb25a90f
                           .group:0000000000000000 wm4.gd32vw55x_hau.h.36.f3cbcbd7b67c9e5bdc7a1100b1bf3458
                           .group:0000000000000000 wm4.gd32vw55x_i2c.h.36.3848990933925e084eb427083790c53f
                           .group:0000000000000000 wm4.gd32vw55x_pkcau.h.36.bb2235f4cf4967063a51bfa9aca5ef27
                           .group:0000000000000000 wm4.gd32vw55x_pmu.h.36.4c76091f1415551526d489ccf2c42052
                           .group:0000000000000000 wm4.gd32vw55x_qspi.h.36.2d2c181cfe19b935a9641008fc786613
                           .group:0000000000000000 wm4.gd32vw55x_rcu.h.36.780a8a45c00d563711cceb445027ef47
                           .group:0000000000000000 wm4.gd32vw55x_rtc.h.36.3172855e8715659e080e0eab46fdf175
                           .group:0000000000000000 wm4.gd32vw55x_spi.h.36.9fa1be2b09fb73e4b5886e97f0e96d58
                           .group:0000000000000000 wm4.gd32vw55x_syscfg.h.36.010551f05591f5e34051d2e15df0352b
                           .group:0000000000000000 wm4.gd32vw55x_timer.h.38.2cbee78ea60d47145be361b2d2c55070
                           .group:0000000000000000 wm4.gd32vw55x_trng.h.36.c9e7807af1b1ab68d3bbb54f4ed5cd73
                           .group:0000000000000000 wm4.gd32vw55x_usart.h.36.f5c497cca17945a34f154b0e17017d02
                           .group:0000000000000000 wm4.gd32vw55x_wwdgt.h.36.f7a443b7302efc0e5c335888582ee197
                           .group:0000000000000000 wm4.gd32vw55x_efuse.h.41.4dfdfc685d2a35572715c141be145773

NO UNDEFINED SYMBOLS
