   1              		.file	"gd32vw55x_adc.c"
   2              		.option nopic
   3              		.attribute arch, "rv32i2p0_m2p0_a2p0_c2p0"
   4              		.attribute unaligned_access, 0
   5              		.attribute stack_align, 16
   6              		.text
   7              	.Ltext0:
   8              		.cfi_sections	.debug_frame
   9              		.section	.text.adc_deinit,"ax",@progbits
  10              		.align	1
  11              		.globl	adc_deinit
  13              	adc_deinit:
  14              	.LFB347:
  15              		.file 1 "../Firmware/GD32VW55x_standard_peripheral/Source/gd32vw55x_adc.c"
   1:../Firmware/GD32VW55x_standard_peripheral/Source/gd32vw55x_adc.c **** /*!
   2:../Firmware/GD32VW55x_standard_peripheral/Source/gd32vw55x_adc.c ****     \file    GD32VW55x_adc.c
   3:../Firmware/GD32VW55x_standard_peripheral/Source/gd32vw55x_adc.c ****     \brief   ADC driver
   4:../Firmware/GD32VW55x_standard_peripheral/Source/gd32vw55x_adc.c **** 
   5:../Firmware/GD32VW55x_standard_peripheral/Source/gd32vw55x_adc.c ****     \version 2025-01-16, V1.4.0, firmware for GD32VW55x
   6:../Firmware/GD32VW55x_standard_peripheral/Source/gd32vw55x_adc.c **** */
   7:../Firmware/GD32VW55x_standard_peripheral/Source/gd32vw55x_adc.c **** 
   8:../Firmware/GD32VW55x_standard_peripheral/Source/gd32vw55x_adc.c **** /*
   9:../Firmware/GD32VW55x_standard_peripheral/Source/gd32vw55x_adc.c ****     Copyright (c) 2025, GigaDevice Semiconductor Inc.
  10:../Firmware/GD32VW55x_standard_peripheral/Source/gd32vw55x_adc.c **** 
  11:../Firmware/GD32VW55x_standard_peripheral/Source/gd32vw55x_adc.c ****     Redistribution and use in source and binary forms, with or without modification,
  12:../Firmware/GD32VW55x_standard_peripheral/Source/gd32vw55x_adc.c **** are permitted provided that the following conditions are met:
  13:../Firmware/GD32VW55x_standard_peripheral/Source/gd32vw55x_adc.c **** 
  14:../Firmware/GD32VW55x_standard_peripheral/Source/gd32vw55x_adc.c ****     1. Redistributions of source code must retain the above copyright notice, this
  15:../Firmware/GD32VW55x_standard_peripheral/Source/gd32vw55x_adc.c ****        list of conditions and the following disclaimer.
  16:../Firmware/GD32VW55x_standard_peripheral/Source/gd32vw55x_adc.c ****     2. Redistributions in binary form must reproduce the above copyright notice,
  17:../Firmware/GD32VW55x_standard_peripheral/Source/gd32vw55x_adc.c ****        this list of conditions and the following disclaimer in the documentation
  18:../Firmware/GD32VW55x_standard_peripheral/Source/gd32vw55x_adc.c ****        and/or other materials provided with the distribution.
  19:../Firmware/GD32VW55x_standard_peripheral/Source/gd32vw55x_adc.c ****     3. Neither the name of the copyright holder nor the names of its contributors
  20:../Firmware/GD32VW55x_standard_peripheral/Source/gd32vw55x_adc.c ****        may be used to endorse or promote products derived from this software without
  21:../Firmware/GD32VW55x_standard_peripheral/Source/gd32vw55x_adc.c ****        specific prior written permission.
  22:../Firmware/GD32VW55x_standard_peripheral/Source/gd32vw55x_adc.c **** 
  23:../Firmware/GD32VW55x_standard_peripheral/Source/gd32vw55x_adc.c ****     THIS SOFTWARE IS PROVIDED BY THE COPYRIGHT HOLDERS AND CONTRIBUTORS "AS IS"
  24:../Firmware/GD32VW55x_standard_peripheral/Source/gd32vw55x_adc.c **** AND ANY EXPRESS OR IMPLIED WARRANTIES, INCLUDING, BUT NOT LIMITED TO, THE IMPLIED
  25:../Firmware/GD32VW55x_standard_peripheral/Source/gd32vw55x_adc.c **** WARRANTIES OF MERCHANTABILITY AND FITNESS FOR A PARTICULAR PURPOSE ARE DISCLAIMED.
  26:../Firmware/GD32VW55x_standard_peripheral/Source/gd32vw55x_adc.c **** IN NO EVENT SHALL THE COPYRIGHT HOLDER OR CONTRIBUTORS BE LIABLE FOR ANY DIRECT,
  27:../Firmware/GD32VW55x_standard_peripheral/Source/gd32vw55x_adc.c **** INDIRECT, INCIDENTAL, SPECIAL, EXEMPLARY, OR CONSEQUENTIAL DAMAGES (INCLUDING, BUT
  28:../Firmware/GD32VW55x_standard_peripheral/Source/gd32vw55x_adc.c **** NOT LIMITED TO, PROCUREMENT OF SUBSTITUTE GOODS OR SERVICES; LOSS OF USE, DATA, OR
  29:../Firmware/GD32VW55x_standard_peripheral/Source/gd32vw55x_adc.c **** PROFITS; OR BUSINESS INTERRUPTION) HOWEVER CAUSED AND ON ANY THEORY OF LIABILITY,
  30:../Firmware/GD32VW55x_standard_peripheral/Source/gd32vw55x_adc.c **** WHETHER IN CONTRACT, STRICT LIABILITY, OR TORT (INCLUDING NEGLIGENCE OR OTHERWISE)
  31:../Firmware/GD32VW55x_standard_peripheral/Source/gd32vw55x_adc.c **** ARISING IN ANY WAY OUT OF THE USE OF THIS SOFTWARE, EVEN IF ADVISED OF THE POSSIBILITY
  32:../Firmware/GD32VW55x_standard_peripheral/Source/gd32vw55x_adc.c **** OF SUCH DAMAGE.
  33:../Firmware/GD32VW55x_standard_peripheral/Source/gd32vw55x_adc.c **** */
  34:../Firmware/GD32VW55x_standard_peripheral/Source/gd32vw55x_adc.c **** 
  35:../Firmware/GD32VW55x_standard_peripheral/Source/gd32vw55x_adc.c **** #include "gd32vw55x_adc.h"
  36:../Firmware/GD32VW55x_standard_peripheral/Source/gd32vw55x_adc.c **** 
  37:../Firmware/GD32VW55x_standard_peripheral/Source/gd32vw55x_adc.c **** #define ROUTINE_TRIGGER_MODE_OFFSET                 ((uint32_t)0x0000001CU)
  38:../Firmware/GD32VW55x_standard_peripheral/Source/gd32vw55x_adc.c **** #define INSERTED_TRIGGER_MODE_OFFSET                ((uint32_t)0x00000014U)
  39:../Firmware/GD32VW55x_standard_peripheral/Source/gd32vw55x_adc.c **** 
  40:../Firmware/GD32VW55x_standard_peripheral/Source/gd32vw55x_adc.c **** /* discontinuous mode macro*/
  41:../Firmware/GD32VW55x_standard_peripheral/Source/gd32vw55x_adc.c **** #define  ADC_CHANNEL_LENGTH_SUBTRACT_ONE            ((uint8_t)0x01U)
  42:../Firmware/GD32VW55x_standard_peripheral/Source/gd32vw55x_adc.c **** 
  43:../Firmware/GD32VW55x_standard_peripheral/Source/gd32vw55x_adc.c **** /* ADC routine channel macro */
  44:../Firmware/GD32VW55x_standard_peripheral/Source/gd32vw55x_adc.c **** #define  ADC_ROUTINE_CHANNEL_RANK_SIX               ((uint8_t)0x06U)
  45:../Firmware/GD32VW55x_standard_peripheral/Source/gd32vw55x_adc.c **** #define  ADC_ROUTINE_CHANNEL_RANK_NINE              ((uint8_t)0x09U)
  46:../Firmware/GD32VW55x_standard_peripheral/Source/gd32vw55x_adc.c **** #define  ADC_ROUTINE_CHANNEL_RANK_LENGTH            ((uint8_t)0x05U)
  47:../Firmware/GD32VW55x_standard_peripheral/Source/gd32vw55x_adc.c **** 
  48:../Firmware/GD32VW55x_standard_peripheral/Source/gd32vw55x_adc.c **** /* ADC sampling time macro */
  49:../Firmware/GD32VW55x_standard_peripheral/Source/gd32vw55x_adc.c **** #define  ADC_CHANNEL_SAMPLE_EIGHT                   ((uint8_t)0x08U)
  50:../Firmware/GD32VW55x_standard_peripheral/Source/gd32vw55x_adc.c **** #define  ADC_CHANNEL_SAMPLE_ELEVEN                  ((uint8_t)0x0BU)
  51:../Firmware/GD32VW55x_standard_peripheral/Source/gd32vw55x_adc.c **** #define  ADC_CHANNEL_SAMPLE_LENGTH                  ((uint8_t)0x04U)
  52:../Firmware/GD32VW55x_standard_peripheral/Source/gd32vw55x_adc.c **** 
  53:../Firmware/GD32VW55x_standard_peripheral/Source/gd32vw55x_adc.c **** /* ADC inserted channel macro */
  54:../Firmware/GD32VW55x_standard_peripheral/Source/gd32vw55x_adc.c **** #define  ADC_INSERTED_CHANNEL_RANK_LENGTH           ((uint8_t)0x05U)
  55:../Firmware/GD32VW55x_standard_peripheral/Source/gd32vw55x_adc.c **** #define  ADC_INSERTED_CHANNEL_SHIFT_OFFSET          ((uint8_t)0x0FU)
  56:../Firmware/GD32VW55x_standard_peripheral/Source/gd32vw55x_adc.c **** 
  57:../Firmware/GD32VW55x_standard_peripheral/Source/gd32vw55x_adc.c **** /* ADC inserted channel offset macro */
  58:../Firmware/GD32VW55x_standard_peripheral/Source/gd32vw55x_adc.c **** #define  ADC_OFFSET_LENGTH                          ((uint8_t)0x03U)
  59:../Firmware/GD32VW55x_standard_peripheral/Source/gd32vw55x_adc.c **** #define  ADC_OFFSET_SHIFT_LENGTH                    ((uint8_t)0x04U)
  60:../Firmware/GD32VW55x_standard_peripheral/Source/gd32vw55x_adc.c **** 
  61:../Firmware/GD32VW55x_standard_peripheral/Source/gd32vw55x_adc.c **** /*!
  62:../Firmware/GD32VW55x_standard_peripheral/Source/gd32vw55x_adc.c ****     \brief      reset ADC
  63:../Firmware/GD32VW55x_standard_peripheral/Source/gd32vw55x_adc.c ****     \param[in]  none
  64:../Firmware/GD32VW55x_standard_peripheral/Source/gd32vw55x_adc.c ****     \param[out] none
  65:../Firmware/GD32VW55x_standard_peripheral/Source/gd32vw55x_adc.c ****     \retval     none
  66:../Firmware/GD32VW55x_standard_peripheral/Source/gd32vw55x_adc.c **** */
  67:../Firmware/GD32VW55x_standard_peripheral/Source/gd32vw55x_adc.c **** void adc_deinit(void)
  68:../Firmware/GD32VW55x_standard_peripheral/Source/gd32vw55x_adc.c **** {
  16              		.loc 1 68 1
  17              		.cfi_startproc
  18 0000 4111     		addi	sp,sp,-16
  19              		.cfi_def_cfa_offset 16
  20 0002 06C6     		sw	ra,12(sp)
  21 0004 22C4     		sw	s0,8(sp)
  22              		.cfi_offset 1, -4
  23              		.cfi_offset 8, -8
  24 0006 0008     		addi	s0,sp,16
  25              		.cfi_def_cfa 8, 0
  69:../Firmware/GD32VW55x_standard_peripheral/Source/gd32vw55x_adc.c ****     rcu_periph_reset_enable(RCU_ADCRST);
  26              		.loc 1 69 5
  27 0008 8567     		li	a5,4096
  28 000a 13858790 		addi	a0,a5,-1784
  29 000e 97000000 		call	rcu_periph_reset_enable
  29      E7800000 
  70:../Firmware/GD32VW55x_standard_peripheral/Source/gd32vw55x_adc.c ****     rcu_periph_reset_disable(RCU_ADCRST);
  30              		.loc 1 70 5
  31 0016 8567     		li	a5,4096
  32 0018 13858790 		addi	a0,a5,-1784
  33 001c 97000000 		call	rcu_periph_reset_disable
  33      E7800000 
  71:../Firmware/GD32VW55x_standard_peripheral/Source/gd32vw55x_adc.c **** }
  34              		.loc 1 71 1
  35 0024 0100     		nop
  36 0026 B240     		lw	ra,12(sp)
  37              		.cfi_restore 1
  38 0028 2244     		lw	s0,8(sp)
  39              		.cfi_restore 8
  40              		.cfi_def_cfa 2, 16
  41 002a 4101     		addi	sp,sp,16
  42              		.cfi_def_cfa_offset 0
  43 002c 8280     		jr	ra
  44              		.cfi_endproc
  45              	.LFE347:
  47              		.section	.text.adc_clock_config,"ax",@progbits
  48              		.align	1
  49              		.globl	adc_clock_config
  51              	adc_clock_config:
  52              	.LFB348:
  72:../Firmware/GD32VW55x_standard_peripheral/Source/gd32vw55x_adc.c **** 
  73:../Firmware/GD32VW55x_standard_peripheral/Source/gd32vw55x_adc.c **** /*!
  74:../Firmware/GD32VW55x_standard_peripheral/Source/gd32vw55x_adc.c ****     \brief      configure the ADC clock
  75:../Firmware/GD32VW55x_standard_peripheral/Source/gd32vw55x_adc.c ****     \param[in]  prescaler: configure ADC prescaler ratio
  76:../Firmware/GD32VW55x_standard_peripheral/Source/gd32vw55x_adc.c ****                 only one parameter can be selected which is shown as below:
  77:../Firmware/GD32VW55x_standard_peripheral/Source/gd32vw55x_adc.c ****       \arg        ADC_ADCCK_PCLK2_DIV2: PCLK2 div2
  78:../Firmware/GD32VW55x_standard_peripheral/Source/gd32vw55x_adc.c ****       \arg        ADC_ADCCK_PCLK2_DIV4: PCLK2 div4
  79:../Firmware/GD32VW55x_standard_peripheral/Source/gd32vw55x_adc.c ****       \arg        ADC_ADCCK_PCLK2_DIV6: PCLK2 div6
  80:../Firmware/GD32VW55x_standard_peripheral/Source/gd32vw55x_adc.c ****       \arg        ADC_ADCCK_PCLK2_DIV8: PCLK2 div8
  81:../Firmware/GD32VW55x_standard_peripheral/Source/gd32vw55x_adc.c ****       \arg        ADC_ADCCK_HCLK_DIV5: HCLK div5
  82:../Firmware/GD32VW55x_standard_peripheral/Source/gd32vw55x_adc.c ****       \arg        ADC_ADCCK_HCLK_DIV6: HCLK div6
  83:../Firmware/GD32VW55x_standard_peripheral/Source/gd32vw55x_adc.c ****       \arg        ADC_ADCCK_HCLK_DIV10: HCLK div10
  84:../Firmware/GD32VW55x_standard_peripheral/Source/gd32vw55x_adc.c ****       \arg        ADC_ADCCK_HCLK_DIV20: HCLK div20
  85:../Firmware/GD32VW55x_standard_peripheral/Source/gd32vw55x_adc.c ****     \param[out] none
  86:../Firmware/GD32VW55x_standard_peripheral/Source/gd32vw55x_adc.c ****     \retval     none
  87:../Firmware/GD32VW55x_standard_peripheral/Source/gd32vw55x_adc.c **** */
  88:../Firmware/GD32VW55x_standard_peripheral/Source/gd32vw55x_adc.c **** void adc_clock_config(uint32_t prescaler)
  89:../Firmware/GD32VW55x_standard_peripheral/Source/gd32vw55x_adc.c **** {
  53              		.loc 1 89 1
  54              		.cfi_startproc
  55 0000 0111     		addi	sp,sp,-32
  56              		.cfi_def_cfa_offset 32
  57 0002 22CE     		sw	s0,28(sp)
  58              		.cfi_offset 8, -4
  59 0004 0010     		addi	s0,sp,32
  60              		.cfi_def_cfa 8, 0
  61 0006 2326A4FE 		sw	a0,-20(s0)
  90:../Firmware/GD32VW55x_standard_peripheral/Source/gd32vw55x_adc.c ****     ADC_CCTL &= ~((uint32_t)ADC_CCTL_ADCCK);
  62              		.loc 1 90 14
  63 000a B7270140 		li	a5,1073815552
  64 000e 93874730 		addi	a5,a5,772
  65 0012 9443     		lw	a3,0(a5)
  66 0014 B7270140 		li	a5,1073815552
  67 0018 93874730 		addi	a5,a5,772
  68 001c 3707F9FF 		li	a4,-458752
  69 0020 7D17     		addi	a4,a4,-1
  70 0022 758F     		and	a4,a3,a4
  71 0024 98C3     		sw	a4,0(a5)
  91:../Firmware/GD32VW55x_standard_peripheral/Source/gd32vw55x_adc.c ****     ADC_CCTL |= (uint32_t) prescaler;
  72              		.loc 1 91 14
  73 0026 B7270140 		li	a5,1073815552
  74 002a 93874730 		addi	a5,a5,772
  75 002e 9443     		lw	a3,0(a5)
  76 0030 B7270140 		li	a5,1073815552
  77 0034 93874730 		addi	a5,a5,772
  78 0038 0327C4FE 		lw	a4,-20(s0)
  79 003c 558F     		or	a4,a3,a4
  80 003e 98C3     		sw	a4,0(a5)
  92:../Firmware/GD32VW55x_standard_peripheral/Source/gd32vw55x_adc.c **** }
  81              		.loc 1 92 1
  82 0040 0100     		nop
  83 0042 7244     		lw	s0,28(sp)
  84              		.cfi_restore 8
  85              		.cfi_def_cfa 2, 32
  86 0044 0561     		addi	sp,sp,32
  87              		.cfi_def_cfa_offset 0
  88 0046 8280     		jr	ra
  89              		.cfi_endproc
  90              	.LFE348:
  92              		.section	.text.adc_enable,"ax",@progbits
  93              		.align	1
  94              		.globl	adc_enable
  96              	adc_enable:
  97              	.LFB349:
  93:../Firmware/GD32VW55x_standard_peripheral/Source/gd32vw55x_adc.c **** 
  94:../Firmware/GD32VW55x_standard_peripheral/Source/gd32vw55x_adc.c **** /*!
  95:../Firmware/GD32VW55x_standard_peripheral/Source/gd32vw55x_adc.c ****     \brief      enable ADC interface
  96:../Firmware/GD32VW55x_standard_peripheral/Source/gd32vw55x_adc.c ****     \param[in]  none
  97:../Firmware/GD32VW55x_standard_peripheral/Source/gd32vw55x_adc.c ****     \param[out] none
  98:../Firmware/GD32VW55x_standard_peripheral/Source/gd32vw55x_adc.c ****     \retval     none
  99:../Firmware/GD32VW55x_standard_peripheral/Source/gd32vw55x_adc.c **** */
 100:../Firmware/GD32VW55x_standard_peripheral/Source/gd32vw55x_adc.c **** void adc_enable(void)
 101:../Firmware/GD32VW55x_standard_peripheral/Source/gd32vw55x_adc.c **** {
  98              		.loc 1 101 1
  99              		.cfi_startproc
 100 0000 4111     		addi	sp,sp,-16
 101              		.cfi_def_cfa_offset 16
 102 0002 22C6     		sw	s0,12(sp)
 103              		.cfi_offset 8, -4
 104 0004 0008     		addi	s0,sp,16
 105              		.cfi_def_cfa 8, 0
 102:../Firmware/GD32VW55x_standard_peripheral/Source/gd32vw55x_adc.c ****     if(RESET == (ADC_CTL1 & ADC_CTL1_ADCON)){
 106              		.loc 1 102 18
 107 0006 B7270140 		li	a5,1073815552
 108 000a A107     		addi	a5,a5,8
 109 000c 9C43     		lw	a5,0(a5)
 110              		.loc 1 102 27
 111 000e 858B     		andi	a5,a5,1
 112              		.loc 1 102 7
 113 0010 99EB     		bne	a5,zero,.L5
 103:../Firmware/GD32VW55x_standard_peripheral/Source/gd32vw55x_adc.c ****         /* enable ADC */
 104:../Firmware/GD32VW55x_standard_peripheral/Source/gd32vw55x_adc.c ****         ADC_CTL1 |= (uint32_t)ADC_CTL1_ADCON;
 114              		.loc 1 104 18
 115 0012 B7270140 		li	a5,1073815552
 116 0016 A107     		addi	a5,a5,8
 117 0018 9843     		lw	a4,0(a5)
 118 001a B7270140 		li	a5,1073815552
 119 001e A107     		addi	a5,a5,8
 120 0020 13671700 		ori	a4,a4,1
 121 0024 98C3     		sw	a4,0(a5)
 122              	.L5:
 105:../Firmware/GD32VW55x_standard_peripheral/Source/gd32vw55x_adc.c ****     }
 106:../Firmware/GD32VW55x_standard_peripheral/Source/gd32vw55x_adc.c **** }
 123              		.loc 1 106 1
 124 0026 0100     		nop
 125 0028 3244     		lw	s0,12(sp)
 126              		.cfi_restore 8
 127              		.cfi_def_cfa 2, 16
 128 002a 4101     		addi	sp,sp,16
 129              		.cfi_def_cfa_offset 0
 130 002c 8280     		jr	ra
 131              		.cfi_endproc
 132              	.LFE349:
 134              		.section	.text.adc_disable,"ax",@progbits
 135              		.align	1
 136              		.globl	adc_disable
 138              	adc_disable:
 139              	.LFB350:
 107:../Firmware/GD32VW55x_standard_peripheral/Source/gd32vw55x_adc.c **** 
 108:../Firmware/GD32VW55x_standard_peripheral/Source/gd32vw55x_adc.c **** /*!
 109:../Firmware/GD32VW55x_standard_peripheral/Source/gd32vw55x_adc.c ****     \brief      disable ADC interface
 110:../Firmware/GD32VW55x_standard_peripheral/Source/gd32vw55x_adc.c ****     \param[in]  none
 111:../Firmware/GD32VW55x_standard_peripheral/Source/gd32vw55x_adc.c ****     \param[out] none
 112:../Firmware/GD32VW55x_standard_peripheral/Source/gd32vw55x_adc.c ****     \retval     none
 113:../Firmware/GD32VW55x_standard_peripheral/Source/gd32vw55x_adc.c **** */
 114:../Firmware/GD32VW55x_standard_peripheral/Source/gd32vw55x_adc.c **** void adc_disable(void)
 115:../Firmware/GD32VW55x_standard_peripheral/Source/gd32vw55x_adc.c **** {
 140              		.loc 1 115 1
 141              		.cfi_startproc
 142 0000 4111     		addi	sp,sp,-16
 143              		.cfi_def_cfa_offset 16
 144 0002 22C6     		sw	s0,12(sp)
 145              		.cfi_offset 8, -4
 146 0004 0008     		addi	s0,sp,16
 147              		.cfi_def_cfa 8, 0
 116:../Firmware/GD32VW55x_standard_peripheral/Source/gd32vw55x_adc.c ****     /* disable ADC */
 117:../Firmware/GD32VW55x_standard_peripheral/Source/gd32vw55x_adc.c ****     ADC_CTL1 &= ~((uint32_t)ADC_CTL1_ADCON);
 148              		.loc 1 117 14
 149 0006 B7270140 		li	a5,1073815552
 150 000a A107     		addi	a5,a5,8
 151 000c 9843     		lw	a4,0(a5)
 152 000e B7270140 		li	a5,1073815552
 153 0012 A107     		addi	a5,a5,8
 154 0014 799B     		andi	a4,a4,-2
 155 0016 98C3     		sw	a4,0(a5)
 118:../Firmware/GD32VW55x_standard_peripheral/Source/gd32vw55x_adc.c **** }
 156              		.loc 1 118 1
 157 0018 0100     		nop
 158 001a 3244     		lw	s0,12(sp)
 159              		.cfi_restore 8
 160              		.cfi_def_cfa 2, 16
 161 001c 4101     		addi	sp,sp,16
 162              		.cfi_def_cfa_offset 0
 163 001e 8280     		jr	ra
 164              		.cfi_endproc
 165              	.LFE350:
 167              		.section	.text.adc_dma_mode_enable,"ax",@progbits
 168              		.align	1
 169              		.globl	adc_dma_mode_enable
 171              	adc_dma_mode_enable:
 172              	.LFB351:
 119:../Firmware/GD32VW55x_standard_peripheral/Source/gd32vw55x_adc.c **** 
 120:../Firmware/GD32VW55x_standard_peripheral/Source/gd32vw55x_adc.c **** /*!
 121:../Firmware/GD32VW55x_standard_peripheral/Source/gd32vw55x_adc.c ****     \brief      enable DMA request
 122:../Firmware/GD32VW55x_standard_peripheral/Source/gd32vw55x_adc.c ****     \param[in]  none
 123:../Firmware/GD32VW55x_standard_peripheral/Source/gd32vw55x_adc.c ****     \param[out] none
 124:../Firmware/GD32VW55x_standard_peripheral/Source/gd32vw55x_adc.c ****     \retval     none
 125:../Firmware/GD32VW55x_standard_peripheral/Source/gd32vw55x_adc.c **** */
 126:../Firmware/GD32VW55x_standard_peripheral/Source/gd32vw55x_adc.c **** void adc_dma_mode_enable(void)
 127:../Firmware/GD32VW55x_standard_peripheral/Source/gd32vw55x_adc.c **** {
 173              		.loc 1 127 1
 174              		.cfi_startproc
 175 0000 4111     		addi	sp,sp,-16
 176              		.cfi_def_cfa_offset 16
 177 0002 22C6     		sw	s0,12(sp)
 178              		.cfi_offset 8, -4
 179 0004 0008     		addi	s0,sp,16
 180              		.cfi_def_cfa 8, 0
 128:../Firmware/GD32VW55x_standard_peripheral/Source/gd32vw55x_adc.c ****     /* enable DMA request */
 129:../Firmware/GD32VW55x_standard_peripheral/Source/gd32vw55x_adc.c ****     ADC_CTL1 |= (uint32_t)(ADC_CTL1_DMA);
 181              		.loc 1 129 14
 182 0006 B7270140 		li	a5,1073815552
 183 000a A107     		addi	a5,a5,8
 184 000c 9843     		lw	a4,0(a5)
 185 000e B7270140 		li	a5,1073815552
 186 0012 A107     		addi	a5,a5,8
 187 0014 13670710 		ori	a4,a4,256
 188 0018 98C3     		sw	a4,0(a5)
 130:../Firmware/GD32VW55x_standard_peripheral/Source/gd32vw55x_adc.c **** }
 189              		.loc 1 130 1
 190 001a 0100     		nop
 191 001c 3244     		lw	s0,12(sp)
 192              		.cfi_restore 8
 193              		.cfi_def_cfa 2, 16
 194 001e 4101     		addi	sp,sp,16
 195              		.cfi_def_cfa_offset 0
 196 0020 8280     		jr	ra
 197              		.cfi_endproc
 198              	.LFE351:
 200              		.section	.text.adc_dma_mode_disable,"ax",@progbits
 201              		.align	1
 202              		.globl	adc_dma_mode_disable
 204              	adc_dma_mode_disable:
 205              	.LFB352:
 131:../Firmware/GD32VW55x_standard_peripheral/Source/gd32vw55x_adc.c **** 
 132:../Firmware/GD32VW55x_standard_peripheral/Source/gd32vw55x_adc.c **** /*!
 133:../Firmware/GD32VW55x_standard_peripheral/Source/gd32vw55x_adc.c ****     \brief      disable DMA request
 134:../Firmware/GD32VW55x_standard_peripheral/Source/gd32vw55x_adc.c ****     \param[in]  none
 135:../Firmware/GD32VW55x_standard_peripheral/Source/gd32vw55x_adc.c ****     \param[out] none
 136:../Firmware/GD32VW55x_standard_peripheral/Source/gd32vw55x_adc.c ****     \retval     none
 137:../Firmware/GD32VW55x_standard_peripheral/Source/gd32vw55x_adc.c **** */
 138:../Firmware/GD32VW55x_standard_peripheral/Source/gd32vw55x_adc.c **** void adc_dma_mode_disable(void)
 139:../Firmware/GD32VW55x_standard_peripheral/Source/gd32vw55x_adc.c **** {
 206              		.loc 1 139 1
 207              		.cfi_startproc
 208 0000 4111     		addi	sp,sp,-16
 209              		.cfi_def_cfa_offset 16
 210 0002 22C6     		sw	s0,12(sp)
 211              		.cfi_offset 8, -4
 212 0004 0008     		addi	s0,sp,16
 213              		.cfi_def_cfa 8, 0
 140:../Firmware/GD32VW55x_standard_peripheral/Source/gd32vw55x_adc.c ****     /* disable DMA request */
 141:../Firmware/GD32VW55x_standard_peripheral/Source/gd32vw55x_adc.c ****     ADC_CTL1 &= ~((uint32_t)ADC_CTL1_DMA);
 214              		.loc 1 141 14
 215 0006 B7270140 		li	a5,1073815552
 216 000a A107     		addi	a5,a5,8
 217 000c 9843     		lw	a4,0(a5)
 218 000e B7270140 		li	a5,1073815552
 219 0012 A107     		addi	a5,a5,8
 220 0014 1377F7EF 		andi	a4,a4,-257
 221 0018 98C3     		sw	a4,0(a5)
 142:../Firmware/GD32VW55x_standard_peripheral/Source/gd32vw55x_adc.c **** }
 222              		.loc 1 142 1
 223 001a 0100     		nop
 224 001c 3244     		lw	s0,12(sp)
 225              		.cfi_restore 8
 226              		.cfi_def_cfa 2, 16
 227 001e 4101     		addi	sp,sp,16
 228              		.cfi_def_cfa_offset 0
 229 0020 8280     		jr	ra
 230              		.cfi_endproc
 231              	.LFE352:
 233              		.section	.text.adc_dma_request_after_last_enable,"ax",@progbits
 234              		.align	1
 235              		.globl	adc_dma_request_after_last_enable
 237              	adc_dma_request_after_last_enable:
 238              	.LFB353:
 143:../Firmware/GD32VW55x_standard_peripheral/Source/gd32vw55x_adc.c **** 
 144:../Firmware/GD32VW55x_standard_peripheral/Source/gd32vw55x_adc.c **** /*!
 145:../Firmware/GD32VW55x_standard_peripheral/Source/gd32vw55x_adc.c ****     \brief      when DDM=1, the DMA engine issues a request at end of each routine conversion
 146:../Firmware/GD32VW55x_standard_peripheral/Source/gd32vw55x_adc.c ****     \param[in]  none
 147:../Firmware/GD32VW55x_standard_peripheral/Source/gd32vw55x_adc.c ****     \param[out] none
 148:../Firmware/GD32VW55x_standard_peripheral/Source/gd32vw55x_adc.c ****     \retval     none
 149:../Firmware/GD32VW55x_standard_peripheral/Source/gd32vw55x_adc.c **** */
 150:../Firmware/GD32VW55x_standard_peripheral/Source/gd32vw55x_adc.c **** void adc_dma_request_after_last_enable(void)
 151:../Firmware/GD32VW55x_standard_peripheral/Source/gd32vw55x_adc.c **** {
 239              		.loc 1 151 1
 240              		.cfi_startproc
 241 0000 4111     		addi	sp,sp,-16
 242              		.cfi_def_cfa_offset 16
 243 0002 22C6     		sw	s0,12(sp)
 244              		.cfi_offset 8, -4
 245 0004 0008     		addi	s0,sp,16
 246              		.cfi_def_cfa 8, 0
 152:../Firmware/GD32VW55x_standard_peripheral/Source/gd32vw55x_adc.c ****     ADC_CTL1 |= (uint32_t)(ADC_CTL1_DDM);
 247              		.loc 1 152 14
 248 0006 B7270140 		li	a5,1073815552
 249 000a A107     		addi	a5,a5,8
 250 000c 9843     		lw	a4,0(a5)
 251 000e B7270140 		li	a5,1073815552
 252 0012 A107     		addi	a5,a5,8
 253 0014 13670720 		ori	a4,a4,512
 254 0018 98C3     		sw	a4,0(a5)
 153:../Firmware/GD32VW55x_standard_peripheral/Source/gd32vw55x_adc.c **** }
 255              		.loc 1 153 1
 256 001a 0100     		nop
 257 001c 3244     		lw	s0,12(sp)
 258              		.cfi_restore 8
 259              		.cfi_def_cfa 2, 16
 260 001e 4101     		addi	sp,sp,16
 261              		.cfi_def_cfa_offset 0
 262 0020 8280     		jr	ra
 263              		.cfi_endproc
 264              	.LFE353:
 266              		.section	.text.adc_dma_request_after_last_disable,"ax",@progbits
 267              		.align	1
 268              		.globl	adc_dma_request_after_last_disable
 270              	adc_dma_request_after_last_disable:
 271              	.LFB354:
 154:../Firmware/GD32VW55x_standard_peripheral/Source/gd32vw55x_adc.c **** 
 155:../Firmware/GD32VW55x_standard_peripheral/Source/gd32vw55x_adc.c **** /*!
 156:../Firmware/GD32VW55x_standard_peripheral/Source/gd32vw55x_adc.c ****     \brief      the DMA engine is disabled after the end of transfer signal from DMA controller is 
 157:../Firmware/GD32VW55x_standard_peripheral/Source/gd32vw55x_adc.c ****     \param[in]  none
 158:../Firmware/GD32VW55x_standard_peripheral/Source/gd32vw55x_adc.c ****     \param[out] none
 159:../Firmware/GD32VW55x_standard_peripheral/Source/gd32vw55x_adc.c ****     \retval     none
 160:../Firmware/GD32VW55x_standard_peripheral/Source/gd32vw55x_adc.c **** */
 161:../Firmware/GD32VW55x_standard_peripheral/Source/gd32vw55x_adc.c **** void adc_dma_request_after_last_disable(void)
 162:../Firmware/GD32VW55x_standard_peripheral/Source/gd32vw55x_adc.c **** {
 272              		.loc 1 162 1
 273              		.cfi_startproc
 274 0000 4111     		addi	sp,sp,-16
 275              		.cfi_def_cfa_offset 16
 276 0002 22C6     		sw	s0,12(sp)
 277              		.cfi_offset 8, -4
 278 0004 0008     		addi	s0,sp,16
 279              		.cfi_def_cfa 8, 0
 163:../Firmware/GD32VW55x_standard_peripheral/Source/gd32vw55x_adc.c ****     ADC_CTL1 &= ~((uint32_t)ADC_CTL1_DDM);
 280              		.loc 1 163 14
 281 0006 B7270140 		li	a5,1073815552
 282 000a A107     		addi	a5,a5,8
 283 000c 9843     		lw	a4,0(a5)
 284 000e B7270140 		li	a5,1073815552
 285 0012 A107     		addi	a5,a5,8
 286 0014 1377F7DF 		andi	a4,a4,-513
 287 0018 98C3     		sw	a4,0(a5)
 164:../Firmware/GD32VW55x_standard_peripheral/Source/gd32vw55x_adc.c **** }
 288              		.loc 1 164 1
 289 001a 0100     		nop
 290 001c 3244     		lw	s0,12(sp)
 291              		.cfi_restore 8
 292              		.cfi_def_cfa 2, 16
 293 001e 4101     		addi	sp,sp,16
 294              		.cfi_def_cfa_offset 0
 295 0020 8280     		jr	ra
 296              		.cfi_endproc
 297              	.LFE354:
 299              		.section	.text.adc_discontinuous_mode_config,"ax",@progbits
 300              		.align	1
 301              		.globl	adc_discontinuous_mode_config
 303              	adc_discontinuous_mode_config:
 304              	.LFB355:
 165:../Firmware/GD32VW55x_standard_peripheral/Source/gd32vw55x_adc.c **** 
 166:../Firmware/GD32VW55x_standard_peripheral/Source/gd32vw55x_adc.c **** /*!
 167:../Firmware/GD32VW55x_standard_peripheral/Source/gd32vw55x_adc.c ****     \brief      configure ADC discontinuous mode
 168:../Firmware/GD32VW55x_standard_peripheral/Source/gd32vw55x_adc.c ****     \param[in]  channel_group: select the channel group
 169:../Firmware/GD32VW55x_standard_peripheral/Source/gd32vw55x_adc.c ****                 only one parameter can be selected which is shown as below:
 170:../Firmware/GD32VW55x_standard_peripheral/Source/gd32vw55x_adc.c ****       \arg        ADC_ROUTINE_CHANNEL: routine channel group
 171:../Firmware/GD32VW55x_standard_peripheral/Source/gd32vw55x_adc.c ****       \arg        ADC_INSERTED_CHANNEL: inserted channel group
 172:../Firmware/GD32VW55x_standard_peripheral/Source/gd32vw55x_adc.c ****       \arg        ADC_CHANNEL_DISCON_DISABLE: disable discontinuous mode of routine and inserted ch
 173:../Firmware/GD32VW55x_standard_peripheral/Source/gd32vw55x_adc.c ****     \param[in]  length: number of conversions in discontinuous mode,the number can be 1..8
 174:../Firmware/GD32VW55x_standard_peripheral/Source/gd32vw55x_adc.c ****                         for routine channel ,the number has no effect for inserted channel
 175:../Firmware/GD32VW55x_standard_peripheral/Source/gd32vw55x_adc.c ****     \param[out] none
 176:../Firmware/GD32VW55x_standard_peripheral/Source/gd32vw55x_adc.c ****     \retval     none
 177:../Firmware/GD32VW55x_standard_peripheral/Source/gd32vw55x_adc.c **** */
 178:../Firmware/GD32VW55x_standard_peripheral/Source/gd32vw55x_adc.c **** void adc_discontinuous_mode_config(uint8_t channel_group, uint8_t length)
 179:../Firmware/GD32VW55x_standard_peripheral/Source/gd32vw55x_adc.c **** {
 305              		.loc 1 179 1
 306              		.cfi_startproc
 307 0000 0111     		addi	sp,sp,-32
 308              		.cfi_def_cfa_offset 32
 309 0002 22CE     		sw	s0,28(sp)
 310              		.cfi_offset 8, -4
 311 0004 0010     		addi	s0,sp,32
 312              		.cfi_def_cfa 8, 0
 313 0006 AA87     		mv	a5,a0
 314 0008 2E87     		mv	a4,a1
 315 000a A307F4FE 		sb	a5,-17(s0)
 316 000e BA87     		mv	a5,a4
 317 0010 2307F4FE 		sb	a5,-18(s0)
 180:../Firmware/GD32VW55x_standard_peripheral/Source/gd32vw55x_adc.c ****     /* disable discontinuous mode of routine & inserted channel */
 181:../Firmware/GD32VW55x_standard_peripheral/Source/gd32vw55x_adc.c ****     ADC_CTL0 &= ~((uint32_t)( ADC_CTL0_DISRC | ADC_CTL0_DISIC ));
 318              		.loc 1 181 14
 319 0014 B7270140 		li	a5,1073815552
 320 0018 9107     		addi	a5,a5,4
 321 001a 9443     		lw	a3,0(a5)
 322 001c B7270140 		li	a5,1073815552
 323 0020 9107     		addi	a5,a5,4
 324 0022 7977     		li	a4,-8192
 325 0024 1307F77F 		addi	a4,a4,2047
 326 0028 758F     		and	a4,a3,a4
 327 002a 98C3     		sw	a4,0(a5)
 182:../Firmware/GD32VW55x_standard_peripheral/Source/gd32vw55x_adc.c ****     switch(channel_group){
 328              		.loc 1 182 5
 329 002c 8347F4FE 		lbu	a5,-17(s0)
 330 0030 0547     		li	a4,1
 331 0032 6386E700 		beq	a5,a4,.L12
 332 0036 0947     		li	a4,2
 333 0038 6384E706 		beq	a5,a4,.L13
 183:../Firmware/GD32VW55x_standard_peripheral/Source/gd32vw55x_adc.c ****     case ADC_ROUTINE_CHANNEL:
 184:../Firmware/GD32VW55x_standard_peripheral/Source/gd32vw55x_adc.c ****         /* configure the number of conversions in discontinuous mode  */
 185:../Firmware/GD32VW55x_standard_peripheral/Source/gd32vw55x_adc.c ****         ADC_CTL0 &= ~((uint32_t)ADC_CTL0_DISNUM);
 186:../Firmware/GD32VW55x_standard_peripheral/Source/gd32vw55x_adc.c ****         if((length <= 8U) && (length >= 1U)){
 187:../Firmware/GD32VW55x_standard_peripheral/Source/gd32vw55x_adc.c ****             ADC_CTL0 |= CTL0_DISNUM(((uint32_t)length - ADC_CHANNEL_LENGTH_SUBTRACT_ONE));
 188:../Firmware/GD32VW55x_standard_peripheral/Source/gd32vw55x_adc.c ****         }
 189:../Firmware/GD32VW55x_standard_peripheral/Source/gd32vw55x_adc.c ****         /* enable routine channel group discontinuous mode */
 190:../Firmware/GD32VW55x_standard_peripheral/Source/gd32vw55x_adc.c ****         ADC_CTL0 |= (uint32_t)ADC_CTL0_DISRC;
 191:../Firmware/GD32VW55x_standard_peripheral/Source/gd32vw55x_adc.c ****         break;
 192:../Firmware/GD32VW55x_standard_peripheral/Source/gd32vw55x_adc.c ****     case ADC_INSERTED_CHANNEL:
 193:../Firmware/GD32VW55x_standard_peripheral/Source/gd32vw55x_adc.c ****         /* enable inserted channel group discontinuous mode */
 194:../Firmware/GD32VW55x_standard_peripheral/Source/gd32vw55x_adc.c ****         ADC_CTL0 |= (uint32_t)ADC_CTL0_DISIC;
 195:../Firmware/GD32VW55x_standard_peripheral/Source/gd32vw55x_adc.c ****         break;
 196:../Firmware/GD32VW55x_standard_peripheral/Source/gd32vw55x_adc.c ****     case ADC_CHANNEL_DISCON_DISABLE:
 197:../Firmware/GD32VW55x_standard_peripheral/Source/gd32vw55x_adc.c ****         /* disable discontinuous mode of routine & inserted channel */
 198:../Firmware/GD32VW55x_standard_peripheral/Source/gd32vw55x_adc.c ****     default:
 199:../Firmware/GD32VW55x_standard_peripheral/Source/gd32vw55x_adc.c ****         break;
 334              		.loc 1 199 9
 335 003c ADA8     		j	.L16
 336              	.L12:
 185:../Firmware/GD32VW55x_standard_peripheral/Source/gd32vw55x_adc.c ****         if((length <= 8U) && (length >= 1U)){
 337              		.loc 1 185 18
 338 003e B7270140 		li	a5,1073815552
 339 0042 9107     		addi	a5,a5,4
 340 0044 9443     		lw	a3,0(a5)
 341 0046 B7270140 		li	a5,1073815552
 342 004a 9107     		addi	a5,a5,4
 343 004c 4977     		li	a4,-57344
 344 004e 7D17     		addi	a4,a4,-1
 345 0050 758F     		and	a4,a3,a4
 346 0052 98C3     		sw	a4,0(a5)
 186:../Firmware/GD32VW55x_standard_peripheral/Source/gd32vw55x_adc.c ****             ADC_CTL0 |= CTL0_DISNUM(((uint32_t)length - ADC_CHANNEL_LENGTH_SUBTRACT_ONE));
 347              		.loc 1 186 11
 348 0054 0347E4FE 		lbu	a4,-18(s0)
 349 0058 A147     		li	a5,8
 350 005a 63E6E702 		bgtu	a4,a5,.L15
 186:../Firmware/GD32VW55x_standard_peripheral/Source/gd32vw55x_adc.c ****             ADC_CTL0 |= CTL0_DISNUM(((uint32_t)length - ADC_CHANNEL_LENGTH_SUBTRACT_ONE));
 351              		.loc 1 186 27 discriminator 1
 352 005e 8347E4FE 		lbu	a5,-18(s0)
 353 0062 95C3     		beq	a5,zero,.L15
 187:../Firmware/GD32VW55x_standard_peripheral/Source/gd32vw55x_adc.c ****         }
 354              		.loc 1 187 22
 355 0064 B7270140 		li	a5,1073815552
 356 0068 9107     		addi	a5,a5,4
 357 006a 9443     		lw	a3,0(a5)
 187:../Firmware/GD32VW55x_standard_peripheral/Source/gd32vw55x_adc.c ****         }
 358              		.loc 1 187 25
 359 006c 8347E4FE 		lbu	a5,-18(s0)
 360 0070 FD17     		addi	a5,a5,-1
 361 0072 1397D700 		slli	a4,a5,13
 362 0076 C167     		li	a5,65536
 363 0078 FD17     		addi	a5,a5,-1
 364 007a 7D8F     		and	a4,a4,a5
 187:../Firmware/GD32VW55x_standard_peripheral/Source/gd32vw55x_adc.c ****         }
 365              		.loc 1 187 22
 366 007c B7270140 		li	a5,1073815552
 367 0080 9107     		addi	a5,a5,4
 368 0082 558F     		or	a4,a3,a4
 369 0084 98C3     		sw	a4,0(a5)
 370              	.L15:
 190:../Firmware/GD32VW55x_standard_peripheral/Source/gd32vw55x_adc.c ****         break;
 371              		.loc 1 190 18
 372 0086 B7270140 		li	a5,1073815552
 373 008a 9107     		addi	a5,a5,4
 374 008c 9443     		lw	a3,0(a5)
 375 008e B7270140 		li	a5,1073815552
 376 0092 9107     		addi	a5,a5,4
 377 0094 0567     		li	a4,4096
 378 0096 13070780 		addi	a4,a4,-2048
 379 009a 558F     		or	a4,a3,a4
 380 009c 98C3     		sw	a4,0(a5)
 191:../Firmware/GD32VW55x_standard_peripheral/Source/gd32vw55x_adc.c ****     case ADC_INSERTED_CHANNEL:
 381              		.loc 1 191 9
 382 009e 21A8     		j	.L16
 383              	.L13:
 194:../Firmware/GD32VW55x_standard_peripheral/Source/gd32vw55x_adc.c ****         break;
 384              		.loc 1 194 18
 385 00a0 B7270140 		li	a5,1073815552
 386 00a4 9107     		addi	a5,a5,4
 387 00a6 9443     		lw	a3,0(a5)
 388 00a8 B7270140 		li	a5,1073815552
 389 00ac 9107     		addi	a5,a5,4
 390 00ae 0567     		li	a4,4096
 391 00b0 558F     		or	a4,a3,a4
 392 00b2 98C3     		sw	a4,0(a5)
 195:../Firmware/GD32VW55x_standard_peripheral/Source/gd32vw55x_adc.c ****     case ADC_CHANNEL_DISCON_DISABLE:
 393              		.loc 1 195 9
 394 00b4 0100     		nop
 395              	.L16:
 200:../Firmware/GD32VW55x_standard_peripheral/Source/gd32vw55x_adc.c ****     }
 201:../Firmware/GD32VW55x_standard_peripheral/Source/gd32vw55x_adc.c **** }
 396              		.loc 1 201 1
 397 00b6 0100     		nop
 398 00b8 7244     		lw	s0,28(sp)
 399              		.cfi_restore 8
 400              		.cfi_def_cfa 2, 32
 401 00ba 0561     		addi	sp,sp,32
 402              		.cfi_def_cfa_offset 0
 403 00bc 8280     		jr	ra
 404              		.cfi_endproc
 405              	.LFE355:
 407              		.section	.text.adc_special_function_config,"ax",@progbits
 408              		.align	1
 409              		.globl	adc_special_function_config
 411              	adc_special_function_config:
 412              	.LFB356:
 202:../Firmware/GD32VW55x_standard_peripheral/Source/gd32vw55x_adc.c **** 
 203:../Firmware/GD32VW55x_standard_peripheral/Source/gd32vw55x_adc.c **** /*!
 204:../Firmware/GD32VW55x_standard_peripheral/Source/gd32vw55x_adc.c ****     \brief      configure ADC special function
 205:../Firmware/GD32VW55x_standard_peripheral/Source/gd32vw55x_adc.c ****     \param[in]  function: the function to configure
 206:../Firmware/GD32VW55x_standard_peripheral/Source/gd32vw55x_adc.c ****                 one or more parameters can be selected which is shown as below:
 207:../Firmware/GD32VW55x_standard_peripheral/Source/gd32vw55x_adc.c ****       \arg        ADC_SCAN_MODE: scan mode select
 208:../Firmware/GD32VW55x_standard_peripheral/Source/gd32vw55x_adc.c ****       \arg        ADC_INSERTED_CHANNEL_AUTO: inserted channel group convert automatically
 209:../Firmware/GD32VW55x_standard_peripheral/Source/gd32vw55x_adc.c ****       \arg        ADC_CONTINUOUS_MODE: continuous mode select
 210:../Firmware/GD32VW55x_standard_peripheral/Source/gd32vw55x_adc.c ****     \param[in]  newvalue: ENABLE or DISABLE
 211:../Firmware/GD32VW55x_standard_peripheral/Source/gd32vw55x_adc.c ****     \param[out] none
 212:../Firmware/GD32VW55x_standard_peripheral/Source/gd32vw55x_adc.c ****     \retval     none
 213:../Firmware/GD32VW55x_standard_peripheral/Source/gd32vw55x_adc.c **** */
 214:../Firmware/GD32VW55x_standard_peripheral/Source/gd32vw55x_adc.c **** void adc_special_function_config(uint32_t function, ControlStatus newvalue)
 215:../Firmware/GD32VW55x_standard_peripheral/Source/gd32vw55x_adc.c **** {
 413              		.loc 1 215 1
 414              		.cfi_startproc
 415 0000 0111     		addi	sp,sp,-32
 416              		.cfi_def_cfa_offset 32
 417 0002 22CE     		sw	s0,28(sp)
 418              		.cfi_offset 8, -4
 419 0004 0010     		addi	s0,sp,32
 420              		.cfi_def_cfa 8, 0
 421 0006 2326A4FE 		sw	a0,-20(s0)
 422 000a 2324B4FE 		sw	a1,-24(s0)
 216:../Firmware/GD32VW55x_standard_peripheral/Source/gd32vw55x_adc.c ****     if(newvalue){
 423              		.loc 1 216 7
 424 000e 832784FE 		lw	a5,-24(s0)
 425 0012 B1CF     		beq	a5,zero,.L18
 217:../Firmware/GD32VW55x_standard_peripheral/Source/gd32vw55x_adc.c ****         if(RESET != (function & ADC_SCAN_MODE)){
 426              		.loc 1 217 31
 427 0014 8327C4FE 		lw	a5,-20(s0)
 428 0018 93F70710 		andi	a5,a5,256
 429              		.loc 1 217 11
 430 001c 99CB     		beq	a5,zero,.L19
 218:../Firmware/GD32VW55x_standard_peripheral/Source/gd32vw55x_adc.c ****             /* enable scan mode */
 219:../Firmware/GD32VW55x_standard_peripheral/Source/gd32vw55x_adc.c ****             ADC_CTL0 |= ADC_SCAN_MODE;
 431              		.loc 1 219 22
 432 001e B7270140 		li	a5,1073815552
 433 0022 9107     		addi	a5,a5,4
 434 0024 9843     		lw	a4,0(a5)
 435 0026 B7270140 		li	a5,1073815552
 436 002a 9107     		addi	a5,a5,4
 437 002c 13670710 		ori	a4,a4,256
 438 0030 98C3     		sw	a4,0(a5)
 439              	.L19:
 220:../Firmware/GD32VW55x_standard_peripheral/Source/gd32vw55x_adc.c ****         }
 221:../Firmware/GD32VW55x_standard_peripheral/Source/gd32vw55x_adc.c ****         if(RESET != (function & ADC_INSERTED_CHANNEL_AUTO)){
 440              		.loc 1 221 31
 441 0032 8327C4FE 		lw	a5,-20(s0)
 442 0036 93F70740 		andi	a5,a5,1024
 443              		.loc 1 221 11
 444 003a 99CB     		beq	a5,zero,.L20
 222:../Firmware/GD32VW55x_standard_peripheral/Source/gd32vw55x_adc.c ****             /* enable inserted channel group convert automatically */
 223:../Firmware/GD32VW55x_standard_peripheral/Source/gd32vw55x_adc.c ****             ADC_CTL0 |= ADC_INSERTED_CHANNEL_AUTO;
 445              		.loc 1 223 22
 446 003c B7270140 		li	a5,1073815552
 447 0040 9107     		addi	a5,a5,4
 448 0042 9843     		lw	a4,0(a5)
 449 0044 B7270140 		li	a5,1073815552
 450 0048 9107     		addi	a5,a5,4
 451 004a 13670740 		ori	a4,a4,1024
 452 004e 98C3     		sw	a4,0(a5)
 453              	.L20:
 224:../Firmware/GD32VW55x_standard_peripheral/Source/gd32vw55x_adc.c ****         }
 225:../Firmware/GD32VW55x_standard_peripheral/Source/gd32vw55x_adc.c ****         if(RESET != (function & ADC_CONTINUOUS_MODE)){
 454              		.loc 1 225 31
 455 0050 8327C4FE 		lw	a5,-20(s0)
 456 0054 898B     		andi	a5,a5,2
 457              		.loc 1 225 11
 458 0056 BDC7     		beq	a5,zero,.L24
 226:../Firmware/GD32VW55x_standard_peripheral/Source/gd32vw55x_adc.c ****             /* enable continuous mode */
 227:../Firmware/GD32VW55x_standard_peripheral/Source/gd32vw55x_adc.c ****             ADC_CTL1 |= ADC_CONTINUOUS_MODE;
 459              		.loc 1 227 22
 460 0058 B7270140 		li	a5,1073815552
 461 005c A107     		addi	a5,a5,8
 462 005e 9843     		lw	a4,0(a5)
 463 0060 B7270140 		li	a5,1073815552
 464 0064 A107     		addi	a5,a5,8
 465 0066 13672700 		ori	a4,a4,2
 466 006a 98C3     		sw	a4,0(a5)
 228:../Firmware/GD32VW55x_standard_peripheral/Source/gd32vw55x_adc.c ****         }
 229:../Firmware/GD32VW55x_standard_peripheral/Source/gd32vw55x_adc.c ****     }else{
 230:../Firmware/GD32VW55x_standard_peripheral/Source/gd32vw55x_adc.c ****         if(RESET != (function & ADC_SCAN_MODE)){
 231:../Firmware/GD32VW55x_standard_peripheral/Source/gd32vw55x_adc.c ****             /* disable scan mode */
 232:../Firmware/GD32VW55x_standard_peripheral/Source/gd32vw55x_adc.c ****             ADC_CTL0 &= ~ADC_SCAN_MODE;
 233:../Firmware/GD32VW55x_standard_peripheral/Source/gd32vw55x_adc.c ****         }
 234:../Firmware/GD32VW55x_standard_peripheral/Source/gd32vw55x_adc.c ****         if(RESET != (function & ADC_INSERTED_CHANNEL_AUTO)){
 235:../Firmware/GD32VW55x_standard_peripheral/Source/gd32vw55x_adc.c ****             /* disable inserted channel group convert automatically */
 236:../Firmware/GD32VW55x_standard_peripheral/Source/gd32vw55x_adc.c ****             ADC_CTL0 &= ~ADC_INSERTED_CHANNEL_AUTO;
 237:../Firmware/GD32VW55x_standard_peripheral/Source/gd32vw55x_adc.c ****         }
 238:../Firmware/GD32VW55x_standard_peripheral/Source/gd32vw55x_adc.c ****         if(RESET != (function & ADC_CONTINUOUS_MODE)){
 239:../Firmware/GD32VW55x_standard_peripheral/Source/gd32vw55x_adc.c ****             /* disable continuous mode */
 240:../Firmware/GD32VW55x_standard_peripheral/Source/gd32vw55x_adc.c ****             ADC_CTL1 &= ~ADC_CONTINUOUS_MODE;
 241:../Firmware/GD32VW55x_standard_peripheral/Source/gd32vw55x_adc.c ****         }
 242:../Firmware/GD32VW55x_standard_peripheral/Source/gd32vw55x_adc.c ****     }
 243:../Firmware/GD32VW55x_standard_peripheral/Source/gd32vw55x_adc.c **** }
 467              		.loc 1 243 1
 468 006c A1A8     		j	.L24
 469              	.L18:
 230:../Firmware/GD32VW55x_standard_peripheral/Source/gd32vw55x_adc.c ****             /* disable scan mode */
 470              		.loc 1 230 31
 471 006e 8327C4FE 		lw	a5,-20(s0)
 472 0072 93F70710 		andi	a5,a5,256
 230:../Firmware/GD32VW55x_standard_peripheral/Source/gd32vw55x_adc.c ****             /* disable scan mode */
 473              		.loc 1 230 11
 474 0076 99CB     		beq	a5,zero,.L22
 232:../Firmware/GD32VW55x_standard_peripheral/Source/gd32vw55x_adc.c ****         }
 475              		.loc 1 232 22
 476 0078 B7270140 		li	a5,1073815552
 477 007c 9107     		addi	a5,a5,4
 478 007e 9843     		lw	a4,0(a5)
 479 0080 B7270140 		li	a5,1073815552
 480 0084 9107     		addi	a5,a5,4
 481 0086 1377F7EF 		andi	a4,a4,-257
 482 008a 98C3     		sw	a4,0(a5)
 483              	.L22:
 234:../Firmware/GD32VW55x_standard_peripheral/Source/gd32vw55x_adc.c ****             /* disable inserted channel group convert automatically */
 484              		.loc 1 234 31
 485 008c 8327C4FE 		lw	a5,-20(s0)
 486 0090 93F70740 		andi	a5,a5,1024
 234:../Firmware/GD32VW55x_standard_peripheral/Source/gd32vw55x_adc.c ****             /* disable inserted channel group convert automatically */
 487              		.loc 1 234 11
 488 0094 99CB     		beq	a5,zero,.L23
 236:../Firmware/GD32VW55x_standard_peripheral/Source/gd32vw55x_adc.c ****         }
 489              		.loc 1 236 22
 490 0096 B7270140 		li	a5,1073815552
 491 009a 9107     		addi	a5,a5,4
 492 009c 9843     		lw	a4,0(a5)
 493 009e B7270140 		li	a5,1073815552
 494 00a2 9107     		addi	a5,a5,4
 495 00a4 1377F7BF 		andi	a4,a4,-1025
 496 00a8 98C3     		sw	a4,0(a5)
 497              	.L23:
 238:../Firmware/GD32VW55x_standard_peripheral/Source/gd32vw55x_adc.c ****             /* disable continuous mode */
 498              		.loc 1 238 31
 499 00aa 8327C4FE 		lw	a5,-20(s0)
 500 00ae 898B     		andi	a5,a5,2
 238:../Firmware/GD32VW55x_standard_peripheral/Source/gd32vw55x_adc.c ****             /* disable continuous mode */
 501              		.loc 1 238 11
 502 00b0 91CB     		beq	a5,zero,.L24
 240:../Firmware/GD32VW55x_standard_peripheral/Source/gd32vw55x_adc.c ****         }
 503              		.loc 1 240 22
 504 00b2 B7270140 		li	a5,1073815552
 505 00b6 A107     		addi	a5,a5,8
 506 00b8 9843     		lw	a4,0(a5)
 507 00ba B7270140 		li	a5,1073815552
 508 00be A107     		addi	a5,a5,8
 509 00c0 759B     		andi	a4,a4,-3
 510 00c2 98C3     		sw	a4,0(a5)
 511              	.L24:
 512              		.loc 1 243 1
 513 00c4 0100     		nop
 514 00c6 7244     		lw	s0,28(sp)
 515              		.cfi_restore 8
 516              		.cfi_def_cfa 2, 32
 517 00c8 0561     		addi	sp,sp,32
 518              		.cfi_def_cfa_offset 0
 519 00ca 8280     		jr	ra
 520              		.cfi_endproc
 521              	.LFE356:
 523              		.section	.text.adc_tempsensor_vrefint_enable,"ax",@progbits
 524              		.align	1
 525              		.globl	adc_tempsensor_vrefint_enable
 527              	adc_tempsensor_vrefint_enable:
 528              	.LFB357:
 244:../Firmware/GD32VW55x_standard_peripheral/Source/gd32vw55x_adc.c **** 
 245:../Firmware/GD32VW55x_standard_peripheral/Source/gd32vw55x_adc.c **** /*!
 246:../Firmware/GD32VW55x_standard_peripheral/Source/gd32vw55x_adc.c ****     \brief      enable the temperature sensor and Vrefint channel
 247:../Firmware/GD32VW55x_standard_peripheral/Source/gd32vw55x_adc.c ****     \param[in]  none
 248:../Firmware/GD32VW55x_standard_peripheral/Source/gd32vw55x_adc.c ****     \param[out] none
 249:../Firmware/GD32VW55x_standard_peripheral/Source/gd32vw55x_adc.c ****     \retval     none
 250:../Firmware/GD32VW55x_standard_peripheral/Source/gd32vw55x_adc.c **** */
 251:../Firmware/GD32VW55x_standard_peripheral/Source/gd32vw55x_adc.c **** void adc_tempsensor_vrefint_enable(void)
 252:../Firmware/GD32VW55x_standard_peripheral/Source/gd32vw55x_adc.c **** {
 529              		.loc 1 252 1
 530              		.cfi_startproc
 531 0000 4111     		addi	sp,sp,-16
 532              		.cfi_def_cfa_offset 16
 533 0002 22C6     		sw	s0,12(sp)
 534              		.cfi_offset 8, -4
 535 0004 0008     		addi	s0,sp,16
 536              		.cfi_def_cfa 8, 0
 253:../Firmware/GD32VW55x_standard_peripheral/Source/gd32vw55x_adc.c ****     /* enable the temperature sensor and Vrefint channel */
 254:../Firmware/GD32VW55x_standard_peripheral/Source/gd32vw55x_adc.c ****     ADC_CCTL |= ADC_CCTL_TSVREN;
 537              		.loc 1 254 14
 538 0006 B7270140 		li	a5,1073815552
 539 000a 93874730 		addi	a5,a5,772
 540 000e 9443     		lw	a3,0(a5)
 541 0010 B7270140 		li	a5,1073815552
 542 0014 93874730 		addi	a5,a5,772
 543 0018 37078000 		li	a4,8388608
 544 001c 558F     		or	a4,a3,a4
 545 001e 98C3     		sw	a4,0(a5)
 255:../Firmware/GD32VW55x_standard_peripheral/Source/gd32vw55x_adc.c **** }
 546              		.loc 1 255 1
 547 0020 0100     		nop
 548 0022 3244     		lw	s0,12(sp)
 549              		.cfi_restore 8
 550              		.cfi_def_cfa 2, 16
 551 0024 4101     		addi	sp,sp,16
 552              		.cfi_def_cfa_offset 0
 553 0026 8280     		jr	ra
 554              		.cfi_endproc
 555              	.LFE357:
 557              		.section	.text.adc_tempsensor_vrefint_disable,"ax",@progbits
 558              		.align	1
 559              		.globl	adc_tempsensor_vrefint_disable
 561              	adc_tempsensor_vrefint_disable:
 562              	.LFB358:
 256:../Firmware/GD32VW55x_standard_peripheral/Source/gd32vw55x_adc.c **** 
 257:../Firmware/GD32VW55x_standard_peripheral/Source/gd32vw55x_adc.c **** /*!
 258:../Firmware/GD32VW55x_standard_peripheral/Source/gd32vw55x_adc.c ****     \brief      disable the temperature sensor and Vrefint channel
 259:../Firmware/GD32VW55x_standard_peripheral/Source/gd32vw55x_adc.c ****     \param[in]  none
 260:../Firmware/GD32VW55x_standard_peripheral/Source/gd32vw55x_adc.c ****     \param[out] none
 261:../Firmware/GD32VW55x_standard_peripheral/Source/gd32vw55x_adc.c ****     \retval     none
 262:../Firmware/GD32VW55x_standard_peripheral/Source/gd32vw55x_adc.c **** */
 263:../Firmware/GD32VW55x_standard_peripheral/Source/gd32vw55x_adc.c **** void adc_tempsensor_vrefint_disable(void)
 264:../Firmware/GD32VW55x_standard_peripheral/Source/gd32vw55x_adc.c **** {
 563              		.loc 1 264 1
 564              		.cfi_startproc
 565 0000 4111     		addi	sp,sp,-16
 566              		.cfi_def_cfa_offset 16
 567 0002 22C6     		sw	s0,12(sp)
 568              		.cfi_offset 8, -4
 569 0004 0008     		addi	s0,sp,16
 570              		.cfi_def_cfa 8, 0
 265:../Firmware/GD32VW55x_standard_peripheral/Source/gd32vw55x_adc.c ****     /* disable the temperature sensor and Vrefint channel */
 266:../Firmware/GD32VW55x_standard_peripheral/Source/gd32vw55x_adc.c ****     ADC_CCTL &= ~ADC_CCTL_TSVREN;
 571              		.loc 1 266 14
 572 0006 B7270140 		li	a5,1073815552
 573 000a 93874730 		addi	a5,a5,772
 574 000e 9443     		lw	a3,0(a5)
 575 0010 B7270140 		li	a5,1073815552
 576 0014 93874730 		addi	a5,a5,772
 577 0018 370780FF 		li	a4,-8388608
 578 001c 7D17     		addi	a4,a4,-1
 579 001e 758F     		and	a4,a3,a4
 580 0020 98C3     		sw	a4,0(a5)
 267:../Firmware/GD32VW55x_standard_peripheral/Source/gd32vw55x_adc.c **** }
 581              		.loc 1 267 1
 582 0022 0100     		nop
 583 0024 3244     		lw	s0,12(sp)
 584              		.cfi_restore 8
 585              		.cfi_def_cfa 2, 16
 586 0026 4101     		addi	sp,sp,16
 587              		.cfi_def_cfa_offset 0
 588 0028 8280     		jr	ra
 589              		.cfi_endproc
 590              	.LFE358:
 592              		.section	.text.adc_data_alignment_config,"ax",@progbits
 593              		.align	1
 594              		.globl	adc_data_alignment_config
 596              	adc_data_alignment_config:
 597              	.LFB359:
 268:../Firmware/GD32VW55x_standard_peripheral/Source/gd32vw55x_adc.c **** 
 269:../Firmware/GD32VW55x_standard_peripheral/Source/gd32vw55x_adc.c **** /*!
 270:../Firmware/GD32VW55x_standard_peripheral/Source/gd32vw55x_adc.c ****     \brief      configure ADC data alignment
 271:../Firmware/GD32VW55x_standard_peripheral/Source/gd32vw55x_adc.c ****     \param[in]  data_alignment: data alignment select
 272:../Firmware/GD32VW55x_standard_peripheral/Source/gd32vw55x_adc.c ****                 only one parameter can be selected which is shown as below:
 273:../Firmware/GD32VW55x_standard_peripheral/Source/gd32vw55x_adc.c ****       \arg        ADC_DATAALIGN_RIGHT: right alignment
 274:../Firmware/GD32VW55x_standard_peripheral/Source/gd32vw55x_adc.c ****       \arg        ADC_DATAALIGN_LEFT: left alignment
 275:../Firmware/GD32VW55x_standard_peripheral/Source/gd32vw55x_adc.c ****     \param[out] none
 276:../Firmware/GD32VW55x_standard_peripheral/Source/gd32vw55x_adc.c ****     \retval     none
 277:../Firmware/GD32VW55x_standard_peripheral/Source/gd32vw55x_adc.c **** */
 278:../Firmware/GD32VW55x_standard_peripheral/Source/gd32vw55x_adc.c **** void adc_data_alignment_config(uint32_t data_alignment)
 279:../Firmware/GD32VW55x_standard_peripheral/Source/gd32vw55x_adc.c **** {
 598              		.loc 1 279 1
 599              		.cfi_startproc
 600 0000 0111     		addi	sp,sp,-32
 601              		.cfi_def_cfa_offset 32
 602 0002 22CE     		sw	s0,28(sp)
 603              		.cfi_offset 8, -4
 604 0004 0010     		addi	s0,sp,32
 605              		.cfi_def_cfa 8, 0
 606 0006 2326A4FE 		sw	a0,-20(s0)
 280:../Firmware/GD32VW55x_standard_peripheral/Source/gd32vw55x_adc.c ****     if(ADC_DATAALIGN_RIGHT != data_alignment){
 607              		.loc 1 280 7
 608 000a 8327C4FE 		lw	a5,-20(s0)
 609 000e 91CF     		beq	a5,zero,.L28
 281:../Firmware/GD32VW55x_standard_peripheral/Source/gd32vw55x_adc.c ****         /* left alignment */
 282:../Firmware/GD32VW55x_standard_peripheral/Source/gd32vw55x_adc.c ****         ADC_CTL1 |= ADC_CTL1_DAL;
 610              		.loc 1 282 18
 611 0010 B7270140 		li	a5,1073815552
 612 0014 A107     		addi	a5,a5,8
 613 0016 9443     		lw	a3,0(a5)
 614 0018 B7270140 		li	a5,1073815552
 615 001c A107     		addi	a5,a5,8
 616 001e 0567     		li	a4,4096
 617 0020 13070780 		addi	a4,a4,-2048
 618 0024 558F     		or	a4,a3,a4
 619 0026 98C3     		sw	a4,0(a5)
 283:../Firmware/GD32VW55x_standard_peripheral/Source/gd32vw55x_adc.c ****     }else{
 284:../Firmware/GD32VW55x_standard_peripheral/Source/gd32vw55x_adc.c ****         /* right alignment */
 285:../Firmware/GD32VW55x_standard_peripheral/Source/gd32vw55x_adc.c ****         ADC_CTL1 &= ~((uint32_t)ADC_CTL1_DAL);
 286:../Firmware/GD32VW55x_standard_peripheral/Source/gd32vw55x_adc.c ****     }
 287:../Firmware/GD32VW55x_standard_peripheral/Source/gd32vw55x_adc.c **** }
 620              		.loc 1 287 1
 621 0028 29A8     		j	.L30
 622              	.L28:
 285:../Firmware/GD32VW55x_standard_peripheral/Source/gd32vw55x_adc.c ****     }
 623              		.loc 1 285 18
 624 002a B7270140 		li	a5,1073815552
 625 002e A107     		addi	a5,a5,8
 626 0030 9443     		lw	a3,0(a5)
 627 0032 B7270140 		li	a5,1073815552
 628 0036 A107     		addi	a5,a5,8
 629 0038 7D77     		li	a4,-4096
 630 003a 1307F77F 		addi	a4,a4,2047
 631 003e 758F     		and	a4,a3,a4
 632 0040 98C3     		sw	a4,0(a5)
 633              	.L30:
 634              		.loc 1 287 1
 635 0042 0100     		nop
 636 0044 7244     		lw	s0,28(sp)
 637              		.cfi_restore 8
 638              		.cfi_def_cfa 2, 32
 639 0046 0561     		addi	sp,sp,32
 640              		.cfi_def_cfa_offset 0
 641 0048 8280     		jr	ra
 642              		.cfi_endproc
 643              	.LFE359:
 645              		.section	.text.adc_channel_length_config,"ax",@progbits
 646              		.align	1
 647              		.globl	adc_channel_length_config
 649              	adc_channel_length_config:
 650              	.LFB360:
 288:../Firmware/GD32VW55x_standard_peripheral/Source/gd32vw55x_adc.c **** 
 289:../Firmware/GD32VW55x_standard_peripheral/Source/gd32vw55x_adc.c **** /*!
 290:../Firmware/GD32VW55x_standard_peripheral/Source/gd32vw55x_adc.c ****     \brief      configure the length of routine channel group or inserted channel group
 291:../Firmware/GD32VW55x_standard_peripheral/Source/gd32vw55x_adc.c ****     \param[in]  channel_group: select the channel group
 292:../Firmware/GD32VW55x_standard_peripheral/Source/gd32vw55x_adc.c ****                 only one parameter can be selected which is shown as below:
 293:../Firmware/GD32VW55x_standard_peripheral/Source/gd32vw55x_adc.c ****       \arg        ADC_ROUTINE_CHANNEL: routine channel group
 294:../Firmware/GD32VW55x_standard_peripheral/Source/gd32vw55x_adc.c ****       \arg        ADC_INSERTED_CHANNEL: inserted channel group
 295:../Firmware/GD32VW55x_standard_peripheral/Source/gd32vw55x_adc.c ****     \param[in]  length: the length of the channel
 296:../Firmware/GD32VW55x_standard_peripheral/Source/gd32vw55x_adc.c ****                         routine channel 1-9
 297:../Firmware/GD32VW55x_standard_peripheral/Source/gd32vw55x_adc.c ****                         inserted channel 1-4
 298:../Firmware/GD32VW55x_standard_peripheral/Source/gd32vw55x_adc.c ****     \param[out] none
 299:../Firmware/GD32VW55x_standard_peripheral/Source/gd32vw55x_adc.c ****     \retval     none
 300:../Firmware/GD32VW55x_standard_peripheral/Source/gd32vw55x_adc.c **** */
 301:../Firmware/GD32VW55x_standard_peripheral/Source/gd32vw55x_adc.c **** void adc_channel_length_config(uint8_t channel_group, uint32_t length)
 302:../Firmware/GD32VW55x_standard_peripheral/Source/gd32vw55x_adc.c **** {
 651              		.loc 1 302 1
 652              		.cfi_startproc
 653 0000 0111     		addi	sp,sp,-32
 654              		.cfi_def_cfa_offset 32
 655 0002 22CE     		sw	s0,28(sp)
 656              		.cfi_offset 8, -4
 657 0004 0010     		addi	s0,sp,32
 658              		.cfi_def_cfa 8, 0
 659 0006 AA87     		mv	a5,a0
 660 0008 2324B4FE 		sw	a1,-24(s0)
 661 000c A307F4FE 		sb	a5,-17(s0)
 303:../Firmware/GD32VW55x_standard_peripheral/Source/gd32vw55x_adc.c ****     switch(channel_group){
 662              		.loc 1 303 5
 663 0010 8347F4FE 		lbu	a5,-17(s0)
 664 0014 0547     		li	a4,1
 665 0016 6386E700 		beq	a5,a4,.L32
 666 001a 0947     		li	a4,2
 667 001c 638DE704 		beq	a5,a4,.L33
 304:../Firmware/GD32VW55x_standard_peripheral/Source/gd32vw55x_adc.c ****     case ADC_ROUTINE_CHANNEL:
 305:../Firmware/GD32VW55x_standard_peripheral/Source/gd32vw55x_adc.c ****         /* configure the length of routine channel group */
 306:../Firmware/GD32VW55x_standard_peripheral/Source/gd32vw55x_adc.c ****         if((length >= 1U) && (length <= 9U)){
 307:../Firmware/GD32VW55x_standard_peripheral/Source/gd32vw55x_adc.c ****             ADC_RSQ0 &= ~((uint32_t)ADC_RSQ0_RL);
 308:../Firmware/GD32VW55x_standard_peripheral/Source/gd32vw55x_adc.c ****             ADC_RSQ0 |= RSQ0_RL((uint32_t)(length - ADC_CHANNEL_LENGTH_SUBTRACT_ONE));
 309:../Firmware/GD32VW55x_standard_peripheral/Source/gd32vw55x_adc.c ****         }
 310:../Firmware/GD32VW55x_standard_peripheral/Source/gd32vw55x_adc.c ****         break;
 311:../Firmware/GD32VW55x_standard_peripheral/Source/gd32vw55x_adc.c ****     case ADC_INSERTED_CHANNEL:
 312:../Firmware/GD32VW55x_standard_peripheral/Source/gd32vw55x_adc.c ****         /* configure the length of inserted channel group */
 313:../Firmware/GD32VW55x_standard_peripheral/Source/gd32vw55x_adc.c ****         if((length >= 1U) && (length <= 4U)){
 314:../Firmware/GD32VW55x_standard_peripheral/Source/gd32vw55x_adc.c ****             ADC_ISQ &= ~((uint32_t)ADC_ISQ_IL);
 315:../Firmware/GD32VW55x_standard_peripheral/Source/gd32vw55x_adc.c ****             ADC_ISQ |= ISQ_IL((uint32_t)(length - ADC_CHANNEL_LENGTH_SUBTRACT_ONE));
 316:../Firmware/GD32VW55x_standard_peripheral/Source/gd32vw55x_adc.c ****         }
 317:../Firmware/GD32VW55x_standard_peripheral/Source/gd32vw55x_adc.c ****         break;
 318:../Firmware/GD32VW55x_standard_peripheral/Source/gd32vw55x_adc.c ****     default:
 319:../Firmware/GD32VW55x_standard_peripheral/Source/gd32vw55x_adc.c ****         break;
 668              		.loc 1 319 9
 669 0020 45A8     		j	.L36
 670              	.L32:
 306:../Firmware/GD32VW55x_standard_peripheral/Source/gd32vw55x_adc.c ****             ADC_RSQ0 &= ~((uint32_t)ADC_RSQ0_RL);
 671              		.loc 1 306 11
 672 0022 832784FE 		lw	a5,-24(s0)
 673 0026 D5C3     		beq	a5,zero,.L38
 306:../Firmware/GD32VW55x_standard_peripheral/Source/gd32vw55x_adc.c ****             ADC_RSQ0 &= ~((uint32_t)ADC_RSQ0_RL);
 674              		.loc 1 306 27 discriminator 1
 675 0028 032784FE 		lw	a4,-24(s0)
 676 002c A547     		li	a5,9
 677 002e 63EEE708 		bgtu	a4,a5,.L38
 307:../Firmware/GD32VW55x_standard_peripheral/Source/gd32vw55x_adc.c ****             ADC_RSQ0 |= RSQ0_RL((uint32_t)(length - ADC_CHANNEL_LENGTH_SUBTRACT_ONE));
 678              		.loc 1 307 22
 679 0032 B7270140 		li	a5,1073815552
 680 0036 9387C702 		addi	a5,a5,44
 681 003a 9443     		lw	a3,0(a5)
 682 003c B7270140 		li	a5,1073815552
 683 0040 9387C702 		addi	a5,a5,44
 684 0044 370710FF 		li	a4,-15728640
 685 0048 7D17     		addi	a4,a4,-1
 686 004a 758F     		and	a4,a3,a4
 687 004c 98C3     		sw	a4,0(a5)
 308:../Firmware/GD32VW55x_standard_peripheral/Source/gd32vw55x_adc.c ****         }
 688              		.loc 1 308 22
 689 004e B7270140 		li	a5,1073815552
 690 0052 9387C702 		addi	a5,a5,44
 691 0056 9443     		lw	a3,0(a5)
 308:../Firmware/GD32VW55x_standard_peripheral/Source/gd32vw55x_adc.c ****         }
 692              		.loc 1 308 25
 693 0058 832784FE 		lw	a5,-24(s0)
 694 005c FD17     		addi	a5,a5,-1
 695 005e 13974701 		slli	a4,a5,20
 696 0062 B707F000 		li	a5,15728640
 697 0066 7D8F     		and	a4,a4,a5
 308:../Firmware/GD32VW55x_standard_peripheral/Source/gd32vw55x_adc.c ****         }
 698              		.loc 1 308 22
 699 0068 B7270140 		li	a5,1073815552
 700 006c 9387C702 		addi	a5,a5,44
 701 0070 558F     		or	a4,a3,a4
 702 0072 98C3     		sw	a4,0(a5)
 310:../Firmware/GD32VW55x_standard_peripheral/Source/gd32vw55x_adc.c ****     case ADC_INSERTED_CHANNEL:
 703              		.loc 1 310 9
 704 0074 99A8     		j	.L38
 705              	.L33:
 313:../Firmware/GD32VW55x_standard_peripheral/Source/gd32vw55x_adc.c ****             ADC_ISQ &= ~((uint32_t)ADC_ISQ_IL);
 706              		.loc 1 313 11
 707 0076 832784FE 		lw	a5,-24(s0)
 708 007a B1CB     		beq	a5,zero,.L39
 313:../Firmware/GD32VW55x_standard_peripheral/Source/gd32vw55x_adc.c ****             ADC_ISQ &= ~((uint32_t)ADC_ISQ_IL);
 709              		.loc 1 313 27 discriminator 1
 710 007c 032784FE 		lw	a4,-24(s0)
 711 0080 9147     		li	a5,4
 712 0082 63E6E704 		bgtu	a4,a5,.L39
 314:../Firmware/GD32VW55x_standard_peripheral/Source/gd32vw55x_adc.c ****             ADC_ISQ |= ISQ_IL((uint32_t)(length - ADC_CHANNEL_LENGTH_SUBTRACT_ONE));
 713              		.loc 1 314 21
 714 0086 B7270140 		li	a5,1073815552
 715 008a 93878703 		addi	a5,a5,56
 716 008e 9443     		lw	a3,0(a5)
 717 0090 B7270140 		li	a5,1073815552
 718 0094 93878703 		addi	a5,a5,56
 719 0098 3707D0FF 		li	a4,-3145728
 720 009c 7D17     		addi	a4,a4,-1
 721 009e 758F     		and	a4,a3,a4
 722 00a0 98C3     		sw	a4,0(a5)
 315:../Firmware/GD32VW55x_standard_peripheral/Source/gd32vw55x_adc.c ****         }
 723              		.loc 1 315 21
 724 00a2 B7270140 		li	a5,1073815552
 725 00a6 93878703 		addi	a5,a5,56
 726 00aa 9443     		lw	a3,0(a5)
 315:../Firmware/GD32VW55x_standard_peripheral/Source/gd32vw55x_adc.c ****         }
 727              		.loc 1 315 24
 728 00ac 832784FE 		lw	a5,-24(s0)
 729 00b0 FD17     		addi	a5,a5,-1
 730 00b2 13974701 		slli	a4,a5,20
 731 00b6 B7073000 		li	a5,3145728
 732 00ba 7D8F     		and	a4,a4,a5
 315:../Firmware/GD32VW55x_standard_peripheral/Source/gd32vw55x_adc.c ****         }
 733              		.loc 1 315 21
 734 00bc B7270140 		li	a5,1073815552
 735 00c0 93878703 		addi	a5,a5,56
 736 00c4 558F     		or	a4,a3,a4
 737 00c6 98C3     		sw	a4,0(a5)
 317:../Firmware/GD32VW55x_standard_peripheral/Source/gd32vw55x_adc.c ****     default:
 738              		.loc 1 317 9
 739 00c8 19A0     		j	.L39
 740              	.L38:
 310:../Firmware/GD32VW55x_standard_peripheral/Source/gd32vw55x_adc.c ****     case ADC_INSERTED_CHANNEL:
 741              		.loc 1 310 9
 742 00ca 0100     		nop
 743 00cc 11A0     		j	.L40
 744              	.L39:
 317:../Firmware/GD32VW55x_standard_peripheral/Source/gd32vw55x_adc.c ****     default:
 745              		.loc 1 317 9
 746 00ce 0100     		nop
 747              	.L36:
 748              	.L40:
 320:../Firmware/GD32VW55x_standard_peripheral/Source/gd32vw55x_adc.c ****     }
 321:../Firmware/GD32VW55x_standard_peripheral/Source/gd32vw55x_adc.c **** }
 749              		.loc 1 321 1
 750 00d0 0100     		nop
 751 00d2 7244     		lw	s0,28(sp)
 752              		.cfi_restore 8
 753              		.cfi_def_cfa 2, 32
 754 00d4 0561     		addi	sp,sp,32
 755              		.cfi_def_cfa_offset 0
 756 00d6 8280     		jr	ra
 757              		.cfi_endproc
 758              	.LFE360:
 760              		.section	.text.adc_routine_channel_config,"ax",@progbits
 761              		.align	1
 762              		.globl	adc_routine_channel_config
 764              	adc_routine_channel_config:
 765              	.LFB361:
 322:../Firmware/GD32VW55x_standard_peripheral/Source/gd32vw55x_adc.c **** 
 323:../Firmware/GD32VW55x_standard_peripheral/Source/gd32vw55x_adc.c **** /*!
 324:../Firmware/GD32VW55x_standard_peripheral/Source/gd32vw55x_adc.c ****     \brief      configure ADC routine channel
 325:../Firmware/GD32VW55x_standard_peripheral/Source/gd32vw55x_adc.c ****     \param[in]  rank: the routine group sequence rank, this parameter must be between 0 to 8
 326:../Firmware/GD32VW55x_standard_peripheral/Source/gd32vw55x_adc.c ****     \param[in]  channel: the selected ADC channel
 327:../Firmware/GD32VW55x_standard_peripheral/Source/gd32vw55x_adc.c ****                 only one parameter can be selected which is shown as below:
 328:../Firmware/GD32VW55x_standard_peripheral/Source/gd32vw55x_adc.c ****       \arg        ADC_CHANNEL_x(x=0..10): ADC Channelx
 329:../Firmware/GD32VW55x_standard_peripheral/Source/gd32vw55x_adc.c ****     \param[in]  sample_time: the sample time value
 330:../Firmware/GD32VW55x_standard_peripheral/Source/gd32vw55x_adc.c ****                 only one parameter can be selected which is shown as below:
 331:../Firmware/GD32VW55x_standard_peripheral/Source/gd32vw55x_adc.c ****       \arg        ADC_SAMPLETIME_1POINT5: 1.5 cycle
 332:../Firmware/GD32VW55x_standard_peripheral/Source/gd32vw55x_adc.c ****       \arg        ADC_SAMPLETIME_2POINT5: 2.5 cycles
 333:../Firmware/GD32VW55x_standard_peripheral/Source/gd32vw55x_adc.c ****       \arg        ADC_SAMPLETIME_14POINT5: 14.5 cycles
 334:../Firmware/GD32VW55x_standard_peripheral/Source/gd32vw55x_adc.c ****       \arg        ADC_SAMPLETIME_27POINT5: 27.5 cycles
 335:../Firmware/GD32VW55x_standard_peripheral/Source/gd32vw55x_adc.c ****       \arg        ADC_SAMPLETIME_55POINT5: 55.5 cycles
 336:../Firmware/GD32VW55x_standard_peripheral/Source/gd32vw55x_adc.c ****       \arg        ADC_SAMPLETIME_83POINT5: 83.5 cycles
 337:../Firmware/GD32VW55x_standard_peripheral/Source/gd32vw55x_adc.c ****       \arg        ADC_SAMPLETIME_111POINT5: 111.5 cycles
 338:../Firmware/GD32VW55x_standard_peripheral/Source/gd32vw55x_adc.c ****       \arg        ADC_SAMPLETIME_143POINT5: 143.5 cycles
 339:../Firmware/GD32VW55x_standard_peripheral/Source/gd32vw55x_adc.c ****       \arg        ADC_SAMPLETIME_479POINT5: 479.5 cycles
 340:../Firmware/GD32VW55x_standard_peripheral/Source/gd32vw55x_adc.c ****     \param[out] none
 341:../Firmware/GD32VW55x_standard_peripheral/Source/gd32vw55x_adc.c ****     \retval     none
 342:../Firmware/GD32VW55x_standard_peripheral/Source/gd32vw55x_adc.c **** */
 343:../Firmware/GD32VW55x_standard_peripheral/Source/gd32vw55x_adc.c **** void adc_routine_channel_config(uint8_t rank, uint8_t channel, uint32_t sample_time)
 344:../Firmware/GD32VW55x_standard_peripheral/Source/gd32vw55x_adc.c **** {
 766              		.loc 1 344 1
 767              		.cfi_startproc
 768 0000 7971     		addi	sp,sp,-48
 769              		.cfi_def_cfa_offset 48
 770 0002 22D6     		sw	s0,44(sp)
 771              		.cfi_offset 8, -4
 772 0004 0018     		addi	s0,sp,48
 773              		.cfi_def_cfa 8, 0
 774 0006 AA87     		mv	a5,a0
 775 0008 2E87     		mv	a4,a1
 776 000a 232CC4FC 		sw	a2,-40(s0)
 777 000e A30FF4FC 		sb	a5,-33(s0)
 778 0012 BA87     		mv	a5,a4
 779 0014 230FF4FC 		sb	a5,-34(s0)
 345:../Firmware/GD32VW55x_standard_peripheral/Source/gd32vw55x_adc.c ****     uint32_t rsq,sampt;
 346:../Firmware/GD32VW55x_standard_peripheral/Source/gd32vw55x_adc.c **** 
 347:../Firmware/GD32VW55x_standard_peripheral/Source/gd32vw55x_adc.c ****     /* configure ADC routine sequence */
 348:../Firmware/GD32VW55x_standard_peripheral/Source/gd32vw55x_adc.c ****     if(rank < ADC_ROUTINE_CHANNEL_RANK_SIX){
 780              		.loc 1 348 7
 781 0018 0347F4FD 		lbu	a4,-33(s0)
 782 001c 9547     		li	a5,5
 783 001e 63EEE704 		bgtu	a4,a5,.L42
 349:../Firmware/GD32VW55x_standard_peripheral/Source/gd32vw55x_adc.c ****         /* the routine group sequence rank is smaller than six */
 350:../Firmware/GD32VW55x_standard_peripheral/Source/gd32vw55x_adc.c ****         rsq = ADC_RSQ2;
 784              		.loc 1 350 15
 785 0022 B7270140 		li	a5,1073815552
 786 0026 93874703 		addi	a5,a5,52
 787              		.loc 1 350 13
 788 002a 9C43     		lw	a5,0(a5)
 789 002c 2326F4FE 		sw	a5,-20(s0)
 351:../Firmware/GD32VW55x_standard_peripheral/Source/gd32vw55x_adc.c ****         rsq &=  ~((uint32_t)(ADC_RSQX_RSQN << (ADC_ROUTINE_CHANNEL_RANK_LENGTH * rank)));
 790              		.loc 1 351 80
 791 0030 0347F4FD 		lbu	a4,-33(s0)
 792 0034 BA87     		mv	a5,a4
 793 0036 8A07     		slli	a5,a5,2
 794 0038 BA97     		add	a5,a5,a4
 795              		.loc 1 351 19
 796 003a 7D47     		li	a4,31
 797 003c B317F700 		sll	a5,a4,a5
 798              		.loc 1 351 17
 799 0040 93C7F7FF 		not	a5,a5
 800              		.loc 1 351 13
 801 0044 0327C4FE 		lw	a4,-20(s0)
 802 0048 F98F     		and	a5,a4,a5
 803 004a 2326F4FE 		sw	a5,-20(s0)
 352:../Firmware/GD32VW55x_standard_peripheral/Source/gd32vw55x_adc.c ****         /* the channel number is written to these bits to select a channel as the nth conversion in
 353:../Firmware/GD32VW55x_standard_peripheral/Source/gd32vw55x_adc.c ****         rsq |= ((uint32_t)channel << (ADC_ROUTINE_CHANNEL_RANK_LENGTH*rank));
 804              		.loc 1 353 17
 805 004e 8346E4FD 		lbu	a3,-34(s0)
 806              		.loc 1 353 70
 807 0052 0347F4FD 		lbu	a4,-33(s0)
 808 0056 BA87     		mv	a5,a4
 809 0058 8A07     		slli	a5,a5,2
 810 005a BA97     		add	a5,a5,a4
 811              		.loc 1 353 35
 812 005c B397F600 		sll	a5,a3,a5
 813              		.loc 1 353 13
 814 0060 0327C4FE 		lw	a4,-20(s0)
 815 0064 D98F     		or	a5,a4,a5
 816 0066 2326F4FE 		sw	a5,-20(s0)
 354:../Firmware/GD32VW55x_standard_peripheral/Source/gd32vw55x_adc.c ****         ADC_RSQ2 = rsq;
 817              		.loc 1 354 9
 818 006a B7270140 		li	a5,1073815552
 819 006e 93874703 		addi	a5,a5,52
 820              		.loc 1 354 18
 821 0072 0327C4FE 		lw	a4,-20(s0)
 822 0076 98C3     		sw	a4,0(a5)
 823 0078 ADA0     		j	.L43
 824              	.L42:
 355:../Firmware/GD32VW55x_standard_peripheral/Source/gd32vw55x_adc.c ****     }else if(rank < ADC_ROUTINE_CHANNEL_RANK_NINE){
 825              		.loc 1 355 13
 826 007a 0347F4FD 		lbu	a4,-33(s0)
 827 007e A147     		li	a5,8
 828 0080 63E1E706 		bgtu	a4,a5,.L43
 356:../Firmware/GD32VW55x_standard_peripheral/Source/gd32vw55x_adc.c ****         /* the routine group sequence rank is smaller than nine */
 357:../Firmware/GD32VW55x_standard_peripheral/Source/gd32vw55x_adc.c ****         rsq = ADC_RSQ1;
 829              		.loc 1 357 15
 830 0084 B7270140 		li	a5,1073815552
 831 0088 93870703 		addi	a5,a5,48
 832              		.loc 1 357 13
 833 008c 9C43     		lw	a5,0(a5)
 834 008e 2326F4FE 		sw	a5,-20(s0)
 358:../Firmware/GD32VW55x_standard_peripheral/Source/gd32vw55x_adc.c ****         rsq &= ~((uint32_t)(ADC_RSQX_RSQN << (ADC_ROUTINE_CHANNEL_RANK_LENGTH * (rank - ADC_ROUTINE
 835              		.loc 1 358 87
 836 0092 8347F4FD 		lbu	a5,-33(s0)
 837 0096 1387A7FF 		addi	a4,a5,-6
 838              		.loc 1 358 79
 839 009a BA87     		mv	a5,a4
 840 009c 8A07     		slli	a5,a5,2
 841 009e BA97     		add	a5,a5,a4
 842              		.loc 1 358 18
 843 00a0 7D47     		li	a4,31
 844 00a2 B317F700 		sll	a5,a4,a5
 845              		.loc 1 358 16
 846 00a6 93C7F7FF 		not	a5,a5
 847              		.loc 1 358 13
 848 00aa 0327C4FE 		lw	a4,-20(s0)
 849 00ae F98F     		and	a5,a4,a5
 850 00b0 2326F4FE 		sw	a5,-20(s0)
 359:../Firmware/GD32VW55x_standard_peripheral/Source/gd32vw55x_adc.c ****         /* the channel number is written to these bits to select a channel as the nth conversion in
 360:../Firmware/GD32VW55x_standard_peripheral/Source/gd32vw55x_adc.c ****         rsq |= ((uint32_t)channel << (ADC_ROUTINE_CHANNEL_RANK_LENGTH*(rank-ADC_ROUTINE_CHANNEL_RAN
 851              		.loc 1 360 17
 852 00b4 8346E4FD 		lbu	a3,-34(s0)
 853              		.loc 1 360 76
 854 00b8 8347F4FD 		lbu	a5,-33(s0)
 855 00bc 1387A7FF 		addi	a4,a5,-6
 856              		.loc 1 360 70
 857 00c0 BA87     		mv	a5,a4
 858 00c2 8A07     		slli	a5,a5,2
 859 00c4 BA97     		add	a5,a5,a4
 860              		.loc 1 360 35
 861 00c6 B397F600 		sll	a5,a3,a5
 862              		.loc 1 360 13
 863 00ca 0327C4FE 		lw	a4,-20(s0)
 864 00ce D98F     		or	a5,a4,a5
 865 00d0 2326F4FE 		sw	a5,-20(s0)
 361:../Firmware/GD32VW55x_standard_peripheral/Source/gd32vw55x_adc.c ****         ADC_RSQ1 = rsq;
 866              		.loc 1 361 9
 867 00d4 B7270140 		li	a5,1073815552
 868 00d8 93870703 		addi	a5,a5,48
 869              		.loc 1 361 18
 870 00dc 0327C4FE 		lw	a4,-20(s0)
 871 00e0 98C3     		sw	a4,0(a5)
 872              	.L43:
 362:../Firmware/GD32VW55x_standard_peripheral/Source/gd32vw55x_adc.c ****     }else{
 363:../Firmware/GD32VW55x_standard_peripheral/Source/gd32vw55x_adc.c ****         /* illegal parameters */
 364:../Firmware/GD32VW55x_standard_peripheral/Source/gd32vw55x_adc.c ****     }
 365:../Firmware/GD32VW55x_standard_peripheral/Source/gd32vw55x_adc.c **** 
 366:../Firmware/GD32VW55x_standard_peripheral/Source/gd32vw55x_adc.c ****     /* configure ADC sampling time */
 367:../Firmware/GD32VW55x_standard_peripheral/Source/gd32vw55x_adc.c ****     if(channel < ADC_CHANNEL_SAMPLE_EIGHT){
 873              		.loc 1 367 7
 874 00e2 0347E4FD 		lbu	a4,-34(s0)
 875 00e6 9D47     		li	a5,7
 876 00e8 63E8E704 		bgtu	a4,a5,.L44
 368:../Firmware/GD32VW55x_standard_peripheral/Source/gd32vw55x_adc.c ****         /* the routine group sequence rank is smaller than ten */
 369:../Firmware/GD32VW55x_standard_peripheral/Source/gd32vw55x_adc.c ****         sampt = ADC_SAMPT1;
 877              		.loc 1 369 17
 878 00ec B7270140 		li	a5,1073815552
 879 00f0 C107     		addi	a5,a5,16
 880              		.loc 1 369 15
 881 00f2 9C43     		lw	a5,0(a5)
 882 00f4 2324F4FE 		sw	a5,-24(s0)
 370:../Firmware/GD32VW55x_standard_peripheral/Source/gd32vw55x_adc.c ****         sampt &= ~((uint32_t)(ADC_SAMPTX_SPTN << (ADC_CHANNEL_SAMPLE_LENGTH*channel)));
 883              		.loc 1 370 76
 884 00f8 8347E4FD 		lbu	a5,-34(s0)
 885 00fc 8A07     		slli	a5,a5,2
 886              		.loc 1 370 20
 887 00fe 1D47     		li	a4,7
 888 0100 B317F700 		sll	a5,a4,a5
 889              		.loc 1 370 18
 890 0104 93C7F7FF 		not	a5,a5
 891              		.loc 1 370 15
 892 0108 032784FE 		lw	a4,-24(s0)
 893 010c F98F     		and	a5,a4,a5
 894 010e 2324F4FE 		sw	a5,-24(s0)
 371:../Firmware/GD32VW55x_standard_peripheral/Source/gd32vw55x_adc.c ****         /* channel sample time set*/
 372:../Firmware/GD32VW55x_standard_peripheral/Source/gd32vw55x_adc.c ****         sampt |= (uint32_t)(sample_time << (ADC_CHANNEL_SAMPLE_LENGTH*channel));
 895              		.loc 1 372 70
 896 0112 8347E4FD 		lbu	a5,-34(s0)
 897 0116 8A07     		slli	a5,a5,2
 898              		.loc 1 372 41
 899 0118 032784FD 		lw	a4,-40(s0)
 900 011c B317F700 		sll	a5,a4,a5
 901              		.loc 1 372 15
 902 0120 032784FE 		lw	a4,-24(s0)
 903 0124 D98F     		or	a5,a4,a5
 904 0126 2324F4FE 		sw	a5,-24(s0)
 373:../Firmware/GD32VW55x_standard_peripheral/Source/gd32vw55x_adc.c ****         ADC_SAMPT1 = sampt;
 905              		.loc 1 373 9
 906 012a B7270140 		li	a5,1073815552
 907 012e C107     		addi	a5,a5,16
 908              		.loc 1 373 20
 909 0130 032784FE 		lw	a4,-24(s0)
 910 0134 98C3     		sw	a4,0(a5)
 374:../Firmware/GD32VW55x_standard_peripheral/Source/gd32vw55x_adc.c ****     }else if(channel <= ADC_CHANNEL_SAMPLE_ELEVEN){
 375:../Firmware/GD32VW55x_standard_peripheral/Source/gd32vw55x_adc.c ****         /* the routine group sequence rank is smaller than eleven */
 376:../Firmware/GD32VW55x_standard_peripheral/Source/gd32vw55x_adc.c ****         sampt = ADC_SAMPT0;
 377:../Firmware/GD32VW55x_standard_peripheral/Source/gd32vw55x_adc.c ****         sampt &= ~((uint32_t)(ADC_SAMPTX_SPTN << (ADC_CHANNEL_SAMPLE_LENGTH*(channel-ADC_CHANNEL_SA
 378:../Firmware/GD32VW55x_standard_peripheral/Source/gd32vw55x_adc.c ****         /* channel sample time set*/
 379:../Firmware/GD32VW55x_standard_peripheral/Source/gd32vw55x_adc.c ****         sampt |= (uint32_t)(sample_time << (ADC_CHANNEL_SAMPLE_LENGTH*(channel-ADC_CHANNEL_SAMPLE_E
 380:../Firmware/GD32VW55x_standard_peripheral/Source/gd32vw55x_adc.c ****         ADC_SAMPT0 = sampt;
 381:../Firmware/GD32VW55x_standard_peripheral/Source/gd32vw55x_adc.c ****     }else{
 382:../Firmware/GD32VW55x_standard_peripheral/Source/gd32vw55x_adc.c ****         /* illegal parameters */
 383:../Firmware/GD32VW55x_standard_peripheral/Source/gd32vw55x_adc.c ****     }
 384:../Firmware/GD32VW55x_standard_peripheral/Source/gd32vw55x_adc.c **** }
 911              		.loc 1 384 1
 912 0136 A9A8     		j	.L46
 913              	.L44:
 374:../Firmware/GD32VW55x_standard_peripheral/Source/gd32vw55x_adc.c ****     }else if(channel <= ADC_CHANNEL_SAMPLE_ELEVEN){
 914              		.loc 1 374 13
 915 0138 0347E4FD 		lbu	a4,-34(s0)
 916 013c AD47     		li	a5,11
 917 013e 63E9E704 		bgtu	a4,a5,.L46
 376:../Firmware/GD32VW55x_standard_peripheral/Source/gd32vw55x_adc.c ****         sampt &= ~((uint32_t)(ADC_SAMPTX_SPTN << (ADC_CHANNEL_SAMPLE_LENGTH*(channel-ADC_CHANNEL_SA
 918              		.loc 1 376 17
 919 0142 B7270140 		li	a5,1073815552
 920 0146 B107     		addi	a5,a5,12
 376:../Firmware/GD32VW55x_standard_peripheral/Source/gd32vw55x_adc.c ****         sampt &= ~((uint32_t)(ADC_SAMPTX_SPTN << (ADC_CHANNEL_SAMPLE_LENGTH*(channel-ADC_CHANNEL_SA
 921              		.loc 1 376 15
 922 0148 9C43     		lw	a5,0(a5)
 923 014a 2324F4FE 		sw	a5,-24(s0)
 377:../Firmware/GD32VW55x_standard_peripheral/Source/gd32vw55x_adc.c ****         /* channel sample time set*/
 924              		.loc 1 377 85
 925 014e 8347E4FD 		lbu	a5,-34(s0)
 926 0152 E117     		addi	a5,a5,-8
 377:../Firmware/GD32VW55x_standard_peripheral/Source/gd32vw55x_adc.c ****         /* channel sample time set*/
 927              		.loc 1 377 76
 928 0154 8A07     		slli	a5,a5,2
 377:../Firmware/GD32VW55x_standard_peripheral/Source/gd32vw55x_adc.c ****         /* channel sample time set*/
 929              		.loc 1 377 20
 930 0156 1D47     		li	a4,7
 931 0158 B317F700 		sll	a5,a4,a5
 377:../Firmware/GD32VW55x_standard_peripheral/Source/gd32vw55x_adc.c ****         /* channel sample time set*/
 932              		.loc 1 377 18
 933 015c 93C7F7FF 		not	a5,a5
 377:../Firmware/GD32VW55x_standard_peripheral/Source/gd32vw55x_adc.c ****         /* channel sample time set*/
 934              		.loc 1 377 15
 935 0160 032784FE 		lw	a4,-24(s0)
 936 0164 F98F     		and	a5,a4,a5
 937 0166 2324F4FE 		sw	a5,-24(s0)
 379:../Firmware/GD32VW55x_standard_peripheral/Source/gd32vw55x_adc.c ****         ADC_SAMPT0 = sampt;
 938              		.loc 1 379 79
 939 016a 8347E4FD 		lbu	a5,-34(s0)
 940 016e E117     		addi	a5,a5,-8
 379:../Firmware/GD32VW55x_standard_peripheral/Source/gd32vw55x_adc.c ****         ADC_SAMPT0 = sampt;
 941              		.loc 1 379 70
 942 0170 8A07     		slli	a5,a5,2
 379:../Firmware/GD32VW55x_standard_peripheral/Source/gd32vw55x_adc.c ****         ADC_SAMPT0 = sampt;
 943              		.loc 1 379 41
 944 0172 032784FD 		lw	a4,-40(s0)
 945 0176 B317F700 		sll	a5,a4,a5
 379:../Firmware/GD32VW55x_standard_peripheral/Source/gd32vw55x_adc.c ****         ADC_SAMPT0 = sampt;
 946              		.loc 1 379 15
 947 017a 032784FE 		lw	a4,-24(s0)
 948 017e D98F     		or	a5,a4,a5
 949 0180 2324F4FE 		sw	a5,-24(s0)
 380:../Firmware/GD32VW55x_standard_peripheral/Source/gd32vw55x_adc.c ****     }else{
 950              		.loc 1 380 9
 951 0184 B7270140 		li	a5,1073815552
 952 0188 B107     		addi	a5,a5,12
 380:../Firmware/GD32VW55x_standard_peripheral/Source/gd32vw55x_adc.c ****     }else{
 953              		.loc 1 380 20
 954 018a 032784FE 		lw	a4,-24(s0)
 955 018e 98C3     		sw	a4,0(a5)
 956              	.L46:
 957              		.loc 1 384 1
 958 0190 0100     		nop
 959 0192 3254     		lw	s0,44(sp)
 960              		.cfi_restore 8
 961              		.cfi_def_cfa 2, 48
 962 0194 4561     		addi	sp,sp,48
 963              		.cfi_def_cfa_offset 0
 964 0196 8280     		jr	ra
 965              		.cfi_endproc
 966              	.LFE361:
 968              		.section	.text.adc_inserted_channel_config,"ax",@progbits
 969              		.align	1
 970              		.globl	adc_inserted_channel_config
 972              	adc_inserted_channel_config:
 973              	.LFB362:
 385:../Firmware/GD32VW55x_standard_peripheral/Source/gd32vw55x_adc.c **** 
 386:../Firmware/GD32VW55x_standard_peripheral/Source/gd32vw55x_adc.c **** /*!
 387:../Firmware/GD32VW55x_standard_peripheral/Source/gd32vw55x_adc.c ****     \brief      configure ADC inserted channel
 388:../Firmware/GD32VW55x_standard_peripheral/Source/gd32vw55x_adc.c ****     \param[in]  rank: the inserted group sequencer rank,this parameter must be between 0 to 3
 389:../Firmware/GD32VW55x_standard_peripheral/Source/gd32vw55x_adc.c ****     \param[in]  channel: the selected ADC channel
 390:../Firmware/GD32VW55x_standard_peripheral/Source/gd32vw55x_adc.c ****                 only one parameter can be selected which is shown as below:
 391:../Firmware/GD32VW55x_standard_peripheral/Source/gd32vw55x_adc.c ****       \arg        ADC_CHANNEL_x(x=0..10): ADC Channelx
 392:../Firmware/GD32VW55x_standard_peripheral/Source/gd32vw55x_adc.c ****     \param[in]  sample_time: The sample time value
 393:../Firmware/GD32VW55x_standard_peripheral/Source/gd32vw55x_adc.c ****                 only one parameter can be selected which is shown as below:
 394:../Firmware/GD32VW55x_standard_peripheral/Source/gd32vw55x_adc.c ****       \arg        ADC_SAMPLETIME_1POINT5: 1.5 cycle
 395:../Firmware/GD32VW55x_standard_peripheral/Source/gd32vw55x_adc.c ****       \arg        ADC_SAMPLETIME_2POINT5: 2.5 cycles
 396:../Firmware/GD32VW55x_standard_peripheral/Source/gd32vw55x_adc.c ****       \arg        ADC_SAMPLETIME_14POINT5: 14.5 cycles
 397:../Firmware/GD32VW55x_standard_peripheral/Source/gd32vw55x_adc.c ****       \arg        ADC_SAMPLETIME_27POINT5: 27.5 cycles
 398:../Firmware/GD32VW55x_standard_peripheral/Source/gd32vw55x_adc.c ****       \arg        ADC_SAMPLETIME_55POINT5: 55.5 cycles
 399:../Firmware/GD32VW55x_standard_peripheral/Source/gd32vw55x_adc.c ****       \arg        ADC_SAMPLETIME_83POINT5: 83.5 cycles
 400:../Firmware/GD32VW55x_standard_peripheral/Source/gd32vw55x_adc.c ****       \arg        ADC_SAMPLETIME_111POINT5: 111.5 cycles
 401:../Firmware/GD32VW55x_standard_peripheral/Source/gd32vw55x_adc.c ****       \arg        ADC_SAMPLETIME_143POINT5: 143.5 cycles
 402:../Firmware/GD32VW55x_standard_peripheral/Source/gd32vw55x_adc.c ****       \arg        ADC_SAMPLETIME_479POINT5: 479.5 cycles
 403:../Firmware/GD32VW55x_standard_peripheral/Source/gd32vw55x_adc.c ****     \param[out] none
 404:../Firmware/GD32VW55x_standard_peripheral/Source/gd32vw55x_adc.c ****     \retval     none
 405:../Firmware/GD32VW55x_standard_peripheral/Source/gd32vw55x_adc.c **** */
 406:../Firmware/GD32VW55x_standard_peripheral/Source/gd32vw55x_adc.c **** void adc_inserted_channel_config(uint8_t rank, uint8_t channel, uint32_t sample_time)
 407:../Firmware/GD32VW55x_standard_peripheral/Source/gd32vw55x_adc.c **** {
 974              		.loc 1 407 1
 975              		.cfi_startproc
 976 0000 7971     		addi	sp,sp,-48
 977              		.cfi_def_cfa_offset 48
 978 0002 22D6     		sw	s0,44(sp)
 979              		.cfi_offset 8, -4
 980 0004 0018     		addi	s0,sp,48
 981              		.cfi_def_cfa 8, 0
 982 0006 AA87     		mv	a5,a0
 983 0008 2E87     		mv	a4,a1
 984 000a 232CC4FC 		sw	a2,-40(s0)
 985 000e A30FF4FC 		sb	a5,-33(s0)
 986 0012 BA87     		mv	a5,a4
 987 0014 230FF4FC 		sb	a5,-34(s0)
 408:../Firmware/GD32VW55x_standard_peripheral/Source/gd32vw55x_adc.c ****     uint8_t inserted_length;
 409:../Firmware/GD32VW55x_standard_peripheral/Source/gd32vw55x_adc.c ****     uint32_t isq,sampt;
 410:../Firmware/GD32VW55x_standard_peripheral/Source/gd32vw55x_adc.c **** 
 411:../Firmware/GD32VW55x_standard_peripheral/Source/gd32vw55x_adc.c ****     /* get inserted channel group length */
 412:../Firmware/GD32VW55x_standard_peripheral/Source/gd32vw55x_adc.c ****     inserted_length = (uint8_t)GET_BITS(ADC_ISQ, 20U, 21U);
 988              		.loc 1 412 32
 989 0018 B7270140 		li	a5,1073815552
 990 001c 93878703 		addi	a5,a5,56
 991 0020 9C43     		lw	a5,0(a5)
 992 0022 D183     		srli	a5,a5,20
 993              		.loc 1 412 23
 994 0024 93F7F70F 		andi	a5,a5,0xff
 995              		.loc 1 412 21
 996 0028 8D8B     		andi	a5,a5,3
 997 002a A307F4FE 		sb	a5,-17(s0)
 413:../Firmware/GD32VW55x_standard_peripheral/Source/gd32vw55x_adc.c ****      /* the channel number is written to these bits to select a channel as the nth conversion in th
 414:../Firmware/GD32VW55x_standard_peripheral/Source/gd32vw55x_adc.c ****     if(rank < 4U){
 998              		.loc 1 414 7
 999 002e 0347F4FD 		lbu	a4,-33(s0)
 1000 0032 8D47     		li	a5,3
 1001 0034 63E9E706 		bgtu	a4,a5,.L48
 415:../Firmware/GD32VW55x_standard_peripheral/Source/gd32vw55x_adc.c ****         isq = ADC_ISQ;
 1002              		.loc 1 415 15
 1003 0038 B7270140 		li	a5,1073815552
 1004 003c 93878703 		addi	a5,a5,56
 1005              		.loc 1 415 13
 1006 0040 9C43     		lw	a5,0(a5)
 1007 0042 2324F4FE 		sw	a5,-24(s0)
 416:../Firmware/GD32VW55x_standard_peripheral/Source/gd32vw55x_adc.c ****         isq &= ~((uint32_t)(ADC_ISQ_ISQN << (ADC_INSERTED_CHANNEL_SHIFT_OFFSET-(inserted_length-ran
 1008              		.loc 1 416 96
 1009 0046 0347F4FE 		lbu	a4,-17(s0)
 1010 004a 8347F4FD 		lbu	a5,-33(s0)
 1011 004e 1D8F     		sub	a4,a4,a5
 1012              		.loc 1 416 102
 1013 0050 BA87     		mv	a5,a4
 1014 0052 8A07     		slli	a5,a5,2
 1015 0054 BA97     		add	a5,a5,a4
 1016 0056 B307F040 		neg	a5,a5
 1017              		.loc 1 416 79
 1018 005a BD07     		addi	a5,a5,15
 1019              		.loc 1 416 18
 1020 005c 7D47     		li	a4,31
 1021 005e B317F700 		sll	a5,a4,a5
 1022              		.loc 1 416 16
 1023 0062 93C7F7FF 		not	a5,a5
 1024              		.loc 1 416 13
 1025 0066 032784FE 		lw	a4,-24(s0)
 1026 006a F98F     		and	a5,a4,a5
 1027 006c 2324F4FE 		sw	a5,-24(s0)
 417:../Firmware/GD32VW55x_standard_peripheral/Source/gd32vw55x_adc.c ****         isq |= ((uint32_t)channel << (ADC_INSERTED_CHANNEL_SHIFT_OFFSET-(inserted_length-rank)*ADC_
 1028              		.loc 1 417 17
 1029 0070 8346E4FD 		lbu	a3,-34(s0)
 1030              		.loc 1 417 89
 1031 0074 0347F4FE 		lbu	a4,-17(s0)
 1032 0078 8347F4FD 		lbu	a5,-33(s0)
 1033 007c 1D8F     		sub	a4,a4,a5
 1034              		.loc 1 417 95
 1035 007e BA87     		mv	a5,a4
 1036 0080 8A07     		slli	a5,a5,2
 1037 0082 BA97     		add	a5,a5,a4
 1038 0084 B307F040 		neg	a5,a5
 1039              		.loc 1 417 72
 1040 0088 BD07     		addi	a5,a5,15
 1041              		.loc 1 417 35
 1042 008a B397F600 		sll	a5,a3,a5
 1043              		.loc 1 417 13
 1044 008e 032784FE 		lw	a4,-24(s0)
 1045 0092 D98F     		or	a5,a4,a5
 1046 0094 2324F4FE 		sw	a5,-24(s0)
 418:../Firmware/GD32VW55x_standard_peripheral/Source/gd32vw55x_adc.c ****         ADC_ISQ = isq;
 1047              		.loc 1 418 9
 1048 0098 B7270140 		li	a5,1073815552
 1049 009c 93878703 		addi	a5,a5,56
 1050              		.loc 1 418 17
 1051 00a0 032784FE 		lw	a4,-24(s0)
 1052 00a4 98C3     		sw	a4,0(a5)
 1053              	.L48:
 419:../Firmware/GD32VW55x_standard_peripheral/Source/gd32vw55x_adc.c ****     }
 420:../Firmware/GD32VW55x_standard_peripheral/Source/gd32vw55x_adc.c **** 
 421:../Firmware/GD32VW55x_standard_peripheral/Source/gd32vw55x_adc.c ****     /* configure ADC sampling time */
 422:../Firmware/GD32VW55x_standard_peripheral/Source/gd32vw55x_adc.c ****     if(channel < ADC_CHANNEL_SAMPLE_EIGHT){
 1054              		.loc 1 422 7
 1055 00a6 0347E4FD 		lbu	a4,-34(s0)
 1056 00aa 9D47     		li	a5,7
 1057 00ac 63E8E704 		bgtu	a4,a5,.L49
 423:../Firmware/GD32VW55x_standard_peripheral/Source/gd32vw55x_adc.c ****         /* the inserted group sequence rank is smaller than ten */
 424:../Firmware/GD32VW55x_standard_peripheral/Source/gd32vw55x_adc.c ****         sampt = ADC_SAMPT1;
 1058              		.loc 1 424 17
 1059 00b0 B7270140 		li	a5,1073815552
 1060 00b4 C107     		addi	a5,a5,16
 1061              		.loc 1 424 15
 1062 00b6 9C43     		lw	a5,0(a5)
 1063 00b8 2322F4FE 		sw	a5,-28(s0)
 425:../Firmware/GD32VW55x_standard_peripheral/Source/gd32vw55x_adc.c ****         sampt &= ~((uint32_t)(ADC_SAMPTX_SPTN << (ADC_CHANNEL_SAMPLE_LENGTH * channel)));
 1064              		.loc 1 425 77
 1065 00bc 8347E4FD 		lbu	a5,-34(s0)
 1066 00c0 8A07     		slli	a5,a5,2
 1067              		.loc 1 425 20
 1068 00c2 1D47     		li	a4,7
 1069 00c4 B317F700 		sll	a5,a4,a5
 1070              		.loc 1 425 18
 1071 00c8 93C7F7FF 		not	a5,a5
 1072              		.loc 1 425 15
 1073 00cc 032744FE 		lw	a4,-28(s0)
 1074 00d0 F98F     		and	a5,a4,a5
 1075 00d2 2322F4FE 		sw	a5,-28(s0)
 426:../Firmware/GD32VW55x_standard_peripheral/Source/gd32vw55x_adc.c ****         /* channel sample time set*/
 427:../Firmware/GD32VW55x_standard_peripheral/Source/gd32vw55x_adc.c ****         sampt |= (uint32_t) sample_time << (ADC_CHANNEL_SAMPLE_LENGTH * channel);
 1076              		.loc 1 427 71
 1077 00d6 8347E4FD 		lbu	a5,-34(s0)
 1078 00da 8A07     		slli	a5,a5,2
 1079              		.loc 1 427 41
 1080 00dc 032784FD 		lw	a4,-40(s0)
 1081 00e0 B317F700 		sll	a5,a4,a5
 1082              		.loc 1 427 15
 1083 00e4 032744FE 		lw	a4,-28(s0)
 1084 00e8 D98F     		or	a5,a4,a5
 1085 00ea 2322F4FE 		sw	a5,-28(s0)
 428:../Firmware/GD32VW55x_standard_peripheral/Source/gd32vw55x_adc.c ****         ADC_SAMPT1 = sampt;
 1086              		.loc 1 428 9
 1087 00ee B7270140 		li	a5,1073815552
 1088 00f2 C107     		addi	a5,a5,16
 1089              		.loc 1 428 20
 1090 00f4 032744FE 		lw	a4,-28(s0)
 1091 00f8 98C3     		sw	a4,0(a5)
 429:../Firmware/GD32VW55x_standard_peripheral/Source/gd32vw55x_adc.c ****     }else if(channel <= ADC_CHANNEL_SAMPLE_ELEVEN){
 430:../Firmware/GD32VW55x_standard_peripheral/Source/gd32vw55x_adc.c ****         /* the inserted group sequence rank is smaller than eighteen */
 431:../Firmware/GD32VW55x_standard_peripheral/Source/gd32vw55x_adc.c ****         sampt = ADC_SAMPT0;
 432:../Firmware/GD32VW55x_standard_peripheral/Source/gd32vw55x_adc.c ****         sampt &= ~((uint32_t)(ADC_SAMPTX_SPTN << (ADC_CHANNEL_SAMPLE_LENGTH*(channel - ADC_CHANNEL_
 433:../Firmware/GD32VW55x_standard_peripheral/Source/gd32vw55x_adc.c ****         /* channel sample time set*/
 434:../Firmware/GD32VW55x_standard_peripheral/Source/gd32vw55x_adc.c ****         sampt |= ((uint32_t)sample_time << (ADC_CHANNEL_SAMPLE_LENGTH*(channel - ADC_CHANNEL_SAMPLE
 435:../Firmware/GD32VW55x_standard_peripheral/Source/gd32vw55x_adc.c ****         ADC_SAMPT0 = sampt;
 436:../Firmware/GD32VW55x_standard_peripheral/Source/gd32vw55x_adc.c ****     }else{
 437:../Firmware/GD32VW55x_standard_peripheral/Source/gd32vw55x_adc.c ****         /* illegal parameters */
 438:../Firmware/GD32VW55x_standard_peripheral/Source/gd32vw55x_adc.c ****     }
 439:../Firmware/GD32VW55x_standard_peripheral/Source/gd32vw55x_adc.c **** }
 1092              		.loc 1 439 1
 1093 00fa A9A8     		j	.L51
 1094              	.L49:
 429:../Firmware/GD32VW55x_standard_peripheral/Source/gd32vw55x_adc.c ****     }else if(channel <= ADC_CHANNEL_SAMPLE_ELEVEN){
 1095              		.loc 1 429 13
 1096 00fc 0347E4FD 		lbu	a4,-34(s0)
 1097 0100 AD47     		li	a5,11
 1098 0102 63E9E704 		bgtu	a4,a5,.L51
 431:../Firmware/GD32VW55x_standard_peripheral/Source/gd32vw55x_adc.c ****         sampt &= ~((uint32_t)(ADC_SAMPTX_SPTN << (ADC_CHANNEL_SAMPLE_LENGTH*(channel - ADC_CHANNEL_
 1099              		.loc 1 431 17
 1100 0106 B7270140 		li	a5,1073815552
 1101 010a B107     		addi	a5,a5,12
 431:../Firmware/GD32VW55x_standard_peripheral/Source/gd32vw55x_adc.c ****         sampt &= ~((uint32_t)(ADC_SAMPTX_SPTN << (ADC_CHANNEL_SAMPLE_LENGTH*(channel - ADC_CHANNEL_
 1102              		.loc 1 431 15
 1103 010c 9C43     		lw	a5,0(a5)
 1104 010e 2322F4FE 		sw	a5,-28(s0)
 432:../Firmware/GD32VW55x_standard_peripheral/Source/gd32vw55x_adc.c ****         /* channel sample time set*/
 1105              		.loc 1 432 86
 1106 0112 8347E4FD 		lbu	a5,-34(s0)
 1107 0116 E117     		addi	a5,a5,-8
 432:../Firmware/GD32VW55x_standard_peripheral/Source/gd32vw55x_adc.c ****         /* channel sample time set*/
 1108              		.loc 1 432 76
 1109 0118 8A07     		slli	a5,a5,2
 432:../Firmware/GD32VW55x_standard_peripheral/Source/gd32vw55x_adc.c ****         /* channel sample time set*/
 1110              		.loc 1 432 20
 1111 011a 1D47     		li	a4,7
 1112 011c B317F700 		sll	a5,a4,a5
 432:../Firmware/GD32VW55x_standard_peripheral/Source/gd32vw55x_adc.c ****         /* channel sample time set*/
 1113              		.loc 1 432 18
 1114 0120 93C7F7FF 		not	a5,a5
 432:../Firmware/GD32VW55x_standard_peripheral/Source/gd32vw55x_adc.c ****         /* channel sample time set*/
 1115              		.loc 1 432 15
 1116 0124 032744FE 		lw	a4,-28(s0)
 1117 0128 F98F     		and	a5,a4,a5
 1118 012a 2322F4FE 		sw	a5,-28(s0)
 434:../Firmware/GD32VW55x_standard_peripheral/Source/gd32vw55x_adc.c ****         ADC_SAMPT0 = sampt;
 1119              		.loc 1 434 80
 1120 012e 8347E4FD 		lbu	a5,-34(s0)
 1121 0132 E117     		addi	a5,a5,-8
 434:../Firmware/GD32VW55x_standard_peripheral/Source/gd32vw55x_adc.c ****         ADC_SAMPT0 = sampt;
 1122              		.loc 1 434 70
 1123 0134 8A07     		slli	a5,a5,2
 434:../Firmware/GD32VW55x_standard_peripheral/Source/gd32vw55x_adc.c ****         ADC_SAMPT0 = sampt;
 1124              		.loc 1 434 41
 1125 0136 032784FD 		lw	a4,-40(s0)
 1126 013a B317F700 		sll	a5,a4,a5
 434:../Firmware/GD32VW55x_standard_peripheral/Source/gd32vw55x_adc.c ****         ADC_SAMPT0 = sampt;
 1127              		.loc 1 434 15
 1128 013e 032744FE 		lw	a4,-28(s0)
 1129 0142 D98F     		or	a5,a4,a5
 1130 0144 2322F4FE 		sw	a5,-28(s0)
 435:../Firmware/GD32VW55x_standard_peripheral/Source/gd32vw55x_adc.c ****     }else{
 1131              		.loc 1 435 9
 1132 0148 B7270140 		li	a5,1073815552
 1133 014c B107     		addi	a5,a5,12
 435:../Firmware/GD32VW55x_standard_peripheral/Source/gd32vw55x_adc.c ****     }else{
 1134              		.loc 1 435 20
 1135 014e 032744FE 		lw	a4,-28(s0)
 1136 0152 98C3     		sw	a4,0(a5)
 1137              	.L51:
 1138              		.loc 1 439 1
 1139 0154 0100     		nop
 1140 0156 3254     		lw	s0,44(sp)
 1141              		.cfi_restore 8
 1142              		.cfi_def_cfa 2, 48
 1143 0158 4561     		addi	sp,sp,48
 1144              		.cfi_def_cfa_offset 0
 1145 015a 8280     		jr	ra
 1146              		.cfi_endproc
 1147              	.LFE362:
 1149              		.section	.text.adc_inserted_channel_offset_config,"ax",@progbits
 1150              		.align	1
 1151              		.globl	adc_inserted_channel_offset_config
 1153              	adc_inserted_channel_offset_config:
 1154              	.LFB363:
 440:../Firmware/GD32VW55x_standard_peripheral/Source/gd32vw55x_adc.c **** 
 441:../Firmware/GD32VW55x_standard_peripheral/Source/gd32vw55x_adc.c **** /*!
 442:../Firmware/GD32VW55x_standard_peripheral/Source/gd32vw55x_adc.c ****     \brief      configure ADC inserted channel offset
 443:../Firmware/GD32VW55x_standard_peripheral/Source/gd32vw55x_adc.c ****     \param[in]  inserted_channel : inserted channel select
 444:../Firmware/GD32VW55x_standard_peripheral/Source/gd32vw55x_adc.c ****                 only one parameter can be selected which is shown as below:
 445:../Firmware/GD32VW55x_standard_peripheral/Source/gd32vw55x_adc.c ****       \arg        ADC_INSERTED_CHANNEL_0: ADC inserted channel 0
 446:../Firmware/GD32VW55x_standard_peripheral/Source/gd32vw55x_adc.c ****       \arg        ADC_INSERTED_CHANNEL_1: ADC inserted channel 1
 447:../Firmware/GD32VW55x_standard_peripheral/Source/gd32vw55x_adc.c ****       \arg        ADC_INSERTED_CHANNEL_2: ADC inserted channel 2
 448:../Firmware/GD32VW55x_standard_peripheral/Source/gd32vw55x_adc.c ****       \arg        ADC_INSERTED_CHANNEL_3: ADC inserted channel 3
 449:../Firmware/GD32VW55x_standard_peripheral/Source/gd32vw55x_adc.c ****     \param[in]  offset : the offset data
 450:../Firmware/GD32VW55x_standard_peripheral/Source/gd32vw55x_adc.c ****     \param[out] none
 451:../Firmware/GD32VW55x_standard_peripheral/Source/gd32vw55x_adc.c ****     \retval     none
 452:../Firmware/GD32VW55x_standard_peripheral/Source/gd32vw55x_adc.c **** */
 453:../Firmware/GD32VW55x_standard_peripheral/Source/gd32vw55x_adc.c **** void adc_inserted_channel_offset_config(uint8_t inserted_channel, uint16_t offset)
 454:../Firmware/GD32VW55x_standard_peripheral/Source/gd32vw55x_adc.c **** {
 1155              		.loc 1 454 1
 1156              		.cfi_startproc
 1157 0000 7971     		addi	sp,sp,-48
 1158              		.cfi_def_cfa_offset 48
 1159 0002 22D6     		sw	s0,44(sp)
 1160              		.cfi_offset 8, -4
 1161 0004 0018     		addi	s0,sp,48
 1162              		.cfi_def_cfa 8, 0
 1163 0006 AA87     		mv	a5,a0
 1164 0008 2E87     		mv	a4,a1
 1165 000a A30FF4FC 		sb	a5,-33(s0)
 1166 000e BA87     		mv	a5,a4
 1167 0010 231EF4FC 		sh	a5,-36(s0)
 455:../Firmware/GD32VW55x_standard_peripheral/Source/gd32vw55x_adc.c ****     uint8_t inserted_length;
 456:../Firmware/GD32VW55x_standard_peripheral/Source/gd32vw55x_adc.c ****     uint32_t num = 0U;
 1168              		.loc 1 456 14
 1169 0014 232604FE 		sw	zero,-20(s0)
 457:../Firmware/GD32VW55x_standard_peripheral/Source/gd32vw55x_adc.c **** 
 458:../Firmware/GD32VW55x_standard_peripheral/Source/gd32vw55x_adc.c ****     inserted_length = (uint8_t)GET_BITS(ADC_ISQ, 20U, 21U);
 1170              		.loc 1 458 32
 1171 0018 B7270140 		li	a5,1073815552
 1172 001c 93878703 		addi	a5,a5,56
 1173 0020 9C43     		lw	a5,0(a5)
 1174 0022 D183     		srli	a5,a5,20
 1175              		.loc 1 458 23
 1176 0024 93F7F70F 		andi	a5,a5,0xff
 1177              		.loc 1 458 21
 1178 0028 8D8B     		andi	a5,a5,3
 1179 002a A305F4FE 		sb	a5,-21(s0)
 459:../Firmware/GD32VW55x_standard_peripheral/Source/gd32vw55x_adc.c ****     num = ((uint32_t)ADC_OFFSET_LENGTH - ((uint32_t)inserted_length - (uint32_t)inserted_channel));
 1180              		.loc 1 459 71
 1181 002e 0347F4FD 		lbu	a4,-33(s0)
 1182              		.loc 1 459 43
 1183 0032 8347B4FE 		lbu	a5,-21(s0)
 1184              		.loc 1 459 40
 1185 0036 B307F740 		sub	a5,a4,a5
 1186              		.loc 1 459 9
 1187 003a 8D07     		addi	a5,a5,3
 1188 003c 2326F4FE 		sw	a5,-20(s0)
 460:../Firmware/GD32VW55x_standard_peripheral/Source/gd32vw55x_adc.c **** 
 461:../Firmware/GD32VW55x_standard_peripheral/Source/gd32vw55x_adc.c ****     if(num <= ADC_OFFSET_LENGTH){
 1189              		.loc 1 461 7
 1190 0040 0327C4FE 		lw	a4,-20(s0)
 1191 0044 8D47     		li	a5,3
 1192 0046 63E4E702 		bgtu	a4,a5,.L54
 462:../Firmware/GD32VW55x_standard_peripheral/Source/gd32vw55x_adc.c ****         /* calculate the offset of the register */
 463:../Firmware/GD32VW55x_standard_peripheral/Source/gd32vw55x_adc.c ****         num = num * ADC_OFFSET_SHIFT_LENGTH;
 1193              		.loc 1 463 13
 1194 004a 8327C4FE 		lw	a5,-20(s0)
 1195 004e 8A07     		slli	a5,a5,2
 1196 0050 2326F4FE 		sw	a5,-20(s0)
 464:../Firmware/GD32VW55x_standard_peripheral/Source/gd32vw55x_adc.c ****         /* configure the offset of the selected channels */
 465:../Firmware/GD32VW55x_standard_peripheral/Source/gd32vw55x_adc.c ****         REG32((ADC) + 0x14U + num) = IOFFX_IOFF((uint32_t)offset);
 1197              		.loc 1 465 38
 1198 0054 0357C4FD 		lhu	a4,-36(s0)
 1199              		.loc 1 465 9
 1200 0058 8326C4FE 		lw	a3,-20(s0)
 1201 005c B7270140 		li	a5,1073815552
 1202 0060 D107     		addi	a5,a5,20
 1203 0062 B697     		add	a5,a3,a5
 1204 0064 BE86     		mv	a3,a5
 1205              		.loc 1 465 38
 1206 0066 8567     		li	a5,4096
 1207 0068 FD17     		addi	a5,a5,-1
 1208 006a F98F     		and	a5,a4,a5
 1209              		.loc 1 465 36
 1210 006c 9CC2     		sw	a5,0(a3)
 1211              	.L54:
 466:../Firmware/GD32VW55x_standard_peripheral/Source/gd32vw55x_adc.c ****     }
 467:../Firmware/GD32VW55x_standard_peripheral/Source/gd32vw55x_adc.c **** }
 1212              		.loc 1 467 1
 1213 006e 0100     		nop
 1214 0070 3254     		lw	s0,44(sp)
 1215              		.cfi_restore 8
 1216              		.cfi_def_cfa 2, 48
 1217 0072 4561     		addi	sp,sp,48
 1218              		.cfi_def_cfa_offset 0
 1219 0074 8280     		jr	ra
 1220              		.cfi_endproc
 1221              	.LFE363:
 1223              		.section	.text.adc_external_trigger_config,"ax",@progbits
 1224              		.align	1
 1225              		.globl	adc_external_trigger_config
 1227              	adc_external_trigger_config:
 1228              	.LFB364:
 468:../Firmware/GD32VW55x_standard_peripheral/Source/gd32vw55x_adc.c **** 
 469:../Firmware/GD32VW55x_standard_peripheral/Source/gd32vw55x_adc.c **** /*!
 470:../Firmware/GD32VW55x_standard_peripheral/Source/gd32vw55x_adc.c ****     \brief      configure ADC external trigger
 471:../Firmware/GD32VW55x_standard_peripheral/Source/gd32vw55x_adc.c ****     \param[in]  channel_group: select the channel group
 472:../Firmware/GD32VW55x_standard_peripheral/Source/gd32vw55x_adc.c ****                 only one parameter can be selected which is shown as below:
 473:../Firmware/GD32VW55x_standard_peripheral/Source/gd32vw55x_adc.c ****       \arg        ADC_ROUTINE_CHANNEL: routine channel group
 474:../Firmware/GD32VW55x_standard_peripheral/Source/gd32vw55x_adc.c ****       \arg        ADC_INSERTED_CHANNEL: inserted channel group
 475:../Firmware/GD32VW55x_standard_peripheral/Source/gd32vw55x_adc.c ****     \param[in]  trigger_mode: external trigger mode
 476:../Firmware/GD32VW55x_standard_peripheral/Source/gd32vw55x_adc.c ****                 only one parameter can be selected which is shown as below:
 477:../Firmware/GD32VW55x_standard_peripheral/Source/gd32vw55x_adc.c ****       \arg        EXTERNAL_TRIGGER_DISABLE: external trigger disable
 478:../Firmware/GD32VW55x_standard_peripheral/Source/gd32vw55x_adc.c ****       \arg        EXTERNAL_TRIGGER_RISING: rising edge of external trigger
 479:../Firmware/GD32VW55x_standard_peripheral/Source/gd32vw55x_adc.c ****       \arg        EXTERNAL_TRIGGER_FALLING: falling edge of external trigger
 480:../Firmware/GD32VW55x_standard_peripheral/Source/gd32vw55x_adc.c ****       \arg        EXTERNAL_TRIGGER_RISING_FALLING: rising and falling edge of external trigger
 481:../Firmware/GD32VW55x_standard_peripheral/Source/gd32vw55x_adc.c ****     \param[out] none
 482:../Firmware/GD32VW55x_standard_peripheral/Source/gd32vw55x_adc.c ****     \retval     none
 483:../Firmware/GD32VW55x_standard_peripheral/Source/gd32vw55x_adc.c **** */
 484:../Firmware/GD32VW55x_standard_peripheral/Source/gd32vw55x_adc.c **** void adc_external_trigger_config(uint8_t channel_group, uint32_t trigger_mode)
 485:../Firmware/GD32VW55x_standard_peripheral/Source/gd32vw55x_adc.c **** {
 1229              		.loc 1 485 1
 1230              		.cfi_startproc
 1231 0000 0111     		addi	sp,sp,-32
 1232              		.cfi_def_cfa_offset 32
 1233 0002 22CE     		sw	s0,28(sp)
 1234              		.cfi_offset 8, -4
 1235 0004 0010     		addi	s0,sp,32
 1236              		.cfi_def_cfa 8, 0
 1237 0006 AA87     		mv	a5,a0
 1238 0008 2324B4FE 		sw	a1,-24(s0)
 1239 000c A307F4FE 		sb	a5,-17(s0)
 486:../Firmware/GD32VW55x_standard_peripheral/Source/gd32vw55x_adc.c ****         switch(channel_group){
 1240              		.loc 1 486 9
 1241 0010 8347F4FE 		lbu	a5,-17(s0)
 1242 0014 0547     		li	a4,1
 1243 0016 6386E700 		beq	a5,a4,.L56
 1244 001a 0947     		li	a4,2
 1245 001c 638DE702 		beq	a5,a4,.L57
 487:../Firmware/GD32VW55x_standard_peripheral/Source/gd32vw55x_adc.c ****         case ADC_ROUTINE_CHANNEL:
 488:../Firmware/GD32VW55x_standard_peripheral/Source/gd32vw55x_adc.c ****             /* configure ADC routine channel group external trigger mode */
 489:../Firmware/GD32VW55x_standard_peripheral/Source/gd32vw55x_adc.c ****             ADC_CTL1 &= ~((uint32_t)ADC_CTL1_ETMRC);
 490:../Firmware/GD32VW55x_standard_peripheral/Source/gd32vw55x_adc.c ****             ADC_CTL1 |= (uint32_t) (trigger_mode << ROUTINE_TRIGGER_MODE_OFFSET);
 491:../Firmware/GD32VW55x_standard_peripheral/Source/gd32vw55x_adc.c ****             break;
 492:../Firmware/GD32VW55x_standard_peripheral/Source/gd32vw55x_adc.c ****         case ADC_INSERTED_CHANNEL:
 493:../Firmware/GD32VW55x_standard_peripheral/Source/gd32vw55x_adc.c ****             /* configure ADC inserted channel group external trigger mode */
 494:../Firmware/GD32VW55x_standard_peripheral/Source/gd32vw55x_adc.c ****             ADC_CTL1 &=  ~((uint32_t)ADC_CTL1_ETMIC);
 495:../Firmware/GD32VW55x_standard_peripheral/Source/gd32vw55x_adc.c ****             ADC_CTL1 |= (uint32_t) (trigger_mode << INSERTED_TRIGGER_MODE_OFFSET);
 496:../Firmware/GD32VW55x_standard_peripheral/Source/gd32vw55x_adc.c ****             break;
 497:../Firmware/GD32VW55x_standard_peripheral/Source/gd32vw55x_adc.c ****         default:
 498:../Firmware/GD32VW55x_standard_peripheral/Source/gd32vw55x_adc.c ****             break;
 1246              		.loc 1 498 13
 1247 0020 ADA0     		j	.L59
 1248              	.L56:
 489:../Firmware/GD32VW55x_standard_peripheral/Source/gd32vw55x_adc.c ****             ADC_CTL1 |= (uint32_t) (trigger_mode << ROUTINE_TRIGGER_MODE_OFFSET);
 1249              		.loc 1 489 22
 1250 0022 B7270140 		li	a5,1073815552
 1251 0026 A107     		addi	a5,a5,8
 1252 0028 9443     		lw	a3,0(a5)
 1253 002a B7270140 		li	a5,1073815552
 1254 002e A107     		addi	a5,a5,8
 1255 0030 370700D0 		li	a4,-805306368
 1256 0034 7D17     		addi	a4,a4,-1
 1257 0036 758F     		and	a4,a3,a4
 1258 0038 98C3     		sw	a4,0(a5)
 490:../Firmware/GD32VW55x_standard_peripheral/Source/gd32vw55x_adc.c ****             break;
 1259              		.loc 1 490 22
 1260 003a B7270140 		li	a5,1073815552
 1261 003e A107     		addi	a5,a5,8
 1262 0040 9443     		lw	a3,0(a5)
 490:../Firmware/GD32VW55x_standard_peripheral/Source/gd32vw55x_adc.c ****             break;
 1263              		.loc 1 490 50
 1264 0042 832784FE 		lw	a5,-24(s0)
 1265 0046 1397C701 		slli	a4,a5,28
 490:../Firmware/GD32VW55x_standard_peripheral/Source/gd32vw55x_adc.c ****             break;
 1266              		.loc 1 490 22
 1267 004a B7270140 		li	a5,1073815552
 1268 004e A107     		addi	a5,a5,8
 1269 0050 558F     		or	a4,a3,a4
 1270 0052 98C3     		sw	a4,0(a5)
 491:../Firmware/GD32VW55x_standard_peripheral/Source/gd32vw55x_adc.c ****         case ADC_INSERTED_CHANNEL:
 1271              		.loc 1 491 13
 1272 0054 1DA8     		j	.L59
 1273              	.L57:
 494:../Firmware/GD32VW55x_standard_peripheral/Source/gd32vw55x_adc.c ****             ADC_CTL1 |= (uint32_t) (trigger_mode << INSERTED_TRIGGER_MODE_OFFSET);
 1274              		.loc 1 494 22
 1275 0056 B7270140 		li	a5,1073815552
 1276 005a A107     		addi	a5,a5,8
 1277 005c 9443     		lw	a3,0(a5)
 1278 005e B7270140 		li	a5,1073815552
 1279 0062 A107     		addi	a5,a5,8
 1280 0064 3707D0FF 		li	a4,-3145728
 1281 0068 7D17     		addi	a4,a4,-1
 1282 006a 758F     		and	a4,a3,a4
 1283 006c 98C3     		sw	a4,0(a5)
 495:../Firmware/GD32VW55x_standard_peripheral/Source/gd32vw55x_adc.c ****             break;
 1284              		.loc 1 495 22
 1285 006e B7270140 		li	a5,1073815552
 1286 0072 A107     		addi	a5,a5,8
 1287 0074 9443     		lw	a3,0(a5)
 495:../Firmware/GD32VW55x_standard_peripheral/Source/gd32vw55x_adc.c ****             break;
 1288              		.loc 1 495 50
 1289 0076 832784FE 		lw	a5,-24(s0)
 1290 007a 13974701 		slli	a4,a5,20
 495:../Firmware/GD32VW55x_standard_peripheral/Source/gd32vw55x_adc.c ****             break;
 1291              		.loc 1 495 22
 1292 007e B7270140 		li	a5,1073815552
 1293 0082 A107     		addi	a5,a5,8
 1294 0084 558F     		or	a4,a3,a4
 1295 0086 98C3     		sw	a4,0(a5)
 496:../Firmware/GD32VW55x_standard_peripheral/Source/gd32vw55x_adc.c ****         default:
 1296              		.loc 1 496 13
 1297 0088 0100     		nop
 1298              	.L59:
 499:../Firmware/GD32VW55x_standard_peripheral/Source/gd32vw55x_adc.c ****         }
 500:../Firmware/GD32VW55x_standard_peripheral/Source/gd32vw55x_adc.c **** }
 1299              		.loc 1 500 1
 1300 008a 0100     		nop
 1301 008c 7244     		lw	s0,28(sp)
 1302              		.cfi_restore 8
 1303              		.cfi_def_cfa 2, 32
 1304 008e 0561     		addi	sp,sp,32
 1305              		.cfi_def_cfa_offset 0
 1306 0090 8280     		jr	ra
 1307              		.cfi_endproc
 1308              	.LFE364:
 1310              		.section	.text.adc_external_trigger_source_config,"ax",@progbits
 1311              		.align	1
 1312              		.globl	adc_external_trigger_source_config
 1314              	adc_external_trigger_source_config:
 1315              	.LFB365:
 501:../Firmware/GD32VW55x_standard_peripheral/Source/gd32vw55x_adc.c **** 
 502:../Firmware/GD32VW55x_standard_peripheral/Source/gd32vw55x_adc.c **** /*!
 503:../Firmware/GD32VW55x_standard_peripheral/Source/gd32vw55x_adc.c ****     \brief      configure ADC external trigger source
 504:../Firmware/GD32VW55x_standard_peripheral/Source/gd32vw55x_adc.c ****     \param[in]  channel_group: select the channel group
 505:../Firmware/GD32VW55x_standard_peripheral/Source/gd32vw55x_adc.c ****                 only one parameter can be selected which is shown as below:
 506:../Firmware/GD32VW55x_standard_peripheral/Source/gd32vw55x_adc.c ****       \arg        ADC_ROUTINE_CHANNEL: routine channel group
 507:../Firmware/GD32VW55x_standard_peripheral/Source/gd32vw55x_adc.c ****       \arg        ADC_INSERTED_CHANNEL: inserted channel group
 508:../Firmware/GD32VW55x_standard_peripheral/Source/gd32vw55x_adc.c ****     \param[in]  external_trigger_source: routine or inserted group trigger source
 509:../Firmware/GD32VW55x_standard_peripheral/Source/gd32vw55x_adc.c ****                 for routine channel:
 510:../Firmware/GD32VW55x_standard_peripheral/Source/gd32vw55x_adc.c ****                 only one parameter can be selected which is shown as below:
 511:../Firmware/GD32VW55x_standard_peripheral/Source/gd32vw55x_adc.c ****       \arg        ADC_EXTTRIG_ROUTINE_T0_CH0: external trigger TIMER0 CH0 event select for routine 
 512:../Firmware/GD32VW55x_standard_peripheral/Source/gd32vw55x_adc.c ****       \arg        ADC_EXTTRIG_ROUTINE_T0_CH1: external trigger TIMER0 CH1 event select for routine 
 513:../Firmware/GD32VW55x_standard_peripheral/Source/gd32vw55x_adc.c ****       \arg        ADC_EXTTRIG_ROUTINE_T0_CH2: external trigger TIMER0 CH2 event select for routine 
 514:../Firmware/GD32VW55x_standard_peripheral/Source/gd32vw55x_adc.c ****       \arg        ADC_EXTTRIG_ROUTINE_T1_CH1: external trigger TIMER1 CH1 event select for routine 
 515:../Firmware/GD32VW55x_standard_peripheral/Source/gd32vw55x_adc.c ****       \arg        ADC_EXTTRIG_ROUTINE_T1_CH2: external trigger TIMER1 CH2 event select for routine 
 516:../Firmware/GD32VW55x_standard_peripheral/Source/gd32vw55x_adc.c ****       \arg        ADC_EXTTRIG_ROUTINE_T1_CH3: external trigger TIMER1 CH3 event select for routine 
 517:../Firmware/GD32VW55x_standard_peripheral/Source/gd32vw55x_adc.c ****       \arg        ADC_EXTTRIG_ROUTINE_T1_TRGO: external trigger TIMER1 TRGO event select for routin
 518:../Firmware/GD32VW55x_standard_peripheral/Source/gd32vw55x_adc.c ****       \arg        ADC_EXTTRIG_ROUTINE_T2_CH0 : external trigger TIMER2 CH0 event select for routine
 519:../Firmware/GD32VW55x_standard_peripheral/Source/gd32vw55x_adc.c ****       \arg        ADC_EXTTRIG_ROUTINE_T2_TRGO : external trigger TIMER2 TRGO event select for routi
 520:../Firmware/GD32VW55x_standard_peripheral/Source/gd32vw55x_adc.c ****       \arg        ADC_EXTTRIG_ROUTINE_EXTI_11: external trigger extiline 11 select for routine chan
 521:../Firmware/GD32VW55x_standard_peripheral/Source/gd32vw55x_adc.c ****                 for inserted channel:
 522:../Firmware/GD32VW55x_standard_peripheral/Source/gd32vw55x_adc.c ****                 only one parameter can be selected which is shown as below:
 523:../Firmware/GD32VW55x_standard_peripheral/Source/gd32vw55x_adc.c ****       \arg        ADC_EXTTRIG_INSERTED_T0_CH3: TIMER0 CH3 event select for inserted channel
 524:../Firmware/GD32VW55x_standard_peripheral/Source/gd32vw55x_adc.c ****       \arg        ADC_EXTTRIG_INSERTED_T0_TRGO: TIMER0 TRGO event event select for inserted channel
 525:../Firmware/GD32VW55x_standard_peripheral/Source/gd32vw55x_adc.c ****       \arg        ADC_EXTTRIG_INSERTED_T1_CH0: TIMER1 CH0 event select for inserted channel
 526:../Firmware/GD32VW55x_standard_peripheral/Source/gd32vw55x_adc.c ****       \arg        ADC_EXTTRIG_INSERTED_T1_TRGO: TIMER1 TRGO event event select for inserted channel
 527:../Firmware/GD32VW55x_standard_peripheral/Source/gd32vw55x_adc.c ****       \arg        ADC_EXTTRIG_INSERTED_T2_CH1: TIMER2 CH1 event select for inserted channel
 528:../Firmware/GD32VW55x_standard_peripheral/Source/gd32vw55x_adc.c ****       \arg        ADC_EXTTRIG_INSERTED_T2_CH3: TIMER2 CH3 event select for inserted channel
 529:../Firmware/GD32VW55x_standard_peripheral/Source/gd32vw55x_adc.c ****       \arg        ADC_EXTTRIG_INSERTED_EXTI_15: external interrupt line 15 event select for inserte
 530:../Firmware/GD32VW55x_standard_peripheral/Source/gd32vw55x_adc.c ****     \param[out] none
 531:../Firmware/GD32VW55x_standard_peripheral/Source/gd32vw55x_adc.c ****     \retval     none
 532:../Firmware/GD32VW55x_standard_peripheral/Source/gd32vw55x_adc.c **** */
 533:../Firmware/GD32VW55x_standard_peripheral/Source/gd32vw55x_adc.c **** void adc_external_trigger_source_config(uint8_t channel_group, uint32_t external_trigger_source)
 534:../Firmware/GD32VW55x_standard_peripheral/Source/gd32vw55x_adc.c **** {
 1316              		.loc 1 534 1
 1317              		.cfi_startproc
 1318 0000 0111     		addi	sp,sp,-32
 1319              		.cfi_def_cfa_offset 32
 1320 0002 22CE     		sw	s0,28(sp)
 1321              		.cfi_offset 8, -4
 1322 0004 0010     		addi	s0,sp,32
 1323              		.cfi_def_cfa 8, 0
 1324 0006 AA87     		mv	a5,a0
 1325 0008 2324B4FE 		sw	a1,-24(s0)
 1326 000c A307F4FE 		sb	a5,-17(s0)
 535:../Firmware/GD32VW55x_standard_peripheral/Source/gd32vw55x_adc.c ****     switch(channel_group){
 1327              		.loc 1 535 5
 1328 0010 8347F4FE 		lbu	a5,-17(s0)
 1329 0014 0547     		li	a4,1
 1330 0016 6386E700 		beq	a5,a4,.L61
 1331 001a 0947     		li	a4,2
 1332 001c 638BE702 		beq	a5,a4,.L62
 536:../Firmware/GD32VW55x_standard_peripheral/Source/gd32vw55x_adc.c ****     case ADC_ROUTINE_CHANNEL:
 537:../Firmware/GD32VW55x_standard_peripheral/Source/gd32vw55x_adc.c ****         /* configure ADC routine group external trigger source */
 538:../Firmware/GD32VW55x_standard_peripheral/Source/gd32vw55x_adc.c ****         ADC_CTL1 &= ~((uint32_t)ADC_CTL1_ETSRC);
 539:../Firmware/GD32VW55x_standard_peripheral/Source/gd32vw55x_adc.c ****         ADC_CTL1 |= (uint32_t)external_trigger_source;
 540:../Firmware/GD32VW55x_standard_peripheral/Source/gd32vw55x_adc.c ****         break;
 541:../Firmware/GD32VW55x_standard_peripheral/Source/gd32vw55x_adc.c ****     case ADC_INSERTED_CHANNEL:
 542:../Firmware/GD32VW55x_standard_peripheral/Source/gd32vw55x_adc.c ****         /* configure ADC inserted group external trigger source */
 543:../Firmware/GD32VW55x_standard_peripheral/Source/gd32vw55x_adc.c ****         ADC_CTL1 &= ~((uint32_t)ADC_CTL1_ETSIC);
 544:../Firmware/GD32VW55x_standard_peripheral/Source/gd32vw55x_adc.c ****         ADC_CTL1 |= (uint32_t)external_trigger_source;
 545:../Firmware/GD32VW55x_standard_peripheral/Source/gd32vw55x_adc.c ****         break;
 546:../Firmware/GD32VW55x_standard_peripheral/Source/gd32vw55x_adc.c ****     default:
 547:../Firmware/GD32VW55x_standard_peripheral/Source/gd32vw55x_adc.c ****         break;
 1333              		.loc 1 547 9
 1334 0020 8DA0     		j	.L64
 1335              	.L61:
 538:../Firmware/GD32VW55x_standard_peripheral/Source/gd32vw55x_adc.c ****         ADC_CTL1 |= (uint32_t)external_trigger_source;
 1336              		.loc 1 538 18
 1337 0022 B7270140 		li	a5,1073815552
 1338 0026 A107     		addi	a5,a5,8
 1339 0028 9443     		lw	a3,0(a5)
 1340 002a B7270140 		li	a5,1073815552
 1341 002e A107     		addi	a5,a5,8
 1342 0030 370700F1 		li	a4,-251658240
 1343 0034 7D17     		addi	a4,a4,-1
 1344 0036 758F     		and	a4,a3,a4
 1345 0038 98C3     		sw	a4,0(a5)
 539:../Firmware/GD32VW55x_standard_peripheral/Source/gd32vw55x_adc.c ****         break;
 1346              		.loc 1 539 18
 1347 003a B7270140 		li	a5,1073815552
 1348 003e A107     		addi	a5,a5,8
 1349 0040 9443     		lw	a3,0(a5)
 1350 0042 B7270140 		li	a5,1073815552
 1351 0046 A107     		addi	a5,a5,8
 1352 0048 032784FE 		lw	a4,-24(s0)
 1353 004c 558F     		or	a4,a3,a4
 1354 004e 98C3     		sw	a4,0(a5)
 540:../Firmware/GD32VW55x_standard_peripheral/Source/gd32vw55x_adc.c ****     case ADC_INSERTED_CHANNEL:
 1355              		.loc 1 540 9
 1356 0050 0DA8     		j	.L64
 1357              	.L62:
 543:../Firmware/GD32VW55x_standard_peripheral/Source/gd32vw55x_adc.c ****         ADC_CTL1 |= (uint32_t)external_trigger_source;
 1358              		.loc 1 543 18
 1359 0052 B7270140 		li	a5,1073815552
 1360 0056 A107     		addi	a5,a5,8
 1361 0058 9443     		lw	a3,0(a5)
 1362 005a B7270140 		li	a5,1073815552
 1363 005e A107     		addi	a5,a5,8
 1364 0060 3707F1FF 		li	a4,-983040
 1365 0064 7D17     		addi	a4,a4,-1
 1366 0066 758F     		and	a4,a3,a4
 1367 0068 98C3     		sw	a4,0(a5)
 544:../Firmware/GD32VW55x_standard_peripheral/Source/gd32vw55x_adc.c ****         break;
 1368              		.loc 1 544 18
 1369 006a B7270140 		li	a5,1073815552
 1370 006e A107     		addi	a5,a5,8
 1371 0070 9443     		lw	a3,0(a5)
 1372 0072 B7270140 		li	a5,1073815552
 1373 0076 A107     		addi	a5,a5,8
 1374 0078 032784FE 		lw	a4,-24(s0)
 1375 007c 558F     		or	a4,a3,a4
 1376 007e 98C3     		sw	a4,0(a5)
 545:../Firmware/GD32VW55x_standard_peripheral/Source/gd32vw55x_adc.c ****     default:
 1377              		.loc 1 545 9
 1378 0080 0100     		nop
 1379              	.L64:
 548:../Firmware/GD32VW55x_standard_peripheral/Source/gd32vw55x_adc.c ****     }
 549:../Firmware/GD32VW55x_standard_peripheral/Source/gd32vw55x_adc.c **** }
 1380              		.loc 1 549 1
 1381 0082 0100     		nop
 1382 0084 7244     		lw	s0,28(sp)
 1383              		.cfi_restore 8
 1384              		.cfi_def_cfa 2, 32
 1385 0086 0561     		addi	sp,sp,32
 1386              		.cfi_def_cfa_offset 0
 1387 0088 8280     		jr	ra
 1388              		.cfi_endproc
 1389              	.LFE365:
 1391              		.section	.text.adc_software_trigger_enable,"ax",@progbits
 1392              		.align	1
 1393              		.globl	adc_software_trigger_enable
 1395              	adc_software_trigger_enable:
 1396              	.LFB366:
 550:../Firmware/GD32VW55x_standard_peripheral/Source/gd32vw55x_adc.c **** 
 551:../Firmware/GD32VW55x_standard_peripheral/Source/gd32vw55x_adc.c **** /*!
 552:../Firmware/GD32VW55x_standard_peripheral/Source/gd32vw55x_adc.c ****     \brief      enable ADC software trigger
 553:../Firmware/GD32VW55x_standard_peripheral/Source/gd32vw55x_adc.c ****     \param[in]  channel_group: select the channel group
 554:../Firmware/GD32VW55x_standard_peripheral/Source/gd32vw55x_adc.c ****                 only one parameter can be selected which is shown as below:
 555:../Firmware/GD32VW55x_standard_peripheral/Source/gd32vw55x_adc.c ****       \arg        ADC_ROUTINE_CHANNEL: routine channel group
 556:../Firmware/GD32VW55x_standard_peripheral/Source/gd32vw55x_adc.c ****       \arg        ADC_INSERTED_CHANNEL: inserted channel group
 557:../Firmware/GD32VW55x_standard_peripheral/Source/gd32vw55x_adc.c ****     \param[out] none
 558:../Firmware/GD32VW55x_standard_peripheral/Source/gd32vw55x_adc.c ****     \retval     none
 559:../Firmware/GD32VW55x_standard_peripheral/Source/gd32vw55x_adc.c **** */
 560:../Firmware/GD32VW55x_standard_peripheral/Source/gd32vw55x_adc.c **** void adc_software_trigger_enable(uint8_t channel_group)
 561:../Firmware/GD32VW55x_standard_peripheral/Source/gd32vw55x_adc.c **** {
 1397              		.loc 1 561 1
 1398              		.cfi_startproc
 1399 0000 0111     		addi	sp,sp,-32
 1400              		.cfi_def_cfa_offset 32
 1401 0002 22CE     		sw	s0,28(sp)
 1402              		.cfi_offset 8, -4
 1403 0004 0010     		addi	s0,sp,32
 1404              		.cfi_def_cfa 8, 0
 1405 0006 AA87     		mv	a5,a0
 1406 0008 A307F4FE 		sb	a5,-17(s0)
 562:../Firmware/GD32VW55x_standard_peripheral/Source/gd32vw55x_adc.c ****     /* enable routine group channel software trigger */
 563:../Firmware/GD32VW55x_standard_peripheral/Source/gd32vw55x_adc.c ****     if(RESET != (channel_group & ADC_ROUTINE_CHANNEL)){
 1407              		.loc 1 563 32
 1408 000c 8347F4FE 		lbu	a5,-17(s0)
 1409 0010 858B     		andi	a5,a5,1
 1410              		.loc 1 563 7
 1411 0012 81CF     		beq	a5,zero,.L66
 564:../Firmware/GD32VW55x_standard_peripheral/Source/gd32vw55x_adc.c ****         ADC_CTL1 |= (uint32_t)ADC_CTL1_SWRCST;
 1412              		.loc 1 564 18
 1413 0014 B7270140 		li	a5,1073815552
 1414 0018 A107     		addi	a5,a5,8
 1415 001a 9443     		lw	a3,0(a5)
 1416 001c B7270140 		li	a5,1073815552
 1417 0020 A107     		addi	a5,a5,8
 1418 0022 37070040 		li	a4,1073741824
 1419 0026 558F     		or	a4,a3,a4
 1420 0028 98C3     		sw	a4,0(a5)
 1421              	.L66:
 565:../Firmware/GD32VW55x_standard_peripheral/Source/gd32vw55x_adc.c ****     }
 566:../Firmware/GD32VW55x_standard_peripheral/Source/gd32vw55x_adc.c ****     /* enable inserted channel group software trigger */
 567:../Firmware/GD32VW55x_standard_peripheral/Source/gd32vw55x_adc.c ****     if(RESET != (channel_group & ADC_INSERTED_CHANNEL)){
 1422              		.loc 1 567 32
 1423 002a 8347F4FE 		lbu	a5,-17(s0)
 1424 002e 898B     		andi	a5,a5,2
 1425              		.loc 1 567 7
 1426 0030 81CF     		beq	a5,zero,.L68
 568:../Firmware/GD32VW55x_standard_peripheral/Source/gd32vw55x_adc.c ****         ADC_CTL1 |= (uint32_t)ADC_CTL1_SWICST;
 1427              		.loc 1 568 18
 1428 0032 B7270140 		li	a5,1073815552
 1429 0036 A107     		addi	a5,a5,8
 1430 0038 9443     		lw	a3,0(a5)
 1431 003a B7270140 		li	a5,1073815552
 1432 003e A107     		addi	a5,a5,8
 1433 0040 37074000 		li	a4,4194304
 1434 0044 558F     		or	a4,a3,a4
 1435 0046 98C3     		sw	a4,0(a5)
 1436              	.L68:
 569:../Firmware/GD32VW55x_standard_peripheral/Source/gd32vw55x_adc.c ****     }
 570:../Firmware/GD32VW55x_standard_peripheral/Source/gd32vw55x_adc.c **** }
 1437              		.loc 1 570 1
 1438 0048 0100     		nop
 1439 004a 7244     		lw	s0,28(sp)
 1440              		.cfi_restore 8
 1441              		.cfi_def_cfa 2, 32
 1442 004c 0561     		addi	sp,sp,32
 1443              		.cfi_def_cfa_offset 0
 1444 004e 8280     		jr	ra
 1445              		.cfi_endproc
 1446              	.LFE366:
 1448              		.section	.text.adc_end_of_conversion_config,"ax",@progbits
 1449              		.align	1
 1450              		.globl	adc_end_of_conversion_config
 1452              	adc_end_of_conversion_config:
 1453              	.LFB367:
 571:../Firmware/GD32VW55x_standard_peripheral/Source/gd32vw55x_adc.c **** 
 572:../Firmware/GD32VW55x_standard_peripheral/Source/gd32vw55x_adc.c **** /*!
 573:../Firmware/GD32VW55x_standard_peripheral/Source/gd32vw55x_adc.c ****     \brief      configure end of conversion mode
 574:../Firmware/GD32VW55x_standard_peripheral/Source/gd32vw55x_adc.c ****     \param[in]  end_selection: end of conversion mode
 575:../Firmware/GD32VW55x_standard_peripheral/Source/gd32vw55x_adc.c ****                 only one parameter can be selected which is shown as below:
 576:../Firmware/GD32VW55x_standard_peripheral/Source/gd32vw55x_adc.c ****       \arg        ADC_EOC_SET_SEQUENCE: only at the end of a sequence of routine conversions, the E
 577:../Firmware/GD32VW55x_standard_peripheral/Source/gd32vw55x_adc.c ****       \arg        ADC_EOC_SET_CONVERSION: at the end of each routine conversion, the EOC bit is set
 578:../Firmware/GD32VW55x_standard_peripheral/Source/gd32vw55x_adc.c ****     \param[out] none
 579:../Firmware/GD32VW55x_standard_peripheral/Source/gd32vw55x_adc.c ****     \retval     none
 580:../Firmware/GD32VW55x_standard_peripheral/Source/gd32vw55x_adc.c **** */
 581:../Firmware/GD32VW55x_standard_peripheral/Source/gd32vw55x_adc.c **** void adc_end_of_conversion_config(uint8_t end_selection)
 582:../Firmware/GD32VW55x_standard_peripheral/Source/gd32vw55x_adc.c **** {
 1454              		.loc 1 582 1
 1455              		.cfi_startproc
 1456 0000 0111     		addi	sp,sp,-32
 1457              		.cfi_def_cfa_offset 32
 1458 0002 22CE     		sw	s0,28(sp)
 1459              		.cfi_offset 8, -4
 1460 0004 0010     		addi	s0,sp,32
 1461              		.cfi_def_cfa 8, 0
 1462 0006 AA87     		mv	a5,a0
 1463 0008 A307F4FE 		sb	a5,-17(s0)
 583:../Firmware/GD32VW55x_standard_peripheral/Source/gd32vw55x_adc.c ****     switch(end_selection){
 1464              		.loc 1 583 5
 1465 000c 8347F4FE 		lbu	a5,-17(s0)
 1466 0010 89C7     		beq	a5,zero,.L70
 1467 0012 0547     		li	a4,1
 1468 0014 638EE700 		beq	a5,a4,.L71
 584:../Firmware/GD32VW55x_standard_peripheral/Source/gd32vw55x_adc.c ****         case ADC_EOC_SET_SEQUENCE:
 585:../Firmware/GD32VW55x_standard_peripheral/Source/gd32vw55x_adc.c ****             /* only at the end of a sequence of routine conversions, the EOC bit is set */
 586:../Firmware/GD32VW55x_standard_peripheral/Source/gd32vw55x_adc.c ****             ADC_CTL1 &= ~((uint32_t)ADC_CTL1_EOCM);
 587:../Firmware/GD32VW55x_standard_peripheral/Source/gd32vw55x_adc.c ****             break;
 588:../Firmware/GD32VW55x_standard_peripheral/Source/gd32vw55x_adc.c ****         case ADC_EOC_SET_CONVERSION:
 589:../Firmware/GD32VW55x_standard_peripheral/Source/gd32vw55x_adc.c ****             /* at the end of each routine conversion, the EOC bit is set.Overflow is detected autom
 590:../Firmware/GD32VW55x_standard_peripheral/Source/gd32vw55x_adc.c ****             ADC_CTL1 |= (uint32_t)(ADC_CTL1_EOCM);
 591:../Firmware/GD32VW55x_standard_peripheral/Source/gd32vw55x_adc.c ****             break;
 592:../Firmware/GD32VW55x_standard_peripheral/Source/gd32vw55x_adc.c ****         default:
 593:../Firmware/GD32VW55x_standard_peripheral/Source/gd32vw55x_adc.c ****             break;
 1469              		.loc 1 593 13
 1470 0018 3DA0     		j	.L73
 1471              	.L70:
 586:../Firmware/GD32VW55x_standard_peripheral/Source/gd32vw55x_adc.c ****             break;
 1472              		.loc 1 586 22
 1473 001a B7270140 		li	a5,1073815552
 1474 001e A107     		addi	a5,a5,8
 1475 0020 9843     		lw	a4,0(a5)
 1476 0022 B7270140 		li	a5,1073815552
 1477 0026 A107     		addi	a5,a5,8
 1478 0028 1377F7BF 		andi	a4,a4,-1025
 1479 002c 98C3     		sw	a4,0(a5)
 587:../Firmware/GD32VW55x_standard_peripheral/Source/gd32vw55x_adc.c ****         case ADC_EOC_SET_CONVERSION:
 1480              		.loc 1 587 13
 1481 002e 21A8     		j	.L73
 1482              	.L71:
 590:../Firmware/GD32VW55x_standard_peripheral/Source/gd32vw55x_adc.c ****             break;
 1483              		.loc 1 590 22
 1484 0030 B7270140 		li	a5,1073815552
 1485 0034 A107     		addi	a5,a5,8
 1486 0036 9843     		lw	a4,0(a5)
 1487 0038 B7270140 		li	a5,1073815552
 1488 003c A107     		addi	a5,a5,8
 1489 003e 13670740 		ori	a4,a4,1024
 1490 0042 98C3     		sw	a4,0(a5)
 591:../Firmware/GD32VW55x_standard_peripheral/Source/gd32vw55x_adc.c ****         default:
 1491              		.loc 1 591 13
 1492 0044 0100     		nop
 1493              	.L73:
 594:../Firmware/GD32VW55x_standard_peripheral/Source/gd32vw55x_adc.c ****     }
 595:../Firmware/GD32VW55x_standard_peripheral/Source/gd32vw55x_adc.c **** }
 1494              		.loc 1 595 1
 1495 0046 0100     		nop
 1496 0048 7244     		lw	s0,28(sp)
 1497              		.cfi_restore 8
 1498              		.cfi_def_cfa 2, 32
 1499 004a 0561     		addi	sp,sp,32
 1500              		.cfi_def_cfa_offset 0
 1501 004c 8280     		jr	ra
 1502              		.cfi_endproc
 1503              	.LFE367:
 1505              		.section	.text.adc_resolution_config,"ax",@progbits
 1506              		.align	1
 1507              		.globl	adc_resolution_config
 1509              	adc_resolution_config:
 1510              	.LFB368:
 596:../Firmware/GD32VW55x_standard_peripheral/Source/gd32vw55x_adc.c **** 
 597:../Firmware/GD32VW55x_standard_peripheral/Source/gd32vw55x_adc.c **** /*!
 598:../Firmware/GD32VW55x_standard_peripheral/Source/gd32vw55x_adc.c ****     \brief      configure ADC resolution
 599:../Firmware/GD32VW55x_standard_peripheral/Source/gd32vw55x_adc.c ****     \param[in]  resolution: ADC resolution
 600:../Firmware/GD32VW55x_standard_peripheral/Source/gd32vw55x_adc.c ****                 only one parameter can be selected which is shown as below:
 601:../Firmware/GD32VW55x_standard_peripheral/Source/gd32vw55x_adc.c ****       \arg        ADC_RESOLUTION_12B: 12-bit ADC resolution
 602:../Firmware/GD32VW55x_standard_peripheral/Source/gd32vw55x_adc.c ****       \arg        ADC_RESOLUTION_10B: 10-bit ADC resolution
 603:../Firmware/GD32VW55x_standard_peripheral/Source/gd32vw55x_adc.c ****       \arg        ADC_RESOLUTION_8B: 8-bit ADC resolution
 604:../Firmware/GD32VW55x_standard_peripheral/Source/gd32vw55x_adc.c ****       \arg        ADC_RESOLUTION_6B: 6-bit ADC resolution
 605:../Firmware/GD32VW55x_standard_peripheral/Source/gd32vw55x_adc.c ****     \param[out] none
 606:../Firmware/GD32VW55x_standard_peripheral/Source/gd32vw55x_adc.c ****     \retval     none
 607:../Firmware/GD32VW55x_standard_peripheral/Source/gd32vw55x_adc.c **** */
 608:../Firmware/GD32VW55x_standard_peripheral/Source/gd32vw55x_adc.c **** void adc_resolution_config(uint32_t resolution)
 609:../Firmware/GD32VW55x_standard_peripheral/Source/gd32vw55x_adc.c **** {
 1511              		.loc 1 609 1
 1512              		.cfi_startproc
 1513 0000 0111     		addi	sp,sp,-32
 1514              		.cfi_def_cfa_offset 32
 1515 0002 22CE     		sw	s0,28(sp)
 1516              		.cfi_offset 8, -4
 1517 0004 0010     		addi	s0,sp,32
 1518              		.cfi_def_cfa 8, 0
 1519 0006 2326A4FE 		sw	a0,-20(s0)
 610:../Firmware/GD32VW55x_standard_peripheral/Source/gd32vw55x_adc.c ****     ADC_CTL0 &= ~((uint32_t)ADC_CTL0_DRES);
 1520              		.loc 1 610 14
 1521 000a B7270140 		li	a5,1073815552
 1522 000e 9107     		addi	a5,a5,4
 1523 0010 9443     		lw	a3,0(a5)
 1524 0012 B7270140 		li	a5,1073815552
 1525 0016 9107     		addi	a5,a5,4
 1526 0018 370700FD 		li	a4,-50331648
 1527 001c 7D17     		addi	a4,a4,-1
 1528 001e 758F     		and	a4,a3,a4
 1529 0020 98C3     		sw	a4,0(a5)
 611:../Firmware/GD32VW55x_standard_peripheral/Source/gd32vw55x_adc.c ****     ADC_CTL0 |= (uint32_t)resolution;
 1530              		.loc 1 611 14
 1531 0022 B7270140 		li	a5,1073815552
 1532 0026 9107     		addi	a5,a5,4
 1533 0028 9443     		lw	a3,0(a5)
 1534 002a B7270140 		li	a5,1073815552
 1535 002e 9107     		addi	a5,a5,4
 1536 0030 0327C4FE 		lw	a4,-20(s0)
 1537 0034 558F     		or	a4,a3,a4
 1538 0036 98C3     		sw	a4,0(a5)
 612:../Firmware/GD32VW55x_standard_peripheral/Source/gd32vw55x_adc.c **** }
 1539              		.loc 1 612 1
 1540 0038 0100     		nop
 1541 003a 7244     		lw	s0,28(sp)
 1542              		.cfi_restore 8
 1543              		.cfi_def_cfa 2, 32
 1544 003c 0561     		addi	sp,sp,32
 1545              		.cfi_def_cfa_offset 0
 1546 003e 8280     		jr	ra
 1547              		.cfi_endproc
 1548              	.LFE368:
 1550              		.section	.text.adc_routine_data_read,"ax",@progbits
 1551              		.align	1
 1552              		.globl	adc_routine_data_read
 1554              	adc_routine_data_read:
 1555              	.LFB369:
 613:../Firmware/GD32VW55x_standard_peripheral/Source/gd32vw55x_adc.c **** 
 614:../Firmware/GD32VW55x_standard_peripheral/Source/gd32vw55x_adc.c **** /*!
 615:../Firmware/GD32VW55x_standard_peripheral/Source/gd32vw55x_adc.c ****     \brief      read ADC routine group data register
 616:../Firmware/GD32VW55x_standard_peripheral/Source/gd32vw55x_adc.c ****     \param[in]  none
 617:../Firmware/GD32VW55x_standard_peripheral/Source/gd32vw55x_adc.c ****     \param[out] none
 618:../Firmware/GD32VW55x_standard_peripheral/Source/gd32vw55x_adc.c ****     \retval     the conversion value: 0~0xFFFF
 619:../Firmware/GD32VW55x_standard_peripheral/Source/gd32vw55x_adc.c **** */
 620:../Firmware/GD32VW55x_standard_peripheral/Source/gd32vw55x_adc.c **** uint16_t adc_routine_data_read(void)
 621:../Firmware/GD32VW55x_standard_peripheral/Source/gd32vw55x_adc.c **** {
 1556              		.loc 1 621 1
 1557              		.cfi_startproc
 1558 0000 4111     		addi	sp,sp,-16
 1559              		.cfi_def_cfa_offset 16
 1560 0002 22C6     		sw	s0,12(sp)
 1561              		.cfi_offset 8, -4
 1562 0004 0008     		addi	s0,sp,16
 1563              		.cfi_def_cfa 8, 0
 622:../Firmware/GD32VW55x_standard_peripheral/Source/gd32vw55x_adc.c ****     return ((uint16_t)(ADC_RDATA));
 1564              		.loc 1 622 24
 1565 0006 B7270140 		li	a5,1073815552
 1566 000a 9387C704 		addi	a5,a5,76
 1567 000e 9C43     		lw	a5,0(a5)
 1568              		.loc 1 622 13
 1569 0010 C207     		slli	a5,a5,16
 1570 0012 C183     		srli	a5,a5,16
 623:../Firmware/GD32VW55x_standard_peripheral/Source/gd32vw55x_adc.c **** }
 1571              		.loc 1 623 1
 1572 0014 3E85     		mv	a0,a5
 1573 0016 3244     		lw	s0,12(sp)
 1574              		.cfi_restore 8
 1575              		.cfi_def_cfa 2, 16
 1576 0018 4101     		addi	sp,sp,16
 1577              		.cfi_def_cfa_offset 0
 1578 001a 8280     		jr	ra
 1579              		.cfi_endproc
 1580              	.LFE369:
 1582              		.section	.text.adc_inserted_data_read,"ax",@progbits
 1583              		.align	1
 1584              		.globl	adc_inserted_data_read
 1586              	adc_inserted_data_read:
 1587              	.LFB370:
 624:../Firmware/GD32VW55x_standard_peripheral/Source/gd32vw55x_adc.c **** 
 625:../Firmware/GD32VW55x_standard_peripheral/Source/gd32vw55x_adc.c **** /*!
 626:../Firmware/GD32VW55x_standard_peripheral/Source/gd32vw55x_adc.c ****     \brief      read ADC inserted group data register
 627:../Firmware/GD32VW55x_standard_peripheral/Source/gd32vw55x_adc.c ****     \param[in]  inserted_channel : inserted channel select
 628:../Firmware/GD32VW55x_standard_peripheral/Source/gd32vw55x_adc.c ****                 only one parameter can be selected which is shown as below:
 629:../Firmware/GD32VW55x_standard_peripheral/Source/gd32vw55x_adc.c ****       \arg        ADC_INSERTED_CHANNEL_0: inserted channel0
 630:../Firmware/GD32VW55x_standard_peripheral/Source/gd32vw55x_adc.c ****       \arg        ADC_INSERTED_CHANNEL_1: inserted channel1
 631:../Firmware/GD32VW55x_standard_peripheral/Source/gd32vw55x_adc.c ****       \arg        ADC_INSERTED_CHANNEL_2: inserted channel2
 632:../Firmware/GD32VW55x_standard_peripheral/Source/gd32vw55x_adc.c ****       \arg        ADC_INSERTED_CHANNEL_3: inserted channel3
 633:../Firmware/GD32VW55x_standard_peripheral/Source/gd32vw55x_adc.c ****     \param[out] none
 634:../Firmware/GD32VW55x_standard_peripheral/Source/gd32vw55x_adc.c ****     \retval     the conversion value: 0~0xFFFF
 635:../Firmware/GD32VW55x_standard_peripheral/Source/gd32vw55x_adc.c **** */
 636:../Firmware/GD32VW55x_standard_peripheral/Source/gd32vw55x_adc.c **** uint16_t adc_inserted_data_read(uint8_t inserted_channel)
 637:../Firmware/GD32VW55x_standard_peripheral/Source/gd32vw55x_adc.c **** {
 1588              		.loc 1 637 1
 1589              		.cfi_startproc
 1590 0000 7971     		addi	sp,sp,-48
 1591              		.cfi_def_cfa_offset 48
 1592 0002 22D6     		sw	s0,44(sp)
 1593              		.cfi_offset 8, -4
 1594 0004 0018     		addi	s0,sp,48
 1595              		.cfi_def_cfa 8, 0
 1596 0006 AA87     		mv	a5,a0
 1597 0008 A30FF4FC 		sb	a5,-33(s0)
 638:../Firmware/GD32VW55x_standard_peripheral/Source/gd32vw55x_adc.c ****     uint32_t idata;
 639:../Firmware/GD32VW55x_standard_peripheral/Source/gd32vw55x_adc.c ****     /* read the data of the selected channel */
 640:../Firmware/GD32VW55x_standard_peripheral/Source/gd32vw55x_adc.c ****     switch(inserted_channel){
 1598              		.loc 1 640 5
 1599 000c 8347F4FD 		lbu	a5,-33(s0)
 1600 0010 0D47     		li	a4,3
 1601 0012 6388E704 		beq	a5,a4,.L78
 1602 0016 0D47     		li	a4,3
 1603 0018 634DF704 		bgt	a5,a4,.L79
 1604 001c 0947     		li	a4,2
 1605 001e 638AE702 		beq	a5,a4,.L80
 1606 0022 0947     		li	a4,2
 1607 0024 6347F704 		bgt	a5,a4,.L79
 1608 0028 89C7     		beq	a5,zero,.L81
 1609 002a 0547     		li	a4,1
 1610 002c 638BE700 		beq	a5,a4,.L82
 1611 0030 89A0     		j	.L79
 1612              	.L81:
 641:../Firmware/GD32VW55x_standard_peripheral/Source/gd32vw55x_adc.c ****     case ADC_INSERTED_CHANNEL_0:
 642:../Firmware/GD32VW55x_standard_peripheral/Source/gd32vw55x_adc.c ****         /* read the data of channel 0 */
 643:../Firmware/GD32VW55x_standard_peripheral/Source/gd32vw55x_adc.c ****         idata = ADC_IDATA0;
 1613              		.loc 1 643 17
 1614 0032 B7270140 		li	a5,1073815552
 1615 0036 9387C703 		addi	a5,a5,60
 1616              		.loc 1 643 15
 1617 003a 9C43     		lw	a5,0(a5)
 1618 003c 2326F4FE 		sw	a5,-20(s0)
 644:../Firmware/GD32VW55x_standard_peripheral/Source/gd32vw55x_adc.c ****         break;
 1619              		.loc 1 644 9
 1620 0040 25A8     		j	.L83
 1621              	.L82:
 645:../Firmware/GD32VW55x_standard_peripheral/Source/gd32vw55x_adc.c ****     case ADC_INSERTED_CHANNEL_1:
 646:../Firmware/GD32VW55x_standard_peripheral/Source/gd32vw55x_adc.c ****         /* read the data of channel 1 */
 647:../Firmware/GD32VW55x_standard_peripheral/Source/gd32vw55x_adc.c ****         idata = ADC_IDATA1;
 1622              		.loc 1 647 17
 1623 0042 B7270140 		li	a5,1073815552
 1624 0046 93870704 		addi	a5,a5,64
 1625              		.loc 1 647 15
 1626 004a 9C43     		lw	a5,0(a5)
 1627 004c 2326F4FE 		sw	a5,-20(s0)
 648:../Firmware/GD32VW55x_standard_peripheral/Source/gd32vw55x_adc.c ****         break;
 1628              		.loc 1 648 9
 1629 0050 25A0     		j	.L83
 1630              	.L80:
 649:../Firmware/GD32VW55x_standard_peripheral/Source/gd32vw55x_adc.c ****     case ADC_INSERTED_CHANNEL_2:
 650:../Firmware/GD32VW55x_standard_peripheral/Source/gd32vw55x_adc.c ****         /* read the data of channel 2 */
 651:../Firmware/GD32VW55x_standard_peripheral/Source/gd32vw55x_adc.c ****         idata = ADC_IDATA2;
 1631              		.loc 1 651 17
 1632 0052 B7270140 		li	a5,1073815552
 1633 0056 93874704 		addi	a5,a5,68
 1634              		.loc 1 651 15
 1635 005a 9C43     		lw	a5,0(a5)
 1636 005c 2326F4FE 		sw	a5,-20(s0)
 652:../Firmware/GD32VW55x_standard_peripheral/Source/gd32vw55x_adc.c ****         break;
 1637              		.loc 1 652 9
 1638 0060 21A8     		j	.L83
 1639              	.L78:
 653:../Firmware/GD32VW55x_standard_peripheral/Source/gd32vw55x_adc.c ****     case ADC_INSERTED_CHANNEL_3:
 654:../Firmware/GD32VW55x_standard_peripheral/Source/gd32vw55x_adc.c ****         /* read the data of channel 3 */
 655:../Firmware/GD32VW55x_standard_peripheral/Source/gd32vw55x_adc.c ****         idata = ADC_IDATA3;
 1640              		.loc 1 655 17
 1641 0062 B7270140 		li	a5,1073815552
 1642 0066 93878704 		addi	a5,a5,72
 1643              		.loc 1 655 15
 1644 006a 9C43     		lw	a5,0(a5)
 1645 006c 2326F4FE 		sw	a5,-20(s0)
 656:../Firmware/GD32VW55x_standard_peripheral/Source/gd32vw55x_adc.c ****         break;
 1646              		.loc 1 656 9
 1647 0070 21A0     		j	.L83
 1648              	.L79:
 657:../Firmware/GD32VW55x_standard_peripheral/Source/gd32vw55x_adc.c ****     default:
 658:../Firmware/GD32VW55x_standard_peripheral/Source/gd32vw55x_adc.c ****         idata = 0U;
 1649              		.loc 1 658 15
 1650 0072 232604FE 		sw	zero,-20(s0)
 659:../Firmware/GD32VW55x_standard_peripheral/Source/gd32vw55x_adc.c ****         break;
 1651              		.loc 1 659 9
 1652 0076 0100     		nop
 1653              	.L83:
 660:../Firmware/GD32VW55x_standard_peripheral/Source/gd32vw55x_adc.c ****     }
 661:../Firmware/GD32VW55x_standard_peripheral/Source/gd32vw55x_adc.c ****     return (uint16_t)idata;
 1654              		.loc 1 661 12
 1655 0078 8327C4FE 		lw	a5,-20(s0)
 1656 007c C207     		slli	a5,a5,16
 1657 007e C183     		srli	a5,a5,16
 662:../Firmware/GD32VW55x_standard_peripheral/Source/gd32vw55x_adc.c **** }
 1658              		.loc 1 662 1
 1659 0080 3E85     		mv	a0,a5
 1660 0082 3254     		lw	s0,44(sp)
 1661              		.cfi_restore 8
 1662              		.cfi_def_cfa 2, 48
 1663 0084 4561     		addi	sp,sp,48
 1664              		.cfi_def_cfa_offset 0
 1665 0086 8280     		jr	ra
 1666              		.cfi_endproc
 1667              	.LFE370:
 1669              		.section	.text.adc_watchdog_single_channel_enable,"ax",@progbits
 1670              		.align	1
 1671              		.globl	adc_watchdog_single_channel_enable
 1673              	adc_watchdog_single_channel_enable:
 1674              	.LFB371:
 663:../Firmware/GD32VW55x_standard_peripheral/Source/gd32vw55x_adc.c **** 
 664:../Firmware/GD32VW55x_standard_peripheral/Source/gd32vw55x_adc.c **** /*!
 665:../Firmware/GD32VW55x_standard_peripheral/Source/gd32vw55x_adc.c ****     \brief      enable ADC analog watchdog single channel
 666:../Firmware/GD32VW55x_standard_peripheral/Source/gd32vw55x_adc.c ****     \param[in]  channel: the selected ADC channel
 667:../Firmware/GD32VW55x_standard_peripheral/Source/gd32vw55x_adc.c ****                 only one parameter can be selected which is shown as below:
 668:../Firmware/GD32VW55x_standard_peripheral/Source/gd32vw55x_adc.c ****       \arg        ADC_CHANNEL_x: ADC Channelx(x=0..10)
 669:../Firmware/GD32VW55x_standard_peripheral/Source/gd32vw55x_adc.c ****     \param[out] none
 670:../Firmware/GD32VW55x_standard_peripheral/Source/gd32vw55x_adc.c ****     \retval     none
 671:../Firmware/GD32VW55x_standard_peripheral/Source/gd32vw55x_adc.c **** */
 672:../Firmware/GD32VW55x_standard_peripheral/Source/gd32vw55x_adc.c **** void adc_watchdog_single_channel_enable(uint8_t channel)
 673:../Firmware/GD32VW55x_standard_peripheral/Source/gd32vw55x_adc.c **** {
 1675              		.loc 1 673 1
 1676              		.cfi_startproc
 1677 0000 0111     		addi	sp,sp,-32
 1678              		.cfi_def_cfa_offset 32
 1679 0002 22CE     		sw	s0,28(sp)
 1680              		.cfi_offset 8, -4
 1681 0004 0010     		addi	s0,sp,32
 1682              		.cfi_def_cfa 8, 0
 1683 0006 AA87     		mv	a5,a0
 1684 0008 A307F4FE 		sb	a5,-17(s0)
 674:../Firmware/GD32VW55x_standard_peripheral/Source/gd32vw55x_adc.c ****     ADC_CTL0 &= (uint32_t)~(ADC_CTL0_RWDEN | ADC_CTL0_IWDEN | ADC_CTL0_WDSC | ADC_CTL0_WDCHSEL);
 1685              		.loc 1 674 14
 1686 000c B7270140 		li	a5,1073815552
 1687 0010 9107     		addi	a5,a5,4
 1688 0012 9443     		lw	a3,0(a5)
 1689 0014 B7270140 		li	a5,1073815552
 1690 0018 9107     		addi	a5,a5,4
 1691 001a 370740FF 		li	a4,-12582912
 1692 001e 130707DE 		addi	a4,a4,-544
 1693 0022 758F     		and	a4,a3,a4
 1694 0024 98C3     		sw	a4,0(a5)
 675:../Firmware/GD32VW55x_standard_peripheral/Source/gd32vw55x_adc.c **** 
 676:../Firmware/GD32VW55x_standard_peripheral/Source/gd32vw55x_adc.c ****     ADC_CTL0 |= (uint32_t)channel;
 1695              		.loc 1 676 14
 1696 0026 B7270140 		li	a5,1073815552
 1697 002a 9107     		addi	a5,a5,4
 1698 002c 9443     		lw	a3,0(a5)
 1699              		.loc 1 676 17
 1700 002e 0347F4FE 		lbu	a4,-17(s0)
 1701              		.loc 1 676 14
 1702 0032 B7270140 		li	a5,1073815552
 1703 0036 9107     		addi	a5,a5,4
 1704 0038 558F     		or	a4,a3,a4
 1705 003a 98C3     		sw	a4,0(a5)
 677:../Firmware/GD32VW55x_standard_peripheral/Source/gd32vw55x_adc.c ****     ADC_CTL0 |= (uint32_t)(ADC_CTL0_RWDEN | ADC_CTL0_IWDEN | ADC_CTL0_WDSC);
 1706              		.loc 1 677 14
 1707 003c B7270140 		li	a5,1073815552
 1708 0040 9107     		addi	a5,a5,4
 1709 0042 9443     		lw	a3,0(a5)
 1710 0044 B7270140 		li	a5,1073815552
 1711 0048 9107     		addi	a5,a5,4
 1712 004a 3707C000 		li	a4,12582912
 1713 004e 13070720 		addi	a4,a4,512
 1714 0052 558F     		or	a4,a3,a4
 1715 0054 98C3     		sw	a4,0(a5)
 678:../Firmware/GD32VW55x_standard_peripheral/Source/gd32vw55x_adc.c **** }
 1716              		.loc 1 678 1
 1717 0056 0100     		nop
 1718 0058 7244     		lw	s0,28(sp)
 1719              		.cfi_restore 8
 1720              		.cfi_def_cfa 2, 32
 1721 005a 0561     		addi	sp,sp,32
 1722              		.cfi_def_cfa_offset 0
 1723 005c 8280     		jr	ra
 1724              		.cfi_endproc
 1725              	.LFE371:
 1727              		.section	.text.adc_watchdog_group_channel_enable,"ax",@progbits
 1728              		.align	1
 1729              		.globl	adc_watchdog_group_channel_enable
 1731              	adc_watchdog_group_channel_enable:
 1732              	.LFB372:
 679:../Firmware/GD32VW55x_standard_peripheral/Source/gd32vw55x_adc.c **** 
 680:../Firmware/GD32VW55x_standard_peripheral/Source/gd32vw55x_adc.c **** /*!
 681:../Firmware/GD32VW55x_standard_peripheral/Source/gd32vw55x_adc.c ****     \brief      configure ADC analog watchdog group channel
 682:../Firmware/GD32VW55x_standard_peripheral/Source/gd32vw55x_adc.c ****     \param[in]  channel_group: the channel group use analog watchdog
 683:../Firmware/GD32VW55x_standard_peripheral/Source/gd32vw55x_adc.c ****                 only one parameter can be selected which is shown as below:
 684:../Firmware/GD32VW55x_standard_peripheral/Source/gd32vw55x_adc.c ****       \arg        ADC_ROUTINE_CHANNEL: routine channel group
 685:../Firmware/GD32VW55x_standard_peripheral/Source/gd32vw55x_adc.c ****       \arg        ADC_INSERTED_CHANNEL: inserted channel group
 686:../Firmware/GD32VW55x_standard_peripheral/Source/gd32vw55x_adc.c ****       \arg        ADC_ROUTINE_INSERTED_CHANNEL: both routine and inserted group
 687:../Firmware/GD32VW55x_standard_peripheral/Source/gd32vw55x_adc.c ****     \param[out] none
 688:../Firmware/GD32VW55x_standard_peripheral/Source/gd32vw55x_adc.c ****     \retval     none
 689:../Firmware/GD32VW55x_standard_peripheral/Source/gd32vw55x_adc.c **** */
 690:../Firmware/GD32VW55x_standard_peripheral/Source/gd32vw55x_adc.c **** void adc_watchdog_group_channel_enable(uint8_t channel_group)
 691:../Firmware/GD32VW55x_standard_peripheral/Source/gd32vw55x_adc.c **** {
 1733              		.loc 1 691 1
 1734              		.cfi_startproc
 1735 0000 0111     		addi	sp,sp,-32
 1736              		.cfi_def_cfa_offset 32
 1737 0002 22CE     		sw	s0,28(sp)
 1738              		.cfi_offset 8, -4
 1739 0004 0010     		addi	s0,sp,32
 1740              		.cfi_def_cfa 8, 0
 1741 0006 AA87     		mv	a5,a0
 1742 0008 A307F4FE 		sb	a5,-17(s0)
 692:../Firmware/GD32VW55x_standard_peripheral/Source/gd32vw55x_adc.c ****     ADC_CTL0 &= ~((uint32_t)(ADC_CTL0_RWDEN | ADC_CTL0_IWDEN | ADC_CTL0_WDSC));
 1743              		.loc 1 692 14
 1744 000c B7270140 		li	a5,1073815552
 1745 0010 9107     		addi	a5,a5,4
 1746 0012 9443     		lw	a3,0(a5)
 1747 0014 B7270140 		li	a5,1073815552
 1748 0018 9107     		addi	a5,a5,4
 1749 001a 370740FF 		li	a4,-12582912
 1750 001e 1307F7DF 		addi	a4,a4,-513
 1751 0022 758F     		and	a4,a3,a4
 1752 0024 98C3     		sw	a4,0(a5)
 693:../Firmware/GD32VW55x_standard_peripheral/Source/gd32vw55x_adc.c ****     /* select the group */
 694:../Firmware/GD32VW55x_standard_peripheral/Source/gd32vw55x_adc.c ****     switch(channel_group){
 1753              		.loc 1 694 5
 1754 0026 8347F4FE 		lbu	a5,-17(s0)
 1755 002a 0D47     		li	a4,3
 1756 002c 6384E704 		beq	a5,a4,.L87
 1757 0030 0D47     		li	a4,3
 1758 0032 634DF704 		bgt	a5,a4,.L92
 1759 0036 0547     		li	a4,1
 1760 0038 6386E700 		beq	a5,a4,.L89
 1761 003c 0947     		li	a4,2
 1762 003e 638FE700 		beq	a5,a4,.L90
 695:../Firmware/GD32VW55x_standard_peripheral/Source/gd32vw55x_adc.c ****     case ADC_ROUTINE_CHANNEL:
 696:../Firmware/GD32VW55x_standard_peripheral/Source/gd32vw55x_adc.c ****         /* routine channel analog watchdog enable */
 697:../Firmware/GD32VW55x_standard_peripheral/Source/gd32vw55x_adc.c ****         ADC_CTL0 |= (uint32_t) ADC_CTL0_RWDEN;
 698:../Firmware/GD32VW55x_standard_peripheral/Source/gd32vw55x_adc.c ****         break;
 699:../Firmware/GD32VW55x_standard_peripheral/Source/gd32vw55x_adc.c ****     case ADC_INSERTED_CHANNEL:
 700:../Firmware/GD32VW55x_standard_peripheral/Source/gd32vw55x_adc.c ****         /* inserted channel analog watchdog enable */
 701:../Firmware/GD32VW55x_standard_peripheral/Source/gd32vw55x_adc.c ****         ADC_CTL0 |= (uint32_t) ADC_CTL0_IWDEN;
 702:../Firmware/GD32VW55x_standard_peripheral/Source/gd32vw55x_adc.c ****         break;
 703:../Firmware/GD32VW55x_standard_peripheral/Source/gd32vw55x_adc.c ****     case ADC_ROUTINE_INSERTED_CHANNEL:
 704:../Firmware/GD32VW55x_standard_peripheral/Source/gd32vw55x_adc.c ****         /* routine and inserted channel analog watchdog enable */
 705:../Firmware/GD32VW55x_standard_peripheral/Source/gd32vw55x_adc.c ****         ADC_CTL0 |= (uint32_t)(ADC_CTL0_RWDEN | ADC_CTL0_IWDEN);
 706:../Firmware/GD32VW55x_standard_peripheral/Source/gd32vw55x_adc.c ****         break;
 707:../Firmware/GD32VW55x_standard_peripheral/Source/gd32vw55x_adc.c ****     default:
 708:../Firmware/GD32VW55x_standard_peripheral/Source/gd32vw55x_adc.c ****         break;
 1763              		.loc 1 708 9
 1764 0042 A9A0     		j	.L92
 1765              	.L89:
 697:../Firmware/GD32VW55x_standard_peripheral/Source/gd32vw55x_adc.c ****         break;
 1766              		.loc 1 697 18
 1767 0044 B7270140 		li	a5,1073815552
 1768 0048 9107     		addi	a5,a5,4
 1769 004a 9443     		lw	a3,0(a5)
 1770 004c B7270140 		li	a5,1073815552
 1771 0050 9107     		addi	a5,a5,4
 1772 0052 37078000 		li	a4,8388608
 1773 0056 558F     		or	a4,a3,a4
 1774 0058 98C3     		sw	a4,0(a5)
 698:../Firmware/GD32VW55x_standard_peripheral/Source/gd32vw55x_adc.c ****     case ADC_INSERTED_CHANNEL:
 1775              		.loc 1 698 9
 1776 005a 15A8     		j	.L91
 1777              	.L90:
 701:../Firmware/GD32VW55x_standard_peripheral/Source/gd32vw55x_adc.c ****         break;
 1778              		.loc 1 701 18
 1779 005c B7270140 		li	a5,1073815552
 1780 0060 9107     		addi	a5,a5,4
 1781 0062 9443     		lw	a3,0(a5)
 1782 0064 B7270140 		li	a5,1073815552
 1783 0068 9107     		addi	a5,a5,4
 1784 006a 37074000 		li	a4,4194304
 1785 006e 558F     		or	a4,a3,a4
 1786 0070 98C3     		sw	a4,0(a5)
 702:../Firmware/GD32VW55x_standard_peripheral/Source/gd32vw55x_adc.c ****     case ADC_ROUTINE_INSERTED_CHANNEL:
 1787              		.loc 1 702 9
 1788 0072 31A8     		j	.L91
 1789              	.L87:
 705:../Firmware/GD32VW55x_standard_peripheral/Source/gd32vw55x_adc.c ****         break;
 1790              		.loc 1 705 18
 1791 0074 B7270140 		li	a5,1073815552
 1792 0078 9107     		addi	a5,a5,4
 1793 007a 9443     		lw	a3,0(a5)
 1794 007c B7270140 		li	a5,1073815552
 1795 0080 9107     		addi	a5,a5,4
 1796 0082 3707C000 		li	a4,12582912
 1797 0086 558F     		or	a4,a3,a4
 1798 0088 98C3     		sw	a4,0(a5)
 706:../Firmware/GD32VW55x_standard_peripheral/Source/gd32vw55x_adc.c ****     default:
 1799              		.loc 1 706 9
 1800 008a 11A0     		j	.L91
 1801              	.L92:
 1802              		.loc 1 708 9
 1803 008c 0100     		nop
 1804              	.L91:
 709:../Firmware/GD32VW55x_standard_peripheral/Source/gd32vw55x_adc.c ****     }
 710:../Firmware/GD32VW55x_standard_peripheral/Source/gd32vw55x_adc.c **** }
 1805              		.loc 1 710 1
 1806 008e 0100     		nop
 1807 0090 7244     		lw	s0,28(sp)
 1808              		.cfi_restore 8
 1809              		.cfi_def_cfa 2, 32
 1810 0092 0561     		addi	sp,sp,32
 1811              		.cfi_def_cfa_offset 0
 1812 0094 8280     		jr	ra
 1813              		.cfi_endproc
 1814              	.LFE372:
 1816              		.section	.text.adc_watchdog_disable,"ax",@progbits
 1817              		.align	1
 1818              		.globl	adc_watchdog_disable
 1820              	adc_watchdog_disable:
 1821              	.LFB373:
 711:../Firmware/GD32VW55x_standard_peripheral/Source/gd32vw55x_adc.c **** 
 712:../Firmware/GD32VW55x_standard_peripheral/Source/gd32vw55x_adc.c **** /*!
 713:../Firmware/GD32VW55x_standard_peripheral/Source/gd32vw55x_adc.c ****     \brief      disable ADC analog watchdog
 714:../Firmware/GD32VW55x_standard_peripheral/Source/gd32vw55x_adc.c ****     \param[in]  none
 715:../Firmware/GD32VW55x_standard_peripheral/Source/gd32vw55x_adc.c ****     \param[out] none
 716:../Firmware/GD32VW55x_standard_peripheral/Source/gd32vw55x_adc.c ****     \retval     none
 717:../Firmware/GD32VW55x_standard_peripheral/Source/gd32vw55x_adc.c **** */
 718:../Firmware/GD32VW55x_standard_peripheral/Source/gd32vw55x_adc.c **** void adc_watchdog_disable(void)
 719:../Firmware/GD32VW55x_standard_peripheral/Source/gd32vw55x_adc.c **** {
 1822              		.loc 1 719 1
 1823              		.cfi_startproc
 1824 0000 4111     		addi	sp,sp,-16
 1825              		.cfi_def_cfa_offset 16
 1826 0002 22C6     		sw	s0,12(sp)
 1827              		.cfi_offset 8, -4
 1828 0004 0008     		addi	s0,sp,16
 1829              		.cfi_def_cfa 8, 0
 720:../Firmware/GD32VW55x_standard_peripheral/Source/gd32vw55x_adc.c ****     ADC_CTL0 &= (uint32_t)~(ADC_CTL0_RWDEN | ADC_CTL0_IWDEN | ADC_CTL0_WDSC | ADC_CTL0_WDCHSEL);
 1830              		.loc 1 720 14
 1831 0006 B7270140 		li	a5,1073815552
 1832 000a 9107     		addi	a5,a5,4
 1833 000c 9443     		lw	a3,0(a5)
 1834 000e B7270140 		li	a5,1073815552
 1835 0012 9107     		addi	a5,a5,4
 1836 0014 370740FF 		li	a4,-12582912
 1837 0018 130707DE 		addi	a4,a4,-544
 1838 001c 758F     		and	a4,a3,a4
 1839 001e 98C3     		sw	a4,0(a5)
 721:../Firmware/GD32VW55x_standard_peripheral/Source/gd32vw55x_adc.c **** }
 1840              		.loc 1 721 1
 1841 0020 0100     		nop
 1842 0022 3244     		lw	s0,12(sp)
 1843              		.cfi_restore 8
 1844              		.cfi_def_cfa 2, 16
 1845 0024 4101     		addi	sp,sp,16
 1846              		.cfi_def_cfa_offset 0
 1847 0026 8280     		jr	ra
 1848              		.cfi_endproc
 1849              	.LFE373:
 1851              		.section	.text.adc_watchdog_threshold_config,"ax",@progbits
 1852              		.align	1
 1853              		.globl	adc_watchdog_threshold_config
 1855              	adc_watchdog_threshold_config:
 1856              	.LFB374:
 722:../Firmware/GD32VW55x_standard_peripheral/Source/gd32vw55x_adc.c **** 
 723:../Firmware/GD32VW55x_standard_peripheral/Source/gd32vw55x_adc.c **** /*!
 724:../Firmware/GD32VW55x_standard_peripheral/Source/gd32vw55x_adc.c ****     \brief      configure ADC analog watchdog threshold
 725:../Firmware/GD32VW55x_standard_peripheral/Source/gd32vw55x_adc.c ****     \param[in]  low_threshold: analog watchdog low threshold,0..4095
 726:../Firmware/GD32VW55x_standard_peripheral/Source/gd32vw55x_adc.c ****     \param[in]  high_threshold: analog watchdog high threshold,0..4095
 727:../Firmware/GD32VW55x_standard_peripheral/Source/gd32vw55x_adc.c ****     \param[out] none
 728:../Firmware/GD32VW55x_standard_peripheral/Source/gd32vw55x_adc.c ****     \retval     none
 729:../Firmware/GD32VW55x_standard_peripheral/Source/gd32vw55x_adc.c **** */
 730:../Firmware/GD32VW55x_standard_peripheral/Source/gd32vw55x_adc.c **** void adc_watchdog_threshold_config(uint16_t low_threshold, uint16_t high_threshold)
 731:../Firmware/GD32VW55x_standard_peripheral/Source/gd32vw55x_adc.c **** {
 1857              		.loc 1 731 1
 1858              		.cfi_startproc
 1859 0000 0111     		addi	sp,sp,-32
 1860              		.cfi_def_cfa_offset 32
 1861 0002 22CE     		sw	s0,28(sp)
 1862              		.cfi_offset 8, -4
 1863 0004 0010     		addi	s0,sp,32
 1864              		.cfi_def_cfa 8, 0
 1865 0006 AA87     		mv	a5,a0
 1866 0008 2E87     		mv	a4,a1
 1867 000a 2317F4FE 		sh	a5,-18(s0)
 1868 000e BA87     		mv	a5,a4
 1869 0010 2316F4FE 		sh	a5,-20(s0)
 732:../Firmware/GD32VW55x_standard_peripheral/Source/gd32vw55x_adc.c ****     /* configure ADC analog watchdog low threshold */
 733:../Firmware/GD32VW55x_standard_peripheral/Source/gd32vw55x_adc.c ****     ADC_WDLT = (uint32_t)WDLT_WDLT(low_threshold);
 1870              		.loc 1 733 26
 1871 0014 8356E4FE 		lhu	a3,-18(s0)
 1872              		.loc 1 733 5
 1873 0018 B7270140 		li	a5,1073815552
 1874 001c 93878702 		addi	a5,a5,40
 1875              		.loc 1 733 16
 1876 0020 0567     		li	a4,4096
 1877 0022 7D17     		addi	a4,a4,-1
 1878 0024 758F     		and	a4,a3,a4
 1879              		.loc 1 733 14
 1880 0026 98C3     		sw	a4,0(a5)
 734:../Firmware/GD32VW55x_standard_peripheral/Source/gd32vw55x_adc.c ****     /* configure ADC analog watchdog high threshold */
 735:../Firmware/GD32VW55x_standard_peripheral/Source/gd32vw55x_adc.c ****     ADC_WDHT = (uint32_t)WDHT_WDHT(high_threshold);
 1881              		.loc 1 735 26
 1882 0028 8356C4FE 		lhu	a3,-20(s0)
 1883              		.loc 1 735 5
 1884 002c B7270140 		li	a5,1073815552
 1885 0030 93874702 		addi	a5,a5,36
 1886              		.loc 1 735 16
 1887 0034 0567     		li	a4,4096
 1888 0036 7D17     		addi	a4,a4,-1
 1889 0038 758F     		and	a4,a3,a4
 1890              		.loc 1 735 14
 1891 003a 98C3     		sw	a4,0(a5)
 736:../Firmware/GD32VW55x_standard_peripheral/Source/gd32vw55x_adc.c **** }
 1892              		.loc 1 736 1
 1893 003c 0100     		nop
 1894 003e 7244     		lw	s0,28(sp)
 1895              		.cfi_restore 8
 1896              		.cfi_def_cfa 2, 32
 1897 0040 0561     		addi	sp,sp,32
 1898              		.cfi_def_cfa_offset 0
 1899 0042 8280     		jr	ra
 1900              		.cfi_endproc
 1901              	.LFE374:
 1903              		.section	.text.adc_oversample_mode_config,"ax",@progbits
 1904              		.align	1
 1905              		.globl	adc_oversample_mode_config
 1907              	adc_oversample_mode_config:
 1908              	.LFB375:
 737:../Firmware/GD32VW55x_standard_peripheral/Source/gd32vw55x_adc.c **** 
 738:../Firmware/GD32VW55x_standard_peripheral/Source/gd32vw55x_adc.c **** /*!
 739:../Firmware/GD32VW55x_standard_peripheral/Source/gd32vw55x_adc.c ****     \brief      configure ADC oversample mode
 740:../Firmware/GD32VW55x_standard_peripheral/Source/gd32vw55x_adc.c ****     \param[in]  mode: ADC oversampling mode
 741:../Firmware/GD32VW55x_standard_peripheral/Source/gd32vw55x_adc.c ****                 only one parameter can be selected which is shown as below:
 742:../Firmware/GD32VW55x_standard_peripheral/Source/gd32vw55x_adc.c ****       \arg        ADC_OVERSAMPLING_ALL_CONVERT: all oversampled conversions for a channel are done 
 743:../Firmware/GD32VW55x_standard_peripheral/Source/gd32vw55x_adc.c ****       \arg        ADC_OVERSAMPLING_ONE_CONVERT: each oversampled conversion for a channel needs a t
 744:../Firmware/GD32VW55x_standard_peripheral/Source/gd32vw55x_adc.c ****     \param[in]  shift: ADC oversampling shift
 745:../Firmware/GD32VW55x_standard_peripheral/Source/gd32vw55x_adc.c ****                 only one parameter can be selected which is shown as below:
 746:../Firmware/GD32VW55x_standard_peripheral/Source/gd32vw55x_adc.c ****       \arg        ADC_OVERSAMPLING_SHIFT_NONE: no oversampling shift
 747:../Firmware/GD32VW55x_standard_peripheral/Source/gd32vw55x_adc.c ****       \arg        ADC_OVERSAMPLING_SHIFT_1B: 1-bit oversampling shift
 748:../Firmware/GD32VW55x_standard_peripheral/Source/gd32vw55x_adc.c ****       \arg        ADC_OVERSAMPLING_SHIFT_2B: 2-bit oversampling shift
 749:../Firmware/GD32VW55x_standard_peripheral/Source/gd32vw55x_adc.c ****       \arg        ADC_OVERSAMPLING_SHIFT_3B: 3-bit oversampling shift
 750:../Firmware/GD32VW55x_standard_peripheral/Source/gd32vw55x_adc.c ****       \arg        ADC_OVERSAMPLING_SHIFT_4B: 3-bit oversampling shift
 751:../Firmware/GD32VW55x_standard_peripheral/Source/gd32vw55x_adc.c ****       \arg        ADC_OVERSAMPLING_SHIFT_5B: 5-bit oversampling shift
 752:../Firmware/GD32VW55x_standard_peripheral/Source/gd32vw55x_adc.c ****       \arg        ADC_OVERSAMPLING_SHIFT_6B: 6-bit oversampling shift
 753:../Firmware/GD32VW55x_standard_peripheral/Source/gd32vw55x_adc.c ****       \arg        ADC_OVERSAMPLING_SHIFT_7B: 7-bit oversampling shift
 754:../Firmware/GD32VW55x_standard_peripheral/Source/gd32vw55x_adc.c ****       \arg        ADC_OVERSAMPLING_SHIFT_8B: 8-bit oversampling shift
 755:../Firmware/GD32VW55x_standard_peripheral/Source/gd32vw55x_adc.c ****     \param[in]  ratio: ADC oversampling ratio
 756:../Firmware/GD32VW55x_standard_peripheral/Source/gd32vw55x_adc.c ****                 only one parameter can be selected which is shown as below:
 757:../Firmware/GD32VW55x_standard_peripheral/Source/gd32vw55x_adc.c ****       \arg        ADC_OVERSAMPLING_RATIO_MUL2: oversampling ratio multiple 2
 758:../Firmware/GD32VW55x_standard_peripheral/Source/gd32vw55x_adc.c ****       \arg        ADC_OVERSAMPLING_RATIO_MUL4: oversampling ratio multiple 4
 759:../Firmware/GD32VW55x_standard_peripheral/Source/gd32vw55x_adc.c ****       \arg        ADC_OVERSAMPLING_RATIO_MUL8: oversampling ratio multiple 8
 760:../Firmware/GD32VW55x_standard_peripheral/Source/gd32vw55x_adc.c ****       \arg        ADC_OVERSAMPLING_RATIO_MUL16: oversampling ratio multiple 16
 761:../Firmware/GD32VW55x_standard_peripheral/Source/gd32vw55x_adc.c ****       \arg        ADC_OVERSAMPLING_RATIO_MUL32: oversampling ratio multiple 32
 762:../Firmware/GD32VW55x_standard_peripheral/Source/gd32vw55x_adc.c ****       \arg        ADC_OVERSAMPLING_RATIO_MUL64: oversampling ratio multiple 64
 763:../Firmware/GD32VW55x_standard_peripheral/Source/gd32vw55x_adc.c ****       \arg        ADC_OVERSAMPLING_RATIO_MUL128: oversampling ratio multiple 128
 764:../Firmware/GD32VW55x_standard_peripheral/Source/gd32vw55x_adc.c ****       \arg        ADC_OVERSAMPLING_RATIO_MUL256: oversampling ratio multiple 256
 765:../Firmware/GD32VW55x_standard_peripheral/Source/gd32vw55x_adc.c ****     \param[out] none
 766:../Firmware/GD32VW55x_standard_peripheral/Source/gd32vw55x_adc.c ****     \retval     none
 767:../Firmware/GD32VW55x_standard_peripheral/Source/gd32vw55x_adc.c **** */
 768:../Firmware/GD32VW55x_standard_peripheral/Source/gd32vw55x_adc.c **** void adc_oversample_mode_config(uint32_t mode, uint16_t shift, uint8_t ratio)
 769:../Firmware/GD32VW55x_standard_peripheral/Source/gd32vw55x_adc.c **** {
 1909              		.loc 1 769 1
 1910              		.cfi_startproc
 1911 0000 0111     		addi	sp,sp,-32
 1912              		.cfi_def_cfa_offset 32
 1913 0002 22CE     		sw	s0,28(sp)
 1914              		.cfi_offset 8, -4
 1915 0004 0010     		addi	s0,sp,32
 1916              		.cfi_def_cfa 8, 0
 1917 0006 2326A4FE 		sw	a0,-20(s0)
 1918 000a AE87     		mv	a5,a1
 1919 000c 3287     		mv	a4,a2
 1920 000e 2315F4FE 		sh	a5,-22(s0)
 1921 0012 BA87     		mv	a5,a4
 1922 0014 A304F4FE 		sb	a5,-23(s0)
 770:../Firmware/GD32VW55x_standard_peripheral/Source/gd32vw55x_adc.c ****     /* configure ADC oversampling mode */
 771:../Firmware/GD32VW55x_standard_peripheral/Source/gd32vw55x_adc.c ****     if(ADC_OVERSAMPLING_ONE_CONVERT == mode){
 1923              		.loc 1 771 7
 1924 0018 0327C4FE 		lw	a4,-20(s0)
 1925 001c 93070020 		li	a5,512
 1926 0020 631FF700 		bne	a4,a5,.L96
 772:../Firmware/GD32VW55x_standard_peripheral/Source/gd32vw55x_adc.c ****         ADC_OVSAMPCTL |= (uint32_t)ADC_OVSAMPCTL_TOVS;
 1927              		.loc 1 772 23
 1928 0024 B7270140 		li	a5,1073815552
 1929 0028 93870708 		addi	a5,a5,128
 1930 002c 9843     		lw	a4,0(a5)
 1931 002e B7270140 		li	a5,1073815552
 1932 0032 93870708 		addi	a5,a5,128
 1933 0036 13670720 		ori	a4,a4,512
 1934 003a 98C3     		sw	a4,0(a5)
 1935 003c 29A8     		j	.L97
 1936              	.L96:
 773:../Firmware/GD32VW55x_standard_peripheral/Source/gd32vw55x_adc.c ****     }else{
 774:../Firmware/GD32VW55x_standard_peripheral/Source/gd32vw55x_adc.c ****         ADC_OVSAMPCTL &= ~((uint32_t)ADC_OVSAMPCTL_TOVS);
 1937              		.loc 1 774 23
 1938 003e B7270140 		li	a5,1073815552
 1939 0042 93870708 		addi	a5,a5,128
 1940 0046 9843     		lw	a4,0(a5)
 1941 0048 B7270140 		li	a5,1073815552
 1942 004c 93870708 		addi	a5,a5,128
 1943 0050 1377F7DF 		andi	a4,a4,-513
 1944 0054 98C3     		sw	a4,0(a5)
 1945              	.L97:
 775:../Firmware/GD32VW55x_standard_peripheral/Source/gd32vw55x_adc.c ****     }
 776:../Firmware/GD32VW55x_standard_peripheral/Source/gd32vw55x_adc.c ****     /* configure the shift and ratio */
 777:../Firmware/GD32VW55x_standard_peripheral/Source/gd32vw55x_adc.c ****     ADC_OVSAMPCTL &= ~((uint32_t)(ADC_OVSAMPCTL_OVSR | ADC_OVSAMPCTL_OVSS));
 1946              		.loc 1 777 19
 1947 0056 B7270140 		li	a5,1073815552
 1948 005a 93870708 		addi	a5,a5,128
 1949 005e 9843     		lw	a4,0(a5)
 1950 0060 B7270140 		li	a5,1073815552
 1951 0064 93870708 		addi	a5,a5,128
 1952 0068 137737E0 		andi	a4,a4,-509
 1953 006c 98C3     		sw	a4,0(a5)
 778:../Firmware/GD32VW55x_standard_peripheral/Source/gd32vw55x_adc.c ****     ADC_OVSAMPCTL |= ((uint32_t)shift | (uint32_t)ratio);
 1954              		.loc 1 778 19
 1955 006e B7270140 		li	a5,1073815552
 1956 0072 93870708 		addi	a5,a5,128
 1957 0076 9443     		lw	a3,0(a5)
 1958              		.loc 1 778 23
 1959 0078 0357A4FE 		lhu	a4,-22(s0)
 1960              		.loc 1 778 41
 1961 007c 834794FE 		lbu	a5,-23(s0)
 1962              		.loc 1 778 39
 1963 0080 5D8F     		or	a4,a4,a5
 1964              		.loc 1 778 19
 1965 0082 B7270140 		li	a5,1073815552
 1966 0086 93870708 		addi	a5,a5,128
 1967 008a 558F     		or	a4,a3,a4
 1968 008c 98C3     		sw	a4,0(a5)
 779:../Firmware/GD32VW55x_standard_peripheral/Source/gd32vw55x_adc.c **** }
 1969              		.loc 1 779 1
 1970 008e 0100     		nop
 1971 0090 7244     		lw	s0,28(sp)
 1972              		.cfi_restore 8
 1973              		.cfi_def_cfa 2, 32
 1974 0092 0561     		addi	sp,sp,32
 1975              		.cfi_def_cfa_offset 0
 1976 0094 8280     		jr	ra
 1977              		.cfi_endproc
 1978              	.LFE375:
 1980              		.section	.text.adc_oversample_mode_enable,"ax",@progbits
 1981              		.align	1
 1982              		.globl	adc_oversample_mode_enable
 1984              	adc_oversample_mode_enable:
 1985              	.LFB376:
 780:../Firmware/GD32VW55x_standard_peripheral/Source/gd32vw55x_adc.c **** 
 781:../Firmware/GD32VW55x_standard_peripheral/Source/gd32vw55x_adc.c **** /*!
 782:../Firmware/GD32VW55x_standard_peripheral/Source/gd32vw55x_adc.c ****     \brief      enable ADC oversample mode
 783:../Firmware/GD32VW55x_standard_peripheral/Source/gd32vw55x_adc.c ****     \param[in]  none
 784:../Firmware/GD32VW55x_standard_peripheral/Source/gd32vw55x_adc.c ****     \param[out] none
 785:../Firmware/GD32VW55x_standard_peripheral/Source/gd32vw55x_adc.c ****     \retval     none
 786:../Firmware/GD32VW55x_standard_peripheral/Source/gd32vw55x_adc.c **** */
 787:../Firmware/GD32VW55x_standard_peripheral/Source/gd32vw55x_adc.c **** void adc_oversample_mode_enable(void)
 788:../Firmware/GD32VW55x_standard_peripheral/Source/gd32vw55x_adc.c **** {
 1986              		.loc 1 788 1
 1987              		.cfi_startproc
 1988 0000 4111     		addi	sp,sp,-16
 1989              		.cfi_def_cfa_offset 16
 1990 0002 22C6     		sw	s0,12(sp)
 1991              		.cfi_offset 8, -4
 1992 0004 0008     		addi	s0,sp,16
 1993              		.cfi_def_cfa 8, 0
 789:../Firmware/GD32VW55x_standard_peripheral/Source/gd32vw55x_adc.c ****     ADC_OVSAMPCTL |= ADC_OVSAMPCTL_OVSEN;
 1994              		.loc 1 789 19
 1995 0006 B7270140 		li	a5,1073815552
 1996 000a 93870708 		addi	a5,a5,128
 1997 000e 9843     		lw	a4,0(a5)
 1998 0010 B7270140 		li	a5,1073815552
 1999 0014 93870708 		addi	a5,a5,128
 2000 0018 13671700 		ori	a4,a4,1
 2001 001c 98C3     		sw	a4,0(a5)
 790:../Firmware/GD32VW55x_standard_peripheral/Source/gd32vw55x_adc.c **** }
 2002              		.loc 1 790 1
 2003 001e 0100     		nop
 2004 0020 3244     		lw	s0,12(sp)
 2005              		.cfi_restore 8
 2006              		.cfi_def_cfa 2, 16
 2007 0022 4101     		addi	sp,sp,16
 2008              		.cfi_def_cfa_offset 0
 2009 0024 8280     		jr	ra
 2010              		.cfi_endproc
 2011              	.LFE376:
 2013              		.section	.text.adc_oversample_mode_disable,"ax",@progbits
 2014              		.align	1
 2015              		.globl	adc_oversample_mode_disable
 2017              	adc_oversample_mode_disable:
 2018              	.LFB377:
 791:../Firmware/GD32VW55x_standard_peripheral/Source/gd32vw55x_adc.c **** 
 792:../Firmware/GD32VW55x_standard_peripheral/Source/gd32vw55x_adc.c **** /*!
 793:../Firmware/GD32VW55x_standard_peripheral/Source/gd32vw55x_adc.c ****     \brief      disable ADC oversample mode
 794:../Firmware/GD32VW55x_standard_peripheral/Source/gd32vw55x_adc.c ****     \param[in]  none
 795:../Firmware/GD32VW55x_standard_peripheral/Source/gd32vw55x_adc.c ****     \param[out] none
 796:../Firmware/GD32VW55x_standard_peripheral/Source/gd32vw55x_adc.c ****     \retval     none
 797:../Firmware/GD32VW55x_standard_peripheral/Source/gd32vw55x_adc.c **** */
 798:../Firmware/GD32VW55x_standard_peripheral/Source/gd32vw55x_adc.c **** void adc_oversample_mode_disable(void)
 799:../Firmware/GD32VW55x_standard_peripheral/Source/gd32vw55x_adc.c **** {
 2019              		.loc 1 799 1
 2020              		.cfi_startproc
 2021 0000 4111     		addi	sp,sp,-16
 2022              		.cfi_def_cfa_offset 16
 2023 0002 22C6     		sw	s0,12(sp)
 2024              		.cfi_offset 8, -4
 2025 0004 0008     		addi	s0,sp,16
 2026              		.cfi_def_cfa 8, 0
 800:../Firmware/GD32VW55x_standard_peripheral/Source/gd32vw55x_adc.c ****     ADC_OVSAMPCTL &= ~((uint32_t)ADC_OVSAMPCTL_OVSEN);
 2027              		.loc 1 800 19
 2028 0006 B7270140 		li	a5,1073815552
 2029 000a 93870708 		addi	a5,a5,128
 2030 000e 9843     		lw	a4,0(a5)
 2031 0010 B7270140 		li	a5,1073815552
 2032 0014 93870708 		addi	a5,a5,128
 2033 0018 799B     		andi	a4,a4,-2
 2034 001a 98C3     		sw	a4,0(a5)
 801:../Firmware/GD32VW55x_standard_peripheral/Source/gd32vw55x_adc.c **** }
 2035              		.loc 1 801 1
 2036 001c 0100     		nop
 2037 001e 3244     		lw	s0,12(sp)
 2038              		.cfi_restore 8
 2039              		.cfi_def_cfa 2, 16
 2040 0020 4101     		addi	sp,sp,16
 2041              		.cfi_def_cfa_offset 0
 2042 0022 8280     		jr	ra
 2043              		.cfi_endproc
 2044              	.LFE377:
 2046              		.section	.text.adc_flag_get,"ax",@progbits
 2047              		.align	1
 2048              		.globl	adc_flag_get
 2050              	adc_flag_get:
 2051              	.LFB378:
 802:../Firmware/GD32VW55x_standard_peripheral/Source/gd32vw55x_adc.c **** 
 803:../Firmware/GD32VW55x_standard_peripheral/Source/gd32vw55x_adc.c **** /*!
 804:../Firmware/GD32VW55x_standard_peripheral/Source/gd32vw55x_adc.c ****     \brief      get the ADC flag
 805:../Firmware/GD32VW55x_standard_peripheral/Source/gd32vw55x_adc.c ****     \param[in]  flag: the ADC flag
 806:../Firmware/GD32VW55x_standard_peripheral/Source/gd32vw55x_adc.c ****                 only one parameter can be selected which is shown as below:
 807:../Firmware/GD32VW55x_standard_peripheral/Source/gd32vw55x_adc.c ****       \arg        ADC_FLAG_WDE: analog watchdog event flag
 808:../Firmware/GD32VW55x_standard_peripheral/Source/gd32vw55x_adc.c ****       \arg        ADC_FLAG_EOC: end of group conversion flag
 809:../Firmware/GD32VW55x_standard_peripheral/Source/gd32vw55x_adc.c ****       \arg        ADC_FLAG_EOIC: end of inserted group conversion flag
 810:../Firmware/GD32VW55x_standard_peripheral/Source/gd32vw55x_adc.c ****       \arg        ADC_FLAG_STIC: start flag of inserted channel group
 811:../Firmware/GD32VW55x_standard_peripheral/Source/gd32vw55x_adc.c ****       \arg        ADC_FLAG_STRC: start flag of routine channel group
 812:../Firmware/GD32VW55x_standard_peripheral/Source/gd32vw55x_adc.c ****       \arg        ADC_FLAG_ROVF: routine data register overflow flag
 813:../Firmware/GD32VW55x_standard_peripheral/Source/gd32vw55x_adc.c ****     \param[out] none
 814:../Firmware/GD32VW55x_standard_peripheral/Source/gd32vw55x_adc.c ****     \retval     FlagStatus: SET or RESET
 815:../Firmware/GD32VW55x_standard_peripheral/Source/gd32vw55x_adc.c **** */
 816:../Firmware/GD32VW55x_standard_peripheral/Source/gd32vw55x_adc.c **** FlagStatus adc_flag_get(uint32_t flag)
 817:../Firmware/GD32VW55x_standard_peripheral/Source/gd32vw55x_adc.c **** {
 2052              		.loc 1 817 1
 2053              		.cfi_startproc
 2054 0000 7971     		addi	sp,sp,-48
 2055              		.cfi_def_cfa_offset 48
 2056 0002 22D6     		sw	s0,44(sp)
 2057              		.cfi_offset 8, -4
 2058 0004 0018     		addi	s0,sp,48
 2059              		.cfi_def_cfa 8, 0
 2060 0006 232EA4FC 		sw	a0,-36(s0)
 818:../Firmware/GD32VW55x_standard_peripheral/Source/gd32vw55x_adc.c ****     FlagStatus reval = RESET;
 2061              		.loc 1 818 16
 2062 000a 232604FE 		sw	zero,-20(s0)
 819:../Firmware/GD32VW55x_standard_peripheral/Source/gd32vw55x_adc.c ****     if(ADC_STAT & flag){
 2063              		.loc 1 819 8
 2064 000e B7270140 		li	a5,1073815552
 2065 0012 9843     		lw	a4,0(a5)
 2066              		.loc 1 819 17
 2067 0014 8327C4FD 		lw	a5,-36(s0)
 2068 0018 F98F     		and	a5,a4,a5
 2069              		.loc 1 819 7
 2070 001a 81C7     		beq	a5,zero,.L101
 820:../Firmware/GD32VW55x_standard_peripheral/Source/gd32vw55x_adc.c ****         reval = SET;
 2071              		.loc 1 820 15
 2072 001c 8547     		li	a5,1
 2073 001e 2326F4FE 		sw	a5,-20(s0)
 2074              	.L101:
 821:../Firmware/GD32VW55x_standard_peripheral/Source/gd32vw55x_adc.c ****     }
 822:../Firmware/GD32VW55x_standard_peripheral/Source/gd32vw55x_adc.c ****     return reval;
 2075              		.loc 1 822 12
 2076 0022 8327C4FE 		lw	a5,-20(s0)
 823:../Firmware/GD32VW55x_standard_peripheral/Source/gd32vw55x_adc.c **** 
 824:../Firmware/GD32VW55x_standard_peripheral/Source/gd32vw55x_adc.c **** }
 2077              		.loc 1 824 1
 2078 0026 3E85     		mv	a0,a5
 2079 0028 3254     		lw	s0,44(sp)
 2080              		.cfi_restore 8
 2081              		.cfi_def_cfa 2, 48
 2082 002a 4561     		addi	sp,sp,48
 2083              		.cfi_def_cfa_offset 0
 2084 002c 8280     		jr	ra
 2085              		.cfi_endproc
 2086              	.LFE378:
 2088              		.section	.text.adc_flag_clear,"ax",@progbits
 2089              		.align	1
 2090              		.globl	adc_flag_clear
 2092              	adc_flag_clear:
 2093              	.LFB379:
 825:../Firmware/GD32VW55x_standard_peripheral/Source/gd32vw55x_adc.c **** 
 826:../Firmware/GD32VW55x_standard_peripheral/Source/gd32vw55x_adc.c **** /*!
 827:../Firmware/GD32VW55x_standard_peripheral/Source/gd32vw55x_adc.c ****     \brief      clear the ADC flag
 828:../Firmware/GD32VW55x_standard_peripheral/Source/gd32vw55x_adc.c ****     \param[in]  flag: the ADC flag
 829:../Firmware/GD32VW55x_standard_peripheral/Source/gd32vw55x_adc.c ****                 only one parameter can be selected which is shown as below:
 830:../Firmware/GD32VW55x_standard_peripheral/Source/gd32vw55x_adc.c ****       \arg        ADC_FLAG_WDE: analog watchdog event flag
 831:../Firmware/GD32VW55x_standard_peripheral/Source/gd32vw55x_adc.c ****       \arg        ADC_FLAG_EOC: end of group conversion flag
 832:../Firmware/GD32VW55x_standard_peripheral/Source/gd32vw55x_adc.c ****       \arg        ADC_FLAG_EOIC: end of inserted group conversion flag
 833:../Firmware/GD32VW55x_standard_peripheral/Source/gd32vw55x_adc.c ****       \arg        ADC_FLAG_STIC: start flag of inserted channel group
 834:../Firmware/GD32VW55x_standard_peripheral/Source/gd32vw55x_adc.c ****       \arg        ADC_FLAG_STRC: start flag of routine channel group
 835:../Firmware/GD32VW55x_standard_peripheral/Source/gd32vw55x_adc.c ****       \arg        ADC_FLAG_ROVF: routine data register overflow flag
 836:../Firmware/GD32VW55x_standard_peripheral/Source/gd32vw55x_adc.c ****     \param[out] none
 837:../Firmware/GD32VW55x_standard_peripheral/Source/gd32vw55x_adc.c ****     \retval     none
 838:../Firmware/GD32VW55x_standard_peripheral/Source/gd32vw55x_adc.c **** */
 839:../Firmware/GD32VW55x_standard_peripheral/Source/gd32vw55x_adc.c **** void adc_flag_clear(uint32_t flag)
 840:../Firmware/GD32VW55x_standard_peripheral/Source/gd32vw55x_adc.c **** {
 2094              		.loc 1 840 1
 2095              		.cfi_startproc
 2096 0000 0111     		addi	sp,sp,-32
 2097              		.cfi_def_cfa_offset 32
 2098 0002 22CE     		sw	s0,28(sp)
 2099              		.cfi_offset 8, -4
 2100 0004 0010     		addi	s0,sp,32
 2101              		.cfi_def_cfa 8, 0
 2102 0006 2326A4FE 		sw	a0,-20(s0)
 841:../Firmware/GD32VW55x_standard_peripheral/Source/gd32vw55x_adc.c ****     ADC_STAT = ~((uint32_t)flag);
 2103              		.loc 1 841 5
 2104 000a B7270140 		li	a5,1073815552
 2105              		.loc 1 841 16
 2106 000e 0327C4FE 		lw	a4,-20(s0)
 2107 0012 1347F7FF 		not	a4,a4
 2108              		.loc 1 841 14
 2109 0016 98C3     		sw	a4,0(a5)
 842:../Firmware/GD32VW55x_standard_peripheral/Source/gd32vw55x_adc.c **** }
 2110              		.loc 1 842 1
 2111 0018 0100     		nop
 2112 001a 7244     		lw	s0,28(sp)
 2113              		.cfi_restore 8
 2114              		.cfi_def_cfa 2, 32
 2115 001c 0561     		addi	sp,sp,32
 2116              		.cfi_def_cfa_offset 0
 2117 001e 8280     		jr	ra
 2118              		.cfi_endproc
 2119              	.LFE379:
 2121              		.section	.text.adc_interrupt_enable,"ax",@progbits
 2122              		.align	1
 2123              		.globl	adc_interrupt_enable
 2125              	adc_interrupt_enable:
 2126              	.LFB380:
 843:../Firmware/GD32VW55x_standard_peripheral/Source/gd32vw55x_adc.c **** 
 844:../Firmware/GD32VW55x_standard_peripheral/Source/gd32vw55x_adc.c **** /*!
 845:../Firmware/GD32VW55x_standard_peripheral/Source/gd32vw55x_adc.c ****     \brief      enable ADC interrupt
 846:../Firmware/GD32VW55x_standard_peripheral/Source/gd32vw55x_adc.c ****     \param[in]  interrupt: the ADC interrupt
 847:../Firmware/GD32VW55x_standard_peripheral/Source/gd32vw55x_adc.c ****                 only one parameter can be selected which is shown as below:
 848:../Firmware/GD32VW55x_standard_peripheral/Source/gd32vw55x_adc.c ****       \arg        ADC_INT_WDE: analog watchdog interrupt
 849:../Firmware/GD32VW55x_standard_peripheral/Source/gd32vw55x_adc.c ****       \arg        ADC_INT_EOC: end of group conversion interrupt
 850:../Firmware/GD32VW55x_standard_peripheral/Source/gd32vw55x_adc.c ****       \arg        ADC_INT_EOIC: end of inserted group conversion interrupt
 851:../Firmware/GD32VW55x_standard_peripheral/Source/gd32vw55x_adc.c ****       \arg        ADC_INT_ROVF: routine data register overflow interrupt
 852:../Firmware/GD32VW55x_standard_peripheral/Source/gd32vw55x_adc.c ****     \param[out] none
 853:../Firmware/GD32VW55x_standard_peripheral/Source/gd32vw55x_adc.c ****     \retval     none
 854:../Firmware/GD32VW55x_standard_peripheral/Source/gd32vw55x_adc.c **** */
 855:../Firmware/GD32VW55x_standard_peripheral/Source/gd32vw55x_adc.c **** void adc_interrupt_enable(uint32_t interrupt)
 856:../Firmware/GD32VW55x_standard_peripheral/Source/gd32vw55x_adc.c **** {
 2127              		.loc 1 856 1
 2128              		.cfi_startproc
 2129 0000 0111     		addi	sp,sp,-32
 2130              		.cfi_def_cfa_offset 32
 2131 0002 22CE     		sw	s0,28(sp)
 2132              		.cfi_offset 8, -4
 2133 0004 0010     		addi	s0,sp,32
 2134              		.cfi_def_cfa 8, 0
 2135 0006 2326A4FE 		sw	a0,-20(s0)
 857:../Firmware/GD32VW55x_standard_peripheral/Source/gd32vw55x_adc.c ****     switch(interrupt){
 2136              		.loc 1 857 5
 2137 000a 0327C4FE 		lw	a4,-20(s0)
 2138 000e B7070004 		li	a5,67108864
 2139 0012 6301F708 		beq	a4,a5,.L105
 2140 0016 0327C4FE 		lw	a4,-20(s0)
 2141 001a B7070004 		li	a5,67108864
 2142 001e 63E7E708 		bgtu	a4,a5,.L110
 2143 0022 0327C4FE 		lw	a4,-20(s0)
 2144 0026 93070008 		li	a5,128
 2145 002a 630AF704 		beq	a4,a5,.L107
 2146 002e 0327C4FE 		lw	a4,-20(s0)
 2147 0032 93070008 		li	a5,128
 2148 0036 63EBE706 		bgtu	a4,a5,.L110
 2149 003a 0327C4FE 		lw	a4,-20(s0)
 2150 003e 93070002 		li	a5,32
 2151 0042 6303F702 		beq	a4,a5,.L108
 2152 0046 0327C4FE 		lw	a4,-20(s0)
 2153 004a 93070004 		li	a5,64
 2154 004e 631FF704 		bne	a4,a5,.L110
 858:../Firmware/GD32VW55x_standard_peripheral/Source/gd32vw55x_adc.c ****     case ADC_INT_WDE:
 859:../Firmware/GD32VW55x_standard_peripheral/Source/gd32vw55x_adc.c ****         /* enable analog watchdog interrupt */
 860:../Firmware/GD32VW55x_standard_peripheral/Source/gd32vw55x_adc.c ****         ADC_CTL0 |= (uint32_t) ADC_CTL0_WDEIE;
 2155              		.loc 1 860 18
 2156 0052 B7270140 		li	a5,1073815552
 2157 0056 9107     		addi	a5,a5,4
 2158 0058 9843     		lw	a4,0(a5)
 2159 005a B7270140 		li	a5,1073815552
 2160 005e 9107     		addi	a5,a5,4
 2161 0060 13670704 		ori	a4,a4,64
 2162 0064 98C3     		sw	a4,0(a5)
 861:../Firmware/GD32VW55x_standard_peripheral/Source/gd32vw55x_adc.c ****         break;
 2163              		.loc 1 861 9
 2164 0066 A1A0     		j	.L109
 2165              	.L108:
 862:../Firmware/GD32VW55x_standard_peripheral/Source/gd32vw55x_adc.c ****     case ADC_INT_EOC:
 863:../Firmware/GD32VW55x_standard_peripheral/Source/gd32vw55x_adc.c ****         /* enable end of group conversion interrupt */
 864:../Firmware/GD32VW55x_standard_peripheral/Source/gd32vw55x_adc.c ****         ADC_CTL0 |= (uint32_t) ADC_CTL0_EOCIE;
 2166              		.loc 1 864 18
 2167 0068 B7270140 		li	a5,1073815552
 2168 006c 9107     		addi	a5,a5,4
 2169 006e 9843     		lw	a4,0(a5)
 2170 0070 B7270140 		li	a5,1073815552
 2171 0074 9107     		addi	a5,a5,4
 2172 0076 13670702 		ori	a4,a4,32
 2173 007a 98C3     		sw	a4,0(a5)
 865:../Firmware/GD32VW55x_standard_peripheral/Source/gd32vw55x_adc.c ****         break;
 2174              		.loc 1 865 9
 2175 007c 0DA8     		j	.L109
 2176              	.L107:
 866:../Firmware/GD32VW55x_standard_peripheral/Source/gd32vw55x_adc.c ****     case ADC_INT_EOIC:
 867:../Firmware/GD32VW55x_standard_peripheral/Source/gd32vw55x_adc.c ****         /* enable end of inserted group conversion interrupt */
 868:../Firmware/GD32VW55x_standard_peripheral/Source/gd32vw55x_adc.c ****         ADC_CTL0 |= (uint32_t) ADC_CTL0_EOICIE;
 2177              		.loc 1 868 18
 2178 007e B7270140 		li	a5,1073815552
 2179 0082 9107     		addi	a5,a5,4
 2180 0084 9843     		lw	a4,0(a5)
 2181 0086 B7270140 		li	a5,1073815552
 2182 008a 9107     		addi	a5,a5,4
 2183 008c 13670708 		ori	a4,a4,128
 2184 0090 98C3     		sw	a4,0(a5)
 869:../Firmware/GD32VW55x_standard_peripheral/Source/gd32vw55x_adc.c ****         break;
 2185              		.loc 1 869 9
 2186 0092 31A8     		j	.L109
 2187              	.L105:
 870:../Firmware/GD32VW55x_standard_peripheral/Source/gd32vw55x_adc.c ****     case ADC_INT_ROVF:
 871:../Firmware/GD32VW55x_standard_peripheral/Source/gd32vw55x_adc.c ****         ADC_CTL0 |= (uint32_t) ADC_CTL0_ROVFIE;
 2188              		.loc 1 871 18
 2189 0094 B7270140 		li	a5,1073815552
 2190 0098 9107     		addi	a5,a5,4
 2191 009a 9443     		lw	a3,0(a5)
 2192 009c B7270140 		li	a5,1073815552
 2193 00a0 9107     		addi	a5,a5,4
 2194 00a2 37070004 		li	a4,67108864
 2195 00a6 558F     		or	a4,a3,a4
 2196 00a8 98C3     		sw	a4,0(a5)
 872:../Firmware/GD32VW55x_standard_peripheral/Source/gd32vw55x_adc.c ****         break;
 2197              		.loc 1 872 9
 2198 00aa 11A0     		j	.L109
 2199              	.L110:
 873:../Firmware/GD32VW55x_standard_peripheral/Source/gd32vw55x_adc.c ****     default:
 874:../Firmware/GD32VW55x_standard_peripheral/Source/gd32vw55x_adc.c ****         break;
 2200              		.loc 1 874 9
 2201 00ac 0100     		nop
 2202              	.L109:
 875:../Firmware/GD32VW55x_standard_peripheral/Source/gd32vw55x_adc.c ****     }
 876:../Firmware/GD32VW55x_standard_peripheral/Source/gd32vw55x_adc.c **** }
 2203              		.loc 1 876 1
 2204 00ae 0100     		nop
 2205 00b0 7244     		lw	s0,28(sp)
 2206              		.cfi_restore 8
 2207              		.cfi_def_cfa 2, 32
 2208 00b2 0561     		addi	sp,sp,32
 2209              		.cfi_def_cfa_offset 0
 2210 00b4 8280     		jr	ra
 2211              		.cfi_endproc
 2212              	.LFE380:
 2214              		.section	.text.adc_interrupt_disable,"ax",@progbits
 2215              		.align	1
 2216              		.globl	adc_interrupt_disable
 2218              	adc_interrupt_disable:
 2219              	.LFB381:
 877:../Firmware/GD32VW55x_standard_peripheral/Source/gd32vw55x_adc.c **** 
 878:../Firmware/GD32VW55x_standard_peripheral/Source/gd32vw55x_adc.c **** /*!
 879:../Firmware/GD32VW55x_standard_peripheral/Source/gd32vw55x_adc.c ****     \brief      disable ADC interrupt
 880:../Firmware/GD32VW55x_standard_peripheral/Source/gd32vw55x_adc.c ****     \param[in]  interrupt: the ADC interrupt
 881:../Firmware/GD32VW55x_standard_peripheral/Source/gd32vw55x_adc.c ****                 only one parameter can be selected which is shown as below:
 882:../Firmware/GD32VW55x_standard_peripheral/Source/gd32vw55x_adc.c ****       \arg        ADC_INT_WDE: analog watchdog interrupt
 883:../Firmware/GD32VW55x_standard_peripheral/Source/gd32vw55x_adc.c ****       \arg        ADC_INT_EOC: end of group conversion interrupt
 884:../Firmware/GD32VW55x_standard_peripheral/Source/gd32vw55x_adc.c ****       \arg        ADC_INT_EOIC: end of inserted group conversion interrupt
 885:../Firmware/GD32VW55x_standard_peripheral/Source/gd32vw55x_adc.c ****       \arg        ADC_INT_ROVF: routine data register overflow interrupt
 886:../Firmware/GD32VW55x_standard_peripheral/Source/gd32vw55x_adc.c ****     \param[out] none
 887:../Firmware/GD32VW55x_standard_peripheral/Source/gd32vw55x_adc.c ****     \retval     none
 888:../Firmware/GD32VW55x_standard_peripheral/Source/gd32vw55x_adc.c **** */
 889:../Firmware/GD32VW55x_standard_peripheral/Source/gd32vw55x_adc.c **** void adc_interrupt_disable(uint32_t interrupt)
 890:../Firmware/GD32VW55x_standard_peripheral/Source/gd32vw55x_adc.c **** {
 2220              		.loc 1 890 1
 2221              		.cfi_startproc
 2222 0000 0111     		addi	sp,sp,-32
 2223              		.cfi_def_cfa_offset 32
 2224 0002 22CE     		sw	s0,28(sp)
 2225              		.cfi_offset 8, -4
 2226 0004 0010     		addi	s0,sp,32
 2227              		.cfi_def_cfa 8, 0
 2228 0006 2326A4FE 		sw	a0,-20(s0)
 891:../Firmware/GD32VW55x_standard_peripheral/Source/gd32vw55x_adc.c ****     switch(interrupt){
 2229              		.loc 1 891 5
 2230 000a 0327C4FE 		lw	a4,-20(s0)
 2231 000e B7070004 		li	a5,67108864
 2232 0012 6301F708 		beq	a4,a5,.L112
 2233 0016 0327C4FE 		lw	a4,-20(s0)
 2234 001a B7070004 		li	a5,67108864
 2235 001e 63E8E708 		bgtu	a4,a5,.L117
 2236 0022 0327C4FE 		lw	a4,-20(s0)
 2237 0026 93070008 		li	a5,128
 2238 002a 630AF704 		beq	a4,a5,.L114
 2239 002e 0327C4FE 		lw	a4,-20(s0)
 2240 0032 93070008 		li	a5,128
 2241 0036 63ECE706 		bgtu	a4,a5,.L117
 2242 003a 0327C4FE 		lw	a4,-20(s0)
 2243 003e 93070002 		li	a5,32
 2244 0042 6303F702 		beq	a4,a5,.L115
 2245 0046 0327C4FE 		lw	a4,-20(s0)
 2246 004a 93070004 		li	a5,64
 2247 004e 6310F706 		bne	a4,a5,.L117
 892:../Firmware/GD32VW55x_standard_peripheral/Source/gd32vw55x_adc.c ****     /* select the interrupt source */
 893:../Firmware/GD32VW55x_standard_peripheral/Source/gd32vw55x_adc.c ****     case ADC_INT_WDE:
 894:../Firmware/GD32VW55x_standard_peripheral/Source/gd32vw55x_adc.c ****         ADC_CTL0 &= ~((uint32_t)ADC_CTL0_WDEIE);
 2248              		.loc 1 894 18
 2249 0052 B7270140 		li	a5,1073815552
 2250 0056 9107     		addi	a5,a5,4
 2251 0058 9843     		lw	a4,0(a5)
 2252 005a B7270140 		li	a5,1073815552
 2253 005e 9107     		addi	a5,a5,4
 2254 0060 1377F7FB 		andi	a4,a4,-65
 2255 0064 98C3     		sw	a4,0(a5)
 895:../Firmware/GD32VW55x_standard_peripheral/Source/gd32vw55x_adc.c ****         break;
 2256              		.loc 1 895 9
 2257 0066 A9A0     		j	.L116
 2258              	.L115:
 896:../Firmware/GD32VW55x_standard_peripheral/Source/gd32vw55x_adc.c ****     case ADC_INT_EOC:
 897:../Firmware/GD32VW55x_standard_peripheral/Source/gd32vw55x_adc.c ****         ADC_CTL0 &= ~((uint32_t)ADC_CTL0_EOCIE);
 2259              		.loc 1 897 18
 2260 0068 B7270140 		li	a5,1073815552
 2261 006c 9107     		addi	a5,a5,4
 2262 006e 9843     		lw	a4,0(a5)
 2263 0070 B7270140 		li	a5,1073815552
 2264 0074 9107     		addi	a5,a5,4
 2265 0076 1377F7FD 		andi	a4,a4,-33
 2266 007a 98C3     		sw	a4,0(a5)
 898:../Firmware/GD32VW55x_standard_peripheral/Source/gd32vw55x_adc.c ****         break;
 2267              		.loc 1 898 9
 2268 007c 15A8     		j	.L116
 2269              	.L114:
 899:../Firmware/GD32VW55x_standard_peripheral/Source/gd32vw55x_adc.c ****     case ADC_INT_EOIC:
 900:../Firmware/GD32VW55x_standard_peripheral/Source/gd32vw55x_adc.c ****         ADC_CTL0 &= ~((uint32_t)ADC_CTL0_EOICIE);
 2270              		.loc 1 900 18
 2271 007e B7270140 		li	a5,1073815552
 2272 0082 9107     		addi	a5,a5,4
 2273 0084 9843     		lw	a4,0(a5)
 2274 0086 B7270140 		li	a5,1073815552
 2275 008a 9107     		addi	a5,a5,4
 2276 008c 1377F7F7 		andi	a4,a4,-129
 2277 0090 98C3     		sw	a4,0(a5)
 901:../Firmware/GD32VW55x_standard_peripheral/Source/gd32vw55x_adc.c ****         break;
 2278              		.loc 1 901 9
 2279 0092 39A8     		j	.L116
 2280              	.L112:
 902:../Firmware/GD32VW55x_standard_peripheral/Source/gd32vw55x_adc.c ****     case ADC_INT_ROVF:
 903:../Firmware/GD32VW55x_standard_peripheral/Source/gd32vw55x_adc.c ****         ADC_CTL0 &= ~((uint32_t)ADC_CTL0_ROVFIE);
 2281              		.loc 1 903 18
 2282 0094 B7270140 		li	a5,1073815552
 2283 0098 9107     		addi	a5,a5,4
 2284 009a 9443     		lw	a3,0(a5)
 2285 009c B7270140 		li	a5,1073815552
 2286 00a0 9107     		addi	a5,a5,4
 2287 00a2 370700FC 		li	a4,-67108864
 2288 00a6 7D17     		addi	a4,a4,-1
 2289 00a8 758F     		and	a4,a3,a4
 2290 00aa 98C3     		sw	a4,0(a5)
 904:../Firmware/GD32VW55x_standard_peripheral/Source/gd32vw55x_adc.c ****         break;
 2291              		.loc 1 904 9
 2292 00ac 11A0     		j	.L116
 2293              	.L117:
 905:../Firmware/GD32VW55x_standard_peripheral/Source/gd32vw55x_adc.c ****     default:
 906:../Firmware/GD32VW55x_standard_peripheral/Source/gd32vw55x_adc.c ****         break;
 2294              		.loc 1 906 9
 2295 00ae 0100     		nop
 2296              	.L116:
 907:../Firmware/GD32VW55x_standard_peripheral/Source/gd32vw55x_adc.c ****     }
 908:../Firmware/GD32VW55x_standard_peripheral/Source/gd32vw55x_adc.c **** }
 2297              		.loc 1 908 1
 2298 00b0 0100     		nop
 2299 00b2 7244     		lw	s0,28(sp)
 2300              		.cfi_restore 8
 2301              		.cfi_def_cfa 2, 32
 2302 00b4 0561     		addi	sp,sp,32
 2303              		.cfi_def_cfa_offset 0
 2304 00b6 8280     		jr	ra
 2305              		.cfi_endproc
 2306              	.LFE381:
 2308              		.section	.text.adc_interrupt_flag_get,"ax",@progbits
 2309              		.align	1
 2310              		.globl	adc_interrupt_flag_get
 2312              	adc_interrupt_flag_get:
 2313              	.LFB382:
 909:../Firmware/GD32VW55x_standard_peripheral/Source/gd32vw55x_adc.c **** 
 910:../Firmware/GD32VW55x_standard_peripheral/Source/gd32vw55x_adc.c **** /*!
 911:../Firmware/GD32VW55x_standard_peripheral/Source/gd32vw55x_adc.c ****     \brief      get ADC interrupt flag
 912:../Firmware/GD32VW55x_standard_peripheral/Source/gd32vw55x_adc.c ****     \param[in]  int_flag: the ADC interrupt flag
 913:../Firmware/GD32VW55x_standard_peripheral/Source/gd32vw55x_adc.c ****                 only one parameter can be selected which is shown as below:
 914:../Firmware/GD32VW55x_standard_peripheral/Source/gd32vw55x_adc.c ****       \arg        ADC_INT_FLAG_WDE: analog watchdog interrupt
 915:../Firmware/GD32VW55x_standard_peripheral/Source/gd32vw55x_adc.c ****       \arg        ADC_INT_FLAG_EOC: end of group conversion interrupt
 916:../Firmware/GD32VW55x_standard_peripheral/Source/gd32vw55x_adc.c ****       \arg        ADC_INT_FLAG_EOIC: end of inserted group conversion interrupt
 917:../Firmware/GD32VW55x_standard_peripheral/Source/gd32vw55x_adc.c ****       \arg        ADC_INT_FLAG_ROVF: routine data register overflow interrupt
 918:../Firmware/GD32VW55x_standard_peripheral/Source/gd32vw55x_adc.c ****     \param[out] none
 919:../Firmware/GD32VW55x_standard_peripheral/Source/gd32vw55x_adc.c ****     \retval     FlagStatus: SET or RESET
 920:../Firmware/GD32VW55x_standard_peripheral/Source/gd32vw55x_adc.c **** */
 921:../Firmware/GD32VW55x_standard_peripheral/Source/gd32vw55x_adc.c **** FlagStatus adc_interrupt_flag_get(uint32_t int_flag)
 922:../Firmware/GD32VW55x_standard_peripheral/Source/gd32vw55x_adc.c **** {
 2314              		.loc 1 922 1
 2315              		.cfi_startproc
 2316 0000 7971     		addi	sp,sp,-48
 2317              		.cfi_def_cfa_offset 48
 2318 0002 22D6     		sw	s0,44(sp)
 2319              		.cfi_offset 8, -4
 2320 0004 0018     		addi	s0,sp,48
 2321              		.cfi_def_cfa 8, 0
 2322 0006 232EA4FC 		sw	a0,-36(s0)
 923:../Firmware/GD32VW55x_standard_peripheral/Source/gd32vw55x_adc.c ****     FlagStatus interrupt_flag = RESET;
 2323              		.loc 1 923 16
 2324 000a 232604FE 		sw	zero,-20(s0)
 924:../Firmware/GD32VW55x_standard_peripheral/Source/gd32vw55x_adc.c ****     uint32_t state;
 925:../Firmware/GD32VW55x_standard_peripheral/Source/gd32vw55x_adc.c ****     /* check the interrupt bits */
 926:../Firmware/GD32VW55x_standard_peripheral/Source/gd32vw55x_adc.c ****     switch(int_flag){
 2325              		.loc 1 926 5
 2326 000e 0327C4FD 		lw	a4,-36(s0)
 2327 0012 93070002 		li	a5,32
 2328 0016 6309F70A 		beq	a4,a5,.L119
 2329 001a 0327C4FD 		lw	a4,-36(s0)
 2330 001e 93070002 		li	a5,32
 2331 0022 63E9E70C 		bgtu	a4,a5,.L130
 2332 0026 0327C4FD 		lw	a4,-36(s0)
 2333 002a 9147     		li	a5,4
 2334 002c 630AF706 		beq	a4,a5,.L121
 2335 0030 0327C4FD 		lw	a4,-36(s0)
 2336 0034 9147     		li	a5,4
 2337 0036 63EFE70A 		bgtu	a4,a5,.L130
 2338 003a 0327C4FD 		lw	a4,-36(s0)
 2339 003e 8547     		li	a5,1
 2340 0040 6308F700 		beq	a4,a5,.L122
 2341 0044 0327C4FD 		lw	a4,-36(s0)
 2342 0048 8947     		li	a5,2
 2343 004a 6307F702 		beq	a4,a5,.L123
 927:../Firmware/GD32VW55x_standard_peripheral/Source/gd32vw55x_adc.c ****     case ADC_INT_FLAG_WDE:
 928:../Firmware/GD32VW55x_standard_peripheral/Source/gd32vw55x_adc.c ****         /* get the ADC analog watchdog interrupt bits */
 929:../Firmware/GD32VW55x_standard_peripheral/Source/gd32vw55x_adc.c ****         state = ADC_STAT & ADC_STAT_WDE;
 930:../Firmware/GD32VW55x_standard_peripheral/Source/gd32vw55x_adc.c ****         if((ADC_CTL0 & ADC_CTL0_WDEIE) && state){
 931:../Firmware/GD32VW55x_standard_peripheral/Source/gd32vw55x_adc.c ****           interrupt_flag = SET;
 932:../Firmware/GD32VW55x_standard_peripheral/Source/gd32vw55x_adc.c ****         }
 933:../Firmware/GD32VW55x_standard_peripheral/Source/gd32vw55x_adc.c ****         break;
 934:../Firmware/GD32VW55x_standard_peripheral/Source/gd32vw55x_adc.c ****     case ADC_INT_FLAG_EOC:
 935:../Firmware/GD32VW55x_standard_peripheral/Source/gd32vw55x_adc.c ****          /* get the ADC end of group conversion interrupt bits */
 936:../Firmware/GD32VW55x_standard_peripheral/Source/gd32vw55x_adc.c ****         state = ADC_STAT & ADC_STAT_EOC;
 937:../Firmware/GD32VW55x_standard_peripheral/Source/gd32vw55x_adc.c ****           if((ADC_CTL0 & ADC_CTL0_EOCIE) && state){
 938:../Firmware/GD32VW55x_standard_peripheral/Source/gd32vw55x_adc.c ****             interrupt_flag = SET;
 939:../Firmware/GD32VW55x_standard_peripheral/Source/gd32vw55x_adc.c ****           }
 940:../Firmware/GD32VW55x_standard_peripheral/Source/gd32vw55x_adc.c ****         break;
 941:../Firmware/GD32VW55x_standard_peripheral/Source/gd32vw55x_adc.c ****     case ADC_INT_FLAG_EOIC:
 942:../Firmware/GD32VW55x_standard_peripheral/Source/gd32vw55x_adc.c ****         /* get the ADC end of inserted group conversion interrupt bits */
 943:../Firmware/GD32VW55x_standard_peripheral/Source/gd32vw55x_adc.c ****         state = ADC_STAT & ADC_STAT_EOIC;
 944:../Firmware/GD32VW55x_standard_peripheral/Source/gd32vw55x_adc.c ****         if((ADC_CTL0 & ADC_CTL0_EOICIE) && state){
 945:../Firmware/GD32VW55x_standard_peripheral/Source/gd32vw55x_adc.c ****             interrupt_flag = SET;
 946:../Firmware/GD32VW55x_standard_peripheral/Source/gd32vw55x_adc.c ****         }
 947:../Firmware/GD32VW55x_standard_peripheral/Source/gd32vw55x_adc.c ****         break;
 948:../Firmware/GD32VW55x_standard_peripheral/Source/gd32vw55x_adc.c ****     case ADC_INT_FLAG_ROVF:
 949:../Firmware/GD32VW55x_standard_peripheral/Source/gd32vw55x_adc.c ****         /* get the ADC routine data register overflow interrupt bits */
 950:../Firmware/GD32VW55x_standard_peripheral/Source/gd32vw55x_adc.c ****         state = ADC_STAT & ADC_STAT_ROVF;
 951:../Firmware/GD32VW55x_standard_peripheral/Source/gd32vw55x_adc.c ****         if((ADC_CTL0 & ADC_CTL0_ROVFIE) && state){
 952:../Firmware/GD32VW55x_standard_peripheral/Source/gd32vw55x_adc.c ****           interrupt_flag = SET;
 953:../Firmware/GD32VW55x_standard_peripheral/Source/gd32vw55x_adc.c ****         }
 954:../Firmware/GD32VW55x_standard_peripheral/Source/gd32vw55x_adc.c ****         break;
 955:../Firmware/GD32VW55x_standard_peripheral/Source/gd32vw55x_adc.c ****     default:
 956:../Firmware/GD32VW55x_standard_peripheral/Source/gd32vw55x_adc.c ****         break;
 2344              		.loc 1 956 9
 2345 004e 5DA0     		j	.L130
 2346              	.L122:
 929:../Firmware/GD32VW55x_standard_peripheral/Source/gd32vw55x_adc.c ****         if((ADC_CTL0 & ADC_CTL0_WDEIE) && state){
 2347              		.loc 1 929 17
 2348 0050 B7270140 		li	a5,1073815552
 2349 0054 9C43     		lw	a5,0(a5)
 929:../Firmware/GD32VW55x_standard_peripheral/Source/gd32vw55x_adc.c ****         if((ADC_CTL0 & ADC_CTL0_WDEIE) && state){
 2350              		.loc 1 929 15
 2351 0056 858B     		andi	a5,a5,1
 2352 0058 2324F4FE 		sw	a5,-24(s0)
 930:../Firmware/GD32VW55x_standard_peripheral/Source/gd32vw55x_adc.c ****           interrupt_flag = SET;
 2353              		.loc 1 930 13
 2354 005c B7270140 		li	a5,1073815552
 2355 0060 9107     		addi	a5,a5,4
 2356 0062 9C43     		lw	a5,0(a5)
 930:../Firmware/GD32VW55x_standard_peripheral/Source/gd32vw55x_adc.c ****           interrupt_flag = SET;
 2357              		.loc 1 930 22
 2358 0064 93F70704 		andi	a5,a5,64
 930:../Firmware/GD32VW55x_standard_peripheral/Source/gd32vw55x_adc.c ****           interrupt_flag = SET;
 2359              		.loc 1 930 11
 2360 0068 C1CB     		beq	a5,zero,.L131
 930:../Firmware/GD32VW55x_standard_peripheral/Source/gd32vw55x_adc.c ****           interrupt_flag = SET;
 2361              		.loc 1 930 40 discriminator 1
 2362 006a 832784FE 		lw	a5,-24(s0)
 2363 006e C9C7     		beq	a5,zero,.L131
 931:../Firmware/GD32VW55x_standard_peripheral/Source/gd32vw55x_adc.c ****         }
 2364              		.loc 1 931 26
 2365 0070 8547     		li	a5,1
 2366 0072 2326F4FE 		sw	a5,-20(s0)
 933:../Firmware/GD32VW55x_standard_peripheral/Source/gd32vw55x_adc.c ****     case ADC_INT_FLAG_EOC:
 2367              		.loc 1 933 9
 2368 0076 49A0     		j	.L131
 2369              	.L123:
 936:../Firmware/GD32VW55x_standard_peripheral/Source/gd32vw55x_adc.c ****           if((ADC_CTL0 & ADC_CTL0_EOCIE) && state){
 2370              		.loc 1 936 17
 2371 0078 B7270140 		li	a5,1073815552
 2372 007c 9C43     		lw	a5,0(a5)
 936:../Firmware/GD32VW55x_standard_peripheral/Source/gd32vw55x_adc.c ****           if((ADC_CTL0 & ADC_CTL0_EOCIE) && state){
 2373              		.loc 1 936 15
 2374 007e 898B     		andi	a5,a5,2
 2375 0080 2324F4FE 		sw	a5,-24(s0)
 937:../Firmware/GD32VW55x_standard_peripheral/Source/gd32vw55x_adc.c ****             interrupt_flag = SET;
 2376              		.loc 1 937 15
 2377 0084 B7270140 		li	a5,1073815552
 2378 0088 9107     		addi	a5,a5,4
 2379 008a 9C43     		lw	a5,0(a5)
 937:../Firmware/GD32VW55x_standard_peripheral/Source/gd32vw55x_adc.c ****             interrupt_flag = SET;
 2380              		.loc 1 937 24
 2381 008c 93F70702 		andi	a5,a5,32
 937:../Firmware/GD32VW55x_standard_peripheral/Source/gd32vw55x_adc.c ****             interrupt_flag = SET;
 2382              		.loc 1 937 13
 2383 0090 B5C7     		beq	a5,zero,.L132
 937:../Firmware/GD32VW55x_standard_peripheral/Source/gd32vw55x_adc.c ****             interrupt_flag = SET;
 2384              		.loc 1 937 42 discriminator 1
 2385 0092 832784FE 		lw	a5,-24(s0)
 2386 0096 BDC3     		beq	a5,zero,.L132
 938:../Firmware/GD32VW55x_standard_peripheral/Source/gd32vw55x_adc.c ****           }
 2387              		.loc 1 938 28
 2388 0098 8547     		li	a5,1
 2389 009a 2326F4FE 		sw	a5,-20(s0)
 940:../Firmware/GD32VW55x_standard_peripheral/Source/gd32vw55x_adc.c ****     case ADC_INT_FLAG_EOIC:
 2390              		.loc 1 940 9
 2391 009e B9A8     		j	.L132
 2392              	.L121:
 943:../Firmware/GD32VW55x_standard_peripheral/Source/gd32vw55x_adc.c ****         if((ADC_CTL0 & ADC_CTL0_EOICIE) && state){
 2393              		.loc 1 943 17
 2394 00a0 B7270140 		li	a5,1073815552
 2395 00a4 9C43     		lw	a5,0(a5)
 943:../Firmware/GD32VW55x_standard_peripheral/Source/gd32vw55x_adc.c ****         if((ADC_CTL0 & ADC_CTL0_EOICIE) && state){
 2396              		.loc 1 943 15
 2397 00a6 918B     		andi	a5,a5,4
 2398 00a8 2324F4FE 		sw	a5,-24(s0)
 944:../Firmware/GD32VW55x_standard_peripheral/Source/gd32vw55x_adc.c ****             interrupt_flag = SET;
 2399              		.loc 1 944 13
 2400 00ac B7270140 		li	a5,1073815552
 2401 00b0 9107     		addi	a5,a5,4
 2402 00b2 9C43     		lw	a5,0(a5)
 944:../Firmware/GD32VW55x_standard_peripheral/Source/gd32vw55x_adc.c ****             interrupt_flag = SET;
 2403              		.loc 1 944 22
 2404 00b4 93F70708 		andi	a5,a5,128
 944:../Firmware/GD32VW55x_standard_peripheral/Source/gd32vw55x_adc.c ****             interrupt_flag = SET;
 2405              		.loc 1 944 11
 2406 00b8 A1C7     		beq	a5,zero,.L133
 944:../Firmware/GD32VW55x_standard_peripheral/Source/gd32vw55x_adc.c ****             interrupt_flag = SET;
 2407              		.loc 1 944 41 discriminator 1
 2408 00ba 832784FE 		lw	a5,-24(s0)
 2409 00be A9C3     		beq	a5,zero,.L133
 945:../Firmware/GD32VW55x_standard_peripheral/Source/gd32vw55x_adc.c ****         }
 2410              		.loc 1 945 28
 2411 00c0 8547     		li	a5,1
 2412 00c2 2326F4FE 		sw	a5,-20(s0)
 947:../Firmware/GD32VW55x_standard_peripheral/Source/gd32vw55x_adc.c ****     case ADC_INT_FLAG_ROVF:
 2413              		.loc 1 947 9
 2414 00c6 2DA8     		j	.L133
 2415              	.L119:
 950:../Firmware/GD32VW55x_standard_peripheral/Source/gd32vw55x_adc.c ****         if((ADC_CTL0 & ADC_CTL0_ROVFIE) && state){
 2416              		.loc 1 950 17
 2417 00c8 B7270140 		li	a5,1073815552
 2418 00cc 9C43     		lw	a5,0(a5)
 950:../Firmware/GD32VW55x_standard_peripheral/Source/gd32vw55x_adc.c ****         if((ADC_CTL0 & ADC_CTL0_ROVFIE) && state){
 2419              		.loc 1 950 15
 2420 00ce 93F70702 		andi	a5,a5,32
 2421 00d2 2324F4FE 		sw	a5,-24(s0)
 951:../Firmware/GD32VW55x_standard_peripheral/Source/gd32vw55x_adc.c ****           interrupt_flag = SET;
 2422              		.loc 1 951 13
 2423 00d6 B7270140 		li	a5,1073815552
 2424 00da 9107     		addi	a5,a5,4
 2425 00dc 9843     		lw	a4,0(a5)
 951:../Firmware/GD32VW55x_standard_peripheral/Source/gd32vw55x_adc.c ****           interrupt_flag = SET;
 2426              		.loc 1 951 22
 2427 00de B7070004 		li	a5,67108864
 2428 00e2 F98F     		and	a5,a4,a5
 951:../Firmware/GD32VW55x_standard_peripheral/Source/gd32vw55x_adc.c ****           interrupt_flag = SET;
 2429              		.loc 1 951 11
 2430 00e4 85C3     		beq	a5,zero,.L134
 951:../Firmware/GD32VW55x_standard_peripheral/Source/gd32vw55x_adc.c ****           interrupt_flag = SET;
 2431              		.loc 1 951 41 discriminator 1
 2432 00e6 832784FE 		lw	a5,-24(s0)
 2433 00ea 89CF     		beq	a5,zero,.L134
 952:../Firmware/GD32VW55x_standard_peripheral/Source/gd32vw55x_adc.c ****         }
 2434              		.loc 1 952 26
 2435 00ec 8547     		li	a5,1
 2436 00ee 2326F4FE 		sw	a5,-20(s0)
 954:../Firmware/GD32VW55x_standard_peripheral/Source/gd32vw55x_adc.c ****     default:
 2437              		.loc 1 954 9
 2438 00f2 09A8     		j	.L134
 2439              	.L130:
 2440              		.loc 1 956 9
 2441 00f4 0100     		nop
 2442 00f6 01A8     		j	.L125
 2443              	.L131:
 933:../Firmware/GD32VW55x_standard_peripheral/Source/gd32vw55x_adc.c ****     case ADC_INT_FLAG_EOC:
 2444              		.loc 1 933 9
 2445 00f8 0100     		nop
 2446 00fa 31A0     		j	.L125
 2447              	.L132:
 940:../Firmware/GD32VW55x_standard_peripheral/Source/gd32vw55x_adc.c ****     case ADC_INT_FLAG_EOIC:
 2448              		.loc 1 940 9
 2449 00fc 0100     		nop
 2450 00fe 21A0     		j	.L125
 2451              	.L133:
 947:../Firmware/GD32VW55x_standard_peripheral/Source/gd32vw55x_adc.c ****     case ADC_INT_FLAG_ROVF:
 2452              		.loc 1 947 9
 2453 0100 0100     		nop
 2454 0102 11A0     		j	.L125
 2455              	.L134:
 954:../Firmware/GD32VW55x_standard_peripheral/Source/gd32vw55x_adc.c ****     default:
 2456              		.loc 1 954 9
 2457 0104 0100     		nop
 2458              	.L125:
 957:../Firmware/GD32VW55x_standard_peripheral/Source/gd32vw55x_adc.c ****     }
 958:../Firmware/GD32VW55x_standard_peripheral/Source/gd32vw55x_adc.c ****     return interrupt_flag;
 2459              		.loc 1 958 12
 2460 0106 8327C4FE 		lw	a5,-20(s0)
 959:../Firmware/GD32VW55x_standard_peripheral/Source/gd32vw55x_adc.c **** }
 2461              		.loc 1 959 1
 2462 010a 3E85     		mv	a0,a5
 2463 010c 3254     		lw	s0,44(sp)
 2464              		.cfi_restore 8
 2465              		.cfi_def_cfa 2, 48
 2466 010e 4561     		addi	sp,sp,48
 2467              		.cfi_def_cfa_offset 0
 2468 0110 8280     		jr	ra
 2469              		.cfi_endproc
 2470              	.LFE382:
 2472              		.section	.text.adc_interrupt_flag_clear,"ax",@progbits
 2473              		.align	1
 2474              		.globl	adc_interrupt_flag_clear
 2476              	adc_interrupt_flag_clear:
 2477              	.LFB383:
 960:../Firmware/GD32VW55x_standard_peripheral/Source/gd32vw55x_adc.c **** 
 961:../Firmware/GD32VW55x_standard_peripheral/Source/gd32vw55x_adc.c **** /*!
 962:../Firmware/GD32VW55x_standard_peripheral/Source/gd32vw55x_adc.c ****     \brief      clear ADC interrupt flag
 963:../Firmware/GD32VW55x_standard_peripheral/Source/gd32vw55x_adc.c ****     \param[in]  int_flag: the ADC interrupt flag
 964:../Firmware/GD32VW55x_standard_peripheral/Source/gd32vw55x_adc.c ****                 only one parameter can be selected which is shown as below:
 965:../Firmware/GD32VW55x_standard_peripheral/Source/gd32vw55x_adc.c ****       \arg        ADC_INT_FLAG_WDE: analog watchdog interrupt flag
 966:../Firmware/GD32VW55x_standard_peripheral/Source/gd32vw55x_adc.c ****       \arg        ADC_INT_FLAG_EOC: end of group conversion interrupt flag
 967:../Firmware/GD32VW55x_standard_peripheral/Source/gd32vw55x_adc.c ****       \arg        ADC_INT_FLAG_EOIC: end of inserted group conversion interrupt flag
 968:../Firmware/GD32VW55x_standard_peripheral/Source/gd32vw55x_adc.c ****       \arg        ADC_INT_FLAG_ROVF: routine data register overflow interrupt flag
 969:../Firmware/GD32VW55x_standard_peripheral/Source/gd32vw55x_adc.c ****     \param[out] none
 970:../Firmware/GD32VW55x_standard_peripheral/Source/gd32vw55x_adc.c ****     \retval     none
 971:../Firmware/GD32VW55x_standard_peripheral/Source/gd32vw55x_adc.c **** */
 972:../Firmware/GD32VW55x_standard_peripheral/Source/gd32vw55x_adc.c **** void adc_interrupt_flag_clear(uint32_t int_flag)
 973:../Firmware/GD32VW55x_standard_peripheral/Source/gd32vw55x_adc.c **** {
 2478              		.loc 1 973 1
 2479              		.cfi_startproc
 2480 0000 0111     		addi	sp,sp,-32
 2481              		.cfi_def_cfa_offset 32
 2482 0002 22CE     		sw	s0,28(sp)
 2483              		.cfi_offset 8, -4
 2484 0004 0010     		addi	s0,sp,32
 2485              		.cfi_def_cfa 8, 0
 2486 0006 2326A4FE 		sw	a0,-20(s0)
 974:../Firmware/GD32VW55x_standard_peripheral/Source/gd32vw55x_adc.c ****     ADC_STAT = ~((uint32_t)int_flag);
 2487              		.loc 1 974 5
 2488 000a B7270140 		li	a5,1073815552
 2489              		.loc 1 974 16
 2490 000e 0327C4FE 		lw	a4,-20(s0)
 2491 0012 1347F7FF 		not	a4,a4
 2492              		.loc 1 974 14
 2493 0016 98C3     		sw	a4,0(a5)
 975:../Firmware/GD32VW55x_standard_peripheral/Source/gd32vw55x_adc.c **** }
 2494              		.loc 1 975 1
 2495 0018 0100     		nop
 2496 001a 7244     		lw	s0,28(sp)
 2497              		.cfi_restore 8
 2498              		.cfi_def_cfa 2, 32
 2499 001c 0561     		addi	sp,sp,32
 2500              		.cfi_def_cfa_offset 0
 2501 001e 8280     		jr	ra
 2502              		.cfi_endproc
 2503              	.LFE383:
 2505              		.text
 2506              	.Letext0:
 2507              		.file 2 "e:\\gd32\\gd32embeddedbuilder_v1.5.2.30854\\tools\\nuclei_riscv_newlibc_prebuilt_win32_20
 2508              		.file 3 "e:\\gd32\\gd32embeddedbuilder_v1.5.2.30854\\tools\\nuclei_riscv_newlibc_prebuilt_win32_20
 2509              		.file 4 "../Firmware/GD32VW55x_standard_peripheral/gd32vw55x.h"
 2510              		.file 5 "../Firmware/GD32VW55x_standard_peripheral/Include/gd32vw55x_rcu.h"
DEFINED SYMBOLS
                            *ABS*:0000000000000000 gd32vw55x_adc.c
C:\Users\CYMR90~1\AppData\Local\Temp\ccLNaGfc.s:13     .text.adc_deinit:0000000000000000 adc_deinit
C:\Users\CYMR90~1\AppData\Local\Temp\ccLNaGfc.s:17     .text.adc_deinit:0000000000000000 .L0 
C:\Users\CYMR90~1\AppData\Local\Temp\ccLNaGfc.s:18     .text.adc_deinit:0000000000000000 .L0 
C:\Users\CYMR90~1\AppData\Local\Temp\ccLNaGfc.s:19     .text.adc_deinit:0000000000000002 .L0 
C:\Users\CYMR90~1\AppData\Local\Temp\ccLNaGfc.s:22     .text.adc_deinit:0000000000000006 .L0 
C:\Users\CYMR90~1\AppData\Local\Temp\ccLNaGfc.s:23     .text.adc_deinit:0000000000000006 .L0 
C:\Users\CYMR90~1\AppData\Local\Temp\ccLNaGfc.s:25     .text.adc_deinit:0000000000000008 .L0 
C:\Users\CYMR90~1\AppData\Local\Temp\ccLNaGfc.s:27     .text.adc_deinit:0000000000000008 .L0 
C:\Users\CYMR90~1\AppData\Local\Temp\ccLNaGfc.s:31     .text.adc_deinit:0000000000000016 .L0 
C:\Users\CYMR90~1\AppData\Local\Temp\ccLNaGfc.s:35     .text.adc_deinit:0000000000000024 .L0 
C:\Users\CYMR90~1\AppData\Local\Temp\ccLNaGfc.s:37     .text.adc_deinit:0000000000000028 .L0 
C:\Users\CYMR90~1\AppData\Local\Temp\ccLNaGfc.s:39     .text.adc_deinit:000000000000002a .L0 
C:\Users\CYMR90~1\AppData\Local\Temp\ccLNaGfc.s:40     .text.adc_deinit:000000000000002a .L0 
C:\Users\CYMR90~1\AppData\Local\Temp\ccLNaGfc.s:42     .text.adc_deinit:000000000000002c .L0 
C:\Users\CYMR90~1\AppData\Local\Temp\ccLNaGfc.s:44     .text.adc_deinit:000000000000002e .L0 
C:\Users\CYMR90~1\AppData\Local\Temp\ccLNaGfc.s:51     .text.adc_clock_config:0000000000000000 adc_clock_config
C:\Users\CYMR90~1\AppData\Local\Temp\ccLNaGfc.s:54     .text.adc_clock_config:0000000000000000 .L0 
C:\Users\CYMR90~1\AppData\Local\Temp\ccLNaGfc.s:55     .text.adc_clock_config:0000000000000000 .L0 
C:\Users\CYMR90~1\AppData\Local\Temp\ccLNaGfc.s:56     .text.adc_clock_config:0000000000000002 .L0 
C:\Users\CYMR90~1\AppData\Local\Temp\ccLNaGfc.s:58     .text.adc_clock_config:0000000000000004 .L0 
C:\Users\CYMR90~1\AppData\Local\Temp\ccLNaGfc.s:60     .text.adc_clock_config:0000000000000006 .L0 
C:\Users\CYMR90~1\AppData\Local\Temp\ccLNaGfc.s:63     .text.adc_clock_config:000000000000000a .L0 
C:\Users\CYMR90~1\AppData\Local\Temp\ccLNaGfc.s:73     .text.adc_clock_config:0000000000000026 .L0 
C:\Users\CYMR90~1\AppData\Local\Temp\ccLNaGfc.s:82     .text.adc_clock_config:0000000000000040 .L0 
C:\Users\CYMR90~1\AppData\Local\Temp\ccLNaGfc.s:84     .text.adc_clock_config:0000000000000044 .L0 
C:\Users\CYMR90~1\AppData\Local\Temp\ccLNaGfc.s:85     .text.adc_clock_config:0000000000000044 .L0 
C:\Users\CYMR90~1\AppData\Local\Temp\ccLNaGfc.s:87     .text.adc_clock_config:0000000000000046 .L0 
C:\Users\CYMR90~1\AppData\Local\Temp\ccLNaGfc.s:89     .text.adc_clock_config:0000000000000048 .L0 
C:\Users\CYMR90~1\AppData\Local\Temp\ccLNaGfc.s:96     .text.adc_enable:0000000000000000 adc_enable
C:\Users\CYMR90~1\AppData\Local\Temp\ccLNaGfc.s:99     .text.adc_enable:0000000000000000 .L0 
C:\Users\CYMR90~1\AppData\Local\Temp\ccLNaGfc.s:100    .text.adc_enable:0000000000000000 .L0 
C:\Users\CYMR90~1\AppData\Local\Temp\ccLNaGfc.s:101    .text.adc_enable:0000000000000002 .L0 
C:\Users\CYMR90~1\AppData\Local\Temp\ccLNaGfc.s:103    .text.adc_enable:0000000000000004 .L0 
C:\Users\CYMR90~1\AppData\Local\Temp\ccLNaGfc.s:105    .text.adc_enable:0000000000000006 .L0 
C:\Users\CYMR90~1\AppData\Local\Temp\ccLNaGfc.s:107    .text.adc_enable:0000000000000006 .L0 
C:\Users\CYMR90~1\AppData\Local\Temp\ccLNaGfc.s:111    .text.adc_enable:000000000000000e .L0 
C:\Users\CYMR90~1\AppData\Local\Temp\ccLNaGfc.s:113    .text.adc_enable:0000000000000010 .L0 
C:\Users\CYMR90~1\AppData\Local\Temp\ccLNaGfc.s:115    .text.adc_enable:0000000000000012 .L0 
C:\Users\CYMR90~1\AppData\Local\Temp\ccLNaGfc.s:124    .text.adc_enable:0000000000000026 .L0 
C:\Users\CYMR90~1\AppData\Local\Temp\ccLNaGfc.s:126    .text.adc_enable:000000000000002a .L0 
C:\Users\CYMR90~1\AppData\Local\Temp\ccLNaGfc.s:127    .text.adc_enable:000000000000002a .L0 
C:\Users\CYMR90~1\AppData\Local\Temp\ccLNaGfc.s:129    .text.adc_enable:000000000000002c .L0 
C:\Users\CYMR90~1\AppData\Local\Temp\ccLNaGfc.s:131    .text.adc_enable:000000000000002e .L0 
C:\Users\CYMR90~1\AppData\Local\Temp\ccLNaGfc.s:138    .text.adc_disable:0000000000000000 adc_disable
C:\Users\CYMR90~1\AppData\Local\Temp\ccLNaGfc.s:141    .text.adc_disable:0000000000000000 .L0 
C:\Users\CYMR90~1\AppData\Local\Temp\ccLNaGfc.s:142    .text.adc_disable:0000000000000000 .L0 
C:\Users\CYMR90~1\AppData\Local\Temp\ccLNaGfc.s:143    .text.adc_disable:0000000000000002 .L0 
C:\Users\CYMR90~1\AppData\Local\Temp\ccLNaGfc.s:145    .text.adc_disable:0000000000000004 .L0 
C:\Users\CYMR90~1\AppData\Local\Temp\ccLNaGfc.s:147    .text.adc_disable:0000000000000006 .L0 
C:\Users\CYMR90~1\AppData\Local\Temp\ccLNaGfc.s:149    .text.adc_disable:0000000000000006 .L0 
C:\Users\CYMR90~1\AppData\Local\Temp\ccLNaGfc.s:157    .text.adc_disable:0000000000000018 .L0 
C:\Users\CYMR90~1\AppData\Local\Temp\ccLNaGfc.s:159    .text.adc_disable:000000000000001c .L0 
C:\Users\CYMR90~1\AppData\Local\Temp\ccLNaGfc.s:160    .text.adc_disable:000000000000001c .L0 
C:\Users\CYMR90~1\AppData\Local\Temp\ccLNaGfc.s:162    .text.adc_disable:000000000000001e .L0 
C:\Users\CYMR90~1\AppData\Local\Temp\ccLNaGfc.s:164    .text.adc_disable:0000000000000020 .L0 
C:\Users\CYMR90~1\AppData\Local\Temp\ccLNaGfc.s:171    .text.adc_dma_mode_enable:0000000000000000 adc_dma_mode_enable
C:\Users\CYMR90~1\AppData\Local\Temp\ccLNaGfc.s:174    .text.adc_dma_mode_enable:0000000000000000 .L0 
C:\Users\CYMR90~1\AppData\Local\Temp\ccLNaGfc.s:175    .text.adc_dma_mode_enable:0000000000000000 .L0 
C:\Users\CYMR90~1\AppData\Local\Temp\ccLNaGfc.s:176    .text.adc_dma_mode_enable:0000000000000002 .L0 
C:\Users\CYMR90~1\AppData\Local\Temp\ccLNaGfc.s:178    .text.adc_dma_mode_enable:0000000000000004 .L0 
C:\Users\CYMR90~1\AppData\Local\Temp\ccLNaGfc.s:180    .text.adc_dma_mode_enable:0000000000000006 .L0 
C:\Users\CYMR90~1\AppData\Local\Temp\ccLNaGfc.s:182    .text.adc_dma_mode_enable:0000000000000006 .L0 
C:\Users\CYMR90~1\AppData\Local\Temp\ccLNaGfc.s:190    .text.adc_dma_mode_enable:000000000000001a .L0 
C:\Users\CYMR90~1\AppData\Local\Temp\ccLNaGfc.s:192    .text.adc_dma_mode_enable:000000000000001e .L0 
C:\Users\CYMR90~1\AppData\Local\Temp\ccLNaGfc.s:193    .text.adc_dma_mode_enable:000000000000001e .L0 
C:\Users\CYMR90~1\AppData\Local\Temp\ccLNaGfc.s:195    .text.adc_dma_mode_enable:0000000000000020 .L0 
C:\Users\CYMR90~1\AppData\Local\Temp\ccLNaGfc.s:197    .text.adc_dma_mode_enable:0000000000000022 .L0 
C:\Users\CYMR90~1\AppData\Local\Temp\ccLNaGfc.s:204    .text.adc_dma_mode_disable:0000000000000000 adc_dma_mode_disable
C:\Users\CYMR90~1\AppData\Local\Temp\ccLNaGfc.s:207    .text.adc_dma_mode_disable:0000000000000000 .L0 
C:\Users\CYMR90~1\AppData\Local\Temp\ccLNaGfc.s:208    .text.adc_dma_mode_disable:0000000000000000 .L0 
C:\Users\CYMR90~1\AppData\Local\Temp\ccLNaGfc.s:209    .text.adc_dma_mode_disable:0000000000000002 .L0 
C:\Users\CYMR90~1\AppData\Local\Temp\ccLNaGfc.s:211    .text.adc_dma_mode_disable:0000000000000004 .L0 
C:\Users\CYMR90~1\AppData\Local\Temp\ccLNaGfc.s:213    .text.adc_dma_mode_disable:0000000000000006 .L0 
C:\Users\CYMR90~1\AppData\Local\Temp\ccLNaGfc.s:215    .text.adc_dma_mode_disable:0000000000000006 .L0 
C:\Users\CYMR90~1\AppData\Local\Temp\ccLNaGfc.s:223    .text.adc_dma_mode_disable:000000000000001a .L0 
C:\Users\CYMR90~1\AppData\Local\Temp\ccLNaGfc.s:225    .text.adc_dma_mode_disable:000000000000001e .L0 
C:\Users\CYMR90~1\AppData\Local\Temp\ccLNaGfc.s:226    .text.adc_dma_mode_disable:000000000000001e .L0 
C:\Users\CYMR90~1\AppData\Local\Temp\ccLNaGfc.s:228    .text.adc_dma_mode_disable:0000000000000020 .L0 
C:\Users\CYMR90~1\AppData\Local\Temp\ccLNaGfc.s:230    .text.adc_dma_mode_disable:0000000000000022 .L0 
C:\Users\CYMR90~1\AppData\Local\Temp\ccLNaGfc.s:237    .text.adc_dma_request_after_last_enable:0000000000000000 adc_dma_request_after_last_enable
C:\Users\CYMR90~1\AppData\Local\Temp\ccLNaGfc.s:240    .text.adc_dma_request_after_last_enable:0000000000000000 .L0 
C:\Users\CYMR90~1\AppData\Local\Temp\ccLNaGfc.s:241    .text.adc_dma_request_after_last_enable:0000000000000000 .L0 
C:\Users\CYMR90~1\AppData\Local\Temp\ccLNaGfc.s:242    .text.adc_dma_request_after_last_enable:0000000000000002 .L0 
C:\Users\CYMR90~1\AppData\Local\Temp\ccLNaGfc.s:244    .text.adc_dma_request_after_last_enable:0000000000000004 .L0 
C:\Users\CYMR90~1\AppData\Local\Temp\ccLNaGfc.s:246    .text.adc_dma_request_after_last_enable:0000000000000006 .L0 
C:\Users\CYMR90~1\AppData\Local\Temp\ccLNaGfc.s:248    .text.adc_dma_request_after_last_enable:0000000000000006 .L0 
C:\Users\CYMR90~1\AppData\Local\Temp\ccLNaGfc.s:256    .text.adc_dma_request_after_last_enable:000000000000001a .L0 
C:\Users\CYMR90~1\AppData\Local\Temp\ccLNaGfc.s:258    .text.adc_dma_request_after_last_enable:000000000000001e .L0 
C:\Users\CYMR90~1\AppData\Local\Temp\ccLNaGfc.s:259    .text.adc_dma_request_after_last_enable:000000000000001e .L0 
C:\Users\CYMR90~1\AppData\Local\Temp\ccLNaGfc.s:261    .text.adc_dma_request_after_last_enable:0000000000000020 .L0 
C:\Users\CYMR90~1\AppData\Local\Temp\ccLNaGfc.s:263    .text.adc_dma_request_after_last_enable:0000000000000022 .L0 
C:\Users\CYMR90~1\AppData\Local\Temp\ccLNaGfc.s:270    .text.adc_dma_request_after_last_disable:0000000000000000 adc_dma_request_after_last_disable
C:\Users\CYMR90~1\AppData\Local\Temp\ccLNaGfc.s:273    .text.adc_dma_request_after_last_disable:0000000000000000 .L0 
C:\Users\CYMR90~1\AppData\Local\Temp\ccLNaGfc.s:274    .text.adc_dma_request_after_last_disable:0000000000000000 .L0 
C:\Users\CYMR90~1\AppData\Local\Temp\ccLNaGfc.s:275    .text.adc_dma_request_after_last_disable:0000000000000002 .L0 
C:\Users\CYMR90~1\AppData\Local\Temp\ccLNaGfc.s:277    .text.adc_dma_request_after_last_disable:0000000000000004 .L0 
C:\Users\CYMR90~1\AppData\Local\Temp\ccLNaGfc.s:279    .text.adc_dma_request_after_last_disable:0000000000000006 .L0 
C:\Users\CYMR90~1\AppData\Local\Temp\ccLNaGfc.s:281    .text.adc_dma_request_after_last_disable:0000000000000006 .L0 
C:\Users\CYMR90~1\AppData\Local\Temp\ccLNaGfc.s:289    .text.adc_dma_request_after_last_disable:000000000000001a .L0 
C:\Users\CYMR90~1\AppData\Local\Temp\ccLNaGfc.s:291    .text.adc_dma_request_after_last_disable:000000000000001e .L0 
C:\Users\CYMR90~1\AppData\Local\Temp\ccLNaGfc.s:292    .text.adc_dma_request_after_last_disable:000000000000001e .L0 
C:\Users\CYMR90~1\AppData\Local\Temp\ccLNaGfc.s:294    .text.adc_dma_request_after_last_disable:0000000000000020 .L0 
C:\Users\CYMR90~1\AppData\Local\Temp\ccLNaGfc.s:296    .text.adc_dma_request_after_last_disable:0000000000000022 .L0 
C:\Users\CYMR90~1\AppData\Local\Temp\ccLNaGfc.s:303    .text.adc_discontinuous_mode_config:0000000000000000 adc_discontinuous_mode_config
C:\Users\CYMR90~1\AppData\Local\Temp\ccLNaGfc.s:306    .text.adc_discontinuous_mode_config:0000000000000000 .L0 
C:\Users\CYMR90~1\AppData\Local\Temp\ccLNaGfc.s:307    .text.adc_discontinuous_mode_config:0000000000000000 .L0 
C:\Users\CYMR90~1\AppData\Local\Temp\ccLNaGfc.s:308    .text.adc_discontinuous_mode_config:0000000000000002 .L0 
C:\Users\CYMR90~1\AppData\Local\Temp\ccLNaGfc.s:310    .text.adc_discontinuous_mode_config:0000000000000004 .L0 
C:\Users\CYMR90~1\AppData\Local\Temp\ccLNaGfc.s:312    .text.adc_discontinuous_mode_config:0000000000000006 .L0 
C:\Users\CYMR90~1\AppData\Local\Temp\ccLNaGfc.s:319    .text.adc_discontinuous_mode_config:0000000000000014 .L0 
C:\Users\CYMR90~1\AppData\Local\Temp\ccLNaGfc.s:329    .text.adc_discontinuous_mode_config:000000000000002c .L0 
C:\Users\CYMR90~1\AppData\Local\Temp\ccLNaGfc.s:335    .text.adc_discontinuous_mode_config:000000000000003c .L0 
C:\Users\CYMR90~1\AppData\Local\Temp\ccLNaGfc.s:338    .text.adc_discontinuous_mode_config:000000000000003e .L0 
C:\Users\CYMR90~1\AppData\Local\Temp\ccLNaGfc.s:348    .text.adc_discontinuous_mode_config:0000000000000054 .L0 
C:\Users\CYMR90~1\AppData\Local\Temp\ccLNaGfc.s:352    .text.adc_discontinuous_mode_config:000000000000005e .L0 
C:\Users\CYMR90~1\AppData\Local\Temp\ccLNaGfc.s:355    .text.adc_discontinuous_mode_config:0000000000000064 .L0 
C:\Users\CYMR90~1\AppData\Local\Temp\ccLNaGfc.s:359    .text.adc_discontinuous_mode_config:000000000000006c .L0 
C:\Users\CYMR90~1\AppData\Local\Temp\ccLNaGfc.s:366    .text.adc_discontinuous_mode_config:000000000000007c .L0 
C:\Users\CYMR90~1\AppData\Local\Temp\ccLNaGfc.s:372    .text.adc_discontinuous_mode_config:0000000000000086 .L0 
C:\Users\CYMR90~1\AppData\Local\Temp\ccLNaGfc.s:382    .text.adc_discontinuous_mode_config:000000000000009e .L0 
C:\Users\CYMR90~1\AppData\Local\Temp\ccLNaGfc.s:385    .text.adc_discontinuous_mode_config:00000000000000a0 .L0 
C:\Users\CYMR90~1\AppData\Local\Temp\ccLNaGfc.s:394    .text.adc_discontinuous_mode_config:00000000000000b4 .L0 
C:\Users\CYMR90~1\AppData\Local\Temp\ccLNaGfc.s:397    .text.adc_discontinuous_mode_config:00000000000000b6 .L0 
C:\Users\CYMR90~1\AppData\Local\Temp\ccLNaGfc.s:399    .text.adc_discontinuous_mode_config:00000000000000ba .L0 
C:\Users\CYMR90~1\AppData\Local\Temp\ccLNaGfc.s:400    .text.adc_discontinuous_mode_config:00000000000000ba .L0 
C:\Users\CYMR90~1\AppData\Local\Temp\ccLNaGfc.s:402    .text.adc_discontinuous_mode_config:00000000000000bc .L0 
C:\Users\CYMR90~1\AppData\Local\Temp\ccLNaGfc.s:404    .text.adc_discontinuous_mode_config:00000000000000be .L0 
C:\Users\CYMR90~1\AppData\Local\Temp\ccLNaGfc.s:411    .text.adc_special_function_config:0000000000000000 adc_special_function_config
C:\Users\CYMR90~1\AppData\Local\Temp\ccLNaGfc.s:414    .text.adc_special_function_config:0000000000000000 .L0 
C:\Users\CYMR90~1\AppData\Local\Temp\ccLNaGfc.s:415    .text.adc_special_function_config:0000000000000000 .L0 
C:\Users\CYMR90~1\AppData\Local\Temp\ccLNaGfc.s:416    .text.adc_special_function_config:0000000000000002 .L0 
C:\Users\CYMR90~1\AppData\Local\Temp\ccLNaGfc.s:418    .text.adc_special_function_config:0000000000000004 .L0 
C:\Users\CYMR90~1\AppData\Local\Temp\ccLNaGfc.s:420    .text.adc_special_function_config:0000000000000006 .L0 
C:\Users\CYMR90~1\AppData\Local\Temp\ccLNaGfc.s:424    .text.adc_special_function_config:000000000000000e .L0 
C:\Users\CYMR90~1\AppData\Local\Temp\ccLNaGfc.s:427    .text.adc_special_function_config:0000000000000014 .L0 
C:\Users\CYMR90~1\AppData\Local\Temp\ccLNaGfc.s:430    .text.adc_special_function_config:000000000000001c .L0 
C:\Users\CYMR90~1\AppData\Local\Temp\ccLNaGfc.s:432    .text.adc_special_function_config:000000000000001e .L0 
C:\Users\CYMR90~1\AppData\Local\Temp\ccLNaGfc.s:441    .text.adc_special_function_config:0000000000000032 .L0 
C:\Users\CYMR90~1\AppData\Local\Temp\ccLNaGfc.s:444    .text.adc_special_function_config:000000000000003a .L0 
C:\Users\CYMR90~1\AppData\Local\Temp\ccLNaGfc.s:446    .text.adc_special_function_config:000000000000003c .L0 
C:\Users\CYMR90~1\AppData\Local\Temp\ccLNaGfc.s:455    .text.adc_special_function_config:0000000000000050 .L0 
C:\Users\CYMR90~1\AppData\Local\Temp\ccLNaGfc.s:458    .text.adc_special_function_config:0000000000000056 .L0 
C:\Users\CYMR90~1\AppData\Local\Temp\ccLNaGfc.s:460    .text.adc_special_function_config:0000000000000058 .L0 
C:\Users\CYMR90~1\AppData\Local\Temp\ccLNaGfc.s:468    .text.adc_special_function_config:000000000000006c .L0 
C:\Users\CYMR90~1\AppData\Local\Temp\ccLNaGfc.s:471    .text.adc_special_function_config:000000000000006e .L0 
C:\Users\CYMR90~1\AppData\Local\Temp\ccLNaGfc.s:474    .text.adc_special_function_config:0000000000000076 .L0 
C:\Users\CYMR90~1\AppData\Local\Temp\ccLNaGfc.s:476    .text.adc_special_function_config:0000000000000078 .L0 
C:\Users\CYMR90~1\AppData\Local\Temp\ccLNaGfc.s:485    .text.adc_special_function_config:000000000000008c .L0 
C:\Users\CYMR90~1\AppData\Local\Temp\ccLNaGfc.s:488    .text.adc_special_function_config:0000000000000094 .L0 
C:\Users\CYMR90~1\AppData\Local\Temp\ccLNaGfc.s:490    .text.adc_special_function_config:0000000000000096 .L0 
C:\Users\CYMR90~1\AppData\Local\Temp\ccLNaGfc.s:499    .text.adc_special_function_config:00000000000000aa .L0 
C:\Users\CYMR90~1\AppData\Local\Temp\ccLNaGfc.s:502    .text.adc_special_function_config:00000000000000b0 .L0 
C:\Users\CYMR90~1\AppData\Local\Temp\ccLNaGfc.s:504    .text.adc_special_function_config:00000000000000b2 .L0 
C:\Users\CYMR90~1\AppData\Local\Temp\ccLNaGfc.s:513    .text.adc_special_function_config:00000000000000c4 .L0 
C:\Users\CYMR90~1\AppData\Local\Temp\ccLNaGfc.s:515    .text.adc_special_function_config:00000000000000c8 .L0 
C:\Users\CYMR90~1\AppData\Local\Temp\ccLNaGfc.s:516    .text.adc_special_function_config:00000000000000c8 .L0 
C:\Users\CYMR90~1\AppData\Local\Temp\ccLNaGfc.s:518    .text.adc_special_function_config:00000000000000ca .L0 
C:\Users\CYMR90~1\AppData\Local\Temp\ccLNaGfc.s:520    .text.adc_special_function_config:00000000000000cc .L0 
C:\Users\CYMR90~1\AppData\Local\Temp\ccLNaGfc.s:527    .text.adc_tempsensor_vrefint_enable:0000000000000000 adc_tempsensor_vrefint_enable
C:\Users\CYMR90~1\AppData\Local\Temp\ccLNaGfc.s:530    .text.adc_tempsensor_vrefint_enable:0000000000000000 .L0 
C:\Users\CYMR90~1\AppData\Local\Temp\ccLNaGfc.s:531    .text.adc_tempsensor_vrefint_enable:0000000000000000 .L0 
C:\Users\CYMR90~1\AppData\Local\Temp\ccLNaGfc.s:532    .text.adc_tempsensor_vrefint_enable:0000000000000002 .L0 
C:\Users\CYMR90~1\AppData\Local\Temp\ccLNaGfc.s:534    .text.adc_tempsensor_vrefint_enable:0000000000000004 .L0 
C:\Users\CYMR90~1\AppData\Local\Temp\ccLNaGfc.s:536    .text.adc_tempsensor_vrefint_enable:0000000000000006 .L0 
C:\Users\CYMR90~1\AppData\Local\Temp\ccLNaGfc.s:538    .text.adc_tempsensor_vrefint_enable:0000000000000006 .L0 
C:\Users\CYMR90~1\AppData\Local\Temp\ccLNaGfc.s:547    .text.adc_tempsensor_vrefint_enable:0000000000000020 .L0 
C:\Users\CYMR90~1\AppData\Local\Temp\ccLNaGfc.s:549    .text.adc_tempsensor_vrefint_enable:0000000000000024 .L0 
C:\Users\CYMR90~1\AppData\Local\Temp\ccLNaGfc.s:550    .text.adc_tempsensor_vrefint_enable:0000000000000024 .L0 
C:\Users\CYMR90~1\AppData\Local\Temp\ccLNaGfc.s:552    .text.adc_tempsensor_vrefint_enable:0000000000000026 .L0 
C:\Users\CYMR90~1\AppData\Local\Temp\ccLNaGfc.s:554    .text.adc_tempsensor_vrefint_enable:0000000000000028 .L0 
C:\Users\CYMR90~1\AppData\Local\Temp\ccLNaGfc.s:561    .text.adc_tempsensor_vrefint_disable:0000000000000000 adc_tempsensor_vrefint_disable
C:\Users\CYMR90~1\AppData\Local\Temp\ccLNaGfc.s:564    .text.adc_tempsensor_vrefint_disable:0000000000000000 .L0 
C:\Users\CYMR90~1\AppData\Local\Temp\ccLNaGfc.s:565    .text.adc_tempsensor_vrefint_disable:0000000000000000 .L0 
C:\Users\CYMR90~1\AppData\Local\Temp\ccLNaGfc.s:566    .text.adc_tempsensor_vrefint_disable:0000000000000002 .L0 
C:\Users\CYMR90~1\AppData\Local\Temp\ccLNaGfc.s:568    .text.adc_tempsensor_vrefint_disable:0000000000000004 .L0 
C:\Users\CYMR90~1\AppData\Local\Temp\ccLNaGfc.s:570    .text.adc_tempsensor_vrefint_disable:0000000000000006 .L0 
C:\Users\CYMR90~1\AppData\Local\Temp\ccLNaGfc.s:572    .text.adc_tempsensor_vrefint_disable:0000000000000006 .L0 
C:\Users\CYMR90~1\AppData\Local\Temp\ccLNaGfc.s:582    .text.adc_tempsensor_vrefint_disable:0000000000000022 .L0 
C:\Users\CYMR90~1\AppData\Local\Temp\ccLNaGfc.s:584    .text.adc_tempsensor_vrefint_disable:0000000000000026 .L0 
C:\Users\CYMR90~1\AppData\Local\Temp\ccLNaGfc.s:585    .text.adc_tempsensor_vrefint_disable:0000000000000026 .L0 
C:\Users\CYMR90~1\AppData\Local\Temp\ccLNaGfc.s:587    .text.adc_tempsensor_vrefint_disable:0000000000000028 .L0 
C:\Users\CYMR90~1\AppData\Local\Temp\ccLNaGfc.s:589    .text.adc_tempsensor_vrefint_disable:000000000000002a .L0 
C:\Users\CYMR90~1\AppData\Local\Temp\ccLNaGfc.s:596    .text.adc_data_alignment_config:0000000000000000 adc_data_alignment_config
C:\Users\CYMR90~1\AppData\Local\Temp\ccLNaGfc.s:599    .text.adc_data_alignment_config:0000000000000000 .L0 
C:\Users\CYMR90~1\AppData\Local\Temp\ccLNaGfc.s:600    .text.adc_data_alignment_config:0000000000000000 .L0 
C:\Users\CYMR90~1\AppData\Local\Temp\ccLNaGfc.s:601    .text.adc_data_alignment_config:0000000000000002 .L0 
C:\Users\CYMR90~1\AppData\Local\Temp\ccLNaGfc.s:603    .text.adc_data_alignment_config:0000000000000004 .L0 
C:\Users\CYMR90~1\AppData\Local\Temp\ccLNaGfc.s:605    .text.adc_data_alignment_config:0000000000000006 .L0 
C:\Users\CYMR90~1\AppData\Local\Temp\ccLNaGfc.s:608    .text.adc_data_alignment_config:000000000000000a .L0 
C:\Users\CYMR90~1\AppData\Local\Temp\ccLNaGfc.s:611    .text.adc_data_alignment_config:0000000000000010 .L0 
C:\Users\CYMR90~1\AppData\Local\Temp\ccLNaGfc.s:621    .text.adc_data_alignment_config:0000000000000028 .L0 
C:\Users\CYMR90~1\AppData\Local\Temp\ccLNaGfc.s:624    .text.adc_data_alignment_config:000000000000002a .L0 
C:\Users\CYMR90~1\AppData\Local\Temp\ccLNaGfc.s:635    .text.adc_data_alignment_config:0000000000000042 .L0 
C:\Users\CYMR90~1\AppData\Local\Temp\ccLNaGfc.s:637    .text.adc_data_alignment_config:0000000000000046 .L0 
C:\Users\CYMR90~1\AppData\Local\Temp\ccLNaGfc.s:638    .text.adc_data_alignment_config:0000000000000046 .L0 
C:\Users\CYMR90~1\AppData\Local\Temp\ccLNaGfc.s:640    .text.adc_data_alignment_config:0000000000000048 .L0 
C:\Users\CYMR90~1\AppData\Local\Temp\ccLNaGfc.s:642    .text.adc_data_alignment_config:000000000000004a .L0 
C:\Users\CYMR90~1\AppData\Local\Temp\ccLNaGfc.s:649    .text.adc_channel_length_config:0000000000000000 adc_channel_length_config
C:\Users\CYMR90~1\AppData\Local\Temp\ccLNaGfc.s:652    .text.adc_channel_length_config:0000000000000000 .L0 
C:\Users\CYMR90~1\AppData\Local\Temp\ccLNaGfc.s:653    .text.adc_channel_length_config:0000000000000000 .L0 
C:\Users\CYMR90~1\AppData\Local\Temp\ccLNaGfc.s:654    .text.adc_channel_length_config:0000000000000002 .L0 
C:\Users\CYMR90~1\AppData\Local\Temp\ccLNaGfc.s:656    .text.adc_channel_length_config:0000000000000004 .L0 
C:\Users\CYMR90~1\AppData\Local\Temp\ccLNaGfc.s:658    .text.adc_channel_length_config:0000000000000006 .L0 
C:\Users\CYMR90~1\AppData\Local\Temp\ccLNaGfc.s:663    .text.adc_channel_length_config:0000000000000010 .L0 
C:\Users\CYMR90~1\AppData\Local\Temp\ccLNaGfc.s:669    .text.adc_channel_length_config:0000000000000020 .L0 
C:\Users\CYMR90~1\AppData\Local\Temp\ccLNaGfc.s:672    .text.adc_channel_length_config:0000000000000022 .L0 
C:\Users\CYMR90~1\AppData\Local\Temp\ccLNaGfc.s:675    .text.adc_channel_length_config:0000000000000028 .L0 
C:\Users\CYMR90~1\AppData\Local\Temp\ccLNaGfc.s:679    .text.adc_channel_length_config:0000000000000032 .L0 
C:\Users\CYMR90~1\AppData\Local\Temp\ccLNaGfc.s:689    .text.adc_channel_length_config:000000000000004e .L0 
C:\Users\CYMR90~1\AppData\Local\Temp\ccLNaGfc.s:693    .text.adc_channel_length_config:0000000000000058 .L0 
C:\Users\CYMR90~1\AppData\Local\Temp\ccLNaGfc.s:699    .text.adc_channel_length_config:0000000000000068 .L0 
C:\Users\CYMR90~1\AppData\Local\Temp\ccLNaGfc.s:704    .text.adc_channel_length_config:0000000000000074 .L0 
C:\Users\CYMR90~1\AppData\Local\Temp\ccLNaGfc.s:707    .text.adc_channel_length_config:0000000000000076 .L0 
C:\Users\CYMR90~1\AppData\Local\Temp\ccLNaGfc.s:710    .text.adc_channel_length_config:000000000000007c .L0 
C:\Users\CYMR90~1\AppData\Local\Temp\ccLNaGfc.s:714    .text.adc_channel_length_config:0000000000000086 .L0 
C:\Users\CYMR90~1\AppData\Local\Temp\ccLNaGfc.s:724    .text.adc_channel_length_config:00000000000000a2 .L0 
C:\Users\CYMR90~1\AppData\Local\Temp\ccLNaGfc.s:728    .text.adc_channel_length_config:00000000000000ac .L0 
C:\Users\CYMR90~1\AppData\Local\Temp\ccLNaGfc.s:734    .text.adc_channel_length_config:00000000000000bc .L0 
C:\Users\CYMR90~1\AppData\Local\Temp\ccLNaGfc.s:739    .text.adc_channel_length_config:00000000000000c8 .L0 
C:\Users\CYMR90~1\AppData\Local\Temp\ccLNaGfc.s:742    .text.adc_channel_length_config:00000000000000ca .L0 
C:\Users\CYMR90~1\AppData\Local\Temp\ccLNaGfc.s:746    .text.adc_channel_length_config:00000000000000ce .L0 
C:\Users\CYMR90~1\AppData\Local\Temp\ccLNaGfc.s:750    .text.adc_channel_length_config:00000000000000d0 .L0 
C:\Users\CYMR90~1\AppData\Local\Temp\ccLNaGfc.s:752    .text.adc_channel_length_config:00000000000000d4 .L0 
C:\Users\CYMR90~1\AppData\Local\Temp\ccLNaGfc.s:753    .text.adc_channel_length_config:00000000000000d4 .L0 
C:\Users\CYMR90~1\AppData\Local\Temp\ccLNaGfc.s:755    .text.adc_channel_length_config:00000000000000d6 .L0 
C:\Users\CYMR90~1\AppData\Local\Temp\ccLNaGfc.s:757    .text.adc_channel_length_config:00000000000000d8 .L0 
C:\Users\CYMR90~1\AppData\Local\Temp\ccLNaGfc.s:764    .text.adc_routine_channel_config:0000000000000000 adc_routine_channel_config
C:\Users\CYMR90~1\AppData\Local\Temp\ccLNaGfc.s:767    .text.adc_routine_channel_config:0000000000000000 .L0 
C:\Users\CYMR90~1\AppData\Local\Temp\ccLNaGfc.s:768    .text.adc_routine_channel_config:0000000000000000 .L0 
C:\Users\CYMR90~1\AppData\Local\Temp\ccLNaGfc.s:769    .text.adc_routine_channel_config:0000000000000002 .L0 
C:\Users\CYMR90~1\AppData\Local\Temp\ccLNaGfc.s:771    .text.adc_routine_channel_config:0000000000000004 .L0 
C:\Users\CYMR90~1\AppData\Local\Temp\ccLNaGfc.s:773    .text.adc_routine_channel_config:0000000000000006 .L0 
C:\Users\CYMR90~1\AppData\Local\Temp\ccLNaGfc.s:781    .text.adc_routine_channel_config:0000000000000018 .L0 
C:\Users\CYMR90~1\AppData\Local\Temp\ccLNaGfc.s:785    .text.adc_routine_channel_config:0000000000000022 .L0 
C:\Users\CYMR90~1\AppData\Local\Temp\ccLNaGfc.s:788    .text.adc_routine_channel_config:000000000000002a .L0 
C:\Users\CYMR90~1\AppData\Local\Temp\ccLNaGfc.s:791    .text.adc_routine_channel_config:0000000000000030 .L0 
C:\Users\CYMR90~1\AppData\Local\Temp\ccLNaGfc.s:796    .text.adc_routine_channel_config:000000000000003a .L0 
C:\Users\CYMR90~1\AppData\Local\Temp\ccLNaGfc.s:799    .text.adc_routine_channel_config:0000000000000040 .L0 
C:\Users\CYMR90~1\AppData\Local\Temp\ccLNaGfc.s:801    .text.adc_routine_channel_config:0000000000000044 .L0 
C:\Users\CYMR90~1\AppData\Local\Temp\ccLNaGfc.s:805    .text.adc_routine_channel_config:000000000000004e .L0 
C:\Users\CYMR90~1\AppData\Local\Temp\ccLNaGfc.s:807    .text.adc_routine_channel_config:0000000000000052 .L0 
C:\Users\CYMR90~1\AppData\Local\Temp\ccLNaGfc.s:812    .text.adc_routine_channel_config:000000000000005c .L0 
C:\Users\CYMR90~1\AppData\Local\Temp\ccLNaGfc.s:814    .text.adc_routine_channel_config:0000000000000060 .L0 
C:\Users\CYMR90~1\AppData\Local\Temp\ccLNaGfc.s:818    .text.adc_routine_channel_config:000000000000006a .L0 
C:\Users\CYMR90~1\AppData\Local\Temp\ccLNaGfc.s:821    .text.adc_routine_channel_config:0000000000000072 .L0 
C:\Users\CYMR90~1\AppData\Local\Temp\ccLNaGfc.s:826    .text.adc_routine_channel_config:000000000000007a .L0 
C:\Users\CYMR90~1\AppData\Local\Temp\ccLNaGfc.s:830    .text.adc_routine_channel_config:0000000000000084 .L0 
C:\Users\CYMR90~1\AppData\Local\Temp\ccLNaGfc.s:833    .text.adc_routine_channel_config:000000000000008c .L0 
C:\Users\CYMR90~1\AppData\Local\Temp\ccLNaGfc.s:836    .text.adc_routine_channel_config:0000000000000092 .L0 
C:\Users\CYMR90~1\AppData\Local\Temp\ccLNaGfc.s:839    .text.adc_routine_channel_config:000000000000009a .L0 
C:\Users\CYMR90~1\AppData\Local\Temp\ccLNaGfc.s:843    .text.adc_routine_channel_config:00000000000000a0 .L0 
C:\Users\CYMR90~1\AppData\Local\Temp\ccLNaGfc.s:846    .text.adc_routine_channel_config:00000000000000a6 .L0 
C:\Users\CYMR90~1\AppData\Local\Temp\ccLNaGfc.s:848    .text.adc_routine_channel_config:00000000000000aa .L0 
C:\Users\CYMR90~1\AppData\Local\Temp\ccLNaGfc.s:852    .text.adc_routine_channel_config:00000000000000b4 .L0 
C:\Users\CYMR90~1\AppData\Local\Temp\ccLNaGfc.s:854    .text.adc_routine_channel_config:00000000000000b8 .L0 
C:\Users\CYMR90~1\AppData\Local\Temp\ccLNaGfc.s:857    .text.adc_routine_channel_config:00000000000000c0 .L0 
C:\Users\CYMR90~1\AppData\Local\Temp\ccLNaGfc.s:861    .text.adc_routine_channel_config:00000000000000c6 .L0 
C:\Users\CYMR90~1\AppData\Local\Temp\ccLNaGfc.s:863    .text.adc_routine_channel_config:00000000000000ca .L0 
C:\Users\CYMR90~1\AppData\Local\Temp\ccLNaGfc.s:867    .text.adc_routine_channel_config:00000000000000d4 .L0 
C:\Users\CYMR90~1\AppData\Local\Temp\ccLNaGfc.s:870    .text.adc_routine_channel_config:00000000000000dc .L0 
C:\Users\CYMR90~1\AppData\Local\Temp\ccLNaGfc.s:874    .text.adc_routine_channel_config:00000000000000e2 .L0 
C:\Users\CYMR90~1\AppData\Local\Temp\ccLNaGfc.s:878    .text.adc_routine_channel_config:00000000000000ec .L0 
C:\Users\CYMR90~1\AppData\Local\Temp\ccLNaGfc.s:881    .text.adc_routine_channel_config:00000000000000f2 .L0 
C:\Users\CYMR90~1\AppData\Local\Temp\ccLNaGfc.s:884    .text.adc_routine_channel_config:00000000000000f8 .L0 
C:\Users\CYMR90~1\AppData\Local\Temp\ccLNaGfc.s:887    .text.adc_routine_channel_config:00000000000000fe .L0 
C:\Users\CYMR90~1\AppData\Local\Temp\ccLNaGfc.s:890    .text.adc_routine_channel_config:0000000000000104 .L0 
C:\Users\CYMR90~1\AppData\Local\Temp\ccLNaGfc.s:892    .text.adc_routine_channel_config:0000000000000108 .L0 
C:\Users\CYMR90~1\AppData\Local\Temp\ccLNaGfc.s:896    .text.adc_routine_channel_config:0000000000000112 .L0 
C:\Users\CYMR90~1\AppData\Local\Temp\ccLNaGfc.s:899    .text.adc_routine_channel_config:0000000000000118 .L0 
C:\Users\CYMR90~1\AppData\Local\Temp\ccLNaGfc.s:902    .text.adc_routine_channel_config:0000000000000120 .L0 
C:\Users\CYMR90~1\AppData\Local\Temp\ccLNaGfc.s:906    .text.adc_routine_channel_config:000000000000012a .L0 
C:\Users\CYMR90~1\AppData\Local\Temp\ccLNaGfc.s:909    .text.adc_routine_channel_config:0000000000000130 .L0 
C:\Users\CYMR90~1\AppData\Local\Temp\ccLNaGfc.s:912    .text.adc_routine_channel_config:0000000000000136 .L0 
C:\Users\CYMR90~1\AppData\Local\Temp\ccLNaGfc.s:915    .text.adc_routine_channel_config:0000000000000138 .L0 
C:\Users\CYMR90~1\AppData\Local\Temp\ccLNaGfc.s:919    .text.adc_routine_channel_config:0000000000000142 .L0 
C:\Users\CYMR90~1\AppData\Local\Temp\ccLNaGfc.s:922    .text.adc_routine_channel_config:0000000000000148 .L0 
C:\Users\CYMR90~1\AppData\Local\Temp\ccLNaGfc.s:925    .text.adc_routine_channel_config:000000000000014e .L0 
C:\Users\CYMR90~1\AppData\Local\Temp\ccLNaGfc.s:928    .text.adc_routine_channel_config:0000000000000154 .L0 
C:\Users\CYMR90~1\AppData\Local\Temp\ccLNaGfc.s:930    .text.adc_routine_channel_config:0000000000000156 .L0 
C:\Users\CYMR90~1\AppData\Local\Temp\ccLNaGfc.s:933    .text.adc_routine_channel_config:000000000000015c .L0 
C:\Users\CYMR90~1\AppData\Local\Temp\ccLNaGfc.s:935    .text.adc_routine_channel_config:0000000000000160 .L0 
C:\Users\CYMR90~1\AppData\Local\Temp\ccLNaGfc.s:939    .text.adc_routine_channel_config:000000000000016a .L0 
C:\Users\CYMR90~1\AppData\Local\Temp\ccLNaGfc.s:942    .text.adc_routine_channel_config:0000000000000170 .L0 
C:\Users\CYMR90~1\AppData\Local\Temp\ccLNaGfc.s:944    .text.adc_routine_channel_config:0000000000000172 .L0 
C:\Users\CYMR90~1\AppData\Local\Temp\ccLNaGfc.s:947    .text.adc_routine_channel_config:000000000000017a .L0 
C:\Users\CYMR90~1\AppData\Local\Temp\ccLNaGfc.s:951    .text.adc_routine_channel_config:0000000000000184 .L0 
C:\Users\CYMR90~1\AppData\Local\Temp\ccLNaGfc.s:954    .text.adc_routine_channel_config:000000000000018a .L0 
C:\Users\CYMR90~1\AppData\Local\Temp\ccLNaGfc.s:958    .text.adc_routine_channel_config:0000000000000190 .L0 
C:\Users\CYMR90~1\AppData\Local\Temp\ccLNaGfc.s:960    .text.adc_routine_channel_config:0000000000000194 .L0 
C:\Users\CYMR90~1\AppData\Local\Temp\ccLNaGfc.s:961    .text.adc_routine_channel_config:0000000000000194 .L0 
C:\Users\CYMR90~1\AppData\Local\Temp\ccLNaGfc.s:963    .text.adc_routine_channel_config:0000000000000196 .L0 
C:\Users\CYMR90~1\AppData\Local\Temp\ccLNaGfc.s:965    .text.adc_routine_channel_config:0000000000000198 .L0 
C:\Users\CYMR90~1\AppData\Local\Temp\ccLNaGfc.s:972    .text.adc_inserted_channel_config:0000000000000000 adc_inserted_channel_config
C:\Users\CYMR90~1\AppData\Local\Temp\ccLNaGfc.s:975    .text.adc_inserted_channel_config:0000000000000000 .L0 
C:\Users\CYMR90~1\AppData\Local\Temp\ccLNaGfc.s:976    .text.adc_inserted_channel_config:0000000000000000 .L0 
C:\Users\CYMR90~1\AppData\Local\Temp\ccLNaGfc.s:977    .text.adc_inserted_channel_config:0000000000000002 .L0 
C:\Users\CYMR90~1\AppData\Local\Temp\ccLNaGfc.s:979    .text.adc_inserted_channel_config:0000000000000004 .L0 
C:\Users\CYMR90~1\AppData\Local\Temp\ccLNaGfc.s:981    .text.adc_inserted_channel_config:0000000000000006 .L0 
C:\Users\CYMR90~1\AppData\Local\Temp\ccLNaGfc.s:989    .text.adc_inserted_channel_config:0000000000000018 .L0 
C:\Users\CYMR90~1\AppData\Local\Temp\ccLNaGfc.s:994    .text.adc_inserted_channel_config:0000000000000024 .L0 
C:\Users\CYMR90~1\AppData\Local\Temp\ccLNaGfc.s:996    .text.adc_inserted_channel_config:0000000000000028 .L0 
C:\Users\CYMR90~1\AppData\Local\Temp\ccLNaGfc.s:999    .text.adc_inserted_channel_config:000000000000002e .L0 
C:\Users\CYMR90~1\AppData\Local\Temp\ccLNaGfc.s:1003   .text.adc_inserted_channel_config:0000000000000038 .L0 
C:\Users\CYMR90~1\AppData\Local\Temp\ccLNaGfc.s:1006   .text.adc_inserted_channel_config:0000000000000040 .L0 
C:\Users\CYMR90~1\AppData\Local\Temp\ccLNaGfc.s:1009   .text.adc_inserted_channel_config:0000000000000046 .L0 
C:\Users\CYMR90~1\AppData\Local\Temp\ccLNaGfc.s:1013   .text.adc_inserted_channel_config:0000000000000050 .L0 
C:\Users\CYMR90~1\AppData\Local\Temp\ccLNaGfc.s:1018   .text.adc_inserted_channel_config:000000000000005a .L0 
C:\Users\CYMR90~1\AppData\Local\Temp\ccLNaGfc.s:1020   .text.adc_inserted_channel_config:000000000000005c .L0 
C:\Users\CYMR90~1\AppData\Local\Temp\ccLNaGfc.s:1023   .text.adc_inserted_channel_config:0000000000000062 .L0 
C:\Users\CYMR90~1\AppData\Local\Temp\ccLNaGfc.s:1025   .text.adc_inserted_channel_config:0000000000000066 .L0 
C:\Users\CYMR90~1\AppData\Local\Temp\ccLNaGfc.s:1029   .text.adc_inserted_channel_config:0000000000000070 .L0 
C:\Users\CYMR90~1\AppData\Local\Temp\ccLNaGfc.s:1031   .text.adc_inserted_channel_config:0000000000000074 .L0 
C:\Users\CYMR90~1\AppData\Local\Temp\ccLNaGfc.s:1035   .text.adc_inserted_channel_config:000000000000007e .L0 
C:\Users\CYMR90~1\AppData\Local\Temp\ccLNaGfc.s:1040   .text.adc_inserted_channel_config:0000000000000088 .L0 
C:\Users\CYMR90~1\AppData\Local\Temp\ccLNaGfc.s:1042   .text.adc_inserted_channel_config:000000000000008a .L0 
C:\Users\CYMR90~1\AppData\Local\Temp\ccLNaGfc.s:1044   .text.adc_inserted_channel_config:000000000000008e .L0 
C:\Users\CYMR90~1\AppData\Local\Temp\ccLNaGfc.s:1048   .text.adc_inserted_channel_config:0000000000000098 .L0 
C:\Users\CYMR90~1\AppData\Local\Temp\ccLNaGfc.s:1051   .text.adc_inserted_channel_config:00000000000000a0 .L0 
C:\Users\CYMR90~1\AppData\Local\Temp\ccLNaGfc.s:1055   .text.adc_inserted_channel_config:00000000000000a6 .L0 
C:\Users\CYMR90~1\AppData\Local\Temp\ccLNaGfc.s:1059   .text.adc_inserted_channel_config:00000000000000b0 .L0 
C:\Users\CYMR90~1\AppData\Local\Temp\ccLNaGfc.s:1062   .text.adc_inserted_channel_config:00000000000000b6 .L0 
C:\Users\CYMR90~1\AppData\Local\Temp\ccLNaGfc.s:1065   .text.adc_inserted_channel_config:00000000000000bc .L0 
C:\Users\CYMR90~1\AppData\Local\Temp\ccLNaGfc.s:1068   .text.adc_inserted_channel_config:00000000000000c2 .L0 
C:\Users\CYMR90~1\AppData\Local\Temp\ccLNaGfc.s:1071   .text.adc_inserted_channel_config:00000000000000c8 .L0 
C:\Users\CYMR90~1\AppData\Local\Temp\ccLNaGfc.s:1073   .text.adc_inserted_channel_config:00000000000000cc .L0 
C:\Users\CYMR90~1\AppData\Local\Temp\ccLNaGfc.s:1077   .text.adc_inserted_channel_config:00000000000000d6 .L0 
C:\Users\CYMR90~1\AppData\Local\Temp\ccLNaGfc.s:1080   .text.adc_inserted_channel_config:00000000000000dc .L0 
C:\Users\CYMR90~1\AppData\Local\Temp\ccLNaGfc.s:1083   .text.adc_inserted_channel_config:00000000000000e4 .L0 
C:\Users\CYMR90~1\AppData\Local\Temp\ccLNaGfc.s:1087   .text.adc_inserted_channel_config:00000000000000ee .L0 
C:\Users\CYMR90~1\AppData\Local\Temp\ccLNaGfc.s:1090   .text.adc_inserted_channel_config:00000000000000f4 .L0 
C:\Users\CYMR90~1\AppData\Local\Temp\ccLNaGfc.s:1093   .text.adc_inserted_channel_config:00000000000000fa .L0 
C:\Users\CYMR90~1\AppData\Local\Temp\ccLNaGfc.s:1096   .text.adc_inserted_channel_config:00000000000000fc .L0 
C:\Users\CYMR90~1\AppData\Local\Temp\ccLNaGfc.s:1100   .text.adc_inserted_channel_config:0000000000000106 .L0 
C:\Users\CYMR90~1\AppData\Local\Temp\ccLNaGfc.s:1103   .text.adc_inserted_channel_config:000000000000010c .L0 
C:\Users\CYMR90~1\AppData\Local\Temp\ccLNaGfc.s:1106   .text.adc_inserted_channel_config:0000000000000112 .L0 
C:\Users\CYMR90~1\AppData\Local\Temp\ccLNaGfc.s:1109   .text.adc_inserted_channel_config:0000000000000118 .L0 
C:\Users\CYMR90~1\AppData\Local\Temp\ccLNaGfc.s:1111   .text.adc_inserted_channel_config:000000000000011a .L0 
C:\Users\CYMR90~1\AppData\Local\Temp\ccLNaGfc.s:1114   .text.adc_inserted_channel_config:0000000000000120 .L0 
C:\Users\CYMR90~1\AppData\Local\Temp\ccLNaGfc.s:1116   .text.adc_inserted_channel_config:0000000000000124 .L0 
C:\Users\CYMR90~1\AppData\Local\Temp\ccLNaGfc.s:1120   .text.adc_inserted_channel_config:000000000000012e .L0 
C:\Users\CYMR90~1\AppData\Local\Temp\ccLNaGfc.s:1123   .text.adc_inserted_channel_config:0000000000000134 .L0 
C:\Users\CYMR90~1\AppData\Local\Temp\ccLNaGfc.s:1125   .text.adc_inserted_channel_config:0000000000000136 .L0 
C:\Users\CYMR90~1\AppData\Local\Temp\ccLNaGfc.s:1128   .text.adc_inserted_channel_config:000000000000013e .L0 
C:\Users\CYMR90~1\AppData\Local\Temp\ccLNaGfc.s:1132   .text.adc_inserted_channel_config:0000000000000148 .L0 
C:\Users\CYMR90~1\AppData\Local\Temp\ccLNaGfc.s:1135   .text.adc_inserted_channel_config:000000000000014e .L0 
C:\Users\CYMR90~1\AppData\Local\Temp\ccLNaGfc.s:1139   .text.adc_inserted_channel_config:0000000000000154 .L0 
C:\Users\CYMR90~1\AppData\Local\Temp\ccLNaGfc.s:1141   .text.adc_inserted_channel_config:0000000000000158 .L0 
C:\Users\CYMR90~1\AppData\Local\Temp\ccLNaGfc.s:1142   .text.adc_inserted_channel_config:0000000000000158 .L0 
C:\Users\CYMR90~1\AppData\Local\Temp\ccLNaGfc.s:1144   .text.adc_inserted_channel_config:000000000000015a .L0 
C:\Users\CYMR90~1\AppData\Local\Temp\ccLNaGfc.s:1146   .text.adc_inserted_channel_config:000000000000015c .L0 
C:\Users\CYMR90~1\AppData\Local\Temp\ccLNaGfc.s:1153   .text.adc_inserted_channel_offset_config:0000000000000000 adc_inserted_channel_offset_config
C:\Users\CYMR90~1\AppData\Local\Temp\ccLNaGfc.s:1156   .text.adc_inserted_channel_offset_config:0000000000000000 .L0 
C:\Users\CYMR90~1\AppData\Local\Temp\ccLNaGfc.s:1157   .text.adc_inserted_channel_offset_config:0000000000000000 .L0 
C:\Users\CYMR90~1\AppData\Local\Temp\ccLNaGfc.s:1158   .text.adc_inserted_channel_offset_config:0000000000000002 .L0 
C:\Users\CYMR90~1\AppData\Local\Temp\ccLNaGfc.s:1160   .text.adc_inserted_channel_offset_config:0000000000000004 .L0 
C:\Users\CYMR90~1\AppData\Local\Temp\ccLNaGfc.s:1162   .text.adc_inserted_channel_offset_config:0000000000000006 .L0 
C:\Users\CYMR90~1\AppData\Local\Temp\ccLNaGfc.s:1169   .text.adc_inserted_channel_offset_config:0000000000000014 .L0 
C:\Users\CYMR90~1\AppData\Local\Temp\ccLNaGfc.s:1171   .text.adc_inserted_channel_offset_config:0000000000000018 .L0 
C:\Users\CYMR90~1\AppData\Local\Temp\ccLNaGfc.s:1176   .text.adc_inserted_channel_offset_config:0000000000000024 .L0 
C:\Users\CYMR90~1\AppData\Local\Temp\ccLNaGfc.s:1178   .text.adc_inserted_channel_offset_config:0000000000000028 .L0 
C:\Users\CYMR90~1\AppData\Local\Temp\ccLNaGfc.s:1181   .text.adc_inserted_channel_offset_config:000000000000002e .L0 
C:\Users\CYMR90~1\AppData\Local\Temp\ccLNaGfc.s:1183   .text.adc_inserted_channel_offset_config:0000000000000032 .L0 
C:\Users\CYMR90~1\AppData\Local\Temp\ccLNaGfc.s:1185   .text.adc_inserted_channel_offset_config:0000000000000036 .L0 
C:\Users\CYMR90~1\AppData\Local\Temp\ccLNaGfc.s:1187   .text.adc_inserted_channel_offset_config:000000000000003a .L0 
C:\Users\CYMR90~1\AppData\Local\Temp\ccLNaGfc.s:1190   .text.adc_inserted_channel_offset_config:0000000000000040 .L0 
C:\Users\CYMR90~1\AppData\Local\Temp\ccLNaGfc.s:1194   .text.adc_inserted_channel_offset_config:000000000000004a .L0 
C:\Users\CYMR90~1\AppData\Local\Temp\ccLNaGfc.s:1198   .text.adc_inserted_channel_offset_config:0000000000000054 .L0 
C:\Users\CYMR90~1\AppData\Local\Temp\ccLNaGfc.s:1200   .text.adc_inserted_channel_offset_config:0000000000000058 .L0 
C:\Users\CYMR90~1\AppData\Local\Temp\ccLNaGfc.s:1206   .text.adc_inserted_channel_offset_config:0000000000000066 .L0 
C:\Users\CYMR90~1\AppData\Local\Temp\ccLNaGfc.s:1210   .text.adc_inserted_channel_offset_config:000000000000006c .L0 
C:\Users\CYMR90~1\AppData\Local\Temp\ccLNaGfc.s:1213   .text.adc_inserted_channel_offset_config:000000000000006e .L0 
C:\Users\CYMR90~1\AppData\Local\Temp\ccLNaGfc.s:1215   .text.adc_inserted_channel_offset_config:0000000000000072 .L0 
C:\Users\CYMR90~1\AppData\Local\Temp\ccLNaGfc.s:1216   .text.adc_inserted_channel_offset_config:0000000000000072 .L0 
C:\Users\CYMR90~1\AppData\Local\Temp\ccLNaGfc.s:1218   .text.adc_inserted_channel_offset_config:0000000000000074 .L0 
C:\Users\CYMR90~1\AppData\Local\Temp\ccLNaGfc.s:1220   .text.adc_inserted_channel_offset_config:0000000000000076 .L0 
C:\Users\CYMR90~1\AppData\Local\Temp\ccLNaGfc.s:1227   .text.adc_external_trigger_config:0000000000000000 adc_external_trigger_config
C:\Users\CYMR90~1\AppData\Local\Temp\ccLNaGfc.s:1230   .text.adc_external_trigger_config:0000000000000000 .L0 
C:\Users\CYMR90~1\AppData\Local\Temp\ccLNaGfc.s:1231   .text.adc_external_trigger_config:0000000000000000 .L0 
C:\Users\CYMR90~1\AppData\Local\Temp\ccLNaGfc.s:1232   .text.adc_external_trigger_config:0000000000000002 .L0 
C:\Users\CYMR90~1\AppData\Local\Temp\ccLNaGfc.s:1234   .text.adc_external_trigger_config:0000000000000004 .L0 
C:\Users\CYMR90~1\AppData\Local\Temp\ccLNaGfc.s:1236   .text.adc_external_trigger_config:0000000000000006 .L0 
C:\Users\CYMR90~1\AppData\Local\Temp\ccLNaGfc.s:1241   .text.adc_external_trigger_config:0000000000000010 .L0 
C:\Users\CYMR90~1\AppData\Local\Temp\ccLNaGfc.s:1247   .text.adc_external_trigger_config:0000000000000020 .L0 
C:\Users\CYMR90~1\AppData\Local\Temp\ccLNaGfc.s:1250   .text.adc_external_trigger_config:0000000000000022 .L0 
C:\Users\CYMR90~1\AppData\Local\Temp\ccLNaGfc.s:1260   .text.adc_external_trigger_config:000000000000003a .L0 
C:\Users\CYMR90~1\AppData\Local\Temp\ccLNaGfc.s:1264   .text.adc_external_trigger_config:0000000000000042 .L0 
C:\Users\CYMR90~1\AppData\Local\Temp\ccLNaGfc.s:1267   .text.adc_external_trigger_config:000000000000004a .L0 
C:\Users\CYMR90~1\AppData\Local\Temp\ccLNaGfc.s:1272   .text.adc_external_trigger_config:0000000000000054 .L0 
C:\Users\CYMR90~1\AppData\Local\Temp\ccLNaGfc.s:1275   .text.adc_external_trigger_config:0000000000000056 .L0 
C:\Users\CYMR90~1\AppData\Local\Temp\ccLNaGfc.s:1285   .text.adc_external_trigger_config:000000000000006e .L0 
C:\Users\CYMR90~1\AppData\Local\Temp\ccLNaGfc.s:1289   .text.adc_external_trigger_config:0000000000000076 .L0 
C:\Users\CYMR90~1\AppData\Local\Temp\ccLNaGfc.s:1292   .text.adc_external_trigger_config:000000000000007e .L0 
C:\Users\CYMR90~1\AppData\Local\Temp\ccLNaGfc.s:1297   .text.adc_external_trigger_config:0000000000000088 .L0 
C:\Users\CYMR90~1\AppData\Local\Temp\ccLNaGfc.s:1300   .text.adc_external_trigger_config:000000000000008a .L0 
C:\Users\CYMR90~1\AppData\Local\Temp\ccLNaGfc.s:1302   .text.adc_external_trigger_config:000000000000008e .L0 
C:\Users\CYMR90~1\AppData\Local\Temp\ccLNaGfc.s:1303   .text.adc_external_trigger_config:000000000000008e .L0 
C:\Users\CYMR90~1\AppData\Local\Temp\ccLNaGfc.s:1305   .text.adc_external_trigger_config:0000000000000090 .L0 
C:\Users\CYMR90~1\AppData\Local\Temp\ccLNaGfc.s:1307   .text.adc_external_trigger_config:0000000000000092 .L0 
C:\Users\CYMR90~1\AppData\Local\Temp\ccLNaGfc.s:1314   .text.adc_external_trigger_source_config:0000000000000000 adc_external_trigger_source_config
C:\Users\CYMR90~1\AppData\Local\Temp\ccLNaGfc.s:1317   .text.adc_external_trigger_source_config:0000000000000000 .L0 
C:\Users\CYMR90~1\AppData\Local\Temp\ccLNaGfc.s:1318   .text.adc_external_trigger_source_config:0000000000000000 .L0 
C:\Users\CYMR90~1\AppData\Local\Temp\ccLNaGfc.s:1319   .text.adc_external_trigger_source_config:0000000000000002 .L0 
C:\Users\CYMR90~1\AppData\Local\Temp\ccLNaGfc.s:1321   .text.adc_external_trigger_source_config:0000000000000004 .L0 
C:\Users\CYMR90~1\AppData\Local\Temp\ccLNaGfc.s:1323   .text.adc_external_trigger_source_config:0000000000000006 .L0 
C:\Users\CYMR90~1\AppData\Local\Temp\ccLNaGfc.s:1328   .text.adc_external_trigger_source_config:0000000000000010 .L0 
C:\Users\CYMR90~1\AppData\Local\Temp\ccLNaGfc.s:1334   .text.adc_external_trigger_source_config:0000000000000020 .L0 
C:\Users\CYMR90~1\AppData\Local\Temp\ccLNaGfc.s:1337   .text.adc_external_trigger_source_config:0000000000000022 .L0 
C:\Users\CYMR90~1\AppData\Local\Temp\ccLNaGfc.s:1347   .text.adc_external_trigger_source_config:000000000000003a .L0 
C:\Users\CYMR90~1\AppData\Local\Temp\ccLNaGfc.s:1356   .text.adc_external_trigger_source_config:0000000000000050 .L0 
C:\Users\CYMR90~1\AppData\Local\Temp\ccLNaGfc.s:1359   .text.adc_external_trigger_source_config:0000000000000052 .L0 
C:\Users\CYMR90~1\AppData\Local\Temp\ccLNaGfc.s:1369   .text.adc_external_trigger_source_config:000000000000006a .L0 
C:\Users\CYMR90~1\AppData\Local\Temp\ccLNaGfc.s:1378   .text.adc_external_trigger_source_config:0000000000000080 .L0 
C:\Users\CYMR90~1\AppData\Local\Temp\ccLNaGfc.s:1381   .text.adc_external_trigger_source_config:0000000000000082 .L0 
C:\Users\CYMR90~1\AppData\Local\Temp\ccLNaGfc.s:1383   .text.adc_external_trigger_source_config:0000000000000086 .L0 
C:\Users\CYMR90~1\AppData\Local\Temp\ccLNaGfc.s:1384   .text.adc_external_trigger_source_config:0000000000000086 .L0 
C:\Users\CYMR90~1\AppData\Local\Temp\ccLNaGfc.s:1386   .text.adc_external_trigger_source_config:0000000000000088 .L0 
C:\Users\CYMR90~1\AppData\Local\Temp\ccLNaGfc.s:1388   .text.adc_external_trigger_source_config:000000000000008a .L0 
C:\Users\CYMR90~1\AppData\Local\Temp\ccLNaGfc.s:1395   .text.adc_software_trigger_enable:0000000000000000 adc_software_trigger_enable
C:\Users\CYMR90~1\AppData\Local\Temp\ccLNaGfc.s:1398   .text.adc_software_trigger_enable:0000000000000000 .L0 
C:\Users\CYMR90~1\AppData\Local\Temp\ccLNaGfc.s:1399   .text.adc_software_trigger_enable:0000000000000000 .L0 
C:\Users\CYMR90~1\AppData\Local\Temp\ccLNaGfc.s:1400   .text.adc_software_trigger_enable:0000000000000002 .L0 
C:\Users\CYMR90~1\AppData\Local\Temp\ccLNaGfc.s:1402   .text.adc_software_trigger_enable:0000000000000004 .L0 
C:\Users\CYMR90~1\AppData\Local\Temp\ccLNaGfc.s:1404   .text.adc_software_trigger_enable:0000000000000006 .L0 
C:\Users\CYMR90~1\AppData\Local\Temp\ccLNaGfc.s:1408   .text.adc_software_trigger_enable:000000000000000c .L0 
C:\Users\CYMR90~1\AppData\Local\Temp\ccLNaGfc.s:1411   .text.adc_software_trigger_enable:0000000000000012 .L0 
C:\Users\CYMR90~1\AppData\Local\Temp\ccLNaGfc.s:1413   .text.adc_software_trigger_enable:0000000000000014 .L0 
C:\Users\CYMR90~1\AppData\Local\Temp\ccLNaGfc.s:1423   .text.adc_software_trigger_enable:000000000000002a .L0 
C:\Users\CYMR90~1\AppData\Local\Temp\ccLNaGfc.s:1426   .text.adc_software_trigger_enable:0000000000000030 .L0 
C:\Users\CYMR90~1\AppData\Local\Temp\ccLNaGfc.s:1428   .text.adc_software_trigger_enable:0000000000000032 .L0 
C:\Users\CYMR90~1\AppData\Local\Temp\ccLNaGfc.s:1438   .text.adc_software_trigger_enable:0000000000000048 .L0 
C:\Users\CYMR90~1\AppData\Local\Temp\ccLNaGfc.s:1440   .text.adc_software_trigger_enable:000000000000004c .L0 
C:\Users\CYMR90~1\AppData\Local\Temp\ccLNaGfc.s:1441   .text.adc_software_trigger_enable:000000000000004c .L0 
C:\Users\CYMR90~1\AppData\Local\Temp\ccLNaGfc.s:1443   .text.adc_software_trigger_enable:000000000000004e .L0 
C:\Users\CYMR90~1\AppData\Local\Temp\ccLNaGfc.s:1445   .text.adc_software_trigger_enable:0000000000000050 .L0 
C:\Users\CYMR90~1\AppData\Local\Temp\ccLNaGfc.s:1452   .text.adc_end_of_conversion_config:0000000000000000 adc_end_of_conversion_config
C:\Users\CYMR90~1\AppData\Local\Temp\ccLNaGfc.s:1455   .text.adc_end_of_conversion_config:0000000000000000 .L0 
C:\Users\CYMR90~1\AppData\Local\Temp\ccLNaGfc.s:1456   .text.adc_end_of_conversion_config:0000000000000000 .L0 
C:\Users\CYMR90~1\AppData\Local\Temp\ccLNaGfc.s:1457   .text.adc_end_of_conversion_config:0000000000000002 .L0 
C:\Users\CYMR90~1\AppData\Local\Temp\ccLNaGfc.s:1459   .text.adc_end_of_conversion_config:0000000000000004 .L0 
C:\Users\CYMR90~1\AppData\Local\Temp\ccLNaGfc.s:1461   .text.adc_end_of_conversion_config:0000000000000006 .L0 
C:\Users\CYMR90~1\AppData\Local\Temp\ccLNaGfc.s:1465   .text.adc_end_of_conversion_config:000000000000000c .L0 
C:\Users\CYMR90~1\AppData\Local\Temp\ccLNaGfc.s:1470   .text.adc_end_of_conversion_config:0000000000000018 .L0 
C:\Users\CYMR90~1\AppData\Local\Temp\ccLNaGfc.s:1473   .text.adc_end_of_conversion_config:000000000000001a .L0 
C:\Users\CYMR90~1\AppData\Local\Temp\ccLNaGfc.s:1481   .text.adc_end_of_conversion_config:000000000000002e .L0 
C:\Users\CYMR90~1\AppData\Local\Temp\ccLNaGfc.s:1484   .text.adc_end_of_conversion_config:0000000000000030 .L0 
C:\Users\CYMR90~1\AppData\Local\Temp\ccLNaGfc.s:1492   .text.adc_end_of_conversion_config:0000000000000044 .L0 
C:\Users\CYMR90~1\AppData\Local\Temp\ccLNaGfc.s:1495   .text.adc_end_of_conversion_config:0000000000000046 .L0 
C:\Users\CYMR90~1\AppData\Local\Temp\ccLNaGfc.s:1497   .text.adc_end_of_conversion_config:000000000000004a .L0 
C:\Users\CYMR90~1\AppData\Local\Temp\ccLNaGfc.s:1498   .text.adc_end_of_conversion_config:000000000000004a .L0 
C:\Users\CYMR90~1\AppData\Local\Temp\ccLNaGfc.s:1500   .text.adc_end_of_conversion_config:000000000000004c .L0 
C:\Users\CYMR90~1\AppData\Local\Temp\ccLNaGfc.s:1502   .text.adc_end_of_conversion_config:000000000000004e .L0 
C:\Users\CYMR90~1\AppData\Local\Temp\ccLNaGfc.s:1509   .text.adc_resolution_config:0000000000000000 adc_resolution_config
C:\Users\CYMR90~1\AppData\Local\Temp\ccLNaGfc.s:1512   .text.adc_resolution_config:0000000000000000 .L0 
C:\Users\CYMR90~1\AppData\Local\Temp\ccLNaGfc.s:1513   .text.adc_resolution_config:0000000000000000 .L0 
C:\Users\CYMR90~1\AppData\Local\Temp\ccLNaGfc.s:1514   .text.adc_resolution_config:0000000000000002 .L0 
C:\Users\CYMR90~1\AppData\Local\Temp\ccLNaGfc.s:1516   .text.adc_resolution_config:0000000000000004 .L0 
C:\Users\CYMR90~1\AppData\Local\Temp\ccLNaGfc.s:1518   .text.adc_resolution_config:0000000000000006 .L0 
C:\Users\CYMR90~1\AppData\Local\Temp\ccLNaGfc.s:1521   .text.adc_resolution_config:000000000000000a .L0 
C:\Users\CYMR90~1\AppData\Local\Temp\ccLNaGfc.s:1531   .text.adc_resolution_config:0000000000000022 .L0 
C:\Users\CYMR90~1\AppData\Local\Temp\ccLNaGfc.s:1540   .text.adc_resolution_config:0000000000000038 .L0 
C:\Users\CYMR90~1\AppData\Local\Temp\ccLNaGfc.s:1542   .text.adc_resolution_config:000000000000003c .L0 
C:\Users\CYMR90~1\AppData\Local\Temp\ccLNaGfc.s:1543   .text.adc_resolution_config:000000000000003c .L0 
C:\Users\CYMR90~1\AppData\Local\Temp\ccLNaGfc.s:1545   .text.adc_resolution_config:000000000000003e .L0 
C:\Users\CYMR90~1\AppData\Local\Temp\ccLNaGfc.s:1547   .text.adc_resolution_config:0000000000000040 .L0 
C:\Users\CYMR90~1\AppData\Local\Temp\ccLNaGfc.s:1554   .text.adc_routine_data_read:0000000000000000 adc_routine_data_read
C:\Users\CYMR90~1\AppData\Local\Temp\ccLNaGfc.s:1557   .text.adc_routine_data_read:0000000000000000 .L0 
C:\Users\CYMR90~1\AppData\Local\Temp\ccLNaGfc.s:1558   .text.adc_routine_data_read:0000000000000000 .L0 
C:\Users\CYMR90~1\AppData\Local\Temp\ccLNaGfc.s:1559   .text.adc_routine_data_read:0000000000000002 .L0 
C:\Users\CYMR90~1\AppData\Local\Temp\ccLNaGfc.s:1561   .text.adc_routine_data_read:0000000000000004 .L0 
C:\Users\CYMR90~1\AppData\Local\Temp\ccLNaGfc.s:1563   .text.adc_routine_data_read:0000000000000006 .L0 
C:\Users\CYMR90~1\AppData\Local\Temp\ccLNaGfc.s:1565   .text.adc_routine_data_read:0000000000000006 .L0 
C:\Users\CYMR90~1\AppData\Local\Temp\ccLNaGfc.s:1569   .text.adc_routine_data_read:0000000000000010 .L0 
C:\Users\CYMR90~1\AppData\Local\Temp\ccLNaGfc.s:1572   .text.adc_routine_data_read:0000000000000014 .L0 
C:\Users\CYMR90~1\AppData\Local\Temp\ccLNaGfc.s:1574   .text.adc_routine_data_read:0000000000000018 .L0 
C:\Users\CYMR90~1\AppData\Local\Temp\ccLNaGfc.s:1575   .text.adc_routine_data_read:0000000000000018 .L0 
C:\Users\CYMR90~1\AppData\Local\Temp\ccLNaGfc.s:1577   .text.adc_routine_data_read:000000000000001a .L0 
C:\Users\CYMR90~1\AppData\Local\Temp\ccLNaGfc.s:1579   .text.adc_routine_data_read:000000000000001c .L0 
C:\Users\CYMR90~1\AppData\Local\Temp\ccLNaGfc.s:1586   .text.adc_inserted_data_read:0000000000000000 adc_inserted_data_read
C:\Users\CYMR90~1\AppData\Local\Temp\ccLNaGfc.s:1589   .text.adc_inserted_data_read:0000000000000000 .L0 
C:\Users\CYMR90~1\AppData\Local\Temp\ccLNaGfc.s:1590   .text.adc_inserted_data_read:0000000000000000 .L0 
C:\Users\CYMR90~1\AppData\Local\Temp\ccLNaGfc.s:1591   .text.adc_inserted_data_read:0000000000000002 .L0 
C:\Users\CYMR90~1\AppData\Local\Temp\ccLNaGfc.s:1593   .text.adc_inserted_data_read:0000000000000004 .L0 
C:\Users\CYMR90~1\AppData\Local\Temp\ccLNaGfc.s:1595   .text.adc_inserted_data_read:0000000000000006 .L0 
C:\Users\CYMR90~1\AppData\Local\Temp\ccLNaGfc.s:1599   .text.adc_inserted_data_read:000000000000000c .L0 
C:\Users\CYMR90~1\AppData\Local\Temp\ccLNaGfc.s:1614   .text.adc_inserted_data_read:0000000000000032 .L0 
C:\Users\CYMR90~1\AppData\Local\Temp\ccLNaGfc.s:1617   .text.adc_inserted_data_read:000000000000003a .L0 
C:\Users\CYMR90~1\AppData\Local\Temp\ccLNaGfc.s:1620   .text.adc_inserted_data_read:0000000000000040 .L0 
C:\Users\CYMR90~1\AppData\Local\Temp\ccLNaGfc.s:1623   .text.adc_inserted_data_read:0000000000000042 .L0 
C:\Users\CYMR90~1\AppData\Local\Temp\ccLNaGfc.s:1626   .text.adc_inserted_data_read:000000000000004a .L0 
C:\Users\CYMR90~1\AppData\Local\Temp\ccLNaGfc.s:1629   .text.adc_inserted_data_read:0000000000000050 .L0 
C:\Users\CYMR90~1\AppData\Local\Temp\ccLNaGfc.s:1632   .text.adc_inserted_data_read:0000000000000052 .L0 
C:\Users\CYMR90~1\AppData\Local\Temp\ccLNaGfc.s:1635   .text.adc_inserted_data_read:000000000000005a .L0 
C:\Users\CYMR90~1\AppData\Local\Temp\ccLNaGfc.s:1638   .text.adc_inserted_data_read:0000000000000060 .L0 
C:\Users\CYMR90~1\AppData\Local\Temp\ccLNaGfc.s:1641   .text.adc_inserted_data_read:0000000000000062 .L0 
C:\Users\CYMR90~1\AppData\Local\Temp\ccLNaGfc.s:1644   .text.adc_inserted_data_read:000000000000006a .L0 
C:\Users\CYMR90~1\AppData\Local\Temp\ccLNaGfc.s:1647   .text.adc_inserted_data_read:0000000000000070 .L0 
C:\Users\CYMR90~1\AppData\Local\Temp\ccLNaGfc.s:1650   .text.adc_inserted_data_read:0000000000000072 .L0 
C:\Users\CYMR90~1\AppData\Local\Temp\ccLNaGfc.s:1652   .text.adc_inserted_data_read:0000000000000076 .L0 
C:\Users\CYMR90~1\AppData\Local\Temp\ccLNaGfc.s:1655   .text.adc_inserted_data_read:0000000000000078 .L0 
C:\Users\CYMR90~1\AppData\Local\Temp\ccLNaGfc.s:1659   .text.adc_inserted_data_read:0000000000000080 .L0 
C:\Users\CYMR90~1\AppData\Local\Temp\ccLNaGfc.s:1661   .text.adc_inserted_data_read:0000000000000084 .L0 
C:\Users\CYMR90~1\AppData\Local\Temp\ccLNaGfc.s:1662   .text.adc_inserted_data_read:0000000000000084 .L0 
C:\Users\CYMR90~1\AppData\Local\Temp\ccLNaGfc.s:1664   .text.adc_inserted_data_read:0000000000000086 .L0 
C:\Users\CYMR90~1\AppData\Local\Temp\ccLNaGfc.s:1666   .text.adc_inserted_data_read:0000000000000088 .L0 
C:\Users\CYMR90~1\AppData\Local\Temp\ccLNaGfc.s:1673   .text.adc_watchdog_single_channel_enable:0000000000000000 adc_watchdog_single_channel_enable
C:\Users\CYMR90~1\AppData\Local\Temp\ccLNaGfc.s:1676   .text.adc_watchdog_single_channel_enable:0000000000000000 .L0 
C:\Users\CYMR90~1\AppData\Local\Temp\ccLNaGfc.s:1677   .text.adc_watchdog_single_channel_enable:0000000000000000 .L0 
C:\Users\CYMR90~1\AppData\Local\Temp\ccLNaGfc.s:1678   .text.adc_watchdog_single_channel_enable:0000000000000002 .L0 
C:\Users\CYMR90~1\AppData\Local\Temp\ccLNaGfc.s:1680   .text.adc_watchdog_single_channel_enable:0000000000000004 .L0 
C:\Users\CYMR90~1\AppData\Local\Temp\ccLNaGfc.s:1682   .text.adc_watchdog_single_channel_enable:0000000000000006 .L0 
C:\Users\CYMR90~1\AppData\Local\Temp\ccLNaGfc.s:1686   .text.adc_watchdog_single_channel_enable:000000000000000c .L0 
C:\Users\CYMR90~1\AppData\Local\Temp\ccLNaGfc.s:1696   .text.adc_watchdog_single_channel_enable:0000000000000026 .L0 
C:\Users\CYMR90~1\AppData\Local\Temp\ccLNaGfc.s:1700   .text.adc_watchdog_single_channel_enable:000000000000002e .L0 
C:\Users\CYMR90~1\AppData\Local\Temp\ccLNaGfc.s:1702   .text.adc_watchdog_single_channel_enable:0000000000000032 .L0 
C:\Users\CYMR90~1\AppData\Local\Temp\ccLNaGfc.s:1707   .text.adc_watchdog_single_channel_enable:000000000000003c .L0 
C:\Users\CYMR90~1\AppData\Local\Temp\ccLNaGfc.s:1717   .text.adc_watchdog_single_channel_enable:0000000000000056 .L0 
C:\Users\CYMR90~1\AppData\Local\Temp\ccLNaGfc.s:1719   .text.adc_watchdog_single_channel_enable:000000000000005a .L0 
C:\Users\CYMR90~1\AppData\Local\Temp\ccLNaGfc.s:1720   .text.adc_watchdog_single_channel_enable:000000000000005a .L0 
C:\Users\CYMR90~1\AppData\Local\Temp\ccLNaGfc.s:1722   .text.adc_watchdog_single_channel_enable:000000000000005c .L0 
C:\Users\CYMR90~1\AppData\Local\Temp\ccLNaGfc.s:1724   .text.adc_watchdog_single_channel_enable:000000000000005e .L0 
C:\Users\CYMR90~1\AppData\Local\Temp\ccLNaGfc.s:1731   .text.adc_watchdog_group_channel_enable:0000000000000000 adc_watchdog_group_channel_enable
C:\Users\CYMR90~1\AppData\Local\Temp\ccLNaGfc.s:1734   .text.adc_watchdog_group_channel_enable:0000000000000000 .L0 
C:\Users\CYMR90~1\AppData\Local\Temp\ccLNaGfc.s:1735   .text.adc_watchdog_group_channel_enable:0000000000000000 .L0 
C:\Users\CYMR90~1\AppData\Local\Temp\ccLNaGfc.s:1736   .text.adc_watchdog_group_channel_enable:0000000000000002 .L0 
C:\Users\CYMR90~1\AppData\Local\Temp\ccLNaGfc.s:1738   .text.adc_watchdog_group_channel_enable:0000000000000004 .L0 
C:\Users\CYMR90~1\AppData\Local\Temp\ccLNaGfc.s:1740   .text.adc_watchdog_group_channel_enable:0000000000000006 .L0 
C:\Users\CYMR90~1\AppData\Local\Temp\ccLNaGfc.s:1744   .text.adc_watchdog_group_channel_enable:000000000000000c .L0 
C:\Users\CYMR90~1\AppData\Local\Temp\ccLNaGfc.s:1754   .text.adc_watchdog_group_channel_enable:0000000000000026 .L0 
C:\Users\CYMR90~1\AppData\Local\Temp\ccLNaGfc.s:1764   .text.adc_watchdog_group_channel_enable:0000000000000042 .L0 
C:\Users\CYMR90~1\AppData\Local\Temp\ccLNaGfc.s:1767   .text.adc_watchdog_group_channel_enable:0000000000000044 .L0 
C:\Users\CYMR90~1\AppData\Local\Temp\ccLNaGfc.s:1776   .text.adc_watchdog_group_channel_enable:000000000000005a .L0 
C:\Users\CYMR90~1\AppData\Local\Temp\ccLNaGfc.s:1779   .text.adc_watchdog_group_channel_enable:000000000000005c .L0 
C:\Users\CYMR90~1\AppData\Local\Temp\ccLNaGfc.s:1788   .text.adc_watchdog_group_channel_enable:0000000000000072 .L0 
C:\Users\CYMR90~1\AppData\Local\Temp\ccLNaGfc.s:1791   .text.adc_watchdog_group_channel_enable:0000000000000074 .L0 
C:\Users\CYMR90~1\AppData\Local\Temp\ccLNaGfc.s:1800   .text.adc_watchdog_group_channel_enable:000000000000008a .L0 
C:\Users\CYMR90~1\AppData\Local\Temp\ccLNaGfc.s:1803   .text.adc_watchdog_group_channel_enable:000000000000008c .L0 
C:\Users\CYMR90~1\AppData\Local\Temp\ccLNaGfc.s:1806   .text.adc_watchdog_group_channel_enable:000000000000008e .L0 
C:\Users\CYMR90~1\AppData\Local\Temp\ccLNaGfc.s:1808   .text.adc_watchdog_group_channel_enable:0000000000000092 .L0 
C:\Users\CYMR90~1\AppData\Local\Temp\ccLNaGfc.s:1809   .text.adc_watchdog_group_channel_enable:0000000000000092 .L0 
C:\Users\CYMR90~1\AppData\Local\Temp\ccLNaGfc.s:1811   .text.adc_watchdog_group_channel_enable:0000000000000094 .L0 
C:\Users\CYMR90~1\AppData\Local\Temp\ccLNaGfc.s:1813   .text.adc_watchdog_group_channel_enable:0000000000000096 .L0 
C:\Users\CYMR90~1\AppData\Local\Temp\ccLNaGfc.s:1820   .text.adc_watchdog_disable:0000000000000000 adc_watchdog_disable
C:\Users\CYMR90~1\AppData\Local\Temp\ccLNaGfc.s:1823   .text.adc_watchdog_disable:0000000000000000 .L0 
C:\Users\CYMR90~1\AppData\Local\Temp\ccLNaGfc.s:1824   .text.adc_watchdog_disable:0000000000000000 .L0 
C:\Users\CYMR90~1\AppData\Local\Temp\ccLNaGfc.s:1825   .text.adc_watchdog_disable:0000000000000002 .L0 
C:\Users\CYMR90~1\AppData\Local\Temp\ccLNaGfc.s:1827   .text.adc_watchdog_disable:0000000000000004 .L0 
C:\Users\CYMR90~1\AppData\Local\Temp\ccLNaGfc.s:1829   .text.adc_watchdog_disable:0000000000000006 .L0 
C:\Users\CYMR90~1\AppData\Local\Temp\ccLNaGfc.s:1831   .text.adc_watchdog_disable:0000000000000006 .L0 
C:\Users\CYMR90~1\AppData\Local\Temp\ccLNaGfc.s:1841   .text.adc_watchdog_disable:0000000000000020 .L0 
C:\Users\CYMR90~1\AppData\Local\Temp\ccLNaGfc.s:1843   .text.adc_watchdog_disable:0000000000000024 .L0 
C:\Users\CYMR90~1\AppData\Local\Temp\ccLNaGfc.s:1844   .text.adc_watchdog_disable:0000000000000024 .L0 
C:\Users\CYMR90~1\AppData\Local\Temp\ccLNaGfc.s:1846   .text.adc_watchdog_disable:0000000000000026 .L0 
C:\Users\CYMR90~1\AppData\Local\Temp\ccLNaGfc.s:1848   .text.adc_watchdog_disable:0000000000000028 .L0 
C:\Users\CYMR90~1\AppData\Local\Temp\ccLNaGfc.s:1855   .text.adc_watchdog_threshold_config:0000000000000000 adc_watchdog_threshold_config
C:\Users\CYMR90~1\AppData\Local\Temp\ccLNaGfc.s:1858   .text.adc_watchdog_threshold_config:0000000000000000 .L0 
C:\Users\CYMR90~1\AppData\Local\Temp\ccLNaGfc.s:1859   .text.adc_watchdog_threshold_config:0000000000000000 .L0 
C:\Users\CYMR90~1\AppData\Local\Temp\ccLNaGfc.s:1860   .text.adc_watchdog_threshold_config:0000000000000002 .L0 
C:\Users\CYMR90~1\AppData\Local\Temp\ccLNaGfc.s:1862   .text.adc_watchdog_threshold_config:0000000000000004 .L0 
C:\Users\CYMR90~1\AppData\Local\Temp\ccLNaGfc.s:1864   .text.adc_watchdog_threshold_config:0000000000000006 .L0 
C:\Users\CYMR90~1\AppData\Local\Temp\ccLNaGfc.s:1871   .text.adc_watchdog_threshold_config:0000000000000014 .L0 
C:\Users\CYMR90~1\AppData\Local\Temp\ccLNaGfc.s:1873   .text.adc_watchdog_threshold_config:0000000000000018 .L0 
C:\Users\CYMR90~1\AppData\Local\Temp\ccLNaGfc.s:1876   .text.adc_watchdog_threshold_config:0000000000000020 .L0 
C:\Users\CYMR90~1\AppData\Local\Temp\ccLNaGfc.s:1880   .text.adc_watchdog_threshold_config:0000000000000026 .L0 
C:\Users\CYMR90~1\AppData\Local\Temp\ccLNaGfc.s:1882   .text.adc_watchdog_threshold_config:0000000000000028 .L0 
C:\Users\CYMR90~1\AppData\Local\Temp\ccLNaGfc.s:1884   .text.adc_watchdog_threshold_config:000000000000002c .L0 
C:\Users\CYMR90~1\AppData\Local\Temp\ccLNaGfc.s:1887   .text.adc_watchdog_threshold_config:0000000000000034 .L0 
C:\Users\CYMR90~1\AppData\Local\Temp\ccLNaGfc.s:1891   .text.adc_watchdog_threshold_config:000000000000003a .L0 
C:\Users\CYMR90~1\AppData\Local\Temp\ccLNaGfc.s:1893   .text.adc_watchdog_threshold_config:000000000000003c .L0 
C:\Users\CYMR90~1\AppData\Local\Temp\ccLNaGfc.s:1895   .text.adc_watchdog_threshold_config:0000000000000040 .L0 
C:\Users\CYMR90~1\AppData\Local\Temp\ccLNaGfc.s:1896   .text.adc_watchdog_threshold_config:0000000000000040 .L0 
C:\Users\CYMR90~1\AppData\Local\Temp\ccLNaGfc.s:1898   .text.adc_watchdog_threshold_config:0000000000000042 .L0 
C:\Users\CYMR90~1\AppData\Local\Temp\ccLNaGfc.s:1900   .text.adc_watchdog_threshold_config:0000000000000044 .L0 
C:\Users\CYMR90~1\AppData\Local\Temp\ccLNaGfc.s:1907   .text.adc_oversample_mode_config:0000000000000000 adc_oversample_mode_config
C:\Users\CYMR90~1\AppData\Local\Temp\ccLNaGfc.s:1910   .text.adc_oversample_mode_config:0000000000000000 .L0 
C:\Users\CYMR90~1\AppData\Local\Temp\ccLNaGfc.s:1911   .text.adc_oversample_mode_config:0000000000000000 .L0 
C:\Users\CYMR90~1\AppData\Local\Temp\ccLNaGfc.s:1912   .text.adc_oversample_mode_config:0000000000000002 .L0 
C:\Users\CYMR90~1\AppData\Local\Temp\ccLNaGfc.s:1914   .text.adc_oversample_mode_config:0000000000000004 .L0 
C:\Users\CYMR90~1\AppData\Local\Temp\ccLNaGfc.s:1916   .text.adc_oversample_mode_config:0000000000000006 .L0 
C:\Users\CYMR90~1\AppData\Local\Temp\ccLNaGfc.s:1924   .text.adc_oversample_mode_config:0000000000000018 .L0 
C:\Users\CYMR90~1\AppData\Local\Temp\ccLNaGfc.s:1928   .text.adc_oversample_mode_config:0000000000000024 .L0 
C:\Users\CYMR90~1\AppData\Local\Temp\ccLNaGfc.s:1938   .text.adc_oversample_mode_config:000000000000003e .L0 
C:\Users\CYMR90~1\AppData\Local\Temp\ccLNaGfc.s:1947   .text.adc_oversample_mode_config:0000000000000056 .L0 
C:\Users\CYMR90~1\AppData\Local\Temp\ccLNaGfc.s:1955   .text.adc_oversample_mode_config:000000000000006e .L0 
C:\Users\CYMR90~1\AppData\Local\Temp\ccLNaGfc.s:1959   .text.adc_oversample_mode_config:0000000000000078 .L0 
C:\Users\CYMR90~1\AppData\Local\Temp\ccLNaGfc.s:1961   .text.adc_oversample_mode_config:000000000000007c .L0 
C:\Users\CYMR90~1\AppData\Local\Temp\ccLNaGfc.s:1963   .text.adc_oversample_mode_config:0000000000000080 .L0 
C:\Users\CYMR90~1\AppData\Local\Temp\ccLNaGfc.s:1965   .text.adc_oversample_mode_config:0000000000000082 .L0 
C:\Users\CYMR90~1\AppData\Local\Temp\ccLNaGfc.s:1970   .text.adc_oversample_mode_config:000000000000008e .L0 
C:\Users\CYMR90~1\AppData\Local\Temp\ccLNaGfc.s:1972   .text.adc_oversample_mode_config:0000000000000092 .L0 
C:\Users\CYMR90~1\AppData\Local\Temp\ccLNaGfc.s:1973   .text.adc_oversample_mode_config:0000000000000092 .L0 
C:\Users\CYMR90~1\AppData\Local\Temp\ccLNaGfc.s:1975   .text.adc_oversample_mode_config:0000000000000094 .L0 
C:\Users\CYMR90~1\AppData\Local\Temp\ccLNaGfc.s:1977   .text.adc_oversample_mode_config:0000000000000096 .L0 
C:\Users\CYMR90~1\AppData\Local\Temp\ccLNaGfc.s:1984   .text.adc_oversample_mode_enable:0000000000000000 adc_oversample_mode_enable
C:\Users\CYMR90~1\AppData\Local\Temp\ccLNaGfc.s:1987   .text.adc_oversample_mode_enable:0000000000000000 .L0 
C:\Users\CYMR90~1\AppData\Local\Temp\ccLNaGfc.s:1988   .text.adc_oversample_mode_enable:0000000000000000 .L0 
C:\Users\CYMR90~1\AppData\Local\Temp\ccLNaGfc.s:1989   .text.adc_oversample_mode_enable:0000000000000002 .L0 
C:\Users\CYMR90~1\AppData\Local\Temp\ccLNaGfc.s:1991   .text.adc_oversample_mode_enable:0000000000000004 .L0 
C:\Users\CYMR90~1\AppData\Local\Temp\ccLNaGfc.s:1993   .text.adc_oversample_mode_enable:0000000000000006 .L0 
C:\Users\CYMR90~1\AppData\Local\Temp\ccLNaGfc.s:1995   .text.adc_oversample_mode_enable:0000000000000006 .L0 
C:\Users\CYMR90~1\AppData\Local\Temp\ccLNaGfc.s:2003   .text.adc_oversample_mode_enable:000000000000001e .L0 
C:\Users\CYMR90~1\AppData\Local\Temp\ccLNaGfc.s:2005   .text.adc_oversample_mode_enable:0000000000000022 .L0 
C:\Users\CYMR90~1\AppData\Local\Temp\ccLNaGfc.s:2006   .text.adc_oversample_mode_enable:0000000000000022 .L0 
C:\Users\CYMR90~1\AppData\Local\Temp\ccLNaGfc.s:2008   .text.adc_oversample_mode_enable:0000000000000024 .L0 
C:\Users\CYMR90~1\AppData\Local\Temp\ccLNaGfc.s:2010   .text.adc_oversample_mode_enable:0000000000000026 .L0 
C:\Users\CYMR90~1\AppData\Local\Temp\ccLNaGfc.s:2017   .text.adc_oversample_mode_disable:0000000000000000 adc_oversample_mode_disable
C:\Users\CYMR90~1\AppData\Local\Temp\ccLNaGfc.s:2020   .text.adc_oversample_mode_disable:0000000000000000 .L0 
C:\Users\CYMR90~1\AppData\Local\Temp\ccLNaGfc.s:2021   .text.adc_oversample_mode_disable:0000000000000000 .L0 
C:\Users\CYMR90~1\AppData\Local\Temp\ccLNaGfc.s:2022   .text.adc_oversample_mode_disable:0000000000000002 .L0 
C:\Users\CYMR90~1\AppData\Local\Temp\ccLNaGfc.s:2024   .text.adc_oversample_mode_disable:0000000000000004 .L0 
C:\Users\CYMR90~1\AppData\Local\Temp\ccLNaGfc.s:2026   .text.adc_oversample_mode_disable:0000000000000006 .L0 
C:\Users\CYMR90~1\AppData\Local\Temp\ccLNaGfc.s:2028   .text.adc_oversample_mode_disable:0000000000000006 .L0 
C:\Users\CYMR90~1\AppData\Local\Temp\ccLNaGfc.s:2036   .text.adc_oversample_mode_disable:000000000000001c .L0 
C:\Users\CYMR90~1\AppData\Local\Temp\ccLNaGfc.s:2038   .text.adc_oversample_mode_disable:0000000000000020 .L0 
C:\Users\CYMR90~1\AppData\Local\Temp\ccLNaGfc.s:2039   .text.adc_oversample_mode_disable:0000000000000020 .L0 
C:\Users\CYMR90~1\AppData\Local\Temp\ccLNaGfc.s:2041   .text.adc_oversample_mode_disable:0000000000000022 .L0 
C:\Users\CYMR90~1\AppData\Local\Temp\ccLNaGfc.s:2043   .text.adc_oversample_mode_disable:0000000000000024 .L0 
C:\Users\CYMR90~1\AppData\Local\Temp\ccLNaGfc.s:2050   .text.adc_flag_get:0000000000000000 adc_flag_get
C:\Users\CYMR90~1\AppData\Local\Temp\ccLNaGfc.s:2053   .text.adc_flag_get:0000000000000000 .L0 
C:\Users\CYMR90~1\AppData\Local\Temp\ccLNaGfc.s:2054   .text.adc_flag_get:0000000000000000 .L0 
C:\Users\CYMR90~1\AppData\Local\Temp\ccLNaGfc.s:2055   .text.adc_flag_get:0000000000000002 .L0 
C:\Users\CYMR90~1\AppData\Local\Temp\ccLNaGfc.s:2057   .text.adc_flag_get:0000000000000004 .L0 
C:\Users\CYMR90~1\AppData\Local\Temp\ccLNaGfc.s:2059   .text.adc_flag_get:0000000000000006 .L0 
C:\Users\CYMR90~1\AppData\Local\Temp\ccLNaGfc.s:2062   .text.adc_flag_get:000000000000000a .L0 
C:\Users\CYMR90~1\AppData\Local\Temp\ccLNaGfc.s:2064   .text.adc_flag_get:000000000000000e .L0 
C:\Users\CYMR90~1\AppData\Local\Temp\ccLNaGfc.s:2067   .text.adc_flag_get:0000000000000014 .L0 
C:\Users\CYMR90~1\AppData\Local\Temp\ccLNaGfc.s:2070   .text.adc_flag_get:000000000000001a .L0 
C:\Users\CYMR90~1\AppData\Local\Temp\ccLNaGfc.s:2072   .text.adc_flag_get:000000000000001c .L0 
C:\Users\CYMR90~1\AppData\Local\Temp\ccLNaGfc.s:2076   .text.adc_flag_get:0000000000000022 .L0 
C:\Users\CYMR90~1\AppData\Local\Temp\ccLNaGfc.s:2078   .text.adc_flag_get:0000000000000026 .L0 
C:\Users\CYMR90~1\AppData\Local\Temp\ccLNaGfc.s:2080   .text.adc_flag_get:000000000000002a .L0 
C:\Users\CYMR90~1\AppData\Local\Temp\ccLNaGfc.s:2081   .text.adc_flag_get:000000000000002a .L0 
C:\Users\CYMR90~1\AppData\Local\Temp\ccLNaGfc.s:2083   .text.adc_flag_get:000000000000002c .L0 
C:\Users\CYMR90~1\AppData\Local\Temp\ccLNaGfc.s:2085   .text.adc_flag_get:000000000000002e .L0 
C:\Users\CYMR90~1\AppData\Local\Temp\ccLNaGfc.s:2092   .text.adc_flag_clear:0000000000000000 adc_flag_clear
C:\Users\CYMR90~1\AppData\Local\Temp\ccLNaGfc.s:2095   .text.adc_flag_clear:0000000000000000 .L0 
C:\Users\CYMR90~1\AppData\Local\Temp\ccLNaGfc.s:2096   .text.adc_flag_clear:0000000000000000 .L0 
C:\Users\CYMR90~1\AppData\Local\Temp\ccLNaGfc.s:2097   .text.adc_flag_clear:0000000000000002 .L0 
C:\Users\CYMR90~1\AppData\Local\Temp\ccLNaGfc.s:2099   .text.adc_flag_clear:0000000000000004 .L0 
C:\Users\CYMR90~1\AppData\Local\Temp\ccLNaGfc.s:2101   .text.adc_flag_clear:0000000000000006 .L0 
C:\Users\CYMR90~1\AppData\Local\Temp\ccLNaGfc.s:2104   .text.adc_flag_clear:000000000000000a .L0 
C:\Users\CYMR90~1\AppData\Local\Temp\ccLNaGfc.s:2106   .text.adc_flag_clear:000000000000000e .L0 
C:\Users\CYMR90~1\AppData\Local\Temp\ccLNaGfc.s:2109   .text.adc_flag_clear:0000000000000016 .L0 
C:\Users\CYMR90~1\AppData\Local\Temp\ccLNaGfc.s:2111   .text.adc_flag_clear:0000000000000018 .L0 
C:\Users\CYMR90~1\AppData\Local\Temp\ccLNaGfc.s:2113   .text.adc_flag_clear:000000000000001c .L0 
C:\Users\CYMR90~1\AppData\Local\Temp\ccLNaGfc.s:2114   .text.adc_flag_clear:000000000000001c .L0 
C:\Users\CYMR90~1\AppData\Local\Temp\ccLNaGfc.s:2116   .text.adc_flag_clear:000000000000001e .L0 
C:\Users\CYMR90~1\AppData\Local\Temp\ccLNaGfc.s:2118   .text.adc_flag_clear:0000000000000020 .L0 
C:\Users\CYMR90~1\AppData\Local\Temp\ccLNaGfc.s:2125   .text.adc_interrupt_enable:0000000000000000 adc_interrupt_enable
C:\Users\CYMR90~1\AppData\Local\Temp\ccLNaGfc.s:2128   .text.adc_interrupt_enable:0000000000000000 .L0 
C:\Users\CYMR90~1\AppData\Local\Temp\ccLNaGfc.s:2129   .text.adc_interrupt_enable:0000000000000000 .L0 
C:\Users\CYMR90~1\AppData\Local\Temp\ccLNaGfc.s:2130   .text.adc_interrupt_enable:0000000000000002 .L0 
C:\Users\CYMR90~1\AppData\Local\Temp\ccLNaGfc.s:2132   .text.adc_interrupt_enable:0000000000000004 .L0 
C:\Users\CYMR90~1\AppData\Local\Temp\ccLNaGfc.s:2134   .text.adc_interrupt_enable:0000000000000006 .L0 
C:\Users\CYMR90~1\AppData\Local\Temp\ccLNaGfc.s:2137   .text.adc_interrupt_enable:000000000000000a .L0 
C:\Users\CYMR90~1\AppData\Local\Temp\ccLNaGfc.s:2156   .text.adc_interrupt_enable:0000000000000052 .L0 
C:\Users\CYMR90~1\AppData\Local\Temp\ccLNaGfc.s:2164   .text.adc_interrupt_enable:0000000000000066 .L0 
C:\Users\CYMR90~1\AppData\Local\Temp\ccLNaGfc.s:2167   .text.adc_interrupt_enable:0000000000000068 .L0 
C:\Users\CYMR90~1\AppData\Local\Temp\ccLNaGfc.s:2175   .text.adc_interrupt_enable:000000000000007c .L0 
C:\Users\CYMR90~1\AppData\Local\Temp\ccLNaGfc.s:2178   .text.adc_interrupt_enable:000000000000007e .L0 
C:\Users\CYMR90~1\AppData\Local\Temp\ccLNaGfc.s:2186   .text.adc_interrupt_enable:0000000000000092 .L0 
C:\Users\CYMR90~1\AppData\Local\Temp\ccLNaGfc.s:2189   .text.adc_interrupt_enable:0000000000000094 .L0 
C:\Users\CYMR90~1\AppData\Local\Temp\ccLNaGfc.s:2198   .text.adc_interrupt_enable:00000000000000aa .L0 
C:\Users\CYMR90~1\AppData\Local\Temp\ccLNaGfc.s:2201   .text.adc_interrupt_enable:00000000000000ac .L0 
C:\Users\CYMR90~1\AppData\Local\Temp\ccLNaGfc.s:2204   .text.adc_interrupt_enable:00000000000000ae .L0 
C:\Users\CYMR90~1\AppData\Local\Temp\ccLNaGfc.s:2206   .text.adc_interrupt_enable:00000000000000b2 .L0 
C:\Users\CYMR90~1\AppData\Local\Temp\ccLNaGfc.s:2207   .text.adc_interrupt_enable:00000000000000b2 .L0 
C:\Users\CYMR90~1\AppData\Local\Temp\ccLNaGfc.s:2209   .text.adc_interrupt_enable:00000000000000b4 .L0 
C:\Users\CYMR90~1\AppData\Local\Temp\ccLNaGfc.s:2211   .text.adc_interrupt_enable:00000000000000b6 .L0 
C:\Users\CYMR90~1\AppData\Local\Temp\ccLNaGfc.s:2218   .text.adc_interrupt_disable:0000000000000000 adc_interrupt_disable
C:\Users\CYMR90~1\AppData\Local\Temp\ccLNaGfc.s:2221   .text.adc_interrupt_disable:0000000000000000 .L0 
C:\Users\CYMR90~1\AppData\Local\Temp\ccLNaGfc.s:2222   .text.adc_interrupt_disable:0000000000000000 .L0 
C:\Users\CYMR90~1\AppData\Local\Temp\ccLNaGfc.s:2223   .text.adc_interrupt_disable:0000000000000002 .L0 
C:\Users\CYMR90~1\AppData\Local\Temp\ccLNaGfc.s:2225   .text.adc_interrupt_disable:0000000000000004 .L0 
C:\Users\CYMR90~1\AppData\Local\Temp\ccLNaGfc.s:2227   .text.adc_interrupt_disable:0000000000000006 .L0 
C:\Users\CYMR90~1\AppData\Local\Temp\ccLNaGfc.s:2230   .text.adc_interrupt_disable:000000000000000a .L0 
C:\Users\CYMR90~1\AppData\Local\Temp\ccLNaGfc.s:2249   .text.adc_interrupt_disable:0000000000000052 .L0 
C:\Users\CYMR90~1\AppData\Local\Temp\ccLNaGfc.s:2257   .text.adc_interrupt_disable:0000000000000066 .L0 
C:\Users\CYMR90~1\AppData\Local\Temp\ccLNaGfc.s:2260   .text.adc_interrupt_disable:0000000000000068 .L0 
C:\Users\CYMR90~1\AppData\Local\Temp\ccLNaGfc.s:2268   .text.adc_interrupt_disable:000000000000007c .L0 
C:\Users\CYMR90~1\AppData\Local\Temp\ccLNaGfc.s:2271   .text.adc_interrupt_disable:000000000000007e .L0 
C:\Users\CYMR90~1\AppData\Local\Temp\ccLNaGfc.s:2279   .text.adc_interrupt_disable:0000000000000092 .L0 
C:\Users\CYMR90~1\AppData\Local\Temp\ccLNaGfc.s:2282   .text.adc_interrupt_disable:0000000000000094 .L0 
C:\Users\CYMR90~1\AppData\Local\Temp\ccLNaGfc.s:2292   .text.adc_interrupt_disable:00000000000000ac .L0 
C:\Users\CYMR90~1\AppData\Local\Temp\ccLNaGfc.s:2295   .text.adc_interrupt_disable:00000000000000ae .L0 
C:\Users\CYMR90~1\AppData\Local\Temp\ccLNaGfc.s:2298   .text.adc_interrupt_disable:00000000000000b0 .L0 
C:\Users\CYMR90~1\AppData\Local\Temp\ccLNaGfc.s:2300   .text.adc_interrupt_disable:00000000000000b4 .L0 
C:\Users\CYMR90~1\AppData\Local\Temp\ccLNaGfc.s:2301   .text.adc_interrupt_disable:00000000000000b4 .L0 
C:\Users\CYMR90~1\AppData\Local\Temp\ccLNaGfc.s:2303   .text.adc_interrupt_disable:00000000000000b6 .L0 
C:\Users\CYMR90~1\AppData\Local\Temp\ccLNaGfc.s:2305   .text.adc_interrupt_disable:00000000000000b8 .L0 
C:\Users\CYMR90~1\AppData\Local\Temp\ccLNaGfc.s:2312   .text.adc_interrupt_flag_get:0000000000000000 adc_interrupt_flag_get
C:\Users\CYMR90~1\AppData\Local\Temp\ccLNaGfc.s:2315   .text.adc_interrupt_flag_get:0000000000000000 .L0 
C:\Users\CYMR90~1\AppData\Local\Temp\ccLNaGfc.s:2316   .text.adc_interrupt_flag_get:0000000000000000 .L0 
C:\Users\CYMR90~1\AppData\Local\Temp\ccLNaGfc.s:2317   .text.adc_interrupt_flag_get:0000000000000002 .L0 
C:\Users\CYMR90~1\AppData\Local\Temp\ccLNaGfc.s:2319   .text.adc_interrupt_flag_get:0000000000000004 .L0 
C:\Users\CYMR90~1\AppData\Local\Temp\ccLNaGfc.s:2321   .text.adc_interrupt_flag_get:0000000000000006 .L0 
C:\Users\CYMR90~1\AppData\Local\Temp\ccLNaGfc.s:2324   .text.adc_interrupt_flag_get:000000000000000a .L0 
C:\Users\CYMR90~1\AppData\Local\Temp\ccLNaGfc.s:2326   .text.adc_interrupt_flag_get:000000000000000e .L0 
C:\Users\CYMR90~1\AppData\Local\Temp\ccLNaGfc.s:2345   .text.adc_interrupt_flag_get:000000000000004e .L0 
C:\Users\CYMR90~1\AppData\Local\Temp\ccLNaGfc.s:2348   .text.adc_interrupt_flag_get:0000000000000050 .L0 
C:\Users\CYMR90~1\AppData\Local\Temp\ccLNaGfc.s:2351   .text.adc_interrupt_flag_get:0000000000000056 .L0 
C:\Users\CYMR90~1\AppData\Local\Temp\ccLNaGfc.s:2354   .text.adc_interrupt_flag_get:000000000000005c .L0 
C:\Users\CYMR90~1\AppData\Local\Temp\ccLNaGfc.s:2358   .text.adc_interrupt_flag_get:0000000000000064 .L0 
C:\Users\CYMR90~1\AppData\Local\Temp\ccLNaGfc.s:2360   .text.adc_interrupt_flag_get:0000000000000068 .L0 
C:\Users\CYMR90~1\AppData\Local\Temp\ccLNaGfc.s:2362   .text.adc_interrupt_flag_get:000000000000006a .L0 
C:\Users\CYMR90~1\AppData\Local\Temp\ccLNaGfc.s:2365   .text.adc_interrupt_flag_get:0000000000000070 .L0 
C:\Users\CYMR90~1\AppData\Local\Temp\ccLNaGfc.s:2368   .text.adc_interrupt_flag_get:0000000000000076 .L0 
C:\Users\CYMR90~1\AppData\Local\Temp\ccLNaGfc.s:2371   .text.adc_interrupt_flag_get:0000000000000078 .L0 
C:\Users\CYMR90~1\AppData\Local\Temp\ccLNaGfc.s:2374   .text.adc_interrupt_flag_get:000000000000007e .L0 
C:\Users\CYMR90~1\AppData\Local\Temp\ccLNaGfc.s:2377   .text.adc_interrupt_flag_get:0000000000000084 .L0 
C:\Users\CYMR90~1\AppData\Local\Temp\ccLNaGfc.s:2381   .text.adc_interrupt_flag_get:000000000000008c .L0 
C:\Users\CYMR90~1\AppData\Local\Temp\ccLNaGfc.s:2383   .text.adc_interrupt_flag_get:0000000000000090 .L0 
C:\Users\CYMR90~1\AppData\Local\Temp\ccLNaGfc.s:2385   .text.adc_interrupt_flag_get:0000000000000092 .L0 
C:\Users\CYMR90~1\AppData\Local\Temp\ccLNaGfc.s:2388   .text.adc_interrupt_flag_get:0000000000000098 .L0 
C:\Users\CYMR90~1\AppData\Local\Temp\ccLNaGfc.s:2391   .text.adc_interrupt_flag_get:000000000000009e .L0 
C:\Users\CYMR90~1\AppData\Local\Temp\ccLNaGfc.s:2394   .text.adc_interrupt_flag_get:00000000000000a0 .L0 
C:\Users\CYMR90~1\AppData\Local\Temp\ccLNaGfc.s:2397   .text.adc_interrupt_flag_get:00000000000000a6 .L0 
C:\Users\CYMR90~1\AppData\Local\Temp\ccLNaGfc.s:2400   .text.adc_interrupt_flag_get:00000000000000ac .L0 
C:\Users\CYMR90~1\AppData\Local\Temp\ccLNaGfc.s:2404   .text.adc_interrupt_flag_get:00000000000000b4 .L0 
C:\Users\CYMR90~1\AppData\Local\Temp\ccLNaGfc.s:2406   .text.adc_interrupt_flag_get:00000000000000b8 .L0 
C:\Users\CYMR90~1\AppData\Local\Temp\ccLNaGfc.s:2408   .text.adc_interrupt_flag_get:00000000000000ba .L0 
C:\Users\CYMR90~1\AppData\Local\Temp\ccLNaGfc.s:2411   .text.adc_interrupt_flag_get:00000000000000c0 .L0 
C:\Users\CYMR90~1\AppData\Local\Temp\ccLNaGfc.s:2414   .text.adc_interrupt_flag_get:00000000000000c6 .L0 
C:\Users\CYMR90~1\AppData\Local\Temp\ccLNaGfc.s:2417   .text.adc_interrupt_flag_get:00000000000000c8 .L0 
C:\Users\CYMR90~1\AppData\Local\Temp\ccLNaGfc.s:2420   .text.adc_interrupt_flag_get:00000000000000ce .L0 
C:\Users\CYMR90~1\AppData\Local\Temp\ccLNaGfc.s:2423   .text.adc_interrupt_flag_get:00000000000000d6 .L0 
C:\Users\CYMR90~1\AppData\Local\Temp\ccLNaGfc.s:2427   .text.adc_interrupt_flag_get:00000000000000de .L0 
C:\Users\CYMR90~1\AppData\Local\Temp\ccLNaGfc.s:2430   .text.adc_interrupt_flag_get:00000000000000e4 .L0 
C:\Users\CYMR90~1\AppData\Local\Temp\ccLNaGfc.s:2432   .text.adc_interrupt_flag_get:00000000000000e6 .L0 
C:\Users\CYMR90~1\AppData\Local\Temp\ccLNaGfc.s:2435   .text.adc_interrupt_flag_get:00000000000000ec .L0 
C:\Users\CYMR90~1\AppData\Local\Temp\ccLNaGfc.s:2438   .text.adc_interrupt_flag_get:00000000000000f2 .L0 
C:\Users\CYMR90~1\AppData\Local\Temp\ccLNaGfc.s:2441   .text.adc_interrupt_flag_get:00000000000000f4 .L0 
C:\Users\CYMR90~1\AppData\Local\Temp\ccLNaGfc.s:2445   .text.adc_interrupt_flag_get:00000000000000f8 .L0 
C:\Users\CYMR90~1\AppData\Local\Temp\ccLNaGfc.s:2449   .text.adc_interrupt_flag_get:00000000000000fc .L0 
C:\Users\CYMR90~1\AppData\Local\Temp\ccLNaGfc.s:2453   .text.adc_interrupt_flag_get:0000000000000100 .L0 
C:\Users\CYMR90~1\AppData\Local\Temp\ccLNaGfc.s:2457   .text.adc_interrupt_flag_get:0000000000000104 .L0 
C:\Users\CYMR90~1\AppData\Local\Temp\ccLNaGfc.s:2460   .text.adc_interrupt_flag_get:0000000000000106 .L0 
C:\Users\CYMR90~1\AppData\Local\Temp\ccLNaGfc.s:2462   .text.adc_interrupt_flag_get:000000000000010a .L0 
C:\Users\CYMR90~1\AppData\Local\Temp\ccLNaGfc.s:2464   .text.adc_interrupt_flag_get:000000000000010e .L0 
C:\Users\CYMR90~1\AppData\Local\Temp\ccLNaGfc.s:2465   .text.adc_interrupt_flag_get:000000000000010e .L0 
C:\Users\CYMR90~1\AppData\Local\Temp\ccLNaGfc.s:2467   .text.adc_interrupt_flag_get:0000000000000110 .L0 
C:\Users\CYMR90~1\AppData\Local\Temp\ccLNaGfc.s:2469   .text.adc_interrupt_flag_get:0000000000000112 .L0 
C:\Users\CYMR90~1\AppData\Local\Temp\ccLNaGfc.s:2476   .text.adc_interrupt_flag_clear:0000000000000000 adc_interrupt_flag_clear
C:\Users\CYMR90~1\AppData\Local\Temp\ccLNaGfc.s:2479   .text.adc_interrupt_flag_clear:0000000000000000 .L0 
C:\Users\CYMR90~1\AppData\Local\Temp\ccLNaGfc.s:2480   .text.adc_interrupt_flag_clear:0000000000000000 .L0 
C:\Users\CYMR90~1\AppData\Local\Temp\ccLNaGfc.s:2481   .text.adc_interrupt_flag_clear:0000000000000002 .L0 
C:\Users\CYMR90~1\AppData\Local\Temp\ccLNaGfc.s:2483   .text.adc_interrupt_flag_clear:0000000000000004 .L0 
C:\Users\CYMR90~1\AppData\Local\Temp\ccLNaGfc.s:2485   .text.adc_interrupt_flag_clear:0000000000000006 .L0 
C:\Users\CYMR90~1\AppData\Local\Temp\ccLNaGfc.s:2488   .text.adc_interrupt_flag_clear:000000000000000a .L0 
C:\Users\CYMR90~1\AppData\Local\Temp\ccLNaGfc.s:2490   .text.adc_interrupt_flag_clear:000000000000000e .L0 
C:\Users\CYMR90~1\AppData\Local\Temp\ccLNaGfc.s:2493   .text.adc_interrupt_flag_clear:0000000000000016 .L0 
C:\Users\CYMR90~1\AppData\Local\Temp\ccLNaGfc.s:2495   .text.adc_interrupt_flag_clear:0000000000000018 .L0 
C:\Users\CYMR90~1\AppData\Local\Temp\ccLNaGfc.s:2497   .text.adc_interrupt_flag_clear:000000000000001c .L0 
C:\Users\CYMR90~1\AppData\Local\Temp\ccLNaGfc.s:2498   .text.adc_interrupt_flag_clear:000000000000001c .L0 
C:\Users\CYMR90~1\AppData\Local\Temp\ccLNaGfc.s:2500   .text.adc_interrupt_flag_clear:000000000000001e .L0 
C:\Users\CYMR90~1\AppData\Local\Temp\ccLNaGfc.s:2502   .text.adc_interrupt_flag_clear:0000000000000020 .L0 
C:\Users\CYMR90~1\AppData\Local\Temp\ccLNaGfc.s:47     .text.adc_deinit:000000000000002e .L0 
C:\Users\CYMR90~1\AppData\Local\Temp\ccLNaGfc.s:92     .text.adc_clock_config:0000000000000048 .L0 
C:\Users\CYMR90~1\AppData\Local\Temp\ccLNaGfc.s:134    .text.adc_enable:000000000000002e .L0 
C:\Users\CYMR90~1\AppData\Local\Temp\ccLNaGfc.s:167    .text.adc_disable:0000000000000020 .L0 
C:\Users\CYMR90~1\AppData\Local\Temp\ccLNaGfc.s:200    .text.adc_dma_mode_enable:0000000000000022 .L0 
C:\Users\CYMR90~1\AppData\Local\Temp\ccLNaGfc.s:233    .text.adc_dma_mode_disable:0000000000000022 .L0 
C:\Users\CYMR90~1\AppData\Local\Temp\ccLNaGfc.s:266    .text.adc_dma_request_after_last_enable:0000000000000022 .L0 
C:\Users\CYMR90~1\AppData\Local\Temp\ccLNaGfc.s:299    .text.adc_dma_request_after_last_disable:0000000000000022 .L0 
C:\Users\CYMR90~1\AppData\Local\Temp\ccLNaGfc.s:407    .text.adc_discontinuous_mode_config:00000000000000be .L0 
C:\Users\CYMR90~1\AppData\Local\Temp\ccLNaGfc.s:523    .text.adc_special_function_config:00000000000000cc .L0 
C:\Users\CYMR90~1\AppData\Local\Temp\ccLNaGfc.s:557    .text.adc_tempsensor_vrefint_enable:0000000000000028 .L0 
C:\Users\CYMR90~1\AppData\Local\Temp\ccLNaGfc.s:592    .text.adc_tempsensor_vrefint_disable:000000000000002a .L0 
C:\Users\CYMR90~1\AppData\Local\Temp\ccLNaGfc.s:645    .text.adc_data_alignment_config:000000000000004a .L0 
C:\Users\CYMR90~1\AppData\Local\Temp\ccLNaGfc.s:760    .text.adc_channel_length_config:00000000000000d8 .L0 
C:\Users\CYMR90~1\AppData\Local\Temp\ccLNaGfc.s:968    .text.adc_routine_channel_config:0000000000000198 .L0 
C:\Users\CYMR90~1\AppData\Local\Temp\ccLNaGfc.s:1149   .text.adc_inserted_channel_config:000000000000015c .L0 
C:\Users\CYMR90~1\AppData\Local\Temp\ccLNaGfc.s:1223   .text.adc_inserted_channel_offset_config:0000000000000076 .L0 
C:\Users\CYMR90~1\AppData\Local\Temp\ccLNaGfc.s:1310   .text.adc_external_trigger_config:0000000000000092 .L0 
C:\Users\CYMR90~1\AppData\Local\Temp\ccLNaGfc.s:1391   .text.adc_external_trigger_source_config:000000000000008a .L0 
C:\Users\CYMR90~1\AppData\Local\Temp\ccLNaGfc.s:1448   .text.adc_software_trigger_enable:0000000000000050 .L0 
C:\Users\CYMR90~1\AppData\Local\Temp\ccLNaGfc.s:1505   .text.adc_end_of_conversion_config:000000000000004e .L0 
C:\Users\CYMR90~1\AppData\Local\Temp\ccLNaGfc.s:1550   .text.adc_resolution_config:0000000000000040 .L0 
C:\Users\CYMR90~1\AppData\Local\Temp\ccLNaGfc.s:1582   .text.adc_routine_data_read:000000000000001c .L0 
C:\Users\CYMR90~1\AppData\Local\Temp\ccLNaGfc.s:1669   .text.adc_inserted_data_read:0000000000000088 .L0 
C:\Users\CYMR90~1\AppData\Local\Temp\ccLNaGfc.s:1727   .text.adc_watchdog_single_channel_enable:000000000000005e .L0 
C:\Users\CYMR90~1\AppData\Local\Temp\ccLNaGfc.s:1816   .text.adc_watchdog_group_channel_enable:0000000000000096 .L0 
C:\Users\CYMR90~1\AppData\Local\Temp\ccLNaGfc.s:1851   .text.adc_watchdog_disable:0000000000000028 .L0 
C:\Users\CYMR90~1\AppData\Local\Temp\ccLNaGfc.s:1903   .text.adc_watchdog_threshold_config:0000000000000044 .L0 
C:\Users\CYMR90~1\AppData\Local\Temp\ccLNaGfc.s:1980   .text.adc_oversample_mode_config:0000000000000096 .L0 
C:\Users\CYMR90~1\AppData\Local\Temp\ccLNaGfc.s:2013   .text.adc_oversample_mode_enable:0000000000000026 .L0 
C:\Users\CYMR90~1\AppData\Local\Temp\ccLNaGfc.s:2046   .text.adc_oversample_mode_disable:0000000000000024 .L0 
C:\Users\CYMR90~1\AppData\Local\Temp\ccLNaGfc.s:2088   .text.adc_flag_get:000000000000002e .L0 
C:\Users\CYMR90~1\AppData\Local\Temp\ccLNaGfc.s:2121   .text.adc_flag_clear:0000000000000020 .L0 
C:\Users\CYMR90~1\AppData\Local\Temp\ccLNaGfc.s:2214   .text.adc_interrupt_enable:00000000000000b6 .L0 
C:\Users\CYMR90~1\AppData\Local\Temp\ccLNaGfc.s:2308   .text.adc_interrupt_disable:00000000000000b8 .L0 
C:\Users\CYMR90~1\AppData\Local\Temp\ccLNaGfc.s:2472   .text.adc_interrupt_flag_get:0000000000000112 .L0 
C:\Users\CYMR90~1\AppData\Local\Temp\ccLNaGfc.s:2505   .text.adc_interrupt_flag_clear:0000000000000020 .L0 
                     .debug_frame:0000000000000000 .L0 
C:\Users\CYMR90~1\AppData\Local\Temp\ccLNaGfc.s:122    .text.adc_enable:0000000000000026 .L5
C:\Users\CYMR90~1\AppData\Local\Temp\ccLNaGfc.s:336    .text.adc_discontinuous_mode_config:000000000000003e .L12
C:\Users\CYMR90~1\AppData\Local\Temp\ccLNaGfc.s:383    .text.adc_discontinuous_mode_config:00000000000000a0 .L13
C:\Users\CYMR90~1\AppData\Local\Temp\ccLNaGfc.s:395    .text.adc_discontinuous_mode_config:00000000000000b6 .L16
C:\Users\CYMR90~1\AppData\Local\Temp\ccLNaGfc.s:370    .text.adc_discontinuous_mode_config:0000000000000086 .L15
C:\Users\CYMR90~1\AppData\Local\Temp\ccLNaGfc.s:469    .text.adc_special_function_config:000000000000006e .L18
C:\Users\CYMR90~1\AppData\Local\Temp\ccLNaGfc.s:439    .text.adc_special_function_config:0000000000000032 .L19
C:\Users\CYMR90~1\AppData\Local\Temp\ccLNaGfc.s:453    .text.adc_special_function_config:0000000000000050 .L20
C:\Users\CYMR90~1\AppData\Local\Temp\ccLNaGfc.s:511    .text.adc_special_function_config:00000000000000c4 .L24
C:\Users\CYMR90~1\AppData\Local\Temp\ccLNaGfc.s:483    .text.adc_special_function_config:000000000000008c .L22
C:\Users\CYMR90~1\AppData\Local\Temp\ccLNaGfc.s:497    .text.adc_special_function_config:00000000000000aa .L23
C:\Users\CYMR90~1\AppData\Local\Temp\ccLNaGfc.s:622    .text.adc_data_alignment_config:000000000000002a .L28
C:\Users\CYMR90~1\AppData\Local\Temp\ccLNaGfc.s:633    .text.adc_data_alignment_config:0000000000000042 .L30
C:\Users\CYMR90~1\AppData\Local\Temp\ccLNaGfc.s:670    .text.adc_channel_length_config:0000000000000022 .L32
C:\Users\CYMR90~1\AppData\Local\Temp\ccLNaGfc.s:705    .text.adc_channel_length_config:0000000000000076 .L33
C:\Users\CYMR90~1\AppData\Local\Temp\ccLNaGfc.s:747    .text.adc_channel_length_config:00000000000000d0 .L36
C:\Users\CYMR90~1\AppData\Local\Temp\ccLNaGfc.s:740    .text.adc_channel_length_config:00000000000000ca .L38
C:\Users\CYMR90~1\AppData\Local\Temp\ccLNaGfc.s:744    .text.adc_channel_length_config:00000000000000ce .L39
C:\Users\CYMR90~1\AppData\Local\Temp\ccLNaGfc.s:748    .text.adc_channel_length_config:00000000000000d0 .L40
C:\Users\CYMR90~1\AppData\Local\Temp\ccLNaGfc.s:824    .text.adc_routine_channel_config:000000000000007a .L42
C:\Users\CYMR90~1\AppData\Local\Temp\ccLNaGfc.s:872    .text.adc_routine_channel_config:00000000000000e2 .L43
C:\Users\CYMR90~1\AppData\Local\Temp\ccLNaGfc.s:913    .text.adc_routine_channel_config:0000000000000138 .L44
C:\Users\CYMR90~1\AppData\Local\Temp\ccLNaGfc.s:956    .text.adc_routine_channel_config:0000000000000190 .L46
C:\Users\CYMR90~1\AppData\Local\Temp\ccLNaGfc.s:1053   .text.adc_inserted_channel_config:00000000000000a6 .L48
C:\Users\CYMR90~1\AppData\Local\Temp\ccLNaGfc.s:1094   .text.adc_inserted_channel_config:00000000000000fc .L49
C:\Users\CYMR90~1\AppData\Local\Temp\ccLNaGfc.s:1137   .text.adc_inserted_channel_config:0000000000000154 .L51
C:\Users\CYMR90~1\AppData\Local\Temp\ccLNaGfc.s:1211   .text.adc_inserted_channel_offset_config:000000000000006e .L54
C:\Users\CYMR90~1\AppData\Local\Temp\ccLNaGfc.s:1248   .text.adc_external_trigger_config:0000000000000022 .L56
C:\Users\CYMR90~1\AppData\Local\Temp\ccLNaGfc.s:1273   .text.adc_external_trigger_config:0000000000000056 .L57
C:\Users\CYMR90~1\AppData\Local\Temp\ccLNaGfc.s:1298   .text.adc_external_trigger_config:000000000000008a .L59
C:\Users\CYMR90~1\AppData\Local\Temp\ccLNaGfc.s:1335   .text.adc_external_trigger_source_config:0000000000000022 .L61
C:\Users\CYMR90~1\AppData\Local\Temp\ccLNaGfc.s:1357   .text.adc_external_trigger_source_config:0000000000000052 .L62
C:\Users\CYMR90~1\AppData\Local\Temp\ccLNaGfc.s:1379   .text.adc_external_trigger_source_config:0000000000000082 .L64
C:\Users\CYMR90~1\AppData\Local\Temp\ccLNaGfc.s:1421   .text.adc_software_trigger_enable:000000000000002a .L66
C:\Users\CYMR90~1\AppData\Local\Temp\ccLNaGfc.s:1436   .text.adc_software_trigger_enable:0000000000000048 .L68
C:\Users\CYMR90~1\AppData\Local\Temp\ccLNaGfc.s:1471   .text.adc_end_of_conversion_config:000000000000001a .L70
C:\Users\CYMR90~1\AppData\Local\Temp\ccLNaGfc.s:1482   .text.adc_end_of_conversion_config:0000000000000030 .L71
C:\Users\CYMR90~1\AppData\Local\Temp\ccLNaGfc.s:1493   .text.adc_end_of_conversion_config:0000000000000046 .L73
C:\Users\CYMR90~1\AppData\Local\Temp\ccLNaGfc.s:1639   .text.adc_inserted_data_read:0000000000000062 .L78
C:\Users\CYMR90~1\AppData\Local\Temp\ccLNaGfc.s:1648   .text.adc_inserted_data_read:0000000000000072 .L79
C:\Users\CYMR90~1\AppData\Local\Temp\ccLNaGfc.s:1630   .text.adc_inserted_data_read:0000000000000052 .L80
C:\Users\CYMR90~1\AppData\Local\Temp\ccLNaGfc.s:1612   .text.adc_inserted_data_read:0000000000000032 .L81
C:\Users\CYMR90~1\AppData\Local\Temp\ccLNaGfc.s:1621   .text.adc_inserted_data_read:0000000000000042 .L82
C:\Users\CYMR90~1\AppData\Local\Temp\ccLNaGfc.s:1653   .text.adc_inserted_data_read:0000000000000078 .L83
C:\Users\CYMR90~1\AppData\Local\Temp\ccLNaGfc.s:1789   .text.adc_watchdog_group_channel_enable:0000000000000074 .L87
C:\Users\CYMR90~1\AppData\Local\Temp\ccLNaGfc.s:1801   .text.adc_watchdog_group_channel_enable:000000000000008c .L92
C:\Users\CYMR90~1\AppData\Local\Temp\ccLNaGfc.s:1765   .text.adc_watchdog_group_channel_enable:0000000000000044 .L89
C:\Users\CYMR90~1\AppData\Local\Temp\ccLNaGfc.s:1777   .text.adc_watchdog_group_channel_enable:000000000000005c .L90
C:\Users\CYMR90~1\AppData\Local\Temp\ccLNaGfc.s:1804   .text.adc_watchdog_group_channel_enable:000000000000008e .L91
C:\Users\CYMR90~1\AppData\Local\Temp\ccLNaGfc.s:1936   .text.adc_oversample_mode_config:000000000000003e .L96
C:\Users\CYMR90~1\AppData\Local\Temp\ccLNaGfc.s:1945   .text.adc_oversample_mode_config:0000000000000056 .L97
C:\Users\CYMR90~1\AppData\Local\Temp\ccLNaGfc.s:2074   .text.adc_flag_get:0000000000000022 .L101
C:\Users\CYMR90~1\AppData\Local\Temp\ccLNaGfc.s:2187   .text.adc_interrupt_enable:0000000000000094 .L105
C:\Users\CYMR90~1\AppData\Local\Temp\ccLNaGfc.s:2199   .text.adc_interrupt_enable:00000000000000ac .L110
C:\Users\CYMR90~1\AppData\Local\Temp\ccLNaGfc.s:2176   .text.adc_interrupt_enable:000000000000007e .L107
C:\Users\CYMR90~1\AppData\Local\Temp\ccLNaGfc.s:2165   .text.adc_interrupt_enable:0000000000000068 .L108
C:\Users\CYMR90~1\AppData\Local\Temp\ccLNaGfc.s:2202   .text.adc_interrupt_enable:00000000000000ae .L109
C:\Users\CYMR90~1\AppData\Local\Temp\ccLNaGfc.s:2280   .text.adc_interrupt_disable:0000000000000094 .L112
C:\Users\CYMR90~1\AppData\Local\Temp\ccLNaGfc.s:2293   .text.adc_interrupt_disable:00000000000000ae .L117
C:\Users\CYMR90~1\AppData\Local\Temp\ccLNaGfc.s:2269   .text.adc_interrupt_disable:000000000000007e .L114
C:\Users\CYMR90~1\AppData\Local\Temp\ccLNaGfc.s:2258   .text.adc_interrupt_disable:0000000000000068 .L115
C:\Users\CYMR90~1\AppData\Local\Temp\ccLNaGfc.s:2296   .text.adc_interrupt_disable:00000000000000b0 .L116
C:\Users\CYMR90~1\AppData\Local\Temp\ccLNaGfc.s:2415   .text.adc_interrupt_flag_get:00000000000000c8 .L119
C:\Users\CYMR90~1\AppData\Local\Temp\ccLNaGfc.s:2439   .text.adc_interrupt_flag_get:00000000000000f4 .L130
C:\Users\CYMR90~1\AppData\Local\Temp\ccLNaGfc.s:2392   .text.adc_interrupt_flag_get:00000000000000a0 .L121
C:\Users\CYMR90~1\AppData\Local\Temp\ccLNaGfc.s:2346   .text.adc_interrupt_flag_get:0000000000000050 .L122
C:\Users\CYMR90~1\AppData\Local\Temp\ccLNaGfc.s:2369   .text.adc_interrupt_flag_get:0000000000000078 .L123
C:\Users\CYMR90~1\AppData\Local\Temp\ccLNaGfc.s:2443   .text.adc_interrupt_flag_get:00000000000000f8 .L131
C:\Users\CYMR90~1\AppData\Local\Temp\ccLNaGfc.s:2447   .text.adc_interrupt_flag_get:00000000000000fc .L132
C:\Users\CYMR90~1\AppData\Local\Temp\ccLNaGfc.s:2451   .text.adc_interrupt_flag_get:0000000000000100 .L133
C:\Users\CYMR90~1\AppData\Local\Temp\ccLNaGfc.s:2455   .text.adc_interrupt_flag_get:0000000000000104 .L134
C:\Users\CYMR90~1\AppData\Local\Temp\ccLNaGfc.s:2458   .text.adc_interrupt_flag_get:0000000000000106 .L125
C:\Users\CYMR90~1\AppData\Local\Temp\ccLNaGfc.s:3570   .debug_abbrev:0000000000000000 .Ldebug_abbrev0
C:\Users\CYMR90~1\AppData\Local\Temp\ccLNaGfc.s:24562  .debug_str:000000000000b128 .LASF5685
C:\Users\CYMR90~1\AppData\Local\Temp\ccLNaGfc.s:31377  .debug_str:0000000000026481 .LASF5686
C:\Users\CYMR90~1\AppData\Local\Temp\ccLNaGfc.s:27490  .debug_str:0000000000016c07 .LASF5687
C:\Users\CYMR90~1\AppData\Local\Temp\ccLNaGfc.s:4033   .debug_ranges:0000000000000000 .Ldebug_ranges0
C:\Users\CYMR90~1\AppData\Local\Temp\ccLNaGfc.s:21786  .debug_line:0000000000000000 .Ldebug_line0
C:\Users\CYMR90~1\AppData\Local\Temp\ccLNaGfc.s:4111   .debug_macro:0000000000000000 .Ldebug_macro0
C:\Users\CYMR90~1\AppData\Local\Temp\ccLNaGfc.s:33121  .debug_str:000000000002d36b .LASF5569
C:\Users\CYMR90~1\AppData\Local\Temp\ccLNaGfc.s:21804  .debug_str:0000000000000123 .LASF5570
C:\Users\CYMR90~1\AppData\Local\Temp\ccLNaGfc.s:22734  .debug_str:0000000000003c83 .LASF5571
C:\Users\CYMR90~1\AppData\Local\Temp\ccLNaGfc.s:30821  .debug_str:0000000000023fac .LASF5572
C:\Users\CYMR90~1\AppData\Local\Temp\ccLNaGfc.s:24038  .debug_str:00000000000090c1 .LASF5575
C:\Users\CYMR90~1\AppData\Local\Temp\ccLNaGfc.s:27396  .debug_str:00000000000165be .LASF5573
C:\Users\CYMR90~1\AppData\Local\Temp\ccLNaGfc.s:29303  .debug_str:000000000001e436 .LASF5574
C:\Users\CYMR90~1\AppData\Local\Temp\ccLNaGfc.s:25368  .debug_str:000000000000e51d .LASF5576
C:\Users\CYMR90~1\AppData\Local\Temp\ccLNaGfc.s:30929  .debug_str:0000000000024644 .LASF5577
C:\Users\CYMR90~1\AppData\Local\Temp\ccLNaGfc.s:29723  .debug_str:000000000001fd9b .LASF5578
C:\Users\CYMR90~1\AppData\Local\Temp\ccLNaGfc.s:28163  .debug_str:0000000000019838 .LASF5579
C:\Users\CYMR90~1\AppData\Local\Temp\ccLNaGfc.s:21920  .debug_str:000000000000080e .LASF5580
C:\Users\CYMR90~1\AppData\Local\Temp\ccLNaGfc.s:31281  .debug_str:0000000000025e89 .LASF5581
C:\Users\CYMR90~1\AppData\Local\Temp\ccLNaGfc.s:29745  .debug_str:000000000001ff05 .LASF855
C:\Users\CYMR90~1\AppData\Local\Temp\ccLNaGfc.s:27162  .debug_str:0000000000015704 .LASF5582
C:\Users\CYMR90~1\AppData\Local\Temp\ccLNaGfc.s:31209  .debug_str:000000000002594e .LASF5583
C:\Users\CYMR90~1\AppData\Local\Temp\ccLNaGfc.s:31395  .debug_str:00000000000265b8 .LASF5584
C:\Users\CYMR90~1\AppData\Local\Temp\ccLNaGfc.s:23834  .debug_str:0000000000008336 .LASF5585
C:\Users\CYMR90~1\AppData\Local\Temp\ccLNaGfc.s:25356  .debug_str:000000000000e474 .LASF5586
C:\Users\CYMR90~1\AppData\Local\Temp\ccLNaGfc.s:22026  .debug_str:0000000000000f7d .LASF5587
C:\Users\CYMR90~1\AppData\Local\Temp\ccLNaGfc.s:30969  .debug_str:00000000000248eb .LASF5588
C:\Users\CYMR90~1\AppData\Local\Temp\ccLNaGfc.s:24410  .debug_str:000000000000a7ec .LASF5589
C:\Users\CYMR90~1\AppData\Local\Temp\ccLNaGfc.s:24572  .debug_str:000000000000b25e .LASF5590
C:\Users\CYMR90~1\AppData\Local\Temp\ccLNaGfc.s:32143  .debug_str:000000000002954c .LASF5591
C:\Users\CYMR90~1\AppData\Local\Temp\ccLNaGfc.s:29503  .debug_str:000000000001f03a .LASF5592
C:\Users\CYMR90~1\AppData\Local\Temp\ccLNaGfc.s:30349  .debug_str:00000000000223b1 .LASF5593
C:\Users\CYMR90~1\AppData\Local\Temp\ccLNaGfc.s:33101  .debug_str:000000000002d24f .LASF5594
C:\Users\CYMR90~1\AppData\Local\Temp\ccLNaGfc.s:31569  .debug_str:0000000000026fff .LASF5595
C:\Users\CYMR90~1\AppData\Local\Temp\ccLNaGfc.s:23738  .debug_str:0000000000007c45 .LASF5596
C:\Users\CYMR90~1\AppData\Local\Temp\ccLNaGfc.s:27312  .debug_str:0000000000016067 .LASF5597
C:\Users\CYMR90~1\AppData\Local\Temp\ccLNaGfc.s:22572  .debug_str:00000000000031d6 .LASF5598
C:\Users\CYMR90~1\AppData\Local\Temp\ccLNaGfc.s:25968  .debug_str:0000000000010ab2 .LASF5599
C:\Users\CYMR90~1\AppData\Local\Temp\ccLNaGfc.s:31465  .debug_str:0000000000026994 .LASF5600
C:\Users\CYMR90~1\AppData\Local\Temp\ccLNaGfc.s:23642  .debug_str:000000000000761d .LASF5601
C:\Users\CYMR90~1\AppData\Local\Temp\ccLNaGfc.s:24900  .debug_str:000000000000c7b3 .LASF5602
C:\Users\CYMR90~1\AppData\Local\Temp\ccLNaGfc.s:33091  .debug_str:000000000002d112 .LASF5603
C:\Users\CYMR90~1\AppData\Local\Temp\ccLNaGfc.s:23448  .debug_str:000000000000696e .LASF5604
C:\Users\CYMR90~1\AppData\Local\Temp\ccLNaGfc.s:32069  .debug_str:00000000000290be .LASF5605
C:\Users\CYMR90~1\AppData\Local\Temp\ccLNaGfc.s:31997  .debug_str:0000000000028cb4 .LASF5606
C:\Users\CYMR90~1\AppData\Local\Temp\ccLNaGfc.s:30049  .debug_str:000000000002113d .LASF5607
C:\Users\CYMR90~1\AppData\Local\Temp\ccLNaGfc.s:22940  .debug_str:0000000000004a3d .LASF5608
C:\Users\CYMR90~1\AppData\Local\Temp\ccLNaGfc.s:28385  .debug_str:000000000001a7dd .LASF5609
C:\Users\CYMR90~1\AppData\Local\Temp\ccLNaGfc.s:25182  .debug_str:000000000000da57 .LASF5610
C:\Users\CYMR90~1\AppData\Local\Temp\ccLNaGfc.s:32935  .debug_str:000000000002c722 .LASF5611
C:\Users\CYMR90~1\AppData\Local\Temp\ccLNaGfc.s:28099  .debug_str:0000000000019494 .LASF5612
C:\Users\CYMR90~1\AppData\Local\Temp\ccLNaGfc.s:23666  .debug_str:0000000000007764 .LASF5613
C:\Users\CYMR90~1\AppData\Local\Temp\ccLNaGfc.s:32903  .debug_str:000000000002c51b .LASF5614
C:\Users\CYMR90~1\AppData\Local\Temp\ccLNaGfc.s:30335  .debug_str:00000000000222d8 .LASF5615
C:\Users\CYMR90~1\AppData\Local\Temp\ccLNaGfc.s:22826  .debug_str:000000000000426f .LASF5616
C:\Users\CYMR90~1\AppData\Local\Temp\ccLNaGfc.s:30925  .debug_str:000000000002461a .LASF5617
C:\Users\CYMR90~1\AppData\Local\Temp\ccLNaGfc.s:24644  .debug_str:000000000000b654 .LASF5618
C:\Users\CYMR90~1\AppData\Local\Temp\ccLNaGfc.s:29299  .debug_str:000000000001e408 .LASF5619
C:\Users\CYMR90~1\AppData\Local\Temp\ccLNaGfc.s:32755  .debug_str:000000000002bb01 .LASF5623
C:\Users\CYMR90~1\AppData\Local\Temp\ccLNaGfc.s:2477   .text.adc_interrupt_flag_clear:0000000000000000 .LFB383
C:\Users\CYMR90~1\AppData\Local\Temp\ccLNaGfc.s:2503   .text.adc_interrupt_flag_clear:0000000000000020 .LFE383
C:\Users\CYMR90~1\AppData\Local\Temp\ccLNaGfc.s:26904  .debug_str:0000000000014655 .LASF5620
C:\Users\CYMR90~1\AppData\Local\Temp\ccLNaGfc.s:24502  .debug_str:000000000000ad47 .LASF5629
C:\Users\CYMR90~1\AppData\Local\Temp\ccLNaGfc.s:2313   .text.adc_interrupt_flag_get:0000000000000000 .LFB382
C:\Users\CYMR90~1\AppData\Local\Temp\ccLNaGfc.s:2470   .text.adc_interrupt_flag_get:0000000000000112 .LFE382
C:\Users\CYMR90~1\AppData\Local\Temp\ccLNaGfc.s:22864  .debug_str:0000000000004512 .LASF5621
C:\Users\CYMR90~1\AppData\Local\Temp\ccLNaGfc.s:29963  .debug_str:0000000000020c11 .LASF5622
C:\Users\CYMR90~1\AppData\Local\Temp\ccLNaGfc.s:26014  .debug_str:0000000000010d9b .LASF5624
C:\Users\CYMR90~1\AppData\Local\Temp\ccLNaGfc.s:2219   .text.adc_interrupt_disable:0000000000000000 .LFB381
C:\Users\CYMR90~1\AppData\Local\Temp\ccLNaGfc.s:2306   .text.adc_interrupt_disable:00000000000000b8 .LFE381
C:\Users\CYMR90~1\AppData\Local\Temp\ccLNaGfc.s:28517  .debug_str:000000000001b0ae .LASF5625
C:\Users\CYMR90~1\AppData\Local\Temp\ccLNaGfc.s:22156  .debug_str:0000000000001775 .LASF5626
C:\Users\CYMR90~1\AppData\Local\Temp\ccLNaGfc.s:2126   .text.adc_interrupt_enable:0000000000000000 .LFB380
C:\Users\CYMR90~1\AppData\Local\Temp\ccLNaGfc.s:2212   .text.adc_interrupt_enable:00000000000000b6 .LFE380
C:\Users\CYMR90~1\AppData\Local\Temp\ccLNaGfc.s:26884  .debug_str:0000000000014563 .LASF5627
C:\Users\CYMR90~1\AppData\Local\Temp\ccLNaGfc.s:2093   .text.adc_flag_clear:0000000000000000 .LFB379
C:\Users\CYMR90~1\AppData\Local\Temp\ccLNaGfc.s:2119   .text.adc_flag_clear:0000000000000020 .LFE379
C:\Users\CYMR90~1\AppData\Local\Temp\ccLNaGfc.s:24398  .debug_str:000000000000a71c .LASF5628
C:\Users\CYMR90~1\AppData\Local\Temp\ccLNaGfc.s:23732  .debug_str:0000000000007bab .LASF5630
C:\Users\CYMR90~1\AppData\Local\Temp\ccLNaGfc.s:2051   .text.adc_flag_get:0000000000000000 .LFB378
C:\Users\CYMR90~1\AppData\Local\Temp\ccLNaGfc.s:2086   .text.adc_flag_get:000000000000002e .LFE378
C:\Users\CYMR90~1\AppData\Local\Temp\ccLNaGfc.s:23322  .debug_str:00000000000061e8 .LASF5631
C:\Users\CYMR90~1\AppData\Local\Temp\ccLNaGfc.s:30545  .debug_str:0000000000022eff .LASF5632
C:\Users\CYMR90~1\AppData\Local\Temp\ccLNaGfc.s:2018   .text.adc_oversample_mode_disable:0000000000000000 .LFB377
C:\Users\CYMR90~1\AppData\Local\Temp\ccLNaGfc.s:2044   .text.adc_oversample_mode_disable:0000000000000024 .LFE377
C:\Users\CYMR90~1\AppData\Local\Temp\ccLNaGfc.s:32301  .debug_str:0000000000029f71 .LASF5633
C:\Users\CYMR90~1\AppData\Local\Temp\ccLNaGfc.s:1985   .text.adc_oversample_mode_enable:0000000000000000 .LFB376
C:\Users\CYMR90~1\AppData\Local\Temp\ccLNaGfc.s:2011   .text.adc_oversample_mode_enable:0000000000000026 .LFE376
C:\Users\CYMR90~1\AppData\Local\Temp\ccLNaGfc.s:32085  .debug_str:00000000000291a6 .LASF5634
C:\Users\CYMR90~1\AppData\Local\Temp\ccLNaGfc.s:1908   .text.adc_oversample_mode_config:0000000000000000 .LFB375
C:\Users\CYMR90~1\AppData\Local\Temp\ccLNaGfc.s:1978   .text.adc_oversample_mode_config:0000000000000096 .LFE375
C:\Users\CYMR90~1\AppData\Local\Temp\ccLNaGfc.s:32359  .debug_str:000000000002a2c4 .LASF5635
C:\Users\CYMR90~1\AppData\Local\Temp\ccLNaGfc.s:25950  .debug_str:00000000000109c1 .LASF5636
C:\Users\CYMR90~1\AppData\Local\Temp\ccLNaGfc.s:24438  .debug_str:000000000000a953 .LASF5637
C:\Users\CYMR90~1\AppData\Local\Temp\ccLNaGfc.s:32507  .debug_str:000000000002ab9a .LASF5638
C:\Users\CYMR90~1\AppData\Local\Temp\ccLNaGfc.s:1856   .text.adc_watchdog_threshold_config:0000000000000000 .LFB374
C:\Users\CYMR90~1\AppData\Local\Temp\ccLNaGfc.s:1901   .text.adc_watchdog_threshold_config:0000000000000044 .LFE374
C:\Users\CYMR90~1\AppData\Local\Temp\ccLNaGfc.s:26018  .debug_str:0000000000010dd9 .LASF5639
C:\Users\CYMR90~1\AppData\Local\Temp\ccLNaGfc.s:26486  .debug_str:0000000000012c0c .LASF5640
C:\Users\CYMR90~1\AppData\Local\Temp\ccLNaGfc.s:28661  .debug_str:000000000001ba42 .LASF5641
C:\Users\CYMR90~1\AppData\Local\Temp\ccLNaGfc.s:1821   .text.adc_watchdog_disable:0000000000000000 .LFB373
C:\Users\CYMR90~1\AppData\Local\Temp\ccLNaGfc.s:1849   .text.adc_watchdog_disable:0000000000000028 .LFE373
C:\Users\CYMR90~1\AppData\Local\Temp\ccLNaGfc.s:32009  .debug_str:0000000000028d46 .LASF5642
C:\Users\CYMR90~1\AppData\Local\Temp\ccLNaGfc.s:1732   .text.adc_watchdog_group_channel_enable:0000000000000000 .LFB372
C:\Users\CYMR90~1\AppData\Local\Temp\ccLNaGfc.s:1814   .text.adc_watchdog_group_channel_enable:0000000000000096 .LFE372
C:\Users\CYMR90~1\AppData\Local\Temp\ccLNaGfc.s:23984  .debug_str:0000000000008d11 .LASF5643
C:\Users\CYMR90~1\AppData\Local\Temp\ccLNaGfc.s:26510  .debug_str:0000000000012d95 .LASF5644
C:\Users\CYMR90~1\AppData\Local\Temp\ccLNaGfc.s:1674   .text.adc_watchdog_single_channel_enable:0000000000000000 .LFB371
C:\Users\CYMR90~1\AppData\Local\Temp\ccLNaGfc.s:1725   .text.adc_watchdog_single_channel_enable:000000000000005e .LFE371
C:\Users\CYMR90~1\AppData\Local\Temp\ccLNaGfc.s:22068  .debug_str:00000000000011d2 .LASF5645
C:\Users\CYMR90~1\AppData\Local\Temp\ccLNaGfc.s:29919  .debug_str:00000000000208fb .LASF5646
C:\Users\CYMR90~1\AppData\Local\Temp\ccLNaGfc.s:1587   .text.adc_inserted_data_read:0000000000000000 .LFB370
C:\Users\CYMR90~1\AppData\Local\Temp\ccLNaGfc.s:1667   .text.adc_inserted_data_read:0000000000000088 .LFE370
C:\Users\CYMR90~1\AppData\Local\Temp\ccLNaGfc.s:26758  .debug_str:0000000000013dc4 .LASF5647
C:\Users\CYMR90~1\AppData\Local\Temp\ccLNaGfc.s:29563  .debug_str:000000000001f3c0 .LASF5648
C:\Users\CYMR90~1\AppData\Local\Temp\ccLNaGfc.s:27328  .debug_str:0000000000016188 .LASF5688
C:\Users\CYMR90~1\AppData\Local\Temp\ccLNaGfc.s:1555   .text.adc_routine_data_read:0000000000000000 .LFB369
C:\Users\CYMR90~1\AppData\Local\Temp\ccLNaGfc.s:1580   .text.adc_routine_data_read:000000000000001c .LFE369
C:\Users\CYMR90~1\AppData\Local\Temp\ccLNaGfc.s:26630  .debug_str:00000000000135f5 .LASF5649
C:\Users\CYMR90~1\AppData\Local\Temp\ccLNaGfc.s:1510   .text.adc_resolution_config:0000000000000000 .LFB368
C:\Users\CYMR90~1\AppData\Local\Temp\ccLNaGfc.s:1548   .text.adc_resolution_config:0000000000000040 .LFE368
C:\Users\CYMR90~1\AppData\Local\Temp\ccLNaGfc.s:23508  .debug_str:0000000000006d33 .LASF5650
C:\Users\CYMR90~1\AppData\Local\Temp\ccLNaGfc.s:30845  .debug_str:0000000000024103 .LASF5651
C:\Users\CYMR90~1\AppData\Local\Temp\ccLNaGfc.s:1453   .text.adc_end_of_conversion_config:0000000000000000 .LFB367
C:\Users\CYMR90~1\AppData\Local\Temp\ccLNaGfc.s:1503   .text.adc_end_of_conversion_config:000000000000004e .LFE367
C:\Users\CYMR90~1\AppData\Local\Temp\ccLNaGfc.s:23348  .debug_str:0000000000006376 .LASF5652
C:\Users\CYMR90~1\AppData\Local\Temp\ccLNaGfc.s:24166  .debug_str:000000000000986e .LASF5653
C:\Users\CYMR90~1\AppData\Local\Temp\ccLNaGfc.s:1396   .text.adc_software_trigger_enable:0000000000000000 .LFB366
C:\Users\CYMR90~1\AppData\Local\Temp\ccLNaGfc.s:1446   .text.adc_software_trigger_enable:0000000000000050 .LFE366
C:\Users\CYMR90~1\AppData\Local\Temp\ccLNaGfc.s:23916  .debug_str:0000000000008815 .LASF5654
C:\Users\CYMR90~1\AppData\Local\Temp\ccLNaGfc.s:1315   .text.adc_external_trigger_source_config:0000000000000000 .LFB365
C:\Users\CYMR90~1\AppData\Local\Temp\ccLNaGfc.s:1389   .text.adc_external_trigger_source_config:000000000000008a .LFE365
C:\Users\CYMR90~1\AppData\Local\Temp\ccLNaGfc.s:28007  .debug_str:0000000000018e38 .LASF5655
C:\Users\CYMR90~1\AppData\Local\Temp\ccLNaGfc.s:29261  .debug_str:000000000001e110 .LASF5656
C:\Users\CYMR90~1\AppData\Local\Temp\ccLNaGfc.s:1228   .text.adc_external_trigger_config:0000000000000000 .LFB364
C:\Users\CYMR90~1\AppData\Local\Temp\ccLNaGfc.s:1308   .text.adc_external_trigger_config:0000000000000092 .LFE364
C:\Users\CYMR90~1\AppData\Local\Temp\ccLNaGfc.s:27649  .debug_str:00000000000177f4 .LASF5657
C:\Users\CYMR90~1\AppData\Local\Temp\ccLNaGfc.s:24658  .debug_str:000000000000b7dc .LASF5658
C:\Users\CYMR90~1\AppData\Local\Temp\ccLNaGfc.s:1154   .text.adc_inserted_channel_offset_config:0000000000000000 .LFB363
C:\Users\CYMR90~1\AppData\Local\Temp\ccLNaGfc.s:1221   .text.adc_inserted_channel_offset_config:0000000000000076 .LFE363
C:\Users\CYMR90~1\AppData\Local\Temp\ccLNaGfc.s:30637  .debug_str:00000000000234b1 .LASF5659
C:\Users\CYMR90~1\AppData\Local\Temp\ccLNaGfc.s:27210  .debug_str:00000000000159a8 .LASF5660
C:\Users\CYMR90~1\AppData\Local\Temp\ccLNaGfc.s:30171  .debug_str:000000000002181c .LASF5661
C:\Users\CYMR90~1\AppData\Local\Temp\ccLNaGfc.s:973    .text.adc_inserted_channel_config:0000000000000000 .LFB362
C:\Users\CYMR90~1\AppData\Local\Temp\ccLNaGfc.s:1147   .text.adc_inserted_channel_config:000000000000015c .LFE362
C:\Users\CYMR90~1\AppData\Local\Temp\ccLNaGfc.s:32313  .debug_str:000000000002a03b .LASF5662
C:\Users\CYMR90~1\AppData\Local\Temp\ccLNaGfc.s:30379  .debug_str:0000000000022568 .LASF5663
C:\Users\CYMR90~1\AppData\Local\Temp\ccLNaGfc.s:28701  .debug_str:000000000001bcb5 .LASF5664
C:\Users\CYMR90~1\AppData\Local\Temp\ccLNaGfc.s:25222  .debug_str:000000000000dc95 .LASF5665
C:\Users\CYMR90~1\AppData\Local\Temp\ccLNaGfc.s:765    .text.adc_routine_channel_config:0000000000000000 .LFB361
C:\Users\CYMR90~1\AppData\Local\Temp\ccLNaGfc.s:966    .text.adc_routine_channel_config:0000000000000198 .LFE361
C:\Users\CYMR90~1\AppData\Local\Temp\ccLNaGfc.s:25434  .debug_str:000000000000e948 .LASF5666
C:\Users\CYMR90~1\AppData\Local\Temp\ccLNaGfc.s:650    .text.adc_channel_length_config:0000000000000000 .LFB360
C:\Users\CYMR90~1\AppData\Local\Temp\ccLNaGfc.s:758    .text.adc_channel_length_config:00000000000000d8 .LFE360
C:\Users\CYMR90~1\AppData\Local\Temp\ccLNaGfc.s:32983  .debug_str:000000000002ca7f .LASF5667
C:\Users\CYMR90~1\AppData\Local\Temp\ccLNaGfc.s:31313  .debug_str:0000000000026066 .LASF5668
C:\Users\CYMR90~1\AppData\Local\Temp\ccLNaGfc.s:597    .text.adc_data_alignment_config:0000000000000000 .LFB359
C:\Users\CYMR90~1\AppData\Local\Temp\ccLNaGfc.s:643    .text.adc_data_alignment_config:000000000000004a .LFE359
C:\Users\CYMR90~1\AppData\Local\Temp\ccLNaGfc.s:30977  .debug_str:0000000000024978 .LASF5669
C:\Users\CYMR90~1\AppData\Local\Temp\ccLNaGfc.s:22140  .debug_str:00000000000015ae .LASF5670
C:\Users\CYMR90~1\AppData\Local\Temp\ccLNaGfc.s:562    .text.adc_tempsensor_vrefint_disable:0000000000000000 .LFB358
C:\Users\CYMR90~1\AppData\Local\Temp\ccLNaGfc.s:590    .text.adc_tempsensor_vrefint_disable:000000000000002a .LFE358
C:\Users\CYMR90~1\AppData\Local\Temp\ccLNaGfc.s:22934  .debug_str:00000000000049bd .LASF5671
C:\Users\CYMR90~1\AppData\Local\Temp\ccLNaGfc.s:528    .text.adc_tempsensor_vrefint_enable:0000000000000000 .LFB357
C:\Users\CYMR90~1\AppData\Local\Temp\ccLNaGfc.s:555    .text.adc_tempsensor_vrefint_enable:0000000000000028 .LFE357
C:\Users\CYMR90~1\AppData\Local\Temp\ccLNaGfc.s:25900  .debug_str:00000000000106ae .LASF5672
C:\Users\CYMR90~1\AppData\Local\Temp\ccLNaGfc.s:412    .text.adc_special_function_config:0000000000000000 .LFB356
C:\Users\CYMR90~1\AppData\Local\Temp\ccLNaGfc.s:521    .text.adc_special_function_config:00000000000000cc .LFE356
C:\Users\CYMR90~1\AppData\Local\Temp\ccLNaGfc.s:25286  .debug_str:000000000000e084 .LASF5673
C:\Users\CYMR90~1\AppData\Local\Temp\ccLNaGfc.s:29075  .debug_str:000000000001d5ae .LASF5674
C:\Users\CYMR90~1\AppData\Local\Temp\ccLNaGfc.s:24082  .debug_str:000000000000931e .LASF5675
C:\Users\CYMR90~1\AppData\Local\Temp\ccLNaGfc.s:304    .text.adc_discontinuous_mode_config:0000000000000000 .LFB355
C:\Users\CYMR90~1\AppData\Local\Temp\ccLNaGfc.s:405    .text.adc_discontinuous_mode_config:00000000000000be .LFE355
C:\Users\CYMR90~1\AppData\Local\Temp\ccLNaGfc.s:30755  .debug_str:0000000000023b76 .LASF5676
C:\Users\CYMR90~1\AppData\Local\Temp\ccLNaGfc.s:271    .text.adc_dma_request_after_last_disable:0000000000000000 .LFB354
C:\Users\CYMR90~1\AppData\Local\Temp\ccLNaGfc.s:297    .text.adc_dma_request_after_last_disable:0000000000000022 .LFE354
C:\Users\CYMR90~1\AppData\Local\Temp\ccLNaGfc.s:24632  .debug_str:000000000000b5ab .LASF5677
C:\Users\CYMR90~1\AppData\Local\Temp\ccLNaGfc.s:238    .text.adc_dma_request_after_last_enable:0000000000000000 .LFB353
C:\Users\CYMR90~1\AppData\Local\Temp\ccLNaGfc.s:264    .text.adc_dma_request_after_last_enable:0000000000000022 .LFE353
C:\Users\CYMR90~1\AppData\Local\Temp\ccLNaGfc.s:32603  .debug_str:000000000002b168 .LASF5678
C:\Users\CYMR90~1\AppData\Local\Temp\ccLNaGfc.s:205    .text.adc_dma_mode_disable:0000000000000000 .LFB352
C:\Users\CYMR90~1\AppData\Local\Temp\ccLNaGfc.s:231    .text.adc_dma_mode_disable:0000000000000022 .LFE352
C:\Users\CYMR90~1\AppData\Local\Temp\ccLNaGfc.s:23884  .debug_str:000000000000865c .LASF5679
C:\Users\CYMR90~1\AppData\Local\Temp\ccLNaGfc.s:172    .text.adc_dma_mode_enable:0000000000000000 .LFB351
C:\Users\CYMR90~1\AppData\Local\Temp\ccLNaGfc.s:198    .text.adc_dma_mode_enable:0000000000000022 .LFE351
C:\Users\CYMR90~1\AppData\Local\Temp\ccLNaGfc.s:31435  .debug_str:00000000000267d5 .LASF5680
C:\Users\CYMR90~1\AppData\Local\Temp\ccLNaGfc.s:139    .text.adc_disable:0000000000000000 .LFB350
C:\Users\CYMR90~1\AppData\Local\Temp\ccLNaGfc.s:165    .text.adc_disable:0000000000000020 .LFE350
C:\Users\CYMR90~1\AppData\Local\Temp\ccLNaGfc.s:31135  .debug_str:00000000000253f0 .LASF5681
C:\Users\CYMR90~1\AppData\Local\Temp\ccLNaGfc.s:97     .text.adc_enable:0000000000000000 .LFB349
C:\Users\CYMR90~1\AppData\Local\Temp\ccLNaGfc.s:132    .text.adc_enable:000000000000002e .LFE349
C:\Users\CYMR90~1\AppData\Local\Temp\ccLNaGfc.s:30889  .debug_str:000000000002436e .LASF5682
C:\Users\CYMR90~1\AppData\Local\Temp\ccLNaGfc.s:52     .text.adc_clock_config:0000000000000000 .LFB348
C:\Users\CYMR90~1\AppData\Local\Temp\ccLNaGfc.s:90     .text.adc_clock_config:0000000000000048 .LFE348
C:\Users\CYMR90~1\AppData\Local\Temp\ccLNaGfc.s:22126  .debug_str:0000000000001516 .LASF5683
C:\Users\CYMR90~1\AppData\Local\Temp\ccLNaGfc.s:26628  .debug_str:00000000000135ea .LASF5684
C:\Users\CYMR90~1\AppData\Local\Temp\ccLNaGfc.s:14     .text.adc_deinit:0000000000000000 .LFB347
C:\Users\CYMR90~1\AppData\Local\Temp\ccLNaGfc.s:45     .text.adc_deinit:000000000000002e .LFE347
C:\Users\CYMR90~1\AppData\Local\Temp\ccLNaGfc.s:2512   .debug_info:0000000000000000 .Ldebug_info0
C:\Users\CYMR90~1\AppData\Local\Temp\ccLNaGfc.s:4771   .debug_macro:0000000000000000 .Ldebug_macro2
C:\Users\CYMR90~1\AppData\Local\Temp\ccLNaGfc.s:27124  .debug_str:00000000000154fc .LASF314
C:\Users\CYMR90~1\AppData\Local\Temp\ccLNaGfc.s:27573  .debug_str:0000000000017384 .LASF315
C:\Users\CYMR90~1\AppData\Local\Temp\ccLNaGfc.s:5718   .debug_macro:0000000000000000 .Ldebug_macro3
C:\Users\CYMR90~1\AppData\Local\Temp\ccLNaGfc.s:23986  .debug_str:0000000000008d1f .LASF369
C:\Users\CYMR90~1\AppData\Local\Temp\ccLNaGfc.s:23550  .debug_str:0000000000007002 .LASF370
C:\Users\CYMR90~1\AppData\Local\Temp\ccLNaGfc.s:27827  .debug_str:0000000000018304 .LASF371
C:\Users\CYMR90~1\AppData\Local\Temp\ccLNaGfc.s:5882   .debug_macro:0000000000000000 .Ldebug_macro4
C:\Users\CYMR90~1\AppData\Local\Temp\ccLNaGfc.s:5902   .debug_macro:0000000000000000 .Ldebug_macro5
C:\Users\CYMR90~1\AppData\Local\Temp\ccLNaGfc.s:26474  .debug_str:0000000000012b59 .LASF390
C:\Users\CYMR90~1\AppData\Local\Temp\ccLNaGfc.s:5946   .debug_macro:0000000000000000 .Ldebug_macro6
C:\Users\CYMR90~1\AppData\Local\Temp\ccLNaGfc.s:5960   .debug_macro:0000000000000000 .Ldebug_macro7
C:\Users\CYMR90~1\AppData\Local\Temp\ccLNaGfc.s:6028   .debug_macro:0000000000000000 .Ldebug_macro8
C:\Users\CYMR90~1\AppData\Local\Temp\ccLNaGfc.s:6054   .debug_macro:0000000000000000 .Ldebug_macro9
C:\Users\CYMR90~1\AppData\Local\Temp\ccLNaGfc.s:6083   .debug_macro:0000000000000000 .Ldebug_macro10
C:\Users\CYMR90~1\AppData\Local\Temp\ccLNaGfc.s:27963  .debug_str:0000000000018b3d .LASF433
C:\Users\CYMR90~1\AppData\Local\Temp\ccLNaGfc.s:6097   .debug_macro:0000000000000000 .Ldebug_macro11
C:\Users\CYMR90~1\AppData\Local\Temp\ccLNaGfc.s:6141   .debug_macro:0000000000000000 .Ldebug_macro12
C:\Users\CYMR90~1\AppData\Local\Temp\ccLNaGfc.s:6167   .debug_macro:0000000000000000 .Ldebug_macro13
C:\Users\CYMR90~1\AppData\Local\Temp\ccLNaGfc.s:31559  .debug_str:0000000000026f7d .LASF569
C:\Users\CYMR90~1\AppData\Local\Temp\ccLNaGfc.s:6538   .debug_macro:0000000000000000 .Ldebug_macro14
C:\Users\CYMR90~1\AppData\Local\Temp\ccLNaGfc.s:25994  .debug_str:0000000000010c1f .LASF572
C:\Users\CYMR90~1\AppData\Local\Temp\ccLNaGfc.s:30893  .debug_str:0000000000024396 .LASF573
C:\Users\CYMR90~1\AppData\Local\Temp\ccLNaGfc.s:6549   .debug_macro:0000000000000000 .Ldebug_macro15
C:\Users\CYMR90~1\AppData\Local\Temp\ccLNaGfc.s:6563   .debug_macro:0000000000000000 .Ldebug_macro16
C:\Users\CYMR90~1\AppData\Local\Temp\ccLNaGfc.s:23718  .debug_str:0000000000007ac0 .LASF578
C:\Users\CYMR90~1\AppData\Local\Temp\ccLNaGfc.s:6595   .debug_macro:0000000000000000 .Ldebug_macro17
C:\Users\CYMR90~1\AppData\Local\Temp\ccLNaGfc.s:6621   .debug_macro:0000000000000000 .Ldebug_macro18
C:\Users\CYMR90~1\AppData\Local\Temp\ccLNaGfc.s:6632   .debug_macro:0000000000000000 .Ldebug_macro19
C:\Users\CYMR90~1\AppData\Local\Temp\ccLNaGfc.s:6676   .debug_macro:0000000000000000 .Ldebug_macro20
C:\Users\CYMR90~1\AppData\Local\Temp\ccLNaGfc.s:6846   .debug_macro:0000000000000000 .Ldebug_macro21
C:\Users\CYMR90~1\AppData\Local\Temp\ccLNaGfc.s:6857   .debug_macro:0000000000000000 .Ldebug_macro22
C:\Users\CYMR90~1\AppData\Local\Temp\ccLNaGfc.s:26480  .debug_str:0000000000012bb2 .LASF675
C:\Users\CYMR90~1\AppData\Local\Temp\ccLNaGfc.s:6913   .debug_macro:0000000000000000 .Ldebug_macro23
C:\Users\CYMR90~1\AppData\Local\Temp\ccLNaGfc.s:6930   .debug_macro:0000000000000000 .Ldebug_macro24
C:\Users\CYMR90~1\AppData\Local\Temp\ccLNaGfc.s:29715  .debug_str:000000000001fd2b .LASF693
C:\Users\CYMR90~1\AppData\Local\Temp\ccLNaGfc.s:27833  .debug_str:0000000000018335 .LASF694
C:\Users\CYMR90~1\AppData\Local\Temp\ccLNaGfc.s:6974   .debug_macro:0000000000000000 .Ldebug_macro25
C:\Users\CYMR90~1\AppData\Local\Temp\ccLNaGfc.s:23008  .debug_str:0000000000004ef9 .LASF700
C:\Users\CYMR90~1\AppData\Local\Temp\ccLNaGfc.s:24126  .debug_str:00000000000095c1 .LASF701
C:\Users\CYMR90~1\AppData\Local\Temp\ccLNaGfc.s:6994   .debug_macro:0000000000000000 .Ldebug_macro26
C:\Users\CYMR90~1\AppData\Local\Temp\ccLNaGfc.s:7005   .debug_macro:0000000000000000 .Ldebug_macro27
C:\Users\CYMR90~1\AppData\Local\Temp\ccLNaGfc.s:7049   .debug_macro:0000000000000000 .Ldebug_macro28
C:\Users\CYMR90~1\AppData\Local\Temp\ccLNaGfc.s:23378  .debug_str:0000000000006542 .LASF749
C:\Users\CYMR90~1\AppData\Local\Temp\ccLNaGfc.s:7150   .debug_macro:0000000000000000 .Ldebug_macro29
C:\Users\CYMR90~1\AppData\Local\Temp\ccLNaGfc.s:7167   .debug_macro:0000000000000000 .Ldebug_macro30
C:\Users\CYMR90~1\AppData\Local\Temp\ccLNaGfc.s:21854  .debug_str:0000000000000420 .LASF763
C:\Users\CYMR90~1\AppData\Local\Temp\ccLNaGfc.s:23194  .debug_str:0000000000005a6c .LASF764
C:\Users\CYMR90~1\AppData\Local\Temp\ccLNaGfc.s:7199   .debug_macro:0000000000000000 .Ldebug_macro31
C:\Users\CYMR90~1\AppData\Local\Temp\ccLNaGfc.s:7213   .debug_macro:0000000000000000 .Ldebug_macro32
C:\Users\CYMR90~1\AppData\Local\Temp\ccLNaGfc.s:7383   .debug_macro:0000000000000000 .Ldebug_macro33
C:\Users\CYMR90~1\AppData\Local\Temp\ccLNaGfc.s:25648  .debug_str:000000000000f66f .LASF850
C:\Users\CYMR90~1\AppData\Local\Temp\ccLNaGfc.s:28051  .debug_str:00000000000190e1 .LASF851
C:\Users\CYMR90~1\AppData\Local\Temp\ccLNaGfc.s:7469   .debug_macro:0000000000000000 .Ldebug_macro34
C:\Users\CYMR90~1\AppData\Local\Temp\ccLNaGfc.s:7594   .debug_macro:0000000000000000 .Ldebug_macro35
C:\Users\CYMR90~1\AppData\Local\Temp\ccLNaGfc.s:22138  .debug_str:000000000000159a .LASF951
C:\Users\CYMR90~1\AppData\Local\Temp\ccLNaGfc.s:7806   .debug_macro:0000000000000000 .Ldebug_macro36
C:\Users\CYMR90~1\AppData\Local\Temp\ccLNaGfc.s:23870  .debug_str:000000000000859c .LASF957
C:\Users\CYMR90~1\AppData\Local\Temp\ccLNaGfc.s:23432  .debug_str:0000000000006879 .LASF958
C:\Users\CYMR90~1\AppData\Local\Temp\ccLNaGfc.s:22306  .debug_str:000000000000213a .LASF959
C:\Users\CYMR90~1\AppData\Local\Temp\ccLNaGfc.s:7826   .debug_macro:0000000000000000 .Ldebug_macro37
C:\Users\CYMR90~1\AppData\Local\Temp\ccLNaGfc.s:7918   .debug_macro:0000000000000000 .Ldebug_macro38
C:\Users\CYMR90~1\AppData\Local\Temp\ccLNaGfc.s:9564   .debug_macro:0000000000000000 .Ldebug_macro39
C:\Users\CYMR90~1\AppData\Local\Temp\ccLNaGfc.s:9656   .debug_macro:0000000000000000 .Ldebug_macro40
C:\Users\CYMR90~1\AppData\Local\Temp\ccLNaGfc.s:9712   .debug_macro:0000000000000000 .Ldebug_macro41
C:\Users\CYMR90~1\AppData\Local\Temp\ccLNaGfc.s:9726   .debug_macro:0000000000000000 .Ldebug_macro42
C:\Users\CYMR90~1\AppData\Local\Temp\ccLNaGfc.s:27356  .debug_str:0000000000016373 .LASF1655
C:\Users\CYMR90~1\AppData\Local\Temp\ccLNaGfc.s:24254  .debug_str:0000000000009e27 .LASF1656
C:\Users\CYMR90~1\AppData\Local\Temp\ccLNaGfc.s:9950   .debug_macro:0000000000000000 .Ldebug_macro43
C:\Users\CYMR90~1\AppData\Local\Temp\ccLNaGfc.s:9997   .debug_macro:0000000000000000 .Ldebug_macro44
C:\Users\CYMR90~1\AppData\Local\Temp\ccLNaGfc.s:10152  .debug_macro:0000000000000000 .Ldebug_macro45
C:\Users\CYMR90~1\AppData\Local\Temp\ccLNaGfc.s:10208  .debug_macro:0000000000000000 .Ldebug_macro46
C:\Users\CYMR90~1\AppData\Local\Temp\ccLNaGfc.s:10219  .debug_macro:0000000000000000 .Ldebug_macro47
C:\Users\CYMR90~1\AppData\Local\Temp\ccLNaGfc.s:32339  .debug_str:000000000002a1cf .LASF1782
C:\Users\CYMR90~1\AppData\Local\Temp\ccLNaGfc.s:28249  .debug_str:0000000000019e5d .LASF1783
C:\Users\CYMR90~1\AppData\Local\Temp\ccLNaGfc.s:10350  .debug_macro:0000000000000000 .Ldebug_macro48
C:\Users\CYMR90~1\AppData\Local\Temp\ccLNaGfc.s:10634  .debug_macro:0000000000000000 .Ldebug_macro49
C:\Users\CYMR90~1\AppData\Local\Temp\ccLNaGfc.s:10663  .debug_macro:0000000000000000 .Ldebug_macro50
C:\Users\CYMR90~1\AppData\Local\Temp\ccLNaGfc.s:10740  .debug_macro:0000000000000000 .Ldebug_macro51
C:\Users\CYMR90~1\AppData\Local\Temp\ccLNaGfc.s:11273  .debug_macro:0000000000000000 .Ldebug_macro52
C:\Users\CYMR90~1\AppData\Local\Temp\ccLNaGfc.s:11296  .debug_macro:0000000000000000 .Ldebug_macro53
C:\Users\CYMR90~1\AppData\Local\Temp\ccLNaGfc.s:11562  .debug_macro:0000000000000000 .Ldebug_macro54
C:\Users\CYMR90~1\AppData\Local\Temp\ccLNaGfc.s:12041  .debug_macro:0000000000000000 .Ldebug_macro55
C:\Users\CYMR90~1\AppData\Local\Temp\ccLNaGfc.s:12370  .debug_macro:0000000000000000 .Ldebug_macro56
C:\Users\CYMR90~1\AppData\Local\Temp\ccLNaGfc.s:12459  .debug_macro:0000000000000000 .Ldebug_macro57
C:\Users\CYMR90~1\AppData\Local\Temp\ccLNaGfc.s:13274  .debug_macro:0000000000000000 .Ldebug_macro58
C:\Users\CYMR90~1\AppData\Local\Temp\ccLNaGfc.s:13465  .debug_macro:0000000000000000 .Ldebug_macro59
C:\Users\CYMR90~1\AppData\Local\Temp\ccLNaGfc.s:13968  .debug_macro:0000000000000000 .Ldebug_macro60
C:\Users\CYMR90~1\AppData\Local\Temp\ccLNaGfc.s:14114  .debug_macro:0000000000000000 .Ldebug_macro61
C:\Users\CYMR90~1\AppData\Local\Temp\ccLNaGfc.s:14644  .debug_macro:0000000000000000 .Ldebug_macro62
C:\Users\CYMR90~1\AppData\Local\Temp\ccLNaGfc.s:15066  .debug_macro:0000000000000000 .Ldebug_macro63
C:\Users\CYMR90~1\AppData\Local\Temp\ccLNaGfc.s:17840  .debug_macro:0000000000000000 .Ldebug_macro64
C:\Users\CYMR90~1\AppData\Local\Temp\ccLNaGfc.s:18916  .debug_macro:0000000000000000 .Ldebug_macro65
C:\Users\CYMR90~1\AppData\Local\Temp\ccLNaGfc.s:19185  .debug_macro:0000000000000000 .Ldebug_macro66
C:\Users\CYMR90~1\AppData\Local\Temp\ccLNaGfc.s:19457  .debug_macro:0000000000000000 .Ldebug_macro67
C:\Users\CYMR90~1\AppData\Local\Temp\ccLNaGfc.s:20485  .debug_macro:0000000000000000 .Ldebug_macro68
C:\Users\CYMR90~1\AppData\Local\Temp\ccLNaGfc.s:20529  .debug_macro:0000000000000000 .Ldebug_macro69
C:\Users\CYMR90~1\AppData\Local\Temp\ccLNaGfc.s:21155  .debug_macro:0000000000000000 .Ldebug_macro70
C:\Users\CYMR90~1\AppData\Local\Temp\ccLNaGfc.s:21214  .debug_macro:0000000000000000 .Ldebug_macro71
C:\Users\CYMR90~1\AppData\Local\Temp\ccLNaGfc.s:32739  .debug_str:000000000002b9e9 .LASF5556
C:\Users\CYMR90~1\AppData\Local\Temp\ccLNaGfc.s:30789  .debug_str:0000000000023db6 .LASF5557
C:\Users\CYMR90~1\AppData\Local\Temp\ccLNaGfc.s:23140  .debug_str:000000000000570c .LASF5558
C:\Users\CYMR90~1\AppData\Local\Temp\ccLNaGfc.s:25068  .debug_str:000000000000d27e .LASF5559
C:\Users\CYMR90~1\AppData\Local\Temp\ccLNaGfc.s:26692  .debug_str:00000000000139ac .LASF5560
C:\Users\CYMR90~1\AppData\Local\Temp\ccLNaGfc.s:29781  .debug_str:000000000002011e .LASF5561
C:\Users\CYMR90~1\AppData\Local\Temp\ccLNaGfc.s:29991  .debug_str:0000000000020d9c .LASF5562
C:\Users\CYMR90~1\AppData\Local\Temp\ccLNaGfc.s:24148  .debug_str:0000000000009700 .LASF5563
C:\Users\CYMR90~1\AppData\Local\Temp\ccLNaGfc.s:25380  .debug_str:000000000000e5c1 .LASF5564
C:\Users\CYMR90~1\AppData\Local\Temp\ccLNaGfc.s:26178  .debug_str:0000000000011748 .LASF5565
C:\Users\CYMR90~1\AppData\Local\Temp\ccLNaGfc.s:31685  .debug_str:00000000000277c3 .LASF5566
C:\Users\CYMR90~1\AppData\Local\Temp\ccLNaGfc.s:24654  .debug_str:000000000000b778 .LASF5567
C:\Users\CYMR90~1\AppData\Local\Temp\ccLNaGfc.s:25762  .debug_str:000000000000fdbb .LASF5568
C:\Users\CYMR90~1\AppData\Local\Temp\ccLNaGfc.s:23174  .debug_str:0000000000005915 .LASF0
C:\Users\CYMR90~1\AppData\Local\Temp\ccLNaGfc.s:27553  .debug_str:0000000000017269 .LASF1
C:\Users\CYMR90~1\AppData\Local\Temp\ccLNaGfc.s:25818  .debug_str:0000000000010192 .LASF2
C:\Users\CYMR90~1\AppData\Local\Temp\ccLNaGfc.s:25876  .debug_str:000000000001054c .LASF3
C:\Users\CYMR90~1\AppData\Local\Temp\ccLNaGfc.s:27166  .debug_str:0000000000015722 .LASF4
C:\Users\CYMR90~1\AppData\Local\Temp\ccLNaGfc.s:32737  .debug_str:000000000002b9dd .LASF5
C:\Users\CYMR90~1\AppData\Local\Temp\ccLNaGfc.s:23404  .debug_str:00000000000066ea .LASF6
C:\Users\CYMR90~1\AppData\Local\Temp\ccLNaGfc.s:32059  .debug_str:0000000000029047 .LASF7
C:\Users\CYMR90~1\AppData\Local\Temp\ccLNaGfc.s:31011  .debug_str:0000000000024b98 .LASF8
C:\Users\CYMR90~1\AppData\Local\Temp\ccLNaGfc.s:28909  .debug_str:000000000001c954 .LASF9
C:\Users\CYMR90~1\AppData\Local\Temp\ccLNaGfc.s:28245  .debug_str:0000000000019e24 .LASF10
C:\Users\CYMR90~1\AppData\Local\Temp\ccLNaGfc.s:28105  .debug_str:00000000000194cc .LASF11
C:\Users\CYMR90~1\AppData\Local\Temp\ccLNaGfc.s:32581  .debug_str:000000000002b00b .LASF12
C:\Users\CYMR90~1\AppData\Local\Temp\ccLNaGfc.s:28117  .debug_str:0000000000019580 .LASF13
C:\Users\CYMR90~1\AppData\Local\Temp\ccLNaGfc.s:24414  .debug_str:000000000000a816 .LASF14
C:\Users\CYMR90~1\AppData\Local\Temp\ccLNaGfc.s:29499  .debug_str:000000000001f000 .LASF15
C:\Users\CYMR90~1\AppData\Local\Temp\ccLNaGfc.s:30269  .debug_str:0000000000021ed5 .LASF16
C:\Users\CYMR90~1\AppData\Local\Temp\ccLNaGfc.s:24458  .debug_str:000000000000aaaf .LASF17
C:\Users\CYMR90~1\AppData\Local\Temp\ccLNaGfc.s:31297  .debug_str:0000000000025f81 .LASF18
C:\Users\CYMR90~1\AppData\Local\Temp\ccLNaGfc.s:25424  .debug_str:000000000000e8bd .LASF19
C:\Users\CYMR90~1\AppData\Local\Temp\ccLNaGfc.s:31097  .debug_str:00000000000251d7 .LASF20
C:\Users\CYMR90~1\AppData\Local\Temp\ccLNaGfc.s:27915  .debug_str:0000000000018862 .LASF21
C:\Users\CYMR90~1\AppData\Local\Temp\ccLNaGfc.s:27913  .debug_str:0000000000018848 .LASF22
C:\Users\CYMR90~1\AppData\Local\Temp\ccLNaGfc.s:30581  .debug_str:000000000002318c .LASF23
C:\Users\CYMR90~1\AppData\Local\Temp\ccLNaGfc.s:31207  .debug_str:000000000002593f .LASF24
C:\Users\CYMR90~1\AppData\Local\Temp\ccLNaGfc.s:22706  .debug_str:0000000000003ab3 .LASF25
C:\Users\CYMR90~1\AppData\Local\Temp\ccLNaGfc.s:27292  .debug_str:0000000000015f0c .LASF26
C:\Users\CYMR90~1\AppData\Local\Temp\ccLNaGfc.s:30585  .debug_str:00000000000231b8 .LASF27
C:\Users\CYMR90~1\AppData\Local\Temp\ccLNaGfc.s:30277  .debug_str:0000000000021f32 .LASF28
C:\Users\CYMR90~1\AppData\Local\Temp\ccLNaGfc.s:23118  .debug_str:000000000000559e .LASF29
C:\Users\CYMR90~1\AppData\Local\Temp\ccLNaGfc.s:29277  .debug_str:000000000001e275 .LASF30
C:\Users\CYMR90~1\AppData\Local\Temp\ccLNaGfc.s:22086  .debug_str:00000000000012c6 .LASF31
C:\Users\CYMR90~1\AppData\Local\Temp\ccLNaGfc.s:29749  .debug_str:000000000001ff24 .LASF32
C:\Users\CYMR90~1\AppData\Local\Temp\ccLNaGfc.s:24298  .debug_str:000000000000a09d .LASF33
C:\Users\CYMR90~1\AppData\Local\Temp\ccLNaGfc.s:24142  .debug_str:00000000000096ac .LASF34
C:\Users\CYMR90~1\AppData\Local\Temp\ccLNaGfc.s:25454  .debug_str:000000000000ea5c .LASF35
C:\Users\CYMR90~1\AppData\Local\Temp\ccLNaGfc.s:28357  .debug_str:000000000001a4a7 .LASF36
C:\Users\CYMR90~1\AppData\Local\Temp\ccLNaGfc.s:23640  .debug_str:00000000000075f5 .LASF37
C:\Users\CYMR90~1\AppData\Local\Temp\ccLNaGfc.s:25816  .debug_str:000000000001016f .LASF38
C:\Users\CYMR90~1\AppData\Local\Temp\ccLNaGfc.s:22668  .debug_str:0000000000003812 .LASF39
C:\Users\CYMR90~1\AppData\Local\Temp\ccLNaGfc.s:22462  .debug_str:0000000000002ade .LASF40
C:\Users\CYMR90~1\AppData\Local\Temp\ccLNaGfc.s:25984  .debug_str:0000000000010b93 .LASF41
C:\Users\CYMR90~1\AppData\Local\Temp\ccLNaGfc.s:26410  .debug_str:0000000000012713 .LASF42
C:\Users\CYMR90~1\AppData\Local\Temp\ccLNaGfc.s:26676  .debug_str:00000000000138b8 .LASF43
C:\Users\CYMR90~1\AppData\Local\Temp\ccLNaGfc.s:28347  .debug_str:000000000001a415 .LASF44
C:\Users\CYMR90~1\AppData\Local\Temp\ccLNaGfc.s:26270  .debug_str:0000000000011e23 .LASF45
C:\Users\CYMR90~1\AppData\Local\Temp\ccLNaGfc.s:22946  .debug_str:0000000000004a8b .LASF46
C:\Users\CYMR90~1\AppData\Local\Temp\ccLNaGfc.s:29283  .debug_str:000000000001e2da .LASF47
C:\Users\CYMR90~1\AppData\Local\Temp\ccLNaGfc.s:31013  .debug_str:0000000000024bad .LASF48
C:\Users\CYMR90~1\AppData\Local\Temp\ccLNaGfc.s:25196  .debug_str:000000000000daea .LASF49
C:\Users\CYMR90~1\AppData\Local\Temp\ccLNaGfc.s:22302  .debug_str:0000000000002107 .LASF50
C:\Users\CYMR90~1\AppData\Local\Temp\ccLNaGfc.s:21806  .debug_str:0000000000000131 .LASF51
C:\Users\CYMR90~1\AppData\Local\Temp\ccLNaGfc.s:32351  .debug_str:000000000002a263 .LASF52
C:\Users\CYMR90~1\AppData\Local\Temp\ccLNaGfc.s:24910  .debug_str:000000000000c864 .LASF53
C:\Users\CYMR90~1\AppData\Local\Temp\ccLNaGfc.s:26752  .debug_str:0000000000013d65 .LASF54
C:\Users\CYMR90~1\AppData\Local\Temp\ccLNaGfc.s:25782  .debug_str:000000000000ff08 .LASF55
C:\Users\CYMR90~1\AppData\Local\Temp\ccLNaGfc.s:23730  .debug_str:0000000000007b7e .LASF56
C:\Users\CYMR90~1\AppData\Local\Temp\ccLNaGfc.s:27144  .debug_str:00000000000155f7 .LASF57
C:\Users\CYMR90~1\AppData\Local\Temp\ccLNaGfc.s:22038  .debug_str:000000000000100d .LASF58
C:\Users\CYMR90~1\AppData\Local\Temp\ccLNaGfc.s:31301  .debug_str:0000000000025fc1 .LASF59
C:\Users\CYMR90~1\AppData\Local\Temp\ccLNaGfc.s:26684  .debug_str:0000000000013913 .LASF60
C:\Users\CYMR90~1\AppData\Local\Temp\ccLNaGfc.s:28643  .debug_str:000000000001b93f .LASF61
C:\Users\CYMR90~1\AppData\Local\Temp\ccLNaGfc.s:22528  .debug_str:0000000000002f39 .LASF62
C:\Users\CYMR90~1\AppData\Local\Temp\ccLNaGfc.s:25188  .debug_str:000000000000da8f .LASF63
C:\Users\CYMR90~1\AppData\Local\Temp\ccLNaGfc.s:24926  .debug_str:000000000000c94c .LASF64
C:\Users\CYMR90~1\AppData\Local\Temp\ccLNaGfc.s:28333  .debug_str:000000000001a348 .LASF65
C:\Users\CYMR90~1\AppData\Local\Temp\ccLNaGfc.s:26986  .debug_str:0000000000014bb9 .LASF66
C:\Users\CYMR90~1\AppData\Local\Temp\ccLNaGfc.s:32133  .debug_str:0000000000029493 .LASF67
C:\Users\CYMR90~1\AppData\Local\Temp\ccLNaGfc.s:32583  .debug_str:000000000002b01e .LASF68
C:\Users\CYMR90~1\AppData\Local\Temp\ccLNaGfc.s:26224  .debug_str:0000000000011ae6 .LASF69
C:\Users\CYMR90~1\AppData\Local\Temp\ccLNaGfc.s:25350  .debug_str:000000000000e41e .LASF70
C:\Users\CYMR90~1\AppData\Local\Temp\ccLNaGfc.s:22958  .debug_str:0000000000004bde .LASF71
C:\Users\CYMR90~1\AppData\Local\Temp\ccLNaGfc.s:26258  .debug_str:0000000000011d60 .LASF72
C:\Users\CYMR90~1\AppData\Local\Temp\ccLNaGfc.s:24842  .debug_str:000000000000c452 .LASF73
C:\Users\CYMR90~1\AppData\Local\Temp\ccLNaGfc.s:26494  .debug_str:0000000000012c9f .LASF74
C:\Users\CYMR90~1\AppData\Local\Temp\ccLNaGfc.s:26332  .debug_str:0000000000012210 .LASF75
C:\Users\CYMR90~1\AppData\Local\Temp\ccLNaGfc.s:26430  .debug_str:0000000000012871 .LASF76
C:\Users\CYMR90~1\AppData\Local\Temp\ccLNaGfc.s:30927  .debug_str:0000000000024629 .LASF77
C:\Users\CYMR90~1\AppData\Local\Temp\ccLNaGfc.s:28831  .debug_str:000000000001c4cd .LASF78
C:\Users\CYMR90~1\AppData\Local\Temp\ccLNaGfc.s:29241  .debug_str:000000000001dfcd .LASF79
C:\Users\CYMR90~1\AppData\Local\Temp\ccLNaGfc.s:32113  .debug_str:0000000000029344 .LASF80
C:\Users\CYMR90~1\AppData\Local\Temp\ccLNaGfc.s:24246  .debug_str:0000000000009d9c .LASF81
C:\Users\CYMR90~1\AppData\Local\Temp\ccLNaGfc.s:24446  .debug_str:000000000000a993 .LASF82
C:\Users\CYMR90~1\AppData\Local\Temp\ccLNaGfc.s:32247  .debug_str:0000000000029c89 .LASF83
C:\Users\CYMR90~1\AppData\Local\Temp\ccLNaGfc.s:24184  .debug_str:0000000000009978 .LASF84
C:\Users\CYMR90~1\AppData\Local\Temp\ccLNaGfc.s:23468  .debug_str:0000000000006ac9 .LASF85
C:\Users\CYMR90~1\AppData\Local\Temp\ccLNaGfc.s:28537  .debug_str:000000000001b21b .LASF86
C:\Users\CYMR90~1\AppData\Local\Temp\ccLNaGfc.s:32277  .debug_str:0000000000029e13 .LASF87
C:\Users\CYMR90~1\AppData\Local\Temp\ccLNaGfc.s:29689  .debug_str:000000000001fba6 .LASF88
C:\Users\CYMR90~1\AppData\Local\Temp\ccLNaGfc.s:28453  .debug_str:000000000001ac97 .LASF89
C:\Users\CYMR90~1\AppData\Local\Temp\ccLNaGfc.s:29719  .debug_str:000000000001fd5e .LASF90
C:\Users\CYMR90~1\AppData\Local\Temp\ccLNaGfc.s:32487  .debug_str:000000000002aa71 .LASF91
C:\Users\CYMR90~1\AppData\Local\Temp\ccLNaGfc.s:31309  .debug_str:0000000000026039 .LASF92
C:\Users\CYMR90~1\AppData\Local\Temp\ccLNaGfc.s:24324  .debug_str:000000000000a23f .LASF93
C:\Users\CYMR90~1\AppData\Local\Temp\ccLNaGfc.s:29119  .debug_str:000000000001d83a .LASF94
C:\Users\CYMR90~1\AppData\Local\Temp\ccLNaGfc.s:26714  .debug_str:0000000000013afb .LASF95
C:\Users\CYMR90~1\AppData\Local\Temp\ccLNaGfc.s:26698  .debug_str:0000000000013a0b .LASF96
C:\Users\CYMR90~1\AppData\Local\Temp\ccLNaGfc.s:32787  .debug_str:000000000002bd4b .LASF97
C:\Users\CYMR90~1\AppData\Local\Temp\ccLNaGfc.s:26346  .debug_str:0000000000012313 .LASF98
C:\Users\CYMR90~1\AppData\Local\Temp\ccLNaGfc.s:30295  .debug_str:0000000000022059 .LASF99
C:\Users\CYMR90~1\AppData\Local\Temp\ccLNaGfc.s:23674  .debug_str:00000000000077d6 .LASF100
C:\Users\CYMR90~1\AppData\Local\Temp\ccLNaGfc.s:25832  .debug_str:0000000000010256 .LASF101
C:\Users\CYMR90~1\AppData\Local\Temp\ccLNaGfc.s:27208  .debug_str:000000000001598c .LASF102
C:\Users\CYMR90~1\AppData\Local\Temp\ccLNaGfc.s:28597  .debug_str:000000000001b634 .LASF103
C:\Users\CYMR90~1\AppData\Local\Temp\ccLNaGfc.s:25110  .debug_str:000000000000d565 .LASF104
C:\Users\CYMR90~1\AppData\Local\Temp\ccLNaGfc.s:26280  .debug_str:0000000000011eba .LASF105
C:\Users\CYMR90~1\AppData\Local\Temp\ccLNaGfc.s:28933  .debug_str:000000000001cac4 .LASF106
C:\Users\CYMR90~1\AppData\Local\Temp\ccLNaGfc.s:26104  .debug_str:00000000000112e7 .LASF107
C:\Users\CYMR90~1\AppData\Local\Temp\ccLNaGfc.s:25106  .debug_str:000000000000d541 .LASF108
C:\Users\CYMR90~1\AppData\Local\Temp\ccLNaGfc.s:26546  .debug_str:0000000000012fe9 .LASF109
C:\Users\CYMR90~1\AppData\Local\Temp\ccLNaGfc.s:25480  .debug_str:000000000000ec2e .LASF110
C:\Users\CYMR90~1\AppData\Local\Temp\ccLNaGfc.s:27969  .debug_str:0000000000018b99 .LASF111
C:\Users\CYMR90~1\AppData\Local\Temp\ccLNaGfc.s:24586  .debug_str:000000000000b325 .LASF112
C:\Users\CYMR90~1\AppData\Local\Temp\ccLNaGfc.s:24322  .debug_str:000000000000a216 .LASF113
C:\Users\CYMR90~1\AppData\Local\Temp\ccLNaGfc.s:27242  .debug_str:0000000000015b8e .LASF114
C:\Users\CYMR90~1\AppData\Local\Temp\ccLNaGfc.s:32175  .debug_str:0000000000029799 .LASF115
C:\Users\CYMR90~1\AppData\Local\Temp\ccLNaGfc.s:28165  .debug_str:0000000000019843 .LASF116
C:\Users\CYMR90~1\AppData\Local\Temp\ccLNaGfc.s:24072  .debug_str:00000000000092b1 .LASF117
C:\Users\CYMR90~1\AppData\Local\Temp\ccLNaGfc.s:28699  .debug_str:000000000001bc99 .LASF118
C:\Users\CYMR90~1\AppData\Local\Temp\ccLNaGfc.s:32897  .debug_str:000000000002c4d2 .LASF119
C:\Users\CYMR90~1\AppData\Local\Temp\ccLNaGfc.s:25400  .debug_str:000000000000e6f5 .LASF120
C:\Users\CYMR90~1\AppData\Local\Temp\ccLNaGfc.s:30911  .debug_str:000000000002447e .LASF121
C:\Users\CYMR90~1\AppData\Local\Temp\ccLNaGfc.s:24888  .debug_str:000000000000c6ec .LASF122
C:\Users\CYMR90~1\AppData\Local\Temp\ccLNaGfc.s:24996  .debug_str:000000000000ce45 .LASF123
C:\Users\CYMR90~1\AppData\Local\Temp\ccLNaGfc.s:22636  .debug_str:000000000000363c .LASF124
C:\Users\CYMR90~1\AppData\Local\Temp\ccLNaGfc.s:22920  .debug_str:00000000000048c3 .LASF125
C:\Users\CYMR90~1\AppData\Local\Temp\ccLNaGfc.s:31845  .debug_str:00000000000281de .LASF126
C:\Users\CYMR90~1\AppData\Local\Temp\ccLNaGfc.s:26286  .debug_str:0000000000011ef8 .LASF127
C:\Users\CYMR90~1\AppData\Local\Temp\ccLNaGfc.s:29095  .debug_str:000000000001d6ca .LASF128
C:\Users\CYMR90~1\AppData\Local\Temp\ccLNaGfc.s:24152  .debug_str:000000000000974f .LASF129
C:\Users\CYMR90~1\AppData\Local\Temp\ccLNaGfc.s:31419  .debug_str:00000000000266f0 .LASF130
C:\Users\CYMR90~1\AppData\Local\Temp\ccLNaGfc.s:31725  .debug_str:0000000000027a2f .LASF131
C:\Users\CYMR90~1\AppData\Local\Temp\ccLNaGfc.s:31537  .debug_str:0000000000026e1d .LASF132
C:\Users\CYMR90~1\AppData\Local\Temp\ccLNaGfc.s:25374  .debug_str:000000000000e559 .LASF133
C:\Users\CYMR90~1\AppData\Local\Temp\ccLNaGfc.s:30833  .debug_str:0000000000024056 .LASF134
C:\Users\CYMR90~1\AppData\Local\Temp\ccLNaGfc.s:22914  .debug_str:000000000000485b .LASF135
C:\Users\CYMR90~1\AppData\Local\Temp\ccLNaGfc.s:23774  .debug_str:0000000000007e10 .LASF136
C:\Users\CYMR90~1\AppData\Local\Temp\ccLNaGfc.s:28843  .debug_str:000000000001c5a7 .LASF137
C:\Users\CYMR90~1\AppData\Local\Temp\ccLNaGfc.s:26542  .debug_str:0000000000012fb9 .LASF138
C:\Users\CYMR90~1\AppData\Local\Temp\ccLNaGfc.s:32057  .debug_str:0000000000029037 .LASF139
C:\Users\CYMR90~1\AppData\Local\Temp\ccLNaGfc.s:31187  .debug_str:0000000000025809 .LASF140
C:\Users\CYMR90~1\AppData\Local\Temp\ccLNaGfc.s:28789  .debug_str:000000000001c22f .LASF141
C:\Users\CYMR90~1\AppData\Local\Temp\ccLNaGfc.s:24198  .debug_str:0000000000009a37 .LASF142
C:\Users\CYMR90~1\AppData\Local\Temp\ccLNaGfc.s:32647  .debug_str:000000000002b3e7 .LASF143
C:\Users\CYMR90~1\AppData\Local\Temp\ccLNaGfc.s:27939  .debug_str:000000000001899b .LASF144
C:\Users\CYMR90~1\AppData\Local\Temp\ccLNaGfc.s:26998  .debug_str:0000000000014c9e .LASF145
C:\Users\CYMR90~1\AppData\Local\Temp\ccLNaGfc.s:24960  .debug_str:000000000000cc28 .LASF146
C:\Users\CYMR90~1\AppData\Local\Temp\ccLNaGfc.s:22956  .debug_str:0000000000004bc7 .LASF147
C:\Users\CYMR90~1\AppData\Local\Temp\ccLNaGfc.s:25522  .debug_str:000000000000eef1 .LASF148
C:\Users\CYMR90~1\AppData\Local\Temp\ccLNaGfc.s:27917  .debug_str:0000000000018876 .LASF149
C:\Users\CYMR90~1\AppData\Local\Temp\ccLNaGfc.s:21882  .debug_str:00000000000005a4 .LASF150
C:\Users\CYMR90~1\AppData\Local\Temp\ccLNaGfc.s:30279  .debug_str:0000000000021f4c .LASF151
C:\Users\CYMR90~1\AppData\Local\Temp\ccLNaGfc.s:26536  .debug_str:0000000000012f37 .LASF152
C:\Users\CYMR90~1\AppData\Local\Temp\ccLNaGfc.s:31193  .debug_str:000000000002585c .LASF153
C:\Users\CYMR90~1\AppData\Local\Temp\ccLNaGfc.s:28997  .debug_str:000000000001cf3c .LASF154
C:\Users\CYMR90~1\AppData\Local\Temp\ccLNaGfc.s:25942  .debug_str:0000000000010937 .LASF155
C:\Users\CYMR90~1\AppData\Local\Temp\ccLNaGfc.s:29011  .debug_str:000000000001d061 .LASF156
C:\Users\CYMR90~1\AppData\Local\Temp\ccLNaGfc.s:29125  .debug_str:000000000001d8a2 .LASF157
C:\Users\CYMR90~1\AppData\Local\Temp\ccLNaGfc.s:24814  .debug_str:000000000000c2a8 .LASF158
C:\Users\CYMR90~1\AppData\Local\Temp\ccLNaGfc.s:23874  .debug_str:00000000000085be .LASF159
C:\Users\CYMR90~1\AppData\Local\Temp\ccLNaGfc.s:28649  .debug_str:000000000001b993 .LASF160
C:\Users\CYMR90~1\AppData\Local\Temp\ccLNaGfc.s:30101  .debug_str:000000000002143d .LASF161
C:\Users\CYMR90~1\AppData\Local\Temp\ccLNaGfc.s:28237  .debug_str:0000000000019d92 .LASF162
C:\Users\CYMR90~1\AppData\Local\Temp\ccLNaGfc.s:30823  .debug_str:0000000000023fb8 .LASF163
C:\Users\CYMR90~1\AppData\Local\Temp\ccLNaGfc.s:32473  .debug_str:000000000002a9a3 .LASF164
C:\Users\CYMR90~1\AppData\Local\Temp\ccLNaGfc.s:23630  .debug_str:0000000000007571 .LASF165
C:\Users\CYMR90~1\AppData\Local\Temp\ccLNaGfc.s:32163  .debug_str:000000000002966a .LASF166
C:\Users\CYMR90~1\AppData\Local\Temp\ccLNaGfc.s:24040  .debug_str:00000000000090cb .LASF167
C:\Users\CYMR90~1\AppData\Local\Temp\ccLNaGfc.s:30747  .debug_str:0000000000023acf .LASF168
C:\Users\CYMR90~1\AppData\Local\Temp\ccLNaGfc.s:27703  .debug_str:0000000000017b52 .LASF169
C:\Users\CYMR90~1\AppData\Local\Temp\ccLNaGfc.s:31601  .debug_str:00000000000271d6 .LASF170
C:\Users\CYMR90~1\AppData\Local\Temp\ccLNaGfc.s:27320  .debug_str:00000000000160c5 .LASF171
C:\Users\CYMR90~1\AppData\Local\Temp\ccLNaGfc.s:28915  .debug_str:000000000001c9b3 .LASF172
C:\Users\CYMR90~1\AppData\Local\Temp\ccLNaGfc.s:24276  .debug_str:0000000000009f5f .LASF173
C:\Users\CYMR90~1\AppData\Local\Temp\ccLNaGfc.s:30641  .debug_str:00000000000234da .LASF174
C:\Users\CYMR90~1\AppData\Local\Temp\ccLNaGfc.s:23302  .debug_str:00000000000060d1 .LASF175
C:\Users\CYMR90~1\AppData\Local\Temp\ccLNaGfc.s:24118  .debug_str:0000000000009558 .LASF176
C:\Users\CYMR90~1\AppData\Local\Temp\ccLNaGfc.s:22788  .debug_str:0000000000003fd2 .LASF177
C:\Users\CYMR90~1\AppData\Local\Temp\ccLNaGfc.s:28113  .debug_str:000000000001953e .LASF178
C:\Users\CYMR90~1\AppData\Local\Temp\ccLNaGfc.s:25050  .debug_str:000000000000d188 .LASF179
C:\Users\CYMR90~1\AppData\Local\Temp\ccLNaGfc.s:22296  .debug_str:0000000000002082 .LASF180
C:\Users\CYMR90~1\AppData\Local\Temp\ccLNaGfc.s:32783  .debug_str:000000000002bd20 .LASF181
C:\Users\CYMR90~1\AppData\Local\Temp\ccLNaGfc.s:22074  .debug_str:0000000000001228 .LASF182
C:\Users\CYMR90~1\AppData\Local\Temp\ccLNaGfc.s:26654  .debug_str:000000000001374a .LASF183
C:\Users\CYMR90~1\AppData\Local\Temp\ccLNaGfc.s:27062  .debug_str:00000000000150cc .LASF184
C:\Users\CYMR90~1\AppData\Local\Temp\ccLNaGfc.s:31987  .debug_str:0000000000028c01 .LASF185
C:\Users\CYMR90~1\AppData\Local\Temp\ccLNaGfc.s:25146  .debug_str:000000000000d853 .LASF186
C:\Users\CYMR90~1\AppData\Local\Temp\ccLNaGfc.s:22324  .debug_str:0000000000002201 .LASF187
C:\Users\CYMR90~1\AppData\Local\Temp\ccLNaGfc.s:29665  .debug_str:000000000001fa1b .LASF188
C:\Users\CYMR90~1\AppData\Local\Temp\ccLNaGfc.s:25418  .debug_str:000000000000e86c .LASF189
C:\Users\CYMR90~1\AppData\Local\Temp\ccLNaGfc.s:24468  .debug_str:000000000000ab31 .LASF190
C:\Users\CYMR90~1\AppData\Local\Temp\ccLNaGfc.s:30159  .debug_str:000000000002177c .LASF191
C:\Users\CYMR90~1\AppData\Local\Temp\ccLNaGfc.s:27482  .debug_str:0000000000016bb2 .LASF192
C:\Users\CYMR90~1\AppData\Local\Temp\ccLNaGfc.s:30395  .debug_str:000000000002264e .LASF193
C:\Users\CYMR90~1\AppData\Local\Temp\ccLNaGfc.s:23254  .debug_str:0000000000005e1a .LASF194
C:\Users\CYMR90~1\AppData\Local\Temp\ccLNaGfc.s:22602  .debug_str:00000000000033f5 .LASF195
C:\Users\CYMR90~1\AppData\Local\Temp\ccLNaGfc.s:25246  .debug_str:000000000000ddcf .LASF196
C:\Users\CYMR90~1\AppData\Local\Temp\ccLNaGfc.s:26174  .debug_str:000000000001170e .LASF197
C:\Users\CYMR90~1\AppData\Local\Temp\ccLNaGfc.s:23102  .debug_str:0000000000005493 .LASF198
C:\Users\CYMR90~1\AppData\Local\Temp\ccLNaGfc.s:31877  .debug_str:0000000000028422 .LASF199
C:\Users\CYMR90~1\AppData\Local\Temp\ccLNaGfc.s:30037  .debug_str:000000000002107d .LASF200
C:\Users\CYMR90~1\AppData\Local\Temp\ccLNaGfc.s:29133  .debug_str:000000000001d900 .LASF201
C:\Users\CYMR90~1\AppData\Local\Temp\ccLNaGfc.s:24252  .debug_str:0000000000009de6 .LASF202
C:\Users\CYMR90~1\AppData\Local\Temp\ccLNaGfc.s:31225  .debug_str:0000000000025a52 .LASF203
C:\Users\CYMR90~1\AppData\Local\Temp\ccLNaGfc.s:22616  .debug_str:00000000000034ef .LASF204
C:\Users\CYMR90~1\AppData\Local\Temp\ccLNaGfc.s:25654  .debug_str:000000000000f6c9 .LASF205
C:\Users\CYMR90~1\AppData\Local\Temp\ccLNaGfc.s:32067  .debug_str:00000000000290a8 .LASF206
C:\Users\CYMR90~1\AppData\Local\Temp\ccLNaGfc.s:26874  .debug_str:00000000000144d6 .LASF207
C:\Users\CYMR90~1\AppData\Local\Temp\ccLNaGfc.s:29707  .debug_str:000000000001fcbc .LASF208
C:\Users\CYMR90~1\AppData\Local\Temp\ccLNaGfc.s:24882  .debug_str:000000000000c6a7 .LASF209
C:\Users\CYMR90~1\AppData\Local\Temp\ccLNaGfc.s:32997  .debug_str:000000000002cb10 .LASF210
C:\Users\CYMR90~1\AppData\Local\Temp\ccLNaGfc.s:26844  .debug_str:00000000000142f6 .LASF211
C:\Users\CYMR90~1\AppData\Local\Temp\ccLNaGfc.s:29543  .debug_str:000000000001f28d .LASF212
C:\Users\CYMR90~1\AppData\Local\Temp\ccLNaGfc.s:28133  .debug_str:000000000001966c .LASF213
C:\Users\CYMR90~1\AppData\Local\Temp\ccLNaGfc.s:23342  .debug_str:0000000000006302 .LASF214
C:\Users\CYMR90~1\AppData\Local\Temp\ccLNaGfc.s:26852  .debug_str:0000000000014366 .LASF215
C:\Users\CYMR90~1\AppData\Local\Temp\ccLNaGfc.s:28827  .debug_str:000000000001c47d .LASF216
C:\Users\CYMR90~1\AppData\Local\Temp\ccLNaGfc.s:29817  .debug_str:0000000000020326 .LASF217
C:\Users\CYMR90~1\AppData\Local\Temp\ccLNaGfc.s:25734  .debug_str:000000000000fbf7 .LASF218
C:\Users\CYMR90~1\AppData\Local\Temp\ccLNaGfc.s:31195  .debug_str:0000000000025898 .LASF219
C:\Users\CYMR90~1\AppData\Local\Temp\ccLNaGfc.s:31007  .debug_str:0000000000024b5a .LASF220
C:\Users\CYMR90~1\AppData\Local\Temp\ccLNaGfc.s:30543  .debug_str:0000000000022ee9 .LASF221
C:\Users\CYMR90~1\AppData\Local\Temp\ccLNaGfc.s:27130  .debug_str:0000000000015546 .LASF222
C:\Users\CYMR90~1\AppData\Local\Temp\ccLNaGfc.s:23312  .debug_str:0000000000006153 .LASF223
C:\Users\CYMR90~1\AppData\Local\Temp\ccLNaGfc.s:23976  .debug_str:0000000000008c8c .LASF224
C:\Users\CYMR90~1\AppData\Local\Temp\ccLNaGfc.s:32657  .debug_str:000000000002b46b .LASF225
C:\Users\CYMR90~1\AppData\Local\Temp\ccLNaGfc.s:25314  .debug_str:000000000000e205 .LASF226
C:\Users\CYMR90~1\AppData\Local\Temp\ccLNaGfc.s:28993  .debug_str:000000000001cf0e .LASF227
C:\Users\CYMR90~1\AppData\Local\Temp\ccLNaGfc.s:28837  .debug_str:000000000001c523 .LASF228
C:\Users\CYMR90~1\AppData\Local\Temp\ccLNaGfc.s:25258  .debug_str:000000000000de86 .LASF229
C:\Users\CYMR90~1\AppData\Local\Temp\ccLNaGfc.s:29587  .debug_str:000000000001f518 .LASF230
C:\Users\CYMR90~1\AppData\Local\Temp\ccLNaGfc.s:24032  .debug_str:0000000000009020 .LASF231
C:\Users\CYMR90~1\AppData\Local\Temp\ccLNaGfc.s:23352  .debug_str:00000000000063ab .LASF232
C:\Users\CYMR90~1\AppData\Local\Temp\ccLNaGfc.s:23928  .debug_str:00000000000088ca .LASF233
C:\Users\CYMR90~1\AppData\Local\Temp\ccLNaGfc.s:25932  .debug_str:000000000001088a .LASF234
C:\Users\CYMR90~1\AppData\Local\Temp\ccLNaGfc.s:25650  .debug_str:000000000000f681 .LASF235
C:\Users\CYMR90~1\AppData\Local\Temp\ccLNaGfc.s:30753  .debug_str:0000000000023b5e .LASF236
C:\Users\CYMR90~1\AppData\Local\Temp\ccLNaGfc.s:25672  .debug_str:000000000000f7d2 .LASF237
C:\Users\CYMR90~1\AppData\Local\Temp\ccLNaGfc.s:31415  .debug_str:00000000000266b4 .LASF238
C:\Users\CYMR90~1\AppData\Local\Temp\ccLNaGfc.s:30739  .debug_str:0000000000023a50 .LASF239
C:\Users\CYMR90~1\AppData\Local\Temp\ccLNaGfc.s:30967  .debug_str:00000000000248d2 .LASF240
C:\Users\CYMR90~1\AppData\Local\Temp\ccLNaGfc.s:23742  .debug_str:0000000000007c66 .LASF241
C:\Users\CYMR90~1\AppData\Local\Temp\ccLNaGfc.s:25336  .debug_str:000000000000e33d .LASF242
C:\Users\CYMR90~1\AppData\Local\Temp\ccLNaGfc.s:26328  .debug_str:00000000000121a8 .LASF243
C:\Users\CYMR90~1\AppData\Local\Temp\ccLNaGfc.s:30765  .debug_str:0000000000023bf9 .LASF244
C:\Users\CYMR90~1\AppData\Local\Temp\ccLNaGfc.s:26520  .debug_str:0000000000012e1d .LASF245
C:\Users\CYMR90~1\AppData\Local\Temp\ccLNaGfc.s:29599  .debug_str:000000000001f5fd .LASF246
C:\Users\CYMR90~1\AppData\Local\Temp\ccLNaGfc.s:27901  .debug_str:0000000000018755 .LASF247
C:\Users\CYMR90~1\AppData\Local\Temp\ccLNaGfc.s:27408  .debug_str:0000000000016665 .LASF248
C:\Users\CYMR90~1\AppData\Local\Temp\ccLNaGfc.s:28929  .debug_str:000000000001ca94 .LASF249
C:\Users\CYMR90~1\AppData\Local\Temp\ccLNaGfc.s:28293  .debug_str:000000000001a0e0 .LASF250
C:\Users\CYMR90~1\AppData\Local\Temp\ccLNaGfc.s:28863  .debug_str:000000000001c6ca .LASF251
C:\Users\CYMR90~1\AppData\Local\Temp\ccLNaGfc.s:30593  .debug_str:000000000002323d .LASF252
C:\Users\CYMR90~1\AppData\Local\Temp\ccLNaGfc.s:25228  .debug_str:000000000000dce1 .LASF253
C:\Users\CYMR90~1\AppData\Local\Temp\ccLNaGfc.s:31271  .debug_str:0000000000025df6 .LASF254
C:\Users\CYMR90~1\AppData\Local\Temp\ccLNaGfc.s:25092  .debug_str:000000000000d437 .LASF255
C:\Users\CYMR90~1\AppData\Local\Temp\ccLNaGfc.s:28201  .debug_str:0000000000019b25 .LASF256
C:\Users\CYMR90~1\AppData\Local\Temp\ccLNaGfc.s:25332  .debug_str:000000000000e30b .LASF257
C:\Users\CYMR90~1\AppData\Local\Temp\ccLNaGfc.s:29531  .debug_str:000000000001f1be .LASF258
C:\Users\CYMR90~1\AppData\Local\Temp\ccLNaGfc.s:24550  .debug_str:000000000000b029 .LASF259
C:\Users\CYMR90~1\AppData\Local\Temp\ccLNaGfc.s:21956  .debug_str:0000000000000a3b .LASF260
C:\Users\CYMR90~1\AppData\Local\Temp\ccLNaGfc.s:24656  .debug_str:000000000000b79b .LASF261
C:\Users\CYMR90~1\AppData\Local\Temp\ccLNaGfc.s:31857  .debug_str:000000000002828e .LASF262
C:\Users\CYMR90~1\AppData\Local\Temp\ccLNaGfc.s:26826  .debug_str:00000000000141bb .LASF263
C:\Users\CYMR90~1\AppData\Local\Temp\ccLNaGfc.s:28811  .debug_str:000000000001c39c .LASF264
C:\Users\CYMR90~1\AppData\Local\Temp\ccLNaGfc.s:25786  .debug_str:000000000000ff4f .LASF265
C:\Users\CYMR90~1\AppData\Local\Temp\ccLNaGfc.s:25260  .debug_str:000000000000dec7 .LASF266
C:\Users\CYMR90~1\AppData\Local\Temp\ccLNaGfc.s:24598  .debug_str:000000000000b3ea .LASF267
C:\Users\CYMR90~1\AppData\Local\Temp\ccLNaGfc.s:28917  .debug_str:000000000001c9c8 .LASF268
C:\Users\CYMR90~1\AppData\Local\Temp\ccLNaGfc.s:24906  .debug_str:000000000000c820 .LASF269
C:\Users\CYMR90~1\AppData\Local\Temp\ccLNaGfc.s:25850  .debug_str:00000000000103a5 .LASF270
C:\Users\CYMR90~1\AppData\Local\Temp\ccLNaGfc.s:26622  .debug_str:0000000000013519 .LASF271
C:\Users\CYMR90~1\AppData\Local\Temp\ccLNaGfc.s:31519  .debug_str:0000000000026d12 .LASF272
C:\Users\CYMR90~1\AppData\Local\Temp\ccLNaGfc.s:23512  .debug_str:0000000000006d58 .LASF273
C:\Users\CYMR90~1\AppData\Local\Temp\ccLNaGfc.s:22414  .debug_str:000000000000275d .LASF274
C:\Users\CYMR90~1\AppData\Local\Temp\ccLNaGfc.s:23602  .debug_str:000000000000735e .LASF275
C:\Users\CYMR90~1\AppData\Local\Temp\ccLNaGfc.s:24966  .debug_str:000000000000cc71 .LASF276
C:\Users\CYMR90~1\AppData\Local\Temp\ccLNaGfc.s:24800  .debug_str:000000000000c1ba .LASF277
C:\Users\CYMR90~1\AppData\Local\Temp\ccLNaGfc.s:22096  .debug_str:000000000000133a .LASF278
C:\Users\CYMR90~1\AppData\Local\Temp\ccLNaGfc.s:23436  .debug_str:00000000000068a3 .LASF279
C:\Users\CYMR90~1\AppData\Local\Temp\ccLNaGfc.s:32185  .debug_str:000000000002982d .LASF280
C:\Users\CYMR90~1\AppData\Local\Temp\ccLNaGfc.s:24302  .debug_str:000000000000a0d5 .LASF281
C:\Users\CYMR90~1\AppData\Local\Temp\ccLNaGfc.s:23400  .debug_str:00000000000066ad .LASF282
C:\Users\CYMR90~1\AppData\Local\Temp\ccLNaGfc.s:23306  .debug_str:0000000000006101 .LASF283
C:\Users\CYMR90~1\AppData\Local\Temp\ccLNaGfc.s:23056  .debug_str:00000000000051ed .LASF284
C:\Users\CYMR90~1\AppData\Local\Temp\ccLNaGfc.s:31069  .debug_str:0000000000024fcf .LASF285
C:\Users\CYMR90~1\AppData\Local\Temp\ccLNaGfc.s:31889  .debug_str:0000000000028518 .LASF286
C:\Users\CYMR90~1\AppData\Local\Temp\ccLNaGfc.s:32171  .debug_str:00000000000296c7 .LASF287
C:\Users\CYMR90~1\AppData\Local\Temp\ccLNaGfc.s:32081  .debug_str:0000000000029160 .LASF288
C:\Users\CYMR90~1\AppData\Local\Temp\ccLNaGfc.s:32929  .debug_str:000000000002c6ce .LASF289
C:\Users\CYMR90~1\AppData\Local\Temp\ccLNaGfc.s:27847  .debug_str:000000000001842e .LASF290
C:\Users\CYMR90~1\AppData\Local\Temp\ccLNaGfc.s:26880  .debug_str:000000000001451e .LASF291
C:\Users\CYMR90~1\AppData\Local\Temp\ccLNaGfc.s:25554  .debug_str:000000000000f0a1 .LASF292
C:\Users\CYMR90~1\AppData\Local\Temp\ccLNaGfc.s:22700  .debug_str:0000000000003a4b .LASF293
C:\Users\CYMR90~1\AppData\Local\Temp\ccLNaGfc.s:30051  .debug_str:000000000002114a .LASF294
C:\Users\CYMR90~1\AppData\Local\Temp\ccLNaGfc.s:22982  .debug_str:0000000000004d43 .LASF295
C:\Users\CYMR90~1\AppData\Local\Temp\ccLNaGfc.s:32517  .debug_str:000000000002ac39 .LASF296
C:\Users\CYMR90~1\AppData\Local\Temp\ccLNaGfc.s:32703  .debug_str:000000000002b797 .LASF297
C:\Users\CYMR90~1\AppData\Local\Temp\ccLNaGfc.s:27723  .debug_str:0000000000017ccb .LASF298
C:\Users\CYMR90~1\AppData\Local\Temp\ccLNaGfc.s:21940  .debug_str:0000000000000935 .LASF299
C:\Users\CYMR90~1\AppData\Local\Temp\ccLNaGfc.s:25754  .debug_str:000000000000fd38 .LASF300
C:\Users\CYMR90~1\AppData\Local\Temp\ccLNaGfc.s:28477  .debug_str:000000000001ae3a .LASF301
C:\Users\CYMR90~1\AppData\Local\Temp\ccLNaGfc.s:26992  .debug_str:0000000000014c10 .LASF302
C:\Users\CYMR90~1\AppData\Local\Temp\ccLNaGfc.s:26468  .debug_str:0000000000012af5 .LASF303
C:\Users\CYMR90~1\AppData\Local\Temp\ccLNaGfc.s:22338  .debug_str:00000000000022e6 .LASF304
C:\Users\CYMR90~1\AppData\Local\Temp\ccLNaGfc.s:24914  .debug_str:000000000000c8ab .LASF305
C:\Users\CYMR90~1\AppData\Local\Temp\ccLNaGfc.s:30261  .debug_str:0000000000021e6a .LASF306
C:\Users\CYMR90~1\AppData\Local\Temp\ccLNaGfc.s:25772  .debug_str:000000000000fe70 .LASF307
C:\Users\CYMR90~1\AppData\Local\Temp\ccLNaGfc.s:31089  .debug_str:0000000000025125 .LASF308
C:\Users\CYMR90~1\AppData\Local\Temp\ccLNaGfc.s:30707  .debug_str:0000000000023869 .LASF309
C:\Users\CYMR90~1\AppData\Local\Temp\ccLNaGfc.s:25316  .debug_str:000000000000e21e .LASF310
C:\Users\CYMR90~1\AppData\Local\Temp\ccLNaGfc.s:31411  .debug_str:0000000000026689 .LASF311
C:\Users\CYMR90~1\AppData\Local\Temp\ccLNaGfc.s:30921  .debug_str:00000000000245f2 .LASF312
C:\Users\CYMR90~1\AppData\Local\Temp\ccLNaGfc.s:25032  .debug_str:000000000000d02f .LASF313
C:\Users\CYMR90~1\AppData\Local\Temp\ccLNaGfc.s:27989  .debug_str:0000000000018d0a .LASF316
C:\Users\CYMR90~1\AppData\Local\Temp\ccLNaGfc.s:28349  .debug_str:000000000001a432 .LASF317
C:\Users\CYMR90~1\AppData\Local\Temp\ccLNaGfc.s:28705  .debug_str:000000000001bcd1 .LASF318
C:\Users\CYMR90~1\AppData\Local\Temp\ccLNaGfc.s:25760  .debug_str:000000000000fdaf .LASF319
C:\Users\CYMR90~1\AppData\Local\Temp\ccLNaGfc.s:24674  .debug_str:000000000000b900 .LASF320
C:\Users\CYMR90~1\AppData\Local\Temp\ccLNaGfc.s:32131  .debug_str:0000000000029487 .LASF321
C:\Users\CYMR90~1\AppData\Local\Temp\ccLNaGfc.s:25226  .debug_str:000000000000dcd4 .LASF322
C:\Users\CYMR90~1\AppData\Local\Temp\ccLNaGfc.s:31367  .debug_str:00000000000263b0 .LASF323
C:\Users\CYMR90~1\AppData\Local\Temp\ccLNaGfc.s:21822  .debug_str:0000000000000223 .LASF324
C:\Users\CYMR90~1\AppData\Local\Temp\ccLNaGfc.s:32539  .debug_str:000000000002ad6e .LASF325
C:\Users\CYMR90~1\AppData\Local\Temp\ccLNaGfc.s:22758  .debug_str:0000000000003dd4 .LASF326
C:\Users\CYMR90~1\AppData\Local\Temp\ccLNaGfc.s:26814  .debug_str:00000000000140fe .LASF327
C:\Users\CYMR90~1\AppData\Local\Temp\ccLNaGfc.s:26470  .debug_str:0000000000012b0a .LASF328
C:\Users\CYMR90~1\AppData\Local\Temp\ccLNaGfc.s:29373  .debug_str:000000000001e825 .LASF329
C:\Users\CYMR90~1\AppData\Local\Temp\ccLNaGfc.s:29365  .debug_str:000000000001e7d4 .LASF330
C:\Users\CYMR90~1\AppData\Local\Temp\ccLNaGfc.s:31561  .debug_str:0000000000026f8f .LASF331
C:\Users\CYMR90~1\AppData\Local\Temp\ccLNaGfc.s:32111  .debug_str:0000000000029335 .LASF332
C:\Users\CYMR90~1\AppData\Local\Temp\ccLNaGfc.s:32299  .debug_str:0000000000029f67 .LASF333
C:\Users\CYMR90~1\AppData\Local\Temp\ccLNaGfc.s:28323  .debug_str:000000000001a2b3 .LASF334
C:\Users\CYMR90~1\AppData\Local\Temp\ccLNaGfc.s:27771  .debug_str:0000000000017fb4 .LASF335
C:\Users\CYMR90~1\AppData\Local\Temp\ccLNaGfc.s:32151  .debug_str:00000000000295c0 .LASF336
C:\Users\CYMR90~1\AppData\Local\Temp\ccLNaGfc.s:26392  .debug_str:00000000000125ee .LASF337
C:\Users\CYMR90~1\AppData\Local\Temp\ccLNaGfc.s:30109  .debug_str:00000000000214a9 .LASF338
C:\Users\CYMR90~1\AppData\Local\Temp\ccLNaGfc.s:24418  .debug_str:000000000000a83f .LASF339
C:\Users\CYMR90~1\AppData\Local\Temp\ccLNaGfc.s:26602  .debug_str:00000000000133a7 .LASF340
C:\Users\CYMR90~1\AppData\Local\Temp\ccLNaGfc.s:28529  .debug_str:000000000001b169 .LASF341
C:\Users\CYMR90~1\AppData\Local\Temp\ccLNaGfc.s:24738  .debug_str:000000000000bd77 .LASF342
C:\Users\CYMR90~1\AppData\Local\Temp\ccLNaGfc.s:32015  .debug_str:0000000000028dcb .LASF343
C:\Users\CYMR90~1\AppData\Local\Temp\ccLNaGfc.s:32267  .debug_str:0000000000029d82 .LASF344
C:\Users\CYMR90~1\AppData\Local\Temp\ccLNaGfc.s:32867  .debug_str:000000000002c27d .LASF345
C:\Users\CYMR90~1\AppData\Local\Temp\ccLNaGfc.s:25640  .debug_str:000000000000f5f9 .LASF346
C:\Users\CYMR90~1\AppData\Local\Temp\ccLNaGfc.s:21928  .debug_str:0000000000000889 .LASF347
C:\Users\CYMR90~1\AppData\Local\Temp\ccLNaGfc.s:29899  .debug_str:00000000000207ed .LASF348
C:\Users\CYMR90~1\AppData\Local\Temp\ccLNaGfc.s:31867  .debug_str:0000000000028350 .LASF349
C:\Users\CYMR90~1\AppData\Local\Temp\ccLNaGfc.s:29367  .debug_str:000000000001e7e0 .LASF350
C:\Users\CYMR90~1\AppData\Local\Temp\ccLNaGfc.s:21862  .debug_str:00000000000004b4 .LASF351
C:\Users\CYMR90~1\AppData\Local\Temp\ccLNaGfc.s:31503  .debug_str:0000000000026c35 .LASF352
C:\Users\CYMR90~1\AppData\Local\Temp\ccLNaGfc.s:31359  .debug_str:0000000000026346 .LASF353
C:\Users\CYMR90~1\AppData\Local\Temp\ccLNaGfc.s:28979  .debug_str:000000000001ce5c .LASF354
C:\Users\CYMR90~1\AppData\Local\Temp\ccLNaGfc.s:29149  .debug_str:000000000001da32 .LASF355
C:\Users\CYMR90~1\AppData\Local\Temp\ccLNaGfc.s:25116  .debug_str:000000000000d660 .LASF356
C:\Users\CYMR90~1\AppData\Local\Temp\ccLNaGfc.s:26076  .debug_str:000000000001116f .LASF357
C:\Users\CYMR90~1\AppData\Local\Temp\ccLNaGfc.s:31779  .debug_str:0000000000027d48 .LASF358
C:\Users\CYMR90~1\AppData\Local\Temp\ccLNaGfc.s:26460  .debug_str:0000000000012a4a .LASF359
C:\Users\CYMR90~1\AppData\Local\Temp\ccLNaGfc.s:24520  .debug_str:000000000000ae61 .LASF360
C:\Users\CYMR90~1\AppData\Local\Temp\ccLNaGfc.s:29545  .debug_str:000000000001f2a5 .LASF361
C:\Users\CYMR90~1\AppData\Local\Temp\ccLNaGfc.s:26198  .debug_str:00000000000118ab .LASF362
C:\Users\CYMR90~1\AppData\Local\Temp\ccLNaGfc.s:32049  .debug_str:0000000000028fb7 .LASF363
C:\Users\CYMR90~1\AppData\Local\Temp\ccLNaGfc.s:24056  .debug_str:00000000000091dd .LASF364
C:\Users\CYMR90~1\AppData\Local\Temp\ccLNaGfc.s:31939  .debug_str:00000000000288be .LASF365
C:\Users\CYMR90~1\AppData\Local\Temp\ccLNaGfc.s:23472  .debug_str:0000000000006b2e .LASF366
C:\Users\CYMR90~1\AppData\Local\Temp\ccLNaGfc.s:26592  .debug_str:00000000000132e3 .LASF367
C:\Users\CYMR90~1\AppData\Local\Temp\ccLNaGfc.s:23750  .debug_str:0000000000007cd6 .LASF368
C:\Users\CYMR90~1\AppData\Local\Temp\ccLNaGfc.s:27815  .debug_str:0000000000018251 .LASF372
C:\Users\CYMR90~1\AppData\Local\Temp\ccLNaGfc.s:31603  .debug_str:000000000002721b .LASF373
C:\Users\CYMR90~1\AppData\Local\Temp\ccLNaGfc.s:24498  .debug_str:000000000000ad16 .LASF374
C:\Users\CYMR90~1\AppData\Local\Temp\ccLNaGfc.s:27599  .debug_str:0000000000017525 .LASF375
C:\Users\CYMR90~1\AppData\Local\Temp\ccLNaGfc.s:27801  .debug_str:000000000001818a .LASF376
C:\Users\CYMR90~1\AppData\Local\Temp\ccLNaGfc.s:30359  .debug_str:0000000000022455 .LASF377
C:\Users\CYMR90~1\AppData\Local\Temp\ccLNaGfc.s:28995  .debug_str:000000000001cf27 .LASF378
C:\Users\CYMR90~1\AppData\Local\Temp\ccLNaGfc.s:32695  .debug_str:000000000002b724 .LASF379
C:\Users\CYMR90~1\AppData\Local\Temp\ccLNaGfc.s:22432  .debug_str:00000000000028c3 .LASF380
C:\Users\CYMR90~1\AppData\Local\Temp\ccLNaGfc.s:32639  .debug_str:000000000002b37f .LASF381
C:\Users\CYMR90~1\AppData\Local\Temp\ccLNaGfc.s:28713  .debug_str:000000000001bd35 .LASF382
C:\Users\CYMR90~1\AppData\Local\Temp\ccLNaGfc.s:23526  .debug_str:0000000000006e4c .LASF383
C:\Users\CYMR90~1\AppData\Local\Temp\ccLNaGfc.s:24884  .debug_str:000000000000c6c2 .LASF384
C:\Users\CYMR90~1\AppData\Local\Temp\ccLNaGfc.s:28219  .debug_str:0000000000019c86 .LASF385
C:\Users\CYMR90~1\AppData\Local\Temp\ccLNaGfc.s:25880  .debug_str:000000000001058e .LASF386
C:\Users\CYMR90~1\AppData\Local\Temp\ccLNaGfc.s:22364  .debug_str:0000000000002485 .LASF387
C:\Users\CYMR90~1\AppData\Local\Temp\ccLNaGfc.s:25482  .debug_str:000000000000ec4e .LASF388
C:\Users\CYMR90~1\AppData\Local\Temp\ccLNaGfc.s:24030  .debug_str:000000000000900c .LASF389
C:\Users\CYMR90~1\AppData\Local\Temp\ccLNaGfc.s:22850  .debug_str:0000000000004467 .LASF391
C:\Users\CYMR90~1\AppData\Local\Temp\ccLNaGfc.s:25886  .debug_str:00000000000105e1 .LASF392
C:\Users\CYMR90~1\AppData\Local\Temp\ccLNaGfc.s:30003  .debug_str:0000000000020e5e .LASF393
C:\Users\CYMR90~1\AppData\Local\Temp\ccLNaGfc.s:31739  .debug_str:0000000000027afb .LASF394
C:\Users\CYMR90~1\AppData\Local\Temp\ccLNaGfc.s:22388  .debug_str:00000000000025bf .LASF395
C:\Users\CYMR90~1\AppData\Local\Temp\ccLNaGfc.s:24544  .debug_str:000000000000afc5 .LASF396
C:\Users\CYMR90~1\AppData\Local\Temp\ccLNaGfc.s:28329  .debug_str:000000000001a313 .LASF397
C:\Users\CYMR90~1\AppData\Local\Temp\ccLNaGfc.s:32515  .debug_str:000000000002ac27 .LASF398
C:\Users\CYMR90~1\AppData\Local\Temp\ccLNaGfc.s:27156  .debug_str:00000000000156c0 .LASF399
C:\Users\CYMR90~1\AppData\Local\Temp\ccLNaGfc.s:29629  .debug_str:000000000001f7c8 .LASF400
C:\Users\CYMR90~1\AppData\Local\Temp\ccLNaGfc.s:24018  .debug_str:0000000000008edc .LASF401
C:\Users\CYMR90~1\AppData\Local\Temp\ccLNaGfc.s:27651  .debug_str:0000000000017801 .LASF402
C:\Users\CYMR90~1\AppData\Local\Temp\ccLNaGfc.s:23368  .debug_str:00000000000064ac .LASF403
C:\Users\CYMR90~1\AppData\Local\Temp\ccLNaGfc.s:24470  .debug_str:000000000000ab4a .LASF404
C:\Users\CYMR90~1\AppData\Local\Temp\ccLNaGfc.s:25538  .debug_str:000000000000efd2 .LASF405
C:\Users\CYMR90~1\AppData\Local\Temp\ccLNaGfc.s:28901  .debug_str:000000000001c8ec .LASF406
C:\Users\CYMR90~1\AppData\Local\Temp\ccLNaGfc.s:27084  .debug_str:0000000000015260 .LASF407
C:\Users\CYMR90~1\AppData\Local\Temp\ccLNaGfc.s:28067  .debug_str:00000000000191a0 .LASF408
C:\Users\CYMR90~1\AppData\Local\Temp\ccLNaGfc.s:30303  .debug_str:00000000000220f7 .LASF409
C:\Users\CYMR90~1\AppData\Local\Temp\ccLNaGfc.s:23326  .debug_str:0000000000006214 .LASF410
C:\Users\CYMR90~1\AppData\Local\Temp\ccLNaGfc.s:27268  .debug_str:0000000000015d34 .LASF411
C:\Users\CYMR90~1\AppData\Local\Temp\ccLNaGfc.s:30431  .debug_str:000000000002286c .LASF412
C:\Users\CYMR90~1\AppData\Local\Temp\ccLNaGfc.s:23504  .debug_str:0000000000006d0f .LASF413
C:\Users\CYMR90~1\AppData\Local\Temp\ccLNaGfc.s:32145  .debug_str:0000000000029559 .LASF414
C:\Users\CYMR90~1\AppData\Local\Temp\ccLNaGfc.s:25642  .debug_str:000000000000f607 .LASF415
C:\Users\CYMR90~1\AppData\Local\Temp\ccLNaGfc.s:31473  .debug_str:0000000000026a17 .LASF416
C:\Users\CYMR90~1\AppData\Local\Temp\ccLNaGfc.s:23558  .debug_str:00000000000070a9 .LASF417
C:\Users\CYMR90~1\AppData\Local\Temp\ccLNaGfc.s:29691  .debug_str:000000000001fbca .LASF418
C:\Users\CYMR90~1\AppData\Local\Temp\ccLNaGfc.s:32357  .debug_str:000000000002a2ba .LASF419
C:\Users\CYMR90~1\AppData\Local\Temp\ccLNaGfc.s:23572  .debug_str:000000000000716d .LASF420
C:\Users\CYMR90~1\AppData\Local\Temp\ccLNaGfc.s:32559  .debug_str:000000000002ae87 .LASF421
C:\Users\CYMR90~1\AppData\Local\Temp\ccLNaGfc.s:24808  .debug_str:000000000000c258 .LASF422
C:\Users\CYMR90~1\AppData\Local\Temp\ccLNaGfc.s:25010  .debug_str:000000000000cf0f .LASF423
C:\Users\CYMR90~1\AppData\Local\Temp\ccLNaGfc.s:29525  .debug_str:000000000001f17f .LASF424
C:\Users\CYMR90~1\AppData\Local\Temp\ccLNaGfc.s:28103  .debug_str:00000000000194b3 .LASF425
C:\Users\CYMR90~1\AppData\Local\Temp\ccLNaGfc.s:21834  .debug_str:00000000000002e6 .LASF426
C:\Users\CYMR90~1\AppData\Local\Temp\ccLNaGfc.s:32055  .debug_str:0000000000029014 .LASF427
C:\Users\CYMR90~1\AppData\Local\Temp\ccLNaGfc.s:27350  .debug_str:0000000000016303 .LASF428
C:\Users\CYMR90~1\AppData\Local\Temp\ccLNaGfc.s:29295  .debug_str:000000000001e3c7 .LASF429
C:\Users\CYMR90~1\AppData\Local\Temp\ccLNaGfc.s:25830  .debug_str:000000000001024d .LASF430
C:\Users\CYMR90~1\AppData\Local\Temp\ccLNaGfc.s:27547  .debug_str:0000000000017206 .LASF431
C:\Users\CYMR90~1\AppData\Local\Temp\ccLNaGfc.s:30381  .debug_str:0000000000022574 .LASF432
C:\Users\CYMR90~1\AppData\Local\Temp\ccLNaGfc.s:24992  .debug_str:000000000000ce06 .LASF434
C:\Users\CYMR90~1\AppData\Local\Temp\ccLNaGfc.s:23034  .debug_str:0000000000005086 .LASF435
C:\Users\CYMR90~1\AppData\Local\Temp\ccLNaGfc.s:27743  .debug_str:0000000000017dfa .LASF436
C:\Users\CYMR90~1\AppData\Local\Temp\ccLNaGfc.s:23590  .debug_str:0000000000007296 .LASF437
C:\Users\CYMR90~1\AppData\Local\Temp\ccLNaGfc.s:32071  .debug_str:00000000000290cb .LASF438
C:\Users\CYMR90~1\AppData\Local\Temp\ccLNaGfc.s:21798  .debug_str:00000000000000c7 .LASF439
C:\Users\CYMR90~1\AppData\Local\Temp\ccLNaGfc.s:29565  .debug_str:000000000001f3c6 .LASF440
C:\Users\CYMR90~1\AppData\Local\Temp\ccLNaGfc.s:25236  .debug_str:000000000000dd65 .LASF441
C:\Users\CYMR90~1\AppData\Local\Temp\ccLNaGfc.s:30619  .debug_str:00000000000233c0 .LASF442
C:\Users\CYMR90~1\AppData\Local\Temp\ccLNaGfc.s:26124  .debug_str:000000000001140f .LASF443
C:\Users\CYMR90~1\AppData\Local\Temp\ccLNaGfc.s:25966  .debug_str:0000000000010a97 .LASF444
C:\Users\CYMR90~1\AppData\Local\Temp\ccLNaGfc.s:32991  .debug_str:000000000002cac4 .LASF445
C:\Users\CYMR90~1\AppData\Local\Temp\ccLNaGfc.s:32927  .debug_str:000000000002c6c8 .LASF446
C:\Users\CYMR90~1\AppData\Local\Temp\ccLNaGfc.s:26312  .debug_str:00000000000120a7 .LASF447
C:\Users\CYMR90~1\AppData\Local\Temp\ccLNaGfc.s:30595  .debug_str:000000000002324f .LASF448
C:\Users\CYMR90~1\AppData\Local\Temp\ccLNaGfc.s:22862  .debug_str:0000000000004509 .LASF449
C:\Users\CYMR90~1\AppData\Local\Temp\ccLNaGfc.s:23610  .debug_str:00000000000073ec .LASF450
C:\Users\CYMR90~1\AppData\Local\Temp\ccLNaGfc.s:22318  .debug_str:00000000000021c3 .LASF451
C:\Users\CYMR90~1\AppData\Local\Temp\ccLNaGfc.s:27000  .debug_str:0000000000014cb2 .LASF452
C:\Users\CYMR90~1\AppData\Local\Temp\ccLNaGfc.s:22308  .debug_str:0000000000002150 .LASF453
C:\Users\CYMR90~1\AppData\Local\Temp\ccLNaGfc.s:32933  .debug_str:000000000002c70e .LASF454
C:\Users\CYMR90~1\AppData\Local\Temp\ccLNaGfc.s:25406  .debug_str:000000000000e75c .LASF455
C:\Users\CYMR90~1\AppData\Local\Temp\ccLNaGfc.s:30203  .debug_str:0000000000021aba .LASF456
C:\Users\CYMR90~1\AppData\Local\Temp\ccLNaGfc.s:25088  .debug_str:000000000000d415 .LASF457
C:\Users\CYMR90~1\AppData\Local\Temp\ccLNaGfc.s:23380  .debug_str:0000000000006559 .LASF458
C:\Users\CYMR90~1\AppData\Local\Temp\ccLNaGfc.s:26034  .debug_str:0000000000010f53 .LASF459
C:\Users\CYMR90~1\AppData\Local\Temp\ccLNaGfc.s:29953  .debug_str:0000000000020b7c .LASF460
C:\Users\CYMR90~1\AppData\Local\Temp\ccLNaGfc.s:31091  .debug_str:0000000000025135 .LASF461
C:\Users\CYMR90~1\AppData\Local\Temp\ccLNaGfc.s:24222  .debug_str:0000000000009bf3 .LASF462
C:\Users\CYMR90~1\AppData\Local\Temp\ccLNaGfc.s:28379  .debug_str:000000000001a7a4 .LASF463
C:\Users\CYMR90~1\AppData\Local\Temp\ccLNaGfc.s:25252  .debug_str:000000000000de31 .LASF464
C:\Users\CYMR90~1\AppData\Local\Temp\ccLNaGfc.s:26404  .debug_str:00000000000126b8 .LASF465
C:\Users\CYMR90~1\AppData\Local\Temp\ccLNaGfc.s:23522  .debug_str:0000000000006e1f .LASF466
C:\Users\CYMR90~1\AppData\Local\Temp\ccLNaGfc.s:24074  .debug_str:00000000000092c0 .LASF467
C:\Users\CYMR90~1\AppData\Local\Temp\ccLNaGfc.s:26172  .debug_str:00000000000116f7 .LASF468
C:\Users\CYMR90~1\AppData\Local\Temp\ccLNaGfc.s:22650  .debug_str:0000000000003729 .LASF469
C:\Users\CYMR90~1\AppData\Local\Temp\ccLNaGfc.s:25924  .debug_str:0000000000010805 .LASF470
C:\Users\CYMR90~1\AppData\Local\Temp\ccLNaGfc.s:25804  .debug_str:0000000000010089 .LASF471
C:\Users\CYMR90~1\AppData\Local\Temp\ccLNaGfc.s:25378  .debug_str:000000000000e5a5 .LASF472
C:\Users\CYMR90~1\AppData\Local\Temp\ccLNaGfc.s:22016  .debug_str:0000000000000e4f .LASF473
C:\Users\CYMR90~1\AppData\Local\Temp\ccLNaGfc.s:23632  .debug_str:0000000000007588 .LASF474
C:\Users\CYMR90~1\AppData\Local\Temp\ccLNaGfc.s:21958  .debug_str:0000000000000a79 .LASF475
C:\Users\CYMR90~1\AppData\Local\Temp\ccLNaGfc.s:22828  .debug_str:000000000000427d .LASF476
C:\Users\CYMR90~1\AppData\Local\Temp\ccLNaGfc.s:22188  .debug_str:0000000000001a26 .LASF477
C:\Users\CYMR90~1\AppData\Local\Temp\ccLNaGfc.s:27294  .debug_str:0000000000015f29 .LASF478
C:\Users\CYMR90~1\AppData\Local\Temp\ccLNaGfc.s:24692  .debug_str:000000000000ba64 .LASF479
C:\Users\CYMR90~1\AppData\Local\Temp\ccLNaGfc.s:32555  .debug_str:000000000002ae57 .LASF480
C:\Users\CYMR90~1\AppData\Local\Temp\ccLNaGfc.s:27897  .debug_str:0000000000018721 .LASF481
C:\Users\CYMR90~1\AppData\Local\Temp\ccLNaGfc.s:24610  .debug_str:000000000000b49d .LASF482
C:\Users\CYMR90~1\AppData\Local\Temp\ccLNaGfc.s:23422  .debug_str:00000000000067d6 .LASF483
C:\Users\CYMR90~1\AppData\Local\Temp\ccLNaGfc.s:21924  .debug_str:0000000000000842 .LASF484
C:\Users\CYMR90~1\AppData\Local\Temp\ccLNaGfc.s:27845  .debug_str:000000000001840b .LASF485
C:\Users\CYMR90~1\AppData\Local\Temp\ccLNaGfc.s:23044  .debug_str:0000000000005124 .LASF486
C:\Users\CYMR90~1\AppData\Local\Temp\ccLNaGfc.s:26756  .debug_str:0000000000013dae .LASF487
C:\Users\CYMR90~1\AppData\Local\Temp\ccLNaGfc.s:25952  .debug_str:00000000000109c7 .LASF488
C:\Users\CYMR90~1\AppData\Local\Temp\ccLNaGfc.s:26524  .debug_str:0000000000012e79 .LASF489
C:\Users\CYMR90~1\AppData\Local\Temp\ccLNaGfc.s:24968  .debug_str:000000000000ccb2 .LASF490
C:\Users\CYMR90~1\AppData\Local\Temp\ccLNaGfc.s:23944  .debug_str:00000000000089bb .LASF491
C:\Users\CYMR90~1\AppData\Local\Temp\ccLNaGfc.s:25596  .debug_str:000000000000f337 .LASF492
C:\Users\CYMR90~1\AppData\Local\Temp\ccLNaGfc.s:23952  .debug_str:0000000000008b24 .LASF493
C:\Users\CYMR90~1\AppData\Local\Temp\ccLNaGfc.s:25810  .debug_str:00000000000100fd .LASF494
C:\Users\CYMR90~1\AppData\Local\Temp\ccLNaGfc.s:28093  .debug_str:0000000000019430 .LASF495
C:\Users\CYMR90~1\AppData\Local\Temp\ccLNaGfc.s:33013  .debug_str:000000000002cc12 .LASF496
C:\Users\CYMR90~1\AppData\Local\Temp\ccLNaGfc.s:32953  .debug_str:000000000002c890 .LASF497
C:\Users\CYMR90~1\AppData\Local\Temp\ccLNaGfc.s:25646  .debug_str:000000000000f64e .LASF498
C:\Users\CYMR90~1\AppData\Local\Temp\ccLNaGfc.s:32169  .debug_str:00000000000296a2 .LASF499
C:\Users\CYMR90~1\AppData\Local\Temp\ccLNaGfc.s:32271  .debug_str:0000000000029da5 .LASF500
C:\Users\CYMR90~1\AppData\Local\Temp\ccLNaGfc.s:26960  .debug_str:0000000000014a34 .LASF501
C:\Users\CYMR90~1\AppData\Local\Temp\ccLNaGfc.s:32223  .debug_str:0000000000029ac2 .LASF502
C:\Users\CYMR90~1\AppData\Local\Temp\ccLNaGfc.s:26908  .debug_str:0000000000014684 .LASF503
C:\Users\CYMR90~1\AppData\Local\Temp\ccLNaGfc.s:22514  .debug_str:0000000000002e5a .LASF504
C:\Users\CYMR90~1\AppData\Local\Temp\ccLNaGfc.s:30861  .debug_str:00000000000241cc .LASF505
C:\Users\CYMR90~1\AppData\Local\Temp\ccLNaGfc.s:31735  .debug_str:0000000000027ac0 .LASF506
C:\Users\CYMR90~1\AppData\Local\Temp\ccLNaGfc.s:25936  .debug_str:00000000000108be .LASF507
C:\Users\CYMR90~1\AppData\Local\Temp\ccLNaGfc.s:28013  .debug_str:0000000000018e7b .LASF508
C:\Users\CYMR90~1\AppData\Local\Temp\ccLNaGfc.s:30293  .debug_str:000000000002201b .LASF509
C:\Users\CYMR90~1\AppData\Local\Temp\ccLNaGfc.s:31959  .debug_str:0000000000028a0c .LASF510
C:\Users\CYMR90~1\AppData\Local\Temp\ccLNaGfc.s:27789  .debug_str:0000000000018098 .LASF511
C:\Users\CYMR90~1\AppData\Local\Temp\ccLNaGfc.s:31591  .debug_str:0000000000027126 .LASF512
C:\Users\CYMR90~1\AppData\Local\Temp\ccLNaGfc.s:31707  .debug_str:000000000002792c .LASF513
C:\Users\CYMR90~1\AppData\Local\Temp\ccLNaGfc.s:32149  .debug_str:0000000000029585 .LASF514
C:\Users\CYMR90~1\AppData\Local\Temp\ccLNaGfc.s:26688  .debug_str:000000000001395f .LASF515
C:\Users\CYMR90~1\AppData\Local\Temp\ccLNaGfc.s:32021  .debug_str:0000000000028e07 .LASF516
C:\Users\CYMR90~1\AppData\Local\Temp\ccLNaGfc.s:28161  .debug_str:0000000000019824 .LASF517
C:\Users\CYMR90~1\AppData\Local\Temp\ccLNaGfc.s:31967  .debug_str:0000000000028ac0 .LASF518
C:\Users\CYMR90~1\AppData\Local\Temp\ccLNaGfc.s:28819  .debug_str:000000000001c404 .LASF519
C:\Users\CYMR90~1\AppData\Local\Temp\ccLNaGfc.s:32919  .debug_str:000000000002c643 .LASF520
C:\Users\CYMR90~1\AppData\Local\Temp\ccLNaGfc.s:29091  .debug_str:000000000001d681 .LASF521
C:\Users\CYMR90~1\AppData\Local\Temp\ccLNaGfc.s:31217  .debug_str:00000000000259a7 .LASF522
C:\Users\CYMR90~1\AppData\Local\Temp\ccLNaGfc.s:26566  .debug_str:0000000000013132 .LASF523
C:\Users\CYMR90~1\AppData\Local\Temp\ccLNaGfc.s:30777  .debug_str:0000000000023cef .LASF524
C:\Users\CYMR90~1\AppData\Local\Temp\ccLNaGfc.s:24160  .debug_str:00000000000097bb .LASF525
C:\Users\CYMR90~1\AppData\Local\Temp\ccLNaGfc.s:32943  .debug_str:000000000002c787 .LASF526
C:\Users\CYMR90~1\AppData\Local\Temp\ccLNaGfc.s:25412  .debug_str:000000000000e7c0 .LASF527
C:\Users\CYMR90~1\AppData\Local\Temp\ccLNaGfc.s:26428  .debug_str:0000000000012833 .LASF528
C:\Users\CYMR90~1\AppData\Local\Temp\ccLNaGfc.s:27274  .debug_str:0000000000015d98 .LASF529
C:\Users\CYMR90~1\AppData\Local\Temp\ccLNaGfc.s:27306  .debug_str:0000000000015fd6 .LASF530
C:\Users\CYMR90~1\AppData\Local\Temp\ccLNaGfc.s:26354  .debug_str:0000000000012398 .LASF531
C:\Users\CYMR90~1\AppData\Local\Temp\ccLNaGfc.s:22574  .debug_str:00000000000031e1 .LASF532
C:\Users\CYMR90~1\AppData\Local\Temp\ccLNaGfc.s:25094  .debug_str:000000000000d44f .LASF533
C:\Users\CYMR90~1\AppData\Local\Temp\ccLNaGfc.s:32777  .debug_str:000000000002bc63 .LASF534
C:\Users\CYMR90~1\AppData\Local\Temp\ccLNaGfc.s:25594  .debug_str:000000000000f2eb .LASF535
C:\Users\CYMR90~1\AppData\Local\Temp\ccLNaGfc.s:30955  .debug_str:00000000000247f2 .LASF536
C:\Users\CYMR90~1\AppData\Local\Temp\ccLNaGfc.s:32427  .debug_str:000000000002a68b .LASF537
C:\Users\CYMR90~1\AppData\Local\Temp\ccLNaGfc.s:26188  .debug_str:00000000000117f2 .LASF538
C:\Users\CYMR90~1\AppData\Local\Temp\ccLNaGfc.s:26760  .debug_str:0000000000013dd5 .LASF539
C:\Users\CYMR90~1\AppData\Local\Temp\ccLNaGfc.s:28879  .debug_str:000000000001c7c0 .LASF540
C:\Users\CYMR90~1\AppData\Local\Temp\ccLNaGfc.s:30503  .debug_str:0000000000022c8c .LASF541
C:\Users\CYMR90~1\AppData\Local\Temp\ccLNaGfc.s:29183  .debug_str:000000000001dc5e .LASF542
C:\Users\CYMR90~1\AppData\Local\Temp\ccLNaGfc.s:22936  .debug_str:00000000000049db .LASF543
C:\Users\CYMR90~1\AppData\Local\Temp\ccLNaGfc.s:25344  .debug_str:000000000000e3a5 .LASF544
C:\Users\CYMR90~1\AppData\Local\Temp\ccLNaGfc.s:32209  .debug_str:00000000000299d5 .LASF545
C:\Users\CYMR90~1\AppData\Local\Temp\ccLNaGfc.s:26700  .debug_str:0000000000013a1d .LASF546
C:\Users\CYMR90~1\AppData\Local\Temp\ccLNaGfc.s:30485  .debug_str:0000000000022b69 .LASF547
C:\Users\CYMR90~1\AppData\Local\Temp\ccLNaGfc.s:32691  .debug_str:000000000002b6e3 .LASF548
C:\Users\CYMR90~1\AppData\Local\Temp\ccLNaGfc.s:22624  .debug_str:0000000000003562 .LASF549
C:\Users\CYMR90~1\AppData\Local\Temp\ccLNaGfc.s:23778  .debug_str:0000000000007e50 .LASF550
C:\Users\CYMR90~1\AppData\Local\Temp\ccLNaGfc.s:31479  .debug_str:0000000000026a82 .LASF551
C:\Users\CYMR90~1\AppData\Local\Temp\ccLNaGfc.s:31137  .debug_str:00000000000253fb .LASF552
C:\Users\CYMR90~1\AppData\Local\Temp\ccLNaGfc.s:32445  .debug_str:000000000002a787 .LASF553
C:\Users\CYMR90~1\AppData\Local\Temp\ccLNaGfc.s:24764  .debug_str:000000000000bee6 .LASF554
C:\Users\CYMR90~1\AppData\Local\Temp\ccLNaGfc.s:24946  .debug_str:000000000000cb09 .LASF555
C:\Users\CYMR90~1\AppData\Local\Temp\ccLNaGfc.s:23470  .debug_str:0000000000006adb .LASF556
C:\Users\CYMR90~1\AppData\Local\Temp\ccLNaGfc.s:23180  .debug_str:0000000000005961 .LASF557
C:\Users\CYMR90~1\AppData\Local\Temp\ccLNaGfc.s:26298  .debug_str:0000000000011fcc .LASF558
C:\Users\CYMR90~1\AppData\Local\Temp\ccLNaGfc.s:28039  .debug_str:0000000000018ff9 .LASF559
C:\Users\CYMR90~1\AppData\Local\Temp\ccLNaGfc.s:32011  .debug_str:0000000000028d68 .LASF560
C:\Users\CYMR90~1\AppData\Local\Temp\ccLNaGfc.s:22300  .debug_str:00000000000020b6 .LASF561
C:\Users\CYMR90~1\AppData\Local\Temp\ccLNaGfc.s:25758  .debug_str:000000000000fd64 .LASF562
C:\Users\CYMR90~1\AppData\Local\Temp\ccLNaGfc.s:28203  .debug_str:0000000000019b3f .LASF563
C:\Users\CYMR90~1\AppData\Local\Temp\ccLNaGfc.s:24454  .debug_str:000000000000aa32 .LASF564
C:\Users\CYMR90~1\AppData\Local\Temp\ccLNaGfc.s:30233  .debug_str:0000000000021c8f .LASF565
C:\Users\CYMR90~1\AppData\Local\Temp\ccLNaGfc.s:29433  .debug_str:000000000001ebbb .LASF566
C:\Users\CYMR90~1\AppData\Local\Temp\ccLNaGfc.s:26294  .debug_str:0000000000011f84 .LASF567
C:\Users\CYMR90~1\AppData\Local\Temp\ccLNaGfc.s:31315  .debug_str:0000000000026080 .LASF568
C:\Users\CYMR90~1\AppData\Local\Temp\ccLNaGfc.s:21986  .debug_str:0000000000000c89 .LASF570
C:\Users\CYMR90~1\AppData\Local\Temp\ccLNaGfc.s:26672  .debug_str:0000000000013882 .LASF571
C:\Users\CYMR90~1\AppData\Local\Temp\ccLNaGfc.s:28815  .debug_str:000000000001c3de .LASF574
C:\Users\CYMR90~1\AppData\Local\Temp\ccLNaGfc.s:22904  .debug_str:00000000000047c0 .LASF575
C:\Users\CYMR90~1\AppData\Local\Temp\ccLNaGfc.s:26914  .debug_str:000000000001470e .LASF576
C:\Users\CYMR90~1\AppData\Local\Temp\ccLNaGfc.s:23872  .debug_str:00000000000085b0 .LASF577
C:\Users\CYMR90~1\AppData\Local\Temp\ccLNaGfc.s:30133  .debug_str:0000000000021605 .LASF579
C:\Users\CYMR90~1\AppData\Local\Temp\ccLNaGfc.s:29309  .debug_str:000000000001e48a .LASF580
C:\Users\CYMR90~1\AppData\Local\Temp\ccLNaGfc.s:30859  .debug_str:00000000000241c3 .LASF581
C:\Users\CYMR90~1\AppData\Local\Temp\ccLNaGfc.s:23308  .debug_str:0000000000006118 .LASF582
C:\Users\CYMR90~1\AppData\Local\Temp\ccLNaGfc.s:25906  .debug_str:0000000000010711 .LASF583
C:\Users\CYMR90~1\AppData\Local\Temp\ccLNaGfc.s:22468  .debug_str:0000000000002b56 .LASF584
C:\Users\CYMR90~1\AppData\Local\Temp\ccLNaGfc.s:32305  .debug_str:0000000000029fcb .LASF585
C:\Users\CYMR90~1\AppData\Local\Temp\ccLNaGfc.s:30535  .debug_str:0000000000022e90 .LASF586
C:\Users\CYMR90~1\AppData\Local\Temp\ccLNaGfc.s:27450  .debug_str:000000000001696e .LASF587
C:\Users\CYMR90~1\AppData\Local\Temp\ccLNaGfc.s:23534  .debug_str:0000000000006ee7 .LASF588
C:\Users\CYMR90~1\AppData\Local\Temp\ccLNaGfc.s:27951  .debug_str:0000000000018a5a .LASF589
C:\Users\CYMR90~1\AppData\Local\Temp\ccLNaGfc.s:28325  .debug_str:000000000001a2bc .LASF590
C:\Users\CYMR90~1\AppData\Local\Temp\ccLNaGfc.s:29175  .debug_str:000000000001dbf2 .LASF591
C:\Users\CYMR90~1\AppData\Local\Temp\ccLNaGfc.s:28959  .debug_str:000000000001cd26 .LASF592
C:\Users\CYMR90~1\AppData\Local\Temp\ccLNaGfc.s:30847  .debug_str:0000000000024120 .LASF593
C:\Users\CYMR90~1\AppData\Local\Temp\ccLNaGfc.s:25870  .debug_str:00000000000104f4 .LASF594
C:\Users\CYMR90~1\AppData\Local\Temp\ccLNaGfc.s:26754  .debug_str:0000000000013d8e .LASF595
C:\Users\CYMR90~1\AppData\Local\Temp\ccLNaGfc.s:32025  .debug_str:0000000000028e53 .LASF596
C:\Users\CYMR90~1\AppData\Local\Temp\ccLNaGfc.s:23634  .debug_str:00000000000075a7 .LASF597
C:\Users\CYMR90~1\AppData\Local\Temp\ccLNaGfc.s:31829  .debug_str:00000000000280ee .LASF598
C:\Users\CYMR90~1\AppData\Local\Temp\ccLNaGfc.s:26646  .debug_str:00000000000136ce .LASF599
C:\Users\CYMR90~1\AppData\Local\Temp\ccLNaGfc.s:29649  .debug_str:000000000001f8f5 .LASF600
C:\Users\CYMR90~1\AppData\Local\Temp\ccLNaGfc.s:28887  .debug_str:000000000001c82c .LASF601
C:\Users\CYMR90~1\AppData\Local\Temp\ccLNaGfc.s:31323  .debug_str:000000000002611e .LASF602
C:\Users\CYMR90~1\AppData\Local\Temp\ccLNaGfc.s:32029  .debug_str:0000000000028e93 .LASF603
C:\Users\CYMR90~1\AppData\Local\Temp\ccLNaGfc.s:31915  .debug_str:0000000000028743 .LASF604
C:\Users\CYMR90~1\AppData\Local\Temp\ccLNaGfc.s:26590  .debug_str:00000000000132cb .LASF605
C:\Users\CYMR90~1\AppData\Local\Temp\ccLNaGfc.s:30667  .debug_str:0000000000023626 .LASF606
C:\Users\CYMR90~1\AppData\Local\Temp\ccLNaGfc.s:24230  .debug_str:0000000000009ca5 .LASF607
C:\Users\CYMR90~1\AppData\Local\Temp\ccLNaGfc.s:23734  .debug_str:0000000000007bb8 .LASF608
C:\Users\CYMR90~1\AppData\Local\Temp\ccLNaGfc.s:24522  .debug_str:000000000000ae6f .LASF609
C:\Users\CYMR90~1\AppData\Local\Temp\ccLNaGfc.s:28739  .debug_str:000000000001beb2 .LASF610
C:\Users\CYMR90~1\AppData\Local\Temp\ccLNaGfc.s:23274  .debug_str:0000000000005f39 .LASF611
C:\Users\CYMR90~1\AppData\Local\Temp\ccLNaGfc.s:30455  .debug_str:00000000000229b5 .LASF612
C:\Users\CYMR90~1\AppData\Local\Temp\ccLNaGfc.s:27138  .debug_str:000000000001559f .LASF613
C:\Users\CYMR90~1\AppData\Local\Temp\ccLNaGfc.s:23798  .debug_str:000000000000804a .LASF614
C:\Users\CYMR90~1\AppData\Local\Temp\ccLNaGfc.s:21886  .debug_str:00000000000005d1 .LASF615
C:\Users\CYMR90~1\AppData\Local\Temp\ccLNaGfc.s:27376  .debug_str:0000000000016474 .LASF616
C:\Users\CYMR90~1\AppData\Local\Temp\ccLNaGfc.s:28361  .debug_str:000000000001a4ee .LASF617
C:\Users\CYMR90~1\AppData\Local\Temp\ccLNaGfc.s:27514  .debug_str:0000000000016e27 .LASF618
C:\Users\CYMR90~1\AppData\Local\Temp\ccLNaGfc.s:30541  .debug_str:0000000000022ecf .LASF619
C:\Users\CYMR90~1\AppData\Local\Temp\ccLNaGfc.s:24778  .debug_str:000000000000c053 .LASF620
C:\Users\CYMR90~1\AppData\Local\Temp\ccLNaGfc.s:23548  .debug_str:0000000000006fec .LASF621
C:\Users\CYMR90~1\AppData\Local\Temp\ccLNaGfc.s:26110  .debug_str:000000000001134c .LASF622
C:\Users\CYMR90~1\AppData\Local\Temp\ccLNaGfc.s:29829  .debug_str:0000000000020417 .LASF623
C:\Users\CYMR90~1\AppData\Local\Temp\ccLNaGfc.s:31787  .debug_str:0000000000027dbd .LASF624
C:\Users\CYMR90~1\AppData\Local\Temp\ccLNaGfc.s:32401  .debug_str:000000000002a528 .LASF625
C:\Users\CYMR90~1\AppData\Local\Temp\ccLNaGfc.s:26822  .debug_str:000000000001415a .LASF626
C:\Users\CYMR90~1\AppData\Local\Temp\ccLNaGfc.s:32659  .debug_str:000000000002b482 .LASF627
C:\Users\CYMR90~1\AppData\Local\Temp\ccLNaGfc.s:27230  .debug_str:0000000000015ad3 .LASF628
C:\Users\CYMR90~1\AppData\Local\Temp\ccLNaGfc.s:32137  .debug_str:00000000000294c3 .LASF629
C:\Users\CYMR90~1\AppData\Local\Temp\ccLNaGfc.s:25860  .debug_str:0000000000010440 .LASF630
C:\Users\CYMR90~1\AppData\Local\Temp\ccLNaGfc.s:28949  .debug_str:000000000001cc6a .LASF631
C:\Users\CYMR90~1\AppData\Local\Temp\ccLNaGfc.s:30445  .debug_str:0000000000022915 .LASF632
C:\Users\CYMR90~1\AppData\Local\Temp\ccLNaGfc.s:24890  .debug_str:000000000000c717 .LASF633
C:\Users\CYMR90~1\AppData\Local\Temp\ccLNaGfc.s:21976  .debug_str:0000000000000bd6 .LASF634
C:\Users\CYMR90~1\AppData\Local\Temp\ccLNaGfc.s:28267  .debug_str:0000000000019f5b .LASF635
C:\Users\CYMR90~1\AppData\Local\Temp\ccLNaGfc.s:27432  .debug_str:0000000000016852 .LASF636
C:\Users\CYMR90~1\AppData\Local\Temp\ccLNaGfc.s:29057  .debug_str:000000000001d497 .LASF637
C:\Users\CYMR90~1\AppData\Local\Temp\ccLNaGfc.s:22690  .debug_str:000000000000397d .LASF638
C:\Users\CYMR90~1\AppData\Local\Temp\ccLNaGfc.s:26246  .debug_str:0000000000011cb2 .LASF639
C:\Users\CYMR90~1\AppData\Local\Temp\ccLNaGfc.s:23810  .debug_str:00000000000080f9 .LASF640
C:\Users\CYMR90~1\AppData\Local\Temp\ccLNaGfc.s:26466  .debug_str:0000000000012ab9 .LASF641
C:\Users\CYMR90~1\AppData\Local\Temp\ccLNaGfc.s:24682  .debug_str:000000000000b97a .LASF642
C:\Users\CYMR90~1\AppData\Local\Temp\ccLNaGfc.s:31771  .debug_str:0000000000027cad .LASF643
C:\Users\CYMR90~1\AppData\Local\Temp\ccLNaGfc.s:29669  .debug_str:000000000001fa4b .LASF644
C:\Users\CYMR90~1\AppData\Local\Temp\ccLNaGfc.s:22878  .debug_str:00000000000045db .LASF645
C:\Users\CYMR90~1\AppData\Local\Temp\ccLNaGfc.s:23692  .debug_str:00000000000078ef .LASF646
C:\Users\CYMR90~1\AppData\Local\Temp\ccLNaGfc.s:22612  .debug_str:0000000000003492 .LASF647
C:\Users\CYMR90~1\AppData\Local\Temp\ccLNaGfc.s:22990  .debug_str:0000000000004db5 .LASF648
C:\Users\CYMR90~1\AppData\Local\Temp\ccLNaGfc.s:32303  .debug_str:0000000000029f8c .LASF649
C:\Users\CYMR90~1\AppData\Local\Temp\ccLNaGfc.s:26168  .debug_str:0000000000011684 .LASF650
C:\Users\CYMR90~1\AppData\Local\Temp\ccLNaGfc.s:32417  .debug_str:000000000002a602 .LASF651
C:\Users\CYMR90~1\AppData\Local\Temp\ccLNaGfc.s:25770  .debug_str:000000000000fe56 .LASF652
C:\Users\CYMR90~1\AppData\Local\Temp\ccLNaGfc.s:21866  .debug_str:00000000000004d4 .LASF653
C:\Users\CYMR90~1\AppData\Local\Temp\ccLNaGfc.s:32643  .debug_str:000000000002b3aa .LASF654
C:\Users\CYMR90~1\AppData\Local\Temp\ccLNaGfc.s:24046  .debug_str:000000000000913d .LASF655
C:\Users\CYMR90~1\AppData\Local\Temp\ccLNaGfc.s:31843  .debug_str:00000000000281c6 .LASF656
C:\Users\CYMR90~1\AppData\Local\Temp\ccLNaGfc.s:21918  .debug_str:0000000000000800 .LASF657
C:\Users\CYMR90~1\AppData\Local\Temp\ccLNaGfc.s:32469  .debug_str:000000000002a92b .LASF658
C:\Users\CYMR90~1\AppData\Local\Temp\ccLNaGfc.s:26560  .debug_str:00000000000130e4 .LASF659
C:\Users\CYMR90~1\AppData\Local\Temp\ccLNaGfc.s:28991  .debug_str:000000000001cefb .LASF660
C:\Users\CYMR90~1\AppData\Local\Temp\ccLNaGfc.s:25446  .debug_str:000000000000e9f3 .LASF661
C:\Users\CYMR90~1\AppData\Local\Temp\ccLNaGfc.s:29675  .debug_str:000000000001facd .LASF662
C:\Users\CYMR90~1\AppData\Local\Temp\ccLNaGfc.s:31631  .debug_str:00000000000273cc .LASF663
C:\Users\CYMR90~1\AppData\Local\Temp\ccLNaGfc.s:26144  .debug_str:0000000000011538 .LASF664
C:\Users\CYMR90~1\AppData\Local\Temp\ccLNaGfc.s:26134  .debug_str:00000000000114b7 .LASF665
C:\Users\CYMR90~1\AppData\Local\Temp\ccLNaGfc.s:28049  .debug_str:00000000000190cd .LASF666
C:\Users\CYMR90~1\AppData\Local\Temp\ccLNaGfc.s:23286  .debug_str:0000000000005fd1 .LASF667
C:\Users\CYMR90~1\AppData\Local\Temp\ccLNaGfc.s:33147  .debug_str:000000000002d50c .LASF668
C:\Users\CYMR90~1\AppData\Local\Temp\ccLNaGfc.s:23660  .debug_str:000000000000770c .LASF669
C:\Users\CYMR90~1\AppData\Local\Temp\ccLNaGfc.s:30327  .debug_str:0000000000022265 .LASF670
C:\Users\CYMR90~1\AppData\Local\Temp\ccLNaGfc.s:26544  .debug_str:0000000000012fd5 .LASF671
C:\Users\CYMR90~1\AppData\Local\Temp\ccLNaGfc.s:29729  .debug_str:000000000001fddd .LASF672
C:\Users\CYMR90~1\AppData\Local\Temp\ccLNaGfc.s:30459  .debug_str:00000000000229e6 .LASF673
C:\Users\CYMR90~1\AppData\Local\Temp\ccLNaGfc.s:22258  .debug_str:0000000000001e4e .LASF674
C:\Users\CYMR90~1\AppData\Local\Temp\ccLNaGfc.s:27216  .debug_str:00000000000159f4 .LASF676
C:\Users\CYMR90~1\AppData\Local\Temp\ccLNaGfc.s:30877  .debug_str:00000000000242db .LASF677
C:\Users\CYMR90~1\AppData\Local\Temp\ccLNaGfc.s:28279  .debug_str:000000000001a01a .LASF678
C:\Users\CYMR90~1\AppData\Local\Temp\ccLNaGfc.s:30975  .debug_str:000000000002495d .LASF679
C:\Users\CYMR90~1\AppData\Local\Temp\ccLNaGfc.s:29429  .debug_str:000000000001eb8f .LASF680
C:\Users\CYMR90~1\AppData\Local\Temp\ccLNaGfc.s:32317  .debug_str:000000000002a069 .LASF681
C:\Users\CYMR90~1\AppData\Local\Temp\ccLNaGfc.s:22880  .debug_str:0000000000004619 .LASF682
C:\Users\CYMR90~1\AppData\Local\Temp\ccLNaGfc.s:22796  .debug_str:0000000000004044 .LASF683
C:\Users\CYMR90~1\AppData\Local\Temp\ccLNaGfc.s:24186  .debug_str:000000000000998b .LASF684
C:\Users\CYMR90~1\AppData\Local\Temp\ccLNaGfc.s:28743  .debug_str:000000000001bedf .LASF685
C:\Users\CYMR90~1\AppData\Local\Temp\ccLNaGfc.s:30189  .debug_str:00000000000219d6 .LASF686
C:\Users\CYMR90~1\AppData\Local\Temp\ccLNaGfc.s:27494  .debug_str:0000000000016c64 .LASF687
C:\Users\CYMR90~1\AppData\Local\Temp\ccLNaGfc.s:26070  .debug_str:0000000000011124 .LASF688
C:\Users\CYMR90~1\AppData\Local\Temp\ccLNaGfc.s:22672  .debug_str:0000000000003854 .LASF689
C:\Users\CYMR90~1\AppData\Local\Temp\ccLNaGfc.s:23556  .debug_str:000000000000708f .LASF690
C:\Users\CYMR90~1\AppData\Local\Temp\ccLNaGfc.s:26412  .debug_str:000000000001272c .LASF691
C:\Users\CYMR90~1\AppData\Local\Temp\ccLNaGfc.s:27254  .debug_str:0000000000015c3d .LASF692
C:\Users\CYMR90~1\AppData\Local\Temp\ccLNaGfc.s:23252  .debug_str:0000000000005e08 .LASF695
C:\Users\CYMR90~1\AppData\Local\Temp\ccLNaGfc.s:27663  .debug_str:00000000000178b7 .LASF696
C:\Users\CYMR90~1\AppData\Local\Temp\ccLNaGfc.s:25078  .debug_str:000000000000d34d .LASF697
C:\Users\CYMR90~1\AppData\Local\Temp\ccLNaGfc.s:28711  .debug_str:000000000001bd23 .LASF698
C:\Users\CYMR90~1\AppData\Local\Temp\ccLNaGfc.s:30915  .debug_str:00000000000244b1 .LASF699
C:\Users\CYMR90~1\AppData\Local\Temp\ccLNaGfc.s:26996  .debug_str:0000000000014c2f .LASF702
C:\Users\CYMR90~1\AppData\Local\Temp\ccLNaGfc.s:24208  .debug_str:0000000000009ad2 .LASF703
C:\Users\CYMR90~1\AppData\Local\Temp\ccLNaGfc.s:29619  .debug_str:000000000001f738 .LASF704
C:\Users\CYMR90~1\AppData\Local\Temp\ccLNaGfc.s:23064  .debug_str:000000000000524a .LASF705
C:\Users\CYMR90~1\AppData\Local\Temp\ccLNaGfc.s:27318  .debug_str:00000000000160b7 .LASF706
C:\Users\CYMR90~1\AppData\Local\Temp\ccLNaGfc.s:25644  .debug_str:000000000000f628 .LASF707
C:\Users\CYMR90~1\AppData\Local\Temp\ccLNaGfc.s:32045  .debug_str:0000000000028f8b .LASF708
C:\Users\CYMR90~1\AppData\Local\Temp\ccLNaGfc.s:31291  .debug_str:0000000000025f16 .LASF709
C:\Users\CYMR90~1\AppData\Local\Temp\ccLNaGfc.s:25288  .debug_str:000000000000e08d .LASF710
C:\Users\CYMR90~1\AppData\Local\Temp\ccLNaGfc.s:25808  .debug_str:00000000000100ca .LASF711
C:\Users\CYMR90~1\AppData\Local\Temp\ccLNaGfc.s:27468  .debug_str:0000000000016a58 .LASF712
C:\Users\CYMR90~1\AppData\Local\Temp\ccLNaGfc.s:24450  .debug_str:000000000000a9d8 .LASF713
C:\Users\CYMR90~1\AppData\Local\Temp\ccLNaGfc.s:32861  .debug_str:000000000002c1fe .LASF714
C:\Users\CYMR90~1\AppData\Local\Temp\ccLNaGfc.s:23794  .debug_str:0000000000007fe5 .LASF715
C:\Users\CYMR90~1\AppData\Local\Temp\ccLNaGfc.s:24724  .debug_str:000000000000bc4d .LASF716
C:\Users\CYMR90~1\AppData\Local\Temp\ccLNaGfc.s:29847  .debug_str:0000000000020530 .LASF717
C:\Users\CYMR90~1\AppData\Local\Temp\ccLNaGfc.s:31243  .debug_str:0000000000025ba4 .LASF718
C:\Users\CYMR90~1\AppData\Local\Temp\ccLNaGfc.s:31021  .debug_str:0000000000024c31 .LASF719
C:\Users\CYMR90~1\AppData\Local\Temp\ccLNaGfc.s:27983  .debug_str:0000000000018c8d .LASF720
C:\Users\CYMR90~1\AppData\Local\Temp\ccLNaGfc.s:22312  .debug_str:0000000000002185 .LASF721
C:\Users\CYMR90~1\AppData\Local\Temp\ccLNaGfc.s:29957  .debug_str:0000000000020bb0 .LASF722
C:\Users\CYMR90~1\AppData\Local\Temp\ccLNaGfc.s:28903  .debug_str:000000000001c8fc .LASF723
C:\Users\CYMR90~1\AppData\Local\Temp\ccLNaGfc.s:29485  .debug_str:000000000001ef3e .LASF724
C:\Users\CYMR90~1\AppData\Local\Temp\ccLNaGfc.s:30437  .debug_str:00000000000228c3 .LASF725
C:\Users\CYMR90~1\AppData\Local\Temp\ccLNaGfc.s:26662  .debug_str:00000000000137da .LASF726
C:\Users\CYMR90~1\AppData\Local\Temp\ccLNaGfc.s:24444  .debug_str:000000000000a97e .LASF727
C:\Users\CYMR90~1\AppData\Local\Temp\ccLNaGfc.s:31383  .debug_str:00000000000264ff .LASF728
C:\Users\CYMR90~1\AppData\Local\Temp\ccLNaGfc.s:22222  .debug_str:0000000000001c1e .LASF729
C:\Users\CYMR90~1\AppData\Local\Temp\ccLNaGfc.s:28171  .debug_str:00000000000198ad .LASF730
C:\Users\CYMR90~1\AppData\Local\Temp\ccLNaGfc.s:26634  .debug_str:000000000001362f .LASF731
C:\Users\CYMR90~1\AppData\Local\Temp\ccLNaGfc.s:31325  .debug_str:0000000000026159 .LASF732
C:\Users\CYMR90~1\AppData\Local\Temp\ccLNaGfc.s:33071  .debug_str:000000000002d01a .LASF733
C:\Users\CYMR90~1\AppData\Local\Temp\ccLNaGfc.s:26118  .debug_str:00000000000113c1 .LASF734
C:\Users\CYMR90~1\AppData\Local\Temp\ccLNaGfc.s:26046  .debug_str:0000000000010fe1 .LASF735
C:\Users\CYMR90~1\AppData\Local\Temp\ccLNaGfc.s:32999  .debug_str:000000000002cb26 .LASF736
C:\Users\CYMR90~1\AppData\Local\Temp\ccLNaGfc.s:25018  .debug_str:000000000000cf71 .LASF737
C:\Users\CYMR90~1\AppData\Local\Temp\ccLNaGfc.s:29055  .debug_str:000000000001d486 .LASF738
C:\Users\CYMR90~1\AppData\Local\Temp\ccLNaGfc.s:32745  .debug_str:000000000002ba56 .LASF739
C:\Users\CYMR90~1\AppData\Local\Temp\ccLNaGfc.s:22224  .debug_str:0000000000001c31 .LASF740
C:\Users\CYMR90~1\AppData\Local\Temp\ccLNaGfc.s:24952  .debug_str:000000000000cb79 .LASF741
C:\Users\CYMR90~1\AppData\Local\Temp\ccLNaGfc.s:22198  .debug_str:0000000000001ac7 .LASF742
C:\Users\CYMR90~1\AppData\Local\Temp\ccLNaGfc.s:26078  .debug_str:000000000001117b .LASF743
C:\Users\CYMR90~1\AppData\Local\Temp\ccLNaGfc.s:22654  .debug_str:0000000000003766 .LASF744
C:\Users\CYMR90~1\AppData\Local\Temp\ccLNaGfc.s:24054  .debug_str:00000000000091c8 .LASF745
C:\Users\CYMR90~1\AppData\Local\Temp\ccLNaGfc.s:30449  .debug_str:0000000000022964 .LASF746
C:\Users\CYMR90~1\AppData\Local\Temp\ccLNaGfc.s:22092  .debug_str:000000000000130b .LASF747
C:\Users\CYMR90~1\AppData\Local\Temp\ccLNaGfc.s:22082  .debug_str:0000000000001289 .LASF748
C:\Users\CYMR90~1\AppData\Local\Temp\ccLNaGfc.s:23232  .debug_str:0000000000005c8f .LASF750
C:\Users\CYMR90~1\AppData\Local\Temp\ccLNaGfc.s:25996  .debug_str:0000000000010c31 .LASF751
C:\Users\CYMR90~1\AppData\Local\Temp\ccLNaGfc.s:32205  .debug_str:0000000000029993 .LASF752
C:\Users\CYMR90~1\AppData\Local\Temp\ccLNaGfc.s:25930  .debug_str:000000000001087f .LASF753
C:\Users\CYMR90~1\AppData\Local\Temp\ccLNaGfc.s:23108  .debug_str:0000000000005505 .LASF754
C:\Users\CYMR90~1\AppData\Local\Temp\ccLNaGfc.s:24706  .debug_str:000000000000bb42 .LASF755
C:\Users\CYMR90~1\AppData\Local\Temp\ccLNaGfc.s:28243  .debug_str:0000000000019e0c .LASF756
C:\Users\CYMR90~1\AppData\Local\Temp\ccLNaGfc.s:24196  .debug_str:0000000000009a1e .LASF757
C:\Users\CYMR90~1\AppData\Local\Temp\ccLNaGfc.s:31273  .debug_str:0000000000025e13 .LASF758
C:\Users\CYMR90~1\AppData\Local\Temp\ccLNaGfc.s:33107  .debug_str:000000000002d2a4 .LASF759
C:\Users\CYMR90~1\AppData\Local\Temp\ccLNaGfc.s:28627  .debug_str:000000000001b824 .LASF760
C:\Users\CYMR90~1\AppData\Local\Temp\ccLNaGfc.s:32843  .debug_str:000000000002c0d5 .LASF761
C:\Users\CYMR90~1\AppData\Local\Temp\ccLNaGfc.s:24628  .debug_str:000000000000b57e .LASF762
C:\Users\CYMR90~1\AppData\Local\Temp\ccLNaGfc.s:28637  .debug_str:000000000001b8e7 .LASF765
C:\Users\CYMR90~1\AppData\Local\Temp\ccLNaGfc.s:27288  .debug_str:0000000000015e8a .LASF766
C:\Users\CYMR90~1\AppData\Local\Temp\ccLNaGfc.s:30337  .debug_str:00000000000222e3 .LASF767
C:\Users\CYMR90~1\AppData\Local\Temp\ccLNaGfc.s:27280  .debug_str:0000000000015e31 .LASF768
C:\Users\CYMR90~1\AppData\Local\Temp\ccLNaGfc.s:22458  .debug_str:0000000000002ab1 .LASF769
C:\Users\CYMR90~1\AppData\Local\Temp\ccLNaGfc.s:28757  .debug_str:000000000001c003 .LASF770
C:\Users\CYMR90~1\AppData\Local\Temp\ccLNaGfc.s:27372  .debug_str:000000000001644e .LASF771
C:\Users\CYMR90~1\AppData\Local\Temp\ccLNaGfc.s:30987  .debug_str:00000000000249f3 .LASF772
C:\Users\CYMR90~1\AppData\Local\Temp\ccLNaGfc.s:30629  .debug_str:000000000002343b .LASF773
C:\Users\CYMR90~1\AppData\Local\Temp\ccLNaGfc.s:29077  .debug_str:000000000001d5b7 .LASF774
C:\Users\CYMR90~1\AppData\Local\Temp\ccLNaGfc.s:31327  .debug_str:000000000002616f .LASF775
C:\Users\CYMR90~1\AppData\Local\Temp\ccLNaGfc.s:24342  .debug_str:000000000000a35f .LASF776
C:\Users\CYMR90~1\AppData\Local\Temp\ccLNaGfc.s:24358  .debug_str:000000000000a463 .LASF777
C:\Users\CYMR90~1\AppData\Local\Temp\ccLNaGfc.s:29419  .debug_str:000000000001eaf1 .LASF778
C:\Users\CYMR90~1\AppData\Local\Temp\ccLNaGfc.s:25872  .debug_str:000000000001051c .LASF779
C:\Users\CYMR90~1\AppData\Local\Temp\ccLNaGfc.s:29685  .debug_str:000000000001fb7c .LASF780
C:\Users\CYMR90~1\AppData\Local\Temp\ccLNaGfc.s:30333  .debug_str:00000000000222ca .LASF781
C:\Users\CYMR90~1\AppData\Local\Temp\ccLNaGfc.s:26364  .debug_str:000000000001243f .LASF782
C:\Users\CYMR90~1\AppData\Local\Temp\ccLNaGfc.s:27500  .debug_str:0000000000016d66 .LASF783
C:\Users\CYMR90~1\AppData\Local\Temp\ccLNaGfc.s:26262  .debug_str:0000000000011db0 .LASF784
C:\Users\CYMR90~1\AppData\Local\Temp\ccLNaGfc.s:25546  .debug_str:000000000000f043 .LASF785
C:\Users\CYMR90~1\AppData\Local\Temp\ccLNaGfc.s:30695  .debug_str:00000000000237b0 .LASF786
C:\Users\CYMR90~1\AppData\Local\Temp\ccLNaGfc.s:27010  .debug_str:0000000000014d54 .LASF787
C:\Users\CYMR90~1\AppData\Local\Temp\ccLNaGfc.s:29355  .debug_str:000000000001e73e .LASF788
C:\Users\CYMR90~1\AppData\Local\Temp\ccLNaGfc.s:25728  .debug_str:000000000000fbb7 .LASF789
C:\Users\CYMR90~1\AppData\Local\Temp\ccLNaGfc.s:23164  .debug_str:000000000000588a .LASF790
C:\Users\CYMR90~1\AppData\Local\Temp\ccLNaGfc.s:31677  .debug_str:0000000000027741 .LASF791
C:\Users\CYMR90~1\AppData\Local\Temp\ccLNaGfc.s:23918  .debug_str:0000000000008838 .LASF792
C:\Users\CYMR90~1\AppData\Local\Temp\ccLNaGfc.s:33077  .debug_str:000000000002d06a .LASF793
C:\Users\CYMR90~1\AppData\Local\Temp\ccLNaGfc.s:23706  .debug_str:0000000000007a0d .LASF794
C:\Users\CYMR90~1\AppData\Local\Temp\ccLNaGfc.s:31921  .debug_str:00000000000287a2 .LASF795
C:\Users\CYMR90~1\AppData\Local\Temp\ccLNaGfc.s:29931  .debug_str:00000000000209bc .LASF796
C:\Users\CYMR90~1\AppData\Local\Temp\ccLNaGfc.s:32635  .debug_str:000000000002b359 .LASF797
C:\Users\CYMR90~1\AppData\Local\Temp\ccLNaGfc.s:23538  .debug_str:0000000000006f31 .LASF798
C:\Users\CYMR90~1\AppData\Local\Temp\ccLNaGfc.s:31983  .debug_str:0000000000028bd1 .LASF799
C:\Users\CYMR90~1\AppData\Local\Temp\ccLNaGfc.s:23124  .debug_str:00000000000055fc .LASF800
C:\Users\CYMR90~1\AppData\Local\Temp\ccLNaGfc.s:28381  .debug_str:000000000001a7b1 .LASF801
C:\Users\CYMR90~1\AppData\Local\Temp\ccLNaGfc.s:28411  .debug_str:000000000001a96c .LASF802
C:\Users\CYMR90~1\AppData\Local\Temp\ccLNaGfc.s:24262  .debug_str:0000000000009e9b .LASF803
C:\Users\CYMR90~1\AppData\Local\Temp\ccLNaGfc.s:26762  .debug_str:0000000000013df5 .LASF804
C:\Users\CYMR90~1\AppData\Local\Temp\ccLNaGfc.s:23552  .debug_str:0000000000007010 .LASF805
C:\Users\CYMR90~1\AppData\Local\Temp\ccLNaGfc.s:26218  .debug_str:0000000000011a4e .LASF806
C:\Users\CYMR90~1\AppData\Local\Temp\ccLNaGfc.s:29375  .debug_str:000000000001e831 .LASF807
C:\Users\CYMR90~1\AppData\Local\Temp\ccLNaGfc.s:28955  .debug_str:000000000001ccd6 .LASF808
C:\Users\CYMR90~1\AppData\Local\Temp\ccLNaGfc.s:26750  .debug_str:0000000000013d35 .LASF809
C:\Users\CYMR90~1\AppData\Local\Temp\ccLNaGfc.s:27841  .debug_str:00000000000183b7 .LASF810
C:\Users\CYMR90~1\AppData\Local\Temp\ccLNaGfc.s:24394  .debug_str:000000000000a6c1 .LASF811
C:\Users\CYMR90~1\AppData\Local\Temp\ccLNaGfc.s:22858  .debug_str:00000000000044c9 .LASF812
C:\Users\CYMR90~1\AppData\Local\Temp\ccLNaGfc.s:32881  .debug_str:000000000002c3c1 .LASF813
C:\Users\CYMR90~1\AppData\Local\Temp\ccLNaGfc.s:23228  .debug_str:0000000000005c68 .LASF814
C:\Users\CYMR90~1\AppData\Local\Temp\ccLNaGfc.s:23452  .debug_str:00000000000069a0 .LASF815
C:\Users\CYMR90~1\AppData\Local\Temp\ccLNaGfc.s:28727  .debug_str:000000000001be0c .LASF816
C:\Users\CYMR90~1\AppData\Local\Temp\ccLNaGfc.s:24122  .debug_str:0000000000009589 .LASF817
C:\Users\CYMR90~1\AppData\Local\Temp\ccLNaGfc.s:28871  .debug_str:000000000001c750 .LASF818
C:\Users\CYMR90~1\AppData\Local\Temp\ccLNaGfc.s:22454  .debug_str:0000000000002a60 .LASF819
C:\Users\CYMR90~1\AppData\Local\Temp\ccLNaGfc.s:21960  .debug_str:0000000000000ab2 .LASF820
C:\Users\CYMR90~1\AppData\Local\Temp\ccLNaGfc.s:32471  .debug_str:000000000002a93b .LASF821
C:\Users\CYMR90~1\AppData\Local\Temp\ccLNaGfc.s:30981  .debug_str:00000000000249aa .LASF822
C:\Users\CYMR90~1\AppData\Local\Temp\ccLNaGfc.s:24088  .debug_str:0000000000009375 .LASF823
C:\Users\CYMR90~1\AppData\Local\Temp\ccLNaGfc.s:27420  .debug_str:00000000000167af .LASF824
C:\Users\CYMR90~1\AppData\Local\Temp\ccLNaGfc.s:29059  .debug_str:000000000001d4c1 .LASF825
C:\Users\CYMR90~1\AppData\Local\Temp\ccLNaGfc.s:27214  .debug_str:00000000000159d3 .LASF826
C:\Users\CYMR90~1\AppData\Local\Temp\ccLNaGfc.s:22742  .debug_str:0000000000003ce6 .LASF827
C:\Users\CYMR90~1\AppData\Local\Temp\ccLNaGfc.s:25526  .debug_str:000000000000ef24 .LASF828
C:\Users\CYMR90~1\AppData\Local\Temp\ccLNaGfc.s:31087  .debug_str:00000000000250fa .LASF829
C:\Users\CYMR90~1\AppData\Local\Temp\ccLNaGfc.s:31263  .debug_str:0000000000025d53 .LASF830
C:\Users\CYMR90~1\AppData\Local\Temp\ccLNaGfc.s:24712  .debug_str:000000000000bba1 .LASF831
C:\Users\CYMR90~1\AppData\Local\Temp\ccLNaGfc.s:25472  .debug_str:000000000000ebb5 .LASF832
C:\Users\CYMR90~1\AppData\Local\Temp\ccLNaGfc.s:23316  .debug_str:0000000000006184 .LASF833
C:\Users\CYMR90~1\AppData\Local\Temp\ccLNaGfc.s:28319  .debug_str:000000000001a26e .LASF834
C:\Users\CYMR90~1\AppData\Local\Temp\ccLNaGfc.s:27905  .debug_str:00000000000187c1 .LASF835
C:\Users\CYMR90~1\AppData\Local\Temp\ccLNaGfc.s:26028  .debug_str:0000000000010e6e .LASF836
C:\Users\CYMR90~1\AppData\Local\Temp\ccLNaGfc.s:29839  .debug_str:00000000000204c0 .LASF837
C:\Users\CYMR90~1\AppData\Local\Temp\ccLNaGfc.s:23990  .debug_str:0000000000008d6d .LASF838
C:\Users\CYMR90~1\AppData\Local\Temp\ccLNaGfc.s:23150  .debug_str:00000000000057c9 .LASF839
C:\Users\CYMR90~1\AppData\Local\Temp\ccLNaGfc.s:25918  .debug_str:00000000000107b6 .LASF840
C:\Users\CYMR90~1\AppData\Local\Temp\ccLNaGfc.s:24838  .debug_str:000000000000c419 .LASF841
C:\Users\CYMR90~1\AppData\Local\Temp\ccLNaGfc.s:28971  .debug_str:000000000001cdca .LASF842
C:\Users\CYMR90~1\AppData\Local\Temp\ccLNaGfc.s:22032  .debug_str:0000000000000fc7 .LASF843
C:\Users\CYMR90~1\AppData\Local\Temp\ccLNaGfc.s:22396  .debug_str:0000000000002669 .LASF844
C:\Users\CYMR90~1\AppData\Local\Temp\ccLNaGfc.s:30839  .debug_str:00000000000240b2 .LASF845
C:\Users\CYMR90~1\AppData\Local\Temp\ccLNaGfc.s:21794  .debug_str:0000000000000096 .LASF846
C:\Users\CYMR90~1\AppData\Local\Temp\ccLNaGfc.s:23784  .debug_str:0000000000007f58 .LASF847
C:\Users\CYMR90~1\AppData\Local\Temp\ccLNaGfc.s:29693  .debug_str:000000000001fbe0 .LASF848
C:\Users\CYMR90~1\AppData\Local\Temp\ccLNaGfc.s:32501  .debug_str:000000000002ab48 .LASF849
C:\Users\CYMR90~1\AppData\Local\Temp\ccLNaGfc.s:30157  .debug_str:000000000002176c .LASF852
C:\Users\CYMR90~1\AppData\Local\Temp\ccLNaGfc.s:32039  .debug_str:0000000000028f33 .LASF853
C:\Users\CYMR90~1\AppData\Local\Temp\ccLNaGfc.s:27066  .debug_str:000000000001512f .LASF854
C:\Users\CYMR90~1\AppData\Local\Temp\ccLNaGfc.s:30343  .debug_str:0000000000022378 .LASF856
C:\Users\CYMR90~1\AppData\Local\Temp\ccLNaGfc.s:29205  .debug_str:000000000001dde4 .LASF857
C:\Users\CYMR90~1\AppData\Local\Temp\ccLNaGfc.s:31855  .debug_str:0000000000028284 .LASF858
C:\Users\CYMR90~1\AppData\Local\Temp\ccLNaGfc.s:25120  .debug_str:000000000000d689 .LASF859
C:\Users\CYMR90~1\AppData\Local\Temp\ccLNaGfc.s:27014  .debug_str:0000000000014d83 .LASF860
C:\Users\CYMR90~1\AppData\Local\Temp\ccLNaGfc.s:30273  .debug_str:0000000000021f03 .LASF861
C:\Users\CYMR90~1\AppData\Local\Temp\ccLNaGfc.s:29411  .debug_str:000000000001eaa1 .LASF862
C:\Users\CYMR90~1\AppData\Local\Temp\ccLNaGfc.s:22132  .debug_str:0000000000001559 .LASF863
C:\Users\CYMR90~1\AppData\Local\Temp\ccLNaGfc.s:22800  .debug_str:0000000000004072 .LASF864
C:\Users\CYMR90~1\AppData\Local\Temp\ccLNaGfc.s:23202  .debug_str:0000000000005b00 .LASF865
C:\Users\CYMR90~1\AppData\Local\Temp\ccLNaGfc.s:24392  .debug_str:000000000000a6ba .LASF866
C:\Users\CYMR90~1\AppData\Local\Temp\ccLNaGfc.s:23854  .debug_str:0000000000008466 .LASF867
C:\Users\CYMR90~1\AppData\Local\Temp\ccLNaGfc.s:29129  .debug_str:000000000001d8d2 .LASF868
C:\Users\CYMR90~1\AppData\Local\Temp\ccLNaGfc.s:29775  .debug_str:00000000000200df .LASF869
C:\Users\CYMR90~1\AppData\Local\Temp\ccLNaGfc.s:30853  .debug_str:000000000002417c .LASF870
C:\Users\CYMR90~1\AppData\Local\Temp\ccLNaGfc.s:24028  .debug_str:0000000000009000 .LASF871
C:\Users\CYMR90~1\AppData\Local\Temp\ccLNaGfc.s:24466  .debug_str:000000000000ab25 .LASF872
C:\Users\CYMR90~1\AppData\Local\Temp\ccLNaGfc.s:28963  .debug_str:000000000001cd7a .LASF873
C:\Users\CYMR90~1\AppData\Local\Temp\ccLNaGfc.s:31563  .debug_str:0000000000026f98 .LASF874
C:\Users\CYMR90~1\AppData\Local\Temp\ccLNaGfc.s:26282  .debug_str:0000000000011ec8 .LASF875
C:\Users\CYMR90~1\AppData\Local\Temp\ccLNaGfc.s:26974  .debug_str:0000000000014b32 .LASF876
C:\Users\CYMR90~1\AppData\Local\Temp\ccLNaGfc.s:24268  .debug_str:0000000000009ef0 .LASF877
C:\Users\CYMR90~1\AppData\Local\Temp\ccLNaGfc.s:28667  .debug_str:000000000001bab4 .LASF878
C:\Users\CYMR90~1\AppData\Local\Temp\ccLNaGfc.s:26074  .debug_str:0000000000011161 .LASF879
C:\Users\CYMR90~1\AppData\Local\Temp\ccLNaGfc.s:27613  .debug_str:00000000000175da .LASF880
C:\Users\CYMR90~1\AppData\Local\Temp\ccLNaGfc.s:23126  .debug_str:0000000000005615 .LASF881
C:\Users\CYMR90~1\AppData\Local\Temp\ccLNaGfc.s:26506  .debug_str:0000000000012d69 .LASF882
C:\Users\CYMR90~1\AppData\Local\Temp\ccLNaGfc.s:29661  .debug_str:000000000001f9dd .LASF883
C:\Users\CYMR90~1\AppData\Local\Temp\ccLNaGfc.s:26120  .debug_str:00000000000113d2 .LASF884
C:\Users\CYMR90~1\AppData\Local\Temp\ccLNaGfc.s:33131  .debug_str:000000000002d3ea .LASF885
C:\Users\CYMR90~1\AppData\Local\Temp\ccLNaGfc.s:28673  .debug_str:000000000001bb0c .LASF886
C:\Users\CYMR90~1\AppData\Local\Temp\ccLNaGfc.s:24134  .debug_str:0000000000009630 .LASF887
C:\Users\CYMR90~1\AppData\Local\Temp\ccLNaGfc.s:30809  .debug_str:0000000000023f06 .LASF888
C:\Users\CYMR90~1\AppData\Local\Temp\ccLNaGfc.s:26442  .debug_str:0000000000012937 .LASF889
C:\Users\CYMR90~1\AppData\Local\Temp\ccLNaGfc.s:30743  .debug_str:0000000000023a87 .LASF890
C:\Users\CYMR90~1\AppData\Local\Temp\ccLNaGfc.s:22952  .debug_str:0000000000004b7a .LASF891
C:\Users\CYMR90~1\AppData\Local\Temp\ccLNaGfc.s:25422  .debug_str:000000000000e89f .LASF892
C:\Users\CYMR90~1\AppData\Local\Temp\ccLNaGfc.s:31507  .debug_str:0000000000026c5e .LASF893
C:\Users\CYMR90~1\AppData\Local\Temp\ccLNaGfc.s:30895  .debug_str:00000000000243a5 .LASF894
C:\Users\CYMR90~1\AppData\Local\Temp\ccLNaGfc.s:22104  .debug_str:00000000000013b5 .LASF895
C:\Users\CYMR90~1\AppData\Local\Temp\ccLNaGfc.s:26824  .debug_str:0000000000014192 .LASF896
C:\Users\CYMR90~1\AppData\Local\Temp\ccLNaGfc.s:23038  .debug_str:00000000000050b1 .LASF897
C:\Users\CYMR90~1\AppData\Local\Temp\ccLNaGfc.s:24258  .debug_str:0000000000009e5c .LASF898
C:\Users\CYMR90~1\AppData\Local\Temp\ccLNaGfc.s:31799  .debug_str:0000000000027ecd .LASF899
C:\Users\CYMR90~1\AppData\Local\Temp\ccLNaGfc.s:24584  .debug_str:000000000000b30b .LASF900
C:\Users\CYMR90~1\AppData\Local\Temp\ccLNaGfc.s:28717  .debug_str:000000000001bd59 .LASF901
C:\Users\CYMR90~1\AppData\Local\Temp\ccLNaGfc.s:32337  .debug_str:000000000002a1a4 .LASF902
C:\Users\CYMR90~1\AppData\Local\Temp\ccLNaGfc.s:31085  .debug_str:00000000000250d4 .LASF903
C:\Users\CYMR90~1\AppData\Local\Temp\ccLNaGfc.s:31943  .debug_str:00000000000288f5 .LASF904
C:\Users\CYMR90~1\AppData\Local\Temp\ccLNaGfc.s:26490  .debug_str:0000000000012c5b .LASF905
C:\Users\CYMR90~1\AppData\Local\Temp\ccLNaGfc.s:23906  .debug_str:000000000000879e .LASF906
C:\Users\CYMR90~1\AppData\Local\Temp\ccLNaGfc.s:32513  .debug_str:000000000002ac0b .LASF907
C:\Users\CYMR90~1\AppData\Local\Temp\ccLNaGfc.s:25416  .debug_str:000000000000e841 .LASF908
C:\Users\CYMR90~1\AppData\Local\Temp\ccLNaGfc.s:31775  .debug_str:0000000000027d0d .LASF909
C:\Users\CYMR90~1\AppData\Local\Temp\ccLNaGfc.s:26048  .debug_str:0000000000010ff2 .LASF910
C:\Users\CYMR90~1\AppData\Local\Temp\ccLNaGfc.s:22488  .debug_str:0000000000002cb8 .LASF911
C:\Users\CYMR90~1\AppData\Local\Temp\ccLNaGfc.s:22078  .debug_str:0000000000001259 .LASF912
C:\Users\CYMR90~1\AppData\Local\Temp\ccLNaGfc.s:30191  .debug_str:00000000000219fa .LASF913
C:\Users\CYMR90~1\AppData\Local\Temp\ccLNaGfc.s:31067  .debug_str:0000000000024fa4 .LASF914
C:\Users\CYMR90~1\AppData\Local\Temp\ccLNaGfc.s:24964  .debug_str:000000000000cc4b .LASF915
C:\Users\CYMR90~1\AppData\Local\Temp\ccLNaGfc.s:27587  .debug_str:000000000001744f .LASF916
C:\Users\CYMR90~1\AppData\Local\Temp\ccLNaGfc.s:25854  .debug_str:00000000000103cf .LASF917
C:\Users\CYMR90~1\AppData\Local\Temp\ccLNaGfc.s:32587  .debug_str:000000000002b047 .LASF918
C:\Users\CYMR90~1\AppData\Local\Temp\ccLNaGfc.s:22064  .debug_str:0000000000001173 .LASF919
C:\Users\CYMR90~1\AppData\Local\Temp\ccLNaGfc.s:24574  .debug_str:000000000000b26b .LASF920
C:\Users\CYMR90~1\AppData\Local\Temp\ccLNaGfc.s:31023  .debug_str:0000000000024c46 .LASF921
C:\Users\CYMR90~1\AppData\Local\Temp\ccLNaGfc.s:28405  .debug_str:000000000001a8fa .LASF922
C:\Users\CYMR90~1\AppData\Local\Temp\ccLNaGfc.s:31541  .debug_str:0000000000026e64 .LASF923
C:\Users\CYMR90~1\AppData\Local\Temp\ccLNaGfc.s:27539  .debug_str:0000000000017182 .LASF924
C:\Users\CYMR90~1\AppData\Local\Temp\ccLNaGfc.s:22450  .debug_str:0000000000002a16 .LASF925
C:\Users\CYMR90~1\AppData\Local\Temp\ccLNaGfc.s:28629  .debug_str:000000000001b85e .LASF926
C:\Users\CYMR90~1\AppData\Local\Temp\ccLNaGfc.s:22176  .debug_str:0000000000001955 .LASF927
C:\Users\CYMR90~1\AppData\Local\Temp\ccLNaGfc.s:27002  .debug_str:0000000000014cce .LASF928
C:\Users\CYMR90~1\AppData\Local\Temp\ccLNaGfc.s:29725  .debug_str:000000000001fda4 .LASF929
C:\Users\CYMR90~1\AppData\Local\Temp\ccLNaGfc.s:32845  .debug_str:000000000002c10d .LASF930
C:\Users\CYMR90~1\AppData\Local\Temp\ccLNaGfc.s:33069  .debug_str:000000000002cffc .LASF931
C:\Users\CYMR90~1\AppData\Local\Temp\ccLNaGfc.s:29621  .debug_str:000000000001f74c .LASF932
C:\Users\CYMR90~1\AppData\Local\Temp\ccLNaGfc.s:32319  .debug_str:000000000002a079 .LASF933
C:\Users\CYMR90~1\AppData\Local\Temp\ccLNaGfc.s:27338  .debug_str:000000000001623d .LASF934
C:\Users\CYMR90~1\AppData\Local\Temp\ccLNaGfc.s:28179  .debug_str:0000000000019927 .LASF935
C:\Users\CYMR90~1\AppData\Local\Temp\ccLNaGfc.s:27218  .debug_str:0000000000015a08 .LASF936
C:\Users\CYMR90~1\AppData\Local\Temp\ccLNaGfc.s:31157  .debug_str:000000000002559b .LASF937
C:\Users\CYMR90~1\AppData\Local\Temp\ccLNaGfc.s:21980  .debug_str:0000000000000c0f .LASF938
C:\Users\CYMR90~1\AppData\Local\Temp\ccLNaGfc.s:29999  .debug_str:0000000000020e2f .LASF939
C:\Users\CYMR90~1\AppData\Local\Temp\ccLNaGfc.s:31245  .debug_str:0000000000025bb0 .LASF940
C:\Users\CYMR90~1\AppData\Local\Temp\ccLNaGfc.s:24714  .debug_str:000000000000bbbf .LASF941
C:\Users\CYMR90~1\AppData\Local\Temp\ccLNaGfc.s:28393  .debug_str:000000000001a841 .LASF942
C:\Users\CYMR90~1\AppData\Local\Temp\ccLNaGfc.s:25458  .debug_str:000000000000ea8b .LASF943
C:\Users\CYMR90~1\AppData\Local\Temp\ccLNaGfc.s:31185  .debug_str:00000000000257ef .LASF944
C:\Users\CYMR90~1\AppData\Local\Temp\ccLNaGfc.s:28809  .debug_str:000000000001c384 .LASF945
C:\Users\CYMR90~1\AppData\Local\Temp\ccLNaGfc.s:25666  .debug_str:000000000000f776 .LASF946
C:\Users\CYMR90~1\AppData\Local\Temp\ccLNaGfc.s:27693  .debug_str:0000000000017aaf .LASF947
C:\Users\CYMR90~1\AppData\Local\Temp\ccLNaGfc.s:29339  .debug_str:000000000001e641 .LASF948
C:\Users\CYMR90~1\AppData\Local\Temp\ccLNaGfc.s:26024  .debug_str:0000000000010e30 .LASF949
C:\Users\CYMR90~1\AppData\Local\Temp\ccLNaGfc.s:25024  .debug_str:000000000000cfc7 .LASF950
C:\Users\CYMR90~1\AppData\Local\Temp\ccLNaGfc.s:23614  .debug_str:0000000000007449 .LASF952
C:\Users\CYMR90~1\AppData\Local\Temp\ccLNaGfc.s:27140  .debug_str:00000000000155b6 .LASF953
C:\Users\CYMR90~1\AppData\Local\Temp\ccLNaGfc.s:25058  .debug_str:000000000000d1fe .LASF954
C:\Users\CYMR90~1\AppData\Local\Temp\ccLNaGfc.s:33061  .debug_str:000000000002cf87 .LASF955
C:\Users\CYMR90~1\AppData\Local\Temp\ccLNaGfc.s:32219  .debug_str:0000000000029a45 .LASF956
C:\Users\CYMR90~1\AppData\Local\Temp\ccLNaGfc.s:32309  .debug_str:000000000002a003 .LASF960
C:\Users\CYMR90~1\AppData\Local\Temp\ccLNaGfc.s:24162  .debug_str:0000000000009847 .LASF961
C:\Users\CYMR90~1\AppData\Local\Temp\ccLNaGfc.s:31573  .debug_str:000000000002702e .LASF962
C:\Users\CYMR90~1\AppData\Local\Temp\ccLNaGfc.s:26254  .debug_str:0000000000011d34 .LASF963
C:\Users\CYMR90~1\AppData\Local\Temp\ccLNaGfc.s:23636  .debug_str:00000000000075cb .LASF964
C:\Users\CYMR90~1\AppData\Local\Temp\ccLNaGfc.s:30375  .debug_str:0000000000022535 .LASF965
C:\Users\CYMR90~1\AppData\Local\Temp\ccLNaGfc.s:28621  .debug_str:000000000001b7ba .LASF966
C:\Users\CYMR90~1\AppData\Local\Temp\ccLNaGfc.s:31513  .debug_str:0000000000026cba .LASF967
C:\Users\CYMR90~1\AppData\Local\Temp\ccLNaGfc.s:32629  .debug_str:000000000002b2eb .LASF968
C:\Users\CYMR90~1\AppData\Local\Temp\ccLNaGfc.s:23372  .debug_str:00000000000064db .LASF969
C:\Users\CYMR90~1\AppData\Local\Temp\ccLNaGfc.s:26862  .debug_str:0000000000014401 .LASF970
C:\Users\CYMR90~1\AppData\Local\Temp\ccLNaGfc.s:32715  .debug_str:000000000002b873 .LASF971
C:\Users\CYMR90~1\AppData\Local\Temp\ccLNaGfc.s:25468  .debug_str:000000000000eb57 .LASF972
C:\Users\CYMR90~1\AppData\Local\Temp\ccLNaGfc.s:26928  .debug_str:0000000000014823 .LASF973
C:\Users\CYMR90~1\AppData\Local\Temp\ccLNaGfc.s:25084  .debug_str:000000000000d3a6 .LASF974
C:\Users\CYMR90~1\AppData\Local\Temp\ccLNaGfc.s:27474  .debug_str:0000000000016ad2 .LASF975
C:\Users\CYMR90~1\AppData\Local\Temp\ccLNaGfc.s:33093  .debug_str:000000000002d120 .LASF976
C:\Users\CYMR90~1\AppData\Local\Temp\ccLNaGfc.s:25020  .debug_str:000000000000cf82 .LASF977
C:\Users\CYMR90~1\AppData\Local\Temp\ccLNaGfc.s:33119  .debug_str:000000000002d359 .LASF978
C:\Users\CYMR90~1\AppData\Local\Temp\ccLNaGfc.s:31355  .debug_str:000000000002630a .LASF979
C:\Users\CYMR90~1\AppData\Local\Temp\ccLNaGfc.s:31409  .debug_str:0000000000026673 .LASF980
C:\Users\CYMR90~1\AppData\Local\Temp\ccLNaGfc.s:25524  .debug_str:000000000000ef0a .LASF981
C:\Users\CYMR90~1\AppData\Local\Temp\ccLNaGfc.s:23074  .debug_str:00000000000052f4 .LASF982
C:\Users\CYMR90~1\AppData\Local\Temp\ccLNaGfc.s:26278  .debug_str:0000000000011eab .LASF983
C:\Users\CYMR90~1\AppData\Local\Temp\ccLNaGfc.s:29037  .debug_str:000000000001d2c4 .LASF984
C:\Users\CYMR90~1\AppData\Local\Temp\ccLNaGfc.s:30933  .debug_str:0000000000024689 .LASF985
C:\Users\CYMR90~1\AppData\Local\Temp\ccLNaGfc.s:30659  .debug_str:00000000000235d4 .LASF986
C:\Users\CYMR90~1\AppData\Local\Temp\ccLNaGfc.s:27284  .debug_str:0000000000015e66 .LASF987
C:\Users\CYMR90~1\AppData\Local\Temp\ccLNaGfc.s:22506  .debug_str:0000000000002dcb .LASF988
C:\Users\CYMR90~1\AppData\Local\Temp\ccLNaGfc.s:30579  .debug_str:0000000000023175 .LASF989
C:\Users\CYMR90~1\AppData\Local\Temp\ccLNaGfc.s:27997  .debug_str:0000000000018d79 .LASF990
C:\Users\CYMR90~1\AppData\Local\Temp\ccLNaGfc.s:25016  .debug_str:000000000000cf5a .LASF991
C:\Users\CYMR90~1\AppData\Local\Temp\ccLNaGfc.s:31515  .debug_str:0000000000026ce2 .LASF992
C:\Users\CYMR90~1\AppData\Local\Temp\ccLNaGfc.s:23656  .debug_str:00000000000076d3 .LASF993
C:\Users\CYMR90~1\AppData\Local\Temp\ccLNaGfc.s:31333  .debug_str:00000000000261a9 .LASF994
C:\Users\CYMR90~1\AppData\Local\Temp\ccLNaGfc.s:28083  .debug_str:0000000000019389 .LASF995
C:\Users\CYMR90~1\AppData\Local\Temp\ccLNaGfc.s:32125  .debug_str:0000000000029432 .LASF996
C:\Users\CYMR90~1\AppData\Local\Temp\ccLNaGfc.s:29243  .debug_str:000000000001dfdf .LASF997
C:\Users\CYMR90~1\AppData\Local\Temp\ccLNaGfc.s:29319  .debug_str:000000000001e513 .LASF998
C:\Users\CYMR90~1\AppData\Local\Temp\ccLNaGfc.s:22408  .debug_str:00000000000026fd .LASF999
C:\Users\CYMR90~1\AppData\Local\Temp\ccLNaGfc.s:22750  .debug_str:0000000000003d5e .LASF1000
C:\Users\CYMR90~1\AppData\Local\Temp\ccLNaGfc.s:27018  .debug_str:0000000000014db3 .LASF1001
C:\Users\CYMR90~1\AppData\Local\Temp\ccLNaGfc.s:25862  .debug_str:0000000000010476 .LASF1002
C:\Users\CYMR90~1\AppData\Local\Temp\ccLNaGfc.s:23030  .debug_str:0000000000005058 .LASF1003
C:\Users\CYMR90~1\AppData\Local\Temp\ccLNaGfc.s:28855  .debug_str:000000000001c64c .LASF1004
C:\Users\CYMR90~1\AppData\Local\Temp\ccLNaGfc.s:26232  .debug_str:0000000000011b4f .LASF1005
C:\Users\CYMR90~1\AppData\Local\Temp\ccLNaGfc.s:24978  .debug_str:000000000000cd26 .LASF1006
C:\Users\CYMR90~1\AppData\Local\Temp\ccLNaGfc.s:23346  .debug_str:0000000000006358 .LASF1007
C:\Users\CYMR90~1\AppData\Local\Temp\ccLNaGfc.s:30371  .debug_str:00000000000224fd .LASF1008
C:\Users\CYMR90~1\AppData\Local\Temp\ccLNaGfc.s:27775  .debug_str:0000000000017fd6 .LASF1009
C:\Users\CYMR90~1\AppData\Local\Temp\ccLNaGfc.s:27929  .debug_str:000000000001891c .LASF1010
C:\Users\CYMR90~1\AppData\Local\Temp\ccLNaGfc.s:25294  .debug_str:000000000000e0d2 .LASF1011
C:\Users\CYMR90~1\AppData\Local\Temp\ccLNaGfc.s:29099  .debug_str:000000000001d6ff .LASF1012
C:\Users\CYMR90~1\AppData\Local\Temp\ccLNaGfc.s:30583  .debug_str:00000000000231a0 .LASF1013
C:\Users\CYMR90~1\AppData\Local\Temp\ccLNaGfc.s:28193  .debug_str:0000000000019a52 .LASF1014
C:\Users\CYMR90~1\AppData\Local\Temp\ccLNaGfc.s:22746  .debug_str:0000000000003d28 .LASF1015
C:\Users\CYMR90~1\AppData\Local\Temp\ccLNaGfc.s:23236  .debug_str:0000000000005cc5 .LASF1016
C:\Users\CYMR90~1\AppData\Local\Temp\ccLNaGfc.s:23192  .debug_str:0000000000005a55 .LASF1017
C:\Users\CYMR90~1\AppData\Local\Temp\ccLNaGfc.s:31667  .debug_str:0000000000027601 .LASF1018
C:\Users\CYMR90~1\AppData\Local\Temp\ccLNaGfc.s:25534  .debug_str:000000000000ef8c .LASF1019
C:\Users\CYMR90~1\AppData\Local\Temp\ccLNaGfc.s:22402  .debug_str:00000000000026b4 .LASF1020
C:\Users\CYMR90~1\AppData\Local\Temp\ccLNaGfc.s:27813  .debug_str:0000000000018234 .LASF1021
C:\Users\CYMR90~1\AppData\Local\Temp\ccLNaGfc.s:24836  .debug_str:000000000000c401 .LASF1022
C:\Users\CYMR90~1\AppData\Local\Temp\ccLNaGfc.s:31593  .debug_str:0000000000027151 .LASF1023
C:\Users\CYMR90~1\AppData\Local\Temp\ccLNaGfc.s:24066  .debug_str:000000000000926b .LASF1024
C:\Users\CYMR90~1\AppData\Local\Temp\ccLNaGfc.s:26554  .debug_str:000000000001307c .LASF1025
C:\Users\CYMR90~1\AppData\Local\Temp\ccLNaGfc.s:26052  .debug_str:0000000000011033 .LASF1026
C:\Users\CYMR90~1\AppData\Local\Temp\ccLNaGfc.s:26994  .debug_str:0000000000014c1a .LASF1027
C:\Users\CYMR90~1\AppData\Local\Temp\ccLNaGfc.s:29181  .debug_str:000000000001dc49 .LASF1028
C:\Users\CYMR90~1\AppData\Local\Temp\ccLNaGfc.s:29579  .debug_str:000000000001f4a6 .LASF1029
C:\Users\CYMR90~1\AppData\Local\Temp\ccLNaGfc.s:30871  .debug_str:0000000000024289 .LASF1030
C:\Users\CYMR90~1\AppData\Local\Temp\ccLNaGfc.s:29951  .debug_str:0000000000020b6a .LASF1031
C:\Users\CYMR90~1\AppData\Local\Temp\ccLNaGfc.s:32221  .debug_str:0000000000029aad .LASF1032
C:\Users\CYMR90~1\AppData\Local\Temp\ccLNaGfc.s:24216  .debug_str:0000000000009ba9 .LASF1033
C:\Users\CYMR90~1\AppData\Local\Temp\ccLNaGfc.s:23082  .debug_str:0000000000005376 .LASF1034
C:\Users\CYMR90~1\AppData\Local\Temp\ccLNaGfc.s:28125  .debug_str:00000000000195f6 .LASF1035
C:\Users\CYMR90~1\AppData\Local\Temp\ccLNaGfc.s:28383  .debug_str:000000000001a7cb .LASF1036
C:\Users\CYMR90~1\AppData\Local\Temp\ccLNaGfc.s:30673  .debug_str:000000000002366b .LASF1037
C:\Users\CYMR90~1\AppData\Local\Temp\ccLNaGfc.s:25710  .debug_str:000000000000fadc .LASF1038
C:\Users\CYMR90~1\AppData\Local\Temp\ccLNaGfc.s:29291  .debug_str:000000000001e377 .LASF1039
C:\Users\CYMR90~1\AppData\Local\Temp\ccLNaGfc.s:27154  .debug_str:00000000000156ae .LASF1040
C:\Users\CYMR90~1\AppData\Local\Temp\ccLNaGfc.s:25612  .debug_str:000000000000f43c .LASF1041
C:\Users\CYMR90~1\AppData\Local\Temp\ccLNaGfc.s:31401  .debug_str:0000000000026603 .LASF1042
C:\Users\CYMR90~1\AppData\Local\Temp\ccLNaGfc.s:25864  .debug_str:000000000001048d .LASF1043
C:\Users\CYMR90~1\AppData\Local\Temp\ccLNaGfc.s:21812  .debug_str:000000000000018d .LASF1044
C:\Users\CYMR90~1\AppData\Local\Temp\ccLNaGfc.s:24078  .debug_str:00000000000092f2 .LASF1045
C:\Users\CYMR90~1\AppData\Local\Temp\ccLNaGfc.s:28315  .debug_str:000000000001a230 .LASF1046
C:\Users\CYMR90~1\AppData\Local\Temp\ccLNaGfc.s:27404  .debug_str:000000000001661f .LASF1047
C:\Users\CYMR90~1\AppData\Local\Temp\ccLNaGfc.s:30717  .debug_str:00000000000238f0 .LASF1048
C:\Users\CYMR90~1\AppData\Local\Temp\ccLNaGfc.s:29541  .debug_str:000000000001f275 .LASF1049
C:\Users\CYMR90~1\AppData\Local\Temp\ccLNaGfc.s:22580  .debug_str:0000000000003293 .LASF1050
C:\Users\CYMR90~1\AppData\Local\Temp\ccLNaGfc.s:29551  .debug_str:000000000001f300 .LASF1051
C:\Users\CYMR90~1\AppData\Local\Temp\ccLNaGfc.s:29757  .debug_str:000000000001ffba .LASF1052
C:\Users\CYMR90~1\AppData\Local\Temp\ccLNaGfc.s:24582  .debug_str:000000000000b2f9 .LASF1053
C:\Users\CYMR90~1\AppData\Local\Temp\ccLNaGfc.s:30621  .debug_str:00000000000233da .LASF1054
C:\Users\CYMR90~1\AppData\Local\Temp\ccLNaGfc.s:26530  .debug_str:0000000000012ee2 .LASF1055
C:\Users\CYMR90~1\AppData\Local\Temp\ccLNaGfc.s:25464  .debug_str:000000000000eb05 .LASF1056
C:\Users\CYMR90~1\AppData\Local\Temp\ccLNaGfc.s:31835  .debug_str:000000000002814e .LASF1057
C:\Users\CYMR90~1\AppData\Local\Temp\ccLNaGfc.s:32431  .debug_str:000000000002a6b0 .LASF1058
C:\Users\CYMR90~1\AppData\Local\Temp\ccLNaGfc.s:31155  .debug_str:0000000000025579 .LASF1059
C:\Users\CYMR90~1\AppData\Local\Temp\ccLNaGfc.s:26522  .debug_str:0000000000012e5c .LASF1060
C:\Users\CYMR90~1\AppData\Local\Temp\ccLNaGfc.s:23886  .debug_str:0000000000008670 .LASF1061
C:\Users\CYMR90~1\AppData\Local\Temp\ccLNaGfc.s:21942  .debug_str:000000000000094a .LASF1062
C:\Users\CYMR90~1\AppData\Local\Temp\ccLNaGfc.s:26902  .debug_str:0000000000014638 .LASF1063
C:\Users\CYMR90~1\AppData\Local\Temp\ccLNaGfc.s:22798  .debug_str:000000000000405b .LASF1064
C:\Users\CYMR90~1\AppData\Local\Temp\ccLNaGfc.s:21884  .debug_str:00000000000005ba .LASF1065
C:\Users\CYMR90~1\AppData\Local\Temp\ccLNaGfc.s:33125  .debug_str:000000000002d3a2 .LASF1066
C:\Users\CYMR90~1\AppData\Local\Temp\ccLNaGfc.s:24080  .debug_str:000000000000930a .LASF1067
C:\Users\CYMR90~1\AppData\Local\Temp\ccLNaGfc.s:27472  .debug_str:0000000000016ab8 .LASF1068
C:\Users\CYMR90~1\AppData\Local\Temp\ccLNaGfc.s:29067  .debug_str:000000000001d534 .LASF1069
C:\Users\CYMR90~1\AppData\Local\Temp\ccLNaGfc.s:21998  .debug_str:0000000000000d21 .LASF1070
C:\Users\CYMR90~1\AppData\Local\Temp\ccLNaGfc.s:24348  .debug_str:000000000000a3b3 .LASF1071
C:\Users\CYMR90~1\AppData\Local\Temp\ccLNaGfc.s:30531  .debug_str:0000000000022e5f .LASF1072
C:\Users\CYMR90~1\AppData\Local\Temp\ccLNaGfc.s:29033  .debug_str:000000000001d282 .LASF1073
C:\Users\CYMR90~1\AppData\Local\Temp\ccLNaGfc.s:32089  .debug_str:00000000000291f0 .LASF1074
C:\Users\CYMR90~1\AppData\Local\Temp\ccLNaGfc.s:27621  .debug_str:000000000001763b .LASF1075
C:\Users\CYMR90~1\AppData\Local\Temp\ccLNaGfc.s:22446  .debug_str:00000000000029e9 .LASF1076
C:\Users\CYMR90~1\AppData\Local\Temp\ccLNaGfc.s:32519  .debug_str:000000000002ac5a .LASF1077
C:\Users\CYMR90~1\AppData\Local\Temp\ccLNaGfc.s:23410  .debug_str:000000000000672c .LASF1078
C:\Users\CYMR90~1\AppData\Local\Temp\ccLNaGfc.s:29867  .debug_str:0000000000020655 .LASF1079
C:\Users\CYMR90~1\AppData\Local\Temp\ccLNaGfc.s:25306  .debug_str:000000000000e186 .LASF1080
C:\Users\CYMR90~1\AppData\Local\Temp\ccLNaGfc.s:28829  .debug_str:000000000001c4bb .LASF1081
C:\Users\CYMR90~1\AppData\Local\Temp\ccLNaGfc.s:31697  .debug_str:0000000000027896 .LASF1082
C:\Users\CYMR90~1\AppData\Local\Temp\ccLNaGfc.s:27098  .debug_str:0000000000015352 .LASF1083
C:\Users\CYMR90~1\AppData\Local\Temp\ccLNaGfc.s:30215  .debug_str:0000000000021b9b .LASF1084
C:\Users\CYMR90~1\AppData\Local\Temp\ccLNaGfc.s:23104  .debug_str:00000000000054cd .LASF1085
C:\Users\CYMR90~1\AppData\Local\Temp\ccLNaGfc.s:22210  .debug_str:0000000000001b79 .LASF1086
C:\Users\CYMR90~1\AppData\Local\Temp\ccLNaGfc.s:25340  .debug_str:000000000000e37a .LASF1087
C:\Users\CYMR90~1\AppData\Local\Temp\ccLNaGfc.s:31407  .debug_str:0000000000026664 .LASF1088
C:\Users\CYMR90~1\AppData\Local\Temp\ccLNaGfc.s:30525  .debug_str:0000000000022e07 .LASF1089
C:\Users\CYMR90~1\AppData\Local\Temp\ccLNaGfc.s:22054  .debug_str:00000000000010de .LASF1090
C:\Users\CYMR90~1\AppData\Local\Temp\ccLNaGfc.s:33057  .debug_str:000000000002cf2f .LASF1091
C:\Users\CYMR90~1\AppData\Local\Temp\ccLNaGfc.s:31797  .debug_str:0000000000027eb5 .LASF1092
C:\Users\CYMR90~1\AppData\Local\Temp\ccLNaGfc.s:25686  .debug_str:000000000000f895 .LASF1093
C:\Users\CYMR90~1\AppData\Local\Temp\ccLNaGfc.s:31451  .debug_str:00000000000268b6 .LASF1094
C:\Users\CYMR90~1\AppData\Local\Temp\ccLNaGfc.s:27170  .debug_str:0000000000015759 .LASF1095
C:\Users\CYMR90~1\AppData\Local\Temp\ccLNaGfc.s:28647  .debug_str:000000000001b973 .LASF1096
C:\Users\CYMR90~1\AppData\Local\Temp\ccLNaGfc.s:29185  .debug_str:000000000001dc9b .LASF1097
C:\Users\CYMR90~1\AppData\Local\Temp\ccLNaGfc.s:23396  .debug_str:000000000000666f .LASF1098
C:\Users\CYMR90~1\AppData\Local\Temp\ccLNaGfc.s:26550  .debug_str:0000000000013019 .LASF1099
C:\Users\CYMR90~1\AppData\Local\Temp\ccLNaGfc.s:25858  .debug_str:0000000000010426 .LASF1100
C:\Users\CYMR90~1\AppData\Local\Temp\ccLNaGfc.s:30793  .debug_str:0000000000023e0a .LASF1101
C:\Users\CYMR90~1\AppData\Local\Temp\ccLNaGfc.s:25030  .debug_str:000000000000d014 .LASF1102
C:\Users\CYMR90~1\AppData\Local\Temp\ccLNaGfc.s:30465  .debug_str:0000000000022a27 .LASF1103
C:\Users\CYMR90~1\AppData\Local\Temp\ccLNaGfc.s:32033  .debug_str:0000000000028ee1 .LASF1104
C:\Users\CYMR90~1\AppData\Local\Temp\ccLNaGfc.s:29883  .debug_str:0000000000020711 .LASF1105
C:\Users\CYMR90~1\AppData\Local\Temp\ccLNaGfc.s:26732  .debug_str:0000000000013bff .LASF1106
C:\Users\CYMR90~1\AppData\Local\Temp\ccLNaGfc.s:30713  .debug_str:00000000000238ba .LASF1107
C:\Users\CYMR90~1\AppData\Local\Temp\ccLNaGfc.s:28555  .debug_str:000000000001b350 .LASF1108
C:\Users\CYMR90~1\AppData\Local\Temp\ccLNaGfc.s:23414  .debug_str:0000000000006768 .LASF1109
C:\Users\CYMR90~1\AppData\Local\Temp\ccLNaGfc.s:24378  .debug_str:000000000000a58c .LASF1110
C:\Users\CYMR90~1\AppData\Local\Temp\ccLNaGfc.s:22274  .debug_str:0000000000001f54 .LASF1111
C:\Users\CYMR90~1\AppData\Local\Temp\ccLNaGfc.s:23498  .debug_str:0000000000006cb8 .LASF1112
C:\Users\CYMR90~1\AppData\Local\Temp\ccLNaGfc.s:24608  .debug_str:000000000000b47c .LASF1113
C:\Users\CYMR90~1\AppData\Local\Temp\ccLNaGfc.s:23156  .debug_str:0000000000005813 .LASF1114
C:\Users\CYMR90~1\AppData\Local\Temp\ccLNaGfc.s:24168  .debug_str:000000000000988a .LASF1115
C:\Users\CYMR90~1\AppData\Local\Temp\ccLNaGfc.s:31875  .debug_str:0000000000028409 .LASF1116
C:\Users\CYMR90~1\AppData\Local\Temp\ccLNaGfc.s:32381  .debug_str:000000000002a3f8 .LASF1117
C:\Users\CYMR90~1\AppData\Local\Temp\ccLNaGfc.s:23318  .debug_str:00000000000061ae .LASF1118
C:\Users\CYMR90~1\AppData\Local\Temp\ccLNaGfc.s:27791  .debug_str:00000000000180c4 .LASF1119
C:\Users\CYMR90~1\AppData\Local\Temp\ccLNaGfc.s:23852  .debug_str:0000000000008449 .LASF1120
C:\Users\CYMR90~1\AppData\Local\Temp\ccLNaGfc.s:24060  .debug_str:000000000000920a .LASF1121
C:\Users\CYMR90~1\AppData\Local\Temp\ccLNaGfc.s:26666  .debug_str:0000000000013809 .LASF1122
C:\Users\CYMR90~1\AppData\Local\Temp\ccLNaGfc.s:26304  .debug_str:0000000000012036 .LASF1123
C:\Users\CYMR90~1\AppData\Local\Temp\ccLNaGfc.s:29969  .debug_str:0000000000020c52 .LASF1124
C:\Users\CYMR90~1\AppData\Local\Temp\ccLNaGfc.s:27104  .debug_str:000000000001539a .LASF1125
C:\Users\CYMR90~1\AppData\Local\Temp\ccLNaGfc.s:27192  .debug_str:00000000000158c0 .LASF1126
C:\Users\CYMR90~1\AppData\Local\Temp\ccLNaGfc.s:30611  .debug_str:0000000000023325 .LASF1127
C:\Users\CYMR90~1\AppData\Local\Temp\ccLNaGfc.s:31695  .debug_str:0000000000027881 .LASF1128
C:\Users\CYMR90~1\AppData\Local\Temp\ccLNaGfc.s:23204  .debug_str:0000000000005b0d .LASF1129
C:\Users\CYMR90~1\AppData\Local\Temp\ccLNaGfc.s:27190  .debug_str:00000000000158ab .LASF1130
C:\Users\CYMR90~1\AppData\Local\Temp\ccLNaGfc.s:32217  .debug_str:0000000000029a30 .LASF1131
C:\Users\CYMR90~1\AppData\Local\Temp\ccLNaGfc.s:32619  .debug_str:000000000002b25d .LASF1132
C:\Users\CYMR90~1\AppData\Local\Temp\ccLNaGfc.s:27899  .debug_str:000000000001873c .LASF1133
C:\Users\CYMR90~1\AppData\Local\Temp\ccLNaGfc.s:30763  .debug_str:0000000000023be3 .LASF1134
C:\Users\CYMR90~1\AppData\Local\Temp\ccLNaGfc.s:23740  .debug_str:0000000000007c50 .LASF1135
C:\Users\CYMR90~1\AppData\Local\Temp\ccLNaGfc.s:22974  .debug_str:0000000000004ccb .LASF1136
C:\Users\CYMR90~1\AppData\Local\Temp\ccLNaGfc.s:22804  .debug_str:000000000000409c .LASF1137
C:\Users\CYMR90~1\AppData\Local\Temp\ccLNaGfc.s:32227  .debug_str:0000000000029b0c .LASF1138
C:\Users\CYMR90~1\AppData\Local\Temp\ccLNaGfc.s:29323  .debug_str:000000000001e54c .LASF1139
C:\Users\CYMR90~1\AppData\Local\Temp\ccLNaGfc.s:29221  .debug_str:000000000001decb .LASF1140
C:\Users\CYMR90~1\AppData\Local\Temp\ccLNaGfc.s:21858  .debug_str:0000000000000470 .LASF1141
C:\Users\CYMR90~1\AppData\Local\Temp\ccLNaGfc.s:26096  .debug_str:000000000001127c .LASF1142
C:\Users\CYMR90~1\AppData\Local\Temp\ccLNaGfc.s:25346  .debug_str:000000000000e3ed .LASF1143
C:\Users\CYMR90~1\AppData\Local\Temp\ccLNaGfc.s:31747  .debug_str:0000000000027b59 .LASF1144
C:\Users\CYMR90~1\AppData\Local\Temp\ccLNaGfc.s:29929  .debug_str:00000000000209a2 .LASF1145
C:\Users\CYMR90~1\AppData\Local\Temp\ccLNaGfc.s:24872  .debug_str:000000000000c611 .LASF1146
C:\Users\CYMR90~1\AppData\Local\Temp\ccLNaGfc.s:33053  .debug_str:000000000002ceed .LASF1147
C:\Users\CYMR90~1\AppData\Local\Temp\ccLNaGfc.s:27645  .debug_str:0000000000017793 .LASF1148
C:\Users\CYMR90~1\AppData\Local\Temp\ccLNaGfc.s:27907  .debug_str:00000000000187e9 .LASF1149
C:\Users\CYMR90~1\AppData\Local\Temp\ccLNaGfc.s:28665  .debug_str:000000000001ba79 .LASF1150
C:\Users\CYMR90~1\AppData\Local\Temp\ccLNaGfc.s:22276  .debug_str:0000000000001f72 .LASF1151
C:\Users\CYMR90~1\AppData\Local\Temp\ccLNaGfc.s:29089  .debug_str:000000000001d66a .LASF1152
C:\Users\CYMR90~1\AppData\Local\Temp\ccLNaGfc.s:24190  .debug_str:00000000000099ac .LASF1153
C:\Users\CYMR90~1\AppData\Local\Temp\ccLNaGfc.s:30229  .debug_str:0000000000021c4d .LASF1154
C:\Users\CYMR90~1\AppData\Local\Temp\ccLNaGfc.s:29453  .debug_str:000000000001ed53 .LASF1155
C:\Users\CYMR90~1\AppData\Local\Temp\ccLNaGfc.s:23086  .debug_str:00000000000053a2 .LASF1156
C:\Users\CYMR90~1\AppData\Local\Temp\ccLNaGfc.s:29285  .debug_str:000000000001e2fc .LASF1157
C:\Users\CYMR90~1\AppData\Local\Temp\ccLNaGfc.s:24626  .debug_str:000000000000b56c .LASF1158
C:\Users\CYMR90~1\AppData\Local\Temp\ccLNaGfc.s:32399  .debug_str:000000000002a516 .LASF1159
C:\Users\CYMR90~1\AppData\Local\Temp\ccLNaGfc.s:22158  .debug_str:000000000000178a .LASF1160
C:\Users\CYMR90~1\AppData\Local\Temp\ccLNaGfc.s:32481  .debug_str:000000000002aa1a .LASF1161
C:\Users\CYMR90~1\AppData\Local\Temp\ccLNaGfc.s:32167  .debug_str:000000000002969a .LASF1162
C:\Users\CYMR90~1\AppData\Local\Temp\ccLNaGfc.s:29171  .debug_str:000000000001dbc4 .LASF1163
C:\Users\CYMR90~1\AppData\Local\Temp\ccLNaGfc.s:28281  .debug_str:000000000001a02b .LASF1164
C:\Users\CYMR90~1\AppData\Local\Temp\ccLNaGfc.s:25160  .debug_str:000000000000d921 .LASF1165
C:\Users\CYMR90~1\AppData\Local\Temp\ccLNaGfc.s:29853  .debug_str:000000000002057f .LASF1166
C:\Users\CYMR90~1\AppData\Local\Temp\ccLNaGfc.s:26060  .debug_str:000000000001109c .LASF1167
C:\Users\CYMR90~1\AppData\Local\Temp\ccLNaGfc.s:24188  .debug_str:00000000000099a2 .LASF1168
C:\Users\CYMR90~1\AppData\Local\Temp\ccLNaGfc.s:27132  .debug_str:0000000000015557 .LASF1169
C:\Users\CYMR90~1\AppData\Local\Temp\ccLNaGfc.s:28497  .debug_str:000000000001af87 .LASF1170
C:\Users\CYMR90~1\AppData\Local\Temp\ccLNaGfc.s:28195  .debug_str:0000000000019a69 .LASF1171
C:\Users\CYMR90~1\AppData\Local\Temp\ccLNaGfc.s:32425  .debug_str:000000000002a67e .LASF1172
C:\Users\CYMR90~1\AppData\Local\Temp\ccLNaGfc.s:27414  .debug_str:00000000000166cc .LASF1173
C:\Users\CYMR90~1\AppData\Local\Temp\ccLNaGfc.s:21978  .debug_str:0000000000000c01 .LASF1174
C:\Users\CYMR90~1\AppData\Local\Temp\ccLNaGfc.s:22382  .debug_str:0000000000002575 .LASF1175
C:\Users\CYMR90~1\AppData\Local\Temp\ccLNaGfc.s:26638  .debug_str:0000000000013659 .LASF1176
C:\Users\CYMR90~1\AppData\Local\Temp\ccLNaGfc.s:24974  .debug_str:000000000000ccf6 .LASF1177
C:\Users\CYMR90~1\AppData\Local\Temp\ccLNaGfc.s:29229  .debug_str:000000000001df38 .LASF1178
C:\Users\CYMR90~1\AppData\Local\Temp\ccLNaGfc.s:25580  .debug_str:000000000000f234 .LASF1179
C:\Users\CYMR90~1\AppData\Local\Temp\ccLNaGfc.s:25148  .debug_str:000000000000d88f .LASF1180
C:\Users\CYMR90~1\AppData\Local\Temp\ccLNaGfc.s:30959  .debug_str:0000000000024859 .LASF1181
C:\Users\CYMR90~1\AppData\Local\Temp\ccLNaGfc.s:24000  .debug_str:0000000000008dfc .LASF1182
C:\Users\CYMR90~1\AppData\Local\Temp\ccLNaGfc.s:22544  .debug_str:000000000000302c .LASF1183
C:\Users\CYMR90~1\AppData\Local\Temp\ccLNaGfc.s:29567  .debug_str:000000000001f3db .LASF1184
C:\Users\CYMR90~1\AppData\Local\Temp\ccLNaGfc.s:30025  .debug_str:0000000000020fc4 .LASF1185
C:\Users\CYMR90~1\AppData\Local\Temp\ccLNaGfc.s:31197  .debug_str:00000000000258b1 .LASF1186
C:\Users\CYMR90~1\AppData\Local\Temp\ccLNaGfc.s:22278  .debug_str:0000000000001f8b .LASF1187
C:\Users\CYMR90~1\AppData\Local\Temp\ccLNaGfc.s:23214  .debug_str:0000000000005b9d .LASF1188
C:\Users\CYMR90~1\AppData\Local\Temp\ccLNaGfc.s:30577  .debug_str:0000000000023161 .LASF1189
C:\Users\CYMR90~1\AppData\Local\Temp\ccLNaGfc.s:23744  .debug_str:0000000000007c81 .LASF1190
C:\Users\CYMR90~1\AppData\Local\Temp\ccLNaGfc.s:30557  .debug_str:0000000000022fcd .LASF1191
C:\Users\CYMR90~1\AppData\Local\Temp\ccLNaGfc.s:24950  .debug_str:000000000000cb67 .LASF1192
C:\Users\CYMR90~1\AppData\Local\Temp\ccLNaGfc.s:30217  .debug_str:0000000000021bad .LASF1193
C:\Users\CYMR90~1\AppData\Local\Temp\ccLNaGfc.s:25190  .debug_str:000000000000dab1 .LASF1194
C:\Users\CYMR90~1\AppData\Local\Temp\ccLNaGfc.s:28759  .debug_str:000000000001c010 .LASF1195
C:\Users\CYMR90~1\AppData\Local\Temp\ccLNaGfc.s:26780  .debug_str:0000000000013f09 .LASF1196
C:\Users\CYMR90~1\AppData\Local\Temp\ccLNaGfc.s:30251  .debug_str:0000000000021dc8 .LASF1197
C:\Users\CYMR90~1\AppData\Local\Temp\ccLNaGfc.s:32423  .debug_str:000000000002a66f .LASF1198
C:\Users\CYMR90~1\AppData\Local\Temp\ccLNaGfc.s:27436  .debug_str:000000000001689c .LASF1199
C:\Users\CYMR90~1\AppData\Local\Temp\ccLNaGfc.s:32429  .debug_str:000000000002a6a5 .LASF1200
C:\Users\CYMR90~1\AppData\Local\Temp\ccLNaGfc.s:24442  .debug_str:000000000000a972 .LASF1201
C:\Users\CYMR90~1\AppData\Local\Temp\ccLNaGfc.s:24098  .debug_str:0000000000009434 .LASF1202
C:\Users\CYMR90~1\AppData\Local\Temp\ccLNaGfc.s:27633  .debug_str:00000000000176fa .LASF1203
C:\Users\CYMR90~1\AppData\Local\Temp\ccLNaGfc.s:31529  .debug_str:0000000000026db1 .LASF1204
C:\Users\CYMR90~1\AppData\Local\Temp\ccLNaGfc.s:26694  .debug_str:00000000000139db .LASF1205
C:\Users\CYMR90~1\AppData\Local\Temp\ccLNaGfc.s:25752  .debug_str:000000000000fd2c .LASF1206
C:\Users\CYMR90~1\AppData\Local\Temp\ccLNaGfc.s:32395  .debug_str:000000000002a4e4 .LASF1207
C:\Users\CYMR90~1\AppData\Local\Temp\ccLNaGfc.s:31049  .debug_str:0000000000024e81 .LASF1208
C:\Users\CYMR90~1\AppData\Local\Temp\ccLNaGfc.s:25678  .debug_str:000000000000f838 .LASF1209
C:\Users\CYMR90~1\AppData\Local\Temp\ccLNaGfc.s:23098  .debug_str:0000000000005465 .LASF1210
C:\Users\CYMR90~1\AppData\Local\Temp\ccLNaGfc.s:23206  .debug_str:0000000000005b23 .LASF1211
C:\Users\CYMR90~1\AppData\Local\Temp\ccLNaGfc.s:23890  .debug_str:00000000000086b4 .LASF1212
C:\Users\CYMR90~1\AppData\Local\Temp\ccLNaGfc.s:23492  .debug_str:0000000000006c38 .LASF1213
C:\Users\CYMR90~1\AppData\Local\Temp\ccLNaGfc.s:22392  .debug_str:0000000000002631 .LASF1214
C:\Users\CYMR90~1\AppData\Local\Temp\ccLNaGfc.s:24234  .debug_str:0000000000009cdc .LASF1215
C:\Users\CYMR90~1\AppData\Local\Temp\ccLNaGfc.s:22336  .debug_str:00000000000022d0 .LASF1216
C:\Users\CYMR90~1\AppData\Local\Temp\ccLNaGfc.s:30669  .debug_str:000000000002363e .LASF1217
C:\Users\CYMR90~1\AppData\Local\Temp\ccLNaGfc.s:30683  .debug_str:00000000000236f2 .LASF1218
C:\Users\CYMR90~1\AppData\Local\Temp\ccLNaGfc.s:31101  .debug_str:00000000000251f6 .LASF1219
C:\Users\CYMR90~1\AppData\Local\Temp\ccLNaGfc.s:28651  .debug_str:000000000001b9a7 .LASF1220
C:\Users\CYMR90~1\AppData\Local\Temp\ccLNaGfc.s:25238  .debug_str:000000000000dd7a .LASF1221
C:\Users\CYMR90~1\AppData\Local\Temp\ccLNaGfc.s:26954  .debug_str:00000000000149cb .LASF1222
C:\Users\CYMR90~1\AppData\Local\Temp\ccLNaGfc.s:22564  .debug_str:000000000000316b .LASF1223
C:\Users\CYMR90~1\AppData\Local\Temp\ccLNaGfc.s:28377  .debug_str:000000000001a795 .LASF1224
C:\Users\CYMR90~1\AppData\Local\Temp\ccLNaGfc.s:31711  .debug_str:000000000002796e .LASF1225
C:\Users\CYMR90~1\AppData\Local\Temp\ccLNaGfc.s:24720  .debug_str:000000000000bc1a .LASF1226
C:\Users\CYMR90~1\AppData\Local\Temp\ccLNaGfc.s:23626  .debug_str:0000000000007521 .LASF1227
C:\Users\CYMR90~1\AppData\Local\Temp\ccLNaGfc.s:22664  .debug_str:00000000000037e4 .LASF1228
C:\Users\CYMR90~1\AppData\Local\Temp\ccLNaGfc.s:33111  .debug_str:000000000002d2dd .LASF1229
C:\Users\CYMR90~1\AppData\Local\Temp\ccLNaGfc.s:32147  .debug_str:000000000002956f .LASF1230
C:\Users\CYMR90~1\AppData\Local\Temp\ccLNaGfc.s:31163  .debug_str:00000000000255f0 .LASF1231
C:\Users\CYMR90~1\AppData\Local\Temp\ccLNaGfc.s:30201  .debug_str:0000000000021aa4 .LASF1232
C:\Users\CYMR90~1\AppData\Local\Temp\ccLNaGfc.s:30085  .debug_str:0000000000021351 .LASF1233
C:\Users\CYMR90~1\AppData\Local\Temp\ccLNaGfc.s:29107  .debug_str:000000000001d773 .LASF1234
C:\Users\CYMR90~1\AppData\Local\Temp\ccLNaGfc.s:28155  .debug_str:00000000000197e3 .LASF1235
C:\Users\CYMR90~1\AppData\Local\Temp\ccLNaGfc.s:26846  .debug_str:000000000001430e .LASF1236
C:\Users\CYMR90~1\AppData\Local\Temp\ccLNaGfc.s:26222  .debug_str:0000000000011acf .LASF1237
C:\Users\CYMR90~1\AppData\Local\Temp\ccLNaGfc.s:27531  .debug_str:00000000000170fd .LASF1238
C:\Users\CYMR90~1\AppData\Local\Temp\ccLNaGfc.s:24308  .debug_str:000000000000a123 .LASF1239
C:\Users\CYMR90~1\AppData\Local\Temp\ccLNaGfc.s:23314  .debug_str:000000000000616d .LASF1240
C:\Users\CYMR90~1\AppData\Local\Temp\ccLNaGfc.s:22352  .debug_str:00000000000023bc .LASF1241
C:\Users\CYMR90~1\AppData\Local\Temp\ccLNaGfc.s:32817  .debug_str:000000000002bf6e .LASF1242
C:\Users\CYMR90~1\AppData\Local\Temp\ccLNaGfc.s:21872  .debug_str:0000000000000524 .LASF1243
C:\Users\CYMR90~1\AppData\Local\Temp\ccLNaGfc.s:32293  .debug_str:0000000000029f13 .LASF1244
C:\Users\CYMR90~1\AppData\Local\Temp\ccLNaGfc.s:31317  .debug_str:00000000000260b5 .LASF1245
C:\Users\CYMR90~1\AppData\Local\Temp\ccLNaGfc.s:30361  .debug_str:000000000002246c .LASF1246
C:\Users\CYMR90~1\AppData\Local\Temp\ccLNaGfc.s:29361  .debug_str:000000000001e786 .LASF1247
C:\Users\CYMR90~1\AppData\Local\Temp\ccLNaGfc.s:28439  .debug_str:000000000001abb1 .LASF1248
C:\Users\CYMR90~1\AppData\Local\Temp\ccLNaGfc.s:27486  .debug_str:0000000000016bd9 .LASF1249
C:\Users\CYMR90~1\AppData\Local\Temp\ccLNaGfc.s:32225  .debug_str:0000000000029af5 .LASF1250
C:\Users\CYMR90~1\AppData\Local\Temp\ccLNaGfc.s:25586  .debug_str:000000000000f279 .LASF1251
C:\Users\CYMR90~1\AppData\Local\Temp\ccLNaGfc.s:27753  .debug_str:0000000000017ea0 .LASF1252
C:\Users\CYMR90~1\AppData\Local\Temp\ccLNaGfc.s:25090  .debug_str:000000000000d420 .LASF1253
C:\Users\CYMR90~1\AppData\Local\Temp\ccLNaGfc.s:24112  .debug_str:00000000000094f9 .LASF1254
C:\Users\CYMR90~1\AppData\Local\Temp\ccLNaGfc.s:22118  .debug_str:00000000000014a7 .LASF1255
C:\Users\CYMR90~1\AppData\Local\Temp\ccLNaGfc.s:25008  .debug_str:000000000000cf01 .LASF1256
C:\Users\CYMR90~1\AppData\Local\Temp\ccLNaGfc.s:23268  .debug_str:0000000000005eee .LASF1257
C:\Users\CYMR90~1\AppData\Local\Temp\ccLNaGfc.s:28025  .debug_str:0000000000018f56 .LASF1258
C:\Users\CYMR90~1\AppData\Local\Temp\ccLNaGfc.s:28027  .debug_str:0000000000018f69 .LASF1259
C:\Users\CYMR90~1\AppData\Local\Temp\ccLNaGfc.s:30561  .debug_str:0000000000022ffd .LASF1260
C:\Users\CYMR90~1\AppData\Local\Temp\ccLNaGfc.s:28645  .debug_str:000000000001b960 .LASF1261
C:\Users\CYMR90~1\AppData\Local\Temp\ccLNaGfc.s:26030  .debug_str:0000000000010f34 .LASF1262
C:\Users\CYMR90~1\AppData\Local\Temp\ccLNaGfc.s:23160  .debug_str:0000000000005856 .LASF1263
C:\Users\CYMR90~1\AppData\Local\Temp\ccLNaGfc.s:25322  .debug_str:000000000000e26c .LASF1264
C:\Users\CYMR90~1\AppData\Local\Temp\ccLNaGfc.s:27508  .debug_str:0000000000016ddf .LASF1265
C:\Users\CYMR90~1\AppData\Local\Temp\ccLNaGfc.s:29333  .debug_str:000000000001e5ec .LASF1266
C:\Users\CYMR90~1\AppData\Local\Temp\ccLNaGfc.s:30589  .debug_str:0000000000023204 .LASF1267
C:\Users\CYMR90~1\AppData\Local\Temp\ccLNaGfc.s:30757  .debug_str:0000000000023b99 .LASF1268
C:\Users\CYMR90~1\AppData\Local\Temp\ccLNaGfc.s:26162  .debug_str:000000000001163f .LASF1269
C:\Users\CYMR90~1\AppData\Local\Temp\ccLNaGfc.s:32869  .debug_str:000000000002c287 .LASF1270
C:\Users\CYMR90~1\AppData\Local\Temp\ccLNaGfc.s:27755  .debug_str:0000000000017eb7 .LASF1271
C:\Users\CYMR90~1\AppData\Local\Temp\ccLNaGfc.s:32255  .debug_str:0000000000029ce1 .LASF1272
C:\Users\CYMR90~1\AppData\Local\Temp\ccLNaGfc.s:29231  .debug_str:000000000001df45 .LASF1273
C:\Users\CYMR90~1\AppData\Local\Temp\ccLNaGfc.s:21932  .debug_str:00000000000008bc .LASF1274
C:\Users\CYMR90~1\AppData\Local\Temp\ccLNaGfc.s:28035  .debug_str:0000000000018fce .LASF1275
C:\Users\CYMR90~1\AppData\Local\Temp\ccLNaGfc.s:22044  .debug_str:000000000000105f .LASF1276
C:\Users\CYMR90~1\AppData\Local\Temp\ccLNaGfc.s:24330  .debug_str:000000000000a28f .LASF1277
C:\Users\CYMR90~1\AppData\Local\Temp\ccLNaGfc.s:23334  .debug_str:0000000000006299 .LASF1278
C:\Users\CYMR90~1\AppData\Local\Temp\ccLNaGfc.s:22380  .debug_str:0000000000002563 .LASF1279
C:\Users\CYMR90~1\AppData\Local\Temp\ccLNaGfc.s:32837  .debug_str:000000000002c086 .LASF1280
C:\Users\CYMR90~1\AppData\Local\Temp\ccLNaGfc.s:23224  .debug_str:0000000000005c3f .LASF1281
C:\Users\CYMR90~1\AppData\Local\Temp\ccLNaGfc.s:22266  .debug_str:0000000000001ed0 .LASF1282
C:\Users\CYMR90~1\AppData\Local\Temp\ccLNaGfc.s:29401  .debug_str:000000000001e9fb .LASF1283
C:\Users\CYMR90~1\AppData\Local\Temp\ccLNaGfc.s:31743  .debug_str:0000000000027b20 .LASF1284
C:\Users\CYMR90~1\AppData\Local\Temp\ccLNaGfc.s:30781  .debug_str:0000000000023d4f .LASF1285
C:\Users\CYMR90~1\AppData\Local\Temp\ccLNaGfc.s:29803  .debug_str:000000000002026c .LASF1286
C:\Users\CYMR90~1\AppData\Local\Temp\ccLNaGfc.s:28823  .debug_str:000000000001c448 .LASF1287
C:\Users\CYMR90~1\AppData\Local\Temp\ccLNaGfc.s:27863  .debug_str:0000000000018528 .LASF1288
C:\Users\CYMR90~1\AppData\Local\Temp\ccLNaGfc.s:26890  .debug_str:00000000000145aa .LASF1289
C:\Users\CYMR90~1\AppData\Local\Temp\ccLNaGfc.s:25956  .debug_str:00000000000109f8 .LASF1290
C:\Users\CYMR90~1\AppData\Local\Temp\ccLNaGfc.s:30307  .debug_str:0000000000022134 .LASF1291
C:\Users\CYMR90~1\AppData\Local\Temp\ccLNaGfc.s:29311  .debug_str:000000000001e49a .LASF1292
C:\Users\CYMR90~1\AppData\Local\Temp\ccLNaGfc.s:28375  .debug_str:000000000001a781 .LASF1293
C:\Users\CYMR90~1\AppData\Local\Temp\ccLNaGfc.s:27368  .debug_str:0000000000016422 .LASF1294
C:\Users\CYMR90~1\AppData\Local\Temp\ccLNaGfc.s:26450  .debug_str:00000000000129bb .LASF1295
C:\Users\CYMR90~1\AppData\Local\Temp\ccLNaGfc.s:25478  .debug_str:000000000000ec1a .LASF1296
C:\Users\CYMR90~1\AppData\Local\Temp\ccLNaGfc.s:24852  .debug_str:000000000000c4f5 .LASF1297
C:\Users\CYMR90~1\AppData\Local\Temp\ccLNaGfc.s:29767  .debug_str:0000000000020045 .LASF1298
C:\Users\CYMR90~1\AppData\Local\Temp\ccLNaGfc.s:28797  .debug_str:000000000001c2b4 .LASF1299
C:\Users\CYMR90~1\AppData\Local\Temp\ccLNaGfc.s:27831  .debug_str:0000000000018324 .LASF1300
C:\Users\CYMR90~1\AppData\Local\Temp\ccLNaGfc.s:28769  .debug_str:000000000001c0bd .LASF1301
C:\Users\CYMR90~1\AppData\Local\Temp\ccLNaGfc.s:27611  .debug_str:00000000000175cc .LASF1302
C:\Users\CYMR90~1\AppData\Local\Temp\ccLNaGfc.s:27412  .debug_str:00000000000166b9 .LASF1303
C:\Users\CYMR90~1\AppData\Local\Temp\ccLNaGfc.s:28291  .debug_str:000000000001a0cf .LASF1304
C:\Users\CYMR90~1\AppData\Local\Temp\ccLNaGfc.s:28263  .debug_str:0000000000019f2c .LASF1305
C:\Users\CYMR90~1\AppData\Local\Temp\ccLNaGfc.s:24004  .debug_str:0000000000008e30 .LASF1306
C:\Users\CYMR90~1\AppData\Local\Temp\ccLNaGfc.s:23004  .debug_str:0000000000004ec7 .LASF1307
C:\Users\CYMR90~1\AppData\Local\Temp\ccLNaGfc.s:22056  .debug_str:00000000000010f0 .LASF1308
C:\Users\CYMR90~1\AppData\Local\Temp\ccLNaGfc.s:32497  .debug_str:000000000002ab19 .LASF1309
C:\Users\CYMR90~1\AppData\Local\Temp\ccLNaGfc.s:31525  .debug_str:0000000000026d76 .LASF1310
C:\Users\CYMR90~1\AppData\Local\Temp\ccLNaGfc.s:30565  .debug_str:000000000002302b .LASF1311
C:\Users\CYMR90~1\AppData\Local\Temp\ccLNaGfc.s:29557  .debug_str:000000000001f366 .LASF1312
C:\Users\CYMR90~1\AppData\Local\Temp\ccLNaGfc.s:25334  .debug_str:000000000000e325 .LASF1313
C:\Users\CYMR90~1\AppData\Local\Temp\ccLNaGfc.s:26606  .debug_str:00000000000133d6 .LASF1314
C:\Users\CYMR90~1\AppData\Local\Temp\ccLNaGfc.s:32713  .debug_str:000000000002b85b .LASF1315
C:\Users\CYMR90~1\AppData\Local\Temp\ccLNaGfc.s:31239  .debug_str:0000000000025b55 .LASF1316
C:\Users\CYMR90~1\AppData\Local\Temp\ccLNaGfc.s:30773  .debug_str:0000000000023cb3 .LASF1317
C:\Users\CYMR90~1\AppData\Local\Temp\ccLNaGfc.s:29795  .debug_str:00000000000201ff .LASF1318
C:\Users\CYMR90~1\AppData\Local\Temp\ccLNaGfc.s:28833  .debug_str:000000000001c4e6 .LASF1319
C:\Users\CYMR90~1\AppData\Local\Temp\ccLNaGfc.s:27873  .debug_str:00000000000185d6 .LASF1320
C:\Users\CYMR90~1\AppData\Local\Temp\ccLNaGfc.s:26900  .debug_str:0000000000014620 .LASF1321
C:\Users\CYMR90~1\AppData\Local\Temp\ccLNaGfc.s:25964  .debug_str:0000000000010a7f .LASF1322
C:\Users\CYMR90~1\AppData\Local\Temp\ccLNaGfc.s:26422  .debug_str:00000000000127dc .LASF1323
C:\Users\CYMR90~1\AppData\Local\Temp\ccLNaGfc.s:24856  .debug_str:000000000000c51a .LASF1324
C:\Users\CYMR90~1\AppData\Local\Temp\ccLNaGfc.s:24494  .debug_str:000000000000acc9 .LASF1325
C:\Users\CYMR90~1\AppData\Local\Temp\ccLNaGfc.s:23500  .debug_str:0000000000006cd4 .LASF1326
C:\Users\CYMR90~1\AppData\Local\Temp\ccLNaGfc.s:22524  .debug_str:0000000000002efc .LASF1327
C:\Users\CYMR90~1\AppData\Local\Temp\ccLNaGfc.s:32993  .debug_str:000000000002cadf .LASF1328
C:\Users\CYMR90~1\AppData\Local\Temp\ccLNaGfc.s:32063  .debug_str:0000000000029076 .LASF1329
C:\Users\CYMR90~1\AppData\Local\Temp\ccLNaGfc.s:31083  .debug_str:00000000000250bc .LASF1330
C:\Users\CYMR90~1\AppData\Local\Temp\ccLNaGfc.s:30127  .debug_str:00000000000215af .LASF1331
C:\Users\CYMR90~1\AppData\Local\Temp\ccLNaGfc.s:29141  .debug_str:000000000001d9ba .LASF1332
C:\Users\CYMR90~1\AppData\Local\Temp\ccLNaGfc.s:29589  .debug_str:000000000001f554 .LASF1333
C:\Users\CYMR90~1\AppData\Local\Temp\ccLNaGfc.s:28659  .debug_str:000000000001ba2a .LASF1334
C:\Users\CYMR90~1\AppData\Local\Temp\ccLNaGfc.s:27332  .debug_str:00000000000161d3 .LASF1335
C:\Users\CYMR90~1\AppData\Local\Temp\ccLNaGfc.s:25004  .debug_str:000000000000ced6 .LASF1336
C:\Users\CYMR90~1\AppData\Local\Temp\ccLNaGfc.s:29811  .debug_str:00000000000202cb .LASF1337
C:\Users\CYMR90~1\AppData\Local\Temp\ccLNaGfc.s:26302  .debug_str:0000000000012021 .LASF1338
C:\Users\CYMR90~1\AppData\Local\Temp\ccLNaGfc.s:22162  .debug_str:00000000000017c2 .LASF1339
C:\Users\CYMR90~1\AppData\Local\Temp\ccLNaGfc.s:24280  .debug_str:0000000000009f9a .LASF1340
C:\Users\CYMR90~1\AppData\Local\Temp\ccLNaGfc.s:23284  .debug_str:0000000000005fbc .LASF1341
C:\Users\CYMR90~1\AppData\Local\Temp\ccLNaGfc.s:22322  .debug_str:00000000000021ec .LASF1342
C:\Users\CYMR90~1\AppData\Local\Temp\ccLNaGfc.s:32793  .debug_str:000000000002bda1 .LASF1343
C:\Users\CYMR90~1\AppData\Local\Temp\ccLNaGfc.s:32585  .debug_str:000000000002b031 .LASF1344
C:\Users\CYMR90~1\AppData\Local\Temp\ccLNaGfc.s:31609  .debug_str:000000000002727a .LASF1345
C:\Users\CYMR90~1\AppData\Local\Temp\ccLNaGfc.s:30649  .debug_str:0000000000023547 .LASF1346
C:\Users\CYMR90~1\AppData\Local\Temp\ccLNaGfc.s:29647  .debug_str:000000000001f8df .LASF1347
C:\Users\CYMR90~1\AppData\Local\Temp\ccLNaGfc.s:28703  .debug_str:000000000001bcbb .LASF1348
C:\Users\CYMR90~1\AppData\Local\Temp\ccLNaGfc.s:29223  .debug_str:000000000001dee3 .LASF1349
C:\Users\CYMR90~1\AppData\Local\Temp\ccLNaGfc.s:26772  .debug_str:0000000000013e9b .LASF1350
C:\Users\CYMR90~1\AppData\Local\Temp\ccLNaGfc.s:29955  .debug_str:0000000000020b9a .LASF1351
C:\Users\CYMR90~1\AppData\Local\Temp\ccLNaGfc.s:24868  .debug_str:000000000000c5e6 .LASF1352
C:\Users\CYMR90~1\AppData\Local\Temp\ccLNaGfc.s:23786  .debug_str:0000000000007f6a .LASF1353
C:\Users\CYMR90~1\AppData\Local\Temp\ccLNaGfc.s:24362  .debug_str:000000000000a498 .LASF1354
C:\Users\CYMR90~1\AppData\Local\Temp\ccLNaGfc.s:23362  .debug_str:000000000000645f .LASF1355
C:\Users\CYMR90~1\AppData\Local\Temp\ccLNaGfc.s:22404  .debug_str:00000000000026d1 .LASF1356
C:\Users\CYMR90~1\AppData\Local\Temp\ccLNaGfc.s:32865  .debug_str:000000000002c267 .LASF1357
C:\Users\CYMR90~1\AppData\Local\Temp\ccLNaGfc.s:26858  .debug_str:00000000000143d6 .LASF1358
C:\Users\CYMR90~1\AppData\Local\Temp\ccLNaGfc.s:23494  .debug_str:0000000000006c7c .LASF1359
C:\Users\CYMR90~1\AppData\Local\Temp\ccLNaGfc.s:30005  .debug_str:0000000000020e86 .LASF1360
C:\Users\CYMR90~1\AppData\Local\Temp\ccLNaGfc.s:28931  .debug_str:000000000001caae .LASF1361
C:\Users\CYMR90~1\AppData\Local\Temp\ccLNaGfc.s:27967  .debug_str:0000000000018b83 .LASF1362
C:\Users\CYMR90~1\AppData\Local\Temp\ccLNaGfc.s:32027  .debug_str:0000000000028e7d .LASF1363
C:\Users\CYMR90~1\AppData\Local\Temp\ccLNaGfc.s:27256  .debug_str:0000000000015c57 .LASF1364
C:\Users\CYMR90~1\AppData\Local\Temp\ccLNaGfc.s:23908  .debug_str:00000000000087b8 .LASF1365
C:\Users\CYMR90~1\AppData\Local\Temp\ccLNaGfc.s:31635  .debug_str:000000000002740d .LASF1366
C:\Users\CYMR90~1\AppData\Local\Temp\ccLNaGfc.s:30879  .debug_str:00000000000242ec .LASF1367
C:\Users\CYMR90~1\AppData\Local\Temp\ccLNaGfc.s:29893  .debug_str:0000000000020797 .LASF1368
C:\Users\CYMR90~1\AppData\Local\Temp\ccLNaGfc.s:28129  .debug_str:0000000000019622 .LASF1369
C:\Users\CYMR90~1\AppData\Local\Temp\ccLNaGfc.s:26008  .debug_str:0000000000010d37 .LASF1370
C:\Users\CYMR90~1\AppData\Local\Temp\ccLNaGfc.s:29151  .debug_str:000000000001da45 .LASF1371
C:\Users\CYMR90~1\AppData\Local\Temp\ccLNaGfc.s:22448  .debug_str:0000000000002a03 .LASF1372
C:\Users\CYMR90~1\AppData\Local\Temp\ccLNaGfc.s:25046  .debug_str:000000000000d149 .LASF1373
C:\Users\CYMR90~1\AppData\Local\Temp\ccLNaGfc.s:28175  .debug_str:00000000000198e6 .LASF1374
C:\Users\CYMR90~1\AppData\Local\Temp\ccLNaGfc.s:31307  .debug_str:0000000000026022 .LASF1375
C:\Users\CYMR90~1\AppData\Local\Temp\ccLNaGfc.s:23032  .debug_str:000000000000506f .LASF1376
C:\Users\CYMR90~1\AppData\Local\Temp\ccLNaGfc.s:26210  .debug_str:0000000000011963 .LASF1377
C:\Users\CYMR90~1\AppData\Local\Temp\ccLNaGfc.s:29317  .debug_str:000000000001e4fc .LASF1378
C:\Users\CYMR90~1\AppData\Local\Temp\ccLNaGfc.s:32493  .debug_str:000000000002aadc .LASF1379
C:\Users\CYMR90~1\AppData\Local\Temp\ccLNaGfc.s:32461  .debug_str:000000000002a8bb .LASF1380
C:\Users\CYMR90~1\AppData\Local\Temp\ccLNaGfc.s:24124  .debug_str:00000000000095a9 .LASF1381
C:\Users\CYMR90~1\AppData\Local\Temp\ccLNaGfc.s:27228  .debug_str:0000000000015abb .LASF1382
C:\Users\CYMR90~1\AppData\Local\Temp\ccLNaGfc.s:30409  .debug_str:0000000000022724 .LASF1383
C:\Users\CYMR90~1\AppData\Local\Temp\ccLNaGfc.s:22134  .debug_str:0000000000001562 .LASF1384
C:\Users\CYMR90~1\AppData\Local\Temp\ccLNaGfc.s:26678  .debug_str:00000000000138d0 .LASF1385
C:\Users\CYMR90~1\AppData\Local\Temp\ccLNaGfc.s:28473  .debug_str:000000000001addb .LASF1386
C:\Users\CYMR90~1\AppData\Local\Temp\ccLNaGfc.s:31599  .debug_str:00000000000271be .LASF1387
C:\Users\CYMR90~1\AppData\Local\Temp\ccLNaGfc.s:23320  .debug_str:00000000000061d0 .LASF1388
C:\Users\CYMR90~1\AppData\Local\Temp\ccLNaGfc.s:26406  .debug_str:00000000000126db .LASF1389
C:\Users\CYMR90~1\AppData\Local\Temp\ccLNaGfc.s:25756  .debug_str:000000000000fd4c .LASF1390
C:\Users\CYMR90~1\AppData\Local\Temp\ccLNaGfc.s:28779  .debug_str:000000000001c178 .LASF1391
C:\Users\CYMR90~1\AppData\Local\Temp\ccLNaGfc.s:31929  .debug_str:0000000000028827 .LASF1392
C:\Users\CYMR90~1\AppData\Local\Temp\ccLNaGfc.s:23664  .debug_str:000000000000774c .LASF1393
C:\Users\CYMR90~1\AppData\Local\Temp\ccLNaGfc.s:26798  .debug_str:0000000000014010 .LASF1394
C:\Users\CYMR90~1\AppData\Local\Temp\ccLNaGfc.s:26952  .debug_str:00000000000149b3 .LASF1395
C:\Users\CYMR90~1\AppData\Local\Temp\ccLNaGfc.s:33169  .debug_str:000000000002d657 .LASF1396
C:\Users\CYMR90~1\AppData\Local\Temp\ccLNaGfc.s:24924  .debug_str:000000000000c934 .LASF1397
C:\Users\CYMR90~1\AppData\Local\Temp\ccLNaGfc.s:29535  .debug_str:000000000001f220 .LASF1398
C:\Users\CYMR90~1\AppData\Local\Temp\ccLNaGfc.s:26112  .debug_str:000000000001136b .LASF1399
C:\Users\CYMR90~1\AppData\Local\Temp\ccLNaGfc.s:27394  .debug_str:00000000000165a6 .LASF1400
C:\Users\CYMR90~1\AppData\Local\Temp\ccLNaGfc.s:22090  .debug_str:00000000000012f3 .LASF1401
C:\Users\CYMR90~1\AppData\Local\Temp\ccLNaGfc.s:29875  .debug_str:00000000000206ba .LASF1402
C:\Users\CYMR90~1\AppData\Local\Temp\ccLNaGfc.s:24756  .debug_str:000000000000be85 .LASF1403
C:\Users\CYMR90~1\AppData\Local\Temp\ccLNaGfc.s:29639  .debug_str:000000000001f871 .LASF1404
C:\Users\CYMR90~1\AppData\Local\Temp\ccLNaGfc.s:22818  .debug_str:00000000000041ef .LASF1405
C:\Users\CYMR90~1\AppData\Local\Temp\ccLNaGfc.s:32419  .debug_str:000000000002a61f .LASF1406
C:\Users\CYMR90~1\AppData\Local\Temp\ccLNaGfc.s:30609  .debug_str:000000000002330d .LASF1407
C:\Users\CYMR90~1\AppData\Local\Temp\ccLNaGfc.s:30761  .debug_str:0000000000023bcb .LASF1408
C:\Users\CYMR90~1\AppData\Local\Temp\ccLNaGfc.s:22478  .debug_str:0000000000002bef .LASF1409
C:\Users\CYMR90~1\AppData\Local\Temp\ccLNaGfc.s:25660  .debug_str:000000000000f724 .LASF1410
C:\Users\CYMR90~1\AppData\Local\Temp\ccLNaGfc.s:32165  .debug_str:0000000000029681 .LASF1411
C:\Users\CYMR90~1\AppData\Local\Temp\ccLNaGfc.s:23896  .debug_str:0000000000008709 .LASF1412
C:\Users\CYMR90~1\AppData\Local\Temp\ccLNaGfc.s:27022  .debug_str:0000000000014dfa .LASF1413
C:\Users\CYMR90~1\AppData\Local\Temp\ccLNaGfc.s:30185  .debug_str:000000000002199f .LASF1414
C:\Users\CYMR90~1\AppData\Local\Temp\ccLNaGfc.s:21934  .debug_str:00000000000008cf .LASF1415
C:\Users\CYMR90~1\AppData\Local\Temp\ccLNaGfc.s:25014  .debug_str:000000000000cf41 .LASF1416
C:\Users\CYMR90~1\AppData\Local\Temp\ccLNaGfc.s:31547  .debug_str:0000000000026ed1 .LASF1417
C:\Users\CYMR90~1\AppData\Local\Temp\ccLNaGfc.s:29703  .debug_str:000000000001fc7d .LASF1418
C:\Users\CYMR90~1\AppData\Local\Temp\ccLNaGfc.s:23012  .debug_str:0000000000004f31 .LASF1419
C:\Users\CYMR90~1\AppData\Local\Temp\ccLNaGfc.s:26098  .debug_str:0000000000011292 .LASF1420
C:\Users\CYMR90~1\AppData\Local\Temp\ccLNaGfc.s:25432  .debug_str:000000000000e92f .LASF1421
C:\Users\CYMR90~1\AppData\Local\Temp\ccLNaGfc.s:28589  .debug_str:000000000001b5b1 .LASF1422
C:\Users\CYMR90~1\AppData\Local\Temp\ccLNaGfc.s:31709  .debug_str:0000000000027955 .LASF1423
C:\Users\CYMR90~1\AppData\Local\Temp\ccLNaGfc.s:22548  .debug_str:0000000000003065 .LASF1424
C:\Users\CYMR90~1\AppData\Local\Temp\ccLNaGfc.s:26610  .debug_str:0000000000013404 .LASF1425
C:\Users\CYMR90~1\AppData\Local\Temp\ccLNaGfc.s:29631  .debug_str:000000000001f7d8 .LASF1426
C:\Users\CYMR90~1\AppData\Local\Temp\ccLNaGfc.s:32875  .debug_str:000000000002c35a .LASF1427
C:\Users\CYMR90~1\AppData\Local\Temp\ccLNaGfc.s:24624  .debug_str:000000000000b553 .LASF1428
C:\Users\CYMR90~1\AppData\Local\Temp\ccLNaGfc.s:27731  .debug_str:0000000000017d57 .LASF1429
C:\Users\CYMR90~1\AppData\Local\Temp\ccLNaGfc.s:30887  .debug_str:0000000000024355 .LASF1430
C:\Users\CYMR90~1\AppData\Local\Temp\ccLNaGfc.s:30143  .debug_str:0000000000021696 .LASF1431
C:\Users\CYMR90~1\AppData\Local\Temp\ccLNaGfc.s:21896  .debug_str:0000000000000698 .LASF1432
C:\Users\CYMR90~1\AppData\Local\Temp\ccLNaGfc.s:26142  .debug_str:0000000000011525 .LASF1433
C:\Users\CYMR90~1\AppData\Local\Temp\ccLNaGfc.s:29879  .debug_str:00000000000206e4 .LASF1434
C:\Users\CYMR90~1\AppData\Local\Temp\ccLNaGfc.s:28897  .debug_str:000000000001c8b8 .LASF1435
C:\Users\CYMR90~1\AppData\Local\Temp\ccLNaGfc.s:27935  .debug_str:0000000000018962 .LASF1436
C:\Users\CYMR90~1\AppData\Local\Temp\ccLNaGfc.s:32723  .debug_str:000000000002b8fa .LASF1437
C:\Users\CYMR90~1\AppData\Local\Temp\ccLNaGfc.s:31741  .debug_str:0000000000027b0c .LASF1438
C:\Users\CYMR90~1\AppData\Local\Temp\ccLNaGfc.s:30779  .debug_str:0000000000023d3b .LASF1439
C:\Users\CYMR90~1\AppData\Local\Temp\ccLNaGfc.s:29801  .debug_str:0000000000020258 .LASF1440
C:\Users\CYMR90~1\AppData\Local\Temp\ccLNaGfc.s:28821  .debug_str:000000000001c434 .LASF1441
C:\Users\CYMR90~1\AppData\Local\Temp\ccLNaGfc.s:27861  .debug_str:0000000000018514 .LASF1442
C:\Users\CYMR90~1\AppData\Local\Temp\ccLNaGfc.s:26888  .debug_str:0000000000014596 .LASF1443
C:\Users\CYMR90~1\AppData\Local\Temp\ccLNaGfc.s:25954  .debug_str:00000000000109e4 .LASF1444
C:\Users\CYMR90~1\AppData\Local\Temp\ccLNaGfc.s:32833  .debug_str:000000000002c04e .LASF1445
C:\Users\CYMR90~1\AppData\Local\Temp\ccLNaGfc.s:24012  .debug_str:0000000000008e94 .LASF1446
C:\Users\CYMR90~1\AppData\Local\Temp\ccLNaGfc.s:25570  .debug_str:000000000000f19c .LASF1447
C:\Users\CYMR90~1\AppData\Local\Temp\ccLNaGfc.s:31117  .debug_str:00000000000252f2 .LASF1448
C:\Users\CYMR90~1\AppData\Local\Temp\ccLNaGfc.s:30161  .debug_str:0000000000021792 .LASF1449
C:\Users\CYMR90~1\AppData\Local\Temp\ccLNaGfc.s:29163  .debug_str:000000000001db5b .LASF1450
C:\Users\CYMR90~1\AppData\Local\Temp\ccLNaGfc.s:28217  .debug_str:0000000000019c71 .LASF1451
C:\Users\CYMR90~1\AppData\Local\Temp\ccLNaGfc.s:27226  .debug_str:0000000000015aa6 .LASF1452
C:\Users\CYMR90~1\AppData\Local\Temp\ccLNaGfc.s:24622  .debug_str:000000000000b540 .LASF1453
C:\Users\CYMR90~1\AppData\Local\Temp\ccLNaGfc.s:23230  .debug_str:0000000000005c7f .LASF1454
C:\Users\CYMR90~1\AppData\Local\Temp\ccLNaGfc.s:24424  .debug_str:000000000000a88f .LASF1455
C:\Users\CYMR90~1\AppData\Local\Temp\ccLNaGfc.s:29539  .debug_str:000000000001f262 .LASF1456
C:\Users\CYMR90~1\AppData\Local\Temp\ccLNaGfc.s:23942  .debug_str:00000000000089ac .LASF1457
C:\Users\CYMR90~1\AppData\Local\Temp\ccLNaGfc.s:22980  .debug_str:0000000000004d33 .LASF1458
C:\Users\CYMR90~1\AppData\Local\Temp\ccLNaGfc.s:29625  .debug_str:000000000001f78a .LASF1459
C:\Users\CYMR90~1\AppData\Local\Temp\ccLNaGfc.s:26426  .debug_str:000000000001281d .LASF1460
C:\Users\CYMR90~1\AppData\Local\Temp\ccLNaGfc.s:24534  .debug_str:000000000000af30 .LASF1461
C:\Users\CYMR90~1\AppData\Local\Temp\ccLNaGfc.s:25716  .debug_str:000000000000fb24 .LASF1462
C:\Users\CYMR90~1\AppData\Local\Temp\ccLNaGfc.s:26216  .debug_str:0000000000011a3e .LASF1463
C:\Users\CYMR90~1\AppData\Local\Temp\ccLNaGfc.s:27286  .debug_str:0000000000015e72 .LASF1464
C:\Users\CYMR90~1\AppData\Local\Temp\ccLNaGfc.s:32609  .debug_str:000000000002b1c7 .LASF1465
C:\Users\CYMR90~1\AppData\Local\Temp\ccLNaGfc.s:28485  .debug_str:000000000001aecb .LASF1466
C:\Users\CYMR90~1\AppData\Local\Temp\ccLNaGfc.s:26892  .debug_str:00000000000145bd .LASF1467
C:\Users\CYMR90~1\AppData\Local\Temp\ccLNaGfc.s:31627  .debug_str:0000000000027396 .LASF1468
C:\Users\CYMR90~1\AppData\Local\Temp\ccLNaGfc.s:25890  .debug_str:0000000000010615 .LASF1469
C:\Users\CYMR90~1\AppData\Local\Temp\ccLNaGfc.s:23968  .debug_str:0000000000008c1d .LASF1470
C:\Users\CYMR90~1\AppData\Local\Temp\ccLNaGfc.s:26192  .debug_str:000000000001184a .LASF1471
C:\Users\CYMR90~1\AppData\Local\Temp\ccLNaGfc.s:27757  .debug_str:0000000000017eca .LASF1472
C:\Users\CYMR90~1\AppData\Local\Temp\ccLNaGfc.s:31073  .debug_str:000000000002501a .LASF1473
C:\Users\CYMR90~1\AppData\Local\Temp\ccLNaGfc.s:31715  .debug_str:00000000000279a6 .LASF1474
C:\Users\CYMR90~1\AppData\Local\Temp\ccLNaGfc.s:21988  .debug_str:0000000000000c9a .LASF1475
C:\Users\CYMR90~1\AppData\Local\Temp\ccLNaGfc.s:23898  .debug_str:0000000000008722 .LASF1476
C:\Users\CYMR90~1\AppData\Local\Temp\ccLNaGfc.s:22502  .debug_str:0000000000002d9b .LASF1477
C:\Users\CYMR90~1\AppData\Local\Temp\ccLNaGfc.s:31895  .debug_str:000000000002856c .LASF1478
C:\Users\CYMR90~1\AppData\Local\Temp\ccLNaGfc.s:30923  .debug_str:0000000000024603 .LASF1479
C:\Users\CYMR90~1\AppData\Local\Temp\ccLNaGfc.s:28525  .debug_str:000000000001b127 .LASF1480
C:\Users\CYMR90~1\AppData\Local\Temp\ccLNaGfc.s:24876  .debug_str:000000000000c642 .LASF1481
C:\Users\CYMR90~1\AppData\Local\Temp\ccLNaGfc.s:28261  .debug_str:0000000000019f18 .LASF1482
C:\Users\CYMR90~1\AppData\Local\Temp\ccLNaGfc.s:24210  .debug_str:0000000000009b41 .LASF1483
C:\Users\CYMR90~1\AppData\Local\Temp\ccLNaGfc.s:23018  .debug_str:0000000000004f8a .LASF1484
C:\Users\CYMR90~1\AppData\Local\Temp\ccLNaGfc.s:25442  .debug_str:000000000000e9bd .LASF1485
C:\Users\CYMR90~1\AppData\Local\Temp\ccLNaGfc.s:26856  .debug_str:00000000000143c3 .LASF1486
C:\Users\CYMR90~1\AppData\Local\Temp\ccLNaGfc.s:28469  .debug_str:000000000001adac .LASF1487
C:\Users\CYMR90~1\AppData\Local\Temp\ccLNaGfc.s:21820  .debug_str:0000000000000210 .LASF1488
C:\Users\CYMR90~1\AppData\Local\Temp\ccLNaGfc.s:27244  .debug_str:0000000000015ba3 .LASF1489
C:\Users\CYMR90~1\AppData\Local\Temp\ccLNaGfc.s:25244  .debug_str:000000000000ddb8 .LASF1490
C:\Users\CYMR90~1\AppData\Local\Temp\ccLNaGfc.s:32129  .debug_str:0000000000029470 .LASF1491
C:\Users\CYMR90~1\AppData\Local\Temp\ccLNaGfc.s:22472  .debug_str:0000000000002b88 .LASF1492
C:\Users\CYMR90~1\AppData\Local\Temp\ccLNaGfc.s:30115  .debug_str:0000000000021505 .LASF1493
C:\Users\CYMR90~1\AppData\Local\Temp\ccLNaGfc.s:32345  .debug_str:000000000002a21b .LASF1494
C:\Users\CYMR90~1\AppData\Local\Temp\ccLNaGfc.s:23650  .debug_str:0000000000007694 .LASF1495
C:\Users\CYMR90~1\AppData\Local\Temp\ccLNaGfc.s:31397  .debug_str:00000000000265c1 .LASF1496
C:\Users\CYMR90~1\AppData\Local\Temp\ccLNaGfc.s:32101  .debug_str:00000000000292a3 .LASF1497
C:\Users\CYMR90~1\AppData\Local\Temp\ccLNaGfc.s:23454  .debug_str:00000000000069bb .LASF1498
C:\Users\CYMR90~1\AppData\Local\Temp\ccLNaGfc.s:24304  .debug_str:000000000000a0ea .LASF1499
C:\Users\CYMR90~1\AppData\Local\Temp\ccLNaGfc.s:33043  .debug_str:000000000002ce3f .LASF1500
C:\Users\CYMR90~1\AppData\Local\Temp\ccLNaGfc.s:32265  .debug_str:0000000000029d6e .LASF1501
C:\Users\CYMR90~1\AppData\Local\Temp\ccLNaGfc.s:30015  .debug_str:0000000000020f3f .LASF1502
C:\Users\CYMR90~1\AppData\Local\Temp\ccLNaGfc.s:23434  .debug_str:000000000000688a .LASF1503
C:\Users\CYMR90~1\AppData\Local\Temp\ccLNaGfc.s:24984  .debug_str:000000000000cd78 .LASF1504
C:\Users\CYMR90~1\AppData\Local\Temp\ccLNaGfc.s:29371  .debug_str:000000000001e811 .LASF1505
C:\Users\CYMR90~1\AppData\Local\Temp\ccLNaGfc.s:28681  .debug_str:000000000001bb82 .LASF1506
C:\Users\CYMR90~1\AppData\Local\Temp\ccLNaGfc.s:25564  .debug_str:000000000000f14c .LASF1507
C:\Users\CYMR90~1\AppData\Local\Temp\ccLNaGfc.s:30219  .debug_str:0000000000021bb8 .LASF1508
C:\Users\CYMR90~1\AppData\Local\Temp\ccLNaGfc.s:26372  .debug_str:0000000000012495 .LASF1509
C:\Users\CYMR90~1\AppData\Local\Temp\ccLNaGfc.s:31999  .debug_str:0000000000028cbf .LASF1510
C:\Users\CYMR90~1\AppData\Local\Temp\ccLNaGfc.s:30795  .debug_str:0000000000023e2a .LASF1511
C:\Users\CYMR90~1\AppData\Local\Temp\ccLNaGfc.s:22674  .debug_str:000000000000386e .LASF1512
C:\Users\CYMR90~1\AppData\Local\Temp\ccLNaGfc.s:27308  .debug_str:0000000000016039 .LASF1513
C:\Users\CYMR90~1\AppData\Local\Temp\ccLNaGfc.s:31199  .debug_str:00000000000258c5 .LASF1514
C:\Users\CYMR90~1\AppData\Local\Temp\ccLNaGfc.s:29601  .debug_str:000000000001f63e .LASF1515
C:\Users\CYMR90~1\AppData\Local\Temp\ccLNaGfc.s:32773  .debug_str:000000000002bc29 .LASF1516
C:\Users\CYMR90~1\AppData\Local\Temp\ccLNaGfc.s:29421  .debug_str:000000000001eaff .LASF1517
C:\Users\CYMR90~1\AppData\Local\Temp\ccLNaGfc.s:31431  .debug_str:00000000000267a3 .LASF1518
C:\Users\CYMR90~1\AppData\Local\Temp\ccLNaGfc.s:26362  .debug_str:0000000000012424 .LASF1519
C:\Users\CYMR90~1\AppData\Local\Temp\ccLNaGfc.s:29827  .debug_str:00000000000203fc .LASF1520
C:\Users\CYMR90~1\AppData\Local\Temp\ccLNaGfc.s:28857  .debug_str:000000000001c662 .LASF1521
C:\Users\CYMR90~1\AppData\Local\Temp\ccLNaGfc.s:30153  .debug_str:000000000002172e .LASF1522
C:\Users\CYMR90~1\AppData\Local\Temp\ccLNaGfc.s:28127  .debug_str:0000000000019606 .LASF1523
C:\Users\CYMR90~1\AppData\Local\Temp\ccLNaGfc.s:30797  .debug_str:0000000000023e40 .LASF1524
C:\Users\CYMR90~1\AppData\Local\Temp\ccLNaGfc.s:23088  .debug_str:00000000000053b9 .LASF1525
C:\Users\CYMR90~1\AppData\Local\Temp\ccLNaGfc.s:28795  .debug_str:000000000001c299 .LASF1526
C:\Users\CYMR90~1\AppData\Local\Temp\ccLNaGfc.s:24898  .debug_str:000000000000c798 .LASF1527
C:\Users\CYMR90~1\AppData\Local\Temp\ccLNaGfc.s:30559  .debug_str:0000000000022fe1 .LASF1528
C:\Users\CYMR90~1\AppData\Local\Temp\ccLNaGfc.s:31793  .debug_str:0000000000027e25 .LASF1529
C:\Users\CYMR90~1\AppData\Local\Temp\ccLNaGfc.s:31033  .debug_str:0000000000024ce6 .LASF1530
C:\Users\CYMR90~1\AppData\Local\Temp\ccLNaGfc.s:31095  .debug_str:0000000000025178 .LASF1531
C:\Users\CYMR90~1\AppData\Local\Temp\ccLNaGfc.s:22840  .debug_str:0000000000004334 .LASF1532
C:\Users\CYMR90~1\AppData\Local\Temp\ccLNaGfc.s:28079  .debug_str:0000000000019275 .LASF1533
C:\Users\CYMR90~1\AppData\Local\Temp\ccLNaGfc.s:30917  .debug_str:00000000000244c3 .LASF1534
C:\Users\CYMR90~1\AppData\Local\Temp\ccLNaGfc.s:23946  .debug_str:00000000000089c9 .LASF1535
C:\Users\CYMR90~1\AppData\Local\Temp\ccLNaGfc.s:31099  .debug_str:00000000000251ea .LASF1536
C:\Users\CYMR90~1\AppData\Local\Temp\ccLNaGfc.s:30463  .debug_str:0000000000022a17 .LASF1537
C:\Users\CYMR90~1\AppData\Local\Temp\ccLNaGfc.s:31673  .debug_str:0000000000027663 .LASF1538
C:\Users\CYMR90~1\AppData\Local\Temp\ccLNaGfc.s:31565  .debug_str:0000000000026fa1 .LASF1539
C:\Users\CYMR90~1\AppData\Local\Temp\ccLNaGfc.s:26240  .debug_str:0000000000011c4b .LASF1540
C:\Users\CYMR90~1\AppData\Local\Temp\ccLNaGfc.s:32291  .debug_str:0000000000029ef6 .LASF1541
C:\Users\CYMR90~1\AppData\Local\Temp\ccLNaGfc.s:25218  .debug_str:000000000000dc5f .LASF1542
C:\Users\CYMR90~1\AppData\Local\Temp\ccLNaGfc.s:22590  .debug_str:0000000000003305 .LASF1543
C:\Users\CYMR90~1\AppData\Local\Temp\ccLNaGfc.s:25802  .debug_str:000000000001005c .LASF1544
C:\Users\CYMR90~1\AppData\Local\Temp\ccLNaGfc.s:23830  .debug_str:00000000000082d5 .LASF1545
C:\Users\CYMR90~1\AppData\Local\Temp\ccLNaGfc.s:24312  .debug_str:000000000000a15d .LASF1546
C:\Users\CYMR90~1\AppData\Local\Temp\ccLNaGfc.s:24954  .debug_str:000000000000cb8c .LASF1547
C:\Users\CYMR90~1\AppData\Local\Temp\ccLNaGfc.s:31871  .debug_str:000000000002838b .LASF1548
C:\Users\CYMR90~1\AppData\Local\Temp\ccLNaGfc.s:31371  .debug_str:00000000000263e1 .LASF1549
C:\Users\CYMR90~1\AppData\Local\Temp\ccLNaGfc.s:28747  .debug_str:000000000001bf1c .LASF1550
C:\Users\CYMR90~1\AppData\Local\Temp\ccLNaGfc.s:26108  .debug_str:0000000000011323 .LASF1551
C:\Users\CYMR90~1\AppData\Local\Temp\ccLNaGfc.s:28715  .debug_str:000000000001bd43 .LASF1552
C:\Users\CYMR90~1\AppData\Local\Temp\ccLNaGfc.s:22058  .debug_str:0000000000001107 .LASF1553
C:\Users\CYMR90~1\AppData\Local\Temp\ccLNaGfc.s:22376  .debug_str:000000000000251c .LASF1554
C:\Users\CYMR90~1\AppData\Local\Temp\ccLNaGfc.s:29459  .debug_str:000000000001ed9d .LASF1555
C:\Users\CYMR90~1\AppData\Local\Temp\ccLNaGfc.s:28029  .debug_str:0000000000018f78 .LASF1556
C:\Users\CYMR90~1\AppData\Local\Temp\ccLNaGfc.s:28055  .debug_str:0000000000019103 .LASF1557
C:\Users\CYMR90~1\AppData\Local\Temp\ccLNaGfc.s:32375  .debug_str:000000000002a3a0 .LASF1558
C:\Users\CYMR90~1\AppData\Local\Temp\ccLNaGfc.s:25948  .debug_str:00000000000109b2 .LASF1559
C:\Users\CYMR90~1\AppData\Local\Temp\ccLNaGfc.s:30807  .debug_str:0000000000023eb9 .LASF1560
C:\Users\CYMR90~1\AppData\Local\Temp\ccLNaGfc.s:31227  .debug_str:0000000000025a69 .LASF1561
C:\Users\CYMR90~1\AppData\Local\Temp\ccLNaGfc.s:26064  .debug_str:00000000000110ca .LASF1562
C:\Users\CYMR90~1\AppData\Local\Temp\ccLNaGfc.s:23278  .debug_str:0000000000005f6c .LASF1563
C:\Users\CYMR90~1\AppData\Local\Temp\ccLNaGfc.s:32873  .debug_str:000000000002c2b4 .LASF1564
C:\Users\CYMR90~1\AppData\Local\Temp\ccLNaGfc.s:23462  .debug_str:0000000000006a24 .LASF1565
C:\Users\CYMR90~1\AppData\Local\Temp\ccLNaGfc.s:29159  .debug_str:000000000001dab6 .LASF1566
C:\Users\CYMR90~1\AppData\Local\Temp\ccLNaGfc.s:28423  .debug_str:000000000001aa5c .LASF1567
C:\Users\CYMR90~1\AppData\Local\Temp\ccLNaGfc.s:29947  .debug_str:0000000000020ac5 .LASF1568
C:\Users\CYMR90~1\AppData\Local\Temp\ccLNaGfc.s:26238  .debug_str:0000000000011ba4 .LASF1569
C:\Users\CYMR90~1\AppData\Local\Temp\ccLNaGfc.s:31257  .debug_str:0000000000025c80 .LASF1570
C:\Users\CYMR90~1\AppData\Local\Temp\ccLNaGfc.s:21888  .debug_str:00000000000005dd .LASF1571
C:\Users\CYMR90~1\AppData\Local\Temp\ccLNaGfc.s:23142  .debug_str:000000000000573d .LASF1572
C:\Users\CYMR90~1\AppData\Local\Temp\ccLNaGfc.s:27054  .debug_str:0000000000015053 .LASF1573
C:\Users\CYMR90~1\AppData\Local\Temp\ccLNaGfc.s:31985  .debug_str:0000000000028bea .LASF1574
C:\Users\CYMR90~1\AppData\Local\Temp\ccLNaGfc.s:27521  .debug_str:0000000000017051 .LASF1575
C:\Users\CYMR90~1\AppData\Local\Temp\ccLNaGfc.s:25598  .debug_str:000000000000f347 .LASF1576
C:\Users\CYMR90~1\AppData\Local\Temp\ccLNaGfc.s:29463  .debug_str:000000000001eddf .LASF1577
C:\Users\CYMR90~1\AppData\Local\Temp\ccLNaGfc.s:32485  .debug_str:000000000002aa40 .LASF1578
C:\Users\CYMR90~1\AppData\Local\Temp\ccLNaGfc.s:22384  .debug_str:0000000000002583 .LASF1579
C:\Users\CYMR90~1\AppData\Local\Temp\ccLNaGfc.s:29001  .debug_str:000000000001cfaa .LASF1580
C:\Users\CYMR90~1\AppData\Local\Temp\ccLNaGfc.s:24430  .debug_str:000000000000a8e2 .LASF1581
C:\Users\CYMR90~1\AppData\Local\Temp\ccLNaGfc.s:25136  .debug_str:000000000000d7a1 .LASF1582
C:\Users\CYMR90~1\AppData\Local\Temp\ccLNaGfc.s:23820  .debug_str:00000000000081a9 .LASF1583
C:\Users\CYMR90~1\AppData\Local\Temp\ccLNaGfc.s:31675  .debug_str:0000000000027681 .LASF1584
C:\Users\CYMR90~1\AppData\Local\Temp\ccLNaGfc.s:29265  .debug_str:000000000001e152 .LASF1585
C:\Users\CYMR90~1\AppData\Local\Temp\ccLNaGfc.s:33095  .debug_str:000000000002d132 .LASF1586
C:\Users\CYMR90~1\AppData\Local\Temp\ccLNaGfc.s:25112  .debug_str:000000000000d57d .LASF1587
C:\Users\CYMR90~1\AppData\Local\Temp\ccLNaGfc.s:23780  .debug_str:0000000000007e7f .LASF1588
C:\Users\CYMR90~1\AppData\Local\Temp\ccLNaGfc.s:27498  .debug_str:0000000000016cae .LASF1589
C:\Users\CYMR90~1\AppData\Local\Temp\ccLNaGfc.s:24650  .debug_str:000000000000b6bb .LASF1590
C:\Users\CYMR90~1\AppData\Local\Temp\ccLNaGfc.s:27418  .debug_str:00000000000166fb .LASF1591
C:\Users\CYMR90~1\AppData\Local\Temp\ccLNaGfc.s:24024  .debug_str:0000000000008f24 .LASF1592
C:\Users\CYMR90~1\AppData\Local\Temp\ccLNaGfc.s:26626  .debug_str:000000000001354f .LASF1593
C:\Users\CYMR90~1\AppData\Local\Temp\ccLNaGfc.s:32173  .debug_str:00000000000296e5 .LASF1594
C:\Users\CYMR90~1\AppData\Local\Temp\ccLNaGfc.s:31903  .debug_str:00000000000285ea .LASF1595
C:\Users\CYMR90~1\AppData\Local\Temp\ccLNaGfc.s:22022  .debug_str:0000000000000eaa .LASF1596
C:\Users\CYMR90~1\AppData\Local\Temp\ccLNaGfc.s:29029  .debug_str:000000000001d1af .LASF1597
C:\Users\CYMR90~1\AppData\Local\Temp\ccLNaGfc.s:22950  .debug_str:0000000000004ac6 .LASF1598
C:\Users\CYMR90~1\AppData\Local\Temp\ccLNaGfc.s:31175  .debug_str:00000000000256a6 .LASF1599
C:\Users\CYMR90~1\AppData\Local\Temp\ccLNaGfc.s:22168  .debug_str:000000000000181c .LASF1600
C:\Users\CYMR90~1\AppData\Local\Temp\ccLNaGfc.s:25688  .debug_str:000000000000f8ad .LASF1601
C:\Users\CYMR90~1\AppData\Local\Temp\ccLNaGfc.s:30179  .debug_str:00000000000218a2 .LASF1602
C:\Users\CYMR90~1\AppData\Local\Temp\ccLNaGfc.s:29051  .debug_str:000000000001d3ad .LASF1603
C:\Users\CYMR90~1\AppData\Local\Temp\ccLNaGfc.s:28943  .debug_str:000000000001cb65 .LASF1604
C:\Users\CYMR90~1\AppData\Local\Temp\ccLNaGfc.s:31153  .debug_str:00000000000254cd .LASF1605
C:\Users\CYMR90~1\AppData\Local\Temp\ccLNaGfc.s:31075  .debug_str:0000000000025030 .LASF1606
C:\Users\CYMR90~1\AppData\Local\Temp\ccLNaGfc.s:31027  .debug_str:0000000000024c92 .LASF1607
C:\Users\CYMR90~1\AppData\Local\Temp\ccLNaGfc.s:27973  .debug_str:0000000000018bd5 .LASF1608
C:\Users\CYMR90~1\AppData\Local\Temp\ccLNaGfc.s:22926  .debug_str:000000000000492d .LASF1609
C:\Users\CYMR90~1\AppData\Local\Temp\ccLNaGfc.s:30391  .debug_str:0000000000022612 .LASF1610
C:\Users\CYMR90~1\AppData\Local\Temp\ccLNaGfc.s:33001  .debug_str:000000000002cb37 .LASF1611
C:\Users\CYMR90~1\AppData\Local\Temp\ccLNaGfc.s:28893  .debug_str:000000000001c87c .LASF1612
C:\Users\CYMR90~1\AppData\Local\Temp\ccLNaGfc.s:26938  .debug_str:00000000000148df .LASF1613
C:\Users\CYMR90~1\AppData\Local\Temp\ccLNaGfc.s:24300  .debug_str:000000000000a0b2 .LASF1614
C:\Users\CYMR90~1\AppData\Local\Temp\ccLNaGfc.s:28571  .debug_str:000000000001b455 .LASF1615
C:\Users\CYMR90~1\AppData\Local\Temp\ccLNaGfc.s:30275  .debug_str:0000000000021f0f .LASF1616
C:\Users\CYMR90~1\AppData\Local\Temp\ccLNaGfc.s:27028  .debug_str:0000000000014e5a .LASF1617
C:\Users\CYMR90~1\AppData\Local\Temp\ccLNaGfc.s:28957  .debug_str:000000000001cd05 .LASF1618
C:\Users\CYMR90~1\AppData\Local\Temp\ccLNaGfc.s:22972  .debug_str:0000000000004cad .LASF1619
C:\Users\CYMR90~1\AppData\Local\Temp\ccLNaGfc.s:24690  .debug_str:000000000000ba1e .LASF1620
C:\Users\CYMR90~1\AppData\Local\Temp\ccLNaGfc.s:25518  .debug_str:000000000000eeba .LASF1621
C:\Users\CYMR90~1\AppData\Local\Temp\ccLNaGfc.s:22530  .debug_str:0000000000002f5b .LASF1622
C:\Users\CYMR90~1\AppData\Local\Temp\ccLNaGfc.s:29977  .debug_str:0000000000020cac .LASF1623
C:\Users\CYMR90~1\AppData\Local\Temp\ccLNaGfc.s:32827  .debug_str:000000000002bfef .LASF1624
C:\Users\CYMR90~1\AppData\Local\Temp\ccLNaGfc.s:24784  .debug_str:000000000000c0b0 .LASF1625
C:\Users\CYMR90~1\AppData\Local\Temp\ccLNaGfc.s:30677  .debug_str:000000000002369a .LASF1626
C:\Users\CYMR90~1\AppData\Local\Temp\ccLNaGfc.s:23458  .debug_str:00000000000069f6 .LASF1627
C:\Users\CYMR90~1\AppData\Local\Temp\ccLNaGfc.s:29721  .debug_str:000000000001fd84 .LASF1628
C:\Users\CYMR90~1\AppData\Local\Temp\ccLNaGfc.s:24546  .debug_str:000000000000aff2 .LASF1629
C:\Users\CYMR90~1\AppData\Local\Temp\ccLNaGfc.s:23772  .debug_str:0000000000007df7 .LASF1630
C:\Users\CYMR90~1\AppData\Local\Temp\ccLNaGfc.s:24006  .debug_str:0000000000008e47 .LASF1631
C:\Users\CYMR90~1\AppData\Local\Temp\ccLNaGfc.s:22124  .debug_str:0000000000001503 .LASF1632
C:\Users\CYMR90~1\AppData\Local\Temp\ccLNaGfc.s:28693  .debug_str:000000000001bc4e .LASF1633
C:\Users\CYMR90~1\AppData\Local\Temp\ccLNaGfc.s:27659  .debug_str:000000000001787c .LASF1634
C:\Users\CYMR90~1\AppData\Local\Temp\ccLNaGfc.s:24766  .debug_str:000000000000bf33 .LASF1635
C:\Users\CYMR90~1\AppData\Local\Temp\ccLNaGfc.s:24870  .debug_str:000000000000c5fc .LASF1636
C:\Users\CYMR90~1\AppData\Local\Temp\ccLNaGfc.s:28543  .debug_str:000000000001b2a4 .LASF1637
C:\Users\CYMR90~1\AppData\Local\Temp\ccLNaGfc.s:24938  .debug_str:000000000000ca79 .LASF1638
C:\Users\CYMR90~1\AppData\Local\Temp\ccLNaGfc.s:24664  .debug_str:000000000000b848 .LASF1639
C:\Users\CYMR90~1\AppData\Local\Temp\ccLNaGfc.s:27877  .debug_str:0000000000018607 .LASF1640
C:\Users\CYMR90~1\AppData\Local\Temp\ccLNaGfc.s:25896  .debug_str:0000000000010671 .LASF1641
C:\Users\CYMR90~1\AppData\Local\Temp\ccLNaGfc.s:31019  .debug_str:0000000000024c1c .LASF1642
C:\Users\CYMR90~1\AppData\Local\Temp\ccLNaGfc.s:26248  .debug_str:0000000000011cec .LASF1643
C:\Users\CYMR90~1\AppData\Local\Temp\ccLNaGfc.s:29863  .debug_str:0000000000020619 .LASF1644
C:\Users\CYMR90~1\AppData\Local\Temp\ccLNaGfc.s:32973  .debug_str:000000000002c9f4 .LASF1645
C:\Users\CYMR90~1\AppData\Local\Temp\ccLNaGfc.s:22520  .debug_str:0000000000002ed3 .LASF1646
C:\Users\CYMR90~1\AppData\Local\Temp\ccLNaGfc.s:27460  .debug_str:00000000000169ea .LASF1647
C:\Users\CYMR90~1\AppData\Local\Temp\ccLNaGfc.s:27567  .debug_str:0000000000017343 .LASF1648
C:\Users\CYMR90~1\AppData\Local\Temp\ccLNaGfc.s:22326  .debug_str:0000000000002242 .LASF1649
C:\Users\CYMR90~1\AppData\Local\Temp\ccLNaGfc.s:23846  .debug_str:00000000000083ea .LASF1650
C:\Users\CYMR90~1\AppData\Local\Temp\ccLNaGfc.s:30693  .debug_str:000000000002379a .LASF1651
C:\Users\CYMR90~1\AppData\Local\Temp\ccLNaGfc.s:25998  .debug_str:0000000000010c3f .LASF1652
C:\Users\CYMR90~1\AppData\Local\Temp\ccLNaGfc.s:23736  .debug_str:0000000000007bd0 .LASF1653
C:\Users\CYMR90~1\AppData\Local\Temp\ccLNaGfc.s:22066  .debug_str:0000000000001197 .LASF1654
C:\Users\CYMR90~1\AppData\Local\Temp\ccLNaGfc.s:27773  .debug_str:0000000000017fbe .LASF1657
C:\Users\CYMR90~1\AppData\Local\Temp\ccLNaGfc.s:32535  .debug_str:000000000002ad48 .LASF1658
C:\Users\CYMR90~1\AppData\Local\Temp\ccLNaGfc.s:26032  .debug_str:0000000000010f42 .LASF1659
C:\Users\CYMR90~1\AppData\Local\Temp\ccLNaGfc.s:28101  .debug_str:00000000000194a2 .LASF1660
C:\Users\CYMR90~1\AppData\Local\Temp\ccLNaGfc.s:32769  .debug_str:000000000002bbea .LASF1661
C:\Users\CYMR90~1\AppData\Local\Temp\ccLNaGfc.s:32803  .debug_str:000000000002be5f .LASF1662
C:\Users\CYMR90~1\AppData\Local\Temp\ccLNaGfc.s:30063  .debug_str:0000000000021213 .LASF1663
C:\Users\CYMR90~1\AppData\Local\Temp\ccLNaGfc.s:26990  .debug_str:0000000000014bec .LASF1664
C:\Users\CYMR90~1\AppData\Local\Temp\ccLNaGfc.s:29211  .debug_str:000000000001de34 .LASF1665
C:\Users\CYMR90~1\AppData\Local\Temp\ccLNaGfc.s:30155  .debug_str:0000000000021749 .LASF1666
C:\Users\CYMR90~1\AppData\Local\Temp\ccLNaGfc.s:31251  .debug_str:0000000000025c16 .LASF1667
C:\Users\CYMR90~1\AppData\Local\Temp\ccLNaGfc.s:25428  .debug_str:000000000000e8ea .LASF1668
C:\Users\CYMR90~1\AppData\Local\Temp\ccLNaGfc.s:22764  .debug_str:0000000000003e21 .LASF1669
C:\Users\CYMR90~1\AppData\Local\Temp\ccLNaGfc.s:24044  .debug_str:0000000000009120 .LASF1670
C:\Users\CYMR90~1\AppData\Local\Temp\ccLNaGfc.s:22918  .debug_str:00000000000048ab .LASF1671
C:\Users\CYMR90~1\AppData\Local\Temp\ccLNaGfc.s:21870  .debug_str:000000000000050a .LASF1672
C:\Users\CYMR90~1\AppData\Local\Temp\ccLNaGfc.s:26912  .debug_str:00000000000146d5 .LASF1673
C:\Users\CYMR90~1\AppData\Local\Temp\ccLNaGfc.s:26322  .debug_str:0000000000012132 .LASF1674
C:\Users\CYMR90~1\AppData\Local\Temp\ccLNaGfc.s:25466  .debug_str:000000000000eb1a .LASF1675
C:\Users\CYMR90~1\AppData\Local\Temp\ccLNaGfc.s:31039  .debug_str:0000000000024dee .LASF1676
C:\Users\CYMR90~1\AppData\Local\Temp\ccLNaGfc.s:26454  .debug_str:00000000000129e4 .LASF1677
C:\Users\CYMR90~1\AppData\Local\Temp\ccLNaGfc.s:32975  .debug_str:000000000002ca09 .LASF1678
C:\Users\CYMR90~1\AppData\Local\Temp\ccLNaGfc.s:22434  .debug_str:00000000000028da .LASF1679
C:\Users\CYMR90~1\AppData\Local\Temp\ccLNaGfc.s:30419  .debug_str:00000000000227b2 .LASF1680
C:\Users\CYMR90~1\AppData\Local\Temp\ccLNaGfc.s:27152  .debug_str:000000000001567f .LASF1681
C:\Users\CYMR90~1\AppData\Local\Temp\ccLNaGfc.s:25824  .debug_str:00000000000101f1 .LASF1682
C:\Users\CYMR90~1\AppData\Local\Temp\ccLNaGfc.s:28527  .debug_str:000000000001b13a .LASF1683
C:\Users\CYMR90~1\AppData\Local\Temp\ccLNaGfc.s:30643  .debug_str:00000000000234f2 .LASF1684
C:\Users\CYMR90~1\AppData\Local\Temp\ccLNaGfc.s:31557  .debug_str:0000000000026f46 .LASF1685
C:\Users\CYMR90~1\AppData\Local\Temp\ccLNaGfc.s:25978  .debug_str:0000000000010b4e .LASF1686
C:\Users\CYMR90~1\AppData\Local\Temp\ccLNaGfc.s:27086  .debug_str:0000000000015270 .LASF1687
C:\Users\CYMR90~1\AppData\Local\Temp\ccLNaGfc.s:32281  .debug_str:0000000000029e4b .LASF1688
C:\Users\CYMR90~1\AppData\Local\Temp\ccLNaGfc.s:30819  .debug_str:0000000000023f94 .LASF1689
C:\Users\CYMR90~1\AppData\Local\Temp\ccLNaGfc.s:28655  .debug_str:000000000001b9dc .LASF1690
C:\Users\CYMR90~1\AppData\Local\Temp\ccLNaGfc.s:26718  .debug_str:0000000000013b42 .LASF1691
C:\Users\CYMR90~1\AppData\Local\Temp\ccLNaGfc.s:30373  .debug_str:0000000000022519 .LASF1692
C:\Users\CYMR90~1\AppData\Local\Temp\ccLNaGfc.s:27961  .debug_str:0000000000018b1c .LASF1693
C:\Users\CYMR90~1\AppData\Local\Temp\ccLNaGfc.s:23840  .debug_str:000000000000837a .LASF1694
C:\Users\CYMR90~1\AppData\Local\Temp\ccLNaGfc.s:25892  .debug_str:0000000000010625 .LASF1695
C:\Users\CYMR90~1\AppData\Local\Temp\ccLNaGfc.s:27741  .debug_str:0000000000017dd6 .LASF1696
C:\Users\CYMR90~1\AppData\Local\Temp\ccLNaGfc.s:27036  .debug_str:0000000000014eed .LASF1697
C:\Users\CYMR90~1\AppData\Local\Temp\ccLNaGfc.s:29615  .debug_str:000000000001f6f7 .LASF1698
C:\Users\CYMR90~1\AppData\Local\Temp\ccLNaGfc.s:28137  .debug_str:00000000000196cd .LASF1699
C:\Users\CYMR90~1\AppData\Local\Temp\ccLNaGfc.s:30075  .debug_str:00000000000212c7 .LASF1700
C:\Users\CYMR90~1\AppData\Local\Temp\ccLNaGfc.s:29611  .debug_str:000000000001f6ba .LASF1701
C:\Users\CYMR90~1\AppData\Local\Temp\ccLNaGfc.s:30863  .debug_str:0000000000024209 .LASF1702
C:\Users\CYMR90~1\AppData\Local\Temp\ccLNaGfc.s:30825  .debug_str:0000000000023fd2 .LASF1703
C:\Users\CYMR90~1\AppData\Local\Temp\ccLNaGfc.s:30363  .debug_str:0000000000022483 .LASF1704
C:\Users\CYMR90~1\AppData\Local\Temp\ccLNaGfc.s:28773  .debug_str:000000000001c0f2 .LASF1705
C:\Users\CYMR90~1\AppData\Local\Temp\ccLNaGfc.s:30221  .debug_str:0000000000021bcc .LASF1706
C:\Users\CYMR90~1\AppData\Local\Temp\ccLNaGfc.s:27643  .debug_str:000000000001776f .LASF1707
C:\Users\CYMR90~1\AppData\Local\Temp\ccLNaGfc.s:26632  .debug_str:000000000001360b .LASF1708
C:\Users\CYMR90~1\AppData\Local\Temp\ccLNaGfc.s:29353  .debug_str:000000000001e71c .LASF1709
C:\Users\CYMR90~1\AppData\Local\Temp\ccLNaGfc.s:27879  .debug_str:000000000001861c .LASF1710
C:\Users\CYMR90~1\AppData\Local\Temp\ccLNaGfc.s:31749  .debug_str:0000000000027b70 .LASF1711
C:\Users\CYMR90~1\AppData\Local\Temp\ccLNaGfc.s:26268  .debug_str:0000000000011dff .LASF1712
C:\Users\CYMR90~1\AppData\Local\Temp\ccLNaGfc.s:23384  .debug_str:000000000000658d .LASF1713
C:\Users\CYMR90~1\AppData\Local\Temp\ccLNaGfc.s:25736  .debug_str:000000000000fc0e .LASF1714
C:\Users\CYMR90~1\AppData\Local\Temp\ccLNaGfc.s:22648  .debug_str:00000000000036fd .LASF1715
C:\Users\CYMR90~1\AppData\Local\Temp\ccLNaGfc.s:25976  .debug_str:0000000000010b22 .LASF1716
C:\Users\CYMR90~1\AppData\Local\Temp\ccLNaGfc.s:29321  .debug_str:000000000001e52a .LASF1717
C:\Users\CYMR90~1\AppData\Local\Temp\ccLNaGfc.s:27843  .debug_str:00000000000183e9 .LASF1718
C:\Users\CYMR90~1\AppData\Local\Temp\ccLNaGfc.s:26214  .debug_str:0000000000011990 .LASF1719
C:\Users\CYMR90~1\AppData\Local\Temp\ccLNaGfc.s:28197  .debug_str:0000000000019a76 .LASF1720
C:\Users\CYMR90~1\AppData\Local\Temp\ccLNaGfc.s:26710  .debug_str:0000000000013abf .LASF1721
C:\Users\CYMR90~1\AppData\Local\Temp\ccLNaGfc.s:22362  .debug_str:0000000000002463 .LASF1722
C:\Users\CYMR90~1\AppData\Local\Temp\ccLNaGfc.s:28535  .debug_str:000000000001b1d4 .LASF1723
C:\Users\CYMR90~1\AppData\Local\Temp\ccLNaGfc.s:22426  .debug_str:0000000000002864 .LASF1724
C:\Users\CYMR90~1\AppData\Local\Temp\ccLNaGfc.s:27222  .debug_str:0000000000015a49 .LASF1725
C:\Users\CYMR90~1\AppData\Local\Temp\ccLNaGfc.s:32075  .debug_str:0000000000029105 .LASF1726
C:\Users\CYMR90~1\AppData\Local\Temp\ccLNaGfc.s:30513  .debug_str:0000000000022d10 .LASF1727
C:\Users\CYMR90~1\AppData\Local\Temp\ccLNaGfc.s:31717  .debug_str:00000000000279ba .LASF1728
C:\Users\CYMR90~1\AppData\Local\Temp\ccLNaGfc.s:28999  .debug_str:000000000001cf73 .LASF1729
C:\Users\CYMR90~1\AppData\Local\Temp\ccLNaGfc.s:32877  .debug_str:000000000002c373 .LASF1730
C:\Users\CYMR90~1\AppData\Local\Temp\ccLNaGfc.s:31003  .debug_str:0000000000024afe .LASF1731
C:\Users\CYMR90~1\AppData\Local\Temp\ccLNaGfc.s:26148  .debug_str:0000000000011567 .LASF1732
C:\Users\CYMR90~1\AppData\Local\Temp\ccLNaGfc.s:24156  .debug_str:0000000000009776 .LASF1733
C:\Users\CYMR90~1\AppData\Local\Temp\ccLNaGfc.s:22128  .debug_str:0000000000001520 .LASF1734
C:\Users\CYMR90~1\AppData\Local\Temp\ccLNaGfc.s:27601  .debug_str:0000000000017538 .LASF1735
C:\Users\CYMR90~1\AppData\Local\Temp\ccLNaGfc.s:29789  .debug_str:00000000000201a3 .LASF1736
C:\Users\CYMR90~1\AppData\Local\Temp\ccLNaGfc.s:24146  .debug_str:00000000000096d5 .LASF1737
C:\Users\CYMR90~1\AppData\Local\Temp\ccLNaGfc.s:23860  .debug_str:00000000000084c6 .LASF1738
C:\Users\CYMR90~1\AppData\Local\Temp\ccLNaGfc.s:31553  .debug_str:0000000000026f17 .LASF1739
C:\Users\CYMR90~1\AppData\Local\Temp\ccLNaGfc.s:25492  .debug_str:000000000000ed2d .LASF1740
C:\Users\CYMR90~1\AppData\Local\Temp\ccLNaGfc.s:24496  .debug_str:000000000000ace1 .LASF1741
C:\Users\CYMR90~1\AppData\Local\Temp\ccLNaGfc.s:29637  .debug_str:000000000001f83e .LASF1742
C:\Users\CYMR90~1\AppData\Local\Temp\ccLNaGfc.s:24986  .debug_str:000000000000cd8f .LASF1743
C:\Users\CYMR90~1\AppData\Local\Temp\ccLNaGfc.s:31827  .debug_str:0000000000028096 .LASF1744
C:\Users\CYMR90~1\AppData\Local\Temp\ccLNaGfc.s:23866  .debug_str:0000000000008538 .LASF1745
C:\Users\CYMR90~1\AppData\Local\Temp\ccLNaGfc.s:25794  .debug_str:000000000000ffd3 .LASF1746
C:\Users\CYMR90~1\AppData\Local\Temp\ccLNaGfc.s:30867  .debug_str:0000000000024247 .LASF1747
C:\Users\CYMR90~1\AppData\Local\Temp\ccLNaGfc.s:29495  .debug_str:000000000001efb1 .LASF1748
C:\Users\CYMR90~1\AppData\Local\Temp\ccLNaGfc.s:25974  .debug_str:0000000000010aff .LASF1749
C:\Users\CYMR90~1\AppData\Local\Temp\ccLNaGfc.s:24660  .debug_str:000000000000b7ff .LASF1750
C:\Users\CYMR90~1\AppData\Local\Temp\ccLNaGfc.s:27777  .debug_str:0000000000017ff2 .LASF1751
C:\Users\CYMR90~1\AppData\Local\Temp\ccLNaGfc.s:23020  .debug_str:0000000000004f9e .LASF1752
C:\Users\CYMR90~1\AppData\Local\Temp\ccLNaGfc.s:28511  .debug_str:000000000001b05d .LASF1753
C:\Users\CYMR90~1\AppData\Local\Temp\ccLNaGfc.s:28403  .debug_str:000000000001a8d4 .LASF1754
C:\Users\CYMR90~1\AppData\Local\Temp\ccLNaGfc.s:24928  .debug_str:000000000000c978 .LASF1755
C:\Users\CYMR90~1\AppData\Local\Temp\ccLNaGfc.s:30473  .debug_str:0000000000022a83 .LASF1756
C:\Users\CYMR90~1\AppData\Local\Temp\ccLNaGfc.s:28611  .debug_str:000000000001b71f .LASF1757
C:\Users\CYMR90~1\AppData\Local\Temp\ccLNaGfc.s:25588  .debug_str:000000000000f290 .LASF1758
C:\Users\CYMR90~1\AppData\Local\Temp\ccLNaGfc.s:23680  .debug_str:000000000000783d .LASF1759
C:\Users\CYMR90~1\AppData\Local\Temp\ccLNaGfc.s:28345  .debug_str:000000000001a3ec .LASF1760
C:\Users\CYMR90~1\AppData\Local\Temp\ccLNaGfc.s:23970  .debug_str:0000000000008c2f .LASF1761
C:\Users\CYMR90~1\AppData\Local\Temp\ccLNaGfc.s:22192  .debug_str:0000000000001a6e .LASF1762
C:\Users\CYMR90~1\AppData\Local\Temp\ccLNaGfc.s:31055  .debug_str:0000000000024edb .LASF1763
C:\Users\CYMR90~1\AppData\Local\Temp\ccLNaGfc.s:23712  .debug_str:0000000000007a62 .LASF1764
C:\Users\CYMR90~1\AppData\Local\Temp\ccLNaGfc.s:23398  .debug_str:0000000000006686 .LASF1765
C:\Users\CYMR90~1\AppData\Local\Temp\ccLNaGfc.s:22172  .debug_str:0000000000001907 .LASF1766
C:\Users\CYMR90~1\AppData\Local\Temp\ccLNaGfc.s:28721  .debug_str:000000000001bd9c .LASF1767
C:\Users\CYMR90~1\AppData\Local\Temp\ccLNaGfc.s:22234  .debug_str:0000000000001cd9 .LASF1768
C:\Users\CYMR90~1\AppData\Local\Temp\ccLNaGfc.s:31259  .debug_str:0000000000025d0e .LASF1769
C:\Users\CYMR90~1\AppData\Local\Temp\ccLNaGfc.s:32959  .debug_str:000000000002c903 .LASF1770
C:\Users\CYMR90~1\AppData\Local\Temp\ccLNaGfc.s:24816  .debug_str:000000000000c2bf .LASF1771
C:\Users\CYMR90~1\AppData\Local\Temp\ccLNaGfc.s:24402  .debug_str:000000000000a738 .LASF1772
C:\Users\CYMR90~1\AppData\Local\Temp\ccLNaGfc.s:33017  .debug_str:000000000002cc55 .LASF1773
C:\Users\CYMR90~1\AppData\Local\Temp\ccLNaGfc.s:21950  .debug_str:00000000000009b9 .LASF1774
C:\Users\CYMR90~1\AppData\Local\Temp\ccLNaGfc.s:31975  .debug_str:0000000000028b42 .LASF1775
C:\Users\CYMR90~1\AppData\Local\Temp\ccLNaGfc.s:26930  .debug_str:000000000001484b .LASF1776
C:\Users\CYMR90~1\AppData\Local\Temp\ccLNaGfc.s:25670  .debug_str:000000000000f7ab .LASF1777
C:\Users\CYMR90~1\AppData\Local\Temp\ccLNaGfc.s:27769  .debug_str:0000000000017f8d .LASF1778
C:\Users\CYMR90~1\AppData\Local\Temp\ccLNaGfc.s:23114  .debug_str:0000000000005561 .LASF1779
C:\Users\CYMR90~1\AppData\Local\Temp\ccLNaGfc.s:31299  .debug_str:0000000000025f98 .LASF1780
C:\Users\CYMR90~1\AppData\Local\Temp\ccLNaGfc.s:30517  .debug_str:0000000000022d79 .LASF1781
C:\Users\CYMR90~1\AppData\Local\Temp\ccLNaGfc.s:28061  .debug_str:0000000000019165 .LASF1784
C:\Users\CYMR90~1\AppData\Local\Temp\ccLNaGfc.s:32615  .debug_str:000000000002b216 .LASF1785
C:\Users\CYMR90~1\AppData\Local\Temp\ccLNaGfc.s:23782  .debug_str:0000000000007f35 .LASF1786
C:\Users\CYMR90~1\AppData\Local\Temp\ccLNaGfc.s:24140  .debug_str:000000000000968c .LASF1787
C:\Users\CYMR90~1\AppData\Local\Temp\ccLNaGfc.s:32383  .debug_str:000000000002a415 .LASF1788
C:\Users\CYMR90~1\AppData\Local\Temp\ccLNaGfc.s:23070  .debug_str:00000000000052a8 .LASF1789
C:\Users\CYMR90~1\AppData\Local\Temp\ccLNaGfc.s:31121  .debug_str:0000000000025325 .LASF1790
C:\Users\CYMR90~1\AppData\Local\Temp\ccLNaGfc.s:30983  .debug_str:00000000000249b7 .LASF1791
C:\Users\CYMR90~1\AppData\Local\Temp\ccLNaGfc.s:30829  .debug_str:0000000000024022 .LASF1792
C:\Users\CYMR90~1\AppData\Local\Temp\ccLNaGfc.s:31653  .debug_str:00000000000274eb .LASF1793
C:\Users\CYMR90~1\AppData\Local\Temp\ccLNaGfc.s:32571  .debug_str:000000000002af62 .LASF1794
C:\Users\CYMR90~1\AppData\Local\Temp\ccLNaGfc.s:29513  .debug_str:000000000001f0a1 .LASF1795
C:\Users\CYMR90~1\AppData\Local\Temp\ccLNaGfc.s:28683  .debug_str:000000000001bb9b .LASF1796
C:\Users\CYMR90~1\AppData\Local\Temp\ccLNaGfc.s:26950  .debug_str:0000000000014990 .LASF1797
C:\Users\CYMR90~1\AppData\Local\Temp\ccLNaGfc.s:27959  .debug_str:0000000000018af9 .LASF1798
C:\Users\CYMR90~1\AppData\Local\Temp\ccLNaGfc.s:24976  .debug_str:000000000000cd03 .LASF1799
C:\Users\CYMR90~1\AppData\Local\Temp\ccLNaGfc.s:22822  .debug_str:000000000000421b .LASF1800
C:\Users\CYMR90~1\AppData\Local\Temp\ccLNaGfc.s:25038  .debug_str:000000000000d096 .LASF1801
C:\Users\CYMR90~1\AppData\Local\Temp\ccLNaGfc.s:25940  .debug_str:0000000000010915 .LASF1802
C:\Users\CYMR90~1\AppData\Local\Temp\ccLNaGfc.s:28687  .debug_str:000000000001bbe2 .LASF1803
C:\Users\CYMR90~1\AppData\Local\Temp\ccLNaGfc.s:22042  .debug_str:000000000000103d .LASF1804
C:\Users\CYMR90~1\AppData\Local\Temp\ccLNaGfc.s:31241  .debug_str:0000000000025b6d .LASF1805
C:\Users\CYMR90~1\AppData\Local\Temp\ccLNaGfc.s:22678  .debug_str:00000000000038a9 .LASF1806
C:\Users\CYMR90~1\AppData\Local\Temp\ccLNaGfc.s:31705  .debug_str:0000000000027916 .LASF1807
C:\Users\CYMR90~1\AppData\Local\Temp\ccLNaGfc.s:23920  .debug_str:000000000000884e .LASF1808
C:\Users\CYMR90~1\AppData\Local\Temp\ccLNaGfc.s:27885  .debug_str:0000000000018686 .LASF1809
C:\Users\CYMR90~1\AppData\Local\Temp\ccLNaGfc.s:27358  .debug_str:000000000001638b .LASF1810
C:\Users\CYMR90~1\AppData\Local\Temp\ccLNaGfc.s:26186  .debug_str:00000000000117db .LASF1811
C:\Users\CYMR90~1\AppData\Local\Temp\ccLNaGfc.s:30533  .debug_str:0000000000022e7a .LASF1812
C:\Users\CYMR90~1\AppData\Local\Temp\ccLNaGfc.s:31919  .debug_str:0000000000028784 .LASF1813
C:\Users\CYMR90~1\AppData\Local\Temp\ccLNaGfc.s:25730  .debug_str:000000000000fbc3 .LASF1814
C:\Users\CYMR90~1\AppData\Local\Temp\ccLNaGfc.s:30421  .debug_str:00000000000227c7 .LASF1815
C:\Users\CYMR90~1\AppData\Local\Temp\ccLNaGfc.s:27569  .debug_str:0000000000017357 .LASF1816
C:\Users\CYMR90~1\AppData\Local\Temp\ccLNaGfc.s:32819  .debug_str:000000000002bf85 .LASF1817
C:\Users\CYMR90~1\AppData\Local\Temp\ccLNaGfc.s:23116  .debug_str:0000000000005589 .LASF1818
C:\Users\CYMR90~1\AppData\Local\Temp\ccLNaGfc.s:26680  .debug_str:00000000000138e8 .LASF1819
C:\Users\CYMR90~1\AppData\Local\Temp\ccLNaGfc.s:29403  .debug_str:000000000001ea0e .LASF1820
C:\Users\CYMR90~1\AppData\Local\Temp\ccLNaGfc.s:25006  .debug_str:000000000000ceec .LASF1821
C:\Users\CYMR90~1\AppData\Local\Temp\ccLNaGfc.s:22236  .debug_str:0000000000001d04 .LASF1822
C:\Users\CYMR90~1\AppData\Local\Temp\ccLNaGfc.s:30709  .debug_str:0000000000023882 .LASF1823
C:\Users\CYMR90~1\AppData\Local\Temp\ccLNaGfc.s:30471  .debug_str:0000000000022a6b .LASF1824
C:\Users\CYMR90~1\AppData\Local\Temp\ccLNaGfc.s:28387  .debug_str:000000000001a7e9 .LASF1825
C:\Users\CYMR90~1\AppData\Local\Temp\ccLNaGfc.s:32295  .debug_str:0000000000029f2a .LASF1826
C:\Users\CYMR90~1\AppData\Local\Temp\ccLNaGfc.s:30623  .debug_str:00000000000233f2 .LASF1827
C:\Users\CYMR90~1\AppData\Local\Temp\ccLNaGfc.s:30247  .debug_str:0000000000021d93 .LASF1828
C:\Users\CYMR90~1\AppData\Local\Temp\ccLNaGfc.s:29155  .debug_str:000000000001da80 .LASF1829
C:\Users\CYMR90~1\AppData\Local\Temp\ccLNaGfc.s:23486  .debug_str:0000000000006bec .LASF1830
C:\Users\CYMR90~1\AppData\Local\Temp\ccLNaGfc.s:30663  .debug_str:00000000000235f6 .LASF1831
C:\Users\CYMR90~1\AppData\Local\Temp\ccLNaGfc.s:31643  .debug_str:000000000002746d .LASF1832
C:\Users\CYMR90~1\AppData\Local\Temp\ccLNaGfc.s:26916  .debug_str:0000000000014717 .LASF1833
C:\Users\CYMR90~1\AppData\Local\Temp\ccLNaGfc.s:31585  .debug_str:00000000000270bd .LASF1834
C:\Users\CYMR90~1\AppData\Local\Temp\ccLNaGfc.s:24726  .debug_str:000000000000bcda .LASF1835
C:\Users\CYMR90~1\AppData\Local\Temp\ccLNaGfc.s:32677  .debug_str:000000000002b59e .LASF1836
C:\Users\CYMR90~1\AppData\Local\Temp\ccLNaGfc.s:22640  .debug_str:000000000000367b .LASF1837
C:\Users\CYMR90~1\AppData\Local\Temp\ccLNaGfc.s:30721  .debug_str:0000000000023928 .LASF1838
C:\Users\CYMR90~1\AppData\Local\Temp\ccLNaGfc.s:29727  .debug_str:000000000001fdc0 .LASF1839
C:\Users\CYMR90~1\AppData\Local\Temp\ccLNaGfc.s:32731  .debug_str:000000000002b98b .LASF1840
C:\Users\CYMR90~1\AppData\Local\Temp\ccLNaGfc.s:27785  .debug_str:000000000001806e .LASF1841
C:\Users\CYMR90~1\AppData\Local\Temp\ccLNaGfc.s:24482  .debug_str:000000000000ac1b .LASF1842
C:\Users\CYMR90~1\AppData\Local\Temp\ccLNaGfc.s:25692  .debug_str:000000000000f999 .LASF1843
C:\Users\CYMR90~1\AppData\Local\Temp\ccLNaGfc.s:24704  .debug_str:000000000000bb25 .LASF1844
C:\Users\CYMR90~1\AppData\Local\Temp\ccLNaGfc.s:26250  .debug_str:0000000000011d01 .LASF1845
C:\Users\CYMR90~1\AppData\Local\Temp\ccLNaGfc.s:30193  .debug_str:0000000000021a16 .LASF1846
C:\Users\CYMR90~1\AppData\Local\Temp\ccLNaGfc.s:30603  .debug_str:00000000000232bc .LASF1847
C:\Users\CYMR90~1\AppData\Local\Temp\ccLNaGfc.s:31167  .debug_str:0000000000025624 .LASF1848
C:\Users\CYMR90~1\AppData\Local\Temp\ccLNaGfc.s:26348  .debug_str:000000000001232d .LASF1849
C:\Users\CYMR90~1\AppData\Local\Temp\ccLNaGfc.s:28327  .debug_str:000000000001a2f3 .LASF1850
C:\Users\CYMR90~1\AppData\Local\Temp\ccLNaGfc.s:25034  .debug_str:000000000000d046 .LASF1851
C:\Users\CYMR90~1\AppData\Local\Temp\ccLNaGfc.s:22460  .debug_str:0000000000002abf .LASF1852
C:\Users\CYMR90~1\AppData\Local\Temp\ccLNaGfc.s:23218  .debug_str:0000000000005bef .LASF1853
C:\Users\CYMR90~1\AppData\Local\Temp\ccLNaGfc.s:33097  .debug_str:000000000002d1e8 .LASF1854
C:\Users\CYMR90~1\AppData\Local\Temp\ccLNaGfc.s:26650  .debug_str:0000000000013705 .LASF1855
C:\Users\CYMR90~1\AppData\Local\Temp\ccLNaGfc.s:30487  .debug_str:0000000000022b7c .LASF1856
C:\Users\CYMR90~1\AppData\Local\Temp\ccLNaGfc.s:32103  .debug_str:00000000000292b7 .LASF1857
C:\Users\CYMR90~1\AppData\Local\Temp\ccLNaGfc.s:28807  .debug_str:000000000001c342 .LASF1858
C:\Users\CYMR90~1\AppData\Local\Temp\ccLNaGfc.s:23800  .debug_str:0000000000008060 .LASF1859
C:\Users\CYMR90~1\AppData\Local\Temp\ccLNaGfc.s:23280  .debug_str:0000000000005f86 .LASF1860
C:\Users\CYMR90~1\AppData\Local\Temp\ccLNaGfc.s:22626  .debug_str:000000000000357c .LASF1861
C:\Users\CYMR90~1\AppData\Local\Temp\ccLNaGfc.s:24602  .debug_str:000000000000b41a .LASF1862
C:\Users\CYMR90~1\AppData\Local\Temp\ccLNaGfc.s:28475  .debug_str:000000000001adf3 .LASF1863
C:\Users\CYMR90~1\AppData\Local\Temp\ccLNaGfc.s:32525  .debug_str:000000000002aca8 .LASF1864
C:\Users\CYMR90~1\AppData\Local\Temp\ccLNaGfc.s:23080  .debug_str:0000000000005350 .LASF1865
C:\Users\CYMR90~1\AppData\Local\Temp\ccLNaGfc.s:31539  .debug_str:0000000000026e3c .LASF1866
C:\Users\CYMR90~1\AppData\Local\Temp\ccLNaGfc.s:29533  .debug_str:000000000001f1fc .LASF1867
C:\Users\CYMR90~1\AppData\Local\Temp\ccLNaGfc.s:27629  .debug_str:00000000000176bf .LASF1868
C:\Users\CYMR90~1\AppData\Local\Temp\ccLNaGfc.s:24472  .debug_str:000000000000ab5b .LASF1869
C:\Users\CYMR90~1\AppData\Local\Temp\ccLNaGfc.s:25282  .debug_str:000000000000e042 .LASF1870
C:\Users\CYMR90~1\AppData\Local\Temp\ccLNaGfc.s:29995  .debug_str:0000000000020dec .LASF1871
C:\Users\CYMR90~1\AppData\Local\Temp\ccLNaGfc.s:26778  .debug_str:0000000000013ee8 .LASF1872
C:\Users\CYMR90~1\AppData\Local\Temp\ccLNaGfc.s:22436  .debug_str:0000000000002913 .LASF1873
C:\Users\CYMR90~1\AppData\Local\Temp\ccLNaGfc.s:26066  .debug_str:00000000000110e1 .LASF1874
C:\Users\CYMR90~1\AppData\Local\Temp\ccLNaGfc.s:27390  .debug_str:000000000001656c .LASF1875
C:\Users\CYMR90~1\AppData\Local\Temp\ccLNaGfc.s:24158  .debug_str:0000000000009797 .LASF1876
C:\Users\CYMR90~1\AppData\Local\Temp\ccLNaGfc.s:24630  .debug_str:000000000000b59a .LASF1877
C:\Users\CYMR90~1\AppData\Local\Temp\ccLNaGfc.s:27735  .debug_str:0000000000017d8c .LASF1878
C:\Users\CYMR90~1\AppData\Local\Temp\ccLNaGfc.s:27334  .debug_str:00000000000161e9 .LASF1879
C:\Users\CYMR90~1\AppData\Local\Temp\ccLNaGfc.s:25166  .debug_str:000000000000d954 .LASF1880
C:\Users\CYMR90~1\AppData\Local\Temp\ccLNaGfc.s:23250  .debug_str:0000000000005ded .LASF1881
C:\Users\CYMR90~1\AppData\Local\Temp\ccLNaGfc.s:21810  .debug_str:0000000000000174 .LASF1882
C:\Users\CYMR90~1\AppData\Local\Temp\ccLNaGfc.s:25514  .debug_str:000000000000ee8d .LASF1883
C:\Users\CYMR90~1\AppData\Local\Temp\ccLNaGfc.s:24762  .debug_str:000000000000bed3 .LASF1884
C:\Users\CYMR90~1\AppData\Local\Temp\ccLNaGfc.s:32899  .debug_str:000000000002c4e2 .LASF1885
C:\Users\CYMR90~1\AppData\Local\Temp\ccLNaGfc.s:24732  .debug_str:000000000000bd30 .LASF1886
C:\Users\CYMR90~1\AppData\Local\Temp\ccLNaGfc.s:32181  .debug_str:00000000000297f3 .LASF1887
C:\Users\CYMR90~1\AppData\Local\Temp\ccLNaGfc.s:23094  .debug_str:0000000000005427 .LASF1888
C:\Users\CYMR90~1\AppData\Local\Temp\ccLNaGfc.s:22202  .debug_str:0000000000001af0 .LASF1889
C:\Users\CYMR90~1\AppData\Local\Temp\ccLNaGfc.s:30749  .debug_str:0000000000023b16 .LASF1890
C:\Users\CYMR90~1\AppData\Local\Temp\ccLNaGfc.s:32065  .debug_str:000000000002908e .LASF1891
C:\Users\CYMR90~1\AppData\Local\Temp\ccLNaGfc.s:32157  .debug_str:0000000000029606 .LASF1892
C:\Users\CYMR90~1\AppData\Local\Temp\ccLNaGfc.s:26374  .debug_str:00000000000124a9 .LASF1893
C:\Users\CYMR90~1\AppData\Local\Temp\ccLNaGfc.s:23804  .debug_str:00000000000080a7 .LASF1894
C:\Users\CYMR90~1\AppData\Local\Temp\ccLNaGfc.s:30635  .debug_str:0000000000023495 .LASF1895
C:\Users\CYMR90~1\AppData\Local\Temp\ccLNaGfc.s:22094  .debug_str:000000000000131e .LASF1896
C:\Users\CYMR90~1\AppData\Local\Temp\ccLNaGfc.s:21944  .debug_str:0000000000000967 .LASF1897
C:\Users\CYMR90~1\AppData\Local\Temp\ccLNaGfc.s:28603  .debug_str:000000000001b6ad .LASF1898
C:\Users\CYMR90~1\AppData\Local\Temp\ccLNaGfc.s:29697  .debug_str:000000000001fc25 .LASF1899
C:\Users\CYMR90~1\AppData\Local\Temp\ccLNaGfc.s:27557  .debug_str:000000000001729e .LASF1900
C:\Users\CYMR90~1\AppData\Local\Temp\ccLNaGfc.s:26306  .debug_str:000000000001204b .LASF1901
C:\Users\CYMR90~1\AppData\Local\Temp\ccLNaGfc.s:27655  .debug_str:000000000001783d .LASF1902
C:\Users\CYMR90~1\AppData\Local\Temp\ccLNaGfc.s:26806  .debug_str:0000000000014095 .LASF1903
C:\Users\CYMR90~1\AppData\Local\Temp\ccLNaGfc.s:22618  .debug_str:0000000000003508 .LASF1904
C:\Users\CYMR90~1\AppData\Local\Temp\ccLNaGfc.s:22848  .debug_str:0000000000004449 .LASF1905
C:\Users\CYMR90~1\AppData\Local\Temp\ccLNaGfc.s:24272  .debug_str:0000000000009f13 .LASF1906
C:\Users\CYMR90~1\AppData\Local\Temp\ccLNaGfc.s:29755  .debug_str:000000000001ff8f .LASF1907
C:\Users\CYMR90~1\AppData\Local\Temp\ccLNaGfc.s:31357  .debug_str:000000000002631e .LASF1908
C:\Users\CYMR90~1\AppData\Local\Temp\ccLNaGfc.s:25852  .debug_str:00000000000103be .LASF1909
C:\Users\CYMR90~1\AppData\Local\Temp\ccLNaGfc.s:24638  .debug_str:000000000000b615 .LASF1910
C:\Users\CYMR90~1\AppData\Local\Temp\ccLNaGfc.s:23424  .debug_str:00000000000067ee .LASF1911
C:\Users\CYMR90~1\AppData\Local\Temp\ccLNaGfc.s:22508  .debug_str:0000000000002de1 .LASF1912
C:\Users\CYMR90~1\AppData\Local\Temp\ccLNaGfc.s:24310  .debug_str:000000000000a13a .LASF1913
C:\Users\CYMR90~1\AppData\Local\Temp\ccLNaGfc.s:32849  .debug_str:000000000002c13f .LASF1914
C:\Users\CYMR90~1\AppData\Local\Temp\ccLNaGfc.s:27653  .debug_str:0000000000017819 .LASF1915
C:\Users\CYMR90~1\AppData\Local\Temp\ccLNaGfc.s:22610  .debug_str:000000000000346e .LASF1916
C:\Users\CYMR90~1\AppData\Local\Temp\ccLNaGfc.s:32127  .debug_str:000000000002944a .LASF1917
C:\Users\CYMR90~1\AppData\Local\Temp\ccLNaGfc.s:26342  .debug_str:00000000000122b3 .LASF1918
C:\Users\CYMR90~1\AppData\Local\Temp\ccLNaGfc.s:22630  .debug_str:00000000000035bf .LASF1919
C:\Users\CYMR90~1\AppData\Local\Temp\ccLNaGfc.s:25080  .debug_str:000000000000d35f .LASF1920
C:\Users\CYMR90~1\AppData\Local\Temp\ccLNaGfc.s:27605  .debug_str:0000000000017570 .LASF1921
C:\Users\CYMR90~1\AppData\Local\Temp\ccLNaGfc.s:29717  .debug_str:000000000001fd3a .LASF1922
C:\Users\CYMR90~1\AppData\Local\Temp\ccLNaGfc.s:32289  .debug_str:0000000000029ed0 .LASF1923
C:\Users\CYMR90~1\AppData\Local\Temp\ccLNaGfc.s:31691  .debug_str:0000000000027833 .LASF1924
C:\Users\CYMR90~1\AppData\Local\Temp\ccLNaGfc.s:26704  .debug_str:0000000000013a4f .LASF1925
C:\Users\CYMR90~1\AppData\Local\Temp\ccLNaGfc.s:28577  .debug_str:000000000001b4d9 .LASF1926
C:\Users\CYMR90~1\AppData\Local\Temp\ccLNaGfc.s:26886  .debug_str:0000000000014572 .LASF1927
C:\Users\CYMR90~1\AppData\Local\Temp\ccLNaGfc.s:30973  .debug_str:0000000000024939 .LASF1928
C:\Users\CYMR90~1\AppData\Local\Temp\ccLNaGfc.s:29657  .debug_str:000000000001f977 .LASF1929
C:\Users\CYMR90~1\AppData\Local\Temp\ccLNaGfc.s:22464  .debug_str:0000000000002af6 .LASF1930
C:\Users\CYMR90~1\AppData\Local\Temp\ccLNaGfc.s:30097  .debug_str:0000000000021407 .LASF1931
C:\Users\CYMR90~1\AppData\Local\Temp\ccLNaGfc.s:23876  .debug_str:00000000000085d6 .LASF1932
C:\Users\CYMR90~1\AppData\Local\Temp\ccLNaGfc.s:26748  .debug_str:0000000000013d11 .LASF1933
C:\Users\CYMR90~1\AppData\Local\Temp\ccLNaGfc.s:29387  .debug_str:000000000001e911 .LASF1934
C:\Users\CYMR90~1\AppData\Local\Temp\ccLNaGfc.s:26598  .debug_str:000000000001335d .LASF1935
C:\Users\CYMR90~1\AppData\Local\Temp\ccLNaGfc.s:27727  .debug_str:0000000000017d04 .LASF1936
C:\Users\CYMR90~1\AppData\Local\Temp\ccLNaGfc.s:31669  .debug_str:0000000000027619 .LASF1937
C:\Users\CYMR90~1\AppData\Local\Temp\ccLNaGfc.s:30205  .debug_str:0000000000021ac8 .LASF1938
C:\Users\CYMR90~1\AppData\Local\Temp\ccLNaGfc.s:26062  .debug_str:00000000000110a6 .LASF1939
C:\Users\CYMR90~1\AppData\Local\Temp\ccLNaGfc.s:30113  .debug_str:00000000000214e1 .LASF1940
C:\Users\CYMR90~1\AppData\Local\Temp\ccLNaGfc.s:27949  .debug_str:0000000000018a34 .LASF1941
C:\Users\CYMR90~1\AppData\Local\Temp\ccLNaGfc.s:29933  .debug_str:00000000000209c7 .LASF1942
C:\Users\CYMR90~1\AppData\Local\Temp\ccLNaGfc.s:26244  .debug_str:0000000000011c8b .LASF1943
C:\Users\CYMR90~1\AppData\Local\Temp\ccLNaGfc.s:22600  .debug_str:00000000000033d0 .LASF1944
C:\Users\CYMR90~1\AppData\Local\Temp\ccLNaGfc.s:22348  .debug_str:000000000000237d .LASF1945
C:\Users\CYMR90~1\AppData\Local\Temp\ccLNaGfc.s:28107  .debug_str:00000000000194df .LASF1946
C:\Users\CYMR90~1\AppData\Local\Temp\ccLNaGfc.s:32391  .debug_str:000000000002a4a4 .LASF1947
C:\Users\CYMR90~1\AppData\Local\Temp\ccLNaGfc.s:23878  .debug_str:00000000000085fb .LASF1948
C:\Users\CYMR90~1\AppData\Local\Temp\ccLNaGfc.s:30301  .debug_str:00000000000220d0 .LASF1949
C:\Users\CYMR90~1\AppData\Local\Temp\ccLNaGfc.s:26160  .debug_str:000000000001161a .LASF1950
C:\Users\CYMR90~1\AppData\Local\Temp\ccLNaGfc.s:25634  .debug_str:000000000000f5a1 .LASF1951
C:\Users\CYMR90~1\AppData\Local\Temp\ccLNaGfc.s:29673  .debug_str:000000000001faa9 .LASF1952
C:\Users\CYMR90~1\AppData\Local\Temp\ccLNaGfc.s:30231  .debug_str:0000000000021c69 .LASF1953
C:\Users\CYMR90~1\AppData\Local\Temp\ccLNaGfc.s:26440  .debug_str:0000000000012910 .LASF1954
C:\Users\CYMR90~1\AppData\Local\Temp\ccLNaGfc.s:22632  .debug_str:00000000000035e6 .LASF1955
C:\Users\CYMR90~1\AppData\Local\Temp\ccLNaGfc.s:21808  .debug_str:000000000000014f .LASF1956
C:\Users\CYMR90~1\AppData\Local\Temp\ccLNaGfc.s:25488  .debug_str:000000000000ecb4 .LASF1957
C:\Users\CYMR90~1\AppData\Local\Temp\ccLNaGfc.s:27661  .debug_str:0000000000017893 .LASF1958
C:\Users\CYMR90~1\AppData\Local\Temp\ccLNaGfc.s:32093  .debug_str:0000000000029224 .LASF1959
C:\Users\CYMR90~1\AppData\Local\Temp\ccLNaGfc.s:31693  .debug_str:000000000002785a .LASF1960
C:\Users\CYMR90~1\AppData\Local\Temp\ccLNaGfc.s:26706  .debug_str:0000000000013a76 .LASF1961
C:\Users\CYMR90~1\AppData\Local\Temp\ccLNaGfc.s:25250  .debug_str:000000000000de0c .LASF1962
C:\Users\CYMR90~1\AppData\Local\Temp\ccLNaGfc.s:23262  .debug_str:0000000000005e93 .LASF1963
C:\Users\CYMR90~1\AppData\Local\Temp\ccLNaGfc.s:27434  .debug_str:0000000000016886 .LASF1964
C:\Users\CYMR90~1\AppData\Local\Temp\ccLNaGfc.s:22154  .debug_str:000000000000175f .LASF1965
C:\Users\CYMR90~1\AppData\Local\Temp\ccLNaGfc.s:22708  .debug_str:0000000000003acc .LASF1966
C:\Users\CYMR90~1\AppData\Local\Temp\ccLNaGfc.s:31655  .debug_str:000000000002750e .LASF1967
C:\Users\CYMR90~1\AppData\Local\Temp\ccLNaGfc.s:26094  .debug_str:0000000000011265 .LASF1968
C:\Users\CYMR90~1\AppData\Local\Temp\ccLNaGfc.s:28011  .debug_str:0000000000018e64 .LASF1969
C:\Users\CYMR90~1\AppData\Local\Temp\ccLNaGfc.s:31455  .debug_str:0000000000026911 .LASF1970
C:\Users\CYMR90~1\AppData\Local\Temp\ccLNaGfc.s:24052  .debug_str:00000000000091b1 .LASF1971
C:\Users\CYMR90~1\AppData\Local\Temp\ccLNaGfc.s:32371  .debug_str:000000000002a36f .LASF1972
C:\Users\CYMR90~1\AppData\Local\Temp\ccLNaGfc.s:33087  .debug_str:000000000002d0e3 .LASF1973
C:\Users\CYMR90~1\AppData\Local\Temp\ccLNaGfc.s:22744  .debug_str:0000000000003d10 .LASF1974
C:\Users\CYMR90~1\AppData\Local\Temp\ccLNaGfc.s:30731  .debug_str:00000000000239cf .LASF1975
C:\Users\CYMR90~1\AppData\Local\Temp\ccLNaGfc.s:28091  .debug_str:0000000000019418 .LASF1976
C:\Users\CYMR90~1\AppData\Local\Temp\ccLNaGfc.s:25628  .debug_str:000000000000f54a .LASF1977
C:\Users\CYMR90~1\AppData\Local\Temp\ccLNaGfc.s:23912  .debug_str:00000000000087e2 .LASF1978
C:\Users\CYMR90~1\AppData\Local\Temp\ccLNaGfc.s:29213  .debug_str:000000000001de58 .LASF1979
C:\Users\CYMR90~1\AppData\Local\Temp\ccLNaGfc.s:27380  .debug_str:00000000000164d8 .LASF1980
C:\Users\CYMR90~1\AppData\Local\Temp\ccLNaGfc.s:25404  .debug_str:000000000000e744 .LASF1981
C:\Users\CYMR90~1\AppData\Local\Temp\ccLNaGfc.s:25542  .debug_str:000000000000f000 .LASF1982
C:\Users\CYMR90~1\AppData\Local\Temp\ccLNaGfc.s:29677  .debug_str:000000000001fae0 .LASF1983
C:\Users\CYMR90~1\AppData\Local\Temp\ccLNaGfc.s:27322  .debug_str:000000000001610e .LASF1984
C:\Users\CYMR90~1\AppData\Local\Temp\ccLNaGfc.s:26300  .debug_str:0000000000012009 .LASF1985
C:\Users\CYMR90~1\AppData\Local\Temp\ccLNaGfc.s:29457  .debug_str:000000000001ed81 .LASF1986
C:\Users\CYMR90~1\AppData\Local\Temp\ccLNaGfc.s:24640  .debug_str:000000000000b624 .LASF1987
C:\Users\CYMR90~1\AppData\Local\Temp\ccLNaGfc.s:25616  .debug_str:000000000000f463 .LASF1988
C:\Users\CYMR90~1\AppData\Local\Temp\ccLNaGfc.s:25262  .debug_str:000000000000dedf .LASF1989
C:\Users\CYMR90~1\AppData\Local\Temp\ccLNaGfc.s:23754  .debug_str:0000000000007d01 .LASF1990
C:\Users\CYMR90~1\AppData\Local\Temp\ccLNaGfc.s:24846  .debug_str:000000000000c491 .LASF1991
C:\Users\CYMR90~1\AppData\Local\Temp\ccLNaGfc.s:25430  .debug_str:000000000000e915 .LASF1992
C:\Users\CYMR90~1\AppData\Local\Temp\ccLNaGfc.s:27354  .debug_str:0000000000016355 .LASF1993
C:\Users\CYMR90~1\AppData\Local\Temp\ccLNaGfc.s:22870  .debug_str:0000000000004562 .LASF1994
C:\Users\CYMR90~1\AppData\Local\Temp\ccLNaGfc.s:25720  .debug_str:000000000000fb51 .LASF1995
C:\Users\CYMR90~1\AppData\Local\Temp\ccLNaGfc.s:32637  .debug_str:000000000002b364 .LASF1996
C:\Users\CYMR90~1\AppData\Local\Temp\ccLNaGfc.s:29467  .debug_str:000000000001ee21 .LASF1997
C:\Users\CYMR90~1\AppData\Local\Temp\ccLNaGfc.s:24256  .debug_str:0000000000009e41 .LASF1998
C:\Users\CYMR90~1\AppData\Local\Temp\ccLNaGfc.s:28427  .debug_str:000000000001ab16 .LASF1999
C:\Users\CYMR90~1\AppData\Local\Temp\ccLNaGfc.s:22806  .debug_str:00000000000040b3 .LASF2000
C:\Users\CYMR90~1\AppData\Local\Temp\ccLNaGfc.s:24356  .debug_str:000000000000a427 .LASF2001
C:\Users\CYMR90~1\AppData\Local\Temp\ccLNaGfc.s:29553  .debug_str:000000000001f312 .LASF2002
C:\Users\CYMR90~1\AppData\Local\Temp\ccLNaGfc.s:22722  .debug_str:0000000000003b90 .LASF2003
C:\Users\CYMR90~1\AppData\Local\Temp\ccLNaGfc.s:26190  .debug_str:000000000001180b .LASF2004
C:\Users\CYMR90~1\AppData\Local\Temp\ccLNaGfc.s:22486  .debug_str:0000000000002c79 .LASF2005
C:\Users\CYMR90~1\AppData\Local\Temp\ccLNaGfc.s:23702  .debug_str:00000000000079ae .LASF2006
C:\Users\CYMR90~1\AppData\Local\Temp\ccLNaGfc.s:27052  .debug_str:0000000000015012 .LASF2007
C:\Users\CYMR90~1\AppData\Local\Temp\ccLNaGfc.s:23978  .debug_str:0000000000008ca8 .LASF2008
C:\Users\CYMR90~1\AppData\Local\Temp\ccLNaGfc.s:29927  .debug_str:000000000002097e .LASF2009
C:\Users\CYMR90~1\AppData\Local\Temp\ccLNaGfc.s:24500  .debug_str:000000000000ad23 .LASF2010
C:\Users\CYMR90~1\AppData\Local\Temp\ccLNaGfc.s:30447  .debug_str:0000000000022940 .LASF2011
C:\Users\CYMR90~1\AppData\Local\Temp\ccLNaGfc.s:29759  .debug_str:000000000001ffcc .LASF2012
C:\Users\CYMR90~1\AppData\Local\Temp\ccLNaGfc.s:30941  .debug_str:00000000000246f4 .LASF2013
C:\Users\CYMR90~1\AppData\Local\Temp\ccLNaGfc.s:31527  .debug_str:0000000000026d8d .LASF2014
C:\Users\CYMR90~1\AppData\Local\Temp\ccLNaGfc.s:31361  .debug_str:0000000000026351 .LASF2015
C:\Users\CYMR90~1\AppData\Local\Temp\ccLNaGfc.s:30993  .debug_str:0000000000024a37 .LASF2016
C:\Users\CYMR90~1\AppData\Local\Temp\ccLNaGfc.s:30059  .debug_str:00000000000211d2 .LASF2017
C:\Users\CYMR90~1\AppData\Local\Temp\ccLNaGfc.s:25898  .debug_str:0000000000010686 .LASF2018
C:\Users\CYMR90~1\AppData\Local\Temp\ccLNaGfc.s:28057  .debug_str:0000000000019117 .LASF2019
C:\Users\CYMR90~1\AppData\Local\Temp\ccLNaGfc.s:29905  .debug_str:0000000000020828 .LASF2020
C:\Users\CYMR90~1\AppData\Local\Temp\ccLNaGfc.s:24772  .debug_str:000000000000bfaf .LASF2021
C:\Users\CYMR90~1\AppData\Local\Temp\ccLNaGfc.s:23484  .debug_str:0000000000006bc4 .LASF2022
C:\Users\CYMR90~1\AppData\Local\Temp\ccLNaGfc.s:30727  .debug_str:000000000002398f .LASF2023
C:\Users\CYMR90~1\AppData\Local\Temp\ccLNaGfc.s:32901  .debug_str:000000000002c4f3 .LASF2024
C:\Users\CYMR90~1\AppData\Local\Temp\ccLNaGfc.s:26794  .debug_str:0000000000013fc3 .LASF2025
C:\Users\CYMR90~1\AppData\Local\Temp\ccLNaGfc.s:24456  .debug_str:000000000000aa70 .LASF2026
C:\Users\CYMR90~1\AppData\Local\Temp\ccLNaGfc.s:28679  .debug_str:000000000001bb63 .LASF2027
C:\Users\CYMR90~1\AppData\Local\Temp\ccLNaGfc.s:27981  .debug_str:0000000000018c6b .LASF2028
C:\Users\CYMR90~1\AppData\Local\Temp\ccLNaGfc.s:32669  .debug_str:000000000002b526 .LASF2029
C:\Users\CYMR90~1\AppData\Local\Temp\ccLNaGfc.s:29235  .debug_str:000000000001df78 .LASF2030
C:\Users\CYMR90~1\AppData\Local\Temp\ccLNaGfc.s:28071  .debug_str:00000000000191dc .LASF2031
C:\Users\CYMR90~1\AppData\Local\Temp\ccLNaGfc.s:26476  .debug_str:0000000000012b6b .LASF2032
C:\Users\CYMR90~1\AppData\Local\Temp\ccLNaGfc.s:28719  .debug_str:000000000001bd75 .LASF2033
C:\Users\CYMR90~1\AppData\Local\Temp\ccLNaGfc.s:23418  .debug_str:0000000000006796 .LASF2034
C:\Users\CYMR90~1\AppData\Local\Temp\ccLNaGfc.s:21830  .debug_str:000000000000028a .LASF2035
C:\Users\CYMR90~1\AppData\Local\Temp\ccLNaGfc.s:22944  .debug_str:0000000000004a65 .LASF2036
C:\Users\CYMR90~1\AppData\Local\Temp\ccLNaGfc.s:28251  .debug_str:0000000000019e6e .LASF2037
C:\Users\CYMR90~1\AppData\Local\Temp\ccLNaGfc.s:27527  .debug_str:00000000000170b2 .LASF2038
C:\Users\CYMR90~1\AppData\Local\Temp\ccLNaGfc.s:29293  .debug_str:000000000001e38d .LASF2039
C:\Users\CYMR90~1\AppData\Local\Temp\ccLNaGfc.s:22912  .debug_str:000000000000483a .LASF2040
C:\Users\CYMR90~1\AppData\Local\Temp\ccLNaGfc.s:29527  .debug_str:000000000001f189 .LASF2041
C:\Users\CYMR90~1\AppData\Local\Temp\ccLNaGfc.s:23758  .debug_str:0000000000007d37 .LASF2042
C:\Users\CYMR90~1\AppData\Local\Temp\ccLNaGfc.s:28239  .debug_str:0000000000019daa .LASF2043
C:\Users\CYMR90~1\AppData\Local\Temp\ccLNaGfc.s:24942  .debug_str:000000000000cabd .LASF2044
C:\Users\CYMR90~1\AppData\Local\Temp\ccLNaGfc.s:23148  .debug_str:00000000000057aa .LASF2045
C:\Users\CYMR90~1\AppData\Local\Temp\ccLNaGfc.s:32855  .debug_str:000000000002c19c .LASF2046
C:\Users\CYMR90~1\AppData\Local\Temp\ccLNaGfc.s:25408  .debug_str:000000000000e77f .LASF2047
C:\Users\CYMR90~1\AppData\Local\Temp\ccLNaGfc.s:30183  .debug_str:000000000002197a .LASF2048
C:\Users\CYMR90~1\AppData\Local\Temp\ccLNaGfc.s:29191  .debug_str:000000000001dcee .LASF2049
C:\Users\CYMR90~1\AppData\Local\Temp\ccLNaGfc.s:29117  .debug_str:000000000001d809 .LASF2050
C:\Users\CYMR90~1\AppData\Local\Temp\ccLNaGfc.s:22272  .debug_str:0000000000001f22 .LASF2051
C:\Users\CYMR90~1\AppData\Local\Temp\ccLNaGfc.s:30199  .debug_str:0000000000021a74 .LASF2052
C:\Users\CYMR90~1\AppData\Local\Temp\ccLNaGfc.s:31731  .debug_str:0000000000027a74 .LASF2053
C:\Users\CYMR90~1\AppData\Local\Temp\ccLNaGfc.s:26324  .debug_str:000000000001214f .LASF2054
C:\Users\CYMR90~1\AppData\Local\Temp\ccLNaGfc.s:27537  .debug_str:000000000001714e .LASF2055
C:\Users\CYMR90~1\AppData\Local\Temp\ccLNaGfc.s:24448  .debug_str:000000000000a9a5 .LASF2056
C:\Users\CYMR90~1\AppData\Local\Temp\ccLNaGfc.s:27114  .debug_str:0000000000015434 .LASF2057
C:\Users\CYMR90~1\AppData\Local\Temp\ccLNaGfc.s:22634  .debug_str:000000000000360d .LASF2058
C:\Users\CYMR90~1\AppData\Local\Temp\ccLNaGfc.s:29547  .debug_str:000000000001f2b8 .LASF2059
C:\Users\CYMR90~1\AppData\Local\Temp\ccLNaGfc.s:28657  .debug_str:000000000001b9fb .LASF2060
C:\Users\CYMR90~1\AppData\Local\Temp\ccLNaGfc.s:27701  .debug_str:0000000000017b23 .LASF2061
C:\Users\CYMR90~1\AppData\Local\Temp\ccLNaGfc.s:30947  .debug_str:000000000002475d .LASF2062
C:\Users\CYMR90~1\AppData\Local\Temp\ccLNaGfc.s:26482  .debug_str:0000000000012bc8 .LASF2063
C:\Users\CYMR90~1\AppData\Local\Temp\ccLNaGfc.s:25210  .debug_str:000000000000dbd6 .LASF2064
C:\Users\CYMR90~1\AppData\Local\Temp\ccLNaGfc.s:23964  .debug_str:0000000000008bc9 .LASF2065
C:\Users\CYMR90~1\AppData\Local\Temp\ccLNaGfc.s:25878  .debug_str:000000000001055e .LASF2066
C:\Users\CYMR90~1\AppData\Local\Temp\ccLNaGfc.s:28927  .debug_str:000000000001ca64 .LASF2067
C:\Users\CYMR90~1\AppData\Local\Temp\ccLNaGfc.s:26182  .debug_str:000000000001178f .LASF2068
C:\Users\CYMR90~1\AppData\Local\Temp\ccLNaGfc.s:26400  .debug_str:0000000000012664 .LASF2069
C:\Users\CYMR90~1\AppData\Local\Temp\ccLNaGfc.s:26080  .debug_str:000000000001118e .LASF2070
C:\Users\CYMR90~1\AppData\Local\Temp\ccLNaGfc.s:27160  .debug_str:00000000000156e8 .LASF2071
C:\Users\CYMR90~1\AppData\Local\Temp\ccLNaGfc.s:22330  .debug_str:000000000000227b .LASF2072
C:\Users\CYMR90~1\AppData\Local\Temp\ccLNaGfc.s:25452  .debug_str:000000000000ea40 .LASF2073
C:\Users\CYMR90~1\AppData\Local\Temp\ccLNaGfc.s:29315  .debug_str:000000000001e4e0 .LASF2074
C:\Users\CYMR90~1\AppData\Local\Temp\ccLNaGfc.s:28341  .debug_str:000000000001a3b0 .LASF2075
C:\Users\CYMR90~1\AppData\Local\Temp\ccLNaGfc.s:25298  .debug_str:000000000000e107 .LASF2076
C:\Users\CYMR90~1\AppData\Local\Temp\ccLNaGfc.s:24652  .debug_str:000000000000b758 .LASF2077
C:\Users\CYMR90~1\AppData\Local\Temp\ccLNaGfc.s:27709  .debug_str:0000000000017bdd .LASF2078
C:\Users\CYMR90~1\AppData\Local\Temp\ccLNaGfc.s:32589  .debug_str:000000000002b069 .LASF2079
C:\Users\CYMR90~1\AppData\Local\Temp\ccLNaGfc.s:22964  .debug_str:0000000000004c27 .LASF2080
C:\Users\CYMR90~1\AppData\Local\Temp\ccLNaGfc.s:28803  .debug_str:000000000001c302 .LASF2081
C:\Users\CYMR90~1\AppData\Local\Temp\ccLNaGfc.s:29215  .debug_str:000000000001de70 .LASF2082
C:\Users\CYMR90~1\AppData\Local\Temp\ccLNaGfc.s:27008  .debug_str:0000000000014d37 .LASF2083
C:\Users\CYMR90~1\AppData\Local\Temp\ccLNaGfc.s:31935  .debug_str:000000000002887f .LASF2084
C:\Users\CYMR90~1\AppData\Local\Temp\ccLNaGfc.s:28551  .debug_str:000000000001b317 .LASF2085
C:\Users\CYMR90~1\AppData\Local\Temp\ccLNaGfc.s:25216  .debug_str:000000000000dc41 .LASF2086
C:\Users\CYMR90~1\AppData\Local\Temp\ccLNaGfc.s:22738  .debug_str:0000000000003caa .LASF2087
C:\Users\CYMR90~1\AppData\Local\Temp\ccLNaGfc.s:22002  .debug_str:0000000000000d5c .LASF2088
C:\Users\CYMR90~1\AppData\Local\Temp\ccLNaGfc.s:31791  .debug_str:0000000000027e07 .LASF2089
C:\Users\CYMR90~1\AppData\Local\Temp\ccLNaGfc.s:30187  .debug_str:00000000000219b8 .LASF2090
C:\Users\CYMR90~1\AppData\Local\Temp\ccLNaGfc.s:23152  .debug_str:00000000000057de .LASF2091
C:\Users\CYMR90~1\AppData\Local\Temp\ccLNaGfc.s:28273  .debug_str:0000000000019fce .LASF2092
C:\Users\CYMR90~1\AppData\Local\Temp\ccLNaGfc.s:27593  .debug_str:00000000000174b9 .LASF2093
C:\Users\CYMR90~1\AppData\Local\Temp\ccLNaGfc.s:28987  .debug_str:000000000001ceb5 .LASF2094
C:\Users\CYMR90~1\AppData\Local\Temp\ccLNaGfc.s:28509  .debug_str:000000000001b037 .LASF2095
C:\Users\CYMR90~1\AppData\Local\Temp\ccLNaGfc.s:31713  .debug_str:0000000000027980 .LASF2096
C:\Users\CYMR90~1\AppData\Local\Temp\ccLNaGfc.s:26084  .debug_str:00000000000111c2 .LASF2097
C:\Users\CYMR90~1\AppData\Local\Temp\ccLNaGfc.s:30341  .debug_str:000000000002234f .LASF2098
C:\Users\CYMR90~1\AppData\Local\Temp\ccLNaGfc.s:32257  .debug_str:0000000000029cf0 .LASF2099
C:\Users\CYMR90~1\AppData\Local\Temp\ccLNaGfc.s:26292  .debug_str:0000000000011f5e .LASF2100
C:\Users\CYMR90~1\AppData\Local\Temp\ccLNaGfc.s:32719  .debug_str:000000000002b8b0 .LASF2101
C:\Users\CYMR90~1\AppData\Local\Temp\ccLNaGfc.s:29407  .debug_str:000000000001ea5b .LASF2102
C:\Users\CYMR90~1\AppData\Local\Temp\ccLNaGfc.s:23046  .debug_str:0000000000005137 .LASF2103
C:\Users\CYMR90~1\AppData\Local\Temp\ccLNaGfc.s:32117  .debug_str:0000000000029388 .LASF2104
C:\Users\CYMR90~1\AppData\Local\Temp\ccLNaGfc.s:32683  .debug_str:000000000002b635 .LASF2105
C:\Users\CYMR90~1\AppData\Local\Temp\ccLNaGfc.s:25280  .debug_str:000000000000e017 .LASF2106
C:\Users\CYMR90~1\AppData\Local\Temp\ccLNaGfc.s:25254  .debug_str:000000000000de42 .LASF2107
C:\Users\CYMR90~1\AppData\Local\Temp\ccLNaGfc.s:28723  .debug_str:000000000001bdc6 .LASF2108
C:\Users\CYMR90~1\AppData\Local\Temp\ccLNaGfc.s:26804  .debug_str:000000000001406a .LASF2109
C:\Users\CYMR90~1\AppData\Local\Temp\ccLNaGfc.s:31949  .debug_str:000000000002895e .LASF2110
C:\Users\CYMR90~1\AppData\Local\Temp\ccLNaGfc.s:25602  .debug_str:000000000000f383 .LASF2111
C:\Users\CYMR90~1\AppData\Local\Temp\ccLNaGfc.s:28753  .debug_str:000000000001bfbc .LASF2112
C:\Users\CYMR90~1\AppData\Local\Temp\ccLNaGfc.s:31079  .debug_str:0000000000025074 .LASF2113
C:\Users\CYMR90~1\AppData\Local\Temp\ccLNaGfc.s:25208  .debug_str:000000000000dbaf .LASF2114
C:\Users\CYMR90~1\AppData\Local\Temp\ccLNaGfc.s:30235  .debug_str:0000000000021ca4 .LASF2115
C:\Users\CYMR90~1\AppData\Local\Temp\ccLNaGfc.s:22084  .debug_str:000000000000129f .LASF2116
C:\Users\CYMR90~1\AppData\Local\Temp\ccLNaGfc.s:28451  .debug_str:000000000001ac70 .LASF2117
C:\Users\CYMR90~1\AppData\Local\Temp\ccLNaGfc.s:28947  .debug_str:000000000001cc41 .LASF2118
C:\Users\CYMR90~1\AppData\Local\Temp\ccLNaGfc.s:22578  .debug_str:000000000000326a .LASF2119
C:\Users\CYMR90~1\AppData\Local\Temp\ccLNaGfc.s:31375  .debug_str:0000000000026458 .LASF2120
C:\Users\CYMR90~1\AppData\Local\Temp\ccLNaGfc.s:32193  .debug_str:00000000000298b2 .LASF2121
C:\Users\CYMR90~1\AppData\Local\Temp\ccLNaGfc.s:26840  .debug_str:000000000001429b .LASF2122
C:\Users\CYMR90~1\AppData\Local\Temp\ccLNaGfc.s:31901  .debug_str:00000000000285be .LASF2123
C:\Users\CYMR90~1\AppData\Local\Temp\ccLNaGfc.s:23662  .debug_str:0000000000007720 .LASF2124
C:\Users\CYMR90~1\AppData\Local\Temp\ccLNaGfc.s:30013  .debug_str:0000000000020f13 .LASF2125
C:\Users\CYMR90~1\AppData\Local\Temp\ccLNaGfc.s:23724  .debug_str:0000000000007b0a .LASF2126
C:\Users\CYMR90~1\AppData\Local\Temp\ccLNaGfc.s:28767  .debug_str:000000000001c091 .LASF2127
C:\Users\CYMR90~1\AppData\Local\Temp\ccLNaGfc.s:31945  .debug_str:000000000002891d .LASF2128
C:\Users\CYMR90~1\AppData\Local\Temp\ccLNaGfc.s:26956  .debug_str:00000000000149d8 .LASF2129
C:\Users\CYMR90~1\AppData\Local\Temp\ccLNaGfc.s:22976  .debug_str:0000000000004ce3 .LASF2130
C:\Users\CYMR90~1\AppData\Local\Temp\ccLNaGfc.s:22500  .debug_str:0000000000002d85 .LASF2131
C:\Users\CYMR90~1\AppData\Local\Temp\ccLNaGfc.s:33173  .debug_str:000000000002d69b .LASF2132
C:\Users\CYMR90~1\AppData\Local\Temp\ccLNaGfc.s:23344  .debug_str:0000000000006342 .LASF2133
C:\Users\CYMR90~1\AppData\Local\Temp\ccLNaGfc.s:26966  .debug_str:0000000000014ab2 .LASF2134
C:\Users\CYMR90~1\AppData\Local\Temp\ccLNaGfc.s:32747  .debug_str:000000000002ba67 .LASF2135
C:\Users\CYMR90~1\AppData\Local\Temp\ccLNaGfc.s:24426  .debug_str:000000000000a8a4 .LASF2136
C:\Users\CYMR90~1\AppData\Local\Temp\ccLNaGfc.s:27941  .debug_str:00000000000189ab .LASF2137
C:\Users\CYMR90~1\AppData\Local\Temp\ccLNaGfc.s:22366  .debug_str:000000000000249b .LASF2138
C:\Users\CYMR90~1\AppData\Local\Temp\ccLNaGfc.s:26878  .debug_str:0000000000014508 .LASF2139
C:\Users\CYMR90~1\AppData\Local\Temp\ccLNaGfc.s:25980  .debug_str:0000000000010b66 .LASF2140
C:\Users\CYMR90~1\AppData\Local\Temp\ccLNaGfc.s:24874  .debug_str:000000000000c629 .LASF2141
C:\Users\CYMR90~1\AppData\Local\Temp\ccLNaGfc.s:25920  .debug_str:00000000000107d1 .LASF2142
C:\Users\CYMR90~1\AppData\Local\Temp\ccLNaGfc.s:30141  .debug_str:0000000000021679 .LASF2143
C:\Users\CYMR90~1\AppData\Local\Temp\ccLNaGfc.s:31549  .debug_str:0000000000026eea .LASF2144
C:\Users\CYMR90~1\AppData\Local\Temp\ccLNaGfc.s:25934  .debug_str:00000000000108a3 .LASF2145
C:\Users\CYMR90~1\AppData\Local\Temp\ccLNaGfc.s:26334  .debug_str:0000000000012229 .LASF2146
C:\Users\CYMR90~1\AppData\Local\Temp\ccLNaGfc.s:25384  .debug_str:000000000000e611 .LASF2147
C:\Users\CYMR90~1\AppData\Local\Temp\ccLNaGfc.s:23356  .debug_str:0000000000006411 .LASF2148
C:\Users\CYMR90~1\AppData\Local\Temp\ccLNaGfc.s:22410  .debug_str:0000000000002713 .LASF2149
C:\Users\CYMR90~1\AppData\Local\Temp\ccLNaGfc.s:29177  .debug_str:000000000001dc0f .LASF2150
C:\Users\CYMR90~1\AppData\Local\Temp\ccLNaGfc.s:31429  .debug_str:000000000002678b .LASF2151
C:\Users\CYMR90~1\AppData\Local\Temp\ccLNaGfc.s:29791  .debug_str:00000000000201c5 .LASF2152
C:\Users\CYMR90~1\AppData\Local\Temp\ccLNaGfc.s:29807  .debug_str:000000000002029d .LASF2153
C:\Users\CYMR90~1\AppData\Local\Temp\ccLNaGfc.s:30985  .debug_str:00000000000249da .LASF2154
C:\Users\CYMR90~1\AppData\Local\Temp\ccLNaGfc.s:31657  .debug_str:0000000000027524 .LASF2155
C:\Users\CYMR90~1\AppData\Local\Temp\ccLNaGfc.s:28873  .debug_str:000000000001c774 .LASF2156
C:\Users\CYMR90~1\AppData\Local\Temp\ccLNaGfc.s:29043  .debug_str:000000000001d315 .LASF2157
C:\Users\CYMR90~1\AppData\Local\Temp\ccLNaGfc.s:23934  .debug_str:000000000000892f .LASF2158
C:\Users\CYMR90~1\AppData\Local\Temp\ccLNaGfc.s:26690  .debug_str:0000000000013992 .LASF2159
C:\Users\CYMR90~1\AppData\Local\Temp\ccLNaGfc.s:30285  .debug_str:0000000000021f9e .LASF2160
C:\Users\CYMR90~1\AppData\Local\Temp\ccLNaGfc.s:32553  .debug_str:000000000002ae38 .LASF2161
C:\Users\CYMR90~1\AppData\Local\Temp\ccLNaGfc.s:31065  .debug_str:0000000000024f85 .LASF2162
C:\Users\CYMR90~1\AppData\Local\Temp\ccLNaGfc.s:23510  .debug_str:0000000000006d3e .LASF2163
C:\Users\CYMR90~1\AppData\Local\Temp\ccLNaGfc.s:25834  .debug_str:000000000001026c .LASF2164
C:\Users\CYMR90~1\AppData\Local\Temp\ccLNaGfc.s:23456  .debug_str:00000000000069d2 .LASF2165
C:\Users\CYMR90~1\AppData\Local\Temp\ccLNaGfc.s:32967  .debug_str:000000000002c981 .LASF2166
C:\Users\CYMR90~1\AppData\Local\Temp\ccLNaGfc.s:32377  .debug_str:000000000002a3ae .LASF2167
C:\Users\CYMR90~1\AppData\Local\Temp\ccLNaGfc.s:25128  .debug_str:000000000000d719 .LASF2168
C:\Users\CYMR90~1\AppData\Local\Temp\ccLNaGfc.s:24170  .debug_str:00000000000098a6 .LASF2169
C:\Users\CYMR90~1\AppData\Local\Temp\ccLNaGfc.s:22728  .debug_str:0000000000003c19 .LASF2170
C:\Users\CYMR90~1\AppData\Local\Temp\ccLNaGfc.s:25846  .debug_str:000000000001034d .LASF2171
C:\Users\CYMR90~1\AppData\Local\Temp\ccLNaGfc.s:24612  .debug_str:000000000000b4b6 .LASF2172
C:\Users\CYMR90~1\AppData\Local\Temp\ccLNaGfc.s:23386  .debug_str:00000000000065b3 .LASF2173
C:\Users\CYMR90~1\AppData\Local\Temp\ccLNaGfc.s:30851  .debug_str:0000000000024157 .LASF2174
C:\Users\CYMR90~1\AppData\Local\Temp\ccLNaGfc.s:30021  .debug_str:0000000000020f8e .LASF2175
C:\Users\CYMR90~1\AppData\Local\Temp\ccLNaGfc.s:26394  .debug_str:00000000000125fc .LASF2176
C:\Users\CYMR90~1\AppData\Local\Temp\ccLNaGfc.s:24716  .debug_str:000000000000bbd5 .LASF2177
C:\Users\CYMR90~1\AppData\Local\Temp\ccLNaGfc.s:31727  .debug_str:0000000000027a47 .LASF2178
C:\Users\CYMR90~1\AppData\Local\Temp\ccLNaGfc.s:24154  .debug_str:0000000000009767 .LASF2179
C:\Users\CYMR90~1\AppData\Local\Temp\ccLNaGfc.s:25484  .debug_str:000000000000ec5d .LASF2180
C:\Users\CYMR90~1\AppData\Local\Temp\ccLNaGfc.s:23520  .debug_str:0000000000006dfb .LASF2181
C:\Users\CYMR90~1\AppData\Local\Temp\ccLNaGfc.s:25894  .debug_str:000000000001064d .LASF2182
C:\Users\CYMR90~1\AppData\Local\Temp\ccLNaGfc.s:32835  .debug_str:000000000002c062 .LASF2183
C:\Users\CYMR90~1\AppData\Local\Temp\ccLNaGfc.s:31501  .debug_str:0000000000026c10 .LASF2184
C:\Users\CYMR90~1\AppData\Local\Temp\ccLNaGfc.s:21938  .debug_str:0000000000000913 .LASF2185
C:\Users\CYMR90~1\AppData\Local\Temp\ccLNaGfc.s:26296  .debug_str:0000000000011fb3 .LASF2186
C:\Users\CYMR90~1\AppData\Local\Temp\ccLNaGfc.s:29489  .debug_str:000000000001ef66 .LASF2187
C:\Users\CYMR90~1\AppData\Local\Temp\ccLNaGfc.s:32779  .debug_str:000000000002bcda .LASF2188
C:\Users\CYMR90~1\AppData\Local\Temp\ccLNaGfc.s:24614  .debug_str:000000000000b4db .LASF2189
C:\Users\CYMR90~1\AppData\Local\Temp\ccLNaGfc.s:23562  .debug_str:00000000000070cd .LASF2190
C:\Users\CYMR90~1\AppData\Local\Temp\ccLNaGfc.s:31057  .debug_str:0000000000024f02 .LASF2191
C:\Users\CYMR90~1\AppData\Local\Temp\ccLNaGfc.s:30813  .debug_str:0000000000023f3a .LASF2192
C:\Users\CYMR90~1\AppData\Local\Temp\ccLNaGfc.s:26072  .debug_str:0000000000011148 .LASF2193
C:\Users\CYMR90~1\AppData\Local\Temp\ccLNaGfc.s:29255  .debug_str:000000000001e0c0 .LASF2194
C:\Users\CYMR90~1\AppData\Local\Temp\ccLNaGfc.s:32523  .debug_str:000000000002ac8f .LASF2195
C:\Users\CYMR90~1\AppData\Local\Temp\ccLNaGfc.s:22248  .debug_str:0000000000001dbc .LASF2196
C:\Users\CYMR90~1\AppData\Local\Temp\ccLNaGfc.s:26978  .debug_str:0000000000014b5e .LASF2197
C:\Users\CYMR90~1\AppData\Local\Temp\ccLNaGfc.s:31729  .debug_str:0000000000027a59 .LASF2198
C:\Users\CYMR90~1\AppData\Local\Temp\ccLNaGfc.s:28615  .debug_str:000000000001b760 .LASF2199
C:\Users\CYMR90~1\AppData\Local\Temp\ccLNaGfc.s:29799  .debug_str:000000000002023d .LASF2200
C:\Users\CYMR90~1\AppData\Local\Temp\ccLNaGfc.s:23120  .debug_str:00000000000055c5 .LASF2201
C:\Users\CYMR90~1\AppData\Local\Temp\ccLNaGfc.s:27867  .debug_str:000000000001855c .LASF2202
C:\Users\CYMR90~1\AppData\Local\Temp\ccLNaGfc.s:32623  .debug_str:000000000002b28a .LASF2203
C:\Users\CYMR90~1\AppData\Local\Temp\ccLNaGfc.s:28729  .debug_str:000000000001be28 .LASF2204
C:\Users\CYMR90~1\AppData\Local\Temp\ccLNaGfc.s:31785  .debug_str:0000000000027da2 .LASF2205
C:\Users\CYMR90~1\AppData\Local\Temp\ccLNaGfc.s:25138  .debug_str:000000000000d7b7 .LASF2206
C:\Users\CYMR90~1\AppData\Local\Temp\ccLNaGfc.s:29855  .debug_str:000000000002058a .LASF2207
C:\Users\CYMR90~1\AppData\Local\Temp\ccLNaGfc.s:23176  .debug_str:0000000000005920 .LASF2208
C:\Users\CYMR90~1\AppData\Local\Temp\ccLNaGfc.s:27919  .debug_str:000000000001888a .LASF2209
C:\Users\CYMR90~1\AppData\Local\Temp\ccLNaGfc.s:32679  .debug_str:000000000002b604 .LASF2210
C:\Users\CYMR90~1\AppData\Local\Temp\ccLNaGfc.s:32557  .debug_str:000000000002ae70 .LASF2211
C:\Users\CYMR90~1\AppData\Local\Temp\ccLNaGfc.s:24400  .debug_str:000000000000a721 .LASF2212
C:\Users\CYMR90~1\AppData\Local\Temp\ccLNaGfc.s:27609  .debug_str:00000000000175b5 .LASF2213
C:\Users\CYMR90~1\AppData\Local\Temp\ccLNaGfc.s:30855  .debug_str:0000000000024188 .LASF2214
C:\Users\CYMR90~1\AppData\Local\Temp\ccLNaGfc.s:22762  .debug_str:0000000000003e0a .LASF2215
C:\Users\CYMR90~1\AppData\Local\Temp\ccLNaGfc.s:25944  .debug_str:0000000000010971 .LASF2216
C:\Users\CYMR90~1\AppData\Local\Temp\ccLNaGfc.s:29147  .debug_str:000000000001da1b .LASF2217
C:\Users\CYMR90~1\AppData\Local\Temp\ccLNaGfc.s:32403  .debug_str:000000000002a546 .LASF2218
C:\Users\CYMR90~1\AppData\Local\Temp\ccLNaGfc.s:26736  .debug_str:0000000000013c48 .LASF2219
C:\Users\CYMR90~1\AppData\Local\Temp\ccLNaGfc.s:25118  .debug_str:000000000000d672 .LASF2220
C:\Users\CYMR90~1\AppData\Local\Temp\ccLNaGfc.s:28499  .debug_str:000000000001af94 .LASF2221
C:\Users\CYMR90~1\AppData\Local\Temp\ccLNaGfc.s:21824  .debug_str:0000000000000234 .LASF2222
C:\Users\CYMR90~1\AppData\Local\Temp\ccLNaGfc.s:30493  .debug_str:0000000000022bdc .LASF2223
C:\Users\CYMR90~1\AppData\Local\Temp\ccLNaGfc.s:31275  .debug_str:0000000000025e2d .LASF2224
C:\Users\CYMR90~1\AppData\Local\Temp\ccLNaGfc.s:24648  .debug_str:000000000000b6a2 .LASF2225
C:\Users\CYMR90~1\AppData\Local\Temp\ccLNaGfc.s:29331  .debug_str:000000000001e5d3 .LASF2226
C:\Users\CYMR90~1\AppData\Local\Temp\ccLNaGfc.s:24970  .debug_str:000000000000cccb .LASF2227
C:\Users\CYMR90~1\AppData\Local\Temp\ccLNaGfc.s:27398  .debug_str:00000000000165cc .LASF2228
C:\Users\CYMR90~1\AppData\Local\Temp\ccLNaGfc.s:29549  .debug_str:000000000001f2e7 .LASF2229
C:\Users\CYMR90~1\AppData\Local\Temp\ccLNaGfc.s:26604  .debug_str:00000000000133bd .LASF2230
C:\Users\CYMR90~1\AppData\Local\Temp\ccLNaGfc.s:31329  .debug_str:000000000002617d .LASF2231
C:\Users\CYMR90~1\AppData\Local\Temp\ccLNaGfc.s:30905  .debug_str:0000000000024430 .LASF2232
C:\Users\CYMR90~1\AppData\Local\Temp\ccLNaGfc.s:29379  .debug_str:000000000001e8a3 .LASF2233
C:\Users\CYMR90~1\AppData\Local\Temp\ccLNaGfc.s:22724  .debug_str:0000000000003bce .LASF2234
C:\Users\CYMR90~1\AppData\Local\Temp\ccLNaGfc.s:27462  .debug_str:00000000000169ff .LASF2235
C:\Users\CYMR90~1\AppData\Local\Temp\ccLNaGfc.s:24530  .debug_str:000000000000aef7 .LASF2236
C:\Users\CYMR90~1\AppData\Local\Temp\ccLNaGfc.s:27635  .debug_str:0000000000017706 .LASF2237
C:\Users\CYMR90~1\AppData\Local\Temp\ccLNaGfc.s:30891  .debug_str:000000000002437f .LASF2238
C:\Users\CYMR90~1\AppData\Local\Temp\ccLNaGfc.s:22710  .debug_str:0000000000003ae2 .LASF2239
C:\Users\CYMR90~1\AppData\Local\Temp\ccLNaGfc.s:25982  .debug_str:0000000000010b7c .LASF2240
C:\Users\CYMR90~1\AppData\Local\Temp\ccLNaGfc.s:26226  .debug_str:0000000000011afa .LASF2241
C:\Users\CYMR90~1\AppData\Local\Temp\ccLNaGfc.s:32443  .debug_str:000000000002a770 .LASF2242
C:\Users\CYMR90~1\AppData\Local\Temp\ccLNaGfc.s:24284  .debug_str:0000000000009fd3 .LASF2243
C:\Users\CYMR90~1\AppData\Local\Temp\ccLNaGfc.s:32717  .debug_str:000000000002b899 .LASF2244
C:\Users\CYMR90~1\AppData\Local\Temp\ccLNaGfc.s:30661  .debug_str:00000000000235df .LASF2245
C:\Users\CYMR90~1\AppData\Local\Temp\ccLNaGfc.s:32007  .debug_str:0000000000028d2d .LASF2246
C:\Users\CYMR90~1\AppData\Local\Temp\ccLNaGfc.s:25354  .debug_str:000000000000e45b .LASF2247
C:\Users\CYMR90~1\AppData\Local\Temp\ccLNaGfc.s:30079  .debug_str:00000000000212f6 .LASF2248
C:\Users\CYMR90~1\AppData\Local\Temp\ccLNaGfc.s:23406  .debug_str:00000000000066fb .LASF2249
C:\Users\CYMR90~1\AppData\Local\Temp\ccLNaGfc.s:28159  .debug_str:000000000001980b .LASF2250
C:\Users\CYMR90~1\AppData\Local\Temp\ccLNaGfc.s:28541  .debug_str:000000000001b28b .LASF2251
C:\Users\CYMR90~1\AppData\Local\Temp\ccLNaGfc.s:26234  .debug_str:0000000000011b67 .LASF2252
C:\Users\CYMR90~1\AppData\Local\Temp\ccLNaGfc.s:30957  .debug_str:0000000000024840 .LASF2253
C:\Users\CYMR90~1\AppData\Local\Temp\ccLNaGfc.s:24824  .debug_str:000000000000c34d .LASF2254
C:\Users\CYMR90~1\AppData\Local\Temp\ccLNaGfc.s:30135  .debug_str:000000000002160e .LASF2255
C:\Users\CYMR90~1\AppData\Local\Temp\ccLNaGfc.s:23460  .debug_str:0000000000006a0b .LASF2256
C:\Users\CYMR90~1\AppData\Local\Temp\ccLNaGfc.s:26152  .debug_str:00000000000115b1 .LASF2257
C:\Users\CYMR90~1\AppData\Local\Temp\ccLNaGfc.s:32963  .debug_str:000000000002c942 .LASF2258
C:\Users\CYMR90~1\AppData\Local\Temp\ccLNaGfc.s:26288  .debug_str:0000000000011f10 .LASF2259
C:\Users\CYMR90~1\AppData\Local\Temp\ccLNaGfc.s:26208  .debug_str:000000000001194a .LASF2260
C:\Users\CYMR90~1\AppData\Local\Temp\ccLNaGfc.s:29821  .debug_str:000000000002038f .LASF2261
C:\Users\CYMR90~1\AppData\Local\Temp\ccLNaGfc.s:31115  .debug_str:00000000000252db .LASF2262
C:\Users\CYMR90~1\AppData\Local\Temp\ccLNaGfc.s:29455  .debug_str:000000000001ed6a .LASF2263
C:\Users\CYMR90~1\AppData\Local\Temp\ccLNaGfc.s:28053  .debug_str:00000000000190ec .LASF2264
C:\Users\CYMR90~1\AppData\Local\Temp\ccLNaGfc.s:31277  .debug_str:0000000000025e46 .LASF2265
C:\Users\CYMR90~1\AppData\Local\Temp\ccLNaGfc.s:24590  .debug_str:000000000000b380 .LASF2266
C:\Users\CYMR90~1\AppData\Local\Temp\ccLNaGfc.s:26368  .debug_str:0000000000012466 .LASF2267
C:\Users\CYMR90~1\AppData\Local\Temp\ccLNaGfc.s:29559  .debug_str:000000000001f37d .LASF2268
C:\Users\CYMR90~1\AppData\Local\Temp\ccLNaGfc.s:31047  .debug_str:0000000000024e6a .LASF2269
C:\Users\CYMR90~1\AppData\Local\Temp\ccLNaGfc.s:24594  .debug_str:000000000000b3bd .LASF2270
C:\Users\CYMR90~1\AppData\Local\Temp\ccLNaGfc.s:30697  .debug_str:00000000000237b9 .LASF2271
C:\Users\CYMR90~1\AppData\Local\Temp\ccLNaGfc.s:24318  .debug_str:000000000000a1e1 .LASF2272
C:\Users\CYMR90~1\AppData\Local\Temp\ccLNaGfc.s:29031  .debug_str:000000000001d269 .LASF2273
C:\Users\CYMR90~1\AppData\Local\Temp\ccLNaGfc.s:22372  .debug_str:00000000000024e7 .LASF2274
C:\Users\CYMR90~1\AppData\Local\Temp\ccLNaGfc.s:27094  .debug_str:00000000000152fd .LASF2275
C:\Users\CYMR90~1\AppData\Local\Temp\ccLNaGfc.s:31851  .debug_str:000000000002824c .LASF2276
C:\Users\CYMR90~1\AppData\Local\Temp\ccLNaGfc.s:25198  .debug_str:000000000000db0a .LASF2277
C:\Users\CYMR90~1\AppData\Local\Temp\ccLNaGfc.s:29923  .debug_str:0000000000020936 .LASF2278
C:\Users\CYMR90~1\AppData\Local\Temp\ccLNaGfc.s:27993  .debug_str:0000000000018d3e .LASF2279
C:\Users\CYMR90~1\AppData\Local\Temp\ccLNaGfc.s:29085  .debug_str:000000000001d636 .LASF2280
C:\Users\CYMR90~1\AppData\Local\Temp\ccLNaGfc.s:22428  .debug_str:0000000000002886 .LASF2281
C:\Users\CYMR90~1\AppData\Local\Temp\ccLNaGfc.s:26660  .debug_str:00000000000137c1 .LASF2282
C:\Users\CYMR90~1\AppData\Local\Temp\ccLNaGfc.s:31905  .debug_str:00000000000286a2 .LASF2283
C:\Users\CYMR90~1\AppData\Local\Temp\ccLNaGfc.s:25256  .debug_str:000000000000de6d .LASF2284
C:\Users\CYMR90~1\AppData\Local\Temp\ccLNaGfc.s:29979  .debug_str:0000000000020cc3 .LASF2285
C:\Users\CYMR90~1\AppData\Local\Temp\ccLNaGfc.s:32135  .debug_str:00000000000294aa .LASF2286
C:\Users\CYMR90~1\AppData\Local\Temp\ccLNaGfc.s:23752  .debug_str:0000000000007ce8 .LASF2287
C:\Users\CYMR90~1\AppData\Local\Temp\ccLNaGfc.s:27172  .debug_str:0000000000015773 .LASF2288
C:\Users\CYMR90~1\AppData\Local\Temp\ccLNaGfc.s:31891  .debug_str:0000000000028536 .LASF2289
C:\Users\CYMR90~1\AppData\Local\Temp\ccLNaGfc.s:30253  .debug_str:0000000000021dd7 .LASF2290
C:\Users\CYMR90~1\AppData\Local\Temp\ccLNaGfc.s:28619  .debug_str:000000000001b7a1 .LASF2291
C:\Users\CYMR90~1\AppData\Local\Temp\ccLNaGfc.s:28735  .debug_str:000000000001be73 .LASF2292
C:\Users\CYMR90~1\AppData\Local\Temp\ccLNaGfc.s:31977  .debug_str:0000000000028b69 .LASF2293
C:\Users\CYMR90~1\AppData\Local\Temp\ccLNaGfc.s:23808  .debug_str:00000000000080e0 .LASF2294
C:\Users\CYMR90~1\AppData\Local\Temp\ccLNaGfc.s:26946  .debug_str:0000000000014960 .LASF2295
C:\Users\CYMR90~1\AppData\Local\Temp\ccLNaGfc.s:26664  .debug_str:00000000000137ee .LASF2296
C:\Users\CYMR90~1\AppData\Local\Temp\ccLNaGfc.s:31387  .debug_str:0000000000026536 .LASF2297
C:\Users\CYMR90~1\AppData\Local\Temp\ccLNaGfc.s:24746  .debug_str:000000000000bddc .LASF2298
C:\Users\CYMR90~1\AppData\Local\Temp\ccLNaGfc.s:29431  .debug_str:000000000001eba0 .LASF2299
C:\Users\CYMR90~1\AppData\Local\Temp\ccLNaGfc.s:22782  .debug_str:0000000000003f73 .LASF2300
C:\Users\CYMR90~1\AppData\Local\Temp\ccLNaGfc.s:27523  .debug_str:000000000001706d .LASF2301
C:\Users\CYMR90~1\AppData\Local\Temp\ccLNaGfc.s:32275  .debug_str:0000000000029df8 .LASF2302
C:\Users\CYMR90~1\AppData\Local\Temp\ccLNaGfc.s:25618  .debug_str:000000000000f47a .LASF2303
C:\Users\CYMR90~1\AppData\Local\Temp\ccLNaGfc.s:23668  .debug_str:0000000000007771 .LASF2304
C:\Users\CYMR90~1\AppData\Local\Temp\ccLNaGfc.s:24794  .debug_str:000000000000c156 .LASF2305
C:\Users\CYMR90~1\AppData\Local\Temp\ccLNaGfc.s:29479  .debug_str:000000000001eee0 .LASF2306
C:\Users\CYMR90~1\AppData\Local\Temp\ccLNaGfc.s:22832  .debug_str:00000000000042b6 .LASF2307
C:\Users\CYMR90~1\AppData\Local\Temp\ccLNaGfc.s:22214  .debug_str:0000000000001ba4 .LASF2308
C:\Users\CYMR90~1\AppData\Local\Temp\ccLNaGfc.s:32327  .debug_str:000000000002a102 .LASF2309
C:\Users\CYMR90~1\AppData\Local\Temp\ccLNaGfc.s:25680  .debug_str:000000000000f844 .LASF2310
C:\Users\CYMR90~1\AppData\Local\Temp\ccLNaGfc.s:25398  .debug_str:000000000000e6e2 .LASF2311
C:\Users\CYMR90~1\AppData\Local\Temp\ccLNaGfc.s:28631  .debug_str:000000000001b887 .LASF2312
C:\Users\CYMR90~1\AppData\Local\Temp\ccLNaGfc.s:31861  .debug_str:00000000000282ff .LASF2313
C:\Users\CYMR90~1\AppData\Local\Temp\ccLNaGfc.s:23684  .debug_str:000000000000788c .LASF2314
C:\Users\CYMR90~1\AppData\Local\Temp\ccLNaGfc.s:26828  .debug_str:00000000000141d3 .LASF2315
C:\Users\CYMR90~1\AppData\Local\Temp\ccLNaGfc.s:30077  .debug_str:00000000000212e3 .LASF2316
C:\Users\CYMR90~1\AppData\Local\Temp\ccLNaGfc.s:32261  .debug_str:0000000000029d35 .LASF2317
C:\Users\CYMR90~1\AppData\Local\Temp\ccLNaGfc.s:25164  .debug_str:000000000000d941 .LASF2318
C:\Users\CYMR90~1\AppData\Local\Temp\ccLNaGfc.s:28399  .debug_str:000000000001a89b .LASF2319
C:\Users\CYMR90~1\AppData\Local\Temp\ccLNaGfc.s:31625  .debug_str:0000000000027383 .LASF2320
C:\Users\CYMR90~1\AppData\Local\Temp\ccLNaGfc.s:31947  .debug_str:0000000000028949 .LASF2321
C:\Users\CYMR90~1\AppData\Local\Temp\ccLNaGfc.s:25300  .debug_str:000000000000e127 .LASF2322
C:\Users\CYMR90~1\AppData\Local\Temp\ccLNaGfc.s:30023  .debug_str:0000000000020faf .LASF2323
C:\Users\CYMR90~1\AppData\Local\Temp\ccLNaGfc.s:23336  .debug_str:00000000000062ab .LASF2324
C:\Users\CYMR90~1\AppData\Local\Temp\ccLNaGfc.s:28097  .debug_str:000000000001947f .LASF2325
C:\Users\CYMR90~1\AppData\Local\Temp\ccLNaGfc.s:32847  .debug_str:000000000002c12a .LASF2326
C:\Users\CYMR90~1\AppData\Local\Temp\ccLNaGfc.s:26180  .debug_str:000000000001177a .LASF2327
C:\Users\CYMR90~1\AppData\Local\Temp\ccLNaGfc.s:30901  .debug_str:00000000000243ef .LASF2328
C:\Users\CYMR90~1\AppData\Local\Temp\ccLNaGfc.s:28967  .debug_str:000000000001cda0 .LASF2329
C:\Users\CYMR90~1\AppData\Local\Temp\ccLNaGfc.s:30169  .debug_str:0000000000021807 .LASF2330
C:\Users\CYMR90~1\AppData\Local\Temp\ccLNaGfc.s:23490  .debug_str:0000000000006c23 .LASF2331
C:\Users\CYMR90~1\AppData\Local\Temp\ccLNaGfc.s:28229  .debug_str:0000000000019d13 .LASF2332
C:\Users\CYMR90~1\AppData\Local\Temp\ccLNaGfc.s:32989  .debug_str:000000000002caaf .LASF2333
C:\Users\CYMR90~1\AppData\Local\Temp\ccLNaGfc.s:26314  .debug_str:00000000000120b8 .LASF2334
C:\Users\CYMR90~1\AppData\Local\Temp\ccLNaGfc.s:31029  .debug_str:0000000000024cb4 .LASF2335
C:\Users\CYMR90~1\AppData\Local\Temp\ccLNaGfc.s:26516  .debug_str:0000000000012de6 .LASF2336
C:\Users\CYMR90~1\AppData\Local\Temp\ccLNaGfc.s:22658  .debug_str:00000000000037a4 .LASF2337
C:\Users\CYMR90~1\AppData\Local\Temp\ccLNaGfc.s:27891  .debug_str:00000000000186ca .LASF2338
C:\Users\CYMR90~1\AppData\Local\Temp\ccLNaGfc.s:24228  .debug_str:0000000000009c82 .LASF2339
C:\Users\CYMR90~1\AppData\Local\Temp\ccLNaGfc.s:23000  .debug_str:0000000000004e79 .LASF2340
C:\Users\CYMR90~1\AppData\Local\Temp\ccLNaGfc.s:31347  .debug_str:0000000000026290 .LASF2341
C:\Users\CYMR90~1\AppData\Local\Temp\ccLNaGfc.s:27298  .debug_str:0000000000015f5c .LASF2342
C:\Users\CYMR90~1\AppData\Local\Temp\ccLNaGfc.s:27064  .debug_str:000000000001510b .LASF2343
C:\Users\CYMR90~1\AppData\Local\Temp\ccLNaGfc.s:27440  .debug_str:00000000000168c9 .LASF2344
C:\Users\CYMR90~1\AppData\Local\Temp\ccLNaGfc.s:24296  .debug_str:000000000000a079 .LASF2345
C:\Users\CYMR90~1\AppData\Local\Temp\ccLNaGfc.s:31009  .debug_str:0000000000024b74 .LASF2346
C:\Users\CYMR90~1\AppData\Local\Temp\ccLNaGfc.s:32083  .debug_str:0000000000029182 .LASF2347
C:\Users\CYMR90~1\AppData\Local\Temp\ccLNaGfc.s:21904  .debug_str:0000000000000710 .LASF2348
C:\Users\CYMR90~1\AppData\Local\Temp\ccLNaGfc.s:23708  .debug_str:0000000000007a18 .LASF2349
C:\Users\CYMR90~1\AppData\Local\Temp\ccLNaGfc.s:22704  .debug_str:0000000000003a8f .LASF2350
C:\Users\CYMR90~1\AppData\Local\Temp\ccLNaGfc.s:31237  .debug_str:0000000000025b31 .LASF2351
C:\Users\CYMR90~1\AppData\Local\Temp\ccLNaGfc.s:26316  .debug_str:00000000000120cd .LASF2352
C:\Users\CYMR90~1\AppData\Local\Temp\ccLNaGfc.s:25082  .debug_str:000000000000d384 .LASF2353
C:\Users\CYMR90~1\AppData\Local\Temp\ccLNaGfc.s:29753  .debug_str:000000000001ff6d .LASF2354
C:\Users\CYMR90~1\AppData\Local\Temp\ccLNaGfc.s:28841  .debug_str:000000000001c585 .LASF2355
C:\Users\CYMR90~1\AppData\Local\Temp\ccLNaGfc.s:22754  .debug_str:0000000000003d8b .LASF2356
C:\Users\CYMR90~1\AppData\Local\Temp\ccLNaGfc.s:31393  .debug_str:0000000000026596 .LASF2357
C:\Users\CYMR90~1\AppData\Local\Temp\ccLNaGfc.s:25054  .debug_str:000000000000d1b6 .LASF2358
C:\Users\CYMR90~1\AppData\Local\Temp\ccLNaGfc.s:24130  .debug_str:00000000000095f4 .LASF2359
C:\Users\CYMR90~1\AppData\Local\Temp\ccLNaGfc.s:23090  .debug_str:00000000000053d4 .LASF2360
C:\Users\CYMR90~1\AppData\Local\Temp\ccLNaGfc.s:31737  .debug_str:0000000000027ad9 .LASF2361
C:\Users\CYMR90~1\AppData\Local\Temp\ccLNaGfc.s:32037  .debug_str:0000000000028f11 .LASF2362
C:\Users\CYMR90~1\AppData\Local\Temp\ccLNaGfc.s:26176  .debug_str:0000000000011726 .LASF2363
C:\Users\CYMR90~1\AppData\Local\Temp\ccLNaGfc.s:30119  .debug_str:000000000002152e .LASF2364
C:\Users\CYMR90~1\AppData\Local\Temp\ccLNaGfc.s:27220  .debug_str:0000000000015a27 .LASF2365
C:\Users\CYMR90~1\AppData\Local\Temp\ccLNaGfc.s:27795  .debug_str:0000000000018104 .LASF2366
C:\Users\CYMR90~1\AppData\Local\Temp\ccLNaGfc.s:26642  .debug_str:000000000001368a .LASF2367
C:\Users\CYMR90~1\AppData\Local\Temp\ccLNaGfc.s:27122  .debug_str:00000000000154d9 .LASF2368
C:\Users\CYMR90~1\AppData\Local\Temp\ccLNaGfc.s:25838  .debug_str:00000000000102ab .LASF2369
C:\Users\CYMR90~1\AppData\Local\Temp\ccLNaGfc.s:26122  .debug_str:00000000000113ec .LASF2370
C:\Users\CYMR90~1\AppData\Local\Temp\ccLNaGfc.s:25204  .debug_str:000000000000db74 .LASF2371
C:\Users\CYMR90~1\AppData\Local\Temp\ccLNaGfc.s:24206  .debug_str:0000000000009aaf .LASF2372
C:\Users\CYMR90~1\AppData\Local\Temp\ccLNaGfc.s:32741  .debug_str:000000000002ba1d .LASF2373
C:\Users\CYMR90~1\AppData\Local\Temp\ccLNaGfc.s:24696  .debug_str:000000000000babb .LASF2374
C:\Users\CYMR90~1\AppData\Local\Temp\ccLNaGfc.s:32077  .debug_str:0000000000029125 .LASF2375
C:\Users\CYMR90~1\AppData\Local\Temp\ccLNaGfc.s:30801  .debug_str:0000000000023e73 .LASF2376
C:\Users\CYMR90~1\AppData\Local\Temp\ccLNaGfc.s:27617  .debug_str:000000000001760d .LASF2377
C:\Users\CYMR90~1\AppData\Local\Temp\ccLNaGfc.s:27238  .debug_str:0000000000015b5d .LASF2378
C:\Users\CYMR90~1\AppData\Local\Temp\ccLNaGfc.s:27366  .debug_str:0000000000016410 .LASF2379
C:\Users\CYMR90~1\AppData\Local\Temp\ccLNaGfc.s:31759  .debug_str:0000000000027c15 .LASF2380
C:\Users\CYMR90~1\AppData\Local\Temp\ccLNaGfc.s:25072  .debug_str:000000000000d2e8 .LASF2381
C:\Users\CYMR90~1\AppData\Local\Temp\ccLNaGfc.s:29529  .debug_str:000000000001f1aa .LASF2382
C:\Users\CYMR90~1\AppData\Local\Temp\ccLNaGfc.s:23608  .debug_str:00000000000073d7 .LASF2383
C:\Users\CYMR90~1\AppData\Local\Temp\ccLNaGfc.s:22048  .debug_str:0000000000001093 .LASF2384
C:\Users\CYMR90~1\AppData\Local\Temp\ccLNaGfc.s:28487  .debug_str:000000000001aede .LASF2385
C:\Users\CYMR90~1\AppData\Local\Temp\ccLNaGfc.s:24886  .debug_str:000000000000c6d6 .LASF2386
C:\Users\CYMR90~1\AppData\Local\Temp\ccLNaGfc.s:27348  .debug_str:00000000000162ed .LASF2387
C:\Users\CYMR90~1\AppData\Local\Temp\ccLNaGfc.s:24792  .debug_str:000000000000c13e .LASF2388
C:\Users\CYMR90~1\AppData\Local\Temp\ccLNaGfc.s:24920  .debug_str:000000000000c8f8 .LASF2389
C:\Users\CYMR90~1\AppData\Local\Temp\ccLNaGfc.s:28883  .debug_str:000000000001c7f5 .LASF2390
C:\Users\CYMR90~1\AppData\Local\Temp\ccLNaGfc.s:23036  .debug_str:000000000000509b .LASF2391
C:\Users\CYMR90~1\AppData\Local\Temp\ccLNaGfc.s:28741  .debug_str:000000000001beca .LASF2392
C:\Users\CYMR90~1\AppData\Local\Temp\ccLNaGfc.s:27224  .debug_str:0000000000015a90 .LASF2393
C:\Users\CYMR90~1\AppData\Local\Temp\ccLNaGfc.s:28033  .debug_str:0000000000018fb7 .LASF2394
C:\Users\CYMR90~1\AppData\Local\Temp\ccLNaGfc.s:30411  .debug_str:000000000002273c .LASF2395
C:\Users\CYMR90~1\AppData\Local\Temp\ccLNaGfc.s:23006  .debug_str:0000000000004ede .LASF2396
C:\Users\CYMR90~1\AppData\Local\Temp\ccLNaGfc.s:22062  .debug_str:0000000000001159 .LASF2397
C:\Users\CYMR90~1\AppData\Local\Temp\ccLNaGfc.s:32503  .debug_str:000000000002ab5b .LASF2398
C:\Users\CYMR90~1\AppData\Local\Temp\ccLNaGfc.s:22000  .debug_str:0000000000000d3c .LASF2399
C:\Users\CYMR90~1\AppData\Local\Temp\ccLNaGfc.s:23728  .debug_str:0000000000007b5c .LASF2400
C:\Users\CYMR90~1\AppData\Local\Temp\ccLNaGfc.s:28305  .debug_str:000000000001a19c .LASF2401
C:\Users\CYMR90~1\AppData\Local\Temp\ccLNaGfc.s:26498  .debug_str:0000000000012cdb .LASF2402
C:\Users\CYMR90~1\AppData\Local\Temp\ccLNaGfc.s:24264  .debug_str:0000000000009eb7 .LASF2403
C:\Users\CYMR90~1\AppData\Local\Temp\ccLNaGfc.s:30425  .debug_str:00000000000227ff .LASF2404
C:\Users\CYMR90~1\AppData\Local\Temp\ccLNaGfc.s:28751  .debug_str:000000000001bf9a .LASF2405
C:\Users\CYMR90~1\AppData\Local\Temp\ccLNaGfc.s:27883  .debug_str:0000000000018662 .LASF2406
C:\Users\CYMR90~1\AppData\Local\Temp\ccLNaGfc.s:29477  .debug_str:000000000001eebe .LASF2407
C:\Users\CYMR90~1\AppData\Local\Temp\ccLNaGfc.s:33079  .debug_str:000000000002d07a .LASF2408
C:\Users\CYMR90~1\AppData\Local\Temp\ccLNaGfc.s:22244  .debug_str:0000000000001d82 .LASF2409
C:\Users\CYMR90~1\AppData\Local\Temp\ccLNaGfc.s:26746  .debug_str:0000000000013ced .LASF2410
C:\Users\CYMR90~1\AppData\Local\Temp\ccLNaGfc.s:30385  .debug_str:00000000000225a5 .LASF2411
C:\Users\CYMR90~1\AppData\Local\Temp\ccLNaGfc.s:32853  .debug_str:000000000002c17e .LASF2412
C:\Users\CYMR90~1\AppData\Local\Temp\ccLNaGfc.s:26184  .debug_str:00000000000117be .LASF2413
C:\Users\CYMR90~1\AppData\Local\Temp\ccLNaGfc.s:25506  .debug_str:000000000000ee2b .LASF2414
C:\Users\CYMR90~1\AppData\Local\Temp\ccLNaGfc.s:29015  .debug_str:000000000001d0c6 .LASF2415
C:\Users\CYMR90~1\AppData\Local\Temp\ccLNaGfc.s:28265  .debug_str:0000000000019f3f .LASF2416
C:\Users\CYMR90~1\AppData\Local\Temp\ccLNaGfc.s:23050  .debug_str:0000000000005182 .LASF2417
C:\Users\CYMR90~1\AppData\Local\Temp\ccLNaGfc.s:22970  .debug_str:0000000000004c92 .LASF2418
C:\Users\CYMR90~1\AppData\Local\Temp\ccLNaGfc.s:27673  .debug_str:0000000000017975 .LASF2419
C:\Users\CYMR90~1\AppData\Local\Temp\ccLNaGfc.s:29655  .debug_str:000000000001f959 .LASF2420
C:\Users\CYMR90~1\AppData\Local\Temp\ccLNaGfc.s:23880  .debug_str:0000000000008622 .LASF2421
C:\Users\CYMR90~1\AppData\Local\Temp\ccLNaGfc.s:23868  .debug_str:0000000000008581 .LASF2422
C:\Users\CYMR90~1\AppData\Local\Temp\ccLNaGfc.s:31285  .debug_str:0000000000025ebb .LASF2423
C:\Users\CYMR90~1\AppData\Local\Temp\ccLNaGfc.s:26136  .debug_str:00000000000114ca .LASF2424
C:\Users\CYMR90~1\AppData\Local\Temp\ccLNaGfc.s:27364  .debug_str:00000000000163ec .LASF2425
C:\Users\CYMR90~1\AppData\Local\Temp\ccLNaGfc.s:28697  .debug_str:000000000001bc7f .LASF2426
C:\Users\CYMR90~1\AppData\Local\Temp\ccLNaGfc.s:32013  .debug_str:0000000000028daf .LASF2427
C:\Users\CYMR90~1\AppData\Local\Temp\ccLNaGfc.s:30259  .debug_str:0000000000021e45 .LASF2428
C:\Users\CYMR90~1\AppData\Local\Temp\ccLNaGfc.s:29259  .debug_str:000000000001e0eb .LASF2429
C:\Users\CYMR90~1\AppData\Local\Temp\ccLNaGfc.s:28241  .debug_str:0000000000019de7 .LASF2430
C:\Users\CYMR90~1\AppData\Local\Temp\ccLNaGfc.s:27324  .debug_str:000000000001612c .LASF2431
C:\Users\CYMR90~1\AppData\Local\Temp\ccLNaGfc.s:26402  .debug_str:0000000000012693 .LASF2432
C:\Users\CYMR90~1\AppData\Local\Temp\ccLNaGfc.s:30647  .debug_str:0000000000023522 .LASF2433
C:\Users\CYMR90~1\AppData\Local\Temp\ccLNaGfc.s:27150  .debug_str:000000000001565a .LASF2434
C:\Users\CYMR90~1\AppData\Local\Temp\ccLNaGfc.s:25290  .debug_str:000000000000e0a1 .LASF2435
C:\Users\CYMR90~1\AppData\Local\Temp\ccLNaGfc.s:22588  .debug_str:00000000000032eb .LASF2436
C:\Users\CYMR90~1\AppData\Local\Temp\ccLNaGfc.s:24132  .debug_str:0000000000009616 .LASF2437
C:\Users\CYMR90~1\AppData\Local\Temp\ccLNaGfc.s:21996  .debug_str:0000000000000d05 .LASF2438
C:\Users\CYMR90~1\AppData\Local\Temp\ccLNaGfc.s:25296  .debug_str:000000000000e0e9 .LASF2439
C:\Users\CYMR90~1\AppData\Local\Temp\ccLNaGfc.s:23940  .debug_str:0000000000008991 .LASF2440
C:\Users\CYMR90~1\AppData\Local\Temp\ccLNaGfc.s:22290  .debug_str:000000000000203d .LASF2441
C:\Users\CYMR90~1\AppData\Local\Temp\ccLNaGfc.s:24760  .debug_str:000000000000beb4 .LASF2442
C:\Users\CYMR90~1\AppData\Local\Temp\ccLNaGfc.s:22100  .debug_str:0000000000001370 .LASF2443
C:\Users\CYMR90~1\AppData\Local\Temp\ccLNaGfc.s:28369  .debug_str:000000000001a716 .LASF2444
C:\Users\CYMR90~1\AppData\Local\Temp\ccLNaGfc.s:28157  .debug_str:00000000000197fa .LASF2445
C:\Users\CYMR90~1\AppData\Local\Temp\ccLNaGfc.s:26670  .debug_str:000000000001385b .LASF2446
C:\Users\CYMR90~1\AppData\Local\Temp\ccLNaGfc.s:31913  .debug_str:000000000002871c .LASF2447
C:\Users\CYMR90~1\AppData\Local\Temp\ccLNaGfc.s:24334  .debug_str:000000000000a2d3 .LASF2448
C:\Users\CYMR90~1\AppData\Local\Temp\ccLNaGfc.s:28413  .debug_str:000000000001a988 .LASF2449
C:\Users\CYMR90~1\AppData\Local\Temp\ccLNaGfc.s:29061  .debug_str:000000000001d4cf .LASF2450
C:\Users\CYMR90~1\AppData\Local\Temp\ccLNaGfc.s:27549  .debug_str:0000000000017215 .LASF2451
C:\Users\CYMR90~1\AppData\Local\Temp\ccLNaGfc.s:31511  .debug_str:0000000000026ca1 .LASF2452
C:\Users\CYMR90~1\AppData\Local\Temp\ccLNaGfc.s:26608  .debug_str:00000000000133ee .LASF2453
C:\Users\CYMR90~1\AppData\Local\Temp\ccLNaGfc.s:21864  .debug_str:00000000000004be .LASF2454
C:\Users\CYMR90~1\AppData\Local\Temp\ccLNaGfc.s:22356  .debug_str:00000000000023ec .LASF2455
C:\Users\CYMR90~1\AppData\Local\Temp\ccLNaGfc.s:27182  .debug_str:0000000000015811 .LASF2456
C:\Users\CYMR90~1\AppData\Local\Temp\ccLNaGfc.s:21982  .debug_str:0000000000000c29 .LASF2457
C:\Users\CYMR90~1\AppData\Local\Temp\ccLNaGfc.s:29165  .debug_str:000000000001db70 .LASF2458
C:\Users\CYMR90~1\AppData\Local\Temp\ccLNaGfc.s:24460  .debug_str:000000000000aac1 .LASF2459
C:\Users\CYMR90~1\AppData\Local\Temp\ccLNaGfc.s:31077  .debug_str:000000000002504e .LASF2460
C:\Users\CYMR90~1\AppData\Local\Temp\ccLNaGfc.s:23158  .debug_str:000000000000582f .LASF2461
C:\Users\CYMR90~1\AppData\Local\Temp\ccLNaGfc.s:22756  .debug_str:0000000000003dad .LASF2462
C:\Users\CYMR90~1\AppData\Local\Temp\ccLNaGfc.s:26870  .debug_str:000000000001448e .LASF2463
C:\Users\CYMR90~1\AppData\Local\Temp\ccLNaGfc.s:24828  .debug_str:000000000000c381 .LASF2464
C:\Users\CYMR90~1\AppData\Local\Temp\ccLNaGfc.s:29643  .debug_str:000000000001f8a5 .LASF2465
C:\Users\CYMR90~1\AppData\Local\Temp\ccLNaGfc.s:25382  .debug_str:000000000000e5ec .LASF2466
C:\Users\CYMR90~1\AppData\Local\Temp\ccLNaGfc.s:29445  .debug_str:000000000001eca4 .LASF2467
C:\Users\CYMR90~1\AppData\Local\Temp\ccLNaGfc.s:33063  .debug_str:000000000002cfa2 .LASF2468
C:\Users\CYMR90~1\AppData\Local\Temp\ccLNaGfc.s:23276  .debug_str:0000000000005f4e .LASF2469
C:\Users\CYMR90~1\AppData\Local\Temp\ccLNaGfc.s:28397  .debug_str:000000000001a87d .LASF2470
C:\Users\CYMR90~1\AppData\Local\Temp\ccLNaGfc.s:24552  .debug_str:000000000000b06c .LASF2471
C:\Users\CYMR90~1\AppData\Local\Temp\ccLNaGfc.s:31215  .debug_str:0000000000025995 .LASF2472
C:\Users\CYMR90~1\AppData\Local\Temp\ccLNaGfc.s:32307  .debug_str:0000000000029fe3 .LASF2473
C:\Users\CYMR90~1\AppData\Local\Temp\ccLNaGfc.s:32945  .debug_str:000000000002c7e6 .LASF2474
C:\Users\CYMR90~1\AppData\Local\Temp\ccLNaGfc.s:22136  .debug_str:000000000000157a .LASF2475
C:\Users\CYMR90~1\AppData\Local\Temp\ccLNaGfc.s:21902  .debug_str:00000000000006e3 .LASF2476
C:\Users\CYMR90~1\AppData\Local\Temp\ccLNaGfc.s:30427  .debug_str:0000000000022823 .LASF2477
C:\Users\CYMR90~1\AppData\Local\Temp\ccLNaGfc.s:26766  .debug_str:0000000000013e3f .LASF2478
C:\Users\CYMR90~1\AppData\Local\Temp\ccLNaGfc.s:26558  .debug_str:00000000000130b7 .LASF2479
C:\Users\CYMR90~1\AppData\Local\Temp\ccLNaGfc.s:29437  .debug_str:000000000001ec16 .LASF2480
C:\Users\CYMR90~1\AppData\Local\Temp\ccLNaGfc.s:24684  .debug_str:000000000000b9b6 .LASF2481
C:\Users\CYMR90~1\AppData\Local\Temp\ccLNaGfc.s:23542  .debug_str:0000000000006f62 .LASF2482
C:\Users\CYMR90~1\AppData\Local\Temp\ccLNaGfc.s:29751  .debug_str:000000000001ff3f .LASF2483
C:\Users\CYMR90~1\AppData\Local\Temp\ccLNaGfc.s:32283  .debug_str:0000000000029e5f .LASF2484
C:\Users\CYMR90~1\AppData\Local\Temp\ccLNaGfc.s:27707  .debug_str:0000000000017bad .LASF2485
C:\Users\CYMR90~1\AppData\Local\Temp\ccLNaGfc.s:29079  .debug_str:000000000001d5c5 .LASF2486
C:\Users\CYMR90~1\AppData\Local\Temp\ccLNaGfc.s:26934  .debug_str:000000000001489a .LASF2487
C:\Users\CYMR90~1\AppData\Local\Temp\ccLNaGfc.s:25206  .debug_str:000000000000db97 .LASF2488
C:\Users\CYMR90~1\AppData\Local\Temp\ccLNaGfc.s:28579  .debug_str:000000000001b4fe .LASF2489
C:\Users\CYMR90~1\AppData\Local\Temp\ccLNaGfc.s:32661  .debug_str:000000000002b4b8 .LASF2490
C:\Users\CYMR90~1\AppData\Local\Temp\ccLNaGfc.s:23062  .debug_str:0000000000005232 .LASF2491
C:\Users\CYMR90~1\AppData\Local\Temp\ccLNaGfc.s:23696  .debug_str:0000000000007948 .LASF2492
C:\Users\CYMR90~1\AppData\Local\Temp\ccLNaGfc.s:32095  .debug_str:000000000002924a .LASF2493
C:\Users\CYMR90~1\AppData\Local\Temp\ccLNaGfc.s:25986  .debug_str:0000000000010bad .LASF2494
C:\Users\CYMR90~1\AppData\Local\Temp\ccLNaGfc.s:31151  .debug_str:00000000000254b3 .LASF2495
C:\Users\CYMR90~1\AppData\Local\Temp\ccLNaGfc.s:25062  .debug_str:000000000000d22c .LASF2496
C:\Users\CYMR90~1\AppData\Local\Temp\ccLNaGfc.s:30319  .debug_str:00000000000221d5 .LASF2497
C:\Users\CYMR90~1\AppData\Local\Temp\ccLNaGfc.s:30573  .debug_str:00000000000230a8 .LASF2498
C:\Users\CYMR90~1\AppData\Local\Temp\ccLNaGfc.s:26170  .debug_str:00000000000116dc .LASF2499
C:\Users\CYMR90~1\AppData\Local\Temp\ccLNaGfc.s:22736  .debug_str:0000000000003c8f .LASF2500
C:\Users\CYMR90~1\AppData\Local\Temp\ccLNaGfc.s:28037  .debug_str:0000000000018fde .LASF2501
C:\Users\CYMR90~1\AppData\Local\Temp\ccLNaGfc.s:21914  .debug_str:00000000000007ac .LASF2502
C:\Users\CYMR90~1\AppData\Local\Temp\ccLNaGfc.s:29849  .debug_str:0000000000020542 .LASF2503
C:\Users\CYMR90~1\AppData\Local\Temp\ccLNaGfc.s:32001  .debug_str:0000000000028cda .LASF2504
C:\Users\CYMR90~1\AppData\Local\Temp\ccLNaGfc.s:23836  .debug_str:000000000000833e .LASF2505
C:\Users\CYMR90~1\AppData\Local\Temp\ccLNaGfc.s:21874  .debug_str:000000000000053b .LASF2506
C:\Users\CYMR90~1\AppData\Local\Temp\ccLNaGfc.s:30311  .debug_str:0000000000022163 .LASF2507
C:\Users\CYMR90~1\AppData\Local\Temp\ccLNaGfc.s:22050  .debug_str:00000000000010a5 .LASF2508
C:\Users\CYMR90~1\AppData\Local\Temp\ccLNaGfc.s:25308  .debug_str:000000000000e198 .LASF2509
C:\Users\CYMR90~1\AppData\Local\Temp\ccLNaGfc.s:28547  .debug_str:000000000001b2dd .LASF2510
C:\Users\CYMR90~1\AppData\Local\Temp\ccLNaGfc.s:31761  .debug_str:0000000000027c28 .LASF2511
C:\Users\CYMR90~1\AppData\Local\Temp\ccLNaGfc.s:23586  .debug_str:000000000000725d .LASF2512
C:\Users\CYMR90~1\AppData\Local\Temp\ccLNaGfc.s:26820  .debug_str:0000000000014144 .LASF2513
C:\Users\CYMR90~1\AppData\Local\Temp\ccLNaGfc.s:23270  .debug_str:0000000000005efe .LASF2514
C:\Users\CYMR90~1\AppData\Local\Temp\ccLNaGfc.s:28031  .debug_str:0000000000018f9f .LASF2515
C:\Users\CYMR90~1\AppData\Local\Temp\ccLNaGfc.s:32785  .debug_str:000000000002bd33 .LASF2516
C:\Users\CYMR90~1\AppData\Local\Temp\ccLNaGfc.s:26114  .debug_str:0000000000011383 .LASF2517
C:\Users\CYMR90~1\AppData\Local\Temp\ccLNaGfc.s:30835  .debug_str:0000000000024076 .LASF2518
C:\Users\CYMR90~1\AppData\Local\Temp\ccLNaGfc.s:24182  .debug_str:0000000000009960 .LASF2519
C:\Users\CYMR90~1\AppData\Local\Temp\ccLNaGfc.s:24564  .debug_str:000000000000b1f5 .LASF2520
C:\Users\CYMR90~1\AppData\Local\Temp\ccLNaGfc.s:25214  .debug_str:000000000000dc27 .LASF2521
C:\Users\CYMR90~1\AppData\Local\Temp\ccLNaGfc.s:30567  .debug_str:0000000000023042 .LASF2522
C:\Users\CYMR90~1\AppData\Local\Temp\ccLNaGfc.s:27763  .debug_str:0000000000017f32 .LASF2523
C:\Users\CYMR90~1\AppData\Local\Temp\ccLNaGfc.s:22986  .debug_str:0000000000004d85 .LASF2524
C:\Users\CYMR90~1\AppData\Local\Temp\ccLNaGfc.s:24432  .debug_str:000000000000a8f9 .LASF2525
C:\Users\CYMR90~1\AppData\Local\Temp\ccLNaGfc.s:29671  .debug_str:000000000001fa8d .LASF2526
C:\Users\CYMR90~1\AppData\Local\Temp\ccLNaGfc.s:23190  .debug_str:0000000000005a39 .LASF2527
C:\Users\CYMR90~1\AppData\Local\Temp\ccLNaGfc.s:28755  .debug_str:000000000001bfe7 .LASF2528
C:\Users\CYMR90~1\AppData\Local\Temp\ccLNaGfc.s:24918  .debug_str:000000000000c8dc .LASF2529
C:\Users\CYMR90~1\AppData\Local\Temp\ccLNaGfc.s:24666  .debug_str:000000000000b85b .LASF2530
C:\Users\CYMR90~1\AppData\Local\Temp\ccLNaGfc.s:29833  .debug_str:000000000002044c .LASF2531
C:\Users\CYMR90~1\AppData\Local\Temp\ccLNaGfc.s:23790  .debug_str:0000000000007fa4 .LASF2532
C:\Users\CYMR90~1\AppData\Local\Temp\ccLNaGfc.s:28981  .debug_str:000000000001ce6b .LASF2533
C:\Users\CYMR90~1\AppData\Local\Temp\ccLNaGfc.s:22854  .debug_str:0000000000004493 .LASF2534
C:\Users\CYMR90~1\AppData\Local\Temp\ccLNaGfc.s:30815  .debug_str:0000000000023f53 .LASF2535
C:\Users\CYMR90~1\AppData\Local\Temp\ccLNaGfc.s:28065  .debug_str:0000000000019188 .LASF2536
C:\Users\CYMR90~1\AppData\Local\Temp\ccLNaGfc.s:22316  .debug_str:00000000000021ab .LASF2537
C:\Users\CYMR90~1\AppData\Local\Temp\ccLNaGfc.s:22666  .debug_str:00000000000037fa .LASF2538
C:\Users\CYMR90~1\AppData\Local\Temp\ccLNaGfc.s:31289  .debug_str:0000000000025efe .LASF2539
C:\Users\CYMR90~1\AppData\Local\Temp\ccLNaGfc.s:28613  .debug_str:000000000001b748 .LASF2540
C:\Users\CYMR90~1\AppData\Local\Temp\ccLNaGfc.s:27749  .debug_str:0000000000017e63 .LASF2541
C:\Users\CYMR90~1\AppData\Local\Temp\ccLNaGfc.s:32977  .debug_str:000000000002ca22 .LASF2542
C:\Users\CYMR90~1\AppData\Local\Temp\ccLNaGfc.s:26818  .debug_str:000000000001412a .LASF2543
C:\Users\CYMR90~1\AppData\Local\Temp\ccLNaGfc.s:32119  .debug_str:00000000000293b1 .LASF2544
C:\Users\CYMR90~1\AppData\Local\Temp\ccLNaGfc.s:25916  .debug_str:000000000001079c .LASF2545
C:\Users\CYMR90~1\AppData\Local\Temp\ccLNaGfc.s:28505  .debug_str:000000000001afff .LASF2546
C:\Users\CYMR90~1\AppData\Local\Temp\ccLNaGfc.s:22350  .debug_str:00000000000023a1 .LASF2547
C:\Users\CYMR90~1\AppData\Local\Temp\ccLNaGfc.s:27541  .debug_str:00000000000171a6 .LASF2548
C:\Users\CYMR90~1\AppData\Local\Temp\ccLNaGfc.s:26850  .debug_str:000000000001434b .LASF2549
C:\Users\CYMR90~1\AppData\Local\Temp\ccLNaGfc.s:26624  .debug_str:0000000000013534 .LASF2550
C:\Users\CYMR90~1\AppData\Local\Temp\ccLNaGfc.s:25510  .debug_str:000000000000ee5c .LASF2551
C:\Users\CYMR90~1\AppData\Local\Temp\ccLNaGfc.s:32663  .debug_str:000000000002b4d0 .LASF2552
C:\Users\CYMR90~1\AppData\Local\Temp\ccLNaGfc.s:24504  .debug_str:000000000000ad5e .LASF2553
C:\Users\CYMR90~1\AppData\Local\Temp\ccLNaGfc.s:27705  .debug_str:0000000000017b94 .LASF2554
C:\Users\CYMR90~1\AppData\Local\Temp\ccLNaGfc.s:30953  .debug_str:00000000000247d9 .LASF2555
C:\Users\CYMR90~1\AppData\Local\Temp\ccLNaGfc.s:22780  .debug_str:0000000000003f5a .LASF2556
C:\Users\CYMR90~1\AppData\Local\Temp\ccLNaGfc.s:26050  .debug_str:000000000001101a .LASF2557
C:\Users\CYMR90~1\AppData\Local\Temp\ccLNaGfc.s:29237  .debug_str:000000000001df9e .LASF2558
C:\Users\CYMR90~1\AppData\Local\Temp\ccLNaGfc.s:32413  .debug_str:000000000002a5c4 .LASF2559
C:\Users\CYMR90~1\AppData\Local\Temp\ccLNaGfc.s:24260  .debug_str:0000000000009e82 .LASF2560
C:\Users\CYMR90~1\AppData\Local\Temp\ccLNaGfc.s:27464  .debug_str:0000000000016a18 .LASF2561
C:\Users\CYMR90~1\AppData\Local\Temp\ccLNaGfc.s:29481  .debug_str:000000000001eefb .LASF2562
C:\Users\CYMR90~1\AppData\Local\Temp\ccLNaGfc.s:22834  .debug_str:00000000000042d1 .LASF2563
C:\Users\CYMR90~1\AppData\Local\Temp\ccLNaGfc.s:27575  .debug_str:0000000000017391 .LASF2564
C:\Users\CYMR90~1\AppData\Local\Temp\ccLNaGfc.s:32329  .debug_str:000000000002a11d .LASF2565
C:\Users\CYMR90~1\AppData\Local\Temp\ccLNaGfc.s:25682  .debug_str:000000000000f85f .LASF2566
C:\Users\CYMR90~1\AppData\Local\Temp\ccLNaGfc.s:30403  .debug_str:00000000000226db .LASF2567
C:\Users\CYMR90~1\AppData\Local\Temp\ccLNaGfc.s:23714  .debug_str:0000000000007a89 .LASF2568
C:\Users\CYMR90~1\AppData\Local\Temp\ccLNaGfc.s:26948  .debug_str:0000000000014979 .LASF2569
C:\Users\CYMR90~1\AppData\Local\Temp\ccLNaGfc.s:30107  .debug_str:0000000000021492 .LASF2570
C:\Users\CYMR90~1\AppData\Local\Temp\ccLNaGfc.s:21946  .debug_str:0000000000000983 .LASF2571
C:\Users\CYMR90~1\AppData\Local\Temp\ccLNaGfc.s:25192  .debug_str:000000000000dabc .LASF2572
C:\Users\CYMR90~1\AppData\Local\Temp\ccLNaGfc.s:28433  .debug_str:000000000001ab67 .LASF2573
C:\Users\CYMR90~1\AppData\Local\Temp\ccLNaGfc.s:31649  .debug_str:00000000000274c0 .LASF2574
C:\Users\CYMR90~1\AppData\Local\Temp\ccLNaGfc.s:23478  .debug_str:0000000000006b70 .LASF2575
C:\Users\CYMR90~1\AppData\Local\Temp\ccLNaGfc.s:26726  .debug_str:0000000000013bb1 .LASF2576
C:\Users\CYMR90~1\AppData\Local\Temp\ccLNaGfc.s:29965  .debug_str:0000000000020c17 .LASF2577
C:\Users\CYMR90~1\AppData\Local\Temp\ccLNaGfc.s:27252  .debug_str:0000000000015c24 .LASF2578
C:\Users\CYMR90~1\AppData\Local\Temp\ccLNaGfc.s:32017  .debug_str:0000000000028dd8 .LASF2579
C:\Users\CYMR90~1\AppData\Local\Temp\ccLNaGfc.s:25364  .debug_str:000000000000e4ec .LASF2580
C:\Users\CYMR90~1\AppData\Local\Temp\ccLNaGfc.s:23416  .debug_str:000000000000677d .LASF2581
C:\Users\CYMR90~1\AppData\Local\Temp\ccLNaGfc.s:28169  .debug_str:0000000000019894 .LASF2582
C:\Users\CYMR90~1\AppData\Local\Temp\ccLNaGfc.s:26682  .debug_str:00000000000138fe .LASF2583
C:\Users\CYMR90~1\AppData\Local\Temp\ccLNaGfc.s:29907  .debug_str:0000000000020851 .LASF2584
C:\Users\CYMR90~1\AppData\Local\Temp\ccLNaGfc.s:33155  .debug_str:000000000002d582 .LASF2585
C:\Users\CYMR90~1\AppData\Local\Temp\ccLNaGfc.s:28845  .debug_str:000000000001c5bb .LASF2586
C:\Users\CYMR90~1\AppData\Local\Temp\ccLNaGfc.s:30937  .debug_str:00000000000246bd .LASF2587
C:\Users\CYMR90~1\AppData\Local\Temp\ccLNaGfc.s:31363  .debug_str:0000000000026375 .LASF2588
C:\Users\CYMR90~1\AppData\Local\Temp\ccLNaGfc.s:27641  .debug_str:000000000001775a .LASF2589
C:\Users\CYMR90~1\AppData\Local\Temp\ccLNaGfc.s:26452  .debug_str:00000000000129cf .LASF2590
C:\Users\CYMR90~1\AppData\Local\Temp\ccLNaGfc.s:29645  .debug_str:000000000001f8ca .LASF2591
C:\Users\CYMR90~1\AppData\Local\Temp\ccLNaGfc.s:32923  .debug_str:000000000002c694 .LASF2592
C:\Users\CYMR90~1\AppData\Local\Temp\ccLNaGfc.s:30407  .debug_str:000000000002270d .LASF2593
C:\Users\CYMR90~1\AppData\Local\Temp\ccLNaGfc.s:32387  .debug_str:000000000002a467 .LASF2594
C:\Users\CYMR90~1\AppData\Local\Temp\ccLNaGfc.s:22752  .debug_str:0000000000003d74 .LASF2595
C:\Users\CYMR90~1\AppData\Local\Temp\ccLNaGfc.s:27488  .debug_str:0000000000016bf0 .LASF2596
C:\Users\CYMR90~1\AppData\Local\Temp\ccLNaGfc.s:32249  .debug_str:0000000000029ca0 .LASF2597
C:\Users\CYMR90~1\AppData\Local\Temp\ccLNaGfc.s:25592  .debug_str:000000000000f2d4 .LASF2598
C:\Users\CYMR90~1\AppData\Local\Temp\ccLNaGfc.s:27454  .debug_str:0000000000016993 .LASF2599
C:\Users\CYMR90~1\AppData\Local\Temp\ccLNaGfc.s:32215  .debug_str:0000000000029a1b .LASF2600
C:\Users\CYMR90~1\AppData\Local\Temp\ccLNaGfc.s:25568  .debug_str:000000000000f187 .LASF2601
C:\Users\CYMR90~1\AppData\Local\Temp\ccLNaGfc.s:30289  .debug_str:0000000000021fdf .LASF2602
C:\Users\CYMR90~1\AppData\Local\Temp\ccLNaGfc.s:28925  .debug_str:000000000001ca4f .LASF2603
C:\Users\CYMR90~1\AppData\Local\Temp\ccLNaGfc.s:22260  .debug_str:0000000000001e63 .LASF2604
C:\Users\CYMR90~1\AppData\Local\Temp\ccLNaGfc.s:26988  .debug_str:0000000000014bd7 .LASF2605
C:\Users\CYMR90~1\AppData\Local\Temp\ccLNaGfc.s:26784  .debug_str:0000000000013f30 .LASF2606
C:\Users\CYMR90~1\AppData\Local\Temp\ccLNaGfc.s:25100  .debug_str:000000000000d4f8 .LASF2607
C:\Users\CYMR90~1\AppData\Local\Temp\ccLNaGfc.s:29809  .debug_str:00000000000202b6 .LASF2608
C:\Users\CYMR90~1\AppData\Local\Temp\ccLNaGfc.s:28591  .debug_str:000000000001b5ca .LASF2609
C:\Users\CYMR90~1\AppData\Local\Temp\ccLNaGfc.s:29423  .debug_str:000000000001eb15 .LASF2610
C:\Users\CYMR90~1\AppData\Local\Temp\ccLNaGfc.s:22768  .debug_str:0000000000003e6c .LASF2611
C:\Users\CYMR90~1\AppData\Local\Temp\ccLNaGfc.s:27502  .debug_str:0000000000016d74 .LASF2612
C:\Users\CYMR90~1\AppData\Local\Temp\ccLNaGfc.s:24100  .debug_str:0000000000009441 .LASF2613
C:\Users\CYMR90~1\AppData\Local\Temp\ccLNaGfc.s:30909  .debug_str:0000000000024468 .LASF2614
C:\Users\CYMR90~1\AppData\Local\Temp\ccLNaGfc.s:22268  .debug_str:0000000000001ee3 .LASF2615
C:\Users\CYMR90~1\AppData\Local\Temp\ccLNaGfc.s:25532  .debug_str:000000000000ef77 .LASF2616
C:\Users\CYMR90~1\AppData\Local\Temp\ccLNaGfc.s:31703  .debug_str:0000000000027901 .LASF2617
C:\Users\CYMR90~1\AppData\Local\Temp\ccLNaGfc.s:31989  .debug_str:0000000000028c3b .LASF2618
C:\Users\CYMR90~1\AppData\Local\Temp\ccLNaGfc.s:23722  .debug_str:0000000000007af5 .LASF2619
C:\Users\CYMR90~1\AppData\Local\Temp\ccLNaGfc.s:25910  .debug_str:000000000001074e .LASF2620
C:\Users\CYMR90~1\AppData\Local\Temp\ccLNaGfc.s:24270  .debug_str:0000000000009efe .LASF2621
C:\Users\CYMR90~1\AppData\Local\Temp\ccLNaGfc.s:22036  .debug_str:0000000000000ff8 .LASF2622
C:\Users\CYMR90~1\AppData\Local\Temp\ccLNaGfc.s:25292  .debug_str:000000000000e0bd .LASF2623
C:\Users\CYMR90~1\AppData\Local\Temp\ccLNaGfc.s:23814  .debug_str:000000000000815b .LASF2624
C:\Users\CYMR90~1\AppData\Local\Temp\ccLNaGfc.s:27809  .debug_str:000000000001820b .LASF2625
C:\Users\CYMR90~1\AppData\Local\Temp\ccLNaGfc.s:32573  .debug_str:000000000002af85 .LASF2626
C:\Users\CYMR90~1\AppData\Local\Temp\ccLNaGfc.s:25914  .debug_str:0000000000010785 .LASF2627
C:\Users\CYMR90~1\AppData\Local\Temp\ccLNaGfc.s:30645  .debug_str:000000000002350b .LASF2628
C:\Users\CYMR90~1\AppData\Local\Temp\ccLNaGfc.s:31249  .debug_str:0000000000025bff .LASF2629
C:\Users\CYMR90~1\AppData\Local\Temp\ccLNaGfc.s:28707  .debug_str:000000000001bce1 .LASF2630
C:\Users\CYMR90~1\AppData\Local\Temp\ccLNaGfc.s:26100  .debug_str:00000000000112ab .LASF2631
C:\Users\CYMR90~1\AppData\Local\Temp\ccLNaGfc.s:32437  .debug_str:000000000002a704 .LASF2632
C:\Users\CYMR90~1\AppData\Local\Temp\ccLNaGfc.s:28321  .debug_str:000000000001a298 .LASF2633
C:\Users\CYMR90~1\AppData\Local\Temp\ccLNaGfc.s:23914  .debug_str:00000000000087f9 .LASF2634
C:\Users\CYMR90~1\AppData\Local\Temp\ccLNaGfc.s:24894  .debug_str:000000000000c74c .LASF2635
C:\Users\CYMR90~1\AppData\Local\Temp\ccLNaGfc.s:32455  .debug_str:000000000002a83f .LASF2636
C:\Users\CYMR90~1\AppData\Local\Temp\ccLNaGfc.s:22676  .debug_str:000000000000388c .LASF2637
C:\Users\CYMR90~1\AppData\Local\Temp\ccLNaGfc.s:31583  .debug_str:00000000000270a0 .LASF2638
C:\Users\CYMR90~1\AppData\Local\Temp\ccLNaGfc.s:23042  .debug_str:0000000000005107 .LASF2639
C:\Users\CYMR90~1\AppData\Local\Temp\ccLNaGfc.s:26446  .debug_str:000000000001296c .LASF2640
C:\Users\CYMR90~1\AppData\Local\Temp\ccLNaGfc.s:23084  .debug_str:0000000000005387 .LASF2641
C:\Users\CYMR90~1\AppData\Local\Temp\ccLNaGfc.s:29975  .debug_str:0000000000020c8f .LASF2642
C:\Users\CYMR90~1\AppData\Local\Temp\ccLNaGfc.s:26722  .debug_str:0000000000013b75 .LASF2643
C:\Users\CYMR90~1\AppData\Local\Temp\ccLNaGfc.s:25500  .debug_str:000000000000edc0 .LASF2644
C:\Users\CYMR90~1\AppData\Local\Temp\ccLNaGfc.s:24556  .debug_str:000000000000b0c1 .LASF2645
C:\Users\CYMR90~1\AppData\Local\Temp\ccLNaGfc.s:22098  .debug_str:0000000000001352 .LASF2646
C:\Users\CYMR90~1\AppData\Local\Temp\ccLNaGfc.s:24930  .debug_str:000000000000c99e .LASF2647
C:\Users\CYMR90~1\AppData\Local\Temp\ccLNaGfc.s:26730  .debug_str:0000000000013bec .LASF2648
C:\Users\CYMR90~1\AppData\Local\Temp\ccLNaGfc.s:29971  .debug_str:0000000000020c67 .LASF2649
C:\Users\CYMR90~1\AppData\Local\Temp\ccLNaGfc.s:21818  .debug_str:00000000000001fd .LASF2650
C:\Users\CYMR90~1\AppData\Local\Temp\ccLNaGfc.s:25060  .debug_str:000000000000d219 .LASF2651
C:\Users\CYMR90~1\AppData\Local\Temp\ccLNaGfc.s:28269  .debug_str:0000000000019f95 .LASF2652
C:\Users\CYMR90~1\AppData\Local\Temp\ccLNaGfc.s:22014  .debug_str:0000000000000e3c .LASF2653
C:\Users\CYMR90~1\AppData\Local\Temp\ccLNaGfc.s:31767  .debug_str:0000000000027c80 .LASF2654
C:\Users\CYMR90~1\AppData\Local\Temp\ccLNaGfc.s:26508  .debug_str:0000000000012d82 .LASF2655
C:\Users\CYMR90~1\AppData\Local\Temp\ccLNaGfc.s:28513  .debug_str:000000000001b083 .LASF2656
C:\Users\CYMR90~1\AppData\Local\Temp\ccLNaGfc.s:32985  .debug_str:000000000002ca86 .LASF2657
C:\Users\CYMR90~1\AppData\Local\Temp\ccLNaGfc.s:22130  .debug_str:0000000000001544 .LASF2658
C:\Users\CYMR90~1\AppData\Local\Temp\ccLNaGfc.s:26860  .debug_str:00000000000143ec .LASF2659
C:\Users\CYMR90~1\AppData\Local\Temp\ccLNaGfc.s:31619  .debug_str:000000000002731b .LASF2660
C:\Users\CYMR90~1\AppData\Local\Temp\ccLNaGfc.s:32655  .debug_str:000000000002b456 .LASF2661
C:\Users\CYMR90~1\AppData\Local\Temp\ccLNaGfc.s:28849  .debug_str:000000000001c5e9 .LASF2662
C:\Users\CYMR90~1\AppData\Local\Temp\ccLNaGfc.s:25108  .debug_str:000000000000d550 .LASF2663
C:\Users\CYMR90~1\AppData\Local\Temp\ccLNaGfc.s:30441  .debug_str:00000000000228eb .LASF2664
C:\Users\CYMR90~1\AppData\Local\Temp\ccLNaGfc.s:22252  .debug_str:0000000000001def .LASF2665
C:\Users\CYMR90~1\AppData\Local\Temp\ccLNaGfc.s:25516  .debug_str:000000000000eea7 .LASF2666
C:\Users\CYMR90~1\AppData\Local\Temp\ccLNaGfc.s:28731  .debug_str:000000000001be43 .LASF2667
C:\Users\CYMR90~1\AppData\Local\Temp\ccLNaGfc.s:31883  .debug_str:00000000000284ae .LASF2668
C:\Users\CYMR90~1\AppData\Local\Temp\ccLNaGfc.s:25438  .debug_str:000000000000e984 .LASF2669
C:\Users\CYMR90~1\AppData\Local\Temp\ccLNaGfc.s:26942  .debug_str:0000000000014929 .LASF2670
C:\Users\CYMR90~1\AppData\Local\Temp\ccLNaGfc.s:26982  .debug_str:0000000000014b92 .LASF2671
C:\Users\CYMR90~1\AppData\Local\Temp\ccLNaGfc.s:25372  .debug_str:000000000000e546 .LASF2672
C:\Users\CYMR90~1\AppData\Local\Temp\ccLNaGfc.s:25278  .debug_str:000000000000e004 .LASF2673
C:\Users\CYMR90~1\AppData\Local\Temp\ccLNaGfc.s:27510  .debug_str:0000000000016dee .LASF2674
C:\Users\CYMR90~1\AppData\Local\Temp\ccLNaGfc.s:30439  .debug_str:00000000000228d6 .LASF2675
C:\Users\CYMR90~1\AppData\Local\Temp\ccLNaGfc.s:25614  .debug_str:000000000000f44e .LASF2676
C:\Users\CYMR90~1\AppData\Local\Temp\ccLNaGfc.s:30339  .debug_str:000000000002233a .LASF2677
C:\Users\CYMR90~1\AppData\Local\Temp\ccLNaGfc.s:30511  .debug_str:0000000000022cfb .LASF2678
C:\Users\CYMR90~1\AppData\Local\Temp\ccLNaGfc.s:28425  .debug_str:000000000001ab01 .LASF2679
C:\Users\CYMR90~1\AppData\Local\Temp\ccLNaGfc.s:27669  .debug_str:0000000000017919 .LASF2680
C:\Users\CYMR90~1\AppData\Local\Temp\ccLNaGfc.s:25386  .debug_str:000000000000e62b .LASF2681
C:\Users\CYMR90~1\AppData\Local\Temp\ccLNaGfc.s:26568  .debug_str:000000000001315f .LASF2682
C:\Users\CYMR90~1\AppData\Local\Temp\ccLNaGfc.s:26534  .debug_str:0000000000012f1e .LASF2683
C:\Users\CYMR90~1\AppData\Local\Temp\ccLNaGfc.s:22582  .debug_str:00000000000032a5 .LASF2684
C:\Users\CYMR90~1\AppData\Local\Temp\ccLNaGfc.s:22466  .debug_str:0000000000002b1d .LASF2685
C:\Users\CYMR90~1\AppData\Local\Temp\ccLNaGfc.s:30093  .debug_str:00000000000213c3 .LASF2686
C:\Users\CYMR90~1\AppData\Local\Temp\ccLNaGfc.s:31081  .debug_str:000000000002509f .LASF2687
C:\Users\CYMR90~1\AppData\Local\Temp\ccLNaGfc.s:30767  .debug_str:0000000000023c3d .LASF2688
C:\Users\CYMR90~1\AppData\Local\Temp\ccLNaGfc.s:24616  .debug_str:000000000000b4f4 .LASF2689
C:\Users\CYMR90~1\AppData\Local\Temp\ccLNaGfc.s:27811  .debug_str:0000000000018222 .LASF2690
C:\Users\CYMR90~1\AppData\Local\Temp\ccLNaGfc.s:31059  .debug_str:0000000000024f1b .LASF2691
C:\Users\CYMR90~1\AppData\Local\Temp\ccLNaGfc.s:22888  .debug_str:000000000000469d .LASF2692
C:\Users\CYMR90~1\AppData\Local\Temp\ccLNaGfc.s:24972  .debug_str:000000000000cce4 .LASF2693
C:\Users\CYMR90~1\AppData\Local\Temp\ccLNaGfc.s:29257  .debug_str:000000000001e0d9 .LASF2694
C:\Users\CYMR90~1\AppData\Local\Temp\ccLNaGfc.s:33083  .debug_str:000000000002d0c4 .LASF2695
C:\Users\CYMR90~1\AppData\Local\Temp\ccLNaGfc.s:24372  .debug_str:000000000000a532 .LASF2696
C:\Users\CYMR90~1\AppData\Local\Temp\ccLNaGfc.s:27581  .debug_str:00000000000173ee .LASF2697
C:\Users\CYMR90~1\AppData\Local\Temp\ccLNaGfc.s:30831  .debug_str:0000000000024044 .LASF2698
C:\Users\CYMR90~1\AppData\Local\Temp\ccLNaGfc.s:28985  .debug_str:000000000001cea1 .LASF2699
C:\Users\CYMR90~1\AppData\Local\Temp\ccLNaGfc.s:22314  .debug_str:0000000000002197 .LASF2700
C:\Users\CYMR90~1\AppData\Local\Temp\ccLNaGfc.s:27044  .debug_str:0000000000014f90 .LASF2701
C:\Users\CYMR90~1\AppData\Local\Temp\ccLNaGfc.s:31801  .debug_str:0000000000027eec .LASF2702
C:\Users\CYMR90~1\AppData\Local\Temp\ccLNaGfc.s:25154  .debug_str:000000000000d8da .LASF2703
C:\Users\CYMR90~1\AppData\Local\Temp\ccLNaGfc.s:29873  .debug_str:00000000000206a6 .LASF2704
C:\Users\CYMR90~1\AppData\Local\Temp\ccLNaGfc.s:32479  .debug_str:000000000002aa02 .LASF2705
C:\Users\CYMR90~1\AppData\Local\Temp\ccLNaGfc.s:32689  .debug_str:000000000002b6a0 .LASF2706
C:\Users\CYMR90~1\AppData\Local\Temp\ccLNaGfc.s:28461  .debug_str:000000000001ad00 .LASF2707
C:\Users\CYMR90~1\AppData\Local\Temp\ccLNaGfc.s:23618  .debug_str:0000000000007475 .LASF2708
C:\Users\CYMR90~1\AppData\Local\Temp\ccLNaGfc.s:23922  .debug_str:0000000000008871 .LASF2709
C:\Users\CYMR90~1\AppData\Local\Temp\ccLNaGfc.s:27871  .debug_str:000000000001858f .LASF2710
C:\Users\CYMR90~1\AppData\Local\Temp\ccLNaGfc.s:32789  .debug_str:000000000002bd60 .LASF2711
C:\Users\CYMR90~1\AppData\Local\Temp\ccLNaGfc.s:26310  .debug_str:0000000000012086 .LASF2712
C:\Users\CYMR90~1\AppData\Local\Temp\ccLNaGfc.s:27136  .debug_str:000000000001557e .LASF2713
C:\Users\CYMR90~1\AppData\Local\Temp\ccLNaGfc.s:23328  .debug_str:0000000000006225 .LASF2714
C:\Users\CYMR90~1\AppData\Local\Temp\ccLNaGfc.s:30121  .debug_str:0000000000021550 .LASF2715
C:\Users\CYMR90~1\AppData\Local\Temp\ccLNaGfc.s:31499  .debug_str:0000000000026bf0 .LASF2716
C:\Users\CYMR90~1\AppData\Local\Temp\ccLNaGfc.s:32891  .debug_str:000000000002c45f .LASF2717
C:\Users\CYMR90~1\AppData\Local\Temp\ccLNaGfc.s:22844  .debug_str:0000000000004403 .LASF2718
C:\Users\CYMR90~1\AppData\Local\Temp\ccLNaGfc.s:26574  .debug_str:00000000000131b6 .LASF2719
C:\Users\CYMR90~1\AppData\Local\Temp\ccLNaGfc.s:31993  .debug_str:0000000000028c69 .LASF2720
C:\Users\CYMR90~1\AppData\Local\Temp\ccLNaGfc.s:29939  .debug_str:0000000000020a3a .LASF2721
C:\Users\CYMR90~1\AppData\Local\Temp\ccLNaGfc.s:28805  .debug_str:000000000001c31f .LASF2722
C:\Users\CYMR90~1\AppData\Local\Temp\ccLNaGfc.s:28367  .debug_str:000000000001a6d8 .LASF2723
C:\Users\CYMR90~1\AppData\Local\Temp\ccLNaGfc.s:28287  .debug_str:000000000001a083 .LASF2724
C:\Users\CYMR90~1\AppData\Local\Temp\ccLNaGfc.s:30549  .debug_str:0000000000022f42 .LASF2725
C:\Users\CYMR90~1\AppData\Local\Temp\ccLNaGfc.s:28801  .debug_str:000000000001c2f2 .LASF2726
C:\Users\CYMR90~1\AppData\Local\Temp\ccLNaGfc.s:27933  .debug_str:0000000000018952 .LASF2727
C:\Users\CYMR90~1\AppData\Local\Temp\ccLNaGfc.s:29343  .debug_str:000000000001e681 .LASF2728
C:\Users\CYMR90~1\AppData\Local\Temp\ccLNaGfc.s:26512  .debug_str:0000000000012db8 .LASF2729
C:\Users\CYMR90~1\AppData\Local\Temp\ccLNaGfc.s:25242  .debug_str:000000000000dda8 .LASF2730
C:\Users\CYMR90~1\AppData\Local\Temp\ccLNaGfc.s:24366  .debug_str:000000000000a4cf .LASF2731
C:\Users\CYMR90~1\AppData\Local\Temp\ccLNaGfc.s:23464  .debug_str:0000000000006a9e .LASF2732
C:\Users\CYMR90~1\AppData\Local\Temp\ccLNaGfc.s:22586  .debug_str:00000000000032db .LASF2733
C:\Users\CYMR90~1\AppData\Local\Temp\ccLNaGfc.s:33127  .debug_str:000000000002d3b6 .LASF2734
C:\Users\CYMR90~1\AppData\Local\Temp\ccLNaGfc.s:32253  .debug_str:0000000000029cd1 .LASF2735
C:\Users\CYMR90~1\AppData\Local\Temp\ccLNaGfc.s:30991  .debug_str:0000000000024a25 .LASF2736
C:\Users\CYMR90~1\AppData\Local\Temp\ccLNaGfc.s:22808  .debug_str:0000000000004150 .LASF2737
C:\Users\CYMR90~1\AppData\Local\Temp\ccLNaGfc.s:26086  .debug_str:00000000000111e9 .LASF2738
C:\Users\CYMR90~1\AppData\Local\Temp\ccLNaGfc.s:29281  .debug_str:000000000001e2c8 .LASF2739
C:\Users\CYMR90~1\AppData\Local\Temp\ccLNaGfc.s:32543  .debug_str:000000000002ad9b .LASF2740
C:\Users\CYMR90~1\AppData\Local\Temp\ccLNaGfc.s:24386  .debug_str:000000000000a65b .LASF2741
C:\Users\CYMR90~1\AppData\Local\Temp\ccLNaGfc.s:30627  .debug_str:000000000002342a .LASF2742
C:\Users\CYMR90~1\AppData\Local\Temp\ccLNaGfc.s:33085  .debug_str:000000000002d0d6 .LASF2743
C:\Users\CYMR90~1\AppData\Local\Temp\ccLNaGfc.s:26338  .debug_str:000000000001226c .LASF2744
C:\Users\CYMR90~1\AppData\Local\Temp\ccLNaGfc.s:27196  .debug_str:00000000000158eb .LASF2745
C:\Users\CYMR90~1\AppData\Local\Temp\ccLNaGfc.s:22398  .debug_str:0000000000002679 .LASF2746
C:\Users\CYMR90~1\AppData\Local\Temp\ccLNaGfc.s:29053  .debug_str:000000000001d465 .LASF2747
C:\Users\CYMR90~1\AppData\Local\Temp\ccLNaGfc.s:28429  .debug_str:000000000001ab2f .LASF2748
C:\Users\CYMR90~1\AppData\Local\Temp\ccLNaGfc.s:28467  .debug_str:000000000001ad8b .LASF2749
C:\Users\CYMR90~1\AppData\Local\Temp\ccLNaGfc.s:27416  .debug_str:00000000000166da .LASF2750
C:\Users\CYMR90~1\AppData\Local\Temp\ccLNaGfc.s:24686  .debug_str:000000000000b9e4 .LASF2751
C:\Users\CYMR90~1\AppData\Local\Temp\ccLNaGfc.s:26812  .debug_str:00000000000140dd .LASF2752
C:\Users\CYMR90~1\AppData\Local\Temp\ccLNaGfc.s:31413  .debug_str:0000000000026693 .LASF2753
C:\Users\CYMR90~1\AppData\Local\Temp\ccLNaGfc.s:28639  .debug_str:000000000001b8f8 .LASF2754
C:\Users\CYMR90~1\AppData\Local\Temp\ccLNaGfc.s:23310  .debug_str:0000000000006130 .LASF2755
C:\Users\CYMR90~1\AppData\Local\Temp\ccLNaGfc.s:25240  .debug_str:000000000000dd86 .LASF2756
C:\Users\CYMR90~1\AppData\Local\Temp\ccLNaGfc.s:27120  .debug_str:000000000001549c .LASF2757
C:\Users\CYMR90~1\AppData\Local\Temp\ccLNaGfc.s:31777  .debug_str:0000000000027d33 .LASF2758
C:\Users\CYMR90~1\AppData\Local\Temp\ccLNaGfc.s:24806  .debug_str:000000000000c244 .LASF2759
C:\Users\CYMR90~1\AppData\Local\Temp\ccLNaGfc.s:25366  .debug_str:000000000000e505 .LASF2760
C:\Users\CYMR90~1\AppData\Local\Temp\ccLNaGfc.s:29383  .debug_str:000000000001e8d9 .LASF2761
C:\Users\CYMR90~1\AppData\Local\Temp\ccLNaGfc.s:23060  .debug_str:000000000000521c .LASF2762
C:\Users\CYMR90~1\AppData\Local\Temp\ccLNaGfc.s:32649  .debug_str:000000000002b3fd .LASF2763
C:\Users\CYMR90~1\AppData\Local\Temp\ccLNaGfc.s:30843  .debug_str:00000000000240ee .LASF2764
C:\Users\CYMR90~1\AppData\Local\Temp\ccLNaGfc.s:31651  .debug_str:00000000000274d7 .LASF2765
C:\Users\CYMR90~1\AppData\Local\Temp\ccLNaGfc.s:23506  .debug_str:0000000000006d1f .LASF2766
C:\Users\CYMR90~1\AppData\Local\Temp\ccLNaGfc.s:33159  .debug_str:000000000002d5b6 .LASF2767
C:\Users\CYMR90~1\AppData\Local\Temp\ccLNaGfc.s:22558  .debug_str:000000000000310c .LASF2768
C:\Users\CYMR90~1\AppData\Local\Temp\ccLNaGfc.s:22292  .debug_str:000000000000205f .LASF2769
C:\Users\CYMR90~1\AppData\Local\Temp\ccLNaGfc.s:29413  .debug_str:000000000001eaa9 .LASF2770
C:\Users\CYMR90~1\AppData\Local\Temp\ccLNaGfc.s:22536  .debug_str:0000000000002fb3 .LASF2771
C:\Users\CYMR90~1\AppData\Local\Temp\ccLNaGfc.s:21838  .debug_str:0000000000000334 .LASF2772
C:\Users\CYMR90~1\AppData\Local\Temp\ccLNaGfc.s:32941  .debug_str:000000000002c771 .LASF2773
C:\Users\CYMR90~1\AppData\Local\Temp\ccLNaGfc.s:31555  .debug_str:0000000000026f32 .LASF2774
C:\Users\CYMR90~1\AppData\Local\Temp\ccLNaGfc.s:23296  .debug_str:000000000000606b .LASF2775
C:\Users\CYMR90~1\AppData\Local\Temp\ccLNaGfc.s:32621  .debug_str:000000000002b275 .LASF2776
C:\Users\CYMR90~1\AppData\Local\Temp\ccLNaGfc.s:28969  .debug_str:000000000001cdb5 .LASF2777
C:\Users\CYMR90~1\AppData\Local\Temp\ccLNaGfc.s:29993  .debug_str:0000000000020dc6 .LASF2778
C:\Users\CYMR90~1\AppData\Local\Temp\ccLNaGfc.s:25742  .debug_str:000000000000fc7c .LASF2779
C:\Users\CYMR90~1\AppData\Local\Temp\ccLNaGfc.s:24878  .debug_str:000000000000c656 .LASF2780
C:\Users\CYMR90~1\AppData\Local\Temp\ccLNaGfc.s:28695  .debug_str:000000000001bc63 .LASF2781
C:\Users\CYMR90~1\AppData\Local\Temp\ccLNaGfc.s:31953  .debug_str:00000000000289a9 .LASF2782
C:\Users\CYMR90~1\AppData\Local\Temp\ccLNaGfc.s:30397  .debug_str:0000000000022666 .LASF2783
C:\Users\CYMR90~1\AppData\Local\Temp\ccLNaGfc.s:30009  .debug_str:0000000000020eb2 .LASF2784
C:\Users\CYMR90~1\AppData\Local\Temp\ccLNaGfc.s:22898  .debug_str:0000000000004744 .LASF2785
C:\Users\CYMR90~1\AppData\Local\Temp\ccLNaGfc.s:29019  .debug_str:000000000001d0f8 .LASF2786
C:\Users\CYMR90~1\AppData\Local\Temp\ccLNaGfc.s:32213  .debug_str:00000000000299fa .LASF2787
C:\Users\CYMR90~1\AppData\Local\Temp\ccLNaGfc.s:31351  .debug_str:00000000000262d3 .LASF2788
C:\Users\CYMR90~1\AppData\Local\Temp\ccLNaGfc.s:29153  .debug_str:000000000001da55 .LASF2789
C:\Users\CYMR90~1\AppData\Local\Temp\ccLNaGfc.s:25176  .debug_str:000000000000d9f5 .LASF2790
C:\Users\CYMR90~1\AppData\Local\Temp\ccLNaGfc.s:32711  .debug_str:000000000002b82e .LASF2791
C:\Users\CYMR90~1\AppData\Local\Temp\ccLNaGfc.s:27805  .debug_str:00000000000181ba .LASF2792
C:\Users\CYMR90~1\AppData\Local\Temp\ccLNaGfc.s:22766  .debug_str:0000000000003e49 .LASF2793
C:\Users\CYMR90~1\AppData\Local\Temp\ccLNaGfc.s:32753  .debug_str:000000000002bacc .LASF2794
C:\Users\CYMR90~1\AppData\Local\Temp\ccLNaGfc.s:25436  .debug_str:000000000000e962 .LASF2795
C:\Users\CYMR90~1\AppData\Local\Temp\ccLNaGfc.s:25558  .debug_str:000000000000f0d8 .LASF2796
C:\Users\CYMR90~1\AppData\Local\Temp\ccLNaGfc.s:27026  .debug_str:0000000000014e39 .LASF2797
C:\Users\CYMR90~1\AppData\Local\Temp\ccLNaGfc.s:26926  .debug_str:00000000000147f8 .LASF2798
C:\Users\CYMR90~1\AppData\Local\Temp\ccLNaGfc.s:25584  .debug_str:000000000000f25e .LASF2799
C:\Users\CYMR90~1\AppData\Local\Temp\ccLNaGfc.s:25266  .debug_str:000000000000df18 .LASF2800
C:\Users\CYMR90~1\AppData\Local\Temp\ccLNaGfc.s:30783  .debug_str:0000000000023d62 .LASF2801
C:\Users\CYMR90~1\AppData\Local\Temp\ccLNaGfc.s:27615  .debug_str:00000000000175e8 .LASF2802
C:\Users\CYMR90~1\AppData\Local\Temp\ccLNaGfc.s:26716  .debug_str:0000000000013b13 .LASF2803
C:\Users\CYMR90~1\AppData\Local\Temp\ccLNaGfc.s:23992  .debug_str:0000000000008d8b .LASF2804
C:\Users\CYMR90~1\AppData\Local\Temp\ccLNaGfc.s:32465  .debug_str:000000000002a8f7 .LASF2805
C:\Users\CYMR90~1\AppData\Local\Temp\ccLNaGfc.s:32931  .debug_str:000000000002c6f0 .LASF2806
C:\Users\CYMR90~1\AppData\Local\Temp\ccLNaGfc.s:27110  .debug_str:00000000000153f0 .LASF2807
C:\Users\CYMR90~1\AppData\Local\Temp\ccLNaGfc.s:23136  .debug_str:00000000000056b3 .LASF2808
C:\Users\CYMR90~1\AppData\Local\Temp\ccLNaGfc.s:27290  .debug_str:0000000000015edf .LASF2809
C:\Users\CYMR90~1\AppData\Local\Temp\ccLNaGfc.s:32893  .debug_str:000000000002c47f .LASF2810
C:\Users\CYMR90~1\AppData\Local\Temp\ccLNaGfc.s:25938  .debug_str:00000000000108e8 .LASF2811
C:\Users\CYMR90~1\AppData\Local\Temp\ccLNaGfc.s:24408  .debug_str:000000000000a7be .LASF2812
C:\Users\CYMR90~1\AppData\Local\Temp\ccLNaGfc.s:21936  .debug_str:00000000000008e8 .LASF2813
C:\Users\CYMR90~1\AppData\Local\Temp\ccLNaGfc.s:29983  .debug_str:0000000000020d0c .LASF2814
C:\Users\CYMR90~1\AppData\Local\Temp\ccLNaGfc.s:33003  .debug_str:000000000002cb5c .LASF2815
C:\Users\CYMR90~1\AppData\Local\Temp\ccLNaGfc.s:30903  .debug_str:0000000000024404 .LASF2816
C:\Users\CYMR90~1\AppData\Local\Temp\ccLNaGfc.s:22164  .debug_str:00000000000017d7 .LASF2817
C:\Users\CYMR90~1\AppData\Local\Temp\ccLNaGfc.s:31545  .debug_str:0000000000026ea6 .LASF2818
C:\Users\CYMR90~1\AppData\Local\Temp\ccLNaGfc.s:33133  .debug_str:000000000002d404 .LASF2819
C:\Users\CYMR90~1\AppData\Local\Temp\ccLNaGfc.s:25456  .debug_str:000000000000ea77 .LASF2820
C:\Users\CYMR90~1\AppData\Local\Temp\ccLNaGfc.s:28817  .debug_str:000000000001c3ed .LASF2821
C:\Users\CYMR90~1\AppData\Local\Temp\ccLNaGfc.s:30555  .debug_str:0000000000022fb6 .LASF2822
C:\Users\CYMR90~1\AppData\Local\Temp\ccLNaGfc.s:26068  .debug_str:000000000001110d .LASF2823
C:\Users\CYMR90~1\AppData\Local\Temp\ccLNaGfc.s:25174  .debug_str:000000000000d9dc .LASF2824
C:\Users\CYMR90~1\AppData\Local\Temp\ccLNaGfc.s:29973  .debug_str:0000000000020c7a .LASF2825
C:\Users\CYMR90~1\AppData\Local\Temp\ccLNaGfc.s:32325  .debug_str:000000000002a0ec .LASF2826
C:\Users\CYMR90~1\AppData\Local\Temp\ccLNaGfc.s:24830  .debug_str:000000000000c3af .LASF2827
C:\Users\CYMR90~1\AppData\Local\Temp\ccLNaGfc.s:23606  .debug_str:00000000000073c0 .LASF2828
C:\Users\CYMR90~1\AppData\Local\Temp\ccLNaGfc.s:30145  .debug_str:00000000000216af .LASF2829
C:\Users\CYMR90~1\AppData\Local\Temp\ccLNaGfc.s:32347  .debug_str:000000000002a229 .LASF2830
C:\Users\CYMR90~1\AppData\Local\Temp\ccLNaGfc.s:22542  .debug_str:0000000000003015 .LASF2831
C:\Users\CYMR90~1\AppData\Local\Temp\ccLNaGfc.s:24892  .debug_str:000000000000c738 .LASF2832
C:\Users\CYMR90~1\AppData\Local\Temp\ccLNaGfc.s:25392  .debug_str:000000000000e68d .LASF2833
C:\Users\CYMR90~1\AppData\Local\Temp\ccLNaGfc.s:32743  .debug_str:000000000002ba40 .LASF2834
C:\Users\CYMR90~1\AppData\Local\Temp\ccLNaGfc.s:23576  .debug_str:0000000000007191 .LASF2835
C:\Users\CYMR90~1\AppData\Local\Temp\ccLNaGfc.s:29869  .debug_str:0000000000020667 .LASF2836
C:\Users\CYMR90~1\AppData\Local\Temp\ccLNaGfc.s:25776  .debug_str:000000000000fe97 .LASF2837
C:\Users\CYMR90~1\AppData\Local\Temp\ccLNaGfc.s:27627  .debug_str:00000000000176a8 .LASF2838
C:\Users\CYMR90~1\AppData\Local\Temp\ccLNaGfc.s:24218  .debug_str:0000000000009bba .LASF2839
C:\Users\CYMR90~1\AppData\Local\Temp\ccLNaGfc.s:24326  .debug_str:000000000000a25d .LASF2840
C:\Users\CYMR90~1\AppData\Local\Temp\ccLNaGfc.s:25342  .debug_str:000000000000e38c .LASF2841
C:\Users\CYMR90~1\AppData\Local\Temp\ccLNaGfc.s:24440  .debug_str:000000000000a959 .LASF2842
C:\Users\CYMR90~1\AppData\Local\Temp\ccLNaGfc.s:31125  .debug_str:0000000000025361 .LASF2843
C:\Users\CYMR90~1\AppData\Local\Temp\ccLNaGfc.s:25512  .debug_str:000000000000ee77 .LASF2844
C:\Users\CYMR90~1\AppData\Local\Temp\ccLNaGfc.s:26082  .debug_str:00000000000111aa .LASF2845
C:\Users\CYMR90~1\AppData\Local\Temp\ccLNaGfc.s:31879  .debug_str:0000000000028461 .LASF2846
C:\Users\CYMR90~1\AppData\Local\Temp\ccLNaGfc.s:23958  .debug_str:0000000000008b72 .LASF2847
C:\Users\CYMR90~1\AppData\Local\Temp\ccLNaGfc.s:32821  .debug_str:000000000002bf9a .LASF2848
C:\Users\CYMR90~1\AppData\Local\Temp\ccLNaGfc.s:31973  .debug_str:0000000000028b28 .LASF2849
C:\Users\CYMR90~1\AppData\Local\Temp\ccLNaGfc.s:32245  .debug_str:0000000000029c6e .LASF2850
C:\Users\CYMR90~1\AppData\Local\Temp\ccLNaGfc.s:22816  .debug_str:00000000000041d2 .LASF2851
C:\Users\CYMR90~1\AppData\Local\Temp\ccLNaGfc.s:24232  .debug_str:0000000000009cbd .LASF2852
C:\Users\CYMR90~1\AppData\Local\Temp\ccLNaGfc.s:28677  .debug_str:000000000001bb46 .LASF2853
C:\Users\CYMR90~1\AppData\Local\Temp\ccLNaGfc.s:31143  .debug_str:000000000002543d .LASF2854
C:\Users\CYMR90~1\AppData\Local\Temp\ccLNaGfc.s:25180  .debug_str:000000000000da39 .LASF2855
C:\Users\CYMR90~1\AppData\Local\Temp\ccLNaGfc.s:28275  .debug_str:0000000000019fe1 .LASF2856
C:\Users\CYMR90~1\AppData\Local\Temp\ccLNaGfc.s:22072  .debug_str:000000000000120a .LASF2857
C:\Users\CYMR90~1\AppData\Local\Temp\ccLNaGfc.s:25556  .debug_str:000000000000f0be .LASF2858
C:\Users\CYMR90~1\AppData\Local\Temp\ccLNaGfc.s:28875  .debug_str:000000000001c791 .LASF2859
C:\Users\CYMR90~1\AppData\Local\Temp\ccLNaGfc.s:32259  .debug_str:0000000000029d16 .LASF2860
C:\Users\CYMR90~1\AppData\Local\Temp\ccLNaGfc.s:22206  .debug_str:0000000000001b31 .LASF2861
C:\Users\CYMR90~1\AppData\Local\Temp\ccLNaGfc.s:24294  .debug_str:000000000000a05e .LASF2862
C:\Users\CYMR90~1\AppData\Local\Temp\ccLNaGfc.s:31683  .debug_str:00000000000277a5 .LASF2863
C:\Users\CYMR90~1\AppData\Local\Temp\ccLNaGfc.s:23844  .debug_str:00000000000083cf .LASF2864
C:\Users\CYMR90~1\AppData\Local\Temp\ccLNaGfc.s:25348  .debug_str:000000000000e405 .LASF2865
C:\Users\CYMR90~1\AppData\Local\Temp\ccLNaGfc.s:30907  .debug_str:0000000000024449 .LASF2866
C:\Users\CYMR90~1\AppData\Local\Temp\ccLNaGfc.s:28205  .debug_str:0000000000019b85 .LASF2867
C:\Users\CYMR90~1\AppData\Local\Temp\ccLNaGfc.s:29735  .debug_str:000000000001fe5b .LASF2868
C:\Users\CYMR90~1\AppData\Local\Temp\ccLNaGfc.s:29653  .debug_str:000000000001f946 .LASF2869
C:\Users\CYMR90~1\AppData\Local\Temp\ccLNaGfc.s:23818  .debug_str:0000000000008194 .LASF2870
C:\Users\CYMR90~1\AppData\Local\Temp\ccLNaGfc.s:31205  .debug_str:0000000000025927 .LASF2871
C:\Users\CYMR90~1\AppData\Local\Temp\ccLNaGfc.s:31373  .debug_str:0000000000026443 .LASF2872
C:\Users\CYMR90~1\AppData\Local\Temp\ccLNaGfc.s:31133  .debug_str:00000000000253d9 .LASF2873
C:\Users\CYMR90~1\AppData\Local\Temp\ccLNaGfc.s:22794  .debug_str:0000000000004031 .LASF2874
C:\Users\CYMR90~1\AppData\Local\Temp\ccLNaGfc.s:30123  .debug_str:0000000000021570 .LASF2875
C:\Users\CYMR90~1\AppData\Local\Temp\ccLNaGfc.s:26054  .debug_str:0000000000011048 .LASF2876
C:\Users\CYMR90~1\AppData\Local\Temp\ccLNaGfc.s:22628  .debug_str:00000000000035a7 .LASF2877
C:\Users\CYMR90~1\AppData\Local\Temp\ccLNaGfc.s:30787  .debug_str:0000000000023d9f .LASF2878
C:\Users\CYMR90~1\AppData\Local\Temp\ccLNaGfc.s:27571  .debug_str:000000000001736c .LASF2879
C:\Users\CYMR90~1\AppData\Local\Temp\ccLNaGfc.s:27310  .debug_str:000000000001604e .LASF2880
C:\Users\CYMR90~1\AppData\Local\Temp\ccLNaGfc.s:29609  .debug_str:000000000001f6a2 .LASF2881
C:\Users\CYMR90~1\AppData\Local\Temp\ccLNaGfc.s:26012  .debug_str:0000000000010d83 .LASF2882
C:\Users\CYMR90~1\AppData\Local\Temp\ccLNaGfc.s:26138  .debug_str:00000000000114ee .LASF2883
C:\Users\CYMR90~1\AppData\Local\Temp\ccLNaGfc.s:25528  .debug_str:000000000000ef46 .LASF2884
C:\Users\CYMR90~1\AppData\Local\Temp\ccLNaGfc.s:25664  .debug_str:000000000000f75c .LASF2885
C:\Users\CYMR90~1\AppData\Local\Temp\ccLNaGfc.s:26636  .debug_str:0000000000013642 .LASF2886
C:\Users\CYMR90~1\AppData\Local\Temp\ccLNaGfc.s:31991  .debug_str:0000000000028c50 .LASF2887
C:\Users\CYMR90~1\AppData\Local\Temp\ccLNaGfc.s:27428  .debug_str:0000000000016818 .LASF2888
C:\Users\CYMR90~1\AppData\Local\Temp\ccLNaGfc.s:30899  .debug_str:00000000000243d5 .LASF2889
C:\Users\CYMR90~1\AppData\Local\Temp\ccLNaGfc.s:22354  .debug_str:00000000000023d3 .LASF2890
C:\Users\CYMR90~1\AppData\Local\Temp\ccLNaGfc.s:23598  .debug_str:000000000000732b .LASF2891
C:\Users\CYMR90~1\AppData\Local\Temp\ccLNaGfc.s:32047  .debug_str:0000000000028f9c .LASF2892
C:\Users\CYMR90~1\AppData\Local\Temp\ccLNaGfc.s:24344  .debug_str:000000000000a36d .LASF2893
C:\Users\CYMR90~1\AppData\Local\Temp\ccLNaGfc.s:26816  .debug_str:0000000000014113 .LASF2894
C:\Users\CYMR90~1\AppData\Local\Temp\ccLNaGfc.s:27106  .debug_str:00000000000153b0 .LASF2895
C:\Users\CYMR90~1\AppData\Local\Temp\ccLNaGfc.s:27158  .debug_str:00000000000156ce .LASF2896
C:\Users\CYMR90~1\AppData\Local\Temp\ccLNaGfc.s:30061  .debug_str:00000000000211fa .LASF2897
C:\Users\CYMR90~1\AppData\Local\Temp\ccLNaGfc.s:27987  .debug_str:0000000000018cbb .LASF2898
C:\Users\CYMR90~1\AppData\Local\Temp\ccLNaGfc.s:25490  .debug_str:000000000000ecd8 .LASF2899
C:\Users\CYMR90~1\AppData\Local\Temp\ccLNaGfc.s:32141  .debug_str:000000000002951b .LASF2900
C:\Users\CYMR90~1\AppData\Local\Temp\ccLNaGfc.s:30575  .debug_str:00000000000230c3 .LASF2901
C:\Users\CYMR90~1\AppData\Local\Temp\ccLNaGfc.s:24904  .debug_str:000000000000c7d9 .LASF2902
C:\Users\CYMR90~1\AppData\Local\Temp\ccLNaGfc.s:32957  .debug_str:000000000002c8c9 .LASF2903
C:\Users\CYMR90~1\AppData\Local\Temp\ccLNaGfc.s:32575  .debug_str:000000000002af9c .LASF2904
C:\Users\CYMR90~1\AppData\Local\Temp\ccLNaGfc.s:31665  .debug_str:00000000000275d5 .LASF2905
C:\Users\CYMR90~1\AppData\Local\Temp\ccLNaGfc.s:27665  .debug_str:00000000000178ce .LASF2906
C:\Users\CYMR90~1\AppData\Local\Temp\ccLNaGfc.s:24804  .debug_str:000000000000c21c .LASF2907
C:\Users\CYMR90~1\AppData\Local\Temp\ccLNaGfc.s:28277  .debug_str:0000000000019fff .LASF2908
C:\Users\CYMR90~1\AppData\Local\Temp\ccLNaGfc.s:27112  .debug_str:000000000001541b .LASF2909
C:\Users\CYMR90~1\AppData\Local\Temp\ccLNaGfc.s:28023  .debug_str:0000000000018f35 .LASF2910
C:\Users\CYMR90~1\AppData\Local\Temp\ccLNaGfc.s:29741  .debug_str:000000000001fec0 .LASF2911
C:\Users\CYMR90~1\AppData\Local\Temp\ccLNaGfc.s:30999  .debug_str:0000000000024ab1 .LASF2912
C:\Users\CYMR90~1\AppData\Local\Temp\ccLNaGfc.s:28153  .debug_str:00000000000197c6 .LASF2913
C:\Users\CYMR90~1\AppData\Local\Temp\ccLNaGfc.s:25722  .debug_str:000000000000fb71 .LASF2914
C:\Users\CYMR90~1\AppData\Local\Temp\ccLNaGfc.s:22556  .debug_str:00000000000030e0 .LASF2915
C:\Users\CYMR90~1\AppData\Local\Temp\ccLNaGfc.s:25574  .debug_str:000000000000f1d7 .LASF2916
C:\Users\CYMR90~1\AppData\Local\Temp\ccLNaGfc.s:29941  .debug_str:0000000000020a5f .LASF2917
C:\Users\CYMR90~1\AppData\Local\Temp\ccLNaGfc.s:27184  .debug_str:0000000000015836 .LASF2918
C:\Users\CYMR90~1\AppData\Local\Temp\ccLNaGfc.s:23350  .debug_str:0000000000006384 .LASF2919
C:\Users\CYMR90~1\AppData\Local\Temp\ccLNaGfc.s:28813  .debug_str:000000000001c3b6 .LASF2920
C:\Users\CYMR90~1\AppData\Local\Temp\ccLNaGfc.s:27839  .debug_str:000000000001838f .LASF2921
C:\Users\CYMR90~1\AppData\Local\Temp\ccLNaGfc.s:26866  .debug_str:0000000000014440 .LASF2922
C:\Users\CYMR90~1\AppData\Local\Temp\ccLNaGfc.s:26016  .debug_str:0000000000010db1 .LASF2923
C:\Users\CYMR90~1\AppData\Local\Temp\ccLNaGfc.s:25048  .debug_str:000000000000d160 .LASF2924
C:\Users\CYMR90~1\AppData\Local\Temp\ccLNaGfc.s:24058  .debug_str:00000000000091e2 .LASF2925
C:\Users\CYMR90~1\AppData\Local\Temp\ccLNaGfc.s:23146  .debug_str:0000000000005782 .LASF2926
C:\Users\CYMR90~1\AppData\Local\Temp\ccLNaGfc.s:22190  .debug_str:0000000000001a46 .LASF2927
C:\Users\CYMR90~1\AppData\Local\Temp\ccLNaGfc.s:32633  .debug_str:000000000002b331 .LASF2928
C:\Users\CYMR90~1\AppData\Local\Temp\ccLNaGfc.s:30209  .debug_str:0000000000021b13 .LASF2929
C:\Users\CYMR90~1\AppData\Local\Temp\ccLNaGfc.s:29217  .debug_str:000000000001de8d .LASF2930
C:\Users\CYMR90~1\AppData\Local\Temp\ccLNaGfc.s:28359  .debug_str:000000000001a4c5 .LASF2931
C:\Users\CYMR90~1\AppData\Local\Temp\ccLNaGfc.s:27352  .debug_str:000000000001632c .LASF2932
C:\Users\CYMR90~1\AppData\Local\Temp\ccLNaGfc.s:26424  .debug_str:00000000000127f4 .LASF2933
C:\Users\CYMR90~1\AppData\Local\Temp\ccLNaGfc.s:25448  .debug_str:000000000000ea06 .LASF2934
C:\Users\CYMR90~1\AppData\Local\Temp\ccLNaGfc.s:29959  .debug_str:0000000000020bc3 .LASF2935
C:\Users\CYMR90~1\AppData\Local\Temp\ccLNaGfc.s:31617  .debug_str:00000000000272ee .LASF2936
C:\Users\CYMR90~1\AppData\Local\Temp\ccLNaGfc.s:31399  .debug_str:00000000000265d6 .LASF2937
C:\Users\CYMR90~1\AppData\Local\Temp\ccLNaGfc.s:23842  .debug_str:00000000000083a2 .LASF2938
C:\Users\CYMR90~1\AppData\Local\Temp\ccLNaGfc.s:24480  .debug_str:000000000000abee .LASF2939
C:\Users\CYMR90~1\AppData\Local\Temp\ccLNaGfc.s:23648  .debug_str:0000000000007667 .LASF2940
C:\Users\CYMR90~1\AppData\Local\Temp\ccLNaGfc.s:30299  .debug_str:00000000000220a3 .LASF2941
C:\Users\CYMR90~1\AppData\Local\Temp\ccLNaGfc.s:30687  .debug_str:000000000002372e .LASF2942
C:\Users\CYMR90~1\AppData\Local\Temp\ccLNaGfc.s:24940  .debug_str:000000000000ca8c .LASF2943
C:\Users\CYMR90~1\AppData\Local\Temp\ccLNaGfc.s:32725  .debug_str:000000000002b90e .LASF2944
C:\Users\CYMR90~1\AppData\Local\Temp\ccLNaGfc.s:22996  .debug_str:0000000000004e2c .LASF2945
C:\Users\CYMR90~1\AppData\Local\Temp\ccLNaGfc.s:28961  .debug_str:000000000001cd4d .LASF2946
C:\Users\CYMR90~1\AppData\Local\Temp\ccLNaGfc.s:27444  .debug_str:000000000001690e .LASF2947
C:\Users\CYMR90~1\AppData\Local\Temp\ccLNaGfc.s:22490  .debug_str:0000000000002cd7 .LASF2948
C:\Users\CYMR90~1\AppData\Local\Temp\ccLNaGfc.s:33029  .debug_str:000000000002cd40 .LASF2949
C:\Users\CYMR90~1\AppData\Local\Temp\ccLNaGfc.s:31963  .debug_str:0000000000028a5a .LASF2950
C:\Users\CYMR90~1\AppData\Local\Temp\ccLNaGfc.s:22966  .debug_str:0000000000004c44 .LASF2951
C:\Users\CYMR90~1\AppData\Local\Temp\ccLNaGfc.s:28793  .debug_str:000000000001c26b .LASF2952
C:\Users\CYMR90~1\AppData\Local\Temp\ccLNaGfc.s:26020  .debug_str:0000000000010de7 .LASF2953
C:\Users\CYMR90~1\AppData\Local\Temp\ccLNaGfc.s:29101  .debug_str:000000000001d717 .LASF2954
C:\Users\CYMR90~1\AppData\Local\Temp\ccLNaGfc.s:21878  .debug_str:0000000000000577 .LASF2955
C:\Users\CYMR90~1\AppData\Local\Temp\ccLNaGfc.s:26596  .debug_str:0000000000013341 .LASF2956
C:\Users\CYMR90~1\AppData\Local\Temp\ccLNaGfc.s:31349  .debug_str:00000000000262b1 .LASF2957
C:\Users\CYMR90~1\AppData\Local\Temp\ccLNaGfc.s:29039  .debug_str:000000000001d2d5 .LASF2958
C:\Users\CYMR90~1\AppData\Local\Temp\ccLNaGfc.s:23370  .debug_str:00000000000064bb .LASF2959
C:\Users\CYMR90~1\AppData\Local\Temp\ccLNaGfc.s:27803  .debug_str:00000000000181a2 .LASF2960
C:\Users\CYMR90~1\AppData\Local\Temp\ccLNaGfc.s:26264  .debug_str:0000000000011dbe .LASF2961
C:\Users\CYMR90~1\AppData\Local\Temp\ccLNaGfc.s:24802  .debug_str:000000000000c200 .LASF2962
C:\Users\CYMR90~1\AppData\Local\Temp\ccLNaGfc.s:28663  .debug_str:000000000001ba57 .LASF2963
C:\Users\CYMR90~1\AppData\Local\Temp\ccLNaGfc.s:25152  .debug_str:000000000000d8bc .LASF2964
C:\Users\CYMR90~1\AppData\Local\Temp\ccLNaGfc.s:24128  .debug_str:00000000000095d4 .LASF2965
C:\Users\CYMR90~1\AppData\Local\Temp\ccLNaGfc.s:31045  .debug_str:0000000000024e48 .LASF2966
C:\Users\CYMR90~1\AppData\Local\Temp\ccLNaGfc.s:26308  .debug_str:0000000000012066 .LASF2967
C:\Users\CYMR90~1\AppData\Local\Temp\ccLNaGfc.s:30657  .debug_str:00000000000235b4 .LASF2968
C:\Users\CYMR90~1\AppData\Local\Temp\ccLNaGfc.s:24464  .debug_str:000000000000ab0d .LASF2969
C:\Users\CYMR90~1\AppData\Local\Temp\ccLNaGfc.s:28221  .debug_str:0000000000019ca9 .LASF2970
C:\Users\CYMR90~1\AppData\Local\Temp\ccLNaGfc.s:31579  .debug_str:0000000000027070 .LASF2971
C:\Users\CYMR90~1\AppData\Local\Temp\ccLNaGfc.s:25178  .debug_str:000000000000da14 .LASF2972
C:\Users\CYMR90~1\AppData\Local\Temp\ccLNaGfc.s:23266  .debug_str:0000000000005ec8 .LASF2973
C:\Users\CYMR90~1\AppData\Local\Temp\ccLNaGfc.s:24788  .debug_str:000000000000c0ed .LASF2974
C:\Users\CYMR90~1\AppData\Local\Temp\ccLNaGfc.s:23560  .debug_str:00000000000070b4 .LASF2975
C:\Users\CYMR90~1\AppData\Local\Temp\ccLNaGfc.s:25476  .debug_str:000000000000ec03 .LASF2976
C:\Users\CYMR90~1\AppData\Local\Temp\ccLNaGfc.s:22024  .debug_str:0000000000000f60 .LASF2977
C:\Users\CYMR90~1\AppData\Local\Temp\ccLNaGfc.s:32767  .debug_str:000000000002bbd2 .LASF2978
C:\Users\CYMR90~1\AppData\Local\Temp\ccLNaGfc.s:32363  .debug_str:000000000002a2f5 .LASF2979
C:\Users\CYMR90~1\AppData\Local\Temp\ccLNaGfc.s:22592  .debug_str:0000000000003336 .LASF2980
C:\Users\CYMR90~1\AppData\Local\Temp\ccLNaGfc.s:30897  .debug_str:00000000000243bd .LASF2981
C:\Users\CYMR90~1\AppData\Local\Temp\ccLNaGfc.s:29347  .debug_str:000000000001e6b7 .LASF2982
C:\Users\CYMR90~1\AppData\Local\Temp\ccLNaGfc.s:29747  .debug_str:000000000001ff0a .LASF2983
C:\Users\CYMR90~1\AppData\Local\Temp\ccLNaGfc.s:31719  .debug_str:00000000000279d4 .LASF2984
C:\Users\CYMR90~1\AppData\Local\Temp\ccLNaGfc.s:26894  .debug_str:00000000000145d1 .LASF2985
C:\Users\CYMR90~1\AppData\Local\Temp\ccLNaGfc.s:27456  .debug_str:00000000000169a8 .LASF2986
C:\Users\CYMR90~1\AppData\Local\Temp\ccLNaGfc.s:22284  .debug_str:0000000000001fe2 .LASF2987
C:\Users\CYMR90~1\AppData\Local\Temp\ccLNaGfc.s:29733  .debug_str:000000000001fe21 .LASF2988
C:\Users\CYMR90~1\AppData\Local\Temp\ccLNaGfc.s:29679  .debug_str:000000000001fafe .LASF2989
C:\Users\CYMR90~1\AppData\Local\Temp\ccLNaGfc.s:28765  .debug_str:000000000001c06f .LASF2990
C:\Users\CYMR90~1\AppData\Local\Temp\ccLNaGfc.s:22452  .debug_str:0000000000002a3c .LASF2991
C:\Users\CYMR90~1\AppData\Local\Temp\ccLNaGfc.s:31213  .debug_str:0000000000025976 .LASF2992
C:\Users\CYMR90~1\AppData\Local\Temp\ccLNaGfc.s:25074  .debug_str:000000000000d2fb .LASF2993
C:\Users\CYMR90~1\AppData\Local\Temp\ccLNaGfc.s:22814  .debug_str:00000000000041ac .LASF2994
C:\Users\CYMR90~1\AppData\Local\Temp\ccLNaGfc.s:22538  .debug_str:0000000000002fca .LASF2995
C:\Users\CYMR90~1\AppData\Local\Temp\ccLNaGfc.s:23954  .debug_str:0000000000008b38 .LASF2996
C:\Users\CYMR90~1\AppData\Local\Temp\ccLNaGfc.s:29337  .debug_str:000000000001e619 .LASF2997
C:\Users\CYMR90~1\AppData\Local\Temp\ccLNaGfc.s:30501  .debug_str:0000000000022c66 .LASF2998
C:\Users\CYMR90~1\AppData\Local\Temp\ccLNaGfc.s:24336  .debug_str:000000000000a2fa .LASF2999
C:\Users\CYMR90~1\AppData\Local\Temp\ccLNaGfc.s:25272  .debug_str:000000000000df69 .LASF3000
C:\Users\CYMR90~1\AppData\Local\Temp\ccLNaGfc.s:27248  .debug_str:0000000000015bec .LASF3001
C:\Users\CYMR90~1\AppData\Local\Temp\ccLNaGfc.s:25312  .debug_str:000000000000e1de .LASF3002
C:\Users\CYMR90~1\AppData\Local\Temp\ccLNaGfc.s:30827  .debug_str:0000000000023ff6 .LASF3003
C:\Users\CYMR90~1\AppData\Local\Temp\ccLNaGfc.s:29997  .debug_str:0000000000020e0c .LASF3004
C:\Users\CYMR90~1\AppData\Local\Temp\ccLNaGfc.s:24796  .debug_str:000000000000c171 .LASF3005
C:\Users\CYMR90~1\AppData\Local\Temp\ccLNaGfc.s:29945  .debug_str:0000000000020aa1 .LASF3006
C:\Users\CYMR90~1\AppData\Local\Temp\ccLNaGfc.s:27737  .debug_str:0000000000017d99 .LASF3007
C:\Users\CYMR90~1\AppData\Local\Temp\ccLNaGfc.s:31957  .debug_str:00000000000289e8 .LASF3008
C:\Users\CYMR90~1\AppData\Local\Temp\ccLNaGfc.s:29439  .debug_str:000000000001ec45 .LASF3009
C:\Users\CYMR90~1\AppData\Local\Temp\ccLNaGfc.s:28745  .debug_str:000000000001bef6 .LASF3010
C:\Users\CYMR90~1\AppData\Local\Temp\ccLNaGfc.s:31837  .debug_str:0000000000028163 .LASF3011
C:\Users\CYMR90~1\AppData\Local\Temp\ccLNaGfc.s:22310  .debug_str:0000000000002166 .LASF3012
C:\Users\CYMR90~1\AppData\Local\Temp\ccLNaGfc.s:25502  .debug_str:000000000000edde .LASF3013
C:\Users\CYMR90~1\AppData\Local\Temp\ccLNaGfc.s:25544  .debug_str:000000000000f019 .LASF3014
C:\Users\CYMR90~1\AppData\Local\Temp\ccLNaGfc.s:31485  .debug_str:0000000000026aec .LASF3015
C:\Users\CYMR90~1\AppData\Local\Temp\ccLNaGfc.s:31841  .debug_str:00000000000281a2 .LASF3016
C:\Users\CYMR90~1\AppData\Local\Temp\ccLNaGfc.s:27829  .debug_str:0000000000018313 .LASF3017
C:\Users\CYMR90~1\AppData\Local\Temp\ccLNaGfc.s:30607  .debug_str:0000000000023300 .LASF3018
C:\Users\CYMR90~1\AppData\Local\Temp\ccLNaGfc.s:22146  .debug_str:000000000000162f .LASF3019
C:\Users\CYMR90~1\AppData\Local\Temp\ccLNaGfc.s:32189  .debug_str:000000000002986e .LASF3020
C:\Users\CYMR90~1\AppData\Local\Temp\ccLNaGfc.s:32439  .debug_str:000000000002a71f .LASF3021
C:\Users\CYMR90~1\AppData\Local\Temp\ccLNaGfc.s:23354  .debug_str:00000000000063ee .LASF3022
C:\Users\CYMR90~1\AppData\Local\Temp\ccLNaGfc.s:26600  .debug_str:0000000000013383 .LASF3023
C:\Users\CYMR90~1\AppData\Local\Temp\ccLNaGfc.s:25142  .debug_str:000000000000d804 .LASF3024
C:\Users\CYMR90~1\AppData\Local\Temp\ccLNaGfc.s:22332  .debug_str:0000000000002297 .LASF3025
C:\Users\CYMR90~1\AppData\Local\Temp\ccLNaGfc.s:28189  .debug_str:0000000000019a07 .LASF3026
C:\Users\CYMR90~1\AppData\Local\Temp\ccLNaGfc.s:24314  .debug_str:000000000000a196 .LASF3027
C:\Users\CYMR90~1\AppData\Local\Temp\ccLNaGfc.s:24062  .debug_str:000000000000921f .LASF3028
C:\Users\CYMR90~1\AppData\Local\Temp\ccLNaGfc.s:24668  .debug_str:000000000000b878 .LASF3029
C:\Users\CYMR90~1\AppData\Local\Temp\ccLNaGfc.s:22892  .debug_str:00000000000046d5 .LASF3030
C:\Users\CYMR90~1\AppData\Local\Temp\ccLNaGfc.s:26038  .debug_str:0000000000010f81 .LASF3031
C:\Users\CYMR90~1\AppData\Local\Temp\ccLNaGfc.s:27719  .debug_str:0000000000017c90 .LASF3032
C:\Users\CYMR90~1\AppData\Local\Temp\ccLNaGfc.s:23930  .debug_str:00000000000088e1 .LASF3033
C:\Users\CYMR90~1\AppData\Local\Temp\ccLNaGfc.s:24748  .debug_str:000000000000bdf7 .LASF3034
C:\Users\CYMR90~1\AppData\Local\Temp\ccLNaGfc.s:24698  .debug_str:000000000000bad2 .LASF3035
C:\Users\CYMR90~1\AppData\Local\Temp\ccLNaGfc.s:27619  .debug_str:0000000000017623 .LASF3036
C:\Users\CYMR90~1\AppData\Local\Temp\ccLNaGfc.s:31575  .debug_str:0000000000027037 .LASF3037
C:\Users\CYMR90~1\AppData\Local\Temp\ccLNaGfc.s:24416  .debug_str:000000000000a829 .LASF3038
C:\Users\CYMR90~1\AppData\Local\Temp\ccLNaGfc.s:22424  .debug_str:000000000000284e .LASF3039
C:\Users\CYMR90~1\AppData\Local\Temp\ccLNaGfc.s:29473  .debug_str:000000000001ee6c .LASF3040
C:\Users\CYMR90~1\AppData\Local\Temp\ccLNaGfc.s:22110  .debug_str:0000000000001439 .LASF3041
C:\Users\CYMR90~1\AppData\Local\Temp\ccLNaGfc.s:28009  .debug_str:0000000000018e50 .LASF3042
C:\Users\CYMR90~1\AppData\Local\Temp\ccLNaGfc.s:22218  .debug_str:0000000000001be5 .LASF3043
C:\Users\CYMR90~1\AppData\Local\Temp\ccLNaGfc.s:33041  .debug_str:000000000002ce29 .LASF3044
C:\Users\CYMR90~1\AppData\Local\Temp\ccLNaGfc.s:27164  .debug_str:000000000001570c .LASF3045
C:\Users\CYMR90~1\AppData\Local\Temp\ccLNaGfc.s:30997  .debug_str:0000000000024a9a .LASF3046
C:\Users\CYMR90~1\AppData\Local\Temp\ccLNaGfc.s:24350  .debug_str:000000000000a3ce .LASF3047
C:\Users\CYMR90~1\AppData\Local\Temp\ccLNaGfc.s:22246  .debug_str:0000000000001da4 .LASF3048
C:\Users\CYMR90~1\AppData\Local\Temp\ccLNaGfc.s:23376  .debug_str:0000000000006529 .LASF3049
C:\Users\CYMR90~1\AppData\Local\Temp\ccLNaGfc.s:28625  .debug_str:000000000001b80f .LASF3050
C:\Users\CYMR90~1\AppData\Local\Temp\ccLNaGfc.s:26720  .debug_str:0000000000013b5d .LASF3051
C:\Users\CYMR90~1\AppData\Local\Temp\ccLNaGfc.s:24068  .debug_str:0000000000009282 .LASF3052
C:\Users\CYMR90~1\AppData\Local\Temp\ccLNaGfc.s:23122  .debug_str:00000000000055e0 .LASF3053
C:\Users\CYMR90~1\AppData\Local\Temp\ccLNaGfc.s:32531  .debug_str:000000000002ad07 .LASF3054
C:\Users\CYMR90~1\AppData\Local\Temp\ccLNaGfc.s:24812  .debug_str:000000000000c28c .LASF3055
C:\Users\CYMR90~1\AppData\Local\Temp\ccLNaGfc.s:22596  .debug_str:000000000000338a .LASF3056
C:\Users\CYMR90~1\AppData\Local\Temp\ccLNaGfc.s:30461  .debug_str:00000000000229fa .LASF3057
C:\Users\CYMR90~1\AppData\Local\Temp\ccLNaGfc.s:27076  .debug_str:00000000000151bd .LASF3058
C:\Users\CYMR90~1\AppData\Local\Temp\ccLNaGfc.s:23644  .debug_str:0000000000007629 .LASF3059
C:\Users\CYMR90~1\AppData\Local\Temp\ccLNaGfc.s:28605  .debug_str:000000000001b6c7 .LASF3060
C:\Users\CYMR90~1\AppData\Local\Temp\ccLNaGfc.s:23264  .debug_str:0000000000005ea9 .LASF3061
C:\Users\CYMR90~1\AppData\Local\Temp\ccLNaGfc.s:24164  .debug_str:0000000000009851 .LASF3062
C:\Users\CYMR90~1\AppData\Local\Temp\ccLNaGfc.s:26444  .debug_str:0000000000012950 .LASF3063
C:\Users\CYMR90~1\AppData\Local\Temp\ccLNaGfc.s:30479  .debug_str:0000000000022af5 .LASF3064
C:\Users\CYMR90~1\AppData\Local\Temp\ccLNaGfc.s:31825  .debug_str:000000000002807b .LASF3065
C:\Users\CYMR90~1\AppData\Local\Temp\ccLNaGfc.s:27819  .debug_str:0000000000018287 .LASF3066
C:\Users\CYMR90~1\AppData\Local\Temp\ccLNaGfc.s:25662  .debug_str:000000000000f73c .LASF3067
C:\Users\CYMR90~1\AppData\Local\Temp\ccLNaGfc.s:30477  .debug_str:0000000000022adc .LASF3068
C:\Users\CYMR90~1\AppData\Local\Temp\ccLNaGfc.s:32269  .debug_str:0000000000029d8b .LASF3069
C:\Users\CYMR90~1\AppData\Local\Temp\ccLNaGfc.s:28455  .debug_str:000000000001acad .LASF3070
C:\Users\CYMR90~1\AppData\Local\Temp\ccLNaGfc.s:23518  .debug_str:0000000000006dde .LASF3071
C:\Users\CYMR90~1\AppData\Local\Temp\ccLNaGfc.s:23128  .debug_str:0000000000005624 .LASF3072
C:\Users\CYMR90~1\AppData\Local\Temp\ccLNaGfc.s:29381  .debug_str:000000000001e8bc .LASF3073
C:\Users\CYMR90~1\AppData\Local\Temp\ccLNaGfc.s:25370  .debug_str:000000000000e528 .LASF3074
C:\Users\CYMR90~1\AppData\Local\Temp\ccLNaGfc.s:30675  .debug_str:000000000002367d .LASF3075
C:\Users\CYMR90~1\AppData\Local\Temp\ccLNaGfc.s:24178  .debug_str:0000000000009929 .LASF3076
C:\Users\CYMR90~1\AppData\Local\Temp\ccLNaGfc.s:31107  .debug_str:0000000000025242 .LASF3077
C:\Users\CYMR90~1\AppData\Local\Temp\ccLNaGfc.s:30521  .debug_str:0000000000022dc4 .LASF3078
C:\Users\CYMR90~1\AppData\Local\Temp\ccLNaGfc.s:27733  .debug_str:0000000000017d70 .LASF3079
C:\Users\CYMR90~1\AppData\Local\Temp\ccLNaGfc.s:32701  .debug_str:000000000002b77a .LASF3080
C:\Users\CYMR90~1\AppData\Local\Temp\ccLNaGfc.s:33007  .debug_str:000000000002cbb8 .LASF3081
C:\Users\CYMR90~1\AppData\Local\Temp\ccLNaGfc.s:31417  .debug_str:00000000000266d0 .LASF3082
C:\Users\CYMR90~1\AppData\Local\Temp\ccLNaGfc.s:22774  .debug_str:0000000000003edf .LASF3083
C:\Users\CYMR90~1\AppData\Local\Temp\ccLNaGfc.s:25590  .debug_str:000000000000f2b7 .LASF3084
C:\Users\CYMR90~1\AppData\Local\Temp\ccLNaGfc.s:22740  .debug_str:0000000000003cc8 .LASF3085
C:\Users\CYMR90~1\AppData\Local\Temp\ccLNaGfc.s:24506  .debug_str:000000000000ad77 .LASF3086
C:\Users\CYMR90~1\AppData\Local\Temp\ccLNaGfc.s:25972  .debug_str:0000000000010ae3 .LASF3087
C:\Users\CYMR90~1\AppData\Local\Temp\ccLNaGfc.s:23488  .debug_str:0000000000006c07 .LASF3088
C:\Users\CYMR90~1\AppData\Local\Temp\ccLNaGfc.s:26360  .debug_str:0000000000012408 .LASF3089
C:\Users\CYMR90~1\AppData\Local\Temp\ccLNaGfc.s:29785  .debug_str:000000000002016e .LASF3090
C:\Users\CYMR90~1\AppData\Local\Temp\ccLNaGfc.s:23330  .debug_str:000000000000625f .LASF3091
C:\Users\CYMR90~1\AppData\Local\Temp\ccLNaGfc.s:24422  .debug_str:000000000000a873 .LASF3092
C:\Users\CYMR90~1\AppData\Local\Temp\ccLNaGfc.s:26834  .debug_str:0000000000014233 .LASF3093
C:\Users\CYMR90~1\AppData\Local\Temp\ccLNaGfc.s:29391  .debug_str:000000000001e950 .LASF3094
C:\Users\CYMR90~1\AppData\Local\Temp\ccLNaGfc.s:22930  .debug_str:0000000000004983 .LASF3095
C:\Users\CYMR90~1\AppData\Local\Temp\ccLNaGfc.s:29943  .debug_str:0000000000020a8b .LASF3096
C:\Users\CYMR90~1\AppData\Local\Temp\ccLNaGfc.s:30309  .debug_str:0000000000022148 .LASF3097
C:\Users\CYMR90~1\AppData\Local\Temp\ccLNaGfc.s:24220  .debug_str:0000000000009bd6 .LASF3098
C:\Users\CYMR90~1\AppData\Local\Temp\ccLNaGfc.s:23564  .debug_str:00000000000070e6 .LASF3099
C:\Users\CYMR90~1\AppData\Local\Temp\ccLNaGfc.s:24084  .debug_str:000000000000933c .LASF3100
C:\Users\CYMR90~1\AppData\Local\Temp\ccLNaGfc.s:22518  .debug_str:0000000000002eb3 .LASF3101
C:\Users\CYMR90~1\AppData\Local\Temp\ccLNaGfc.s:32857  .debug_str:000000000002c1bb .LASF3102
C:\Users\CYMR90~1\AppData\Local\Temp\ccLNaGfc.s:23360  .debug_str:0000000000006441 .LASF3103
C:\Users\CYMR90~1\AppData\Local\Temp\ccLNaGfc.s:21910  .debug_str:0000000000000774 .LASF3104
C:\Users\CYMR90~1\AppData\Local\Temp\ccLNaGfc.s:22938  .debug_str:0000000000004a1e .LASF3105
C:\Users\CYMR90~1\AppData\Local\Temp\ccLNaGfc.s:30417  .debug_str:0000000000022793 .LASF3106
C:\Users\CYMR90~1\AppData\Local\Temp\ccLNaGfc.s:26434  .debug_str:000000000001289e .LASF3107
C:\Users\CYMR90~1\AppData\Local\Temp\ccLNaGfc.s:30029  .debug_str:0000000000020ff1 .LASF3108
C:\Users\CYMR90~1\AppData\Local\Temp\ccLNaGfc.s:21848  .debug_str:00000000000003c6 .LASF3109
C:\Users\CYMR90~1\AppData\Local\Temp\ccLNaGfc.s:29617  .debug_str:000000000001f71b .LASF3110
C:\Users\CYMR90~1\AppData\Local\Temp\ccLNaGfc.s:28443  .debug_str:000000000001abeb .LASF3111
C:\Users\CYMR90~1\AppData\Local\Temp\ccLNaGfc.s:24008  .debug_str:0000000000008e5e .LASF3112
C:\Users\CYMR90~1\AppData\Local\Temp\ccLNaGfc.s:28951  .debug_str:000000000001cc91 .LASF3113
C:\Users\CYMR90~1\AppData\Local\Temp\ccLNaGfc.s:27799  .debug_str:000000000001816c .LASF3114
C:\Users\CYMR90~1\AppData\Local\Temp\ccLNaGfc.s:26318  .debug_str:00000000000120ef .LASF3115
C:\Users\CYMR90~1\AppData\Local\Temp\ccLNaGfc.s:24306  .debug_str:000000000000a103 .LASF3116
C:\Users\CYMR90~1\AppData\Local\Temp\ccLNaGfc.s:29247  .debug_str:000000000001e01c .LASF3117
C:\Users\CYMR90~1\AppData\Local\Temp\ccLNaGfc.s:32961  .debug_str:000000000002c92a .LASF3118
C:\Users\CYMR90~1\AppData\Local\Temp\ccLNaGfc.s:28199  .debug_str:0000000000019b0d .LASF3119
C:\Users\CYMR90~1\AppData\Local\Temp\ccLNaGfc.s:28515  .debug_str:000000000001b096 .LASF3120
C:\Users\CYMR90~1\AppData\Local\Temp\ccLNaGfc.s:31037  .debug_str:0000000000024dd6 .LASF3121
C:\Users\CYMR90~1\AppData\Local\Temp\ccLNaGfc.s:32435  .debug_str:000000000002a6ec .LASF3122
C:\Users\CYMR90~1\AppData\Local\Temp\ccLNaGfc.s:26200  .debug_str:00000000000118b9 .LASF3123
C:\Users\CYMR90~1\AppData\Local\Temp\ccLNaGfc.s:29199  .debug_str:000000000001dd96 .LASF3124
C:\Users\CYMR90~1\AppData\Local\Temp\ccLNaGfc.s:25270  .debug_str:000000000000df51 .LASF3125
C:\Users\CYMR90~1\AppData\Local\Temp\ccLNaGfc.s:32207  .debug_str:00000000000299a0 .LASF3126
C:\Users\CYMR90~1\AppData\Local\Temp\ccLNaGfc.s:23658  .debug_str:00000000000076eb .LASF3127
C:\Users\CYMR90~1\AppData\Local\Temp\ccLNaGfc.s:32483  .debug_str:000000000002aa22 .LASF3128
C:\Users\CYMR90~1\AppData\Local\Temp\ccLNaGfc.s:31265  .debug_str:0000000000025d72 .LASF3129
C:\Users\CYMR90~1\AppData\Local\Temp\ccLNaGfc.s:22694  .debug_str:00000000000039dd .LASF3130
C:\Users\CYMR90~1\AppData\Local\Temp\ccLNaGfc.s:25904  .debug_str:00000000000106f0 .LASF3131
C:\Users\CYMR90~1\AppData\Local\Temp\ccLNaGfc.s:31927  .debug_str:00000000000287f9 .LASF3132
C:\Users\CYMR90~1\AppData\Local\Temp\ccLNaGfc.s:26384  .debug_str:0000000000012574 .LASF3133
C:\Users\CYMR90~1\AppData\Local\Temp\ccLNaGfc.s:24478  .debug_str:000000000000abcf .LASF3134
C:\Users\CYMR90~1\AppData\Local\Temp\ccLNaGfc.s:32759  .debug_str:000000000002bb3e .LASF3135
C:\Users\CYMR90~1\AppData\Local\Temp\ccLNaGfc.s:24570  .debug_str:000000000000b23f .LASF3136
C:\Users\CYMR90~1\AppData\Local\Temp\ccLNaGfc.s:32775  .debug_str:000000000002bc44 .LASF3137
C:\Users\CYMR90~1\AppData\Local\Temp\ccLNaGfc.s:32511  .debug_str:000000000002abd3 .LASF3138
C:\Users\CYMR90~1\AppData\Local\Temp\ccLNaGfc.s:28001  .debug_str:0000000000018daf .LASF3139
C:\Users\CYMR90~1\AppData\Local\Temp\ccLNaGfc.s:32551  .debug_str:000000000002ae19 .LASF3140
C:\Users\CYMR90~1\AppData\Local\Temp\ccLNaGfc.s:30137  .debug_str:0000000000021627 .LASF3141
C:\Users\CYMR90~1\AppData\Local\Temp\ccLNaGfc.s:31505  .debug_str:0000000000026c40 .LASF3142
C:\Users\CYMR90~1\AppData\Local\Temp\ccLNaGfc.s:25122  .debug_str:000000000000d68e .LASF3143
C:\Users\CYMR90~1\AppData\Local\Temp\ccLNaGfc.s:30885  .debug_str:0000000000024332 .LASF3144
C:\Users\CYMR90~1\AppData\Local\Temp\ccLNaGfc.s:26962  .debug_str:0000000000014a61 .LASF3145
C:\Users\CYMR90~1\AppData\Local\Temp\ccLNaGfc.s:25798  .debug_str:0000000000010015 .LASF3146
C:\Users\CYMR90~1\AppData\Local\Temp\ccLNaGfc.s:28939  .debug_str:000000000001cb22 .LASF3147
C:\Users\CYMR90~1\AppData\Local\Temp\ccLNaGfc.s:31763  .debug_str:0000000000027c3e .LASF3148
C:\Users\CYMR90~1\AppData\Local\Temp\ccLNaGfc.s:22716  .debug_str:0000000000003b34 .LASF3149
C:\Users\CYMR90~1\AppData\Local\Temp\ccLNaGfc.s:29179  .debug_str:000000000001dc26 .LASF3150
C:\Users\CYMR90~1\AppData\Local\Temp\ccLNaGfc.s:31937  .debug_str:000000000002889d .LASF3151
C:\Users\CYMR90~1\AppData\Local\Temp\ccLNaGfc.s:23974  .debug_str:0000000000008c6d .LASF3152
C:\Users\CYMR90~1\AppData\Local\Temp\ccLNaGfc.s:30387  .debug_str:00000000000225c2 .LASF3153
C:\Users\CYMR90~1\AppData\Local\Temp\ccLNaGfc.s:27142  .debug_str:00000000000155d1 .LASF3154
C:\Users\CYMR90~1\AppData\Local\Temp\ccLNaGfc.s:24064  .debug_str:0000000000009243 .LASF3155
C:\Users\CYMR90~1\AppData\Local\Temp\ccLNaGfc.s:29083  .debug_str:000000000001d615 .LASF3156
C:\Users\CYMR90~1\AppData\Local\Temp\ccLNaGfc.s:26528  .debug_str:0000000000012ec1 .LASF3157
C:\Users\CYMR90~1\AppData\Local\Temp\ccLNaGfc.s:24548  .debug_str:000000000000b007 .LASF3158
C:\Users\CYMR90~1\AppData\Local\Temp\ccLNaGfc.s:29013  .debug_str:000000000001d09f .LASF3159
C:\Users\CYMR90~1\AppData\Local\Temp\ccLNaGfc.s:31129  .debug_str:0000000000025396 .LASF3160
C:\Users\CYMR90~1\AppData\Local\Temp\ccLNaGfc.s:23014  .debug_str:0000000000004f4a .LASF3161
C:\Users\CYMR90~1\AppData\Local\Temp\ccLNaGfc.s:32451  .debug_str:000000000002a805 .LASF3162
C:\Users\CYMR90~1\AppData\Local\Temp\ccLNaGfc.s:28253  .debug_str:0000000000019e95 .LASF3163
C:\Users\CYMR90~1\AppData\Local\Temp\ccLNaGfc.s:28295  .debug_str:000000000001a0fb .LASF3164
C:\Users\CYMR90~1\AppData\Local\Temp\ccLNaGfc.s:28303  .debug_str:000000000001a181 .LASF3165
C:\Users\CYMR90~1\AppData\Local\Temp\ccLNaGfc.s:31621  .debug_str:0000000000027330 .LASF3166
C:\Users\CYMR90~1\AppData\Local\Temp\ccLNaGfc.s:26414  .debug_str:0000000000012746 .LASF3167
C:\Users\CYMR90~1\AppData\Local\Temp\ccLNaGfc.s:32421  .debug_str:000000000002a637 .LASF3168
C:\Users\CYMR90~1\AppData\Local\Temp\ccLNaGfc.s:27965  .debug_str:0000000000018b4c .LASF3169
C:\Users\CYMR90~1\AppData\Local\Temp\ccLNaGfc.s:31699  .debug_str:00000000000278a8 .LASF3170
C:\Users\CYMR90~1\AppData\Local\Temp\ccLNaGfc.s:22910  .debug_str:0000000000004803 .LASF3171
C:\Users\CYMR90~1\AppData\Local\Temp\ccLNaGfc.s:26006  .debug_str:0000000000010cfe .LASF3172
C:\Users\CYMR90~1\AppData\Local\Temp\ccLNaGfc.s:29363  .debug_str:000000000001e79d .LASF3173
C:\Users\CYMR90~1\AppData\Local\Temp\ccLNaGfc.s:26344  .debug_str:00000000000122da .LASF3174
C:\Users\CYMR90~1\AppData\Local\Temp\ccLNaGfc.s:25750  .debug_str:000000000000fcf5 .LASF3175
C:\Users\CYMR90~1\AppData\Local\Temp\ccLNaGfc.s:26526  .debug_str:0000000000012e88 .LASF3176
C:\Users\CYMR90~1\AppData\Local\Temp\ccLNaGfc.s:30615  .debug_str:0000000000023356 .LASF3177
C:\Users\CYMR90~1\AppData\Local\Temp\ccLNaGfc.s:27330  .debug_str:000000000001619e .LASF3178
C:\Users\CYMR90~1\AppData\Local\Temp\ccLNaGfc.s:30481  .debug_str:0000000000022b13 .LASF3179
C:\Users\CYMR90~1\AppData\Local\Temp\ccLNaGfc.s:24768  .debug_str:000000000000bf48 .LASF3180
C:\Users\CYMR90~1\AppData\Local\Temp\ccLNaGfc.s:23762  .debug_str:0000000000007d6f .LASF3181
C:\Users\CYMR90~1\AppData\Local\Temp\ccLNaGfc.s:23066  .debug_str:000000000000525d .LASF3182
C:\Users\CYMR90~1\AppData\Local\Temp\ccLNaGfc.s:26478  .debug_str:0000000000012b91 .LASF3183
C:\Users\CYMR90~1\AppData\Local\Temp\ccLNaGfc.s:22070  .debug_str:00000000000011da .LASF3184
C:\Users\CYMR90~1\AppData\Local\Temp\ccLNaGfc.s:22160  .debug_str:0000000000001792 .LASF3185
C:\Users\CYMR90~1\AppData\Local\Temp\ccLNaGfc.s:31887  .debug_str:00000000000284e6 .LASF3186
C:\Users\CYMR90~1\AppData\Local\Temp\ccLNaGfc.s:28583  .debug_str:000000000001b52c .LASF3187
C:\Users\CYMR90~1\AppData\Local\Temp\ccLNaGfc.s:25040  .debug_str:000000000000d0b8 .LASF3188
C:\Users\CYMR90~1\AppData\Local\Temp\ccLNaGfc.s:26924  .debug_str:00000000000147bf .LASF3189
C:\Users\CYMR90~1\AppData\Local\Temp\ccLNaGfc.s:22212  .debug_str:0000000000001b8b .LASF3190
C:\Users\CYMR90~1\AppData\Local\Temp\ccLNaGfc.s:25748  .debug_str:000000000000fcdc .LASF3191
C:\Users\CYMR90~1\AppData\Local\Temp\ccLNaGfc.s:29417  .debug_str:000000000001eadf .LASF3192
C:\Users\CYMR90~1\AppData\Local\Temp\ccLNaGfc.s:24854  .debug_str:000000000000c507 .LASF3193
C:\Users\CYMR90~1\AppData\Local\Temp\ccLNaGfc.s:24420  .debug_str:000000000000a850 .LASF3194
C:\Users\CYMR90~1\AppData\Local\Temp\ccLNaGfc.s:27388  .debug_str:0000000000016548 .LASF3195
C:\Users\CYMR90~1\AppData\Local\Temp\ccLNaGfc.s:28355  .debug_str:000000000001a483 .LASF3196
C:\Users\CYMR90~1\AppData\Local\Temp\ccLNaGfc.s:29681  .debug_str:000000000001fb1d .LASF3197
C:\Users\CYMR90~1\AppData\Local\Temp\ccLNaGfc.s:25828  .debug_str:0000000000010228 .LASF3198
C:\Users\CYMR90~1\AppData\Local\Temp\ccLNaGfc.s:33035  .debug_str:000000000002cdb9 .LASF3199
C:\Users\CYMR90~1\AppData\Local\Temp\ccLNaGfc.s:27721  .debug_str:0000000000017ca7 .LASF3200
C:\Users\CYMR90~1\AppData\Local\Temp\ccLNaGfc.s:30415  .debug_str:000000000002276f .LASF3201
C:\Users\CYMR90~1\AppData\Local\Temp\ccLNaGfc.s:24736  .debug_str:000000000000bd53 .LASF3202
C:\Users\CYMR90~1\AppData\Local\Temp\ccLNaGfc.s:30689  .debug_str:000000000002375b .LASF3203
C:\Users\CYMR90~1\AppData\Local\Temp\ccLNaGfc.s:26800  .debug_str:0000000000014028 .LASF3204
C:\Users\CYMR90~1\AppData\Local\Temp\ccLNaGfc.s:29573  .debug_str:000000000001f42c .LASF3205
C:\Users\CYMR90~1\AppData\Local\Temp\ccLNaGfc.s:25576  .debug_str:000000000000f1f9 .LASF3206
C:\Users\CYMR90~1\AppData\Local\Temp\ccLNaGfc.s:32415  .debug_str:000000000002a5dd .LASF3207
C:\Users\CYMR90~1\AppData\Local\Temp\ccLNaGfc.s:24248  .debug_str:0000000000009dad .LASF3208
C:\Users\CYMR90~1\AppData\Local\Temp\ccLNaGfc.s:32019  .debug_str:0000000000028df1 .LASF3209
C:\Users\CYMR90~1\AppData\Local\Temp\ccLNaGfc.s:27092  .debug_str:00000000000152e7 .LASF3210
C:\Users\CYMR90~1\AppData\Local\Temp\ccLNaGfc.s:26228  .debug_str:0000000000011b11 .LASF3211
C:\Users\CYMR90~1\AppData\Local\Temp\ccLNaGfc.s:24108  .debug_str:00000000000094b8 .LASF3212
C:\Users\CYMR90~1\AppData\Local\Temp\ccLNaGfc.s:23686  .debug_str:000000000000789f .LASF3213
C:\Users\CYMR90~1\AppData\Local\Temp\ccLNaGfc.s:33153  .debug_str:000000000002d56a .LASF3214
C:\Users\CYMR90~1\AppData\Local\Temp\ccLNaGfc.s:22866  .debug_str:0000000000004521 .LASF3215
C:\Users\CYMR90~1\AppData\Local\Temp\ccLNaGfc.s:32675  .debug_str:000000000002b586 .LASF3216
C:\Users\CYMR90~1\AppData\Local\Temp\ccLNaGfc.s:25186  .debug_str:000000000000da79 .LASF3217
C:\Users\CYMR90~1\AppData\Local\Temp\ccLNaGfc.s:27889  .debug_str:00000000000186b4 .LASF3218
C:\Users\CYMR90~1\AppData\Local\Temp\ccLNaGfc.s:29555  .debug_str:000000000001f34e .LASF3219
C:\Users\CYMR90~1\AppData\Local\Temp\ccLNaGfc.s:30701  .debug_str:00000000000237f2 .LASF3220
C:\Users\CYMR90~1\AppData\Local\Temp\ccLNaGfc.s:22080  .debug_str:0000000000001273 .LASF3221
C:\Users\CYMR90~1\AppData\Local\Temp\ccLNaGfc.s:23028  .debug_str:0000000000005042 .LASF3222
C:\Users\CYMR90~1\AppData\Local\Temp\ccLNaGfc.s:30569  .debug_str:000000000002305c .LASF3223
C:\Users\CYMR90~1\AppData\Local\Temp\ccLNaGfc.s:23282  .debug_str:0000000000005fa5 .LASF3224
C:\Users\CYMR90~1\AppData\Local\Temp\ccLNaGfc.s:30873  .debug_str:000000000002429e .LASF3225
C:\Users\CYMR90~1\AppData\Local\Temp\ccLNaGfc.s:31295  .debug_str:0000000000025f66 .LASF3226
C:\Users\CYMR90~1\AppData\Local\Temp\ccLNaGfc.s:30019  .debug_str:0000000000020f78 .LASF3227
C:\Users\CYMR90~1\AppData\Local\Temp\ccLNaGfc.s:27232  .debug_str:0000000000015b0b .LASF3228
C:\Users\CYMR90~1\AppData\Local\Temp\ccLNaGfc.s:26984  .debug_str:0000000000014ba5 .LASF3229
C:\Users\CYMR90~1\AppData\Local\Temp\ccLNaGfc.s:27711  .debug_str:0000000000017bfd .LASF3230
C:\Users\CYMR90~1\AppData\Local\Temp\ccLNaGfc.s:29909  .debug_str:0000000000020866 .LASF3231
C:\Users\CYMR90~1\AppData\Local\Temp\ccLNaGfc.s:23652  .debug_str:00000000000076a9 .LASF3232
C:\Users\CYMR90~1\AppData\Local\Temp\ccLNaGfc.s:21842  .debug_str:000000000000036d .LASF3233
C:\Users\CYMR90~1\AppData\Local\Temp\ccLNaGfc.s:32043  .debug_str:0000000000028f73 .LASF3234
C:\Users\CYMR90~1\AppData\Local\Temp\ccLNaGfc.s:21974  .debug_str:0000000000000bc0 .LASF3235
C:\Users\CYMR90~1\AppData\Local\Temp\ccLNaGfc.s:30393  .debug_str:0000000000022636 .LASF3236
C:\Users\CYMR90~1\AppData\Local\Temp\ccLNaGfc.s:31445  .debug_str:0000000000026861 .LASF3237
C:\Users\CYMR90~1\AppData\Local\Temp\ccLNaGfc.s:26782  .debug_str:0000000000013f14 .LASF3238
C:\Users\CYMR90~1\AppData\Local\Temp\ccLNaGfc.s:25064  .debug_str:000000000000d246 .LASF3239
C:\Users\CYMR90~1\AppData\Local\Temp\ccLNaGfc.s:30691  .debug_str:0000000000023781 .LASF3240
C:\Users\CYMR90~1\AppData\Local\Temp\ccLNaGfc.s:28635  .debug_str:000000000001b8c9 .LASF3241
C:\Users\CYMR90~1\AppData\Local\Temp\ccLNaGfc.s:31489  .debug_str:0000000000026b33 .LASF3242
C:\Users\CYMR90~1\AppData\Local\Temp\ccLNaGfc.s:31127  .debug_str:0000000000025378 .LASF3243
C:\Users\CYMR90~1\AppData\Local\Temp\ccLNaGfc.s:25714  .debug_str:000000000000fb07 .LASF3244
C:\Users\CYMR90~1\AppData\Local\Temp\ccLNaGfc.s:30613  .debug_str:000000000002333a .LASF3245
C:\Users\CYMR90~1\AppData\Local\Temp\ccLNaGfc.s:26618  .debug_str:00000000000134cc .LASF3246
C:\Users\CYMR90~1\AppData\Local\Temp\ccLNaGfc.s:29127  .debug_str:000000000001d8b7 .LASF3247
C:\Users\CYMR90~1\AppData\Local\Temp\ccLNaGfc.s:31805  .debug_str:0000000000027f24 .LASF3248
C:\Users\CYMR90~1\AppData\Local\Temp\ccLNaGfc.s:33073  .debug_str:000000000002d02a .LASF3249
C:\Users\CYMR90~1\AppData\Local\Temp\ccLNaGfc.s:22228  .debug_str:0000000000001c72 .LASF3250
C:\Users\CYMR90~1\AppData\Local\Temp\ccLNaGfc.s:22790  .debug_str:0000000000003fec .LASF3251
C:\Users\CYMR90~1\AppData\Local\Temp\ccLNaGfc.s:32749  .debug_str:000000000002ba80 .LASF3252
C:\Users\CYMR90~1\AppData\Local\Temp\ccLNaGfc.s:31103  .debug_str:0000000000025206 .LASF3253
C:\Users\CYMR90~1\AppData\Local\Temp\ccLNaGfc.s:26776  .debug_str:0000000000013ec6 .LASF3254
C:\Users\CYMR90~1\AppData\Local\Temp\ccLNaGfc.s:23058  .debug_str:00000000000051fd .LASF3255
C:\Users\CYMR90~1\AppData\Local\Temp\ccLNaGfc.s:29831  .debug_str:0000000000020434 .LASF3256
C:\Users\CYMR90~1\AppData\Local\Temp\ccLNaGfc.s:23260  .debug_str:0000000000005e69 .LASF3257
C:\Users\CYMR90~1\AppData\Local\Temp\ccLNaGfc.s:24678  .debug_str:000000000000b932 .LASF3258
C:\Users\CYMR90~1\AppData\Local\Temp\ccLNaGfc.s:23198  .debug_str:0000000000005aa0 .LASF3259
C:\Users\CYMR90~1\AppData\Local\Temp\ccLNaGfc.s:26336  .debug_str:0000000000012243 .LASF3260
C:\Users\CYMR90~1\AppData\Local\Temp\ccLNaGfc.s:31795  .debug_str:0000000000027e87 .LASF3261
C:\Users\CYMR90~1\AppData\Local\Temp\ccLNaGfc.s:28145  .debug_str:000000000001973b .LASF3262
C:\Users\CYMR90~1\AppData\Local\Temp\ccLNaGfc.s:26922  .debug_str:0000000000014784 .LASF3263
C:\Users\CYMR90~1\AppData\Local\Temp\ccLNaGfc.s:33103  .debug_str:000000000002d25b .LASF3264
C:\Users\CYMR90~1\AppData\Local\Temp\ccLNaGfc.s:29651  .debug_str:000000000001f91f .LASF3265
C:\Users\CYMR90~1\AppData\Local\Temp\ccLNaGfc.s:26266  .debug_str:0000000000011dd8 .LASF3266
C:\Users\CYMR90~1\AppData\Local\Temp\ccLNaGfc.s:23382  .debug_str:0000000000006566 .LASF3267
C:\Users\CYMR90~1\AppData\Local\Temp\ccLNaGfc.s:30745  .debug_str:0000000000023aa8 .LASF3268
C:\Users\CYMR90~1\AppData\Local\Temp\ccLNaGfc.s:27282  .debug_str:0000000000015e3f .LASF3269
C:\Users\CYMR90~1\AppData\Local\Temp\ccLNaGfc.s:23892  .debug_str:00000000000086c5 .LASF3270
C:\Users\CYMR90~1\AppData\Local\Temp\ccLNaGfc.s:27835  .debug_str:0000000000018346 .LASF3271
C:\Users\CYMR90~1\AppData\Local\Temp\ccLNaGfc.s:32811  .debug_str:000000000002bedd .LASF3272
C:\Users\CYMR90~1\AppData\Local\Temp\ccLNaGfc.s:31369  .debug_str:00000000000263bd .LASF3273
C:\Users\CYMR90~1\AppData\Local\Temp\ccLNaGfc.s:22182  .debug_str:00000000000019c0 .LASF3274
C:\Users\CYMR90~1\AppData\Local\Temp\ccLNaGfc.s:23234  .debug_str:0000000000005c9e .LASF3275
C:\Users\CYMR90~1\AppData\Local\Temp\ccLNaGfc.s:29425  .debug_str:000000000001eb2b .LASF3276
C:\Users\CYMR90~1\AppData\Local\Temp\ccLNaGfc.s:29659  .debug_str:000000000001f99d .LASF3277
C:\Users\CYMR90~1\AppData\Local\Temp\ccLNaGfc.s:30791  .debug_str:0000000000023deb .LASF3278
C:\Users\CYMR90~1\AppData\Local\Temp\ccLNaGfc.s:22178  .debug_str:0000000000001979 .LASF3279
C:\Users\CYMR90~1\AppData\Local\Temp\ccLNaGfc.s:27947  .debug_str:0000000000018a12 .LASF3280
C:\Users\CYMR90~1\AppData\Local\Temp\ccLNaGfc.s:33055  .debug_str:000000000002cf0d .LASF3281
C:\Users\CYMR90~1\AppData\Local\Temp\ccLNaGfc.s:24646  .debug_str:000000000000b663 .LASF3282
C:\Users\CYMR90~1\AppData\Local\Temp\ccLNaGfc.s:27817  .debug_str:0000000000018267 .LASF3283
C:\Users\CYMR90~1\AppData\Local\Temp\ccLNaGfc.s:22112  .debug_str:000000000000144c .LASF3284
C:\Users\CYMR90~1\AppData\Local\Temp\ccLNaGfc.s:28899  .debug_str:000000000001c8cb .LASF3285
C:\Users\CYMR90~1\AppData\Local\Temp\ccLNaGfc.s:24862  .debug_str:000000000000c57d .LASF3286
C:\Users\CYMR90~1\AppData\Local\Temp\ccLNaGfc.s:25126  .debug_str:000000000000d6d9 .LASF3287
C:\Users\CYMR90~1\AppData\Local\Temp\ccLNaGfc.s:32807  .debug_str:000000000002be92 .LASF3288
C:\Users\CYMR90~1\AppData\Local\Temp\ccLNaGfc.s:29859  .debug_str:00000000000205cc .LASF3289
C:\Users\CYMR90~1\AppData\Local\Temp\ccLNaGfc.s:25604  .debug_str:000000000000f3ae .LASF3290
C:\Users\CYMR90~1\AppData\Local\Temp\ccLNaGfc.s:31293  .debug_str:0000000000025f3e .LASF3291
C:\Users\CYMR90~1\AppData\Local\Temp\ccLNaGfc.s:30243  .debug_str:0000000000021d35 .LASF3292
C:\Users\CYMR90~1\AppData\Local\Temp\ccLNaGfc.s:25868  .debug_str:00000000000104ce .LASF3293
C:\Users\CYMR90~1\AppData\Local\Temp\ccLNaGfc.s:29857  .debug_str:00000000000205a5 .LASF3294
C:\Users\CYMR90~1\AppData\Local\Temp\ccLNaGfc.s:26932  .debug_str:0000000000014873 .LASF3295
C:\Users\CYMR90~1\AppData\Local\Temp\ccLNaGfc.s:32685  .debug_str:000000000002b65e .LASF3296
C:\Users\CYMR90~1\AppData\Local\Temp\ccLNaGfc.s:21856  .debug_str:0000000000000430 .LASF3297
C:\Users\CYMR90~1\AppData\Local\Temp\ccLNaGfc.s:29887  .debug_str:000000000002073b .LASF3298
C:\Users\CYMR90~1\AppData\Local\Temp\ccLNaGfc.s:31423  .debug_str:000000000002672f .LASF3299
C:\Users\CYMR90~1\AppData\Local\Temp\ccLNaGfc.s:33105  .debug_str:000000000002d282 .LASF3300
C:\Users\CYMR90~1\AppData\Local\Temp\ccLNaGfc.s:24286  .debug_str:0000000000009fea .LASF3301
C:\Users\CYMR90~1\AppData\Local\Temp\ccLNaGfc.s:28183  .debug_str:000000000001996b .LASF3302
C:\Users\CYMR90~1\AppData\Local\Temp\ccLNaGfc.s:25582  .debug_str:000000000000f23f .LASF3303
C:\Users\CYMR90~1\AppData\Local\Temp\ccLNaGfc.s:29571  .debug_str:000000000001f40e .LASF3304
C:\Users\CYMR90~1\AppData\Local\Temp\ccLNaGfc.s:27999  .debug_str:0000000000018d90 .LASF3305
C:\Users\CYMR90~1\AppData\Local\Temp\ccLNaGfc.s:32613  .debug_str:000000000002b1f6 .LASF3306
C:\Users\CYMR90~1\AppData\Local\Temp\ccLNaGfc.s:28777  .debug_str:000000000001c147 .LASF3307
C:\Users\CYMR90~1\AppData\Local\Temp\ccLNaGfc.s:22778  .debug_str:0000000000003f2d .LASF3308
C:\Users\CYMR90~1\AppData\Local\Temp\ccLNaGfc.s:24560  .debug_str:000000000000b0fd .LASF3309
C:\Users\CYMR90~1\AppData\Local\Temp\ccLNaGfc.s:25600  .debug_str:000000000000f360 .LASF3310
C:\Users\CYMR90~1\AppData\Local\Temp\ccLNaGfc.s:30323  .debug_str:0000000000022213 .LASF3311
C:\Users\CYMR90~1\AppData\Local\Temp\ccLNaGfc.s:28907  .debug_str:000000000001c933 .LASF3312
C:\Users\CYMR90~1\AppData\Local\Temp\ccLNaGfc.s:29325  .debug_str:000000000001e566 .LASF3313
C:\Users\CYMR90~1\AppData\Local\Temp\ccLNaGfc.s:28533  .debug_str:000000000001b1ad .LASF3314
C:\Users\CYMR90~1\AppData\Local\Temp\ccLNaGfc.s:30345  .debug_str:000000000002237e .LASF3315
C:\Users\CYMR90~1\AppData\Local\Temp\ccLNaGfc.s:24526  .debug_str:000000000000aeb9 .LASF3316
C:\Users\CYMR90~1\AppData\Local\Temp\ccLNaGfc.s:26896  .debug_str:00000000000145eb .LASF3317
C:\Users\CYMR90~1\AppData\Local\Temp\ccLNaGfc.s:23332  .debug_str:000000000000627b .LASF3318
C:\Users\CYMR90~1\AppData\Local\Temp\ccLNaGfc.s:30073  .debug_str:00000000000212a7 .LASF3319
C:\Users\CYMR90~1\AppData\Local\Temp\ccLNaGfc.s:26514  .debug_str:0000000000012dc8 .LASF3320
C:\Users\CYMR90~1\AppData\Local\Temp\ccLNaGfc.s:28609  .debug_str:000000000001b701 .LASF3321
C:\Users\CYMR90~1\AppData\Local\Temp\ccLNaGfc.s:28471  .debug_str:000000000001adc1 .LASF3322
C:\Users\CYMR90~1\AppData\Local\Temp\ccLNaGfc.s:23078  .debug_str:0000000000005336 .LASF3323
C:\Users\CYMR90~1\AppData\Local\Temp\ccLNaGfc.s:29935  .debug_str:00000000000209ee .LASF3324
C:\Users\CYMR90~1\AppData\Local\Temp\ccLNaGfc.s:26584  .debug_str:0000000000013266 .LASF3325
C:\Users\CYMR90~1\AppData\Local\Temp\ccLNaGfc.s:24396  .debug_str:000000000000a6fa .LASF3326
C:\Users\CYMR90~1\AppData\Local\Temp\ccLNaGfc.s:28941  .debug_str:000000000001cb47 .LASF3327
C:\Users\CYMR90~1\AppData\Local\Temp\ccLNaGfc.s:23594  .debug_str:00000000000072ca .LASF3328
C:\Users\CYMR90~1\AppData\Local\Temp\ccLNaGfc.s:31615  .debug_str:00000000000272cc .LASF3329
C:\Users\CYMR90~1\AppData\Local\Temp\ccLNaGfc.s:22994  .debug_str:0000000000004e08 .LASF3330
C:\Users\CYMR90~1\AppData\Local\Temp\ccLNaGfc.s:29989  .debug_str:0000000000020d8b .LASF3331
C:\Users\CYMR90~1\AppData\Local\Temp\ccLNaGfc.s:22294  .debug_str:0000000000002075 .LASF3332
C:\Users\CYMR90~1\AppData\Local\Temp\ccLNaGfc.s:27893  .debug_str:00000000000186eb .LASF3333
C:\Users\CYMR90~1\AppData\Local\Temp\ccLNaGfc.s:27607  .debug_str:0000000000017594 .LASF3334
C:\Users\CYMR90~1\AppData\Local\Temp\ccLNaGfc.s:27807  .debug_str:00000000000181e9 .LASF3335
C:\Users\CYMR90~1\AppData\Local\Temp\ccLNaGfc.s:25284  .debug_str:000000000000e063 .LASF3336
C:\Users\CYMR90~1\AppData\Local\Temp\ccLNaGfc.s:30067  .debug_str:0000000000021251 .LASF3337
C:\Users\CYMR90~1\AppData\Local\Temp\ccLNaGfc.s:30935  .debug_str:0000000000024698 .LASF3338
C:\Users\CYMR90~1\AppData\Local\Temp\ccLNaGfc.s:31807  .debug_str:0000000000027f3b .LASF3339
C:\Users\CYMR90~1\AppData\Local\Temp\ccLNaGfc.s:30195  .debug_str:0000000000021a33 .LASF3340
C:\Users\CYMR90~1\AppData\Local\Temp\ccLNaGfc.s:31447  .debug_str:000000000002687a .LASF3341
C:\Users\CYMR90~1\AppData\Local\Temp\ccLNaGfc.s:23612  .debug_str:0000000000007425 .LASF3342
C:\Users\CYMR90~1\AppData\Local\Temp\ccLNaGfc.s:28669  .debug_str:000000000001bac2 .LASF3343
C:\Users\CYMR90~1\AppData\Local\Temp\ccLNaGfc.s:22386  .debug_str:000000000000259b .LASF3344
C:\Users\CYMR90~1\AppData\Local\Temp\ccLNaGfc.s:31203  .debug_str:0000000000025903 .LASF3345
C:\Users\CYMR90~1\AppData\Local\Temp\ccLNaGfc.s:24866  .debug_str:000000000000c5c2 .LASF3346
C:\Users\CYMR90~1\AppData\Local\Temp\ccLNaGfc.s:27360  .debug_str:00000000000163a2 .LASF3347
C:\Users\CYMR90~1\AppData\Local\Temp\ccLNaGfc.s:31647  .debug_str:000000000002749d .LASF3348
C:\Users\CYMR90~1\AppData\Local\Temp\ccLNaGfc.s:24514  .debug_str:000000000000adfa .LASF3349
C:\Users\CYMR90~1\AppData\Local\Temp\ccLNaGfc.s:25360  .debug_str:000000000000e4a2 .LASF3350
C:\Users\CYMR90~1\AppData\Local\Temp\ccLNaGfc.s:22998  .debug_str:0000000000004e57 .LASF3351
C:\Users\CYMR90~1\AppData\Local\Temp\ccLNaGfc.s:21966  .debug_str:0000000000000b1c .LASF3352
C:\Users\CYMR90~1\AppData\Local\Temp\ccLNaGfc.s:30357  .debug_str:000000000002242d .LASF3353
C:\Users\CYMR90~1\AppData\Local\Temp\ccLNaGfc.s:24532  .debug_str:000000000000af0e .LASF3354
C:\Users\CYMR90~1\AppData\Local\Temp\ccLNaGfc.s:22686  .debug_str:000000000000393d .LASF3355
C:\Users\CYMR90~1\AppData\Local\Temp\ccLNaGfc.s:23748  .debug_str:0000000000007cbe .LASF3356
C:\Users\CYMR90~1\AppData\Local\Temp\ccLNaGfc.s:27911  .debug_str:000000000001882f .LASF3357
C:\Users\CYMR90~1\AppData\Local\Temp\ccLNaGfc.s:27382  .debug_str:00000000000164ef .LASF3358
C:\Users\CYMR90~1\AppData\Local\Temp\ccLNaGfc.s:26572  .debug_str:000000000001319a .LASF3359
C:\Users\CYMR90~1\AppData\Local\Temp\ccLNaGfc.s:28259  .debug_str:0000000000019ef9 .LASF3360
C:\Users\CYMR90~1\AppData\Local\Temp\ccLNaGfc.s:32577  .debug_str:000000000002afc8 .LASF3361
C:\Users\CYMR90~1\AppData\Local\Temp\ccLNaGfc.s:27452  .debug_str:000000000001697a .LASF3362
C:\Users\CYMR90~1\AppData\Local\Temp\ccLNaGfc.s:26496  .debug_str:0000000000012cc2 .LASF3363
C:\Users\CYMR90~1\AppData\Local\Temp\ccLNaGfc.s:28557  .debug_str:000000000001b36a .LASF3364
C:\Users\CYMR90~1\AppData\Local\Temp\ccLNaGfc.s:31477  .debug_str:0000000000026a69 .LASF3365
C:\Users\CYMR90~1\AppData\Local\Temp\ccLNaGfc.s:23826  .debug_str:00000000000082a0 .LASF3366
C:\Users\CYMR90~1\AppData\Local\Temp\ccLNaGfc.s:22504  .debug_str:0000000000002db1 .LASF3367
C:\Users\CYMR90~1\AppData\Local\Temp\ccLNaGfc.s:30281  .debug_str:0000000000021f62 .LASF3368
C:\Users\CYMR90~1\AppData\Local\Temp\ccLNaGfc.s:29607  .debug_str:000000000001f687 .LASF3369
C:\Users\CYMR90~1\AppData\Local\Temp\ccLNaGfc.s:29901  .debug_str:00000000000207fa .LASF3370
C:\Users\CYMR90~1\AppData\Local\Temp\ccLNaGfc.s:30443  .debug_str:00000000000228fe .LASF3371
C:\Users\CYMR90~1\AppData\Local\Temp\ccLNaGfc.s:26004  .debug_str:0000000000010ce6 .LASF3372
C:\Users\CYMR90~1\AppData\Local\Temp\ccLNaGfc.s:23540  .debug_str:0000000000006f48 .LASF3373
C:\Users\CYMR90~1\AppData\Local\Temp\ccLNaGfc.s:32733  .debug_str:000000000002b9a8 .LASF3374
C:\Users\CYMR90~1\AppData\Local\Temp\ccLNaGfc.s:32565  .debug_str:000000000002aeef .LASF3375
C:\Users\CYMR90~1\AppData\Local\Temp\ccLNaGfc.s:29275  .debug_str:000000000001e259 .LASF3376
C:\Users\CYMR90~1\AppData\Local\Temp\ccLNaGfc.s:21948  .debug_str:000000000000099a .LASF3377
C:\Users\CYMR90~1\AppData\Local\Temp\ccLNaGfc.s:31581  .debug_str:0000000000027081 .LASF3378
C:\Users\CYMR90~1\AppData\Local\Temp\ccLNaGfc.s:25784  .debug_str:000000000000ff30 .LASF3379
C:\Users\CYMR90~1\AppData\Local\Temp\ccLNaGfc.s:33045  .debug_str:000000000002ce56 .LASF3380
C:\Users\CYMR90~1\AppData\Local\Temp\ccLNaGfc.s:28081  .debug_str:000000000001936e .LASF3381
C:\Users\CYMR90~1\AppData\Local\Temp\ccLNaGfc.s:32673  .debug_str:000000000002b56c .LASF3382
C:\Users\CYMR90~1\AppData\Local\Temp\ccLNaGfc.s:28121  .debug_str:00000000000195b5 .LASF3383
C:\Users\CYMR90~1\AppData\Local\Temp\ccLNaGfc.s:30429  .debug_str:0000000000022852 .LASF3384
C:\Users\CYMR90~1\AppData\Local\Temp\ccLNaGfc.s:26830  .debug_str:00000000000141e6 .LASF3385
C:\Users\CYMR90~1\AppData\Local\Temp\ccLNaGfc.s:24962  .debug_str:000000000000cc36 .LASF3386
C:\Users\CYMR90~1\AppData\Local\Temp\ccLNaGfc.s:22566  .debug_str:000000000000317b .LASF3387
C:\Users\CYMR90~1\AppData\Local\Temp\ccLNaGfc.s:28437  .debug_str:000000000001ab97 .LASF3388
C:\Users\CYMR90~1\AppData\Local\Temp\ccLNaGfc.s:29687  .debug_str:000000000001fb8a .LASF3389
C:\Users\CYMR90~1\AppData\Local\Temp\ccLNaGfc.s:32367  .debug_str:000000000002a332 .LASF3390
C:\Users\CYMR90~1\AppData\Local\Temp\ccLNaGfc.s:31567  .debug_str:0000000000026fe3 .LASF3391
C:\Users\CYMR90~1\AppData\Local\Temp\ccLNaGfc.s:30491  .debug_str:0000000000022bc0 .LASF3392
C:\Users\CYMR90~1\AppData\Local\Temp\ccLNaGfc.s:31147  .debug_str:000000000002547e .LASF3393
C:\Users\CYMR90~1\AppData\Local\Temp\ccLNaGfc.s:29273  .debug_str:000000000001e23d .LASF3394
C:\Users\CYMR90~1\AppData\Local\Temp\ccLNaGfc.s:29335  .debug_str:000000000001e5fe .LASF3395
C:\Users\CYMR90~1\AppData\Local\Temp\ccLNaGfc.s:28343  .debug_str:000000000001a3d0 .LASF3396
C:\Users\CYMR90~1\AppData\Local\Temp\ccLNaGfc.s:21850  .debug_str:00000000000003e3 .LASF3397
C:\Users\CYMR90~1\AppData\Local\Temp\ccLNaGfc.s:27697  .debug_str:0000000000017ae9 .LASF3398
C:\Users\CYMR90~1\AppData\Local\Temp\ccLNaGfc.s:31337  .debug_str:00000000000261e5 .LASF3399
C:\Users\CYMR90~1\AppData\Local\Temp\ccLNaGfc.s:23110  .debug_str:000000000000551d .LASF3400
C:\Users\CYMR90~1\AppData\Local\Temp\ccLNaGfc.s:22194  .debug_str:0000000000001a95 .LASF3401
C:\Users\CYMR90~1\AppData\Local\Temp\ccLNaGfc.s:27240  .debug_str:0000000000015b72 .LASF3402
C:\Users\CYMR90~1\AppData\Local\Temp\ccLNaGfc.s:25684  .debug_str:000000000000f87a .LASF3403
C:\Users\CYMR90~1\AppData\Local\Temp\ccLNaGfc.s:31231  .debug_str:0000000000025acd .LASF3404
C:\Users\CYMR90~1\AppData\Local\Temp\ccLNaGfc.s:29351  .debug_str:000000000001e700 .LASF3405
C:\Users\CYMR90~1\AppData\Local\Temp\ccLNaGfc.s:22286  .debug_str:0000000000001fff .LASF3406
C:\Users\CYMR90~1\AppData\Local\Temp\ccLNaGfc.s:29667  .debug_str:000000000001fa31 .LASF3407
C:\Users\CYMR90~1\AppData\Local\Temp\ccLNaGfc.s:24176  .debug_str:000000000000990e .LASF3408
C:\Users\CYMR90~1\AppData\Local\Temp\ccLNaGfc.s:27825  .debug_str:00000000000182e9 .LASF3409
C:\Users\CYMR90~1\AppData\Local\Temp\ccLNaGfc.s:32331  .debug_str:000000000002a138 .LASF3410
C:\Users\CYMR90~1\AppData\Local\Temp\ccLNaGfc.s:25320  .debug_str:000000000000e24f .LASF3411
C:\Users\CYMR90~1\AppData\Local\Temp\ccLNaGfc.s:29409  .debug_str:000000000001ea84 .LASF3412
C:\Users\CYMR90~1\AppData\Local\Temp\ccLNaGfc.s:32939  .debug_str:000000000002c754 .LASF3413
C:\Users\CYMR90~1\AppData\Local\Temp\ccLNaGfc.s:25632  .debug_str:000000000000f586 .LASF3414
C:\Users\CYMR90~1\AppData\Local\Temp\ccLNaGfc.s:29711  .debug_str:000000000001fcf3 .LASF3415
C:\Users\CYMR90~1\AppData\Local\Temp\ccLNaGfc.s:22984  .debug_str:0000000000004d67 .LASF3416
C:\Users\CYMR90~1\AppData\Local\Temp\ccLNaGfc.s:29603  .debug_str:000000000001f653 .LASF3417
C:\Users\CYMR90~1\AppData\Local\Temp\ccLNaGfc.s:25330  .debug_str:000000000000e2ef .LASF3418
C:\Users\CYMR90~1\AppData\Local\Temp\ccLNaGfc.s:32687  .debug_str:000000000002b685 .LASF3419
C:\Users\CYMR90~1\AppData\Local\Temp\ccLNaGfc.s:30271  .debug_str:0000000000021ee6 .LASF3420
C:\Users\CYMR90~1\AppData\Local\Temp\ccLNaGfc.s:27589  .debug_str:0000000000017477 .LASF3421
C:\Users\CYMR90~1\AppData\Local\Temp\ccLNaGfc.s:29139  .debug_str:000000000001d9a0 .LASF3422
C:\Users\CYMR90~1\AppData\Local\Temp\ccLNaGfc.s:27637  .debug_str:000000000001771d .LASF3423
C:\Users\CYMR90~1\AppData\Local\Temp\ccLNaGfc.s:31165  .debug_str:0000000000025606 .LASF3424
C:\Users\CYMR90~1\AppData\Local\Temp\ccLNaGfc.s:29297  .debug_str:000000000001e3e9 .LASF3425
C:\Users\CYMR90~1\AppData\Local\Temp\ccLNaGfc.s:30245  .debug_str:0000000000021d74 .LASF3426
C:\Users\CYMR90~1\AppData\Local\Temp\ccLNaGfc.s:25888  .debug_str:00000000000105fb .LASF3427
C:\Users\CYMR90~1\AppData\Local\Temp\ccLNaGfc.s:27032  .debug_str:0000000000014ea0 .LASF3428
C:\Users\CYMR90~1\AppData\Local\Temp\ccLNaGfc.s:33065  .debug_str:000000000002cfcc .LASF3429
C:\Users\CYMR90~1\AppData\Local\Temp\ccLNaGfc.s:25052  .debug_str:000000000000d19f .LASF3430
C:\Users\CYMR90~1\AppData\Local\Temp\ccLNaGfc.s:27875  .debug_str:00000000000185ee .LASF3431
C:\Users\CYMR90~1\AppData\Local\Temp\ccLNaGfc.s:24202  .debug_str:0000000000009a6f .LASF3432
C:\Users\CYMR90~1\AppData\Local\Temp\ccLNaGfc.s:31433  .debug_str:00000000000267b8 .LASF3433
C:\Users\CYMR90~1\AppData\Local\Temp\ccLNaGfc.s:32509  .debug_str:000000000002abb8 .LASF3434
C:\Users\CYMR90~1\AppData\Local\Temp\ccLNaGfc.s:24758  .debug_str:000000000000be99 .LASF3435
C:\Users\CYMR90~1\AppData\Local\Temp\ccLNaGfc.s:31911  .debug_str:0000000000028701 .LASF3436
C:\Users\CYMR90~1\AppData\Local\Temp\ccLNaGfc.s:28785  .debug_str:000000000001c1e7 .LASF3437
C:\Users\CYMR90~1\AppData\Local\Temp\ccLNaGfc.s:23600  .debug_str:0000000000007345 .LASF3438
C:\Users\CYMR90~1\AppData\Local\Temp\ccLNaGfc.s:22360  .debug_str:000000000000244a .LASF3439
C:\Users\CYMR90~1\AppData\Local\Temp\ccLNaGfc.s:31493  .debug_str:0000000000026b8a .LASF3440
C:\Users\CYMR90~1\AppData\Local\Temp\ccLNaGfc.s:28211  .debug_str:0000000000019c16 .LASF3441
C:\Users\CYMR90~1\AppData\Local\Temp\ccLNaGfc.s:28139  .debug_str:00000000000196e9 .LASF3442
C:\Users\CYMR90~1\AppData\Local\Temp\ccLNaGfc.s:28561  .debug_str:000000000001b3aa .LASF3443
C:\Users\CYMR90~1\AppData\Local\Temp\ccLNaGfc.s:22368  .debug_str:00000000000024b4 .LASF3444
C:\Users\CYMR90~1\AppData\Local\Temp\ccLNaGfc.s:31833  .debug_str:0000000000028133 .LASF3445
C:\Users\CYMR90~1\AppData\Local\Temp\ccLNaGfc.s:29227  .debug_str:000000000001df1d .LASF3446
C:\Users\CYMR90~1\AppData\Local\Temp\ccLNaGfc.s:22992  .debug_str:0000000000004ded .LASF3447
C:\Users\CYMR90~1\AppData\Local\Temp\ccLNaGfc.s:25420  .debug_str:000000000000e884 .LASF3448
C:\Users\CYMR90~1\AppData\Local\Temp\ccLNaGfc.s:30027  .debug_str:0000000000020fd8 .LASF3449
C:\Users\CYMR90~1\AppData\Local\Temp\ccLNaGfc.s:32889  .debug_str:000000000002c444 .LASF3450
C:\Users\CYMR90~1\AppData\Local\Temp\ccLNaGfc.s:32631  .debug_str:000000000002b315 .LASF3451
C:\Users\CYMR90~1\AppData\Local\Temp\ccLNaGfc.s:21908  .debug_str:000000000000075a .LASF3452
C:\Users\CYMR90~1\AppData\Local\Temp\ccLNaGfc.s:25548  .debug_str:000000000000f04c .LASF3453
C:\Users\CYMR90~1\AppData\Local\Temp\ccLNaGfc.s:26936  .debug_str:00000000000148c6 .LASF3454
C:\Users\CYMR90~1\AppData\Local\Temp\ccLNaGfc.s:30803  .debug_str:0000000000023e88 .LASF3455
C:\Users\CYMR90~1\AppData\Local\Temp\ccLNaGfc.s:28389  .debug_str:000000000001a801 .LASF3456
C:\Users\CYMR90~1\AppData\Local\Temp\ccLNaGfc.s:27533  .debug_str:0000000000017114 .LASF3457
C:\Users\CYMR90~1\AppData\Local\Temp\ccLNaGfc.s:27985  .debug_str:0000000000018ca2 .LASF3458
C:\Users\CYMR90~1\AppData\Local\Temp\ccLNaGfc.s:32453  .debug_str:000000000002a823 .LASF3459
C:\Users\CYMR90~1\AppData\Local\Temp\ccLNaGfc.s:25102  .debug_str:000000000000d50d .LASF3460
C:\Users\CYMR90~1\AppData\Local\Temp\ccLNaGfc.s:27583  .debug_str:0000000000017400 .LASF3461
C:\Users\CYMR90~1\AppData\Local\Temp\ccLNaGfc.s:26910  .debug_str:00000000000146bd .LASF3462
C:\Users\CYMR90~1\AppData\Local\Temp\ccLNaGfc.s:27006  .debug_str:0000000000014d1a .LASF3463
C:\Users\CYMR90~1\AppData\Local\Temp\ccLNaGfc.s:29377  .debug_str:000000000001e88a .LASF3464
C:\Users\CYMR90~1\AppData\Local\Temp\ccLNaGfc.s:32251  .debug_str:0000000000029cb7 .LASF3465
C:\Users\CYMR90~1\AppData\Local\Temp\ccLNaGfc.s:22498  .debug_str:0000000000002d6b .LASF3466
C:\Users\CYMR90~1\AppData\Local\Temp\ccLNaGfc.s:29585  .debug_str:000000000001f4fb .LASF3467
C:\Users\CYMR90~1\AppData\Local\Temp\ccLNaGfc.s:24328  .debug_str:000000000000a274 .LASF3468
C:\Users\CYMR90~1\AppData\Local\Temp\ccLNaGfc.s:22620  .debug_str:0000000000003526 .LASF3469
C:\Users\CYMR90~1\AppData\Local\Temp\ccLNaGfc.s:24576  .debug_str:000000000000b294 .LASF3470
C:\Users\CYMR90~1\AppData\Local\Temp\ccLNaGfc.s:28043  .debug_str:000000000001906c .LASF3471
C:\Users\CYMR90~1\AppData\Local\Temp\ccLNaGfc.s:31105  .debug_str:0000000000025226 .LASF3472
C:\Users\CYMR90~1\AppData\Local\Temp\ccLNaGfc.s:28457  .debug_str:000000000001accc .LASF3473
C:\Users\CYMR90~1\AppData\Local\Temp\ccLNaGfc.s:28313  .debug_str:000000000001a216 .LASF3474
C:\Users\CYMR90~1\AppData\Local\Temp\ccLNaGfc.s:23466  .debug_str:0000000000006aae .LASF3475
C:\Users\CYMR90~1\AppData\Local\Temp\ccLNaGfc.s:25426  .debug_str:000000000000e8d0 .LASF3476
C:\Users\CYMR90~1\AppData\Local\Temp\ccLNaGfc.s:25268  .debug_str:000000000000df34 .LASF3477
C:\Users\CYMR90~1\AppData\Local\Temp\ccLNaGfc.s:23894  .debug_str:00000000000086ec .LASF3478
C:\Users\CYMR90~1\AppData\Local\Temp\ccLNaGfc.s:24086  .debug_str:000000000000935b .LASF3479
C:\Users\CYMR90~1\AppData\Local\Temp\ccLNaGfc.s:24680  .debug_str:000000000000b954 .LASF3480
C:\Users\CYMR90~1\AppData\Local\Temp\ccLNaGfc.s:22646  .debug_str:00000000000036d4 .LASF3481
C:\Users\CYMR90~1\AppData\Local\Temp\ccLNaGfc.s:24014  .debug_str:0000000000008ea8 .LASF3482
C:\Users\CYMR90~1\AppData\Local\Temp\ccLNaGfc.s:21832  .debug_str:00000000000002cb .LASF3483
C:\Users\CYMR90~1\AppData\Local\Temp\ccLNaGfc.s:27579  .debug_str:00000000000173d2 .LASF3484
C:\Users\CYMR90~1\AppData\Local\Temp\ccLNaGfc.s:24826  .debug_str:000000000000c366 .LASF3485
C:\Users\CYMR90~1\AppData\Local\Temp\ccLNaGfc.s:30741  .debug_str:0000000000023a6e .LASF3486
C:\Users\CYMR90~1\AppData\Local\Temp\ccLNaGfc.s:32805  .debug_str:000000000002be78 .LASF3487
C:\Users\CYMR90~1\AppData\Local\Temp\ccLNaGfc.s:26388  .debug_str:00000000000125ae .LASF3488
C:\Users\CYMR90~1\AppData\Local\Temp\ccLNaGfc.s:26242  .debug_str:0000000000011c75 .LASF3489
C:\Users\CYMR90~1\AppData\Local\Temp\ccLNaGfc.s:28575  .debug_str:000000000001b4bc .LASF3490
C:\Users\CYMR90~1\AppData\Local\Temp\ccLNaGfc.s:24516  .debug_str:000000000000ae1e .LASF3491
C:\Users\CYMR90~1\AppData\Local\Temp\ccLNaGfc.s:32183  .debug_str:0000000000029813 .LASF3492
C:\Users\CYMR90~1\AppData\Local\Temp\ccLNaGfc.s:28227  .debug_str:0000000000019cf6 .LASF3493
C:\Users\CYMR90~1\AppData\Local\Temp\ccLNaGfc.s:29569  .debug_str:000000000001f3ef .LASF3494
C:\Users\CYMR90~1\AppData\Local\Temp\ccLNaGfc.s:30679  .debug_str:00000000000236af .LASF3495
C:\Users\CYMR90~1\AppData\Local\Temp\ccLNaGfc.s:31523  .debug_str:0000000000026d52 .LASF3496
C:\Users\CYMR90~1\AppData\Local\Temp\ccLNaGfc.s:22010  .debug_str:0000000000000dd9 .LASF3497
C:\Users\CYMR90~1\AppData\Local\Temp\ccLNaGfc.s:25494  .debug_str:000000000000ed62 .LASF3498
C:\Users\CYMR90~1\AppData\Local\Temp\ccLNaGfc.s:32885  .debug_str:000000000002c413 .LASF3499
C:\Users\CYMR90~1\AppData\Local\Temp\ccLNaGfc.s:31661  .debug_str:0000000000027562 .LASF3500
C:\Users\CYMR90~1\AppData\Local\Temp\ccLNaGfc.s:22484  .debug_str:0000000000002c3b .LASF3501
C:\Users\CYMR90~1\AppData\Local\Temp\ccLNaGfc.s:28709  .debug_str:000000000001bcf8 .LASF3502
C:\Users\CYMR90~1\AppData\Local\Temp\ccLNaGfc.s:23620  .debug_str:00000000000074b8 .LASF3503
C:\Users\CYMR90~1\AppData\Local\Temp\ccLNaGfc.s:25026  .debug_str:000000000000cfe3 .LASF3504
C:\Users\CYMR90~1\AppData\Local\Temp\ccLNaGfc.s:23366  .debug_str:0000000000006494 .LASF3505
C:\Users\CYMR90~1\AppData\Local\Temp\ccLNaGfc.s:30131  .debug_str:00000000000215ed .LASF3506
C:\Users\CYMR90~1\AppData\Local\Temp\ccLNaGfc.s:30399  .debug_str:0000000000022680 .LASF3507
C:\Users\CYMR90~1\AppData\Local\Temp\ccLNaGfc.s:24180  .debug_str:0000000000009948 .LASF3508
C:\Users\CYMR90~1\AppData\Local\Temp\ccLNaGfc.s:30799  .debug_str:0000000000023e5a .LASF3509
C:\Users\CYMR90~1\AppData\Local\Temp\ccLNaGfc.s:33011  .debug_str:000000000002cbf9 .LASF3510
C:\Users\CYMR90~1\AppData\Local\Temp\ccLNaGfc.s:32541  .debug_str:000000000002ad82 .LASF3511
C:\Users\CYMR90~1\AppData\Local\Temp\ccLNaGfc.s:25318  .debug_str:000000000000e236 .LASF3512
C:\Users\CYMR90~1\AppData\Local\Temp\ccLNaGfc.s:29505  .debug_str:000000000001f047 .LASF3513
C:\Users\CYMR90~1\AppData\Local\Temp\ccLNaGfc.s:22948  .debug_str:0000000000004aae .LASF3514
C:\Users\CYMR90~1\AppData\Local\Temp\ccLNaGfc.s:22240  .debug_str:0000000000001d40 .LASF3515
C:\Users\CYMR90~1\AppData\Local\Temp\ccLNaGfc.s:24266  .debug_str:0000000000009ed9 .LASF3516
C:\Users\CYMR90~1\AppData\Local\Temp\ccLNaGfc.s:30655  .debug_str:000000000002359c .LASF3517
C:\Users\CYMR90~1\AppData\Local\Temp\ccLNaGfc.s:26274  .debug_str:0000000000011e72 .LASF3518
C:\Users\CYMR90~1\AppData\Local\Temp\ccLNaGfc.s:26810  .debug_str:00000000000140c8 .LASF3519
C:\Users\CYMR90~1\AppData\Local\Temp\ccLNaGfc.s:24144  .debug_str:00000000000096bf .LASF3520
C:\Users\CYMR90~1\AppData\Local\Temp\ccLNaGfc.s:30483  .debug_str:0000000000022b4d .LASF3521
C:\Users\CYMR90~1\AppData\Local\Temp\ccLNaGfc.s:28063  .debug_str:0000000000019172 .LASF3522
C:\Users\CYMR90~1\AppData\Local\Temp\ccLNaGfc.s:32035  .debug_str:0000000000028ef5 .LASF3523
C:\Users\CYMR90~1\AppData\Local\Temp\ccLNaGfc.s:27745  .debug_str:0000000000017e0e .LASF3524
C:\Users\CYMR90~1\AppData\Local\Temp\ccLNaGfc.s:31951  .debug_str:0000000000028989 .LASF3525
C:\Users\CYMR90~1\AppData\Local\Temp\ccLNaGfc.s:25328  .debug_str:000000000000e2d0 .LASF3526
C:\Users\CYMR90~1\AppData\Local\Temp\ccLNaGfc.s:23806  .debug_str:00000000000080c0 .LASF3527
C:\Users\CYMR90~1\AppData\Local\Temp\ccLNaGfc.s:32949  .debug_str:000000000002c823 .LASF3528
C:\Users\CYMR90~1\AppData\Local\Temp\ccLNaGfc.s:27128  .debug_str:0000000000015529 .LASF3529
C:\Users\CYMR90~1\AppData\Local\Temp\ccLNaGfc.s:28865  .debug_str:000000000001c6e1 .LASF3530
C:\Users\CYMR90~1\AppData\Local\Temp\ccLNaGfc.s:28285  .debug_str:000000000001a066 .LASF3531
C:\Users\CYMR90~1\AppData\Local\Temp\ccLNaGfc.s:30211  .debug_str:0000000000021b3c .LASF3532
C:\Users\CYMR90~1\AppData\Local\Temp\ccLNaGfc.s:30181  .debug_str:0000000000021958 .LASF3533
C:\Users\CYMR90~1\AppData\Local\Temp\ccLNaGfc.s:28825  .debug_str:000000000001c45b .LASF3534
C:\Users\CYMR90~1\AppData\Local\Temp\ccLNaGfc.s:32379  .debug_str:000000000002a3d6 .LASF3535
C:\Users\CYMR90~1\AppData\Local\Temp\ccLNaGfc.s:21800  .debug_str:00000000000000dc .LASF3536
C:\Users\CYMR90~1\AppData\Local\Temp\ccLNaGfc.s:26236  .debug_str:0000000000011b80 .LASF3537
C:\Users\CYMR90~1\AppData\Local\Temp\ccLNaGfc.s:30223  .debug_str:0000000000021bfa .LASF3538
C:\Users\CYMR90~1\AppData\Local\Temp\ccLNaGfc.s:30489  .debug_str:0000000000022b9b .LASF3539
C:\Users\CYMR90~1\AppData\Local\Temp\ccLNaGfc.s:27316  .debug_str:0000000000016092 .LASF3540
C:\Users\CYMR90~1\AppData\Local\Temp\ccLNaGfc.s:31053  .debug_str:0000000000024eb6 .LASF3541
C:\Users\CYMR90~1\AppData\Local\Temp\ccLNaGfc.s:24932  .debug_str:000000000000c9bc .LASF3542
C:\Users\CYMR90~1\AppData\Local\Temp\ccLNaGfc.s:33129  .debug_str:000000000002d3c6 .LASF3543
C:\Users\CYMR90~1\AppData\Local\Temp\ccLNaGfc.s:30775  .debug_str:0000000000023ccb .LASF3544
C:\Users\CYMR90~1\AppData\Local\Temp\ccLNaGfc.s:31201  .debug_str:00000000000258df .LASF3545
C:\Users\CYMR90~1\AppData\Local\Temp\ccLNaGfc.s:26276  .debug_str:0000000000011e87 .LASF3546
C:\Users\CYMR90~1\AppData\Local\Temp\ccLNaGfc.s:26640  .debug_str:0000000000013665 .LASF3547
C:\Users\CYMR90~1\AppData\Local\Temp\ccLNaGfc.s:22262  .debug_str:0000000000001e78 .LASF3548
C:\Users\CYMR90~1\AppData\Local\Temp\ccLNaGfc.s:23592  .debug_str:00000000000072a6 .LASF3549
C:\Users\CYMR90~1\AppData\Local\Temp\ccLNaGfc.s:32761  .debug_str:000000000002bb5d .LASF3550
C:\Users\CYMR90~1\AppData\Local\Temp\ccLNaGfc.s:27346  .debug_str:00000000000162c9 .LASF3551
C:\Users\CYMR90~1\AppData\Local\Temp\ccLNaGfc.s:28151  .debug_str:00000000000197a2 .LASF3552
C:\Users\CYMR90~1\AppData\Local\Temp\ccLNaGfc.s:25202  .debug_str:000000000000db4f .LASF3553
C:\Users\CYMR90~1\AppData\Local\Temp\ccLNaGfc.s:26488  .debug_str:0000000000012c1b .LASF3554
C:\Users\CYMR90~1\AppData\Local\Temp\ccLNaGfc.s:22030  .debug_str:0000000000000fa5 .LASF3555
C:\Users\CYMR90~1\AppData\Local\Temp\ccLNaGfc.s:28421  .debug_str:000000000001aa3a .LASF3556
C:\Users\CYMR90~1\AppData\Local\Temp\ccLNaGfc.s:22868  .debug_str:0000000000004540 .LASF3557
C:\Users\CYMR90~1\AppData\Local\Temp\ccLNaGfc.s:28675  .debug_str:000000000001bb24 .LASF3558
C:\Users\CYMR90~1\AppData\Local\Temp\ccLNaGfc.s:23134  .debug_str:0000000000005691 .LASF3559
C:\Users\CYMR90~1\AppData\Local\Temp\ccLNaGfc.s:24250  .debug_str:0000000000009dc4 .LASF3560
C:\Users\CYMR90~1\AppData\Local\Temp\ccLNaGfc.s:23412  .debug_str:0000000000006746 .LASF3561
C:\Users\CYMR90~1\AppData\Local\Temp\ccLNaGfc.s:29189  .debug_str:000000000001dccc .LASF3562
C:\Users\CYMR90~1\AppData\Local\Temp\ccLNaGfc.s:31689  .debug_str:0000000000027811 .LASF3563
C:\Users\CYMR90~1\AppData\Local\Temp\ccLNaGfc.s:30423  .debug_str:00000000000227dc .LASF3564
C:\Users\CYMR90~1\AppData\Local\Temp\ccLNaGfc.s:23450  .debug_str:000000000000697c .LASF3565
C:\Users\CYMR90~1\AppData\Local\Temp\ccLNaGfc.s:32323  .debug_str:000000000002a0c8 .LASF3566
C:\Users\CYMR90~1\AppData\Local\Temp\ccLNaGfc.s:29663  .debug_str:000000000001f9f7 .LASF3567
C:\Users\CYMR90~1\AppData\Local\Temp\ccLNaGfc.s:25520  .debug_str:000000000000eecd .LASF3568
C:\Users\CYMR90~1\AppData\Local\Temp\ccLNaGfc.s:24528  .debug_str:000000000000aed3 .LASF3569
C:\Users\CYMR90~1\AppData\Local\Temp\ccLNaGfc.s:21892  .debug_str:0000000000000635 .LASF3570
C:\Users\CYMR90~1\AppData\Local\Temp\ccLNaGfc.s:25768  .debug_str:000000000000fe32 .LASF3571
C:\Users\CYMR90~1\AppData\Local\Temp\ccLNaGfc.s:24718  .debug_str:000000000000bbf6 .LASF3572
C:\Users\CYMR90~1\AppData\Local\Temp\ccLNaGfc.s:25474  .debug_str:000000000000ebdf .LASF3573
C:\Users\CYMR90~1\AppData\Local\Temp\ccLNaGfc.s:28973  .debug_str:000000000001cdeb .LASF3574
C:\Users\CYMR90~1\AppData\Local\Temp\ccLNaGfc.s:31751  .debug_str:0000000000027b94 .LASF3575
C:\Users\CYMR90~1\AppData\Local\Temp\ccLNaGfc.s:29109  .debug_str:000000000001d78a .LASF3576
C:\Users\CYMR90~1\AppData\Local\Temp\ccLNaGfc.s:26578  .debug_str:00000000000131fa .LASF3577
C:\Users\CYMR90~1\AppData\Local\Temp\ccLNaGfc.s:28689  .debug_str:000000000001bc04 .LASF3578
C:\Users\CYMR90~1\AppData\Local\Temp\ccLNaGfc.s:32721  .debug_str:000000000002b8d6 .LASF3579
C:\Users\CYMR90~1\AppData\Local\Temp\ccLNaGfc.s:25908  .debug_str:000000000001072a .LASF3580
C:\Users\CYMR90~1\AppData\Local\Temp\ccLNaGfc.s:31979  .debug_str:0000000000028b82 .LASF3581
C:\Users\CYMR90~1\AppData\Local\Temp\ccLNaGfc.s:24912  .debug_str:000000000000c887 .LASF3582
C:\Users\CYMR90~1\AppData\Local\Temp\ccLNaGfc.s:22344  .debug_str:0000000000002337 .LASF3583
C:\Users\CYMR90~1\AppData\Local\Temp\ccLNaGfc.s:25884  .debug_str:00000000000105bd .LASF3584
C:\Users\CYMR90~1\AppData\Local\Temp\ccLNaGfc.s:25806  .debug_str:00000000000100a6 .LASF3585
C:\Users\CYMR90~1\AppData\Local\Temp\ccLNaGfc.s:26026  .debug_str:0000000000010e4a .LASF3586
C:\Users\CYMR90~1\AppData\Local\Temp\ccLNaGfc.s:30401  .debug_str:0000000000022698 .LASF3587
C:\Users\CYMR90~1\AppData\Local\Temp\ccLNaGfc.s:26702  .debug_str:0000000000013a28 .LASF3588
C:\Users\CYMR90~1\AppData\Local\Temp\ccLNaGfc.s:23796  .debug_str:0000000000008024 .LASF3589
C:\Users\CYMR90~1\AppData\Local\Temp\ccLNaGfc.s:30633  .debug_str:000000000002346f .LASF3590
C:\Users\CYMR90~1\AppData\Local\Temp\ccLNaGfc.s:32763  .debug_str:000000000002bb81 .LASF3591
C:\Users\CYMR90~1\AppData\Local\Temp\ccLNaGfc.s:32297  .debug_str:0000000000029f40 .LASF3592
C:\Users\CYMR90~1\AppData\Local\Temp\ccLNaGfc.s:28771  .debug_str:000000000001c0cc .LASF3593
C:\Users\CYMR90~1\AppData\Local\Temp\ccLNaGfc.s:23596  .debug_str:00000000000072e8 .LASF3594
C:\Users\CYMR90~1\AppData\Local\Temp\ccLNaGfc.s:23186  .debug_str:00000000000059f1 .LASF3595
C:\Users\CYMR90~1\AppData\Local\Temp\ccLNaGfc.s:23678  .debug_str:000000000000781b .LASF3596
C:\Users\CYMR90~1\AppData\Local\Temp\ccLNaGfc.s:22638  .debug_str:0000000000003659 .LASF3597
C:\Users\CYMR90~1\AppData\Local\Temp\ccLNaGfc.s:31015  .debug_str:0000000000024bd4 .LASF3598
C:\Users\CYMR90~1\AppData\Local\Temp\ccLNaGfc.s:25836  .debug_str:0000000000010289 .LASF3599
C:\Users\CYMR90~1\AppData\Local\Temp\ccLNaGfc.s:23988  .debug_str:0000000000008d2a .LASF3600
C:\Users\CYMR90~1\AppData\Local\Temp\ccLNaGfc.s:24096  .debug_str:000000000000940e .LASF3601
C:\Users\CYMR90~1\AppData\Local\Temp\ccLNaGfc.s:30291  .debug_str:0000000000021ff4 .LASF3602
C:\Users\CYMR90~1\AppData\Local\Temp\ccLNaGfc.s:32231  .debug_str:0000000000029b4d .LASF3603
C:\Users\CYMR90~1\AppData\Local\Temp\ccLNaGfc.s:30547  .debug_str:0000000000022f1b .LASF3604
C:\Users\CYMR90~1\AppData\Local\Temp\ccLNaGfc.s:32123  .debug_str:00000000000293ef .LASF3605
C:\Users\CYMR90~1\AppData\Local\Temp\ccLNaGfc.s:21922  .debug_str:0000000000000820 .LASF3606
C:\Users\CYMR90~1\AppData\Local\Temp\ccLNaGfc.s:30369  .debug_str:00000000000224db .LASF3607
C:\Users\CYMR90~1\AppData\Local\Temp\ccLNaGfc.s:27535  .debug_str:000000000001712c .LASF3608
C:\Users\CYMR90~1\AppData\Local\Temp\ccLNaGfc.s:24536  .debug_str:000000000000af47 .LASF3609
C:\Users\CYMR90~1\AppData\Local\Temp\ccLNaGfc.s:25086  .debug_str:000000000000d3f3 .LASF3610
C:\Users\CYMR90~1\AppData\Local\Temp\ccLNaGfc.s:23582  .debug_str:00000000000071f7 .LASF3611
C:\Users\CYMR90~1\AppData\Local\Temp\ccLNaGfc.s:27146  .debug_str:000000000001560e .LASF3612
C:\Users\CYMR90~1\AppData\Local\Temp\ccLNaGfc.s:24958  .debug_str:000000000000cc06 .LASF3613
C:\Users\CYMR90~1\AppData\Local\Temp\ccLNaGfc.s:30651  .debug_str:000000000002355d .LASF3614
C:\Users\CYMR90~1\AppData\Local\Temp\ccLNaGfc.s:28573  .debug_str:000000000001b479 .LASF3615
C:\Users\CYMR90~1\AppData\Local\Temp\ccLNaGfc.s:30591  .debug_str:0000000000023216 .LASF3616
C:\Users\CYMR90~1\AppData\Local\Temp\ccLNaGfc.s:27677  .debug_str:00000000000179b2 .LASF3617
C:\Users\CYMR90~1\AppData\Local\Temp\ccLNaGfc.s:25394  .debug_str:000000000000e6a3 .LASF3618
C:\Users\CYMR90~1\AppData\Local\Temp\ccLNaGfc.s:29633  .debug_str:000000000001f7f1 .LASF3619
C:\Users\CYMR90~1\AppData\Local\Temp\ccLNaGfc.s:24588  .debug_str:000000000000b33e .LASF3620
C:\Users\CYMR90~1\AppData\Local\Temp\ccLNaGfc.s:26854  .debug_str:00000000000143a1 .LASF3621
C:\Users\CYMR90~1\AppData\Local\Temp\ccLNaGfc.s:27823  .debug_str:00000000000182c7 .LASF3622
C:\Users\CYMR90~1\AppData\Local\Temp\ccLNaGfc.s:31577  .debug_str:000000000002704e .LASF3623
C:\Users\CYMR90~1\AppData\Local\Temp\ccLNaGfc.s:24374  .debug_str:000000000000a544 .LASF3624
C:\Users\CYMR90~1\AppData\Local\Temp\ccLNaGfc.s:23100  .debug_str:0000000000005471 .LASF3625
C:\Users\CYMR90~1\AppData\Local\Temp\ccLNaGfc.s:28119  .debug_str:0000000000019593 .LASF3626
C:\Users\CYMR90~1\AppData\Local\Temp\ccLNaGfc.s:24634  .debug_str:000000000000b5cd .LASF3627
C:\Users\CYMR90~1\AppData\Local\Temp\ccLNaGfc.s:25362  .debug_str:000000000000e4ca .LASF3628
C:\Users\CYMR90~1\AppData\Local\Temp\ccLNaGfc.s:32863  .debug_str:000000000002c245 .LASF3629
C:\Users\CYMR90~1\AppData\Local\Temp\ccLNaGfc.s:32707  .debug_str:000000000002b7e5 .LASF3630
C:\Users\CYMR90~1\AppData\Local\Temp\ccLNaGfc.s:25224  .debug_str:000000000000dcb0 .LASF3631
C:\Users\CYMR90~1\AppData\Local\Temp\ccLNaGfc.s:23196  .debug_str:0000000000005a7c .LASF3632
C:\Users\CYMR90~1\AppData\Local\Temp\ccLNaGfc.s:32349  .debug_str:000000000002a23f .LASF3633
C:\Users\CYMR90~1\AppData\Local\Temp\ccLNaGfc.s:30089  .debug_str:0000000000021381 .LASF3634
C:\Users\CYMR90~1\AppData\Local\Temp\ccLNaGfc.s:23200  .debug_str:0000000000005adc .LASF3635
C:\Users\CYMR90~1\AppData\Local\Temp\ccLNaGfc.s:27266  .debug_str:0000000000015d10 .LASF3636
C:\Users\CYMR90~1\AppData\Local\Temp\ccLNaGfc.s:23294  .debug_str:0000000000006047 .LASF3637
C:\Users\CYMR90~1\AppData\Local\Temp\ccLNaGfc.s:26744  .debug_str:0000000000013cc9 .LASF3638
C:\Users\CYMR90~1\AppData\Local\Temp\ccLNaGfc.s:30283  .debug_str:0000000000021f7a .LASF3639
C:\Users\CYMR90~1\AppData\Local\Temp\ccLNaGfc.s:31385  .debug_str:0000000000026512 .LASF3640
C:\Users\CYMR90~1\AppData\Local\Temp\ccLNaGfc.s:23016  .debug_str:0000000000004f66 .LASF3641
C:\Users\CYMR90~1\AppData\Local\Temp\ccLNaGfc.s:30857  .debug_str:000000000002419f .LASF3642
C:\Users\CYMR90~1\AppData\Local\Temp\ccLNaGfc.s:30011  .debug_str:0000000000020eef .LASF3643
C:\Users\CYMR90~1\AppData\Local\Temp\ccLNaGfc.s:32505  .debug_str:000000000002ab76 .LASF3644
C:\Users\CYMR90~1\AppData\Local\Temp\ccLNaGfc.s:25496  .debug_str:000000000000ed7a .LASF3645
C:\Users\CYMR90~1\AppData\Local\Temp\ccLNaGfc.s:23208  .debug_str:0000000000005b32 .LASF3646
C:\Users\CYMR90~1\AppData\Local\Temp\ccLNaGfc.s:24864  .debug_str:000000000000c59e .LASF3647
C:\Users\CYMR90~1\AppData\Local\Temp\ccLNaGfc.s:30103  .debug_str:000000000002144c .LASF3648
C:\Users\CYMR90~1\AppData\Local\Temp\ccLNaGfc.s:27923  .debug_str:00000000000188bd .LASF3649
C:\Users\CYMR90~1\AppData\Local\Temp\ccLNaGfc.s:29025  .debug_str:000000000001d160 .LASF3650
C:\Users\CYMR90~1\AppData\Local\Temp\ccLNaGfc.s:32097  .debug_str:0000000000029264 .LASF3651
C:\Users\CYMR90~1\AppData\Local\Temp\ccLNaGfc.s:29921  .debug_str:0000000000020912 .LASF3652
C:\Users\CYMR90~1\AppData\Local\Temp\ccLNaGfc.s:33039  .debug_str:000000000002ce03 .LASF3653
C:\Users\CYMR90~1\AppData\Local\Temp\ccLNaGfc.s:22682  .debug_str:0000000000003900 .LASF3654
C:\Users\CYMR90~1\AppData\Local\Temp\ccLNaGfc.s:31183  .debug_str:00000000000257c5 .LASF3655
C:\Users\CYMR90~1\AppData\Local\Temp\ccLNaGfc.s:22052  .debug_str:00000000000010bb .LASF3656
C:\Users\CYMR90~1\AppData\Local\Temp\ccLNaGfc.s:29193  .debug_str:000000000001dd13 .LASF3657
C:\Users\CYMR90~1\AppData\Local\Temp\ccLNaGfc.s:26612  .debug_str:000000000001341d .LASF3658
C:\Users\CYMR90~1\AppData\Local\Temp\ccLNaGfc.s:33123  .debug_str:000000000002d378 .LASF3659
C:\Users\CYMR90~1\AppData\Local\Temp\ccLNaGfc.s:22474  .debug_str:0000000000002b9d .LASF3660
C:\Users\CYMR90~1\AppData\Local\Temp\ccLNaGfc.s:31633  .debug_str:00000000000273e0 .LASF3661
C:\Users\CYMR90~1\AppData\Local\Temp\ccLNaGfc.s:26472  .debug_str:0000000000012b1b .LASF3662
C:\Users\CYMR90~1\AppData\Local\Temp\ccLNaGfc.s:29911  .debug_str:000000000002087d .LASF3663
C:\Users\CYMR90~1\AppData\Local\Temp\ccLNaGfc.s:30053  .debug_str:0000000000021169 .LASF3664
C:\Users\CYMR90~1\AppData\Local\Temp\ccLNaGfc.s:22008  .debug_str:0000000000000db7 .LASF3665
C:\Users\CYMR90~1\AppData\Local\Temp\ccLNaGfc.s:29253  .debug_str:000000000001e094 .LASF3666
C:\Users\CYMR90~1\AppData\Local\Temp\ccLNaGfc.s:22108  .debug_str:00000000000013ec .LASF3667
C:\Users\CYMR90~1\AppData\Local\Temp\ccLNaGfc.s:31881  .debug_str:000000000002847e .LASF3668
C:\Users\CYMR90~1\AppData\Local\Temp\ccLNaGfc.s:26376  .debug_str:00000000000124c3 .LASF3669
C:\Users\CYMR90~1\AppData\Local\Temp\ccLNaGfc.s:29397  .debug_str:000000000001e9a5 .LASF3670
C:\Users\CYMR90~1\AppData\Local\Temp\ccLNaGfc.s:28283  .debug_str:000000000001a036 .LASF3671
C:\Users\CYMR90~1\AppData\Local\Temp\ccLNaGfc.s:27040  .debug_str:0000000000014f41 .LASF3672
C:\Users\CYMR90~1\AppData\Local\Temp\ccLNaGfc.s:25856  .debug_str:00000000000103f6 .LASF3673
C:\Users\CYMR90~1\AppData\Local\Temp\ccLNaGfc.s:32751  .debug_str:000000000002ba9c .LASF3674
C:\Users\CYMR90~1\AppData\Local\Temp\ccLNaGfc.s:31093  .debug_str:0000000000025148 .LASF3675
C:\Users\CYMR90~1\AppData\Local\Temp\ccLNaGfc.s:22226  .debug_str:0000000000001c42 .LASF3676
C:\Users\CYMR90~1\AppData\Local\Temp\ccLNaGfc.s:31869  .debug_str:000000000002835a .LASF3677
C:\Users\CYMR90~1\AppData\Local\Temp\ccLNaGfc.s:32115  .debug_str:0000000000029356 .LASF3678
C:\Users\CYMR90~1\AppData\Local\Temp\ccLNaGfc.s:25042  .debug_str:000000000000d0f1 .LASF3679
C:\Users\CYMR90~1\AppData\Local\Temp\ccLNaGfc.s:29313  .debug_str:000000000001e4ae .LASF3680
C:\Users\CYMR90~1\AppData\Local\Temp\ccLNaGfc.s:24474  .debug_str:000000000000ab7b .LASF3681
C:\Users\CYMR90~1\AppData\Local\Temp\ccLNaGfc.s:31109  .debug_str:0000000000025260 .LASF3682
C:\Users\CYMR90~1\AppData\Local\Temp\ccLNaGfc.s:24332  .debug_str:000000000000a2a1 .LASF3683
C:\Users\CYMR90~1\AppData\Local\Temp\ccLNaGfc.s:30163  .debug_str:00000000000217a7 .LASF3684
C:\Users\CYMR90~1\AppData\Local\Temp\ccLNaGfc.s:22510  .debug_str:0000000000002e04 .LASF3685
C:\Users\CYMR90~1\AppData\Local\Temp\ccLNaGfc.s:28301  .debug_str:000000000001a14f .LASF3686
C:\Users\CYMR90~1\AppData\Local\Temp\ccLNaGfc.s:25140  .debug_str:000000000000d7d2 .LASF3687
C:\Users\CYMR90~1\AppData\Local\Temp\ccLNaGfc.s:23244  .debug_str:0000000000005d59 .LASF3688
C:\Users\CYMR90~1\AppData\Local\Temp\ccLNaGfc.s:31789  .debug_str:0000000000027dd5 .LASF3689
C:\Users\CYMR90~1\AppData\Local\Temp\ccLNaGfc.s:25626  .debug_str:000000000000f518 .LASF3690
C:\Users\CYMR90~1\AppData\Local\Temp\ccLNaGfc.s:24820  .debug_str:000000000000c300 .LASF3691
C:\Users\CYMR90~1\AppData\Local\Temp\ccLNaGfc.s:25486  .debug_str:000000000000ec82 .LASF3692
C:\Users\CYMR90~1\AppData\Local\Temp\ccLNaGfc.s:21952  .debug_str:00000000000009e5 .LASF3693
C:\Users\CYMR90~1\AppData\Local\Temp\ccLNaGfc.s:26272  .debug_str:0000000000011e40 .LASF3694
C:\Users\CYMR90~1\AppData\Local\Temp\ccLNaGfc.s:30587  .debug_str:00000000000231d2 .LASF3695
C:\Users\CYMR90~1\AppData\Local\Temp\ccLNaGfc.s:23392  .debug_str:0000000000006606 .LASF3696
C:\Users\CYMR90~1\AppData\Local\Temp\ccLNaGfc.s:24754  .debug_str:000000000000be53 .LASF3697
C:\Users\CYMR90~1\AppData\Local\Temp\ccLNaGfc.s:25848  .debug_str:0000000000010373 .LASF3698
C:\Users\CYMR90~1\AppData\Local\Temp\ccLNaGfc.s:30139  .debug_str:0000000000021647 .LASF3699
C:\Users\CYMR90~1\AppData\Local\Temp\ccLNaGfc.s:23026  .debug_str:0000000000005010 .LASF3700
C:\Users\CYMR90~1\AppData\Local\Temp\ccLNaGfc.s:27246  .debug_str:0000000000015bba .LASF3701
C:\Users\CYMR90~1\AppData\Local\Temp\ccLNaGfc.s:31595  .debug_str:0000000000027166 .LASF3702
C:\Users\CYMR90~1\AppData\Local\Temp\ccLNaGfc.s:24524  .debug_str:000000000000ae87 .LASF3703
C:\Users\CYMR90~1\AppData\Local\Temp\ccLNaGfc.s:26832  .debug_str:0000000000014201 .LASF3704
C:\Users\CYMR90~1\AppData\Local\Temp\ccLNaGfc.s:29287  .debug_str:000000000001e31a .LASF3705
C:\Users\CYMR90~1\AppData\Local\Temp\ccLNaGfc.s:25022  .debug_str:000000000000cf95 .LASF3706
C:\Users\CYMR90~1\AppData\Local\Temp\ccLNaGfc.s:30329  .debug_str:0000000000022279 .LASF3707
C:\Users\CYMR90~1\AppData\Local\Temp\ccLNaGfc.s:23240  .debug_str:0000000000005d01 .LASF3708
C:\Users\CYMR90~1\AppData\Local\Temp\ccLNaGfc.s:32705  .debug_str:000000000002b7b3 .LASF3709
C:\Users\CYMR90~1\AppData\Local\Temp\ccLNaGfc.s:25620  .debug_str:000000000000f495 .LASF3710
C:\Users\CYMR90~1\AppData\Local\Temp\ccLNaGfc.s:29823  .debug_str:00000000000203a6 .LASF3711
C:\Users\CYMR90~1\AppData\Local\Temp\ccLNaGfc.s:22726  .debug_str:0000000000003be7 .LASF3712
C:\Users\CYMR90~1\AppData\Local\Temp\ccLNaGfc.s:25698  .debug_str:000000000000f9fd .LASF3713
C:\Users\CYMR90~1\AppData\Local\Temp\ccLNaGfc.s:28493  .debug_str:000000000001af2f .LASF3714
C:\Users\CYMR90~1\AppData\Local\Temp\ccLNaGfc.s:24214  .debug_str:0000000000009b77 .LASF3715
C:\Users\CYMR90~1\AppData\Local\Temp\ccLNaGfc.s:28531  .debug_str:000000000001b17b .LASF3716
C:\Users\CYMR90~1\AppData\Local\Temp\ccLNaGfc.s:22836  .debug_str:00000000000042ec .LASF3717
C:\Users\CYMR90~1\AppData\Local\Temp\ccLNaGfc.s:30931  .debug_str:0000000000024657 .LASF3718
C:\Users\CYMR90~1\AppData\Local\Temp\ccLNaGfc.s:23850  .debug_str:0000000000008417 .LASF3719
C:\Users\CYMR90~1\AppData\Local\Temp\ccLNaGfc.s:25462  .debug_str:000000000000ead3 .LASF3720
C:\Users\CYMR90~1\AppData\Local\Temp\ccLNaGfc.s:32385  .debug_str:000000000002a435 .LASF3721
C:\Users\CYMR90~1\AppData\Local\Temp\ccLNaGfc.s:23676  .debug_str:00000000000077e9 .LASF3722
C:\Users\CYMR90~1\AppData\Local\Temp\ccLNaGfc.s:29695  .debug_str:000000000001fbf3 .LASF3723
C:\Users\CYMR90~1\AppData\Local\Temp\ccLNaGfc.s:22438  .debug_str:000000000000293e .LASF3724
C:\Users\CYMR90~1\AppData\Local\Temp\ccLNaGfc.s:27857  .debug_str:00000000000184c3 .LASF3725
C:\Users\CYMR90~1\AppData\Local\Temp\ccLNaGfc.s:31063  .debug_str:0000000000024f53 .LASF3726
C:\Users\CYMR90~1\AppData\Local\Temp\ccLNaGfc.s:23858  .debug_str:0000000000008494 .LASF3727
C:\Users\CYMR90~1\AppData\Local\Temp\ccLNaGfc.s:31341  .debug_str:0000000000026224 .LASF3728
C:\Users\CYMR90~1\AppData\Local\Temp\ccLNaGfc.s:26416  .debug_str:000000000001277a .LASF3729
C:\Users\CYMR90~1\AppData\Local\Temp\ccLNaGfc.s:28373  .debug_str:000000000001a74f .LASF3730
C:\Users\CYMR90~1\AppData\Local\Temp\ccLNaGfc.s:23532  .debug_str:0000000000006eb5 .LASF3731
C:\Users\CYMR90~1\AppData\Local\Temp\ccLNaGfc.s:26462  .debug_str:0000000000012a5b .LASF3732
C:\Users\CYMR90~1\AppData\Local\Temp\ccLNaGfc.s:29825  .debug_str:00000000000203d8 .LASF3733
C:\Users\CYMR90~1\AppData\Local\Temp\ccLNaGfc.s:26382  .debug_str:0000000000012550 .LASF3734
C:\Users\CYMR90~1\AppData\Local\Temp\ccLNaGfc.s:31379  .debug_str:00000000000264c2 .LASF3735
C:\Users\CYMR90~1\AppData\Local\Temp\ccLNaGfc.s:22714  .debug_str:0000000000003b10 .LASF3736
C:\Users\CYMR90~1\AppData\Local\Temp\ccLNaGfc.s:31319  .debug_str:00000000000260cc .LASF3737
C:\Users\CYMR90~1\AppData\Local\Temp\ccLNaGfc.s:25410  .debug_str:000000000000e79e .LASF3738
C:\Users\CYMR90~1\AppData\Local\Temp\ccLNaGfc.s:30939  .debug_str:00000000000246d2 .LASF3739
C:\Users\CYMR90~1\AppData\Local\Temp\ccLNaGfc.s:27260  .debug_str:0000000000015c90 .LASF3740
C:\Users\CYMR90~1\AppData\Local\Temp\ccLNaGfc.s:27695  .debug_str:0000000000017ac7 .LASF3741
C:\Users\CYMR90~1\AppData\Local\Temp\ccLNaGfc.s:24708  .debug_str:000000000000bb59 .LASF3742
C:\Users\CYMR90~1\AppData\Local\Temp\ccLNaGfc.s:27048  .debug_str:0000000000014fca .LASF3743
C:\Users\CYMR90~1\AppData\Local\Temp\ccLNaGfc.s:30031  .debug_str:0000000000021010 .LASF3744
C:\Users\CYMR90~1\AppData\Local\Temp\ccLNaGfc.s:27070  .debug_str:0000000000015159 .LASF3745
C:\Users\CYMR90~1\AppData\Local\Temp\ccLNaGfc.s:31405  .debug_str:0000000000026642 .LASF3746
C:\Users\CYMR90~1\AppData\Local\Temp\ccLNaGfc.s:28143  .debug_str:0000000000019718 .LASF3747
C:\Users\CYMR90~1\AppData\Local\Temp\ccLNaGfc.s:26126  .debug_str:000000000001142a .LASF3748
C:\Users\CYMR90~1\AppData\Local\Temp\ccLNaGfc.s:25566  .debug_str:000000000000f163 .LASF3749
C:\Users\CYMR90~1\AppData\Local\Temp\ccLNaGfc.s:22120  .debug_str:00000000000014b9 .LASF3750
C:\Users\CYMR90~1\AppData\Local\Temp\ccLNaGfc.s:21802  .debug_str:00000000000000ff .LASF3751
C:\Users\CYMR90~1\AppData\Local\Temp\ccLNaGfc.s:26696  .debug_str:00000000000139e7 .LASF3752
C:\Users\CYMR90~1\AppData\Local\Temp\ccLNaGfc.s:23162  .debug_str:0000000000005866 .LASF3753
C:\Users\CYMR90~1\AppData\Local\Temp\ccLNaGfc.s:27955  .debug_str:0000000000018ab1 .LASF3754
C:\Users\CYMR90~1\AppData\Local\Temp\ccLNaGfc.s:25304  .debug_str:000000000000e162 .LASF3755
C:\Users\CYMR90~1\AppData\Local\Temp\ccLNaGfc.s:24340  .debug_str:000000000000a33b .LASF3756
C:\Users\CYMR90~1\AppData\Local\Temp\ccLNaGfc.s:25800  .debug_str:0000000000010038 .LASF3757
C:\Users\CYMR90~1\AppData\Local\Temp\ccLNaGfc.s:27657  .debug_str:0000000000017858 .LASF3758
C:\Users\CYMR90~1\AppData\Local\Temp\ccLNaGfc.s:27512  .debug_str:0000000000016e03 .LASF3759
C:\Users\CYMR90~1\AppData\Local\Temp\ccLNaGfc.s:26502  .debug_str:0000000000012d26 .LASF3760
C:\Users\CYMR90~1\AppData\Local\Temp\ccLNaGfc.s:28859  .debug_str:000000000001c67a .LASF3761
C:\Users\CYMR90~1\AppData\Local\Temp\ccLNaGfc.s:25414  .debug_str:000000000000e81d .LASF3762
C:\Users\CYMR90~1\AppData\Local\Temp\ccLNaGfc.s:21992  .debug_str:0000000000000cc8 .LASF3763
C:\Users\CYMR90~1\AppData\Local\Temp\ccLNaGfc.s:32121  .debug_str:00000000000293cb .LASF3764
C:\Users\CYMR90~1\AppData\Local\Temp\ccLNaGfc.s:26562  .debug_str:00000000000130f6 .LASF3765
C:\Users\CYMR90~1\AppData\Local\Temp\ccLNaGfc.s:29207  .debug_str:000000000001ddec .LASF3766
C:\Users\CYMR90~1\AppData\Local\Temp\ccLNaGfc.s:23426  .debug_str:0000000000006811 .LASF3767
C:\Users\CYMR90~1\AppData\Local\Temp\ccLNaGfc.s:22288  .debug_str:0000000000002019 .LASF3768
C:\Users\CYMR90~1\AppData\Local\Temp\ccLNaGfc.s:31177  .debug_str:000000000002575e .LASF3769
C:\Users\CYMR90~1\AppData\Local\Temp\ccLNaGfc.s:30951  .debug_str:00000000000247b5 .LASF3770
C:\Users\CYMR90~1\AppData\Local\Temp\ccLNaGfc.s:27529  .debug_str:00000000000170d9 .LASF3771
C:\Users\CYMR90~1\AppData\Local\Temp\ccLNaGfc.s:26836  .debug_str:000000000001424d .LASF3772
C:\Users\CYMR90~1\AppData\Local\Temp\ccLNaGfc.s:32109  .debug_str:0000000000029311 .LASF3773
C:\Users\CYMR90~1\AppData\Local\Temp\ccLNaGfc.s:28685  .debug_str:000000000001bbbe .LASF3774
C:\Users\CYMR90~1\AppData\Local\Temp\ccLNaGfc.s:22512  .debug_str:0000000000002e36 .LASF3775
C:\Users\CYMR90~1\AppData\Local\Temp\ccLNaGfc.s:32489  .debug_str:000000000002aa89 .LASF3776
C:\Users\CYMR90~1\AppData\Local\Temp\ccLNaGfc.s:32795  .debug_str:000000000002bdb6 .LASF3777
C:\Users\CYMR90~1\AppData\Local\Temp\ccLNaGfc.s:22622  .debug_str:000000000000353e .LASF3778
C:\Users\CYMR90~1\AppData\Local\Temp\ccLNaGfc.s:23024  .debug_str:0000000000004fec .LASF3779
C:\Users\CYMR90~1\AppData\Local\Temp\ccLNaGfc.s:33021  .debug_str:000000000002ccb9 .LASF3780
C:\Users\CYMR90~1\AppData\Local\Temp\ccLNaGfc.s:26256  .debug_str:0000000000011d3c .LASF3781
C:\Users\CYMR90~1\AppData\Local\Temp\ccLNaGfc.s:22810  .debug_str:0000000000004162 .LASF3782
C:\Users\CYMR90~1\AppData\Local\Temp\ccLNaGfc.s:30817  .debug_str:0000000000023f70 .LASF3783
C:\Users\CYMR90~1\AppData\Local\Temp\ccLNaGfc.s:27362  .debug_str:00000000000163c8 .LASF3784
C:\Users\CYMR90~1\AppData\Local\Temp\ccLNaGfc.s:25814  .debug_str:000000000001014b .LASF3785
C:\Users\CYMR90~1\AppData\Local\Temp\ccLNaGfc.s:31961  .debug_str:0000000000028a36 .LASF3786
C:\Users\CYMR90~1\AppData\Local\Temp\ccLNaGfc.s:29967  .debug_str:0000000000020c2e .LASF3787
C:\Users\CYMR90~1\AppData\Local\Temp\ccLNaGfc.s:23816  .debug_str:0000000000008170 .LASF3788
C:\Users\CYMR90~1\AppData\Local\Temp\ccLNaGfc.s:31803  .debug_str:0000000000027f00 .LASF3789
C:\Users\CYMR90~1\AppData\Local\Temp\ccLNaGfc.s:28395  .debug_str:000000000001a859 .LASF3790
C:\Users\CYMR90~1\AppData\Local\Temp\ccLNaGfc.s:24990  .debug_str:000000000000cde2 .LASF3791
C:\Users\CYMR90~1\AppData\Local\Temp\ccLNaGfc.s:32969  .debug_str:000000000002c9a8 .LASF3792
C:\Users\CYMR90~1\AppData\Local\Temp\ccLNaGfc.s:22924  .debug_str:0000000000004909 .LASF3793
C:\Users\CYMR90~1\AppData\Local\Temp\ccLNaGfc.s:26130  .debug_str:0000000000011465 .LASF3794
C:\Users\CYMR90~1\AppData\Local\Temp\ccLNaGfc.s:29041  .debug_str:000000000001d2f1 .LASF3795
C:\Users\CYMR90~1\AppData\Local\Temp\ccLNaGfc.s:30681  .debug_str:00000000000236ce .LASF3796
C:\Users\CYMR90~1\AppData\Local\Temp\ccLNaGfc.s:32041  .debug_str:0000000000028f4f .LASF3797
C:\Users\CYMR90~1\AppData\Local\Temp\ccLNaGfc.s:22516  .debug_str:0000000000002e8f .LASF3798
C:\Users\CYMR90~1\AppData\Local\Temp\ccLNaGfc.s:30523  .debug_str:0000000000022de3 .LASF3799
C:\Users\CYMR90~1\AppData\Local\Temp\ccLNaGfc.s:27078  .debug_str:00000000000151d9 .LASF3800
C:\Users\CYMR90~1\AppData\Local\Temp\ccLNaGfc.s:23670  .debug_str:000000000000778c .LASF3801
C:\Users\CYMR90~1\AppData\Local\Temp\ccLNaGfc.s:23792  .debug_str:0000000000007fc1 .LASF3802
C:\Users\CYMR90~1\AppData\Local\Temp\ccLNaGfc.s:23788  .debug_str:0000000000007f80 .LASF3803
C:\Users\CYMR90~1\AppData\Local\Temp\ccLNaGfc.s:24840  .debug_str:000000000000c42e .LASF3804
C:\Users\CYMR90~1\AppData\Local\Temp\ccLNaGfc.s:32825  .debug_str:000000000002bfcb .LASF3805
C:\Users\CYMR90~1\AppData\Local\Temp\ccLNaGfc.s:22430  .debug_str:000000000000289f .LASF3806
C:\Users\CYMR90~1\AppData\Local\Temp\ccLNaGfc.s:30837  .debug_str:000000000002408e .LASF3807
C:\Users\CYMR90~1\AppData\Local\Temp\ccLNaGfc.s:32757  .debug_str:000000000002bb1a .LASF3808
C:\Users\CYMR90~1\AppData\Local\Temp\ccLNaGfc.s:29209  .debug_str:000000000001de10 .LASF3809
C:\Users\CYMR90~1\AppData\Local\Temp\ccLNaGfc.s:25840  .debug_str:00000000000102ce .LASF3810
C:\Users\CYMR90~1\AppData\Local\Temp\ccLNaGfc.s:22230  .debug_str:0000000000001c8c .LASF3811
C:\Users\CYMR90~1\AppData\Local\Temp\ccLNaGfc.s:30383  .debug_str:0000000000022581 .LASF3812
C:\Users\CYMR90~1\AppData\Local\Temp\ccLNaGfc.s:26944  .debug_str:000000000001493c .LASF3813
C:\Users\CYMR90~1\AppData\Local\Temp\ccLNaGfc.s:25630  .debug_str:000000000000f562 .LASF3814
C:\Users\CYMR90~1\AppData\Local\Temp\ccLNaGfc.s:28223  .debug_str:0000000000019cbc .LASF3815
C:\Users\CYMR90~1\AppData\Local\Temp\ccLNaGfc.s:28109  .debug_str:0000000000019503 .LASF3816
C:\Users\CYMR90~1\AppData\Local\Temp\ccLNaGfc.s:29519  .debug_str:000000000001f113 .LASF3817
C:\Users\CYMR90~1\AppData\Local\Temp\ccLNaGfc.s:31453  .debug_str:00000000000268ed .LASF3818
C:\Users\CYMR90~1\AppData\Local\Temp\ccLNaGfc.s:29591  .debug_str:000000000001f56c .LASF3819
C:\Users\CYMR90~1\AppData\Local\Temp\ccLNaGfc.s:24150  .debug_str:000000000000972b .LASF3820
C:\Users\CYMR90~1\AppData\Local\Temp\ccLNaGfc.s:32607  .debug_str:000000000002b1a3 .LASF3821
C:\Users\CYMR90~1\AppData\Local\Temp\ccLNaGfc.s:29081  .debug_str:000000000001d5f1 .LASF3822
C:\Users\CYMR90~1\AppData\Local\Temp\ccLNaGfc.s:30321  .debug_str:00000000000221ef .LASF3823
C:\Users\CYMR90~1\AppData\Local\Temp\ccLNaGfc.s:22238  .debug_str:0000000000001d1c .LASF3824
C:\Users\CYMR90~1\AppData\Local\Temp\ccLNaGfc.s:30237  .debug_str:0000000000021ccb .LASF3825
C:\Users\CYMR90~1\AppData\Local\Temp\ccLNaGfc.s:26796  .debug_str:0000000000013fec .LASF3826
C:\Users\CYMR90~1\AppData\Local\Temp\ccLNaGfc.s:29517  .debug_str:000000000001f0ef .LASF3827
C:\Users\CYMR90~1\AppData\Local\Temp\ccLNaGfc.s:30173  .debug_str:0000000000021838 .LASF3828
C:\Users\CYMR90~1\AppData\Local\Temp\ccLNaGfc.s:26740  .debug_str:0000000000013c8e .LASF3829
C:\Users\CYMR90~1\AppData\Local\Temp\ccLNaGfc.s:31471  .debug_str:00000000000269f3 .LASF3830
C:\Users\CYMR90~1\AppData\Local\Temp\ccLNaGfc.s:31305  .debug_str:0000000000025ffe .LASF3831
C:\Users\CYMR90~1\AppData\Local\Temp\ccLNaGfc.s:27881  .debug_str:000000000001863e .LASF3832
C:\Users\CYMR90~1\AppData\Local\Temp\ccLNaGfc.s:24492  .debug_str:000000000000aca5 .LASF3833
C:\Users\CYMR90~1\AppData\Local\Temp\ccLNaGfc.s:32457  .debug_str:000000000002a85c .LASF3834
C:\Users\CYMR90~1\AppData\Local\Temp\ccLNaGfc.s:30389  .debug_str:00000000000225ee .LASF3835
C:\Users\CYMR90~1\AppData\Local\Temp\ccLNaGfc.s:29225  .debug_str:000000000001def9 .LASF3836
C:\Users\CYMR90~1\AppData\Local\Temp\ccLNaGfc.s:23584  .debug_str:0000000000007238 .LASF3837
C:\Users\CYMR90~1\AppData\Local\Temp\ccLNaGfc.s:23726  .debug_str:0000000000007b36 .LASF3838
C:\Users\CYMR90~1\AppData\Local\Temp\ccLNaGfc.s:27767  .debug_str:0000000000017f67 .LASF3839
C:\Users\CYMR90~1\AppData\Local\Temp\ccLNaGfc.s:31745  .debug_str:0000000000027b33 .LASF3840
C:\Users\CYMR90~1\AppData\Local\Temp\ccLNaGfc.s:24316  .debug_str:000000000000a1bb .LASF3841
C:\Users\CYMR90~1\AppData\Local\Temp\ccLNaGfc.s:32895  .debug_str:000000000002c4ac .LASF3842
C:\Users\CYMR90~1\AppData\Local\Temp\ccLNaGfc.s:23832  .debug_str:0000000000008310 .LASF3843
C:\Users\CYMR90~1\AppData\Local\Temp\ccLNaGfc.s:26194  .debug_str:000000000001185f .LASF3844
C:\Users\CYMR90~1\AppData\Local\Temp\ccLNaGfc.s:28737  .debug_str:000000000001be8c .LASF3845
C:\Users\CYMR90~1\AppData\Local\Temp\ccLNaGfc.s:32813  .debug_str:000000000002bf18 .LASF3846
C:\Users\CYMR90~1\AppData\Local\Temp\ccLNaGfc.s:26882  .debug_str:000000000001453d .LASF3847
C:\Users\CYMR90~1\AppData\Local\Temp\ccLNaGfc.s:29345  .debug_str:000000000001e691 .LASF3848
C:\Users\CYMR90~1\AppData\Local\Temp\ccLNaGfc.s:31679  .debug_str:0000000000027753 .LASF3849
C:\Users\CYMR90~1\AppData\Local\Temp\ccLNaGfc.s:22660  .debug_str:00000000000037b1 .LASF3850
C:\Users\CYMR90~1\AppData\Local\Temp\ccLNaGfc.s:30065  .debug_str:000000000002122b .LASF3851
C:\Users\CYMR90~1\AppData\Local\Temp\ccLNaGfc.s:22568  .debug_str:0000000000003196 .LASF3852
C:\Users\CYMR90~1\AppData\Local\Temp\ccLNaGfc.s:29701  .debug_str:000000000001fc57 .LASF3853
C:\Users\CYMR90~1\AppData\Local\Temp\ccLNaGfc.s:32073  .debug_str:00000000000290df .LASF3854
C:\Users\CYMR90~1\AppData\Local\Temp\ccLNaGfc.s:26518  .debug_str:0000000000012df7 .LASF3855
C:\Users\CYMR90~1\AppData\Local\Temp\ccLNaGfc.s:25302  .debug_str:000000000000e13c .LASF3856
C:\Users\CYMR90~1\AppData\Local\Temp\ccLNaGfc.s:22328  .debug_str:0000000000002255 .LASF3857
C:\Users\CYMR90~1\AppData\Local\Temp\ccLNaGfc.s:23856  .debug_str:000000000000846e .LASF3858
C:\Users\CYMR90~1\AppData\Local\Temp\ccLNaGfc.s:26220  .debug_str:0000000000011aa9 .LASF3859
C:\Users\CYMR90~1\AppData\Local\Temp\ccLNaGfc.s:28135  .debug_str:00000000000196a7 .LASF3860
C:\Users\CYMR90~1\AppData\Local\Temp\ccLNaGfc.s:29705  .debug_str:000000000001fc96 .LASF3861
C:\Users\CYMR90~1\AppData\Local\Temp\ccLNaGfc.s:21876  .debug_str:0000000000000551 .LASF3862
C:\Users\CYMR90~1\AppData\Local\Temp\ccLNaGfc.s:28617  .debug_str:000000000001b77b .LASF3863
C:\Users\CYMR90~1\AppData\Local\Temp\ccLNaGfc.s:32671  .debug_str:000000000002b546 .LASF3864
C:\Users\CYMR90~1\AppData\Local\Temp\ccLNaGfc.s:25234  .debug_str:000000000000dd3f .LASF3865
C:\Users\CYMR90~1\AppData\Local\Temp\ccLNaGfc.s:24244  .debug_str:0000000000009d76 .LASF3866
C:\Users\CYMR90~1\AppData\Local\Temp\ccLNaGfc.s:28173  .debug_str:00000000000198c0 .LASF3867
C:\Users\CYMR90~1\AppData\Local\Temp\ccLNaGfc.s:24116  .debug_str:0000000000009532 .LASF3868
C:\Users\CYMR90~1\AppData\Local\Temp\ccLNaGfc.s:28073  .debug_str:000000000001921d .LASF3869
C:\Users\CYMR90~1\AppData\Local\Temp\ccLNaGfc.s:32031  .debug_str:0000000000028ebb .LASF3870
C:\Users\CYMR90~1\AppData\Local\Temp\ccLNaGfc.s:27012  .debug_str:0000000000014d5d .LASF3871
C:\Users\CYMR90~1\AppData\Local\Temp\ccLNaGfc.s:28565  .debug_str:000000000001b3e9 .LASF3872
C:\Users\CYMR90~1\AppData\Local\Temp\ccLNaGfc.s:32605  .debug_str:000000000002b17d .LASF3873
C:\Users\CYMR90~1\AppData\Local\Temp\ccLNaGfc.s:25168  .debug_str:000000000000d971 .LASF3874
C:\Users\CYMR90~1\AppData\Local\Temp\ccLNaGfc.s:29103  .debug_str:000000000001d731 .LASF3875
C:\Users\CYMR90~1\AppData\Local\Temp\ccLNaGfc.s:26652  .debug_str:0000000000013724 .LASF3876
C:\Users\CYMR90~1\AppData\Local\Temp\ccLNaGfc.s:30129  .debug_str:00000000000215c7 .LASF3877
C:\Users\CYMR90~1\AppData\Local\Temp\ccLNaGfc.s:31873  .debug_str:00000000000283e3 .LASF3878
C:\Users\CYMR90~1\AppData\Local\Temp\ccLNaGfc.s:29173  .debug_str:000000000001dbcc .LASF3879
C:\Users\CYMR90~1\AppData\Local\Temp\ccLNaGfc.s:24542  .debug_str:000000000000af9f .LASF3880
C:\Users\CYMR90~1\AppData\Local\Temp\ccLNaGfc.s:28503  .debug_str:000000000001afd9 .LASF3881
C:\Users\CYMR90~1\AppData\Local\Temp\ccLNaGfc.s:32533  .debug_str:000000000002ad22 .LASF3882
C:\Users\CYMR90~1\AppData\Local\Temp\ccLNaGfc.s:27821  .debug_str:00000000000182a1 .LASF3883
C:\Users\CYMR90~1\AppData\Local\Temp\ccLNaGfc.s:26616  .debug_str:00000000000134a6 .LASF3884
C:\Users\CYMR90~1\AppData\Local\Temp\ccLNaGfc.s:33025  .debug_str:000000000002ccf4 .LASF3885
C:\Users\CYMR90~1\AppData\Local\Temp\ccLNaGfc.s:23646  .debug_str:0000000000007641 .LASF3886
C:\Users\CYMR90~1\AppData\Local\Temp\ccLNaGfc.s:22604  .debug_str:000000000000340a .LASF3887
C:\Users\CYMR90~1\AppData\Local\Temp\ccLNaGfc.s:31897  .debug_str:0000000000028583 .LASF3888
C:\Users\CYMR90~1\AppData\Local\Temp\ccLNaGfc.s:32477  .debug_str:000000000002a9dc .LASF3889
C:\Users\CYMR90~1\AppData\Local\Temp\ccLNaGfc.s:31253  .debug_str:0000000000025c43 .LASF3890
C:\Users\CYMR90~1\AppData\Local\Temp\ccLNaGfc.s:32467  .debug_str:000000000002a905 .LASF3891
C:\Users\CYMR90~1\AppData\Local\Temp\ccLNaGfc.s:25044  .debug_str:000000000000d123 .LASF3892
C:\Users\CYMR90~1\AppData\Local\Temp\ccLNaGfc.s:28977  .debug_str:000000000001ce36 .LASF3893
C:\Users\CYMR90~1\AppData\Local\Temp\ccLNaGfc.s:32965  .debug_str:000000000002c95b .LASF3894
C:\Users\CYMR90~1\AppData\Local\Temp\ccLNaGfc.s:22978  .debug_str:0000000000004d0d .LASF3895
C:\Users\CYMR90~1\AppData\Local\Temp\ccLNaGfc.s:27004  .debug_str:0000000000014cf4 .LASF3896
C:\Users\CYMR90~1\AppData\Local\Temp\ccLNaGfc.s:26532  .debug_str:0000000000012ef8 .LASF3897
C:\Users\CYMR90~1\AppData\Local\Temp\ccLNaGfc.s:24406  .debug_str:000000000000a798 .LASF3898
C:\Users\CYMR90~1\AppData\Local\Temp\ccLNaGfc.s:28353  .debug_str:000000000001a45d .LASF3899
C:\Users\CYMR90~1\AppData\Local\Temp\ccLNaGfc.s:28017  .debug_str:0000000000018ec3 .LASF3900
C:\Users\CYMR90~1\AppData\Local\Temp\ccLNaGfc.s:28749  .debug_str:000000000001bf74 .LASF3901
C:\Users\CYMR90~1\AppData\Local\Temp\ccLNaGfc.s:28905  .debug_str:000000000001c90d .LASF3902
C:\Users\CYMR90~1\AppData\Local\Temp\ccLNaGfc.s:30239  .debug_str:0000000000021cef .LASF3903
C:\Users\CYMR90~1\AppData\Local\Temp\ccLNaGfc.s:25444  .debug_str:000000000000e9cd .LASF3904
C:\Users\CYMR90~1\AppData\Local\Temp\ccLNaGfc.s:29369  .debug_str:000000000001e7eb .LASF3905
C:\Users\CYMR90~1\AppData\Local\Temp\ccLNaGfc.s:21964  .debug_str:0000000000000af6 .LASF3906
C:\Users\CYMR90~1\AppData\Local\Temp\ccLNaGfc.s:28911  .debug_str:000000000001c967 .LASF3907
C:\Users\CYMR90~1\AppData\Local\Temp\ccLNaGfc.s:30515  .debug_str:0000000000022d53 .LASF3908
C:\Users\CYMR90~1\AppData\Local\Temp\ccLNaGfc.s:32333  .debug_str:000000000002a155 .LASF3909
C:\Users\CYMR90~1\AppData\Local\Temp\ccLNaGfc.s:24908  .debug_str:000000000000c83e .LASF3910
C:\Users\CYMR90~1\AppData\Local\Temp\ccLNaGfc.s:27024  .debug_str:0000000000014e13 .LASF3911
C:\Users\CYMR90~1\AppData\Local\Temp\ccLNaGfc.s:32829  .debug_str:000000000002c002 .LASF3912
C:\Users\CYMR90~1\AppData\Local\Temp\ccLNaGfc.s:29395  .debug_str:000000000001e97f .LASF3913
C:\Users\CYMR90~1\AppData\Local\Temp\ccLNaGfc.s:29305  .debug_str:000000000001e440 .LASF3914
C:\Users\CYMR90~1\AppData\Local\Temp\ccLNaGfc.s:21906  .debug_str:0000000000000734 .LASF3915
C:\Users\CYMR90~1\AppData\Local\Temp\ccLNaGfc.s:33009  .debug_str:000000000002cbd3 .LASF3916
C:\Users\CYMR90~1\AppData\Local\Temp\ccLNaGfc.s:22890  .debug_str:00000000000046af .LASF3917
C:\Users\CYMR90~1\AppData\Local\Temp\ccLNaGfc.s:32273  .debug_str:0000000000029dd2 .LASF3918
C:\Users\CYMR90~1\AppData\Local\Temp\ccLNaGfc.s:24844  .debug_str:000000000000c46b .LASF3919
C:\Users\CYMR90~1\AppData\Local\Temp\ccLNaGfc.s:30599  .debug_str:0000000000023274 .LASF3920
C:\Users\CYMR90~1\AppData\Local\Temp\ccLNaGfc.s:32771  .debug_str:000000000002bc03 .LASF3921
C:\Users\CYMR90~1\AppData\Local\Temp\ccLNaGfc.s:25324  .debug_str:000000000000e27e .LASF3922
C:\Users\CYMR90~1\AppData\Local\Temp\ccLNaGfc.s:23188  .debug_str:0000000000005a13 .LASF3923
C:\Users\CYMR90~1\AppData\Local\Temp\ccLNaGfc.s:21836  .debug_str:000000000000030e .LASF3924
C:\Users\CYMR90~1\AppData\Local\Temp\ccLNaGfc.s:26396  .debug_str:0000000000012623 .LASF3925
C:\Users\CYMR90~1\AppData\Local\Temp\ccLNaGfc.s:22760  .debug_str:0000000000003de4 .LASF3926
C:\Users\CYMR90~1\AppData\Local\Temp\ccLNaGfc.s:26868  .debug_str:0000000000014468 .LASF3927
C:\Users\CYMR90~1\AppData\Local\Temp\ccLNaGfc.s:24780  .debug_str:000000000000c069 .LASF3928
C:\Users\CYMR90~1\AppData\Local\Temp\ccLNaGfc.s:22122  .debug_str:00000000000014dd .LASF3929
C:\Users\CYMR90~1\AppData\Local\Temp\ccLNaGfc.s:32693  .debug_str:000000000002b6fe .LASF3930
C:\Users\CYMR90~1\AppData\Local\Temp\ccLNaGfc.s:29577  .debug_str:000000000001f480 .LASF3931
C:\Users\CYMR90~1\AppData\Local\Temp\ccLNaGfc.s:29761  .debug_str:000000000001fff0 .LASF3932
C:\Users\CYMR90~1\AppData\Local\Temp\ccLNaGfc.s:33167  .debug_str:000000000002d631 .LASF3933
C:\Users\CYMR90~1\AppData\Local\Temp\ccLNaGfc.s:22116  .debug_str:0000000000001481 .LASF3934
C:\Users\CYMR90~1\AppData\Local\Temp\ccLNaGfc.s:26326  .debug_str:0000000000012182 .LASF3935
C:\Users\CYMR90~1\AppData\Local\Temp\ccLNaGfc.s:28671  .debug_str:000000000001bae6 .LASF3936
C:\Users\CYMR90~1\AppData\Local\Temp\ccLNaGfc.s:31365  .debug_str:000000000002638a .LASF3937
C:\Users\CYMR90~1\AppData\Local\Temp\ccLNaGfc.s:27050  .debug_str:0000000000014fec .LASF3938
C:\Users\CYMR90~1\AppData\Local\Temp\ccLNaGfc.s:30313  .debug_str:0000000000022179 .LASF3939
C:\Users\CYMR90~1\AppData\Local\Temp\ccLNaGfc.s:22560  .debug_str:0000000000003121 .LASF3940
C:\Users\CYMR90~1\AppData\Local\Temp\ccLNaGfc.s:23900  .debug_str:0000000000008736 .LASF3941
C:\Users\CYMR90~1\AppData\Local\Temp\ccLNaGfc.s:27851  .debug_str:0000000000018466 .LASF3942
C:\Users\CYMR90~1\AppData\Local\Temp\ccLNaGfc.s:31823  .debug_str:0000000000028055 .LASF3943
C:\Users\CYMR90~1\AppData\Local\Temp\ccLNaGfc.s:31815  .debug_str:0000000000027fcb .LASF3944
C:\Users\CYMR90~1\AppData\Local\Temp\ccLNaGfc.s:33027  .debug_str:000000000002cd1a .LASF3945
C:\Users\CYMR90~1\AppData\Local\Temp\ccLNaGfc.s:32389  .debug_str:000000000002a47e .LASF3946
C:\Users\CYMR90~1\AppData\Local\Temp\ccLNaGfc.s:24026  .debug_str:0000000000008fda .LASF3947
C:\Users\CYMR90~1\AppData\Local\Temp\ccLNaGfc.s:22444  .debug_str:00000000000029c3 .LASF3948
C:\Users\CYMR90~1\AppData\Local\Temp\ccLNaGfc.s:31269  .debug_str:0000000000025dd0 .LASF3949
C:\Users\CYMR90~1\AppData\Local\Temp\ccLNaGfc.s:23838  .debug_str:0000000000008354 .LASF3950
C:\Users\CYMR90~1\AppData\Local\Temp\ccLNaGfc.s:27779  .debug_str:0000000000018015 .LASF3951
C:\Users\CYMR90~1\AppData\Local\Temp\ccLNaGfc.s:31941  .debug_str:00000000000288cf .LASF3952
C:\Users\CYMR90~1\AppData\Local\Temp\ccLNaGfc.s:22784  .debug_str:0000000000003f8e .LASF3953
C:\Users\CYMR90~1\AppData\Local\Temp\ccLNaGfc.s:28271  .debug_str:0000000000019fa8 .LASF3954
C:\Users\CYMR90~1\AppData\Local\Temp\ccLNaGfc.s:27977  .debug_str:0000000000018c1f .LASF3955
C:\Users\CYMR90~1\AppData\Local\Temp\ccLNaGfc.s:30751  .debug_str:0000000000023b38 .LASF3956
C:\Users\CYMR90~1\AppData\Local\Temp\ccLNaGfc.s:29797  .debug_str:0000000000020217 .LASF3957
C:\Users\CYMR90~1\AppData\Local\Temp\ccLNaGfc.s:28335  .debug_str:000000000001a35c .LASF3958
C:\Users\CYMR90~1\AppData\Local\Temp\ccLNaGfc.s:33115  .debug_str:000000000002d31c .LASF3959
C:\Users\CYMR90~1\AppData\Local\Temp\ccLNaGfc.s:27717  .debug_str:0000000000017c6a .LASF3960
C:\Users\CYMR90~1\AppData\Local\Temp\ccLNaGfc.s:23994  .debug_str:0000000000008d9c .LASF3961
C:\Users\CYMR90~1\AppData\Local\Temp\ccLNaGfc.s:28445  .debug_str:000000000001ac0b .LASF3962
C:\Users\CYMR90~1\AppData\Local\Temp\ccLNaGfc.s:28691  .debug_str:000000000001bc28 .LASF3963
C:\Users\CYMR90~1\AppData\Local\Temp\ccLNaGfc.s:32263  .debug_str:0000000000029d48 .LASF3964
C:\Users\CYMR90~1\AppData\Local\Temp\ccLNaGfc.s:24834  .debug_str:000000000000c3db .LASF3965
C:\Users\CYMR90~1\AppData\Local\Temp\ccLNaGfc.s:25248  .debug_str:000000000000dde6 .LASF3966
C:\Users\CYMR90~1\AppData\Local\Temp\ccLNaGfc.s:28059  .debug_str:000000000001913f .LASF3967
C:\Users\CYMR90~1\AppData\Local\Temp\ccLNaGfc.s:23698  .debug_str:0000000000007960 .LASF3968
C:\Users\CYMR90~1\AppData\Local\Temp\ccLNaGfc.s:27647  .debug_str:00000000000177ce .LASF3969
C:\Users\CYMR90~1\AppData\Local\Temp\ccLNaGfc.s:30733  .debug_str:00000000000239e7 .LASF3970
C:\Users\CYMR90~1\AppData\Local\Temp\ccLNaGfc.s:24204  .debug_str:0000000000009a89 .LASF3971
C:\Users\CYMR90~1\AppData\Local\Temp\ccLNaGfc.s:33081  .debug_str:000000000002d09e .LASF3972
C:\Users\CYMR90~1\AppData\Local\Temp\ccLNaGfc.s:32201  .debug_str:000000000002994d .LASF3973
C:\Users\CYMR90~1\AppData\Local\Temp\ccLNaGfc.s:24774  .debug_str:000000000000bff0 .LASF3974
C:\Users\CYMR90~1\AppData\Local\Temp\ccLNaGfc.s:28763  .debug_str:000000000001c049 .LASF3975
C:\Users\CYMR90~1\AppData\Local\Temp\ccLNaGfc.s:31111  .debug_str:0000000000025292 .LASF3976
C:\Users\CYMR90~1\AppData\Local\Temp\ccLNaGfc.s:27108  .debug_str:00000000000153ca .LASF3977
C:\Users\CYMR90~1\AppData\Local\Temp\ccLNaGfc.s:27591  .debug_str:0000000000017493 .LASF3978
C:\Users\CYMR90~1\AppData\Local\Temp\ccLNaGfc.s:29063  .debug_str:000000000001d4e8 .LASF3979
C:\Users\CYMR90~1\AppData\Local\Temp\ccLNaGfc.s:22020  .debug_str:0000000000000e84 .LASF3980
C:\Users\CYMR90~1\AppData\Local\Temp\ccLNaGfc.s:28087  .debug_str:00000000000193ce .LASF3981
C:\Users\CYMR90~1\AppData\Local\Temp\ccLNaGfc.s:27597  .debug_str:00000000000174ff .LASF3982
C:\Users\CYMR90~1\AppData\Local\Temp\ccLNaGfc.s:24710  .debug_str:000000000000bb7b .LASF3983
C:\Users\CYMR90~1\AppData\Local\Temp\ccLNaGfc.s:32311  .debug_str:000000000002a015 .LASF3984
C:\Users\CYMR90~1\AppData\Local\Temp\ccLNaGfc.s:32617  .debug_str:000000000002b237 .LASF3985
C:\Users\CYMR90~1\AppData\Local\Temp\ccLNaGfc.s:25624  .debug_str:000000000000f4f2 .LASF3986
C:\Users\CYMR90~1\AppData\Local\Temp\ccLNaGfc.s:33033  .debug_str:000000000002cd93 .LASF3987
C:\Users\CYMR90~1\AppData\Local\Temp\ccLNaGfc.s:31495  .debug_str:0000000000026ba4 .LASF3988
C:\Users\CYMR90~1\AppData\Local\Temp\ccLNaGfc.s:25572  .debug_str:000000000000f1b1 .LASF3989
C:\Users\CYMR90~1\AppData\Local\Temp\ccLNaGfc.s:28019  .debug_str:0000000000018ee9 .LASF3990
C:\Users\CYMR90~1\AppData\Local\Temp\ccLNaGfc.s:26556  .debug_str:0000000000013091 .LASF3991
C:\Users\CYMR90~1\AppData\Local\Temp\ccLNaGfc.s:30965  .debug_str:00000000000248ac .LASF3992
C:\Users\CYMR90~1\AppData\Local\Temp\ccLNaGfc.s:28599  .debug_str:000000000001b659 .LASF3993
C:\Users\CYMR90~1\AppData\Local\Temp\ccLNaGfc.s:32547  .debug_str:000000000002add3 .LASF3994
C:\Users\CYMR90~1\AppData\Local\Temp\ccLNaGfc.s:25124  .debug_str:000000000000d6b3 .LASF3995
C:\Users\CYMR90~1\AppData\Local\Temp\ccLNaGfc.s:31497  .debug_str:0000000000026bca .LASF3996
C:\Users\CYMR90~1\AppData\Local\Temp\ccLNaGfc.s:27492  .debug_str:0000000000016c3e .LASF3997
C:\Users\CYMR90~1\AppData\Local\Temp\ccLNaGfc.s:23998  .debug_str:0000000000008dd6 .LASF3998
C:\Users\CYMR90~1\AppData\Local\Temp\ccLNaGfc.s:27945  .debug_str:00000000000189ec .LASF3999
C:\Users\CYMR90~1\AppData\Local\Temp\ccLNaGfc.s:25988  .debug_str:0000000000010bc7 .LASF4000
C:\Users\CYMR90~1\AppData\Local\Temp\ccLNaGfc.s:24580  .debug_str:000000000000b2d3 .LASF4001
C:\Users\CYMR90~1\AppData\Local\Temp\ccLNaGfc.s:27979  .debug_str:0000000000018c45 .LASF4002
C:\Users\CYMR90~1\AppData\Local\Temp\ccLNaGfc.s:28191  .debug_str:0000000000019a2c .LASF4003
C:\Users\CYMR90~1\AppData\Local\Temp\ccLNaGfc.s:32699  .debug_str:000000000002b754 .LASF4004
C:\Users\CYMR90~1\AppData\Local\Temp\ccLNaGfc.s:23622  .debug_str:00000000000074e0 .LASF4005
C:\Users\CYMR90~1\AppData\Local\Temp\ccLNaGfc.s:32979  .debug_str:000000000002ca3c .LASF4006
C:\Users\CYMR90~1\AppData\Local\Temp\ccLNaGfc.s:30017  .debug_str:0000000000020f52 .LASF4007
C:\Users\CYMR90~1\AppData\Local\Temp\ccLNaGfc.s:23568  .debug_str:0000000000007121 .LASF4008
C:\Users\CYMR90~1\AppData\Local\Temp\ccLNaGfc.s:31933  .debug_str:0000000000028859 .LASF4009
C:\Users\CYMR90~1\AppData\Local\Temp\ccLNaGfc.s:24512  .debug_str:000000000000add4 .LASF4010
C:\Users\CYMR90~1\AppData\Local\Temp\ccLNaGfc.s:23178  .debug_str:000000000000593b .LASF4011
C:\Users\CYMR90~1\AppData\Local\Temp\ccLNaGfc.s:23938  .debug_str:000000000000896b .LASF4012
C:\Users\CYMR90~1\AppData\Local\Temp\ccLNaGfc.s:24998  .debug_str:000000000000ce5c .LASF4013
C:\Users\CYMR90~1\AppData\Local\Temp\ccLNaGfc.s:28923  .debug_str:000000000001ca29 .LASF4014
C:\Users\CYMR90~1\AppData\Local\Temp\ccLNaGfc.s:32905  .debug_str:000000000002c526 .LASF4015
C:\Users\CYMR90~1\AppData\Local\Temp\ccLNaGfc.s:25560  .debug_str:000000000000f104 .LASF4016
C:\Users\CYMR90~1\AppData\Local\Temp\ccLNaGfc.s:29737  .debug_str:000000000001fe6f .LASF4017
C:\Users\CYMR90~1\AppData\Local\Temp\ccLNaGfc.s:28839  .debug_str:000000000001c55f .LASF4018
C:\Users\CYMR90~1\AppData\Local\Temp\ccLNaGfc.s:32727  .debug_str:000000000002b937 .LASF4019
C:\Users\CYMR90~1\AppData\Local\Temp\ccLNaGfc.s:28401  .debug_str:000000000001a8ae .LASF4020
C:\Users\CYMR90~1\AppData\Local\Temp\ccLNaGfc.s:31071  .debug_str:0000000000024ff4 .LASF4021
C:\Users\CYMR90~1\AppData\Local\Temp\ccLNaGfc.s:28371  .debug_str:000000000001a729 .LASF4022
C:\Users\CYMR90~1\AppData\Local\Temp\ccLNaGfc.s:28851  .debug_str:000000000001c5fe .LASF4023
C:\Users\CYMR90~1\AppData\Local\Temp\ccLNaGfc.s:33075  .debug_str:000000000002d044 .LASF4024
C:\Users\CYMR90~1\AppData\Local\Temp\ccLNaGfc.s:24922  .debug_str:000000000000c90e .LASF4025
C:\Users\CYMR90~1\AppData\Local\Temp\ccLNaGfc.s:25096  .debug_str:000000000000d4a7 .LASF4026
C:\Users\CYMR90~1\AppData\Local\Temp\ccLNaGfc.s:23248  .debug_str:0000000000005dc7 .LASF4027
C:\Users\CYMR90~1\AppData\Local\Temp\ccLNaGfc.s:24376  .debug_str:000000000000a566 .LASF4028
C:\Users\CYMR90~1\AppData\Local\Temp\ccLNaGfc.s:28317  .debug_str:000000000001a248 .LASF4029
C:\Users\CYMR90~1\AppData\Local\Temp\ccLNaGfc.s:32285  .debug_str:0000000000029e8f .LASF4030
C:\Users\CYMR90~1\AppData\Local\Temp\ccLNaGfc.s:24860  .debug_str:000000000000c557 .LASF4031
C:\Users\CYMR90~1\AppData\Local\Temp\ccLNaGfc.s:28791  .debug_str:000000000001c245 .LASF4032
C:\Users\CYMR90~1\AppData\Local\Temp\ccLNaGfc.s:29035  .debug_str:000000000001d29e .LASF4033
C:\Users\CYMR90~1\AppData\Local\Temp\ccLNaGfc.s:28465  .debug_str:000000000001ad65 .LASF4034
C:\Users\CYMR90~1\AppData\Local\Temp\ccLNaGfc.s:29341  .debug_str:000000000001e65b .LASF4035
C:\Users\CYMR90~1\AppData\Local\Temp\ccLNaGfc.s:21930  .debug_str:0000000000000896 .LASF4036
C:\Users\CYMR90~1\AppData\Local\Temp\ccLNaGfc.s:24462  .debug_str:000000000000aae7 .LASF4037
C:\Users\CYMR90~1\AppData\Local\Temp\ccLNaGfc.s:22916  .debug_str:0000000000004885 .LASF4038
C:\Users\CYMR90~1\AppData\Local\Temp\ccLNaGfc.s:26970  .debug_str:0000000000014ae6 .LASF4039
C:\Users\CYMR90~1\AppData\Local\Temp\ccLNaGfc.s:30943  .debug_str:0000000000024718 .LASF4040
C:\Users\CYMR90~1\AppData\Local\Temp\ccLNaGfc.s:23496  .debug_str:0000000000006c92 .LASF4041
C:\Users\CYMR90~1\AppData\Local\Temp\ccLNaGfc.s:30451  .debug_str:0000000000022977 .LASF4042
C:\Users\CYMR90~1\AppData\Local\Temp\ccLNaGfc.s:32809  .debug_str:000000000002beb7 .LASF4043
C:\Users\CYMR90~1\AppData\Local\Temp\ccLNaGfc.s:23480  .debug_str:0000000000006b87 .LASF4044
C:\Users\CYMR90~1\AppData\Local\Temp\ccLNaGfc.s:27937  .debug_str:0000000000018975 .LASF4045
C:\Users\CYMR90~1\AppData\Local\Temp\ccLNaGfc.s:31995  .debug_str:0000000000028c8e .LASF4046
C:\Users\CYMR90~1\AppData\Local\Temp\ccLNaGfc.s:31339  .debug_str:00000000000261fe .LASF4047
C:\Users\CYMR90~1\AppData\Local\Temp\ccLNaGfc.s:26906  .debug_str:000000000001465e .LASF4048
C:\Users\CYMR90~1\AppData\Local\Temp\ccLNaGfc.s:29245  .debug_str:000000000001dff6 .LASF4049
C:\Users\CYMR90~1\AppData\Local\Temp\ccLNaGfc.s:31629  .debug_str:00000000000273a6 .LASF4050
C:\Users\CYMR90~1\AppData\Local\Temp\ccLNaGfc.s:29135  .debug_str:000000000001d93e .LASF4051
C:\Users\CYMR90~1\AppData\Local\Temp\ccLNaGfc.s:29891  .debug_str:0000000000020771 .LASF4052
C:\Users\CYMR90~1\AppData\Local\Temp\ccLNaGfc.s:25970  .debug_str:0000000000010abd .LASF4053
C:\Users\CYMR90~1\AppData\Local\Temp\ccLNaGfc.s:29593  .debug_str:000000000001f590 .LASF4054
C:\Users\CYMR90~1\AppData\Local\Temp\ccLNaGfc.s:31923  .debug_str:00000000000287ad .LASF4055
C:\Users\CYMR90~1\AppData\Local\Temp\ccLNaGfc.s:23812  .debug_str:0000000000008135 .LASF4056
C:\Users\CYMR90~1\AppData\Local\Temp\ccLNaGfc.s:31223  .debug_str:0000000000025a2c .LASF4057
C:\Users\CYMR90~1\AppData\Local\Temp\ccLNaGfc.s:32831  .debug_str:000000000002c028 .LASF4058
C:\Users\CYMR90~1\AppData\Local\Temp\ccLNaGfc.s:24172  .debug_str:00000000000098c6 .LASF4059
C:\Users\CYMR90~1\AppData\Local\Temp\ccLNaGfc.s:27302  .debug_str:0000000000015f94 .LASF4060
C:\Users\CYMR90~1\AppData\Local\Temp\ccLNaGfc.s:31287  .debug_str:0000000000025ed8 .LASF4061
C:\Users\CYMR90~1\AppData\Local\Temp\ccLNaGfc.s:26390  .debug_str:00000000000125c8 .LASF4062
C:\Users\CYMR90~1\AppData\Local\Temp\ccLNaGfc.s:26436  .debug_str:00000000000128be .LASF4063
C:\Users\CYMR90~1\AppData\Local\Temp\ccLNaGfc.s:31863  .debug_str:0000000000028312 .LASF4064
C:\Users\CYMR90~1\AppData\Local\Temp\ccLNaGfc.s:24436  .debug_str:000000000000a92d .LASF4065
C:\Users\CYMR90~1\AppData\Local\Temp\ccLNaGfc.s:28391  .debug_str:000000000001a81b .LASF4066
C:\Users\CYMR90~1\AppData\Local\Temp\ccLNaGfc.s:25440  .debug_str:000000000000e997 .LASF4067
C:\Users\CYMR90~1\AppData\Local\Temp\ccLNaGfc.s:23292  .debug_str:0000000000006021 .LASF4068
C:\Users\CYMR90~1\AppData\Local\Temp\ccLNaGfc.s:29623  .debug_str:000000000001f764 .LASF4069
C:\Users\CYMR90~1\AppData\Local\Temp\ccLNaGfc.s:31219  .debug_str:00000000000259da .LASF4070
C:\Users\CYMR90~1\AppData\Local\Temp\ccLNaGfc.s:31847  .debug_str:00000000000281fc .LASF4071
C:\Users\CYMR90~1\AppData\Local\Temp\ccLNaGfc.s:22846  .debug_str:0000000000004423 .LASF4072
C:\Users\CYMR90~1\AppData\Local\Temp\ccLNaGfc.s:28563  .debug_str:000000000001b3c3 .LASF4073
C:\Users\CYMR90~1\AppData\Local\Temp\ccLNaGfc.s:26056  .debug_str:000000000001105d .LASF4074
C:\Users\CYMR90~1\AppData\Local\Temp\ccLNaGfc.s:28309  .debug_str:000000000001a1d1 .LASF4075
C:\Users\CYMR90~1\AppData\Local\Temp\ccLNaGfc.s:32279  .debug_str:0000000000029e25 .LASF4076
C:\Users\CYMR90~1\AppData\Local\Temp\ccLNaGfc.s:31613  .debug_str:00000000000272a6 .LASF4077
C:\Users\CYMR90~1\AppData\Local\Temp\ccLNaGfc.s:27176  .debug_str:00000000000157a5 .LASF4078
C:\Users\CYMR90~1\AppData\Local\Temp\ccLNaGfc.s:32917  .debug_str:000000000002c61d .LASF4079
C:\Users\CYMR90~1\AppData\Local\Temp\ccLNaGfc.s:23710  .debug_str:0000000000007a3c .LASF4080
C:\Users\CYMR90~1\AppData\Local\Temp\ccLNaGfc.s:31161  .debug_str:00000000000255ca .LASF4081
C:\Users\CYMR90~1\AppData\Local\Temp\ccLNaGfc.s:33161  .debug_str:000000000002d5cd .LASF4082
C:\Users\CYMR90~1\AppData\Local\Temp\ccLNaGfc.s:23010  .debug_str:0000000000004f0b .LASF4083
C:\Users\CYMR90~1\AppData\Local\Temp\ccLNaGfc.s:28247  .debug_str:0000000000019e37 .LASF4084
C:\Users\CYMR90~1\AppData\Local\Temp\ccLNaGfc.s:23242  .debug_str:0000000000005d33 .LASF4085
C:\Users\CYMR90~1\AppData\Local\Temp\ccLNaGfc.s:24786  .debug_str:000000000000c0c7 .LASF4086
C:\Users\CYMR90~1\AppData\Local\Temp\ccLNaGfc.s:26116  .debug_str:000000000001139b .LASF4087
C:\Users\CYMR90~1\AppData\Local\Temp\ccLNaGfc.s:24274  .debug_str:0000000000009f39 .LASF4088
C:\Users\CYMR90~1\AppData\Local\Temp\ccLNaGfc.s:30033  .debug_str:0000000000021032 .LASF4089
C:\Users\CYMR90~1\AppData\Local\Temp\ccLNaGfc.s:27685  .debug_str:0000000000017a22 .LASF4090
C:\Users\CYMR90~1\AppData\Local\Temp\ccLNaGfc.s:24242  .debug_str:0000000000009d50 .LASF4091
C:\Users\CYMR90~1\AppData\Local\Temp\ccLNaGfc.s:28913  .debug_str:000000000001c98d .LASF4092
C:\Users\CYMR90~1\AppData\Local\Temp\ccLNaGfc.s:28187  .debug_str:00000000000199e1 .LASF4093
C:\Users\CYMR90~1\AppData\Local\Temp\ccLNaGfc.s:32153  .debug_str:00000000000295ca .LASF4094
C:\Users\CYMR90~1\AppData\Local\Temp\ccLNaGfc.s:22216  .debug_str:0000000000001bbf .LASF4095
C:\Users\CYMR90~1\AppData\Local\Temp\ccLNaGfc.s:24592  .debug_str:000000000000b397 .LASF4096
C:\Users\CYMR90~1\AppData\Local\Temp\ccLNaGfc.s:25740  .debug_str:000000000000fc56 .LASF4097
C:\Users\CYMR90~1\AppData\Local\Temp\ccLNaGfc.s:23578  .debug_str:00000000000071aa .LASF4098
C:\Users\CYMR90~1\AppData\Local\Temp\ccLNaGfc.s:27625  .debug_str:0000000000017682 .LASF4099
C:\Users\CYMR90~1\AppData\Local\Temp\ccLNaGfc.s:31605  .debug_str:0000000000027233 .LASF4100
C:\Users\CYMR90~1\AppData\Local\Temp\ccLNaGfc.s:30111  .debug_str:00000000000214bb .LASF4101
C:\Users\CYMR90~1\AppData\Local\Temp\ccLNaGfc.s:28123  .debug_str:00000000000195d0 .LASF4102
C:\Users\CYMR90~1\AppData\Local\Temp\ccLNaGfc.s:23402  .debug_str:00000000000066c4 .LASF4103
C:\Users\CYMR90~1\AppData\Local\Temp\ccLNaGfc.s:24662  .debug_str:000000000000b822 .LASF4104
C:\Users\CYMR90~1\AppData\Local\Temp\ccLNaGfc.s:28115  .debug_str:000000000001955a .LASF4105
C:\Users\CYMR90~1\AppData\Local\Temp\ccLNaGfc.s:26284  .debug_str:0000000000011ed2 .LASF4106
C:\Users\CYMR90~1\AppData\Local\Temp\ccLNaGfc.s:23324  .debug_str:00000000000061ee .LASF4107
C:\Users\CYMR90~1\AppData\Local\Temp\ccLNaGfc.s:27561  .debug_str:00000000000172d2 .LASF4108
C:\Users\CYMR90~1\AppData\Local\Temp\ccLNaGfc.s:31533  .debug_str:0000000000026ddf .LASF4109
C:\Users\CYMR90~1\AppData\Local\Temp\ccLNaGfc.s:24102  .debug_str:0000000000009457 .LASF4110
C:\Users\CYMR90~1\AppData\Local\Temp\ccLNaGfc.s:22180  .debug_str:000000000000199a .LASF4111
C:\Users\CYMR90~1\AppData\Local\Temp\ccLNaGfc.s:26940  .debug_str:0000000000014903 .LASF4112
C:\Users\CYMR90~1\AppData\Local\Temp\ccLNaGfc.s:29279  .debug_str:000000000001e2a2 .LASF4113
C:\Users\CYMR90~1\AppData\Local\Temp\ccLNaGfc.s:28553  .debug_str:000000000001b32a .LASF4114
C:\Users\CYMR90~1\AppData\Local\Temp\ccLNaGfc.s:32495  .debug_str:000000000002aaf3 .LASF4115
C:\Users\CYMR90~1\AppData\Local\Temp\ccLNaGfc.s:25158  .debug_str:000000000000d8fb .LASF4116
C:\Users\CYMR90~1\AppData\Local\Temp\ccLNaGfc.s:22186  .debug_str:0000000000001a00 .LASF4117
C:\Users\CYMR90~1\AppData\Local\Temp\ccLNaGfc.s:31469  .debug_str:00000000000269cd .LASF4118
C:\Users\CYMR90~1\AppData\Local\Temp\ccLNaGfc.s:25812  .debug_str:0000000000010125 .LASF4119
C:\Users\CYMR90~1\AppData\Local\Temp\ccLNaGfc.s:28289  .debug_str:000000000001a0a9 .LASF4120
C:\Users\CYMR90~1\AppData\Local\Temp\ccLNaGfc.s:30507  .debug_str:0000000000022cbf .LASF4121
C:\Users\CYMR90~1\AppData\Local\Temp\ccLNaGfc.s:32859  .debug_str:000000000002c1d8 .LASF4122
C:\Users\CYMR90~1\AppData\Local\Temp\ccLNaGfc.s:28491  .debug_str:000000000001af09 .LASF4123
C:\Users\CYMR90~1\AppData\Local\Temp\ccLNaGfc.s:32433  .debug_str:000000000002a6c6 .LASF4124
C:\Users\CYMR90~1\AppData\Local\Temp\ccLNaGfc.s:29357  .debug_str:000000000001e747 .LASF4125
C:\Users\CYMR90~1\AppData\Local\Temp\ccLNaGfc.s:29021  .debug_str:000000000001d11a .LASF4126
C:\Users\CYMR90~1\AppData\Local\Temp\ccLNaGfc.s:26102  .debug_str:00000000000112c1 .LASF4127
C:\Users\CYMR90~1\AppData\Local\Temp\ccLNaGfc.s:23966  .debug_str:0000000000008bf7 .LASF4128
C:\Users\CYMR90~1\AppData\Local\Temp\ccLNaGfc.s:27909  .debug_str:0000000000018809 .LASF4129
C:\Users\CYMR90~1\AppData\Local\Temp\ccLNaGfc.s:29065  .debug_str:000000000001d50e .LASF4130
C:\Users\CYMR90~1\AppData\Local\Temp\ccLNaGfc.s:25536  .debug_str:000000000000efac .LASF4131
C:\Users\CYMR90~1\AppData\Local\Temp\ccLNaGfc.s:28417  .debug_str:000000000001a9ec .LASF4132
C:\Users\CYMR90~1\AppData\Local\Temp\ccLNaGfc.s:26790  .debug_str:0000000000013f88 .LASF4133
C:\Users\CYMR90~1\AppData\Local\Temp\ccLNaGfc.s:29399  .debug_str:000000000001e9d5 .LASF4134
C:\Users\CYMR90~1\AppData\Local\Temp\ccLNaGfc.s:30177  .debug_str:000000000002187c .LASF4135
C:\Users\CYMR90~1\AppData\Local\Temp\ccLNaGfc.s:26230  .debug_str:0000000000011b29 .LASF4136
C:\Users\CYMR90~1\AppData\Local\Temp\ccLNaGfc.s:24510  .debug_str:000000000000adae .LASF4137
C:\Users\CYMR90~1\AppData\Local\Temp\ccLNaGfc.s:22608  .debug_str:0000000000003448 .LASF4138
C:\Users\CYMR90~1\AppData\Local\Temp\ccLNaGfc.s:26588  .debug_str:00000000000132a5 .LASF4139
C:\Users\CYMR90~1\AppData\Local\Temp\ccLNaGfc.s:30207  .debug_str:0000000000021aed .LASF4140
C:\Users\CYMR90~1\AppData\Local\Temp\ccLNaGfc.s:23076  .debug_str:0000000000005310 .LASF4141
C:\Users\CYMR90~1\AppData\Local\Temp\ccLNaGfc.s:27046  .debug_str:0000000000014fa4 .LASF4142
C:\Users\CYMR90~1\AppData\Local\Temp\ccLNaGfc.s:31017  .debug_str:0000000000024bf6 .LASF4143
C:\Users\CYMR90~1\AppData\Local\Temp\ccLNaGfc.s:23570  .debug_str:0000000000007147 .LASF4144
C:\Users\CYMR90~1\AppData\Local\Temp\ccLNaGfc.s:22860  .debug_str:00000000000044e3 .LASF4145
C:\Users\CYMR90~1\AppData\Local\Temp\ccLNaGfc.s:31597  .debug_str:0000000000027198 .LASF4146
C:\Users\CYMR90~1\AppData\Local\Temp\ccLNaGfc.s:28653  .debug_str:000000000001b9b6 .LASF4147
C:\Users\CYMR90~1\AppData\Local\Temp\ccLNaGfc.s:26540  .debug_str:0000000000012f93 .LASF4148
C:\Users\CYMR90~1\AppData\Local\Temp\ccLNaGfc.s:30497  .debug_str:0000000000022c0d .LASF4149
C:\Users\CYMR90~1\AppData\Local\Temp\ccLNaGfc.s:26378  .debug_str:00000000000124f3 .LASF4150
C:\Users\CYMR90~1\AppData\Local\Temp\ccLNaGfc.s:27090  .debug_str:00000000000152c1 .LASF4151
C:\Users\CYMR90~1\AppData\Local\Temp\ccLNaGfc.s:33031  .debug_str:000000000002cd6d .LASF4152
C:\Users\CYMR90~1\AppData\Local\Temp\ccLNaGfc.s:31753  .debug_str:0000000000027bb8 .LASF4153
C:\Users\CYMR90~1\AppData\Local\Temp\ccLNaGfc.s:27458  .debug_str:00000000000169c4 .LASF4154
C:\Users\CYMR90~1\AppData\Local\Temp\ccLNaGfc.s:25960  .debug_str:0000000000010a2d .LASF4155
C:\Users\CYMR90~1\AppData\Local\Temp\ccLNaGfc.s:24094  .debug_str:00000000000093e8 .LASF4156
C:\Users\CYMR90~1\AppData\Local\Temp\ccLNaGfc.s:32545  .debug_str:000000000002adad .LASF4157
C:\Users\CYMR90~1\AppData\Local\Temp\ccLNaGfc.s:25902  .debug_str:00000000000106ca .LASF4158
C:\Users\CYMR90~1\AppData\Local\Temp\ccLNaGfc.s:27340  .debug_str:0000000000016264 .LASF4159
C:\Users\CYMR90~1\AppData\Local\Temp\ccLNaGfc.s:30605  .debug_str:00000000000232da .LASF4160
C:\Users\CYMR90~1\AppData\Local\Temp\ccLNaGfc.s:25658  .debug_str:000000000000f6fe .LASF4161
C:\Users\CYMR90~1\AppData\Local\Temp\ccLNaGfc.s:23442  .debug_str:00000000000068f6 .LASF4162
C:\Users\CYMR90~1\AppData\Local\Temp\ccLNaGfc.s:27384  .debug_str:0000000000016509 .LASF4163
C:\Users\CYMR90~1\AppData\Local\Temp\ccLNaGfc.s:31461  .debug_str:0000000000026953 .LASF4164
C:\Users\CYMR90~1\AppData\Local\Temp\ccLNaGfc.s:24036  .debug_str:000000000000909b .LASF4165
C:\Users\CYMR90~1\AppData\Local\Temp\ccLNaGfc.s:27975  .debug_str:0000000000018bf9 .LASF4166
C:\Users\CYMR90~1\AppData\Local\Temp\ccLNaGfc.s:25056  .debug_str:000000000000d1d8 .LASF4167
C:\Users\CYMR90~1\AppData\Local\Temp\ccLNaGfc.s:22894  .debug_str:00000000000046f9 .LASF4168
C:\Users\CYMR90~1\AppData\Local\Temp\ccLNaGfc.s:26848  .debug_str:0000000000014325 .LASF4169
C:\Users\CYMR90~1\AppData\Local\Temp\ccLNaGfc.s:25012  .debug_str:000000000000cf1b .LASF4170
C:\Users\CYMR90~1\AppData\Local\Temp\ccLNaGfc.s:23374  .debug_str:0000000000006503 .LASF4171
C:\Users\CYMR90~1\AppData\Local\Temp\ccLNaGfc.s:22492  .debug_str:0000000000002d04 .LASF4172
C:\Users\CYMR90~1\AppData\Local\Temp\ccLNaGfc.s:33037  .debug_str:000000000002cddd .LASF4173
C:\Users\CYMR90~1\AppData\Local\Temp\ccLNaGfc.s:23980  .debug_str:0000000000008ccc .LASF4174
C:\Users\CYMR90~1\AppData\Local\Temp\ccLNaGfc.s:27903  .debug_str:000000000001879b .LASF4175
C:\Users\CYMR90~1\AppData\Local\Temp\ccLNaGfc.s:22256  .debug_str:0000000000001e28 .LASF4176
C:\Users\CYMR90~1\AppData\Local\Temp\ccLNaGfc.s:28919  .debug_str:000000000001c9e4 .LASF4177
C:\Users\CYMR90~1\AppData\Local\Temp\ccLNaGfc.s:26786  .debug_str:0000000000013f45 .LASF4178
C:\Users\CYMR90~1\AppData\Local\Temp\ccLNaGfc.s:30769  .debug_str:0000000000023c5c .LASF4179
C:\Users\CYMR90~1\AppData\Local\Temp\ccLNaGfc.s:27188  .debug_str:0000000000015885 .LASF4180
C:\Users\CYMR90~1\AppData\Local\Temp\ccLNaGfc.s:31925  .debug_str:00000000000287d3 .LASF4181
C:\Users\CYMR90~1\AppData\Local\Temp\ccLNaGfc.s:25172  .debug_str:000000000000d9b6 .LASF4182
C:\Users\CYMR90~1\AppData\Local\Temp\ccLNaGfc.s:23888  .debug_str:000000000000868e .LASF4183
C:\Users\CYMR90~1\AppData\Local\Temp\ccLNaGfc.s:29861  .debug_str:00000000000205f3 .LASF4184
C:\Users\CYMR90~1\AppData\Local\Temp\ccLNaGfc.s:31811  .debug_str:0000000000027f83 .LASF4185
C:\Users\CYMR90~1\AppData\Local\Temp\ccLNaGfc.s:24380  .debug_str:000000000000a5a4 .LASF4186
C:\Users\CYMR90~1\AppData\Local\Temp\ccLNaGfc.s:32841  .debug_str:000000000002c0af .LASF4187
C:\Users\CYMR90~1\AppData\Local\Temp\ccLNaGfc.s:23672  .debug_str:00000000000077b0 .LASF4188
C:\Users\CYMR90~1\AppData\Local\Temp\ccLNaGfc.s:23238  .debug_str:0000000000005cdb .LASF4189
C:\Users\CYMR90~1\AppData\Local\Temp\ccLNaGfc.s:26358  .debug_str:00000000000123e2 .LASF4190
C:\Users\CYMR90~1\AppData\Local\Temp\ccLNaGfc.s:27236  .debug_str:0000000000015b37 .LASF4191
C:\Users\CYMR90~1\AppData\Local\Temp\ccLNaGfc.s:23824  .debug_str:000000000000827a .LASF4192
C:\Users\CYMR90~1\AppData\Local\Temp\ccLNaGfc.s:27422  .debug_str:00000000000167bc .LASF4193
C:\Users\CYMR90~1\AppData\Local\Temp\ccLNaGfc.s:24368  .debug_str:000000000000a4df .LASF4194
C:\Users\CYMR90~1\AppData\Local\Temp\ccLNaGfc.s:22476  .debug_str:0000000000002bc9 .LASF4195
C:\Users\CYMR90~1\AppData\Local\Temp\ccLNaGfc.s:29837  .debug_str:000000000002049a .LASF4196
C:\Users\CYMR90~1\AppData\Local\Temp\ccLNaGfc.s:24578  .debug_str:000000000000b2ad .LASF4197
C:\Users\CYMR90~1\AppData\Local\Temp\ccLNaGfc.s:23172  .debug_str:00000000000058ef .LASF4198
C:\Users\CYMR90~1\AppData\Local\Temp\ccLNaGfc.s:23776  .debug_str:0000000000007e2a .LASF4199
C:\Users\CYMR90~1\AppData\Local\Temp\ccLNaGfc.s:32243  .debug_str:0000000000029c48 .LASF4200
C:\Users\CYMR90~1\AppData\Local\Temp\ccLNaGfc.s:23166  .debug_str:0000000000005897 .LASF4201
C:\Users\CYMR90~1\AppData\Local\Temp\ccLNaGfc.s:23338  .debug_str:00000000000062c0 .LASF4202
C:\Users\CYMR90~1\AppData\Local\Temp\ccLNaGfc.s:24110  .debug_str:00000000000094d3 .LASF4203
C:\Users\CYMR90~1\AppData\Local\Temp\ccLNaGfc.s:30841  .debug_str:00000000000240c8 .LASF4204
C:\Users\CYMR90~1\AppData\Local\Temp\ccLNaGfc.s:32601  .debug_str:000000000002b142 .LASF4205
C:\Users\CYMR90~1\AppData\Local\Temp\ccLNaGfc.s:23528  .debug_str:0000000000006e62 .LASF4206
C:\Users\CYMR90~1\AppData\Local\Temp\ccLNaGfc.s:32709  .debug_str:000000000002b808 .LASF4207
C:\Users\CYMR90~1\AppData\Local\Temp\ccLNaGfc.s:23106  .debug_str:00000000000054df .LASF4208
C:\Users\CYMR90~1\AppData\Local\Temp\ccLNaGfc.s:24390  .debug_str:000000000000a694 .LASF4209
C:\Users\CYMR90~1\AppData\Local\Temp\ccLNaGfc.s:23682  .debug_str:0000000000007866 .LASF4210
C:\Users\CYMR90~1\AppData\Local\Temp\ccLNaGfc.s:29073  .debug_str:000000000001d588 .LASF4211
C:\Users\CYMR90~1\AppData\Local\Temp\ccLNaGfc.s:31425  .debug_str:0000000000026750 .LASF4212
C:\Users\CYMR90~1\AppData\Local\Temp\ccLNaGfc.s:28407  .debug_str:000000000001a920 .LASF4213
C:\Users\CYMR90~1\AppData\Local\Temp\ccLNaGfc.s:24752  .debug_str:000000000000be2d .LASF4214
C:\Users\CYMR90~1\AppData\Local\Temp\ccLNaGfc.s:32187  .debug_str:0000000000029848 .LASF4215
C:\Users\CYMR90~1\AppData\Local\Temp\ccLNaGfc.s:24518  .debug_str:000000000000ae3b .LASF4216
C:\Users\CYMR90~1\AppData\Local\Temp\ccLNaGfc.s:26340  .debug_str:000000000001228d .LASF4217
C:\Users\CYMR90~1\AppData\Local\Temp\ccLNaGfc.s:31061  .debug_str:0000000000024f2d .LASF4218
C:\Users\CYMR90~1\AppData\Local\Temp\ccLNaGfc.s:30267  .debug_str:0000000000021eaf .LASF4219
C:\Users\CYMR90~1\AppData\Local\Temp\ccLNaGfc.s:27577  .debug_str:00000000000173ac .LASF4220
C:\Users\CYMR90~1\AppData\Local\Temp\ccLNaGfc.s:26972  .debug_str:0000000000014b0c .LASF4221
C:\Users\CYMR90~1\AppData\Local\Temp\ccLNaGfc.s:27713  .debug_str:0000000000017c13 .LASF4222
C:\Users\CYMR90~1\AppData\Local\Temp\ccLNaGfc.s:28495  .debug_str:000000000001af61 .LASF4223
C:\Users\CYMR90~1\AppData\Local\Temp\ccLNaGfc.s:31509  .debug_str:0000000000026c7b .LASF4224
C:\Users\CYMR90~1\AppData\Local\Temp\ccLNaGfc.s:24700  .debug_str:000000000000bae8 .LASF4225
C:\Users\CYMR90~1\AppData\Local\Temp\ccLNaGfc.s:28641  .debug_str:000000000001b919 .LASF4226
C:\Users\CYMR90~1\AppData\Local\Temp\ccLNaGfc.s:30705  .debug_str:0000000000023843 .LASF4227
C:\Users\CYMR90~1\AppData\Local\Temp\ccLNaGfc.s:23546  .debug_str:0000000000006fc6 .LASF4228
C:\Users\CYMR90~1\AppData\Local\Temp\ccLNaGfc.s:27504  .debug_str:0000000000016d8a .LASF4229
C:\Users\CYMR90~1\AppData\Local\Temp\ccLNaGfc.s:31483  .debug_str:0000000000026ac6 .LASF4230
C:\Users\CYMR90~1\AppData\Local\Temp\ccLNaGfc.s:24048  .debug_str:0000000000009165 .LASF4231
C:\Users\CYMR90~1\AppData\Local\Temp\ccLNaGfc.s:28021  .debug_str:0000000000018f0f .LASF4232
C:\Users\CYMR90~1\AppData\Local\Temp\ccLNaGfc.s:26656  .debug_str:0000000000013784 .LASF4233
C:\Users\CYMR90~1\AppData\Local\Temp\ccLNaGfc.s:24636  .debug_str:000000000000b5ef .LASF4234
C:\Users\CYMR90~1\AppData\Local\Temp\ccLNaGfc.s:28585  .debug_str:000000000001b55e .LASF4235
C:\Users\CYMR90~1\AppData\Local\Temp\ccLNaGfc.s:27016  .debug_str:0000000000014d8d .LASF4236
C:\Users\CYMR90~1\AppData\Local\Temp\ccLNaGfc.s:22006  .debug_str:0000000000000d91 .LASF4237
C:\Users\CYMR90~1\AppData\Local\Temp\ccLNaGfc.s:22698  .debug_str:0000000000003a25 .LASF4238
C:\Users\CYMR90~1\AppData\Local\Temp\ccLNaGfc.s:26196  .debug_str:0000000000011885 .LASF4239
C:\Users\CYMR90~1\AppData\Local\Temp\ccLNaGfc.s:30151  .debug_str:0000000000021708 .LASF4240
C:\Users\CYMR90~1\AppData\Local\Temp\ccLNaGfc.s:22692  .debug_str:00000000000039b7 .LASF4241
C:\Users\CYMR90~1\AppData\Local\Temp\ccLNaGfc.s:26674  .debug_str:0000000000013892 .LASF4242
C:\Users\CYMR90~1\AppData\Local\Temp\ccLNaGfc.s:30631  .debug_str:0000000000023449 .LASF4243
C:\Users\CYMR90~1\AppData\Local\Temp\ccLNaGfc.s:28891  .debug_str:000000000001c856 .LASF4244
C:\Users\CYMR90~1\AppData\Local\Temp\ccLNaGfc.s:28041  .debug_str:0000000000019046 .LASF4245
C:\Users\CYMR90~1\AppData\Local\Temp\ccLNaGfc.s:29635  .debug_str:000000000001f818 .LASF4246
C:\Users\CYMR90~1\AppData\Local\Temp\ccLNaGfc.s:22884  .debug_str:0000000000004659 .LASF4247
C:\Users\CYMR90~1\AppData\Local\Temp\ccLNaGfc.s:22812  .debug_str:0000000000004186 .LASF4248
C:\Users\CYMR90~1\AppData\Local\Temp\ccLNaGfc.s:30081  .debug_str:000000000002130f .LASF4249
C:\Users\CYMR90~1\AppData\Local\Temp\ccLNaGfc.s:28003  .debug_str:0000000000018dcb .LASF4250
C:\Users\CYMR90~1\AppData\Local\Temp\ccLNaGfc.s:26708  .debug_str:0000000000013a9d .LASF4251
C:\Users\CYMR90~1\AppData\Local\Temp\ccLNaGfc.s:30601  .debug_str:000000000002329a .LASF4252
C:\Users\CYMR90~1\AppData\Local\Temp\ccLNaGfc.s:33137  .debug_str:000000000002d43a .LASF4253
C:\Users\CYMR90~1\AppData\Local\Temp\ccLNaGfc.s:24486  .debug_str:000000000000ac4f .LASF4254
C:\Users\CYMR90~1\AppData\Local\Temp\ccLNaGfc.s:25156  .debug_str:000000000000d8ee .LASF4255
C:\Users\CYMR90~1\AppData\Local\Temp\ccLNaGfc.s:30725  .debug_str:000000000002396b .LASF4256
C:\Users\CYMR90~1\AppData\Local\Temp\ccLNaGfc.s:29249  .debug_str:000000000001e052 .LASF4257
C:\Users\CYMR90~1\AppData\Local\Temp\ccLNaGfc.s:21868  .debug_str:00000000000004e7 .LASF4258
C:\Users\CYMR90~1\AppData\Local\Temp\ccLNaGfc.s:22932  .debug_str:0000000000004999 .LASF4259
C:\Users\CYMR90~1\AppData\Local\Temp\ccLNaGfc.s:25338  .debug_str:000000000000e357 .LASF4260
C:\Users\CYMR90~1\AppData\Local\Temp\ccLNaGfc.s:23502  .debug_str:0000000000006cec .LASF4261
C:\Users\CYMR90~1\AppData\Local\Temp\ccLNaGfc.s:26728  .debug_str:0000000000013bc8 .LASF4262
C:\Users\CYMR90~1\AppData\Local\Temp\ccLNaGfc.s:26356  .debug_str:00000000000123bb .LASF4263
C:\Users\CYMR90~1\AppData\Local\Temp\ccLNaGfc.s:22550  .debug_str:000000000000307e .LASF4264
C:\Users\CYMR90~1\AppData\Local\Temp\ccLNaGfc.s:23132  .debug_str:000000000000566e .LASF4265
C:\Users\CYMR90~1\AppData\Local\Temp\ccLNaGfc.s:22642  .debug_str:0000000000003699 .LASF4266
C:\Users\CYMR90~1\AppData\Local\Temp\ccLNaGfc.s:21826  .debug_str:000000000000024d .LASF4267
C:\Users\CYMR90~1\AppData\Local\Temp\ccLNaGfc.s:24104  .debug_str:000000000000947d .LASF4268
C:\Users\CYMR90~1\AppData\Local\Temp\ccLNaGfc.s:27480  .debug_str:0000000000016b8f .LASF4269
C:\Users\CYMR90~1\AppData\Local\Temp\ccLNaGfc.s:22540  .debug_str:0000000000002ff1 .LASF4270
C:\Users\CYMR90~1\AppData\Local\Temp\ccLNaGfc.s:31571  .debug_str:000000000002700a .LASF4271
C:\Users\CYMR90~1\AppData\Local\Temp\ccLNaGfc.s:27344  .debug_str:00000000000162a5 .LASF4272
C:\Users\CYMR90~1\AppData\Local\Temp\ccLNaGfc.s:28015  .debug_str:0000000000018e9c .LASF4273
C:\Users\CYMR90~1\AppData\Local\Temp\ccLNaGfc.s:30735  .debug_str:0000000000023a0d .LASF4274
C:\Users\CYMR90~1\AppData\Local\Temp\ccLNaGfc.s:30529  .debug_str:0000000000022e3b .LASF4275
C:\Users\CYMR90~1\AppData\Local\Temp\ccLNaGfc.s:31041  .debug_str:0000000000024e08 .LASF4276
C:\Users\CYMR90~1\AppData\Local\Temp\ccLNaGfc.s:32235  .debug_str:0000000000029ba5 .LASF4277
C:\Users\CYMR90~1\AppData\Local\Temp\ccLNaGfc.s:32463  .debug_str:000000000002a8d3 .LASF4278
C:\Users\CYMR90~1\AppData\Local\Temp\ccLNaGfc.s:22562  .debug_str:0000000000003147 .LASF4279
C:\Users\CYMR90~1\AppData\Local\Temp\ccLNaGfc.s:31335  .debug_str:00000000000261c1 .LASF4280
C:\Users\CYMR90~1\AppData\Local\Temp\ccLNaGfc.s:26088  .debug_str:00000000000111fb .LASF4281
C:\Users\CYMR90~1\AppData\Local\Temp\ccLNaGfc.s:29307  .debug_str:000000000001e466 .LASF4282
C:\Users\CYMR90~1\AppData\Local\Temp\ccLNaGfc.s:24278  .debug_str:0000000000009f76 .LASF4283
C:\Users\CYMR90~1\AppData\Local\Temp\ccLNaGfc.s:28549  .debug_str:000000000001b2f3 .LASF4284
C:\Users\CYMR90~1\AppData\Local\Temp\ccLNaGfc.s:29143  .debug_str:000000000001d9d2 .LASF4285
C:\Users\CYMR90~1\AppData\Local\Temp\ccLNaGfc.s:24676  .debug_str:000000000000b90d .LASF4286
C:\Users\CYMR90~1\AppData\Local\Temp\ccLNaGfc.s:27689  .debug_str:0000000000017a60 .LASF4287
C:\Users\CYMR90~1\AppData\Local\Temp\ccLNaGfc.s:28835  .debug_str:000000000001c4fe .LASF4288
C:\Users\CYMR90~1\AppData\Local\Temp\ccLNaGfc.s:26492  .debug_str:0000000000012c7a .LASF4289
C:\Users\CYMR90~1\AppData\Local\Temp\ccLNaGfc.s:30035  .debug_str:0000000000021058 .LASF4290
C:\Users\CYMR90~1\AppData\Local\Temp\ccLNaGfc.s:24604  .debug_str:000000000000b439 .LASF4291
C:\Users\CYMR90~1\AppData\Local\Temp\ccLNaGfc.s:22220  .debug_str:0000000000001bf9 .LASF4292
C:\Users\CYMR90~1\AppData\Local\Temp\ccLNaGfc.s:27186  .debug_str:0000000000015860 .LASF4293
C:\Users\CYMR90~1\AppData\Local\Temp\ccLNaGfc.s:26538  .debug_str:0000000000012f6e .LASF4294
C:\Users\CYMR90~1\AppData\Local\Temp\ccLNaGfc.s:32839  .debug_str:000000000002c098 .LASF4295
C:\Users\CYMR90~1\AppData\Local\Temp\ccLNaGfc.s:28141  .debug_str:0000000000019701 .LASF4296
C:\Users\CYMR90~1\AppData\Local\Temp\ccLNaGfc.s:27687  .debug_str:0000000000017a48 .LASF4297
C:\Users\CYMR90~1\AppData\Local\Temp\ccLNaGfc.s:29169  .debug_str:000000000001dbab .LASF4298
C:\Users\CYMR90~1\AppData\Local\Temp\ccLNaGfc.s:30849  .debug_str:000000000002413e .LASF4299
C:\Users\CYMR90~1\AppData\Local\Temp\ccLNaGfc.s:23170  .debug_str:00000000000058d6 .LASF4300
C:\Users\CYMR90~1\AppData\Local\Temp\ccLNaGfc.s:22114  .debug_str:000000000000146d .LASF4301
C:\Users\CYMR90~1\AppData\Local\Temp\ccLNaGfc.s:29493  .debug_str:000000000001ef99 .LASF4302
C:\Users\CYMR90~1\AppData\Local\Temp\ccLNaGfc.s:30227  .debug_str:0000000000021c35 .LASF4303
C:\Users\CYMR90~1\AppData\Local\Temp\ccLNaGfc.s:32407  .debug_str:000000000002a574 .LASF4304
C:\Users\CYMR90~1\AppData\Local\Temp\ccLNaGfc.s:26212  .debug_str:000000000001197a .LASF4305
C:\Users\CYMR90~1\AppData\Local\Temp\ccLNaGfc.s:32061  .debug_str:000000000002905d .LASF4306
C:\Users\CYMR90~1\AppData\Local\Temp\ccLNaGfc.s:26980  .debug_str:0000000000014b79 .LASF4307
C:\Users\CYMR90~1\AppData\Local\Temp\ccLNaGfc.s:24566  .debug_str:000000000000b20f .LASF4308
C:\Users\CYMR90~1\AppData\Local\Temp\ccLNaGfc.s:30001  .debug_str:0000000000020e47 .LASF4309
C:\Users\CYMR90~1\AppData\Local\Temp\ccLNaGfc.s:23996  .debug_str:0000000000008dc2 .LASF4310
C:\Users\CYMR90~1\AppData\Local\Temp\ccLNaGfc.s:27603  .debug_str:000000000001755b .LASF4311
C:\Users\CYMR90~1\AppData\Local\Temp\ccLNaGfc.s:28225  .debug_str:0000000000019ce0 .LASF4312
C:\Users\CYMR90~1\AppData\Local\Temp\ccLNaGfc.s:31639  .debug_str:0000000000027444 .LASF4313
C:\Users\CYMR90~1\AppData\Local\Temp\ccLNaGfc.s:23654  .debug_str:00000000000076bf .LASF4314
C:\Users\CYMR90~1\AppData\Local\Temp\ccLNaGfc.s:29393  .debug_str:000000000001e968 .LASF4315
C:\Users\CYMR90~1\AppData\Local\Temp\ccLNaGfc.s:24980  .debug_str:000000000000cd46 .LASF4316
C:\Users\CYMR90~1\AppData\Local\Temp\ccLNaGfc.s:26792  .debug_str:0000000000013fae .LASF4317
C:\Users\CYMR90~1\AppData\Local\Temp\ccLNaGfc.s:29219  .debug_str:000000000001deb6 .LASF4318
C:\Users\CYMR90~1\AppData\Local\Temp\ccLNaGfc.s:26564  .debug_str:000000000001311a .LASF4319
C:\Users\CYMR90~1\AppData\Local\Temp\ccLNaGfc.s:30069  .debug_str:0000000000021276 .LASF4320
C:\Users\CYMR90~1\AppData\Local\Temp\ccLNaGfc.s:25530  .debug_str:000000000000ef62 .LASF4321
C:\Users\CYMR90~1\AppData\Local\Temp\ccLNaGfc.s:29167  .debug_str:000000000001db96 .LASF4322
C:\Users\CYMR90~1\AppData\Local\Temp\ccLNaGfc.s:22522  .debug_str:0000000000002ee8 .LASF4323
C:\Users\CYMR90~1\AppData\Local\Temp\ccLNaGfc.s:22304  .debug_str:0000000000002126 .LASF4324
C:\Users\CYMR90~1\AppData\Local\Temp\ccLNaGfc.s:28877  .debug_str:000000000001c7ac .LASF4325
C:\Users\CYMR90~1\AppData\Local\Temp\ccLNaGfc.s:23910  .debug_str:00000000000087ce .LASF4326
C:\Users\CYMR90~1\AppData\Local\Temp\ccLNaGfc.s:32537  .debug_str:000000000002ad59 .LASF4327
C:\Users\CYMR90~1\AppData\Local\Temp\ccLNaGfc.s:23760  .debug_str:0000000000007d58 .LASF4328
C:\Users\CYMR90~1\AppData\Local\Temp\ccLNaGfc.s:21880  .debug_str:000000000000058f .LASF4329
C:\Users\CYMR90~1\AppData\Local\Temp\ccLNaGfc.s:26808  .debug_str:00000000000140b1 .LASF4330
C:\Users\CYMR90~1\AppData\Local\Temp\ccLNaGfc.s:27921  .debug_str:00000000000188a5 .LASF4331
C:\Users\CYMR90~1\AppData\Local\Temp\ccLNaGfc.s:25638  .debug_str:000000000000f5e1 .LASF4332
C:\Users\CYMR90~1\AppData\Local\Temp\ccLNaGfc.s:30665  .debug_str:0000000000023611 .LASF4333
C:\Users\CYMR90~1\AppData\Local\Temp\ccLNaGfc.s:32355  .debug_str:000000000002a2a5 .LASF4334
C:\Users\CYMR90~1\AppData\Local\Temp\ccLNaGfc.s:24832  .debug_str:000000000000c3c7 .LASF4335
C:\Users\CYMR90~1\AppData\Local\Temp\ccLNaGfc.s:23358  .debug_str:000000000000642b .LASF4336
C:\Users\CYMR90~1\AppData\Local\Temp\ccLNaGfc.s:22988  .debug_str:0000000000004d9f .LASF4337
C:\Users\CYMR90~1\AppData\Local\Temp\ccLNaGfc.s:31403  .debug_str:000000000002662c .LASF4338
C:\Users\CYMR90~1\AppData\Local\Temp\ccLNaGfc.s:25232  .debug_str:000000000000dd28 .LASF4339
C:\Users\CYMR90~1\AppData\Local\Temp\ccLNaGfc.s:26648  .debug_str:00000000000136ee .LASF4340
C:\Users\CYMR90~1\AppData\Local\Temp\ccLNaGfc.s:23972  .debug_str:0000000000008c58 .LASF4341
C:\Users\CYMR90~1\AppData\Local\Temp\ccLNaGfc.s:27194  .debug_str:00000000000158d6 .LASF4342
C:\Users\CYMR90~1\AppData\Local\Temp\ccLNaGfc.s:31191  .debug_str:0000000000025844 .LASF4343
C:\Users\CYMR90~1\AppData\Local\Temp\ccLNaGfc.s:22406  .debug_str:00000000000026e7 .LASF4344
C:\Users\CYMR90~1\AppData\Local\Temp\ccLNaGfc.s:25578  .debug_str:000000000000f21e .LASF4345
C:\Users\CYMR90~1\AppData\Local\Temp\ccLNaGfc.s:31173  .debug_str:0000000000025690 .LASF4346
C:\Users\CYMR90~1\AppData\Local\Temp\ccLNaGfc.s:26044  .debug_str:0000000000010fc5 .LASF4347
C:\Users\CYMR90~1\AppData\Local\Temp\ccLNaGfc.s:24722  .debug_str:000000000000bc30 .LASF4348
C:\Users\CYMR90~1\AppData\Local\Temp\ccLNaGfc.s:29763  .debug_str:0000000000020016 .LASF4349
C:\Users\CYMR90~1\AppData\Local\Temp\ccLNaGfc.s:24508  .debug_str:000000000000ad96 .LASF4350
C:\Users\CYMR90~1\AppData\Local\Temp\ccLNaGfc.s:26456  .debug_str:0000000000012a1d .LASF4351
C:\Users\CYMR90~1\AppData\Local\Temp\ccLNaGfc.s:22400  .debug_str:000000000000269a .LASF4352
C:\Users\CYMR90~1\AppData\Local\Temp\ccLNaGfc.s:29115  .debug_str:000000000001d7ef .LASF4353
C:\Users\CYMR90~1\AppData\Local\Temp\ccLNaGfc.s:24956  .debug_str:000000000000cbee .LASF4354
C:\Users\CYMR90~1\AppData\Local\Temp\ccLNaGfc.s:32521  .debug_str:000000000002ac74 .LASF4355
C:\Users\CYMR90~1\AppData\Local\Temp\ccLNaGfc.s:27126  .debug_str:000000000001550d .LASF4356
C:\Users\CYMR90~1\AppData\Local\Temp\ccLNaGfc.s:21912  .debug_str:0000000000000793 .LASF4357
C:\Users\CYMR90~1\AppData\Local\Temp\ccLNaGfc.s:32195  .debug_str:00000000000298db .LASF4358
C:\Users\CYMR90~1\AppData\Local\Temp\ccLNaGfc.s:27438  .debug_str:00000000000168ad .LASF4359
C:\Users\CYMR90~1\AppData\Local\Temp\ccLNaGfc.s:28111  .debug_str:0000000000019527 .LASF4360
C:\Users\CYMR90~1\AppData\Local\Temp\ccLNaGfc.s:23168  .debug_str:00000000000058bd .LASF4361
C:\Users\CYMR90~1\AppData\Local\Temp\ccLNaGfc.s:26864  .debug_str:0000000000014423 .LASF4362
C:\Users\CYMR90~1\AppData\Local\Temp\ccLNaGfc.s:25820  .debug_str:00000000000101a4 .LASF4363
C:\Users\CYMR90~1\AppData\Local\Temp\ccLNaGfc.s:29017  .debug_str:000000000001d0df .LASF4364
C:\Users\CYMR90~1\AppData\Local\Temp\ccLNaGfc.s:30347  .debug_str:0000000000022398 .LASF4365
C:\Users\CYMR90~1\AppData\Local\Temp\ccLNaGfc.s:25184  .debug_str:000000000000da63 .LASF4366
C:\Users\CYMR90~1\AppData\Local\Temp\ccLNaGfc.s:32681  .debug_str:000000000002b61f .LASF4367
C:\Users\CYMR90~1\AppData\Local\Temp\ccLNaGfc.s:24740  .debug_str:000000000000bd88 .LASF4368
C:\Users\CYMR90~1\AppData\Local\Temp\ccLNaGfc.s:29949  .debug_str:0000000000020b51 .LASF4369
C:\Users\CYMR90~1\AppData\Local\Temp\ccLNaGfc.s:27300  .debug_str:0000000000015f7e .LASF4370
C:\Users\CYMR90~1\AppData\Local\Temp\ccLNaGfc.s:30805  .debug_str:0000000000023ea3 .LASF4371
C:\Users\CYMR90~1\AppData\Local\Temp\ccLNaGfc.s:32653  .debug_str:000000000002b43f .LASF4372
C:\Users\CYMR90~1\AppData\Local\Temp\ccLNaGfc.s:30147  .debug_str:00000000000216c5 .LASF4373
C:\Users\CYMR90~1\AppData\Local\Temp\ccLNaGfc.s:30495  .debug_str:0000000000022bf5 .LASF4374
C:\Users\CYMR90~1\AppData\Local\Temp\ccLNaGfc.s:27426  .debug_str:0000000000016800 .LASF4375
C:\Users\CYMR90~1\AppData\Local\Temp\ccLNaGfc.s:23956  .debug_str:0000000000008b5f .LASF4376
C:\Users\CYMR90~1\AppData\Local\Temp\ccLNaGfc.s:31229  .debug_str:0000000000025ab6 .LASF4377
C:\Users\CYMR90~1\AppData\Local\Temp\ccLNaGfc.s:28431  .debug_str:000000000001ab50 .LASF4378
C:\Users\CYMR90~1\AppData\Local\Temp\ccLNaGfc.s:22018  .debug_str:0000000000000e6c .LASF4379
C:\Users\CYMR90~1\AppData\Local\Temp\ccLNaGfc.s:30469  .debug_str:0000000000022a56 .LASF4380
C:\Users\CYMR90~1\AppData\Local\Temp\ccLNaGfc.s:32179  .debug_str:00000000000297db .LASF4381
C:\Users\CYMR90~1\AppData\Local\Temp\ccLNaGfc.s:22482  .debug_str:0000000000002c23 .LASF4382
C:\Users\CYMR90~1\AppData\Local\Temp\ccLNaGfc.s:25508  .debug_str:000000000000ee44 .LASF4383
C:\Users\CYMR90~1\AppData\Local\Temp\ccLNaGfc.s:29471  .debug_str:000000000001ee54 .LASF4384
C:\Users\CYMR90~1\AppData\Local\Temp\ccLNaGfc.s:22712  .debug_str:0000000000003af9 .LASF4385
C:\Users\CYMR90~1\AppData\Local\Temp\ccLNaGfc.s:26768  .debug_str:0000000000013e6d .LASF4386
C:\Users\CYMR90~1\AppData\Local\Temp\ccLNaGfc.s:31141  .debug_str:0000000000025427 .LASF4387
C:\Users\CYMR90~1\AppData\Local\Temp\ccLNaGfc.s:25774  .debug_str:000000000000fe81 .LASF4388
C:\Users\CYMR90~1\AppData\Local\Temp\ccLNaGfc.s:26774  .debug_str:0000000000013eb1 .LASF4389
C:\Users\CYMR90~1\AppData\Local\Temp\ccLNaGfc.s:23288  .debug_str:0000000000005fe5 .LASF4390
C:\Users\CYMR90~1\AppData\Local\Temp\ccLNaGfc.s:22876  .debug_str:00000000000045c5 .LASF4391
C:\Users\CYMR90~1\AppData\Local\Temp\ccLNaGfc.s:30263  .debug_str:0000000000021e78 .LASF4392
C:\Users\CYMR90~1\AppData\Local\Temp\ccLNaGfc.s:22718  .debug_str:0000000000003b59 .LASF4393
C:\Users\CYMR90~1\AppData\Local\Temp\ccLNaGfc.s:22962  .debug_str:0000000000004c0e .LASF4394
C:\Users\CYMR90~1\AppData\Local\Temp\ccLNaGfc.s:29491  .debug_str:000000000001ef7f .LASF4395
C:\Users\CYMR90~1\AppData\Local\Temp\ccLNaGfc.s:31459  .debug_str:000000000002693c .LASF4396
C:\Users\CYMR90~1\AppData\Local\Temp\ccLNaGfc.s:32641  .debug_str:000000000002b395 .LASF4397
C:\Users\CYMR90~1\AppData\Local\Temp\ccLNaGfc.s:31381  .debug_str:00000000000264e6 .LASF4398
C:\Users\CYMR90~1\AppData\Local\Temp\ccLNaGfc.s:22166  .debug_str:0000000000001803 .LASF4399
C:\Users\CYMR90~1\AppData\Local\Temp\ccLNaGfc.s:29359  .debug_str:000000000001e76d .LASF4400
C:\Users\CYMR90~1\AppData\Local\Temp\ccLNaGfc.s:31687  .debug_str:00000000000277f6 .LASF4401
C:\Users\CYMR90~1\AppData\Local\Temp\ccLNaGfc.s:24412  .debug_str:000000000000a7f7 .LASF4402
C:\Users\CYMR90~1\AppData\Local\Temp\ccLNaGfc.s:32995  .debug_str:000000000002caf7 .LASF4403
C:\Users\CYMR90~1\AppData\Local\Temp\ccLNaGfc.s:32343  .debug_str:000000000002a202 .LASF4404
C:\Users\CYMR90~1\AppData\Local\Temp\ccLNaGfc.s:23766  .debug_str:0000000000007db2 .LASF4405
C:\Users\CYMR90~1\AppData\Local\Temp\ccLNaGfc.s:22856  .debug_str:00000000000044b0 .LASF4406
C:\Users\CYMR90~1\AppData\Local\Temp\ccLNaGfc.s:31543  .debug_str:0000000000026e8d .LASF4407
C:\Users\CYMR90~1\AppData\Local\Temp\ccLNaGfc.s:28895  .debug_str:000000000001c89f .LASF4408
C:\Users\CYMR90~1\AppData\Local\Temp\ccLNaGfc.s:31517  .debug_str:0000000000026cf9 .LASF4409
C:\Users\CYMR90~1\AppData\Local\Temp\ccLNaGfc.s:26802  .debug_str:0000000000014051 .LASF4410
C:\Users\CYMR90~1\AppData\Local\Temp\ccLNaGfc.s:25712  .debug_str:000000000000faee .LASF4411
C:\Users\CYMR90~1\AppData\Local\Temp\ccLNaGfc.s:29461  .debug_str:000000000001edc6 .LASF4412
C:\Users\CYMR90~1\AppData\Local\Temp\ccLNaGfc.s:23222  .debug_str:0000000000005c25 .LASF4413
C:\Users\CYMR90~1\AppData\Local\Temp\ccLNaGfc.s:30685  .debug_str:0000000000023714 .LASF4414
C:\Users\CYMR90~1\AppData\Local\Temp\ccLNaGfc.s:28045  .debug_str:0000000000019087 .LASF4415
C:\Users\CYMR90~1\AppData\Local\Temp\ccLNaGfc.s:22370  .debug_str:00000000000024cd .LASF4416
C:\Users\CYMR90~1\AppData\Local\Temp\ccLNaGfc.s:22570  .debug_str:00000000000031bc .LASF4417
C:\Users\CYMR90~1\AppData\Local\Temp\ccLNaGfc.s:31343  .debug_str:0000000000026256 .LASF4418
C:\Users\CYMR90~1\AppData\Local\Temp\ccLNaGfc.s:27202  .debug_str:0000000000015942 .LASF4419
C:\Users\CYMR90~1\AppData\Local\Temp\ccLNaGfc.s:33145  .debug_str:000000000002d4f2 .LASF4420
C:\Users\CYMR90~1\AppData\Local\Temp\ccLNaGfc.s:24076  .debug_str:00000000000092d8 .LASF4421
C:\Users\CYMR90~1\AppData\Local\Temp\ccLNaGfc.s:31931  .debug_str:000000000002883f .LASF4422
C:\Users\CYMR90~1\AppData\Local\Temp\ccLNaGfc.s:33143  .debug_str:000000000002d4b9 .LASF4423
C:\Users\CYMR90~1\AppData\Local\Temp\ccLNaGfc.s:29289  .debug_str:000000000001e34c .LASF4424
C:\Users\CYMR90~1\AppData\Local\Temp\ccLNaGfc.s:23536  .debug_str:0000000000006ef7 .LASF4425
C:\Users\CYMR90~1\AppData\Local\Temp\ccLNaGfc.s:23002  .debug_str:0000000000004e9b .LASF4426
C:\Users\CYMR90~1\AppData\Local\Temp\ccLNaGfc.s:27551  .debug_str:000000000001722d .LASF4427
C:\Users\CYMR90~1\AppData\Local\Temp\ccLNaGfc.s:32781  .debug_str:000000000002bcf3 .LASF4428
C:\Users\CYMR90~1\AppData\Local\Temp\ccLNaGfc.s:26586  .debug_str:0000000000013286 .LASF4429
C:\Users\CYMR90~1\AppData\Local\Temp\ccLNaGfc.s:32409  .debug_str:000000000002a58d .LASF4430
C:\Users\CYMR90~1\AppData\Local\Temp\ccLNaGfc.s:31491  .debug_str:0000000000026b50 .LASF4431
C:\Users\CYMR90~1\AppData\Local\Temp\ccLNaGfc.s:25788  .debug_str:000000000000ff6a .LASF4432
C:\Users\CYMR90~1\AppData\Local\Temp\ccLNaGfc.s:32241  .debug_str:0000000000029c0d .LASF4433
C:\Users\CYMR90~1\AppData\Local\Temp\ccLNaGfc.s:28799  .debug_str:000000000001c2c5 .LASF4434
C:\Users\CYMR90~1\AppData\Local\Temp\ccLNaGfc.s:28255  .debug_str:0000000000019eaf .LASF4435
C:\Users\CYMR90~1\AppData\Local\Temp\ccLNaGfc.s:23822  .debug_str:0000000000008261 .LASF4436
C:\Users\CYMR90~1\AppData\Local\Temp\ccLNaGfc.s:28983  .debug_str:000000000001ce88 .LASF4437
C:\Users\CYMR90~1\AppData\Local\Temp\ccLNaGfc.s:28567  .debug_str:000000000001b40f .LASF4438
C:\Users\CYMR90~1\AppData\Local\Temp\ccLNaGfc.s:30539  .debug_str:0000000000022eb6 .LASF4439
C:\Users\CYMR90~1\AppData\Local\Temp\ccLNaGfc.s:31443  .debug_str:0000000000026848 .LASF4440
C:\Users\CYMR90~1\AppData\Local\Temp\ccLNaGfc.s:22280  .debug_str:0000000000001f9f .LASF4441
C:\Users\CYMR90~1\AppData\Local\Temp\ccLNaGfc.s:27374  .debug_str:000000000001645b .LASF4442
C:\Users\CYMR90~1\AppData\Local\Temp\ccLNaGfc.s:22584  .debug_str:00000000000032c2 .LASF4443
C:\Users\CYMR90~1\AppData\Local\Temp\ccLNaGfc.s:29779  .debug_str:0000000000020105 .LASF4444
C:\Users\CYMR90~1\AppData\Local\Temp\ccLNaGfc.s:28965  .debug_str:000000000001cd87 .LASF4445
C:\Users\CYMR90~1\AppData\Local\Temp\ccLNaGfc.s:22076  .debug_str:0000000000001240 .LASF4446
C:\Users\CYMR90~1\AppData\Local\Temp\ccLNaGfc.s:31171  .debug_str:0000000000025653 .LASF4447
C:\Users\CYMR90~1\AppData\Local\Temp\ccLNaGfc.s:23932  .debug_str:00000000000088f7 .LASF4448
C:\Users\CYMR90~1\AppData\Local\Temp\ccLNaGfc.s:29087  .debug_str:000000000001d64f .LASF4449
C:\Users\CYMR90~1\AppData\Local\Temp\ccLNaGfc.s:29105  .debug_str:000000000001d757 .LASF4450
C:\Users\CYMR90~1\AppData\Local\Temp\ccLNaGfc.s:30091  .debug_str:00000000000213a5 .LASF4451
C:\Users\CYMR90~1\AppData\Local\Temp\ccLNaGfc.s:28507  .debug_str:000000000001b01a .LASF4452
C:\Users\CYMR90~1\AppData\Local\Temp\ccLNaGfc.s:23258  .debug_str:0000000000005e4e .LASF4453
C:\Users\CYMR90~1\AppData\Local\Temp\ccLNaGfc.s:31893  .debug_str:000000000002854f .LASF4454
C:\Users\CYMR90~1\AppData\Local\Temp\ccLNaGfc.s:30811  .debug_str:0000000000023f1f .LASF4455
C:\Users\CYMR90~1\AppData\Local\Temp\ccLNaGfc.s:27096  .debug_str:0000000000015316 .LASF4456
C:\Users\CYMR90~1\AppData\Local\Temp\ccLNaGfc.s:33099  .debug_str:000000000002d222 .LASF4457
C:\Users\CYMR90~1\AppData\Local\Temp\ccLNaGfc.s:22546  .debug_str:0000000000003040 .LASF4458
C:\Users\CYMR90~1\AppData\Local\Temp\ccLNaGfc.s:21814  .debug_str:00000000000001bb .LASF4459
C:\Users\CYMR90~1\AppData\Local\Temp\ccLNaGfc.s:28207  .debug_str:0000000000019ba0 .LASF4460
C:\Users\CYMR90~1\AppData\Local\Temp\ccLNaGfc.s:25990  .debug_str:0000000000010bed .LASF4461
C:\Users\CYMR90~1\AppData\Local\Temp\ccLNaGfc.s:22874  .debug_str:00000000000045ad .LASF4462
C:\Users\CYMR90~1\AppData\Local\Temp\ccLNaGfc.s:28147  .debug_str:0000000000019768 .LASF4463
C:\Users\CYMR90~1\AppData\Local\Temp\ccLNaGfc.s:24818  .debug_str:000000000000c2e8 .LASF4464
C:\Users\CYMR90~1\AppData\Local\Temp\ccLNaGfc.s:21840  .debug_str:000000000000034a .LASF4465
C:\Users\CYMR90~1\AppData\Local\Temp\ccLNaGfc.s:23092  .debug_str:00000000000053f6 .LASF4466
C:\Users\CYMR90~1\AppData\Local\Temp\ccLNaGfc.s:32161  .debug_str:000000000002964c .LASF4467
C:\Users\CYMR90~1\AppData\Local\Temp\ccLNaGfc.s:22902  .debug_str:0000000000004792 .LASF4468
C:\Users\CYMR90~1\AppData\Local\Temp\ccLNaGfc.s:24558  .debug_str:000000000000b0df .LASF4469
C:\Users\CYMR90~1\AppData\Local\Temp\ccLNaGfc.s:21860  .debug_str:0000000000000486 .LASF4470
C:\Users\CYMR90~1\AppData\Local\Temp\ccLNaGfc.s:29449  .debug_str:000000000001ed04 .LASF4471
C:\Users\CYMR90~1\AppData\Local\Temp\ccLNaGfc.s:27563  .debug_str:00000000000172f8 .LASF4472
C:\Users\CYMR90~1\AppData\Local\Temp\ccLNaGfc.s:22420  .debug_str:00000000000027f2 .LASF4473
C:\Users\CYMR90~1\AppData\Local\Temp\ccLNaGfc.s:31611  .debug_str:0000000000027290 .LASF4474
C:\Users\CYMR90~1\AppData\Local\Temp\ccLNaGfc.s:32951  .debug_str:000000000002c85e .LASF4475
C:\Users\CYMR90~1\AppData\Local\Temp\ccLNaGfc.s:29913  .debug_str:000000000002089d .LASF4476
C:\Users\CYMR90~1\AppData\Local\Temp\ccLNaGfc.s:24896  .debug_str:000000000000c769 .LASF4477
C:\Users\CYMR90~1\AppData\Local\Temp\ccLNaGfc.s:22732  .debug_str:0000000000003c64 .LASF4478
C:\Users\CYMR90~1\AppData\Local\Temp\ccLNaGfc.s:24798  .debug_str:000000000000c19c .LASF4479
C:\Users\CYMR90~1\AppData\Local\Temp\ccLNaGfc.s:30537  .debug_str:0000000000022e98 .LASF4480
C:\Users\CYMR90~1\AppData\Local\Temp\ccLNaGfc.s:32051  .debug_str:0000000000028fc6 .LASF4481
C:\Users\CYMR90~1\AppData\Local\Temp\ccLNaGfc.s:23304  .debug_str:00000000000060e7 .LASF4482
C:\Users\CYMR90~1\AppData\Local\Temp\ccLNaGfc.s:26106  .debug_str:0000000000011302 .LASF4483
C:\Users\CYMR90~1\AppData\Local\Temp\ccLNaGfc.s:25276  .debug_str:000000000000dfc5 .LASF4484
C:\Users\CYMR90~1\AppData\Local\Temp\ccLNaGfc.s:22954  .debug_str:0000000000004b96 .LASF4485
C:\Users\CYMR90~1\AppData\Local\Temp\ccLNaGfc.s:24226  .debug_str:0000000000009c41 .LASF4486
C:\Users\CYMR90~1\AppData\Local\Temp\ccLNaGfc.s:26764  .debug_str:0000000000013e0d .LASF4487
C:\Users\CYMR90~1\AppData\Local\Temp\ccLNaGfc.s:22770  .debug_str:0000000000003e82 .LASF4488
C:\Users\CYMR90~1\AppData\Local\Temp\ccLNaGfc.s:23530  .debug_str:0000000000006e88 .LASF4489
C:\Users\CYMR90~1\AppData\Local\Temp\ccLNaGfc.s:21790  .debug_str:000000000000002e .LASF4490
C:\Users\CYMR90~1\AppData\Local\Temp\ccLNaGfc.s:26090  .debug_str:000000000001121f .LASF4491
C:\Users\CYMR90~1\AppData\Local\Temp\ccLNaGfc.s:28463  .debug_str:000000000001ad27 .LASF4492
C:\Users\CYMR90~1\AppData\Local\Temp\ccLNaGfc.s:27506  .debug_str:0000000000016db0 .LASF4493
C:\Users\CYMR90~1\AppData\Local\Temp\ccLNaGfc.s:32883  .debug_str:000000000002c3d4 .LASF4494
C:\Users\CYMR90~1\AppData\Local\Temp\ccLNaGfc.s:31035  .debug_str:0000000000024da6 .LASF4495
C:\Users\CYMR90~1\AppData\Local\Temp\ccLNaGfc.s:25376  .debug_str:000000000000e579 .LASF4496
C:\Users\CYMR90~1\AppData\Local\Temp\ccLNaGfc.s:29581  .debug_str:000000000001f4bd .LASF4497
C:\Users\CYMR90~1\AppData\Local\Temp\ccLNaGfc.s:27030  .debug_str:0000000000014e7b .LASF4498
C:\Users\CYMR90~1\AppData\Local\Temp\ccLNaGfc.s:32229  .debug_str:0000000000029b26 .LASF4499
C:\Users\CYMR90~1\AppData\Local\Temp\ccLNaGfc.s:28069  .debug_str:00000000000191b5 .LASF4500
C:\Users\CYMR90~1\AppData\Local\Temp\ccLNaGfc.s:26614  .debug_str:000000000001344d .LASF4501
C:\Users\CYMR90~1\AppData\Local\Temp\ccLNaGfc.s:22412  .debug_str:000000000000272d .LASF4502
C:\Users\CYMR90~1\AppData\Local\Temp\ccLNaGfc.s:29561  .debug_str:000000000001f394 .LASF4503
C:\Users\CYMR90~1\AppData\Local\Temp\ccLNaGfc.s:24404  .debug_str:000000000000a75f .LASF4504
C:\Users\CYMR90~1\AppData\Local\Temp\ccLNaGfc.s:21916  .debug_str:00000000000007c7 .LASF4505
C:\Users\CYMR90~1\AppData\Local\Temp\ccLNaGfc.s:28479  .debug_str:000000000001ae51 .LASF4506
C:\Users\CYMR90~1\AppData\Local\Temp\ccLNaGfc.s:31817  .debug_str:0000000000027ff1 .LASF4507
C:\Users\CYMR90~1\AppData\Local\Temp\ccLNaGfc.s:27168  .debug_str:0000000000015734 .LASF4508
C:\Users\CYMR90~1\AppData\Local\Temp\ccLNaGfc.s:28131  .debug_str:0000000000019634 .LASF4509
C:\Users\CYMR90~1\AppData\Local\Temp\ccLNaGfc.s:24790  .debug_str:000000000000c114 .LASF4510
C:\Users\CYMR90~1\AppData\Local\Temp\ccLNaGfc.s:28185  .debug_str:00000000000199a8 .LASF4511
C:\Users\CYMR90~1\AppData\Local\Temp\ccLNaGfc.s:30149  .debug_str:00000000000216dd .LASF4512
C:\Users\CYMR90~1\AppData\Local\Temp\ccLNaGfc.s:28209  .debug_str:0000000000019bdb .LASF4513
C:\Users\CYMR90~1\AppData\Local\Temp\ccLNaGfc.s:28861  .debug_str:000000000001c69e .LASF4514
C:\Users\CYMR90~1\AppData\Local\Temp\ccLNaGfc.s:24452  .debug_str:000000000000a9f9 .LASF4515
C:\Users\CYMR90~1\AppData\Local\Temp\ccLNaGfc.s:25144  .debug_str:000000000000d828 .LASF4516
C:\Users\CYMR90~1\AppData\Local\Temp\ccLNaGfc.s:29985  .debug_str:0000000000020d38 .LASF4517
C:\Users\CYMR90~1\AppData\Local\Temp\ccLNaGfc.s:29575  .debug_str:000000000001f454 .LASF4518
C:\Users\CYMR90~1\AppData\Local\Temp\ccLNaGfc.s:25274  .debug_str:000000000000df89 .LASF4519
C:\Users\CYMR90~1\AppData\Local\Temp\ccLNaGfc.s:28587  .debug_str:000000000001b584 .LASF4520
C:\Users\CYMR90~1\AppData\Local\Temp\ccLNaGfc.s:32459  .debug_str:000000000002a880 .LASF4521
C:\Users\CYMR90~1\AppData\Local\Temp\ccLNaGfc.s:26010  .debug_str:0000000000010d48 .LASF4522
C:\Users\CYMR90~1\AppData\Local\Temp\ccLNaGfc.s:26734  .debug_str:0000000000013c15 .LASF4523
C:\Users\CYMR90~1\AppData\Local\Temp\ccLNaGfc.s:30435  .debug_str:0000000000022898 .LASF4524
C:\Users\CYMR90~1\AppData\Local\Temp\ccLNaGfc.s:32563  .debug_str:000000000002aec6 .LASF4525
C:\Users\CYMR90~1\AppData\Local\Temp\ccLNaGfc.s:25790  .debug_str:000000000000ff96 .LASF4526
C:\Users\CYMR90~1\AppData\Local\Temp\ccLNaGfc.s:30499  .debug_str:0000000000022c33 .LASF4527
C:\Users\CYMR90~1\AppData\Local\Temp\ccLNaGfc.s:32799  .debug_str:000000000002be04 .LASF4528
C:\Users\CYMR90~1\AppData\Local\Temp\ccLNaGfc.s:30989  .debug_str:0000000000024a00 .LASF4529
C:\Users\CYMR90~1\AppData\Local\Temp\ccLNaGfc.s:27442  .debug_str:00000000000168ea .LASF4530
C:\Users\CYMR90~1\AppData\Local\Temp\ccLNaGfc.s:28945  .debug_str:000000000001cc1d .LASF4531
C:\Users\CYMR90~1\AppData\Local\Temp\ccLNaGfc.s:28235  .debug_str:0000000000019d6a .LASF4532
C:\Users\CYMR90~1\AppData\Local\Temp\ccLNaGfc.s:25926  .debug_str:0000000000010825 .LASF4533
C:\Users\CYMR90~1\AppData\Local\Temp\ccLNaGfc.s:26366  .debug_str:000000000001244d .LASF4534
C:\Users\CYMR90~1\AppData\Local\Temp\ccLNaGfc.s:22644  .debug_str:00000000000036bb .LASF4535
C:\Users\CYMR90~1\AppData\Local\Temp\ccLNaGfc.s:25028  .debug_str:000000000000cffb .LASF4536
C:\Users\CYMR90~1\AppData\Local\Temp\ccLNaGfc.s:26420  .debug_str:00000000000127c3 .LASF4537
C:\Users\CYMR90~1\AppData\Local\Temp\ccLNaGfc.s:29427  .debug_str:000000000001eb52 .LASF4538
C:\Users\CYMR90~1\AppData\Local\Temp\ccLNaGfc.s:25396  .debug_str:000000000000e6c9 .LASF4539
C:\Users\CYMR90~1\AppData\Local\Temp\ccLNaGfc.s:28337  .debug_str:000000000001a382 .LASF4540
C:\Users\CYMR90~1\AppData\Local\Temp\ccLNaGfc.s:22004  .debug_str:0000000000000d7a .LASF4541
C:\Users\CYMR90~1\AppData\Local\Temp\ccLNaGfc.s:31821  .debug_str:000000000002803e .LASF4542
C:\Users\CYMR90~1\AppData\Local\Temp\ccLNaGfc.s:33059  .debug_str:000000000002cf4b .LASF4543
C:\Users\CYMR90~1\AppData\Local\Temp\ccLNaGfc.s:25170  .debug_str:000000000000d997 .LASF4544
C:\Users\CYMR90~1\AppData\Local\Temp\ccLNaGfc.s:27859  .debug_str:00000000000184f5 .LASF4545
C:\Users\CYMR90~1\AppData\Local\Temp\ccLNaGfc.s:26968  .debug_str:0000000000014ac8 .LASF4546
C:\Users\CYMR90~1\AppData\Local\Temp\ccLNaGfc.s:22886  .debug_str:000000000000467f .LASF4547
C:\Users\CYMR90~1\AppData\Local\Temp\ccLNaGfc.s:27314  .debug_str:0000000000016074 .LASF4548
C:\Users\CYMR90~1\AppData\Local\Temp\ccLNaGfc.s:32527  .debug_str:000000000002accc .LASF4549
C:\Users\CYMR90~1\AppData\Local\Temp\ccLNaGfc.s:30055  .debug_str:000000000002118a .LASF4550
C:\Users\CYMR90~1\AppData\Local\Temp\ccLNaGfc.s:32529  .debug_str:000000000002acea .LASF4551
C:\Users\CYMR90~1\AppData\Local\Temp\ccLNaGfc.s:28881  .debug_str:000000000001c7da .LASF4552
C:\Users\CYMR90~1\AppData\Local\Temp\ccLNaGfc.s:22102  .debug_str:000000000000139a .LASF4553
C:\Users\CYMR90~1\AppData\Local\Temp\ccLNaGfc.s:31247  .debug_str:0000000000025bc8 .LASF4554
C:\Users\CYMR90~1\AppData\Local\Temp\ccLNaGfc.s:28781  .debug_str:000000000001c190 .LASF4555
C:\Users\CYMR90~1\AppData\Local\Temp\ccLNaGfc.s:23298  .debug_str:000000000000607f .LASF4556
C:\Users\CYMR90~1\AppData\Local\Temp\ccLNaGfc.s:25402  .debug_str:000000000000e717 .LASF4557
C:\Users\CYMR90~1\AppData\Local\Temp\ccLNaGfc.s:29925  .debug_str:000000000002094f .LASF4558
C:\Users\CYMR90~1\AppData\Local\Temp\ccLNaGfc.s:26552  .debug_str:0000000000013050 .LASF4559
C:\Users\CYMR90~1\AppData\Local\Temp\ccLNaGfc.s:31623  .debug_str:0000000000027362 .LASF4560
C:\Users\CYMR90~1\AppData\Local\Temp\ccLNaGfc.s:27082  .debug_str:0000000000015223 .LASF4561
C:\Users\CYMR90~1\AppData\Local\Temp\ccLNaGfc.s:32597  .debug_str:000000000002b0e9 .LASF4562
C:\Users\CYMR90~1\AppData\Local\Temp\ccLNaGfc.s:25912  .debug_str:0000000000010763 .LASF4563
C:\Users\CYMR90~1\AppData\Local\Temp\ccLNaGfc.s:29793  .debug_str:00000000000201dd .LASF4564
C:\Users\CYMR90~1\AppData\Local\Temp\ccLNaGfc.s:25498  .debug_str:000000000000ed9e .LASF4565
C:\Users\CYMR90~1\AppData\Local\Temp\ccLNaGfc.s:23210  .debug_str:0000000000005b56 .LASF4566
C:\Users\CYMR90~1\AppData\Local\Temp\ccLNaGfc.s:32365  .debug_str:000000000002a310 .LASF4567
C:\Users\CYMR90~1\AppData\Local\Temp\ccLNaGfc.s:30105  .debug_str:0000000000021470 .LASF4568
C:\Users\CYMR90~1\AppData\Local\Temp\ccLNaGfc.s:32879  .debug_str:000000000002c39f .LASF4569
C:\Users\CYMR90~1\AppData\Local\Temp\ccLNaGfc.s:25704  .debug_str:000000000000fa71 .LASF4570
C:\Users\CYMR90~1\AppData\Local\Temp\ccLNaGfc.s:24114  .debug_str:0000000000009510 .LASF4571
C:\Users\CYMR90~1\AppData\Local\Temp\ccLNaGfc.s:32561  .debug_str:000000000002aea4 .LASF4572
C:\Users\CYMR90~1\AppData\Local\Temp\ccLNaGfc.s:29113  .debug_str:000000000001d7cb .LASF4573
C:\Users\CYMR90~1\AppData\Local\Temp\ccLNaGfc.s:32023  .debug_str:0000000000028e2f .LASF4574
C:\Users\CYMR90~1\AppData\Local\Temp\ccLNaGfc.s:23514  .debug_str:0000000000006d97 .LASF4575
C:\Users\CYMR90~1\AppData\Local\Temp\ccLNaGfc.s:30351  .debug_str:00000000000223bc .LASF4576
C:\Users\CYMR90~1\AppData\Local\Temp\ccLNaGfc.s:32191  .debug_str:0000000000029891 .LASF4577
C:\Users\CYMR90~1\AppData\Local\Temp\ccLNaGfc.s:31917  .debug_str:0000000000028761 .LASF4578
C:\Users\CYMR90~1\AppData\Local\Temp\ccLNaGfc.s:31211  .debug_str:0000000000025957 .LASF4579
C:\Users\CYMR90~1\AppData\Local\Temp\ccLNaGfc.s:28311  .debug_str:000000000001a1f7 .LASF4580
C:\Users\CYMR90~1\AppData\Local\Temp\ccLNaGfc.s:24290  .debug_str:000000000000a021 .LASF4581
C:\Users\CYMR90~1\AppData\Local\Temp\ccLNaGfc.s:25706  .debug_str:000000000000fa93 .LASF4582
C:\Users\CYMR90~1\AppData\Local\Temp\ccLNaGfc.s:22374  .debug_str:0000000000002500 .LASF4583
C:\Users\CYMR90~1\AppData\Local\Temp\ccLNaGfc.s:32003  .debug_str:0000000000028cf0 .LASF4584
C:\Users\CYMR90~1\AppData\Local\Temp\ccLNaGfc.s:29415  .debug_str:000000000001eabe .LASF4585
C:\Users\CYMR90~1\AppData\Local\Temp\ccLNaGfc.s:27631  .debug_str:00000000000176dc .LASF4586
C:\Users\CYMR90~1\AppData\Local\Temp\ccLNaGfc.s:25098  .debug_str:000000000000d4cd .LASF4587
C:\Users\CYMR90~1\AppData\Local\Temp\ccLNaGfc.s:32937  .debug_str:000000000002c72d .LASF4588
C:\Users\CYMR90~1\AppData\Local\Temp\ccLNaGfc.s:27466  .debug_str:0000000000016a31 .LASF4589
C:\Users\CYMR90~1\AppData\Local\Temp\ccLNaGfc.s:32591  .debug_str:000000000002b089 .LASF4590
C:\Users\CYMR90~1\AppData\Local\Temp\ccLNaGfc.s:22576  .debug_str:0000000000003244 .LASF4591
C:\Users\CYMR90~1\AppData\Local\Temp\ccLNaGfc.s:30961  .debug_str:000000000002486d .LASF4592
C:\Users\CYMR90~1\AppData\Local\Temp\ccLNaGfc.s:27476  .debug_str:0000000000016b37 .LASF4593
C:\Users\CYMR90~1\AppData\Local\Temp\ccLNaGfc.s:24002  .debug_str:0000000000008e10 .LASF4594
C:\Users\CYMR90~1\AppData\Local\Temp\ccLNaGfc.s:31701  .debug_str:00000000000278e1 .LASF4595
C:\Users\CYMR90~1\AppData\Local\Temp\ccLNaGfc.s:30639  .debug_str:00000000000234b8 .LASF4596
C:\Users\CYMR90~1\AppData\Local\Temp\ccLNaGfc.s:22346  .debug_str:000000000000235b .LASF4597
C:\Users\CYMR90~1\AppData\Local\Temp\ccLNaGfc.s:23474  .debug_str:0000000000006b3a .LASF4598
C:\Users\CYMR90~1\AppData\Local\Temp\ccLNaGfc.s:31839  .debug_str:0000000000028187 .LASF4599
C:\Users\CYMR90~1\AppData\Local\Temp\ccLNaGfc.s:31233  .debug_str:0000000000025ae8 .LASF4600
C:\Users\CYMR90~1\AppData\Local\Temp\ccLNaGfc.s:23828  .debug_str:00000000000082b8 .LASF4601
C:\Users\CYMR90~1\AppData\Local\Temp\ccLNaGfc.s:31757  .debug_str:0000000000027bf8 .LASF4602
C:\Users\CYMR90~1\AppData\Local\Temp\ccLNaGfc.s:27212  .debug_str:00000000000159b8 .LASF4603
C:\Users\CYMR90~1\AppData\Local\Temp\ccLNaGfc.s:29023  .debug_str:000000000001d140 .LASF4604
C:\Users\CYMR90~1\AppData\Local\Temp\ccLNaGfc.s:29157  .debug_str:000000000001da96 .LASF4605
C:\Users\CYMR90~1\AppData\Local\Temp\ccLNaGfc.s:25220  .debug_str:000000000000dc7c .LASF4606
C:\Users\CYMR90~1\AppData\Local\Temp\ccLNaGfc.s:25732  .debug_str:000000000000fbde .LASF4607
C:\Users\CYMR90~1\AppData\Local\Temp\ccLNaGfc.s:32341  .debug_str:000000000002a1e3 .LASF4608
C:\Users\CYMR90~1\AppData\Local\Temp\ccLNaGfc.s:25540  .debug_str:000000000000efe5 .LASF4609
C:\Users\CYMR90~1\AppData\Local\Temp\ccLNaGfc.s:28937  .debug_str:000000000001cb07 .LASF4610
C:\Users\CYMR90~1\AppData\Local\Temp\ccLNaGfc.s:24620  .debug_str:000000000000b52f .LASF4611
C:\Users\CYMR90~1\AppData\Local\Temp\ccLNaGfc.s:27787  .debug_str:000000000001808b .LASF4612
C:\Users\CYMR90~1\AppData\Local\Temp\ccLNaGfc.s:25958  .debug_str:0000000000010a0b .LASF4613
C:\Users\CYMR90~1\AppData\Local\Temp\ccLNaGfc.s:22418  .debug_str:00000000000027d0 .LASF4614
C:\Users\CYMR90~1\AppData\Local\Temp\ccLNaGfc.s:30625  .debug_str:0000000000023408 .LASF4615
C:\Users\CYMR90~1\AppData\Local\Temp\ccLNaGfc.s:22144  .debug_str:000000000000160d .LASF4616
C:\Users\CYMR90~1\AppData\Local\Temp\ccLNaGfc.s:21970  .debug_str:0000000000000b71 .LASF4617
C:\Users\CYMR90~1\AppData\Local\Temp\ccLNaGfc.s:23048  .debug_str:0000000000005160 .LASF4618
C:\Users\CYMR90~1\AppData\Local\Temp\ccLNaGfc.s:23688  .debug_str:00000000000078b6 .LASF4619
C:\Users\CYMR90~1\AppData\Local\Temp\ccLNaGfc.s:31427  .debug_str:0000000000026776 .LASF4620
C:\Users\CYMR90~1\AppData\Local\Temp\ccLNaGfc.s:22334  .debug_str:00000000000022bb .LASF4621
C:\Users\CYMR90~1\AppData\Local\Temp\ccLNaGfc.s:30165  .debug_str:00000000000217d9 .LASF4622
C:\Users\CYMR90~1\AppData\Local\Temp\ccLNaGfc.s:24702  .debug_str:000000000000bb0e .LASF4623
C:\Users\CYMR90~1\AppData\Local\Temp\ccLNaGfc.s:30865  .debug_str:0000000000024231 .LASF4624
C:\Users\CYMR90~1\AppData\Local\Temp\ccLNaGfc.s:24042  .debug_str:000000000000910d .LASF4625
C:\Users\CYMR90~1\AppData\Local\Temp\ccLNaGfc.s:29777  .debug_str:00000000000200ef .LASF4626
C:\Users\CYMR90~1\AppData\Local\Temp\ccLNaGfc.s:30413  .debug_str:0000000000022757 .LASF4627
C:\Users\CYMR90~1\AppData\Local\Temp\ccLNaGfc.s:27925  .debug_str:00000000000188e1 .LASF4628
C:\Users\CYMR90~1\AppData\Local\Temp\ccLNaGfc.s:30505  .debug_str:0000000000022ca9 .LASF4629
C:\Users\CYMR90~1\AppData\Local\Temp\ccLNaGfc.s:27392  .debug_str:000000000001658f .LASF4630
C:\Users\CYMR90~1\AppData\Local\Temp\ccLNaGfc.s:27296  .debug_str:0000000000015f45 .LASF4631
C:\Users\CYMR90~1\AppData\Local\Temp\ccLNaGfc.s:26484  .debug_str:0000000000012bf5 .LASF4632
C:\Users\CYMR90~1\AppData\Local\Temp\ccLNaGfc.s:29487  .debug_str:000000000001ef50 .LASF4633
C:\Users\CYMR90~1\AppData\Local\Temp\ccLNaGfc.s:26128  .debug_str:000000000001144e .LASF4634
C:\Users\CYMR90~1\AppData\Local\Temp\ccLNaGfc.s:29201  .debug_str:000000000001ddae .LASF4635
C:\Users\CYMR90~1\AppData\Local\Temp\ccLNaGfc.s:33117  .debug_str:000000000002d342 .LASF4636
C:\Users\CYMR90~1\AppData\Local\Temp\ccLNaGfc.s:25388  .debug_str:000000000000e647 .LASF4637
C:\Users\CYMR90~1\AppData\Local\Temp\ccLNaGfc.s:27887  .debug_str:000000000001869e .LASF4638
C:\Users\CYMR90~1\AppData\Local\Temp\ccLNaGfc.s:22196  .debug_str:0000000000001ab0 .LASF4639
C:\Users\CYMR90~1\AppData\Local\Temp\ccLNaGfc.s:22838  .debug_str:000000000000431e .LASF4640
C:\Users\CYMR90~1\AppData\Local\Temp\ccLNaGfc.s:22842  .debug_str:00000000000043ee .LASF4641
C:\Users\CYMR90~1\AppData\Local\Temp\ccLNaGfc.s:26042  .debug_str:0000000000010fb1 .LASF4642
C:\Users\CYMR90~1\AppData\Local\Temp\ccLNaGfc.s:30883  .debug_str:000000000002431b .LASF4643
C:\Users\CYMR90~1\AppData\Local\Temp\ccLNaGfc.s:27783  .debug_str:0000000000018056 .LASF4644
C:\Users\CYMR90~1\AppData\Local\Temp\ccLNaGfc.s:24434  .debug_str:000000000000a915 .LASF4645
C:\Users\CYMR90~1\AppData\Local\Temp\ccLNaGfc.s:30039  .debug_str:00000000000210b7 .LASF4646
C:\Users\CYMR90~1\AppData\Local\Temp\ccLNaGfc.s:23770  .debug_str:0000000000007de2 .LASF4647
C:\Users\CYMR90~1\AppData\Local\Temp\ccLNaGfc.s:31311  .debug_str:000000000002604d .LASF4648
C:\Users\CYMR90~1\AppData\Local\Temp\ccLNaGfc.s:30945  .debug_str:000000000002473e .LASF4649
C:\Users\CYMR90~1\AppData\Local\Temp\ccLNaGfc.s:25866  .debug_str:00000000000104b5 .LASF4650
C:\Users\CYMR90~1\AppData\Local\Temp\ccLNaGfc.s:27174  .debug_str:000000000001578c .LASF4651
C:\Users\CYMR90~1\AppData\Local\Temp\ccLNaGfc.s:32729  .debug_str:000000000002b95d .LASF4652
C:\Users\CYMR90~1\AppData\Local\Temp\ccLNaGfc.s:30995  .debug_str:0000000000024a78 .LASF4653
C:\Users\CYMR90~1\AppData\Local\Temp\ccLNaGfc.s:28177  .debug_str:00000000000198fd .LASF4654
C:\Users\CYMR90~1\AppData\Local\Temp\ccLNaGfc.s:29007  .debug_str:000000000001d015 .LASF4655
C:\Users\CYMR90~1\AppData\Local\Temp\ccLNaGfc.s:27378  .debug_str:00000000000164a7 .LASF4656
C:\Users\CYMR90~1\AppData\Local\Temp\ccLNaGfc.s:24050  .debug_str:000000000000918b .LASF4657
C:\Users\CYMR90~1\AppData\Local\Temp\ccLNaGfc.s:28181  .debug_str:0000000000019945 .LASF4658
C:\Users\CYMR90~1\AppData\Local\Temp\ccLNaGfc.s:29683  .debug_str:000000000001fb42 .LASF4659
C:\Users\CYMR90~1\AppData\Local\Temp\ccLNaGfc.s:27639  .debug_str:0000000000017738 .LASF4660
C:\Users\CYMR90~1\AppData\Local\Temp\ccLNaGfc.s:27406  .debug_str:000000000001663a .LASF4661
C:\Users\CYMR90~1\AppData\Local\Temp\ccLNaGfc.s:22786  .debug_str:0000000000003fb4 .LASF4662
C:\Users\CYMR90~1\AppData\Local\Temp\ccLNaGfc.s:31721  .debug_str:00000000000279ef .LASF4663
C:\Users\CYMR90~1\AppData\Local\Temp\ccLNaGfc.s:25358  .debug_str:000000000000e47b .LASF4664
C:\Users\CYMR90~1\AppData\Local\Temp\ccLNaGfc.s:22830  .debug_str:000000000000429b .LASF4665
C:\Users\CYMR90~1\AppData\Local\Temp\ccLNaGfc.s:27020  .debug_str:0000000000014dcb .LASF4666
C:\Users\CYMR90~1\AppData\Local\Temp\ccLNaGfc.s:25352  .debug_str:000000000000e435 .LASF4667
C:\Users\CYMR90~1\AppData\Local\Temp\ccLNaGfc.s:22358  .debug_str:0000000000002425 .LASF4668
C:\Users\CYMR90~1\AppData\Local\Temp\ccLNaGfc.s:32569  .debug_str:000000000002af2a .LASF4669
C:\Users\CYMR90~1\AppData\Local\Temp\ccLNaGfc.s:23950  .debug_str:0000000000008aeb .LASF4670
C:\Users\CYMR90~1\AppData\Local\Temp\ccLNaGfc.s:22534  .debug_str:0000000000002f9d .LASF4671
C:\Users\CYMR90~1\AppData\Local\Temp\ccLNaGfc.s:26252  .debug_str:0000000000011d1e .LASF4672
C:\Users\CYMR90~1\AppData\Local\Temp\ccLNaGfc.s:30509  .debug_str:0000000000022ce5 .LASF4673
C:\Users\CYMR90~1\AppData\Local\Temp\ccLNaGfc.s:28299  .debug_str:000000000001a138 .LASF4674
C:\Users\CYMR90~1\AppData\Local\Temp\ccLNaGfc.s:28339  .debug_str:000000000001a399 .LASF4675
C:\Users\CYMR90~1\AppData\Local\Temp\ccLNaGfc.s:31255  .debug_str:0000000000025c69 .LASF4676
C:\Users\CYMR90~1\AppData\Local\Temp\ccLNaGfc.s:27116  .debug_str:0000000000015468 .LASF4677
C:\Users\CYMR90~1\AppData\Local\Temp\ccLNaGfc.s:33089  .debug_str:000000000002d0fa .LASF4678
C:\Users\CYMR90~1\AppData\Local\Temp\ccLNaGfc.s:31969  .debug_str:0000000000028aef .LASF4679
C:\Users\CYMR90~1\AppData\Local\Temp\ccLNaGfc.s:30719  .debug_str:0000000000023907 .LASF4680
C:\Users\CYMR90~1\AppData\Local\Temp\ccLNaGfc.s:29521  .debug_str:000000000001f137 .LASF4681
C:\Users\CYMR90~1\AppData\Local\Temp\ccLNaGfc.s:25928  .debug_str:0000000000010863 .LASF4682
C:\Users\CYMR90~1\AppData\Local\Temp\ccLNaGfc.s:32981  .debug_str:000000000002ca62 .LASF4683
C:\Users\CYMR90~1\AppData\Local\Temp\ccLNaGfc.s:31119  .debug_str:0000000000025307 .LASF4684
C:\Users\CYMR90~1\AppData\Local\Temp\ccLNaGfc.s:31031  .debug_str:0000000000024cc9 .LASF4685
C:\Users\CYMR90~1\AppData\Local\Temp\ccLNaGfc.s:23566  .debug_str:00000000000070ff .LASF4686
C:\Users\CYMR90~1\AppData\Local\Temp\ccLNaGfc.s:27430  .debug_str:000000000001682f .LASF4687
C:\Users\CYMR90~1\AppData\Local\Temp\ccLNaGfc.s:31783  .debug_str:0000000000027d7c .LASF4688
C:\Users\CYMR90~1\AppData\Local\Temp\ccLNaGfc.s:29003  .debug_str:000000000001cfbe .LASF4689
C:\Users\CYMR90~1\AppData\Local\Temp\ccLNaGfc.s:31587  .debug_str:00000000000270e1 .LASF4690
C:\Users\CYMR90~1\AppData\Local\Temp\ccLNaGfc.s:27751  .debug_str:0000000000017e7d .LASF4691
C:\Users\CYMR90~1\AppData\Local\Temp\ccLNaGfc.s:30737  .debug_str:0000000000023a34 .LASF4692
C:\Users\CYMR90~1\AppData\Local\Temp\ccLNaGfc.s:23848  .debug_str:00000000000083fd .LASF4693
C:\Users\CYMR90~1\AppData\Local\Temp\ccLNaGfc.s:28989  .debug_str:000000000001cedb .LASF4694
C:\Users\CYMR90~1\AppData\Local\Temp\ccLNaGfc.s:24476  .debug_str:000000000000abad .LASF4695
C:\Users\CYMR90~1\AppData\Local\Temp\ccLNaGfc.s:23444  .debug_str:000000000000691c .LASF4696
C:\Users\CYMR90~1\AppData\Local\Temp\ccLNaGfc.s:27424  .debug_str:00000000000167e2 .LASF4697
C:\Users\CYMR90~1\AppData\Local\Temp\ccLNaGfc.s:28607  .debug_str:000000000001b6e5 .LASF4698
C:\Users\CYMR90~1\AppData\Local\Temp\ccLNaGfc.s:22820  .debug_str:0000000000004207 .LASF4699
C:\Users\CYMR90~1\AppData\Local\Temp\ccLNaGfc.s:31331  .debug_str:0000000000026196 .LASF4700
C:\Users\CYMR90~1\AppData\Local\Temp\ccLNaGfc.s:28419  .debug_str:000000000001aa12 .LASF4701
C:\Users\CYMR90~1\AppData\Local\Temp\ccLNaGfc.s:22792  .debug_str:0000000000004006 .LASF4702
C:\Users\CYMR90~1\AppData\Local\Temp\ccLNaGfc.s:26918  .debug_str:0000000000014730 .LASF4703
C:\Users\CYMR90~1\AppData\Local\Temp\ccLNaGfc.s:25132  .debug_str:000000000000d758 .LASF4704
C:\Users\CYMR90~1\AppData\Local\Temp\ccLNaGfc.s:30057  .debug_str:00000000000211a7 .LASF4705
C:\Users\CYMR90~1\AppData\Local\Temp\ccLNaGfc.s:31439  .debug_str:00000000000267f8 .LASF4706
C:\Users\CYMR90~1\AppData\Local\Temp\ccLNaGfc.s:29743  .debug_str:000000000001fedd .LASF4707
C:\Users\CYMR90~1\AppData\Local\Temp\ccLNaGfc.s:30353  .debug_str:00000000000223e0 .LASF4708
C:\Users\CYMR90~1\AppData\Local\Temp\ccLNaGfc.s:28569  .debug_str:000000000001b428 .LASF4709
C:\Users\CYMR90~1\AppData\Local\Temp\ccLNaGfc.s:29895  .debug_str:00000000000207a8 .LASF4710
C:\Users\CYMR90~1\AppData\Local\Temp\ccLNaGfc.s:31391  .debug_str:0000000000026569 .LASF4711
C:\Users\CYMR90~1\AppData\Local\Temp\ccLNaGfc.s:30869  .debug_str:0000000000024269 .LASF4712
C:\Users\CYMR90~1\AppData\Local\Temp\ccLNaGfc.s:24022  .debug_str:0000000000008f02 .LASF4713
C:\Users\CYMR90~1\AppData\Local\Temp\ccLNaGfc.s:30265  .debug_str:0000000000021e8d .LASF4714
C:\Users\CYMR90~1\AppData\Local\Temp\ccLNaGfc.s:23438  .debug_str:00000000000068bd .LASF4715
C:\Users\CYMR90~1\AppData\Local\Temp\ccLNaGfc.s:23068  .debug_str:0000000000005284 .LASF4716
C:\Users\CYMR90~1\AppData\Local\Temp\ccLNaGfc.s:24728  .debug_str:000000000000bcf5 .LASF4717
C:\Users\CYMR90~1\AppData\Local\Temp\ccLNaGfc.s:30553  .debug_str:0000000000022f94 .LASF4718
C:\Users\CYMR90~1\AppData\Local\Temp\ccLNaGfc.s:22680  .debug_str:00000000000038dd .LASF4719
C:\Users\CYMR90~1\AppData\Local\Temp\ccLNaGfc.s:21954  .debug_str:0000000000000a17 .LASF4720
C:\Users\CYMR90~1\AppData\Local\Temp\ccLNaGfc.s:26712  .debug_str:0000000000013ad9 .LASF4721
C:\Users\CYMR90~1\AppData\Local\Temp\ccLNaGfc.s:27837  .debug_str:000000000001836d .LASF4722
C:\Users\CYMR90~1\AppData\Local\Temp\ccLNaGfc.s:29145  .debug_str:000000000001d9f7 .LASF4723
C:\Users\CYMR90~1\AppData\Local\Temp\ccLNaGfc.s:29049  .debug_str:000000000001d388 .LASF4724
C:\Users\CYMR90~1\AppData\Local\Temp\ccLNaGfc.s:27056  .debug_str:000000000001506a .LASF4725
C:\Users\CYMR90~1\AppData\Local\Temp\ccLNaGfc.s:22342  .debug_str:0000000000002314 .LASF4726
C:\Users\CYMR90~1\AppData\Local\Temp\ccLNaGfc.s:23802  .debug_str:0000000000008083 .LASF4727
C:\Users\CYMR90~1\AppData\Local\Temp\ccLNaGfc.s:24858  .debug_str:000000000000c532 .LASF4728
C:\Users\CYMR90~1\AppData\Local\Temp\ccLNaGfc.s:27198  .debug_str:000000000001590b .LASF4729
C:\Users\CYMR90~1\AppData\Local\Temp\ccLNaGfc.s:28733  .debug_str:000000000001be56 .LASF4730
C:\Users\CYMR90~1\AppData\Local\Temp\ccLNaGfc.s:22908  .debug_str:00000000000047e7 .LASF4731
C:\Users\CYMR90~1\AppData\Local\Temp\ccLNaGfc.s:23926  .debug_str:00000000000088af .LASF4732
C:\Users\CYMR90~1\AppData\Local\Temp\ccLNaGfc.s:25562  .debug_str:000000000000f12a .LASF4733
C:\Users\CYMR90~1\AppData\Local\Temp\ccLNaGfc.s:29327  .debug_str:000000000001e598 .LASF4734
C:\Users\CYMR90~1\AppData\Local\Temp\ccLNaGfc.s:30963  .debug_str:0000000000024889 .LASF4735
C:\Users\CYMR90~1\AppData\Local\Temp\ccLNaGfc.s:32475  .debug_str:000000000002a9b8 .LASF4736
C:\Users\CYMR90~1\AppData\Local\Temp\ccLNaGfc.s:25778  .debug_str:000000000000feb1 .LASF4737
C:\Users\CYMR90~1\AppData\Local\Temp\ccLNaGfc.s:30377  .debug_str:0000000000022544 .LASF4738
C:\Users\CYMR90~1\AppData\Local\Temp\ccLNaGfc.s:31909  .debug_str:00000000000286dd .LASF4739
C:\Users\CYMR90~1\AppData\Local\Temp\ccLNaGfc.s:30759  .debug_str:0000000000023ba7 .LASF4740
C:\Users\CYMR90~1\AppData\Local\Temp\ccLNaGfc.s:27074  .debug_str:0000000000015194 .LASF4741
C:\Users\CYMR90~1\AppData\Local\Temp\ccLNaGfc.s:27058  .debug_str:000000000001508d .LASF4742
C:\Users\CYMR90~1\AppData\Local\Temp\ccLNaGfc.s:24618  .debug_str:000000000000b506 .LASF4743
C:\Users\CYMR90~1\AppData\Local\Temp\ccLNaGfc.s:32177  .debug_str:00000000000297b2 .LASF4744
C:\Users\CYMR90~1\AppData\Local\Temp\ccLNaGfc.s:27148  .debug_str:0000000000015631 .LASF4745
C:\Users\CYMR90~1\AppData\Local\Temp\ccLNaGfc.s:30255  .debug_str:0000000000021df0 .LASF4746
C:\Users\CYMR90~1\AppData\Local\Temp\ccLNaGfc.s:32579  .debug_str:000000000002afe0 .LASF4747
C:\Users\CYMR90~1\AppData\Local\Temp\ccLNaGfc.s:21926  .debug_str:000000000000085e .LASF4748
C:\Users\CYMR90~1\AppData\Local\Temp\ccLNaGfc.s:27691  .debug_str:0000000000017a85 .LASF4749
C:\Users\CYMR90~1\AppData\Local\Temp\ccLNaGfc.s:29537  .debug_str:000000000001f238 .LASF4750
C:\Users\CYMR90~1\AppData\Local\Temp\ccLNaGfc.s:24354  .debug_str:000000000000a3fd .LASF4751
C:\Users\CYMR90~1\AppData\Local\Temp\ccLNaGfc.s:23184  .debug_str:00000000000059c7 .LASF4752
C:\Users\CYMR90~1\AppData\Local\Temp\ccLNaGfc.s:25702  .debug_str:000000000000fa47 .LASF4753
C:\Users\CYMR90~1\AppData\Local\Temp\ccLNaGfc.s:27971  .debug_str:0000000000018bad .LASF4754
C:\Users\CYMR90~1\AppData\Local\Temp\ccLNaGfc.s:22440  .debug_str:0000000000002970 .LASF4755
C:\Users\CYMR90~1\AppData\Local\Temp\ccLNaGfc.s:28213  .debug_str:0000000000019c2e .LASF4756
C:\Users\CYMR90~1\AppData\Local\Temp\ccLNaGfc.s:29597  .debug_str:000000000001f5d3 .LASF4757
C:\Users\CYMR90~1\AppData\Local\Temp\ccLNaGfc.s:21962  .debug_str:0000000000000add .LASF4758
C:\Users\CYMR90~1\AppData\Local\Temp\ccLNaGfc.s:23420  .debug_str:00000000000067bd .LASF4759
C:\Users\CYMR90~1\AppData\Local\Temp\ccLNaGfc.s:26464  .debug_str:0000000000012aa0 .LASF4760
C:\Users\CYMR90~1\AppData\Local\Temp\ccLNaGfc.s:28847  .debug_str:000000000001c5d0 .LASF4761
C:\Users\CYMR90~1\AppData\Local\Temp\ccLNaGfc.s:28215  .debug_str:0000000000019c5a .LASF4762
C:\Users\CYMR90~1\AppData\Local\Temp\ccLNaGfc.s:32627  .debug_str:000000000002b2ca .LASF4763
C:\Users\CYMR90~1\AppData\Local\Temp\ccLNaGfc.s:24776  .debug_str:000000000000c016 .LASF4764
C:\Users\CYMR90~1\AppData\Local\Temp\ccLNaGfc.s:25696  .debug_str:000000000000f9da .LASF4765
C:\Users\CYMR90~1\AppData\Local\Temp\ccLNaGfc.s:31809  .debug_str:0000000000027f60 .LASF4766
C:\Users\CYMR90~1\AppData\Local\Temp\ccLNaGfc.s:27793  .debug_str:00000000000180e1 .LASF4767
C:\Users\CYMR90~1\AppData\Local\Temp\ccLNaGfc.s:30043  .debug_str:00000000000210e2 .LASF4768
C:\Users\CYMR90~1\AppData\Local\Temp\ccLNaGfc.s:30047  .debug_str:000000000002111b .LASF4769
C:\Users\CYMR90~1\AppData\Local\Temp\ccLNaGfc.s:22554  .debug_str:00000000000030be .LASF4770
C:\Users\CYMR90~1\AppData\Local\Temp\ccLNaGfc.s:25874  .debug_str:000000000001052a .LASF4771
C:\Users\CYMR90~1\AppData\Local\Temp\ccLNaGfc.s:32369  .debug_str:000000000002a34d .LASF4772
C:\Users\CYMR90~1\AppData\Local\Temp\ccLNaGfc.s:23960  .debug_str:0000000000008b8a .LASF4773
C:\Users\CYMR90~1\AppData\Local\Temp\ccLNaGfc.s:25738  .debug_str:000000000000fc34 .LASF4774
C:\Users\CYMR90~1\AppData\Local\Temp\ccLNaGfc.s:22496  .debug_str:0000000000002d49 .LASF4775
C:\Users\CYMR90~1\AppData\Local\Temp\ccLNaGfc.s:25764  .debug_str:000000000000fde4 .LASF4776
C:\Users\CYMR90~1\AppData\Local\Temp\ccLNaGfc.s:27595  .debug_str:00000000000174dd .LASF4777
C:\Users\CYMR90~1\AppData\Local\Temp\ccLNaGfc.s:25212  .debug_str:000000000000dc04 .LASF4778
C:\Users\CYMR90~1\AppData\Local\Temp\ccLNaGfc.s:27671  .debug_str:0000000000017952 .LASF4779
C:\Users\CYMR90~1\AppData\Local\Temp\ccLNaGfc.s:24238  .debug_str:0000000000009d15 .LASF4780
C:\Users\CYMR90~1\AppData\Local\Temp\ccLNaGfc.s:27068  .debug_str:0000000000015136 .LASF4781
C:\Users\CYMR90~1\AppData\Local\Temp\ccLNaGfc.s:22772  .debug_str:0000000000003ebc .LASF4782
C:\Users\CYMR90~1\AppData\Local\Temp\ccLNaGfc.s:24988  .debug_str:000000000000cdbf .LASF4783
C:\Users\CYMR90~1\AppData\Local\Temp\ccLNaGfc.s:32625  .debug_str:000000000002b2a5 .LASF4784
C:\Users\CYMR90~1\AppData\Local\Temp\ccLNaGfc.s:30919  .debug_str:00000000000245bb .LASF4785
C:\Users\CYMR90~1\AppData\Local\Temp\ccLNaGfc.s:32611  .debug_str:000000000002b1da .LASF4786
C:\Users\CYMR90~1\AppData\Local\Temp\ccLNaGfc.s:27869  .debug_str:0000000000018577 .LASF4787
C:\Users\CYMR90~1\AppData\Local\Temp\ccLNaGfc.s:32105  .debug_str:00000000000292d6 .LASF4788
C:\Users\CYMR90~1\AppData\Local\Temp\ccLNaGfc.s:31781  .debug_str:0000000000027d5a .LASF4789
C:\Users\CYMR90~1\AppData\Local\Temp\ccLNaGfc.s:24212  .debug_str:0000000000009b55 .LASF4790
C:\Users\CYMR90~1\AppData\Local\Temp\ccLNaGfc.s:31531  .debug_str:0000000000026dbd .LASF4791
C:\Users\CYMR90~1\AppData\Local\Temp\ccLNaGfc.s:27853  .debug_str:000000000001848c .LASF4792
C:\Users\CYMR90~1\AppData\Local\Temp\ccLNaGfc.s:27759  .debug_str:0000000000017ede .LASF4793
C:\Users\CYMR90~1\AppData\Local\Temp\ccLNaGfc.s:31659  .debug_str:000000000002753f .LASF4794
C:\Users\CYMR90~1\AppData\Local\Temp\ccLNaGfc.s:25622  .debug_str:000000000000f4c7 .LASF4795
C:\Users\CYMR90~1\AppData\Local\Temp\ccLNaGfc.s:29027  .debug_str:000000000001d184 .LASF4796
C:\Users\CYMR90~1\AppData\Local\Temp\ccLNaGfc.s:28047  .debug_str:00000000000190a1 .LASF4797
C:\Users\CYMR90~1\AppData\Local\Temp\ccLNaGfc.s:24936  .debug_str:000000000000ca4a .LASF4798
C:\Users\CYMR90~1\AppData\Local\Temp\ccLNaGfc.s:31179  .debug_str:0000000000025782 .LASF4799
C:\Users\CYMR90~1\AppData\Local\Temp\ccLNaGfc.s:24346  .debug_str:000000000000a387 .LASF4800
C:\Users\CYMR90~1\AppData\Local\Temp\ccLNaGfc.s:31005  .debug_str:0000000000024b2d .LASF4801
C:\Users\CYMR90~1\AppData\Local\Temp\ccLNaGfc.s:28787  .debug_str:000000000001c202 .LASF4802
C:\Users\CYMR90~1\AppData\Local\Temp\ccLNaGfc.s:25076  .debug_str:000000000000d320 .LASF4803
C:\Users\CYMR90~1\AppData\Local\Temp\ccLNaGfc.s:25946  .debug_str:0000000000010988 .LASF4804
C:\Users\CYMR90~1\AppData\Local\Temp\ccLNaGfc.s:22282  .debug_str:0000000000001fb8 .LASF4805
C:\Users\CYMR90~1\AppData\Local\Temp\ccLNaGfc.s:27543  .debug_str:00000000000171c1 .LASF4806
C:\Users\CYMR90~1\AppData\Local\Temp\ccLNaGfc.s:28869  .debug_str:000000000001c725 .LASF4807
C:\Users\CYMR90~1\AppData\Local\Temp\ccLNaGfc.s:26964  .debug_str:0000000000014a86 .LASF4808
C:\Users\CYMR90~1\AppData\Local\Temp\ccLNaGfc.s:22900  .debug_str:0000000000004766 .LASF4809
C:\Users\CYMR90~1\AppData\Local\Temp\ccLNaGfc.s:28501  .debug_str:000000000001afad .LASF4810
C:\Users\CYMR90~1\AppData\Local\Temp\ccLNaGfc.s:31279  .debug_str:0000000000025e5d .LASF4811
C:\Users\CYMR90~1\AppData\Local\Temp\ccLNaGfc.s:25676  .debug_str:000000000000f80d .LASF4812
C:\Users\CYMR90~1\AppData\Local\Temp\ccLNaGfc.s:24770  .debug_str:000000000000bf82 .LASF4813
C:\Users\CYMR90~1\AppData\Local\Temp\ccLNaGfc.s:21792  .debug_str:000000000000006a .LASF4814
C:\Users\CYMR90~1\AppData\Local\Temp\ccLNaGfc.s:24848  .debug_str:000000000000c4af .LASF4815
C:\Users\CYMR90~1\AppData\Local\Temp\ccLNaGfc.s:23440  .debug_str:00000000000068e0 .LASF4816
C:\Users\CYMR90~1\AppData\Local\Temp\ccLNaGfc.s:32823  .debug_str:000000000002bfb3 .LASF4817
C:\Users\CYMR90~1\AppData\Local\Temp\ccLNaGfc.s:27204  .debug_str:000000000001595c .LASF4818
C:\Users\CYMR90~1\AppData\Local\Temp\ccLNaGfc.s:24734  .debug_str:000000000000bd3d .LASF4819
C:\Users\CYMR90~1\AppData\Local\Temp\ccLNaGfc.s:27060  .debug_str:00000000000150b6 .LASF4820
C:\Users\CYMR90~1\AppData\Local\Temp\ccLNaGfc.s:24688  .debug_str:000000000000ba05 .LASF4821
C:\Users\CYMR90~1\AppData\Local\Temp\ccLNaGfc.s:27250  .debug_str:0000000000015c0d .LASF4822
C:\Users\CYMR90~1\AppData\Local\Temp\ccLNaGfc.s:26146  .debug_str:000000000001154c .LASF4823
C:\Users\CYMR90~1\AppData\Local\Temp\ccLNaGfc.s:31449  .debug_str:000000000002689f .LASF4824
C:\Users\CYMR90~1\AppData\Local\Temp\ccLNaGfc.s:26386  .debug_str:0000000000012597 .LASF4825
C:\Users\CYMR90~1\AppData\Local\Temp\ccLNaGfc.s:22264  .debug_str:0000000000001eb9 .LASF4826
C:\Users\CYMR90~1\AppData\Local\Temp\ccLNaGfc.s:26058  .debug_str:0000000000011083 .LASF4827
C:\Users\CYMR90~1\AppData\Local\Temp\ccLNaGfc.s:31971  .debug_str:0000000000028b11 .LASF4828
C:\Users\CYMR90~1\AppData\Local\Temp\ccLNaGfc.s:23690  .debug_str:00000000000078d8 .LASF4829
C:\Users\CYMR90~1\AppData\Local\Temp\ccLNaGfc.s:32871  .debug_str:000000000002c29c .LASF4830
C:\Users\CYMR90~1\AppData\Local\Temp\ccLNaGfc.s:32887  .debug_str:000000000002c42c .LASF4831
C:\Users\CYMR90~1\AppData\Local\Temp\ccLNaGfc.s:30071  .debug_str:000000000002128e .LASF4832
C:\Users\CYMR90~1\AppData\Local\Temp\ccLNaGfc.s:21990  .debug_str:0000000000000cb0 .LASF4833
C:\Users\CYMR90~1\AppData\Local\Temp\ccLNaGfc.s:24730  .debug_str:000000000000bd17 .LASF4834
C:\Users\CYMR90~1\AppData\Local\Temp\ccLNaGfc.s:29787  .debug_str:000000000002018b .LASF4835
C:\Users\CYMR90~1\AppData\Local\Temp\ccLNaGfc.s:23428  .debug_str:0000000000006835 .LASF4836
C:\Users\CYMR90~1\AppData\Local\Temp\ccLNaGfc.s:23882  .debug_str:0000000000008640 .LASF4837
C:\Users\CYMR90~1\AppData\Local\Temp\ccLNaGfc.s:26570  .debug_str:000000000001317c .LASF4838
C:\Users\CYMR90~1\AppData\Local\Temp\ccLNaGfc.s:25992  .debug_str:0000000000010c06 .LASF4839
C:\Users\CYMR90~1\AppData\Local\Temp\ccLNaGfc.s:30365  .debug_str:00000000000224ad .LASF4840
C:\Users\CYMR90~1\AppData\Local\Temp\ccLNaGfc.s:29389  .debug_str:000000000001e935 .LASF4841
C:\Users\CYMR90~1\AppData\Local\Temp\ccLNaGfc.s:23096  .debug_str:0000000000005449 .LASF4842
C:\Users\CYMR90~1\AppData\Local\Temp\ccLNaGfc.s:30197  .debug_str:0000000000021a58 .LASF4843
C:\Users\CYMR90~1\AppData\Local\Temp\ccLNaGfc.s:27304  .debug_str:0000000000015fba .LASF4844
C:\Users\CYMR90~1\AppData\Local\Temp\ccLNaGfc.s:23340  .debug_str:00000000000062e6 .LASF4845
C:\Users\CYMR90~1\AppData\Local\Temp\ccLNaGfc.s:28297  .debug_str:000000000001a11c .LASF4846
C:\Users\CYMR90~1\AppData\Local\Temp\ccLNaGfc.s:27134  .debug_str:0000000000015562 .LASF4847
C:\Users\CYMR90~1\AppData\Local\Temp\ccLNaGfc.s:29845  .debug_str:0000000000020514 .LASF4848
C:\Users\CYMR90~1\AppData\Local\Temp\ccLNaGfc.s:32005  .debug_str:0000000000028d11 .LASF4849
C:\Users\CYMR90~1\AppData\Local\Temp\ccLNaGfc.s:26788  .debug_str:0000000000013f6b .LASF4850
C:\Users\CYMR90~1\AppData\Local\Temp\ccLNaGfc.s:26724  .debug_str:0000000000013b93 .LASF4851
C:\Users\CYMR90~1\AppData\Local\Temp\ccLNaGfc.s:22390  .debug_str:0000000000002613 .LASF4852
C:\Users\CYMR90~1\AppData\Local\Temp\ccLNaGfc.s:29443  .debug_str:000000000001ec86 .LASF4853
C:\Users\CYMR90~1\AppData\Local\Temp\ccLNaGfc.s:28885  .debug_str:000000000001c80e .LASF4854
C:\Users\CYMR90~1\AppData\Local\Temp\ccLNaGfc.s:24600  .debug_str:000000000000b3fc .LASF4855
C:\Users\CYMR90~1\AppData\Local\Temp\ccLNaGfc.s:23482  .debug_str:0000000000006bad .LASF4856
C:\Users\CYMR90~1\AppData\Local\Temp\ccLNaGfc.s:22250  .debug_str:0000000000001dd7 .LASF4857
C:\Users\CYMR90~1\AppData\Local\Temp\ccLNaGfc.s:24070  .debug_str:0000000000009299 .LASF4858
C:\Users\CYMR90~1\AppData\Local\Temp\ccLNaGfc.s:24240  .debug_str:0000000000009d38 .LASF4859
C:\Users\CYMR90~1\AppData\Local\Temp\ccLNaGfc.s:32091  .debug_str:000000000002920c .LASF4860
C:\Users\CYMR90~1\AppData\Local\Temp\ccLNaGfc.s:32913  .debug_str:000000000002c5c7 .LASF4861
C:\Users\CYMR90~1\AppData\Local\Temp\ccLNaGfc.s:24902  .debug_str:000000000000c7c1 .LASF4862
C:\Users\CYMR90~1\AppData\Local\Temp\ccLNaGfc.s:26092  .debug_str:000000000001124d .LASF4863
C:\Users\CYMR90~1\AppData\Local\Temp\ccLNaGfc.s:22470  .debug_str:0000000000002b70 .LASF4864
C:\Users\CYMR90~1\AppData\Local\Temp\ccLNaGfc.s:27386  .debug_str:000000000001652f .LASF4865
C:\Users\CYMR90~1\AppData\Local\Temp\ccLNaGfc.s:27072  .debug_str:000000000001517b .LASF4866
C:\Users\CYMR90~1\AppData\Local\Temp\ccLNaGfc.s:23616  .debug_str:000000000000745c .LASF4867
C:\Users\CYMR90~1\AppData\Local\Temp\ccLNaGfc.s:27849  .debug_str:000000000001844f .LASF4868
C:\Users\CYMR90~1\AppData\Local\Temp\ccLNaGfc.s:25724  .debug_str:000000000000fb89 .LASF4869
C:\Users\CYMR90~1\AppData\Local\Temp\ccLNaGfc.s:27234  .debug_str:0000000000015b1f .LASF4870
C:\Users\CYMR90~1\AppData\Local\Temp\ccLNaGfc.s:23756  .debug_str:0000000000007d1f .LASF4871
C:\Users\CYMR90~1\AppData\Local\Temp\ccLNaGfc.s:28521  .debug_str:000000000001b0e2 .LASF4872
C:\Users\CYMR90~1\AppData\Local\Temp\ccLNaGfc.s:33165  .debug_str:000000000002d619 .LASF4873
C:\Users\CYMR90~1\AppData\Local\Temp\ccLNaGfc.s:22684  .debug_str:0000000000003925 .LASF4874
C:\Users\CYMR90~1\AppData\Local\Temp\ccLNaGfc.s:26370  .debug_str:000000000001247d .LASF4875
C:\Users\CYMR90~1\AppData\Local\Temp\ccLNaGfc.s:30563  .debug_str:000000000002300e .LASF4876
C:\Users\CYMR90~1\AppData\Local\Temp\ccLNaGfc.s:23052  .debug_str:000000000000519e .LASF4877
C:\Users\CYMR90~1\AppData\Local\Temp\ccLNaGfc.s:24292  .debug_str:000000000000a040 .LASF4878
C:\Users\CYMR90~1\AppData\Local\Temp\ccLNaGfc.s:24236  .debug_str:0000000000009cf4 .LASF4879
C:\Users\CYMR90~1\AppData\Local\Temp\ccLNaGfc.s:25134  .debug_str:000000000000d783 .LASF4880
C:\Users\CYMR90~1\AppData\Local\Temp\ccLNaGfc.s:22340  .debug_str:00000000000022f7 .LASF4881
C:\Users\CYMR90~1\AppData\Local\Temp\ccLNaGfc.s:30331  .debug_str:00000000000222ab .LASF4882
C:\Users\CYMR90~1\AppData\Local\Temp\ccLNaGfc.s:29961  .debug_str:0000000000020bf2 .LASF4883
C:\Users\CYMR90~1\AppData\Local\Temp\ccLNaGfc.s:31671  .debug_str:0000000000027640 .LASF4884
C:\Users\CYMR90~1\AppData\Local\Temp\ccLNaGfc.s:22204  .debug_str:0000000000001b12 .LASF4885
C:\Users\CYMR90~1\AppData\Local\Temp\ccLNaGfc.s:25746  .debug_str:000000000000fcbb .LASF4886
C:\Users\CYMR90~1\AppData\Local\Temp\ccLNaGfc.s:24120  .debug_str:0000000000009568 .LASF4887
C:\Users\CYMR90~1\AppData\Local\Temp\ccLNaGfc.s:31113  .debug_str:00000000000252b8 .LASF4888
C:\Users\CYMR90~1\AppData\Local\Temp\ccLNaGfc.s:32593  .debug_str:000000000002b0af .LASF4889
C:\Users\CYMR90~1\AppData\Local\Temp\ccLNaGfc.s:27565  .debug_str:0000000000017326 .LASF4890
C:\Users\CYMR90~1\AppData\Local\Temp\ccLNaGfc.s:27675  .debug_str:0000000000017994 .LASF4891
C:\Users\CYMR90~1\AppData\Local\Temp\ccLNaGfc.s:29251  .debug_str:000000000001e076 .LASF4892
C:\Users\CYMR90~1\AppData\Local\Temp\ccLNaGfc.s:24364  .debug_str:000000000000a4ae .LASF4893
C:\Users\CYMR90~1\AppData\Local\Temp\ccLNaGfc.s:29709  .debug_str:000000000001fcd5 .LASF4894
C:\Users\CYMR90~1\AppData\Local\Temp\ccLNaGfc.s:30881  .debug_str:00000000000242fe .LASF4895
C:\Users\CYMR90~1\AppData\Local\Temp\ccLNaGfc.s:26504  .debug_str:0000000000012d4a .LASF4896
C:\Users\CYMR90~1\AppData\Local\Temp\ccLNaGfc.s:22688  .debug_str:000000000000395e .LASF4897
C:\Users\CYMR90~1\AppData\Local\Temp\ccLNaGfc.s:22882  .debug_str:0000000000004636 .LASF4898
C:\Users\CYMR90~1\AppData\Local\Temp\ccLNaGfc.s:31819  .debug_str:000000000002801f .LASF4899
C:\Users\CYMR90~1\AppData\Local\Temp\ccLNaGfc.s:26164  .debug_str:000000000001164f .LASF4900
C:\Users\CYMR90~1\AppData\Local\Temp\ccLNaGfc.s:24742  .debug_str:000000000000bda4 .LASF4901
C:\Users\CYMR90~1\AppData\Local\Temp\ccLNaGfc.s:30875  .debug_str:00000000000242b8 .LASF4902
C:\Users\CYMR90~1\AppData\Local\Temp\ccLNaGfc.s:30979  .debug_str:0000000000024987 .LASF4903
C:\Users\CYMR90~1\AppData\Local\Temp\ccLNaGfc.s:27206  .debug_str:0000000000015972 .LASF4904
C:\Users\CYMR90~1\AppData\Local\Temp\ccLNaGfc.s:29773  .debug_str:00000000000200c6 .LASF4905
C:\Users\CYMR90~1\AppData\Local\Temp\ccLNaGfc.s:27545  .debug_str:00000000000171eb .LASF4906
C:\Users\CYMR90~1\AppData\Local\Temp\ccLNaGfc.s:22652  .debug_str:000000000000374c .LASF4907
C:\Users\CYMR90~1\AppData\Local\Temp\ccLNaGfc.s:22320  .debug_str:00000000000021d2 .LASF4908
C:\Users\CYMR90~1\AppData\Local\Temp\ccLNaGfc.s:23390  .debug_str:00000000000065ed .LASF4909
C:\Users\CYMR90~1\AppData\Local\Temp\ccLNaGfc.s:31463  .debug_str:0000000000026979 .LASF4910
C:\Users\CYMR90~1\AppData\Local\Temp\ccLNaGfc.s:32373  .debug_str:000000000002a386 .LASF4911
C:\Users\CYMR90~1\AppData\Local\Temp\ccLNaGfc.s:21900  .debug_str:00000000000006c9 .LASF4912
C:\Users\CYMR90~1\AppData\Local\Temp\ccLNaGfc.s:28435  .debug_str:000000000001ab7e .LASF4913
C:\Users\CYMR90~1\AppData\Local\Temp\ccLNaGfc.s:32851  .debug_str:000000000002c162 .LASF4914
C:\Users\CYMR90~1\AppData\Local\Temp\ccLNaGfc.s:24554  .debug_str:000000000000b0a6 .LASF4915
C:\Users\CYMR90~1\AppData\Local\Temp\ccLNaGfc.s:23476  .debug_str:0000000000006b55 .LASF4916
C:\Users\CYMR90~1\AppData\Local\Temp\ccLNaGfc.s:31769  .debug_str:0000000000027c93 .LASF4917
C:\Users\CYMR90~1\AppData\Local\Temp\ccLNaGfc.s:28459  .debug_str:000000000001ace5 .LASF4918
C:\Users\CYMR90~1\AppData\Local\Temp\ccLNaGfc.s:29613  .debug_str:000000000001f6dc .LASF4919
C:\Users\CYMR90~1\AppData\Local\Temp\ccLNaGfc.s:28725  .debug_str:000000000001bdf1 .LASF4920
C:\Users\CYMR90~1\AppData\Local\Temp\ccLNaGfc.s:23182  .debug_str:00000000000059ae .LASF4921
C:\Users\CYMR90~1\AppData\Local\Temp\ccLNaGfc.s:30653  .debug_str:0000000000023580 .LASF4922
C:\Users\CYMR90~1\AppData\Local\Temp\ccLNaGfc.s:30671  .debug_str:000000000002364f .LASF4923
C:\Users\CYMR90~1\AppData\Local\Temp\ccLNaGfc.s:31149  .debug_str:0000000000025499 .LASF4924
C:\Users\CYMR90~1\AppData\Local\Temp\ccLNaGfc.s:32079  .debug_str:0000000000029140 .LASF4925
C:\Users\CYMR90~1\AppData\Local\Temp\ccLNaGfc.s:30711  .debug_str:000000000002389a .LASF4926
C:\Users\CYMR90~1\AppData\Local\Temp\ccLNaGfc.s:32203  .debug_str:0000000000029973 .LASF4927
C:\Users\CYMR90~1\AppData\Local\Temp\ccLNaGfc.s:26576  .debug_str:00000000000131da .LASF4928
C:\Users\CYMR90~1\AppData\Local\Temp\ccLNaGfc.s:26408  .debug_str:00000000000126f3 .LASF4929
C:\Users\CYMR90~1\AppData\Local\Temp\ccLNaGfc.s:30241  .debug_str:0000000000021d15 .LASF4930
C:\Users\CYMR90~1\AppData\Local\Temp\ccLNaGfc.s:33135  .debug_str:000000000002d41a .LASF4931
C:\Users\CYMR90~1\AppData\Local\Temp\ccLNaGfc.s:26580  .debug_str:000000000001321e .LASF4932
C:\Users\CYMR90~1\AppData\Local\Temp\ccLNaGfc.s:27765  .debug_str:0000000000017f4c .LASF4933
C:\Users\CYMR90~1\AppData\Local\Temp\ccLNaGfc.s:32393  .debug_str:000000000002a4ca .LASF4934
C:\Users\CYMR90~1\AppData\Local\Temp\ccLNaGfc.s:30225  .debug_str:0000000000021c1e .LASF4935
C:\Users\CYMR90~1\AppData\Local\Temp\ccLNaGfc.s:27484  .debug_str:0000000000016bc2 .LASF4936
C:\Users\CYMR90~1\AppData\Local\Temp\ccLNaGfc.s:22552  .debug_str:00000000000030a5 .LASF4937
C:\Users\CYMR90~1\AppData\Local\Temp\ccLNaGfc.s:29509  .debug_str:000000000001f076 .LASF4938
C:\Users\CYMR90~1\AppData\Local\Temp\ccLNaGfc.s:30467  .debug_str:0000000000022a3e .LASF4939
C:\Users\CYMR90~1\AppData\Local\Temp\ccLNaGfc.s:31865  .debug_str:0000000000028338 .LASF4940
C:\Users\CYMR90~1\AppData\Local\Temp\ccLNaGfc.s:30913  .debug_str:0000000000024494 .LASF4941
C:\Users\CYMR90~1\AppData\Local\Temp\ccLNaGfc.s:29131  .debug_str:000000000001d8e2 .LASF4942
C:\Users\CYMR90~1\AppData\Local\Temp\ccLNaGfc.s:29111  .debug_str:000000000001d7ae .LASF4943
C:\Users\CYMR90~1\AppData\Local\Temp\ccLNaGfc.s:22040  .debug_str:0000000000001025 .LASF4944
C:\Users\CYMR90~1\AppData\Local\Temp\ccLNaGfc.s:26458  .debug_str:0000000000012a32 .LASF4945
C:\Users\CYMR90~1\AppData\Local\Temp\ccLNaGfc.s:27865  .debug_str:000000000001853b .LASF4946
C:\Users\CYMR90~1\AppData\Local\Temp\ccLNaGfc.s:23638  .debug_str:00000000000075d2 .LASF4947
C:\Users\CYMR90~1\AppData\Local\Temp\ccLNaGfc.s:28441  .debug_str:000000000001abc8 .LASF4948
C:\Users\CYMR90~1\AppData\Local\Temp\ccLNaGfc.s:32321  .debug_str:000000000002a0a5 .LASF4949
C:\Users\CYMR90~1\AppData\Local\Temp\ccLNaGfc.s:24916  .debug_str:000000000000c8b9 .LASF4950
C:\Users\CYMR90~1\AppData\Local\Temp\ccLNaGfc.s:24538  .debug_str:000000000000af69 .LASF4951
C:\Users\CYMR90~1\AppData\Local\Temp\ccLNaGfc.s:25550  .debug_str:000000000000f066 .LASF4952
C:\Users\CYMR90~1\AppData\Local\Temp\ccLNaGfc.s:23516  .debug_str:0000000000006dbb .LASF4953
C:\Users\CYMR90~1\AppData\Local\Temp\ccLNaGfc.s:33149  .debug_str:000000000002d51f .LASF4954
C:\Users\CYMR90~1\AppData\Local\Temp\ccLNaGfc.s:22394  .debug_str:0000000000002649 .LASF4955
C:\Users\CYMR90~1\AppData\Local\Temp\ccLNaGfc.s:30699  .debug_str:00000000000237d2 .LASF4956
C:\Users\CYMR90~1\AppData\Local\Temp\ccLNaGfc.s:27470  .debug_str:0000000000016a98 .LASF4957
C:\Users\CYMR90~1\AppData\Local\Temp\ccLNaGfc.s:32549  .debug_str:000000000002adf9 .LASF4958
C:\Users\CYMR90~1\AppData\Local\Temp\ccLNaGfc.s:25744  .debug_str:000000000000fc9b .LASF4959
C:\Users\CYMR90~1\AppData\Local\Temp\ccLNaGfc.s:24192  .debug_str:00000000000099c7 .LASF4960
C:\Users\CYMR90~1\AppData\Local\Temp\ccLNaGfc.s:23716  .debug_str:0000000000007aa0 .LASF4961
C:\Users\CYMR90~1\AppData\Local\Temp\ccLNaGfc.s:25150  .debug_str:000000000000d89b .LASF4962
C:\Users\CYMR90~1\AppData\Local\Temp\ccLNaGfc.s:33047  .debug_str:000000000002ce75 .LASF4963
C:\Users\CYMR90~1\AppData\Local\Temp\ccLNaGfc.s:24782  .debug_str:000000000000c08f .LASF4964
C:\Users\CYMR90~1\AppData\Local\Temp\ccLNaGfc.s:24338  .debug_str:000000000000a31a .LASF4965
C:\Users\CYMR90~1\AppData\Local\Temp\ccLNaGfc.s:31773  .debug_str:0000000000027ceb .LASF4966
C:\Users\CYMR90~1\AppData\Local\Temp\ccLNaGfc.s:26202  .debug_str:00000000000118d1 .LASF4967
C:\Users\CYMR90~1\AppData\Local\Temp\ccLNaGfc.s:22968  .debug_str:0000000000004c6e .LASF4968
C:\Users\CYMR90~1\AppData\Local\Temp\ccLNaGfc.s:24282  .debug_str:0000000000009faf .LASF4969
C:\Users\CYMR90~1\AppData\Local\Temp\ccLNaGfc.s:28089  .debug_str:00000000000193f4 .LASF4970
C:\Users\CYMR90~1\AppData\Local\Temp\ccLNaGfc.s:29071  .debug_str:000000000001d564 .LASF4971
C:\Users\CYMR90~1\AppData\Local\Temp\ccLNaGfc.s:29301  .debug_str:000000000001e412 .LASF4972
C:\Users\CYMR90~1\AppData\Local\Temp\ccLNaGfc.s:24994  .debug_str:000000000000ce21 .LASF4973
C:\Users\CYMR90~1\AppData\Local\Temp\ccLNaGfc.s:27262  .debug_str:0000000000015cb2 .LASF4974
C:\Users\CYMR90~1\AppData\Local\Temp\ccLNaGfc.s:25390  .debug_str:000000000000e65c .LASF4975
C:\Users\CYMR90~1\AppData\Local\Temp\ccLNaGfc.s:28257  .debug_str:0000000000019ec8 .LASF4976
C:\Users\CYMR90~1\AppData\Local\Temp\ccLNaGfc.s:28005  .debug_str:0000000000018e07 .LASF4977
C:\Users\CYMR90~1\AppData\Local\Temp\ccLNaGfc.s:30771  .debug_str:0000000000023c82 .LASF4978
C:\Users\CYMR90~1\AppData\Local\Temp\ccLNaGfc.s:22928  .debug_str:0000000000004952 .LASF4979
C:\Users\CYMR90~1\AppData\Local\Temp\ccLNaGfc.s:21968  .debug_str:0000000000000b40 .LASF4980
C:\Users\CYMR90~1\AppData\Local\Temp\ccLNaGfc.s:26290  .debug_str:0000000000011f29 .LASF4981
C:\Users\CYMR90~1\AppData\Local\Temp\ccLNaGfc.s:27034  .debug_str:0000000000014eb7 .LASF4982
C:\Users\CYMR90~1\AppData\Local\Temp\ccLNaGfc.s:32915  .debug_str:000000000002c5df .LASF4983
C:\Users\CYMR90~1\AppData\Local\Temp\ccLNaGfc.s:23862  .debug_str:00000000000084da .LASF4984
C:\Users\CYMR90~1\AppData\Local\Temp\ccLNaGfc.s:24428  .debug_str:000000000000a8ba .LASF4985
C:\Users\CYMR90~1\AppData\Local\Temp\ccLNaGfc.s:28095  .debug_str:0000000000019456 .LASF4986
C:\Users\CYMR90~1\AppData\Local\Temp\ccLNaGfc.s:25326  .debug_str:000000000000e2a4 .LASF4987
C:\Users\CYMR90~1\AppData\Local\Temp\ccLNaGfc.s:32971  .debug_str:000000000002c9cc .LASF4988
C:\Users\CYMR90~1\AppData\Local\Temp\ccLNaGfc.s:22208  .debug_str:0000000000001b50 .LASF4989
C:\Users\CYMR90~1\AppData\Local\Temp\ccLNaGfc.s:31849  .debug_str:0000000000028222 .LASF4990
C:\Users\CYMR90~1\AppData\Local\Temp\ccLNaGfc.s:29195  .debug_str:000000000001dd53 .LASF4991
C:\Users\CYMR90~1\AppData\Local\Temp\ccLNaGfc.s:27525  .debug_str:0000000000017088 .LASF4992
C:\Users\CYMR90~1\AppData\Local\Temp\ccLNaGfc.s:24388  .debug_str:000000000000a66d .LASF4993
C:\Users\CYMR90~1\AppData\Local\Temp\ccLNaGfc.s:30287  .debug_str:0000000000021fb7 .LASF4994
C:\Users\CYMR90~1\AppData\Local\Temp\ccLNaGfc.s:26582  .debug_str:000000000001323e .LASF4995
C:\Users\CYMR90~1\AppData\Local\Temp\ccLNaGfc.s:27991  .debug_str:0000000000018d15 .LASF4996
C:\Users\CYMR90~1\AppData\Local\Temp\ccLNaGfc.s:26686  .debug_str:0000000000013935 .LASF4997
C:\Users\CYMR90~1\AppData\Local\Temp\ccLNaGfc.s:30949  .debug_str:000000000002478b .LASF4998
C:\Users\CYMR90~1\AppData\Local\Temp\ccLNaGfc.s:23902  .debug_str:000000000000875c .LASF4999
C:\Users\CYMR90~1\AppData\Local\Temp\ccLNaGfc.s:22456  .debug_str:0000000000002a87 .LASF5000
C:\Users\CYMR90~1\AppData\Local\Temp\ccLNaGfc.s:26260  .debug_str:0000000000011d87 .LASF5001
C:\Users\CYMR90~1\AppData\Local\Temp\ccLNaGfc.s:29843  .debug_str:00000000000204e9 .LASF5002
C:\Users\CYMR90~1\AppData\Local\Temp\ccLNaGfc.s:22598  .debug_str:00000000000033a6 .LASF5003
C:\Users\CYMR90~1\AppData\Local\Temp\ccLNaGfc.s:29771  .debug_str:0000000000020087 .LASF5004
C:\Users\CYMR90~1\AppData\Local\Temp\ccLNaGfc.s:32159  .debug_str:000000000002961f .LASF5005
C:\Users\CYMR90~1\AppData\Local\Temp\ccLNaGfc.s:32197  .debug_str:00000000000298f7 .LASF5006
C:\Users\CYMR90~1\AppData\Local\Temp\ccLNaGfc.s:24370  .debug_str:000000000000a505 .LASF5007
C:\Users\CYMR90~1\AppData\Local\Temp\ccLNaGfc.s:28085  .debug_str:00000000000193a1 .LASF5008
C:\Users\CYMR90~1\AppData\Local\Temp\ccLNaGfc.s:32447  .debug_str:000000000002a7ac .LASF5009
C:\Users\CYMR90~1\AppData\Local\Temp\ccLNaGfc.s:23430  .debug_str:000000000000684c .LASF5010
C:\Users\CYMR90~1\AppData\Local\Temp\ccLNaGfc.s:32441  .debug_str:000000000002a743 .LASF5011
C:\Users\CYMR90~1\AppData\Local\Temp\ccLNaGfc.s:22532  .debug_str:0000000000002f70 .LASF5012
C:\Users\CYMR90~1\AppData\Local\Temp\ccLNaGfc.s:28523  .debug_str:000000000001b0fa .LASF5013
C:\Users\CYMR90~1\AppData\Local\Temp\ccLNaGfc.s:25652  .debug_str:000000000000f69b .LASF5014
C:\Users\CYMR90~1\AppData\Local\Temp\ccLNaGfc.s:26842  .debug_str:00000000000142c7 .LASF5015
C:\Users\CYMR90~1\AppData\Local\Temp\ccLNaGfc.s:32087  .debug_str:00000000000291c1 .LASF5016
C:\Users\CYMR90~1\AppData\Local\Temp\ccLNaGfc.s:24092  .debug_str:00000000000093b9 .LASF5017
C:\Users\CYMR90~1\AppData\Local\Temp\ccLNaGfc.s:29045  .debug_str:000000000001d331 .LASF5018
C:\Users\CYMR90~1\AppData\Local\Temp\ccLNaGfc.s:32491  .debug_str:000000000002aaad .LASF5019
C:\Users\CYMR90~1\AppData\Local\Temp\ccLNaGfc.s:22922  .debug_str:00000000000048da .LASF5020
C:\Users\CYMR90~1\AppData\Local\Temp\ccLNaGfc.s:31235  .debug_str:0000000000025b02 .LASF5021
C:\Users\CYMR90~1\AppData\Local\Temp\ccLNaGfc.s:29731  .debug_str:000000000001fdf2 .LASF5022
C:\Users\CYMR90~1\AppData\Local\Temp\ccLNaGfc.s:28867  .debug_str:000000000001c6fd .LASF5023
C:\Users\CYMR90~1\AppData\Local\Temp\ccLNaGfc.s:29865  .debug_str:000000000002062c .LASF5024
C:\Users\CYMR90~1\AppData\Local\Temp\ccLNaGfc.s:33113  .debug_str:000000000002d2f3 .LASF5025
C:\Users\CYMR90~1\AppData\Local\Temp\ccLNaGfc.s:22656  .debug_str:000000000000377b .LASF5026
C:\Users\CYMR90~1\AppData\Local\Temp\ccLNaGfc.s:29465  .debug_str:000000000001edf8 .LASF5027
C:\Users\CYMR90~1\AppData\Local\Temp\ccLNaGfc.s:30257  .debug_str:0000000000021e1c .LASF5028
C:\Users\CYMR90~1\AppData\Local\Temp\ccLNaGfc.s:22232  .debug_str:0000000000001cb0 .LASF5029
C:\Users\CYMR90~1\AppData\Local\Temp\ccLNaGfc.s:26500  .debug_str:0000000000012cfd .LASF5030
C:\Users\CYMR90~1\AppData\Local\Temp\ccLNaGfc.s:27797  .debug_str:0000000000018126 .LASF5031
C:\Users\CYMR90~1\AppData\Local\Temp\ccLNaGfc.s:26000  .debug_str:0000000000010cb4 .LASF5032
C:\Users\CYMR90~1\AppData\Local\Temp\ccLNaGfc.s:22046  .debug_str:000000000000106d .LASF5033
C:\Users\CYMR90~1\AppData\Local\Temp\ccLNaGfc.s:28481  .debug_str:000000000001ae90 .LASF5034
C:\Users\CYMR90~1\AppData\Local\Temp\ccLNaGfc.s:29871  .debug_str:0000000000020680 .LASF5035
C:\Users\CYMR90~1\AppData\Local\Temp\ccLNaGfc.s:33151  .debug_str:000000000002d53d .LASF5036
C:\Users\CYMR90~1\AppData\Local\Temp\ccLNaGfc.s:26958  .debug_str:0000000000014a04 .LASF5037
C:\Users\CYMR90~1\AppData\Local\Temp\ccLNaGfc.s:28331  .debug_str:000000000001a323 .LASF5038
C:\Users\CYMR90~1\AppData\Local\Temp\ccLNaGfc.s:23138  .debug_str:00000000000056de .LASF5039
C:\Users\CYMR90~1\AppData\Local\Temp\ccLNaGfc.s:30971  .debug_str:00000000000248f1 .LASF5040
C:\Users\CYMR90~1\AppData\Local\Temp\ccLNaGfc.s:31853  .debug_str:0000000000028265 .LASF5041
C:\Users\CYMR90~1\AppData\Local\Temp\ccLNaGfc.s:24750  .debug_str:000000000000be0e .LASF5042
C:\Users\CYMR90~1\AppData\Local\Temp\ccLNaGfc.s:32925  .debug_str:000000000002c6a9 .LASF5043
C:\Users\CYMR90~1\AppData\Local\Temp\ccLNaGfc.s:25504  .debug_str:000000000000edfe .LASF5044
C:\Users\CYMR90~1\AppData\Local\Temp\ccLNaGfc.s:27715  .debug_str:0000000000017c39 .LASF5045
C:\Users\CYMR90~1\AppData\Local\Temp\ccLNaGfc.s:22824  .debug_str:000000000000423e .LASF5046
C:\Users\CYMR90~1\AppData\Local\Temp\ccLNaGfc.s:23446  .debug_str:000000000000693e .LASF5047
C:\Users\CYMR90~1\AppData\Local\Temp\ccLNaGfc.s:23040  .debug_str:00000000000050d5 .LASF5048
C:\Users\CYMR90~1\AppData\Local\Temp\ccLNaGfc.s:31681  .debug_str:0000000000027779 .LASF5049
C:\Users\CYMR90~1\AppData\Local\Temp\ccLNaGfc.s:27585  .debug_str:000000000001741d .LASF5050
C:\Users\CYMR90~1\AppData\Local\Temp\ccLNaGfc.s:26438  .debug_str:00000000000128e4 .LASF5051
C:\Users\CYMR90~1\AppData\Local\Temp\ccLNaGfc.s:24944  .debug_str:000000000000cadc .LASF5052
C:\Users\CYMR90~1\AppData\Local\Temp\ccLNaGfc.s:29447  .debug_str:000000000001ecce .LASF5053
C:\Users\CYMR90~1\AppData\Local\Temp\ccLNaGfc.s:24090  .debug_str:0000000000009388 .LASF5054
C:\Users\CYMR90~1\AppData\Local\Temp\ccLNaGfc.s:32651  .debug_str:000000000002b415 .LASF5055
C:\Users\CYMR90~1\AppData\Local\Temp\ccLNaGfc.s:29435  .debug_str:000000000001ebcf .LASF5056
C:\Users\CYMR90~1\AppData\Local\Temp\ccLNaGfc.s:23936  .debug_str:000000000000894a .LASF5057
C:\Users\CYMR90~1\AppData\Local\Temp\ccLNaGfc.s:31765  .debug_str:0000000000027c61 .LASF5058
C:\Users\CYMR90~1\AppData\Local\Temp\ccLNaGfc.s:33157  .debug_str:000000000002d597 .LASF5059
C:\Users\CYMR90~1\AppData\Local\Temp\ccLNaGfc.s:29783  .debug_str:000000000002014f .LASF5060
C:\Users\CYMR90~1\AppData\Local\Temp\ccLNaGfc.s:32053  .debug_str:0000000000028fe4 .LASF5061
C:\Users\CYMR90~1\AppData\Local\Temp\ccLNaGfc.s:23022  .debug_str:0000000000004fc4 .LASF5062
C:\Users\CYMR90~1\AppData\Local\Temp\ccLNaGfc.s:23364  .debug_str:0000000000006475 .LASF5063
C:\Users\CYMR90~1\AppData\Local\Temp\ccLNaGfc.s:28351  .debug_str:000000000001a43e .LASF5064
C:\Users\CYMR90~1\AppData\Local\Temp\ccLNaGfc.s:27042  .debug_str:0000000000014f71 .LASF5065
C:\Users\CYMR90~1\AppData\Local\Temp\ccLNaGfc.s:25796  .debug_str:000000000000fff6 .LASF5066
C:\Users\CYMR90~1\AppData\Local\Temp\ccLNaGfc.s:22896  .debug_str:000000000000471f .LASF5067
C:\Users\CYMR90~1\AppData\Local\Temp\ccLNaGfc.s:27080  .debug_str:00000000000151fd .LASF5068
C:\Users\CYMR90~1\AppData\Local\Temp\ccLNaGfc.s:30325  .debug_str:000000000002223f .LASF5069
C:\Users\CYMR90~1\AppData\Local\Temp\ccLNaGfc.s:28559  .debug_str:000000000001b383 .LASF5070
C:\Users\CYMR90~1\AppData\Local\Temp\ccLNaGfc.s:24138  .debug_str:0000000000009661 .LASF5071
C:\Users\CYMR90~1\AppData\Local\Temp\ccLNaGfc.s:21844  .debug_str:0000000000000385 .LASF5072
C:\Users\CYMR90~1\AppData\Local\Temp\ccLNaGfc.s:25200  .debug_str:000000000000db23 .LASF5073
C:\Users\CYMR90~1\AppData\Local\Temp\ccLNaGfc.s:22442  .debug_str:0000000000002998 .LASF5074
C:\Users\CYMR90~1\AppData\Local\Temp\ccLNaGfc.s:29497  .debug_str:000000000001efd4 .LASF5075
C:\Users\CYMR90~1\AppData\Local\Temp\ccLNaGfc.s:25114  .debug_str:000000000000d635 .LASF5076
C:\Users\CYMR90~1\AppData\Local\Temp\ccLNaGfc.s:21788  .debug_str:0000000000000000 .LASF5077
C:\Users\CYMR90~1\AppData\Local\Temp\ccLNaGfc.s:22242  .debug_str:0000000000001d55 .LASF5078
C:\Users\CYMR90~1\AppData\Local\Temp\ccLNaGfc.s:32199  .debug_str:0000000000029924 .LASF5079
C:\Users\CYMR90~1\AppData\Local\Temp\ccLNaGfc.s:31051  .debug_str:0000000000024e8d .LASF5080
C:\Users\CYMR90~1\AppData\Local\Temp\ccLNaGfc.s:29515  .debug_str:000000000001f0c4 .LASF5081
C:\Users\CYMR90~1\AppData\Local\Temp\ccLNaGfc.s:23144  .debug_str:0000000000005759 .LASF5082
C:\Users\CYMR90~1\AppData\Local\Temp\ccLNaGfc.s:27496  .debug_str:0000000000016c88 .LASF5083
C:\Users\CYMR90~1\AppData\Local\Temp\ccLNaGfc.s:29819  .debug_str:0000000000020368 .LASF5084
C:\Users\CYMR90~1\AppData\Local\Temp\ccLNaGfc.s:28447  .debug_str:000000000001ac31 .LASF5085
C:\Users\CYMR90~1\AppData\Local\Temp\ccLNaGfc.s:33139  .debug_str:000000000002d45c .LASF5086
C:\Users\CYMR90~1\AppData\Local\Temp\ccLNaGfc.s:27623  .debug_str:0000000000017657 .LASF5087
C:\Users\CYMR90~1\AppData\Local\Temp\ccLNaGfc.s:31859  .debug_str:00000000000282d3 .LASF5088
C:\Users\CYMR90~1\AppData\Local\Temp\ccLNaGfc.s:25610  .debug_str:000000000000f414 .LASF5089
C:\Users\CYMR90~1\AppData\Local\Temp\ccLNaGfc.s:26330  .debug_str:00000000000121e7 .LASF5090
C:\Users\CYMR90~1\AppData\Local\Temp\ccLNaGfc.s:27953  .debug_str:0000000000018a87 .LASF5091
C:\Users\CYMR90~1\AppData\Local\Temp\ccLNaGfc.s:23112  .debug_str:0000000000005536 .LASF5092
C:\Users\CYMR90~1\AppData\Local\Temp\ccLNaGfc.s:31221  .debug_str:0000000000025a00 .LASF5093
C:\Users\CYMR90~1\AppData\Local\Temp\ccLNaGfc.s:28633  .debug_str:000000000001b89a .LASF5094
C:\Users\CYMR90~1\AppData\Local\Temp\ccLNaGfc.s:31467  .debug_str:00000000000269a0 .LASF5095
C:\Users\CYMR90~1\AppData\Local\Temp\ccLNaGfc.s:26132  .debug_str:0000000000011489 .LASF5096
C:\Users\CYMR90~1\AppData\Local\Temp\ccLNaGfc.s:25036  .debug_str:000000000000d066 .LASF5097
C:\Users\CYMR90~1\AppData\Local\Temp\ccLNaGfc.s:29981  .debug_str:0000000000020cdc .LASF5098
C:\Users\CYMR90~1\AppData\Local\Temp\ccLNaGfc.s:25690  .debug_str:000000000000f967 .LASF5099
C:\Users\CYMR90~1\AppData\Local\Temp\ccLNaGfc.s:25000  .debug_str:000000000000ce82 .LASF5100
C:\Users\CYMR90~1\AppData\Local\Temp\ccLNaGfc.s:31441  .debug_str:0000000000026822 .LASF5101
C:\Users\CYMR90~1\AppData\Local\Temp\ccLNaGfc.s:26594  .debug_str:000000000001331b .LASF5102
C:\Users\CYMR90~1\AppData\Local\Temp\ccLNaGfc.s:24810  .debug_str:000000000000c266 .LASF5103
C:\Users\CYMR90~1\AppData\Local\Temp\ccLNaGfc.s:22702  .debug_str:0000000000003a69 .LASF5104
C:\Users\CYMR90~1\AppData\Local\Temp\ccLNaGfc.s:23628  .debug_str:0000000000007537 .LASF5105
C:\Users\CYMR90~1\AppData\Local\Temp\ccLNaGfc.s:25694  .debug_str:000000000000f9b6 .LASF5106
C:\Users\CYMR90~1\AppData\Local\Temp\ccLNaGfc.s:23212  .debug_str:0000000000005b78 .LASF5107
C:\Users\CYMR90~1\AppData\Local\Temp\ccLNaGfc.s:31885  .debug_str:00000000000284c1 .LASF5108
C:\Users\CYMR90~1\AppData\Local\Temp\ccLNaGfc.s:25826  .debug_str:0000000000010206 .LASF5109
C:\Users\CYMR90~1\AppData\Local\Temp\ccLNaGfc.s:22526  .debug_str:0000000000002f14 .LASF5110
C:\Users\CYMR90~1\AppData\Local\Temp\ccLNaGfc.s:31303  .debug_str:0000000000025fd9 .LASF5111
C:\Users\CYMR90~1\AppData\Local\Temp\ccLNaGfc.s:30723  .debug_str:0000000000023946 .LASF5112
C:\Users\CYMR90~1\AppData\Local\Temp\ccLNaGfc.s:26150  .debug_str:000000000001158c .LASF5113
C:\Users\CYMR90~1\AppData\Local\Temp\ccLNaGfc.s:27326  .debug_str:0000000000016151 .LASF5114
C:\Users\CYMR90~1\AppData\Local\Temp\ccLNaGfc.s:30703  .debug_str:000000000002380b .LASF5115
C:\Users\CYMR90~1\AppData\Local\Temp\ccLNaGfc.s:31475  .debug_str:0000000000026a29 .LASF5116
C:\Users\CYMR90~1\AppData\Local\Temp\ccLNaGfc.s:30355  .debug_str:0000000000022408 .LASF5117
C:\Users\CYMR90~1\AppData\Local\Temp\ccLNaGfc.s:33163  .debug_str:000000000002d5f3 .LASF5118
C:\Users\CYMR90~1\AppData\Local\Temp\ccLNaGfc.s:28409  .debug_str:000000000001a946 .LASF5119
C:\Users\CYMR90~1\AppData\Local\Temp\ccLNaGfc.s:22174  .debug_str:000000000000192f .LASF5120
C:\Users\CYMR90~1\AppData\Local\Temp\ccLNaGfc.s:23720  .debug_str:0000000000007ad3 .LASF5121
C:\Users\CYMR90~1\AppData\Local\Temp\ccLNaGfc.s:23072  .debug_str:00000000000052cb .LASF5122
C:\Users\CYMR90~1\AppData\Local\Temp\ccLNaGfc.s:30571  .debug_str:0000000000023075 .LASF5123
C:\Users\CYMR90~1\AppData\Local\Temp\ccLNaGfc.s:26448  .debug_str:0000000000012987 .LASF5124
C:\Users\CYMR90~1\AppData\Local\Temp\ccLNaGfc.s:31025  .debug_str:0000000000024c6a .LASF5125
C:\Users\CYMR90~1\AppData\Local\Temp\ccLNaGfc.s:32335  .debug_str:000000000002a17b .LASF5126
C:\Users\CYMR90~1\AppData\Local\Temp\ccLNaGfc.s:29047  .debug_str:000000000001d360 .LASF5127
C:\Users\CYMR90~1\AppData\Local\Temp\ccLNaGfc.s:31267  .debug_str:0000000000025da7 .LASF5128
C:\Users\CYMR90~1\AppData\Local\Temp\ccLNaGfc.s:31321  .debug_str:000000000002610c .LASF5129
C:\Users\CYMR90~1\AppData\Local\Temp\ccLNaGfc.s:30099  .debug_str:000000000002142e .LASF5130
C:\Users\CYMR90~1\AppData\Local\Temp\ccLNaGfc.s:26022  .debug_str:0000000000010e0d .LASF5131
C:\Users\CYMR90~1\AppData\Local\Temp\ccLNaGfc.s:26204  .debug_str:00000000000118f5 .LASF5132
C:\Users\CYMR90~1\AppData\Local\Temp\ccLNaGfc.s:31145  .debug_str:000000000002545a .LASF5133
C:\Users\CYMR90~1\AppData\Local\Temp\ccLNaGfc.s:24484  .debug_str:000000000000ac38 .LASF5134
C:\Users\CYMR90~1\AppData\Local\Temp\ccLNaGfc.s:26002  .debug_str:0000000000010cd3 .LASF5135
C:\Users\CYMR90~1\AppData\Local\Temp\ccLNaGfc.s:32599  .debug_str:000000000002b12c .LASF5136
C:\Users\CYMR90~1\AppData\Local\Temp\ccLNaGfc.s:24010  .debug_str:0000000000008e7e .LASF5137
C:\Users\CYMR90~1\AppData\Local\Temp\ccLNaGfc.s:24596  .debug_str:000000000000b3d4 .LASF5138
C:\Users\CYMR90~1\AppData\Local\Temp\ccLNaGfc.s:22852  .debug_str:000000000000447d .LASF5139
C:\Users\CYMR90~1\AppData\Local\Temp\ccLNaGfc.s:26158  .debug_str:0000000000011604 .LASF5140
C:\Users\CYMR90~1\AppData\Local\Temp\ccLNaGfc.s:27402  .debug_str:0000000000016602 .LASF5141
C:\Users\CYMR90~1\AppData\Local\Temp\ccLNaGfc.s:29511  .debug_str:000000000001f08e .LASF5142
C:\Users\CYMR90~1\AppData\Local\Temp\ccLNaGfc.s:31813  .debug_str:0000000000027fa9 .LASF5143
C:\Users\CYMR90~1\AppData\Local\Temp\ccLNaGfc.s:25450  .debug_str:000000000000ea2f .LASF5144
C:\Users\CYMR90~1\AppData\Local\Temp\ccLNaGfc.s:31607  .debug_str:0000000000027259 .LASF5145
C:\Users\CYMR90~1\AppData\Local\Temp\ccLNaGfc.s:29451  .debug_str:000000000001ed22 .LASF5146
C:\Users\CYMR90~1\AppData\Local\Temp\ccLNaGfc.s:26206  .debug_str:0000000000011919 .LASF5147
C:\Users\CYMR90~1\AppData\Local\Temp\ccLNaGfc.s:29769  .debug_str:0000000000020056 .LASF5148
C:\Users\CYMR90~1\AppData\Local\Temp\ccLNaGfc.s:23054  .debug_str:00000000000051bc .LASF5149
C:\Users\CYMR90~1\AppData\Local\Temp\ccLNaGfc.s:26738  .debug_str:0000000000013c5f .LASF5150
C:\Users\CYMR90~1\AppData\Local\Temp\ccLNaGfc.s:29813  .debug_str:00000000000202e0 .LASF5151
C:\Users\CYMR90~1\AppData\Local\Temp\ccLNaGfc.s:25310  .debug_str:000000000000e1ae .LASF5152
C:\Users\CYMR90~1\AppData\Local\Temp\ccLNaGfc.s:29005  .debug_str:000000000001cfe4 .LASF5153
C:\Users\CYMR90~1\AppData\Local\Temp\ccLNaGfc.s:29349  .debug_str:000000000001e6cf .LASF5154
C:\Users\CYMR90~1\AppData\Local\Temp\ccLNaGfc.s:32233  .debug_str:0000000000029b73 .LASF5155
C:\Users\CYMR90~1\AppData\Local\Temp\ccLNaGfc.s:33005  .debug_str:000000000002cb86 .LASF5156
C:\Users\CYMR90~1\AppData\Local\Temp\ccLNaGfc.s:25460  .debug_str:000000000000eaa3 .LASF5157
C:\Users\CYMR90~1\AppData\Local\Temp\ccLNaGfc.s:22148  .debug_str:0000000000001653 .LASF5158
C:\Users\CYMR90~1\AppData\Local\Temp\ccLNaGfc.s:32155  .debug_str:00000000000295f0 .LASF5159
C:\Users\CYMR90~1\AppData\Local\Temp\ccLNaGfc.s:31645  .debug_str:0000000000027486 .LASF5160
C:\Users\CYMR90~1\AppData\Local\Temp\ccLNaGfc.s:28489  .debug_str:000000000001aef3 .LASF5161
C:\Users\CYMR90~1\AppData\Local\Temp\ccLNaGfc.s:29507  .debug_str:000000000001f060 .LASF5162
C:\Users\CYMR90~1\AppData\Local\Temp\ccLNaGfc.s:21994  .debug_str:0000000000000cec .LASF5163
C:\Users\CYMR90~1\AppData\Local\Temp\ccLNaGfc.s:30117  .debug_str:0000000000021515 .LASF5164
C:\Users\CYMR90~1\AppData\Local\Temp\ccLNaGfc.s:24948  .debug_str:000000000000cb50 .LASF5165
C:\Users\CYMR90~1\AppData\Local\Temp\ccLNaGfc.s:27270  .debug_str:0000000000015d4b .LASF5166
C:\Users\CYMR90~1\AppData\Local\Temp\ccLNaGfc.s:25718  .debug_str:000000000000fb38 .LASF5167
C:\Users\CYMR90~1\AppData\Local\Temp\ccLNaGfc.s:27895  .debug_str:000000000001870c .LASF5168
C:\Users\CYMR90~1\AppData\Local\Temp\ccLNaGfc.s:32499  .debug_str:000000000002ab30 .LASF5169
C:\Users\CYMR90~1\AppData\Local\Temp\ccLNaGfc.s:26668  .debug_str:0000000000013845 .LASF5170
C:\Users\CYMR90~1\AppData\Local\Temp\ccLNaGfc.s:29699  .debug_str:000000000001fc41 .LASF5171
C:\Users\CYMR90~1\AppData\Local\Temp\ccLNaGfc.s:23694  .debug_str:0000000000007931 .LASF5172
C:\Users\CYMR90~1\AppData\Local\Temp\ccLNaGfc.s:31181  .debug_str:00000000000257ad .LASF5173
C:\Users\CYMR90~1\AppData\Local\Temp\ccLNaGfc.s:23574  .debug_str:0000000000007177 .LASF5174
C:\Users\CYMR90~1\AppData\Local\Temp\ccLNaGfc.s:31723  .debug_str:0000000000027a14 .LASF5175
C:\Users\CYMR90~1\AppData\Local\Temp\ccLNaGfc.s:32211  .debug_str:00000000000299df .LASF5176
C:\Users\CYMR90~1\AppData\Local\Temp\ccLNaGfc.s:30453  .debug_str:000000000002299d .LASF5177
C:\Users\CYMR90~1\AppData\Local\Temp\ccLNaGfc.s:27180  .debug_str:00000000000157f9 .LASF5178
C:\Users\CYMR90~1\AppData\Local\Temp\ccLNaGfc.s:24016  .debug_str:0000000000008ec5 .LASF5179
C:\Users\CYMR90~1\AppData\Local\Temp\ccLNaGfc.s:22606  .debug_str:0000000000003430 .LASF5180
C:\Users\CYMR90~1\AppData\Local\Temp\ccLNaGfc.s:32911  .debug_str:000000000002c5af .LASF5181
C:\Users\CYMR90~1\AppData\Local\Temp\ccLNaGfc.s:24200  .debug_str:0000000000009a58 .LASF5182
C:\Users\CYMR90~1\AppData\Local\Temp\ccLNaGfc.s:24020  .debug_str:0000000000008eec .LASF5183
C:\Users\CYMR90~1\AppData\Local\Temp\ccLNaGfc.s:24568  .debug_str:000000000000b228 .LASF5184
C:\Users\CYMR90~1\AppData\Local\Temp\ccLNaGfc.s:25552  .debug_str:000000000000f089 .LASF5185
C:\Users\CYMR90~1\AppData\Local\Temp\ccLNaGfc.s:32099  .debug_str:0000000000029288 .LASF5186
C:\Users\CYMR90~1\AppData\Local\Temp\ccLNaGfc.s:24136  .debug_str:0000000000009649 .LASF5187
C:\Users\CYMR90~1\AppData\Local\Temp\ccLNaGfc.s:32801  .debug_str:000000000002be47 .LASF5188
C:\Users\CYMR90~1\AppData\Local\Temp\ccLNaGfc.s:31389  .debug_str:0000000000026551 .LASF5189
C:\Users\CYMR90~1\AppData\Local\Temp\ccLNaGfc.s:25700  .debug_str:000000000000fa2f .LASF5190
C:\Users\CYMR90~1\AppData\Local\Temp\ccLNaGfc.s:22906  .debug_str:00000000000047cf .LASF5191
C:\Users\CYMR90~1\AppData\Local\Temp\ccLNaGfc.s:28449  .debug_str:000000000001ac58 .LASF5192
C:\Users\CYMR90~1\AppData\Local\Temp\ccLNaGfc.s:31139  .debug_str:000000000002540f .LASF5193
C:\Users\CYMR90~1\AppData\Local\Temp\ccLNaGfc.s:25636  .debug_str:000000000000f5c5 .LASF5194
C:\Users\CYMR90~1\AppData\Local\Temp\ccLNaGfc.s:21898  .debug_str:00000000000006b1 .LASF5195
C:\Users\CYMR90~1\AppData\Local\Temp\ccLNaGfc.s:21846  .debug_str:00000000000003af .LASF5196
C:\Users\CYMR90~1\AppData\Local\Temp\ccLNaGfc.s:22200  .debug_str:0000000000001ad9 .LASF5197
C:\Users\CYMR90~1\AppData\Local\Temp\ccLNaGfc.s:30785  .debug_str:0000000000023d88 .LASF5198
C:\Users\CYMR90~1\AppData\Local\Temp\ccLNaGfc.s:31437  .debug_str:00000000000267e1 .LASF5199
C:\Users\CYMR90~1\AppData\Local\Temp\ccLNaGfc.s:26548  .debug_str:0000000000013002 .LASF5200
C:\Users\CYMR90~1\AppData\Local\Temp\ccLNaGfc.s:28483  .debug_str:000000000001aeb4 .LASF5201
C:\Users\CYMR90~1\AppData\Local\Temp\ccLNaGfc.s:29841  .debug_str:00000000000204d2 .LASF5202
C:\Users\CYMR90~1\AppData\Local\Temp\ccLNaGfc.s:27278  .debug_str:0000000000015e19 .LASF5203
C:\Users\CYMR90~1\AppData\Local\Temp\ccLNaGfc.s:29897  .debug_str:00000000000207d5 .LASF5204
C:\Users\CYMR90~1\AppData\Local\Temp\ccLNaGfc.s:29197  .debug_str:000000000001dd7d .LASF5205
C:\Users\CYMR90~1\AppData\Local\Temp\ccLNaGfc.s:23924  .debug_str:0000000000008898 .LASF5206
C:\Users\CYMR90~1\AppData\Local\Temp\ccLNaGfc.s:30597  .debug_str:000000000002325c .LASF5207
C:\Users\CYMR90~1\AppData\Local\Temp\ccLNaGfc.s:29877  .debug_str:00000000000206cc .LASF5208
C:\Users\CYMR90~1\AppData\Local\Temp\ccLNaGfc.s:22960  .debug_str:0000000000004bf7 .LASF5209
C:\Users\CYMR90~1\AppData\Local\Temp\ccLNaGfc.s:23388  .debug_str:00000000000065d6 .LASF5210
C:\Users\CYMR90~1\AppData\Local\Temp\ccLNaGfc.s:30551  .debug_str:0000000000022f75 .LASF5211
C:\Users\CYMR90~1\AppData\Local\Temp\ccLNaGfc.s:32287  .debug_str:0000000000029eb5 .LASF5212
C:\Users\CYMR90~1\AppData\Local\Temp\ccLNaGfc.s:28075  .debug_str:0000000000019243 .LASF5213
C:\Users\CYMR90~1\AppData\Local\Temp\ccLNaGfc.s:24850  .debug_str:000000000000c4d9 .LASF5214
C:\Users\CYMR90~1\AppData\Local\Temp\ccLNaGfc.s:29595  .debug_str:000000000001f5b6 .LASF5215
C:\Users\CYMR90~1\AppData\Local\Temp\ccLNaGfc.s:26418  .debug_str:00000000000127ac .LASF5216
C:\Users\CYMR90~1\AppData\Local\Temp\ccLNaGfc.s:29987  .debug_str:0000000000020d72 .LASF5217
C:\Users\CYMR90~1\AppData\Local\Temp\ccLNaGfc.s:26742  .debug_str:0000000000013cb2 .LASF5218
C:\Users\CYMR90~1\AppData\Local\Temp\ccLNaGfc.s:32237  .debug_str:0000000000029bc9 .LASF5219
C:\Users\CYMR90~1\AppData\Local\Temp\ccLNaGfc.s:25882  .debug_str:00000000000105a5 .LASF5220
C:\Users\CYMR90~1\AppData\Local\Temp\ccLNaGfc.s:25104  .debug_str:000000000000d52a .LASF5221
C:\Users\CYMR90~1\AppData\Local\Temp\ccLNaGfc.s:29605  .debug_str:000000000001f66f .LASF5222
C:\Users\CYMR90~1\AppData\Local\Temp\ccLNaGfc.s:24106  .debug_str:00000000000094a0 .LASF5223
C:\Users\CYMR90~1\AppData\Local\Temp\ccLNaGfc.s:31641  .debug_str:0000000000027456 .LASF5224
C:\Users\CYMR90~1\AppData\Local\Temp\ccLNaGfc.s:30715  .debug_str:00000000000238d9 .LASF5225
C:\Users\CYMR90~1\AppData\Local\Temp\ccLNaGfc.s:24642  .debug_str:000000000000b63d .LASF5226
C:\Users\CYMR90~1\AppData\Local\Temp\ccLNaGfc.s:23904  .debug_str:0000000000008786 .LASF5227
C:\Users\CYMR90~1\AppData\Local\Temp\ccLNaGfc.s:30457  .debug_str:00000000000229ce .LASF5228
C:\Users\CYMR90~1\AppData\Local\Temp\ccLNaGfc.s:29271  .debug_str:000000000001e226 .LASF5229
C:\Users\CYMR90~1\AppData\Local\Temp\ccLNaGfc.s:27855  .debug_str:00000000000184ae .LASF5230
C:\Users\CYMR90~1\AppData\Local\Temp\ccLNaGfc.s:23226  .debug_str:0000000000005c52 .LASF5231
C:\Users\CYMR90~1\AppData\Local\Temp\ccLNaGfc.s:29917  .debug_str:00000000000208e4 .LASF5232
C:\Users\CYMR90~1\AppData\Local\Temp\ccLNaGfc.s:23768  .debug_str:0000000000007dcb .LASF5233
C:\Users\CYMR90~1\AppData\Local\Temp\ccLNaGfc.s:23220  .debug_str:0000000000005c0e .LASF5234
C:\Users\CYMR90~1\AppData\Local\Temp\ccLNaGfc.s:23524  .debug_str:0000000000006e35 .LASF5235
C:\Users\CYMR90~1\AppData\Local\Temp\ccLNaGfc.s:29889  .debug_str:000000000002075a .LASF5236
C:\Users\CYMR90~1\AppData\Local\Temp\ccLNaGfc.s:26352  .debug_str:0000000000012381 .LASF5237
C:\Users\CYMR90~1\AppData\Local\Temp\ccLNaGfc.s:24744  .debug_str:000000000000bdc5 .LASF5238
C:\Users\CYMR90~1\AppData\Local\Temp\ccLNaGfc.s:31831  .debug_str:000000000002811c .LASF5239
C:\Users\CYMR90~1\AppData\Local\Temp\ccLNaGfc.s:31421  .debug_str:0000000000026718 .LASF5240
C:\Users\CYMR90~1\AppData\Local\Temp\ccLNaGfc.s:29815  .debug_str:000000000002030f .LASF5241
C:\Users\CYMR90~1\AppData\Local\Temp\ccLNaGfc.s:29765  .debug_str:000000000002002e .LASF5242
C:\Users\CYMR90~1\AppData\Local\Temp\ccLNaGfc.s:26658  .debug_str:00000000000137aa .LASF5243
C:\Users\CYMR90~1\AppData\Local\Temp\ccLNaGfc.s:32987  .debug_str:000000000002ca99 .LASF5244
C:\Users\CYMR90~1\AppData\Local\Temp\ccLNaGfc.s:29239  .debug_str:000000000001dfb7 .LASF5245
C:\Users\CYMR90~1\AppData\Local\Temp\ccLNaGfc.s:30007  .debug_str:0000000000020e9c .LASF5246
C:\Users\CYMR90~1\AppData\Local\Temp\ccLNaGfc.s:30167  .debug_str:00000000000217f0 .LASF5247
C:\Users\CYMR90~1\AppData\Local\Temp\ccLNaGfc.s:25066  .debug_str:000000000000d266 .LASF5248
C:\Users\CYMR90~1\AppData\Local\Temp\ccLNaGfc.s:29187  .debug_str:000000000001dcb6 .LASF5249
C:\Users\CYMR90~1\AppData\Local\Temp\ccLNaGfc.s:27739  .debug_str:0000000000017dbf .LASF5250
C:\Users\CYMR90~1\AppData\Local\Temp\ccLNaGfc.s:26898  .debug_str:0000000000014609 .LASF5251
C:\Users\CYMR90~1\AppData\Local\Temp\ccLNaGfc.s:25194  .debug_str:000000000000dad3 .LASF5252
C:\Users\CYMR90~1\AppData\Local\Temp\ccLNaGfc.s:27102  .debug_str:0000000000015383 .LASF5253
C:\Users\CYMR90~1\AppData\Local\Temp\ccLNaGfc.s:25130  .debug_str:000000000000d741 .LASF5254
C:\Users\CYMR90~1\AppData\Local\Temp\ccLNaGfc.s:26770  .debug_str:0000000000013e84 .LASF5255
C:\Users\CYMR90~1\AppData\Local\Temp\ccLNaGfc.s:22480  .debug_str:0000000000002c07 .LASF5256
C:\Users\CYMR90~1\AppData\Local\Temp\ccLNaGfc.s:24320  .debug_str:000000000000a1fa .LASF5257
C:\Users\CYMR90~1\AppData\Local\Temp\ccLNaGfc.s:31159  .debug_str:00000000000255b5 .LASF5258
C:\Users\CYMR90~1\AppData\Local\Temp\ccLNaGfc.s:29097  .debug_str:000000000001d6e8 .LASF5259
C:\Users\CYMR90~1\AppData\Local\Temp\ccLNaGfc.s:33067  .debug_str:000000000002cfe3 .LASF5260
C:\Users\CYMR90~1\AppData\Local\Temp\ccLNaGfc.s:32405  .debug_str:000000000002a55d .LASF5261
C:\Users\CYMR90~1\AppData\Local\Temp\ccLNaGfc.s:24352  .debug_str:000000000000a3e5 .LASF5262
C:\Users\CYMR90~1\AppData\Local\Temp\ccLNaGfc.s:25162  .debug_str:000000000000d92a .LASF5263
C:\Users\CYMR90~1\AppData\Local\Temp\ccLNaGfc.s:29885  .debug_str:0000000000020724 .LASF5264
C:\Users\CYMR90~1\AppData\Local\Temp\ccLNaGfc.s:31261  .debug_str:0000000000025d36 .LASF5265
C:\Users\CYMR90~1\AppData\Local\Temp\ccLNaGfc.s:28077  .debug_str:000000000001925b .LASF5266
C:\Users\CYMR90~1\AppData\Local\Temp\ccLNaGfc.s:24382  .debug_str:000000000000a5ca .LASF5267
C:\Users\CYMR90~1\AppData\Local\Temp\ccLNaGfc.s:28539  .debug_str:000000000001b230 .LASF5268
C:\Users\CYMR90~1\AppData\Local\Temp\ccLNaGfc.s:25780  .debug_str:000000000000fed5 .LASF5269
C:\Users\CYMR90~1\AppData\Local\Temp\ccLNaGfc.s:22150  .debug_str:0000000000001684 .LASF5270
C:\Users\CYMR90~1\AppData\Local\Temp\ccLNaGfc.s:24934  .debug_str:000000000000c9fd .LASF5271
C:\Users\CYMR90~1\AppData\Local\Temp\ccLNaGfc.s:25070  .debug_str:000000000000d2ac .LASF5272
C:\Users\CYMR90~1\AppData\Local\Temp\ccLNaGfc.s:26154  .debug_str:00000000000115ca .LASF5273
C:\Users\CYMR90~1\AppData\Local\Temp\ccLNaGfc.s:29233  .debug_str:000000000001df56 .LASF5274
C:\Users\CYMR90~1\AppData\Local\Temp\ccLNaGfc.s:26876  .debug_str:00000000000144e6 .LASF5275
C:\Users\CYMR90~1\AppData\Local\Temp\ccLNaGfc.s:24174  .debug_str:00000000000098ec .LASF5276
C:\Users\CYMR90~1\AppData\Local\Temp\ccLNaGfc.s:29121  .debug_str:000000000001d867 .LASF5277
C:\Users\CYMR90~1\AppData\Local\Temp\ccLNaGfc.s:27667  .debug_str:00000000000178f7 .LASF5278
C:\Users\CYMR90~1\AppData\Local\Temp\ccLNaGfc.s:30475  .debug_str:0000000000022aa6 .LASF5279
C:\Users\CYMR90~1\AppData\Local\Temp\ccLNaGfc.s:21796  .debug_str:00000000000000a6 .LASF5280
C:\Users\CYMR90~1\AppData\Local\Temp\ccLNaGfc.s:29851  .debug_str:000000000002055d .LASF5281
C:\Users\CYMR90~1\AppData\Local\Temp\ccLNaGfc.s:33141  .debug_str:000000000002d483 .LASF5282
C:\Users\CYMR90~1\AppData\Local\Temp\ccLNaGfc.s:29267  .debug_str:000000000001e1ed .LASF5283
C:\Users\CYMR90~1\AppData\Local\Temp\ccLNaGfc.s:23272  .debug_str:0000000000005f16 .LASF5284
C:\Users\CYMR90~1\AppData\Local\Temp\ccLNaGfc.s:22422  .debug_str:0000000000002815 .LASF5285
C:\Users\CYMR90~1\AppData\Local\Temp\ccLNaGfc.s:30087  .debug_str:0000000000021368 .LASF5286
C:\Users\CYMR90~1\AppData\Local\Temp\ccLNaGfc.s:31955  .debug_str:00000000000289cf .LASF5287
C:\Users\CYMR90~1\AppData\Local\Temp\ccLNaGfc.s:21890  .debug_str:000000000000061d .LASF5288
C:\Users\CYMR90~1\AppData\Local\Temp\ccLNaGfc.s:26380  .debug_str:0000000000012519 .LASF5289
C:\Users\CYMR90~1\AppData\Local\Temp\ccLNaGfc.s:29329  .debug_str:000000000001e5ba .LASF5290
C:\Users\CYMR90~1\AppData\Local\Temp\ccLNaGfc.s:26350  .debug_str:0000000000012368 .LASF5291
C:\Users\CYMR90~1\AppData\Local\Temp\ccLNaGfc.s:23394  .debug_str:0000000000006638 .LASF5292
C:\Users\CYMR90~1\AppData\Local\Temp\ccLNaGfc.s:29583  .debug_str:000000000001f4e2 .LASF5293
C:\Users\CYMR90~1\AppData\Local\Temp\ccLNaGfc.s:27679  .debug_str:00000000000179d8 .LASF5294
C:\Users\CYMR90~1\AppData\Local\Temp\ccLNaGfc.s:22152  .debug_str:0000000000001724 .LASF5295
C:\Users\CYMR90~1\AppData\Local\Temp\ccLNaGfc.s:29805  .debug_str:000000000002027f .LASF5296
C:\Users\CYMR90~1\AppData\Local\Temp\ccLNaGfc.s:22494  .debug_str:0000000000002d2a .LASF5297
C:\Users\CYMR90~1\AppData\Local\Temp\ccLNaGfc.s:30617  .debug_str:0000000000023389 .LASF5298
C:\Users\CYMR90~1\AppData\Local\Temp\ccLNaGfc.s:22106  .debug_str:00000000000013cf .LASF5299
C:\Users\CYMR90~1\AppData\Local\Temp\ccLNaGfc.s:31589  .debug_str:0000000000027106 .LASF5300
C:\Users\CYMR90~1\AppData\Local\Temp\ccLNaGfc.s:27336  .debug_str:0000000000016205 .LASF5301
C:\Users\CYMR90~1\AppData\Local\Temp\ccLNaGfc.s:22720  .debug_str:0000000000003b72 .LASF5302
C:\Users\CYMR90~1\AppData\Local\Temp\ccLNaGfc.s:24606  .debug_str:000000000000b45e .LASF5303
C:\Users\CYMR90~1\AppData\Local\Temp\ccLNaGfc.s:23544  .debug_str:0000000000006f8f .LASF5304
C:\Users\CYMR90~1\AppData\Local\Temp\ccLNaGfc.s:23300  .debug_str:00000000000060b4 .LASF5305
C:\Users\CYMR90~1\AppData\Local\Temp\ccLNaGfc.s:31733  .debug_str:0000000000027aa5 .LASF5306
C:\Users\CYMR90~1\AppData\Local\Temp\ccLNaGfc.s:23864  .debug_str:0000000000008502 .LASF5307
C:\Users\CYMR90~1\AppData\Local\Temp\ccLNaGfc.s:32697  .debug_str:000000000002b73a .LASF5308
C:\Users\CYMR90~1\AppData\Local\Temp\ccLNaGfc.s:29881  .debug_str:00000000000206f7 .LASF5309
C:\Users\CYMR90~1\AppData\Local\Temp\ccLNaGfc.s:28167  .debug_str:000000000001985c .LASF5310
C:\Users\CYMR90~1\AppData\Local\Temp\ccLNaGfc.s:22028  .debug_str:0000000000000f8b .LASF5311
C:\Users\CYMR90~1\AppData\Local\Temp\ccLNaGfc.s:29713  .debug_str:000000000001fd10 .LASF5312
C:\Users\CYMR90~1\AppData\Local\Temp\ccLNaGfc.s:23246  .debug_str:0000000000005d8b .LASF5313
C:\Users\CYMR90~1\AppData\Local\Temp\ccLNaGfc.s:32667  .debug_str:000000000002b50b .LASF5314
C:\Users\CYMR90~1\AppData\Local\Temp\ccLNaGfc.s:27400  .debug_str:00000000000165e5 .LASF5315
C:\Users\CYMR90~1\AppData\Local\Temp\ccLNaGfc.s:27200  .debug_str:0000000000015927 .LASF5316
C:\Users\CYMR90~1\AppData\Local\Temp\ccLNaGfc.s:28233  .debug_str:0000000000019d4d .LASF5317
C:\Users\CYMR90~1\AppData\Local\Temp\ccLNaGfc.s:24672  .debug_str:000000000000b8c7 .LASF5318
C:\Users\CYMR90~1\AppData\Local\Temp\ccLNaGfc.s:31043  .debug_str:0000000000024e2c .LASF5319
C:\Users\CYMR90~1\AppData\Local\Temp\ccLNaGfc.s:32645  .debug_str:000000000002b3cb .LASF5320
C:\Users\CYMR90~1\AppData\Local\Temp\ccLNaGfc.s:22776  .debug_str:0000000000003ef6 .LASF5321
C:\Users\CYMR90~1\AppData\Local\Temp\ccLNaGfc.s:29641  .debug_str:000000000001f889 .LASF5322
C:\Users\CYMR90~1\AppData\Local\Temp\ccLNaGfc.s:28921  .debug_str:000000000001ca0a .LASF5323
C:\Users\CYMR90~1\AppData\Local\Temp\ccLNaGfc.s:28595  .debug_str:000000000001b5fd .LASF5324
C:\Users\CYMR90~1\AppData\Local\Temp\ccLNaGfc.s:32397  .debug_str:000000000002a4f0 .LASF5325
C:\Users\CYMR90~1\AppData\Local\Temp\ccLNaGfc.s:30297  .debug_str:000000000002207c .LASF5326
C:\Users\CYMR90~1\AppData\Local\Temp\ccLNaGfc.s:24194  .debug_str:00000000000099e7 .LASF5327
C:\Users\CYMR90~1\AppData\Local\Temp\ccLNaGfc.s:33051  .debug_str:000000000002cec6 .LASF5328
C:\Users\CYMR90~1\AppData\Local\Temp\ccLNaGfc.s:32107  .debug_str:00000000000292e9 .LASF5329
C:\Users\CYMR90~1\AppData\Local\Temp\ccLNaGfc.s:22594  .debug_str:0000000000003352 .LASF5330
C:\Users\CYMR90~1\AppData\Local\Temp\ccLNaGfc.s:30249  .debug_str:0000000000021da9 .LASF5331
C:\Users\CYMR90~1\AppData\Local\Temp\ccLNaGfc.s:33015  .debug_str:000000000002cc35 .LASF5332
C:\Users\CYMR90~1\AppData\Local\Temp\ccLNaGfc.s:29475  .debug_str:000000000001ee86 .LASF5333
C:\Users\CYMR90~1\AppData\Local\Temp\ccLNaGfc.s:32353  .debug_str:000000000002a286 .LASF5334
C:\Users\CYMR90~1\AppData\Local\Temp\ccLNaGfc.s:27276  .debug_str:0000000000015df9 .LASF5335
C:\Users\CYMR90~1\AppData\Local\Temp\ccLNaGfc.s:29405  .debug_str:000000000001ea23 .LASF5336
C:\Users\CYMR90~1\AppData\Local\Temp\ccLNaGfc.s:25668  .debug_str:000000000000f790 .LASF5337
C:\Users\CYMR90~1\AppData\Local\Temp\ccLNaGfc.s:25656  .debug_str:000000000000f6e3 .LASF5338
C:\Users\CYMR90~1\AppData\Local\Temp\ccLNaGfc.s:28623  .debug_str:000000000001b7d7 .LASF5339
C:\Users\CYMR90~1\AppData\Local\Temp\ccLNaGfc.s:27747  .debug_str:0000000000017e48 .LASF5340
C:\Users\CYMR90~1\AppData\Local\Temp\ccLNaGfc.s:22184  .debug_str:00000000000019e6 .LASF5341
C:\Users\CYMR90~1\AppData\Local\Temp\ccLNaGfc.s:28415  .debug_str:000000000001a9b0 .LASF5342
C:\Users\CYMR90~1\AppData\Local\Temp\ccLNaGfc.s:26398  .debug_str:0000000000012649 .LASF5343
C:\Users\CYMR90~1\AppData\Local\Temp\ccLNaGfc.s:27725  .debug_str:0000000000017ce7 .LASF5344
C:\Users\CYMR90~1\AppData\Local\Temp\ccLNaGfc.s:22298  .debug_str:000000000000209b .LASF5345
C:\Users\CYMR90~1\AppData\Local\Temp\ccLNaGfc.s:27272  .debug_str:0000000000015d63 .LASF5346
C:\Users\CYMR90~1\AppData\Local\Temp\ccLNaGfc.s:22942  .debug_str:0000000000004a4b .LASF5347
C:\Users\CYMR90~1\AppData\Local\Temp\ccLNaGfc.s:26156  .debug_str:00000000000115ec .LASF5348
C:\Users\CYMR90~1\AppData\Local\Temp\ccLNaGfc.s:24540  .debug_str:000000000000af8c .LASF5349
C:\Users\CYMR90~1\AppData\Local\Temp\ccLNaGfc.s:31169  .debug_str:0000000000025642 .LASF5350
C:\Users\CYMR90~1\AppData\Local\Temp\ccLNaGfc.s:27927  .debug_str:00000000000188f5 .LASF5351
C:\Users\CYMR90~1\AppData\Local\Temp\ccLNaGfc.s:24360  .debug_str:000000000000a471 .LASF5352
C:\Users\CYMR90~1\AppData\Local\Temp\ccLNaGfc.s:29483  .debug_str:000000000001ef16 .LASF5353
C:\Users\CYMR90~1\AppData\Local\Temp\ccLNaGfc.s:30729  .debug_str:00000000000239b7 .LASF5354
C:\Users\CYMR90~1\AppData\Local\Temp\ccLNaGfc.s:32791  .debug_str:000000000002bd89 .LASF5355
C:\Users\CYMR90~1\AppData\Local\Temp\ccLNaGfc.s:22088  .debug_str:00000000000012db .LASF5356
C:\Users\CYMR90~1\AppData\Local\Temp\ccLNaGfc.s:27559  .debug_str:00000000000172ba .LASF5357
C:\Users\CYMR90~1\AppData\Local\Temp\ccLNaGfc.s:30367  .debug_str:00000000000224c5 .LASF5358
C:\Users\CYMR90~1\AppData\Local\Temp\ccLNaGfc.s:29269  .debug_str:000000000001e20f .LASF5359
C:\Users\CYMR90~1\AppData\Local\Temp\ccLNaGfc.s:25844  .debug_str:0000000000010314 .LASF5360
C:\Users\CYMR90~1\AppData\Local\Temp\ccLNaGfc.s:22270  .debug_str:0000000000001ef8 .LASF5361
C:\Users\CYMR90~1\AppData\Local\Temp\ccLNaGfc.s:28519  .debug_str:000000000001b0b8 .LASF5362
C:\Users\CYMR90~1\AppData\Local\Temp\ccLNaGfc.s:32907  .debug_str:000000000002c54c .LASF5363
C:\Users\CYMR90~1\AppData\Local\Temp\ccLNaGfc.s:26838  .debug_str:0000000000014271 .LASF5364
C:\Users\CYMR90~1\AppData\Local\Temp\ccLNaGfc.s:31965  .debug_str:0000000000028a87 .LASF5365
C:\Users\CYMR90~1\AppData\Local\Temp\ccLNaGfc.s:32909  .debug_str:000000000002c576 .LASF5366
C:\Users\CYMR90~1\AppData\Local\Temp\ccLNaGfc.s:22662  .debug_str:00000000000037d7 .LASF5367
C:\Users\CYMR90~1\AppData\Local\Temp\ccLNaGfc.s:28149  .debug_str:0000000000019780 .LASF5368
C:\Users\CYMR90~1\AppData\Local\Temp\ccLNaGfc.s:27995  .debug_str:0000000000018d57 .LASF5369
C:\Users\CYMR90~1\AppData\Local\Temp\ccLNaGfc.s:26976  .debug_str:0000000000014b3c .LASF5370
C:\Users\CYMR90~1\AppData\Local\Temp\ccLNaGfc.s:32411  .debug_str:000000000002a5a0 .LASF5371
C:\Users\CYMR90~1\AppData\Local\Temp\ccLNaGfc.s:28545  .debug_str:000000000001b2b9 .LASF5372
C:\Users\CYMR90~1\AppData\Local\Temp\ccLNaGfc.s:29441  .debug_str:000000000001ec63 .LASF5373
C:\Users\CYMR90~1\AppData\Local\Temp\ccLNaGfc.s:21816  .debug_str:00000000000001da .LASF5374
C:\Users\CYMR90~1\AppData\Local\Temp\ccLNaGfc.s:31637  .debug_str:0000000000027421 .LASF5375
C:\Users\CYMR90~1\AppData\Local\Temp\ccLNaGfc.s:31663  .debug_str:00000000000275b2 .LASF5376
C:\Users\CYMR90~1\AppData\Local\Temp\ccLNaGfc.s:23704  .debug_str:00000000000079eb .LASF5377
C:\Users\CYMR90~1\AppData\Local\Temp\ccLNaGfc.s:31907  .debug_str:00000000000286bb .LASF5378
C:\Users\CYMR90~1\AppData\Local\Temp\ccLNaGfc.s:26644  .debug_str:00000000000136ac .LASF5379
C:\Users\CYMR90~1\AppData\Local\Temp\ccLNaGfc.s:23154  .debug_str:00000000000057f1 .LASF5380
C:\Users\CYMR90~1\AppData\Local\Temp\ccLNaGfc.s:26036  .debug_str:0000000000010f5f .LASF5381
C:\Users\CYMR90~1\AppData\Local\Temp\ccLNaGfc.s:27699  .debug_str:0000000000017b02 .LASF5382
C:\Users\CYMR90~1\AppData\Local\Temp\ccLNaGfc.s:23554  .debug_str:000000000000706b .LASF5383
C:\Users\CYMR90~1\AppData\Local\Temp\ccLNaGfc.s:22696  .debug_str:0000000000003a01 .LASF5384
C:\Users\CYMR90~1\AppData\Local\Temp\ccLNaGfc.s:31481  .debug_str:0000000000026aa2 .LASF5385
C:\Users\CYMR90~1\AppData\Local\Temp\ccLNaGfc.s:27957  .debug_str:0000000000018ad5 .LASF5386
C:\Users\CYMR90~1\AppData\Local\Temp\ccLNaGfc.s:32921  .debug_str:000000000002c671 .LASF5387
C:\Users\CYMR90~1\AppData\Local\Temp\ccLNaGfc.s:30305  .debug_str:000000000002210d .LASF5388
C:\Users\CYMR90~1\AppData\Local\Temp\ccLNaGfc.s:25842  .debug_str:00000000000102f2 .LASF5389
C:\Users\CYMR90~1\AppData\Local\Temp\ccLNaGfc.s:29903  .debug_str:0000000000020814 .LASF5390
C:\Users\CYMR90~1\AppData\Local\Temp\ccLNaGfc.s:26166  .debug_str:0000000000011670 .LASF5391
C:\Users\CYMR90~1\AppData\Local\Temp\ccLNaGfc.s:31899  .debug_str:00000000000285a9 .LASF5392
C:\Users\CYMR90~1\AppData\Local\Temp\ccLNaGfc.s:29069  .debug_str:000000000001d54f .LASF5393
C:\Users\CYMR90~1\AppData\Local\Temp\ccLNaGfc.s:24288  .debug_str:000000000000a00c .LASF5394
C:\Users\CYMR90~1\AppData\Local\Temp\ccLNaGfc.s:28307  .debug_str:000000000001a1bc .LASF5395
C:\Users\CYMR90~1\AppData\Local\Temp\ccLNaGfc.s:24822  .debug_str:000000000000c332 .LASF5396
C:\Users\CYMR90~1\AppData\Local\Temp\ccLNaGfc.s:28581  .debug_str:000000000001b516 .LASF5397
C:\Users\CYMR90~1\AppData\Local\Temp\ccLNaGfc.s:31551  .debug_str:0000000000026f01 .LASF5398
C:\Users\CYMR90~1\AppData\Local\Temp\ccLNaGfc.s:33023  .debug_str:000000000002ccdd .LASF5399
C:\Users\CYMR90~1\AppData\Local\Temp\ccLNaGfc.s:29093  .debug_str:000000000001d6b7 .LASF5400
C:\Users\CYMR90~1\AppData\Local\Temp\ccLNaGfc.s:30041  .debug_str:00000000000210cd .LASF5401
C:\Users\CYMR90~1\AppData\Local\Temp\ccLNaGfc.s:25792  .debug_str:000000000000ffbe .LASF5402
C:\Users\CYMR90~1\AppData\Local\Temp\ccLNaGfc.s:30045  .debug_str:0000000000021104 .LASF5403
C:\Users\CYMR90~1\AppData\Local\Temp\ccLNaGfc.s:30405  .debug_str:00000000000226f6 .LASF5404
C:\Users\CYMR90~1\AppData\Local\Temp\ccLNaGfc.s:30083  .debug_str:0000000000021335 .LASF5405
C:\Users\CYMR90~1\AppData\Local\Temp\ccLNaGfc.s:27681  .debug_str:00000000000179f1 .LASF5406
C:\Users\CYMR90~1\AppData\Local\Temp\ccLNaGfc.s:30317  .debug_str:00000000000221be .LASF5407
C:\Users\CYMR90~1\AppData\Local\Temp\ccLNaGfc.s:27683  .debug_str:0000000000017a08 .LASF5408
C:\Users\CYMR90~1\AppData\Local\Temp\ccLNaGfc.s:25922  .debug_str:00000000000107ed .LASF5409
C:\Users\CYMR90~1\AppData\Local\Temp\ccLNaGfc.s:25726  .debug_str:000000000000fba1 .LASF5410
C:\Users\CYMR90~1\AppData\Local\Temp\ccLNaGfc.s:31457  .debug_str:0000000000026928 .LASF5411
C:\Users\CYMR90~1\AppData\Local\Temp\ccLNaGfc.s:25606  .debug_str:000000000000f3d6 .LASF5412
C:\Users\CYMR90~1\AppData\Local\Temp\ccLNaGfc.s:32955  .debug_str:000000000002c8b5 .LASF5413
C:\Users\CYMR90~1\AppData\Local\Temp\ccLNaGfc.s:31353  .debug_str:00000000000262f4 .LASF5414
C:\Users\CYMR90~1\AppData\Local\Temp\ccLNaGfc.s:21828  .debug_str:0000000000000275 .LASF5415
C:\Users\CYMR90~1\AppData\Local\Temp\ccLNaGfc.s:24982  .debug_str:000000000000cd5d .LASF5416
C:\Users\CYMR90~1\AppData\Local\Temp\ccLNaGfc.s:23624  .debug_str:0000000000007506 .LASF5417
C:\Users\CYMR90~1\AppData\Local\Temp\ccLNaGfc.s:27370  .debug_str:0000000000016436 .LASF5418
C:\Users\CYMR90~1\AppData\Local\Temp\ccLNaGfc.s:27781  .debug_str:000000000001803b .LASF5419
C:\Users\CYMR90~1\AppData\Local\Temp\ccLNaGfc.s:27342  .debug_str:000000000001628a .LASF5420
C:\Users\CYMR90~1\AppData\Local\Temp\ccLNaGfc.s:27448  .debug_str:0000000000016956 .LASF5421
C:\Users\CYMR90~1\AppData\Local\Temp\ccLNaGfc.s:26040  .debug_str:0000000000010f97 .LASF5422
C:\Users\CYMR90~1\AppData\Local\Temp\ccLNaGfc.s:28889  .debug_str:000000000001c83c .LASF5423
C:\Users\CYMR90~1\AppData\Local\Temp\ccLNaGfc.s:31123  .debug_str:0000000000025348 .LASF5424
C:\Users\CYMR90~1\AppData\Local\Temp\ccLNaGfc.s:31131  .debug_str:00000000000253c0 .LASF5425
C:\Users\CYMR90~1\AppData\Local\Temp\ccLNaGfc.s:31535  .debug_str:0000000000026e05 .LASF5426
C:\Users\CYMR90~1\AppData\Local\Temp\ccLNaGfc.s:32735  .debug_str:000000000002b9c5 .LASF5427
C:\Users\CYMR90~1\AppData\Local\Temp\ccLNaGfc.s:32595  .debug_str:000000000002b0d2 .LASF5428
C:\Users\CYMR90~1\AppData\Local\Temp\ccLNaGfc.s:29161  .debug_str:000000000001db44 .LASF5429
C:\Users\CYMR90~1\AppData\Local\Temp\ccLNaGfc.s:32947  .debug_str:000000000002c806 .LASF5430
C:\Users\CYMR90~1\AppData\Local\Temp\ccLNaGfc.s:31283  .debug_str:0000000000025ea0 .LASF5431
C:\Users\CYMR90~1\AppData\Local\Temp\ccLNaGfc.s:30433  .debug_str:000000000002287d .LASF5432
C:\Users\CYMR90~1\AppData\Local\Temp\ccLNaGfc.s:26432  .debug_str:0000000000012881 .LASF5433
C:\Users\CYMR90~1\AppData\Local\Temp\ccLNaGfc.s:23962  .debug_str:0000000000008bac .LASF5434
C:\Users\CYMR90~1\AppData\Local\Temp\ccLNaGfc.s:29469  .debug_str:000000000001ee3a .LASF5435
C:\Users\CYMR90~1\AppData\Local\Temp\ccLNaGfc.s:27446  .debug_str:000000000001693b .LASF5436
C:\Users\CYMR90~1\AppData\Local\Temp\ccLNaGfc.s:23408  .debug_str:0000000000006714 .LASF5437
C:\Users\CYMR90~1\AppData\Local\Temp\ccLNaGfc.s:29123  .debug_str:000000000001d888 .LASF5438
C:\Users\CYMR90~1\AppData\Local\Temp\ccLNaGfc.s:31755  .debug_str:0000000000027bde .LASF5439
C:\Users\CYMR90~1\AppData\Local\Temp\ccLNaGfc.s:27118  .debug_str:0000000000015480 .LASF5440
C:\Users\CYMR90~1\AppData\Local\Temp\ccLNaGfc.s:27555  .debug_str:0000000000017282 .LASF5441
C:\Users\CYMR90~1\AppData\Local\Temp\ccLNaGfc.s:26320  .debug_str:0000000000012116 .LASF5442
C:\Users\CYMR90~1\AppData\Local\Temp\ccLNaGfc.s:27088  .debug_str:00000000000152a5 .LASF5443
C:\Users\CYMR90~1\AppData\Local\Temp\ccLNaGfc.s:22142  .debug_str:00000000000015cd .LASF5444
C:\Users\CYMR90~1\AppData\Local\Temp\ccLNaGfc.s:23256  .debug_str:0000000000005e34 .LASF5445
C:\Users\CYMR90~1\AppData\Local\Temp\ccLNaGfc.s:23580  .debug_str:00000000000071d0 .LASF5446
C:\Users\CYMR90~1\AppData\Local\Temp\ccLNaGfc.s:22034  .debug_str:0000000000000fd7 .LASF5447
C:\Users\CYMR90~1\AppData\Local\Temp\ccLNaGfc.s:32239  .debug_str:0000000000029be1 .LASF5448
C:\Users\CYMR90~1\AppData\Local\Temp\ccLNaGfc.s:22670  .debug_str:0000000000003834 .LASF5449
C:\Users\CYMR90~1\AppData\Local\Temp\ccLNaGfc.s:29835  .debug_str:0000000000020469 .LASF5450
C:\Users\CYMR90~1\AppData\Local\Temp\ccLNaGfc.s:32815  .debug_str:000000000002bf3e .LASF5451
C:\Users\CYMR90~1\AppData\Local\Temp\ccLNaGfc.s:27761  .debug_str:0000000000017f01 .LASF5452
C:\Users\CYMR90~1\AppData\Local\Temp\ccLNaGfc.s:25470  .debug_str:000000000000eb7d .LASF5453
C:\Users\CYMR90~1\AppData\Local\Temp\ccLNaGfc.s:22012  .debug_str:0000000000000dfd .LASF5454
C:\Users\CYMR90~1\AppData\Local\Temp\ccLNaGfc.s:25002  .debug_str:000000000000cead .LASF5455
C:\Users\CYMR90~1\AppData\Local\Temp\ccLNaGfc.s:26920  .debug_str:000000000001475b .LASF5456
C:\Users\CYMR90~1\AppData\Local\Temp\ccLNaGfc.s:23746  .debug_str:0000000000007c95 .LASF5457
C:\Users\CYMR90~1\AppData\Local\Temp\ccLNaGfc.s:30095  .debug_str:00000000000213de .LASF5458
C:\Users\CYMR90~1\AppData\Local\Temp\ccLNaGfc.s:32315  .debug_str:000000000002a040 .LASF5459
C:\Users\CYMR90~1\AppData\Local\Temp\ccLNaGfc.s:22614  .debug_str:00000000000034c6 .LASF5460
C:\Users\CYMR90~1\AppData\Local\Temp\ccLNaGfc.s:24670  .debug_str:000000000000b89d .LASF5461
C:\Users\CYMR90~1\AppData\Local\Temp\ccLNaGfc.s:25674  .debug_str:000000000000f7e4 .LASF5462
C:\Users\CYMR90~1\AppData\Local\Temp\ccLNaGfc.s:32797  .debug_str:000000000002bdda .LASF5463
C:\Users\CYMR90~1\AppData\Local\Temp\ccLNaGfc.s:29627  .debug_str:000000000001f79f .LASF5464
C:\Users\CYMR90~1\AppData\Local\Temp\ccLNaGfc.s:30125  .debug_str:0000000000021584 .LASF5465
C:\Users\CYMR90~1\AppData\Local\Temp\ccLNaGfc.s:31981  .debug_str:0000000000028ba6 .LASF5466
C:\Users\CYMR90~1\AppData\Local\Temp\ccLNaGfc.s:27943  .debug_str:00000000000189c1 .LASF5467
C:\Users\CYMR90~1\AppData\Local\Temp\ccLNaGfc.s:29739  .debug_str:000000000001fe95 .LASF5468
C:\Users\CYMR90~1\AppData\Local\Temp\ccLNaGfc.s:24224  .debug_str:0000000000009c02 .LASF5469
C:\Users\CYMR90~1\AppData\Local\Temp\ccLNaGfc.s:21972  .debug_str:0000000000000b96 .LASF5470
C:\Users\CYMR90~1\AppData\Local\Temp\ccLNaGfc.s:28775  .debug_str:000000000001c11c .LASF5471
C:\Users\CYMR90~1\AppData\Local\Temp\ccLNaGfc.s:32765  .debug_str:000000000002bba8 .LASF5472
C:\Users\CYMR90~1\AppData\Local\Temp\ccLNaGfc.s:22872  .debug_str:0000000000004582 .LASF5473
C:\Users\CYMR90~1\AppData\Local\Temp\ccLNaGfc.s:25608  .debug_str:000000000000f3ea .LASF5474
C:\Users\CYMR90~1\AppData\Local\Temp\ccLNaGfc.s:30519  .debug_str:0000000000022d9a .LASF5475
C:\Users\CYMR90~1\AppData\Local\Temp\ccLNaGfc.s:29523  .debug_str:000000000001f153 .LASF5476
C:\Users\CYMR90~1\AppData\Local\Temp\ccLNaGfc.s:24034  .debug_str:000000000000905f .LASF5477
C:\Users\CYMR90~1\AppData\Local\Temp\ccLNaGfc.s:22730  .debug_str:0000000000003c3f .LASF5478
C:\Users\CYMR90~1\AppData\Local\Temp\ccLNaGfc.s:28231  .debug_str:0000000000019d28 .LASF5479
C:\Users\CYMR90~1\AppData\Local\Temp\ccLNaGfc.s:22254  .debug_str:0000000000001e02 .LASF5480
C:\Users\CYMR90~1\AppData\Local\Temp\ccLNaGfc.s:29263  .debug_str:000000000001e12c .LASF5481
C:\Users\CYMR90~1\AppData\Local\Temp\ccLNaGfc.s:24490  .debug_str:000000000000ac7f .LASF5482
C:\Users\CYMR90~1\AppData\Local\Temp\ccLNaGfc.s:23290  .debug_str:0000000000005ffb .LASF5483
C:\Users\CYMR90~1\AppData\Local\Temp\ccLNaGfc.s:21852  .debug_str:00000000000003f9 .LASF5484
C:\Users\CYMR90~1\AppData\Local\Temp\ccLNaGfc.s:28975  .debug_str:000000000001ce0f .LASF5485
C:\Users\CYMR90~1\AppData\Local\Temp\ccLNaGfc.s:28953  .debug_str:000000000001ccaf .LASF5486
C:\Users\CYMR90~1\AppData\Local\Temp\ccLNaGfc.s:33019  .debug_str:000000000002cc7c .LASF5487
C:\Users\CYMR90~1\AppData\Local\Temp\ccLNaGfc.s:27478  .debug_str:0000000000016b53 .LASF5488
C:\Users\CYMR90~1\AppData\Local\Temp\ccLNaGfc.s:29137  .debug_str:000000000001d964 .LASF5489
C:\Users\CYMR90~1\AppData\Local\Temp\ccLNaGfc.s:27410  .debug_str:000000000001667d .LASF5490
C:\Users\CYMR90~1\AppData\Local\Temp\ccLNaGfc.s:21984  .debug_str:0000000000000c4e .LASF5491
C:\Users\CYMR90~1\AppData\Local\Temp\ccLNaGfc.s:23216  .debug_str:0000000000005bb1 .LASF5492
C:\Users\CYMR90~1\AppData\Local\Temp\ccLNaGfc.s:29009  .debug_str:000000000001d041 .LASF5493
C:\Users\CYMR90~1\AppData\Local\Temp\ccLNaGfc.s:30175  .debug_str:000000000002185c .LASF5494
C:\Users\CYMR90~1\AppData\Local\Temp\ccLNaGfc.s:27100  .debug_str:0000000000015364 .LASF5495
C:\Users\CYMR90~1\AppData\Local\Temp\ccLNaGfc.s:29915  .debug_str:00000000000208c5 .LASF5496
C:\Users\CYMR90~1\AppData\Local\Temp\ccLNaGfc.s:24694  .debug_str:000000000000ba7b .LASF5497
C:\Users\CYMR90~1\AppData\Local\Temp\ccLNaGfc.s:29937  .debug_str:0000000000020a0c .LASF5498
C:\Users\CYMR90~1\AppData\Local\Temp\ccLNaGfc.s:33171  .debug_str:000000000002d66f .LASF5499
C:\Users\CYMR90~1\AppData\Local\Temp\ccLNaGfc.s:32449  .debug_str:000000000002a7d9 .LASF5500
C:\Users\CYMR90~1\AppData\Local\Temp\ccLNaGfc.s:25962  .debug_str:0000000000010a53 .LASF5501
C:\Users\CYMR90~1\AppData\Local\Temp\ccLNaGfc.s:32361  .debug_str:000000000002a2c9 .LASF5502
C:\Users\CYMR90~1\AppData\Local\Temp\ccLNaGfc.s:28935  .debug_str:000000000001cadb .LASF5503
C:\Users\CYMR90~1\AppData\Local\Temp\ccLNaGfc.s:23130  .debug_str:0000000000005642 .LASF5504
C:\Users\CYMR90~1\AppData\Local\Temp\ccLNaGfc.s:25230  .debug_str:000000000000dcfc .LASF5505
C:\Users\CYMR90~1\AppData\Local\Temp\ccLNaGfc.s:25766  .debug_str:000000000000fe06 .LASF5506
C:\Users\CYMR90~1\AppData\Local\Temp\ccLNaGfc.s:24384  .debug_str:000000000000a61b .LASF5507
C:\Users\CYMR90~1\AppData\Local\Temp\ccLNaGfc.s:27178  .debug_str:00000000000157cb .LASF5508
C:\Users\CYMR90~1\AppData\Local\Temp\ccLNaGfc.s:25708  .debug_str:000000000000faae .LASF5509
C:\Users\CYMR90~1\AppData\Local\Temp\ccLNaGfc.s:28601  .debug_str:000000000001b67f .LASF5510
C:\Users\CYMR90~1\AppData\Local\Temp\ccLNaGfc.s:27264  .debug_str:0000000000015ce1 .LASF5511
C:\Users\CYMR90~1\AppData\Local\Temp\ccLNaGfc.s:22416  .debug_str:00000000000027a1 .LASF5512
C:\Users\CYMR90~1\AppData\Local\Temp\ccLNaGfc.s:26620  .debug_str:00000000000134ea .LASF5513
C:\Users\CYMR90~1\AppData\Local\Temp\ccLNaGfc.s:33049  .debug_str:000000000002ce96 .LASF5514
C:\Users\CYMR90~1\AppData\Local\Temp\ccLNaGfc.s:31001  .debug_str:0000000000024ace .LASF5515
C:\Users\CYMR90~1\AppData\Local\Temp\ccLNaGfc.s:22170  .debug_str:00000000000018d2 .LASF5516
C:\Users\CYMR90~1\AppData\Local\Temp\ccLNaGfc.s:25822  .debug_str:00000000000101c1 .LASF5517
C:\Users\CYMR90~1\AppData\Local\Temp\ccLNaGfc.s:29385  .debug_str:000000000001e8ec .LASF5518
C:\Users\CYMR90~1\AppData\Local\Temp\ccLNaGfc.s:31521  .debug_str:0000000000026d2c .LASF5519
C:\Users\CYMR90~1\AppData\Local\Temp\ccLNaGfc.s:28761  .debug_str:000000000001c01b .LASF5520
C:\Users\CYMR90~1\AppData\Local\Temp\ccLNaGfc.s:27729  .debug_str:0000000000017d2b .LASF5521
C:\Users\CYMR90~1\AppData\Local\Temp\ccLNaGfc.s:27038  .debug_str:0000000000014f19 .LASF5522
C:\Users\CYMR90~1\AppData\Local\Temp\ccLNaGfc.s:23948  .debug_str:0000000000008ac3 .LASF5523
C:\Users\CYMR90~1\AppData\Local\Temp\ccLNaGfc.s:28783  .debug_str:000000000001c1bf .LASF5524
C:\Users\CYMR90~1\AppData\Local\Temp\ccLNaGfc.s:23700  .debug_str:0000000000007986 .LASF5525
C:\Users\CYMR90~1\AppData\Local\Temp\ccLNaGfc.s:24880  .debug_str:000000000000c688 .LASF5526
C:\Users\CYMR90~1\AppData\Local\Temp\ccLNaGfc.s:29203  .debug_str:000000000001ddc5 .LASF5527
C:\Users\CYMR90~1\AppData\Local\Temp\ccLNaGfc.s:22802  .debug_str:000000000000407d .LASF5528
C:\Users\CYMR90~1\AppData\Local\Temp\ccLNaGfc.s:33109  .debug_str:000000000002d2be .LASF5529
C:\Users\CYMR90~1\AppData\Local\Temp\ccLNaGfc.s:27931  .debug_str:0000000000018933 .LASF5530
C:\Users\CYMR90~1\AppData\Local\Temp\ccLNaGfc.s:24488  .debug_str:000000000000ac60 .LASF5531
C:\Users\CYMR90~1\AppData\Local\Temp\ccLNaGfc.s:23982  .debug_str:0000000000008cf2 .LASF5532
C:\Users\CYMR90~1\AppData\Local\Temp\ccLNaGfc.s:31487  .debug_str:0000000000026b14 .LASF5533
C:\Users\CYMR90~1\AppData\Local\Temp\ccLNaGfc.s:22060  .debug_str:000000000000113a .LASF5534
C:\Users\CYMR90~1\AppData\Local\Temp\ccLNaGfc.s:30315  .debug_str:000000000002219f .LASF5535
C:\Users\CYMR90~1\AppData\Local\Temp\ccLNaGfc.s:31345  .debug_str:0000000000026270 .LASF5536
C:\Users\CYMR90~1\AppData\Local\Temp\ccLNaGfc.s:26872  .debug_str:00000000000144bb .LASF5537
C:\Users\CYMR90~1\AppData\Local\Temp\ccLNaGfc.s:25264  .debug_str:000000000000defd .LASF5538
C:\Users\CYMR90~1\AppData\Local\Temp\ccLNaGfc.s:28593  .debug_str:000000000001b5e0 .LASF5539
C:\Users\CYMR90~1\AppData\Local\Temp\ccLNaGfc.s:22378  .debug_str:0000000000002546 .LASF5540
C:\Users\CYMR90~1\AppData\Local\Temp\ccLNaGfc.s:32567  .debug_str:000000000002af0c .LASF5541
C:\Users\CYMR90~1\AppData\Local\Temp\ccLNaGfc.s:23764  .debug_str:0000000000007d94 .LASF5542
C:\Users\CYMR90~1\AppData\Local\Temp\ccLNaGfc.s:32139  .debug_str:00000000000294fb .LASF5543
C:\Users\CYMR90~1\AppData\Local\Temp\ccLNaGfc.s:22748  .debug_str:0000000000003d3e .LASF5544
C:\Users\CYMR90~1\AppData\Local\Temp\ccLNaGfc.s:21894  .debug_str:0000000000000659 .LASF5545
C:\Users\CYMR90~1\AppData\Local\Temp\ccLNaGfc.s:27258  .debug_str:0000000000015c6d .LASF5546
C:\Users\CYMR90~1\AppData\Local\Temp\ccLNaGfc.s:31189  .debug_str:0000000000025821 .LASF5547
C:\Users\CYMR90~1\AppData\Local\Temp\ccLNaGfc.s:23604  .debug_str:000000000000739d .LASF5548
C:\Users\CYMR90~1\AppData\Local\Temp\ccLNaGfc.s:26140  .debug_str:0000000000011502 .LASF5549
C:\Users\CYMR90~1\AppData\Local\Temp\ccLNaGfc.s:32665  .debug_str:000000000002b4e9 .LASF5550
C:\Users\CYMR90~1\AppData\Local\Temp\ccLNaGfc.s:30213  .debug_str:0000000000021b79 .LASF5551
C:\Users\CYMR90~1\AppData\Local\Temp\ccLNaGfc.s:29501  .debug_str:000000000001f017 .LASF5552
C:\Users\CYMR90~1\AppData\Local\Temp\ccLNaGfc.s:23588  .debug_str:0000000000007273 .LASF5553
C:\Users\CYMR90~1\AppData\Local\Temp\ccLNaGfc.s:30527  .debug_str:0000000000022e15 .LASF5554
C:\Users\CYMR90~1\AppData\Local\Temp\ccLNaGfc.s:28853  .debug_str:000000000001c624 .LASF5555
                           .group:0000000000000000 wm4.0.10abbef32179bc1260444192115bdf5e
                           .group:0000000000000000 wm4.stddef.h.39.144cf5ddcd53cbfdac30259dc1a6c87f
                           .group:0000000000000000 wm4._newlib_version.h.4.bfdf54b0af045d4a71376ae00f63a22c
                           .group:0000000000000000 wm4.newlib.h.18.08a2ecba46890ca2aa56bbe21686e6c3
                           .group:0000000000000000 wm4.ieeefp.h.202.4f2759f5758fd82153cfbf98692f2ced
                           .group:0000000000000000 wm4.features.h.22.fad1cec3bc7ff06488171438dbdcfd02
                           .group:0000000000000000 wm4.config.h.83.13bbc8852bfac55b724c9822481355b5
                           .group:0000000000000000 wm4._ansi.h.31.de524f58584151836e90d8620a16f8e8
                           .group:0000000000000000 wm4.stdio.h.31.7c0e28c411445f3f9c5b11accf882760
                           .group:0000000000000000 wm4._default_types.h.6.959254cf5f09734ea7516c89e8bb21bd
                           .group:0000000000000000 wm4.stddef.h.155.ba788add86a0e365f264484f110c3c29
                           .group:0000000000000000 wm4.cdefs.h.49.39045112216f6a021dbdffe3bf5accce
                           .group:0000000000000000 wm4.stdarg.h.34.3a23a216c0c293b3d2ea2e89281481e6
                           .group:0000000000000000 wm4._types.h.20.dd0d04dca3800a0d2a6129b87f3adbb2
                           .group:0000000000000000 wm4.stddef.h.155.3588ebfdd1e8c7ede80509bb9c3b8009
                           .group:0000000000000000 wm4._types.h.127.34941de1b2539d59d5cac00e0dd27a45
                           .group:0000000000000000 wm4.reent.h.17.e292bf8b0bec6c96e131a54347145a30
                           .group:0000000000000000 wm4.lock.h.2.c0958401bd0ce484d507ee19aacab817
                           .group:0000000000000000 wm4.reent.h.77.dcd6129ff07fe81bd5636db29abe53b2
                           .group:0000000000000000 wm4.types.h.40.8b6acba56cefbb11746718204edc8f5e
                           .group:0000000000000000 wm4._stdint.h.10.c24fa3af3bc1706662bb5593a907e841
                           .group:0000000000000000 wm4._endian.h.18.1bf9649e8e5bbc91042012680270b9ed
                           .group:0000000000000000 wm4.endian.h.9.49f3a4695c1b61e8a0808de3c4a106cb
                           .group:0000000000000000 wm4._timeval.h.32.bec3221fa7a9bb0bdde696c9c57e47d2
                           .group:0000000000000000 wm4.timespec.h.41.d855182eb0e690443ab8651bcedca6e1
                           .group:0000000000000000 wm4.select.h.19.40cd3f2bfc456b193b790c2754690ebf
                           .group:0000000000000000 wm4.types.h.51.5571ec98f267d17d3c670b7a3ba33afa
                           .group:0000000000000000 wm4.sched.h.22.c60982713a5c428609783c78f9c78d95
                           .group:0000000000000000 wm4._pthreadtypes.h.36.fcee9961c35163dde6267ef772ad1972
                           .group:0000000000000000 wm4.stdio.h.2.4aa87247282eca6c8f36f9de33d8df1a
                           .group:0000000000000000 wm4.stdio.h.81.932d0c162786b883f622b8d05c120c78
                           .group:0000000000000000 wm4.gd32vw55x.h.47.379378190858578060a317909b2c8d8a
                           .group:0000000000000000 wm4._intsup.h.10.48bafbb683905c4daa4565a85aeeb264
                           .group:0000000000000000 wm4.stdint.h.23.d53047a68f4a85177f80b422d52785ed
                           .group:0000000000000000 wm4.nmsis_version.h.19.ffa173da8efb17b1050904994d6f500e
                           .group:0000000000000000 wm4.riscv_bits.h.19.ee94eb3d39937793d4cd0a62363e5d00
                           .group:0000000000000000 wm4.riscv_encoding.h.35.f5d37fad7abbab8278b4bb6f1e32fa65
                           .group:0000000000000000 wm4.nmsis_gcc.h.61.5d70d7598ffc79c3c991d847a574cf23
                           .group:0000000000000000 wm4.core_feature_base.h.20.e99d3e75c26a8f3341d35bf20d0e1d20
                           .group:0000000000000000 wm4.core_feature_fpu.h.19.695f2200274659b530cb97cda749ff4f
                           .group:0000000000000000 wm4.core_feature_dsp.h.19.e8f8d7aa42f197807aefedb6584486cd
                           .group:0000000000000000 wm4.core_compatiable.h.19.5b8282d61b1f6889a82895616b730084
                           .group:0000000000000000 wm4.core_feature_eclic.h.19.e0c091d0cbda79e8b3b031b979ebd5a1
                           .group:0000000000000000 wm4.core_feature_timer.h.19.21a5151282de34c37dfa6d84e262aa54
                           .group:0000000000000000 wm4.system_gd32vw55x.h.32.f1fcb1212d387c35ac955b0e96ada468
                           .group:0000000000000000 wm4.gd32vw55x.h.231.3529c650aff38c9372f7e03177fd2c8a
                           .group:0000000000000000 wm4.gd32vw55x_cau.h.41.50579844007a51268a8149adfbc49583
                           .group:0000000000000000 wm4.gd32vw55x_crc.h.37.c58f296814c2300a4b067c08bd88d54e
                           .group:0000000000000000 wm4.gd32vw55x_dbg.h.36.311650c8545549d482ceca8befc5a232
                           .group:0000000000000000 wm4.gd32vw55x_dma.h.36.f4adc751172b2a7b1533dda72e948737
                           .group:0000000000000000 wm4.gd32vw55x_eclic.h.36.0411499f2b2493c67246e32ccae096c1
                           .group:0000000000000000 wm4.gd32vw55x_efuse.h.36.091404cecbab70359dfd93faec5fdb62
                           .group:0000000000000000 wm4.gd32vw55x_exti.h.36.de7508334dd12f1a6a673521a1a835f5
                           .group:0000000000000000 wm4.gd32vw55x_fmc.h.36.a4b0b94c47ffe23a2fa09260c5ed4850
                           .group:0000000000000000 wm4.gd32vw55x_fwdgt.h.36.4846b6900fd24b5bfce4986c9a8ce677
                           .group:0000000000000000 wm4.gd32vw55x_gpio.h.36.adfee1371bb58d3d9043c47bdb25a90f
                           .group:0000000000000000 wm4.gd32vw55x_hau.h.36.f3cbcbd7b67c9e5bdc7a1100b1bf3458
                           .group:0000000000000000 wm4.gd32vw55x_i2c.h.36.3848990933925e084eb427083790c53f
                           .group:0000000000000000 wm4.gd32vw55x_pkcau.h.36.bb2235f4cf4967063a51bfa9aca5ef27
                           .group:0000000000000000 wm4.gd32vw55x_pmu.h.36.4c76091f1415551526d489ccf2c42052
                           .group:0000000000000000 wm4.gd32vw55x_qspi.h.36.2d2c181cfe19b935a9641008fc786613
                           .group:0000000000000000 wm4.gd32vw55x_rcu.h.36.780a8a45c00d563711cceb445027ef47
                           .group:0000000000000000 wm4.gd32vw55x_rtc.h.36.3172855e8715659e080e0eab46fdf175
                           .group:0000000000000000 wm4.gd32vw55x_spi.h.36.9fa1be2b09fb73e4b5886e97f0e96d58
                           .group:0000000000000000 wm4.gd32vw55x_syscfg.h.36.010551f05591f5e34051d2e15df0352b
                           .group:0000000000000000 wm4.gd32vw55x_timer.h.38.2cbee78ea60d47145be361b2d2c55070
                           .group:0000000000000000 wm4.gd32vw55x_trng.h.36.c9e7807af1b1ab68d3bbb54f4ed5cd73
                           .group:0000000000000000 wm4.gd32vw55x_usart.h.36.f5c497cca17945a34f154b0e17017d02
                           .group:0000000000000000 wm4.gd32vw55x_wwdgt.h.36.f7a443b7302efc0e5c335888582ee197
                           .group:0000000000000000 wm4.gd32vw55x_adc.h.42.ae73acec1704ef509ccecb41a875b50e

UNDEFINED SYMBOLS
rcu_periph_reset_enable
rcu_periph_reset_disable
