   1              		.file	"gd32vw55x_qspi.c"
   2              		.option nopic
   3              		.attribute arch, "rv32i2p0_m2p0_a2p0_c2p0"
   4              		.attribute unaligned_access, 0
   5              		.attribute stack_align, 16
   6              		.text
   7              	.Ltext0:
   8              		.cfi_sections	.debug_frame
   9              		.section	.text.qspi_deinit,"ax",@progbits
  10              		.align	1
  11              		.globl	qspi_deinit
  13              	qspi_deinit:
  14              	.LFB347:
  15              		.file 1 "../Firmware/GD32VW55x_standard_peripheral/Source/gd32vw55x_qspi.c"
   1:../Firmware/GD32VW55x_standard_peripheral/Source/gd32vw55x_qspi.c **** /*!
   2:../Firmware/GD32VW55x_standard_peripheral/Source/gd32vw55x_qspi.c ****     \file    gd32vw55x_qspi.c
   3:../Firmware/GD32VW55x_standard_peripheral/Source/gd32vw55x_qspi.c ****     \brief   QSPI driver
   4:../Firmware/GD32VW55x_standard_peripheral/Source/gd32vw55x_qspi.c **** 
   5:../Firmware/GD32VW55x_standard_peripheral/Source/gd32vw55x_qspi.c ****     \version 2025-01-16, V1.4.0, firmware for GD32VW55x
   6:../Firmware/GD32VW55x_standard_peripheral/Source/gd32vw55x_qspi.c **** */
   7:../Firmware/GD32VW55x_standard_peripheral/Source/gd32vw55x_qspi.c **** 
   8:../Firmware/GD32VW55x_standard_peripheral/Source/gd32vw55x_qspi.c **** /*
   9:../Firmware/GD32VW55x_standard_peripheral/Source/gd32vw55x_qspi.c ****     Copyright (c) 2025, GigaDevice Semiconductor Inc.
  10:../Firmware/GD32VW55x_standard_peripheral/Source/gd32vw55x_qspi.c **** 
  11:../Firmware/GD32VW55x_standard_peripheral/Source/gd32vw55x_qspi.c ****     Redistribution and use in source and binary forms, with or without modification,
  12:../Firmware/GD32VW55x_standard_peripheral/Source/gd32vw55x_qspi.c **** are permitted provided that the following conditions are met:
  13:../Firmware/GD32VW55x_standard_peripheral/Source/gd32vw55x_qspi.c **** 
  14:../Firmware/GD32VW55x_standard_peripheral/Source/gd32vw55x_qspi.c ****     1. Redistributions of source code must retain the above copyright notice, this
  15:../Firmware/GD32VW55x_standard_peripheral/Source/gd32vw55x_qspi.c ****        list of conditions and the following disclaimer.
  16:../Firmware/GD32VW55x_standard_peripheral/Source/gd32vw55x_qspi.c ****     2. Redistributions in binary form must reproduce the above copyright notice,
  17:../Firmware/GD32VW55x_standard_peripheral/Source/gd32vw55x_qspi.c ****        this list of conditions and the following disclaimer in the documentation
  18:../Firmware/GD32VW55x_standard_peripheral/Source/gd32vw55x_qspi.c ****        and/or other materials provided with the distribution.
  19:../Firmware/GD32VW55x_standard_peripheral/Source/gd32vw55x_qspi.c ****     3. Neither the name of the copyright holder nor the names of its contributors
  20:../Firmware/GD32VW55x_standard_peripheral/Source/gd32vw55x_qspi.c ****        may be used to endorse or promote products derived from this software without
  21:../Firmware/GD32VW55x_standard_peripheral/Source/gd32vw55x_qspi.c ****        specific prior written permission.
  22:../Firmware/GD32VW55x_standard_peripheral/Source/gd32vw55x_qspi.c **** 
  23:../Firmware/GD32VW55x_standard_peripheral/Source/gd32vw55x_qspi.c ****     THIS SOFTWARE IS PROVIDED BY THE COPYRIGHT HOLDERS AND CONTRIBUTORS "AS IS"
  24:../Firmware/GD32VW55x_standard_peripheral/Source/gd32vw55x_qspi.c **** AND ANY EXPRESS OR IMPLIED WARRANTIES, INCLUDING, BUT NOT LIMITED TO, THE IMPLIED
  25:../Firmware/GD32VW55x_standard_peripheral/Source/gd32vw55x_qspi.c **** WARRANTIES OF MERCHANTABILITY AND FITNESS FOR A PARTICULAR PURPOSE ARE DISCLAIMED.
  26:../Firmware/GD32VW55x_standard_peripheral/Source/gd32vw55x_qspi.c **** IN NO EVENT SHALL THE COPYRIGHT HOLDER OR CONTRIBUTORS BE LIABLE FOR ANY DIRECT,
  27:../Firmware/GD32VW55x_standard_peripheral/Source/gd32vw55x_qspi.c **** INDIRECT, INCIDENTAL, SPECIAL, EXEMPLARY, OR CONSEQUENTIAL DAMAGES (INCLUDING, BUT
  28:../Firmware/GD32VW55x_standard_peripheral/Source/gd32vw55x_qspi.c **** NOT LIMITED TO, PROCUREMENT OF SUBSTITUTE GOODS OR SERVICES; LOSS OF USE, DATA, OR
  29:../Firmware/GD32VW55x_standard_peripheral/Source/gd32vw55x_qspi.c **** PROFITS; OR BUSINESS INTERRUPTION) HOWEVER CAUSED AND ON ANY THEORY OF LIABILITY,
  30:../Firmware/GD32VW55x_standard_peripheral/Source/gd32vw55x_qspi.c **** WHETHER IN CONTRACT, STRICT LIABILITY, OR TORT (INCLUDING NEGLIGENCE OR OTHERWISE)
  31:../Firmware/GD32VW55x_standard_peripheral/Source/gd32vw55x_qspi.c **** ARISING IN ANY WAY OUT OF THE USE OF THIS SOFTWARE, EVEN IF ADVISED OF THE POSSIBILITY
  32:../Firmware/GD32VW55x_standard_peripheral/Source/gd32vw55x_qspi.c **** OF SUCH DAMAGE.
  33:../Firmware/GD32VW55x_standard_peripheral/Source/gd32vw55x_qspi.c **** */
  34:../Firmware/GD32VW55x_standard_peripheral/Source/gd32vw55x_qspi.c **** 
  35:../Firmware/GD32VW55x_standard_peripheral/Source/gd32vw55x_qspi.c **** #include "gd32vw55x_qspi.h"
  36:../Firmware/GD32VW55x_standard_peripheral/Source/gd32vw55x_qspi.c **** 
  37:../Firmware/GD32VW55x_standard_peripheral/Source/gd32vw55x_qspi.c **** /* QSPI register bit offset */
  38:../Firmware/GD32VW55x_standard_peripheral/Source/gd32vw55x_qspi.c **** #define CTL_FTL_OFFSET            ((uint32_t)0x00000008U)               /*!< bit offset of FTL in Q
  39:../Firmware/GD32VW55x_standard_peripheral/Source/gd32vw55x_qspi.c **** #define CTL_PSC_OFFSET            ((uint32_t)0x00000018U)               /*!< bit offset of PSC in Q
  40:../Firmware/GD32VW55x_standard_peripheral/Source/gd32vw55x_qspi.c **** #define DCFG_FMSZ_OFFSET          ((uint32_t)0x00000010U)               /*!< bit offset of FMSZ in 
  41:../Firmware/GD32VW55x_standard_peripheral/Source/gd32vw55x_qspi.c **** #define TCFG_DUMYC_OFFSET         ((uint32_t)0x00000012U)               /*!< bit offset of DUMYC in
  42:../Firmware/GD32VW55x_standard_peripheral/Source/gd32vw55x_qspi.c **** 
  43:../Firmware/GD32VW55x_standard_peripheral/Source/gd32vw55x_qspi.c **** /* configure QSPI functional mode */
  44:../Firmware/GD32VW55x_standard_peripheral/Source/gd32vw55x_qspi.c **** static void qspi_config(qspi_command_struct *cmd, uint32_t functionalmode);
  45:../Firmware/GD32VW55x_standard_peripheral/Source/gd32vw55x_qspi.c **** 
  46:../Firmware/GD32VW55x_standard_peripheral/Source/gd32vw55x_qspi.c **** /*!
  47:../Firmware/GD32VW55x_standard_peripheral/Source/gd32vw55x_qspi.c ****     \brief      reset QSPI
  48:../Firmware/GD32VW55x_standard_peripheral/Source/gd32vw55x_qspi.c ****     \param[in]  none
  49:../Firmware/GD32VW55x_standard_peripheral/Source/gd32vw55x_qspi.c ****     \param[out] none
  50:../Firmware/GD32VW55x_standard_peripheral/Source/gd32vw55x_qspi.c ****     \retval     none
  51:../Firmware/GD32VW55x_standard_peripheral/Source/gd32vw55x_qspi.c **** */
  52:../Firmware/GD32VW55x_standard_peripheral/Source/gd32vw55x_qspi.c **** void qspi_deinit(void)
  53:../Firmware/GD32VW55x_standard_peripheral/Source/gd32vw55x_qspi.c **** {
  16              		.loc 1 53 1
  17              		.cfi_startproc
  18 0000 4111     		addi	sp,sp,-16
  19              		.cfi_def_cfa_offset 16
  20 0002 06C6     		sw	ra,12(sp)
  21 0004 22C4     		sw	s0,8(sp)
  22              		.cfi_offset 1, -4
  23              		.cfi_offset 8, -8
  24 0006 0008     		addi	s0,sp,16
  25              		.cfi_def_cfa 8, 0
  54:../Firmware/GD32VW55x_standard_peripheral/Source/gd32vw55x_qspi.c ****     rcu_periph_reset_enable(RCU_QSPIRST);
  26              		.loc 1 54 5
  27 0008 13051060 		li	a0,1537
  28 000c 97000000 		call	rcu_periph_reset_enable
  28      E7800000 
  55:../Firmware/GD32VW55x_standard_peripheral/Source/gd32vw55x_qspi.c ****     rcu_periph_reset_disable(RCU_QSPIRST);
  29              		.loc 1 55 5
  30 0014 13051060 		li	a0,1537
  31 0018 97000000 		call	rcu_periph_reset_disable
  31      E7800000 
  56:../Firmware/GD32VW55x_standard_peripheral/Source/gd32vw55x_qspi.c **** }
  32              		.loc 1 56 1
  33 0020 0100     		nop
  34 0022 B240     		lw	ra,12(sp)
  35              		.cfi_restore 1
  36 0024 2244     		lw	s0,8(sp)
  37              		.cfi_restore 8
  38              		.cfi_def_cfa 2, 16
  39 0026 4101     		addi	sp,sp,16
  40              		.cfi_def_cfa_offset 0
  41 0028 8280     		jr	ra
  42              		.cfi_endproc
  43              	.LFE347:
  45              		.section	.text.qspi_struct_para_init,"ax",@progbits
  46              		.align	1
  47              		.globl	qspi_struct_para_init
  49              	qspi_struct_para_init:
  50              	.LFB348:
  57:../Firmware/GD32VW55x_standard_peripheral/Source/gd32vw55x_qspi.c **** 
  58:../Firmware/GD32VW55x_standard_peripheral/Source/gd32vw55x_qspi.c **** /*!
  59:../Firmware/GD32VW55x_standard_peripheral/Source/gd32vw55x_qspi.c ****     \brief      initialize the parameters of QSPI structure with the default values
  60:../Firmware/GD32VW55x_standard_peripheral/Source/gd32vw55x_qspi.c ****     \param[in]  none
  61:../Firmware/GD32VW55x_standard_peripheral/Source/gd32vw55x_qspi.c ****     \param[out] init_para: QSPI parameter structure
  62:../Firmware/GD32VW55x_standard_peripheral/Source/gd32vw55x_qspi.c ****     \retval     none
  63:../Firmware/GD32VW55x_standard_peripheral/Source/gd32vw55x_qspi.c **** */
  64:../Firmware/GD32VW55x_standard_peripheral/Source/gd32vw55x_qspi.c **** void qspi_struct_para_init(qspi_init_struct *init_para)
  65:../Firmware/GD32VW55x_standard_peripheral/Source/gd32vw55x_qspi.c **** {
  51              		.loc 1 65 1
  52              		.cfi_startproc
  53 0000 0111     		addi	sp,sp,-32
  54              		.cfi_def_cfa_offset 32
  55 0002 22CE     		sw	s0,28(sp)
  56              		.cfi_offset 8, -4
  57 0004 0010     		addi	s0,sp,32
  58              		.cfi_def_cfa 8, 0
  59 0006 2326A4FE 		sw	a0,-20(s0)
  66:../Firmware/GD32VW55x_standard_peripheral/Source/gd32vw55x_qspi.c ****     /* set the QSPI struct with the default values */
  67:../Firmware/GD32VW55x_standard_peripheral/Source/gd32vw55x_qspi.c ****     init_para->clock_mode     = QSPI_CLOCK_MODE_0;
  60              		.loc 1 67 31
  61 000a 8327C4FE 		lw	a5,-20(s0)
  62 000e 23AA0700 		sw	zero,20(a5)
  68:../Firmware/GD32VW55x_standard_peripheral/Source/gd32vw55x_qspi.c ****     init_para->prescaler      = 3U;
  63              		.loc 1 68 31
  64 0012 8327C4FE 		lw	a5,-20(s0)
  65 0016 0D47     		li	a4,3
  66 0018 98C3     		sw	a4,0(a5)
  69:../Firmware/GD32VW55x_standard_peripheral/Source/gd32vw55x_qspi.c ****     init_para->fifo_threshold = 16U;
  67              		.loc 1 69 31
  68 001a 8327C4FE 		lw	a5,-20(s0)
  69 001e 4147     		li	a4,16
  70 0020 D8C3     		sw	a4,4(a5)
  70:../Firmware/GD32VW55x_standard_peripheral/Source/gd32vw55x_qspi.c ****     init_para->sample_shift   = QSPI_SAMPLE_SHIFTING_NONE;
  71              		.loc 1 70 31
  72 0022 8327C4FE 		lw	a5,-20(s0)
  73 0026 23A40700 		sw	zero,8(a5)
  71:../Firmware/GD32VW55x_standard_peripheral/Source/gd32vw55x_qspi.c ****     init_para->flash_size     = 0x1FU;
  74              		.loc 1 71 31
  75 002a 8327C4FE 		lw	a5,-20(s0)
  76 002e 7D47     		li	a4,31
  77 0030 D8C7     		sw	a4,12(a5)
  72:../Firmware/GD32VW55x_standard_peripheral/Source/gd32vw55x_qspi.c ****     init_para->cs_high_time   = QSPI_CS_HIGH_TIME_1_CYCLE;
  78              		.loc 1 72 31
  79 0032 8327C4FE 		lw	a5,-20(s0)
  80 0036 23A80700 		sw	zero,16(a5)
  73:../Firmware/GD32VW55x_standard_peripheral/Source/gd32vw55x_qspi.c **** }
  81              		.loc 1 73 1
  82 003a 0100     		nop
  83 003c 7244     		lw	s0,28(sp)
  84              		.cfi_restore 8
  85              		.cfi_def_cfa 2, 32
  86 003e 0561     		addi	sp,sp,32
  87              		.cfi_def_cfa_offset 0
  88 0040 8280     		jr	ra
  89              		.cfi_endproc
  90              	.LFE348:
  92              		.section	.text.qspi_cmd_struct_para_init,"ax",@progbits
  93              		.align	1
  94              		.globl	qspi_cmd_struct_para_init
  96              	qspi_cmd_struct_para_init:
  97              	.LFB349:
  74:../Firmware/GD32VW55x_standard_peripheral/Source/gd32vw55x_qspi.c **** 
  75:../Firmware/GD32VW55x_standard_peripheral/Source/gd32vw55x_qspi.c **** /*!
  76:../Firmware/GD32VW55x_standard_peripheral/Source/gd32vw55x_qspi.c ****     \brief      initialize the parameters of QSPI command structure with the default values
  77:../Firmware/GD32VW55x_standard_peripheral/Source/gd32vw55x_qspi.c ****     \param[in]  none
  78:../Firmware/GD32VW55x_standard_peripheral/Source/gd32vw55x_qspi.c ****     \param[out] init_para: QSPI command parameter structure
  79:../Firmware/GD32VW55x_standard_peripheral/Source/gd32vw55x_qspi.c ****     \retval     none
  80:../Firmware/GD32VW55x_standard_peripheral/Source/gd32vw55x_qspi.c **** */
  81:../Firmware/GD32VW55x_standard_peripheral/Source/gd32vw55x_qspi.c **** void qspi_cmd_struct_para_init(qspi_command_struct *init_para)
  82:../Firmware/GD32VW55x_standard_peripheral/Source/gd32vw55x_qspi.c **** {
  98              		.loc 1 82 1
  99              		.cfi_startproc
 100 0000 0111     		addi	sp,sp,-32
 101              		.cfi_def_cfa_offset 32
 102 0002 22CE     		sw	s0,28(sp)
 103              		.cfi_offset 8, -4
 104 0004 0010     		addi	s0,sp,32
 105              		.cfi_def_cfa 8, 0
 106 0006 2326A4FE 		sw	a0,-20(s0)
  83:../Firmware/GD32VW55x_standard_peripheral/Source/gd32vw55x_qspi.c ****     /* set the QSPI command struct with the default values */
  84:../Firmware/GD32VW55x_standard_peripheral/Source/gd32vw55x_qspi.c ****     init_para->instruction_mode = QSPI_INSTRUCTION_NONE;
 107              		.loc 1 84 33
 108 000a 8327C4FE 		lw	a5,-20(s0)
 109 000e 23A00700 		sw	zero,0(a5)
  85:../Firmware/GD32VW55x_standard_peripheral/Source/gd32vw55x_qspi.c ****     init_para->instruction      = 0U;
 110              		.loc 1 85 33
 111 0012 8327C4FE 		lw	a5,-20(s0)
 112 0016 23A20700 		sw	zero,4(a5)
  86:../Firmware/GD32VW55x_standard_peripheral/Source/gd32vw55x_qspi.c ****     init_para->addr_mode        = QSPI_ADDR_NONE;
 113              		.loc 1 86 33
 114 001a 8327C4FE 		lw	a5,-20(s0)
 115 001e 23A40700 		sw	zero,8(a5)
  87:../Firmware/GD32VW55x_standard_peripheral/Source/gd32vw55x_qspi.c ****     init_para->addr_size        = QSPI_ADDR_8_BITS;
 116              		.loc 1 87 33
 117 0022 8327C4FE 		lw	a5,-20(s0)
 118 0026 23A60700 		sw	zero,12(a5)
  88:../Firmware/GD32VW55x_standard_peripheral/Source/gd32vw55x_qspi.c ****     init_para->addr             = 0U;
 119              		.loc 1 88 33
 120 002a 8327C4FE 		lw	a5,-20(s0)
 121 002e 23A80700 		sw	zero,16(a5)
  89:../Firmware/GD32VW55x_standard_peripheral/Source/gd32vw55x_qspi.c ****     init_para->altebytes_mode   = QSPI_ALTE_BYTES_NONE;
 122              		.loc 1 89 33
 123 0032 8327C4FE 		lw	a5,-20(s0)
 124 0036 23AA0700 		sw	zero,20(a5)
  90:../Firmware/GD32VW55x_standard_peripheral/Source/gd32vw55x_qspi.c ****     init_para->altebytes_size   = QSPI_ALTE_BYTES_8_BITS;
 125              		.loc 1 90 33
 126 003a 8327C4FE 		lw	a5,-20(s0)
 127 003e 23AC0700 		sw	zero,24(a5)
  91:../Firmware/GD32VW55x_standard_peripheral/Source/gd32vw55x_qspi.c ****     init_para->altebytes        = 0U;
 128              		.loc 1 91 33
 129 0042 8327C4FE 		lw	a5,-20(s0)
 130 0046 23AE0700 		sw	zero,28(a5)
  92:../Firmware/GD32VW55x_standard_peripheral/Source/gd32vw55x_qspi.c ****     init_para->dummycycles      = 0U;
 131              		.loc 1 92 33
 132 004a 8327C4FE 		lw	a5,-20(s0)
 133 004e 23A00702 		sw	zero,32(a5)
  93:../Firmware/GD32VW55x_standard_peripheral/Source/gd32vw55x_qspi.c ****     init_para->data_mode        = QSPI_DATA_NONE;
 134              		.loc 1 93 33
 135 0052 8327C4FE 		lw	a5,-20(s0)
 136 0056 23A20702 		sw	zero,36(a5)
  94:../Firmware/GD32VW55x_standard_peripheral/Source/gd32vw55x_qspi.c ****     init_para->data_length      = 0U;
 137              		.loc 1 94 33
 138 005a 8327C4FE 		lw	a5,-20(s0)
 139 005e 23A40702 		sw	zero,40(a5)
  95:../Firmware/GD32VW55x_standard_peripheral/Source/gd32vw55x_qspi.c ****     init_para->sioo_mode        = QSPI_SIOO_INST_EVERY_CMD;
 140              		.loc 1 95 33
 141 0062 8327C4FE 		lw	a5,-20(s0)
 142 0066 23A60702 		sw	zero,44(a5)
  96:../Firmware/GD32VW55x_standard_peripheral/Source/gd32vw55x_qspi.c **** }
 143              		.loc 1 96 1
 144 006a 0100     		nop
 145 006c 7244     		lw	s0,28(sp)
 146              		.cfi_restore 8
 147              		.cfi_def_cfa 2, 32
 148 006e 0561     		addi	sp,sp,32
 149              		.cfi_def_cfa_offset 0
 150 0070 8280     		jr	ra
 151              		.cfi_endproc
 152              	.LFE349:
 154              		.section	.text.qspi_polling_struct_para_init,"ax",@progbits
 155              		.align	1
 156              		.globl	qspi_polling_struct_para_init
 158              	qspi_polling_struct_para_init:
 159              	.LFB350:
  97:../Firmware/GD32VW55x_standard_peripheral/Source/gd32vw55x_qspi.c **** 
  98:../Firmware/GD32VW55x_standard_peripheral/Source/gd32vw55x_qspi.c **** /*!
  99:../Firmware/GD32VW55x_standard_peripheral/Source/gd32vw55x_qspi.c ****     \brief      initialize the parameters of QSPI read polling structure with the default values
 100:../Firmware/GD32VW55x_standard_peripheral/Source/gd32vw55x_qspi.c ****     \param[in]  none
 101:../Firmware/GD32VW55x_standard_peripheral/Source/gd32vw55x_qspi.c ****     \param[out] init_para: QSPI read polling parameter structure
 102:../Firmware/GD32VW55x_standard_peripheral/Source/gd32vw55x_qspi.c ****     \retval     none
 103:../Firmware/GD32VW55x_standard_peripheral/Source/gd32vw55x_qspi.c **** */
 104:../Firmware/GD32VW55x_standard_peripheral/Source/gd32vw55x_qspi.c **** void qspi_polling_struct_para_init(qspi_polling_struct *init_para)
 105:../Firmware/GD32VW55x_standard_peripheral/Source/gd32vw55x_qspi.c **** {
 160              		.loc 1 105 1
 161              		.cfi_startproc
 162 0000 0111     		addi	sp,sp,-32
 163              		.cfi_def_cfa_offset 32
 164 0002 22CE     		sw	s0,28(sp)
 165              		.cfi_offset 8, -4
 166 0004 0010     		addi	s0,sp,32
 167              		.cfi_def_cfa 8, 0
 168 0006 2326A4FE 		sw	a0,-20(s0)
 106:../Firmware/GD32VW55x_standard_peripheral/Source/gd32vw55x_qspi.c ****     /* set the QSPI read polling struct with the default values */
 107:../Firmware/GD32VW55x_standard_peripheral/Source/gd32vw55x_qspi.c ****     init_para->match            = 0U;
 169              		.loc 1 107 33
 170 000a 8327C4FE 		lw	a5,-20(s0)
 171 000e 23A00700 		sw	zero,0(a5)
 108:../Firmware/GD32VW55x_standard_peripheral/Source/gd32vw55x_qspi.c ****     init_para->mask             = 0U;
 172              		.loc 1 108 33
 173 0012 8327C4FE 		lw	a5,-20(s0)
 174 0016 23A20700 		sw	zero,4(a5)
 109:../Firmware/GD32VW55x_standard_peripheral/Source/gd32vw55x_qspi.c ****     init_para->interval         = 0U;
 175              		.loc 1 109 33
 176 001a 8327C4FE 		lw	a5,-20(s0)
 177 001e 23A40700 		sw	zero,8(a5)
 110:../Firmware/GD32VW55x_standard_peripheral/Source/gd32vw55x_qspi.c ****     init_para->statusbytes_size = 1U;
 178              		.loc 1 110 33
 179 0022 8327C4FE 		lw	a5,-20(s0)
 180 0026 0547     		li	a4,1
 181 0028 D8C7     		sw	a4,12(a5)
 111:../Firmware/GD32VW55x_standard_peripheral/Source/gd32vw55x_qspi.c ****     init_para->match_mode       = QSPI_MATCH_MODE_AND;
 182              		.loc 1 111 33
 183 002a 8327C4FE 		lw	a5,-20(s0)
 184 002e 23A80700 		sw	zero,16(a5)
 112:../Firmware/GD32VW55x_standard_peripheral/Source/gd32vw55x_qspi.c ****     init_para->polling_stop     = QSPI_POLLING_STOP_DISABLE;
 185              		.loc 1 112 33
 186 0032 8327C4FE 		lw	a5,-20(s0)
 187 0036 23AA0700 		sw	zero,20(a5)
 113:../Firmware/GD32VW55x_standard_peripheral/Source/gd32vw55x_qspi.c **** }
 188              		.loc 1 113 1
 189 003a 0100     		nop
 190 003c 7244     		lw	s0,28(sp)
 191              		.cfi_restore 8
 192              		.cfi_def_cfa 2, 32
 193 003e 0561     		addi	sp,sp,32
 194              		.cfi_def_cfa_offset 0
 195 0040 8280     		jr	ra
 196              		.cfi_endproc
 197              	.LFE350:
 199              		.section	.text.qspi_init,"ax",@progbits
 200              		.align	1
 201              		.globl	qspi_init
 203              	qspi_init:
 204              	.LFB351:
 114:../Firmware/GD32VW55x_standard_peripheral/Source/gd32vw55x_qspi.c **** 
 115:../Firmware/GD32VW55x_standard_peripheral/Source/gd32vw55x_qspi.c **** /*!
 116:../Firmware/GD32VW55x_standard_peripheral/Source/gd32vw55x_qspi.c ****     \brief      initialize QSPI
 117:../Firmware/GD32VW55x_standard_peripheral/Source/gd32vw55x_qspi.c ****     \param[in]  qspi_struct: QSPI parameter initialization structure
 118:../Firmware/GD32VW55x_standard_peripheral/Source/gd32vw55x_qspi.c ****                             and the member values are shown as below:
 119:../Firmware/GD32VW55x_standard_peripheral/Source/gd32vw55x_qspi.c ****                   prescaler: between 0 and 255
 120:../Firmware/GD32VW55x_standard_peripheral/Source/gd32vw55x_qspi.c ****                   fifo_threshold: between 1 and 16
 121:../Firmware/GD32VW55x_standard_peripheral/Source/gd32vw55x_qspi.c ****                   sample_shift: QSPI_SAMPLE_SHIFTING_NONE, QSPI_SAMPLE_SHIFTING_HALFCYCLE, QSPI_SAM
 122:../Firmware/GD32VW55x_standard_peripheral/Source/gd32vw55x_qspi.c ****                   flash_size: between 0 and 28
 123:../Firmware/GD32VW55x_standard_peripheral/Source/gd32vw55x_qspi.c ****                   cs_high_time: QSPI_CS_HIGH_TIME_1_CYCLE, QSPI_CS_HIGH_TIME_2_CYCLE, QSPI_CS_HIGH_
 124:../Firmware/GD32VW55x_standard_peripheral/Source/gd32vw55x_qspi.c ****                                 QSPI_CS_HIGH_TIME_4_CYCLE, QSPI_CS_HIGH_TIME_5_CYCLE, QSPI_CS_HIGH_
 125:../Firmware/GD32VW55x_standard_peripheral/Source/gd32vw55x_qspi.c ****                                 QSPI_CS_HIGH_TIME_7_CYCLE, QSPI_CS_HIGH_TIME_8_CYCLE
 126:../Firmware/GD32VW55x_standard_peripheral/Source/gd32vw55x_qspi.c ****                   clock_mode: QSPI_CLOCK_MODE_0, QSPI_CLOCK_MODE_3
 127:../Firmware/GD32VW55x_standard_peripheral/Source/gd32vw55x_qspi.c ****     \param[out] none
 128:../Firmware/GD32VW55x_standard_peripheral/Source/gd32vw55x_qspi.c ****     \retval     none
 129:../Firmware/GD32VW55x_standard_peripheral/Source/gd32vw55x_qspi.c **** */
 130:../Firmware/GD32VW55x_standard_peripheral/Source/gd32vw55x_qspi.c **** void qspi_init(qspi_init_struct *qspi_struct)
 131:../Firmware/GD32VW55x_standard_peripheral/Source/gd32vw55x_qspi.c **** {
 205              		.loc 1 131 1
 206              		.cfi_startproc
 207 0000 0111     		addi	sp,sp,-32
 208              		.cfi_def_cfa_offset 32
 209 0002 22CE     		sw	s0,28(sp)
 210              		.cfi_offset 8, -4
 211 0004 0010     		addi	s0,sp,32
 212              		.cfi_def_cfa 8, 0
 213 0006 2326A4FE 		sw	a0,-20(s0)
 132:../Firmware/GD32VW55x_standard_peripheral/Source/gd32vw55x_qspi.c ****     /* configure prescaler, sample_shift, fifo_threshold */
 133:../Firmware/GD32VW55x_standard_peripheral/Source/gd32vw55x_qspi.c ****     QSPI_CTL &= ~(QSPI_CTL_PSC | QSPI_CTL_SSAMPLE | QSPI_CTL_FTL);
 214              		.loc 1 133 14
 215 000a B7670240 		li	a5,1073897472
 216 000e 93870780 		addi	a5,a5,-2048
 217 0012 9443     		lw	a3,0(a5)
 218 0014 B7670240 		li	a5,1073897472
 219 0018 93870780 		addi	a5,a5,-2048
 220 001c 37F7FF00 		li	a4,16773120
 221 0020 1307F70C 		addi	a4,a4,207
 222 0024 758F     		and	a4,a3,a4
 223 0026 98C3     		sw	a4,0(a5)
 134:../Firmware/GD32VW55x_standard_peripheral/Source/gd32vw55x_qspi.c ****     QSPI_CTL |= (qspi_struct->prescaler << CTL_PSC_OFFSET) | qspi_struct->sample_shift | ((qspi_str
 224              		.loc 1 134 14
 225 0028 B7670240 		li	a5,1073897472
 226 002c 93870780 		addi	a5,a5,-2048
 227 0030 9443     		lw	a3,0(a5)
 228              		.loc 1 134 29
 229 0032 8327C4FE 		lw	a5,-20(s0)
 230 0036 9C43     		lw	a5,0(a5)
 231              		.loc 1 134 41
 232 0038 13978701 		slli	a4,a5,24
 233              		.loc 1 134 73
 234 003c 8327C4FE 		lw	a5,-20(s0)
 235 0040 9C47     		lw	a5,8(a5)
 236              		.loc 1 134 60
 237 0042 5D8F     		or	a4,a4,a5
 238              		.loc 1 134 103
 239 0044 8327C4FE 		lw	a5,-20(s0)
 240 0048 DC43     		lw	a5,4(a5)
 241              		.loc 1 134 120
 242 004a FD17     		addi	a5,a5,-1
 243              		.loc 1 134 126
 244 004c A207     		slli	a5,a5,8
 245              		.loc 1 134 88
 246 004e 5D8F     		or	a4,a4,a5
 247              		.loc 1 134 14
 248 0050 B7670240 		li	a5,1073897472
 249 0054 93870780 		addi	a5,a5,-2048
 250 0058 558F     		or	a4,a3,a4
 251 005a 98C3     		sw	a4,0(a5)
 135:../Firmware/GD32VW55x_standard_peripheral/Source/gd32vw55x_qspi.c **** 
 136:../Firmware/GD32VW55x_standard_peripheral/Source/gd32vw55x_qspi.c ****     /* configure flash_size, cs_high_time, clock_mode */
 137:../Firmware/GD32VW55x_standard_peripheral/Source/gd32vw55x_qspi.c ****     QSPI_DCFG &= ~((QSPI_DCFG_FMSZ) | QSPI_CS_HIGH_TIME_8_CYCLE | QSPI_DCFG_CKMOD);
 252              		.loc 1 137 15
 253 005c B7670240 		li	a5,1073897472
 254 0060 93874780 		addi	a5,a5,-2044
 255 0064 9443     		lw	a3,0(a5)
 256 0066 B7670240 		li	a5,1073897472
 257 006a 93874780 		addi	a5,a5,-2044
 258 006e 3707E1FF 		li	a4,-2031616
 259 0072 1307E78F 		addi	a4,a4,-1794
 260 0076 758F     		and	a4,a3,a4
 261 0078 98C3     		sw	a4,0(a5)
 138:../Firmware/GD32VW55x_standard_peripheral/Source/gd32vw55x_qspi.c ****     QSPI_DCFG |= ((qspi_struct->flash_size << DCFG_FMSZ_OFFSET) | qspi_struct->cs_high_time | qspi_
 262              		.loc 1 138 15
 263 007a B7670240 		li	a5,1073897472
 264 007e 93874780 		addi	a5,a5,-2044
 265 0082 9443     		lw	a3,0(a5)
 266              		.loc 1 138 31
 267 0084 8327C4FE 		lw	a5,-20(s0)
 268 0088 DC47     		lw	a5,12(a5)
 269              		.loc 1 138 44
 270 008a 13970701 		slli	a4,a5,16
 271              		.loc 1 138 78
 272 008e 8327C4FE 		lw	a5,-20(s0)
 273 0092 9C4B     		lw	a5,16(a5)
 274              		.loc 1 138 65
 275 0094 5D8F     		or	a4,a4,a5
 276              		.loc 1 138 106
 277 0096 8327C4FE 		lw	a5,-20(s0)
 278 009a DC4B     		lw	a5,20(a5)
 279              		.loc 1 138 93
 280 009c 5D8F     		or	a4,a4,a5
 281              		.loc 1 138 15
 282 009e B7670240 		li	a5,1073897472
 283 00a2 93874780 		addi	a5,a5,-2044
 284 00a6 558F     		or	a4,a3,a4
 285 00a8 98C3     		sw	a4,0(a5)
 139:../Firmware/GD32VW55x_standard_peripheral/Source/gd32vw55x_qspi.c **** }
 286              		.loc 1 139 1
 287 00aa 0100     		nop
 288 00ac 7244     		lw	s0,28(sp)
 289              		.cfi_restore 8
 290              		.cfi_def_cfa 2, 32
 291 00ae 0561     		addi	sp,sp,32
 292              		.cfi_def_cfa_offset 0
 293 00b0 8280     		jr	ra
 294              		.cfi_endproc
 295              	.LFE351:
 297              		.section	.text.qspi_enable,"ax",@progbits
 298              		.align	1
 299              		.globl	qspi_enable
 301              	qspi_enable:
 302              	.LFB352:
 140:../Firmware/GD32VW55x_standard_peripheral/Source/gd32vw55x_qspi.c **** 
 141:../Firmware/GD32VW55x_standard_peripheral/Source/gd32vw55x_qspi.c **** /*!
 142:../Firmware/GD32VW55x_standard_peripheral/Source/gd32vw55x_qspi.c ****     \brief      enable QSPI
 143:../Firmware/GD32VW55x_standard_peripheral/Source/gd32vw55x_qspi.c ****     \param[in]  none
 144:../Firmware/GD32VW55x_standard_peripheral/Source/gd32vw55x_qspi.c ****     \param[out] none
 145:../Firmware/GD32VW55x_standard_peripheral/Source/gd32vw55x_qspi.c ****     \retval     none
 146:../Firmware/GD32VW55x_standard_peripheral/Source/gd32vw55x_qspi.c **** */
 147:../Firmware/GD32VW55x_standard_peripheral/Source/gd32vw55x_qspi.c **** void qspi_enable(void)
 148:../Firmware/GD32VW55x_standard_peripheral/Source/gd32vw55x_qspi.c **** {
 303              		.loc 1 148 1
 304              		.cfi_startproc
 305 0000 4111     		addi	sp,sp,-16
 306              		.cfi_def_cfa_offset 16
 307 0002 22C6     		sw	s0,12(sp)
 308              		.cfi_offset 8, -4
 309 0004 0008     		addi	s0,sp,16
 310              		.cfi_def_cfa 8, 0
 149:../Firmware/GD32VW55x_standard_peripheral/Source/gd32vw55x_qspi.c ****     QSPI_CTL |= (uint32_t)QSPI_CTL_QSPIEN;
 311              		.loc 1 149 14
 312 0006 B7670240 		li	a5,1073897472
 313 000a 93870780 		addi	a5,a5,-2048
 314 000e 9843     		lw	a4,0(a5)
 315 0010 B7670240 		li	a5,1073897472
 316 0014 93870780 		addi	a5,a5,-2048
 317 0018 13671700 		ori	a4,a4,1
 318 001c 98C3     		sw	a4,0(a5)
 150:../Firmware/GD32VW55x_standard_peripheral/Source/gd32vw55x_qspi.c **** }
 319              		.loc 1 150 1
 320 001e 0100     		nop
 321 0020 3244     		lw	s0,12(sp)
 322              		.cfi_restore 8
 323              		.cfi_def_cfa 2, 16
 324 0022 4101     		addi	sp,sp,16
 325              		.cfi_def_cfa_offset 0
 326 0024 8280     		jr	ra
 327              		.cfi_endproc
 328              	.LFE352:
 330              		.section	.text.qspi_disable,"ax",@progbits
 331              		.align	1
 332              		.globl	qspi_disable
 334              	qspi_disable:
 335              	.LFB353:
 151:../Firmware/GD32VW55x_standard_peripheral/Source/gd32vw55x_qspi.c **** 
 152:../Firmware/GD32VW55x_standard_peripheral/Source/gd32vw55x_qspi.c **** /*!
 153:../Firmware/GD32VW55x_standard_peripheral/Source/gd32vw55x_qspi.c ****     \brief      disable QSPI
 154:../Firmware/GD32VW55x_standard_peripheral/Source/gd32vw55x_qspi.c ****     \param[in]  none
 155:../Firmware/GD32VW55x_standard_peripheral/Source/gd32vw55x_qspi.c ****     \param[out] none
 156:../Firmware/GD32VW55x_standard_peripheral/Source/gd32vw55x_qspi.c ****     \retval     none
 157:../Firmware/GD32VW55x_standard_peripheral/Source/gd32vw55x_qspi.c **** */
 158:../Firmware/GD32VW55x_standard_peripheral/Source/gd32vw55x_qspi.c **** void qspi_disable(void)
 159:../Firmware/GD32VW55x_standard_peripheral/Source/gd32vw55x_qspi.c **** {
 336              		.loc 1 159 1
 337              		.cfi_startproc
 338 0000 4111     		addi	sp,sp,-16
 339              		.cfi_def_cfa_offset 16
 340 0002 22C6     		sw	s0,12(sp)
 341              		.cfi_offset 8, -4
 342 0004 0008     		addi	s0,sp,16
 343              		.cfi_def_cfa 8, 0
 160:../Firmware/GD32VW55x_standard_peripheral/Source/gd32vw55x_qspi.c ****     QSPI_CTL &= (uint32_t)(~QSPI_CTL_QSPIEN);
 344              		.loc 1 160 14
 345 0006 B7670240 		li	a5,1073897472
 346 000a 93870780 		addi	a5,a5,-2048
 347 000e 9843     		lw	a4,0(a5)
 348 0010 B7670240 		li	a5,1073897472
 349 0014 93870780 		addi	a5,a5,-2048
 350 0018 799B     		andi	a4,a4,-2
 351 001a 98C3     		sw	a4,0(a5)
 161:../Firmware/GD32VW55x_standard_peripheral/Source/gd32vw55x_qspi.c **** }
 352              		.loc 1 161 1
 353 001c 0100     		nop
 354 001e 3244     		lw	s0,12(sp)
 355              		.cfi_restore 8
 356              		.cfi_def_cfa 2, 16
 357 0020 4101     		addi	sp,sp,16
 358              		.cfi_def_cfa_offset 0
 359 0022 8280     		jr	ra
 360              		.cfi_endproc
 361              	.LFE353:
 363              		.section	.text.qspi_dma_enable,"ax",@progbits
 364              		.align	1
 365              		.globl	qspi_dma_enable
 367              	qspi_dma_enable:
 368              	.LFB354:
 162:../Firmware/GD32VW55x_standard_peripheral/Source/gd32vw55x_qspi.c **** 
 163:../Firmware/GD32VW55x_standard_peripheral/Source/gd32vw55x_qspi.c **** /*!
 164:../Firmware/GD32VW55x_standard_peripheral/Source/gd32vw55x_qspi.c ****     \brief      enable QSPI DMA
 165:../Firmware/GD32VW55x_standard_peripheral/Source/gd32vw55x_qspi.c ****     \param[in]  none
 166:../Firmware/GD32VW55x_standard_peripheral/Source/gd32vw55x_qspi.c ****     \param[out] none
 167:../Firmware/GD32VW55x_standard_peripheral/Source/gd32vw55x_qspi.c ****     \retval     none
 168:../Firmware/GD32VW55x_standard_peripheral/Source/gd32vw55x_qspi.c **** */
 169:../Firmware/GD32VW55x_standard_peripheral/Source/gd32vw55x_qspi.c **** void qspi_dma_enable(void)
 170:../Firmware/GD32VW55x_standard_peripheral/Source/gd32vw55x_qspi.c **** {
 369              		.loc 1 170 1
 370              		.cfi_startproc
 371 0000 4111     		addi	sp,sp,-16
 372              		.cfi_def_cfa_offset 16
 373 0002 22C6     		sw	s0,12(sp)
 374              		.cfi_offset 8, -4
 375 0004 0008     		addi	s0,sp,16
 376              		.cfi_def_cfa 8, 0
 171:../Firmware/GD32VW55x_standard_peripheral/Source/gd32vw55x_qspi.c ****     QSPI_CTL |= (uint32_t)(QSPI_CTL_DMAEN);
 377              		.loc 1 171 14
 378 0006 B7670240 		li	a5,1073897472
 379 000a 93870780 		addi	a5,a5,-2048
 380 000e 9843     		lw	a4,0(a5)
 381 0010 B7670240 		li	a5,1073897472
 382 0014 93870780 		addi	a5,a5,-2048
 383 0018 13674700 		ori	a4,a4,4
 384 001c 98C3     		sw	a4,0(a5)
 172:../Firmware/GD32VW55x_standard_peripheral/Source/gd32vw55x_qspi.c **** }
 385              		.loc 1 172 1
 386 001e 0100     		nop
 387 0020 3244     		lw	s0,12(sp)
 388              		.cfi_restore 8
 389              		.cfi_def_cfa 2, 16
 390 0022 4101     		addi	sp,sp,16
 391              		.cfi_def_cfa_offset 0
 392 0024 8280     		jr	ra
 393              		.cfi_endproc
 394              	.LFE354:
 396              		.section	.text.qspi_dma_disable,"ax",@progbits
 397              		.align	1
 398              		.globl	qspi_dma_disable
 400              	qspi_dma_disable:
 401              	.LFB355:
 173:../Firmware/GD32VW55x_standard_peripheral/Source/gd32vw55x_qspi.c **** 
 174:../Firmware/GD32VW55x_standard_peripheral/Source/gd32vw55x_qspi.c **** /*!
 175:../Firmware/GD32VW55x_standard_peripheral/Source/gd32vw55x_qspi.c ****     \brief      disable QSPI DMA
 176:../Firmware/GD32VW55x_standard_peripheral/Source/gd32vw55x_qspi.c ****     \param[in]  none
 177:../Firmware/GD32VW55x_standard_peripheral/Source/gd32vw55x_qspi.c ****     \param[out] none
 178:../Firmware/GD32VW55x_standard_peripheral/Source/gd32vw55x_qspi.c ****     \retval     none
 179:../Firmware/GD32VW55x_standard_peripheral/Source/gd32vw55x_qspi.c **** */
 180:../Firmware/GD32VW55x_standard_peripheral/Source/gd32vw55x_qspi.c **** void qspi_dma_disable(void)
 181:../Firmware/GD32VW55x_standard_peripheral/Source/gd32vw55x_qspi.c **** {
 402              		.loc 1 181 1
 403              		.cfi_startproc
 404 0000 4111     		addi	sp,sp,-16
 405              		.cfi_def_cfa_offset 16
 406 0002 22C6     		sw	s0,12(sp)
 407              		.cfi_offset 8, -4
 408 0004 0008     		addi	s0,sp,16
 409              		.cfi_def_cfa 8, 0
 182:../Firmware/GD32VW55x_standard_peripheral/Source/gd32vw55x_qspi.c ****     QSPI_CTL &= (uint32_t)(~QSPI_CTL_DMAEN);
 410              		.loc 1 182 14
 411 0006 B7670240 		li	a5,1073897472
 412 000a 93870780 		addi	a5,a5,-2048
 413 000e 9843     		lw	a4,0(a5)
 414 0010 B7670240 		li	a5,1073897472
 415 0014 93870780 		addi	a5,a5,-2048
 416 0018 6D9B     		andi	a4,a4,-5
 417 001a 98C3     		sw	a4,0(a5)
 183:../Firmware/GD32VW55x_standard_peripheral/Source/gd32vw55x_qspi.c **** }
 418              		.loc 1 183 1
 419 001c 0100     		nop
 420 001e 3244     		lw	s0,12(sp)
 421              		.cfi_restore 8
 422              		.cfi_def_cfa 2, 16
 423 0020 4101     		addi	sp,sp,16
 424              		.cfi_def_cfa_offset 0
 425 0022 8280     		jr	ra
 426              		.cfi_endproc
 427              	.LFE355:
 429              		.section	.text.qspi_command_config,"ax",@progbits
 430              		.align	1
 431              		.globl	qspi_command_config
 433              	qspi_command_config:
 434              	.LFB356:
 184:../Firmware/GD32VW55x_standard_peripheral/Source/gd32vw55x_qspi.c **** 
 185:../Firmware/GD32VW55x_standard_peripheral/Source/gd32vw55x_qspi.c **** /*!
 186:../Firmware/GD32VW55x_standard_peripheral/Source/gd32vw55x_qspi.c ****     \brief      configure QSPI command parameters
 187:../Firmware/GD32VW55x_standard_peripheral/Source/gd32vw55x_qspi.c ****     \param[in]  cmd: QSPI command parameter structure
 188:../Firmware/GD32VW55x_standard_peripheral/Source/gd32vw55x_qspi.c ****                              and the member values are shown as below:
 189:../Firmware/GD32VW55x_standard_peripheral/Source/gd32vw55x_qspi.c ****                   instruction_mode: QSPI_INSTRUCTION_NONE, QSPI_INSTRUCTION_1_LINE,
 190:../Firmware/GD32VW55x_standard_peripheral/Source/gd32vw55x_qspi.c ****                                     QSPI_INSTRUCTION_2_LINES, QSPI_INSTRUCTION_4_LINES
 191:../Firmware/GD32VW55x_standard_peripheral/Source/gd32vw55x_qspi.c ****                   instruction: reference flash commands description
 192:../Firmware/GD32VW55x_standard_peripheral/Source/gd32vw55x_qspi.c ****                   addr_mode: QSPI_ADDR_NONE, QSPI_ADDR_1_LINE, QSPI_ADDR_2_LINES, QSPI_ADDR_4_LINES
 193:../Firmware/GD32VW55x_standard_peripheral/Source/gd32vw55x_qspi.c ****                   addr_size: QSPI_ADDR_8_BITS, QSPI_ADDR_16_BITS, QSPI_ADDR_24_BITS, QSPI_ADDR_32_B
 194:../Firmware/GD32VW55x_standard_peripheral/Source/gd32vw55x_qspi.c ****                   addr: 0-flash size
 195:../Firmware/GD32VW55x_standard_peripheral/Source/gd32vw55x_qspi.c ****                   altebytes_mode: QSPI_ALTE_BYTES_NONE, QSPI_ALTE_BYTES_1_LINE,
 196:../Firmware/GD32VW55x_standard_peripheral/Source/gd32vw55x_qspi.c ****                                   QSPI_ALTE_BYTES_2_LINES, QSPI_ALTE_BYTES_4_LINES
 197:../Firmware/GD32VW55x_standard_peripheral/Source/gd32vw55x_qspi.c ****                   altebytes_size: QSPI_ALTE_BYTES_8_BITS, QSPI_ALTE_BYTES_16_BITS,
 198:../Firmware/GD32VW55x_standard_peripheral/Source/gd32vw55x_qspi.c ****                                   QSPI_ALTE_BYTES_24_BITS, QSPI_ALTE_BYTES_32_BITS
 199:../Firmware/GD32VW55x_standard_peripheral/Source/gd32vw55x_qspi.c ****                   altebytes: 0-0xFFFFFFFF
 200:../Firmware/GD32VW55x_standard_peripheral/Source/gd32vw55x_qspi.c ****                   dummycycles: between 0 and 31
 201:../Firmware/GD32VW55x_standard_peripheral/Source/gd32vw55x_qspi.c ****                   data_mode: QSPI_DATA_NONE, QSPI_DATA_1_LINE, QSPI_DATA_2_LINES, QSPI_DATA_4_LINES
 202:../Firmware/GD32VW55x_standard_peripheral/Source/gd32vw55x_qspi.c ****                   data_length: 0-0xFFFFFFFF
 203:../Firmware/GD32VW55x_standard_peripheral/Source/gd32vw55x_qspi.c ****                   sioo_mode: QSPI_SIOO_INST_EVERY_CMD, QSPI_SIOO_INST_ONLY_FIRST_CMD
 204:../Firmware/GD32VW55x_standard_peripheral/Source/gd32vw55x_qspi.c ****     \param[out] none
 205:../Firmware/GD32VW55x_standard_peripheral/Source/gd32vw55x_qspi.c ****     \retval     none
 206:../Firmware/GD32VW55x_standard_peripheral/Source/gd32vw55x_qspi.c **** */
 207:../Firmware/GD32VW55x_standard_peripheral/Source/gd32vw55x_qspi.c **** void qspi_command_config(qspi_command_struct *cmd)
 208:../Firmware/GD32VW55x_standard_peripheral/Source/gd32vw55x_qspi.c **** {
 435              		.loc 1 208 1
 436              		.cfi_startproc
 437 0000 0111     		addi	sp,sp,-32
 438              		.cfi_def_cfa_offset 32
 439 0002 06CE     		sw	ra,28(sp)
 440 0004 22CC     		sw	s0,24(sp)
 441              		.cfi_offset 1, -4
 442              		.cfi_offset 8, -8
 443 0006 0010     		addi	s0,sp,32
 444              		.cfi_def_cfa 8, 0
 445 0008 2326A4FE 		sw	a0,-20(s0)
 209:../Firmware/GD32VW55x_standard_peripheral/Source/gd32vw55x_qspi.c ****     /* call the configuration function */
 210:../Firmware/GD32VW55x_standard_peripheral/Source/gd32vw55x_qspi.c ****     qspi_config(cmd, QSPI_NORMAL_WRITE);
 446              		.loc 1 210 5
 447 000c 8145     		li	a1,0
 448 000e 0325C4FE 		lw	a0,-20(s0)
 449 0012 97000000 		call	qspi_config
 449      E7800000 
 211:../Firmware/GD32VW55x_standard_peripheral/Source/gd32vw55x_qspi.c **** 
 212:../Firmware/GD32VW55x_standard_peripheral/Source/gd32vw55x_qspi.c ****     if(cmd->data_mode == QSPI_DATA_NONE) {
 450              		.loc 1 212 11
 451 001a 8327C4FE 		lw	a5,-20(s0)
 452 001e DC53     		lw	a5,36(a5)
 453              		.loc 1 212 7
 454 0020 99EF     		bne	a5,zero,.L13
 213:../Firmware/GD32VW55x_standard_peripheral/Source/gd32vw55x_qspi.c ****         /* when there is no data phase, the transfer start as soon as the configuration is done
 214:../Firmware/GD32VW55x_standard_peripheral/Source/gd32vw55x_qspi.c ****         so wait until TC flag is set to go back in idle state */
 215:../Firmware/GD32VW55x_standard_peripheral/Source/gd32vw55x_qspi.c ****         while((QSPI_STAT & QSPI_FLAG_TC) == 0U) {
 455              		.loc 1 215 14
 456 0022 0100     		nop
 457              	.L12:
 458              		.loc 1 215 16 discriminator 1
 459 0024 B7670240 		li	a5,1073897472
 460 0028 93878780 		addi	a5,a5,-2040
 461 002c 9C43     		lw	a5,0(a5)
 462              		.loc 1 215 26 discriminator 1
 463 002e 898B     		andi	a5,a5,2
 464              		.loc 1 215 14 discriminator 1
 465 0030 F5DB     		beq	a5,zero,.L12
 216:../Firmware/GD32VW55x_standard_peripheral/Source/gd32vw55x_qspi.c ****         }
 217:../Firmware/GD32VW55x_standard_peripheral/Source/gd32vw55x_qspi.c ****         QSPI_STATC = QSPI_STATC_TCC;
 466              		.loc 1 217 9
 467 0032 B7670240 		li	a5,1073897472
 468 0036 9387C780 		addi	a5,a5,-2036
 469              		.loc 1 217 20
 470 003a 0947     		li	a4,2
 471 003c 98C3     		sw	a4,0(a5)
 472              	.L13:
 218:../Firmware/GD32VW55x_standard_peripheral/Source/gd32vw55x_qspi.c ****     }
 219:../Firmware/GD32VW55x_standard_peripheral/Source/gd32vw55x_qspi.c **** }
 473              		.loc 1 219 1
 474 003e 0100     		nop
 475 0040 F240     		lw	ra,28(sp)
 476              		.cfi_restore 1
 477 0042 6244     		lw	s0,24(sp)
 478              		.cfi_restore 8
 479              		.cfi_def_cfa 2, 32
 480 0044 0561     		addi	sp,sp,32
 481              		.cfi_def_cfa_offset 0
 482 0046 8280     		jr	ra
 483              		.cfi_endproc
 484              	.LFE356:
 486              		.section	.text.qspi_polling_config,"ax",@progbits
 487              		.align	1
 488              		.globl	qspi_polling_config
 490              	qspi_polling_config:
 491              	.LFB357:
 220:../Firmware/GD32VW55x_standard_peripheral/Source/gd32vw55x_qspi.c **** 
 221:../Firmware/GD32VW55x_standard_peripheral/Source/gd32vw55x_qspi.c **** /*!
 222:../Firmware/GD32VW55x_standard_peripheral/Source/gd32vw55x_qspi.c ****     \brief      configure QSPI read polling mode
 223:../Firmware/GD32VW55x_standard_peripheral/Source/gd32vw55x_qspi.c ****     \param[in]  cmd: QSPI command parameter structure
 224:../Firmware/GD32VW55x_standard_peripheral/Source/gd32vw55x_qspi.c ****                              and the member values are shown as below:
 225:../Firmware/GD32VW55x_standard_peripheral/Source/gd32vw55x_qspi.c ****                   instruction_mode: QSPI_INSTRUCTION_NONE, QSPI_INSTRUCTION_1_LINE,
 226:../Firmware/GD32VW55x_standard_peripheral/Source/gd32vw55x_qspi.c ****                                     QSPI_INSTRUCTION_2_LINES, QSPI_INSTRUCTION_4_LINES
 227:../Firmware/GD32VW55x_standard_peripheral/Source/gd32vw55x_qspi.c ****                   instruction: reference flash commands description
 228:../Firmware/GD32VW55x_standard_peripheral/Source/gd32vw55x_qspi.c ****                   addr_mode: QSPI_ADDR_NONE, QSPI_ADDR_1_LINE, QSPI_ADDR_2_LINES, QSPI_ADDR_4_LINES
 229:../Firmware/GD32VW55x_standard_peripheral/Source/gd32vw55x_qspi.c ****                   addr_size: QSPI_ADDR_8_BITS, QSPI_ADDR_16_BITS, QSPI_ADDR_24_BITS, QSPI_ADDR_32_B
 230:../Firmware/GD32VW55x_standard_peripheral/Source/gd32vw55x_qspi.c ****                   addr: 0-flash size
 231:../Firmware/GD32VW55x_standard_peripheral/Source/gd32vw55x_qspi.c ****                   altebytes_mode: QSPI_ALTE_BYTES_NONE, QSPI_ALTE_BYTES_1_LINE,
 232:../Firmware/GD32VW55x_standard_peripheral/Source/gd32vw55x_qspi.c ****                                   QSPI_ALTE_BYTES_2_LINES, QSPI_ALTE_BYTES_4_LINES
 233:../Firmware/GD32VW55x_standard_peripheral/Source/gd32vw55x_qspi.c ****                   altebytes_size: QSPI_ALTE_BYTES_8_BITS, QSPI_ALTE_BYTES_16_BITS,
 234:../Firmware/GD32VW55x_standard_peripheral/Source/gd32vw55x_qspi.c ****                                   QSPI_ALTE_BYTES_24_BITS, QSPI_ALTE_BYTES_32_BITS
 235:../Firmware/GD32VW55x_standard_peripheral/Source/gd32vw55x_qspi.c ****                   altebytes: 0-0xFFFFFFFF
 236:../Firmware/GD32VW55x_standard_peripheral/Source/gd32vw55x_qspi.c ****                   dummycycles: between 0 and 31
 237:../Firmware/GD32VW55x_standard_peripheral/Source/gd32vw55x_qspi.c ****                   data_mode: QSPI_DATA_NONE, QSPI_DATA_1_LINE, QSPI_DATA_2_LINES, QSPI_DATA_4_LINES
 238:../Firmware/GD32VW55x_standard_peripheral/Source/gd32vw55x_qspi.c ****                   data_length: 0-0xFFFFFFFF
 239:../Firmware/GD32VW55x_standard_peripheral/Source/gd32vw55x_qspi.c ****                   sioo_mode: QSPI_SIOO_INST_EVERY_CMD, QSPI_SIOO_INST_ONLY_FIRST_CMD
 240:../Firmware/GD32VW55x_standard_peripheral/Source/gd32vw55x_qspi.c ****     \param[in]  cfg: QSPI read polling parameter structure
 241:../Firmware/GD32VW55x_standard_peripheral/Source/gd32vw55x_qspi.c ****                              and the member values are shown as below:
 242:../Firmware/GD32VW55x_standard_peripheral/Source/gd32vw55x_qspi.c ****                   match: between 0 and 0xFFFFFFFF
 243:../Firmware/GD32VW55x_standard_peripheral/Source/gd32vw55x_qspi.c ****                   mask: between 0 and 0xFFFFFFFF
 244:../Firmware/GD32VW55x_standard_peripheral/Source/gd32vw55x_qspi.c ****                   interval: between 0 and 0xFFFF
 245:../Firmware/GD32VW55x_standard_peripheral/Source/gd32vw55x_qspi.c ****                   statusbytes_size: between 1 and 4
 246:../Firmware/GD32VW55x_standard_peripheral/Source/gd32vw55x_qspi.c ****                   match_mode: QSPI_MATCH_MODE_AND, QSPI_MATCH_MODE_OR
 247:../Firmware/GD32VW55x_standard_peripheral/Source/gd32vw55x_qspi.c ****                   polling_stop: QSPI_POLLING_STOP_DISABLE,QSPI_POLLING_STOP_ENABLE
 248:../Firmware/GD32VW55x_standard_peripheral/Source/gd32vw55x_qspi.c ****     \param[out] none
 249:../Firmware/GD32VW55x_standard_peripheral/Source/gd32vw55x_qspi.c ****     \retval     none
 250:../Firmware/GD32VW55x_standard_peripheral/Source/gd32vw55x_qspi.c **** */
 251:../Firmware/GD32VW55x_standard_peripheral/Source/gd32vw55x_qspi.c **** void qspi_polling_config(qspi_command_struct *cmd, qspi_polling_struct *cfg)
 252:../Firmware/GD32VW55x_standard_peripheral/Source/gd32vw55x_qspi.c **** {
 492              		.loc 1 252 1
 493              		.cfi_startproc
 494 0000 0111     		addi	sp,sp,-32
 495              		.cfi_def_cfa_offset 32
 496 0002 06CE     		sw	ra,28(sp)
 497 0004 22CC     		sw	s0,24(sp)
 498              		.cfi_offset 1, -4
 499              		.cfi_offset 8, -8
 500 0006 0010     		addi	s0,sp,32
 501              		.cfi_def_cfa 8, 0
 502 0008 2326A4FE 		sw	a0,-20(s0)
 503 000c 2324B4FE 		sw	a1,-24(s0)
 253:../Firmware/GD32VW55x_standard_peripheral/Source/gd32vw55x_qspi.c ****     /* configure the match value */
 254:../Firmware/GD32VW55x_standard_peripheral/Source/gd32vw55x_qspi.c ****     QSPI_STATMATCH = cfg->match;
 504              		.loc 1 254 5
 505 0010 B7670240 		li	a5,1073897472
 506 0014 93878782 		addi	a5,a5,-2008
 507              		.loc 1 254 25
 508 0018 032784FE 		lw	a4,-24(s0)
 509 001c 1843     		lw	a4,0(a4)
 510              		.loc 1 254 20
 511 001e 98C3     		sw	a4,0(a5)
 255:../Firmware/GD32VW55x_standard_peripheral/Source/gd32vw55x_qspi.c ****     /* configure the mask value */
 256:../Firmware/GD32VW55x_standard_peripheral/Source/gd32vw55x_qspi.c ****     QSPI_STATMK = cfg->mask;
 512              		.loc 1 256 5
 513 0020 B7670240 		li	a5,1073897472
 514 0024 93874782 		addi	a5,a5,-2012
 515              		.loc 1 256 22
 516 0028 032784FE 		lw	a4,-24(s0)
 517 002c 5843     		lw	a4,4(a4)
 518              		.loc 1 256 17
 519 002e 98C3     		sw	a4,0(a5)
 257:../Firmware/GD32VW55x_standard_peripheral/Source/gd32vw55x_qspi.c ****     /* configure the interval cycle */
 258:../Firmware/GD32VW55x_standard_peripheral/Source/gd32vw55x_qspi.c ****     QSPI_INTERVAL = cfg->interval;
 520              		.loc 1 258 5
 521 0030 B7670240 		li	a5,1073897472
 522 0034 9387C782 		addi	a5,a5,-2004
 523              		.loc 1 258 24
 524 0038 032784FE 		lw	a4,-24(s0)
 525 003c 1847     		lw	a4,8(a4)
 526              		.loc 1 258 19
 527 003e 98C3     		sw	a4,0(a5)
 259:../Firmware/GD32VW55x_standard_peripheral/Source/gd32vw55x_qspi.c ****     /* configure the read polling match mode and read polling mode stop */
 260:../Firmware/GD32VW55x_standard_peripheral/Source/gd32vw55x_qspi.c ****     QSPI_CTL &= ~(QSPI_CTL_RPMS | QSPI_CTL_RPMM);
 528              		.loc 1 260 14
 529 0040 B7670240 		li	a5,1073897472
 530 0044 93870780 		addi	a5,a5,-2048
 531 0048 9443     		lw	a3,0(a5)
 532 004a B7670240 		li	a5,1073897472
 533 004e 93870780 		addi	a5,a5,-2048
 534 0052 370740FF 		li	a4,-12582912
 535 0056 7D17     		addi	a4,a4,-1
 536 0058 758F     		and	a4,a3,a4
 537 005a 98C3     		sw	a4,0(a5)
 261:../Firmware/GD32VW55x_standard_peripheral/Source/gd32vw55x_qspi.c ****     QSPI_CTL |= (cfg->match_mode | cfg->polling_stop);
 538              		.loc 1 261 14
 539 005c B7670240 		li	a5,1073897472
 540 0060 93870780 		addi	a5,a5,-2048
 541 0064 9443     		lw	a3,0(a5)
 542              		.loc 1 261 21
 543 0066 832784FE 		lw	a5,-24(s0)
 544 006a 984B     		lw	a4,16(a5)
 545              		.loc 1 261 39
 546 006c 832784FE 		lw	a5,-24(s0)
 547 0070 DC4B     		lw	a5,20(a5)
 548              		.loc 1 261 34
 549 0072 5D8F     		or	a4,a4,a5
 550              		.loc 1 261 14
 551 0074 B7670240 		li	a5,1073897472
 552 0078 93870780 		addi	a5,a5,-2048
 553 007c 558F     		or	a4,a3,a4
 554 007e 98C3     		sw	a4,0(a5)
 262:../Firmware/GD32VW55x_standard_peripheral/Source/gd32vw55x_qspi.c **** 
 263:../Firmware/GD32VW55x_standard_peripheral/Source/gd32vw55x_qspi.c ****     cmd->data_length = cfg->statusbytes_size;
 555              		.loc 1 263 27
 556 0080 832784FE 		lw	a5,-24(s0)
 557 0084 D847     		lw	a4,12(a5)
 558              		.loc 1 263 22
 559 0086 8327C4FE 		lw	a5,-20(s0)
 560 008a 98D7     		sw	a4,40(a5)
 264:../Firmware/GD32VW55x_standard_peripheral/Source/gd32vw55x_qspi.c ****     qspi_config(cmd, QSPI_READ_POLLING);
 561              		.loc 1 264 5
 562 008c B7050008 		li	a1,134217728
 563 0090 0325C4FE 		lw	a0,-20(s0)
 564 0094 97000000 		call	qspi_config
 564      E7800000 
 265:../Firmware/GD32VW55x_standard_peripheral/Source/gd32vw55x_qspi.c **** }
 565              		.loc 1 265 1
 566 009c 0100     		nop
 567 009e F240     		lw	ra,28(sp)
 568              		.cfi_restore 1
 569 00a0 6244     		lw	s0,24(sp)
 570              		.cfi_restore 8
 571              		.cfi_def_cfa 2, 32
 572 00a2 0561     		addi	sp,sp,32
 573              		.cfi_def_cfa_offset 0
 574 00a4 8280     		jr	ra
 575              		.cfi_endproc
 576              	.LFE357:
 578              		.section	.text.qspi_memorymapped_config,"ax",@progbits
 579              		.align	1
 580              		.globl	qspi_memorymapped_config
 582              	qspi_memorymapped_config:
 583              	.LFB358:
 266:../Firmware/GD32VW55x_standard_peripheral/Source/gd32vw55x_qspi.c **** 
 267:../Firmware/GD32VW55x_standard_peripheral/Source/gd32vw55x_qspi.c **** /*!
 268:../Firmware/GD32VW55x_standard_peripheral/Source/gd32vw55x_qspi.c ****     \brief      configure QSPI memory mapped mode
 269:../Firmware/GD32VW55x_standard_peripheral/Source/gd32vw55x_qspi.c ****     \param[in]  cmd: QSPI command parameter structure
 270:../Firmware/GD32VW55x_standard_peripheral/Source/gd32vw55x_qspi.c ****                              and the member values are shown as below:
 271:../Firmware/GD32VW55x_standard_peripheral/Source/gd32vw55x_qspi.c ****                   instruction_mode: QSPI_INSTRUCTION_NONE, QSPI_INSTRUCTION_1_LINE,
 272:../Firmware/GD32VW55x_standard_peripheral/Source/gd32vw55x_qspi.c ****                                     QSPI_INSTRUCTION_2_LINES, QSPI_INSTRUCTION_4_LINES
 273:../Firmware/GD32VW55x_standard_peripheral/Source/gd32vw55x_qspi.c ****                   instruction: reference flash commands description
 274:../Firmware/GD32VW55x_standard_peripheral/Source/gd32vw55x_qspi.c ****                   addr_mode: QSPI_ADDR_NONE, QSPI_ADDR_1_LINE, QSPI_ADDR_2_LINES, QSPI_ADDR_4_LINES
 275:../Firmware/GD32VW55x_standard_peripheral/Source/gd32vw55x_qspi.c ****                   addr_size: QSPI_ADDR_8_BITS, QSPI_ADDR_16_BITS, QSPI_ADDR_24_BITS, QSPI_ADDR_32_B
 276:../Firmware/GD32VW55x_standard_peripheral/Source/gd32vw55x_qspi.c ****                   addr: 0-flash size
 277:../Firmware/GD32VW55x_standard_peripheral/Source/gd32vw55x_qspi.c ****                   altebytes_mode: QSPI_ALTE_BYTES_NONE, QSPI_ALTE_BYTES_1_LINE,
 278:../Firmware/GD32VW55x_standard_peripheral/Source/gd32vw55x_qspi.c ****                                   QSPI_ALTE_BYTES_2_LINES, QSPI_ALTE_BYTES_4_LINES
 279:../Firmware/GD32VW55x_standard_peripheral/Source/gd32vw55x_qspi.c ****                   altebytes_size: QSPI_ALTE_BYTES_8_BITS, QSPI_ALTE_BYTES_16_BITS,
 280:../Firmware/GD32VW55x_standard_peripheral/Source/gd32vw55x_qspi.c ****                                   QSPI_ALTE_BYTES_24_BITS, QSPI_ALTE_BYTES_32_BITS
 281:../Firmware/GD32VW55x_standard_peripheral/Source/gd32vw55x_qspi.c ****                   altebytes: 0-0xFFFFFFFF
 282:../Firmware/GD32VW55x_standard_peripheral/Source/gd32vw55x_qspi.c ****                   dummycycles: between 0 and 31
 283:../Firmware/GD32VW55x_standard_peripheral/Source/gd32vw55x_qspi.c ****                   data_mode: QSPI_DATA_NONE, QSPI_DATA_1_LINE, QSPI_DATA_2_LINES, QSPI_DATA_4_LINES
 284:../Firmware/GD32VW55x_standard_peripheral/Source/gd32vw55x_qspi.c ****                   data_length: 0-0xFFFFFFFF
 285:../Firmware/GD32VW55x_standard_peripheral/Source/gd32vw55x_qspi.c ****                   sioo_mode: QSPI_SIOO_INST_EVERY_CMD, QSPI_SIOO_INST_ONLY_FIRST_CMD
 286:../Firmware/GD32VW55x_standard_peripheral/Source/gd32vw55x_qspi.c ****     \param[in]  timeout: 0-0xFFFF
 287:../Firmware/GD32VW55x_standard_peripheral/Source/gd32vw55x_qspi.c ****     \param[in]  toen:
 288:../Firmware/GD32VW55x_standard_peripheral/Source/gd32vw55x_qspi.c ****       \arg        QSPI_TMOUT_DISABLE: disable timeout counter
 289:../Firmware/GD32VW55x_standard_peripheral/Source/gd32vw55x_qspi.c ****       \arg        QSPI_TMOUT_ENABLE: enable timeout counter
 290:../Firmware/GD32VW55x_standard_peripheral/Source/gd32vw55x_qspi.c ****     \param[out] none
 291:../Firmware/GD32VW55x_standard_peripheral/Source/gd32vw55x_qspi.c ****     \retval     none
 292:../Firmware/GD32VW55x_standard_peripheral/Source/gd32vw55x_qspi.c **** */
 293:../Firmware/GD32VW55x_standard_peripheral/Source/gd32vw55x_qspi.c **** void qspi_memorymapped_config(qspi_command_struct *cmd, uint16_t timeout, uint32_t toen)
 294:../Firmware/GD32VW55x_standard_peripheral/Source/gd32vw55x_qspi.c **** {
 584              		.loc 1 294 1
 585              		.cfi_startproc
 586 0000 0111     		addi	sp,sp,-32
 587              		.cfi_def_cfa_offset 32
 588 0002 06CE     		sw	ra,28(sp)
 589 0004 22CC     		sw	s0,24(sp)
 590              		.cfi_offset 1, -4
 591              		.cfi_offset 8, -8
 592 0006 0010     		addi	s0,sp,32
 593              		.cfi_def_cfa 8, 0
 594 0008 2326A4FE 		sw	a0,-20(s0)
 595 000c AE87     		mv	a5,a1
 596 000e 2322C4FE 		sw	a2,-28(s0)
 597 0012 2315F4FE 		sh	a5,-22(s0)
 295:../Firmware/GD32VW55x_standard_peripheral/Source/gd32vw55x_qspi.c ****     /* enable timeout */
 296:../Firmware/GD32VW55x_standard_peripheral/Source/gd32vw55x_qspi.c ****     QSPI_CTL &= ~QSPI_CTL_TMOUTEN;
 598              		.loc 1 296 14
 599 0016 B7670240 		li	a5,1073897472
 600 001a 93870780 		addi	a5,a5,-2048
 601 001e 9843     		lw	a4,0(a5)
 602 0020 B7670240 		li	a5,1073897472
 603 0024 93870780 		addi	a5,a5,-2048
 604 0028 5D9B     		andi	a4,a4,-9
 605 002a 98C3     		sw	a4,0(a5)
 297:../Firmware/GD32VW55x_standard_peripheral/Source/gd32vw55x_qspi.c ****     QSPI_CTL |= toen;
 606              		.loc 1 297 14
 607 002c B7670240 		li	a5,1073897472
 608 0030 93870780 		addi	a5,a5,-2048
 609 0034 9443     		lw	a3,0(a5)
 610 0036 B7670240 		li	a5,1073897472
 611 003a 93870780 		addi	a5,a5,-2048
 612 003e 032744FE 		lw	a4,-28(s0)
 613 0042 558F     		or	a4,a3,a4
 614 0044 98C3     		sw	a4,0(a5)
 298:../Firmware/GD32VW55x_standard_peripheral/Source/gd32vw55x_qspi.c **** 
 299:../Firmware/GD32VW55x_standard_peripheral/Source/gd32vw55x_qspi.c ****     if(toen == QSPI_CTL_TMOUTEN) {
 615              		.loc 1 299 7
 616 0046 032744FE 		lw	a4,-28(s0)
 617 004a A147     		li	a5,8
 618 004c 631CF702 		bne	a4,a5,.L16
 300:../Firmware/GD32VW55x_standard_peripheral/Source/gd32vw55x_qspi.c ****         /* configure the timeout value */
 301:../Firmware/GD32VW55x_standard_peripheral/Source/gd32vw55x_qspi.c ****         QSPI_TMOUT = timeout;
 619              		.loc 1 301 9
 620 0050 B7670240 		li	a5,1073897472
 621 0054 93870783 		addi	a5,a5,-2000
 622              		.loc 1 301 20
 623 0058 0357A4FE 		lhu	a4,-22(s0)
 624 005c 98C3     		sw	a4,0(a5)
 302:../Firmware/GD32VW55x_standard_peripheral/Source/gd32vw55x_qspi.c ****         QSPI_STATC = QSPI_STATC_TMOUTC;
 625              		.loc 1 302 9
 626 005e B7670240 		li	a5,1073897472
 627 0062 9387C780 		addi	a5,a5,-2036
 628              		.loc 1 302 20
 629 0066 4147     		li	a4,16
 630 0068 98C3     		sw	a4,0(a5)
 303:../Firmware/GD32VW55x_standard_peripheral/Source/gd32vw55x_qspi.c ****         /* enable the QSPI timeout interrupt */
 304:../Firmware/GD32VW55x_standard_peripheral/Source/gd32vw55x_qspi.c ****         QSPI_CTL |= QSPI_CTL_TMOUTIE;
 631              		.loc 1 304 18
 632 006a B7670240 		li	a5,1073897472
 633 006e 93870780 		addi	a5,a5,-2048
 634 0072 9443     		lw	a3,0(a5)
 635 0074 B7670240 		li	a5,1073897472
 636 0078 93870780 		addi	a5,a5,-2048
 637 007c 37071000 		li	a4,1048576
 638 0080 558F     		or	a4,a3,a4
 639 0082 98C3     		sw	a4,0(a5)
 640              	.L16:
 305:../Firmware/GD32VW55x_standard_peripheral/Source/gd32vw55x_qspi.c ****     }
 306:../Firmware/GD32VW55x_standard_peripheral/Source/gd32vw55x_qspi.c ****     qspi_config(cmd, QSPI_MEMORY_MAPPED);
 641              		.loc 1 306 5
 642 0084 B705000C 		li	a1,201326592
 643 0088 0325C4FE 		lw	a0,-20(s0)
 644 008c 97000000 		call	qspi_config
 644      E7800000 
 307:../Firmware/GD32VW55x_standard_peripheral/Source/gd32vw55x_qspi.c **** }
 645              		.loc 1 307 1
 646 0094 0100     		nop
 647 0096 F240     		lw	ra,28(sp)
 648              		.cfi_restore 1
 649 0098 6244     		lw	s0,24(sp)
 650              		.cfi_restore 8
 651              		.cfi_def_cfa 2, 32
 652 009a 0561     		addi	sp,sp,32
 653              		.cfi_def_cfa_offset 0
 654 009c 8280     		jr	ra
 655              		.cfi_endproc
 656              	.LFE358:
 658              		.section	.text.qspi_data_transmit,"ax",@progbits
 659              		.align	1
 660              		.globl	qspi_data_transmit
 662              	qspi_data_transmit:
 663              	.LFB359:
 308:../Firmware/GD32VW55x_standard_peripheral/Source/gd32vw55x_qspi.c **** 
 309:../Firmware/GD32VW55x_standard_peripheral/Source/gd32vw55x_qspi.c **** /*!
 310:../Firmware/GD32VW55x_standard_peripheral/Source/gd32vw55x_qspi.c ****     \brief      QSPI transmit data function
 311:../Firmware/GD32VW55x_standard_peripheral/Source/gd32vw55x_qspi.c ****     \param[in]  tdata: pointer to the data to be transmitted
 312:../Firmware/GD32VW55x_standard_peripheral/Source/gd32vw55x_qspi.c ****     \param[out] none
 313:../Firmware/GD32VW55x_standard_peripheral/Source/gd32vw55x_qspi.c ****     \retval     none
 314:../Firmware/GD32VW55x_standard_peripheral/Source/gd32vw55x_qspi.c **** */
 315:../Firmware/GD32VW55x_standard_peripheral/Source/gd32vw55x_qspi.c **** void qspi_data_transmit(uint8_t *tdata)
 316:../Firmware/GD32VW55x_standard_peripheral/Source/gd32vw55x_qspi.c **** {
 664              		.loc 1 316 1
 665              		.cfi_startproc
 666 0000 7971     		addi	sp,sp,-48
 667              		.cfi_def_cfa_offset 48
 668 0002 22D6     		sw	s0,44(sp)
 669              		.cfi_offset 8, -4
 670 0004 0018     		addi	s0,sp,48
 671              		.cfi_def_cfa 8, 0
 672 0006 232EA4FC 		sw	a0,-36(s0)
 317:../Firmware/GD32VW55x_standard_peripheral/Source/gd32vw55x_qspi.c ****     uint32_t tx_cnt;
 318:../Firmware/GD32VW55x_standard_peripheral/Source/gd32vw55x_qspi.c **** 
 319:../Firmware/GD32VW55x_standard_peripheral/Source/gd32vw55x_qspi.c ****     tx_cnt = QSPI_DTLEN + 1U;
 673              		.loc 1 319 14
 674 000a B7670240 		li	a5,1073897472
 675 000e 93870781 		addi	a5,a5,-2032
 676 0012 9C43     		lw	a5,0(a5)
 677              		.loc 1 319 12
 678 0014 8507     		addi	a5,a5,1
 679 0016 2326F4FE 		sw	a5,-20(s0)
 320:../Firmware/GD32VW55x_standard_peripheral/Source/gd32vw55x_qspi.c **** 
 321:../Firmware/GD32VW55x_standard_peripheral/Source/gd32vw55x_qspi.c ****     QSPI_TCFG = (QSPI_TCFG & ~QSPI_MEMORY_MAPPED) | QSPI_NORMAL_WRITE;
 680              		.loc 1 321 18
 681 001a B7670240 		li	a5,1073897472
 682 001e 93874781 		addi	a5,a5,-2028
 683 0022 9443     		lw	a3,0(a5)
 684              		.loc 1 321 5
 685 0024 B7670240 		li	a5,1073897472
 686 0028 93874781 		addi	a5,a5,-2028
 687              		.loc 1 321 51
 688 002c 370700F4 		li	a4,-201326592
 689 0030 7D17     		addi	a4,a4,-1
 690 0032 758F     		and	a4,a3,a4
 691              		.loc 1 321 15
 692 0034 98C3     		sw	a4,0(a5)
 322:../Firmware/GD32VW55x_standard_peripheral/Source/gd32vw55x_qspi.c **** 
 323:../Firmware/GD32VW55x_standard_peripheral/Source/gd32vw55x_qspi.c ****     while(tx_cnt > 0U) {
 693              		.loc 1 323 10
 694 0036 25A8     		j	.L18
 695              	.L20:
 324:../Firmware/GD32VW55x_standard_peripheral/Source/gd32vw55x_qspi.c ****         while((QSPI_STAT & QSPI_FLAG_FT) == 0U) {
 696              		.loc 1 324 14
 697 0038 0100     		nop
 698              	.L19:
 699              		.loc 1 324 16 discriminator 1
 700 003a B7670240 		li	a5,1073897472
 701 003e 93878780 		addi	a5,a5,-2040
 702 0042 9C43     		lw	a5,0(a5)
 703              		.loc 1 324 26 discriminator 1
 704 0044 918B     		andi	a5,a5,4
 705              		.loc 1 324 14 discriminator 1
 706 0046 F5DB     		beq	a5,zero,.L19
 325:../Firmware/GD32VW55x_standard_peripheral/Source/gd32vw55x_qspi.c ****         }
 326:../Firmware/GD32VW55x_standard_peripheral/Source/gd32vw55x_qspi.c ****         /* transmit data */
 327:../Firmware/GD32VW55x_standard_peripheral/Source/gd32vw55x_qspi.c ****         *(uint8_t *)(QSPI + 0x00000020U) = *tdata++;
 707              		.loc 1 327 50
 708 0048 8327C4FD 		lw	a5,-36(s0)
 709 004c 13871700 		addi	a4,a5,1
 710 0050 232EE4FC 		sw	a4,-36(s0)
 711              		.loc 1 327 9
 712 0054 37670240 		li	a4,1073897472
 713 0058 13070782 		addi	a4,a4,-2016
 714              		.loc 1 327 44
 715 005c 83C70700 		lbu	a5,0(a5)
 716              		.loc 1 327 42
 717 0060 2300F700 		sb	a5,0(a4)
 328:../Firmware/GD32VW55x_standard_peripheral/Source/gd32vw55x_qspi.c ****         tx_cnt--;
 718              		.loc 1 328 15
 719 0064 8327C4FE 		lw	a5,-20(s0)
 720 0068 FD17     		addi	a5,a5,-1
 721 006a 2326F4FE 		sw	a5,-20(s0)
 722              	.L18:
 323:../Firmware/GD32VW55x_standard_peripheral/Source/gd32vw55x_qspi.c ****         while((QSPI_STAT & QSPI_FLAG_FT) == 0U) {
 723              		.loc 1 323 10
 724 006e 8327C4FE 		lw	a5,-20(s0)
 725 0072 F9F3     		bne	a5,zero,.L20
 329:../Firmware/GD32VW55x_standard_peripheral/Source/gd32vw55x_qspi.c ****     }
 330:../Firmware/GD32VW55x_standard_peripheral/Source/gd32vw55x_qspi.c **** }
 726              		.loc 1 330 1
 727 0074 0100     		nop
 728 0076 0100     		nop
 729 0078 3254     		lw	s0,44(sp)
 730              		.cfi_restore 8
 731              		.cfi_def_cfa 2, 48
 732 007a 4561     		addi	sp,sp,48
 733              		.cfi_def_cfa_offset 0
 734 007c 8280     		jr	ra
 735              		.cfi_endproc
 736              	.LFE359:
 738              		.section	.text.qspi_data_receive,"ax",@progbits
 739              		.align	1
 740              		.globl	qspi_data_receive
 742              	qspi_data_receive:
 743              	.LFB360:
 331:../Firmware/GD32VW55x_standard_peripheral/Source/gd32vw55x_qspi.c **** 
 332:../Firmware/GD32VW55x_standard_peripheral/Source/gd32vw55x_qspi.c **** /*!
 333:../Firmware/GD32VW55x_standard_peripheral/Source/gd32vw55x_qspi.c ****     \brief      QSPI receive data function
 334:../Firmware/GD32VW55x_standard_peripheral/Source/gd32vw55x_qspi.c ****     \param[in]  none
 335:../Firmware/GD32VW55x_standard_peripheral/Source/gd32vw55x_qspi.c ****     \param[out] rdata: pointer to the data to be received
 336:../Firmware/GD32VW55x_standard_peripheral/Source/gd32vw55x_qspi.c ****     \retval     none
 337:../Firmware/GD32VW55x_standard_peripheral/Source/gd32vw55x_qspi.c **** */
 338:../Firmware/GD32VW55x_standard_peripheral/Source/gd32vw55x_qspi.c **** void qspi_data_receive(uint8_t *rdata)
 339:../Firmware/GD32VW55x_standard_peripheral/Source/gd32vw55x_qspi.c **** {
 744              		.loc 1 339 1
 745              		.cfi_startproc
 746 0000 7971     		addi	sp,sp,-48
 747              		.cfi_def_cfa_offset 48
 748 0002 22D6     		sw	s0,44(sp)
 749              		.cfi_offset 8, -4
 750 0004 0018     		addi	s0,sp,48
 751              		.cfi_def_cfa 8, 0
 752 0006 232EA4FC 		sw	a0,-36(s0)
 340:../Firmware/GD32VW55x_standard_peripheral/Source/gd32vw55x_qspi.c ****     uint32_t rx_cnt, addr;
 341:../Firmware/GD32VW55x_standard_peripheral/Source/gd32vw55x_qspi.c **** 
 342:../Firmware/GD32VW55x_standard_peripheral/Source/gd32vw55x_qspi.c ****     rx_cnt = QSPI_DTLEN + 1U;
 753              		.loc 1 342 14
 754 000a B7670240 		li	a5,1073897472
 755 000e 93870781 		addi	a5,a5,-2032
 756 0012 9C43     		lw	a5,0(a5)
 757              		.loc 1 342 12
 758 0014 8507     		addi	a5,a5,1
 759 0016 2326F4FE 		sw	a5,-20(s0)
 343:../Firmware/GD32VW55x_standard_peripheral/Source/gd32vw55x_qspi.c ****     addr = QSPI_ADDR;
 760              		.loc 1 343 12
 761 001a B7670240 		li	a5,1073897472
 762 001e 93878781 		addi	a5,a5,-2024
 763              		.loc 1 343 10
 764 0022 9C43     		lw	a5,0(a5)
 765 0024 2324F4FE 		sw	a5,-24(s0)
 344:../Firmware/GD32VW55x_standard_peripheral/Source/gd32vw55x_qspi.c **** 
 345:../Firmware/GD32VW55x_standard_peripheral/Source/gd32vw55x_qspi.c ****     QSPI_TCFG = (QSPI_TCFG & ~QSPI_MEMORY_MAPPED) | QSPI_NORMAL_READ;
 766              		.loc 1 345 18
 767 0028 B7670240 		li	a5,1073897472
 768 002c 93874781 		addi	a5,a5,-2028
 769 0030 9843     		lw	a4,0(a5)
 770              		.loc 1 345 28
 771 0032 B70700F4 		li	a5,-201326592
 772 0036 FD17     		addi	a5,a5,-1
 773 0038 B376F700 		and	a3,a4,a5
 774              		.loc 1 345 5
 775 003c B7670240 		li	a5,1073897472
 776 0040 93874781 		addi	a5,a5,-2028
 777              		.loc 1 345 51
 778 0044 37070004 		li	a4,67108864
 779 0048 558F     		or	a4,a3,a4
 780              		.loc 1 345 15
 781 004a 98C3     		sw	a4,0(a5)
 346:../Firmware/GD32VW55x_standard_peripheral/Source/gd32vw55x_qspi.c ****     /* start the transfer by re-writing the address in QSPI_ADDR register */
 347:../Firmware/GD32VW55x_standard_peripheral/Source/gd32vw55x_qspi.c ****     QSPI_ADDR = addr;
 782              		.loc 1 347 5
 783 004c B7670240 		li	a5,1073897472
 784 0050 93878781 		addi	a5,a5,-2024
 785              		.loc 1 347 15
 786 0054 032784FE 		lw	a4,-24(s0)
 787 0058 98C3     		sw	a4,0(a5)
 348:../Firmware/GD32VW55x_standard_peripheral/Source/gd32vw55x_qspi.c **** 
 349:../Firmware/GD32VW55x_standard_peripheral/Source/gd32vw55x_qspi.c ****     while(rx_cnt > 0U) {
 788              		.loc 1 349 10
 789 005a 25A8     		j	.L22
 790              	.L24:
 350:../Firmware/GD32VW55x_standard_peripheral/Source/gd32vw55x_qspi.c ****         while((QSPI_STAT & (QSPI_FLAG_FT | QSPI_FLAG_TC)) == 0U) {
 791              		.loc 1 350 14
 792 005c 0100     		nop
 793              	.L23:
 794              		.loc 1 350 16 discriminator 1
 795 005e B7670240 		li	a5,1073897472
 796 0062 93878780 		addi	a5,a5,-2040
 797 0066 9C43     		lw	a5,0(a5)
 798              		.loc 1 350 26 discriminator 1
 799 0068 998B     		andi	a5,a5,6
 800              		.loc 1 350 14 discriminator 1
 801 006a F5DB     		beq	a5,zero,.L23
 351:../Firmware/GD32VW55x_standard_peripheral/Source/gd32vw55x_qspi.c ****         }
 352:../Firmware/GD32VW55x_standard_peripheral/Source/gd32vw55x_qspi.c ****         *rdata++ = *(uint8_t *)(QSPI + 0x00000020U);
 802              		.loc 1 352 20
 803 006c B7670240 		li	a5,1073897472
 804 0070 13870782 		addi	a4,a5,-2016
 805              		.loc 1 352 15
 806 0074 8327C4FD 		lw	a5,-36(s0)
 807 0078 93861700 		addi	a3,a5,1
 808 007c 232ED4FC 		sw	a3,-36(s0)
 809              		.loc 1 352 20
 810 0080 03470700 		lbu	a4,0(a4)
 811              		.loc 1 352 18
 812 0084 2380E700 		sb	a4,0(a5)
 353:../Firmware/GD32VW55x_standard_peripheral/Source/gd32vw55x_qspi.c ****         rx_cnt--;
 813              		.loc 1 353 15
 814 0088 8327C4FE 		lw	a5,-20(s0)
 815 008c FD17     		addi	a5,a5,-1
 816 008e 2326F4FE 		sw	a5,-20(s0)
 817              	.L22:
 349:../Firmware/GD32VW55x_standard_peripheral/Source/gd32vw55x_qspi.c ****         while((QSPI_STAT & (QSPI_FLAG_FT | QSPI_FLAG_TC)) == 0U) {
 818              		.loc 1 349 10
 819 0092 8327C4FE 		lw	a5,-20(s0)
 820 0096 F9F3     		bne	a5,zero,.L24
 354:../Firmware/GD32VW55x_standard_peripheral/Source/gd32vw55x_qspi.c ****     }
 355:../Firmware/GD32VW55x_standard_peripheral/Source/gd32vw55x_qspi.c **** }
 821              		.loc 1 355 1
 822 0098 0100     		nop
 823 009a 0100     		nop
 824 009c 3254     		lw	s0,44(sp)
 825              		.cfi_restore 8
 826              		.cfi_def_cfa 2, 48
 827 009e 4561     		addi	sp,sp,48
 828              		.cfi_def_cfa_offset 0
 829 00a0 8280     		jr	ra
 830              		.cfi_endproc
 831              	.LFE360:
 833              		.section	.text.qspi_transmission_abort,"ax",@progbits
 834              		.align	1
 835              		.globl	qspi_transmission_abort
 837              	qspi_transmission_abort:
 838              	.LFB361:
 356:../Firmware/GD32VW55x_standard_peripheral/Source/gd32vw55x_qspi.c **** 
 357:../Firmware/GD32VW55x_standard_peripheral/Source/gd32vw55x_qspi.c **** /*!
 358:../Firmware/GD32VW55x_standard_peripheral/Source/gd32vw55x_qspi.c ****     \brief      abort the current transmission
 359:../Firmware/GD32VW55x_standard_peripheral/Source/gd32vw55x_qspi.c ****     \param[in]  none
 360:../Firmware/GD32VW55x_standard_peripheral/Source/gd32vw55x_qspi.c ****     \param[out] none
 361:../Firmware/GD32VW55x_standard_peripheral/Source/gd32vw55x_qspi.c ****     \retval     none
 362:../Firmware/GD32VW55x_standard_peripheral/Source/gd32vw55x_qspi.c **** */
 363:../Firmware/GD32VW55x_standard_peripheral/Source/gd32vw55x_qspi.c **** void qspi_transmission_abort(void)
 364:../Firmware/GD32VW55x_standard_peripheral/Source/gd32vw55x_qspi.c **** {
 839              		.loc 1 364 1
 840              		.cfi_startproc
 841 0000 4111     		addi	sp,sp,-16
 842              		.cfi_def_cfa_offset 16
 843 0002 22C6     		sw	s0,12(sp)
 844              		.cfi_offset 8, -4
 845 0004 0008     		addi	s0,sp,16
 846              		.cfi_def_cfa 8, 0
 365:../Firmware/GD32VW55x_standard_peripheral/Source/gd32vw55x_qspi.c ****     QSPI_CTL |= QSPI_CTL_ABORT;
 847              		.loc 1 365 14
 848 0006 B7670240 		li	a5,1073897472
 849 000a 93870780 		addi	a5,a5,-2048
 850 000e 9843     		lw	a4,0(a5)
 851 0010 B7670240 		li	a5,1073897472
 852 0014 93870780 		addi	a5,a5,-2048
 853 0018 13672700 		ori	a4,a4,2
 854 001c 98C3     		sw	a4,0(a5)
 366:../Firmware/GD32VW55x_standard_peripheral/Source/gd32vw55x_qspi.c **** }
 855              		.loc 1 366 1
 856 001e 0100     		nop
 857 0020 3244     		lw	s0,12(sp)
 858              		.cfi_restore 8
 859              		.cfi_def_cfa 2, 16
 860 0022 4101     		addi	sp,sp,16
 861              		.cfi_def_cfa_offset 0
 862 0024 8280     		jr	ra
 863              		.cfi_endproc
 864              	.LFE361:
 866              		.section	.text.qspi_flag_get,"ax",@progbits
 867              		.align	1
 868              		.globl	qspi_flag_get
 870              	qspi_flag_get:
 871              	.LFB362:
 367:../Firmware/GD32VW55x_standard_peripheral/Source/gd32vw55x_qspi.c **** 
 368:../Firmware/GD32VW55x_standard_peripheral/Source/gd32vw55x_qspi.c **** /*!
 369:../Firmware/GD32VW55x_standard_peripheral/Source/gd32vw55x_qspi.c ****     \brief      get QSPI flag status
 370:../Firmware/GD32VW55x_standard_peripheral/Source/gd32vw55x_qspi.c ****     \param[in]  flag: QSPI flag
 371:../Firmware/GD32VW55x_standard_peripheral/Source/gd32vw55x_qspi.c ****                 only one parameter can be selected which are shown as below:
 372:../Firmware/GD32VW55x_standard_peripheral/Source/gd32vw55x_qspi.c ****       \arg        QSPI_FLAG_BUSY: busy flag
 373:../Firmware/GD32VW55x_standard_peripheral/Source/gd32vw55x_qspi.c ****       \arg        QSPI_FLAG_TERR: transfer error flag
 374:../Firmware/GD32VW55x_standard_peripheral/Source/gd32vw55x_qspi.c ****       \arg        QSPI_FLAG_TC: transfer complete flag
 375:../Firmware/GD32VW55x_standard_peripheral/Source/gd32vw55x_qspi.c ****       \arg        QSPI_FLAG_FT: FIFO threshold flag
 376:../Firmware/GD32VW55x_standard_peripheral/Source/gd32vw55x_qspi.c ****       \arg        QSPI_FLAG_RPMF: read polling match flag
 377:../Firmware/GD32VW55x_standard_peripheral/Source/gd32vw55x_qspi.c ****       \arg        QSPI_FLAG_TMOUT: timeout flag
 378:../Firmware/GD32VW55x_standard_peripheral/Source/gd32vw55x_qspi.c ****     \param[out] none
 379:../Firmware/GD32VW55x_standard_peripheral/Source/gd32vw55x_qspi.c ****     \retval     FlagStatus: SET or RESET
 380:../Firmware/GD32VW55x_standard_peripheral/Source/gd32vw55x_qspi.c **** */
 381:../Firmware/GD32VW55x_standard_peripheral/Source/gd32vw55x_qspi.c **** FlagStatus qspi_flag_get(uint32_t flag)
 382:../Firmware/GD32VW55x_standard_peripheral/Source/gd32vw55x_qspi.c **** {
 872              		.loc 1 382 1
 873              		.cfi_startproc
 874 0000 0111     		addi	sp,sp,-32
 875              		.cfi_def_cfa_offset 32
 876 0002 22CE     		sw	s0,28(sp)
 877              		.cfi_offset 8, -4
 878 0004 0010     		addi	s0,sp,32
 879              		.cfi_def_cfa 8, 0
 880 0006 2326A4FE 		sw	a0,-20(s0)
 383:../Firmware/GD32VW55x_standard_peripheral/Source/gd32vw55x_qspi.c ****     if(RESET != (QSPI_STAT & flag)) {
 881              		.loc 1 383 18
 882 000a B7670240 		li	a5,1073897472
 883 000e 93878780 		addi	a5,a5,-2040
 884 0012 9843     		lw	a4,0(a5)
 885              		.loc 1 383 28
 886 0014 8327C4FE 		lw	a5,-20(s0)
 887 0018 F98F     		and	a5,a4,a5
 888              		.loc 1 383 7
 889 001a 99C3     		beq	a5,zero,.L27
 384:../Firmware/GD32VW55x_standard_peripheral/Source/gd32vw55x_qspi.c ****         return SET;
 890              		.loc 1 384 16
 891 001c 8547     		li	a5,1
 892 001e 11A0     		j	.L28
 893              	.L27:
 385:../Firmware/GD32VW55x_standard_peripheral/Source/gd32vw55x_qspi.c ****     } else {
 386:../Firmware/GD32VW55x_standard_peripheral/Source/gd32vw55x_qspi.c ****         return RESET;
 894              		.loc 1 386 16
 895 0020 8147     		li	a5,0
 896              	.L28:
 387:../Firmware/GD32VW55x_standard_peripheral/Source/gd32vw55x_qspi.c ****     }
 388:../Firmware/GD32VW55x_standard_peripheral/Source/gd32vw55x_qspi.c **** }
 897              		.loc 1 388 1
 898 0022 3E85     		mv	a0,a5
 899 0024 7244     		lw	s0,28(sp)
 900              		.cfi_restore 8
 901              		.cfi_def_cfa 2, 32
 902 0026 0561     		addi	sp,sp,32
 903              		.cfi_def_cfa_offset 0
 904 0028 8280     		jr	ra
 905              		.cfi_endproc
 906              	.LFE362:
 908              		.section	.text.qspi_flag_clear,"ax",@progbits
 909              		.align	1
 910              		.globl	qspi_flag_clear
 912              	qspi_flag_clear:
 913              	.LFB363:
 389:../Firmware/GD32VW55x_standard_peripheral/Source/gd32vw55x_qspi.c **** 
 390:../Firmware/GD32VW55x_standard_peripheral/Source/gd32vw55x_qspi.c **** /*!
 391:../Firmware/GD32VW55x_standard_peripheral/Source/gd32vw55x_qspi.c ****     \brief      clear QSPI flag status
 392:../Firmware/GD32VW55x_standard_peripheral/Source/gd32vw55x_qspi.c ****     \param[in]  flag: QSPI flag
 393:../Firmware/GD32VW55x_standard_peripheral/Source/gd32vw55x_qspi.c ****                 one or more parameters can be selected which are shown as below:
 394:../Firmware/GD32VW55x_standard_peripheral/Source/gd32vw55x_qspi.c ****       \arg        QSPI_FLAG_TERR: transfer error flag
 395:../Firmware/GD32VW55x_standard_peripheral/Source/gd32vw55x_qspi.c ****       \arg        QSPI_FLAG_TC: transfer complete flag
 396:../Firmware/GD32VW55x_standard_peripheral/Source/gd32vw55x_qspi.c ****       \arg        QSPI_FLAG_RPMF: read polling match flag
 397:../Firmware/GD32VW55x_standard_peripheral/Source/gd32vw55x_qspi.c ****       \arg        QSPI_FLAG_TMOUT: timeout flag
 398:../Firmware/GD32VW55x_standard_peripheral/Source/gd32vw55x_qspi.c ****     \param[out] none
 399:../Firmware/GD32VW55x_standard_peripheral/Source/gd32vw55x_qspi.c ****     \retval     none
 400:../Firmware/GD32VW55x_standard_peripheral/Source/gd32vw55x_qspi.c **** */
 401:../Firmware/GD32VW55x_standard_peripheral/Source/gd32vw55x_qspi.c **** void qspi_flag_clear(uint32_t flag)
 402:../Firmware/GD32VW55x_standard_peripheral/Source/gd32vw55x_qspi.c **** {
 914              		.loc 1 402 1
 915              		.cfi_startproc
 916 0000 0111     		addi	sp,sp,-32
 917              		.cfi_def_cfa_offset 32
 918 0002 22CE     		sw	s0,28(sp)
 919              		.cfi_offset 8, -4
 920 0004 0010     		addi	s0,sp,32
 921              		.cfi_def_cfa 8, 0
 922 0006 2326A4FE 		sw	a0,-20(s0)
 403:../Firmware/GD32VW55x_standard_peripheral/Source/gd32vw55x_qspi.c ****     QSPI_STATC |= (uint32_t)flag;
 923              		.loc 1 403 16
 924 000a B7670240 		li	a5,1073897472
 925 000e 9387C780 		addi	a5,a5,-2036
 926 0012 9443     		lw	a3,0(a5)
 927 0014 B7670240 		li	a5,1073897472
 928 0018 9387C780 		addi	a5,a5,-2036
 929 001c 0327C4FE 		lw	a4,-20(s0)
 930 0020 558F     		or	a4,a3,a4
 931 0022 98C3     		sw	a4,0(a5)
 404:../Firmware/GD32VW55x_standard_peripheral/Source/gd32vw55x_qspi.c **** }
 932              		.loc 1 404 1
 933 0024 0100     		nop
 934 0026 7244     		lw	s0,28(sp)
 935              		.cfi_restore 8
 936              		.cfi_def_cfa 2, 32
 937 0028 0561     		addi	sp,sp,32
 938              		.cfi_def_cfa_offset 0
 939 002a 8280     		jr	ra
 940              		.cfi_endproc
 941              	.LFE363:
 943              		.section	.text.qspi_interrupt_enable,"ax",@progbits
 944              		.align	1
 945              		.globl	qspi_interrupt_enable
 947              	qspi_interrupt_enable:
 948              	.LFB364:
 405:../Firmware/GD32VW55x_standard_peripheral/Source/gd32vw55x_qspi.c **** 
 406:../Firmware/GD32VW55x_standard_peripheral/Source/gd32vw55x_qspi.c **** /*!
 407:../Firmware/GD32VW55x_standard_peripheral/Source/gd32vw55x_qspi.c ****     \brief      enable QSPI interrupt
 408:../Firmware/GD32VW55x_standard_peripheral/Source/gd32vw55x_qspi.c ****     \param[in]  interrupt: QSPI interrupt
 409:../Firmware/GD32VW55x_standard_peripheral/Source/gd32vw55x_qspi.c ****                 one or more parameters can be selected which is shown as below:
 410:../Firmware/GD32VW55x_standard_peripheral/Source/gd32vw55x_qspi.c ****       \arg        QSPI_INT_TC: transfer complete interrupt
 411:../Firmware/GD32VW55x_standard_peripheral/Source/gd32vw55x_qspi.c ****       \arg        QSPI_INT_FT: FIFO threshold interrupt
 412:../Firmware/GD32VW55x_standard_peripheral/Source/gd32vw55x_qspi.c ****       \arg        QSPI_INT_TERR: transfer error interrupt
 413:../Firmware/GD32VW55x_standard_peripheral/Source/gd32vw55x_qspi.c ****       \arg        QSPI_INT_RPMF: read polling match interrupt
 414:../Firmware/GD32VW55x_standard_peripheral/Source/gd32vw55x_qspi.c ****       \arg        QSPI_INT_TMOUT: timeout interrupt
 415:../Firmware/GD32VW55x_standard_peripheral/Source/gd32vw55x_qspi.c ****     \param[out] none
 416:../Firmware/GD32VW55x_standard_peripheral/Source/gd32vw55x_qspi.c ****     \retval     none
 417:../Firmware/GD32VW55x_standard_peripheral/Source/gd32vw55x_qspi.c **** */
 418:../Firmware/GD32VW55x_standard_peripheral/Source/gd32vw55x_qspi.c **** void qspi_interrupt_enable(uint32_t interrupt)
 419:../Firmware/GD32VW55x_standard_peripheral/Source/gd32vw55x_qspi.c **** {
 949              		.loc 1 419 1
 950              		.cfi_startproc
 951 0000 0111     		addi	sp,sp,-32
 952              		.cfi_def_cfa_offset 32
 953 0002 22CE     		sw	s0,28(sp)
 954              		.cfi_offset 8, -4
 955 0004 0010     		addi	s0,sp,32
 956              		.cfi_def_cfa 8, 0
 957 0006 2326A4FE 		sw	a0,-20(s0)
 420:../Firmware/GD32VW55x_standard_peripheral/Source/gd32vw55x_qspi.c ****     QSPI_CTL |= (uint32_t)interrupt;
 958              		.loc 1 420 14
 959 000a B7670240 		li	a5,1073897472
 960 000e 93870780 		addi	a5,a5,-2048
 961 0012 9443     		lw	a3,0(a5)
 962 0014 B7670240 		li	a5,1073897472
 963 0018 93870780 		addi	a5,a5,-2048
 964 001c 0327C4FE 		lw	a4,-20(s0)
 965 0020 558F     		or	a4,a3,a4
 966 0022 98C3     		sw	a4,0(a5)
 421:../Firmware/GD32VW55x_standard_peripheral/Source/gd32vw55x_qspi.c **** }
 967              		.loc 1 421 1
 968 0024 0100     		nop
 969 0026 7244     		lw	s0,28(sp)
 970              		.cfi_restore 8
 971              		.cfi_def_cfa 2, 32
 972 0028 0561     		addi	sp,sp,32
 973              		.cfi_def_cfa_offset 0
 974 002a 8280     		jr	ra
 975              		.cfi_endproc
 976              	.LFE364:
 978              		.section	.text.qspi_interrupt_disable,"ax",@progbits
 979              		.align	1
 980              		.globl	qspi_interrupt_disable
 982              	qspi_interrupt_disable:
 983              	.LFB365:
 422:../Firmware/GD32VW55x_standard_peripheral/Source/gd32vw55x_qspi.c **** 
 423:../Firmware/GD32VW55x_standard_peripheral/Source/gd32vw55x_qspi.c **** /*!
 424:../Firmware/GD32VW55x_standard_peripheral/Source/gd32vw55x_qspi.c ****     \brief      disable QSPI interrupt
 425:../Firmware/GD32VW55x_standard_peripheral/Source/gd32vw55x_qspi.c ****     \param[in]  interrupt: QSPI interrupt
 426:../Firmware/GD32VW55x_standard_peripheral/Source/gd32vw55x_qspi.c ****                 one or more parameters can be selected which is shown as below:
 427:../Firmware/GD32VW55x_standard_peripheral/Source/gd32vw55x_qspi.c ****       \arg        QSPI_INT_TC: transfer complete interrupt
 428:../Firmware/GD32VW55x_standard_peripheral/Source/gd32vw55x_qspi.c ****       \arg        QSPI_INT_FT: FIFO threshold interrupt
 429:../Firmware/GD32VW55x_standard_peripheral/Source/gd32vw55x_qspi.c ****       \arg        QSPI_INT_TERR: transfer error interrupt
 430:../Firmware/GD32VW55x_standard_peripheral/Source/gd32vw55x_qspi.c ****       \arg        QSPI_INT_RPMF: read polling match interrupt
 431:../Firmware/GD32VW55x_standard_peripheral/Source/gd32vw55x_qspi.c ****       \arg        QSPI_INT_TMOUT: timeout interrupt
 432:../Firmware/GD32VW55x_standard_peripheral/Source/gd32vw55x_qspi.c ****     \param[out] none
 433:../Firmware/GD32VW55x_standard_peripheral/Source/gd32vw55x_qspi.c ****     \retval     none
 434:../Firmware/GD32VW55x_standard_peripheral/Source/gd32vw55x_qspi.c **** */
 435:../Firmware/GD32VW55x_standard_peripheral/Source/gd32vw55x_qspi.c **** void qspi_interrupt_disable(uint32_t interrupt)
 436:../Firmware/GD32VW55x_standard_peripheral/Source/gd32vw55x_qspi.c **** {
 984              		.loc 1 436 1
 985              		.cfi_startproc
 986 0000 0111     		addi	sp,sp,-32
 987              		.cfi_def_cfa_offset 32
 988 0002 22CE     		sw	s0,28(sp)
 989              		.cfi_offset 8, -4
 990 0004 0010     		addi	s0,sp,32
 991              		.cfi_def_cfa 8, 0
 992 0006 2326A4FE 		sw	a0,-20(s0)
 437:../Firmware/GD32VW55x_standard_peripheral/Source/gd32vw55x_qspi.c ****     QSPI_CTL &= ~(uint32_t)interrupt;
 993              		.loc 1 437 14
 994 000a B7670240 		li	a5,1073897472
 995 000e 93870780 		addi	a5,a5,-2048
 996 0012 9443     		lw	a3,0(a5)
 997              		.loc 1 437 17
 998 0014 8327C4FE 		lw	a5,-20(s0)
 999 0018 13C7F7FF 		not	a4,a5
 1000              		.loc 1 437 14
 1001 001c B7670240 		li	a5,1073897472
 1002 0020 93870780 		addi	a5,a5,-2048
 1003 0024 758F     		and	a4,a3,a4
 1004 0026 98C3     		sw	a4,0(a5)
 438:../Firmware/GD32VW55x_standard_peripheral/Source/gd32vw55x_qspi.c **** }
 1005              		.loc 1 438 1
 1006 0028 0100     		nop
 1007 002a 7244     		lw	s0,28(sp)
 1008              		.cfi_restore 8
 1009              		.cfi_def_cfa 2, 32
 1010 002c 0561     		addi	sp,sp,32
 1011              		.cfi_def_cfa_offset 0
 1012 002e 8280     		jr	ra
 1013              		.cfi_endproc
 1014              	.LFE365:
 1016              		.section	.text.qspi_interrupt_flag_get,"ax",@progbits
 1017              		.align	1
 1018              		.globl	qspi_interrupt_flag_get
 1020              	qspi_interrupt_flag_get:
 1021              	.LFB366:
 439:../Firmware/GD32VW55x_standard_peripheral/Source/gd32vw55x_qspi.c **** 
 440:../Firmware/GD32VW55x_standard_peripheral/Source/gd32vw55x_qspi.c **** /*!
 441:../Firmware/GD32VW55x_standard_peripheral/Source/gd32vw55x_qspi.c ****     \brief      get QSPI interrupt flag status
 442:../Firmware/GD32VW55x_standard_peripheral/Source/gd32vw55x_qspi.c ****     \param[in]  int_flag: QSPI interrupt flag
 443:../Firmware/GD32VW55x_standard_peripheral/Source/gd32vw55x_qspi.c ****                 only one parameter can be selected which are shown as below:
 444:../Firmware/GD32VW55x_standard_peripheral/Source/gd32vw55x_qspi.c ****       \arg        QSPI_INT_FLAG_TERR: transfer error interrupt flag
 445:../Firmware/GD32VW55x_standard_peripheral/Source/gd32vw55x_qspi.c ****       \arg        QSPI_INT_FLAG_TC: transfer complete interrupt flag
 446:../Firmware/GD32VW55x_standard_peripheral/Source/gd32vw55x_qspi.c ****       \arg        QSPI_INT_FLAG_FT: FIFO threshold interrupt flag
 447:../Firmware/GD32VW55x_standard_peripheral/Source/gd32vw55x_qspi.c ****       \arg        QSPI_INT_FLAG_RPMF: read polling match interrupt flag
 448:../Firmware/GD32VW55x_standard_peripheral/Source/gd32vw55x_qspi.c ****       \arg        QSPI_INT_FLAG_TMOUT: timeout interrupt flag
 449:../Firmware/GD32VW55x_standard_peripheral/Source/gd32vw55x_qspi.c ****     \param[out] none
 450:../Firmware/GD32VW55x_standard_peripheral/Source/gd32vw55x_qspi.c ****     \retval     FlagStatus: SET or RESET
 451:../Firmware/GD32VW55x_standard_peripheral/Source/gd32vw55x_qspi.c **** */
 452:../Firmware/GD32VW55x_standard_peripheral/Source/gd32vw55x_qspi.c **** FlagStatus qspi_interrupt_flag_get(uint32_t int_flag)
 453:../Firmware/GD32VW55x_standard_peripheral/Source/gd32vw55x_qspi.c **** {
 1022              		.loc 1 453 1
 1023              		.cfi_startproc
 1024 0000 7971     		addi	sp,sp,-48
 1025              		.cfi_def_cfa_offset 48
 1026 0002 22D6     		sw	s0,44(sp)
 1027              		.cfi_offset 8, -4
 1028 0004 0018     		addi	s0,sp,48
 1029              		.cfi_def_cfa 8, 0
 1030 0006 232EA4FC 		sw	a0,-36(s0)
 454:../Firmware/GD32VW55x_standard_peripheral/Source/gd32vw55x_qspi.c ****     uint32_t reg1 = QSPI_CTL;
 1031              		.loc 1 454 21
 1032 000a B7670240 		li	a5,1073897472
 1033 000e 93870780 		addi	a5,a5,-2048
 1034              		.loc 1 454 14
 1035 0012 9C43     		lw	a5,0(a5)
 1036 0014 2326F4FE 		sw	a5,-20(s0)
 455:../Firmware/GD32VW55x_standard_peripheral/Source/gd32vw55x_qspi.c ****     uint32_t reg2 = QSPI_STAT;
 1037              		.loc 1 455 21
 1038 0018 B7670240 		li	a5,1073897472
 1039 001c 93878780 		addi	a5,a5,-2040
 1040              		.loc 1 455 14
 1041 0020 9C43     		lw	a5,0(a5)
 1042 0022 2324F4FE 		sw	a5,-24(s0)
 1043 0026 0327C4FD 		lw	a4,-36(s0)
 1044 002a C147     		li	a5,16
 1045 002c 63E2E70A 		bgtu	a4,a5,.L43
 1046 0030 8327C4FD 		lw	a5,-36(s0)
 1047 0034 13972700 		slli	a4,a5,2
 1048 0038 97070000 		lla	a5,.L35
 1048      93870700 
 1049 0040 BA97     		add	a5,a4,a5
 1050 0042 9843     		lw	a4,0(a5)
 1051 0044 97070000 		lla	a5,.L35
 1051      93870700 
 1052 004c BA97     		add	a5,a4,a5
 1053 004e 8287     		jr	a5
 1054              		.section	.rodata.qspi_interrupt_flag_get,"a",@progbits
 1055              		.align	2
 1056              		.align	2
 1057              	.L35:
 1058 0000 00000000 		.word	.L43-.L35
 1059 0004 00000000 		.word	.L39-.L35
 1060 0008 00000000 		.word	.L38-.L35
 1061 000c 00000000 		.word	.L43-.L35
 1062 0010 00000000 		.word	.L37-.L35
 1063 0014 00000000 		.word	.L43-.L35
 1064 0018 00000000 		.word	.L43-.L35
 1065 001c 00000000 		.word	.L43-.L35
 1066 0020 00000000 		.word	.L36-.L35
 1067 0024 00000000 		.word	.L43-.L35
 1068 0028 00000000 		.word	.L43-.L35
 1069 002c 00000000 		.word	.L43-.L35
 1070 0030 00000000 		.word	.L43-.L35
 1071 0034 00000000 		.word	.L43-.L35
 1072 0038 00000000 		.word	.L43-.L35
 1073 003c 00000000 		.word	.L43-.L35
 1074 0040 00000000 		.word	.L34-.L35
 1075              		.section	.text.qspi_interrupt_flag_get
 1076              	.L39:
 456:../Firmware/GD32VW55x_standard_peripheral/Source/gd32vw55x_qspi.c **** 
 457:../Firmware/GD32VW55x_standard_peripheral/Source/gd32vw55x_qspi.c ****     switch(int_flag) {
 458:../Firmware/GD32VW55x_standard_peripheral/Source/gd32vw55x_qspi.c ****     /* QSPI transfer error interrupt flag */
 459:../Firmware/GD32VW55x_standard_peripheral/Source/gd32vw55x_qspi.c ****     case QSPI_INT_FLAG_TERR:
 460:../Firmware/GD32VW55x_standard_peripheral/Source/gd32vw55x_qspi.c ****         reg1 = reg1 & QSPI_STAT_TERR;
 1077              		.loc 1 460 14
 1078 0050 8327C4FE 		lw	a5,-20(s0)
 1079 0054 858B     		andi	a5,a5,1
 1080 0056 2326F4FE 		sw	a5,-20(s0)
 461:../Firmware/GD32VW55x_standard_peripheral/Source/gd32vw55x_qspi.c ****         reg2 = reg2 & QSPI_CTL_TERRIE;
 1081              		.loc 1 461 14
 1082 005a 032784FE 		lw	a4,-24(s0)
 1083 005e C167     		li	a5,65536
 1084 0060 F98F     		and	a5,a4,a5
 1085 0062 2324F4FE 		sw	a5,-24(s0)
 462:../Firmware/GD32VW55x_standard_peripheral/Source/gd32vw55x_qspi.c ****         break;
 1086              		.loc 1 462 9
 1087 0066 B5A0     		j	.L40
 1088              	.L38:
 463:../Firmware/GD32VW55x_standard_peripheral/Source/gd32vw55x_qspi.c ****     /* QSPI transfer complete interrupt flag */
 464:../Firmware/GD32VW55x_standard_peripheral/Source/gd32vw55x_qspi.c ****     case QSPI_INT_FLAG_TC:
 465:../Firmware/GD32VW55x_standard_peripheral/Source/gd32vw55x_qspi.c ****         reg1 = reg1 & QSPI_STAT_TC;
 1089              		.loc 1 465 14
 1090 0068 8327C4FE 		lw	a5,-20(s0)
 1091 006c 898B     		andi	a5,a5,2
 1092 006e 2326F4FE 		sw	a5,-20(s0)
 466:../Firmware/GD32VW55x_standard_peripheral/Source/gd32vw55x_qspi.c ****         reg2 = reg2 & QSPI_CTL_TCIE;
 1093              		.loc 1 466 14
 1094 0072 032784FE 		lw	a4,-24(s0)
 1095 0076 B7070200 		li	a5,131072
 1096 007a F98F     		and	a5,a4,a5
 1097 007c 2324F4FE 		sw	a5,-24(s0)
 467:../Firmware/GD32VW55x_standard_peripheral/Source/gd32vw55x_qspi.c ****         break;
 1098              		.loc 1 467 9
 1099 0080 89A8     		j	.L40
 1100              	.L37:
 468:../Firmware/GD32VW55x_standard_peripheral/Source/gd32vw55x_qspi.c ****     /* QSPI FIFO threshold interrupt flag */
 469:../Firmware/GD32VW55x_standard_peripheral/Source/gd32vw55x_qspi.c ****     case QSPI_INT_FLAG_FT:
 470:../Firmware/GD32VW55x_standard_peripheral/Source/gd32vw55x_qspi.c ****         reg1 = reg1 & QSPI_STAT_FT;
 1101              		.loc 1 470 14
 1102 0082 8327C4FE 		lw	a5,-20(s0)
 1103 0086 918B     		andi	a5,a5,4
 1104 0088 2326F4FE 		sw	a5,-20(s0)
 471:../Firmware/GD32VW55x_standard_peripheral/Source/gd32vw55x_qspi.c ****         reg2 = reg2 & QSPI_CTL_FTIE;
 1105              		.loc 1 471 14
 1106 008c 032784FE 		lw	a4,-24(s0)
 1107 0090 B7070400 		li	a5,262144
 1108 0094 F98F     		and	a5,a4,a5
 1109 0096 2324F4FE 		sw	a5,-24(s0)
 472:../Firmware/GD32VW55x_standard_peripheral/Source/gd32vw55x_qspi.c ****         break;
 1110              		.loc 1 472 9
 1111 009a 25A8     		j	.L40
 1112              	.L36:
 473:../Firmware/GD32VW55x_standard_peripheral/Source/gd32vw55x_qspi.c ****     /* QSPI status match interrupt flag */
 474:../Firmware/GD32VW55x_standard_peripheral/Source/gd32vw55x_qspi.c ****     case QSPI_INT_FLAG_RPMF:
 475:../Firmware/GD32VW55x_standard_peripheral/Source/gd32vw55x_qspi.c ****         reg1 = reg1 & QSPI_STAT_RPMF;
 1113              		.loc 1 475 14
 1114 009c 8327C4FE 		lw	a5,-20(s0)
 1115 00a0 A18B     		andi	a5,a5,8
 1116 00a2 2326F4FE 		sw	a5,-20(s0)
 476:../Firmware/GD32VW55x_standard_peripheral/Source/gd32vw55x_qspi.c ****         reg2 = reg2 & QSPI_CTL_RPMFIE;
 1117              		.loc 1 476 14
 1118 00a6 032784FE 		lw	a4,-24(s0)
 1119 00aa B7070800 		li	a5,524288
 1120 00ae F98F     		and	a5,a4,a5
 1121 00b0 2324F4FE 		sw	a5,-24(s0)
 477:../Firmware/GD32VW55x_standard_peripheral/Source/gd32vw55x_qspi.c ****         break;
 1122              		.loc 1 477 9
 1123 00b4 39A8     		j	.L40
 1124              	.L34:
 478:../Firmware/GD32VW55x_standard_peripheral/Source/gd32vw55x_qspi.c ****     /* QSPI timeout interrupt flag */
 479:../Firmware/GD32VW55x_standard_peripheral/Source/gd32vw55x_qspi.c ****     case QSPI_INT_FLAG_TMOUT:
 480:../Firmware/GD32VW55x_standard_peripheral/Source/gd32vw55x_qspi.c ****         reg1 = reg1 & QSPI_STAT_TMOUT;
 1125              		.loc 1 480 14
 1126 00b6 8327C4FE 		lw	a5,-20(s0)
 1127 00ba C18B     		andi	a5,a5,16
 1128 00bc 2326F4FE 		sw	a5,-20(s0)
 481:../Firmware/GD32VW55x_standard_peripheral/Source/gd32vw55x_qspi.c ****         reg2 = reg2 & QSPI_CTL_TMOUTIE;
 1129              		.loc 1 481 14
 1130 00c0 032784FE 		lw	a4,-24(s0)
 1131 00c4 B7071000 		li	a5,1048576
 1132 00c8 F98F     		and	a5,a4,a5
 1133 00ca 2324F4FE 		sw	a5,-24(s0)
 482:../Firmware/GD32VW55x_standard_peripheral/Source/gd32vw55x_qspi.c ****         break;
 1134              		.loc 1 482 9
 1135 00ce 11A0     		j	.L40
 1136              	.L43:
 483:../Firmware/GD32VW55x_standard_peripheral/Source/gd32vw55x_qspi.c ****     default :
 484:../Firmware/GD32VW55x_standard_peripheral/Source/gd32vw55x_qspi.c ****         break;
 1137              		.loc 1 484 9
 1138 00d0 0100     		nop
 1139              	.L40:
 485:../Firmware/GD32VW55x_standard_peripheral/Source/gd32vw55x_qspi.c ****     }
 486:../Firmware/GD32VW55x_standard_peripheral/Source/gd32vw55x_qspi.c ****     /* get QSPI interrupt flag status */
 487:../Firmware/GD32VW55x_standard_peripheral/Source/gd32vw55x_qspi.c ****     if(reg1 && reg2) {
 1140              		.loc 1 487 7
 1141 00d2 8327C4FE 		lw	a5,-20(s0)
 1142 00d6 91C7     		beq	a5,zero,.L41
 1143              		.loc 1 487 13 discriminator 1
 1144 00d8 832784FE 		lw	a5,-24(s0)
 1145 00dc 99C3     		beq	a5,zero,.L41
 488:../Firmware/GD32VW55x_standard_peripheral/Source/gd32vw55x_qspi.c ****         return SET;
 1146              		.loc 1 488 16
 1147 00de 8547     		li	a5,1
 1148 00e0 11A0     		j	.L42
 1149              	.L41:
 489:../Firmware/GD32VW55x_standard_peripheral/Source/gd32vw55x_qspi.c ****     } else {
 490:../Firmware/GD32VW55x_standard_peripheral/Source/gd32vw55x_qspi.c ****         return RESET;
 1150              		.loc 1 490 16
 1151 00e2 8147     		li	a5,0
 1152              	.L42:
 491:../Firmware/GD32VW55x_standard_peripheral/Source/gd32vw55x_qspi.c ****     }
 492:../Firmware/GD32VW55x_standard_peripheral/Source/gd32vw55x_qspi.c **** }
 1153              		.loc 1 492 1
 1154 00e4 3E85     		mv	a0,a5
 1155 00e6 3254     		lw	s0,44(sp)
 1156              		.cfi_restore 8
 1157              		.cfi_def_cfa 2, 48
 1158 00e8 4561     		addi	sp,sp,48
 1159              		.cfi_def_cfa_offset 0
 1160 00ea 8280     		jr	ra
 1161              		.cfi_endproc
 1162              	.LFE366:
 1164              		.section	.text.qspi_interrupt_flag_clear,"ax",@progbits
 1165              		.align	1
 1166              		.globl	qspi_interrupt_flag_clear
 1168              	qspi_interrupt_flag_clear:
 1169              	.LFB367:
 493:../Firmware/GD32VW55x_standard_peripheral/Source/gd32vw55x_qspi.c **** 
 494:../Firmware/GD32VW55x_standard_peripheral/Source/gd32vw55x_qspi.c **** /*!
 495:../Firmware/GD32VW55x_standard_peripheral/Source/gd32vw55x_qspi.c ****     \brief      clear QSPI interrupt flag status
 496:../Firmware/GD32VW55x_standard_peripheral/Source/gd32vw55x_qspi.c ****     \param[in]  int_flag: QSPI interrupt flag
 497:../Firmware/GD32VW55x_standard_peripheral/Source/gd32vw55x_qspi.c ****                 one or more parameters can be selected which are shown as below:
 498:../Firmware/GD32VW55x_standard_peripheral/Source/gd32vw55x_qspi.c ****       \arg        QSPI_INT_FLAG_TERR: transfer error interrupt flag
 499:../Firmware/GD32VW55x_standard_peripheral/Source/gd32vw55x_qspi.c ****       \arg        QSPI_INT_FLAG_TC: transfer complete interrupt flag
 500:../Firmware/GD32VW55x_standard_peripheral/Source/gd32vw55x_qspi.c ****       \arg        QSPI_INT_FLAG_RPMF: read polling match interrupt flag
 501:../Firmware/GD32VW55x_standard_peripheral/Source/gd32vw55x_qspi.c ****       \arg        QSPI_INT_FLAG_TMOUT: timeout interrupt flag
 502:../Firmware/GD32VW55x_standard_peripheral/Source/gd32vw55x_qspi.c ****     \param[out] none
 503:../Firmware/GD32VW55x_standard_peripheral/Source/gd32vw55x_qspi.c ****     \retval     none
 504:../Firmware/GD32VW55x_standard_peripheral/Source/gd32vw55x_qspi.c **** */
 505:../Firmware/GD32VW55x_standard_peripheral/Source/gd32vw55x_qspi.c **** void qspi_interrupt_flag_clear(uint32_t int_flag)
 506:../Firmware/GD32VW55x_standard_peripheral/Source/gd32vw55x_qspi.c **** {
 1170              		.loc 1 506 1
 1171              		.cfi_startproc
 1172 0000 0111     		addi	sp,sp,-32
 1173              		.cfi_def_cfa_offset 32
 1174 0002 22CE     		sw	s0,28(sp)
 1175              		.cfi_offset 8, -4
 1176 0004 0010     		addi	s0,sp,32
 1177              		.cfi_def_cfa 8, 0
 1178 0006 2326A4FE 		sw	a0,-20(s0)
 507:../Firmware/GD32VW55x_standard_peripheral/Source/gd32vw55x_qspi.c ****     QSPI_STATC |= (uint32_t)int_flag;
 1179              		.loc 1 507 16
 1180 000a B7670240 		li	a5,1073897472
 1181 000e 9387C780 		addi	a5,a5,-2036
 1182 0012 9443     		lw	a3,0(a5)
 1183 0014 B7670240 		li	a5,1073897472
 1184 0018 9387C780 		addi	a5,a5,-2036
 1185 001c 0327C4FE 		lw	a4,-20(s0)
 1186 0020 558F     		or	a4,a3,a4
 1187 0022 98C3     		sw	a4,0(a5)
 508:../Firmware/GD32VW55x_standard_peripheral/Source/gd32vw55x_qspi.c **** }
 1188              		.loc 1 508 1
 1189 0024 0100     		nop
 1190 0026 7244     		lw	s0,28(sp)
 1191              		.cfi_restore 8
 1192              		.cfi_def_cfa 2, 32
 1193 0028 0561     		addi	sp,sp,32
 1194              		.cfi_def_cfa_offset 0
 1195 002a 8280     		jr	ra
 1196              		.cfi_endproc
 1197              	.LFE367:
 1199              		.section	.text.qspi_config,"ax",@progbits
 1200              		.align	1
 1202              	qspi_config:
 1203              	.LFB368:
 509:../Firmware/GD32VW55x_standard_peripheral/Source/gd32vw55x_qspi.c **** 
 510:../Firmware/GD32VW55x_standard_peripheral/Source/gd32vw55x_qspi.c **** /*!
 511:../Firmware/GD32VW55x_standard_peripheral/Source/gd32vw55x_qspi.c ****     \brief      configure QSPI functional mode
 512:../Firmware/GD32VW55x_standard_peripheral/Source/gd32vw55x_qspi.c ****     \param[in]  cmd: QSPI command parameter structure
 513:../Firmware/GD32VW55x_standard_peripheral/Source/gd32vw55x_qspi.c ****                              and the member values are shown as below:
 514:../Firmware/GD32VW55x_standard_peripheral/Source/gd32vw55x_qspi.c ****                   instruction_mode: QSPI_INSTRUCTION_NONE, QSPI_INSTRUCTION_1_LINE,
 515:../Firmware/GD32VW55x_standard_peripheral/Source/gd32vw55x_qspi.c ****                                     QSPI_INSTRUCTION_2_LINES, QSPI_INSTRUCTION_4_LINES
 516:../Firmware/GD32VW55x_standard_peripheral/Source/gd32vw55x_qspi.c ****                   instruction: reference flash commands description
 517:../Firmware/GD32VW55x_standard_peripheral/Source/gd32vw55x_qspi.c ****                   addr_mode: QSPI_ADDR_NONE, QSPI_ADDR_1_LINE, QSPI_ADDR_2_LINES, QSPI_ADDR_4_LINES
 518:../Firmware/GD32VW55x_standard_peripheral/Source/gd32vw55x_qspi.c ****                   addr_size: QSPI_ADDR_8_BITS, QSPI_ADDR_16_BITS, QSPI_ADDR_24_BITS, QSPI_ADDR_32_B
 519:../Firmware/GD32VW55x_standard_peripheral/Source/gd32vw55x_qspi.c ****                   addr: 0-flash size
 520:../Firmware/GD32VW55x_standard_peripheral/Source/gd32vw55x_qspi.c ****                   altebytes_mode: QSPI_ALTE_BYTES_NONE, QSPI_ALTE_BYTES_1_LINE,
 521:../Firmware/GD32VW55x_standard_peripheral/Source/gd32vw55x_qspi.c ****                                   QSPI_ALTE_BYTES_2_LINES, QSPI_ALTE_BYTES_4_LINES
 522:../Firmware/GD32VW55x_standard_peripheral/Source/gd32vw55x_qspi.c ****                   altebytes_size: QSPI_ALTE_BYTES_8_BITS, QSPI_ALTE_BYTES_16_BITS,
 523:../Firmware/GD32VW55x_standard_peripheral/Source/gd32vw55x_qspi.c ****                                   QSPI_ALTE_BYTES_24_BITS, QSPI_ALTE_BYTES_32_BITS
 524:../Firmware/GD32VW55x_standard_peripheral/Source/gd32vw55x_qspi.c ****                   altebytes: 0-0xFFFFFFFF
 525:../Firmware/GD32VW55x_standard_peripheral/Source/gd32vw55x_qspi.c ****                   dummycycles: between 0 and 31
 526:../Firmware/GD32VW55x_standard_peripheral/Source/gd32vw55x_qspi.c ****                   data_mode: QSPI_DATA_NONE, QSPI_DATA_1_LINE, QSPI_DATA_2_LINES, QSPI_DATA_4_LINES
 527:../Firmware/GD32VW55x_standard_peripheral/Source/gd32vw55x_qspi.c ****                   data_length: 0-0xFFFFFFFF
 528:../Firmware/GD32VW55x_standard_peripheral/Source/gd32vw55x_qspi.c ****                   sioo_mode: QSPI_SIOO_INST_EVERY_CMD, QSPI_SIOO_INST_ONLY_FIRST_CMD
 529:../Firmware/GD32VW55x_standard_peripheral/Source/gd32vw55x_qspi.c ****     \param[in]  functionalmode: QSPI functional mode select
 530:../Firmware/GD32VW55x_standard_peripheral/Source/gd32vw55x_qspi.c ****                 only one parameter can be selected which is shown as below:
 531:../Firmware/GD32VW55x_standard_peripheral/Source/gd32vw55x_qspi.c ****       \arg        QSPI_NORMAL_WRITE
 532:../Firmware/GD32VW55x_standard_peripheral/Source/gd32vw55x_qspi.c ****       \arg        QSPI_NORMAL_READ
 533:../Firmware/GD32VW55x_standard_peripheral/Source/gd32vw55x_qspi.c ****       \arg        QSPI_READ_POLLING
 534:../Firmware/GD32VW55x_standard_peripheral/Source/gd32vw55x_qspi.c ****       \arg        QSPI_MEMORY_MAPPED
 535:../Firmware/GD32VW55x_standard_peripheral/Source/gd32vw55x_qspi.c ****     \param[out] none
 536:../Firmware/GD32VW55x_standard_peripheral/Source/gd32vw55x_qspi.c ****     \retval     none
 537:../Firmware/GD32VW55x_standard_peripheral/Source/gd32vw55x_qspi.c **** */
 538:../Firmware/GD32VW55x_standard_peripheral/Source/gd32vw55x_qspi.c **** static void qspi_config(qspi_command_struct *cmd, uint32_t functionalmode)
 539:../Firmware/GD32VW55x_standard_peripheral/Source/gd32vw55x_qspi.c **** {
 1204              		.loc 1 539 1
 1205              		.cfi_startproc
 1206 0000 0111     		addi	sp,sp,-32
 1207              		.cfi_def_cfa_offset 32
 1208 0002 22CE     		sw	s0,28(sp)
 1209              		.cfi_offset 8, -4
 1210 0004 0010     		addi	s0,sp,32
 1211              		.cfi_def_cfa 8, 0
 1212 0006 2326A4FE 		sw	a0,-20(s0)
 1213 000a 2324B4FE 		sw	a1,-24(s0)
 540:../Firmware/GD32VW55x_standard_peripheral/Source/gd32vw55x_qspi.c ****     if((cmd->data_mode != QSPI_DATA_NONE) && (functionalmode != QSPI_MEMORY_MAPPED)) {
 1214              		.loc 1 540 12
 1215 000e 8327C4FE 		lw	a5,-20(s0)
 1216 0012 DC53     		lw	a5,36(a5)
 1217              		.loc 1 540 7
 1218 0014 85C3     		beq	a5,zero,.L46
 1219              		.loc 1 540 43 discriminator 1
 1220 0016 032784FE 		lw	a4,-24(s0)
 1221 001a B707000C 		li	a5,201326592
 1222 001e 630BF700 		beq	a4,a5,.L46
 541:../Firmware/GD32VW55x_standard_peripheral/Source/gd32vw55x_qspi.c ****         /* configure QSPI_DTLEN register with the number of data to read or write */
 542:../Firmware/GD32VW55x_standard_peripheral/Source/gd32vw55x_qspi.c ****         QSPI_DTLEN = cmd->data_length - 1U;
 1223              		.loc 1 542 25
 1224 0022 8327C4FE 		lw	a5,-20(s0)
 1225 0026 9857     		lw	a4,40(a5)
 1226              		.loc 1 542 9
 1227 0028 B7670240 		li	a5,1073897472
 1228 002c 93870781 		addi	a5,a5,-2032
 1229              		.loc 1 542 39
 1230 0030 7D17     		addi	a4,a4,-1
 1231              		.loc 1 542 20
 1232 0032 98C3     		sw	a4,0(a5)
 1233              	.L46:
 543:../Firmware/GD32VW55x_standard_peripheral/Source/gd32vw55x_qspi.c ****     }
 544:../Firmware/GD32VW55x_standard_peripheral/Source/gd32vw55x_qspi.c **** 
 545:../Firmware/GD32VW55x_standard_peripheral/Source/gd32vw55x_qspi.c ****     if(cmd->instruction_mode != QSPI_INSTRUCTION_NONE) {
 1234              		.loc 1 545 11
 1235 0034 8327C4FE 		lw	a5,-20(s0)
 1236 0038 9C43     		lw	a5,0(a5)
 1237              		.loc 1 545 7
 1238 003a 638A071A 		beq	a5,zero,.L47
 546:../Firmware/GD32VW55x_standard_peripheral/Source/gd32vw55x_qspi.c ****         if(cmd->altebytes_mode != QSPI_ALTE_BYTES_NONE) {
 1239              		.loc 1 546 15
 1240 003e 8327C4FE 		lw	a5,-20(s0)
 1241 0042 DC4B     		lw	a5,20(a5)
 1242              		.loc 1 546 11
 1243 0044 FDC3     		beq	a5,zero,.L48
 547:../Firmware/GD32VW55x_standard_peripheral/Source/gd32vw55x_qspi.c ****             /* configure QSPI_ALTE register with alternate bytes value */
 548:../Firmware/GD32VW55x_standard_peripheral/Source/gd32vw55x_qspi.c ****             QSPI_ALTE = cmd->altebytes;
 1244              		.loc 1 548 13
 1245 0046 B7670240 		li	a5,1073897472
 1246 004a 9387C781 		addi	a5,a5,-2020
 1247              		.loc 1 548 28
 1248 004e 0327C4FE 		lw	a4,-20(s0)
 1249 0052 584F     		lw	a4,28(a4)
 1250              		.loc 1 548 23
 1251 0054 98C3     		sw	a4,0(a5)
 549:../Firmware/GD32VW55x_standard_peripheral/Source/gd32vw55x_qspi.c **** 
 550:../Firmware/GD32VW55x_standard_peripheral/Source/gd32vw55x_qspi.c ****             if(cmd->addr_mode != QSPI_ADDR_NONE) {
 1252              		.loc 1 550 19
 1253 0056 8327C4FE 		lw	a5,-20(s0)
 1254 005a 9C47     		lw	a5,8(a5)
 1255              		.loc 1 550 15
 1256 005c ADCF     		beq	a5,zero,.L49
 551:../Firmware/GD32VW55x_standard_peripheral/Source/gd32vw55x_qspi.c ****                 /* command with instruction, address and alternate bytes */
 552:../Firmware/GD32VW55x_standard_peripheral/Source/gd32vw55x_qspi.c ****                 /* configure QSPI_TCFG register with all communications parameters */
 553:../Firmware/GD32VW55x_standard_peripheral/Source/gd32vw55x_qspi.c ****                 QSPI_TCFG = cmd->data_mode | (cmd->dummycycles << TCFG_DUMYC_OFFSET) | cmd->sioo_mo
 1257              		.loc 1 553 32
 1258 005e 8327C4FE 		lw	a5,-20(s0)
 1259 0062 D853     		lw	a4,36(a5)
 1260              		.loc 1 553 50
 1261 0064 8327C4FE 		lw	a5,-20(s0)
 1262 0068 9C53     		lw	a5,32(a5)
 1263              		.loc 1 553 64
 1264 006a CA07     		slli	a5,a5,18
 1265              		.loc 1 553 44
 1266 006c 5D8F     		or	a4,a4,a5
 1267              		.loc 1 553 91
 1268 006e 8327C4FE 		lw	a5,-20(s0)
 1269 0072 DC57     		lw	a5,44(a5)
 1270              		.loc 1 553 86
 1271 0074 5D8F     		or	a4,a4,a5
 554:../Firmware/GD32VW55x_standard_peripheral/Source/gd32vw55x_qspi.c ****                             cmd->altebytes_size | cmd->altebytes_mode |
 1272              		.loc 1 554 32
 1273 0076 8327C4FE 		lw	a5,-20(s0)
 1274 007a 9C4F     		lw	a5,24(a5)
 553:../Firmware/GD32VW55x_standard_peripheral/Source/gd32vw55x_qspi.c ****                             cmd->altebytes_size | cmd->altebytes_mode |
 1275              		.loc 1 553 103
 1276 007c 5D8F     		or	a4,a4,a5
 1277              		.loc 1 554 54
 1278 007e 8327C4FE 		lw	a5,-20(s0)
 1279 0082 DC4B     		lw	a5,20(a5)
 1280              		.loc 1 554 49
 1281 0084 5D8F     		or	a4,a4,a5
 555:../Firmware/GD32VW55x_standard_peripheral/Source/gd32vw55x_qspi.c ****                             cmd->addr_size | cmd->addr_mode | cmd->instruction_mode |
 1282              		.loc 1 555 32
 1283 0086 8327C4FE 		lw	a5,-20(s0)
 1284 008a DC47     		lw	a5,12(a5)
 554:../Firmware/GD32VW55x_standard_peripheral/Source/gd32vw55x_qspi.c ****                             cmd->altebytes_size | cmd->altebytes_mode |
 1285              		.loc 1 554 71
 1286 008c 5D8F     		or	a4,a4,a5
 1287              		.loc 1 555 49
 1288 008e 8327C4FE 		lw	a5,-20(s0)
 1289 0092 9C47     		lw	a5,8(a5)
 1290              		.loc 1 555 44
 1291 0094 5D8F     		or	a4,a4,a5
 1292              		.loc 1 555 66
 1293 0096 8327C4FE 		lw	a5,-20(s0)
 1294 009a 9C43     		lw	a5,0(a5)
 1295              		.loc 1 555 61
 1296 009c 5D8F     		or	a4,a4,a5
 556:../Firmware/GD32VW55x_standard_peripheral/Source/gd32vw55x_qspi.c ****                             cmd->instruction | functionalmode;
 1297              		.loc 1 556 32
 1298 009e 8327C4FE 		lw	a5,-20(s0)
 1299 00a2 DC43     		lw	a5,4(a5)
 555:../Firmware/GD32VW55x_standard_peripheral/Source/gd32vw55x_qspi.c ****                             cmd->addr_size | cmd->addr_mode | cmd->instruction_mode |
 1300              		.loc 1 555 85
 1301 00a4 B366F700 		or	a3,a4,a5
 553:../Firmware/GD32VW55x_standard_peripheral/Source/gd32vw55x_qspi.c ****                             cmd->altebytes_size | cmd->altebytes_mode |
 1302              		.loc 1 553 17
 1303 00a8 B7670240 		li	a5,1073897472
 1304 00ac 93874781 		addi	a5,a5,-2028
 1305              		.loc 1 556 46
 1306 00b0 032784FE 		lw	a4,-24(s0)
 1307 00b4 558F     		or	a4,a3,a4
 553:../Firmware/GD32VW55x_standard_peripheral/Source/gd32vw55x_qspi.c ****                             cmd->altebytes_size | cmd->altebytes_mode |
 1308              		.loc 1 553 27
 1309 00b6 98C3     		sw	a4,0(a5)
 557:../Firmware/GD32VW55x_standard_peripheral/Source/gd32vw55x_qspi.c **** 
 558:../Firmware/GD32VW55x_standard_peripheral/Source/gd32vw55x_qspi.c ****                 if(functionalmode != QSPI_MEMORY_MAPPED) {
 1310              		.loc 1 558 19
 1311 00b8 032784FE 		lw	a4,-24(s0)
 1312 00bc B707000C 		li	a5,201326592
 1313 00c0 6302F72C 		beq	a4,a5,.L55
 559:../Firmware/GD32VW55x_standard_peripheral/Source/gd32vw55x_qspi.c ****                     /* configure QSPI_ADDR register with address value */
 560:../Firmware/GD32VW55x_standard_peripheral/Source/gd32vw55x_qspi.c ****                     QSPI_ADDR = cmd->addr;
 1314              		.loc 1 560 21
 1315 00c4 B7670240 		li	a5,1073897472
 1316 00c8 93878781 		addi	a5,a5,-2024
 1317              		.loc 1 560 36
 1318 00cc 0327C4FE 		lw	a4,-20(s0)
 1319 00d0 184B     		lw	a4,16(a4)
 1320              		.loc 1 560 31
 1321 00d2 98C3     		sw	a4,0(a5)
 561:../Firmware/GD32VW55x_standard_peripheral/Source/gd32vw55x_qspi.c ****                 }
 562:../Firmware/GD32VW55x_standard_peripheral/Source/gd32vw55x_qspi.c ****             } else {
 563:../Firmware/GD32VW55x_standard_peripheral/Source/gd32vw55x_qspi.c ****                 /* command with instruction and alternate bytes */
 564:../Firmware/GD32VW55x_standard_peripheral/Source/gd32vw55x_qspi.c ****                 /* configure QSPI_TCFG register with all communications parameters */
 565:../Firmware/GD32VW55x_standard_peripheral/Source/gd32vw55x_qspi.c ****                 QSPI_TCFG = cmd->data_mode | (cmd->dummycycles << TCFG_DUMYC_OFFSET) | cmd->sioo_mo
 566:../Firmware/GD32VW55x_standard_peripheral/Source/gd32vw55x_qspi.c ****                             cmd->altebytes_size | cmd->altebytes_mode |
 567:../Firmware/GD32VW55x_standard_peripheral/Source/gd32vw55x_qspi.c ****                             cmd->addr_mode | cmd->instruction_mode |
 568:../Firmware/GD32VW55x_standard_peripheral/Source/gd32vw55x_qspi.c ****                             cmd->instruction | functionalmode;
 569:../Firmware/GD32VW55x_standard_peripheral/Source/gd32vw55x_qspi.c ****             }
 570:../Firmware/GD32VW55x_standard_peripheral/Source/gd32vw55x_qspi.c ****         } else {
 571:../Firmware/GD32VW55x_standard_peripheral/Source/gd32vw55x_qspi.c ****             if(cmd->addr_mode != QSPI_ADDR_NONE) {
 572:../Firmware/GD32VW55x_standard_peripheral/Source/gd32vw55x_qspi.c ****                 /* command with instruction and address */
 573:../Firmware/GD32VW55x_standard_peripheral/Source/gd32vw55x_qspi.c ****                 /* configure QSPI_TCFG register with all communications parameters */
 574:../Firmware/GD32VW55x_standard_peripheral/Source/gd32vw55x_qspi.c ****                 QSPI_TCFG = cmd->data_mode | (cmd->dummycycles << TCFG_DUMYC_OFFSET) | cmd->sioo_mo
 575:../Firmware/GD32VW55x_standard_peripheral/Source/gd32vw55x_qspi.c ****                             cmd->altebytes_mode | cmd->addr_size | cmd->addr_mode |
 576:../Firmware/GD32VW55x_standard_peripheral/Source/gd32vw55x_qspi.c ****                             cmd->instruction_mode | cmd->instruction | functionalmode;
 577:../Firmware/GD32VW55x_standard_peripheral/Source/gd32vw55x_qspi.c **** 
 578:../Firmware/GD32VW55x_standard_peripheral/Source/gd32vw55x_qspi.c ****                 if(functionalmode != QSPI_MEMORY_MAPPED) {
 579:../Firmware/GD32VW55x_standard_peripheral/Source/gd32vw55x_qspi.c ****                     /* configure QSPI_ADDR register with address value */
 580:../Firmware/GD32VW55x_standard_peripheral/Source/gd32vw55x_qspi.c ****                     QSPI_ADDR = cmd->addr;
 581:../Firmware/GD32VW55x_standard_peripheral/Source/gd32vw55x_qspi.c ****                 }
 582:../Firmware/GD32VW55x_standard_peripheral/Source/gd32vw55x_qspi.c ****             } else {
 583:../Firmware/GD32VW55x_standard_peripheral/Source/gd32vw55x_qspi.c ****                 /* command with only instruction */
 584:../Firmware/GD32VW55x_standard_peripheral/Source/gd32vw55x_qspi.c ****                 /* configure QSPI_TCFG register with all communications parameters */
 585:../Firmware/GD32VW55x_standard_peripheral/Source/gd32vw55x_qspi.c ****                 QSPI_TCFG = cmd->data_mode | (cmd->dummycycles << TCFG_DUMYC_OFFSET) | cmd->sioo_mo
 586:../Firmware/GD32VW55x_standard_peripheral/Source/gd32vw55x_qspi.c ****                             cmd->altebytes_mode | cmd->addr_mode | cmd->instruction_mode |
 587:../Firmware/GD32VW55x_standard_peripheral/Source/gd32vw55x_qspi.c ****                             cmd->instruction | functionalmode;
 588:../Firmware/GD32VW55x_standard_peripheral/Source/gd32vw55x_qspi.c ****             }
 589:../Firmware/GD32VW55x_standard_peripheral/Source/gd32vw55x_qspi.c ****         }
 590:../Firmware/GD32VW55x_standard_peripheral/Source/gd32vw55x_qspi.c ****     } else {
 591:../Firmware/GD32VW55x_standard_peripheral/Source/gd32vw55x_qspi.c ****         if(cmd->altebytes_mode != QSPI_ALTE_BYTES_NONE) {
 592:../Firmware/GD32VW55x_standard_peripheral/Source/gd32vw55x_qspi.c ****             /* configure QSPI_ALTE register with alternate bytes value */
 593:../Firmware/GD32VW55x_standard_peripheral/Source/gd32vw55x_qspi.c ****             QSPI_ALTE = cmd->altebytes;
 594:../Firmware/GD32VW55x_standard_peripheral/Source/gd32vw55x_qspi.c **** 
 595:../Firmware/GD32VW55x_standard_peripheral/Source/gd32vw55x_qspi.c ****             if(cmd->addr_mode != QSPI_ADDR_NONE) {
 596:../Firmware/GD32VW55x_standard_peripheral/Source/gd32vw55x_qspi.c ****                 /* command with address and alternate bytes */
 597:../Firmware/GD32VW55x_standard_peripheral/Source/gd32vw55x_qspi.c ****                 /* configure QSPI_TCFG register with all communications parameters */
 598:../Firmware/GD32VW55x_standard_peripheral/Source/gd32vw55x_qspi.c ****                 QSPI_TCFG = cmd->data_mode | (cmd->dummycycles << TCFG_DUMYC_OFFSET) | cmd->sioo_mo
 599:../Firmware/GD32VW55x_standard_peripheral/Source/gd32vw55x_qspi.c ****                             cmd->altebytes_mode | cmd->altebytes_size | cmd->addr_size |
 600:../Firmware/GD32VW55x_standard_peripheral/Source/gd32vw55x_qspi.c ****                             cmd->addr_mode | cmd->instruction_mode | functionalmode;
 601:../Firmware/GD32VW55x_standard_peripheral/Source/gd32vw55x_qspi.c **** 
 602:../Firmware/GD32VW55x_standard_peripheral/Source/gd32vw55x_qspi.c ****                 if(functionalmode != QSPI_MEMORY_MAPPED) {
 603:../Firmware/GD32VW55x_standard_peripheral/Source/gd32vw55x_qspi.c ****                     /* configure QSPI_ADDR register with address value */
 604:../Firmware/GD32VW55x_standard_peripheral/Source/gd32vw55x_qspi.c ****                     QSPI_ADDR = cmd->addr;
 605:../Firmware/GD32VW55x_standard_peripheral/Source/gd32vw55x_qspi.c ****                 }
 606:../Firmware/GD32VW55x_standard_peripheral/Source/gd32vw55x_qspi.c ****             } else {
 607:../Firmware/GD32VW55x_standard_peripheral/Source/gd32vw55x_qspi.c ****                 /* command with only alternate bytes */
 608:../Firmware/GD32VW55x_standard_peripheral/Source/gd32vw55x_qspi.c ****                 /* configure QSPI_TCFG register with all communications parameters */
 609:../Firmware/GD32VW55x_standard_peripheral/Source/gd32vw55x_qspi.c ****                 QSPI_TCFG = cmd->data_mode | (cmd->dummycycles << TCFG_DUMYC_OFFSET) | cmd->sioo_mo
 610:../Firmware/GD32VW55x_standard_peripheral/Source/gd32vw55x_qspi.c ****                             cmd->altebytes_mode | cmd->altebytes_size |
 611:../Firmware/GD32VW55x_standard_peripheral/Source/gd32vw55x_qspi.c ****                             cmd->addr_mode | cmd->instruction_mode | functionalmode;
 612:../Firmware/GD32VW55x_standard_peripheral/Source/gd32vw55x_qspi.c ****             }
 613:../Firmware/GD32VW55x_standard_peripheral/Source/gd32vw55x_qspi.c ****         } else {
 614:../Firmware/GD32VW55x_standard_peripheral/Source/gd32vw55x_qspi.c ****             if(cmd->addr_mode != QSPI_ADDR_NONE) {
 615:../Firmware/GD32VW55x_standard_peripheral/Source/gd32vw55x_qspi.c ****                 /* command with only address */
 616:../Firmware/GD32VW55x_standard_peripheral/Source/gd32vw55x_qspi.c ****                 /* configure QSPI_TCFG register with all communications parameters */
 617:../Firmware/GD32VW55x_standard_peripheral/Source/gd32vw55x_qspi.c ****                 QSPI_TCFG = cmd->data_mode | (cmd->dummycycles << TCFG_DUMYC_OFFSET) | cmd->sioo_mo
 618:../Firmware/GD32VW55x_standard_peripheral/Source/gd32vw55x_qspi.c ****                             cmd->altebytes_mode | cmd->addr_size |
 619:../Firmware/GD32VW55x_standard_peripheral/Source/gd32vw55x_qspi.c ****                             cmd->addr_mode | cmd->instruction_mode | functionalmode;
 620:../Firmware/GD32VW55x_standard_peripheral/Source/gd32vw55x_qspi.c **** 
 621:../Firmware/GD32VW55x_standard_peripheral/Source/gd32vw55x_qspi.c ****                 if(functionalmode != QSPI_MEMORY_MAPPED) {
 622:../Firmware/GD32VW55x_standard_peripheral/Source/gd32vw55x_qspi.c ****                     /* configure QSPI_ADDR register with address value */
 623:../Firmware/GD32VW55x_standard_peripheral/Source/gd32vw55x_qspi.c ****                     QSPI_ADDR = cmd->addr;
 624:../Firmware/GD32VW55x_standard_peripheral/Source/gd32vw55x_qspi.c ****                 }
 625:../Firmware/GD32VW55x_standard_peripheral/Source/gd32vw55x_qspi.c ****             } else {
 626:../Firmware/GD32VW55x_standard_peripheral/Source/gd32vw55x_qspi.c ****                 /* command with only data phase */
 627:../Firmware/GD32VW55x_standard_peripheral/Source/gd32vw55x_qspi.c ****                 if(cmd->data_mode != QSPI_DATA_NONE) {
 628:../Firmware/GD32VW55x_standard_peripheral/Source/gd32vw55x_qspi.c ****                     /* configure QSPI_TCFG register with all communications parameters */
 629:../Firmware/GD32VW55x_standard_peripheral/Source/gd32vw55x_qspi.c ****                     QSPI_TCFG = cmd->data_mode | (cmd->dummycycles << TCFG_DUMYC_OFFSET) | cmd->sio
 630:../Firmware/GD32VW55x_standard_peripheral/Source/gd32vw55x_qspi.c ****                                 cmd->altebytes_mode | cmd->addr_mode |
 631:../Firmware/GD32VW55x_standard_peripheral/Source/gd32vw55x_qspi.c ****                                 cmd->instruction_mode | functionalmode;
 632:../Firmware/GD32VW55x_standard_peripheral/Source/gd32vw55x_qspi.c ****                 }
 633:../Firmware/GD32VW55x_standard_peripheral/Source/gd32vw55x_qspi.c ****             }
 634:../Firmware/GD32VW55x_standard_peripheral/Source/gd32vw55x_qspi.c ****         }
 635:../Firmware/GD32VW55x_standard_peripheral/Source/gd32vw55x_qspi.c ****     }
 636:../Firmware/GD32VW55x_standard_peripheral/Source/gd32vw55x_qspi.c **** }
 1322              		.loc 1 636 1
 1323 00d4 45AC     		j	.L55
 1324              	.L49:
 565:../Firmware/GD32VW55x_standard_peripheral/Source/gd32vw55x_qspi.c ****                             cmd->altebytes_size | cmd->altebytes_mode |
 1325              		.loc 1 565 32
 1326 00d6 8327C4FE 		lw	a5,-20(s0)
 1327 00da D853     		lw	a4,36(a5)
 565:../Firmware/GD32VW55x_standard_peripheral/Source/gd32vw55x_qspi.c ****                             cmd->altebytes_size | cmd->altebytes_mode |
 1328              		.loc 1 565 50
 1329 00dc 8327C4FE 		lw	a5,-20(s0)
 1330 00e0 9C53     		lw	a5,32(a5)
 565:../Firmware/GD32VW55x_standard_peripheral/Source/gd32vw55x_qspi.c ****                             cmd->altebytes_size | cmd->altebytes_mode |
 1331              		.loc 1 565 64
 1332 00e2 CA07     		slli	a5,a5,18
 565:../Firmware/GD32VW55x_standard_peripheral/Source/gd32vw55x_qspi.c ****                             cmd->altebytes_size | cmd->altebytes_mode |
 1333              		.loc 1 565 44
 1334 00e4 5D8F     		or	a4,a4,a5
 565:../Firmware/GD32VW55x_standard_peripheral/Source/gd32vw55x_qspi.c ****                             cmd->altebytes_size | cmd->altebytes_mode |
 1335              		.loc 1 565 91
 1336 00e6 8327C4FE 		lw	a5,-20(s0)
 1337 00ea DC57     		lw	a5,44(a5)
 565:../Firmware/GD32VW55x_standard_peripheral/Source/gd32vw55x_qspi.c ****                             cmd->altebytes_size | cmd->altebytes_mode |
 1338              		.loc 1 565 86
 1339 00ec 5D8F     		or	a4,a4,a5
 566:../Firmware/GD32VW55x_standard_peripheral/Source/gd32vw55x_qspi.c ****                             cmd->addr_mode | cmd->instruction_mode |
 1340              		.loc 1 566 32
 1341 00ee 8327C4FE 		lw	a5,-20(s0)
 1342 00f2 9C4F     		lw	a5,24(a5)
 565:../Firmware/GD32VW55x_standard_peripheral/Source/gd32vw55x_qspi.c ****                             cmd->altebytes_size | cmd->altebytes_mode |
 1343              		.loc 1 565 103
 1344 00f4 5D8F     		or	a4,a4,a5
 566:../Firmware/GD32VW55x_standard_peripheral/Source/gd32vw55x_qspi.c ****                             cmd->addr_mode | cmd->instruction_mode |
 1345              		.loc 1 566 54
 1346 00f6 8327C4FE 		lw	a5,-20(s0)
 1347 00fa DC4B     		lw	a5,20(a5)
 566:../Firmware/GD32VW55x_standard_peripheral/Source/gd32vw55x_qspi.c ****                             cmd->addr_mode | cmd->instruction_mode |
 1348              		.loc 1 566 49
 1349 00fc 5D8F     		or	a4,a4,a5
 567:../Firmware/GD32VW55x_standard_peripheral/Source/gd32vw55x_qspi.c ****                             cmd->instruction | functionalmode;
 1350              		.loc 1 567 32
 1351 00fe 8327C4FE 		lw	a5,-20(s0)
 1352 0102 9C47     		lw	a5,8(a5)
 566:../Firmware/GD32VW55x_standard_peripheral/Source/gd32vw55x_qspi.c ****                             cmd->addr_mode | cmd->instruction_mode |
 1353              		.loc 1 566 71
 1354 0104 5D8F     		or	a4,a4,a5
 567:../Firmware/GD32VW55x_standard_peripheral/Source/gd32vw55x_qspi.c ****                             cmd->instruction | functionalmode;
 1355              		.loc 1 567 49
 1356 0106 8327C4FE 		lw	a5,-20(s0)
 1357 010a 9C43     		lw	a5,0(a5)
 567:../Firmware/GD32VW55x_standard_peripheral/Source/gd32vw55x_qspi.c ****                             cmd->instruction | functionalmode;
 1358              		.loc 1 567 44
 1359 010c 5D8F     		or	a4,a4,a5
 568:../Firmware/GD32VW55x_standard_peripheral/Source/gd32vw55x_qspi.c ****             }
 1360              		.loc 1 568 32
 1361 010e 8327C4FE 		lw	a5,-20(s0)
 1362 0112 DC43     		lw	a5,4(a5)
 567:../Firmware/GD32VW55x_standard_peripheral/Source/gd32vw55x_qspi.c ****                             cmd->instruction | functionalmode;
 1363              		.loc 1 567 68
 1364 0114 B366F700 		or	a3,a4,a5
 565:../Firmware/GD32VW55x_standard_peripheral/Source/gd32vw55x_qspi.c ****                             cmd->altebytes_size | cmd->altebytes_mode |
 1365              		.loc 1 565 17
 1366 0118 B7670240 		li	a5,1073897472
 1367 011c 93874781 		addi	a5,a5,-2028
 568:../Firmware/GD32VW55x_standard_peripheral/Source/gd32vw55x_qspi.c ****             }
 1368              		.loc 1 568 46
 1369 0120 032784FE 		lw	a4,-24(s0)
 1370 0124 558F     		or	a4,a3,a4
 565:../Firmware/GD32VW55x_standard_peripheral/Source/gd32vw55x_qspi.c ****                             cmd->altebytes_size | cmd->altebytes_mode |
 1371              		.loc 1 565 27
 1372 0126 98C3     		sw	a4,0(a5)
 1373              		.loc 1 636 1
 1374 0128 B1AC     		j	.L55
 1375              	.L48:
 571:../Firmware/GD32VW55x_standard_peripheral/Source/gd32vw55x_qspi.c ****                 /* command with instruction and address */
 1376              		.loc 1 571 19
 1377 012a 8327C4FE 		lw	a5,-20(s0)
 1378 012e 9C47     		lw	a5,8(a5)
 571:../Firmware/GD32VW55x_standard_peripheral/Source/gd32vw55x_qspi.c ****                 /* command with instruction and address */
 1379              		.loc 1 571 15
 1380 0130 ADCB     		beq	a5,zero,.L51
 574:../Firmware/GD32VW55x_standard_peripheral/Source/gd32vw55x_qspi.c ****                             cmd->altebytes_mode | cmd->addr_size | cmd->addr_mode |
 1381              		.loc 1 574 32
 1382 0132 8327C4FE 		lw	a5,-20(s0)
 1383 0136 D853     		lw	a4,36(a5)
 574:../Firmware/GD32VW55x_standard_peripheral/Source/gd32vw55x_qspi.c ****                             cmd->altebytes_mode | cmd->addr_size | cmd->addr_mode |
 1384              		.loc 1 574 50
 1385 0138 8327C4FE 		lw	a5,-20(s0)
 1386 013c 9C53     		lw	a5,32(a5)
 574:../Firmware/GD32VW55x_standard_peripheral/Source/gd32vw55x_qspi.c ****                             cmd->altebytes_mode | cmd->addr_size | cmd->addr_mode |
 1387              		.loc 1 574 64
 1388 013e CA07     		slli	a5,a5,18
 574:../Firmware/GD32VW55x_standard_peripheral/Source/gd32vw55x_qspi.c ****                             cmd->altebytes_mode | cmd->addr_size | cmd->addr_mode |
 1389              		.loc 1 574 44
 1390 0140 5D8F     		or	a4,a4,a5
 574:../Firmware/GD32VW55x_standard_peripheral/Source/gd32vw55x_qspi.c ****                             cmd->altebytes_mode | cmd->addr_size | cmd->addr_mode |
 1391              		.loc 1 574 91
 1392 0142 8327C4FE 		lw	a5,-20(s0)
 1393 0146 DC57     		lw	a5,44(a5)
 574:../Firmware/GD32VW55x_standard_peripheral/Source/gd32vw55x_qspi.c ****                             cmd->altebytes_mode | cmd->addr_size | cmd->addr_mode |
 1394              		.loc 1 574 86
 1395 0148 5D8F     		or	a4,a4,a5
 575:../Firmware/GD32VW55x_standard_peripheral/Source/gd32vw55x_qspi.c ****                             cmd->instruction_mode | cmd->instruction | functionalmode;
 1396              		.loc 1 575 32
 1397 014a 8327C4FE 		lw	a5,-20(s0)
 1398 014e DC4B     		lw	a5,20(a5)
 574:../Firmware/GD32VW55x_standard_peripheral/Source/gd32vw55x_qspi.c ****                             cmd->altebytes_mode | cmd->addr_size | cmd->addr_mode |
 1399              		.loc 1 574 103
 1400 0150 5D8F     		or	a4,a4,a5
 575:../Firmware/GD32VW55x_standard_peripheral/Source/gd32vw55x_qspi.c ****                             cmd->instruction_mode | cmd->instruction | functionalmode;
 1401              		.loc 1 575 54
 1402 0152 8327C4FE 		lw	a5,-20(s0)
 1403 0156 DC47     		lw	a5,12(a5)
 575:../Firmware/GD32VW55x_standard_peripheral/Source/gd32vw55x_qspi.c ****                             cmd->instruction_mode | cmd->instruction | functionalmode;
 1404              		.loc 1 575 49
 1405 0158 5D8F     		or	a4,a4,a5
 575:../Firmware/GD32VW55x_standard_peripheral/Source/gd32vw55x_qspi.c ****                             cmd->instruction_mode | cmd->instruction | functionalmode;
 1406              		.loc 1 575 71
 1407 015a 8327C4FE 		lw	a5,-20(s0)
 1408 015e 9C47     		lw	a5,8(a5)
 575:../Firmware/GD32VW55x_standard_peripheral/Source/gd32vw55x_qspi.c ****                             cmd->instruction_mode | cmd->instruction | functionalmode;
 1409              		.loc 1 575 66
 1410 0160 5D8F     		or	a4,a4,a5
 576:../Firmware/GD32VW55x_standard_peripheral/Source/gd32vw55x_qspi.c **** 
 1411              		.loc 1 576 32
 1412 0162 8327C4FE 		lw	a5,-20(s0)
 1413 0166 9C43     		lw	a5,0(a5)
 575:../Firmware/GD32VW55x_standard_peripheral/Source/gd32vw55x_qspi.c ****                             cmd->instruction_mode | cmd->instruction | functionalmode;
 1414              		.loc 1 575 83
 1415 0168 5D8F     		or	a4,a4,a5
 576:../Firmware/GD32VW55x_standard_peripheral/Source/gd32vw55x_qspi.c **** 
 1416              		.loc 1 576 56
 1417 016a 8327C4FE 		lw	a5,-20(s0)
 1418 016e DC43     		lw	a5,4(a5)
 576:../Firmware/GD32VW55x_standard_peripheral/Source/gd32vw55x_qspi.c **** 
 1419              		.loc 1 576 51
 1420 0170 B366F700 		or	a3,a4,a5
 574:../Firmware/GD32VW55x_standard_peripheral/Source/gd32vw55x_qspi.c ****                             cmd->altebytes_mode | cmd->addr_size | cmd->addr_mode |
 1421              		.loc 1 574 17
 1422 0174 B7670240 		li	a5,1073897472
 1423 0178 93874781 		addi	a5,a5,-2028
 576:../Firmware/GD32VW55x_standard_peripheral/Source/gd32vw55x_qspi.c **** 
 1424              		.loc 1 576 70
 1425 017c 032784FE 		lw	a4,-24(s0)
 1426 0180 558F     		or	a4,a3,a4
 574:../Firmware/GD32VW55x_standard_peripheral/Source/gd32vw55x_qspi.c ****                             cmd->altebytes_mode | cmd->addr_size | cmd->addr_mode |
 1427              		.loc 1 574 27
 1428 0182 98C3     		sw	a4,0(a5)
 578:../Firmware/GD32VW55x_standard_peripheral/Source/gd32vw55x_qspi.c ****                     /* configure QSPI_ADDR register with address value */
 1429              		.loc 1 578 19
 1430 0184 032784FE 		lw	a4,-24(s0)
 1431 0188 B707000C 		li	a5,201326592
 1432 018c 630CF71E 		beq	a4,a5,.L55
 580:../Firmware/GD32VW55x_standard_peripheral/Source/gd32vw55x_qspi.c ****                 }
 1433              		.loc 1 580 21
 1434 0190 B7670240 		li	a5,1073897472
 1435 0194 93878781 		addi	a5,a5,-2024
 580:../Firmware/GD32VW55x_standard_peripheral/Source/gd32vw55x_qspi.c ****                 }
 1436              		.loc 1 580 36
 1437 0198 0327C4FE 		lw	a4,-20(s0)
 1438 019c 184B     		lw	a4,16(a4)
 580:../Firmware/GD32VW55x_standard_peripheral/Source/gd32vw55x_qspi.c ****                 }
 1439              		.loc 1 580 31
 1440 019e 98C3     		sw	a4,0(a5)
 1441              		.loc 1 636 1
 1442 01a0 D5A2     		j	.L55
 1443              	.L51:
 585:../Firmware/GD32VW55x_standard_peripheral/Source/gd32vw55x_qspi.c ****                             cmd->altebytes_mode | cmd->addr_mode | cmd->instruction_mode |
 1444              		.loc 1 585 32
 1445 01a2 8327C4FE 		lw	a5,-20(s0)
 1446 01a6 D853     		lw	a4,36(a5)
 585:../Firmware/GD32VW55x_standard_peripheral/Source/gd32vw55x_qspi.c ****                             cmd->altebytes_mode | cmd->addr_mode | cmd->instruction_mode |
 1447              		.loc 1 585 50
 1448 01a8 8327C4FE 		lw	a5,-20(s0)
 1449 01ac 9C53     		lw	a5,32(a5)
 585:../Firmware/GD32VW55x_standard_peripheral/Source/gd32vw55x_qspi.c ****                             cmd->altebytes_mode | cmd->addr_mode | cmd->instruction_mode |
 1450              		.loc 1 585 64
 1451 01ae CA07     		slli	a5,a5,18
 585:../Firmware/GD32VW55x_standard_peripheral/Source/gd32vw55x_qspi.c ****                             cmd->altebytes_mode | cmd->addr_mode | cmd->instruction_mode |
 1452              		.loc 1 585 44
 1453 01b0 5D8F     		or	a4,a4,a5
 585:../Firmware/GD32VW55x_standard_peripheral/Source/gd32vw55x_qspi.c ****                             cmd->altebytes_mode | cmd->addr_mode | cmd->instruction_mode |
 1454              		.loc 1 585 91
 1455 01b2 8327C4FE 		lw	a5,-20(s0)
 1456 01b6 DC57     		lw	a5,44(a5)
 585:../Firmware/GD32VW55x_standard_peripheral/Source/gd32vw55x_qspi.c ****                             cmd->altebytes_mode | cmd->addr_mode | cmd->instruction_mode |
 1457              		.loc 1 585 86
 1458 01b8 5D8F     		or	a4,a4,a5
 586:../Firmware/GD32VW55x_standard_peripheral/Source/gd32vw55x_qspi.c ****                             cmd->instruction | functionalmode;
 1459              		.loc 1 586 32
 1460 01ba 8327C4FE 		lw	a5,-20(s0)
 1461 01be DC4B     		lw	a5,20(a5)
 585:../Firmware/GD32VW55x_standard_peripheral/Source/gd32vw55x_qspi.c ****                             cmd->altebytes_mode | cmd->addr_mode | cmd->instruction_mode |
 1462              		.loc 1 585 103
 1463 01c0 5D8F     		or	a4,a4,a5
 586:../Firmware/GD32VW55x_standard_peripheral/Source/gd32vw55x_qspi.c ****                             cmd->instruction | functionalmode;
 1464              		.loc 1 586 54
 1465 01c2 8327C4FE 		lw	a5,-20(s0)
 1466 01c6 9C47     		lw	a5,8(a5)
 586:../Firmware/GD32VW55x_standard_peripheral/Source/gd32vw55x_qspi.c ****                             cmd->instruction | functionalmode;
 1467              		.loc 1 586 49
 1468 01c8 5D8F     		or	a4,a4,a5
 586:../Firmware/GD32VW55x_standard_peripheral/Source/gd32vw55x_qspi.c ****                             cmd->instruction | functionalmode;
 1469              		.loc 1 586 71
 1470 01ca 8327C4FE 		lw	a5,-20(s0)
 1471 01ce 9C43     		lw	a5,0(a5)
 586:../Firmware/GD32VW55x_standard_peripheral/Source/gd32vw55x_qspi.c ****                             cmd->instruction | functionalmode;
 1472              		.loc 1 586 66
 1473 01d0 5D8F     		or	a4,a4,a5
 587:../Firmware/GD32VW55x_standard_peripheral/Source/gd32vw55x_qspi.c ****             }
 1474              		.loc 1 587 32
 1475 01d2 8327C4FE 		lw	a5,-20(s0)
 1476 01d6 DC43     		lw	a5,4(a5)
 586:../Firmware/GD32VW55x_standard_peripheral/Source/gd32vw55x_qspi.c ****                             cmd->instruction | functionalmode;
 1477              		.loc 1 586 90
 1478 01d8 B366F700 		or	a3,a4,a5
 585:../Firmware/GD32VW55x_standard_peripheral/Source/gd32vw55x_qspi.c ****                             cmd->altebytes_mode | cmd->addr_mode | cmd->instruction_mode |
 1479              		.loc 1 585 17
 1480 01dc B7670240 		li	a5,1073897472
 1481 01e0 93874781 		addi	a5,a5,-2028
 587:../Firmware/GD32VW55x_standard_peripheral/Source/gd32vw55x_qspi.c ****             }
 1482              		.loc 1 587 46
 1483 01e4 032784FE 		lw	a4,-24(s0)
 1484 01e8 558F     		or	a4,a3,a4
 585:../Firmware/GD32VW55x_standard_peripheral/Source/gd32vw55x_qspi.c ****                             cmd->altebytes_mode | cmd->addr_mode | cmd->instruction_mode |
 1485              		.loc 1 585 27
 1486 01ea 98C3     		sw	a4,0(a5)
 1487              		.loc 1 636 1
 1488 01ec 61AA     		j	.L55
 1489              	.L47:
 591:../Firmware/GD32VW55x_standard_peripheral/Source/gd32vw55x_qspi.c ****             /* configure QSPI_ALTE register with alternate bytes value */
 1490              		.loc 1 591 15
 1491 01ee 8327C4FE 		lw	a5,-20(s0)
 1492 01f2 DC4B     		lw	a5,20(a5)
 591:../Firmware/GD32VW55x_standard_peripheral/Source/gd32vw55x_qspi.c ****             /* configure QSPI_ALTE register with alternate bytes value */
 1493              		.loc 1 591 11
 1494 01f4 F9CB     		beq	a5,zero,.L52
 593:../Firmware/GD32VW55x_standard_peripheral/Source/gd32vw55x_qspi.c **** 
 1495              		.loc 1 593 13
 1496 01f6 B7670240 		li	a5,1073897472
 1497 01fa 9387C781 		addi	a5,a5,-2020
 593:../Firmware/GD32VW55x_standard_peripheral/Source/gd32vw55x_qspi.c **** 
 1498              		.loc 1 593 28
 1499 01fe 0327C4FE 		lw	a4,-20(s0)
 1500 0202 584F     		lw	a4,28(a4)
 593:../Firmware/GD32VW55x_standard_peripheral/Source/gd32vw55x_qspi.c **** 
 1501              		.loc 1 593 23
 1502 0204 98C3     		sw	a4,0(a5)
 595:../Firmware/GD32VW55x_standard_peripheral/Source/gd32vw55x_qspi.c ****                 /* command with address and alternate bytes */
 1503              		.loc 1 595 19
 1504 0206 8327C4FE 		lw	a5,-20(s0)
 1505 020a 9C47     		lw	a5,8(a5)
 595:../Firmware/GD32VW55x_standard_peripheral/Source/gd32vw55x_qspi.c ****                 /* command with address and alternate bytes */
 1506              		.loc 1 595 15
 1507 020c ADCB     		beq	a5,zero,.L53
 598:../Firmware/GD32VW55x_standard_peripheral/Source/gd32vw55x_qspi.c ****                             cmd->altebytes_mode | cmd->altebytes_size | cmd->addr_size |
 1508              		.loc 1 598 32
 1509 020e 8327C4FE 		lw	a5,-20(s0)
 1510 0212 D853     		lw	a4,36(a5)
 598:../Firmware/GD32VW55x_standard_peripheral/Source/gd32vw55x_qspi.c ****                             cmd->altebytes_mode | cmd->altebytes_size | cmd->addr_size |
 1511              		.loc 1 598 50
 1512 0214 8327C4FE 		lw	a5,-20(s0)
 1513 0218 9C53     		lw	a5,32(a5)
 598:../Firmware/GD32VW55x_standard_peripheral/Source/gd32vw55x_qspi.c ****                             cmd->altebytes_mode | cmd->altebytes_size | cmd->addr_size |
 1514              		.loc 1 598 64
 1515 021a CA07     		slli	a5,a5,18
 598:../Firmware/GD32VW55x_standard_peripheral/Source/gd32vw55x_qspi.c ****                             cmd->altebytes_mode | cmd->altebytes_size | cmd->addr_size |
 1516              		.loc 1 598 44
 1517 021c 5D8F     		or	a4,a4,a5
 598:../Firmware/GD32VW55x_standard_peripheral/Source/gd32vw55x_qspi.c ****                             cmd->altebytes_mode | cmd->altebytes_size | cmd->addr_size |
 1518              		.loc 1 598 91
 1519 021e 8327C4FE 		lw	a5,-20(s0)
 1520 0222 DC57     		lw	a5,44(a5)
 598:../Firmware/GD32VW55x_standard_peripheral/Source/gd32vw55x_qspi.c ****                             cmd->altebytes_mode | cmd->altebytes_size | cmd->addr_size |
 1521              		.loc 1 598 86
 1522 0224 5D8F     		or	a4,a4,a5
 599:../Firmware/GD32VW55x_standard_peripheral/Source/gd32vw55x_qspi.c ****                             cmd->addr_mode | cmd->instruction_mode | functionalmode;
 1523              		.loc 1 599 32
 1524 0226 8327C4FE 		lw	a5,-20(s0)
 1525 022a DC4B     		lw	a5,20(a5)
 598:../Firmware/GD32VW55x_standard_peripheral/Source/gd32vw55x_qspi.c ****                             cmd->altebytes_mode | cmd->altebytes_size | cmd->addr_size |
 1526              		.loc 1 598 103
 1527 022c 5D8F     		or	a4,a4,a5
 599:../Firmware/GD32VW55x_standard_peripheral/Source/gd32vw55x_qspi.c ****                             cmd->addr_mode | cmd->instruction_mode | functionalmode;
 1528              		.loc 1 599 54
 1529 022e 8327C4FE 		lw	a5,-20(s0)
 1530 0232 9C4F     		lw	a5,24(a5)
 599:../Firmware/GD32VW55x_standard_peripheral/Source/gd32vw55x_qspi.c ****                             cmd->addr_mode | cmd->instruction_mode | functionalmode;
 1531              		.loc 1 599 49
 1532 0234 5D8F     		or	a4,a4,a5
 599:../Firmware/GD32VW55x_standard_peripheral/Source/gd32vw55x_qspi.c ****                             cmd->addr_mode | cmd->instruction_mode | functionalmode;
 1533              		.loc 1 599 76
 1534 0236 8327C4FE 		lw	a5,-20(s0)
 1535 023a DC47     		lw	a5,12(a5)
 599:../Firmware/GD32VW55x_standard_peripheral/Source/gd32vw55x_qspi.c ****                             cmd->addr_mode | cmd->instruction_mode | functionalmode;
 1536              		.loc 1 599 71
 1537 023c 5D8F     		or	a4,a4,a5
 600:../Firmware/GD32VW55x_standard_peripheral/Source/gd32vw55x_qspi.c **** 
 1538              		.loc 1 600 32
 1539 023e 8327C4FE 		lw	a5,-20(s0)
 1540 0242 9C47     		lw	a5,8(a5)
 599:../Firmware/GD32VW55x_standard_peripheral/Source/gd32vw55x_qspi.c ****                             cmd->addr_mode | cmd->instruction_mode | functionalmode;
 1541              		.loc 1 599 88
 1542 0244 5D8F     		or	a4,a4,a5
 600:../Firmware/GD32VW55x_standard_peripheral/Source/gd32vw55x_qspi.c **** 
 1543              		.loc 1 600 49
 1544 0246 8327C4FE 		lw	a5,-20(s0)
 1545 024a 9C43     		lw	a5,0(a5)
 600:../Firmware/GD32VW55x_standard_peripheral/Source/gd32vw55x_qspi.c **** 
 1546              		.loc 1 600 44
 1547 024c B366F700 		or	a3,a4,a5
 598:../Firmware/GD32VW55x_standard_peripheral/Source/gd32vw55x_qspi.c ****                             cmd->altebytes_mode | cmd->altebytes_size | cmd->addr_size |
 1548              		.loc 1 598 17
 1549 0250 B7670240 		li	a5,1073897472
 1550 0254 93874781 		addi	a5,a5,-2028
 600:../Firmware/GD32VW55x_standard_peripheral/Source/gd32vw55x_qspi.c **** 
 1551              		.loc 1 600 68
 1552 0258 032784FE 		lw	a4,-24(s0)
 1553 025c 558F     		or	a4,a3,a4
 598:../Firmware/GD32VW55x_standard_peripheral/Source/gd32vw55x_qspi.c ****                             cmd->altebytes_mode | cmd->altebytes_size | cmd->addr_size |
 1554              		.loc 1 598 27
 1555 025e 98C3     		sw	a4,0(a5)
 602:../Firmware/GD32VW55x_standard_peripheral/Source/gd32vw55x_qspi.c ****                     /* configure QSPI_ADDR register with address value */
 1556              		.loc 1 602 19
 1557 0260 032784FE 		lw	a4,-24(s0)
 1558 0264 B707000C 		li	a5,201326592
 1559 0268 630EF710 		beq	a4,a5,.L55
 604:../Firmware/GD32VW55x_standard_peripheral/Source/gd32vw55x_qspi.c ****                 }
 1560              		.loc 1 604 21
 1561 026c B7670240 		li	a5,1073897472
 1562 0270 93878781 		addi	a5,a5,-2024
 604:../Firmware/GD32VW55x_standard_peripheral/Source/gd32vw55x_qspi.c ****                 }
 1563              		.loc 1 604 36
 1564 0274 0327C4FE 		lw	a4,-20(s0)
 1565 0278 184B     		lw	a4,16(a4)
 604:../Firmware/GD32VW55x_standard_peripheral/Source/gd32vw55x_qspi.c ****                 }
 1566              		.loc 1 604 31
 1567 027a 98C3     		sw	a4,0(a5)
 1568              		.loc 1 636 1
 1569 027c 21A2     		j	.L55
 1570              	.L53:
 609:../Firmware/GD32VW55x_standard_peripheral/Source/gd32vw55x_qspi.c ****                             cmd->altebytes_mode | cmd->altebytes_size |
 1571              		.loc 1 609 32
 1572 027e 8327C4FE 		lw	a5,-20(s0)
 1573 0282 D853     		lw	a4,36(a5)
 609:../Firmware/GD32VW55x_standard_peripheral/Source/gd32vw55x_qspi.c ****                             cmd->altebytes_mode | cmd->altebytes_size |
 1574              		.loc 1 609 50
 1575 0284 8327C4FE 		lw	a5,-20(s0)
 1576 0288 9C53     		lw	a5,32(a5)
 609:../Firmware/GD32VW55x_standard_peripheral/Source/gd32vw55x_qspi.c ****                             cmd->altebytes_mode | cmd->altebytes_size |
 1577              		.loc 1 609 64
 1578 028a CA07     		slli	a5,a5,18
 609:../Firmware/GD32VW55x_standard_peripheral/Source/gd32vw55x_qspi.c ****                             cmd->altebytes_mode | cmd->altebytes_size |
 1579              		.loc 1 609 44
 1580 028c 5D8F     		or	a4,a4,a5
 609:../Firmware/GD32VW55x_standard_peripheral/Source/gd32vw55x_qspi.c ****                             cmd->altebytes_mode | cmd->altebytes_size |
 1581              		.loc 1 609 91
 1582 028e 8327C4FE 		lw	a5,-20(s0)
 1583 0292 DC57     		lw	a5,44(a5)
 609:../Firmware/GD32VW55x_standard_peripheral/Source/gd32vw55x_qspi.c ****                             cmd->altebytes_mode | cmd->altebytes_size |
 1584              		.loc 1 609 86
 1585 0294 5D8F     		or	a4,a4,a5
 610:../Firmware/GD32VW55x_standard_peripheral/Source/gd32vw55x_qspi.c ****                             cmd->addr_mode | cmd->instruction_mode | functionalmode;
 1586              		.loc 1 610 32
 1587 0296 8327C4FE 		lw	a5,-20(s0)
 1588 029a DC4B     		lw	a5,20(a5)
 609:../Firmware/GD32VW55x_standard_peripheral/Source/gd32vw55x_qspi.c ****                             cmd->altebytes_mode | cmd->altebytes_size |
 1589              		.loc 1 609 103
 1590 029c 5D8F     		or	a4,a4,a5
 610:../Firmware/GD32VW55x_standard_peripheral/Source/gd32vw55x_qspi.c ****                             cmd->addr_mode | cmd->instruction_mode | functionalmode;
 1591              		.loc 1 610 54
 1592 029e 8327C4FE 		lw	a5,-20(s0)
 1593 02a2 9C4F     		lw	a5,24(a5)
 610:../Firmware/GD32VW55x_standard_peripheral/Source/gd32vw55x_qspi.c ****                             cmd->addr_mode | cmd->instruction_mode | functionalmode;
 1594              		.loc 1 610 49
 1595 02a4 5D8F     		or	a4,a4,a5
 611:../Firmware/GD32VW55x_standard_peripheral/Source/gd32vw55x_qspi.c ****             }
 1596              		.loc 1 611 32
 1597 02a6 8327C4FE 		lw	a5,-20(s0)
 1598 02aa 9C47     		lw	a5,8(a5)
 610:../Firmware/GD32VW55x_standard_peripheral/Source/gd32vw55x_qspi.c ****                             cmd->addr_mode | cmd->instruction_mode | functionalmode;
 1599              		.loc 1 610 71
 1600 02ac 5D8F     		or	a4,a4,a5
 611:../Firmware/GD32VW55x_standard_peripheral/Source/gd32vw55x_qspi.c ****             }
 1601              		.loc 1 611 49
 1602 02ae 8327C4FE 		lw	a5,-20(s0)
 1603 02b2 9C43     		lw	a5,0(a5)
 611:../Firmware/GD32VW55x_standard_peripheral/Source/gd32vw55x_qspi.c ****             }
 1604              		.loc 1 611 44
 1605 02b4 B366F700 		or	a3,a4,a5
 609:../Firmware/GD32VW55x_standard_peripheral/Source/gd32vw55x_qspi.c ****                             cmd->altebytes_mode | cmd->altebytes_size |
 1606              		.loc 1 609 17
 1607 02b8 B7670240 		li	a5,1073897472
 1608 02bc 93874781 		addi	a5,a5,-2028
 611:../Firmware/GD32VW55x_standard_peripheral/Source/gd32vw55x_qspi.c ****             }
 1609              		.loc 1 611 68
 1610 02c0 032784FE 		lw	a4,-24(s0)
 1611 02c4 558F     		or	a4,a3,a4
 609:../Firmware/GD32VW55x_standard_peripheral/Source/gd32vw55x_qspi.c ****                             cmd->altebytes_mode | cmd->altebytes_size |
 1612              		.loc 1 609 27
 1613 02c6 98C3     		sw	a4,0(a5)
 1614              		.loc 1 636 1
 1615 02c8 75A8     		j	.L55
 1616              	.L52:
 614:../Firmware/GD32VW55x_standard_peripheral/Source/gd32vw55x_qspi.c ****                 /* command with only address */
 1617              		.loc 1 614 19
 1618 02ca 8327C4FE 		lw	a5,-20(s0)
 1619 02ce 9C47     		lw	a5,8(a5)
 614:../Firmware/GD32VW55x_standard_peripheral/Source/gd32vw55x_qspi.c ****                 /* command with only address */
 1620              		.loc 1 614 15
 1621 02d0 ADC7     		beq	a5,zero,.L54
 617:../Firmware/GD32VW55x_standard_peripheral/Source/gd32vw55x_qspi.c ****                             cmd->altebytes_mode | cmd->addr_size |
 1622              		.loc 1 617 32
 1623 02d2 8327C4FE 		lw	a5,-20(s0)
 1624 02d6 D853     		lw	a4,36(a5)
 617:../Firmware/GD32VW55x_standard_peripheral/Source/gd32vw55x_qspi.c ****                             cmd->altebytes_mode | cmd->addr_size |
 1625              		.loc 1 617 50
 1626 02d8 8327C4FE 		lw	a5,-20(s0)
 1627 02dc 9C53     		lw	a5,32(a5)
 617:../Firmware/GD32VW55x_standard_peripheral/Source/gd32vw55x_qspi.c ****                             cmd->altebytes_mode | cmd->addr_size |
 1628              		.loc 1 617 64
 1629 02de CA07     		slli	a5,a5,18
 617:../Firmware/GD32VW55x_standard_peripheral/Source/gd32vw55x_qspi.c ****                             cmd->altebytes_mode | cmd->addr_size |
 1630              		.loc 1 617 44
 1631 02e0 5D8F     		or	a4,a4,a5
 617:../Firmware/GD32VW55x_standard_peripheral/Source/gd32vw55x_qspi.c ****                             cmd->altebytes_mode | cmd->addr_size |
 1632              		.loc 1 617 91
 1633 02e2 8327C4FE 		lw	a5,-20(s0)
 1634 02e6 DC57     		lw	a5,44(a5)
 617:../Firmware/GD32VW55x_standard_peripheral/Source/gd32vw55x_qspi.c ****                             cmd->altebytes_mode | cmd->addr_size |
 1635              		.loc 1 617 86
 1636 02e8 5D8F     		or	a4,a4,a5
 618:../Firmware/GD32VW55x_standard_peripheral/Source/gd32vw55x_qspi.c ****                             cmd->addr_mode | cmd->instruction_mode | functionalmode;
 1637              		.loc 1 618 32
 1638 02ea 8327C4FE 		lw	a5,-20(s0)
 1639 02ee DC4B     		lw	a5,20(a5)
 617:../Firmware/GD32VW55x_standard_peripheral/Source/gd32vw55x_qspi.c ****                             cmd->altebytes_mode | cmd->addr_size |
 1640              		.loc 1 617 103
 1641 02f0 5D8F     		or	a4,a4,a5
 618:../Firmware/GD32VW55x_standard_peripheral/Source/gd32vw55x_qspi.c ****                             cmd->addr_mode | cmd->instruction_mode | functionalmode;
 1642              		.loc 1 618 54
 1643 02f2 8327C4FE 		lw	a5,-20(s0)
 1644 02f6 DC47     		lw	a5,12(a5)
 618:../Firmware/GD32VW55x_standard_peripheral/Source/gd32vw55x_qspi.c ****                             cmd->addr_mode | cmd->instruction_mode | functionalmode;
 1645              		.loc 1 618 49
 1646 02f8 5D8F     		or	a4,a4,a5
 619:../Firmware/GD32VW55x_standard_peripheral/Source/gd32vw55x_qspi.c **** 
 1647              		.loc 1 619 32
 1648 02fa 8327C4FE 		lw	a5,-20(s0)
 1649 02fe 9C47     		lw	a5,8(a5)
 618:../Firmware/GD32VW55x_standard_peripheral/Source/gd32vw55x_qspi.c ****                             cmd->addr_mode | cmd->instruction_mode | functionalmode;
 1650              		.loc 1 618 66
 1651 0300 5D8F     		or	a4,a4,a5
 619:../Firmware/GD32VW55x_standard_peripheral/Source/gd32vw55x_qspi.c **** 
 1652              		.loc 1 619 49
 1653 0302 8327C4FE 		lw	a5,-20(s0)
 1654 0306 9C43     		lw	a5,0(a5)
 619:../Firmware/GD32VW55x_standard_peripheral/Source/gd32vw55x_qspi.c **** 
 1655              		.loc 1 619 44
 1656 0308 B366F700 		or	a3,a4,a5
 617:../Firmware/GD32VW55x_standard_peripheral/Source/gd32vw55x_qspi.c ****                             cmd->altebytes_mode | cmd->addr_size |
 1657              		.loc 1 617 17
 1658 030c B7670240 		li	a5,1073897472
 1659 0310 93874781 		addi	a5,a5,-2028
 619:../Firmware/GD32VW55x_standard_peripheral/Source/gd32vw55x_qspi.c **** 
 1660              		.loc 1 619 68
 1661 0314 032784FE 		lw	a4,-24(s0)
 1662 0318 558F     		or	a4,a3,a4
 617:../Firmware/GD32VW55x_standard_peripheral/Source/gd32vw55x_qspi.c ****                             cmd->altebytes_mode | cmd->addr_size |
 1663              		.loc 1 617 27
 1664 031a 98C3     		sw	a4,0(a5)
 621:../Firmware/GD32VW55x_standard_peripheral/Source/gd32vw55x_qspi.c ****                     /* configure QSPI_ADDR register with address value */
 1665              		.loc 1 621 19
 1666 031c 032784FE 		lw	a4,-24(s0)
 1667 0320 B707000C 		li	a5,201326592
 1668 0324 6300F706 		beq	a4,a5,.L55
 623:../Firmware/GD32VW55x_standard_peripheral/Source/gd32vw55x_qspi.c ****                 }
 1669              		.loc 1 623 21
 1670 0328 B7670240 		li	a5,1073897472
 1671 032c 93878781 		addi	a5,a5,-2024
 623:../Firmware/GD32VW55x_standard_peripheral/Source/gd32vw55x_qspi.c ****                 }
 1672              		.loc 1 623 36
 1673 0330 0327C4FE 		lw	a4,-20(s0)
 1674 0334 184B     		lw	a4,16(a4)
 623:../Firmware/GD32VW55x_standard_peripheral/Source/gd32vw55x_qspi.c ****                 }
 1675              		.loc 1 623 31
 1676 0336 98C3     		sw	a4,0(a5)
 1677              		.loc 1 636 1
 1678 0338 B1A0     		j	.L55
 1679              	.L54:
 627:../Firmware/GD32VW55x_standard_peripheral/Source/gd32vw55x_qspi.c ****                     /* configure QSPI_TCFG register with all communications parameters */
 1680              		.loc 1 627 23
 1681 033a 8327C4FE 		lw	a5,-20(s0)
 1682 033e DC53     		lw	a5,36(a5)
 627:../Firmware/GD32VW55x_standard_peripheral/Source/gd32vw55x_qspi.c ****                     /* configure QSPI_TCFG register with all communications parameters */
 1683              		.loc 1 627 19
 1684 0340 B1C3     		beq	a5,zero,.L55
 629:../Firmware/GD32VW55x_standard_peripheral/Source/gd32vw55x_qspi.c ****                                 cmd->altebytes_mode | cmd->addr_mode |
 1685              		.loc 1 629 36
 1686 0342 8327C4FE 		lw	a5,-20(s0)
 1687 0346 D853     		lw	a4,36(a5)
 629:../Firmware/GD32VW55x_standard_peripheral/Source/gd32vw55x_qspi.c ****                                 cmd->altebytes_mode | cmd->addr_mode |
 1688              		.loc 1 629 54
 1689 0348 8327C4FE 		lw	a5,-20(s0)
 1690 034c 9C53     		lw	a5,32(a5)
 629:../Firmware/GD32VW55x_standard_peripheral/Source/gd32vw55x_qspi.c ****                                 cmd->altebytes_mode | cmd->addr_mode |
 1691              		.loc 1 629 68
 1692 034e CA07     		slli	a5,a5,18
 629:../Firmware/GD32VW55x_standard_peripheral/Source/gd32vw55x_qspi.c ****                                 cmd->altebytes_mode | cmd->addr_mode |
 1693              		.loc 1 629 48
 1694 0350 5D8F     		or	a4,a4,a5
 629:../Firmware/GD32VW55x_standard_peripheral/Source/gd32vw55x_qspi.c ****                                 cmd->altebytes_mode | cmd->addr_mode |
 1695              		.loc 1 629 95
 1696 0352 8327C4FE 		lw	a5,-20(s0)
 1697 0356 DC57     		lw	a5,44(a5)
 629:../Firmware/GD32VW55x_standard_peripheral/Source/gd32vw55x_qspi.c ****                                 cmd->altebytes_mode | cmd->addr_mode |
 1698              		.loc 1 629 90
 1699 0358 5D8F     		or	a4,a4,a5
 630:../Firmware/GD32VW55x_standard_peripheral/Source/gd32vw55x_qspi.c ****                                 cmd->instruction_mode | functionalmode;
 1700              		.loc 1 630 36
 1701 035a 8327C4FE 		lw	a5,-20(s0)
 1702 035e DC4B     		lw	a5,20(a5)
 629:../Firmware/GD32VW55x_standard_peripheral/Source/gd32vw55x_qspi.c ****                                 cmd->altebytes_mode | cmd->addr_mode |
 1703              		.loc 1 629 107
 1704 0360 5D8F     		or	a4,a4,a5
 630:../Firmware/GD32VW55x_standard_peripheral/Source/gd32vw55x_qspi.c ****                                 cmd->instruction_mode | functionalmode;
 1705              		.loc 1 630 58
 1706 0362 8327C4FE 		lw	a5,-20(s0)
 1707 0366 9C47     		lw	a5,8(a5)
 630:../Firmware/GD32VW55x_standard_peripheral/Source/gd32vw55x_qspi.c ****                                 cmd->instruction_mode | functionalmode;
 1708              		.loc 1 630 53
 1709 0368 5D8F     		or	a4,a4,a5
 631:../Firmware/GD32VW55x_standard_peripheral/Source/gd32vw55x_qspi.c ****                 }
 1710              		.loc 1 631 36
 1711 036a 8327C4FE 		lw	a5,-20(s0)
 1712 036e 9C43     		lw	a5,0(a5)
 630:../Firmware/GD32VW55x_standard_peripheral/Source/gd32vw55x_qspi.c ****                                 cmd->instruction_mode | functionalmode;
 1713              		.loc 1 630 70
 1714 0370 B366F700 		or	a3,a4,a5
 629:../Firmware/GD32VW55x_standard_peripheral/Source/gd32vw55x_qspi.c ****                                 cmd->altebytes_mode | cmd->addr_mode |
 1715              		.loc 1 629 21
 1716 0374 B7670240 		li	a5,1073897472
 1717 0378 93874781 		addi	a5,a5,-2028
 631:../Firmware/GD32VW55x_standard_peripheral/Source/gd32vw55x_qspi.c ****                 }
 1718              		.loc 1 631 55
 1719 037c 032784FE 		lw	a4,-24(s0)
 1720 0380 558F     		or	a4,a3,a4
 629:../Firmware/GD32VW55x_standard_peripheral/Source/gd32vw55x_qspi.c ****                                 cmd->altebytes_mode | cmd->addr_mode |
 1721              		.loc 1 629 31
 1722 0382 98C3     		sw	a4,0(a5)
 1723              	.L55:
 1724              		.loc 1 636 1
 1725 0384 0100     		nop
 1726 0386 7244     		lw	s0,28(sp)
 1727              		.cfi_restore 8
 1728              		.cfi_def_cfa 2, 32
 1729 0388 0561     		addi	sp,sp,32
 1730              		.cfi_def_cfa_offset 0
 1731 038a 8280     		jr	ra
 1732              		.cfi_endproc
 1733              	.LFE368:
 1735              		.text
 1736              	.Letext0:
 1737              		.file 2 "e:\\gd32\\gd32embeddedbuilder_v1.5.2.30854\\tools\\nuclei_riscv_newlibc_prebuilt_win32_20
 1738              		.file 3 "e:\\gd32\\gd32embeddedbuilder_v1.5.2.30854\\tools\\nuclei_riscv_newlibc_prebuilt_win32_20
 1739              		.file 4 "../Firmware/GD32VW55x_standard_peripheral/gd32vw55x.h"
 1740              		.file 5 "../Firmware/GD32VW55x_standard_peripheral/Include/gd32vw55x_rcu.h"
 1741              		.file 6 "../Firmware/GD32VW55x_standard_peripheral/Include/gd32vw55x_qspi.h"