   1              		.file	"gd32vw55x_pmu.c"
   2              		.option nopic
   3              		.attribute arch, "rv32i2p0_m2p0_a2p0_c2p0"
   4              		.attribute unaligned_access, 0
   5              		.attribute stack_align, 16
   6              		.text
   7              	.Ltext0:
   8              		.cfi_sections	.debug_frame
   9              		.section	.text.pmu_deinit,"ax",@progbits
  10              		.align	1
  11              		.globl	pmu_deinit
  13              	pmu_deinit:
  14              	.LFB347:
  15              		.file 1 "../Firmware/GD32VW55x_standard_peripheral/Source/gd32vw55x_pmu.c"
   1:../Firmware/GD32VW55x_standard_peripheral/Source/gd32vw55x_pmu.c **** /*!
   2:../Firmware/GD32VW55x_standard_peripheral/Source/gd32vw55x_pmu.c ****     \file    gd32vw55x_pmu.c
   3:../Firmware/GD32VW55x_standard_peripheral/Source/gd32vw55x_pmu.c ****     \brief   PMU driver
   4:../Firmware/GD32VW55x_standard_peripheral/Source/gd32vw55x_pmu.c **** 
   5:../Firmware/GD32VW55x_standard_peripheral/Source/gd32vw55x_pmu.c ****     \version 2025-01-16, V1.4.0, firmware for GD32VW55x
   6:../Firmware/GD32VW55x_standard_peripheral/Source/gd32vw55x_pmu.c **** */
   7:../Firmware/GD32VW55x_standard_peripheral/Source/gd32vw55x_pmu.c **** 
   8:../Firmware/GD32VW55x_standard_peripheral/Source/gd32vw55x_pmu.c **** /*
   9:../Firmware/GD32VW55x_standard_peripheral/Source/gd32vw55x_pmu.c ****     Copyright (c) 2025, GigaDevice Semiconductor Inc.
  10:../Firmware/GD32VW55x_standard_peripheral/Source/gd32vw55x_pmu.c **** 
  11:../Firmware/GD32VW55x_standard_peripheral/Source/gd32vw55x_pmu.c ****     Redistribution and use in source and binary forms, with or without modification,
  12:../Firmware/GD32VW55x_standard_peripheral/Source/gd32vw55x_pmu.c **** are permitted provided that the following conditions are met:
  13:../Firmware/GD32VW55x_standard_peripheral/Source/gd32vw55x_pmu.c **** 
  14:../Firmware/GD32VW55x_standard_peripheral/Source/gd32vw55x_pmu.c ****     1. Redistributions of source code must retain the above copyright notice, this
  15:../Firmware/GD32VW55x_standard_peripheral/Source/gd32vw55x_pmu.c ****        list of conditions and the following disclaimer.
  16:../Firmware/GD32VW55x_standard_peripheral/Source/gd32vw55x_pmu.c ****     2. Redistributions in binary form must reproduce the above copyright notice,
  17:../Firmware/GD32VW55x_standard_peripheral/Source/gd32vw55x_pmu.c ****        this list of conditions and the following disclaimer in the documentation
  18:../Firmware/GD32VW55x_standard_peripheral/Source/gd32vw55x_pmu.c ****        and/or other materials provided with the distribution.
  19:../Firmware/GD32VW55x_standard_peripheral/Source/gd32vw55x_pmu.c ****     3. Neither the name of the copyright holder nor the names of its contributors
  20:../Firmware/GD32VW55x_standard_peripheral/Source/gd32vw55x_pmu.c ****        may be used to endorse or promote products derived from this software without
  21:../Firmware/GD32VW55x_standard_peripheral/Source/gd32vw55x_pmu.c ****        specific prior written permission.
  22:../Firmware/GD32VW55x_standard_peripheral/Source/gd32vw55x_pmu.c **** 
  23:../Firmware/GD32VW55x_standard_peripheral/Source/gd32vw55x_pmu.c ****     THIS SOFTWARE IS PROVIDED BY THE COPYRIGHT HOLDERS AND CONTRIBUTORS "AS IS"
  24:../Firmware/GD32VW55x_standard_peripheral/Source/gd32vw55x_pmu.c **** AND ANY EXPRESS OR IMPLIED WARRANTIES, INCLUDING, BUT NOT LIMITED TO, THE IMPLIED
  25:../Firmware/GD32VW55x_standard_peripheral/Source/gd32vw55x_pmu.c **** WARRANTIES OF MERCHANTABILITY AND FITNESS FOR A PARTICULAR PURPOSE ARE DISCLAIMED.
  26:../Firmware/GD32VW55x_standard_peripheral/Source/gd32vw55x_pmu.c **** IN NO EVENT SHALL THE COPYRIGHT HOLDER OR CONTRIBUTORS BE LIABLE FOR ANY DIRECT,
  27:../Firmware/GD32VW55x_standard_peripheral/Source/gd32vw55x_pmu.c **** INDIRECT, INCIDENTAL, SPECIAL, EXEMPLARY, OR CONSEQUENTIAL DAMAGES (INCLUDING, BUT
  28:../Firmware/GD32VW55x_standard_peripheral/Source/gd32vw55x_pmu.c **** NOT LIMITED TO, PROCUREMENT OF SUBSTITUTE GOODS OR SERVICES; LOSS OF USE, DATA, OR
  29:../Firmware/GD32VW55x_standard_peripheral/Source/gd32vw55x_pmu.c **** PROFITS; OR BUSINESS INTERRUPTION) HOWEVER CAUSED AND ON ANY THEORY OF LIABILITY,
  30:../Firmware/GD32VW55x_standard_peripheral/Source/gd32vw55x_pmu.c **** WHETHER IN CONTRACT, STRICT LIABILITY, OR TORT (INCLUDING NEGLIGENCE OR OTHERWISE)
  31:../Firmware/GD32VW55x_standard_peripheral/Source/gd32vw55x_pmu.c **** ARISING IN ANY WAY OUT OF THE USE OF THIS SOFTWARE, EVEN IF ADVISED OF THE POSSIBILITY
  32:../Firmware/GD32VW55x_standard_peripheral/Source/gd32vw55x_pmu.c **** OF SUCH DAMAGE.
  33:../Firmware/GD32VW55x_standard_peripheral/Source/gd32vw55x_pmu.c **** */
  34:../Firmware/GD32VW55x_standard_peripheral/Source/gd32vw55x_pmu.c **** 
  35:../Firmware/GD32VW55x_standard_peripheral/Source/gd32vw55x_pmu.c **** #include "gd32vw55x_pmu.h"
  36:../Firmware/GD32VW55x_standard_peripheral/Source/gd32vw55x_pmu.c **** 
  37:../Firmware/GD32VW55x_standard_peripheral/Source/gd32vw55x_pmu.c **** /*!
  38:../Firmware/GD32VW55x_standard_peripheral/Source/gd32vw55x_pmu.c ****     \brief      reset PMU register
  39:../Firmware/GD32VW55x_standard_peripheral/Source/gd32vw55x_pmu.c ****     \param[in]  none
  40:../Firmware/GD32VW55x_standard_peripheral/Source/gd32vw55x_pmu.c ****     \param[out] none
  41:../Firmware/GD32VW55x_standard_peripheral/Source/gd32vw55x_pmu.c ****     \retval     none
  42:../Firmware/GD32VW55x_standard_peripheral/Source/gd32vw55x_pmu.c **** */
  43:../Firmware/GD32VW55x_standard_peripheral/Source/gd32vw55x_pmu.c **** void pmu_deinit(void)
  44:../Firmware/GD32VW55x_standard_peripheral/Source/gd32vw55x_pmu.c **** {
  16              		.loc 1 44 1
  17              		.cfi_startproc
  18 0000 4111     		addi	sp,sp,-16
  19              		.cfi_def_cfa_offset 16
  20 0002 06C6     		sw	ra,12(sp)
  21 0004 22C4     		sw	s0,8(sp)
  22              		.cfi_offset 1, -4
  23              		.cfi_offset 8, -8
  24 0006 0008     		addi	s0,sp,16
  25              		.cfi_def_cfa 8, 0
  45:../Firmware/GD32VW55x_standard_peripheral/Source/gd32vw55x_pmu.c ****     /* reset PMU */
  46:../Firmware/GD32VW55x_standard_peripheral/Source/gd32vw55x_pmu.c ****     rcu_periph_reset_enable(RCU_PMURST);
  26              		.loc 1 46 5
  27 0008 8567     		li	a5,4096
  28 000a 1385C781 		addi	a0,a5,-2020
  29 000e 97000000 		call	rcu_periph_reset_enable
  29      E7800000 
  47:../Firmware/GD32VW55x_standard_peripheral/Source/gd32vw55x_pmu.c ****     rcu_periph_reset_disable(RCU_PMURST);
  30              		.loc 1 47 5
  31 0016 8567     		li	a5,4096
  32 0018 1385C781 		addi	a0,a5,-2020
  33 001c 97000000 		call	rcu_periph_reset_disable
  33      E7800000 
  48:../Firmware/GD32VW55x_standard_peripheral/Source/gd32vw55x_pmu.c **** }
  34              		.loc 1 48 1
  35 0024 0100     		nop
  36 0026 B240     		lw	ra,12(sp)
  37              		.cfi_restore 1
  38 0028 2244     		lw	s0,8(sp)
  39              		.cfi_restore 8
  40              		.cfi_def_cfa 2, 16
  41 002a 4101     		addi	sp,sp,16
  42              		.cfi_def_cfa_offset 0
  43 002c 8280     		jr	ra
  44              		.cfi_endproc
  45              	.LFE347:
  47              		.section	.text.pmu_lvd_select,"ax",@progbits
  48              		.align	1
  49              		.globl	pmu_lvd_select
  51              	pmu_lvd_select:
  52              	.LFB348:
  49:../Firmware/GD32VW55x_standard_peripheral/Source/gd32vw55x_pmu.c **** 
  50:../Firmware/GD32VW55x_standard_peripheral/Source/gd32vw55x_pmu.c **** /*!
  51:../Firmware/GD32VW55x_standard_peripheral/Source/gd32vw55x_pmu.c ****     \brief      select low voltage detector threshold
  52:../Firmware/GD32VW55x_standard_peripheral/Source/gd32vw55x_pmu.c ****     \param[in]  lvdt_n:
  53:../Firmware/GD32VW55x_standard_peripheral/Source/gd32vw55x_pmu.c ****                 only one parameter can be selected which is shown as below:
  54:../Firmware/GD32VW55x_standard_peripheral/Source/gd32vw55x_pmu.c ****       \arg        PMU_LVDT_0: voltage threshold is 2.1V
  55:../Firmware/GD32VW55x_standard_peripheral/Source/gd32vw55x_pmu.c ****       \arg        PMU_LVDT_1: voltage threshold is 2.3V
  56:../Firmware/GD32VW55x_standard_peripheral/Source/gd32vw55x_pmu.c ****       \arg        PMU_LVDT_2: voltage threshold is 2.4V
  57:../Firmware/GD32VW55x_standard_peripheral/Source/gd32vw55x_pmu.c ****       \arg        PMU_LVDT_3: voltage threshold is 2.6V
  58:../Firmware/GD32VW55x_standard_peripheral/Source/gd32vw55x_pmu.c ****       \arg        PMU_LVDT_4: voltage threshold is 2.7V
  59:../Firmware/GD32VW55x_standard_peripheral/Source/gd32vw55x_pmu.c ****       \arg        PMU_LVDT_5: voltage threshold is 2.9V
  60:../Firmware/GD32VW55x_standard_peripheral/Source/gd32vw55x_pmu.c ****       \arg        PMU_LVDT_6: voltage threshold is 3.0V
  61:../Firmware/GD32VW55x_standard_peripheral/Source/gd32vw55x_pmu.c ****       \arg        PMU_LVDT_7: voltage threshold is 3.1V
  62:../Firmware/GD32VW55x_standard_peripheral/Source/gd32vw55x_pmu.c ****     \param[out] none
  63:../Firmware/GD32VW55x_standard_peripheral/Source/gd32vw55x_pmu.c ****     \retval     none
  64:../Firmware/GD32VW55x_standard_peripheral/Source/gd32vw55x_pmu.c **** */
  65:../Firmware/GD32VW55x_standard_peripheral/Source/gd32vw55x_pmu.c **** void pmu_lvd_select(uint32_t lvdt_n)
  66:../Firmware/GD32VW55x_standard_peripheral/Source/gd32vw55x_pmu.c **** {
  53              		.loc 1 66 1
  54              		.cfi_startproc
  55 0000 0111     		addi	sp,sp,-32
  56              		.cfi_def_cfa_offset 32
  57 0002 22CE     		sw	s0,28(sp)
  58              		.cfi_offset 8, -4
  59 0004 0010     		addi	s0,sp,32
  60              		.cfi_def_cfa 8, 0
  61 0006 2326A4FE 		sw	a0,-20(s0)
  67:../Firmware/GD32VW55x_standard_peripheral/Source/gd32vw55x_pmu.c ****     /* disable LVD */
  68:../Firmware/GD32VW55x_standard_peripheral/Source/gd32vw55x_pmu.c ****     PMU_CTL0 &= ~PMU_CTL0_LVDEN;
  62              		.loc 1 68 14
  63 000a B7770040 		li	a5,1073770496
  64 000e 9843     		lw	a4,0(a5)
  65 0010 B7770040 		li	a5,1073770496
  66 0014 3D9B     		andi	a4,a4,-17
  67 0016 98C3     		sw	a4,0(a5)
  69:../Firmware/GD32VW55x_standard_peripheral/Source/gd32vw55x_pmu.c ****     /* clear LVDT bits */
  70:../Firmware/GD32VW55x_standard_peripheral/Source/gd32vw55x_pmu.c ****     PMU_CTL0 &= ~PMU_CTL0_LVDT;
  68              		.loc 1 70 14
  69 0018 B7770040 		li	a5,1073770496
  70 001c 9843     		lw	a4,0(a5)
  71 001e B7770040 		li	a5,1073770496
  72 0022 1377F7F1 		andi	a4,a4,-225
  73 0026 98C3     		sw	a4,0(a5)
  71:../Firmware/GD32VW55x_standard_peripheral/Source/gd32vw55x_pmu.c ****     /* set LVDT bits according to lvdt_n */
  72:../Firmware/GD32VW55x_standard_peripheral/Source/gd32vw55x_pmu.c ****     PMU_CTL0 |= lvdt_n;
  74              		.loc 1 72 14
  75 0028 B7770040 		li	a5,1073770496
  76 002c 9443     		lw	a3,0(a5)
  77 002e B7770040 		li	a5,1073770496
  78 0032 0327C4FE 		lw	a4,-20(s0)
  79 0036 558F     		or	a4,a3,a4
  80 0038 98C3     		sw	a4,0(a5)
  73:../Firmware/GD32VW55x_standard_peripheral/Source/gd32vw55x_pmu.c ****     /* enable LVD */
  74:../Firmware/GD32VW55x_standard_peripheral/Source/gd32vw55x_pmu.c ****     PMU_CTL0 |= PMU_CTL0_LVDEN;
  81              		.loc 1 74 14
  82 003a B7770040 		li	a5,1073770496
  83 003e 9843     		lw	a4,0(a5)
  84 0040 B7770040 		li	a5,1073770496
  85 0044 13670701 		ori	a4,a4,16
  86 0048 98C3     		sw	a4,0(a5)
  75:../Firmware/GD32VW55x_standard_peripheral/Source/gd32vw55x_pmu.c **** }
  87              		.loc 1 75 1
  88 004a 0100     		nop
  89 004c 7244     		lw	s0,28(sp)
  90              		.cfi_restore 8
  91              		.cfi_def_cfa 2, 32
  92 004e 0561     		addi	sp,sp,32
  93              		.cfi_def_cfa_offset 0
  94 0050 8280     		jr	ra
  95              		.cfi_endproc
  96              	.LFE348:
  98              		.section	.text.pmu_lvd_enable,"ax",@progbits
  99              		.align	1
 100              		.globl	pmu_lvd_enable
 102              	pmu_lvd_enable:
 103              	.LFB349:
  76:../Firmware/GD32VW55x_standard_peripheral/Source/gd32vw55x_pmu.c **** 
  77:../Firmware/GD32VW55x_standard_peripheral/Source/gd32vw55x_pmu.c **** /*!
  78:../Firmware/GD32VW55x_standard_peripheral/Source/gd32vw55x_pmu.c ****     \brief      enable PMU LVD
  79:../Firmware/GD32VW55x_standard_peripheral/Source/gd32vw55x_pmu.c ****     \param[in]  none
  80:../Firmware/GD32VW55x_standard_peripheral/Source/gd32vw55x_pmu.c ****     \param[out] none
  81:../Firmware/GD32VW55x_standard_peripheral/Source/gd32vw55x_pmu.c ****     \retval     none
  82:../Firmware/GD32VW55x_standard_peripheral/Source/gd32vw55x_pmu.c **** */
  83:../Firmware/GD32VW55x_standard_peripheral/Source/gd32vw55x_pmu.c **** void pmu_lvd_enable(void)
  84:../Firmware/GD32VW55x_standard_peripheral/Source/gd32vw55x_pmu.c **** {
 104              		.loc 1 84 1
 105              		.cfi_startproc
 106 0000 4111     		addi	sp,sp,-16
 107              		.cfi_def_cfa_offset 16
 108 0002 22C6     		sw	s0,12(sp)
 109              		.cfi_offset 8, -4
 110 0004 0008     		addi	s0,sp,16
 111              		.cfi_def_cfa 8, 0
  85:../Firmware/GD32VW55x_standard_peripheral/Source/gd32vw55x_pmu.c ****     PMU_CTL0 |= PMU_CTL0_LVDEN;
 112              		.loc 1 85 14
 113 0006 B7770040 		li	a5,1073770496
 114 000a 9843     		lw	a4,0(a5)
 115 000c B7770040 		li	a5,1073770496
 116 0010 13670701 		ori	a4,a4,16
 117 0014 98C3     		sw	a4,0(a5)
  86:../Firmware/GD32VW55x_standard_peripheral/Source/gd32vw55x_pmu.c **** }
 118              		.loc 1 86 1
 119 0016 0100     		nop
 120 0018 3244     		lw	s0,12(sp)
 121              		.cfi_restore 8
 122              		.cfi_def_cfa 2, 16
 123 001a 4101     		addi	sp,sp,16
 124              		.cfi_def_cfa_offset 0
 125 001c 8280     		jr	ra
 126              		.cfi_endproc
 127              	.LFE349:
 129              		.section	.text.pmu_lvd_disable,"ax",@progbits
 130              		.align	1
 131              		.globl	pmu_lvd_disable
 133              	pmu_lvd_disable:
 134              	.LFB350:
  87:../Firmware/GD32VW55x_standard_peripheral/Source/gd32vw55x_pmu.c **** 
  88:../Firmware/GD32VW55x_standard_peripheral/Source/gd32vw55x_pmu.c **** /*!
  89:../Firmware/GD32VW55x_standard_peripheral/Source/gd32vw55x_pmu.c ****     \brief      disable PMU LVD
  90:../Firmware/GD32VW55x_standard_peripheral/Source/gd32vw55x_pmu.c ****     \param[in]  none
  91:../Firmware/GD32VW55x_standard_peripheral/Source/gd32vw55x_pmu.c ****     \param[out] none
  92:../Firmware/GD32VW55x_standard_peripheral/Source/gd32vw55x_pmu.c ****     \retval     none
  93:../Firmware/GD32VW55x_standard_peripheral/Source/gd32vw55x_pmu.c **** */
  94:../Firmware/GD32VW55x_standard_peripheral/Source/gd32vw55x_pmu.c **** void pmu_lvd_disable(void)
  95:../Firmware/GD32VW55x_standard_peripheral/Source/gd32vw55x_pmu.c **** {
 135              		.loc 1 95 1
 136              		.cfi_startproc
 137 0000 4111     		addi	sp,sp,-16
 138              		.cfi_def_cfa_offset 16
 139 0002 22C6     		sw	s0,12(sp)
 140              		.cfi_offset 8, -4
 141 0004 0008     		addi	s0,sp,16
 142              		.cfi_def_cfa 8, 0
  96:../Firmware/GD32VW55x_standard_peripheral/Source/gd32vw55x_pmu.c ****     PMU_CTL0 &= ~PMU_CTL0_LVDEN;
 143              		.loc 1 96 14
 144 0006 B7770040 		li	a5,1073770496
 145 000a 9843     		lw	a4,0(a5)
 146 000c B7770040 		li	a5,1073770496
 147 0010 3D9B     		andi	a4,a4,-17
 148 0012 98C3     		sw	a4,0(a5)
  97:../Firmware/GD32VW55x_standard_peripheral/Source/gd32vw55x_pmu.c **** }
 149              		.loc 1 97 1
 150 0014 0100     		nop
 151 0016 3244     		lw	s0,12(sp)
 152              		.cfi_restore 8
 153              		.cfi_def_cfa 2, 16
 154 0018 4101     		addi	sp,sp,16
 155              		.cfi_def_cfa_offset 0
 156 001a 8280     		jr	ra
 157              		.cfi_endproc
 158              	.LFE350:
 160              		.section	.text.pmu_backup_write_enable,"ax",@progbits
 161              		.align	1
 162              		.globl	pmu_backup_write_enable
 164              	pmu_backup_write_enable:
 165              	.LFB351:
  98:../Firmware/GD32VW55x_standard_peripheral/Source/gd32vw55x_pmu.c **** 
  99:../Firmware/GD32VW55x_standard_peripheral/Source/gd32vw55x_pmu.c **** /*!
 100:../Firmware/GD32VW55x_standard_peripheral/Source/gd32vw55x_pmu.c ****     \brief      enable write access to the registers in backup domain
 101:../Firmware/GD32VW55x_standard_peripheral/Source/gd32vw55x_pmu.c ****     \param[in]  none
 102:../Firmware/GD32VW55x_standard_peripheral/Source/gd32vw55x_pmu.c ****     \param[out] none
 103:../Firmware/GD32VW55x_standard_peripheral/Source/gd32vw55x_pmu.c ****     \retval     none
 104:../Firmware/GD32VW55x_standard_peripheral/Source/gd32vw55x_pmu.c **** */
 105:../Firmware/GD32VW55x_standard_peripheral/Source/gd32vw55x_pmu.c **** void pmu_backup_write_enable(void)
 106:../Firmware/GD32VW55x_standard_peripheral/Source/gd32vw55x_pmu.c **** {
 166              		.loc 1 106 1
 167              		.cfi_startproc
 168 0000 4111     		addi	sp,sp,-16
 169              		.cfi_def_cfa_offset 16
 170 0002 22C6     		sw	s0,12(sp)
 171              		.cfi_offset 8, -4
 172 0004 0008     		addi	s0,sp,16
 173              		.cfi_def_cfa 8, 0
 107:../Firmware/GD32VW55x_standard_peripheral/Source/gd32vw55x_pmu.c ****     PMU_CTL0 |= PMU_CTL0_BKPWEN;
 174              		.loc 1 107 14
 175 0006 B7770040 		li	a5,1073770496
 176 000a 9843     		lw	a4,0(a5)
 177 000c B7770040 		li	a5,1073770496
 178 0010 13670710 		ori	a4,a4,256
 179 0014 98C3     		sw	a4,0(a5)
 108:../Firmware/GD32VW55x_standard_peripheral/Source/gd32vw55x_pmu.c **** }
 180              		.loc 1 108 1
 181 0016 0100     		nop
 182 0018 3244     		lw	s0,12(sp)
 183              		.cfi_restore 8
 184              		.cfi_def_cfa 2, 16
 185 001a 4101     		addi	sp,sp,16
 186              		.cfi_def_cfa_offset 0
 187 001c 8280     		jr	ra
 188              		.cfi_endproc
 189              	.LFE351:
 191              		.section	.text.pmu_backup_write_disable,"ax",@progbits
 192              		.align	1
 193              		.globl	pmu_backup_write_disable
 195              	pmu_backup_write_disable:
 196              	.LFB352:
 109:../Firmware/GD32VW55x_standard_peripheral/Source/gd32vw55x_pmu.c **** 
 110:../Firmware/GD32VW55x_standard_peripheral/Source/gd32vw55x_pmu.c **** /*!
 111:../Firmware/GD32VW55x_standard_peripheral/Source/gd32vw55x_pmu.c ****     \brief      disable write access to the registers in backup domain
 112:../Firmware/GD32VW55x_standard_peripheral/Source/gd32vw55x_pmu.c ****     \param[in]  none
 113:../Firmware/GD32VW55x_standard_peripheral/Source/gd32vw55x_pmu.c ****     \param[out] none
 114:../Firmware/GD32VW55x_standard_peripheral/Source/gd32vw55x_pmu.c ****     \retval     none
 115:../Firmware/GD32VW55x_standard_peripheral/Source/gd32vw55x_pmu.c **** */
 116:../Firmware/GD32VW55x_standard_peripheral/Source/gd32vw55x_pmu.c **** void pmu_backup_write_disable(void)
 117:../Firmware/GD32VW55x_standard_peripheral/Source/gd32vw55x_pmu.c **** {
 197              		.loc 1 117 1
 198              		.cfi_startproc
 199 0000 4111     		addi	sp,sp,-16
 200              		.cfi_def_cfa_offset 16
 201 0002 22C6     		sw	s0,12(sp)
 202              		.cfi_offset 8, -4
 203 0004 0008     		addi	s0,sp,16
 204              		.cfi_def_cfa 8, 0
 118:../Firmware/GD32VW55x_standard_peripheral/Source/gd32vw55x_pmu.c ****     PMU_CTL0 &= ~PMU_CTL0_BKPWEN;
 205              		.loc 1 118 14
 206 0006 B7770040 		li	a5,1073770496
 207 000a 9843     		lw	a4,0(a5)
 208 000c B7770040 		li	a5,1073770496
 209 0010 1377F7EF 		andi	a4,a4,-257
 210 0014 98C3     		sw	a4,0(a5)
 119:../Firmware/GD32VW55x_standard_peripheral/Source/gd32vw55x_pmu.c **** }
 211              		.loc 1 119 1
 212 0016 0100     		nop
 213 0018 3244     		lw	s0,12(sp)
 214              		.cfi_restore 8
 215              		.cfi_def_cfa 2, 16
 216 001a 4101     		addi	sp,sp,16
 217              		.cfi_def_cfa_offset 0
 218 001c 8280     		jr	ra
 219              		.cfi_endproc
 220              	.LFE352:
 222              		.section	.text.pmu_to_sleepmode,"ax",@progbits
 223              		.align	1
 224              		.globl	pmu_to_sleepmode
 226              	pmu_to_sleepmode:
 227              	.LFB353:
 120:../Firmware/GD32VW55x_standard_peripheral/Source/gd32vw55x_pmu.c **** 
 121:../Firmware/GD32VW55x_standard_peripheral/Source/gd32vw55x_pmu.c **** 
 122:../Firmware/GD32VW55x_standard_peripheral/Source/gd32vw55x_pmu.c **** /*!
 123:../Firmware/GD32VW55x_standard_peripheral/Source/gd32vw55x_pmu.c ****     \brief      PMU work in sleep mode
 124:../Firmware/GD32VW55x_standard_peripheral/Source/gd32vw55x_pmu.c ****     \param[in]  sleepmodecmd:
 125:../Firmware/GD32VW55x_standard_peripheral/Source/gd32vw55x_pmu.c ****                 only one parameter can be selected which is shown as below:
 126:../Firmware/GD32VW55x_standard_peripheral/Source/gd32vw55x_pmu.c ****       \arg        WFI_CMD: use WFI command
 127:../Firmware/GD32VW55x_standard_peripheral/Source/gd32vw55x_pmu.c ****       \arg        WFE_CMD: use WFE command
 128:../Firmware/GD32VW55x_standard_peripheral/Source/gd32vw55x_pmu.c ****     \param[out] none
 129:../Firmware/GD32VW55x_standard_peripheral/Source/gd32vw55x_pmu.c ****     \retval     none
 130:../Firmware/GD32VW55x_standard_peripheral/Source/gd32vw55x_pmu.c **** */
 131:../Firmware/GD32VW55x_standard_peripheral/Source/gd32vw55x_pmu.c **** void pmu_to_sleepmode(uint8_t sleepmodecmd)
 132:../Firmware/GD32VW55x_standard_peripheral/Source/gd32vw55x_pmu.c **** {
 228              		.loc 1 132 1
 229              		.cfi_startproc
 230 0000 7971     		addi	sp,sp,-48
 231              		.cfi_def_cfa_offset 48
 232 0002 22D6     		sw	s0,44(sp)
 233 0004 26D4     		sw	s1,40(sp)
 234              		.cfi_offset 8, -4
 235              		.cfi_offset 9, -8
 236 0006 0018     		addi	s0,sp,48
 237              		.cfi_def_cfa 8, 0
 238 0008 AA87     		mv	a5,a0
 239 000a A30FF4FC 		sb	a5,-33(s0)
 240 000e 232604FE 		sw	zero,-20(s0)
 241              	.LBB53:
 242              	.LBB54:
 243              	.LBB55:
 244              		.file 2 "../Firmware/RISCV/drivers/core_feature_base.h"
   1:../Firmware/RISCV/drivers/core_feature_base.h **** /*
   2:../Firmware/RISCV/drivers/core_feature_base.h ****  * Copyright (c) 2019 Nuclei Limited. All rights reserved.
   3:../Firmware/RISCV/drivers/core_feature_base.h ****  *
   4:../Firmware/RISCV/drivers/core_feature_base.h ****  * SPDX-License-Identifier: Apache-2.0
   5:../Firmware/RISCV/drivers/core_feature_base.h ****  *
   6:../Firmware/RISCV/drivers/core_feature_base.h ****  * Licensed under the Apache License, Version 2.0 (the License); you may
   7:../Firmware/RISCV/drivers/core_feature_base.h ****  * not use this file except in compliance with the License.
   8:../Firmware/RISCV/drivers/core_feature_base.h ****  * You may obtain a copy of the License at
   9:../Firmware/RISCV/drivers/core_feature_base.h ****  *
  10:../Firmware/RISCV/drivers/core_feature_base.h ****  * www.apache.org/licenses/LICENSE-2.0
  11:../Firmware/RISCV/drivers/core_feature_base.h ****  *
  12:../Firmware/RISCV/drivers/core_feature_base.h ****  * Unless required by applicable law or agreed to in writing, software
  13:../Firmware/RISCV/drivers/core_feature_base.h ****  * distributed under the License is distributed on an AS IS BASIS, WITHOUT
  14:../Firmware/RISCV/drivers/core_feature_base.h ****  * WARRANTIES OR CONDITIONS OF ANY KIND, either express or implied.
  15:../Firmware/RISCV/drivers/core_feature_base.h ****  * See the License for the specific language governing permissions and
  16:../Firmware/RISCV/drivers/core_feature_base.h ****  * limitations under the License.
  17:../Firmware/RISCV/drivers/core_feature_base.h ****  */
  18:../Firmware/RISCV/drivers/core_feature_base.h **** 
  19:../Firmware/RISCV/drivers/core_feature_base.h **** #ifndef __CORE_FEATURE_BASE__
  20:../Firmware/RISCV/drivers/core_feature_base.h **** #define __CORE_FEATURE_BASE__
  21:../Firmware/RISCV/drivers/core_feature_base.h **** /*!
  22:../Firmware/RISCV/drivers/core_feature_base.h ****  * @file     core_feature_base.h
  23:../Firmware/RISCV/drivers/core_feature_base.h ****  * @brief    Base core feature API for Nuclei N/NX Core
  24:../Firmware/RISCV/drivers/core_feature_base.h ****  */
  25:../Firmware/RISCV/drivers/core_feature_base.h **** #include <stdint.h>
  26:../Firmware/RISCV/drivers/core_feature_base.h **** #include "riscv_encoding.h"
  27:../Firmware/RISCV/drivers/core_feature_base.h **** 
  28:../Firmware/RISCV/drivers/core_feature_base.h **** #ifdef __cplusplus
  29:../Firmware/RISCV/drivers/core_feature_base.h ****  extern "C" {
  30:../Firmware/RISCV/drivers/core_feature_base.h **** #endif
  31:../Firmware/RISCV/drivers/core_feature_base.h **** 
  32:../Firmware/RISCV/drivers/core_feature_base.h **** /**
  33:../Firmware/RISCV/drivers/core_feature_base.h ****  * \defgroup NMSIS_Core_Registers     Register Define and Type Definitions
  34:../Firmware/RISCV/drivers/core_feature_base.h ****  * \brief   Type definitions and defines for core registers.
  35:../Firmware/RISCV/drivers/core_feature_base.h ****  *
  36:../Firmware/RISCV/drivers/core_feature_base.h ****  * @{
  37:../Firmware/RISCV/drivers/core_feature_base.h ****  */
  38:../Firmware/RISCV/drivers/core_feature_base.h **** #ifndef __RISCV_XLEN
  39:../Firmware/RISCV/drivers/core_feature_base.h ****   /** \brief Refer to the width of an integer register in bits(either 32 or 64) */
  40:../Firmware/RISCV/drivers/core_feature_base.h ****   #ifndef __riscv_xlen
  41:../Firmware/RISCV/drivers/core_feature_base.h ****     #define __RISCV_XLEN    32
  42:../Firmware/RISCV/drivers/core_feature_base.h ****   #else
  43:../Firmware/RISCV/drivers/core_feature_base.h ****     #define __RISCV_XLEN    __riscv_xlen
  44:../Firmware/RISCV/drivers/core_feature_base.h ****   #endif
  45:../Firmware/RISCV/drivers/core_feature_base.h **** #endif /* __RISCV_XLEN */
  46:../Firmware/RISCV/drivers/core_feature_base.h **** 
  47:../Firmware/RISCV/drivers/core_feature_base.h **** /** \brief Type of Control and Status Register(CSR), depends on the XLEN defined in RISC-V */
  48:../Firmware/RISCV/drivers/core_feature_base.h **** #if __RISCV_XLEN == 32
  49:../Firmware/RISCV/drivers/core_feature_base.h ****   typedef uint32_t rv_csr_t;
  50:../Firmware/RISCV/drivers/core_feature_base.h **** #elif __RISCV_XLEN == 64
  51:../Firmware/RISCV/drivers/core_feature_base.h ****   typedef uint64_t rv_csr_t;
  52:../Firmware/RISCV/drivers/core_feature_base.h **** #else
  53:../Firmware/RISCV/drivers/core_feature_base.h ****   typedef uint32_t rv_csr_t;
  54:../Firmware/RISCV/drivers/core_feature_base.h **** #endif
  55:../Firmware/RISCV/drivers/core_feature_base.h **** /** @} */ /* End of Doxygen Group NMSIS_Core_Registers */
  56:../Firmware/RISCV/drivers/core_feature_base.h **** /**
  57:../Firmware/RISCV/drivers/core_feature_base.h ****  * \defgroup NMSIS_Core_Base_Registers     Base Register Define and Type Definitions
  58:../Firmware/RISCV/drivers/core_feature_base.h ****  * \ingroup NMSIS_Core_Registers
  59:../Firmware/RISCV/drivers/core_feature_base.h ****  * \brief   Type definitions and defines for base core registers.
  60:../Firmware/RISCV/drivers/core_feature_base.h ****  *
  61:../Firmware/RISCV/drivers/core_feature_base.h ****  * @{
  62:../Firmware/RISCV/drivers/core_feature_base.h ****  */
  63:../Firmware/RISCV/drivers/core_feature_base.h **** /**
  64:../Firmware/RISCV/drivers/core_feature_base.h ****  * \brief  Union type to access MISA CSR register.
  65:../Firmware/RISCV/drivers/core_feature_base.h ****  */
  66:../Firmware/RISCV/drivers/core_feature_base.h **** typedef union {
  67:../Firmware/RISCV/drivers/core_feature_base.h ****     struct {
  68:../Firmware/RISCV/drivers/core_feature_base.h ****         rv_csr_t a:1;                           /*!< bit:     0  Atomic extension */
  69:../Firmware/RISCV/drivers/core_feature_base.h ****         rv_csr_t b:1;                           /*!< bit:     1  Tentatively reserved for Bit-Manip
  70:../Firmware/RISCV/drivers/core_feature_base.h ****         rv_csr_t c:1;                           /*!< bit:     2  Compressed extension */
  71:../Firmware/RISCV/drivers/core_feature_base.h ****         rv_csr_t d:1;                           /*!< bit:     3  Double-precision floating-point ex
  72:../Firmware/RISCV/drivers/core_feature_base.h ****         rv_csr_t e:1;                           /*!< bit:     4  RV32E base ISA */
  73:../Firmware/RISCV/drivers/core_feature_base.h ****         rv_csr_t f:1;                           /*!< bit:     5  Single-precision floating-point ex
  74:../Firmware/RISCV/drivers/core_feature_base.h ****         rv_csr_t g:1;                           /*!< bit:     6  Additional standard extensions pre
  75:../Firmware/RISCV/drivers/core_feature_base.h ****         rv_csr_t h:1;                           /*!< bit:     7  Hypervisor extension */
  76:../Firmware/RISCV/drivers/core_feature_base.h ****         rv_csr_t i:1;                           /*!< bit:     8  RV32I/64I/128I base ISA */
  77:../Firmware/RISCV/drivers/core_feature_base.h ****         rv_csr_t j:1;                           /*!< bit:     9  Tentatively reserved for Dynamical
  78:../Firmware/RISCV/drivers/core_feature_base.h ****         rv_csr_t _reserved1:1;                  /*!< bit:     10 Reserved  */
  79:../Firmware/RISCV/drivers/core_feature_base.h ****         rv_csr_t l:1;                           /*!< bit:     11 Tentatively reserved for Decimal F
  80:../Firmware/RISCV/drivers/core_feature_base.h ****         rv_csr_t m:1;                           /*!< bit:     12 Integer Multiply/Divide extension 
  81:../Firmware/RISCV/drivers/core_feature_base.h ****         rv_csr_t n:1;                           /*!< bit:     13 User-level interrupts supported  *
  82:../Firmware/RISCV/drivers/core_feature_base.h ****         rv_csr_t _reserved2:1;                  /*!< bit:     14 Reserved  */
  83:../Firmware/RISCV/drivers/core_feature_base.h ****         rv_csr_t p:1;                           /*!< bit:     15 Tentatively reserved for Packed-SI
  84:../Firmware/RISCV/drivers/core_feature_base.h ****         rv_csr_t q:1;                           /*!< bit:     16 Quad-precision floating-point exte
  85:../Firmware/RISCV/drivers/core_feature_base.h ****         rv_csr_t _resreved3:1;                  /*!< bit:     17 Reserved  */
  86:../Firmware/RISCV/drivers/core_feature_base.h ****         rv_csr_t s:1;                           /*!< bit:     18 Supervisor mode implemented  */
  87:../Firmware/RISCV/drivers/core_feature_base.h ****         rv_csr_t t:1;                           /*!< bit:     19 Tentatively reserved for Transacti
  88:../Firmware/RISCV/drivers/core_feature_base.h ****         rv_csr_t u:1;                           /*!< bit:     20 User mode implemented  */
  89:../Firmware/RISCV/drivers/core_feature_base.h ****         rv_csr_t v:1;                           /*!< bit:     21 Tentatively reserved for Vector ex
  90:../Firmware/RISCV/drivers/core_feature_base.h ****         rv_csr_t _reserved4:1;                  /*!< bit:     22 Reserved  */
  91:../Firmware/RISCV/drivers/core_feature_base.h ****         rv_csr_t x:1;                           /*!< bit:     23 Non-standard extensions present  *
  92:../Firmware/RISCV/drivers/core_feature_base.h **** #if defined(__RISCV_XLEN) && __RISCV_XLEN == 64
  93:../Firmware/RISCV/drivers/core_feature_base.h ****         rv_csr_t _reserved5:38;                 /*!< bit:     24..61 Reserved  */
  94:../Firmware/RISCV/drivers/core_feature_base.h ****         rv_csr_t mxl:2;                         /*!< bit:     62..63 Machine XLEN  */
  95:../Firmware/RISCV/drivers/core_feature_base.h **** #else
  96:../Firmware/RISCV/drivers/core_feature_base.h ****         rv_csr_t _reserved5:6;                  /*!< bit:     24..29 Reserved  */
  97:../Firmware/RISCV/drivers/core_feature_base.h ****         rv_csr_t mxl:2;                         /*!< bit:     30..31 Machine XLEN  */
  98:../Firmware/RISCV/drivers/core_feature_base.h **** #endif
  99:../Firmware/RISCV/drivers/core_feature_base.h ****     } b;                                        /*!< Structure used for bit  access */
 100:../Firmware/RISCV/drivers/core_feature_base.h ****     rv_csr_t d;                                 /*!< Type      used for csr data access */
 101:../Firmware/RISCV/drivers/core_feature_base.h **** } CSR_MISA_Type;
 102:../Firmware/RISCV/drivers/core_feature_base.h **** 
 103:../Firmware/RISCV/drivers/core_feature_base.h **** /**
 104:../Firmware/RISCV/drivers/core_feature_base.h ****  * \brief  Union type to access MSTATUS CSR register.
 105:../Firmware/RISCV/drivers/core_feature_base.h ****  */
 106:../Firmware/RISCV/drivers/core_feature_base.h **** typedef union {
 107:../Firmware/RISCV/drivers/core_feature_base.h ****     struct {
 108:../Firmware/RISCV/drivers/core_feature_base.h **** #if defined(__RISCV_XLEN) && __RISCV_XLEN == 64
 109:../Firmware/RISCV/drivers/core_feature_base.h ****         rv_csr_t _reserved0:3;                  /*!< bit:     0..2  Reserved */
 110:../Firmware/RISCV/drivers/core_feature_base.h ****         rv_csr_t mie:1;                         /*!< bit:     3  Machine mode interrupt enable flag
 111:../Firmware/RISCV/drivers/core_feature_base.h ****         rv_csr_t _reserved1:3;                  /*!< bit:     4..6  Reserved */
 112:../Firmware/RISCV/drivers/core_feature_base.h ****         rv_csr_t mpie:1;                        /*!< bit:     7  mirror of MIE flag */
 113:../Firmware/RISCV/drivers/core_feature_base.h ****         rv_csr_t _reserved2:3;                  /*!< bit:     8..10  Reserved */
 114:../Firmware/RISCV/drivers/core_feature_base.h ****         rv_csr_t mpp:2;                         /*!< bit:     11..12 mirror of Privilege Mode */
 115:../Firmware/RISCV/drivers/core_feature_base.h ****         rv_csr_t fs:2;                          /*!< bit:     13..14 FS status flag */
 116:../Firmware/RISCV/drivers/core_feature_base.h ****         rv_csr_t xs:2;                          /*!< bit:     15..16 XS status flag */
 117:../Firmware/RISCV/drivers/core_feature_base.h ****         rv_csr_t mprv:1;                        /*!< bit:     Machine mode PMP */
 118:../Firmware/RISCV/drivers/core_feature_base.h ****         rv_csr_t _reserved3:14;                 /*!< bit:     18..31 Reserved */
 119:../Firmware/RISCV/drivers/core_feature_base.h ****         rv_csr_t uxl:2;                         /*!< bit:     32..33 user mode xlen */
 120:../Firmware/RISCV/drivers/core_feature_base.h ****         rv_csr_t _reserved6:29;                 /*!< bit:     34..62 Reserved  */
 121:../Firmware/RISCV/drivers/core_feature_base.h ****         rv_csr_t sd:1;                          /*!< bit:     Dirty status for XS or FS */
 122:../Firmware/RISCV/drivers/core_feature_base.h **** #else
 123:../Firmware/RISCV/drivers/core_feature_base.h ****         rv_csr_t _reserved0:1;                  /*!< bit:     0  Reserved */
 124:../Firmware/RISCV/drivers/core_feature_base.h ****         rv_csr_t sie:1;                         /*!< bit:     1  supervisor interrupt enable flag *
 125:../Firmware/RISCV/drivers/core_feature_base.h ****         rv_csr_t _reserved1:1;                  /*!< bit:     2  Reserved */
 126:../Firmware/RISCV/drivers/core_feature_base.h ****         rv_csr_t mie:1;                         /*!< bit:     3  Machine mode interrupt enable flag
 127:../Firmware/RISCV/drivers/core_feature_base.h ****         rv_csr_t _reserved2:1;                  /*!< bit:     4  Reserved */
 128:../Firmware/RISCV/drivers/core_feature_base.h ****         rv_csr_t spie:1;                        /*!< bit:     3  Supervisor Privilede mode interrup
 129:../Firmware/RISCV/drivers/core_feature_base.h ****         rv_csr_t _reserved3:1;                  /*!< bit:     Reserved */
 130:../Firmware/RISCV/drivers/core_feature_base.h ****         rv_csr_t mpie:1;                        /*!< bit:     mirror of MIE flag */
 131:../Firmware/RISCV/drivers/core_feature_base.h ****         rv_csr_t _reserved4:3;                  /*!< bit:     Reserved */
 132:../Firmware/RISCV/drivers/core_feature_base.h ****         rv_csr_t mpp:2;                         /*!< bit:     mirror of Privilege Mode */
 133:../Firmware/RISCV/drivers/core_feature_base.h ****         rv_csr_t fs:2;                          /*!< bit:     FS status flag */
 134:../Firmware/RISCV/drivers/core_feature_base.h ****         rv_csr_t xs:2;                          /*!< bit:     XS status flag */
 135:../Firmware/RISCV/drivers/core_feature_base.h ****         rv_csr_t mprv:1;                        /*!< bit:     Machine mode PMP */
 136:../Firmware/RISCV/drivers/core_feature_base.h ****         rv_csr_t sum:1;                         /*!< bit:     Supervisor Mode load and store protec
 137:../Firmware/RISCV/drivers/core_feature_base.h ****         rv_csr_t _reserved6:12;                 /*!< bit:     19..30 Reserved  */
 138:../Firmware/RISCV/drivers/core_feature_base.h ****         rv_csr_t sd:1;                          /*!< bit:     Dirty status for XS or FS */
 139:../Firmware/RISCV/drivers/core_feature_base.h **** #endif
 140:../Firmware/RISCV/drivers/core_feature_base.h ****     } b;                                        /*!< Structure used for bit  access */
 141:../Firmware/RISCV/drivers/core_feature_base.h ****     rv_csr_t d;                                 /*!< Type      used for csr data access */
 142:../Firmware/RISCV/drivers/core_feature_base.h **** } CSR_MSTATUS_Type;
 143:../Firmware/RISCV/drivers/core_feature_base.h **** 
 144:../Firmware/RISCV/drivers/core_feature_base.h **** /**
 145:../Firmware/RISCV/drivers/core_feature_base.h ****  * \brief  Union type to access MTVEC CSR register.
 146:../Firmware/RISCV/drivers/core_feature_base.h ****  */
 147:../Firmware/RISCV/drivers/core_feature_base.h **** typedef union {
 148:../Firmware/RISCV/drivers/core_feature_base.h ****     struct {
 149:../Firmware/RISCV/drivers/core_feature_base.h ****         rv_csr_t mode:6;                        /*!< bit:     0..5   interrupt mode control */
 150:../Firmware/RISCV/drivers/core_feature_base.h **** #if defined(__RISCV_XLEN) && __RISCV_XLEN == 64
 151:../Firmware/RISCV/drivers/core_feature_base.h ****         rv_csr_t addr:58;                       /*!< bit:     6..63  mtvec address */
 152:../Firmware/RISCV/drivers/core_feature_base.h **** #else
 153:../Firmware/RISCV/drivers/core_feature_base.h ****         rv_csr_t addr:26;                       /*!< bit:     6..31  mtvec address */
 154:../Firmware/RISCV/drivers/core_feature_base.h **** #endif
 155:../Firmware/RISCV/drivers/core_feature_base.h ****     } b;                                        /*!< Structure used for bit  access */
 156:../Firmware/RISCV/drivers/core_feature_base.h ****     rv_csr_t d;                                 /*!< Type      used for csr data access */
 157:../Firmware/RISCV/drivers/core_feature_base.h **** } CSR_MTVEC_Type;
 158:../Firmware/RISCV/drivers/core_feature_base.h **** 
 159:../Firmware/RISCV/drivers/core_feature_base.h **** /**
 160:../Firmware/RISCV/drivers/core_feature_base.h ****  * \brief  Union type to access MCAUSE CSR register.
 161:../Firmware/RISCV/drivers/core_feature_base.h ****  */
 162:../Firmware/RISCV/drivers/core_feature_base.h **** typedef union {
 163:../Firmware/RISCV/drivers/core_feature_base.h ****     struct {
 164:../Firmware/RISCV/drivers/core_feature_base.h ****         rv_csr_t exccode:12;                    /*!< bit:     11..0  exception or interrupt code */
 165:../Firmware/RISCV/drivers/core_feature_base.h ****         rv_csr_t _reserved0:4;                  /*!< bit:     15..12  Reserved */
 166:../Firmware/RISCV/drivers/core_feature_base.h ****         rv_csr_t mpil:8;                        /*!< bit:     23..16  Previous interrupt level */
 167:../Firmware/RISCV/drivers/core_feature_base.h ****         rv_csr_t _reserved1:3;                  /*!< bit:     26..24  Reserved */
 168:../Firmware/RISCV/drivers/core_feature_base.h ****         rv_csr_t mpie:1;                        /*!< bit:     27  Interrupt enable flag before ente
 169:../Firmware/RISCV/drivers/core_feature_base.h ****         rv_csr_t mpp:2;                         /*!< bit:     29..28  Privilede mode flag before en
 170:../Firmware/RISCV/drivers/core_feature_base.h ****         rv_csr_t minhv:1;                       /*!< bit:     30  Machine interrupt vector table */
 171:../Firmware/RISCV/drivers/core_feature_base.h **** #if defined(__RISCV_XLEN) && __RISCV_XLEN == 64
 172:../Firmware/RISCV/drivers/core_feature_base.h ****         rv_csr_t _reserved2:32;                 /*!< bit:     31..62  Reserved */
 173:../Firmware/RISCV/drivers/core_feature_base.h ****         rv_csr_t interrupt:1;                   /*!< bit:     63  trap type. 0 means exception and 
 174:../Firmware/RISCV/drivers/core_feature_base.h **** #else
 175:../Firmware/RISCV/drivers/core_feature_base.h ****         rv_csr_t interrupt:1;                   /*!< bit:     31  trap type. 0 means exception and 
 176:../Firmware/RISCV/drivers/core_feature_base.h **** #endif
 177:../Firmware/RISCV/drivers/core_feature_base.h ****     } b;                                        /*!< Structure used for bit  access */
 178:../Firmware/RISCV/drivers/core_feature_base.h ****     rv_csr_t d;                                 /*!< Type      used for csr data access */
 179:../Firmware/RISCV/drivers/core_feature_base.h **** } CSR_MCAUSE_Type;
 180:../Firmware/RISCV/drivers/core_feature_base.h **** 
 181:../Firmware/RISCV/drivers/core_feature_base.h **** /**
 182:../Firmware/RISCV/drivers/core_feature_base.h ****  * \brief  Union type to access MCOUNTINHIBIT CSR register.
 183:../Firmware/RISCV/drivers/core_feature_base.h ****  */
 184:../Firmware/RISCV/drivers/core_feature_base.h **** typedef union {
 185:../Firmware/RISCV/drivers/core_feature_base.h ****     struct {
 186:../Firmware/RISCV/drivers/core_feature_base.h ****         rv_csr_t cy:1;                          /*!< bit:     0     1 means disable mcycle counter 
 187:../Firmware/RISCV/drivers/core_feature_base.h ****         rv_csr_t _reserved0:1;                  /*!< bit:     1     Reserved */
 188:../Firmware/RISCV/drivers/core_feature_base.h ****         rv_csr_t ir:1;                          /*!< bit:     2     1 means disable minstret counte
 189:../Firmware/RISCV/drivers/core_feature_base.h **** #if defined(__RISCV_XLEN) && __RISCV_XLEN == 64
 190:../Firmware/RISCV/drivers/core_feature_base.h ****         rv_csr_t _reserved1:61;                 /*!< bit:     3..63 Reserved */
 191:../Firmware/RISCV/drivers/core_feature_base.h **** #else
 192:../Firmware/RISCV/drivers/core_feature_base.h ****         rv_csr_t _reserved1:29;                 /*!< bit:     3..31 Reserved */
 193:../Firmware/RISCV/drivers/core_feature_base.h **** #endif
 194:../Firmware/RISCV/drivers/core_feature_base.h ****     } b;                                        /*!< Structure used for bit  access */
 195:../Firmware/RISCV/drivers/core_feature_base.h ****     rv_csr_t d;                                 /*!< Type      used for csr data access */
 196:../Firmware/RISCV/drivers/core_feature_base.h **** } CSR_MCOUNTINHIBIT_Type;
 197:../Firmware/RISCV/drivers/core_feature_base.h **** 
 198:../Firmware/RISCV/drivers/core_feature_base.h **** /**
 199:../Firmware/RISCV/drivers/core_feature_base.h ****  * \brief  Union type to access MSUBM CSR register.
 200:../Firmware/RISCV/drivers/core_feature_base.h ****  */
 201:../Firmware/RISCV/drivers/core_feature_base.h **** typedef union {
 202:../Firmware/RISCV/drivers/core_feature_base.h ****     struct {
 203:../Firmware/RISCV/drivers/core_feature_base.h ****         rv_csr_t _reserved0:6;                  /*!< bit:     0..5   Reserved */
 204:../Firmware/RISCV/drivers/core_feature_base.h ****         rv_csr_t typ:2;                         /*!< bit:     6..7   current trap type */
 205:../Firmware/RISCV/drivers/core_feature_base.h ****         rv_csr_t ptyp:2;                        /*!< bit:     8..9   previous trap type */
 206:../Firmware/RISCV/drivers/core_feature_base.h **** #if defined(__RISCV_XLEN) && __RISCV_XLEN == 64
 207:../Firmware/RISCV/drivers/core_feature_base.h ****         rv_csr_t _reserved1:54;                 /*!< bit:     10..63 Reserved */
 208:../Firmware/RISCV/drivers/core_feature_base.h **** #else
 209:../Firmware/RISCV/drivers/core_feature_base.h ****         rv_csr_t _reserved1:22;                 /*!< bit:     10..31 Reserved */
 210:../Firmware/RISCV/drivers/core_feature_base.h **** #endif
 211:../Firmware/RISCV/drivers/core_feature_base.h ****     } b;                                        /*!< Structure used for bit  access */
 212:../Firmware/RISCV/drivers/core_feature_base.h ****     rv_csr_t d;                                 /*!< Type      used for csr data access */
 213:../Firmware/RISCV/drivers/core_feature_base.h **** } CSR_MSUBM_Type;
 214:../Firmware/RISCV/drivers/core_feature_base.h **** 
 215:../Firmware/RISCV/drivers/core_feature_base.h **** /**
 216:../Firmware/RISCV/drivers/core_feature_base.h ****  * \brief  Union type to access MDCAUSE CSR register.
 217:../Firmware/RISCV/drivers/core_feature_base.h ****  */
 218:../Firmware/RISCV/drivers/core_feature_base.h **** typedef union {
 219:../Firmware/RISCV/drivers/core_feature_base.h ****     struct {
 220:../Firmware/RISCV/drivers/core_feature_base.h ****         rv_csr_t mdcause:2;                     /*!< bit:     0..1   More detailed exception inform
 221:../Firmware/RISCV/drivers/core_feature_base.h ****         rv_csr_t _reserved0:__RISCV_XLEN-2;     /*!< bit:     2..XLEN-1 Reserved */
 222:../Firmware/RISCV/drivers/core_feature_base.h ****     } b;                                        /*!< Structure used for bit  access */
 223:../Firmware/RISCV/drivers/core_feature_base.h ****     rv_csr_t d;                                 /*!< Type      used for csr data access */
 224:../Firmware/RISCV/drivers/core_feature_base.h **** } CSR_MDCAUSE_Type;
 225:../Firmware/RISCV/drivers/core_feature_base.h **** 
 226:../Firmware/RISCV/drivers/core_feature_base.h **** /**
 227:../Firmware/RISCV/drivers/core_feature_base.h ****  * \brief  Union type to access MMISC_CTRL CSR register.
 228:../Firmware/RISCV/drivers/core_feature_base.h ****  */
 229:../Firmware/RISCV/drivers/core_feature_base.h **** typedef union {
 230:../Firmware/RISCV/drivers/core_feature_base.h ****     struct {
 231:../Firmware/RISCV/drivers/core_feature_base.h ****         rv_csr_t _reserved0:3;                  /*!< bit:     0..2  Reserved */
 232:../Firmware/RISCV/drivers/core_feature_base.h ****         rv_csr_t bpu:1;                         /*!< bit:     3     dynamic prediction enable flag 
 233:../Firmware/RISCV/drivers/core_feature_base.h ****         rv_csr_t _reserved1:2;                  /*!< bit:     4..5  Reserved */
 234:../Firmware/RISCV/drivers/core_feature_base.h ****         rv_csr_t misalign:1;                    /*!< bit:     6     misaligned access support flag 
 235:../Firmware/RISCV/drivers/core_feature_base.h ****         rv_csr_t _reserved2:2;                  /*!< bit:     7..8  Reserved */
 236:../Firmware/RISCV/drivers/core_feature_base.h ****         rv_csr_t nmi_cause:1;                   /*!< bit:     9     mnvec control and nmi mcase exc
 237:../Firmware/RISCV/drivers/core_feature_base.h **** #if defined(__RISCV_XLEN) && __RISCV_XLEN == 64
 238:../Firmware/RISCV/drivers/core_feature_base.h ****         rv_csr_t _reserved3:54;                 /*!< bit:     10..63 Reserved */
 239:../Firmware/RISCV/drivers/core_feature_base.h **** #else
 240:../Firmware/RISCV/drivers/core_feature_base.h ****         rv_csr_t _reserved3:22;                 /*!< bit:     10..31 Reserved */
 241:../Firmware/RISCV/drivers/core_feature_base.h **** #endif
 242:../Firmware/RISCV/drivers/core_feature_base.h ****     } b;                                        /*!< Structure used for bit  access */
 243:../Firmware/RISCV/drivers/core_feature_base.h ****     rv_csr_t d;                                 /*!< Type      used for csr data access */
 244:../Firmware/RISCV/drivers/core_feature_base.h **** } CSR_MMISCCTRL_Type;
 245:../Firmware/RISCV/drivers/core_feature_base.h **** 
 246:../Firmware/RISCV/drivers/core_feature_base.h **** typedef CSR_MMISCCTRL_Type CSR_MMISCCTL_Type;
 247:../Firmware/RISCV/drivers/core_feature_base.h **** 
 248:../Firmware/RISCV/drivers/core_feature_base.h **** /**
 249:../Firmware/RISCV/drivers/core_feature_base.h ****  * \brief  Union type to access MCACHE_CTL CSR register.
 250:../Firmware/RISCV/drivers/core_feature_base.h ****  */
 251:../Firmware/RISCV/drivers/core_feature_base.h **** typedef union {
 252:../Firmware/RISCV/drivers/core_feature_base.h ****     struct {
 253:../Firmware/RISCV/drivers/core_feature_base.h ****         rv_csr_t ic_en:1;                       /*!< I-Cache enable */
 254:../Firmware/RISCV/drivers/core_feature_base.h ****         rv_csr_t ic_scpd_mod:1;                 /*!< Scratchpad mode, 0: Scratchpad as ICache Data 
 255:../Firmware/RISCV/drivers/core_feature_base.h ****         rv_csr_t ic_ecc_en:1;                   /*!< I-Cache ECC enable */
 256:../Firmware/RISCV/drivers/core_feature_base.h ****         rv_csr_t ic_ecc_excp_en:1;              /*!< I-Cache 2bit ECC error exception enable */
 257:../Firmware/RISCV/drivers/core_feature_base.h ****         rv_csr_t ic_rwtecc:1;                   /*!< Control I-Cache Tag Ram ECC code injection */
 258:../Firmware/RISCV/drivers/core_feature_base.h ****         rv_csr_t ic_rwdecc:1;                   /*!< Control I-Cache Data Ram ECC code injection */
 259:../Firmware/RISCV/drivers/core_feature_base.h ****         rv_csr_t _reserved0:10;
 260:../Firmware/RISCV/drivers/core_feature_base.h ****         rv_csr_t dc_en:1;                       /*!< DCache enable */
 261:../Firmware/RISCV/drivers/core_feature_base.h ****         rv_csr_t dc_ecc_en:1;                   /*!< D-Cache ECC enable */
 262:../Firmware/RISCV/drivers/core_feature_base.h ****         rv_csr_t dc_ecc_excp_en:1;              /*!< D-Cache 2bit ECC error exception enable */
 263:../Firmware/RISCV/drivers/core_feature_base.h ****         rv_csr_t dc_rwtecc:1;                   /*!< Control D-Cache Tag Ram ECC code injection */
 264:../Firmware/RISCV/drivers/core_feature_base.h ****         rv_csr_t dc_rwdecc:1;                   /*!< Control D-Cache Data Ram ECC code injection */
 265:../Firmware/RISCV/drivers/core_feature_base.h ****         rv_csr_t _reserved1:__RISCV_XLEN-21;
 266:../Firmware/RISCV/drivers/core_feature_base.h ****     } b;                                        /*!< Structure used for bit  access */
 267:../Firmware/RISCV/drivers/core_feature_base.h ****     rv_csr_t d;                                 /*!< Type      used for csr data access */
 268:../Firmware/RISCV/drivers/core_feature_base.h **** } CSR_MCACHECTL_Type;
 269:../Firmware/RISCV/drivers/core_feature_base.h **** 
 270:../Firmware/RISCV/drivers/core_feature_base.h **** /**
 271:../Firmware/RISCV/drivers/core_feature_base.h ****  * \brief  Union type to access MSAVESTATUS CSR register.
 272:../Firmware/RISCV/drivers/core_feature_base.h ****  */
 273:../Firmware/RISCV/drivers/core_feature_base.h **** typedef union {
 274:../Firmware/RISCV/drivers/core_feature_base.h ****     struct {
 275:../Firmware/RISCV/drivers/core_feature_base.h ****         rv_csr_t mpie1:1;                       /*!< bit:     0     interrupt enable flag of fisrt 
 276:../Firmware/RISCV/drivers/core_feature_base.h ****         rv_csr_t mpp1:2;                        /*!< bit:     1..2  privilede mode of fisrt level N
 277:../Firmware/RISCV/drivers/core_feature_base.h ****         rv_csr_t _reserved0:3;                  /*!< bit:     3..5  Reserved */
 278:../Firmware/RISCV/drivers/core_feature_base.h ****         rv_csr_t ptyp1:2;                       /*!< bit:     6..7  NMI/exception type of before fi
 279:../Firmware/RISCV/drivers/core_feature_base.h ****         rv_csr_t mpie2:1;                       /*!< bit:     8     interrupt enable flag of second
 280:../Firmware/RISCV/drivers/core_feature_base.h ****         rv_csr_t mpp2:2;                        /*!< bit:     9..10 privilede mode of second level 
 281:../Firmware/RISCV/drivers/core_feature_base.h ****         rv_csr_t _reserved1:3;                  /*!< bit:     11..13     Reserved */
 282:../Firmware/RISCV/drivers/core_feature_base.h ****         rv_csr_t ptyp2:2;                       /*!< bit:     14..15     NMI/exception type of befo
 283:../Firmware/RISCV/drivers/core_feature_base.h **** #if defined(__RISCV_XLEN) && __RISCV_XLEN == 64
 284:../Firmware/RISCV/drivers/core_feature_base.h ****         rv_csr_t _reserved2:48;                 /*!< bit:     16..63 Reserved*/
 285:../Firmware/RISCV/drivers/core_feature_base.h **** #else
 286:../Firmware/RISCV/drivers/core_feature_base.h ****         rv_csr_t _reserved2:16;                 /*!< bit:     16..31 Reserved*/
 287:../Firmware/RISCV/drivers/core_feature_base.h **** #endif
 288:../Firmware/RISCV/drivers/core_feature_base.h ****     } b;                                        /*!< Structure used for bit  access */
 289:../Firmware/RISCV/drivers/core_feature_base.h ****     rv_csr_t w;                                 /*!< Type      used for csr data access */
 290:../Firmware/RISCV/drivers/core_feature_base.h **** } CSR_MSAVESTATUS_Type;
 291:../Firmware/RISCV/drivers/core_feature_base.h **** 
 292:../Firmware/RISCV/drivers/core_feature_base.h **** /**
 293:../Firmware/RISCV/drivers/core_feature_base.h ****  * \brief  Union type to access MILM_CTL CSR register.
 294:../Firmware/RISCV/drivers/core_feature_base.h ****  */
 295:../Firmware/RISCV/drivers/core_feature_base.h **** typedef union {
 296:../Firmware/RISCV/drivers/core_feature_base.h ****     struct {
 297:../Firmware/RISCV/drivers/core_feature_base.h ****         rv_csr_t ilm_en:1;                      /*!< ILM enable */
 298:../Firmware/RISCV/drivers/core_feature_base.h ****         rv_csr_t ilm_ecc_en:1;                  /*!< ILM ECC eanble */
 299:../Firmware/RISCV/drivers/core_feature_base.h ****         rv_csr_t ilm_ecc_excp_en:1;             /*!< ILM ECC exception enable */
 300:../Firmware/RISCV/drivers/core_feature_base.h ****         rv_csr_t ilm_rwecc:1;                   /*!< Control mecc_code write to ilm, simulate error
 301:../Firmware/RISCV/drivers/core_feature_base.h ****         rv_csr_t _reserved0:6;                  /*!< Reserved */
 302:../Firmware/RISCV/drivers/core_feature_base.h ****         rv_csr_t ilm_bpa:__RISCV_XLEN-10;       /*!< ILM base address */
 303:../Firmware/RISCV/drivers/core_feature_base.h ****     } b;                                        /*!< Structure used for bit  access */
 304:../Firmware/RISCV/drivers/core_feature_base.h ****     rv_csr_t d;                                 /*!< Type      used for csr data access */
 305:../Firmware/RISCV/drivers/core_feature_base.h **** } CSR_MILMCTL_Type;
 306:../Firmware/RISCV/drivers/core_feature_base.h **** 
 307:../Firmware/RISCV/drivers/core_feature_base.h **** /**
 308:../Firmware/RISCV/drivers/core_feature_base.h ****  * \brief  Union type to access MDLM_CTL CSR register.
 309:../Firmware/RISCV/drivers/core_feature_base.h ****  */
 310:../Firmware/RISCV/drivers/core_feature_base.h **** typedef union {
 311:../Firmware/RISCV/drivers/core_feature_base.h ****     struct {
 312:../Firmware/RISCV/drivers/core_feature_base.h ****         rv_csr_t dlm_en:1;                      /*!< DLM enable */
 313:../Firmware/RISCV/drivers/core_feature_base.h ****         rv_csr_t dlm_ecc_en:1;                  /*!< DLM ECC eanble */
 314:../Firmware/RISCV/drivers/core_feature_base.h ****         rv_csr_t dlm_ecc_excp_en:1;             /*!< DLM ECC exception enable */
 315:../Firmware/RISCV/drivers/core_feature_base.h ****         rv_csr_t dlm_rwecc:1;                   /*!< Control mecc_code write to dlm, simulate error
 316:../Firmware/RISCV/drivers/core_feature_base.h ****         rv_csr_t _reserved0:6;                  /*!< Reserved */
 317:../Firmware/RISCV/drivers/core_feature_base.h ****         rv_csr_t dlm_bpa:__RISCV_XLEN-10;       /*!< DLM base address */
 318:../Firmware/RISCV/drivers/core_feature_base.h ****     } b;                                        /*!< Structure used for bit  access */
 319:../Firmware/RISCV/drivers/core_feature_base.h ****     rv_csr_t d;                                 /*!< Type      used for csr data access */
 320:../Firmware/RISCV/drivers/core_feature_base.h **** } CSR_MDLMCTL_Type;
 321:../Firmware/RISCV/drivers/core_feature_base.h **** 
 322:../Firmware/RISCV/drivers/core_feature_base.h **** /**
 323:../Firmware/RISCV/drivers/core_feature_base.h ****  * \brief  Union type to access MCFG_INFO CSR register.
 324:../Firmware/RISCV/drivers/core_feature_base.h ****  */
 325:../Firmware/RISCV/drivers/core_feature_base.h **** typedef union {
 326:../Firmware/RISCV/drivers/core_feature_base.h ****     struct {
 327:../Firmware/RISCV/drivers/core_feature_base.h ****         rv_csr_t tee:1;                         /*!< TEE present */
 328:../Firmware/RISCV/drivers/core_feature_base.h ****         rv_csr_t ecc:1;                         /*!< ECC present */
 329:../Firmware/RISCV/drivers/core_feature_base.h ****         rv_csr_t clic:1;                        /*!< CLIC present */
 330:../Firmware/RISCV/drivers/core_feature_base.h ****         rv_csr_t plic:1;                        /*!< PLIC present */
 331:../Firmware/RISCV/drivers/core_feature_base.h ****         rv_csr_t fio:1;                         /*!< FIO present */
 332:../Firmware/RISCV/drivers/core_feature_base.h ****         rv_csr_t ppi:1;                         /*!< PPI present */
 333:../Firmware/RISCV/drivers/core_feature_base.h ****         rv_csr_t nice:1;                        /*!< NICE present */
 334:../Firmware/RISCV/drivers/core_feature_base.h ****         rv_csr_t ilm:1;                         /*!< ILM present */
 335:../Firmware/RISCV/drivers/core_feature_base.h ****         rv_csr_t dlm:1;                         /*!< DLM present */
 336:../Firmware/RISCV/drivers/core_feature_base.h ****         rv_csr_t icache:1;                      /*!< ICache present */
 337:../Firmware/RISCV/drivers/core_feature_base.h ****         rv_csr_t dcache:1;                      /*!< DCache present */
 338:../Firmware/RISCV/drivers/core_feature_base.h ****         rv_csr_t _reserved0:__RISCV_XLEN-11;
 339:../Firmware/RISCV/drivers/core_feature_base.h ****     } b;                                        /*!< Structure used for bit  access */
 340:../Firmware/RISCV/drivers/core_feature_base.h ****     rv_csr_t d;                                 /*!< Type      used for csr data access */
 341:../Firmware/RISCV/drivers/core_feature_base.h **** } CSR_MCFGINFO_Type;
 342:../Firmware/RISCV/drivers/core_feature_base.h **** 
 343:../Firmware/RISCV/drivers/core_feature_base.h **** /**
 344:../Firmware/RISCV/drivers/core_feature_base.h ****  * \brief  Union type to access MICFG_INFO CSR register.
 345:../Firmware/RISCV/drivers/core_feature_base.h ****  */
 346:../Firmware/RISCV/drivers/core_feature_base.h **** typedef union {
 347:../Firmware/RISCV/drivers/core_feature_base.h ****     struct {
 348:../Firmware/RISCV/drivers/core_feature_base.h ****         rv_csr_t set:4;                         /*!< I-Cache sets per way */
 349:../Firmware/RISCV/drivers/core_feature_base.h ****         rv_csr_t way:3;                         /*!< I-Cache way */
 350:../Firmware/RISCV/drivers/core_feature_base.h ****         rv_csr_t lsize:3;                       /*!< I-Cache line size */
 351:../Firmware/RISCV/drivers/core_feature_base.h ****         rv_csr_t cache_ecc:1;                   /*!< I-Cache ECC present */
 352:../Firmware/RISCV/drivers/core_feature_base.h ****         rv_csr_t _reserved0:5;
 353:../Firmware/RISCV/drivers/core_feature_base.h ****         rv_csr_t lm_size:5;                     /*!< ILM size, need to be 2^n size */
 354:../Firmware/RISCV/drivers/core_feature_base.h ****         rv_csr_t lm_xonly:1;                    /*!< ILM Execute only permission */
 355:../Firmware/RISCV/drivers/core_feature_base.h ****         rv_csr_t lm_ecc:1;                      /*!< ILM ECC present */
 356:../Firmware/RISCV/drivers/core_feature_base.h ****         rv_csr_t _reserved1:__RISCV_XLEN-23;
 357:../Firmware/RISCV/drivers/core_feature_base.h ****     } b;                                        /*!< Structure used for bit  access */
 358:../Firmware/RISCV/drivers/core_feature_base.h ****     rv_csr_t d;                                 /*!< Type      used for csr data access */
 359:../Firmware/RISCV/drivers/core_feature_base.h **** } CSR_MICFGINFO_Type;
 360:../Firmware/RISCV/drivers/core_feature_base.h **** 
 361:../Firmware/RISCV/drivers/core_feature_base.h **** /**
 362:../Firmware/RISCV/drivers/core_feature_base.h ****  * \brief  Union type to access MDCFG_INFO CSR register.
 363:../Firmware/RISCV/drivers/core_feature_base.h ****  */
 364:../Firmware/RISCV/drivers/core_feature_base.h **** typedef union {
 365:../Firmware/RISCV/drivers/core_feature_base.h ****     struct {
 366:../Firmware/RISCV/drivers/core_feature_base.h ****         rv_csr_t set:4;                         /*!< D-Cache sets per way */
 367:../Firmware/RISCV/drivers/core_feature_base.h ****         rv_csr_t way:3;                         /*!< D-Cache way */
 368:../Firmware/RISCV/drivers/core_feature_base.h ****         rv_csr_t lsize:3;                       /*!< D-Cache line size */
 369:../Firmware/RISCV/drivers/core_feature_base.h ****         rv_csr_t cache_ecc:1;                   /*!< D-Cache ECC present */
 370:../Firmware/RISCV/drivers/core_feature_base.h ****         rv_csr_t _reserved0:5;
 371:../Firmware/RISCV/drivers/core_feature_base.h ****         rv_csr_t lm_size:5;                     /*!< DLM size, need to be 2^n size */
 372:../Firmware/RISCV/drivers/core_feature_base.h ****         rv_csr_t lm_xonly:1;                    /*!< DLM Execute only permission */
 373:../Firmware/RISCV/drivers/core_feature_base.h ****         rv_csr_t lm_ecc:1;                      /*!< DLM ECC present */
 374:../Firmware/RISCV/drivers/core_feature_base.h ****         rv_csr_t _reserved1:__RISCV_XLEN-23;
 375:../Firmware/RISCV/drivers/core_feature_base.h ****     } b;                                        /*!< Structure used for bit  access */
 376:../Firmware/RISCV/drivers/core_feature_base.h ****     rv_csr_t d;                                 /*!< Type      used for csr data access */
 377:../Firmware/RISCV/drivers/core_feature_base.h **** } CSR_MDCFGINFO_Type;
 378:../Firmware/RISCV/drivers/core_feature_base.h **** 
 379:../Firmware/RISCV/drivers/core_feature_base.h **** /**
 380:../Firmware/RISCV/drivers/core_feature_base.h ****  * \brief  Union type to access MPPICFG_INFO CSR register.
 381:../Firmware/RISCV/drivers/core_feature_base.h ****  */
 382:../Firmware/RISCV/drivers/core_feature_base.h **** typedef union {
 383:../Firmware/RISCV/drivers/core_feature_base.h ****     struct {
 384:../Firmware/RISCV/drivers/core_feature_base.h ****         rv_csr_t _reserved0:1;                  /*!< Reserved */
 385:../Firmware/RISCV/drivers/core_feature_base.h ****         rv_csr_t ppi_size:5;                    /*!< PPI size, need to be 2^n size */
 386:../Firmware/RISCV/drivers/core_feature_base.h ****         rv_csr_t _reserved1:4;                  /*!< Reserved */
 387:../Firmware/RISCV/drivers/core_feature_base.h ****         rv_csr_t ppi_bpa:__RISCV_XLEN-10;       /*!< PPI base address */
 388:../Firmware/RISCV/drivers/core_feature_base.h ****     } b;                                        /*!< Structure used for bit  access */
 389:../Firmware/RISCV/drivers/core_feature_base.h ****     rv_csr_t d;                                 /*!< Type      used for csr data access */
 390:../Firmware/RISCV/drivers/core_feature_base.h **** } CSR_MPPICFGINFO_Type;
 391:../Firmware/RISCV/drivers/core_feature_base.h **** 
 392:../Firmware/RISCV/drivers/core_feature_base.h **** /**
 393:../Firmware/RISCV/drivers/core_feature_base.h ****  * \brief  Union type to access MFIOCFG_INFO CSR register.
 394:../Firmware/RISCV/drivers/core_feature_base.h ****  */
 395:../Firmware/RISCV/drivers/core_feature_base.h **** typedef union {
 396:../Firmware/RISCV/drivers/core_feature_base.h ****     struct {
 397:../Firmware/RISCV/drivers/core_feature_base.h ****         rv_csr_t _reserved0:1;                  /*!< Reserved */
 398:../Firmware/RISCV/drivers/core_feature_base.h ****         rv_csr_t fio_size:5;                    /*!< FIO size, need to be 2^n size */
 399:../Firmware/RISCV/drivers/core_feature_base.h ****         rv_csr_t _reserved1:4;                  /*!< Reserved */
 400:../Firmware/RISCV/drivers/core_feature_base.h ****         rv_csr_t fio_bpa:__RISCV_XLEN-10;       /*!< FIO base address */
 401:../Firmware/RISCV/drivers/core_feature_base.h ****     } b;                                        /*!< Structure used for bit  access */
 402:../Firmware/RISCV/drivers/core_feature_base.h ****     rv_csr_t d;                                 /*!< Type      used for csr data access */
 403:../Firmware/RISCV/drivers/core_feature_base.h **** } CSR_MFIOCFGINFO_Type;
 404:../Firmware/RISCV/drivers/core_feature_base.h **** 
 405:../Firmware/RISCV/drivers/core_feature_base.h **** /**
 406:../Firmware/RISCV/drivers/core_feature_base.h ****  * \brief  Union type to access MECC_LOCK CSR register.
 407:../Firmware/RISCV/drivers/core_feature_base.h ****  */
 408:../Firmware/RISCV/drivers/core_feature_base.h **** typedef union {
 409:../Firmware/RISCV/drivers/core_feature_base.h ****     struct {
 410:../Firmware/RISCV/drivers/core_feature_base.h ****         rv_csr_t ecc_lock:1;                    /*!< RW permission, ECC Lock configure */
 411:../Firmware/RISCV/drivers/core_feature_base.h ****         rv_csr_t _reserved0:__RISCV_XLEN-1;     /*!< Reserved */
 412:../Firmware/RISCV/drivers/core_feature_base.h ****     } b;                                        /*!< Structure used for bit  access */
 413:../Firmware/RISCV/drivers/core_feature_base.h ****     rv_csr_t d;                                 /*!< Type      used for csr data access */
 414:../Firmware/RISCV/drivers/core_feature_base.h **** } CSR_MECCLOCK_Type;
 415:../Firmware/RISCV/drivers/core_feature_base.h **** 
 416:../Firmware/RISCV/drivers/core_feature_base.h **** /**
 417:../Firmware/RISCV/drivers/core_feature_base.h ****  * \brief  Union type to access MECC_CODE CSR register.
 418:../Firmware/RISCV/drivers/core_feature_base.h ****  */
 419:../Firmware/RISCV/drivers/core_feature_base.h **** typedef union {
 420:../Firmware/RISCV/drivers/core_feature_base.h ****     struct {
 421:../Firmware/RISCV/drivers/core_feature_base.h ****         rv_csr_t code:9;                        /*!< Used to inject ECC check code */
 422:../Firmware/RISCV/drivers/core_feature_base.h ****         rv_csr_t _reserved0:7;                  /*!< Reserved */
 423:../Firmware/RISCV/drivers/core_feature_base.h ****         rv_csr_t ramid:5;                       /*!< Indicate 2bit ECC error, software can clear th
 424:../Firmware/RISCV/drivers/core_feature_base.h ****         rv_csr_t _reserved1:3;                  /*!< Reserved */
 425:../Firmware/RISCV/drivers/core_feature_base.h ****         rv_csr_t sramid:5;                      /*!< Indicate 1bit ECC error, software can clear th
 426:../Firmware/RISCV/drivers/core_feature_base.h ****         rv_csr_t _reserved2:__RISCV_XLEN-29;    /*!< Reserved */
 427:../Firmware/RISCV/drivers/core_feature_base.h ****     } b;                                        /*!< Structure used for bit  access */
 428:../Firmware/RISCV/drivers/core_feature_base.h ****     rv_csr_t d;                                 /*!< Type      used for csr data access */
 429:../Firmware/RISCV/drivers/core_feature_base.h **** } CSR_MECCCODE_Type;
 430:../Firmware/RISCV/drivers/core_feature_base.h **** 
 431:../Firmware/RISCV/drivers/core_feature_base.h **** /** @} */ /* End of Doxygen Group NMSIS_Core_Base_Registers */
 432:../Firmware/RISCV/drivers/core_feature_base.h **** 
 433:../Firmware/RISCV/drivers/core_feature_base.h **** /* ###########################  Core Function Access  ########################### */
 434:../Firmware/RISCV/drivers/core_feature_base.h **** /**
 435:../Firmware/RISCV/drivers/core_feature_base.h ****  * \defgroup NMSIS_Core_CSR_Register_Access    Core CSR Register Access
 436:../Firmware/RISCV/drivers/core_feature_base.h ****  * \ingroup  NMSIS_Core
 437:../Firmware/RISCV/drivers/core_feature_base.h ****  * \brief    Functions to access the Core CSR Registers
 438:../Firmware/RISCV/drivers/core_feature_base.h ****  * \details
 439:../Firmware/RISCV/drivers/core_feature_base.h ****  *
 440:../Firmware/RISCV/drivers/core_feature_base.h ****  * The following functions or macros provide access to Core CSR registers.
 441:../Firmware/RISCV/drivers/core_feature_base.h ****  * - \ref NMSIS_Core_CSR_Encoding
 442:../Firmware/RISCV/drivers/core_feature_base.h ****  * - \ref NMSIS_Core_CSR_Registers
 443:../Firmware/RISCV/drivers/core_feature_base.h ****  *   @{
 444:../Firmware/RISCV/drivers/core_feature_base.h ****  */
 445:../Firmware/RISCV/drivers/core_feature_base.h **** 
 446:../Firmware/RISCV/drivers/core_feature_base.h **** 
 447:../Firmware/RISCV/drivers/core_feature_base.h **** #ifndef __ASSEMBLY__
 448:../Firmware/RISCV/drivers/core_feature_base.h **** 
 449:../Firmware/RISCV/drivers/core_feature_base.h **** /**
 450:../Firmware/RISCV/drivers/core_feature_base.h ****  * \brief CSR operation Macro for csrrw instruction.
 451:../Firmware/RISCV/drivers/core_feature_base.h ****  * \details
 452:../Firmware/RISCV/drivers/core_feature_base.h ****  * Read the content of csr register to __v,
 453:../Firmware/RISCV/drivers/core_feature_base.h ****  * then write content of val into csr register, then return __v
 454:../Firmware/RISCV/drivers/core_feature_base.h ****  * \param csr   CSR macro definition defined in
 455:../Firmware/RISCV/drivers/core_feature_base.h ****  *              \ref NMSIS_Core_CSR_Registers, eg. \ref CSR_MSTATUS
 456:../Firmware/RISCV/drivers/core_feature_base.h ****  * \param val   value to store into the CSR register
 457:../Firmware/RISCV/drivers/core_feature_base.h ****  * \return the CSR register value before written
 458:../Firmware/RISCV/drivers/core_feature_base.h ****  */
 459:../Firmware/RISCV/drivers/core_feature_base.h **** #define __RV_CSR_SWAP(csr, val)                                 \
 460:../Firmware/RISCV/drivers/core_feature_base.h ****     ({                                                          \
 461:../Firmware/RISCV/drivers/core_feature_base.h ****         register rv_csr_t __v = (unsigned long)(val);           \
 462:../Firmware/RISCV/drivers/core_feature_base.h ****         __ASM volatile("csrrw %0, " STRINGIFY(csr) ", %1"       \
 463:../Firmware/RISCV/drivers/core_feature_base.h ****                      : "=r"(__v)                                \
 464:../Firmware/RISCV/drivers/core_feature_base.h ****                      : "r"(__v)                                \
 465:../Firmware/RISCV/drivers/core_feature_base.h ****                      : "memory");                               \
 466:../Firmware/RISCV/drivers/core_feature_base.h ****         __v;                                                    \
 467:../Firmware/RISCV/drivers/core_feature_base.h ****     })
 468:../Firmware/RISCV/drivers/core_feature_base.h **** 
 469:../Firmware/RISCV/drivers/core_feature_base.h **** /**
 470:../Firmware/RISCV/drivers/core_feature_base.h ****  * \brief CSR operation Macro for csrr instruction.
 471:../Firmware/RISCV/drivers/core_feature_base.h ****  * \details
 472:../Firmware/RISCV/drivers/core_feature_base.h ****  * Read the content of csr register to __v and return it
 473:../Firmware/RISCV/drivers/core_feature_base.h ****  * \param csr   CSR macro definition defined in
 474:../Firmware/RISCV/drivers/core_feature_base.h ****  *              \ref NMSIS_Core_CSR_Registers, eg. \ref CSR_MSTATUS
 475:../Firmware/RISCV/drivers/core_feature_base.h ****  * \return the CSR register value
 476:../Firmware/RISCV/drivers/core_feature_base.h ****  */
 477:../Firmware/RISCV/drivers/core_feature_base.h **** #define __RV_CSR_READ(csr)                                      \
 478:../Firmware/RISCV/drivers/core_feature_base.h ****     ({                                                          \
 479:../Firmware/RISCV/drivers/core_feature_base.h ****         register rv_csr_t __v;                                  \
 480:../Firmware/RISCV/drivers/core_feature_base.h ****         __ASM volatile("csrr %0, " STRINGIFY(csr)               \
 481:../Firmware/RISCV/drivers/core_feature_base.h ****                      : "=r"(__v)                                \
 482:../Firmware/RISCV/drivers/core_feature_base.h ****                      :                                          \
 483:../Firmware/RISCV/drivers/core_feature_base.h ****                      : "memory");                               \
 484:../Firmware/RISCV/drivers/core_feature_base.h ****         __v;                                                    \
 485:../Firmware/RISCV/drivers/core_feature_base.h ****     })
 486:../Firmware/RISCV/drivers/core_feature_base.h **** 
 487:../Firmware/RISCV/drivers/core_feature_base.h **** /**
 488:../Firmware/RISCV/drivers/core_feature_base.h ****  * \brief CSR operation Macro for csrw instruction.
 489:../Firmware/RISCV/drivers/core_feature_base.h ****  * \details
 490:../Firmware/RISCV/drivers/core_feature_base.h ****  * Write the content of val to csr register
 491:../Firmware/RISCV/drivers/core_feature_base.h ****  * \param csr   CSR macro definition defined in
 492:../Firmware/RISCV/drivers/core_feature_base.h ****  *              \ref NMSIS_Core_CSR_Registers, eg. \ref CSR_MSTATUS
 493:../Firmware/RISCV/drivers/core_feature_base.h ****  * \param val   value to store into the CSR register
 494:../Firmware/RISCV/drivers/core_feature_base.h ****  */
 495:../Firmware/RISCV/drivers/core_feature_base.h **** #define __RV_CSR_WRITE(csr, val)                                \
 496:../Firmware/RISCV/drivers/core_feature_base.h ****     ({                                                          \
 497:../Firmware/RISCV/drivers/core_feature_base.h ****         register rv_csr_t __v = (rv_csr_t)(val);                \
 498:../Firmware/RISCV/drivers/core_feature_base.h ****         __ASM volatile("csrw " STRINGIFY(csr) ", %0"            \
 499:../Firmware/RISCV/drivers/core_feature_base.h ****                      :                                          \
 500:../Firmware/RISCV/drivers/core_feature_base.h ****                      : "r"(__v)                                \
 501:../Firmware/RISCV/drivers/core_feature_base.h ****                      : "memory");                               \
 502:../Firmware/RISCV/drivers/core_feature_base.h ****     })
 503:../Firmware/RISCV/drivers/core_feature_base.h **** 
 504:../Firmware/RISCV/drivers/core_feature_base.h **** /**
 505:../Firmware/RISCV/drivers/core_feature_base.h ****  * \brief CSR operation Macro for csrrs instruction.
 506:../Firmware/RISCV/drivers/core_feature_base.h ****  * \details
 507:../Firmware/RISCV/drivers/core_feature_base.h ****  * Read the content of csr register to __v,
 508:../Firmware/RISCV/drivers/core_feature_base.h ****  * then set csr register to be __v | val, then return __v
 509:../Firmware/RISCV/drivers/core_feature_base.h ****  * \param csr   CSR macro definition defined in
 510:../Firmware/RISCV/drivers/core_feature_base.h ****  *              \ref NMSIS_Core_CSR_Registers, eg. \ref CSR_MSTATUS
 511:../Firmware/RISCV/drivers/core_feature_base.h ****  * \param val   Mask value to be used wih csrrs instruction
 512:../Firmware/RISCV/drivers/core_feature_base.h ****  * \return the CSR register value before written
 513:../Firmware/RISCV/drivers/core_feature_base.h ****  */
 514:../Firmware/RISCV/drivers/core_feature_base.h **** #define __RV_CSR_READ_SET(csr, val)                             \
 515:../Firmware/RISCV/drivers/core_feature_base.h ****     ({                                                          \
 516:../Firmware/RISCV/drivers/core_feature_base.h ****         register rv_csr_t __v = (rv_csr_t)(val);                \
 517:../Firmware/RISCV/drivers/core_feature_base.h ****         __ASM volatile("csrrs %0, " STRINGIFY(csr) ", %1"       \
 518:../Firmware/RISCV/drivers/core_feature_base.h ****                      : "=r"(__v)                                \
 519:../Firmware/RISCV/drivers/core_feature_base.h ****                      : "r"(__v)                                \
 520:../Firmware/RISCV/drivers/core_feature_base.h ****                      : "memory");                               \
 521:../Firmware/RISCV/drivers/core_feature_base.h ****         __v;                                                    \
 522:../Firmware/RISCV/drivers/core_feature_base.h ****     })
 523:../Firmware/RISCV/drivers/core_feature_base.h **** 
 524:../Firmware/RISCV/drivers/core_feature_base.h **** /**
 525:../Firmware/RISCV/drivers/core_feature_base.h ****  * \brief CSR operation Macro for csrs instruction.
 526:../Firmware/RISCV/drivers/core_feature_base.h ****  * \details
 527:../Firmware/RISCV/drivers/core_feature_base.h ****  * Set csr register to be csr_content | val
 528:../Firmware/RISCV/drivers/core_feature_base.h ****  * \param csr   CSR macro definition defined in
 529:../Firmware/RISCV/drivers/core_feature_base.h ****  *              \ref NMSIS_Core_CSR_Registers, eg. \ref CSR_MSTATUS
 530:../Firmware/RISCV/drivers/core_feature_base.h ****  * \param val   Mask value to be used wih csrs instruction
 531:../Firmware/RISCV/drivers/core_feature_base.h ****  */
 532:../Firmware/RISCV/drivers/core_feature_base.h **** #define __RV_CSR_SET(csr, val)                                  \
 533:../Firmware/RISCV/drivers/core_feature_base.h ****     ({                                                          \
 534:../Firmware/RISCV/drivers/core_feature_base.h ****         register rv_csr_t __v = (rv_csr_t)(val);                \
 535:../Firmware/RISCV/drivers/core_feature_base.h ****         __ASM volatile("csrs " STRINGIFY(csr) ", %0"            \
 536:../Firmware/RISCV/drivers/core_feature_base.h ****                      :                                          \
 537:../Firmware/RISCV/drivers/core_feature_base.h ****                      : "r"(__v)                                \
 538:../Firmware/RISCV/drivers/core_feature_base.h ****                      : "memory");                               \
 539:../Firmware/RISCV/drivers/core_feature_base.h ****     })
 540:../Firmware/RISCV/drivers/core_feature_base.h **** 
 541:../Firmware/RISCV/drivers/core_feature_base.h **** /**
 542:../Firmware/RISCV/drivers/core_feature_base.h ****  * \brief CSR operation Macro for csrrc instruction.
 543:../Firmware/RISCV/drivers/core_feature_base.h ****  * \details
 544:../Firmware/RISCV/drivers/core_feature_base.h ****  * Read the content of csr register to __v,
 545:../Firmware/RISCV/drivers/core_feature_base.h ****  * then set csr register to be __v & ~val, then return __v
 546:../Firmware/RISCV/drivers/core_feature_base.h ****  * \param csr   CSR macro definition defined in
 547:../Firmware/RISCV/drivers/core_feature_base.h ****  *              \ref NMSIS_Core_CSR_Registers, eg. \ref CSR_MSTATUS
 548:../Firmware/RISCV/drivers/core_feature_base.h ****  * \param val   Mask value to be used wih csrrc instruction
 549:../Firmware/RISCV/drivers/core_feature_base.h ****  * \return the CSR register value before written
 550:../Firmware/RISCV/drivers/core_feature_base.h ****  */
 551:../Firmware/RISCV/drivers/core_feature_base.h **** #define __RV_CSR_READ_CLEAR(csr, val)                           \
 552:../Firmware/RISCV/drivers/core_feature_base.h ****     ({                                                          \
 553:../Firmware/RISCV/drivers/core_feature_base.h ****         register rv_csr_t __v = (rv_csr_t)(val);                \
 554:../Firmware/RISCV/drivers/core_feature_base.h ****         __ASM volatile("csrrc %0, " STRINGIFY(csr) ", %1"       \
 555:../Firmware/RISCV/drivers/core_feature_base.h ****                      : "=r"(__v)                                \
 556:../Firmware/RISCV/drivers/core_feature_base.h ****                      : "r"(__v)                                \
 557:../Firmware/RISCV/drivers/core_feature_base.h ****                      : "memory");                               \
 558:../Firmware/RISCV/drivers/core_feature_base.h ****         __v;                                                    \
 559:../Firmware/RISCV/drivers/core_feature_base.h ****     })
 560:../Firmware/RISCV/drivers/core_feature_base.h **** 
 561:../Firmware/RISCV/drivers/core_feature_base.h **** /**
 562:../Firmware/RISCV/drivers/core_feature_base.h ****  * \brief CSR operation Macro for csrc instruction.
 563:../Firmware/RISCV/drivers/core_feature_base.h ****  * \details
 564:../Firmware/RISCV/drivers/core_feature_base.h ****  * Set csr register to be csr_content & ~val
 565:../Firmware/RISCV/drivers/core_feature_base.h ****  * \param csr   CSR macro definition defined in
 566:../Firmware/RISCV/drivers/core_feature_base.h ****  *              \ref NMSIS_Core_CSR_Registers, eg. \ref CSR_MSTATUS
 567:../Firmware/RISCV/drivers/core_feature_base.h ****  * \param val   Mask value to be used wih csrc instruction
 568:../Firmware/RISCV/drivers/core_feature_base.h ****  */
 569:../Firmware/RISCV/drivers/core_feature_base.h **** #define __RV_CSR_CLEAR(csr, val)                                \
 570:../Firmware/RISCV/drivers/core_feature_base.h ****     ({                                                          \
 571:../Firmware/RISCV/drivers/core_feature_base.h ****         register rv_csr_t __v = (rv_csr_t)(val);                \
 572:../Firmware/RISCV/drivers/core_feature_base.h ****         __ASM volatile("csrc " STRINGIFY(csr) ", %0"            \
 573:../Firmware/RISCV/drivers/core_feature_base.h ****                      :                                          \
 574:../Firmware/RISCV/drivers/core_feature_base.h ****                      : "r"(__v)                                \
 575:../Firmware/RISCV/drivers/core_feature_base.h ****                      : "memory");                               \
 576:../Firmware/RISCV/drivers/core_feature_base.h ****     })
 577:../Firmware/RISCV/drivers/core_feature_base.h **** #endif /* __ASSEMBLY__ */
 578:../Firmware/RISCV/drivers/core_feature_base.h **** 
 579:../Firmware/RISCV/drivers/core_feature_base.h **** /**
 580:../Firmware/RISCV/drivers/core_feature_base.h ****  * \brief   Enable IRQ Interrupts
 581:../Firmware/RISCV/drivers/core_feature_base.h ****  * \details Enables IRQ interrupts by setting the MIE-bit in the MSTATUS Register.
 582:../Firmware/RISCV/drivers/core_feature_base.h ****  * \remarks
 583:../Firmware/RISCV/drivers/core_feature_base.h ****  *          Can only be executed in Privileged modes.
 584:../Firmware/RISCV/drivers/core_feature_base.h ****  */
 585:../Firmware/RISCV/drivers/core_feature_base.h **** __STATIC_FORCEINLINE void __enable_irq(void)
 586:../Firmware/RISCV/drivers/core_feature_base.h **** {
 587:../Firmware/RISCV/drivers/core_feature_base.h ****     __RV_CSR_SET(CSR_MSTATUS, MSTATUS_MIE);
 588:../Firmware/RISCV/drivers/core_feature_base.h **** }
 589:../Firmware/RISCV/drivers/core_feature_base.h **** 
 590:../Firmware/RISCV/drivers/core_feature_base.h **** /**
 591:../Firmware/RISCV/drivers/core_feature_base.h ****  * \brief   Disable IRQ Interrupts
 592:../Firmware/RISCV/drivers/core_feature_base.h ****  * \details Disables IRQ interrupts by clearing the MIE-bit in the MSTATUS Register.
 593:../Firmware/RISCV/drivers/core_feature_base.h ****  * \remarks
 594:../Firmware/RISCV/drivers/core_feature_base.h ****  *          Can only be executed in Privileged modes.
 595:../Firmware/RISCV/drivers/core_feature_base.h ****  */
 596:../Firmware/RISCV/drivers/core_feature_base.h **** __STATIC_FORCEINLINE void __disable_irq(void)
 597:../Firmware/RISCV/drivers/core_feature_base.h **** {
 598:../Firmware/RISCV/drivers/core_feature_base.h ****     __RV_CSR_CLEAR(CSR_MSTATUS, MSTATUS_MIE);
 599:../Firmware/RISCV/drivers/core_feature_base.h **** }
 600:../Firmware/RISCV/drivers/core_feature_base.h **** 
 601:../Firmware/RISCV/drivers/core_feature_base.h **** /**
 602:../Firmware/RISCV/drivers/core_feature_base.h ****  * \brief   Read whole 64 bits value of mcycle counter
 603:../Firmware/RISCV/drivers/core_feature_base.h ****  * \details This function will read the whole 64 bits of MCYCLE register
 604:../Firmware/RISCV/drivers/core_feature_base.h ****  * \return  The whole 64 bits value of MCYCLE
 605:../Firmware/RISCV/drivers/core_feature_base.h ****  * \remarks It will work for both RV32 and RV64 to get full 64bits value of MCYCLE
 606:../Firmware/RISCV/drivers/core_feature_base.h ****  */
 607:../Firmware/RISCV/drivers/core_feature_base.h **** __STATIC_FORCEINLINE uint64_t __get_rv_cycle(void)
 608:../Firmware/RISCV/drivers/core_feature_base.h **** {
 609:../Firmware/RISCV/drivers/core_feature_base.h **** #if __RISCV_XLEN == 32
 610:../Firmware/RISCV/drivers/core_feature_base.h ****     volatile uint32_t high0, low, high;
 611:../Firmware/RISCV/drivers/core_feature_base.h ****     uint64_t full;
 612:../Firmware/RISCV/drivers/core_feature_base.h **** 
 613:../Firmware/RISCV/drivers/core_feature_base.h ****     high0 = __RV_CSR_READ(CSR_MCYCLEH);
 614:../Firmware/RISCV/drivers/core_feature_base.h ****     low = __RV_CSR_READ(CSR_MCYCLE);
 615:../Firmware/RISCV/drivers/core_feature_base.h ****     high = __RV_CSR_READ(CSR_MCYCLEH);
 616:../Firmware/RISCV/drivers/core_feature_base.h ****     if (high0 != high) {
 617:../Firmware/RISCV/drivers/core_feature_base.h ****         low = __RV_CSR_READ(CSR_MCYCLE);
 618:../Firmware/RISCV/drivers/core_feature_base.h ****     }
 619:../Firmware/RISCV/drivers/core_feature_base.h ****     full = (((uint64_t)high) << 32) | low;
 620:../Firmware/RISCV/drivers/core_feature_base.h ****     return full;
 621:../Firmware/RISCV/drivers/core_feature_base.h **** #elif __RISCV_XLEN == 64
 622:../Firmware/RISCV/drivers/core_feature_base.h ****     return (uint64_t)__RV_CSR_READ(CSR_MCYCLE);
 623:../Firmware/RISCV/drivers/core_feature_base.h **** #else // TODO Need cover for XLEN=128 case in future
 624:../Firmware/RISCV/drivers/core_feature_base.h ****     return (uint64_t)__RV_CSR_READ(CSR_MCYCLE);
 625:../Firmware/RISCV/drivers/core_feature_base.h **** #endif
 626:../Firmware/RISCV/drivers/core_feature_base.h **** }
 627:../Firmware/RISCV/drivers/core_feature_base.h **** 
 628:../Firmware/RISCV/drivers/core_feature_base.h **** /**
 629:../Firmware/RISCV/drivers/core_feature_base.h ****  * \brief   Read whole 64 bits value of machine instruction-retired counter
 630:../Firmware/RISCV/drivers/core_feature_base.h ****  * \details This function will read the whole 64 bits of MINSTRET register
 631:../Firmware/RISCV/drivers/core_feature_base.h ****  * \return  The whole 64 bits value of MINSTRET
 632:../Firmware/RISCV/drivers/core_feature_base.h ****  * \remarks It will work for both RV32 and RV64 to get full 64bits value of MINSTRET
 633:../Firmware/RISCV/drivers/core_feature_base.h ****  */
 634:../Firmware/RISCV/drivers/core_feature_base.h **** __STATIC_FORCEINLINE uint64_t __get_rv_instret(void)
 635:../Firmware/RISCV/drivers/core_feature_base.h **** {
 636:../Firmware/RISCV/drivers/core_feature_base.h **** #if __RISCV_XLEN == 32
 637:../Firmware/RISCV/drivers/core_feature_base.h ****     volatile uint32_t high0, low, high;
 638:../Firmware/RISCV/drivers/core_feature_base.h ****     uint64_t full;
 639:../Firmware/RISCV/drivers/core_feature_base.h **** 
 640:../Firmware/RISCV/drivers/core_feature_base.h ****     high0 = __RV_CSR_READ(CSR_MINSTRETH);
 641:../Firmware/RISCV/drivers/core_feature_base.h ****     low = __RV_CSR_READ(CSR_MINSTRET);
 642:../Firmware/RISCV/drivers/core_feature_base.h ****     high = __RV_CSR_READ(CSR_MINSTRETH);
 643:../Firmware/RISCV/drivers/core_feature_base.h ****     if (high0 != high) {
 644:../Firmware/RISCV/drivers/core_feature_base.h ****         low = __RV_CSR_READ(CSR_MINSTRET);
 645:../Firmware/RISCV/drivers/core_feature_base.h ****     }
 646:../Firmware/RISCV/drivers/core_feature_base.h ****     full = (((uint64_t)high) << 32) | low;
 647:../Firmware/RISCV/drivers/core_feature_base.h ****     return full;
 648:../Firmware/RISCV/drivers/core_feature_base.h **** #elif __RISCV_XLEN == 64
 649:../Firmware/RISCV/drivers/core_feature_base.h ****     return (uint64_t)__RV_CSR_READ(CSR_MINSTRET);
 650:../Firmware/RISCV/drivers/core_feature_base.h **** #else // TODO Need cover for XLEN=128 case in future
 651:../Firmware/RISCV/drivers/core_feature_base.h ****     return (uint64_t)__RV_CSR_READ(CSR_MINSTRET);
 652:../Firmware/RISCV/drivers/core_feature_base.h **** #endif
 653:../Firmware/RISCV/drivers/core_feature_base.h **** }
 654:../Firmware/RISCV/drivers/core_feature_base.h **** 
 655:../Firmware/RISCV/drivers/core_feature_base.h **** /**
 656:../Firmware/RISCV/drivers/core_feature_base.h ****  * \brief   Read whole 64 bits value of real-time clock
 657:../Firmware/RISCV/drivers/core_feature_base.h ****  * \details This function will read the whole 64 bits of TIME register
 658:../Firmware/RISCV/drivers/core_feature_base.h ****  * \return  The whole 64 bits value of TIME CSR
 659:../Firmware/RISCV/drivers/core_feature_base.h ****  * \remarks It will work for both RV32 and RV64 to get full 64bits value of TIME
 660:../Firmware/RISCV/drivers/core_feature_base.h ****  * \attention only available when user mode available
 661:../Firmware/RISCV/drivers/core_feature_base.h ****  */
 662:../Firmware/RISCV/drivers/core_feature_base.h **** __STATIC_FORCEINLINE uint64_t __get_rv_time(void)
 663:../Firmware/RISCV/drivers/core_feature_base.h **** {
 664:../Firmware/RISCV/drivers/core_feature_base.h **** #if __RISCV_XLEN == 32
 665:../Firmware/RISCV/drivers/core_feature_base.h ****     volatile uint32_t high0, low, high;
 666:../Firmware/RISCV/drivers/core_feature_base.h ****     uint64_t full;
 667:../Firmware/RISCV/drivers/core_feature_base.h **** 
 668:../Firmware/RISCV/drivers/core_feature_base.h ****     high0 = __RV_CSR_READ(CSR_TIMEH);
 669:../Firmware/RISCV/drivers/core_feature_base.h ****     low = __RV_CSR_READ(CSR_TIME);
 670:../Firmware/RISCV/drivers/core_feature_base.h ****     high = __RV_CSR_READ(CSR_TIMEH);
 671:../Firmware/RISCV/drivers/core_feature_base.h ****     if (high0 != high) {
 672:../Firmware/RISCV/drivers/core_feature_base.h ****         low = __RV_CSR_READ(CSR_TIME);
 673:../Firmware/RISCV/drivers/core_feature_base.h ****     }
 674:../Firmware/RISCV/drivers/core_feature_base.h ****     full = (((uint64_t)high) << 32) | low;
 675:../Firmware/RISCV/drivers/core_feature_base.h ****     return full;
 676:../Firmware/RISCV/drivers/core_feature_base.h **** #elif __RISCV_XLEN == 64
 677:../Firmware/RISCV/drivers/core_feature_base.h ****     return (uint64_t)__RV_CSR_READ(CSR_TIME);
 678:../Firmware/RISCV/drivers/core_feature_base.h **** #else // TODO Need cover for XLEN=128 case in future
 679:../Firmware/RISCV/drivers/core_feature_base.h ****     return (uint64_t)__RV_CSR_READ(CSR_TIME);
 680:../Firmware/RISCV/drivers/core_feature_base.h **** #endif
 681:../Firmware/RISCV/drivers/core_feature_base.h **** }
 682:../Firmware/RISCV/drivers/core_feature_base.h **** 
 683:../Firmware/RISCV/drivers/core_feature_base.h **** /** @} */ /* End of Doxygen Group NMSIS_Core_CSR_Register_Access */
 684:../Firmware/RISCV/drivers/core_feature_base.h **** 
 685:../Firmware/RISCV/drivers/core_feature_base.h **** /* ###########################  CPU Intrinsic Functions ########################### */
 686:../Firmware/RISCV/drivers/core_feature_base.h **** /**
 687:../Firmware/RISCV/drivers/core_feature_base.h ****  * \defgroup NMSIS_Core_CPU_Intrinsic   Intrinsic Functions for CPU Intructions
 688:../Firmware/RISCV/drivers/core_feature_base.h ****  * \ingroup  NMSIS_Core
 689:../Firmware/RISCV/drivers/core_feature_base.h ****  * \brief    Functions that generate RISC-V CPU instructions.
 690:../Firmware/RISCV/drivers/core_feature_base.h ****  * \details
 691:../Firmware/RISCV/drivers/core_feature_base.h ****  *
 692:../Firmware/RISCV/drivers/core_feature_base.h ****  * The following functions generate specified RISC-V instructions that cannot be directly accessed 
 693:../Firmware/RISCV/drivers/core_feature_base.h ****  *   @{
 694:../Firmware/RISCV/drivers/core_feature_base.h ****  */
 695:../Firmware/RISCV/drivers/core_feature_base.h **** 
 696:../Firmware/RISCV/drivers/core_feature_base.h **** /**
 697:../Firmware/RISCV/drivers/core_feature_base.h ****  * \brief   NOP Instruction
 698:../Firmware/RISCV/drivers/core_feature_base.h ****  * \details
 699:../Firmware/RISCV/drivers/core_feature_base.h ****  * No Operation does nothing.
 700:../Firmware/RISCV/drivers/core_feature_base.h ****  * This instruction can be used for code alignment purposes.
 701:../Firmware/RISCV/drivers/core_feature_base.h ****  */
 702:../Firmware/RISCV/drivers/core_feature_base.h **** __STATIC_FORCEINLINE void __NOP(void)
 703:../Firmware/RISCV/drivers/core_feature_base.h **** {
 704:../Firmware/RISCV/drivers/core_feature_base.h ****     __ASM volatile("nop");
 705:../Firmware/RISCV/drivers/core_feature_base.h **** }
 706:../Firmware/RISCV/drivers/core_feature_base.h **** 
 707:../Firmware/RISCV/drivers/core_feature_base.h **** /**
 708:../Firmware/RISCV/drivers/core_feature_base.h ****  * \brief   Wait For Interrupt
 709:../Firmware/RISCV/drivers/core_feature_base.h ****  * \details
 710:../Firmware/RISCV/drivers/core_feature_base.h ****  * Wait For Interrupt is is executed using CSR_WFE.WFE=0 and WFI instruction.
 711:../Firmware/RISCV/drivers/core_feature_base.h ****  * It will suspends execution until interrupt, NMI or Debug happened.
 712:../Firmware/RISCV/drivers/core_feature_base.h ****  * When Core is waked up by interrupt, if
 713:../Firmware/RISCV/drivers/core_feature_base.h ****  * 1. mstatus.MIE == 1(interrupt enabled), Core will enter ISR code
 714:../Firmware/RISCV/drivers/core_feature_base.h ****  * 2. mstatus.MIE == 0(interrupt disabled), Core will resume previous execution
 715:../Firmware/RISCV/drivers/core_feature_base.h ****  */
 716:../Firmware/RISCV/drivers/core_feature_base.h **** __STATIC_FORCEINLINE void __WFI(void)
 717:../Firmware/RISCV/drivers/core_feature_base.h **** {
 718:../Firmware/RISCV/drivers/core_feature_base.h ****     __RV_CSR_CLEAR(CSR_WFE, WFE_WFE);
 719:../Firmware/RISCV/drivers/core_feature_base.h ****     __ASM volatile("wfi");
 720:../Firmware/RISCV/drivers/core_feature_base.h **** }
 721:../Firmware/RISCV/drivers/core_feature_base.h **** 
 722:../Firmware/RISCV/drivers/core_feature_base.h **** /**
 723:../Firmware/RISCV/drivers/core_feature_base.h ****  * \brief   Wait For Event
 724:../Firmware/RISCV/drivers/core_feature_base.h ****  * \details
 725:../Firmware/RISCV/drivers/core_feature_base.h ****  * Wait For Event is executed using CSR_WFE.WFE=1 and WFI instruction.
 726:../Firmware/RISCV/drivers/core_feature_base.h ****  * It will suspends execution until event, NMI or Debug happened.
 727:../Firmware/RISCV/drivers/core_feature_base.h ****  * When Core is waked up, Core will resume previous execution
 728:../Firmware/RISCV/drivers/core_feature_base.h ****  */
 729:../Firmware/RISCV/drivers/core_feature_base.h **** __STATIC_FORCEINLINE void __WFE(void)
 730:../Firmware/RISCV/drivers/core_feature_base.h **** {
 731:../Firmware/RISCV/drivers/core_feature_base.h ****     __RV_CSR_SET(CSR_WFE, WFE_WFE);
 732:../Firmware/RISCV/drivers/core_feature_base.h ****     __ASM volatile("wfi");
 733:../Firmware/RISCV/drivers/core_feature_base.h ****     __RV_CSR_CLEAR(CSR_WFE, WFE_WFE);
 734:../Firmware/RISCV/drivers/core_feature_base.h **** }
 735:../Firmware/RISCV/drivers/core_feature_base.h **** 
 736:../Firmware/RISCV/drivers/core_feature_base.h **** /**
 737:../Firmware/RISCV/drivers/core_feature_base.h ****  * \brief   Breakpoint Instruction
 738:../Firmware/RISCV/drivers/core_feature_base.h ****  * \details
 739:../Firmware/RISCV/drivers/core_feature_base.h ****  * Causes the processor to enter Debug state.
 740:../Firmware/RISCV/drivers/core_feature_base.h ****  * Debug tools can use this to investigate system state
 741:../Firmware/RISCV/drivers/core_feature_base.h ****  * when the instruction at a particular address is reached.
 742:../Firmware/RISCV/drivers/core_feature_base.h ****  */
 743:../Firmware/RISCV/drivers/core_feature_base.h **** __STATIC_FORCEINLINE void __EBREAK(void)
 744:../Firmware/RISCV/drivers/core_feature_base.h **** {
 745:../Firmware/RISCV/drivers/core_feature_base.h ****     __ASM volatile("ebreak");
 746:../Firmware/RISCV/drivers/core_feature_base.h **** }
 747:../Firmware/RISCV/drivers/core_feature_base.h **** 
 748:../Firmware/RISCV/drivers/core_feature_base.h **** /**
 749:../Firmware/RISCV/drivers/core_feature_base.h ****  * \brief   Environment Call Instruction
 750:../Firmware/RISCV/drivers/core_feature_base.h ****  * \details
 751:../Firmware/RISCV/drivers/core_feature_base.h ****  * The ECALL instruction is used to make a service request to
 752:../Firmware/RISCV/drivers/core_feature_base.h ****  * the execution environment.
 753:../Firmware/RISCV/drivers/core_feature_base.h ****  */
 754:../Firmware/RISCV/drivers/core_feature_base.h **** __STATIC_FORCEINLINE void __ECALL(void)
 755:../Firmware/RISCV/drivers/core_feature_base.h **** {
 756:../Firmware/RISCV/drivers/core_feature_base.h ****     __ASM volatile("ecall");
 757:../Firmware/RISCV/drivers/core_feature_base.h **** }
 758:../Firmware/RISCV/drivers/core_feature_base.h **** 
 759:../Firmware/RISCV/drivers/core_feature_base.h **** /**
 760:../Firmware/RISCV/drivers/core_feature_base.h ****  * \brief WFI Sleep Mode enumeration
 761:../Firmware/RISCV/drivers/core_feature_base.h ****  */
 762:../Firmware/RISCV/drivers/core_feature_base.h **** typedef enum WFI_SleepMode {
 763:../Firmware/RISCV/drivers/core_feature_base.h ****     WFI_SHALLOW_SLEEP = 0,      /*!< Shallow sleep mode, the core_clk will poweroff */
 764:../Firmware/RISCV/drivers/core_feature_base.h ****     WFI_DEEP_SLEEP = 1          /*!< Deep sleep mode, the core_clk and core_ano_clk will poweroff *
 765:../Firmware/RISCV/drivers/core_feature_base.h **** } WFI_SleepMode_Type;
 766:../Firmware/RISCV/drivers/core_feature_base.h **** 
 767:../Firmware/RISCV/drivers/core_feature_base.h **** /**
 768:../Firmware/RISCV/drivers/core_feature_base.h ****  * \brief   Set Sleep mode of WFI
 769:../Firmware/RISCV/drivers/core_feature_base.h ****  * \details
 770:../Firmware/RISCV/drivers/core_feature_base.h ****  * Set the SLEEPVALUE CSR register to control the
 771:../Firmware/RISCV/drivers/core_feature_base.h ****  * WFI Sleep mode.
 772:../Firmware/RISCV/drivers/core_feature_base.h ****  * \param[in] mode      The sleep mode to be set
 773:../Firmware/RISCV/drivers/core_feature_base.h ****  */
 774:../Firmware/RISCV/drivers/core_feature_base.h **** __STATIC_FORCEINLINE void __set_wfi_sleepmode(WFI_SleepMode_Type mode)
 775:../Firmware/RISCV/drivers/core_feature_base.h **** {
 776:../Firmware/RISCV/drivers/core_feature_base.h ****     __RV_CSR_WRITE(CSR_SLEEPVALUE, mode);
 245              		.loc 2 776 5
 246 0012 8324C4FE 		lw	s1,-20(s0)
 247              	 #APP
 248              	# 776 "../Firmware/RISCV/drivers/core_feature_base.h" 1
 777              	}
 249              		csrw 0x811, s1
 250              	# 0 "" 2
 251              	 #NO_APP
 252              	.LBE55:
 253              		.loc 2 777 1
 254 001a 0100     		nop
 255              	.LBE54:
 256              	.LBE53:
 133:../Firmware/GD32VW55x_standard_peripheral/Source/gd32vw55x_pmu.c ****     /* clear sleepdeep bit of RISC-V system control register */
 134:../Firmware/GD32VW55x_standard_peripheral/Source/gd32vw55x_pmu.c ****     __set_wfi_sleepmode(WFI_SHALLOW_SLEEP);
 135:../Firmware/GD32VW55x_standard_peripheral/Source/gd32vw55x_pmu.c **** 
 136:../Firmware/GD32VW55x_standard_peripheral/Source/gd32vw55x_pmu.c ****     /* select WFI or WFE command to enter sleep mode */
 137:../Firmware/GD32VW55x_standard_peripheral/Source/gd32vw55x_pmu.c ****     if(WFI_CMD == sleepmodecmd){
 257              		.loc 1 137 7
 258 001c 8347F4FD 		lbu	a5,-33(s0)
 259 0020 99E7     		bne	a5,zero,.L8
 260              	.LBB56:
 261              	.LBB57:
 262              	.LBB58:
 718:../Firmware/RISCV/drivers/core_feature_base.h ****     __ASM volatile("wfi");
 263              		.loc 2 718 5
 264 0022 8544     		li	s1,1
 265              	 #APP
 266              	# 718 "../Firmware/RISCV/drivers/core_feature_base.h" 1
 267              		csrc 0x810, s1
 268              	# 0 "" 2
 269              	 #NO_APP
 270              	.LBE58:
 719:../Firmware/RISCV/drivers/core_feature_base.h **** }
 271              		.loc 2 719 5
 272              	 #APP
 273              	# 719 "../Firmware/RISCV/drivers/core_feature_base.h" 1
 720:../Firmware/RISCV/drivers/core_feature_base.h **** 
 274              		wfi
 275              	# 0 "" 2
 276              		.loc 2 720 1
 277              	 #NO_APP
 278 002c 15A0     		j	.L9
 279              	.L8:
 280              	.LBE57:
 281              	.LBE56:
 282              	.LBB59:
 283              	.LBB60:
 284              	.LBB61:
 598:../Firmware/RISCV/drivers/core_feature_base.h **** }
 285              		.loc 2 598 5
 286 002e A144     		li	s1,8
 287              	 #APP
 288              	# 598 "../Firmware/RISCV/drivers/core_feature_base.h" 1
 289              		csrc 0x300, s1
 290              	# 0 "" 2
 291              	 #NO_APP
 292              	.LBE61:
 599:../Firmware/RISCV/drivers/core_feature_base.h **** 
 293              		.loc 2 599 1
 294 0034 0100     		nop
 295              	.LBE60:
 296              	.LBE59:
 297              	.LBB62:
 298              	.LBB63:
 299              	.LBB64:
 731:../Firmware/RISCV/drivers/core_feature_base.h ****     __ASM volatile("wfi");
 300              		.loc 2 731 5
 301 0036 8544     		li	s1,1
 302              	 #APP
 303              	# 731 "../Firmware/RISCV/drivers/core_feature_base.h" 1
 304              		csrs 0x810, s1
 305              	# 0 "" 2
 306              	 #NO_APP
 307              	.LBE64:
 732:../Firmware/RISCV/drivers/core_feature_base.h ****     __RV_CSR_CLEAR(CSR_WFE, WFE_WFE);
 308              		.loc 2 732 5
 309              	 #APP
 310              	# 732 "../Firmware/RISCV/drivers/core_feature_base.h" 1
 311              		wfi
 312              	# 0 "" 2
 313              	 #NO_APP
 314              	.LBB65:
 733:../Firmware/RISCV/drivers/core_feature_base.h **** }
 315              		.loc 2 733 5
 316 0040 8544     		li	s1,1
 317              	 #APP
 318              	# 733 "../Firmware/RISCV/drivers/core_feature_base.h" 1
 319              		csrc 0x810, s1
 320              	# 0 "" 2
 321              	 #NO_APP
 322              	.LBE65:
 734:../Firmware/RISCV/drivers/core_feature_base.h **** 
 323              		.loc 2 734 1
 324 0046 0100     		nop
 325              	.LBE63:
 326              	.LBE62:
 327              	.LBB66:
 328              	.LBB67:
 329              	.LBB68:
 587:../Firmware/RISCV/drivers/core_feature_base.h **** }
 330              		.loc 2 587 5
 331 0048 A144     		li	s1,8
 332              	 #APP
 333              	# 587 "../Firmware/RISCV/drivers/core_feature_base.h" 1
 334              		csrs 0x300, s1
 335              	# 0 "" 2
 336              	 #NO_APP
 337              	.LBE68:
 588:../Firmware/RISCV/drivers/core_feature_base.h **** 
 338              		.loc 2 588 1
 339 004e 0100     		nop
 340              	.L9:
 341              	.LBE67:
 342              	.LBE66:
 138:../Firmware/GD32VW55x_standard_peripheral/Source/gd32vw55x_pmu.c ****         __WFI();
 139:../Firmware/GD32VW55x_standard_peripheral/Source/gd32vw55x_pmu.c ****     }else{
 140:../Firmware/GD32VW55x_standard_peripheral/Source/gd32vw55x_pmu.c ****         __disable_irq();
 141:../Firmware/GD32VW55x_standard_peripheral/Source/gd32vw55x_pmu.c ****         __WFE();
 142:../Firmware/GD32VW55x_standard_peripheral/Source/gd32vw55x_pmu.c ****         __enable_irq();
 143:../Firmware/GD32VW55x_standard_peripheral/Source/gd32vw55x_pmu.c ****     }
 144:../Firmware/GD32VW55x_standard_peripheral/Source/gd32vw55x_pmu.c **** }
 343              		.loc 1 144 1
 344 0050 0100     		nop
 345 0052 3254     		lw	s0,44(sp)
 346              		.cfi_restore 8
 347              		.cfi_def_cfa 2, 48
 348 0054 A254     		lw	s1,40(sp)
 349              		.cfi_restore 9
 350 0056 4561     		addi	sp,sp,48
 351              		.cfi_def_cfa_offset 0
 352 0058 8280     		jr	ra
 353              		.cfi_endproc
 354              	.LFE353:
 356              		.section	.text.pmu_to_deepsleepmode,"ax",@progbits
 357              		.align	1
 358              		.globl	pmu_to_deepsleepmode
 360              	pmu_to_deepsleepmode:
 361              	.LFB354:
 145:../Firmware/GD32VW55x_standard_peripheral/Source/gd32vw55x_pmu.c **** 
 146:../Firmware/GD32VW55x_standard_peripheral/Source/gd32vw55x_pmu.c **** /*!
 147:../Firmware/GD32VW55x_standard_peripheral/Source/gd32vw55x_pmu.c ****     \brief      PMU work in deep-sleep mode
 148:../Firmware/GD32VW55x_standard_peripheral/Source/gd32vw55x_pmu.c ****     \param[in]  ldo:
 149:../Firmware/GD32VW55x_standard_peripheral/Source/gd32vw55x_pmu.c ****                 only one parameter can be selected which is shown as below:
 150:../Firmware/GD32VW55x_standard_peripheral/Source/gd32vw55x_pmu.c ****       \arg        PMU_LDO_NORMAL: LDO normal work when PMU enter deepsleep mode
 151:../Firmware/GD32VW55x_standard_peripheral/Source/gd32vw55x_pmu.c ****       \arg        PMU_LDO_LOWPOWER: LDO work at low power mode when PMU enter deepsleep mode
 152:../Firmware/GD32VW55x_standard_peripheral/Source/gd32vw55x_pmu.c ****     \param[in]  lowdrive:
 153:../Firmware/GD32VW55x_standard_peripheral/Source/gd32vw55x_pmu.c ****                 only one parameter can be selected which is shown as below:
 154:../Firmware/GD32VW55x_standard_peripheral/Source/gd32vw55x_pmu.c ****       \arg        PMU_LOWDRIVER_DISABLE: Low-driver mode disable in deep-sleep mode
 155:../Firmware/GD32VW55x_standard_peripheral/Source/gd32vw55x_pmu.c ****       \arg        PMU_LOWDRIVER_ENABLE: Low-driver mode enable in deep-sleep mode
 156:../Firmware/GD32VW55x_standard_peripheral/Source/gd32vw55x_pmu.c ****     \param[in]  deepsleepmodecmd:
 157:../Firmware/GD32VW55x_standard_peripheral/Source/gd32vw55x_pmu.c ****                 only one parameter can be selected which is shown as below:
 158:../Firmware/GD32VW55x_standard_peripheral/Source/gd32vw55x_pmu.c ****       \arg        WFI_CMD: use WFI command
 159:../Firmware/GD32VW55x_standard_peripheral/Source/gd32vw55x_pmu.c ****       \arg        WFE_CMD: use WFE command
 160:../Firmware/GD32VW55x_standard_peripheral/Source/gd32vw55x_pmu.c ****     \param[out] none
 161:../Firmware/GD32VW55x_standard_peripheral/Source/gd32vw55x_pmu.c ****     \retval     none
 162:../Firmware/GD32VW55x_standard_peripheral/Source/gd32vw55x_pmu.c **** */
 163:../Firmware/GD32VW55x_standard_peripheral/Source/gd32vw55x_pmu.c **** void pmu_to_deepsleepmode(uint32_t ldo, uint32_t lowdrive, uint8_t deepsleepmodecmd)
 164:../Firmware/GD32VW55x_standard_peripheral/Source/gd32vw55x_pmu.c **** {
 362              		.loc 1 164 1
 363              		.cfi_startproc
 364 0000 7971     		addi	sp,sp,-48
 365              		.cfi_def_cfa_offset 48
 366 0002 22D6     		sw	s0,44(sp)
 367 0004 26D4     		sw	s1,40(sp)
 368              		.cfi_offset 8, -4
 369              		.cfi_offset 9, -8
 370 0006 0018     		addi	s0,sp,48
 371              		.cfi_def_cfa 8, 0
 372 0008 232EA4FC 		sw	a0,-36(s0)
 373 000c 232CB4FC 		sw	a1,-40(s0)
 374 0010 B287     		mv	a5,a2
 375 0012 A30BF4FC 		sb	a5,-41(s0)
 165:../Firmware/GD32VW55x_standard_peripheral/Source/gd32vw55x_pmu.c ****     /* clear stbmod and ldolp bits and low drive bits */
 166:../Firmware/GD32VW55x_standard_peripheral/Source/gd32vw55x_pmu.c ****     PMU_CTL0 &= ~((uint32_t)(PMU_CTL0_STBMOD | PMU_CTL0_LDOLP | PMU_CTL0_LDEN | PMU_CTL0_LDNP | PMU
 376              		.loc 1 166 14
 377 0016 B7770040 		li	a5,1073770496
 378 001a 9443     		lw	a3,0(a5)
 379 001c B7770040 		li	a5,1073770496
 380 0020 37F7F3FF 		li	a4,-790528
 381 0024 1307C73F 		addi	a4,a4,1020
 382 0028 758F     		and	a4,a3,a4
 383 002a 98C3     		sw	a4,0(a5)
 167:../Firmware/GD32VW55x_standard_peripheral/Source/gd32vw55x_pmu.c **** 
 168:../Firmware/GD32VW55x_standard_peripheral/Source/gd32vw55x_pmu.c ****     /* set ldolp bit according to pmu_ldo */
 169:../Firmware/GD32VW55x_standard_peripheral/Source/gd32vw55x_pmu.c ****     PMU_CTL0 |= ldo;
 384              		.loc 1 169 14
 385 002c B7770040 		li	a5,1073770496
 386 0030 9443     		lw	a3,0(a5)
 387 0032 B7770040 		li	a5,1073770496
 388 0036 0327C4FD 		lw	a4,-36(s0)
 389 003a 558F     		or	a4,a3,a4
 390 003c 98C3     		sw	a4,0(a5)
 170:../Firmware/GD32VW55x_standard_peripheral/Source/gd32vw55x_pmu.c **** 
 171:../Firmware/GD32VW55x_standard_peripheral/Source/gd32vw55x_pmu.c ****     /* low drive mode config in deep-sleep mode */
 172:../Firmware/GD32VW55x_standard_peripheral/Source/gd32vw55x_pmu.c ****     if(PMU_LOWDRIVER_ENABLE == lowdrive){
 391              		.loc 1 172 7
 392 003e 032784FD 		lw	a4,-40(s0)
 393 0042 B7070C00 		li	a5,786432
 394 0046 631CF702 		bne	a4,a5,.L11
 173:../Firmware/GD32VW55x_standard_peripheral/Source/gd32vw55x_pmu.c ****         if(PMU_LDO_NORMAL == ldo){
 395              		.loc 1 173 11
 396 004a 8327C4FD 		lw	a5,-36(s0)
 397 004e 89EF     		bne	a5,zero,.L12
 174:../Firmware/GD32VW55x_standard_peripheral/Source/gd32vw55x_pmu.c ****             PMU_CTL0 |= (uint32_t)(PMU_CTL0_LDEN | PMU_CTL0_LDNP);
 398              		.loc 1 174 22
 399 0050 B7770040 		li	a5,1073770496
 400 0054 9443     		lw	a3,0(a5)
 401 0056 B7770040 		li	a5,1073770496
 402 005a 37170C00 		li	a4,790528
 403 005e 13070780 		addi	a4,a4,-2048
 404 0062 558F     		or	a4,a3,a4
 405 0064 98C3     		sw	a4,0(a5)
 406 0066 21A8     		j	.L11
 407              	.L12:
 175:../Firmware/GD32VW55x_standard_peripheral/Source/gd32vw55x_pmu.c ****         }else{
 176:../Firmware/GD32VW55x_standard_peripheral/Source/gd32vw55x_pmu.c ****             PMU_CTL0 |= (uint32_t)(PMU_CTL0_LDEN | PMU_CTL0_LDLP);
 408              		.loc 1 176 22
 409 0068 B7770040 		li	a5,1073770496
 410 006c 9443     		lw	a3,0(a5)
 411 006e B7770040 		li	a5,1073770496
 412 0072 37070C00 		li	a4,786432
 413 0076 13070740 		addi	a4,a4,1024
 414 007a 558F     		or	a4,a3,a4
 415 007c 98C3     		sw	a4,0(a5)
 416              	.L11:
 417 007e 8547     		li	a5,1
 418 0080 2326F4FE 		sw	a5,-20(s0)
 419              	.LBB69:
 420              	.LBB70:
 421              	.LBB71:
 776:../Firmware/RISCV/drivers/core_feature_base.h **** }
 422              		.loc 2 776 5
 423 0084 8324C4FE 		lw	s1,-20(s0)
 424              	 #APP
 425              	# 776 "../Firmware/RISCV/drivers/core_feature_base.h" 1
 426              		csrw 0x811, s1
 427              	# 0 "" 2
 428              	 #NO_APP
 429              	.LBE71:
 430              		.loc 2 777 1
 431 008c 0100     		nop
 432              	.LBE70:
 433              	.LBE69:
 177:../Firmware/GD32VW55x_standard_peripheral/Source/gd32vw55x_pmu.c ****         }
 178:../Firmware/GD32VW55x_standard_peripheral/Source/gd32vw55x_pmu.c ****     }
 179:../Firmware/GD32VW55x_standard_peripheral/Source/gd32vw55x_pmu.c **** 
 180:../Firmware/GD32VW55x_standard_peripheral/Source/gd32vw55x_pmu.c ****     /* set CSR_SLEEPVALUE bit of RISC-V system control register */
 181:../Firmware/GD32VW55x_standard_peripheral/Source/gd32vw55x_pmu.c ****     __set_wfi_sleepmode(WFI_DEEP_SLEEP);
 182:../Firmware/GD32VW55x_standard_peripheral/Source/gd32vw55x_pmu.c **** 
 183:../Firmware/GD32VW55x_standard_peripheral/Source/gd32vw55x_pmu.c ****     /* select WFI or WFE command to enter deepsleep mode */
 184:../Firmware/GD32VW55x_standard_peripheral/Source/gd32vw55x_pmu.c ****     if(WFI_CMD == deepsleepmodecmd){
 434              		.loc 1 184 7
 435 008e 834774FD 		lbu	a5,-41(s0)
 436 0092 99E7     		bne	a5,zero,.L13
 437              	.LBB72:
 438              	.LBB73:
 439              	.LBB74:
 718:../Firmware/RISCV/drivers/core_feature_base.h ****     __ASM volatile("wfi");
 440              		.loc 2 718 5
 441 0094 8544     		li	s1,1
 442              	 #APP
 443              	# 718 "../Firmware/RISCV/drivers/core_feature_base.h" 1
 444              		csrc 0x810, s1
 445              	# 0 "" 2
 446              	 #NO_APP
 447              	.LBE74:
 719:../Firmware/RISCV/drivers/core_feature_base.h **** }
 448              		.loc 2 719 5
 449              	 #APP
 450              	# 719 "../Firmware/RISCV/drivers/core_feature_base.h" 1
 720:../Firmware/RISCV/drivers/core_feature_base.h **** 
 451              		wfi
 452              	# 0 "" 2
 453              		.loc 2 720 1
 454              	 #NO_APP
 455 009e 15A0     		j	.L14
 456              	.L13:
 457              	.LBE73:
 458              	.LBE72:
 459              	.LBB75:
 460              	.LBB76:
 461              	.LBB77:
 598:../Firmware/RISCV/drivers/core_feature_base.h **** }
 462              		.loc 2 598 5
 463 00a0 A144     		li	s1,8
 464              	 #APP
 465              	# 598 "../Firmware/RISCV/drivers/core_feature_base.h" 1
 466              		csrc 0x300, s1
 467              	# 0 "" 2
 468              	 #NO_APP
 469              	.LBE77:
 599:../Firmware/RISCV/drivers/core_feature_base.h **** 
 470              		.loc 2 599 1
 471 00a6 0100     		nop
 472              	.LBE76:
 473              	.LBE75:
 474              	.LBB78:
 475              	.LBB79:
 476              	.LBB80:
 731:../Firmware/RISCV/drivers/core_feature_base.h ****     __ASM volatile("wfi");
 477              		.loc 2 731 5
 478 00a8 8544     		li	s1,1
 479              	 #APP
 480              	# 731 "../Firmware/RISCV/drivers/core_feature_base.h" 1
 481              		csrs 0x810, s1
 482              	# 0 "" 2
 483              	 #NO_APP
 484              	.LBE80:
 732:../Firmware/RISCV/drivers/core_feature_base.h ****     __RV_CSR_CLEAR(CSR_WFE, WFE_WFE);
 485              		.loc 2 732 5
 486              	 #APP
 487              	# 732 "../Firmware/RISCV/drivers/core_feature_base.h" 1
 488              		wfi
 489              	# 0 "" 2
 490              	 #NO_APP
 491              	.LBB81:
 733:../Firmware/RISCV/drivers/core_feature_base.h **** }
 492              		.loc 2 733 5
 493 00b2 8544     		li	s1,1
 494              	 #APP
 495              	# 733 "../Firmware/RISCV/drivers/core_feature_base.h" 1
 496              		csrc 0x810, s1
 497              	# 0 "" 2
 498              	 #NO_APP
 499              	.LBE81:
 734:../Firmware/RISCV/drivers/core_feature_base.h **** 
 500              		.loc 2 734 1
 501 00b8 0100     		nop
 502              	.LBE79:
 503              	.LBE78:
 504              	.LBB82:
 505              	.LBB83:
 506              	.LBB84:
 587:../Firmware/RISCV/drivers/core_feature_base.h **** }
 507              		.loc 2 587 5
 508 00ba A144     		li	s1,8
 509              	 #APP
 510              	# 587 "../Firmware/RISCV/drivers/core_feature_base.h" 1
 511              		csrs 0x300, s1
 512              	# 0 "" 2
 513              	 #NO_APP
 514              	.LBE84:
 588:../Firmware/RISCV/drivers/core_feature_base.h **** 
 515              		.loc 2 588 1
 516 00c0 0100     		nop
 517              	.L14:
 518 00c2 232404FE 		sw	zero,-24(s0)
 519              	.LBE83:
 520              	.LBE82:
 521              	.LBB85:
 522              	.LBB86:
 523              	.LBB87:
 776:../Firmware/RISCV/drivers/core_feature_base.h **** }
 524              		.loc 2 776 5
 525 00c6 832484FE 		lw	s1,-24(s0)
 526              	 #APP
 527              	# 776 "../Firmware/RISCV/drivers/core_feature_base.h" 1
 528              		csrw 0x811, s1
 529              	# 0 "" 2
 530              	 #NO_APP
 531              	.LBE87:
 532              		.loc 2 777 1
 533 00ce 0100     		nop
 534              	.LBE86:
 535              	.LBE85:
 185:../Firmware/GD32VW55x_standard_peripheral/Source/gd32vw55x_pmu.c ****         __WFI();
 186:../Firmware/GD32VW55x_standard_peripheral/Source/gd32vw55x_pmu.c ****     }else{
 187:../Firmware/GD32VW55x_standard_peripheral/Source/gd32vw55x_pmu.c ****         __disable_irq();
 188:../Firmware/GD32VW55x_standard_peripheral/Source/gd32vw55x_pmu.c ****         __WFE();
 189:../Firmware/GD32VW55x_standard_peripheral/Source/gd32vw55x_pmu.c ****         __enable_irq();
 190:../Firmware/GD32VW55x_standard_peripheral/Source/gd32vw55x_pmu.c ****     }
 191:../Firmware/GD32VW55x_standard_peripheral/Source/gd32vw55x_pmu.c ****     /* reset sleepdeep bit of RISC-V system control register */
 192:../Firmware/GD32VW55x_standard_peripheral/Source/gd32vw55x_pmu.c ****     __set_wfi_sleepmode(WFI_SHALLOW_SLEEP);
 193:../Firmware/GD32VW55x_standard_peripheral/Source/gd32vw55x_pmu.c **** }
 536              		.loc 1 193 1
 537 00d0 0100     		nop
 538 00d2 3254     		lw	s0,44(sp)
 539              		.cfi_restore 8
 540              		.cfi_def_cfa 2, 48
 541 00d4 A254     		lw	s1,40(sp)
 542              		.cfi_restore 9
 543 00d6 4561     		addi	sp,sp,48
 544              		.cfi_def_cfa_offset 0
 545 00d8 8280     		jr	ra
 546              		.cfi_endproc
 547              	.LFE354:
 549              		.section	.text.pmu_to_standbymode,"ax",@progbits
 550              		.align	1
 551              		.globl	pmu_to_standbymode
 553              	pmu_to_standbymode:
 554              	.LFB355:
 194:../Firmware/GD32VW55x_standard_peripheral/Source/gd32vw55x_pmu.c **** 
 195:../Firmware/GD32VW55x_standard_peripheral/Source/gd32vw55x_pmu.c **** /*!
 196:../Firmware/GD32VW55x_standard_peripheral/Source/gd32vw55x_pmu.c ****     \brief      PMU work in standby mode
 197:../Firmware/GD32VW55x_standard_peripheral/Source/gd32vw55x_pmu.c ****     \param[in]  standbymodecmd:
 198:../Firmware/GD32VW55x_standard_peripheral/Source/gd32vw55x_pmu.c ****                 only one parameter can be selected which is shown as below:
 199:../Firmware/GD32VW55x_standard_peripheral/Source/gd32vw55x_pmu.c ****       \arg        WFI_CMD: use WFI command
 200:../Firmware/GD32VW55x_standard_peripheral/Source/gd32vw55x_pmu.c ****       \arg        WFE_CMD: use WFE command
 201:../Firmware/GD32VW55x_standard_peripheral/Source/gd32vw55x_pmu.c ****     \param[out] none
 202:../Firmware/GD32VW55x_standard_peripheral/Source/gd32vw55x_pmu.c ****     \retval     none
 203:../Firmware/GD32VW55x_standard_peripheral/Source/gd32vw55x_pmu.c **** */
 204:../Firmware/GD32VW55x_standard_peripheral/Source/gd32vw55x_pmu.c **** void pmu_to_standbymode(uint8_t standbymodecmd)
 205:../Firmware/GD32VW55x_standard_peripheral/Source/gd32vw55x_pmu.c **** {
 555              		.loc 1 205 1
 556              		.cfi_startproc
 557 0000 7971     		addi	sp,sp,-48
 558              		.cfi_def_cfa_offset 48
 559 0002 22D6     		sw	s0,44(sp)
 560 0004 26D4     		sw	s1,40(sp)
 561              		.cfi_offset 8, -4
 562              		.cfi_offset 9, -8
 563 0006 0018     		addi	s0,sp,48
 564              		.cfi_def_cfa 8, 0
 565 0008 AA87     		mv	a5,a0
 566 000a A30FF4FC 		sb	a5,-33(s0)
 567 000e 8547     		li	a5,1
 568 0010 2326F4FE 		sw	a5,-20(s0)
 569              	.LBB88:
 570              	.LBB89:
 571              	.LBB90:
 776:../Firmware/RISCV/drivers/core_feature_base.h **** }
 572              		.loc 2 776 5
 573 0014 8324C4FE 		lw	s1,-20(s0)
 574              	 #APP
 575              	# 776 "../Firmware/RISCV/drivers/core_feature_base.h" 1
 576              		csrw 0x811, s1
 577              	# 0 "" 2
 578              	 #NO_APP
 579              	.LBE90:
 580              		.loc 2 777 1
 581 001c 0100     		nop
 582              	.LBE89:
 583              	.LBE88:
 206:../Firmware/GD32VW55x_standard_peripheral/Source/gd32vw55x_pmu.c ****     /* set CSR_SLEEPVALUE bit of RISC-V system control register */
 207:../Firmware/GD32VW55x_standard_peripheral/Source/gd32vw55x_pmu.c ****     __set_wfi_sleepmode(WFI_DEEP_SLEEP);
 208:../Firmware/GD32VW55x_standard_peripheral/Source/gd32vw55x_pmu.c **** 
 209:../Firmware/GD32VW55x_standard_peripheral/Source/gd32vw55x_pmu.c ****     /* set stbmod bit */
 210:../Firmware/GD32VW55x_standard_peripheral/Source/gd32vw55x_pmu.c ****     PMU_CTL0 |= PMU_CTL0_STBMOD;
 584              		.loc 1 210 14
 585 001e B7770040 		li	a5,1073770496
 586 0022 9843     		lw	a4,0(a5)
 587 0024 B7770040 		li	a5,1073770496
 588 0028 13672700 		ori	a4,a4,2
 589 002c 98C3     		sw	a4,0(a5)
 211:../Firmware/GD32VW55x_standard_peripheral/Source/gd32vw55x_pmu.c **** 
 212:../Firmware/GD32VW55x_standard_peripheral/Source/gd32vw55x_pmu.c ****     /* reset wakeup flag */
 213:../Firmware/GD32VW55x_standard_peripheral/Source/gd32vw55x_pmu.c ****     PMU_CTL0 |= PMU_CTL0_WURST;
 590              		.loc 1 213 14
 591 002e B7770040 		li	a5,1073770496
 592 0032 9843     		lw	a4,0(a5)
 593 0034 B7770040 		li	a5,1073770496
 594 0038 13674700 		ori	a4,a4,4
 595 003c 98C3     		sw	a4,0(a5)
 214:../Firmware/GD32VW55x_standard_peripheral/Source/gd32vw55x_pmu.c **** 
 215:../Firmware/GD32VW55x_standard_peripheral/Source/gd32vw55x_pmu.c ****     /* select WFI or WFE command to enter standby mode */
 216:../Firmware/GD32VW55x_standard_peripheral/Source/gd32vw55x_pmu.c ****     if(WFI_CMD == standbymodecmd){
 596              		.loc 1 216 7
 597 003e 8347F4FD 		lbu	a5,-33(s0)
 598 0042 99E7     		bne	a5,zero,.L16
 599              	.LBB91:
 600              	.LBB92:
 601              	.LBB93:
 718:../Firmware/RISCV/drivers/core_feature_base.h ****     __ASM volatile("wfi");
 602              		.loc 2 718 5
 603 0044 8544     		li	s1,1
 604              	 #APP
 605              	# 718 "../Firmware/RISCV/drivers/core_feature_base.h" 1
 606              		csrc 0x810, s1
 607              	# 0 "" 2
 608              	 #NO_APP
 609              	.LBE93:
 719:../Firmware/RISCV/drivers/core_feature_base.h **** }
 610              		.loc 2 719 5
 611              	 #APP
 612              	# 719 "../Firmware/RISCV/drivers/core_feature_base.h" 1
 720:../Firmware/RISCV/drivers/core_feature_base.h **** 
 613              		wfi
 614              	# 0 "" 2
 615              		.loc 2 720 1
 616              	 #NO_APP
 617 004e 15A0     		j	.L17
 618              	.L16:
 619              	.LBE92:
 620              	.LBE91:
 621              	.LBB94:
 622              	.LBB95:
 623              	.LBB96:
 598:../Firmware/RISCV/drivers/core_feature_base.h **** }
 624              		.loc 2 598 5
 625 0050 A144     		li	s1,8
 626              	 #APP
 627              	# 598 "../Firmware/RISCV/drivers/core_feature_base.h" 1
 628              		csrc 0x300, s1
 629              	# 0 "" 2
 630              	 #NO_APP
 631              	.LBE96:
 599:../Firmware/RISCV/drivers/core_feature_base.h **** 
 632              		.loc 2 599 1
 633 0056 0100     		nop
 634              	.LBE95:
 635              	.LBE94:
 636              	.LBB97:
 637              	.LBB98:
 638              	.LBB99:
 731:../Firmware/RISCV/drivers/core_feature_base.h ****     __ASM volatile("wfi");
 639              		.loc 2 731 5
 640 0058 8544     		li	s1,1
 641              	 #APP
 642              	# 731 "../Firmware/RISCV/drivers/core_feature_base.h" 1
 643              		csrs 0x810, s1
 644              	# 0 "" 2
 645              	 #NO_APP
 646              	.LBE99:
 732:../Firmware/RISCV/drivers/core_feature_base.h ****     __RV_CSR_CLEAR(CSR_WFE, WFE_WFE);
 647              		.loc 2 732 5
 648              	 #APP
 649              	# 732 "../Firmware/RISCV/drivers/core_feature_base.h" 1
 650              		wfi
 651              	# 0 "" 2
 652              	 #NO_APP
 653              	.LBB100:
 733:../Firmware/RISCV/drivers/core_feature_base.h **** }
 654              		.loc 2 733 5
 655 0062 8544     		li	s1,1
 656              	 #APP
 657              	# 733 "../Firmware/RISCV/drivers/core_feature_base.h" 1
 658              		csrc 0x810, s1
 659              	# 0 "" 2
 660              	 #NO_APP
 661              	.LBE100:
 734:../Firmware/RISCV/drivers/core_feature_base.h **** 
 662              		.loc 2 734 1
 663 0068 0100     		nop
 664              	.LBE98:
 665              	.LBE97:
 666              	.LBB101:
 667              	.LBB102:
 668              	.LBB103:
 587:../Firmware/RISCV/drivers/core_feature_base.h **** }
 669              		.loc 2 587 5
 670 006a A144     		li	s1,8
 671              	 #APP
 672              	# 587 "../Firmware/RISCV/drivers/core_feature_base.h" 1
 673              		csrs 0x300, s1
 674              	# 0 "" 2
 675              	 #NO_APP
 676              	.LBE103:
 588:../Firmware/RISCV/drivers/core_feature_base.h **** 
 677              		.loc 2 588 1
 678 0070 0100     		nop
 679              	.L17:
 680              	.LBE102:
 681              	.LBE101:
 217:../Firmware/GD32VW55x_standard_peripheral/Source/gd32vw55x_pmu.c ****         __WFI();
 218:../Firmware/GD32VW55x_standard_peripheral/Source/gd32vw55x_pmu.c ****     }else{
 219:../Firmware/GD32VW55x_standard_peripheral/Source/gd32vw55x_pmu.c ****         __disable_irq();
 220:../Firmware/GD32VW55x_standard_peripheral/Source/gd32vw55x_pmu.c ****         __WFE();
 221:../Firmware/GD32VW55x_standard_peripheral/Source/gd32vw55x_pmu.c ****         __enable_irq();
 222:../Firmware/GD32VW55x_standard_peripheral/Source/gd32vw55x_pmu.c ****     }
 223:../Firmware/GD32VW55x_standard_peripheral/Source/gd32vw55x_pmu.c **** }
 682              		.loc 1 223 1
 683 0072 0100     		nop
 684 0074 3254     		lw	s0,44(sp)
 685              		.cfi_restore 8
 686              		.cfi_def_cfa 2, 48
 687 0076 A254     		lw	s1,40(sp)
 688              		.cfi_restore 9
 689 0078 4561     		addi	sp,sp,48
 690              		.cfi_def_cfa_offset 0
 691 007a 8280     		jr	ra
 692              		.cfi_endproc
 693              	.LFE355:
 695              		.section	.text.pmu_wakeup_pin_enable,"ax",@progbits
 696              		.align	1
 697              		.globl	pmu_wakeup_pin_enable
 699              	pmu_wakeup_pin_enable:
 700              	.LFB356:
 224:../Firmware/GD32VW55x_standard_peripheral/Source/gd32vw55x_pmu.c **** 
 225:../Firmware/GD32VW55x_standard_peripheral/Source/gd32vw55x_pmu.c **** /*!
 226:../Firmware/GD32VW55x_standard_peripheral/Source/gd32vw55x_pmu.c ****     \brief      enable wakeup pin
 227:../Firmware/GD32VW55x_standard_peripheral/Source/gd32vw55x_pmu.c ****     \param[in]  wakeup_pin:
 228:../Firmware/GD32VW55x_standard_peripheral/Source/gd32vw55x_pmu.c ****                 one or more parameters can be selected which are shown as below:
 229:../Firmware/GD32VW55x_standard_peripheral/Source/gd32vw55x_pmu.c ****       \arg        PMU_WAKEUP_PIN0: WKUP Pin 0 (PA0)
 230:../Firmware/GD32VW55x_standard_peripheral/Source/gd32vw55x_pmu.c ****       \arg        PMU_WAKEUP_PIN1: WKUP Pin 1 (PA15)
 231:../Firmware/GD32VW55x_standard_peripheral/Source/gd32vw55x_pmu.c ****       \arg        PMU_WAKEUP_PIN2: WKUP Pin 2 (PA7)
 232:../Firmware/GD32VW55x_standard_peripheral/Source/gd32vw55x_pmu.c ****       \arg        PMU_WAKEUP_PIN3: WKUP Pin 3 (PA12)
 233:../Firmware/GD32VW55x_standard_peripheral/Source/gd32vw55x_pmu.c ****     \param[out] none
 234:../Firmware/GD32VW55x_standard_peripheral/Source/gd32vw55x_pmu.c ****     \retval     none
 235:../Firmware/GD32VW55x_standard_peripheral/Source/gd32vw55x_pmu.c **** */
 236:../Firmware/GD32VW55x_standard_peripheral/Source/gd32vw55x_pmu.c **** void pmu_wakeup_pin_enable(uint32_t wakeup_pin)
 237:../Firmware/GD32VW55x_standard_peripheral/Source/gd32vw55x_pmu.c **** {
 701              		.loc 1 237 1
 702              		.cfi_startproc
 703 0000 0111     		addi	sp,sp,-32
 704              		.cfi_def_cfa_offset 32
 705 0002 22CE     		sw	s0,28(sp)
 706              		.cfi_offset 8, -4
 707 0004 0010     		addi	s0,sp,32
 708              		.cfi_def_cfa 8, 0
 709 0006 2326A4FE 		sw	a0,-20(s0)
 238:../Firmware/GD32VW55x_standard_peripheral/Source/gd32vw55x_pmu.c ****     PMU_CS0 |= wakeup_pin;
 710              		.loc 1 238 13
 711 000a B7770040 		li	a5,1073770496
 712 000e 9107     		addi	a5,a5,4
 713 0010 9443     		lw	a3,0(a5)
 714 0012 B7770040 		li	a5,1073770496
 715 0016 9107     		addi	a5,a5,4
 716 0018 0327C4FE 		lw	a4,-20(s0)
 717 001c 558F     		or	a4,a3,a4
 718 001e 98C3     		sw	a4,0(a5)
 239:../Firmware/GD32VW55x_standard_peripheral/Source/gd32vw55x_pmu.c **** }
 719              		.loc 1 239 1
 720 0020 0100     		nop
 721 0022 7244     		lw	s0,28(sp)
 722              		.cfi_restore 8
 723              		.cfi_def_cfa 2, 32
 724 0024 0561     		addi	sp,sp,32
 725              		.cfi_def_cfa_offset 0
 726 0026 8280     		jr	ra
 727              		.cfi_endproc
 728              	.LFE356:
 730              		.section	.text.pmu_wakeup_pin_disable,"ax",@progbits
 731              		.align	1
 732              		.globl	pmu_wakeup_pin_disable
 734              	pmu_wakeup_pin_disable:
 735              	.LFB357:
 240:../Firmware/GD32VW55x_standard_peripheral/Source/gd32vw55x_pmu.c **** 
 241:../Firmware/GD32VW55x_standard_peripheral/Source/gd32vw55x_pmu.c **** /*!
 242:../Firmware/GD32VW55x_standard_peripheral/Source/gd32vw55x_pmu.c ****     \brief      disable wakeup pin
 243:../Firmware/GD32VW55x_standard_peripheral/Source/gd32vw55x_pmu.c ****     \param[in]  wakeup_pin:
 244:../Firmware/GD32VW55x_standard_peripheral/Source/gd32vw55x_pmu.c ****                 one or more parameters can be selected which are shown as below:
 245:../Firmware/GD32VW55x_standard_peripheral/Source/gd32vw55x_pmu.c ****       \arg        PMU_WAKEUP_PIN0: WKUP Pin 0 (PA0)
 246:../Firmware/GD32VW55x_standard_peripheral/Source/gd32vw55x_pmu.c ****       \arg        PMU_WAKEUP_PIN1: WKUP Pin 1 (PA15)
 247:../Firmware/GD32VW55x_standard_peripheral/Source/gd32vw55x_pmu.c ****       \arg        PMU_WAKEUP_PIN2: WKUP Pin 2 (PA7)
 248:../Firmware/GD32VW55x_standard_peripheral/Source/gd32vw55x_pmu.c ****       \arg        PMU_WAKEUP_PIN3: WKUP Pin 3 (PA12)
 249:../Firmware/GD32VW55x_standard_peripheral/Source/gd32vw55x_pmu.c ****     \param[out] none
 250:../Firmware/GD32VW55x_standard_peripheral/Source/gd32vw55x_pmu.c ****     \retval     none
 251:../Firmware/GD32VW55x_standard_peripheral/Source/gd32vw55x_pmu.c **** */
 252:../Firmware/GD32VW55x_standard_peripheral/Source/gd32vw55x_pmu.c **** void pmu_wakeup_pin_disable(uint32_t wakeup_pin)
 253:../Firmware/GD32VW55x_standard_peripheral/Source/gd32vw55x_pmu.c **** {
 736              		.loc 1 253 1
 737              		.cfi_startproc
 738 0000 0111     		addi	sp,sp,-32
 739              		.cfi_def_cfa_offset 32
 740 0002 22CE     		sw	s0,28(sp)
 741              		.cfi_offset 8, -4
 742 0004 0010     		addi	s0,sp,32
 743              		.cfi_def_cfa 8, 0
 744 0006 2326A4FE 		sw	a0,-20(s0)
 254:../Firmware/GD32VW55x_standard_peripheral/Source/gd32vw55x_pmu.c ****     PMU_CS0 &= ~(wakeup_pin);
 745              		.loc 1 254 13
 746 000a B7770040 		li	a5,1073770496
 747 000e 9107     		addi	a5,a5,4
 748 0010 9443     		lw	a3,0(a5)
 749              		.loc 1 254 16
 750 0012 8327C4FE 		lw	a5,-20(s0)
 751 0016 13C7F7FF 		not	a4,a5
 752              		.loc 1 254 13
 753 001a B7770040 		li	a5,1073770496
 754 001e 9107     		addi	a5,a5,4
 755 0020 758F     		and	a4,a3,a4
 756 0022 98C3     		sw	a4,0(a5)
 255:../Firmware/GD32VW55x_standard_peripheral/Source/gd32vw55x_pmu.c **** }
 757              		.loc 1 255 1
 758 0024 0100     		nop
 759 0026 7244     		lw	s0,28(sp)
 760              		.cfi_restore 8
 761              		.cfi_def_cfa 2, 32
 762 0028 0561     		addi	sp,sp,32
 763              		.cfi_def_cfa_offset 0
 764 002a 8280     		jr	ra
 765              		.cfi_endproc
 766              	.LFE357:
 768              		.section	.text.pmu_wifi_power_enable,"ax",@progbits
 769              		.align	1
 770              		.globl	pmu_wifi_power_enable
 772              	pmu_wifi_power_enable:
 773              	.LFB358:
 256:../Firmware/GD32VW55x_standard_peripheral/Source/gd32vw55x_pmu.c **** 
 257:../Firmware/GD32VW55x_standard_peripheral/Source/gd32vw55x_pmu.c **** /*!
 258:../Firmware/GD32VW55x_standard_peripheral/Source/gd32vw55x_pmu.c ****     \brief      enable WIFI power
 259:../Firmware/GD32VW55x_standard_peripheral/Source/gd32vw55x_pmu.c ****     \param[in]  none
 260:../Firmware/GD32VW55x_standard_peripheral/Source/gd32vw55x_pmu.c ****     \param[out] none
 261:../Firmware/GD32VW55x_standard_peripheral/Source/gd32vw55x_pmu.c ****     \retval     none
 262:../Firmware/GD32VW55x_standard_peripheral/Source/gd32vw55x_pmu.c **** */
 263:../Firmware/GD32VW55x_standard_peripheral/Source/gd32vw55x_pmu.c **** void pmu_wifi_power_enable(void)
 264:../Firmware/GD32VW55x_standard_peripheral/Source/gd32vw55x_pmu.c **** {
 774              		.loc 1 264 1
 775              		.cfi_startproc
 776 0000 4111     		addi	sp,sp,-16
 777              		.cfi_def_cfa_offset 16
 778 0002 22C6     		sw	s0,12(sp)
 779              		.cfi_offset 8, -4
 780 0004 0008     		addi	s0,sp,16
 781              		.cfi_def_cfa 8, 0
 265:../Firmware/GD32VW55x_standard_peripheral/Source/gd32vw55x_pmu.c ****     PMU_CTL1 |= PMU_CTL1_WPEN;
 782              		.loc 1 265 14
 783 0006 B7770040 		li	a5,1073770496
 784 000a A107     		addi	a5,a5,8
 785 000c 9843     		lw	a4,0(a5)
 786 000e B7770040 		li	a5,1073770496
 787 0012 A107     		addi	a5,a5,8
 788 0014 13672700 		ori	a4,a4,2
 789 0018 98C3     		sw	a4,0(a5)
 266:../Firmware/GD32VW55x_standard_peripheral/Source/gd32vw55x_pmu.c **** }
 790              		.loc 1 266 1
 791 001a 0100     		nop
 792 001c 3244     		lw	s0,12(sp)
 793              		.cfi_restore 8
 794              		.cfi_def_cfa 2, 16
 795 001e 4101     		addi	sp,sp,16
 796              		.cfi_def_cfa_offset 0
 797 0020 8280     		jr	ra
 798              		.cfi_endproc
 799              	.LFE358:
 801              		.section	.text.pmu_wifi_power_disable,"ax",@progbits
 802              		.align	1
 803              		.globl	pmu_wifi_power_disable
 805              	pmu_wifi_power_disable:
 806              	.LFB359:
 267:../Firmware/GD32VW55x_standard_peripheral/Source/gd32vw55x_pmu.c **** 
 268:../Firmware/GD32VW55x_standard_peripheral/Source/gd32vw55x_pmu.c **** /*!
 269:../Firmware/GD32VW55x_standard_peripheral/Source/gd32vw55x_pmu.c ****     \brief      disable WIFI power
 270:../Firmware/GD32VW55x_standard_peripheral/Source/gd32vw55x_pmu.c ****     \param[in]  none
 271:../Firmware/GD32VW55x_standard_peripheral/Source/gd32vw55x_pmu.c ****     \param[out] none
 272:../Firmware/GD32VW55x_standard_peripheral/Source/gd32vw55x_pmu.c ****     \retval     none
 273:../Firmware/GD32VW55x_standard_peripheral/Source/gd32vw55x_pmu.c **** */
 274:../Firmware/GD32VW55x_standard_peripheral/Source/gd32vw55x_pmu.c **** void pmu_wifi_power_disable(void)
 275:../Firmware/GD32VW55x_standard_peripheral/Source/gd32vw55x_pmu.c **** {
 807              		.loc 1 275 1
 808              		.cfi_startproc
 809 0000 4111     		addi	sp,sp,-16
 810              		.cfi_def_cfa_offset 16
 811 0002 22C6     		sw	s0,12(sp)
 812              		.cfi_offset 8, -4
 813 0004 0008     		addi	s0,sp,16
 814              		.cfi_def_cfa 8, 0
 276:../Firmware/GD32VW55x_standard_peripheral/Source/gd32vw55x_pmu.c ****     PMU_CTL1 &= ~PMU_CTL1_WPEN;
 815              		.loc 1 276 14
 816 0006 B7770040 		li	a5,1073770496
 817 000a A107     		addi	a5,a5,8
 818 000c 9843     		lw	a4,0(a5)
 819 000e B7770040 		li	a5,1073770496
 820 0012 A107     		addi	a5,a5,8
 821 0014 759B     		andi	a4,a4,-3
 822 0016 98C3     		sw	a4,0(a5)
 277:../Firmware/GD32VW55x_standard_peripheral/Source/gd32vw55x_pmu.c **** }
 823              		.loc 1 277 1
 824 0018 0100     		nop
 825 001a 3244     		lw	s0,12(sp)
 826              		.cfi_restore 8
 827              		.cfi_def_cfa 2, 16
 828 001c 4101     		addi	sp,sp,16
 829              		.cfi_def_cfa_offset 0
 830 001e 8280     		jr	ra
 831              		.cfi_endproc
 832              	.LFE359:
 834              		.section	.text.pmu_wifi_sram_control,"ax",@progbits
 835              		.align	1
 836              		.globl	pmu_wifi_sram_control
 838              	pmu_wifi_sram_control:
 839              	.LFB360:
 278:../Firmware/GD32VW55x_standard_peripheral/Source/gd32vw55x_pmu.c **** 
 279:../Firmware/GD32VW55x_standard_peripheral/Source/gd32vw55x_pmu.c **** /*!
 280:../Firmware/GD32VW55x_standard_peripheral/Source/gd32vw55x_pmu.c ****     \brief      WIFI & SRAM low power control
 281:../Firmware/GD32VW55x_standard_peripheral/Source/gd32vw55x_pmu.c ****     \param[in]  wifi_sram:
 282:../Firmware/GD32VW55x_standard_peripheral/Source/gd32vw55x_pmu.c ****                 one or more parameters can be selected which are shown as below:
 283:../Firmware/GD32VW55x_standard_peripheral/Source/gd32vw55x_pmu.c ****       \arg        PMU_WIFI_SLEEP: WIFI go to sleep
 284:../Firmware/GD32VW55x_standard_peripheral/Source/gd32vw55x_pmu.c ****       \arg        PMU_WIFI_WAKE: WIFI wakeup
 285:../Firmware/GD32VW55x_standard_peripheral/Source/gd32vw55x_pmu.c ****       \arg        PMU_SRAM1_SLEEP: SRAM1 go to sleep
 286:../Firmware/GD32VW55x_standard_peripheral/Source/gd32vw55x_pmu.c ****       \arg        PMU_SRAM1_WAKE: SRAM1 wakeup
 287:../Firmware/GD32VW55x_standard_peripheral/Source/gd32vw55x_pmu.c ****       \arg        PMU_SRAM2_SLEEP: SRAM2 go to sleep
 288:../Firmware/GD32VW55x_standard_peripheral/Source/gd32vw55x_pmu.c ****       \arg        PMU_SRAM2_WAKE: SRAM2 wakeup
 289:../Firmware/GD32VW55x_standard_peripheral/Source/gd32vw55x_pmu.c ****       \arg        PMU_SRAM3_SLEEP: SRAM3 go to sleep
 290:../Firmware/GD32VW55x_standard_peripheral/Source/gd32vw55x_pmu.c ****       \arg        PMU_SRAM3_WAKE: SRAM3 wakeup
 291:../Firmware/GD32VW55x_standard_peripheral/Source/gd32vw55x_pmu.c ****       \arg        PMU_SRAM0_SLEEP: SRAM0 go to sleep
 292:../Firmware/GD32VW55x_standard_peripheral/Source/gd32vw55x_pmu.c ****       \arg        PMU_SRAM0_WAKE: SRAM0 wakeup
 293:../Firmware/GD32VW55x_standard_peripheral/Source/gd32vw55x_pmu.c ****     \param[out] none
 294:../Firmware/GD32VW55x_standard_peripheral/Source/gd32vw55x_pmu.c ****     \retval     none
 295:../Firmware/GD32VW55x_standard_peripheral/Source/gd32vw55x_pmu.c **** */
 296:../Firmware/GD32VW55x_standard_peripheral/Source/gd32vw55x_pmu.c **** void pmu_wifi_sram_control(uint32_t wifi_sram)
 297:../Firmware/GD32VW55x_standard_peripheral/Source/gd32vw55x_pmu.c **** {
 840              		.loc 1 297 1
 841              		.cfi_startproc
 842 0000 0111     		addi	sp,sp,-32
 843              		.cfi_def_cfa_offset 32
 844 0002 22CE     		sw	s0,28(sp)
 845              		.cfi_offset 8, -4
 846 0004 0010     		addi	s0,sp,32
 847              		.cfi_def_cfa 8, 0
 848 0006 2326A4FE 		sw	a0,-20(s0)
 298:../Firmware/GD32VW55x_standard_peripheral/Source/gd32vw55x_pmu.c ****     PMU_CTL1 |= wifi_sram;
 849              		.loc 1 298 14
 850 000a B7770040 		li	a5,1073770496
 851 000e A107     		addi	a5,a5,8
 852 0010 9443     		lw	a3,0(a5)
 853 0012 B7770040 		li	a5,1073770496
 854 0016 A107     		addi	a5,a5,8
 855 0018 0327C4FE 		lw	a4,-20(s0)
 856 001c 558F     		or	a4,a3,a4
 857 001e 98C3     		sw	a4,0(a5)
 299:../Firmware/GD32VW55x_standard_peripheral/Source/gd32vw55x_pmu.c **** }
 858              		.loc 1 299 1
 859 0020 0100     		nop
 860 0022 7244     		lw	s0,28(sp)
 861              		.cfi_restore 8
 862              		.cfi_def_cfa 2, 32
 863 0024 0561     		addi	sp,sp,32
 864              		.cfi_def_cfa_offset 0
 865 0026 8280     		jr	ra
 866              		.cfi_endproc
 867              	.LFE360:
 869              		.section	.text.pmu_ble_control,"ax",@progbits
 870              		.align	1
 871              		.globl	pmu_ble_control
 873              	pmu_ble_control:
 874              	.LFB361:
 300:../Firmware/GD32VW55x_standard_peripheral/Source/gd32vw55x_pmu.c **** 
 301:../Firmware/GD32VW55x_standard_peripheral/Source/gd32vw55x_pmu.c **** /*!
 302:../Firmware/GD32VW55x_standard_peripheral/Source/gd32vw55x_pmu.c ****     \brief      BLE low power control
 303:../Firmware/GD32VW55x_standard_peripheral/Source/gd32vw55x_pmu.c ****     \param[in]  ble:
 304:../Firmware/GD32VW55x_standard_peripheral/Source/gd32vw55x_pmu.c ****                 one or more parameters can be selected which are shown as below:
 305:../Firmware/GD32VW55x_standard_peripheral/Source/gd32vw55x_pmu.c ****       \arg        PMU_BLE_SLEEP: BLE go to sleep
 306:../Firmware/GD32VW55x_standard_peripheral/Source/gd32vw55x_pmu.c ****       \arg        PMU_BLE_WAKE: BLE wakeup
 307:../Firmware/GD32VW55x_standard_peripheral/Source/gd32vw55x_pmu.c ****     \param[out] none
 308:../Firmware/GD32VW55x_standard_peripheral/Source/gd32vw55x_pmu.c ****     \retval     none
 309:../Firmware/GD32VW55x_standard_peripheral/Source/gd32vw55x_pmu.c **** */
 310:../Firmware/GD32VW55x_standard_peripheral/Source/gd32vw55x_pmu.c **** void pmu_ble_control(uint32_t ble)
 311:../Firmware/GD32VW55x_standard_peripheral/Source/gd32vw55x_pmu.c **** {
 875              		.loc 1 311 1
 876              		.cfi_startproc
 877 0000 0111     		addi	sp,sp,-32
 878              		.cfi_def_cfa_offset 32
 879 0002 22CE     		sw	s0,28(sp)
 880              		.cfi_offset 8, -4
 881 0004 0010     		addi	s0,sp,32
 882              		.cfi_def_cfa 8, 0
 883 0006 2326A4FE 		sw	a0,-20(s0)
 312:../Firmware/GD32VW55x_standard_peripheral/Source/gd32vw55x_pmu.c ****     PMU_CTL1 |= ble;
 884              		.loc 1 312 14
 885 000a B7770040 		li	a5,1073770496
 886 000e A107     		addi	a5,a5,8
 887 0010 9443     		lw	a3,0(a5)
 888 0012 B7770040 		li	a5,1073770496
 889 0016 A107     		addi	a5,a5,8
 890 0018 0327C4FE 		lw	a4,-20(s0)
 891 001c 558F     		or	a4,a3,a4
 892 001e 98C3     		sw	a4,0(a5)
 313:../Firmware/GD32VW55x_standard_peripheral/Source/gd32vw55x_pmu.c **** }
 893              		.loc 1 313 1
 894 0020 0100     		nop
 895 0022 7244     		lw	s0,28(sp)
 896              		.cfi_restore 8
 897              		.cfi_def_cfa 2, 32
 898 0024 0561     		addi	sp,sp,32
 899              		.cfi_def_cfa_offset 0
 900 0026 8280     		jr	ra
 901              		.cfi_endproc
 902              	.LFE361:
 904              		.section	.text.pmu_ble_wakeup_request_enable,"ax",@progbits
 905              		.align	1
 906              		.globl	pmu_ble_wakeup_request_enable
 908              	pmu_ble_wakeup_request_enable:
 909              	.LFB362:
 314:../Firmware/GD32VW55x_standard_peripheral/Source/gd32vw55x_pmu.c **** 
 315:../Firmware/GD32VW55x_standard_peripheral/Source/gd32vw55x_pmu.c **** /*!
 316:../Firmware/GD32VW55x_standard_peripheral/Source/gd32vw55x_pmu.c ****     \brief      enable BLE wakeup request
 317:../Firmware/GD32VW55x_standard_peripheral/Source/gd32vw55x_pmu.c ****     \param[in]  none
 318:../Firmware/GD32VW55x_standard_peripheral/Source/gd32vw55x_pmu.c ****     \param[out] none
 319:../Firmware/GD32VW55x_standard_peripheral/Source/gd32vw55x_pmu.c ****     \retval     none
 320:../Firmware/GD32VW55x_standard_peripheral/Source/gd32vw55x_pmu.c **** */
 321:../Firmware/GD32VW55x_standard_peripheral/Source/gd32vw55x_pmu.c **** void pmu_ble_wakeup_request_enable(void)
 322:../Firmware/GD32VW55x_standard_peripheral/Source/gd32vw55x_pmu.c **** {
 910              		.loc 1 322 1
 911              		.cfi_startproc
 912 0000 4111     		addi	sp,sp,-16
 913              		.cfi_def_cfa_offset 16
 914 0002 22C6     		sw	s0,12(sp)
 915              		.cfi_offset 8, -4
 916 0004 0008     		addi	s0,sp,16
 917              		.cfi_def_cfa 8, 0
 323:../Firmware/GD32VW55x_standard_peripheral/Source/gd32vw55x_pmu.c ****     PMU_CTL1 |= PMU_CTL1_BLE_WAKEUP_REQ;
 918              		.loc 1 323 14
 919 0006 B7770040 		li	a5,1073770496
 920 000a A107     		addi	a5,a5,8
 921 000c 9443     		lw	a3,0(a5)
 922 000e B7770040 		li	a5,1073770496
 923 0012 A107     		addi	a5,a5,8
 924 0014 37070002 		li	a4,33554432
 925 0018 558F     		or	a4,a3,a4
 926 001a 98C3     		sw	a4,0(a5)
 324:../Firmware/GD32VW55x_standard_peripheral/Source/gd32vw55x_pmu.c **** }
 927              		.loc 1 324 1
 928 001c 0100     		nop
 929 001e 3244     		lw	s0,12(sp)
 930              		.cfi_restore 8
 931              		.cfi_def_cfa 2, 16
 932 0020 4101     		addi	sp,sp,16
 933              		.cfi_def_cfa_offset 0
 934 0022 8280     		jr	ra
 935              		.cfi_endproc
 936              	.LFE362:
 938              		.section	.text.pmu_ble_wakeup_request_disable,"ax",@progbits
 939              		.align	1
 940              		.globl	pmu_ble_wakeup_request_disable
 942              	pmu_ble_wakeup_request_disable:
 943              	.LFB363:
 325:../Firmware/GD32VW55x_standard_peripheral/Source/gd32vw55x_pmu.c **** 
 326:../Firmware/GD32VW55x_standard_peripheral/Source/gd32vw55x_pmu.c **** /*!
 327:../Firmware/GD32VW55x_standard_peripheral/Source/gd32vw55x_pmu.c ****     \brief      disable ble wakeup request
 328:../Firmware/GD32VW55x_standard_peripheral/Source/gd32vw55x_pmu.c ****     \param[in]  none
 329:../Firmware/GD32VW55x_standard_peripheral/Source/gd32vw55x_pmu.c ****     \param[out] none
 330:../Firmware/GD32VW55x_standard_peripheral/Source/gd32vw55x_pmu.c ****     \retval     none
 331:../Firmware/GD32VW55x_standard_peripheral/Source/gd32vw55x_pmu.c **** */
 332:../Firmware/GD32VW55x_standard_peripheral/Source/gd32vw55x_pmu.c **** void pmu_ble_wakeup_request_disable(void)
 333:../Firmware/GD32VW55x_standard_peripheral/Source/gd32vw55x_pmu.c **** {
 944              		.loc 1 333 1
 945              		.cfi_startproc
 946 0000 4111     		addi	sp,sp,-16
 947              		.cfi_def_cfa_offset 16
 948 0002 22C6     		sw	s0,12(sp)
 949              		.cfi_offset 8, -4
 950 0004 0008     		addi	s0,sp,16
 951              		.cfi_def_cfa 8, 0
 334:../Firmware/GD32VW55x_standard_peripheral/Source/gd32vw55x_pmu.c ****     PMU_CTL1 &= ~PMU_CTL1_BLE_WAKEUP_REQ;
 952              		.loc 1 334 14
 953 0006 B7770040 		li	a5,1073770496
 954 000a A107     		addi	a5,a5,8
 955 000c 9443     		lw	a3,0(a5)
 956 000e B7770040 		li	a5,1073770496
 957 0012 A107     		addi	a5,a5,8
 958 0014 370700FE 		li	a4,-33554432
 959 0018 7D17     		addi	a4,a4,-1
 960 001a 758F     		and	a4,a3,a4
 961 001c 98C3     		sw	a4,0(a5)
 335:../Firmware/GD32VW55x_standard_peripheral/Source/gd32vw55x_pmu.c **** }
 962              		.loc 1 335 1
 963 001e 0100     		nop
 964 0020 3244     		lw	s0,12(sp)
 965              		.cfi_restore 8
 966              		.cfi_def_cfa 2, 16
 967 0022 4101     		addi	sp,sp,16
 968              		.cfi_def_cfa_offset 0
 969 0024 8280     		jr	ra
 970              		.cfi_endproc
 971              	.LFE363:
 973              		.section	.text.pmu_pll_force_enable,"ax",@progbits
 974              		.align	1
 975              		.globl	pmu_pll_force_enable
 977              	pmu_pll_force_enable:
 978              	.LFB364:
 336:../Firmware/GD32VW55x_standard_peripheral/Source/gd32vw55x_pmu.c **** 
 337:../Firmware/GD32VW55x_standard_peripheral/Source/gd32vw55x_pmu.c **** /*!
 338:../Firmware/GD32VW55x_standard_peripheral/Source/gd32vw55x_pmu.c ****     \brief      enable MCU PLL power force open/close
 339:../Firmware/GD32VW55x_standard_peripheral/Source/gd32vw55x_pmu.c ****     \param[in]  force:
 340:../Firmware/GD32VW55x_standard_peripheral/Source/gd32vw55x_pmu.c ****                 only one parameter can be selected which is shown as below:
 341:../Firmware/GD32VW55x_standard_peripheral/Source/gd32vw55x_pmu.c ****       \arg        PMU_PLL_FORCE_OPEN: Software force open, open MCU PLL power
 342:../Firmware/GD32VW55x_standard_peripheral/Source/gd32vw55x_pmu.c ****       \arg        PMU_PLL_FORCE_CLOSE: Software force close, close MCU PLL power
 343:../Firmware/GD32VW55x_standard_peripheral/Source/gd32vw55x_pmu.c ****     \param[out] none
 344:../Firmware/GD32VW55x_standard_peripheral/Source/gd32vw55x_pmu.c ****     \retval     none
 345:../Firmware/GD32VW55x_standard_peripheral/Source/gd32vw55x_pmu.c **** */
 346:../Firmware/GD32VW55x_standard_peripheral/Source/gd32vw55x_pmu.c **** void pmu_pll_force_enable(uint32_t force)
 347:../Firmware/GD32VW55x_standard_peripheral/Source/gd32vw55x_pmu.c **** {
 979              		.loc 1 347 1
 980              		.cfi_startproc
 981 0000 0111     		addi	sp,sp,-32
 982              		.cfi_def_cfa_offset 32
 983 0002 22CE     		sw	s0,28(sp)
 984              		.cfi_offset 8, -4
 985 0004 0010     		addi	s0,sp,32
 986              		.cfi_def_cfa 8, 0
 987 0006 2326A4FE 		sw	a0,-20(s0)
 348:../Firmware/GD32VW55x_standard_peripheral/Source/gd32vw55x_pmu.c ****     PMU_RFCTL |= force;
 988              		.loc 1 348 15
 989 000a B7770040 		li	a5,1073770496
 990 000e 93870702 		addi	a5,a5,32
 991 0012 9443     		lw	a3,0(a5)
 992 0014 B7770040 		li	a5,1073770496
 993 0018 93870702 		addi	a5,a5,32
 994 001c 0327C4FE 		lw	a4,-20(s0)
 995 0020 558F     		or	a4,a3,a4
 996 0022 98C3     		sw	a4,0(a5)
 349:../Firmware/GD32VW55x_standard_peripheral/Source/gd32vw55x_pmu.c **** }
 997              		.loc 1 349 1
 998 0024 0100     		nop
 999 0026 7244     		lw	s0,28(sp)
 1000              		.cfi_restore 8
 1001              		.cfi_def_cfa 2, 32
 1002 0028 0561     		addi	sp,sp,32
 1003              		.cfi_def_cfa_offset 0
 1004 002a 8280     		jr	ra
 1005              		.cfi_endproc
 1006              	.LFE364:
 1008              		.section	.text.pmu_pll_force_disable,"ax",@progbits
 1009              		.align	1
 1010              		.globl	pmu_pll_force_disable
 1012              	pmu_pll_force_disable:
 1013              	.LFB365:
 350:../Firmware/GD32VW55x_standard_peripheral/Source/gd32vw55x_pmu.c **** 
 351:../Firmware/GD32VW55x_standard_peripheral/Source/gd32vw55x_pmu.c **** /*!
 352:../Firmware/GD32VW55x_standard_peripheral/Source/gd32vw55x_pmu.c ****     \brief      disable MCU PLL power open/close force
 353:../Firmware/GD32VW55x_standard_peripheral/Source/gd32vw55x_pmu.c ****     \param[in]  force:
 354:../Firmware/GD32VW55x_standard_peripheral/Source/gd32vw55x_pmu.c ****                 only one parameter can be selected which is shown as below:
 355:../Firmware/GD32VW55x_standard_peripheral/Source/gd32vw55x_pmu.c ****       \arg        PMU_PLL_FORCE_OPEN: Software force open, open MCU PLL power
 356:../Firmware/GD32VW55x_standard_peripheral/Source/gd32vw55x_pmu.c ****       \arg        PMU_PLL_FORCE_CLOSE: Software force close, close MCU PLL power
 357:../Firmware/GD32VW55x_standard_peripheral/Source/gd32vw55x_pmu.c ****     \param[out] none
 358:../Firmware/GD32VW55x_standard_peripheral/Source/gd32vw55x_pmu.c ****     \retval     none
 359:../Firmware/GD32VW55x_standard_peripheral/Source/gd32vw55x_pmu.c **** */
 360:../Firmware/GD32VW55x_standard_peripheral/Source/gd32vw55x_pmu.c **** void pmu_pll_force_disable(uint32_t force)
 361:../Firmware/GD32VW55x_standard_peripheral/Source/gd32vw55x_pmu.c **** {
 1014              		.loc 1 361 1
 1015              		.cfi_startproc
 1016 0000 0111     		addi	sp,sp,-32
 1017              		.cfi_def_cfa_offset 32
 1018 0002 22CE     		sw	s0,28(sp)
 1019              		.cfi_offset 8, -4
 1020 0004 0010     		addi	s0,sp,32
 1021              		.cfi_def_cfa 8, 0
 1022 0006 2326A4FE 		sw	a0,-20(s0)
 362:../Firmware/GD32VW55x_standard_peripheral/Source/gd32vw55x_pmu.c ****     PMU_RFCTL &= ~force;
 1023              		.loc 1 362 15
 1024 000a B7770040 		li	a5,1073770496
 1025 000e 93870702 		addi	a5,a5,32
 1026 0012 9443     		lw	a3,0(a5)
 1027              		.loc 1 362 18
 1028 0014 8327C4FE 		lw	a5,-20(s0)
 1029 0018 13C7F7FF 		not	a4,a5
 1030              		.loc 1 362 15
 1031 001c B7770040 		li	a5,1073770496
 1032 0020 93870702 		addi	a5,a5,32
 1033 0024 758F     		and	a4,a3,a4
 1034 0026 98C3     		sw	a4,0(a5)
 363:../Firmware/GD32VW55x_standard_peripheral/Source/gd32vw55x_pmu.c **** }
 1035              		.loc 1 363 1
 1036 0028 0100     		nop
 1037 002a 7244     		lw	s0,28(sp)
 1038              		.cfi_restore 8
 1039              		.cfi_def_cfa 2, 32
 1040 002c 0561     		addi	sp,sp,32
 1041              		.cfi_def_cfa_offset 0
 1042 002e 8280     		jr	ra
 1043              		.cfi_endproc
 1044              	.LFE365:
 1046              		.section	.text.pmu_ble_rf_config,"ax",@progbits
 1047              		.align	1
 1048              		.globl	pmu_ble_rf_config
 1050              	pmu_ble_rf_config:
 1051              	.LFB366:
 364:../Firmware/GD32VW55x_standard_peripheral/Source/gd32vw55x_pmu.c **** 
 365:../Firmware/GD32VW55x_standard_peripheral/Source/gd32vw55x_pmu.c **** /*!
 366:../Firmware/GD32VW55x_standard_peripheral/Source/gd32vw55x_pmu.c ****     \brief      configure BLE RF sequence
 367:../Firmware/GD32VW55x_standard_peripheral/Source/gd32vw55x_pmu.c ****     \param[in]  mode:
 368:../Firmware/GD32VW55x_standard_peripheral/Source/gd32vw55x_pmu.c ****                 only one parameter can be selected which is shown as below:
 369:../Firmware/GD32VW55x_standard_peripheral/Source/gd32vw55x_pmu.c ****       \arg        PMU_BLE_RF_SOFTWARE: enable RF by software
 370:../Firmware/GD32VW55x_standard_peripheral/Source/gd32vw55x_pmu.c ****       \arg        PMU_BLE_RF_HARDWARE: enable RF BLE hardware
 371:../Firmware/GD32VW55x_standard_peripheral/Source/gd32vw55x_pmu.c ****     \param[out] none
 372:../Firmware/GD32VW55x_standard_peripheral/Source/gd32vw55x_pmu.c ****     \retval     none
 373:../Firmware/GD32VW55x_standard_peripheral/Source/gd32vw55x_pmu.c **** */
 374:../Firmware/GD32VW55x_standard_peripheral/Source/gd32vw55x_pmu.c **** void pmu_ble_rf_config(uint32_t mode)
 375:../Firmware/GD32VW55x_standard_peripheral/Source/gd32vw55x_pmu.c **** {
 1052              		.loc 1 375 1
 1053              		.cfi_startproc
 1054 0000 0111     		addi	sp,sp,-32
 1055              		.cfi_def_cfa_offset 32
 1056 0002 22CE     		sw	s0,28(sp)
 1057              		.cfi_offset 8, -4
 1058 0004 0010     		addi	s0,sp,32
 1059              		.cfi_def_cfa 8, 0
 1060 0006 2326A4FE 		sw	a0,-20(s0)
 376:../Firmware/GD32VW55x_standard_peripheral/Source/gd32vw55x_pmu.c ****     PMU_RFCTL &= ~PMU_RFCTL_BLESWEN;
 1061              		.loc 1 376 15
 1062 000a B7770040 		li	a5,1073770496
 1063 000e 93870702 		addi	a5,a5,32
 1064 0012 9843     		lw	a4,0(a5)
 1065 0014 B7770040 		li	a5,1073770496
 1066 0018 93870702 		addi	a5,a5,32
 1067 001c 1377F7FD 		andi	a4,a4,-33
 1068 0020 98C3     		sw	a4,0(a5)
 377:../Firmware/GD32VW55x_standard_peripheral/Source/gd32vw55x_pmu.c ****     PMU_RFCTL |= mode;
 1069              		.loc 1 377 15
 1070 0022 B7770040 		li	a5,1073770496
 1071 0026 93870702 		addi	a5,a5,32
 1072 002a 9443     		lw	a3,0(a5)
 1073 002c B7770040 		li	a5,1073770496
 1074 0030 93870702 		addi	a5,a5,32
 1075 0034 0327C4FE 		lw	a4,-20(s0)
 1076 0038 558F     		or	a4,a3,a4
 1077 003a 98C3     		sw	a4,0(a5)
 378:../Firmware/GD32VW55x_standard_peripheral/Source/gd32vw55x_pmu.c **** }
 1078              		.loc 1 378 1
 1079 003c 0100     		nop
 1080 003e 7244     		lw	s0,28(sp)
 1081              		.cfi_restore 8
 1082              		.cfi_def_cfa 2, 32
 1083 0040 0561     		addi	sp,sp,32
 1084              		.cfi_def_cfa_offset 0
 1085 0042 8280     		jr	ra
 1086              		.cfi_endproc
 1087              	.LFE366:
 1089              		.section	.text.pmu_rf_force_enable,"ax",@progbits
 1090              		.align	1
 1091              		.globl	pmu_rf_force_enable
 1093              	pmu_rf_force_enable:
 1094              	.LFB367:
 379:../Firmware/GD32VW55x_standard_peripheral/Source/gd32vw55x_pmu.c **** 
 380:../Firmware/GD32VW55x_standard_peripheral/Source/gd32vw55x_pmu.c **** /*!
 381:../Firmware/GD32VW55x_standard_peripheral/Source/gd32vw55x_pmu.c ****     \brief      enable RF sequence force open/close
 382:../Firmware/GD32VW55x_standard_peripheral/Source/gd32vw55x_pmu.c ****     \param[in]  force:
 383:../Firmware/GD32VW55x_standard_peripheral/Source/gd32vw55x_pmu.c ****                 only one parameter can be selected which is shown as below:
 384:../Firmware/GD32VW55x_standard_peripheral/Source/gd32vw55x_pmu.c ****       \arg        PMU_RF_FORCE_OPEN: Software force start, open RF power
 385:../Firmware/GD32VW55x_standard_peripheral/Source/gd32vw55x_pmu.c ****       \arg        PMU_RF_FORCE_CLOSE: Software force close, close RF power
 386:../Firmware/GD32VW55x_standard_peripheral/Source/gd32vw55x_pmu.c ****     \param[out] none
 387:../Firmware/GD32VW55x_standard_peripheral/Source/gd32vw55x_pmu.c ****     \retval     none
 388:../Firmware/GD32VW55x_standard_peripheral/Source/gd32vw55x_pmu.c **** */
 389:../Firmware/GD32VW55x_standard_peripheral/Source/gd32vw55x_pmu.c **** void pmu_rf_force_enable(uint32_t force)
 390:../Firmware/GD32VW55x_standard_peripheral/Source/gd32vw55x_pmu.c **** {
 1095              		.loc 1 390 1
 1096              		.cfi_startproc
 1097 0000 0111     		addi	sp,sp,-32
 1098              		.cfi_def_cfa_offset 32
 1099 0002 22CE     		sw	s0,28(sp)
 1100              		.cfi_offset 8, -4
 1101 0004 0010     		addi	s0,sp,32
 1102              		.cfi_def_cfa 8, 0
 1103 0006 2326A4FE 		sw	a0,-20(s0)
 391:../Firmware/GD32VW55x_standard_peripheral/Source/gd32vw55x_pmu.c ****     PMU_RFCTL |= force;
 1104              		.loc 1 391 15
 1105 000a B7770040 		li	a5,1073770496
 1106 000e 93870702 		addi	a5,a5,32
 1107 0012 9443     		lw	a3,0(a5)
 1108 0014 B7770040 		li	a5,1073770496
 1109 0018 93870702 		addi	a5,a5,32
 1110 001c 0327C4FE 		lw	a4,-20(s0)
 1111 0020 558F     		or	a4,a3,a4
 1112 0022 98C3     		sw	a4,0(a5)
 392:../Firmware/GD32VW55x_standard_peripheral/Source/gd32vw55x_pmu.c **** }
 1113              		.loc 1 392 1
 1114 0024 0100     		nop
 1115 0026 7244     		lw	s0,28(sp)
 1116              		.cfi_restore 8
 1117              		.cfi_def_cfa 2, 32
 1118 0028 0561     		addi	sp,sp,32
 1119              		.cfi_def_cfa_offset 0
 1120 002a 8280     		jr	ra
 1121              		.cfi_endproc
 1122              	.LFE367:
 1124              		.section	.text.pmu_rf_force_disable,"ax",@progbits
 1125              		.align	1
 1126              		.globl	pmu_rf_force_disable
 1128              	pmu_rf_force_disable:
 1129              	.LFB368:
 393:../Firmware/GD32VW55x_standard_peripheral/Source/gd32vw55x_pmu.c **** 
 394:../Firmware/GD32VW55x_standard_peripheral/Source/gd32vw55x_pmu.c **** /*!
 395:../Firmware/GD32VW55x_standard_peripheral/Source/gd32vw55x_pmu.c ****     \brief      disable RF sequence open/close force
 396:../Firmware/GD32VW55x_standard_peripheral/Source/gd32vw55x_pmu.c ****     \param[in]  force:
 397:../Firmware/GD32VW55x_standard_peripheral/Source/gd32vw55x_pmu.c ****                 only one parameter can be selected which is shown as below:
 398:../Firmware/GD32VW55x_standard_peripheral/Source/gd32vw55x_pmu.c ****       \arg        PMU_RF_FORCE_OPEN: Software force start, open RF power
 399:../Firmware/GD32VW55x_standard_peripheral/Source/gd32vw55x_pmu.c ****       \arg        PMU_RF_FORCE_CLOSE: Software force close, close RF power
 400:../Firmware/GD32VW55x_standard_peripheral/Source/gd32vw55x_pmu.c ****     \param[out] none
 401:../Firmware/GD32VW55x_standard_peripheral/Source/gd32vw55x_pmu.c ****     \retval     none
 402:../Firmware/GD32VW55x_standard_peripheral/Source/gd32vw55x_pmu.c **** */
 403:../Firmware/GD32VW55x_standard_peripheral/Source/gd32vw55x_pmu.c **** void pmu_rf_force_disable(uint32_t force)
 404:../Firmware/GD32VW55x_standard_peripheral/Source/gd32vw55x_pmu.c **** {
 1130              		.loc 1 404 1
 1131              		.cfi_startproc
 1132 0000 0111     		addi	sp,sp,-32
 1133              		.cfi_def_cfa_offset 32
 1134 0002 22CE     		sw	s0,28(sp)
 1135              		.cfi_offset 8, -4
 1136 0004 0010     		addi	s0,sp,32
 1137              		.cfi_def_cfa 8, 0
 1138 0006 2326A4FE 		sw	a0,-20(s0)
 405:../Firmware/GD32VW55x_standard_peripheral/Source/gd32vw55x_pmu.c ****     PMU_RFCTL &= ~force;
 1139              		.loc 1 405 15
 1140 000a B7770040 		li	a5,1073770496
 1141 000e 93870702 		addi	a5,a5,32
 1142 0012 9443     		lw	a3,0(a5)
 1143              		.loc 1 405 18
 1144 0014 8327C4FE 		lw	a5,-20(s0)
 1145 0018 13C7F7FF 		not	a4,a5
 1146              		.loc 1 405 15
 1147 001c B7770040 		li	a5,1073770496
 1148 0020 93870702 		addi	a5,a5,32
 1149 0024 758F     		and	a4,a3,a4
 1150 0026 98C3     		sw	a4,0(a5)
 406:../Firmware/GD32VW55x_standard_peripheral/Source/gd32vw55x_pmu.c **** }
 1151              		.loc 1 406 1
 1152 0028 0100     		nop
 1153 002a 7244     		lw	s0,28(sp)
 1154              		.cfi_restore 8
 1155              		.cfi_def_cfa 2, 32
 1156 002c 0561     		addi	sp,sp,32
 1157              		.cfi_def_cfa_offset 0
 1158 002e 8280     		jr	ra
 1159              		.cfi_endproc
 1160              	.LFE368:
 1162              		.section	.text.pmu_rf_sequence_config,"ax",@progbits
 1163              		.align	1
 1164              		.globl	pmu_rf_sequence_config
 1166              	pmu_rf_sequence_config:
 1167              	.LFB369:
 407:../Firmware/GD32VW55x_standard_peripheral/Source/gd32vw55x_pmu.c **** 
 408:../Firmware/GD32VW55x_standard_peripheral/Source/gd32vw55x_pmu.c **** /*!
 409:../Firmware/GD32VW55x_standard_peripheral/Source/gd32vw55x_pmu.c ****     \brief      configure RF sequence
 410:../Firmware/GD32VW55x_standard_peripheral/Source/gd32vw55x_pmu.c ****     \param[in]  mode:
 411:../Firmware/GD32VW55x_standard_peripheral/Source/gd32vw55x_pmu.c ****                 only one parameter can be selected which is shown as below:
 412:../Firmware/GD32VW55x_standard_peripheral/Source/gd32vw55x_pmu.c ****       \arg        PMU_RF_SOFTWARE: RF software sequence enable
 413:../Firmware/GD32VW55x_standard_peripheral/Source/gd32vw55x_pmu.c ****       \arg        PMU_RF_HARDWARE: RF hardware sequence enable
 414:../Firmware/GD32VW55x_standard_peripheral/Source/gd32vw55x_pmu.c ****     \param[out] none
 415:../Firmware/GD32VW55x_standard_peripheral/Source/gd32vw55x_pmu.c ****     \retval     none
 416:../Firmware/GD32VW55x_standard_peripheral/Source/gd32vw55x_pmu.c **** */
 417:../Firmware/GD32VW55x_standard_peripheral/Source/gd32vw55x_pmu.c **** void pmu_rf_sequence_config(uint32_t mode)
 418:../Firmware/GD32VW55x_standard_peripheral/Source/gd32vw55x_pmu.c **** {
 1168              		.loc 1 418 1
 1169              		.cfi_startproc
 1170 0000 0111     		addi	sp,sp,-32
 1171              		.cfi_def_cfa_offset 32
 1172 0002 22CE     		sw	s0,28(sp)
 1173              		.cfi_offset 8, -4
 1174 0004 0010     		addi	s0,sp,32
 1175              		.cfi_def_cfa 8, 0
 1176 0006 2326A4FE 		sw	a0,-20(s0)
 419:../Firmware/GD32VW55x_standard_peripheral/Source/gd32vw55x_pmu.c ****     PMU_RFCTL &= ~PMU_RFCTL_RFSWEN;
 1177              		.loc 1 419 15
 1178 000a B7770040 		li	a5,1073770496
 1179 000e 93870702 		addi	a5,a5,32
 1180 0012 9843     		lw	a4,0(a5)
 1181 0014 B7770040 		li	a5,1073770496
 1182 0018 93870702 		addi	a5,a5,32
 1183 001c 799B     		andi	a4,a4,-2
 1184 001e 98C3     		sw	a4,0(a5)
 420:../Firmware/GD32VW55x_standard_peripheral/Source/gd32vw55x_pmu.c ****     PMU_RFCTL |= mode;
 1185              		.loc 1 420 15
 1186 0020 B7770040 		li	a5,1073770496
 1187 0024 93870702 		addi	a5,a5,32
 1188 0028 9443     		lw	a3,0(a5)
 1189 002a B7770040 		li	a5,1073770496
 1190 002e 93870702 		addi	a5,a5,32
 1191 0032 0327C4FE 		lw	a4,-20(s0)
 1192 0036 558F     		or	a4,a3,a4
 1193 0038 98C3     		sw	a4,0(a5)
 421:../Firmware/GD32VW55x_standard_peripheral/Source/gd32vw55x_pmu.c **** }
 1194              		.loc 1 421 1
 1195 003a 0100     		nop
 1196 003c 7244     		lw	s0,28(sp)
 1197              		.cfi_restore 8
 1198              		.cfi_def_cfa 2, 32
 1199 003e 0561     		addi	sp,sp,32
 1200              		.cfi_def_cfa_offset 0
 1201 0040 8280     		jr	ra
 1202              		.cfi_endproc
 1203              	.LFE369:
 1205              		.section	.text.pmu_flag_get,"ax",@progbits
 1206              		.align	1
 1207              		.globl	pmu_flag_get
 1209              	pmu_flag_get:
 1210              	.LFB370:
 422:../Firmware/GD32VW55x_standard_peripheral/Source/gd32vw55x_pmu.c **** 
 423:../Firmware/GD32VW55x_standard_peripheral/Source/gd32vw55x_pmu.c **** /*!
 424:../Firmware/GD32VW55x_standard_peripheral/Source/gd32vw55x_pmu.c ****     \brief      get flag state
 425:../Firmware/GD32VW55x_standard_peripheral/Source/gd32vw55x_pmu.c ****     \param[in]  flag:
 426:../Firmware/GD32VW55x_standard_peripheral/Source/gd32vw55x_pmu.c ****                 only one parameter can be selected which is shown as below:
 427:../Firmware/GD32VW55x_standard_peripheral/Source/gd32vw55x_pmu.c ****       \arg        PMU_FLAG_WAKEUP: wakeup flag
 428:../Firmware/GD32VW55x_standard_peripheral/Source/gd32vw55x_pmu.c ****       \arg        PMU_FLAG_STANDBY: standby flag
 429:../Firmware/GD32VW55x_standard_peripheral/Source/gd32vw55x_pmu.c ****       \arg        PMU_FLAG_LVD: VDD low voltage flag
 430:../Firmware/GD32VW55x_standard_peripheral/Source/gd32vw55x_pmu.c ****       \arg        PMU_FLAG_LDOVSRF: LDO voltage select ready flag
 431:../Firmware/GD32VW55x_standard_peripheral/Source/gd32vw55x_pmu.c ****       \arg        PMU_FLAG_LDRF: low-driver mode ready flag
 432:../Firmware/GD32VW55x_standard_peripheral/Source/gd32vw55x_pmu.c ****       \arg        PMU_FLAG_WIFI_SLEEP: WIFI is in sleep state
 433:../Firmware/GD32VW55x_standard_peripheral/Source/gd32vw55x_pmu.c ****       \arg        PMU_FLAG_WIFI_ACTIVE: WIFI is in active state
 434:../Firmware/GD32VW55x_standard_peripheral/Source/gd32vw55x_pmu.c ****       \arg        PMU_FLAG_BLE_POWER: BLE power status
 435:../Firmware/GD32VW55x_standard_peripheral/Source/gd32vw55x_pmu.c ****       \arg        PMU_FLAG_SRAM1_SLEEP: SRAM1 is in sleep state
 436:../Firmware/GD32VW55x_standard_peripheral/Source/gd32vw55x_pmu.c ****       \arg        PMU_FLAG_SRAM1_ACTIVE: SRAM1 is in active state
 437:../Firmware/GD32VW55x_standard_peripheral/Source/gd32vw55x_pmu.c ****       \arg        PMU_FLAG_SRAM0_SLEEP: SRAM0 is in sleep state
 438:../Firmware/GD32VW55x_standard_peripheral/Source/gd32vw55x_pmu.c ****       \arg        PMU_FLAG_SRAM0_ACTIVE: SRAM0 is in active state
 439:../Firmware/GD32VW55x_standard_peripheral/Source/gd32vw55x_pmu.c ****       \arg        PMU_FLAG_SRAM2_SLEEP: SRAM2 is in sleep state
 440:../Firmware/GD32VW55x_standard_peripheral/Source/gd32vw55x_pmu.c ****       \arg        PMU_FLAG_SRAM2_ACTIVE: SRAM2 is in active state
 441:../Firmware/GD32VW55x_standard_peripheral/Source/gd32vw55x_pmu.c ****       \arg        PMU_FLAG_SRAM3_SLEEP: SRAM3 is in sleep state
 442:../Firmware/GD32VW55x_standard_peripheral/Source/gd32vw55x_pmu.c ****       \arg        PMU_FLAG_SRAM3_ACTIVE: SRAM3 is in active state
 443:../Firmware/GD32VW55x_standard_peripheral/Source/gd32vw55x_pmu.c ****       \arg        PMU_FLAG_BLE_SLEEP: BLE is in sleep state
 444:../Firmware/GD32VW55x_standard_peripheral/Source/gd32vw55x_pmu.c ****       \arg        PMU_FLAG_BLE_ACTIVE: BLE is in active state
 445:../Firmware/GD32VW55x_standard_peripheral/Source/gd32vw55x_pmu.c ****       \arg        PMU_FLAG_BLE_POWER_FALL: BLE power status falling edge flag
 446:../Firmware/GD32VW55x_standard_peripheral/Source/gd32vw55x_pmu.c ****       \arg        PMU_FLAG_BLE_POWER_RISE: BLE power status rising edge flag
 447:../Firmware/GD32VW55x_standard_peripheral/Source/gd32vw55x_pmu.c ****     \param[out] none
 448:../Firmware/GD32VW55x_standard_peripheral/Source/gd32vw55x_pmu.c ****     \retval     FlagStatus: SET or RESET
 449:../Firmware/GD32VW55x_standard_peripheral/Source/gd32vw55x_pmu.c **** */
 450:../Firmware/GD32VW55x_standard_peripheral/Source/gd32vw55x_pmu.c **** FlagStatus pmu_flag_get(uint32_t flag)
 451:../Firmware/GD32VW55x_standard_peripheral/Source/gd32vw55x_pmu.c **** {
 1211              		.loc 1 451 1
 1212              		.cfi_startproc
 1213 0000 0111     		addi	sp,sp,-32
 1214              		.cfi_def_cfa_offset 32
 1215 0002 22CE     		sw	s0,28(sp)
 1216              		.cfi_offset 8, -4
 1217 0004 0010     		addi	s0,sp,32
 1218              		.cfi_def_cfa 8, 0
 1219 0006 2326A4FE 		sw	a0,-20(s0)
 452:../Firmware/GD32VW55x_standard_peripheral/Source/gd32vw55x_pmu.c ****     if(flag & BIT(31)) {
 1220              		.loc 1 452 8
 1221 000a 8327C4FE 		lw	a5,-20(s0)
 1222              		.loc 1 452 7
 1223 000e 63D70702 		bge	a5,zero,.L33
 453:../Firmware/GD32VW55x_standard_peripheral/Source/gd32vw55x_pmu.c ****         flag &= ~BIT(31);
 1224              		.loc 1 453 14
 1225 0012 0327C4FE 		lw	a4,-20(s0)
 1226 0016 B7070080 		li	a5,-2147483648
 1227 001a 93C7F7FF 		xori	a5,a5,-1
 1228 001e F98F     		and	a5,a4,a5
 1229 0020 2326F4FE 		sw	a5,-20(s0)
 454:../Firmware/GD32VW55x_standard_peripheral/Source/gd32vw55x_pmu.c ****         /* get WIFI SRAM status */
 455:../Firmware/GD32VW55x_standard_peripheral/Source/gd32vw55x_pmu.c ****         if(PMU_CS1 & flag) {
 1230              		.loc 1 455 12
 1231 0024 B7770040 		li	a5,1073770496
 1232 0028 B107     		addi	a5,a5,12
 1233 002a 9843     		lw	a4,0(a5)
 1234              		.loc 1 455 20
 1235 002c 8327C4FE 		lw	a5,-20(s0)
 1236 0030 F98F     		and	a5,a4,a5
 1237              		.loc 1 455 11
 1238 0032 99C3     		beq	a5,zero,.L34
 456:../Firmware/GD32VW55x_standard_peripheral/Source/gd32vw55x_pmu.c ****             return SET;
 1239              		.loc 1 456 20
 1240 0034 8547     		li	a5,1
 1241 0036 89A8     		j	.L35
 1242              	.L34:
 457:../Firmware/GD32VW55x_standard_peripheral/Source/gd32vw55x_pmu.c ****         }else {
 458:../Firmware/GD32VW55x_standard_peripheral/Source/gd32vw55x_pmu.c ****             return RESET;
 1243              		.loc 1 458 20
 1244 0038 8147     		li	a5,0
 1245 003a B9A0     		j	.L35
 1246              	.L33:
 459:../Firmware/GD32VW55x_standard_peripheral/Source/gd32vw55x_pmu.c ****         }
 460:../Firmware/GD32VW55x_standard_peripheral/Source/gd32vw55x_pmu.c ****     }else if(flag & BIT(30)) {
 1247              		.loc 1 460 19
 1248 003c 0327C4FE 		lw	a4,-20(s0)
 1249 0040 B7070040 		li	a5,1073741824
 1250 0044 F98F     		and	a5,a4,a5
 1251              		.loc 1 460 13
 1252 0046 95C7     		beq	a5,zero,.L36
 461:../Firmware/GD32VW55x_standard_peripheral/Source/gd32vw55x_pmu.c ****         flag &= ~BIT(30);
 1253              		.loc 1 461 14
 1254 0048 0327C4FE 		lw	a4,-20(s0)
 1255 004c B70700C0 		li	a5,-1073741824
 1256 0050 FD17     		addi	a5,a5,-1
 1257 0052 F98F     		and	a5,a4,a5
 1258 0054 2326F4FE 		sw	a5,-20(s0)
 462:../Firmware/GD32VW55x_standard_peripheral/Source/gd32vw55x_pmu.c ****         /* get BLE power status change flag*/
 463:../Firmware/GD32VW55x_standard_peripheral/Source/gd32vw55x_pmu.c ****         if(PMU_INTF & flag) {
 1259              		.loc 1 463 12
 1260 0058 B7770040 		li	a5,1073770496
 1261 005c 9387C702 		addi	a5,a5,44
 1262 0060 9843     		lw	a4,0(a5)
 1263              		.loc 1 463 21
 1264 0062 8327C4FE 		lw	a5,-20(s0)
 1265 0066 F98F     		and	a5,a4,a5
 1266              		.loc 1 463 11
 1267 0068 99C3     		beq	a5,zero,.L37
 464:../Firmware/GD32VW55x_standard_peripheral/Source/gd32vw55x_pmu.c ****             return SET;
 1268              		.loc 1 464 20
 1269 006a 8547     		li	a5,1
 1270 006c 31A8     		j	.L35
 1271              	.L37:
 465:../Firmware/GD32VW55x_standard_peripheral/Source/gd32vw55x_pmu.c ****         }else {
 466:../Firmware/GD32VW55x_standard_peripheral/Source/gd32vw55x_pmu.c ****             return RESET;
 1272              		.loc 1 466 20
 1273 006e 8147     		li	a5,0
 1274 0070 21A8     		j	.L35
 1275              	.L36:
 467:../Firmware/GD32VW55x_standard_peripheral/Source/gd32vw55x_pmu.c ****         }
 468:../Firmware/GD32VW55x_standard_peripheral/Source/gd32vw55x_pmu.c ****     }else {
 469:../Firmware/GD32VW55x_standard_peripheral/Source/gd32vw55x_pmu.c ****         /* get flag status in PMU_CS0 */
 470:../Firmware/GD32VW55x_standard_peripheral/Source/gd32vw55x_pmu.c ****         if(PMU_CS0 & flag) {
 1276              		.loc 1 470 12
 1277 0072 B7770040 		li	a5,1073770496
 1278 0076 9107     		addi	a5,a5,4
 1279 0078 9843     		lw	a4,0(a5)
 1280              		.loc 1 470 20
 1281 007a 8327C4FE 		lw	a5,-20(s0)
 1282 007e F98F     		and	a5,a4,a5
 1283              		.loc 1 470 11
 1284 0080 99C3     		beq	a5,zero,.L38
 471:../Firmware/GD32VW55x_standard_peripheral/Source/gd32vw55x_pmu.c ****             return SET;
 1285              		.loc 1 471 20
 1286 0082 8547     		li	a5,1
 1287 0084 11A0     		j	.L35
 1288              	.L38:
 472:../Firmware/GD32VW55x_standard_peripheral/Source/gd32vw55x_pmu.c ****         }else {
 473:../Firmware/GD32VW55x_standard_peripheral/Source/gd32vw55x_pmu.c ****             return RESET;
 1289              		.loc 1 473 20
 1290 0086 8147     		li	a5,0
 1291              	.L35:
 474:../Firmware/GD32VW55x_standard_peripheral/Source/gd32vw55x_pmu.c ****         }
 475:../Firmware/GD32VW55x_standard_peripheral/Source/gd32vw55x_pmu.c ****     }
 476:../Firmware/GD32VW55x_standard_peripheral/Source/gd32vw55x_pmu.c **** }
 1292              		.loc 1 476 1
 1293 0088 3E85     		mv	a0,a5
 1294 008a 7244     		lw	s0,28(sp)
 1295              		.cfi_restore 8
 1296              		.cfi_def_cfa 2, 32
 1297 008c 0561     		addi	sp,sp,32
 1298              		.cfi_def_cfa_offset 0
 1299 008e 8280     		jr	ra
 1300              		.cfi_endproc
 1301              	.LFE370:
 1303              		.section	.text.pmu_flag_clear,"ax",@progbits
 1304              		.align	1
 1305              		.globl	pmu_flag_clear
 1307              	pmu_flag_clear:
 1308              	.LFB371:
 477:../Firmware/GD32VW55x_standard_peripheral/Source/gd32vw55x_pmu.c **** 
 478:../Firmware/GD32VW55x_standard_peripheral/Source/gd32vw55x_pmu.c **** /*!
 479:../Firmware/GD32VW55x_standard_peripheral/Source/gd32vw55x_pmu.c ****     \brief      clear flag bit
 480:../Firmware/GD32VW55x_standard_peripheral/Source/gd32vw55x_pmu.c ****     \param[in]  flag:
 481:../Firmware/GD32VW55x_standard_peripheral/Source/gd32vw55x_pmu.c ****                 only one parameter can be selected which is shown as below:
 482:../Firmware/GD32VW55x_standard_peripheral/Source/gd32vw55x_pmu.c ****       \arg        PMU_FLAG_RESET_WAKEUP: reset wakeup flag
 483:../Firmware/GD32VW55x_standard_peripheral/Source/gd32vw55x_pmu.c ****       \arg        PMU_FLAG_RESET_STANDBY: reset standby flag
 484:../Firmware/GD32VW55x_standard_peripheral/Source/gd32vw55x_pmu.c ****       \arg        PMU_FLAG_RESET_LDRF: reset Low-driver mode ready flag
 485:../Firmware/GD32VW55x_standard_peripheral/Source/gd32vw55x_pmu.c ****     \param[out] none
 486:../Firmware/GD32VW55x_standard_peripheral/Source/gd32vw55x_pmu.c ****     \retval     none
 487:../Firmware/GD32VW55x_standard_peripheral/Source/gd32vw55x_pmu.c **** */
 488:../Firmware/GD32VW55x_standard_peripheral/Source/gd32vw55x_pmu.c **** void pmu_flag_clear(uint32_t flag)
 489:../Firmware/GD32VW55x_standard_peripheral/Source/gd32vw55x_pmu.c **** {
 1309              		.loc 1 489 1
 1310              		.cfi_startproc
 1311 0000 0111     		addi	sp,sp,-32
 1312              		.cfi_def_cfa_offset 32
 1313 0002 22CE     		sw	s0,28(sp)
 1314              		.cfi_offset 8, -4
 1315 0004 0010     		addi	s0,sp,32
 1316              		.cfi_def_cfa 8, 0
 1317 0006 2326A4FE 		sw	a0,-20(s0)
 490:../Firmware/GD32VW55x_standard_peripheral/Source/gd32vw55x_pmu.c ****     if(PMU_FLAG_RESET_LDRF == flag) {
 1318              		.loc 1 490 7
 1319 000a 0327C4FE 		lw	a4,-20(s0)
 1320 000e B7070C00 		li	a5,786432
 1321 0012 631EF700 		bne	a4,a5,.L40
 491:../Firmware/GD32VW55x_standard_peripheral/Source/gd32vw55x_pmu.c ****         PMU_CS0 |= flag;
 1322              		.loc 1 491 17
 1323 0016 B7770040 		li	a5,1073770496
 1324 001a 9107     		addi	a5,a5,4
 1325 001c 9443     		lw	a3,0(a5)
 1326 001e B7770040 		li	a5,1073770496
 1327 0022 9107     		addi	a5,a5,4
 1328 0024 0327C4FE 		lw	a4,-20(s0)
 1329 0028 558F     		or	a4,a3,a4
 1330 002a 98C3     		sw	a4,0(a5)
 492:../Firmware/GD32VW55x_standard_peripheral/Source/gd32vw55x_pmu.c ****     }else {
 493:../Firmware/GD32VW55x_standard_peripheral/Source/gd32vw55x_pmu.c ****         PMU_CTL0 |= flag;
 494:../Firmware/GD32VW55x_standard_peripheral/Source/gd32vw55x_pmu.c ****     }
 495:../Firmware/GD32VW55x_standard_peripheral/Source/gd32vw55x_pmu.c **** }
 1331              		.loc 1 495 1
 1332 002c 11A8     		j	.L42
 1333              	.L40:
 493:../Firmware/GD32VW55x_standard_peripheral/Source/gd32vw55x_pmu.c ****     }
 1334              		.loc 1 493 18
 1335 002e B7770040 		li	a5,1073770496
 1336 0032 9443     		lw	a3,0(a5)
 1337 0034 B7770040 		li	a5,1073770496
 1338 0038 0327C4FE 		lw	a4,-20(s0)
 1339 003c 558F     		or	a4,a3,a4
 1340 003e 98C3     		sw	a4,0(a5)
 1341              	.L42:
 1342              		.loc 1 495 1
 1343 0040 0100     		nop
 1344 0042 7244     		lw	s0,28(sp)
 1345              		.cfi_restore 8
 1346              		.cfi_def_cfa 2, 32
 1347 0044 0561     		addi	sp,sp,32
 1348              		.cfi_def_cfa_offset 0
 1349 0046 8280     		jr	ra
 1350              		.cfi_endproc
 1351              	.LFE371:
 1353              		.section	.text.pmu_interrupt_enable,"ax",@progbits
 1354              		.align	1
 1355              		.globl	pmu_interrupt_enable
 1357              	pmu_interrupt_enable:
 1358              	.LFB372:
 496:../Firmware/GD32VW55x_standard_peripheral/Source/gd32vw55x_pmu.c **** 
 497:../Firmware/GD32VW55x_standard_peripheral/Source/gd32vw55x_pmu.c **** /*!
 498:../Firmware/GD32VW55x_standard_peripheral/Source/gd32vw55x_pmu.c ****     \brief      enable PMU interrupt
 499:../Firmware/GD32VW55x_standard_peripheral/Source/gd32vw55x_pmu.c ****     \param[in]  interrupt: the PMU interrupt
 500:../Firmware/GD32VW55x_standard_peripheral/Source/gd32vw55x_pmu.c ****                 only one parameter can be selected which is shown as below:
 501:../Firmware/GD32VW55x_standard_peripheral/Source/gd32vw55x_pmu.c ****       \arg        PMU_INT_BLE_POWER_FALL: BLE power status falling edge interrupt
 502:../Firmware/GD32VW55x_standard_peripheral/Source/gd32vw55x_pmu.c ****       \arg        PMU_INT_BLE_POWER_RISE: BLE power status rising edge interrupt
 503:../Firmware/GD32VW55x_standard_peripheral/Source/gd32vw55x_pmu.c ****     \param[out] none
 504:../Firmware/GD32VW55x_standard_peripheral/Source/gd32vw55x_pmu.c ****     \retval     none
 505:../Firmware/GD32VW55x_standard_peripheral/Source/gd32vw55x_pmu.c **** */
 506:../Firmware/GD32VW55x_standard_peripheral/Source/gd32vw55x_pmu.c **** void pmu_interrupt_enable(uint32_t interrupt)
 507:../Firmware/GD32VW55x_standard_peripheral/Source/gd32vw55x_pmu.c **** {
 1359              		.loc 1 507 1
 1360              		.cfi_startproc
 1361 0000 0111     		addi	sp,sp,-32
 1362              		.cfi_def_cfa_offset 32
 1363 0002 22CE     		sw	s0,28(sp)
 1364              		.cfi_offset 8, -4
 1365 0004 0010     		addi	s0,sp,32
 1366              		.cfi_def_cfa 8, 0
 1367 0006 2326A4FE 		sw	a0,-20(s0)
 508:../Firmware/GD32VW55x_standard_peripheral/Source/gd32vw55x_pmu.c ****     PMU_INTEN |= (uint32_t)interrupt;
 1368              		.loc 1 508 15
 1369 000a B7770040 		li	a5,1073770496
 1370 000e 93870703 		addi	a5,a5,48
 1371 0012 9443     		lw	a3,0(a5)
 1372 0014 B7770040 		li	a5,1073770496
 1373 0018 93870703 		addi	a5,a5,48
 1374 001c 0327C4FE 		lw	a4,-20(s0)
 1375 0020 558F     		or	a4,a3,a4
 1376 0022 98C3     		sw	a4,0(a5)
 509:../Firmware/GD32VW55x_standard_peripheral/Source/gd32vw55x_pmu.c **** }
 1377              		.loc 1 509 1
 1378 0024 0100     		nop
 1379 0026 7244     		lw	s0,28(sp)
 1380              		.cfi_restore 8
 1381              		.cfi_def_cfa 2, 32
 1382 0028 0561     		addi	sp,sp,32
 1383              		.cfi_def_cfa_offset 0
 1384 002a 8280     		jr	ra
 1385              		.cfi_endproc
 1386              	.LFE372:
 1388              		.section	.text.pmu_interrupt_disable,"ax",@progbits
 1389              		.align	1
 1390              		.globl	pmu_interrupt_disable
 1392              	pmu_interrupt_disable:
 1393              	.LFB373:
 510:../Firmware/GD32VW55x_standard_peripheral/Source/gd32vw55x_pmu.c **** 
 511:../Firmware/GD32VW55x_standard_peripheral/Source/gd32vw55x_pmu.c **** /*!
 512:../Firmware/GD32VW55x_standard_peripheral/Source/gd32vw55x_pmu.c ****     \brief      disable PMU interrupt
 513:../Firmware/GD32VW55x_standard_peripheral/Source/gd32vw55x_pmu.c ****     \param[in]  interrupt: the PMU interrupt
 514:../Firmware/GD32VW55x_standard_peripheral/Source/gd32vw55x_pmu.c ****                 only one parameter can be selected which is shown as below:
 515:../Firmware/GD32VW55x_standard_peripheral/Source/gd32vw55x_pmu.c ****       \arg        PMU_INT_BLE_POWER_FALL: BLE power status falling edge interrupt
 516:../Firmware/GD32VW55x_standard_peripheral/Source/gd32vw55x_pmu.c ****       \arg        PMU_INT_BLE_POWER_RISE: BLE power status rising edge interrupt
 517:../Firmware/GD32VW55x_standard_peripheral/Source/gd32vw55x_pmu.c ****     \param[out] none
 518:../Firmware/GD32VW55x_standard_peripheral/Source/gd32vw55x_pmu.c ****     \retval     none
 519:../Firmware/GD32VW55x_standard_peripheral/Source/gd32vw55x_pmu.c **** */
 520:../Firmware/GD32VW55x_standard_peripheral/Source/gd32vw55x_pmu.c **** void pmu_interrupt_disable(uint32_t interrupt)
 521:../Firmware/GD32VW55x_standard_peripheral/Source/gd32vw55x_pmu.c **** {
 1394              		.loc 1 521 1
 1395              		.cfi_startproc
 1396 0000 0111     		addi	sp,sp,-32
 1397              		.cfi_def_cfa_offset 32
 1398 0002 22CE     		sw	s0,28(sp)
 1399              		.cfi_offset 8, -4
 1400 0004 0010     		addi	s0,sp,32
 1401              		.cfi_def_cfa 8, 0
 1402 0006 2326A4FE 		sw	a0,-20(s0)
 522:../Firmware/GD32VW55x_standard_peripheral/Source/gd32vw55x_pmu.c ****     PMU_INTEN &= ~((uint32_t)interrupt);
 1403              		.loc 1 522 15
 1404 000a B7770040 		li	a5,1073770496
 1405 000e 93870703 		addi	a5,a5,48
 1406 0012 9443     		lw	a3,0(a5)
 1407              		.loc 1 522 18
 1408 0014 8327C4FE 		lw	a5,-20(s0)
 1409 0018 13C7F7FF 		not	a4,a5
 1410              		.loc 1 522 15
 1411 001c B7770040 		li	a5,1073770496
 1412 0020 93870703 		addi	a5,a5,48
 1413 0024 758F     		and	a4,a3,a4
 1414 0026 98C3     		sw	a4,0(a5)
 523:../Firmware/GD32VW55x_standard_peripheral/Source/gd32vw55x_pmu.c **** }
 1415              		.loc 1 523 1
 1416 0028 0100     		nop
 1417 002a 7244     		lw	s0,28(sp)
 1418              		.cfi_restore 8
 1419              		.cfi_def_cfa 2, 32
 1420 002c 0561     		addi	sp,sp,32
 1421              		.cfi_def_cfa_offset 0
 1422 002e 8280     		jr	ra
 1423              		.cfi_endproc
 1424              	.LFE373:
 1426              		.section	.text.pmu_interrupt_flag_get,"ax",@progbits
 1427              		.align	1
 1428              		.globl	pmu_interrupt_flag_get
 1430              	pmu_interrupt_flag_get:
 1431              	.LFB374:
 524:../Firmware/GD32VW55x_standard_peripheral/Source/gd32vw55x_pmu.c **** 
 525:../Firmware/GD32VW55x_standard_peripheral/Source/gd32vw55x_pmu.c **** /*!
 526:../Firmware/GD32VW55x_standard_peripheral/Source/gd32vw55x_pmu.c ****     \brief      get PMU interrupt flag
 527:../Firmware/GD32VW55x_standard_peripheral/Source/gd32vw55x_pmu.c ****     \param[in]  int_flag: the PMU interrupt flag
 528:../Firmware/GD32VW55x_standard_peripheral/Source/gd32vw55x_pmu.c ****                 only one parameter can be selected which is shown as below:
 529:../Firmware/GD32VW55x_standard_peripheral/Source/gd32vw55x_pmu.c ****       \arg        PMU_INT_FLAG_BLE_POWER_FALL: BLE power status falling edge interrupt
 530:../Firmware/GD32VW55x_standard_peripheral/Source/gd32vw55x_pmu.c ****       \arg        PMU_INT_FLAG_BLE_POWER_RISE: BLE power status rising edge interrupt
 531:../Firmware/GD32VW55x_standard_peripheral/Source/gd32vw55x_pmu.c ****     \param[out] none
 532:../Firmware/GD32VW55x_standard_peripheral/Source/gd32vw55x_pmu.c ****     \retval     FlagStatus: SET or RESET
 533:../Firmware/GD32VW55x_standard_peripheral/Source/gd32vw55x_pmu.c **** */
 534:../Firmware/GD32VW55x_standard_peripheral/Source/gd32vw55x_pmu.c **** FlagStatus pmu_interrupt_flag_get(uint32_t int_flag)
 535:../Firmware/GD32VW55x_standard_peripheral/Source/gd32vw55x_pmu.c **** {
 1432              		.loc 1 535 1
 1433              		.cfi_startproc
 1434 0000 7971     		addi	sp,sp,-48
 1435              		.cfi_def_cfa_offset 48
 1436 0002 22D6     		sw	s0,44(sp)
 1437              		.cfi_offset 8, -4
 1438 0004 0018     		addi	s0,sp,48
 1439              		.cfi_def_cfa 8, 0
 1440 0006 232EA4FC 		sw	a0,-36(s0)
 536:../Firmware/GD32VW55x_standard_peripheral/Source/gd32vw55x_pmu.c ****     FlagStatus interrupt_flag = RESET;
 1441              		.loc 1 536 16
 1442 000a 232604FE 		sw	zero,-20(s0)
 537:../Firmware/GD32VW55x_standard_peripheral/Source/gd32vw55x_pmu.c ****     uint32_t state;
 538:../Firmware/GD32VW55x_standard_peripheral/Source/gd32vw55x_pmu.c ****     /* check the interrupt bits */
 539:../Firmware/GD32VW55x_standard_peripheral/Source/gd32vw55x_pmu.c ****     switch(int_flag){
 1443              		.loc 1 539 5
 1444 000e 0327C4FD 		lw	a4,-36(s0)
 1445 0012 8547     		li	a5,1
 1446 0014 6308F700 		beq	a4,a5,.L46
 1447 0018 0327C4FD 		lw	a4,-36(s0)
 1448 001c 8947     		li	a5,2
 1449 001e 6309F702 		beq	a4,a5,.L47
 540:../Firmware/GD32VW55x_standard_peripheral/Source/gd32vw55x_pmu.c ****     case PMU_INT_FLAG_BLE_POWER_FALL:
 541:../Firmware/GD32VW55x_standard_peripheral/Source/gd32vw55x_pmu.c ****         /* get BLE power status rising edge interrupt bits */
 542:../Firmware/GD32VW55x_standard_peripheral/Source/gd32vw55x_pmu.c ****         state = PMU_INTF & PMU_INTF_BLE_PS_FALLF;
 543:../Firmware/GD32VW55x_standard_peripheral/Source/gd32vw55x_pmu.c ****         if((PMU_INTEN & PMU_INTEN_BLE_PS_FALL_EN) && state){
 544:../Firmware/GD32VW55x_standard_peripheral/Source/gd32vw55x_pmu.c ****           interrupt_flag = SET;
 545:../Firmware/GD32VW55x_standard_peripheral/Source/gd32vw55x_pmu.c ****         }
 546:../Firmware/GD32VW55x_standard_peripheral/Source/gd32vw55x_pmu.c ****         break;
 547:../Firmware/GD32VW55x_standard_peripheral/Source/gd32vw55x_pmu.c ****     case PMU_INT_FLAG_BLE_POWER_RISE:
 548:../Firmware/GD32VW55x_standard_peripheral/Source/gd32vw55x_pmu.c ****          /* get BLE power status rising edge interrupt bits */
 549:../Firmware/GD32VW55x_standard_peripheral/Source/gd32vw55x_pmu.c ****         state = PMU_INTF & PMU_INTF_BLE_PS_RISEF;
 550:../Firmware/GD32VW55x_standard_peripheral/Source/gd32vw55x_pmu.c ****           if((PMU_INTEN & PMU_INTEN_BLE_PS_RISE_EN) && state){
 551:../Firmware/GD32VW55x_standard_peripheral/Source/gd32vw55x_pmu.c ****             interrupt_flag = SET;
 552:../Firmware/GD32VW55x_standard_peripheral/Source/gd32vw55x_pmu.c ****           }
 553:../Firmware/GD32VW55x_standard_peripheral/Source/gd32vw55x_pmu.c ****         break;
 554:../Firmware/GD32VW55x_standard_peripheral/Source/gd32vw55x_pmu.c ****     default:
 555:../Firmware/GD32VW55x_standard_peripheral/Source/gd32vw55x_pmu.c ****         break;
 1450              		.loc 1 555 9
 1451 0022 85A0     		j	.L50
 1452              	.L46:
 542:../Firmware/GD32VW55x_standard_peripheral/Source/gd32vw55x_pmu.c ****         if((PMU_INTEN & PMU_INTEN_BLE_PS_FALL_EN) && state){
 1453              		.loc 1 542 17
 1454 0024 B7770040 		li	a5,1073770496
 1455 0028 9387C702 		addi	a5,a5,44
 1456 002c 9C43     		lw	a5,0(a5)
 542:../Firmware/GD32VW55x_standard_peripheral/Source/gd32vw55x_pmu.c ****         if((PMU_INTEN & PMU_INTEN_BLE_PS_FALL_EN) && state){
 1457              		.loc 1 542 15
 1458 002e 858B     		andi	a5,a5,1
 1459 0030 2324F4FE 		sw	a5,-24(s0)
 543:../Firmware/GD32VW55x_standard_peripheral/Source/gd32vw55x_pmu.c ****           interrupt_flag = SET;
 1460              		.loc 1 543 13
 1461 0034 B7770040 		li	a5,1073770496
 1462 0038 93870703 		addi	a5,a5,48
 1463 003c 9C43     		lw	a5,0(a5)
 543:../Firmware/GD32VW55x_standard_peripheral/Source/gd32vw55x_pmu.c ****           interrupt_flag = SET;
 1464              		.loc 1 543 23
 1465 003e 858B     		andi	a5,a5,1
 543:../Firmware/GD32VW55x_standard_peripheral/Source/gd32vw55x_pmu.c ****           interrupt_flag = SET;
 1466              		.loc 1 543 11
 1467 0040 95CF     		beq	a5,zero,.L53
 543:../Firmware/GD32VW55x_standard_peripheral/Source/gd32vw55x_pmu.c ****           interrupt_flag = SET;
 1468              		.loc 1 543 51 discriminator 1
 1469 0042 832784FE 		lw	a5,-24(s0)
 1470 0046 9DCB     		beq	a5,zero,.L53
 544:../Firmware/GD32VW55x_standard_peripheral/Source/gd32vw55x_pmu.c ****         }
 1471              		.loc 1 544 26
 1472 0048 8547     		li	a5,1
 1473 004a 2326F4FE 		sw	a5,-20(s0)
 546:../Firmware/GD32VW55x_standard_peripheral/Source/gd32vw55x_pmu.c ****     case PMU_INT_FLAG_BLE_POWER_RISE:
 1474              		.loc 1 546 9
 1475 004e 3DA0     		j	.L53
 1476              	.L47:
 549:../Firmware/GD32VW55x_standard_peripheral/Source/gd32vw55x_pmu.c ****           if((PMU_INTEN & PMU_INTEN_BLE_PS_RISE_EN) && state){
 1477              		.loc 1 549 17
 1478 0050 B7770040 		li	a5,1073770496
 1479 0054 9387C702 		addi	a5,a5,44
 1480 0058 9C43     		lw	a5,0(a5)
 549:../Firmware/GD32VW55x_standard_peripheral/Source/gd32vw55x_pmu.c ****           if((PMU_INTEN & PMU_INTEN_BLE_PS_RISE_EN) && state){
 1481              		.loc 1 549 15
 1482 005a 898B     		andi	a5,a5,2
 1483 005c 2324F4FE 		sw	a5,-24(s0)
 550:../Firmware/GD32VW55x_standard_peripheral/Source/gd32vw55x_pmu.c ****             interrupt_flag = SET;
 1484              		.loc 1 550 15
 1485 0060 B7770040 		li	a5,1073770496
 1486 0064 93870703 		addi	a5,a5,48
 1487 0068 9C43     		lw	a5,0(a5)
 550:../Firmware/GD32VW55x_standard_peripheral/Source/gd32vw55x_pmu.c ****             interrupt_flag = SET;
 1488              		.loc 1 550 25
 1489 006a 898B     		andi	a5,a5,2
 550:../Firmware/GD32VW55x_standard_peripheral/Source/gd32vw55x_pmu.c ****             interrupt_flag = SET;
 1490              		.loc 1 550 13
 1491 006c 91CB     		beq	a5,zero,.L54
 550:../Firmware/GD32VW55x_standard_peripheral/Source/gd32vw55x_pmu.c ****             interrupt_flag = SET;
 1492              		.loc 1 550 53 discriminator 1
 1493 006e 832784FE 		lw	a5,-24(s0)
 1494 0072 99C7     		beq	a5,zero,.L54
 551:../Firmware/GD32VW55x_standard_peripheral/Source/gd32vw55x_pmu.c ****           }
 1495              		.loc 1 551 28
 1496 0074 8547     		li	a5,1
 1497 0076 2326F4FE 		sw	a5,-20(s0)
 553:../Firmware/GD32VW55x_standard_peripheral/Source/gd32vw55x_pmu.c ****     default:
 1498              		.loc 1 553 9
 1499 007a 19A0     		j	.L54
 1500              	.L53:
 546:../Firmware/GD32VW55x_standard_peripheral/Source/gd32vw55x_pmu.c ****     case PMU_INT_FLAG_BLE_POWER_RISE:
 1501              		.loc 1 546 9
 1502 007c 0100     		nop
 1503 007e 11A0     		j	.L50
 1504              	.L54:
 553:../Firmware/GD32VW55x_standard_peripheral/Source/gd32vw55x_pmu.c ****     default:
 1505              		.loc 1 553 9
 1506 0080 0100     		nop
 1507              	.L50:
 556:../Firmware/GD32VW55x_standard_peripheral/Source/gd32vw55x_pmu.c ****     }
 557:../Firmware/GD32VW55x_standard_peripheral/Source/gd32vw55x_pmu.c ****     return interrupt_flag;
 1508              		.loc 1 557 12
 1509 0082 8327C4FE 		lw	a5,-20(s0)
 558:../Firmware/GD32VW55x_standard_peripheral/Source/gd32vw55x_pmu.c **** }
 1510              		.loc 1 558 1
 1511 0086 3E85     		mv	a0,a5
 1512 0088 3254     		lw	s0,44(sp)
 1513              		.cfi_restore 8
 1514              		.cfi_def_cfa 2, 48
 1515 008a 4561     		addi	sp,sp,48
 1516              		.cfi_def_cfa_offset 0
 1517 008c 8280     		jr	ra
 1518              		.cfi_endproc
 1519              	.LFE374:
 1521              		.section	.text.pmu_interrupt_flag_clear,"ax",@progbits
 1522              		.align	1
 1523              		.globl	pmu_interrupt_flag_clear
 1525              	pmu_interrupt_flag_clear:
 1526              	.LFB375:
 559:../Firmware/GD32VW55x_standard_peripheral/Source/gd32vw55x_pmu.c **** 
 560:../Firmware/GD32VW55x_standard_peripheral/Source/gd32vw55x_pmu.c **** /*!
 561:../Firmware/GD32VW55x_standard_peripheral/Source/gd32vw55x_pmu.c ****     \brief      clear PMU interrupt flag
 562:../Firmware/GD32VW55x_standard_peripheral/Source/gd32vw55x_pmu.c ****     \param[in]  int_flag: the PMU interrupt flag
 563:../Firmware/GD32VW55x_standard_peripheral/Source/gd32vw55x_pmu.c ****                 only one parameter can be selected which is shown as below:
 564:../Firmware/GD32VW55x_standard_peripheral/Source/gd32vw55x_pmu.c ****       \arg        PMU_INT_FLAG_RESET_BLE_POWER_FALL: BLE power status falling edge interrupt
 565:../Firmware/GD32VW55x_standard_peripheral/Source/gd32vw55x_pmu.c ****       \arg        PMU_INT_FLAG_RESET_BLE_POWER_RISE: BLE power status rising edge interrupt
 566:../Firmware/GD32VW55x_standard_peripheral/Source/gd32vw55x_pmu.c ****     \param[out] none
 567:../Firmware/GD32VW55x_standard_peripheral/Source/gd32vw55x_pmu.c ****     \retval     none
 568:../Firmware/GD32VW55x_standard_peripheral/Source/gd32vw55x_pmu.c **** */
 569:../Firmware/GD32VW55x_standard_peripheral/Source/gd32vw55x_pmu.c **** void pmu_interrupt_flag_clear(uint32_t int_flag)
 570:../Firmware/GD32VW55x_standard_peripheral/Source/gd32vw55x_pmu.c **** {
 1527              		.loc 1 570 1
 1528              		.cfi_startproc
 1529 0000 0111     		addi	sp,sp,-32
 1530              		.cfi_def_cfa_offset 32
 1531 0002 22CE     		sw	s0,28(sp)
 1532              		.cfi_offset 8, -4
 1533 0004 0010     		addi	s0,sp,32
 1534              		.cfi_def_cfa 8, 0
 1535 0006 2326A4FE 		sw	a0,-20(s0)
 571:../Firmware/GD32VW55x_standard_peripheral/Source/gd32vw55x_pmu.c ****     PMU_INTC |= (uint32_t)int_flag;
 1536              		.loc 1 571 14
 1537 000a B7770040 		li	a5,1073770496
 1538 000e 93874703 		addi	a5,a5,52
 1539 0012 9443     		lw	a3,0(a5)
 1540 0014 B7770040 		li	a5,1073770496
 1541 0018 93874703 		addi	a5,a5,52
 1542 001c 0327C4FE 		lw	a4,-20(s0)
 1543 0020 558F     		or	a4,a3,a4
 1544 0022 98C3     		sw	a4,0(a5)
 572:../Firmware/GD32VW55x_standard_peripheral/Source/gd32vw55x_pmu.c **** }
 1545              		.loc 1 572 1
 1546 0024 0100     		nop
 1547 0026 7244     		lw	s0,28(sp)
 1548              		.cfi_restore 8
 1549              		.cfi_def_cfa 2, 32
 1550 0028 0561     		addi	sp,sp,32
 1551              		.cfi_def_cfa_offset 0
 1552 002a 8280     		jr	ra
 1553              		.cfi_endproc
 1554              	.LFE375:
 1556              		.text
 1557              	.Letext0:
 1558              		.file 3 "e:\\gd32\\gd32embeddedbuilder_v1.5.2.30854\\tools\\nuclei_riscv_newlibc_prebuilt_win32_20
 1559              		.file 4 "e:\\gd32\\gd32embeddedbuilder_v1.5.2.30854\\tools\\nuclei_riscv_newlibc_prebuilt_win32_20
 1560              		.file 5 "../Firmware/GD32VW55x_standard_peripheral/gd32vw55x.h"
 1561              		.file 6 "../Firmware/GD32VW55x_standard_peripheral/Include/gd32vw55x_rcu.h"
DEFINED SYMBOLS
                            *ABS*:0000000000000000 gd32vw55x_pmu.c
C:\Users\CYMR90~1\AppData\Local\Temp\ccioldvv.s:13     .text.pmu_deinit:0000000000000000 pmu_deinit
C:\Users\CYMR90~1\AppData\Local\Temp\ccioldvv.s:17     .text.pmu_deinit:0000000000000000 .L0 
C:\Users\CYMR90~1\AppData\Local\Temp\ccioldvv.s:18     .text.pmu_deinit:0000000000000000 .L0 
C:\Users\CYMR90~1\AppData\Local\Temp\ccioldvv.s:19     .text.pmu_deinit:0000000000000002 .L0 
C:\Users\CYMR90~1\AppData\Local\Temp\ccioldvv.s:22     .text.pmu_deinit:0000000000000006 .L0 
C:\Users\CYMR90~1\AppData\Local\Temp\ccioldvv.s:23     .text.pmu_deinit:0000000000000006 .L0 
C:\Users\CYMR90~1\AppData\Local\Temp\ccioldvv.s:25     .text.pmu_deinit:0000000000000008 .L0 
C:\Users\CYMR90~1\AppData\Local\Temp\ccioldvv.s:27     .text.pmu_deinit:0000000000000008 .L0 
C:\Users\CYMR90~1\AppData\Local\Temp\ccioldvv.s:31     .text.pmu_deinit:0000000000000016 .L0 
C:\Users\CYMR90~1\AppData\Local\Temp\ccioldvv.s:35     .text.pmu_deinit:0000000000000024 .L0 
C:\Users\CYMR90~1\AppData\Local\Temp\ccioldvv.s:37     .text.pmu_deinit:0000000000000028 .L0 
C:\Users\CYMR90~1\AppData\Local\Temp\ccioldvv.s:39     .text.pmu_deinit:000000000000002a .L0 
C:\Users\CYMR90~1\AppData\Local\Temp\ccioldvv.s:40     .text.pmu_deinit:000000000000002a .L0 
C:\Users\CYMR90~1\AppData\Local\Temp\ccioldvv.s:42     .text.pmu_deinit:000000000000002c .L0 
C:\Users\CYMR90~1\AppData\Local\Temp\ccioldvv.s:44     .text.pmu_deinit:000000000000002e .L0 
C:\Users\CYMR90~1\AppData\Local\Temp\ccioldvv.s:51     .text.pmu_lvd_select:0000000000000000 pmu_lvd_select
C:\Users\CYMR90~1\AppData\Local\Temp\ccioldvv.s:54     .text.pmu_lvd_select:0000000000000000 .L0 
C:\Users\CYMR90~1\AppData\Local\Temp\ccioldvv.s:55     .text.pmu_lvd_select:0000000000000000 .L0 
C:\Users\CYMR90~1\AppData\Local\Temp\ccioldvv.s:56     .text.pmu_lvd_select:0000000000000002 .L0 
C:\Users\CYMR90~1\AppData\Local\Temp\ccioldvv.s:58     .text.pmu_lvd_select:0000000000000004 .L0 
C:\Users\CYMR90~1\AppData\Local\Temp\ccioldvv.s:60     .text.pmu_lvd_select:0000000000000006 .L0 
C:\Users\CYMR90~1\AppData\Local\Temp\ccioldvv.s:63     .text.pmu_lvd_select:000000000000000a .L0 
C:\Users\CYMR90~1\AppData\Local\Temp\ccioldvv.s:69     .text.pmu_lvd_select:0000000000000018 .L0 
C:\Users\CYMR90~1\AppData\Local\Temp\ccioldvv.s:75     .text.pmu_lvd_select:0000000000000028 .L0 
C:\Users\CYMR90~1\AppData\Local\Temp\ccioldvv.s:82     .text.pmu_lvd_select:000000000000003a .L0 
C:\Users\CYMR90~1\AppData\Local\Temp\ccioldvv.s:88     .text.pmu_lvd_select:000000000000004a .L0 
C:\Users\CYMR90~1\AppData\Local\Temp\ccioldvv.s:90     .text.pmu_lvd_select:000000000000004e .L0 
C:\Users\CYMR90~1\AppData\Local\Temp\ccioldvv.s:91     .text.pmu_lvd_select:000000000000004e .L0 
C:\Users\CYMR90~1\AppData\Local\Temp\ccioldvv.s:93     .text.pmu_lvd_select:0000000000000050 .L0 
C:\Users\CYMR90~1\AppData\Local\Temp\ccioldvv.s:95     .text.pmu_lvd_select:0000000000000052 .L0 
C:\Users\CYMR90~1\AppData\Local\Temp\ccioldvv.s:102    .text.pmu_lvd_enable:0000000000000000 pmu_lvd_enable
C:\Users\CYMR90~1\AppData\Local\Temp\ccioldvv.s:105    .text.pmu_lvd_enable:0000000000000000 .L0 
C:\Users\CYMR90~1\AppData\Local\Temp\ccioldvv.s:106    .text.pmu_lvd_enable:0000000000000000 .L0 
C:\Users\CYMR90~1\AppData\Local\Temp\ccioldvv.s:107    .text.pmu_lvd_enable:0000000000000002 .L0 
C:\Users\CYMR90~1\AppData\Local\Temp\ccioldvv.s:109    .text.pmu_lvd_enable:0000000000000004 .L0 
C:\Users\CYMR90~1\AppData\Local\Temp\ccioldvv.s:111    .text.pmu_lvd_enable:0000000000000006 .L0 
C:\Users\CYMR90~1\AppData\Local\Temp\ccioldvv.s:113    .text.pmu_lvd_enable:0000000000000006 .L0 
C:\Users\CYMR90~1\AppData\Local\Temp\ccioldvv.s:119    .text.pmu_lvd_enable:0000000000000016 .L0 
C:\Users\CYMR90~1\AppData\Local\Temp\ccioldvv.s:121    .text.pmu_lvd_enable:000000000000001a .L0 
C:\Users\CYMR90~1\AppData\Local\Temp\ccioldvv.s:122    .text.pmu_lvd_enable:000000000000001a .L0 
C:\Users\CYMR90~1\AppData\Local\Temp\ccioldvv.s:124    .text.pmu_lvd_enable:000000000000001c .L0 
C:\Users\CYMR90~1\AppData\Local\Temp\ccioldvv.s:126    .text.pmu_lvd_enable:000000000000001e .L0 
C:\Users\CYMR90~1\AppData\Local\Temp\ccioldvv.s:133    .text.pmu_lvd_disable:0000000000000000 pmu_lvd_disable
C:\Users\CYMR90~1\AppData\Local\Temp\ccioldvv.s:136    .text.pmu_lvd_disable:0000000000000000 .L0 
C:\Users\CYMR90~1\AppData\Local\Temp\ccioldvv.s:137    .text.pmu_lvd_disable:0000000000000000 .L0 
C:\Users\CYMR90~1\AppData\Local\Temp\ccioldvv.s:138    .text.pmu_lvd_disable:0000000000000002 .L0 
C:\Users\CYMR90~1\AppData\Local\Temp\ccioldvv.s:140    .text.pmu_lvd_disable:0000000000000004 .L0 
C:\Users\CYMR90~1\AppData\Local\Temp\ccioldvv.s:142    .text.pmu_lvd_disable:0000000000000006 .L0 
C:\Users\CYMR90~1\AppData\Local\Temp\ccioldvv.s:144    .text.pmu_lvd_disable:0000000000000006 .L0 
C:\Users\CYMR90~1\AppData\Local\Temp\ccioldvv.s:150    .text.pmu_lvd_disable:0000000000000014 .L0 
C:\Users\CYMR90~1\AppData\Local\Temp\ccioldvv.s:152    .text.pmu_lvd_disable:0000000000000018 .L0 
C:\Users\CYMR90~1\AppData\Local\Temp\ccioldvv.s:153    .text.pmu_lvd_disable:0000000000000018 .L0 
C:\Users\CYMR90~1\AppData\Local\Temp\ccioldvv.s:155    .text.pmu_lvd_disable:000000000000001a .L0 
C:\Users\CYMR90~1\AppData\Local\Temp\ccioldvv.s:157    .text.pmu_lvd_disable:000000000000001c .L0 
C:\Users\CYMR90~1\AppData\Local\Temp\ccioldvv.s:164    .text.pmu_backup_write_enable:0000000000000000 pmu_backup_write_enable
C:\Users\CYMR90~1\AppData\Local\Temp\ccioldvv.s:167    .text.pmu_backup_write_enable:0000000000000000 .L0 
C:\Users\CYMR90~1\AppData\Local\Temp\ccioldvv.s:168    .text.pmu_backup_write_enable:0000000000000000 .L0 
C:\Users\CYMR90~1\AppData\Local\Temp\ccioldvv.s:169    .text.pmu_backup_write_enable:0000000000000002 .L0 
C:\Users\CYMR90~1\AppData\Local\Temp\ccioldvv.s:171    .text.pmu_backup_write_enable:0000000000000004 .L0 
C:\Users\CYMR90~1\AppData\Local\Temp\ccioldvv.s:173    .text.pmu_backup_write_enable:0000000000000006 .L0 
C:\Users\CYMR90~1\AppData\Local\Temp\ccioldvv.s:175    .text.pmu_backup_write_enable:0000000000000006 .L0 
C:\Users\CYMR90~1\AppData\Local\Temp\ccioldvv.s:181    .text.pmu_backup_write_enable:0000000000000016 .L0 
C:\Users\CYMR90~1\AppData\Local\Temp\ccioldvv.s:183    .text.pmu_backup_write_enable:000000000000001a .L0 
C:\Users\CYMR90~1\AppData\Local\Temp\ccioldvv.s:184    .text.pmu_backup_write_enable:000000000000001a .L0 
C:\Users\CYMR90~1\AppData\Local\Temp\ccioldvv.s:186    .text.pmu_backup_write_enable:000000000000001c .L0 
C:\Users\CYMR90~1\AppData\Local\Temp\ccioldvv.s:188    .text.pmu_backup_write_enable:000000000000001e .L0 
C:\Users\CYMR90~1\AppData\Local\Temp\ccioldvv.s:195    .text.pmu_backup_write_disable:0000000000000000 pmu_backup_write_disable
C:\Users\CYMR90~1\AppData\Local\Temp\ccioldvv.s:198    .text.pmu_backup_write_disable:0000000000000000 .L0 
C:\Users\CYMR90~1\AppData\Local\Temp\ccioldvv.s:199    .text.pmu_backup_write_disable:0000000000000000 .L0 
C:\Users\CYMR90~1\AppData\Local\Temp\ccioldvv.s:200    .text.pmu_backup_write_disable:0000000000000002 .L0 
C:\Users\CYMR90~1\AppData\Local\Temp\ccioldvv.s:202    .text.pmu_backup_write_disable:0000000000000004 .L0 
C:\Users\CYMR90~1\AppData\Local\Temp\ccioldvv.s:204    .text.pmu_backup_write_disable:0000000000000006 .L0 
C:\Users\CYMR90~1\AppData\Local\Temp\ccioldvv.s:206    .text.pmu_backup_write_disable:0000000000000006 .L0 
C:\Users\CYMR90~1\AppData\Local\Temp\ccioldvv.s:212    .text.pmu_backup_write_disable:0000000000000016 .L0 
C:\Users\CYMR90~1\AppData\Local\Temp\ccioldvv.s:214    .text.pmu_backup_write_disable:000000000000001a .L0 
C:\Users\CYMR90~1\AppData\Local\Temp\ccioldvv.s:215    .text.pmu_backup_write_disable:000000000000001a .L0 
C:\Users\CYMR90~1\AppData\Local\Temp\ccioldvv.s:217    .text.pmu_backup_write_disable:000000000000001c .L0 
C:\Users\CYMR90~1\AppData\Local\Temp\ccioldvv.s:219    .text.pmu_backup_write_disable:000000000000001e .L0 
C:\Users\CYMR90~1\AppData\Local\Temp\ccioldvv.s:226    .text.pmu_to_sleepmode:0000000000000000 pmu_to_sleepmode
C:\Users\CYMR90~1\AppData\Local\Temp\ccioldvv.s:229    .text.pmu_to_sleepmode:0000000000000000 .L0 
C:\Users\CYMR90~1\AppData\Local\Temp\ccioldvv.s:230    .text.pmu_to_sleepmode:0000000000000000 .L0 
C:\Users\CYMR90~1\AppData\Local\Temp\ccioldvv.s:231    .text.pmu_to_sleepmode:0000000000000002 .L0 
C:\Users\CYMR90~1\AppData\Local\Temp\ccioldvv.s:234    .text.pmu_to_sleepmode:0000000000000006 .L0 
C:\Users\CYMR90~1\AppData\Local\Temp\ccioldvv.s:235    .text.pmu_to_sleepmode:0000000000000006 .L0 
C:\Users\CYMR90~1\AppData\Local\Temp\ccioldvv.s:237    .text.pmu_to_sleepmode:0000000000000008 .L0 
C:\Users\CYMR90~1\AppData\Local\Temp\ccioldvv.s:246    .text.pmu_to_sleepmode:0000000000000012 .L0 
C:\Users\CYMR90~1\AppData\Local\Temp\ccioldvv.s:254    .text.pmu_to_sleepmode:000000000000001a .L0 
C:\Users\CYMR90~1\AppData\Local\Temp\ccioldvv.s:258    .text.pmu_to_sleepmode:000000000000001c .L0 
C:\Users\CYMR90~1\AppData\Local\Temp\ccioldvv.s:264    .text.pmu_to_sleepmode:0000000000000022 .L0 
../Firmware/RISCV/drivers/core_feature_base.h:719    .text.pmu_to_sleepmode:0000000000000028 .L0 
C:\Users\CYMR90~1\AppData\Local\Temp\ccioldvv.s:278    .text.pmu_to_sleepmode:000000000000002c .L0 
C:\Users\CYMR90~1\AppData\Local\Temp\ccioldvv.s:286    .text.pmu_to_sleepmode:000000000000002e .L0 
C:\Users\CYMR90~1\AppData\Local\Temp\ccioldvv.s:294    .text.pmu_to_sleepmode:0000000000000034 .L0 
C:\Users\CYMR90~1\AppData\Local\Temp\ccioldvv.s:301    .text.pmu_to_sleepmode:0000000000000036 .L0 
../Firmware/RISCV/drivers/core_feature_base.h:732    .text.pmu_to_sleepmode:000000000000003c .L0 
C:\Users\CYMR90~1\AppData\Local\Temp\ccioldvv.s:316    .text.pmu_to_sleepmode:0000000000000040 .L0 
C:\Users\CYMR90~1\AppData\Local\Temp\ccioldvv.s:324    .text.pmu_to_sleepmode:0000000000000046 .L0 
C:\Users\CYMR90~1\AppData\Local\Temp\ccioldvv.s:331    .text.pmu_to_sleepmode:0000000000000048 .L0 
C:\Users\CYMR90~1\AppData\Local\Temp\ccioldvv.s:339    .text.pmu_to_sleepmode:000000000000004e .L0 
C:\Users\CYMR90~1\AppData\Local\Temp\ccioldvv.s:344    .text.pmu_to_sleepmode:0000000000000050 .L0 
C:\Users\CYMR90~1\AppData\Local\Temp\ccioldvv.s:346    .text.pmu_to_sleepmode:0000000000000054 .L0 
C:\Users\CYMR90~1\AppData\Local\Temp\ccioldvv.s:347    .text.pmu_to_sleepmode:0000000000000054 .L0 
C:\Users\CYMR90~1\AppData\Local\Temp\ccioldvv.s:349    .text.pmu_to_sleepmode:0000000000000056 .L0 
C:\Users\CYMR90~1\AppData\Local\Temp\ccioldvv.s:351    .text.pmu_to_sleepmode:0000000000000058 .L0 
C:\Users\CYMR90~1\AppData\Local\Temp\ccioldvv.s:353    .text.pmu_to_sleepmode:000000000000005a .L0 
C:\Users\CYMR90~1\AppData\Local\Temp\ccioldvv.s:360    .text.pmu_to_deepsleepmode:0000000000000000 pmu_to_deepsleepmode
C:\Users\CYMR90~1\AppData\Local\Temp\ccioldvv.s:363    .text.pmu_to_deepsleepmode:0000000000000000 .L0 
C:\Users\CYMR90~1\AppData\Local\Temp\ccioldvv.s:364    .text.pmu_to_deepsleepmode:0000000000000000 .L0 
C:\Users\CYMR90~1\AppData\Local\Temp\ccioldvv.s:365    .text.pmu_to_deepsleepmode:0000000000000002 .L0 
C:\Users\CYMR90~1\AppData\Local\Temp\ccioldvv.s:368    .text.pmu_to_deepsleepmode:0000000000000006 .L0 
C:\Users\CYMR90~1\AppData\Local\Temp\ccioldvv.s:369    .text.pmu_to_deepsleepmode:0000000000000006 .L0 
C:\Users\CYMR90~1\AppData\Local\Temp\ccioldvv.s:371    .text.pmu_to_deepsleepmode:0000000000000008 .L0 
C:\Users\CYMR90~1\AppData\Local\Temp\ccioldvv.s:377    .text.pmu_to_deepsleepmode:0000000000000016 .L0 
C:\Users\CYMR90~1\AppData\Local\Temp\ccioldvv.s:385    .text.pmu_to_deepsleepmode:000000000000002c .L0 
C:\Users\CYMR90~1\AppData\Local\Temp\ccioldvv.s:392    .text.pmu_to_deepsleepmode:000000000000003e .L0 
C:\Users\CYMR90~1\AppData\Local\Temp\ccioldvv.s:396    .text.pmu_to_deepsleepmode:000000000000004a .L0 
C:\Users\CYMR90~1\AppData\Local\Temp\ccioldvv.s:399    .text.pmu_to_deepsleepmode:0000000000000050 .L0 
C:\Users\CYMR90~1\AppData\Local\Temp\ccioldvv.s:409    .text.pmu_to_deepsleepmode:0000000000000068 .L0 
C:\Users\CYMR90~1\AppData\Local\Temp\ccioldvv.s:423    .text.pmu_to_deepsleepmode:0000000000000084 .L0 
C:\Users\CYMR90~1\AppData\Local\Temp\ccioldvv.s:431    .text.pmu_to_deepsleepmode:000000000000008c .L0 
C:\Users\CYMR90~1\AppData\Local\Temp\ccioldvv.s:435    .text.pmu_to_deepsleepmode:000000000000008e .L0 
C:\Users\CYMR90~1\AppData\Local\Temp\ccioldvv.s:441    .text.pmu_to_deepsleepmode:0000000000000094 .L0 
../Firmware/RISCV/drivers/core_feature_base.h:719    .text.pmu_to_deepsleepmode:000000000000009a .L0 
C:\Users\CYMR90~1\AppData\Local\Temp\ccioldvv.s:455    .text.pmu_to_deepsleepmode:000000000000009e .L0 
C:\Users\CYMR90~1\AppData\Local\Temp\ccioldvv.s:463    .text.pmu_to_deepsleepmode:00000000000000a0 .L0 
C:\Users\CYMR90~1\AppData\Local\Temp\ccioldvv.s:471    .text.pmu_to_deepsleepmode:00000000000000a6 .L0 
C:\Users\CYMR90~1\AppData\Local\Temp\ccioldvv.s:478    .text.pmu_to_deepsleepmode:00000000000000a8 .L0 
../Firmware/RISCV/drivers/core_feature_base.h:732    .text.pmu_to_deepsleepmode:00000000000000ae .L0 
C:\Users\CYMR90~1\AppData\Local\Temp\ccioldvv.s:493    .text.pmu_to_deepsleepmode:00000000000000b2 .L0 
C:\Users\CYMR90~1\AppData\Local\Temp\ccioldvv.s:501    .text.pmu_to_deepsleepmode:00000000000000b8 .L0 
C:\Users\CYMR90~1\AppData\Local\Temp\ccioldvv.s:508    .text.pmu_to_deepsleepmode:00000000000000ba .L0 
C:\Users\CYMR90~1\AppData\Local\Temp\ccioldvv.s:516    .text.pmu_to_deepsleepmode:00000000000000c0 .L0 
C:\Users\CYMR90~1\AppData\Local\Temp\ccioldvv.s:525    .text.pmu_to_deepsleepmode:00000000000000c6 .L0 
C:\Users\CYMR90~1\AppData\Local\Temp\ccioldvv.s:533    .text.pmu_to_deepsleepmode:00000000000000ce .L0 
C:\Users\CYMR90~1\AppData\Local\Temp\ccioldvv.s:537    .text.pmu_to_deepsleepmode:00000000000000d0 .L0 
C:\Users\CYMR90~1\AppData\Local\Temp\ccioldvv.s:539    .text.pmu_to_deepsleepmode:00000000000000d4 .L0 
C:\Users\CYMR90~1\AppData\Local\Temp\ccioldvv.s:540    .text.pmu_to_deepsleepmode:00000000000000d4 .L0 
C:\Users\CYMR90~1\AppData\Local\Temp\ccioldvv.s:542    .text.pmu_to_deepsleepmode:00000000000000d6 .L0 
C:\Users\CYMR90~1\AppData\Local\Temp\ccioldvv.s:544    .text.pmu_to_deepsleepmode:00000000000000d8 .L0 
C:\Users\CYMR90~1\AppData\Local\Temp\ccioldvv.s:546    .text.pmu_to_deepsleepmode:00000000000000da .L0 
C:\Users\CYMR90~1\AppData\Local\Temp\ccioldvv.s:553    .text.pmu_to_standbymode:0000000000000000 pmu_to_standbymode
C:\Users\CYMR90~1\AppData\Local\Temp\ccioldvv.s:556    .text.pmu_to_standbymode:0000000000000000 .L0 
C:\Users\CYMR90~1\AppData\Local\Temp\ccioldvv.s:557    .text.pmu_to_standbymode:0000000000000000 .L0 
C:\Users\CYMR90~1\AppData\Local\Temp\ccioldvv.s:558    .text.pmu_to_standbymode:0000000000000002 .L0 
C:\Users\CYMR90~1\AppData\Local\Temp\ccioldvv.s:561    .text.pmu_to_standbymode:0000000000000006 .L0 
C:\Users\CYMR90~1\AppData\Local\Temp\ccioldvv.s:562    .text.pmu_to_standbymode:0000000000000006 .L0 
C:\Users\CYMR90~1\AppData\Local\Temp\ccioldvv.s:564    .text.pmu_to_standbymode:0000000000000008 .L0 
C:\Users\CYMR90~1\AppData\Local\Temp\ccioldvv.s:573    .text.pmu_to_standbymode:0000000000000014 .L0 
C:\Users\CYMR90~1\AppData\Local\Temp\ccioldvv.s:581    .text.pmu_to_standbymode:000000000000001c .L0 
C:\Users\CYMR90~1\AppData\Local\Temp\ccioldvv.s:585    .text.pmu_to_standbymode:000000000000001e .L0 
C:\Users\CYMR90~1\AppData\Local\Temp\ccioldvv.s:591    .text.pmu_to_standbymode:000000000000002e .L0 
C:\Users\CYMR90~1\AppData\Local\Temp\ccioldvv.s:597    .text.pmu_to_standbymode:000000000000003e .L0 
C:\Users\CYMR90~1\AppData\Local\Temp\ccioldvv.s:603    .text.pmu_to_standbymode:0000000000000044 .L0 
../Firmware/RISCV/drivers/core_feature_base.h:719    .text.pmu_to_standbymode:000000000000004a .L0 
C:\Users\CYMR90~1\AppData\Local\Temp\ccioldvv.s:617    .text.pmu_to_standbymode:000000000000004e .L0 
C:\Users\CYMR90~1\AppData\Local\Temp\ccioldvv.s:625    .text.pmu_to_standbymode:0000000000000050 .L0 
C:\Users\CYMR90~1\AppData\Local\Temp\ccioldvv.s:633    .text.pmu_to_standbymode:0000000000000056 .L0 
C:\Users\CYMR90~1\AppData\Local\Temp\ccioldvv.s:640    .text.pmu_to_standbymode:0000000000000058 .L0 
../Firmware/RISCV/drivers/core_feature_base.h:732    .text.pmu_to_standbymode:000000000000005e .L0 
C:\Users\CYMR90~1\AppData\Local\Temp\ccioldvv.s:655    .text.pmu_to_standbymode:0000000000000062 .L0 
C:\Users\CYMR90~1\AppData\Local\Temp\ccioldvv.s:663    .text.pmu_to_standbymode:0000000000000068 .L0 
C:\Users\CYMR90~1\AppData\Local\Temp\ccioldvv.s:670    .text.pmu_to_standbymode:000000000000006a .L0 
C:\Users\CYMR90~1\AppData\Local\Temp\ccioldvv.s:678    .text.pmu_to_standbymode:0000000000000070 .L0 
C:\Users\CYMR90~1\AppData\Local\Temp\ccioldvv.s:683    .text.pmu_to_standbymode:0000000000000072 .L0 
C:\Users\CYMR90~1\AppData\Local\Temp\ccioldvv.s:685    .text.pmu_to_standbymode:0000000000000076 .L0 
C:\Users\CYMR90~1\AppData\Local\Temp\ccioldvv.s:686    .text.pmu_to_standbymode:0000000000000076 .L0 
C:\Users\CYMR90~1\AppData\Local\Temp\ccioldvv.s:688    .text.pmu_to_standbymode:0000000000000078 .L0 
C:\Users\CYMR90~1\AppData\Local\Temp\ccioldvv.s:690    .text.pmu_to_standbymode:000000000000007a .L0 
C:\Users\CYMR90~1\AppData\Local\Temp\ccioldvv.s:692    .text.pmu_to_standbymode:000000000000007c .L0 
C:\Users\CYMR90~1\AppData\Local\Temp\ccioldvv.s:699    .text.pmu_wakeup_pin_enable:0000000000000000 pmu_wakeup_pin_enable
C:\Users\CYMR90~1\AppData\Local\Temp\ccioldvv.s:702    .text.pmu_wakeup_pin_enable:0000000000000000 .L0 
C:\Users\CYMR90~1\AppData\Local\Temp\ccioldvv.s:703    .text.pmu_wakeup_pin_enable:0000000000000000 .L0 
C:\Users\CYMR90~1\AppData\Local\Temp\ccioldvv.s:704    .text.pmu_wakeup_pin_enable:0000000000000002 .L0 
C:\Users\CYMR90~1\AppData\Local\Temp\ccioldvv.s:706    .text.pmu_wakeup_pin_enable:0000000000000004 .L0 
C:\Users\CYMR90~1\AppData\Local\Temp\ccioldvv.s:708    .text.pmu_wakeup_pin_enable:0000000000000006 .L0 
C:\Users\CYMR90~1\AppData\Local\Temp\ccioldvv.s:711    .text.pmu_wakeup_pin_enable:000000000000000a .L0 
C:\Users\CYMR90~1\AppData\Local\Temp\ccioldvv.s:720    .text.pmu_wakeup_pin_enable:0000000000000020 .L0 
C:\Users\CYMR90~1\AppData\Local\Temp\ccioldvv.s:722    .text.pmu_wakeup_pin_enable:0000000000000024 .L0 
C:\Users\CYMR90~1\AppData\Local\Temp\ccioldvv.s:723    .text.pmu_wakeup_pin_enable:0000000000000024 .L0 
C:\Users\CYMR90~1\AppData\Local\Temp\ccioldvv.s:725    .text.pmu_wakeup_pin_enable:0000000000000026 .L0 
C:\Users\CYMR90~1\AppData\Local\Temp\ccioldvv.s:727    .text.pmu_wakeup_pin_enable:0000000000000028 .L0 
C:\Users\CYMR90~1\AppData\Local\Temp\ccioldvv.s:734    .text.pmu_wakeup_pin_disable:0000000000000000 pmu_wakeup_pin_disable
C:\Users\CYMR90~1\AppData\Local\Temp\ccioldvv.s:737    .text.pmu_wakeup_pin_disable:0000000000000000 .L0 
C:\Users\CYMR90~1\AppData\Local\Temp\ccioldvv.s:738    .text.pmu_wakeup_pin_disable:0000000000000000 .L0 
C:\Users\CYMR90~1\AppData\Local\Temp\ccioldvv.s:739    .text.pmu_wakeup_pin_disable:0000000000000002 .L0 
C:\Users\CYMR90~1\AppData\Local\Temp\ccioldvv.s:741    .text.pmu_wakeup_pin_disable:0000000000000004 .L0 
C:\Users\CYMR90~1\AppData\Local\Temp\ccioldvv.s:743    .text.pmu_wakeup_pin_disable:0000000000000006 .L0 
C:\Users\CYMR90~1\AppData\Local\Temp\ccioldvv.s:746    .text.pmu_wakeup_pin_disable:000000000000000a .L0 
C:\Users\CYMR90~1\AppData\Local\Temp\ccioldvv.s:750    .text.pmu_wakeup_pin_disable:0000000000000012 .L0 
C:\Users\CYMR90~1\AppData\Local\Temp\ccioldvv.s:753    .text.pmu_wakeup_pin_disable:000000000000001a .L0 
C:\Users\CYMR90~1\AppData\Local\Temp\ccioldvv.s:758    .text.pmu_wakeup_pin_disable:0000000000000024 .L0 
C:\Users\CYMR90~1\AppData\Local\Temp\ccioldvv.s:760    .text.pmu_wakeup_pin_disable:0000000000000028 .L0 
C:\Users\CYMR90~1\AppData\Local\Temp\ccioldvv.s:761    .text.pmu_wakeup_pin_disable:0000000000000028 .L0 
C:\Users\CYMR90~1\AppData\Local\Temp\ccioldvv.s:763    .text.pmu_wakeup_pin_disable:000000000000002a .L0 
C:\Users\CYMR90~1\AppData\Local\Temp\ccioldvv.s:765    .text.pmu_wakeup_pin_disable:000000000000002c .L0 
C:\Users\CYMR90~1\AppData\Local\Temp\ccioldvv.s:772    .text.pmu_wifi_power_enable:0000000000000000 pmu_wifi_power_enable
C:\Users\CYMR90~1\AppData\Local\Temp\ccioldvv.s:775    .text.pmu_wifi_power_enable:0000000000000000 .L0 
C:\Users\CYMR90~1\AppData\Local\Temp\ccioldvv.s:776    .text.pmu_wifi_power_enable:0000000000000000 .L0 
C:\Users\CYMR90~1\AppData\Local\Temp\ccioldvv.s:777    .text.pmu_wifi_power_enable:0000000000000002 .L0 
C:\Users\CYMR90~1\AppData\Local\Temp\ccioldvv.s:779    .text.pmu_wifi_power_enable:0000000000000004 .L0 
C:\Users\CYMR90~1\AppData\Local\Temp\ccioldvv.s:781    .text.pmu_wifi_power_enable:0000000000000006 .L0 
C:\Users\CYMR90~1\AppData\Local\Temp\ccioldvv.s:783    .text.pmu_wifi_power_enable:0000000000000006 .L0 
C:\Users\CYMR90~1\AppData\Local\Temp\ccioldvv.s:791    .text.pmu_wifi_power_enable:000000000000001a .L0 
C:\Users\CYMR90~1\AppData\Local\Temp\ccioldvv.s:793    .text.pmu_wifi_power_enable:000000000000001e .L0 
C:\Users\CYMR90~1\AppData\Local\Temp\ccioldvv.s:794    .text.pmu_wifi_power_enable:000000000000001e .L0 
C:\Users\CYMR90~1\AppData\Local\Temp\ccioldvv.s:796    .text.pmu_wifi_power_enable:0000000000000020 .L0 
C:\Users\CYMR90~1\AppData\Local\Temp\ccioldvv.s:798    .text.pmu_wifi_power_enable:0000000000000022 .L0 
C:\Users\CYMR90~1\AppData\Local\Temp\ccioldvv.s:805    .text.pmu_wifi_power_disable:0000000000000000 pmu_wifi_power_disable
C:\Users\CYMR90~1\AppData\Local\Temp\ccioldvv.s:808    .text.pmu_wifi_power_disable:0000000000000000 .L0 
C:\Users\CYMR90~1\AppData\Local\Temp\ccioldvv.s:809    .text.pmu_wifi_power_disable:0000000000000000 .L0 
C:\Users\CYMR90~1\AppData\Local\Temp\ccioldvv.s:810    .text.pmu_wifi_power_disable:0000000000000002 .L0 
C:\Users\CYMR90~1\AppData\Local\Temp\ccioldvv.s:812    .text.pmu_wifi_power_disable:0000000000000004 .L0 
C:\Users\CYMR90~1\AppData\Local\Temp\ccioldvv.s:814    .text.pmu_wifi_power_disable:0000000000000006 .L0 
C:\Users\CYMR90~1\AppData\Local\Temp\ccioldvv.s:816    .text.pmu_wifi_power_disable:0000000000000006 .L0 
C:\Users\CYMR90~1\AppData\Local\Temp\ccioldvv.s:824    .text.pmu_wifi_power_disable:0000000000000018 .L0 
C:\Users\CYMR90~1\AppData\Local\Temp\ccioldvv.s:826    .text.pmu_wifi_power_disable:000000000000001c .L0 
C:\Users\CYMR90~1\AppData\Local\Temp\ccioldvv.s:827    .text.pmu_wifi_power_disable:000000000000001c .L0 
C:\Users\CYMR90~1\AppData\Local\Temp\ccioldvv.s:829    .text.pmu_wifi_power_disable:000000000000001e .L0 
C:\Users\CYMR90~1\AppData\Local\Temp\ccioldvv.s:831    .text.pmu_wifi_power_disable:0000000000000020 .L0 
C:\Users\CYMR90~1\AppData\Local\Temp\ccioldvv.s:838    .text.pmu_wifi_sram_control:0000000000000000 pmu_wifi_sram_control
C:\Users\CYMR90~1\AppData\Local\Temp\ccioldvv.s:841    .text.pmu_wifi_sram_control:0000000000000000 .L0 
C:\Users\CYMR90~1\AppData\Local\Temp\ccioldvv.s:842    .text.pmu_wifi_sram_control:0000000000000000 .L0 
C:\Users\CYMR90~1\AppData\Local\Temp\ccioldvv.s:843    .text.pmu_wifi_sram_control:0000000000000002 .L0 
C:\Users\CYMR90~1\AppData\Local\Temp\ccioldvv.s:845    .text.pmu_wifi_sram_control:0000000000000004 .L0 
C:\Users\CYMR90~1\AppData\Local\Temp\ccioldvv.s:847    .text.pmu_wifi_sram_control:0000000000000006 .L0 
C:\Users\CYMR90~1\AppData\Local\Temp\ccioldvv.s:850    .text.pmu_wifi_sram_control:000000000000000a .L0 
C:\Users\CYMR90~1\AppData\Local\Temp\ccioldvv.s:859    .text.pmu_wifi_sram_control:0000000000000020 .L0 
C:\Users\CYMR90~1\AppData\Local\Temp\ccioldvv.s:861    .text.pmu_wifi_sram_control:0000000000000024 .L0 
C:\Users\CYMR90~1\AppData\Local\Temp\ccioldvv.s:862    .text.pmu_wifi_sram_control:0000000000000024 .L0 
C:\Users\CYMR90~1\AppData\Local\Temp\ccioldvv.s:864    .text.pmu_wifi_sram_control:0000000000000026 .L0 
C:\Users\CYMR90~1\AppData\Local\Temp\ccioldvv.s:866    .text.pmu_wifi_sram_control:0000000000000028 .L0 
C:\Users\CYMR90~1\AppData\Local\Temp\ccioldvv.s:873    .text.pmu_ble_control:0000000000000000 pmu_ble_control
C:\Users\CYMR90~1\AppData\Local\Temp\ccioldvv.s:876    .text.pmu_ble_control:0000000000000000 .L0 
C:\Users\CYMR90~1\AppData\Local\Temp\ccioldvv.s:877    .text.pmu_ble_control:0000000000000000 .L0 
C:\Users\CYMR90~1\AppData\Local\Temp\ccioldvv.s:878    .text.pmu_ble_control:0000000000000002 .L0 
C:\Users\CYMR90~1\AppData\Local\Temp\ccioldvv.s:880    .text.pmu_ble_control:0000000000000004 .L0 
C:\Users\CYMR90~1\AppData\Local\Temp\ccioldvv.s:882    .text.pmu_ble_control:0000000000000006 .L0 
C:\Users\CYMR90~1\AppData\Local\Temp\ccioldvv.s:885    .text.pmu_ble_control:000000000000000a .L0 
C:\Users\CYMR90~1\AppData\Local\Temp\ccioldvv.s:894    .text.pmu_ble_control:0000000000000020 .L0 
C:\Users\CYMR90~1\AppData\Local\Temp\ccioldvv.s:896    .text.pmu_ble_control:0000000000000024 .L0 
C:\Users\CYMR90~1\AppData\Local\Temp\ccioldvv.s:897    .text.pmu_ble_control:0000000000000024 .L0 
C:\Users\CYMR90~1\AppData\Local\Temp\ccioldvv.s:899    .text.pmu_ble_control:0000000000000026 .L0 
C:\Users\CYMR90~1\AppData\Local\Temp\ccioldvv.s:901    .text.pmu_ble_control:0000000000000028 .L0 
C:\Users\CYMR90~1\AppData\Local\Temp\ccioldvv.s:908    .text.pmu_ble_wakeup_request_enable:0000000000000000 pmu_ble_wakeup_request_enable
C:\Users\CYMR90~1\AppData\Local\Temp\ccioldvv.s:911    .text.pmu_ble_wakeup_request_enable:0000000000000000 .L0 
C:\Users\CYMR90~1\AppData\Local\Temp\ccioldvv.s:912    .text.pmu_ble_wakeup_request_enable:0000000000000000 .L0 
C:\Users\CYMR90~1\AppData\Local\Temp\ccioldvv.s:913    .text.pmu_ble_wakeup_request_enable:0000000000000002 .L0 
C:\Users\CYMR90~1\AppData\Local\Temp\ccioldvv.s:915    .text.pmu_ble_wakeup_request_enable:0000000000000004 .L0 
C:\Users\CYMR90~1\AppData\Local\Temp\ccioldvv.s:917    .text.pmu_ble_wakeup_request_enable:0000000000000006 .L0 
C:\Users\CYMR90~1\AppData\Local\Temp\ccioldvv.s:919    .text.pmu_ble_wakeup_request_enable:0000000000000006 .L0 
C:\Users\CYMR90~1\AppData\Local\Temp\ccioldvv.s:928    .text.pmu_ble_wakeup_request_enable:000000000000001c .L0 
C:\Users\CYMR90~1\AppData\Local\Temp\ccioldvv.s:930    .text.pmu_ble_wakeup_request_enable:0000000000000020 .L0 
C:\Users\CYMR90~1\AppData\Local\Temp\ccioldvv.s:931    .text.pmu_ble_wakeup_request_enable:0000000000000020 .L0 
C:\Users\CYMR90~1\AppData\Local\Temp\ccioldvv.s:933    .text.pmu_ble_wakeup_request_enable:0000000000000022 .L0 
C:\Users\CYMR90~1\AppData\Local\Temp\ccioldvv.s:935    .text.pmu_ble_wakeup_request_enable:0000000000000024 .L0 
C:\Users\CYMR90~1\AppData\Local\Temp\ccioldvv.s:942    .text.pmu_ble_wakeup_request_disable:0000000000000000 pmu_ble_wakeup_request_disable
C:\Users\CYMR90~1\AppData\Local\Temp\ccioldvv.s:945    .text.pmu_ble_wakeup_request_disable:0000000000000000 .L0 
C:\Users\CYMR90~1\AppData\Local\Temp\ccioldvv.s:946    .text.pmu_ble_wakeup_request_disable:0000000000000000 .L0 
C:\Users\CYMR90~1\AppData\Local\Temp\ccioldvv.s:947    .text.pmu_ble_wakeup_request_disable:0000000000000002 .L0 
C:\Users\CYMR90~1\AppData\Local\Temp\ccioldvv.s:949    .text.pmu_ble_wakeup_request_disable:0000000000000004 .L0 
C:\Users\CYMR90~1\AppData\Local\Temp\ccioldvv.s:951    .text.pmu_ble_wakeup_request_disable:0000000000000006 .L0 
C:\Users\CYMR90~1\AppData\Local\Temp\ccioldvv.s:953    .text.pmu_ble_wakeup_request_disable:0000000000000006 .L0 
C:\Users\CYMR90~1\AppData\Local\Temp\ccioldvv.s:963    .text.pmu_ble_wakeup_request_disable:000000000000001e .L0 
C:\Users\CYMR90~1\AppData\Local\Temp\ccioldvv.s:965    .text.pmu_ble_wakeup_request_disable:0000000000000022 .L0 
C:\Users\CYMR90~1\AppData\Local\Temp\ccioldvv.s:966    .text.pmu_ble_wakeup_request_disable:0000000000000022 .L0 
C:\Users\CYMR90~1\AppData\Local\Temp\ccioldvv.s:968    .text.pmu_ble_wakeup_request_disable:0000000000000024 .L0 
C:\Users\CYMR90~1\AppData\Local\Temp\ccioldvv.s:970    .text.pmu_ble_wakeup_request_disable:0000000000000026 .L0 
C:\Users\CYMR90~1\AppData\Local\Temp\ccioldvv.s:977    .text.pmu_pll_force_enable:0000000000000000 pmu_pll_force_enable
C:\Users\CYMR90~1\AppData\Local\Temp\ccioldvv.s:980    .text.pmu_pll_force_enable:0000000000000000 .L0 
C:\Users\CYMR90~1\AppData\Local\Temp\ccioldvv.s:981    .text.pmu_pll_force_enable:0000000000000000 .L0 
C:\Users\CYMR90~1\AppData\Local\Temp\ccioldvv.s:982    .text.pmu_pll_force_enable:0000000000000002 .L0 
C:\Users\CYMR90~1\AppData\Local\Temp\ccioldvv.s:984    .text.pmu_pll_force_enable:0000000000000004 .L0 
C:\Users\CYMR90~1\AppData\Local\Temp\ccioldvv.s:986    .text.pmu_pll_force_enable:0000000000000006 .L0 
C:\Users\CYMR90~1\AppData\Local\Temp\ccioldvv.s:989    .text.pmu_pll_force_enable:000000000000000a .L0 
C:\Users\CYMR90~1\AppData\Local\Temp\ccioldvv.s:998    .text.pmu_pll_force_enable:0000000000000024 .L0 
C:\Users\CYMR90~1\AppData\Local\Temp\ccioldvv.s:1000   .text.pmu_pll_force_enable:0000000000000028 .L0 
C:\Users\CYMR90~1\AppData\Local\Temp\ccioldvv.s:1001   .text.pmu_pll_force_enable:0000000000000028 .L0 
C:\Users\CYMR90~1\AppData\Local\Temp\ccioldvv.s:1003   .text.pmu_pll_force_enable:000000000000002a .L0 
C:\Users\CYMR90~1\AppData\Local\Temp\ccioldvv.s:1005   .text.pmu_pll_force_enable:000000000000002c .L0 
C:\Users\CYMR90~1\AppData\Local\Temp\ccioldvv.s:1012   .text.pmu_pll_force_disable:0000000000000000 pmu_pll_force_disable
C:\Users\CYMR90~1\AppData\Local\Temp\ccioldvv.s:1015   .text.pmu_pll_force_disable:0000000000000000 .L0 
C:\Users\CYMR90~1\AppData\Local\Temp\ccioldvv.s:1016   .text.pmu_pll_force_disable:0000000000000000 .L0 
C:\Users\CYMR90~1\AppData\Local\Temp\ccioldvv.s:1017   .text.pmu_pll_force_disable:0000000000000002 .L0 
C:\Users\CYMR90~1\AppData\Local\Temp\ccioldvv.s:1019   .text.pmu_pll_force_disable:0000000000000004 .L0 
C:\Users\CYMR90~1\AppData\Local\Temp\ccioldvv.s:1021   .text.pmu_pll_force_disable:0000000000000006 .L0 
C:\Users\CYMR90~1\AppData\Local\Temp\ccioldvv.s:1024   .text.pmu_pll_force_disable:000000000000000a .L0 
C:\Users\CYMR90~1\AppData\Local\Temp\ccioldvv.s:1028   .text.pmu_pll_force_disable:0000000000000014 .L0 
C:\Users\CYMR90~1\AppData\Local\Temp\ccioldvv.s:1031   .text.pmu_pll_force_disable:000000000000001c .L0 
C:\Users\CYMR90~1\AppData\Local\Temp\ccioldvv.s:1036   .text.pmu_pll_force_disable:0000000000000028 .L0 
C:\Users\CYMR90~1\AppData\Local\Temp\ccioldvv.s:1038   .text.pmu_pll_force_disable:000000000000002c .L0 
C:\Users\CYMR90~1\AppData\Local\Temp\ccioldvv.s:1039   .text.pmu_pll_force_disable:000000000000002c .L0 
C:\Users\CYMR90~1\AppData\Local\Temp\ccioldvv.s:1041   .text.pmu_pll_force_disable:000000000000002e .L0 
C:\Users\CYMR90~1\AppData\Local\Temp\ccioldvv.s:1043   .text.pmu_pll_force_disable:0000000000000030 .L0 
C:\Users\CYMR90~1\AppData\Local\Temp\ccioldvv.s:1050   .text.pmu_ble_rf_config:0000000000000000 pmu_ble_rf_config
C:\Users\CYMR90~1\AppData\Local\Temp\ccioldvv.s:1053   .text.pmu_ble_rf_config:0000000000000000 .L0 
C:\Users\CYMR90~1\AppData\Local\Temp\ccioldvv.s:1054   .text.pmu_ble_rf_config:0000000000000000 .L0 
C:\Users\CYMR90~1\AppData\Local\Temp\ccioldvv.s:1055   .text.pmu_ble_rf_config:0000000000000002 .L0 
C:\Users\CYMR90~1\AppData\Local\Temp\ccioldvv.s:1057   .text.pmu_ble_rf_config:0000000000000004 .L0 
C:\Users\CYMR90~1\AppData\Local\Temp\ccioldvv.s:1059   .text.pmu_ble_rf_config:0000000000000006 .L0 
C:\Users\CYMR90~1\AppData\Local\Temp\ccioldvv.s:1062   .text.pmu_ble_rf_config:000000000000000a .L0 
C:\Users\CYMR90~1\AppData\Local\Temp\ccioldvv.s:1070   .text.pmu_ble_rf_config:0000000000000022 .L0 
C:\Users\CYMR90~1\AppData\Local\Temp\ccioldvv.s:1079   .text.pmu_ble_rf_config:000000000000003c .L0 
C:\Users\CYMR90~1\AppData\Local\Temp\ccioldvv.s:1081   .text.pmu_ble_rf_config:0000000000000040 .L0 
C:\Users\CYMR90~1\AppData\Local\Temp\ccioldvv.s:1082   .text.pmu_ble_rf_config:0000000000000040 .L0 
C:\Users\CYMR90~1\AppData\Local\Temp\ccioldvv.s:1084   .text.pmu_ble_rf_config:0000000000000042 .L0 
C:\Users\CYMR90~1\AppData\Local\Temp\ccioldvv.s:1086   .text.pmu_ble_rf_config:0000000000000044 .L0 
C:\Users\CYMR90~1\AppData\Local\Temp\ccioldvv.s:1093   .text.pmu_rf_force_enable:0000000000000000 pmu_rf_force_enable
C:\Users\CYMR90~1\AppData\Local\Temp\ccioldvv.s:1096   .text.pmu_rf_force_enable:0000000000000000 .L0 
C:\Users\CYMR90~1\AppData\Local\Temp\ccioldvv.s:1097   .text.pmu_rf_force_enable:0000000000000000 .L0 
C:\Users\CYMR90~1\AppData\Local\Temp\ccioldvv.s:1098   .text.pmu_rf_force_enable:0000000000000002 .L0 
C:\Users\CYMR90~1\AppData\Local\Temp\ccioldvv.s:1100   .text.pmu_rf_force_enable:0000000000000004 .L0 
C:\Users\CYMR90~1\AppData\Local\Temp\ccioldvv.s:1102   .text.pmu_rf_force_enable:0000000000000006 .L0 
C:\Users\CYMR90~1\AppData\Local\Temp\ccioldvv.s:1105   .text.pmu_rf_force_enable:000000000000000a .L0 
C:\Users\CYMR90~1\AppData\Local\Temp\ccioldvv.s:1114   .text.pmu_rf_force_enable:0000000000000024 .L0 
C:\Users\CYMR90~1\AppData\Local\Temp\ccioldvv.s:1116   .text.pmu_rf_force_enable:0000000000000028 .L0 
C:\Users\CYMR90~1\AppData\Local\Temp\ccioldvv.s:1117   .text.pmu_rf_force_enable:0000000000000028 .L0 
C:\Users\CYMR90~1\AppData\Local\Temp\ccioldvv.s:1119   .text.pmu_rf_force_enable:000000000000002a .L0 
C:\Users\CYMR90~1\AppData\Local\Temp\ccioldvv.s:1121   .text.pmu_rf_force_enable:000000000000002c .L0 
C:\Users\CYMR90~1\AppData\Local\Temp\ccioldvv.s:1128   .text.pmu_rf_force_disable:0000000000000000 pmu_rf_force_disable
C:\Users\CYMR90~1\AppData\Local\Temp\ccioldvv.s:1131   .text.pmu_rf_force_disable:0000000000000000 .L0 
C:\Users\CYMR90~1\AppData\Local\Temp\ccioldvv.s:1132   .text.pmu_rf_force_disable:0000000000000000 .L0 
C:\Users\CYMR90~1\AppData\Local\Temp\ccioldvv.s:1133   .text.pmu_rf_force_disable:0000000000000002 .L0 
C:\Users\CYMR90~1\AppData\Local\Temp\ccioldvv.s:1135   .text.pmu_rf_force_disable:0000000000000004 .L0 
C:\Users\CYMR90~1\AppData\Local\Temp\ccioldvv.s:1137   .text.pmu_rf_force_disable:0000000000000006 .L0 
C:\Users\CYMR90~1\AppData\Local\Temp\ccioldvv.s:1140   .text.pmu_rf_force_disable:000000000000000a .L0 
C:\Users\CYMR90~1\AppData\Local\Temp\ccioldvv.s:1144   .text.pmu_rf_force_disable:0000000000000014 .L0 
C:\Users\CYMR90~1\AppData\Local\Temp\ccioldvv.s:1147   .text.pmu_rf_force_disable:000000000000001c .L0 
C:\Users\CYMR90~1\AppData\Local\Temp\ccioldvv.s:1152   .text.pmu_rf_force_disable:0000000000000028 .L0 
C:\Users\CYMR90~1\AppData\Local\Temp\ccioldvv.s:1154   .text.pmu_rf_force_disable:000000000000002c .L0 
C:\Users\CYMR90~1\AppData\Local\Temp\ccioldvv.s:1155   .text.pmu_rf_force_disable:000000000000002c .L0 
C:\Users\CYMR90~1\AppData\Local\Temp\ccioldvv.s:1157   .text.pmu_rf_force_disable:000000000000002e .L0 
C:\Users\CYMR90~1\AppData\Local\Temp\ccioldvv.s:1159   .text.pmu_rf_force_disable:0000000000000030 .L0 
C:\Users\CYMR90~1\AppData\Local\Temp\ccioldvv.s:1166   .text.pmu_rf_sequence_config:0000000000000000 pmu_rf_sequence_config
C:\Users\CYMR90~1\AppData\Local\Temp\ccioldvv.s:1169   .text.pmu_rf_sequence_config:0000000000000000 .L0 
C:\Users\CYMR90~1\AppData\Local\Temp\ccioldvv.s:1170   .text.pmu_rf_sequence_config:0000000000000000 .L0 
C:\Users\CYMR90~1\AppData\Local\Temp\ccioldvv.s:1171   .text.pmu_rf_sequence_config:0000000000000002 .L0 
C:\Users\CYMR90~1\AppData\Local\Temp\ccioldvv.s:1173   .text.pmu_rf_sequence_config:0000000000000004 .L0 
C:\Users\CYMR90~1\AppData\Local\Temp\ccioldvv.s:1175   .text.pmu_rf_sequence_config:0000000000000006 .L0 
C:\Users\CYMR90~1\AppData\Local\Temp\ccioldvv.s:1178   .text.pmu_rf_sequence_config:000000000000000a .L0 
C:\Users\CYMR90~1\AppData\Local\Temp\ccioldvv.s:1186   .text.pmu_rf_sequence_config:0000000000000020 .L0 
C:\Users\CYMR90~1\AppData\Local\Temp\ccioldvv.s:1195   .text.pmu_rf_sequence_config:000000000000003a .L0 
C:\Users\CYMR90~1\AppData\Local\Temp\ccioldvv.s:1197   .text.pmu_rf_sequence_config:000000000000003e .L0 
C:\Users\CYMR90~1\AppData\Local\Temp\ccioldvv.s:1198   .text.pmu_rf_sequence_config:000000000000003e .L0 
C:\Users\CYMR90~1\AppData\Local\Temp\ccioldvv.s:1200   .text.pmu_rf_sequence_config:0000000000000040 .L0 
C:\Users\CYMR90~1\AppData\Local\Temp\ccioldvv.s:1202   .text.pmu_rf_sequence_config:0000000000000042 .L0 
C:\Users\CYMR90~1\AppData\Local\Temp\ccioldvv.s:1209   .text.pmu_flag_get:0000000000000000 pmu_flag_get
C:\Users\CYMR90~1\AppData\Local\Temp\ccioldvv.s:1212   .text.pmu_flag_get:0000000000000000 .L0 
C:\Users\CYMR90~1\AppData\Local\Temp\ccioldvv.s:1213   .text.pmu_flag_get:0000000000000000 .L0 
C:\Users\CYMR90~1\AppData\Local\Temp\ccioldvv.s:1214   .text.pmu_flag_get:0000000000000002 .L0 
C:\Users\CYMR90~1\AppData\Local\Temp\ccioldvv.s:1216   .text.pmu_flag_get:0000000000000004 .L0 
C:\Users\CYMR90~1\AppData\Local\Temp\ccioldvv.s:1218   .text.pmu_flag_get:0000000000000006 .L0 
C:\Users\CYMR90~1\AppData\Local\Temp\ccioldvv.s:1221   .text.pmu_flag_get:000000000000000a .L0 
C:\Users\CYMR90~1\AppData\Local\Temp\ccioldvv.s:1223   .text.pmu_flag_get:000000000000000e .L0 
C:\Users\CYMR90~1\AppData\Local\Temp\ccioldvv.s:1225   .text.pmu_flag_get:0000000000000012 .L0 
C:\Users\CYMR90~1\AppData\Local\Temp\ccioldvv.s:1231   .text.pmu_flag_get:0000000000000024 .L0 
C:\Users\CYMR90~1\AppData\Local\Temp\ccioldvv.s:1235   .text.pmu_flag_get:000000000000002c .L0 
C:\Users\CYMR90~1\AppData\Local\Temp\ccioldvv.s:1238   .text.pmu_flag_get:0000000000000032 .L0 
C:\Users\CYMR90~1\AppData\Local\Temp\ccioldvv.s:1240   .text.pmu_flag_get:0000000000000034 .L0 
C:\Users\CYMR90~1\AppData\Local\Temp\ccioldvv.s:1244   .text.pmu_flag_get:0000000000000038 .L0 
C:\Users\CYMR90~1\AppData\Local\Temp\ccioldvv.s:1248   .text.pmu_flag_get:000000000000003c .L0 
C:\Users\CYMR90~1\AppData\Local\Temp\ccioldvv.s:1252   .text.pmu_flag_get:0000000000000046 .L0 
C:\Users\CYMR90~1\AppData\Local\Temp\ccioldvv.s:1254   .text.pmu_flag_get:0000000000000048 .L0 
C:\Users\CYMR90~1\AppData\Local\Temp\ccioldvv.s:1260   .text.pmu_flag_get:0000000000000058 .L0 
C:\Users\CYMR90~1\AppData\Local\Temp\ccioldvv.s:1264   .text.pmu_flag_get:0000000000000062 .L0 
C:\Users\CYMR90~1\AppData\Local\Temp\ccioldvv.s:1267   .text.pmu_flag_get:0000000000000068 .L0 
C:\Users\CYMR90~1\AppData\Local\Temp\ccioldvv.s:1269   .text.pmu_flag_get:000000000000006a .L0 
C:\Users\CYMR90~1\AppData\Local\Temp\ccioldvv.s:1273   .text.pmu_flag_get:000000000000006e .L0 
C:\Users\CYMR90~1\AppData\Local\Temp\ccioldvv.s:1277   .text.pmu_flag_get:0000000000000072 .L0 
C:\Users\CYMR90~1\AppData\Local\Temp\ccioldvv.s:1281   .text.pmu_flag_get:000000000000007a .L0 
C:\Users\CYMR90~1\AppData\Local\Temp\ccioldvv.s:1284   .text.pmu_flag_get:0000000000000080 .L0 
C:\Users\CYMR90~1\AppData\Local\Temp\ccioldvv.s:1286   .text.pmu_flag_get:0000000000000082 .L0 
C:\Users\CYMR90~1\AppData\Local\Temp\ccioldvv.s:1290   .text.pmu_flag_get:0000000000000086 .L0 
C:\Users\CYMR90~1\AppData\Local\Temp\ccioldvv.s:1293   .text.pmu_flag_get:0000000000000088 .L0 
C:\Users\CYMR90~1\AppData\Local\Temp\ccioldvv.s:1295   .text.pmu_flag_get:000000000000008c .L0 
C:\Users\CYMR90~1\AppData\Local\Temp\ccioldvv.s:1296   .text.pmu_flag_get:000000000000008c .L0 
C:\Users\CYMR90~1\AppData\Local\Temp\ccioldvv.s:1298   .text.pmu_flag_get:000000000000008e .L0 
C:\Users\CYMR90~1\AppData\Local\Temp\ccioldvv.s:1300   .text.pmu_flag_get:0000000000000090 .L0 
C:\Users\CYMR90~1\AppData\Local\Temp\ccioldvv.s:1307   .text.pmu_flag_clear:0000000000000000 pmu_flag_clear
C:\Users\CYMR90~1\AppData\Local\Temp\ccioldvv.s:1310   .text.pmu_flag_clear:0000000000000000 .L0 
C:\Users\CYMR90~1\AppData\Local\Temp\ccioldvv.s:1311   .text.pmu_flag_clear:0000000000000000 .L0 
C:\Users\CYMR90~1\AppData\Local\Temp\ccioldvv.s:1312   .text.pmu_flag_clear:0000000000000002 .L0 
C:\Users\CYMR90~1\AppData\Local\Temp\ccioldvv.s:1314   .text.pmu_flag_clear:0000000000000004 .L0 
C:\Users\CYMR90~1\AppData\Local\Temp\ccioldvv.s:1316   .text.pmu_flag_clear:0000000000000006 .L0 
C:\Users\CYMR90~1\AppData\Local\Temp\ccioldvv.s:1319   .text.pmu_flag_clear:000000000000000a .L0 
C:\Users\CYMR90~1\AppData\Local\Temp\ccioldvv.s:1323   .text.pmu_flag_clear:0000000000000016 .L0 
C:\Users\CYMR90~1\AppData\Local\Temp\ccioldvv.s:1332   .text.pmu_flag_clear:000000000000002c .L0 
C:\Users\CYMR90~1\AppData\Local\Temp\ccioldvv.s:1335   .text.pmu_flag_clear:000000000000002e .L0 
C:\Users\CYMR90~1\AppData\Local\Temp\ccioldvv.s:1343   .text.pmu_flag_clear:0000000000000040 .L0 
C:\Users\CYMR90~1\AppData\Local\Temp\ccioldvv.s:1345   .text.pmu_flag_clear:0000000000000044 .L0 
C:\Users\CYMR90~1\AppData\Local\Temp\ccioldvv.s:1346   .text.pmu_flag_clear:0000000000000044 .L0 
C:\Users\CYMR90~1\AppData\Local\Temp\ccioldvv.s:1348   .text.pmu_flag_clear:0000000000000046 .L0 
C:\Users\CYMR90~1\AppData\Local\Temp\ccioldvv.s:1350   .text.pmu_flag_clear:0000000000000048 .L0 
C:\Users\CYMR90~1\AppData\Local\Temp\ccioldvv.s:1357   .text.pmu_interrupt_enable:0000000000000000 pmu_interrupt_enable
C:\Users\CYMR90~1\AppData\Local\Temp\ccioldvv.s:1360   .text.pmu_interrupt_enable:0000000000000000 .L0 
C:\Users\CYMR90~1\AppData\Local\Temp\ccioldvv.s:1361   .text.pmu_interrupt_enable:0000000000000000 .L0 
C:\Users\CYMR90~1\AppData\Local\Temp\ccioldvv.s:1362   .text.pmu_interrupt_enable:0000000000000002 .L0 
C:\Users\CYMR90~1\AppData\Local\Temp\ccioldvv.s:1364   .text.pmu_interrupt_enable:0000000000000004 .L0 
C:\Users\CYMR90~1\AppData\Local\Temp\ccioldvv.s:1366   .text.pmu_interrupt_enable:0000000000000006 .L0 
C:\Users\CYMR90~1\AppData\Local\Temp\ccioldvv.s:1369   .text.pmu_interrupt_enable:000000000000000a .L0 
C:\Users\CYMR90~1\AppData\Local\Temp\ccioldvv.s:1378   .text.pmu_interrupt_enable:0000000000000024 .L0 
C:\Users\CYMR90~1\AppData\Local\Temp\ccioldvv.s:1380   .text.pmu_interrupt_enable:0000000000000028 .L0 
C:\Users\CYMR90~1\AppData\Local\Temp\ccioldvv.s:1381   .text.pmu_interrupt_enable:0000000000000028 .L0 
C:\Users\CYMR90~1\AppData\Local\Temp\ccioldvv.s:1383   .text.pmu_interrupt_enable:000000000000002a .L0 
C:\Users\CYMR90~1\AppData\Local\Temp\ccioldvv.s:1385   .text.pmu_interrupt_enable:000000000000002c .L0 
C:\Users\CYMR90~1\AppData\Local\Temp\ccioldvv.s:1392   .text.pmu_interrupt_disable:0000000000000000 pmu_interrupt_disable
C:\Users\CYMR90~1\AppData\Local\Temp\ccioldvv.s:1395   .text.pmu_interrupt_disable:0000000000000000 .L0 
C:\Users\CYMR90~1\AppData\Local\Temp\ccioldvv.s:1396   .text.pmu_interrupt_disable:0000000000000000 .L0 
C:\Users\CYMR90~1\AppData\Local\Temp\ccioldvv.s:1397   .text.pmu_interrupt_disable:0000000000000002 .L0 
C:\Users\CYMR90~1\AppData\Local\Temp\ccioldvv.s:1399   .text.pmu_interrupt_disable:0000000000000004 .L0 
C:\Users\CYMR90~1\AppData\Local\Temp\ccioldvv.s:1401   .text.pmu_interrupt_disable:0000000000000006 .L0 
C:\Users\CYMR90~1\AppData\Local\Temp\ccioldvv.s:1404   .text.pmu_interrupt_disable:000000000000000a .L0 
C:\Users\CYMR90~1\AppData\Local\Temp\ccioldvv.s:1408   .text.pmu_interrupt_disable:0000000000000014 .L0 
C:\Users\CYMR90~1\AppData\Local\Temp\ccioldvv.s:1411   .text.pmu_interrupt_disable:000000000000001c .L0 
C:\Users\CYMR90~1\AppData\Local\Temp\ccioldvv.s:1416   .text.pmu_interrupt_disable:0000000000000028 .L0 
C:\Users\CYMR90~1\AppData\Local\Temp\ccioldvv.s:1418   .text.pmu_interrupt_disable:000000000000002c .L0 
C:\Users\CYMR90~1\AppData\Local\Temp\ccioldvv.s:1419   .text.pmu_interrupt_disable:000000000000002c .L0 
C:\Users\CYMR90~1\AppData\Local\Temp\ccioldvv.s:1421   .text.pmu_interrupt_disable:000000000000002e .L0 
C:\Users\CYMR90~1\AppData\Local\Temp\ccioldvv.s:1423   .text.pmu_interrupt_disable:0000000000000030 .L0 
C:\Users\CYMR90~1\AppData\Local\Temp\ccioldvv.s:1430   .text.pmu_interrupt_flag_get:0000000000000000 pmu_interrupt_flag_get
C:\Users\CYMR90~1\AppData\Local\Temp\ccioldvv.s:1433   .text.pmu_interrupt_flag_get:0000000000000000 .L0 
C:\Users\CYMR90~1\AppData\Local\Temp\ccioldvv.s:1434   .text.pmu_interrupt_flag_get:0000000000000000 .L0 
C:\Users\CYMR90~1\AppData\Local\Temp\ccioldvv.s:1435   .text.pmu_interrupt_flag_get:0000000000000002 .L0 
C:\Users\CYMR90~1\AppData\Local\Temp\ccioldvv.s:1437   .text.pmu_interrupt_flag_get:0000000000000004 .L0 
C:\Users\CYMR90~1\AppData\Local\Temp\ccioldvv.s:1439   .text.pmu_interrupt_flag_get:0000000000000006 .L0 
C:\Users\CYMR90~1\AppData\Local\Temp\ccioldvv.s:1442   .text.pmu_interrupt_flag_get:000000000000000a .L0 
C:\Users\CYMR90~1\AppData\Local\Temp\ccioldvv.s:1444   .text.pmu_interrupt_flag_get:000000000000000e .L0 
C:\Users\CYMR90~1\AppData\Local\Temp\ccioldvv.s:1451   .text.pmu_interrupt_flag_get:0000000000000022 .L0 
C:\Users\CYMR90~1\AppData\Local\Temp\ccioldvv.s:1454   .text.pmu_interrupt_flag_get:0000000000000024 .L0 
C:\Users\CYMR90~1\AppData\Local\Temp\ccioldvv.s:1458   .text.pmu_interrupt_flag_get:000000000000002e .L0 
C:\Users\CYMR90~1\AppData\Local\Temp\ccioldvv.s:1461   .text.pmu_interrupt_flag_get:0000000000000034 .L0 
C:\Users\CYMR90~1\AppData\Local\Temp\ccioldvv.s:1465   .text.pmu_interrupt_flag_get:000000000000003e .L0 
C:\Users\CYMR90~1\AppData\Local\Temp\ccioldvv.s:1467   .text.pmu_interrupt_flag_get:0000000000000040 .L0 
C:\Users\CYMR90~1\AppData\Local\Temp\ccioldvv.s:1469   .text.pmu_interrupt_flag_get:0000000000000042 .L0 
C:\Users\CYMR90~1\AppData\Local\Temp\ccioldvv.s:1472   .text.pmu_interrupt_flag_get:0000000000000048 .L0 
C:\Users\CYMR90~1\AppData\Local\Temp\ccioldvv.s:1475   .text.pmu_interrupt_flag_get:000000000000004e .L0 
C:\Users\CYMR90~1\AppData\Local\Temp\ccioldvv.s:1478   .text.pmu_interrupt_flag_get:0000000000000050 .L0 
C:\Users\CYMR90~1\AppData\Local\Temp\ccioldvv.s:1482   .text.pmu_interrupt_flag_get:000000000000005a .L0 
C:\Users\CYMR90~1\AppData\Local\Temp\ccioldvv.s:1485   .text.pmu_interrupt_flag_get:0000000000000060 .L0 
C:\Users\CYMR90~1\AppData\Local\Temp\ccioldvv.s:1489   .text.pmu_interrupt_flag_get:000000000000006a .L0 
C:\Users\CYMR90~1\AppData\Local\Temp\ccioldvv.s:1491   .text.pmu_interrupt_flag_get:000000000000006c .L0 
C:\Users\CYMR90~1\AppData\Local\Temp\ccioldvv.s:1493   .text.pmu_interrupt_flag_get:000000000000006e .L0 
C:\Users\CYMR90~1\AppData\Local\Temp\ccioldvv.s:1496   .text.pmu_interrupt_flag_get:0000000000000074 .L0 
C:\Users\CYMR90~1\AppData\Local\Temp\ccioldvv.s:1499   .text.pmu_interrupt_flag_get:000000000000007a .L0 
C:\Users\CYMR90~1\AppData\Local\Temp\ccioldvv.s:1502   .text.pmu_interrupt_flag_get:000000000000007c .L0 
C:\Users\CYMR90~1\AppData\Local\Temp\ccioldvv.s:1506   .text.pmu_interrupt_flag_get:0000000000000080 .L0 
C:\Users\CYMR90~1\AppData\Local\Temp\ccioldvv.s:1509   .text.pmu_interrupt_flag_get:0000000000000082 .L0 
C:\Users\CYMR90~1\AppData\Local\Temp\ccioldvv.s:1511   .text.pmu_interrupt_flag_get:0000000000000086 .L0 
C:\Users\CYMR90~1\AppData\Local\Temp\ccioldvv.s:1513   .text.pmu_interrupt_flag_get:000000000000008a .L0 
C:\Users\CYMR90~1\AppData\Local\Temp\ccioldvv.s:1514   .text.pmu_interrupt_flag_get:000000000000008a .L0 
C:\Users\CYMR90~1\AppData\Local\Temp\ccioldvv.s:1516   .text.pmu_interrupt_flag_get:000000000000008c .L0 
C:\Users\CYMR90~1\AppData\Local\Temp\ccioldvv.s:1518   .text.pmu_interrupt_flag_get:000000000000008e .L0 
C:\Users\CYMR90~1\AppData\Local\Temp\ccioldvv.s:1525   .text.pmu_interrupt_flag_clear:0000000000000000 pmu_interrupt_flag_clear
C:\Users\CYMR90~1\AppData\Local\Temp\ccioldvv.s:1528   .text.pmu_interrupt_flag_clear:0000000000000000 .L0 
C:\Users\CYMR90~1\AppData\Local\Temp\ccioldvv.s:1529   .text.pmu_interrupt_flag_clear:0000000000000000 .L0 
C:\Users\CYMR90~1\AppData\Local\Temp\ccioldvv.s:1530   .text.pmu_interrupt_flag_clear:0000000000000002 .L0 
C:\Users\CYMR90~1\AppData\Local\Temp\ccioldvv.s:1532   .text.pmu_interrupt_flag_clear:0000000000000004 .L0 
C:\Users\CYMR90~1\AppData\Local\Temp\ccioldvv.s:1534   .text.pmu_interrupt_flag_clear:0000000000000006 .L0 
C:\Users\CYMR90~1\AppData\Local\Temp\ccioldvv.s:1537   .text.pmu_interrupt_flag_clear:000000000000000a .L0 
C:\Users\CYMR90~1\AppData\Local\Temp\ccioldvv.s:1546   .text.pmu_interrupt_flag_clear:0000000000000024 .L0 
C:\Users\CYMR90~1\AppData\Local\Temp\ccioldvv.s:1548   .text.pmu_interrupt_flag_clear:0000000000000028 .L0 
C:\Users\CYMR90~1\AppData\Local\Temp\ccioldvv.s:1549   .text.pmu_interrupt_flag_clear:0000000000000028 .L0 
C:\Users\CYMR90~1\AppData\Local\Temp\ccioldvv.s:1551   .text.pmu_interrupt_flag_clear:000000000000002a .L0 
C:\Users\CYMR90~1\AppData\Local\Temp\ccioldvv.s:1553   .text.pmu_interrupt_flag_clear:000000000000002c .L0 
C:\Users\CYMR90~1\AppData\Local\Temp\ccioldvv.s:47     .text.pmu_deinit:000000000000002e .L0 
C:\Users\CYMR90~1\AppData\Local\Temp\ccioldvv.s:98     .text.pmu_lvd_select:0000000000000052 .L0 
C:\Users\CYMR90~1\AppData\Local\Temp\ccioldvv.s:129    .text.pmu_lvd_enable:000000000000001e .L0 
C:\Users\CYMR90~1\AppData\Local\Temp\ccioldvv.s:160    .text.pmu_lvd_disable:000000000000001c .L0 
C:\Users\CYMR90~1\AppData\Local\Temp\ccioldvv.s:191    .text.pmu_backup_write_enable:000000000000001e .L0 
C:\Users\CYMR90~1\AppData\Local\Temp\ccioldvv.s:222    .text.pmu_backup_write_disable:000000000000001e .L0 
C:\Users\CYMR90~1\AppData\Local\Temp\ccioldvv.s:356    .text.pmu_to_sleepmode:000000000000005a .L0 
C:\Users\CYMR90~1\AppData\Local\Temp\ccioldvv.s:549    .text.pmu_to_deepsleepmode:00000000000000da .L0 
C:\Users\CYMR90~1\AppData\Local\Temp\ccioldvv.s:695    .text.pmu_to_standbymode:000000000000007c .L0 
C:\Users\CYMR90~1\AppData\Local\Temp\ccioldvv.s:730    .text.pmu_wakeup_pin_enable:0000000000000028 .L0 
C:\Users\CYMR90~1\AppData\Local\Temp\ccioldvv.s:768    .text.pmu_wakeup_pin_disable:000000000000002c .L0 
C:\Users\CYMR90~1\AppData\Local\Temp\ccioldvv.s:801    .text.pmu_wifi_power_enable:0000000000000022 .L0 
C:\Users\CYMR90~1\AppData\Local\Temp\ccioldvv.s:834    .text.pmu_wifi_power_disable:0000000000000020 .L0 
C:\Users\CYMR90~1\AppData\Local\Temp\ccioldvv.s:869    .text.pmu_wifi_sram_control:0000000000000028 .L0 
C:\Users\CYMR90~1\AppData\Local\Temp\ccioldvv.s:904    .text.pmu_ble_control:0000000000000028 .L0 
C:\Users\CYMR90~1\AppData\Local\Temp\ccioldvv.s:938    .text.pmu_ble_wakeup_request_enable:0000000000000024 .L0 
C:\Users\CYMR90~1\AppData\Local\Temp\ccioldvv.s:973    .text.pmu_ble_wakeup_request_disable:0000000000000026 .L0 
C:\Users\CYMR90~1\AppData\Local\Temp\ccioldvv.s:1008   .text.pmu_pll_force_enable:000000000000002c .L0 
C:\Users\CYMR90~1\AppData\Local\Temp\ccioldvv.s:1046   .text.pmu_pll_force_disable:0000000000000030 .L0 
C:\Users\CYMR90~1\AppData\Local\Temp\ccioldvv.s:1089   .text.pmu_ble_rf_config:0000000000000044 .L0 
C:\Users\CYMR90~1\AppData\Local\Temp\ccioldvv.s:1124   .text.pmu_rf_force_enable:000000000000002c .L0 
C:\Users\CYMR90~1\AppData\Local\Temp\ccioldvv.s:1162   .text.pmu_rf_force_disable:0000000000000030 .L0 
C:\Users\CYMR90~1\AppData\Local\Temp\ccioldvv.s:1205   .text.pmu_rf_sequence_config:0000000000000042 .L0 
C:\Users\CYMR90~1\AppData\Local\Temp\ccioldvv.s:1303   .text.pmu_flag_get:0000000000000090 .L0 
C:\Users\CYMR90~1\AppData\Local\Temp\ccioldvv.s:1353   .text.pmu_flag_clear:0000000000000048 .L0 
C:\Users\CYMR90~1\AppData\Local\Temp\ccioldvv.s:1388   .text.pmu_interrupt_enable:000000000000002c .L0 
C:\Users\CYMR90~1\AppData\Local\Temp\ccioldvv.s:1426   .text.pmu_interrupt_disable:0000000000000030 .L0 
C:\Users\CYMR90~1\AppData\Local\Temp\ccioldvv.s:1521   .text.pmu_interrupt_flag_get:000000000000008e .L0 
C:\Users\CYMR90~1\AppData\Local\Temp\ccioldvv.s:1556   .text.pmu_interrupt_flag_clear:000000000000002c .L0 
                     .debug_frame:0000000000000000 .L0 
C:\Users\CYMR90~1\AppData\Local\Temp\ccioldvv.s:279    .text.pmu_to_sleepmode:000000000000002e .L8
C:\Users\CYMR90~1\AppData\Local\Temp\ccioldvv.s:340    .text.pmu_to_sleepmode:0000000000000050 .L9
C:\Users\CYMR90~1\AppData\Local\Temp\ccioldvv.s:416    .text.pmu_to_deepsleepmode:000000000000007e .L11
C:\Users\CYMR90~1\AppData\Local\Temp\ccioldvv.s:407    .text.pmu_to_deepsleepmode:0000000000000068 .L12
C:\Users\CYMR90~1\AppData\Local\Temp\ccioldvv.s:456    .text.pmu_to_deepsleepmode:00000000000000a0 .L13
C:\Users\CYMR90~1\AppData\Local\Temp\ccioldvv.s:517    .text.pmu_to_deepsleepmode:00000000000000c2 .L14
C:\Users\CYMR90~1\AppData\Local\Temp\ccioldvv.s:618    .text.pmu_to_standbymode:0000000000000050 .L16
C:\Users\CYMR90~1\AppData\Local\Temp\ccioldvv.s:679    .text.pmu_to_standbymode:0000000000000072 .L17
C:\Users\CYMR90~1\AppData\Local\Temp\ccioldvv.s:1246   .text.pmu_flag_get:000000000000003c .L33
C:\Users\CYMR90~1\AppData\Local\Temp\ccioldvv.s:1242   .text.pmu_flag_get:0000000000000038 .L34
C:\Users\CYMR90~1\AppData\Local\Temp\ccioldvv.s:1291   .text.pmu_flag_get:0000000000000088 .L35
C:\Users\CYMR90~1\AppData\Local\Temp\ccioldvv.s:1275   .text.pmu_flag_get:0000000000000072 .L36
C:\Users\CYMR90~1\AppData\Local\Temp\ccioldvv.s:1271   .text.pmu_flag_get:000000000000006e .L37
C:\Users\CYMR90~1\AppData\Local\Temp\ccioldvv.s:1288   .text.pmu_flag_get:0000000000000086 .L38
C:\Users\CYMR90~1\AppData\Local\Temp\ccioldvv.s:1333   .text.pmu_flag_clear:000000000000002e .L40
C:\Users\CYMR90~1\AppData\Local\Temp\ccioldvv.s:1341   .text.pmu_flag_clear:0000000000000040 .L42
C:\Users\CYMR90~1\AppData\Local\Temp\ccioldvv.s:1452   .text.pmu_interrupt_flag_get:0000000000000024 .L46
C:\Users\CYMR90~1\AppData\Local\Temp\ccioldvv.s:1476   .text.pmu_interrupt_flag_get:0000000000000050 .L47
C:\Users\CYMR90~1\AppData\Local\Temp\ccioldvv.s:1507   .text.pmu_interrupt_flag_get:0000000000000082 .L50
C:\Users\CYMR90~1\AppData\Local\Temp\ccioldvv.s:1500   .text.pmu_interrupt_flag_get:000000000000007c .L53
C:\Users\CYMR90~1\AppData\Local\Temp\ccioldvv.s:1504   .text.pmu_interrupt_flag_get:0000000000000080 .L54
C:\Users\CYMR90~1\AppData\Local\Temp\ccioldvv.s:2747   .debug_abbrev:0000000000000000 .Ldebug_abbrev0
C:\Users\CYMR90~1\AppData\Local\Temp\ccioldvv.s:23837  .debug_str:000000000000afdf .LASF5653
C:\Users\CYMR90~1\AppData\Local\Temp\ccioldvv.s:26539  .debug_str:0000000000015c1d .LASF5654
C:\Users\CYMR90~1\AppData\Local\Temp\ccioldvv.s:26759  .debug_str:0000000000016ab0 .LASF5655
C:\Users\CYMR90~1\AppData\Local\Temp\ccioldvv.s:3376   .debug_ranges:0000000000000000 .Ldebug_ranges0
C:\Users\CYMR90~1\AppData\Local\Temp\ccioldvv.s:21073  .debug_line:0000000000000000 .Ldebug_line0
C:\Users\CYMR90~1\AppData\Local\Temp\ccioldvv.s:3438   .debug_macro:0000000000000000 .Ldebug_macro0
C:\Users\CYMR90~1\AppData\Local\Temp\ccioldvv.s:32354  .debug_str:000000000002d02f .LASF5556
C:\Users\CYMR90~1\AppData\Local\Temp\ccioldvv.s:21093  .debug_str:000000000000013a .LASF5557
C:\Users\CYMR90~1\AppData\Local\Temp\ccioldvv.s:22017  .debug_str:0000000000003ab0 .LASF5558
C:\Users\CYMR90~1\AppData\Local\Temp\ccioldvv.s:27210  .debug_str:0000000000018865 .LASF5559
C:\Users\CYMR90~1\AppData\Local\Temp\ccioldvv.s:23323  .debug_str:0000000000008ece .LASF5564
C:\Users\CYMR90~1\AppData\Local\Temp\ccioldvv.s:26667  .debug_str:0000000000016482 .LASF5560
C:\Users\CYMR90~1\AppData\Local\Temp\ccioldvv.s:28540  .debug_str:000000000001e0a2 .LASF5561
C:\Users\CYMR90~1\AppData\Local\Temp\ccioldvv.s:30164  .debug_str:0000000000024329 .LASF5562
C:\Users\CYMR90~1\AppData\Local\Temp\ccioldvv.s:28948  .debug_str:000000000001f8b0 .LASF5563
C:\Users\CYMR90~1\AppData\Local\Temp\ccioldvv.s:27422  .debug_str:0000000000019693 .LASF5565
C:\Users\CYMR90~1\AppData\Local\Temp\ccioldvv.s:21209  .debug_str:000000000000080f .LASF5566
C:\Users\CYMR90~1\AppData\Local\Temp\ccioldvv.s:30510  .debug_str:0000000000025bab .LASF5567
C:\Users\CYMR90~1\AppData\Local\Temp\ccioldvv.s:28970  .debug_str:000000000001fa19 .LASF855
C:\Users\CYMR90~1\AppData\Local\Temp\ccioldvv.s:26435  .debug_str:0000000000015609 .LASF5568
C:\Users\CYMR90~1\AppData\Local\Temp\ccioldvv.s:30622  .debug_str:00000000000262b4 .LASF5569
C:\Users\CYMR90~1\AppData\Local\Temp\ccioldvv.s:31470  .debug_str:00000000000298cc .LASF5570
C:\Users\CYMR90~1\AppData\Local\Temp\ccioldvv.s:21367  .debug_str:00000000000011dd .LASF5656
C:\Users\CYMR90~1\AppData\Local\Temp\ccioldvv.s:28542  .debug_str:000000000001e0ac .LASF5571
C:\Users\CYMR90~1\AppData\Local\Temp\ccioldvv.s:27056  .debug_str:0000000000017f3c .LASF5572
C:\Users\CYMR90~1\AppData\Local\Temp\ccioldvv.s:31848  .debug_str:000000000002aefe .LASF5573
C:\Users\CYMR90~1\AppData\Local\Temp\ccioldvv.s:30204  .debug_str:0000000000024606 .LASF5574
C:\Users\CYMR90~1\AppData\Local\Temp\ccioldvv.s:23691  .debug_str:000000000000a5fe .LASF5575
C:\Users\CYMR90~1\AppData\Local\Temp\ccioldvv.s:23847  .debug_str:000000000000b117 .LASF5576
C:\Users\CYMR90~1\AppData\Local\Temp\ccioldvv.s:31380  .debug_str:00000000000292d2 .LASF5577
C:\Users\CYMR90~1\AppData\Local\Temp\ccioldvv.s:28738  .debug_str:000000000001ec68 .LASF5578
C:\Users\CYMR90~1\AppData\Local\Temp\ccioldvv.s:29560  .debug_str:0000000000021e92 .LASF5579
C:\Users\CYMR90~1\AppData\Local\Temp\ccioldvv.s:32332  .debug_str:000000000002cef1 .LASF5580
C:\Users\CYMR90~1\AppData\Local\Temp\ccioldvv.s:30796  .debug_str:0000000000026d00 .LASF5581
C:\Users\CYMR90~1\AppData\Local\Temp\ccioldvv.s:31862  .debug_str:000000000002afbf .LASF5582
C:\Users\CYMR90~1\AppData\Local\Temp\ccioldvv.s:26583  .debug_str:0000000000015f5c .LASF5583
C:\Users\CYMR90~1\AppData\Local\Temp\ccioldvv.s:21869  .debug_str:00000000000030be .LASF5584
C:\Users\CYMR90~1\AppData\Local\Temp\ccioldvv.s:25233  .debug_str:00000000000108a1 .LASF5585
C:\Users\CYMR90~1\AppData\Local\Temp\ccioldvv.s:30692  .debug_str:00000000000266b9 .LASF5586
C:\Users\CYMR90~1\AppData\Local\Temp\ccioldvv.s:22931  .debug_str:0000000000007454 .LASF5587
C:\Users\CYMR90~1\AppData\Local\Temp\ccioldvv.s:24183  .debug_str:000000000000c713 .LASF5588
C:\Users\CYMR90~1\AppData\Local\Temp\ccioldvv.s:32322  .debug_str:000000000002cda8 .LASF5589
C:\Users\CYMR90~1\AppData\Local\Temp\ccioldvv.s:22729  .debug_str:00000000000066cc .LASF5590
C:\Users\CYMR90~1\AppData\Local\Temp\ccioldvv.s:31306  .debug_str:0000000000028e19 .LASF5591
C:\Users\CYMR90~1\AppData\Local\Temp\ccioldvv.s:31236  .debug_str:0000000000028a35 .LASF5592
C:\Users\CYMR90~1\AppData\Local\Temp\ccioldvv.s:26145  .debug_str:000000000001443d .LASF5593
C:\Users\CYMR90~1\AppData\Local\Temp\ccioldvv.s:22217  .debug_str:00000000000047d9 .LASF5594
C:\Users\CYMR90~1\AppData\Local\Temp\ccioldvv.s:27650  .debug_str:000000000001a682 .LASF5595
C:\Users\CYMR90~1\AppData\Local\Temp\ccioldvv.s:24465  .debug_str:000000000000da01 .LASF5596
C:\Users\CYMR90~1\AppData\Local\Temp\ccioldvv.s:32162  .debug_str:000000000002c356 .LASF5597
C:\Users\CYMR90~1\AppData\Local\Temp\ccioldvv.s:27358  .debug_str:0000000000019305 .LASF5598
C:\Users\CYMR90~1\AppData\Local\Temp\ccioldvv.s:22955  .debug_str:00000000000075c9 .LASF5599
C:\Users\CYMR90~1\AppData\Local\Temp\ccioldvv.s:32134  .debug_str:000000000002c1a9 .LASF5600
C:\Users\CYMR90~1\AppData\Local\Temp\ccioldvv.s:29548  .debug_str:0000000000021dd2 .LASF5601
C:\Users\CYMR90~1\AppData\Local\Temp\ccioldvv.s:22107  .debug_str:000000000000404a .LASF5602
C:\Users\CYMR90~1\AppData\Local\Temp\ccioldvv.s:30158  .debug_str:00000000000242d9 .LASF5603
C:\Users\CYMR90~1\AppData\Local\Temp\ccioldvv.s:23921  .debug_str:000000000000b549 .LASF5604
C:\Users\CYMR90~1\AppData\Local\Temp\ccioldvv.s:27842  .debug_str:000000000001b32c .LASF5605
C:\Users\CYMR90~1\AppData\Local\Temp\ccioldvv.s:23029  .debug_str:0000000000007a82 .LASF5609
C:\Users\CYMR90~1\AppData\Local\Temp\ccioldvv.s:1526   .text.pmu_interrupt_flag_clear:0000000000000000 .LFB375
C:\Users\CYMR90~1\AppData\Local\Temp\ccioldvv.s:1554   .text.pmu_interrupt_flag_clear:000000000000002c .LFE375
C:\Users\CYMR90~1\AppData\Local\Temp\ccioldvv.s:26181  .debug_str:000000000001461d .LASF5606
C:\Users\CYMR90~1\AppData\Local\Temp\ccioldvv.s:28650  .debug_str:000000000001e732 .LASF5615
C:\Users\CYMR90~1\AppData\Local\Temp\ccioldvv.s:1431   .text.pmu_interrupt_flag_get:0000000000000000 .LFB374
C:\Users\CYMR90~1\AppData\Local\Temp\ccioldvv.s:1519   .text.pmu_interrupt_flag_get:000000000000008e .LFE374
C:\Users\CYMR90~1\AppData\Local\Temp\ccioldvv.s:22143  .debug_str:00000000000042ee .LASF5607
C:\Users\CYMR90~1\AppData\Local\Temp\ccioldvv.s:29186  .debug_str:0000000000020785 .LASF5608
C:\Users\CYMR90~1\AppData\Local\Temp\ccioldvv.s:29894  .debug_str:000000000002322e .LASF5610
C:\Users\CYMR90~1\AppData\Local\Temp\ccioldvv.s:1393   .text.pmu_interrupt_disable:0000000000000000 .LFB373
C:\Users\CYMR90~1\AppData\Local\Temp\ccioldvv.s:1424   .text.pmu_interrupt_disable:0000000000000030 .LFE373
C:\Users\CYMR90~1\AppData\Local\Temp\ccioldvv.s:27776  .debug_str:000000000001ae92 .LASF5611
C:\Users\CYMR90~1\AppData\Local\Temp\ccioldvv.s:22209  .debug_str:000000000000473e .LASF5612
C:\Users\CYMR90~1\AppData\Local\Temp\ccioldvv.s:1358   .text.pmu_interrupt_enable:0000000000000000 .LFB372
C:\Users\CYMR90~1\AppData\Local\Temp\ccioldvv.s:1386   .text.pmu_interrupt_enable:000000000000002c .LFE372
C:\Users\CYMR90~1\AppData\Local\Temp\ccioldvv.s:21457  .debug_str:000000000000179c .LASF5613
C:\Users\CYMR90~1\AppData\Local\Temp\ccioldvv.s:1308   .text.pmu_flag_clear:0000000000000000 .LFB371
C:\Users\CYMR90~1\AppData\Local\Temp\ccioldvv.s:1351   .text.pmu_flag_clear:0000000000000048 .LFE371
C:\Users\CYMR90~1\AppData\Local\Temp\ccioldvv.s:23679  .debug_str:000000000000a53f .LASF5614
C:\Users\CYMR90~1\AppData\Local\Temp\ccioldvv.s:24941  .debug_str:000000000000f67c .LASF5616
C:\Users\CYMR90~1\AppData\Local\Temp\ccioldvv.s:1210   .text.pmu_flag_get:0000000000000000 .LFB370
C:\Users\CYMR90~1\AppData\Local\Temp\ccioldvv.s:1301   .text.pmu_flag_get:0000000000000090 .LFE370
C:\Users\CYMR90~1\AppData\Local\Temp\ccioldvv.s:28988  .debug_str:000000000001fb2e .LASF5617
C:\Users\CYMR90~1\AppData\Local\Temp\ccioldvv.s:1167   .text.pmu_rf_sequence_config:0000000000000000 .LFB369
C:\Users\CYMR90~1\AppData\Local\Temp\ccioldvv.s:1203   .text.pmu_rf_sequence_config:0000000000000042 .LFE369
C:\Users\CYMR90~1\AppData\Local\Temp\ccioldvv.s:31596  .debug_str:0000000000029fec .LASF5618
C:\Users\CYMR90~1\AppData\Local\Temp\ccioldvv.s:25257  .debug_str:00000000000109f5 .LASF5619
C:\Users\CYMR90~1\AppData\Local\Temp\ccioldvv.s:1129   .text.pmu_rf_force_disable:0000000000000000 .LFB368
C:\Users\CYMR90~1\AppData\Local\Temp\ccioldvv.s:1160   .text.pmu_rf_force_disable:0000000000000030 .LFE368
C:\Users\CYMR90~1\AppData\Local\Temp\ccioldvv.s:24583  .debug_str:000000000000e0db .LASF5620
C:\Users\CYMR90~1\AppData\Local\Temp\ccioldvv.s:27394  .debug_str:0000000000019518 .LASF5621
C:\Users\CYMR90~1\AppData\Local\Temp\ccioldvv.s:1094   .text.pmu_rf_force_enable:0000000000000000 .LFB367
C:\Users\CYMR90~1\AppData\Local\Temp\ccioldvv.s:1122   .text.pmu_rf_force_enable:000000000000002c .LFE367
C:\Users\CYMR90~1\AppData\Local\Temp\ccioldvv.s:30416  .debug_str:00000000000254be .LASF5622
C:\Users\CYMR90~1\AppData\Local\Temp\ccioldvv.s:1051   .text.pmu_ble_rf_config:0000000000000000 .LFB366
C:\Users\CYMR90~1\AppData\Local\Temp\ccioldvv.s:1087   .text.pmu_ble_rf_config:0000000000000044 .LFE366
C:\Users\CYMR90~1\AppData\Local\Temp\ccioldvv.s:30870  .debug_str:000000000002715c .LASF5623
C:\Users\CYMR90~1\AppData\Local\Temp\ccioldvv.s:1013   .text.pmu_pll_force_disable:0000000000000000 .LFB365
C:\Users\CYMR90~1\AppData\Local\Temp\ccioldvv.s:1044   .text.pmu_pll_force_disable:0000000000000030 .LFE365
C:\Users\CYMR90~1\AppData\Local\Temp\ccioldvv.s:32396  .debug_str:000000000002d292 .LASF5624
C:\Users\CYMR90~1\AppData\Local\Temp\ccioldvv.s:978    .text.pmu_pll_force_enable:0000000000000000 .LFB364
C:\Users\CYMR90~1\AppData\Local\Temp\ccioldvv.s:1006   .text.pmu_pll_force_enable:000000000000002c .LFE364
C:\Users\CYMR90~1\AppData\Local\Temp\ccioldvv.s:24983  .debug_str:000000000000f9a0 .LASF5625
C:\Users\CYMR90~1\AppData\Local\Temp\ccioldvv.s:943    .text.pmu_ble_wakeup_request_disable:0000000000000000 .LFB363
C:\Users\CYMR90~1\AppData\Local\Temp\ccioldvv.s:971    .text.pmu_ble_wakeup_request_disable:0000000000000026 .LFE363
C:\Users\CYMR90~1\AppData\Local\Temp\ccioldvv.s:21679  .debug_str:0000000000002459 .LASF5626
C:\Users\CYMR90~1\AppData\Local\Temp\ccioldvv.s:909    .text.pmu_ble_wakeup_request_enable:0000000000000000 .LFB362
C:\Users\CYMR90~1\AppData\Local\Temp\ccioldvv.s:936    .text.pmu_ble_wakeup_request_enable:0000000000000024 .LFE362
C:\Users\CYMR90~1\AppData\Local\Temp\ccioldvv.s:31612  .debug_str:000000000002a0c4 .LASF5627
C:\Users\CYMR90~1\AppData\Local\Temp\ccioldvv.s:874    .text.pmu_ble_control:0000000000000000 .LFB361
C:\Users\CYMR90~1\AppData\Local\Temp\ccioldvv.s:902    .text.pmu_ble_control:0000000000000028 .LFE361
C:\Users\CYMR90~1\AppData\Local\Temp\ccioldvv.s:28760  .debug_str:000000000001ed88 .LASF5628
C:\Users\CYMR90~1\AppData\Local\Temp\ccioldvv.s:839    .text.pmu_wifi_sram_control:0000000000000000 .LFB360
C:\Users\CYMR90~1\AppData\Local\Temp\ccioldvv.s:867    .text.pmu_wifi_sram_control:0000000000000028 .LFE360
C:\Users\CYMR90~1\AppData\Local\Temp\ccioldvv.s:29866  .debug_str:00000000000230ee .LASF5629
C:\Users\CYMR90~1\AppData\Local\Temp\ccioldvv.s:23333  .debug_str:0000000000008f5b .LASF5630
C:\Users\CYMR90~1\AppData\Local\Temp\ccioldvv.s:806    .text.pmu_wifi_power_disable:0000000000000000 .LFB359
C:\Users\CYMR90~1\AppData\Local\Temp\ccioldvv.s:832    .text.pmu_wifi_power_disable:0000000000000020 .LFE359
C:\Users\CYMR90~1\AppData\Local\Temp\ccioldvv.s:32276  .debug_str:000000000002cafb .LASF5631
C:\Users\CYMR90~1\AppData\Local\Temp\ccioldvv.s:773    .text.pmu_wifi_power_enable:0000000000000000 .LFB358
C:\Users\CYMR90~1\AppData\Local\Temp\ccioldvv.s:799    .text.pmu_wifi_power_enable:0000000000000022 .LFE358
C:\Users\CYMR90~1\AppData\Local\Temp\ccioldvv.s:21227  .debug_str:000000000000091f .LASF5632
C:\Users\CYMR90~1\AppData\Local\Temp\ccioldvv.s:735    .text.pmu_wakeup_pin_disable:0000000000000000 .LFB357
C:\Users\CYMR90~1\AppData\Local\Temp\ccioldvv.s:766    .text.pmu_wakeup_pin_disable:000000000000002c .LFE357
C:\Users\CYMR90~1\AppData\Local\Temp\ccioldvv.s:22569  .debug_str:0000000000005d7b .LASF5633
C:\Users\CYMR90~1\AppData\Local\Temp\ccioldvv.s:25675  .debug_str:00000000000125b1 .LASF5634
C:\Users\CYMR90~1\AppData\Local\Temp\ccioldvv.s:700    .text.pmu_wakeup_pin_enable:0000000000000000 .LFB356
C:\Users\CYMR90~1\AppData\Local\Temp\ccioldvv.s:728    .text.pmu_wakeup_pin_enable:0000000000000028 .LFE356
C:\Users\CYMR90~1\AppData\Local\Temp\ccioldvv.s:30722  .debug_str:00000000000268a3 .LASF5635
C:\Users\CYMR90~1\AppData\Local\Temp\ccioldvv.s:554    .text.pmu_to_standbymode:0000000000000000 .LFB355
C:\Users\CYMR90~1\AppData\Local\Temp\ccioldvv.s:693    .text.pmu_to_standbymode:000000000000007c .LFE355
C:\Users\CYMR90~1\AppData\Local\Temp\ccioldvv.s:29204  .debug_str:0000000000020857 .LASF5636
C:\Users\CYMR90~1\AppData\Local\Temp\ccioldvv.s:569    .text.pmu_to_standbymode:0000000000000014 .LBB88
C:\Users\CYMR90~1\AppData\Local\Temp\ccioldvv.s:583    .text.pmu_to_standbymode:000000000000001e .LBE88
C:\Users\CYMR90~1\AppData\Local\Temp\ccioldvv.s:571    .text.pmu_to_standbymode:0000000000000014 .LBB90
C:\Users\CYMR90~1\AppData\Local\Temp\ccioldvv.s:579    .text.pmu_to_standbymode:000000000000001c .LBE90
C:\Users\CYMR90~1\AppData\Local\Temp\ccioldvv.s:599    .text.pmu_to_standbymode:0000000000000044 .LBB91
C:\Users\CYMR90~1\AppData\Local\Temp\ccioldvv.s:620    .text.pmu_to_standbymode:0000000000000050 .LBE91
C:\Users\CYMR90~1\AppData\Local\Temp\ccioldvv.s:601    .text.pmu_to_standbymode:0000000000000044 .LBB93
C:\Users\CYMR90~1\AppData\Local\Temp\ccioldvv.s:609    .text.pmu_to_standbymode:000000000000004a .LBE93
C:\Users\CYMR90~1\AppData\Local\Temp\ccioldvv.s:621    .text.pmu_to_standbymode:0000000000000050 .LBB94
C:\Users\CYMR90~1\AppData\Local\Temp\ccioldvv.s:635    .text.pmu_to_standbymode:0000000000000058 .LBE94
C:\Users\CYMR90~1\AppData\Local\Temp\ccioldvv.s:623    .text.pmu_to_standbymode:0000000000000050 .LBB96
C:\Users\CYMR90~1\AppData\Local\Temp\ccioldvv.s:631    .text.pmu_to_standbymode:0000000000000056 .LBE96
C:\Users\CYMR90~1\AppData\Local\Temp\ccioldvv.s:636    .text.pmu_to_standbymode:0000000000000058 .LBB97
C:\Users\CYMR90~1\AppData\Local\Temp\ccioldvv.s:665    .text.pmu_to_standbymode:000000000000006a .LBE97
C:\Users\CYMR90~1\AppData\Local\Temp\ccioldvv.s:638    .text.pmu_to_standbymode:0000000000000058 .LBB99
C:\Users\CYMR90~1\AppData\Local\Temp\ccioldvv.s:646    .text.pmu_to_standbymode:000000000000005e .LBE99
C:\Users\CYMR90~1\AppData\Local\Temp\ccioldvv.s:653    .text.pmu_to_standbymode:0000000000000062 .LBB100
C:\Users\CYMR90~1\AppData\Local\Temp\ccioldvv.s:661    .text.pmu_to_standbymode:0000000000000068 .LBE100
C:\Users\CYMR90~1\AppData\Local\Temp\ccioldvv.s:666    .text.pmu_to_standbymode:000000000000006a .LBB101
C:\Users\CYMR90~1\AppData\Local\Temp\ccioldvv.s:681    .text.pmu_to_standbymode:0000000000000072 .LBE101
C:\Users\CYMR90~1\AppData\Local\Temp\ccioldvv.s:668    .text.pmu_to_standbymode:000000000000006a .LBB103
C:\Users\CYMR90~1\AppData\Local\Temp\ccioldvv.s:676    .text.pmu_to_standbymode:0000000000000070 .LBE103
C:\Users\CYMR90~1\AppData\Local\Temp\ccioldvv.s:30710  .debug_str:00000000000267bf .LASF5637
C:\Users\CYMR90~1\AppData\Local\Temp\ccioldvv.s:361    .text.pmu_to_deepsleepmode:0000000000000000 .LFB354
C:\Users\CYMR90~1\AppData\Local\Temp\ccioldvv.s:547    .text.pmu_to_deepsleepmode:00000000000000da .LFE354
C:\Users\CYMR90~1\AppData\Local\Temp\ccioldvv.s:21543  .debug_str:0000000000001ce0 .LASF5638
C:\Users\CYMR90~1\AppData\Local\Temp\ccioldvv.s:25895  .debug_str:0000000000013451 .LASF5639
C:\Users\CYMR90~1\AppData\Local\Temp\ccioldvv.s:419    .text.pmu_to_deepsleepmode:0000000000000084 .LBB69
C:\Users\CYMR90~1\AppData\Local\Temp\ccioldvv.s:433    .text.pmu_to_deepsleepmode:000000000000008e .LBE69
C:\Users\CYMR90~1\AppData\Local\Temp\ccioldvv.s:421    .text.pmu_to_deepsleepmode:0000000000000084 .LBB71
C:\Users\CYMR90~1\AppData\Local\Temp\ccioldvv.s:429    .text.pmu_to_deepsleepmode:000000000000008c .LBE71
C:\Users\CYMR90~1\AppData\Local\Temp\ccioldvv.s:437    .text.pmu_to_deepsleepmode:0000000000000094 .LBB72
C:\Users\CYMR90~1\AppData\Local\Temp\ccioldvv.s:458    .text.pmu_to_deepsleepmode:00000000000000a0 .LBE72
C:\Users\CYMR90~1\AppData\Local\Temp\ccioldvv.s:439    .text.pmu_to_deepsleepmode:0000000000000094 .LBB74
C:\Users\CYMR90~1\AppData\Local\Temp\ccioldvv.s:447    .text.pmu_to_deepsleepmode:000000000000009a .LBE74
C:\Users\CYMR90~1\AppData\Local\Temp\ccioldvv.s:459    .text.pmu_to_deepsleepmode:00000000000000a0 .LBB75
C:\Users\CYMR90~1\AppData\Local\Temp\ccioldvv.s:473    .text.pmu_to_deepsleepmode:00000000000000a8 .LBE75
C:\Users\CYMR90~1\AppData\Local\Temp\ccioldvv.s:461    .text.pmu_to_deepsleepmode:00000000000000a0 .LBB77
C:\Users\CYMR90~1\AppData\Local\Temp\ccioldvv.s:469    .text.pmu_to_deepsleepmode:00000000000000a6 .LBE77
C:\Users\CYMR90~1\AppData\Local\Temp\ccioldvv.s:474    .text.pmu_to_deepsleepmode:00000000000000a8 .LBB78
C:\Users\CYMR90~1\AppData\Local\Temp\ccioldvv.s:503    .text.pmu_to_deepsleepmode:00000000000000ba .LBE78
C:\Users\CYMR90~1\AppData\Local\Temp\ccioldvv.s:476    .text.pmu_to_deepsleepmode:00000000000000a8 .LBB80
C:\Users\CYMR90~1\AppData\Local\Temp\ccioldvv.s:484    .text.pmu_to_deepsleepmode:00000000000000ae .LBE80
C:\Users\CYMR90~1\AppData\Local\Temp\ccioldvv.s:491    .text.pmu_to_deepsleepmode:00000000000000b2 .LBB81
C:\Users\CYMR90~1\AppData\Local\Temp\ccioldvv.s:499    .text.pmu_to_deepsleepmode:00000000000000b8 .LBE81
C:\Users\CYMR90~1\AppData\Local\Temp\ccioldvv.s:504    .text.pmu_to_deepsleepmode:00000000000000ba .LBB82
C:\Users\CYMR90~1\AppData\Local\Temp\ccioldvv.s:520    .text.pmu_to_deepsleepmode:00000000000000c6 .LBE82
C:\Users\CYMR90~1\AppData\Local\Temp\ccioldvv.s:506    .text.pmu_to_deepsleepmode:00000000000000ba .LBB84
C:\Users\CYMR90~1\AppData\Local\Temp\ccioldvv.s:514    .text.pmu_to_deepsleepmode:00000000000000c0 .LBE84
C:\Users\CYMR90~1\AppData\Local\Temp\ccioldvv.s:521    .text.pmu_to_deepsleepmode:00000000000000c6 .LBB85
C:\Users\CYMR90~1\AppData\Local\Temp\ccioldvv.s:535    .text.pmu_to_deepsleepmode:00000000000000d0 .LBE85
C:\Users\CYMR90~1\AppData\Local\Temp\ccioldvv.s:523    .text.pmu_to_deepsleepmode:00000000000000c6 .LBB87
C:\Users\CYMR90~1\AppData\Local\Temp\ccioldvv.s:531    .text.pmu_to_deepsleepmode:00000000000000ce .LBE87
C:\Users\CYMR90~1\AppData\Local\Temp\ccioldvv.s:25409  .debug_str:0000000000011384 .LASF5640
C:\Users\CYMR90~1\AppData\Local\Temp\ccioldvv.s:227    .text.pmu_to_sleepmode:0000000000000000 .LFB353
C:\Users\CYMR90~1\AppData\Local\Temp\ccioldvv.s:354    .text.pmu_to_sleepmode:000000000000005a .LFE353
C:\Users\CYMR90~1\AppData\Local\Temp\ccioldvv.s:26211  .debug_str:0000000000014838 .LASF5641
C:\Users\CYMR90~1\AppData\Local\Temp\ccioldvv.s:241    .text.pmu_to_sleepmode:0000000000000012 .LBB53
C:\Users\CYMR90~1\AppData\Local\Temp\ccioldvv.s:256    .text.pmu_to_sleepmode:000000000000001c .LBE53
C:\Users\CYMR90~1\AppData\Local\Temp\ccioldvv.s:243    .text.pmu_to_sleepmode:0000000000000012 .LBB55
C:\Users\CYMR90~1\AppData\Local\Temp\ccioldvv.s:252    .text.pmu_to_sleepmode:000000000000001a .LBE55
C:\Users\CYMR90~1\AppData\Local\Temp\ccioldvv.s:260    .text.pmu_to_sleepmode:0000000000000022 .LBB56
C:\Users\CYMR90~1\AppData\Local\Temp\ccioldvv.s:281    .text.pmu_to_sleepmode:000000000000002e .LBE56
C:\Users\CYMR90~1\AppData\Local\Temp\ccioldvv.s:262    .text.pmu_to_sleepmode:0000000000000022 .LBB58
C:\Users\CYMR90~1\AppData\Local\Temp\ccioldvv.s:270    .text.pmu_to_sleepmode:0000000000000028 .LBE58
C:\Users\CYMR90~1\AppData\Local\Temp\ccioldvv.s:282    .text.pmu_to_sleepmode:000000000000002e .LBB59
C:\Users\CYMR90~1\AppData\Local\Temp\ccioldvv.s:296    .text.pmu_to_sleepmode:0000000000000036 .LBE59
C:\Users\CYMR90~1\AppData\Local\Temp\ccioldvv.s:284    .text.pmu_to_sleepmode:000000000000002e .LBB61
C:\Users\CYMR90~1\AppData\Local\Temp\ccioldvv.s:292    .text.pmu_to_sleepmode:0000000000000034 .LBE61
C:\Users\CYMR90~1\AppData\Local\Temp\ccioldvv.s:297    .text.pmu_to_sleepmode:0000000000000036 .LBB62
C:\Users\CYMR90~1\AppData\Local\Temp\ccioldvv.s:326    .text.pmu_to_sleepmode:0000000000000048 .LBE62
C:\Users\CYMR90~1\AppData\Local\Temp\ccioldvv.s:299    .text.pmu_to_sleepmode:0000000000000036 .LBB64
C:\Users\CYMR90~1\AppData\Local\Temp\ccioldvv.s:307    .text.pmu_to_sleepmode:000000000000003c .LBE64
C:\Users\CYMR90~1\AppData\Local\Temp\ccioldvv.s:314    .text.pmu_to_sleepmode:0000000000000040 .LBB65
C:\Users\CYMR90~1\AppData\Local\Temp\ccioldvv.s:322    .text.pmu_to_sleepmode:0000000000000046 .LBE65
C:\Users\CYMR90~1\AppData\Local\Temp\ccioldvv.s:327    .text.pmu_to_sleepmode:0000000000000048 .LBB66
C:\Users\CYMR90~1\AppData\Local\Temp\ccioldvv.s:342    .text.pmu_to_sleepmode:0000000000000050 .LBE66
C:\Users\CYMR90~1\AppData\Local\Temp\ccioldvv.s:329    .text.pmu_to_sleepmode:0000000000000048 .LBB68
C:\Users\CYMR90~1\AppData\Local\Temp\ccioldvv.s:337    .text.pmu_to_sleepmode:000000000000004e .LBE68
C:\Users\CYMR90~1\AppData\Local\Temp\ccioldvv.s:31064  .debug_str:0000000000027de2 .LASF5642
C:\Users\CYMR90~1\AppData\Local\Temp\ccioldvv.s:196    .text.pmu_backup_write_disable:0000000000000000 .LFB352
C:\Users\CYMR90~1\AppData\Local\Temp\ccioldvv.s:220    .text.pmu_backup_write_disable:000000000000001e .LFE352
C:\Users\CYMR90~1\AppData\Local\Temp\ccioldvv.s:24997  .debug_str:000000000000fa59 .LASF5643
C:\Users\CYMR90~1\AppData\Local\Temp\ccioldvv.s:165    .text.pmu_backup_write_enable:0000000000000000 .LFB351
C:\Users\CYMR90~1\AppData\Local\Temp\ccioldvv.s:189    .text.pmu_backup_write_enable:000000000000001e .LFE351
C:\Users\CYMR90~1\AppData\Local\Temp\ccioldvv.s:23259  .debug_str:0000000000008a83 .LASF5644
C:\Users\CYMR90~1\AppData\Local\Temp\ccioldvv.s:134    .text.pmu_lvd_disable:0000000000000000 .LFB350
C:\Users\CYMR90~1\AppData\Local\Temp\ccioldvv.s:158    .text.pmu_lvd_disable:000000000000001c .LFE350
C:\Users\CYMR90~1\AppData\Local\Temp\ccioldvv.s:30732  .debug_str:0000000000026947 .LASF5645
C:\Users\CYMR90~1\AppData\Local\Temp\ccioldvv.s:103    .text.pmu_lvd_enable:0000000000000000 .LFB349
C:\Users\CYMR90~1\AppData\Local\Temp\ccioldvv.s:127    .text.pmu_lvd_enable:000000000000001e .LFE349
C:\Users\CYMR90~1\AppData\Local\Temp\ccioldvv.s:24695  .debug_str:000000000000e7c4 .LASF5646
C:\Users\CYMR90~1\AppData\Local\Temp\ccioldvv.s:52     .text.pmu_lvd_select:0000000000000000 .LFB348
C:\Users\CYMR90~1\AppData\Local\Temp\ccioldvv.s:96     .text.pmu_lvd_select:0000000000000052 .LFE348
C:\Users\CYMR90~1\AppData\Local\Temp\ccioldvv.s:25217  .debug_str:00000000000107db .LASF5647
C:\Users\CYMR90~1\AppData\Local\Temp\ccioldvv.s:25137  .debug_str:0000000000010303 .LASF5648
C:\Users\CYMR90~1\AppData\Local\Temp\ccioldvv.s:14     .text.pmu_deinit:0000000000000000 .LFB347
C:\Users\CYMR90~1\AppData\Local\Temp\ccioldvv.s:45     .text.pmu_deinit:000000000000002e .LFE347
C:\Users\CYMR90~1\AppData\Local\Temp\ccioldvv.s:22071  .debug_str:0000000000003df3 .LASF5649
C:\Users\CYMR90~1\AppData\Local\Temp\ccioldvv.s:28878  .debug_str:000000000001f4db .LASF5650
C:\Users\CYMR90~1\AppData\Local\Temp\ccioldvv.s:28886  .debug_str:000000000001f539 .LASF5651
C:\Users\CYMR90~1\AppData\Local\Temp\ccioldvv.s:23081  .debug_str:0000000000007e74 .LASF5652
C:\Users\CYMR90~1\AppData\Local\Temp\ccioldvv.s:31274  .debug_str:0000000000028c7b .LASF5657
C:\Users\CYMR90~1\AppData\Local\Temp\ccioldvv.s:1563   .debug_info:0000000000000000 .Ldebug_info0
C:\Users\CYMR90~1\AppData\Local\Temp\ccioldvv.s:4058   .debug_macro:0000000000000000 .Ldebug_macro2
C:\Users\CYMR90~1\AppData\Local\Temp\ccioldvv.s:27088  .debug_str:00000000000180ec .LASF314
C:\Users\CYMR90~1\AppData\Local\Temp\ccioldvv.s:26846  .debug_str:0000000000017245 .LASF315
C:\Users\CYMR90~1\AppData\Local\Temp\ccioldvv.s:5005   .debug_macro:0000000000000000 .Ldebug_macro3
C:\Users\CYMR90~1\AppData\Local\Temp\ccioldvv.s:23271  .debug_str:0000000000008b3b .LASF369
C:\Users\CYMR90~1\AppData\Local\Temp\ccioldvv.s:22835  .debug_str:0000000000006da3 .LASF370
C:\Users\CYMR90~1\AppData\Local\Temp\ccioldvv.s:27086  .debug_str:00000000000180dd .LASF371
C:\Users\CYMR90~1\AppData\Local\Temp\ccioldvv.s:5169   .debug_macro:0000000000000000 .Ldebug_macro4
C:\Users\CYMR90~1\AppData\Local\Temp\ccioldvv.s:5189   .debug_macro:0000000000000000 .Ldebug_macro5
C:\Users\CYMR90~1\AppData\Local\Temp\ccioldvv.s:25747  .debug_str:0000000000012a75 .LASF390
C:\Users\CYMR90~1\AppData\Local\Temp\ccioldvv.s:5233   .debug_macro:0000000000000000 .Ldebug_macro6
C:\Users\CYMR90~1\AppData\Local\Temp\ccioldvv.s:5247   .debug_macro:0000000000000000 .Ldebug_macro7
C:\Users\CYMR90~1\AppData\Local\Temp\ccioldvv.s:5315   .debug_macro:0000000000000000 .Ldebug_macro8
C:\Users\CYMR90~1\AppData\Local\Temp\ccioldvv.s:5341   .debug_macro:0000000000000000 .Ldebug_macro9
C:\Users\CYMR90~1\AppData\Local\Temp\ccioldvv.s:5370   .debug_macro:0000000000000000 .Ldebug_macro10
C:\Users\CYMR90~1\AppData\Local\Temp\ccioldvv.s:27222  .debug_str:0000000000018919 .LASF433
C:\Users\CYMR90~1\AppData\Local\Temp\ccioldvv.s:5384   .debug_macro:0000000000000000 .Ldebug_macro11
C:\Users\CYMR90~1\AppData\Local\Temp\ccioldvv.s:5428   .debug_macro:0000000000000000 .Ldebug_macro12
C:\Users\CYMR90~1\AppData\Local\Temp\ccioldvv.s:5454   .debug_macro:0000000000000000 .Ldebug_macro13
C:\Users\CYMR90~1\AppData\Local\Temp\ccioldvv.s:30786  .debug_str:0000000000026c7e .LASF569
C:\Users\CYMR90~1\AppData\Local\Temp\ccioldvv.s:5825   .debug_macro:0000000000000000 .Ldebug_macro14
C:\Users\CYMR90~1\AppData\Local\Temp\ccioldvv.s:25261  .debug_str:0000000000010a23 .LASF572
C:\Users\CYMR90~1\AppData\Local\Temp\ccioldvv.s:30128  .debug_str:000000000002406e .LASF573
C:\Users\CYMR90~1\AppData\Local\Temp\ccioldvv.s:5836   .debug_macro:0000000000000000 .Ldebug_macro15
C:\Users\CYMR90~1\AppData\Local\Temp\ccioldvv.s:5850   .debug_macro:0000000000000000 .Ldebug_macro16
C:\Users\CYMR90~1\AppData\Local\Temp\ccioldvv.s:31934  .debug_str:000000000002b441 .LASF578
C:\Users\CYMR90~1\AppData\Local\Temp\ccioldvv.s:5882   .debug_macro:0000000000000000 .Ldebug_macro17
C:\Users\CYMR90~1\AppData\Local\Temp\ccioldvv.s:5908   .debug_macro:0000000000000000 .Ldebug_macro18
C:\Users\CYMR90~1\AppData\Local\Temp\ccioldvv.s:5919   .debug_macro:0000000000000000 .Ldebug_macro19
C:\Users\CYMR90~1\AppData\Local\Temp\ccioldvv.s:5963   .debug_macro:0000000000000000 .Ldebug_macro20
C:\Users\CYMR90~1\AppData\Local\Temp\ccioldvv.s:6133   .debug_macro:0000000000000000 .Ldebug_macro21
C:\Users\CYMR90~1\AppData\Local\Temp\ccioldvv.s:6144   .debug_macro:0000000000000000 .Ldebug_macro22
C:\Users\CYMR90~1\AppData\Local\Temp\ccioldvv.s:25753  .debug_str:0000000000012ad0 .LASF675
C:\Users\CYMR90~1\AppData\Local\Temp\ccioldvv.s:6200   .debug_macro:0000000000000000 .Ldebug_macro23
C:\Users\CYMR90~1\AppData\Local\Temp\ccioldvv.s:6217   .debug_macro:0000000000000000 .Ldebug_macro24
C:\Users\CYMR90~1\AppData\Local\Temp\ccioldvv.s:28940  .debug_str:000000000001f840 .LASF693
C:\Users\CYMR90~1\AppData\Local\Temp\ccioldvv.s:27092  .debug_str:0000000000018114 .LASF694
C:\Users\CYMR90~1\AppData\Local\Temp\ccioldvv.s:6261   .debug_macro:0000000000000000 .Ldebug_macro25
C:\Users\CYMR90~1\AppData\Local\Temp\ccioldvv.s:22289  .debug_str:0000000000004cd9 .LASF700
C:\Users\CYMR90~1\AppData\Local\Temp\ccioldvv.s:23409  .debug_str:00000000000093aa .LASF701
C:\Users\CYMR90~1\AppData\Local\Temp\ccioldvv.s:6281   .debug_macro:0000000000000000 .Ldebug_macro26
C:\Users\CYMR90~1\AppData\Local\Temp\ccioldvv.s:6292   .debug_macro:0000000000000000 .Ldebug_macro27
C:\Users\CYMR90~1\AppData\Local\Temp\ccioldvv.s:6336   .debug_macro:0000000000000000 .Ldebug_macro28
C:\Users\CYMR90~1\AppData\Local\Temp\ccioldvv.s:22655  .debug_str:000000000000626d .LASF749
C:\Users\CYMR90~1\AppData\Local\Temp\ccioldvv.s:6437   .debug_macro:0000000000000000 .Ldebug_macro29
C:\Users\CYMR90~1\AppData\Local\Temp\ccioldvv.s:6454   .debug_macro:0000000000000000 .Ldebug_macro30
C:\Users\CYMR90~1\AppData\Local\Temp\ccioldvv.s:21141  .debug_str:000000000000042a .LASF763
C:\Users\CYMR90~1\AppData\Local\Temp\ccioldvv.s:22467  .debug_str:0000000000005775 .LASF764
C:\Users\CYMR90~1\AppData\Local\Temp\ccioldvv.s:6486   .debug_macro:0000000000000000 .Ldebug_macro31
C:\Users\CYMR90~1\AppData\Local\Temp\ccioldvv.s:6500   .debug_macro:0000000000000000 .Ldebug_macro32
C:\Users\CYMR90~1\AppData\Local\Temp\ccioldvv.s:6670   .debug_macro:0000000000000000 .Ldebug_macro33
C:\Users\CYMR90~1\AppData\Local\Temp\ccioldvv.s:24917  .debug_str:000000000000f519 .LASF850
C:\Users\CYMR90~1\AppData\Local\Temp\ccioldvv.s:27308  .debug_str:0000000000018f39 .LASF851
C:\Users\CYMR90~1\AppData\Local\Temp\ccioldvv.s:6756   .debug_macro:0000000000000000 .Ldebug_macro34
C:\Users\CYMR90~1\AppData\Local\Temp\ccioldvv.s:6881   .debug_macro:0000000000000000 .Ldebug_macro35
C:\Users\CYMR90~1\AppData\Local\Temp\ccioldvv.s:21425  .debug_str:000000000000150d .LASF951
C:\Users\CYMR90~1\AppData\Local\Temp\ccioldvv.s:7093   .debug_macro:0000000000000000 .Ldebug_macro36
C:\Users\CYMR90~1\AppData\Local\Temp\ccioldvv.s:23159  .debug_str:0000000000008458 .LASF957
C:\Users\CYMR90~1\AppData\Local\Temp\ccioldvv.s:22711  .debug_str:00000000000065bb .LASF958
C:\Users\CYMR90~1\AppData\Local\Temp\ccioldvv.s:21597  .debug_str:0000000000001ff1 .LASF959
C:\Users\CYMR90~1\AppData\Local\Temp\ccioldvv.s:7113   .debug_macro:0000000000000000 .Ldebug_macro37
C:\Users\CYMR90~1\AppData\Local\Temp\ccioldvv.s:7205   .debug_macro:0000000000000000 .Ldebug_macro38
C:\Users\CYMR90~1\AppData\Local\Temp\ccioldvv.s:8851   .debug_macro:0000000000000000 .Ldebug_macro39
C:\Users\CYMR90~1\AppData\Local\Temp\ccioldvv.s:8943   .debug_macro:0000000000000000 .Ldebug_macro40
C:\Users\CYMR90~1\AppData\Local\Temp\ccioldvv.s:8999   .debug_macro:0000000000000000 .Ldebug_macro41
C:\Users\CYMR90~1\AppData\Local\Temp\ccioldvv.s:9013   .debug_macro:0000000000000000 .Ldebug_macro42
C:\Users\CYMR90~1\AppData\Local\Temp\ccioldvv.s:26627  .debug_str:0000000000016233 .LASF1655
C:\Users\CYMR90~1\AppData\Local\Temp\ccioldvv.s:23533  .debug_str:0000000000009bd1 .LASF1656
C:\Users\CYMR90~1\AppData\Local\Temp\ccioldvv.s:9237   .debug_macro:0000000000000000 .Ldebug_macro43
C:\Users\CYMR90~1\AppData\Local\Temp\ccioldvv.s:9284   .debug_macro:0000000000000000 .Ldebug_macro44
C:\Users\CYMR90~1\AppData\Local\Temp\ccioldvv.s:9439   .debug_macro:0000000000000000 .Ldebug_macro45
C:\Users\CYMR90~1\AppData\Local\Temp\ccioldvv.s:9495   .debug_macro:0000000000000000 .Ldebug_macro46
C:\Users\CYMR90~1\AppData\Local\Temp\ccioldvv.s:9506   .debug_macro:0000000000000000 .Ldebug_macro47
C:\Users\CYMR90~1\AppData\Local\Temp\ccioldvv.s:31576  .debug_str:0000000000029ef6 .LASF1782
C:\Users\CYMR90~1\AppData\Local\Temp\ccioldvv.s:26395  .debug_str:00000000000153e5 .LASF1783
C:\Users\CYMR90~1\AppData\Local\Temp\ccioldvv.s:9637   .debug_macro:0000000000000000 .Ldebug_macro48
C:\Users\CYMR90~1\AppData\Local\Temp\ccioldvv.s:10209  .debug_macro:0000000000000000 .Ldebug_macro49
C:\Users\CYMR90~1\AppData\Local\Temp\ccioldvv.s:10496  .debug_macro:0000000000000000 .Ldebug_macro50
C:\Users\CYMR90~1\AppData\Local\Temp\ccioldvv.s:10525  .debug_macro:0000000000000000 .Ldebug_macro51
C:\Users\CYMR90~1\AppData\Local\Temp\ccioldvv.s:10602  .debug_macro:0000000000000000 .Ldebug_macro52
C:\Users\CYMR90~1\AppData\Local\Temp\ccioldvv.s:11135  .debug_macro:0000000000000000 .Ldebug_macro53
C:\Users\CYMR90~1\AppData\Local\Temp\ccioldvv.s:11158  .debug_macro:0000000000000000 .Ldebug_macro54
C:\Users\CYMR90~1\AppData\Local\Temp\ccioldvv.s:11424  .debug_macro:0000000000000000 .Ldebug_macro55
C:\Users\CYMR90~1\AppData\Local\Temp\ccioldvv.s:11903  .debug_macro:0000000000000000 .Ldebug_macro56
C:\Users\CYMR90~1\AppData\Local\Temp\ccioldvv.s:12232  .debug_macro:0000000000000000 .Ldebug_macro57
C:\Users\CYMR90~1\AppData\Local\Temp\ccioldvv.s:12321  .debug_macro:0000000000000000 .Ldebug_macro58
C:\Users\CYMR90~1\AppData\Local\Temp\ccioldvv.s:13136  .debug_macro:0000000000000000 .Ldebug_macro59
C:\Users\CYMR90~1\AppData\Local\Temp\ccioldvv.s:13327  .debug_macro:0000000000000000 .Ldebug_macro60
C:\Users\CYMR90~1\AppData\Local\Temp\ccioldvv.s:13830  .debug_macro:0000000000000000 .Ldebug_macro61
C:\Users\CYMR90~1\AppData\Local\Temp\ccioldvv.s:13976  .debug_macro:0000000000000000 .Ldebug_macro62
C:\Users\CYMR90~1\AppData\Local\Temp\ccioldvv.s:14398  .debug_macro:0000000000000000 .Ldebug_macro63
C:\Users\CYMR90~1\AppData\Local\Temp\ccioldvv.s:17172  .debug_macro:0000000000000000 .Ldebug_macro64
C:\Users\CYMR90~1\AppData\Local\Temp\ccioldvv.s:18248  .debug_macro:0000000000000000 .Ldebug_macro65
C:\Users\CYMR90~1\AppData\Local\Temp\ccioldvv.s:18517  .debug_macro:0000000000000000 .Ldebug_macro66
C:\Users\CYMR90~1\AppData\Local\Temp\ccioldvv.s:18789  .debug_macro:0000000000000000 .Ldebug_macro67
C:\Users\CYMR90~1\AppData\Local\Temp\ccioldvv.s:19817  .debug_macro:0000000000000000 .Ldebug_macro68
C:\Users\CYMR90~1\AppData\Local\Temp\ccioldvv.s:19861  .debug_macro:0000000000000000 .Ldebug_macro69
C:\Users\CYMR90~1\AppData\Local\Temp\ccioldvv.s:20487  .debug_macro:0000000000000000 .Ldebug_macro70
C:\Users\CYMR90~1\AppData\Local\Temp\ccioldvv.s:20546  .debug_macro:0000000000000000 .Ldebug_macro71
C:\Users\CYMR90~1\AppData\Local\Temp\ccioldvv.s:22447  .debug_str:000000000000561e .LASF0
C:\Users\CYMR90~1\AppData\Local\Temp\ccioldvv.s:26826  .debug_str:0000000000017134 .LASF1
C:\Users\CYMR90~1\AppData\Local\Temp\ccioldvv.s:25087  .debug_str:000000000001000d .LASF2
C:\Users\CYMR90~1\AppData\Local\Temp\ccioldvv.s:25145  .debug_str:0000000000010366 .LASF3
C:\Users\CYMR90~1\AppData\Local\Temp\ccioldvv.s:26439  .debug_str:0000000000015639 .LASF4
C:\Users\CYMR90~1\AppData\Local\Temp\ccioldvv.s:31978  .debug_str:000000000002b73e .LASF5
C:\Users\CYMR90~1\AppData\Local\Temp\ccioldvv.s:22681  .debug_str:0000000000006415 .LASF6
C:\Users\CYMR90~1\AppData\Local\Temp\ccioldvv.s:31296  .debug_str:0000000000028da2 .LASF7
C:\Users\CYMR90~1\AppData\Local\Temp\ccioldvv.s:30242  .debug_str:0000000000024858 .LASF8
C:\Users\CYMR90~1\AppData\Local\Temp\ccioldvv.s:28158  .debug_str:000000000001c646 .LASF9
C:\Users\CYMR90~1\AppData\Local\Temp\ccioldvv.s:27506  .debug_str:0000000000019cb7 .LASF10
C:\Users\CYMR90~1\AppData\Local\Temp\ccioldvv.s:27364  .debug_str:000000000001933d .LASF11
C:\Users\CYMR90~1\AppData\Local\Temp\ccioldvv.s:31820  .debug_str:000000000002ad35 .LASF12
C:\Users\CYMR90~1\AppData\Local\Temp\ccioldvv.s:27376  .debug_str:00000000000193f1 .LASF13
C:\Users\CYMR90~1\AppData\Local\Temp\ccioldvv.s:23695  .debug_str:000000000000a628 .LASF14
C:\Users\CYMR90~1\AppData\Local\Temp\ccioldvv.s:28736  .debug_str:000000000001ec51 .LASF15
C:\Users\CYMR90~1\AppData\Local\Temp\ccioldvv.s:29484  .debug_str:00000000000219d4 .LASF16
C:\Users\CYMR90~1\AppData\Local\Temp\ccioldvv.s:23741  .debug_str:000000000000a8eb .LASF17
C:\Users\CYMR90~1\AppData\Local\Temp\ccioldvv.s:30526  .debug_str:0000000000025cc0 .LASF18
C:\Users\CYMR90~1\AppData\Local\Temp\ccioldvv.s:24699  .debug_str:000000000000e7f0 .LASF19
C:\Users\CYMR90~1\AppData\Local\Temp\ccioldvv.s:30334  .debug_str:0000000000024ebd .LASF20
C:\Users\CYMR90~1\AppData\Local\Temp\ccioldvv.s:27174  .debug_str:0000000000018641 .LASF21
C:\Users\CYMR90~1\AppData\Local\Temp\ccioldvv.s:27172  .debug_str:0000000000018627 .LASF22
C:\Users\CYMR90~1\AppData\Local\Temp\ccioldvv.s:29792  .debug_str:0000000000022cc2 .LASF23
C:\Users\CYMR90~1\AppData\Local\Temp\ccioldvv.s:25825  .debug_str:0000000000012f91 .LASF24
C:\Users\CYMR90~1\AppData\Local\Temp\ccioldvv.s:21989  .debug_str:00000000000038e3 .LASF25
C:\Users\CYMR90~1\AppData\Local\Temp\ccioldvv.s:26563  .debug_str:0000000000015e01 .LASF26
C:\Users\CYMR90~1\AppData\Local\Temp\ccioldvv.s:29796  .debug_str:0000000000022cf8 .LASF27
C:\Users\CYMR90~1\AppData\Local\Temp\ccioldvv.s:29492  .debug_str:0000000000021a31 .LASF28
C:\Users\CYMR90~1\AppData\Local\Temp\ccioldvv.s:22399  .debug_str:0000000000005360 .LASF29
C:\Users\CYMR90~1\AppData\Local\Temp\ccioldvv.s:28512  .debug_str:000000000001deb4 .LASF30
C:\Users\CYMR90~1\AppData\Local\Temp\ccioldvv.s:21371  .debug_str:0000000000001212 .LASF31
C:\Users\CYMR90~1\AppData\Local\Temp\ccioldvv.s:28974  .debug_str:000000000001fa38 .LASF32
C:\Users\CYMR90~1\AppData\Local\Temp\ccioldvv.s:23573  .debug_str:0000000000009e34 .LASF33
C:\Users\CYMR90~1\AppData\Local\Temp\ccioldvv.s:23425  .debug_str:0000000000009495 .LASF34
C:\Users\CYMR90~1\AppData\Local\Temp\ccioldvv.s:24729  .debug_str:000000000000e9d4 .LASF35
C:\Users\CYMR90~1\AppData\Local\Temp\ccioldvv.s:27618  .debug_str:000000000001a337 .LASF36
C:\Users\CYMR90~1\AppData\Local\Temp\ccioldvv.s:22929  .debug_str:000000000000742c .LASF37
C:\Users\CYMR90~1\AppData\Local\Temp\ccioldvv.s:25085  .debug_str:000000000000ffea .LASF38
C:\Users\CYMR90~1\AppData\Local\Temp\ccioldvv.s:21957  .debug_str:0000000000003693 .LASF39
C:\Users\CYMR90~1\AppData\Local\Temp\ccioldvv.s:21759  .debug_str:00000000000029ba .LASF40
C:\Users\CYMR90~1\AppData\Local\Temp\ccioldvv.s:25249  .debug_str:0000000000010981 .LASF41
C:\Users\CYMR90~1\AppData\Local\Temp\ccioldvv.s:25685  .debug_str:0000000000012647 .LASF42
C:\Users\CYMR90~1\AppData\Local\Temp\ccioldvv.s:25953  .debug_str:000000000001388f .LASF43
C:\Users\CYMR90~1\AppData\Local\Temp\ccioldvv.s:27608  .debug_str:000000000001a2a5 .LASF44
C:\Users\CYMR90~1\AppData\Local\Temp\ccioldvv.s:25543  .debug_str:0000000000011d32 .LASF45
C:\Users\CYMR90~1\AppData\Local\Temp\ccioldvv.s:22223  .debug_str:0000000000004833 .LASF46
C:\Users\CYMR90~1\AppData\Local\Temp\ccioldvv.s:28518  .debug_str:000000000001df19 .LASF47
C:\Users\CYMR90~1\AppData\Local\Temp\ccioldvv.s:30244  .debug_str:000000000002486d .LASF48
C:\Users\CYMR90~1\AppData\Local\Temp\ccioldvv.s:24477  .debug_str:000000000000da7d .LASF49
C:\Users\CYMR90~1\AppData\Local\Temp\ccioldvv.s:21593  .debug_str:0000000000001fbe .LASF50
C:\Users\CYMR90~1\AppData\Local\Temp\ccioldvv.s:21095  .debug_str:0000000000000148 .LASF51
C:\Users\CYMR90~1\AppData\Local\Temp\ccioldvv.s:31588  .debug_str:0000000000029f8b .LASF52
C:\Users\CYMR90~1\AppData\Local\Temp\ccioldvv.s:24291  .debug_str:000000000000ce53 .LASF53
C:\Users\CYMR90~1\AppData\Local\Temp\ccioldvv.s:26029  .debug_str:0000000000013d11 .LASF54
C:\Users\CYMR90~1\AppData\Local\Temp\ccioldvv.s:25051  .debug_str:000000000000fd95 .LASF55
C:\Users\CYMR90~1\AppData\Local\Temp\ccioldvv.s:23021  .debug_str:0000000000007a02 .LASF56
C:\Users\CYMR90~1\AppData\Local\Temp\ccioldvv.s:26417  .debug_str:00000000000154fc .LASF57
C:\Users\CYMR90~1\AppData\Local\Temp\ccioldvv.s:21325  .debug_str:0000000000000f91 .LASF58
C:\Users\CYMR90~1\AppData\Local\Temp\ccioldvv.s:30530  .debug_str:0000000000025d00 .LASF59
C:\Users\CYMR90~1\AppData\Local\Temp\ccioldvv.s:25961  .debug_str:00000000000138ea .LASF60
C:\Users\CYMR90~1\AppData\Local\Temp\ccioldvv.s:27894  .debug_str:000000000001b65d .LASF61
C:\Users\CYMR90~1\AppData\Local\Temp\ccioldvv.s:21823  .debug_str:0000000000002dff .LASF62
C:\Users\CYMR90~1\AppData\Local\Temp\ccioldvv.s:24471  .debug_str:000000000000da39 .LASF63
C:\Users\CYMR90~1\AppData\Local\Temp\ccioldvv.s:24209  .debug_str:000000000000c8b3 .LASF64
C:\Users\CYMR90~1\AppData\Local\Temp\ccioldvv.s:27594  .debug_str:000000000001a1dc .LASF65
C:\Users\CYMR90~1\AppData\Local\Temp\ccioldvv.s:26251  .debug_str:0000000000014a53 .LASF66
C:\Users\CYMR90~1\AppData\Local\Temp\ccioldvv.s:31370  .debug_str:0000000000029212 .LASF67
C:\Users\CYMR90~1\AppData\Local\Temp\ccioldvv.s:31822  .debug_str:000000000002ad48 .LASF68
C:\Users\CYMR90~1\AppData\Local\Temp\ccioldvv.s:25497  .debug_str:00000000000119f5 .LASF69
C:\Users\CYMR90~1\AppData\Local\Temp\ccioldvv.s:24625  .debug_str:000000000000e33b .LASF70
C:\Users\CYMR90~1\AppData\Local\Temp\ccioldvv.s:22235  .debug_str:0000000000004986 .LASF71
C:\Users\CYMR90~1\AppData\Local\Temp\ccioldvv.s:25531  .debug_str:0000000000011c6f .LASF72
C:\Users\CYMR90~1\AppData\Local\Temp\ccioldvv.s:25153  .debug_str:00000000000103d7 .LASF73
C:\Users\CYMR90~1\AppData\Local\Temp\ccioldvv.s:25765  .debug_str:0000000000012bc1 .LASF74
C:\Users\CYMR90~1\AppData\Local\Temp\ccioldvv.s:25603  .debug_str:0000000000012103 .LASF75
C:\Users\CYMR90~1\AppData\Local\Temp\ccioldvv.s:25705  .debug_str:000000000001279e .LASF76
C:\Users\CYMR90~1\AppData\Local\Temp\ccioldvv.s:30162  .debug_str:000000000002430e .LASF77
C:\Users\CYMR90~1\AppData\Local\Temp\ccioldvv.s:28084  .debug_str:000000000001c213 .LASF78
C:\Users\CYMR90~1\AppData\Local\Temp\ccioldvv.s:28482  .debug_str:000000000001dc80 .LASF79
C:\Users\CYMR90~1\AppData\Local\Temp\ccioldvv.s:31348  .debug_str:00000000000290ac .LASF80
C:\Users\CYMR90~1\AppData\Local\Temp\ccioldvv.s:23525  .debug_str:0000000000009b3d .LASF81
C:\Users\CYMR90~1\AppData\Local\Temp\ccioldvv.s:23727  .debug_str:000000000000a7bf .LASF82
C:\Users\CYMR90~1\AppData\Local\Temp\ccioldvv.s:31480  .debug_str:0000000000029964 .LASF83
C:\Users\CYMR90~1\AppData\Local\Temp\ccioldvv.s:23463  .debug_str:000000000000971d .LASF84
C:\Users\CYMR90~1\AppData\Local\Temp\ccioldvv.s:22749  .debug_str:0000000000006827 .LASF85
C:\Users\CYMR90~1\AppData\Local\Temp\ccioldvv.s:27798  .debug_str:000000000001b02f .LASF86
C:\Users\CYMR90~1\AppData\Local\Temp\ccioldvv.s:31510  .debug_str:0000000000029aee .LASF87
C:\Users\CYMR90~1\AppData\Local\Temp\ccioldvv.s:28914  .debug_str:000000000001f6b2 .LASF88
C:\Users\CYMR90~1\AppData\Local\Temp\ccioldvv.s:27714  .debug_str:000000000001aad8 .LASF89
C:\Users\CYMR90~1\AppData\Local\Temp\ccioldvv.s:28944  .debug_str:000000000001f873 .LASF90
C:\Users\CYMR90~1\AppData\Local\Temp\ccioldvv.s:31724  .debug_str:000000000002a774 .LASF91
C:\Users\CYMR90~1\AppData\Local\Temp\ccioldvv.s:30538  .debug_str:0000000000025d78 .LASF92
C:\Users\CYMR90~1\AppData\Local\Temp\ccioldvv.s:23601  .debug_str:000000000000a00f .LASF93
C:\Users\CYMR90~1\AppData\Local\Temp\ccioldvv.s:28364  .debug_str:000000000001d507 .LASF94
C:\Users\CYMR90~1\AppData\Local\Temp\ccioldvv.s:25989  .debug_str:0000000000013aa3 .LASF95
C:\Users\CYMR90~1\AppData\Local\Temp\ccioldvv.s:25973  .debug_str:00000000000139b3 .LASF96
C:\Users\CYMR90~1\AppData\Local\Temp\ccioldvv.s:32026  .debug_str:000000000002ba5c .LASF97
C:\Users\CYMR90~1\AppData\Local\Temp\ccioldvv.s:25619  .debug_str:000000000001223d .LASF98
C:\Users\CYMR90~1\AppData\Local\Temp\ccioldvv.s:29510  .debug_str:0000000000021b55 .LASF99
C:\Users\CYMR90~1\AppData\Local\Temp\ccioldvv.s:22963  .debug_str:000000000000763b .LASF100
C:\Users\CYMR90~1\AppData\Local\Temp\ccioldvv.s:25099  .debug_str:0000000000010098 .LASF101
C:\Users\CYMR90~1\AppData\Local\Temp\ccioldvv.s:26479  .debug_str:0000000000015870 .LASF102
C:\Users\CYMR90~1\AppData\Local\Temp\ccioldvv.s:25379  .debug_str:00000000000111c0 .LASF103
C:\Users\CYMR90~1\AppData\Local\Temp\ccioldvv.s:24387  .debug_str:000000000000d49a .LASF104
C:\Users\CYMR90~1\AppData\Local\Temp\ccioldvv.s:25553  .debug_str:0000000000011dc9 .LASF105
C:\Users\CYMR90~1\AppData\Local\Temp\ccioldvv.s:28184  .debug_str:000000000001c7df .LASF106
C:\Users\CYMR90~1\AppData\Local\Temp\ccioldvv.s:25373  .debug_str:000000000001115b .LASF107
C:\Users\CYMR90~1\AppData\Local\Temp\ccioldvv.s:24383  .debug_str:000000000000d476 .LASF108
C:\Users\CYMR90~1\AppData\Local\Temp\ccioldvv.s:25819  .debug_str:0000000000012f2a .LASF109
C:\Users\CYMR90~1\AppData\Local\Temp\ccioldvv.s:24753  .debug_str:000000000000eb6e .LASF110
C:\Users\CYMR90~1\AppData\Local\Temp\ccioldvv.s:27228  .debug_str:0000000000018959 .LASF111
C:\Users\CYMR90~1\AppData\Local\Temp\ccioldvv.s:23865  .debug_str:000000000000b22c .LASF112
C:\Users\CYMR90~1\AppData\Local\Temp\ccioldvv.s:23599  .debug_str:0000000000009fe6 .LASF113
C:\Users\CYMR90~1\AppData\Local\Temp\ccioldvv.s:26511  .debug_str:0000000000015a70 .LASF114
C:\Users\CYMR90~1\AppData\Local\Temp\ccioldvv.s:29012  .debug_str:000000000001fcb3 .LASF115
C:\Users\CYMR90~1\AppData\Local\Temp\ccioldvv.s:30046  .debug_str:0000000000023bb7 .LASF116
C:\Users\CYMR90~1\AppData\Local\Temp\ccioldvv.s:23357  .debug_str:00000000000090a5 .LASF117
C:\Users\CYMR90~1\AppData\Local\Temp\ccioldvv.s:27950  .debug_str:000000000001b9d8 .LASF118
C:\Users\CYMR90~1\AppData\Local\Temp\ccioldvv.s:32128  .debug_str:000000000002c160 .LASF119
C:\Users\CYMR90~1\AppData\Local\Temp\ccioldvv.s:24669  .debug_str:000000000000e5c2 .LASF120
C:\Users\CYMR90~1\AppData\Local\Temp\ccioldvv.s:30144  .debug_str:000000000002413d .LASF121
C:\Users\CYMR90~1\AppData\Local\Temp\ccioldvv.s:24171  .debug_str:000000000000c64c .LASF122
C:\Users\CYMR90~1\AppData\Local\Temp\ccioldvv.s:24279  .debug_str:000000000000cdd1 .LASF123
C:\Users\CYMR90~1\AppData\Local\Temp\ccioldvv.s:21927  .debug_str:00000000000034ca .LASF124
C:\Users\CYMR90~1\AppData\Local\Temp\ccioldvv.s:22199  .debug_str:000000000000467e .LASF125
C:\Users\CYMR90~1\AppData\Local\Temp\ccioldvv.s:31086  .debug_str:0000000000027f64 .LASF126
C:\Users\CYMR90~1\AppData\Local\Temp\ccioldvv.s:25559  .debug_str:0000000000011e07 .LASF127
C:\Users\CYMR90~1\AppData\Local\Temp\ccioldvv.s:28340  .debug_str:000000000001d3a9 .LASF128
C:\Users\CYMR90~1\AppData\Local\Temp\ccioldvv.s:23433  .debug_str:000000000000950d .LASF129
C:\Users\CYMR90~1\AppData\Local\Temp\ccioldvv.s:30646  .debug_str:00000000000263f3 .LASF130
C:\Users\CYMR90~1\AppData\Local\Temp\ccioldvv.s:30962  .debug_str:0000000000027790 .LASF131
C:\Users\CYMR90~1\AppData\Local\Temp\ccioldvv.s:30766  .debug_str:0000000000026b23 .LASF132
C:\Users\CYMR90~1\AppData\Local\Temp\ccioldvv.s:24647  .debug_str:000000000000e46a .LASF133
C:\Users\CYMR90~1\AppData\Local\Temp\ccioldvv.s:30064  .debug_str:0000000000023cc7 .LASF134
C:\Users\CYMR90~1\AppData\Local\Temp\ccioldvv.s:22193  .debug_str:0000000000004617 .LASF135
C:\Users\CYMR90~1\AppData\Local\Temp\ccioldvv.s:23067  .debug_str:0000000000007d04 .LASF136
C:\Users\CYMR90~1\AppData\Local\Temp\ccioldvv.s:31814  .debug_str:000000000002acde .LASF137
C:\Users\CYMR90~1\AppData\Local\Temp\ccioldvv.s:29900  .debug_str:000000000002327c .LASF138
C:\Users\CYMR90~1\AppData\Local\Temp\ccioldvv.s:31294  .debug_str:0000000000028d92 .LASF139
C:\Users\CYMR90~1\AppData\Local\Temp\ccioldvv.s:30420  .debug_str:00000000000254fa .LASF140
C:\Users\CYMR90~1\AppData\Local\Temp\ccioldvv.s:28042  .debug_str:000000000001bf69 .LASF141
C:\Users\CYMR90~1\AppData\Local\Temp\ccioldvv.s:23563  .debug_str:0000000000009d93 .LASF142
C:\Users\CYMR90~1\AppData\Local\Temp\ccioldvv.s:31888  .debug_str:000000000002b127 .LASF143
C:\Users\CYMR90~1\AppData\Local\Temp\ccioldvv.s:27198  .debug_str:00000000000187a4 .LASF144
C:\Users\CYMR90~1\AppData\Local\Temp\ccioldvv.s:26263  .debug_str:0000000000014b38 .LASF145
C:\Users\CYMR90~1\AppData\Local\Temp\ccioldvv.s:24243  .debug_str:000000000000cb8f .LASF146
C:\Users\CYMR90~1\AppData\Local\Temp\ccioldvv.s:22233  .debug_str:000000000000496f .LASF147
C:\Users\CYMR90~1\AppData\Local\Temp\ccioldvv.s:24795  .debug_str:000000000000ede4 .LASF148
C:\Users\CYMR90~1\AppData\Local\Temp\ccioldvv.s:27176  .debug_str:0000000000018655 .LASF149
C:\Users\CYMR90~1\AppData\Local\Temp\ccioldvv.s:21169  .debug_str:000000000000059a .LASF150
C:\Users\CYMR90~1\AppData\Local\Temp\ccioldvv.s:32362  .debug_str:000000000002d08a .LASF151
C:\Users\CYMR90~1\AppData\Local\Temp\ccioldvv.s:25809  .debug_str:0000000000012e76 .LASF152
C:\Users\CYMR90~1\AppData\Local\Temp\ccioldvv.s:30426  .debug_str:000000000002554d .LASF153
C:\Users\CYMR90~1\AppData\Local\Temp\ccioldvv.s:28244  .debug_str:000000000001cc37 .LASF154
C:\Users\CYMR90~1\AppData\Local\Temp\ccioldvv.s:25209  .debug_str:0000000000010751 .LASF155
C:\Users\CYMR90~1\AppData\Local\Temp\ccioldvv.s:28256  .debug_str:000000000001cd1d .LASF156
C:\Users\CYMR90~1\AppData\Local\Temp\ccioldvv.s:28370  .debug_str:000000000001d56f .LASF157
C:\Users\CYMR90~1\AppData\Local\Temp\ccioldvv.s:24097  .debug_str:000000000000c1d3 .LASF158
C:\Users\CYMR90~1\AppData\Local\Temp\ccioldvv.s:23163  .debug_str:000000000000847a .LASF159
C:\Users\CYMR90~1\AppData\Local\Temp\ccioldvv.s:27900  .debug_str:000000000001b6b1 .LASF160
C:\Users\CYMR90~1\AppData\Local\Temp\ccioldvv.s:29320  .debug_str:0000000000020f83 .LASF161
C:\Users\CYMR90~1\AppData\Local\Temp\ccioldvv.s:27498  .debug_str:0000000000019c25 .LASF162
C:\Users\CYMR90~1\AppData\Local\Temp\ccioldvv.s:30054  .debug_str:0000000000023c29 .LASF163
C:\Users\CYMR90~1\AppData\Local\Temp\ccioldvv.s:31710  .debug_str:000000000002a6a8 .LASF164
C:\Users\CYMR90~1\AppData\Local\Temp\ccioldvv.s:22919  .debug_str:00000000000073a8 .LASF165
C:\Users\CYMR90~1\AppData\Local\Temp\ccioldvv.s:31398  .debug_str:00000000000293d5 .LASF166
C:\Users\CYMR90~1\AppData\Local\Temp\ccioldvv.s:31216  .debug_str:00000000000288d3 .LASF167
C:\Users\CYMR90~1\AppData\Local\Temp\ccioldvv.s:29970  .debug_str:00000000000236c6 .LASF168
C:\Users\CYMR90~1\AppData\Local\Temp\ccioldvv.s:26964  .debug_str:000000000001794d .LASF169
C:\Users\CYMR90~1\AppData\Local\Temp\ccioldvv.s:30828  .debug_str:0000000000026ed2 .LASF170
C:\Users\CYMR90~1\AppData\Local\Temp\ccioldvv.s:26591  .debug_str:0000000000015fba .LASF171
C:\Users\CYMR90~1\AppData\Local\Temp\ccioldvv.s:28164  .debug_str:000000000001c6a5 .LASF172
C:\Users\CYMR90~1\AppData\Local\Temp\ccioldvv.s:23555  .debug_str:0000000000009d1f .LASF173
C:\Users\CYMR90~1\AppData\Local\Temp\ccioldvv.s:29860  .debug_str:00000000000230a6 .LASF174
C:\Users\CYMR90~1\AppData\Local\Temp\ccioldvv.s:22573  .debug_str:0000000000005da3 .LASF175
C:\Users\CYMR90~1\AppData\Local\Temp\ccioldvv.s:23401  .debug_str:0000000000009341 .LASF176
C:\Users\CYMR90~1\AppData\Local\Temp\ccioldvv.s:22069  .debug_str:0000000000003dd9 .LASF177
C:\Users\CYMR90~1\AppData\Local\Temp\ccioldvv.s:27372  .debug_str:00000000000193af .LASF178
C:\Users\CYMR90~1\AppData\Local\Temp\ccioldvv.s:24329  .debug_str:000000000000d0d1 .LASF179
C:\Users\CYMR90~1\AppData\Local\Temp\ccioldvv.s:21587  .debug_str:0000000000001f52 .LASF180
C:\Users\CYMR90~1\AppData\Local\Temp\ccioldvv.s:32022  .debug_str:000000000002ba31 .LASF181
C:\Users\CYMR90~1\AppData\Local\Temp\ccioldvv.s:21357  .debug_str:000000000000116f .LASF182
C:\Users\CYMR90~1\AppData\Local\Temp\ccioldvv.s:25927  .debug_str:00000000000136c5 .LASF183
C:\Users\CYMR90~1\AppData\Local\Temp\ccioldvv.s:26329  .debug_str:0000000000014f97 .LASF184
C:\Users\CYMR90~1\AppData\Local\Temp\ccioldvv.s:31226  .debug_str:0000000000028982 .LASF185
C:\Users\CYMR90~1\AppData\Local\Temp\ccioldvv.s:24425  .debug_str:000000000000d7b9 .LASF186
C:\Users\CYMR90~1\AppData\Local\Temp\ccioldvv.s:22903  .debug_str:0000000000007247 .LASF187
C:\Users\CYMR90~1\AppData\Local\Temp\ccioldvv.s:28894  .debug_str:000000000001f5bd .LASF188
C:\Users\CYMR90~1\AppData\Local\Temp\ccioldvv.s:24689  .debug_str:000000000000e774 .LASF189
C:\Users\CYMR90~1\AppData\Local\Temp\ccioldvv.s:26035  .debug_str:0000000000013d70 .LASF190
C:\Users\CYMR90~1\AppData\Local\Temp\ccioldvv.s:29378  .debug_str:00000000000212a7 .LASF191
C:\Users\CYMR90~1\AppData\Local\Temp\ccioldvv.s:26751  .debug_str:0000000000016a5b .LASF192
C:\Users\CYMR90~1\AppData\Local\Temp\ccioldvv.s:29606  .debug_str:000000000002213e .LASF193
C:\Users\CYMR90~1\AppData\Local\Temp\ccioldvv.s:22529  .debug_str:0000000000005b4e .LASF194
C:\Users\CYMR90~1\AppData\Local\Temp\ccioldvv.s:21897  .debug_str:00000000000032be .LASF195
C:\Users\CYMR90~1\AppData\Local\Temp\ccioldvv.s:24521  .debug_str:000000000000dce4 .LASF196
C:\Users\CYMR90~1\AppData\Local\Temp\ccioldvv.s:25439  .debug_str:0000000000011565 .LASF197
C:\Users\CYMR90~1\AppData\Local\Temp\ccioldvv.s:22383  .debug_str:0000000000005255 .LASF198
C:\Users\CYMR90~1\AppData\Local\Temp\ccioldvv.s:31116  .debug_str:0000000000028185 .LASF199
C:\Users\CYMR90~1\AppData\Local\Temp\ccioldvv.s:29262  .debug_str:0000000000020bf3 .LASF200
C:\Users\CYMR90~1\AppData\Local\Temp\ccioldvv.s:28378  .debug_str:000000000001d5cd .LASF201
C:\Users\CYMR90~1\AppData\Local\Temp\ccioldvv.s:23529  .debug_str:0000000000009b70 .LASF202
C:\Users\CYMR90~1\AppData\Local\Temp\ccioldvv.s:31568  .debug_str:0000000000029e65 .LASF203
C:\Users\CYMR90~1\AppData\Local\Temp\ccioldvv.s:21909  .debug_str:000000000000338f .LASF204
C:\Users\CYMR90~1\AppData\Local\Temp\ccioldvv.s:24923  .debug_str:000000000000f573 .LASF205
C:\Users\CYMR90~1\AppData\Local\Temp\ccioldvv.s:31304  .debug_str:0000000000028e03 .LASF206
C:\Users\CYMR90~1\AppData\Local\Temp\ccioldvv.s:26153  .debug_str:00000000000144b8 .LASF207
C:\Users\CYMR90~1\AppData\Local\Temp\ccioldvv.s:28932  .debug_str:000000000001f7d1 .LASF208
C:\Users\CYMR90~1\AppData\Local\Temp\ccioldvv.s:24165  .debug_str:000000000000c5fb .LASF209
C:\Users\CYMR90~1\AppData\Local\Temp\ccioldvv.s:32224  .debug_str:000000000002c76d .LASF210
C:\Users\CYMR90~1\AppData\Local\Temp\ccioldvv.s:26123  .debug_str:00000000000142f3 .LASF211
C:\Users\CYMR90~1\AppData\Local\Temp\ccioldvv.s:28776  .debug_str:000000000001ee91 .LASF212
C:\Users\CYMR90~1\AppData\Local\Temp\ccioldvv.s:27392  .debug_str:00000000000194dd .LASF213
C:\Users\CYMR90~1\AppData\Local\Temp\ccioldvv.s:22617  .debug_str:000000000000602b .LASF214
C:\Users\CYMR90~1\AppData\Local\Temp\ccioldvv.s:26131  .debug_str:0000000000014363 .LASF215
C:\Users\CYMR90~1\AppData\Local\Temp\ccioldvv.s:28080  .debug_str:000000000001c1c3 .LASF216
C:\Users\CYMR90~1\AppData\Local\Temp\ccioldvv.s:29042  .debug_str:000000000001fe44 .LASF217
C:\Users\CYMR90~1\AppData\Local\Temp\ccioldvv.s:25003  .debug_str:000000000000fa98 .LASF218
C:\Users\CYMR90~1\AppData\Local\Temp\ccioldvv.s:30428  .debug_str:0000000000025589 .LASF219
C:\Users\CYMR90~1\AppData\Local\Temp\ccioldvv.s:30236  .debug_str:00000000000247ff .LASF220
C:\Users\CYMR90~1\AppData\Local\Temp\ccioldvv.s:29752  .debug_str:00000000000229f2 .LASF221
C:\Users\CYMR90~1\AppData\Local\Temp\ccioldvv.s:26403  .debug_str:0000000000015443 .LASF222
C:\Users\CYMR90~1\AppData\Local\Temp\ccioldvv.s:22585  .debug_str:0000000000005e4a .LASF223
C:\Users\CYMR90~1\AppData\Local\Temp\ccioldvv.s:23263  .debug_str:0000000000008ab2 .LASF224
C:\Users\CYMR90~1\AppData\Local\Temp\ccioldvv.s:31896  .debug_str:000000000002b194 .LASF225
C:\Users\CYMR90~1\AppData\Local\Temp\ccioldvv.s:24591  .debug_str:000000000000e13f .LASF226
C:\Users\CYMR90~1\AppData\Local\Temp\ccioldvv.s:28240  .debug_str:000000000001cc09 .LASF227
C:\Users\CYMR90~1\AppData\Local\Temp\ccioldvv.s:28090  .debug_str:000000000001c269 .LASF228
C:\Users\CYMR90~1\AppData\Local\Temp\ccioldvv.s:24535  .debug_str:000000000000dda9 .LASF229
C:\Users\CYMR90~1\AppData\Local\Temp\ccioldvv.s:28816  .debug_str:000000000001f0e6 .LASF230
C:\Users\CYMR90~1\AppData\Local\Temp\ccioldvv.s:23317  .debug_str:0000000000008e2d .LASF231
C:\Users\CYMR90~1\AppData\Local\Temp\ccioldvv.s:24681  .debug_str:000000000000e685 .LASF232
C:\Users\CYMR90~1\AppData\Local\Temp\ccioldvv.s:23215  .debug_str:000000000000877f .LASF233
C:\Users\CYMR90~1\AppData\Local\Temp\ccioldvv.s:25201  .debug_str:00000000000106ce .LASF234
C:\Users\CYMR90~1\AppData\Local\Temp\ccioldvv.s:24919  .debug_str:000000000000f52b .LASF235
C:\Users\CYMR90~1\AppData\Local\Temp\ccioldvv.s:29978  .debug_str:0000000000023772 .LASF236
C:\Users\CYMR90~1\AppData\Local\Temp\ccioldvv.s:32338  .debug_str:000000000002cf46 .LASF237
C:\Users\CYMR90~1\AppData\Local\Temp\ccioldvv.s:30642  .debug_str:00000000000263b7 .LASF238
C:\Users\CYMR90~1\AppData\Local\Temp\ccioldvv.s:29962  .debug_str:0000000000023647 .LASF239
C:\Users\CYMR90~1\AppData\Local\Temp\ccioldvv.s:30202  .debug_str:00000000000245ed .LASF240
C:\Users\CYMR90~1\AppData\Local\Temp\ccioldvv.s:23035  .debug_str:0000000000007b26 .LASF241
C:\Users\CYMR90~1\AppData\Local\Temp\ccioldvv.s:24611  .debug_str:000000000000e25a .LASF242
C:\Users\CYMR90~1\AppData\Local\Temp\ccioldvv.s:25599  .debug_str:000000000001209b .LASF243
C:\Users\CYMR90~1\AppData\Local\Temp\ccioldvv.s:29990  .debug_str:000000000002381c .LASF244
C:\Users\CYMR90~1\AppData\Local\Temp\ccioldvv.s:25793  .debug_str:0000000000012d56 .LASF245
C:\Users\CYMR90~1\AppData\Local\Temp\ccioldvv.s:28826  .debug_str:000000000001f1a7 .LASF246
C:\Users\CYMR90~1\AppData\Local\Temp\ccioldvv.s:27160  .debug_str:0000000000018534 .LASF247
C:\Users\CYMR90~1\AppData\Local\Temp\ccioldvv.s:26679  .debug_str:0000000000016529 .LASF248
C:\Users\CYMR90~1\AppData\Local\Temp\ccioldvv.s:28180  .debug_str:000000000001c7af .LASF249
C:\Users\CYMR90~1\AppData\Local\Temp\ccioldvv.s:27556  .debug_str:0000000000019f9a .LASF250
C:\Users\CYMR90~1\AppData\Local\Temp\ccioldvv.s:28110  .debug_str:000000000001c39e .LASF251
C:\Users\CYMR90~1\AppData\Local\Temp\ccioldvv.s:29804  .debug_str:0000000000022d7d .LASF252
C:\Users\CYMR90~1\AppData\Local\Temp\ccioldvv.s:24505  .debug_str:000000000000dc1f .LASF253
C:\Users\CYMR90~1\AppData\Local\Temp\ccioldvv.s:30500  .debug_str:0000000000025b18 .LASF254
C:\Users\CYMR90~1\AppData\Local\Temp\ccioldvv.s:24369  .debug_str:000000000000d36c .LASF255
C:\Users\CYMR90~1\AppData\Local\Temp\ccioldvv.s:27464  .debug_str:00000000000199eb .LASF256
C:\Users\CYMR90~1\AppData\Local\Temp\ccioldvv.s:24607  .debug_str:000000000000e228 .LASF257
C:\Users\CYMR90~1\AppData\Local\Temp\ccioldvv.s:28762  .debug_str:000000000001ed9e .LASF258
C:\Users\CYMR90~1\AppData\Local\Temp\ccioldvv.s:23825  .debug_str:000000000000aee0 .LASF259
C:\Users\CYMR90~1\AppData\Local\Temp\ccioldvv.s:21247  .debug_str:0000000000000a5e .LASF260
C:\Users\CYMR90~1\AppData\Local\Temp\ccioldvv.s:31630  .debug_str:000000000002a1e7 .LASF261
C:\Users\CYMR90~1\AppData\Local\Temp\ccioldvv.s:31098  .debug_str:000000000002800a .LASF262
C:\Users\CYMR90~1\AppData\Local\Temp\ccioldvv.s:26103  .debug_str:0000000000014167 .LASF263
C:\Users\CYMR90~1\AppData\Local\Temp\ccioldvv.s:28064  .debug_str:000000000001c0d6 .LASF264
C:\Users\CYMR90~1\AppData\Local\Temp\ccioldvv.s:25055  .debug_str:000000000000fddc .LASF265
C:\Users\CYMR90~1\AppData\Local\Temp\ccioldvv.s:24537  .debug_str:000000000000ddea .LASF266
C:\Users\CYMR90~1\AppData\Local\Temp\ccioldvv.s:23877  .debug_str:000000000000b2f1 .LASF267
C:\Users\CYMR90~1\AppData\Local\Temp\ccioldvv.s:28168  .debug_str:000000000001c6cc .LASF268
C:\Users\CYMR90~1\AppData\Local\Temp\ccioldvv.s:24189  .debug_str:000000000000c78e .LASF269
C:\Users\CYMR90~1\AppData\Local\Temp\ccioldvv.s:25117  .debug_str:00000000000101cc .LASF270
C:\Users\CYMR90~1\AppData\Local\Temp\ccioldvv.s:26375  .debug_str:0000000000015279 .LASF271
C:\Users\CYMR90~1\AppData\Local\Temp\ccioldvv.s:30748  .debug_str:0000000000026a29 .LASF272
C:\Users\CYMR90~1\AppData\Local\Temp\ccioldvv.s:22793  .debug_str:0000000000006ac6 .LASF273
C:\Users\CYMR90~1\AppData\Local\Temp\ccioldvv.s:21707  .debug_str:0000000000002615 .LASF274
C:\Users\CYMR90~1\AppData\Local\Temp\ccioldvv.s:22887  .debug_str:0000000000007130 .LASF275
C:\Users\CYMR90~1\AppData\Local\Temp\ccioldvv.s:24251  .debug_str:000000000000cbf2 .LASF276
C:\Users\CYMR90~1\AppData\Local\Temp\ccioldvv.s:24081  .debug_str:000000000000c0cc .LASF277
C:\Users\CYMR90~1\AppData\Local\Temp\ccioldvv.s:21381  .debug_str:0000000000001286 .LASF278
C:\Users\CYMR90~1\AppData\Local\Temp\ccioldvv.s:22715  .debug_str:00000000000065e5 .LASF279
C:\Users\CYMR90~1\AppData\Local\Temp\ccioldvv.s:31420  .debug_str:0000000000029595 .LASF280
C:\Users\CYMR90~1\AppData\Local\Temp\ccioldvv.s:23577  .debug_str:0000000000009e6c .LASF281
C:\Users\CYMR90~1\AppData\Local\Temp\ccioldvv.s:22677  .debug_str:00000000000063d8 .LASF282
C:\Users\CYMR90~1\AppData\Local\Temp\ccioldvv.s:22577  .debug_str:0000000000005dd3 .LASF283
C:\Users\CYMR90~1\AppData\Local\Temp\ccioldvv.s:22339  .debug_str:0000000000004fd9 .LASF284
C:\Users\CYMR90~1\AppData\Local\Temp\ccioldvv.s:30302  .debug_str:0000000000024c88 .LASF285
C:\Users\CYMR90~1\AppData\Local\Temp\ccioldvv.s:31128  .debug_str:000000000002827b .LASF286
C:\Users\CYMR90~1\AppData\Local\Temp\ccioldvv.s:31406  .debug_str:0000000000029432 .LASF287
C:\Users\CYMR90~1\AppData\Local\Temp\ccioldvv.s:31318  .debug_str:0000000000028ebb .LASF288
C:\Users\CYMR90~1\AppData\Local\Temp\ccioldvv.s:32156  .debug_str:000000000002c30f .LASF289
C:\Users\CYMR90~1\AppData\Local\Temp\ccioldvv.s:27106  .debug_str:000000000001820d .LASF290
C:\Users\CYMR90~1\AppData\Local\Temp\ccioldvv.s:26157  .debug_str:00000000000144de .LASF291
C:\Users\CYMR90~1\AppData\Local\Temp\ccioldvv.s:30340  .debug_str:0000000000024eec .LASF292
C:\Users\CYMR90~1\AppData\Local\Temp\ccioldvv.s:21983  .debug_str:000000000000387b .LASF293
C:\Users\CYMR90~1\AppData\Local\Temp\ccioldvv.s:29274  .debug_str:0000000000020cb8 .LASF294
C:\Users\CYMR90~1\AppData\Local\Temp\ccioldvv.s:22259  .debug_str:0000000000004af9 .LASF295
C:\Users\CYMR90~1\AppData\Local\Temp\ccioldvv.s:31756  .debug_str:000000000002a97e .LASF296
C:\Users\CYMR90~1\AppData\Local\Temp\ccioldvv.s:31944  .debug_str:000000000002b4d4 .LASF297
C:\Users\CYMR90~1\AppData\Local\Temp\ccioldvv.s:26984  .debug_str:0000000000017ad5 .LASF298
C:\Users\CYMR90~1\AppData\Local\Temp\ccioldvv.s:21231  .debug_str:0000000000000958 .LASF299
C:\Users\CYMR90~1\AppData\Local\Temp\ccioldvv.s:25023  .debug_str:000000000000fbd0 .LASF300
C:\Users\CYMR90~1\AppData\Local\Temp\ccioldvv.s:27738  .debug_str:000000000001ac50 .LASF301
C:\Users\CYMR90~1\AppData\Local\Temp\ccioldvv.s:26257  .debug_str:0000000000014aaa .LASF302
C:\Users\CYMR90~1\AppData\Local\Temp\ccioldvv.s:25741  .debug_str:0000000000012a11 .LASF303
C:\Users\CYMR90~1\AppData\Local\Temp\ccioldvv.s:21629  .debug_str:0000000000002180 .LASF304
C:\Users\CYMR90~1\AppData\Local\Temp\ccioldvv.s:24197  .debug_str:000000000000c812 .LASF305
C:\Users\CYMR90~1\AppData\Local\Temp\ccioldvv.s:29476  .debug_str:000000000002196e .LASF306
C:\Users\CYMR90~1\AppData\Local\Temp\ccioldvv.s:25041  .debug_str:000000000000fcfd .LASF307
C:\Users\CYMR90~1\AppData\Local\Temp\ccioldvv.s:30324  .debug_str:0000000000024de5 .LASF308
C:\Users\CYMR90~1\AppData\Local\Temp\ccioldvv.s:29928  .debug_str:0000000000023433 .LASF309
C:\Users\CYMR90~1\AppData\Local\Temp\ccioldvv.s:24593  .debug_str:000000000000e158 .LASF310
C:\Users\CYMR90~1\AppData\Local\Temp\ccioldvv.s:30638  .debug_str:000000000002638c .LASF311
C:\Users\CYMR90~1\AppData\Local\Temp\ccioldvv.s:30154  .debug_str:00000000000242b1 .LASF312
C:\Users\CYMR90~1\AppData\Local\Temp\ccioldvv.s:24311  .debug_str:000000000000cf71 .LASF313
C:\Users\CYMR90~1\AppData\Local\Temp\ccioldvv.s:27248  .debug_str:0000000000018ab3 .LASF316
C:\Users\CYMR90~1\AppData\Local\Temp\ccioldvv.s:27610  .debug_str:000000000001a2c2 .LASF317
C:\Users\CYMR90~1\AppData\Local\Temp\ccioldvv.s:27956  .debug_str:000000000001ba16 .LASF318
C:\Users\CYMR90~1\AppData\Local\Temp\ccioldvv.s:25031  .debug_str:000000000000fc6d .LASF319
C:\Users\CYMR90~1\AppData\Local\Temp\ccioldvv.s:23949  .debug_str:000000000000b7a0 .LASF320
C:\Users\CYMR90~1\AppData\Local\Temp\ccioldvv.s:31368  .debug_str:0000000000029206 .LASF321
C:\Users\CYMR90~1\AppData\Local\Temp\ccioldvv.s:24503  .debug_str:000000000000dc12 .LASF322
C:\Users\CYMR90~1\AppData\Local\Temp\ccioldvv.s:30590  .debug_str:0000000000026060 .LASF323
C:\Users\CYMR90~1\AppData\Local\Temp\ccioldvv.s:21109  .debug_str:0000000000000224 .LASF324
C:\Users\CYMR90~1\AppData\Local\Temp\ccioldvv.s:31778  .debug_str:000000000002aab3 .LASF325
C:\Users\CYMR90~1\AppData\Local\Temp\ccioldvv.s:22039  .debug_str:0000000000003be1 .LASF326
C:\Users\CYMR90~1\AppData\Local\Temp\ccioldvv.s:26091  .debug_str:00000000000140aa .LASF327
C:\Users\CYMR90~1\AppData\Local\Temp\ccioldvv.s:25743  .debug_str:0000000000012a26 .LASF328
C:\Users\CYMR90~1\AppData\Local\Temp\ccioldvv.s:28612  .debug_str:000000000001e4a6 .LASF329
C:\Users\CYMR90~1\AppData\Local\Temp\ccioldvv.s:28604  .debug_str:000000000001e455 .LASF330
C:\Users\CYMR90~1\AppData\Local\Temp\ccioldvv.s:30788  .debug_str:0000000000026c90 .LASF331
C:\Users\CYMR90~1\AppData\Local\Temp\ccioldvv.s:31346  .debug_str:000000000002909d .LASF332
C:\Users\CYMR90~1\AppData\Local\Temp\ccioldvv.s:31534  .debug_str:0000000000029c5b .LASF333
C:\Users\CYMR90~1\AppData\Local\Temp\ccioldvv.s:27584  .debug_str:000000000001a147 .LASF334
C:\Users\CYMR90~1\AppData\Local\Temp\ccioldvv.s:27028  .debug_str:0000000000017d77 .LASF335
C:\Users\CYMR90~1\AppData\Local\Temp\ccioldvv.s:31388  .debug_str:0000000000029346 .LASF336
C:\Users\CYMR90~1\AppData\Local\Temp\ccioldvv.s:25667  .debug_str:0000000000012542 .LASF337
C:\Users\CYMR90~1\AppData\Local\Temp\ccioldvv.s:29328  .debug_str:0000000000020fef .LASF338
C:\Users\CYMR90~1\AppData\Local\Temp\ccioldvv.s:23699  .debug_str:000000000000a651 .LASF339
C:\Users\CYMR90~1\AppData\Local\Temp\ccioldvv.s:25877  .debug_str:000000000001330e .LASF340
C:\Users\CYMR90~1\AppData\Local\Temp\ccioldvv.s:27790  .debug_str:000000000001af78 .LASF341
C:\Users\CYMR90~1\AppData\Local\Temp\ccioldvv.s:24015  .debug_str:000000000000bc03 .LASF342
C:\Users\CYMR90~1\AppData\Local\Temp\ccioldvv.s:21363  .debug_str:00000000000011ba .LASF343
C:\Users\CYMR90~1\AppData\Local\Temp\ccioldvv.s:31500  .debug_str:0000000000029a5d .LASF344
C:\Users\CYMR90~1\AppData\Local\Temp\ccioldvv.s:32100  .debug_str:000000000002bf32 .LASF345
C:\Users\CYMR90~1\AppData\Local\Temp\ccioldvv.s:24909  .debug_str:000000000000f4a3 .LASF346
C:\Users\CYMR90~1\AppData\Local\Temp\ccioldvv.s:21217  .debug_str:000000000000088a .LASF347
C:\Users\CYMR90~1\AppData\Local\Temp\ccioldvv.s:29124  .debug_str:0000000000020336 .LASF348
C:\Users\CYMR90~1\AppData\Local\Temp\ccioldvv.s:31108  .debug_str:00000000000280d9 .LASF349
C:\Users\CYMR90~1\AppData\Local\Temp\ccioldvv.s:28606  .debug_str:000000000001e461 .LASF350
C:\Users\CYMR90~1\AppData\Local\Temp\ccioldvv.s:21149  .debug_str:0000000000000496 .LASF351
C:\Users\CYMR90~1\AppData\Local\Temp\ccioldvv.s:28898  .debug_str:000000000001f5ed .LASF352
C:\Users\CYMR90~1\AppData\Local\Temp\ccioldvv.s:30582  .debug_str:0000000000025ff6 .LASF353
C:\Users\CYMR90~1\AppData\Local\Temp\ccioldvv.s:28226  .debug_str:000000000001cb4a .LASF354
C:\Users\CYMR90~1\AppData\Local\Temp\ccioldvv.s:28396  .debug_str:000000000001d721 .LASF355
C:\Users\CYMR90~1\AppData\Local\Temp\ccioldvv.s:24393  .debug_str:000000000000d590 .LASF356
C:\Users\CYMR90~1\AppData\Local\Temp\ccioldvv.s:27540  .debug_str:0000000000019ec8 .LASF357
C:\Users\CYMR90~1\AppData\Local\Temp\ccioldvv.s:31016  .debug_str:0000000000027a96 .LASF358
C:\Users\CYMR90~1\AppData\Local\Temp\ccioldvv.s:25733  .debug_str:0000000000012966 .LASF359
C:\Users\CYMR90~1\AppData\Local\Temp\ccioldvv.s:23795  .debug_str:000000000000ad18 .LASF360
C:\Users\CYMR90~1\AppData\Local\Temp\ccioldvv.s:28778  .debug_str:000000000001eea9 .LASF361
C:\Users\CYMR90~1\AppData\Local\Temp\ccioldvv.s:25465  .debug_str:000000000001171c .LASF362
C:\Users\CYMR90~1\AppData\Local\Temp\ccioldvv.s:31284  .debug_str:0000000000028cf0 .LASF363
C:\Users\CYMR90~1\AppData\Local\Temp\ccioldvv.s:23341  .debug_str:0000000000008fc4 .LASF364
C:\Users\CYMR90~1\AppData\Local\Temp\ccioldvv.s:31178  .debug_str:0000000000028612 .LASF365
C:\Users\CYMR90~1\AppData\Local\Temp\ccioldvv.s:22753  .debug_str:000000000000688c .LASF366
C:\Users\CYMR90~1\AppData\Local\Temp\ccioldvv.s:25867  .debug_str:000000000001324a .LASF367
C:\Users\CYMR90~1\AppData\Local\Temp\ccioldvv.s:23043  .debug_str:0000000000007ba4 .LASF368
C:\Users\CYMR90~1\AppData\Local\Temp\ccioldvv.s:27074  .debug_str:000000000001802a .LASF372
C:\Users\CYMR90~1\AppData\Local\Temp\ccioldvv.s:30830  .debug_str:0000000000026f17 .LASF373
C:\Users\CYMR90~1\AppData\Local\Temp\ccioldvv.s:23777  .debug_str:000000000000abe6 .LASF374
C:\Users\CYMR90~1\AppData\Local\Temp\ccioldvv.s:26868  .debug_str:000000000001738c .LASF375
C:\Users\CYMR90~1\AppData\Local\Temp\ccioldvv.s:27060  .debug_str:0000000000017f62 .LASF376
C:\Users\CYMR90~1\AppData\Local\Temp\ccioldvv.s:29570  .debug_str:0000000000021f36 .LASF377
C:\Users\CYMR90~1\AppData\Local\Temp\ccioldvv.s:28242  .debug_str:000000000001cc22 .LASF378
C:\Users\CYMR90~1\AppData\Local\Temp\ccioldvv.s:31936  .debug_str:000000000002b454 .LASF379
C:\Users\CYMR90~1\AppData\Local\Temp\ccioldvv.s:21723  .debug_str:000000000000274c .LASF380
C:\Users\CYMR90~1\AppData\Local\Temp\ccioldvv.s:31880  .debug_str:000000000002b0bf .LASF381
C:\Users\CYMR90~1\AppData\Local\Temp\ccioldvv.s:27964  .debug_str:000000000001ba67 .LASF382
C:\Users\CYMR90~1\AppData\Local\Temp\ccioldvv.s:22811  .debug_str:0000000000006bf1 .LASF383
C:\Users\CYMR90~1\AppData\Local\Temp\ccioldvv.s:24167  .debug_str:000000000000c616 .LASF384
C:\Users\CYMR90~1\AppData\Local\Temp\ccioldvv.s:27480  .debug_str:0000000000019b08 .LASF385
C:\Users\CYMR90~1\AppData\Local\Temp\ccioldvv.s:25149  .debug_str:00000000000103a8 .LASF386
C:\Users\CYMR90~1\AppData\Local\Temp\ccioldvv.s:21655  .debug_str:000000000000231f .LASF387
C:\Users\CYMR90~1\AppData\Local\Temp\ccioldvv.s:24755  .debug_str:000000000000eb8e .LASF388
C:\Users\CYMR90~1\AppData\Local\Temp\ccioldvv.s:23315  .debug_str:0000000000008e19 .LASF389
C:\Users\CYMR90~1\AppData\Local\Temp\ccioldvv.s:22129  .debug_str:000000000000422d .LASF391
C:\Users\CYMR90~1\AppData\Local\Temp\ccioldvv.s:25157  .debug_str:0000000000010414 .LASF392
C:\Users\CYMR90~1\AppData\Local\Temp\ccioldvv.s:29224  .debug_str:000000000002099c .LASF393
C:\Users\CYMR90~1\AppData\Local\Temp\ccioldvv.s:30976  .debug_str:000000000002785c .LASF394
C:\Users\CYMR90~1\AppData\Local\Temp\ccioldvv.s:21681  .debug_str:0000000000002477 .LASF395
C:\Users\CYMR90~1\AppData\Local\Temp\ccioldvv.s:23819  .debug_str:000000000000ae7c .LASF396
C:\Users\CYMR90~1\AppData\Local\Temp\ccioldvv.s:27590  .debug_str:000000000001a1a7 .LASF397
C:\Users\CYMR90~1\AppData\Local\Temp\ccioldvv.s:31754  .debug_str:000000000002a96c .LASF398
C:\Users\CYMR90~1\AppData\Local\Temp\ccioldvv.s:26429  .debug_str:00000000000155c5 .LASF399
C:\Users\CYMR90~1\AppData\Local\Temp\ccioldvv.s:28856  .debug_str:000000000001f380 .LASF400
C:\Users\CYMR90~1\AppData\Local\Temp\ccioldvv.s:23303  .debug_str:0000000000008d02 .LASF401
C:\Users\CYMR90~1\AppData\Local\Temp\ccioldvv.s:26918  .debug_str:000000000001767a .LASF402
C:\Users\CYMR90~1\AppData\Local\Temp\ccioldvv.s:22645  .debug_str:00000000000061d7 .LASF403
C:\Users\CYMR90~1\AppData\Local\Temp\ccioldvv.s:23753  .debug_str:000000000000aa57 .LASF404
C:\Users\CYMR90~1\AppData\Local\Temp\ccioldvv.s:24811  .debug_str:000000000000eeb3 .LASF405
C:\Users\CYMR90~1\AppData\Local\Temp\ccioldvv.s:28150  .debug_str:000000000001c5da .LASF406
C:\Users\CYMR90~1\AppData\Local\Temp\ccioldvv.s:26353  .debug_str:0000000000015140 .LASF407
C:\Users\CYMR90~1\AppData\Local\Temp\ccioldvv.s:27324  .debug_str:0000000000018ff9 .LASF408
C:\Users\CYMR90~1\AppData\Local\Temp\ccioldvv.s:29520  .debug_str:0000000000021c13 .LASF409
C:\Users\CYMR90~1\AppData\Local\Temp\ccioldvv.s:22597  .debug_str:0000000000005f05 .LASF410
C:\Users\CYMR90~1\AppData\Local\Temp\ccioldvv.s:26537  .debug_str:0000000000015c06 .LASF411
C:\Users\CYMR90~1\AppData\Local\Temp\ccioldvv.s:29640  .debug_str:000000000002234d .LASF412
C:\Users\CYMR90~1\AppData\Local\Temp\ccioldvv.s:22785  .debug_str:0000000000006a6d .LASF413
C:\Users\CYMR90~1\AppData\Local\Temp\ccioldvv.s:31382  .debug_str:00000000000292df .LASF414
C:\Users\CYMR90~1\AppData\Local\Temp\ccioldvv.s:24911  .debug_str:000000000000f4b1 .LASF415
C:\Users\CYMR90~1\AppData\Local\Temp\ccioldvv.s:30700  .debug_str:000000000002673c .LASF416
C:\Users\CYMR90~1\AppData\Local\Temp\ccioldvv.s:32222  .debug_str:000000000002c762 .LASF417
C:\Users\CYMR90~1\AppData\Local\Temp\ccioldvv.s:23233  .debug_str:00000000000088b6 .LASF418
C:\Users\CYMR90~1\AppData\Local\Temp\ccioldvv.s:31594  .debug_str:0000000000029fe2 .LASF419
C:\Users\CYMR90~1\AppData\Local\Temp\ccioldvv.s:22855  .debug_str:0000000000006f18 .LASF420
C:\Users\CYMR90~1\AppData\Local\Temp\ccioldvv.s:31798  .debug_str:000000000002abc9 .LASF421
C:\Users\CYMR90~1\AppData\Local\Temp\ccioldvv.s:24091  .debug_str:000000000000c183 .LASF422
C:\Users\CYMR90~1\AppData\Local\Temp\ccioldvv.s:24289  .debug_str:000000000000ce47 .LASF423
C:\Users\CYMR90~1\AppData\Local\Temp\ccioldvv.s:28756  .debug_str:000000000001ed5d .LASF424
C:\Users\CYMR90~1\AppData\Local\Temp\ccioldvv.s:27362  .debug_str:0000000000019324 .LASF425
C:\Users\CYMR90~1\AppData\Local\Temp\ccioldvv.s:21121  .debug_str:00000000000002ed .LASF426
C:\Users\CYMR90~1\AppData\Local\Temp\ccioldvv.s:31292  .debug_str:0000000000028d6f .LASF427
C:\Users\CYMR90~1\AppData\Local\Temp\ccioldvv.s:26619  .debug_str:00000000000161af .LASF428
C:\Users\CYMR90~1\AppData\Local\Temp\ccioldvv.s:28530  .debug_str:000000000001e006 .LASF429
C:\Users\CYMR90~1\AppData\Local\Temp\ccioldvv.s:25097  .debug_str:000000000001008f .LASF430
C:\Users\CYMR90~1\AppData\Local\Temp\ccioldvv.s:26820  .debug_str:00000000000170d1 .LASF431
C:\Users\CYMR90~1\AppData\Local\Temp\ccioldvv.s:29592  .debug_str:0000000000022064 .LASF432
C:\Users\CYMR90~1\AppData\Local\Temp\ccioldvv.s:24275  .debug_str:000000000000cd92 .LASF434
C:\Users\CYMR90~1\AppData\Local\Temp\ccioldvv.s:22315  .debug_str:0000000000004e6c .LASF435
C:\Users\CYMR90~1\AppData\Local\Temp\ccioldvv.s:27004  .debug_str:0000000000017c0c .LASF436
C:\Users\CYMR90~1\AppData\Local\Temp\ccioldvv.s:22873  .debug_str:0000000000007041 .LASF437
C:\Users\CYMR90~1\AppData\Local\Temp\ccioldvv.s:31308  .debug_str:0000000000028e26 .LASF438
C:\Users\CYMR90~1\AppData\Local\Temp\ccioldvv.s:21087  .debug_str:00000000000000e5 .LASF439
C:\Users\CYMR90~1\AppData\Local\Temp\ccioldvv.s:28794  .debug_str:000000000001ef94 .LASF440
C:\Users\CYMR90~1\AppData\Local\Temp\ccioldvv.s:24511  .debug_str:000000000000dc7a .LASF441
C:\Users\CYMR90~1\AppData\Local\Temp\ccioldvv.s:29832  .debug_str:0000000000022f0b .LASF442
C:\Users\CYMR90~1\AppData\Local\Temp\ccioldvv.s:28730  .debug_str:000000000001ebee .LASF443
C:\Users\CYMR90~1\AppData\Local\Temp\ccioldvv.s:25231  .debug_str:0000000000010886 .LASF444
C:\Users\CYMR90~1\AppData\Local\Temp\ccioldvv.s:32216  .debug_str:000000000002c716 .LASF445
C:\Users\CYMR90~1\AppData\Local\Temp\ccioldvv.s:32154  .debug_str:000000000002c309 .LASF446
C:\Users\CYMR90~1\AppData\Local\Temp\ccioldvv.s:25585  .debug_str:0000000000011fb6 .LASF447
C:\Users\CYMR90~1\AppData\Local\Temp\ccioldvv.s:29806  .debug_str:0000000000022d8f .LASF448
C:\Users\CYMR90~1\AppData\Local\Temp\ccioldvv.s:22141  .debug_str:00000000000042e5 .LASF449
C:\Users\CYMR90~1\AppData\Local\Temp\ccioldvv.s:22895  .debug_str:00000000000071be .LASF450
C:\Users\CYMR90~1\AppData\Local\Temp\ccioldvv.s:23499  .debug_str:0000000000009993 .LASF451
C:\Users\CYMR90~1\AppData\Local\Temp\ccioldvv.s:26265  .debug_str:0000000000014b4c .LASF452
C:\Users\CYMR90~1\AppData\Local\Temp\ccioldvv.s:21599  .debug_str:0000000000002007 .LASF453
C:\Users\CYMR90~1\AppData\Local\Temp\ccioldvv.s:32160  .debug_str:000000000002c342 .LASF454
C:\Users\CYMR90~1\AppData\Local\Temp\ccioldvv.s:24675  .debug_str:000000000000e629 .LASF455
C:\Users\CYMR90~1\AppData\Local\Temp\ccioldvv.s:29422  .debug_str:0000000000021607 .LASF456
C:\Users\CYMR90~1\AppData\Local\Temp\ccioldvv.s:24365  .debug_str:000000000000d34a .LASF457
C:\Users\CYMR90~1\AppData\Local\Temp\ccioldvv.s:22657  .debug_str:0000000000006284 .LASF458
C:\Users\CYMR90~1\AppData\Local\Temp\ccioldvv.s:25301  .debug_str:0000000000010d96 .LASF459
C:\Users\CYMR90~1\AppData\Local\Temp\ccioldvv.s:29176  .debug_str:00000000000206ea .LASF460
C:\Users\CYMR90~1\AppData\Local\Temp\ccioldvv.s:30328  .debug_str:0000000000024e1b .LASF461
C:\Users\CYMR90~1\AppData\Local\Temp\ccioldvv.s:26783  .debug_str:0000000000016ccd .LASF462
C:\Users\CYMR90~1\AppData\Local\Temp\ccioldvv.s:27642  .debug_str:000000000001a634 .LASF463
C:\Users\CYMR90~1\AppData\Local\Temp\ccioldvv.s:24529  .debug_str:000000000000dd54 .LASF464
C:\Users\CYMR90~1\AppData\Local\Temp\ccioldvv.s:25679  .debug_str:00000000000125ec .LASF465
C:\Users\CYMR90~1\AppData\Local\Temp\ccioldvv.s:22803  .debug_str:0000000000006b8d .LASF466
C:\Users\CYMR90~1\AppData\Local\Temp\ccioldvv.s:23359  .debug_str:00000000000090b4 .LASF467
C:\Users\CYMR90~1\AppData\Local\Temp\ccioldvv.s:25437  .debug_str:000000000001154e .LASF468
C:\Users\CYMR90~1\AppData\Local\Temp\ccioldvv.s:21941  .debug_str:00000000000035b7 .LASF469
C:\Users\CYMR90~1\AppData\Local\Temp\ccioldvv.s:25191  .debug_str:0000000000010614 .LASF470
C:\Users\CYMR90~1\AppData\Local\Temp\ccioldvv.s:25073  .debug_str:000000000000ff04 .LASF471
C:\Users\CYMR90~1\AppData\Local\Temp\ccioldvv.s:24651  .debug_str:000000000000e4b6 .LASF472
C:\Users\CYMR90~1\AppData\Local\Temp\ccioldvv.s:21303  .debug_str:0000000000000dd9 .LASF473
C:\Users\CYMR90~1\AppData\Local\Temp\ccioldvv.s:22921  .debug_str:00000000000073bf .LASF474
C:\Users\CYMR90~1\AppData\Local\Temp\ccioldvv.s:21249  .debug_str:0000000000000a9c .LASF475
C:\Users\CYMR90~1\AppData\Local\Temp\ccioldvv.s:22109  .debug_str:0000000000004058 .LASF476
C:\Users\CYMR90~1\AppData\Local\Temp\ccioldvv.s:21471  .debug_str:0000000000001875 .LASF477
C:\Users\CYMR90~1\AppData\Local\Temp\ccioldvv.s:26565  .debug_str:0000000000015e1e .LASF478
C:\Users\CYMR90~1\AppData\Local\Temp\ccioldvv.s:23969  .debug_str:000000000000b922 .LASF479
C:\Users\CYMR90~1\AppData\Local\Temp\ccioldvv.s:31794  .debug_str:000000000002ab99 .LASF480
C:\Users\CYMR90~1\AppData\Local\Temp\ccioldvv.s:27156  .debug_str:0000000000018500 .LASF481
C:\Users\CYMR90~1\AppData\Local\Temp\ccioldvv.s:23887  .debug_str:000000000000b386 .LASF482
C:\Users\CYMR90~1\AppData\Local\Temp\ccioldvv.s:22699  .debug_str:000000000000650e .LASF483
C:\Users\CYMR90~1\AppData\Local\Temp\ccioldvv.s:21213  .debug_str:0000000000000843 .LASF484
C:\Users\CYMR90~1\AppData\Local\Temp\ccioldvv.s:27104  .debug_str:00000000000181ea .LASF485
C:\Users\CYMR90~1\AppData\Local\Temp\ccioldvv.s:22325  .debug_str:0000000000004f0a .LASF486
C:\Users\CYMR90~1\AppData\Local\Temp\ccioldvv.s:26033  .debug_str:0000000000013d5a .LASF487
C:\Users\CYMR90~1\AppData\Local\Temp\ccioldvv.s:25219  .debug_str:00000000000107e2 .LASF488
C:\Users\CYMR90~1\AppData\Local\Temp\ccioldvv.s:25797  .debug_str:0000000000012db8 .LASF489
C:\Users\CYMR90~1\AppData\Local\Temp\ccioldvv.s:24253  .debug_str:000000000000cc33 .LASF490
C:\Users\CYMR90~1\AppData\Local\Temp\ccioldvv.s:23231  .debug_str:00000000000088a8 .LASF491
C:\Users\CYMR90~1\AppData\Local\Temp\ccioldvv.s:24869  .debug_str:000000000000f222 .LASF492
C:\Users\CYMR90~1\AppData\Local\Temp\ccioldvv.s:25181  .debug_str:0000000000010598 .LASF493
C:\Users\CYMR90~1\AppData\Local\Temp\ccioldvv.s:25079  .debug_str:000000000000ff78 .LASF494
C:\Users\CYMR90~1\AppData\Local\Temp\ccioldvv.s:27352  .debug_str:00000000000192a1 .LASF495
C:\Users\CYMR90~1\AppData\Local\Temp\ccioldvv.s:32240  .debug_str:000000000002c85f .LASF496
C:\Users\CYMR90~1\AppData\Local\Temp\ccioldvv.s:32178  .debug_str:000000000002c4a7 .LASF497
C:\Users\CYMR90~1\AppData\Local\Temp\ccioldvv.s:24915  .debug_str:000000000000f4f8 .LASF498
C:\Users\CYMR90~1\AppData\Local\Temp\ccioldvv.s:31404  .debug_str:000000000002940d .LASF499
C:\Users\CYMR90~1\AppData\Local\Temp\ccioldvv.s:31504  .debug_str:0000000000029a80 .LASF500
C:\Users\CYMR90~1\AppData\Local\Temp\ccioldvv.s:26231  .debug_str:000000000001492b .LASF501
C:\Users\CYMR90~1\AppData\Local\Temp\ccioldvv.s:31458  .debug_str:00000000000297fa .LASF502
C:\Users\CYMR90~1\AppData\Local\Temp\ccioldvv.s:26187  .debug_str:000000000001466a .LASF503
C:\Users\CYMR90~1\AppData\Local\Temp\ccioldvv.s:21809  .debug_str:0000000000002d1e .LASF504
C:\Users\CYMR90~1\AppData\Local\Temp\ccioldvv.s:30096  .debug_str:0000000000023e76 .LASF505
C:\Users\CYMR90~1\AppData\Local\Temp\ccioldvv.s:30972  .debug_str:0000000000027821 .LASF506
C:\Users\CYMR90~1\AppData\Local\Temp\ccioldvv.s:30542  .debug_str:0000000000025da5 .LASF507
C:\Users\CYMR90~1\AppData\Local\Temp\ccioldvv.s:27270  .debug_str:0000000000018c16 .LASF508
C:\Users\CYMR90~1\AppData\Local\Temp\ccioldvv.s:29508  .debug_str:0000000000021b17 .LASF509
C:\Users\CYMR90~1\AppData\Local\Temp\ccioldvv.s:31198  .debug_str:0000000000028776 .LASF510
C:\Users\CYMR90~1\AppData\Local\Temp\ccioldvv.s:27048  .debug_str:0000000000017e8b .LASF511
C:\Users\CYMR90~1\AppData\Local\Temp\ccioldvv.s:30818  .debug_str:0000000000026e22 .LASF512
C:\Users\CYMR90~1\AppData\Local\Temp\ccioldvv.s:30944  .debug_str:000000000002768d .LASF513
C:\Users\CYMR90~1\AppData\Local\Temp\ccioldvv.s:31386  .debug_str:000000000002930b .LASF514
C:\Users\CYMR90~1\AppData\Local\Temp\ccioldvv.s:25965  .debug_str:0000000000013936 .LASF515
C:\Users\CYMR90~1\AppData\Local\Temp\ccioldvv.s:31260  .debug_str:0000000000028b95 .LASF516
C:\Users\CYMR90~1\AppData\Local\Temp\ccioldvv.s:27420  .debug_str:000000000001967f .LASF517
C:\Users\CYMR90~1\AppData\Local\Temp\ccioldvv.s:31206  .debug_str:000000000002882a .LASF518
C:\Users\CYMR90~1\AppData\Local\Temp\ccioldvv.s:28072  .debug_str:000000000001c13e .LASF519
C:\Users\CYMR90~1\AppData\Local\Temp\ccioldvv.s:32148  .debug_str:000000000002c2a7 .LASF520
C:\Users\CYMR90~1\AppData\Local\Temp\ccioldvv.s:28336  .debug_str:000000000001d360 .LASF521
C:\Users\CYMR90~1\AppData\Local\Temp\ccioldvv.s:30448  .debug_str:00000000000256db .LASF522
C:\Users\CYMR90~1\AppData\Local\Temp\ccioldvv.s:25841  .debug_str:0000000000013082 .LASF523
C:\Users\CYMR90~1\AppData\Local\Temp\ccioldvv.s:30004  .debug_str:0000000000023925 .LASF524
C:\Users\CYMR90~1\AppData\Local\Temp\ccioldvv.s:23441  .debug_str:0000000000009579 .LASF525
C:\Users\CYMR90~1\AppData\Local\Temp\ccioldvv.s:32170  .debug_str:000000000002c3bb .LASF526
C:\Users\CYMR90~1\AppData\Local\Temp\ccioldvv.s:24683  .debug_str:000000000000e6c8 .LASF527
C:\Users\CYMR90~1\AppData\Local\Temp\ccioldvv.s:25703  .debug_str:0000000000012760 .LASF528
C:\Users\CYMR90~1\AppData\Local\Temp\ccioldvv.s:26543  .debug_str:0000000000015c76 .LASF529
C:\Users\CYMR90~1\AppData\Local\Temp\ccioldvv.s:26577  .debug_str:0000000000015ecb .LASF530
C:\Users\CYMR90~1\AppData\Local\Temp\ccioldvv.s:25627  .debug_str:00000000000122c2 .LASF531
C:\Users\CYMR90~1\AppData\Local\Temp\ccioldvv.s:21871  .debug_str:00000000000030c9 .LASF532
C:\Users\CYMR90~1\AppData\Local\Temp\ccioldvv.s:24371  .debug_str:000000000000d384 .LASF533
C:\Users\CYMR90~1\AppData\Local\Temp\ccioldvv.s:32016  .debug_str:000000000002b974 .LASF534
C:\Users\CYMR90~1\AppData\Local\Temp\ccioldvv.s:24867  .debug_str:000000000000f1d6 .LASF535
C:\Users\CYMR90~1\AppData\Local\Temp\ccioldvv.s:30190  .debug_str:0000000000024513 .LASF536
C:\Users\CYMR90~1\AppData\Local\Temp\ccioldvv.s:31666  .debug_str:000000000002a3bd .LASF537
C:\Users\CYMR90~1\AppData\Local\Temp\ccioldvv.s:25453  .debug_str:000000000001163d .LASF538
C:\Users\CYMR90~1\AppData\Local\Temp\ccioldvv.s:30372  .debug_str:00000000000250f2 .LASF539
C:\Users\CYMR90~1\AppData\Local\Temp\ccioldvv.s:28130  .debug_str:000000000001c4c8 .LASF540
C:\Users\CYMR90~1\AppData\Local\Temp\ccioldvv.s:29710  .debug_str:000000000002275d .LASF541
C:\Users\CYMR90~1\AppData\Local\Temp\ccioldvv.s:28426  .debug_str:000000000001d90a .LASF542
C:\Users\CYMR90~1\AppData\Local\Temp\ccioldvv.s:22213  .debug_str:0000000000004777 .LASF543
C:\Users\CYMR90~1\AppData\Local\Temp\ccioldvv.s:24619  .debug_str:000000000000e2c2 .LASF544
C:\Users\CYMR90~1\AppData\Local\Temp\ccioldvv.s:31444  .debug_str:0000000000029716 .LASF545
C:\Users\CYMR90~1\AppData\Local\Temp\ccioldvv.s:25975  .debug_str:00000000000139c5 .LASF546
C:\Users\CYMR90~1\AppData\Local\Temp\ccioldvv.s:29692  .debug_str:0000000000022638 .LASF547
C:\Users\CYMR90~1\AppData\Local\Temp\ccioldvv.s:31932  .debug_str:000000000002b426 .LASF548
C:\Users\CYMR90~1\AppData\Local\Temp\ccioldvv.s:21915  .debug_str:00000000000033f5 .LASF549
C:\Users\CYMR90~1\AppData\Local\Temp\ccioldvv.s:23071  .debug_str:0000000000007d44 .LASF550
C:\Users\CYMR90~1\AppData\Local\Temp\ccioldvv.s:30708  .debug_str:000000000002679f .LASF551
C:\Users\CYMR90~1\AppData\Local\Temp\ccioldvv.s:22625  .debug_str:00000000000060b7 .LASF552
C:\Users\CYMR90~1\AppData\Local\Temp\ccioldvv.s:31684  .debug_str:000000000002a4b6 .LASF553
C:\Users\CYMR90~1\AppData\Local\Temp\ccioldvv.s:24043  .debug_str:000000000000bdcb .LASF554
C:\Users\CYMR90~1\AppData\Local\Temp\ccioldvv.s:24229  .debug_str:000000000000ca70 .LASF555
C:\Users\CYMR90~1\AppData\Local\Temp\ccioldvv.s:22751  .debug_str:0000000000006839 .LASF556
C:\Users\CYMR90~1\AppData\Local\Temp\ccioldvv.s:22453  .debug_str:000000000000566a .LASF557
C:\Users\CYMR90~1\AppData\Local\Temp\ccioldvv.s:25571  .debug_str:0000000000011edb .LASF558
C:\Users\CYMR90~1\AppData\Local\Temp\ccioldvv.s:27298  .debug_str:0000000000018e6c .LASF559
C:\Users\CYMR90~1\AppData\Local\Temp\ccioldvv.s:31250  .debug_str:0000000000028aed .LASF560
C:\Users\CYMR90~1\AppData\Local\Temp\ccioldvv.s:24039  .debug_str:000000000000bd67 .LASF561
C:\Users\CYMR90~1\AppData\Local\Temp\ccioldvv.s:25029  .debug_str:000000000000fc22 .LASF562
C:\Users\CYMR90~1\AppData\Local\Temp\ccioldvv.s:24413  .debug_str:000000000000d6c1 .LASF563
C:\Users\CYMR90~1\AppData\Local\Temp\ccioldvv.s:23737  .debug_str:000000000000a86e .LASF564
C:\Users\CYMR90~1\AppData\Local\Temp\ccioldvv.s:29450  .debug_str:00000000000217b6 .LASF565
C:\Users\CYMR90~1\AppData\Local\Temp\ccioldvv.s:28672  .debug_str:000000000001e85e .LASF566
C:\Users\CYMR90~1\AppData\Local\Temp\ccioldvv.s:25567  .debug_str:0000000000011e93 .LASF567
C:\Users\CYMR90~1\AppData\Local\Temp\ccioldvv.s:22627  .debug_str:00000000000060cb .LASF568
C:\Users\CYMR90~1\AppData\Local\Temp\ccioldvv.s:21275  .debug_str:0000000000000c65 .LASF570
C:\Users\CYMR90~1\AppData\Local\Temp\ccioldvv.s:26932  .debug_str:0000000000017747 .LASF571
C:\Users\CYMR90~1\AppData\Local\Temp\ccioldvv.s:28068  .debug_str:000000000001c118 .LASF574
C:\Users\CYMR90~1\AppData\Local\Temp\ccioldvv.s:22183  .debug_str:0000000000004582 .LASF575
C:\Users\CYMR90~1\AppData\Local\Temp\ccioldvv.s:26193  .debug_str:00000000000146e3 .LASF576
C:\Users\CYMR90~1\AppData\Local\Temp\ccioldvv.s:23161  .debug_str:000000000000846c .LASF577
C:\Users\CYMR90~1\AppData\Local\Temp\ccioldvv.s:29350  .debug_str:0000000000021120 .LASF579
C:\Users\CYMR90~1\AppData\Local\Temp\ccioldvv.s:28546  .debug_str:000000000001e0e2 .LASF580
C:\Users\CYMR90~1\AppData\Local\Temp\ccioldvv.s:30094  .debug_str:0000000000023e6d .LASF581
C:\Users\CYMR90~1\AppData\Local\Temp\ccioldvv.s:22581  .debug_str:0000000000005e0f .LASF582
C:\Users\CYMR90~1\AppData\Local\Temp\ccioldvv.s:25175  .debug_str:0000000000010538 .LASF583
C:\Users\CYMR90~1\AppData\Local\Temp\ccioldvv.s:21765  .debug_str:0000000000002a32 .LASF584
C:\Users\CYMR90~1\AppData\Local\Temp\ccioldvv.s:31540  .debug_str:0000000000029cba .LASF585
C:\Users\CYMR90~1\AppData\Local\Temp\ccioldvv.s:29740  .debug_str:000000000002294d .LASF586
C:\Users\CYMR90~1\AppData\Local\Temp\ccioldvv.s:27952  .debug_str:000000000001b9f4 .LASF587
C:\Users\CYMR90~1\AppData\Local\Temp\ccioldvv.s:23735  .debug_str:000000000000a85e .LASF588
C:\Users\CYMR90~1\AppData\Local\Temp\ccioldvv.s:27208  .debug_str:0000000000018838 .LASF589
C:\Users\CYMR90~1\AppData\Local\Temp\ccioldvv.s:27586  .debug_str:000000000001a150 .LASF590
C:\Users\CYMR90~1\AppData\Local\Temp\ccioldvv.s:28418  .debug_str:000000000001d8aa .LASF591
C:\Users\CYMR90~1\AppData\Local\Temp\ccioldvv.s:28208  .debug_str:000000000001ca1d .LASF592
C:\Users\CYMR90~1\AppData\Local\Temp\ccioldvv.s:30082  .debug_str:0000000000023dca .LASF593
C:\Users\CYMR90~1\AppData\Local\Temp\ccioldvv.s:25139  .debug_str:000000000001030e .LASF594
C:\Users\CYMR90~1\AppData\Local\Temp\ccioldvv.s:26031  .debug_str:0000000000013d3a .LASF595
C:\Users\CYMR90~1\AppData\Local\Temp\ccioldvv.s:25757  .debug_str:0000000000012b13 .LASF596
C:\Users\CYMR90~1\AppData\Local\Temp\ccioldvv.s:22923  .debug_str:00000000000073de .LASF597
C:\Users\CYMR90~1\AppData\Local\Temp\ccioldvv.s:31068  .debug_str:0000000000027e53 .LASF598
C:\Users\CYMR90~1\AppData\Local\Temp\ccioldvv.s:25919  .debug_str:0000000000013649 .LASF599
C:\Users\CYMR90~1\AppData\Local\Temp\ccioldvv.s:28876  .debug_str:000000000001f4b1 .LASF600
C:\Users\CYMR90~1\AppData\Local\Temp\ccioldvv.s:28138  .debug_str:000000000001c534 .LASF601
C:\Users\CYMR90~1\AppData\Local\Temp\ccioldvv.s:30548  .debug_str:0000000000025df8 .LASF602
C:\Users\CYMR90~1\AppData\Local\Temp\ccioldvv.s:31266  .debug_str:0000000000028bf7 .LASF603
C:\Users\CYMR90~1\AppData\Local\Temp\ccioldvv.s:31154  .debug_str:00000000000284a6 .LASF604
C:\Users\CYMR90~1\AppData\Local\Temp\ccioldvv.s:25865  .debug_str:0000000000013232 .LASF605
C:\Users\CYMR90~1\AppData\Local\Temp\ccioldvv.s:29886  .debug_str:00000000000231d7 .LASF606
C:\Users\CYMR90~1\AppData\Local\Temp\ccioldvv.s:23509  .debug_str:0000000000009a4d .LASF607
C:\Users\CYMR90~1\AppData\Local\Temp\ccioldvv.s:23025  .debug_str:0000000000007a4b .LASF608
C:\Users\CYMR90~1\AppData\Local\Temp\ccioldvv.s:23797  .debug_str:000000000000ad26 .LASF609
C:\Users\CYMR90~1\AppData\Local\Temp\ccioldvv.s:27990  .debug_str:000000000001bbdc .LASF610
C:\Users\CYMR90~1\AppData\Local\Temp\ccioldvv.s:22545  .debug_str:0000000000005c40 .LASF611
C:\Users\CYMR90~1\AppData\Local\Temp\ccioldvv.s:29664  .debug_str:0000000000022496 .LASF612
C:\Users\CYMR90~1\AppData\Local\Temp\ccioldvv.s:26411  .debug_str:000000000001549c .LASF613
C:\Users\CYMR90~1\AppData\Local\Temp\ccioldvv.s:23091  .debug_str:0000000000007f28 .LASF614
C:\Users\CYMR90~1\AppData\Local\Temp\ccioldvv.s:21173  .debug_str:00000000000005c7 .LASF615
C:\Users\CYMR90~1\AppData\Local\Temp\ccioldvv.s:26647  .debug_str:0000000000016334 .LASF616
C:\Users\CYMR90~1\AppData\Local\Temp\ccioldvv.s:27624  .debug_str:000000000001a394 .LASF617
C:\Users\CYMR90~1\AppData\Local\Temp\ccioldvv.s:26785  .debug_str:0000000000016cdc .LASF618
C:\Users\CYMR90~1\AppData\Local\Temp\ccioldvv.s:29750  .debug_str:00000000000229d8 .LASF619
C:\Users\CYMR90~1\AppData\Local\Temp\ccioldvv.s:24059  .debug_str:000000000000bf65 .LASF620
C:\Users\CYMR90~1\AppData\Local\Temp\ccioldvv.s:22833  .debug_str:0000000000006d8d .LASF621
C:\Users\CYMR90~1\AppData\Local\Temp\ccioldvv.s:29948  .debug_str:0000000000023557 .LASF622
C:\Users\CYMR90~1\AppData\Local\Temp\ccioldvv.s:29054  .debug_str:000000000001ff35 .LASF623
C:\Users\CYMR90~1\AppData\Local\Temp\ccioldvv.s:31024  .debug_str:0000000000027b0b .LASF624
C:\Users\CYMR90~1\AppData\Local\Temp\ccioldvv.s:31638  .debug_str:000000000002a25e .LASF625
C:\Users\CYMR90~1\AppData\Local\Temp\ccioldvv.s:26099  .debug_str:0000000000014106 .LASF626
C:\Users\CYMR90~1\AppData\Local\Temp\ccioldvv.s:31898  .debug_str:000000000002b1ab .LASF627
C:\Users\CYMR90~1\AppData\Local\Temp\ccioldvv.s:26499  .debug_str:00000000000159b5 .LASF628
C:\Users\CYMR90~1\AppData\Local\Temp\ccioldvv.s:29690  .debug_str:0000000000022600 .LASF629
C:\Users\CYMR90~1\AppData\Local\Temp\ccioldvv.s:23239  .debug_str:000000000000892d .LASF630
C:\Users\CYMR90~1\AppData\Local\Temp\ccioldvv.s:24451  .debug_str:000000000000d91a .LASF631
C:\Users\CYMR90~1\AppData\Local\Temp\ccioldvv.s:29654  .debug_str:00000000000223f6 .LASF632
C:\Users\CYMR90~1\AppData\Local\Temp\ccioldvv.s:24173  .debug_str:000000000000c677 .LASF633
C:\Users\CYMR90~1\AppData\Local\Temp\ccioldvv.s:21265  .debug_str:0000000000000bcf .LASF634
C:\Users\CYMR90~1\AppData\Local\Temp\ccioldvv.s:27528  .debug_str:0000000000019dfe .LASF635
C:\Users\CYMR90~1\AppData\Local\Temp\ccioldvv.s:26707  .debug_str:000000000001673a .LASF636
C:\Users\CYMR90~1\AppData\Local\Temp\ccioldvv.s:28306  .debug_str:000000000001d189 .LASF637
C:\Users\CYMR90~1\AppData\Local\Temp\ccioldvv.s:21975  .debug_str:00000000000037ca .LASF638
C:\Users\CYMR90~1\AppData\Local\Temp\ccioldvv.s:25519  .debug_str:0000000000011bc1 .LASF639
C:\Users\CYMR90~1\AppData\Local\Temp\ccioldvv.s:23103  .debug_str:0000000000007fd0 .LASF640
C:\Users\CYMR90~1\AppData\Local\Temp\ccioldvv.s:25739  .debug_str:00000000000129d5 .LASF641
C:\Users\CYMR90~1\AppData\Local\Temp\ccioldvv.s:23957  .debug_str:000000000000b81a .LASF642
C:\Users\CYMR90~1\AppData\Local\Temp\ccioldvv.s:31008  .debug_str:00000000000279fb .LASF643
C:\Users\CYMR90~1\AppData\Local\Temp\ccioldvv.s:24327  .debug_str:000000000000d08f .LASF644
C:\Users\CYMR90~1\AppData\Local\Temp\ccioldvv.s:22157  .debug_str:00000000000043a3 .LASF645
C:\Users\CYMR90~1\AppData\Local\Temp\ccioldvv.s:22981  .debug_str:0000000000007754 .LASF646
C:\Users\CYMR90~1\AppData\Local\Temp\ccioldvv.s:21907  .debug_str:000000000000335b .LASF647
C:\Users\CYMR90~1\AppData\Local\Temp\ccioldvv.s:22269  .debug_str:0000000000004b83 .LASF648
C:\Users\CYMR90~1\AppData\Local\Temp\ccioldvv.s:31538  .debug_str:0000000000029c7b .LASF649
C:\Users\CYMR90~1\AppData\Local\Temp\ccioldvv.s:25433  .debug_str:00000000000114db .LASF650
C:\Users\CYMR90~1\AppData\Local\Temp\ccioldvv.s:31656  .debug_str:000000000002a354 .LASF651
C:\Users\CYMR90~1\AppData\Local\Temp\ccioldvv.s:25039  .debug_str:000000000000fce3 .LASF652
C:\Users\CYMR90~1\AppData\Local\Temp\ccioldvv.s:21153  .debug_str:00000000000004b6 .LASF653
C:\Users\CYMR90~1\AppData\Local\Temp\ccioldvv.s:31884  .debug_str:000000000002b0ea .LASF654
C:\Users\CYMR90~1\AppData\Local\Temp\ccioldvv.s:23331  .debug_str:0000000000008f33 .LASF655
C:\Users\CYMR90~1\AppData\Local\Temp\ccioldvv.s:31084  .debug_str:0000000000027f4c .LASF656
C:\Users\CYMR90~1\AppData\Local\Temp\ccioldvv.s:21207  .debug_str:0000000000000801 .LASF657
C:\Users\CYMR90~1\AppData\Local\Temp\ccioldvv.s:31706  .debug_str:000000000002a630 .LASF658
C:\Users\CYMR90~1\AppData\Local\Temp\ccioldvv.s:25835  .debug_str:0000000000013034 .LASF659
C:\Users\CYMR90~1\AppData\Local\Temp\ccioldvv.s:28238  .debug_str:000000000001cbf6 .LASF660
C:\Users\CYMR90~1\AppData\Local\Temp\ccioldvv.s:24721  .debug_str:000000000000e96b .LASF661
C:\Users\CYMR90~1\AppData\Local\Temp\ccioldvv.s:28904  .debug_str:000000000001f638 .LASF662
C:\Users\CYMR90~1\AppData\Local\Temp\ccioldvv.s:30860  .debug_str:00000000000270cc .LASF663
C:\Users\CYMR90~1\AppData\Local\Temp\ccioldvv.s:25411  .debug_str:0000000000011395 .LASF664
C:\Users\CYMR90~1\AppData\Local\Temp\ccioldvv.s:25401  .debug_str:0000000000011326 .LASF665
C:\Users\CYMR90~1\AppData\Local\Temp\ccioldvv.s:27306  .debug_str:0000000000018f25 .LASF666
C:\Users\CYMR90~1\AppData\Local\Temp\ccioldvv.s:22557  .debug_str:0000000000005cd8 .LASF667
C:\Users\CYMR90~1\AppData\Local\Temp\ccioldvv.s:32372  .debug_str:000000000002d138 .LASF668
C:\Users\CYMR90~1\AppData\Local\Temp\ccioldvv.s:22947  .debug_str:000000000000754a .LASF669
C:\Users\CYMR90~1\AppData\Local\Temp\ccioldvv.s:29542  .debug_str:0000000000021d7e .LASF670
C:\Users\CYMR90~1\AppData\Local\Temp\ccioldvv.s:25817  .debug_str:0000000000012f16 .LASF671
C:\Users\CYMR90~1\AppData\Local\Temp\ccioldvv.s:28954  .debug_str:000000000001f8f2 .LASF672
C:\Users\CYMR90~1\AppData\Local\Temp\ccioldvv.s:29666  .debug_str:00000000000224af .LASF673
C:\Users\CYMR90~1\AppData\Local\Temp\ccioldvv.s:21545  .debug_str:0000000000001ce9 .LASF674
C:\Users\CYMR90~1\AppData\Local\Temp\ccioldvv.s:26485  .debug_str:00000000000158d6 .LASF676
C:\Users\CYMR90~1\AppData\Local\Temp\ccioldvv.s:30112  .debug_str:0000000000023f8d .LASF677
C:\Users\CYMR90~1\AppData\Local\Temp\ccioldvv.s:27542  .debug_str:0000000000019ed4 .LASF678
C:\Users\CYMR90~1\AppData\Local\Temp\ccioldvv.s:30210  .debug_str:0000000000024678 .LASF679
C:\Users\CYMR90~1\AppData\Local\Temp\ccioldvv.s:28668  .debug_str:000000000001e832 .LASF680
C:\Users\CYMR90~1\AppData\Local\Temp\ccioldvv.s:31552  .debug_str:0000000000029d78 .LASF681
C:\Users\CYMR90~1\AppData\Local\Temp\ccioldvv.s:22159  .debug_str:00000000000043e1 .LASF682
C:\Users\CYMR90~1\AppData\Local\Temp\ccioldvv.s:22079  .debug_str:0000000000003e5e .LASF683
C:\Users\CYMR90~1\AppData\Local\Temp\ccioldvv.s:23465  .debug_str:0000000000009730 .LASF684
C:\Users\CYMR90~1\AppData\Local\Temp\ccioldvv.s:27994  .debug_str:000000000001bc09 .LASF685
C:\Users\CYMR90~1\AppData\Local\Temp\ccioldvv.s:29406  .debug_str:0000000000021500 .LASF686
C:\Users\CYMR90~1\AppData\Local\Temp\ccioldvv.s:26763  .debug_str:0000000000016b0d .LASF687
C:\Users\CYMR90~1\AppData\Local\Temp\ccioldvv.s:25337  .debug_str:0000000000010f54 .LASF688
C:\Users\CYMR90~1\AppData\Local\Temp\ccioldvv.s:21959  .debug_str:00000000000036b5 .LASF689
C:\Users\CYMR90~1\AppData\Local\Temp\ccioldvv.s:22839  .debug_str:0000000000006e0c .LASF690
C:\Users\CYMR90~1\AppData\Local\Temp\ccioldvv.s:25687  .debug_str:0000000000012660 .LASF691
C:\Users\CYMR90~1\AppData\Local\Temp\ccioldvv.s:26523  .debug_str:0000000000015b1f .LASF692
C:\Users\CYMR90~1\AppData\Local\Temp\ccioldvv.s:22527  .debug_str:0000000000005b3c .LASF695
C:\Users\CYMR90~1\AppData\Local\Temp\ccioldvv.s:26930  .debug_str:0000000000017730 .LASF696
C:\Users\CYMR90~1\AppData\Local\Temp\ccioldvv.s:26830  .debug_str:0000000000017169 .LASF697
C:\Users\CYMR90~1\AppData\Local\Temp\ccioldvv.s:27962  .debug_str:000000000001ba55 .LASF698
C:\Users\CYMR90~1\AppData\Local\Temp\ccioldvv.s:30148  .debug_str:0000000000024170 .LASF699
C:\Users\CYMR90~1\AppData\Local\Temp\ccioldvv.s:26261  .debug_str:0000000000014ac9 .LASF702
C:\Users\CYMR90~1\AppData\Local\Temp\ccioldvv.s:23487  .debug_str:0000000000009887 .LASF703
C:\Users\CYMR90~1\AppData\Local\Temp\ccioldvv.s:28846  .debug_str:000000000001f2f0 .LASF704
C:\Users\CYMR90~1\AppData\Local\Temp\ccioldvv.s:22347  .debug_str:0000000000005036 .LASF705
C:\Users\CYMR90~1\AppData\Local\Temp\ccioldvv.s:26589  .debug_str:0000000000015fac .LASF706
C:\Users\CYMR90~1\AppData\Local\Temp\ccioldvv.s:24913  .debug_str:000000000000f4d2 .LASF707
C:\Users\CYMR90~1\AppData\Local\Temp\ccioldvv.s:31280  .debug_str:0000000000028cc4 .LASF708
C:\Users\CYMR90~1\AppData\Local\Temp\ccioldvv.s:30520  .debug_str:0000000000025c55 .LASF709
C:\Users\CYMR90~1\AppData\Local\Temp\ccioldvv.s:24565  .debug_str:000000000000dfe5 .LASF710
C:\Users\CYMR90~1\AppData\Local\Temp\ccioldvv.s:25077  .debug_str:000000000000ff45 .LASF711
C:\Users\CYMR90~1\AppData\Local\Temp\ccioldvv.s:26737  .debug_str:0000000000016901 .LASF712
C:\Users\CYMR90~1\AppData\Local\Temp\ccioldvv.s:23731  .debug_str:000000000000a804 .LASF713
C:\Users\CYMR90~1\AppData\Local\Temp\ccioldvv.s:32094  .debug_str:000000000002beb3 .LASF714
C:\Users\CYMR90~1\AppData\Local\Temp\ccioldvv.s:23087  .debug_str:0000000000007ec3 .LASF715
C:\Users\CYMR90~1\AppData\Local\Temp\ccioldvv.s:24001  .debug_str:000000000000bae4 .LASF716
C:\Users\CYMR90~1\AppData\Local\Temp\ccioldvv.s:29070  .debug_str:0000000000020047 .LASF717
C:\Users\CYMR90~1\AppData\Local\Temp\ccioldvv.s:30474  .debug_str:00000000000258ec .LASF718
C:\Users\CYMR90~1\AppData\Local\Temp\ccioldvv.s:30252  .debug_str:00000000000248f1 .LASF719
C:\Users\CYMR90~1\AppData\Local\Temp\ccioldvv.s:27242  .debug_str:0000000000018a61 .LASF720
C:\Users\CYMR90~1\AppData\Local\Temp\ccioldvv.s:21603  .debug_str:000000000000203c .LASF721
C:\Users\CYMR90~1\AppData\Local\Temp\ccioldvv.s:29180  .debug_str:000000000002071e .LASF722
C:\Users\CYMR90~1\AppData\Local\Temp\ccioldvv.s:28152  .debug_str:000000000001c5ea .LASF723
C:\Users\CYMR90~1\AppData\Local\Temp\ccioldvv.s:28722  .debug_str:000000000001eb95 .LASF724
C:\Users\CYMR90~1\AppData\Local\Temp\ccioldvv.s:29646  .debug_str:00000000000223a4 .LASF725
C:\Users\CYMR90~1\AppData\Local\Temp\ccioldvv.s:25935  .debug_str:0000000000013755 .LASF726
C:\Users\CYMR90~1\AppData\Local\Temp\ccioldvv.s:23725  .debug_str:000000000000a7aa .LASF727
C:\Users\CYMR90~1\AppData\Local\Temp\ccioldvv.s:30608  .debug_str:00000000000261cb .LASF728
C:\Users\CYMR90~1\AppData\Local\Temp\ccioldvv.s:28960  .debug_str:000000000001f970 .LASF729
C:\Users\CYMR90~1\AppData\Local\Temp\ccioldvv.s:27432  .debug_str:000000000001973e .LASF730
C:\Users\CYMR90~1\AppData\Local\Temp\ccioldvv.s:25905  .debug_str:000000000001354f .LASF731
C:\Users\CYMR90~1\AppData\Local\Temp\ccioldvv.s:30550  .debug_str:0000000000025e33 .LASF732
C:\Users\CYMR90~1\AppData\Local\Temp\ccioldvv.s:32300  .debug_str:000000000002cc95 .LASF733
C:\Users\CYMR90~1\AppData\Local\Temp\ccioldvv.s:25387  .debug_str:000000000001123b .LASF734
C:\Users\CYMR90~1\AppData\Local\Temp\ccioldvv.s:25313  .debug_str:0000000000010e24 .LASF735
C:\Users\CYMR90~1\AppData\Local\Temp\ccioldvv.s:32226  .debug_str:000000000002c783 .LASF736
C:\Users\CYMR90~1\AppData\Local\Temp\ccioldvv.s:24297  .debug_str:000000000000cea6 .LASF737
C:\Users\CYMR90~1\AppData\Local\Temp\ccioldvv.s:32158  .debug_str:000000000002c331 .LASF738
C:\Users\CYMR90~1\AppData\Local\Temp\ccioldvv.s:31984  .debug_str:000000000002b783 .LASF739
C:\Users\CYMR90~1\AppData\Local\Temp\ccioldvv.s:21511  .debug_str:0000000000001adb .LASF740
C:\Users\CYMR90~1\AppData\Local\Temp\ccioldvv.s:24235  .debug_str:000000000000cae0 .LASF741
C:\Users\CYMR90~1\AppData\Local\Temp\ccioldvv.s:21481  .debug_str:0000000000001916 .LASF742
C:\Users\CYMR90~1\AppData\Local\Temp\ccioldvv.s:25345  .debug_str:0000000000010fad .LASF743
C:\Users\CYMR90~1\AppData\Local\Temp\ccioldvv.s:21945  .debug_str:00000000000035f4 .LASF744
C:\Users\CYMR90~1\AppData\Local\Temp\ccioldvv.s:23339  .debug_str:0000000000008faf .LASF745
C:\Users\CYMR90~1\AppData\Local\Temp\ccioldvv.s:29658  .debug_str:0000000000022445 .LASF746
C:\Users\CYMR90~1\AppData\Local\Temp\ccioldvv.s:21377  .debug_str:0000000000001257 .LASF747
C:\Users\CYMR90~1\AppData\Local\Temp\ccioldvv.s:31410  .debug_str:0000000000029504 .LASF748
C:\Users\CYMR90~1\AppData\Local\Temp\ccioldvv.s:22509  .debug_str:00000000000059e9 .LASF750
C:\Users\CYMR90~1\AppData\Local\Temp\ccioldvv.s:25263  .debug_str:0000000000010a35 .LASF751
C:\Users\CYMR90~1\AppData\Local\Temp\ccioldvv.s:31440  .debug_str:00000000000296ef .LASF752
C:\Users\CYMR90~1\AppData\Local\Temp\ccioldvv.s:25199  .debug_str:00000000000106c3 .LASF753
C:\Users\CYMR90~1\AppData\Local\Temp\ccioldvv.s:22389  .debug_str:00000000000052c7 .LASF754
C:\Users\CYMR90~1\AppData\Local\Temp\ccioldvv.s:23983  .debug_str:000000000000b9dd .LASF755
C:\Users\CYMR90~1\AppData\Local\Temp\ccioldvv.s:27504  .debug_str:0000000000019c9f .LASF756
C:\Users\CYMR90~1\AppData\Local\Temp\ccioldvv.s:23475  .debug_str:00000000000097df .LASF757
C:\Users\CYMR90~1\AppData\Local\Temp\ccioldvv.s:30502  .debug_str:0000000000025b35 .LASF758
C:\Users\CYMR90~1\AppData\Local\Temp\ccioldvv.s:32340  .debug_str:000000000002cf58 .LASF759
C:\Users\CYMR90~1\AppData\Local\Temp\ccioldvv.s:27878  .debug_str:000000000001b557 .LASF760
C:\Users\CYMR90~1\AppData\Local\Temp\ccioldvv.s:32076  .debug_str:000000000002bd6d .LASF761
C:\Users\CYMR90~1\AppData\Local\Temp\ccioldvv.s:23905  .debug_str:000000000000b467 .LASF762
C:\Users\CYMR90~1\AppData\Local\Temp\ccioldvv.s:27886  .debug_str:000000000001b5eb .LASF765
C:\Users\CYMR90~1\AppData\Local\Temp\ccioldvv.s:26559  .debug_str:0000000000015d7f .LASF766
C:\Users\CYMR90~1\AppData\Local\Temp\ccioldvv.s:29550  .debug_str:0000000000021ddd .LASF767
C:\Users\CYMR90~1\AppData\Local\Temp\ccioldvv.s:26549  .debug_str:0000000000015d0f .LASF768
C:\Users\CYMR90~1\AppData\Local\Temp\ccioldvv.s:21753  .debug_str:0000000000002971 .LASF769
C:\Users\CYMR90~1\AppData\Local\Temp\ccioldvv.s:28008  .debug_str:000000000001bd2d .LASF770
C:\Users\CYMR90~1\AppData\Local\Temp\ccioldvv.s:26643  .debug_str:000000000001630e .LASF771
C:\Users\CYMR90~1\AppData\Local\Temp\ccioldvv.s:30218  .debug_str:00000000000246e6 .LASF772
C:\Users\CYMR90~1\AppData\Local\Temp\ccioldvv.s:29844  .debug_str:0000000000022fae .LASF773
C:\Users\CYMR90~1\AppData\Local\Temp\ccioldvv.s:24641  .debug_str:000000000000e433 .LASF774
C:\Users\CYMR90~1\AppData\Local\Temp\ccioldvv.s:30552  .debug_str:0000000000025e49 .LASF775
C:\Users\CYMR90~1\AppData\Local\Temp\ccioldvv.s:23623  .debug_str:000000000000a1aa .LASF776
C:\Users\CYMR90~1\AppData\Local\Temp\ccioldvv.s:23639  .debug_str:000000000000a2ae .LASF777
C:\Users\CYMR90~1\AppData\Local\Temp\ccioldvv.s:28658  .debug_str:000000000001e791 .LASF778
C:\Users\CYMR90~1\AppData\Local\Temp\ccioldvv.s:25141  .debug_str:0000000000010336 .LASF779
C:\Users\CYMR90~1\AppData\Local\Temp\ccioldvv.s:28910  .debug_str:000000000001f688 .LASF780
C:\Users\CYMR90~1\AppData\Local\Temp\ccioldvv.s:29546  .debug_str:0000000000021dc4 .LASF781
C:\Users\CYMR90~1\AppData\Local\Temp\ccioldvv.s:25637  .debug_str:0000000000012369 .LASF782
C:\Users\CYMR90~1\AppData\Local\Temp\ccioldvv.s:26771  .debug_str:0000000000016c30 .LASF783
C:\Users\CYMR90~1\AppData\Local\Temp\ccioldvv.s:25535  .debug_str:0000000000011cbf .LASF784
C:\Users\CYMR90~1\AppData\Local\Temp\ccioldvv.s:24819  .debug_str:000000000000ef24 .LASF785
C:\Users\CYMR90~1\AppData\Local\Temp\ccioldvv.s:29916  .debug_str:000000000002337a .LASF786
C:\Users\CYMR90~1\AppData\Local\Temp\ccioldvv.s:26275  .debug_str:0000000000014bee .LASF787
C:\Users\CYMR90~1\AppData\Local\Temp\ccioldvv.s:28592  .debug_str:000000000001e39c .LASF788
C:\Users\CYMR90~1\AppData\Local\Temp\ccioldvv.s:24999  .debug_str:000000000000fa71 .LASF789
C:\Users\CYMR90~1\AppData\Local\Temp\ccioldvv.s:22439  .debug_str:00000000000055b9 .LASF790
C:\Users\CYMR90~1\AppData\Local\Temp\ccioldvv.s:30908  .debug_str:000000000002744c .LASF791
C:\Users\CYMR90~1\AppData\Local\Temp\ccioldvv.s:23205  .debug_str:00000000000086ed .LASF792
C:\Users\CYMR90~1\AppData\Local\Temp\ccioldvv.s:32306  .debug_str:000000000002cce3 .LASF793
C:\Users\CYMR90~1\AppData\Local\Temp\ccioldvv.s:22995  .debug_str:0000000000007868 .LASF794
C:\Users\CYMR90~1\AppData\Local\Temp\ccioldvv.s:31160  .debug_str:0000000000028505 .LASF795
C:\Users\CYMR90~1\AppData\Local\Temp\ccioldvv.s:29154  .debug_str:000000000002052a .LASF796
C:\Users\CYMR90~1\AppData\Local\Temp\ccioldvv.s:31876  .debug_str:000000000002b099 .LASF797
C:\Users\CYMR90~1\AppData\Local\Temp\ccioldvv.s:22823  .debug_str:0000000000006cea .LASF798
C:\Users\CYMR90~1\AppData\Local\Temp\ccioldvv.s:31222  .debug_str:0000000000028952 .LASF799
C:\Users\CYMR90~1\AppData\Local\Temp\ccioldvv.s:22405  .debug_str:00000000000053be .LASF800
C:\Users\CYMR90~1\AppData\Local\Temp\ccioldvv.s:27644  .debug_str:000000000001a641 .LASF801
C:\Users\CYMR90~1\AppData\Local\Temp\ccioldvv.s:27676  .debug_str:000000000001a811 .LASF802
C:\Users\CYMR90~1\AppData\Local\Temp\ccioldvv.s:23541  .debug_str:0000000000009c45 .LASF803
C:\Users\CYMR90~1\AppData\Local\Temp\ccioldvv.s:26039  .debug_str:0000000000013da0 .LASF804
C:\Users\CYMR90~1\AppData\Local\Temp\ccioldvv.s:22837  .debug_str:0000000000006db1 .LASF805
C:\Users\CYMR90~1\AppData\Local\Temp\ccioldvv.s:25489  .debug_str:0000000000011931 .LASF806
C:\Users\CYMR90~1\AppData\Local\Temp\ccioldvv.s:28614  .debug_str:000000000001e4b2 .LASF807
C:\Users\CYMR90~1\AppData\Local\Temp\ccioldvv.s:28204  .debug_str:000000000001c9cd .LASF808
C:\Users\CYMR90~1\AppData\Local\Temp\ccioldvv.s:30618  .debug_str:0000000000026262 .LASF809
C:\Users\CYMR90~1\AppData\Local\Temp\ccioldvv.s:32080  .debug_str:000000000002bdc2 .LASF810
C:\Users\CYMR90~1\AppData\Local\Temp\ccioldvv.s:23229  .debug_str:000000000000886f .LASF811
C:\Users\CYMR90~1\AppData\Local\Temp\ccioldvv.s:22137  .debug_str:00000000000042a5 .LASF812
C:\Users\CYMR90~1\AppData\Local\Temp\ccioldvv.s:32112  .debug_str:000000000002c05e .LASF813
C:\Users\CYMR90~1\AppData\Local\Temp\ccioldvv.s:22505  .debug_str:00000000000059c2 .LASF814
C:\Users\CYMR90~1\AppData\Local\Temp\ccioldvv.s:22733  .debug_str:00000000000066fe .LASF815
C:\Users\CYMR90~1\AppData\Local\Temp\ccioldvv.s:27978  .debug_str:000000000001bb36 .LASF816
C:\Users\CYMR90~1\AppData\Local\Temp\ccioldvv.s:23405  .debug_str:0000000000009372 .LASF817
C:\Users\CYMR90~1\AppData\Local\Temp\ccioldvv.s:28118  .debug_str:000000000001c424 .LASF818
C:\Users\CYMR90~1\AppData\Local\Temp\ccioldvv.s:28012  .debug_str:000000000001bd45 .LASF819
C:\Users\CYMR90~1\AppData\Local\Temp\ccioldvv.s:21251  .debug_str:0000000000000ad5 .LASF820
C:\Users\CYMR90~1\AppData\Local\Temp\ccioldvv.s:31708  .debug_str:000000000002a640 .LASF821
C:\Users\CYMR90~1\AppData\Local\Temp\ccioldvv.s:30214  .debug_str:00000000000246b6 .LASF822
C:\Users\CYMR90~1\AppData\Local\Temp\ccioldvv.s:23371  .debug_str:0000000000009154 .LASF823
C:\Users\CYMR90~1\AppData\Local\Temp\ccioldvv.s:26693  .debug_str:0000000000016671 .LASF824
C:\Users\CYMR90~1\AppData\Local\Temp\ccioldvv.s:28308  .debug_str:000000000001d1b3 .LASF825
C:\Users\CYMR90~1\AppData\Local\Temp\ccioldvv.s:26483  .debug_str:00000000000158b5 .LASF826
C:\Users\CYMR90~1\AppData\Local\Temp\ccioldvv.s:22025  .debug_str:0000000000003b13 .LASF827
C:\Users\CYMR90~1\AppData\Local\Temp\ccioldvv.s:24799  .debug_str:000000000000ee17 .LASF828
C:\Users\CYMR90~1\AppData\Local\Temp\ccioldvv.s:23549  .debug_str:0000000000009ca8 .LASF829
C:\Users\CYMR90~1\AppData\Local\Temp\ccioldvv.s:30492  .debug_str:0000000000025a75 .LASF830
C:\Users\CYMR90~1\AppData\Local\Temp\ccioldvv.s:23989  .debug_str:000000000000ba38 .LASF831
C:\Users\CYMR90~1\AppData\Local\Temp\ccioldvv.s:24745  .debug_str:000000000000eaf5 .LASF832
C:\Users\CYMR90~1\AppData\Local\Temp\ccioldvv.s:22589  .debug_str:0000000000005e7b .LASF833
C:\Users\CYMR90~1\AppData\Local\Temp\ccioldvv.s:25389  .debug_str:000000000001124c .LASF834
C:\Users\CYMR90~1\AppData\Local\Temp\ccioldvv.s:27164  .debug_str:00000000000185a0 .LASF835
C:\Users\CYMR90~1\AppData\Local\Temp\ccioldvv.s:25295  .debug_str:0000000000010cb1 .LASF836
C:\Users\CYMR90~1\AppData\Local\Temp\ccioldvv.s:29062  .debug_str:000000000001ffd7 .LASF837
C:\Users\CYMR90~1\AppData\Local\Temp\ccioldvv.s:23275  .debug_str:0000000000008b89 .LASF838
C:\Users\CYMR90~1\AppData\Local\Temp\ccioldvv.s:22427  .debug_str:000000000000551a .LASF839
C:\Users\CYMR90~1\AppData\Local\Temp\ccioldvv.s:25187  .debug_str:00000000000105dd .LASF840
C:\Users\CYMR90~1\AppData\Local\Temp\ccioldvv.s:23861  .debug_str:000000000000b1fd .LASF841
C:\Users\CYMR90~1\AppData\Local\Temp\ccioldvv.s:28220  .debug_str:000000000001cae3 .LASF842
C:\Users\CYMR90~1\AppData\Local\Temp\ccioldvv.s:21321  .debug_str:0000000000000f6c .LASF843
C:\Users\CYMR90~1\AppData\Local\Temp\ccioldvv.s:21689  .debug_str:0000000000002521 .LASF844
C:\Users\CYMR90~1\AppData\Local\Temp\ccioldvv.s:30072  .debug_str:0000000000023d3b .LASF845
C:\Users\CYMR90~1\AppData\Local\Temp\ccioldvv.s:21083  .debug_str:00000000000000b4 .LASF846
C:\Users\CYMR90~1\AppData\Local\Temp\ccioldvv.s:23077  .debug_str:0000000000007e4c .LASF847
C:\Users\CYMR90~1\AppData\Local\Temp\ccioldvv.s:28916  .debug_str:000000000001f6d6 .LASF848
C:\Users\CYMR90~1\AppData\Local\Temp\ccioldvv.s:23045  .debug_str:0000000000007bb6 .LASF849
C:\Users\CYMR90~1\AppData\Local\Temp\ccioldvv.s:24409  .debug_str:000000000000d693 .LASF852
C:\Users\CYMR90~1\AppData\Local\Temp\ccioldvv.s:29846  .debug_str:0000000000022fbc .LASF853
C:\Users\CYMR90~1\AppData\Local\Temp\ccioldvv.s:26335  .debug_str:0000000000015025 .LASF854
C:\Users\CYMR90~1\AppData\Local\Temp\ccioldvv.s:29556  .debug_str:0000000000021e72 .LASF856
C:\Users\CYMR90~1\AppData\Local\Temp\ccioldvv.s:28444  .debug_str:000000000001da57 .LASF857
C:\Users\CYMR90~1\AppData\Local\Temp\ccioldvv.s:31096  .debug_str:0000000000028000 .LASF858
C:\Users\CYMR90~1\AppData\Local\Temp\ccioldvv.s:24397  .debug_str:000000000000d5b9 .LASF859
C:\Users\CYMR90~1\AppData\Local\Temp\ccioldvv.s:25343  .debug_str:0000000000010fa3 .LASF860
C:\Users\CYMR90~1\AppData\Local\Temp\ccioldvv.s:29488  .debug_str:0000000000021a02 .LASF861
C:\Users\CYMR90~1\AppData\Local\Temp\ccioldvv.s:26045  .debug_str:0000000000013e18 .LASF862
C:\Users\CYMR90~1\AppData\Local\Temp\ccioldvv.s:21419  .debug_str:00000000000014cc .LASF863
C:\Users\CYMR90~1\AppData\Local\Temp\ccioldvv.s:22083  .debug_str:0000000000003e8c .LASF864
C:\Users\CYMR90~1\AppData\Local\Temp\ccioldvv.s:22477  .debug_str:000000000000581b .LASF865
C:\Users\CYMR90~1\AppData\Local\Temp\ccioldvv.s:23673  .debug_str:000000000000a4ea .LASF866
C:\Users\CYMR90~1\AppData\Local\Temp\ccioldvv.s:23145  .debug_str:000000000000834a .LASF867
C:\Users\CYMR90~1\AppData\Local\Temp\ccioldvv.s:28374  .debug_str:000000000001d59f .LASF868
C:\Users\CYMR90~1\AppData\Local\Temp\ccioldvv.s:29002  .debug_str:000000000001fc1d .LASF869
C:\Users\CYMR90~1\AppData\Local\Temp\ccioldvv.s:30088  .debug_str:0000000000023e26 .LASF870
C:\Users\CYMR90~1\AppData\Local\Temp\ccioldvv.s:23313  .debug_str:0000000000008e0d .LASF871
C:\Users\CYMR90~1\AppData\Local\Temp\ccioldvv.s:23749  .debug_str:000000000000aa35 .LASF872
C:\Users\CYMR90~1\AppData\Local\Temp\ccioldvv.s:28212  .debug_str:000000000001ca71 .LASF873
C:\Users\CYMR90~1\AppData\Local\Temp\ccioldvv.s:30790  .debug_str:0000000000026c99 .LASF874
C:\Users\CYMR90~1\AppData\Local\Temp\ccioldvv.s:25555  .debug_str:0000000000011dd7 .LASF875
C:\Users\CYMR90~1\AppData\Local\Temp\ccioldvv.s:26241  .debug_str:00000000000149e5 .LASF876
C:\Users\CYMR90~1\AppData\Local\Temp\ccioldvv.s:23547  .debug_str:0000000000009c9a .LASF877
C:\Users\CYMR90~1\AppData\Local\Temp\ccioldvv.s:27918  .debug_str:000000000001b7d8 .LASF878
C:\Users\CYMR90~1\AppData\Local\Temp\ccioldvv.s:31560  .debug_str:0000000000029dfb .LASF879
C:\Users\CYMR90~1\AppData\Local\Temp\ccioldvv.s:26882  .debug_str:0000000000017458 .LASF880
C:\Users\CYMR90~1\AppData\Local\Temp\ccioldvv.s:22407  .debug_str:00000000000053d7 .LASF881
C:\Users\CYMR90~1\AppData\Local\Temp\ccioldvv.s:25777  .debug_str:0000000000012c8b .LASF882
C:\Users\CYMR90~1\AppData\Local\Temp\ccioldvv.s:28890  .debug_str:000000000001f57f .LASF883
C:\Users\CYMR90~1\AppData\Local\Temp\ccioldvv.s:29074  .debug_str:0000000000020074 .LASF884
C:\Users\CYMR90~1\AppData\Local\Temp\ccioldvv.s:24691  .debug_str:000000000000e78c .LASF885
C:\Users\CYMR90~1\AppData\Local\Temp\ccioldvv.s:27924  .debug_str:000000000001b830 .LASF886
C:\Users\CYMR90~1\AppData\Local\Temp\ccioldvv.s:23417  .debug_str:0000000000009419 .LASF887
C:\Users\CYMR90~1\AppData\Local\Temp\ccioldvv.s:30036  .debug_str:0000000000023b37 .LASF888
C:\Users\CYMR90~1\AppData\Local\Temp\ccioldvv.s:25715  .debug_str:000000000001284c .LASF889
C:\Users\CYMR90~1\AppData\Local\Temp\ccioldvv.s:29966  .debug_str:000000000002367e .LASF890
C:\Users\CYMR90~1\AppData\Local\Temp\ccioldvv.s:22229  .debug_str:0000000000004922 .LASF891
C:\Users\CYMR90~1\AppData\Local\Temp\ccioldvv.s:24693  .debug_str:000000000000e7a6 .LASF892
C:\Users\CYMR90~1\AppData\Local\Temp\ccioldvv.s:30736  .debug_str:0000000000026975 .LASF893
C:\Users\CYMR90~1\AppData\Local\Temp\ccioldvv.s:30130  .debug_str:000000000002407d .LASF894
C:\Users\CYMR90~1\AppData\Local\Temp\ccioldvv.s:21389  .debug_str:0000000000001301 .LASF895
C:\Users\CYMR90~1\AppData\Local\Temp\ccioldvv.s:26101  .debug_str:000000000001413e .LASF896
C:\Users\CYMR90~1\AppData\Local\Temp\ccioldvv.s:22319  .debug_str:0000000000004e97 .LASF897
C:\Users\CYMR90~1\AppData\Local\Temp\ccioldvv.s:23537  .debug_str:0000000000009c06 .LASF898
C:\Users\CYMR90~1\AppData\Local\Temp\ccioldvv.s:31036  .debug_str:0000000000027c1b .LASF899
C:\Users\CYMR90~1\AppData\Local\Temp\ccioldvv.s:23863  .debug_str:000000000000b212 .LASF900
C:\Users\CYMR90~1\AppData\Local\Temp\ccioldvv.s:27968  .debug_str:000000000001ba8b .LASF901
C:\Users\CYMR90~1\AppData\Local\Temp\ccioldvv.s:31574  .debug_str:0000000000029ecb .LASF902
C:\Users\CYMR90~1\AppData\Local\Temp\ccioldvv.s:30320  .debug_str:0000000000024da6 .LASF903
C:\Users\CYMR90~1\AppData\Local\Temp\ccioldvv.s:31182  .debug_str:000000000002865f .LASF904
C:\Users\CYMR90~1\AppData\Local\Temp\ccioldvv.s:25761  .debug_str:0000000000012b7d .LASF905
C:\Users\CYMR90~1\AppData\Local\Temp\ccioldvv.s:23193  .debug_str:0000000000008653 .LASF906
C:\Users\CYMR90~1\AppData\Local\Temp\ccioldvv.s:31752  .debug_str:000000000002a950 .LASF907
C:\Users\CYMR90~1\AppData\Local\Temp\ccioldvv.s:24687  .debug_str:000000000000e749 .LASF908
C:\Users\CYMR90~1\AppData\Local\Temp\ccioldvv.s:31012  .debug_str:0000000000027a5b .LASF909
C:\Users\CYMR90~1\AppData\Local\Temp\ccioldvv.s:25315  .debug_str:0000000000010e35 .LASF910
C:\Users\CYMR90~1\AppData\Local\Temp\ccioldvv.s:21783  .debug_str:0000000000002b7c .LASF911
C:\Users\CYMR90~1\AppData\Local\Temp\ccioldvv.s:21361  .debug_str:00000000000011a0 .LASF912
C:\Users\CYMR90~1\AppData\Local\Temp\ccioldvv.s:29408  .debug_str:0000000000021524 .LASF913
C:\Users\CYMR90~1\AppData\Local\Temp\ccioldvv.s:30300  .debug_str:0000000000024c5d .LASF914
C:\Users\CYMR90~1\AppData\Local\Temp\ccioldvv.s:24247  .debug_str:000000000000cbb2 .LASF915
C:\Users\CYMR90~1\AppData\Local\Temp\ccioldvv.s:24553  .debug_str:000000000000df0c .LASF916
C:\Users\CYMR90~1\AppData\Local\Temp\ccioldvv.s:25123  .debug_str:0000000000010216 .LASF917
C:\Users\CYMR90~1\AppData\Local\Temp\ccioldvv.s:31826  .debug_str:000000000002ad71 .LASF918
C:\Users\CYMR90~1\AppData\Local\Temp\ccioldvv.s:21347  .debug_str:00000000000010c3 .LASF919
C:\Users\CYMR90~1\AppData\Local\Temp\ccioldvv.s:23849  .debug_str:000000000000b124 .LASF920
C:\Users\CYMR90~1\AppData\Local\Temp\ccioldvv.s:30254  .debug_str:0000000000024906 .LASF921
C:\Users\CYMR90~1\AppData\Local\Temp\ccioldvv.s:27670  .debug_str:000000000001a79f .LASF922
C:\Users\CYMR90~1\AppData\Local\Temp\ccioldvv.s:30770  .debug_str:0000000000026b6a .LASF923
C:\Users\CYMR90~1\AppData\Local\Temp\ccioldvv.s:26810  .debug_str:0000000000017037 .LASF924
C:\Users\CYMR90~1\AppData\Local\Temp\ccioldvv.s:21743  .debug_str:00000000000028c2 .LASF925
C:\Users\CYMR90~1\AppData\Local\Temp\ccioldvv.s:27880  .debug_str:000000000001b591 .LASF926
C:\Users\CYMR90~1\AppData\Local\Temp\ccioldvv.s:21461  .debug_str:00000000000017be .LASF927
C:\Users\CYMR90~1\AppData\Local\Temp\ccioldvv.s:26267  .debug_str:0000000000014b68 .LASF928
C:\Users\CYMR90~1\AppData\Local\Temp\ccioldvv.s:28950  .debug_str:000000000001f8b9 .LASF929
C:\Users\CYMR90~1\AppData\Local\Temp\ccioldvv.s:32078  .debug_str:000000000002bda5 .LASF930
C:\Users\CYMR90~1\AppData\Local\Temp\ccioldvv.s:32298  .debug_str:000000000002cc77 .LASF931
C:\Users\CYMR90~1\AppData\Local\Temp\ccioldvv.s:28848  .debug_str:000000000001f304 .LASF932
C:\Users\CYMR90~1\AppData\Local\Temp\ccioldvv.s:31554  .debug_str:0000000000029d88 .LASF933
C:\Users\CYMR90~1\AppData\Local\Temp\ccioldvv.s:26607  .debug_str:00000000000160e9 .LASF934
C:\Users\CYMR90~1\AppData\Local\Temp\ccioldvv.s:27438  .debug_str:000000000001978e .LASF935
C:\Users\CYMR90~1\AppData\Local\Temp\ccioldvv.s:26487  .debug_str:00000000000158ea .LASF936
C:\Users\CYMR90~1\AppData\Local\Temp\ccioldvv.s:30394  .debug_str:00000000000252c4 .LASF937
C:\Users\CYMR90~1\AppData\Local\Temp\ccioldvv.s:21269  .debug_str:0000000000000c08 .LASF938
C:\Users\CYMR90~1\AppData\Local\Temp\ccioldvv.s:29220  .debug_str:000000000002096d .LASF939
C:\Users\CYMR90~1\AppData\Local\Temp\ccioldvv.s:30476  .debug_str:00000000000258f8 .LASF940
C:\Users\CYMR90~1\AppData\Local\Temp\ccioldvv.s:23991  .debug_str:000000000000ba56 .LASF941
C:\Users\CYMR90~1\AppData\Local\Temp\ccioldvv.s:27658  .debug_str:000000000001a6e6 .LASF942
C:\Users\CYMR90~1\AppData\Local\Temp\ccioldvv.s:24733  .debug_str:000000000000ea03 .LASF943
C:\Users\CYMR90~1\AppData\Local\Temp\ccioldvv.s:30596  .debug_str:00000000000260f3 .LASF944
C:\Users\CYMR90~1\AppData\Local\Temp\ccioldvv.s:28062  .debug_str:000000000001c0be .LASF945
C:\Users\CYMR90~1\AppData\Local\Temp\ccioldvv.s:24935  .debug_str:000000000000f620 .LASF946
C:\Users\CYMR90~1\AppData\Local\Temp\ccioldvv.s:26956  .debug_str:00000000000178cb .LASF947
C:\Users\CYMR90~1\AppData\Local\Temp\ccioldvv.s:28576  .debug_str:000000000001e2b6 .LASF948
C:\Users\CYMR90~1\AppData\Local\Temp\ccioldvv.s:25291  .debug_str:0000000000010c73 .LASF949
C:\Users\CYMR90~1\AppData\Local\Temp\ccioldvv.s:24303  .debug_str:000000000000cefc .LASF950
C:\Users\CYMR90~1\AppData\Local\Temp\ccioldvv.s:22899  .debug_str:000000000000721b .LASF952
C:\Users\CYMR90~1\AppData\Local\Temp\ccioldvv.s:26413  .debug_str:00000000000154b3 .LASF953
C:\Users\CYMR90~1\AppData\Local\Temp\ccioldvv.s:24337  .debug_str:000000000000d147 .LASF954
C:\Users\CYMR90~1\AppData\Local\Temp\ccioldvv.s:32290  .debug_str:000000000002cc02 .LASF955
C:\Users\CYMR90~1\AppData\Local\Temp\ccioldvv.s:31454  .debug_str:000000000002977d .LASF956
C:\Users\CYMR90~1\AppData\Local\Temp\ccioldvv.s:31544  .debug_str:0000000000029cf2 .LASF960
C:\Users\CYMR90~1\AppData\Local\Temp\ccioldvv.s:23443  .debug_str:0000000000009605 .LASF961
C:\Users\CYMR90~1\AppData\Local\Temp\ccioldvv.s:30800  .debug_str:0000000000026d2f .LASF962
C:\Users\CYMR90~1\AppData\Local\Temp\ccioldvv.s:25527  .debug_str:0000000000011c43 .LASF963
C:\Users\CYMR90~1\AppData\Local\Temp\ccioldvv.s:22925  .debug_str:0000000000007402 .LASF964
C:\Users\CYMR90~1\AppData\Local\Temp\ccioldvv.s:29586  .debug_str:000000000002201a .LASF965
C:\Users\CYMR90~1\AppData\Local\Temp\ccioldvv.s:27874  .debug_str:000000000001b516 .LASF966
C:\Users\CYMR90~1\AppData\Local\Temp\ccioldvv.s:30742  .debug_str:00000000000269d1 .LASF967
C:\Users\CYMR90~1\AppData\Local\Temp\ccioldvv.s:31870  .debug_str:000000000002b02b .LASF968
C:\Users\CYMR90~1\AppData\Local\Temp\ccioldvv.s:22649  .debug_str:0000000000006206 .LASF969
C:\Users\CYMR90~1\AppData\Local\Temp\ccioldvv.s:26141  .debug_str:00000000000143fe .LASF970
C:\Users\CYMR90~1\AppData\Local\Temp\ccioldvv.s:31956  .debug_str:000000000002b5b0 .LASF971
C:\Users\CYMR90~1\AppData\Local\Temp\ccioldvv.s:24743  .debug_str:000000000000eacf .LASF972
C:\Users\CYMR90~1\AppData\Local\Temp\ccioldvv.s:24713  .debug_str:000000000000e8e7 .LASF973
C:\Users\CYMR90~1\AppData\Local\Temp\ccioldvv.s:24361  .debug_str:000000000000d2db .LASF974
C:\Users\CYMR90~1\AppData\Local\Temp\ccioldvv.s:26743  .debug_str:000000000001697b .LASF975
C:\Users\CYMR90~1\AppData\Local\Temp\ccioldvv.s:32324  .debug_str:000000000002cdb6 .LASF976
C:\Users\CYMR90~1\AppData\Local\Temp\ccioldvv.s:24299  .debug_str:000000000000ceb7 .LASF977
C:\Users\CYMR90~1\AppData\Local\Temp\ccioldvv.s:32352  .debug_str:000000000002d01d .LASF978
C:\Users\CYMR90~1\AppData\Local\Temp\ccioldvv.s:30578  .debug_str:0000000000025fba .LASF979
C:\Users\CYMR90~1\AppData\Local\Temp\ccioldvv.s:30636  .debug_str:0000000000026376 .LASF980
C:\Users\CYMR90~1\AppData\Local\Temp\ccioldvv.s:24797  .debug_str:000000000000edfd .LASF981
C:\Users\CYMR90~1\AppData\Local\Temp\ccioldvv.s:22355  .debug_str:00000000000050bc .LASF982
C:\Users\CYMR90~1\AppData\Local\Temp\ccioldvv.s:25551  .debug_str:0000000000011dba .LASF983
C:\Users\CYMR90~1\AppData\Local\Temp\ccioldvv.s:28284  .debug_str:000000000001cf8f .LASF984
C:\Users\CYMR90~1\AppData\Local\Temp\ccioldvv.s:28300  .debug_str:000000000001d0a1 .LASF985
C:\Users\CYMR90~1\AppData\Local\Temp\ccioldvv.s:29878  .debug_str:0000000000023185 .LASF986
C:\Users\CYMR90~1\AppData\Local\Temp\ccioldvv.s:26555  .debug_str:0000000000015d5b .LASF987
C:\Users\CYMR90~1\AppData\Local\Temp\ccioldvv.s:21801  .debug_str:0000000000002c8f .LASF988
C:\Users\CYMR90~1\AppData\Local\Temp\ccioldvv.s:29790  .debug_str:0000000000022cab .LASF989
C:\Users\CYMR90~1\AppData\Local\Temp\ccioldvv.s:27256  .debug_str:0000000000018b22 .LASF990
C:\Users\CYMR90~1\AppData\Local\Temp\ccioldvv.s:24295  .debug_str:000000000000ce8f .LASF991
C:\Users\CYMR90~1\AppData\Local\Temp\ccioldvv.s:30744  .debug_str:00000000000269f9 .LASF992
C:\Users\CYMR90~1\AppData\Local\Temp\ccioldvv.s:22943  .debug_str:0000000000007511 .LASF993
C:\Users\CYMR90~1\AppData\Local\Temp\ccioldvv.s:30562  .debug_str:0000000000025eb3 .LASF994
C:\Users\CYMR90~1\AppData\Local\Temp\ccioldvv.s:27340  .debug_str:00000000000191e0 .LASF995
C:\Users\CYMR90~1\AppData\Local\Temp\ccioldvv.s:31360  .debug_str:000000000002919a .LASF996
C:\Users\CYMR90~1\AppData\Local\Temp\ccioldvv.s:28484  .debug_str:000000000001dc92 .LASF997
C:\Users\CYMR90~1\AppData\Local\Temp\ccioldvv.s:28556  .debug_str:000000000001e163 .LASF998
C:\Users\CYMR90~1\AppData\Local\Temp\ccioldvv.s:21701  .debug_str:00000000000025b5 .LASF999
C:\Users\CYMR90~1\AppData\Local\Temp\ccioldvv.s:22031  .debug_str:0000000000003b6b .LASF1000
C:\Users\CYMR90~1\AppData\Local\Temp\ccioldvv.s:30230  .debug_str:00000000000247a6 .LASF1001
C:\Users\CYMR90~1\AppData\Local\Temp\ccioldvv.s:25131  .debug_str:000000000001029e .LASF1002
C:\Users\CYMR90~1\AppData\Local\Temp\ccioldvv.s:22311  .debug_str:0000000000004e3e .LASF1003
C:\Users\CYMR90~1\AppData\Local\Temp\ccioldvv.s:28102  .debug_str:000000000001c330 .LASF1004
C:\Users\CYMR90~1\AppData\Local\Temp\ccioldvv.s:25505  .debug_str:0000000000011a5e .LASF1005
C:\Users\CYMR90~1\AppData\Local\Temp\ccioldvv.s:24263  .debug_str:000000000000ccd5 .LASF1006
C:\Users\CYMR90~1\AppData\Local\Temp\ccioldvv.s:22623  .debug_str:0000000000006099 .LASF1007
C:\Users\CYMR90~1\AppData\Local\Temp\ccioldvv.s:29582  .debug_str:0000000000021fe2 .LASF1008
C:\Users\CYMR90~1\AppData\Local\Temp\ccioldvv.s:27034  .debug_str:0000000000017dbb .LASF1009
C:\Users\CYMR90~1\AppData\Local\Temp\ccioldvv.s:27188  .debug_str:00000000000186f5 .LASF1010
C:\Users\CYMR90~1\AppData\Local\Temp\ccioldvv.s:24571  .debug_str:000000000000e033 .LASF1011
C:\Users\CYMR90~1\AppData\Local\Temp\ccioldvv.s:28344  .debug_str:000000000001d3de .LASF1012
C:\Users\CYMR90~1\AppData\Local\Temp\ccioldvv.s:24759  .debug_str:000000000000ebc2 .LASF1013
C:\Users\CYMR90~1\AppData\Local\Temp\ccioldvv.s:27456  .debug_str:0000000000019918 .LASF1014
C:\Users\CYMR90~1\AppData\Local\Temp\ccioldvv.s:22029  .debug_str:0000000000003b55 .LASF1015
C:\Users\CYMR90~1\AppData\Local\Temp\ccioldvv.s:22513  .debug_str:0000000000005a1f .LASF1016
C:\Users\CYMR90~1\AppData\Local\Temp\ccioldvv.s:22465  .debug_str:000000000000575e .LASF1017
C:\Users\CYMR90~1\AppData\Local\Temp\ccioldvv.s:30898  .debug_str:000000000002730c .LASF1018
C:\Users\CYMR90~1\AppData\Local\Temp\ccioldvv.s:24807  .debug_str:000000000000ee7f .LASF1019
C:\Users\CYMR90~1\AppData\Local\Temp\ccioldvv.s:21695  .debug_str:000000000000256c .LASF1020
C:\Users\CYMR90~1\AppData\Local\Temp\ccioldvv.s:27072  .debug_str:000000000001800d .LASF1021
C:\Users\CYMR90~1\AppData\Local\Temp\ccioldvv.s:24119  .debug_str:000000000000c34d .LASF1022
C:\Users\CYMR90~1\AppData\Local\Temp\ccioldvv.s:30820  .debug_str:0000000000026e4d .LASF1023
C:\Users\CYMR90~1\AppData\Local\Temp\ccioldvv.s:23351  .debug_str:0000000000009054 .LASF1024
C:\Users\CYMR90~1\AppData\Local\Temp\ccioldvv.s:27646  .debug_str:000000000001a65b .LASF1025
C:\Users\CYMR90~1\AppData\Local\Temp\ccioldvv.s:25319  .debug_str:0000000000010e76 .LASF1026
C:\Users\CYMR90~1\AppData\Local\Temp\ccioldvv.s:26259  .debug_str:0000000000014ab4 .LASF1027
C:\Users\CYMR90~1\AppData\Local\Temp\ccioldvv.s:28424  .debug_str:000000000001d8f5 .LASF1028
C:\Users\CYMR90~1\AppData\Local\Temp\ccioldvv.s:28808  .debug_str:000000000001f074 .LASF1029
C:\Users\CYMR90~1\AppData\Local\Temp\ccioldvv.s:30106  .debug_str:0000000000023f3b .LASF1030
C:\Users\CYMR90~1\AppData\Local\Temp\ccioldvv.s:29174  .debug_str:00000000000206d8 .LASF1031
C:\Users\CYMR90~1\AppData\Local\Temp\ccioldvv.s:31456  .debug_str:00000000000297e5 .LASF1032
C:\Users\CYMR90~1\AppData\Local\Temp\ccioldvv.s:23497  .debug_str:0000000000009982 .LASF1033
C:\Users\CYMR90~1\AppData\Local\Temp\ccioldvv.s:22363  .debug_str:000000000000513e .LASF1034
C:\Users\CYMR90~1\AppData\Local\Temp\ccioldvv.s:27384  .debug_str:0000000000019467 .LASF1035
C:\Users\CYMR90~1\AppData\Local\Temp\ccioldvv.s:27648  .debug_str:000000000001a670 .LASF1036
C:\Users\CYMR90~1\AppData\Local\Temp\ccioldvv.s:29892  .debug_str:000000000002321c .LASF1037
C:\Users\CYMR90~1\AppData\Local\Temp\ccioldvv.s:24977  .debug_str:000000000000f94f .LASF1038
C:\Users\CYMR90~1\AppData\Local\Temp\ccioldvv.s:28526  .debug_str:000000000001dfb6 .LASF1039
C:\Users\CYMR90~1\AppData\Local\Temp\ccioldvv.s:26427  .debug_str:00000000000155b3 .LASF1040
C:\Users\CYMR90~1\AppData\Local\Temp\ccioldvv.s:24883  .debug_str:000000000000f2fd .LASF1041
C:\Users\CYMR90~1\AppData\Local\Temp\ccioldvv.s:30628  .debug_str:00000000000262ff .LASF1042
C:\Users\CYMR90~1\AppData\Local\Temp\ccioldvv.s:25133  .debug_str:00000000000102b5 .LASF1043
C:\Users\CYMR90~1\AppData\Local\Temp\ccioldvv.s:21101  .debug_str:00000000000001ad .LASF1044
C:\Users\CYMR90~1\AppData\Local\Temp\ccioldvv.s:23363  .debug_str:00000000000090e6 .LASF1045
C:\Users\CYMR90~1\AppData\Local\Temp\ccioldvv.s:27576  .debug_str:000000000001a0d7 .LASF1046
C:\Users\CYMR90~1\AppData\Local\Temp\ccioldvv.s:26675  .debug_str:00000000000164e3 .LASF1047
C:\Users\CYMR90~1\AppData\Local\Temp\ccioldvv.s:29938  .debug_str:00000000000234ba .LASF1048
C:\Users\CYMR90~1\AppData\Local\Temp\ccioldvv.s:28774  .debug_str:000000000001ee79 .LASF1049
C:\Users\CYMR90~1\AppData\Local\Temp\ccioldvv.s:21877  .debug_str:000000000000317b .LASF1050
C:\Users\CYMR90~1\AppData\Local\Temp\ccioldvv.s:28784  .debug_str:000000000001ef04 .LASF1051
C:\Users\CYMR90~1\AppData\Local\Temp\ccioldvv.s:28984  .debug_str:000000000001faf8 .LASF1052
C:\Users\CYMR90~1\AppData\Local\Temp\ccioldvv.s:28166  .debug_str:000000000001c6ba .LASF1053
C:\Users\CYMR90~1\AppData\Local\Temp\ccioldvv.s:29834  .debug_str:0000000000022f25 .LASF1054
C:\Users\CYMR90~1\AppData\Local\Temp\ccioldvv.s:25803  .debug_str:0000000000012e21 .LASF1055
C:\Users\CYMR90~1\AppData\Local\Temp\ccioldvv.s:24739  .debug_str:000000000000ea7d .LASF1056
C:\Users\CYMR90~1\AppData\Local\Temp\ccioldvv.s:31074  .debug_str:0000000000027eb3 .LASF1057
C:\Users\CYMR90~1\AppData\Local\Temp\ccioldvv.s:31670  .debug_str:000000000002a3e2 .LASF1058
C:\Users\CYMR90~1\AppData\Local\Temp\ccioldvv.s:30392  .debug_str:00000000000252a2 .LASF1059
C:\Users\CYMR90~1\AppData\Local\Temp\ccioldvv.s:23689  .debug_str:000000000000a5e1 .LASF1060
C:\Users\CYMR90~1\AppData\Local\Temp\ccioldvv.s:23171  .debug_str:00000000000084fc .LASF1061
C:\Users\CYMR90~1\AppData\Local\Temp\ccioldvv.s:21233  .debug_str:000000000000096d .LASF1062
C:\Users\CYMR90~1\AppData\Local\Temp\ccioldvv.s:26179  .debug_str:0000000000014600 .LASF1063
C:\Users\CYMR90~1\AppData\Local\Temp\ccioldvv.s:22081  .debug_str:0000000000003e75 .LASF1064
C:\Users\CYMR90~1\AppData\Local\Temp\ccioldvv.s:21171  .debug_str:00000000000005b0 .LASF1065
C:\Users\CYMR90~1\AppData\Local\Temp\ccioldvv.s:32358  .debug_str:000000000002d066 .LASF1066
C:\Users\CYMR90~1\AppData\Local\Temp\ccioldvv.s:30232  .debug_str:00000000000247be .LASF1067
C:\Users\CYMR90~1\AppData\Local\Temp\ccioldvv.s:26741  .debug_str:0000000000016961 .LASF1068
C:\Users\CYMR90~1\AppData\Local\Temp\ccioldvv.s:28316  .debug_str:000000000001d217 .LASF1069
C:\Users\CYMR90~1\AppData\Local\Temp\ccioldvv.s:21287  .debug_str:0000000000000cfd .LASF1070
C:\Users\CYMR90~1\AppData\Local\Temp\ccioldvv.s:23629  .debug_str:000000000000a1fe .LASF1071
C:\Users\CYMR90~1\AppData\Local\Temp\ccioldvv.s:29734  .debug_str:00000000000228ef .LASF1072
C:\Users\CYMR90~1\AppData\Local\Temp\ccioldvv.s:28280  .debug_str:000000000001cf4d .LASF1073
C:\Users\CYMR90~1\AppData\Local\Temp\ccioldvv.s:31324  .debug_str:0000000000028f30 .LASF1074
C:\Users\CYMR90~1\AppData\Local\Temp\ccioldvv.s:26890  .debug_str:00000000000174b9 .LASF1075
C:\Users\CYMR90~1\AppData\Local\Temp\ccioldvv.s:21737  .debug_str:0000000000002872 .LASF1076
C:\Users\CYMR90~1\AppData\Local\Temp\ccioldvv.s:31758  .debug_str:000000000002a99f .LASF1077
C:\Users\CYMR90~1\AppData\Local\Temp\ccioldvv.s:22685  .debug_str:000000000000643f .LASF1078
C:\Users\CYMR90~1\AppData\Local\Temp\ccioldvv.s:29218  .debug_str:000000000002095b .LASF1079
C:\Users\CYMR90~1\AppData\Local\Temp\ccioldvv.s:29308  .debug_str:0000000000020ed4 .LASF1080
C:\Users\CYMR90~1\AppData\Local\Temp\ccioldvv.s:28082  .debug_str:000000000001c201 .LASF1081
C:\Users\CYMR90~1\AppData\Local\Temp\ccioldvv.s:30928  .debug_str:0000000000027593 .LASF1082
C:\Users\CYMR90~1\AppData\Local\Temp\ccioldvv.s:26369  .debug_str:000000000001523a .LASF1083
C:\Users\CYMR90~1\AppData\Local\Temp\ccioldvv.s:29432  .debug_str:00000000000216c2 .LASF1084
C:\Users\CYMR90~1\AppData\Local\Temp\ccioldvv.s:22385  .debug_str:000000000000528f .LASF1085
C:\Users\CYMR90~1\AppData\Local\Temp\ccioldvv.s:21495  .debug_str:00000000000019e6 .LASF1086
C:\Users\CYMR90~1\AppData\Local\Temp\ccioldvv.s:24615  .debug_str:000000000000e297 .LASF1087
C:\Users\CYMR90~1\AppData\Local\Temp\ccioldvv.s:30634  .debug_str:0000000000026367 .LASF1088
C:\Users\CYMR90~1\AppData\Local\Temp\ccioldvv.s:29728  .debug_str:0000000000022897 .LASF1089
C:\Users\CYMR90~1\AppData\Local\Temp\ccioldvv.s:21341  .debug_str:0000000000001067 .LASF1090
C:\Users\CYMR90~1\AppData\Local\Temp\ccioldvv.s:32286  .debug_str:000000000002cbaa .LASF1091
C:\Users\CYMR90~1\AppData\Local\Temp\ccioldvv.s:31034  .debug_str:0000000000027c03 .LASF1092
C:\Users\CYMR90~1\AppData\Local\Temp\ccioldvv.s:24957  .debug_str:000000000000f759 .LASF1093
C:\Users\CYMR90~1\AppData\Local\Temp\ccioldvv.s:30678  .debug_str:00000000000265cc .LASF1094
C:\Users\CYMR90~1\AppData\Local\Temp\ccioldvv.s:26443  .debug_str:0000000000015670 .LASF1095
C:\Users\CYMR90~1\AppData\Local\Temp\ccioldvv.s:27898  .debug_str:000000000001b691 .LASF1096
C:\Users\CYMR90~1\AppData\Local\Temp\ccioldvv.s:28428  .debug_str:000000000001d947 .LASF1097
C:\Users\CYMR90~1\AppData\Local\Temp\ccioldvv.s:22673  .debug_str:000000000000639a .LASF1098
C:\Users\CYMR90~1\AppData\Local\Temp\ccioldvv.s:25823  .debug_str:0000000000012f5a .LASF1099
C:\Users\CYMR90~1\AppData\Local\Temp\ccioldvv.s:25127  .debug_str:000000000001026d .LASF1100
C:\Users\CYMR90~1\AppData\Local\Temp\ccioldvv.s:30020  .debug_str:0000000000023a3b .LASF1101
C:\Users\CYMR90~1\AppData\Local\Temp\ccioldvv.s:24309  .debug_str:000000000000cf56 .LASF1102
C:\Users\CYMR90~1\AppData\Local\Temp\ccioldvv.s:29672  .debug_str:00000000000224f0 .LASF1103
C:\Users\CYMR90~1\AppData\Local\Temp\ccioldvv.s:31270  .debug_str:0000000000028c45 .LASF1104
C:\Users\CYMR90~1\AppData\Local\Temp\ccioldvv.s:29108  .debug_str:0000000000020253 .LASF1105
C:\Users\CYMR90~1\AppData\Local\Temp\ccioldvv.s:26007  .debug_str:0000000000013ba7 .LASF1106
C:\Users\CYMR90~1\AppData\Local\Temp\ccioldvv.s:29934  .debug_str:0000000000023484 .LASF1107
C:\Users\CYMR90~1\AppData\Local\Temp\ccioldvv.s:27818  .debug_str:000000000001b180 .LASF1108
C:\Users\CYMR90~1\AppData\Local\Temp\ccioldvv.s:22689  .debug_str:000000000000647b .LASF1109
C:\Users\CYMR90~1\AppData\Local\Temp\ccioldvv.s:23659  .debug_str:000000000000a3d7 .LASF1110
C:\Users\CYMR90~1\AppData\Local\Temp\ccioldvv.s:21563  .debug_str:0000000000001e0e .LASF1111
C:\Users\CYMR90~1\AppData\Local\Temp\ccioldvv.s:22779  .debug_str:0000000000006a16 .LASF1112
C:\Users\CYMR90~1\AppData\Local\Temp\ccioldvv.s:23885  .debug_str:000000000000b365 .LASF1113
C:\Users\CYMR90~1\AppData\Local\Temp\ccioldvv.s:22431  .debug_str:0000000000005542 .LASF1114
C:\Users\CYMR90~1\AppData\Local\Temp\ccioldvv.s:23447  .debug_str:0000000000009628 .LASF1115
C:\Users\CYMR90~1\AppData\Local\Temp\ccioldvv.s:31114  .debug_str:000000000002816c .LASF1116
C:\Users\CYMR90~1\AppData\Local\Temp\ccioldvv.s:31618  .debug_str:000000000002a115 .LASF1117
C:\Users\CYMR90~1\AppData\Local\Temp\ccioldvv.s:22591  .debug_str:0000000000005ea5 .LASF1118
C:\Users\CYMR90~1\AppData\Local\Temp\ccioldvv.s:27050  .debug_str:0000000000017eb7 .LASF1119
C:\Users\CYMR90~1\AppData\Local\Temp\ccioldvv.s:23143  .debug_str:000000000000832d .LASF1120
C:\Users\CYMR90~1\AppData\Local\Temp\ccioldvv.s:23345  .debug_str:0000000000008ff1 .LASF1121
C:\Users\CYMR90~1\AppData\Local\Temp\ccioldvv.s:25943  .debug_str:00000000000137c3 .LASF1122
C:\Users\CYMR90~1\AppData\Local\Temp\ccioldvv.s:25577  .debug_str:0000000000011f45 .LASF1123
C:\Users\CYMR90~1\AppData\Local\Temp\ccioldvv.s:29192  .debug_str:00000000000207c6 .LASF1124
C:\Users\CYMR90~1\AppData\Local\Temp\ccioldvv.s:26373  .debug_str:0000000000015263 .LASF1125
C:\Users\CYMR90~1\AppData\Local\Temp\ccioldvv.s:26463  .debug_str:00000000000157a9 .LASF1126
C:\Users\CYMR90~1\AppData\Local\Temp\ccioldvv.s:29824  .debug_str:0000000000022e87 .LASF1127
C:\Users\CYMR90~1\AppData\Local\Temp\ccioldvv.s:30926  .debug_str:000000000002757e .LASF1128
C:\Users\CYMR90~1\AppData\Local\Temp\ccioldvv.s:22479  .debug_str:0000000000005828 .LASF1129
C:\Users\CYMR90~1\AppData\Local\Temp\ccioldvv.s:26461  .debug_str:0000000000015794 .LASF1130
C:\Users\CYMR90~1\AppData\Local\Temp\ccioldvv.s:31452  .debug_str:0000000000029768 .LASF1131
C:\Users\CYMR90~1\AppData\Local\Temp\ccioldvv.s:31860  .debug_str:000000000002afa7 .LASF1132
C:\Users\CYMR90~1\AppData\Local\Temp\ccioldvv.s:27158  .debug_str:000000000001851b .LASF1133
C:\Users\CYMR90~1\AppData\Local\Temp\ccioldvv.s:29988  .debug_str:0000000000023806 .LASF1134
C:\Users\CYMR90~1\AppData\Local\Temp\ccioldvv.s:23033  .debug_str:0000000000007b10 .LASF1135
C:\Users\CYMR90~1\AppData\Local\Temp\ccioldvv.s:22253  .debug_str:0000000000004a95 .LASF1136
C:\Users\CYMR90~1\AppData\Local\Temp\ccioldvv.s:22085  .debug_str:0000000000003e97 .LASF1137
C:\Users\CYMR90~1\AppData\Local\Temp\ccioldvv.s:31462  .debug_str:0000000000029844 .LASF1138
C:\Users\CYMR90~1\AppData\Local\Temp\ccioldvv.s:28560  .debug_str:000000000001e19c .LASF1139
C:\Users\CYMR90~1\AppData\Local\Temp\ccioldvv.s:31448  .debug_str:000000000002973b .LASF1140
C:\Users\CYMR90~1\AppData\Local\Temp\ccioldvv.s:21145  .debug_str:0000000000000452 .LASF1141
C:\Users\CYMR90~1\AppData\Local\Temp\ccioldvv.s:25365  .debug_str:00000000000110f0 .LASF1142
C:\Users\CYMR90~1\AppData\Local\Temp\ccioldvv.s:24621  .debug_str:000000000000e30a .LASF1143
C:\Users\CYMR90~1\AppData\Local\Temp\ccioldvv.s:30984  .debug_str:00000000000278bc .LASF1144
C:\Users\CYMR90~1\AppData\Local\Temp\ccioldvv.s:29152  .debug_str:0000000000020510 .LASF1145
C:\Users\CYMR90~1\AppData\Local\Temp\ccioldvv.s:24155  .debug_str:000000000000c565 .LASF1146
C:\Users\CYMR90~1\AppData\Local\Temp\ccioldvv.s:32282  .debug_str:000000000002cb68 .LASF1147
C:\Users\CYMR90~1\AppData\Local\Temp\ccioldvv.s:26914  .debug_str:0000000000017619 .LASF1148
C:\Users\CYMR90~1\AppData\Local\Temp\ccioldvv.s:27166  .debug_str:00000000000185c8 .LASF1149
C:\Users\CYMR90~1\AppData\Local\Temp\ccioldvv.s:27916  .debug_str:000000000001b79d .LASF1150
C:\Users\CYMR90~1\AppData\Local\Temp\ccioldvv.s:21565  .debug_str:0000000000001e2c .LASF1151
C:\Users\CYMR90~1\AppData\Local\Temp\ccioldvv.s:28334  .debug_str:000000000001d349 .LASF1152
C:\Users\CYMR90~1\AppData\Local\Temp\ccioldvv.s:23469  .debug_str:0000000000009751 .LASF1153
C:\Users\CYMR90~1\AppData\Local\Temp\ccioldvv.s:29446  .debug_str:0000000000021774 .LASF1154
C:\Users\CYMR90~1\AppData\Local\Temp\ccioldvv.s:28690  .debug_str:000000000001e9bd .LASF1155
C:\Users\CYMR90~1\AppData\Local\Temp\ccioldvv.s:22367  .debug_str:000000000000516a .LASF1156
C:\Users\CYMR90~1\AppData\Local\Temp\ccioldvv.s:28520  .debug_str:000000000001df3b .LASF1157
C:\Users\CYMR90~1\AppData\Local\Temp\ccioldvv.s:23903  .debug_str:000000000000b455 .LASF1158
C:\Users\CYMR90~1\AppData\Local\Temp\ccioldvv.s:31636  .debug_str:000000000002a24c .LASF1159
C:\Users\CYMR90~1\AppData\Local\Temp\ccioldvv.s:21445  .debug_str:0000000000001655 .LASF1160
C:\Users\CYMR90~1\AppData\Local\Temp\ccioldvv.s:31718  .debug_str:000000000002a71f .LASF1161
C:\Users\CYMR90~1\AppData\Local\Temp\ccioldvv.s:31402  .debug_str:0000000000029405 .LASF1162
C:\Users\CYMR90~1\AppData\Local\Temp\ccioldvv.s:28414  .debug_str:000000000001d87c .LASF1163
C:\Users\CYMR90~1\AppData\Local\Temp\ccioldvv.s:27544  .debug_str:0000000000019ee5 .LASF1164
C:\Users\CYMR90~1\AppData\Local\Temp\ccioldvv.s:24441  .debug_str:000000000000d8a4 .LASF1165
C:\Users\CYMR90~1\AppData\Local\Temp\ccioldvv.s:29078  .debug_str:00000000000200b4 .LASF1166
C:\Users\CYMR90~1\AppData\Local\Temp\ccioldvv.s:25327  .debug_str:0000000000010edf .LASF1167
C:\Users\CYMR90~1\AppData\Local\Temp\ccioldvv.s:23467  .debug_str:0000000000009747 .LASF1168
C:\Users\CYMR90~1\AppData\Local\Temp\ccioldvv.s:26405  .debug_str:0000000000015454 .LASF1169
C:\Users\CYMR90~1\AppData\Local\Temp\ccioldvv.s:27756  .debug_str:000000000001ad6b .LASF1170
C:\Users\CYMR90~1\AppData\Local\Temp\ccioldvv.s:27458  .debug_str:000000000001992f .LASF1171
C:\Users\CYMR90~1\AppData\Local\Temp\ccioldvv.s:31664  .debug_str:000000000002a3b0 .LASF1172
C:\Users\CYMR90~1\AppData\Local\Temp\ccioldvv.s:26687  .debug_str:000000000001658e .LASF1173
C:\Users\CYMR90~1\AppData\Local\Temp\ccioldvv.s:21267  .debug_str:0000000000000bfa .LASF1174
C:\Users\CYMR90~1\AppData\Local\Temp\ccioldvv.s:21675  .debug_str:0000000000002433 .LASF1175
C:\Users\CYMR90~1\AppData\Local\Temp\ccioldvv.s:25909  .debug_str:00000000000135a2 .LASF1176
C:\Users\CYMR90~1\AppData\Local\Temp\ccioldvv.s:24259  .debug_str:000000000000cca5 .LASF1177
C:\Users\CYMR90~1\AppData\Local\Temp\ccioldvv.s:28470  .debug_str:000000000001dbe6 .LASF1178
C:\Users\CYMR90~1\AppData\Local\Temp\ccioldvv.s:24851  .debug_str:000000000000f0e9 .LASF1179
C:\Users\CYMR90~1\AppData\Local\Temp\ccioldvv.s:24427  .debug_str:000000000000d7f5 .LASF1180
C:\Users\CYMR90~1\AppData\Local\Temp\ccioldvv.s:30194  .debug_str:000000000002457a .LASF1181
C:\Users\CYMR90~1\AppData\Local\Temp\ccioldvv.s:23285  .debug_str:0000000000008c18 .LASF1182
C:\Users\CYMR90~1\AppData\Local\Temp\ccioldvv.s:21843  .debug_str:0000000000002f36 .LASF1183
C:\Users\CYMR90~1\AppData\Local\Temp\ccioldvv.s:28796  .debug_str:000000000001efa9 .LASF1184
C:\Users\CYMR90~1\AppData\Local\Temp\ccioldvv.s:29248  .debug_str:0000000000020b0d .LASF1185
C:\Users\CYMR90~1\AppData\Local\Temp\ccioldvv.s:30430  .debug_str:00000000000255a2 .LASF1186
C:\Users\CYMR90~1\AppData\Local\Temp\ccioldvv.s:21567  .debug_str:0000000000001e45 .LASF1187
C:\Users\CYMR90~1\AppData\Local\Temp\ccioldvv.s:22489  .debug_str:00000000000058b8 .LASF1188
C:\Users\CYMR90~1\AppData\Local\Temp\ccioldvv.s:29788  .debug_str:0000000000022c97 .LASF1189
C:\Users\CYMR90~1\AppData\Local\Temp\ccioldvv.s:23037  .debug_str:0000000000007b41 .LASF1190
C:\Users\CYMR90~1\AppData\Local\Temp\ccioldvv.s:29766  .debug_str:0000000000022aec .LASF1191
C:\Users\CYMR90~1\AppData\Local\Temp\ccioldvv.s:24233  .debug_str:000000000000cace .LASF1192
C:\Users\CYMR90~1\AppData\Local\Temp\ccioldvv.s:29434  .debug_str:00000000000216d4 .LASF1193
C:\Users\CYMR90~1\AppData\Local\Temp\ccioldvv.s:24473  .debug_str:000000000000da5b .LASF1194
C:\Users\CYMR90~1\AppData\Local\Temp\ccioldvv.s:28010  .debug_str:000000000001bd3a .LASF1195
C:\Users\CYMR90~1\AppData\Local\Temp\ccioldvv.s:26057  .debug_str:0000000000013ea5 .LASF1196
C:\Users\CYMR90~1\AppData\Local\Temp\ccioldvv.s:29468  .debug_str:00000000000218f1 .LASF1197
C:\Users\CYMR90~1\AppData\Local\Temp\ccioldvv.s:31662  .debug_str:000000000002a3a1 .LASF1198
C:\Users\CYMR90~1\AppData\Local\Temp\ccioldvv.s:26711  .debug_str:0000000000016784 .LASF1199
C:\Users\CYMR90~1\AppData\Local\Temp\ccioldvv.s:31668  .debug_str:000000000002a3d7 .LASF1200
C:\Users\CYMR90~1\AppData\Local\Temp\ccioldvv.s:23723  .debug_str:000000000000a79e .LASF1201
C:\Users\CYMR90~1\AppData\Local\Temp\ccioldvv.s:23381  .debug_str:0000000000009213 .LASF1202
C:\Users\CYMR90~1\AppData\Local\Temp\ccioldvv.s:26902  .debug_str:0000000000017578 .LASF1203
C:\Users\CYMR90~1\AppData\Local\Temp\ccioldvv.s:30756  .debug_str:0000000000026aa2 .LASF1204
C:\Users\CYMR90~1\AppData\Local\Temp\ccioldvv.s:25969  .debug_str:0000000000013983 .LASF1205
C:\Users\CYMR90~1\AppData\Local\Temp\ccioldvv.s:25021  .debug_str:000000000000fbc4 .LASF1206
C:\Users\CYMR90~1\AppData\Local\Temp\ccioldvv.s:31632  .debug_str:000000000002a228 .LASF1207
C:\Users\CYMR90~1\AppData\Local\Temp\ccioldvv.s:30282  .debug_str:0000000000024b48 .LASF1208
C:\Users\CYMR90~1\AppData\Local\Temp\ccioldvv.s:24949  .debug_str:000000000000f6fc .LASF1209
C:\Users\CYMR90~1\AppData\Local\Temp\ccioldvv.s:22379  .debug_str:0000000000005227 .LASF1210
C:\Users\CYMR90~1\AppData\Local\Temp\ccioldvv.s:22481  .debug_str:000000000000583e .LASF1211
C:\Users\CYMR90~1\AppData\Local\Temp\ccioldvv.s:23175  .debug_str:0000000000008540 .LASF1212
C:\Users\CYMR90~1\AppData\Local\Temp\ccioldvv.s:22773  .debug_str:0000000000006996 .LASF1213
C:\Users\CYMR90~1\AppData\Local\Temp\ccioldvv.s:21685  .debug_str:00000000000024e9 .LASF1214
C:\Users\CYMR90~1\AppData\Local\Temp\ccioldvv.s:23513  .debug_str:0000000000009a8f .LASF1215
C:\Users\CYMR90~1\AppData\Local\Temp\ccioldvv.s:21627  .debug_str:000000000000216a .LASF1216
C:\Users\CYMR90~1\AppData\Local\Temp\ccioldvv.s:29888  .debug_str:00000000000231ef .LASF1217
C:\Users\CYMR90~1\AppData\Local\Temp\ccioldvv.s:29904  .debug_str:00000000000232bc .LASF1218
C:\Users\CYMR90~1\AppData\Local\Temp\ccioldvv.s:30338  .debug_str:0000000000024edc .LASF1219
C:\Users\CYMR90~1\AppData\Local\Temp\ccioldvv.s:27902  .debug_str:000000000001b6c5 .LASF1220
C:\Users\CYMR90~1\AppData\Local\Temp\ccioldvv.s:24513  .debug_str:000000000000dc8f .LASF1221
C:\Users\CYMR90~1\AppData\Local\Temp\ccioldvv.s:26227  .debug_str:0000000000014909 .LASF1222
C:\Users\CYMR90~1\AppData\Local\Temp\ccioldvv.s:21861  .debug_str:0000000000003053 .LASF1223
C:\Users\CYMR90~1\AppData\Local\Temp\ccioldvv.s:27640  .debug_str:000000000001a625 .LASF1224
C:\Users\CYMR90~1\AppData\Local\Temp\ccioldvv.s:30948  .debug_str:00000000000276cf .LASF1225
C:\Users\CYMR90~1\AppData\Local\Temp\ccioldvv.s:23997  .debug_str:000000000000bab1 .LASF1226
C:\Users\CYMR90~1\AppData\Local\Temp\ccioldvv.s:22915  .debug_str:0000000000007358 .LASF1227
C:\Users\CYMR90~1\AppData\Local\Temp\ccioldvv.s:21953  .debug_str:0000000000003665 .LASF1228
C:\Users\CYMR90~1\AppData\Local\Temp\ccioldvv.s:32342  .debug_str:000000000002cf72 .LASF1229
C:\Users\CYMR90~1\AppData\Local\Temp\ccioldvv.s:31384  .debug_str:00000000000292f5 .LASF1230
C:\Users\CYMR90~1\AppData\Local\Temp\ccioldvv.s:30400  .debug_str:0000000000025319 .LASF1231
C:\Users\CYMR90~1\AppData\Local\Temp\ccioldvv.s:27812  .debug_str:000000000001b131 .LASF1232
C:\Users\CYMR90~1\AppData\Local\Temp\ccioldvv.s:29306  .debug_str:0000000000020ebd .LASF1233
C:\Users\CYMR90~1\AppData\Local\Temp\ccioldvv.s:28352  .debug_str:000000000001d441 .LASF1234
C:\Users\CYMR90~1\AppData\Local\Temp\ccioldvv.s:27414  .debug_str:000000000001963e .LASF1235
C:\Users\CYMR90~1\AppData\Local\Temp\ccioldvv.s:26125  .debug_str:000000000001430b .LASF1236
C:\Users\CYMR90~1\AppData\Local\Temp\ccioldvv.s:25495  .debug_str:00000000000119de .LASF1237
C:\Users\CYMR90~1\AppData\Local\Temp\ccioldvv.s:26802  .debug_str:0000000000016fb2 .LASF1238
C:\Users\CYMR90~1\AppData\Local\Temp\ccioldvv.s:23585  .debug_str:0000000000009ee6 .LASF1239
C:\Users\CYMR90~1\AppData\Local\Temp\ccioldvv.s:22587  .debug_str:0000000000005e64 .LASF1240
C:\Users\CYMR90~1\AppData\Local\Temp\ccioldvv.s:21643  .debug_str:0000000000002256 .LASF1241
C:\Users\CYMR90~1\AppData\Local\Temp\ccioldvv.s:32050  .debug_str:000000000002bc01 .LASF1242
C:\Users\CYMR90~1\AppData\Local\Temp\ccioldvv.s:21159  .debug_str:0000000000000506 .LASF1243
C:\Users\CYMR90~1\AppData\Local\Temp\ccioldvv.s:31528  .debug_str:0000000000029c07 .LASF1244
C:\Users\CYMR90~1\AppData\Local\Temp\ccioldvv.s:30544  .debug_str:0000000000025dcf .LASF1245
C:\Users\CYMR90~1\AppData\Local\Temp\ccioldvv.s:29572  .debug_str:0000000000021f4d .LASF1246
C:\Users\CYMR90~1\AppData\Local\Temp\ccioldvv.s:28598  .debug_str:000000000001e3e4 .LASF1247
C:\Users\CYMR90~1\AppData\Local\Temp\ccioldvv.s:27700  .debug_str:000000000001a9f2 .LASF1248
C:\Users\CYMR90~1\AppData\Local\Temp\ccioldvv.s:26755  .debug_str:0000000000016a82 .LASF1249
C:\Users\CYMR90~1\AppData\Local\Temp\ccioldvv.s:25829  .debug_str:0000000000012fcc .LASF1250
C:\Users\CYMR90~1\AppData\Local\Temp\ccioldvv.s:24857  .debug_str:000000000000f12e .LASF1251
C:\Users\CYMR90~1\AppData\Local\Temp\ccioldvv.s:27014  .debug_str:0000000000017cae .LASF1252
C:\Users\CYMR90~1\AppData\Local\Temp\ccioldvv.s:24367  .debug_str:000000000000d355 .LASF1253
C:\Users\CYMR90~1\AppData\Local\Temp\ccioldvv.s:23395  .debug_str:00000000000092e2 .LASF1254
C:\Users\CYMR90~1\AppData\Local\Temp\ccioldvv.s:21403  .debug_str:00000000000013fc .LASF1255
C:\Users\CYMR90~1\AppData\Local\Temp\ccioldvv.s:24287  .debug_str:000000000000ce39 .LASF1256
C:\Users\CYMR90~1\AppData\Local\Temp\ccioldvv.s:22541  .debug_str:0000000000005c18 .LASF1257
C:\Users\CYMR90~1\AppData\Local\Temp\ccioldvv.s:27284  .debug_str:0000000000018dab .LASF1258
C:\Users\CYMR90~1\AppData\Local\Temp\ccioldvv.s:27286  .debug_str:0000000000018dbe .LASF1259
C:\Users\CYMR90~1\AppData\Local\Temp\ccioldvv.s:29770  .debug_str:0000000000022b1c .LASF1260
C:\Users\CYMR90~1\AppData\Local\Temp\ccioldvv.s:27896  .debug_str:000000000001b67e .LASF1261
C:\Users\CYMR90~1\AppData\Local\Temp\ccioldvv.s:25297  .debug_str:0000000000010d77 .LASF1262
C:\Users\CYMR90~1\AppData\Local\Temp\ccioldvv.s:22435  .debug_str:0000000000005585 .LASF1263
C:\Users\CYMR90~1\AppData\Local\Temp\ccioldvv.s:24597  .debug_str:000000000000e189 .LASF1264
C:\Users\CYMR90~1\AppData\Local\Temp\ccioldvv.s:26779  .debug_str:0000000000016ca9 .LASF1265
C:\Users\CYMR90~1\AppData\Local\Temp\ccioldvv.s:24645  .debug_str:000000000000e458 .LASF1266
C:\Users\CYMR90~1\AppData\Local\Temp\ccioldvv.s:29800  .debug_str:0000000000022d44 .LASF1267
C:\Users\CYMR90~1\AppData\Local\Temp\ccioldvv.s:29982  .debug_str:00000000000237bc .LASF1268
C:\Users\CYMR90~1\AppData\Local\Temp\ccioldvv.s:25427  .debug_str:0000000000011493 .LASF1269
C:\Users\CYMR90~1\AppData\Local\Temp\ccioldvv.s:32102  .debug_str:000000000002bf3c .LASF1270
C:\Users\CYMR90~1\AppData\Local\Temp\ccioldvv.s:27016  .debug_str:0000000000017cc5 .LASF1271
C:\Users\CYMR90~1\AppData\Local\Temp\ccioldvv.s:31488  .debug_str:00000000000299bc .LASF1272
C:\Users\CYMR90~1\AppData\Local\Temp\ccioldvv.s:28472  .debug_str:000000000001dbf3 .LASF1273
C:\Users\CYMR90~1\AppData\Local\Temp\ccioldvv.s:21221  .debug_str:00000000000008c8 .LASF1274
C:\Users\CYMR90~1\AppData\Local\Temp\ccioldvv.s:27294  .debug_str:0000000000018e41 .LASF1275
C:\Users\CYMR90~1\AppData\Local\Temp\ccioldvv.s:21331  .debug_str:0000000000000fe3 .LASF1276
C:\Users\CYMR90~1\AppData\Local\Temp\ccioldvv.s:23609  .debug_str:000000000000a0a0 .LASF1277
C:\Users\CYMR90~1\AppData\Local\Temp\ccioldvv.s:22607  .debug_str:0000000000005f96 .LASF1278
C:\Users\CYMR90~1\AppData\Local\Temp\ccioldvv.s:21673  .debug_str:0000000000002421 .LASF1279
C:\Users\CYMR90~1\AppData\Local\Temp\ccioldvv.s:32070  .debug_str:000000000002bd1e .LASF1280
C:\Users\CYMR90~1\AppData\Local\Temp\ccioldvv.s:22501  .debug_str:0000000000005983 .LASF1281
C:\Users\CYMR90~1\AppData\Local\Temp\ccioldvv.s:21555  .debug_str:0000000000001d8a .LASF1282
C:\Users\CYMR90~1\AppData\Local\Temp\ccioldvv.s:28640  .debug_str:000000000001e68c .LASF1283
C:\Users\CYMR90~1\AppData\Local\Temp\ccioldvv.s:21295  .debug_str:0000000000000d6d .LASF1284
C:\Users\CYMR90~1\AppData\Local\Temp\ccioldvv.s:30008  .debug_str:0000000000023985 .LASF1285
C:\Users\CYMR90~1\AppData\Local\Temp\ccioldvv.s:29028  .debug_str:000000000001fd95 .LASF1286
C:\Users\CYMR90~1\AppData\Local\Temp\ccioldvv.s:28076  .debug_str:000000000001c182 .LASF1287
C:\Users\CYMR90~1\AppData\Local\Temp\ccioldvv.s:27122  .debug_str:0000000000018307 .LASF1288
C:\Users\CYMR90~1\AppData\Local\Temp\ccioldvv.s:26167  .debug_str:0000000000014572 .LASF1289
C:\Users\CYMR90~1\AppData\Local\Temp\ccioldvv.s:25223  .debug_str:0000000000010813 .LASF1290
C:\Users\CYMR90~1\AppData\Local\Temp\ccioldvv.s:29524  .debug_str:0000000000021c50 .LASF1291
C:\Users\CYMR90~1\AppData\Local\Temp\ccioldvv.s:28548  .debug_str:000000000001e0f2 .LASF1292
C:\Users\CYMR90~1\AppData\Local\Temp\ccioldvv.s:27638  .debug_str:000000000001a611 .LASF1293
C:\Users\CYMR90~1\AppData\Local\Temp\ccioldvv.s:26639  .debug_str:00000000000162e2 .LASF1294
C:\Users\CYMR90~1\AppData\Local\Temp\ccioldvv.s:25723  .debug_str:00000000000128d7 .LASF1295
C:\Users\CYMR90~1\AppData\Local\Temp\ccioldvv.s:24751  .debug_str:000000000000eb5a .LASF1296
C:\Users\CYMR90~1\AppData\Local\Temp\ccioldvv.s:24133  .debug_str:000000000000c440 .LASF1297
C:\Users\CYMR90~1\AppData\Local\Temp\ccioldvv.s:28994  .debug_str:000000000001fb74 .LASF1298
C:\Users\CYMR90~1\AppData\Local\Temp\ccioldvv.s:28050  .debug_str:000000000001bfee .LASF1299
C:\Users\CYMR90~1\AppData\Local\Temp\ccioldvv.s:21411  .debug_str:000000000000146b .LASF1300
C:\Users\CYMR90~1\AppData\Local\Temp\ccioldvv.s:28022  .debug_str:000000000001be0e .LASF1301
C:\Users\CYMR90~1\AppData\Local\Temp\ccioldvv.s:29244  .debug_str:0000000000020aea .LASF1302
C:\Users\CYMR90~1\AppData\Local\Temp\ccioldvv.s:26685  .debug_str:000000000001657b .LASF1303
C:\Users\CYMR90~1\AppData\Local\Temp\ccioldvv.s:27554  .debug_str:0000000000019f89 .LASF1304
C:\Users\CYMR90~1\AppData\Local\Temp\ccioldvv.s:27524  .debug_str:0000000000019dcf .LASF1305
C:\Users\CYMR90~1\AppData\Local\Temp\ccioldvv.s:23289  .debug_str:0000000000008c4c .LASF1306
C:\Users\CYMR90~1\AppData\Local\Temp\ccioldvv.s:22283  .debug_str:0000000000004c94 .LASF1307
C:\Users\CYMR90~1\AppData\Local\Temp\ccioldvv.s:21343  .debug_str:0000000000001079 .LASF1308
C:\Users\CYMR90~1\AppData\Local\Temp\ccioldvv.s:31734  .debug_str:000000000002a825 .LASF1309
C:\Users\CYMR90~1\AppData\Local\Temp\ccioldvv.s:30752  .debug_str:0000000000026a67 .LASF1310
C:\Users\CYMR90~1\AppData\Local\Temp\ccioldvv.s:29776  .debug_str:0000000000022b61 .LASF1311
C:\Users\CYMR90~1\AppData\Local\Temp\ccioldvv.s:26037  .debug_str:0000000000013d89 .LASF1312
C:\Users\CYMR90~1\AppData\Local\Temp\ccioldvv.s:24609  .debug_str:000000000000e242 .LASF1313
C:\Users\CYMR90~1\AppData\Local\Temp\ccioldvv.s:25881  .debug_str:000000000001333d .LASF1314
C:\Users\CYMR90~1\AppData\Local\Temp\ccioldvv.s:31954  .debug_str:000000000002b598 .LASF1315
C:\Users\CYMR90~1\AppData\Local\Temp\ccioldvv.s:30470  .debug_str:000000000002589d .LASF1316
C:\Users\CYMR90~1\AppData\Local\Temp\ccioldvv.s:29998  .debug_str:00000000000238ba .LASF1317
C:\Users\CYMR90~1\AppData\Local\Temp\ccioldvv.s:29020  .debug_str:000000000001fd28 .LASF1318
C:\Users\CYMR90~1\AppData\Local\Temp\ccioldvv.s:28086  .debug_str:000000000001c22c .LASF1319
C:\Users\CYMR90~1\AppData\Local\Temp\ccioldvv.s:27132  .debug_str:00000000000183b5 .LASF1320
C:\Users\CYMR90~1\AppData\Local\Temp\ccioldvv.s:26177  .debug_str:00000000000145e8 .LASF1321
C:\Users\CYMR90~1\AppData\Local\Temp\ccioldvv.s:25229  .debug_str:000000000001086e .LASF1322
C:\Users\CYMR90~1\AppData\Local\Temp\ccioldvv.s:25697  .debug_str:0000000000012709 .LASF1323
C:\Users\CYMR90~1\AppData\Local\Temp\ccioldvv.s:24137  .debug_str:000000000000c465 .LASF1324
C:\Users\CYMR90~1\AppData\Local\Temp\ccioldvv.s:23773  .debug_str:000000000000ab99 .LASF1325
C:\Users\CYMR90~1\AppData\Local\Temp\ccioldvv.s:22781  .debug_str:0000000000006a32 .LASF1326
C:\Users\CYMR90~1\AppData\Local\Temp\ccioldvv.s:21819  .debug_str:0000000000002dc2 .LASF1327
C:\Users\CYMR90~1\AppData\Local\Temp\ccioldvv.s:32218  .debug_str:000000000002c731 .LASF1328
C:\Users\CYMR90~1\AppData\Local\Temp\ccioldvv.s:31300  .debug_str:0000000000028dd1 .LASF1329
C:\Users\CYMR90~1\AppData\Local\Temp\ccioldvv.s:30318  .debug_str:0000000000024d8e .LASF1330
C:\Users\CYMR90~1\AppData\Local\Temp\ccioldvv.s:29344  .debug_str:00000000000210ca .LASF1331
C:\Users\CYMR90~1\AppData\Local\Temp\ccioldvv.s:28384  .debug_str:000000000001d64b .LASF1332
C:\Users\CYMR90~1\AppData\Local\Temp\ccioldvv.s:28818  .debug_str:000000000001f122 .LASF1333
C:\Users\CYMR90~1\AppData\Local\Temp\ccioldvv.s:27910  .debug_str:000000000001b741 .LASF1334
C:\Users\CYMR90~1\AppData\Local\Temp\ccioldvv.s:26603  .debug_str:00000000000160b7 .LASF1335
C:\Users\CYMR90~1\AppData\Local\Temp\ccioldvv.s:24283  .debug_str:000000000000ce0e .LASF1336
C:\Users\CYMR90~1\AppData\Local\Temp\ccioldvv.s:29038  .debug_str:000000000001fe09 .LASF1337
C:\Users\CYMR90~1\AppData\Local\Temp\ccioldvv.s:25575  .debug_str:0000000000011f30 .LASF1338
C:\Users\CYMR90~1\AppData\Local\Temp\ccioldvv.s:21449  .debug_str:000000000000168d .LASF1339
C:\Users\CYMR90~1\AppData\Local\Temp\ccioldvv.s:23559  .debug_str:0000000000009d5a .LASF1340
C:\Users\CYMR90~1\AppData\Local\Temp\ccioldvv.s:22555  .debug_str:0000000000005cc3 .LASF1341
C:\Users\CYMR90~1\AppData\Local\Temp\ccioldvv.s:21611  .debug_str:000000000000208f .LASF1342
C:\Users\CYMR90~1\AppData\Local\Temp\ccioldvv.s:32032  .debug_str:000000000002bab2 .LASF1343
C:\Users\CYMR90~1\AppData\Local\Temp\ccioldvv.s:31824  .debug_str:000000000002ad5b .LASF1344
C:\Users\CYMR90~1\AppData\Local\Temp\ccioldvv.s:30836  .debug_str:0000000000026f7b .LASF1345
C:\Users\CYMR90~1\AppData\Local\Temp\ccioldvv.s:29868  .debug_str:00000000000230f8 .LASF1346
C:\Users\CYMR90~1\AppData\Local\Temp\ccioldvv.s:31254  .debug_str:0000000000028b50 .LASF1347
C:\Users\CYMR90~1\AppData\Local\Temp\ccioldvv.s:27954  .debug_str:000000000001ba00 .LASF1348
C:\Users\CYMR90~1\AppData\Local\Temp\ccioldvv.s:28462  .debug_str:000000000001db65 .LASF1349
C:\Users\CYMR90~1\AppData\Local\Temp\ccioldvv.s:26049  .debug_str:0000000000013e37 .LASF1350
C:\Users\CYMR90~1\AppData\Local\Temp\ccioldvv.s:29178  .debug_str:0000000000020708 .LASF1351
C:\Users\CYMR90~1\AppData\Local\Temp\ccioldvv.s:24149  .debug_str:000000000000c524 .LASF1352
C:\Users\CYMR90~1\AppData\Local\Temp\ccioldvv.s:23079  .debug_str:0000000000007e5e .LASF1353
C:\Users\CYMR90~1\AppData\Local\Temp\ccioldvv.s:23643  .debug_str:000000000000a2e3 .LASF1354
C:\Users\CYMR90~1\AppData\Local\Temp\ccioldvv.s:22639  .debug_str:000000000000618a .LASF1355
C:\Users\CYMR90~1\AppData\Local\Temp\ccioldvv.s:21697  .debug_str:0000000000002589 .LASF1356
C:\Users\CYMR90~1\AppData\Local\Temp\ccioldvv.s:32098  .debug_str:000000000002bf1c .LASF1357
C:\Users\CYMR90~1\AppData\Local\Temp\ccioldvv.s:26137  .debug_str:00000000000143d3 .LASF1358
C:\Users\CYMR90~1\AppData\Local\Temp\ccioldvv.s:22775  .debug_str:00000000000069da .LASF1359
C:\Users\CYMR90~1\AppData\Local\Temp\ccioldvv.s:29226  .debug_str:00000000000209c4 .LASF1360
C:\Users\CYMR90~1\AppData\Local\Temp\ccioldvv.s:28182  .debug_str:000000000001c7c9 .LASF1361
C:\Users\CYMR90~1\AppData\Local\Temp\ccioldvv.s:27226  .debug_str:0000000000018943 .LASF1362
C:\Users\CYMR90~1\AppData\Local\Temp\ccioldvv.s:31264  .debug_str:0000000000028be1 .LASF1363
C:\Users\CYMR90~1\AppData\Local\Temp\ccioldvv.s:26525  .debug_str:0000000000015b39 .LASF1364
C:\Users\CYMR90~1\AppData\Local\Temp\ccioldvv.s:23195  .debug_str:000000000000866d .LASF1365
C:\Users\CYMR90~1\AppData\Local\Temp\ccioldvv.s:30866  .debug_str:0000000000027125 .LASF1366
C:\Users\CYMR90~1\AppData\Local\Temp\ccioldvv.s:30114  .debug_str:0000000000023f9e .LASF1367
C:\Users\CYMR90~1\AppData\Local\Temp\ccioldvv.s:29118  .debug_str:00000000000202e0 .LASF1368
C:\Users\CYMR90~1\AppData\Local\Temp\ccioldvv.s:27388  .debug_str:0000000000019493 .LASF1369
C:\Users\CYMR90~1\AppData\Local\Temp\ccioldvv.s:31992  .debug_str:000000000002b7f9 .LASF1370
C:\Users\CYMR90~1\AppData\Local\Temp\ccioldvv.s:28398  .debug_str:000000000001d734 .LASF1371
C:\Users\CYMR90~1\AppData\Local\Temp\ccioldvv.s:21741  .debug_str:00000000000028af .LASF1372
C:\Users\CYMR90~1\AppData\Local\Temp\ccioldvv.s:24325  .debug_str:000000000000d078 .LASF1373
C:\Users\CYMR90~1\AppData\Local\Temp\ccioldvv.s:27436  .debug_str:0000000000019777 .LASF1374
C:\Users\CYMR90~1\AppData\Local\Temp\ccioldvv.s:30536  .debug_str:0000000000025d61 .LASF1375
C:\Users\CYMR90~1\AppData\Local\Temp\ccioldvv.s:22313  .debug_str:0000000000004e55 .LASF1376
C:\Users\CYMR90~1\AppData\Local\Temp\ccioldvv.s:25481  .debug_str:0000000000011846 .LASF1377
C:\Users\CYMR90~1\AppData\Local\Temp\ccioldvv.s:28554  .debug_str:000000000001e14c .LASF1378
C:\Users\CYMR90~1\AppData\Local\Temp\ccioldvv.s:31730  .debug_str:000000000002a7e8 .LASF1379
C:\Users\CYMR90~1\AppData\Local\Temp\ccioldvv.s:31698  .debug_str:000000000002a5c0 .LASF1380
C:\Users\CYMR90~1\AppData\Local\Temp\ccioldvv.s:23407  .debug_str:0000000000009392 .LASF1381
C:\Users\CYMR90~1\AppData\Local\Temp\ccioldvv.s:26497  .debug_str:000000000001599d .LASF1382
C:\Users\CYMR90~1\AppData\Local\Temp\ccioldvv.s:29618  .debug_str:00000000000221fd .LASF1383
C:\Users\CYMR90~1\AppData\Local\Temp\ccioldvv.s:21421  .debug_str:00000000000014d5 .LASF1384
C:\Users\CYMR90~1\AppData\Local\Temp\ccioldvv.s:25955  .debug_str:00000000000138a7 .LASF1385
C:\Users\CYMR90~1\AppData\Local\Temp\ccioldvv.s:27734  .debug_str:000000000001ac1c .LASF1386
C:\Users\CYMR90~1\AppData\Local\Temp\ccioldvv.s:30826  .debug_str:0000000000026eba .LASF1387
C:\Users\CYMR90~1\AppData\Local\Temp\ccioldvv.s:22593  .debug_str:0000000000005ec7 .LASF1388
C:\Users\CYMR90~1\AppData\Local\Temp\ccioldvv.s:25681  .debug_str:000000000001260f .LASF1389
C:\Users\CYMR90~1\AppData\Local\Temp\ccioldvv.s:25027  .debug_str:000000000000fc0a .LASF1390
C:\Users\CYMR90~1\AppData\Local\Temp\ccioldvv.s:28034  .debug_str:000000000001beda .LASF1391
C:\Users\CYMR90~1\AppData\Local\Temp\ccioldvv.s:31168  .debug_str:0000000000028576 .LASF1392
C:\Users\CYMR90~1\AppData\Local\Temp\ccioldvv.s:22953  .debug_str:00000000000075b1 .LASF1393
C:\Users\CYMR90~1\AppData\Local\Temp\ccioldvv.s:26075  .debug_str:0000000000013fb0 .LASF1394
C:\Users\CYMR90~1\AppData\Local\Temp\ccioldvv.s:26225  .debug_str:00000000000148f1 .LASF1395
C:\Users\CYMR90~1\AppData\Local\Temp\ccioldvv.s:32394  .debug_str:000000000002d27a .LASF1396
C:\Users\CYMR90~1\AppData\Local\Temp\ccioldvv.s:24207  .debug_str:000000000000c89b .LASF1397
C:\Users\CYMR90~1\AppData\Local\Temp\ccioldvv.s:27310  .debug_str:0000000000018f44 .LASF1398
C:\Users\CYMR90~1\AppData\Local\Temp\ccioldvv.s:25381  .debug_str:00000000000111e5 .LASF1399
C:\Users\CYMR90~1\AppData\Local\Temp\ccioldvv.s:26665  .debug_str:000000000001646a .LASF1400
C:\Users\CYMR90~1\AppData\Local\Temp\ccioldvv.s:21375  .debug_str:000000000000123f .LASF1401
C:\Users\CYMR90~1\AppData\Local\Temp\ccioldvv.s:29100  .debug_str:00000000000201fc .LASF1402
C:\Users\CYMR90~1\AppData\Local\Temp\ccioldvv.s:24033  .debug_str:000000000000bd19 .LASF1403
C:\Users\CYMR90~1\AppData\Local\Temp\ccioldvv.s:28866  .debug_str:000000000001f429 .LASF1404
C:\Users\CYMR90~1\AppData\Local\Temp\ccioldvv.s:22099  .debug_str:0000000000003fea .LASF1405
C:\Users\CYMR90~1\AppData\Local\Temp\ccioldvv.s:31658  .debug_str:000000000002a371 .LASF1406
C:\Users\CYMR90~1\AppData\Local\Temp\ccioldvv.s:29822  .debug_str:0000000000022e6f .LASF1407
C:\Users\CYMR90~1\AppData\Local\Temp\ccioldvv.s:29986  .debug_str:00000000000237ee .LASF1408
C:\Users\CYMR90~1\AppData\Local\Temp\ccioldvv.s:21773  .debug_str:0000000000002ab3 .LASF1409
C:\Users\CYMR90~1\AppData\Local\Temp\ccioldvv.s:24929  .debug_str:000000000000f5ce .LASF1410
C:\Users\CYMR90~1\AppData\Local\Temp\ccioldvv.s:31400  .debug_str:00000000000293ec .LASF1411
C:\Users\CYMR90~1\AppData\Local\Temp\ccioldvv.s:23181  .debug_str:0000000000008595 .LASF1412
C:\Users\CYMR90~1\AppData\Local\Temp\ccioldvv.s:26289  .debug_str:0000000000014cd2 .LASF1413
C:\Users\CYMR90~1\AppData\Local\Temp\ccioldvv.s:29402  .debug_str:00000000000214c9 .LASF1414
C:\Users\CYMR90~1\AppData\Local\Temp\ccioldvv.s:21223  .debug_str:00000000000008db .LASF1415
C:\Users\CYMR90~1\AppData\Local\Temp\ccioldvv.s:24293  .debug_str:000000000000ce76 .LASF1416
C:\Users\CYMR90~1\AppData\Local\Temp\ccioldvv.s:27412  .debug_str:0000000000019625 .LASF1417
C:\Users\CYMR90~1\AppData\Local\Temp\ccioldvv.s:28928  .debug_str:000000000001f78c .LASF1418
C:\Users\CYMR90~1\AppData\Local\Temp\ccioldvv.s:22293  .debug_str:0000000000004d11 .LASF1419
C:\Users\CYMR90~1\AppData\Local\Temp\ccioldvv.s:25367  .debug_str:0000000000011106 .LASF1420
C:\Users\CYMR90~1\AppData\Local\Temp\ccioldvv.s:24709  .debug_str:000000000000e8a6 .LASF1421
C:\Users\CYMR90~1\AppData\Local\Temp\ccioldvv.s:27850  .debug_str:000000000001b3a6 .LASF1422
C:\Users\CYMR90~1\AppData\Local\Temp\ccioldvv.s:30946  .debug_str:00000000000276b6 .LASF1423
C:\Users\CYMR90~1\AppData\Local\Temp\ccioldvv.s:21847  .debug_str:0000000000002f6f .LASF1424
C:\Users\CYMR90~1\AppData\Local\Temp\ccioldvv.s:25885  .debug_str:000000000001336b .LASF1425
C:\Users\CYMR90~1\AppData\Local\Temp\ccioldvv.s:28858  .debug_str:000000000001f390 .LASF1426
C:\Users\CYMR90~1\AppData\Local\Temp\ccioldvv.s:32106  .debug_str:000000000002bff7 .LASF1427
C:\Users\CYMR90~1\AppData\Local\Temp\ccioldvv.s:23901  .debug_str:000000000000b43c .LASF1428
C:\Users\CYMR90~1\AppData\Local\Temp\ccioldvv.s:26992  .debug_str:0000000000017b61 .LASF1429
C:\Users\CYMR90~1\AppData\Local\Temp\ccioldvv.s:30124  .debug_str:000000000002403e .LASF1430
C:\Users\CYMR90~1\AppData\Local\Temp\ccioldvv.s:28868  .debug_str:000000000001f441 .LASF1431
C:\Users\CYMR90~1\AppData\Local\Temp\ccioldvv.s:21183  .debug_str:000000000000067f .LASF1432
C:\Users\CYMR90~1\AppData\Local\Temp\ccioldvv.s:25407  .debug_str:0000000000011371 .LASF1433
C:\Users\CYMR90~1\AppData\Local\Temp\ccioldvv.s:29104  .debug_str:0000000000020226 .LASF1434
C:\Users\CYMR90~1\AppData\Local\Temp\ccioldvv.s:28146  .debug_str:000000000001c5a6 .LASF1435
C:\Users\CYMR90~1\AppData\Local\Temp\ccioldvv.s:27194  .debug_str:000000000001876b .LASF1436
C:\Users\CYMR90~1\AppData\Local\Temp\ccioldvv.s:26623  .debug_str:0000000000016201 .LASF1437
C:\Users\CYMR90~1\AppData\Local\Temp\ccioldvv.s:30978  .debug_str:000000000002786d .LASF1438
C:\Users\CYMR90~1\AppData\Local\Temp\ccioldvv.s:30006  .debug_str:0000000000023971 .LASF1439
C:\Users\CYMR90~1\AppData\Local\Temp\ccioldvv.s:29026  .debug_str:000000000001fd81 .LASF1440
C:\Users\CYMR90~1\AppData\Local\Temp\ccioldvv.s:28074  .debug_str:000000000001c16e .LASF1441
C:\Users\CYMR90~1\AppData\Local\Temp\ccioldvv.s:27120  .debug_str:00000000000182f3 .LASF1442
C:\Users\CYMR90~1\AppData\Local\Temp\ccioldvv.s:26165  .debug_str:000000000001455e .LASF1443
C:\Users\CYMR90~1\AppData\Local\Temp\ccioldvv.s:25221  .debug_str:00000000000107ff .LASF1444
C:\Users\CYMR90~1\AppData\Local\Temp\ccioldvv.s:32066  .debug_str:000000000002bce6 .LASF1445
C:\Users\CYMR90~1\AppData\Local\Temp\ccioldvv.s:23297  .debug_str:0000000000008cba .LASF1446
C:\Users\CYMR90~1\AppData\Local\Temp\ccioldvv.s:24843  .debug_str:000000000000f077 .LASF1447
C:\Users\CYMR90~1\AppData\Local\Temp\ccioldvv.s:30354  .debug_str:0000000000024fd5 .LASF1448
C:\Users\CYMR90~1\AppData\Local\Temp\ccioldvv.s:29380  .debug_str:00000000000212bd .LASF1449
C:\Users\CYMR90~1\AppData\Local\Temp\ccioldvv.s:28406  .debug_str:000000000001d813 .LASF1450
C:\Users\CYMR90~1\AppData\Local\Temp\ccioldvv.s:27478  .debug_str:0000000000019af3 .LASF1451
C:\Users\CYMR90~1\AppData\Local\Temp\ccioldvv.s:26495  .debug_str:0000000000015988 .LASF1452
C:\Users\CYMR90~1\AppData\Local\Temp\ccioldvv.s:23899  .debug_str:000000000000b429 .LASF1453
C:\Users\CYMR90~1\AppData\Local\Temp\ccioldvv.s:22507  .debug_str:00000000000059d9 .LASF1454
C:\Users\CYMR90~1\AppData\Local\Temp\ccioldvv.s:23705  .debug_str:000000000000a69f .LASF1455
C:\Users\CYMR90~1\AppData\Local\Temp\ccioldvv.s:28772  .debug_str:000000000001ee66 .LASF1456
C:\Users\CYMR90~1\AppData\Local\Temp\ccioldvv.s:30408  .debug_str:00000000000253a8 .LASF1457
C:\Users\CYMR90~1\AppData\Local\Temp\ccioldvv.s:22473  .debug_str:00000000000057e5 .LASF1458
C:\Users\CYMR90~1\AppData\Local\Temp\ccioldvv.s:28852  .debug_str:000000000001f342 .LASF1459
C:\Users\CYMR90~1\AppData\Local\Temp\ccioldvv.s:25701  .debug_str:000000000001274a .LASF1460
C:\Users\CYMR90~1\AppData\Local\Temp\ccioldvv.s:23809  .debug_str:000000000000ade7 .LASF1461
C:\Users\CYMR90~1\AppData\Local\Temp\ccioldvv.s:24987  .debug_str:000000000000f9dc .LASF1462
C:\Users\CYMR90~1\AppData\Local\Temp\ccioldvv.s:25487  .debug_str:0000000000011921 .LASF1463
C:\Users\CYMR90~1\AppData\Local\Temp\ccioldvv.s:26557  .debug_str:0000000000015d67 .LASF1464
C:\Users\CYMR90~1\AppData\Local\Temp\ccioldvv.s:31850  .debug_str:000000000002af11 .LASF1465
C:\Users\CYMR90~1\AppData\Local\Temp\ccioldvv.s:27746  .debug_str:000000000001ace1 .LASF1466
C:\Users\CYMR90~1\AppData\Local\Temp\ccioldvv.s:26169  .debug_str:0000000000014585 .LASF1467
C:\Users\CYMR90~1\AppData\Local\Temp\ccioldvv.s:30856  .debug_str:0000000000027096 .LASF1468
C:\Users\CYMR90~1\AppData\Local\Temp\ccioldvv.s:25161  .debug_str:0000000000010448 .LASF1469
C:\Users\CYMR90~1\AppData\Local\Temp\ccioldvv.s:23255  .debug_str:0000000000008a48 .LASF1470
C:\Users\CYMR90~1\AppData\Local\Temp\ccioldvv.s:25457  .debug_str:0000000000011695 .LASF1471
C:\Users\CYMR90~1\AppData\Local\Temp\ccioldvv.s:27018  .debug_str:0000000000017cd8 .LASF1472
C:\Users\CYMR90~1\AppData\Local\Temp\ccioldvv.s:30306  .debug_str:0000000000024cd3 .LASF1473
C:\Users\CYMR90~1\AppData\Local\Temp\ccioldvv.s:30952  .debug_str:0000000000027707 .LASF1474
C:\Users\CYMR90~1\AppData\Local\Temp\ccioldvv.s:21277  .debug_str:0000000000000c76 .LASF1475
C:\Users\CYMR90~1\AppData\Local\Temp\ccioldvv.s:23183  .debug_str:00000000000085ae .LASF1476
C:\Users\CYMR90~1\AppData\Local\Temp\ccioldvv.s:21797  .debug_str:0000000000002c5f .LASF1477
C:\Users\CYMR90~1\AppData\Local\Temp\ccioldvv.s:31134  .debug_str:00000000000282cf .LASF1478
C:\Users\CYMR90~1\AppData\Local\Temp\ccioldvv.s:30156  .debug_str:00000000000242c2 .LASF1479
C:\Users\CYMR90~1\AppData\Local\Temp\ccioldvv.s:21919  .debug_str:000000000000343a .LASF1480
C:\Users\CYMR90~1\AppData\Local\Temp\ccioldvv.s:24159  .debug_str:000000000000c596 .LASF1481
C:\Users\CYMR90~1\AppData\Local\Temp\ccioldvv.s:30274  .debug_str:0000000000024adf .LASF1482
C:\Users\CYMR90~1\AppData\Local\Temp\ccioldvv.s:23489  .debug_str:00000000000098f6 .LASF1483
C:\Users\CYMR90~1\AppData\Local\Temp\ccioldvv.s:22299  .debug_str:0000000000004d6a .LASF1484
C:\Users\CYMR90~1\AppData\Local\Temp\ccioldvv.s:24717  .debug_str:000000000000e935 .LASF1485
C:\Users\CYMR90~1\AppData\Local\Temp\ccioldvv.s:26135  .debug_str:00000000000143c0 .LASF1486
C:\Users\CYMR90~1\AppData\Local\Temp\ccioldvv.s:27730  .debug_str:000000000001abed .LASF1487
C:\Users\CYMR90~1\AppData\Local\Temp\ccioldvv.s:21107  .debug_str:0000000000000211 .LASF1488
C:\Users\CYMR90~1\AppData\Local\Temp\ccioldvv.s:26513  .debug_str:0000000000015a85 .LASF1489
C:\Users\CYMR90~1\AppData\Local\Temp\ccioldvv.s:24519  .debug_str:000000000000dccd .LASF1490
C:\Users\CYMR90~1\AppData\Local\Temp\ccioldvv.s:31366  .debug_str:00000000000291ef .LASF1491
C:\Users\CYMR90~1\AppData\Local\Temp\ccioldvv.s:21767  .debug_str:0000000000002a4c .LASF1492
C:\Users\CYMR90~1\AppData\Local\Temp\ccioldvv.s:29334  .debug_str:000000000002104b .LASF1493
C:\Users\CYMR90~1\AppData\Local\Temp\ccioldvv.s:31582  .debug_str:0000000000029f42 .LASF1494
C:\Users\CYMR90~1\AppData\Local\Temp\ccioldvv.s:22939  .debug_str:00000000000074e6 .LASF1495
C:\Users\CYMR90~1\AppData\Local\Temp\ccioldvv.s:30624  .debug_str:00000000000262bd .LASF1496
C:\Users\CYMR90~1\AppData\Local\Temp\ccioldvv.s:31336  .debug_str:000000000002900b .LASF1497
C:\Users\CYMR90~1\AppData\Local\Temp\ccioldvv.s:22735  .debug_str:0000000000006719 .LASF1498
C:\Users\CYMR90~1\AppData\Local\Temp\ccioldvv.s:23581  .debug_str:0000000000009ea7 .LASF1499
C:\Users\CYMR90~1\AppData\Local\Temp\ccioldvv.s:32270  .debug_str:000000000002caa4 .LASF1500
C:\Users\CYMR90~1\AppData\Local\Temp\ccioldvv.s:31498  .debug_str:0000000000029a49 .LASF1501
C:\Users\CYMR90~1\AppData\Local\Temp\ccioldvv.s:29236  .debug_str:0000000000020a7a .LASF1502
C:\Users\CYMR90~1\AppData\Local\Temp\ccioldvv.s:22713  .debug_str:00000000000065cc .LASF1503
C:\Users\CYMR90~1\AppData\Local\Temp\ccioldvv.s:31584  .debug_str:0000000000029f50 .LASF1504
C:\Users\CYMR90~1\AppData\Local\Temp\ccioldvv.s:28610  .debug_str:000000000001e492 .LASF1505
C:\Users\CYMR90~1\AppData\Local\Temp\ccioldvv.s:27932  .debug_str:000000000001b8a6 .LASF1506
C:\Users\CYMR90~1\AppData\Local\Temp\ccioldvv.s:24837  .debug_str:000000000000f028 .LASF1507
C:\Users\CYMR90~1\AppData\Local\Temp\ccioldvv.s:29436  .debug_str:00000000000216df .LASF1508
C:\Users\CYMR90~1\AppData\Local\Temp\ccioldvv.s:25645  .debug_str:00000000000123bf .LASF1509
C:\Users\CYMR90~1\AppData\Local\Temp\ccioldvv.s:31238  .debug_str:0000000000028a40 .LASF1510
C:\Users\CYMR90~1\AppData\Local\Temp\ccioldvv.s:30022  .debug_str:0000000000023a5b .LASF1511
C:\Users\CYMR90~1\AppData\Local\Temp\ccioldvv.s:21961  .debug_str:00000000000036cf .LASF1512
C:\Users\CYMR90~1\AppData\Local\Temp\ccioldvv.s:26579  .debug_str:0000000000015f2e .LASF1513
C:\Users\CYMR90~1\AppData\Local\Temp\ccioldvv.s:30432  .debug_str:00000000000255b6 .LASF1514
C:\Users\CYMR90~1\AppData\Local\Temp\ccioldvv.s:28828  .debug_str:000000000001f1e8 .LASF1515
C:\Users\CYMR90~1\AppData\Local\Temp\ccioldvv.s:32012  .debug_str:000000000002b940 .LASF1516
C:\Users\CYMR90~1\AppData\Local\Temp\ccioldvv.s:28660  .debug_str:000000000001e79f .LASF1517
C:\Users\CYMR90~1\AppData\Local\Temp\ccioldvv.s:30658  .debug_str:00000000000264a6 .LASF1518
C:\Users\CYMR90~1\AppData\Local\Temp\ccioldvv.s:25635  .debug_str:000000000001234e .LASF1519
C:\Users\CYMR90~1\AppData\Local\Temp\ccioldvv.s:29052  .debug_str:000000000001ff1a .LASF1520
C:\Users\CYMR90~1\AppData\Local\Temp\ccioldvv.s:28104  .debug_str:000000000001c346 .LASF1521
C:\Users\CYMR90~1\AppData\Local\Temp\ccioldvv.s:29372  .debug_str:000000000002124e .LASF1522
C:\Users\CYMR90~1\AppData\Local\Temp\ccioldvv.s:27386  .debug_str:0000000000019477 .LASF1523
C:\Users\CYMR90~1\AppData\Local\Temp\ccioldvv.s:30024  .debug_str:0000000000023a71 .LASF1524
C:\Users\CYMR90~1\AppData\Local\Temp\ccioldvv.s:22369  .debug_str:0000000000005181 .LASF1525
C:\Users\CYMR90~1\AppData\Local\Temp\ccioldvv.s:28048  .debug_str:000000000001bfd3 .LASF1526
C:\Users\CYMR90~1\AppData\Local\Temp\ccioldvv.s:24181  .debug_str:000000000000c6f8 .LASF1527
C:\Users\CYMR90~1\AppData\Local\Temp\ccioldvv.s:29768  .debug_str:0000000000022b00 .LASF1528
C:\Users\CYMR90~1\AppData\Local\Temp\ccioldvv.s:31030  .debug_str:0000000000027b73 .LASF1529
C:\Users\CYMR90~1\AppData\Local\Temp\ccioldvv.s:30266  .debug_str:00000000000249cc .LASF1530
C:\Users\CYMR90~1\AppData\Local\Temp\ccioldvv.s:30332  .debug_str:0000000000024e5e .LASF1531
C:\Users\CYMR90~1\AppData\Local\Temp\ccioldvv.s:22121  .debug_str:000000000000410f .LASF1532
C:\Users\CYMR90~1\AppData\Local\Temp\ccioldvv.s:27336  .debug_str:00000000000190cc .LASF1533
C:\Users\CYMR90~1\AppData\Local\Temp\ccioldvv.s:30150  .debug_str:0000000000024182 .LASF1534
C:\Users\CYMR90~1\AppData\Local\Temp\ccioldvv.s:23743  .debug_str:000000000000a8fd .LASF1535
C:\Users\CYMR90~1\AppData\Local\Temp\ccioldvv.s:30336  .debug_str:0000000000024ed0 .LASF1536
C:\Users\CYMR90~1\AppData\Local\Temp\ccioldvv.s:29670  .debug_str:00000000000224e0 .LASF1537
C:\Users\CYMR90~1\AppData\Local\Temp\ccioldvv.s:30904  .debug_str:000000000002736e .LASF1538
C:\Users\CYMR90~1\AppData\Local\Temp\ccioldvv.s:30792  .debug_str:0000000000026ca2 .LASF1539
C:\Users\CYMR90~1\AppData\Local\Temp\ccioldvv.s:25513  .debug_str:0000000000011b5a .LASF1540
C:\Users\CYMR90~1\AppData\Local\Temp\ccioldvv.s:31526  .debug_str:0000000000029bea .LASF1541
C:\Users\CYMR90~1\AppData\Local\Temp\ccioldvv.s:24497  .debug_str:000000000000dbb6 .LASF1542
C:\Users\CYMR90~1\AppData\Local\Temp\ccioldvv.s:21887  .debug_str:00000000000031ed .LASF1543
C:\Users\CYMR90~1\AppData\Local\Temp\ccioldvv.s:25071  .debug_str:000000000000fed7 .LASF1544
C:\Users\CYMR90~1\AppData\Local\Temp\ccioldvv.s:23121  .debug_str:0000000000008197 .LASF1545
C:\Users\CYMR90~1\AppData\Local\Temp\ccioldvv.s:23589  .debug_str:0000000000009f20 .LASF1546
C:\Users\CYMR90~1\AppData\Local\Temp\ccioldvv.s:24237  .debug_str:000000000000caf3 .LASF1547
C:\Users\CYMR90~1\AppData\Local\Temp\ccioldvv.s:31112  .debug_str:0000000000028114 .LASF1548
C:\Users\CYMR90~1\AppData\Local\Temp\ccioldvv.s:30594  .debug_str:0000000000026091 .LASF1549
C:\Users\CYMR90~1\AppData\Local\Temp\ccioldvv.s:27998  .debug_str:000000000001bc46 .LASF1550
C:\Users\CYMR90~1\AppData\Local\Temp\ccioldvv.s:25377  .debug_str:0000000000011197 .LASF1551
C:\Users\CYMR90~1\AppData\Local\Temp\ccioldvv.s:27966  .debug_str:000000000001ba75 .LASF1552
C:\Users\CYMR90~1\AppData\Local\Temp\ccioldvv.s:21345  .debug_str:0000000000001090 .LASF1553
C:\Users\CYMR90~1\AppData\Local\Temp\ccioldvv.s:21667  .debug_str:00000000000023b6 .LASF1554
C:\Users\CYMR90~1\AppData\Local\Temp\ccioldvv.s:28696  .debug_str:000000000001ea07 .LASF1555
C:\Users\CYMR90~1\AppData\Local\Temp\ccioldvv.s:27288  .debug_str:0000000000018dcd .LASF1556
C:\Users\CYMR90~1\AppData\Local\Temp\ccioldvv.s:27312  .debug_str:0000000000018f5c .LASF1557
C:\Users\CYMR90~1\AppData\Local\Temp\ccioldvv.s:24525  .debug_str:000000000000dd21 .LASF1558
C:\Users\CYMR90~1\AppData\Local\Temp\ccioldvv.s:25215  .debug_str:00000000000107cc .LASF1559
C:\Users\CYMR90~1\AppData\Local\Temp\ccioldvv.s:30034  .debug_str:0000000000023aea .LASF1560
C:\Users\CYMR90~1\AppData\Local\Temp\ccioldvv.s:30456  .debug_str:0000000000025788 .LASF1561
C:\Users\CYMR90~1\AppData\Local\Temp\ccioldvv.s:25331  .debug_str:0000000000010f0d .LASF1562
C:\Users\CYMR90~1\AppData\Local\Temp\ccioldvv.s:22549  .debug_str:0000000000005c73 .LASF1563
C:\Users\CYMR90~1\AppData\Local\Temp\ccioldvv.s:32104  .debug_str:000000000002bf51 .LASF1564
C:\Users\CYMR90~1\AppData\Local\Temp\ccioldvv.s:22743  .debug_str:0000000000006782 .LASF1565
C:\Users\CYMR90~1\AppData\Local\Temp\ccioldvv.s:28404  .debug_str:000000000001d785 .LASF1566
C:\Users\CYMR90~1\AppData\Local\Temp\ccioldvv.s:27684  .debug_str:000000000001a89d .LASF1567
C:\Users\CYMR90~1\AppData\Local\Temp\ccioldvv.s:29170  .debug_str:0000000000020633 .LASF1568
C:\Users\CYMR90~1\AppData\Local\Temp\ccioldvv.s:25511  .debug_str:0000000000011ab3 .LASF1569
C:\Users\CYMR90~1\AppData\Local\Temp\ccioldvv.s:30486  .debug_str:00000000000259a3 .LASF1570
C:\Users\CYMR90~1\AppData\Local\Temp\ccioldvv.s:25907  .debug_str:0000000000013562 .LASF1571
C:\Users\CYMR90~1\AppData\Local\Temp\ccioldvv.s:22419  .debug_str:000000000000548e .LASF1572
C:\Users\CYMR90~1\AppData\Local\Temp\ccioldvv.s:26321  .debug_str:0000000000014f23 .LASF1573
C:\Users\CYMR90~1\AppData\Local\Temp\ccioldvv.s:31224  .debug_str:000000000002896b .LASF1574
C:\Users\CYMR90~1\AppData\Local\Temp\ccioldvv.s:26792  .debug_str:0000000000016f06 .LASF1575
C:\Users\CYMR90~1\AppData\Local\Temp\ccioldvv.s:24871  .debug_str:000000000000f232 .LASF1576
C:\Users\CYMR90~1\AppData\Local\Temp\ccioldvv.s:28700  .debug_str:000000000001ea49 .LASF1577
C:\Users\CYMR90~1\AppData\Local\Temp\ccioldvv.s:31722  .debug_str:000000000002a743 .LASF1578
C:\Users\CYMR90~1\AppData\Local\Temp\ccioldvv.s:21677  .debug_str:0000000000002441 .LASF1579
C:\Users\CYMR90~1\AppData\Local\Temp\ccioldvv.s:28248  .debug_str:000000000001cca5 .LASF1580
C:\Users\CYMR90~1\AppData\Local\Temp\ccioldvv.s:23711  .debug_str:000000000000a6f2 .LASF1581
C:\Users\CYMR90~1\AppData\Local\Temp\ccioldvv.s:24415  .debug_str:000000000000d707 .LASF1582
C:\Users\CYMR90~1\AppData\Local\Temp\ccioldvv.s:23111  .debug_str:000000000000806b .LASF1583
C:\Users\CYMR90~1\AppData\Local\Temp\ccioldvv.s:30906  .debug_str:000000000002738c .LASF1584
C:\Users\CYMR90~1\AppData\Local\Temp\ccioldvv.s:28502  .debug_str:000000000001dda8 .LASF1585
C:\Users\CYMR90~1\AppData\Local\Temp\ccioldvv.s:32326  .debug_str:000000000002cdc8 .LASF1586
C:\Users\CYMR90~1\AppData\Local\Temp\ccioldvv.s:24389  .debug_str:000000000000d4b2 .LASF1587
C:\Users\CYMR90~1\AppData\Local\Temp\ccioldvv.s:23073  .debug_str:0000000000007d73 .LASF1588
C:\Users\CYMR90~1\AppData\Local\Temp\ccioldvv.s:26767  .debug_str:0000000000016b57 .LASF1589
C:\Users\CYMR90~1\AppData\Local\Temp\ccioldvv.s:23927  .debug_str:000000000000b5b0 .LASF1590
C:\Users\CYMR90~1\AppData\Local\Temp\ccioldvv.s:26691  .debug_str:00000000000165bd .LASF1591
C:\Users\CYMR90~1\AppData\Local\Temp\ccioldvv.s:23309  .debug_str:0000000000008d4a .LASF1592
C:\Users\CYMR90~1\AppData\Local\Temp\ccioldvv.s:25899  .debug_str:000000000001347d .LASF1593
C:\Users\CYMR90~1\AppData\Local\Temp\ccioldvv.s:31408  .debug_str:0000000000029450 .LASF1594
C:\Users\CYMR90~1\AppData\Local\Temp\ccioldvv.s:31142  .debug_str:000000000002834d .LASF1595
C:\Users\CYMR90~1\AppData\Local\Temp\ccioldvv.s:21311  .debug_str:0000000000000e4a .LASF1596
C:\Users\CYMR90~1\AppData\Local\Temp\ccioldvv.s:28274  .debug_str:000000000001ce64 .LASF1597
C:\Users\CYMR90~1\AppData\Local\Temp\ccioldvv.s:22227  .debug_str:000000000000486e .LASF1598
C:\Users\CYMR90~1\AppData\Local\Temp\ccioldvv.s:30410  .debug_str:00000000000253b7 .LASF1599
C:\Users\CYMR90~1\AppData\Local\Temp\ccioldvv.s:21455  .debug_str:00000000000016e6 .LASF1600
C:\Users\CYMR90~1\AppData\Local\Temp\ccioldvv.s:24959  .debug_str:000000000000f771 .LASF1601
C:\Users\CYMR90~1\AppData\Local\Temp\ccioldvv.s:29396  .debug_str:00000000000213cc .LASF1602
C:\Users\CYMR90~1\AppData\Local\Temp\ccioldvv.s:28302  .debug_str:000000000001d0b0 .LASF1603
C:\Users\CYMR90~1\AppData\Local\Temp\ccioldvv.s:28194  .debug_str:000000000001c880 .LASF1604
C:\Users\CYMR90~1\AppData\Local\Temp\ccioldvv.s:30390  .debug_str:00000000000251f6 .LASF1605
C:\Users\CYMR90~1\AppData\Local\Temp\ccioldvv.s:30308  .debug_str:0000000000024ce9 .LASF1606
C:\Users\CYMR90~1\AppData\Local\Temp\ccioldvv.s:30260  .debug_str:0000000000024978 .LASF1607
C:\Users\CYMR90~1\AppData\Local\Temp\ccioldvv.s:27232  .debug_str:0000000000018995 .LASF1608
C:\Users\CYMR90~1\AppData\Local\Temp\ccioldvv.s:22205  .debug_str:00000000000046e8 .LASF1609
C:\Users\CYMR90~1\AppData\Local\Temp\ccioldvv.s:29602  .debug_str:0000000000022102 .LASF1610
C:\Users\CYMR90~1\AppData\Local\Temp\ccioldvv.s:28434  .debug_str:000000000001d9a9 .LASF1611
C:\Users\CYMR90~1\AppData\Local\Temp\ccioldvv.s:28142  .debug_str:000000000001c56a .LASF1612
C:\Users\CYMR90~1\AppData\Local\Temp\ccioldvv.s:23947  .debug_str:000000000000b77c .LASF1613
C:\Users\CYMR90~1\AppData\Local\Temp\ccioldvv.s:23575  .debug_str:0000000000009e49 .LASF1614
C:\Users\CYMR90~1\AppData\Local\Temp\ccioldvv.s:27834  .debug_str:000000000001b285 .LASF1615
C:\Users\CYMR90~1\AppData\Local\Temp\ccioldvv.s:29490  .debug_str:0000000000021a0e .LASF1616
C:\Users\CYMR90~1\AppData\Local\Temp\ccioldvv.s:26295  .debug_str:0000000000014d2a .LASF1617
C:\Users\CYMR90~1\AppData\Local\Temp\ccioldvv.s:28206  .debug_str:000000000001c9fc .LASF1618
C:\Users\CYMR90~1\AppData\Local\Temp\ccioldvv.s:22251  .debug_str:0000000000004a77 .LASF1619
C:\Users\CYMR90~1\AppData\Local\Temp\ccioldvv.s:23967  .debug_str:000000000000b8dc .LASF1620
C:\Users\CYMR90~1\AppData\Local\Temp\ccioldvv.s:24791  .debug_str:000000000000edad .LASF1621
C:\Users\CYMR90~1\AppData\Local\Temp\ccioldvv.s:21825  .debug_str:0000000000002e21 .LASF1622
C:\Users\CYMR90~1\AppData\Local\Temp\ccioldvv.s:29200  .debug_str:0000000000020827 .LASF1623
C:\Users\CYMR90~1\AppData\Local\Temp\ccioldvv.s:25901  .debug_str:0000000000013518 .LASF1624
C:\Users\CYMR90~1\AppData\Local\Temp\ccioldvv.s:24065  .debug_str:000000000000bfc2 .LASF1625
C:\Users\CYMR90~1\AppData\Local\Temp\ccioldvv.s:29898  .debug_str:0000000000023267 .LASF1626
C:\Users\CYMR90~1\AppData\Local\Temp\ccioldvv.s:22739  .debug_str:0000000000006754 .LASF1627
C:\Users\CYMR90~1\AppData\Local\Temp\ccioldvv.s:28946  .debug_str:000000000001f899 .LASF1628
C:\Users\CYMR90~1\AppData\Local\Temp\ccioldvv.s:23821  .debug_str:000000000000aea9 .LASF1629
C:\Users\CYMR90~1\AppData\Local\Temp\ccioldvv.s:29680  .debug_str:000000000002254c .LASF1630
C:\Users\CYMR90~1\AppData\Local\Temp\ccioldvv.s:23291  .debug_str:0000000000008c63 .LASF1631
C:\Users\CYMR90~1\AppData\Local\Temp\ccioldvv.s:21409  .debug_str:0000000000001458 .LASF1632
C:\Users\CYMR90~1\AppData\Local\Temp\ccioldvv.s:27944  .debug_str:000000000001b98d .LASF1633
C:\Users\CYMR90~1\AppData\Local\Temp\ccioldvv.s:26926  .debug_str:00000000000176f5 .LASF1634
C:\Users\CYMR90~1\AppData\Local\Temp\ccioldvv.s:24047  .debug_str:000000000000be45 .LASF1635
C:\Users\CYMR90~1\AppData\Local\Temp\ccioldvv.s:24153  .debug_str:000000000000c550 .LASF1636
C:\Users\CYMR90~1\AppData\Local\Temp\ccioldvv.s:22841  .debug_str:0000000000006e26 .LASF1637
C:\Users\CYMR90~1\AppData\Local\Temp\ccioldvv.s:24221  .debug_str:000000000000c9e0 .LASF1638
C:\Users\CYMR90~1\AppData\Local\Temp\ccioldvv.s:23937  .debug_str:000000000000b6d5 .LASF1639
C:\Users\CYMR90~1\AppData\Local\Temp\ccioldvv.s:27136  .debug_str:00000000000183e6 .LASF1640
C:\Users\CYMR90~1\AppData\Local\Temp\ccioldvv.s:25167  .debug_str:00000000000104a4 .LASF1641
C:\Users\CYMR90~1\AppData\Local\Temp\ccioldvv.s:30250  .debug_str:00000000000248dc .LASF1642
C:\Users\CYMR90~1\AppData\Local\Temp\ccioldvv.s:25521  .debug_str:0000000000011bfb .LASF1643
C:\Users\CYMR90~1\AppData\Local\Temp\ccioldvv.s:29088  .debug_str:000000000002014e .LASF1644
C:\Users\CYMR90~1\AppData\Local\Temp\ccioldvv.s:32196  .debug_str:000000000002c5f5 .LASF1645
C:\Users\CYMR90~1\AppData\Local\Temp\ccioldvv.s:21815  .debug_str:0000000000002d99 .LASF1646
C:\Users\CYMR90~1\AppData\Local\Temp\ccioldvv.s:26729  .debug_str:0000000000016893 .LASF1647
C:\Users\CYMR90~1\AppData\Local\Temp\ccioldvv.s:26840  .debug_str:0000000000017204 .LASF1648
C:\Users\CYMR90~1\AppData\Local\Temp\ccioldvv.s:21615  .debug_str:00000000000020c3 .LASF1649
C:\Users\CYMR90~1\AppData\Local\Temp\ccioldvv.s:23137  .debug_str:00000000000082ce .LASF1650
C:\Users\CYMR90~1\AppData\Local\Temp\ccioldvv.s:29914  .debug_str:0000000000023364 .LASF1651
C:\Users\CYMR90~1\AppData\Local\Temp\ccioldvv.s:25265  .debug_str:0000000000010a43 .LASF1652
C:\Users\CYMR90~1\AppData\Local\Temp\ccioldvv.s:23031  .debug_str:0000000000007a9b .LASF1653
C:\Users\CYMR90~1\AppData\Local\Temp\ccioldvv.s:21349  .debug_str:00000000000010e7 .LASF1654
C:\Users\CYMR90~1\AppData\Local\Temp\ccioldvv.s:27030  .debug_str:0000000000017d81 .LASF1657
C:\Users\CYMR90~1\AppData\Local\Temp\ccioldvv.s:31774  .debug_str:000000000002aa8d .LASF1658
C:\Users\CYMR90~1\AppData\Local\Temp\ccioldvv.s:25299  .debug_str:0000000000010d85 .LASF1659
C:\Users\CYMR90~1\AppData\Local\Temp\ccioldvv.s:27360  .debug_str:0000000000019313 .LASF1660
C:\Users\CYMR90~1\AppData\Local\Temp\ccioldvv.s:32008  .debug_str:000000000002b901 .LASF1661
C:\Users\CYMR90~1\AppData\Local\Temp\ccioldvv.s:32038  .debug_str:000000000002bb22 .LASF1662
C:\Users\CYMR90~1\AppData\Local\Temp\ccioldvv.s:29286  .debug_str:0000000000020d8a .LASF1663
C:\Users\CYMR90~1\AppData\Local\Temp\ccioldvv.s:26255  .debug_str:0000000000014a86 .LASF1664
C:\Users\CYMR90~1\AppData\Local\Temp\ccioldvv.s:28450  .debug_str:000000000001daa7 .LASF1665
C:\Users\CYMR90~1\AppData\Local\Temp\ccioldvv.s:29374  .debug_str:0000000000021269 .LASF1666
C:\Users\CYMR90~1\AppData\Local\Temp\ccioldvv.s:30482  .debug_str:000000000002595f .LASF1667
C:\Users\CYMR90~1\AppData\Local\Temp\ccioldvv.s:24703  .debug_str:000000000000e830 .LASF1668
C:\Users\CYMR90~1\AppData\Local\Temp\ccioldvv.s:22045  .debug_str:0000000000003c2e .LASF1669
C:\Users\CYMR90~1\AppData\Local\Temp\ccioldvv.s:23329  .debug_str:0000000000008f16 .LASF1670
C:\Users\CYMR90~1\AppData\Local\Temp\ccioldvv.s:22265  .debug_str:0000000000004b55 .LASF1671
C:\Users\CYMR90~1\AppData\Local\Temp\ccioldvv.s:21157  .debug_str:00000000000004ec .LASF1672
C:\Users\CYMR90~1\AppData\Local\Temp\ccioldvv.s:22845  .debug_str:0000000000006e54 .LASF1673
C:\Users\CYMR90~1\AppData\Local\Temp\ccioldvv.s:25593  .debug_str:0000000000012025 .LASF1674
C:\Users\CYMR90~1\AppData\Local\Temp\ccioldvv.s:24741  .debug_str:000000000000ea92 .LASF1675
C:\Users\CYMR90~1\AppData\Local\Temp\ccioldvv.s:30272  .debug_str:0000000000024ac5 .LASF1676
C:\Users\CYMR90~1\AppData\Local\Temp\ccioldvv.s:25727  .debug_str:0000000000012900 .LASF1677
C:\Users\CYMR90~1\AppData\Local\Temp\ccioldvv.s:32198  .debug_str:000000000002c60a .LASF1678
C:\Users\CYMR90~1\AppData\Local\Temp\ccioldvv.s:21725  .debug_str:0000000000002763 .LASF1679
C:\Users\CYMR90~1\AppData\Local\Temp\ccioldvv.s:25245  .debug_str:0000000000010955 .LASF1680
C:\Users\CYMR90~1\AppData\Local\Temp\ccioldvv.s:26425  .debug_str:0000000000015584 .LASF1681
C:\Users\CYMR90~1\AppData\Local\Temp\ccioldvv.s:25091  .debug_str:000000000001003c .LASF1682
C:\Users\CYMR90~1\AppData\Local\Temp\ccioldvv.s:27788  .debug_str:000000000001af49 .LASF1683
C:\Users\CYMR90~1\AppData\Local\Temp\ccioldvv.s:29862  .debug_str:00000000000230be .LASF1684
C:\Users\CYMR90~1\AppData\Local\Temp\ccioldvv.s:30784  .debug_str:0000000000026c47 .LASF1685
C:\Users\CYMR90~1\AppData\Local\Temp\ccioldvv.s:25243  .debug_str:000000000001093d .LASF1686
C:\Users\CYMR90~1\AppData\Local\Temp\ccioldvv.s:29182  .debug_str:0000000000020731 .LASF1687
C:\Users\CYMR90~1\AppData\Local\Temp\ccioldvv.s:31514  .debug_str:0000000000029b26 .LASF1688
C:\Users\CYMR90~1\AppData\Local\Temp\ccioldvv.s:30050  .debug_str:0000000000023bf4 .LASF1689
C:\Users\CYMR90~1\AppData\Local\Temp\ccioldvv.s:27906  .debug_str:000000000001b6f3 .LASF1690
C:\Users\CYMR90~1\AppData\Local\Temp\ccioldvv.s:25993  .debug_str:0000000000013aea .LASF1691
C:\Users\CYMR90~1\AppData\Local\Temp\ccioldvv.s:29584  .debug_str:0000000000021ffe .LASF1692
C:\Users\CYMR90~1\AppData\Local\Temp\ccioldvv.s:27220  .debug_str:00000000000188f8 .LASF1693
C:\Users\CYMR90~1\AppData\Local\Temp\ccioldvv.s:23131  .debug_str:000000000000825a .LASF1694
C:\Users\CYMR90~1\AppData\Local\Temp\ccioldvv.s:25163  .debug_str:0000000000010458 .LASF1695
C:\Users\CYMR90~1\AppData\Local\Temp\ccioldvv.s:27002  .debug_str:0000000000017be8 .LASF1696
C:\Users\CYMR90~1\AppData\Local\Temp\ccioldvv.s:26303  .debug_str:0000000000014dbd .LASF1697
C:\Users\CYMR90~1\AppData\Local\Temp\ccioldvv.s:28842  .debug_str:000000000001f2a1 .LASF1698
C:\Users\CYMR90~1\AppData\Local\Temp\ccioldvv.s:27396  .debug_str:000000000001952c .LASF1699
C:\Users\CYMR90~1\AppData\Local\Temp\ccioldvv.s:29298  .debug_str:0000000000020e4f .LASF1700
C:\Users\CYMR90~1\AppData\Local\Temp\ccioldvv.s:28838  .debug_str:000000000001f264 .LASF1701
C:\Users\CYMR90~1\AppData\Local\Temp\ccioldvv.s:30098  .debug_str:0000000000023eb3 .LASF1702
C:\Users\CYMR90~1\AppData\Local\Temp\ccioldvv.s:30056  .debug_str:0000000000023c43 .LASF1703
C:\Users\CYMR90~1\AppData\Local\Temp\ccioldvv.s:29574  .debug_str:0000000000021f64 .LASF1704
C:\Users\CYMR90~1\AppData\Local\Temp\ccioldvv.s:28030  .debug_str:000000000001be7f .LASF1705
C:\Users\CYMR90~1\AppData\Local\Temp\ccioldvv.s:29438  .debug_str:00000000000216f3 .LASF1706
C:\Users\CYMR90~1\AppData\Local\Temp\ccioldvv.s:26912  .debug_str:00000000000175f5 .LASF1707
C:\Users\CYMR90~1\AppData\Local\Temp\ccioldvv.s:25903  .debug_str:000000000001352b .LASF1708
C:\Users\CYMR90~1\AppData\Local\Temp\ccioldvv.s:28590  .debug_str:000000000001e37a .LASF1709
C:\Users\CYMR90~1\AppData\Local\Temp\ccioldvv.s:27138  .debug_str:00000000000183fb .LASF1710
C:\Users\CYMR90~1\AppData\Local\Temp\ccioldvv.s:30986  .debug_str:00000000000278d3 .LASF1711
C:\Users\CYMR90~1\AppData\Local\Temp\ccioldvv.s:25541  .debug_str:0000000000011d0e .LASF1712
C:\Users\CYMR90~1\AppData\Local\Temp\ccioldvv.s:22661  .debug_str:00000000000062b8 .LASF1713
C:\Users\CYMR90~1\AppData\Local\Temp\ccioldvv.s:25005  .debug_str:000000000000faaf .LASF1714
C:\Users\CYMR90~1\AppData\Local\Temp\ccioldvv.s:21939  .debug_str:000000000000358b .LASF1715
C:\Users\CYMR90~1\AppData\Local\Temp\ccioldvv.s:25241  .debug_str:0000000000010911 .LASF1716
C:\Users\CYMR90~1\AppData\Local\Temp\ccioldvv.s:28558  .debug_str:000000000001e17a .LASF1717
C:\Users\CYMR90~1\AppData\Local\Temp\ccioldvv.s:27102  .debug_str:00000000000181c8 .LASF1718
C:\Users\CYMR90~1\AppData\Local\Temp\ccioldvv.s:25485  .debug_str:0000000000011873 .LASF1719
C:\Users\CYMR90~1\AppData\Local\Temp\ccioldvv.s:27460  .debug_str:000000000001993c .LASF1720
C:\Users\CYMR90~1\AppData\Local\Temp\ccioldvv.s:25985  .debug_str:0000000000013a67 .LASF1721
C:\Users\CYMR90~1\AppData\Local\Temp\ccioldvv.s:21653  .debug_str:00000000000022fd .LASF1722
C:\Users\CYMR90~1\AppData\Local\Temp\ccioldvv.s:27796  .debug_str:000000000001afe8 .LASF1723
C:\Users\CYMR90~1\AppData\Local\Temp\ccioldvv.s:21717  .debug_str:00000000000026ed .LASF1724
C:\Users\CYMR90~1\AppData\Local\Temp\ccioldvv.s:26491  .debug_str:000000000001592b .LASF1725
C:\Users\CYMR90~1\AppData\Local\Temp\ccioldvv.s:31312  .debug_str:0000000000028e60 .LASF1726
C:\Users\CYMR90~1\AppData\Local\Temp\ccioldvv.s:29718  .debug_str:00000000000227cb .LASF1727
C:\Users\CYMR90~1\AppData\Local\Temp\ccioldvv.s:30954  .debug_str:000000000002771b .LASF1728
C:\Users\CYMR90~1\AppData\Local\Temp\ccioldvv.s:28246  .debug_str:000000000001cc6e .LASF1729
C:\Users\CYMR90~1\AppData\Local\Temp\ccioldvv.s:32108  .debug_str:000000000002c010 .LASF1730
C:\Users\CYMR90~1\AppData\Local\Temp\ccioldvv.s:30774  .debug_str:0000000000026bac .LASF1731
C:\Users\CYMR90~1\AppData\Local\Temp\ccioldvv.s:25415  .debug_str:00000000000113c4 .LASF1732
C:\Users\CYMR90~1\AppData\Local\Temp\ccioldvv.s:23437  .debug_str:0000000000009534 .LASF1733
C:\Users\CYMR90~1\AppData\Local\Temp\ccioldvv.s:21413  .debug_str:000000000000147c .LASF1734
C:\Users\CYMR90~1\AppData\Local\Temp\ccioldvv.s:26870  .debug_str:000000000001739f .LASF1735
C:\Users\CYMR90~1\AppData\Local\Temp\ccioldvv.s:29014  .debug_str:000000000001fccc .LASF1736
C:\Users\CYMR90~1\AppData\Local\Temp\ccioldvv.s:23429  .debug_str:00000000000094be .LASF1737
C:\Users\CYMR90~1\AppData\Local\Temp\ccioldvv.s:23151  .debug_str:00000000000083aa .LASF1738
C:\Users\CYMR90~1\AppData\Local\Temp\ccioldvv.s:30780  .debug_str:0000000000026c18 .LASF1739
C:\Users\CYMR90~1\AppData\Local\Temp\ccioldvv.s:24765  .debug_str:000000000000ec20 .LASF1740
C:\Users\CYMR90~1\AppData\Local\Temp\ccioldvv.s:23775  .debug_str:000000000000abb1 .LASF1741
C:\Users\CYMR90~1\AppData\Local\Temp\ccioldvv.s:28864  .debug_str:000000000001f3f6 .LASF1742
C:\Users\CYMR90~1\AppData\Local\Temp\ccioldvv.s:24269  .debug_str:000000000000cd27 .LASF1743
C:\Users\CYMR90~1\AppData\Local\Temp\ccioldvv.s:31066  .debug_str:0000000000027dfb .LASF1744
C:\Users\CYMR90~1\AppData\Local\Temp\ccioldvv.s:23155  .debug_str:00000000000083f4 .LASF1745
C:\Users\CYMR90~1\AppData\Local\Temp\ccioldvv.s:25063  .debug_str:000000000000fe4a .LASF1746
C:\Users\CYMR90~1\AppData\Local\Temp\ccioldvv.s:30102  .debug_str:0000000000023ef9 .LASF1747
C:\Users\CYMR90~1\AppData\Local\Temp\ccioldvv.s:29688  .debug_str:00000000000225dd .LASF1748
C:\Users\CYMR90~1\AppData\Local\Temp\ccioldvv.s:25239  .debug_str:00000000000108ee .LASF1749
C:\Users\CYMR90~1\AppData\Local\Temp\ccioldvv.s:23933  .debug_str:000000000000b68c .LASF1750
C:\Users\CYMR90~1\AppData\Local\Temp\ccioldvv.s:27036  .debug_str:0000000000017dd7 .LASF1751
C:\Users\CYMR90~1\AppData\Local\Temp\ccioldvv.s:22301  .debug_str:0000000000004d7e .LASF1752
C:\Users\CYMR90~1\AppData\Local\Temp\ccioldvv.s:27770  .debug_str:000000000001ae41 .LASF1753
C:\Users\CYMR90~1\AppData\Local\Temp\ccioldvv.s:27668  .debug_str:000000000001a779 .LASF1754
C:\Users\CYMR90~1\AppData\Local\Temp\ccioldvv.s:24211  .debug_str:000000000000c8df .LASF1755
C:\Users\CYMR90~1\AppData\Local\Temp\ccioldvv.s:25795  .debug_str:0000000000012d95 .LASF1756
C:\Users\CYMR90~1\AppData\Local\Temp\ccioldvv.s:27864  .debug_str:000000000001b47b .LASF1757
C:\Users\CYMR90~1\AppData\Local\Temp\ccioldvv.s:24859  .debug_str:000000000000f145 .LASF1758
C:\Users\CYMR90~1\AppData\Local\Temp\ccioldvv.s:22969  .debug_str:00000000000076a2 .LASF1759
C:\Users\CYMR90~1\AppData\Local\Temp\ccioldvv.s:27606  .debug_str:000000000001a27c .LASF1760
C:\Users\CYMR90~1\AppData\Local\Temp\ccioldvv.s:23257  .debug_str:0000000000008a5a .LASF1761
C:\Users\CYMR90~1\AppData\Local\Temp\ccioldvv.s:21475  .debug_str:00000000000018bd .LASF1762
C:\Users\CYMR90~1\AppData\Local\Temp\ccioldvv.s:30288  .debug_str:0000000000024b94 .LASF1763
C:\Users\CYMR90~1\AppData\Local\Temp\ccioldvv.s:23001  .debug_str:00000000000078bd .LASF1764
C:\Users\CYMR90~1\AppData\Local\Temp\ccioldvv.s:22675  .debug_str:00000000000063b1 .LASF1765
C:\Users\CYMR90~1\AppData\Local\Temp\ccioldvv.s:23459  .debug_str:00000000000096dd .LASF1766
C:\Users\CYMR90~1\AppData\Local\Temp\ccioldvv.s:27972  .debug_str:000000000001bace .LASF1767
C:\Users\CYMR90~1\AppData\Local\Temp\ccioldvv.s:21521  .debug_str:0000000000001b8d .LASF1768
C:\Users\CYMR90~1\AppData\Local\Temp\ccioldvv.s:26191  .debug_str:00000000000146bb .LASF1769
C:\Users\CYMR90~1\AppData\Local\Temp\ccioldvv.s:32182  .debug_str:000000000002c506 .LASF1770
C:\Users\CYMR90~1\AppData\Local\Temp\ccioldvv.s:24099  .debug_str:000000000000c1ea .LASF1771
C:\Users\CYMR90~1\AppData\Local\Temp\ccioldvv.s:23683  .debug_str:000000000000a55b .LASF1772
C:\Users\CYMR90~1\AppData\Local\Temp\ccioldvv.s:32244  .debug_str:000000000002c8a2 .LASF1773
C:\Users\CYMR90~1\AppData\Local\Temp\ccioldvv.s:21241  .debug_str:00000000000009dc .LASF1774
C:\Users\CYMR90~1\AppData\Local\Temp\ccioldvv.s:31214  .debug_str:00000000000288ac .LASF1775
C:\Users\CYMR90~1\AppData\Local\Temp\ccioldvv.s:26205  .debug_str:00000000000147c1 .LASF1776
C:\Users\CYMR90~1\AppData\Local\Temp\ccioldvv.s:24939  .debug_str:000000000000f655 .LASF1777
C:\Users\CYMR90~1\AppData\Local\Temp\ccioldvv.s:27026  .debug_str:0000000000017d50 .LASF1778
C:\Users\CYMR90~1\AppData\Local\Temp\ccioldvv.s:22395  .debug_str:0000000000005323 .LASF1779
C:\Users\CYMR90~1\AppData\Local\Temp\ccioldvv.s:30528  .debug_str:0000000000025cd7 .LASF1780
C:\Users\CYMR90~1\AppData\Local\Temp\ccioldvv.s:29722  .debug_str:0000000000022834 .LASF1781
C:\Users\CYMR90~1\AppData\Local\Temp\ccioldvv.s:28254  .debug_str:000000000001cd10 .LASF1784
C:\Users\CYMR90~1\AppData\Local\Temp\ccioldvv.s:27408  .debug_str:00000000000195df .LASF1785
C:\Users\CYMR90~1\AppData\Local\Temp\ccioldvv.s:27254  .debug_str:0000000000018b00 .LASF1786
C:\Users\CYMR90~1\AppData\Local\Temp\ccioldvv.s:26243  .debug_str:00000000000149ef .LASF1787
C:\Users\CYMR90~1\AppData\Local\Temp\ccioldvv.s:31648  .debug_str:000000000002a2d6 .LASF1788
C:\Users\CYMR90~1\AppData\Local\Temp\ccioldvv.s:31958  .debug_str:000000000002b5d6 .LASF1789
C:\Users\CYMR90~1\AppData\Local\Temp\ccioldvv.s:21981  .debug_str:0000000000003858 .LASF1790
C:\Users\CYMR90~1\AppData\Local\Temp\ccioldvv.s:21103  .debug_str:00000000000001db .LASF1791
C:\Users\CYMR90~1\AppData\Local\Temp\ccioldvv.s:30868  .debug_str:0000000000027139 .LASF1792
C:\Users\CYMR90~1\AppData\Local\Temp\ccioldvv.s:29944  .debug_str:0000000000023510 .LASF1793
C:\Users\CYMR90~1\AppData\Local\Temp\ccioldvv.s:31842  .debug_str:000000000002ae79 .LASF1794
C:\Users\CYMR90~1\AppData\Local\Temp\ccioldvv.s:31146  .debug_str:000000000002841e .LASF1795
C:\Users\CYMR90~1\AppData\Local\Temp\ccioldvv.s:25915  .debug_str:00000000000135f5 .LASF1796
C:\Users\CYMR90~1\AppData\Local\Temp\ccioldvv.s:26195  .debug_str:00000000000146ec .LASF1797
C:\Users\CYMR90~1\AppData\Local\Temp\ccioldvv.s:25303  .debug_str:0000000000010da2 .LASF1798
C:\Users\CYMR90~1\AppData\Local\Temp\ccioldvv.s:24127  .debug_str:000000000000c3d9 .LASF1799
C:\Users\CYMR90~1\AppData\Local\Temp\ccioldvv.s:26942  .debug_str:00000000000177e7 .LASF1800
C:\Users\CYMR90~1\AppData\Local\Temp\ccioldvv.s:27246  .debug_str:0000000000018a8f .LASF1801
C:\Users\CYMR90~1\AppData\Local\Temp\ccioldvv.s:26325  .debug_str:0000000000014f5d .LASF1802
C:\Users\CYMR90~1\AppData\Local\Temp\ccioldvv.s:25361  .debug_str:00000000000110b5 .LASF1803
C:\Users\CYMR90~1\AppData\Local\Temp\ccioldvv.s:24839  .debug_str:000000000000f03f .LASF1804
C:\Users\CYMR90~1\AppData\Local\Temp\ccioldvv.s:29522  .debug_str:0000000000021c29 .LASF1805
C:\Users\CYMR90~1\AppData\Local\Temp\ccioldvv.s:26213  .debug_str:0000000000014845 .LASF1806
C:\Users\CYMR90~1\AppData\Local\Temp\ccioldvv.s:29128  .debug_str:000000000002035d .LASF1807
C:\Users\CYMR90~1\AppData\Local\Temp\ccioldvv.s:26349  .debug_str:00000000000150ef .LASF1808
C:\Users\CYMR90~1\AppData\Local\Temp\ccioldvv.s:31138  .debug_str:000000000002830c .LASF1809
C:\Users\CYMR90~1\AppData\Local\Temp\ccioldvv.s:28348  .debug_str:000000000001d410 .LASF1810
C:\Users\CYMR90~1\AppData\Local\Temp\ccioldvv.s:27042  .debug_str:0000000000017e4c .LASF1811
C:\Users\CYMR90~1\AppData\Local\Temp\ccioldvv.s:21437  .debug_str:00000000000015d1 .LASF1812
C:\Users\CYMR90~1\AppData\Local\Temp\ccioldvv.s:25251  .debug_str:000000000001099b .LASF1813
C:\Users\CYMR90~1\AppData\Local\Temp\ccioldvv.s:25525  .debug_str:0000000000011c2d .LASF1814
C:\Users\CYMR90~1\AppData\Local\Temp\ccioldvv.s:28330  .debug_str:000000000001d318 .LASF1815
C:\Users\CYMR90~1\AppData\Local\Temp\ccioldvv.s:27008  .debug_str:0000000000017c5a .LASF1816
C:\Users\CYMR90~1\AppData\Local\Temp\ccioldvv.s:28338  .debug_str:000000000001d396 .LASF1817
C:\Users\CYMR90~1\AppData\Local\Temp\ccioldvv.s:28788  .debug_str:000000000001ef3c .LASF1818
C:\Users\CYMR90~1\AppData\Local\Temp\ccioldvv.s:25061  .debug_str:000000000000fe35 .LASF1819
C:\Users\CYMR90~1\AppData\Local\Temp\ccioldvv.s:29268  .debug_str:0000000000020c65 .LASF1820
C:\Users\CYMR90~1\AppData\Local\Temp\ccioldvv.s:22705  .debug_str:0000000000006560 .LASF1821
C:\Users\CYMR90~1\AppData\Local\Temp\ccioldvv.s:23093  .debug_str:0000000000007f3e .LASF1822
C:\Users\CYMR90~1\AppData\Local\Temp\ccioldvv.s:28720  .debug_str:000000000001eb7e .LASF1823
C:\Users\CYMR90~1\AppData\Local\Temp\ccioldvv.s:31424  .debug_str:00000000000295d6 .LASF1824
C:\Users\CYMR90~1\AppData\Local\Temp\ccioldvv.s:24005  .debug_str:000000000000bb8c .LASF1825
C:\Users\CYMR90~1\AppData\Local\Temp\ccioldvv.s:29362  .debug_str:00000000000211b3 .LASF1826
C:\Users\CYMR90~1\AppData\Local\Temp\ccioldvv.s:31780  .debug_str:000000000002aac7 .LASF1827
C:\Users\CYMR90~1\AppData\Local\Temp\ccioldvv.s:24809  .debug_str:000000000000ee9f .LASF1828
C:\Users\CYMR90~1\AppData\Local\Temp\ccioldvv.s:24879  .debug_str:000000000000f2c1 .LASF1829
C:\Users\CYMR90~1\AppData\Local\Temp\ccioldvv.s:25673  .debug_str:000000000001259d .LASF1830
C:\Users\CYMR90~1\AppData\Local\Temp\ccioldvv.s:23457  .debug_str:00000000000096c7 .LASF1831
C:\Users\CYMR90~1\AppData\Local\Temp\ccioldvv.s:30810  .debug_str:0000000000026da4 .LASF1832
C:\Users\CYMR90~1\AppData\Local\Temp\ccioldvv.s:24267  .debug_str:000000000000cd0c .LASF1833
C:\Users\CYMR90~1\AppData\Local\Temp\ccioldvv.s:22911  .debug_str:0000000000007319 .LASF1834
C:\Users\CYMR90~1\AppData\Local\Temp\ccioldvv.s:26641  .debug_str:00000000000162f6 .LASF1835
C:\Users\CYMR90~1\AppData\Local\Temp\ccioldvv.s:30672  .debug_str:0000000000026575 .LASF1836
C:\Users\CYMR90~1\AppData\Local\Temp\ccioldvv.s:26611  .debug_str:0000000000016136 .LASF1837
C:\Users\CYMR90~1\AppData\Local\Temp\ccioldvv.s:27334  .debug_str:00000000000190b4 .LASF1838
C:\Users\CYMR90~1\AppData\Local\Temp\ccioldvv.s:25307  .debug_str:0000000000010dda .LASF1839
C:\Users\CYMR90~1\AppData\Local\Temp\ccioldvv.s:28286  .debug_str:000000000001cfa0 .LASF1840
C:\Users\CYMR90~1\AppData\Local\Temp\ccioldvv.s:27568  .debug_str:000000000001a05f .LASF1841
C:\Users\CYMR90~1\AppData\Local\Temp\ccioldvv.s:30370  .debug_str:00000000000250d9 .LASF1842
C:\Users\CYMR90~1\AppData\Local\Temp\ccioldvv.s:30764  .debug_str:0000000000026b0b .LASF1843
C:\Users\CYMR90~1\AppData\Local\Temp\ccioldvv.s:31976  .debug_str:000000000002b726 .LASF1844
C:\Users\CYMR90~1\AppData\Local\Temp\ccioldvv.s:31836  .debug_str:000000000002ae26 .LASF1845
C:\Users\CYMR90~1\AppData\Local\Temp\ccioldvv.s:23191  .debug_str:000000000000863c .LASF1846
C:\Users\CYMR90~1\AppData\Local\Temp\ccioldvv.s:28486  .debug_str:000000000001dca9 .LASF1847
C:\Users\CYMR90~1\AppData\Local\Temp\ccioldvv.s:29628  .debug_str:000000000002228b .LASF1848
C:\Users\CYMR90~1\AppData\Local\Temp\ccioldvv.s:29642  .debug_str:000000000002235e .LASF1849
C:\Users\CYMR90~1\AppData\Local\Temp\ccioldvv.s:28874  .debug_str:000000000001f494 .LASF1850
C:\Users\CYMR90~1\AppData\Local\Temp\ccioldvv.s:23249  .debug_str:00000000000089d7 .LASF1851
C:\Users\CYMR90~1\AppData\Local\Temp\ccioldvv.s:30716  .debug_str:0000000000026835 .LASF1852
C:\Users\CYMR90~1\AppData\Local\Temp\ccioldvv.s:24499  .debug_str:000000000000dbd3 .LASF1853
C:\Users\CYMR90~1\AppData\Local\Temp\ccioldvv.s:21893  .debug_str:0000000000003281 .LASF1854
C:\Users\CYMR90~1\AppData\Local\Temp\ccioldvv.s:28368  .debug_str:000000000001d555 .LASF1855
C:\Users\CYMR90~1\AppData\Local\Temp\ccioldvv.s:30992  .debug_str:0000000000027941 .LASF1856
C:\Users\CYMR90~1\AppData\Local\Temp\ccioldvv.s:28108  .debug_str:000000000001c382 .LASF1857
C:\Users\CYMR90~1\AppData\Local\Temp\ccioldvv.s:24193  .debug_str:000000000000c7d2 .LASF1858
C:\Users\CYMR90~1\AppData\Local\Temp\ccioldvv.s:31088  .debug_str:0000000000027f82 .LASF1859
C:\Users\CYMR90~1\AppData\Local\Temp\ccioldvv.s:26357  .debug_str:0000000000015176 .LASF1860
C:\Users\CYMR90~1\AppData\Local\Temp\ccioldvv.s:27276  .debug_str:0000000000018cfe .LASF1861
C:\Users\CYMR90~1\AppData\Local\Temp\ccioldvv.s:25109  .debug_str:0000000000010134 .LASF1862
C:\Users\CYMR90~1\AppData\Local\Temp\ccioldvv.s:22863  .debug_str:0000000000006f7b .LASF1863
C:\Users\CYMR90~1\AppData\Local\Temp\ccioldvv.s:27186  .debug_str:00000000000186d4 .LASF1864
C:\Users\CYMR90~1\AppData\Local\Temp\ccioldvv.s:22503  .debug_str:0000000000005996 .LASF1865
C:\Users\CYMR90~1\AppData\Local\Temp\ccioldvv.s:29830  .debug_str:0000000000022eeb .LASF1866
C:\Users\CYMR90~1\AppData\Local\Temp\ccioldvv.s:29058  .debug_str:000000000001ff80 .LASF1867
C:\Users\CYMR90~1\AppData\Local\Temp\ccioldvv.s:24125  .debug_str:000000000000c3a9 .LASF1868
C:\Users\CYMR90~1\AppData\Local\Temp\ccioldvv.s:21219  .debug_str:0000000000000897 .LASF1869
C:\Users\CYMR90~1\AppData\Local\Temp\ccioldvv.s:21591  .debug_str:0000000000001f86 .LASF1870
C:\Users\CYMR90~1\AppData\Local\Temp\ccioldvv.s:31374  .debug_str:0000000000029242 .LASF1871
C:\Users\CYMR90~1\AppData\Local\Temp\ccioldvv.s:30462  .debug_str:000000000002580a .LASF1872
C:\Users\CYMR90~1\AppData\Local\Temp\ccioldvv.s:26481  .debug_str:000000000001588c .LASF1873
C:\Users\CYMR90~1\AppData\Local\Temp\ccioldvv.s:23039  .debug_str:0000000000007b55 .LASF1874
C:\Users\CYMR90~1\AppData\Local\Temp\ccioldvv.s:23913  .debug_str:000000000000b4e1 .LASF1875
C:\Users\CYMR90~1\AppData\Local\Temp\ccioldvv.s:31550  .debug_str:0000000000029d4f .LASF1876
C:\Users\CYMR90~1\AppData\Local\Temp\ccioldvv.s:27806  .debug_str:000000000001b0ce .LASF1877
C:\Users\CYMR90~1\AppData\Local\Temp\ccioldvv.s:28550  .debug_str:000000000001e106 .LASF1878
C:\Users\CYMR90~1\AppData\Local\Temp\ccioldvv.s:24943  .debug_str:000000000000f689 .LASF1879
C:\Users\CYMR90~1\AppData\Local\Temp\ccioldvv.s:23293  .debug_str:0000000000008c7a .LASF1880
C:\Users\CYMR90~1\AppData\Local\Temp\ccioldvv.s:28854  .debug_str:000000000001f357 .LASF1881
C:\Users\CYMR90~1\AppData\Local\Temp\ccioldvv.s:21333  .debug_str:0000000000000ff1 .LASF1882
C:\Users\CYMR90~1\AppData\Local\Temp\ccioldvv.s:29258  .debug_str:0000000000020ba3 .LASF1883
C:\Users\CYMR90~1\AppData\Local\Temp\ccioldvv.s:31972  .debug_str:000000000002b6de .LASF1884
C:\Users\CYMR90~1\AppData\Local\Temp\ccioldvv.s:28964  .debug_str:000000000001f9a9 .LASF1885
C:\Users\CYMR90~1\AppData\Local\Temp\ccioldvv.s:31104  .debug_str:0000000000028082 .LASF1886
C:\Users\CYMR90~1\AppData\Local\Temp\ccioldvv.s:23511  .debug_str:0000000000009a65 .LASF1887
C:\Users\CYMR90~1\AppData\Local\Temp\ccioldvv.s:23325  .debug_str:0000000000008ed8 .LASF1888
C:\Users\CYMR90~1\AppData\Local\Temp\ccioldvv.s:32004  .debug_str:000000000002b8bf .LASF1889
C:\Users\CYMR90~1\AppData\Local\Temp\ccioldvv.s:27424  .debug_str:000000000001969e .LASF1890
C:\Users\CYMR90~1\AppData\Local\Temp\ccioldvv.s:23503  .debug_str:00000000000099bf .LASF1891
C:\Users\CYMR90~1\AppData\Local\Temp\ccioldvv.s:23595  .debug_str:0000000000009fa0 .LASF1892
C:\Users\CYMR90~1\AppData\Local\Temp\ccioldvv.s:28176  .debug_str:000000000001c753 .LASF1893
C:\Users\CYMR90~1\AppData\Local\Temp\ccioldvv.s:23319  .debug_str:0000000000008e6c .LASF1894
C:\Users\CYMR90~1\AppData\Local\Temp\ccioldvv.s:24567  .debug_str:000000000000dff9 .LASF1895
C:\Users\CYMR90~1\AppData\Local\Temp\ccioldvv.s:26880  .debug_str:0000000000017433 .LASF1896
C:\Users\CYMR90~1\AppData\Local\Temp\ccioldvv.s:21541  .debug_str:0000000000001cba .LASF1897
C:\Users\CYMR90~1\AppData\Local\Temp\ccioldvv.s:30834  .debug_str:0000000000026f55 .LASF1898
C:\Users\CYMR90~1\AppData\Local\Temp\ccioldvv.s:27674  .debug_str:000000000001a7eb .LASF1899
C:\Users\CYMR90~1\AppData\Local\Temp\ccioldvv.s:24391  .debug_str:000000000000d56a .LASF1900
C:\Users\CYMR90~1\AppData\Local\Temp\ccioldvv.s:21139  .debug_str:0000000000000403 .LASF1901
C:\Users\CYMR90~1\AppData\Local\Temp\ccioldvv.s:21967  .debug_str:000000000000373e .LASF1902
C:\Users\CYMR90~1\AppData\Local\Temp\ccioldvv.s:24027  .debug_str:000000000000bc9a .LASF1903
C:\Users\CYMR90~1\AppData\Local\Temp\ccioldvv.s:32246  .debug_str:000000000002c8c9 .LASF1904
C:\Users\CYMR90~1\AppData\Local\Temp\ccioldvv.s:26747  .debug_str:00000000000169fc .LASF1905
C:\Users\CYMR90~1\AppData\Local\Temp\ccioldvv.s:23471  .debug_str:000000000000976c .LASF1906
C:\Users\CYMR90~1\AppData\Local\Temp\ccioldvv.s:31180  .debug_str:0000000000028623 .LASF1907
C:\Users\CYMR90~1\AppData\Local\Temp\ccioldvv.s:28214  .debug_str:000000000001ca7e .LASF1908
C:\Users\CYMR90~1\AppData\Local\Temp\ccioldvv.s:22491  .debug_str:00000000000058cc .LASF1909
C:\Users\CYMR90~1\AppData\Local\Temp\ccioldvv.s:31542  .debug_str:0000000000029cd2 .LASF1910
C:\Users\CYMR90~1\AppData\Local\Temp\ccioldvv.s:27852  .debug_str:000000000001b3bf .LASF1911
C:\Users\CYMR90~1\AppData\Local\Temp\ccioldvv.s:27522  .debug_str:0000000000019db0 .LASF1912
C:\Users\CYMR90~1\AppData\Local\Temp\ccioldvv.s:23931  .debug_str:000000000000b66d .LASF1913
C:\Users\CYMR90~1\AppData\Local\Temp\ccioldvv.s:23771  .debug_str:000000000000ab59 .LASF1914
C:\Users\CYMR90~1\AppData\Local\Temp\ccioldvv.s:29160  .debug_str:000000000002057a .LASF1915
C:\Users\CYMR90~1\AppData\Local\Temp\ccioldvv.s:30440  .debug_str:000000000002565f .LASF1916
C:\Users\CYMR90~1\AppData\Local\Temp\ccioldvv.s:27040  .debug_str:0000000000017e20 .LASF1917
C:\Users\CYMR90~1\AppData\Local\Temp\ccioldvv.s:23675  .debug_str:000000000000a4f1 .LASF1918
C:\Users\CYMR90~1\AppData\Local\Temp\ccioldvv.s:31598  .debug_str:0000000000029ff1 .LASF1919
C:\Users\CYMR90~1\AppData\Local\Temp\ccioldvv.s:28186  .debug_str:000000000001c7f6 .LASF1920
C:\Users\CYMR90~1\AppData\Local\Temp\ccioldvv.s:24355  .debug_str:000000000000d268 .LASF1921
C:\Users\CYMR90~1\AppData\Local\Temp\ccioldvv.s:22885  .debug_str:0000000000007104 .LASF1922
C:\Users\CYMR90~1\AppData\Local\Temp\ccioldvv.s:29230  .debug_str:00000000000209fe .LASF1923
C:\Users\CYMR90~1\AppData\Local\Temp\ccioldvv.s:31326  .debug_str:0000000000028f4c .LASF1924
C:\Users\CYMR90~1\AppData\Local\Temp\ccioldvv.s:23791  .debug_str:000000000000acc4 .LASF1925
C:\Users\CYMR90~1\AppData\Local\Temp\ccioldvv.s:29056  .debug_str:000000000001ff52 .LASF1926
C:\Users\CYMR90~1\AppData\Local\Temp\ccioldvv.s:28078  .debug_str:000000000001c195 .LASF1927
C:\Users\CYMR90~1\AppData\Local\Temp\ccioldvv.s:22005  .debug_str:00000000000039b4 .LASF1928
C:\Users\CYMR90~1\AppData\Local\Temp\ccioldvv.s:22935  .debug_str:000000000000748a .LASF1929
C:\Users\CYMR90~1\AppData\Local\Temp\ccioldvv.s:28982  .debug_str:000000000001fac9 .LASF1930
C:\Users\CYMR90~1\AppData\Local\Temp\ccioldvv.s:32278  .debug_str:000000000002cb11 .LASF1931
C:\Users\CYMR90~1\AppData\Local\Temp\ccioldvv.s:31964  .debug_str:000000000002b644 .LASF1932
C:\Users\CYMR90~1\AppData\Local\Temp\ccioldvv.s:23051  .debug_str:0000000000007bff .LASF1933
C:\Users\CYMR90~1\AppData\Local\Temp\ccioldvv.s:24105  .debug_str:000000000000c25d .LASF1934
C:\Users\CYMR90~1\AppData\Local\Temp\ccioldvv.s:28156  .debug_str:000000000001c621 .LASF1935
C:\Users\CYMR90~1\AppData\Local\Temp\ccioldvv.s:22531  .debug_str:0000000000005b68 .LASF1936
C:\Users\CYMR90~1\AppData\Local\Temp\ccioldvv.s:28014  .debug_str:000000000001bd6c .LASF1937
C:\Users\CYMR90~1\AppData\Local\Temp\ccioldvv.s:26990  .debug_str:0000000000017b35 .LASF1938
C:\Users\CYMR90~1\AppData\Local\Temp\ccioldvv.s:26305  .debug_str:0000000000014de9 .LASF1939
C:\Users\CYMR90~1\AppData\Local\Temp\ccioldvv.s:23235  .debug_str:00000000000088cc .LASF1940
C:\Users\CYMR90~1\AppData\Local\Temp\ccioldvv.s:31392  .debug_str:0000000000029376 .LASF1941
C:\Users\CYMR90~1\AppData\Local\Temp\ccioldvv.s:28266  .debug_str:000000000001cdcd .LASF1942
C:\Users\CYMR90~1\AppData\Local\Temp\ccioldvv.s:24163  .debug_str:000000000000c5dc .LASF1943
C:\Users\CYMR90~1\AppData\Local\Temp\ccioldvv.s:25289  .debug_str:0000000000010c54 .LASF1944
C:\Users\CYMR90~1\AppData\Local\Temp\ccioldvv.s:29092  .debug_str:000000000002018a .LASF1945
C:\Users\CYMR90~1\AppData\Local\Temp\ccioldvv.s:26027  .debug_str:0000000000013cf2 .LASF1946
C:\Users\CYMR90~1\AppData\Local\Temp\ccioldvv.s:22829  .debug_str:0000000000006d48 .LASF1947
C:\Users\CYMR90~1\AppData\Local\Temp\ccioldvv.s:21749  .debug_str:0000000000002928 .LASF1948
C:\Users\CYMR90~1\AppData\Local\Temp\ccioldvv.s:27904  .debug_str:000000000001b6d4 .LASF1949
C:\Users\CYMR90~1\AppData\Local\Temp\ccioldvv.s:24827  .debug_str:000000000000ef82 .LASF1950
C:\Users\CYMR90~1\AppData\Local\Temp\ccioldvv.s:21613  .debug_str:00000000000020a4 .LASF1951
C:\Users\CYMR90~1\AppData\Local\Temp\ccioldvv.s:29848  .debug_str:0000000000022fd8 .LASF1952
C:\Users\CYMR90~1\AppData\Local\Temp\ccioldvv.s:30570  .debug_str:0000000000025f30 .LASF1953
C:\Users\CYMR90~1\AppData\Local\Temp\ccioldvv.s:26151  .debug_str:000000000001449d .LASF1954
C:\Users\CYMR90~1\AppData\Local\Temp\ccioldvv.s:29376  .debug_str:000000000002128c .LASF1955
C:\Users\CYMR90~1\AppData\Local\Temp\ccioldvv.s:30052  .debug_str:0000000000023c0c .LASF1956
C:\Users\CYMR90~1\AppData\Local\Temp\ccioldvv.s:21669  .debug_str:00000000000023e0 .LASF1957
C:\Users\CYMR90~1\AppData\Local\Temp\ccioldvv.s:31806  .debug_str:000000000002ac4e .LASF1958
C:\Users\CYMR90~1\AppData\Local\Temp\ccioldvv.s:23057  .debug_str:0000000000007c71 .LASF1959
C:\Users\CYMR90~1\AppData\Local\Temp\ccioldvv.s:31376  .debug_str:0000000000029281 .LASF1960
C:\Users\CYMR90~1\AppData\Local\Temp\ccioldvv.s:28222  .debug_str:000000000001cb04 .LASF1961
C:\Users\CYMR90~1\AppData\Local\Temp\ccioldvv.s:21181  .debug_str:0000000000000640 .LASF1962
C:\Users\CYMR90~1\AppData\Local\Temp\ccioldvv.s:26527  .debug_str:0000000000015b4f .LASF1963
C:\Users\CYMR90~1\AppData\Local\Temp\ccioldvv.s:30422  .debug_str:0000000000025512 .LASF1964
C:\Users\CYMR90~1\AppData\Local\Temp\ccioldvv.s:22889  .debug_str:000000000000716f .LASF1965
C:\Users\CYMR90~1\AppData\Local\Temp\ccioldvv.s:28358  .debug_str:000000000001d499 .LASF1966
C:\Users\CYMR90~1\AppData\Local\Temp\ccioldvv.s:31904  .debug_str:000000000002b212 .LASF1967
C:\Users\CYMR90~1\AppData\Local\Temp\ccioldvv.s:28200  .debug_str:000000000001c985 .LASF1968
C:\Users\CYMR90~1\AppData\Local\Temp\ccioldvv.s:29726  .debug_str:0000000000022874 .LASF1969
C:\Users\CYMR90~1\AppData\Local\Temp\ccioldvv.s:22871  .debug_str:000000000000701e .LASF1970
C:\Users\CYMR90~1\AppData\Local\Temp\ccioldvv.s:29730  .debug_str:00000000000228a5 .LASF1971
C:\Users\CYMR90~1\AppData\Local\Temp\ccioldvv.s:30454  .debug_str:0000000000025760 .LASF1972
C:\Users\CYMR90~1\AppData\Local\Temp\ccioldvv.s:27510  .debug_str:0000000000019cf0 .LASF1973
C:\Users\CYMR90~1\AppData\Local\Temp\ccioldvv.s:27318  .debug_str:0000000000018fbe .LASF1974
C:\Users\CYMR90~1\AppData\Local\Temp\ccioldvv.s:31856  .debug_str:000000000002af60 .LASF1975
C:\Users\CYMR90~1\AppData\Local\Temp\ccioldvv.s:23075  .debug_str:0000000000007e29 .LASF1976
C:\Users\CYMR90~1\AppData\Local\Temp\ccioldvv.s:23423  .debug_str:0000000000009475 .LASF1977
C:\Users\CYMR90~1\AppData\Local\Temp\ccioldvv.s:31620  .debug_str:000000000002a132 .LASF1978
C:\Users\CYMR90~1\AppData\Local\Temp\ccioldvv.s:22351  .debug_str:0000000000005070 .LASF1979
C:\Users\CYMR90~1\AppData\Local\Temp\ccioldvv.s:30360  .debug_str:0000000000025044 .LASF1980
C:\Users\CYMR90~1\AppData\Local\Temp\ccioldvv.s:30216  .debug_str:00000000000246c3 .LASF1981
C:\Users\CYMR90~1\AppData\Local\Temp\ccioldvv.s:30060  .debug_str:0000000000023c93 .LASF1982
C:\Users\CYMR90~1\AppData\Local\Temp\ccioldvv.s:30886  .debug_str:0000000000027219 .LASF1983
C:\Users\CYMR90~1\AppData\Local\Temp\ccioldvv.s:31810  .debug_str:000000000002aca4 .LASF1984
C:\Users\CYMR90~1\AppData\Local\Temp\ccioldvv.s:28748  .debug_str:000000000001eccf .LASF1985
C:\Users\CYMR90~1\AppData\Local\Temp\ccioldvv.s:27934  .debug_str:000000000001b8bf .LASF1986
C:\Users\CYMR90~1\AppData\Local\Temp\ccioldvv.s:26223  .debug_str:00000000000148ce .LASF1987
C:\Users\CYMR90~1\AppData\Local\Temp\ccioldvv.s:27216  .debug_str:00000000000188bf .LASF1988
C:\Users\CYMR90~1\AppData\Local\Temp\ccioldvv.s:24261  .debug_str:000000000000ccb2 .LASF1989
C:\Users\CYMR90~1\AppData\Local\Temp\ccioldvv.s:22103  .debug_str:0000000000004016 .LASF1990
C:\Users\CYMR90~1\AppData\Local\Temp\ccioldvv.s:24317  .debug_str:000000000000cfd8 .LASF1991
C:\Users\CYMR90~1\AppData\Local\Temp\ccioldvv.s:25207  .debug_str:000000000001072f .LASF1992
C:\Users\CYMR90~1\AppData\Local\Temp\ccioldvv.s:22257  .debug_str:0000000000004ad7 .LASF1993
C:\Users\CYMR90~1\AppData\Local\Temp\ccioldvv.s:21329  .debug_str:0000000000000fc1 .LASF1994
C:\Users\CYMR90~1\AppData\Local\Temp\ccioldvv.s:30472  .debug_str:00000000000258b5 .LASF1995
C:\Users\CYMR90~1\AppData\Local\Temp\ccioldvv.s:21965  .debug_str:000000000000370a .LASF1996
C:\Users\CYMR90~1\AppData\Local\Temp\ccioldvv.s:30940  .debug_str:000000000002764b .LASF1997
C:\Users\CYMR90~1\AppData\Local\Temp\ccioldvv.s:23207  .debug_str:0000000000008703 .LASF1998
C:\Users\CYMR90~1\AppData\Local\Temp\ccioldvv.s:27144  .debug_str:0000000000018465 .LASF1999
C:\Users\CYMR90~1\AppData\Local\Temp\ccioldvv.s:26629  .debug_str:000000000001624b .LASF2000
C:\Users\CYMR90~1\AppData\Local\Temp\ccioldvv.s:25449  .debug_str:0000000000011600 .LASF2001
C:\Users\CYMR90~1\AppData\Local\Temp\ccioldvv.s:29738  .debug_str:0000000000022937 .LASF2002
C:\Users\CYMR90~1\AppData\Local\Temp\ccioldvv.s:31158  .debug_str:00000000000284e7 .LASF2003
C:\Users\CYMR90~1\AppData\Local\Temp\ccioldvv.s:25001  .debug_str:000000000000fa7d .LASF2004
C:\Users\CYMR90~1\AppData\Local\Temp\ccioldvv.s:29630  .debug_str:00000000000222a6 .LASF2005
C:\Users\CYMR90~1\AppData\Local\Temp\ccioldvv.s:26842  .debug_str:0000000000017218 .LASF2006
C:\Users\CYMR90~1\AppData\Local\Temp\ccioldvv.s:32052  .debug_str:000000000002bc18 .LASF2007
C:\Users\CYMR90~1\AppData\Local\Temp\ccioldvv.s:22397  .debug_str:000000000000534b .LASF2008
C:\Users\CYMR90~1\AppData\Local\Temp\ccioldvv.s:25957  .debug_str:00000000000138bf .LASF2009
C:\Users\CYMR90~1\AppData\Local\Temp\ccioldvv.s:28642  .debug_str:000000000001e69f .LASF2010
C:\Users\CYMR90~1\AppData\Local\Temp\ccioldvv.s:24285  .debug_str:000000000000ce24 .LASF2011
C:\Users\CYMR90~1\AppData\Local\Temp\ccioldvv.s:21523  .debug_str:0000000000001bb8 .LASF2012
C:\Users\CYMR90~1\AppData\Local\Temp\ccioldvv.s:29930  .debug_str:000000000002344c .LASF2013
C:\Users\CYMR90~1\AppData\Local\Temp\ccioldvv.s:29678  .debug_str:0000000000022534 .LASF2014
C:\Users\CYMR90~1\AppData\Local\Temp\ccioldvv.s:27652  .debug_str:000000000001a68e .LASF2015
C:\Users\CYMR90~1\AppData\Local\Temp\ccioldvv.s:31530  .debug_str:0000000000029c1e .LASF2016
C:\Users\CYMR90~1\AppData\Local\Temp\ccioldvv.s:29838  .debug_str:0000000000022f65 .LASF2017
C:\Users\CYMR90~1\AppData\Local\Temp\ccioldvv.s:31966  .debug_str:000000000002b674 .LASF2018
C:\Users\CYMR90~1\AppData\Local\Temp\ccioldvv.s:28402  .debug_str:000000000001d76f .LASF2019
C:\Users\CYMR90~1\AppData\Local\Temp\ccioldvv.s:22767  .debug_str:000000000000694a .LASF2020
C:\Users\CYMR90~1\AppData\Local\Temp\ccioldvv.s:29882  .debug_str:00000000000231a7 .LASF2021
C:\Users\CYMR90~1\AppData\Local\Temp\ccioldvv.s:30876  .debug_str:000000000002719b .LASF2022
C:\Users\CYMR90~1\AppData\Local\Temp\ccioldvv.s:25333  .debug_str:0000000000010f24 .LASF2023
C:\Users\CYMR90~1\AppData\Local\Temp\ccioldvv.s:30812  .debug_str:0000000000026db9 .LASF2024
C:\Users\CYMR90~1\AppData\Local\Temp\ccioldvv.s:24003  .debug_str:000000000000bb71 .LASF2025
C:\Users\CYMR90~1\AppData\Local\Temp\ccioldvv.s:31918  .debug_str:000000000002b2e1 .LASF2026
C:\Users\CYMR90~1\AppData\Local\Temp\ccioldvv.s:21931  .debug_str:0000000000003509 .LASF2027
C:\Users\CYMR90~1\AppData\Local\Temp\ccioldvv.s:29942  .debug_str:00000000000234f2 .LASF2028
C:\Users\CYMR90~1\AppData\Local\Temp\ccioldvv.s:28952  .debug_str:000000000001f8d5 .LASF2029
C:\Users\CYMR90~1\AppData\Local\Temp\ccioldvv.s:21091  .debug_str:000000000000011d .LASF2030
C:\Users\CYMR90~1\AppData\Local\Temp\ccioldvv.s:27044  .debug_str:0000000000017e61 .LASF2031
C:\Users\CYMR90~1\AppData\Local\Temp\ccioldvv.s:23765  .debug_str:000000000000ab14 .LASF2032
C:\Users\CYMR90~1\AppData\Local\Temp\ccioldvv.s:24963  .debug_str:000000000000f85d .LASF2033
C:\Users\CYMR90~1\AppData\Local\Temp\ccioldvv.s:23979  .debug_str:000000000000b9a5 .LASF2034
C:\Users\CYMR90~1\AppData\Local\Temp\ccioldvv.s:25523  .debug_str:0000000000011c10 .LASF2035
C:\Users\CYMR90~1\AppData\Local\Temp\ccioldvv.s:29410  .debug_str:0000000000021540 .LASF2036
C:\Users\CYMR90~1\AppData\Local\Temp\ccioldvv.s:29816  .debug_str:0000000000022e1e .LASF2037
C:\Users\CYMR90~1\AppData\Local\Temp\ccioldvv.s:30404  .debug_str:000000000002534d .LASF2038
C:\Users\CYMR90~1\AppData\Local\Temp\ccioldvv.s:25621  .debug_str:0000000000012257 .LASF2039
C:\Users\CYMR90~1\AppData\Local\Temp\ccioldvv.s:27588  .debug_str:000000000001a187 .LASF2040
C:\Users\CYMR90~1\AppData\Local\Temp\ccioldvv.s:24313  .debug_str:000000000000cf88 .LASF2041
C:\Users\CYMR90~1\AppData\Local\Temp\ccioldvv.s:21757  .debug_str:000000000000299b .LASF2042
C:\Users\CYMR90~1\AppData\Local\Temp\ccioldvv.s:22493  .debug_str:000000000000590a .LASF2043
C:\Users\CYMR90~1\AppData\Local\Temp\ccioldvv.s:32328  .debug_str:000000000002ce7e .LASF2044
C:\Users\CYMR90~1\AppData\Local\Temp\ccioldvv.s:25923  .debug_str:0000000000013680 .LASF2045
C:\Users\CYMR90~1\AppData\Local\Temp\ccioldvv.s:29694  .debug_str:000000000002264b .LASF2046
C:\Users\CYMR90~1\AppData\Local\Temp\ccioldvv.s:31338  .debug_str:000000000002901f .LASF2047
C:\Users\CYMR90~1\AppData\Local\Temp\ccioldvv.s:28060  .debug_str:000000000001c07c .LASF2048
C:\Users\CYMR90~1\AppData\Local\Temp\ccioldvv.s:28600  .debug_str:000000000001e3fb .LASF2049
C:\Users\CYMR90~1\AppData\Local\Temp\ccioldvv.s:22551  .debug_str:0000000000005c8d .LASF2050
C:\Users\CYMR90~1\AppData\Local\Temp\ccioldvv.s:21917  .debug_str:000000000000340f .LASF2051
C:\Users\CYMR90~1\AppData\Local\Temp\ccioldvv.s:23879  .debug_str:000000000000b303 .LASF2052
C:\Users\CYMR90~1\AppData\Local\Temp\ccioldvv.s:30438  .debug_str:0000000000025618 .LASF2053
C:\Users\CYMR90~1\AppData\Local\Temp\ccioldvv.s:31764  .debug_str:000000000002a9ed .LASF2054
C:\Users\CYMR90~1\AppData\Local\Temp\ccioldvv.s:22361  .debug_str:0000000000005118 .LASF2055
C:\Users\CYMR90~1\AppData\Local\Temp\ccioldvv.s:30768  .debug_str:0000000000026b42 .LASF2056
C:\Users\CYMR90~1\AppData\Local\Temp\ccioldvv.s:28766  .debug_str:000000000001edf2 .LASF2057
C:\Users\CYMR90~1\AppData\Local\Temp\ccioldvv.s:26898  .debug_str:000000000001753d .LASF2058
C:\Users\CYMR90~1\AppData\Local\Temp\ccioldvv.s:23755  .debug_str:000000000000aa68 .LASF2059
C:\Users\CYMR90~1\AppData\Local\Temp\ccioldvv.s:24557  .debug_str:000000000000df5f .LASF2060
C:\Users\CYMR90~1\AppData\Local\Temp\ccioldvv.s:29216  .debug_str:000000000002093b .LASF2061
C:\Users\CYMR90~1\AppData\Local\Temp\ccioldvv.s:26055  .debug_str:0000000000013e84 .LASF2062
C:\Users\CYMR90~1\AppData\Local\Temp\ccioldvv.s:21727  .debug_str:000000000000279c .LASF2063
C:\Users\CYMR90~1\AppData\Local\Temp\ccioldvv.s:27794  .debug_str:000000000001afbc .LASF2064
C:\Users\CYMR90~1\AppData\Local\Temp\ccioldvv.s:26661  .debug_str:0000000000016430 .LASF2065
C:\Users\CYMR90~1\AppData\Local\Temp\ccioldvv.s:23439  .debug_str:0000000000009555 .LASF2066
C:\Users\CYMR90~1\AppData\Local\Temp\ccioldvv.s:23907  .debug_str:000000000000b483 .LASF2067
C:\Users\CYMR90~1\AppData\Local\Temp\ccioldvv.s:26996  .debug_str:0000000000017b9e .LASF2068
C:\Users\CYMR90~1\AppData\Local\Temp\ccioldvv.s:26605  .debug_str:00000000000160cd .LASF2069
C:\Users\CYMR90~1\AppData\Local\Temp\ccioldvv.s:24447  .debug_str:000000000000d8d7 .LASF2070
C:\Users\CYMR90~1\AppData\Local\Temp\ccioldvv.s:22525  .debug_str:0000000000005b21 .LASF2071
C:\Users\CYMR90~1\AppData\Local\Temp\ccioldvv.s:25779  .debug_str:0000000000012ca4 .LASF2072
C:\Users\CYMR90~1\AppData\Local\Temp\ccioldvv.s:24787  .debug_str:000000000000ed80 .LASF2073
C:\Users\CYMR90~1\AppData\Local\Temp\ccioldvv.s:24041  .debug_str:000000000000bdb8 .LASF2074
C:\Users\CYMR90~1\AppData\Local\Temp\ccioldvv.s:32130  .debug_str:000000000002c170 .LASF2075
C:\Users\CYMR90~1\AppData\Local\Temp\ccioldvv.s:23311  .debug_str:0000000000008e00 .LASF2076
C:\Users\CYMR90~1\AppData\Local\Temp\ccioldvv.s:31416  .debug_str:000000000002955b .LASF2077
C:\Users\CYMR90~1\AppData\Local\Temp\ccioldvv.s:22375  .debug_str:00000000000051e9 .LASF2078
C:\Users\CYMR90~1\AppData\Local\Temp\ccioldvv.s:21485  .debug_str:000000000000193f .LASF2079
C:\Users\CYMR90~1\AppData\Local\Temp\ccioldvv.s:29972  .debug_str:000000000002370d .LASF2080
C:\Users\CYMR90~1\AppData\Local\Temp\ccioldvv.s:31302  .debug_str:0000000000028de9 .LASF2081
C:\Users\CYMR90~1\AppData\Local\Temp\ccioldvv.s:31394  .debug_str:000000000002939e .LASF2082
C:\Users\CYMR90~1\AppData\Local\Temp\ccioldvv.s:25647  .debug_str:00000000000123d3 .LASF2083
C:\Users\CYMR90~1\AppData\Local\Temp\ccioldvv.s:23097  .debug_str:0000000000007f7e .LASF2084
C:\Users\CYMR90~1\AppData\Local\Temp\ccioldvv.s:29854  .debug_str:0000000000023036 .LASF2085
C:\Users\CYMR90~1\AppData\Local\Temp\ccioldvv.s:21379  .debug_str:000000000000126a .LASF2086
C:\Users\CYMR90~1\AppData\Local\Temp\ccioldvv.s:21235  .debug_str:000000000000098a .LASF2087
C:\Users\CYMR90~1\AppData\Local\Temp\ccioldvv.s:27856  .debug_str:000000000001b405 .LASF2088
C:\Users\CYMR90~1\AppData\Local\Temp\ccioldvv.s:28922  .debug_str:000000000001f734 .LASF2089
C:\Users\CYMR90~1\AppData\Local\Temp\ccioldvv.s:26828  .debug_str:000000000001714d .LASF2090
C:\Users\CYMR90~1\AppData\Local\Temp\ccioldvv.s:25579  .debug_str:0000000000011f5a .LASF2091
C:\Users\CYMR90~1\AppData\Local\Temp\ccioldvv.s:26922  .debug_str:00000000000176b6 .LASF2092
C:\Users\CYMR90~1\AppData\Local\Temp\ccioldvv.s:26083  .debug_str:0000000000014035 .LASF2093
C:\Users\CYMR90~1\AppData\Local\Temp\ccioldvv.s:32124  .debug_str:000000000002c11c .LASF2094
C:\Users\CYMR90~1\AppData\Local\Temp\ccioldvv.s:22127  .debug_str:000000000000420f .LASF2095
C:\Users\CYMR90~1\AppData\Local\Temp\ccioldvv.s:23551  .debug_str:0000000000009cd3 .LASF2096
C:\Users\CYMR90~1\AppData\Local\Temp\ccioldvv.s:21889  .debug_str:000000000000321e .LASF2097
C:\Users\CYMR90~1\AppData\Local\Temp\ccioldvv.s:30580  .debug_str:0000000000025fce .LASF2098
C:\Users\CYMR90~1\AppData\Local\Temp\ccioldvv.s:25121  .debug_str:0000000000010205 .LASF2099
C:\Users\CYMR90~1\AppData\Local\Temp\ccioldvv.s:23915  .debug_str:000000000000b50a .LASF2100
C:\Users\CYMR90~1\AppData\Local\Temp\ccioldvv.s:22703  .debug_str:000000000000653d .LASF2101
C:\Users\CYMR90~1\AppData\Local\Temp\ccioldvv.s:21803  .debug_str:0000000000002ca5 .LASF2102
C:\Users\CYMR90~1\AppData\Local\Temp\ccioldvv.s:23587  .debug_str:0000000000009efd .LASF2103
C:\Users\CYMR90~1\AppData\Local\Temp\ccioldvv.s:32082  .debug_str:000000000002bdf4 .LASF2104
C:\Users\CYMR90~1\AppData\Local\Temp\ccioldvv.s:26920  .debug_str:0000000000017692 .LASF2105
C:\Users\CYMR90~1\AppData\Local\Temp\ccioldvv.s:21905  .debug_str:0000000000003337 .LASF2106
C:\Users\CYMR90~1\AppData\Local\Temp\ccioldvv.s:31362  .debug_str:00000000000291b2 .LASF2107
C:\Users\CYMR90~1\AppData\Local\Temp\ccioldvv.s:25615  .debug_str:00000000000121dd .LASF2108
C:\Users\CYMR90~1\AppData\Local\Temp\ccioldvv.s:21921  .debug_str:000000000000344d .LASF2109
C:\Users\CYMR90~1\AppData\Local\Temp\ccioldvv.s:24357  .debug_str:000000000000d294 .LASF2110
C:\Users\CYMR90~1\AppData\Local\Temp\ccioldvv.s:26874  .debug_str:00000000000173d7 .LASF2111
C:\Users\CYMR90~1\AppData\Local\Temp\ccioldvv.s:28942  .debug_str:000000000001f84f .LASF2112
C:\Users\CYMR90~1\AppData\Local\Temp\ccioldvv.s:31524  .debug_str:0000000000029bc4 .LASF2113
C:\Users\CYMR90~1\AppData\Local\Temp\ccioldvv.s:30920  .debug_str:000000000002750b .LASF2114
C:\Users\CYMR90~1\AppData\Local\Temp\ccioldvv.s:25979  .debug_str:00000000000139f7 .LASF2115
C:\Users\CYMR90~1\AppData\Local\Temp\ccioldvv.s:27782  .debug_str:000000000001aede .LASF2116
C:\Users\CYMR90~1\AppData\Local\Temp\ccioldvv.s:26163  .debug_str:000000000001453a .LASF2117
C:\Users\CYMR90~1\AppData\Local\Temp\ccioldvv.s:30208  .debug_str:0000000000024654 .LASF2118
C:\Users\CYMR90~1\AppData\Local\Temp\ccioldvv.s:28786  .debug_str:000000000001ef16 .LASF2119
C:\Users\CYMR90~1\AppData\Local\Temp\ccioldvv.s:21761  .debug_str:00000000000029d2 .LASF2120
C:\Users\CYMR90~1\AppData\Local\Temp\ccioldvv.s:29318  .debug_str:0000000000020f5c .LASF2121
C:\Users\CYMR90~1\AppData\Local\Temp\ccioldvv.s:23165  .debug_str:0000000000008492 .LASF2122
C:\Users\CYMR90~1\AppData\Local\Temp\ccioldvv.s:26025  .debug_str:0000000000013cce .LASF2123
C:\Users\CYMR90~1\AppData\Local\Temp\ccioldvv.s:28626  .debug_str:000000000001e58d .LASF2124
C:\Users\CYMR90~1\AppData\Local\Temp\ccioldvv.s:25873  .debug_str:00000000000132c4 .LASF2125
C:\Users\CYMR90~1\AppData\Local\Temp\ccioldvv.s:26988  .debug_str:0000000000017b0e .LASF2126
C:\Users\CYMR90~1\AppData\Local\Temp\ccioldvv.s:30900  .debug_str:0000000000027324 .LASF2127
C:\Users\CYMR90~1\AppData\Local\Temp\ccioldvv.s:29424  .debug_str:0000000000021615 .LASF2128
C:\Users\CYMR90~1\AppData\Local\Temp\ccioldvv.s:25329  .debug_str:0000000000010ee9 .LASF2129
C:\Users\CYMR90~1\AppData\Local\Temp\ccioldvv.s:29332  .debug_str:0000000000021027 .LASF2130
C:\Users\CYMR90~1\AppData\Local\Temp\ccioldvv.s:27206  .debug_str:0000000000018812 .LASF2131
C:\Users\CYMR90~1\AppData\Local\Temp\ccioldvv.s:29156  .debug_str:0000000000020535 .LASF2132
C:\Users\CYMR90~1\AppData\Local\Temp\ccioldvv.s:25517  .debug_str:0000000000011b9a .LASF2133
C:\Users\CYMR90~1\AppData\Local\Temp\ccioldvv.s:21895  .debug_str:0000000000003299 .LASF2134
C:\Users\CYMR90~1\AppData\Local\Temp\ccioldvv.s:21639  .debug_str:0000000000002217 .LASF2135
C:\Users\CYMR90~1\AppData\Local\Temp\ccioldvv.s:27366  .debug_str:0000000000019350 .LASF2136
C:\Users\CYMR90~1\AppData\Local\Temp\ccioldvv.s:31628  .debug_str:000000000002a1c1 .LASF2137
C:\Users\CYMR90~1\AppData\Local\Temp\ccioldvv.s:23167  .debug_str:00000000000084b7 .LASF2138
C:\Users\CYMR90~1\AppData\Local\Temp\ccioldvv.s:29516  .debug_str:0000000000021bcb .LASF2139
C:\Users\CYMR90~1\AppData\Local\Temp\ccioldvv.s:25425  .debug_str:000000000001146e .LASF2140
C:\Users\CYMR90~1\AppData\Local\Temp\ccioldvv.s:24903  .debug_str:000000000000f44b .LASF2141
C:\Users\CYMR90~1\AppData\Local\Temp\ccioldvv.s:28902  .debug_str:000000000001f614 .LASF2142
C:\Users\CYMR90~1\AppData\Local\Temp\ccioldvv.s:29448  .debug_str:0000000000021790 .LASF2143
C:\Users\CYMR90~1\AppData\Local\Temp\ccioldvv.s:25713  .debug_str:0000000000012825 .LASF2144
C:\Users\CYMR90~1\AppData\Local\Temp\ccioldvv.s:21923  .debug_str:0000000000003474 .LASF2145
C:\Users\CYMR90~1\AppData\Local\Temp\ccioldvv.s:21097  .debug_str:0000000000000166 .LASF2146
C:\Users\CYMR90~1\AppData\Local\Temp\ccioldvv.s:21515  .debug_str:0000000000001b1c .LASF2147
C:\Users\CYMR90~1\AppData\Local\Temp\ccioldvv.s:26928  .debug_str:000000000001770c .LASF2148
C:\Users\CYMR90~1\AppData\Local\Temp\ccioldvv.s:31328  .debug_str:0000000000028f8c .LASF2149
C:\Users\CYMR90~1\AppData\Local\Temp\ccioldvv.s:30922  .debug_str:0000000000027532 .LASF2150
C:\Users\CYMR90~1\AppData\Local\Temp\ccioldvv.s:25981  .debug_str:0000000000013a1e .LASF2151
C:\Users\CYMR90~1\AppData\Local\Temp\ccioldvv.s:24527  .debug_str:000000000000dd2f .LASF2152
C:\Users\CYMR90~1\AppData\Local\Temp\ccioldvv.s:31478  .debug_str:000000000002994e .LASF2153
C:\Users\CYMR90~1\AppData\Local\Temp\ccioldvv.s:26709  .debug_str:000000000001676e .LASF2154
C:\Users\CYMR90~1\AppData\Local\Temp\ccioldvv.s:21441  .debug_str:0000000000001621 .LASF2155
C:\Users\CYMR90~1\AppData\Local\Temp\ccioldvv.s:21993  .debug_str:0000000000003914 .LASF2156
C:\Users\CYMR90~1\AppData\Local\Temp\ccioldvv.s:30888  .debug_str:000000000002723c .LASF2157
C:\Users\CYMR90~1\AppData\Local\Temp\ccioldvv.s:25363  .debug_str:00000000000110d9 .LASF2158
C:\Users\CYMR90~1\AppData\Local\Temp\ccioldvv.s:27268  .debug_str:0000000000018bff .LASF2159
C:\Users\CYMR90~1\AppData\Local\Temp\ccioldvv.s:30682  .debug_str:0000000000026627 .LASF2160
C:\Users\CYMR90~1\AppData\Local\Temp\ccioldvv.s:23337  .debug_str:0000000000008f98 .LASF2161
C:\Users\CYMR90~1\AppData\Local\Temp\ccioldvv.s:31608  .debug_str:000000000002a097 .LASF2162
C:\Users\CYMR90~1\AppData\Local\Temp\ccioldvv.s:32316  .debug_str:000000000002cd5c .LASF2163
C:\Users\CYMR90~1\AppData\Local\Temp\ccioldvv.s:22027  .debug_str:0000000000003b3d .LASF2164
C:\Users\CYMR90~1\AppData\Local\Temp\ccioldvv.s:30480  .debug_str:0000000000025947 .LASF2165
C:\Users\CYMR90~1\AppData\Local\Temp\ccioldvv.s:27350  .debug_str:0000000000019289 .LASF2166
C:\Users\CYMR90~1\AppData\Local\Temp\ccioldvv.s:24897  .debug_str:000000000000f3f4 .LASF2167
C:\Users\CYMR90~1\AppData\Local\Temp\ccioldvv.s:23199  .debug_str:0000000000008697 .LASF2168
C:\Users\CYMR90~1\AppData\Local\Temp\ccioldvv.s:28452  .debug_str:000000000001dacb .LASF2169
C:\Users\CYMR90~1\AppData\Local\Temp\ccioldvv.s:26651  .debug_str:0000000000016398 .LASF2170
C:\Users\CYMR90~1\AppData\Local\Temp\ccioldvv.s:24673  .debug_str:000000000000e611 .LASF2171
C:\Users\CYMR90~1\AppData\Local\Temp\ccioldvv.s:24815  .debug_str:000000000000eee1 .LASF2172
C:\Users\CYMR90~1\AppData\Local\Temp\ccioldvv.s:28906  .debug_str:000000000001f64b .LASF2173
C:\Users\CYMR90~1\AppData\Local\Temp\ccioldvv.s:26593  .debug_str:0000000000016003 .LASF2174
C:\Users\CYMR90~1\AppData\Local\Temp\ccioldvv.s:25573  .debug_str:0000000000011f18 .LASF2175
C:\Users\CYMR90~1\AppData\Local\Temp\ccioldvv.s:28694  .debug_str:000000000001e9eb .LASF2176
C:\Users\CYMR90~1\AppData\Local\Temp\ccioldvv.s:23917  .debug_str:000000000000b519 .LASF2177
C:\Users\CYMR90~1\AppData\Local\Temp\ccioldvv.s:29590  .debug_str:000000000002204d .LASF2178
C:\Users\CYMR90~1\AppData\Local\Temp\ccioldvv.s:24539  .debug_str:000000000000de02 .LASF2179
C:\Users\CYMR90~1\AppData\Local\Temp\ccioldvv.s:23047  .debug_str:0000000000007bc9 .LASF2180
C:\Users\CYMR90~1\AppData\Local\Temp\ccioldvv.s:25815  .debug_str:0000000000012ef8 .LASF2181
C:\Users\CYMR90~1\AppData\Local\Temp\ccioldvv.s:24707  .debug_str:000000000000e88c .LASF2182
C:\Users\CYMR90~1\AppData\Local\Temp\ccioldvv.s:26625  .debug_str:0000000000016215 .LASF2183
C:\Users\CYMR90~1\AppData\Local\Temp\ccioldvv.s:22151  .debug_str:0000000000004355 .LASF2184
C:\Users\CYMR90~1\AppData\Local\Temp\ccioldvv.s:24991  .debug_str:000000000000fa09 .LASF2185
C:\Users\CYMR90~1\AppData\Local\Temp\ccioldvv.s:31878  .debug_str:000000000002b0a4 .LASF2186
C:\Users\CYMR90~1\AppData\Local\Temp\ccioldvv.s:28704  .debug_str:000000000001ea8b .LASF2187
C:\Users\CYMR90~1\AppData\Local\Temp\ccioldvv.s:23535  .debug_str:0000000000009beb .LASF2188
C:\Users\CYMR90~1\AppData\Local\Temp\ccioldvv.s:27688  .debug_str:000000000001a957 .LASF2189
C:\Users\CYMR90~1\AppData\Local\Temp\ccioldvv.s:22087  .debug_str:0000000000003eae .LASF2190
C:\Users\CYMR90~1\AppData\Local\Temp\ccioldvv.s:23637  .debug_str:000000000000a272 .LASF2191
C:\Users\CYMR90~1\AppData\Local\Temp\ccioldvv.s:30358  .debug_str:0000000000025008 .LASF2192
C:\Users\CYMR90~1\AppData\Local\Temp\ccioldvv.s:22009  .debug_str:0000000000003a01 .LASF2193
C:\Users\CYMR90~1\AppData\Local\Temp\ccioldvv.s:25455  .debug_str:0000000000011656 .LASF2194
C:\Users\CYMR90~1\AppData\Local\Temp\ccioldvv.s:21781  .debug_str:0000000000002b3d .LASF2195
C:\Users\CYMR90~1\AppData\Local\Temp\ccioldvv.s:22991  .debug_str:0000000000007807 .LASF2196
C:\Users\CYMR90~1\AppData\Local\Temp\ccioldvv.s:26319  .debug_str:0000000000014ee2 .LASF2197
C:\Users\CYMR90~1\AppData\Local\Temp\ccioldvv.s:23265  .debug_str:0000000000008ace .LASF2198
C:\Users\CYMR90~1\AppData\Local\Temp\ccioldvv.s:29150  .debug_str:00000000000204ec .LASF2199
C:\Users\CYMR90~1\AppData\Local\Temp\ccioldvv.s:23779  .debug_str:000000000000abf3 .LASF2200
C:\Users\CYMR90~1\AppData\Local\Temp\ccioldvv.s:29656  .debug_str:0000000000022421 .LASF2201
C:\Users\CYMR90~1\AppData\Local\Temp\ccioldvv.s:28986  .debug_str:000000000001fb0a .LASF2202
C:\Users\CYMR90~1\AppData\Local\Temp\ccioldvv.s:30174  .debug_str:00000000000243e5 .LASF2203
C:\Users\CYMR90~1\AppData\Local\Temp\ccioldvv.s:30754  .debug_str:0000000000026a7e .LASF2204
C:\Users\CYMR90~1\AppData\Local\Temp\ccioldvv.s:30584  .debug_str:0000000000026001 .LASF2205
C:\Users\CYMR90~1\AppData\Local\Temp\ccioldvv.s:30224  .debug_str:000000000002472a .LASF2206
C:\Users\CYMR90~1\AppData\Local\Temp\ccioldvv.s:29282  .debug_str:0000000000020d49 .LASF2207
C:\Users\CYMR90~1\AppData\Local\Temp\ccioldvv.s:25169  .debug_str:00000000000104b9 .LASF2208
C:\Users\CYMR90~1\AppData\Local\Temp\ccioldvv.s:27314  .debug_str:0000000000018f70 .LASF2209
C:\Users\CYMR90~1\AppData\Local\Temp\ccioldvv.s:29130  .debug_str:0000000000020371 .LASF2210
C:\Users\CYMR90~1\AppData\Local\Temp\ccioldvv.s:24053  .debug_str:000000000000bec1 .LASF2211
C:\Users\CYMR90~1\AppData\Local\Temp\ccioldvv.s:22765  .debug_str:0000000000006922 .LASF2212
C:\Users\CYMR90~1\AppData\Local\Temp\ccioldvv.s:25351  .debug_str:0000000000011002 .LASF2213
C:\Users\CYMR90~1\AppData\Local\Temp\ccioldvv.s:32132  .debug_str:000000000002c181 .LASF2214
C:\Users\CYMR90~1\AppData\Local\Temp\ccioldvv.s:26069  .debug_str:0000000000013f4a .LASF2215
C:\Users\CYMR90~1\AppData\Local\Temp\ccioldvv.s:23739  .debug_str:000000000000a8ac .LASF2216
C:\Users\CYMR90~1\AppData\Local\Temp\ccioldvv.s:27930  .debug_str:000000000001b887 .LASF2217
C:\Users\CYMR90~1\AppData\Local\Temp\ccioldvv.s:27240  .debug_str:0000000000018a3f .LASF2218
C:\Users\CYMR90~1\AppData\Local\Temp\ccioldvv.s:31908  .debug_str:000000000002b24f .LASF2219
C:\Users\CYMR90~1\AppData\Local\Temp\ccioldvv.s:28476  .debug_str:000000000001dc26 .LASF2220
C:\Users\CYMR90~1\AppData\Local\Temp\ccioldvv.s:27328  .debug_str:0000000000019035 .LASF2221
C:\Users\CYMR90~1\AppData\Local\Temp\ccioldvv.s:25749  .debug_str:0000000000012a87 .LASF2222
C:\Users\CYMR90~1\AppData\Local\Temp\ccioldvv.s:27970  .debug_str:000000000001baa7 .LASF2223
C:\Users\CYMR90~1\AppData\Local\Temp\ccioldvv.s:30576  .debug_str:0000000000025f93 .LASF2224
C:\Users\CYMR90~1\AppData\Local\Temp\ccioldvv.s:21117  .debug_str:0000000000000291 .LASF2225
C:\Users\CYMR90~1\AppData\Local\Temp\ccioldvv.s:22221  .debug_str:000000000000480d .LASF2226
C:\Users\CYMR90~1\AppData\Local\Temp\ccioldvv.s:27512  .debug_str:0000000000019d01 .LASF2227
C:\Users\CYMR90~1\AppData\Local\Temp\ccioldvv.s:26798  .debug_str:0000000000016f67 .LASF2228
C:\Users\CYMR90~1\AppData\Local\Temp\ccioldvv.s:28528  .debug_str:000000000001dfcc .LASF2229
C:\Users\CYMR90~1\AppData\Local\Temp\ccioldvv.s:22191  .debug_str:00000000000045f6 .LASF2230
C:\Users\CYMR90~1\AppData\Local\Temp\ccioldvv.s:28758  .debug_str:000000000001ed67 .LASF2231
C:\Users\CYMR90~1\AppData\Local\Temp\ccioldvv.s:21497  .debug_str:00000000000019f8 .LASF2232
C:\Users\CYMR90~1\AppData\Local\Temp\ccioldvv.s:27500  .debug_str:0000000000019c3d .LASF2233
C:\Users\CYMR90~1\AppData\Local\Temp\ccioldvv.s:24225  .debug_str:000000000000ca24 .LASF2234
C:\Users\CYMR90~1\AppData\Local\Temp\ccioldvv.s:22425  .debug_str:00000000000054fb .LASF2235
C:\Users\CYMR90~1\AppData\Local\Temp\ccioldvv.s:32088  .debug_str:000000000002be51 .LASF2236
C:\Users\CYMR90~1\AppData\Local\Temp\ccioldvv.s:24677  .debug_str:000000000000e64c .LASF2237
C:\Users\CYMR90~1\AppData\Local\Temp\ccioldvv.s:29400  .debug_str:00000000000214a4 .LASF2238
C:\Users\CYMR90~1\AppData\Local\Temp\ccioldvv.s:28432  .debug_str:000000000001d984 .LASF2239
C:\Users\CYMR90~1\AppData\Local\Temp\ccioldvv.s:28362  .debug_str:000000000001d4d6 .LASF2240
C:\Users\CYMR90~1\AppData\Local\Temp\ccioldvv.s:21561  .debug_str:0000000000001ddc .LASF2241
C:\Users\CYMR90~1\AppData\Local\Temp\ccioldvv.s:29418  .debug_str:00000000000215c2 .LASF2242
C:\Users\CYMR90~1\AppData\Local\Temp\ccioldvv.s:30968  .debug_str:00000000000277d5 .LASF2243
C:\Users\CYMR90~1\AppData\Local\Temp\ccioldvv.s:25595  .debug_str:0000000000012042 .LASF2244
C:\Users\CYMR90~1\AppData\Local\Temp\ccioldvv.s:26808  .debug_str:0000000000017003 .LASF2245
C:\Users\CYMR90~1\AppData\Local\Temp\ccioldvv.s:23729  .debug_str:000000000000a7d1 .LASF2246
C:\Users\CYMR90~1\AppData\Local\Temp\ccioldvv.s:26385  .debug_str:0000000000015322 .LASF2247
C:\Users\CYMR90~1\AppData\Local\Temp\ccioldvv.s:21925  .debug_str:000000000000349b .LASF2248
C:\Users\CYMR90~1\AppData\Local\Temp\ccioldvv.s:28780  .debug_str:000000000001eebc .LASF2249
C:\Users\CYMR90~1\AppData\Local\Temp\ccioldvv.s:27908  .debug_str:000000000001b712 .LASF2250
C:\Users\CYMR90~1\AppData\Local\Temp\ccioldvv.s:26962  .debug_str:000000000001791e .LASF2251
C:\Users\CYMR90~1\AppData\Local\Temp\ccioldvv.s:30182  .debug_str:000000000002447e .LASF2252
C:\Users\CYMR90~1\AppData\Local\Temp\ccioldvv.s:25755  .debug_str:0000000000012ae6 .LASF2253
C:\Users\CYMR90~1\AppData\Local\Temp\ccioldvv.s:24489  .debug_str:000000000000db2d .LASF2254
C:\Users\CYMR90~1\AppData\Local\Temp\ccioldvv.s:23251  .debug_str:00000000000089f4 .LASF2255
C:\Users\CYMR90~1\AppData\Local\Temp\ccioldvv.s:25147  .debug_str:0000000000010378 .LASF2256
C:\Users\CYMR90~1\AppData\Local\Temp\ccioldvv.s:28178  .debug_str:000000000001c77f .LASF2257
C:\Users\CYMR90~1\AppData\Local\Temp\ccioldvv.s:25445  .debug_str:00000000000115b4 .LASF2258
C:\Users\CYMR90~1\AppData\Local\Temp\ccioldvv.s:30000  .debug_str:00000000000238d2 .LASF2259
C:\Users\CYMR90~1\AppData\Local\Temp\ccioldvv.s:25347  .debug_str:0000000000010fc0 .LASF2260
C:\Users\CYMR90~1\AppData\Local\Temp\ccioldvv.s:26433  .debug_str:00000000000155ed .LASF2261
C:\Users\CYMR90~1\AppData\Local\Temp\ccioldvv.s:21621  .debug_str:0000000000002115 .LASF2262
C:\Users\CYMR90~1\AppData\Local\Temp\ccioldvv.s:24727  .debug_str:000000000000e9b8 .LASF2263
C:\Users\CYMR90~1\AppData\Local\Temp\ccioldvv.s:28552  .debug_str:000000000001e130 .LASF2264
C:\Users\CYMR90~1\AppData\Local\Temp\ccioldvv.s:27602  .debug_str:000000000001a240 .LASF2265
C:\Users\CYMR90~1\AppData\Local\Temp\ccioldvv.s:24575  .debug_str:000000000000e068 .LASF2266
C:\Users\CYMR90~1\AppData\Local\Temp\ccioldvv.s:23929  .debug_str:000000000000b64d .LASF2267
C:\Users\CYMR90~1\AppData\Local\Temp\ccioldvv.s:26970  .debug_str:00000000000179d8 .LASF2268
C:\Users\CYMR90~1\AppData\Local\Temp\ccioldvv.s:31828  .debug_str:000000000002ad93 .LASF2269
C:\Users\CYMR90~1\AppData\Local\Temp\ccioldvv.s:22243  .debug_str:00000000000049f1 .LASF2270
C:\Users\CYMR90~1\AppData\Local\Temp\ccioldvv.s:28056  .debug_str:000000000001c03c .LASF2271
C:\Users\CYMR90~1\AppData\Local\Temp\ccioldvv.s:28454  .debug_str:000000000001dae3 .LASF2272
C:\Users\CYMR90~1\AppData\Local\Temp\ccioldvv.s:26273  .debug_str:0000000000014bd1 .LASF2273
C:\Users\CYMR90~1\AppData\Local\Temp\ccioldvv.s:31174  .debug_str:00000000000285ce .LASF2274
C:\Users\CYMR90~1\AppData\Local\Temp\ccioldvv.s:27814  .debug_str:000000000001b147 .LASF2275
C:\Users\CYMR90~1\AppData\Local\Temp\ccioldvv.s:24495  .debug_str:000000000000db98 .LASF2276
C:\Users\CYMR90~1\AppData\Local\Temp\ccioldvv.s:22021  .debug_str:0000000000003ad7 .LASF2277
C:\Users\CYMR90~1\AppData\Local\Temp\ccioldvv.s:21291  .debug_str:0000000000000d38 .LASF2278
C:\Users\CYMR90~1\AppData\Local\Temp\ccioldvv.s:31028  .debug_str:0000000000027b55 .LASF2279
C:\Users\CYMR90~1\AppData\Local\Temp\ccioldvv.s:29404  .debug_str:00000000000214e2 .LASF2280
C:\Users\CYMR90~1\AppData\Local\Temp\ccioldvv.s:22429  .debug_str:000000000000552f .LASF2281
C:\Users\CYMR90~1\AppData\Local\Temp\ccioldvv.s:27536  .debug_str:0000000000019e97 .LASF2282
C:\Users\CYMR90~1\AppData\Local\Temp\ccioldvv.s:26862  .debug_str:0000000000017320 .LASF2283
C:\Users\CYMR90~1\AppData\Local\Temp\ccioldvv.s:28234  .debug_str:000000000001cbb0 .LASF2284
C:\Users\CYMR90~1\AppData\Local\Temp\ccioldvv.s:27768  .debug_str:000000000001ae1b .LASF2285
C:\Users\CYMR90~1\AppData\Local\Temp\ccioldvv.s:30950  .debug_str:00000000000276e1 .LASF2286
C:\Users\CYMR90~1\AppData\Local\Temp\ccioldvv.s:25353  .debug_str:000000000001102a .LASF2287
C:\Users\CYMR90~1\AppData\Local\Temp\ccioldvv.s:29554  .debug_str:0000000000021e49 .LASF2288
C:\Users\CYMR90~1\AppData\Local\Temp\ccioldvv.s:31490  .debug_str:00000000000299cb .LASF2289
C:\Users\CYMR90~1\AppData\Local\Temp\ccioldvv.s:25565  .debug_str:0000000000011e6d .LASF2290
C:\Users\CYMR90~1\AppData\Local\Temp\ccioldvv.s:31960  .debug_str:000000000002b5fa .LASF2291
C:\Users\CYMR90~1\AppData\Local\Temp\ccioldvv.s:28646  .debug_str:000000000001e6ec .LASF2292
C:\Users\CYMR90~1\AppData\Local\Temp\ccioldvv.s:22327  .debug_str:0000000000004f1d .LASF2293
C:\Users\CYMR90~1\AppData\Local\Temp\ccioldvv.s:31352  .debug_str:00000000000290f0 .LASF2294
C:\Users\CYMR90~1\AppData\Local\Temp\ccioldvv.s:31924  .debug_str:000000000002b378 .LASF2295
C:\Users\CYMR90~1\AppData\Local\Temp\ccioldvv.s:24555  .debug_str:000000000000df34 .LASF2296
C:\Users\CYMR90~1\AppData\Local\Temp\ccioldvv.s:24531  .debug_str:000000000000dd65 .LASF2297
C:\Users\CYMR90~1\AppData\Local\Temp\ccioldvv.s:23909  .debug_str:000000000000b494 .LASF2298
C:\Users\CYMR90~1\AppData\Local\Temp\ccioldvv.s:26081  .debug_str:000000000001400a .LASF2299
C:\Users\CYMR90~1\AppData\Local\Temp\ccioldvv.s:31188  .debug_str:00000000000286c8 .LASF2300
C:\Users\CYMR90~1\AppData\Local\Temp\ccioldvv.s:24875  .debug_str:000000000000f26e .LASF2301
C:\Users\CYMR90~1\AppData\Local\Temp\ccioldvv.s:28004  .debug_str:000000000001bce6 .LASF2302
C:\Users\CYMR90~1\AppData\Local\Temp\ccioldvv.s:30312  .debug_str:0000000000024d2d .LASF2303
C:\Users\CYMR90~1\AppData\Local\Temp\ccioldvv.s:24487  .debug_str:000000000000db06 .LASF2304
C:\Users\CYMR90~1\AppData\Local\Temp\ccioldvv.s:29452  .debug_str:00000000000217cb .LASF2305
C:\Users\CYMR90~1\AppData\Local\Temp\ccioldvv.s:21369  .debug_str:00000000000011eb .LASF2306
C:\Users\CYMR90~1\AppData\Local\Temp\ccioldvv.s:27712  .debug_str:000000000001aab1 .LASF2307
C:\Users\CYMR90~1\AppData\Local\Temp\ccioldvv.s:28198  .debug_str:000000000001c95c .LASF2308
C:\Users\CYMR90~1\AppData\Local\Temp\ccioldvv.s:21875  .debug_str:0000000000003152 .LASF2309
C:\Users\CYMR90~1\AppData\Local\Temp\ccioldvv.s:30598  .debug_str:000000000002610d .LASF2310
C:\Users\CYMR90~1\AppData\Local\Temp\ccioldvv.s:31428  .debug_str:000000000002960e .LASF2311
C:\Users\CYMR90~1\AppData\Local\Temp\ccioldvv.s:26119  .debug_str:0000000000014298 .LASF2312
C:\Users\CYMR90~1\AppData\Local\Temp\ccioldvv.s:31140  .debug_str:0000000000028321 .LASF2313
C:\Users\CYMR90~1\AppData\Local\Temp\ccioldvv.s:22951  .debug_str:0000000000007585 .LASF2314
C:\Users\CYMR90~1\AppData\Local\Temp\ccioldvv.s:29234  .debug_str:0000000000020a4e .LASF2315
C:\Users\CYMR90~1\AppData\Local\Temp\ccioldvv.s:23015  .debug_str:000000000000798e .LASF2316
C:\Users\CYMR90~1\AppData\Local\Temp\ccioldvv.s:28020  .debug_str:000000000001bde2 .LASF2317
C:\Users\CYMR90~1\AppData\Local\Temp\ccioldvv.s:31184  .debug_str:0000000000028687 .LASF2318
C:\Users\CYMR90~1\AppData\Local\Temp\ccioldvv.s:24763  .debug_str:000000000000ebf4 .LASF2319
C:\Users\CYMR90~1\AppData\Local\Temp\ccioldvv.s:22255  .debug_str:0000000000004aad .LASF2320
C:\Users\CYMR90~1\AppData\Local\Temp\ccioldvv.s:21795  .debug_str:0000000000002c49 .LASF2321
C:\Users\CYMR90~1\AppData\Local\Temp\ccioldvv.s:32398  .debug_str:000000000002d2a7 .LASF2322
C:\Users\CYMR90~1\AppData\Local\Temp\ccioldvv.s:22619  .debug_str:000000000000606b .LASF2323
C:\Users\CYMR90~1\AppData\Local\Temp\ccioldvv.s:26237  .debug_str:00000000000149a9 .LASF2324
C:\Users\CYMR90~1\AppData\Local\Temp\ccioldvv.s:31986  .debug_str:000000000002b794 .LASF2325
C:\Users\CYMR90~1\AppData\Local\Temp\ccioldvv.s:23707  .debug_str:000000000000a6b4 .LASF2326
C:\Users\CYMR90~1\AppData\Local\Temp\ccioldvv.s:27200  .debug_str:00000000000187b4 .LASF2327
C:\Users\CYMR90~1\AppData\Local\Temp\ccioldvv.s:21657  .debug_str:0000000000002335 .LASF2328
C:\Users\CYMR90~1\AppData\Local\Temp\ccioldvv.s:26155  .debug_str:00000000000144c8 .LASF2329
C:\Users\CYMR90~1\AppData\Local\Temp\ccioldvv.s:23007  .debug_str:000000000000791b .LASF2330
C:\Users\CYMR90~1\AppData\Local\Temp\ccioldvv.s:24157  .debug_str:000000000000c57d .LASF2331
C:\Users\CYMR90~1\AppData\Local\Temp\ccioldvv.s:25189  .debug_str:00000000000105f8 .LASF2332
C:\Users\CYMR90~1\AppData\Local\Temp\ccioldvv.s:29360  .debug_str:0000000000021196 .LASF2333
C:\Users\CYMR90~1\AppData\Local\Temp\ccioldvv.s:30778  .debug_str:0000000000026c01 .LASF2334
C:\Users\CYMR90~1\AppData\Local\Temp\ccioldvv.s:25203  .debug_str:00000000000106e7 .LASF2335
C:\Users\CYMR90~1\AppData\Local\Temp\ccioldvv.s:25607  .debug_str:0000000000012153 .LASF2336
C:\Users\CYMR90~1\AppData\Local\Temp\ccioldvv.s:24655  .debug_str:000000000000e4f7 .LASF2337
C:\Users\CYMR90~1\AppData\Local\Temp\ccioldvv.s:22633  .debug_str:000000000000613c .LASF2338
C:\Users\CYMR90~1\AppData\Local\Temp\ccioldvv.s:21703  .debug_str:00000000000025cb .LASF2339
C:\Users\CYMR90~1\AppData\Local\Temp\ccioldvv.s:28420  .debug_str:000000000001d8c7 .LASF2340
C:\Users\CYMR90~1\AppData\Local\Temp\ccioldvv.s:30656  .debug_str:000000000002648e .LASF2341
C:\Users\CYMR90~1\AppData\Local\Temp\ccioldvv.s:29016  .debug_str:000000000001fcee .LASF2342
C:\Users\CYMR90~1\AppData\Local\Temp\ccioldvv.s:29032  .debug_str:000000000001fdc6 .LASF2343
C:\Users\CYMR90~1\AppData\Local\Temp\ccioldvv.s:30080  .debug_str:0000000000023db1 .LASF2344
C:\Users\CYMR90~1\AppData\Local\Temp\ccioldvv.s:30890  .debug_str:0000000000027252 .LASF2345
C:\Users\CYMR90~1\AppData\Local\Temp\ccioldvv.s:28120  .debug_str:000000000001c448 .LASF2346
C:\Users\CYMR90~1\AppData\Local\Temp\ccioldvv.s:28290  .debug_str:000000000001cfde .LASF2347
C:\Users\CYMR90~1\AppData\Local\Temp\ccioldvv.s:23221  .debug_str:00000000000087f2 .LASF2348
C:\Users\CYMR90~1\AppData\Local\Temp\ccioldvv.s:25967  .debug_str:0000000000013969 .LASF2349
C:\Users\CYMR90~1\AppData\Local\Temp\ccioldvv.s:29500  .debug_str:0000000000021a9a .LASF2350
C:\Users\CYMR90~1\AppData\Local\Temp\ccioldvv.s:31792  .debug_str:000000000002ab7a .LASF2351
C:\Users\CYMR90~1\AppData\Local\Temp\ccioldvv.s:30298  .debug_str:0000000000024c3e .LASF2352
C:\Users\CYMR90~1\AppData\Local\Temp\ccioldvv.s:22791  .debug_str:0000000000006aac .LASF2353
C:\Users\CYMR90~1\AppData\Local\Temp\ccioldvv.s:25101  .debug_str:00000000000100ae .LASF2354
C:\Users\CYMR90~1\AppData\Local\Temp\ccioldvv.s:22737  .debug_str:0000000000006730 .LASF2355
C:\Users\CYMR90~1\AppData\Local\Temp\ccioldvv.s:32190  .debug_str:000000000002c592 .LASF2356
C:\Users\CYMR90~1\AppData\Local\Temp\ccioldvv.s:31614  .debug_str:000000000002a0d4 .LASF2357
C:\Users\CYMR90~1\AppData\Local\Temp\ccioldvv.s:24405  .debug_str:000000000000d654 .LASF2358
C:\Users\CYMR90~1\AppData\Local\Temp\ccioldvv.s:23449  .debug_str:0000000000009644 .LASF2359
C:\Users\CYMR90~1\AppData\Local\Temp\ccioldvv.s:22015  .debug_str:0000000000003a8a .LASF2360
C:\Users\CYMR90~1\AppData\Local\Temp\ccioldvv.s:25111  .debug_str:000000000001014e .LASF2361
C:\Users\CYMR90~1\AppData\Local\Temp\ccioldvv.s:23889  .debug_str:000000000000b39f .LASF2362
C:\Users\CYMR90~1\AppData\Local\Temp\ccioldvv.s:22663  .debug_str:00000000000062de .LASF2363
C:\Users\CYMR90~1\AppData\Local\Temp\ccioldvv.s:30086  .debug_str:0000000000023e01 .LASF2364
C:\Users\CYMR90~1\AppData\Local\Temp\ccioldvv.s:29242  .debug_str:0000000000020ac9 .LASF2365
C:\Users\CYMR90~1\AppData\Local\Temp\ccioldvv.s:25669  .debug_str:0000000000012550 .LASF2366
C:\Users\CYMR90~1\AppData\Local\Temp\ccioldvv.s:23993  .debug_str:000000000000ba6c .LASF2367
C:\Users\CYMR90~1\AppData\Local\Temp\ccioldvv.s:30964  .debug_str:00000000000277a8 .LASF2368
C:\Users\CYMR90~1\AppData\Local\Temp\ccioldvv.s:23435  .debug_str:0000000000009525 .LASF2369
C:\Users\CYMR90~1\AppData\Local\Temp\ccioldvv.s:24757  .debug_str:000000000000eb9d .LASF2370
C:\Users\CYMR90~1\AppData\Local\Temp\ccioldvv.s:22801  .debug_str:0000000000006b69 .LASF2371
C:\Users\CYMR90~1\AppData\Local\Temp\ccioldvv.s:25165  .debug_str:0000000000010480 .LASF2372
C:\Users\CYMR90~1\AppData\Local\Temp\ccioldvv.s:32068  .debug_str:000000000002bcfa .LASF2373
C:\Users\CYMR90~1\AppData\Local\Temp\ccioldvv.s:30730  .debug_str:0000000000026922 .LASF2374
C:\Users\CYMR90~1\AppData\Local\Temp\ccioldvv.s:21229  .debug_str:0000000000000936 .LASF2375
C:\Users\CYMR90~1\AppData\Local\Temp\ccioldvv.s:25569  .debug_str:0000000000011ec2 .LASF2376
C:\Users\CYMR90~1\AppData\Local\Temp\ccioldvv.s:28726  .debug_str:000000000001ebbd .LASF2377
C:\Users\CYMR90~1\AppData\Local\Temp\ccioldvv.s:32018  .debug_str:000000000002b9eb .LASF2378
C:\Users\CYMR90~1\AppData\Local\Temp\ccioldvv.s:23891  .debug_str:000000000000b3c4 .LASF2379
C:\Users\CYMR90~1\AppData\Local\Temp\ccioldvv.s:29952  .debug_str:000000000002358e .LASF2380
C:\Users\CYMR90~1\AppData\Local\Temp\ccioldvv.s:30290  .debug_str:0000000000024bbb .LASF2381
C:\Users\CYMR90~1\AppData\Local\Temp\ccioldvv.s:30040  .debug_str:0000000000023b6b .LASF2382
C:\Users\CYMR90~1\AppData\Local\Temp\ccioldvv.s:25339  .debug_str:0000000000010f78 .LASF2383
C:\Users\CYMR90~1\AppData\Local\Temp\ccioldvv.s:28496  .debug_str:000000000001dd58 .LASF2384
C:\Users\CYMR90~1\AppData\Local\Temp\ccioldvv.s:31762  .debug_str:000000000002a9d4 .LASF2385
C:\Users\CYMR90~1\AppData\Local\Temp\ccioldvv.s:21535  .debug_str:0000000000001c74 .LASF2386
C:\Users\CYMR90~1\AppData\Local\Temp\ccioldvv.s:26245  .debug_str:0000000000014a11 .LASF2387
C:\Users\CYMR90~1\AppData\Local\Temp\ccioldvv.s:30966  .debug_str:00000000000277ba .LASF2388
C:\Users\CYMR90~1\AppData\Local\Temp\ccioldvv.s:27868  .debug_str:000000000001b4bc .LASF2389
C:\Users\CYMR90~1\AppData\Local\Temp\ccioldvv.s:29024  .debug_str:000000000001fd66 .LASF2390
C:\Users\CYMR90~1\AppData\Local\Temp\ccioldvv.s:22401  .debug_str:0000000000005387 .LASF2391
C:\Users\CYMR90~1\AppData\Local\Temp\ccioldvv.s:27126  .debug_str:000000000001833b .LASF2392
C:\Users\CYMR90~1\AppData\Local\Temp\ccioldvv.s:31864  .debug_str:000000000002afca .LASF2393
C:\Users\CYMR90~1\AppData\Local\Temp\ccioldvv.s:27980  .debug_str:000000000001bb52 .LASF2394
C:\Users\CYMR90~1\AppData\Local\Temp\ccioldvv.s:31022  .debug_str:0000000000027af0 .LASF2395
C:\Users\CYMR90~1\AppData\Local\Temp\ccioldvv.s:24417  .debug_str:000000000000d71d .LASF2396
C:\Users\CYMR90~1\AppData\Local\Temp\ccioldvv.s:29080  .debug_str:00000000000200bf .LASF2397
C:\Users\CYMR90~1\AppData\Local\Temp\ccioldvv.s:22449  .debug_str:0000000000005629 .LASF2398
C:\Users\CYMR90~1\AppData\Local\Temp\ccioldvv.s:27178  .debug_str:0000000000018669 .LASF2399
C:\Users\CYMR90~1\AppData\Local\Temp\ccioldvv.s:31920  .debug_str:000000000002b347 .LASF2400
C:\Users\CYMR90~1\AppData\Local\Temp\ccioldvv.s:31796  .debug_str:000000000002abb2 .LASF2401
C:\Users\CYMR90~1\AppData\Local\Temp\ccioldvv.s:23681  .debug_str:000000000000a544 .LASF2402
C:\Users\CYMR90~1\AppData\Local\Temp\ccioldvv.s:26878  .debug_str:000000000001741c .LASF2403
C:\Users\CYMR90~1\AppData\Local\Temp\ccioldvv.s:30090  .debug_str:0000000000023e32 .LASF2404
C:\Users\CYMR90~1\AppData\Local\Temp\ccioldvv.s:22043  .debug_str:0000000000003c17 .LASF2405
C:\Users\CYMR90~1\AppData\Local\Temp\ccioldvv.s:25211  .debug_str:000000000001078b .LASF2406
C:\Users\CYMR90~1\AppData\Local\Temp\ccioldvv.s:28394  .debug_str:000000000001d70a .LASF2407
C:\Users\CYMR90~1\AppData\Local\Temp\ccioldvv.s:31640  .debug_str:000000000002a27c .LASF2408
C:\Users\CYMR90~1\AppData\Local\Temp\ccioldvv.s:26013  .debug_str:0000000000013c05 .LASF2409
C:\Users\CYMR90~1\AppData\Local\Temp\ccioldvv.s:24395  .debug_str:000000000000d5a2 .LASF2410
C:\Users\CYMR90~1\AppData\Local\Temp\ccioldvv.s:27758  .debug_str:000000000001ad78 .LASF2411
C:\Users\CYMR90~1\AppData\Local\Temp\ccioldvv.s:21111  .debug_str:0000000000000235 .LASF2412
C:\Users\CYMR90~1\AppData\Local\Temp\ccioldvv.s:27786  .debug_str:000000000001af30 .LASF2413
C:\Users\CYMR90~1\AppData\Local\Temp\ccioldvv.s:30504  .debug_str:0000000000025b4f .LASF2414
C:\Users\CYMR90~1\AppData\Local\Temp\ccioldvv.s:23925  .debug_str:000000000000b597 .LASF2415
C:\Users\CYMR90~1\AppData\Local\Temp\ccioldvv.s:28568  .debug_str:000000000001e221 .LASF2416
C:\Users\CYMR90~1\AppData\Local\Temp\ccioldvv.s:24255  .debug_str:000000000000cc4c .LASF2417
C:\Users\CYMR90~1\AppData\Local\Temp\ccioldvv.s:26669  .debug_str:0000000000016490 .LASF2418
C:\Users\CYMR90~1\AppData\Local\Temp\ccioldvv.s:28782  .debug_str:000000000001eeeb .LASF2419
C:\Users\CYMR90~1\AppData\Local\Temp\ccioldvv.s:25879  .debug_str:0000000000013324 .LASF2420
C:\Users\CYMR90~1\AppData\Local\Temp\ccioldvv.s:30556  .debug_str:0000000000025e6d .LASF2421
C:\Users\CYMR90~1\AppData\Local\Temp\ccioldvv.s:23971  .debug_str:000000000000b939 .LASF2422
C:\Users\CYMR90~1\AppData\Local\Temp\ccioldvv.s:28618  .debug_str:000000000001e524 .LASF2423
C:\Users\CYMR90~1\AppData\Local\Temp\ccioldvv.s:22011  .debug_str:0000000000003a3f .LASF2424
C:\Users\CYMR90~1\AppData\Local\Temp\ccioldvv.s:26731  .debug_str:00000000000168a8 .LASF2425
C:\Users\CYMR90~1\AppData\Local\Temp\ccioldvv.s:23805  .debug_str:000000000000adae .LASF2426
C:\Users\CYMR90~1\AppData\Local\Temp\ccioldvv.s:26904  .debug_str:0000000000017584 .LASF2427
C:\Users\CYMR90~1\AppData\Local\Temp\ccioldvv.s:30126  .debug_str:0000000000024057 .LASF2428
C:\Users\CYMR90~1\AppData\Local\Temp\ccioldvv.s:21995  .debug_str:000000000000392a .LASF2429
C:\Users\CYMR90~1\AppData\Local\Temp\ccioldvv.s:25247  .debug_str:000000000001096a .LASF2430
C:\Users\CYMR90~1\AppData\Local\Temp\ccioldvv.s:25499  .debug_str:0000000000011a09 .LASF2431
C:\Users\CYMR90~1\AppData\Local\Temp\ccioldvv.s:31682  .debug_str:000000000002a49f .LASF2432
C:\Users\CYMR90~1\AppData\Local\Temp\ccioldvv.s:22197  .debug_str:0000000000004667 .LASF2433
C:\Users\CYMR90~1\AppData\Local\Temp\ccioldvv.s:30932  .debug_str:00000000000275de .LASF2434
C:\Users\CYMR90~1\AppData\Local\Temp\ccioldvv.s:29880  .debug_str:0000000000023190 .LASF2435
C:\Users\CYMR90~1\AppData\Local\Temp\ccioldvv.s:31246  .debug_str:0000000000028aa5 .LASF2436
C:\Users\CYMR90~1\AppData\Local\Temp\ccioldvv.s:24629  .debug_str:000000000000e378 .LASF2437
C:\Users\CYMR90~1\AppData\Local\Temp\ccioldvv.s:29302  .debug_str:0000000000020e7e .LASF2438
C:\Users\CYMR90~1\AppData\Local\Temp\ccioldvv.s:22683  .debug_str:0000000000006426 .LASF2439
C:\Users\CYMR90~1\AppData\Local\Temp\ccioldvv.s:27418  .debug_str:0000000000019666 .LASF2440
C:\Users\CYMR90~1\AppData\Local\Temp\ccioldvv.s:27802  .debug_str:000000000001b09f .LASF2441
C:\Users\CYMR90~1\AppData\Local\Temp\ccioldvv.s:25507  .debug_str:0000000000011a76 .LASF2442
C:\Users\CYMR90~1\AppData\Local\Temp\ccioldvv.s:30192  .debug_str:0000000000024561 .LASF2443
C:\Users\CYMR90~1\AppData\Local\Temp\ccioldvv.s:28264  .debug_str:000000000001cdb4 .LASF2444
C:\Users\CYMR90~1\AppData\Local\Temp\ccioldvv.s:29354  .debug_str:000000000002113c .LASF2445
C:\Users\CYMR90~1\AppData\Local\Temp\ccioldvv.s:22741  .debug_str:0000000000006769 .LASF2446
C:\Users\CYMR90~1\AppData\Local\Temp\ccioldvv.s:27466  .debug_str:0000000000019a05 .LASF2447
C:\Users\CYMR90~1\AppData\Local\Temp\ccioldvv.s:32186  .debug_str:000000000002c553 .LASF2448
C:\Users\CYMR90~1\AppData\Local\Temp\ccioldvv.s:25561  .debug_str:0000000000011e1f .LASF2449
C:\Users\CYMR90~1\AppData\Local\Temp\ccioldvv.s:30240  .debug_str:000000000002483f .LASF2450
C:\Users\CYMR90~1\AppData\Local\Temp\ccioldvv.s:29046  .debug_str:000000000001fead .LASF2451
C:\Users\CYMR90~1\AppData\Local\Temp\ccioldvv.s:30352  .debug_str:0000000000024fbe .LASF2452
C:\Users\CYMR90~1\AppData\Local\Temp\ccioldvv.s:28692  .debug_str:000000000001e9d4 .LASF2453
C:\Users\CYMR90~1\AppData\Local\Temp\ccioldvv.s:27090  .debug_str:00000000000180fd .LASF2454
C:\Users\CYMR90~1\AppData\Local\Temp\ccioldvv.s:30506  .debug_str:0000000000025b68 .LASF2455
C:\Users\CYMR90~1\AppData\Local\Temp\ccioldvv.s:23869  .debug_str:000000000000b287 .LASF2456
C:\Users\CYMR90~1\AppData\Local\Temp\ccioldvv.s:25641  .debug_str:0000000000012390 .LASF2457
C:\Users\CYMR90~1\AppData\Local\Temp\ccioldvv.s:28790  .debug_str:000000000001ef51 .LASF2458
C:\Users\CYMR90~1\AppData\Local\Temp\ccioldvv.s:30280  .debug_str:0000000000024b31 .LASF2459
C:\Users\CYMR90~1\AppData\Local\Temp\ccioldvv.s:23873  .debug_str:000000000000b2c4 .LASF2460
C:\Users\CYMR90~1\AppData\Local\Temp\ccioldvv.s:29918  .debug_str:0000000000023383 .LASF2461
C:\Users\CYMR90~1\AppData\Local\Temp\ccioldvv.s:32014  .debug_str:000000000002b95b .LASF2462
C:\Users\CYMR90~1\AppData\Local\Temp\ccioldvv.s:28276  .debug_str:000000000001cf1e .LASF2463
C:\Users\CYMR90~1\AppData\Local\Temp\ccioldvv.s:21663  .debug_str:0000000000002381 .LASF2464
C:\Users\CYMR90~1\AppData\Local\Temp\ccioldvv.s:26365  .debug_str:00000000000151e5 .LASF2465
C:\Users\CYMR90~1\AppData\Local\Temp\ccioldvv.s:31092  .debug_str:0000000000027fc8 .LASF2466
C:\Users\CYMR90~1\AppData\Local\Temp\ccioldvv.s:24479  .debug_str:000000000000da9d .LASF2467
C:\Users\CYMR90~1\AppData\Local\Temp\ccioldvv.s:29146  .debug_str:00000000000204a4 .LASF2468
C:\Users\CYMR90~1\AppData\Local\Temp\ccioldvv.s:27252  .debug_str:0000000000018ae7 .LASF2469
C:\Users\CYMR90~1\AppData\Local\Temp\ccioldvv.s:22075  .debug_str:0000000000003e21 .LASF2470
C:\Users\CYMR90~1\AppData\Local\Temp\ccioldvv.s:21719  .debug_str:000000000000270f .LASF2471
C:\Users\CYMR90~1\AppData\Local\Temp\ccioldvv.s:25933  .debug_str:000000000001373c .LASF2472
C:\Users\CYMR90~1\AppData\Local\Temp\ccioldvv.s:31144  .debug_str:0000000000028405 .LASF2473
C:\Users\CYMR90~1\AppData\Local\Temp\ccioldvv.s:24533  .debug_str:000000000000dd90 .LASF2474
C:\Users\CYMR90~1\AppData\Local\Temp\ccioldvv.s:29202  .debug_str:000000000002083e .LASF2475
C:\Users\CYMR90~1\AppData\Local\Temp\ccioldvv.s:31372  .debug_str:0000000000029229 .LASF2476
C:\Users\CYMR90~1\AppData\Local\Temp\ccioldvv.s:22629  .debug_str:0000000000006100 .LASF2477
C:\Users\CYMR90~1\AppData\Local\Temp\ccioldvv.s:26445  .debug_str:000000000001568a .LASF2478
C:\Users\CYMR90~1\AppData\Local\Temp\ccioldvv.s:31130  .debug_str:0000000000028299 .LASF2479
C:\Users\CYMR90~1\AppData\Local\Temp\ccioldvv.s:29470  .debug_str:0000000000021900 .LASF2480
C:\Users\CYMR90~1\AppData\Local\Temp\ccioldvv.s:27872  .debug_str:000000000001b4fd .LASF2481
C:\Users\CYMR90~1\AppData\Local\Temp\ccioldvv.s:27986  .debug_str:000000000001bb9d .LASF2482
C:\Users\CYMR90~1\AppData\Local\Temp\ccioldvv.s:31218  .debug_str:0000000000028915 .LASF2483
C:\Users\CYMR90~1\AppData\Local\Temp\ccioldvv.s:23101  .debug_str:0000000000007fb7 .LASF2484
C:\Users\CYMR90~1\AppData\Local\Temp\ccioldvv.s:26219  .debug_str:000000000001489e .LASF2485
C:\Users\CYMR90~1\AppData\Local\Temp\ccioldvv.s:25937  .debug_str:0000000000013769 .LASF2486
C:\Users\CYMR90~1\AppData\Local\Temp\ccioldvv.s:30612  .debug_str:0000000000026202 .LASF2487
C:\Users\CYMR90~1\AppData\Local\Temp\ccioldvv.s:24023  .debug_str:000000000000bc68 .LASF2488
C:\Users\CYMR90~1\AppData\Local\Temp\ccioldvv.s:28670  .debug_str:000000000001e843 .LASF2489
C:\Users\CYMR90~1\AppData\Local\Temp\ccioldvv.s:22063  .debug_str:0000000000003d7a .LASF2490
C:\Users\CYMR90~1\AppData\Local\Temp\ccioldvv.s:26794  .debug_str:0000000000016f22 .LASF2491
C:\Users\CYMR90~1\AppData\Local\Temp\ccioldvv.s:31508  .debug_str:0000000000029ad3 .LASF2492
C:\Users\CYMR90~1\AppData\Local\Temp\ccioldvv.s:24887  .debug_str:000000000000f324 .LASF2493
C:\Users\CYMR90~1\AppData\Local\Temp\ccioldvv.s:22957  .debug_str:00000000000075d6 .LASF2494
C:\Users\CYMR90~1\AppData\Local\Temp\ccioldvv.s:24075  .debug_str:000000000000c068 .LASF2495
C:\Users\CYMR90~1\AppData\Local\Temp\ccioldvv.s:28716  .debug_str:000000000001eb48 .LASF2496
C:\Users\CYMR90~1\AppData\Local\Temp\ccioldvv.s:22113  .debug_str:0000000000004091 .LASF2497
C:\Users\CYMR90~1\AppData\Local\Temp\ccioldvv.s:21499  .debug_str:0000000000001a19 .LASF2498
C:\Users\CYMR90~1\AppData\Local\Temp\ccioldvv.s:31562  .debug_str:0000000000029e09 .LASF2499
C:\Users\CYMR90~1\AppData\Local\Temp\ccioldvv.s:24951  .debug_str:000000000000f708 .LASF2500
C:\Users\CYMR90~1\AppData\Local\Temp\ccioldvv.s:24667  .debug_str:000000000000e5af .LASF2501
C:\Users\CYMR90~1\AppData\Local\Temp\ccioldvv.s:27882  .debug_str:000000000001b5ba .LASF2502
C:\Users\CYMR90~1\AppData\Local\Temp\ccioldvv.s:31102  .debug_str:000000000002806f .LASF2503
C:\Users\CYMR90~1\AppData\Local\Temp\ccioldvv.s:22973  .debug_str:00000000000076f1 .LASF2504
C:\Users\CYMR90~1\AppData\Local\Temp\ccioldvv.s:26105  .debug_str:000000000001417f .LASF2505
C:\Users\CYMR90~1\AppData\Local\Temp\ccioldvv.s:29300  .debug_str:0000000000020e6b .LASF2506
C:\Users\CYMR90~1\AppData\Local\Temp\ccioldvv.s:31494  .debug_str:0000000000029a10 .LASF2507
C:\Users\CYMR90~1\AppData\Local\Temp\ccioldvv.s:24445  .debug_str:000000000000d8c4 .LASF2508
C:\Users\CYMR90~1\AppData\Local\Temp\ccioldvv.s:27664  .debug_str:000000000001a740 .LASF2509
C:\Users\CYMR90~1\AppData\Local\Temp\ccioldvv.s:30854  .debug_str:0000000000027083 .LASF2510
C:\Users\CYMR90~1\AppData\Local\Temp\ccioldvv.s:31186  .debug_str:00000000000286b3 .LASF2511
C:\Users\CYMR90~1\AppData\Local\Temp\ccioldvv.s:24577  .debug_str:000000000000e088 .LASF2512
C:\Users\CYMR90~1\AppData\Local\Temp\ccioldvv.s:29246  .debug_str:0000000000020af8 .LASF2513
C:\Users\CYMR90~1\AppData\Local\Temp\ccioldvv.s:22611  .debug_str:0000000000005fd4 .LASF2514
C:\Users\CYMR90~1\AppData\Local\Temp\ccioldvv.s:27356  .debug_str:00000000000192f0 .LASF2515
C:\Users\CYMR90~1\AppData\Local\Temp\ccioldvv.s:28124  .debug_str:000000000001c484 .LASF2516
C:\Users\CYMR90~1\AppData\Local\Temp\ccioldvv.s:25443  .debug_str:000000000001159f .LASF2517
C:\Users\CYMR90~1\AppData\Local\Temp\ccioldvv.s:30136  .debug_str:00000000000240c7 .LASF2518
C:\Users\CYMR90~1\AppData\Local\Temp\ccioldvv.s:28216  .debug_str:000000000001cab9 .LASF2519
C:\Users\CYMR90~1\AppData\Local\Temp\ccioldvv.s:29388  .debug_str:0000000000021349 .LASF2520
C:\Users\CYMR90~1\AppData\Local\Temp\ccioldvv.s:22771  .debug_str:0000000000006981 .LASF2521
C:\Users\CYMR90~1\AppData\Local\Temp\ccioldvv.s:27490  .debug_str:0000000000019ba5 .LASF2522
C:\Users\CYMR90~1\AppData\Local\Temp\ccioldvv.s:32214  .debug_str:000000000002c701 .LASF2523
C:\Users\CYMR90~1\AppData\Local\Temp\ccioldvv.s:25587  .debug_str:0000000000011fc7 .LASF2524
C:\Users\CYMR90~1\AppData\Local\Temp\ccioldvv.s:30262  .debug_str:000000000002499a .LASF2525
C:\Users\CYMR90~1\AppData\Local\Temp\ccioldvv.s:25789  .debug_str:0000000000012d1f .LASF2526
C:\Users\CYMR90~1\AppData\Local\Temp\ccioldvv.s:21949  .debug_str:0000000000003632 .LASF2527
C:\Users\CYMR90~1\AppData\Local\Temp\ccioldvv.s:27150  .debug_str:00000000000184a9 .LASF2528
C:\Users\CYMR90~1\AppData\Local\Temp\ccioldvv.s:23507  .debug_str:0000000000009a2a .LASF2529
C:\Users\CYMR90~1\AppData\Local\Temp\ccioldvv.s:22279  .debug_str:0000000000004c46 .LASF2530
C:\Users\CYMR90~1\AppData\Local\Temp\ccioldvv.s:30572  .debug_str:0000000000025f50 .LASF2531
C:\Users\CYMR90~1\AppData\Local\Temp\ccioldvv.s:26569  .debug_str:0000000000015e51 .LASF2532
C:\Users\CYMR90~1\AppData\Local\Temp\ccioldvv.s:26333  .debug_str:0000000000015001 .LASF2533
C:\Users\CYMR90~1\AppData\Local\Temp\ccioldvv.s:26715  .debug_str:00000000000167b1 .LASF2534
C:\Users\CYMR90~1\AppData\Local\Temp\ccioldvv.s:23571  .debug_str:0000000000009e10 .LASF2535
C:\Users\CYMR90~1\AppData\Local\Temp\ccioldvv.s:22819  .debug_str:0000000000006c8c .LASF2536
C:\Users\CYMR90~1\AppData\Local\Temp\ccioldvv.s:31320  .debug_str:0000000000028edd .LASF2537
C:\Users\CYMR90~1\AppData\Local\Temp\ccioldvv.s:21191  .debug_str:00000000000006f7 .LASF2538
C:\Users\CYMR90~1\AppData\Local\Temp\ccioldvv.s:22997  .debug_str:0000000000007873 .LASF2539
C:\Users\CYMR90~1\AppData\Local\Temp\ccioldvv.s:21987  .debug_str:00000000000038bf .LASF2540
C:\Users\CYMR90~1\AppData\Local\Temp\ccioldvv.s:30468  .debug_str:0000000000025879 .LASF2541
C:\Users\CYMR90~1\AppData\Local\Temp\ccioldvv.s:25589  .debug_str:0000000000011fdc .LASF2542
C:\Users\CYMR90~1\AppData\Local\Temp\ccioldvv.s:24359  .debug_str:000000000000d2b9 .LASF2543
C:\Users\CYMR90~1\AppData\Local\Temp\ccioldvv.s:28978  .debug_str:000000000001fa81 .LASF2544
C:\Users\CYMR90~1\AppData\Local\Temp\ccioldvv.s:28092  .debug_str:000000000001c2a5 .LASF2545
C:\Users\CYMR90~1\AppData\Local\Temp\ccioldvv.s:22035  .debug_str:0000000000003b98 .LASF2546
C:\Users\CYMR90~1\AppData\Local\Temp\ccioldvv.s:30620  .debug_str:0000000000026292 .LASF2547
C:\Users\CYMR90~1\AppData\Local\Temp\ccioldvv.s:24333  .debug_str:000000000000d0ff .LASF2548
C:\Users\CYMR90~1\AppData\Local\Temp\ccioldvv.s:23413  .debug_str:00000000000093dd .LASF2549
C:\Users\CYMR90~1\AppData\Local\Temp\ccioldvv.s:22371  .debug_str:000000000000519c .LASF2550
C:\Users\CYMR90~1\AppData\Local\Temp\ccioldvv.s:30974  .debug_str:000000000002783a .LASF2551
C:\Users\CYMR90~1\AppData\Local\Temp\ccioldvv.s:31272  .debug_str:0000000000028c59 .LASF2552
C:\Users\CYMR90~1\AppData\Local\Temp\ccioldvv.s:25441  .debug_str:000000000001157d .LASF2553
C:\Users\CYMR90~1\AppData\Local\Temp\ccioldvv.s:29338  .debug_str:0000000000021074 .LASF2554
C:\Users\CYMR90~1\AppData\Local\Temp\ccioldvv.s:26489  .debug_str:0000000000015909 .LASF2555
C:\Users\CYMR90~1\AppData\Local\Temp\ccioldvv.s:27052  .debug_str:0000000000017ed4 .LASF2556
C:\Users\CYMR90~1\AppData\Local\Temp\ccioldvv.s:25913  .debug_str:00000000000135d3 .LASF2557
C:\Users\CYMR90~1\AppData\Local\Temp\ccioldvv.s:26391  .debug_str:00000000000153ab .LASF2558
C:\Users\CYMR90~1\AppData\Local\Temp\ccioldvv.s:25105  .debug_str:00000000000100ed .LASF2559
C:\Users\CYMR90~1\AppData\Local\Temp\ccioldvv.s:25391  .debug_str:0000000000011276 .LASF2560
C:\Users\CYMR90~1\AppData\Local\Temp\ccioldvv.s:24483  .debug_str:000000000000dacb .LASF2561
C:\Users\CYMR90~1\AppData\Local\Temp\ccioldvv.s:23485  .debug_str:0000000000009864 .LASF2562
C:\Users\CYMR90~1\AppData\Local\Temp\ccioldvv.s:31980  .debug_str:000000000002b74a .LASF2563
C:\Users\CYMR90~1\AppData\Local\Temp\ccioldvv.s:25129  .debug_str:0000000000010287 .LASF2564
C:\Users\CYMR90~1\AppData\Local\Temp\ccioldvv.s:31314  .debug_str:0000000000028e80 .LASF2565
C:\Users\CYMR90~1\AppData\Local\Temp\ccioldvv.s:30028  .debug_str:0000000000023aa4 .LASF2566
C:\Users\CYMR90~1\AppData\Local\Temp\ccioldvv.s:26886  .debug_str:000000000001748b .LASF2567
C:\Users\CYMR90~1\AppData\Local\Temp\ccioldvv.s:26507  .debug_str:0000000000015a3f .LASF2568
C:\Users\CYMR90~1\AppData\Local\Temp\ccioldvv.s:26637  .debug_str:00000000000162d0 .LASF2569
C:\Users\CYMR90~1\AppData\Local\Temp\ccioldvv.s:30996  .debug_str:0000000000027970 .LASF2570
C:\Users\CYMR90~1\AppData\Local\Temp\ccioldvv.s:24349  .debug_str:000000000000d203 .LASF2571
C:\Users\CYMR90~1\AppData\Local\Temp\ccioldvv.s:28682  .debug_str:000000000001e924 .LASF2572
C:\Users\CYMR90~1\AppData\Local\Temp\ccioldvv.s:22893  .debug_str:00000000000071a9 .LASF2573
C:\Users\CYMR90~1\AppData\Local\Temp\ccioldvv.s:21335  .debug_str:000000000000101c .LASF2574
C:\Users\CYMR90~1\AppData\Local\Temp\ccioldvv.s:27748  .debug_str:000000000001acf4 .LASF2575
C:\Users\CYMR90~1\AppData\Local\Temp\ccioldvv.s:23751  .debug_str:000000000000aa41 .LASF2576
C:\Users\CYMR90~1\AppData\Local\Temp\ccioldvv.s:26617  .debug_str:0000000000016199 .LASF2577
C:\Users\CYMR90~1\AppData\Local\Temp\ccioldvv.s:24073  .debug_str:000000000000c050 .LASF2578
C:\Users\CYMR90~1\AppData\Local\Temp\ccioldvv.s:24203  .debug_str:000000000000c85f .LASF2579
C:\Users\CYMR90~1\AppData\Local\Temp\ccioldvv.s:28134  .debug_str:000000000001c4fd .LASF2580
C:\Users\CYMR90~1\AppData\Local\Temp\ccioldvv.s:22317  .debug_str:0000000000004e81 .LASF2581
C:\Users\CYMR90~1\AppData\Local\Temp\ccioldvv.s:27992  .debug_str:000000000001bbf4 .LASF2582
C:\Users\CYMR90~1\AppData\Local\Temp\ccioldvv.s:26493  .debug_str:0000000000015972 .LASF2583
C:\Users\CYMR90~1\AppData\Local\Temp\ccioldvv.s:31460  .debug_str:000000000002982d .LASF2584
C:\Users\CYMR90~1\AppData\Local\Temp\ccioldvv.s:29620  .debug_str:0000000000022215 .LASF2585
C:\Users\CYMR90~1\AppData\Local\Temp\ccioldvv.s:22285  .debug_str:0000000000004cab .LASF2586
C:\Users\CYMR90~1\AppData\Local\Temp\ccioldvv.s:29364  .debug_str:00000000000211cb .LASF2587
C:\Users\CYMR90~1\AppData\Local\Temp\ccioldvv.s:31740  .debug_str:000000000002a878 .LASF2588
C:\Users\CYMR90~1\AppData\Local\Temp\ccioldvv.s:21289  .debug_str:0000000000000d18 .LASF2589
C:\Users\CYMR90~1\AppData\Local\Temp\ccioldvv.s:23019  .debug_str:00000000000079e0 .LASF2590
C:\Users\CYMR90~1\AppData\Local\Temp\ccioldvv.s:23483  .debug_str:0000000000009844 .LASF2591
C:\Users\CYMR90~1\AppData\Local\Temp\ccioldvv.s:25769  .debug_str:0000000000012bfd .LASF2592
C:\Users\CYMR90~1\AppData\Local\Temp\ccioldvv.s:23543  .debug_str:0000000000009c61 .LASF2593
C:\Users\CYMR90~1\AppData\Local\Temp\ccioldvv.s:22077  .debug_str:0000000000003e3a .LASF2594
C:\Users\CYMR90~1\AppData\Local\Temp\ccioldvv.s:28002  .debug_str:000000000001bcc4 .LASF2595
C:\Users\CYMR90~1\AppData\Local\Temp\ccioldvv.s:27142  .debug_str:0000000000018441 .LASF2596
C:\Users\CYMR90~1\AppData\Local\Temp\ccioldvv.s:23605  .debug_str:000000000000a063 .LASF2597
C:\Users\CYMR90~1\AppData\Local\Temp\ccioldvv.s:32308  .debug_str:000000000002ccf3 .LASF2598
C:\Users\CYMR90~1\AppData\Local\Temp\ccioldvv.s:21531  .debug_str:0000000000001c2e .LASF2599
C:\Users\CYMR90~1\AppData\Local\Temp\ccioldvv.s:26023  .debug_str:0000000000013caa .LASF2600
C:\Users\CYMR90~1\AppData\Local\Temp\ccioldvv.s:29596  .debug_str:0000000000022095 .LASF2601
C:\Users\CYMR90~1\AppData\Local\Temp\ccioldvv.s:32086  .debug_str:000000000002be33 .LASF2602
C:\Users\CYMR90~1\AppData\Local\Temp\ccioldvv.s:25447  .debug_str:00000000000115e3 .LASF2603
C:\Users\CYMR90~1\AppData\Local\Temp\ccioldvv.s:24779  .debug_str:000000000000ed1e .LASF2604
C:\Users\CYMR90~1\AppData\Local\Temp\ccioldvv.s:28260  .debug_str:000000000001cd82 .LASF2605
C:\Users\CYMR90~1\AppData\Local\Temp\ccioldvv.s:27526  .debug_str:0000000000019de2 .LASF2606
C:\Users\CYMR90~1\AppData\Local\Temp\ccioldvv.s:22335  .debug_str:0000000000004f9f .LASF2607
C:\Users\CYMR90~1\AppData\Local\Temp\ccioldvv.s:22249  .debug_str:0000000000004a5c .LASF2608
C:\Users\CYMR90~1\AppData\Local\Temp\ccioldvv.s:32344  .debug_str:000000000002cf88 .LASF2609
C:\Users\CYMR90~1\AppData\Local\Temp\ccioldvv.s:28884  .debug_str:000000000001f51b .LASF2610
C:\Users\CYMR90~1\AppData\Local\Temp\ccioldvv.s:23169  .debug_str:00000000000084de .LASF2611
C:\Users\CYMR90~1\AppData\Local\Temp\ccioldvv.s:23157  .debug_str:000000000000843d .LASF2612
C:\Users\CYMR90~1\AppData\Local\Temp\ccioldvv.s:30512  .debug_str:0000000000025bc2 .LASF2613
C:\Users\CYMR90~1\AppData\Local\Temp\ccioldvv.s:25403  .debug_str:0000000000011339 .LASF2614
C:\Users\CYMR90~1\AppData\Local\Temp\ccioldvv.s:26635  .debug_str:00000000000162ac .LASF2615
C:\Users\CYMR90~1\AppData\Local\Temp\ccioldvv.s:27948  .debug_str:000000000001b9be .LASF2616
C:\Users\CYMR90~1\AppData\Local\Temp\ccioldvv.s:31252  .debug_str:0000000000028b34 .LASF2617
C:\Users\CYMR90~1\AppData\Local\Temp\ccioldvv.s:30078  .debug_str:0000000000023d8c .LASF2618
C:\Users\CYMR90~1\AppData\Local\Temp\ccioldvv.s:28500  .debug_str:000000000001dd83 .LASF2619
C:\Users\CYMR90~1\AppData\Local\Temp\ccioldvv.s:27502  .debug_str:0000000000019c7a .LASF2620
C:\Users\CYMR90~1\AppData\Local\Temp\ccioldvv.s:26595  .debug_str:0000000000016021 .LASF2621
C:\Users\CYMR90~1\AppData\Local\Temp\ccioldvv.s:25677  .debug_str:00000000000125c7 .LASF2622
C:\Users\CYMR90~1\AppData\Local\Temp\ccioldvv.s:23759  .debug_str:000000000000aaba .LASF2623
C:\Users\CYMR90~1\AppData\Local\Temp\ccioldvv.s:26423  .debug_str:000000000001555f .LASF2624
C:\Users\CYMR90~1\AppData\Local\Temp\ccioldvv.s:22177  .debug_str:0000000000004518 .LASF2625
C:\Users\CYMR90~1\AppData\Local\Temp\ccioldvv.s:21885  .debug_str:00000000000031d3 .LASF2626
C:\Users\CYMR90~1\AppData\Local\Temp\ccioldvv.s:23415  .debug_str:00000000000093ff .LASF2627
C:\Users\CYMR90~1\AppData\Local\Temp\ccioldvv.s:21285  .debug_str:0000000000000ce1 .LASF2628
C:\Users\CYMR90~1\AppData\Local\Temp\ccioldvv.s:24573  .debug_str:000000000000e04a .LASF2629
C:\Users\CYMR90~1\AppData\Local\Temp\ccioldvv.s:23227  .debug_str:0000000000008854 .LASF2630
C:\Users\CYMR90~1\AppData\Local\Temp\ccioldvv.s:21581  .debug_str:0000000000001f0d .LASF2631
C:\Users\CYMR90~1\AppData\Local\Temp\ccioldvv.s:24037  .debug_str:000000000000bd48 .LASF2632
C:\Users\CYMR90~1\AppData\Local\Temp\ccioldvv.s:21385  .debug_str:00000000000012bc .LASF2633
C:\Users\CYMR90~1\AppData\Local\Temp\ccioldvv.s:27632  .debug_str:000000000001a5bc .LASF2634
C:\Users\CYMR90~1\AppData\Local\Temp\ccioldvv.s:27416  .debug_str:0000000000019655 .LASF2635
C:\Users\CYMR90~1\AppData\Local\Temp\ccioldvv.s:25947  .debug_str:0000000000013815 .LASF2636
C:\Users\CYMR90~1\AppData\Local\Temp\ccioldvv.s:31152  .debug_str:000000000002847f .LASF2637
C:\Users\CYMR90~1\AppData\Local\Temp\ccioldvv.s:23613  .debug_str:000000000000a0e4 .LASF2638
C:\Users\CYMR90~1\AppData\Local\Temp\ccioldvv.s:27678  .debug_str:000000000001a82d .LASF2639
C:\Users\CYMR90~1\AppData\Local\Temp\ccioldvv.s:28310  .debug_str:000000000001d1c1 .LASF2640
C:\Users\CYMR90~1\AppData\Local\Temp\ccioldvv.s:26822  .debug_str:00000000000170e0 .LASF2641
C:\Users\CYMR90~1\AppData\Local\Temp\ccioldvv.s:30740  .debug_str:00000000000269b8 .LASF2642
C:\Users\CYMR90~1\AppData\Local\Temp\ccioldvv.s:25883  .debug_str:0000000000013355 .LASF2643
C:\Users\CYMR90~1\AppData\Local\Temp\ccioldvv.s:21151  .debug_str:00000000000004a0 .LASF2644
C:\Users\CYMR90~1\AppData\Local\Temp\ccioldvv.s:21647  .debug_str:0000000000002286 .LASF2645
C:\Users\CYMR90~1\AppData\Local\Temp\ccioldvv.s:26453  .debug_str:00000000000156fa .LASF2646
C:\Users\CYMR90~1\AppData\Local\Temp\ccioldvv.s:21273  .debug_str:0000000000000c40 .LASF2647
C:\Users\CYMR90~1\AppData\Local\Temp\ccioldvv.s:28408  .debug_str:000000000001d828 .LASF2648
C:\Users\CYMR90~1\AppData\Local\Temp\ccioldvv.s:28980  .debug_str:000000000001faa3 .LASF2649
C:\Users\CYMR90~1\AppData\Local\Temp\ccioldvv.s:30310  .debug_str:0000000000024d07 .LASF2650
C:\Users\CYMR90~1\AppData\Local\Temp\ccioldvv.s:22433  .debug_str:000000000000555e .LASF2651
C:\Users\CYMR90~1\AppData\Local\Temp\ccioldvv.s:22037  .debug_str:0000000000003bba .LASF2652
C:\Users\CYMR90~1\AppData\Local\Temp\ccioldvv.s:26149  .debug_str:0000000000014470 .LASF2653
C:\Users\CYMR90~1\AppData\Local\Temp\ccioldvv.s:24111  .debug_str:000000000000c2cd .LASF2654
C:\Users\CYMR90~1\AppData\Local\Temp\ccioldvv.s:28870  .debug_str:000000000001f45a .LASF2655
C:\Users\CYMR90~1\AppData\Local\Temp\ccioldvv.s:24653  .debug_str:000000000000e4d2 .LASF2656
C:\Users\CYMR90~1\AppData\Local\Temp\ccioldvv.s:29764  .debug_str:0000000000022ac2 .LASF2657
C:\Users\CYMR90~1\AppData\Local\Temp\ccioldvv.s:32292  .debug_str:000000000002cc1d .LASF2658
C:\Users\CYMR90~1\AppData\Local\Temp\ccioldvv.s:22547  .debug_str:0000000000005c55 .LASF2659
C:\Users\CYMR90~1\AppData\Local\Temp\ccioldvv.s:27662  .debug_str:000000000001a722 .LASF2660
C:\Users\CYMR90~1\AppData\Local\Temp\ccioldvv.s:23827  .debug_str:000000000000af23 .LASF2661
C:\Users\CYMR90~1\AppData\Local\Temp\ccioldvv.s:30446  .debug_str:00000000000256c9 .LASF2662
C:\Users\CYMR90~1\AppData\Local\Temp\ccioldvv.s:21833  .debug_str:0000000000002e90 .LASF2663
C:\Users\CYMR90~1\AppData\Local\Temp\ccioldvv.s:32172  .debug_str:000000000002c41a .LASF2664
C:\Users\CYMR90~1\AppData\Local\Temp\ccioldvv.s:21423  .debug_str:00000000000014ed .LASF2665
C:\Users\CYMR90~1\AppData\Local\Temp\ccioldvv.s:21189  .debug_str:00000000000006ca .LASF2666
C:\Users\CYMR90~1\AppData\Local\Temp\ccioldvv.s:29636  .debug_str:0000000000022304 .LASF2667
C:\Users\CYMR90~1\AppData\Local\Temp\ccioldvv.s:26043  .debug_str:0000000000013dea .LASF2668
C:\Users\CYMR90~1\AppData\Local\Temp\ccioldvv.s:25833  .debug_str:0000000000013007 .LASF2669
C:\Users\CYMR90~1\AppData\Local\Temp\ccioldvv.s:28676  .debug_str:000000000001e8b9 .LASF2670
C:\Users\CYMR90~1\AppData\Local\Temp\ccioldvv.s:23961  .debug_str:000000000000b874 .LASF2671
C:\Users\CYMR90~1\AppData\Local\Temp\ccioldvv.s:22827  .debug_str:0000000000006d1b .LASF2672
C:\Users\CYMR90~1\AppData\Local\Temp\ccioldvv.s:28976  .debug_str:000000000001fa53 .LASF2673
C:\Users\CYMR90~1\AppData\Local\Temp\ccioldvv.s:31516  .debug_str:0000000000029b3a .LASF2674
C:\Users\CYMR90~1\AppData\Local\Temp\ccioldvv.s:26968  .debug_str:00000000000179a8 .LASF2675
C:\Users\CYMR90~1\AppData\Local\Temp\ccioldvv.s:28324  .debug_str:000000000001d2a7 .LASF2676
C:\Users\CYMR90~1\AppData\Local\Temp\ccioldvv.s:26207  .debug_str:00000000000147e9 .LASF2677
C:\Users\CYMR90~1\AppData\Local\Temp\ccioldvv.s:24485  .debug_str:000000000000daee .LASF2678
C:\Users\CYMR90~1\AppData\Local\Temp\ccioldvv.s:27844  .debug_str:000000000001b336 .LASF2679
C:\Users\CYMR90~1\AppData\Local\Temp\ccioldvv.s:31900  .debug_str:000000000002b1e1 .LASF2680
C:\Users\CYMR90~1\AppData\Local\Temp\ccioldvv.s:22345  .debug_str:000000000000501e .LASF2681
C:\Users\CYMR90~1\AppData\Local\Temp\ccioldvv.s:22985  .debug_str:00000000000077ad .LASF2682
C:\Users\CYMR90~1\AppData\Local\Temp\ccioldvv.s:31330  .debug_str:0000000000028fb2 .LASF2683
C:\Users\CYMR90~1\AppData\Local\Temp\ccioldvv.s:27342  .debug_str:00000000000191f8 .LASF2684
C:\Users\CYMR90~1\AppData\Local\Temp\ccioldvv.s:30388  .debug_str:00000000000251dc .LASF2685
C:\Users\CYMR90~1\AppData\Local\Temp\ccioldvv.s:24341  .debug_str:000000000000d175 .LASF2686
C:\Users\CYMR90~1\AppData\Local\Temp\ccioldvv.s:29534  .debug_str:0000000000021cee .LASF2687
C:\Users\CYMR90~1\AppData\Local\Temp\ccioldvv.s:29784  .debug_str:0000000000022bde .LASF2688
C:\Users\CYMR90~1\AppData\Local\Temp\ccioldvv.s:25435  .debug_str:0000000000011533 .LASF2689
C:\Users\CYMR90~1\AppData\Local\Temp\ccioldvv.s:22019  .debug_str:0000000000003abc .LASF2690
C:\Users\CYMR90~1\AppData\Local\Temp\ccioldvv.s:27296  .debug_str:0000000000018e51 .LASF2691
C:\Users\CYMR90~1\AppData\Local\Temp\ccioldvv.s:21203  .debug_str:00000000000007ad .LASF2692
C:\Users\CYMR90~1\AppData\Local\Temp\ccioldvv.s:29072  .debug_str:0000000000020059 .LASF2693
C:\Users\CYMR90~1\AppData\Local\Temp\ccioldvv.s:31240  .debug_str:0000000000028a5b .LASF2694
C:\Users\CYMR90~1\AppData\Local\Temp\ccioldvv.s:23127  .debug_str:000000000000821e .LASF2695
C:\Users\CYMR90~1\AppData\Local\Temp\ccioldvv.s:23763  .debug_str:000000000000aafe .LASF2696
C:\Users\CYMR90~1\AppData\Local\Temp\ccioldvv.s:29530  .debug_str:0000000000021cb2 .LASF2697
C:\Users\CYMR90~1\AppData\Local\Temp\ccioldvv.s:21337  .debug_str:000000000000102e .LASF2698
C:\Users\CYMR90~1\AppData\Local\Temp\ccioldvv.s:24585  .debug_str:000000000000e0e1 .LASF2699
C:\Users\CYMR90~1\AppData\Local\Temp\ccioldvv.s:27808  .debug_str:000000000001b0f7 .LASF2700
C:\Users\CYMR90~1\AppData\Local\Temp\ccioldvv.s:30998  .debug_str:0000000000027983 .LASF2701
C:\Users\CYMR90~1\AppData\Local\Temp\ccioldvv.s:22869  .debug_str:0000000000007008 .LASF2702
C:\Users\CYMR90~1\AppData\Local\Temp\ccioldvv.s:26097  .debug_str:00000000000140f0 .LASF2703
C:\Users\CYMR90~1\AppData\Local\Temp\ccioldvv.s:22543  .debug_str:0000000000005c28 .LASF2704
C:\Users\CYMR90~1\AppData\Local\Temp\ccioldvv.s:27290  .debug_str:0000000000018df4 .LASF2705
C:\Users\CYMR90~1\AppData\Local\Temp\ccioldvv.s:32024  .debug_str:000000000002ba44 .LASF2706
C:\Users\CYMR90~1\AppData\Local\Temp\ccioldvv.s:25383  .debug_str:00000000000111fd .LASF2707
C:\Users\CYMR90~1\AppData\Local\Temp\ccioldvv.s:30066  .debug_str:0000000000023ce7 .LASF2708
C:\Users\CYMR90~1\AppData\Local\Temp\ccioldvv.s:23461  .debug_str:0000000000009705 .LASF2709
C:\Users\CYMR90~1\AppData\Local\Temp\ccioldvv.s:23839  .debug_str:000000000000b0ac .LASF2710
C:\Users\CYMR90~1\AppData\Local\Temp\ccioldvv.s:24493  .debug_str:000000000000db7e .LASF2711
C:\Users\CYMR90~1\AppData\Local\Temp\ccioldvv.s:29778  .debug_str:0000000000022b78 .LASF2712
C:\Users\CYMR90~1\AppData\Local\Temp\ccioldvv.s:27020  .debug_str:0000000000017cec .LASF2713
C:\Users\CYMR90~1\AppData\Local\Temp\ccioldvv.s:22263  .debug_str:0000000000004b3b .LASF2714
C:\Users\CYMR90~1\AppData\Local\Temp\ccioldvv.s:23713  .debug_str:000000000000a709 .LASF2715
C:\Users\CYMR90~1\AppData\Local\Temp\ccioldvv.s:28900  .debug_str:000000000001f5f8 .LASF2716
C:\Users\CYMR90~1\AppData\Local\Temp\ccioldvv.s:22463  .debug_str:0000000000005742 .LASF2717
C:\Users\CYMR90~1\AppData\Local\Temp\ccioldvv.s:28006  .debug_str:000000000001bd11 .LASF2718
C:\Users\CYMR90~1\AppData\Local\Temp\ccioldvv.s:24201  .debug_str:000000000000c843 .LASF2719
C:\Users\CYMR90~1\AppData\Local\Temp\ccioldvv.s:23939  .debug_str:000000000000b6e8 .LASF2720
C:\Users\CYMR90~1\AppData\Local\Temp\ccioldvv.s:29142  .debug_str:0000000000020463 .LASF2721
C:\Users\CYMR90~1\AppData\Local\Temp\ccioldvv.s:23083  .debug_str:0000000000007e82 .LASF2722
C:\Users\CYMR90~1\AppData\Local\Temp\ccioldvv.s:28228  .debug_str:000000000001cb59 .LASF2723
C:\Users\CYMR90~1\AppData\Local\Temp\ccioldvv.s:22133  .debug_str:000000000000426f .LASF2724
C:\Users\CYMR90~1\AppData\Local\Temp\ccioldvv.s:30042  .debug_str:0000000000023b84 .LASF2725
C:\Users\CYMR90~1\AppData\Local\Temp\ccioldvv.s:27322  .debug_str:0000000000018fe1 .LASF2726
C:\Users\CYMR90~1\AppData\Local\Temp\ccioldvv.s:21607  .debug_str:0000000000002062 .LASF2727
C:\Users\CYMR90~1\AppData\Local\Temp\ccioldvv.s:21955  .debug_str:000000000000367b .LASF2728
C:\Users\CYMR90~1\AppData\Local\Temp\ccioldvv.s:30518  .debug_str:0000000000025c3d .LASF2729
C:\Users\CYMR90~1\AppData\Local\Temp\ccioldvv.s:27866  .debug_str:000000000001b4a4 .LASF2730
C:\Users\CYMR90~1\AppData\Local\Temp\ccioldvv.s:27010  .debug_str:0000000000017c71 .LASF2731
C:\Users\CYMR90~1\AppData\Local\Temp\ccioldvv.s:32200  .debug_str:000000000002c623 .LASF2732
C:\Users\CYMR90~1\AppData\Local\Temp\ccioldvv.s:26095  .debug_str:00000000000140d6 .LASF2733
C:\Users\CYMR90~1\AppData\Local\Temp\ccioldvv.s:31354  .debug_str:0000000000029119 .LASF2734
C:\Users\CYMR90~1\AppData\Local\Temp\ccioldvv.s:25185  .debug_str:00000000000105c3 .LASF2735
C:\Users\CYMR90~1\AppData\Local\Temp\ccioldvv.s:27764  .debug_str:000000000001ade3 .LASF2736
C:\Users\CYMR90~1\AppData\Local\Temp\ccioldvv.s:21641  .debug_str:000000000000223b .LASF2737
C:\Users\CYMR90~1\AppData\Local\Temp\ccioldvv.s:26812  .debug_str:000000000001705b .LASF2738
C:\Users\CYMR90~1\AppData\Local\Temp\ccioldvv.s:26129  .debug_str:0000000000014348 .LASF2739
C:\Users\CYMR90~1\AppData\Local\Temp\ccioldvv.s:25897  .debug_str:0000000000013462 .LASF2740
C:\Users\CYMR90~1\AppData\Local\Temp\ccioldvv.s:24783  .debug_str:000000000000ed4f .LASF2741
C:\Users\CYMR90~1\AppData\Local\Temp\ccioldvv.s:31902  .debug_str:000000000002b1f9 .LASF2742
C:\Users\CYMR90~1\AppData\Local\Temp\ccioldvv.s:23781  .debug_str:000000000000ac17 .LASF2743
C:\Users\CYMR90~1\AppData\Local\Temp\ccioldvv.s:26966  .debug_str:000000000001798f .LASF2744
C:\Users\CYMR90~1\AppData\Local\Temp\ccioldvv.s:30188  .debug_str:00000000000244fa .LASF2745
C:\Users\CYMR90~1\AppData\Local\Temp\ccioldvv.s:22061  .debug_str:0000000000003d61 .LASF2746
C:\Users\CYMR90~1\AppData\Local\Temp\ccioldvv.s:25317  .debug_str:0000000000010e5d .LASF2747
C:\Users\CYMR90~1\AppData\Local\Temp\ccioldvv.s:28478  .debug_str:000000000001dc4c .LASF2748
C:\Users\CYMR90~1\AppData\Local\Temp\ccioldvv.s:31652  .debug_str:000000000002a316 .LASF2749
C:\Users\CYMR90~1\AppData\Local\Temp\ccioldvv.s:23539  .debug_str:0000000000009c2c .LASF2750
C:\Users\CYMR90~1\AppData\Local\Temp\ccioldvv.s:26733  .debug_str:00000000000168c1 .LASF2751
C:\Users\CYMR90~1\AppData\Local\Temp\ccioldvv.s:28718  .debug_str:000000000001eb63 .LASF2752
C:\Users\CYMR90~1\AppData\Local\Temp\ccioldvv.s:22115  .debug_str:00000000000040ac .LASF2753
C:\Users\CYMR90~1\AppData\Local\Temp\ccioldvv.s:26848  .debug_str:0000000000017252 .LASF2754
C:\Users\CYMR90~1\AppData\Local\Temp\ccioldvv.s:31564  .debug_str:0000000000029e24 .LASF2755
C:\Users\CYMR90~1\AppData\Local\Temp\ccioldvv.s:24953  .debug_str:000000000000f723 .LASF2756
C:\Users\CYMR90~1\AppData\Local\Temp\ccioldvv.s:29614  .debug_str:00000000000221cb .LASF2757
C:\Users\CYMR90~1\AppData\Local\Temp\ccioldvv.s:23003  .debug_str:00000000000078e4 .LASF2758
C:\Users\CYMR90~1\AppData\Local\Temp\ccioldvv.s:26221  .debug_str:00000000000148b7 .LASF2759
C:\Users\CYMR90~1\AppData\Local\Temp\ccioldvv.s:29326  .debug_str:0000000000020fd8 .LASF2760
C:\Users\CYMR90~1\AppData\Local\Temp\ccioldvv.s:21237  .debug_str:00000000000009a6 .LASF2761
C:\Users\CYMR90~1\AppData\Local\Temp\ccioldvv.s:24475  .debug_str:000000000000da66 .LASF2762
C:\Users\CYMR90~1\AppData\Local\Temp\ccioldvv.s:27694  .debug_str:000000000001a9a8 .LASF2763
C:\Users\CYMR90~1\AppData\Local\Temp\ccioldvv.s:30882  .debug_str:00000000000271ee .LASF2764
C:\Users\CYMR90~1\AppData\Local\Temp\ccioldvv.s:22759  .debug_str:00000000000068ce .LASF2765
C:\Users\CYMR90~1\AppData\Local\Temp\ccioldvv.s:26001  .debug_str:0000000000013b59 .LASF2766
C:\Users\CYMR90~1\AppData\Local\Temp\ccioldvv.s:29188  .debug_str:000000000002078b .LASF2767
C:\Users\CYMR90~1\AppData\Local\Temp\ccioldvv.s:26521  .debug_str:0000000000015b06 .LASF2768
C:\Users\CYMR90~1\AppData\Local\Temp\ccioldvv.s:31256  .debug_str:0000000000028b66 .LASF2769
C:\Users\CYMR90~1\AppData\Local\Temp\ccioldvv.s:24637  .debug_str:000000000000e402 .LASF2770
C:\Users\CYMR90~1\AppData\Local\Temp\ccioldvv.s:22691  .debug_str:0000000000006490 .LASF2771
C:\Users\CYMR90~1\AppData\Local\Temp\ccioldvv.s:27430  .debug_str:0000000000019725 .LASF2772
C:\Users\CYMR90~1\AppData\Local\Temp\ccioldvv.s:25959  .debug_str:00000000000138d5 .LASF2773
C:\Users\CYMR90~1\AppData\Local\Temp\ccioldvv.s:29132  .debug_str:000000000002039a .LASF2774
C:\Users\CYMR90~1\AppData\Local\Temp\ccioldvv.s:32378  .debug_str:000000000002d185 .LASF2775
C:\Users\CYMR90~1\AppData\Local\Temp\ccioldvv.s:28094  .debug_str:000000000001c2c7 .LASF2776
C:\Users\CYMR90~1\AppData\Local\Temp\ccioldvv.s:30172  .debug_str:00000000000243d0 .LASF2777
C:\Users\CYMR90~1\AppData\Local\Temp\ccioldvv.s:30586  .debug_str:0000000000026025 .LASF2778
C:\Users\CYMR90~1\AppData\Local\Temp\ccioldvv.s:24481  .debug_str:000000000000dab6 .LASF2779
C:\Users\CYMR90~1\AppData\Local\Temp\ccioldvv.s:25725  .debug_str:00000000000128eb .LASF2780
C:\Users\CYMR90~1\AppData\Local\Temp\ccioldvv.s:28872  .debug_str:000000000001f47f .LASF2781
C:\Users\CYMR90~1\AppData\Local\Temp\ccioldvv.s:32150  .debug_str:000000000002c2d5 .LASF2782
C:\Users\CYMR90~1\AppData\Local\Temp\ccioldvv.s:29616  .debug_str:00000000000221e6 .LASF2783
C:\Users\CYMR90~1\AppData\Local\Temp\ccioldvv.s:31624  .debug_str:000000000002a184 .LASF2784
C:\Users\CYMR90~1\AppData\Local\Temp\ccioldvv.s:22033  .debug_str:0000000000003b81 .LASF2785
C:\Users\CYMR90~1\AppData\Local\Temp\ccioldvv.s:26757  .debug_str:0000000000016a99 .LASF2786
C:\Users\CYMR90~1\AppData\Local\Temp\ccioldvv.s:31482  .debug_str:000000000002997b .LASF2787
C:\Users\CYMR90~1\AppData\Local\Temp\ccioldvv.s:24865  .debug_str:000000000000f1bf .LASF2788
C:\Users\CYMR90~1\AppData\Local\Temp\ccioldvv.s:26723  .debug_str:000000000001683c .LASF2789
C:\Users\CYMR90~1\AppData\Local\Temp\ccioldvv.s:31450  .debug_str:0000000000029753 .LASF2790
C:\Users\CYMR90~1\AppData\Local\Temp\ccioldvv.s:24841  .debug_str:000000000000f062 .LASF2791
C:\Users\CYMR90~1\AppData\Local\Temp\ccioldvv.s:29504  .debug_str:0000000000021adb .LASF2792
C:\Users\CYMR90~1\AppData\Local\Temp\ccioldvv.s:26011  .debug_str:0000000000013bf0 .LASF2793
C:\Users\CYMR90~1\AppData\Local\Temp\ccioldvv.s:21547  .debug_str:0000000000001cfe .LASF2794
C:\Users\CYMR90~1\AppData\Local\Temp\ccioldvv.s:26253  .debug_str:0000000000014a71 .LASF2795
C:\Users\CYMR90~1\AppData\Local\Temp\ccioldvv.s:30980  .debug_str:0000000000027881 .LASF2796
C:\Users\CYMR90~1\AppData\Local\Temp\ccioldvv.s:24377  .debug_str:000000000000d42d .LASF2797
C:\Users\CYMR90~1\AppData\Local\Temp\ccioldvv.s:29036  .debug_str:000000000001fdf4 .LASF2798
C:\Users\CYMR90~1\AppData\Local\Temp\ccioldvv.s:24011  .debug_str:000000000000bbd7 .LASF2799
C:\Users\CYMR90~1\AppData\Local\Temp\ccioldvv.s:28662  .debug_str:000000000001e7b5 .LASF2800
C:\Users\CYMR90~1\AppData\Local\Temp\ccioldvv.s:22049  .debug_str:0000000000003c79 .LASF2801
C:\Users\CYMR90~1\AppData\Local\Temp\ccioldvv.s:26773  .debug_str:0000000000016c3e .LASF2802
C:\Users\CYMR90~1\AppData\Local\Temp\ccioldvv.s:23383  .debug_str:0000000000009220 .LASF2803
C:\Users\CYMR90~1\AppData\Local\Temp\ccioldvv.s:30142  .debug_str:0000000000024127 .LASF2804
C:\Users\CYMR90~1\AppData\Local\Temp\ccioldvv.s:21557  .debug_str:0000000000001d9d .LASF2805
C:\Users\CYMR90~1\AppData\Local\Temp\ccioldvv.s:24805  .debug_str:000000000000ee6a .LASF2806
C:\Users\CYMR90~1\AppData\Local\Temp\ccioldvv.s:30938  .debug_str:0000000000027636 .LASF2807
C:\Users\CYMR90~1\AppData\Local\Temp\ccioldvv.s:31228  .debug_str:00000000000289bc .LASF2808
C:\Users\CYMR90~1\AppData\Local\Temp\ccioldvv.s:23013  .debug_str:0000000000007979 .LASF2809
C:\Users\CYMR90~1\AppData\Local\Temp\ccioldvv.s:26229  .debug_str:0000000000014916 .LASF2810
C:\Users\CYMR90~1\AppData\Local\Temp\ccioldvv.s:29420  .debug_str:00000000000215f2 .LASF2811
C:\Users\CYMR90~1\AppData\Local\Temp\ccioldvv.s:21323  .debug_str:0000000000000f7c .LASF2812
C:\Users\CYMR90~1\AppData\Local\Temp\ccioldvv.s:24569  .debug_str:000000000000e01e .LASF2813
C:\Users\CYMR90~1\AppData\Local\Temp\ccioldvv.s:32228  .debug_str:000000000002c794 .LASF2814
C:\Users\CYMR90~1\AppData\Local\Temp\ccioldvv.s:27068  .debug_str:0000000000017fe4 .LASF2815
C:\Users\CYMR90~1\AppData\Local\Temp\ccioldvv.s:31812  .debug_str:000000000002acc7 .LASF2816
C:\Users\CYMR90~1\AppData\Local\Temp\ccioldvv.s:25183  .debug_str:00000000000105ac .LASF2817
C:\Users\CYMR90~1\AppData\Local\Temp\ccioldvv.s:29864  .debug_str:00000000000230d7 .LASF2818
C:\Users\CYMR90~1\AppData\Local\Temp\ccioldvv.s:26393  .debug_str:00000000000153ce .LASF2819
C:\Users\CYMR90~1\AppData\Local\Temp\ccioldvv.s:27958  .debug_str:000000000001ba26 .LASF2820
C:\Users\CYMR90~1\AppData\Local\Temp\ccioldvv.s:25369  .debug_str:000000000001111f .LASF2821
C:\Users\CYMR90~1\AppData\Local\Temp\ccioldvv.s:31676  .debug_str:000000000002a433 .LASF2822
C:\Users\CYMR90~1\AppData\Local\Temp\ccioldvv.s:27582  .debug_str:000000000001a12c .LASF2823
C:\Users\CYMR90~1\AppData\Local\Temp\ccioldvv.s:23201  .debug_str:00000000000086ae .LASF2824
C:\Users\CYMR90~1\AppData\Local\Temp\ccioldvv.s:24177  .debug_str:000000000000c6ac .LASF2825
C:\Users\CYMR90~1\AppData\Local\Temp\ccioldvv.s:31692  .debug_str:000000000002a544 .LASF2826
C:\Users\CYMR90~1\AppData\Local\Temp\ccioldvv.s:21963  .debug_str:00000000000036ed .LASF2827
C:\Users\CYMR90~1\AppData\Local\Temp\ccioldvv.s:26910  .debug_str:00000000000175d8 .LASF2828
C:\Users\CYMR90~1\AppData\Local\Temp\ccioldvv.s:22323  .debug_str:0000000000004eed .LASF2829
C:\Users\CYMR90~1\AppData\Local\Temp\ccioldvv.s:25719  .debug_str:0000000000012888 .LASF2830
C:\Users\CYMR90~1\AppData\Local\Temp\ccioldvv.s:22365  .debug_str:000000000000514f .LASF2831
C:\Users\CYMR90~1\AppData\Local\Temp\ccioldvv.s:29198  .debug_str:000000000002080a .LASF2832
C:\Users\CYMR90~1\AppData\Local\Temp\ccioldvv.s:25997  .debug_str:0000000000013b1d .LASF2833
C:\Users\CYMR90~1\AppData\Local\Temp\ccioldvv.s:24773  .debug_str:000000000000ecb3 .LASF2834
C:\Users\CYMR90~1\AppData\Local\Temp\ccioldvv.s:23831  .debug_str:000000000000af78 .LASF2835
C:\Users\CYMR90~1\AppData\Local\Temp\ccioldvv.s:21383  .debug_str:000000000000129e .LASF2836
C:\Users\CYMR90~1\AppData\Local\Temp\ccioldvv.s:24213  .debug_str:000000000000c905 .LASF2837
C:\Users\CYMR90~1\AppData\Local\Temp\ccioldvv.s:26005  .debug_str:0000000000013b94 .LASF2838
C:\Users\CYMR90~1\AppData\Local\Temp\ccioldvv.s:29194  .debug_str:00000000000207db .LASF2839
C:\Users\CYMR90~1\AppData\Local\Temp\ccioldvv.s:21105  .debug_str:00000000000001fe .LASF2840
C:\Users\CYMR90~1\AppData\Local\Temp\ccioldvv.s:24339  .debug_str:000000000000d162 .LASF2841
C:\Users\CYMR90~1\AppData\Local\Temp\ccioldvv.s:27530  .debug_str:0000000000019e38 .LASF2842
C:\Users\CYMR90~1\AppData\Local\Temp\ccioldvv.s:21301  .debug_str:0000000000000dc6 .LASF2843
C:\Users\CYMR90~1\AppData\Local\Temp\ccioldvv.s:31004  .debug_str:00000000000279ce .LASF2844
C:\Users\CYMR90~1\AppData\Local\Temp\ccioldvv.s:29352  .debug_str:0000000000021129 .LASF2845
C:\Users\CYMR90~1\AppData\Local\Temp\ccioldvv.s:27772  .debug_str:000000000001ae67 .LASF2846
C:\Users\CYMR90~1\AppData\Local\Temp\ccioldvv.s:32208  .debug_str:000000000002c6a6 .LASF2847
C:\Users\CYMR90~1\AppData\Local\Temp\ccioldvv.s:21417  .debug_str:00000000000014b7 .LASF2848
C:\Users\CYMR90~1\AppData\Local\Temp\ccioldvv.s:26139  .debug_str:00000000000143e9 .LASF2849
C:\Users\CYMR90~1\AppData\Local\Temp\ccioldvv.s:30846  .debug_str:000000000002701c .LASF2850
C:\Users\CYMR90~1\AppData\Local\Temp\ccioldvv.s:31894  .debug_str:000000000002b17f .LASF2851
C:\Users\CYMR90~1\AppData\Local\Temp\ccioldvv.s:28098  .debug_str:000000000001c2f5 .LASF2852
C:\Users\CYMR90~1\AppData\Local\Temp\ccioldvv.s:24385  .debug_str:000000000000d485 .LASF2853
C:\Users\CYMR90~1\AppData\Local\Temp\ccioldvv.s:29650  .debug_str:00000000000223cc .LASF2854
C:\Users\CYMR90~1\AppData\Local\Temp\ccioldvv.s:21539  .debug_str:0000000000001ca7 .LASF2855
C:\Users\CYMR90~1\AppData\Local\Temp\ccioldvv.s:24789  .debug_str:000000000000ed9a .LASF2856
C:\Users\CYMR90~1\AppData\Local\Temp\ccioldvv.s:27982  .debug_str:000000000001bb6d .LASF2857
C:\Users\CYMR90~1\AppData\Local\Temp\ccioldvv.s:31122  .debug_str:0000000000028211 .LASF2858
C:\Users\CYMR90~1\AppData\Local\Temp\ccioldvv.s:29494  .debug_str:0000000000021a4b .LASF2859
C:\Users\CYMR90~1\AppData\Local\Temp\ccioldvv.s:26215  .debug_str:0000000000014867 .LASF2860
C:\Users\CYMR90~1\AppData\Local\Temp\ccioldvv.s:26247  .debug_str:0000000000014a2c .LASF2861
C:\Users\CYMR90~1\AppData\Local\Temp\ccioldvv.s:21315  .debug_str:0000000000000f1d .LASF2862
C:\Users\CYMR90~1\AppData\Local\Temp\ccioldvv.s:21459  .debug_str:00000000000017ab .LASF2863
C:\Users\CYMR90~1\AppData\Local\Temp\ccioldvv.s:26781  .debug_str:0000000000016cb8 .LASF2864
C:\Users\CYMR90~1\AppData\Local\Temp\ccioldvv.s:29648  .debug_str:00000000000223b7 .LASF2865
C:\Users\CYMR90~1\AppData\Local\Temp\ccioldvv.s:24885  .debug_str:000000000000f30f .LASF2866
C:\Users\CYMR90~1\AppData\Local\Temp\ccioldvv.s:29552  .debug_str:0000000000021e34 .LASF2867
C:\Users\CYMR90~1\AppData\Local\Temp\ccioldvv.s:29716  .debug_str:00000000000227b6 .LASF2868
C:\Users\CYMR90~1\AppData\Local\Temp\ccioldvv.s:27686  .debug_str:000000000001a942 .LASF2869
C:\Users\CYMR90~1\AppData\Local\Temp\ccioldvv.s:26936  .debug_str:0000000000017773 .LASF2870
C:\Users\CYMR90~1\AppData\Local\Temp\ccioldvv.s:24657  .debug_str:000000000000e511 .LASF2871
C:\Users\CYMR90~1\AppData\Local\Temp\ccioldvv.s:25843  .debug_str:00000000000130af .LASF2872
C:\Users\CYMR90~1\AppData\Local\Temp\ccioldvv.s:25807  .debug_str:0000000000012e5d .LASF2873
C:\Users\CYMR90~1\AppData\Local\Temp\ccioldvv.s:21879  .debug_str:000000000000318d .LASF2874
C:\Users\CYMR90~1\AppData\Local\Temp\ccioldvv.s:21763  .debug_str:00000000000029f9 .LASF2875
C:\Users\CYMR90~1\AppData\Local\Temp\ccioldvv.s:29316  .debug_str:0000000000020f41 .LASF2876
C:\Users\CYMR90~1\AppData\Local\Temp\ccioldvv.s:30316  .debug_str:0000000000024d71 .LASF2877
C:\Users\CYMR90~1\AppData\Local\Temp\ccioldvv.s:29992  .debug_str:0000000000023860 .LASF2878
C:\Users\CYMR90~1\AppData\Local\Temp\ccioldvv.s:23893  .debug_str:000000000000b3dd .LASF2879
C:\Users\CYMR90~1\AppData\Local\Temp\ccioldvv.s:27070  .debug_str:0000000000017ffb .LASF2880
C:\Users\CYMR90~1\AppData\Local\Temp\ccioldvv.s:30292  .debug_str:0000000000024bd4 .LASF2881
C:\Users\CYMR90~1\AppData\Local\Temp\ccioldvv.s:22169  .debug_str:0000000000004496 .LASF2882
C:\Users\CYMR90~1\AppData\Local\Temp\ccioldvv.s:25341  .debug_str:0000000000010f91 .LASF2883
C:\Users\CYMR90~1\AppData\Local\Temp\ccioldvv.s:28498  .debug_str:000000000001dd71 .LASF2884
C:\Users\CYMR90~1\AppData\Local\Temp\ccioldvv.s:32312  .debug_str:000000000002cd3d .LASF2885
C:\Users\CYMR90~1\AppData\Local\Temp\ccioldvv.s:23653  .debug_str:000000000000a37d .LASF2886
C:\Users\CYMR90~1\AppData\Local\Temp\ccioldvv.s:26854  .debug_str:00000000000172af .LASF2887
C:\Users\CYMR90~1\AppData\Local\Temp\ccioldvv.s:30062  .debug_str:0000000000023cb5 .LASF2888
C:\Users\CYMR90~1\AppData\Local\Temp\ccioldvv.s:28232  .debug_str:000000000001cb9c .LASF2889
C:\Users\CYMR90~1\AppData\Local\Temp\ccioldvv.s:21605  .debug_str:000000000000204e .LASF2890
C:\Users\CYMR90~1\AppData\Local\Temp\ccioldvv.s:26311  .debug_str:0000000000014e60 .LASF2891
C:\Users\CYMR90~1\AppData\Local\Temp\ccioldvv.s:31038  .debug_str:0000000000027c3a .LASF2892
C:\Users\CYMR90~1\AppData\Local\Temp\ccioldvv.s:24433  .debug_str:000000000000d840 .LASF2893
C:\Users\CYMR90~1\AppData\Local\Temp\ccioldvv.s:29098  .debug_str:00000000000201e8 .LASF2894
C:\Users\CYMR90~1\AppData\Local\Temp\ccioldvv.s:31716  .debug_str:000000000002a707 .LASF2895
C:\Users\CYMR90~1\AppData\Local\Temp\ccioldvv.s:31930  .debug_str:000000000002b3e3 .LASF2896
C:\Users\CYMR90~1\AppData\Local\Temp\ccioldvv.s:27722  .debug_str:000000000001ab41 .LASF2897
C:\Users\CYMR90~1\AppData\Local\Temp\ccioldvv.s:22905  .debug_str:0000000000007288 .LASF2898
C:\Users\CYMR90~1\AppData\Local\Temp\ccioldvv.s:23209  .debug_str:0000000000008726 .LASF2899
C:\Users\CYMR90~1\AppData\Local\Temp\ccioldvv.s:27130  .debug_str:000000000001836e .LASF2900
C:\Users\CYMR90~1\AppData\Local\Temp\ccioldvv.s:32028  .debug_str:000000000002ba71 .LASF2901
C:\Users\CYMR90~1\AppData\Local\Temp\ccioldvv.s:25583  .debug_str:0000000000011f95 .LASF2902
C:\Users\CYMR90~1\AppData\Local\Temp\ccioldvv.s:26409  .debug_str:000000000001547b .LASF2903
C:\Users\CYMR90~1\AppData\Local\Temp\ccioldvv.s:22601  .debug_str:0000000000005f2d .LASF2904
C:\Users\CYMR90~1\AppData\Local\Temp\ccioldvv.s:29340  .debug_str:0000000000021096 .LASF2905
C:\Users\CYMR90~1\AppData\Local\Temp\ccioldvv.s:30728  .debug_str:0000000000026902 .LASF2906
C:\Users\CYMR90~1\AppData\Local\Temp\ccioldvv.s:32122  .debug_str:000000000002c0fc .LASF2907
C:\Users\CYMR90~1\AppData\Local\Temp\ccioldvv.s:22123  .debug_str:00000000000041c9 .LASF2908
C:\Users\CYMR90~1\AppData\Local\Temp\ccioldvv.s:25851  .debug_str:000000000001313d .LASF2909
C:\Users\CYMR90~1\AppData\Local\Temp\ccioldvv.s:31232  .debug_str:00000000000289ea .LASF2910
C:\Users\CYMR90~1\AppData\Local\Temp\ccioldvv.s:29162  .debug_str:00000000000205a8 .LASF2911
C:\Users\CYMR90~1\AppData\Local\Temp\ccioldvv.s:28058  .debug_str:000000000001c059 .LASF2912
C:\Users\CYMR90~1\AppData\Local\Temp\ccioldvv.s:27630  .debug_str:000000000001a57e .LASF2913
C:\Users\CYMR90~1\AppData\Local\Temp\ccioldvv.s:27550  .debug_str:0000000000019f3d .LASF2914
C:\Users\CYMR90~1\AppData\Local\Temp\ccioldvv.s:29758  .debug_str:0000000000022a4e .LASF2915
C:\Users\CYMR90~1\AppData\Local\Temp\ccioldvv.s:28054  .debug_str:000000000001c02c .LASF2916
C:\Users\CYMR90~1\AppData\Local\Temp\ccioldvv.s:27192  .debug_str:000000000001875b .LASF2917
C:\Users\CYMR90~1\AppData\Local\Temp\ccioldvv.s:28580  .debug_str:000000000001e2f6 .LASF2918
C:\Users\CYMR90~1\AppData\Local\Temp\ccioldvv.s:25785  .debug_str:0000000000012cf1 .LASF2919
C:\Users\CYMR90~1\AppData\Local\Temp\ccioldvv.s:24517  .debug_str:000000000000dcbd .LASF2920
C:\Users\CYMR90~1\AppData\Local\Temp\ccioldvv.s:23647  .debug_str:000000000000a31a .LASF2921
C:\Users\CYMR90~1\AppData\Local\Temp\ccioldvv.s:22745  .debug_str:00000000000067fc .LASF2922
C:\Users\CYMR90~1\AppData\Local\Temp\ccioldvv.s:21883  .debug_str:00000000000031c3 .LASF2923
C:\Users\CYMR90~1\AppData\Local\Temp\ccioldvv.s:32360  .debug_str:000000000002d07a .LASF2924
C:\Users\CYMR90~1\AppData\Local\Temp\ccioldvv.s:31486  .debug_str:00000000000299ac .LASF2925
C:\Users\CYMR90~1\AppData\Local\Temp\ccioldvv.s:30222  .debug_str:0000000000024718 .LASF2926
C:\Users\CYMR90~1\AppData\Local\Temp\ccioldvv.s:22089  .debug_str:0000000000003f4b .LASF2927
C:\Users\CYMR90~1\AppData\Local\Temp\ccioldvv.s:25355  .debug_str:0000000000011051 .LASF2928
C:\Users\CYMR90~1\AppData\Local\Temp\ccioldvv.s:28516  .debug_str:000000000001df07 .LASF2929
C:\Users\CYMR90~1\AppData\Local\Temp\ccioldvv.s:31782  .debug_str:000000000002aadd .LASF2930
C:\Users\CYMR90~1\AppData\Local\Temp\ccioldvv.s:23667  .debug_str:000000000000a48b .LASF2931
C:\Users\CYMR90~1\AppData\Local\Temp\ccioldvv.s:29842  .debug_str:0000000000022f9d .LASF2932
C:\Users\CYMR90~1\AppData\Local\Temp\ccioldvv.s:32314  .debug_str:000000000002cd4f .LASF2933
C:\Users\CYMR90~1\AppData\Local\Temp\ccioldvv.s:25611  .debug_str:0000000000012196 .LASF2934
C:\Users\CYMR90~1\AppData\Local\Temp\ccioldvv.s:24121  .debug_str:000000000000c365 .LASF2935
C:\Users\CYMR90~1\AppData\Local\Temp\ccioldvv.s:21691  .debug_str:0000000000002531 .LASF2936
C:\Users\CYMR90~1\AppData\Local\Temp\ccioldvv.s:28304  .debug_str:000000000001d168 .LASF2937
C:\Users\CYMR90~1\AppData\Local\Temp\ccioldvv.s:27690  .debug_str:000000000001a970 .LASF2938
C:\Users\CYMR90~1\AppData\Local\Temp\ccioldvv.s:27728  .debug_str:000000000001abcc .LASF2939
C:\Users\CYMR90~1\AppData\Local\Temp\ccioldvv.s:26689  .debug_str:000000000001659c .LASF2940
C:\Users\CYMR90~1\AppData\Local\Temp\ccioldvv.s:23963  .debug_str:000000000000b8a2 .LASF2941
C:\Users\CYMR90~1\AppData\Local\Temp\ccioldvv.s:26089  .debug_str:0000000000014089 .LASF2942
C:\Users\CYMR90~1\AppData\Local\Temp\ccioldvv.s:30640  .debug_str:0000000000026396 .LASF2943
C:\Users\CYMR90~1\AppData\Local\Temp\ccioldvv.s:27890  .debug_str:000000000001b616 .LASF2944
C:\Users\CYMR90~1\AppData\Local\Temp\ccioldvv.s:22583  .debug_str:0000000000005e27 .LASF2945
C:\Users\CYMR90~1\AppData\Local\Temp\ccioldvv.s:24515  .debug_str:000000000000dc9b .LASF2946
C:\Users\CYMR90~1\AppData\Local\Temp\ccioldvv.s:26389  .debug_str:000000000001536e .LASF2947
C:\Users\CYMR90~1\AppData\Local\Temp\ccioldvv.s:31014  .debug_str:0000000000027a81 .LASF2948
C:\Users\CYMR90~1\AppData\Local\Temp\ccioldvv.s:24089  .debug_str:000000000000c16f .LASF2949
C:\Users\CYMR90~1\AppData\Local\Temp\ccioldvv.s:24639  .debug_str:000000000000e41b .LASF2950
C:\Users\CYMR90~1\AppData\Local\Temp\ccioldvv.s:28624  .debug_str:000000000001e57a .LASF2951
C:\Users\CYMR90~1\AppData\Local\Temp\ccioldvv.s:22343  .debug_str:0000000000005008 .LASF2952
C:\Users\CYMR90~1\AppData\Local\Temp\ccioldvv.s:31890  .debug_str:000000000002b13d .LASF2953
C:\Users\CYMR90~1\AppData\Local\Temp\ccioldvv.s:30076  .debug_str:0000000000023d77 .LASF2954
C:\Users\CYMR90~1\AppData\Local\Temp\ccioldvv.s:30884  .debug_str:0000000000027205 .LASF2955
C:\Users\CYMR90~1\AppData\Local\Temp\ccioldvv.s:22787  .debug_str:0000000000006a7d .LASF2956
C:\Users\CYMR90~1\AppData\Local\Temp\ccioldvv.s:32382  .debug_str:000000000002d1b9 .LASF2957
C:\Users\CYMR90~1\AppData\Local\Temp\ccioldvv.s:21855  .debug_str:0000000000002ff4 .LASF2958
C:\Users\CYMR90~1\AppData\Local\Temp\ccioldvv.s:21583  .debug_str:0000000000001f2f .LASF2959
C:\Users\CYMR90~1\AppData\Local\Temp\ccioldvv.s:28652  .debug_str:000000000001e749 .LASF2960
C:\Users\CYMR90~1\AppData\Local\Temp\ccioldvv.s:21831  .debug_str:0000000000002e79 .LASF2961
C:\Users\CYMR90~1\AppData\Local\Temp\ccioldvv.s:21125  .debug_str:000000000000033b .LASF2962
C:\Users\CYMR90~1\AppData\Local\Temp\ccioldvv.s:32168  .debug_str:000000000002c3a5 .LASF2963
C:\Users\CYMR90~1\AppData\Local\Temp\ccioldvv.s:30782  .debug_str:0000000000026c33 .LASF2964
C:\Users\CYMR90~1\AppData\Local\Temp\ccioldvv.s:22567  .debug_str:0000000000005d67 .LASF2965
C:\Users\CYMR90~1\AppData\Local\Temp\ccioldvv.s:30994  .debug_str:000000000002795b .LASF2966
C:\Users\CYMR90~1\AppData\Local\Temp\ccioldvv.s:28218  .debug_str:000000000001cace .LASF2967
C:\Users\CYMR90~1\AppData\Local\Temp\ccioldvv.s:29214  .debug_str:0000000000020915 .LASF2968
C:\Users\CYMR90~1\AppData\Local\Temp\ccioldvv.s:25011  .debug_str:000000000000fb1d .LASF2969
C:\Users\CYMR90~1\AppData\Local\Temp\ccioldvv.s:24161  .debug_str:000000000000c5aa .LASF2970
C:\Users\CYMR90~1\AppData\Local\Temp\ccioldvv.s:27946  .debug_str:000000000001b9a2 .LASF2971
C:\Users\CYMR90~1\AppData\Local\Temp\ccioldvv.s:31192  .debug_str:0000000000028713 .LASF2972
C:\Users\CYMR90~1\AppData\Local\Temp\ccioldvv.s:29608  .debug_str:0000000000022156 .LASF2973
C:\Users\CYMR90~1\AppData\Local\Temp\ccioldvv.s:27938  .debug_str:000000000001b906 .LASF2974
C:\Users\CYMR90~1\AppData\Local\Temp\ccioldvv.s:22179  .debug_str:0000000000004534 .LASF2975
C:\Users\CYMR90~1\AppData\Local\Temp\ccioldvv.s:27032  .debug_str:0000000000017d99 .LASF2976
C:\Users\CYMR90~1\AppData\Local\Temp\ccioldvv.s:29518  .debug_str:0000000000021bf2 .LASF2977
C:\Users\CYMR90~1\AppData\Local\Temp\ccioldvv.s:23063  .debug_str:0000000000007cbf .LASF2978
C:\Users\CYMR90~1\AppData\Local\Temp\ccioldvv.s:28400  .debug_str:000000000001d744 .LASF2979
C:\Users\CYMR90~1\AppData\Local\Temp\ccioldvv.s:24459  .debug_str:000000000000d99f .LASF2980
C:\Users\CYMR90~1\AppData\Local\Temp\ccioldvv.s:31952  .debug_str:000000000002b56b .LASF2981
C:\Users\CYMR90~1\AppData\Local\Temp\ccioldvv.s:27064  .debug_str:0000000000017f92 .LASF2982
C:\Users\CYMR90~1\AppData\Local\Temp\ccioldvv.s:22047  .debug_str:0000000000003c56 .LASF2983
C:\Users\CYMR90~1\AppData\Local\Temp\ccioldvv.s:27292  .debug_str:0000000000018e0c .LASF2984
C:\Users\CYMR90~1\AppData\Local\Temp\ccioldvv.s:21099  .debug_str:000000000000018b .LASF2985
C:\Users\CYMR90~1\AppData\Local\Temp\ccioldvv.s:24831  .debug_str:000000000000efbb .LASF2986
C:\Users\CYMR90~1\AppData\Local\Temp\ccioldvv.s:26293  .debug_str:0000000000014d09 .LASF2987
C:\Users\CYMR90~1\AppData\Local\Temp\ccioldvv.s:26203  .debug_str:0000000000014796 .LASF2988
C:\Users\CYMR90~1\AppData\Local\Temp\ccioldvv.s:24855  .debug_str:000000000000f113 .LASF2989
C:\Users\CYMR90~1\AppData\Local\Temp\ccioldvv.s:24541  .debug_str:000000000000de20 .LASF2990
C:\Users\CYMR90~1\AppData\Local\Temp\ccioldvv.s:30010  .debug_str:0000000000023998 .LASF2991
C:\Users\CYMR90~1\AppData\Local\Temp\ccioldvv.s:26884  .debug_str:0000000000017466 .LASF2992
C:\Users\CYMR90~1\AppData\Local\Temp\ccioldvv.s:25991  .debug_str:0000000000013abb .LASF2993
C:\Users\CYMR90~1\AppData\Local\Temp\ccioldvv.s:23277  .debug_str:0000000000008ba7 .LASF2994
C:\Users\CYMR90~1\AppData\Local\Temp\ccioldvv.s:31702  .debug_str:000000000002a5fc .LASF2995
C:\Users\CYMR90~1\AppData\Local\Temp\ccioldvv.s:26291  .debug_str:0000000000014ceb .LASF2996
C:\Users\CYMR90~1\AppData\Local\Temp\ccioldvv.s:26381  .debug_str:00000000000152de .LASF2997
C:\Users\CYMR90~1\AppData\Local\Temp\ccioldvv.s:22417  .debug_str:0000000000005463 .LASF2998
C:\Users\CYMR90~1\AppData\Local\Temp\ccioldvv.s:26561  .debug_str:0000000000015dd4 .LASF2999
C:\Users\CYMR90~1\AppData\Local\Temp\ccioldvv.s:29736  .debug_str:000000000002290a .LASF3000
C:\Users\CYMR90~1\AppData\Local\Temp\ccioldvv.s:25205  .debug_str:0000000000010702 .LASF3001
C:\Users\CYMR90~1\AppData\Local\Temp\ccioldvv.s:29386  .debug_str:000000000002131b .LASF3002
C:\Users\CYMR90~1\AppData\Local\Temp\ccioldvv.s:21225  .debug_str:00000000000008f4 .LASF3003
C:\Users\CYMR90~1\AppData\Local\Temp\ccioldvv.s:29208  .debug_str:0000000000020896 .LASF3004
C:\Users\CYMR90~1\AppData\Local\Temp\ccioldvv.s:32230  .debug_str:000000000002c7a9 .LASF3005
C:\Users\CYMR90~1\AppData\Local\Temp\ccioldvv.s:30138  .debug_str:00000000000240dc .LASF3006
C:\Users\CYMR90~1\AppData\Local\Temp\ccioldvv.s:29514  .debug_str:0000000000021b9f .LASF3007
C:\Users\CYMR90~1\AppData\Local\Temp\ccioldvv.s:22373  .debug_str:00000000000051be .LASF3008
C:\Users\CYMR90~1\AppData\Local\Temp\ccioldvv.s:32364  .debug_str:000000000002d0a0 .LASF3009
C:\Users\CYMR90~1\AppData\Local\Temp\ccioldvv.s:24731  .debug_str:000000000000e9ef .LASF3010
C:\Users\CYMR90~1\AppData\Local\Temp\ccioldvv.s:28070  .debug_str:000000000001c127 .LASF3011
C:\Users\CYMR90~1\AppData\Local\Temp\ccioldvv.s:21415  .debug_str:00000000000014a0 .LASF3012
C:\Users\CYMR90~1\AppData\Local\Temp\ccioldvv.s:25335  .debug_str:0000000000010f3d .LASF3013
C:\Users\CYMR90~1\AppData\Local\Temp\ccioldvv.s:24457  .debug_str:000000000000d986 .LASF3014
C:\Users\CYMR90~1\AppData\Local\Temp\ccioldvv.s:21609  .debug_str:000000000000207a .LASF3015
C:\Users\CYMR90~1\AppData\Local\Temp\ccioldvv.s:28764  .debug_str:000000000001eddc .LASF3016
C:\Users\CYMR90~1\AppData\Local\Temp\ccioldvv.s:24113  .debug_str:000000000000c2fb .LASF3017
C:\Users\CYMR90~1\AppData\Local\Temp\ccioldvv.s:22891  .debug_str:0000000000007192 .LASF3018
C:\Users\CYMR90~1\AppData\Local\Temp\ccioldvv.s:27218  .debug_str:00000000000188e2 .LASF3019
C:\Users\CYMR90~1\AppData\Local\Temp\ccioldvv.s:25057  .debug_str:000000000000fdf7 .LASF3020
C:\Users\CYMR90~1\AppData\Local\Temp\ccioldvv.s:21841  .debug_str:0000000000002f1f .LASF3021
C:\Users\CYMR90~1\AppData\Local\Temp\ccioldvv.s:24175  .debug_str:000000000000c698 .LASF3022
C:\Users\CYMR90~1\AppData\Local\Temp\ccioldvv.s:24663  .debug_str:000000000000e573 .LASF3023
C:\Users\CYMR90~1\AppData\Local\Temp\ccioldvv.s:31982  .debug_str:000000000002b76d .LASF3024
C:\Users\CYMR90~1\AppData\Local\Temp\ccioldvv.s:22859  .debug_str:0000000000006f3c .LASF3025
C:\Users\CYMR90~1\AppData\Local\Temp\ccioldvv.s:29094  .debug_str:00000000000201a9 .LASF3026
C:\Users\CYMR90~1\AppData\Local\Temp\ccioldvv.s:25045  .debug_str:000000000000fd24 .LASF3027
C:\Users\CYMR90~1\AppData\Local\Temp\ccioldvv.s:26896  .debug_str:0000000000017526 .LASF3028
C:\Users\CYMR90~1\AppData\Local\Temp\ccioldvv.s:22331  .debug_str:0000000000004f61 .LASF3029
C:\Users\CYMR90~1\AppData\Local\Temp\ccioldvv.s:31910  .debug_str:000000000002b26f .LASF3030
C:\Users\CYMR90~1\AppData\Local\Temp\ccioldvv.s:24617  .debug_str:000000000000e2a9 .LASF3031
C:\Users\CYMR90~1\AppData\Local\Temp\ccioldvv.s:23721  .debug_str:000000000000a785 .LASF3032
C:\Users\CYMR90~1\AppData\Local\Temp\ccioldvv.s:30364  .debug_str:000000000002508d .LASF3033
C:\Users\CYMR90~1\AppData\Local\Temp\ccioldvv.s:24785  .debug_str:000000000000ed6a .LASF3034
C:\Users\CYMR90~1\AppData\Local\Temp\ccioldvv.s:24589  .debug_str:000000000000e127 .LASF3035
C:\Users\CYMR90~1\AppData\Local\Temp\ccioldvv.s:31118  .debug_str:00000000000281c4 .LASF3036
C:\Users\CYMR90~1\AppData\Local\Temp\ccioldvv.s:23245  .debug_str:000000000000899d .LASF3037
C:\Users\CYMR90~1\AppData\Local\Temp\ccioldvv.s:32054  .debug_str:000000000002bc2d .LASF3038
C:\Users\CYMR90~1\AppData\Local\Temp\ccioldvv.s:31212  .debug_str:0000000000028892 .LASF3039
C:\Users\CYMR90~1\AppData\Local\Temp\ccioldvv.s:21113  .debug_str:000000000000024e .LASF3040
C:\Users\CYMR90~1\AppData\Local\Temp\ccioldvv.s:22097  .debug_str:0000000000003fcd .LASF3041
C:\Users\CYMR90~1\AppData\Local\Temp\ccioldvv.s:28122  .debug_str:000000000001c465 .LASF3042
C:\Users\CYMR90~1\AppData\Local\Temp\ccioldvv.s:27928  .debug_str:000000000001b86a .LASF3043
C:\Users\CYMR90~1\AppData\Local\Temp\ccioldvv.s:30380  .debug_str:0000000000025166 .LASF3044
C:\Users\CYMR90~1\AppData\Local\Temp\ccioldvv.s:24463  .debug_str:000000000000d9e3 .LASF3045
C:\Users\CYMR90~1\AppData\Local\Temp\ccioldvv.s:27538  .debug_str:0000000000019eaa .LASF3046
C:\Users\CYMR90~1\AppData\Local\Temp\ccioldvv.s:21355  .debug_str:0000000000001151 .LASF3047
C:\Users\CYMR90~1\AppData\Local\Temp\ccioldvv.s:24829  .debug_str:000000000000efa1 .LASF3048
C:\Users\CYMR90~1\AppData\Local\Temp\ccioldvv.s:28126  .debug_str:000000000001c499 .LASF3049
C:\Users\CYMR90~1\AppData\Local\Temp\ccioldvv.s:31492  .debug_str:00000000000299f1 .LASF3050
C:\Users\CYMR90~1\AppData\Local\Temp\ccioldvv.s:21491  .debug_str:000000000000199e .LASF3051
C:\Users\CYMR90~1\AppData\Local\Temp\ccioldvv.s:23569  .debug_str:0000000000009df5 .LASF3052
C:\Users\CYMR90~1\AppData\Local\Temp\ccioldvv.s:30914  .debug_str:00000000000274b0 .LASF3053
C:\Users\CYMR90~1\AppData\Local\Temp\ccioldvv.s:23135  .debug_str:00000000000082b3 .LASF3054
C:\Users\CYMR90~1\AppData\Local\Temp\ccioldvv.s:24623  .debug_str:000000000000e322 .LASF3055
C:\Users\CYMR90~1\AppData\Local\Temp\ccioldvv.s:30140  .debug_str:0000000000024108 .LASF3056
C:\Users\CYMR90~1\AppData\Local\Temp\ccioldvv.s:27468  .debug_str:0000000000019a1e .LASF3057
C:\Users\CYMR90~1\AppData\Local\Temp\ccioldvv.s:23521  .debug_str:0000000000009b03 .LASF3058
C:\Users\CYMR90~1\AppData\Local\Temp\ccioldvv.s:28882  .debug_str:000000000001f508 .LASF3059
C:\Users\CYMR90~1\AppData\Local\Temp\ccioldvv.s:23109  .debug_str:0000000000008056 .LASF3060
C:\Users\CYMR90~1\AppData\Local\Temp\ccioldvv.s:31106  .debug_str:00000000000280c1 .LASF3061
C:\Users\CYMR90~1\AppData\Local\Temp\ccioldvv.s:30762  .debug_str:0000000000026af6 .LASF3062
C:\Users\CYMR90~1\AppData\Local\Temp\ccioldvv.s:25431  .debug_str:00000000000114c4 .LASF3063
C:\Users\CYMR90~1\AppData\Local\Temp\ccioldvv.s:30268  .debug_str:0000000000024a8c .LASF3064
C:\Users\CYMR90~1\AppData\Local\Temp\ccioldvv.s:29342  .debug_str:00000000000210b6 .LASF3065
C:\Users\CYMR90~1\AppData\Local\Temp\ccioldvv.s:25321  .debug_str:0000000000010e8b .LASF3066
C:\Users\CYMR90~1\AppData\Local\Temp\ccioldvv.s:30852  .debug_str:000000000002706b .LASF3067
C:\Users\CYMR90~1\AppData\Local\Temp\ccioldvv.s:30014  .debug_str:00000000000239d5 .LASF3068
C:\Users\CYMR90~1\AppData\Local\Temp\ccioldvv.s:26844  .debug_str:000000000001722d .LASF3069
C:\Users\CYMR90~1\AppData\Local\Temp\ccioldvv.s:26581  .debug_str:0000000000015f43 .LASF3070
C:\Users\CYMR90~1\AppData\Local\Temp\ccioldvv.s:28836  .debug_str:000000000001f24c .LASF3071
C:\Users\CYMR90~1\AppData\Local\Temp\ccioldvv.s:25279  .debug_str:0000000000010ba3 .LASF3072
C:\Users\CYMR90~1\AppData\Local\Temp\ccioldvv.s:25405  .debug_str:000000000001135d .LASF3073
C:\Users\CYMR90~1\AppData\Local\Temp\ccioldvv.s:24801  .debug_str:000000000000ee39 .LASF3074
C:\Users\CYMR90~1\AppData\Local\Temp\ccioldvv.s:24933  .debug_str:000000000000f606 .LASF3075
C:\Users\CYMR90~1\AppData\Local\Temp\ccioldvv.s:28566  .debug_str:000000000001e20a .LASF3076
C:\Users\CYMR90~1\AppData\Local\Temp\ccioldvv.s:31230  .debug_str:00000000000289d1 .LASF3077
C:\Users\CYMR90~1\AppData\Local\Temp\ccioldvv.s:26703  .debug_str:0000000000016700 .LASF3078
C:\Users\CYMR90~1\AppData\Local\Temp\ccioldvv.s:30134  .debug_str:00000000000240ad .LASF3079
C:\Users\CYMR90~1\AppData\Local\Temp\ccioldvv.s:21645  .debug_str:000000000000226d .LASF3080
C:\Users\CYMR90~1\AppData\Local\Temp\ccioldvv.s:22883  .debug_str:00000000000070ea .LASF3081
C:\Users\CYMR90~1\AppData\Local\Temp\ccioldvv.s:31282  .debug_str:0000000000028cd5 .LASF3082
C:\Users\CYMR90~1\AppData\Local\Temp\ccioldvv.s:23625  .debug_str:000000000000a1b8 .LASF3083
C:\Users\CYMR90~1\AppData\Local\Temp\ccioldvv.s:26093  .debug_str:00000000000140bf .LASF3084
C:\Users\CYMR90~1\AppData\Local\Temp\ccioldvv.s:24761  .debug_str:000000000000ebda .LASF3085
C:\Users\CYMR90~1\AppData\Local\Temp\ccioldvv.s:26431  .debug_str:00000000000155d3 .LASF3086
C:\Users\CYMR90~1\AppData\Local\Temp\ccioldvv.s:29284  .debug_str:0000000000020d71 .LASF3087
C:\Users\CYMR90~1\AppData\Local\Temp\ccioldvv.s:27190  .debug_str:000000000001870c .LASF3088
C:\Users\CYMR90~1\AppData\Local\Temp\ccioldvv.s:29140  .debug_str:000000000002040e .LASF3089
C:\Users\CYMR90~1\AppData\Local\Temp\ccioldvv.s:31378  .debug_str:00000000000292a1 .LASF3090
C:\Users\CYMR90~1\AppData\Local\Temp\ccioldvv.s:29786  .debug_str:0000000000022bf9 .LASF3091
C:\Users\CYMR90~1\AppData\Local\Temp\ccioldvv.s:24187  .debug_str:000000000000c747 .LASF3092
C:\Users\CYMR90~1\AppData\Local\Temp\ccioldvv.s:32180  .debug_str:000000000002c4cc .LASF3093
C:\Users\CYMR90~1\AppData\Local\Temp\ccioldvv.s:28930  .debug_str:000000000001f7a5 .LASF3094
C:\Users\CYMR90~1\AppData\Local\Temp\ccioldvv.s:30896  .debug_str:00000000000272e0 .LASF3095
C:\Users\CYMR90~1\AppData\Local\Temp\ccioldvv.s:30630  .debug_str:0000000000026328 .LASF3096
C:\Users\CYMR90~1\AppData\Local\Temp\ccioldvv.s:24087  .debug_str:000000000000c147 .LASF3097
C:\Users\CYMR90~1\AppData\Local\Temp\ccioldvv.s:26477  .debug_str:0000000000015855 .LASF3098
C:\Users\CYMR90~1\AppData\Local\Temp\ccioldvv.s:26383  .debug_str:0000000000015309 .LASF3099
C:\Users\CYMR90~1\AppData\Local\Temp\ccioldvv.s:27282  .debug_str:0000000000018d8a .LASF3100
C:\Users\CYMR90~1\AppData\Local\Temp\ccioldvv.s:28966  .debug_str:000000000001f9d4 .LASF3101
C:\Users\CYMR90~1\AppData\Local\Temp\ccioldvv.s:29480  .debug_str:0000000000021991 .LASF3102
C:\Users\CYMR90~1\AppData\Local\Temp\ccioldvv.s:32318  .debug_str:000000000002cd73 .LASF3103
C:\Users\CYMR90~1\AppData\Local\Temp\ccioldvv.s:24993  .debug_str:000000000000fa29 .LASF3104
C:\Users\CYMR90~1\AppData\Local\Temp\ccioldvv.s:21853  .debug_str:0000000000002fc8 .LASF3105
C:\Users\CYMR90~1\AppData\Local\Temp\ccioldvv.s:24845  .debug_str:000000000000f08c .LASF3106
C:\Users\CYMR90~1\AppData\Local\Temp\ccioldvv.s:29164  .debug_str:00000000000205cd .LASF3107
C:\Users\CYMR90~1\AppData\Local\Temp\ccioldvv.s:26455  .debug_str:000000000001571f .LASF3108
C:\Users\CYMR90~1\AppData\Local\Temp\ccioldvv.s:25475  .debug_str:00000000000117bf .LASF3109
C:\Users\CYMR90~1\AppData\Local\Temp\ccioldvv.s:28066  .debug_str:000000000001c0f0 .LASF3110
C:\Users\CYMR90~1\AppData\Local\Temp\ccioldvv.s:27098  .debug_str:000000000001816e .LASF3111
C:\Users\CYMR90~1\AppData\Local\Temp\ccioldvv.s:29000  .debug_str:000000000001fbf5 .LASF3112
C:\Users\CYMR90~1\AppData\Local\Temp\ccioldvv.s:25283  .debug_str:0000000000010be9 .LASF3113
C:\Users\CYMR90~1\AppData\Local\Temp\ccioldvv.s:31162  .debug_str:0000000000028510 .LASF3114
C:\Users\CYMR90~1\AppData\Local\Temp\ccioldvv.s:23343  .debug_str:0000000000008fc9 .LASF3115
C:\Users\CYMR90~1\AppData\Local\Temp\ccioldvv.s:22423  .debug_str:00000000000054d3 .LASF3116
C:\Users\CYMR90~1\AppData\Local\Temp\ccioldvv.s:21473  .debug_str:0000000000001895 .LASF3117
C:\Users\CYMR90~1\AppData\Local\Temp\ccioldvv.s:31874  .debug_str:000000000002b071 .LASF3118
C:\Users\CYMR90~1\AppData\Local\Temp\ccioldvv.s:29428  .debug_str:0000000000021660 .LASF3119
C:\Users\CYMR90~1\AppData\Local\Temp\ccioldvv.s:28458  .debug_str:000000000001db27 .LASF3120
C:\Users\CYMR90~1\AppData\Local\Temp\ccioldvv.s:27622  .debug_str:000000000001a36b .LASF3121
C:\Users\CYMR90~1\AppData\Local\Temp\ccioldvv.s:26621  .debug_str:00000000000161d8 .LASF3122
C:\Users\CYMR90~1\AppData\Local\Temp\ccioldvv.s:25699  .debug_str:0000000000012721 .LASF3123
C:\Users\CYMR90~1\AppData\Local\Temp\ccioldvv.s:24723  .debug_str:000000000000e97e .LASF3124
C:\Users\CYMR90~1\AppData\Local\Temp\ccioldvv.s:24861  .debug_str:000000000000f16c .LASF3125
C:\Users\CYMR90~1\AppData\Local\Temp\ccioldvv.s:30844  .debug_str:0000000000026fef .LASF3126
C:\Users\CYMR90~1\AppData\Local\Temp\ccioldvv.s:30626  .debug_str:00000000000262d2 .LASF3127
C:\Users\CYMR90~1\AppData\Local\Temp\ccioldvv.s:25179  .debug_str:000000000001056b .LASF3128
C:\Users\CYMR90~1\AppData\Local\Temp\ccioldvv.s:24045  .debug_str:000000000000be18 .LASF3129
C:\Users\CYMR90~1\AppData\Local\Temp\ccioldvv.s:22937  .debug_str:00000000000074b9 .LASF3130
C:\Users\CYMR90~1\AppData\Local\Temp\ccioldvv.s:28296  .debug_str:000000000001d04f .LASF3131
C:\Users\CYMR90~1\AppData\Local\Temp\ccioldvv.s:29908  .debug_str:00000000000232f8 .LASF3132
C:\Users\CYMR90~1\AppData\Local\Temp\ccioldvv.s:24223  .debug_str:000000000000c9f3 .LASF3133
C:\Users\CYMR90~1\AppData\Local\Temp\ccioldvv.s:22495  .debug_str:0000000000005929 .LASF3134
C:\Users\CYMR90~1\AppData\Local\Temp\ccioldvv.s:22275  .debug_str:0000000000004bf9 .LASF3135
C:\Users\CYMR90~1\AppData\Local\Temp\ccioldvv.s:28210  .debug_str:000000000001ca44 .LASF3136
C:\Users\CYMR90~1\AppData\Local\Temp\ccioldvv.s:26719  .debug_str:00000000000167f6 .LASF3137
C:\Users\CYMR90~1\AppData\Local\Temp\ccioldvv.s:21785  .debug_str:0000000000002b9b .LASF3138
C:\Users\CYMR90~1\AppData\Local\Temp\ccioldvv.s:32254  .debug_str:000000000002c976 .LASF3139
C:\Users\CYMR90~1\AppData\Local\Temp\ccioldvv.s:31202  .debug_str:00000000000287c4 .LASF3140
C:\Users\CYMR90~1\AppData\Local\Temp\ccioldvv.s:22245  .debug_str:0000000000004a0e .LASF3141
C:\Users\CYMR90~1\AppData\Local\Temp\ccioldvv.s:28046  .debug_str:000000000001bfa5 .LASF3142
C:\Users\CYMR90~1\AppData\Local\Temp\ccioldvv.s:25287  .debug_str:0000000000010c2e .LASF3143
C:\Users\CYMR90~1\AppData\Local\Temp\ccioldvv.s:28346  .debug_str:000000000001d3f6 .LASF3144
C:\Users\CYMR90~1\AppData\Local\Temp\ccioldvv.s:21165  .debug_str:000000000000056d .LASF3145
C:\Users\CYMR90~1\AppData\Local\Temp\ccioldvv.s:25871  .debug_str:00000000000132a8 .LASF3146
C:\Users\CYMR90~1\AppData\Local\Temp\ccioldvv.s:30574  .debug_str:0000000000025f71 .LASF3147
C:\Users\CYMR90~1\AppData\Local\Temp\ccioldvv.s:25781  .debug_str:0000000000012cbd .LASF3148
C:\Users\CYMR90~1\AppData\Local\Temp\ccioldvv.s:22647  .debug_str:00000000000061e6 .LASF3149
C:\Users\CYMR90~1\AppData\Local\Temp\ccioldvv.s:27062  .debug_str:0000000000017f7a .LASF3150
C:\Users\CYMR90~1\AppData\Local\Temp\ccioldvv.s:25537  .debug_str:0000000000011ccd .LASF3151
C:\Users\CYMR90~1\AppData\Local\Temp\ccioldvv.s:24085  .debug_str:000000000000c12b .LASF3152
C:\Users\CYMR90~1\AppData\Local\Temp\ccioldvv.s:27914  .debug_str:000000000001b77b .LASF3153
C:\Users\CYMR90~1\AppData\Local\Temp\ccioldvv.s:24431  .debug_str:000000000000d822 .LASF3154
C:\Users\CYMR90~1\AppData\Local\Temp\ccioldvv.s:23411  .debug_str:00000000000093bd .LASF3155
C:\Users\CYMR90~1\AppData\Local\Temp\ccioldvv.s:30278  .debug_str:0000000000024b0f .LASF3156
C:\Users\CYMR90~1\AppData\Local\Temp\ccioldvv.s:25581  .debug_str:0000000000011f75 .LASF3157
C:\Users\CYMR90~1\AppData\Local\Temp\ccioldvv.s:29876  .debug_str:0000000000023165 .LASF3158
C:\Users\CYMR90~1\AppData\Local\Temp\ccioldvv.s:23747  .debug_str:000000000000aa1d .LASF3159
C:\Users\CYMR90~1\AppData\Local\Temp\ccioldvv.s:27482  .debug_str:0000000000019b2b .LASF3160
C:\Users\CYMR90~1\AppData\Local\Temp\ccioldvv.s:30806  .debug_str:0000000000026d74 .LASF3161
C:\Users\CYMR90~1\AppData\Local\Temp\ccioldvv.s:24461  .debug_str:000000000000d9be .LASF3162
C:\Users\CYMR90~1\AppData\Local\Temp\ccioldvv.s:22539  .debug_str:0000000000005bf2 .LASF3163
C:\Users\CYMR90~1\AppData\Local\Temp\ccioldvv.s:24069  .debug_str:000000000000bfff .LASF3164
C:\Users\CYMR90~1\AppData\Local\Temp\ccioldvv.s:22843  .debug_str:0000000000006e3b .LASF3165
C:\Users\CYMR90~1\AppData\Local\Temp\ccioldvv.s:24749  .debug_str:000000000000eb43 .LASF3166
C:\Users\CYMR90~1\AppData\Local\Temp\ccioldvv.s:21313  .debug_str:0000000000000f00 .LASF3167
C:\Users\CYMR90~1\AppData\Local\Temp\ccioldvv.s:32006  .debug_str:000000000002b8e9 .LASF3168
C:\Users\CYMR90~1\AppData\Local\Temp\ccioldvv.s:31600  .debug_str:000000000002a01d .LASF3169
C:\Users\CYMR90~1\AppData\Local\Temp\ccioldvv.s:26934  .debug_str:0000000000017757 .LASF3170
C:\Users\CYMR90~1\AppData\Local\Temp\ccioldvv.s:30132  .debug_str:0000000000024095 .LASF3171
C:\Users\CYMR90~1\AppData\Local\Temp\ccioldvv.s:28584  .debug_str:000000000001e32c .LASF3172
C:\Users\CYMR90~1\AppData\Local\Temp\ccioldvv.s:28972  .debug_str:000000000001fa1e .LASF3173
C:\Users\CYMR90~1\AppData\Local\Temp\ccioldvv.s:30956  .debug_str:0000000000027735 .LASF3174
C:\Users\CYMR90~1\AppData\Local\Temp\ccioldvv.s:26171  .debug_str:0000000000014599 .LASF3175
C:\Users\CYMR90~1\AppData\Local\Temp\ccioldvv.s:26725  .debug_str:0000000000016851 .LASF3176
C:\Users\CYMR90~1\AppData\Local\Temp\ccioldvv.s:21573  .debug_str:0000000000001e9c .LASF3177
C:\Users\CYMR90~1\AppData\Local\Temp\ccioldvv.s:28958  .debug_str:000000000001f936 .LASF3178
C:\Users\CYMR90~1\AppData\Local\Temp\ccioldvv.s:28908  .debug_str:000000000001f669 .LASF3179
C:\Users\CYMR90~1\AppData\Local\Temp\ccioldvv.s:28018  .debug_str:000000000001bdc0 .LASF3180
C:\Users\CYMR90~1\AppData\Local\Temp\ccioldvv.s:21747  .debug_str:0000000000002904 .LASF3181
C:\Users\CYMR90~1\AppData\Local\Temp\ccioldvv.s:30444  .debug_str:00000000000256aa .LASF3182
C:\Users\CYMR90~1\AppData\Local\Temp\ccioldvv.s:24351  .debug_str:000000000000d216 .LASF3183
C:\Users\CYMR90~1\AppData\Local\Temp\ccioldvv.s:22095  .debug_str:0000000000003fa7 .LASF3184
C:\Users\CYMR90~1\AppData\Local\Temp\ccioldvv.s:21837  .debug_str:0000000000002ed4 .LASF3185
C:\Users\CYMR90~1\AppData\Local\Temp\ccioldvv.s:23241  .debug_str:0000000000008963 .LASF3186
C:\Users\CYMR90~1\AppData\Local\Temp\ccioldvv.s:28572  .debug_str:000000000001e255 .LASF3187
C:\Users\CYMR90~1\AppData\Local\Temp\ccioldvv.s:29708  .debug_str:0000000000022737 .LASF3188
C:\Users\CYMR90~1\AppData\Local\Temp\ccioldvv.s:23617  .debug_str:000000000000a145 .LASF3189
C:\Users\CYMR90~1\AppData\Local\Temp\ccioldvv.s:24547  .debug_str:000000000000de71 .LASF3190
C:\Users\CYMR90~1\AppData\Local\Temp\ccioldvv.s:26517  .debug_str:0000000000015ace .LASF3191
C:\Users\CYMR90~1\AppData\Local\Temp\ccioldvv.s:22659  .debug_str:0000000000006291 .LASF3192
C:\Users\CYMR90~1\AppData\Local\Temp\ccioldvv.s:30058  .debug_str:0000000000023c67 .LASF3193
C:\Users\CYMR90~1\AppData\Local\Temp\ccioldvv.s:27442  .debug_str:00000000000197e8 .LASF3194
C:\Users\CYMR90~1\AppData\Local\Temp\ccioldvv.s:24077  .debug_str:000000000000c083 .LASF3195
C:\Users\CYMR90~1\AppData\Local\Temp\ccioldvv.s:29168  .debug_str:000000000002060f .LASF3196
C:\Users\CYMR90~1\AppData\Local\Temp\ccioldvv.s:26998  .debug_str:0000000000017bab .LASF3197
C:\Users\CYMR90~1\AppData\Local\Temp\ccioldvv.s:31196  .debug_str:0000000000028752 .LASF3198
C:\Users\CYMR90~1\AppData\Local\Temp\ccioldvv.s:28678  .debug_str:000000000001e8e8 .LASF3199
C:\Users\CYMR90~1\AppData\Local\Temp\ccioldvv.s:27996  .debug_str:000000000001bc20 .LASF3200
C:\Users\CYMR90~1\AppData\Local\Temp\ccioldvv.s:31076  .debug_str:0000000000027ec8 .LASF3201
C:\Users\CYMR90~1\AppData\Local\Temp\ccioldvv.s:21601  .debug_str:000000000000201d .LASF3202
C:\Users\CYMR90~1\AppData\Local\Temp\ccioldvv.s:24775  .debug_str:000000000000ecd1 .LASF3203
C:\Users\CYMR90~1\AppData\Local\Temp\ccioldvv.s:24817  .debug_str:000000000000eefa .LASF3204
C:\Users\CYMR90~1\AppData\Local\Temp\ccioldvv.s:30714  .debug_str:000000000002680d .LASF3205
C:\Users\CYMR90~1\AppData\Local\Temp\ccioldvv.s:31082  .debug_str:0000000000027f28 .LASF3206
C:\Users\CYMR90~1\AppData\Local\Temp\ccioldvv.s:28656  .debug_str:000000000001e77f .LASF3207
C:\Users\CYMR90~1\AppData\Local\Temp\ccioldvv.s:24135  .debug_str:000000000000c452 .LASF3208
C:\Users\CYMR90~1\AppData\Local\Temp\ccioldvv.s:23701  .debug_str:000000000000a662 .LASF3209
C:\Users\CYMR90~1\AppData\Local\Temp\ccioldvv.s:26659  .debug_str:000000000001640c .LASF3210
C:\Users\CYMR90~1\AppData\Local\Temp\ccioldvv.s:27616  .debug_str:000000000001a313 .LASF3211
C:\Users\CYMR90~1\AppData\Local\Temp\ccioldvv.s:25707  .debug_str:00000000000127ae .LASF3212
C:\Users\CYMR90~1\AppData\Local\Temp\ccioldvv.s:25095  .debug_str:000000000001006a .LASF3213
C:\Users\CYMR90~1\AppData\Local\Temp\ccioldvv.s:32262  .debug_str:000000000002ca07 .LASF3214
C:\Users\CYMR90~1\AppData\Local\Temp\ccioldvv.s:26982  .debug_str:0000000000017ab1 .LASF3215
C:\Users\CYMR90~1\AppData\Local\Temp\ccioldvv.s:29624  .debug_str:0000000000022248 .LASF3216
C:\Users\CYMR90~1\AppData\Local\Temp\ccioldvv.s:29684  .debug_str:000000000002259b .LASF3217
C:\Users\CYMR90~1\AppData\Local\Temp\ccioldvv.s:29910  .debug_str:0000000000023325 .LASF3218
C:\Users\CYMR90~1\AppData\Local\Temp\ccioldvv.s:26077  .debug_str:0000000000013fc8 .LASF3219
C:\Users\CYMR90~1\AppData\Local\Temp\ccioldvv.s:28802  .debug_str:000000000001effa .LASF3220
C:\Users\CYMR90~1\AppData\Local\Temp\ccioldvv.s:24847  .debug_str:000000000000f0ae .LASF3221
C:\Users\CYMR90~1\AppData\Local\Temp\ccioldvv.s:31654  .debug_str:000000000002a32f .LASF3222
C:\Users\CYMR90~1\AppData\Local\Temp\ccioldvv.s:28422  .debug_str:000000000001d8de .LASF3223
C:\Users\CYMR90~1\AppData\Local\Temp\ccioldvv.s:31258  .debug_str:0000000000028b7f .LASF3224
C:\Users\CYMR90~1\AppData\Local\Temp\ccioldvv.s:26361  .debug_str:00000000000151b8 .LASF3225
C:\Users\CYMR90~1\AppData\Local\Temp\ccioldvv.s:25501  .debug_str:0000000000011a20 .LASF3226
C:\Users\CYMR90~1\AppData\Local\Temp\ccioldvv.s:23391  .debug_str:00000000000092a1 .LASF3227
C:\Users\CYMR90~1\AppData\Local\Temp\ccioldvv.s:22975  .debug_str:0000000000007704 .LASF3228
C:\Users\CYMR90~1\AppData\Local\Temp\ccioldvv.s:32376  .debug_str:000000000002d16d .LASF3229
C:\Users\CYMR90~1\AppData\Local\Temp\ccioldvv.s:22145  .debug_str:00000000000042fd .LASF3230
C:\Users\CYMR90~1\AppData\Local\Temp\ccioldvv.s:31916  .debug_str:000000000002b2c9 .LASF3231
C:\Users\CYMR90~1\AppData\Local\Temp\ccioldvv.s:24469  .debug_str:000000000000da23 .LASF3232
C:\Users\CYMR90~1\AppData\Local\Temp\ccioldvv.s:27148  .debug_str:0000000000018493 .LASF3233
C:\Users\CYMR90~1\AppData\Local\Temp\ccioldvv.s:26599  .debug_str:000000000001607d .LASF3234
C:\Users\CYMR90~1\AppData\Local\Temp\ccioldvv.s:29922  .debug_str:00000000000233bc .LASF3235
C:\Users\CYMR90~1\AppData\Local\Temp\ccioldvv.s:21365  .debug_str:00000000000011c7 .LASF3236
C:\Users\CYMR90~1\AppData\Local\Temp\ccioldvv.s:27804  .debug_str:000000000001b0b8 .LASF3237
C:\Users\CYMR90~1\AppData\Local\Temp\ccioldvv.s:29780  .debug_str:0000000000022b92 .LASF3238
C:\Users\CYMR90~1\AppData\Local\Temp\ccioldvv.s:22553  .debug_str:0000000000005cac .LASF3239
C:\Users\CYMR90~1\AppData\Local\Temp\ccioldvv.s:30108  .debug_str:0000000000023f50 .LASF3240
C:\Users\CYMR90~1\AppData\Local\Temp\ccioldvv.s:30524  .debug_str:0000000000025ca5 .LASF3241
C:\Users\CYMR90~1\AppData\Local\Temp\ccioldvv.s:29240  .debug_str:0000000000020ab3 .LASF3242
C:\Users\CYMR90~1\AppData\Local\Temp\ccioldvv.s:26501  .debug_str:00000000000159ed .LASF3243
C:\Users\CYMR90~1\AppData\Local\Temp\ccioldvv.s:26249  .debug_str:0000000000014a3f .LASF3244
C:\Users\CYMR90~1\AppData\Local\Temp\ccioldvv.s:26972  .debug_str:00000000000179f8 .LASF3245
C:\Users\CYMR90~1\AppData\Local\Temp\ccioldvv.s:29134  .debug_str:00000000000203af .LASF3246
C:\Users\CYMR90~1\AppData\Local\Temp\ccioldvv.s:22941  .debug_str:00000000000074fb .LASF3247
C:\Users\CYMR90~1\AppData\Local\Temp\ccioldvv.s:21129  .debug_str:0000000000000374 .LASF3248
C:\Users\CYMR90~1\AppData\Local\Temp\ccioldvv.s:31278  .debug_str:0000000000028cac .LASF3249
C:\Users\CYMR90~1\AppData\Local\Temp\ccioldvv.s:21263  .debug_str:0000000000000bb9 .LASF3250
C:\Users\CYMR90~1\AppData\Local\Temp\ccioldvv.s:29604  .debug_str:0000000000022126 .LASF3251
C:\Users\CYMR90~1\AppData\Local\Temp\ccioldvv.s:26399  .debug_str:000000000001540d .LASF3252
C:\Users\CYMR90~1\AppData\Local\Temp\ccioldvv.s:26059  .debug_str:0000000000013eb0 .LASF3253
C:\Users\CYMR90~1\AppData\Local\Temp\ccioldvv.s:24343  .debug_str:000000000000d18f .LASF3254
C:\Users\CYMR90~1\AppData\Local\Temp\ccioldvv.s:29912  .debug_str:000000000002334b .LASF3255
C:\Users\CYMR90~1\AppData\Local\Temp\ccioldvv.s:27884  .debug_str:000000000001b5cd .LASF3256
C:\Users\CYMR90~1\AppData\Local\Temp\ccioldvv.s:26657  .debug_str:00000000000163ef .LASF3257
C:\Users\CYMR90~1\AppData\Local\Temp\ccioldvv.s:30366  .debug_str:00000000000250a4 .LASF3258
C:\Users\CYMR90~1\AppData\Local\Temp\ccioldvv.s:24985  .debug_str:000000000000f9bf .LASF3259
C:\Users\CYMR90~1\AppData\Local\Temp\ccioldvv.s:29826  .debug_str:0000000000022e9c .LASF3260
C:\Users\CYMR90~1\AppData\Local\Temp\ccioldvv.s:25893  .debug_str:0000000000013433 .LASF3261
C:\Users\CYMR90~1\AppData\Local\Temp\ccioldvv.s:28372  .debug_str:000000000001d584 .LASF3262
C:\Users\CYMR90~1\AppData\Local\Temp\ccioldvv.s:31042  .debug_str:0000000000027c72 .LASF3263
C:\Users\CYMR90~1\AppData\Local\Temp\ccioldvv.s:32302  .debug_str:000000000002cca5 .LASF3264
C:\Users\CYMR90~1\AppData\Local\Temp\ccioldvv.s:31442  .debug_str:00000000000296fc .LASF3265
C:\Users\CYMR90~1\AppData\Local\Temp\ccioldvv.s:22073  .debug_str:0000000000003e07 .LASF3266
C:\Users\CYMR90~1\AppData\Local\Temp\ccioldvv.s:31988  .debug_str:000000000002b7ad .LASF3267
C:\Users\CYMR90~1\AppData\Local\Temp\ccioldvv.s:23853  .debug_str:000000000000b166 .LASF3268
C:\Users\CYMR90~1\AppData\Local\Temp\ccioldvv.s:26053  .debug_str:0000000000013e62 .LASF3269
C:\Users\CYMR90~1\AppData\Local\Temp\ccioldvv.s:22341  .debug_str:0000000000004fe9 .LASF3270
C:\Users\CYMR90~1\AppData\Local\Temp\ccioldvv.s:30864  .debug_str:000000000002710d .LASF3271
C:\Users\CYMR90~1\AppData\Local\Temp\ccioldvv.s:22535  .debug_str:0000000000005ba9 .LASF3272
C:\Users\CYMR90~1\AppData\Local\Temp\ccioldvv.s:23953  .debug_str:000000000000b7d2 .LASF3273
C:\Users\CYMR90~1\AppData\Local\Temp\ccioldvv.s:22471  .debug_str:00000000000057a9 .LASF3274
C:\Users\CYMR90~1\AppData\Local\Temp\ccioldvv.s:25609  .debug_str:000000000001216d .LASF3275
C:\Users\CYMR90~1\AppData\Local\Temp\ccioldvv.s:31032  .debug_str:0000000000027bd5 .LASF3276
C:\Users\CYMR90~1\AppData\Local\Temp\ccioldvv.s:27404  .debug_str:000000000001959a .LASF3277
C:\Users\CYMR90~1\AppData\Local\Temp\ccioldvv.s:26199  .debug_str:0000000000014739 .LASF3278
C:\Users\CYMR90~1\AppData\Local\Temp\ccioldvv.s:32334  .debug_str:000000000002cefd .LASF3279
C:\Users\CYMR90~1\AppData\Local\Temp\ccioldvv.s:28880  .debug_str:000000000001f4e1 .LASF3280
C:\Users\CYMR90~1\AppData\Local\Temp\ccioldvv.s:25539  .debug_str:0000000000011ce7 .LASF3281
C:\Users\CYMR90~1\AppData\Local\Temp\ccioldvv.s:22949  .debug_str:000000000000755e .LASF3282
C:\Users\CYMR90~1\AppData\Local\Temp\ccioldvv.s:29968  .debug_str:000000000002369f .LASF3283
C:\Users\CYMR90~1\AppData\Local\Temp\ccioldvv.s:26553  .debug_str:0000000000015d34 .LASF3284
C:\Users\CYMR90~1\AppData\Local\Temp\ccioldvv.s:23177  .debug_str:0000000000008551 .LASF3285
C:\Users\CYMR90~1\AppData\Local\Temp\ccioldvv.s:27094  .debug_str:0000000000018125 .LASF3286
C:\Users\CYMR90~1\AppData\Local\Temp\ccioldvv.s:32046  .debug_str:000000000002bba0 .LASF3287
C:\Users\CYMR90~1\AppData\Local\Temp\ccioldvv.s:30592  .debug_str:000000000002606d .LASF3288
C:\Users\CYMR90~1\AppData\Local\Temp\ccioldvv.s:21467  .debug_str:0000000000001829 .LASF3289
C:\Users\CYMR90~1\AppData\Local\Temp\ccioldvv.s:22511  .debug_str:00000000000059f8 .LASF3290
C:\Users\CYMR90~1\AppData\Local\Temp\ccioldvv.s:28664  .debug_str:000000000001e7cb .LASF3291
C:\Users\CYMR90~1\AppData\Local\Temp\ccioldvv.s:28888  .debug_str:000000000001f53f .LASF3292
C:\Users\CYMR90~1\AppData\Local\Temp\ccioldvv.s:30018  .debug_str:0000000000023a1c .LASF3293
C:\Users\CYMR90~1\AppData\Local\Temp\ccioldvv.s:21463  .debug_str:00000000000017e2 .LASF3294
C:\Users\CYMR90~1\AppData\Local\Temp\ccioldvv.s:27204  .debug_str:00000000000187f0 .LASF3295
C:\Users\CYMR90~1\AppData\Local\Temp\ccioldvv.s:32284  .debug_str:000000000002cb88 .LASF3296
C:\Users\CYMR90~1\AppData\Local\Temp\ccioldvv.s:23923  .debug_str:000000000000b558 .LASF3297
C:\Users\CYMR90~1\AppData\Local\Temp\ccioldvv.s:27076  .debug_str:0000000000018040 .LASF3298
C:\Users\CYMR90~1\AppData\Local\Temp\ccioldvv.s:21397  .debug_str:00000000000013a1 .LASF3299
C:\Users\CYMR90~1\AppData\Local\Temp\ccioldvv.s:28148  .debug_str:000000000001c5b9 .LASF3300
C:\Users\CYMR90~1\AppData\Local\Temp\ccioldvv.s:24143  .debug_str:000000000000c4c8 .LASF3301
C:\Users\CYMR90~1\AppData\Local\Temp\ccioldvv.s:24403  .debug_str:000000000000d614 .LASF3302
C:\Users\CYMR90~1\AppData\Local\Temp\ccioldvv.s:32042  .debug_str:000000000002bb55 .LASF3303
C:\Users\CYMR90~1\AppData\Local\Temp\ccioldvv.s:29084  .debug_str:0000000000020101 .LASF3304
C:\Users\CYMR90~1\AppData\Local\Temp\ccioldvv.s:24877  .debug_str:000000000000f299 .LASF3305
C:\Users\CYMR90~1\AppData\Local\Temp\ccioldvv.s:30522  .debug_str:0000000000025c7d .LASF3306
C:\Users\CYMR90~1\AppData\Local\Temp\ccioldvv.s:29460  .debug_str:000000000002185c .LASF3307
C:\Users\CYMR90~1\AppData\Local\Temp\ccioldvv.s:25135  .debug_str:00000000000102dd .LASF3308
C:\Users\CYMR90~1\AppData\Local\Temp\ccioldvv.s:29082  .debug_str:00000000000200da .LASF3309
C:\Users\CYMR90~1\AppData\Local\Temp\ccioldvv.s:30488  .debug_str:0000000000025a31 .LASF3310
C:\Users\CYMR90~1\AppData\Local\Temp\ccioldvv.s:31926  .debug_str:000000000002b3a1 .LASF3311
C:\Users\CYMR90~1\AppData\Local\Temp\ccioldvv.s:25273  .debug_str:0000000000010b02 .LASF3312
C:\Users\CYMR90~1\AppData\Local\Temp\ccioldvv.s:29114  .debug_str:000000000002029b .LASF3313
C:\Users\CYMR90~1\AppData\Local\Temp\ccioldvv.s:30650  .debug_str:0000000000026432 .LASF3314
C:\Users\CYMR90~1\AppData\Local\Temp\ccioldvv.s:32336  .debug_str:000000000002cf24 .LASF3315
C:\Users\CYMR90~1\AppData\Local\Temp\ccioldvv.s:23565  .debug_str:0000000000009db4 .LASF3316
C:\Users\CYMR90~1\AppData\Local\Temp\ccioldvv.s:27444  .debug_str:000000000001980b .LASF3317
C:\Users\CYMR90~1\AppData\Local\Temp\ccioldvv.s:24853  .debug_str:000000000000f0f4 .LASF3318
C:\Users\CYMR90~1\AppData\Local\Temp\ccioldvv.s:28800  .debug_str:000000000001efdc .LASF3319
C:\Users\CYMR90~1\AppData\Local\Temp\ccioldvv.s:27258  .debug_str:0000000000018b39 .LASF3320
C:\Users\CYMR90~1\AppData\Local\Temp\ccioldvv.s:31854  .debug_str:000000000002af40 .LASF3321
C:\Users\CYMR90~1\AppData\Local\Temp\ccioldvv.s:28032  .debug_str:000000000001bea9 .LASF3322
C:\Users\CYMR90~1\AppData\Local\Temp\ccioldvv.s:22059  .debug_str:0000000000003d34 .LASF3323
C:\Users\CYMR90~1\AppData\Local\Temp\ccioldvv.s:23835  .debug_str:000000000000afb4 .LASF3324
C:\Users\CYMR90~1\AppData\Local\Temp\ccioldvv.s:24873  .debug_str:000000000000f24b .LASF3325
C:\Users\CYMR90~1\AppData\Local\Temp\ccioldvv.s:29538  .debug_str:0000000000021d2c .LASF3326
C:\Users\CYMR90~1\AppData\Local\Temp\ccioldvv.s:26769  .debug_str:0000000000016c0f .LASF3327
C:\Users\CYMR90~1\AppData\Local\Temp\ccioldvv.s:28562  .debug_str:000000000001e1b6 .LASF3328
C:\Users\CYMR90~1\AppData\Local\Temp\ccioldvv.s:28456  .debug_str:000000000001db00 .LASF3329
C:\Users\CYMR90~1\AppData\Local\Temp\ccioldvv.s:29558  .debug_str:0000000000021e78 .LASF3330
C:\Users\CYMR90~1\AppData\Local\Temp\ccioldvv.s:23801  .debug_str:000000000000ad70 .LASF3331
C:\Users\CYMR90~1\AppData\Local\Temp\ccioldvv.s:26173  .debug_str:00000000000145b3 .LASF3332
C:\Users\CYMR90~1\AppData\Local\Temp\ccioldvv.s:22605  .debug_str:0000000000005f78 .LASF3333
C:\Users\CYMR90~1\AppData\Local\Temp\ccioldvv.s:29296  .debug_str:0000000000020e2f .LASF3334
C:\Users\CYMR90~1\AppData\Local\Temp\ccioldvv.s:25787  .debug_str:0000000000012d01 .LASF3335
C:\Users\CYMR90~1\AppData\Local\Temp\ccioldvv.s:27862  .debug_str:000000000001b45d .LASF3336
C:\Users\CYMR90~1\AppData\Local\Temp\ccioldvv.s:27732  .debug_str:000000000001ac02 .LASF3337
C:\Users\CYMR90~1\AppData\Local\Temp\ccioldvv.s:22359  .debug_str:00000000000050fe .LASF3338
C:\Users\CYMR90~1\AppData\Local\Temp\ccioldvv.s:29158  .debug_str:000000000002055c .LASF3339
C:\Users\CYMR90~1\AppData\Local\Temp\ccioldvv.s:25859  .debug_str:00000000000131cd .LASF3340
C:\Users\CYMR90~1\AppData\Local\Temp\ccioldvv.s:23677  .debug_str:000000000000a51d .LASF3341
C:\Users\CYMR90~1\AppData\Local\Temp\ccioldvv.s:28192  .debug_str:000000000001c862 .LASF3342
C:\Users\CYMR90~1\AppData\Local\Temp\ccioldvv.s:22877  .debug_str:0000000000007075 .LASF3343
C:\Users\CYMR90~1\AppData\Local\Temp\ccioldvv.s:30842  .debug_str:0000000000026fcd .LASF3344
C:\Users\CYMR90~1\AppData\Local\Temp\ccioldvv.s:22273  .debug_str:0000000000004bd5 .LASF3345
C:\Users\CYMR90~1\AppData\Local\Temp\ccioldvv.s:22603  .debug_str:0000000000005f67 .LASF3346
C:\Users\CYMR90~1\AppData\Local\Temp\ccioldvv.s:21585  .debug_str:0000000000001f45 .LASF3347
C:\Users\CYMR90~1\AppData\Local\Temp\ccioldvv.s:27152  .debug_str:00000000000184ca .LASF3348
C:\Users\CYMR90~1\AppData\Local\Temp\ccioldvv.s:26876  .debug_str:00000000000173fb .LASF3349
C:\Users\CYMR90~1\AppData\Local\Temp\ccioldvv.s:27912  .debug_str:000000000001b759 .LASF3350
C:\Users\CYMR90~1\AppData\Local\Temp\ccioldvv.s:24559  .debug_str:000000000000df80 .LASF3351
C:\Users\CYMR90~1\AppData\Local\Temp\ccioldvv.s:29290  .debug_str:0000000000020dbb .LASF3352
C:\Users\CYMR90~1\AppData\Local\Temp\ccioldvv.s:30170  .debug_str:00000000000243ab .LASF3353
C:\Users\CYMR90~1\AppData\Local\Temp\ccioldvv.s:31044  .debug_str:0000000000027c89 .LASF3354
C:\Users\CYMR90~1\AppData\Local\Temp\ccioldvv.s:29412  .debug_str:000000000002155d .LASF3355
C:\Users\CYMR90~1\AppData\Local\Temp\ccioldvv.s:30674  .debug_str:0000000000026590 .LASF3356
C:\Users\CYMR90~1\AppData\Local\Temp\ccioldvv.s:22897  .debug_str:00000000000071f7 .LASF3357
C:\Users\CYMR90~1\AppData\Local\Temp\ccioldvv.s:27920  .debug_str:000000000001b7e6 .LASF3358
C:\Users\CYMR90~1\AppData\Local\Temp\ccioldvv.s:23593  .debug_str:0000000000009f7c .LASF3359
C:\Users\CYMR90~1\AppData\Local\Temp\ccioldvv.s:30436  .debug_str:00000000000255f4 .LASF3360
C:\Users\CYMR90~1\AppData\Local\Temp\ccioldvv.s:24147  .debug_str:000000000000c500 .LASF3361
C:\Users\CYMR90~1\AppData\Local\Temp\ccioldvv.s:26631  .debug_str:0000000000016262 .LASF3362
C:\Users\CYMR90~1\AppData\Local\Temp\ccioldvv.s:30880  .debug_str:00000000000271cb .LASF3363
C:\Users\CYMR90~1\AppData\Local\Temp\ccioldvv.s:23789  .debug_str:000000000000aca0 .LASF3364
C:\Users\CYMR90~1\AppData\Local\Temp\ccioldvv.s:24633  .debug_str:000000000000e3b8 .LASF3365
C:\Users\CYMR90~1\AppData\Local\Temp\ccioldvv.s:22277  .debug_str:0000000000004c24 .LASF3366
C:\Users\CYMR90~1\AppData\Local\Temp\ccioldvv.s:21257  .debug_str:0000000000000b3f .LASF3367
C:\Users\CYMR90~1\AppData\Local\Temp\ccioldvv.s:29568  .debug_str:0000000000021f0e .LASF3368
C:\Users\CYMR90~1\AppData\Local\Temp\ccioldvv.s:23807  .debug_str:000000000000adc5 .LASF3369
C:\Users\CYMR90~1\AppData\Local\Temp\ccioldvv.s:21971  .debug_str:000000000000378a .LASF3370
C:\Users\CYMR90~1\AppData\Local\Temp\ccioldvv.s:21427  .debug_str:0000000000001521 .LASF3371
C:\Users\CYMR90~1\AppData\Local\Temp\ccioldvv.s:27170  .debug_str:000000000001860e .LASF3372
C:\Users\CYMR90~1\AppData\Local\Temp\ccioldvv.s:26653  .debug_str:00000000000163af .LASF3373
C:\Users\CYMR90~1\AppData\Local\Temp\ccioldvv.s:25849  .debug_str:0000000000013121 .LASF3374
C:\Users\CYMR90~1\AppData\Local\Temp\ccioldvv.s:27520  .debug_str:0000000000019d91 .LASF3375
C:\Users\CYMR90~1\AppData\Local\Temp\ccioldvv.s:31816  .debug_str:000000000002acf2 .LASF3376
C:\Users\CYMR90~1\AppData\Local\Temp\ccioldvv.s:26721  .debug_str:0000000000016823 .LASF3377
C:\Users\CYMR90~1\AppData\Local\Temp\ccioldvv.s:25767  .debug_str:0000000000012be4 .LASF3378
C:\Users\CYMR90~1\AppData\Local\Temp\ccioldvv.s:27820  .debug_str:000000000001b19a .LASF3379
C:\Users\CYMR90~1\AppData\Local\Temp\ccioldvv.s:30706  .debug_str:0000000000026786 .LASF3380
C:\Users\CYMR90~1\AppData\Local\Temp\ccioldvv.s:23117  .debug_str:0000000000008162 .LASF3381
C:\Users\CYMR90~1\AppData\Local\Temp\ccioldvv.s:21799  .debug_str:0000000000002c75 .LASF3382
C:\Users\CYMR90~1\AppData\Local\Temp\ccioldvv.s:29496  .debug_str:0000000000021a5e .LASF3383
C:\Users\CYMR90~1\AppData\Local\Temp\ccioldvv.s:28834  .debug_str:000000000001f231 .LASF3384
C:\Users\CYMR90~1\AppData\Local\Temp\ccioldvv.s:29126  .debug_str:0000000000020343 .LASF3385
C:\Users\CYMR90~1\AppData\Local\Temp\ccioldvv.s:29652  .debug_str:00000000000223df .LASF3386
C:\Users\CYMR90~1\AppData\Local\Temp\ccioldvv.s:25271  .debug_str:0000000000010aea .LASF3387
C:\Users\CYMR90~1\AppData\Local\Temp\ccioldvv.s:22825  .debug_str:0000000000006d01 .LASF3388
C:\Users\CYMR90~1\AppData\Local\Temp\ccioldvv.s:31974  .debug_str:000000000002b709 .LASF3389
C:\Users\CYMR90~1\AppData\Local\Temp\ccioldvv.s:31804  .debug_str:000000000002ac31 .LASF3390
C:\Users\CYMR90~1\AppData\Local\Temp\ccioldvv.s:28510  .debug_str:000000000001de98 .LASF3391
C:\Users\CYMR90~1\AppData\Local\Temp\ccioldvv.s:21239  .debug_str:00000000000009bd .LASF3392
C:\Users\CYMR90~1\AppData\Local\Temp\ccioldvv.s:30808  .debug_str:0000000000026d85 .LASF3393
C:\Users\CYMR90~1\AppData\Local\Temp\ccioldvv.s:25053  .debug_str:000000000000fdbd .LASF3394
C:\Users\CYMR90~1\AppData\Local\Temp\ccioldvv.s:32272  .debug_str:000000000002cabb .LASF3395
C:\Users\CYMR90~1\AppData\Local\Temp\ccioldvv.s:27338  .debug_str:00000000000191c5 .LASF3396
C:\Users\CYMR90~1\AppData\Local\Temp\ccioldvv.s:31912  .debug_str:000000000002b286 .LASF3397
C:\Users\CYMR90~1\AppData\Local\Temp\ccioldvv.s:27380  .debug_str:0000000000019426 .LASF3398
C:\Users\CYMR90~1\AppData\Local\Temp\ccioldvv.s:29638  .debug_str:0000000000022333 .LASF3399
C:\Users\CYMR90~1\AppData\Local\Temp\ccioldvv.s:26107  .debug_str:0000000000014192 .LASF3400
C:\Users\CYMR90~1\AppData\Local\Temp\ccioldvv.s:24245  .debug_str:000000000000cb9d .LASF3401
C:\Users\CYMR90~1\AppData\Local\Temp\ccioldvv.s:21863  .debug_str:0000000000003063 .LASF3402
C:\Users\CYMR90~1\AppData\Local\Temp\ccioldvv.s:27698  .debug_str:000000000001a9d8 .LASF3403
C:\Users\CYMR90~1\AppData\Local\Temp\ccioldvv.s:28912  .debug_str:000000000001f696 .LASF3404
C:\Users\CYMR90~1\AppData\Local\Temp\ccioldvv.s:31604  .debug_str:000000000002a05a .LASF3405
C:\Users\CYMR90~1\AppData\Local\Temp\ccioldvv.s:30794  .debug_str:0000000000026ce4 .LASF3406
C:\Users\CYMR90~1\AppData\Local\Temp\ccioldvv.s:29698  .debug_str:000000000002268f .LASF3407
C:\Users\CYMR90~1\AppData\Local\Temp\ccioldvv.s:30384  .debug_str:00000000000251a7 .LASF3408
C:\Users\CYMR90~1\AppData\Local\Temp\ccioldvv.s:28508  .debug_str:000000000001de7c .LASF3409
C:\Users\CYMR90~1\AppData\Local\Temp\ccioldvv.s:28570  .debug_str:000000000001e23a .LASF3410
C:\Users\CYMR90~1\AppData\Local\Temp\ccioldvv.s:27604  .debug_str:000000000001a260 .LASF3411
C:\Users\CYMR90~1\AppData\Local\Temp\ccioldvv.s:21137  .debug_str:00000000000003ed .LASF3412
C:\Users\CYMR90~1\AppData\Local\Temp\ccioldvv.s:26960  .debug_str:0000000000017905 .LASF3413
C:\Users\CYMR90~1\AppData\Local\Temp\ccioldvv.s:30564  .debug_str:0000000000025ecb .LASF3414
C:\Users\CYMR90~1\AppData\Local\Temp\ccioldvv.s:22391  .debug_str:00000000000052df .LASF3415
C:\Users\CYMR90~1\AppData\Local\Temp\ccioldvv.s:21477  .debug_str:00000000000018e4 .LASF3416
C:\Users\CYMR90~1\AppData\Local\Temp\ccioldvv.s:26509  .debug_str:0000000000015a54 .LASF3417
C:\Users\CYMR90~1\AppData\Local\Temp\ccioldvv.s:24955  .debug_str:000000000000f73e .LASF3418
C:\Users\CYMR90~1\AppData\Local\Temp\ccioldvv.s:23477  .debug_str:00000000000097f8 .LASF3419
C:\Users\CYMR90~1\AppData\Local\Temp\ccioldvv.s:28588  .debug_str:000000000001e35e .LASF3420
C:\Users\CYMR90~1\AppData\Local\Temp\ccioldvv.s:21577  .debug_str:0000000000001ecf .LASF3421
C:\Users\CYMR90~1\AppData\Local\Temp\ccioldvv.s:28896  .debug_str:000000000001f5d3 .LASF3422
C:\Users\CYMR90~1\AppData\Local\Temp\ccioldvv.s:23455  .debug_str:00000000000096ac .LASF3423
C:\Users\CYMR90~1\AppData\Local\Temp\ccioldvv.s:27084  .debug_str:00000000000180c2 .LASF3424
C:\Users\CYMR90~1\AppData\Local\Temp\ccioldvv.s:30662  .debug_str:00000000000264d8 .LASF3425
C:\Users\CYMR90~1\AppData\Local\Temp\ccioldvv.s:22847  .debug_str:0000000000006e8d .LASF3426
C:\Users\CYMR90~1\AppData\Local\Temp\ccioldvv.s:28648  .debug_str:000000000001e715 .LASF3427
C:\Users\CYMR90~1\AppData\Local\Temp\ccioldvv.s:32166  .debug_str:000000000002c388 .LASF3428
C:\Users\CYMR90~1\AppData\Local\Temp\ccioldvv.s:24901  .debug_str:000000000000f430 .LASF3429
C:\Users\CYMR90~1\AppData\Local\Temp\ccioldvv.s:28936  .debug_str:000000000001f808 .LASF3430
C:\Users\CYMR90~1\AppData\Local\Temp\ccioldvv.s:22261  .debug_str:0000000000004b1d .LASF3431
C:\Users\CYMR90~1\AppData\Local\Temp\ccioldvv.s:28830  .debug_str:000000000001f1fd .LASF3432
C:\Users\CYMR90~1\AppData\Local\Temp\ccioldvv.s:24605  .debug_str:000000000000e20c .LASF3433
C:\Users\CYMR90~1\AppData\Local\Temp\ccioldvv.s:31928  .debug_str:000000000002b3c8 .LASF3434
C:\Users\CYMR90~1\AppData\Local\Temp\ccioldvv.s:29486  .debug_str:00000000000219e5 .LASF3435
C:\Users\CYMR90~1\AppData\Local\Temp\ccioldvv.s:26858  .debug_str:00000000000172de .LASF3436
C:\Users\CYMR90~1\AppData\Local\Temp\ccioldvv.s:28382  .debug_str:000000000001d631 .LASF3437
C:\Users\CYMR90~1\AppData\Local\Temp\ccioldvv.s:26906  .debug_str:000000000001759b .LASF3438
C:\Users\CYMR90~1\AppData\Local\Temp\ccioldvv.s:30402  .debug_str:000000000002532f .LASF3439
C:\Users\CYMR90~1\AppData\Local\Temp\ccioldvv.s:28532  .debug_str:000000000001e028 .LASF3440
C:\Users\CYMR90~1\AppData\Local\Temp\ccioldvv.s:29462  .debug_str:000000000002189b .LASF3441
C:\Users\CYMR90~1\AppData\Local\Temp\ccioldvv.s:25159  .debug_str:000000000001042e .LASF3442
C:\Users\CYMR90~1\AppData\Local\Temp\ccioldvv.s:26299  .debug_str:0000000000014d70 .LASF3443
C:\Users\CYMR90~1\AppData\Local\Temp\ccioldvv.s:32294  .debug_str:000000000002cc47 .LASF3444
C:\Users\CYMR90~1\AppData\Local\Temp\ccioldvv.s:24331  .debug_str:000000000000d0e8 .LASF3445
C:\Users\CYMR90~1\AppData\Local\Temp\ccioldvv.s:27134  .debug_str:00000000000183cd .LASF3446
C:\Users\CYMR90~1\AppData\Local\Temp\ccioldvv.s:23481  .debug_str:000000000000982a .LASF3447
C:\Users\CYMR90~1\AppData\Local\Temp\ccioldvv.s:30660  .debug_str:00000000000264bb .LASF3448
C:\Users\CYMR90~1\AppData\Local\Temp\ccioldvv.s:31746  .debug_str:000000000002a8d8 .LASF3449
C:\Users\CYMR90~1\AppData\Local\Temp\ccioldvv.s:24035  .debug_str:000000000000bd2d .LASF3450
C:\Users\CYMR90~1\AppData\Local\Temp\ccioldvv.s:31150  .debug_str:0000000000028464 .LASF3451
C:\Users\CYMR90~1\AppData\Local\Temp\ccioldvv.s:28038  .debug_str:000000000001bf21 .LASF3452
C:\Users\CYMR90~1\AppData\Local\Temp\ccioldvv.s:31616  .debug_str:000000000002a0fc .LASF3453
C:\Users\CYMR90~1\AppData\Local\Temp\ccioldvv.s:21651  .debug_str:00000000000022e4 .LASF3454
C:\Users\CYMR90~1\AppData\Local\Temp\ccioldvv.s:30720  .debug_str:0000000000026889 .LASF3455
C:\Users\CYMR90~1\AppData\Local\Temp\ccioldvv.s:27474  .debug_str:0000000000019aaf .LASF3456
C:\Users\CYMR90~1\AppData\Local\Temp\ccioldvv.s:27398  .debug_str:0000000000019548 .LASF3457
C:\Users\CYMR90~1\AppData\Local\Temp\ccioldvv.s:27824  .debug_str:000000000001b1da .LASF3458
C:\Users\CYMR90~1\AppData\Local\Temp\ccioldvv.s:21659  .debug_str:000000000000234e .LASF3459
C:\Users\CYMR90~1\AppData\Local\Temp\ccioldvv.s:31072  .debug_str:0000000000027e98 .LASF3460
C:\Users\CYMR90~1\AppData\Local\Temp\ccioldvv.s:28468  .debug_str:000000000001dbcb .LASF3461
C:\Users\CYMR90~1\AppData\Local\Temp\ccioldvv.s:27224  .debug_str:0000000000018928 .LASF3462
C:\Users\CYMR90~1\AppData\Local\Temp\ccioldvv.s:29700  .debug_str:00000000000226ab .LASF3463
C:\Users\CYMR90~1\AppData\Local\Temp\ccioldvv.s:29250  .debug_str:0000000000020b21 .LASF3464
C:\Users\CYMR90~1\AppData\Local\Temp\ccioldvv.s:32120  .debug_str:000000000002c0e1 .LASF3465
C:\Users\CYMR90~1\AppData\Local\Temp\ccioldvv.s:31872  .debug_str:000000000002b055 .LASF3466
C:\Users\CYMR90~1\AppData\Local\Temp\ccioldvv.s:21195  .debug_str:0000000000000741 .LASF3467
C:\Users\CYMR90~1\AppData\Local\Temp\ccioldvv.s:24821  .debug_str:000000000000ef2d .LASF3468
C:\Users\CYMR90~1\AppData\Local\Temp\ccioldvv.s:30322  .debug_str:0000000000024dcc .LASF3469
C:\Users\CYMR90~1\AppData\Local\Temp\ccioldvv.s:30030  .debug_str:0000000000023ab9 .LASF3470
C:\Users\CYMR90~1\AppData\Local\Temp\ccioldvv.s:27654  .debug_str:000000000001a6a6 .LASF3471
C:\Users\CYMR90~1\AppData\Local\Temp\ccioldvv.s:26804  .debug_str:0000000000016fc9 .LASF3472
C:\Users\CYMR90~1\AppData\Local\Temp\ccioldvv.s:27244  .debug_str:0000000000018a76 .LASF3473
C:\Users\CYMR90~1\AppData\Local\Temp\ccioldvv.s:31690  .debug_str:000000000002a528 .LASF3474
C:\Users\CYMR90~1\AppData\Local\Temp\ccioldvv.s:24379  .debug_str:000000000000d442 .LASF3475
C:\Users\CYMR90~1\AppData\Local\Temp\ccioldvv.s:26856  .debug_str:00000000000172c1 .LASF3476
C:\Users\CYMR90~1\AppData\Local\Temp\ccioldvv.s:26189  .debug_str:00000000000146a3 .LASF3477
C:\Users\CYMR90~1\AppData\Local\Temp\ccioldvv.s:26271  .debug_str:0000000000014bb4 .LASF3478
C:\Users\CYMR90~1\AppData\Local\Temp\ccioldvv.s:28616  .debug_str:000000000001e50b .LASF3479
C:\Users\CYMR90~1\AppData\Local\Temp\ccioldvv.s:31484  .debug_str:0000000000029992 .LASF3480
C:\Users\CYMR90~1\AppData\Local\Temp\ccioldvv.s:21793  .debug_str:0000000000002c2f .LASF3481
C:\Users\CYMR90~1\AppData\Local\Temp\ccioldvv.s:28814  .debug_str:000000000001f0c9 .LASF3482
C:\Users\CYMR90~1\AppData\Local\Temp\ccioldvv.s:23607  .debug_str:000000000000a085 .LASF3483
C:\Users\CYMR90~1\AppData\Local\Temp\ccioldvv.s:21913  .debug_str:00000000000033dd .LASF3484
C:\Users\CYMR90~1\AppData\Local\Temp\ccioldvv.s:23851  .debug_str:000000000000b14d .LASF3485
C:\Users\CYMR90~1\AppData\Local\Temp\ccioldvv.s:22789  .debug_str:0000000000006a91 .LASF3486
C:\Users\CYMR90~1\AppData\Local\Temp\ccioldvv.s:30342  .debug_str:0000000000024f09 .LASF3487
C:\Users\CYMR90~1\AppData\Local\Temp\ccioldvv.s:27718  .debug_str:000000000001ab0d .LASF3488
C:\Users\CYMR90~1\AppData\Local\Temp\ccioldvv.s:27574  .debug_str:000000000001a0bd .LASF3489
C:\Users\CYMR90~1\AppData\Local\Temp\ccioldvv.s:22747  .debug_str:000000000000680c .LASF3490
C:\Users\CYMR90~1\AppData\Local\Temp\ccioldvv.s:23703  .debug_str:000000000000a685 .LASF3491
C:\Users\CYMR90~1\AppData\Local\Temp\ccioldvv.s:24543  .debug_str:000000000000de3c .LASF3492
C:\Users\CYMR90~1\AppData\Local\Temp\ccioldvv.s:23179  .debug_str:0000000000008578 .LASF3493
C:\Users\CYMR90~1\AppData\Local\Temp\ccioldvv.s:23369  .debug_str:000000000000913a .LASF3494
C:\Users\CYMR90~1\AppData\Local\Temp\ccioldvv.s:23955  .debug_str:000000000000b7f4 .LASF3495
C:\Users\CYMR90~1\AppData\Local\Temp\ccioldvv.s:21937  .debug_str:0000000000003562 .LASF3496
C:\Users\CYMR90~1\AppData\Local\Temp\ccioldvv.s:23299  .debug_str:0000000000008cce .LASF3497
C:\Users\CYMR90~1\AppData\Local\Temp\ccioldvv.s:21119  .debug_str:00000000000002d2 .LASF3498
C:\Users\CYMR90~1\AppData\Local\Temp\ccioldvv.s:26852  .debug_str:0000000000017293 .LASF3499
C:\Users\CYMR90~1\AppData\Local\Temp\ccioldvv.s:24109  .debug_str:000000000000c2b2 .LASF3500
C:\Users\CYMR90~1\AppData\Local\Temp\ccioldvv.s:29964  .debug_str:0000000000023665 .LASF3501
C:\Users\CYMR90~1\AppData\Local\Temp\ccioldvv.s:32040  .debug_str:000000000002bb3b .LASF3502
C:\Users\CYMR90~1\AppData\Local\Temp\ccioldvv.s:25663  .debug_str:0000000000012502 .LASF3503
C:\Users\CYMR90~1\AppData\Local\Temp\ccioldvv.s:25515  .debug_str:0000000000011b84 .LASF3504
C:\Users\CYMR90~1\AppData\Local\Temp\ccioldvv.s:27838  .debug_str:000000000001b2ec .LASF3505
C:\Users\CYMR90~1\AppData\Local\Temp\ccioldvv.s:29976  .debug_str:0000000000023755 .LASF3506
C:\Users\CYMR90~1\AppData\Local\Temp\ccioldvv.s:31418  .debug_str:000000000002957b .LASF3507
C:\Users\CYMR90~1\AppData\Local\Temp\ccioldvv.s:27488  .debug_str:0000000000019b88 .LASF3508
C:\Users\CYMR90~1\AppData\Local\Temp\ccioldvv.s:28798  .debug_str:000000000001efbd .LASF3509
C:\Users\CYMR90~1\AppData\Local\Temp\ccioldvv.s:28538  .debug_str:000000000001e083 .LASF3510
C:\Users\CYMR90~1\AppData\Local\Temp\ccioldvv.s:30750  .debug_str:0000000000026a43 .LASF3511
C:\Users\CYMR90~1\AppData\Local\Temp\ccioldvv.s:21299  .debug_str:0000000000000da2 .LASF3512
C:\Users\CYMR90~1\AppData\Local\Temp\ccioldvv.s:24767  .debug_str:000000000000ec55 .LASF3513
C:\Users\CYMR90~1\AppData\Local\Temp\ccioldvv.s:32116  .debug_str:000000000002c0b0 .LASF3514
C:\Users\CYMR90~1\AppData\Local\Temp\ccioldvv.s:30894  .debug_str:0000000000027290 .LASF3515
C:\Users\CYMR90~1\AppData\Local\Temp\ccioldvv.s:21779  .debug_str:0000000000002aff .LASF3516
C:\Users\CYMR90~1\AppData\Local\Temp\ccioldvv.s:21451  .debug_str:00000000000016a2 .LASF3517
C:\Users\CYMR90~1\AppData\Local\Temp\ccioldvv.s:22907  .debug_str:00000000000072cb .LASF3518
C:\Users\CYMR90~1\AppData\Local\Temp\ccioldvv.s:24305  .debug_str:000000000000cf18 .LASF3519
C:\Users\CYMR90~1\AppData\Local\Temp\ccioldvv.s:22643  .debug_str:00000000000061bf .LASF3520
C:\Users\CYMR90~1\AppData\Local\Temp\ccioldvv.s:29348  .debug_str:0000000000021108 .LASF3521
C:\Users\CYMR90~1\AppData\Local\Temp\ccioldvv.s:29610  .debug_str:0000000000022170 .LASF3522
C:\Users\CYMR90~1\AppData\Local\Temp\ccioldvv.s:28708  .debug_str:000000000001eabc .LASF3523
C:\Users\CYMR90~1\AppData\Local\Temp\ccioldvv.s:30026  .debug_str:0000000000023a8b .LASF3524
C:\Users\CYMR90~1\AppData\Local\Temp\ccioldvv.s:32238  .debug_str:000000000002c846 .LASF3525
C:\Users\CYMR90~1\AppData\Local\Temp\ccioldvv.s:25093  .debug_str:0000000000010051 .LASF3526
C:\Users\CYMR90~1\AppData\Local\Temp\ccioldvv.s:24595  .debug_str:000000000000e170 .LASF3527
C:\Users\CYMR90~1\AppData\Local\Temp\ccioldvv.s:28740  .debug_str:000000000001ec75 .LASF3528
C:\Users\CYMR90~1\AppData\Local\Temp\ccioldvv.s:22225  .debug_str:0000000000004856 .LASF3529
C:\Users\CYMR90~1\AppData\Local\Temp\ccioldvv.s:21527  .debug_str:0000000000001bf4 .LASF3530
C:\Users\CYMR90~1\AppData\Local\Temp\ccioldvv.s:23545  .debug_str:0000000000009c83 .LASF3531
C:\Users\CYMR90~1\AppData\Local\Temp\ccioldvv.s:29874  .debug_str:000000000002314d .LASF3532
C:\Users\CYMR90~1\AppData\Local\Temp\ccioldvv.s:25547  .debug_str:0000000000011d81 .LASF3533
C:\Users\CYMR90~1\AppData\Local\Temp\ccioldvv.s:26087  .debug_str:0000000000014074 .LASF3534
C:\Users\CYMR90~1\AppData\Local\Temp\ccioldvv.s:23427  .debug_str:00000000000094a8 .LASF3535
C:\Users\CYMR90~1\AppData\Local\Temp\ccioldvv.s:27736  .debug_str:000000000001ac34 .LASF3536
C:\Users\CYMR90~1\AppData\Local\Temp\ccioldvv.s:27320  .debug_str:0000000000018fcb .LASF3537
C:\Users\CYMR90~1\AppData\Local\Temp\ccioldvv.s:29196  .debug_str:00000000000207ee .LASF3538
C:\Users\CYMR90~1\AppData\Local\Temp\ccioldvv.s:27006  .debug_str:0000000000017c20 .LASF3539
C:\Users\CYMR90~1\AppData\Local\Temp\ccioldvv.s:31190  .debug_str:00000000000286f3 .LASF3540
C:\Users\CYMR90~1\AppData\Local\Temp\ccioldvv.s:24603  .debug_str:000000000000e1ed .LASF3541
C:\Users\CYMR90~1\AppData\Local\Temp\ccioldvv.s:23099  .debug_str:0000000000007f97 .LASF3542
C:\Users\CYMR90~1\AppData\Local\Temp\ccioldvv.s:32174  .debug_str:000000000002c43a .LASF3543
C:\Users\CYMR90~1\AppData\Local\Temp\ccioldvv.s:26401  .debug_str:0000000000015426 .LASF3544
C:\Users\CYMR90~1\AppData\Local\Temp\ccioldvv.s:28112  .debug_str:000000000001c3b5 .LASF3545
C:\Users\CYMR90~1\AppData\Local\Temp\ccioldvv.s:27548  .debug_str:0000000000019f20 .LASF3546
C:\Users\CYMR90~1\AppData\Local\Temp\ccioldvv.s:30168  .debug_str:000000000002436e .LASF3547
C:\Users\CYMR90~1\AppData\Local\Temp\ccioldvv.s:29398  .debug_str:0000000000021482 .LASF3548
C:\Users\CYMR90~1\AppData\Local\Temp\ccioldvv.s:23987  .debug_str:000000000000ba16 .LASF3549
C:\Users\CYMR90~1\AppData\Local\Temp\ccioldvv.s:27596  .debug_str:000000000001a1f0 .LASF3550
C:\Users\CYMR90~1\AppData\Local\Temp\ccioldvv.s:21089  .debug_str:00000000000000fa .LASF3551
C:\Users\CYMR90~1\AppData\Local\Temp\ccioldvv.s:25509  .debug_str:0000000000011a8f .LASF3552
C:\Users\CYMR90~1\AppData\Local\Temp\ccioldvv.s:29440  .debug_str:0000000000021721 .LASF3553
C:\Users\CYMR90~1\AppData\Local\Temp\ccioldvv.s:29696  .debug_str:000000000002266a .LASF3554
C:\Users\CYMR90~1\AppData\Local\Temp\ccioldvv.s:26587  .debug_str:0000000000015f87 .LASF3555
C:\Users\CYMR90~1\AppData\Local\Temp\ccioldvv.s:31548  .debug_str:0000000000029d2a .LASF3556
C:\Users\CYMR90~1\AppData\Local\Temp\ccioldvv.s:24215  .debug_str:000000000000c923 .LASF3557
C:\Users\CYMR90~1\AppData\Local\Temp\ccioldvv.s:25693  .debug_str:00000000000126cc .LASF3558
C:\Users\CYMR90~1\AppData\Local\Temp\ccioldvv.s:30002  .debug_str:0000000000023901 .LASF3559
C:\Users\CYMR90~1\AppData\Local\Temp\ccioldvv.s:30434  .debug_str:00000000000255d0 .LASF3560
C:\Users\CYMR90~1\AppData\Local\Temp\ccioldvv.s:25549  .debug_str:0000000000011d96 .LASF3561
C:\Users\CYMR90~1\AppData\Local\Temp\ccioldvv.s:25911  .debug_str:00000000000135ae .LASF3562
C:\Users\CYMR90~1\AppData\Local\Temp\ccioldvv.s:21551  .debug_str:0000000000001d2b .LASF3563
C:\Users\CYMR90~1\AppData\Local\Temp\ccioldvv.s:22875  .debug_str:0000000000007051 .LASF3564
C:\Users\CYMR90~1\AppData\Local\Temp\ccioldvv.s:32000  .debug_str:000000000002b874 .LASF3565
C:\Users\CYMR90~1\AppData\Local\Temp\ccioldvv.s:26615  .debug_str:0000000000016175 .LASF3566
C:\Users\CYMR90~1\AppData\Local\Temp\ccioldvv.s:27410  .debug_str:0000000000019601 .LASF3567
C:\Users\CYMR90~1\AppData\Local\Temp\ccioldvv.s:24107  .debug_str:000000000000c28d .LASF3568
C:\Users\CYMR90~1\AppData\Local\Temp\ccioldvv.s:25759  .debug_str:0000000000012b3d .LASF3569
C:\Users\CYMR90~1\AppData\Local\Temp\ccioldvv.s:21319  .debug_str:0000000000000f4a .LASF3570
C:\Users\CYMR90~1\AppData\Local\Temp\ccioldvv.s:27682  .debug_str:000000000001a87b .LASF3571
C:\Users\CYMR90~1\AppData\Local\Temp\ccioldvv.s:22149  .debug_str:0000000000004333 .LASF3572
C:\Users\CYMR90~1\AppData\Local\Temp\ccioldvv.s:27926  .debug_str:000000000001b848 .LASF3573
C:\Users\CYMR90~1\AppData\Local\Temp\ccioldvv.s:22411  .debug_str:00000000000053ff .LASF3574
C:\Users\CYMR90~1\AppData\Local\Temp\ccioldvv.s:23527  .debug_str:0000000000009b4e .LASF3575
C:\Users\CYMR90~1\AppData\Local\Temp\ccioldvv.s:22687  .debug_str:0000000000006459 .LASF3576
C:\Users\CYMR90~1\AppData\Local\Temp\ccioldvv.s:28430  .debug_str:000000000001d962 .LASF3577
C:\Users\CYMR90~1\AppData\Local\Temp\ccioldvv.s:30918  .debug_str:00000000000274e9 .LASF3578
C:\Users\CYMR90~1\AppData\Local\Temp\ccioldvv.s:29632  .debug_str:00000000000222bb .LASF3579
C:\Users\CYMR90~1\AppData\Local\Temp\ccioldvv.s:22731  .debug_str:00000000000066da .LASF3580
C:\Users\CYMR90~1\AppData\Local\Temp\ccioldvv.s:31558  .debug_str:0000000000029dd7 .LASF3581
C:\Users\CYMR90~1\AppData\Local\Temp\ccioldvv.s:28892  .debug_str:000000000001f599 .LASF3582
C:\Users\CYMR90~1\AppData\Local\Temp\ccioldvv.s:24793  .debug_str:000000000000edc0 .LASF3583
C:\Users\CYMR90~1\AppData\Local\Temp\ccioldvv.s:23803  .debug_str:000000000000ad8a .LASF3584
C:\Users\CYMR90~1\AppData\Local\Temp\ccioldvv.s:21179  .debug_str:000000000000061c .LASF3585
C:\Users\CYMR90~1\AppData\Local\Temp\ccioldvv.s:25037  .debug_str:000000000000fcbf .LASF3586
C:\Users\CYMR90~1\AppData\Local\Temp\ccioldvv.s:23995  .debug_str:000000000000ba8d .LASF3587
C:\Users\CYMR90~1\AppData\Local\Temp\ccioldvv.s:24747  .debug_str:000000000000eb1f .LASF3588
C:\Users\CYMR90~1\AppData\Local\Temp\ccioldvv.s:22913  .debug_str:0000000000007334 .LASF3589
C:\Users\CYMR90~1\AppData\Local\Temp\ccioldvv.s:30988  .debug_str:00000000000278f7 .LASF3590
C:\Users\CYMR90~1\AppData\Local\Temp\ccioldvv.s:28354  .debug_str:000000000001d458 .LASF3591
C:\Users\CYMR90~1\AppData\Local\Temp\ccioldvv.s:25853  .debug_str:0000000000013161 .LASF3592
C:\Users\CYMR90~1\AppData\Local\Temp\ccioldvv.s:27940  .debug_str:000000000001b943 .LASF3593
C:\Users\CYMR90~1\AppData\Local\Temp\ccioldvv.s:31962  .debug_str:000000000002b620 .LASF3594
C:\Users\CYMR90~1\AppData\Local\Temp\ccioldvv.s:29390  .debug_str:000000000002135e .LASF3595
C:\Users\CYMR90~1\AppData\Local\Temp\ccioldvv.s:31220  .debug_str:000000000002892e .LASF3596
C:\Users\CYMR90~1\AppData\Local\Temp\ccioldvv.s:24195  .debug_str:000000000000c7ee .LASF3597
C:\Users\CYMR90~1\AppData\Local\Temp\ccioldvv.s:21635  .debug_str:00000000000021d1 .LASF3598
C:\Users\CYMR90~1\AppData\Local\Temp\ccioldvv.s:25155  .debug_str:00000000000103f0 .LASF3599
C:\Users\CYMR90~1\AppData\Local\Temp\ccioldvv.s:25075  .debug_str:000000000000ff21 .LASF3600
C:\Users\CYMR90~1\AppData\Local\Temp\ccioldvv.s:25293  .debug_str:0000000000010c8d .LASF3601
C:\Users\CYMR90~1\AppData\Local\Temp\ccioldvv.s:29612  .debug_str:0000000000022188 .LASF3602
C:\Users\CYMR90~1\AppData\Local\Temp\ccioldvv.s:25977  .debug_str:00000000000139d0 .LASF3603
C:\Users\CYMR90~1\AppData\Local\Temp\ccioldvv.s:23089  .debug_str:0000000000007f02 .LASF3604
C:\Users\CYMR90~1\AppData\Local\Temp\ccioldvv.s:29850  .debug_str:0000000000022ff7 .LASF3605
C:\Users\CYMR90~1\AppData\Local\Temp\ccioldvv.s:32002  .debug_str:000000000002b898 .LASF3606
C:\Users\CYMR90~1\AppData\Local\Temp\ccioldvv.s:31532  .debug_str:0000000000029c34 .LASF3607
C:\Users\CYMR90~1\AppData\Local\Temp\ccioldvv.s:28028  .debug_str:000000000001be59 .LASF3608
C:\Users\CYMR90~1\AppData\Local\Temp\ccioldvv.s:22881  .debug_str:00000000000070a7 .LASF3609
C:\Users\CYMR90~1\AppData\Local\Temp\ccioldvv.s:22459  .debug_str:00000000000056fa .LASF3610
C:\Users\CYMR90~1\AppData\Local\Temp\ccioldvv.s:22967  .debug_str:0000000000007680 .LASF3611
C:\Users\CYMR90~1\AppData\Local\Temp\ccioldvv.s:21929  .debug_str:00000000000034e7 .LASF3612
C:\Users\CYMR90~1\AppData\Local\Temp\ccioldvv.s:30246  .debug_str:0000000000024894 .LASF3613
C:\Users\CYMR90~1\AppData\Local\Temp\ccioldvv.s:25103  .debug_str:00000000000100cb .LASF3614
C:\Users\CYMR90~1\AppData\Local\Temp\ccioldvv.s:23273  .debug_str:0000000000008b46 .LASF3615
C:\Users\CYMR90~1\AppData\Local\Temp\ccioldvv.s:23379  .debug_str:00000000000091ed .LASF3616
C:\Users\CYMR90~1\AppData\Local\Temp\ccioldvv.s:29506  .debug_str:0000000000021af0 .LASF3617
C:\Users\CYMR90~1\AppData\Local\Temp\ccioldvv.s:31466  .debug_str:0000000000029874 .LASF3618
C:\Users\CYMR90~1\AppData\Local\Temp\ccioldvv.s:29756  .debug_str:0000000000022a27 .LASF3619
C:\Users\CYMR90~1\AppData\Local\Temp\ccioldvv.s:31358  .debug_str:0000000000029157 .LASF3620
C:\Users\CYMR90~1\AppData\Local\Temp\ccioldvv.s:21211  .debug_str:0000000000000821 .LASF3621
C:\Users\CYMR90~1\AppData\Local\Temp\ccioldvv.s:29794  .debug_str:0000000000022cd6 .LASF3622
C:\Users\CYMR90~1\AppData\Local\Temp\ccioldvv.s:26806  .debug_str:0000000000016fe1 .LASF3623
C:\Users\CYMR90~1\AppData\Local\Temp\ccioldvv.s:23811  .debug_str:000000000000adfe .LASF3624
C:\Users\CYMR90~1\AppData\Local\Temp\ccioldvv.s:24363  .debug_str:000000000000d328 .LASF3625
C:\Users\CYMR90~1\AppData\Local\Temp\ccioldvv.s:22865  .debug_str:0000000000006fa2 .LASF3626
C:\Users\CYMR90~1\AppData\Local\Temp\ccioldvv.s:26419  .debug_str:0000000000015513 .LASF3627
C:\Users\CYMR90~1\AppData\Local\Temp\ccioldvv.s:24241  .debug_str:000000000000cb6d .LASF3628
C:\Users\CYMR90~1\AppData\Local\Temp\ccioldvv.s:29870  .debug_str:000000000002310e .LASF3629
C:\Users\CYMR90~1\AppData\Local\Temp\ccioldvv.s:27836  .debug_str:000000000001b2a9 .LASF3630
C:\Users\CYMR90~1\AppData\Local\Temp\ccioldvv.s:29802  .debug_str:0000000000022d56 .LASF3631
C:\Users\CYMR90~1\AppData\Local\Temp\ccioldvv.s:26946  .debug_str:0000000000017829 .LASF3632
C:\Users\CYMR90~1\AppData\Local\Temp\ccioldvv.s:24665  .debug_str:000000000000e589 .LASF3633
C:\Users\CYMR90~1\AppData\Local\Temp\ccioldvv.s:28860  .debug_str:000000000001f3a9 .LASF3634
C:\Users\CYMR90~1\AppData\Local\Temp\ccioldvv.s:23867  .debug_str:000000000000b245 .LASF3635
C:\Users\CYMR90~1\AppData\Local\Temp\ccioldvv.s:26133  .debug_str:000000000001439e .LASF3636
C:\Users\CYMR90~1\AppData\Local\Temp\ccioldvv.s:27082  .debug_str:00000000000180a0 .LASF3637
C:\Users\CYMR90~1\AppData\Local\Temp\ccioldvv.s:30804  .debug_str:0000000000026d52 .LASF3638
C:\Users\CYMR90~1\AppData\Local\Temp\ccioldvv.s:23655  .debug_str:000000000000a38f .LASF3639
C:\Users\CYMR90~1\AppData\Local\Temp\ccioldvv.s:22381  .debug_str:0000000000005233 .LASF3640
C:\Users\CYMR90~1\AppData\Local\Temp\ccioldvv.s:27378  .debug_str:0000000000019404 .LASF3641
C:\Users\CYMR90~1\AppData\Local\Temp\ccioldvv.s:23911  .debug_str:000000000000b4bf .LASF3642
C:\Users\CYMR90~1\AppData\Local\Temp\ccioldvv.s:24635  .debug_str:000000000000e3e0 .LASF3643
C:\Users\CYMR90~1\AppData\Local\Temp\ccioldvv.s:32096  .debug_str:000000000002befa .LASF3644
C:\Users\CYMR90~1\AppData\Local\Temp\ccioldvv.s:31948  .debug_str:000000000002b522 .LASF3645
C:\Users\CYMR90~1\AppData\Local\Temp\ccioldvv.s:24501  .debug_str:000000000000dbee .LASF3646
C:\Users\CYMR90~1\AppData\Local\Temp\ccioldvv.s:22469  .debug_str:0000000000005785 .LASF3647
C:\Users\CYMR90~1\AppData\Local\Temp\ccioldvv.s:31586  .debug_str:0000000000029f67 .LASF3648
C:\Users\CYMR90~1\AppData\Local\Temp\ccioldvv.s:29312  .debug_str:0000000000020eff .LASF3649
C:\Users\CYMR90~1\AppData\Local\Temp\ccioldvv.s:29228  .debug_str:00000000000209da .LASF3650
C:\Users\CYMR90~1\AppData\Local\Temp\ccioldvv.s:26535  .debug_str:0000000000015be2 .LASF3651
C:\Users\CYMR90~1\AppData\Local\Temp\ccioldvv.s:22565  .debug_str:0000000000005d43 .LASF3652
C:\Users\CYMR90~1\AppData\Local\Temp\ccioldvv.s:26021  .debug_str:0000000000013c86 .LASF3653
C:\Users\CYMR90~1\AppData\Local\Temp\ccioldvv.s:29498  .debug_str:0000000000021a76 .LASF3654
C:\Users\CYMR90~1\AppData\Local\Temp\ccioldvv.s:30610  .debug_str:00000000000261de .LASF3655
C:\Users\CYMR90~1\AppData\Local\Temp\ccioldvv.s:22297  .debug_str:0000000000004d46 .LASF3656
C:\Users\CYMR90~1\AppData\Local\Temp\ccioldvv.s:30092  .debug_str:0000000000023e49 .LASF3657
C:\Users\CYMR90~1\AppData\Local\Temp\ccioldvv.s:29232  .debug_str:0000000000020a2a .LASF3658
C:\Users\CYMR90~1\AppData\Local\Temp\ccioldvv.s:31742  .debug_str:000000000002a893 .LASF3659
C:\Users\CYMR90~1\AppData\Local\Temp\ccioldvv.s:24769  .debug_str:000000000000ec6d .LASF3660
C:\Users\CYMR90~1\AppData\Local\Temp\ccioldvv.s:22483  .debug_str:000000000000584d .LASF3661
C:\Users\CYMR90~1\AppData\Local\Temp\ccioldvv.s:21533  .debug_str:0000000000001c50 .LASF3662
C:\Users\CYMR90~1\AppData\Local\Temp\ccioldvv.s:29322  .debug_str:0000000000020f92 .LASF3663
C:\Users\CYMR90~1\AppData\Local\Temp\ccioldvv.s:27182  .debug_str:000000000001869c .LASF3664
C:\Users\CYMR90~1\AppData\Local\Temp\ccioldvv.s:28270  .debug_str:000000000001ce15 .LASF3665
C:\Users\CYMR90~1\AppData\Local\Temp\ccioldvv.s:31332  .debug_str:0000000000028fcc .LASF3666
C:\Users\CYMR90~1\AppData\Local\Temp\ccioldvv.s:29144  .debug_str:0000000000020480 .LASF3667
C:\Users\CYMR90~1\AppData\Local\Temp\ccioldvv.s:32266  .debug_str:000000000002ca51 .LASF3668
C:\Users\CYMR90~1\AppData\Local\Temp\ccioldvv.s:21969  .debug_str:0000000000003765 .LASF3669
C:\Users\CYMR90~1\AppData\Local\Temp\ccioldvv.s:30418  .debug_str:00000000000254d0 .LASF3670
C:\Users\CYMR90~1\AppData\Local\Temp\ccioldvv.s:21339  .debug_str:0000000000001044 .LASF3671
C:\Users\CYMR90~1\AppData\Local\Temp\ccioldvv.s:28392  .debug_str:000000000001d6ca .LASF3672
C:\Users\CYMR90~1\AppData\Local\Temp\ccioldvv.s:25887  .debug_str:0000000000013384 .LASF3673
C:\Users\CYMR90~1\AppData\Local\Temp\ccioldvv.s:32356  .debug_str:000000000002d03c .LASF3674
C:\Users\CYMR90~1\AppData\Local\Temp\ccioldvv.s:21769  .debug_str:0000000000002a61 .LASF3675
C:\Users\CYMR90~1\AppData\Local\Temp\ccioldvv.s:30862  .debug_str:00000000000270e0 .LASF3676
C:\Users\CYMR90~1\AppData\Local\Temp\ccioldvv.s:25745  .debug_str:0000000000012a37 .LASF3677
C:\Users\CYMR90~1\AppData\Local\Temp\ccioldvv.s:29136  .debug_str:00000000000203c6 .LASF3678
C:\Users\CYMR90~1\AppData\Local\Temp\ccioldvv.s:29276  .debug_str:0000000000020cd7 .LASF3679
C:\Users\CYMR90~1\AppData\Local\Temp\ccioldvv.s:21297  .debug_str:0000000000000d80 .LASF3680
C:\Users\CYMR90~1\AppData\Local\Temp\ccioldvv.s:28494  .debug_str:000000000001dd2c .LASF3681
C:\Users\CYMR90~1\AppData\Local\Temp\ccioldvv.s:21393  .debug_str:0000000000001338 .LASF3682
C:\Users\CYMR90~1\AppData\Local\Temp\ccioldvv.s:31120  .debug_str:00000000000281e1 .LASF3683
C:\Users\CYMR90~1\AppData\Local\Temp\ccioldvv.s:25649  .debug_str:00000000000123ed .LASF3684
C:\Users\CYMR90~1\AppData\Local\Temp\ccioldvv.s:28636  .debug_str:000000000001e636 .LASF3685
C:\Users\CYMR90~1\AppData\Local\Temp\ccioldvv.s:27546  .debug_str:0000000000019ef0 .LASF3686
C:\Users\CYMR90~1\AppData\Local\Temp\ccioldvv.s:26307  .debug_str:0000000000014e11 .LASF3687
C:\Users\CYMR90~1\AppData\Local\Temp\ccioldvv.s:25125  .debug_str:000000000001023d .LASF3688
C:\Users\CYMR90~1\AppData\Local\Temp\ccioldvv.s:31990  .debug_str:000000000002b7c9 .LASF3689
C:\Users\CYMR90~1\AppData\Local\Temp\ccioldvv.s:30330  .debug_str:0000000000024e2e .LASF3690
C:\Users\CYMR90~1\AppData\Local\Temp\ccioldvv.s:21513  .debug_str:0000000000001aec .LASF3691
C:\Users\CYMR90~1\AppData\Local\Temp\ccioldvv.s:31110  .debug_str:00000000000280e3 .LASF3692
C:\Users\CYMR90~1\AppData\Local\Temp\ccioldvv.s:31350  .debug_str:00000000000290be .LASF3693
C:\Users\CYMR90~1\AppData\Local\Temp\ccioldvv.s:24321  .debug_str:000000000000d020 .LASF3694
C:\Users\CYMR90~1\AppData\Local\Temp\ccioldvv.s:32212  .debug_str:000000000002c6cf .LASF3695
C:\Users\CYMR90~1\AppData\Local\Temp\ccioldvv.s:23757  .debug_str:000000000000aa88 .LASF3696
C:\Users\CYMR90~1\AppData\Local\Temp\ccioldvv.s:30346  .debug_str:0000000000024f43 .LASF3697
C:\Users\CYMR90~1\AppData\Local\Temp\ccioldvv.s:23611  .debug_str:000000000000a0b2 .LASF3698
C:\Users\CYMR90~1\AppData\Local\Temp\ccioldvv.s:29382  .debug_str:00000000000212d2 .LASF3699
C:\Users\CYMR90~1\AppData\Local\Temp\ccioldvv.s:21805  .debug_str:0000000000002cc8 .LASF3700
C:\Users\CYMR90~1\AppData\Local\Temp\ccioldvv.s:27562  .debug_str:0000000000019ff2 .LASF3701
C:\Users\CYMR90~1\AppData\Local\Temp\ccioldvv.s:24419  .debug_str:000000000000d738 .LASF3702
C:\Users\CYMR90~1\AppData\Local\Temp\ccioldvv.s:22519  .debug_str:0000000000005a8d .LASF3703
C:\Users\CYMR90~1\AppData\Local\Temp\ccioldvv.s:31026  .debug_str:0000000000027b23 .LASF3704
C:\Users\CYMR90~1\AppData\Local\Temp\ccioldvv.s:24895  .debug_str:000000000000f3c2 .LASF3705
C:\Users\CYMR90~1\AppData\Local\Temp\ccioldvv.s:24103  .debug_str:000000000000c22b .LASF3706
C:\Users\CYMR90~1\AppData\Local\Temp\ccioldvv.s:29980  .debug_str:000000000002378a .LASF3707
C:\Users\CYMR90~1\AppData\Local\Temp\ccioldvv.s:21243  .debug_str:0000000000000a08 .LASF3708
C:\Users\CYMR90~1\AppData\Local\Temp\ccioldvv.s:25545  .debug_str:0000000000011d4f .LASF3709
C:\Users\CYMR90~1\AppData\Local\Temp\ccioldvv.s:29798  .debug_str:0000000000022d12 .LASF3710
C:\Users\CYMR90~1\AppData\Local\Temp\ccioldvv.s:22669  .debug_str:0000000000006331 .LASF3711
C:\Users\CYMR90~1\AppData\Local\Temp\ccioldvv.s:24031  .debug_str:000000000000bce7 .LASF3712
C:\Users\CYMR90~1\AppData\Local\Temp\ccioldvv.s:25113  .debug_str:0000000000010174 .LASF3713
C:\Users\CYMR90~1\AppData\Local\Temp\ccioldvv.s:29358  .debug_str:0000000000021164 .LASF3714
C:\Users\CYMR90~1\AppData\Local\Temp\ccioldvv.s:22307  .debug_str:0000000000004df0 .LASF3715
C:\Users\CYMR90~1\AppData\Local\Temp\ccioldvv.s:26515  .debug_str:0000000000015a9c .LASF3716
C:\Users\CYMR90~1\AppData\Local\Temp\ccioldvv.s:30822  .debug_str:0000000000026e62 .LASF3717
C:\Users\CYMR90~1\AppData\Local\Temp\ccioldvv.s:23799  .debug_str:000000000000ad3e .LASF3718
C:\Users\CYMR90~1\AppData\Local\Temp\ccioldvv.s:26109  .debug_str:00000000000141ad .LASF3719
C:\Users\CYMR90~1\AppData\Local\Temp\ccioldvv.s:28522  .debug_str:000000000001df59 .LASF3720
C:\Users\CYMR90~1\AppData\Local\Temp\ccioldvv.s:24301  .debug_str:000000000000ceca .LASF3721
C:\Users\CYMR90~1\AppData\Local\Temp\ccioldvv.s:29544  .debug_str:0000000000021d92 .LASF3722
C:\Users\CYMR90~1\AppData\Local\Temp\ccioldvv.s:22517  .debug_str:0000000000005a5b .LASF3723
C:\Users\CYMR90~1\AppData\Local\Temp\ccioldvv.s:31946  .debug_str:000000000002b4f0 .LASF3724
C:\Users\CYMR90~1\AppData\Local\Temp\ccioldvv.s:24889  .debug_str:000000000000f33f .LASF3725
C:\Users\CYMR90~1\AppData\Local\Temp\ccioldvv.s:29048  .debug_str:000000000001fec4 .LASF3726
C:\Users\CYMR90~1\AppData\Local\Temp\ccioldvv.s:22013  .debug_str:0000000000003a58 .LASF3727
C:\Users\CYMR90~1\AppData\Local\Temp\ccioldvv.s:24967  .debug_str:000000000000f89e .LASF3728
C:\Users\CYMR90~1\AppData\Local\Temp\ccioldvv.s:30600  .debug_str:0000000000026136 .LASF3729
C:\Users\CYMR90~1\AppData\Local\Temp\ccioldvv.s:23495  .debug_str:0000000000009950 .LASF3730
C:\Users\CYMR90~1\AppData\Local\Temp\ccioldvv.s:27792  .debug_str:000000000001af8a .LASF3731
C:\Users\CYMR90~1\AppData\Local\Temp\ccioldvv.s:22117  .debug_str:00000000000040c7 .LASF3732
C:\Users\CYMR90~1\AppData\Local\Temp\ccioldvv.s:30166  .debug_str:000000000002433c .LASF3733
C:\Users\CYMR90~1\AppData\Local\Temp\ccioldvv.s:23141  .debug_str:00000000000082fb .LASF3734
C:\Users\CYMR90~1\AppData\Local\Temp\ccioldvv.s:24737  .debug_str:000000000000ea4b .LASF3735
C:\Users\CYMR90~1\AppData\Local\Temp\ccioldvv.s:31622  .debug_str:000000000002a152 .LASF3736
C:\Users\CYMR90~1\AppData\Local\Temp\ccioldvv.s:22965  .debug_str:000000000000764e .LASF3737
C:\Users\CYMR90~1\AppData\Local\Temp\ccioldvv.s:28920  .debug_str:000000000001f702 .LASF3738
C:\Users\CYMR90~1\AppData\Local\Temp\ccioldvv.s:21729  .debug_str:00000000000027c7 .LASF3739
C:\Users\CYMR90~1\AppData\Local\Temp\ccioldvv.s:27116  .debug_str:00000000000182a2 .LASF3740
C:\Users\CYMR90~1\AppData\Local\Temp\ccioldvv.s:30296  .debug_str:0000000000024c0c .LASF3741
C:\Users\CYMR90~1\AppData\Local\Temp\ccioldvv.s:23149  .debug_str:0000000000008378 .LASF3742
C:\Users\CYMR90~1\AppData\Local\Temp\ccioldvv.s:30566  .debug_str:0000000000025ee4 .LASF3743
C:\Users\CYMR90~1\AppData\Local\Temp\ccioldvv.s:25691  .debug_str:000000000001269a .LASF3744
C:\Users\CYMR90~1\AppData\Local\Temp\ccioldvv.s:29856  .debug_str:0000000000023052 .LASF3745
C:\Users\CYMR90~1\AppData\Local\Temp\ccioldvv.s:22817  .debug_str:0000000000006c5a .LASF3746
C:\Users\CYMR90~1\AppData\Local\Temp\ccioldvv.s:25735  .debug_str:0000000000012977 .LASF3747
C:\Users\CYMR90~1\AppData\Local\Temp\ccioldvv.s:29050  .debug_str:000000000001fef6 .LASF3748
C:\Users\CYMR90~1\AppData\Local\Temp\ccioldvv.s:25655  .debug_str:000000000001247a .LASF3749
C:\Users\CYMR90~1\AppData\Local\Temp\ccioldvv.s:30602  .debug_str:0000000000026168 .LASF3750
C:\Users\CYMR90~1\AppData\Local\Temp\ccioldvv.s:22001  .debug_str:0000000000003971 .LASF3751
C:\Users\CYMR90~1\AppData\Local\Temp\ccioldvv.s:24257  .debug_str:000000000000cc65 .LASF3752
C:\Users\CYMR90~1\AppData\Local\Temp\ccioldvv.s:26683  .debug_str:0000000000016559 .LASF3753
C:\Users\CYMR90~1\AppData\Local\Temp\ccioldvv.s:26601  .debug_str:0000000000016095 .LASF3754
C:\Users\CYMR90~1\AppData\Local\Temp\ccioldvv.s:26531  .debug_str:0000000000015b91 .LASF3755
C:\Users\CYMR90~1\AppData\Local\Temp\ccioldvv.s:26958  .debug_str:00000000000178e3 .LASF3756
C:\Users\CYMR90~1\AppData\Local\Temp\ccioldvv.s:23985  .debug_str:000000000000b9f4 .LASF3757
C:\Users\CYMR90~1\AppData\Local\Temp\ccioldvv.s:26315  .debug_str:0000000000014e9a .LASF3758
C:\Users\CYMR90~1\AppData\Local\Temp\ccioldvv.s:29256  .debug_str:0000000000020b81 .LASF3759
C:\Users\CYMR90~1\AppData\Local\Temp\ccioldvv.s:26339  .debug_str:000000000001504f .LASF3760
C:\Users\CYMR90~1\AppData\Local\Temp\ccioldvv.s:23353  .debug_str:000000000000906b .LASF3761
C:\Users\CYMR90~1\AppData\Local\Temp\ccioldvv.s:27402  .debug_str:0000000000019577 .LASF3762
C:\Users\CYMR90~1\AppData\Local\Temp\ccioldvv.s:25393  .debug_str:0000000000011299 .LASF3763
C:\Users\CYMR90~1\AppData\Local\Temp\ccioldvv.s:23065  .debug_str:0000000000007ce0 .LASF3764
C:\Users\CYMR90~1\AppData\Local\Temp\ccioldvv.s:21405  .debug_str:000000000000140e .LASF3765
C:\Users\CYMR90~1\AppData\Local\Temp\ccioldvv.s:25033  .debug_str:000000000000fc79 .LASF3766
C:\Users\CYMR90~1\AppData\Local\Temp\ccioldvv.s:25971  .debug_str:000000000001398f .LASF3767
C:\Users\CYMR90~1\AppData\Local\Temp\ccioldvv.s:22437  .debug_str:0000000000005595 .LASF3768
C:\Users\CYMR90~1\AppData\Local\Temp\ccioldvv.s:27214  .debug_str:000000000001889b .LASF3769
C:\Users\CYMR90~1\AppData\Local\Temp\ccioldvv.s:26994  .debug_str:0000000000017b7a .LASF3770
C:\Users\CYMR90~1\AppData\Local\Temp\ccioldvv.s:23621  .debug_str:000000000000a186 .LASF3771
C:\Users\CYMR90~1\AppData\Local\Temp\ccioldvv.s:25069  .debug_str:000000000000feb3 .LASF3772
C:\Users\CYMR90~1\AppData\Local\Temp\ccioldvv.s:26924  .debug_str:00000000000176d1 .LASF3773
C:\Users\CYMR90~1\AppData\Local\Temp\ccioldvv.s:26377  .debug_str:0000000000015294 .LASF3774
C:\Users\CYMR90~1\AppData\Local\Temp\ccioldvv.s:25773  .debug_str:0000000000012c48 .LASF3775
C:\Users\CYMR90~1\AppData\Local\Temp\ccioldvv.s:28106  .debug_str:000000000001c35e .LASF3776
C:\Users\CYMR90~1\AppData\Local\Temp\ccioldvv.s:24685  .debug_str:000000000000e725 .LASF3777
C:\Users\CYMR90~1\AppData\Local\Temp\ccioldvv.s:21281  .debug_str:0000000000000ca4 .LASF3778
C:\Users\CYMR90~1\AppData\Local\Temp\ccioldvv.s:31356  .debug_str:0000000000029133 .LASF3779
C:\Users\CYMR90~1\AppData\Local\Temp\ccioldvv.s:25837  .debug_str:0000000000013046 .LASF3780
C:\Users\CYMR90~1\AppData\Local\Temp\ccioldvv.s:28446  .debug_str:000000000001da5f .LASF3781
C:\Users\CYMR90~1\AppData\Local\Temp\ccioldvv.s:21671  .debug_str:00000000000023fd .LASF3782
C:\Users\CYMR90~1\AppData\Local\Temp\ccioldvv.s:21579  .debug_str:0000000000001ee9 .LASF3783
C:\Users\CYMR90~1\AppData\Local\Temp\ccioldvv.s:30412  .debug_str:000000000002546f .LASF3784
C:\Users\CYMR90~1\AppData\Local\Temp\ccioldvv.s:30186  .debug_str:00000000000244d6 .LASF3785
C:\Users\CYMR90~1\AppData\Local\Temp\ccioldvv.s:26800  .debug_str:0000000000016f8e .LASF3786
C:\Users\CYMR90~1\AppData\Local\Temp\ccioldvv.s:26115  .debug_str:000000000001424a .LASF3787
C:\Users\CYMR90~1\AppData\Local\Temp\ccioldvv.s:31344  .debug_str:0000000000029079 .LASF3788
C:\Users\CYMR90~1\AppData\Local\Temp\ccioldvv.s:27936  .debug_str:000000000001b8e2 .LASF3789
C:\Users\CYMR90~1\AppData\Local\Temp\ccioldvv.s:21807  .debug_str:0000000000002cfa .LASF3790
C:\Users\CYMR90~1\AppData\Local\Temp\ccioldvv.s:31726  .debug_str:000000000002a78c .LASF3791
C:\Users\CYMR90~1\AppData\Local\Temp\ccioldvv.s:28488  .debug_str:000000000001dcc6 .LASF3792
C:\Users\CYMR90~1\AppData\Local\Temp\ccioldvv.s:23783  .debug_str:000000000000ac30 .LASF3793
C:\Users\CYMR90~1\AppData\Local\Temp\ccioldvv.s:22305  .debug_str:0000000000004dcc .LASF3794
C:\Users\CYMR90~1\AppData\Local\Temp\ccioldvv.s:32248  .debug_str:000000000002c906 .LASF3795
C:\Users\CYMR90~1\AppData\Local\Temp\ccioldvv.s:25529  .debug_str:0000000000011c4b .LASF3796
C:\Users\CYMR90~1\AppData\Local\Temp\ccioldvv.s:22091  .debug_str:0000000000003f5d .LASF3797
C:\Users\CYMR90~1\AppData\Local\Temp\ccioldvv.s:30048  .debug_str:0000000000023bd0 .LASF3798
C:\Users\CYMR90~1\AppData\Local\Temp\ccioldvv.s:26633  .debug_str:0000000000016288 .LASF3799
C:\Users\CYMR90~1\AppData\Local\Temp\ccioldvv.s:25083  .debug_str:000000000000ffc6 .LASF3800
C:\Users\CYMR90~1\AppData\Local\Temp\ccioldvv.s:31200  .debug_str:00000000000287a0 .LASF3801
C:\Users\CYMR90~1\AppData\Local\Temp\ccioldvv.s:29190  .debug_str:00000000000207a2 .LASF3802
C:\Users\CYMR90~1\AppData\Local\Temp\ccioldvv.s:23107  .debug_str:0000000000008032 .LASF3803
C:\Users\CYMR90~1\AppData\Local\Temp\ccioldvv.s:31040  .debug_str:0000000000027c4e .LASF3804
C:\Users\CYMR90~1\AppData\Local\Temp\ccioldvv.s:27660  .debug_str:000000000001a6fe .LASF3805
C:\Users\CYMR90~1\AppData\Local\Temp\ccioldvv.s:24273  .debug_str:000000000000cd6e .LASF3806
C:\Users\CYMR90~1\AppData\Local\Temp\ccioldvv.s:32192  .debug_str:000000000002c5b9 .LASF3807
C:\Users\CYMR90~1\AppData\Local\Temp\ccioldvv.s:22203  .debug_str:00000000000046c4 .LASF3808
C:\Users\CYMR90~1\AppData\Local\Temp\ccioldvv.s:25397  .debug_str:00000000000112d4 .LASF3809
C:\Users\CYMR90~1\AppData\Local\Temp\ccioldvv.s:28288  .debug_str:000000000001cfba .LASF3810
C:\Users\CYMR90~1\AppData\Local\Temp\ccioldvv.s:29902  .debug_str:0000000000023298 .LASF3811
C:\Users\CYMR90~1\AppData\Local\Temp\ccioldvv.s:31276  .debug_str:0000000000028c88 .LASF3812
C:\Users\CYMR90~1\AppData\Local\Temp\ccioldvv.s:21811  .debug_str:0000000000002d53 .LASF3813
C:\Users\CYMR90~1\AppData\Local\Temp\ccioldvv.s:27876  .debug_str:000000000001b533 .LASF3814
C:\Users\CYMR90~1\AppData\Local\Temp\ccioldvv.s:26347  .debug_str:00000000000150cb .LASF3815
C:\Users\CYMR90~1\AppData\Local\Temp\ccioldvv.s:22959  .debug_str:00000000000075f1 .LASF3816
C:\Users\CYMR90~1\AppData\Local\Temp\ccioldvv.s:23085  .debug_str:0000000000007e9f .LASF3817
C:\Users\CYMR90~1\AppData\Local\Temp\ccioldvv.s:29984  .debug_str:00000000000237ca .LASF3818
C:\Users\CYMR90~1\AppData\Local\Temp\ccioldvv.s:24123  .debug_str:000000000000c385 .LASF3819
C:\Users\CYMR90~1\AppData\Local\Temp\ccioldvv.s:32058  .debug_str:000000000002bc5e .LASF3820
C:\Users\CYMR90~1\AppData\Local\Temp\ccioldvv.s:21721  .debug_str:0000000000002728 .LASF3821
C:\Users\CYMR90~1\AppData\Local\Temp\ccioldvv.s:30070  .debug_str:0000000000023d17 .LASF3822
C:\Users\CYMR90~1\AppData\Local\Temp\ccioldvv.s:31996  .debug_str:000000000002b831 .LASF3823
C:\Users\CYMR90~1\AppData\Local\Temp\ccioldvv.s:28448  .debug_str:000000000001da83 .LASF3824
C:\Users\CYMR90~1\AppData\Local\Temp\ccioldvv.s:25107  .debug_str:0000000000010110 .LASF3825
C:\Users\CYMR90~1\AppData\Local\Temp\ccioldvv.s:21517  .debug_str:0000000000001b40 .LASF3826
C:\Users\CYMR90~1\AppData\Local\Temp\ccioldvv.s:29594  .debug_str:0000000000022071 .LASF3827
C:\Users\CYMR90~1\AppData\Local\Temp\ccioldvv.s:26217  .debug_str:000000000001487a .LASF3828
C:\Users\CYMR90~1\AppData\Local\Temp\ccioldvv.s:24899  .debug_str:000000000000f40c .LASF3829
C:\Users\CYMR90~1\AppData\Local\Temp\ccioldvv.s:27484  .debug_str:0000000000019b3e .LASF3830
C:\Users\CYMR90~1\AppData\Local\Temp\ccioldvv.s:27368  .debug_str:0000000000019374 .LASF3831
C:\Users\CYMR90~1\AppData\Local\Temp\ccioldvv.s:28752  .debug_str:000000000001ed1d .LASF3832
C:\Users\CYMR90~1\AppData\Local\Temp\ccioldvv.s:30680  .debug_str:0000000000026603 .LASF3833
C:\Users\CYMR90~1\AppData\Local\Temp\ccioldvv.s:24863  .debug_str:000000000000f19b .LASF3834
C:\Users\CYMR90~1\AppData\Local\Temp\ccioldvv.s:23431  .debug_str:00000000000094e9 .LASF3835
C:\Users\CYMR90~1\AppData\Local\Temp\ccioldvv.s:23491  .debug_str:000000000000990a .LASF3836
C:\Users\CYMR90~1\AppData\Local\Temp\ccioldvv.s:28326  .debug_str:000000000001d2d3 .LASF3837
C:\Users\CYMR90~1\AppData\Local\Temp\ccioldvv.s:29536  .debug_str:0000000000021d08 .LASF3838
C:\Users\CYMR90~1\AppData\Local\Temp\ccioldvv.s:21525  .debug_str:0000000000001bd0 .LASF3839
C:\Users\CYMR90~1\AppData\Local\Temp\ccioldvv.s:29454  .debug_str:00000000000217f2 .LASF3840
C:\Users\CYMR90~1\AppData\Local\Temp\ccioldvv.s:26071  .debug_str:0000000000013f73 .LASF3841
C:\Users\CYMR90~1\AppData\Local\Temp\ccioldvv.s:31738  .debug_str:000000000002a854 .LASF3842
C:\Users\CYMR90~1\AppData\Local\Temp\ccioldvv.s:29392  .debug_str:0000000000021382 .LASF3843
C:\Users\CYMR90~1\AppData\Local\Temp\ccioldvv.s:26017  .debug_str:0000000000013c4b .LASF3844
C:\Users\CYMR90~1\AppData\Local\Temp\ccioldvv.s:30698  .debug_str:0000000000026718 .LASF3845
C:\Users\CYMR90~1\AppData\Local\Temp\ccioldvv.s:30534  .debug_str:0000000000025d3d .LASF3846
C:\Users\CYMR90~1\AppData\Local\Temp\ccioldvv.s:27140  .debug_str:000000000001841d .LASF3847
C:\Users\CYMR90~1\AppData\Local\Temp\ccioldvv.s:32304  .debug_str:000000000002ccbf .LASF3848
C:\Users\CYMR90~1\AppData\Local\Temp\ccioldvv.s:31694  .debug_str:000000000002a561 .LASF3849
C:\Users\CYMR90~1\AppData\Local\Temp\ccioldvv.s:29600  .debug_str:00000000000220de .LASF3850
C:\Users\CYMR90~1\AppData\Local\Temp\ccioldvv.s:28464  .debug_str:000000000001db7b .LASF3851
C:\Users\CYMR90~1\AppData\Local\Temp\ccioldvv.s:22867  .debug_str:0000000000006fe3 .LASF3852
C:\Users\CYMR90~1\AppData\Local\Temp\ccioldvv.s:23017  .debug_str:00000000000079ba .LASF3853
C:\Users\CYMR90~1\AppData\Local\Temp\ccioldvv.s:27024  .debug_str:0000000000017d2a .LASF3854
C:\Users\CYMR90~1\AppData\Local\Temp\ccioldvv.s:30982  .debug_str:0000000000027896 .LASF3855
C:\Users\CYMR90~1\AppData\Local\Temp\ccioldvv.s:29746  .debug_str:000000000002298c .LASF3856
C:\Users\CYMR90~1\AppData\Local\Temp\ccioldvv.s:32126  .debug_str:000000000002c13a .LASF3857
C:\Users\CYMR90~1\AppData\Local\Temp\ccioldvv.s:23123  .debug_str:00000000000081d2 .LASF3858
C:\Users\CYMR90~1\AppData\Local\Temp\ccioldvv.s:25461  .debug_str:00000000000116d0 .LASF3859
C:\Users\CYMR90~1\AppData\Local\Temp\ccioldvv.s:27988  .debug_str:000000000001bbb6 .LASF3860
C:\Users\CYMR90~1\AppData\Local\Temp\ccioldvv.s:32048  .debug_str:000000000002bbdb .LASF3861
C:\Users\CYMR90~1\AppData\Local\Temp\ccioldvv.s:26159  .debug_str:00000000000144fd .LASF3862
C:\Users\CYMR90~1\AppData\Local\Temp\ccioldvv.s:28582  .debug_str:000000000001e306 .LASF3863
C:\Users\CYMR90~1\AppData\Local\Temp\ccioldvv.s:30910  .debug_str:000000000002745e .LASF3864
C:\Users\CYMR90~1\AppData\Local\Temp\ccioldvv.s:21951  .debug_str:000000000000363f .LASF3865
C:\Users\CYMR90~1\AppData\Local\Temp\ccioldvv.s:24319  .debug_str:000000000000cffa .LASF3866
C:\Users\CYMR90~1\AppData\Local\Temp\ccioldvv.s:21865  .debug_str:000000000000307e .LASF3867
C:\Users\CYMR90~1\AppData\Local\Temp\ccioldvv.s:28926  .debug_str:000000000001f766 .LASF3868
C:\Users\CYMR90~1\AppData\Local\Temp\ccioldvv.s:31310  .debug_str:0000000000028e3a .LASF3869
C:\Users\CYMR90~1\AppData\Local\Temp\ccioldvv.s:25791  .debug_str:0000000000012d30 .LASF3870
C:\Users\CYMR90~1\AppData\Local\Temp\ccioldvv.s:24579  .debug_str:000000000000e09d .LASF3871
C:\Users\CYMR90~1\AppData\Local\Temp\ccioldvv.s:21617  .debug_str:00000000000020d6 .LASF3872
C:\Users\CYMR90~1\AppData\Local\Temp\ccioldvv.s:23147  .debug_str:0000000000008352 .LASF3873
C:\Users\CYMR90~1\AppData\Local\Temp\ccioldvv.s:25491  .debug_str:000000000001198c .LASF3874
C:\Users\CYMR90~1\AppData\Local\Temp\ccioldvv.s:28230  .debug_str:000000000001cb76 .LASF3875
C:\Users\CYMR90~1\AppData\Local\Temp\ccioldvv.s:25451  .debug_str:0000000000011617 .LASF3876
C:\Users\CYMR90~1\AppData\Local\Temp\ccioldvv.s:21163  .debug_str:0000000000000547 .LASF3877
C:\Users\CYMR90~1\AppData\Local\Temp\ccioldvv.s:27870  .debug_str:000000000001b4d7 .LASF3878
C:\Users\CYMR90~1\AppData\Local\Temp\ccioldvv.s:26699  .debug_str:00000000000166c2 .LASF3879
C:\Users\CYMR90~1\AppData\Local\Temp\ccioldvv.s:24509  .debug_str:000000000000dc54 .LASF3880
C:\Users\CYMR90~1\AppData\Local\Temp\ccioldvv.s:23523  .debug_str:0000000000009b17 .LASF3881
C:\Users\CYMR90~1\AppData\Local\Temp\ccioldvv.s:27434  .debug_str:0000000000019751 .LASF3882
C:\Users\CYMR90~1\AppData\Local\Temp\ccioldvv.s:23399  .debug_str:000000000000931b .LASF3883
C:\Users\CYMR90~1\AppData\Local\Temp\ccioldvv.s:27330  .debug_str:0000000000019076 .LASF3884
C:\Users\CYMR90~1\AppData\Local\Temp\ccioldvv.s:31268  .debug_str:0000000000028c1f .LASF3885
C:\Users\CYMR90~1\AppData\Local\Temp\ccioldvv.s:26279  .debug_str:0000000000014c0f .LASF3886
C:\Users\CYMR90~1\AppData\Local\Temp\ccioldvv.s:27828  .debug_str:000000000001b219 .LASF3887
C:\Users\CYMR90~1\AppData\Local\Temp\ccioldvv.s:31846  .debug_str:000000000002aed8 .LASF3888
C:\Users\CYMR90~1\AppData\Local\Temp\ccioldvv.s:24449  .debug_str:000000000000d8f4 .LASF3889
C:\Users\CYMR90~1\AppData\Local\Temp\ccioldvv.s:23579  .debug_str:0000000000009e81 .LASF3890
C:\Users\CYMR90~1\AppData\Local\Temp\ccioldvv.s:25925  .debug_str:000000000001369f .LASF3891
C:\Users\CYMR90~1\AppData\Local\Temp\ccioldvv.s:29346  .debug_str:00000000000210e2 .LASF3892
C:\Users\CYMR90~1\AppData\Local\Temp\ccioldvv.s:27260  .debug_str:0000000000018b58 .LASF3893
C:\Users\CYMR90~1\AppData\Local\Temp\ccioldvv.s:28416  .debug_str:000000000001d884 .LASF3894
C:\Users\CYMR90~1\AppData\Local\Temp\ccioldvv.s:23817  .debug_str:000000000000ae56 .LASF3895
C:\Users\CYMR90~1\AppData\Local\Temp\ccioldvv.s:27762  .debug_str:000000000001adbd .LASF3896
C:\Users\CYMR90~1\AppData\Local\Temp\ccioldvv.s:31772  .debug_str:000000000002aa67 .LASF3897
C:\Users\CYMR90~1\AppData\Local\Temp\ccioldvv.s:27080  .debug_str:000000000001807a .LASF3898
C:\Users\CYMR90~1\AppData\Local\Temp\ccioldvv.s:25891  .debug_str:000000000001340d .LASF3899
C:\Users\CYMR90~1\AppData\Local\Temp\ccioldvv.s:32250  .debug_str:000000000002c92a .LASF3900
C:\Users\CYMR90~1\AppData\Local\Temp\ccioldvv.s:25459  .debug_str:00000000000116aa .LASF3901
C:\Users\CYMR90~1\AppData\Local\Temp\ccioldvv.s:21899  .debug_str:00000000000032d3 .LASF3902
C:\Users\CYMR90~1\AppData\Local\Temp\ccioldvv.s:31136  .debug_str:00000000000282e6 .LASF3903
C:\Users\CYMR90~1\AppData\Local\Temp\ccioldvv.s:31714  .debug_str:000000000002a6e1 .LASF3904
C:\Users\CYMR90~1\AppData\Local\Temp\ccioldvv.s:22693  .debug_str:00000000000064a9 .LASF3905
C:\Users\CYMR90~1\AppData\Local\Temp\ccioldvv.s:31704  .debug_str:000000000002a60a .LASF3906
C:\Users\CYMR90~1\AppData\Local\Temp\ccioldvv.s:24323  .debug_str:000000000000d052 .LASF3907
C:\Users\CYMR90~1\AppData\Local\Temp\ccioldvv.s:28224  .debug_str:000000000001cb24 .LASF3908
C:\Users\CYMR90~1\AppData\Local\Temp\ccioldvv.s:32188  .debug_str:000000000002c56c .LASF3909
C:\Users\CYMR90~1\AppData\Local\Temp\ccioldvv.s:23125  .debug_str:00000000000081f8 .LASF3910
C:\Users\CYMR90~1\AppData\Local\Temp\ccioldvv.s:26269  .debug_str:0000000000014b8e .LASF3911
C:\Users\CYMR90~1\AppData\Local\Temp\ccioldvv.s:25805  .debug_str:0000000000012e37 .LASF3912
C:\Users\CYMR90~1\AppData\Local\Temp\ccioldvv.s:23687  .debug_str:000000000000a5bb .LASF3913
C:\Users\CYMR90~1\AppData\Local\Temp\ccioldvv.s:27614  .debug_str:000000000001a2ed .LASF3914
C:\Users\CYMR90~1\AppData\Local\Temp\ccioldvv.s:25115  .debug_str:00000000000101a6 .LASF3915
C:\Users\CYMR90~1\AppData\Local\Temp\ccioldvv.s:28000  .debug_str:000000000001bc9e .LASF3916
C:\Users\CYMR90~1\AppData\Local\Temp\ccioldvv.s:28154  .debug_str:000000000001c5fb .LASF3917
C:\Users\CYMR90~1\AppData\Local\Temp\ccioldvv.s:29456  .debug_str:0000000000021816 .LASF3918
C:\Users\CYMR90~1\AppData\Local\Temp\ccioldvv.s:24719  .debug_str:000000000000e945 .LASF3919
C:\Users\CYMR90~1\AppData\Local\Temp\ccioldvv.s:28608  .debug_str:000000000001e46c .LASF3920
C:\Users\CYMR90~1\AppData\Local\Temp\ccioldvv.s:21255  .debug_str:0000000000000b19 .LASF3921
C:\Users\CYMR90~1\AppData\Local\Temp\ccioldvv.s:28160  .debug_str:000000000001c659 .LASF3922
C:\Users\CYMR90~1\AppData\Local\Temp\ccioldvv.s:29720  .debug_str:000000000002280e .LASF3923
C:\Users\CYMR90~1\AppData\Local\Temp\ccioldvv.s:31570  .debug_str:0000000000029e7c .LASF3924
C:\Users\CYMR90~1\AppData\Local\Temp\ccioldvv.s:24191  .debug_str:000000000000c7ac .LASF3925
C:\Users\CYMR90~1\AppData\Local\Temp\ccioldvv.s:22697  .debug_str:00000000000064e8 .LASF3926
C:\Users\CYMR90~1\AppData\Local\Temp\ccioldvv.s:32062  .debug_str:000000000002bc9a .LASF3927
C:\Users\CYMR90~1\AppData\Local\Temp\ccioldvv.s:28634  .debug_str:000000000001e610 .LASF3928
C:\Users\CYMR90~1\AppData\Local\Temp\ccioldvv.s:23011  .debug_str:0000000000007953 .LASF3929
C:\Users\CYMR90~1\AppData\Local\Temp\ccioldvv.s:21193  .debug_str:000000000000071b .LASF3930
C:\Users\CYMR90~1\AppData\Local\Temp\ccioldvv.s:32236  .debug_str:000000000002c820 .LASF3931
C:\Users\CYMR90~1\AppData\Local\Temp\ccioldvv.s:22171  .debug_str:00000000000044a8 .LASF3932
C:\Users\CYMR90~1\AppData\Local\Temp\ccioldvv.s:31506  .debug_str:0000000000029aad .LASF3933
C:\Users\CYMR90~1\AppData\Local\Temp\ccioldvv.s:27492  .debug_str:0000000000019bba .LASF3934
C:\Users\CYMR90~1\AppData\Local\Temp\ccioldvv.s:29810  .debug_str:0000000000022db4 .LASF3935
C:\Users\CYMR90~1\AppData\Local\Temp\ccioldvv.s:32010  .debug_str:000000000002b91a .LASF3936
C:\Users\CYMR90~1\AppData\Local\Temp\ccioldvv.s:24599  .debug_str:000000000000e19b .LASF3937
C:\Users\CYMR90~1\AppData\Local\Temp\ccioldvv.s:22461  .debug_str:000000000000571c .LASF3938
C:\Users\CYMR90~1\AppData\Local\Temp\ccioldvv.s:21123  .debug_str:0000000000000315 .LASF3939
C:\Users\CYMR90~1\AppData\Local\Temp\ccioldvv.s:25671  .debug_str:0000000000012577 .LASF3940
C:\Users\CYMR90~1\AppData\Local\Temp\ccioldvv.s:22041  .debug_str:0000000000003bf1 .LASF3941
C:\Users\CYMR90~1\AppData\Local\Temp\ccioldvv.s:26147  .debug_str:000000000001444a .LASF3942
C:\Users\CYMR90~1\AppData\Local\Temp\ccioldvv.s:24061  .debug_str:000000000000bf7b .LASF3943
C:\Users\CYMR90~1\AppData\Local\Temp\ccioldvv.s:21407  .debug_str:0000000000001432 .LASF3944
C:\Users\CYMR90~1\AppData\Local\Temp\ccioldvv.s:24373  .debug_str:000000000000d3dc .LASF3945
C:\Users\CYMR90~1\AppData\Local\Temp\ccioldvv.s:28806  .debug_str:000000000001f04e .LASF3946
C:\Users\CYMR90~1\AppData\Local\Temp\ccioldvv.s:30160  .debug_str:00000000000242e8 .LASF3947
C:\Users\CYMR90~1\AppData\Local\Temp\ccioldvv.s:32392  .debug_str:000000000002d254 .LASF3948
C:\Users\CYMR90~1\AppData\Local\Temp\ccioldvv.s:21401  .debug_str:00000000000013d6 .LASF3949
C:\Users\CYMR90~1\AppData\Local\Temp\ccioldvv.s:25597  .debug_str:0000000000012075 .LASF3950
C:\Users\CYMR90~1\AppData\Local\Temp\ccioldvv.s:27922  .debug_str:000000000001b80a .LASF3951
C:\Users\CYMR90~1\AppData\Local\Temp\ccioldvv.s:30588  .debug_str:000000000002603a .LASF3952
C:\Users\CYMR90~1\AppData\Local\Temp\ccioldvv.s:26317  .debug_str:0000000000014ebc .LASF3953
C:\Users\CYMR90~1\AppData\Local\Temp\ccioldvv.s:29532  .debug_str:0000000000021cc8 .LASF3954
C:\Users\CYMR90~1\AppData\Local\Temp\ccioldvv.s:21857  .debug_str:0000000000003009 .LASF3955
C:\Users\CYMR90~1\AppData\Local\Temp\ccioldvv.s:23187  .debug_str:00000000000085ec .LASF3956
C:\Users\CYMR90~1\AppData\Local\Temp\ccioldvv.s:27110  .debug_str:0000000000018245 .LASF3957
C:\Users\CYMR90~1\AppData\Local\Temp\ccioldvv.s:31060  .debug_str:0000000000027da5 .LASF3958
C:\Users\CYMR90~1\AppData\Local\Temp\ccioldvv.s:31052  .debug_str:0000000000027d1b .LASF3959
C:\Users\CYMR90~1\AppData\Local\Temp\ccioldvv.s:32252  .debug_str:000000000002c950 .LASF3960
C:\Users\CYMR90~1\AppData\Local\Temp\ccioldvv.s:31626  .debug_str:000000000002a19b .LASF3961
C:\Users\CYMR90~1\AppData\Local\Temp\ccioldvv.s:27316  .debug_str:0000000000018f98 .LASF3962
C:\Users\CYMR90~1\AppData\Local\Temp\ccioldvv.s:21735  .debug_str:000000000000284c .LASF3963
C:\Users\CYMR90~1\AppData\Local\Temp\ccioldvv.s:30498  .debug_str:0000000000025af2 .LASF3964
C:\Users\CYMR90~1\AppData\Local\Temp\ccioldvv.s:23129  .debug_str:0000000000008234 .LASF3965
C:\Users\CYMR90~1\AppData\Local\Temp\ccioldvv.s:27038  .debug_str:0000000000017dfa .LASF3966
C:\Users\CYMR90~1\AppData\Local\Temp\ccioldvv.s:31838  .debug_str:000000000002ae3d .LASF3967
C:\Users\CYMR90~1\AppData\Local\Temp\ccioldvv.s:22065  .debug_str:0000000000003d95 .LASF3968
C:\Users\CYMR90~1\AppData\Local\Temp\ccioldvv.s:27534  .debug_str:0000000000019e71 .LASF3969
C:\Users\CYMR90~1\AppData\Local\Temp\ccioldvv.s:31566  .debug_str:0000000000029e3f .LASF3970
C:\Users\CYMR90~1\AppData\Local\Temp\ccioldvv.s:29974  .debug_str:000000000002372f .LASF3971
C:\Users\CYMR90~1\AppData\Local\Temp\ccioldvv.s:29022  .debug_str:000000000001fd40 .LASF3972
C:\Users\CYMR90~1\AppData\Local\Temp\ccioldvv.s:30326  .debug_str:0000000000024df5 .LASF3973
C:\Users\CYMR90~1\AppData\Local\Temp\ccioldvv.s:23055  .debug_str:0000000000007c4b .LASF3974
C:\Users\CYMR90~1\AppData\Local\Temp\ccioldvv.s:26978  .debug_str:0000000000017a65 .LASF3975
C:\Users\CYMR90~1\AppData\Local\Temp\ccioldvv.s:23279  .debug_str:0000000000008bb8 .LASF3976
C:\Users\CYMR90~1\AppData\Local\Temp\ccioldvv.s:27706  .debug_str:000000000001aa4c .LASF3977
C:\Users\CYMR90~1\AppData\Local\Temp\ccioldvv.s:27942  .debug_str:000000000001b967 .LASF3978
C:\Users\CYMR90~1\AppData\Local\Temp\ccioldvv.s:31496  .debug_str:0000000000029a23 .LASF3979
C:\Users\CYMR90~1\AppData\Local\Temp\ccioldvv.s:24117  .debug_str:000000000000c327 .LASF3980
C:\Users\CYMR90~1\AppData\Local\Temp\ccioldvv.s:24523  .debug_str:000000000000dcfb .LASF3981
C:\Users\CYMR90~1\AppData\Local\Temp\ccioldvv.s:24979  .debug_str:000000000000f961 .LASF3982
C:\Users\CYMR90~1\AppData\Local\Temp\ccioldvv.s:22987  .debug_str:00000000000077c5 .LASF3983
C:\Users\CYMR90~1\AppData\Local\Temp\ccioldvv.s:26916  .debug_str:0000000000017654 .LASF3984
C:\Users\CYMR90~1\AppData\Local\Temp\ccioldvv.s:29954  .debug_str:00000000000235a7 .LASF3985
C:\Users\CYMR90~1\AppData\Local\Temp\ccioldvv.s:29076  .debug_str:000000000002008e .LASF3986
C:\Users\CYMR90~1\AppData\Local\Temp\ccioldvv.s:32310  .debug_str:000000000002cd17 .LASF3987
C:\Users\CYMR90~1\AppData\Local\Temp\ccioldvv.s:31436  .debug_str:00000000000296a9 .LASF3988
C:\Users\CYMR90~1\AppData\Local\Temp\ccioldvv.s:24055  .debug_str:000000000000bf02 .LASF3989
C:\Users\CYMR90~1\AppData\Local\Temp\ccioldvv.s:28016  .debug_str:000000000001bd9a .LASF3990
C:\Users\CYMR90~1\AppData\Local\Temp\ccioldvv.s:30348  .debug_str:0000000000024f75 .LASF3991
C:\Users\CYMR90~1\AppData\Local\Temp\ccioldvv.s:26379  .debug_str:00000000000152b8 .LASF3992
C:\Users\CYMR90~1\AppData\Local\Temp\ccioldvv.s:26860  .debug_str:00000000000172fa .LASF3993
C:\Users\CYMR90~1\AppData\Local\Temp\ccioldvv.s:28768  .debug_str:000000000001ee16 .LASF3994
C:\Users\CYMR90~1\AppData\Local\Temp\ccioldvv.s:21307  .debug_str:0000000000000e0e .LASF3995
C:\Users\CYMR90~1\AppData\Local\Temp\ccioldvv.s:27346  .debug_str:000000000001923f .LASF3996
C:\Users\CYMR90~1\AppData\Local\Temp\ccioldvv.s:26866  .debug_str:0000000000017366 .LASF3997
C:\Users\CYMR90~1\AppData\Local\Temp\ccioldvv.s:23115  .debug_str:000000000000813c .LASF3998
C:\Users\CYMR90~1\AppData\Local\Temp\ccioldvv.s:31546  .debug_str:0000000000029d04 .LASF3999
C:\Users\CYMR90~1\AppData\Local\Temp\ccioldvv.s:31858  .debug_str:000000000002af81 .LASF4000
C:\Users\CYMR90~1\AppData\Local\Temp\ccioldvv.s:24893  .debug_str:000000000000f39c .LASF4001
C:\Users\CYMR90~1\AppData\Local\Temp\ccioldvv.s:32260  .debug_str:000000000002c9e1 .LASF4002
C:\Users\CYMR90~1\AppData\Local\Temp\ccioldvv.s:30724  .debug_str:00000000000268b6 .LASF4003
C:\Users\CYMR90~1\AppData\Local\Temp\ccioldvv.s:23347  .debug_str:0000000000009006 .LASF4004
C:\Users\CYMR90~1\AppData\Local\Temp\ccioldvv.s:27278  .debug_str:0000000000018d3e .LASF4005
C:\Users\CYMR90~1\AppData\Local\Temp\ccioldvv.s:30374  .debug_str:0000000000025112 .LASF4006
C:\Users\CYMR90~1\AppData\Local\Temp\ccioldvv.s:30200  .debug_str:00000000000245c7 .LASF4007
C:\Users\CYMR90~1\AppData\Local\Temp\ccioldvv.s:27854  .debug_str:000000000001b3df .LASF4008
C:\Users\CYMR90~1\AppData\Local\Temp\ccioldvv.s:31786  .debug_str:000000000002ab15 .LASF4009
C:\Users\CYMR90~1\AppData\Local\Temp\ccioldvv.s:24401  .debug_str:000000000000d5ee .LASF4010
C:\Users\CYMR90~1\AppData\Local\Temp\ccioldvv.s:30726  .debug_str:00000000000268dc .LASF4011
C:\Users\CYMR90~1\AppData\Local\Temp\ccioldvv.s:26761  .debug_str:0000000000016ae7 .LASF4012
C:\Users\CYMR90~1\AppData\Local\Temp\ccioldvv.s:23283  .debug_str:0000000000008bf2 .LASF4013
C:\Users\CYMR90~1\AppData\Local\Temp\ccioldvv.s:27202  .debug_str:00000000000187ca .LASF4014
C:\Users\CYMR90~1\AppData\Local\Temp\ccioldvv.s:25253  .debug_str:00000000000109b6 .LASF4015
C:\Users\CYMR90~1\AppData\Local\Temp\ccioldvv.s:23857  .debug_str:000000000000b1ac .LASF4016
C:\Users\CYMR90~1\AppData\Local\Temp\ccioldvv.s:27238  .debug_str:0000000000018a19 .LASF4017
C:\Users\CYMR90~1\AppData\Local\Temp\ccioldvv.s:27454  .debug_str:00000000000198f2 .LASF4018
C:\Users\CYMR90~1\AppData\Local\Temp\ccioldvv.s:31940  .debug_str:000000000002b484 .LASF4019
C:\Users\CYMR90~1\AppData\Local\Temp\ccioldvv.s:22909  .debug_str:00000000000072f3 .LASF4020
C:\Users\CYMR90~1\AppData\Local\Temp\ccioldvv.s:32202  .debug_str:000000000002c63d .LASF4021
C:\Users\CYMR90~1\AppData\Local\Temp\ccioldvv.s:29238  .debug_str:0000000000020a8d .LASF4022
C:\Users\CYMR90~1\AppData\Local\Temp\ccioldvv.s:22851  .debug_str:0000000000006ecc .LASF4023
C:\Users\CYMR90~1\AppData\Local\Temp\ccioldvv.s:31172  .debug_str:00000000000285a8 .LASF4024
C:\Users\CYMR90~1\AppData\Local\Temp\ccioldvv.s:23787  .debug_str:000000000000ac7a .LASF4025
C:\Users\CYMR90~1\AppData\Local\Temp\ccioldvv.s:22451  .debug_str:0000000000005644 .LASF4026
C:\Users\CYMR90~1\AppData\Local\Temp\ccioldvv.s:23225  .debug_str:000000000000882e .LASF4027
C:\Users\CYMR90~1\AppData\Local\Temp\ccioldvv.s:24281  .debug_str:000000000000cde8 .LASF4028
C:\Users\CYMR90~1\AppData\Local\Temp\ccioldvv.s:28174  .debug_str:000000000001c72d .LASF4029
C:\Users\CYMR90~1\AppData\Local\Temp\ccioldvv.s:32136  .debug_str:000000000002c1b4 .LASF4030
C:\Users\CYMR90~1\AppData\Local\Temp\ccioldvv.s:24833  .debug_str:000000000000efe7 .LASF4031
C:\Users\CYMR90~1\AppData\Local\Temp\ccioldvv.s:28962  .debug_str:000000000001f983 .LASF4032
C:\Users\CYMR90~1\AppData\Local\Temp\ccioldvv.s:29580  .debug_str:0000000000021fbc .LASF4033
C:\Users\CYMR90~1\AppData\Local\Temp\ccioldvv.s:31968  .debug_str:000000000002b68a .LASF4034
C:\Users\CYMR90~1\AppData\Local\Temp\ccioldvv.s:27666  .debug_str:000000000001a753 .LASF4035
C:\Users\CYMR90~1\AppData\Local\Temp\ccioldvv.s:30304  .debug_str:0000000000024cad .LASF4036
C:\Users\CYMR90~1\AppData\Local\Temp\ccioldvv.s:27634  .debug_str:000000000001a5cf .LASF4037
C:\Users\CYMR90~1\AppData\Local\Temp\ccioldvv.s:28100  .debug_str:000000000001c30a .LASF4038
C:\Users\CYMR90~1\AppData\Local\Temp\ccioldvv.s:21199  .debug_str:0000000000000772 .LASF4039
C:\Users\CYMR90~1\AppData\Local\Temp\ccioldvv.s:24205  .debug_str:000000000000c875 .LASF4040
C:\Users\CYMR90~1\AppData\Local\Temp\ccioldvv.s:22161  .debug_str:00000000000043fe .LASF4041
C:\Users\CYMR90~1\AppData\Local\Temp\ccioldvv.s:22523  .debug_str:0000000000005afb .LASF4042
C:\Users\CYMR90~1\AppData\Local\Temp\ccioldvv.s:23657  .debug_str:000000000000a3b1 .LASF4043
C:\Users\CYMR90~1\AppData\Local\Temp\ccioldvv.s:27578  .debug_str:000000000001a0ef .LASF4044
C:\Users\CYMR90~1\AppData\Local\Temp\ccioldvv.s:31518  .debug_str:0000000000029b6a .LASF4045
C:\Users\CYMR90~1\AppData\Local\Temp\ccioldvv.s:24141  .debug_str:000000000000c4a2 .LASF4046
C:\Users\CYMR90~1\AppData\Local\Temp\ccioldvv.s:28044  .debug_str:000000000001bf7f .LASF4047
C:\Users\CYMR90~1\AppData\Local\Temp\ccioldvv.s:28282  .debug_str:000000000001cf69 .LASF4048
C:\Users\CYMR90~1\AppData\Local\Temp\ccioldvv.s:27726  .debug_str:000000000001aba6 .LASF4049
C:\Users\CYMR90~1\AppData\Local\Temp\ccioldvv.s:28578  .debug_str:000000000001e2d0 .LASF4050
C:\Users\CYMR90~1\AppData\Local\Temp\ccioldvv.s:32204  .debug_str:000000000002c663 .LASF4051
C:\Users\CYMR90~1\AppData\Local\Temp\ccioldvv.s:23745  .debug_str:000000000000a9f7 .LASF4052
C:\Users\CYMR90~1\AppData\Local\Temp\ccioldvv.s:22195  .debug_str:0000000000004641 .LASF4053
C:\Users\CYMR90~1\AppData\Local\Temp\ccioldvv.s:26239  .debug_str:00000000000149bf .LASF4054
C:\Users\CYMR90~1\AppData\Local\Temp\ccioldvv.s:30176  .debug_str:0000000000024409 .LASF4055
C:\Users\CYMR90~1\AppData\Local\Temp\ccioldvv.s:22777  .debug_str:00000000000069f0 .LASF4056
C:\Users\CYMR90~1\AppData\Local\Temp\ccioldvv.s:29660  .debug_str:0000000000022458 .LASF4057
C:\Users\CYMR90~1\AppData\Local\Temp\ccioldvv.s:32044  .debug_str:000000000002bb7a .LASF4058
C:\Users\CYMR90~1\AppData\Local\Temp\ccioldvv.s:22761  .debug_str:00000000000068e5 .LASF4059
C:\Users\CYMR90~1\AppData\Local\Temp\ccioldvv.s:27196  .debug_str:000000000001877e .LASF4060
C:\Users\CYMR90~1\AppData\Local\Temp\ccioldvv.s:31234  .debug_str:0000000000028a0f .LASF4061
C:\Users\CYMR90~1\AppData\Local\Temp\ccioldvv.s:28202  .debug_str:000000000001c9a7 .LASF4062
C:\Users\CYMR90~1\AppData\Local\Temp\ccioldvv.s:26183  .debug_str:0000000000014626 .LASF4063
C:\Users\CYMR90~1\AppData\Local\Temp\ccioldvv.s:30258  .debug_str:0000000000024952 .LASF4064
C:\Users\CYMR90~1\AppData\Local\Temp\ccioldvv.s:30858  .debug_str:00000000000270a6 .LASF4065
C:\Users\CYMR90~1\AppData\Local\Temp\ccioldvv.s:28380  .debug_str:000000000001d60b .LASF4066
C:\Users\CYMR90~1\AppData\Local\Temp\ccioldvv.s:29116  .debug_str:00000000000202ba .LASF4067
C:\Users\CYMR90~1\AppData\Local\Temp\ccioldvv.s:25235  .debug_str:00000000000108ac .LASF4068
C:\Users\CYMR90~1\AppData\Local\Temp\ccioldvv.s:28820  .debug_str:000000000001f13a .LASF4069
C:\Users\CYMR90~1\AppData\Local\Temp\ccioldvv.s:23583  .debug_str:0000000000009ec0 .LASF4070
C:\Users\CYMR90~1\AppData\Local\Temp\ccioldvv.s:23105  .debug_str:000000000000800c .LASF4071
C:\Users\CYMR90~1\AppData\Local\Temp\ccioldvv.s:32184  .debug_str:000000000002c52d .LASF4072
C:\Users\CYMR90~1\AppData\Local\Temp\ccioldvv.s:32064  .debug_str:000000000002bcc0 .LASF4073
C:\Users\CYMR90~1\AppData\Local\Temp\ccioldvv.s:23451  .debug_str:0000000000009664 .LASF4074
C:\Users\CYMR90~1\AppData\Local\Temp\ccioldvv.s:26573  .debug_str:0000000000015e89 .LASF4075
C:\Users\CYMR90~1\AppData\Local\Temp\ccioldvv.s:30516  .debug_str:0000000000025c17 .LASF4076
C:\Users\CYMR90~1\AppData\Local\Temp\ccioldvv.s:25665  .debug_str:000000000001251c .LASF4077
C:\Users\CYMR90~1\AppData\Local\Temp\ccioldvv.s:25709  .debug_str:00000000000127d3 .LASF4078
C:\Users\CYMR90~1\AppData\Local\Temp\ccioldvv.s:24307  .debug_str:000000000000cf30 .LASF4079
C:\Users\CYMR90~1\AppData\Local\Temp\ccioldvv.s:23717  .debug_str:000000000000a73e .LASF4080
C:\Users\CYMR90~1\AppData\Local\Temp\ccioldvv.s:27656  .debug_str:000000000001a6c0 .LASF4081
C:\Users\CYMR90~1\AppData\Local\Temp\ccioldvv.s:24715  .debug_str:000000000000e90f .LASF4082
C:\Users\CYMR90~1\AppData\Local\Temp\ccioldvv.s:22563  .debug_str:0000000000005d1d .LASF4083
C:\Users\CYMR90~1\AppData\Local\Temp\ccioldvv.s:28850  .debug_str:000000000001f31c .LASF4084
C:\Users\CYMR90~1\AppData\Local\Temp\ccioldvv.s:30450  .debug_str:000000000002570e .LASF4085
C:\Users\CYMR90~1\AppData\Local\Temp\ccioldvv.s:30238  .debug_str:0000000000024819 .LASF4086
C:\Users\CYMR90~1\AppData\Local\Temp\ccioldvv.s:22125  .debug_str:00000000000041e9 .LASF4087
C:\Users\CYMR90~1\AppData\Local\Temp\ccioldvv.s:27826  .debug_str:000000000001b1f3 .LASF4088
C:\Users\CYMR90~1\AppData\Local\Temp\ccioldvv.s:25323  .debug_str:0000000000010ea0 .LASF4089
C:\Users\CYMR90~1\AppData\Local\Temp\ccioldvv.s:27570  .debug_str:000000000001a078 .LASF4090
C:\Users\CYMR90~1\AppData\Local\Temp\ccioldvv.s:31512  .debug_str:0000000000029b00 .LASF4091
C:\Users\CYMR90~1\AppData\Local\Temp\ccioldvv.s:30840  .debug_str:0000000000026fa7 .LASF4092
C:\Users\CYMR90~1\AppData\Local\Temp\ccioldvv.s:26449  .debug_str:00000000000156bc .LASF4093
C:\Users\CYMR90~1\AppData\Local\Temp\ccioldvv.s:32146  .debug_str:000000000002c281 .LASF4094
C:\Users\CYMR90~1\AppData\Local\Temp\ccioldvv.s:22999  .debug_str:0000000000007897 .LASF4095
C:\Users\CYMR90~1\AppData\Local\Temp\ccioldvv.s:30398  .debug_str:00000000000252f3 .LASF4096
C:\Users\CYMR90~1\AppData\Local\Temp\ccioldvv.s:32384  .debug_str:000000000002d1d0 .LASF4097
C:\Users\CYMR90~1\AppData\Local\Temp\ccioldvv.s:22291  .debug_str:0000000000004ceb .LASF4098
C:\Users\CYMR90~1\AppData\Local\Temp\ccioldvv.s:27508  .debug_str:0000000000019cca .LASF4099
C:\Users\CYMR90~1\AppData\Local\Temp\ccioldvv.s:26980  .debug_str:0000000000017a8b .LASF4100
C:\Users\CYMR90~1\AppData\Local\Temp\ccioldvv.s:24067  .debug_str:000000000000bfd9 .LASF4101
C:\Users\CYMR90~1\AppData\Local\Temp\ccioldvv.s:25385  .debug_str:0000000000011215 .LASF4102
C:\Users\CYMR90~1\AppData\Local\Temp\ccioldvv.s:23553  .debug_str:0000000000009cf9 .LASF4103
C:\Users\CYMR90~1\AppData\Local\Temp\ccioldvv.s:30606  .debug_str:00000000000261a5 .LASF4104
C:\Users\CYMR90~1\AppData\Local\Temp\ccioldvv.s:26950  .debug_str:0000000000017868 .LASF4105
C:\Users\CYMR90~1\AppData\Local\Temp\ccioldvv.s:27446  .debug_str:0000000000019848 .LASF4106
C:\Users\CYMR90~1\AppData\Local\Temp\ccioldvv.s:28162  .debug_str:000000000001c67f .LASF4107
C:\Users\CYMR90~1\AppData\Local\Temp\ccioldvv.s:27450  .debug_str:00000000000198a7 .LASF4108
C:\Users\CYMR90~1\AppData\Local\Temp\ccioldvv.s:31390  .debug_str:0000000000029350 .LASF4109
C:\Users\CYMR90~1\AppData\Local\Temp\ccioldvv.s:21501  .debug_str:0000000000001a34 .LASF4110
C:\Users\CYMR90~1\AppData\Local\Temp\ccioldvv.s:23871  .debug_str:000000000000b29e .LASF4111
C:\Users\CYMR90~1\AppData\Local\Temp\ccioldvv.s:25009  .debug_str:000000000000faf7 .LASF4112
C:\Users\CYMR90~1\AppData\Local\Temp\ccioldvv.s:22861  .debug_str:0000000000006f55 .LASF4113
C:\Users\CYMR90~1\AppData\Local\Temp\ccioldvv.s:26894  .debug_str:0000000000017500 .LASF4114
C:\Users\CYMR90~1\AppData\Local\Temp\ccioldvv.s:30832  .debug_str:0000000000026f2f .LASF4115
C:\Users\CYMR90~1\AppData\Local\Temp\ccioldvv.s:29330  .debug_str:0000000000021001 .LASF4116
C:\Users\CYMR90~1\AppData\Local\Temp\ccioldvv.s:27382  .debug_str:0000000000019441 .LASF4117
C:\Users\CYMR90~1\AppData\Local\Temp\ccioldvv.s:22679  .debug_str:00000000000063ef .LASF4118
C:\Users\CYMR90~1\AppData\Local\Temp\ccioldvv.s:23935  .debug_str:000000000000b6af .LASF4119
C:\Users\CYMR90~1\AppData\Local\Temp\ccioldvv.s:27374  .debug_str:00000000000193cb .LASF4120
C:\Users\CYMR90~1\AppData\Local\Temp\ccioldvv.s:25557  .debug_str:0000000000011de1 .LASF4121
C:\Users\CYMR90~1\AppData\Local\Temp\ccioldvv.s:22595  .debug_str:0000000000005edf .LASF4122
C:\Users\CYMR90~1\AppData\Local\Temp\ccioldvv.s:26834  .debug_str:0000000000017193 .LASF4123
C:\Users\CYMR90~1\AppData\Local\Temp\ccioldvv.s:30760  .debug_str:0000000000026ad0 .LASF4124
C:\Users\CYMR90~1\AppData\Local\Temp\ccioldvv.s:23385  .debug_str:0000000000009236 .LASF4125
C:\Users\CYMR90~1\AppData\Local\Temp\ccioldvv.s:21465  .debug_str:0000000000001803 .LASF4126
C:\Users\CYMR90~1\AppData\Local\Temp\ccioldvv.s:27486  .debug_str:0000000000019b62 .LASF4127
C:\Users\CYMR90~1\AppData\Local\Temp\ccioldvv.s:28514  .debug_str:000000000001dee1 .LASF4128
C:\Users\CYMR90~1\AppData\Local\Temp\ccioldvv.s:27816  .debug_str:000000000001b15a .LASF4129
C:\Users\CYMR90~1\AppData\Local\Temp\ccioldvv.s:31732  .debug_str:000000000002a7ff .LASF4130
C:\Users\CYMR90~1\AppData\Local\Temp\ccioldvv.s:24439  .debug_str:000000000000d87e .LASF4131
C:\Users\CYMR90~1\AppData\Local\Temp\ccioldvv.s:21469  .debug_str:000000000000184f .LASF4132
C:\Users\CYMR90~1\AppData\Local\Temp\ccioldvv.s:30696  .debug_str:00000000000266f2 .LASF4133
C:\Users\CYMR90~1\AppData\Local\Temp\ccioldvv.s:25081  .debug_str:000000000000ffa0 .LASF4134
C:\Users\CYMR90~1\AppData\Local\Temp\ccioldvv.s:27552  .debug_str:0000000000019f63 .LASF4135
C:\Users\CYMR90~1\AppData\Local\Temp\ccioldvv.s:29714  .debug_str:0000000000022790 .LASF4136
C:\Users\CYMR90~1\AppData\Local\Temp\ccioldvv.s:32092  .debug_str:000000000002be8d .LASF4137
C:\Users\CYMR90~1\AppData\Local\Temp\ccioldvv.s:27752  .debug_str:000000000001ad1f .LASF4138
C:\Users\CYMR90~1\AppData\Local\Temp\ccioldvv.s:31672  .debug_str:000000000002a3f8 .LASF4139
C:\Users\CYMR90~1\AppData\Local\Temp\ccioldvv.s:28594  .debug_str:000000000001e3a5 .LASF4140
C:\Users\CYMR90~1\AppData\Local\Temp\ccioldvv.s:25025  .debug_str:000000000000fbe4 .LASF4141
C:\Users\CYMR90~1\AppData\Local\Temp\ccioldvv.s:25371  .debug_str:0000000000011135 .LASF4142
C:\Users\CYMR90~1\AppData\Local\Temp\ccioldvv.s:23253  .debug_str:0000000000008a22 .LASF4143
C:\Users\CYMR90~1\AppData\Local\Temp\ccioldvv.s:27168  .debug_str:00000000000185e8 .LASF4144
C:\Users\CYMR90~1\AppData\Local\Temp\ccioldvv.s:28314  .debug_str:000000000001d1f1 .LASF4145
C:\Users\CYMR90~1\AppData\Local\Temp\ccioldvv.s:25349  .debug_str:0000000000010fdc .LASF4146
C:\Users\CYMR90~1\AppData\Local\Temp\ccioldvv.s:27680  .debug_str:000000000001a855 .LASF4147
C:\Users\CYMR90~1\AppData\Local\Temp\ccioldvv.s:26065  .debug_str:0000000000013f0f .LASF4148
C:\Users\CYMR90~1\AppData\Local\Temp\ccioldvv.s:28638  .debug_str:000000000001e666 .LASF4149
C:\Users\CYMR90~1\AppData\Local\Temp\ccioldvv.s:29394  .debug_str:00000000000213a6 .LASF4150
C:\Users\CYMR90~1\AppData\Local\Temp\ccioldvv.s:25503  .debug_str:0000000000011a38 .LASF4151
C:\Users\CYMR90~1\AppData\Local\Temp\ccioldvv.s:23785  .debug_str:000000000000ac54 .LASF4152
C:\Users\CYMR90~1\AppData\Local\Temp\ccioldvv.s:21903  .debug_str:0000000000003311 .LASF4153
C:\Users\CYMR90~1\AppData\Local\Temp\ccioldvv.s:25863  .debug_str:000000000001320c .LASF4154
C:\Users\CYMR90~1\AppData\Local\Temp\ccioldvv.s:29426  .debug_str:000000000002163a .LASF4155
C:\Users\CYMR90~1\AppData\Local\Temp\ccioldvv.s:22357  .debug_str:00000000000050d8 .LASF4156
C:\Users\CYMR90~1\AppData\Local\Temp\ccioldvv.s:26313  .debug_str:0000000000014e74 .LASF4157
C:\Users\CYMR90~1\AppData\Local\Temp\ccioldvv.s:30248  .debug_str:00000000000248b6 .LASF4158
C:\Users\CYMR90~1\AppData\Local\Temp\ccioldvv.s:22853  .debug_str:0000000000006ef2 .LASF4159
C:\Users\CYMR90~1\AppData\Local\Temp\ccioldvv.s:22139  .debug_str:00000000000042bf .LASF4160
C:\Users\CYMR90~1\AppData\Local\Temp\ccioldvv.s:30824  .debug_str:0000000000026e94 .LASF4161
C:\Users\CYMR90~1\AppData\Local\Temp\ccioldvv.s:29040  .debug_str:000000000001fe1e .LASF4162
C:\Users\CYMR90~1\AppData\Local\Temp\ccioldvv.s:25813  .debug_str:0000000000012ed2 .LASF4163
C:\Users\CYMR90~1\AppData\Local\Temp\ccioldvv.s:29704  .debug_str:00000000000226de .LASF4164
C:\Users\CYMR90~1\AppData\Local\Temp\ccioldvv.s:25651  .debug_str:000000000001241d .LASF4165
C:\Users\CYMR90~1\AppData\Local\Temp\ccioldvv.s:26359  .debug_str:0000000000015192 .LASF4166
C:\Users\CYMR90~1\AppData\Local\Temp\ccioldvv.s:32256  .debug_str:000000000002c9a3 .LASF4167
C:\Users\CYMR90~1\AppData\Local\Temp\ccioldvv.s:30990  .debug_str:000000000002791b .LASF4168
C:\Users\CYMR90~1\AppData\Local\Temp\ccioldvv.s:26727  .debug_str:000000000001686d .LASF4169
C:\Users\CYMR90~1\AppData\Local\Temp\ccioldvv.s:25227  .debug_str:0000000000010848 .LASF4170
C:\Users\CYMR90~1\AppData\Local\Temp\ccioldvv.s:23377  .debug_str:00000000000091c7 .LASF4171
C:\Users\CYMR90~1\AppData\Local\Temp\ccioldvv.s:31784  .debug_str:000000000002aaef .LASF4172
C:\Users\CYMR90~1\AppData\Local\Temp\ccioldvv.s:29634  .debug_str:00000000000222de .LASF4173
C:\Users\CYMR90~1\AppData\Local\Temp\ccioldvv.s:26609  .debug_str:0000000000016110 .LASF4174
C:\Users\CYMR90~1\AppData\Local\Temp\ccioldvv.s:29818  .debug_str:0000000000022e3c .LASF4175
C:\Users\CYMR90~1\AppData\Local\Temp\ccioldvv.s:24927  .debug_str:000000000000f5a8 .LASF4176
C:\Users\CYMR90~1\AppData\Local\Temp\ccioldvv.s:22721  .debug_str:0000000000006638 .LASF4177
C:\Users\CYMR90~1\AppData\Local\Temp\ccioldvv.s:26655  .debug_str:00000000000163c9 .LASF4178
C:\Users\CYMR90~1\AppData\Local\Temp\ccioldvv.s:30688  .debug_str:0000000000026678 .LASF4179
C:\Users\CYMR90~1\AppData\Local\Temp\ccioldvv.s:23321  .debug_str:0000000000008ea8 .LASF4180
C:\Users\CYMR90~1\AppData\Local\Temp\ccioldvv.s:27234  .debug_str:00000000000189b9 .LASF4181
C:\Users\CYMR90~1\AppData\Local\Temp\ccioldvv.s:24335  .debug_str:000000000000d121 .LASF4182
C:\Users\CYMR90~1\AppData\Local\Temp\ccioldvv.s:22175  .debug_str:00000000000044f2 .LASF4183
C:\Users\CYMR90~1\AppData\Local\Temp\ccioldvv.s:26127  .debug_str:0000000000014322 .LASF4184
C:\Users\CYMR90~1\AppData\Local\Temp\ccioldvv.s:24185  .debug_str:000000000000c721 .LASF4185
C:\Users\CYMR90~1\AppData\Local\Temp\ccioldvv.s:22651  .debug_str:000000000000622e .LASF4186
C:\Users\CYMR90~1\AppData\Local\Temp\ccioldvv.s:21787  .debug_str:0000000000002bc8 .LASF4187
C:\Users\CYMR90~1\AppData\Local\Temp\ccioldvv.s:32264  .debug_str:000000000002ca2b .LASF4188
C:\Users\CYMR90~1\AppData\Local\Temp\ccioldvv.s:23267  .debug_str:0000000000008af2 .LASF4189
C:\Users\CYMR90~1\AppData\Local\Temp\ccioldvv.s:27162  .debug_str:000000000001857a .LASF4190
C:\Users\CYMR90~1\AppData\Local\Temp\ccioldvv.s:28294  .debug_str:000000000001d029 .LASF4191
C:\Users\CYMR90~1\AppData\Local\Temp\ccioldvv.s:28170  .debug_str:000000000001c6e8 .LASF4192
C:\Users\CYMR90~1\AppData\Local\Temp\ccioldvv.s:26061  .debug_str:0000000000013ecc .LASF4193
C:\Users\CYMR90~1\AppData\Local\Temp\ccioldvv.s:29994  .debug_str:000000000002387f .LASF4194
C:\Users\CYMR90~1\AppData\Local\Temp\ccioldvv.s:26459  .debug_str:000000000001576e .LASF4195
C:\Users\CYMR90~1\AppData\Local\Temp\ccioldvv.s:31164  .debug_str:0000000000028538 .LASF4196
C:\Users\CYMR90~1\AppData\Local\Temp\ccioldvv.s:24455  .debug_str:000000000000d960 .LASF4197
C:\Users\CYMR90~1\AppData\Local\Temp\ccioldvv.s:23173  .debug_str:000000000000851a .LASF4198
C:\Users\CYMR90~1\AppData\Local\Temp\ccioldvv.s:29086  .debug_str:0000000000020128 .LASF4199
C:\Users\CYMR90~1\AppData\Local\Temp\ccioldvv.s:31048  .debug_str:0000000000027cd3 .LASF4200
C:\Users\CYMR90~1\AppData\Local\Temp\ccioldvv.s:23661  .debug_str:000000000000a3ef .LASF4201
C:\Users\CYMR90~1\AppData\Local\Temp\ccioldvv.s:32074  .debug_str:000000000002bd47 .LASF4202
C:\Users\CYMR90~1\AppData\Local\Temp\ccioldvv.s:22961  .debug_str:0000000000007615 .LASF4203
C:\Users\CYMR90~1\AppData\Local\Temp\ccioldvv.s:22515  .debug_str:0000000000005a35 .LASF4204
C:\Users\CYMR90~1\AppData\Local\Temp\ccioldvv.s:25631  .debug_str:000000000001230c .LASF4205
C:\Users\CYMR90~1\AppData\Local\Temp\ccioldvv.s:25419  .debug_str:000000000001140e .LASF4206
C:\Users\CYMR90~1\AppData\Local\Temp\ccioldvv.s:30270  .debug_str:0000000000024a9f .LASF4207
C:\Users\CYMR90~1\AppData\Local\Temp\ccioldvv.s:26695  .debug_str:000000000001667e .LASF4208
C:\Users\CYMR90~1\AppData\Local\Temp\ccioldvv.s:23649  .debug_str:000000000000a32a .LASF4209
C:\Users\CYMR90~1\AppData\Local\Temp\ccioldvv.s:21771  .debug_str:0000000000002a8d .LASF4210
C:\Users\CYMR90~1\AppData\Local\Temp\ccioldvv.s:29060  .debug_str:000000000001ffb1 .LASF4211
C:\Users\CYMR90~1\AppData\Local\Temp\ccioldvv.s:23855  .debug_str:000000000000b186 .LASF4212
C:\Users\CYMR90~1\AppData\Local\Temp\ccioldvv.s:22445  .debug_str:00000000000055f8 .LASF4213
C:\Users\CYMR90~1\AppData\Local\Temp\ccioldvv.s:23069  .debug_str:0000000000007d1e .LASF4214
C:\Users\CYMR90~1\AppData\Local\Temp\ccioldvv.s:31476  .debug_str:0000000000029928 .LASF4215
C:\Users\CYMR90~1\AppData\Local\Temp\ccioldvv.s:23041  .debug_str:0000000000007b7e .LASF4216
C:\Users\CYMR90~1\AppData\Local\Temp\ccioldvv.s:22613  .debug_str:0000000000005fe9 .LASF4217
C:\Users\CYMR90~1\AppData\Local\Temp\ccioldvv.s:23393  .debug_str:00000000000092bc .LASF4218
C:\Users\CYMR90~1\AppData\Local\Temp\ccioldvv.s:30074  .debug_str:0000000000023d51 .LASF4219
C:\Users\CYMR90~1\AppData\Local\Temp\ccioldvv.s:22219  .debug_str:00000000000047e7 .LASF4220
C:\Users\CYMR90~1\AppData\Local\Temp\ccioldvv.s:22813  .debug_str:0000000000006c07 .LASF4221
C:\Users\CYMR90~1\AppData\Local\Temp\ccioldvv.s:31950  .debug_str:000000000002b545 .LASF4222
C:\Users\CYMR90~1\AppData\Local\Temp\ccioldvv.s:22387  .debug_str:00000000000052a1 .LASF4223
C:\Users\CYMR90~1\AppData\Local\Temp\ccioldvv.s:23671  .debug_str:000000000000a4c4 .LASF4224
C:\Users\CYMR90~1\AppData\Local\Temp\ccioldvv.s:22971  .debug_str:00000000000076cb .LASF4225
C:\Users\CYMR90~1\AppData\Local\Temp\ccioldvv.s:28320  .debug_str:000000000001d256 .LASF4226
C:\Users\CYMR90~1\AppData\Local\Temp\ccioldvv.s:30652  .debug_str:0000000000026453 .LASF4227
C:\Users\CYMR90~1\AppData\Local\Temp\ccioldvv.s:27672  .debug_str:000000000001a7c5 .LASF4228
C:\Users\CYMR90~1\AppData\Local\Temp\ccioldvv.s:24029  .debug_str:000000000000bcc1 .LASF4229
C:\Users\CYMR90~1\AppData\Local\Temp\ccioldvv.s:31422  .debug_str:00000000000295b0 .LASF4230
C:\Users\CYMR90~1\AppData\Local\Temp\ccioldvv.s:23793  .debug_str:000000000000acf2 .LASF4231
C:\Users\CYMR90~1\AppData\Local\Temp\ccioldvv.s:25613  .debug_str:00000000000121b7 .LASF4232
C:\Users\CYMR90~1\AppData\Local\Temp\ccioldvv.s:30294  .debug_str:0000000000024be6 .LASF4233
C:\Users\CYMR90~1\AppData\Local\Temp\ccioldvv.s:29482  .debug_str:00000000000219ae .LASF4234
C:\Users\CYMR90~1\AppData\Local\Temp\ccioldvv.s:26850  .debug_str:000000000001726d .LASF4235
C:\Users\CYMR90~1\AppData\Local\Temp\ccioldvv.s:30776  .debug_str:0000000000026bdb .LASF4236
C:\Users\CYMR90~1\AppData\Local\Temp\ccioldvv.s:26974  .debug_str:0000000000017a0e .LASF4237
C:\Users\CYMR90~1\AppData\Local\Temp\ccioldvv.s:27754  .debug_str:000000000001ad45 .LASF4238
C:\Users\CYMR90~1\AppData\Local\Temp\ccioldvv.s:30738  .debug_str:0000000000026992 .LASF4239
C:\Users\CYMR90~1\AppData\Local\Temp\ccioldvv.s:23975  .debug_str:000000000000b968 .LASF4240
C:\Users\CYMR90~1\AppData\Local\Temp\ccioldvv.s:27892  .debug_str:000000000001b637 .LASF4241
C:\Users\CYMR90~1\AppData\Local\Temp\ccioldvv.s:29926  .debug_str:000000000002340d .LASF4242
C:\Users\CYMR90~1\AppData\Local\Temp\ccioldvv.s:22831  .debug_str:0000000000006d67 .LASF4243
C:\Users\CYMR90~1\AppData\Local\Temp\ccioldvv.s:26775  .debug_str:0000000000016c54 .LASF4244
C:\Users\CYMR90~1\AppData\Local\Temp\ccioldvv.s:26355  .debug_str:0000000000015150 .LASF4245
C:\Users\CYMR90~1\AppData\Local\Temp\ccioldvv.s:22165  .debug_str:000000000000444a .LASF4246
C:\Users\CYMR90~1\AppData\Local\Temp\ccioldvv.s:27280  .debug_str:0000000000018d64 .LASF4247
C:\Users\CYMR90~1\AppData\Local\Temp\ccioldvv.s:25929  .debug_str:00000000000136ff .LASF4248
C:\Users\CYMR90~1\AppData\Local\Temp\ccioldvv.s:28024  .debug_str:000000000001be1d .LASF4249
C:\Users\CYMR90~1\AppData\Local\Temp\ccioldvv.s:27848  .debug_str:000000000001b380 .LASF4250
C:\Users\CYMR90~1\AppData\Local\Temp\ccioldvv.s:26283  .debug_str:0000000000014c49 .LASF4251
C:\Users\CYMR90~1\AppData\Local\Temp\ccioldvv.s:22167  .debug_str:0000000000004470 .LASF4252
C:\Users\CYMR90~1\AppData\Local\Temp\ccioldvv.s:21507  .debug_str:0000000000001a90 .LASF4253
C:\Users\CYMR90~1\AppData\Local\Temp\ccioldvv.s:25463  .debug_str:00000000000116f6 .LASF4254
C:\Users\CYMR90~1\AppData\Local\Temp\ccioldvv.s:29370  .debug_str:0000000000021228 .LASF4255
C:\Users\CYMR90~1\AppData\Local\Temp\ccioldvv.s:21977  .debug_str:0000000000003804 .LASF4256
C:\Users\CYMR90~1\AppData\Local\Temp\ccioldvv.s:25951  .debug_str:0000000000013869 .LASF4257
C:\Users\CYMR90~1\AppData\Local\Temp\ccioldvv.s:29278  .debug_str:0000000000020cf8 .LASF4258
C:\Users\CYMR90~1\AppData\Local\Temp\ccioldvv.s:28140  .debug_str:000000000001c544 .LASF4259
C:\Users\CYMR90~1\AppData\Local\Temp\ccioldvv.s:27300  .debug_str:0000000000018eb9 .LASF4260
C:\Users\CYMR90~1\AppData\Local\Temp\ccioldvv.s:28862  .debug_str:000000000001f3d0 .LASF4261
C:\Users\CYMR90~1\AppData\Local\Temp\ccioldvv.s:22163  .debug_str:0000000000004424 .LASF4262
C:\Users\CYMR90~1\AppData\Local\Temp\ccioldvv.s:22093  .debug_str:0000000000003f81 .LASF4263
C:\Users\CYMR90~1\AppData\Local\Temp\ccioldvv.s:29304  .debug_str:0000000000020e97 .LASF4264
C:\Users\CYMR90~1\AppData\Local\Temp\ccioldvv.s:27262  .debug_str:0000000000018b7e .LASF4265
C:\Users\CYMR90~1\AppData\Local\Temp\ccioldvv.s:25983  .debug_str:0000000000013a45 .LASF4266
C:\Users\CYMR90~1\AppData\Local\Temp\ccioldvv.s:29812  .debug_str:0000000000022dda .LASF4267
C:\Users\CYMR90~1\AppData\Local\Temp\ccioldvv.s:32366  .debug_str:000000000002d0b6 .LASF4268
C:\Users\CYMR90~1\AppData\Local\Temp\ccioldvv.s:23769  .debug_str:000000000000ab48 .LASF4269
C:\Users\CYMR90~1\AppData\Local\Temp\ccioldvv.s:24437  .debug_str:000000000000d871 .LASF4270
C:\Users\CYMR90~1\AppData\Local\Temp\ccioldvv.s:29946  .debug_str:0000000000023533 .LASF4271
C:\Users\CYMR90~1\AppData\Local\Temp\ccioldvv.s:28490  .debug_str:000000000001dcea .LASF4272
C:\Users\CYMR90~1\AppData\Local\Temp\ccioldvv.s:21155  .debug_str:00000000000004c9 .LASF4273
C:\Users\CYMR90~1\AppData\Local\Temp\ccioldvv.s:22211  .debug_str:0000000000004753 .LASF4274
C:\Users\CYMR90~1\AppData\Local\Temp\ccioldvv.s:24613  .debug_str:000000000000e274 .LASF4275
C:\Users\CYMR90~1\AppData\Local\Temp\ccioldvv.s:22783  .debug_str:0000000000006a4a .LASF4276
C:\Users\CYMR90~1\AppData\Local\Temp\ccioldvv.s:26003  .debug_str:0000000000013b70 .LASF4277
C:\Users\CYMR90~1\AppData\Local\Temp\ccioldvv.s:25629  .debug_str:00000000000122e5 .LASF4278
C:\Users\CYMR90~1\AppData\Local\Temp\ccioldvv.s:21849  .debug_str:0000000000002f88 .LASF4279
C:\Users\CYMR90~1\AppData\Local\Temp\ccioldvv.s:23591  .debug_str:0000000000009f59 .LASF4280
C:\Users\CYMR90~1\AppData\Local\Temp\ccioldvv.s:21933  .debug_str:0000000000003527 .LASF4281
C:\Users\CYMR90~1\AppData\Local\Temp\ccioldvv.s:21115  .debug_str:0000000000000269 .LASF4282
C:\Users\CYMR90~1\AppData\Local\Temp\ccioldvv.s:23387  .debug_str:000000000000925c .LASF4283
C:\Users\CYMR90~1\AppData\Local\Temp\ccioldvv.s:26749  .debug_str:0000000000016a38 .LASF4284
C:\Users\CYMR90~1\AppData\Local\Temp\ccioldvv.s:21839  .debug_str:0000000000002efb .LASF4285
C:\Users\CYMR90~1\AppData\Local\Temp\ccioldvv.s:30798  .debug_str:0000000000026d0b .LASF4286
C:\Users\CYMR90~1\AppData\Local\Temp\ccioldvv.s:26613  .debug_str:0000000000016151 .LASF4287
C:\Users\CYMR90~1\AppData\Local\Temp\ccioldvv.s:27274  .debug_str:0000000000018cd7 .LASF4288
C:\Users\CYMR90~1\AppData\Local\Temp\ccioldvv.s:29958  .debug_str:0000000000023604 .LASF4289
C:\Users\CYMR90~1\AppData\Local\Temp\ccioldvv.s:29732  .debug_str:00000000000228cb .LASF4290
C:\Users\CYMR90~1\AppData\Local\Temp\ccioldvv.s:25831  .debug_str:0000000000012fe3 .LASF4291
C:\Users\CYMR90~1\AppData\Local\Temp\ccioldvv.s:22993  .debug_str:0000000000007844 .LASF4292
C:\Users\CYMR90~1\AppData\Local\Temp\ccioldvv.s:31700  .debug_str:000000000002a5d8 .LASF4293
C:\Users\CYMR90~1\AppData\Local\Temp\ccioldvv.s:21859  .debug_str:000000000000302f .LASF4294
C:\Users\CYMR90~1\AppData\Local\Temp\ccioldvv.s:31678  .debug_str:000000000002a44e .LASF4295
C:\Users\CYMR90~1\AppData\Local\Temp\ccioldvv.s:25357  .debug_str:0000000000011063 .LASF4296
C:\Users\CYMR90~1\AppData\Local\Temp\ccioldvv.s:28544  .debug_str:000000000001e0be .LASF4297
C:\Users\CYMR90~1\AppData\Local\Temp\ccioldvv.s:23557  .debug_str:0000000000009d36 .LASF4298
C:\Users\CYMR90~1\AppData\Local\Temp\ccioldvv.s:27810  .debug_str:000000000001b10d .LASF4299
C:\Users\CYMR90~1\AppData\Local\Temp\ccioldvv.s:28386  .debug_str:000000000001d663 .LASF4300
C:\Users\CYMR90~1\AppData\Local\Temp\ccioldvv.s:23951  .debug_str:000000000000b7ad .LASF4301
C:\Users\CYMR90~1\AppData\Local\Temp\ccioldvv.s:26954  .debug_str:00000000000178a6 .LASF4302
C:\Users\CYMR90~1\AppData\Local\Temp\ccioldvv.s:28088  .debug_str:000000000001c244 .LASF4303
C:\Users\CYMR90~1\AppData\Local\Temp\ccioldvv.s:25763  .debug_str:0000000000012b9c .LASF4304
C:\Users\CYMR90~1\AppData\Local\Temp\ccioldvv.s:29260  .debug_str:0000000000020bce .LASF4305
C:\Users\CYMR90~1\AppData\Local\Temp\ccioldvv.s:23881  .debug_str:000000000000b322 .LASF4306
C:\Users\CYMR90~1\AppData\Local\Temp\ccioldvv.s:21509  .debug_str:0000000000001ab6 .LASF4307
C:\Users\CYMR90~1\AppData\Local\Temp\ccioldvv.s:26457  .debug_str:0000000000015749 .LASF4308
C:\Users\CYMR90~1\AppData\Local\Temp\ccioldvv.s:25811  .debug_str:0000000000012ead .LASF4309
C:\Users\CYMR90~1\AppData\Local\Temp\ccioldvv.s:32072  .debug_str:000000000002bd30 .LASF4310
C:\Users\CYMR90~1\AppData\Local\Temp\ccioldvv.s:27400  .debug_str:0000000000019560 .LASF4311
C:\Users\CYMR90~1\AppData\Local\Temp\ccioldvv.s:26952  .debug_str:000000000001788e .LASF4312
C:\Users\CYMR90~1\AppData\Local\Temp\ccioldvv.s:28412  .debug_str:000000000001d863 .LASF4313
C:\Users\CYMR90~1\AppData\Local\Temp\ccioldvv.s:30084  .debug_str:0000000000023de8 .LASF4314
C:\Users\CYMR90~1\AppData\Local\Temp\ccioldvv.s:22443  .debug_str:00000000000055df .LASF4315
C:\Users\CYMR90~1\AppData\Local\Temp\ccioldvv.s:21399  .debug_str:00000000000013c2 .LASF4316
C:\Users\CYMR90~1\AppData\Local\Temp\ccioldvv.s:28728  .debug_str:000000000001ebd6 .LASF4317
C:\Users\CYMR90~1\AppData\Local\Temp\ccioldvv.s:29444  .debug_str:000000000002175c .LASF4318
C:\Users\CYMR90~1\AppData\Local\Temp\ccioldvv.s:31644  .debug_str:000000000002a2aa .LASF4319
C:\Users\CYMR90~1\AppData\Local\Temp\ccioldvv.s:25483  .debug_str:000000000001185d .LASF4320
C:\Users\CYMR90~1\AppData\Local\Temp\ccioldvv.s:31298  .debug_str:0000000000028db8 .LASF4321
C:\Users\CYMR90~1\AppData\Local\Temp\ccioldvv.s:30848  .debug_str:0000000000027031 .LASF4322
C:\Users\CYMR90~1\AppData\Local\Temp\ccioldvv.s:23841  .debug_str:000000000000b0c6 .LASF4323
C:\Users\CYMR90~1\AppData\Local\Temp\ccioldvv.s:29222  .debug_str:0000000000020985 .LASF4324
C:\Users\CYMR90~1\AppData\Local\Temp\ccioldvv.s:23281  .debug_str:0000000000008bde .LASF4325
C:\Users\CYMR90~1\AppData\Local\Temp\ccioldvv.s:26872  .debug_str:00000000000173c2 .LASF4326
C:\Users\CYMR90~1\AppData\Local\Temp\ccioldvv.s:30044  .debug_str:0000000000023ba1 .LASF4327
C:\Users\CYMR90~1\AppData\Local\Temp\ccioldvv.s:30872  .debug_str:0000000000027172 .LASF4328
C:\Users\CYMR90~1\AppData\Local\Temp\ccioldvv.s:26281  .debug_str:0000000000014c35 .LASF4329
C:\Users\CYMR90~1\AppData\Local\Temp\ccioldvv.s:28632  .debug_str:000000000001e5f9 .LASF4330
C:\Users\CYMR90~1\AppData\Local\Temp\ccioldvv.s:24265  .debug_str:000000000000ccf5 .LASF4331
C:\Users\CYMR90~1\AppData\Local\Temp\ccioldvv.s:26067  .debug_str:0000000000013f35 .LASF4332
C:\Users\CYMR90~1\AppData\Local\Temp\ccioldvv.s:28460  .debug_str:000000000001db50 .LASF4333
C:\Users\CYMR90~1\AppData\Local\Temp\ccioldvv.s:25839  .debug_str:000000000001306a .LASF4334
C:\Users\CYMR90~1\AppData\Local\Temp\ccioldvv.s:29292  .debug_str:0000000000020de0 .LASF4335
C:\Users\CYMR90~1\AppData\Local\Temp\ccioldvv.s:24803  .debug_str:000000000000ee55 .LASF4336
C:\Users\CYMR90~1\AppData\Local\Temp\ccioldvv.s:28410  .debug_str:000000000001d84e .LASF4337
C:\Users\CYMR90~1\AppData\Local\Temp\ccioldvv.s:21817  .debug_str:0000000000002dae .LASF4338
C:\Users\CYMR90~1\AppData\Local\Temp\ccioldvv.s:21595  .debug_str:0000000000001fdd .LASF4339
C:\Users\CYMR90~1\AppData\Local\Temp\ccioldvv.s:28128  .debug_str:000000000001c4b4 .LASF4340
C:\Users\CYMR90~1\AppData\Local\Temp\ccioldvv.s:23197  .debug_str:0000000000008683 .LASF4341
C:\Users\CYMR90~1\AppData\Local\Temp\ccioldvv.s:31776  .debug_str:000000000002aa9e .LASF4342
C:\Users\CYMR90~1\AppData\Local\Temp\ccioldvv.s:23053  .debug_str:0000000000007c34 .LASF4343
C:\Users\CYMR90~1\AppData\Local\Temp\ccioldvv.s:21167  .debug_str:0000000000000585 .LASF4344
C:\Users\CYMR90~1\AppData\Local\Temp\ccioldvv.s:30286  .debug_str:0000000000024b7d .LASF4345
C:\Users\CYMR90~1\AppData\Local\Temp\ccioldvv.s:27180  .debug_str:0000000000018684 .LASF4346
C:\Users\CYMR90~1\AppData\Local\Temp\ccioldvv.s:24907  .debug_str:000000000000f48b .LASF4347
C:\Users\CYMR90~1\AppData\Local\Temp\ccioldvv.s:29884  .debug_str:00000000000231c2 .LASF4348
C:\Users\CYMR90~1\AppData\Local\Temp\ccioldvv.s:31592  .debug_str:0000000000029fcd .LASF4349
C:\Users\CYMR90~1\AppData\Local\Temp\ccioldvv.s:24115  .debug_str:000000000000c313 .LASF4350
C:\Users\CYMR90~1\AppData\Local\Temp\ccioldvv.s:22635  .debug_str:0000000000006156 .LASF4351
C:\Users\CYMR90~1\AppData\Local\Temp\ccioldvv.s:22267  .debug_str:0000000000004b6d .LASF4352
C:\Users\CYMR90~1\AppData\Local\Temp\ccioldvv.s:30632  .debug_str:0000000000026351 .LASF4353
C:\Users\CYMR90~1\AppData\Local\Temp\ccioldvv.s:21197  .debug_str:000000000000075b .LASF4354
C:\Users\CYMR90~1\AppData\Local\Temp\ccioldvv.s:25921  .debug_str:0000000000013669 .LASF4355
C:\Users\CYMR90~1\AppData\Local\Temp\ccioldvv.s:29034  .debug_str:000000000001fddf .LASF4356
C:\Users\CYMR90~1\AppData\Local\Temp\ccioldvv.s:26465  .debug_str:00000000000157bf .LASF4357
C:\Users\CYMR90~1\AppData\Local\Temp\ccioldvv.s:30424  .debug_str:0000000000025535 .LASF4358
C:\Users\CYMR90~1\AppData\Local\Temp\ccioldvv.s:21699  .debug_str:000000000000259f .LASF4359
C:\Users\CYMR90~1\AppData\Local\Temp\ccioldvv.s:24849  .debug_str:000000000000f0d3 .LASF4360
C:\Users\CYMR90~1\AppData\Local\Temp\ccioldvv.s:21309  .debug_str:0000000000000e34 .LASF4361
C:\Users\CYMR90~1\AppData\Local\Temp\ccioldvv.s:25311  .debug_str:0000000000010e08 .LASF4362
C:\Users\CYMR90~1\AppData\Local\Temp\ccioldvv.s:23999  .debug_str:000000000000bac7 .LASF4363
C:\Users\CYMR90~1\AppData\Local\Temp\ccioldvv.s:28990  .debug_str:000000000001fb45 .LASF4364
C:\Users\CYMR90~1\AppData\Local\Temp\ccioldvv.s:27960  .debug_str:000000000001ba3d .LASF4365
C:\Users\CYMR90~1\AppData\Local\Temp\ccioldvv.s:25729  .debug_str:0000000000012939 .LASF4366
C:\Users\CYMR90~1\AppData\Local\Temp\ccioldvv.s:21693  .debug_str:0000000000002552 .LASF4367
C:\Users\CYMR90~1\AppData\Local\Temp\ccioldvv.s:28360  .debug_str:000000000001d4bc .LASF4368
C:\Users\CYMR90~1\AppData\Local\Temp\ccioldvv.s:24239  .debug_str:000000000000cb55 .LASF4369
C:\Users\CYMR90~1\AppData\Local\Temp\ccioldvv.s:31760  .debug_str:000000000002a9b9 .LASF4370
C:\Users\CYMR90~1\AppData\Local\Temp\ccioldvv.s:27636  .debug_str:000000000001a5f5 .LASF4371
C:\Users\CYMR90~1\AppData\Local\Temp\ccioldvv.s:29852  .debug_str:000000000002301d .LASF4372
C:\Users\CYMR90~1\AppData\Local\Temp\ccioldvv.s:31430  .debug_str:0000000000029637 .LASF4373
C:\Users\CYMR90~1\AppData\Local\Temp\ccioldvv.s:26713  .debug_str:0000000000016795 .LASF4374
C:\Users\CYMR90~1\AppData\Local\Temp\ccioldvv.s:27370  .debug_str:0000000000019398 .LASF4375
C:\Users\CYMR90~1\AppData\Local\Temp\ccioldvv.s:22441  .debug_str:00000000000055c6 .LASF4376
C:\Users\CYMR90~1\AppData\Local\Temp\ccioldvv.s:26143  .debug_str:0000000000014420 .LASF4377
C:\Users\CYMR90~1\AppData\Local\Temp\ccioldvv.s:25089  .debug_str:000000000001001f .LASF4378
C:\Users\CYMR90~1\AppData\Local\Temp\ccioldvv.s:28262  .debug_str:000000000001cd9b .LASF4379
C:\Users\CYMR90~1\AppData\Local\Temp\ccioldvv.s:21353  .debug_str:0000000000001138 .LASF4380
C:\Users\CYMR90~1\AppData\Local\Temp\ccioldvv.s:24467  .debug_str:000000000000da0d .LASF4381
C:\Users\CYMR90~1\AppData\Local\Temp\ccioldvv.s:31922  .debug_str:000000000002b362 .LASF4382
C:\Users\CYMR90~1\AppData\Local\Temp\ccioldvv.s:24017  .debug_str:000000000000bc14 .LASF4383
C:\Users\CYMR90~1\AppData\Local\Temp\ccioldvv.s:29172  .debug_str:00000000000206bf .LASF4384
C:\Users\CYMR90~1\AppData\Local\Temp\ccioldvv.s:26571  .debug_str:0000000000015e73 .LASF4385
C:\Users\CYMR90~1\AppData\Local\Temp\ccioldvv.s:30032  .debug_str:0000000000023ad4 .LASF4386
C:\Users\CYMR90~1\AppData\Local\Temp\ccioldvv.s:24643  .debug_str:000000000000e441 .LASF4387
C:\Users\CYMR90~1\AppData\Local\Temp\ccioldvv.s:29366  .debug_str:00000000000211e5 .LASF4388
C:\Users\CYMR90~1\AppData\Local\Temp\ccioldvv.s:29702  .debug_str:00000000000226c6 .LASF4389
C:\Users\CYMR90~1\AppData\Local\Temp\ccioldvv.s:26701  .debug_str:00000000000166e8 .LASF4390
C:\Users\CYMR90~1\AppData\Local\Temp\ccioldvv.s:23243  .debug_str:000000000000898a .LASF4391
C:\Users\CYMR90~1\AppData\Local\Temp\ccioldvv.s:30458  .debug_str:00000000000257d5 .LASF4392
C:\Users\CYMR90~1\AppData\Local\Temp\ccioldvv.s:27692  .debug_str:000000000001a991 .LASF4393
C:\Users\CYMR90~1\AppData\Local\Temp\ccioldvv.s:21305  .debug_str:0000000000000df6 .LASF4394
C:\Users\CYMR90~1\AppData\Local\Temp\ccioldvv.s:29676  .debug_str:000000000002251f .LASF4395
C:\Users\CYMR90~1\AppData\Local\Temp\ccioldvv.s:31414  .debug_str:0000000000029543 .LASF4396
C:\Users\CYMR90~1\AppData\Local\Temp\ccioldvv.s:21777  .debug_str:0000000000002ae7 .LASF4397
C:\Users\CYMR90~1\AppData\Local\Temp\ccioldvv.s:24781  .debug_str:000000000000ed37 .LASF4398
C:\Users\CYMR90~1\AppData\Local\Temp\ccioldvv.s:28706  .debug_str:000000000001eaa4 .LASF4399
C:\Users\CYMR90~1\AppData\Local\Temp\ccioldvv.s:21997  .debug_str:0000000000003941 .LASF4400
C:\Users\CYMR90~1\AppData\Local\Temp\ccioldvv.s:23301  .debug_str:0000000000008ceb .LASF4401
C:\Users\CYMR90~1\AppData\Local\Temp\ccioldvv.s:30378  .debug_str:0000000000025150 .LASF4402
C:\Users\CYMR90~1\AppData\Local\Temp\ccioldvv.s:25043  .debug_str:000000000000fd0e .LASF4403
C:\Users\CYMR90~1\AppData\Local\Temp\ccioldvv.s:26051  .debug_str:0000000000013e4d .LASF4404
C:\Users\CYMR90~1\AppData\Local\Temp\ccioldvv.s:22559  .debug_str:0000000000005cec .LASF4405
C:\Users\CYMR90~1\AppData\Local\Temp\ccioldvv.s:22155  .debug_str:000000000000438d .LASF4406
C:\Users\CYMR90~1\AppData\Local\Temp\ccioldvv.s:29478  .debug_str:000000000002197c .LASF4407
C:\Users\CYMR90~1\AppData\Local\Temp\ccioldvv.s:29006  .debug_str:000000000001fc43 .LASF4408
C:\Users\CYMR90~1\AppData\Local\Temp\ccioldvv.s:22241  .debug_str:00000000000049d8 .LASF4409
C:\Users\CYMR90~1\AppData\Local\Temp\ccioldvv.s:29272  .debug_str:0000000000020c9e .LASF4410
C:\Users\CYMR90~1\AppData\Local\Temp\ccioldvv.s:30686  .debug_str:0000000000026661 .LASF4411
C:\Users\CYMR90~1\AppData\Local\Temp\ccioldvv.s:31882  .debug_str:000000000002b0d5 .LASF4412
C:\Users\CYMR90~1\AppData\Local\Temp\ccioldvv.s:30604  .debug_str:000000000002618c .LASF4413
C:\Users\CYMR90~1\AppData\Local\Temp\ccioldvv.s:21453  .debug_str:00000000000016cd .LASF4414
C:\Users\CYMR90~1\AppData\Local\Temp\ccioldvv.s:28596  .debug_str:000000000001e3cb .LASF4415
C:\Users\CYMR90~1\AppData\Local\Temp\ccioldvv.s:30916  .debug_str:00000000000274ce .LASF4416
C:\Users\CYMR90~1\AppData\Local\Temp\ccioldvv.s:23693  .debug_str:000000000000a609 .LASF4417
C:\Users\CYMR90~1\AppData\Local\Temp\ccioldvv.s:32220  .debug_str:000000000002c749 .LASF4418
C:\Users\CYMR90~1\AppData\Local\Temp\ccioldvv.s:31580  .debug_str:0000000000029f29 .LASF4419
C:\Users\CYMR90~1\AppData\Local\Temp\ccioldvv.s:23059  .debug_str:0000000000007c8f .LASF4420
C:\Users\CYMR90~1\AppData\Local\Temp\ccioldvv.s:22135  .debug_str:000000000000428c .LASF4421
C:\Users\CYMR90~1\AppData\Local\Temp\ccioldvv.s:30772  .debug_str:0000000000026b93 .LASF4422
C:\Users\CYMR90~1\AppData\Local\Temp\ccioldvv.s:28144  .debug_str:000000000001c58d .LASF4423
C:\Users\CYMR90~1\AppData\Local\Temp\ccioldvv.s:30746  .debug_str:0000000000026a10 .LASF4424
C:\Users\CYMR90~1\AppData\Local\Temp\ccioldvv.s:26079  .debug_str:0000000000013ff1 .LASF4425
C:\Users\CYMR90~1\AppData\Local\Temp\ccioldvv.s:24981  .debug_str:000000000000f987 .LASF4426
C:\Users\CYMR90~1\AppData\Local\Temp\ccioldvv.s:28698  .debug_str:000000000001ea30 .LASF4427
C:\Users\CYMR90~1\AppData\Local\Temp\ccioldvv.s:22499  .debug_str:0000000000005969 .LASF4428
C:\Users\CYMR90~1\AppData\Local\Temp\ccioldvv.s:29906  .debug_str:00000000000232de .LASF4429
C:\Users\CYMR90~1\AppData\Local\Temp\ccioldvv.s:27302  .debug_str:0000000000018edf .LASF4430
C:\Users\CYMR90~1\AppData\Local\Temp\ccioldvv.s:21661  .debug_str:0000000000002367 .LASF4431
C:\Users\CYMR90~1\AppData\Local\Temp\ccioldvv.s:21867  .debug_str:00000000000030a4 .LASF4432
C:\Users\CYMR90~1\AppData\Local\Temp\ccioldvv.s:30568  .debug_str:0000000000025f16 .LASF4433
C:\Users\CYMR90~1\AppData\Local\Temp\ccioldvv.s:26471  .debug_str:000000000001580b .LASF4434
C:\Users\CYMR90~1\AppData\Local\Temp\ccioldvv.s:25177  .debug_str:0000000000010551 .LASF4435
C:\Users\CYMR90~1\AppData\Local\Temp\ccioldvv.s:23361  .debug_str:00000000000090cc .LASF4436
C:\Users\CYMR90~1\AppData\Local\Temp\ccioldvv.s:31170  .debug_str:000000000002858e .LASF4437
C:\Users\CYMR90~1\AppData\Local\Temp\ccioldvv.s:32370  .debug_str:000000000002d0ff .LASF4438
C:\Users\CYMR90~1\AppData\Local\Temp\ccioldvv.s:28524  .debug_str:000000000001df8b .LASF4439
C:\Users\CYMR90~1\AppData\Local\Temp\ccioldvv.s:22821  .debug_str:0000000000006cb0 .LASF4440
C:\Users\CYMR90~1\AppData\Local\Temp\ccioldvv.s:22281  .debug_str:0000000000004c68 .LASF4441
C:\Users\CYMR90~1\AppData\Local\Temp\ccioldvv.s:26824  .debug_str:00000000000170f8 .LASF4442
C:\Users\CYMR90~1\AppData\Local\Temp\ccioldvv.s:32020  .debug_str:000000000002ba04 .LASF4443
C:\Users\CYMR90~1\AppData\Local\Temp\ccioldvv.s:25861  .debug_str:00000000000131ed .LASF4444
C:\Users\CYMR90~1\AppData\Local\Temp\ccioldvv.s:31646  .debug_str:000000000002a2c3 .LASF4445
C:\Users\CYMR90~1\AppData\Local\Temp\ccioldvv.s:30718  .debug_str:000000000002684f .LASF4446
C:\Users\CYMR90~1\AppData\Local\Temp\ccioldvv.s:30942  .debug_str:0000000000027661 .LASF4447
C:\Users\CYMR90~1\AppData\Local\Temp\ccioldvv.s:31474  .debug_str:00000000000298ed .LASF4448
C:\Users\CYMR90~1\AppData\Local\Temp\ccioldvv.s:28052  .debug_str:000000000001bfff .LASF4449
C:\Users\CYMR90~1\AppData\Local\Temp\ccioldvv.s:27516  .debug_str:0000000000019d47 .LASF4450
C:\Users\CYMR90~1\AppData\Local\Temp\ccioldvv.s:23113  .debug_str:0000000000008123 .LASF4451
C:\Users\CYMR90~1\AppData\Local\Temp\ccioldvv.s:28918  .debug_str:000000000001f6e9 .LASF4452
C:\Users\CYMR90~1\AppData\Local\Temp\ccioldvv.s:27830  .debug_str:000000000001b23f .LASF4453
C:\Users\CYMR90~1\AppData\Local\Temp\ccioldvv.s:29744  .debug_str:0000000000022973 .LASF4454
C:\Users\CYMR90~1\AppData\Local\Temp\ccioldvv.s:30670  .debug_str:000000000002655c .LASF4455
C:\Users\CYMR90~1\AppData\Local\Temp\ccioldvv.s:21569  .debug_str:0000000000001e59 .LASF4456
C:\Users\CYMR90~1\AppData\Local\Temp\ccioldvv.s:26645  .debug_str:000000000001631b .LASF4457
C:\Users\CYMR90~1\AppData\Local\Temp\ccioldvv.s:21881  .debug_str:00000000000031aa .LASF4458
C:\Users\CYMR90~1\AppData\Local\Temp\ccioldvv.s:24083  .debug_str:000000000000c112 .LASF4459
C:\Users\CYMR90~1\AppData\Local\Temp\ccioldvv.s:28710  .debug_str:000000000001ead4 .LASF4460
C:\Users\CYMR90~1\AppData\Local\Temp\ccioldvv.s:21359  .debug_str:0000000000001187 .LASF4461
C:\Users\CYMR90~1\AppData\Local\Temp\ccioldvv.s:30406  .debug_str:000000000002536b .LASF4462
C:\Users\CYMR90~1\AppData\Local\Temp\ccioldvv.s:23219  .debug_str:00000000000087ba .LASF4463
C:\Users\CYMR90~1\AppData\Local\Temp\ccioldvv.s:28332  .debug_str:000000000001d32e .LASF4464
C:\Users\CYMR90~1\AppData\Local\Temp\ccioldvv.s:28350  .debug_str:000000000001d425 .LASF4465
C:\Users\CYMR90~1\AppData\Local\Temp\ccioldvv.s:29314  .debug_str:0000000000020f23 .LASF4466
C:\Users\CYMR90~1\AppData\Local\Temp\ccioldvv.s:27766  .debug_str:000000000001adfe .LASF4467
C:\Users\CYMR90~1\AppData\Local\Temp\ccioldvv.s:22533  .debug_str:0000000000005b8e .LASF4468
C:\Users\CYMR90~1\AppData\Local\Temp\ccioldvv.s:31132  .debug_str:00000000000282b2 .LASF4469
C:\Users\CYMR90~1\AppData\Local\Temp\ccioldvv.s:30038  .debug_str:0000000000023b50 .LASF4470
C:\Users\CYMR90~1\AppData\Local\Temp\ccioldvv.s:26367  .debug_str:00000000000151fe .LASF4471
C:\Users\CYMR90~1\AppData\Local\Temp\ccioldvv.s:32268  .debug_str:000000000002ca77 .LASF4472
C:\Users\CYMR90~1\AppData\Local\Temp\ccioldvv.s:21845  .debug_str:0000000000002f4a .LASF4473
C:\Users\CYMR90~1\AppData\Local\Temp\ccioldvv.s:22215  .debug_str:00000000000047ba .LASF4474
C:\Users\CYMR90~1\AppData\Local\Temp\ccioldvv.s:27470  .debug_str:0000000000019a39 .LASF4475
C:\Users\CYMR90~1\AppData\Local\Temp\ccioldvv.s:25255  .debug_str:00000000000109dc .LASF4476
C:\Users\CYMR90~1\AppData\Local\Temp\ccioldvv.s:22153  .debug_str:0000000000004375 .LASF4477
C:\Users\CYMR90~1\AppData\Local\Temp\ccioldvv.s:27406  .debug_str:00000000000195c7 .LASF4478
C:\Users\CYMR90~1\AppData\Local\Temp\ccioldvv.s:24101  .debug_str:000000000000c213 .LASF4479
C:\Users\CYMR90~1\AppData\Local\Temp\ccioldvv.s:21127  .debug_str:0000000000000351 .LASF4480
C:\Users\CYMR90~1\AppData\Local\Temp\ccioldvv.s:21175  .debug_str:00000000000005d3 .LASF4481
C:\Users\CYMR90~1\AppData\Local\Temp\ccioldvv.s:31396  .debug_str:00000000000293b7 .LASF4482
C:\Users\CYMR90~1\AppData\Local\Temp\ccioldvv.s:26415  .debug_str:00000000000154ce .LASF4483
C:\Users\CYMR90~1\AppData\Local\Temp\ccioldvv.s:23833  .debug_str:000000000000af96 .LASF4484
C:\Users\CYMR90~1\AppData\Local\Temp\ccioldvv.s:21147  .debug_str:0000000000000468 .LASF4485
C:\Users\CYMR90~1\AppData\Local\Temp\ccioldvv.s:28686  .debug_str:000000000001e96e .LASF4486
C:\Users\CYMR90~1\AppData\Local\Temp\ccioldvv.s:26836  .debug_str:00000000000171b9 .LASF4487
C:\Users\CYMR90~1\AppData\Local\Temp\ccioldvv.s:21711  .debug_str:000000000000267b .LASF4488
C:\Users\CYMR90~1\AppData\Local\Temp\ccioldvv.s:30838  .debug_str:0000000000026f91 .LASF4489
C:\Users\CYMR90~1\AppData\Local\Temp\ccioldvv.s:32176  .debug_str:000000000002c475 .LASF4490
C:\Users\CYMR90~1\AppData\Local\Temp\ccioldvv.s:29138  .debug_str:00000000000203e6 .LASF4491
C:\Users\CYMR90~1\AppData\Local\Temp\ccioldvv.s:24179  .debug_str:000000000000c6c9 .LASF4492
C:\Users\CYMR90~1\AppData\Local\Temp\ccioldvv.s:29754  .debug_str:0000000000022a08 .LASF4493
C:\Users\CYMR90~1\AppData\Local\Temp\ccioldvv.s:24079  .debug_str:000000000000c0ae .LASF4494
C:\Users\CYMR90~1\AppData\Local\Temp\ccioldvv.s:29742  .debug_str:0000000000022955 .LASF4495
C:\Users\CYMR90~1\AppData\Local\Temp\ccioldvv.s:31288  .debug_str:0000000000028d21 .LASF4496
C:\Users\CYMR90~1\AppData\Local\Temp\ccioldvv.s:22575  .debug_str:0000000000005db9 .LASF4497
C:\Users\CYMR90~1\AppData\Local\Temp\ccioldvv.s:25375  .debug_str:0000000000011176 .LASF4498
C:\Users\CYMR90~1\AppData\Local\Temp\ccioldvv.s:24551  .debug_str:000000000000decd .LASF4499
C:\Users\CYMR90~1\AppData\Local\Temp\ccioldvv.s:22231  .debug_str:000000000000493e .LASF4500
C:\Users\CYMR90~1\AppData\Local\Temp\ccioldvv.s:23505  .debug_str:00000000000099e9 .LASF4501
C:\Users\CYMR90~1\AppData\Local\Temp\ccioldvv.s:26041  .debug_str:0000000000013db8 .LASF4502
C:\Users\CYMR90~1\AppData\Local\Temp\ccioldvv.s:22051  .debug_str:0000000000003c8f .LASF4503
C:\Users\CYMR90~1\AppData\Local\Temp\ccioldvv.s:22815  .debug_str:0000000000006c2d .LASF4504
C:\Users\CYMR90~1\AppData\Local\Temp\ccioldvv.s:21077  .debug_str:000000000000002e .LASF4505
C:\Users\CYMR90~1\AppData\Local\Temp\ccioldvv.s:25359  .debug_str:0000000000011087 .LASF4506
C:\Users\CYMR90~1\AppData\Local\Temp\ccioldvv.s:27724  .debug_str:000000000001ab68 .LASF4507
C:\Users\CYMR90~1\AppData\Local\Temp\ccioldvv.s:26777  .debug_str:0000000000016c7a .LASF4508
C:\Users\CYMR90~1\AppData\Local\Temp\ccioldvv.s:32114  .debug_str:000000000002c071 .LASF4509
C:\Users\CYMR90~1\AppData\Local\Temp\ccioldvv.s:30178  .debug_str:000000000002442f .LASF4510
C:\Users\CYMR90~1\AppData\Local\Temp\ccioldvv.s:24649  .debug_str:000000000000e48a .LASF4511
C:\Users\CYMR90~1\AppData\Local\Temp\ccioldvv.s:28810  .debug_str:000000000001f08b .LASF4512
C:\Users\CYMR90~1\AppData\Local\Temp\ccioldvv.s:26297  .debug_str:0000000000014d4b .LASF4513
C:\Users\CYMR90~1\AppData\Local\Temp\ccioldvv.s:25067  .debug_str:000000000000fe8c .LASF4514
C:\Users\CYMR90~1\AppData\Local\Temp\ccioldvv.s:27326  .debug_str:000000000001900e .LASF4515
C:\Users\CYMR90~1\AppData\Local\Temp\ccioldvv.s:25889  .debug_str:00000000000133b4 .LASF4516
C:\Users\CYMR90~1\AppData\Local\Temp\ccioldvv.s:21705  .debug_str:00000000000025e5 .LASF4517
C:\Users\CYMR90~1\AppData\Local\Temp\ccioldvv.s:28792  .debug_str:000000000001ef68 .LASF4518
C:\Users\CYMR90~1\AppData\Local\Temp\ccioldvv.s:23685  .debug_str:000000000000a582 .LASF4519
C:\Users\CYMR90~1\AppData\Local\Temp\ccioldvv.s:21205  .debug_str:00000000000007c8 .LASF4520
C:\Users\CYMR90~1\AppData\Local\Temp\ccioldvv.s:27740  .debug_str:000000000001ac67 .LASF4521
C:\Users\CYMR90~1\AppData\Local\Temp\ccioldvv.s:31054  .debug_str:0000000000027d41 .LASF4522
C:\Users\CYMR90~1\AppData\Local\Temp\ccioldvv.s:26441  .debug_str:000000000001564b .LASF4523
C:\Users\CYMR90~1\AppData\Local\Temp\ccioldvv.s:27390  .debug_str:00000000000194a5 .LASF4524
C:\Users\CYMR90~1\AppData\Local\Temp\ccioldvv.s:24071  .debug_str:000000000000c026 .LASF4525
C:\Users\CYMR90~1\AppData\Local\Temp\ccioldvv.s:27448  .debug_str:000000000001986e .LASF4526
C:\Users\CYMR90~1\AppData\Local\Temp\ccioldvv.s:29368  .debug_str:00000000000211fd .LASF4527
C:\Users\CYMR90~1\AppData\Local\Temp\ccioldvv.s:27472  .debug_str:0000000000019a74 .LASF4528
C:\Users\CYMR90~1\AppData\Local\Temp\ccioldvv.s:22131  .debug_str:0000000000004243 .LASF4529
C:\Users\CYMR90~1\AppData\Local\Temp\ccioldvv.s:23733  .debug_str:000000000000a825 .LASF4530
C:\Users\CYMR90~1\AppData\Local\Temp\ccioldvv.s:24423  .debug_str:000000000000d78e .LASF4531
C:\Users\CYMR90~1\AppData\Local\Temp\ccioldvv.s:29210  .debug_str:00000000000208c2 .LASF4532
C:\Users\CYMR90~1\AppData\Local\Temp\ccioldvv.s:28804  .debug_str:000000000001f022 .LASF4533
C:\Users\CYMR90~1\AppData\Local\Temp\ccioldvv.s:24549  .debug_str:000000000000de91 .LASF4534
C:\Users\CYMR90~1\AppData\Local\Temp\ccioldvv.s:28630  .debug_str:000000000001e5cc .LASF4535
C:\Users\CYMR90~1\AppData\Local\Temp\ccioldvv.s:31696  .debug_str:000000000002a585 .LASF4536
C:\Users\CYMR90~1\AppData\Local\Temp\ccioldvv.s:25277  .debug_str:0000000000010b68 .LASF4537
C:\Users\CYMR90~1\AppData\Local\Temp\ccioldvv.s:26009  .debug_str:0000000000013bbd .LASF4538
C:\Users\CYMR90~1\AppData\Local\Temp\ccioldvv.s:29644  .debug_str:0000000000022379 .LASF4539
C:\Users\CYMR90~1\AppData\Local\Temp\ccioldvv.s:31802  .debug_str:000000000002ac08 .LASF4540
C:\Users\CYMR90~1\AppData\Local\Temp\ccioldvv.s:25059  .debug_str:000000000000fe0d .LASF4541
C:\Users\CYMR90~1\AppData\Local\Temp\ccioldvv.s:29706  .debug_str:0000000000022704 .LASF4542
C:\Users\CYMR90~1\AppData\Local\Temp\ccioldvv.s:32034  .debug_str:000000000002bac7 .LASF4543
C:\Users\CYMR90~1\AppData\Local\Temp\ccioldvv.s:30220  .debug_str:00000000000246f3 .LASF4544
C:\Users\CYMR90~1\AppData\Local\Temp\ccioldvv.s:26717  .debug_str:00000000000167d2 .LASF4545
C:\Users\CYMR90~1\AppData\Local\Temp\ccioldvv.s:28196  .debug_str:000000000001c938 .LASF4546
C:\Users\CYMR90~1\AppData\Local\Temp\ccioldvv.s:27496  .debug_str:0000000000019bfd .LASF4547
C:\Users\CYMR90~1\AppData\Local\Temp\ccioldvv.s:25193  .debug_str:0000000000010634 .LASF4548
C:\Users\CYMR90~1\AppData\Local\Temp\ccioldvv.s:25639  .debug_str:0000000000012377 .LASF4549
C:\Users\CYMR90~1\AppData\Local\Temp\ccioldvv.s:21935  .debug_str:0000000000003549 .LASF4550
C:\Users\CYMR90~1\AppData\Local\Temp\ccioldvv.s:22805  .debug_str:0000000000006ba3 .LASF4551
C:\Users\CYMR90~1\AppData\Local\Temp\ccioldvv.s:25695  .debug_str:00000000000126f0 .LASF4552
C:\Users\CYMR90~1\AppData\Local\Temp\ccioldvv.s:31844  .debug_str:000000000002ae9b .LASF4553
C:\Users\CYMR90~1\AppData\Local\Temp\ccioldvv.s:29288  .debug_str:0000000000020da2 .LASF4554
C:\Users\CYMR90~1\AppData\Local\Temp\ccioldvv.s:27598  .debug_str:000000000001a212 .LASF4555
C:\Users\CYMR90~1\AppData\Local\Temp\ccioldvv.s:21293  .debug_str:0000000000000d56 .LASF4556
C:\Users\CYMR90~1\AppData\Local\Temp\ccioldvv.s:31058  .debug_str:0000000000027d8e .LASF4557
C:\Users\CYMR90~1\AppData\Local\Temp\ccioldvv.s:32288  .debug_str:000000000002cbc6 .LASF4558
C:\Users\CYMR90~1\AppData\Local\Temp\ccioldvv.s:24453  .debug_str:000000000000d941 .LASF4559
C:\Users\CYMR90~1\AppData\Local\Temp\ccioldvv.s:27118  .debug_str:00000000000182d4 .LASF4560
C:\Users\CYMR90~1\AppData\Local\Temp\ccioldvv.s:21443  .debug_str:0000000000001637 .LASF4561
C:\Users\CYMR90~1\AppData\Local\Temp\ccioldvv.s:30100  .debug_str:0000000000023edb .LASF4562
C:\Users\CYMR90~1\AppData\Local\Temp\ccioldvv.s:26585  .debug_str:0000000000015f69 .LASF4563
C:\Users\CYMR90~1\AppData\Local\Temp\ccioldvv.s:31766  .debug_str:000000000002aa11 .LASF4564
C:\Users\CYMR90~1\AppData\Local\Temp\ccioldvv.s:30702  .debug_str:000000000002674e .LASF4565
C:\Users\CYMR90~1\AppData\Local\Temp\ccioldvv.s:31768  .debug_str:000000000002aa2f .LASF4566
C:\Users\CYMR90~1\AppData\Local\Temp\ccioldvv.s:28132  .debug_str:000000000001c4e2 .LASF4567
C:\Users\CYMR90~1\AppData\Local\Temp\ccioldvv.s:21387  .debug_str:00000000000012e6 .LASF4568
C:\Users\CYMR90~1\AppData\Local\Temp\ccioldvv.s:30478  .debug_str:0000000000025910 .LASF4569
C:\Users\CYMR90~1\AppData\Local\Temp\ccioldvv.s:28036  .debug_str:000000000001bef2 .LASF4570
C:\Users\CYMR90~1\AppData\Local\Temp\ccioldvv.s:23943  .debug_str:000000000000b72a .LASF4571
C:\Users\CYMR90~1\AppData\Local\Temp\ccioldvv.s:24671  .debug_str:000000000000e5e4 .LASF4572
C:\Users\CYMR90~1\AppData\Local\Temp\ccioldvv.s:29148  .debug_str:00000000000204bd .LASF4573
C:\Users\CYMR90~1\AppData\Local\Temp\ccioldvv.s:25827  .debug_str:0000000000012fa0 .LASF4574
C:\Users\CYMR90~1\AppData\Local\Temp\ccioldvv.s:30850  .debug_str:000000000002704a .LASF4575
C:\Users\CYMR90~1\AppData\Local\Temp\ccioldvv.s:26351  .debug_str:0000000000015103 .LASF4576
C:\Users\CYMR90~1\AppData\Local\Temp\ccioldvv.s:26111  .debug_str:00000000000141df .LASF4577
C:\Users\CYMR90~1\AppData\Local\Temp\ccioldvv.s:24169  .debug_str:000000000000c62a .LASF4578
C:\Users\CYMR90~1\AppData\Local\Temp\ccioldvv.s:29018  .debug_str:000000000001fd06 .LASF4579
C:\Users\CYMR90~1\AppData\Local\Temp\ccioldvv.s:24771  .debug_str:000000000000ec91 .LASF4580
C:\Users\CYMR90~1\AppData\Local\Temp\ccioldvv.s:22485  .debug_str:0000000000005871 .LASF4581
C:\Users\CYMR90~1\AppData\Local\Temp\ccioldvv.s:31602  .debug_str:000000000002a038 .LASF4582
C:\Users\CYMR90~1\AppData\Local\Temp\ccioldvv.s:29324  .debug_str:0000000000020fb6 .LASF4583
C:\Users\CYMR90~1\AppData\Local\Temp\ccioldvv.s:32110  .debug_str:000000000002c03c .LASF4584
C:\Users\CYMR90~1\AppData\Local\Temp\ccioldvv.s:24973  .debug_str:000000000000f912 .LASF4585
C:\Users\CYMR90~1\AppData\Local\Temp\ccioldvv.s:23397  .debug_str:00000000000092f9 .LASF4586
C:\Users\CYMR90~1\AppData\Local\Temp\ccioldvv.s:31800  .debug_str:000000000002abe6 .LASF4587
C:\Users\CYMR90~1\AppData\Local\Temp\ccioldvv.s:29414  .debug_str:0000000000021582 .LASF4588
C:\Users\CYMR90~1\AppData\Local\Temp\ccioldvv.s:31262  .debug_str:0000000000028bbd .LASF4589
C:\Users\CYMR90~1\AppData\Local\Temp\ccioldvv.s:22795  .debug_str:0000000000006b05 .LASF4590
C:\Users\CYMR90~1\AppData\Local\Temp\ccioldvv.s:29562  .debug_str:0000000000021e9d .LASF4591
C:\Users\CYMR90~1\AppData\Local\Temp\ccioldvv.s:31426  .debug_str:00000000000295ed .LASF4592
C:\Users\CYMR90~1\AppData\Local\Temp\ccioldvv.s:31156  .debug_str:00000000000284c4 .LASF4593
C:\Users\CYMR90~1\AppData\Local\Temp\ccioldvv.s:30442  .debug_str:000000000002568b .LASF4594
C:\Users\CYMR90~1\AppData\Local\Temp\ccioldvv.s:27572  .debug_str:000000000001a09e .LASF4595
C:\Users\CYMR90~1\AppData\Local\Temp\ccioldvv.s:23567  .debug_str:0000000000009dd6 .LASF4596
C:\Users\CYMR90~1\AppData\Local\Temp\ccioldvv.s:24975  .debug_str:000000000000f934 .LASF4597
C:\Users\CYMR90~1\AppData\Local\Temp\ccioldvv.s:21665  .debug_str:000000000000239a .LASF4598
C:\Users\CYMR90~1\AppData\Local\Temp\ccioldvv.s:23719  .debug_str:000000000000a764 .LASF4599
C:\Users\CYMR90~1\AppData\Local\Temp\ccioldvv.s:28654  .debug_str:000000000001e75e .LASF4600
C:\Users\CYMR90~1\AppData\Local\Temp\ccioldvv.s:26900  .debug_str:000000000001755a .LASF4601
C:\Users\CYMR90~1\AppData\Local\Temp\ccioldvv.s:24375  .debug_str:000000000000d402 .LASF4602
C:\Users\CYMR90~1\AppData\Local\Temp\ccioldvv.s:32164  .debug_str:000000000002c361 .LASF4603
C:\Users\CYMR90~1\AppData\Local\Temp\ccioldvv.s:26735  .debug_str:00000000000168da .LASF4604
C:\Users\CYMR90~1\AppData\Local\Temp\ccioldvv.s:25171  .debug_str:00000000000104e1 .LASF4605
C:\Users\CYMR90~1\AppData\Local\Temp\ccioldvv.s:21873  .debug_str:000000000000312c .LASF4606
C:\Users\CYMR90~1\AppData\Local\Temp\ccioldvv.s:21395  .debug_str:0000000000001385 .LASF4607
C:\Users\CYMR90~1\AppData\Local\Temp\ccioldvv.s:26745  .debug_str:00000000000169e0 .LASF4608
C:\Users\CYMR90~1\AppData\Local\Temp\ccioldvv.s:23287  .debug_str:0000000000008c2c .LASF4609
C:\Users\CYMR90~1\AppData\Local\Temp\ccioldvv.s:30936  .debug_str:0000000000027616 .LASF4610
C:\Users\CYMR90~1\AppData\Local\Temp\ccioldvv.s:29858  .debug_str:0000000000023084 .LASF4611
C:\Users\CYMR90~1\AppData\Local\Temp\ccioldvv.s:21637  .debug_str:00000000000021f5 .LASF4612
C:\Users\CYMR90~1\AppData\Local\Temp\ccioldvv.s:22755  .debug_str:0000000000006898 .LASF4613
C:\Users\CYMR90~1\AppData\Local\Temp\ccioldvv.s:31078  .debug_str:0000000000027eec .LASF4614
C:\Users\CYMR90~1\AppData\Local\Temp\ccioldvv.s:28586  .debug_str:000000000001e344 .LASF4615
C:\Users\CYMR90~1\AppData\Local\Temp\ccioldvv.s:23119  .debug_str:000000000000817a .LASF4616
C:\Users\CYMR90~1\AppData\Local\Temp\ccioldvv.s:24435  .debug_str:000000000000d854 .LASF4617
C:\Users\CYMR90~1\AppData\Local\Temp\ccioldvv.s:24835  .debug_str:000000000000f00d .LASF4618
C:\Users\CYMR90~1\AppData\Local\Temp\ccioldvv.s:28268  .debug_str:000000000001cdf5 .LASF4619
C:\Users\CYMR90~1\AppData\Local\Temp\ccioldvv.s:25689  .debug_str:000000000001267a .LASF4620
C:\Users\CYMR90~1\AppData\Local\Temp\ccioldvv.s:21619  .debug_str:00000000000020fc .LASF4621
C:\Users\CYMR90~1\AppData\Local\Temp\ccioldvv.s:30228  .debug_str:000000000002478d .LASF4622
C:\Users\CYMR90~1\AppData\Local\Temp\ccioldvv.s:31578  .debug_str:0000000000029f0a .LASF4623
C:\Users\CYMR90~1\AppData\Local\Temp\ccioldvv.s:24813  .debug_str:000000000000eec6 .LASF4624
C:\Users\CYMR90~1\AppData\Local\Temp\ccioldvv.s:28188  .debug_str:000000000001c822 .LASF4625
C:\Users\CYMR90~1\AppData\Local\Temp\ccioldvv.s:23897  .debug_str:000000000000b418 .LASF4626
C:\Users\CYMR90~1\AppData\Local\Temp\ccioldvv.s:27046  .debug_str:0000000000017e7e .LASF4627
C:\Users\CYMR90~1\AppData\Local\Temp\ccioldvv.s:25225  .debug_str:0000000000010826 .LASF4628
C:\Users\CYMR90~1\AppData\Local\Temp\ccioldvv.s:21709  .debug_str:0000000000002659 .LASF4629
C:\Users\CYMR90~1\AppData\Local\Temp\ccioldvv.s:29840  .debug_str:0000000000022f7b .LASF4630
C:\Users\CYMR90~1\AppData\Local\Temp\ccioldvv.s:21429  .debug_str:0000000000001539 .LASF4631
C:\Users\CYMR90~1\AppData\Local\Temp\ccioldvv.s:21261  .debug_str:0000000000000b94 .LASF4632
C:\Users\CYMR90~1\AppData\Local\Temp\ccioldvv.s:22333  .debug_str:0000000000004f7d .LASF4633
C:\Users\CYMR90~1\AppData\Local\Temp\ccioldvv.s:22977  .debug_str:000000000000771b .LASF4634
C:\Users\CYMR90~1\AppData\Local\Temp\ccioldvv.s:30654  .debug_str:0000000000026479 .LASF4635
C:\Users\CYMR90~1\AppData\Local\Temp\ccioldvv.s:21625  .debug_str:0000000000002155 .LASF4636
C:\Users\CYMR90~1\AppData\Local\Temp\ccioldvv.s:29384  .debug_str:0000000000021304 .LASF4637
C:\Users\CYMR90~1\AppData\Local\Temp\ccioldvv.s:23977  .debug_str:000000000000b98e .LASF4638
C:\Users\CYMR90~1\AppData\Local\Temp\ccioldvv.s:26818  .debug_str:00000000000170bb .LASF4639
C:\Users\CYMR90~1\AppData\Local\Temp\ccioldvv.s:23327  .debug_str:0000000000008f03 .LASF4640
C:\Users\CYMR90~1\AppData\Local\Temp\ccioldvv.s:29004  .debug_str:000000000001fc2d .LASF4641
C:\Users\CYMR90~1\AppData\Local\Temp\ccioldvv.s:29622  .debug_str:0000000000022230 .LASF4642
C:\Users\CYMR90~1\AppData\Local\Temp\ccioldvv.s:27184  .debug_str:00000000000186c0 .LASF4643
C:\Users\CYMR90~1\AppData\Local\Temp\ccioldvv.s:29712  .debug_str:000000000002277a .LASF4644
C:\Users\CYMR90~1\AppData\Local\Temp\ccioldvv.s:26663  .debug_str:0000000000016453 .LASF4645
C:\Users\CYMR90~1\AppData\Local\Temp\ccioldvv.s:26567  .debug_str:0000000000015e3a .LASF4646
C:\Users\CYMR90~1\AppData\Local\Temp\ccioldvv.s:26161  .debug_str:0000000000014523 .LASF4647
C:\Users\CYMR90~1\AppData\Local\Temp\ccioldvv.s:28724  .debug_str:000000000001eba7 .LASF4648
C:\Users\CYMR90~1\AppData\Local\Temp\ccioldvv.s:25395  .debug_str:00000000000112bd .LASF4649
C:\Users\CYMR90~1\AppData\Local\Temp\ccioldvv.s:28442  .debug_str:000000000001da40 .LASF4650
C:\Users\CYMR90~1\AppData\Local\Temp\ccioldvv.s:32350  .debug_str:000000000002d006 .LASF4651
C:\Users\CYMR90~1\AppData\Local\Temp\ccioldvv.s:24659  .debug_str:000000000000e52d .LASF4652
C:\Users\CYMR90~1\AppData\Local\Temp\ccioldvv.s:27146  .debug_str:000000000001847d .LASF4653
C:\Users\CYMR90~1\AppData\Local\Temp\ccioldvv.s:21479  .debug_str:00000000000018ff .LASF4654
C:\Users\CYMR90~1\AppData\Local\Temp\ccioldvv.s:22119  .debug_str:00000000000040f9 .LASF4655
C:\Users\CYMR90~1\AppData\Local\Temp\ccioldvv.s:31674  .debug_str:000000000002a41e .LASF4656
C:\Users\CYMR90~1\AppData\Local\Temp\ccioldvv.s:25309  .debug_str:0000000000010df4 .LASF4657
C:\Users\CYMR90~1\AppData\Local\Temp\ccioldvv.s:30120  .debug_str:0000000000024004 .LASF4658
C:\Users\CYMR90~1\AppData\Local\Temp\ccioldvv.s:24007  .debug_str:000000000000bba6 .LASF4659
C:\Users\CYMR90~1\AppData\Local\Temp\ccioldvv.s:21143  .debug_str:000000000000043a .LASF4660
C:\Users\CYMR90~1\AppData\Local\Temp\ccioldvv.s:29264  .debug_str:0000000000020c2d .LASF4661
C:\Users\CYMR90~1\AppData\Local\Temp\ccioldvv.s:29996  .debug_str:00000000000238a5 .LASF4662
C:\Users\CYMR90~1\AppData\Local\Temp\ccioldvv.s:30540  .debug_str:0000000000025d8c .LASF4663
C:\Users\CYMR90~1\AppData\Local\Temp\ccioldvv.s:30180  .debug_str:000000000002445f .LASF4664
C:\Users\CYMR90~1\AppData\Local\Temp\ccioldvv.s:23445  .debug_str:000000000000960f .LASF4665
C:\Users\CYMR90~1\AppData\Local\Temp\ccioldvv.s:26447  .debug_str:00000000000156a3 .LASF4666
C:\Users\CYMR90~1\AppData\Local\Temp\ccioldvv.s:31970  .debug_str:000000000002b6b0 .LASF4667
C:\Users\CYMR90~1\AppData\Local\Temp\ccioldvv.s:30226  .debug_str:000000000002476b .LASF4668
C:\Users\CYMR90~1\AppData\Local\Temp\ccioldvv.s:22933  .debug_str:0000000000007460 .LASF4669
C:\Users\CYMR90~1\AppData\Local\Temp\ccioldvv.s:28466  .debug_str:000000000001db9f .LASF4670
C:\Users\CYMR90~1\AppData\Local\Temp\ccioldvv.s:26649  .debug_str:0000000000016367 .LASF4671
C:\Users\CYMR90~1\AppData\Local\Temp\ccioldvv.s:23335  .debug_str:0000000000008f72 .LASF4672
C:\Users\CYMR90~1\AppData\Local\Temp\ccioldvv.s:25275  .debug_str:0000000000010b42 .LASF4673
C:\Users\CYMR90~1\AppData\Local\Temp\ccioldvv.s:27236  .debug_str:00000000000189df .LASF4674
C:\Users\CYMR90~1\AppData\Local\Temp\ccioldvv.s:26908  .debug_str:00000000000175b6 .LASF4675
C:\Users\CYMR90~1\AppData\Local\Temp\ccioldvv.s:26677  .debug_str:00000000000164fe .LASF4676
C:\Users\CYMR90~1\AppData\Local\Temp\ccioldvv.s:22067  .debug_str:0000000000003dbb .LASF4677
C:\Users\CYMR90~1\AppData\Local\Temp\ccioldvv.s:30958  .debug_str:0000000000027750 .LASF4678
C:\Users\CYMR90~1\AppData\Local\Temp\ccioldvv.s:24631  .debug_str:000000000000e391 .LASF4679
C:\Users\CYMR90~1\AppData\Local\Temp\ccioldvv.s:22111  .debug_str:0000000000004076 .LASF4680
C:\Users\CYMR90~1\AppData\Local\Temp\ccioldvv.s:26287  .debug_str:0000000000014ca3 .LASF4681
C:\Users\CYMR90~1\AppData\Local\Temp\ccioldvv.s:24627  .debug_str:000000000000e352 .LASF4682
C:\Users\CYMR90~1\AppData\Local\Temp\ccioldvv.s:21649  .debug_str:00000000000022bf .LASF4683
C:\Users\CYMR90~1\AppData\Local\Temp\ccioldvv.s:31808  .debug_str:000000000002ac6c .LASF4684
C:\Users\CYMR90~1\AppData\Local\Temp\ccioldvv.s:23237  .debug_str:00000000000088f4 .LASF4685
C:\Users\CYMR90~1\AppData\Local\Temp\ccioldvv.s:21829  .debug_str:0000000000002e63 .LASF4686
C:\Users\CYMR90~1\AppData\Local\Temp\ccioldvv.s:31610  .debug_str:000000000002a0ae .LASF4687
C:\Users\CYMR90~1\AppData\Local\Temp\ccioldvv.s:31536  .debug_str:0000000000029c65 .LASF4688
C:\Users\CYMR90~1\AppData\Local\Temp\ccioldvv.s:31062  .debug_str:0000000000027dcb .LASF4689
C:\Users\CYMR90~1\AppData\Local\Temp\ccioldvv.s:27600  .debug_str:000000000001a229 .LASF4690
C:\Users\CYMR90~1\AppData\Local\Temp\ccioldvv.s:30484  .debug_str:000000000002598c .LASF4691
C:\Users\CYMR90~1\AppData\Local\Temp\ccioldvv.s:26387  .debug_str:0000000000015356 .LASF4692
C:\Users\CYMR90~1\AppData\Local\Temp\ccioldvv.s:32320  .debug_str:000000000002cd90 .LASF4693
C:\Users\CYMR90~1\AppData\Local\Temp\ccioldvv.s:31208  .debug_str:0000000000028859 .LASF4694
C:\Users\CYMR90~1\AppData\Local\Temp\ccioldvv.s:29940  .debug_str:00000000000234d1 .LASF4695
C:\Users\CYMR90~1\AppData\Local\Temp\ccioldvv.s:28754  .debug_str:000000000001ed41 .LASF4696
C:\Users\CYMR90~1\AppData\Local\Temp\ccioldvv.s:25197  .debug_str:00000000000106a7 .LASF4697
C:\Users\CYMR90~1\AppData\Local\Temp\ccioldvv.s:32206  .debug_str:000000000002c689 .LASF4698
C:\Users\CYMR90~1\AppData\Local\Temp\ccioldvv.s:30356  .debug_str:0000000000024fea .LASF4699
C:\Users\CYMR90~1\AppData\Local\Temp\ccioldvv.s:30264  .debug_str:00000000000249af .LASF4700
C:\Users\CYMR90~1\AppData\Local\Temp\ccioldvv.s:22849  .debug_str:0000000000006eaa .LASF4701
C:\Users\CYMR90~1\AppData\Local\Temp\ccioldvv.s:26705  .debug_str:0000000000016717 .LASF4702
C:\Users\CYMR90~1\AppData\Local\Temp\ccioldvv.s:31020  .debug_str:0000000000027aca .LASF4703
C:\Users\CYMR90~1\AppData\Local\Temp\ccioldvv.s:28250  .debug_str:000000000001ccb9 .LASF4704
C:\Users\CYMR90~1\AppData\Local\Temp\ccioldvv.s:30814  .debug_str:0000000000026ddd .LASF4705
C:\Users\CYMR90~1\AppData\Local\Temp\ccioldvv.s:27012  .debug_str:0000000000017c8b .LASF4706
C:\Users\CYMR90~1\AppData\Local\Temp\ccioldvv.s:29960  .debug_str:000000000002362b .LASF4707
C:\Users\CYMR90~1\AppData\Local\Temp\ccioldvv.s:23139  .debug_str:00000000000082e1 .LASF4708
C:\Users\CYMR90~1\AppData\Local\Temp\ccioldvv.s:28236  .debug_str:000000000001cbd6 .LASF4709
C:\Users\CYMR90~1\AppData\Local\Temp\ccioldvv.s:21813  .debug_str:0000000000002d77 .LASF4710
C:\Users\CYMR90~1\AppData\Local\Temp\ccioldvv.s:22723  .debug_str:000000000000665e .LASF4711
C:\Users\CYMR90~1\AppData\Local\Temp\ccioldvv.s:26697  .debug_str:00000000000166a4 .LASF4712
C:\Users\CYMR90~1\AppData\Local\Temp\ccioldvv.s:27860  .debug_str:000000000001b441 .LASF4713
C:\Users\CYMR90~1\AppData\Local\Temp\ccioldvv.s:22101  .debug_str:0000000000004002 .LASF4714
C:\Users\CYMR90~1\AppData\Local\Temp\ccioldvv.s:30558  .debug_str:0000000000025e86 .LASF4715
C:\Users\CYMR90~1\AppData\Local\Temp\ccioldvv.s:24711  .debug_str:000000000000e8bf .LASF4716
C:\Users\CYMR90~1\AppData\Local\Temp\ccioldvv.s:28322  .debug_str:000000000001d27c .LASF4717
C:\Users\CYMR90~1\AppData\Local\Temp\ccioldvv.s:26197  .debug_str:000000000001470e .LASF4718
C:\Users\CYMR90~1\AppData\Local\Temp\ccioldvv.s:23859  .debug_str:000000000000b1d2 .LASF4719
C:\Users\CYMR90~1\AppData\Local\Temp\ccioldvv.s:29280  .debug_str:0000000000020d1e .LASF4720
C:\Users\CYMR90~1\AppData\Local\Temp\ccioldvv.s:30666  .debug_str:000000000002650c .LASF4721
C:\Users\CYMR90~1\AppData\Local\Temp\ccioldvv.s:28968  .debug_str:000000000001f9f1 .LASF4722
C:\Users\CYMR90~1\AppData\Local\Temp\ccioldvv.s:29564  .debug_str:0000000000021ec1 .LASF4723
C:\Users\CYMR90~1\AppData\Local\Temp\ccioldvv.s:27832  .debug_str:000000000001b258 .LASF4724
C:\Users\CYMR90~1\AppData\Local\Temp\ccioldvv.s:29120  .debug_str:00000000000202f1 .LASF4725
C:\Users\CYMR90~1\AppData\Local\Temp\ccioldvv.s:30616  .debug_str:0000000000026235 .LASF4726
C:\Users\CYMR90~1\AppData\Local\Temp\ccioldvv.s:30104  .debug_str:0000000000023f1b .LASF4727
C:\Users\CYMR90~1\AppData\Local\Temp\ccioldvv.s:27858  .debug_str:000000000001b41f .LASF4728
C:\Users\CYMR90~1\AppData\Local\Temp\ccioldvv.s:32374  .debug_str:000000000002d14b .LASF4729
C:\Users\CYMR90~1\AppData\Local\Temp\ccioldvv.s:22717  .debug_str:00000000000065ff .LASF4730
C:\Users\CYMR90~1\AppData\Local\Temp\ccioldvv.s:23217  .debug_str:0000000000008796 .LASF4731
C:\Users\CYMR90~1\AppData\Local\Temp\ccioldvv.s:29814  .debug_str:0000000000022dfc .LASF4732
C:\Users\CYMR90~1\AppData\Local\Temp\ccioldvv.s:29762  .debug_str:0000000000022aa0 .LASF4733
C:\Users\CYMR90~1\AppData\Local\Temp\ccioldvv.s:26209  .debug_str:0000000000014815 .LASF4734
C:\Users\CYMR90~1\AppData\Local\Temp\ccioldvv.s:21245  .debug_str:0000000000000a3a .LASF4735
C:\Users\CYMR90~1\AppData\Local\Temp\ccioldvv.s:25987  .debug_str:0000000000013a81 .LASF4736
C:\Users\CYMR90~1\AppData\Local\Temp\ccioldvv.s:27096  .debug_str:000000000001814c .LASF4737
C:\Users\CYMR90~1\AppData\Local\Temp\ccioldvv.s:28388  .debug_str:000000000001d688 .LASF4738
C:\Users\CYMR90~1\AppData\Local\Temp\ccioldvv.s:28298  .debug_str:000000000001d07c .LASF4739
C:\Users\CYMR90~1\AppData\Local\Temp\ccioldvv.s:26323  .debug_str:0000000000014f3a .LASF4740
C:\Users\CYMR90~1\AppData\Local\Temp\ccioldvv.s:21633  .debug_str:00000000000021ae .LASF4741
C:\Users\CYMR90~1\AppData\Local\Temp\ccioldvv.s:23095  .debug_str:0000000000007f5a .LASF4742
C:\Users\CYMR90~1\AppData\Local\Temp\ccioldvv.s:24139  .debug_str:000000000000c47d .LASF4743
C:\Users\CYMR90~1\AppData\Local\Temp\ccioldvv.s:26467  .debug_str:00000000000157d4 .LASF4744
C:\Users\CYMR90~1\AppData\Local\Temp\ccioldvv.s:27984  .debug_str:000000000001bb80 .LASF4745
C:\Users\CYMR90~1\AppData\Local\Temp\ccioldvv.s:31720  .debug_str:000000000002a727 .LASF4746
C:\Users\CYMR90~1\AppData\Local\Temp\ccioldvv.s:23213  .debug_str:0000000000008764 .LASF4747
C:\Users\CYMR90~1\AppData\Local\Temp\ccioldvv.s:22237  .debug_str:000000000000499f .LASF4748
C:\Users\CYMR90~1\AppData\Local\Temp\ccioldvv.s:28564  .debug_str:000000000001e1e8 .LASF4749
C:\Users\CYMR90~1\AppData\Local\Temp\ccioldvv.s:30198  .debug_str:00000000000245a4 .LASF4750
C:\Users\CYMR90~1\AppData\Local\Temp\ccioldvv.s:31712  .debug_str:000000000002a6bd .LASF4751
C:\Users\CYMR90~1\AppData\Local\Temp\ccioldvv.s:25047  .debug_str:000000000000fd3e .LASF4752
C:\Users\CYMR90~1\AppData\Local\Temp\ccioldvv.s:29588  .debug_str:0000000000022029 .LASF4753
C:\Users\CYMR90~1\AppData\Local\Temp\ccioldvv.s:31148  .debug_str:0000000000028440 .LASF4754
C:\Users\CYMR90~1\AppData\Local\Temp\ccioldvv.s:27022  .debug_str:0000000000017d06 .LASF4755
C:\Users\CYMR90~1\AppData\Local\Temp\ccioldvv.s:26343  .debug_str:000000000001508a .LASF4756
C:\Users\CYMR90~1\AppData\Local\Temp\ccioldvv.s:31914  .debug_str:000000000002b2a0 .LASF4757
C:\Users\CYMR90~1\AppData\Local\Temp\ccioldvv.s:23895  .debug_str:000000000000b3ef .LASF4758
C:\Users\CYMR90~1\AppData\Local\Temp\ccioldvv.s:31412  .debug_str:000000000002951a .LASF4759
C:\Users\CYMR90~1\AppData\Local\Temp\ccioldvv.s:26421  .debug_str:0000000000015536 .LASF4760
C:\Users\CYMR90~1\AppData\Local\Temp\ccioldvv.s:29472  .debug_str:0000000000021919 .LASF4761
C:\Users\CYMR90~1\AppData\Local\Temp\ccioldvv.s:31818  .debug_str:000000000002ad0a .LASF4762
C:\Users\CYMR90~1\AppData\Local\Temp\ccioldvv.s:21215  .debug_str:000000000000085f .LASF4763
C:\Users\CYMR90~1\AppData\Local\Temp\ccioldvv.s:21161  .debug_str:000000000000051d .LASF4764
C:\Users\CYMR90~1\AppData\Local\Temp\ccioldvv.s:28770  .debug_str:000000000001ee3c .LASF4765
C:\Users\CYMR90~1\AppData\Local\Temp\ccioldvv.s:23635  .debug_str:000000000000a248 .LASF4766
C:\Users\CYMR90~1\AppData\Local\Temp\ccioldvv.s:22457  .debug_str:00000000000056d0 .LASF4767
C:\Users\CYMR90~1\AppData\Local\Temp\ccioldvv.s:24971  .debug_str:000000000000f8e8 .LASF4768
C:\Users\CYMR90~1\AppData\Local\Temp\ccioldvv.s:27230  .debug_str:000000000001896d .LASF4769
C:\Users\CYMR90~1\AppData\Local\Temp\ccioldvv.s:21731  .debug_str:00000000000027f9 .LASF4770
C:\Users\CYMR90~1\AppData\Local\Temp\ccioldvv.s:27476  .debug_str:0000000000019ac7 .LASF4771
C:\Users\CYMR90~1\AppData\Local\Temp\ccioldvv.s:28824  .debug_str:000000000001f17d .LASF4772
C:\Users\CYMR90~1\AppData\Local\Temp\ccioldvv.s:21253  .debug_str:0000000000000b00 .LASF4773
C:\Users\CYMR90~1\AppData\Local\Temp\ccioldvv.s:22695  .debug_str:00000000000064cf .LASF4774
C:\Users\CYMR90~1\AppData\Local\Temp\ccioldvv.s:25737  .debug_str:00000000000129bc .LASF4775
C:\Users\CYMR90~1\AppData\Local\Temp\ccioldvv.s:28096  .debug_str:000000000001c2dc .LASF4776
C:\Users\CYMR90~1\AppData\Local\Temp\ccioldvv.s:28312  .debug_str:000000000001d1da .LASF4777
C:\Users\CYMR90~1\AppData\Local\Temp\ccioldvv.s:31868  .debug_str:000000000002b00a .LASF4778
C:\Users\CYMR90~1\AppData\Local\Temp\ccioldvv.s:24057  .debug_str:000000000000bf28 .LASF4779
C:\Users\CYMR90~1\AppData\Local\Temp\ccioldvv.s:27066  .debug_str:0000000000017fc1 .LASF4780
C:\Users\CYMR90~1\AppData\Local\Temp\ccioldvv.s:26085  .debug_str:0000000000014051 .LASF4781
C:\Users\CYMR90~1\AppData\Local\Temp\ccioldvv.s:28714  .debug_str:000000000001eb25 .LASF4782
C:\Users\CYMR90~1\AppData\Local\Temp\ccioldvv.s:29266  .debug_str:0000000000020c43 .LASF4783
C:\Users\CYMR90~1\AppData\Local\Temp\ccioldvv.s:29270  .debug_str:0000000000020c7c .LASF4784
C:\Users\CYMR90~1\AppData\Local\Temp\ccioldvv.s:26201  .debug_str:0000000000014774 .LASF4785
C:\Users\CYMR90~1\AppData\Local\Temp\ccioldvv.s:25143  .debug_str:0000000000010344 .LASF4786
C:\Users\CYMR90~1\AppData\Local\Temp\ccioldvv.s:31606  .debug_str:000000000002a075 .LASF4787
C:\Users\CYMR90~1\AppData\Local\Temp\ccioldvv.s:23247  .debug_str:00000000000089b5 .LASF4788
C:\Users\CYMR90~1\AppData\Local\Temp\ccioldvv.s:25007  .debug_str:000000000000fad5 .LASF4789
C:\Users\CYMR90~1\AppData\Local\Temp\ccioldvv.s:21791  .debug_str:0000000000002c0d .LASF4790
C:\Users\CYMR90~1\AppData\Local\Temp\ccioldvv.s:25035  .debug_str:000000000000fc9d .LASF4791
C:\Users\CYMR90~1\AppData\Local\Temp\ccioldvv.s:26864  .debug_str:0000000000017344 .LASF4792
C:\Users\CYMR90~1\AppData\Local\Temp\ccioldvv.s:24491  .debug_str:000000000000db5b .LASF4793
C:\Users\CYMR90~1\AppData\Local\Temp\ccioldvv.s:26940  .debug_str:00000000000177c4 .LASF4794
C:\Users\CYMR90~1\AppData\Local\Temp\ccioldvv.s:23517  .debug_str:0000000000009ac8 .LASF4795
C:\Users\CYMR90~1\AppData\Local\Temp\ccioldvv.s:26337  .debug_str:000000000001502c .LASF4796
C:\Users\CYMR90~1\AppData\Local\Temp\ccioldvv.s:23269  .debug_str:0000000000008b18 .LASF4797
C:\Users\CYMR90~1\AppData\Local\Temp\ccioldvv.s:23203  .debug_str:00000000000086ca .LASF4798
C:\Users\CYMR90~1\AppData\Local\Temp\ccioldvv.s:31866  .debug_str:000000000002afe5 .LASF4799
C:\Users\CYMR90~1\AppData\Local\Temp\ccioldvv.s:30152  .debug_str:000000000002427a .LASF4800
C:\Users\CYMR90~1\AppData\Local\Temp\ccioldvv.s:31852  .debug_str:000000000002af24 .LASF4801
C:\Users\CYMR90~1\AppData\Local\Temp\ccioldvv.s:27128  .debug_str:0000000000018356 .LASF4802
C:\Users\CYMR90~1\AppData\Local\Temp\ccioldvv.s:31340  .debug_str:000000000002903e .LASF4803
C:\Users\CYMR90~1\AppData\Local\Temp\ccioldvv.s:31018  .debug_str:0000000000027aa8 .LASF4804
C:\Users\CYMR90~1\AppData\Local\Temp\ccioldvv.s:23493  .debug_str:000000000000992e .LASF4805
C:\Users\CYMR90~1\AppData\Local\Temp\ccioldvv.s:30758  .debug_str:0000000000026aae .LASF4806
C:\Users\CYMR90~1\AppData\Local\Temp\ccioldvv.s:27112  .debug_str:000000000001826b .LASF4807
C:\Users\CYMR90~1\AppData\Local\Temp\ccioldvv.s:25717  .debug_str:0000000000012865 .LASF4808
C:\Users\CYMR90~1\AppData\Local\Temp\ccioldvv.s:30892  .debug_str:000000000002726d .LASF4809
C:\Users\CYMR90~1\AppData\Local\Temp\ccioldvv.s:24891  .debug_str:000000000000f371 .LASF4810
C:\Users\CYMR90~1\AppData\Local\Temp\ccioldvv.s:28272  .debug_str:000000000001ce39 .LASF4811
C:\Users\CYMR90~1\AppData\Local\Temp\ccioldvv.s:27304  .debug_str:0000000000018ef9 .LASF4812
C:\Users\CYMR90~1\AppData\Local\Temp\ccioldvv.s:24219  .debug_str:000000000000c9b1 .LASF4813
C:\Users\CYMR90~1\AppData\Local\Temp\ccioldvv.s:30414  .debug_str:0000000000025493 .LASF4814
C:\Users\CYMR90~1\AppData\Local\Temp\ccioldvv.s:23627  .debug_str:000000000000a1d2 .LASF4815
C:\Users\CYMR90~1\AppData\Local\Temp\ccioldvv.s:30234  .debug_str:00000000000247d2 .LASF4816
C:\Users\CYMR90~1\AppData\Local\Temp\ccioldvv.s:28040  .debug_str:000000000001bf3c .LASF4817
C:\Users\CYMR90~1\AppData\Local\Temp\ccioldvv.s:24353  .debug_str:000000000000d23b .LASF4818
C:\Users\CYMR90~1\AppData\Local\Temp\ccioldvv.s:25213  .debug_str:00000000000107a2 .LASF4819
C:\Users\CYMR90~1\AppData\Local\Temp\ccioldvv.s:21571  .debug_str:0000000000001e72 .LASF4820
C:\Users\CYMR90~1\AppData\Local\Temp\ccioldvv.s:26814  .debug_str:0000000000017076 .LASF4821
C:\Users\CYMR90~1\AppData\Local\Temp\ccioldvv.s:28116  .debug_str:000000000001c3f9 .LASF4822
C:\Users\CYMR90~1\AppData\Local\Temp\ccioldvv.s:26235  .debug_str:000000000001497d .LASF4823
C:\Users\CYMR90~1\AppData\Local\Temp\ccioldvv.s:22181  .debug_str:0000000000004556 .LASF4824
C:\Users\CYMR90~1\AppData\Local\Temp\ccioldvv.s:27760  .debug_str:000000000001ad91 .LASF4825
C:\Users\CYMR90~1\AppData\Local\Temp\ccioldvv.s:30508  .debug_str:0000000000025b7f .LASF4826
C:\Users\CYMR90~1\AppData\Local\Temp\ccioldvv.s:24947  .debug_str:000000000000f6d1 .LASF4827
C:\Users\CYMR90~1\AppData\Local\Temp\ccioldvv.s:24051  .debug_str:000000000000be94 .LASF4828
C:\Users\CYMR90~1\AppData\Local\Temp\ccioldvv.s:21081  .debug_str:0000000000000088 .LASF4829
C:\Users\CYMR90~1\AppData\Local\Temp\ccioldvv.s:24129  .debug_str:000000000000c3fa .LASF4830
C:\Users\CYMR90~1\AppData\Local\Temp\ccioldvv.s:22719  .debug_str:0000000000006622 .LASF4831
C:\Users\CYMR90~1\AppData\Local\Temp\ccioldvv.s:32056  .debug_str:000000000002bc46 .LASF4832
C:\Users\CYMR90~1\AppData\Local\Temp\ccioldvv.s:26473  .debug_str:0000000000015825 .LASF4833
C:\Users\CYMR90~1\AppData\Local\Temp\ccioldvv.s:24013  .debug_str:000000000000bbed .LASF4834
C:\Users\CYMR90~1\AppData\Local\Temp\ccioldvv.s:26327  .debug_str:0000000000014f81 .LASF4835
C:\Users\CYMR90~1\AppData\Local\Temp\ccioldvv.s:23965  .debug_str:000000000000b8c3 .LASF4836
C:\Users\CYMR90~1\AppData\Local\Temp\ccioldvv.s:26519  .debug_str:0000000000015aef .LASF4837
C:\Users\CYMR90~1\AppData\Local\Temp\ccioldvv.s:25413  .debug_str:00000000000113a9 .LASF4838
C:\Users\CYMR90~1\AppData\Local\Temp\ccioldvv.s:30676  .debug_str:00000000000265b5 .LASF4839
C:\Users\CYMR90~1\AppData\Local\Temp\ccioldvv.s:24145  .debug_str:000000000000c4e9 .LASF4840
C:\Users\CYMR90~1\AppData\Local\Temp\ccioldvv.s:26397  .debug_str:00000000000153f6 .LASF4841
C:\Users\CYMR90~1\AppData\Local\Temp\ccioldvv.s:25325  .debug_str:0000000000010ec6 .LASF4842
C:\Users\CYMR90~1\AppData\Local\Temp\ccioldvv.s:31210  .debug_str:000000000002887b .LASF4843
C:\Users\CYMR90~1\AppData\Local\Temp\ccioldvv.s:22979  .debug_str:000000000000773d .LASF4844
C:\Users\CYMR90~1\AppData\Local\Temp\ccioldvv.s:26345  .debug_str:00000000000150b3 .LASF4845
C:\Users\CYMR90~1\AppData\Local\Temp\ccioldvv.s:32118  .debug_str:000000000002c0c9 .LASF4846
C:\Users\CYMR90~1\AppData\Local\Temp\ccioldvv.s:22409  .debug_str:00000000000053e6 .LASF4847
C:\Users\CYMR90~1\AppData\Local\Temp\ccioldvv.s:21279  .debug_str:0000000000000c8c .LASF4848
C:\Users\CYMR90~1\AppData\Local\Temp\ccioldvv.s:24009  .debug_str:000000000000bbbe .LASF4849
C:\Users\CYMR90~1\AppData\Local\Temp\ccioldvv.s:26938  .debug_str:00000000000177ac .LASF4850
C:\Users\CYMR90~1\AppData\Local\Temp\ccioldvv.s:22707  .debug_str:0000000000006577 .LASF4851
C:\Users\CYMR90~1\AppData\Local\Temp\ccioldvv.s:22309  .debug_str:0000000000004e22 .LASF4852
C:\Users\CYMR90~1\AppData\Local\Temp\ccioldvv.s:25847  .debug_str:0000000000013103 .LASF4853
C:\Users\CYMR90~1\AppData\Local\Temp\ccioldvv.s:25259  .debug_str:0000000000010a0a .LASF4854
C:\Users\CYMR90~1\AppData\Local\Temp\ccioldvv.s:29576  .debug_str:0000000000021f8e .LASF4855
C:\Users\CYMR90~1\AppData\Local\Temp\ccioldvv.s:28628  .debug_str:000000000001e5b1 .LASF4856
C:\Users\CYMR90~1\AppData\Local\Temp\ccioldvv.s:22377  .debug_str:000000000000520b .LASF4857
C:\Users\CYMR90~1\AppData\Local\Temp\ccioldvv.s:29416  .debug_str:00000000000215a6 .LASF4858
C:\Users\CYMR90~1\AppData\Local\Temp\ccioldvv.s:26575  .debug_str:0000000000015eaf .LASF4859
C:\Users\CYMR90~1\AppData\Local\Temp\ccioldvv.s:22615  .debug_str:000000000000600f .LASF4860
C:\Users\CYMR90~1\AppData\Local\Temp\ccioldvv.s:27560  .debug_str:0000000000019fd6 .LASF4861
C:\Users\CYMR90~1\AppData\Local\Temp\ccioldvv.s:26407  .debug_str:000000000001545f .LASF4862
C:\Users\CYMR90~1\AppData\Local\Temp\ccioldvv.s:29068  .debug_str:000000000002002b .LASF4863
C:\Users\CYMR90~1\AppData\Local\Temp\ccioldvv.s:31242  .debug_str:0000000000028a71 .LASF4864
C:\Users\CYMR90~1\AppData\Local\Temp\ccioldvv.s:26063  .debug_str:0000000000013ef2 .LASF4865
C:\Users\CYMR90~1\AppData\Local\Temp\ccioldvv.s:25999  .debug_str:0000000000013b3b .LASF4866
C:\Users\CYMR90~1\AppData\Local\Temp\ccioldvv.s:21683  .debug_str:00000000000024cb .LASF4867
C:\Users\CYMR90~1\AppData\Local\Temp\ccioldvv.s:28680  .debug_str:000000000001e906 .LASF4868
C:\Users\CYMR90~1\AppData\Local\Temp\ccioldvv.s:28136  .debug_str:000000000001c516 .LASF4869
C:\Users\CYMR90~1\AppData\Local\Temp\ccioldvv.s:30460  .debug_str:00000000000257ec .LASF4870
C:\Users\CYMR90~1\AppData\Local\Temp\ccioldvv.s:22763  .debug_str:000000000000690b .LASF4871
C:\Users\CYMR90~1\AppData\Local\Temp\ccioldvv.s:21537  .debug_str:0000000000001c8f .LASF4872
C:\Users\CYMR90~1\AppData\Local\Temp\ccioldvv.s:23355  .debug_str:000000000000908d .LASF4873
C:\Users\CYMR90~1\AppData\Local\Temp\ccioldvv.s:23519  .debug_str:0000000000009aeb .LASF4874
C:\Users\CYMR90~1\AppData\Local\Temp\ccioldvv.s:21549  .debug_str:0000000000001d13 .LASF4875
C:\Users\CYMR90~1\AppData\Local\Temp\ccioldvv.s:32142  .debug_str:000000000002c22b .LASF4876
C:\Users\CYMR90~1\AppData\Local\Temp\ccioldvv.s:26277  .debug_str:0000000000014bf7 .LASF4877
C:\Users\CYMR90~1\AppData\Local\Temp\ccioldvv.s:26681  .debug_str:0000000000016541 .LASF4878
C:\Users\CYMR90~1\AppData\Local\Temp\ccioldvv.s:25783  .debug_str:0000000000012cd9 .LASF4879
C:\Users\CYMR90~1\AppData\Local\Temp\ccioldvv.s:23843  .debug_str:000000000000b0df .LASF4880
C:\Users\CYMR90~1\AppData\Local\Temp\ccioldvv.s:26341  .debug_str:0000000000015071 .LASF4881
C:\Users\CYMR90~1\AppData\Local\Temp\ccioldvv.s:22901  .debug_str:000000000000722e .LASF4882
C:\Users\CYMR90~1\AppData\Local\Temp\ccioldvv.s:27108  .debug_str:000000000001822e .LASF4883
C:\Users\CYMR90~1\AppData\Local\Temp\ccioldvv.s:24995  .debug_str:000000000000fa41 .LASF4884
C:\Users\CYMR90~1\AppData\Local\Temp\ccioldvv.s:26503  .debug_str:0000000000015a01 .LASF4885
C:\Users\CYMR90~1\AppData\Local\Temp\ccioldvv.s:23049  .debug_str:0000000000007be7 .LASF4886
C:\Users\CYMR90~1\AppData\Local\Temp\ccioldvv.s:27780  .debug_str:000000000001aec6 .LASF4887
C:\Users\CYMR90~1\AppData\Local\Temp\ccioldvv.s:32388  .debug_str:000000000002d21c .LASF4888
C:\Users\CYMR90~1\AppData\Local\Temp\ccioldvv.s:31660  .debug_str:000000000002a389 .LASF4889
C:\Users\CYMR90~1\AppData\Local\Temp\ccioldvv.s:25643  .debug_str:00000000000123a7 .LASF4890
C:\Users\CYMR90~1\AppData\Local\Temp\ccioldvv.s:29774  .debug_str:0000000000022b44 .LASF4891
C:\Users\CYMR90~1\AppData\Local\Temp\ccioldvv.s:22337  .debug_str:0000000000004fbb .LASF4892
C:\Users\CYMR90~1\AppData\Local\Temp\ccioldvv.s:21553  .debug_str:0000000000001d6c .LASF4893
C:\Users\CYMR90~1\AppData\Local\Temp\ccioldvv.s:23515  .debug_str:0000000000009aa7 .LASF4894
C:\Users\CYMR90~1\AppData\Local\Temp\ccioldvv.s:24411  .debug_str:000000000000d6a3 .LASF4895
C:\Users\CYMR90~1\AppData\Local\Temp\ccioldvv.s:21631  .debug_str:0000000000002191 .LASF4896
C:\Users\CYMR90~1\AppData\Local\Temp\ccioldvv.s:25661  .debug_str:00000000000124e3 .LASF4897
C:\Users\CYMR90~1\AppData\Local\Temp\ccioldvv.s:29184  .debug_str:0000000000020766 .LASF4898
C:\Users\CYMR90~1\AppData\Local\Temp\ccioldvv.s:30902  .debug_str:000000000002734b .LASF4899
C:\Users\CYMR90~1\AppData\Local\Temp\ccioldvv.s:21489  .debug_str:000000000000197f .LASF4900
C:\Users\CYMR90~1\AppData\Local\Temp\ccioldvv.s:25015  .debug_str:000000000000fb5c .LASF4901
C:\Users\CYMR90~1\AppData\Local\Temp\ccioldvv.s:23403  .debug_str:0000000000009351 .LASF4902
C:\Users\CYMR90~1\AppData\Local\Temp\ccioldvv.s:30350  .debug_str:0000000000024f9b .LASF4903
C:\Users\CYMR90~1\AppData\Local\Temp\ccioldvv.s:31834  .debug_str:000000000002ae03 .LASF4904
C:\Users\CYMR90~1\AppData\Local\Temp\ccioldvv.s:26838  .debug_str:00000000000171e7 .LASF4905
C:\Users\CYMR90~1\AppData\Local\Temp\ccioldvv.s:26944  .debug_str:000000000001780b .LASF4906
C:\Users\CYMR90~1\AppData\Local\Temp\ccioldvv.s:28492  .debug_str:000000000001dd0e .LASF4907
C:\Users\CYMR90~1\AppData\Local\Temp\ccioldvv.s:23645  .debug_str:000000000000a2f9 .LASF4908
C:\Users\CYMR90~1\AppData\Local\Temp\ccioldvv.s:28934  .debug_str:000000000001f7ea .LASF4909
C:\Users\CYMR90~1\AppData\Local\Temp\ccioldvv.s:30118  .debug_str:0000000000023fe7 .LASF4910
C:\Users\CYMR90~1\AppData\Local\Temp\ccioldvv.s:25775  .debug_str:0000000000012c6c .LASF4911
C:\Users\CYMR90~1\AppData\Local\Temp\ccioldvv.s:21973  .debug_str:00000000000037ab .LASF4912
C:\Users\CYMR90~1\AppData\Local\Temp\ccioldvv.s:25939  .debug_str:0000000000013784 .LASF4913
C:\Users\CYMR90~1\AppData\Local\Temp\ccioldvv.s:31056  .debug_str:0000000000027d6f .LASF4914
C:\Users\CYMR90~1\AppData\Local\Temp\ccioldvv.s:25429  .debug_str:00000000000114a3 .LASF4915
C:\Users\CYMR90~1\AppData\Local\Temp\ccioldvv.s:24019  .debug_str:000000000000bc30 .LASF4916
C:\Users\CYMR90~1\AppData\Local\Temp\ccioldvv.s:30110  .debug_str:0000000000023f6a .LASF4917
C:\Users\CYMR90~1\AppData\Local\Temp\ccioldvv.s:30212  .debug_str:0000000000024693 .LASF4918
C:\Users\CYMR90~1\AppData\Local\Temp\ccioldvv.s:26475  .debug_str:000000000001583b .LASF4919
C:\Users\CYMR90~1\AppData\Local\Temp\ccioldvv.s:21999  .debug_str:0000000000003958 .LASF4920
C:\Users\CYMR90~1\AppData\Local\Temp\ccioldvv.s:26816  .debug_str:00000000000170a0 .LASF4921
C:\Users\CYMR90~1\AppData\Local\Temp\ccioldvv.s:21943  .debug_str:00000000000035da .LASF4922
C:\Users\CYMR90~1\AppData\Local\Temp\ccioldvv.s:22271  .debug_str:0000000000004bbb .LASF4923
C:\Users\CYMR90~1\AppData\Local\Temp\ccioldvv.s:22667  .debug_str:0000000000006318 .LASF4924
C:\Users\CYMR90~1\AppData\Local\Temp\ccioldvv.s:30690  .debug_str:000000000002669e .LASF4925
C:\Users\CYMR90~1\AppData\Local\Temp\ccioldvv.s:24507  .debug_str:000000000000dc3a .LASF4926
C:\Users\CYMR90~1\AppData\Local\Temp\ccioldvv.s:21187  .debug_str:00000000000006b0 .LASF4927
C:\Users\CYMR90~1\AppData\Local\Temp\ccioldvv.s:27696  .debug_str:000000000001a9bf .LASF4928
C:\Users\CYMR90~1\AppData\Local\Temp\ccioldvv.s:32084  .debug_str:000000000002be17 .LASF4929
C:\Users\CYMR90~1\AppData\Local\Temp\ccioldvv.s:23829  .debug_str:000000000000af5d .LASF4930
C:\Users\CYMR90~1\AppData\Local\Temp\ccioldvv.s:22757  .debug_str:00000000000068b3 .LASF4931
C:\Users\CYMR90~1\AppData\Local\Temp\ccioldvv.s:31006  .debug_str:00000000000279e1 .LASF4932
C:\Users\CYMR90~1\AppData\Local\Temp\ccioldvv.s:27720  .debug_str:000000000001ab26 .LASF4933
C:\Users\CYMR90~1\AppData\Local\Temp\ccioldvv.s:28840  .debug_str:000000000001f286 .LASF4934
C:\Users\CYMR90~1\AppData\Local\Temp\ccioldvv.s:27976  .debug_str:000000000001bb1b .LASF4935
C:\Users\CYMR90~1\AppData\Local\Temp\ccioldvv.s:22455  .debug_str:00000000000056b7 .LASF4936
C:\Users\CYMR90~1\AppData\Local\Temp\ccioldvv.s:29872  .debug_str:0000000000023131 .LASF4937
C:\Users\CYMR90~1\AppData\Local\Temp\ccioldvv.s:29890  .debug_str:0000000000023200 .LASF4938
C:\Users\CYMR90~1\AppData\Local\Temp\ccioldvv.s:30386  .debug_str:00000000000251c2 .LASF4939
C:\Users\CYMR90~1\AppData\Local\Temp\ccioldvv.s:31316  .debug_str:0000000000028e9b .LASF4940
C:\Users\CYMR90~1\AppData\Local\Temp\ccioldvv.s:29932  .debug_str:0000000000023464 .LASF4941
C:\Users\CYMR90~1\AppData\Local\Temp\ccioldvv.s:31438  .debug_str:00000000000296cf .LASF4942
C:\Users\CYMR90~1\AppData\Local\Temp\ccioldvv.s:21135  .debug_str:00000000000003cd .LASF4943
C:\Users\CYMR90~1\AppData\Local\Temp\ccioldvv.s:25683  .debug_str:0000000000012627 .LASF4944
C:\Users\CYMR90~1\AppData\Local\Temp\ccioldvv.s:29458  .debug_str:000000000002183c .LASF4945
C:\Users\CYMR90~1\AppData\Local\Temp\ccioldvv.s:31688  .debug_str:000000000002a508 .LASF4946
C:\Users\CYMR90~1\AppData\Local\Temp\ccioldvv.s:25855  .debug_str:0000000000013185 .LASF4947
C:\Users\CYMR90~1\AppData\Local\Temp\ccioldvv.s:28480  .debug_str:000000000001dc65 .LASF4948
C:\Users\CYMR90~1\AppData\Local\Temp\ccioldvv.s:30802  .debug_str:0000000000026d38 .LASF4949
C:\Users\CYMR90~1\AppData\Local\Temp\ccioldvv.s:29442  .debug_str:0000000000021745 .LASF4950
C:\Users\CYMR90~1\AppData\Local\Temp\ccioldvv.s:26753  .debug_str:0000000000016a6b .LASF4951
C:\Users\CYMR90~1\AppData\Local\Temp\ccioldvv.s:21851  .debug_str:0000000000002faf .LASF4952
C:\Users\CYMR90~1\AppData\Local\Temp\ccioldvv.s:28744  .debug_str:000000000001eca4 .LASF4953
C:\Users\CYMR90~1\AppData\Local\Temp\ccioldvv.s:29674  .debug_str:0000000000022507 .LASF4954
C:\Users\CYMR90~1\AppData\Local\Temp\ccioldvv.s:22621  .debug_str:0000000000006081 .LASF4955
C:\Users\CYMR90~1\AppData\Local\Temp\ccioldvv.s:30146  .debug_str:0000000000024153 .LASF4956
C:\Users\CYMR90~1\AppData\Local\Temp\ccioldvv.s:28376  .debug_str:000000000001d5af .LASF4957
C:\Users\CYMR90~1\AppData\Local\Temp\ccioldvv.s:28356  .debug_str:000000000001d47c .LASF4958
C:\Users\CYMR90~1\AppData\Local\Temp\ccioldvv.s:29464  .debug_str:00000000000218ba .LASF4959
C:\Users\CYMR90~1\AppData\Local\Temp\ccioldvv.s:25731  .debug_str:000000000001294e .LASF4960
C:\Users\CYMR90~1\AppData\Local\Temp\ccioldvv.s:27124  .debug_str:000000000001831a .LASF4961
C:\Users\CYMR90~1\AppData\Local\Temp\ccioldvv.s:22927  .debug_str:0000000000007409 .LASF4962
C:\Users\CYMR90~1\AppData\Local\Temp\ccioldvv.s:27702  .debug_str:000000000001aa09 .LASF4963
C:\Users\CYMR90~1\AppData\Local\Temp\ccioldvv.s:31556  .debug_str:0000000000029db4 .LASF4964
C:\Users\CYMR90~1\AppData\Local\Temp\ccioldvv.s:24199  .debug_str:000000000000c820 .LASF4965
C:\Users\CYMR90~1\AppData\Local\Temp\ccioldvv.s:23813  .debug_str:000000000000ae20 .LASF4966
C:\Users\CYMR90~1\AppData\Local\Temp\ccioldvv.s:24823  .debug_str:000000000000ef47 .LASF4967
C:\Users\CYMR90~1\AppData\Local\Temp\ccioldvv.s:22797  .debug_str:0000000000006b29 .LASF4968
C:\Users\CYMR90~1\AppData\Local\Temp\ccioldvv.s:29110  .debug_str:0000000000020266 .LASF4969
C:\Users\CYMR90~1\AppData\Local\Temp\ccioldvv.s:21687  .debug_str:0000000000002501 .LASF4970
C:\Users\CYMR90~1\AppData\Local\Temp\ccioldvv.s:29920  .debug_str:000000000002339c .LASF4971
C:\Users\CYMR90~1\AppData\Local\Temp\ccioldvv.s:26739  .debug_str:0000000000016941 .LASF4972
C:\Users\CYMR90~1\AppData\Local\Temp\ccioldvv.s:31788  .debug_str:000000000002ab3b .LASF4973
C:\Users\CYMR90~1\AppData\Local\Temp\ccioldvv.s:25013  .debug_str:000000000000fb3c .LASF4974
C:\Users\CYMR90~1\AppData\Local\Temp\ccioldvv.s:31100  .debug_str:000000000002804f .LASF4975
C:\Users\CYMR90~1\AppData\Local\Temp\ccioldvv.s:23005  .debug_str:00000000000078fb .LASF4976
C:\Users\CYMR90~1\AppData\Local\Temp\ccioldvv.s:24429  .debug_str:000000000000d801 .LASF4977
C:\Users\CYMR90~1\AppData\Local\Temp\ccioldvv.s:32274  .debug_str:000000000002cada .LASF4978
C:\Users\CYMR90~1\AppData\Local\Temp\ccioldvv.s:24063  .debug_str:000000000000bfa1 .LASF4979
C:\Users\CYMR90~1\AppData\Local\Temp\ccioldvv.s:23619  .debug_str:000000000000a165 .LASF4980
C:\Users\CYMR90~1\AppData\Local\Temp\ccioldvv.s:31010  .debug_str:0000000000027a39 .LASF4981
C:\Users\CYMR90~1\AppData\Local\Temp\ccioldvv.s:25471  .debug_str:0000000000011777 .LASF4982
C:\Users\CYMR90~1\AppData\Local\Temp\ccioldvv.s:22247  .debug_str:0000000000004a38 .LASF4983
C:\Users\CYMR90~1\AppData\Local\Temp\ccioldvv.s:23561  .debug_str:0000000000009d6f .LASF4984
C:\Users\CYMR90~1\AppData\Local\Temp\ccioldvv.s:27348  .debug_str:0000000000019265 .LASF4985
C:\Users\CYMR90~1\AppData\Local\Temp\ccioldvv.s:28318  .debug_str:000000000001d232 .LASF4986
C:\Users\CYMR90~1\AppData\Local\Temp\ccioldvv.s:28534  .debug_str:000000000001e047 .LASF4987
C:\Users\CYMR90~1\AppData\Local\Temp\ccioldvv.s:24277  .debug_str:000000000000cdad .LASF4988
C:\Users\CYMR90~1\AppData\Local\Temp\ccioldvv.s:26533  .debug_str:0000000000015bb3 .LASF4989
C:\Users\CYMR90~1\AppData\Local\Temp\ccioldvv.s:24661  .debug_str:000000000000e542 .LASF4990
C:\Users\CYMR90~1\AppData\Local\Temp\ccioldvv.s:27518  .debug_str:0000000000019d60 .LASF4991
C:\Users\CYMR90~1\AppData\Local\Temp\ccioldvv.s:27264  .debug_str:0000000000018bba .LASF4992
C:\Users\CYMR90~1\AppData\Local\Temp\ccioldvv.s:25173  .debug_str:0000000000010507 .LASF4993
C:\Users\CYMR90~1\AppData\Local\Temp\ccioldvv.s:22207  .debug_str:000000000000470d .LASF4994
C:\Users\CYMR90~1\AppData\Local\Temp\ccioldvv.s:21259  .debug_str:0000000000000b63 .LASF4995
C:\Users\CYMR90~1\AppData\Local\Temp\ccioldvv.s:25563  .debug_str:0000000000011e38 .LASF4996
C:\Users\CYMR90~1\AppData\Local\Temp\ccioldvv.s:26301  .debug_str:0000000000014d87 .LASF4997
C:\Users\CYMR90~1\AppData\Local\Temp\ccioldvv.s:32144  .debug_str:000000000002c243 .LASF4998
C:\Users\CYMR90~1\AppData\Local\Temp\ccioldvv.s:26113  .debug_str:0000000000014222 .LASF4999
C:\Users\CYMR90~1\AppData\Local\Temp\ccioldvv.s:23709  .debug_str:000000000000a6ca .LASF5000
C:\Users\CYMR90~1\AppData\Local\Temp\ccioldvv.s:27354  .debug_str:00000000000192c7 .LASF5001
C:\Users\CYMR90~1\AppData\Local\Temp\ccioldvv.s:24601  .debug_str:000000000000e1c1 .LASF5002
C:\Users\CYMR90~1\AppData\Local\Temp\ccioldvv.s:26437  .debug_str:0000000000015611 .LASF5003
C:\Users\CYMR90~1\AppData\Local\Temp\ccioldvv.s:21493  .debug_str:00000000000019bd .LASF5004
C:\Users\CYMR90~1\AppData\Local\Temp\ccioldvv.s:31090  .debug_str:0000000000027f9e .LASF5005
C:\Users\CYMR90~1\AppData\Local\Temp\ccioldvv.s:28436  .debug_str:000000000001d9ce .LASF5006
C:\Users\CYMR90~1\AppData\Local\Temp\ccioldvv.s:26796  .debug_str:0000000000016f3d .LASF5007
C:\Users\CYMR90~1\AppData\Local\Temp\ccioldvv.s:23669  .debug_str:000000000000a49d .LASF5008
C:\Users\CYMR90~1\AppData\Local\Temp\ccioldvv.s:29502  .debug_str:0000000000021ab3 .LASF5009
C:\Users\CYMR90~1\AppData\Local\Temp\ccioldvv.s:25857  .debug_str:00000000000131a5 .LASF5010
C:\Users\CYMR90~1\AppData\Local\Temp\ccioldvv.s:27250  .debug_str:0000000000018abe .LASF5011
C:\Users\CYMR90~1\AppData\Local\Temp\ccioldvv.s:25963  .debug_str:000000000001390c .LASF5012
C:\Users\CYMR90~1\AppData\Local\Temp\ccioldvv.s:30184  .debug_str:00000000000244ac .LASF5013
C:\Users\CYMR90~1\AppData\Local\Temp\ccioldvv.s:23189  .debug_str:0000000000008612 .LASF5014
C:\Users\CYMR90~1\AppData\Local\Temp\ccioldvv.s:21751  .debug_str:0000000000002947 .LASF5015
C:\Users\CYMR90~1\AppData\Local\Temp\ccioldvv.s:25533  .debug_str:0000000000011c96 .LASF5016
C:\Users\CYMR90~1\AppData\Local\Temp\ccioldvv.s:29066  .debug_str:0000000000020000 .LASF5017
C:\Users\CYMR90~1\AppData\Local\Temp\ccioldvv.s:31942  .debug_str:000000000002b4aa .LASF5018
C:\Users\CYMR90~1\AppData\Local\Temp\ccioldvv.s:28998  .debug_str:000000000001fbb6 .LASF5019
C:\Users\CYMR90~1\AppData\Local\Temp\ccioldvv.s:25949  .debug_str:000000000001383c .LASF5020
C:\Users\CYMR90~1\AppData\Local\Temp\ccioldvv.s:31432  .debug_str:0000000000029653 .LASF5021
C:\Users\CYMR90~1\AppData\Local\Temp\ccioldvv.s:23651  .debug_str:000000000000a350 .LASF5022
C:\Users\CYMR90~1\AppData\Local\Temp\ccioldvv.s:27344  .debug_str:0000000000019212 .LASF5023
C:\Users\CYMR90~1\AppData\Local\Temp\ccioldvv.s:31686  .debug_str:000000000002a4db .LASF5024
C:\Users\CYMR90~1\AppData\Local\Temp\ccioldvv.s:22709  .debug_str:000000000000658e .LASF5025
C:\Users\CYMR90~1\AppData\Local\Temp\ccioldvv.s:31680  .debug_str:000000000002a472 .LASF5026
C:\Users\CYMR90~1\AppData\Local\Temp\ccioldvv.s:21827  .debug_str:0000000000002e36 .LASF5027
C:\Users\CYMR90~1\AppData\Local\Temp\ccioldvv.s:27784  .debug_str:000000000001af03 .LASF5028
C:\Users\CYMR90~1\AppData\Local\Temp\ccioldvv.s:24921  .debug_str:000000000000f545 .LASF5029
C:\Users\CYMR90~1\AppData\Local\Temp\ccioldvv.s:26121  .debug_str:00000000000142c4 .LASF5030
C:\Users\CYMR90~1\AppData\Local\Temp\ccioldvv.s:31322  .debug_str:0000000000028f01 .LASF5031
C:\Users\CYMR90~1\AppData\Local\Temp\ccioldvv.s:23375  .debug_str:0000000000009198 .LASF5032
C:\Users\CYMR90~1\AppData\Local\Temp\ccioldvv.s:28292  .debug_str:000000000001cffa .LASF5033
C:\Users\CYMR90~1\AppData\Local\Temp\ccioldvv.s:28440  .debug_str:000000000001da11 .LASF5034
C:\Users\CYMR90~1\AppData\Local\Temp\ccioldvv.s:22201  .debug_str:0000000000004695 .LASF5035
C:\Users\CYMR90~1\AppData\Local\Temp\ccioldvv.s:30464  .debug_str:0000000000025833 .LASF5036
C:\Users\CYMR90~1\AppData\Local\Temp\ccioldvv.s:28956  .debug_str:000000000001f907 .LASF5037
C:\Users\CYMR90~1\AppData\Local\Temp\ccioldvv.s:28114  .debug_str:000000000001c3d1 .LASF5038
C:\Users\CYMR90~1\AppData\Local\Temp\ccioldvv.s:29090  .debug_str:0000000000020161 .LASF5039
C:\Users\CYMR90~1\AppData\Local\Temp\ccioldvv.s:32346  .debug_str:000000000002cfa7 .LASF5040
C:\Users\CYMR90~1\AppData\Local\Temp\ccioldvv.s:21947  .debug_str:0000000000003609 .LASF5041
C:\Users\CYMR90~1\AppData\Local\Temp\ccioldvv.s:28702  .debug_str:000000000001ea62 .LASF5042
C:\Users\CYMR90~1\AppData\Local\Temp\ccioldvv.s:29474  .debug_str:0000000000021945 .LASF5043
C:\Users\CYMR90~1\AppData\Local\Temp\ccioldvv.s:21519  .debug_str:0000000000001b64 .LASF5044
C:\Users\CYMR90~1\AppData\Local\Temp\ccioldvv.s:25771  .debug_str:0000000000012c1f .LASF5045
C:\Users\CYMR90~1\AppData\Local\Temp\ccioldvv.s:27054  .debug_str:0000000000017ef6 .LASF5046
C:\Users\CYMR90~1\AppData\Local\Temp\ccioldvv.s:25267  .debug_str:0000000000010ab8 .LASF5047
C:\Users\CYMR90~1\AppData\Local\Temp\ccioldvv.s:26505  .debug_str:0000000000015a19 .LASF5048
C:\Users\CYMR90~1\AppData\Local\Temp\ccioldvv.s:27742  .debug_str:000000000001aca6 .LASF5049
C:\Users\CYMR90~1\AppData\Local\Temp\ccioldvv.s:29096  .debug_str:00000000000201c2 .LASF5050
C:\Users\CYMR90~1\AppData\Local\Temp\ccioldvv.s:24701  .debug_str:000000000000e803 .LASF5051
C:\Users\CYMR90~1\AppData\Local\Temp\ccioldvv.s:24399  .debug_str:000000000000d5be .LASF5052
C:\Users\CYMR90~1\AppData\Local\Temp\ccioldvv.s:27592  .debug_str:000000000001a1b7 .LASF5053
C:\Users\CYMR90~1\AppData\Local\Temp\ccioldvv.s:21979  .debug_str:000000000000382a .LASF5054
C:\Users\CYMR90~1\AppData\Local\Temp\ccioldvv.s:30206  .debug_str:000000000002460c .LASF5055
C:\Users\CYMR90~1\AppData\Local\Temp\ccioldvv.s:31094  .debug_str:0000000000027fe1 .LASF5056
C:\Users\CYMR90~1\AppData\Local\Temp\ccioldvv.s:23027  .debug_str:0000000000007a63 .LASF5057
C:\Users\CYMR90~1\AppData\Local\Temp\ccioldvv.s:32152  .debug_str:000000000002c2ea .LASF5058
C:\Users\CYMR90~1\AppData\Local\Temp\ccioldvv.s:24777  .debug_str:000000000000ecf1 .LASF5059
C:\Users\CYMR90~1\AppData\Local\Temp\ccioldvv.s:26976  .debug_str:0000000000017a34 .LASF5060
C:\Users\CYMR90~1\AppData\Local\Temp\ccioldvv.s:23133  .debug_str:0000000000008282 .LASF5061
C:\Users\CYMR90~1\AppData\Local\Temp\ccioldvv.s:22727  .debug_str:000000000000669c .LASF5062
C:\Users\CYMR90~1\AppData\Local\Temp\ccioldvv.s:22321  .debug_str:0000000000004ebb .LASF5063
C:\Users\CYMR90~1\AppData\Local\Temp\ccioldvv.s:30912  .debug_str:0000000000027484 .LASF5064
C:\Users\CYMR90~1\AppData\Local\Temp\ccioldvv.s:27100  .debug_str:0000000000018196 .LASF5065
C:\Users\CYMR90~1\AppData\Local\Temp\ccioldvv.s:25711  .debug_str:00000000000127f9 .LASF5066
C:\Users\CYMR90~1\AppData\Local\Temp\ccioldvv.s:24227  .debug_str:000000000000ca43 .LASF5067
C:\Users\CYMR90~1\AppData\Local\Temp\ccioldvv.s:28684  .debug_str:000000000001e938 .LASF5068
C:\Users\CYMR90~1\AppData\Local\Temp\ccioldvv.s:23373  .debug_str:0000000000009167 .LASF5069
C:\Users\CYMR90~1\AppData\Local\Temp\ccioldvv.s:31892  .debug_str:000000000002b155 .LASF5070
C:\Users\CYMR90~1\AppData\Local\Temp\ccioldvv.s:28674  .debug_str:000000000001e872 .LASF5071
C:\Users\CYMR90~1\AppData\Local\Temp\ccioldvv.s:23223  .debug_str:000000000000880d .LASF5072
C:\Users\CYMR90~1\AppData\Local\Temp\ccioldvv.s:31002  .debug_str:00000000000279af .LASF5073
C:\Users\CYMR90~1\AppData\Local\Temp\ccioldvv.s:32380  .debug_str:000000000002d19a .LASF5074
C:\Users\CYMR90~1\AppData\Local\Temp\ccioldvv.s:29008  .debug_str:000000000001fc5c .LASF5075
C:\Users\CYMR90~1\AppData\Local\Temp\ccioldvv.s:31290  .debug_str:0000000000028d3f .LASF5076
C:\Users\CYMR90~1\AppData\Local\Temp\ccioldvv.s:22303  .debug_str:0000000000004da4 .LASF5077
C:\Users\CYMR90~1\AppData\Local\Temp\ccioldvv.s:22641  .debug_str:00000000000061a0 .LASF5078
C:\Users\CYMR90~1\AppData\Local\Temp\ccioldvv.s:27612  .debug_str:000000000001a2ce .LASF5079
C:\Users\CYMR90~1\AppData\Local\Temp\ccioldvv.s:26309  .debug_str:0000000000014e41 .LASF5080
C:\Users\CYMR90~1\AppData\Local\Temp\ccioldvv.s:25065  .debug_str:000000000000fe6d .LASF5081
C:\Users\CYMR90~1\AppData\Local\Temp\ccioldvv.s:31748  .debug_str:000000000002a8f3 .LASF5082
C:\Users\CYMR90~1\AppData\Local\Temp\ccioldvv.s:31176  .debug_str:00000000000285ec .LASF5083
C:\Users\CYMR90~1\AppData\Local\Temp\ccioldvv.s:29540  .debug_str:0000000000021d58 .LASF5084
C:\Users\CYMR90~1\AppData\Local\Temp\ccioldvv.s:27822  .debug_str:000000000001b1b3 .LASF5085
C:\Users\CYMR90~1\AppData\Local\Temp\ccioldvv.s:23421  .debug_str:000000000000944a .LASF5086
C:\Users\CYMR90~1\AppData\Local\Temp\ccioldvv.s:21131  .debug_str:000000000000038c .LASF5087
C:\Users\CYMR90~1\AppData\Local\Temp\ccioldvv.s:25493  .debug_str:00000000000119b2 .LASF5088
C:\Users\CYMR90~1\AppData\Local\Temp\ccioldvv.s:21733  .debug_str:0000000000002821 .LASF5089
C:\Users\CYMR90~1\AppData\Local\Temp\ccioldvv.s:28732  .debug_str:000000000001ec09 .LASF5090
C:\Users\CYMR90~1\AppData\Local\Temp\ccioldvv.s:26331  .debug_str:0000000000014fd6 .LASF5091
C:\Users\CYMR90~1\AppData\Local\Temp\ccioldvv.s:21075  .debug_str:0000000000000000 .LASF5092
C:\Users\CYMR90~1\AppData\Local\Temp\ccioldvv.s:25017  .debug_str:000000000000fb7d .LASF5093
C:\Users\CYMR90~1\AppData\Local\Temp\ccioldvv.s:31434  .debug_str:0000000000029680 .LASF5094
C:\Users\CYMR90~1\AppData\Local\Temp\ccioldvv.s:30284  .debug_str:0000000000024b54 .LASF5095
C:\Users\CYMR90~1\AppData\Local\Temp\ccioldvv.s:28750  .debug_str:000000000001ecf2 .LASF5096
C:\Users\CYMR90~1\AppData\Local\Temp\ccioldvv.s:22421  .debug_str:00000000000054aa .LASF5097
C:\Users\CYMR90~1\AppData\Local\Temp\ccioldvv.s:26765  .debug_str:0000000000016b31 .LASF5098
C:\Users\CYMR90~1\AppData\Local\Temp\ccioldvv.s:29044  .debug_str:000000000001fe86 .LASF5099
C:\Users\CYMR90~1\AppData\Local\Temp\ccioldvv.s:27708  .debug_str:000000000001aa72 .LASF5100
C:\Users\CYMR90~1\AppData\Local\Temp\ccioldvv.s:32368  .debug_str:000000000002d0d8 .LASF5101
C:\Users\CYMR90~1\AppData\Local\Temp\ccioldvv.s:26892  .debug_str:00000000000174d5 .LASF5102
C:\Users\CYMR90~1\AppData\Local\Temp\ccioldvv.s:22609  .debug_str:0000000000005fa8 .LASF5103
C:\Users\CYMR90~1\AppData\Local\Temp\ccioldvv.s:24881  .debug_str:000000000000f2d5 .LASF5104
C:\Users\CYMR90~1\AppData\Local\Temp\ccioldvv.s:25601  .debug_str:00000000000120da .LASF5105
C:\Users\CYMR90~1\AppData\Local\Temp\ccioldvv.s:27212  .debug_str:0000000000018871 .LASF5106
C:\Users\CYMR90~1\AppData\Local\Temp\ccioldvv.s:22393  .debug_str:00000000000052f8 .LASF5107
C:\Users\CYMR90~1\AppData\Local\Temp\ccioldvv.s:30452  .debug_str:0000000000025734 .LASF5108
C:\Users\CYMR90~1\AppData\Local\Temp\ccioldvv.s:31248  .debug_str:0000000000028abe .LASF5109
C:\Users\CYMR90~1\AppData\Local\Temp\ccioldvv.s:30694  .debug_str:00000000000266c5 .LASF5110
C:\Users\CYMR90~1\AppData\Local\Temp\ccioldvv.s:25399  .debug_str:00000000000112f8 .LASF5111
C:\Users\CYMR90~1\AppData\Local\Temp\ccioldvv.s:24315  .debug_str:000000000000cfa8 .LASF5112
C:\Users\CYMR90~1\AppData\Local\Temp\ccioldvv.s:29206  .debug_str:0000000000020866 .LASF5113
C:\Users\CYMR90~1\AppData\Local\Temp\ccioldvv.s:24961  .debug_str:000000000000f82b .LASF5114
C:\Users\CYMR90~1\AppData\Local\Temp\ccioldvv.s:28844  .debug_str:000000000001f2c5 .LASF5115
C:\Users\CYMR90~1\AppData\Local\Temp\ccioldvv.s:30668  .debug_str:0000000000026536 .LASF5116
C:\Users\CYMR90~1\AppData\Local\Temp\ccioldvv.s:25869  .debug_str:0000000000013282 .LASF5117
C:\Users\CYMR90~1\AppData\Local\Temp\ccioldvv.s:24093  .debug_str:000000000000c191 .LASF5118
C:\Users\CYMR90~1\AppData\Local\Temp\ccioldvv.s:21985  .debug_str:0000000000003899 .LASF5119
C:\Users\CYMR90~1\AppData\Local\Temp\ccioldvv.s:22917  .debug_str:000000000000736e .LASF5120
C:\Users\CYMR90~1\AppData\Local\Temp\ccioldvv.s:24965  .debug_str:000000000000f87a .LASF5121
C:\Users\CYMR90~1\AppData\Local\Temp\ccioldvv.s:22487  .debug_str:0000000000005893 .LASF5122
C:\Users\CYMR90~1\AppData\Local\Temp\ccioldvv.s:31124  .debug_str:0000000000028224 .LASF5123
C:\Users\CYMR90~1\AppData\Local\Temp\ccioldvv.s:25659  .debug_str:00000000000124c1 .LASF5124
C:\Users\CYMR90~1\AppData\Local\Temp\ccioldvv.s:21821  .debug_str:0000000000002dda .LASF5125
C:\Users\CYMR90~1\AppData\Local\Temp\ccioldvv.s:30532  .debug_str:0000000000025d18 .LASF5126
C:\Users\CYMR90~1\AppData\Local\Temp\ccioldvv.s:30924  .debug_str:0000000000027559 .LASF5127
C:\Users\CYMR90~1\AppData\Local\Temp\ccioldvv.s:25417  .debug_str:00000000000113e9 .LASF5128
C:\Users\CYMR90~1\AppData\Local\Temp\ccioldvv.s:26597  .debug_str:0000000000016046 .LASF5129
C:\Users\CYMR90~1\AppData\Local\Temp\ccioldvv.s:29924  .debug_str:00000000000233d5 .LASF5130
C:\Users\CYMR90~1\AppData\Local\Temp\ccioldvv.s:28666  .debug_str:000000000001e7f2 .LASF5131
C:\Users\CYMR90~1\AppData\Local\Temp\ccioldvv.s:29566  .debug_str:0000000000021ee9 .LASF5132
C:\Users\CYMR90~1\AppData\Local\Temp\ccioldvv.s:32386  .debug_str:000000000002d1f6 .LASF5133
C:\Users\CYMR90~1\AppData\Local\Temp\ccioldvv.s:29748  .debug_str:00000000000229b2 .LASF5134
C:\Users\CYMR90~1\AppData\Local\Temp\ccioldvv.s:30362  .debug_str:0000000000025067 .LASF5135
C:\Users\CYMR90~1\AppData\Local\Temp\ccioldvv.s:23009  .debug_str:0000000000007931 .LASF5136
C:\Users\CYMR90~1\AppData\Local\Temp\ccioldvv.s:22353  .debug_str:0000000000005093 .LASF5137
C:\Users\CYMR90~1\AppData\Local\Temp\ccioldvv.s:29782  .debug_str:0000000000022bab .LASF5138
C:\Users\CYMR90~1\AppData\Local\Temp\ccioldvv.s:25721  .debug_str:00000000000128a3 .LASF5139
C:\Users\CYMR90~1\AppData\Local\Temp\ccioldvv.s:30256  .debug_str:000000000002492a .LASF5140
C:\Users\CYMR90~1\AppData\Local\Temp\ccioldvv.s:31572  .debug_str:0000000000029ea2 .LASF5141
C:\Users\CYMR90~1\AppData\Local\Temp\ccioldvv.s:29836  .debug_str:0000000000022f3d .LASF5142
C:\Users\CYMR90~1\AppData\Local\Temp\ccioldvv.s:30496  .debug_str:0000000000025ac9 .LASF5143
C:\Users\CYMR90~1\AppData\Local\Temp\ccioldvv.s:30546  .debug_str:0000000000025de6 .LASF5144
C:\Users\CYMR90~1\AppData\Local\Temp\ccioldvv.s:29356  .debug_str:0000000000021155 .LASF5145
C:\Users\CYMR90~1\AppData\Local\Temp\ccioldvv.s:25751  .debug_str:0000000000012aad .LASF5146
C:\Users\CYMR90~1\AppData\Local\Temp\ccioldvv.s:25473  .debug_str:000000000001179b .LASF5147
C:\Users\CYMR90~1\AppData\Local\Temp\ccioldvv.s:30382  .debug_str:0000000000025183 .LASF5148
C:\Users\CYMR90~1\AppData\Local\Temp\ccioldvv.s:23767  .debug_str:000000000000ab31 .LASF5149
C:\Users\CYMR90~1\AppData\Local\Temp\ccioldvv.s:25269  .debug_str:0000000000010ad7 .LASF5150
C:\Users\CYMR90~1\AppData\Local\Temp\ccioldvv.s:31840  .debug_str:000000000002ae63 .LASF5151
C:\Users\CYMR90~1\AppData\Local\Temp\ccioldvv.s:23295  .debug_str:0000000000008ca4 .LASF5152
C:\Users\CYMR90~1\AppData\Local\Temp\ccioldvv.s:23875  .debug_str:000000000000b2db .LASF5153
C:\Users\CYMR90~1\AppData\Local\Temp\ccioldvv.s:30554  .debug_str:0000000000025e57 .LASF5154
C:\Users\CYMR90~1\AppData\Local\Temp\ccioldvv.s:21351  .debug_str:0000000000001122 .LASF5155
C:\Users\CYMR90~1\AppData\Local\Temp\ccioldvv.s:26673  .debug_str:00000000000164c6 .LASF5156
C:\Users\CYMR90~1\AppData\Local\Temp\ccioldvv.s:28746  .debug_str:000000000001ecbc .LASF5157
C:\Users\CYMR90~1\AppData\Local\Temp\ccioldvv.s:31050  .debug_str:0000000000027cf9 .LASF5158
C:\Users\CYMR90~1\AppData\Local\Temp\ccioldvv.s:24725  .debug_str:000000000000e9a7 .LASF5159
C:\Users\CYMR90~1\AppData\Local\Temp\ccioldvv.s:31080  .debug_str:0000000000027f07 .LASF5160
C:\Users\CYMR90~1\AppData\Local\Temp\ccioldvv.s:28688  .debug_str:000000000001e98c .LASF5161
C:\Users\CYMR90~1\AppData\Local\Temp\ccioldvv.s:25477  .debug_str:00000000000117e6 .LASF5162
C:\Users\CYMR90~1\AppData\Local\Temp\ccioldvv.s:28996  .debug_str:000000000001fb85 .LASF5163
C:\Users\CYMR90~1\AppData\Local\Temp\ccioldvv.s:29526  .debug_str:0000000000021c64 .LASF5164
C:\Users\CYMR90~1\AppData\Local\Temp\ccioldvv.s:26015  .debug_str:0000000000013c1c .LASF5165
C:\Users\CYMR90~1\AppData\Local\Temp\ccioldvv.s:25479  .debug_str:0000000000011817 .LASF5166
C:\Users\CYMR90~1\AppData\Local\Temp\ccioldvv.s:24587  .debug_str:000000000000e0f7 .LASF5167
C:\Users\CYMR90~1\AppData\Local\Temp\ccioldvv.s:28252  .debug_str:000000000001ccdf .LASF5168
C:\Users\CYMR90~1\AppData\Local\Temp\ccioldvv.s:24705  .debug_str:000000000000e85b .LASF5169
C:\Users\CYMR90~1\AppData\Local\Temp\ccioldvv.s:31468  .debug_str:000000000002989a .LASF5170
C:\Users\CYMR90~1\AppData\Local\Temp\ccioldvv.s:32232  .debug_str:000000000002c7d3 .LASF5171
C:\Users\CYMR90~1\AppData\Local\Temp\ccioldvv.s:24735  .debug_str:000000000000ea1b .LASF5172
C:\Users\CYMR90~1\AppData\Local\Temp\ccioldvv.s:21433  .debug_str:000000000000157f .LASF5173
C:\Users\CYMR90~1\AppData\Local\Temp\ccioldvv.s:30196  .debug_str:000000000002458e .LASF5174
C:\Users\CYMR90~1\AppData\Local\Temp\ccioldvv.s:30878  .debug_str:00000000000271b4 .LASF5175
C:\Users\CYMR90~1\AppData\Local\Temp\ccioldvv.s:27750  .debug_str:000000000001ad09 .LASF5176
C:\Users\CYMR90~1\AppData\Local\Temp\ccioldvv.s:28742  .debug_str:000000000001ec8e .LASF5177
C:\Users\CYMR90~1\AppData\Local\Temp\ccioldvv.s:21283  .debug_str:0000000000000cc8 .LASF5178
C:\Users\CYMR90~1\AppData\Local\Temp\ccioldvv.s:29336  .debug_str:000000000002105b .LASF5179
C:\Users\CYMR90~1\AppData\Local\Temp\ccioldvv.s:24231  .debug_str:000000000000cab7 .LASF5180
C:\Users\CYMR90~1\AppData\Local\Temp\ccioldvv.s:26541  .debug_str:0000000000015c5e .LASF5181
C:\Users\CYMR90~1\AppData\Local\Temp\ccioldvv.s:24989  .debug_str:000000000000f9f0 .LASF5182
C:\Users\CYMR90~1\AppData\Local\Temp\ccioldvv.s:27154  .debug_str:00000000000184eb .LASF5183
C:\Users\CYMR90~1\AppData\Local\Temp\ccioldvv.s:31736  .debug_str:000000000002a83c .LASF5184
C:\Users\CYMR90~1\AppData\Local\Temp\ccioldvv.s:25945  .debug_str:00000000000137ff .LASF5185
C:\Users\CYMR90~1\AppData\Local\Temp\ccioldvv.s:28924  .debug_str:000000000001f750 .LASF5186
C:\Users\CYMR90~1\AppData\Local\Temp\ccioldvv.s:22983  .debug_str:0000000000007796 .LASF5187
C:\Users\CYMR90~1\AppData\Local\Temp\ccioldvv.s:31634  .debug_str:000000000002a234 .LASF5188
C:\Users\CYMR90~1\AppData\Local\Temp\ccioldvv.s:22857  .debug_str:0000000000006f22 .LASF5189
C:\Users\CYMR90~1\AppData\Local\Temp\ccioldvv.s:30960  .debug_str:0000000000027775 .LASF5190
C:\Users\CYMR90~1\AppData\Local\Temp\ccioldvv.s:31446  .debug_str:0000000000029720 .LASF5191
C:\Users\CYMR90~1\AppData\Local\Temp\ccioldvv.s:29662  .debug_str:000000000002247e .LASF5192
C:\Users\CYMR90~1\AppData\Local\Temp\ccioldvv.s:26451  .debug_str:00000000000156e2 .LASF5193
C:\Users\CYMR90~1\AppData\Local\Temp\ccioldvv.s:31364  .debug_str:00000000000291d8 .LASF5194
C:\Users\CYMR90~1\AppData\Local\Temp\ccioldvv.s:21901  .debug_str:00000000000032f9 .LASF5195
C:\Users\CYMR90~1\AppData\Local\Temp\ccioldvv.s:32140  .debug_str:000000000002c213 .LASF5196
C:\Users\CYMR90~1\AppData\Local\Temp\ccioldvv.s:23479  .debug_str:0000000000009813 .LASF5197
C:\Users\CYMR90~1\AppData\Local\Temp\ccioldvv.s:23305  .debug_str:0000000000008d12 .LASF5198
C:\Users\CYMR90~1\AppData\Local\Temp\ccioldvv.s:31642  .debug_str:000000000002a293 .LASF5199
C:\Users\CYMR90~1\AppData\Local\Temp\ccioldvv.s:24825  .debug_str:000000000000ef6a .LASF5200
C:\Users\CYMR90~1\AppData\Local\Temp\ccioldvv.s:31334  .debug_str:0000000000028ff0 .LASF5201
C:\Users\CYMR90~1\AppData\Local\Temp\ccioldvv.s:23419  .debug_str:0000000000009432 .LASF5202
C:\Users\CYMR90~1\AppData\Local\Temp\ccioldvv.s:32036  .debug_str:000000000002bb0a .LASF5203
C:\Users\CYMR90~1\AppData\Local\Temp\ccioldvv.s:30614  .debug_str:000000000002621d .LASF5204
C:\Users\CYMR90~1\AppData\Local\Temp\ccioldvv.s:24969  .debug_str:000000000000f8d0 .LASF5205
C:\Users\CYMR90~1\AppData\Local\Temp\ccioldvv.s:22185  .debug_str:0000000000004591 .LASF5206
C:\Users\CYMR90~1\AppData\Local\Temp\ccioldvv.s:27710  .debug_str:000000000001aa99 .LASF5207
C:\Users\CYMR90~1\AppData\Local\Temp\ccioldvv.s:30376  .debug_str:0000000000025138 .LASF5208
C:\Users\CYMR90~1\AppData\Local\Temp\ccioldvv.s:24905  .debug_str:000000000000f46f .LASF5209
C:\Users\CYMR90~1\AppData\Local\Temp\ccioldvv.s:21185  .debug_str:0000000000000698 .LASF5210
C:\Users\CYMR90~1\AppData\Local\Temp\ccioldvv.s:21133  .debug_str:00000000000003b6 .LASF5211
C:\Users\CYMR90~1\AppData\Local\Temp\ccioldvv.s:21483  .debug_str:0000000000001928 .LASF5212
C:\Users\CYMR90~1\AppData\Local\Temp\ccioldvv.s:30012  .debug_str:00000000000239be .LASF5213
C:\Users\CYMR90~1\AppData\Local\Temp\ccioldvv.s:30664  .debug_str:00000000000264f5 .LASF5214
C:\Users\CYMR90~1\AppData\Local\Temp\ccioldvv.s:25821  .debug_str:0000000000012f43 .LASF5215
C:\Users\CYMR90~1\AppData\Local\Temp\ccioldvv.s:27744  .debug_str:000000000001acca .LASF5216
C:\Users\CYMR90~1\AppData\Local\Temp\ccioldvv.s:29064  .debug_str:000000000001ffe9 .LASF5217
C:\Users\CYMR90~1\AppData\Local\Temp\ccioldvv.s:26547  .debug_str:0000000000015cf7 .LASF5218
C:\Users\CYMR90~1\AppData\Local\Temp\ccioldvv.s:29122  .debug_str:000000000002031e .LASF5219
C:\Users\CYMR90~1\AppData\Local\Temp\ccioldvv.s:28438  .debug_str:000000000001d9f8 .LASF5220
C:\Users\CYMR90~1\AppData\Local\Temp\ccioldvv.s:23211  .debug_str:000000000000874d .LASF5221
C:\Users\CYMR90~1\AppData\Local\Temp\ccioldvv.s:29808  .debug_str:0000000000022d9c .LASF5222
C:\Users\CYMR90~1\AppData\Local\Temp\ccioldvv.s:29102  .debug_str:000000000002020e .LASF5223
C:\Users\CYMR90~1\AppData\Local\Temp\ccioldvv.s:22239  .debug_str:00000000000049c1 .LASF5224
C:\Users\CYMR90~1\AppData\Local\Temp\ccioldvv.s:22665  .debug_str:0000000000006301 .LASF5225
C:\Users\CYMR90~1\AppData\Local\Temp\ccioldvv.s:29760  .debug_str:0000000000022a81 .LASF5226
C:\Users\CYMR90~1\AppData\Local\Temp\ccioldvv.s:31522  .debug_str:0000000000029ba9 .LASF5227
C:\Users\CYMR90~1\AppData\Local\Temp\ccioldvv.s:27332  .debug_str:000000000001909c .LASF5228
C:\Users\CYMR90~1\AppData\Local\Temp\ccioldvv.s:24131  .debug_str:000000000000c424 .LASF5229
C:\Users\CYMR90~1\AppData\Local\Temp\ccioldvv.s:28822  .debug_str:000000000001f160 .LASF5230
C:\Users\CYMR90~1\AppData\Local\Temp\ccioldvv.s:22147  .debug_str:000000000000431c .LASF5231
C:\Users\CYMR90~1\AppData\Local\Temp\ccioldvv.s:29212  .debug_str:00000000000208fc .LASF5232
C:\Users\CYMR90~1\AppData\Local\Temp\ccioldvv.s:26019  .debug_str:0000000000013c6f .LASF5233
C:\Users\CYMR90~1\AppData\Local\Temp\ccioldvv.s:31472  .debug_str:00000000000298d5 .LASF5234
C:\Users\CYMR90~1\AppData\Local\Temp\ccioldvv.s:25151  .debug_str:00000000000103bf .LASF5235
C:\Users\CYMR90~1\AppData\Local\Temp\ccioldvv.s:24381  .debug_str:000000000000d45f .LASF5236
C:\Users\CYMR90~1\AppData\Local\Temp\ccioldvv.s:28832  .debug_str:000000000001f219 .LASF5237
C:\Users\CYMR90~1\AppData\Local\Temp\ccioldvv.s:32060  .debug_str:000000000002bc82 .LASF5238
C:\Users\CYMR90~1\AppData\Local\Temp\ccioldvv.s:30874  .debug_str:0000000000027184 .LASF5239
C:\Users\CYMR90~1\AppData\Local\Temp\ccioldvv.s:29936  .debug_str:00000000000234a3 .LASF5240
C:\Users\CYMR90~1\AppData\Local\Temp\ccioldvv.s:23919  .debug_str:000000000000b532 .LASF5241
C:\Users\CYMR90~1\AppData\Local\Temp\ccioldvv.s:30068  .debug_str:0000000000023cff .LASF5242
C:\Users\CYMR90~1\AppData\Local\Temp\ccioldvv.s:31166  .debug_str:000000000002855e .LASF5243
C:\Users\CYMR90~1\AppData\Local\Temp\ccioldvv.s:27580  .debug_str:000000000001a115 .LASF5244
C:\Users\CYMR90~1\AppData\Local\Temp\ccioldvv.s:27114  .debug_str:000000000001828d .LASF5245
C:\Users\CYMR90~1\AppData\Local\Temp\ccioldvv.s:31000  .debug_str:0000000000027999 .LASF5246
C:\Users\CYMR90~1\AppData\Local\Temp\ccioldvv.s:30368  .debug_str:00000000000250c2 .LASF5247
C:\Users\CYMR90~1\AppData\Local\Temp\ccioldvv.s:23061  .debug_str:0000000000007ca8 .LASF5248
C:\Users\CYMR90~1\AppData\Local\Temp\ccioldvv.s:22497  .debug_str:0000000000005952 .LASF5249
C:\Users\CYMR90~1\AppData\Local\Temp\ccioldvv.s:22807  .debug_str:0000000000006bbc .LASF5250
C:\Users\CYMR90~1\AppData\Local\Temp\ccioldvv.s:24271  .debug_str:000000000000cd57 .LASF5251
C:\Users\CYMR90~1\AppData\Local\Temp\ccioldvv.s:25625  .debug_str:00000000000122ab .LASF5252
C:\Users\CYMR90~1\AppData\Local\Temp\ccioldvv.s:24021  .debug_str:000000000000bc51 .LASF5253
C:\Users\CYMR90~1\AppData\Local\Temp\ccioldvv.s:31070  .debug_str:0000000000027e81 .LASF5254
C:\Users\CYMR90~1\AppData\Local\Temp\ccioldvv.s:30648  .debug_str:000000000002641b .LASF5255
C:\Users\CYMR90~1\AppData\Local\Temp\ccioldvv.s:26363  .debug_str:00000000000151ce .LASF5256
C:\Users\CYMR90~1\AppData\Local\Temp\ccioldvv.s:28992  .debug_str:000000000001fb5d .LASF5257
C:\Users\CYMR90~1\AppData\Local\Temp\ccioldvv.s:25931  .debug_str:0000000000013725 .LASF5258
C:\Users\CYMR90~1\AppData\Local\Temp\ccioldvv.s:32210  .debug_str:000000000002c6b9 .LASF5259
C:\Users\CYMR90~1\AppData\Local\Temp\ccioldvv.s:24151  .debug_str:000000000000c53a .LASF5260
C:\Users\CYMR90~1\AppData\Local\Temp\ccioldvv.s:28278  .debug_str:000000000001cf37 .LASF5261
C:\Users\CYMR90~1\AppData\Local\Temp\ccioldvv.s:31830  .debug_str:000000000002adb3 .LASF5262
C:\Users\CYMR90~1\AppData\Local\Temp\ccioldvv.s:24345  .debug_str:000000000000d1af .LASF5263
C:\Users\CYMR90~1\AppData\Local\Temp\ccioldvv.s:31464  .debug_str:000000000002985e .LASF5264
C:\Users\CYMR90~1\AppData\Local\Temp\ccioldvv.s:27000  .debug_str:0000000000017bd1 .LASF5265
C:\Users\CYMR90~1\AppData\Local\Temp\ccioldvv.s:26175  .debug_str:00000000000145d1 .LASF5266
C:\Users\CYMR90~1\AppData\Local\Temp\ccioldvv.s:27058  .debug_str:0000000000017f4b .LASF5267
C:\Users\CYMR90~1\AppData\Local\Temp\ccioldvv.s:26371  .debug_str:000000000001524c .LASF5268
C:\Users\CYMR90~1\AppData\Local\Temp\ccioldvv.s:24407  .debug_str:000000000000d67c .LASF5269
C:\Users\CYMR90~1\AppData\Local\Temp\ccioldvv.s:26047  .debug_str:0000000000013e20 .LASF5270
C:\Users\CYMR90~1\AppData\Local\Temp\ccioldvv.s:21775  .debug_str:0000000000002acb .LASF5271
C:\Users\CYMR90~1\AppData\Local\Temp\ccioldvv.s:23597  .debug_str:0000000000009fca .LASF5272
C:\Users\CYMR90~1\AppData\Local\Temp\ccioldvv.s:30396  .debug_str:00000000000252de .LASF5273
C:\Users\CYMR90~1\AppData\Local\Temp\ccioldvv.s:28342  .debug_str:000000000001d3c7 .LASF5274
C:\Users\CYMR90~1\AppData\Local\Temp\ccioldvv.s:32296  .debug_str:000000000002cc5e .LASF5275
C:\Users\CYMR90~1\AppData\Local\Temp\ccioldvv.s:26551  .debug_str:0000000000015d1d .LASF5276
C:\Users\CYMR90~1\AppData\Local\Temp\ccioldvv.s:23633  .debug_str:000000000000a230 .LASF5277
C:\Users\CYMR90~1\AppData\Local\Temp\ccioldvv.s:24443  .debug_str:000000000000d8ad .LASF5278
C:\Users\CYMR90~1\AppData\Local\Temp\ccioldvv.s:29112  .debug_str:0000000000020284 .LASF5279
C:\Users\CYMR90~1\AppData\Local\Temp\ccioldvv.s:30490  .debug_str:0000000000025a58 .LASF5280
C:\Users\CYMR90~1\AppData\Local\Temp\ccioldvv.s:24249  .debug_str:000000000000cbd8 .LASF5281
C:\Users\CYMR90~1\AppData\Local\Temp\ccioldvv.s:23663  .debug_str:000000000000a415 .LASF5282
C:\Users\CYMR90~1\AppData\Local\Temp\ccioldvv.s:27800  .debug_str:000000000001b044 .LASF5283
C:\Users\CYMR90~1\AppData\Local\Temp\ccioldvv.s:25049  .debug_str:000000000000fd62 .LASF5284
C:\Users\CYMR90~1\AppData\Local\Temp\ccioldvv.s:27272  .debug_str:0000000000018c37 .LASF5285
C:\Users\CYMR90~1\AppData\Local\Temp\ccioldvv.s:24217  .debug_str:000000000000c964 .LASF5286
C:\Users\CYMR90~1\AppData\Local\Temp\ccioldvv.s:24347  .debug_str:000000000000d1c7 .LASF5287
C:\Users\CYMR90~1\AppData\Local\Temp\ccioldvv.s:25421  .debug_str:0000000000011434 .LASF5288
C:\Users\CYMR90~1\AppData\Local\Temp\ccioldvv.s:28474  .debug_str:000000000001dc04 .LASF5289
C:\Users\CYMR90~1\AppData\Local\Temp\ccioldvv.s:23389  .debug_str:000000000000927f .LASF5290
C:\Users\CYMR90~1\AppData\Local\Temp\ccioldvv.s:23453  .debug_str:000000000000968a .LASF5291
C:\Users\CYMR90~1\AppData\Local\Temp\ccioldvv.s:28366  .debug_str:000000000001d534 .LASF5292
C:\Users\CYMR90~1\AppData\Local\Temp\ccioldvv.s:31286  .debug_str:0000000000028cff .LASF5293
C:\Users\CYMR90~1\AppData\Local\Temp\ccioldvv.s:29682  .debug_str:0000000000022565 .LASF5294
C:\Users\CYMR90~1\AppData\Local\Temp\ccioldvv.s:21085  .debug_str:00000000000000c4 .LASF5295
C:\Users\CYMR90~1\AppData\Local\Temp\ccioldvv.s:23307  .debug_str:0000000000008d28 .LASF5296
C:\Users\CYMR90~1\AppData\Local\Temp\ccioldvv.s:32348  .debug_str:000000000002cfd0 .LASF5297
C:\Users\CYMR90~1\AppData\Local\Temp\ccioldvv.s:28504  .debug_str:000000000001de43 .LASF5298
C:\Users\CYMR90~1\AppData\Local\Temp\ccioldvv.s:29896  .debug_str:0000000000023244 .LASF5299
C:\Users\CYMR90~1\AppData\Local\Temp\ccioldvv.s:21713  .debug_str:000000000000269e .LASF5300
C:\Users\CYMR90~1\AppData\Local\Temp\ccioldvv.s:29310  .debug_str:0000000000020ee6 .LASF5301
C:\Users\CYMR90~1\AppData\Local\Temp\ccioldvv.s:31194  .debug_str:0000000000028739 .LASF5302
C:\Users\CYMR90~1\AppData\Local\Temp\ccioldvv.s:21177  .debug_str:0000000000000604 .LASF5303
C:\Users\CYMR90~1\AppData\Local\Temp\ccioldvv.s:25653  .debug_str:0000000000012443 .LASF5304
C:\Users\CYMR90~1\AppData\Local\Temp\ccioldvv.s:26073  .debug_str:0000000000013f97 .LASF5305
C:\Users\CYMR90~1\AppData\Local\Temp\ccioldvv.s:25623  .debug_str:0000000000012292 .LASF5306
C:\Users\CYMR90~1\AppData\Local\Temp\ccioldvv.s:22671  .debug_str:0000000000006363 .LASF5307
C:\Users\CYMR90~1\AppData\Local\Temp\ccioldvv.s:28812  .debug_str:000000000001f0b0 .LASF5308
C:\Users\CYMR90~1\AppData\Local\Temp\ccioldvv.s:26948  .debug_str:000000000001784f .LASF5309
C:\Users\CYMR90~1\AppData\Local\Temp\ccioldvv.s:21439  .debug_str:00000000000015e6 .LASF5310
C:\Users\CYMR90~1\AppData\Local\Temp\ccioldvv.s:29030  .debug_str:000000000001fda8 .LASF5311
C:\Users\CYMR90~1\AppData\Local\Temp\ccioldvv.s:21789  .debug_str:0000000000002bee .LASF5312
C:\Users\CYMR90~1\AppData\Local\Temp\ccioldvv.s:29956  .debug_str:00000000000235cd .LASF5313
C:\Users\CYMR90~1\AppData\Local\Temp\ccioldvv.s:21391  .debug_str:000000000000131b .LASF5314
C:\Users\CYMR90~1\AppData\Local\Temp\ccioldvv.s:30816  .debug_str:0000000000026e02 .LASF5315
C:\Users\CYMR90~1\AppData\Local\Temp\ccioldvv.s:31728  .debug_str:000000000002a7b0 .LASF5316
C:\Users\CYMR90~1\AppData\Local\Temp\ccioldvv.s:22007  .debug_str:00000000000039e3 .LASF5317
C:\Users\CYMR90~1\AppData\Local\Temp\ccioldvv.s:23883  .debug_str:000000000000b347 .LASF5318
C:\Users\CYMR90~1\AppData\Local\Temp\ccioldvv.s:30116  .debug_str:0000000000023fb0 .LASF5319
C:\Users\CYMR90~1\AppData\Local\Temp\ccioldvv.s:22571  .debug_str:0000000000005d86 .LASF5320
C:\Users\CYMR90~1\AppData\Local\Temp\ccioldvv.s:30970  .debug_str:0000000000027806 .LASF5321
C:\Users\CYMR90~1\AppData\Local\Temp\ccioldvv.s:23153  .debug_str:00000000000083be .LASF5322
C:\Users\CYMR90~1\AppData\Local\Temp\ccioldvv.s:31938  .debug_str:000000000002b46a .LASF5323
C:\Users\CYMR90~1\AppData\Local\Temp\ccioldvv.s:29106  .debug_str:0000000000020239 .LASF5324
C:\Users\CYMR90~1\AppData\Local\Temp\ccioldvv.s:27426  .debug_str:00000000000196c9 .LASF5325
C:\Users\CYMR90~1\AppData\Local\Temp\ccioldvv.s:21317  .debug_str:0000000000000f30 .LASF5326
C:\Users\CYMR90~1\AppData\Local\Temp\ccioldvv.s:28938  .debug_str:000000000001f825 .LASF5327
C:\Users\CYMR90~1\AppData\Local\Temp\ccioldvv.s:22521  .debug_str:0000000000005abf .LASF5328
C:\Users\CYMR90~1\AppData\Local\Temp\ccioldvv.s:31906  .debug_str:000000000002b234 .LASF5329
C:\Users\CYMR90~1\AppData\Local\Temp\ccioldvv.s:26671  .debug_str:00000000000164a9 .LASF5330
C:\Users\CYMR90~1\AppData\Local\Temp\ccioldvv.s:26469  .debug_str:00000000000157f0 .LASF5331
C:\Users\CYMR90~1\AppData\Local\Temp\ccioldvv.s:27494  .debug_str:0000000000019be0 .LASF5332
C:\Users\CYMR90~1\AppData\Local\Temp\ccioldvv.s:30712  .debug_str:00000000000267d4 .LASF5333
C:\Users\CYMR90~1\AppData\Local\Temp\ccioldvv.s:30276  .debug_str:0000000000024af3 .LASF5334
C:\Users\CYMR90~1\AppData\Local\Temp\ccioldvv.s:31886  .debug_str:000000000002b10b .LASF5335
C:\Users\CYMR90~1\AppData\Local\Temp\ccioldvv.s:22057  .debug_str:0000000000003cfd .LASF5336
C:\Users\CYMR90~1\AppData\Local\Temp\ccioldvv.s:28734  .debug_str:000000000001ec35 .LASF5337
C:\Users\CYMR90~1\AppData\Local\Temp\ccioldvv.s:28172  .debug_str:000000000001c70e .LASF5338
C:\Users\CYMR90~1\AppData\Local\Temp\ccioldvv.s:25845  .debug_str:00000000000130cc .LASF5339
C:\Users\CYMR90~1\AppData\Local\Temp\ccioldvv.s:22475  .debug_str:00000000000057f5 .LASF5340
C:\Users\CYMR90~1\AppData\Local\Temp\ccioldvv.s:29512  .debug_str:0000000000021b78 .LASF5341
C:\Users\CYMR90~1\AppData\Local\Temp\ccioldvv.s:23473  .debug_str:00000000000097a8 .LASF5342
C:\Users\CYMR90~1\AppData\Local\Temp\ccioldvv.s:32280  .debug_str:000000000002cb41 .LASF5343
C:\Users\CYMR90~1\AppData\Local\Temp\ccioldvv.s:31342  .debug_str:0000000000029051 .LASF5344
C:\Users\CYMR90~1\AppData\Local\Temp\ccioldvv.s:21891  .debug_str:0000000000003249 .LASF5345
C:\Users\CYMR90~1\AppData\Local\Temp\ccioldvv.s:29466  .debug_str:00000000000218d2 .LASF5346
C:\Users\CYMR90~1\AppData\Local\Temp\ccioldvv.s:32242  .debug_str:000000000002c882 .LASF5347
C:\Users\CYMR90~1\AppData\Local\Temp\ccioldvv.s:28712  .debug_str:000000000001eaed .LASF5348
C:\Users\CYMR90~1\AppData\Local\Temp\ccioldvv.s:31590  .debug_str:0000000000029fae .LASF5349
C:\Users\CYMR90~1\AppData\Local\Temp\ccioldvv.s:26545  .debug_str:0000000000015cd7 .LASF5350
C:\Users\CYMR90~1\AppData\Local\Temp\ccioldvv.s:28644  .debug_str:000000000001e6b4 .LASF5351
C:\Users\CYMR90~1\AppData\Local\Temp\ccioldvv.s:24937  .debug_str:000000000000f63a .LASF5352
C:\Users\CYMR90~1\AppData\Local\Temp\ccioldvv.s:24925  .debug_str:000000000000f58d .LASF5353
C:\Users\CYMR90~1\AppData\Local\Temp\ccioldvv.s:29010  .debug_str:000000000001fc7b .LASF5354
C:\Users\CYMR90~1\AppData\Local\Temp\ccioldvv.s:30704  .debug_str:000000000002676b .LASF5355
C:\Users\CYMR90~1\AppData\Local\Temp\ccioldvv.s:25019  .debug_str:000000000000fbaa .LASF5356
C:\Users\CYMR90~1\AppData\Local\Temp\ccioldvv.s:27440  .debug_str:00000000000197ac .LASF5357
C:\Users\CYMR90~1\AppData\Local\Temp\ccioldvv.s:22329  .debug_str:0000000000004f46 .LASF5358
C:\Users\CYMR90~1\AppData\Local\Temp\ccioldvv.s:26986  .debug_str:0000000000017af1 .LASF5359
C:\Users\CYMR90~1\AppData\Local\Temp\ccioldvv.s:21589  .debug_str:0000000000001f6b .LASF5360
C:\Users\CYMR90~1\AppData\Local\Temp\ccioldvv.s:21911  .debug_str:00000000000033a8 .LASF5361
C:\Users\CYMR90~1\AppData\Local\Temp\ccioldvv.s:24679  .debug_str:000000000000e66b .LASF5362
C:\Users\CYMR90~1\AppData\Local\Temp\ccioldvv.s:25423  .debug_str:0000000000011456 .LASF5363
C:\Users\CYMR90~1\AppData\Local\Temp\ccioldvv.s:23815  .debug_str:000000000000ae43 .LASF5364
C:\Users\CYMR90~1\AppData\Local\Temp\ccioldvv.s:22105  .debug_str:0000000000004039 .LASF5365
C:\Users\CYMR90~1\AppData\Local\Temp\ccioldvv.s:31994  .debug_str:000000000002b80a .LASF5366
C:\Users\CYMR90~1\AppData\Local\Temp\ccioldvv.s:23641  .debug_str:000000000000a2bc .LASF5367
C:\Users\CYMR90~1\AppData\Local\Temp\ccioldvv.s:29254  .debug_str:0000000000020b59 .LASF5368
C:\Users\CYMR90~1\AppData\Local\Temp\ccioldvv.s:29950  .debug_str:0000000000023576 .LASF5369
C:\Users\CYMR90~1\AppData\Local\Temp\ccioldvv.s:32030  .debug_str:000000000002ba9a .LASF5370
C:\Users\CYMR90~1\AppData\Local\Temp\ccioldvv.s:21373  .debug_str:0000000000001227 .LASF5371
C:\Users\CYMR90~1\AppData\Local\Temp\ccioldvv.s:26832  .debug_str:000000000001717b .LASF5372
C:\Users\CYMR90~1\AppData\Local\Temp\ccioldvv.s:29578  .debug_str:0000000000021fa6 .LASF5373
C:\Users\CYMR90~1\AppData\Local\Temp\ccioldvv.s:28506  .debug_str:000000000001de65 .LASF5374
C:\Users\CYMR90~1\AppData\Local\Temp\ccioldvv.s:31832  .debug_str:000000000002adca .LASF5375
C:\Users\CYMR90~1\AppData\Local\Temp\ccioldvv.s:21559  .debug_str:0000000000001db2 .LASF5376
C:\Users\CYMR90~1\AppData\Local\Temp\ccioldvv.s:27778  .debug_str:000000000001ae9c .LASF5377
C:\Users\CYMR90~1\AppData\Local\Temp\ccioldvv.s:24561  .debug_str:000000000000dfa1 .LASF5378
C:\Users\CYMR90~1\AppData\Local\Temp\ccioldvv.s:26117  .debug_str:000000000001426e .LASF5379
C:\Users\CYMR90~1\AppData\Local\Temp\ccioldvv.s:31204  .debug_str:00000000000287f1 .LASF5380
C:\Users\CYMR90~1\AppData\Local\Temp\ccioldvv.s:32138  .debug_str:000000000002c1da .LASF5381
C:\Users\CYMR90~1\AppData\Local\Temp\ccioldvv.s:29820  .debug_str:0000000000022e62 .LASF5382
C:\Users\CYMR90~1\AppData\Local\Temp\ccioldvv.s:21431  .debug_str:000000000000155b .LASF5383
C:\Users\CYMR90~1\AppData\Local\Temp\ccioldvv.s:21739  .debug_str:000000000000288c .LASF5384
C:\Users\CYMR90~1\AppData\Local\Temp\ccioldvv.s:21835  .debug_str:0000000000002eb0 .LASF5385
C:\Users\CYMR90~1\AppData\Local\Temp\ccioldvv.s:22631  .debug_str:0000000000006119 .LASF5386
C:\Users\CYMR90~1\AppData\Local\Temp\ccioldvv.s:25875  .debug_str:00000000000132ea .LASF5387
C:\Users\CYMR90~1\AppData\Local\Temp\ccioldvv.s:24421  .debug_str:000000000000d76a .LASF5388
C:\Users\CYMR90~1\AppData\Local\Temp\ccioldvv.s:21623  .debug_str:0000000000002131 .LASF5389
C:\Users\CYMR90~1\AppData\Local\Temp\ccioldvv.s:27452  .debug_str:00000000000198cd .LASF5390
C:\Users\CYMR90~1\AppData\Local\Temp\ccioldvv.s:22579  .debug_str:0000000000005dea .LASF5391
C:\Users\CYMR90~1\AppData\Local\Temp\ccioldvv.s:22413  .debug_str:0000000000005421 .LASF5392
C:\Users\CYMR90~1\AppData\Local\Temp\ccioldvv.s:23941  .debug_str:000000000000b705 .LASF5393
C:\Users\CYMR90~1\AppData\Local\Temp\ccioldvv.s:22173  .debug_str:00000000000044ce .LASF5394
C:\Users\CYMR90~1\AppData\Local\Temp\ccioldvv.s:25305  .debug_str:0000000000010dc4 .LASF5395
C:\Users\CYMR90~1\AppData\Local\Temp\ccioldvv.s:29772  .debug_str:0000000000022b2d .LASF5396
C:\Users\CYMR90~1\AppData\Local\Temp\ccioldvv.s:22187  .debug_str:00000000000045a9 .LASF5397
C:\Users\CYMR90~1\AppData\Local\Temp\ccioldvv.s:24025  .debug_str:000000000000bc83 .LASF5398
C:\Users\CYMR90~1\AppData\Local\Temp\ccioldvv.s:23973  .debug_str:000000000000b952 .LASF5399
C:\Users\CYMR90~1\AppData\Local\Temp\ccioldvv.s:26888  .debug_str:00000000000174a1 .LASF5400
C:\Users\CYMR90~1\AppData\Local\Temp\ccioldvv.s:30466  .debug_str:0000000000025862 .LASF5401
C:\Users\CYMR90~1\AppData\Local\Temp\ccioldvv.s:23697  .debug_str:000000000000a63b .LASF5402
C:\Users\CYMR90~1\AppData\Local\Temp\ccioldvv.s:21715  .debug_str:00000000000026d7 .LASF5403
C:\Users\CYMR90~1\AppData\Local\Temp\ccioldvv.s:27888  .debug_str:000000000001b5fc .LASF5404
C:\Users\CYMR90~1\AppData\Local\Temp\ccioldvv.s:22287  .debug_str:0000000000004cc6 .LASF5405
C:\Users\CYMR90~1\AppData\Local\Temp\ccioldvv.s:27266  .debug_str:0000000000018beb .LASF5406
C:\Users\CYMR90~1\AppData\Local\Temp\ccioldvv.s:22879  .debug_str:0000000000007093 .LASF5407
C:\Users\CYMR90~1\AppData\Local\Temp\ccioldvv.s:21575  .debug_str:0000000000001eb9 .LASF5408
C:\Users\CYMR90~1\AppData\Local\Temp\ccioldvv.s:27620  .debug_str:000000000001a355 .LASF5409
C:\Users\CYMR90~1\AppData\Local\Temp\ccioldvv.s:22701  .debug_str:0000000000006526 .LASF5410
C:\Users\CYMR90~1\AppData\Local\Temp\ccioldvv.s:23631  .debug_str:000000000000a219 .LASF5411
C:\Users\CYMR90~1\AppData\Local\Temp\ccioldvv.s:32258  .debug_str:000000000002c9c9 .LASF5412
C:\Users\CYMR90~1\AppData\Local\Temp\ccioldvv.s:22653  .debug_str:0000000000006254 .LASF5413
C:\Users\CYMR90~1\AppData\Local\Temp\ccioldvv.s:21201  .debug_str:0000000000000798 .LASF5414
C:\Users\CYMR90~1\AppData\Local\Temp\ccioldvv.s:25995  .debug_str:0000000000013b05 .LASF5415
C:\Users\CYMR90~1\AppData\Local\Temp\ccioldvv.s:22599  .debug_str:0000000000005f16 .LASF5416
C:\Users\CYMR90~1\AppData\Local\Temp\ccioldvv.s:22403  .debug_str:00000000000053a2 .LASF5417
C:\Users\CYMR90~1\AppData\Local\Temp\ccioldvv.s:31770  .debug_str:000000000002aa4c .LASF5418
C:\Users\CYMR90~1\AppData\Local\Temp\ccioldvv.s:24095  .debug_str:000000000000c1b7 .LASF5419
C:\Users\CYMR90~1\AppData\Local\Temp\ccioldvv.s:21755  .debug_str:000000000000297f .LASF5420
C:\Users\CYMR90~1\AppData\Local\Temp\ccioldvv.s:29668  .debug_str:00000000000224c3 .LASF5421
C:\Users\CYMR90~1\AppData\Local\Temp\ccioldvv.s:21745  .debug_str:00000000000028e8 .LASF5422
C:\Users\CYMR90~1\AppData\Local\Temp\ccioldvv.s:21327  .debug_str:0000000000000fa9 .LASF5423
C:\Users\CYMR90~1\AppData\Local\Temp\ccioldvv.s:22415  .debug_str:0000000000005445 .LASF5424
C:\Users\CYMR90~1\AppData\Local\Temp\ccioldvv.s:22537  .debug_str:0000000000005bd3 .LASF5425
C:\Users\CYMR90~1\AppData\Local\Temp\ccioldvv.s:23945  .debug_str:000000000000b75f .LASF5426
C:\Users\CYMR90~1\AppData\Local\Temp\ccioldvv.s:31650  .debug_str:000000000002a2fa .LASF5427
C:\Users\CYMR90~1\AppData\Local\Temp\ccioldvv.s:29686  .debug_str:00000000000225bf .LASF5428
C:\Users\CYMR90~1\AppData\Local\Temp\ccioldvv.s:23981  .debug_str:000000000000b9c2 .LASF5429
C:\Users\CYMR90~1\AppData\Local\Temp\ccioldvv.s:27078  .debug_str:0000000000018060 .LASF5430
C:\Users\CYMR90~1\AppData\Local\Temp\ccioldvv.s:24931  .debug_str:000000000000f5e6 .LASF5431
C:\Users\CYMR90~1\AppData\Local\Temp\ccioldvv.s:23715  .debug_str:000000000000a725 .LASF5432
C:\Users\CYMR90~1\AppData\Local\Temp\ccioldvv.s:31502  .debug_str:0000000000029a66 .LASF5433
C:\Users\CYMR90~1\AppData\Local\Temp\ccioldvv.s:27716  .debug_str:000000000001aaee .LASF5434
C:\Users\CYMR90~1\AppData\Local\Temp\ccioldvv.s:22799  .debug_str:0000000000006b4c .LASF5435
C:\Users\CYMR90~1\AppData\Local\Temp\ccioldvv.s:21487  .debug_str:0000000000001961 .LASF5436
C:\Users\CYMR90~1\AppData\Local\Temp\ccioldvv.s:28622  .debug_str:000000000001e55d .LASF5437
C:\Users\CYMR90~1\AppData\Local\Temp\ccioldvv.s:23959  .debug_str:000000000000b856 .LASF5438
C:\Users\CYMR90~1\AppData\Local\Temp\ccioldvv.s:21503  .debug_str:0000000000001a5a .LASF5439
C:\Users\CYMR90~1\AppData\Local\Temp\ccioldvv.s:26529  .debug_str:0000000000015b72 .LASF5440
C:\Users\CYMR90~1\AppData\Local\Temp\ccioldvv.s:30344  .debug_str:0000000000024f25 .LASF5441
C:\Users\CYMR90~1\AppData\Local\Temp\ccioldvv.s:29724  .debug_str:0000000000022855 .LASF5442
C:\Users\CYMR90~1\AppData\Local\Temp\ccioldvv.s:25941  .debug_str:00000000000137a7 .LASF5443
C:\Users\CYMR90~1\AppData\Local\Temp\ccioldvv.s:23365  .debug_str:00000000000090fe .LASF5444
C:\Users\CYMR90~1\AppData\Local\Temp\ccioldvv.s:32234  .debug_str:000000000002c805 .LASF5445
C:\Users\CYMR90~1\AppData\Local\Temp\ccioldvv.s:30644  .debug_str:00000000000263d3 .LASF5446
C:\Users\CYMR90~1\AppData\Local\Temp\ccioldvv.s:22055  .debug_str:0000000000003ce6 .LASF5447
C:\Users\CYMR90~1\AppData\Local\Temp\ccioldvv.s:29528  .debug_str:0000000000021c95 .LASF5448
C:\Users\CYMR90~1\AppData\Local\Temp\ccioldvv.s:22023  .debug_str:0000000000003af5 .LASF5449
C:\Users\CYMR90~1\AppData\Local\Temp\ccioldvv.s:22003  .debug_str:0000000000003995 .LASF5450
C:\Users\CYMR90~1\AppData\Local\Temp\ccioldvv.s:25237  .debug_str:00000000000108d2 .LASF5451
C:\Users\CYMR90~1\AppData\Local\Temp\ccioldvv.s:22769  .debug_str:0000000000006965 .LASF5452
C:\Users\CYMR90~1\AppData\Local\Temp\ccioldvv.s:25633  .debug_str:0000000000012332 .LASF5453
C:\Users\CYMR90~1\AppData\Local\Temp\ccioldvv.s:25285  .debug_str:0000000000010c11 .LASF5454
C:\Users\CYMR90~1\AppData\Local\Temp\ccioldvv.s:23023  .debug_str:0000000000007a2f .LASF5455
C:\Users\CYMR90~1\AppData\Local\Temp\ccioldvv.s:22989  .debug_str:00000000000077eb .LASF5456
C:\Users\CYMR90~1\AppData\Local\Temp\ccioldvv.s:24563  .debug_str:000000000000dfcb .LASF5457
C:\Users\CYMR90~1\AppData\Local\Temp\ccioldvv.s:32194  .debug_str:000000000002c5dd .LASF5458
C:\Users\CYMR90~1\AppData\Local\Temp\ccioldvv.s:28026  .debug_str:000000000001be43 .LASF5459
C:\Users\CYMR90~1\AppData\Local\Temp\ccioldvv.s:29166  .debug_str:00000000000205f9 .LASF5460
C:\Users\CYMR90~1\AppData\Local\Temp\ccioldvv.s:22561  .debug_str:0000000000005d02 .LASF5461
C:\Users\CYMR90~1\AppData\Local\Temp\ccioldvv.s:23501  .debug_str:00000000000099a2 .LASF5462
C:\Users\CYMR90~1\AppData\Local\Temp\ccioldvv.s:31520  .debug_str:0000000000029b90 .LASF5463
C:\Users\CYMR90~1\AppData\Local\Temp\ccioldvv.s:23367  .debug_str:000000000000911b .LASF5464
C:\Users\CYMR90~1\AppData\Local\Temp\ccioldvv.s:25119  .debug_str:00000000000101e5 .LASF5465
C:\Users\CYMR90~1\AppData\Local\Temp\ccioldvv.s:32090  .debug_str:000000000002be70 .LASF5466
C:\Users\CYMR90~1\AppData\Local\Temp\ccioldvv.s:22637  .debug_str:000000000000616c .LASF5467
C:\Users\CYMR90~1\AppData\Local\Temp\ccioldvv.s:24945  .debug_str:000000000000f6b2 .LASF5468
C:\Users\CYMR90~1\AppData\Local\Temp\ccioldvv.s:30734  .debug_str:0000000000026956 .LASF5469
C:\Users\CYMR90~1\AppData\Local\Temp\ccioldvv.s:29626  .debug_str:000000000002226c .LASF5470
C:\Users\CYMR90~1\AppData\Local\Temp\ccioldvv.s:32390  .debug_str:000000000002d234 .LASF5471
C:\Users\CYMR90~1\AppData\Local\Temp\ccioldvv.s:29252  .debug_str:0000000000020b3a .LASF5472
C:\Users\CYMR90~1\AppData\Local\Temp\ccioldvv.s:24697  .debug_str:000000000000e7d3 .LASF5473
C:\Users\CYMR90~1\AppData\Local\Temp\ccioldvv.s:22053  .debug_str:0000000000003cc9 .LASF5474
C:\Users\CYMR90~1\AppData\Local\Temp\ccioldvv.s:27704  .debug_str:000000000001aa2c .LASF5475
C:\Users\CYMR90~1\AppData\Local\Temp\ccioldvv.s:28620  .debug_str:000000000001e53d .LASF5476
C:\Users\CYMR90~1\AppData\Local\Temp\ccioldvv.s:26185  .debug_str:000000000001464c .LASF5477
C:\Users\CYMR90~1\AppData\Local\Temp\ccioldvv.s:22809  .debug_str:0000000000006bd3 .LASF5478
C:\Users\CYMR90~1\AppData\Local\Temp\ccioldvv.s:25591  .debug_str:0000000000011ffe .LASF5479
C:\Users\CYMR90~1\AppData\Local\Temp\ccioldvv.s:27564  .debug_str:000000000001a024 .LASF5480
C:\Users\CYMR90~1\AppData\Local\Temp\ccioldvv.s:23603  .debug_str:000000000000a02d .LASF5481
C:\Users\CYMR90~1\AppData\Local\Temp\ccioldvv.s:28536  .debug_str:000000000001e06b .LASF5482
C:\Users\CYMR90~1\AppData\Local\Temp\ccioldvv.s:27462  .debug_str:00000000000199d3 .LASF5483
C:\Users\CYMR90~1\AppData\Local\Temp\ccioldvv.s:27774  .debug_str:000000000001ae7a .LASF5484
C:\Users\CYMR90~1\AppData\Local\Temp\ccioldvv.s:31244  .debug_str:0000000000028a8d .LASF5485
C:\Users\CYMR90~1\AppData\Local\Temp\ccioldvv.s:24581  .debug_str:000000000000e0c3 .LASF5486
C:\Users\CYMR90~1\AppData\Local\Temp\ccioldvv.s:25467  .debug_str:000000000001172a .LASF5487
C:\Users\CYMR90~1\AppData\Local\Temp\ccioldvv.s:21991  .debug_str:00000000000038fc .LASF5488
C:\Users\CYMR90~1\AppData\Local\Temp\ccioldvv.s:24545  .debug_str:000000000000de59 .LASF5489
C:\Users\CYMR90~1\AppData\Local\Temp\ccioldvv.s:25469  .debug_str:0000000000011742 .LASF5490
C:\Users\CYMR90~1\AppData\Local\Temp\ccioldvv.s:22945  .debug_str:0000000000007529 .LASF5491
C:\Users\CYMR90~1\AppData\Local\Temp\ccioldvv.s:21271  .debug_str:0000000000000c22 .LASF5492
C:\Users\CYMR90~1\AppData\Local\Temp\ccioldvv.s:30494  .debug_str:0000000000025a94 .LASF5493
C:\Users\CYMR90~1\AppData\Local\Temp\ccioldvv.s:27428  .debug_str:0000000000019701 .LASF5494
C:\Users\CYMR90~1\AppData\Local\Temp\ccioldvv.s:21435  .debug_str:00000000000015b0 .LASF5495
C:\Users\CYMR90~1\AppData\Local\Temp\ccioldvv.s:25281  .debug_str:0000000000010bbb .LASF5496
C:\Users\CYMR90~1\AppData\Local\Temp\ccioldvv.s:25657  .debug_str:000000000001249e .LASF5497
C:\Users\CYMR90~1\AppData\Local\Temp\ccioldvv.s:23761  .debug_str:000000000000aadf .LASF5498
C:\Users\CYMR90~1\AppData\Local\Temp\ccioldvv.s:31998  .debug_str:000000000002b855 .LASF5499
C:\Users\CYMR90~1\AppData\Local\Temp\ccioldvv.s:23845  .debug_str:000000000000b0f8 .LASF5500
C:\Users\CYMR90~1\AppData\Local\Temp\ccioldvv.s:27514  .debug_str:0000000000019d28 .LASF5501
C:\Users\CYMR90~1\AppData\Local\Temp\ccioldvv.s:31750  .debug_str:000000000002a918 .LASF5502
C:\Users\CYMR90~1\AppData\Local\Temp\ccioldvv.s:22725  .debug_str:0000000000006680 .LASF5503
C:\Users\CYMR90~1\AppData\Local\Temp\ccioldvv.s:31790  .debug_str:000000000002ab5b .LASF5504
C:\Users\CYMR90~1\AppData\Local\Temp\ccioldvv.s:23531  .debug_str:0000000000009bb1 .LASF5505
C:\Users\CYMR90~1\AppData\Local\Temp\ccioldvv.s:28390  .debug_str:000000000001d6ac .LASF5506
C:\Users\CYMR90~1\AppData\Local\Temp\ccioldvv.s:31046  .debug_str:0000000000027cae .LASF5507
C:\Users\CYMR90~1\AppData\Local\Temp\ccioldvv.s:30122  .debug_str:000000000002401b .LASF5508
C:\Users\CYMR90~1\AppData\Local\Temp\ccioldvv.s:26233  .debug_str:0000000000014958 .LASF5509
C:\Users\CYMR90~1\AppData\Local\Temp\ccioldvv.s:27974  .debug_str:000000000001baf8 .LASF5510
C:\Users\CYMR90~1\AppData\Local\Temp\ccioldvv.s:28190  .debug_str:000000000001c83d .LASF5511
C:\Users\CYMR90~1\AppData\Local\Temp\ccioldvv.s:30684  .debug_str:000000000002663e .LASF5512
C:\Users\CYMR90~1\AppData\Local\Temp\ccioldvv.s:21529  .debug_str:0000000000001c09 .LASF5513
C:\Users\CYMR90~1\AppData\Local\Temp\ccioldvv.s:27840  .debug_str:000000000001b309 .LASF5514
C:\Users\CYMR90~1\AppData\Local\Temp\ccioldvv.s:30934  .debug_str:00000000000275f5 .LASF5515
C:\Users\CYMR90~1\AppData\Local\Temp\ccioldvv.s:23261  .debug_str:0000000000008a93 .LASF5516
C:\Users\CYMR90~1\AppData\Local\Temp\ccioldvv.s:29598  .debug_str:00000000000220b2 .LASF5517
C:\Users\CYMR90~1\AppData\Local\Temp\ccioldvv.s:27532  .debug_str:0000000000019e4b .LASF5518
C:\Users\CYMR90~1\AppData\Local\Temp\ccioldvv.s:23349  .debug_str:000000000000902c .LASF5519
C:\Users\CYMR90~1\AppData\Local\Temp\ccioldvv.s:28328  .debug_str:000000000001d2f7 .LASF5520
C:\Users\CYMR90~1\AppData\Local\Temp\ccioldvv.s:25801  .debug_str:0000000000012e00 .LASF5521
C:\Users\CYMR90~1\AppData\Local\Temp\ccioldvv.s:23823  .debug_str:000000000000aebe .LASF5522
C:\Users\CYMR90~1\AppData\Local\Temp\ccioldvv.s:28258  .debug_str:000000000001cd5b .LASF5523
C:\Users\CYMR90~1\AppData\Local\Temp\ccioldvv.s:23185  .debug_str:00000000000085c2 .LASF5524
C:\Users\CYMR90~1\AppData\Local\Temp\ccioldvv.s:22295  .debug_str:0000000000004d2a .LASF5525
C:\Users\CYMR90~1\AppData\Local\Temp\ccioldvv.s:21079  .debug_str:000000000000006a .LASF5526
C:\Users\CYMR90~1\AppData\Local\Temp\ccioldvv.s:30560  .debug_str:0000000000025e99 .LASF5527
C:\Users\CYMR90~1\AppData\Local\Temp\ccioldvv.s:27558  .debug_str:0000000000019fb5 .LASF5528
C:\Users\CYMR90~1\AppData\Local\Temp\ccioldvv.s:27566  .debug_str:000000000001a044 .LASF5529
C:\Users\CYMR90~1\AppData\Local\Temp\ccioldvv.s:25917  .debug_str:0000000000013617 .LASF5530
C:\Users\CYMR90~1\AppData\Local\Temp\ccioldvv.s:26285  .debug_str:0000000000014c6f .LASF5531
C:\Users\CYMR90~1\AppData\Local\Temp\ccioldvv.s:30514  .debug_str:0000000000025bdf .LASF5532
C:\Users\CYMR90~1\AppData\Local\Temp\ccioldvv.s:29294  .debug_str:0000000000020df8 .LASF5533
C:\Users\CYMR90~1\AppData\Local\Temp\ccioldvv.s:30930  .debug_str:00000000000275a5 .LASF5534
C:\Users\CYMR90~1\AppData\Local\Temp\ccioldvv.s:22189  .debug_str:00000000000045bf .LASF5535
C:\Users\CYMR90~1\AppData\Local\Temp\ccioldvv.s:32330  .debug_str:000000000002ceb8 .LASF5536
C:\Users\CYMR90~1\AppData\Local\Temp\ccioldvv.s:28602  .debug_str:000000000001e41e .LASF5537
C:\Users\CYMR90~1\AppData\Local\Temp\ccioldvv.s:25617  .debug_str:0000000000012204 .LASF5538
C:\Users\CYMR90~1\AppData\Local\Temp\ccioldvv.s:25605  .debug_str:000000000001211c .LASF5539
C:\Users\CYMR90~1\AppData\Local\Temp\ccioldvv.s:25799  .debug_str:0000000000012dc7 .LASF5540
C:\Users\CYMR90~1\AppData\Local\Temp\ccioldvv.s:29828  .debug_str:0000000000022eb8 .LASF5541
C:\Users\CYMR90~1\AppData\Local\Temp\ccioldvv.s:25195  .debug_str:0000000000010672 .LASF5542
C:\Users\CYMR90~1\AppData\Local\Temp\ccioldvv.s:23615  .debug_str:000000000000a10b .LASF5543
C:\Users\CYMR90~1\AppData\Local\Temp\ccioldvv.s:24049  .debug_str:000000000000be5a .LASF5544
C:\Users\CYMR90~1\AppData\Local\Temp\ccioldvv.s:23665  .debug_str:000000000000a466 .LASF5545
C:\Users\CYMR90~1\AppData\Local\Temp\ccioldvv.s:22349  .debug_str:0000000000005049 .LASF5546
C:\Users\CYMR90~1\AppData\Local\Temp\ccioldvv.s:31744  .debug_str:000000000002a8b7 .LASF5547
C:\Users\CYMR90~1\AppData\Local\Temp\ccioldvv.s:30016  .debug_str:00000000000239ec .LASF5548
C:\Users\CYMR90~1\AppData\Local\Temp\ccioldvv.s:21447  .debug_str:000000000000165d .LASF5549
C:\Users\CYMR90~1\AppData\Local\Temp\ccioldvv.s:31126  .debug_str:0000000000028249 .LASF5550
C:\Users\CYMR90~1\AppData\Local\Temp\ccioldvv.s:27846  .debug_str:000000000001b34e .LASF5551
C:\Users\CYMR90~1\AppData\Local\Temp\ccioldvv.s:28574  .debug_str:000000000001e27d .LASF5552
C:\Users\CYMR90~1\AppData\Local\Temp\ccioldvv.s:29430  .debug_str:0000000000021689 .LASF5553
C:\Users\CYMR90~1\AppData\Local\Temp\ccioldvv.s:21505  .debug_str:0000000000001a77 .LASF5554
C:\Users\CYMR90~1\AppData\Local\Temp\ccioldvv.s:30314  .debug_str:0000000000024d58 .LASF5555
                           .group:0000000000000000 wm4.0.10abbef32179bc1260444192115bdf5e
                           .group:0000000000000000 wm4.stddef.h.39.144cf5ddcd53cbfdac30259dc1a6c87f
                           .group:0000000000000000 wm4._newlib_version.h.4.bfdf54b0af045d4a71376ae00f63a22c
                           .group:0000000000000000 wm4.newlib.h.18.08a2ecba46890ca2aa56bbe21686e6c3
                           .group:0000000000000000 wm4.ieeefp.h.202.4f2759f5758fd82153cfbf98692f2ced
                           .group:0000000000000000 wm4.features.h.22.fad1cec3bc7ff06488171438dbdcfd02
                           .group:0000000000000000 wm4.config.h.83.13bbc8852bfac55b724c9822481355b5
                           .group:0000000000000000 wm4._ansi.h.31.de524f58584151836e90d8620a16f8e8
                           .group:0000000000000000 wm4.stdio.h.31.7c0e28c411445f3f9c5b11accf882760
                           .group:0000000000000000 wm4._default_types.h.6.959254cf5f09734ea7516c89e8bb21bd
                           .group:0000000000000000 wm4.stddef.h.155.ba788add86a0e365f264484f110c3c29
                           .group:0000000000000000 wm4.cdefs.h.49.39045112216f6a021dbdffe3bf5accce
                           .group:0000000000000000 wm4.stdarg.h.34.3a23a216c0c293b3d2ea2e89281481e6
                           .group:0000000000000000 wm4._types.h.20.dd0d04dca3800a0d2a6129b87f3adbb2
                           .group:0000000000000000 wm4.stddef.h.155.3588ebfdd1e8c7ede80509bb9c3b8009
                           .group:0000000000000000 wm4._types.h.127.34941de1b2539d59d5cac00e0dd27a45
                           .group:0000000000000000 wm4.reent.h.17.e292bf8b0bec6c96e131a54347145a30
                           .group:0000000000000000 wm4.lock.h.2.c0958401bd0ce484d507ee19aacab817
                           .group:0000000000000000 wm4.reent.h.77.dcd6129ff07fe81bd5636db29abe53b2
                           .group:0000000000000000 wm4.types.h.40.8b6acba56cefbb11746718204edc8f5e
                           .group:0000000000000000 wm4._stdint.h.10.c24fa3af3bc1706662bb5593a907e841
                           .group:0000000000000000 wm4._endian.h.18.1bf9649e8e5bbc91042012680270b9ed
                           .group:0000000000000000 wm4.endian.h.9.49f3a4695c1b61e8a0808de3c4a106cb
                           .group:0000000000000000 wm4._timeval.h.32.bec3221fa7a9bb0bdde696c9c57e47d2
                           .group:0000000000000000 wm4.timespec.h.41.d855182eb0e690443ab8651bcedca6e1
                           .group:0000000000000000 wm4.select.h.19.40cd3f2bfc456b193b790c2754690ebf
                           .group:0000000000000000 wm4.types.h.51.5571ec98f267d17d3c670b7a3ba33afa
                           .group:0000000000000000 wm4.sched.h.22.c60982713a5c428609783c78f9c78d95
                           .group:0000000000000000 wm4._pthreadtypes.h.36.fcee9961c35163dde6267ef772ad1972
                           .group:0000000000000000 wm4.stdio.h.2.4aa87247282eca6c8f36f9de33d8df1a
                           .group:0000000000000000 wm4.stdio.h.81.932d0c162786b883f622b8d05c120c78
                           .group:0000000000000000 wm4.gd32vw55x.h.47.379378190858578060a317909b2c8d8a
                           .group:0000000000000000 wm4._intsup.h.10.48bafbb683905c4daa4565a85aeeb264
                           .group:0000000000000000 wm4.stdint.h.23.d53047a68f4a85177f80b422d52785ed
                           .group:0000000000000000 wm4.nmsis_version.h.19.ffa173da8efb17b1050904994d6f500e
                           .group:0000000000000000 wm4.riscv_bits.h.19.ee94eb3d39937793d4cd0a62363e5d00
                           .group:0000000000000000 wm4.riscv_encoding.h.35.f5d37fad7abbab8278b4bb6f1e32fa65
                           .group:0000000000000000 wm4.nmsis_gcc.h.61.5d70d7598ffc79c3c991d847a574cf23
                           .group:0000000000000000 wm4.core_feature_base.h.20.e99d3e75c26a8f3341d35bf20d0e1d20
                           .group:0000000000000000 wm4.core_feature_fpu.h.19.695f2200274659b530cb97cda749ff4f
                           .group:0000000000000000 wm4.core_feature_dsp.h.19.e8f8d7aa42f197807aefedb6584486cd
                           .group:0000000000000000 wm4.core_compatiable.h.19.5b8282d61b1f6889a82895616b730084
                           .group:0000000000000000 wm4.core_feature_eclic.h.19.e0c091d0cbda79e8b3b031b979ebd5a1
                           .group:0000000000000000 wm4.core_feature_timer.h.19.21a5151282de34c37dfa6d84e262aa54
                           .group:0000000000000000 wm4.system_gd32vw55x.h.32.f1fcb1212d387c35ac955b0e96ada468
                           .group:0000000000000000 wm4.gd32vw55x.h.231.3529c650aff38c9372f7e03177fd2c8a
                           .group:0000000000000000 wm4.gd32vw55x_adc.h.42.ae73acec1704ef509ccecb41a875b50e
                           .group:0000000000000000 wm4.gd32vw55x_cau.h.36.c98428fe1eae7edb4721da5c8078c974
                           .group:0000000000000000 wm4.gd32vw55x_crc.h.37.c58f296814c2300a4b067c08bd88d54e
                           .group:0000000000000000 wm4.gd32vw55x_dbg.h.36.311650c8545549d482ceca8befc5a232
                           .group:0000000000000000 wm4.gd32vw55x_dma.h.36.f4adc751172b2a7b1533dda72e948737
                           .group:0000000000000000 wm4.gd32vw55x_eclic.h.36.0411499f2b2493c67246e32ccae096c1
                           .group:0000000000000000 wm4.gd32vw55x_efuse.h.36.091404cecbab70359dfd93faec5fdb62
                           .group:0000000000000000 wm4.gd32vw55x_exti.h.36.de7508334dd12f1a6a673521a1a835f5
                           .group:0000000000000000 wm4.gd32vw55x_fmc.h.36.a4b0b94c47ffe23a2fa09260c5ed4850
                           .group:0000000000000000 wm4.gd32vw55x_fwdgt.h.36.4846b6900fd24b5bfce4986c9a8ce677
                           .group:0000000000000000 wm4.gd32vw55x_gpio.h.36.adfee1371bb58d3d9043c47bdb25a90f
                           .group:0000000000000000 wm4.gd32vw55x_hau.h.36.f3cbcbd7b67c9e5bdc7a1100b1bf3458
                           .group:0000000000000000 wm4.gd32vw55x_i2c.h.36.3848990933925e084eb427083790c53f
                           .group:0000000000000000 wm4.gd32vw55x_pkcau.h.36.bb2235f4cf4967063a51bfa9aca5ef27
                           .group:0000000000000000 wm4.gd32vw55x_qspi.h.36.2d2c181cfe19b935a9641008fc786613
                           .group:0000000000000000 wm4.gd32vw55x_rcu.h.36.780a8a45c00d563711cceb445027ef47
                           .group:0000000000000000 wm4.gd32vw55x_rtc.h.36.3172855e8715659e080e0eab46fdf175
                           .group:0000000000000000 wm4.gd32vw55x_spi.h.36.9fa1be2b09fb73e4b5886e97f0e96d58
                           .group:0000000000000000 wm4.gd32vw55x_syscfg.h.36.010551f05591f5e34051d2e15df0352b
                           .group:0000000000000000 wm4.gd32vw55x_timer.h.38.2cbee78ea60d47145be361b2d2c55070
                           .group:0000000000000000 wm4.gd32vw55x_trng.h.36.c9e7807af1b1ab68d3bbb54f4ed5cd73
                           .group:0000000000000000 wm4.gd32vw55x_usart.h.36.f5c497cca17945a34f154b0e17017d02
                           .group:0000000000000000 wm4.gd32vw55x_wwdgt.h.36.f7a443b7302efc0e5c335888582ee197
                           .group:0000000000000000 wm4.gd32vw55x_pmu.h.41.40fc8670203e5a97b95f50a9b1d8ec32

UNDEFINED SYMBOLS
rcu_periph_reset_enable
rcu_periph_reset_disable
