   1              		.file	"gd32vw55x_spi.c"
   2              		.option nopic
   3              		.attribute arch, "rv32i2p0_m2p0_a2p0_c2p0"
   4              		.attribute unaligned_access, 0
   5              		.attribute stack_align, 16
   6              		.text
   7              	.Ltext0:
   8              		.cfi_sections	.debug_frame
   9              		.section	.text.spi_deinit,"ax",@progbits
  10              		.align	1
  11              		.globl	spi_deinit
  13              	spi_deinit:
  14              	.LFB347:
  15              		.file 1 "../Firmware/GD32VW55x_standard_peripheral/Source/gd32vw55x_spi.c"
   1:../Firmware/GD32VW55x_standard_peripheral/Source/gd32vw55x_spi.c **** /*!
   2:../Firmware/GD32VW55x_standard_peripheral/Source/gd32vw55x_spi.c ****     \file    gd32vw55x_spi.c
   3:../Firmware/GD32VW55x_standard_peripheral/Source/gd32vw55x_spi.c ****     \brief   SPI driver
   4:../Firmware/GD32VW55x_standard_peripheral/Source/gd32vw55x_spi.c **** 
   5:../Firmware/GD32VW55x_standard_peripheral/Source/gd32vw55x_spi.c ****     \version 2025-01-16, V1.4.0, firmware for GD32VW55x
   6:../Firmware/GD32VW55x_standard_peripheral/Source/gd32vw55x_spi.c **** */
   7:../Firmware/GD32VW55x_standard_peripheral/Source/gd32vw55x_spi.c **** 
   8:../Firmware/GD32VW55x_standard_peripheral/Source/gd32vw55x_spi.c **** /*
   9:../Firmware/GD32VW55x_standard_peripheral/Source/gd32vw55x_spi.c ****     Copyright (c) 2025, GigaDevice Semiconductor Inc.
  10:../Firmware/GD32VW55x_standard_peripheral/Source/gd32vw55x_spi.c **** 
  11:../Firmware/GD32VW55x_standard_peripheral/Source/gd32vw55x_spi.c ****     Redistribution and use in source and binary forms, with or without modification,
  12:../Firmware/GD32VW55x_standard_peripheral/Source/gd32vw55x_spi.c **** are permitted provided that the following conditions are met:
  13:../Firmware/GD32VW55x_standard_peripheral/Source/gd32vw55x_spi.c **** 
  14:../Firmware/GD32VW55x_standard_peripheral/Source/gd32vw55x_spi.c ****     1. Redistributions of source code must retain the above copyright notice, this
  15:../Firmware/GD32VW55x_standard_peripheral/Source/gd32vw55x_spi.c ****        list of conditions and the following disclaimer.
  16:../Firmware/GD32VW55x_standard_peripheral/Source/gd32vw55x_spi.c ****     2. Redistributions in binary form must reproduce the above copyright notice,
  17:../Firmware/GD32VW55x_standard_peripheral/Source/gd32vw55x_spi.c ****        this list of conditions and the following disclaimer in the documentation
  18:../Firmware/GD32VW55x_standard_peripheral/Source/gd32vw55x_spi.c ****        and/or other materials provided with the distribution.
  19:../Firmware/GD32VW55x_standard_peripheral/Source/gd32vw55x_spi.c ****     3. Neither the name of the copyright holder nor the names of its contributors
  20:../Firmware/GD32VW55x_standard_peripheral/Source/gd32vw55x_spi.c ****        may be used to endorse or promote products derived from this software without
  21:../Firmware/GD32VW55x_standard_peripheral/Source/gd32vw55x_spi.c ****        specific prior written permission.
  22:../Firmware/GD32VW55x_standard_peripheral/Source/gd32vw55x_spi.c **** 
  23:../Firmware/GD32VW55x_standard_peripheral/Source/gd32vw55x_spi.c ****     THIS SOFTWARE IS PROVIDED BY THE COPYRIGHT HOLDERS AND CONTRIBUTORS "AS IS"
  24:../Firmware/GD32VW55x_standard_peripheral/Source/gd32vw55x_spi.c **** AND ANY EXPRESS OR IMPLIED WARRANTIES, INCLUDING, BUT NOT LIMITED TO, THE IMPLIED
  25:../Firmware/GD32VW55x_standard_peripheral/Source/gd32vw55x_spi.c **** WARRANTIES OF MERCHANTABILITY AND FITNESS FOR A PARTICULAR PURPOSE ARE DISCLAIMED.
  26:../Firmware/GD32VW55x_standard_peripheral/Source/gd32vw55x_spi.c **** IN NO EVENT SHALL THE COPYRIGHT HOLDER OR CONTRIBUTORS BE LIABLE FOR ANY DIRECT,
  27:../Firmware/GD32VW55x_standard_peripheral/Source/gd32vw55x_spi.c **** INDIRECT, INCIDENTAL, SPECIAL, EXEMPLARY, OR CONSEQUENTIAL DAMAGES (INCLUDING, BUT
  28:../Firmware/GD32VW55x_standard_peripheral/Source/gd32vw55x_spi.c **** NOT LIMITED TO, PROCUREMENT OF SUBSTITUTE GOODS OR SERVICES; LOSS OF USE, DATA, OR
  29:../Firmware/GD32VW55x_standard_peripheral/Source/gd32vw55x_spi.c **** PROFITS; OR BUSINESS INTERRUPTION) HOWEVER CAUSED AND ON ANY THEORY OF LIABILITY,
  30:../Firmware/GD32VW55x_standard_peripheral/Source/gd32vw55x_spi.c **** WHETHER IN CONTRACT, STRICT LIABILITY, OR TORT (INCLUDING NEGLIGENCE OR OTHERWISE)
  31:../Firmware/GD32VW55x_standard_peripheral/Source/gd32vw55x_spi.c **** ARISING IN ANY WAY OUT OF THE USE OF THIS SOFTWARE, EVEN IF ADVISED OF THE POSSIBILITY
  32:../Firmware/GD32VW55x_standard_peripheral/Source/gd32vw55x_spi.c **** OF SUCH DAMAGE.
  33:../Firmware/GD32VW55x_standard_peripheral/Source/gd32vw55x_spi.c **** */
  34:../Firmware/GD32VW55x_standard_peripheral/Source/gd32vw55x_spi.c **** 
  35:../Firmware/GD32VW55x_standard_peripheral/Source/gd32vw55x_spi.c **** #include "gd32vw55x_spi.h"
  36:../Firmware/GD32VW55x_standard_peripheral/Source/gd32vw55x_spi.c **** 
  37:../Firmware/GD32VW55x_standard_peripheral/Source/gd32vw55x_spi.c **** /* SPI parameter initialization mask */
  38:../Firmware/GD32VW55x_standard_peripheral/Source/gd32vw55x_spi.c **** #define SPI_INIT_MASK                ((uint32_t)0x00003040U)
  39:../Firmware/GD32VW55x_standard_peripheral/Source/gd32vw55x_spi.c **** 
  40:../Firmware/GD32VW55x_standard_peripheral/Source/gd32vw55x_spi.c **** /*!
  41:../Firmware/GD32VW55x_standard_peripheral/Source/gd32vw55x_spi.c ****     \brief      reset SPI
  42:../Firmware/GD32VW55x_standard_peripheral/Source/gd32vw55x_spi.c ****     \param[in]  none
  43:../Firmware/GD32VW55x_standard_peripheral/Source/gd32vw55x_spi.c ****     \param[out] none
  44:../Firmware/GD32VW55x_standard_peripheral/Source/gd32vw55x_spi.c ****     \retval     none
  45:../Firmware/GD32VW55x_standard_peripheral/Source/gd32vw55x_spi.c **** */
  46:../Firmware/GD32VW55x_standard_peripheral/Source/gd32vw55x_spi.c **** void spi_deinit(void)
  47:../Firmware/GD32VW55x_standard_peripheral/Source/gd32vw55x_spi.c **** {
  16              		.loc 1 47 1
  17              		.cfi_startproc
  18 0000 4111     		addi	sp,sp,-16
  19              		.cfi_def_cfa_offset 16
  20 0002 06C6     		sw	ra,12(sp)
  21 0004 22C4     		sw	s0,8(sp)
  22              		.cfi_offset 1, -4
  23              		.cfi_offset 8, -8
  24 0006 0008     		addi	s0,sp,16
  25              		.cfi_def_cfa 8, 0
  48:../Firmware/GD32VW55x_standard_peripheral/Source/gd32vw55x_spi.c ****     /* reset SPI0 */
  49:../Firmware/GD32VW55x_standard_peripheral/Source/gd32vw55x_spi.c ****     rcu_periph_reset_enable(RCU_SPIRST);
  26              		.loc 1 49 5
  27 0008 8567     		li	a5,4096
  28 000a 1385C790 		addi	a0,a5,-1780
  29 000e 97000000 		call	rcu_periph_reset_enable
  29      E7800000 
  50:../Firmware/GD32VW55x_standard_peripheral/Source/gd32vw55x_spi.c ****     rcu_periph_reset_disable(RCU_SPIRST);
  30              		.loc 1 50 5
  31 0016 8567     		li	a5,4096
  32 0018 1385C790 		addi	a0,a5,-1780
  33 001c 97000000 		call	rcu_periph_reset_disable
  33      E7800000 
  51:../Firmware/GD32VW55x_standard_peripheral/Source/gd32vw55x_spi.c **** }
  34              		.loc 1 51 1
  35 0024 0100     		nop
  36 0026 B240     		lw	ra,12(sp)
  37              		.cfi_restore 1
  38 0028 2244     		lw	s0,8(sp)
  39              		.cfi_restore 8
  40              		.cfi_def_cfa 2, 16
  41 002a 4101     		addi	sp,sp,16
  42              		.cfi_def_cfa_offset 0
  43 002c 8280     		jr	ra
  44              		.cfi_endproc
  45              	.LFE347:
  47              		.section	.text.spi_struct_para_init,"ax",@progbits
  48              		.align	1
  49              		.globl	spi_struct_para_init
  51              	spi_struct_para_init:
  52              	.LFB348:
  52:../Firmware/GD32VW55x_standard_peripheral/Source/gd32vw55x_spi.c **** 
  53:../Firmware/GD32VW55x_standard_peripheral/Source/gd32vw55x_spi.c **** /*!
  54:../Firmware/GD32VW55x_standard_peripheral/Source/gd32vw55x_spi.c ****     \brief      initialize the parameters of SPI structure with default values
  55:../Firmware/GD32VW55x_standard_peripheral/Source/gd32vw55x_spi.c ****     \param[in]  none
  56:../Firmware/GD32VW55x_standard_peripheral/Source/gd32vw55x_spi.c ****     \param[out] spi_parameter_struct: the initialized structure spi_parameter_struct pointer
  57:../Firmware/GD32VW55x_standard_peripheral/Source/gd32vw55x_spi.c ****     \retval     none
  58:../Firmware/GD32VW55x_standard_peripheral/Source/gd32vw55x_spi.c **** */
  59:../Firmware/GD32VW55x_standard_peripheral/Source/gd32vw55x_spi.c **** void spi_struct_para_init(spi_parameter_struct *spi_struct)
  60:../Firmware/GD32VW55x_standard_peripheral/Source/gd32vw55x_spi.c **** {
  53              		.loc 1 60 1
  54              		.cfi_startproc
  55 0000 0111     		addi	sp,sp,-32
  56              		.cfi_def_cfa_offset 32
  57 0002 22CE     		sw	s0,28(sp)
  58              		.cfi_offset 8, -4
  59 0004 0010     		addi	s0,sp,32
  60              		.cfi_def_cfa 8, 0
  61 0006 2326A4FE 		sw	a0,-20(s0)
  61:../Firmware/GD32VW55x_standard_peripheral/Source/gd32vw55x_spi.c ****     /* configure the structure with default value */
  62:../Firmware/GD32VW55x_standard_peripheral/Source/gd32vw55x_spi.c ****     spi_struct->device_mode          = SPI_SLAVE;
  62              		.loc 1 62 38
  63 000a 8327C4FE 		lw	a5,-20(s0)
  64 000e 23A00700 		sw	zero,0(a5)
  63:../Firmware/GD32VW55x_standard_peripheral/Source/gd32vw55x_spi.c ****     spi_struct->trans_mode           = SPI_TRANSMODE_FULLDUPLEX;
  65              		.loc 1 63 38
  66 0012 8327C4FE 		lw	a5,-20(s0)
  67 0016 23A20700 		sw	zero,4(a5)
  64:../Firmware/GD32VW55x_standard_peripheral/Source/gd32vw55x_spi.c ****     spi_struct->frame_size           = SPI_FRAMESIZE_8BIT;
  68              		.loc 1 64 38
  69 001a 8327C4FE 		lw	a5,-20(s0)
  70 001e 23A40700 		sw	zero,8(a5)
  65:../Firmware/GD32VW55x_standard_peripheral/Source/gd32vw55x_spi.c ****     spi_struct->nss                  = SPI_NSS_HARD;
  71              		.loc 1 65 38
  72 0022 8327C4FE 		lw	a5,-20(s0)
  73 0026 23A60700 		sw	zero,12(a5)
  66:../Firmware/GD32VW55x_standard_peripheral/Source/gd32vw55x_spi.c ****     spi_struct->clock_polarity_phase = SPI_CK_PL_LOW_PH_1EDGE;
  74              		.loc 1 66 38
  75 002a 8327C4FE 		lw	a5,-20(s0)
  76 002e 23AA0700 		sw	zero,20(a5)
  67:../Firmware/GD32VW55x_standard_peripheral/Source/gd32vw55x_spi.c ****     spi_struct->prescale             = SPI_PSC_2;
  77              		.loc 1 67 38
  78 0032 8327C4FE 		lw	a5,-20(s0)
  79 0036 23AC0700 		sw	zero,24(a5)
  68:../Firmware/GD32VW55x_standard_peripheral/Source/gd32vw55x_spi.c ****     spi_struct->endian               = SPI_ENDIAN_MSB;
  80              		.loc 1 68 38
  81 003a 8327C4FE 		lw	a5,-20(s0)
  82 003e 23A80700 		sw	zero,16(a5)
  69:../Firmware/GD32VW55x_standard_peripheral/Source/gd32vw55x_spi.c **** }
  83              		.loc 1 69 1
  84 0042 0100     		nop
  85 0044 7244     		lw	s0,28(sp)
  86              		.cfi_restore 8
  87              		.cfi_def_cfa 2, 32
  88 0046 0561     		addi	sp,sp,32
  89              		.cfi_def_cfa_offset 0
  90 0048 8280     		jr	ra
  91              		.cfi_endproc
  92              	.LFE348:
  94              		.section	.text.spi_init,"ax",@progbits
  95              		.align	1
  96              		.globl	spi_init
  98              	spi_init:
  99              	.LFB349:
  70:../Firmware/GD32VW55x_standard_peripheral/Source/gd32vw55x_spi.c **** 
  71:../Firmware/GD32VW55x_standard_peripheral/Source/gd32vw55x_spi.c **** /*!
  72:../Firmware/GD32VW55x_standard_peripheral/Source/gd32vw55x_spi.c ****     \brief      initialize SPI parameter
  73:../Firmware/GD32VW55x_standard_peripheral/Source/gd32vw55x_spi.c ****     \param[in]  spi_struct: SPI parameter initialization stucture members of the structure
  74:../Firmware/GD32VW55x_standard_peripheral/Source/gd32vw55x_spi.c ****                             and the member values are shown as below:
  75:../Firmware/GD32VW55x_standard_peripheral/Source/gd32vw55x_spi.c ****                   device_mode: SPI_MASTER, SPI_SLAVE
  76:../Firmware/GD32VW55x_standard_peripheral/Source/gd32vw55x_spi.c ****                   trans_mode: SPI_TRANSMODE_FULLDUPLEX, SPI_TRANSMODE_RECEIVEONLY,
  77:../Firmware/GD32VW55x_standard_peripheral/Source/gd32vw55x_spi.c ****                               SPI_TRANSMODE_BDRECEIVE, SPI_TRANSMODE_BDTRANSMIT
  78:../Firmware/GD32VW55x_standard_peripheral/Source/gd32vw55x_spi.c ****                   frame_size: SPI_FRAMESIZE_16BIT, SPI_FRAMESIZE_8BIT
  79:../Firmware/GD32VW55x_standard_peripheral/Source/gd32vw55x_spi.c ****                   nss: SPI_NSS_SOFT, SPI_NSS_HARD
  80:../Firmware/GD32VW55x_standard_peripheral/Source/gd32vw55x_spi.c ****                   endian: SPI_ENDIAN_MSB, SPI_ENDIAN_LSB
  81:../Firmware/GD32VW55x_standard_peripheral/Source/gd32vw55x_spi.c ****                   clock_polarity_phase: SPI_CK_PL_LOW_PH_1EDGE, SPI_CK_PL_HIGH_PH_1EDGE
  82:../Firmware/GD32VW55x_standard_peripheral/Source/gd32vw55x_spi.c ****                                         SPI_CK_PL_LOW_PH_2EDGE, SPI_CK_PL_HIGH_PH_2EDGE
  83:../Firmware/GD32VW55x_standard_peripheral/Source/gd32vw55x_spi.c ****                   prescale: SPI_PSC_n (n=2,4,8,16,32,64,128,256)
  84:../Firmware/GD32VW55x_standard_peripheral/Source/gd32vw55x_spi.c ****     \param[out] none
  85:../Firmware/GD32VW55x_standard_peripheral/Source/gd32vw55x_spi.c ****     \retval     none
  86:../Firmware/GD32VW55x_standard_peripheral/Source/gd32vw55x_spi.c **** */
  87:../Firmware/GD32VW55x_standard_peripheral/Source/gd32vw55x_spi.c **** void spi_init(spi_parameter_struct* spi_struct)
  88:../Firmware/GD32VW55x_standard_peripheral/Source/gd32vw55x_spi.c **** {
 100              		.loc 1 88 1
 101              		.cfi_startproc
 102 0000 7971     		addi	sp,sp,-48
 103              		.cfi_def_cfa_offset 48
 104 0002 22D6     		sw	s0,44(sp)
 105              		.cfi_offset 8, -4
 106 0004 0018     		addi	s0,sp,48
 107              		.cfi_def_cfa 8, 0
 108 0006 232EA4FC 		sw	a0,-36(s0)
  89:../Firmware/GD32VW55x_standard_peripheral/Source/gd32vw55x_spi.c ****     uint32_t reg = 0U;
 109              		.loc 1 89 14
 110 000a 232604FE 		sw	zero,-20(s0)
  90:../Firmware/GD32VW55x_standard_peripheral/Source/gd32vw55x_spi.c ****     reg = SPI_CTL0;
 111              		.loc 1 90 11
 112 000e B7370140 		li	a5,1073819648
 113              		.loc 1 90 9
 114 0012 9C43     		lw	a5,0(a5)
 115 0014 2326F4FE 		sw	a5,-20(s0)
  91:../Firmware/GD32VW55x_standard_peripheral/Source/gd32vw55x_spi.c ****     reg &= SPI_INIT_MASK;
 116              		.loc 1 91 9
 117 0018 0327C4FE 		lw	a4,-20(s0)
 118 001c 8D67     		li	a5,12288
 119 001e 93870704 		addi	a5,a5,64
 120 0022 F98F     		and	a5,a4,a5
 121 0024 2326F4FE 		sw	a5,-20(s0)
  92:../Firmware/GD32VW55x_standard_peripheral/Source/gd32vw55x_spi.c **** 
  93:../Firmware/GD32VW55x_standard_peripheral/Source/gd32vw55x_spi.c ****     /* select SPI as master or slave */
  94:../Firmware/GD32VW55x_standard_peripheral/Source/gd32vw55x_spi.c ****     reg |= spi_struct->device_mode;
 122              		.loc 1 94 22
 123 0028 8327C4FD 		lw	a5,-36(s0)
 124 002c 9C43     		lw	a5,0(a5)
 125              		.loc 1 94 9
 126 002e 0327C4FE 		lw	a4,-20(s0)
 127 0032 D98F     		or	a5,a4,a5
 128 0034 2326F4FE 		sw	a5,-20(s0)
  95:../Firmware/GD32VW55x_standard_peripheral/Source/gd32vw55x_spi.c ****     /* select SPI transfer mode */
  96:../Firmware/GD32VW55x_standard_peripheral/Source/gd32vw55x_spi.c ****     reg |= spi_struct->trans_mode;
 129              		.loc 1 96 22
 130 0038 8327C4FD 		lw	a5,-36(s0)
 131 003c DC43     		lw	a5,4(a5)
 132              		.loc 1 96 9
 133 003e 0327C4FE 		lw	a4,-20(s0)
 134 0042 D98F     		or	a5,a4,a5
 135 0044 2326F4FE 		sw	a5,-20(s0)
  97:../Firmware/GD32VW55x_standard_peripheral/Source/gd32vw55x_spi.c ****     /* select SPI frame size */
  98:../Firmware/GD32VW55x_standard_peripheral/Source/gd32vw55x_spi.c ****     reg |= spi_struct->frame_size;
 136              		.loc 1 98 22
 137 0048 8327C4FD 		lw	a5,-36(s0)
 138 004c 9C47     		lw	a5,8(a5)
 139              		.loc 1 98 9
 140 004e 0327C4FE 		lw	a4,-20(s0)
 141 0052 D98F     		or	a5,a4,a5
 142 0054 2326F4FE 		sw	a5,-20(s0)
  99:../Firmware/GD32VW55x_standard_peripheral/Source/gd32vw55x_spi.c ****     /* select SPI NSS use hardware or software */
 100:../Firmware/GD32VW55x_standard_peripheral/Source/gd32vw55x_spi.c ****     reg |= spi_struct->nss;
 143              		.loc 1 100 22
 144 0058 8327C4FD 		lw	a5,-36(s0)
 145 005c DC47     		lw	a5,12(a5)
 146              		.loc 1 100 9
 147 005e 0327C4FE 		lw	a4,-20(s0)
 148 0062 D98F     		or	a5,a4,a5
 149 0064 2326F4FE 		sw	a5,-20(s0)
 101:../Firmware/GD32VW55x_standard_peripheral/Source/gd32vw55x_spi.c ****     /* select SPI LSB or MSB */
 102:../Firmware/GD32VW55x_standard_peripheral/Source/gd32vw55x_spi.c ****     reg |= spi_struct->endian;
 150              		.loc 1 102 22
 151 0068 8327C4FD 		lw	a5,-36(s0)
 152 006c 9C4B     		lw	a5,16(a5)
 153              		.loc 1 102 9
 154 006e 0327C4FE 		lw	a4,-20(s0)
 155 0072 D98F     		or	a5,a4,a5
 156 0074 2326F4FE 		sw	a5,-20(s0)
 103:../Firmware/GD32VW55x_standard_peripheral/Source/gd32vw55x_spi.c ****     /* select SPI polarity and phase */
 104:../Firmware/GD32VW55x_standard_peripheral/Source/gd32vw55x_spi.c ****     reg |= spi_struct->clock_polarity_phase;
 157              		.loc 1 104 22
 158 0078 8327C4FD 		lw	a5,-36(s0)
 159 007c DC4B     		lw	a5,20(a5)
 160              		.loc 1 104 9
 161 007e 0327C4FE 		lw	a4,-20(s0)
 162 0082 D98F     		or	a5,a4,a5
 163 0084 2326F4FE 		sw	a5,-20(s0)
 105:../Firmware/GD32VW55x_standard_peripheral/Source/gd32vw55x_spi.c ****     /* select SPI prescale to adjust transmit speed */
 106:../Firmware/GD32VW55x_standard_peripheral/Source/gd32vw55x_spi.c ****     reg |= spi_struct->prescale;
 164              		.loc 1 106 22
 165 0088 8327C4FD 		lw	a5,-36(s0)
 166 008c 9C4F     		lw	a5,24(a5)
 167              		.loc 1 106 9
 168 008e 0327C4FE 		lw	a4,-20(s0)
 169 0092 D98F     		or	a5,a4,a5
 170 0094 2326F4FE 		sw	a5,-20(s0)
 107:../Firmware/GD32VW55x_standard_peripheral/Source/gd32vw55x_spi.c **** 
 108:../Firmware/GD32VW55x_standard_peripheral/Source/gd32vw55x_spi.c ****     /* write to SPI_CTL0 register */
 109:../Firmware/GD32VW55x_standard_peripheral/Source/gd32vw55x_spi.c ****     SPI_CTL0 = (uint32_t)reg;
 171              		.loc 1 109 5
 172 0098 B7370140 		li	a5,1073819648
 173              		.loc 1 109 14
 174 009c 0327C4FE 		lw	a4,-20(s0)
 175 00a0 98C3     		sw	a4,0(a5)
 110:../Firmware/GD32VW55x_standard_peripheral/Source/gd32vw55x_spi.c **** }
 176              		.loc 1 110 1
 177 00a2 0100     		nop
 178 00a4 3254     		lw	s0,44(sp)
 179              		.cfi_restore 8
 180              		.cfi_def_cfa 2, 48
 181 00a6 4561     		addi	sp,sp,48
 182              		.cfi_def_cfa_offset 0
 183 00a8 8280     		jr	ra
 184              		.cfi_endproc
 185              	.LFE349:
 187              		.section	.text.spi_enable,"ax",@progbits
 188              		.align	1
 189              		.globl	spi_enable
 191              	spi_enable:
 192              	.LFB350:
 111:../Firmware/GD32VW55x_standard_peripheral/Source/gd32vw55x_spi.c **** 
 112:../Firmware/GD32VW55x_standard_peripheral/Source/gd32vw55x_spi.c **** /*!
 113:../Firmware/GD32VW55x_standard_peripheral/Source/gd32vw55x_spi.c ****     \brief      enable SPI
 114:../Firmware/GD32VW55x_standard_peripheral/Source/gd32vw55x_spi.c ****     \param[in]  none
 115:../Firmware/GD32VW55x_standard_peripheral/Source/gd32vw55x_spi.c ****     \param[out] none
 116:../Firmware/GD32VW55x_standard_peripheral/Source/gd32vw55x_spi.c ****     \retval     none
 117:../Firmware/GD32VW55x_standard_peripheral/Source/gd32vw55x_spi.c **** */
 118:../Firmware/GD32VW55x_standard_peripheral/Source/gd32vw55x_spi.c **** void spi_enable(void)
 119:../Firmware/GD32VW55x_standard_peripheral/Source/gd32vw55x_spi.c **** {
 193              		.loc 1 119 1
 194              		.cfi_startproc
 195 0000 4111     		addi	sp,sp,-16
 196              		.cfi_def_cfa_offset 16
 197 0002 22C6     		sw	s0,12(sp)
 198              		.cfi_offset 8, -4
 199 0004 0008     		addi	s0,sp,16
 200              		.cfi_def_cfa 8, 0
 120:../Firmware/GD32VW55x_standard_peripheral/Source/gd32vw55x_spi.c ****     SPI_CTL0 |= (uint32_t)SPI_CTL0_SPIEN;
 201              		.loc 1 120 14
 202 0006 B7370140 		li	a5,1073819648
 203 000a 9843     		lw	a4,0(a5)
 204 000c B7370140 		li	a5,1073819648
 205 0010 13670704 		ori	a4,a4,64
 206 0014 98C3     		sw	a4,0(a5)
 121:../Firmware/GD32VW55x_standard_peripheral/Source/gd32vw55x_spi.c **** }
 207              		.loc 1 121 1
 208 0016 0100     		nop
 209 0018 3244     		lw	s0,12(sp)
 210              		.cfi_restore 8
 211              		.cfi_def_cfa 2, 16
 212 001a 4101     		addi	sp,sp,16
 213              		.cfi_def_cfa_offset 0
 214 001c 8280     		jr	ra
 215              		.cfi_endproc
 216              	.LFE350:
 218              		.section	.text.spi_disable,"ax",@progbits
 219              		.align	1
 220              		.globl	spi_disable
 222              	spi_disable:
 223              	.LFB351:
 122:../Firmware/GD32VW55x_standard_peripheral/Source/gd32vw55x_spi.c **** 
 123:../Firmware/GD32VW55x_standard_peripheral/Source/gd32vw55x_spi.c **** /*!
 124:../Firmware/GD32VW55x_standard_peripheral/Source/gd32vw55x_spi.c ****     \brief      disable SPI
 125:../Firmware/GD32VW55x_standard_peripheral/Source/gd32vw55x_spi.c ****     \param[in]  none
 126:../Firmware/GD32VW55x_standard_peripheral/Source/gd32vw55x_spi.c ****     \param[out] none
 127:../Firmware/GD32VW55x_standard_peripheral/Source/gd32vw55x_spi.c ****     \retval     none
 128:../Firmware/GD32VW55x_standard_peripheral/Source/gd32vw55x_spi.c **** */
 129:../Firmware/GD32VW55x_standard_peripheral/Source/gd32vw55x_spi.c **** void spi_disable(void)
 130:../Firmware/GD32VW55x_standard_peripheral/Source/gd32vw55x_spi.c **** {
 224              		.loc 1 130 1
 225              		.cfi_startproc
 226 0000 4111     		addi	sp,sp,-16
 227              		.cfi_def_cfa_offset 16
 228 0002 22C6     		sw	s0,12(sp)
 229              		.cfi_offset 8, -4
 230 0004 0008     		addi	s0,sp,16
 231              		.cfi_def_cfa 8, 0
 131:../Firmware/GD32VW55x_standard_peripheral/Source/gd32vw55x_spi.c ****     SPI_CTL0 &= (uint32_t)(~SPI_CTL0_SPIEN);
 232              		.loc 1 131 14
 233 0006 B7370140 		li	a5,1073819648
 234 000a 9843     		lw	a4,0(a5)
 235 000c B7370140 		li	a5,1073819648
 236 0010 1377F7FB 		andi	a4,a4,-65
 237 0014 98C3     		sw	a4,0(a5)
 132:../Firmware/GD32VW55x_standard_peripheral/Source/gd32vw55x_spi.c **** }
 238              		.loc 1 132 1
 239 0016 0100     		nop
 240 0018 3244     		lw	s0,12(sp)
 241              		.cfi_restore 8
 242              		.cfi_def_cfa 2, 16
 243 001a 4101     		addi	sp,sp,16
 244              		.cfi_def_cfa_offset 0
 245 001c 8280     		jr	ra
 246              		.cfi_endproc
 247              	.LFE351:
 249              		.section	.text.spi_nss_output_enable,"ax",@progbits
 250              		.align	1
 251              		.globl	spi_nss_output_enable
 253              	spi_nss_output_enable:
 254              	.LFB352:
 133:../Firmware/GD32VW55x_standard_peripheral/Source/gd32vw55x_spi.c **** 
 134:../Firmware/GD32VW55x_standard_peripheral/Source/gd32vw55x_spi.c **** /*!
 135:../Firmware/GD32VW55x_standard_peripheral/Source/gd32vw55x_spi.c ****     \brief      enable SPI NSS output
 136:../Firmware/GD32VW55x_standard_peripheral/Source/gd32vw55x_spi.c ****     \param[in]  none
 137:../Firmware/GD32VW55x_standard_peripheral/Source/gd32vw55x_spi.c ****     \param[out] none
 138:../Firmware/GD32VW55x_standard_peripheral/Source/gd32vw55x_spi.c ****     \retval     none
 139:../Firmware/GD32VW55x_standard_peripheral/Source/gd32vw55x_spi.c **** */
 140:../Firmware/GD32VW55x_standard_peripheral/Source/gd32vw55x_spi.c **** void spi_nss_output_enable(void)
 141:../Firmware/GD32VW55x_standard_peripheral/Source/gd32vw55x_spi.c **** {
 255              		.loc 1 141 1
 256              		.cfi_startproc
 257 0000 4111     		addi	sp,sp,-16
 258              		.cfi_def_cfa_offset 16
 259 0002 22C6     		sw	s0,12(sp)
 260              		.cfi_offset 8, -4
 261 0004 0008     		addi	s0,sp,16
 262              		.cfi_def_cfa 8, 0
 142:../Firmware/GD32VW55x_standard_peripheral/Source/gd32vw55x_spi.c ****     SPI_CTL1 |= (uint32_t)SPI_CTL1_NSSDRV;
 263              		.loc 1 142 14
 264 0006 B7370140 		li	a5,1073819648
 265 000a 9107     		addi	a5,a5,4
 266 000c 9843     		lw	a4,0(a5)
 267 000e B7370140 		li	a5,1073819648
 268 0012 9107     		addi	a5,a5,4
 269 0014 13674700 		ori	a4,a4,4
 270 0018 98C3     		sw	a4,0(a5)
 143:../Firmware/GD32VW55x_standard_peripheral/Source/gd32vw55x_spi.c **** }
 271              		.loc 1 143 1
 272 001a 0100     		nop
 273 001c 3244     		lw	s0,12(sp)
 274              		.cfi_restore 8
 275              		.cfi_def_cfa 2, 16
 276 001e 4101     		addi	sp,sp,16
 277              		.cfi_def_cfa_offset 0
 278 0020 8280     		jr	ra
 279              		.cfi_endproc
 280              	.LFE352:
 282              		.section	.text.spi_nss_output_disable,"ax",@progbits
 283              		.align	1
 284              		.globl	spi_nss_output_disable
 286              	spi_nss_output_disable:
 287              	.LFB353:
 144:../Firmware/GD32VW55x_standard_peripheral/Source/gd32vw55x_spi.c **** 
 145:../Firmware/GD32VW55x_standard_peripheral/Source/gd32vw55x_spi.c **** /*!
 146:../Firmware/GD32VW55x_standard_peripheral/Source/gd32vw55x_spi.c ****     \brief      disable SPI NSS output
 147:../Firmware/GD32VW55x_standard_peripheral/Source/gd32vw55x_spi.c ****     \param[in]  none
 148:../Firmware/GD32VW55x_standard_peripheral/Source/gd32vw55x_spi.c ****     \param[out] none
 149:../Firmware/GD32VW55x_standard_peripheral/Source/gd32vw55x_spi.c ****     \retval     none
 150:../Firmware/GD32VW55x_standard_peripheral/Source/gd32vw55x_spi.c **** */
 151:../Firmware/GD32VW55x_standard_peripheral/Source/gd32vw55x_spi.c **** void spi_nss_output_disable(void)
 152:../Firmware/GD32VW55x_standard_peripheral/Source/gd32vw55x_spi.c **** {
 288              		.loc 1 152 1
 289              		.cfi_startproc
 290 0000 4111     		addi	sp,sp,-16
 291              		.cfi_def_cfa_offset 16
 292 0002 22C6     		sw	s0,12(sp)
 293              		.cfi_offset 8, -4
 294 0004 0008     		addi	s0,sp,16
 295              		.cfi_def_cfa 8, 0
 153:../Firmware/GD32VW55x_standard_peripheral/Source/gd32vw55x_spi.c ****     SPI_CTL1 &= (uint32_t)(~SPI_CTL1_NSSDRV);
 296              		.loc 1 153 14
 297 0006 B7370140 		li	a5,1073819648
 298 000a 9107     		addi	a5,a5,4
 299 000c 9843     		lw	a4,0(a5)
 300 000e B7370140 		li	a5,1073819648
 301 0012 9107     		addi	a5,a5,4
 302 0014 6D9B     		andi	a4,a4,-5
 303 0016 98C3     		sw	a4,0(a5)
 154:../Firmware/GD32VW55x_standard_peripheral/Source/gd32vw55x_spi.c **** }
 304              		.loc 1 154 1
 305 0018 0100     		nop
 306 001a 3244     		lw	s0,12(sp)
 307              		.cfi_restore 8
 308              		.cfi_def_cfa 2, 16
 309 001c 4101     		addi	sp,sp,16
 310              		.cfi_def_cfa_offset 0
 311 001e 8280     		jr	ra
 312              		.cfi_endproc
 313              	.LFE353:
 315              		.section	.text.spi_nss_internal_high,"ax",@progbits
 316              		.align	1
 317              		.globl	spi_nss_internal_high
 319              	spi_nss_internal_high:
 320              	.LFB354:
 155:../Firmware/GD32VW55x_standard_peripheral/Source/gd32vw55x_spi.c **** 
 156:../Firmware/GD32VW55x_standard_peripheral/Source/gd32vw55x_spi.c **** /*!
 157:../Firmware/GD32VW55x_standard_peripheral/Source/gd32vw55x_spi.c ****     \brief      SPI NSS pin high level in software mode
 158:../Firmware/GD32VW55x_standard_peripheral/Source/gd32vw55x_spi.c ****     \param[in]  none
 159:../Firmware/GD32VW55x_standard_peripheral/Source/gd32vw55x_spi.c ****     \param[out] none
 160:../Firmware/GD32VW55x_standard_peripheral/Source/gd32vw55x_spi.c ****     \retval     none
 161:../Firmware/GD32VW55x_standard_peripheral/Source/gd32vw55x_spi.c **** */
 162:../Firmware/GD32VW55x_standard_peripheral/Source/gd32vw55x_spi.c **** void spi_nss_internal_high(void)
 163:../Firmware/GD32VW55x_standard_peripheral/Source/gd32vw55x_spi.c **** {
 321              		.loc 1 163 1
 322              		.cfi_startproc
 323 0000 4111     		addi	sp,sp,-16
 324              		.cfi_def_cfa_offset 16
 325 0002 22C6     		sw	s0,12(sp)
 326              		.cfi_offset 8, -4
 327 0004 0008     		addi	s0,sp,16
 328              		.cfi_def_cfa 8, 0
 164:../Firmware/GD32VW55x_standard_peripheral/Source/gd32vw55x_spi.c ****     SPI_CTL0 |= (uint32_t)SPI_CTL0_SWNSS;
 329              		.loc 1 164 14
 330 0006 B7370140 		li	a5,1073819648
 331 000a 9843     		lw	a4,0(a5)
 332 000c B7370140 		li	a5,1073819648
 333 0010 13670710 		ori	a4,a4,256
 334 0014 98C3     		sw	a4,0(a5)
 165:../Firmware/GD32VW55x_standard_peripheral/Source/gd32vw55x_spi.c **** }
 335              		.loc 1 165 1
 336 0016 0100     		nop
 337 0018 3244     		lw	s0,12(sp)
 338              		.cfi_restore 8
 339              		.cfi_def_cfa 2, 16
 340 001a 4101     		addi	sp,sp,16
 341              		.cfi_def_cfa_offset 0
 342 001c 8280     		jr	ra
 343              		.cfi_endproc
 344              	.LFE354:
 346              		.section	.text.spi_nss_internal_low,"ax",@progbits
 347              		.align	1
 348              		.globl	spi_nss_internal_low
 350              	spi_nss_internal_low:
 351              	.LFB355:
 166:../Firmware/GD32VW55x_standard_peripheral/Source/gd32vw55x_spi.c **** 
 167:../Firmware/GD32VW55x_standard_peripheral/Source/gd32vw55x_spi.c **** /*!
 168:../Firmware/GD32VW55x_standard_peripheral/Source/gd32vw55x_spi.c ****     \brief      SPI NSS pin low level in software mode
 169:../Firmware/GD32VW55x_standard_peripheral/Source/gd32vw55x_spi.c ****     \param[in]  none
 170:../Firmware/GD32VW55x_standard_peripheral/Source/gd32vw55x_spi.c ****     \param[out] none
 171:../Firmware/GD32VW55x_standard_peripheral/Source/gd32vw55x_spi.c ****     \retval     none
 172:../Firmware/GD32VW55x_standard_peripheral/Source/gd32vw55x_spi.c **** */
 173:../Firmware/GD32VW55x_standard_peripheral/Source/gd32vw55x_spi.c **** void spi_nss_internal_low(void)
 174:../Firmware/GD32VW55x_standard_peripheral/Source/gd32vw55x_spi.c **** {
 352              		.loc 1 174 1
 353              		.cfi_startproc
 354 0000 4111     		addi	sp,sp,-16
 355              		.cfi_def_cfa_offset 16
 356 0002 22C6     		sw	s0,12(sp)
 357              		.cfi_offset 8, -4
 358 0004 0008     		addi	s0,sp,16
 359              		.cfi_def_cfa 8, 0
 175:../Firmware/GD32VW55x_standard_peripheral/Source/gd32vw55x_spi.c ****     SPI_CTL0 &= (uint32_t)(~SPI_CTL0_SWNSS);
 360              		.loc 1 175 14
 361 0006 B7370140 		li	a5,1073819648
 362 000a 9843     		lw	a4,0(a5)
 363 000c B7370140 		li	a5,1073819648
 364 0010 1377F7EF 		andi	a4,a4,-257
 365 0014 98C3     		sw	a4,0(a5)
 176:../Firmware/GD32VW55x_standard_peripheral/Source/gd32vw55x_spi.c **** }
 366              		.loc 1 176 1
 367 0016 0100     		nop
 368 0018 3244     		lw	s0,12(sp)
 369              		.cfi_restore 8
 370              		.cfi_def_cfa 2, 16
 371 001a 4101     		addi	sp,sp,16
 372              		.cfi_def_cfa_offset 0
 373 001c 8280     		jr	ra
 374              		.cfi_endproc
 375              	.LFE355:
 377              		.section	.text.spi_dma_enable,"ax",@progbits
 378              		.align	1
 379              		.globl	spi_dma_enable
 381              	spi_dma_enable:
 382              	.LFB356:
 177:../Firmware/GD32VW55x_standard_peripheral/Source/gd32vw55x_spi.c **** 
 178:../Firmware/GD32VW55x_standard_peripheral/Source/gd32vw55x_spi.c **** /*!
 179:../Firmware/GD32VW55x_standard_peripheral/Source/gd32vw55x_spi.c ****     \brief      enable SPI DMA send or receive
 180:../Firmware/GD32VW55x_standard_peripheral/Source/gd32vw55x_spi.c ****     \param[in]  spi_dma: SPI DMA mode
 181:../Firmware/GD32VW55x_standard_peripheral/Source/gd32vw55x_spi.c ****                 only one parameter can be selected which is shown as below:
 182:../Firmware/GD32VW55x_standard_peripheral/Source/gd32vw55x_spi.c ****       \arg        SPI_DMA_TRANSMIT: SPI transmit data use DMA
 183:../Firmware/GD32VW55x_standard_peripheral/Source/gd32vw55x_spi.c ****       \arg        SPI_DMA_RECEIVE: SPI receive data use DMA
 184:../Firmware/GD32VW55x_standard_peripheral/Source/gd32vw55x_spi.c ****     \param[out] none
 185:../Firmware/GD32VW55x_standard_peripheral/Source/gd32vw55x_spi.c ****     \retval     none
 186:../Firmware/GD32VW55x_standard_peripheral/Source/gd32vw55x_spi.c **** */
 187:../Firmware/GD32VW55x_standard_peripheral/Source/gd32vw55x_spi.c **** void spi_dma_enable(uint8_t spi_dma)
 188:../Firmware/GD32VW55x_standard_peripheral/Source/gd32vw55x_spi.c **** {
 383              		.loc 1 188 1
 384              		.cfi_startproc
 385 0000 0111     		addi	sp,sp,-32
 386              		.cfi_def_cfa_offset 32
 387 0002 22CE     		sw	s0,28(sp)
 388              		.cfi_offset 8, -4
 389 0004 0010     		addi	s0,sp,32
 390              		.cfi_def_cfa 8, 0
 391 0006 AA87     		mv	a5,a0
 392 0008 A307F4FE 		sb	a5,-17(s0)
 189:../Firmware/GD32VW55x_standard_peripheral/Source/gd32vw55x_spi.c ****     if(SPI_DMA_TRANSMIT == spi_dma){
 393              		.loc 1 189 7
 394 000c 8347F4FE 		lbu	a5,-17(s0)
 395 0010 81EF     		bne	a5,zero,.L11
 190:../Firmware/GD32VW55x_standard_peripheral/Source/gd32vw55x_spi.c ****         SPI_CTL1 |= (uint32_t)SPI_CTL1_DMATEN;
 396              		.loc 1 190 18
 397 0012 B7370140 		li	a5,1073819648
 398 0016 9107     		addi	a5,a5,4
 399 0018 9843     		lw	a4,0(a5)
 400 001a B7370140 		li	a5,1073819648
 401 001e 9107     		addi	a5,a5,4
 402 0020 13672700 		ori	a4,a4,2
 403 0024 98C3     		sw	a4,0(a5)
 191:../Firmware/GD32VW55x_standard_peripheral/Source/gd32vw55x_spi.c ****     }else{
 192:../Firmware/GD32VW55x_standard_peripheral/Source/gd32vw55x_spi.c ****         SPI_CTL1 |= (uint32_t)SPI_CTL1_DMAREN;
 193:../Firmware/GD32VW55x_standard_peripheral/Source/gd32vw55x_spi.c ****     }
 194:../Firmware/GD32VW55x_standard_peripheral/Source/gd32vw55x_spi.c **** }
 404              		.loc 1 194 1
 405 0026 19A8     		j	.L13
 406              	.L11:
 192:../Firmware/GD32VW55x_standard_peripheral/Source/gd32vw55x_spi.c ****     }
 407              		.loc 1 192 18
 408 0028 B7370140 		li	a5,1073819648
 409 002c 9107     		addi	a5,a5,4
 410 002e 9843     		lw	a4,0(a5)
 411 0030 B7370140 		li	a5,1073819648
 412 0034 9107     		addi	a5,a5,4
 413 0036 13671700 		ori	a4,a4,1
 414 003a 98C3     		sw	a4,0(a5)
 415              	.L13:
 416              		.loc 1 194 1
 417 003c 0100     		nop
 418 003e 7244     		lw	s0,28(sp)
 419              		.cfi_restore 8
 420              		.cfi_def_cfa 2, 32
 421 0040 0561     		addi	sp,sp,32
 422              		.cfi_def_cfa_offset 0
 423 0042 8280     		jr	ra
 424              		.cfi_endproc
 425              	.LFE356:
 427              		.section	.text.spi_dma_disable,"ax",@progbits
 428              		.align	1
 429              		.globl	spi_dma_disable
 431              	spi_dma_disable:
 432              	.LFB357:
 195:../Firmware/GD32VW55x_standard_peripheral/Source/gd32vw55x_spi.c **** 
 196:../Firmware/GD32VW55x_standard_peripheral/Source/gd32vw55x_spi.c **** /*!
 197:../Firmware/GD32VW55x_standard_peripheral/Source/gd32vw55x_spi.c ****     \brief      disable SPI DMA send or receive
 198:../Firmware/GD32VW55x_standard_peripheral/Source/gd32vw55x_spi.c ****     \param[in]  spi_dma: SPI DMA mode
 199:../Firmware/GD32VW55x_standard_peripheral/Source/gd32vw55x_spi.c ****                 only one parameter can be selected which is shown as below:
 200:../Firmware/GD32VW55x_standard_peripheral/Source/gd32vw55x_spi.c ****       \arg        SPI_DMA_TRANSMIT: SPI transmit data use DMA
 201:../Firmware/GD32VW55x_standard_peripheral/Source/gd32vw55x_spi.c ****       \arg        SPI_DMA_RECEIVE: SPI receive data use DMA
 202:../Firmware/GD32VW55x_standard_peripheral/Source/gd32vw55x_spi.c ****     \param[out] none
 203:../Firmware/GD32VW55x_standard_peripheral/Source/gd32vw55x_spi.c ****     \retval     none
 204:../Firmware/GD32VW55x_standard_peripheral/Source/gd32vw55x_spi.c **** */
 205:../Firmware/GD32VW55x_standard_peripheral/Source/gd32vw55x_spi.c **** void spi_dma_disable(uint8_t spi_dma)
 206:../Firmware/GD32VW55x_standard_peripheral/Source/gd32vw55x_spi.c **** {
 433              		.loc 1 206 1
 434              		.cfi_startproc
 435 0000 0111     		addi	sp,sp,-32
 436              		.cfi_def_cfa_offset 32
 437 0002 22CE     		sw	s0,28(sp)
 438              		.cfi_offset 8, -4
 439 0004 0010     		addi	s0,sp,32
 440              		.cfi_def_cfa 8, 0
 441 0006 AA87     		mv	a5,a0
 442 0008 A307F4FE 		sb	a5,-17(s0)
 207:../Firmware/GD32VW55x_standard_peripheral/Source/gd32vw55x_spi.c ****     if(SPI_DMA_TRANSMIT == spi_dma){
 443              		.loc 1 207 7
 444 000c 8347F4FE 		lbu	a5,-17(s0)
 445 0010 99EB     		bne	a5,zero,.L15
 208:../Firmware/GD32VW55x_standard_peripheral/Source/gd32vw55x_spi.c ****         SPI_CTL1 &= (uint32_t)(~SPI_CTL1_DMATEN);
 446              		.loc 1 208 18
 447 0012 B7370140 		li	a5,1073819648
 448 0016 9107     		addi	a5,a5,4
 449 0018 9843     		lw	a4,0(a5)
 450 001a B7370140 		li	a5,1073819648
 451 001e 9107     		addi	a5,a5,4
 452 0020 759B     		andi	a4,a4,-3
 453 0022 98C3     		sw	a4,0(a5)
 209:../Firmware/GD32VW55x_standard_peripheral/Source/gd32vw55x_spi.c ****     }else{
 210:../Firmware/GD32VW55x_standard_peripheral/Source/gd32vw55x_spi.c ****         SPI_CTL1 &= (uint32_t)(~SPI_CTL1_DMAREN);
 211:../Firmware/GD32VW55x_standard_peripheral/Source/gd32vw55x_spi.c ****     }
 212:../Firmware/GD32VW55x_standard_peripheral/Source/gd32vw55x_spi.c **** }
 454              		.loc 1 212 1
 455 0024 11A8     		j	.L17
 456              	.L15:
 210:../Firmware/GD32VW55x_standard_peripheral/Source/gd32vw55x_spi.c ****     }
 457              		.loc 1 210 18
 458 0026 B7370140 		li	a5,1073819648
 459 002a 9107     		addi	a5,a5,4
 460 002c 9843     		lw	a4,0(a5)
 461 002e B7370140 		li	a5,1073819648
 462 0032 9107     		addi	a5,a5,4
 463 0034 799B     		andi	a4,a4,-2
 464 0036 98C3     		sw	a4,0(a5)
 465              	.L17:
 466              		.loc 1 212 1
 467 0038 0100     		nop
 468 003a 7244     		lw	s0,28(sp)
 469              		.cfi_restore 8
 470              		.cfi_def_cfa 2, 32
 471 003c 0561     		addi	sp,sp,32
 472              		.cfi_def_cfa_offset 0
 473 003e 8280     		jr	ra
 474              		.cfi_endproc
 475              	.LFE357:
 477              		.section	.text.spi_data_frame_format_config,"ax",@progbits
 478              		.align	1
 479              		.globl	spi_data_frame_format_config
 481              	spi_data_frame_format_config:
 482              	.LFB358:
 213:../Firmware/GD32VW55x_standard_peripheral/Source/gd32vw55x_spi.c **** 
 214:../Firmware/GD32VW55x_standard_peripheral/Source/gd32vw55x_spi.c **** /*!
 215:../Firmware/GD32VW55x_standard_peripheral/Source/gd32vw55x_spi.c ****     \brief      configure SPI data frame format
 216:../Firmware/GD32VW55x_standard_peripheral/Source/gd32vw55x_spi.c ****     \param[in]  frame_format: SPI frame format
 217:../Firmware/GD32VW55x_standard_peripheral/Source/gd32vw55x_spi.c ****                 only one parameter can be selected which is shown as below:
 218:../Firmware/GD32VW55x_standard_peripheral/Source/gd32vw55x_spi.c ****       \arg        SPI_FRAMESIZE_16BIT: SPI frame size is 16 bits
 219:../Firmware/GD32VW55x_standard_peripheral/Source/gd32vw55x_spi.c ****       \arg        SPI_FRAMESIZE_8BIT: SPI frame size is 8 bits
 220:../Firmware/GD32VW55x_standard_peripheral/Source/gd32vw55x_spi.c ****     \param[out] none
 221:../Firmware/GD32VW55x_standard_peripheral/Source/gd32vw55x_spi.c ****     \retval     none
 222:../Firmware/GD32VW55x_standard_peripheral/Source/gd32vw55x_spi.c **** */
 223:../Firmware/GD32VW55x_standard_peripheral/Source/gd32vw55x_spi.c **** void spi_data_frame_format_config(uint16_t frame_format)
 224:../Firmware/GD32VW55x_standard_peripheral/Source/gd32vw55x_spi.c **** {
 483              		.loc 1 224 1
 484              		.cfi_startproc
 485 0000 0111     		addi	sp,sp,-32
 486              		.cfi_def_cfa_offset 32
 487 0002 22CE     		sw	s0,28(sp)
 488              		.cfi_offset 8, -4
 489 0004 0010     		addi	s0,sp,32
 490              		.cfi_def_cfa 8, 0
 491 0006 AA87     		mv	a5,a0
 492 0008 2317F4FE 		sh	a5,-18(s0)
 225:../Firmware/GD32VW55x_standard_peripheral/Source/gd32vw55x_spi.c ****     /* clear SPI_CTL0_FF16 bit */
 226:../Firmware/GD32VW55x_standard_peripheral/Source/gd32vw55x_spi.c ****     SPI_CTL0 &= (uint32_t)(~SPI_CTL0_FF16);
 493              		.loc 1 226 14
 494 000c B7370140 		li	a5,1073819648
 495 0010 9443     		lw	a3,0(a5)
 496 0012 B7370140 		li	a5,1073819648
 497 0016 7D77     		li	a4,-4096
 498 0018 1307F77F 		addi	a4,a4,2047
 499 001c 758F     		and	a4,a3,a4
 500 001e 98C3     		sw	a4,0(a5)
 227:../Firmware/GD32VW55x_standard_peripheral/Source/gd32vw55x_spi.c ****     /* configure SPI_CTL0_FF16 bit */
 228:../Firmware/GD32VW55x_standard_peripheral/Source/gd32vw55x_spi.c ****     SPI_CTL0 |= (uint32_t)frame_format;
 501              		.loc 1 228 14
 502 0020 B7370140 		li	a5,1073819648
 503 0024 9443     		lw	a3,0(a5)
 504              		.loc 1 228 17
 505 0026 0357E4FE 		lhu	a4,-18(s0)
 506              		.loc 1 228 14
 507 002a B7370140 		li	a5,1073819648
 508 002e 558F     		or	a4,a3,a4
 509 0030 98C3     		sw	a4,0(a5)
 229:../Firmware/GD32VW55x_standard_peripheral/Source/gd32vw55x_spi.c **** }
 510              		.loc 1 229 1
 511 0032 0100     		nop
 512 0034 7244     		lw	s0,28(sp)
 513              		.cfi_restore 8
 514              		.cfi_def_cfa 2, 32
 515 0036 0561     		addi	sp,sp,32
 516              		.cfi_def_cfa_offset 0
 517 0038 8280     		jr	ra
 518              		.cfi_endproc
 519              	.LFE358:
 521              		.section	.text.spi_data_transmit,"ax",@progbits
 522              		.align	1
 523              		.globl	spi_data_transmit
 525              	spi_data_transmit:
 526              	.LFB359:
 230:../Firmware/GD32VW55x_standard_peripheral/Source/gd32vw55x_spi.c **** 
 231:../Firmware/GD32VW55x_standard_peripheral/Source/gd32vw55x_spi.c **** /*!
 232:../Firmware/GD32VW55x_standard_peripheral/Source/gd32vw55x_spi.c ****     \brief      SPI transmit data
 233:../Firmware/GD32VW55x_standard_peripheral/Source/gd32vw55x_spi.c ****     \param[in]  data: 16-bit data
 234:../Firmware/GD32VW55x_standard_peripheral/Source/gd32vw55x_spi.c ****     \param[out] none
 235:../Firmware/GD32VW55x_standard_peripheral/Source/gd32vw55x_spi.c ****     \retval     none
 236:../Firmware/GD32VW55x_standard_peripheral/Source/gd32vw55x_spi.c **** */
 237:../Firmware/GD32VW55x_standard_peripheral/Source/gd32vw55x_spi.c **** void spi_data_transmit(uint16_t data)
 238:../Firmware/GD32VW55x_standard_peripheral/Source/gd32vw55x_spi.c **** {
 527              		.loc 1 238 1
 528              		.cfi_startproc
 529 0000 0111     		addi	sp,sp,-32
 530              		.cfi_def_cfa_offset 32
 531 0002 22CE     		sw	s0,28(sp)
 532              		.cfi_offset 8, -4
 533 0004 0010     		addi	s0,sp,32
 534              		.cfi_def_cfa 8, 0
 535 0006 AA87     		mv	a5,a0
 536 0008 2317F4FE 		sh	a5,-18(s0)
 239:../Firmware/GD32VW55x_standard_peripheral/Source/gd32vw55x_spi.c ****     SPI_DATA = (uint32_t)data;
 537              		.loc 1 239 5
 538 000c B7370140 		li	a5,1073819648
 539 0010 B107     		addi	a5,a5,12
 540              		.loc 1 239 16
 541 0012 0357E4FE 		lhu	a4,-18(s0)
 542              		.loc 1 239 14
 543 0016 98C3     		sw	a4,0(a5)
 240:../Firmware/GD32VW55x_standard_peripheral/Source/gd32vw55x_spi.c **** }
 544              		.loc 1 240 1
 545 0018 0100     		nop
 546 001a 7244     		lw	s0,28(sp)
 547              		.cfi_restore 8
 548              		.cfi_def_cfa 2, 32
 549 001c 0561     		addi	sp,sp,32
 550              		.cfi_def_cfa_offset 0
 551 001e 8280     		jr	ra
 552              		.cfi_endproc
 553              	.LFE359:
 555              		.section	.text.spi_data_receive,"ax",@progbits
 556              		.align	1
 557              		.globl	spi_data_receive
 559              	spi_data_receive:
 560              	.LFB360:
 241:../Firmware/GD32VW55x_standard_peripheral/Source/gd32vw55x_spi.c **** 
 242:../Firmware/GD32VW55x_standard_peripheral/Source/gd32vw55x_spi.c **** /*!
 243:../Firmware/GD32VW55x_standard_peripheral/Source/gd32vw55x_spi.c ****     \brief      SPI receive data
 244:../Firmware/GD32VW55x_standard_peripheral/Source/gd32vw55x_spi.c ****     \param[in]  none
 245:../Firmware/GD32VW55x_standard_peripheral/Source/gd32vw55x_spi.c ****     \param[out] none
 246:../Firmware/GD32VW55x_standard_peripheral/Source/gd32vw55x_spi.c ****     \retval     16-bit data
 247:../Firmware/GD32VW55x_standard_peripheral/Source/gd32vw55x_spi.c **** */
 248:../Firmware/GD32VW55x_standard_peripheral/Source/gd32vw55x_spi.c **** uint16_t spi_data_receive(void)
 249:../Firmware/GD32VW55x_standard_peripheral/Source/gd32vw55x_spi.c **** {
 561              		.loc 1 249 1
 562              		.cfi_startproc
 563 0000 4111     		addi	sp,sp,-16
 564              		.cfi_def_cfa_offset 16
 565 0002 22C6     		sw	s0,12(sp)
 566              		.cfi_offset 8, -4
 567 0004 0008     		addi	s0,sp,16
 568              		.cfi_def_cfa 8, 0
 250:../Firmware/GD32VW55x_standard_peripheral/Source/gd32vw55x_spi.c ****     return ((uint16_t)SPI_DATA);
 569              		.loc 1 250 23
 570 0006 B7370140 		li	a5,1073819648
 571 000a B107     		addi	a5,a5,12
 572 000c 9C43     		lw	a5,0(a5)
 573              		.loc 1 250 13
 574 000e C207     		slli	a5,a5,16
 575 0010 C183     		srli	a5,a5,16
 251:../Firmware/GD32VW55x_standard_peripheral/Source/gd32vw55x_spi.c **** }
 576              		.loc 1 251 1
 577 0012 3E85     		mv	a0,a5
 578 0014 3244     		lw	s0,12(sp)
 579              		.cfi_restore 8
 580              		.cfi_def_cfa 2, 16
 581 0016 4101     		addi	sp,sp,16
 582              		.cfi_def_cfa_offset 0
 583 0018 8280     		jr	ra
 584              		.cfi_endproc
 585              	.LFE360:
 587              		.section	.text.spi_bidirectional_transfer_config,"ax",@progbits
 588              		.align	1
 589              		.globl	spi_bidirectional_transfer_config
 591              	spi_bidirectional_transfer_config:
 592              	.LFB361:
 252:../Firmware/GD32VW55x_standard_peripheral/Source/gd32vw55x_spi.c **** 
 253:../Firmware/GD32VW55x_standard_peripheral/Source/gd32vw55x_spi.c **** /*!
 254:../Firmware/GD32VW55x_standard_peripheral/Source/gd32vw55x_spi.c ****     \brief      configure SPI bidirectional transfer direction
 255:../Firmware/GD32VW55x_standard_peripheral/Source/gd32vw55x_spi.c ****     \param[in]  transfer_direction: SPI transfer direction
 256:../Firmware/GD32VW55x_standard_peripheral/Source/gd32vw55x_spi.c ****                 only one parameter can be selected which is shown as below:
 257:../Firmware/GD32VW55x_standard_peripheral/Source/gd32vw55x_spi.c ****       \arg        SPI_BIDIRECTIONAL_TRANSMIT: SPI work in transmit-only mode
 258:../Firmware/GD32VW55x_standard_peripheral/Source/gd32vw55x_spi.c ****       \arg        SPI_BIDIRECTIONAL_RECEIVE: SPI work in receive-only mode
 259:../Firmware/GD32VW55x_standard_peripheral/Source/gd32vw55x_spi.c ****     \param[out] none
 260:../Firmware/GD32VW55x_standard_peripheral/Source/gd32vw55x_spi.c ****     \retval     none
 261:../Firmware/GD32VW55x_standard_peripheral/Source/gd32vw55x_spi.c **** */
 262:../Firmware/GD32VW55x_standard_peripheral/Source/gd32vw55x_spi.c **** void spi_bidirectional_transfer_config(uint32_t transfer_direction)
 263:../Firmware/GD32VW55x_standard_peripheral/Source/gd32vw55x_spi.c **** {
 593              		.loc 1 263 1
 594              		.cfi_startproc
 595 0000 0111     		addi	sp,sp,-32
 596              		.cfi_def_cfa_offset 32
 597 0002 22CE     		sw	s0,28(sp)
 598              		.cfi_offset 8, -4
 599 0004 0010     		addi	s0,sp,32
 600              		.cfi_def_cfa 8, 0
 601 0006 2326A4FE 		sw	a0,-20(s0)
 264:../Firmware/GD32VW55x_standard_peripheral/Source/gd32vw55x_spi.c ****     if(SPI_BIDIRECTIONAL_TRANSMIT == transfer_direction){
 602              		.loc 1 264 7
 603 000a 0327C4FE 		lw	a4,-20(s0)
 604 000e 9167     		li	a5,16384
 605 0010 631BF700 		bne	a4,a5,.L23
 265:../Firmware/GD32VW55x_standard_peripheral/Source/gd32vw55x_spi.c ****         /* set the transmit only mode */
 266:../Firmware/GD32VW55x_standard_peripheral/Source/gd32vw55x_spi.c ****         SPI_CTL0 |= (uint32_t)SPI_BIDIRECTIONAL_TRANSMIT;
 606              		.loc 1 266 18
 607 0014 B7370140 		li	a5,1073819648
 608 0018 9443     		lw	a3,0(a5)
 609 001a B7370140 		li	a5,1073819648
 610 001e 1167     		li	a4,16384
 611 0020 558F     		or	a4,a3,a4
 612 0022 98C3     		sw	a4,0(a5)
 267:../Firmware/GD32VW55x_standard_peripheral/Source/gd32vw55x_spi.c ****     }else{
 268:../Firmware/GD32VW55x_standard_peripheral/Source/gd32vw55x_spi.c ****         /* set the receive only mode */
 269:../Firmware/GD32VW55x_standard_peripheral/Source/gd32vw55x_spi.c ****         SPI_CTL0 &= SPI_BIDIRECTIONAL_RECEIVE;
 270:../Firmware/GD32VW55x_standard_peripheral/Source/gd32vw55x_spi.c ****     }
 271:../Firmware/GD32VW55x_standard_peripheral/Source/gd32vw55x_spi.c **** }
 613              		.loc 1 271 1
 614 0024 11A8     		j	.L25
 615              	.L23:
 269:../Firmware/GD32VW55x_standard_peripheral/Source/gd32vw55x_spi.c ****     }
 616              		.loc 1 269 18
 617 0026 B7370140 		li	a5,1073819648
 618 002a 9443     		lw	a3,0(a5)
 619 002c B7370140 		li	a5,1073819648
 620 0030 7177     		li	a4,-16384
 621 0032 7D17     		addi	a4,a4,-1
 622 0034 758F     		and	a4,a3,a4
 623 0036 98C3     		sw	a4,0(a5)
 624              	.L25:
 625              		.loc 1 271 1
 626 0038 0100     		nop
 627 003a 7244     		lw	s0,28(sp)
 628              		.cfi_restore 8
 629              		.cfi_def_cfa 2, 32
 630 003c 0561     		addi	sp,sp,32
 631              		.cfi_def_cfa_offset 0
 632 003e 8280     		jr	ra
 633              		.cfi_endproc
 634              	.LFE361:
 636              		.section	.text.spi_format_error_clear,"ax",@progbits
 637              		.align	1
 638              		.globl	spi_format_error_clear
 640              	spi_format_error_clear:
 641              	.LFB362:
 272:../Firmware/GD32VW55x_standard_peripheral/Source/gd32vw55x_spi.c **** 
 273:../Firmware/GD32VW55x_standard_peripheral/Source/gd32vw55x_spi.c **** /*!
 274:../Firmware/GD32VW55x_standard_peripheral/Source/gd32vw55x_spi.c ****     \brief      clear TI mode format error flag status
 275:../Firmware/GD32VW55x_standard_peripheral/Source/gd32vw55x_spi.c ****     \param[in]  none
 276:../Firmware/GD32VW55x_standard_peripheral/Source/gd32vw55x_spi.c ****     \param[out] none
 277:../Firmware/GD32VW55x_standard_peripheral/Source/gd32vw55x_spi.c ****     \retval     none
 278:../Firmware/GD32VW55x_standard_peripheral/Source/gd32vw55x_spi.c **** */
 279:../Firmware/GD32VW55x_standard_peripheral/Source/gd32vw55x_spi.c **** void spi_format_error_clear(void)
 280:../Firmware/GD32VW55x_standard_peripheral/Source/gd32vw55x_spi.c **** {
 642              		.loc 1 280 1
 643              		.cfi_startproc
 644 0000 4111     		addi	sp,sp,-16
 645              		.cfi_def_cfa_offset 16
 646 0002 22C6     		sw	s0,12(sp)
 647              		.cfi_offset 8, -4
 648 0004 0008     		addi	s0,sp,16
 649              		.cfi_def_cfa 8, 0
 281:../Firmware/GD32VW55x_standard_peripheral/Source/gd32vw55x_spi.c ****     SPI_STAT = (uint32_t)(~SPI_FLAG_FERR);
 650              		.loc 1 281 5
 651 0006 B7370140 		li	a5,1073819648
 652 000a A107     		addi	a5,a5,8
 653              		.loc 1 281 14
 654 000c 1307F0EF 		li	a4,-257
 655 0010 98C3     		sw	a4,0(a5)
 282:../Firmware/GD32VW55x_standard_peripheral/Source/gd32vw55x_spi.c **** }
 656              		.loc 1 282 1
 657 0012 0100     		nop
 658 0014 3244     		lw	s0,12(sp)
 659              		.cfi_restore 8
 660              		.cfi_def_cfa 2, 16
 661 0016 4101     		addi	sp,sp,16
 662              		.cfi_def_cfa_offset 0
 663 0018 8280     		jr	ra
 664              		.cfi_endproc
 665              	.LFE362:
 667              		.section	.text.spi_crc_polynomial_set,"ax",@progbits
 668              		.align	1
 669              		.globl	spi_crc_polynomial_set
 671              	spi_crc_polynomial_set:
 672              	.LFB363:
 283:../Firmware/GD32VW55x_standard_peripheral/Source/gd32vw55x_spi.c **** 
 284:../Firmware/GD32VW55x_standard_peripheral/Source/gd32vw55x_spi.c **** /*!
 285:../Firmware/GD32VW55x_standard_peripheral/Source/gd32vw55x_spi.c ****     \brief      set SPI CRC polynomial
 286:../Firmware/GD32VW55x_standard_peripheral/Source/gd32vw55x_spi.c ****     \param[in]  crc_poly: CRC polynomial value
 287:../Firmware/GD32VW55x_standard_peripheral/Source/gd32vw55x_spi.c ****     \param[out] none
 288:../Firmware/GD32VW55x_standard_peripheral/Source/gd32vw55x_spi.c ****     \retval     none
 289:../Firmware/GD32VW55x_standard_peripheral/Source/gd32vw55x_spi.c **** */
 290:../Firmware/GD32VW55x_standard_peripheral/Source/gd32vw55x_spi.c **** void spi_crc_polynomial_set(uint16_t crc_poly)
 291:../Firmware/GD32VW55x_standard_peripheral/Source/gd32vw55x_spi.c **** {
 673              		.loc 1 291 1
 674              		.cfi_startproc
 675 0000 0111     		addi	sp,sp,-32
 676              		.cfi_def_cfa_offset 32
 677 0002 22CE     		sw	s0,28(sp)
 678              		.cfi_offset 8, -4
 679 0004 0010     		addi	s0,sp,32
 680              		.cfi_def_cfa 8, 0
 681 0006 AA87     		mv	a5,a0
 682 0008 2317F4FE 		sh	a5,-18(s0)
 292:../Firmware/GD32VW55x_standard_peripheral/Source/gd32vw55x_spi.c ****     /* set SPI CRC polynomial */
 293:../Firmware/GD32VW55x_standard_peripheral/Source/gd32vw55x_spi.c ****     SPI_CRCPOLY = (uint32_t)crc_poly;
 683              		.loc 1 293 5
 684 000c B7370140 		li	a5,1073819648
 685 0010 C107     		addi	a5,a5,16
 686              		.loc 1 293 19
 687 0012 0357E4FE 		lhu	a4,-18(s0)
 688              		.loc 1 293 17
 689 0016 98C3     		sw	a4,0(a5)
 294:../Firmware/GD32VW55x_standard_peripheral/Source/gd32vw55x_spi.c **** }
 690              		.loc 1 294 1
 691 0018 0100     		nop
 692 001a 7244     		lw	s0,28(sp)
 693              		.cfi_restore 8
 694              		.cfi_def_cfa 2, 32
 695 001c 0561     		addi	sp,sp,32
 696              		.cfi_def_cfa_offset 0
 697 001e 8280     		jr	ra
 698              		.cfi_endproc
 699              	.LFE363:
 701              		.section	.text.spi_crc_polynomial_get,"ax",@progbits
 702              		.align	1
 703              		.globl	spi_crc_polynomial_get
 705              	spi_crc_polynomial_get:
 706              	.LFB364:
 295:../Firmware/GD32VW55x_standard_peripheral/Source/gd32vw55x_spi.c **** 
 296:../Firmware/GD32VW55x_standard_peripheral/Source/gd32vw55x_spi.c **** /*!
 297:../Firmware/GD32VW55x_standard_peripheral/Source/gd32vw55x_spi.c ****     \brief      get SPI CRC polynomial
 298:../Firmware/GD32VW55x_standard_peripheral/Source/gd32vw55x_spi.c ****     \param[in]  none
 299:../Firmware/GD32VW55x_standard_peripheral/Source/gd32vw55x_spi.c ****     \param[out] none
 300:../Firmware/GD32VW55x_standard_peripheral/Source/gd32vw55x_spi.c ****     \retval     16-bit CRC polynomial
 301:../Firmware/GD32VW55x_standard_peripheral/Source/gd32vw55x_spi.c **** */
 302:../Firmware/GD32VW55x_standard_peripheral/Source/gd32vw55x_spi.c **** uint16_t spi_crc_polynomial_get(void)
 303:../Firmware/GD32VW55x_standard_peripheral/Source/gd32vw55x_spi.c **** {
 707              		.loc 1 303 1
 708              		.cfi_startproc
 709 0000 4111     		addi	sp,sp,-16
 710              		.cfi_def_cfa_offset 16
 711 0002 22C6     		sw	s0,12(sp)
 712              		.cfi_offset 8, -4
 713 0004 0008     		addi	s0,sp,16
 714              		.cfi_def_cfa 8, 0
 304:../Firmware/GD32VW55x_standard_peripheral/Source/gd32vw55x_spi.c ****     return ((uint16_t)SPI_CRCPOLY);
 715              		.loc 1 304 23
 716 0006 B7370140 		li	a5,1073819648
 717 000a C107     		addi	a5,a5,16
 718 000c 9C43     		lw	a5,0(a5)
 719              		.loc 1 304 13
 720 000e C207     		slli	a5,a5,16
 721 0010 C183     		srli	a5,a5,16
 305:../Firmware/GD32VW55x_standard_peripheral/Source/gd32vw55x_spi.c **** }
 722              		.loc 1 305 1
 723 0012 3E85     		mv	a0,a5
 724 0014 3244     		lw	s0,12(sp)
 725              		.cfi_restore 8
 726              		.cfi_def_cfa 2, 16
 727 0016 4101     		addi	sp,sp,16
 728              		.cfi_def_cfa_offset 0
 729 0018 8280     		jr	ra
 730              		.cfi_endproc
 731              	.LFE364:
 733              		.section	.text.spi_crc_on,"ax",@progbits
 734              		.align	1
 735              		.globl	spi_crc_on
 737              	spi_crc_on:
 738              	.LFB365:
 306:../Firmware/GD32VW55x_standard_peripheral/Source/gd32vw55x_spi.c **** 
 307:../Firmware/GD32VW55x_standard_peripheral/Source/gd32vw55x_spi.c **** /*!
 308:../Firmware/GD32VW55x_standard_peripheral/Source/gd32vw55x_spi.c ****     \brief      turn on CRC function
 309:../Firmware/GD32VW55x_standard_peripheral/Source/gd32vw55x_spi.c ****     \param[in]  none
 310:../Firmware/GD32VW55x_standard_peripheral/Source/gd32vw55x_spi.c ****     \param[out] none
 311:../Firmware/GD32VW55x_standard_peripheral/Source/gd32vw55x_spi.c ****     \retval     none
 312:../Firmware/GD32VW55x_standard_peripheral/Source/gd32vw55x_spi.c **** */
 313:../Firmware/GD32VW55x_standard_peripheral/Source/gd32vw55x_spi.c **** void spi_crc_on(void)
 314:../Firmware/GD32VW55x_standard_peripheral/Source/gd32vw55x_spi.c **** {
 739              		.loc 1 314 1
 740              		.cfi_startproc
 741 0000 4111     		addi	sp,sp,-16
 742              		.cfi_def_cfa_offset 16
 743 0002 22C6     		sw	s0,12(sp)
 744              		.cfi_offset 8, -4
 745 0004 0008     		addi	s0,sp,16
 746              		.cfi_def_cfa 8, 0
 315:../Firmware/GD32VW55x_standard_peripheral/Source/gd32vw55x_spi.c ****     SPI_CTL0 |= (uint32_t)SPI_CTL0_CRCEN;
 747              		.loc 1 315 14
 748 0006 B7370140 		li	a5,1073819648
 749 000a 9443     		lw	a3,0(a5)
 750 000c B7370140 		li	a5,1073819648
 751 0010 0967     		li	a4,8192
 752 0012 558F     		or	a4,a3,a4
 753 0014 98C3     		sw	a4,0(a5)
 316:../Firmware/GD32VW55x_standard_peripheral/Source/gd32vw55x_spi.c **** }
 754              		.loc 1 316 1
 755 0016 0100     		nop
 756 0018 3244     		lw	s0,12(sp)
 757              		.cfi_restore 8
 758              		.cfi_def_cfa 2, 16
 759 001a 4101     		addi	sp,sp,16
 760              		.cfi_def_cfa_offset 0
 761 001c 8280     		jr	ra
 762              		.cfi_endproc
 763              	.LFE365:
 765              		.section	.text.spi_crc_off,"ax",@progbits
 766              		.align	1
 767              		.globl	spi_crc_off
 769              	spi_crc_off:
 770              	.LFB366:
 317:../Firmware/GD32VW55x_standard_peripheral/Source/gd32vw55x_spi.c **** 
 318:../Firmware/GD32VW55x_standard_peripheral/Source/gd32vw55x_spi.c **** /*!
 319:../Firmware/GD32VW55x_standard_peripheral/Source/gd32vw55x_spi.c ****     \brief      turn off CRC function
 320:../Firmware/GD32VW55x_standard_peripheral/Source/gd32vw55x_spi.c ****     \param[in]  none
 321:../Firmware/GD32VW55x_standard_peripheral/Source/gd32vw55x_spi.c ****     \param[out] none
 322:../Firmware/GD32VW55x_standard_peripheral/Source/gd32vw55x_spi.c ****     \retval     none
 323:../Firmware/GD32VW55x_standard_peripheral/Source/gd32vw55x_spi.c **** */
 324:../Firmware/GD32VW55x_standard_peripheral/Source/gd32vw55x_spi.c **** void spi_crc_off(void)
 325:../Firmware/GD32VW55x_standard_peripheral/Source/gd32vw55x_spi.c **** {
 771              		.loc 1 325 1
 772              		.cfi_startproc
 773 0000 4111     		addi	sp,sp,-16
 774              		.cfi_def_cfa_offset 16
 775 0002 22C6     		sw	s0,12(sp)
 776              		.cfi_offset 8, -4
 777 0004 0008     		addi	s0,sp,16
 778              		.cfi_def_cfa 8, 0
 326:../Firmware/GD32VW55x_standard_peripheral/Source/gd32vw55x_spi.c ****     SPI_CTL0 &= (uint32_t)(~SPI_CTL0_CRCEN);
 779              		.loc 1 326 14
 780 0006 B7370140 		li	a5,1073819648
 781 000a 9443     		lw	a3,0(a5)
 782 000c B7370140 		li	a5,1073819648
 783 0010 7977     		li	a4,-8192
 784 0012 7D17     		addi	a4,a4,-1
 785 0014 758F     		and	a4,a3,a4
 786 0016 98C3     		sw	a4,0(a5)
 327:../Firmware/GD32VW55x_standard_peripheral/Source/gd32vw55x_spi.c **** }
 787              		.loc 1 327 1
 788 0018 0100     		nop
 789 001a 3244     		lw	s0,12(sp)
 790              		.cfi_restore 8
 791              		.cfi_def_cfa 2, 16
 792 001c 4101     		addi	sp,sp,16
 793              		.cfi_def_cfa_offset 0
 794 001e 8280     		jr	ra
 795              		.cfi_endproc
 796              	.LFE366:
 798              		.section	.text.spi_crc_next,"ax",@progbits
 799              		.align	1
 800              		.globl	spi_crc_next
 802              	spi_crc_next:
 803              	.LFB367:
 328:../Firmware/GD32VW55x_standard_peripheral/Source/gd32vw55x_spi.c **** 
 329:../Firmware/GD32VW55x_standard_peripheral/Source/gd32vw55x_spi.c **** /*!
 330:../Firmware/GD32VW55x_standard_peripheral/Source/gd32vw55x_spi.c ****     \brief      SPI next data is CRC value
 331:../Firmware/GD32VW55x_standard_peripheral/Source/gd32vw55x_spi.c ****     \param[in]  none
 332:../Firmware/GD32VW55x_standard_peripheral/Source/gd32vw55x_spi.c ****     \param[out] none
 333:../Firmware/GD32VW55x_standard_peripheral/Source/gd32vw55x_spi.c ****     \retval     none
 334:../Firmware/GD32VW55x_standard_peripheral/Source/gd32vw55x_spi.c **** */
 335:../Firmware/GD32VW55x_standard_peripheral/Source/gd32vw55x_spi.c **** void spi_crc_next(void)
 336:../Firmware/GD32VW55x_standard_peripheral/Source/gd32vw55x_spi.c **** {
 804              		.loc 1 336 1
 805              		.cfi_startproc
 806 0000 4111     		addi	sp,sp,-16
 807              		.cfi_def_cfa_offset 16
 808 0002 22C6     		sw	s0,12(sp)
 809              		.cfi_offset 8, -4
 810 0004 0008     		addi	s0,sp,16
 811              		.cfi_def_cfa 8, 0
 337:../Firmware/GD32VW55x_standard_peripheral/Source/gd32vw55x_spi.c ****     SPI_CTL0 |= (uint32_t)SPI_CTL0_CRCNT;
 812              		.loc 1 337 14
 813 0006 B7370140 		li	a5,1073819648
 814 000a 9443     		lw	a3,0(a5)
 815 000c B7370140 		li	a5,1073819648
 816 0010 0567     		li	a4,4096
 817 0012 558F     		or	a4,a3,a4
 818 0014 98C3     		sw	a4,0(a5)
 338:../Firmware/GD32VW55x_standard_peripheral/Source/gd32vw55x_spi.c **** }
 819              		.loc 1 338 1
 820 0016 0100     		nop
 821 0018 3244     		lw	s0,12(sp)
 822              		.cfi_restore 8
 823              		.cfi_def_cfa 2, 16
 824 001a 4101     		addi	sp,sp,16
 825              		.cfi_def_cfa_offset 0
 826 001c 8280     		jr	ra
 827              		.cfi_endproc
 828              	.LFE367:
 830              		.section	.text.spi_crc_get,"ax",@progbits
 831              		.align	1
 832              		.globl	spi_crc_get
 834              	spi_crc_get:
 835              	.LFB368:
 339:../Firmware/GD32VW55x_standard_peripheral/Source/gd32vw55x_spi.c **** 
 340:../Firmware/GD32VW55x_standard_peripheral/Source/gd32vw55x_spi.c **** /*!
 341:../Firmware/GD32VW55x_standard_peripheral/Source/gd32vw55x_spi.c ****     \brief      get SPI CRC send value or receive value
 342:../Firmware/GD32VW55x_standard_peripheral/Source/gd32vw55x_spi.c ****     \param[in]  crc: SPI crc value
 343:../Firmware/GD32VW55x_standard_peripheral/Source/gd32vw55x_spi.c ****                 only one parameter can be selected which is shown as below:
 344:../Firmware/GD32VW55x_standard_peripheral/Source/gd32vw55x_spi.c ****       \arg        SPI_CRC_TX: get transmit crc value
 345:../Firmware/GD32VW55x_standard_peripheral/Source/gd32vw55x_spi.c ****       \arg        SPI_CRC_RX: get receive crc value
 346:../Firmware/GD32VW55x_standard_peripheral/Source/gd32vw55x_spi.c ****     \param[out] none
 347:../Firmware/GD32VW55x_standard_peripheral/Source/gd32vw55x_spi.c ****     \retval     16-bit CRC value
 348:../Firmware/GD32VW55x_standard_peripheral/Source/gd32vw55x_spi.c **** */
 349:../Firmware/GD32VW55x_standard_peripheral/Source/gd32vw55x_spi.c **** uint16_t spi_crc_get(uint8_t crc)
 350:../Firmware/GD32VW55x_standard_peripheral/Source/gd32vw55x_spi.c **** {
 836              		.loc 1 350 1
 837              		.cfi_startproc
 838 0000 0111     		addi	sp,sp,-32
 839              		.cfi_def_cfa_offset 32
 840 0002 22CE     		sw	s0,28(sp)
 841              		.cfi_offset 8, -4
 842 0004 0010     		addi	s0,sp,32
 843              		.cfi_def_cfa 8, 0
 844 0006 AA87     		mv	a5,a0
 845 0008 A307F4FE 		sb	a5,-17(s0)
 351:../Firmware/GD32VW55x_standard_peripheral/Source/gd32vw55x_spi.c ****     if(SPI_CRC_TX == crc){
 846              		.loc 1 351 7
 847 000c 8347F4FE 		lbu	a5,-17(s0)
 848 0010 81EB     		bne	a5,zero,.L34
 352:../Firmware/GD32VW55x_standard_peripheral/Source/gd32vw55x_spi.c ****         return ((uint16_t)(SPI_TCRC));
 849              		.loc 1 352 28
 850 0012 B7370140 		li	a5,1073819648
 851 0016 E107     		addi	a5,a5,24
 852 0018 9C43     		lw	a5,0(a5)
 853              		.loc 1 352 17
 854 001a C207     		slli	a5,a5,16
 855 001c C183     		srli	a5,a5,16
 856 001e 39A0     		j	.L35
 857              	.L34:
 353:../Firmware/GD32VW55x_standard_peripheral/Source/gd32vw55x_spi.c ****     }else{
 354:../Firmware/GD32VW55x_standard_peripheral/Source/gd32vw55x_spi.c ****         return ((uint16_t)(SPI_RCRC));
 858              		.loc 1 354 28
 859 0020 B7370140 		li	a5,1073819648
 860 0024 D107     		addi	a5,a5,20
 861 0026 9C43     		lw	a5,0(a5)
 862              		.loc 1 354 17
 863 0028 C207     		slli	a5,a5,16
 864 002a C183     		srli	a5,a5,16
 865              	.L35:
 355:../Firmware/GD32VW55x_standard_peripheral/Source/gd32vw55x_spi.c ****     }
 356:../Firmware/GD32VW55x_standard_peripheral/Source/gd32vw55x_spi.c **** }
 866              		.loc 1 356 1
 867 002c 3E85     		mv	a0,a5
 868 002e 7244     		lw	s0,28(sp)
 869              		.cfi_restore 8
 870              		.cfi_def_cfa 2, 32
 871 0030 0561     		addi	sp,sp,32
 872              		.cfi_def_cfa_offset 0
 873 0032 8280     		jr	ra
 874              		.cfi_endproc
 875              	.LFE368:
 877              		.section	.text.spi_crc_error_clear,"ax",@progbits
 878              		.align	1
 879              		.globl	spi_crc_error_clear
 881              	spi_crc_error_clear:
 882              	.LFB369:
 357:../Firmware/GD32VW55x_standard_peripheral/Source/gd32vw55x_spi.c **** 
 358:../Firmware/GD32VW55x_standard_peripheral/Source/gd32vw55x_spi.c **** /*!
 359:../Firmware/GD32VW55x_standard_peripheral/Source/gd32vw55x_spi.c ****     \brief      clear SPI CRC error flag status
 360:../Firmware/GD32VW55x_standard_peripheral/Source/gd32vw55x_spi.c ****     \param[in]  none
 361:../Firmware/GD32VW55x_standard_peripheral/Source/gd32vw55x_spi.c ****     \param[out] none
 362:../Firmware/GD32VW55x_standard_peripheral/Source/gd32vw55x_spi.c ****     \retval     none
 363:../Firmware/GD32VW55x_standard_peripheral/Source/gd32vw55x_spi.c **** */
 364:../Firmware/GD32VW55x_standard_peripheral/Source/gd32vw55x_spi.c **** void spi_crc_error_clear(void)
 365:../Firmware/GD32VW55x_standard_peripheral/Source/gd32vw55x_spi.c **** {
 883              		.loc 1 365 1
 884              		.cfi_startproc
 885 0000 4111     		addi	sp,sp,-16
 886              		.cfi_def_cfa_offset 16
 887 0002 22C6     		sw	s0,12(sp)
 888              		.cfi_offset 8, -4
 889 0004 0008     		addi	s0,sp,16
 890              		.cfi_def_cfa 8, 0
 366:../Firmware/GD32VW55x_standard_peripheral/Source/gd32vw55x_spi.c ****     SPI_STAT = (uint32_t)(~SPI_FLAG_CRCERR);
 891              		.loc 1 366 5
 892 0006 B7370140 		li	a5,1073819648
 893 000a A107     		addi	a5,a5,8
 894              		.loc 1 366 14
 895 000c 3D57     		li	a4,-17
 896 000e 98C3     		sw	a4,0(a5)
 367:../Firmware/GD32VW55x_standard_peripheral/Source/gd32vw55x_spi.c **** }
 897              		.loc 1 367 1
 898 0010 0100     		nop
 899 0012 3244     		lw	s0,12(sp)
 900              		.cfi_restore 8
 901              		.cfi_def_cfa 2, 16
 902 0014 4101     		addi	sp,sp,16
 903              		.cfi_def_cfa_offset 0
 904 0016 8280     		jr	ra
 905              		.cfi_endproc
 906              	.LFE369:
 908              		.section	.text.spi_ti_mode_enable,"ax",@progbits
 909              		.align	1
 910              		.globl	spi_ti_mode_enable
 912              	spi_ti_mode_enable:
 913              	.LFB370:
 368:../Firmware/GD32VW55x_standard_peripheral/Source/gd32vw55x_spi.c **** 
 369:../Firmware/GD32VW55x_standard_peripheral/Source/gd32vw55x_spi.c **** /*!
 370:../Firmware/GD32VW55x_standard_peripheral/Source/gd32vw55x_spi.c ****     \brief      enable SPI TI mode
 371:../Firmware/GD32VW55x_standard_peripheral/Source/gd32vw55x_spi.c ****     \param[in]  none
 372:../Firmware/GD32VW55x_standard_peripheral/Source/gd32vw55x_spi.c ****     \param[out] none
 373:../Firmware/GD32VW55x_standard_peripheral/Source/gd32vw55x_spi.c ****     \retval     none
 374:../Firmware/GD32VW55x_standard_peripheral/Source/gd32vw55x_spi.c **** */
 375:../Firmware/GD32VW55x_standard_peripheral/Source/gd32vw55x_spi.c **** void spi_ti_mode_enable(void)
 376:../Firmware/GD32VW55x_standard_peripheral/Source/gd32vw55x_spi.c **** {
 914              		.loc 1 376 1
 915              		.cfi_startproc
 916 0000 4111     		addi	sp,sp,-16
 917              		.cfi_def_cfa_offset 16
 918 0002 22C6     		sw	s0,12(sp)
 919              		.cfi_offset 8, -4
 920 0004 0008     		addi	s0,sp,16
 921              		.cfi_def_cfa 8, 0
 377:../Firmware/GD32VW55x_standard_peripheral/Source/gd32vw55x_spi.c ****     SPI_CTL1 |= (uint32_t)SPI_CTL1_TMOD;
 922              		.loc 1 377 14
 923 0006 B7370140 		li	a5,1073819648
 924 000a 9107     		addi	a5,a5,4
 925 000c 9843     		lw	a4,0(a5)
 926 000e B7370140 		li	a5,1073819648
 927 0012 9107     		addi	a5,a5,4
 928 0014 13670701 		ori	a4,a4,16
 929 0018 98C3     		sw	a4,0(a5)
 378:../Firmware/GD32VW55x_standard_peripheral/Source/gd32vw55x_spi.c **** }
 930              		.loc 1 378 1
 931 001a 0100     		nop
 932 001c 3244     		lw	s0,12(sp)
 933              		.cfi_restore 8
 934              		.cfi_def_cfa 2, 16
 935 001e 4101     		addi	sp,sp,16
 936              		.cfi_def_cfa_offset 0
 937 0020 8280     		jr	ra
 938              		.cfi_endproc
 939              	.LFE370:
 941              		.section	.text.spi_ti_mode_disable,"ax",@progbits
 942              		.align	1
 943              		.globl	spi_ti_mode_disable
 945              	spi_ti_mode_disable:
 946              	.LFB371:
 379:../Firmware/GD32VW55x_standard_peripheral/Source/gd32vw55x_spi.c **** 
 380:../Firmware/GD32VW55x_standard_peripheral/Source/gd32vw55x_spi.c **** /*!
 381:../Firmware/GD32VW55x_standard_peripheral/Source/gd32vw55x_spi.c ****     \brief      disable SPI TI mode
 382:../Firmware/GD32VW55x_standard_peripheral/Source/gd32vw55x_spi.c ****     \param[in]  none
 383:../Firmware/GD32VW55x_standard_peripheral/Source/gd32vw55x_spi.c ****     \param[out] none
 384:../Firmware/GD32VW55x_standard_peripheral/Source/gd32vw55x_spi.c ****     \retval     none
 385:../Firmware/GD32VW55x_standard_peripheral/Source/gd32vw55x_spi.c **** */
 386:../Firmware/GD32VW55x_standard_peripheral/Source/gd32vw55x_spi.c **** void spi_ti_mode_disable(void)
 387:../Firmware/GD32VW55x_standard_peripheral/Source/gd32vw55x_spi.c **** {
 947              		.loc 1 387 1
 948              		.cfi_startproc
 949 0000 4111     		addi	sp,sp,-16
 950              		.cfi_def_cfa_offset 16
 951 0002 22C6     		sw	s0,12(sp)
 952              		.cfi_offset 8, -4
 953 0004 0008     		addi	s0,sp,16
 954              		.cfi_def_cfa 8, 0
 388:../Firmware/GD32VW55x_standard_peripheral/Source/gd32vw55x_spi.c ****     SPI_CTL1 &= (uint32_t)(~SPI_CTL1_TMOD);
 955              		.loc 1 388 14
 956 0006 B7370140 		li	a5,1073819648
 957 000a 9107     		addi	a5,a5,4
 958 000c 9843     		lw	a4,0(a5)
 959 000e B7370140 		li	a5,1073819648
 960 0012 9107     		addi	a5,a5,4
 961 0014 3D9B     		andi	a4,a4,-17
 962 0016 98C3     		sw	a4,0(a5)
 389:../Firmware/GD32VW55x_standard_peripheral/Source/gd32vw55x_spi.c **** }
 963              		.loc 1 389 1
 964 0018 0100     		nop
 965 001a 3244     		lw	s0,12(sp)
 966              		.cfi_restore 8
 967              		.cfi_def_cfa 2, 16
 968 001c 4101     		addi	sp,sp,16
 969              		.cfi_def_cfa_offset 0
 970 001e 8280     		jr	ra
 971              		.cfi_endproc
 972              	.LFE371:
 974              		.section	.text.spi_interrupt_enable,"ax",@progbits
 975              		.align	1
 976              		.globl	spi_interrupt_enable
 978              	spi_interrupt_enable:
 979              	.LFB372:
 390:../Firmware/GD32VW55x_standard_peripheral/Source/gd32vw55x_spi.c **** 
 391:../Firmware/GD32VW55x_standard_peripheral/Source/gd32vw55x_spi.c **** /*!
 392:../Firmware/GD32VW55x_standard_peripheral/Source/gd32vw55x_spi.c ****     \brief      enable SPI interrupt
 393:../Firmware/GD32VW55x_standard_peripheral/Source/gd32vw55x_spi.c ****     \param[in]  interrupt: SPI interrupt
 394:../Firmware/GD32VW55x_standard_peripheral/Source/gd32vw55x_spi.c ****                 only one parameter can be selected which is shown as below:
 395:../Firmware/GD32VW55x_standard_peripheral/Source/gd32vw55x_spi.c ****       \arg        SPI_INT_TBE: transmit buffer empty interrupt
 396:../Firmware/GD32VW55x_standard_peripheral/Source/gd32vw55x_spi.c ****       \arg        SPI_INT_RBNE: receive buffer not empty interrupt
 397:../Firmware/GD32VW55x_standard_peripheral/Source/gd32vw55x_spi.c ****       \arg        SPI_INT_ERR: CRC error,configuration error,reception overrun error
 398:../Firmware/GD32VW55x_standard_peripheral/Source/gd32vw55x_spi.c ****                                     and format error interrupt
 399:../Firmware/GD32VW55x_standard_peripheral/Source/gd32vw55x_spi.c ****     \param[out] none
 400:../Firmware/GD32VW55x_standard_peripheral/Source/gd32vw55x_spi.c ****     \retval     none
 401:../Firmware/GD32VW55x_standard_peripheral/Source/gd32vw55x_spi.c **** */
 402:../Firmware/GD32VW55x_standard_peripheral/Source/gd32vw55x_spi.c **** void spi_interrupt_enable(uint8_t interrupt)
 403:../Firmware/GD32VW55x_standard_peripheral/Source/gd32vw55x_spi.c **** {
 980              		.loc 1 403 1
 981              		.cfi_startproc
 982 0000 0111     		addi	sp,sp,-32
 983              		.cfi_def_cfa_offset 32
 984 0002 22CE     		sw	s0,28(sp)
 985              		.cfi_offset 8, -4
 986 0004 0010     		addi	s0,sp,32
 987              		.cfi_def_cfa 8, 0
 988 0006 AA87     		mv	a5,a0
 989 0008 A307F4FE 		sb	a5,-17(s0)
 404:../Firmware/GD32VW55x_standard_peripheral/Source/gd32vw55x_spi.c ****     switch(interrupt){
 990              		.loc 1 404 5
 991 000c 8347F4FE 		lbu	a5,-17(s0)
 992 0010 0947     		li	a4,2
 993 0012 6380E704 		beq	a5,a4,.L40
 994 0016 0947     		li	a4,2
 995 0018 6348F704 		bgt	a5,a4,.L45
 996 001c 89C7     		beq	a5,zero,.L42
 997 001e 0547     		li	a4,1
 998 0020 638EE700 		beq	a5,a4,.L43
 405:../Firmware/GD32VW55x_standard_peripheral/Source/gd32vw55x_spi.c ****     /* SPI transmit buffer empty interrupt */
 406:../Firmware/GD32VW55x_standard_peripheral/Source/gd32vw55x_spi.c ****     case SPI_INT_TBE:
 407:../Firmware/GD32VW55x_standard_peripheral/Source/gd32vw55x_spi.c ****         SPI_CTL1 |= (uint32_t)SPI_CTL1_TBEIE;
 408:../Firmware/GD32VW55x_standard_peripheral/Source/gd32vw55x_spi.c ****         break;
 409:../Firmware/GD32VW55x_standard_peripheral/Source/gd32vw55x_spi.c ****     /* SPI receive buffer not empty interrupt */
 410:../Firmware/GD32VW55x_standard_peripheral/Source/gd32vw55x_spi.c ****     case SPI_INT_RBNE:
 411:../Firmware/GD32VW55x_standard_peripheral/Source/gd32vw55x_spi.c ****         SPI_CTL1 |= (uint32_t)SPI_CTL1_RBNEIE;
 412:../Firmware/GD32VW55x_standard_peripheral/Source/gd32vw55x_spi.c ****         break;
 413:../Firmware/GD32VW55x_standard_peripheral/Source/gd32vw55x_spi.c ****     /* SPI error */
 414:../Firmware/GD32VW55x_standard_peripheral/Source/gd32vw55x_spi.c ****     case SPI_INT_ERR:
 415:../Firmware/GD32VW55x_standard_peripheral/Source/gd32vw55x_spi.c ****         SPI_CTL1 |= (uint32_t)SPI_CTL1_ERRIE;
 416:../Firmware/GD32VW55x_standard_peripheral/Source/gd32vw55x_spi.c ****         break;
 417:../Firmware/GD32VW55x_standard_peripheral/Source/gd32vw55x_spi.c ****     default:
 418:../Firmware/GD32VW55x_standard_peripheral/Source/gd32vw55x_spi.c ****         break;
 999              		.loc 1 418 9
 1000 0024 91A0     		j	.L45
 1001              	.L42:
 407:../Firmware/GD32VW55x_standard_peripheral/Source/gd32vw55x_spi.c ****         break;
 1002              		.loc 1 407 18
 1003 0026 B7370140 		li	a5,1073819648
 1004 002a 9107     		addi	a5,a5,4
 1005 002c 9843     		lw	a4,0(a5)
 1006 002e B7370140 		li	a5,1073819648
 1007 0032 9107     		addi	a5,a5,4
 1008 0034 13670708 		ori	a4,a4,128
 1009 0038 98C3     		sw	a4,0(a5)
 408:../Firmware/GD32VW55x_standard_peripheral/Source/gd32vw55x_spi.c ****     /* SPI receive buffer not empty interrupt */
 1010              		.loc 1 408 9
 1011 003a 05A8     		j	.L44
 1012              	.L43:
 411:../Firmware/GD32VW55x_standard_peripheral/Source/gd32vw55x_spi.c ****         break;
 1013              		.loc 1 411 18
 1014 003c B7370140 		li	a5,1073819648
 1015 0040 9107     		addi	a5,a5,4
 1016 0042 9843     		lw	a4,0(a5)
 1017 0044 B7370140 		li	a5,1073819648
 1018 0048 9107     		addi	a5,a5,4
 1019 004a 13670704 		ori	a4,a4,64
 1020 004e 98C3     		sw	a4,0(a5)
 412:../Firmware/GD32VW55x_standard_peripheral/Source/gd32vw55x_spi.c ****     /* SPI error */
 1021              		.loc 1 412 9
 1022 0050 29A8     		j	.L44
 1023              	.L40:
 415:../Firmware/GD32VW55x_standard_peripheral/Source/gd32vw55x_spi.c ****         break;
 1024              		.loc 1 415 18
 1025 0052 B7370140 		li	a5,1073819648
 1026 0056 9107     		addi	a5,a5,4
 1027 0058 9843     		lw	a4,0(a5)
 1028 005a B7370140 		li	a5,1073819648
 1029 005e 9107     		addi	a5,a5,4
 1030 0060 13670702 		ori	a4,a4,32
 1031 0064 98C3     		sw	a4,0(a5)
 416:../Firmware/GD32VW55x_standard_peripheral/Source/gd32vw55x_spi.c ****     default:
 1032              		.loc 1 416 9
 1033 0066 11A0     		j	.L44
 1034              	.L45:
 1035              		.loc 1 418 9
 1036 0068 0100     		nop
 1037              	.L44:
 419:../Firmware/GD32VW55x_standard_peripheral/Source/gd32vw55x_spi.c ****     }
 420:../Firmware/GD32VW55x_standard_peripheral/Source/gd32vw55x_spi.c **** }
 1038              		.loc 1 420 1
 1039 006a 0100     		nop
 1040 006c 7244     		lw	s0,28(sp)
 1041              		.cfi_restore 8
 1042              		.cfi_def_cfa 2, 32
 1043 006e 0561     		addi	sp,sp,32
 1044              		.cfi_def_cfa_offset 0
 1045 0070 8280     		jr	ra
 1046              		.cfi_endproc
 1047              	.LFE372:
 1049              		.section	.text.spi_interrupt_disable,"ax",@progbits
 1050              		.align	1
 1051              		.globl	spi_interrupt_disable
 1053              	spi_interrupt_disable:
 1054              	.LFB373:
 421:../Firmware/GD32VW55x_standard_peripheral/Source/gd32vw55x_spi.c **** 
 422:../Firmware/GD32VW55x_standard_peripheral/Source/gd32vw55x_spi.c **** /*!
 423:../Firmware/GD32VW55x_standard_peripheral/Source/gd32vw55x_spi.c ****     \brief      disable SPI interrupt
 424:../Firmware/GD32VW55x_standard_peripheral/Source/gd32vw55x_spi.c ****     \param[in]  interrupt: SPI interrupt
 425:../Firmware/GD32VW55x_standard_peripheral/Source/gd32vw55x_spi.c ****                 only one parameter can be selected which is shown as below:
 426:../Firmware/GD32VW55x_standard_peripheral/Source/gd32vw55x_spi.c ****       \arg        SPI_INT_TBE: transmit buffer empty interrupt
 427:../Firmware/GD32VW55x_standard_peripheral/Source/gd32vw55x_spi.c ****       \arg        SPI_INT_RBNE: receive buffer not empty interrupt
 428:../Firmware/GD32VW55x_standard_peripheral/Source/gd32vw55x_spi.c ****       \arg        SPI_INT_ERR: CRC error,configuration error,reception overrun error
 429:../Firmware/GD32VW55x_standard_peripheral/Source/gd32vw55x_spi.c ****                                     and format error interrupt
 430:../Firmware/GD32VW55x_standard_peripheral/Source/gd32vw55x_spi.c ****     \param[out] none
 431:../Firmware/GD32VW55x_standard_peripheral/Source/gd32vw55x_spi.c ****     \retval     none
 432:../Firmware/GD32VW55x_standard_peripheral/Source/gd32vw55x_spi.c **** */
 433:../Firmware/GD32VW55x_standard_peripheral/Source/gd32vw55x_spi.c **** void spi_interrupt_disable(uint8_t interrupt)
 434:../Firmware/GD32VW55x_standard_peripheral/Source/gd32vw55x_spi.c **** {
 1055              		.loc 1 434 1
 1056              		.cfi_startproc
 1057 0000 0111     		addi	sp,sp,-32
 1058              		.cfi_def_cfa_offset 32
 1059 0002 22CE     		sw	s0,28(sp)
 1060              		.cfi_offset 8, -4
 1061 0004 0010     		addi	s0,sp,32
 1062              		.cfi_def_cfa 8, 0
 1063 0006 AA87     		mv	a5,a0
 1064 0008 A307F4FE 		sb	a5,-17(s0)
 435:../Firmware/GD32VW55x_standard_peripheral/Source/gd32vw55x_spi.c ****     switch(interrupt){
 1065              		.loc 1 435 5
 1066 000c 8347F4FE 		lbu	a5,-17(s0)
 1067 0010 0947     		li	a4,2
 1068 0012 6380E704 		beq	a5,a4,.L47
 1069 0016 0947     		li	a4,2
 1070 0018 6348F704 		bgt	a5,a4,.L52
 1071 001c 89C7     		beq	a5,zero,.L49
 1072 001e 0547     		li	a4,1
 1073 0020 638EE700 		beq	a5,a4,.L50
 436:../Firmware/GD32VW55x_standard_peripheral/Source/gd32vw55x_spi.c ****     /* SPI transmit buffer empty interrupt */
 437:../Firmware/GD32VW55x_standard_peripheral/Source/gd32vw55x_spi.c ****     case SPI_INT_TBE:
 438:../Firmware/GD32VW55x_standard_peripheral/Source/gd32vw55x_spi.c ****         SPI_CTL1 &= (uint32_t)(~SPI_CTL1_TBEIE);
 439:../Firmware/GD32VW55x_standard_peripheral/Source/gd32vw55x_spi.c ****         break;
 440:../Firmware/GD32VW55x_standard_peripheral/Source/gd32vw55x_spi.c ****     /* SPI receive buffer not empty interrupt */
 441:../Firmware/GD32VW55x_standard_peripheral/Source/gd32vw55x_spi.c ****     case SPI_INT_RBNE:
 442:../Firmware/GD32VW55x_standard_peripheral/Source/gd32vw55x_spi.c ****         SPI_CTL1 &= (uint32_t)(~SPI_CTL1_RBNEIE);
 443:../Firmware/GD32VW55x_standard_peripheral/Source/gd32vw55x_spi.c ****         break;
 444:../Firmware/GD32VW55x_standard_peripheral/Source/gd32vw55x_spi.c ****     /* SPI error */
 445:../Firmware/GD32VW55x_standard_peripheral/Source/gd32vw55x_spi.c ****     case SPI_INT_ERR:
 446:../Firmware/GD32VW55x_standard_peripheral/Source/gd32vw55x_spi.c ****         SPI_CTL1 &= (uint32_t)(~SPI_CTL1_ERRIE);
 447:../Firmware/GD32VW55x_standard_peripheral/Source/gd32vw55x_spi.c ****         break;
 448:../Firmware/GD32VW55x_standard_peripheral/Source/gd32vw55x_spi.c ****     default :
 449:../Firmware/GD32VW55x_standard_peripheral/Source/gd32vw55x_spi.c ****         break;
 1074              		.loc 1 449 9
 1075 0024 91A0     		j	.L52
 1076              	.L49:
 438:../Firmware/GD32VW55x_standard_peripheral/Source/gd32vw55x_spi.c ****         break;
 1077              		.loc 1 438 18
 1078 0026 B7370140 		li	a5,1073819648
 1079 002a 9107     		addi	a5,a5,4
 1080 002c 9843     		lw	a4,0(a5)
 1081 002e B7370140 		li	a5,1073819648
 1082 0032 9107     		addi	a5,a5,4
 1083 0034 1377F7F7 		andi	a4,a4,-129
 1084 0038 98C3     		sw	a4,0(a5)
 439:../Firmware/GD32VW55x_standard_peripheral/Source/gd32vw55x_spi.c ****     /* SPI receive buffer not empty interrupt */
 1085              		.loc 1 439 9
 1086 003a 05A8     		j	.L51
 1087              	.L50:
 442:../Firmware/GD32VW55x_standard_peripheral/Source/gd32vw55x_spi.c ****         break;
 1088              		.loc 1 442 18
 1089 003c B7370140 		li	a5,1073819648
 1090 0040 9107     		addi	a5,a5,4
 1091 0042 9843     		lw	a4,0(a5)
 1092 0044 B7370140 		li	a5,1073819648
 1093 0048 9107     		addi	a5,a5,4
 1094 004a 1377F7FB 		andi	a4,a4,-65
 1095 004e 98C3     		sw	a4,0(a5)
 443:../Firmware/GD32VW55x_standard_peripheral/Source/gd32vw55x_spi.c ****     /* SPI error */
 1096              		.loc 1 443 9
 1097 0050 29A8     		j	.L51
 1098              	.L47:
 446:../Firmware/GD32VW55x_standard_peripheral/Source/gd32vw55x_spi.c ****         break;
 1099              		.loc 1 446 18
 1100 0052 B7370140 		li	a5,1073819648
 1101 0056 9107     		addi	a5,a5,4
 1102 0058 9843     		lw	a4,0(a5)
 1103 005a B7370140 		li	a5,1073819648
 1104 005e 9107     		addi	a5,a5,4
 1105 0060 1377F7FD 		andi	a4,a4,-33
 1106 0064 98C3     		sw	a4,0(a5)
 447:../Firmware/GD32VW55x_standard_peripheral/Source/gd32vw55x_spi.c ****     default :
 1107              		.loc 1 447 9
 1108 0066 11A0     		j	.L51
 1109              	.L52:
 1110              		.loc 1 449 9
 1111 0068 0100     		nop
 1112              	.L51:
 450:../Firmware/GD32VW55x_standard_peripheral/Source/gd32vw55x_spi.c ****     }
 451:../Firmware/GD32VW55x_standard_peripheral/Source/gd32vw55x_spi.c **** }
 1113              		.loc 1 451 1
 1114 006a 0100     		nop
 1115 006c 7244     		lw	s0,28(sp)
 1116              		.cfi_restore 8
 1117              		.cfi_def_cfa 2, 32
 1118 006e 0561     		addi	sp,sp,32
 1119              		.cfi_def_cfa_offset 0
 1120 0070 8280     		jr	ra
 1121              		.cfi_endproc
 1122              	.LFE373:
 1124              		.section	.text.spi_interrupt_flag_get,"ax",@progbits
 1125              		.align	1
 1126              		.globl	spi_interrupt_flag_get
 1128              	spi_interrupt_flag_get:
 1129              	.LFB374:
 452:../Firmware/GD32VW55x_standard_peripheral/Source/gd32vw55x_spi.c **** 
 453:../Firmware/GD32VW55x_standard_peripheral/Source/gd32vw55x_spi.c **** /*!
 454:../Firmware/GD32VW55x_standard_peripheral/Source/gd32vw55x_spi.c ****     \brief      get SPI interrupt flag status
 455:../Firmware/GD32VW55x_standard_peripheral/Source/gd32vw55x_spi.c ****     \param[in]  interrupt: SPI interrupt flag status
 456:../Firmware/GD32VW55x_standard_peripheral/Source/gd32vw55x_spi.c ****                 only one parameter can be selected which is shown as below:
 457:../Firmware/GD32VW55x_standard_peripheral/Source/gd32vw55x_spi.c ****       \arg        SPI_INT_FLAG_TBE: transmit buffer empty interrupt flag
 458:../Firmware/GD32VW55x_standard_peripheral/Source/gd32vw55x_spi.c ****       \arg        SPI_INT_FLAG_RBNE: receive buffer not empty interrupt flag
 459:../Firmware/GD32VW55x_standard_peripheral/Source/gd32vw55x_spi.c ****       \arg        SPI_INT_FLAG_RXORERR: overrun interrupt flag
 460:../Firmware/GD32VW55x_standard_peripheral/Source/gd32vw55x_spi.c ****       \arg        SPI_INT_FLAG_CONFERR: configuration error interrupt flag
 461:../Firmware/GD32VW55x_standard_peripheral/Source/gd32vw55x_spi.c ****       \arg        SPI_INT_FLAG_CRCERR: CRC error interrupt flag
 462:../Firmware/GD32VW55x_standard_peripheral/Source/gd32vw55x_spi.c ****       \arg        SPI_INT_FLAG_FERR: format error interrupt flag
 463:../Firmware/GD32VW55x_standard_peripheral/Source/gd32vw55x_spi.c ****     \param[out] none
 464:../Firmware/GD32VW55x_standard_peripheral/Source/gd32vw55x_spi.c ****     \retval     FlagStatus: SET or RESET
 465:../Firmware/GD32VW55x_standard_peripheral/Source/gd32vw55x_spi.c **** */
 466:../Firmware/GD32VW55x_standard_peripheral/Source/gd32vw55x_spi.c **** FlagStatus spi_interrupt_flag_get(uint8_t interrupt)
 467:../Firmware/GD32VW55x_standard_peripheral/Source/gd32vw55x_spi.c **** {
 1130              		.loc 1 467 1
 1131              		.cfi_startproc
 1132 0000 7971     		addi	sp,sp,-48
 1133              		.cfi_def_cfa_offset 48
 1134 0002 22D6     		sw	s0,44(sp)
 1135              		.cfi_offset 8, -4
 1136 0004 0018     		addi	s0,sp,48
 1137              		.cfi_def_cfa 8, 0
 1138 0006 AA87     		mv	a5,a0
 1139 0008 A30FF4FC 		sb	a5,-33(s0)
 468:../Firmware/GD32VW55x_standard_peripheral/Source/gd32vw55x_spi.c ****     uint32_t reg1 = SPI_STAT;
 1140              		.loc 1 468 21
 1141 000c B7370140 		li	a5,1073819648
 1142 0010 A107     		addi	a5,a5,8
 1143              		.loc 1 468 14
 1144 0012 9C43     		lw	a5,0(a5)
 1145 0014 2326F4FE 		sw	a5,-20(s0)
 469:../Firmware/GD32VW55x_standard_peripheral/Source/gd32vw55x_spi.c ****     uint32_t reg2 = SPI_CTL1;
 1146              		.loc 1 469 21
 1147 0018 B7370140 		li	a5,1073819648
 1148 001c 9107     		addi	a5,a5,4
 1149              		.loc 1 469 14
 1150 001e 9C43     		lw	a5,0(a5)
 1151 0020 2324F4FE 		sw	a5,-24(s0)
 470:../Firmware/GD32VW55x_standard_peripheral/Source/gd32vw55x_spi.c **** 
 471:../Firmware/GD32VW55x_standard_peripheral/Source/gd32vw55x_spi.c ****     switch(interrupt){
 1152              		.loc 1 471 5
 1153 0024 8347F4FD 		lbu	a5,-33(s0)
 1154 0028 1947     		li	a4,6
 1155 002a 636BF70A 		bgtu	a5,a4,.L65
 1156 002e 13972700 		slli	a4,a5,2
 1157 0032 97070000 		lla	a5,.L56
 1157      93870700 
 1158 003a BA97     		add	a5,a4,a5
 1159 003c 9843     		lw	a4,0(a5)
 1160 003e 97070000 		lla	a5,.L56
 1160      93870700 
 1161 0046 BA97     		add	a5,a4,a5
 1162 0048 8287     		jr	a5
 1163              		.section	.rodata.spi_interrupt_flag_get,"a",@progbits
 1164              		.align	2
 1165              		.align	2
 1166              	.L56:
 1167 0000 00000000 		.word	.L61-.L56
 1168 0004 00000000 		.word	.L60-.L56
 1169 0008 00000000 		.word	.L59-.L56
 1170 000c 00000000 		.word	.L58-.L56
 1171 0010 00000000 		.word	.L57-.L56
 1172 0014 00000000 		.word	.L65-.L56
 1173 0018 00000000 		.word	.L55-.L56
 1174              		.section	.text.spi_interrupt_flag_get
 1175              	.L61:
 472:../Firmware/GD32VW55x_standard_peripheral/Source/gd32vw55x_spi.c ****     /* SPI transmit buffer empty interrupt */
 473:../Firmware/GD32VW55x_standard_peripheral/Source/gd32vw55x_spi.c ****     case SPI_INT_FLAG_TBE:
 474:../Firmware/GD32VW55x_standard_peripheral/Source/gd32vw55x_spi.c ****         reg1 = reg1 & SPI_STAT_TBE;
 1176              		.loc 1 474 14
 1177 004a 8327C4FE 		lw	a5,-20(s0)
 1178 004e 898B     		andi	a5,a5,2
 1179 0050 2326F4FE 		sw	a5,-20(s0)
 475:../Firmware/GD32VW55x_standard_peripheral/Source/gd32vw55x_spi.c ****         reg2 = reg2 & SPI_CTL1_TBEIE;
 1180              		.loc 1 475 14
 1181 0054 832784FE 		lw	a5,-24(s0)
 1182 0058 93F70708 		andi	a5,a5,128
 1183 005c 2324F4FE 		sw	a5,-24(s0)
 476:../Firmware/GD32VW55x_standard_peripheral/Source/gd32vw55x_spi.c ****         break;
 1184              		.loc 1 476 9
 1185 0060 49A0     		j	.L62
 1186              	.L60:
 477:../Firmware/GD32VW55x_standard_peripheral/Source/gd32vw55x_spi.c ****     /* SPI receive buffer not empty interrupt */
 478:../Firmware/GD32VW55x_standard_peripheral/Source/gd32vw55x_spi.c ****     case SPI_INT_FLAG_RBNE:
 479:../Firmware/GD32VW55x_standard_peripheral/Source/gd32vw55x_spi.c ****         reg1 = reg1 & SPI_STAT_RBNE;
 1187              		.loc 1 479 14
 1188 0062 8327C4FE 		lw	a5,-20(s0)
 1189 0066 858B     		andi	a5,a5,1
 1190 0068 2326F4FE 		sw	a5,-20(s0)
 480:../Firmware/GD32VW55x_standard_peripheral/Source/gd32vw55x_spi.c ****         reg2 = reg2 & SPI_CTL1_RBNEIE;
 1191              		.loc 1 480 14
 1192 006c 832784FE 		lw	a5,-24(s0)
 1193 0070 93F70704 		andi	a5,a5,64
 1194 0074 2324F4FE 		sw	a5,-24(s0)
 481:../Firmware/GD32VW55x_standard_peripheral/Source/gd32vw55x_spi.c ****         break;
 1195              		.loc 1 481 9
 1196 0078 ADA0     		j	.L62
 1197              	.L59:
 482:../Firmware/GD32VW55x_standard_peripheral/Source/gd32vw55x_spi.c ****     /* SPI overrun interrupt */
 483:../Firmware/GD32VW55x_standard_peripheral/Source/gd32vw55x_spi.c ****     case SPI_INT_FLAG_RXORERR:
 484:../Firmware/GD32VW55x_standard_peripheral/Source/gd32vw55x_spi.c ****         reg1 = reg1 & SPI_STAT_RXORERR;
 1198              		.loc 1 484 14
 1199 007a 8327C4FE 		lw	a5,-20(s0)
 1200 007e 93F70704 		andi	a5,a5,64
 1201 0082 2326F4FE 		sw	a5,-20(s0)
 485:../Firmware/GD32VW55x_standard_peripheral/Source/gd32vw55x_spi.c ****         reg2 = reg2 & SPI_CTL1_ERRIE;
 1202              		.loc 1 485 14
 1203 0086 832784FE 		lw	a5,-24(s0)
 1204 008a 93F70702 		andi	a5,a5,32
 1205 008e 2324F4FE 		sw	a5,-24(s0)
 486:../Firmware/GD32VW55x_standard_peripheral/Source/gd32vw55x_spi.c ****         break;
 1206              		.loc 1 486 9
 1207 0092 81A8     		j	.L62
 1208              	.L58:
 487:../Firmware/GD32VW55x_standard_peripheral/Source/gd32vw55x_spi.c ****     /* SPI configuration error interrupt */
 488:../Firmware/GD32VW55x_standard_peripheral/Source/gd32vw55x_spi.c ****     case SPI_INT_FLAG_CONFERR:
 489:../Firmware/GD32VW55x_standard_peripheral/Source/gd32vw55x_spi.c ****         reg1 = reg1 & SPI_STAT_CONFERR;
 1209              		.loc 1 489 14
 1210 0094 8327C4FE 		lw	a5,-20(s0)
 1211 0098 93F70702 		andi	a5,a5,32
 1212 009c 2326F4FE 		sw	a5,-20(s0)
 490:../Firmware/GD32VW55x_standard_peripheral/Source/gd32vw55x_spi.c ****         reg2 = reg2 & SPI_CTL1_ERRIE;
 1213              		.loc 1 490 14
 1214 00a0 832784FE 		lw	a5,-24(s0)
 1215 00a4 93F70702 		andi	a5,a5,32
 1216 00a8 2324F4FE 		sw	a5,-24(s0)
 491:../Firmware/GD32VW55x_standard_peripheral/Source/gd32vw55x_spi.c ****         break;
 1217              		.loc 1 491 9
 1218 00ac 1DA8     		j	.L62
 1219              	.L57:
 492:../Firmware/GD32VW55x_standard_peripheral/Source/gd32vw55x_spi.c ****     /* SPI CRC error interrupt */
 493:../Firmware/GD32VW55x_standard_peripheral/Source/gd32vw55x_spi.c ****     case SPI_INT_FLAG_CRCERR:
 494:../Firmware/GD32VW55x_standard_peripheral/Source/gd32vw55x_spi.c ****         reg1 = reg1 & SPI_STAT_CRCERR;
 1220              		.loc 1 494 14
 1221 00ae 8327C4FE 		lw	a5,-20(s0)
 1222 00b2 C18B     		andi	a5,a5,16
 1223 00b4 2326F4FE 		sw	a5,-20(s0)
 495:../Firmware/GD32VW55x_standard_peripheral/Source/gd32vw55x_spi.c ****         reg2 = reg2 & SPI_CTL1_ERRIE;
 1224              		.loc 1 495 14
 1225 00b8 832784FE 		lw	a5,-24(s0)
 1226 00bc 93F70702 		andi	a5,a5,32
 1227 00c0 2324F4FE 		sw	a5,-24(s0)
 496:../Firmware/GD32VW55x_standard_peripheral/Source/gd32vw55x_spi.c ****         break;
 1228              		.loc 1 496 9
 1229 00c4 39A8     		j	.L62
 1230              	.L55:
 497:../Firmware/GD32VW55x_standard_peripheral/Source/gd32vw55x_spi.c ****     /* SPI format error interrupt */
 498:../Firmware/GD32VW55x_standard_peripheral/Source/gd32vw55x_spi.c ****     case SPI_INT_FLAG_FERR:
 499:../Firmware/GD32VW55x_standard_peripheral/Source/gd32vw55x_spi.c ****         reg1 = reg1 & SPI_STAT_FERR;
 1231              		.loc 1 499 14
 1232 00c6 8327C4FE 		lw	a5,-20(s0)
 1233 00ca 93F70710 		andi	a5,a5,256
 1234 00ce 2326F4FE 		sw	a5,-20(s0)
 500:../Firmware/GD32VW55x_standard_peripheral/Source/gd32vw55x_spi.c ****         reg2 = reg2 & SPI_CTL1_ERRIE;
 1235              		.loc 1 500 14
 1236 00d2 832784FE 		lw	a5,-24(s0)
 1237 00d6 93F70702 		andi	a5,a5,32
 1238 00da 2324F4FE 		sw	a5,-24(s0)
 501:../Firmware/GD32VW55x_standard_peripheral/Source/gd32vw55x_spi.c ****         break;
 1239              		.loc 1 501 9
 1240 00de 11A0     		j	.L62
 1241              	.L65:
 502:../Firmware/GD32VW55x_standard_peripheral/Source/gd32vw55x_spi.c ****     default :
 503:../Firmware/GD32VW55x_standard_peripheral/Source/gd32vw55x_spi.c ****         break;
 1242              		.loc 1 503 9
 1243 00e0 0100     		nop
 1244              	.L62:
 504:../Firmware/GD32VW55x_standard_peripheral/Source/gd32vw55x_spi.c ****     }
 505:../Firmware/GD32VW55x_standard_peripheral/Source/gd32vw55x_spi.c ****     /*get SPI interrupt flag status */
 506:../Firmware/GD32VW55x_standard_peripheral/Source/gd32vw55x_spi.c ****     if((0U != reg1) && (0U != reg2)){
 1245              		.loc 1 506 7
 1246 00e2 8327C4FE 		lw	a5,-20(s0)
 1247 00e6 91C7     		beq	a5,zero,.L63
 1248              		.loc 1 506 21 discriminator 1
 1249 00e8 832784FE 		lw	a5,-24(s0)
 1250 00ec 99C3     		beq	a5,zero,.L63
 507:../Firmware/GD32VW55x_standard_peripheral/Source/gd32vw55x_spi.c ****         return SET;
 1251              		.loc 1 507 16
 1252 00ee 8547     		li	a5,1
 1253 00f0 11A0     		j	.L64
 1254              	.L63:
 508:../Firmware/GD32VW55x_standard_peripheral/Source/gd32vw55x_spi.c ****     }else{
 509:../Firmware/GD32VW55x_standard_peripheral/Source/gd32vw55x_spi.c ****         return RESET;
 1255              		.loc 1 509 16
 1256 00f2 8147     		li	a5,0
 1257              	.L64:
 510:../Firmware/GD32VW55x_standard_peripheral/Source/gd32vw55x_spi.c ****     }
 511:../Firmware/GD32VW55x_standard_peripheral/Source/gd32vw55x_spi.c **** }
 1258              		.loc 1 511 1
 1259 00f4 3E85     		mv	a0,a5
 1260 00f6 3254     		lw	s0,44(sp)
 1261              		.cfi_restore 8
 1262              		.cfi_def_cfa 2, 48
 1263 00f8 4561     		addi	sp,sp,48
 1264              		.cfi_def_cfa_offset 0
 1265 00fa 8280     		jr	ra
 1266              		.cfi_endproc
 1267              	.LFE374:
 1269              		.section	.text.spi_flag_get,"ax",@progbits
 1270              		.align	1
 1271              		.globl	spi_flag_get
 1273              	spi_flag_get:
 1274              	.LFB375:
 512:../Firmware/GD32VW55x_standard_peripheral/Source/gd32vw55x_spi.c **** 
 513:../Firmware/GD32VW55x_standard_peripheral/Source/gd32vw55x_spi.c **** /*!
 514:../Firmware/GD32VW55x_standard_peripheral/Source/gd32vw55x_spi.c ****     \brief      get SPI flag status
 515:../Firmware/GD32VW55x_standard_peripheral/Source/gd32vw55x_spi.c ****     \param[in]  flag: SPI flag status
 516:../Firmware/GD32VW55x_standard_peripheral/Source/gd32vw55x_spi.c ****                 only one parameter can be selected which is shown as below:
 517:../Firmware/GD32VW55x_standard_peripheral/Source/gd32vw55x_spi.c ****       \arg        SPI_FLAG_TBE: transmit buffer empty flag
 518:../Firmware/GD32VW55x_standard_peripheral/Source/gd32vw55x_spi.c ****       \arg        SPI_FLAG_RBNE: receive buffer not empty flag
 519:../Firmware/GD32VW55x_standard_peripheral/Source/gd32vw55x_spi.c ****       \arg        SPI_FLAG_TRANS: transmit on-going flag
 520:../Firmware/GD32VW55x_standard_peripheral/Source/gd32vw55x_spi.c ****       \arg        SPI_FLAG_RXORERR: receive overrun error flag
 521:../Firmware/GD32VW55x_standard_peripheral/Source/gd32vw55x_spi.c ****       \arg        SPI_FLAG_CONFERR: mode configuration error flag
 522:../Firmware/GD32VW55x_standard_peripheral/Source/gd32vw55x_spi.c ****       \arg        SPI_FLAG_CRCERR: CRC error flag
 523:../Firmware/GD32VW55x_standard_peripheral/Source/gd32vw55x_spi.c ****       \arg        SPI_FLAG_FERR: format error flag
 524:../Firmware/GD32VW55x_standard_peripheral/Source/gd32vw55x_spi.c ****     \param[out] none
 525:../Firmware/GD32VW55x_standard_peripheral/Source/gd32vw55x_spi.c ****     \retval     FlagStatus: SET or RESET
 526:../Firmware/GD32VW55x_standard_peripheral/Source/gd32vw55x_spi.c **** */
 527:../Firmware/GD32VW55x_standard_peripheral/Source/gd32vw55x_spi.c **** FlagStatus spi_flag_get(uint32_t flag)
 528:../Firmware/GD32VW55x_standard_peripheral/Source/gd32vw55x_spi.c **** {
 1275              		.loc 1 528 1
 1276              		.cfi_startproc
 1277 0000 0111     		addi	sp,sp,-32
 1278              		.cfi_def_cfa_offset 32
 1279 0002 22CE     		sw	s0,28(sp)
 1280              		.cfi_offset 8, -4
 1281 0004 0010     		addi	s0,sp,32
 1282              		.cfi_def_cfa 8, 0
 1283 0006 2326A4FE 		sw	a0,-20(s0)
 529:../Firmware/GD32VW55x_standard_peripheral/Source/gd32vw55x_spi.c ****     if(0U != (SPI_STAT & flag)){
 1284              		.loc 1 529 15
 1285 000a B7370140 		li	a5,1073819648
 1286 000e A107     		addi	a5,a5,8
 1287 0010 9843     		lw	a4,0(a5)
 1288              		.loc 1 529 24
 1289 0012 8327C4FE 		lw	a5,-20(s0)
 1290 0016 F98F     		and	a5,a4,a5
 1291              		.loc 1 529 7
 1292 0018 99C3     		beq	a5,zero,.L67
 530:../Firmware/GD32VW55x_standard_peripheral/Source/gd32vw55x_spi.c ****         return SET;
 1293              		.loc 1 530 16
 1294 001a 8547     		li	a5,1
 1295 001c 11A0     		j	.L68
 1296              	.L67:
 531:../Firmware/GD32VW55x_standard_peripheral/Source/gd32vw55x_spi.c ****     }else{
 532:../Firmware/GD32VW55x_standard_peripheral/Source/gd32vw55x_spi.c ****         return RESET;
 1297              		.loc 1 532 16
 1298 001e 8147     		li	a5,0
 1299              	.L68:
 533:../Firmware/GD32VW55x_standard_peripheral/Source/gd32vw55x_spi.c ****     }
 534:../Firmware/GD32VW55x_standard_peripheral/Source/gd32vw55x_spi.c **** }
 1300              		.loc 1 534 1
 1301 0020 3E85     		mv	a0,a5
 1302 0022 7244     		lw	s0,28(sp)
 1303              		.cfi_restore 8
 1304              		.cfi_def_cfa 2, 32
 1305 0024 0561     		addi	sp,sp,32
 1306              		.cfi_def_cfa_offset 0
 1307 0026 8280     		jr	ra
 1308              		.cfi_endproc
 1309              	.LFE375:
 1311              		.text
 1312              	.Letext0:
 1313              		.file 2 "e:\\gd32\\gd32embeddedbuilder_v1.5.2.30854\\tools\\nuclei_riscv_newlibc_prebuilt_win32_20
 1314              		.file 3 "e:\\gd32\\gd32embeddedbuilder_v1.5.2.30854\\tools\\nuclei_riscv_newlibc_prebuilt_win32_20
 1315              		.file 4 "../Firmware/GD32VW55x_standard_peripheral/gd32vw55x.h"
 1316              		.file 5 "../Firmware/GD32VW55x_standard_peripheral/Include/gd32vw55x_rcu.h"
 1317              		.file 6 "../Firmware/GD32VW55x_standard_peripheral/Include/gd32vw55x_spi.h"