   1              		.file	"gd32vw55x_qspi.c"
   2              		.option nopic
   3              		.attribute arch, "rv32i2p0_m2p0_a2p0_c2p0"
   4              		.attribute unaligned_access, 0
   5              		.attribute stack_align, 16
   6              		.text
   7              	.Ltext0:
   8              		.cfi_sections	.debug_frame
   9              		.section	.text.qspi_deinit,"ax",@progbits
  10              		.align	1
  11              		.globl	qspi_deinit
  13              	qspi_deinit:
  14              	.LFB347:
  15              		.file 1 "../Firmware/GD32VW55x_standard_peripheral/Source/gd32vw55x_qspi.c"
   1:../Firmware/GD32VW55x_standard_peripheral/Source/gd32vw55x_qspi.c **** /*!
   2:../Firmware/GD32VW55x_standard_peripheral/Source/gd32vw55x_qspi.c ****     \file    gd32vw55x_qspi.c
   3:../Firmware/GD32VW55x_standard_peripheral/Source/gd32vw55x_qspi.c ****     \brief   QSPI driver
   4:../Firmware/GD32VW55x_standard_peripheral/Source/gd32vw55x_qspi.c **** 
   5:../Firmware/GD32VW55x_standard_peripheral/Source/gd32vw55x_qspi.c ****     \version 2025-01-16, V1.4.0, firmware for GD32VW55x
   6:../Firmware/GD32VW55x_standard_peripheral/Source/gd32vw55x_qspi.c **** */
   7:../Firmware/GD32VW55x_standard_peripheral/Source/gd32vw55x_qspi.c **** 
   8:../Firmware/GD32VW55x_standard_peripheral/Source/gd32vw55x_qspi.c **** /*
   9:../Firmware/GD32VW55x_standard_peripheral/Source/gd32vw55x_qspi.c ****     Copyright (c) 2025, GigaDevice Semiconductor Inc.
  10:../Firmware/GD32VW55x_standard_peripheral/Source/gd32vw55x_qspi.c **** 
  11:../Firmware/GD32VW55x_standard_peripheral/Source/gd32vw55x_qspi.c ****     Redistribution and use in source and binary forms, with or without modification,
  12:../Firmware/GD32VW55x_standard_peripheral/Source/gd32vw55x_qspi.c **** are permitted provided that the following conditions are met:
  13:../Firmware/GD32VW55x_standard_peripheral/Source/gd32vw55x_qspi.c **** 
  14:../Firmware/GD32VW55x_standard_peripheral/Source/gd32vw55x_qspi.c ****     1. Redistributions of source code must retain the above copyright notice, this
  15:../Firmware/GD32VW55x_standard_peripheral/Source/gd32vw55x_qspi.c ****        list of conditions and the following disclaimer.
  16:../Firmware/GD32VW55x_standard_peripheral/Source/gd32vw55x_qspi.c ****     2. Redistributions in binary form must reproduce the above copyright notice,
  17:../Firmware/GD32VW55x_standard_peripheral/Source/gd32vw55x_qspi.c ****        this list of conditions and the following disclaimer in the documentation
  18:../Firmware/GD32VW55x_standard_peripheral/Source/gd32vw55x_qspi.c ****        and/or other materials provided with the distribution.
  19:../Firmware/GD32VW55x_standard_peripheral/Source/gd32vw55x_qspi.c ****     3. Neither the name of the copyright holder nor the names of its contributors
  20:../Firmware/GD32VW55x_standard_peripheral/Source/gd32vw55x_qspi.c ****        may be used to endorse or promote products derived from this software without
  21:../Firmware/GD32VW55x_standard_peripheral/Source/gd32vw55x_qspi.c ****        specific prior written permission.
  22:../Firmware/GD32VW55x_standard_peripheral/Source/gd32vw55x_qspi.c **** 
  23:../Firmware/GD32VW55x_standard_peripheral/Source/gd32vw55x_qspi.c ****     THIS SOFTWARE IS PROVIDED BY THE COPYRIGHT HOLDERS AND CONTRIBUTORS "AS IS"
  24:../Firmware/GD32VW55x_standard_peripheral/Source/gd32vw55x_qspi.c **** AND ANY EXPRESS OR IMPLIED WARRANTIES, INCLUDING, BUT NOT LIMITED TO, THE IMPLIED
  25:../Firmware/GD32VW55x_standard_peripheral/Source/gd32vw55x_qspi.c **** WARRANTIES OF MERCHANTABILITY AND FITNESS FOR A PARTICULAR PURPOSE ARE DISCLAIMED.
  26:../Firmware/GD32VW55x_standard_peripheral/Source/gd32vw55x_qspi.c **** IN NO EVENT SHALL THE COPYRIGHT HOLDER OR CONTRIBUTORS BE LIABLE FOR ANY DIRECT,
  27:../Firmware/GD32VW55x_standard_peripheral/Source/gd32vw55x_qspi.c **** INDIRECT, INCIDENTAL, SPECIAL, EXEMPLARY, OR CONSEQUENTIAL DAMAGES (INCLUDING, BUT
  28:../Firmware/GD32VW55x_standard_peripheral/Source/gd32vw55x_qspi.c **** NOT LIMITED TO, PROCUREMENT OF SUBSTITUTE GOODS OR SERVICES; LOSS OF USE, DATA, OR
  29:../Firmware/GD32VW55x_standard_peripheral/Source/gd32vw55x_qspi.c **** PROFITS; OR BUSINESS INTERRUPTION) HOWEVER CAUSED AND ON ANY THEORY OF LIABILITY,
  30:../Firmware/GD32VW55x_standard_peripheral/Source/gd32vw55x_qspi.c **** WHETHER IN CONTRACT, STRICT LIABILITY, OR TORT (INCLUDING NEGLIGENCE OR OTHERWISE)
  31:../Firmware/GD32VW55x_standard_peripheral/Source/gd32vw55x_qspi.c **** ARISING IN ANY WAY OUT OF THE USE OF THIS SOFTWARE, EVEN IF ADVISED OF THE POSSIBILITY
  32:../Firmware/GD32VW55x_standard_peripheral/Source/gd32vw55x_qspi.c **** OF SUCH DAMAGE.
  33:../Firmware/GD32VW55x_standard_peripheral/Source/gd32vw55x_qspi.c **** */
  34:../Firmware/GD32VW55x_standard_peripheral/Source/gd32vw55x_qspi.c **** 
  35:../Firmware/GD32VW55x_standard_peripheral/Source/gd32vw55x_qspi.c **** #include "gd32vw55x_qspi.h"
  36:../Firmware/GD32VW55x_standard_peripheral/Source/gd32vw55x_qspi.c **** 
  37:../Firmware/GD32VW55x_standard_peripheral/Source/gd32vw55x_qspi.c **** /* QSPI register bit offset */
  38:../Firmware/GD32VW55x_standard_peripheral/Source/gd32vw55x_qspi.c **** #define CTL_FTL_OFFSET            ((uint32_t)0x00000008U)               /*!< bit offset of FTL in Q
  39:../Firmware/GD32VW55x_standard_peripheral/Source/gd32vw55x_qspi.c **** #define CTL_PSC_OFFSET            ((uint32_t)0x00000018U)               /*!< bit offset of PSC in Q
  40:../Firmware/GD32VW55x_standard_peripheral/Source/gd32vw55x_qspi.c **** #define DCFG_FMSZ_OFFSET          ((uint32_t)0x00000010U)               /*!< bit offset of FMSZ in 
  41:../Firmware/GD32VW55x_standard_peripheral/Source/gd32vw55x_qspi.c **** #define TCFG_DUMYC_OFFSET         ((uint32_t)0x00000012U)               /*!< bit offset of DUMYC in
  42:../Firmware/GD32VW55x_standard_peripheral/Source/gd32vw55x_qspi.c **** 
  43:../Firmware/GD32VW55x_standard_peripheral/Source/gd32vw55x_qspi.c **** /* configure QSPI functional mode */
  44:../Firmware/GD32VW55x_standard_peripheral/Source/gd32vw55x_qspi.c **** static void qspi_config(qspi_command_struct *cmd, uint32_t functionalmode);
  45:../Firmware/GD32VW55x_standard_peripheral/Source/gd32vw55x_qspi.c **** 
  46:../Firmware/GD32VW55x_standard_peripheral/Source/gd32vw55x_qspi.c **** /*!
  47:../Firmware/GD32VW55x_standard_peripheral/Source/gd32vw55x_qspi.c ****     \brief      reset QSPI
  48:../Firmware/GD32VW55x_standard_peripheral/Source/gd32vw55x_qspi.c ****     \param[in]  none
  49:../Firmware/GD32VW55x_standard_peripheral/Source/gd32vw55x_qspi.c ****     \param[out] none
  50:../Firmware/GD32VW55x_standard_peripheral/Source/gd32vw55x_qspi.c ****     \retval     none
  51:../Firmware/GD32VW55x_standard_peripheral/Source/gd32vw55x_qspi.c **** */
  52:../Firmware/GD32VW55x_standard_peripheral/Source/gd32vw55x_qspi.c **** void qspi_deinit(void)
  53:../Firmware/GD32VW55x_standard_peripheral/Source/gd32vw55x_qspi.c **** {
  16              		.loc 1 53 1
  17              		.cfi_startproc
  18 0000 4111     		addi	sp,sp,-16
  19              		.cfi_def_cfa_offset 16
  20 0002 06C6     		sw	ra,12(sp)
  21 0004 22C4     		sw	s0,8(sp)
  22              		.cfi_offset 1, -4
  23              		.cfi_offset 8, -8
  24 0006 0008     		addi	s0,sp,16
  25              		.cfi_def_cfa 8, 0
  54:../Firmware/GD32VW55x_standard_peripheral/Source/gd32vw55x_qspi.c ****     rcu_periph_reset_enable(RCU_QSPIRST);
  26              		.loc 1 54 5
  27 0008 13051060 		li	a0,1537
  28 000c 97000000 		call	rcu_periph_reset_enable
  28      E7800000 
  55:../Firmware/GD32VW55x_standard_peripheral/Source/gd32vw55x_qspi.c ****     rcu_periph_reset_disable(RCU_QSPIRST);
  29              		.loc 1 55 5
  30 0014 13051060 		li	a0,1537
  31 0018 97000000 		call	rcu_periph_reset_disable
  31      E7800000 
  56:../Firmware/GD32VW55x_standard_peripheral/Source/gd32vw55x_qspi.c **** }
  32              		.loc 1 56 1
  33 0020 0100     		nop
  34 0022 B240     		lw	ra,12(sp)
  35              		.cfi_restore 1
  36 0024 2244     		lw	s0,8(sp)
  37              		.cfi_restore 8
  38              		.cfi_def_cfa 2, 16
  39 0026 4101     		addi	sp,sp,16
  40              		.cfi_def_cfa_offset 0
  41 0028 8280     		jr	ra
  42              		.cfi_endproc
  43              	.LFE347:
  45              		.section	.text.qspi_struct_para_init,"ax",@progbits
  46              		.align	1
  47              		.globl	qspi_struct_para_init
  49              	qspi_struct_para_init:
  50              	.LFB348:
  57:../Firmware/GD32VW55x_standard_peripheral/Source/gd32vw55x_qspi.c **** 
  58:../Firmware/GD32VW55x_standard_peripheral/Source/gd32vw55x_qspi.c **** /*!
  59:../Firmware/GD32VW55x_standard_peripheral/Source/gd32vw55x_qspi.c ****     \brief      initialize the parameters of QSPI structure with the default values
  60:../Firmware/GD32VW55x_standard_peripheral/Source/gd32vw55x_qspi.c ****     \param[in]  none
  61:../Firmware/GD32VW55x_standard_peripheral/Source/gd32vw55x_qspi.c ****     \param[out] init_para: QSPI parameter structure
  62:../Firmware/GD32VW55x_standard_peripheral/Source/gd32vw55x_qspi.c ****     \retval     none
  63:../Firmware/GD32VW55x_standard_peripheral/Source/gd32vw55x_qspi.c **** */
  64:../Firmware/GD32VW55x_standard_peripheral/Source/gd32vw55x_qspi.c **** void qspi_struct_para_init(qspi_init_struct *init_para)
  65:../Firmware/GD32VW55x_standard_peripheral/Source/gd32vw55x_qspi.c **** {
  51              		.loc 1 65 1
  52              		.cfi_startproc
  53 0000 0111     		addi	sp,sp,-32
  54              		.cfi_def_cfa_offset 32
  55 0002 22CE     		sw	s0,28(sp)
  56              		.cfi_offset 8, -4
  57 0004 0010     		addi	s0,sp,32
  58              		.cfi_def_cfa 8, 0
  59 0006 2326A4FE 		sw	a0,-20(s0)
  66:../Firmware/GD32VW55x_standard_peripheral/Source/gd32vw55x_qspi.c ****     /* set the QSPI struct with the default values */
  67:../Firmware/GD32VW55x_standard_peripheral/Source/gd32vw55x_qspi.c ****     init_para->clock_mode     = QSPI_CLOCK_MODE_0;
  60              		.loc 1 67 31
  61 000a 8327C4FE 		lw	a5,-20(s0)
  62 000e 23AA0700 		sw	zero,20(a5)
  68:../Firmware/GD32VW55x_standard_peripheral/Source/gd32vw55x_qspi.c ****     init_para->prescaler      = 3U;
  63              		.loc 1 68 31
  64 0012 8327C4FE 		lw	a5,-20(s0)
  65 0016 0D47     		li	a4,3
  66 0018 98C3     		sw	a4,0(a5)
  69:../Firmware/GD32VW55x_standard_peripheral/Source/gd32vw55x_qspi.c ****     init_para->fifo_threshold = 16U;
  67              		.loc 1 69 31
  68 001a 8327C4FE 		lw	a5,-20(s0)
  69 001e 4147     		li	a4,16
  70 0020 D8C3     		sw	a4,4(a5)
  70:../Firmware/GD32VW55x_standard_peripheral/Source/gd32vw55x_qspi.c ****     init_para->sample_shift   = QSPI_SAMPLE_SHIFTING_NONE;
  71              		.loc 1 70 31
  72 0022 8327C4FE 		lw	a5,-20(s0)
  73 0026 23A40700 		sw	zero,8(a5)
  71:../Firmware/GD32VW55x_standard_peripheral/Source/gd32vw55x_qspi.c ****     init_para->flash_size     = 0x1FU;
  74              		.loc 1 71 31
  75 002a 8327C4FE 		lw	a5,-20(s0)
  76 002e 7D47     		li	a4,31
  77 0030 D8C7     		sw	a4,12(a5)
  72:../Firmware/GD32VW55x_standard_peripheral/Source/gd32vw55x_qspi.c ****     init_para->cs_high_time   = QSPI_CS_HIGH_TIME_1_CYCLE;
  78              		.loc 1 72 31
  79 0032 8327C4FE 		lw	a5,-20(s0)
  80 0036 23A80700 		sw	zero,16(a5)
  73:../Firmware/GD32VW55x_standard_peripheral/Source/gd32vw55x_qspi.c **** }
  81              		.loc 1 73 1
  82 003a 0100     		nop
  83 003c 7244     		lw	s0,28(sp)
  84              		.cfi_restore 8
  85              		.cfi_def_cfa 2, 32
  86 003e 0561     		addi	sp,sp,32
  87              		.cfi_def_cfa_offset 0
  88 0040 8280     		jr	ra
  89              		.cfi_endproc
  90              	.LFE348:
  92              		.section	.text.qspi_cmd_struct_para_init,"ax",@progbits
  93              		.align	1
  94              		.globl	qspi_cmd_struct_para_init
  96              	qspi_cmd_struct_para_init:
  97              	.LFB349:
  74:../Firmware/GD32VW55x_standard_peripheral/Source/gd32vw55x_qspi.c **** 
  75:../Firmware/GD32VW55x_standard_peripheral/Source/gd32vw55x_qspi.c **** /*!
  76:../Firmware/GD32VW55x_standard_peripheral/Source/gd32vw55x_qspi.c ****     \brief      initialize the parameters of QSPI command structure with the default values
  77:../Firmware/GD32VW55x_standard_peripheral/Source/gd32vw55x_qspi.c ****     \param[in]  none
  78:../Firmware/GD32VW55x_standard_peripheral/Source/gd32vw55x_qspi.c ****     \param[out] init_para: QSPI command parameter structure
  79:../Firmware/GD32VW55x_standard_peripheral/Source/gd32vw55x_qspi.c ****     \retval     none
  80:../Firmware/GD32VW55x_standard_peripheral/Source/gd32vw55x_qspi.c **** */
  81:../Firmware/GD32VW55x_standard_peripheral/Source/gd32vw55x_qspi.c **** void qspi_cmd_struct_para_init(qspi_command_struct *init_para)
  82:../Firmware/GD32VW55x_standard_peripheral/Source/gd32vw55x_qspi.c **** {
  98              		.loc 1 82 1
  99              		.cfi_startproc
 100 0000 0111     		addi	sp,sp,-32
 101              		.cfi_def_cfa_offset 32
 102 0002 22CE     		sw	s0,28(sp)
 103              		.cfi_offset 8, -4
 104 0004 0010     		addi	s0,sp,32
 105              		.cfi_def_cfa 8, 0
 106 0006 2326A4FE 		sw	a0,-20(s0)
  83:../Firmware/GD32VW55x_standard_peripheral/Source/gd32vw55x_qspi.c ****     /* set the QSPI command struct with the default values */
  84:../Firmware/GD32VW55x_standard_peripheral/Source/gd32vw55x_qspi.c ****     init_para->instruction_mode = QSPI_INSTRUCTION_NONE;
 107              		.loc 1 84 33
 108 000a 8327C4FE 		lw	a5,-20(s0)
 109 000e 23A00700 		sw	zero,0(a5)
  85:../Firmware/GD32VW55x_standard_peripheral/Source/gd32vw55x_qspi.c ****     init_para->instruction      = 0U;
 110              		.loc 1 85 33
 111 0012 8327C4FE 		lw	a5,-20(s0)
 112 0016 23A20700 		sw	zero,4(a5)
  86:../Firmware/GD32VW55x_standard_peripheral/Source/gd32vw55x_qspi.c ****     init_para->addr_mode        = QSPI_ADDR_NONE;
 113              		.loc 1 86 33
 114 001a 8327C4FE 		lw	a5,-20(s0)
 115 001e 23A40700 		sw	zero,8(a5)
  87:../Firmware/GD32VW55x_standard_peripheral/Source/gd32vw55x_qspi.c ****     init_para->addr_size        = QSPI_ADDR_8_BITS;
 116              		.loc 1 87 33
 117 0022 8327C4FE 		lw	a5,-20(s0)
 118 0026 23A60700 		sw	zero,12(a5)
  88:../Firmware/GD32VW55x_standard_peripheral/Source/gd32vw55x_qspi.c ****     init_para->addr             = 0U;
 119              		.loc 1 88 33
 120 002a 8327C4FE 		lw	a5,-20(s0)
 121 002e 23A80700 		sw	zero,16(a5)
  89:../Firmware/GD32VW55x_standard_peripheral/Source/gd32vw55x_qspi.c ****     init_para->altebytes_mode   = QSPI_ALTE_BYTES_NONE;
 122              		.loc 1 89 33
 123 0032 8327C4FE 		lw	a5,-20(s0)
 124 0036 23AA0700 		sw	zero,20(a5)
  90:../Firmware/GD32VW55x_standard_peripheral/Source/gd32vw55x_qspi.c ****     init_para->altebytes_size   = QSPI_ALTE_BYTES_8_BITS;
 125              		.loc 1 90 33
 126 003a 8327C4FE 		lw	a5,-20(s0)
 127 003e 23AC0700 		sw	zero,24(a5)
  91:../Firmware/GD32VW55x_standard_peripheral/Source/gd32vw55x_qspi.c ****     init_para->altebytes        = 0U;
 128              		.loc 1 91 33
 129 0042 8327C4FE 		lw	a5,-20(s0)
 130 0046 23AE0700 		sw	zero,28(a5)
  92:../Firmware/GD32VW55x_standard_peripheral/Source/gd32vw55x_qspi.c ****     init_para->dummycycles      = 0U;
 131              		.loc 1 92 33
 132 004a 8327C4FE 		lw	a5,-20(s0)
 133 004e 23A00702 		sw	zero,32(a5)
  93:../Firmware/GD32VW55x_standard_peripheral/Source/gd32vw55x_qspi.c ****     init_para->data_mode        = QSPI_DATA_NONE;
 134              		.loc 1 93 33
 135 0052 8327C4FE 		lw	a5,-20(s0)
 136 0056 23A20702 		sw	zero,36(a5)
  94:../Firmware/GD32VW55x_standard_peripheral/Source/gd32vw55x_qspi.c ****     init_para->data_length      = 0U;
 137              		.loc 1 94 33
 138 005a 8327C4FE 		lw	a5,-20(s0)
 139 005e 23A40702 		sw	zero,40(a5)
  95:../Firmware/GD32VW55x_standard_peripheral/Source/gd32vw55x_qspi.c ****     init_para->sioo_mode        = QSPI_SIOO_INST_EVERY_CMD;
 140              		.loc 1 95 33
 141 0062 8327C4FE 		lw	a5,-20(s0)
 142 0066 23A60702 		sw	zero,44(a5)
  96:../Firmware/GD32VW55x_standard_peripheral/Source/gd32vw55x_qspi.c **** }
 143              		.loc 1 96 1
 144 006a 0100     		nop
 145 006c 7244     		lw	s0,28(sp)
 146              		.cfi_restore 8
 147              		.cfi_def_cfa 2, 32
 148 006e 0561     		addi	sp,sp,32
 149              		.cfi_def_cfa_offset 0
 150 0070 8280     		jr	ra
 151              		.cfi_endproc
 152              	.LFE349:
 154              		.section	.text.qspi_polling_struct_para_init,"ax",@progbits
 155              		.align	1
 156              		.globl	qspi_polling_struct_para_init
 158              	qspi_polling_struct_para_init:
 159              	.LFB350:
  97:../Firmware/GD32VW55x_standard_peripheral/Source/gd32vw55x_qspi.c **** 
  98:../Firmware/GD32VW55x_standard_peripheral/Source/gd32vw55x_qspi.c **** /*!
  99:../Firmware/GD32VW55x_standard_peripheral/Source/gd32vw55x_qspi.c ****     \brief      initialize the parameters of QSPI read polling structure with the default values
 100:../Firmware/GD32VW55x_standard_peripheral/Source/gd32vw55x_qspi.c ****     \param[in]  none
 101:../Firmware/GD32VW55x_standard_peripheral/Source/gd32vw55x_qspi.c ****     \param[out] init_para: QSPI read polling parameter structure
 102:../Firmware/GD32VW55x_standard_peripheral/Source/gd32vw55x_qspi.c ****     \retval     none
 103:../Firmware/GD32VW55x_standard_peripheral/Source/gd32vw55x_qspi.c **** */
 104:../Firmware/GD32VW55x_standard_peripheral/Source/gd32vw55x_qspi.c **** void qspi_polling_struct_para_init(qspi_polling_struct *init_para)
 105:../Firmware/GD32VW55x_standard_peripheral/Source/gd32vw55x_qspi.c **** {
 160              		.loc 1 105 1
 161              		.cfi_startproc
 162 0000 0111     		addi	sp,sp,-32
 163              		.cfi_def_cfa_offset 32
 164 0002 22CE     		sw	s0,28(sp)
 165              		.cfi_offset 8, -4
 166 0004 0010     		addi	s0,sp,32
 167              		.cfi_def_cfa 8, 0
 168 0006 2326A4FE 		sw	a0,-20(s0)
 106:../Firmware/GD32VW55x_standard_peripheral/Source/gd32vw55x_qspi.c ****     /* set the QSPI read polling struct with the default values */
 107:../Firmware/GD32VW55x_standard_peripheral/Source/gd32vw55x_qspi.c ****     init_para->match            = 0U;
 169              		.loc 1 107 33
 170 000a 8327C4FE 		lw	a5,-20(s0)
 171 000e 23A00700 		sw	zero,0(a5)
 108:../Firmware/GD32VW55x_standard_peripheral/Source/gd32vw55x_qspi.c ****     init_para->mask             = 0U;
 172              		.loc 1 108 33
 173 0012 8327C4FE 		lw	a5,-20(s0)
 174 0016 23A20700 		sw	zero,4(a5)
 109:../Firmware/GD32VW55x_standard_peripheral/Source/gd32vw55x_qspi.c ****     init_para->interval         = 0U;
 175              		.loc 1 109 33
 176 001a 8327C4FE 		lw	a5,-20(s0)
 177 001e 23A40700 		sw	zero,8(a5)
 110:../Firmware/GD32VW55x_standard_peripheral/Source/gd32vw55x_qspi.c ****     init_para->statusbytes_size = 1U;
 178              		.loc 1 110 33
 179 0022 8327C4FE 		lw	a5,-20(s0)
 180 0026 0547     		li	a4,1
 181 0028 D8C7     		sw	a4,12(a5)
 111:../Firmware/GD32VW55x_standard_peripheral/Source/gd32vw55x_qspi.c ****     init_para->match_mode       = QSPI_MATCH_MODE_AND;
 182              		.loc 1 111 33
 183 002a 8327C4FE 		lw	a5,-20(s0)
 184 002e 23A80700 		sw	zero,16(a5)
 112:../Firmware/GD32VW55x_standard_peripheral/Source/gd32vw55x_qspi.c ****     init_para->polling_stop     = QSPI_POLLING_STOP_DISABLE;
 185              		.loc 1 112 33
 186 0032 8327C4FE 		lw	a5,-20(s0)
 187 0036 23AA0700 		sw	zero,20(a5)
 113:../Firmware/GD32VW55x_standard_peripheral/Source/gd32vw55x_qspi.c **** }
 188              		.loc 1 113 1
 189 003a 0100     		nop
 190 003c 7244     		lw	s0,28(sp)
 191              		.cfi_restore 8
 192              		.cfi_def_cfa 2, 32
 193 003e 0561     		addi	sp,sp,32
 194              		.cfi_def_cfa_offset 0
 195 0040 8280     		jr	ra
 196              		.cfi_endproc
 197              	.LFE350:
 199              		.section	.text.qspi_init,"ax",@progbits
 200              		.align	1
 201              		.globl	qspi_init
 203              	qspi_init:
 204              	.LFB351:
 114:../Firmware/GD32VW55x_standard_peripheral/Source/gd32vw55x_qspi.c **** 
 115:../Firmware/GD32VW55x_standard_peripheral/Source/gd32vw55x_qspi.c **** /*!
 116:../Firmware/GD32VW55x_standard_peripheral/Source/gd32vw55x_qspi.c ****     \brief      initialize QSPI
 117:../Firmware/GD32VW55x_standard_peripheral/Source/gd32vw55x_qspi.c ****     \param[in]  qspi_struct: QSPI parameter initialization structure
 118:../Firmware/GD32VW55x_standard_peripheral/Source/gd32vw55x_qspi.c ****                             and the member values are shown as below:
 119:../Firmware/GD32VW55x_standard_peripheral/Source/gd32vw55x_qspi.c ****                   prescaler: between 0 and 255
 120:../Firmware/GD32VW55x_standard_peripheral/Source/gd32vw55x_qspi.c ****                   fifo_threshold: between 1 and 16
 121:../Firmware/GD32VW55x_standard_peripheral/Source/gd32vw55x_qspi.c ****                   sample_shift: QSPI_SAMPLE_SHIFTING_NONE, QSPI_SAMPLE_SHIFTING_HALFCYCLE, QSPI_SAM
 122:../Firmware/GD32VW55x_standard_peripheral/Source/gd32vw55x_qspi.c ****                   flash_size: between 0 and 28
 123:../Firmware/GD32VW55x_standard_peripheral/Source/gd32vw55x_qspi.c ****                   cs_high_time: QSPI_CS_HIGH_TIME_1_CYCLE, QSPI_CS_HIGH_TIME_2_CYCLE, QSPI_CS_HIGH_
 124:../Firmware/GD32VW55x_standard_peripheral/Source/gd32vw55x_qspi.c ****                                 QSPI_CS_HIGH_TIME_4_CYCLE, QSPI_CS_HIGH_TIME_5_CYCLE, QSPI_CS_HIGH_
 125:../Firmware/GD32VW55x_standard_peripheral/Source/gd32vw55x_qspi.c ****                                 QSPI_CS_HIGH_TIME_7_CYCLE, QSPI_CS_HIGH_TIME_8_CYCLE
 126:../Firmware/GD32VW55x_standard_peripheral/Source/gd32vw55x_qspi.c ****                   clock_mode: QSPI_CLOCK_MODE_0, QSPI_CLOCK_MODE_3
 127:../Firmware/GD32VW55x_standard_peripheral/Source/gd32vw55x_qspi.c ****     \param[out] none
 128:../Firmware/GD32VW55x_standard_peripheral/Source/gd32vw55x_qspi.c ****     \retval     none
 129:../Firmware/GD32VW55x_standard_peripheral/Source/gd32vw55x_qspi.c **** */
 130:../Firmware/GD32VW55x_standard_peripheral/Source/gd32vw55x_qspi.c **** void qspi_init(qspi_init_struct *qspi_struct)
 131:../Firmware/GD32VW55x_standard_peripheral/Source/gd32vw55x_qspi.c **** {
 205              		.loc 1 131 1
 206              		.cfi_startproc
 207 0000 0111     		addi	sp,sp,-32
 208              		.cfi_def_cfa_offset 32
 209 0002 22CE     		sw	s0,28(sp)
 210              		.cfi_offset 8, -4
 211 0004 0010     		addi	s0,sp,32
 212              		.cfi_def_cfa 8, 0
 213 0006 2326A4FE 		sw	a0,-20(s0)
 132:../Firmware/GD32VW55x_standard_peripheral/Source/gd32vw55x_qspi.c ****     /* configure prescaler, sample_shift, fifo_threshold */
 133:../Firmware/GD32VW55x_standard_peripheral/Source/gd32vw55x_qspi.c ****     QSPI_CTL &= ~(QSPI_CTL_PSC | QSPI_CTL_SSAMPLE | QSPI_CTL_FTL);
 214              		.loc 1 133 14
 215 000a B7670240 		li	a5,1073897472
 216 000e 93870780 		addi	a5,a5,-2048
 217 0012 9443     		lw	a3,0(a5)
 218 0014 B7670240 		li	a5,1073897472
 219 0018 93870780 		addi	a5,a5,-2048
 220 001c 37F7FF00 		li	a4,16773120
 221 0020 1307F70C 		addi	a4,a4,207
 222 0024 758F     		and	a4,a3,a4
 223 0026 98C3     		sw	a4,0(a5)
 134:../Firmware/GD32VW55x_standard_peripheral/Source/gd32vw55x_qspi.c ****     QSPI_CTL |= (qspi_struct->prescaler << CTL_PSC_OFFSET) | qspi_struct->sample_shift | ((qspi_str
 224              		.loc 1 134 14
 225 0028 B7670240 		li	a5,1073897472
 226 002c 93870780 		addi	a5,a5,-2048
 227 0030 9443     		lw	a3,0(a5)
 228              		.loc 1 134 29
 229 0032 8327C4FE 		lw	a5,-20(s0)
 230 0036 9C43     		lw	a5,0(a5)
 231              		.loc 1 134 41
 232 0038 13978701 		slli	a4,a5,24
 233              		.loc 1 134 73
 234 003c 8327C4FE 		lw	a5,-20(s0)
 235 0040 9C47     		lw	a5,8(a5)
 236              		.loc 1 134 60
 237 0042 5D8F     		or	a4,a4,a5
 238              		.loc 1 134 103
 239 0044 8327C4FE 		lw	a5,-20(s0)
 240 0048 DC43     		lw	a5,4(a5)
 241              		.loc 1 134 120
 242 004a FD17     		addi	a5,a5,-1
 243              		.loc 1 134 126
 244 004c A207     		slli	a5,a5,8
 245              		.loc 1 134 88
 246 004e 5D8F     		or	a4,a4,a5
 247              		.loc 1 134 14
 248 0050 B7670240 		li	a5,1073897472
 249 0054 93870780 		addi	a5,a5,-2048
 250 0058 558F     		or	a4,a3,a4
 251 005a 98C3     		sw	a4,0(a5)
 135:../Firmware/GD32VW55x_standard_peripheral/Source/gd32vw55x_qspi.c **** 
 136:../Firmware/GD32VW55x_standard_peripheral/Source/gd32vw55x_qspi.c ****     /* configure flash_size, cs_high_time, clock_mode */
 137:../Firmware/GD32VW55x_standard_peripheral/Source/gd32vw55x_qspi.c ****     QSPI_DCFG &= ~((QSPI_DCFG_FMSZ) | QSPI_CS_HIGH_TIME_8_CYCLE | QSPI_DCFG_CKMOD);
 252              		.loc 1 137 15
 253 005c B7670240 		li	a5,1073897472
 254 0060 93874780 		addi	a5,a5,-2044
 255 0064 9443     		lw	a3,0(a5)
 256 0066 B7670240 		li	a5,1073897472
 257 006a 93874780 		addi	a5,a5,-2044
 258 006e 3707E1FF 		li	a4,-2031616
 259 0072 1307E78F 		addi	a4,a4,-1794
 260 0076 758F     		and	a4,a3,a4
 261 0078 98C3     		sw	a4,0(a5)
 138:../Firmware/GD32VW55x_standard_peripheral/Source/gd32vw55x_qspi.c ****     QSPI_DCFG |= ((qspi_struct->flash_size << DCFG_FMSZ_OFFSET) | qspi_struct->cs_high_time | qspi_
 262              		.loc 1 138 15
 263 007a B7670240 		li	a5,1073897472
 264 007e 93874780 		addi	a5,a5,-2044
 265 0082 9443     		lw	a3,0(a5)
 266              		.loc 1 138 31
 267 0084 8327C4FE 		lw	a5,-20(s0)
 268 0088 DC47     		lw	a5,12(a5)
 269              		.loc 1 138 44
 270 008a 13970701 		slli	a4,a5,16
 271              		.loc 1 138 78
 272 008e 8327C4FE 		lw	a5,-20(s0)
 273 0092 9C4B     		lw	a5,16(a5)
 274              		.loc 1 138 65
 275 0094 5D8F     		or	a4,a4,a5
 276              		.loc 1 138 106
 277 0096 8327C4FE 		lw	a5,-20(s0)
 278 009a DC4B     		lw	a5,20(a5)
 279              		.loc 1 138 93
 280 009c 5D8F     		or	a4,a4,a5
 281              		.loc 1 138 15
 282 009e B7670240 		li	a5,1073897472
 283 00a2 93874780 		addi	a5,a5,-2044
 284 00a6 558F     		or	a4,a3,a4
 285 00a8 98C3     		sw	a4,0(a5)
 139:../Firmware/GD32VW55x_standard_peripheral/Source/gd32vw55x_qspi.c **** }
 286              		.loc 1 139 1
 287 00aa 0100     		nop
 288 00ac 7244     		lw	s0,28(sp)
 289              		.cfi_restore 8
 290              		.cfi_def_cfa 2, 32
 291 00ae 0561     		addi	sp,sp,32
 292              		.cfi_def_cfa_offset 0
 293 00b0 8280     		jr	ra
 294              		.cfi_endproc
 295              	.LFE351:
 297              		.section	.text.qspi_enable,"ax",@progbits
 298              		.align	1
 299              		.globl	qspi_enable
 301              	qspi_enable:
 302              	.LFB352:
 140:../Firmware/GD32VW55x_standard_peripheral/Source/gd32vw55x_qspi.c **** 
 141:../Firmware/GD32VW55x_standard_peripheral/Source/gd32vw55x_qspi.c **** /*!
 142:../Firmware/GD32VW55x_standard_peripheral/Source/gd32vw55x_qspi.c ****     \brief      enable QSPI
 143:../Firmware/GD32VW55x_standard_peripheral/Source/gd32vw55x_qspi.c ****     \param[in]  none
 144:../Firmware/GD32VW55x_standard_peripheral/Source/gd32vw55x_qspi.c ****     \param[out] none
 145:../Firmware/GD32VW55x_standard_peripheral/Source/gd32vw55x_qspi.c ****     \retval     none
 146:../Firmware/GD32VW55x_standard_peripheral/Source/gd32vw55x_qspi.c **** */
 147:../Firmware/GD32VW55x_standard_peripheral/Source/gd32vw55x_qspi.c **** void qspi_enable(void)
 148:../Firmware/GD32VW55x_standard_peripheral/Source/gd32vw55x_qspi.c **** {
 303              		.loc 1 148 1
 304              		.cfi_startproc
 305 0000 4111     		addi	sp,sp,-16
 306              		.cfi_def_cfa_offset 16
 307 0002 22C6     		sw	s0,12(sp)
 308              		.cfi_offset 8, -4
 309 0004 0008     		addi	s0,sp,16
 310              		.cfi_def_cfa 8, 0
 149:../Firmware/GD32VW55x_standard_peripheral/Source/gd32vw55x_qspi.c ****     QSPI_CTL |= (uint32_t)QSPI_CTL_QSPIEN;
 311              		.loc 1 149 14
 312 0006 B7670240 		li	a5,1073897472
 313 000a 93870780 		addi	a5,a5,-2048
 314 000e 9843     		lw	a4,0(a5)
 315 0010 B7670240 		li	a5,1073897472
 316 0014 93870780 		addi	a5,a5,-2048
 317 0018 13671700 		ori	a4,a4,1
 318 001c 98C3     		sw	a4,0(a5)
 150:../Firmware/GD32VW55x_standard_peripheral/Source/gd32vw55x_qspi.c **** }
 319              		.loc 1 150 1
 320 001e 0100     		nop
 321 0020 3244     		lw	s0,12(sp)
 322              		.cfi_restore 8
 323              		.cfi_def_cfa 2, 16
 324 0022 4101     		addi	sp,sp,16
 325              		.cfi_def_cfa_offset 0
 326 0024 8280     		jr	ra
 327              		.cfi_endproc
 328              	.LFE352:
 330              		.section	.text.qspi_disable,"ax",@progbits
 331              		.align	1
 332              		.globl	qspi_disable
 334              	qspi_disable:
 335              	.LFB353:
 151:../Firmware/GD32VW55x_standard_peripheral/Source/gd32vw55x_qspi.c **** 
 152:../Firmware/GD32VW55x_standard_peripheral/Source/gd32vw55x_qspi.c **** /*!
 153:../Firmware/GD32VW55x_standard_peripheral/Source/gd32vw55x_qspi.c ****     \brief      disable QSPI
 154:../Firmware/GD32VW55x_standard_peripheral/Source/gd32vw55x_qspi.c ****     \param[in]  none
 155:../Firmware/GD32VW55x_standard_peripheral/Source/gd32vw55x_qspi.c ****     \param[out] none
 156:../Firmware/GD32VW55x_standard_peripheral/Source/gd32vw55x_qspi.c ****     \retval     none
 157:../Firmware/GD32VW55x_standard_peripheral/Source/gd32vw55x_qspi.c **** */
 158:../Firmware/GD32VW55x_standard_peripheral/Source/gd32vw55x_qspi.c **** void qspi_disable(void)
 159:../Firmware/GD32VW55x_standard_peripheral/Source/gd32vw55x_qspi.c **** {
 336              		.loc 1 159 1
 337              		.cfi_startproc
 338 0000 4111     		addi	sp,sp,-16
 339              		.cfi_def_cfa_offset 16
 340 0002 22C6     		sw	s0,12(sp)
 341              		.cfi_offset 8, -4
 342 0004 0008     		addi	s0,sp,16
 343              		.cfi_def_cfa 8, 0
 160:../Firmware/GD32VW55x_standard_peripheral/Source/gd32vw55x_qspi.c ****     QSPI_CTL &= (uint32_t)(~QSPI_CTL_QSPIEN);
 344              		.loc 1 160 14
 345 0006 B7670240 		li	a5,1073897472
 346 000a 93870780 		addi	a5,a5,-2048
 347 000e 9843     		lw	a4,0(a5)
 348 0010 B7670240 		li	a5,1073897472
 349 0014 93870780 		addi	a5,a5,-2048
 350 0018 799B     		andi	a4,a4,-2
 351 001a 98C3     		sw	a4,0(a5)
 161:../Firmware/GD32VW55x_standard_peripheral/Source/gd32vw55x_qspi.c **** }
 352              		.loc 1 161 1
 353 001c 0100     		nop
 354 001e 3244     		lw	s0,12(sp)
 355              		.cfi_restore 8
 356              		.cfi_def_cfa 2, 16
 357 0020 4101     		addi	sp,sp,16
 358              		.cfi_def_cfa_offset 0
 359 0022 8280     		jr	ra
 360              		.cfi_endproc
 361              	.LFE353:
 363              		.section	.text.qspi_dma_enable,"ax",@progbits
 364              		.align	1
 365              		.globl	qspi_dma_enable
 367              	qspi_dma_enable:
 368              	.LFB354:
 162:../Firmware/GD32VW55x_standard_peripheral/Source/gd32vw55x_qspi.c **** 
 163:../Firmware/GD32VW55x_standard_peripheral/Source/gd32vw55x_qspi.c **** /*!
 164:../Firmware/GD32VW55x_standard_peripheral/Source/gd32vw55x_qspi.c ****     \brief      enable QSPI DMA
 165:../Firmware/GD32VW55x_standard_peripheral/Source/gd32vw55x_qspi.c ****     \param[in]  none
 166:../Firmware/GD32VW55x_standard_peripheral/Source/gd32vw55x_qspi.c ****     \param[out] none
 167:../Firmware/GD32VW55x_standard_peripheral/Source/gd32vw55x_qspi.c ****     \retval     none
 168:../Firmware/GD32VW55x_standard_peripheral/Source/gd32vw55x_qspi.c **** */
 169:../Firmware/GD32VW55x_standard_peripheral/Source/gd32vw55x_qspi.c **** void qspi_dma_enable(void)
 170:../Firmware/GD32VW55x_standard_peripheral/Source/gd32vw55x_qspi.c **** {
 369              		.loc 1 170 1
 370              		.cfi_startproc
 371 0000 4111     		addi	sp,sp,-16
 372              		.cfi_def_cfa_offset 16
 373 0002 22C6     		sw	s0,12(sp)
 374              		.cfi_offset 8, -4
 375 0004 0008     		addi	s0,sp,16
 376              		.cfi_def_cfa 8, 0
 171:../Firmware/GD32VW55x_standard_peripheral/Source/gd32vw55x_qspi.c ****     QSPI_CTL |= (uint32_t)(QSPI_CTL_DMAEN);
 377              		.loc 1 171 14
 378 0006 B7670240 		li	a5,1073897472
 379 000a 93870780 		addi	a5,a5,-2048
 380 000e 9843     		lw	a4,0(a5)
 381 0010 B7670240 		li	a5,1073897472
 382 0014 93870780 		addi	a5,a5,-2048
 383 0018 13674700 		ori	a4,a4,4
 384 001c 98C3     		sw	a4,0(a5)
 172:../Firmware/GD32VW55x_standard_peripheral/Source/gd32vw55x_qspi.c **** }
 385              		.loc 1 172 1
 386 001e 0100     		nop
 387 0020 3244     		lw	s0,12(sp)
 388              		.cfi_restore 8
 389              		.cfi_def_cfa 2, 16
 390 0022 4101     		addi	sp,sp,16
 391              		.cfi_def_cfa_offset 0
 392 0024 8280     		jr	ra
 393              		.cfi_endproc
 394              	.LFE354:
 396              		.section	.text.qspi_dma_disable,"ax",@progbits
 397              		.align	1
 398              		.globl	qspi_dma_disable
 400              	qspi_dma_disable:
 401              	.LFB355:
 173:../Firmware/GD32VW55x_standard_peripheral/Source/gd32vw55x_qspi.c **** 
 174:../Firmware/GD32VW55x_standard_peripheral/Source/gd32vw55x_qspi.c **** /*!
 175:../Firmware/GD32VW55x_standard_peripheral/Source/gd32vw55x_qspi.c ****     \brief      disable QSPI DMA
 176:../Firmware/GD32VW55x_standard_peripheral/Source/gd32vw55x_qspi.c ****     \param[in]  none
 177:../Firmware/GD32VW55x_standard_peripheral/Source/gd32vw55x_qspi.c ****     \param[out] none
 178:../Firmware/GD32VW55x_standard_peripheral/Source/gd32vw55x_qspi.c ****     \retval     none
 179:../Firmware/GD32VW55x_standard_peripheral/Source/gd32vw55x_qspi.c **** */
 180:../Firmware/GD32VW55x_standard_peripheral/Source/gd32vw55x_qspi.c **** void qspi_dma_disable(void)
 181:../Firmware/GD32VW55x_standard_peripheral/Source/gd32vw55x_qspi.c **** {
 402              		.loc 1 181 1
 403              		.cfi_startproc
 404 0000 4111     		addi	sp,sp,-16
 405              		.cfi_def_cfa_offset 16
 406 0002 22C6     		sw	s0,12(sp)
 407              		.cfi_offset 8, -4
 408 0004 0008     		addi	s0,sp,16
 409              		.cfi_def_cfa 8, 0
 182:../Firmware/GD32VW55x_standard_peripheral/Source/gd32vw55x_qspi.c ****     QSPI_CTL &= (uint32_t)(~QSPI_CTL_DMAEN);
 410              		.loc 1 182 14
 411 0006 B7670240 		li	a5,1073897472
 412 000a 93870780 		addi	a5,a5,-2048
 413 000e 9843     		lw	a4,0(a5)
 414 0010 B7670240 		li	a5,1073897472
 415 0014 93870780 		addi	a5,a5,-2048
 416 0018 6D9B     		andi	a4,a4,-5
 417 001a 98C3     		sw	a4,0(a5)
 183:../Firmware/GD32VW55x_standard_peripheral/Source/gd32vw55x_qspi.c **** }
 418              		.loc 1 183 1
 419 001c 0100     		nop
 420 001e 3244     		lw	s0,12(sp)
 421              		.cfi_restore 8
 422              		.cfi_def_cfa 2, 16
 423 0020 4101     		addi	sp,sp,16
 424              		.cfi_def_cfa_offset 0
 425 0022 8280     		jr	ra
 426              		.cfi_endproc
 427              	.LFE355:
 429              		.section	.text.qspi_command_config,"ax",@progbits
 430              		.align	1
 431              		.globl	qspi_command_config
 433              	qspi_command_config:
 434              	.LFB356:
 184:../Firmware/GD32VW55x_standard_peripheral/Source/gd32vw55x_qspi.c **** 
 185:../Firmware/GD32VW55x_standard_peripheral/Source/gd32vw55x_qspi.c **** /*!
 186:../Firmware/GD32VW55x_standard_peripheral/Source/gd32vw55x_qspi.c ****     \brief      configure QSPI command parameters
 187:../Firmware/GD32VW55x_standard_peripheral/Source/gd32vw55x_qspi.c ****     \param[in]  cmd: QSPI command parameter structure
 188:../Firmware/GD32VW55x_standard_peripheral/Source/gd32vw55x_qspi.c ****                              and the member values are shown as below:
 189:../Firmware/GD32VW55x_standard_peripheral/Source/gd32vw55x_qspi.c ****                   instruction_mode: QSPI_INSTRUCTION_NONE, QSPI_INSTRUCTION_1_LINE,
 190:../Firmware/GD32VW55x_standard_peripheral/Source/gd32vw55x_qspi.c ****                                     QSPI_INSTRUCTION_2_LINES, QSPI_INSTRUCTION_4_LINES
 191:../Firmware/GD32VW55x_standard_peripheral/Source/gd32vw55x_qspi.c ****                   instruction: reference flash commands description
 192:../Firmware/GD32VW55x_standard_peripheral/Source/gd32vw55x_qspi.c ****                   addr_mode: QSPI_ADDR_NONE, QSPI_ADDR_1_LINE, QSPI_ADDR_2_LINES, QSPI_ADDR_4_LINES
 193:../Firmware/GD32VW55x_standard_peripheral/Source/gd32vw55x_qspi.c ****                   addr_size: QSPI_ADDR_8_BITS, QSPI_ADDR_16_BITS, QSPI_ADDR_24_BITS, QSPI_ADDR_32_B
 194:../Firmware/GD32VW55x_standard_peripheral/Source/gd32vw55x_qspi.c ****                   addr: 0-flash size
 195:../Firmware/GD32VW55x_standard_peripheral/Source/gd32vw55x_qspi.c ****                   altebytes_mode: QSPI_ALTE_BYTES_NONE, QSPI_ALTE_BYTES_1_LINE,
 196:../Firmware/GD32VW55x_standard_peripheral/Source/gd32vw55x_qspi.c ****                                   QSPI_ALTE_BYTES_2_LINES, QSPI_ALTE_BYTES_4_LINES
 197:../Firmware/GD32VW55x_standard_peripheral/Source/gd32vw55x_qspi.c ****                   altebytes_size: QSPI_ALTE_BYTES_8_BITS, QSPI_ALTE_BYTES_16_BITS,
 198:../Firmware/GD32VW55x_standard_peripheral/Source/gd32vw55x_qspi.c ****                                   QSPI_ALTE_BYTES_24_BITS, QSPI_ALTE_BYTES_32_BITS
 199:../Firmware/GD32VW55x_standard_peripheral/Source/gd32vw55x_qspi.c ****                   altebytes: 0-0xFFFFFFFF
 200:../Firmware/GD32VW55x_standard_peripheral/Source/gd32vw55x_qspi.c ****                   dummycycles: between 0 and 31
 201:../Firmware/GD32VW55x_standard_peripheral/Source/gd32vw55x_qspi.c ****                   data_mode: QSPI_DATA_NONE, QSPI_DATA_1_LINE, QSPI_DATA_2_LINES, QSPI_DATA_4_LINES
 202:../Firmware/GD32VW55x_standard_peripheral/Source/gd32vw55x_qspi.c ****                   data_length: 0-0xFFFFFFFF
 203:../Firmware/GD32VW55x_standard_peripheral/Source/gd32vw55x_qspi.c ****                   sioo_mode: QSPI_SIOO_INST_EVERY_CMD, QSPI_SIOO_INST_ONLY_FIRST_CMD
 204:../Firmware/GD32VW55x_standard_peripheral/Source/gd32vw55x_qspi.c ****     \param[out] none
 205:../Firmware/GD32VW55x_standard_peripheral/Source/gd32vw55x_qspi.c ****     \retval     none
 206:../Firmware/GD32VW55x_standard_peripheral/Source/gd32vw55x_qspi.c **** */
 207:../Firmware/GD32VW55x_standard_peripheral/Source/gd32vw55x_qspi.c **** void qspi_command_config(qspi_command_struct *cmd)
 208:../Firmware/GD32VW55x_standard_peripheral/Source/gd32vw55x_qspi.c **** {
 435              		.loc 1 208 1
 436              		.cfi_startproc
 437 0000 0111     		addi	sp,sp,-32
 438              		.cfi_def_cfa_offset 32
 439 0002 06CE     		sw	ra,28(sp)
 440 0004 22CC     		sw	s0,24(sp)
 441              		.cfi_offset 1, -4
 442              		.cfi_offset 8, -8
 443 0006 0010     		addi	s0,sp,32
 444              		.cfi_def_cfa 8, 0
 445 0008 2326A4FE 		sw	a0,-20(s0)
 209:../Firmware/GD32VW55x_standard_peripheral/Source/gd32vw55x_qspi.c ****     /* call the configuration function */
 210:../Firmware/GD32VW55x_standard_peripheral/Source/gd32vw55x_qspi.c ****     qspi_config(cmd, QSPI_NORMAL_WRITE);
 446              		.loc 1 210 5
 447 000c 8145     		li	a1,0
 448 000e 0325C4FE 		lw	a0,-20(s0)
 449 0012 97000000 		call	qspi_config
 449      E7800000 
 211:../Firmware/GD32VW55x_standard_peripheral/Source/gd32vw55x_qspi.c **** 
 212:../Firmware/GD32VW55x_standard_peripheral/Source/gd32vw55x_qspi.c ****     if(cmd->data_mode == QSPI_DATA_NONE) {
 450              		.loc 1 212 11
 451 001a 8327C4FE 		lw	a5,-20(s0)
 452 001e DC53     		lw	a5,36(a5)
 453              		.loc 1 212 7
 454 0020 99EF     		bne	a5,zero,.L13
 213:../Firmware/GD32VW55x_standard_peripheral/Source/gd32vw55x_qspi.c ****         /* when there is no data phase, the transfer start as soon as the configuration is done
 214:../Firmware/GD32VW55x_standard_peripheral/Source/gd32vw55x_qspi.c ****         so wait until TC flag is set to go back in idle state */
 215:../Firmware/GD32VW55x_standard_peripheral/Source/gd32vw55x_qspi.c ****         while((QSPI_STAT & QSPI_FLAG_TC) == 0U) {
 455              		.loc 1 215 14
 456 0022 0100     		nop
 457              	.L12:
 458              		.loc 1 215 16 discriminator 1
 459 0024 B7670240 		li	a5,1073897472
 460 0028 93878780 		addi	a5,a5,-2040
 461 002c 9C43     		lw	a5,0(a5)
 462              		.loc 1 215 26 discriminator 1
 463 002e 898B     		andi	a5,a5,2
 464              		.loc 1 215 14 discriminator 1
 465 0030 F5DB     		beq	a5,zero,.L12
 216:../Firmware/GD32VW55x_standard_peripheral/Source/gd32vw55x_qspi.c ****         }
 217:../Firmware/GD32VW55x_standard_peripheral/Source/gd32vw55x_qspi.c ****         QSPI_STATC = QSPI_STATC_TCC;
 466              		.loc 1 217 9
 467 0032 B7670240 		li	a5,1073897472
 468 0036 9387C780 		addi	a5,a5,-2036
 469              		.loc 1 217 20
 470 003a 0947     		li	a4,2
 471 003c 98C3     		sw	a4,0(a5)
 472              	.L13:
 218:../Firmware/GD32VW55x_standard_peripheral/Source/gd32vw55x_qspi.c ****     }
 219:../Firmware/GD32VW55x_standard_peripheral/Source/gd32vw55x_qspi.c **** }
 473              		.loc 1 219 1
 474 003e 0100     		nop
 475 0040 F240     		lw	ra,28(sp)
 476              		.cfi_restore 1
 477 0042 6244     		lw	s0,24(sp)
 478              		.cfi_restore 8
 479              		.cfi_def_cfa 2, 32
 480 0044 0561     		addi	sp,sp,32
 481              		.cfi_def_cfa_offset 0
 482 0046 8280     		jr	ra
 483              		.cfi_endproc
 484              	.LFE356:
 486              		.section	.text.qspi_polling_config,"ax",@progbits
 487              		.align	1
 488              		.globl	qspi_polling_config
 490              	qspi_polling_config:
 491              	.LFB357:
 220:../Firmware/GD32VW55x_standard_peripheral/Source/gd32vw55x_qspi.c **** 
 221:../Firmware/GD32VW55x_standard_peripheral/Source/gd32vw55x_qspi.c **** /*!
 222:../Firmware/GD32VW55x_standard_peripheral/Source/gd32vw55x_qspi.c ****     \brief      configure QSPI read polling mode
 223:../Firmware/GD32VW55x_standard_peripheral/Source/gd32vw55x_qspi.c ****     \param[in]  cmd: QSPI command parameter structure
 224:../Firmware/GD32VW55x_standard_peripheral/Source/gd32vw55x_qspi.c ****                              and the member values are shown as below:
 225:../Firmware/GD32VW55x_standard_peripheral/Source/gd32vw55x_qspi.c ****                   instruction_mode: QSPI_INSTRUCTION_NONE, QSPI_INSTRUCTION_1_LINE,
 226:../Firmware/GD32VW55x_standard_peripheral/Source/gd32vw55x_qspi.c ****                                     QSPI_INSTRUCTION_2_LINES, QSPI_INSTRUCTION_4_LINES
 227:../Firmware/GD32VW55x_standard_peripheral/Source/gd32vw55x_qspi.c ****                   instruction: reference flash commands description
 228:../Firmware/GD32VW55x_standard_peripheral/Source/gd32vw55x_qspi.c ****                   addr_mode: QSPI_ADDR_NONE, QSPI_ADDR_1_LINE, QSPI_ADDR_2_LINES, QSPI_ADDR_4_LINES
 229:../Firmware/GD32VW55x_standard_peripheral/Source/gd32vw55x_qspi.c ****                   addr_size: QSPI_ADDR_8_BITS, QSPI_ADDR_16_BITS, QSPI_ADDR_24_BITS, QSPI_ADDR_32_B
 230:../Firmware/GD32VW55x_standard_peripheral/Source/gd32vw55x_qspi.c ****                   addr: 0-flash size
 231:../Firmware/GD32VW55x_standard_peripheral/Source/gd32vw55x_qspi.c ****                   altebytes_mode: QSPI_ALTE_BYTES_NONE, QSPI_ALTE_BYTES_1_LINE,
 232:../Firmware/GD32VW55x_standard_peripheral/Source/gd32vw55x_qspi.c ****                                   QSPI_ALTE_BYTES_2_LINES, QSPI_ALTE_BYTES_4_LINES
 233:../Firmware/GD32VW55x_standard_peripheral/Source/gd32vw55x_qspi.c ****                   altebytes_size: QSPI_ALTE_BYTES_8_BITS, QSPI_ALTE_BYTES_16_BITS,
 234:../Firmware/GD32VW55x_standard_peripheral/Source/gd32vw55x_qspi.c ****                                   QSPI_ALTE_BYTES_24_BITS, QSPI_ALTE_BYTES_32_BITS
 235:../Firmware/GD32VW55x_standard_peripheral/Source/gd32vw55x_qspi.c ****                   altebytes: 0-0xFFFFFFFF
 236:../Firmware/GD32VW55x_standard_peripheral/Source/gd32vw55x_qspi.c ****                   dummycycles: between 0 and 31
 237:../Firmware/GD32VW55x_standard_peripheral/Source/gd32vw55x_qspi.c ****                   data_mode: QSPI_DATA_NONE, QSPI_DATA_1_LINE, QSPI_DATA_2_LINES, QSPI_DATA_4_LINES
 238:../Firmware/GD32VW55x_standard_peripheral/Source/gd32vw55x_qspi.c ****                   data_length: 0-0xFFFFFFFF
 239:../Firmware/GD32VW55x_standard_peripheral/Source/gd32vw55x_qspi.c ****                   sioo_mode: QSPI_SIOO_INST_EVERY_CMD, QSPI_SIOO_INST_ONLY_FIRST_CMD
 240:../Firmware/GD32VW55x_standard_peripheral/Source/gd32vw55x_qspi.c ****     \param[in]  cfg: QSPI read polling parameter structure
 241:../Firmware/GD32VW55x_standard_peripheral/Source/gd32vw55x_qspi.c ****                              and the member values are shown as below:
 242:../Firmware/GD32VW55x_standard_peripheral/Source/gd32vw55x_qspi.c ****                   match: between 0 and 0xFFFFFFFF
 243:../Firmware/GD32VW55x_standard_peripheral/Source/gd32vw55x_qspi.c ****                   mask: between 0 and 0xFFFFFFFF
 244:../Firmware/GD32VW55x_standard_peripheral/Source/gd32vw55x_qspi.c ****                   interval: between 0 and 0xFFFF
 245:../Firmware/GD32VW55x_standard_peripheral/Source/gd32vw55x_qspi.c ****                   statusbytes_size: between 1 and 4
 246:../Firmware/GD32VW55x_standard_peripheral/Source/gd32vw55x_qspi.c ****                   match_mode: QSPI_MATCH_MODE_AND, QSPI_MATCH_MODE_OR
 247:../Firmware/GD32VW55x_standard_peripheral/Source/gd32vw55x_qspi.c ****                   polling_stop: QSPI_POLLING_STOP_DISABLE,QSPI_POLLING_STOP_ENABLE
 248:../Firmware/GD32VW55x_standard_peripheral/Source/gd32vw55x_qspi.c ****     \param[out] none
 249:../Firmware/GD32VW55x_standard_peripheral/Source/gd32vw55x_qspi.c ****     \retval     none
 250:../Firmware/GD32VW55x_standard_peripheral/Source/gd32vw55x_qspi.c **** */
 251:../Firmware/GD32VW55x_standard_peripheral/Source/gd32vw55x_qspi.c **** void qspi_polling_config(qspi_command_struct *cmd, qspi_polling_struct *cfg)
 252:../Firmware/GD32VW55x_standard_peripheral/Source/gd32vw55x_qspi.c **** {
 492              		.loc 1 252 1
 493              		.cfi_startproc
 494 0000 0111     		addi	sp,sp,-32
 495              		.cfi_def_cfa_offset 32
 496 0002 06CE     		sw	ra,28(sp)
 497 0004 22CC     		sw	s0,24(sp)
 498              		.cfi_offset 1, -4
 499              		.cfi_offset 8, -8
 500 0006 0010     		addi	s0,sp,32
 501              		.cfi_def_cfa 8, 0
 502 0008 2326A4FE 		sw	a0,-20(s0)
 503 000c 2324B4FE 		sw	a1,-24(s0)
 253:../Firmware/GD32VW55x_standard_peripheral/Source/gd32vw55x_qspi.c ****     /* configure the match value */
 254:../Firmware/GD32VW55x_standard_peripheral/Source/gd32vw55x_qspi.c ****     QSPI_STATMATCH = cfg->match;
 504              		.loc 1 254 5
 505 0010 B7670240 		li	a5,1073897472
 506 0014 93878782 		addi	a5,a5,-2008
 507              		.loc 1 254 25
 508 0018 032784FE 		lw	a4,-24(s0)
 509 001c 1843     		lw	a4,0(a4)
 510              		.loc 1 254 20
 511 001e 98C3     		sw	a4,0(a5)
 255:../Firmware/GD32VW55x_standard_peripheral/Source/gd32vw55x_qspi.c ****     /* configure the mask value */
 256:../Firmware/GD32VW55x_standard_peripheral/Source/gd32vw55x_qspi.c ****     QSPI_STATMK = cfg->mask;
 512              		.loc 1 256 5
 513 0020 B7670240 		li	a5,1073897472
 514 0024 93874782 		addi	a5,a5,-2012
 515              		.loc 1 256 22
 516 0028 032784FE 		lw	a4,-24(s0)
 517 002c 5843     		lw	a4,4(a4)
 518              		.loc 1 256 17
 519 002e 98C3     		sw	a4,0(a5)
 257:../Firmware/GD32VW55x_standard_peripheral/Source/gd32vw55x_qspi.c ****     /* configure the interval cycle */
 258:../Firmware/GD32VW55x_standard_peripheral/Source/gd32vw55x_qspi.c ****     QSPI_INTERVAL = cfg->interval;
 520              		.loc 1 258 5
 521 0030 B7670240 		li	a5,1073897472
 522 0034 9387C782 		addi	a5,a5,-2004
 523              		.loc 1 258 24
 524 0038 032784FE 		lw	a4,-24(s0)
 525 003c 1847     		lw	a4,8(a4)
 526              		.loc 1 258 19
 527 003e 98C3     		sw	a4,0(a5)
 259:../Firmware/GD32VW55x_standard_peripheral/Source/gd32vw55x_qspi.c ****     /* configure the read polling match mode and read polling mode stop */
 260:../Firmware/GD32VW55x_standard_peripheral/Source/gd32vw55x_qspi.c ****     QSPI_CTL &= ~(QSPI_CTL_RPMS | QSPI_CTL_RPMM);
 528              		.loc 1 260 14
 529 0040 B7670240 		li	a5,1073897472
 530 0044 93870780 		addi	a5,a5,-2048
 531 0048 9443     		lw	a3,0(a5)
 532 004a B7670240 		li	a5,1073897472
 533 004e 93870780 		addi	a5,a5,-2048
 534 0052 370740FF 		li	a4,-12582912
 535 0056 7D17     		addi	a4,a4,-1
 536 0058 758F     		and	a4,a3,a4
 537 005a 98C3     		sw	a4,0(a5)
 261:../Firmware/GD32VW55x_standard_peripheral/Source/gd32vw55x_qspi.c ****     QSPI_CTL |= (cfg->match_mode | cfg->polling_stop);
 538              		.loc 1 261 14
 539 005c B7670240 		li	a5,1073897472
 540 0060 93870780 		addi	a5,a5,-2048
 541 0064 9443     		lw	a3,0(a5)
 542              		.loc 1 261 21
 543 0066 832784FE 		lw	a5,-24(s0)
 544 006a 984B     		lw	a4,16(a5)
 545              		.loc 1 261 39
 546 006c 832784FE 		lw	a5,-24(s0)
 547 0070 DC4B     		lw	a5,20(a5)
 548              		.loc 1 261 34
 549 0072 5D8F     		or	a4,a4,a5
 550              		.loc 1 261 14
 551 0074 B7670240 		li	a5,1073897472
 552 0078 93870780 		addi	a5,a5,-2048
 553 007c 558F     		or	a4,a3,a4
 554 007e 98C3     		sw	a4,0(a5)
 262:../Firmware/GD32VW55x_standard_peripheral/Source/gd32vw55x_qspi.c **** 
 263:../Firmware/GD32VW55x_standard_peripheral/Source/gd32vw55x_qspi.c ****     cmd->data_length = cfg->statusbytes_size;
 555              		.loc 1 263 27
 556 0080 832784FE 		lw	a5,-24(s0)
 557 0084 D847     		lw	a4,12(a5)
 558              		.loc 1 263 22
 559 0086 8327C4FE 		lw	a5,-20(s0)
 560 008a 98D7     		sw	a4,40(a5)
 264:../Firmware/GD32VW55x_standard_peripheral/Source/gd32vw55x_qspi.c ****     qspi_config(cmd, QSPI_READ_POLLING);
 561              		.loc 1 264 5
 562 008c B7050008 		li	a1,134217728
 563 0090 0325C4FE 		lw	a0,-20(s0)
 564 0094 97000000 		call	qspi_config
 564      E7800000 
 265:../Firmware/GD32VW55x_standard_peripheral/Source/gd32vw55x_qspi.c **** }
 565              		.loc 1 265 1
 566 009c 0100     		nop
 567 009e F240     		lw	ra,28(sp)
 568              		.cfi_restore 1
 569 00a0 6244     		lw	s0,24(sp)
 570              		.cfi_restore 8
 571              		.cfi_def_cfa 2, 32
 572 00a2 0561     		addi	sp,sp,32
 573              		.cfi_def_cfa_offset 0
 574 00a4 8280     		jr	ra
 575              		.cfi_endproc
 576              	.LFE357:
 578              		.section	.text.qspi_memorymapped_config,"ax",@progbits
 579              		.align	1
 580              		.globl	qspi_memorymapped_config
 582              	qspi_memorymapped_config:
 583              	.LFB358:
 266:../Firmware/GD32VW55x_standard_peripheral/Source/gd32vw55x_qspi.c **** 
 267:../Firmware/GD32VW55x_standard_peripheral/Source/gd32vw55x_qspi.c **** /*!
 268:../Firmware/GD32VW55x_standard_peripheral/Source/gd32vw55x_qspi.c ****     \brief      configure QSPI memory mapped mode
 269:../Firmware/GD32VW55x_standard_peripheral/Source/gd32vw55x_qspi.c ****     \param[in]  cmd: QSPI command parameter structure
 270:../Firmware/GD32VW55x_standard_peripheral/Source/gd32vw55x_qspi.c ****                              and the member values are shown as below:
 271:../Firmware/GD32VW55x_standard_peripheral/Source/gd32vw55x_qspi.c ****                   instruction_mode: QSPI_INSTRUCTION_NONE, QSPI_INSTRUCTION_1_LINE,
 272:../Firmware/GD32VW55x_standard_peripheral/Source/gd32vw55x_qspi.c ****                                     QSPI_INSTRUCTION_2_LINES, QSPI_INSTRUCTION_4_LINES
 273:../Firmware/GD32VW55x_standard_peripheral/Source/gd32vw55x_qspi.c ****                   instruction: reference flash commands description
 274:../Firmware/GD32VW55x_standard_peripheral/Source/gd32vw55x_qspi.c ****                   addr_mode: QSPI_ADDR_NONE, QSPI_ADDR_1_LINE, QSPI_ADDR_2_LINES, QSPI_ADDR_4_LINES
 275:../Firmware/GD32VW55x_standard_peripheral/Source/gd32vw55x_qspi.c ****                   addr_size: QSPI_ADDR_8_BITS, QSPI_ADDR_16_BITS, QSPI_ADDR_24_BITS, QSPI_ADDR_32_B
 276:../Firmware/GD32VW55x_standard_peripheral/Source/gd32vw55x_qspi.c ****                   addr: 0-flash size
 277:../Firmware/GD32VW55x_standard_peripheral/Source/gd32vw55x_qspi.c ****                   altebytes_mode: QSPI_ALTE_BYTES_NONE, QSPI_ALTE_BYTES_1_LINE,
 278:../Firmware/GD32VW55x_standard_peripheral/Source/gd32vw55x_qspi.c ****                                   QSPI_ALTE_BYTES_2_LINES, QSPI_ALTE_BYTES_4_LINES
 279:../Firmware/GD32VW55x_standard_peripheral/Source/gd32vw55x_qspi.c ****                   altebytes_size: QSPI_ALTE_BYTES_8_BITS, QSPI_ALTE_BYTES_16_BITS,
 280:../Firmware/GD32VW55x_standard_peripheral/Source/gd32vw55x_qspi.c ****                                   QSPI_ALTE_BYTES_24_BITS, QSPI_ALTE_BYTES_32_BITS
 281:../Firmware/GD32VW55x_standard_peripheral/Source/gd32vw55x_qspi.c ****                   altebytes: 0-0xFFFFFFFF
 282:../Firmware/GD32VW55x_standard_peripheral/Source/gd32vw55x_qspi.c ****                   dummycycles: between 0 and 31
 283:../Firmware/GD32VW55x_standard_peripheral/Source/gd32vw55x_qspi.c ****                   data_mode: QSPI_DATA_NONE, QSPI_DATA_1_LINE, QSPI_DATA_2_LINES, QSPI_DATA_4_LINES
 284:../Firmware/GD32VW55x_standard_peripheral/Source/gd32vw55x_qspi.c ****                   data_length: 0-0xFFFFFFFF
 285:../Firmware/GD32VW55x_standard_peripheral/Source/gd32vw55x_qspi.c ****                   sioo_mode: QSPI_SIOO_INST_EVERY_CMD, QSPI_SIOO_INST_ONLY_FIRST_CMD
 286:../Firmware/GD32VW55x_standard_peripheral/Source/gd32vw55x_qspi.c ****     \param[in]  timeout: 0-0xFFFF
 287:../Firmware/GD32VW55x_standard_peripheral/Source/gd32vw55x_qspi.c ****     \param[in]  toen:
 288:../Firmware/GD32VW55x_standard_peripheral/Source/gd32vw55x_qspi.c ****       \arg        QSPI_TMOUT_DISABLE: disable timeout counter
 289:../Firmware/GD32VW55x_standard_peripheral/Source/gd32vw55x_qspi.c ****       \arg        QSPI_TMOUT_ENABLE: enable timeout counter
 290:../Firmware/GD32VW55x_standard_peripheral/Source/gd32vw55x_qspi.c ****     \param[out] none
 291:../Firmware/GD32VW55x_standard_peripheral/Source/gd32vw55x_qspi.c ****     \retval     none
 292:../Firmware/GD32VW55x_standard_peripheral/Source/gd32vw55x_qspi.c **** */
 293:../Firmware/GD32VW55x_standard_peripheral/Source/gd32vw55x_qspi.c **** void qspi_memorymapped_config(qspi_command_struct *cmd, uint16_t timeout, uint32_t toen)
 294:../Firmware/GD32VW55x_standard_peripheral/Source/gd32vw55x_qspi.c **** {
 584              		.loc 1 294 1
 585              		.cfi_startproc
 586 0000 0111     		addi	sp,sp,-32
 587              		.cfi_def_cfa_offset 32
 588 0002 06CE     		sw	ra,28(sp)
 589 0004 22CC     		sw	s0,24(sp)
 590              		.cfi_offset 1, -4
 591              		.cfi_offset 8, -8
 592 0006 0010     		addi	s0,sp,32
 593              		.cfi_def_cfa 8, 0
 594 0008 2326A4FE 		sw	a0,-20(s0)
 595 000c AE87     		mv	a5,a1
 596 000e 2322C4FE 		sw	a2,-28(s0)
 597 0012 2315F4FE 		sh	a5,-22(s0)
 295:../Firmware/GD32VW55x_standard_peripheral/Source/gd32vw55x_qspi.c ****     /* enable timeout */
 296:../Firmware/GD32VW55x_standard_peripheral/Source/gd32vw55x_qspi.c ****     QSPI_CTL &= ~QSPI_CTL_TMOUTEN;
 598              		.loc 1 296 14
 599 0016 B7670240 		li	a5,1073897472
 600 001a 93870780 		addi	a5,a5,-2048
 601 001e 9843     		lw	a4,0(a5)
 602 0020 B7670240 		li	a5,1073897472
 603 0024 93870780 		addi	a5,a5,-2048
 604 0028 5D9B     		andi	a4,a4,-9
 605 002a 98C3     		sw	a4,0(a5)
 297:../Firmware/GD32VW55x_standard_peripheral/Source/gd32vw55x_qspi.c ****     QSPI_CTL |= toen;
 606              		.loc 1 297 14
 607 002c B7670240 		li	a5,1073897472
 608 0030 93870780 		addi	a5,a5,-2048
 609 0034 9443     		lw	a3,0(a5)
 610 0036 B7670240 		li	a5,1073897472
 611 003a 93870780 		addi	a5,a5,-2048
 612 003e 032744FE 		lw	a4,-28(s0)
 613 0042 558F     		or	a4,a3,a4
 614 0044 98C3     		sw	a4,0(a5)
 298:../Firmware/GD32VW55x_standard_peripheral/Source/gd32vw55x_qspi.c **** 
 299:../Firmware/GD32VW55x_standard_peripheral/Source/gd32vw55x_qspi.c ****     if(toen == QSPI_CTL_TMOUTEN) {
 615              		.loc 1 299 7
 616 0046 032744FE 		lw	a4,-28(s0)
 617 004a A147     		li	a5,8
 618 004c 631CF702 		bne	a4,a5,.L16
 300:../Firmware/GD32VW55x_standard_peripheral/Source/gd32vw55x_qspi.c ****         /* configure the timeout value */
 301:../Firmware/GD32VW55x_standard_peripheral/Source/gd32vw55x_qspi.c ****         QSPI_TMOUT = timeout;
 619              		.loc 1 301 9
 620 0050 B7670240 		li	a5,1073897472
 621 0054 93870783 		addi	a5,a5,-2000
 622              		.loc 1 301 20
 623 0058 0357A4FE 		lhu	a4,-22(s0)
 624 005c 98C3     		sw	a4,0(a5)
 302:../Firmware/GD32VW55x_standard_peripheral/Source/gd32vw55x_qspi.c ****         QSPI_STATC = QSPI_STATC_TMOUTC;
 625              		.loc 1 302 9
 626 005e B7670240 		li	a5,1073897472
 627 0062 9387C780 		addi	a5,a5,-2036
 628              		.loc 1 302 20
 629 0066 4147     		li	a4,16
 630 0068 98C3     		sw	a4,0(a5)
 303:../Firmware/GD32VW55x_standard_peripheral/Source/gd32vw55x_qspi.c ****         /* enable the QSPI timeout interrupt */
 304:../Firmware/GD32VW55x_standard_peripheral/Source/gd32vw55x_qspi.c ****         QSPI_CTL |= QSPI_CTL_TMOUTIE;
 631              		.loc 1 304 18
 632 006a B7670240 		li	a5,1073897472
 633 006e 93870780 		addi	a5,a5,-2048
 634 0072 9443     		lw	a3,0(a5)
 635 0074 B7670240 		li	a5,1073897472
 636 0078 93870780 		addi	a5,a5,-2048
 637 007c 37071000 		li	a4,1048576
 638 0080 558F     		or	a4,a3,a4
 639 0082 98C3     		sw	a4,0(a5)
 640              	.L16:
 305:../Firmware/GD32VW55x_standard_peripheral/Source/gd32vw55x_qspi.c ****     }
 306:../Firmware/GD32VW55x_standard_peripheral/Source/gd32vw55x_qspi.c ****     qspi_config(cmd, QSPI_MEMORY_MAPPED);
 641              		.loc 1 306 5
 642 0084 B705000C 		li	a1,201326592
 643 0088 0325C4FE 		lw	a0,-20(s0)
 644 008c 97000000 		call	qspi_config
 644      E7800000 
 307:../Firmware/GD32VW55x_standard_peripheral/Source/gd32vw55x_qspi.c **** }
 645              		.loc 1 307 1
 646 0094 0100     		nop
 647 0096 F240     		lw	ra,28(sp)
 648              		.cfi_restore 1
 649 0098 6244     		lw	s0,24(sp)
 650              		.cfi_restore 8
 651              		.cfi_def_cfa 2, 32
 652 009a 0561     		addi	sp,sp,32
 653              		.cfi_def_cfa_offset 0
 654 009c 8280     		jr	ra
 655              		.cfi_endproc
 656              	.LFE358:
 658              		.section	.text.qspi_data_transmit,"ax",@progbits
 659              		.align	1
 660              		.globl	qspi_data_transmit
 662              	qspi_data_transmit:
 663              	.LFB359:
 308:../Firmware/GD32VW55x_standard_peripheral/Source/gd32vw55x_qspi.c **** 
 309:../Firmware/GD32VW55x_standard_peripheral/Source/gd32vw55x_qspi.c **** /*!
 310:../Firmware/GD32VW55x_standard_peripheral/Source/gd32vw55x_qspi.c ****     \brief      QSPI transmit data function
 311:../Firmware/GD32VW55x_standard_peripheral/Source/gd32vw55x_qspi.c ****     \param[in]  tdata: pointer to the data to be transmitted
 312:../Firmware/GD32VW55x_standard_peripheral/Source/gd32vw55x_qspi.c ****     \param[out] none
 313:../Firmware/GD32VW55x_standard_peripheral/Source/gd32vw55x_qspi.c ****     \retval     none
 314:../Firmware/GD32VW55x_standard_peripheral/Source/gd32vw55x_qspi.c **** */
 315:../Firmware/GD32VW55x_standard_peripheral/Source/gd32vw55x_qspi.c **** void qspi_data_transmit(uint8_t *tdata)
 316:../Firmware/GD32VW55x_standard_peripheral/Source/gd32vw55x_qspi.c **** {
 664              		.loc 1 316 1
 665              		.cfi_startproc
 666 0000 7971     		addi	sp,sp,-48
 667              		.cfi_def_cfa_offset 48
 668 0002 22D6     		sw	s0,44(sp)
 669              		.cfi_offset 8, -4
 670 0004 0018     		addi	s0,sp,48
 671              		.cfi_def_cfa 8, 0
 672 0006 232EA4FC 		sw	a0,-36(s0)
 317:../Firmware/GD32VW55x_standard_peripheral/Source/gd32vw55x_qspi.c ****     uint32_t tx_cnt;
 318:../Firmware/GD32VW55x_standard_peripheral/Source/gd32vw55x_qspi.c **** 
 319:../Firmware/GD32VW55x_standard_peripheral/Source/gd32vw55x_qspi.c ****     tx_cnt = QSPI_DTLEN + 1U;
 673              		.loc 1 319 14
 674 000a B7670240 		li	a5,1073897472
 675 000e 93870781 		addi	a5,a5,-2032
 676 0012 9C43     		lw	a5,0(a5)
 677              		.loc 1 319 12
 678 0014 8507     		addi	a5,a5,1
 679 0016 2326F4FE 		sw	a5,-20(s0)
 320:../Firmware/GD32VW55x_standard_peripheral/Source/gd32vw55x_qspi.c **** 
 321:../Firmware/GD32VW55x_standard_peripheral/Source/gd32vw55x_qspi.c ****     QSPI_TCFG = (QSPI_TCFG & ~QSPI_MEMORY_MAPPED) | QSPI_NORMAL_WRITE;
 680              		.loc 1 321 18
 681 001a B7670240 		li	a5,1073897472
 682 001e 93874781 		addi	a5,a5,-2028
 683 0022 9443     		lw	a3,0(a5)
 684              		.loc 1 321 5
 685 0024 B7670240 		li	a5,1073897472
 686 0028 93874781 		addi	a5,a5,-2028
 687              		.loc 1 321 51
 688 002c 370700F4 		li	a4,-201326592
 689 0030 7D17     		addi	a4,a4,-1
 690 0032 758F     		and	a4,a3,a4
 691              		.loc 1 321 15
 692 0034 98C3     		sw	a4,0(a5)
 322:../Firmware/GD32VW55x_standard_peripheral/Source/gd32vw55x_qspi.c **** 
 323:../Firmware/GD32VW55x_standard_peripheral/Source/gd32vw55x_qspi.c ****     while(tx_cnt > 0U) {
 693              		.loc 1 323 10
 694 0036 25A8     		j	.L18
 695              	.L20:
 324:../Firmware/GD32VW55x_standard_peripheral/Source/gd32vw55x_qspi.c ****         while((QSPI_STAT & QSPI_FLAG_FT) == 0U) {
 696              		.loc 1 324 14
 697 0038 0100     		nop
 698              	.L19:
 699              		.loc 1 324 16 discriminator 1
 700 003a B7670240 		li	a5,1073897472
 701 003e 93878780 		addi	a5,a5,-2040
 702 0042 9C43     		lw	a5,0(a5)
 703              		.loc 1 324 26 discriminator 1
 704 0044 918B     		andi	a5,a5,4
 705              		.loc 1 324 14 discriminator 1
 706 0046 F5DB     		beq	a5,zero,.L19
 325:../Firmware/GD32VW55x_standard_peripheral/Source/gd32vw55x_qspi.c ****         }
 326:../Firmware/GD32VW55x_standard_peripheral/Source/gd32vw55x_qspi.c ****         /* transmit data */
 327:../Firmware/GD32VW55x_standard_peripheral/Source/gd32vw55x_qspi.c ****         *(uint8_t *)(QSPI + 0x00000020U) = *tdata++;
 707              		.loc 1 327 50
 708 0048 8327C4FD 		lw	a5,-36(s0)
 709 004c 13871700 		addi	a4,a5,1
 710 0050 232EE4FC 		sw	a4,-36(s0)
 711              		.loc 1 327 9
 712 0054 37670240 		li	a4,1073897472
 713 0058 13070782 		addi	a4,a4,-2016
 714              		.loc 1 327 44
 715 005c 83C70700 		lbu	a5,0(a5)
 716              		.loc 1 327 42
 717 0060 2300F700 		sb	a5,0(a4)
 328:../Firmware/GD32VW55x_standard_peripheral/Source/gd32vw55x_qspi.c ****         tx_cnt--;
 718              		.loc 1 328 15
 719 0064 8327C4FE 		lw	a5,-20(s0)
 720 0068 FD17     		addi	a5,a5,-1
 721 006a 2326F4FE 		sw	a5,-20(s0)
 722              	.L18:
 323:../Firmware/GD32VW55x_standard_peripheral/Source/gd32vw55x_qspi.c ****         while((QSPI_STAT & QSPI_FLAG_FT) == 0U) {
 723              		.loc 1 323 10
 724 006e 8327C4FE 		lw	a5,-20(s0)
 725 0072 F9F3     		bne	a5,zero,.L20
 329:../Firmware/GD32VW55x_standard_peripheral/Source/gd32vw55x_qspi.c ****     }
 330:../Firmware/GD32VW55x_standard_peripheral/Source/gd32vw55x_qspi.c **** }
 726              		.loc 1 330 1
 727 0074 0100     		nop
 728 0076 0100     		nop
 729 0078 3254     		lw	s0,44(sp)
 730              		.cfi_restore 8
 731              		.cfi_def_cfa 2, 48
 732 007a 4561     		addi	sp,sp,48
 733              		.cfi_def_cfa_offset 0
 734 007c 8280     		jr	ra
 735              		.cfi_endproc
 736              	.LFE359:
 738              		.section	.text.qspi_data_receive,"ax",@progbits
 739              		.align	1
 740              		.globl	qspi_data_receive
 742              	qspi_data_receive:
 743              	.LFB360:
 331:../Firmware/GD32VW55x_standard_peripheral/Source/gd32vw55x_qspi.c **** 
 332:../Firmware/GD32VW55x_standard_peripheral/Source/gd32vw55x_qspi.c **** /*!
 333:../Firmware/GD32VW55x_standard_peripheral/Source/gd32vw55x_qspi.c ****     \brief      QSPI receive data function
 334:../Firmware/GD32VW55x_standard_peripheral/Source/gd32vw55x_qspi.c ****     \param[in]  none
 335:../Firmware/GD32VW55x_standard_peripheral/Source/gd32vw55x_qspi.c ****     \param[out] rdata: pointer to the data to be received
 336:../Firmware/GD32VW55x_standard_peripheral/Source/gd32vw55x_qspi.c ****     \retval     none
 337:../Firmware/GD32VW55x_standard_peripheral/Source/gd32vw55x_qspi.c **** */
 338:../Firmware/GD32VW55x_standard_peripheral/Source/gd32vw55x_qspi.c **** void qspi_data_receive(uint8_t *rdata)
 339:../Firmware/GD32VW55x_standard_peripheral/Source/gd32vw55x_qspi.c **** {
 744              		.loc 1 339 1
 745              		.cfi_startproc
 746 0000 7971     		addi	sp,sp,-48
 747              		.cfi_def_cfa_offset 48
 748 0002 22D6     		sw	s0,44(sp)
 749              		.cfi_offset 8, -4
 750 0004 0018     		addi	s0,sp,48
 751              		.cfi_def_cfa 8, 0
 752 0006 232EA4FC 		sw	a0,-36(s0)
 340:../Firmware/GD32VW55x_standard_peripheral/Source/gd32vw55x_qspi.c ****     uint32_t rx_cnt, addr;
 341:../Firmware/GD32VW55x_standard_peripheral/Source/gd32vw55x_qspi.c **** 
 342:../Firmware/GD32VW55x_standard_peripheral/Source/gd32vw55x_qspi.c ****     rx_cnt = QSPI_DTLEN + 1U;
 753              		.loc 1 342 14
 754 000a B7670240 		li	a5,1073897472
 755 000e 93870781 		addi	a5,a5,-2032
 756 0012 9C43     		lw	a5,0(a5)
 757              		.loc 1 342 12
 758 0014 8507     		addi	a5,a5,1
 759 0016 2326F4FE 		sw	a5,-20(s0)
 343:../Firmware/GD32VW55x_standard_peripheral/Source/gd32vw55x_qspi.c ****     addr = QSPI_ADDR;
 760              		.loc 1 343 12
 761 001a B7670240 		li	a5,1073897472
 762 001e 93878781 		addi	a5,a5,-2024
 763              		.loc 1 343 10
 764 0022 9C43     		lw	a5,0(a5)
 765 0024 2324F4FE 		sw	a5,-24(s0)
 344:../Firmware/GD32VW55x_standard_peripheral/Source/gd32vw55x_qspi.c **** 
 345:../Firmware/GD32VW55x_standard_peripheral/Source/gd32vw55x_qspi.c ****     QSPI_TCFG = (QSPI_TCFG & ~QSPI_MEMORY_MAPPED) | QSPI_NORMAL_READ;
 766              		.loc 1 345 18
 767 0028 B7670240 		li	a5,1073897472
 768 002c 93874781 		addi	a5,a5,-2028
 769 0030 9843     		lw	a4,0(a5)
 770              		.loc 1 345 28
 771 0032 B70700F4 		li	a5,-201326592
 772 0036 FD17     		addi	a5,a5,-1
 773 0038 B376F700 		and	a3,a4,a5
 774              		.loc 1 345 5
 775 003c B7670240 		li	a5,1073897472
 776 0040 93874781 		addi	a5,a5,-2028
 777              		.loc 1 345 51
 778 0044 37070004 		li	a4,67108864
 779 0048 558F     		or	a4,a3,a4
 780              		.loc 1 345 15
 781 004a 98C3     		sw	a4,0(a5)
 346:../Firmware/GD32VW55x_standard_peripheral/Source/gd32vw55x_qspi.c ****     /* start the transfer by re-writing the address in QSPI_ADDR register */
 347:../Firmware/GD32VW55x_standard_peripheral/Source/gd32vw55x_qspi.c ****     QSPI_ADDR = addr;
 782              		.loc 1 347 5
 783 004c B7670240 		li	a5,1073897472
 784 0050 93878781 		addi	a5,a5,-2024
 785              		.loc 1 347 15
 786 0054 032784FE 		lw	a4,-24(s0)
 787 0058 98C3     		sw	a4,0(a5)
 348:../Firmware/GD32VW55x_standard_peripheral/Source/gd32vw55x_qspi.c **** 
 349:../Firmware/GD32VW55x_standard_peripheral/Source/gd32vw55x_qspi.c ****     while(rx_cnt > 0U) {
 788              		.loc 1 349 10
 789 005a 25A8     		j	.L22
 790              	.L24:
 350:../Firmware/GD32VW55x_standard_peripheral/Source/gd32vw55x_qspi.c ****         while((QSPI_STAT & (QSPI_FLAG_FT | QSPI_FLAG_TC)) == 0U) {
 791              		.loc 1 350 14
 792 005c 0100     		nop
 793              	.L23:
 794              		.loc 1 350 16 discriminator 1
 795 005e B7670240 		li	a5,1073897472
 796 0062 93878780 		addi	a5,a5,-2040
 797 0066 9C43     		lw	a5,0(a5)
 798              		.loc 1 350 26 discriminator 1
 799 0068 998B     		andi	a5,a5,6
 800              		.loc 1 350 14 discriminator 1
 801 006a F5DB     		beq	a5,zero,.L23
 351:../Firmware/GD32VW55x_standard_peripheral/Source/gd32vw55x_qspi.c ****         }
 352:../Firmware/GD32VW55x_standard_peripheral/Source/gd32vw55x_qspi.c ****         *rdata++ = *(uint8_t *)(QSPI + 0x00000020U);
 802              		.loc 1 352 20
 803 006c B7670240 		li	a5,1073897472
 804 0070 13870782 		addi	a4,a5,-2016
 805              		.loc 1 352 15
 806 0074 8327C4FD 		lw	a5,-36(s0)
 807 0078 93861700 		addi	a3,a5,1
 808 007c 232ED4FC 		sw	a3,-36(s0)
 809              		.loc 1 352 20
 810 0080 03470700 		lbu	a4,0(a4)
 811              		.loc 1 352 18
 812 0084 2380E700 		sb	a4,0(a5)
 353:../Firmware/GD32VW55x_standard_peripheral/Source/gd32vw55x_qspi.c ****         rx_cnt--;
 813              		.loc 1 353 15
 814 0088 8327C4FE 		lw	a5,-20(s0)
 815 008c FD17     		addi	a5,a5,-1
 816 008e 2326F4FE 		sw	a5,-20(s0)
 817              	.L22:
 349:../Firmware/GD32VW55x_standard_peripheral/Source/gd32vw55x_qspi.c ****         while((QSPI_STAT & (QSPI_FLAG_FT | QSPI_FLAG_TC)) == 0U) {
 818              		.loc 1 349 10
 819 0092 8327C4FE 		lw	a5,-20(s0)
 820 0096 F9F3     		bne	a5,zero,.L24
 354:../Firmware/GD32VW55x_standard_peripheral/Source/gd32vw55x_qspi.c ****     }
 355:../Firmware/GD32VW55x_standard_peripheral/Source/gd32vw55x_qspi.c **** }
 821              		.loc 1 355 1
 822 0098 0100     		nop
 823 009a 0100     		nop
 824 009c 3254     		lw	s0,44(sp)
 825              		.cfi_restore 8
 826              		.cfi_def_cfa 2, 48
 827 009e 4561     		addi	sp,sp,48
 828              		.cfi_def_cfa_offset 0
 829 00a0 8280     		jr	ra
 830              		.cfi_endproc
 831              	.LFE360:
 833              		.section	.text.qspi_transmission_abort,"ax",@progbits
 834              		.align	1
 835              		.globl	qspi_transmission_abort
 837              	qspi_transmission_abort:
 838              	.LFB361:
 356:../Firmware/GD32VW55x_standard_peripheral/Source/gd32vw55x_qspi.c **** 
 357:../Firmware/GD32VW55x_standard_peripheral/Source/gd32vw55x_qspi.c **** /*!
 358:../Firmware/GD32VW55x_standard_peripheral/Source/gd32vw55x_qspi.c ****     \brief      abort the current transmission
 359:../Firmware/GD32VW55x_standard_peripheral/Source/gd32vw55x_qspi.c ****     \param[in]  none
 360:../Firmware/GD32VW55x_standard_peripheral/Source/gd32vw55x_qspi.c ****     \param[out] none
 361:../Firmware/GD32VW55x_standard_peripheral/Source/gd32vw55x_qspi.c ****     \retval     none
 362:../Firmware/GD32VW55x_standard_peripheral/Source/gd32vw55x_qspi.c **** */
 363:../Firmware/GD32VW55x_standard_peripheral/Source/gd32vw55x_qspi.c **** void qspi_transmission_abort(void)
 364:../Firmware/GD32VW55x_standard_peripheral/Source/gd32vw55x_qspi.c **** {
 839              		.loc 1 364 1
 840              		.cfi_startproc
 841 0000 4111     		addi	sp,sp,-16
 842              		.cfi_def_cfa_offset 16
 843 0002 22C6     		sw	s0,12(sp)
 844              		.cfi_offset 8, -4
 845 0004 0008     		addi	s0,sp,16
 846              		.cfi_def_cfa 8, 0
 365:../Firmware/GD32VW55x_standard_peripheral/Source/gd32vw55x_qspi.c ****     QSPI_CTL |= QSPI_CTL_ABORT;
 847              		.loc 1 365 14
 848 0006 B7670240 		li	a5,1073897472
 849 000a 93870780 		addi	a5,a5,-2048
 850 000e 9843     		lw	a4,0(a5)
 851 0010 B7670240 		li	a5,1073897472
 852 0014 93870780 		addi	a5,a5,-2048
 853 0018 13672700 		ori	a4,a4,2
 854 001c 98C3     		sw	a4,0(a5)
 366:../Firmware/GD32VW55x_standard_peripheral/Source/gd32vw55x_qspi.c **** }
 855              		.loc 1 366 1
 856 001e 0100     		nop
 857 0020 3244     		lw	s0,12(sp)
 858              		.cfi_restore 8
 859              		.cfi_def_cfa 2, 16
 860 0022 4101     		addi	sp,sp,16
 861              		.cfi_def_cfa_offset 0
 862 0024 8280     		jr	ra
 863              		.cfi_endproc
 864              	.LFE361:
 866              		.section	.text.qspi_flag_get,"ax",@progbits
 867              		.align	1
 868              		.globl	qspi_flag_get
 870              	qspi_flag_get:
 871              	.LFB362:
 367:../Firmware/GD32VW55x_standard_peripheral/Source/gd32vw55x_qspi.c **** 
 368:../Firmware/GD32VW55x_standard_peripheral/Source/gd32vw55x_qspi.c **** /*!
 369:../Firmware/GD32VW55x_standard_peripheral/Source/gd32vw55x_qspi.c ****     \brief      get QSPI flag status
 370:../Firmware/GD32VW55x_standard_peripheral/Source/gd32vw55x_qspi.c ****     \param[in]  flag: QSPI flag
 371:../Firmware/GD32VW55x_standard_peripheral/Source/gd32vw55x_qspi.c ****                 only one parameter can be selected which are shown as below:
 372:../Firmware/GD32VW55x_standard_peripheral/Source/gd32vw55x_qspi.c ****       \arg        QSPI_FLAG_BUSY: busy flag
 373:../Firmware/GD32VW55x_standard_peripheral/Source/gd32vw55x_qspi.c ****       \arg        QSPI_FLAG_TERR: transfer error flag
 374:../Firmware/GD32VW55x_standard_peripheral/Source/gd32vw55x_qspi.c ****       \arg        QSPI_FLAG_TC: transfer complete flag
 375:../Firmware/GD32VW55x_standard_peripheral/Source/gd32vw55x_qspi.c ****       \arg        QSPI_FLAG_FT: FIFO threshold flag
 376:../Firmware/GD32VW55x_standard_peripheral/Source/gd32vw55x_qspi.c ****       \arg        QSPI_FLAG_RPMF: read polling match flag
 377:../Firmware/GD32VW55x_standard_peripheral/Source/gd32vw55x_qspi.c ****       \arg        QSPI_FLAG_TMOUT: timeout flag
 378:../Firmware/GD32VW55x_standard_peripheral/Source/gd32vw55x_qspi.c ****     \param[out] none
 379:../Firmware/GD32VW55x_standard_peripheral/Source/gd32vw55x_qspi.c ****     \retval     FlagStatus: SET or RESET
 380:../Firmware/GD32VW55x_standard_peripheral/Source/gd32vw55x_qspi.c **** */
 381:../Firmware/GD32VW55x_standard_peripheral/Source/gd32vw55x_qspi.c **** FlagStatus qspi_flag_get(uint32_t flag)
 382:../Firmware/GD32VW55x_standard_peripheral/Source/gd32vw55x_qspi.c **** {
 872              		.loc 1 382 1
 873              		.cfi_startproc
 874 0000 0111     		addi	sp,sp,-32
 875              		.cfi_def_cfa_offset 32
 876 0002 22CE     		sw	s0,28(sp)
 877              		.cfi_offset 8, -4
 878 0004 0010     		addi	s0,sp,32
 879              		.cfi_def_cfa 8, 0
 880 0006 2326A4FE 		sw	a0,-20(s0)
 383:../Firmware/GD32VW55x_standard_peripheral/Source/gd32vw55x_qspi.c ****     if(RESET != (QSPI_STAT & flag)) {
 881              		.loc 1 383 18
 882 000a B7670240 		li	a5,1073897472
 883 000e 93878780 		addi	a5,a5,-2040
 884 0012 9843     		lw	a4,0(a5)
 885              		.loc 1 383 28
 886 0014 8327C4FE 		lw	a5,-20(s0)
 887 0018 F98F     		and	a5,a4,a5
 888              		.loc 1 383 7
 889 001a 99C3     		beq	a5,zero,.L27
 384:../Firmware/GD32VW55x_standard_peripheral/Source/gd32vw55x_qspi.c ****         return SET;
 890              		.loc 1 384 16
 891 001c 8547     		li	a5,1
 892 001e 11A0     		j	.L28
 893              	.L27:
 385:../Firmware/GD32VW55x_standard_peripheral/Source/gd32vw55x_qspi.c ****     } else {
 386:../Firmware/GD32VW55x_standard_peripheral/Source/gd32vw55x_qspi.c ****         return RESET;
 894              		.loc 1 386 16
 895 0020 8147     		li	a5,0
 896              	.L28:
 387:../Firmware/GD32VW55x_standard_peripheral/Source/gd32vw55x_qspi.c ****     }
 388:../Firmware/GD32VW55x_standard_peripheral/Source/gd32vw55x_qspi.c **** }
 897              		.loc 1 388 1
 898 0022 3E85     		mv	a0,a5
 899 0024 7244     		lw	s0,28(sp)
 900              		.cfi_restore 8
 901              		.cfi_def_cfa 2, 32
 902 0026 0561     		addi	sp,sp,32
 903              		.cfi_def_cfa_offset 0
 904 0028 8280     		jr	ra
 905              		.cfi_endproc
 906              	.LFE362:
 908              		.section	.text.qspi_flag_clear,"ax",@progbits
 909              		.align	1
 910              		.globl	qspi_flag_clear
 912              	qspi_flag_clear:
 913              	.LFB363:
 389:../Firmware/GD32VW55x_standard_peripheral/Source/gd32vw55x_qspi.c **** 
 390:../Firmware/GD32VW55x_standard_peripheral/Source/gd32vw55x_qspi.c **** /*!
 391:../Firmware/GD32VW55x_standard_peripheral/Source/gd32vw55x_qspi.c ****     \brief      clear QSPI flag status
 392:../Firmware/GD32VW55x_standard_peripheral/Source/gd32vw55x_qspi.c ****     \param[in]  flag: QSPI flag
 393:../Firmware/GD32VW55x_standard_peripheral/Source/gd32vw55x_qspi.c ****                 one or more parameters can be selected which are shown as below:
 394:../Firmware/GD32VW55x_standard_peripheral/Source/gd32vw55x_qspi.c ****       \arg        QSPI_FLAG_TERR: transfer error flag
 395:../Firmware/GD32VW55x_standard_peripheral/Source/gd32vw55x_qspi.c ****       \arg        QSPI_FLAG_TC: transfer complete flag
 396:../Firmware/GD32VW55x_standard_peripheral/Source/gd32vw55x_qspi.c ****       \arg        QSPI_FLAG_RPMF: read polling match flag
 397:../Firmware/GD32VW55x_standard_peripheral/Source/gd32vw55x_qspi.c ****       \arg        QSPI_FLAG_TMOUT: timeout flag
 398:../Firmware/GD32VW55x_standard_peripheral/Source/gd32vw55x_qspi.c ****     \param[out] none
 399:../Firmware/GD32VW55x_standard_peripheral/Source/gd32vw55x_qspi.c ****     \retval     none
 400:../Firmware/GD32VW55x_standard_peripheral/Source/gd32vw55x_qspi.c **** */
 401:../Firmware/GD32VW55x_standard_peripheral/Source/gd32vw55x_qspi.c **** void qspi_flag_clear(uint32_t flag)
 402:../Firmware/GD32VW55x_standard_peripheral/Source/gd32vw55x_qspi.c **** {
 914              		.loc 1 402 1
 915              		.cfi_startproc
 916 0000 0111     		addi	sp,sp,-32
 917              		.cfi_def_cfa_offset 32
 918 0002 22CE     		sw	s0,28(sp)
 919              		.cfi_offset 8, -4
 920 0004 0010     		addi	s0,sp,32
 921              		.cfi_def_cfa 8, 0
 922 0006 2326A4FE 		sw	a0,-20(s0)
 403:../Firmware/GD32VW55x_standard_peripheral/Source/gd32vw55x_qspi.c ****     QSPI_STATC |= (uint32_t)flag;
 923              		.loc 1 403 16
 924 000a B7670240 		li	a5,1073897472
 925 000e 9387C780 		addi	a5,a5,-2036
 926 0012 9443     		lw	a3,0(a5)
 927 0014 B7670240 		li	a5,1073897472
 928 0018 9387C780 		addi	a5,a5,-2036
 929 001c 0327C4FE 		lw	a4,-20(s0)
 930 0020 558F     		or	a4,a3,a4
 931 0022 98C3     		sw	a4,0(a5)
 404:../Firmware/GD32VW55x_standard_peripheral/Source/gd32vw55x_qspi.c **** }
 932              		.loc 1 404 1
 933 0024 0100     		nop
 934 0026 7244     		lw	s0,28(sp)
 935              		.cfi_restore 8
 936              		.cfi_def_cfa 2, 32
 937 0028 0561     		addi	sp,sp,32
 938              		.cfi_def_cfa_offset 0
 939 002a 8280     		jr	ra
 940              		.cfi_endproc
 941              	.LFE363:
 943              		.section	.text.qspi_interrupt_enable,"ax",@progbits
 944              		.align	1
 945              		.globl	qspi_interrupt_enable
 947              	qspi_interrupt_enable:
 948              	.LFB364:
 405:../Firmware/GD32VW55x_standard_peripheral/Source/gd32vw55x_qspi.c **** 
 406:../Firmware/GD32VW55x_standard_peripheral/Source/gd32vw55x_qspi.c **** /*!
 407:../Firmware/GD32VW55x_standard_peripheral/Source/gd32vw55x_qspi.c ****     \brief      enable QSPI interrupt
 408:../Firmware/GD32VW55x_standard_peripheral/Source/gd32vw55x_qspi.c ****     \param[in]  interrupt: QSPI interrupt
 409:../Firmware/GD32VW55x_standard_peripheral/Source/gd32vw55x_qspi.c ****                 one or more parameters can be selected which is shown as below:
 410:../Firmware/GD32VW55x_standard_peripheral/Source/gd32vw55x_qspi.c ****       \arg        QSPI_INT_TC: transfer complete interrupt
 411:../Firmware/GD32VW55x_standard_peripheral/Source/gd32vw55x_qspi.c ****       \arg        QSPI_INT_FT: FIFO threshold interrupt
 412:../Firmware/GD32VW55x_standard_peripheral/Source/gd32vw55x_qspi.c ****       \arg        QSPI_INT_TERR: transfer error interrupt
 413:../Firmware/GD32VW55x_standard_peripheral/Source/gd32vw55x_qspi.c ****       \arg        QSPI_INT_RPMF: read polling match interrupt
 414:../Firmware/GD32VW55x_standard_peripheral/Source/gd32vw55x_qspi.c ****       \arg        QSPI_INT_TMOUT: timeout interrupt
 415:../Firmware/GD32VW55x_standard_peripheral/Source/gd32vw55x_qspi.c ****     \param[out] none
 416:../Firmware/GD32VW55x_standard_peripheral/Source/gd32vw55x_qspi.c ****     \retval     none
 417:../Firmware/GD32VW55x_standard_peripheral/Source/gd32vw55x_qspi.c **** */
 418:../Firmware/GD32VW55x_standard_peripheral/Source/gd32vw55x_qspi.c **** void qspi_interrupt_enable(uint32_t interrupt)
 419:../Firmware/GD32VW55x_standard_peripheral/Source/gd32vw55x_qspi.c **** {
 949              		.loc 1 419 1
 950              		.cfi_startproc
 951 0000 0111     		addi	sp,sp,-32
 952              		.cfi_def_cfa_offset 32
 953 0002 22CE     		sw	s0,28(sp)
 954              		.cfi_offset 8, -4
 955 0004 0010     		addi	s0,sp,32
 956              		.cfi_def_cfa 8, 0
 957 0006 2326A4FE 		sw	a0,-20(s0)
 420:../Firmware/GD32VW55x_standard_peripheral/Source/gd32vw55x_qspi.c ****     QSPI_CTL |= (uint32_t)interrupt;
 958              		.loc 1 420 14
 959 000a B7670240 		li	a5,1073897472
 960 000e 93870780 		addi	a5,a5,-2048
 961 0012 9443     		lw	a3,0(a5)
 962 0014 B7670240 		li	a5,1073897472
 963 0018 93870780 		addi	a5,a5,-2048
 964 001c 0327C4FE 		lw	a4,-20(s0)
 965 0020 558F     		or	a4,a3,a4
 966 0022 98C3     		sw	a4,0(a5)
 421:../Firmware/GD32VW55x_standard_peripheral/Source/gd32vw55x_qspi.c **** }
 967              		.loc 1 421 1
 968 0024 0100     		nop
 969 0026 7244     		lw	s0,28(sp)
 970              		.cfi_restore 8
 971              		.cfi_def_cfa 2, 32
 972 0028 0561     		addi	sp,sp,32
 973              		.cfi_def_cfa_offset 0
 974 002a 8280     		jr	ra
 975              		.cfi_endproc
 976              	.LFE364:
 978              		.section	.text.qspi_interrupt_disable,"ax",@progbits
 979              		.align	1
 980              		.globl	qspi_interrupt_disable
 982              	qspi_interrupt_disable:
 983              	.LFB365:
 422:../Firmware/GD32VW55x_standard_peripheral/Source/gd32vw55x_qspi.c **** 
 423:../Firmware/GD32VW55x_standard_peripheral/Source/gd32vw55x_qspi.c **** /*!
 424:../Firmware/GD32VW55x_standard_peripheral/Source/gd32vw55x_qspi.c ****     \brief      disable QSPI interrupt
 425:../Firmware/GD32VW55x_standard_peripheral/Source/gd32vw55x_qspi.c ****     \param[in]  interrupt: QSPI interrupt
 426:../Firmware/GD32VW55x_standard_peripheral/Source/gd32vw55x_qspi.c ****                 one or more parameters can be selected which is shown as below:
 427:../Firmware/GD32VW55x_standard_peripheral/Source/gd32vw55x_qspi.c ****       \arg        QSPI_INT_TC: transfer complete interrupt
 428:../Firmware/GD32VW55x_standard_peripheral/Source/gd32vw55x_qspi.c ****       \arg        QSPI_INT_FT: FIFO threshold interrupt
 429:../Firmware/GD32VW55x_standard_peripheral/Source/gd32vw55x_qspi.c ****       \arg        QSPI_INT_TERR: transfer error interrupt
 430:../Firmware/GD32VW55x_standard_peripheral/Source/gd32vw55x_qspi.c ****       \arg        QSPI_INT_RPMF: read polling match interrupt
 431:../Firmware/GD32VW55x_standard_peripheral/Source/gd32vw55x_qspi.c ****       \arg        QSPI_INT_TMOUT: timeout interrupt
 432:../Firmware/GD32VW55x_standard_peripheral/Source/gd32vw55x_qspi.c ****     \param[out] none
 433:../Firmware/GD32VW55x_standard_peripheral/Source/gd32vw55x_qspi.c ****     \retval     none
 434:../Firmware/GD32VW55x_standard_peripheral/Source/gd32vw55x_qspi.c **** */
 435:../Firmware/GD32VW55x_standard_peripheral/Source/gd32vw55x_qspi.c **** void qspi_interrupt_disable(uint32_t interrupt)
 436:../Firmware/GD32VW55x_standard_peripheral/Source/gd32vw55x_qspi.c **** {
 984              		.loc 1 436 1
 985              		.cfi_startproc
 986 0000 0111     		addi	sp,sp,-32
 987              		.cfi_def_cfa_offset 32
 988 0002 22CE     		sw	s0,28(sp)
 989              		.cfi_offset 8, -4
 990 0004 0010     		addi	s0,sp,32
 991              		.cfi_def_cfa 8, 0
 992 0006 2326A4FE 		sw	a0,-20(s0)
 437:../Firmware/GD32VW55x_standard_peripheral/Source/gd32vw55x_qspi.c ****     QSPI_CTL &= ~(uint32_t)interrupt;
 993              		.loc 1 437 14
 994 000a B7670240 		li	a5,1073897472
 995 000e 93870780 		addi	a5,a5,-2048
 996 0012 9443     		lw	a3,0(a5)
 997              		.loc 1 437 17
 998 0014 8327C4FE 		lw	a5,-20(s0)
 999 0018 13C7F7FF 		not	a4,a5
 1000              		.loc 1 437 14
 1001 001c B7670240 		li	a5,1073897472
 1002 0020 93870780 		addi	a5,a5,-2048
 1003 0024 758F     		and	a4,a3,a4
 1004 0026 98C3     		sw	a4,0(a5)
 438:../Firmware/GD32VW55x_standard_peripheral/Source/gd32vw55x_qspi.c **** }
 1005              		.loc 1 438 1
 1006 0028 0100     		nop
 1007 002a 7244     		lw	s0,28(sp)
 1008              		.cfi_restore 8
 1009              		.cfi_def_cfa 2, 32
 1010 002c 0561     		addi	sp,sp,32
 1011              		.cfi_def_cfa_offset 0
 1012 002e 8280     		jr	ra
 1013              		.cfi_endproc
 1014              	.LFE365:
 1016              		.section	.text.qspi_interrupt_flag_get,"ax",@progbits
 1017              		.align	1
 1018              		.globl	qspi_interrupt_flag_get
 1020              	qspi_interrupt_flag_get:
 1021              	.LFB366:
 439:../Firmware/GD32VW55x_standard_peripheral/Source/gd32vw55x_qspi.c **** 
 440:../Firmware/GD32VW55x_standard_peripheral/Source/gd32vw55x_qspi.c **** /*!
 441:../Firmware/GD32VW55x_standard_peripheral/Source/gd32vw55x_qspi.c ****     \brief      get QSPI interrupt flag status
 442:../Firmware/GD32VW55x_standard_peripheral/Source/gd32vw55x_qspi.c ****     \param[in]  int_flag: QSPI interrupt flag
 443:../Firmware/GD32VW55x_standard_peripheral/Source/gd32vw55x_qspi.c ****                 only one parameter can be selected which are shown as below:
 444:../Firmware/GD32VW55x_standard_peripheral/Source/gd32vw55x_qspi.c ****       \arg        QSPI_INT_FLAG_TERR: transfer error interrupt flag
 445:../Firmware/GD32VW55x_standard_peripheral/Source/gd32vw55x_qspi.c ****       \arg        QSPI_INT_FLAG_TC: transfer complete interrupt flag
 446:../Firmware/GD32VW55x_standard_peripheral/Source/gd32vw55x_qspi.c ****       \arg        QSPI_INT_FLAG_FT: FIFO threshold interrupt flag
 447:../Firmware/GD32VW55x_standard_peripheral/Source/gd32vw55x_qspi.c ****       \arg        QSPI_INT_FLAG_RPMF: read polling match interrupt flag
 448:../Firmware/GD32VW55x_standard_peripheral/Source/gd32vw55x_qspi.c ****       \arg        QSPI_INT_FLAG_TMOUT: timeout interrupt flag
 449:../Firmware/GD32VW55x_standard_peripheral/Source/gd32vw55x_qspi.c ****     \param[out] none
 450:../Firmware/GD32VW55x_standard_peripheral/Source/gd32vw55x_qspi.c ****     \retval     FlagStatus: SET or RESET
 451:../Firmware/GD32VW55x_standard_peripheral/Source/gd32vw55x_qspi.c **** */
 452:../Firmware/GD32VW55x_standard_peripheral/Source/gd32vw55x_qspi.c **** FlagStatus qspi_interrupt_flag_get(uint32_t int_flag)
 453:../Firmware/GD32VW55x_standard_peripheral/Source/gd32vw55x_qspi.c **** {
 1022              		.loc 1 453 1
 1023              		.cfi_startproc
 1024 0000 7971     		addi	sp,sp,-48
 1025              		.cfi_def_cfa_offset 48
 1026 0002 22D6     		sw	s0,44(sp)
 1027              		.cfi_offset 8, -4
 1028 0004 0018     		addi	s0,sp,48
 1029              		.cfi_def_cfa 8, 0
 1030 0006 232EA4FC 		sw	a0,-36(s0)
 454:../Firmware/GD32VW55x_standard_peripheral/Source/gd32vw55x_qspi.c ****     uint32_t reg1 = QSPI_CTL;
 1031              		.loc 1 454 21
 1032 000a B7670240 		li	a5,1073897472
 1033 000e 93870780 		addi	a5,a5,-2048
 1034              		.loc 1 454 14
 1035 0012 9C43     		lw	a5,0(a5)
 1036 0014 2326F4FE 		sw	a5,-20(s0)
 455:../Firmware/GD32VW55x_standard_peripheral/Source/gd32vw55x_qspi.c ****     uint32_t reg2 = QSPI_STAT;
 1037              		.loc 1 455 21
 1038 0018 B7670240 		li	a5,1073897472
 1039 001c 93878780 		addi	a5,a5,-2040
 1040              		.loc 1 455 14
 1041 0020 9C43     		lw	a5,0(a5)
 1042 0022 2324F4FE 		sw	a5,-24(s0)
 1043 0026 0327C4FD 		lw	a4,-36(s0)
 1044 002a C147     		li	a5,16
 1045 002c 63E2E70A 		bgtu	a4,a5,.L43
 1046 0030 8327C4FD 		lw	a5,-36(s0)
 1047 0034 13972700 		slli	a4,a5,2
 1048 0038 97070000 		lla	a5,.L35
 1048      93870700 
 1049 0040 BA97     		add	a5,a4,a5
 1050 0042 9843     		lw	a4,0(a5)
 1051 0044 97070000 		lla	a5,.L35
 1051      93870700 
 1052 004c BA97     		add	a5,a4,a5
 1053 004e 8287     		jr	a5
 1054              		.section	.rodata.qspi_interrupt_flag_get,"a",@progbits
 1055              		.align	2
 1056              		.align	2
 1057              	.L35:
 1058 0000 00000000 		.word	.L43-.L35
 1059 0004 00000000 		.word	.L39-.L35
 1060 0008 00000000 		.word	.L38-.L35
 1061 000c 00000000 		.word	.L43-.L35
 1062 0010 00000000 		.word	.L37-.L35
 1063 0014 00000000 		.word	.L43-.L35
 1064 0018 00000000 		.word	.L43-.L35
 1065 001c 00000000 		.word	.L43-.L35
 1066 0020 00000000 		.word	.L36-.L35
 1067 0024 00000000 		.word	.L43-.L35
 1068 0028 00000000 		.word	.L43-.L35
 1069 002c 00000000 		.word	.L43-.L35
 1070 0030 00000000 		.word	.L43-.L35
 1071 0034 00000000 		.word	.L43-.L35
 1072 0038 00000000 		.word	.L43-.L35
 1073 003c 00000000 		.word	.L43-.L35
 1074 0040 00000000 		.word	.L34-.L35
 1075              		.section	.text.qspi_interrupt_flag_get
 1076              	.L39:
 456:../Firmware/GD32VW55x_standard_peripheral/Source/gd32vw55x_qspi.c **** 
 457:../Firmware/GD32VW55x_standard_peripheral/Source/gd32vw55x_qspi.c ****     switch(int_flag) {
 458:../Firmware/GD32VW55x_standard_peripheral/Source/gd32vw55x_qspi.c ****     /* QSPI transfer error interrupt flag */
 459:../Firmware/GD32VW55x_standard_peripheral/Source/gd32vw55x_qspi.c ****     case QSPI_INT_FLAG_TERR:
 460:../Firmware/GD32VW55x_standard_peripheral/Source/gd32vw55x_qspi.c ****         reg1 = reg1 & QSPI_STAT_TERR;
 1077              		.loc 1 460 14
 1078 0050 8327C4FE 		lw	a5,-20(s0)
 1079 0054 858B     		andi	a5,a5,1
 1080 0056 2326F4FE 		sw	a5,-20(s0)
 461:../Firmware/GD32VW55x_standard_peripheral/Source/gd32vw55x_qspi.c ****         reg2 = reg2 & QSPI_CTL_TERRIE;
 1081              		.loc 1 461 14
 1082 005a 032784FE 		lw	a4,-24(s0)
 1083 005e C167     		li	a5,65536
 1084 0060 F98F     		and	a5,a4,a5
 1085 0062 2324F4FE 		sw	a5,-24(s0)
 462:../Firmware/GD32VW55x_standard_peripheral/Source/gd32vw55x_qspi.c ****         break;
 1086              		.loc 1 462 9
 1087 0066 B5A0     		j	.L40
 1088              	.L38:
 463:../Firmware/GD32VW55x_standard_peripheral/Source/gd32vw55x_qspi.c ****     /* QSPI transfer complete interrupt flag */
 464:../Firmware/GD32VW55x_standard_peripheral/Source/gd32vw55x_qspi.c ****     case QSPI_INT_FLAG_TC:
 465:../Firmware/GD32VW55x_standard_peripheral/Source/gd32vw55x_qspi.c ****         reg1 = reg1 & QSPI_STAT_TC;
 1089              		.loc 1 465 14
 1090 0068 8327C4FE 		lw	a5,-20(s0)
 1091 006c 898B     		andi	a5,a5,2
 1092 006e 2326F4FE 		sw	a5,-20(s0)
 466:../Firmware/GD32VW55x_standard_peripheral/Source/gd32vw55x_qspi.c ****         reg2 = reg2 & QSPI_CTL_TCIE;
 1093              		.loc 1 466 14
 1094 0072 032784FE 		lw	a4,-24(s0)
 1095 0076 B7070200 		li	a5,131072
 1096 007a F98F     		and	a5,a4,a5
 1097 007c 2324F4FE 		sw	a5,-24(s0)
 467:../Firmware/GD32VW55x_standard_peripheral/Source/gd32vw55x_qspi.c ****         break;
 1098              		.loc 1 467 9
 1099 0080 89A8     		j	.L40
 1100              	.L37:
 468:../Firmware/GD32VW55x_standard_peripheral/Source/gd32vw55x_qspi.c ****     /* QSPI FIFO threshold interrupt flag */
 469:../Firmware/GD32VW55x_standard_peripheral/Source/gd32vw55x_qspi.c ****     case QSPI_INT_FLAG_FT:
 470:../Firmware/GD32VW55x_standard_peripheral/Source/gd32vw55x_qspi.c ****         reg1 = reg1 & QSPI_STAT_FT;
 1101              		.loc 1 470 14
 1102 0082 8327C4FE 		lw	a5,-20(s0)
 1103 0086 918B     		andi	a5,a5,4
 1104 0088 2326F4FE 		sw	a5,-20(s0)
 471:../Firmware/GD32VW55x_standard_peripheral/Source/gd32vw55x_qspi.c ****         reg2 = reg2 & QSPI_CTL_FTIE;
 1105              		.loc 1 471 14
 1106 008c 032784FE 		lw	a4,-24(s0)
 1107 0090 B7070400 		li	a5,262144
 1108 0094 F98F     		and	a5,a4,a5
 1109 0096 2324F4FE 		sw	a5,-24(s0)
 472:../Firmware/GD32VW55x_standard_peripheral/Source/gd32vw55x_qspi.c ****         break;
 1110              		.loc 1 472 9
 1111 009a 25A8     		j	.L40
 1112              	.L36:
 473:../Firmware/GD32VW55x_standard_peripheral/Source/gd32vw55x_qspi.c ****     /* QSPI status match interrupt flag */
 474:../Firmware/GD32VW55x_standard_peripheral/Source/gd32vw55x_qspi.c ****     case QSPI_INT_FLAG_RPMF:
 475:../Firmware/GD32VW55x_standard_peripheral/Source/gd32vw55x_qspi.c ****         reg1 = reg1 & QSPI_STAT_RPMF;
 1113              		.loc 1 475 14
 1114 009c 8327C4FE 		lw	a5,-20(s0)
 1115 00a0 A18B     		andi	a5,a5,8
 1116 00a2 2326F4FE 		sw	a5,-20(s0)
 476:../Firmware/GD32VW55x_standard_peripheral/Source/gd32vw55x_qspi.c ****         reg2 = reg2 & QSPI_CTL_RPMFIE;
 1117              		.loc 1 476 14
 1118 00a6 032784FE 		lw	a4,-24(s0)
 1119 00aa B7070800 		li	a5,524288
 1120 00ae F98F     		and	a5,a4,a5
 1121 00b0 2324F4FE 		sw	a5,-24(s0)
 477:../Firmware/GD32VW55x_standard_peripheral/Source/gd32vw55x_qspi.c ****         break;
 1122              		.loc 1 477 9
 1123 00b4 39A8     		j	.L40
 1124              	.L34:
 478:../Firmware/GD32VW55x_standard_peripheral/Source/gd32vw55x_qspi.c ****     /* QSPI timeout interrupt flag */
 479:../Firmware/GD32VW55x_standard_peripheral/Source/gd32vw55x_qspi.c ****     case QSPI_INT_FLAG_TMOUT:
 480:../Firmware/GD32VW55x_standard_peripheral/Source/gd32vw55x_qspi.c ****         reg1 = reg1 & QSPI_STAT_TMOUT;
 1125              		.loc 1 480 14
 1126 00b6 8327C4FE 		lw	a5,-20(s0)
 1127 00ba C18B     		andi	a5,a5,16
 1128 00bc 2326F4FE 		sw	a5,-20(s0)
 481:../Firmware/GD32VW55x_standard_peripheral/Source/gd32vw55x_qspi.c ****         reg2 = reg2 & QSPI_CTL_TMOUTIE;
 1129              		.loc 1 481 14
 1130 00c0 032784FE 		lw	a4,-24(s0)
 1131 00c4 B7071000 		li	a5,1048576
 1132 00c8 F98F     		and	a5,a4,a5
 1133 00ca 2324F4FE 		sw	a5,-24(s0)
 482:../Firmware/GD32VW55x_standard_peripheral/Source/gd32vw55x_qspi.c ****         break;
 1134              		.loc 1 482 9
 1135 00ce 11A0     		j	.L40
 1136              	.L43:
 483:../Firmware/GD32VW55x_standard_peripheral/Source/gd32vw55x_qspi.c ****     default :
 484:../Firmware/GD32VW55x_standard_peripheral/Source/gd32vw55x_qspi.c ****         break;
 1137              		.loc 1 484 9
 1138 00d0 0100     		nop
 1139              	.L40:
 485:../Firmware/GD32VW55x_standard_peripheral/Source/gd32vw55x_qspi.c ****     }
 486:../Firmware/GD32VW55x_standard_peripheral/Source/gd32vw55x_qspi.c ****     /* get QSPI interrupt flag status */
 487:../Firmware/GD32VW55x_standard_peripheral/Source/gd32vw55x_qspi.c ****     if(reg1 && reg2) {
 1140              		.loc 1 487 7
 1141 00d2 8327C4FE 		lw	a5,-20(s0)
 1142 00d6 91C7     		beq	a5,zero,.L41
 1143              		.loc 1 487 13 discriminator 1
 1144 00d8 832784FE 		lw	a5,-24(s0)
 1145 00dc 99C3     		beq	a5,zero,.L41
 488:../Firmware/GD32VW55x_standard_peripheral/Source/gd32vw55x_qspi.c ****         return SET;
 1146              		.loc 1 488 16
 1147 00de 8547     		li	a5,1
 1148 00e0 11A0     		j	.L42
 1149              	.L41:
 489:../Firmware/GD32VW55x_standard_peripheral/Source/gd32vw55x_qspi.c ****     } else {
 490:../Firmware/GD32VW55x_standard_peripheral/Source/gd32vw55x_qspi.c ****         return RESET;
 1150              		.loc 1 490 16
 1151 00e2 8147     		li	a5,0
 1152              	.L42:
 491:../Firmware/GD32VW55x_standard_peripheral/Source/gd32vw55x_qspi.c ****     }
 492:../Firmware/GD32VW55x_standard_peripheral/Source/gd32vw55x_qspi.c **** }
 1153              		.loc 1 492 1
 1154 00e4 3E85     		mv	a0,a5
 1155 00e6 3254     		lw	s0,44(sp)
 1156              		.cfi_restore 8
 1157              		.cfi_def_cfa 2, 48
 1158 00e8 4561     		addi	sp,sp,48
 1159              		.cfi_def_cfa_offset 0
 1160 00ea 8280     		jr	ra
 1161              		.cfi_endproc
 1162              	.LFE366:
 1164              		.section	.text.qspi_interrupt_flag_clear,"ax",@progbits
 1165              		.align	1
 1166              		.globl	qspi_interrupt_flag_clear
 1168              	qspi_interrupt_flag_clear:
 1169              	.LFB367:
 493:../Firmware/GD32VW55x_standard_peripheral/Source/gd32vw55x_qspi.c **** 
 494:../Firmware/GD32VW55x_standard_peripheral/Source/gd32vw55x_qspi.c **** /*!
 495:../Firmware/GD32VW55x_standard_peripheral/Source/gd32vw55x_qspi.c ****     \brief      clear QSPI interrupt flag status
 496:../Firmware/GD32VW55x_standard_peripheral/Source/gd32vw55x_qspi.c ****     \param[in]  int_flag: QSPI interrupt flag
 497:../Firmware/GD32VW55x_standard_peripheral/Source/gd32vw55x_qspi.c ****                 one or more parameters can be selected which are shown as below:
 498:../Firmware/GD32VW55x_standard_peripheral/Source/gd32vw55x_qspi.c ****       \arg        QSPI_INT_FLAG_TERR: transfer error interrupt flag
 499:../Firmware/GD32VW55x_standard_peripheral/Source/gd32vw55x_qspi.c ****       \arg        QSPI_INT_FLAG_TC: transfer complete interrupt flag
 500:../Firmware/GD32VW55x_standard_peripheral/Source/gd32vw55x_qspi.c ****       \arg        QSPI_INT_FLAG_RPMF: read polling match interrupt flag
 501:../Firmware/GD32VW55x_standard_peripheral/Source/gd32vw55x_qspi.c ****       \arg        QSPI_INT_FLAG_TMOUT: timeout interrupt flag
 502:../Firmware/GD32VW55x_standard_peripheral/Source/gd32vw55x_qspi.c ****     \param[out] none
 503:../Firmware/GD32VW55x_standard_peripheral/Source/gd32vw55x_qspi.c ****     \retval     none
 504:../Firmware/GD32VW55x_standard_peripheral/Source/gd32vw55x_qspi.c **** */
 505:../Firmware/GD32VW55x_standard_peripheral/Source/gd32vw55x_qspi.c **** void qspi_interrupt_flag_clear(uint32_t int_flag)
 506:../Firmware/GD32VW55x_standard_peripheral/Source/gd32vw55x_qspi.c **** {
 1170              		.loc 1 506 1
 1171              		.cfi_startproc
 1172 0000 0111     		addi	sp,sp,-32
 1173              		.cfi_def_cfa_offset 32
 1174 0002 22CE     		sw	s0,28(sp)
 1175              		.cfi_offset 8, -4
 1176 0004 0010     		addi	s0,sp,32
 1177              		.cfi_def_cfa 8, 0
 1178 0006 2326A4FE 		sw	a0,-20(s0)
 507:../Firmware/GD32VW55x_standard_peripheral/Source/gd32vw55x_qspi.c ****     QSPI_STATC |= (uint32_t)int_flag;
 1179              		.loc 1 507 16
 1180 000a B7670240 		li	a5,1073897472
 1181 000e 9387C780 		addi	a5,a5,-2036
 1182 0012 9443     		lw	a3,0(a5)
 1183 0014 B7670240 		li	a5,1073897472
 1184 0018 9387C780 		addi	a5,a5,-2036
 1185 001c 0327C4FE 		lw	a4,-20(s0)
 1186 0020 558F     		or	a4,a3,a4
 1187 0022 98C3     		sw	a4,0(a5)
 508:../Firmware/GD32VW55x_standard_peripheral/Source/gd32vw55x_qspi.c **** }
 1188              		.loc 1 508 1
 1189 0024 0100     		nop
 1190 0026 7244     		lw	s0,28(sp)
 1191              		.cfi_restore 8
 1192              		.cfi_def_cfa 2, 32
 1193 0028 0561     		addi	sp,sp,32
 1194              		.cfi_def_cfa_offset 0
 1195 002a 8280     		jr	ra
 1196              		.cfi_endproc
 1197              	.LFE367:
 1199              		.section	.text.qspi_config,"ax",@progbits
 1200              		.align	1
 1202              	qspi_config:
 1203              	.LFB368:
 509:../Firmware/GD32VW55x_standard_peripheral/Source/gd32vw55x_qspi.c **** 
 510:../Firmware/GD32VW55x_standard_peripheral/Source/gd32vw55x_qspi.c **** /*!
 511:../Firmware/GD32VW55x_standard_peripheral/Source/gd32vw55x_qspi.c ****     \brief      configure QSPI functional mode
 512:../Firmware/GD32VW55x_standard_peripheral/Source/gd32vw55x_qspi.c ****     \param[in]  cmd: QSPI command parameter structure
 513:../Firmware/GD32VW55x_standard_peripheral/Source/gd32vw55x_qspi.c ****                              and the member values are shown as below:
 514:../Firmware/GD32VW55x_standard_peripheral/Source/gd32vw55x_qspi.c ****                   instruction_mode: QSPI_INSTRUCTION_NONE, QSPI_INSTRUCTION_1_LINE,
 515:../Firmware/GD32VW55x_standard_peripheral/Source/gd32vw55x_qspi.c ****                                     QSPI_INSTRUCTION_2_LINES, QSPI_INSTRUCTION_4_LINES
 516:../Firmware/GD32VW55x_standard_peripheral/Source/gd32vw55x_qspi.c ****                   instruction: reference flash commands description
 517:../Firmware/GD32VW55x_standard_peripheral/Source/gd32vw55x_qspi.c ****                   addr_mode: QSPI_ADDR_NONE, QSPI_ADDR_1_LINE, QSPI_ADDR_2_LINES, QSPI_ADDR_4_LINES
 518:../Firmware/GD32VW55x_standard_peripheral/Source/gd32vw55x_qspi.c ****                   addr_size: QSPI_ADDR_8_BITS, QSPI_ADDR_16_BITS, QSPI_ADDR_24_BITS, QSPI_ADDR_32_B
 519:../Firmware/GD32VW55x_standard_peripheral/Source/gd32vw55x_qspi.c ****                   addr: 0-flash size
 520:../Firmware/GD32VW55x_standard_peripheral/Source/gd32vw55x_qspi.c ****                   altebytes_mode: QSPI_ALTE_BYTES_NONE, QSPI_ALTE_BYTES_1_LINE,
 521:../Firmware/GD32VW55x_standard_peripheral/Source/gd32vw55x_qspi.c ****                                   QSPI_ALTE_BYTES_2_LINES, QSPI_ALTE_BYTES_4_LINES
 522:../Firmware/GD32VW55x_standard_peripheral/Source/gd32vw55x_qspi.c ****                   altebytes_size: QSPI_ALTE_BYTES_8_BITS, QSPI_ALTE_BYTES_16_BITS,
 523:../Firmware/GD32VW55x_standard_peripheral/Source/gd32vw55x_qspi.c ****                                   QSPI_ALTE_BYTES_24_BITS, QSPI_ALTE_BYTES_32_BITS
 524:../Firmware/GD32VW55x_standard_peripheral/Source/gd32vw55x_qspi.c ****                   altebytes: 0-0xFFFFFFFF
 525:../Firmware/GD32VW55x_standard_peripheral/Source/gd32vw55x_qspi.c ****                   dummycycles: between 0 and 31
 526:../Firmware/GD32VW55x_standard_peripheral/Source/gd32vw55x_qspi.c ****                   data_mode: QSPI_DATA_NONE, QSPI_DATA_1_LINE, QSPI_DATA_2_LINES, QSPI_DATA_4_LINES
 527:../Firmware/GD32VW55x_standard_peripheral/Source/gd32vw55x_qspi.c ****                   data_length: 0-0xFFFFFFFF
 528:../Firmware/GD32VW55x_standard_peripheral/Source/gd32vw55x_qspi.c ****                   sioo_mode: QSPI_SIOO_INST_EVERY_CMD, QSPI_SIOO_INST_ONLY_FIRST_CMD
 529:../Firmware/GD32VW55x_standard_peripheral/Source/gd32vw55x_qspi.c ****     \param[in]  functionalmode: QSPI functional mode select
 530:../Firmware/GD32VW55x_standard_peripheral/Source/gd32vw55x_qspi.c ****                 only one parameter can be selected which is shown as below:
 531:../Firmware/GD32VW55x_standard_peripheral/Source/gd32vw55x_qspi.c ****       \arg        QSPI_NORMAL_WRITE
 532:../Firmware/GD32VW55x_standard_peripheral/Source/gd32vw55x_qspi.c ****       \arg        QSPI_NORMAL_READ
 533:../Firmware/GD32VW55x_standard_peripheral/Source/gd32vw55x_qspi.c ****       \arg        QSPI_READ_POLLING
 534:../Firmware/GD32VW55x_standard_peripheral/Source/gd32vw55x_qspi.c ****       \arg        QSPI_MEMORY_MAPPED
 535:../Firmware/GD32VW55x_standard_peripheral/Source/gd32vw55x_qspi.c ****     \param[out] none
 536:../Firmware/GD32VW55x_standard_peripheral/Source/gd32vw55x_qspi.c ****     \retval     none
 537:../Firmware/GD32VW55x_standard_peripheral/Source/gd32vw55x_qspi.c **** */
 538:../Firmware/GD32VW55x_standard_peripheral/Source/gd32vw55x_qspi.c **** static void qspi_config(qspi_command_struct *cmd, uint32_t functionalmode)
 539:../Firmware/GD32VW55x_standard_peripheral/Source/gd32vw55x_qspi.c **** {
 1204              		.loc 1 539 1
 1205              		.cfi_startproc
 1206 0000 0111     		addi	sp,sp,-32
 1207              		.cfi_def_cfa_offset 32
 1208 0002 22CE     		sw	s0,28(sp)
 1209              		.cfi_offset 8, -4
 1210 0004 0010     		addi	s0,sp,32
 1211              		.cfi_def_cfa 8, 0
 1212 0006 2326A4FE 		sw	a0,-20(s0)
 1213 000a 2324B4FE 		sw	a1,-24(s0)
 540:../Firmware/GD32VW55x_standard_peripheral/Source/gd32vw55x_qspi.c ****     if((cmd->data_mode != QSPI_DATA_NONE) && (functionalmode != QSPI_MEMORY_MAPPED)) {
 1214              		.loc 1 540 12
 1215 000e 8327C4FE 		lw	a5,-20(s0)
 1216 0012 DC53     		lw	a5,36(a5)
 1217              		.loc 1 540 7
 1218 0014 85C3     		beq	a5,zero,.L46
 1219              		.loc 1 540 43 discriminator 1
 1220 0016 032784FE 		lw	a4,-24(s0)
 1221 001a B707000C 		li	a5,201326592
 1222 001e 630BF700 		beq	a4,a5,.L46
 541:../Firmware/GD32VW55x_standard_peripheral/Source/gd32vw55x_qspi.c ****         /* configure QSPI_DTLEN register with the number of data to read or write */
 542:../Firmware/GD32VW55x_standard_peripheral/Source/gd32vw55x_qspi.c ****         QSPI_DTLEN = cmd->data_length - 1U;
 1223              		.loc 1 542 25
 1224 0022 8327C4FE 		lw	a5,-20(s0)
 1225 0026 9857     		lw	a4,40(a5)
 1226              		.loc 1 542 9
 1227 0028 B7670240 		li	a5,1073897472
 1228 002c 93870781 		addi	a5,a5,-2032
 1229              		.loc 1 542 39
 1230 0030 7D17     		addi	a4,a4,-1
 1231              		.loc 1 542 20
 1232 0032 98C3     		sw	a4,0(a5)
 1233              	.L46:
 543:../Firmware/GD32VW55x_standard_peripheral/Source/gd32vw55x_qspi.c ****     }
 544:../Firmware/GD32VW55x_standard_peripheral/Source/gd32vw55x_qspi.c **** 
 545:../Firmware/GD32VW55x_standard_peripheral/Source/gd32vw55x_qspi.c ****     if(cmd->instruction_mode != QSPI_INSTRUCTION_NONE) {
 1234              		.loc 1 545 11
 1235 0034 8327C4FE 		lw	a5,-20(s0)
 1236 0038 9C43     		lw	a5,0(a5)
 1237              		.loc 1 545 7
 1238 003a 638A071A 		beq	a5,zero,.L47
 546:../Firmware/GD32VW55x_standard_peripheral/Source/gd32vw55x_qspi.c ****         if(cmd->altebytes_mode != QSPI_ALTE_BYTES_NONE) {
 1239              		.loc 1 546 15
 1240 003e 8327C4FE 		lw	a5,-20(s0)
 1241 0042 DC4B     		lw	a5,20(a5)
 1242              		.loc 1 546 11
 1243 0044 FDC3     		beq	a5,zero,.L48
 547:../Firmware/GD32VW55x_standard_peripheral/Source/gd32vw55x_qspi.c ****             /* configure QSPI_ALTE register with alternate bytes value */
 548:../Firmware/GD32VW55x_standard_peripheral/Source/gd32vw55x_qspi.c ****             QSPI_ALTE = cmd->altebytes;
 1244              		.loc 1 548 13
 1245 0046 B7670240 		li	a5,1073897472
 1246 004a 9387C781 		addi	a5,a5,-2020
 1247              		.loc 1 548 28
 1248 004e 0327C4FE 		lw	a4,-20(s0)
 1249 0052 584F     		lw	a4,28(a4)
 1250              		.loc 1 548 23
 1251 0054 98C3     		sw	a4,0(a5)
 549:../Firmware/GD32VW55x_standard_peripheral/Source/gd32vw55x_qspi.c **** 
 550:../Firmware/GD32VW55x_standard_peripheral/Source/gd32vw55x_qspi.c ****             if(cmd->addr_mode != QSPI_ADDR_NONE) {
 1252              		.loc 1 550 19
 1253 0056 8327C4FE 		lw	a5,-20(s0)
 1254 005a 9C47     		lw	a5,8(a5)
 1255              		.loc 1 550 15
 1256 005c ADCF     		beq	a5,zero,.L49
 551:../Firmware/GD32VW55x_standard_peripheral/Source/gd32vw55x_qspi.c ****                 /* command with instruction, address and alternate bytes */
 552:../Firmware/GD32VW55x_standard_peripheral/Source/gd32vw55x_qspi.c ****                 /* configure QSPI_TCFG register with all communications parameters */
 553:../Firmware/GD32VW55x_standard_peripheral/Source/gd32vw55x_qspi.c ****                 QSPI_TCFG = cmd->data_mode | (cmd->dummycycles << TCFG_DUMYC_OFFSET) | cmd->sioo_mo
 1257              		.loc 1 553 32
 1258 005e 8327C4FE 		lw	a5,-20(s0)
 1259 0062 D853     		lw	a4,36(a5)
 1260              		.loc 1 553 50
 1261 0064 8327C4FE 		lw	a5,-20(s0)
 1262 0068 9C53     		lw	a5,32(a5)
 1263              		.loc 1 553 64
 1264 006a CA07     		slli	a5,a5,18
 1265              		.loc 1 553 44
 1266 006c 5D8F     		or	a4,a4,a5
 1267              		.loc 1 553 91
 1268 006e 8327C4FE 		lw	a5,-20(s0)
 1269 0072 DC57     		lw	a5,44(a5)
 1270              		.loc 1 553 86
 1271 0074 5D8F     		or	a4,a4,a5
 554:../Firmware/GD32VW55x_standard_peripheral/Source/gd32vw55x_qspi.c ****                             cmd->altebytes_size | cmd->altebytes_mode |
 1272              		.loc 1 554 32
 1273 0076 8327C4FE 		lw	a5,-20(s0)
 1274 007a 9C4F     		lw	a5,24(a5)
 553:../Firmware/GD32VW55x_standard_peripheral/Source/gd32vw55x_qspi.c ****                             cmd->altebytes_size | cmd->altebytes_mode |
 1275              		.loc 1 553 103
 1276 007c 5D8F     		or	a4,a4,a5
 1277              		.loc 1 554 54
 1278 007e 8327C4FE 		lw	a5,-20(s0)
 1279 0082 DC4B     		lw	a5,20(a5)
 1280              		.loc 1 554 49
 1281 0084 5D8F     		or	a4,a4,a5
 555:../Firmware/GD32VW55x_standard_peripheral/Source/gd32vw55x_qspi.c ****                             cmd->addr_size | cmd->addr_mode | cmd->instruction_mode |
 1282              		.loc 1 555 32
 1283 0086 8327C4FE 		lw	a5,-20(s0)
 1284 008a DC47     		lw	a5,12(a5)
 554:../Firmware/GD32VW55x_standard_peripheral/Source/gd32vw55x_qspi.c ****                             cmd->altebytes_size | cmd->altebytes_mode |
 1285              		.loc 1 554 71
 1286 008c 5D8F     		or	a4,a4,a5
 1287              		.loc 1 555 49
 1288 008e 8327C4FE 		lw	a5,-20(s0)
 1289 0092 9C47     		lw	a5,8(a5)
 1290              		.loc 1 555 44
 1291 0094 5D8F     		or	a4,a4,a5
 1292              		.loc 1 555 66
 1293 0096 8327C4FE 		lw	a5,-20(s0)
 1294 009a 9C43     		lw	a5,0(a5)
 1295              		.loc 1 555 61
 1296 009c 5D8F     		or	a4,a4,a5
 556:../Firmware/GD32VW55x_standard_peripheral/Source/gd32vw55x_qspi.c ****                             cmd->instruction | functionalmode;
 1297              		.loc 1 556 32
 1298 009e 8327C4FE 		lw	a5,-20(s0)
 1299 00a2 DC43     		lw	a5,4(a5)
 555:../Firmware/GD32VW55x_standard_peripheral/Source/gd32vw55x_qspi.c ****                             cmd->addr_size | cmd->addr_mode | cmd->instruction_mode |
 1300              		.loc 1 555 85
 1301 00a4 B366F700 		or	a3,a4,a5
 553:../Firmware/GD32VW55x_standard_peripheral/Source/gd32vw55x_qspi.c ****                             cmd->altebytes_size | cmd->altebytes_mode |
 1302              		.loc 1 553 17
 1303 00a8 B7670240 		li	a5,1073897472
 1304 00ac 93874781 		addi	a5,a5,-2028
 1305              		.loc 1 556 46
 1306 00b0 032784FE 		lw	a4,-24(s0)
 1307 00b4 558F     		or	a4,a3,a4
 553:../Firmware/GD32VW55x_standard_peripheral/Source/gd32vw55x_qspi.c ****                             cmd->altebytes_size | cmd->altebytes_mode |
 1308              		.loc 1 553 27
 1309 00b6 98C3     		sw	a4,0(a5)
 557:../Firmware/GD32VW55x_standard_peripheral/Source/gd32vw55x_qspi.c **** 
 558:../Firmware/GD32VW55x_standard_peripheral/Source/gd32vw55x_qspi.c ****                 if(functionalmode != QSPI_MEMORY_MAPPED) {
 1310              		.loc 1 558 19
 1311 00b8 032784FE 		lw	a4,-24(s0)
 1312 00bc B707000C 		li	a5,201326592
 1313 00c0 6302F72C 		beq	a4,a5,.L55
 559:../Firmware/GD32VW55x_standard_peripheral/Source/gd32vw55x_qspi.c ****                     /* configure QSPI_ADDR register with address value */
 560:../Firmware/GD32VW55x_standard_peripheral/Source/gd32vw55x_qspi.c ****                     QSPI_ADDR = cmd->addr;
 1314              		.loc 1 560 21
 1315 00c4 B7670240 		li	a5,1073897472
 1316 00c8 93878781 		addi	a5,a5,-2024
 1317              		.loc 1 560 36
 1318 00cc 0327C4FE 		lw	a4,-20(s0)
 1319 00d0 184B     		lw	a4,16(a4)
 1320              		.loc 1 560 31
 1321 00d2 98C3     		sw	a4,0(a5)
 561:../Firmware/GD32VW55x_standard_peripheral/Source/gd32vw55x_qspi.c ****                 }
 562:../Firmware/GD32VW55x_standard_peripheral/Source/gd32vw55x_qspi.c ****             } else {
 563:../Firmware/GD32VW55x_standard_peripheral/Source/gd32vw55x_qspi.c ****                 /* command with instruction and alternate bytes */
 564:../Firmware/GD32VW55x_standard_peripheral/Source/gd32vw55x_qspi.c ****                 /* configure QSPI_TCFG register with all communications parameters */
 565:../Firmware/GD32VW55x_standard_peripheral/Source/gd32vw55x_qspi.c ****                 QSPI_TCFG = cmd->data_mode | (cmd->dummycycles << TCFG_DUMYC_OFFSET) | cmd->sioo_mo
 566:../Firmware/GD32VW55x_standard_peripheral/Source/gd32vw55x_qspi.c ****                             cmd->altebytes_size | cmd->altebytes_mode |
 567:../Firmware/GD32VW55x_standard_peripheral/Source/gd32vw55x_qspi.c ****                             cmd->addr_mode | cmd->instruction_mode |
 568:../Firmware/GD32VW55x_standard_peripheral/Source/gd32vw55x_qspi.c ****                             cmd->instruction | functionalmode;
 569:../Firmware/GD32VW55x_standard_peripheral/Source/gd32vw55x_qspi.c ****             }
 570:../Firmware/GD32VW55x_standard_peripheral/Source/gd32vw55x_qspi.c ****         } else {
 571:../Firmware/GD32VW55x_standard_peripheral/Source/gd32vw55x_qspi.c ****             if(cmd->addr_mode != QSPI_ADDR_NONE) {
 572:../Firmware/GD32VW55x_standard_peripheral/Source/gd32vw55x_qspi.c ****                 /* command with instruction and address */
 573:../Firmware/GD32VW55x_standard_peripheral/Source/gd32vw55x_qspi.c ****                 /* configure QSPI_TCFG register with all communications parameters */
 574:../Firmware/GD32VW55x_standard_peripheral/Source/gd32vw55x_qspi.c ****                 QSPI_TCFG = cmd->data_mode | (cmd->dummycycles << TCFG_DUMYC_OFFSET) | cmd->sioo_mo
 575:../Firmware/GD32VW55x_standard_peripheral/Source/gd32vw55x_qspi.c ****                             cmd->altebytes_mode | cmd->addr_size | cmd->addr_mode |
 576:../Firmware/GD32VW55x_standard_peripheral/Source/gd32vw55x_qspi.c ****                             cmd->instruction_mode | cmd->instruction | functionalmode;
 577:../Firmware/GD32VW55x_standard_peripheral/Source/gd32vw55x_qspi.c **** 
 578:../Firmware/GD32VW55x_standard_peripheral/Source/gd32vw55x_qspi.c ****                 if(functionalmode != QSPI_MEMORY_MAPPED) {
 579:../Firmware/GD32VW55x_standard_peripheral/Source/gd32vw55x_qspi.c ****                     /* configure QSPI_ADDR register with address value */
 580:../Firmware/GD32VW55x_standard_peripheral/Source/gd32vw55x_qspi.c ****                     QSPI_ADDR = cmd->addr;
 581:../Firmware/GD32VW55x_standard_peripheral/Source/gd32vw55x_qspi.c ****                 }
 582:../Firmware/GD32VW55x_standard_peripheral/Source/gd32vw55x_qspi.c ****             } else {
 583:../Firmware/GD32VW55x_standard_peripheral/Source/gd32vw55x_qspi.c ****                 /* command with only instruction */
 584:../Firmware/GD32VW55x_standard_peripheral/Source/gd32vw55x_qspi.c ****                 /* configure QSPI_TCFG register with all communications parameters */
 585:../Firmware/GD32VW55x_standard_peripheral/Source/gd32vw55x_qspi.c ****                 QSPI_TCFG = cmd->data_mode | (cmd->dummycycles << TCFG_DUMYC_OFFSET) | cmd->sioo_mo
 586:../Firmware/GD32VW55x_standard_peripheral/Source/gd32vw55x_qspi.c ****                             cmd->altebytes_mode | cmd->addr_mode | cmd->instruction_mode |
 587:../Firmware/GD32VW55x_standard_peripheral/Source/gd32vw55x_qspi.c ****                             cmd->instruction | functionalmode;
 588:../Firmware/GD32VW55x_standard_peripheral/Source/gd32vw55x_qspi.c ****             }
 589:../Firmware/GD32VW55x_standard_peripheral/Source/gd32vw55x_qspi.c ****         }
 590:../Firmware/GD32VW55x_standard_peripheral/Source/gd32vw55x_qspi.c ****     } else {
 591:../Firmware/GD32VW55x_standard_peripheral/Source/gd32vw55x_qspi.c ****         if(cmd->altebytes_mode != QSPI_ALTE_BYTES_NONE) {
 592:../Firmware/GD32VW55x_standard_peripheral/Source/gd32vw55x_qspi.c ****             /* configure QSPI_ALTE register with alternate bytes value */
 593:../Firmware/GD32VW55x_standard_peripheral/Source/gd32vw55x_qspi.c ****             QSPI_ALTE = cmd->altebytes;
 594:../Firmware/GD32VW55x_standard_peripheral/Source/gd32vw55x_qspi.c **** 
 595:../Firmware/GD32VW55x_standard_peripheral/Source/gd32vw55x_qspi.c ****             if(cmd->addr_mode != QSPI_ADDR_NONE) {
 596:../Firmware/GD32VW55x_standard_peripheral/Source/gd32vw55x_qspi.c ****                 /* command with address and alternate bytes */
 597:../Firmware/GD32VW55x_standard_peripheral/Source/gd32vw55x_qspi.c ****                 /* configure QSPI_TCFG register with all communications parameters */
 598:../Firmware/GD32VW55x_standard_peripheral/Source/gd32vw55x_qspi.c ****                 QSPI_TCFG = cmd->data_mode | (cmd->dummycycles << TCFG_DUMYC_OFFSET) | cmd->sioo_mo
 599:../Firmware/GD32VW55x_standard_peripheral/Source/gd32vw55x_qspi.c ****                             cmd->altebytes_mode | cmd->altebytes_size | cmd->addr_size |
 600:../Firmware/GD32VW55x_standard_peripheral/Source/gd32vw55x_qspi.c ****                             cmd->addr_mode | cmd->instruction_mode | functionalmode;
 601:../Firmware/GD32VW55x_standard_peripheral/Source/gd32vw55x_qspi.c **** 
 602:../Firmware/GD32VW55x_standard_peripheral/Source/gd32vw55x_qspi.c ****                 if(functionalmode != QSPI_MEMORY_MAPPED) {
 603:../Firmware/GD32VW55x_standard_peripheral/Source/gd32vw55x_qspi.c ****                     /* configure QSPI_ADDR register with address value */
 604:../Firmware/GD32VW55x_standard_peripheral/Source/gd32vw55x_qspi.c ****                     QSPI_ADDR = cmd->addr;
 605:../Firmware/GD32VW55x_standard_peripheral/Source/gd32vw55x_qspi.c ****                 }
 606:../Firmware/GD32VW55x_standard_peripheral/Source/gd32vw55x_qspi.c ****             } else {
 607:../Firmware/GD32VW55x_standard_peripheral/Source/gd32vw55x_qspi.c ****                 /* command with only alternate bytes */
 608:../Firmware/GD32VW55x_standard_peripheral/Source/gd32vw55x_qspi.c ****                 /* configure QSPI_TCFG register with all communications parameters */
 609:../Firmware/GD32VW55x_standard_peripheral/Source/gd32vw55x_qspi.c ****                 QSPI_TCFG = cmd->data_mode | (cmd->dummycycles << TCFG_DUMYC_OFFSET) | cmd->sioo_mo
 610:../Firmware/GD32VW55x_standard_peripheral/Source/gd32vw55x_qspi.c ****                             cmd->altebytes_mode | cmd->altebytes_size |
 611:../Firmware/GD32VW55x_standard_peripheral/Source/gd32vw55x_qspi.c ****                             cmd->addr_mode | cmd->instruction_mode | functionalmode;
 612:../Firmware/GD32VW55x_standard_peripheral/Source/gd32vw55x_qspi.c ****             }
 613:../Firmware/GD32VW55x_standard_peripheral/Source/gd32vw55x_qspi.c ****         } else {
 614:../Firmware/GD32VW55x_standard_peripheral/Source/gd32vw55x_qspi.c ****             if(cmd->addr_mode != QSPI_ADDR_NONE) {
 615:../Firmware/GD32VW55x_standard_peripheral/Source/gd32vw55x_qspi.c ****                 /* command with only address */
 616:../Firmware/GD32VW55x_standard_peripheral/Source/gd32vw55x_qspi.c ****                 /* configure QSPI_TCFG register with all communications parameters */
 617:../Firmware/GD32VW55x_standard_peripheral/Source/gd32vw55x_qspi.c ****                 QSPI_TCFG = cmd->data_mode | (cmd->dummycycles << TCFG_DUMYC_OFFSET) | cmd->sioo_mo
 618:../Firmware/GD32VW55x_standard_peripheral/Source/gd32vw55x_qspi.c ****                             cmd->altebytes_mode | cmd->addr_size |
 619:../Firmware/GD32VW55x_standard_peripheral/Source/gd32vw55x_qspi.c ****                             cmd->addr_mode | cmd->instruction_mode | functionalmode;
 620:../Firmware/GD32VW55x_standard_peripheral/Source/gd32vw55x_qspi.c **** 
 621:../Firmware/GD32VW55x_standard_peripheral/Source/gd32vw55x_qspi.c ****                 if(functionalmode != QSPI_MEMORY_MAPPED) {
 622:../Firmware/GD32VW55x_standard_peripheral/Source/gd32vw55x_qspi.c ****                     /* configure QSPI_ADDR register with address value */
 623:../Firmware/GD32VW55x_standard_peripheral/Source/gd32vw55x_qspi.c ****                     QSPI_ADDR = cmd->addr;
 624:../Firmware/GD32VW55x_standard_peripheral/Source/gd32vw55x_qspi.c ****                 }
 625:../Firmware/GD32VW55x_standard_peripheral/Source/gd32vw55x_qspi.c ****             } else {
 626:../Firmware/GD32VW55x_standard_peripheral/Source/gd32vw55x_qspi.c ****                 /* command with only data phase */
 627:../Firmware/GD32VW55x_standard_peripheral/Source/gd32vw55x_qspi.c ****                 if(cmd->data_mode != QSPI_DATA_NONE) {
 628:../Firmware/GD32VW55x_standard_peripheral/Source/gd32vw55x_qspi.c ****                     /* configure QSPI_TCFG register with all communications parameters */
 629:../Firmware/GD32VW55x_standard_peripheral/Source/gd32vw55x_qspi.c ****                     QSPI_TCFG = cmd->data_mode | (cmd->dummycycles << TCFG_DUMYC_OFFSET) | cmd->sio
 630:../Firmware/GD32VW55x_standard_peripheral/Source/gd32vw55x_qspi.c ****                                 cmd->altebytes_mode | cmd->addr_mode |
 631:../Firmware/GD32VW55x_standard_peripheral/Source/gd32vw55x_qspi.c ****                                 cmd->instruction_mode | functionalmode;
 632:../Firmware/GD32VW55x_standard_peripheral/Source/gd32vw55x_qspi.c ****                 }
 633:../Firmware/GD32VW55x_standard_peripheral/Source/gd32vw55x_qspi.c ****             }
 634:../Firmware/GD32VW55x_standard_peripheral/Source/gd32vw55x_qspi.c ****         }
 635:../Firmware/GD32VW55x_standard_peripheral/Source/gd32vw55x_qspi.c ****     }
 636:../Firmware/GD32VW55x_standard_peripheral/Source/gd32vw55x_qspi.c **** }
 1322              		.loc 1 636 1
 1323 00d4 45AC     		j	.L55
 1324              	.L49:
 565:../Firmware/GD32VW55x_standard_peripheral/Source/gd32vw55x_qspi.c ****                             cmd->altebytes_size | cmd->altebytes_mode |
 1325              		.loc 1 565 32
 1326 00d6 8327C4FE 		lw	a5,-20(s0)
 1327 00da D853     		lw	a4,36(a5)
 565:../Firmware/GD32VW55x_standard_peripheral/Source/gd32vw55x_qspi.c ****                             cmd->altebytes_size | cmd->altebytes_mode |
 1328              		.loc 1 565 50
 1329 00dc 8327C4FE 		lw	a5,-20(s0)
 1330 00e0 9C53     		lw	a5,32(a5)
 565:../Firmware/GD32VW55x_standard_peripheral/Source/gd32vw55x_qspi.c ****                             cmd->altebytes_size | cmd->altebytes_mode |
 1331              		.loc 1 565 64
 1332 00e2 CA07     		slli	a5,a5,18
 565:../Firmware/GD32VW55x_standard_peripheral/Source/gd32vw55x_qspi.c ****                             cmd->altebytes_size | cmd->altebytes_mode |
 1333              		.loc 1 565 44
 1334 00e4 5D8F     		or	a4,a4,a5
 565:../Firmware/GD32VW55x_standard_peripheral/Source/gd32vw55x_qspi.c ****                             cmd->altebytes_size | cmd->altebytes_mode |
 1335              		.loc 1 565 91
 1336 00e6 8327C4FE 		lw	a5,-20(s0)
 1337 00ea DC57     		lw	a5,44(a5)
 565:../Firmware/GD32VW55x_standard_peripheral/Source/gd32vw55x_qspi.c ****                             cmd->altebytes_size | cmd->altebytes_mode |
 1338              		.loc 1 565 86
 1339 00ec 5D8F     		or	a4,a4,a5
 566:../Firmware/GD32VW55x_standard_peripheral/Source/gd32vw55x_qspi.c ****                             cmd->addr_mode | cmd->instruction_mode |
 1340              		.loc 1 566 32
 1341 00ee 8327C4FE 		lw	a5,-20(s0)
 1342 00f2 9C4F     		lw	a5,24(a5)
 565:../Firmware/GD32VW55x_standard_peripheral/Source/gd32vw55x_qspi.c ****                             cmd->altebytes_size | cmd->altebytes_mode |
 1343              		.loc 1 565 103
 1344 00f4 5D8F     		or	a4,a4,a5
 566:../Firmware/GD32VW55x_standard_peripheral/Source/gd32vw55x_qspi.c ****                             cmd->addr_mode | cmd->instruction_mode |
 1345              		.loc 1 566 54
 1346 00f6 8327C4FE 		lw	a5,-20(s0)
 1347 00fa DC4B     		lw	a5,20(a5)
 566:../Firmware/GD32VW55x_standard_peripheral/Source/gd32vw55x_qspi.c ****                             cmd->addr_mode | cmd->instruction_mode |
 1348              		.loc 1 566 49
 1349 00fc 5D8F     		or	a4,a4,a5
 567:../Firmware/GD32VW55x_standard_peripheral/Source/gd32vw55x_qspi.c ****                             cmd->instruction | functionalmode;
 1350              		.loc 1 567 32
 1351 00fe 8327C4FE 		lw	a5,-20(s0)
 1352 0102 9C47     		lw	a5,8(a5)
 566:../Firmware/GD32VW55x_standard_peripheral/Source/gd32vw55x_qspi.c ****                             cmd->addr_mode | cmd->instruction_mode |
 1353              		.loc 1 566 71
 1354 0104 5D8F     		or	a4,a4,a5
 567:../Firmware/GD32VW55x_standard_peripheral/Source/gd32vw55x_qspi.c ****                             cmd->instruction | functionalmode;
 1355              		.loc 1 567 49
 1356 0106 8327C4FE 		lw	a5,-20(s0)
 1357 010a 9C43     		lw	a5,0(a5)
 567:../Firmware/GD32VW55x_standard_peripheral/Source/gd32vw55x_qspi.c ****                             cmd->instruction | functionalmode;
 1358              		.loc 1 567 44
 1359 010c 5D8F     		or	a4,a4,a5
 568:../Firmware/GD32VW55x_standard_peripheral/Source/gd32vw55x_qspi.c ****             }
 1360              		.loc 1 568 32
 1361 010e 8327C4FE 		lw	a5,-20(s0)
 1362 0112 DC43     		lw	a5,4(a5)
 567:../Firmware/GD32VW55x_standard_peripheral/Source/gd32vw55x_qspi.c ****                             cmd->instruction | functionalmode;
 1363              		.loc 1 567 68
 1364 0114 B366F700 		or	a3,a4,a5
 565:../Firmware/GD32VW55x_standard_peripheral/Source/gd32vw55x_qspi.c ****                             cmd->altebytes_size | cmd->altebytes_mode |
 1365              		.loc 1 565 17
 1366 0118 B7670240 		li	a5,1073897472
 1367 011c 93874781 		addi	a5,a5,-2028
 568:../Firmware/GD32VW55x_standard_peripheral/Source/gd32vw55x_qspi.c ****             }
 1368              		.loc 1 568 46
 1369 0120 032784FE 		lw	a4,-24(s0)
 1370 0124 558F     		or	a4,a3,a4
 565:../Firmware/GD32VW55x_standard_peripheral/Source/gd32vw55x_qspi.c ****                             cmd->altebytes_size | cmd->altebytes_mode |
 1371              		.loc 1 565 27
 1372 0126 98C3     		sw	a4,0(a5)
 1373              		.loc 1 636 1
 1374 0128 B1AC     		j	.L55
 1375              	.L48:
 571:../Firmware/GD32VW55x_standard_peripheral/Source/gd32vw55x_qspi.c ****                 /* command with instruction and address */
 1376              		.loc 1 571 19
 1377 012a 8327C4FE 		lw	a5,-20(s0)
 1378 012e 9C47     		lw	a5,8(a5)
 571:../Firmware/GD32VW55x_standard_peripheral/Source/gd32vw55x_qspi.c ****                 /* command with instruction and address */
 1379              		.loc 1 571 15
 1380 0130 ADCB     		beq	a5,zero,.L51
 574:../Firmware/GD32VW55x_standard_peripheral/Source/gd32vw55x_qspi.c ****                             cmd->altebytes_mode | cmd->addr_size | cmd->addr_mode |
 1381              		.loc 1 574 32
 1382 0132 8327C4FE 		lw	a5,-20(s0)
 1383 0136 D853     		lw	a4,36(a5)
 574:../Firmware/GD32VW55x_standard_peripheral/Source/gd32vw55x_qspi.c ****                             cmd->altebytes_mode | cmd->addr_size | cmd->addr_mode |
 1384              		.loc 1 574 50
 1385 0138 8327C4FE 		lw	a5,-20(s0)
 1386 013c 9C53     		lw	a5,32(a5)
 574:../Firmware/GD32VW55x_standard_peripheral/Source/gd32vw55x_qspi.c ****                             cmd->altebytes_mode | cmd->addr_size | cmd->addr_mode |
 1387              		.loc 1 574 64
 1388 013e CA07     		slli	a5,a5,18
 574:../Firmware/GD32VW55x_standard_peripheral/Source/gd32vw55x_qspi.c ****                             cmd->altebytes_mode | cmd->addr_size | cmd->addr_mode |
 1389              		.loc 1 574 44
 1390 0140 5D8F     		or	a4,a4,a5
 574:../Firmware/GD32VW55x_standard_peripheral/Source/gd32vw55x_qspi.c ****                             cmd->altebytes_mode | cmd->addr_size | cmd->addr_mode |
 1391              		.loc 1 574 91
 1392 0142 8327C4FE 		lw	a5,-20(s0)
 1393 0146 DC57     		lw	a5,44(a5)
 574:../Firmware/GD32VW55x_standard_peripheral/Source/gd32vw55x_qspi.c ****                             cmd->altebytes_mode | cmd->addr_size | cmd->addr_mode |
 1394              		.loc 1 574 86
 1395 0148 5D8F     		or	a4,a4,a5
 575:../Firmware/GD32VW55x_standard_peripheral/Source/gd32vw55x_qspi.c ****                             cmd->instruction_mode | cmd->instruction | functionalmode;
 1396              		.loc 1 575 32
 1397 014a 8327C4FE 		lw	a5,-20(s0)
 1398 014e DC4B     		lw	a5,20(a5)
 574:../Firmware/GD32VW55x_standard_peripheral/Source/gd32vw55x_qspi.c ****                             cmd->altebytes_mode | cmd->addr_size | cmd->addr_mode |
 1399              		.loc 1 574 103
 1400 0150 5D8F     		or	a4,a4,a5
 575:../Firmware/GD32VW55x_standard_peripheral/Source/gd32vw55x_qspi.c ****                             cmd->instruction_mode | cmd->instruction | functionalmode;
 1401              		.loc 1 575 54
 1402 0152 8327C4FE 		lw	a5,-20(s0)
 1403 0156 DC47     		lw	a5,12(a5)
 575:../Firmware/GD32VW55x_standard_peripheral/Source/gd32vw55x_qspi.c ****                             cmd->instruction_mode | cmd->instruction | functionalmode;
 1404              		.loc 1 575 49
 1405 0158 5D8F     		or	a4,a4,a5
 575:../Firmware/GD32VW55x_standard_peripheral/Source/gd32vw55x_qspi.c ****                             cmd->instruction_mode | cmd->instruction | functionalmode;
 1406              		.loc 1 575 71
 1407 015a 8327C4FE 		lw	a5,-20(s0)
 1408 015e 9C47     		lw	a5,8(a5)
 575:../Firmware/GD32VW55x_standard_peripheral/Source/gd32vw55x_qspi.c ****                             cmd->instruction_mode | cmd->instruction | functionalmode;
 1409              		.loc 1 575 66
 1410 0160 5D8F     		or	a4,a4,a5
 576:../Firmware/GD32VW55x_standard_peripheral/Source/gd32vw55x_qspi.c **** 
 1411              		.loc 1 576 32
 1412 0162 8327C4FE 		lw	a5,-20(s0)
 1413 0166 9C43     		lw	a5,0(a5)
 575:../Firmware/GD32VW55x_standard_peripheral/Source/gd32vw55x_qspi.c ****                             cmd->instruction_mode | cmd->instruction | functionalmode;
 1414              		.loc 1 575 83
 1415 0168 5D8F     		or	a4,a4,a5
 576:../Firmware/GD32VW55x_standard_peripheral/Source/gd32vw55x_qspi.c **** 
 1416              		.loc 1 576 56
 1417 016a 8327C4FE 		lw	a5,-20(s0)
 1418 016e DC43     		lw	a5,4(a5)
 576:../Firmware/GD32VW55x_standard_peripheral/Source/gd32vw55x_qspi.c **** 
 1419              		.loc 1 576 51
 1420 0170 B366F700 		or	a3,a4,a5
 574:../Firmware/GD32VW55x_standard_peripheral/Source/gd32vw55x_qspi.c ****                             cmd->altebytes_mode | cmd->addr_size | cmd->addr_mode |
 1421              		.loc 1 574 17
 1422 0174 B7670240 		li	a5,1073897472
 1423 0178 93874781 		addi	a5,a5,-2028
 576:../Firmware/GD32VW55x_standard_peripheral/Source/gd32vw55x_qspi.c **** 
 1424              		.loc 1 576 70
 1425 017c 032784FE 		lw	a4,-24(s0)
 1426 0180 558F     		or	a4,a3,a4
 574:../Firmware/GD32VW55x_standard_peripheral/Source/gd32vw55x_qspi.c ****                             cmd->altebytes_mode | cmd->addr_size | cmd->addr_mode |
 1427              		.loc 1 574 27
 1428 0182 98C3     		sw	a4,0(a5)
 578:../Firmware/GD32VW55x_standard_peripheral/Source/gd32vw55x_qspi.c ****                     /* configure QSPI_ADDR register with address value */
 1429              		.loc 1 578 19
 1430 0184 032784FE 		lw	a4,-24(s0)
 1431 0188 B707000C 		li	a5,201326592
 1432 018c 630CF71E 		beq	a4,a5,.L55
 580:../Firmware/GD32VW55x_standard_peripheral/Source/gd32vw55x_qspi.c ****                 }
 1433              		.loc 1 580 21
 1434 0190 B7670240 		li	a5,1073897472
 1435 0194 93878781 		addi	a5,a5,-2024
 580:../Firmware/GD32VW55x_standard_peripheral/Source/gd32vw55x_qspi.c ****                 }
 1436              		.loc 1 580 36
 1437 0198 0327C4FE 		lw	a4,-20(s0)
 1438 019c 184B     		lw	a4,16(a4)
 580:../Firmware/GD32VW55x_standard_peripheral/Source/gd32vw55x_qspi.c ****                 }
 1439              		.loc 1 580 31
 1440 019e 98C3     		sw	a4,0(a5)
 1441              		.loc 1 636 1
 1442 01a0 D5A2     		j	.L55
 1443              	.L51:
 585:../Firmware/GD32VW55x_standard_peripheral/Source/gd32vw55x_qspi.c ****                             cmd->altebytes_mode | cmd->addr_mode | cmd->instruction_mode |
 1444              		.loc 1 585 32
 1445 01a2 8327C4FE 		lw	a5,-20(s0)
 1446 01a6 D853     		lw	a4,36(a5)
 585:../Firmware/GD32VW55x_standard_peripheral/Source/gd32vw55x_qspi.c ****                             cmd->altebytes_mode | cmd->addr_mode | cmd->instruction_mode |
 1447              		.loc 1 585 50
 1448 01a8 8327C4FE 		lw	a5,-20(s0)
 1449 01ac 9C53     		lw	a5,32(a5)
 585:../Firmware/GD32VW55x_standard_peripheral/Source/gd32vw55x_qspi.c ****                             cmd->altebytes_mode | cmd->addr_mode | cmd->instruction_mode |
 1450              		.loc 1 585 64
 1451 01ae CA07     		slli	a5,a5,18
 585:../Firmware/GD32VW55x_standard_peripheral/Source/gd32vw55x_qspi.c ****                             cmd->altebytes_mode | cmd->addr_mode | cmd->instruction_mode |
 1452              		.loc 1 585 44
 1453 01b0 5D8F     		or	a4,a4,a5
 585:../Firmware/GD32VW55x_standard_peripheral/Source/gd32vw55x_qspi.c ****                             cmd->altebytes_mode | cmd->addr_mode | cmd->instruction_mode |
 1454              		.loc 1 585 91
 1455 01b2 8327C4FE 		lw	a5,-20(s0)
 1456 01b6 DC57     		lw	a5,44(a5)
 585:../Firmware/GD32VW55x_standard_peripheral/Source/gd32vw55x_qspi.c ****                             cmd->altebytes_mode | cmd->addr_mode | cmd->instruction_mode |
 1457              		.loc 1 585 86
 1458 01b8 5D8F     		or	a4,a4,a5
 586:../Firmware/GD32VW55x_standard_peripheral/Source/gd32vw55x_qspi.c ****                             cmd->instruction | functionalmode;
 1459              		.loc 1 586 32
 1460 01ba 8327C4FE 		lw	a5,-20(s0)
 1461 01be DC4B     		lw	a5,20(a5)
 585:../Firmware/GD32VW55x_standard_peripheral/Source/gd32vw55x_qspi.c ****                             cmd->altebytes_mode | cmd->addr_mode | cmd->instruction_mode |
 1462              		.loc 1 585 103
 1463 01c0 5D8F     		or	a4,a4,a5
 586:../Firmware/GD32VW55x_standard_peripheral/Source/gd32vw55x_qspi.c ****                             cmd->instruction | functionalmode;
 1464              		.loc 1 586 54
 1465 01c2 8327C4FE 		lw	a5,-20(s0)
 1466 01c6 9C47     		lw	a5,8(a5)
 586:../Firmware/GD32VW55x_standard_peripheral/Source/gd32vw55x_qspi.c ****                             cmd->instruction | functionalmode;
 1467              		.loc 1 586 49
 1468 01c8 5D8F     		or	a4,a4,a5
 586:../Firmware/GD32VW55x_standard_peripheral/Source/gd32vw55x_qspi.c ****                             cmd->instruction | functionalmode;
 1469              		.loc 1 586 71
 1470 01ca 8327C4FE 		lw	a5,-20(s0)
 1471 01ce 9C43     		lw	a5,0(a5)
 586:../Firmware/GD32VW55x_standard_peripheral/Source/gd32vw55x_qspi.c ****                             cmd->instruction | functionalmode;
 1472              		.loc 1 586 66
 1473 01d0 5D8F     		or	a4,a4,a5
 587:../Firmware/GD32VW55x_standard_peripheral/Source/gd32vw55x_qspi.c ****             }
 1474              		.loc 1 587 32
 1475 01d2 8327C4FE 		lw	a5,-20(s0)
 1476 01d6 DC43     		lw	a5,4(a5)
 586:../Firmware/GD32VW55x_standard_peripheral/Source/gd32vw55x_qspi.c ****                             cmd->instruction | functionalmode;
 1477              		.loc 1 586 90
 1478 01d8 B366F700 		or	a3,a4,a5
 585:../Firmware/GD32VW55x_standard_peripheral/Source/gd32vw55x_qspi.c ****                             cmd->altebytes_mode | cmd->addr_mode | cmd->instruction_mode |
 1479              		.loc 1 585 17
 1480 01dc B7670240 		li	a5,1073897472
 1481 01e0 93874781 		addi	a5,a5,-2028
 587:../Firmware/GD32VW55x_standard_peripheral/Source/gd32vw55x_qspi.c ****             }
 1482              		.loc 1 587 46
 1483 01e4 032784FE 		lw	a4,-24(s0)
 1484 01e8 558F     		or	a4,a3,a4
 585:../Firmware/GD32VW55x_standard_peripheral/Source/gd32vw55x_qspi.c ****                             cmd->altebytes_mode | cmd->addr_mode | cmd->instruction_mode |
 1485              		.loc 1 585 27
 1486 01ea 98C3     		sw	a4,0(a5)
 1487              		.loc 1 636 1
 1488 01ec 61AA     		j	.L55
 1489              	.L47:
 591:../Firmware/GD32VW55x_standard_peripheral/Source/gd32vw55x_qspi.c ****             /* configure QSPI_ALTE register with alternate bytes value */
 1490              		.loc 1 591 15
 1491 01ee 8327C4FE 		lw	a5,-20(s0)
 1492 01f2 DC4B     		lw	a5,20(a5)
 591:../Firmware/GD32VW55x_standard_peripheral/Source/gd32vw55x_qspi.c ****             /* configure QSPI_ALTE register with alternate bytes value */
 1493              		.loc 1 591 11
 1494 01f4 F9CB     		beq	a5,zero,.L52
 593:../Firmware/GD32VW55x_standard_peripheral/Source/gd32vw55x_qspi.c **** 
 1495              		.loc 1 593 13
 1496 01f6 B7670240 		li	a5,1073897472
 1497 01fa 9387C781 		addi	a5,a5,-2020
 593:../Firmware/GD32VW55x_standard_peripheral/Source/gd32vw55x_qspi.c **** 
 1498              		.loc 1 593 28
 1499 01fe 0327C4FE 		lw	a4,-20(s0)
 1500 0202 584F     		lw	a4,28(a4)
 593:../Firmware/GD32VW55x_standard_peripheral/Source/gd32vw55x_qspi.c **** 
 1501              		.loc 1 593 23
 1502 0204 98C3     		sw	a4,0(a5)
 595:../Firmware/GD32VW55x_standard_peripheral/Source/gd32vw55x_qspi.c ****                 /* command with address and alternate bytes */
 1503              		.loc 1 595 19
 1504 0206 8327C4FE 		lw	a5,-20(s0)
 1505 020a 9C47     		lw	a5,8(a5)
 595:../Firmware/GD32VW55x_standard_peripheral/Source/gd32vw55x_qspi.c ****                 /* command with address and alternate bytes */
 1506              		.loc 1 595 15
 1507 020c ADCB     		beq	a5,zero,.L53
 598:../Firmware/GD32VW55x_standard_peripheral/Source/gd32vw55x_qspi.c ****                             cmd->altebytes_mode | cmd->altebytes_size | cmd->addr_size |
 1508              		.loc 1 598 32
 1509 020e 8327C4FE 		lw	a5,-20(s0)
 1510 0212 D853     		lw	a4,36(a5)
 598:../Firmware/GD32VW55x_standard_peripheral/Source/gd32vw55x_qspi.c ****                             cmd->altebytes_mode | cmd->altebytes_size | cmd->addr_size |
 1511              		.loc 1 598 50
 1512 0214 8327C4FE 		lw	a5,-20(s0)
 1513 0218 9C53     		lw	a5,32(a5)
 598:../Firmware/GD32VW55x_standard_peripheral/Source/gd32vw55x_qspi.c ****                             cmd->altebytes_mode | cmd->altebytes_size | cmd->addr_size |
 1514              		.loc 1 598 64
 1515 021a CA07     		slli	a5,a5,18
 598:../Firmware/GD32VW55x_standard_peripheral/Source/gd32vw55x_qspi.c ****                             cmd->altebytes_mode | cmd->altebytes_size | cmd->addr_size |
 1516              		.loc 1 598 44
 1517 021c 5D8F     		or	a4,a4,a5
 598:../Firmware/GD32VW55x_standard_peripheral/Source/gd32vw55x_qspi.c ****                             cmd->altebytes_mode | cmd->altebytes_size | cmd->addr_size |
 1518              		.loc 1 598 91
 1519 021e 8327C4FE 		lw	a5,-20(s0)
 1520 0222 DC57     		lw	a5,44(a5)
 598:../Firmware/GD32VW55x_standard_peripheral/Source/gd32vw55x_qspi.c ****                             cmd->altebytes_mode | cmd->altebytes_size | cmd->addr_size |
 1521              		.loc 1 598 86
 1522 0224 5D8F     		or	a4,a4,a5
 599:../Firmware/GD32VW55x_standard_peripheral/Source/gd32vw55x_qspi.c ****                             cmd->addr_mode | cmd->instruction_mode | functionalmode;
 1523              		.loc 1 599 32
 1524 0226 8327C4FE 		lw	a5,-20(s0)
 1525 022a DC4B     		lw	a5,20(a5)
 598:../Firmware/GD32VW55x_standard_peripheral/Source/gd32vw55x_qspi.c ****                             cmd->altebytes_mode | cmd->altebytes_size | cmd->addr_size |
 1526              		.loc 1 598 103
 1527 022c 5D8F     		or	a4,a4,a5
 599:../Firmware/GD32VW55x_standard_peripheral/Source/gd32vw55x_qspi.c ****                             cmd->addr_mode | cmd->instruction_mode | functionalmode;
 1528              		.loc 1 599 54
 1529 022e 8327C4FE 		lw	a5,-20(s0)
 1530 0232 9C4F     		lw	a5,24(a5)
 599:../Firmware/GD32VW55x_standard_peripheral/Source/gd32vw55x_qspi.c ****                             cmd->addr_mode | cmd->instruction_mode | functionalmode;
 1531              		.loc 1 599 49
 1532 0234 5D8F     		or	a4,a4,a5
 599:../Firmware/GD32VW55x_standard_peripheral/Source/gd32vw55x_qspi.c ****                             cmd->addr_mode | cmd->instruction_mode | functionalmode;
 1533              		.loc 1 599 76
 1534 0236 8327C4FE 		lw	a5,-20(s0)
 1535 023a DC47     		lw	a5,12(a5)
 599:../Firmware/GD32VW55x_standard_peripheral/Source/gd32vw55x_qspi.c ****                             cmd->addr_mode | cmd->instruction_mode | functionalmode;
 1536              		.loc 1 599 71
 1537 023c 5D8F     		or	a4,a4,a5
 600:../Firmware/GD32VW55x_standard_peripheral/Source/gd32vw55x_qspi.c **** 
 1538              		.loc 1 600 32
 1539 023e 8327C4FE 		lw	a5,-20(s0)
 1540 0242 9C47     		lw	a5,8(a5)
 599:../Firmware/GD32VW55x_standard_peripheral/Source/gd32vw55x_qspi.c ****                             cmd->addr_mode | cmd->instruction_mode | functionalmode;
 1541              		.loc 1 599 88
 1542 0244 5D8F     		or	a4,a4,a5
 600:../Firmware/GD32VW55x_standard_peripheral/Source/gd32vw55x_qspi.c **** 
 1543              		.loc 1 600 49
 1544 0246 8327C4FE 		lw	a5,-20(s0)
 1545 024a 9C43     		lw	a5,0(a5)
 600:../Firmware/GD32VW55x_standard_peripheral/Source/gd32vw55x_qspi.c **** 
 1546              		.loc 1 600 44
 1547 024c B366F700 		or	a3,a4,a5
 598:../Firmware/GD32VW55x_standard_peripheral/Source/gd32vw55x_qspi.c ****                             cmd->altebytes_mode | cmd->altebytes_size | cmd->addr_size |
 1548              		.loc 1 598 17
 1549 0250 B7670240 		li	a5,1073897472
 1550 0254 93874781 		addi	a5,a5,-2028
 600:../Firmware/GD32VW55x_standard_peripheral/Source/gd32vw55x_qspi.c **** 
 1551              		.loc 1 600 68
 1552 0258 032784FE 		lw	a4,-24(s0)
 1553 025c 558F     		or	a4,a3,a4
 598:../Firmware/GD32VW55x_standard_peripheral/Source/gd32vw55x_qspi.c ****                             cmd->altebytes_mode | cmd->altebytes_size | cmd->addr_size |
 1554              		.loc 1 598 27
 1555 025e 98C3     		sw	a4,0(a5)
 602:../Firmware/GD32VW55x_standard_peripheral/Source/gd32vw55x_qspi.c ****                     /* configure QSPI_ADDR register with address value */
 1556              		.loc 1 602 19
 1557 0260 032784FE 		lw	a4,-24(s0)
 1558 0264 B707000C 		li	a5,201326592
 1559 0268 630EF710 		beq	a4,a5,.L55
 604:../Firmware/GD32VW55x_standard_peripheral/Source/gd32vw55x_qspi.c ****                 }
 1560              		.loc 1 604 21
 1561 026c B7670240 		li	a5,1073897472
 1562 0270 93878781 		addi	a5,a5,-2024
 604:../Firmware/GD32VW55x_standard_peripheral/Source/gd32vw55x_qspi.c ****                 }
 1563              		.loc 1 604 36
 1564 0274 0327C4FE 		lw	a4,-20(s0)
 1565 0278 184B     		lw	a4,16(a4)
 604:../Firmware/GD32VW55x_standard_peripheral/Source/gd32vw55x_qspi.c ****                 }
 1566              		.loc 1 604 31
 1567 027a 98C3     		sw	a4,0(a5)
 1568              		.loc 1 636 1
 1569 027c 21A2     		j	.L55
 1570              	.L53:
 609:../Firmware/GD32VW55x_standard_peripheral/Source/gd32vw55x_qspi.c ****                             cmd->altebytes_mode | cmd->altebytes_size |
 1571              		.loc 1 609 32
 1572 027e 8327C4FE 		lw	a5,-20(s0)
 1573 0282 D853     		lw	a4,36(a5)
 609:../Firmware/GD32VW55x_standard_peripheral/Source/gd32vw55x_qspi.c ****                             cmd->altebytes_mode | cmd->altebytes_size |
 1574              		.loc 1 609 50
 1575 0284 8327C4FE 		lw	a5,-20(s0)
 1576 0288 9C53     		lw	a5,32(a5)
 609:../Firmware/GD32VW55x_standard_peripheral/Source/gd32vw55x_qspi.c ****                             cmd->altebytes_mode | cmd->altebytes_size |
 1577              		.loc 1 609 64
 1578 028a CA07     		slli	a5,a5,18
 609:../Firmware/GD32VW55x_standard_peripheral/Source/gd32vw55x_qspi.c ****                             cmd->altebytes_mode | cmd->altebytes_size |
 1579              		.loc 1 609 44
 1580 028c 5D8F     		or	a4,a4,a5
 609:../Firmware/GD32VW55x_standard_peripheral/Source/gd32vw55x_qspi.c ****                             cmd->altebytes_mode | cmd->altebytes_size |
 1581              		.loc 1 609 91
 1582 028e 8327C4FE 		lw	a5,-20(s0)
 1583 0292 DC57     		lw	a5,44(a5)
 609:../Firmware/GD32VW55x_standard_peripheral/Source/gd32vw55x_qspi.c ****                             cmd->altebytes_mode | cmd->altebytes_size |
 1584              		.loc 1 609 86
 1585 0294 5D8F     		or	a4,a4,a5
 610:../Firmware/GD32VW55x_standard_peripheral/Source/gd32vw55x_qspi.c ****                             cmd->addr_mode | cmd->instruction_mode | functionalmode;
 1586              		.loc 1 610 32
 1587 0296 8327C4FE 		lw	a5,-20(s0)
 1588 029a DC4B     		lw	a5,20(a5)
 609:../Firmware/GD32VW55x_standard_peripheral/Source/gd32vw55x_qspi.c ****                             cmd->altebytes_mode | cmd->altebytes_size |
 1589              		.loc 1 609 103
 1590 029c 5D8F     		or	a4,a4,a5
 610:../Firmware/GD32VW55x_standard_peripheral/Source/gd32vw55x_qspi.c ****                             cmd->addr_mode | cmd->instruction_mode | functionalmode;
 1591              		.loc 1 610 54
 1592 029e 8327C4FE 		lw	a5,-20(s0)
 1593 02a2 9C4F     		lw	a5,24(a5)
 610:../Firmware/GD32VW55x_standard_peripheral/Source/gd32vw55x_qspi.c ****                             cmd->addr_mode | cmd->instruction_mode | functionalmode;
 1594              		.loc 1 610 49
 1595 02a4 5D8F     		or	a4,a4,a5
 611:../Firmware/GD32VW55x_standard_peripheral/Source/gd32vw55x_qspi.c ****             }
 1596              		.loc 1 611 32
 1597 02a6 8327C4FE 		lw	a5,-20(s0)
 1598 02aa 9C47     		lw	a5,8(a5)
 610:../Firmware/GD32VW55x_standard_peripheral/Source/gd32vw55x_qspi.c ****                             cmd->addr_mode | cmd->instruction_mode | functionalmode;
 1599              		.loc 1 610 71
 1600 02ac 5D8F     		or	a4,a4,a5
 611:../Firmware/GD32VW55x_standard_peripheral/Source/gd32vw55x_qspi.c ****             }
 1601              		.loc 1 611 49
 1602 02ae 8327C4FE 		lw	a5,-20(s0)
 1603 02b2 9C43     		lw	a5,0(a5)
 611:../Firmware/GD32VW55x_standard_peripheral/Source/gd32vw55x_qspi.c ****             }
 1604              		.loc 1 611 44
 1605 02b4 B366F700 		or	a3,a4,a5
 609:../Firmware/GD32VW55x_standard_peripheral/Source/gd32vw55x_qspi.c ****                             cmd->altebytes_mode | cmd->altebytes_size |
 1606              		.loc 1 609 17
 1607 02b8 B7670240 		li	a5,1073897472
 1608 02bc 93874781 		addi	a5,a5,-2028
 611:../Firmware/GD32VW55x_standard_peripheral/Source/gd32vw55x_qspi.c ****             }
 1609              		.loc 1 611 68
 1610 02c0 032784FE 		lw	a4,-24(s0)
 1611 02c4 558F     		or	a4,a3,a4
 609:../Firmware/GD32VW55x_standard_peripheral/Source/gd32vw55x_qspi.c ****                             cmd->altebytes_mode | cmd->altebytes_size |
 1612              		.loc 1 609 27
 1613 02c6 98C3     		sw	a4,0(a5)
 1614              		.loc 1 636 1
 1615 02c8 75A8     		j	.L55
 1616              	.L52:
 614:../Firmware/GD32VW55x_standard_peripheral/Source/gd32vw55x_qspi.c ****                 /* command with only address */
 1617              		.loc 1 614 19
 1618 02ca 8327C4FE 		lw	a5,-20(s0)
 1619 02ce 9C47     		lw	a5,8(a5)
 614:../Firmware/GD32VW55x_standard_peripheral/Source/gd32vw55x_qspi.c ****                 /* command with only address */
 1620              		.loc 1 614 15
 1621 02d0 ADC7     		beq	a5,zero,.L54
 617:../Firmware/GD32VW55x_standard_peripheral/Source/gd32vw55x_qspi.c ****                             cmd->altebytes_mode | cmd->addr_size |
 1622              		.loc 1 617 32
 1623 02d2 8327C4FE 		lw	a5,-20(s0)
 1624 02d6 D853     		lw	a4,36(a5)
 617:../Firmware/GD32VW55x_standard_peripheral/Source/gd32vw55x_qspi.c ****                             cmd->altebytes_mode | cmd->addr_size |
 1625              		.loc 1 617 50
 1626 02d8 8327C4FE 		lw	a5,-20(s0)
 1627 02dc 9C53     		lw	a5,32(a5)
 617:../Firmware/GD32VW55x_standard_peripheral/Source/gd32vw55x_qspi.c ****                             cmd->altebytes_mode | cmd->addr_size |
 1628              		.loc 1 617 64
 1629 02de CA07     		slli	a5,a5,18
 617:../Firmware/GD32VW55x_standard_peripheral/Source/gd32vw55x_qspi.c ****                             cmd->altebytes_mode | cmd->addr_size |
 1630              		.loc 1 617 44
 1631 02e0 5D8F     		or	a4,a4,a5
 617:../Firmware/GD32VW55x_standard_peripheral/Source/gd32vw55x_qspi.c ****                             cmd->altebytes_mode | cmd->addr_size |
 1632              		.loc 1 617 91
 1633 02e2 8327C4FE 		lw	a5,-20(s0)
 1634 02e6 DC57     		lw	a5,44(a5)
 617:../Firmware/GD32VW55x_standard_peripheral/Source/gd32vw55x_qspi.c ****                             cmd->altebytes_mode | cmd->addr_size |
 1635              		.loc 1 617 86
 1636 02e8 5D8F     		or	a4,a4,a5
 618:../Firmware/GD32VW55x_standard_peripheral/Source/gd32vw55x_qspi.c ****                             cmd->addr_mode | cmd->instruction_mode | functionalmode;
 1637              		.loc 1 618 32
 1638 02ea 8327C4FE 		lw	a5,-20(s0)
 1639 02ee DC4B     		lw	a5,20(a5)
 617:../Firmware/GD32VW55x_standard_peripheral/Source/gd32vw55x_qspi.c ****                             cmd->altebytes_mode | cmd->addr_size |
 1640              		.loc 1 617 103
 1641 02f0 5D8F     		or	a4,a4,a5
 618:../Firmware/GD32VW55x_standard_peripheral/Source/gd32vw55x_qspi.c ****                             cmd->addr_mode | cmd->instruction_mode | functionalmode;
 1642              		.loc 1 618 54
 1643 02f2 8327C4FE 		lw	a5,-20(s0)
 1644 02f6 DC47     		lw	a5,12(a5)
 618:../Firmware/GD32VW55x_standard_peripheral/Source/gd32vw55x_qspi.c ****                             cmd->addr_mode | cmd->instruction_mode | functionalmode;
 1645              		.loc 1 618 49
 1646 02f8 5D8F     		or	a4,a4,a5
 619:../Firmware/GD32VW55x_standard_peripheral/Source/gd32vw55x_qspi.c **** 
 1647              		.loc 1 619 32
 1648 02fa 8327C4FE 		lw	a5,-20(s0)
 1649 02fe 9C47     		lw	a5,8(a5)
 618:../Firmware/GD32VW55x_standard_peripheral/Source/gd32vw55x_qspi.c ****                             cmd->addr_mode | cmd->instruction_mode | functionalmode;
 1650              		.loc 1 618 66
 1651 0300 5D8F     		or	a4,a4,a5
 619:../Firmware/GD32VW55x_standard_peripheral/Source/gd32vw55x_qspi.c **** 
 1652              		.loc 1 619 49
 1653 0302 8327C4FE 		lw	a5,-20(s0)
 1654 0306 9C43     		lw	a5,0(a5)
 619:../Firmware/GD32VW55x_standard_peripheral/Source/gd32vw55x_qspi.c **** 
 1655              		.loc 1 619 44
 1656 0308 B366F700 		or	a3,a4,a5
 617:../Firmware/GD32VW55x_standard_peripheral/Source/gd32vw55x_qspi.c ****                             cmd->altebytes_mode | cmd->addr_size |
 1657              		.loc 1 617 17
 1658 030c B7670240 		li	a5,1073897472
 1659 0310 93874781 		addi	a5,a5,-2028
 619:../Firmware/GD32VW55x_standard_peripheral/Source/gd32vw55x_qspi.c **** 
 1660              		.loc 1 619 68
 1661 0314 032784FE 		lw	a4,-24(s0)
 1662 0318 558F     		or	a4,a3,a4
 617:../Firmware/GD32VW55x_standard_peripheral/Source/gd32vw55x_qspi.c ****                             cmd->altebytes_mode | cmd->addr_size |
 1663              		.loc 1 617 27
 1664 031a 98C3     		sw	a4,0(a5)
 621:../Firmware/GD32VW55x_standard_peripheral/Source/gd32vw55x_qspi.c ****                     /* configure QSPI_ADDR register with address value */
 1665              		.loc 1 621 19
 1666 031c 032784FE 		lw	a4,-24(s0)
 1667 0320 B707000C 		li	a5,201326592
 1668 0324 6300F706 		beq	a4,a5,.L55
 623:../Firmware/GD32VW55x_standard_peripheral/Source/gd32vw55x_qspi.c ****                 }
 1669              		.loc 1 623 21
 1670 0328 B7670240 		li	a5,1073897472
 1671 032c 93878781 		addi	a5,a5,-2024
 623:../Firmware/GD32VW55x_standard_peripheral/Source/gd32vw55x_qspi.c ****                 }
 1672              		.loc 1 623 36
 1673 0330 0327C4FE 		lw	a4,-20(s0)
 1674 0334 184B     		lw	a4,16(a4)
 623:../Firmware/GD32VW55x_standard_peripheral/Source/gd32vw55x_qspi.c ****                 }
 1675              		.loc 1 623 31
 1676 0336 98C3     		sw	a4,0(a5)
 1677              		.loc 1 636 1
 1678 0338 B1A0     		j	.L55
 1679              	.L54:
 627:../Firmware/GD32VW55x_standard_peripheral/Source/gd32vw55x_qspi.c ****                     /* configure QSPI_TCFG register with all communications parameters */
 1680              		.loc 1 627 23
 1681 033a 8327C4FE 		lw	a5,-20(s0)
 1682 033e DC53     		lw	a5,36(a5)
 627:../Firmware/GD32VW55x_standard_peripheral/Source/gd32vw55x_qspi.c ****                     /* configure QSPI_TCFG register with all communications parameters */
 1683              		.loc 1 627 19
 1684 0340 B1C3     		beq	a5,zero,.L55
 629:../Firmware/GD32VW55x_standard_peripheral/Source/gd32vw55x_qspi.c ****                                 cmd->altebytes_mode | cmd->addr_mode |
 1685              		.loc 1 629 36
 1686 0342 8327C4FE 		lw	a5,-20(s0)
 1687 0346 D853     		lw	a4,36(a5)
 629:../Firmware/GD32VW55x_standard_peripheral/Source/gd32vw55x_qspi.c ****                                 cmd->altebytes_mode | cmd->addr_mode |
 1688              		.loc 1 629 54
 1689 0348 8327C4FE 		lw	a5,-20(s0)
 1690 034c 9C53     		lw	a5,32(a5)
 629:../Firmware/GD32VW55x_standard_peripheral/Source/gd32vw55x_qspi.c ****                                 cmd->altebytes_mode | cmd->addr_mode |
 1691              		.loc 1 629 68
 1692 034e CA07     		slli	a5,a5,18
 629:../Firmware/GD32VW55x_standard_peripheral/Source/gd32vw55x_qspi.c ****                                 cmd->altebytes_mode | cmd->addr_mode |
 1693              		.loc 1 629 48
 1694 0350 5D8F     		or	a4,a4,a5
 629:../Firmware/GD32VW55x_standard_peripheral/Source/gd32vw55x_qspi.c ****                                 cmd->altebytes_mode | cmd->addr_mode |
 1695              		.loc 1 629 95
 1696 0352 8327C4FE 		lw	a5,-20(s0)
 1697 0356 DC57     		lw	a5,44(a5)
 629:../Firmware/GD32VW55x_standard_peripheral/Source/gd32vw55x_qspi.c ****                                 cmd->altebytes_mode | cmd->addr_mode |
 1698              		.loc 1 629 90
 1699 0358 5D8F     		or	a4,a4,a5
 630:../Firmware/GD32VW55x_standard_peripheral/Source/gd32vw55x_qspi.c ****                                 cmd->instruction_mode | functionalmode;
 1700              		.loc 1 630 36
 1701 035a 8327C4FE 		lw	a5,-20(s0)
 1702 035e DC4B     		lw	a5,20(a5)
 629:../Firmware/GD32VW55x_standard_peripheral/Source/gd32vw55x_qspi.c ****                                 cmd->altebytes_mode | cmd->addr_mode |
 1703              		.loc 1 629 107
 1704 0360 5D8F     		or	a4,a4,a5
 630:../Firmware/GD32VW55x_standard_peripheral/Source/gd32vw55x_qspi.c ****                                 cmd->instruction_mode | functionalmode;
 1705              		.loc 1 630 58
 1706 0362 8327C4FE 		lw	a5,-20(s0)
 1707 0366 9C47     		lw	a5,8(a5)
 630:../Firmware/GD32VW55x_standard_peripheral/Source/gd32vw55x_qspi.c ****                                 cmd->instruction_mode | functionalmode;
 1708              		.loc 1 630 53
 1709 0368 5D8F     		or	a4,a4,a5
 631:../Firmware/GD32VW55x_standard_peripheral/Source/gd32vw55x_qspi.c ****                 }
 1710              		.loc 1 631 36
 1711 036a 8327C4FE 		lw	a5,-20(s0)
 1712 036e 9C43     		lw	a5,0(a5)
 630:../Firmware/GD32VW55x_standard_peripheral/Source/gd32vw55x_qspi.c ****                                 cmd->instruction_mode | functionalmode;
 1713              		.loc 1 630 70
 1714 0370 B366F700 		or	a3,a4,a5
 629:../Firmware/GD32VW55x_standard_peripheral/Source/gd32vw55x_qspi.c ****                                 cmd->altebytes_mode | cmd->addr_mode |
 1715              		.loc 1 629 21
 1716 0374 B7670240 		li	a5,1073897472
 1717 0378 93874781 		addi	a5,a5,-2028
 631:../Firmware/GD32VW55x_standard_peripheral/Source/gd32vw55x_qspi.c ****                 }
 1718              		.loc 1 631 55
 1719 037c 032784FE 		lw	a4,-24(s0)
 1720 0380 558F     		or	a4,a3,a4
 629:../Firmware/GD32VW55x_standard_peripheral/Source/gd32vw55x_qspi.c ****                                 cmd->altebytes_mode | cmd->addr_mode |
 1721              		.loc 1 629 31
 1722 0382 98C3     		sw	a4,0(a5)
 1723              	.L55:
 1724              		.loc 1 636 1
 1725 0384 0100     		nop
 1726 0386 7244     		lw	s0,28(sp)
 1727              		.cfi_restore 8
 1728              		.cfi_def_cfa 2, 32
 1729 0388 0561     		addi	sp,sp,32
 1730              		.cfi_def_cfa_offset 0
 1731 038a 8280     		jr	ra
 1732              		.cfi_endproc
 1733              	.LFE368:
 1735              		.text
 1736              	.Letext0:
 1737              		.file 2 "e:\\gd32\\gd32embeddedbuilder_v1.5.2.30854\\tools\\nuclei_riscv_newlibc_prebuilt_win32_20
 1738              		.file 3 "e:\\gd32\\gd32embeddedbuilder_v1.5.2.30854\\tools\\nuclei_riscv_newlibc_prebuilt_win32_20
 1739              		.file 4 "../Firmware/GD32VW55x_standard_peripheral/gd32vw55x.h"
 1740              		.file 5 "../Firmware/GD32VW55x_standard_peripheral/Include/gd32vw55x_rcu.h"
 1741              		.file 6 "../Firmware/GD32VW55x_standard_peripheral/Include/gd32vw55x_qspi.h"
DEFINED SYMBOLS
                            *ABS*:0000000000000000 gd32vw55x_qspi.c
C:\Users\CYMR90~1\AppData\Local\Temp\ccMBshSz.s:13     .text.qspi_deinit:0000000000000000 qspi_deinit
C:\Users\CYMR90~1\AppData\Local\Temp\ccMBshSz.s:17     .text.qspi_deinit:0000000000000000 .L0 
C:\Users\CYMR90~1\AppData\Local\Temp\ccMBshSz.s:18     .text.qspi_deinit:0000000000000000 .L0 
C:\Users\CYMR90~1\AppData\Local\Temp\ccMBshSz.s:19     .text.qspi_deinit:0000000000000002 .L0 
C:\Users\CYMR90~1\AppData\Local\Temp\ccMBshSz.s:22     .text.qspi_deinit:0000000000000006 .L0 
C:\Users\CYMR90~1\AppData\Local\Temp\ccMBshSz.s:23     .text.qspi_deinit:0000000000000006 .L0 
C:\Users\CYMR90~1\AppData\Local\Temp\ccMBshSz.s:25     .text.qspi_deinit:0000000000000008 .L0 
C:\Users\CYMR90~1\AppData\Local\Temp\ccMBshSz.s:27     .text.qspi_deinit:0000000000000008 .L0 
C:\Users\CYMR90~1\AppData\Local\Temp\ccMBshSz.s:30     .text.qspi_deinit:0000000000000014 .L0 
C:\Users\CYMR90~1\AppData\Local\Temp\ccMBshSz.s:33     .text.qspi_deinit:0000000000000020 .L0 
C:\Users\CYMR90~1\AppData\Local\Temp\ccMBshSz.s:35     .text.qspi_deinit:0000000000000024 .L0 
C:\Users\CYMR90~1\AppData\Local\Temp\ccMBshSz.s:37     .text.qspi_deinit:0000000000000026 .L0 
C:\Users\CYMR90~1\AppData\Local\Temp\ccMBshSz.s:38     .text.qspi_deinit:0000000000000026 .L0 
C:\Users\CYMR90~1\AppData\Local\Temp\ccMBshSz.s:40     .text.qspi_deinit:0000000000000028 .L0 
C:\Users\CYMR90~1\AppData\Local\Temp\ccMBshSz.s:42     .text.qspi_deinit:000000000000002a .L0 
C:\Users\CYMR90~1\AppData\Local\Temp\ccMBshSz.s:49     .text.qspi_struct_para_init:0000000000000000 qspi_struct_para_init
C:\Users\CYMR90~1\AppData\Local\Temp\ccMBshSz.s:52     .text.qspi_struct_para_init:0000000000000000 .L0 
C:\Users\CYMR90~1\AppData\Local\Temp\ccMBshSz.s:53     .text.qspi_struct_para_init:0000000000000000 .L0 
C:\Users\CYMR90~1\AppData\Local\Temp\ccMBshSz.s:54     .text.qspi_struct_para_init:0000000000000002 .L0 
C:\Users\CYMR90~1\AppData\Local\Temp\ccMBshSz.s:56     .text.qspi_struct_para_init:0000000000000004 .L0 
C:\Users\CYMR90~1\AppData\Local\Temp\ccMBshSz.s:58     .text.qspi_struct_para_init:0000000000000006 .L0 
C:\Users\CYMR90~1\AppData\Local\Temp\ccMBshSz.s:61     .text.qspi_struct_para_init:000000000000000a .L0 
C:\Users\CYMR90~1\AppData\Local\Temp\ccMBshSz.s:64     .text.qspi_struct_para_init:0000000000000012 .L0 
C:\Users\CYMR90~1\AppData\Local\Temp\ccMBshSz.s:68     .text.qspi_struct_para_init:000000000000001a .L0 
C:\Users\CYMR90~1\AppData\Local\Temp\ccMBshSz.s:72     .text.qspi_struct_para_init:0000000000000022 .L0 
C:\Users\CYMR90~1\AppData\Local\Temp\ccMBshSz.s:75     .text.qspi_struct_para_init:000000000000002a .L0 
C:\Users\CYMR90~1\AppData\Local\Temp\ccMBshSz.s:79     .text.qspi_struct_para_init:0000000000000032 .L0 
C:\Users\CYMR90~1\AppData\Local\Temp\ccMBshSz.s:82     .text.qspi_struct_para_init:000000000000003a .L0 
C:\Users\CYMR90~1\AppData\Local\Temp\ccMBshSz.s:84     .text.qspi_struct_para_init:000000000000003e .L0 
C:\Users\CYMR90~1\AppData\Local\Temp\ccMBshSz.s:85     .text.qspi_struct_para_init:000000000000003e .L0 
C:\Users\CYMR90~1\AppData\Local\Temp\ccMBshSz.s:87     .text.qspi_struct_para_init:0000000000000040 .L0 
C:\Users\CYMR90~1\AppData\Local\Temp\ccMBshSz.s:89     .text.qspi_struct_para_init:0000000000000042 .L0 
C:\Users\CYMR90~1\AppData\Local\Temp\ccMBshSz.s:96     .text.qspi_cmd_struct_para_init:0000000000000000 qspi_cmd_struct_para_init
C:\Users\CYMR90~1\AppData\Local\Temp\ccMBshSz.s:99     .text.qspi_cmd_struct_para_init:0000000000000000 .L0 
C:\Users\CYMR90~1\AppData\Local\Temp\ccMBshSz.s:100    .text.qspi_cmd_struct_para_init:0000000000000000 .L0 
C:\Users\CYMR90~1\AppData\Local\Temp\ccMBshSz.s:101    .text.qspi_cmd_struct_para_init:0000000000000002 .L0 
C:\Users\CYMR90~1\AppData\Local\Temp\ccMBshSz.s:103    .text.qspi_cmd_struct_para_init:0000000000000004 .L0 
C:\Users\CYMR90~1\AppData\Local\Temp\ccMBshSz.s:105    .text.qspi_cmd_struct_para_init:0000000000000006 .L0 
C:\Users\CYMR90~1\AppData\Local\Temp\ccMBshSz.s:108    .text.qspi_cmd_struct_para_init:000000000000000a .L0 
C:\Users\CYMR90~1\AppData\Local\Temp\ccMBshSz.s:111    .text.qspi_cmd_struct_para_init:0000000000000012 .L0 
C:\Users\CYMR90~1\AppData\Local\Temp\ccMBshSz.s:114    .text.qspi_cmd_struct_para_init:000000000000001a .L0 
C:\Users\CYMR90~1\AppData\Local\Temp\ccMBshSz.s:117    .text.qspi_cmd_struct_para_init:0000000000000022 .L0 
C:\Users\CYMR90~1\AppData\Local\Temp\ccMBshSz.s:120    .text.qspi_cmd_struct_para_init:000000000000002a .L0 
C:\Users\CYMR90~1\AppData\Local\Temp\ccMBshSz.s:123    .text.qspi_cmd_struct_para_init:0000000000000032 .L0 
C:\Users\CYMR90~1\AppData\Local\Temp\ccMBshSz.s:126    .text.qspi_cmd_struct_para_init:000000000000003a .L0 
C:\Users\CYMR90~1\AppData\Local\Temp\ccMBshSz.s:129    .text.qspi_cmd_struct_para_init:0000000000000042 .L0 
C:\Users\CYMR90~1\AppData\Local\Temp\ccMBshSz.s:132    .text.qspi_cmd_struct_para_init:000000000000004a .L0 
C:\Users\CYMR90~1\AppData\Local\Temp\ccMBshSz.s:135    .text.qspi_cmd_struct_para_init:0000000000000052 .L0 
C:\Users\CYMR90~1\AppData\Local\Temp\ccMBshSz.s:138    .text.qspi_cmd_struct_para_init:000000000000005a .L0 
C:\Users\CYMR90~1\AppData\Local\Temp\ccMBshSz.s:141    .text.qspi_cmd_struct_para_init:0000000000000062 .L0 
C:\Users\CYMR90~1\AppData\Local\Temp\ccMBshSz.s:144    .text.qspi_cmd_struct_para_init:000000000000006a .L0 
C:\Users\CYMR90~1\AppData\Local\Temp\ccMBshSz.s:146    .text.qspi_cmd_struct_para_init:000000000000006e .L0 
C:\Users\CYMR90~1\AppData\Local\Temp\ccMBshSz.s:147    .text.qspi_cmd_struct_para_init:000000000000006e .L0 
C:\Users\CYMR90~1\AppData\Local\Temp\ccMBshSz.s:149    .text.qspi_cmd_struct_para_init:0000000000000070 .L0 
C:\Users\CYMR90~1\AppData\Local\Temp\ccMBshSz.s:151    .text.qspi_cmd_struct_para_init:0000000000000072 .L0 
C:\Users\CYMR90~1\AppData\Local\Temp\ccMBshSz.s:158    .text.qspi_polling_struct_para_init:0000000000000000 qspi_polling_struct_para_init
C:\Users\CYMR90~1\AppData\Local\Temp\ccMBshSz.s:161    .text.qspi_polling_struct_para_init:0000000000000000 .L0 
C:\Users\CYMR90~1\AppData\Local\Temp\ccMBshSz.s:162    .text.qspi_polling_struct_para_init:0000000000000000 .L0 
C:\Users\CYMR90~1\AppData\Local\Temp\ccMBshSz.s:163    .text.qspi_polling_struct_para_init:0000000000000002 .L0 
C:\Users\CYMR90~1\AppData\Local\Temp\ccMBshSz.s:165    .text.qspi_polling_struct_para_init:0000000000000004 .L0 
C:\Users\CYMR90~1\AppData\Local\Temp\ccMBshSz.s:167    .text.qspi_polling_struct_para_init:0000000000000006 .L0 
C:\Users\CYMR90~1\AppData\Local\Temp\ccMBshSz.s:170    .text.qspi_polling_struct_para_init:000000000000000a .L0 
C:\Users\CYMR90~1\AppData\Local\Temp\ccMBshSz.s:173    .text.qspi_polling_struct_para_init:0000000000000012 .L0 
C:\Users\CYMR90~1\AppData\Local\Temp\ccMBshSz.s:176    .text.qspi_polling_struct_para_init:000000000000001a .L0 
C:\Users\CYMR90~1\AppData\Local\Temp\ccMBshSz.s:179    .text.qspi_polling_struct_para_init:0000000000000022 .L0 
C:\Users\CYMR90~1\AppData\Local\Temp\ccMBshSz.s:183    .text.qspi_polling_struct_para_init:000000000000002a .L0 
C:\Users\CYMR90~1\AppData\Local\Temp\ccMBshSz.s:186    .text.qspi_polling_struct_para_init:0000000000000032 .L0 
C:\Users\CYMR90~1\AppData\Local\Temp\ccMBshSz.s:189    .text.qspi_polling_struct_para_init:000000000000003a .L0 
C:\Users\CYMR90~1\AppData\Local\Temp\ccMBshSz.s:191    .text.qspi_polling_struct_para_init:000000000000003e .L0 
C:\Users\CYMR90~1\AppData\Local\Temp\ccMBshSz.s:192    .text.qspi_polling_struct_para_init:000000000000003e .L0 
C:\Users\CYMR90~1\AppData\Local\Temp\ccMBshSz.s:194    .text.qspi_polling_struct_para_init:0000000000000040 .L0 
C:\Users\CYMR90~1\AppData\Local\Temp\ccMBshSz.s:196    .text.qspi_polling_struct_para_init:0000000000000042 .L0 
C:\Users\CYMR90~1\AppData\Local\Temp\ccMBshSz.s:203    .text.qspi_init:0000000000000000 qspi_init
C:\Users\CYMR90~1\AppData\Local\Temp\ccMBshSz.s:206    .text.qspi_init:0000000000000000 .L0 
C:\Users\CYMR90~1\AppData\Local\Temp\ccMBshSz.s:207    .text.qspi_init:0000000000000000 .L0 
C:\Users\CYMR90~1\AppData\Local\Temp\ccMBshSz.s:208    .text.qspi_init:0000000000000002 .L0 
C:\Users\CYMR90~1\AppData\Local\Temp\ccMBshSz.s:210    .text.qspi_init:0000000000000004 .L0 
C:\Users\CYMR90~1\AppData\Local\Temp\ccMBshSz.s:212    .text.qspi_init:0000000000000006 .L0 
C:\Users\CYMR90~1\AppData\Local\Temp\ccMBshSz.s:215    .text.qspi_init:000000000000000a .L0 
C:\Users\CYMR90~1\AppData\Local\Temp\ccMBshSz.s:225    .text.qspi_init:0000000000000028 .L0 
C:\Users\CYMR90~1\AppData\Local\Temp\ccMBshSz.s:229    .text.qspi_init:0000000000000032 .L0 
C:\Users\CYMR90~1\AppData\Local\Temp\ccMBshSz.s:232    .text.qspi_init:0000000000000038 .L0 
C:\Users\CYMR90~1\AppData\Local\Temp\ccMBshSz.s:234    .text.qspi_init:000000000000003c .L0 
C:\Users\CYMR90~1\AppData\Local\Temp\ccMBshSz.s:237    .text.qspi_init:0000000000000042 .L0 
C:\Users\CYMR90~1\AppData\Local\Temp\ccMBshSz.s:239    .text.qspi_init:0000000000000044 .L0 
C:\Users\CYMR90~1\AppData\Local\Temp\ccMBshSz.s:242    .text.qspi_init:000000000000004a .L0 
C:\Users\CYMR90~1\AppData\Local\Temp\ccMBshSz.s:244    .text.qspi_init:000000000000004c .L0 
C:\Users\CYMR90~1\AppData\Local\Temp\ccMBshSz.s:246    .text.qspi_init:000000000000004e .L0 
C:\Users\CYMR90~1\AppData\Local\Temp\ccMBshSz.s:248    .text.qspi_init:0000000000000050 .L0 
C:\Users\CYMR90~1\AppData\Local\Temp\ccMBshSz.s:253    .text.qspi_init:000000000000005c .L0 
C:\Users\CYMR90~1\AppData\Local\Temp\ccMBshSz.s:263    .text.qspi_init:000000000000007a .L0 
C:\Users\CYMR90~1\AppData\Local\Temp\ccMBshSz.s:267    .text.qspi_init:0000000000000084 .L0 
C:\Users\CYMR90~1\AppData\Local\Temp\ccMBshSz.s:270    .text.qspi_init:000000000000008a .L0 
C:\Users\CYMR90~1\AppData\Local\Temp\ccMBshSz.s:272    .text.qspi_init:000000000000008e .L0 
C:\Users\CYMR90~1\AppData\Local\Temp\ccMBshSz.s:275    .text.qspi_init:0000000000000094 .L0 
C:\Users\CYMR90~1\AppData\Local\Temp\ccMBshSz.s:277    .text.qspi_init:0000000000000096 .L0 
C:\Users\CYMR90~1\AppData\Local\Temp\ccMBshSz.s:280    .text.qspi_init:000000000000009c .L0 
C:\Users\CYMR90~1\AppData\Local\Temp\ccMBshSz.s:282    .text.qspi_init:000000000000009e .L0 
C:\Users\CYMR90~1\AppData\Local\Temp\ccMBshSz.s:287    .text.qspi_init:00000000000000aa .L0 
C:\Users\CYMR90~1\AppData\Local\Temp\ccMBshSz.s:289    .text.qspi_init:00000000000000ae .L0 
C:\Users\CYMR90~1\AppData\Local\Temp\ccMBshSz.s:290    .text.qspi_init:00000000000000ae .L0 
C:\Users\CYMR90~1\AppData\Local\Temp\ccMBshSz.s:292    .text.qspi_init:00000000000000b0 .L0 
C:\Users\CYMR90~1\AppData\Local\Temp\ccMBshSz.s:294    .text.qspi_init:00000000000000b2 .L0 
C:\Users\CYMR90~1\AppData\Local\Temp\ccMBshSz.s:301    .text.qspi_enable:0000000000000000 qspi_enable
C:\Users\CYMR90~1\AppData\Local\Temp\ccMBshSz.s:304    .text.qspi_enable:0000000000000000 .L0 
C:\Users\CYMR90~1\AppData\Local\Temp\ccMBshSz.s:305    .text.qspi_enable:0000000000000000 .L0 
C:\Users\CYMR90~1\AppData\Local\Temp\ccMBshSz.s:306    .text.qspi_enable:0000000000000002 .L0 
C:\Users\CYMR90~1\AppData\Local\Temp\ccMBshSz.s:308    .text.qspi_enable:0000000000000004 .L0 
C:\Users\CYMR90~1\AppData\Local\Temp\ccMBshSz.s:310    .text.qspi_enable:0000000000000006 .L0 
C:\Users\CYMR90~1\AppData\Local\Temp\ccMBshSz.s:312    .text.qspi_enable:0000000000000006 .L0 
C:\Users\CYMR90~1\AppData\Local\Temp\ccMBshSz.s:320    .text.qspi_enable:000000000000001e .L0 
C:\Users\CYMR90~1\AppData\Local\Temp\ccMBshSz.s:322    .text.qspi_enable:0000000000000022 .L0 
C:\Users\CYMR90~1\AppData\Local\Temp\ccMBshSz.s:323    .text.qspi_enable:0000000000000022 .L0 
C:\Users\CYMR90~1\AppData\Local\Temp\ccMBshSz.s:325    .text.qspi_enable:0000000000000024 .L0 
C:\Users\CYMR90~1\AppData\Local\Temp\ccMBshSz.s:327    .text.qspi_enable:0000000000000026 .L0 
C:\Users\CYMR90~1\AppData\Local\Temp\ccMBshSz.s:334    .text.qspi_disable:0000000000000000 qspi_disable
C:\Users\CYMR90~1\AppData\Local\Temp\ccMBshSz.s:337    .text.qspi_disable:0000000000000000 .L0 
C:\Users\CYMR90~1\AppData\Local\Temp\ccMBshSz.s:338    .text.qspi_disable:0000000000000000 .L0 
C:\Users\CYMR90~1\AppData\Local\Temp\ccMBshSz.s:339    .text.qspi_disable:0000000000000002 .L0 
C:\Users\CYMR90~1\AppData\Local\Temp\ccMBshSz.s:341    .text.qspi_disable:0000000000000004 .L0 
C:\Users\CYMR90~1\AppData\Local\Temp\ccMBshSz.s:343    .text.qspi_disable:0000000000000006 .L0 
C:\Users\CYMR90~1\AppData\Local\Temp\ccMBshSz.s:345    .text.qspi_disable:0000000000000006 .L0 
C:\Users\CYMR90~1\AppData\Local\Temp\ccMBshSz.s:353    .text.qspi_disable:000000000000001c .L0 
C:\Users\CYMR90~1\AppData\Local\Temp\ccMBshSz.s:355    .text.qspi_disable:0000000000000020 .L0 
C:\Users\CYMR90~1\AppData\Local\Temp\ccMBshSz.s:356    .text.qspi_disable:0000000000000020 .L0 
C:\Users\CYMR90~1\AppData\Local\Temp\ccMBshSz.s:358    .text.qspi_disable:0000000000000022 .L0 
C:\Users\CYMR90~1\AppData\Local\Temp\ccMBshSz.s:360    .text.qspi_disable:0000000000000024 .L0 
C:\Users\CYMR90~1\AppData\Local\Temp\ccMBshSz.s:367    .text.qspi_dma_enable:0000000000000000 qspi_dma_enable
C:\Users\CYMR90~1\AppData\Local\Temp\ccMBshSz.s:370    .text.qspi_dma_enable:0000000000000000 .L0 
C:\Users\CYMR90~1\AppData\Local\Temp\ccMBshSz.s:371    .text.qspi_dma_enable:0000000000000000 .L0 
C:\Users\CYMR90~1\AppData\Local\Temp\ccMBshSz.s:372    .text.qspi_dma_enable:0000000000000002 .L0 
C:\Users\CYMR90~1\AppData\Local\Temp\ccMBshSz.s:374    .text.qspi_dma_enable:0000000000000004 .L0 
C:\Users\CYMR90~1\AppData\Local\Temp\ccMBshSz.s:376    .text.qspi_dma_enable:0000000000000006 .L0 
C:\Users\CYMR90~1\AppData\Local\Temp\ccMBshSz.s:378    .text.qspi_dma_enable:0000000000000006 .L0 
C:\Users\CYMR90~1\AppData\Local\Temp\ccMBshSz.s:386    .text.qspi_dma_enable:000000000000001e .L0 
C:\Users\CYMR90~1\AppData\Local\Temp\ccMBshSz.s:388    .text.qspi_dma_enable:0000000000000022 .L0 
C:\Users\CYMR90~1\AppData\Local\Temp\ccMBshSz.s:389    .text.qspi_dma_enable:0000000000000022 .L0 
C:\Users\CYMR90~1\AppData\Local\Temp\ccMBshSz.s:391    .text.qspi_dma_enable:0000000000000024 .L0 
C:\Users\CYMR90~1\AppData\Local\Temp\ccMBshSz.s:393    .text.qspi_dma_enable:0000000000000026 .L0 
C:\Users\CYMR90~1\AppData\Local\Temp\ccMBshSz.s:400    .text.qspi_dma_disable:0000000000000000 qspi_dma_disable
C:\Users\CYMR90~1\AppData\Local\Temp\ccMBshSz.s:403    .text.qspi_dma_disable:0000000000000000 .L0 
C:\Users\CYMR90~1\AppData\Local\Temp\ccMBshSz.s:404    .text.qspi_dma_disable:0000000000000000 .L0 
C:\Users\CYMR90~1\AppData\Local\Temp\ccMBshSz.s:405    .text.qspi_dma_disable:0000000000000002 .L0 
C:\Users\CYMR90~1\AppData\Local\Temp\ccMBshSz.s:407    .text.qspi_dma_disable:0000000000000004 .L0 
C:\Users\CYMR90~1\AppData\Local\Temp\ccMBshSz.s:409    .text.qspi_dma_disable:0000000000000006 .L0 
C:\Users\CYMR90~1\AppData\Local\Temp\ccMBshSz.s:411    .text.qspi_dma_disable:0000000000000006 .L0 
C:\Users\CYMR90~1\AppData\Local\Temp\ccMBshSz.s:419    .text.qspi_dma_disable:000000000000001c .L0 
C:\Users\CYMR90~1\AppData\Local\Temp\ccMBshSz.s:421    .text.qspi_dma_disable:0000000000000020 .L0 
C:\Users\CYMR90~1\AppData\Local\Temp\ccMBshSz.s:422    .text.qspi_dma_disable:0000000000000020 .L0 
C:\Users\CYMR90~1\AppData\Local\Temp\ccMBshSz.s:424    .text.qspi_dma_disable:0000000000000022 .L0 
C:\Users\CYMR90~1\AppData\Local\Temp\ccMBshSz.s:426    .text.qspi_dma_disable:0000000000000024 .L0 
C:\Users\CYMR90~1\AppData\Local\Temp\ccMBshSz.s:433    .text.qspi_command_config:0000000000000000 qspi_command_config
C:\Users\CYMR90~1\AppData\Local\Temp\ccMBshSz.s:436    .text.qspi_command_config:0000000000000000 .L0 
C:\Users\CYMR90~1\AppData\Local\Temp\ccMBshSz.s:437    .text.qspi_command_config:0000000000000000 .L0 
C:\Users\CYMR90~1\AppData\Local\Temp\ccMBshSz.s:438    .text.qspi_command_config:0000000000000002 .L0 
C:\Users\CYMR90~1\AppData\Local\Temp\ccMBshSz.s:441    .text.qspi_command_config:0000000000000006 .L0 
C:\Users\CYMR90~1\AppData\Local\Temp\ccMBshSz.s:442    .text.qspi_command_config:0000000000000006 .L0 
C:\Users\CYMR90~1\AppData\Local\Temp\ccMBshSz.s:444    .text.qspi_command_config:0000000000000008 .L0 
C:\Users\CYMR90~1\AppData\Local\Temp\ccMBshSz.s:447    .text.qspi_command_config:000000000000000c .L0 
C:\Users\CYMR90~1\AppData\Local\Temp\ccMBshSz.s:1202   .text.qspi_config:0000000000000000 qspi_config
C:\Users\CYMR90~1\AppData\Local\Temp\ccMBshSz.s:451    .text.qspi_command_config:000000000000001a .L0 
C:\Users\CYMR90~1\AppData\Local\Temp\ccMBshSz.s:454    .text.qspi_command_config:0000000000000020 .L0 
C:\Users\CYMR90~1\AppData\Local\Temp\ccMBshSz.s:456    .text.qspi_command_config:0000000000000022 .L0 
C:\Users\CYMR90~1\AppData\Local\Temp\ccMBshSz.s:459    .text.qspi_command_config:0000000000000024 .L0 
C:\Users\CYMR90~1\AppData\Local\Temp\ccMBshSz.s:463    .text.qspi_command_config:000000000000002e .L0 
C:\Users\CYMR90~1\AppData\Local\Temp\ccMBshSz.s:465    .text.qspi_command_config:0000000000000030 .L0 
C:\Users\CYMR90~1\AppData\Local\Temp\ccMBshSz.s:467    .text.qspi_command_config:0000000000000032 .L0 
C:\Users\CYMR90~1\AppData\Local\Temp\ccMBshSz.s:470    .text.qspi_command_config:000000000000003a .L0 
C:\Users\CYMR90~1\AppData\Local\Temp\ccMBshSz.s:474    .text.qspi_command_config:000000000000003e .L0 
C:\Users\CYMR90~1\AppData\Local\Temp\ccMBshSz.s:476    .text.qspi_command_config:0000000000000042 .L0 
C:\Users\CYMR90~1\AppData\Local\Temp\ccMBshSz.s:478    .text.qspi_command_config:0000000000000044 .L0 
C:\Users\CYMR90~1\AppData\Local\Temp\ccMBshSz.s:479    .text.qspi_command_config:0000000000000044 .L0 
C:\Users\CYMR90~1\AppData\Local\Temp\ccMBshSz.s:481    .text.qspi_command_config:0000000000000046 .L0 
C:\Users\CYMR90~1\AppData\Local\Temp\ccMBshSz.s:483    .text.qspi_command_config:0000000000000048 .L0 
C:\Users\CYMR90~1\AppData\Local\Temp\ccMBshSz.s:490    .text.qspi_polling_config:0000000000000000 qspi_polling_config
C:\Users\CYMR90~1\AppData\Local\Temp\ccMBshSz.s:493    .text.qspi_polling_config:0000000000000000 .L0 
C:\Users\CYMR90~1\AppData\Local\Temp\ccMBshSz.s:494    .text.qspi_polling_config:0000000000000000 .L0 
C:\Users\CYMR90~1\AppData\Local\Temp\ccMBshSz.s:495    .text.qspi_polling_config:0000000000000002 .L0 
C:\Users\CYMR90~1\AppData\Local\Temp\ccMBshSz.s:498    .text.qspi_polling_config:0000000000000006 .L0 
C:\Users\CYMR90~1\AppData\Local\Temp\ccMBshSz.s:499    .text.qspi_polling_config:0000000000000006 .L0 
C:\Users\CYMR90~1\AppData\Local\Temp\ccMBshSz.s:501    .text.qspi_polling_config:0000000000000008 .L0 
C:\Users\CYMR90~1\AppData\Local\Temp\ccMBshSz.s:505    .text.qspi_polling_config:0000000000000010 .L0 
C:\Users\CYMR90~1\AppData\Local\Temp\ccMBshSz.s:508    .text.qspi_polling_config:0000000000000018 .L0 
C:\Users\CYMR90~1\AppData\Local\Temp\ccMBshSz.s:511    .text.qspi_polling_config:000000000000001e .L0 
C:\Users\CYMR90~1\AppData\Local\Temp\ccMBshSz.s:513    .text.qspi_polling_config:0000000000000020 .L0 
C:\Users\CYMR90~1\AppData\Local\Temp\ccMBshSz.s:516    .text.qspi_polling_config:0000000000000028 .L0 
C:\Users\CYMR90~1\AppData\Local\Temp\ccMBshSz.s:519    .text.qspi_polling_config:000000000000002e .L0 
C:\Users\CYMR90~1\AppData\Local\Temp\ccMBshSz.s:521    .text.qspi_polling_config:0000000000000030 .L0 
C:\Users\CYMR90~1\AppData\Local\Temp\ccMBshSz.s:524    .text.qspi_polling_config:0000000000000038 .L0 
C:\Users\CYMR90~1\AppData\Local\Temp\ccMBshSz.s:527    .text.qspi_polling_config:000000000000003e .L0 
C:\Users\CYMR90~1\AppData\Local\Temp\ccMBshSz.s:529    .text.qspi_polling_config:0000000000000040 .L0 
C:\Users\CYMR90~1\AppData\Local\Temp\ccMBshSz.s:539    .text.qspi_polling_config:000000000000005c .L0 
C:\Users\CYMR90~1\AppData\Local\Temp\ccMBshSz.s:543    .text.qspi_polling_config:0000000000000066 .L0 
C:\Users\CYMR90~1\AppData\Local\Temp\ccMBshSz.s:546    .text.qspi_polling_config:000000000000006c .L0 
C:\Users\CYMR90~1\AppData\Local\Temp\ccMBshSz.s:549    .text.qspi_polling_config:0000000000000072 .L0 
C:\Users\CYMR90~1\AppData\Local\Temp\ccMBshSz.s:551    .text.qspi_polling_config:0000000000000074 .L0 
C:\Users\CYMR90~1\AppData\Local\Temp\ccMBshSz.s:556    .text.qspi_polling_config:0000000000000080 .L0 
C:\Users\CYMR90~1\AppData\Local\Temp\ccMBshSz.s:559    .text.qspi_polling_config:0000000000000086 .L0 
C:\Users\CYMR90~1\AppData\Local\Temp\ccMBshSz.s:562    .text.qspi_polling_config:000000000000008c .L0 
C:\Users\CYMR90~1\AppData\Local\Temp\ccMBshSz.s:566    .text.qspi_polling_config:000000000000009c .L0 
C:\Users\CYMR90~1\AppData\Local\Temp\ccMBshSz.s:568    .text.qspi_polling_config:00000000000000a0 .L0 
C:\Users\CYMR90~1\AppData\Local\Temp\ccMBshSz.s:570    .text.qspi_polling_config:00000000000000a2 .L0 
C:\Users\CYMR90~1\AppData\Local\Temp\ccMBshSz.s:571    .text.qspi_polling_config:00000000000000a2 .L0 
C:\Users\CYMR90~1\AppData\Local\Temp\ccMBshSz.s:573    .text.qspi_polling_config:00000000000000a4 .L0 
C:\Users\CYMR90~1\AppData\Local\Temp\ccMBshSz.s:575    .text.qspi_polling_config:00000000000000a6 .L0 
C:\Users\CYMR90~1\AppData\Local\Temp\ccMBshSz.s:582    .text.qspi_memorymapped_config:0000000000000000 qspi_memorymapped_config
C:\Users\CYMR90~1\AppData\Local\Temp\ccMBshSz.s:585    .text.qspi_memorymapped_config:0000000000000000 .L0 
C:\Users\CYMR90~1\AppData\Local\Temp\ccMBshSz.s:586    .text.qspi_memorymapped_config:0000000000000000 .L0 
C:\Users\CYMR90~1\AppData\Local\Temp\ccMBshSz.s:587    .text.qspi_memorymapped_config:0000000000000002 .L0 
C:\Users\CYMR90~1\AppData\Local\Temp\ccMBshSz.s:590    .text.qspi_memorymapped_config:0000000000000006 .L0 
C:\Users\CYMR90~1\AppData\Local\Temp\ccMBshSz.s:591    .text.qspi_memorymapped_config:0000000000000006 .L0 
C:\Users\CYMR90~1\AppData\Local\Temp\ccMBshSz.s:593    .text.qspi_memorymapped_config:0000000000000008 .L0 
C:\Users\CYMR90~1\AppData\Local\Temp\ccMBshSz.s:599    .text.qspi_memorymapped_config:0000000000000016 .L0 
C:\Users\CYMR90~1\AppData\Local\Temp\ccMBshSz.s:607    .text.qspi_memorymapped_config:000000000000002c .L0 
C:\Users\CYMR90~1\AppData\Local\Temp\ccMBshSz.s:616    .text.qspi_memorymapped_config:0000000000000046 .L0 
C:\Users\CYMR90~1\AppData\Local\Temp\ccMBshSz.s:620    .text.qspi_memorymapped_config:0000000000000050 .L0 
C:\Users\CYMR90~1\AppData\Local\Temp\ccMBshSz.s:623    .text.qspi_memorymapped_config:0000000000000058 .L0 
C:\Users\CYMR90~1\AppData\Local\Temp\ccMBshSz.s:626    .text.qspi_memorymapped_config:000000000000005e .L0 
C:\Users\CYMR90~1\AppData\Local\Temp\ccMBshSz.s:629    .text.qspi_memorymapped_config:0000000000000066 .L0 
C:\Users\CYMR90~1\AppData\Local\Temp\ccMBshSz.s:632    .text.qspi_memorymapped_config:000000000000006a .L0 
C:\Users\CYMR90~1\AppData\Local\Temp\ccMBshSz.s:642    .text.qspi_memorymapped_config:0000000000000084 .L0 
C:\Users\CYMR90~1\AppData\Local\Temp\ccMBshSz.s:646    .text.qspi_memorymapped_config:0000000000000094 .L0 
C:\Users\CYMR90~1\AppData\Local\Temp\ccMBshSz.s:648    .text.qspi_memorymapped_config:0000000000000098 .L0 
C:\Users\CYMR90~1\AppData\Local\Temp\ccMBshSz.s:650    .text.qspi_memorymapped_config:000000000000009a .L0 
C:\Users\CYMR90~1\AppData\Local\Temp\ccMBshSz.s:651    .text.qspi_memorymapped_config:000000000000009a .L0 
C:\Users\CYMR90~1\AppData\Local\Temp\ccMBshSz.s:653    .text.qspi_memorymapped_config:000000000000009c .L0 
C:\Users\CYMR90~1\AppData\Local\Temp\ccMBshSz.s:655    .text.qspi_memorymapped_config:000000000000009e .L0 
C:\Users\CYMR90~1\AppData\Local\Temp\ccMBshSz.s:662    .text.qspi_data_transmit:0000000000000000 qspi_data_transmit
C:\Users\CYMR90~1\AppData\Local\Temp\ccMBshSz.s:665    .text.qspi_data_transmit:0000000000000000 .L0 
C:\Users\CYMR90~1\AppData\Local\Temp\ccMBshSz.s:666    .text.qspi_data_transmit:0000000000000000 .L0 
C:\Users\CYMR90~1\AppData\Local\Temp\ccMBshSz.s:667    .text.qspi_data_transmit:0000000000000002 .L0 
C:\Users\CYMR90~1\AppData\Local\Temp\ccMBshSz.s:669    .text.qspi_data_transmit:0000000000000004 .L0 
C:\Users\CYMR90~1\AppData\Local\Temp\ccMBshSz.s:671    .text.qspi_data_transmit:0000000000000006 .L0 
C:\Users\CYMR90~1\AppData\Local\Temp\ccMBshSz.s:674    .text.qspi_data_transmit:000000000000000a .L0 
C:\Users\CYMR90~1\AppData\Local\Temp\ccMBshSz.s:678    .text.qspi_data_transmit:0000000000000014 .L0 
C:\Users\CYMR90~1\AppData\Local\Temp\ccMBshSz.s:681    .text.qspi_data_transmit:000000000000001a .L0 
C:\Users\CYMR90~1\AppData\Local\Temp\ccMBshSz.s:685    .text.qspi_data_transmit:0000000000000024 .L0 
C:\Users\CYMR90~1\AppData\Local\Temp\ccMBshSz.s:688    .text.qspi_data_transmit:000000000000002c .L0 
C:\Users\CYMR90~1\AppData\Local\Temp\ccMBshSz.s:692    .text.qspi_data_transmit:0000000000000034 .L0 
C:\Users\CYMR90~1\AppData\Local\Temp\ccMBshSz.s:694    .text.qspi_data_transmit:0000000000000036 .L0 
C:\Users\CYMR90~1\AppData\Local\Temp\ccMBshSz.s:697    .text.qspi_data_transmit:0000000000000038 .L0 
C:\Users\CYMR90~1\AppData\Local\Temp\ccMBshSz.s:700    .text.qspi_data_transmit:000000000000003a .L0 
C:\Users\CYMR90~1\AppData\Local\Temp\ccMBshSz.s:704    .text.qspi_data_transmit:0000000000000044 .L0 
C:\Users\CYMR90~1\AppData\Local\Temp\ccMBshSz.s:706    .text.qspi_data_transmit:0000000000000046 .L0 
C:\Users\CYMR90~1\AppData\Local\Temp\ccMBshSz.s:708    .text.qspi_data_transmit:0000000000000048 .L0 
C:\Users\CYMR90~1\AppData\Local\Temp\ccMBshSz.s:712    .text.qspi_data_transmit:0000000000000054 .L0 
C:\Users\CYMR90~1\AppData\Local\Temp\ccMBshSz.s:715    .text.qspi_data_transmit:000000000000005c .L0 
C:\Users\CYMR90~1\AppData\Local\Temp\ccMBshSz.s:717    .text.qspi_data_transmit:0000000000000060 .L0 
C:\Users\CYMR90~1\AppData\Local\Temp\ccMBshSz.s:719    .text.qspi_data_transmit:0000000000000064 .L0 
C:\Users\CYMR90~1\AppData\Local\Temp\ccMBshSz.s:724    .text.qspi_data_transmit:000000000000006e .L0 
C:\Users\CYMR90~1\AppData\Local\Temp\ccMBshSz.s:727    .text.qspi_data_transmit:0000000000000074 .L0 
C:\Users\CYMR90~1\AppData\Local\Temp\ccMBshSz.s:730    .text.qspi_data_transmit:000000000000007a .L0 
C:\Users\CYMR90~1\AppData\Local\Temp\ccMBshSz.s:731    .text.qspi_data_transmit:000000000000007a .L0 
C:\Users\CYMR90~1\AppData\Local\Temp\ccMBshSz.s:733    .text.qspi_data_transmit:000000000000007c .L0 
C:\Users\CYMR90~1\AppData\Local\Temp\ccMBshSz.s:735    .text.qspi_data_transmit:000000000000007e .L0 
C:\Users\CYMR90~1\AppData\Local\Temp\ccMBshSz.s:742    .text.qspi_data_receive:0000000000000000 qspi_data_receive
C:\Users\CYMR90~1\AppData\Local\Temp\ccMBshSz.s:745    .text.qspi_data_receive:0000000000000000 .L0 
C:\Users\CYMR90~1\AppData\Local\Temp\ccMBshSz.s:746    .text.qspi_data_receive:0000000000000000 .L0 
C:\Users\CYMR90~1\AppData\Local\Temp\ccMBshSz.s:747    .text.qspi_data_receive:0000000000000002 .L0 
C:\Users\CYMR90~1\AppData\Local\Temp\ccMBshSz.s:749    .text.qspi_data_receive:0000000000000004 .L0 
C:\Users\CYMR90~1\AppData\Local\Temp\ccMBshSz.s:751    .text.qspi_data_receive:0000000000000006 .L0 
C:\Users\CYMR90~1\AppData\Local\Temp\ccMBshSz.s:754    .text.qspi_data_receive:000000000000000a .L0 
C:\Users\CYMR90~1\AppData\Local\Temp\ccMBshSz.s:758    .text.qspi_data_receive:0000000000000014 .L0 
C:\Users\CYMR90~1\AppData\Local\Temp\ccMBshSz.s:761    .text.qspi_data_receive:000000000000001a .L0 
C:\Users\CYMR90~1\AppData\Local\Temp\ccMBshSz.s:764    .text.qspi_data_receive:0000000000000022 .L0 
C:\Users\CYMR90~1\AppData\Local\Temp\ccMBshSz.s:767    .text.qspi_data_receive:0000000000000028 .L0 
C:\Users\CYMR90~1\AppData\Local\Temp\ccMBshSz.s:771    .text.qspi_data_receive:0000000000000032 .L0 
C:\Users\CYMR90~1\AppData\Local\Temp\ccMBshSz.s:775    .text.qspi_data_receive:000000000000003c .L0 
C:\Users\CYMR90~1\AppData\Local\Temp\ccMBshSz.s:778    .text.qspi_data_receive:0000000000000044 .L0 
C:\Users\CYMR90~1\AppData\Local\Temp\ccMBshSz.s:781    .text.qspi_data_receive:000000000000004a .L0 
C:\Users\CYMR90~1\AppData\Local\Temp\ccMBshSz.s:783    .text.qspi_data_receive:000000000000004c .L0 
C:\Users\CYMR90~1\AppData\Local\Temp\ccMBshSz.s:786    .text.qspi_data_receive:0000000000000054 .L0 
C:\Users\CYMR90~1\AppData\Local\Temp\ccMBshSz.s:789    .text.qspi_data_receive:000000000000005a .L0 
C:\Users\CYMR90~1\AppData\Local\Temp\ccMBshSz.s:792    .text.qspi_data_receive:000000000000005c .L0 
C:\Users\CYMR90~1\AppData\Local\Temp\ccMBshSz.s:795    .text.qspi_data_receive:000000000000005e .L0 
C:\Users\CYMR90~1\AppData\Local\Temp\ccMBshSz.s:799    .text.qspi_data_receive:0000000000000068 .L0 
C:\Users\CYMR90~1\AppData\Local\Temp\ccMBshSz.s:801    .text.qspi_data_receive:000000000000006a .L0 
C:\Users\CYMR90~1\AppData\Local\Temp\ccMBshSz.s:803    .text.qspi_data_receive:000000000000006c .L0 
C:\Users\CYMR90~1\AppData\Local\Temp\ccMBshSz.s:806    .text.qspi_data_receive:0000000000000074 .L0 
C:\Users\CYMR90~1\AppData\Local\Temp\ccMBshSz.s:810    .text.qspi_data_receive:0000000000000080 .L0 
C:\Users\CYMR90~1\AppData\Local\Temp\ccMBshSz.s:812    .text.qspi_data_receive:0000000000000084 .L0 
C:\Users\CYMR90~1\AppData\Local\Temp\ccMBshSz.s:814    .text.qspi_data_receive:0000000000000088 .L0 
C:\Users\CYMR90~1\AppData\Local\Temp\ccMBshSz.s:819    .text.qspi_data_receive:0000000000000092 .L0 
C:\Users\CYMR90~1\AppData\Local\Temp\ccMBshSz.s:822    .text.qspi_data_receive:0000000000000098 .L0 
C:\Users\CYMR90~1\AppData\Local\Temp\ccMBshSz.s:825    .text.qspi_data_receive:000000000000009e .L0 
C:\Users\CYMR90~1\AppData\Local\Temp\ccMBshSz.s:826    .text.qspi_data_receive:000000000000009e .L0 
C:\Users\CYMR90~1\AppData\Local\Temp\ccMBshSz.s:828    .text.qspi_data_receive:00000000000000a0 .L0 
C:\Users\CYMR90~1\AppData\Local\Temp\ccMBshSz.s:830    .text.qspi_data_receive:00000000000000a2 .L0 
C:\Users\CYMR90~1\AppData\Local\Temp\ccMBshSz.s:837    .text.qspi_transmission_abort:0000000000000000 qspi_transmission_abort
C:\Users\CYMR90~1\AppData\Local\Temp\ccMBshSz.s:840    .text.qspi_transmission_abort:0000000000000000 .L0 
C:\Users\CYMR90~1\AppData\Local\Temp\ccMBshSz.s:841    .text.qspi_transmission_abort:0000000000000000 .L0 
C:\Users\CYMR90~1\AppData\Local\Temp\ccMBshSz.s:842    .text.qspi_transmission_abort:0000000000000002 .L0 
C:\Users\CYMR90~1\AppData\Local\Temp\ccMBshSz.s:844    .text.qspi_transmission_abort:0000000000000004 .L0 
C:\Users\CYMR90~1\AppData\Local\Temp\ccMBshSz.s:846    .text.qspi_transmission_abort:0000000000000006 .L0 
C:\Users\CYMR90~1\AppData\Local\Temp\ccMBshSz.s:848    .text.qspi_transmission_abort:0000000000000006 .L0 
C:\Users\CYMR90~1\AppData\Local\Temp\ccMBshSz.s:856    .text.qspi_transmission_abort:000000000000001e .L0 
C:\Users\CYMR90~1\AppData\Local\Temp\ccMBshSz.s:858    .text.qspi_transmission_abort:0000000000000022 .L0 
C:\Users\CYMR90~1\AppData\Local\Temp\ccMBshSz.s:859    .text.qspi_transmission_abort:0000000000000022 .L0 
C:\Users\CYMR90~1\AppData\Local\Temp\ccMBshSz.s:861    .text.qspi_transmission_abort:0000000000000024 .L0 
C:\Users\CYMR90~1\AppData\Local\Temp\ccMBshSz.s:863    .text.qspi_transmission_abort:0000000000000026 .L0 
C:\Users\CYMR90~1\AppData\Local\Temp\ccMBshSz.s:870    .text.qspi_flag_get:0000000000000000 qspi_flag_get
C:\Users\CYMR90~1\AppData\Local\Temp\ccMBshSz.s:873    .text.qspi_flag_get:0000000000000000 .L0 
C:\Users\CYMR90~1\AppData\Local\Temp\ccMBshSz.s:874    .text.qspi_flag_get:0000000000000000 .L0 
C:\Users\CYMR90~1\AppData\Local\Temp\ccMBshSz.s:875    .text.qspi_flag_get:0000000000000002 .L0 
C:\Users\CYMR90~1\AppData\Local\Temp\ccMBshSz.s:877    .text.qspi_flag_get:0000000000000004 .L0 
C:\Users\CYMR90~1\AppData\Local\Temp\ccMBshSz.s:879    .text.qspi_flag_get:0000000000000006 .L0 
C:\Users\CYMR90~1\AppData\Local\Temp\ccMBshSz.s:882    .text.qspi_flag_get:000000000000000a .L0 
C:\Users\CYMR90~1\AppData\Local\Temp\ccMBshSz.s:886    .text.qspi_flag_get:0000000000000014 .L0 
C:\Users\CYMR90~1\AppData\Local\Temp\ccMBshSz.s:889    .text.qspi_flag_get:000000000000001a .L0 
C:\Users\CYMR90~1\AppData\Local\Temp\ccMBshSz.s:891    .text.qspi_flag_get:000000000000001c .L0 
C:\Users\CYMR90~1\AppData\Local\Temp\ccMBshSz.s:895    .text.qspi_flag_get:0000000000000020 .L0 
C:\Users\CYMR90~1\AppData\Local\Temp\ccMBshSz.s:898    .text.qspi_flag_get:0000000000000022 .L0 
C:\Users\CYMR90~1\AppData\Local\Temp\ccMBshSz.s:900    .text.qspi_flag_get:0000000000000026 .L0 
C:\Users\CYMR90~1\AppData\Local\Temp\ccMBshSz.s:901    .text.qspi_flag_get:0000000000000026 .L0 
C:\Users\CYMR90~1\AppData\Local\Temp\ccMBshSz.s:903    .text.qspi_flag_get:0000000000000028 .L0 
C:\Users\CYMR90~1\AppData\Local\Temp\ccMBshSz.s:905    .text.qspi_flag_get:000000000000002a .L0 
C:\Users\CYMR90~1\AppData\Local\Temp\ccMBshSz.s:912    .text.qspi_flag_clear:0000000000000000 qspi_flag_clear
C:\Users\CYMR90~1\AppData\Local\Temp\ccMBshSz.s:915    .text.qspi_flag_clear:0000000000000000 .L0 
C:\Users\CYMR90~1\AppData\Local\Temp\ccMBshSz.s:916    .text.qspi_flag_clear:0000000000000000 .L0 
C:\Users\CYMR90~1\AppData\Local\Temp\ccMBshSz.s:917    .text.qspi_flag_clear:0000000000000002 .L0 
C:\Users\CYMR90~1\AppData\Local\Temp\ccMBshSz.s:919    .text.qspi_flag_clear:0000000000000004 .L0 
C:\Users\CYMR90~1\AppData\Local\Temp\ccMBshSz.s:921    .text.qspi_flag_clear:0000000000000006 .L0 
C:\Users\CYMR90~1\AppData\Local\Temp\ccMBshSz.s:924    .text.qspi_flag_clear:000000000000000a .L0 
C:\Users\CYMR90~1\AppData\Local\Temp\ccMBshSz.s:933    .text.qspi_flag_clear:0000000000000024 .L0 
C:\Users\CYMR90~1\AppData\Local\Temp\ccMBshSz.s:935    .text.qspi_flag_clear:0000000000000028 .L0 
C:\Users\CYMR90~1\AppData\Local\Temp\ccMBshSz.s:936    .text.qspi_flag_clear:0000000000000028 .L0 
C:\Users\CYMR90~1\AppData\Local\Temp\ccMBshSz.s:938    .text.qspi_flag_clear:000000000000002a .L0 
C:\Users\CYMR90~1\AppData\Local\Temp\ccMBshSz.s:940    .text.qspi_flag_clear:000000000000002c .L0 
C:\Users\CYMR90~1\AppData\Local\Temp\ccMBshSz.s:947    .text.qspi_interrupt_enable:0000000000000000 qspi_interrupt_enable
C:\Users\CYMR90~1\AppData\Local\Temp\ccMBshSz.s:950    .text.qspi_interrupt_enable:0000000000000000 .L0 
C:\Users\CYMR90~1\AppData\Local\Temp\ccMBshSz.s:951    .text.qspi_interrupt_enable:0000000000000000 .L0 
C:\Users\CYMR90~1\AppData\Local\Temp\ccMBshSz.s:952    .text.qspi_interrupt_enable:0000000000000002 .L0 
C:\Users\CYMR90~1\AppData\Local\Temp\ccMBshSz.s:954    .text.qspi_interrupt_enable:0000000000000004 .L0 
C:\Users\CYMR90~1\AppData\Local\Temp\ccMBshSz.s:956    .text.qspi_interrupt_enable:0000000000000006 .L0 
C:\Users\CYMR90~1\AppData\Local\Temp\ccMBshSz.s:959    .text.qspi_interrupt_enable:000000000000000a .L0 
C:\Users\CYMR90~1\AppData\Local\Temp\ccMBshSz.s:968    .text.qspi_interrupt_enable:0000000000000024 .L0 
C:\Users\CYMR90~1\AppData\Local\Temp\ccMBshSz.s:970    .text.qspi_interrupt_enable:0000000000000028 .L0 
C:\Users\CYMR90~1\AppData\Local\Temp\ccMBshSz.s:971    .text.qspi_interrupt_enable:0000000000000028 .L0 
C:\Users\CYMR90~1\AppData\Local\Temp\ccMBshSz.s:973    .text.qspi_interrupt_enable:000000000000002a .L0 
C:\Users\CYMR90~1\AppData\Local\Temp\ccMBshSz.s:975    .text.qspi_interrupt_enable:000000000000002c .L0 
C:\Users\CYMR90~1\AppData\Local\Temp\ccMBshSz.s:982    .text.qspi_interrupt_disable:0000000000000000 qspi_interrupt_disable
C:\Users\CYMR90~1\AppData\Local\Temp\ccMBshSz.s:985    .text.qspi_interrupt_disable:0000000000000000 .L0 
C:\Users\CYMR90~1\AppData\Local\Temp\ccMBshSz.s:986    .text.qspi_interrupt_disable:0000000000000000 .L0 
C:\Users\CYMR90~1\AppData\Local\Temp\ccMBshSz.s:987    .text.qspi_interrupt_disable:0000000000000002 .L0 
C:\Users\CYMR90~1\AppData\Local\Temp\ccMBshSz.s:989    .text.qspi_interrupt_disable:0000000000000004 .L0 
C:\Users\CYMR90~1\AppData\Local\Temp\ccMBshSz.s:991    .text.qspi_interrupt_disable:0000000000000006 .L0 
C:\Users\CYMR90~1\AppData\Local\Temp\ccMBshSz.s:994    .text.qspi_interrupt_disable:000000000000000a .L0 
C:\Users\CYMR90~1\AppData\Local\Temp\ccMBshSz.s:998    .text.qspi_interrupt_disable:0000000000000014 .L0 
C:\Users\CYMR90~1\AppData\Local\Temp\ccMBshSz.s:1001   .text.qspi_interrupt_disable:000000000000001c .L0 
C:\Users\CYMR90~1\AppData\Local\Temp\ccMBshSz.s:1006   .text.qspi_interrupt_disable:0000000000000028 .L0 
C:\Users\CYMR90~1\AppData\Local\Temp\ccMBshSz.s:1008   .text.qspi_interrupt_disable:000000000000002c .L0 
C:\Users\CYMR90~1\AppData\Local\Temp\ccMBshSz.s:1009   .text.qspi_interrupt_disable:000000000000002c .L0 
C:\Users\CYMR90~1\AppData\Local\Temp\ccMBshSz.s:1011   .text.qspi_interrupt_disable:000000000000002e .L0 
C:\Users\CYMR90~1\AppData\Local\Temp\ccMBshSz.s:1013   .text.qspi_interrupt_disable:0000000000000030 .L0 
C:\Users\CYMR90~1\AppData\Local\Temp\ccMBshSz.s:1020   .text.qspi_interrupt_flag_get:0000000000000000 qspi_interrupt_flag_get
C:\Users\CYMR90~1\AppData\Local\Temp\ccMBshSz.s:1023   .text.qspi_interrupt_flag_get:0000000000000000 .L0 
C:\Users\CYMR90~1\AppData\Local\Temp\ccMBshSz.s:1024   .text.qspi_interrupt_flag_get:0000000000000000 .L0 
C:\Users\CYMR90~1\AppData\Local\Temp\ccMBshSz.s:1025   .text.qspi_interrupt_flag_get:0000000000000002 .L0 
C:\Users\CYMR90~1\AppData\Local\Temp\ccMBshSz.s:1027   .text.qspi_interrupt_flag_get:0000000000000004 .L0 
C:\Users\CYMR90~1\AppData\Local\Temp\ccMBshSz.s:1029   .text.qspi_interrupt_flag_get:0000000000000006 .L0 
C:\Users\CYMR90~1\AppData\Local\Temp\ccMBshSz.s:1032   .text.qspi_interrupt_flag_get:000000000000000a .L0 
C:\Users\CYMR90~1\AppData\Local\Temp\ccMBshSz.s:1035   .text.qspi_interrupt_flag_get:0000000000000012 .L0 
C:\Users\CYMR90~1\AppData\Local\Temp\ccMBshSz.s:1038   .text.qspi_interrupt_flag_get:0000000000000018 .L0 
C:\Users\CYMR90~1\AppData\Local\Temp\ccMBshSz.s:1041   .text.qspi_interrupt_flag_get:0000000000000020 .L0 
C:\Users\CYMR90~1\AppData\Local\Temp\ccMBshSz.s:1078   .text.qspi_interrupt_flag_get:0000000000000050 .L0 
C:\Users\CYMR90~1\AppData\Local\Temp\ccMBshSz.s:1082   .text.qspi_interrupt_flag_get:000000000000005a .L0 
C:\Users\CYMR90~1\AppData\Local\Temp\ccMBshSz.s:1087   .text.qspi_interrupt_flag_get:0000000000000066 .L0 
C:\Users\CYMR90~1\AppData\Local\Temp\ccMBshSz.s:1090   .text.qspi_interrupt_flag_get:0000000000000068 .L0 
C:\Users\CYMR90~1\AppData\Local\Temp\ccMBshSz.s:1094   .text.qspi_interrupt_flag_get:0000000000000072 .L0 
C:\Users\CYMR90~1\AppData\Local\Temp\ccMBshSz.s:1099   .text.qspi_interrupt_flag_get:0000000000000080 .L0 
C:\Users\CYMR90~1\AppData\Local\Temp\ccMBshSz.s:1102   .text.qspi_interrupt_flag_get:0000000000000082 .L0 
C:\Users\CYMR90~1\AppData\Local\Temp\ccMBshSz.s:1106   .text.qspi_interrupt_flag_get:000000000000008c .L0 
C:\Users\CYMR90~1\AppData\Local\Temp\ccMBshSz.s:1111   .text.qspi_interrupt_flag_get:000000000000009a .L0 
C:\Users\CYMR90~1\AppData\Local\Temp\ccMBshSz.s:1114   .text.qspi_interrupt_flag_get:000000000000009c .L0 
C:\Users\CYMR90~1\AppData\Local\Temp\ccMBshSz.s:1118   .text.qspi_interrupt_flag_get:00000000000000a6 .L0 
C:\Users\CYMR90~1\AppData\Local\Temp\ccMBshSz.s:1123   .text.qspi_interrupt_flag_get:00000000000000b4 .L0 
C:\Users\CYMR90~1\AppData\Local\Temp\ccMBshSz.s:1126   .text.qspi_interrupt_flag_get:00000000000000b6 .L0 
C:\Users\CYMR90~1\AppData\Local\Temp\ccMBshSz.s:1130   .text.qspi_interrupt_flag_get:00000000000000c0 .L0 
C:\Users\CYMR90~1\AppData\Local\Temp\ccMBshSz.s:1135   .text.qspi_interrupt_flag_get:00000000000000ce .L0 
C:\Users\CYMR90~1\AppData\Local\Temp\ccMBshSz.s:1138   .text.qspi_interrupt_flag_get:00000000000000d0 .L0 
C:\Users\CYMR90~1\AppData\Local\Temp\ccMBshSz.s:1141   .text.qspi_interrupt_flag_get:00000000000000d2 .L0 
C:\Users\CYMR90~1\AppData\Local\Temp\ccMBshSz.s:1144   .text.qspi_interrupt_flag_get:00000000000000d8 .L0 
C:\Users\CYMR90~1\AppData\Local\Temp\ccMBshSz.s:1147   .text.qspi_interrupt_flag_get:00000000000000de .L0 
C:\Users\CYMR90~1\AppData\Local\Temp\ccMBshSz.s:1151   .text.qspi_interrupt_flag_get:00000000000000e2 .L0 
C:\Users\CYMR90~1\AppData\Local\Temp\ccMBshSz.s:1154   .text.qspi_interrupt_flag_get:00000000000000e4 .L0 
C:\Users\CYMR90~1\AppData\Local\Temp\ccMBshSz.s:1156   .text.qspi_interrupt_flag_get:00000000000000e8 .L0 
C:\Users\CYMR90~1\AppData\Local\Temp\ccMBshSz.s:1157   .text.qspi_interrupt_flag_get:00000000000000e8 .L0 
C:\Users\CYMR90~1\AppData\Local\Temp\ccMBshSz.s:1159   .text.qspi_interrupt_flag_get:00000000000000ea .L0 
C:\Users\CYMR90~1\AppData\Local\Temp\ccMBshSz.s:1161   .text.qspi_interrupt_flag_get:00000000000000ec .L0 
C:\Users\CYMR90~1\AppData\Local\Temp\ccMBshSz.s:1168   .text.qspi_interrupt_flag_clear:0000000000000000 qspi_interrupt_flag_clear
C:\Users\CYMR90~1\AppData\Local\Temp\ccMBshSz.s:1171   .text.qspi_interrupt_flag_clear:0000000000000000 .L0 
C:\Users\CYMR90~1\AppData\Local\Temp\ccMBshSz.s:1172   .text.qspi_interrupt_flag_clear:0000000000000000 .L0 
C:\Users\CYMR90~1\AppData\Local\Temp\ccMBshSz.s:1173   .text.qspi_interrupt_flag_clear:0000000000000002 .L0 
C:\Users\CYMR90~1\AppData\Local\Temp\ccMBshSz.s:1175   .text.qspi_interrupt_flag_clear:0000000000000004 .L0 
C:\Users\CYMR90~1\AppData\Local\Temp\ccMBshSz.s:1177   .text.qspi_interrupt_flag_clear:0000000000000006 .L0 
C:\Users\CYMR90~1\AppData\Local\Temp\ccMBshSz.s:1180   .text.qspi_interrupt_flag_clear:000000000000000a .L0 
C:\Users\CYMR90~1\AppData\Local\Temp\ccMBshSz.s:1189   .text.qspi_interrupt_flag_clear:0000000000000024 .L0 
C:\Users\CYMR90~1\AppData\Local\Temp\ccMBshSz.s:1191   .text.qspi_interrupt_flag_clear:0000000000000028 .L0 
C:\Users\CYMR90~1\AppData\Local\Temp\ccMBshSz.s:1192   .text.qspi_interrupt_flag_clear:0000000000000028 .L0 
C:\Users\CYMR90~1\AppData\Local\Temp\ccMBshSz.s:1194   .text.qspi_interrupt_flag_clear:000000000000002a .L0 
C:\Users\CYMR90~1\AppData\Local\Temp\ccMBshSz.s:1196   .text.qspi_interrupt_flag_clear:000000000000002c .L0 
C:\Users\CYMR90~1\AppData\Local\Temp\ccMBshSz.s:1205   .text.qspi_config:0000000000000000 .L0 
C:\Users\CYMR90~1\AppData\Local\Temp\ccMBshSz.s:1206   .text.qspi_config:0000000000000000 .L0 
C:\Users\CYMR90~1\AppData\Local\Temp\ccMBshSz.s:1207   .text.qspi_config:0000000000000002 .L0 
C:\Users\CYMR90~1\AppData\Local\Temp\ccMBshSz.s:1209   .text.qspi_config:0000000000000004 .L0 
C:\Users\CYMR90~1\AppData\Local\Temp\ccMBshSz.s:1211   .text.qspi_config:0000000000000006 .L0 
C:\Users\CYMR90~1\AppData\Local\Temp\ccMBshSz.s:1215   .text.qspi_config:000000000000000e .L0 
C:\Users\CYMR90~1\AppData\Local\Temp\ccMBshSz.s:1218   .text.qspi_config:0000000000000014 .L0 
C:\Users\CYMR90~1\AppData\Local\Temp\ccMBshSz.s:1220   .text.qspi_config:0000000000000016 .L0 
C:\Users\CYMR90~1\AppData\Local\Temp\ccMBshSz.s:1224   .text.qspi_config:0000000000000022 .L0 
C:\Users\CYMR90~1\AppData\Local\Temp\ccMBshSz.s:1227   .text.qspi_config:0000000000000028 .L0 
C:\Users\CYMR90~1\AppData\Local\Temp\ccMBshSz.s:1230   .text.qspi_config:0000000000000030 .L0 
C:\Users\CYMR90~1\AppData\Local\Temp\ccMBshSz.s:1232   .text.qspi_config:0000000000000032 .L0 
C:\Users\CYMR90~1\AppData\Local\Temp\ccMBshSz.s:1235   .text.qspi_config:0000000000000034 .L0 
C:\Users\CYMR90~1\AppData\Local\Temp\ccMBshSz.s:1238   .text.qspi_config:000000000000003a .L0 
C:\Users\CYMR90~1\AppData\Local\Temp\ccMBshSz.s:1240   .text.qspi_config:000000000000003e .L0 
C:\Users\CYMR90~1\AppData\Local\Temp\ccMBshSz.s:1243   .text.qspi_config:0000000000000044 .L0 
C:\Users\CYMR90~1\AppData\Local\Temp\ccMBshSz.s:1245   .text.qspi_config:0000000000000046 .L0 
C:\Users\CYMR90~1\AppData\Local\Temp\ccMBshSz.s:1248   .text.qspi_config:000000000000004e .L0 
C:\Users\CYMR90~1\AppData\Local\Temp\ccMBshSz.s:1251   .text.qspi_config:0000000000000054 .L0 
C:\Users\CYMR90~1\AppData\Local\Temp\ccMBshSz.s:1253   .text.qspi_config:0000000000000056 .L0 
C:\Users\CYMR90~1\AppData\Local\Temp\ccMBshSz.s:1256   .text.qspi_config:000000000000005c .L0 
C:\Users\CYMR90~1\AppData\Local\Temp\ccMBshSz.s:1258   .text.qspi_config:000000000000005e .L0 
C:\Users\CYMR90~1\AppData\Local\Temp\ccMBshSz.s:1261   .text.qspi_config:0000000000000064 .L0 
C:\Users\CYMR90~1\AppData\Local\Temp\ccMBshSz.s:1264   .text.qspi_config:000000000000006a .L0 
C:\Users\CYMR90~1\AppData\Local\Temp\ccMBshSz.s:1266   .text.qspi_config:000000000000006c .L0 
C:\Users\CYMR90~1\AppData\Local\Temp\ccMBshSz.s:1268   .text.qspi_config:000000000000006e .L0 
C:\Users\CYMR90~1\AppData\Local\Temp\ccMBshSz.s:1271   .text.qspi_config:0000000000000074 .L0 
C:\Users\CYMR90~1\AppData\Local\Temp\ccMBshSz.s:1273   .text.qspi_config:0000000000000076 .L0 
C:\Users\CYMR90~1\AppData\Local\Temp\ccMBshSz.s:1276   .text.qspi_config:000000000000007c .L0 
C:\Users\CYMR90~1\AppData\Local\Temp\ccMBshSz.s:1278   .text.qspi_config:000000000000007e .L0 
C:\Users\CYMR90~1\AppData\Local\Temp\ccMBshSz.s:1281   .text.qspi_config:0000000000000084 .L0 
C:\Users\CYMR90~1\AppData\Local\Temp\ccMBshSz.s:1283   .text.qspi_config:0000000000000086 .L0 
C:\Users\CYMR90~1\AppData\Local\Temp\ccMBshSz.s:1286   .text.qspi_config:000000000000008c .L0 
C:\Users\CYMR90~1\AppData\Local\Temp\ccMBshSz.s:1288   .text.qspi_config:000000000000008e .L0 
C:\Users\CYMR90~1\AppData\Local\Temp\ccMBshSz.s:1291   .text.qspi_config:0000000000000094 .L0 
C:\Users\CYMR90~1\AppData\Local\Temp\ccMBshSz.s:1293   .text.qspi_config:0000000000000096 .L0 
C:\Users\CYMR90~1\AppData\Local\Temp\ccMBshSz.s:1296   .text.qspi_config:000000000000009c .L0 
C:\Users\CYMR90~1\AppData\Local\Temp\ccMBshSz.s:1298   .text.qspi_config:000000000000009e .L0 
C:\Users\CYMR90~1\AppData\Local\Temp\ccMBshSz.s:1301   .text.qspi_config:00000000000000a4 .L0 
C:\Users\CYMR90~1\AppData\Local\Temp\ccMBshSz.s:1303   .text.qspi_config:00000000000000a8 .L0 
C:\Users\CYMR90~1\AppData\Local\Temp\ccMBshSz.s:1306   .text.qspi_config:00000000000000b0 .L0 
C:\Users\CYMR90~1\AppData\Local\Temp\ccMBshSz.s:1309   .text.qspi_config:00000000000000b6 .L0 
C:\Users\CYMR90~1\AppData\Local\Temp\ccMBshSz.s:1311   .text.qspi_config:00000000000000b8 .L0 
C:\Users\CYMR90~1\AppData\Local\Temp\ccMBshSz.s:1315   .text.qspi_config:00000000000000c4 .L0 
C:\Users\CYMR90~1\AppData\Local\Temp\ccMBshSz.s:1318   .text.qspi_config:00000000000000cc .L0 
C:\Users\CYMR90~1\AppData\Local\Temp\ccMBshSz.s:1321   .text.qspi_config:00000000000000d2 .L0 
C:\Users\CYMR90~1\AppData\Local\Temp\ccMBshSz.s:1323   .text.qspi_config:00000000000000d4 .L0 
C:\Users\CYMR90~1\AppData\Local\Temp\ccMBshSz.s:1326   .text.qspi_config:00000000000000d6 .L0 
C:\Users\CYMR90~1\AppData\Local\Temp\ccMBshSz.s:1329   .text.qspi_config:00000000000000dc .L0 
C:\Users\CYMR90~1\AppData\Local\Temp\ccMBshSz.s:1332   .text.qspi_config:00000000000000e2 .L0 
C:\Users\CYMR90~1\AppData\Local\Temp\ccMBshSz.s:1334   .text.qspi_config:00000000000000e4 .L0 
C:\Users\CYMR90~1\AppData\Local\Temp\ccMBshSz.s:1336   .text.qspi_config:00000000000000e6 .L0 
C:\Users\CYMR90~1\AppData\Local\Temp\ccMBshSz.s:1339   .text.qspi_config:00000000000000ec .L0 
C:\Users\CYMR90~1\AppData\Local\Temp\ccMBshSz.s:1341   .text.qspi_config:00000000000000ee .L0 
C:\Users\CYMR90~1\AppData\Local\Temp\ccMBshSz.s:1344   .text.qspi_config:00000000000000f4 .L0 
C:\Users\CYMR90~1\AppData\Local\Temp\ccMBshSz.s:1346   .text.qspi_config:00000000000000f6 .L0 
C:\Users\CYMR90~1\AppData\Local\Temp\ccMBshSz.s:1349   .text.qspi_config:00000000000000fc .L0 
C:\Users\CYMR90~1\AppData\Local\Temp\ccMBshSz.s:1351   .text.qspi_config:00000000000000fe .L0 
C:\Users\CYMR90~1\AppData\Local\Temp\ccMBshSz.s:1354   .text.qspi_config:0000000000000104 .L0 
C:\Users\CYMR90~1\AppData\Local\Temp\ccMBshSz.s:1356   .text.qspi_config:0000000000000106 .L0 
C:\Users\CYMR90~1\AppData\Local\Temp\ccMBshSz.s:1359   .text.qspi_config:000000000000010c .L0 
C:\Users\CYMR90~1\AppData\Local\Temp\ccMBshSz.s:1361   .text.qspi_config:000000000000010e .L0 
C:\Users\CYMR90~1\AppData\Local\Temp\ccMBshSz.s:1364   .text.qspi_config:0000000000000114 .L0 
C:\Users\CYMR90~1\AppData\Local\Temp\ccMBshSz.s:1366   .text.qspi_config:0000000000000118 .L0 
C:\Users\CYMR90~1\AppData\Local\Temp\ccMBshSz.s:1369   .text.qspi_config:0000000000000120 .L0 
C:\Users\CYMR90~1\AppData\Local\Temp\ccMBshSz.s:1372   .text.qspi_config:0000000000000126 .L0 
C:\Users\CYMR90~1\AppData\Local\Temp\ccMBshSz.s:1374   .text.qspi_config:0000000000000128 .L0 
C:\Users\CYMR90~1\AppData\Local\Temp\ccMBshSz.s:1377   .text.qspi_config:000000000000012a .L0 
C:\Users\CYMR90~1\AppData\Local\Temp\ccMBshSz.s:1380   .text.qspi_config:0000000000000130 .L0 
C:\Users\CYMR90~1\AppData\Local\Temp\ccMBshSz.s:1382   .text.qspi_config:0000000000000132 .L0 
C:\Users\CYMR90~1\AppData\Local\Temp\ccMBshSz.s:1385   .text.qspi_config:0000000000000138 .L0 
C:\Users\CYMR90~1\AppData\Local\Temp\ccMBshSz.s:1388   .text.qspi_config:000000000000013e .L0 
C:\Users\CYMR90~1\AppData\Local\Temp\ccMBshSz.s:1390   .text.qspi_config:0000000000000140 .L0 
C:\Users\CYMR90~1\AppData\Local\Temp\ccMBshSz.s:1392   .text.qspi_config:0000000000000142 .L0 
C:\Users\CYMR90~1\AppData\Local\Temp\ccMBshSz.s:1395   .text.qspi_config:0000000000000148 .L0 
C:\Users\CYMR90~1\AppData\Local\Temp\ccMBshSz.s:1397   .text.qspi_config:000000000000014a .L0 
C:\Users\CYMR90~1\AppData\Local\Temp\ccMBshSz.s:1400   .text.qspi_config:0000000000000150 .L0 
C:\Users\CYMR90~1\AppData\Local\Temp\ccMBshSz.s:1402   .text.qspi_config:0000000000000152 .L0 
C:\Users\CYMR90~1\AppData\Local\Temp\ccMBshSz.s:1405   .text.qspi_config:0000000000000158 .L0 
C:\Users\CYMR90~1\AppData\Local\Temp\ccMBshSz.s:1407   .text.qspi_config:000000000000015a .L0 
C:\Users\CYMR90~1\AppData\Local\Temp\ccMBshSz.s:1410   .text.qspi_config:0000000000000160 .L0 
C:\Users\CYMR90~1\AppData\Local\Temp\ccMBshSz.s:1412   .text.qspi_config:0000000000000162 .L0 
C:\Users\CYMR90~1\AppData\Local\Temp\ccMBshSz.s:1415   .text.qspi_config:0000000000000168 .L0 
C:\Users\CYMR90~1\AppData\Local\Temp\ccMBshSz.s:1417   .text.qspi_config:000000000000016a .L0 
C:\Users\CYMR90~1\AppData\Local\Temp\ccMBshSz.s:1420   .text.qspi_config:0000000000000170 .L0 
C:\Users\CYMR90~1\AppData\Local\Temp\ccMBshSz.s:1422   .text.qspi_config:0000000000000174 .L0 
C:\Users\CYMR90~1\AppData\Local\Temp\ccMBshSz.s:1425   .text.qspi_config:000000000000017c .L0 
C:\Users\CYMR90~1\AppData\Local\Temp\ccMBshSz.s:1428   .text.qspi_config:0000000000000182 .L0 
C:\Users\CYMR90~1\AppData\Local\Temp\ccMBshSz.s:1430   .text.qspi_config:0000000000000184 .L0 
C:\Users\CYMR90~1\AppData\Local\Temp\ccMBshSz.s:1434   .text.qspi_config:0000000000000190 .L0 
C:\Users\CYMR90~1\AppData\Local\Temp\ccMBshSz.s:1437   .text.qspi_config:0000000000000198 .L0 
C:\Users\CYMR90~1\AppData\Local\Temp\ccMBshSz.s:1440   .text.qspi_config:000000000000019e .L0 
C:\Users\CYMR90~1\AppData\Local\Temp\ccMBshSz.s:1442   .text.qspi_config:00000000000001a0 .L0 
C:\Users\CYMR90~1\AppData\Local\Temp\ccMBshSz.s:1445   .text.qspi_config:00000000000001a2 .L0 
C:\Users\CYMR90~1\AppData\Local\Temp\ccMBshSz.s:1448   .text.qspi_config:00000000000001a8 .L0 
C:\Users\CYMR90~1\AppData\Local\Temp\ccMBshSz.s:1451   .text.qspi_config:00000000000001ae .L0 
C:\Users\CYMR90~1\AppData\Local\Temp\ccMBshSz.s:1453   .text.qspi_config:00000000000001b0 .L0 
C:\Users\CYMR90~1\AppData\Local\Temp\ccMBshSz.s:1455   .text.qspi_config:00000000000001b2 .L0 
C:\Users\CYMR90~1\AppData\Local\Temp\ccMBshSz.s:1458   .text.qspi_config:00000000000001b8 .L0 
C:\Users\CYMR90~1\AppData\Local\Temp\ccMBshSz.s:1460   .text.qspi_config:00000000000001ba .L0 
C:\Users\CYMR90~1\AppData\Local\Temp\ccMBshSz.s:1463   .text.qspi_config:00000000000001c0 .L0 
C:\Users\CYMR90~1\AppData\Local\Temp\ccMBshSz.s:1465   .text.qspi_config:00000000000001c2 .L0 
C:\Users\CYMR90~1\AppData\Local\Temp\ccMBshSz.s:1468   .text.qspi_config:00000000000001c8 .L0 
C:\Users\CYMR90~1\AppData\Local\Temp\ccMBshSz.s:1470   .text.qspi_config:00000000000001ca .L0 
C:\Users\CYMR90~1\AppData\Local\Temp\ccMBshSz.s:1473   .text.qspi_config:00000000000001d0 .L0 
C:\Users\CYMR90~1\AppData\Local\Temp\ccMBshSz.s:1475   .text.qspi_config:00000000000001d2 .L0 
C:\Users\CYMR90~1\AppData\Local\Temp\ccMBshSz.s:1478   .text.qspi_config:00000000000001d8 .L0 
C:\Users\CYMR90~1\AppData\Local\Temp\ccMBshSz.s:1480   .text.qspi_config:00000000000001dc .L0 
C:\Users\CYMR90~1\AppData\Local\Temp\ccMBshSz.s:1483   .text.qspi_config:00000000000001e4 .L0 
C:\Users\CYMR90~1\AppData\Local\Temp\ccMBshSz.s:1486   .text.qspi_config:00000000000001ea .L0 
C:\Users\CYMR90~1\AppData\Local\Temp\ccMBshSz.s:1488   .text.qspi_config:00000000000001ec .L0 
C:\Users\CYMR90~1\AppData\Local\Temp\ccMBshSz.s:1491   .text.qspi_config:00000000000001ee .L0 
C:\Users\CYMR90~1\AppData\Local\Temp\ccMBshSz.s:1494   .text.qspi_config:00000000000001f4 .L0 
C:\Users\CYMR90~1\AppData\Local\Temp\ccMBshSz.s:1496   .text.qspi_config:00000000000001f6 .L0 
C:\Users\CYMR90~1\AppData\Local\Temp\ccMBshSz.s:1499   .text.qspi_config:00000000000001fe .L0 
C:\Users\CYMR90~1\AppData\Local\Temp\ccMBshSz.s:1502   .text.qspi_config:0000000000000204 .L0 
C:\Users\CYMR90~1\AppData\Local\Temp\ccMBshSz.s:1504   .text.qspi_config:0000000000000206 .L0 
C:\Users\CYMR90~1\AppData\Local\Temp\ccMBshSz.s:1507   .text.qspi_config:000000000000020c .L0 
C:\Users\CYMR90~1\AppData\Local\Temp\ccMBshSz.s:1509   .text.qspi_config:000000000000020e .L0 
C:\Users\CYMR90~1\AppData\Local\Temp\ccMBshSz.s:1512   .text.qspi_config:0000000000000214 .L0 
C:\Users\CYMR90~1\AppData\Local\Temp\ccMBshSz.s:1515   .text.qspi_config:000000000000021a .L0 
C:\Users\CYMR90~1\AppData\Local\Temp\ccMBshSz.s:1517   .text.qspi_config:000000000000021c .L0 
C:\Users\CYMR90~1\AppData\Local\Temp\ccMBshSz.s:1519   .text.qspi_config:000000000000021e .L0 
C:\Users\CYMR90~1\AppData\Local\Temp\ccMBshSz.s:1522   .text.qspi_config:0000000000000224 .L0 
C:\Users\CYMR90~1\AppData\Local\Temp\ccMBshSz.s:1524   .text.qspi_config:0000000000000226 .L0 
C:\Users\CYMR90~1\AppData\Local\Temp\ccMBshSz.s:1527   .text.qspi_config:000000000000022c .L0 
C:\Users\CYMR90~1\AppData\Local\Temp\ccMBshSz.s:1529   .text.qspi_config:000000000000022e .L0 
C:\Users\CYMR90~1\AppData\Local\Temp\ccMBshSz.s:1532   .text.qspi_config:0000000000000234 .L0 
C:\Users\CYMR90~1\AppData\Local\Temp\ccMBshSz.s:1534   .text.qspi_config:0000000000000236 .L0 
C:\Users\CYMR90~1\AppData\Local\Temp\ccMBshSz.s:1537   .text.qspi_config:000000000000023c .L0 
C:\Users\CYMR90~1\AppData\Local\Temp\ccMBshSz.s:1539   .text.qspi_config:000000000000023e .L0 
C:\Users\CYMR90~1\AppData\Local\Temp\ccMBshSz.s:1542   .text.qspi_config:0000000000000244 .L0 
C:\Users\CYMR90~1\AppData\Local\Temp\ccMBshSz.s:1544   .text.qspi_config:0000000000000246 .L0 
C:\Users\CYMR90~1\AppData\Local\Temp\ccMBshSz.s:1547   .text.qspi_config:000000000000024c .L0 
C:\Users\CYMR90~1\AppData\Local\Temp\ccMBshSz.s:1549   .text.qspi_config:0000000000000250 .L0 
C:\Users\CYMR90~1\AppData\Local\Temp\ccMBshSz.s:1552   .text.qspi_config:0000000000000258 .L0 
C:\Users\CYMR90~1\AppData\Local\Temp\ccMBshSz.s:1555   .text.qspi_config:000000000000025e .L0 
C:\Users\CYMR90~1\AppData\Local\Temp\ccMBshSz.s:1557   .text.qspi_config:0000000000000260 .L0 
C:\Users\CYMR90~1\AppData\Local\Temp\ccMBshSz.s:1561   .text.qspi_config:000000000000026c .L0 
C:\Users\CYMR90~1\AppData\Local\Temp\ccMBshSz.s:1564   .text.qspi_config:0000000000000274 .L0 
C:\Users\CYMR90~1\AppData\Local\Temp\ccMBshSz.s:1567   .text.qspi_config:000000000000027a .L0 
C:\Users\CYMR90~1\AppData\Local\Temp\ccMBshSz.s:1569   .text.qspi_config:000000000000027c .L0 
C:\Users\CYMR90~1\AppData\Local\Temp\ccMBshSz.s:1572   .text.qspi_config:000000000000027e .L0 
C:\Users\CYMR90~1\AppData\Local\Temp\ccMBshSz.s:1575   .text.qspi_config:0000000000000284 .L0 
C:\Users\CYMR90~1\AppData\Local\Temp\ccMBshSz.s:1578   .text.qspi_config:000000000000028a .L0 
C:\Users\CYMR90~1\AppData\Local\Temp\ccMBshSz.s:1580   .text.qspi_config:000000000000028c .L0 
C:\Users\CYMR90~1\AppData\Local\Temp\ccMBshSz.s:1582   .text.qspi_config:000000000000028e .L0 
C:\Users\CYMR90~1\AppData\Local\Temp\ccMBshSz.s:1585   .text.qspi_config:0000000000000294 .L0 
C:\Users\CYMR90~1\AppData\Local\Temp\ccMBshSz.s:1587   .text.qspi_config:0000000000000296 .L0 
C:\Users\CYMR90~1\AppData\Local\Temp\ccMBshSz.s:1590   .text.qspi_config:000000000000029c .L0 
C:\Users\CYMR90~1\AppData\Local\Temp\ccMBshSz.s:1592   .text.qspi_config:000000000000029e .L0 
C:\Users\CYMR90~1\AppData\Local\Temp\ccMBshSz.s:1595   .text.qspi_config:00000000000002a4 .L0 
C:\Users\CYMR90~1\AppData\Local\Temp\ccMBshSz.s:1597   .text.qspi_config:00000000000002a6 .L0 
C:\Users\CYMR90~1\AppData\Local\Temp\ccMBshSz.s:1600   .text.qspi_config:00000000000002ac .L0 
C:\Users\CYMR90~1\AppData\Local\Temp\ccMBshSz.s:1602   .text.qspi_config:00000000000002ae .L0 
C:\Users\CYMR90~1\AppData\Local\Temp\ccMBshSz.s:1605   .text.qspi_config:00000000000002b4 .L0 
C:\Users\CYMR90~1\AppData\Local\Temp\ccMBshSz.s:1607   .text.qspi_config:00000000000002b8 .L0 
C:\Users\CYMR90~1\AppData\Local\Temp\ccMBshSz.s:1610   .text.qspi_config:00000000000002c0 .L0 
C:\Users\CYMR90~1\AppData\Local\Temp\ccMBshSz.s:1613   .text.qspi_config:00000000000002c6 .L0 
C:\Users\CYMR90~1\AppData\Local\Temp\ccMBshSz.s:1615   .text.qspi_config:00000000000002c8 .L0 
C:\Users\CYMR90~1\AppData\Local\Temp\ccMBshSz.s:1618   .text.qspi_config:00000000000002ca .L0 
C:\Users\CYMR90~1\AppData\Local\Temp\ccMBshSz.s:1621   .text.qspi_config:00000000000002d0 .L0 
C:\Users\CYMR90~1\AppData\Local\Temp\ccMBshSz.s:1623   .text.qspi_config:00000000000002d2 .L0 
C:\Users\CYMR90~1\AppData\Local\Temp\ccMBshSz.s:1626   .text.qspi_config:00000000000002d8 .L0 
C:\Users\CYMR90~1\AppData\Local\Temp\ccMBshSz.s:1629   .text.qspi_config:00000000000002de .L0 
C:\Users\CYMR90~1\AppData\Local\Temp\ccMBshSz.s:1631   .text.qspi_config:00000000000002e0 .L0 
C:\Users\CYMR90~1\AppData\Local\Temp\ccMBshSz.s:1633   .text.qspi_config:00000000000002e2 .L0 
C:\Users\CYMR90~1\AppData\Local\Temp\ccMBshSz.s:1636   .text.qspi_config:00000000000002e8 .L0 
C:\Users\CYMR90~1\AppData\Local\Temp\ccMBshSz.s:1638   .text.qspi_config:00000000000002ea .L0 
C:\Users\CYMR90~1\AppData\Local\Temp\ccMBshSz.s:1641   .text.qspi_config:00000000000002f0 .L0 
C:\Users\CYMR90~1\AppData\Local\Temp\ccMBshSz.s:1643   .text.qspi_config:00000000000002f2 .L0 
C:\Users\CYMR90~1\AppData\Local\Temp\ccMBshSz.s:1646   .text.qspi_config:00000000000002f8 .L0 
C:\Users\CYMR90~1\AppData\Local\Temp\ccMBshSz.s:1648   .text.qspi_config:00000000000002fa .L0 
C:\Users\CYMR90~1\AppData\Local\Temp\ccMBshSz.s:1651   .text.qspi_config:0000000000000300 .L0 
C:\Users\CYMR90~1\AppData\Local\Temp\ccMBshSz.s:1653   .text.qspi_config:0000000000000302 .L0 
C:\Users\CYMR90~1\AppData\Local\Temp\ccMBshSz.s:1656   .text.qspi_config:0000000000000308 .L0 
C:\Users\CYMR90~1\AppData\Local\Temp\ccMBshSz.s:1658   .text.qspi_config:000000000000030c .L0 
C:\Users\CYMR90~1\AppData\Local\Temp\ccMBshSz.s:1661   .text.qspi_config:0000000000000314 .L0 
C:\Users\CYMR90~1\AppData\Local\Temp\ccMBshSz.s:1664   .text.qspi_config:000000000000031a .L0 
C:\Users\CYMR90~1\AppData\Local\Temp\ccMBshSz.s:1666   .text.qspi_config:000000000000031c .L0 
C:\Users\CYMR90~1\AppData\Local\Temp\ccMBshSz.s:1670   .text.qspi_config:0000000000000328 .L0 
C:\Users\CYMR90~1\AppData\Local\Temp\ccMBshSz.s:1673   .text.qspi_config:0000000000000330 .L0 
C:\Users\CYMR90~1\AppData\Local\Temp\ccMBshSz.s:1676   .text.qspi_config:0000000000000336 .L0 
C:\Users\CYMR90~1\AppData\Local\Temp\ccMBshSz.s:1678   .text.qspi_config:0000000000000338 .L0 
C:\Users\CYMR90~1\AppData\Local\Temp\ccMBshSz.s:1681   .text.qspi_config:000000000000033a .L0 
C:\Users\CYMR90~1\AppData\Local\Temp\ccMBshSz.s:1684   .text.qspi_config:0000000000000340 .L0 
C:\Users\CYMR90~1\AppData\Local\Temp\ccMBshSz.s:1686   .text.qspi_config:0000000000000342 .L0 
C:\Users\CYMR90~1\AppData\Local\Temp\ccMBshSz.s:1689   .text.qspi_config:0000000000000348 .L0 
C:\Users\CYMR90~1\AppData\Local\Temp\ccMBshSz.s:1692   .text.qspi_config:000000000000034e .L0 
C:\Users\CYMR90~1\AppData\Local\Temp\ccMBshSz.s:1694   .text.qspi_config:0000000000000350 .L0 
C:\Users\CYMR90~1\AppData\Local\Temp\ccMBshSz.s:1696   .text.qspi_config:0000000000000352 .L0 
C:\Users\CYMR90~1\AppData\Local\Temp\ccMBshSz.s:1699   .text.qspi_config:0000000000000358 .L0 
C:\Users\CYMR90~1\AppData\Local\Temp\ccMBshSz.s:1701   .text.qspi_config:000000000000035a .L0 
C:\Users\CYMR90~1\AppData\Local\Temp\ccMBshSz.s:1704   .text.qspi_config:0000000000000360 .L0 
C:\Users\CYMR90~1\AppData\Local\Temp\ccMBshSz.s:1706   .text.qspi_config:0000000000000362 .L0 
C:\Users\CYMR90~1\AppData\Local\Temp\ccMBshSz.s:1709   .text.qspi_config:0000000000000368 .L0 
C:\Users\CYMR90~1\AppData\Local\Temp\ccMBshSz.s:1711   .text.qspi_config:000000000000036a .L0 
C:\Users\CYMR90~1\AppData\Local\Temp\ccMBshSz.s:1714   .text.qspi_config:0000000000000370 .L0 
C:\Users\CYMR90~1\AppData\Local\Temp\ccMBshSz.s:1716   .text.qspi_config:0000000000000374 .L0 
C:\Users\CYMR90~1\AppData\Local\Temp\ccMBshSz.s:1719   .text.qspi_config:000000000000037c .L0 
C:\Users\CYMR90~1\AppData\Local\Temp\ccMBshSz.s:1722   .text.qspi_config:0000000000000382 .L0 
C:\Users\CYMR90~1\AppData\Local\Temp\ccMBshSz.s:1725   .text.qspi_config:0000000000000384 .L0 
C:\Users\CYMR90~1\AppData\Local\Temp\ccMBshSz.s:1727   .text.qspi_config:0000000000000388 .L0 
C:\Users\CYMR90~1\AppData\Local\Temp\ccMBshSz.s:1728   .text.qspi_config:0000000000000388 .L0 
C:\Users\CYMR90~1\AppData\Local\Temp\ccMBshSz.s:1730   .text.qspi_config:000000000000038a .L0 
C:\Users\CYMR90~1\AppData\Local\Temp\ccMBshSz.s:1732   .text.qspi_config:000000000000038c .L0 
C:\Users\CYMR90~1\AppData\Local\Temp\ccMBshSz.s:45     .text.qspi_deinit:000000000000002a .L0 
C:\Users\CYMR90~1\AppData\Local\Temp\ccMBshSz.s:92     .text.qspi_struct_para_init:0000000000000042 .L0 
C:\Users\CYMR90~1\AppData\Local\Temp\ccMBshSz.s:154    .text.qspi_cmd_struct_para_init:0000000000000072 .L0 
C:\Users\CYMR90~1\AppData\Local\Temp\ccMBshSz.s:199    .text.qspi_polling_struct_para_init:0000000000000042 .L0 
C:\Users\CYMR90~1\AppData\Local\Temp\ccMBshSz.s:297    .text.qspi_init:00000000000000b2 .L0 
C:\Users\CYMR90~1\AppData\Local\Temp\ccMBshSz.s:330    .text.qspi_enable:0000000000000026 .L0 
C:\Users\CYMR90~1\AppData\Local\Temp\ccMBshSz.s:363    .text.qspi_disable:0000000000000024 .L0 
C:\Users\CYMR90~1\AppData\Local\Temp\ccMBshSz.s:396    .text.qspi_dma_enable:0000000000000026 .L0 
C:\Users\CYMR90~1\AppData\Local\Temp\ccMBshSz.s:429    .text.qspi_dma_disable:0000000000000024 .L0 
C:\Users\CYMR90~1\AppData\Local\Temp\ccMBshSz.s:486    .text.qspi_command_config:0000000000000048 .L0 
C:\Users\CYMR90~1\AppData\Local\Temp\ccMBshSz.s:578    .text.qspi_polling_config:00000000000000a6 .L0 
C:\Users\CYMR90~1\AppData\Local\Temp\ccMBshSz.s:658    .text.qspi_memorymapped_config:000000000000009e .L0 
C:\Users\CYMR90~1\AppData\Local\Temp\ccMBshSz.s:738    .text.qspi_data_transmit:000000000000007e .L0 
C:\Users\CYMR90~1\AppData\Local\Temp\ccMBshSz.s:833    .text.qspi_data_receive:00000000000000a2 .L0 
C:\Users\CYMR90~1\AppData\Local\Temp\ccMBshSz.s:866    .text.qspi_transmission_abort:0000000000000026 .L0 
C:\Users\CYMR90~1\AppData\Local\Temp\ccMBshSz.s:908    .text.qspi_flag_get:000000000000002a .L0 
C:\Users\CYMR90~1\AppData\Local\Temp\ccMBshSz.s:943    .text.qspi_flag_clear:000000000000002c .L0 
C:\Users\CYMR90~1\AppData\Local\Temp\ccMBshSz.s:978    .text.qspi_interrupt_enable:000000000000002c .L0 
C:\Users\CYMR90~1\AppData\Local\Temp\ccMBshSz.s:1016   .text.qspi_interrupt_disable:0000000000000030 .L0 
C:\Users\CYMR90~1\AppData\Local\Temp\ccMBshSz.s:1164   .text.qspi_interrupt_flag_get:00000000000000ec .L0 
C:\Users\CYMR90~1\AppData\Local\Temp\ccMBshSz.s:1199   .text.qspi_interrupt_flag_clear:000000000000002c .L0 
C:\Users\CYMR90~1\AppData\Local\Temp\ccMBshSz.s:1735   .text.qspi_config:000000000000038c .L0 
                     .debug_frame:0000000000000000 .L0 
C:\Users\CYMR90~1\AppData\Local\Temp\ccMBshSz.s:472    .text.qspi_command_config:000000000000003e .L13
C:\Users\CYMR90~1\AppData\Local\Temp\ccMBshSz.s:457    .text.qspi_command_config:0000000000000024 .L12
C:\Users\CYMR90~1\AppData\Local\Temp\ccMBshSz.s:640    .text.qspi_memorymapped_config:0000000000000084 .L16
C:\Users\CYMR90~1\AppData\Local\Temp\ccMBshSz.s:722    .text.qspi_data_transmit:000000000000006e .L18
C:\Users\CYMR90~1\AppData\Local\Temp\ccMBshSz.s:698    .text.qspi_data_transmit:000000000000003a .L19
C:\Users\CYMR90~1\AppData\Local\Temp\ccMBshSz.s:695    .text.qspi_data_transmit:0000000000000038 .L20
C:\Users\CYMR90~1\AppData\Local\Temp\ccMBshSz.s:817    .text.qspi_data_receive:0000000000000092 .L22
C:\Users\CYMR90~1\AppData\Local\Temp\ccMBshSz.s:793    .text.qspi_data_receive:000000000000005e .L23
C:\Users\CYMR90~1\AppData\Local\Temp\ccMBshSz.s:790    .text.qspi_data_receive:000000000000005c .L24
C:\Users\CYMR90~1\AppData\Local\Temp\ccMBshSz.s:893    .text.qspi_flag_get:0000000000000020 .L27
C:\Users\CYMR90~1\AppData\Local\Temp\ccMBshSz.s:896    .text.qspi_flag_get:0000000000000022 .L28
C:\Users\CYMR90~1\AppData\Local\Temp\ccMBshSz.s:1057   .rodata.qspi_interrupt_flag_get:0000000000000000 .L35
C:\Users\CYMR90~1\AppData\Local\Temp\ccMBshSz.s:1048   .text.qspi_interrupt_flag_get:0000000000000038 .L0 
C:\Users\CYMR90~1\AppData\Local\Temp\ccMBshSz.s:1051   .text.qspi_interrupt_flag_get:0000000000000044 .L0 
C:\Users\CYMR90~1\AppData\Local\Temp\ccMBshSz.s:1136   .text.qspi_interrupt_flag_get:00000000000000d0 .L43
C:\Users\CYMR90~1\AppData\Local\Temp\ccMBshSz.s:1139   .text.qspi_interrupt_flag_get:00000000000000d2 .L40
C:\Users\CYMR90~1\AppData\Local\Temp\ccMBshSz.s:1149   .text.qspi_interrupt_flag_get:00000000000000e2 .L41
C:\Users\CYMR90~1\AppData\Local\Temp\ccMBshSz.s:1152   .text.qspi_interrupt_flag_get:00000000000000e4 .L42
C:\Users\CYMR90~1\AppData\Local\Temp\ccMBshSz.s:1076   .text.qspi_interrupt_flag_get:0000000000000050 .L39
C:\Users\CYMR90~1\AppData\Local\Temp\ccMBshSz.s:1088   .text.qspi_interrupt_flag_get:0000000000000068 .L38
C:\Users\CYMR90~1\AppData\Local\Temp\ccMBshSz.s:1100   .text.qspi_interrupt_flag_get:0000000000000082 .L37
C:\Users\CYMR90~1\AppData\Local\Temp\ccMBshSz.s:1112   .text.qspi_interrupt_flag_get:000000000000009c .L36
C:\Users\CYMR90~1\AppData\Local\Temp\ccMBshSz.s:1124   .text.qspi_interrupt_flag_get:00000000000000b6 .L34
C:\Users\CYMR90~1\AppData\Local\Temp\ccMBshSz.s:1233   .text.qspi_config:0000000000000034 .L46
C:\Users\CYMR90~1\AppData\Local\Temp\ccMBshSz.s:1489   .text.qspi_config:00000000000001ee .L47
C:\Users\CYMR90~1\AppData\Local\Temp\ccMBshSz.s:1375   .text.qspi_config:000000000000012a .L48
C:\Users\CYMR90~1\AppData\Local\Temp\ccMBshSz.s:1324   .text.qspi_config:00000000000000d6 .L49
C:\Users\CYMR90~1\AppData\Local\Temp\ccMBshSz.s:1723   .text.qspi_config:0000000000000384 .L55
C:\Users\CYMR90~1\AppData\Local\Temp\ccMBshSz.s:1443   .text.qspi_config:00000000000001a2 .L51
C:\Users\CYMR90~1\AppData\Local\Temp\ccMBshSz.s:1616   .text.qspi_config:00000000000002ca .L52
C:\Users\CYMR90~1\AppData\Local\Temp\ccMBshSz.s:1570   .text.qspi_config:000000000000027e .L53
C:\Users\CYMR90~1\AppData\Local\Temp\ccMBshSz.s:1679   .text.qspi_config:000000000000033a .L54
C:\Users\CYMR90~1\AppData\Local\Temp\ccMBshSz.s:2639   .debug_abbrev:0000000000000000 .Ldebug_abbrev0
C:\Users\CYMR90~1\AppData\Local\Temp\ccMBshSz.s:23647  .debug_str:000000000000afe6 .LASF5670
C:\Users\CYMR90~1\AppData\Local\Temp\ccMBshSz.s:30492  .debug_str:0000000000026435 .LASF5671
C:\Users\CYMR90~1\AppData\Local\Temp\ccMBshSz.s:26579  .debug_str:0000000000016a19 .LASF5672
C:\Users\CYMR90~1\AppData\Local\Temp\ccMBshSz.s:3182   .debug_ranges:0000000000000000 .Ldebug_ranges0
C:\Users\CYMR90~1\AppData\Local\Temp\ccMBshSz.s:20877  .debug_line:0000000000000000 .Ldebug_line0
C:\Users\CYMR90~1\AppData\Local\Temp\ccMBshSz.s:3230   .debug_macro:0000000000000000 .Ldebug_macro0
C:\Users\CYMR90~1\AppData\Local\Temp\ccMBshSz.s:32186  .debug_str:000000000002d073 .LASF5560
C:\Users\CYMR90~1\AppData\Local\Temp\ccMBshSz.s:20895  .debug_str:0000000000000123 .LASF5561
C:\Users\CYMR90~1\AppData\Local\Temp\ccMBshSz.s:21827  .debug_str:0000000000003af7 .LASF5562
C:\Users\CYMR90~1\AppData\Local\Temp\ccMBshSz.s:27032  .debug_str:00000000000187d8 .LASF5563
C:\Users\CYMR90~1\AppData\Local\Temp\ccMBshSz.s:23129  .debug_str:0000000000008f3a .LASF5566
C:\Users\CYMR90~1\AppData\Local\Temp\ccMBshSz.s:26493  .debug_str:0000000000016435 .LASF5564
C:\Users\CYMR90~1\AppData\Local\Temp\ccMBshSz.s:28366  .debug_str:000000000001dff7 .LASF5565
C:\Users\CYMR90~1\AppData\Local\Temp\ccMBshSz.s:24441  .debug_str:000000000000e300 .LASF5567
C:\Users\CYMR90~1\AppData\Local\Temp\ccMBshSz.s:25947  .debug_str:0000000000014237 .LASF5568
C:\Users\CYMR90~1\AppData\Local\Temp\ccMBshSz.s:28776  .debug_str:000000000001f855 .LASF5569
C:\Users\CYMR90~1\AppData\Local\Temp\ccMBshSz.s:27246  .debug_str:000000000001960e .LASF5570
C:\Users\CYMR90~1\AppData\Local\Temp\ccMBshSz.s:26672  .debug_str:00000000000171f5 .LASF5571
C:\Users\CYMR90~1\AppData\Local\Temp\ccMBshSz.s:30340  .debug_str:0000000000025b02 .LASF5572
C:\Users\CYMR90~1\AppData\Local\Temp\ccMBshSz.s:28798  .debug_str:000000000001f9b5 .LASF855
C:\Users\CYMR90~1\AppData\Local\Temp\ccMBshSz.s:26257  .debug_str:0000000000015581 .LASF5573
C:\Users\CYMR90~1\AppData\Local\Temp\ccMBshSz.s:30272  .debug_str:00000000000255e5 .LASF5574
C:\Users\CYMR90~1\AppData\Local\Temp\ccMBshSz.s:30460  .debug_str:000000000002628c .LASF5575
C:\Users\CYMR90~1\AppData\Local\Temp\ccMBshSz.s:30028  .debug_str:0000000000024513 .LASF5576
C:\Users\CYMR90~1\AppData\Local\Temp\ccMBshSz.s:23503  .debug_str:000000000000a62e .LASF5577
C:\Users\CYMR90~1\AppData\Local\Temp\ccMBshSz.s:23655  .debug_str:000000000000b0fd .LASF5578
C:\Users\CYMR90~1\AppData\Local\Temp\ccMBshSz.s:31206  .debug_str:000000000002929a .LASF5579
C:\Users\CYMR90~1\AppData\Local\Temp\ccMBshSz.s:28562  .debug_str:000000000001ebb1 .LASF5580
C:\Users\CYMR90~1\AppData\Local\Temp\ccMBshSz.s:29400  .debug_str:0000000000021ea2 .LASF5581
C:\Users\CYMR90~1\AppData\Local\Temp\ccMBshSz.s:32164  .debug_str:000000000002cf18 .LASF5582
C:\Users\CYMR90~1\AppData\Local\Temp\ccMBshSz.s:30632  .debug_str:0000000000026cda .LASF5583
C:\Users\CYMR90~1\AppData\Local\Temp\ccMBshSz.s:31690  .debug_str:000000000002b04b .LASF5584
C:\Users\CYMR90~1\AppData\Local\Temp\ccMBshSz.s:26407  .debug_str:0000000000015ed4 .LASF5585
C:\Users\CYMR90~1\AppData\Local\Temp\ccMBshSz.s:21671  .debug_str:000000000000309d .LASF5586
C:\Users\CYMR90~1\AppData\Local\Temp\ccMBshSz.s:25031  .debug_str:0000000000010726 .LASF5587
C:\Users\CYMR90~1\AppData\Local\Temp\ccMBshSz.s:30534  .debug_str:00000000000266e2 .LASF5588
C:\Users\CYMR90~1\AppData\Local\Temp\ccMBshSz.s:22737  .debug_str:00000000000074d0 .LASF5589
C:\Users\CYMR90~1\AppData\Local\Temp\ccMBshSz.s:23977  .debug_str:000000000000c5e4 .LASF5590
C:\Users\CYMR90~1\AppData\Local\Temp\ccMBshSz.s:32156  .debug_str:000000000002ce08 .LASF5591
C:\Users\CYMR90~1\AppData\Local\Temp\ccMBshSz.s:22533  .debug_str:000000000000675e .LASF5592
C:\Users\CYMR90~1\AppData\Local\Temp\ccMBshSz.s:31134  .debug_str:0000000000028e00 .LASF5593
C:\Users\CYMR90~1\AppData\Local\Temp\ccMBshSz.s:31068  .debug_str:0000000000028a3e .LASF5594
C:\Users\CYMR90~1\AppData\Local\Temp\ccMBshSz.s:29100  .debug_str:0000000000020c76 .LASF5595
C:\Users\CYMR90~1\AppData\Local\Temp\ccMBshSz.s:22025  .debug_str:0000000000004818 .LASF5596
C:\Users\CYMR90~1\AppData\Local\Temp\ccMBshSz.s:27470  .debug_str:000000000001a5ae .LASF5597
C:\Users\CYMR90~1\AppData\Local\Temp\ccMBshSz.s:24265  .debug_str:000000000000d8a5 .LASF5598
C:\Users\CYMR90~1\AppData\Local\Temp\ccMBshSz.s:31998  .debug_str:000000000002c3bc .LASF5599
C:\Users\CYMR90~1\AppData\Local\Temp\ccMBshSz.s:27180  .debug_str:0000000000019252 .LASF5600
C:\Users\CYMR90~1\AppData\Local\Temp\ccMBshSz.s:22761  .debug_str:0000000000007633 .LASF5601
C:\Users\CYMR90~1\AppData\Local\Temp\ccMBshSz.s:31970  .debug_str:000000000002c231 .LASF5602
C:\Users\CYMR90~1\AppData\Local\Temp\ccMBshSz.s:29386  .debug_str:0000000000021dbd .LASF5603
C:\Users\CYMR90~1\AppData\Local\Temp\ccMBshSz.s:21915  .debug_str:0000000000004076 .LASF5604
C:\Users\CYMR90~1\AppData\Local\Temp\ccMBshSz.s:29984  .debug_str:00000000000241f7 .LASF5605
C:\Users\CYMR90~1\AppData\Local\Temp\ccMBshSz.s:23729  .debug_str:000000000000b50d .LASF5606
C:\Users\CYMR90~1\AppData\Local\Temp\ccMBshSz.s:27656  .debug_str:000000000001b1eb .LASF5607
C:\Users\CYMR90~1\AppData\Local\Temp\ccMBshSz.s:21215  .debug_str:00000000000014c8 .LASF5608
C:\Users\CYMR90~1\AppData\Local\Temp\ccMBshSz.s:29052  .debug_str:000000000002099b .LASF5609
C:\Users\CYMR90~1\AppData\Local\Temp\ccMBshSz.s:22569  .debug_str:00000000000069b4 .LASF5610
C:\Users\CYMR90~1\AppData\Local\Temp\ccMBshSz.s:29650  .debug_str:0000000000022daf .LASF5611
C:\Users\CYMR90~1\AppData\Local\Temp\ccMBshSz.s:32082  .debug_str:000000000002c957 .LASF5612
C:\Users\CYMR90~1\AppData\Local\Temp\ccMBshSz.s:26972  .debug_str:000000000001842a .LASF5613
C:\Users\CYMR90~1\AppData\Local\Temp\ccMBshSz.s:29242  .debug_str:000000000002150c .LASF5614
C:\Users\CYMR90~1\AppData\Local\Temp\ccMBshSz.s:30384  .debug_str:0000000000025dcc .LASF5615
C:\Users\CYMR90~1\AppData\Local\Temp\ccMBshSz.s:21759  .debug_str:0000000000003682 .LASF5616
C:\Users\CYMR90~1\AppData\Local\Temp\ccMBshSz.s:28094  .debug_str:000000000001cd67 .LASF5617
C:\Users\CYMR90~1\AppData\Local\Temp\ccMBshSz.s:28740  .debug_str:000000000001f63e .LASF5618
C:\Users\CYMR90~1\AppData\Local\Temp\ccMBshSz.s:26207  .debug_str:00000000000152b7 .LASF5619
C:\Users\CYMR90~1\AppData\Local\Temp\ccMBshSz.s:23197  .debug_str:00000000000092ff .LASF5620
C:\Users\CYMR90~1\AppData\Local\Temp\ccMBshSz.s:25495  .debug_str:0000000000012546 .LASF5621
C:\Users\CYMR90~1\AppData\Local\Temp\ccMBshSz.s:21983  .debug_str:0000000000004526 .LASF5622
C:\Users\CYMR90~1\AppData\Local\Temp\ccMBshSz.s:24267  .debug_str:000000000000d8b1 .LASF5623
C:\Users\CYMR90~1\AppData\Local\Temp\ccMBshSz.s:23277  .debug_str:00000000000097e4 .LASF5624
C:\Users\CYMR90~1\AppData\Local\Temp\ccMBshSz.s:29228  .debug_str:0000000000021447 .LASF5625
C:\Users\CYMR90~1\AppData\Local\Temp\ccMBshSz.s:24449  .debug_str:000000000000e35b .LASF5626
C:\Users\CYMR90~1\AppData\Local\Temp\ccMBshSz.s:21517  .debug_str:000000000000271b .LASF5627
C:\Users\CYMR90~1\AppData\Local\Temp\ccMBshSz.s:25635  .debug_str:0000000000012e91 .LASF5628
C:\Users\CYMR90~1\AppData\Local\Temp\ccMBshSz.s:25181  .debug_str:000000000001105e .LASF5629
C:\Users\CYMR90~1\AppData\Local\Temp\ccMBshSz.s:26317  .debug_str:00000000000158f8 .LASF5630
C:\Users\CYMR90~1\AppData\Local\Temp\ccMBshSz.s:21633  .debug_str:0000000000002e6b .LASF5631
C:\Users\CYMR90~1\AppData\Local\Temp\ccMBshSz.s:23389  .debug_str:0000000000009ee0 .LASF5632
C:\Users\CYMR90~1\AppData\Local\Temp\ccMBshSz.s:26866  .debug_str:0000000000017dda .LASF5633
C:\Users\CYMR90~1\AppData\Local\Temp\ccMBshSz.s:29410  .debug_str:0000000000021f46 .LASF5634
C:\Users\CYMR90~1\AppData\Local\Temp\ccMBshSz.s:27510  .debug_str:000000000001a89c .LASF5673
C:\Users\CYMR90~1\AppData\Local\Temp\ccMBshSz.s:1203   .text.qspi_config:0000000000000000 .LFB368
C:\Users\CYMR90~1\AppData\Local\Temp\ccMBshSz.s:1733   .text.qspi_config:000000000000038c .LFE368
C:\Users\CYMR90~1\AppData\Local\Temp\ccMBshSz.s:27768  .debug_str:000000000001b897 .LASF5635
C:\Users\CYMR90~1\AppData\Local\Temp\ccMBshSz.s:21017  .debug_str:000000000000085a .LASF5639
C:\Users\CYMR90~1\AppData\Local\Temp\ccMBshSz.s:1169   .text.qspi_interrupt_flag_clear:0000000000000000 .LFB367
C:\Users\CYMR90~1\AppData\Local\Temp\ccMBshSz.s:1197   .text.qspi_interrupt_flag_clear:000000000000002c .LFE367
C:\Users\CYMR90~1\AppData\Local\Temp\ccMBshSz.s:25983  .debug_str:000000000001441d .LASF5636
C:\Users\CYMR90~1\AppData\Local\Temp\ccMBshSz.s:29658  .debug_str:0000000000022e0d .LASF5645
C:\Users\CYMR90~1\AppData\Local\Temp\ccMBshSz.s:1021   .text.qspi_interrupt_flag_get:0000000000000000 .LFB366
C:\Users\CYMR90~1\AppData\Local\Temp\ccMBshSz.s:1162   .text.qspi_interrupt_flag_get:00000000000000ec .LFE366
C:\Users\CYMR90~1\AppData\Local\Temp\ccMBshSz.s:21443  .debug_str:00000000000022c7 .LASF5637
C:\Users\CYMR90~1\AppData\Local\Temp\ccMBshSz.s:21445  .debug_str:00000000000022cc .LASF5638
C:\Users\CYMR90~1\AppData\Local\Temp\ccMBshSz.s:31644  .debug_str:000000000002ad60 .LASF5640
C:\Users\CYMR90~1\AppData\Local\Temp\ccMBshSz.s:983    .text.qspi_interrupt_disable:0000000000000000 .LFB365
C:\Users\CYMR90~1\AppData\Local\Temp\ccMBshSz.s:1014   .text.qspi_interrupt_disable:0000000000000030 .LFE365
C:\Users\CYMR90~1\AppData\Local\Temp\ccMBshSz.s:27596  .debug_str:000000000001adb1 .LASF5641
C:\Users\CYMR90~1\AppData\Local\Temp\ccMBshSz.s:23785  .debug_str:000000000000b948 .LASF5642
C:\Users\CYMR90~1\AppData\Local\Temp\ccMBshSz.s:948    .text.qspi_interrupt_enable:0000000000000000 .LFB364
C:\Users\CYMR90~1\AppData\Local\Temp\ccMBshSz.s:976    .text.qspi_interrupt_enable:000000000000002c .LFE364
C:\Users\CYMR90~1\AppData\Local\Temp\ccMBshSz.s:30264  .debug_str:000000000002553e .LASF5643
C:\Users\CYMR90~1\AppData\Local\Temp\ccMBshSz.s:913    .text.qspi_flag_clear:0000000000000000 .LFB363
C:\Users\CYMR90~1\AppData\Local\Temp\ccMBshSz.s:941    .text.qspi_flag_clear:000000000000002c .LFE363
C:\Users\CYMR90~1\AppData\Local\Temp\ccMBshSz.s:23491  .debug_str:000000000000a56f .LASF5644
C:\Users\CYMR90~1\AppData\Local\Temp\ccMBshSz.s:28160  .debug_str:000000000001d2d8 .LASF5646
C:\Users\CYMR90~1\AppData\Local\Temp\ccMBshSz.s:871    .text.qspi_flag_get:0000000000000000 .LFB362
C:\Users\CYMR90~1\AppData\Local\Temp\ccMBshSz.s:906    .text.qspi_flag_get:000000000000002a .LFE362
C:\Users\CYMR90~1\AppData\Local\Temp\ccMBshSz.s:24685  .debug_str:000000000000f19c .LASF5658
C:\Users\CYMR90~1\AppData\Local\Temp\ccMBshSz.s:838    .text.qspi_transmission_abort:0000000000000000 .LFB361
C:\Users\CYMR90~1\AppData\Local\Temp\ccMBshSz.s:864    .text.qspi_transmission_abort:0000000000000026 .LFE361
C:\Users\CYMR90~1\AppData\Local\Temp\ccMBshSz.s:26810  .debug_str:0000000000017ac1 .LASF5647
C:\Users\CYMR90~1\AppData\Local\Temp\ccMBshSz.s:743    .text.qspi_data_receive:0000000000000000 .LFB360
C:\Users\CYMR90~1\AppData\Local\Temp\ccMBshSz.s:831    .text.qspi_data_receive:00000000000000a2 .LFE360
C:\Users\CYMR90~1\AppData\Local\Temp\ccMBshSz.s:21579  .debug_str:0000000000002b14 .LASF5648
C:\Users\CYMR90~1\AppData\Local\Temp\ccMBshSz.s:29472  .debug_str:00000000000222d2 .LASF5649
C:\Users\CYMR90~1\AppData\Local\Temp\ccMBshSz.s:26620  .debug_str:0000000000016ef5 .LASF5650
C:\Users\CYMR90~1\AppData\Local\Temp\ccMBshSz.s:663    .text.qspi_data_transmit:0000000000000000 .LFB359
C:\Users\CYMR90~1\AppData\Local\Temp\ccMBshSz.s:736    .text.qspi_data_transmit:000000000000007e .LFE359
C:\Users\CYMR90~1\AppData\Local\Temp\ccMBshSz.s:25095  .debug_str:0000000000010bd4 .LASF5651
C:\Users\CYMR90~1\AppData\Local\Temp\ccMBshSz.s:25257  .debug_str:0000000000011533 .LASF5652
C:\Users\CYMR90~1\AppData\Local\Temp\ccMBshSz.s:23445  .debug_str:000000000000a268 .LASF5653
C:\Users\CYMR90~1\AppData\Local\Temp\ccMBshSz.s:583    .text.qspi_memorymapped_config:0000000000000000 .LFB358
C:\Users\CYMR90~1\AppData\Local\Temp\ccMBshSz.s:656    .text.qspi_memorymapped_config:000000000000009e .LFE358
C:\Users\CYMR90~1\AppData\Local\Temp\ccMBshSz.s:31654  .debug_str:000000000002add5 .LASF5654
C:\Users\CYMR90~1\AppData\Local\Temp\ccMBshSz.s:31814  .debug_str:000000000002b804 .LASF5655
C:\Users\CYMR90~1\AppData\Local\Temp\ccMBshSz.s:21681  .debug_str:000000000000316c .LASF5656
C:\Users\CYMR90~1\AppData\Local\Temp\ccMBshSz.s:491    .text.qspi_polling_config:0000000000000000 .LFB357
C:\Users\CYMR90~1\AppData\Local\Temp\ccMBshSz.s:576    .text.qspi_polling_config:00000000000000a6 .LFE357
C:\Users\CYMR90~1\AppData\Local\Temp\ccMBshSz.s:23675  .debug_str:000000000000b228 .LASF5657
C:\Users\CYMR90~1\AppData\Local\Temp\ccMBshSz.s:434    .text.qspi_command_config:0000000000000000 .LFB356
C:\Users\CYMR90~1\AppData\Local\Temp\ccMBshSz.s:484    .text.qspi_command_config:0000000000000048 .LFE356
C:\Users\CYMR90~1\AppData\Local\Temp\ccMBshSz.s:27950  .debug_str:000000000001c3ca .LASF5659
C:\Users\CYMR90~1\AppData\Local\Temp\ccMBshSz.s:401    .text.qspi_dma_disable:0000000000000000 .LFB355
C:\Users\CYMR90~1\AppData\Local\Temp\ccMBshSz.s:427    .text.qspi_dma_disable:0000000000000024 .LFE355
C:\Users\CYMR90~1\AppData\Local\Temp\ccMBshSz.s:25811  .debug_str:00000000000139c1 .LASF5660
C:\Users\CYMR90~1\AppData\Local\Temp\ccMBshSz.s:368    .text.qspi_dma_enable:0000000000000000 .LFB354
C:\Users\CYMR90~1\AppData\Local\Temp\ccMBshSz.s:394    .text.qspi_dma_enable:0000000000000026 .LFE354
C:\Users\CYMR90~1\AppData\Local\Temp\ccMBshSz.s:24111  .debug_str:000000000000ce8f .LASF5661
C:\Users\CYMR90~1\AppData\Local\Temp\ccMBshSz.s:335    .text.qspi_disable:0000000000000000 .LFB353
C:\Users\CYMR90~1\AppData\Local\Temp\ccMBshSz.s:361    .text.qspi_disable:0000000000000024 .LFE353
C:\Users\CYMR90~1\AppData\Local\Temp\ccMBshSz.s:27082  .debug_str:0000000000018acc .LASF5662
C:\Users\CYMR90~1\AppData\Local\Temp\ccMBshSz.s:302    .text.qspi_enable:0000000000000000 .LFB352
C:\Users\CYMR90~1\AppData\Local\Temp\ccMBshSz.s:328    .text.qspi_enable:0000000000000026 .LFE352
C:\Users\CYMR90~1\AppData\Local\Temp\ccMBshSz.s:31248  .debug_str:000000000002957d .LASF5663
C:\Users\CYMR90~1\AppData\Local\Temp\ccMBshSz.s:204    .text.qspi_init:0000000000000000 .LFB351
C:\Users\CYMR90~1\AppData\Local\Temp\ccMBshSz.s:295    .text.qspi_init:00000000000000b2 .LFE351
C:\Users\CYMR90~1\AppData\Local\Temp\ccMBshSz.s:25349  .debug_str:0000000000011bea .LASF5664
C:\Users\CYMR90~1\AppData\Local\Temp\ccMBshSz.s:25829  .debug_str:0000000000013ae0 .LASF5665
C:\Users\CYMR90~1\AppData\Local\Temp\ccMBshSz.s:159    .text.qspi_polling_struct_para_init:0000000000000000 .LFB350
C:\Users\CYMR90~1\AppData\Local\Temp\ccMBshSz.s:197    .text.qspi_polling_struct_para_init:0000000000000042 .LFE350
C:\Users\CYMR90~1\AppData\Local\Temp\ccMBshSz.s:24127  .debug_str:000000000000cfa2 .LASF5666
C:\Users\CYMR90~1\AppData\Local\Temp\ccMBshSz.s:25115  .debug_str:0000000000010cbc .LASF5667
C:\Users\CYMR90~1\AppData\Local\Temp\ccMBshSz.s:97     .text.qspi_cmd_struct_para_init:0000000000000000 .LFB349
C:\Users\CYMR90~1\AppData\Local\Temp\ccMBshSz.s:152    .text.qspi_cmd_struct_para_init:0000000000000072 .LFE349
C:\Users\CYMR90~1\AppData\Local\Temp\ccMBshSz.s:23139  .debug_str:0000000000008fc5 .LASF5668
C:\Users\CYMR90~1\AppData\Local\Temp\ccMBshSz.s:50     .text.qspi_struct_para_init:0000000000000000 .LFB348
C:\Users\CYMR90~1\AppData\Local\Temp\ccMBshSz.s:90     .text.qspi_struct_para_init:0000000000000042 .LFE348
C:\Users\CYMR90~1\AppData\Local\Temp\ccMBshSz.s:30466  .debug_str:00000000000262d7 .LASF5669
C:\Users\CYMR90~1\AppData\Local\Temp\ccMBshSz.s:14     .text.qspi_deinit:0000000000000000 .LFB347
C:\Users\CYMR90~1\AppData\Local\Temp\ccMBshSz.s:43     .text.qspi_deinit:000000000000002a .LFE347
C:\Users\CYMR90~1\AppData\Local\Temp\ccMBshSz.s:1743   .debug_info:0000000000000000 .Ldebug_info0
C:\Users\CYMR90~1\AppData\Local\Temp\ccMBshSz.s:3862   .debug_macro:0000000000000000 .Ldebug_macro2
C:\Users\CYMR90~1\AppData\Local\Temp\ccMBshSz.s:28482  .debug_str:000000000001e6e2 .LASF314
C:\Users\CYMR90~1\AppData\Local\Temp\ccMBshSz.s:26660  .debug_str:000000000001715c .LASF315
C:\Users\CYMR90~1\AppData\Local\Temp\ccMBshSz.s:4809   .debug_macro:0000000000000000 .Ldebug_macro3
C:\Users\CYMR90~1\AppData\Local\Temp\ccMBshSz.s:23077  .debug_str:0000000000008be4 .LASF369
C:\Users\CYMR90~1\AppData\Local\Temp\ccMBshSz.s:22643  .debug_str:0000000000006e7e .LASF370
C:\Users\CYMR90~1\AppData\Local\Temp\ccMBshSz.s:26902  .debug_str:0000000000018005 .LASF371
C:\Users\CYMR90~1\AppData\Local\Temp\ccMBshSz.s:4973   .debug_macro:0000000000000000 .Ldebug_macro4
C:\Users\CYMR90~1\AppData\Local\Temp\ccMBshSz.s:4993   .debug_macro:0000000000000000 .Ldebug_macro5
C:\Users\CYMR90~1\AppData\Local\Temp\ccMBshSz.s:25537  .debug_str:0000000000012810 .LASF390
C:\Users\CYMR90~1\AppData\Local\Temp\ccMBshSz.s:5037   .debug_macro:0000000000000000 .Ldebug_macro6
C:\Users\CYMR90~1\AppData\Local\Temp\ccMBshSz.s:5051   .debug_macro:0000000000000000 .Ldebug_macro7
C:\Users\CYMR90~1\AppData\Local\Temp\ccMBshSz.s:5119   .debug_macro:0000000000000000 .Ldebug_macro8
C:\Users\CYMR90~1\AppData\Local\Temp\ccMBshSz.s:5145   .debug_macro:0000000000000000 .Ldebug_macro9
C:\Users\CYMR90~1\AppData\Local\Temp\ccMBshSz.s:5174   .debug_macro:0000000000000000 .Ldebug_macro10
C:\Users\CYMR90~1\AppData\Local\Temp\ccMBshSz.s:27044  .debug_str:0000000000018874 .LASF433
C:\Users\CYMR90~1\AppData\Local\Temp\ccMBshSz.s:5188   .debug_macro:0000000000000000 .Ldebug_macro11
C:\Users\CYMR90~1\AppData\Local\Temp\ccMBshSz.s:5232   .debug_macro:0000000000000000 .Ldebug_macro12
C:\Users\CYMR90~1\AppData\Local\Temp\ccMBshSz.s:5258   .debug_macro:0000000000000000 .Ldebug_macro13
C:\Users\CYMR90~1\AppData\Local\Temp\ccMBshSz.s:30622  .debug_str:0000000000026c58 .LASF569
C:\Users\CYMR90~1\AppData\Local\Temp\ccMBshSz.s:5629   .debug_macro:0000000000000000 .Ldebug_macro14
C:\Users\CYMR90~1\AppData\Local\Temp\ccMBshSz.s:25057  .debug_str:0000000000010893 .LASF572
C:\Users\CYMR90~1\AppData\Local\Temp\ccMBshSz.s:29954  .debug_str:0000000000023f8c .LASF573
C:\Users\CYMR90~1\AppData\Local\Temp\ccMBshSz.s:5640   .debug_macro:0000000000000000 .Ldebug_macro15
C:\Users\CYMR90~1\AppData\Local\Temp\ccMBshSz.s:5654   .debug_macro:0000000000000000 .Ldebug_macro16
C:\Users\CYMR90~1\AppData\Local\Temp\ccMBshSz.s:31762  .debug_str:000000000002b4be .LASF578
C:\Users\CYMR90~1\AppData\Local\Temp\ccMBshSz.s:5686   .debug_macro:0000000000000000 .Ldebug_macro17
C:\Users\CYMR90~1\AppData\Local\Temp\ccMBshSz.s:5712   .debug_macro:0000000000000000 .Ldebug_macro18
C:\Users\CYMR90~1\AppData\Local\Temp\ccMBshSz.s:5723   .debug_macro:0000000000000000 .Ldebug_macro19
C:\Users\CYMR90~1\AppData\Local\Temp\ccMBshSz.s:5767   .debug_macro:0000000000000000 .Ldebug_macro20
C:\Users\CYMR90~1\AppData\Local\Temp\ccMBshSz.s:5937   .debug_macro:0000000000000000 .Ldebug_macro21
C:\Users\CYMR90~1\AppData\Local\Temp\ccMBshSz.s:5948   .debug_macro:0000000000000000 .Ldebug_macro22
C:\Users\CYMR90~1\AppData\Local\Temp\ccMBshSz.s:25543  .debug_str:0000000000012869 .LASF675
C:\Users\CYMR90~1\AppData\Local\Temp\ccMBshSz.s:6004   .debug_macro:0000000000000000 .Ldebug_macro23
C:\Users\CYMR90~1\AppData\Local\Temp\ccMBshSz.s:6021   .debug_macro:0000000000000000 .Ldebug_macro24
C:\Users\CYMR90~1\AppData\Local\Temp\ccMBshSz.s:28768  .debug_str:000000000001f7e5 .LASF693
C:\Users\CYMR90~1\AppData\Local\Temp\ccMBshSz.s:26908  .debug_str:0000000000018036 .LASF694
C:\Users\CYMR90~1\AppData\Local\Temp\ccMBshSz.s:6065   .debug_macro:0000000000000000 .Ldebug_macro25
C:\Users\CYMR90~1\AppData\Local\Temp\ccMBshSz.s:22095  .debug_str:0000000000004cfa .LASF700
C:\Users\CYMR90~1\AppData\Local\Temp\ccMBshSz.s:23219  .debug_str:0000000000009439 .LASF701
C:\Users\CYMR90~1\AppData\Local\Temp\ccMBshSz.s:6085   .debug_macro:0000000000000000 .Ldebug_macro26
C:\Users\CYMR90~1\AppData\Local\Temp\ccMBshSz.s:6096   .debug_macro:0000000000000000 .Ldebug_macro27
C:\Users\CYMR90~1\AppData\Local\Temp\ccMBshSz.s:6140   .debug_macro:0000000000000000 .Ldebug_macro28
C:\Users\CYMR90~1\AppData\Local\Temp\ccMBshSz.s:22459  .debug_str:00000000000062ef .LASF749
C:\Users\CYMR90~1\AppData\Local\Temp\ccMBshSz.s:6241   .debug_macro:0000000000000000 .Ldebug_macro29
C:\Users\CYMR90~1\AppData\Local\Temp\ccMBshSz.s:6258   .debug_macro:0000000000000000 .Ldebug_macro30
C:\Users\CYMR90~1\AppData\Local\Temp\ccMBshSz.s:20947  .debug_str:0000000000000472 .LASF763
C:\Users\CYMR90~1\AppData\Local\Temp\ccMBshSz.s:22277  .debug_str:0000000000005806 .LASF764
C:\Users\CYMR90~1\AppData\Local\Temp\ccMBshSz.s:6290   .debug_macro:0000000000000000 .Ldebug_macro31
C:\Users\CYMR90~1\AppData\Local\Temp\ccMBshSz.s:6304   .debug_macro:0000000000000000 .Ldebug_macro32
C:\Users\CYMR90~1\AppData\Local\Temp\ccMBshSz.s:6474   .debug_macro:0000000000000000 .Ldebug_macro33
C:\Users\CYMR90~1\AppData\Local\Temp\ccMBshSz.s:24723  .debug_str:000000000000f3f8 .LASF850
C:\Users\CYMR90~1\AppData\Local\Temp\ccMBshSz.s:27132  .debug_str:0000000000018eae .LASF851
C:\Users\CYMR90~1\AppData\Local\Temp\ccMBshSz.s:6560   .debug_macro:0000000000000000 .Ldebug_macro34
C:\Users\CYMR90~1\AppData\Local\Temp\ccMBshSz.s:6685   .debug_macro:0000000000000000 .Ldebug_macro35
C:\Users\CYMR90~1\AppData\Local\Temp\ccMBshSz.s:21229  .debug_str:0000000000001563 .LASF951
C:\Users\CYMR90~1\AppData\Local\Temp\ccMBshSz.s:6897   .debug_macro:0000000000000000 .Ldebug_macro36
C:\Users\CYMR90~1\AppData\Local\Temp\ccMBshSz.s:22963  .debug_str:00000000000084be .LASF957
C:\Users\CYMR90~1\AppData\Local\Temp\ccMBshSz.s:22515  .debug_str:000000000000664d .LASF958
C:\Users\CYMR90~1\AppData\Local\Temp\ccMBshSz.s:21393  .debug_str:000000000000201d .LASF959
C:\Users\CYMR90~1\AppData\Local\Temp\ccMBshSz.s:6917   .debug_macro:0000000000000000 .Ldebug_macro37
C:\Users\CYMR90~1\AppData\Local\Temp\ccMBshSz.s:7009   .debug_macro:0000000000000000 .Ldebug_macro38
C:\Users\CYMR90~1\AppData\Local\Temp\ccMBshSz.s:8655   .debug_macro:0000000000000000 .Ldebug_macro39
C:\Users\CYMR90~1\AppData\Local\Temp\ccMBshSz.s:8747   .debug_macro:0000000000000000 .Ldebug_macro40
C:\Users\CYMR90~1\AppData\Local\Temp\ccMBshSz.s:8803   .debug_macro:0000000000000000 .Ldebug_macro41
C:\Users\CYMR90~1\AppData\Local\Temp\ccMBshSz.s:8817   .debug_macro:0000000000000000 .Ldebug_macro42
C:\Users\CYMR90~1\AppData\Local\Temp\ccMBshSz.s:26453  .debug_str:00000000000161f6 .LASF1655
C:\Users\CYMR90~1\AppData\Local\Temp\ccMBshSz.s:23347  .debug_str:0000000000009c7e .LASF1656
C:\Users\CYMR90~1\AppData\Local\Temp\ccMBshSz.s:9041   .debug_macro:0000000000000000 .Ldebug_macro43
C:\Users\CYMR90~1\AppData\Local\Temp\ccMBshSz.s:9088   .debug_macro:0000000000000000 .Ldebug_macro44
C:\Users\CYMR90~1\AppData\Local\Temp\ccMBshSz.s:9243   .debug_macro:0000000000000000 .Ldebug_macro45
C:\Users\CYMR90~1\AppData\Local\Temp\ccMBshSz.s:9299   .debug_macro:0000000000000000 .Ldebug_macro46
C:\Users\CYMR90~1\AppData\Local\Temp\ccMBshSz.s:9310   .debug_macro:0000000000000000 .Ldebug_macro47
C:\Users\CYMR90~1\AppData\Local\Temp\ccMBshSz.s:31410  .debug_str:0000000000029f6f .LASF1782
C:\Users\CYMR90~1\AppData\Local\Temp\ccMBshSz.s:26203  .debug_str:000000000001528f .LASF1783
C:\Users\CYMR90~1\AppData\Local\Temp\ccMBshSz.s:9441   .debug_macro:0000000000000000 .Ldebug_macro48
C:\Users\CYMR90~1\AppData\Local\Temp\ccMBshSz.s:10013  .debug_macro:0000000000000000 .Ldebug_macro49
C:\Users\CYMR90~1\AppData\Local\Temp\ccMBshSz.s:10300  .debug_macro:0000000000000000 .Ldebug_macro50
C:\Users\CYMR90~1\AppData\Local\Temp\ccMBshSz.s:10329  .debug_macro:0000000000000000 .Ldebug_macro51
C:\Users\CYMR90~1\AppData\Local\Temp\ccMBshSz.s:10406  .debug_macro:0000000000000000 .Ldebug_macro52
C:\Users\CYMR90~1\AppData\Local\Temp\ccMBshSz.s:10939  .debug_macro:0000000000000000 .Ldebug_macro53
C:\Users\CYMR90~1\AppData\Local\Temp\ccMBshSz.s:10962  .debug_macro:0000000000000000 .Ldebug_macro54
C:\Users\CYMR90~1\AppData\Local\Temp\ccMBshSz.s:11228  .debug_macro:0000000000000000 .Ldebug_macro55
C:\Users\CYMR90~1\AppData\Local\Temp\ccMBshSz.s:11707  .debug_macro:0000000000000000 .Ldebug_macro56
C:\Users\CYMR90~1\AppData\Local\Temp\ccMBshSz.s:12036  .debug_macro:0000000000000000 .Ldebug_macro57
C:\Users\CYMR90~1\AppData\Local\Temp\ccMBshSz.s:12125  .debug_macro:0000000000000000 .Ldebug_macro58
C:\Users\CYMR90~1\AppData\Local\Temp\ccMBshSz.s:12940  .debug_macro:0000000000000000 .Ldebug_macro59
C:\Users\CYMR90~1\AppData\Local\Temp\ccMBshSz.s:13131  .debug_macro:0000000000000000 .Ldebug_macro60
C:\Users\CYMR90~1\AppData\Local\Temp\ccMBshSz.s:13634  .debug_macro:0000000000000000 .Ldebug_macro61
C:\Users\CYMR90~1\AppData\Local\Temp\ccMBshSz.s:13780  .debug_macro:0000000000000000 .Ldebug_macro62
C:\Users\CYMR90~1\AppData\Local\Temp\ccMBshSz.s:14310  .debug_macro:0000000000000000 .Ldebug_macro63
C:\Users\CYMR90~1\AppData\Local\Temp\ccMBshSz.s:17084  .debug_macro:0000000000000000 .Ldebug_macro64
C:\Users\CYMR90~1\AppData\Local\Temp\ccMBshSz.s:18160  .debug_macro:0000000000000000 .Ldebug_macro65
C:\Users\CYMR90~1\AppData\Local\Temp\ccMBshSz.s:18429  .debug_macro:0000000000000000 .Ldebug_macro66
C:\Users\CYMR90~1\AppData\Local\Temp\ccMBshSz.s:18701  .debug_macro:0000000000000000 .Ldebug_macro67
C:\Users\CYMR90~1\AppData\Local\Temp\ccMBshSz.s:19729  .debug_macro:0000000000000000 .Ldebug_macro68
C:\Users\CYMR90~1\AppData\Local\Temp\ccMBshSz.s:19773  .debug_macro:0000000000000000 .Ldebug_macro69
C:\Users\CYMR90~1\AppData\Local\Temp\ccMBshSz.s:20399  .debug_macro:0000000000000000 .Ldebug_macro70
C:\Users\CYMR90~1\AppData\Local\Temp\ccMBshSz.s:20458  .debug_macro:0000000000000000 .Ldebug_macro71
C:\Users\CYMR90~1\AppData\Local\Temp\ccMBshSz.s:28058  .debug_str:000000000001cb0b .LASF5556
C:\Users\CYMR90~1\AppData\Local\Temp\ccMBshSz.s:22579  .debug_str:0000000000006a35 .LASF5557
C:\Users\CYMR90~1\AppData\Local\Temp\ccMBshSz.s:27114  .debug_str:0000000000018d74 .LASF5558
C:\Users\CYMR90~1\AppData\Local\Temp\ccMBshSz.s:25071  .debug_str:00000000000109aa .LASF5559
C:\Users\CYMR90~1\AppData\Local\Temp\ccMBshSz.s:22259  .debug_str:00000000000056cb .LASF0
C:\Users\CYMR90~1\AppData\Local\Temp\ccMBshSz.s:26642  .debug_str:000000000001705d .LASF1
C:\Users\CYMR90~1\AppData\Local\Temp\ccMBshSz.s:24885  .debug_str:000000000000fe5d .LASF2
C:\Users\CYMR90~1\AppData\Local\Temp\ccMBshSz.s:24945  .debug_str:0000000000010207 .LASF3
C:\Users\CYMR90~1\AppData\Local\Temp\ccMBshSz.s:26261  .debug_str:000000000001559f .LASF4
C:\Users\CYMR90~1\AppData\Local\Temp\ccMBshSz.s:31806  .debug_str:000000000002b7ae .LASF5
C:\Users\CYMR90~1\AppData\Local\Temp\ccMBshSz.s:22485  .debug_str:0000000000006497 .LASF6
C:\Users\CYMR90~1\AppData\Local\Temp\ccMBshSz.s:31124  .debug_str:0000000000028d89 .LASF7
C:\Users\CYMR90~1\AppData\Local\Temp\ccMBshSz.s:30068  .debug_str:0000000000024784 .LASF8
C:\Users\CYMR90~1\AppData\Local\Temp\ccMBshSz.s:27984  .debug_str:000000000001c588 .LASF9
C:\Users\CYMR90~1\AppData\Local\Temp\ccMBshSz.s:27332  .debug_str:0000000000019c4f .LASF10
C:\Users\CYMR90~1\AppData\Local\Temp\ccMBshSz.s:27186  .debug_str:000000000001928a .LASF11
C:\Users\CYMR90~1\AppData\Local\Temp\ccMBshSz.s:31646  .debug_str:000000000002ad77 .LASF12
C:\Users\CYMR90~1\AppData\Local\Temp\ccMBshSz.s:27200  .debug_str:0000000000019361 .LASF13
C:\Users\CYMR90~1\AppData\Local\Temp\ccMBshSz.s:23507  .debug_str:000000000000a658 .LASF14
C:\Users\CYMR90~1\AppData\Local\Temp\ccMBshSz.s:28560  .debug_str:000000000001eb9a .LASF15
C:\Users\CYMR90~1\AppData\Local\Temp\ccMBshSz.s:29318  .debug_str:00000000000219a9 .LASF16
C:\Users\CYMR90~1\AppData\Local\Temp\ccMBshSz.s:23553  .debug_str:000000000000a926 .LASF17
C:\Users\CYMR90~1\AppData\Local\Temp\ccMBshSz.s:30354  .debug_str:0000000000025bda .LASF18
C:\Users\CYMR90~1\AppData\Local\Temp\ccMBshSz.s:24495  .debug_str:000000000000e651 .LASF19
C:\Users\CYMR90~1\AppData\Local\Temp\ccMBshSz.s:21563  .debug_str:0000000000002a37 .LASF20
C:\Users\CYMR90~1\AppData\Local\Temp\ccMBshSz.s:26994  .debug_str:000000000001858e .LASF21
C:\Users\CYMR90~1\AppData\Local\Temp\ccMBshSz.s:26992  .debug_str:0000000000018574 .LASF22
C:\Users\CYMR90~1\AppData\Local\Temp\ccMBshSz.s:29624  .debug_str:0000000000022c33 .LASF23
C:\Users\CYMR90~1\AppData\Local\Temp\ccMBshSz.s:27936  .debug_str:000000000001c2f1 .LASF24
C:\Users\CYMR90~1\AppData\Local\Temp\ccMBshSz.s:21799  .debug_str:0000000000003914 .LASF25
C:\Users\CYMR90~1\AppData\Local\Temp\ccMBshSz.s:26387  .debug_str:0000000000015d79 .LASF26
C:\Users\CYMR90~1\AppData\Local\Temp\ccMBshSz.s:29628  .debug_str:0000000000022c69 .LASF27
C:\Users\CYMR90~1\AppData\Local\Temp\ccMBshSz.s:29326  .debug_str:0000000000021a06 .LASF28
C:\Users\CYMR90~1\AppData\Local\Temp\ccMBshSz.s:22209  .debug_str:00000000000053d4 .LASF29
C:\Users\CYMR90~1\AppData\Local\Temp\ccMBshSz.s:28348  .debug_str:000000000001debc .LASF30
C:\Users\CYMR90~1\AppData\Local\Temp\ccMBshSz.s:21175  .debug_str:0000000000001278 .LASF31
C:\Users\CYMR90~1\AppData\Local\Temp\ccMBshSz.s:28804  .debug_str:000000000001f9e9 .LASF32
C:\Users\CYMR90~1\AppData\Local\Temp\ccMBshSz.s:23387  .debug_str:0000000000009ecb .LASF33
C:\Users\CYMR90~1\AppData\Local\Temp\ccMBshSz.s:23235  .debug_str:0000000000009524 .LASF34
C:\Users\CYMR90~1\AppData\Local\Temp\ccMBshSz.s:24527  .debug_str:000000000000e835 .LASF35
C:\Users\CYMR90~1\AppData\Local\Temp\ccMBshSz.s:27440  .debug_str:000000000001a279 .LASF36
C:\Users\CYMR90~1\AppData\Local\Temp\ccMBshSz.s:22735  .debug_str:00000000000074a8 .LASF37
C:\Users\CYMR90~1\AppData\Local\Temp\ccMBshSz.s:24883  .debug_str:000000000000fe3a .LASF38
C:\Users\CYMR90~1\AppData\Local\Temp\ccMBshSz.s:21765  .debug_str:00000000000036bc .LASF39
C:\Users\CYMR90~1\AppData\Local\Temp\ccMBshSz.s:21555  .debug_str:00000000000029a5 .LASF40
C:\Users\CYMR90~1\AppData\Local\Temp\ccMBshSz.s:25047  .debug_str:0000000000010806 .LASF41
C:\Users\CYMR90~1\AppData\Local\Temp\ccMBshSz.s:25473  .debug_str:00000000000123d8 .LASF42
C:\Users\CYMR90~1\AppData\Local\Temp\ccMBshSz.s:25741  .debug_str:00000000000135c0 .LASF43
C:\Users\CYMR90~1\AppData\Local\Temp\ccMBshSz.s:27430  .debug_str:000000000001a1e6 .LASF44
C:\Users\CYMR90~1\AppData\Local\Temp\ccMBshSz.s:25335  .debug_str:0000000000011b3b .LASF45
C:\Users\CYMR90~1\AppData\Local\Temp\ccMBshSz.s:22031  .debug_str:0000000000004872 .LASF46
C:\Users\CYMR90~1\AppData\Local\Temp\ccMBshSz.s:28352  .debug_str:000000000001defb .LASF47
C:\Users\CYMR90~1\AppData\Local\Temp\ccMBshSz.s:30070  .debug_str:0000000000024799 .LASF48
C:\Users\CYMR90~1\AppData\Local\Temp\ccMBshSz.s:24277  .debug_str:000000000000d91a .LASF49
C:\Users\CYMR90~1\AppData\Local\Temp\ccMBshSz.s:21389  .debug_str:0000000000001fea .LASF50
C:\Users\CYMR90~1\AppData\Local\Temp\ccMBshSz.s:20897  .debug_str:0000000000000131 .LASF51
C:\Users\CYMR90~1\AppData\Local\Temp\ccMBshSz.s:31422  .debug_str:000000000002a004 .LASF52
C:\Users\CYMR90~1\AppData\Local\Temp\ccMBshSz.s:24087  .debug_str:000000000000cd3a .LASF53
C:\Users\CYMR90~1\AppData\Local\Temp\ccMBshSz.s:25825  .debug_str:0000000000013a97 .LASF54
C:\Users\CYMR90~1\AppData\Local\Temp\ccMBshSz.s:24847  .debug_str:000000000000fbd6 .LASF55
C:\Users\CYMR90~1\AppData\Local\Temp\ccMBshSz.s:22823  .debug_str:0000000000007a20 .LASF56
C:\Users\CYMR90~1\AppData\Local\Temp\ccMBshSz.s:26237  .debug_str:000000000001544d .LASF57
C:\Users\CYMR90~1\AppData\Local\Temp\ccMBshSz.s:21129  .debug_str:0000000000000fca .LASF58
C:\Users\CYMR90~1\AppData\Local\Temp\ccMBshSz.s:30358  .debug_str:0000000000025c1a .LASF59
C:\Users\CYMR90~1\AppData\Local\Temp\ccMBshSz.s:25749  .debug_str:000000000001361b .LASF60
C:\Users\CYMR90~1\AppData\Local\Temp\ccMBshSz.s:27708  .debug_str:000000000001b504 .LASF61
C:\Users\CYMR90~1\AppData\Local\Temp\ccMBshSz.s:21625  .debug_str:0000000000002df1 .LASF62
C:\Users\CYMR90~1\AppData\Local\Temp\ccMBshSz.s:24271  .debug_str:000000000000d8d6 .LASF63
C:\Users\CYMR90~1\AppData\Local\Temp\ccMBshSz.s:24003  .debug_str:000000000000c774 .LASF64
C:\Users\CYMR90~1\AppData\Local\Temp\ccMBshSz.s:27416  .debug_str:000000000001a11d .LASF65
C:\Users\CYMR90~1\AppData\Local\Temp\ccMBshSz.s:26057  .debug_str:00000000000148d4 .LASF66
C:\Users\CYMR90~1\AppData\Local\Temp\ccMBshSz.s:31196  .debug_str:00000000000291da .LASF67
C:\Users\CYMR90~1\AppData\Local\Temp\ccMBshSz.s:31648  .debug_str:000000000002ad8a .LASF68
C:\Users\CYMR90~1\AppData\Local\Temp\ccMBshSz.s:25289  .debug_str:00000000000117eb .LASF69
C:\Users\CYMR90~1\AppData\Local\Temp\ccMBshSz.s:24421  .debug_str:000000000000e1a9 .LASF70
C:\Users\CYMR90~1\AppData\Local\Temp\ccMBshSz.s:22043  .debug_str:00000000000049c5 .LASF71
C:\Users\CYMR90~1\AppData\Local\Temp\ccMBshSz.s:25323  .debug_str:0000000000011a65 .LASF72
C:\Users\CYMR90~1\AppData\Local\Temp\ccMBshSz.s:24953  .debug_str:0000000000010278 .LASF73
C:\Users\CYMR90~1\AppData\Local\Temp\ccMBshSz.s:25555  .debug_str:000000000001295a .LASF74
C:\Users\CYMR90~1\AppData\Local\Temp\ccMBshSz.s:25395  .debug_str:0000000000011edc .LASF75
C:\Users\CYMR90~1\AppData\Local\Temp\ccMBshSz.s:25493  .debug_str:0000000000012536 .LASF76
C:\Users\CYMR90~1\AppData\Local\Temp\ccMBshSz.s:29986  .debug_str:0000000000024206 .LASF77
C:\Users\CYMR90~1\AppData\Local\Temp\ccMBshSz.s:27912  .debug_str:000000000001c182 .LASF78
C:\Users\CYMR90~1\AppData\Local\Temp\ccMBshSz.s:28318  .debug_str:000000000001dc76 .LASF79
C:\Users\CYMR90~1\AppData\Local\Temp\ccMBshSz.s:31176  .debug_str:000000000002908b .LASF80
C:\Users\CYMR90~1\AppData\Local\Temp\ccMBshSz.s:23339  .debug_str:0000000000009bf3 .LASF81
C:\Users\CYMR90~1\AppData\Local\Temp\ccMBshSz.s:23539  .debug_str:000000000000a7fa .LASF82
C:\Users\CYMR90~1\AppData\Local\Temp\ccMBshSz.s:31318  .debug_str:0000000000029a1c .LASF83
C:\Users\CYMR90~1\AppData\Local\Temp\ccMBshSz.s:30442  .debug_str:000000000002616a .LASF84
C:\Users\CYMR90~1\AppData\Local\Temp\ccMBshSz.s:22553  .debug_str:00000000000068b9 .LASF85
C:\Users\CYMR90~1\AppData\Local\Temp\ccMBshSz.s:27616  .debug_str:000000000001af32 .LASF86
C:\Users\CYMR90~1\AppData\Local\Temp\ccMBshSz.s:31346  .debug_str:0000000000029b80 .LASF87
C:\Users\CYMR90~1\AppData\Local\Temp\ccMBshSz.s:28744  .debug_str:000000000001f664 .LASF88
C:\Users\CYMR90~1\AppData\Local\Temp\ccMBshSz.s:27536  .debug_str:000000000001aa10 .LASF89
C:\Users\CYMR90~1\AppData\Local\Temp\ccMBshSz.s:28772  .debug_str:000000000001f818 .LASF90
C:\Users\CYMR90~1\AppData\Local\Temp\ccMBshSz.s:31552  .debug_str:000000000002a7f4 .LASF91
C:\Users\CYMR90~1\AppData\Local\Temp\ccMBshSz.s:30366  .debug_str:0000000000025c92 .LASF92
C:\Users\CYMR90~1\AppData\Local\Temp\ccMBshSz.s:23419  .debug_str:000000000000a0ce .LASF93
C:\Users\CYMR90~1\AppData\Local\Temp\ccMBshSz.s:28196  .debug_str:000000000001d4d5 .LASF94
C:\Users\CYMR90~1\AppData\Local\Temp\ccMBshSz.s:25779  .debug_str:00000000000137e7 .LASF95
C:\Users\CYMR90~1\AppData\Local\Temp\ccMBshSz.s:25763  .debug_str:00000000000136f7 .LASF96
C:\Users\CYMR90~1\AppData\Local\Temp\ccMBshSz.s:31854  .debug_str:000000000002bac1 .LASF97
C:\Users\CYMR90~1\AppData\Local\Temp\ccMBshSz.s:25409  .debug_str:0000000000011fdf .LASF98
C:\Users\CYMR90~1\AppData\Local\Temp\ccMBshSz.s:29344  .debug_str:0000000000021b2d .LASF99
C:\Users\CYMR90~1\AppData\Local\Temp\ccMBshSz.s:22771  .debug_str:00000000000076bf .LASF100
C:\Users\CYMR90~1\AppData\Local\Temp\ccMBshSz.s:24899  .debug_str:000000000000ff28 .LASF101
C:\Users\CYMR90~1\AppData\Local\Temp\ccMBshSz.s:26303  .debug_str:00000000000157f6 .LASF102
C:\Users\CYMR90~1\AppData\Local\Temp\ccMBshSz.s:25175  .debug_str:0000000000011009 .LASF103
C:\Users\CYMR90~1\AppData\Local\Temp\ccMBshSz.s:24191  .debug_str:000000000000d3c1 .LASF104
C:\Users\CYMR90~1\AppData\Local\Temp\ccMBshSz.s:25345  .debug_str:0000000000011bd2 .LASF105
C:\Users\CYMR90~1\AppData\Local\Temp\ccMBshSz.s:28008  .debug_str:000000000001c72e .LASF106
C:\Users\CYMR90~1\AppData\Local\Temp\ccMBshSz.s:25169  .debug_str:0000000000010fa4 .LASF107
C:\Users\CYMR90~1\AppData\Local\Temp\ccMBshSz.s:24187  .debug_str:000000000000d39d .LASF108
C:\Users\CYMR90~1\AppData\Local\Temp\ccMBshSz.s:25609  .debug_str:0000000000012cc7 .LASF109
C:\Users\CYMR90~1\AppData\Local\Temp\ccMBshSz.s:24551  .debug_str:000000000000e9cf .LASF110
C:\Users\CYMR90~1\AppData\Local\Temp\ccMBshSz.s:27052  .debug_str:00000000000188f6 .LASF111
C:\Users\CYMR90~1\AppData\Local\Temp\ccMBshSz.s:23673  .debug_str:000000000000b20f .LASF112
C:\Users\CYMR90~1\AppData\Local\Temp\ccMBshSz.s:23417  .debug_str:000000000000a0a5 .LASF113
C:\Users\CYMR90~1\AppData\Local\Temp\ccMBshSz.s:26337  .debug_str:0000000000015a0e .LASF114
C:\Users\CYMR90~1\AppData\Local\Temp\ccMBshSz.s:31242  .debug_str:0000000000029523 .LASF115
C:\Users\CYMR90~1\AppData\Local\Temp\ccMBshSz.s:29870  .debug_str:0000000000023aa7 .LASF116
C:\Users\CYMR90~1\AppData\Local\Temp\ccMBshSz.s:23169  .debug_str:0000000000009165 .LASF117
C:\Users\CYMR90~1\AppData\Local\Temp\ccMBshSz.s:27766  .debug_str:000000000001b87b .LASF118
C:\Users\CYMR90~1\AppData\Local\Temp\ccMBshSz.s:31964  .debug_str:000000000002c1e8 .LASF119
C:\Users\CYMR90~1\AppData\Local\Temp\ccMBshSz.s:24471  .debug_str:000000000000e48a .LASF120
C:\Users\CYMR90~1\AppData\Local\Temp\ccMBshSz.s:29970  .debug_str:000000000002405b .LASF121
C:\Users\CYMR90~1\AppData\Local\Temp\ccMBshSz.s:23965  .debug_str:000000000000c51d .LASF122
C:\Users\CYMR90~1\AppData\Local\Temp\ccMBshSz.s:24073  .debug_str:000000000000cc8d .LASF123
C:\Users\CYMR90~1\AppData\Local\Temp\ccMBshSz.s:21733  .debug_str:00000000000034e7 .LASF124
C:\Users\CYMR90~1\AppData\Local\Temp\ccMBshSz.s:22007  .debug_str:00000000000046bc .LASF125
C:\Users\CYMR90~1\AppData\Local\Temp\ccMBshSz.s:30918  .debug_str:0000000000027f54 .LASF126
C:\Users\CYMR90~1\AppData\Local\Temp\ccMBshSz.s:25351  .debug_str:0000000000011bf6 .LASF127
C:\Users\CYMR90~1\AppData\Local\Temp\ccMBshSz.s:28172  .debug_str:000000000001d377 .LASF128
C:\Users\CYMR90~1\AppData\Local\Temp\ccMBshSz.s:23243  .debug_str:000000000000959c .LASF129
C:\Users\CYMR90~1\AppData\Local\Temp\ccMBshSz.s:30486  .debug_str:00000000000263d0 .LASF130
C:\Users\CYMR90~1\AppData\Local\Temp\ccMBshSz.s:30798  .debug_str:00000000000277ab .LASF131
C:\Users\CYMR90~1\AppData\Local\Temp\ccMBshSz.s:30602  .debug_str:0000000000026afd .LASF132
C:\Users\CYMR90~1\AppData\Local\Temp\ccMBshSz.s:24447  .debug_str:000000000000e33b .LASF133
C:\Users\CYMR90~1\AppData\Local\Temp\ccMBshSz.s:29888  .debug_str:0000000000023bba .LASF134
C:\Users\CYMR90~1\AppData\Local\Temp\ccMBshSz.s:22001  .debug_str:0000000000004655 .LASF135
C:\Users\CYMR90~1\AppData\Local\Temp\ccMBshSz.s:22865  .debug_str:0000000000007cf6 .LASF136
C:\Users\CYMR90~1\AppData\Local\Temp\ccMBshSz.s:31640  .debug_str:000000000002ad34 .LASF137
C:\Users\CYMR90~1\AppData\Local\Temp\ccMBshSz.s:29728  .debug_str:00000000000231af .LASF138
C:\Users\CYMR90~1\AppData\Local\Temp\ccMBshSz.s:31122  .debug_str:0000000000028d79 .LASF139
C:\Users\CYMR90~1\AppData\Local\Temp\ccMBshSz.s:30248  .debug_str:0000000000025444 .LASF140
C:\Users\CYMR90~1\AppData\Local\Temp\ccMBshSz.s:27864  .debug_str:000000000001be4d .LASF141
C:\Users\CYMR90~1\AppData\Local\Temp\ccMBshSz.s:23377  .debug_str:0000000000009e2a .LASF142
C:\Users\CYMR90~1\AppData\Local\Temp\ccMBshSz.s:31714  .debug_str:000000000002b18e .LASF143
C:\Users\CYMR90~1\AppData\Local\Temp\ccMBshSz.s:27018  .debug_str:00000000000186f1 .LASF144
C:\Users\CYMR90~1\AppData\Local\Temp\ccMBshSz.s:26069  .debug_str:00000000000149b9 .LASF145
C:\Users\CYMR90~1\AppData\Local\Temp\ccMBshSz.s:24037  .debug_str:000000000000ca50 .LASF146
C:\Users\CYMR90~1\AppData\Local\Temp\ccMBshSz.s:22041  .debug_str:00000000000049ae .LASF147
C:\Users\CYMR90~1\AppData\Local\Temp\ccMBshSz.s:24595  .debug_str:000000000000ec87 .LASF148
C:\Users\CYMR90~1\AppData\Local\Temp\ccMBshSz.s:26996  .debug_str:00000000000185a2 .LASF149
C:\Users\CYMR90~1\AppData\Local\Temp\ccMBshSz.s:20975  .debug_str:00000000000005e2 .LASF150
C:\Users\CYMR90~1\AppData\Local\Temp\ccMBshSz.s:29328  .debug_str:0000000000021a20 .LASF151
C:\Users\CYMR90~1\AppData\Local\Temp\ccMBshSz.s:25599  .debug_str:0000000000012c13 .LASF152
C:\Users\CYMR90~1\AppData\Local\Temp\ccMBshSz.s:30254  .debug_str:0000000000025497 .LASF153
C:\Users\CYMR90~1\AppData\Local\Temp\ccMBshSz.s:28076  .debug_str:000000000001cc03 .LASF154
C:\Users\CYMR90~1\AppData\Local\Temp\ccMBshSz.s:25009  .debug_str:00000000000105dd .LASF155
C:\Users\CYMR90~1\AppData\Local\Temp\ccMBshSz.s:28088  .debug_str:000000000001cce9 .LASF156
C:\Users\CYMR90~1\AppData\Local\Temp\ccMBshSz.s:28202  .debug_str:000000000001d53d .LASF157
C:\Users\CYMR90~1\AppData\Local\Temp\ccMBshSz.s:23893  .debug_str:000000000000c0b2 .LASF158
C:\Users\CYMR90~1\AppData\Local\Temp\ccMBshSz.s:22967  .debug_str:00000000000084e0 .LASF159
C:\Users\CYMR90~1\AppData\Local\Temp\ccMBshSz.s:27714  .debug_str:000000000001b558 .LASF160
C:\Users\CYMR90~1\AppData\Local\Temp\ccMBshSz.s:29148  .debug_str:0000000000020f2c .LASF161
C:\Users\CYMR90~1\AppData\Local\Temp\ccMBshSz.s:27324  .debug_str:0000000000019bbd .LASF162
C:\Users\CYMR90~1\AppData\Local\Temp\ccMBshSz.s:29878  .debug_str:0000000000023b19 .LASF163
C:\Users\CYMR90~1\AppData\Local\Temp\ccMBshSz.s:31538  .debug_str:000000000002a726 .LASF164
C:\Users\CYMR90~1\AppData\Local\Temp\ccMBshSz.s:22727  .debug_str:0000000000007447 .LASF165
C:\Users\CYMR90~1\AppData\Local\Temp\ccMBshSz.s:31230  .debug_str:00000000000293f4 .LASF166
C:\Users\CYMR90~1\AppData\Local\Temp\ccMBshSz.s:31048  .debug_str:00000000000288dc .LASF167
C:\Users\CYMR90~1\AppData\Local\Temp\ccMBshSz.s:29796  .debug_str:00000000000235e9 .LASF168
C:\Users\CYMR90~1\AppData\Local\Temp\ccMBshSz.s:26782  .debug_str:00000000000178c0 .LASF169
C:\Users\CYMR90~1\AppData\Local\Temp\ccMBshSz.s:30664  .debug_str:0000000000026ea9 .LASF170
C:\Users\CYMR90~1\AppData\Local\Temp\ccMBshSz.s:26415  .debug_str:0000000000015f32 .LASF171
C:\Users\CYMR90~1\AppData\Local\Temp\ccMBshSz.s:27990  .debug_str:000000000001c5eb .LASF172
C:\Users\CYMR90~1\AppData\Local\Temp\ccMBshSz.s:23369  .debug_str:0000000000009db6 .LASF173
C:\Users\CYMR90~1\AppData\Local\Temp\ccMBshSz.s:29688  .debug_str:0000000000022fc4 .LASF174
C:\Users\CYMR90~1\AppData\Local\Temp\ccMBshSz.s:22381  .debug_str:0000000000005e37 .LASF175
C:\Users\CYMR90~1\AppData\Local\Temp\ccMBshSz.s:23211  .debug_str:00000000000093d0 .LASF176
C:\Users\CYMR90~1\AppData\Local\Temp\ccMBshSz.s:21877  .debug_str:0000000000003e05 .LASF177
C:\Users\CYMR90~1\AppData\Local\Temp\ccMBshSz.s:27194  .debug_str:00000000000192fc .LASF178
C:\Users\CYMR90~1\AppData\Local\Temp\ccMBshSz.s:24125  .debug_str:000000000000cf8b .LASF179
C:\Users\CYMR90~1\AppData\Local\Temp\ccMBshSz.s:21383  .debug_str:0000000000001f65 .LASF180
C:\Users\CYMR90~1\AppData\Local\Temp\ccMBshSz.s:31850  .debug_str:000000000002ba96 .LASF181
C:\Users\CYMR90~1\AppData\Local\Temp\ccMBshSz.s:21159  .debug_str:00000000000011a7 .LASF182
C:\Users\CYMR90~1\AppData\Local\Temp\ccMBshSz.s:25717  .debug_str:0000000000013412 .LASF183
C:\Users\CYMR90~1\AppData\Local\Temp\ccMBshSz.s:26137  .debug_str:0000000000014e29 .LASF184
C:\Users\CYMR90~1\AppData\Local\Temp\ccMBshSz.s:31058  .debug_str:000000000002898b .LASF185
C:\Users\CYMR90~1\AppData\Local\Temp\ccMBshSz.s:26696  .debug_str:000000000001735c .LASF186
C:\Users\CYMR90~1\AppData\Local\Temp\ccMBshSz.s:31512  .debug_str:000000000002a51a .LASF187
C:\Users\CYMR90~1\AppData\Local\Temp\ccMBshSz.s:28720  .debug_str:000000000001f540 .LASF188
C:\Users\CYMR90~1\AppData\Local\Temp\ccMBshSz.s:24491  .debug_str:000000000000e61b .LASF189
C:\Users\CYMR90~1\AppData\Local\Temp\ccMBshSz.s:25831  .debug_str:0000000000013afe .LASF190
C:\Users\CYMR90~1\AppData\Local\Temp\ccMBshSz.s:29206  .debug_str:0000000000021261 .LASF191
C:\Users\CYMR90~1\AppData\Local\Temp\ccMBshSz.s:26571  .debug_str:00000000000169c4 .LASF192
C:\Users\CYMR90~1\AppData\Local\Temp\ccMBshSz.s:29444  .debug_str:0000000000022132 .LASF193
C:\Users\CYMR90~1\AppData\Local\Temp\ccMBshSz.s:22337  .debug_str:0000000000005bb7 .LASF194
C:\Users\CYMR90~1\AppData\Local\Temp\ccMBshSz.s:21703  .debug_str:00000000000032db .LASF195
C:\Users\CYMR90~1\AppData\Local\Temp\ccMBshSz.s:24319  .debug_str:000000000000db5b .LASF196
C:\Users\CYMR90~1\AppData\Local\Temp\ccMBshSz.s:25233  .debug_str:00000000000113a2 .LASF197
C:\Users\CYMR90~1\AppData\Local\Temp\ccMBshSz.s:22193  .debug_str:00000000000052c9 .LASF198
C:\Users\CYMR90~1\AppData\Local\Temp\ccMBshSz.s:30952  .debug_str:00000000000281b8 .LASF199
C:\Users\CYMR90~1\AppData\Local\Temp\ccMBshSz.s:29090  .debug_str:0000000000020bcb .LASF200
C:\Users\CYMR90~1\AppData\Local\Temp\ccMBshSz.s:28210  .debug_str:000000000001d59b .LASF201
C:\Users\CYMR90~1\AppData\Local\Temp\ccMBshSz.s:23345  .debug_str:0000000000009c3d .LASF202
C:\Users\CYMR90~1\AppData\Local\Temp\ccMBshSz.s:31402  .debug_str:0000000000029ede .LASF203
C:\Users\CYMR90~1\AppData\Local\Temp\ccMBshSz.s:21715  .debug_str:00000000000033ac .LASF204
C:\Users\CYMR90~1\AppData\Local\Temp\ccMBshSz.s:24729  .debug_str:000000000000f452 .LASF205
C:\Users\CYMR90~1\AppData\Local\Temp\ccMBshSz.s:31132  .debug_str:0000000000028dea .LASF206
C:\Users\CYMR90~1\AppData\Local\Temp\ccMBshSz.s:25955  .debug_str:00000000000142b8 .LASF207
C:\Users\CYMR90~1\AppData\Local\Temp\ccMBshSz.s:28760  .debug_str:000000000001f76a .LASF208
C:\Users\CYMR90~1\AppData\Local\Temp\ccMBshSz.s:23959  .debug_str:000000000000c4cc .LASF209
C:\Users\CYMR90~1\AppData\Local\Temp\ccMBshSz.s:32064  .debug_str:000000000002c82b .LASF210
C:\Users\CYMR90~1\AppData\Local\Temp\ccMBshSz.s:25925  .debug_str:00000000000140ed .LASF211
C:\Users\CYMR90~1\AppData\Local\Temp\ccMBshSz.s:28600  .debug_str:000000000001edb7 .LASF212
C:\Users\CYMR90~1\AppData\Local\Temp\ccMBshSz.s:27216  .debug_str:000000000001944d .LASF213
C:\Users\CYMR90~1\AppData\Local\Temp\ccMBshSz.s:22421  .debug_str:0000000000006083 .LASF214
C:\Users\CYMR90~1\AppData\Local\Temp\ccMBshSz.s:25933  .debug_str:000000000001415d .LASF215
C:\Users\CYMR90~1\AppData\Local\Temp\ccMBshSz.s:27908  .debug_str:000000000001c132 .LASF216
C:\Users\CYMR90~1\AppData\Local\Temp\ccMBshSz.s:28870  .debug_str:000000000001fe02 .LASF217
C:\Users\CYMR90~1\AppData\Local\Temp\ccMBshSz.s:24803  .debug_str:000000000000f916 .LASF218
C:\Users\CYMR90~1\AppData\Local\Temp\ccMBshSz.s:30256  .debug_str:00000000000254d3 .LASF219
C:\Users\CYMR90~1\AppData\Local\Temp\ccMBshSz.s:30062  .debug_str:000000000002472b .LASF220
C:\Users\CYMR90~1\AppData\Local\Temp\ccMBshSz.s:29588  .debug_str:0000000000022991 .LASF221
C:\Users\CYMR90~1\AppData\Local\Temp\ccMBshSz.s:26217  .debug_str:0000000000015351 .LASF222
C:\Users\CYMR90~1\AppData\Local\Temp\ccMBshSz.s:22391  .debug_str:0000000000005eb9 .LASF223
C:\Users\CYMR90~1\AppData\Local\Temp\ccMBshSz.s:23069  .debug_str:0000000000008b5b .LASF224
C:\Users\CYMR90~1\AppData\Local\Temp\ccMBshSz.s:31724  .debug_str:000000000002b212 .LASF225
C:\Users\CYMR90~1\AppData\Local\Temp\ccMBshSz.s:24385  .debug_str:000000000000df90 .LASF226
C:\Users\CYMR90~1\AppData\Local\Temp\ccMBshSz.s:28072  .debug_str:000000000001cbd5 .LASF227
C:\Users\CYMR90~1\AppData\Local\Temp\ccMBshSz.s:27918  .debug_str:000000000001c1d8 .LASF228
C:\Users\CYMR90~1\AppData\Local\Temp\ccMBshSz.s:24333  .debug_str:000000000000dc38 .LASF229
C:\Users\CYMR90~1\AppData\Local\Temp\ccMBshSz.s:28642  .debug_str:000000000001f03a .LASF230
C:\Users\CYMR90~1\AppData\Local\Temp\ccMBshSz.s:28398  .debug_str:000000000001e1ab .LASF231
C:\Users\CYMR90~1\AppData\Local\Temp\ccMBshSz.s:22433  .debug_str:0000000000006158 .LASF232
C:\Users\CYMR90~1\AppData\Local\Temp\ccMBshSz.s:23021  .debug_str:0000000000008831 .LASF233
C:\Users\CYMR90~1\AppData\Local\Temp\ccMBshSz.s:25001  .debug_str:000000000001055a .LASF234
C:\Users\CYMR90~1\AppData\Local\Temp\ccMBshSz.s:24725  .debug_str:000000000000f40a .LASF235
C:\Users\CYMR90~1\AppData\Local\Temp\ccMBshSz.s:29804  .debug_str:0000000000023695 .LASF236
C:\Users\CYMR90~1\AppData\Local\Temp\ccMBshSz.s:24747  .debug_str:000000000000f55b .LASF237
C:\Users\CYMR90~1\AppData\Local\Temp\ccMBshSz.s:30482  .debug_str:0000000000026394 .LASF238
C:\Users\CYMR90~1\AppData\Local\Temp\ccMBshSz.s:29788  .debug_str:000000000002356b .LASF239
C:\Users\CYMR90~1\AppData\Local\Temp\ccMBshSz.s:30026  .debug_str:00000000000244fa .LASF240
C:\Users\CYMR90~1\AppData\Local\Temp\ccMBshSz.s:22833  .debug_str:0000000000007b0c .LASF241
C:\Users\CYMR90~1\AppData\Local\Temp\ccMBshSz.s:24407  .debug_str:000000000000e0c8 .LASF242
C:\Users\CYMR90~1\AppData\Local\Temp\ccMBshSz.s:25391  .debug_str:0000000000011e74 .LASF243
C:\Users\CYMR90~1\AppData\Local\Temp\ccMBshSz.s:29814  .debug_str:000000000002370d .LASF244
C:\Users\CYMR90~1\AppData\Local\Temp\ccMBshSz.s:25583  .debug_str:0000000000012af3 .LASF245
C:\Users\CYMR90~1\AppData\Local\Temp\ccMBshSz.s:28654  .debug_str:000000000001f11f .LASF246
C:\Users\CYMR90~1\AppData\Local\Temp\ccMBshSz.s:26980  .debug_str:000000000001848f .LASF247
C:\Users\CYMR90~1\AppData\Local\Temp\ccMBshSz.s:26505  .debug_str:00000000000164ed .LASF248
C:\Users\CYMR90~1\AppData\Local\Temp\ccMBshSz.s:28004  .debug_str:000000000001c6fe .LASF249
C:\Users\CYMR90~1\AppData\Local\Temp\ccMBshSz.s:27378  .debug_str:0000000000019ee6 .LASF250
C:\Users\CYMR90~1\AppData\Local\Temp\ccMBshSz.s:27938  .debug_str:000000000001c300 .LASF251
C:\Users\CYMR90~1\AppData\Local\Temp\ccMBshSz.s:29636  .debug_str:0000000000022cee .LASF252
C:\Users\CYMR90~1\AppData\Local\Temp\ccMBshSz.s:24303  .debug_str:000000000000da99 .LASF253
C:\Users\CYMR90~1\AppData\Local\Temp\ccMBshSz.s:30332  .debug_str:0000000000025a9b .LASF254
C:\Users\CYMR90~1\AppData\Local\Temp\ccMBshSz.s:24169  .debug_str:000000000000d235 .LASF255
C:\Users\CYMR90~1\AppData\Local\Temp\ccMBshSz.s:27288  .debug_str:000000000001996c .LASF256
C:\Users\CYMR90~1\AppData\Local\Temp\ccMBshSz.s:24403  .debug_str:000000000000e096 .LASF257
C:\Users\CYMR90~1\AppData\Local\Temp\ccMBshSz.s:28586  .debug_str:000000000001ecd2 .LASF258
C:\Users\CYMR90~1\AppData\Local\Temp\ccMBshSz.s:23635  .debug_str:000000000000aedf .LASF259
C:\Users\CYMR90~1\AppData\Local\Temp\ccMBshSz.s:21053  .debug_str:0000000000000a9a .LASF260
C:\Users\CYMR90~1\AppData\Local\Temp\ccMBshSz.s:31462  .debug_str:000000000002a25d .LASF261
C:\Users\CYMR90~1\AppData\Local\Temp\ccMBshSz.s:30930  .debug_str:0000000000027ffa .LASF262
C:\Users\CYMR90~1\AppData\Local\Temp\ccMBshSz.s:25901  .debug_str:0000000000013f17 .LASF263
C:\Users\CYMR90~1\AppData\Local\Temp\ccMBshSz.s:27890  .debug_str:000000000001c01e .LASF264
C:\Users\CYMR90~1\AppData\Local\Temp\ccMBshSz.s:24851  .debug_str:000000000000fc1d .LASF265
C:\Users\CYMR90~1\AppData\Local\Temp\ccMBshSz.s:24335  .debug_str:000000000000dc79 .LASF266
C:\Users\CYMR90~1\AppData\Local\Temp\ccMBshSz.s:23685  .debug_str:000000000000b2b5 .LASF267
C:\Users\CYMR90~1\AppData\Local\Temp\ccMBshSz.s:27992  .debug_str:000000000001c600 .LASF268
C:\Users\CYMR90~1\AppData\Local\Temp\ccMBshSz.s:23983  .debug_str:000000000000c64f .LASF269
C:\Users\CYMR90~1\AppData\Local\Temp\ccMBshSz.s:24919  .debug_str:000000000001007f .LASF270
C:\Users\CYMR90~1\AppData\Local\Temp\ccMBshSz.s:26183  .debug_str:0000000000015118 .LASF271
C:\Users\CYMR90~1\AppData\Local\Temp\ccMBshSz.s:30584  .debug_str:0000000000026a03 .LASF272
C:\Users\CYMR90~1\AppData\Local\Temp\ccMBshSz.s:22601  .debug_str:0000000000006b93 .LASF273
C:\Users\CYMR90~1\AppData\Local\Temp\ccMBshSz.s:21503  .debug_str:0000000000002608 .LASF274
C:\Users\CYMR90~1\AppData\Local\Temp\ccMBshSz.s:22697  .debug_str:000000000000721f .LASF275
C:\Users\CYMR90~1\AppData\Local\Temp\ccMBshSz.s:24043  .debug_str:000000000000ca99 .LASF276
C:\Users\CYMR90~1\AppData\Local\Temp\ccMBshSz.s:23877  .debug_str:000000000000bfab .LASF277
C:\Users\CYMR90~1\AppData\Local\Temp\ccMBshSz.s:21185  .debug_str:00000000000012ec .LASF278
C:\Users\CYMR90~1\AppData\Local\Temp\ccMBshSz.s:22519  .debug_str:0000000000006677 .LASF279
C:\Users\CYMR90~1\AppData\Local\Temp\ccMBshSz.s:31254  .debug_str:00000000000295c1 .LASF280
C:\Users\CYMR90~1\AppData\Local\Temp\ccMBshSz.s:23393  .debug_str:0000000000009f0e .LASF281
C:\Users\CYMR90~1\AppData\Local\Temp\ccMBshSz.s:22481  .debug_str:000000000000645a .LASF282
C:\Users\CYMR90~1\AppData\Local\Temp\ccMBshSz.s:22385  .debug_str:0000000000005e67 .LASF283
C:\Users\CYMR90~1\AppData\Local\Temp\ccMBshSz.s:22149  .debug_str:000000000000505d .LASF284
C:\Users\CYMR90~1\AppData\Local\Temp\ccMBshSz.s:30128  .debug_str:0000000000024b9c .LASF285
C:\Users\CYMR90~1\AppData\Local\Temp\ccMBshSz.s:30964  .debug_str:00000000000282ae .LASF286
C:\Users\CYMR90~1\AppData\Local\Temp\ccMBshSz.s:31238  .debug_str:0000000000029451 .LASF287
C:\Users\CYMR90~1\AppData\Local\Temp\ccMBshSz.s:31146  .debug_str:0000000000028ea2 .LASF288
C:\Users\CYMR90~1\AppData\Local\Temp\ccMBshSz.s:31992  .debug_str:000000000002c375 .LASF289
C:\Users\CYMR90~1\AppData\Local\Temp\ccMBshSz.s:26922  .debug_str:0000000000018124 .LASF290
C:\Users\CYMR90~1\AppData\Local\Temp\ccMBshSz.s:25959  .debug_str:00000000000142de .LASF291
C:\Users\CYMR90~1\AppData\Local\Temp\ccMBshSz.s:24869  .debug_str:000000000000fd37 .LASF292
C:\Users\CYMR90~1\AppData\Local\Temp\ccMBshSz.s:21793  .debug_str:00000000000038ac .LASF293
C:\Users\CYMR90~1\AppData\Local\Temp\ccMBshSz.s:29102  .debug_str:0000000000020c83 .LASF294
C:\Users\CYMR90~1\AppData\Local\Temp\ccMBshSz.s:22067  .debug_str:0000000000004b26 .LASF295
C:\Users\CYMR90~1\AppData\Local\Temp\ccMBshSz.s:31582  .debug_str:000000000002a9d4 .LASF296
C:\Users\CYMR90~1\AppData\Local\Temp\ccMBshSz.s:31772  .debug_str:000000000002b544 .LASF297
C:\Users\CYMR90~1\AppData\Local\Temp\ccMBshSz.s:26802  .debug_str:0000000000017a39 .LASF298
C:\Users\CYMR90~1\AppData\Local\Temp\ccMBshSz.s:21037  .debug_str:0000000000000994 .LASF299
C:\Users\CYMR90~1\AppData\Local\Temp\ccMBshSz.s:24823  .debug_str:000000000000fa57 .LASF300
C:\Users\CYMR90~1\AppData\Local\Temp\ccMBshSz.s:27558  .debug_str:000000000001ab6f .LASF301
C:\Users\CYMR90~1\AppData\Local\Temp\ccMBshSz.s:26063  .debug_str:000000000001492b .LASF302
C:\Users\CYMR90~1\AppData\Local\Temp\ccMBshSz.s:25531  .debug_str:00000000000127ac .LASF303
C:\Users\CYMR90~1\AppData\Local\Temp\ccMBshSz.s:21423  .debug_str:0000000000002188 .LASF304
C:\Users\CYMR90~1\AppData\Local\Temp\ccMBshSz.s:23991  .debug_str:000000000000c6d3 .LASF305
C:\Users\CYMR90~1\AppData\Local\Temp\ccMBshSz.s:29310  .debug_str:0000000000021943 .LASF306
C:\Users\CYMR90~1\AppData\Local\Temp\ccMBshSz.s:24837  .debug_str:000000000000fb3e .LASF307
C:\Users\CYMR90~1\AppData\Local\Temp\ccMBshSz.s:30148  .debug_str:0000000000024cf2 .LASF308
C:\Users\CYMR90~1\AppData\Local\Temp\ccMBshSz.s:29754  .debug_str:0000000000023358 .LASF309
C:\Users\CYMR90~1\AppData\Local\Temp\ccMBshSz.s:24387  .debug_str:000000000000dfa9 .LASF310
C:\Users\CYMR90~1\AppData\Local\Temp\ccMBshSz.s:30478  .debug_str:0000000000026369 .LASF311
C:\Users\CYMR90~1\AppData\Local\Temp\ccMBshSz.s:29980  .debug_str:00000000000241cf .LASF312
C:\Users\CYMR90~1\AppData\Local\Temp\ccMBshSz.s:24107  .debug_str:000000000000ce58 .LASF313
C:\Users\CYMR90~1\AppData\Local\Temp\ccMBshSz.s:31168  .debug_str:0000000000029025 .LASF316
C:\Users\CYMR90~1\AppData\Local\Temp\ccMBshSz.s:27432  .debug_str:000000000001a203 .LASF317
C:\Users\CYMR90~1\AppData\Local\Temp\ccMBshSz.s:27774  .debug_str:000000000001b8c8 .LASF318
C:\Users\CYMR90~1\AppData\Local\Temp\ccMBshSz.s:24831  .debug_str:000000000000faf4 .LASF319
C:\Users\CYMR90~1\AppData\Local\Temp\ccMBshSz.s:23753  .debug_str:000000000000b727 .LASF320
C:\Users\CYMR90~1\AppData\Local\Temp\ccMBshSz.s:31194  .debug_str:00000000000291ce .LASF321
C:\Users\CYMR90~1\AppData\Local\Temp\ccMBshSz.s:24301  .debug_str:000000000000da8c .LASF322
C:\Users\CYMR90~1\AppData\Local\Temp\ccMBshSz.s:30428  .debug_str:000000000002603e .LASF323
C:\Users\CYMR90~1\AppData\Local\Temp\ccMBshSz.s:20915  .debug_str:000000000000025e .LASF324
C:\Users\CYMR90~1\AppData\Local\Temp\ccMBshSz.s:31604  .debug_str:000000000002ab09 .LASF325
C:\Users\CYMR90~1\AppData\Local\Temp\ccMBshSz.s:21849  .debug_str:0000000000003c2a .LASF326
C:\Users\CYMR90~1\AppData\Local\Temp\ccMBshSz.s:25889  .debug_str:0000000000013e5a .LASF327
C:\Users\CYMR90~1\AppData\Local\Temp\ccMBshSz.s:25533  .debug_str:00000000000127c1 .LASF328
C:\Users\CYMR90~1\AppData\Local\Temp\ccMBshSz.s:28438  .debug_str:000000000001e3fa .LASF329
C:\Users\CYMR90~1\AppData\Local\Temp\ccMBshSz.s:28430  .debug_str:000000000001e3a9 .LASF330
C:\Users\CYMR90~1\AppData\Local\Temp\ccMBshSz.s:30624  .debug_str:0000000000026c6a .LASF331
C:\Users\CYMR90~1\AppData\Local\Temp\ccMBshSz.s:31174  .debug_str:000000000002907c .LASF332
C:\Users\CYMR90~1\AppData\Local\Temp\ccMBshSz.s:31368  .debug_str:0000000000029cd4 .LASF333
C:\Users\CYMR90~1\AppData\Local\Temp\ccMBshSz.s:27406  .debug_str:000000000001a088 .LASF334
C:\Users\CYMR90~1\AppData\Local\Temp\ccMBshSz.s:26846  .debug_str:0000000000017cc6 .LASF335
C:\Users\CYMR90~1\AppData\Local\Temp\ccMBshSz.s:31218  .debug_str:000000000002934e .LASF336
C:\Users\CYMR90~1\AppData\Local\Temp\ccMBshSz.s:25455  .debug_str:00000000000122ba .LASF337
C:\Users\CYMR90~1\AppData\Local\Temp\ccMBshSz.s:29156  .debug_str:0000000000020f98 .LASF338
C:\Users\CYMR90~1\AppData\Local\Temp\ccMBshSz.s:23511  .debug_str:000000000000a681 .LASF339
C:\Users\CYMR90~1\AppData\Local\Temp\ccMBshSz.s:25669  .debug_str:00000000000130c1 .LASF340
C:\Users\CYMR90~1\AppData\Local\Temp\ccMBshSz.s:27608  .debug_str:000000000001ae7b .LASF341
C:\Users\CYMR90~1\AppData\Local\Temp\ccMBshSz.s:23813  .debug_str:000000000000bb35 .LASF342
C:\Users\CYMR90~1\AppData\Local\Temp\ccMBshSz.s:21167  .debug_str:0000000000001218 .LASF343
C:\Users\CYMR90~1\AppData\Local\Temp\ccMBshSz.s:31336  .debug_str:0000000000029aef .LASF344
C:\Users\CYMR90~1\AppData\Local\Temp\ccMBshSz.s:31934  .debug_str:000000000002bfcb .LASF345
C:\Users\CYMR90~1\AppData\Local\Temp\ccMBshSz.s:24715  .debug_str:000000000000f382 .LASF346
C:\Users\CYMR90~1\AppData\Local\Temp\ccMBshSz.s:21025  .debug_str:00000000000008dd .LASF347
C:\Users\CYMR90~1\AppData\Local\Temp\ccMBshSz.s:28952  .debug_str:000000000002030d .LASF348
C:\Users\CYMR90~1\AppData\Local\Temp\ccMBshSz.s:30940  .debug_str:00000000000280c9 .LASF349
C:\Users\CYMR90~1\AppData\Local\Temp\ccMBshSz.s:28432  .debug_str:000000000001e3b5 .LASF350
C:\Users\CYMR90~1\AppData\Local\Temp\ccMBshSz.s:20955  .debug_str:00000000000004de .LASF351
C:\Users\CYMR90~1\AppData\Local\Temp\ccMBshSz.s:28724  .debug_str:000000000001f570 .LASF352
C:\Users\CYMR90~1\AppData\Local\Temp\ccMBshSz.s:30420  .debug_str:0000000000025fd4 .LASF353
C:\Users\CYMR90~1\AppData\Local\Temp\ccMBshSz.s:28056  .debug_str:000000000001cafc .LASF354
C:\Users\CYMR90~1\AppData\Local\Temp\ccMBshSz.s:28224  .debug_str:000000000001d691 .LASF355
C:\Users\CYMR90~1\AppData\Local\Temp\ccMBshSz.s:24197  .debug_str:000000000000d4b7 .LASF356
C:\Users\CYMR90~1\AppData\Local\Temp\ccMBshSz.s:27364  .debug_str:0000000000019e3a .LASF357
C:\Users\CYMR90~1\AppData\Local\Temp\ccMBshSz.s:30852  .debug_str:0000000000027ac4 .LASF358
C:\Users\CYMR90~1\AppData\Local\Temp\ccMBshSz.s:25523  .debug_str:0000000000012701 .LASF359
C:\Users\CYMR90~1\AppData\Local\Temp\ccMBshSz.s:23605  .debug_str:000000000000ad28 .LASF360
C:\Users\CYMR90~1\AppData\Local\Temp\ccMBshSz.s:28602  .debug_str:000000000001edcf .LASF361
C:\Users\CYMR90~1\AppData\Local\Temp\ccMBshSz.s:28396  .debug_str:000000000001e19d .LASF362
C:\Users\CYMR90~1\AppData\Local\Temp\ccMBshSz.s:31114  .debug_str:0000000000028cf9 .LASF363
C:\Users\CYMR90~1\AppData\Local\Temp\ccMBshSz.s:23153  .debug_str:0000000000009091 .LASF364
C:\Users\CYMR90~1\AppData\Local\Temp\ccMBshSz.s:31014  .debug_str:0000000000028656 .LASF365
C:\Users\CYMR90~1\AppData\Local\Temp\ccMBshSz.s:22557  .debug_str:000000000000691e .LASF366
C:\Users\CYMR90~1\AppData\Local\Temp\ccMBshSz.s:25659  .debug_str:0000000000012ffd .LASF367
C:\Users\CYMR90~1\AppData\Local\Temp\ccMBshSz.s:22841  .debug_str:0000000000007b8a .LASF368
C:\Users\CYMR90~1\AppData\Local\Temp\ccMBshSz.s:26890  .debug_str:0000000000017f52 .LASF372
C:\Users\CYMR90~1\AppData\Local\Temp\ccMBshSz.s:30666  .debug_str:0000000000026eee .LASF373
C:\Users\CYMR90~1\AppData\Local\Temp\ccMBshSz.s:23589  .debug_str:000000000000ac1e .LASF374
C:\Users\CYMR90~1\AppData\Local\Temp\ccMBshSz.s:26684  .debug_str:00000000000172b5 .LASF375
C:\Users\CYMR90~1\AppData\Local\Temp\ccMBshSz.s:26876  .debug_str:0000000000017e8a .LASF376
C:\Users\CYMR90~1\AppData\Local\Temp\ccMBshSz.s:29412  .debug_str:0000000000021f5a .LASF377
C:\Users\CYMR90~1\AppData\Local\Temp\ccMBshSz.s:28074  .debug_str:000000000001cbee .LASF378
C:\Users\CYMR90~1\AppData\Local\Temp\ccMBshSz.s:31764  .debug_str:000000000002b4d1 .LASF379
C:\Users\CYMR90~1\AppData\Local\Temp\ccMBshSz.s:21521  .debug_str:0000000000002753 .LASF380
C:\Users\CYMR90~1\AppData\Local\Temp\ccMBshSz.s:31706  .debug_str:000000000002b126 .LASF381
C:\Users\CYMR90~1\AppData\Local\Temp\ccMBshSz.s:27782  .debug_str:000000000001b919 .LASF382
C:\Users\CYMR90~1\AppData\Local\Temp\ccMBshSz.s:22619  .debug_str:0000000000006ccc .LASF383
C:\Users\CYMR90~1\AppData\Local\Temp\ccMBshSz.s:23961  .debug_str:000000000000c4e7 .LASF384
C:\Users\CYMR90~1\AppData\Local\Temp\ccMBshSz.s:27306  .debug_str:0000000000019aa0 .LASF385
C:\Users\CYMR90~1\AppData\Local\Temp\ccMBshSz.s:24949  .debug_str:0000000000010249 .LASF386
C:\Users\CYMR90~1\AppData\Local\Temp\ccMBshSz.s:21451  .debug_str:000000000000230c .LASF387
C:\Users\CYMR90~1\AppData\Local\Temp\ccMBshSz.s:24553  .debug_str:000000000000e9ef .LASF388
C:\Users\CYMR90~1\AppData\Local\Temp\ccMBshSz.s:23121  .debug_str:0000000000008eb3 .LASF389
C:\Users\CYMR90~1\AppData\Local\Temp\ccMBshSz.s:21939  .debug_str:000000000000426e .LASF391
C:\Users\CYMR90~1\AppData\Local\Temp\ccMBshSz.s:24957  .debug_str:00000000000102b5 .LASF392
C:\Users\CYMR90~1\AppData\Local\Temp\ccMBshSz.s:22115  .debug_str:0000000000004e43 .LASF393
C:\Users\CYMR90~1\AppData\Local\Temp\ccMBshSz.s:30812  .debug_str:0000000000027877 .LASF394
C:\Users\CYMR90~1\AppData\Local\Temp\ccMBshSz.s:21477  .debug_str:000000000000246a .LASF395
C:\Users\CYMR90~1\AppData\Local\Temp\ccMBshSz.s:23629  .debug_str:000000000000ae7b .LASF396
C:\Users\CYMR90~1\AppData\Local\Temp\ccMBshSz.s:27412  .debug_str:000000000001a0e8 .LASF397
C:\Users\CYMR90~1\AppData\Local\Temp\ccMBshSz.s:31580  .debug_str:000000000002a9c2 .LASF398
C:\Users\CYMR90~1\AppData\Local\Temp\ccMBshSz.s:26251  .debug_str:000000000001553d .LASF399
C:\Users\CYMR90~1\AppData\Local\Temp\ccMBshSz.s:28684  .debug_str:000000000001f2ea .LASF400
C:\Users\CYMR90~1\AppData\Local\Temp\ccMBshSz.s:23111  .debug_str:0000000000008dbe .LASF401
C:\Users\CYMR90~1\AppData\Local\Temp\ccMBshSz.s:26736  .debug_str:00000000000175df .LASF402
C:\Users\CYMR90~1\AppData\Local\Temp\ccMBshSz.s:22449  .debug_str:0000000000006259 .LASF403
C:\Users\CYMR90~1\AppData\Local\Temp\ccMBshSz.s:23565  .debug_str:000000000000aa92 .LASF404
C:\Users\CYMR90~1\AppData\Local\Temp\ccMBshSz.s:24613  .debug_str:000000000000ed70 .LASF405
C:\Users\CYMR90~1\AppData\Local\Temp\ccMBshSz.s:27976  .debug_str:000000000001c51c .LASF406
C:\Users\CYMR90~1\AppData\Local\Temp\ccMBshSz.s:26161  .debug_str:0000000000014fd6 .LASF407
C:\Users\CYMR90~1\AppData\Local\Temp\ccMBshSz.s:27148  .debug_str:0000000000018f6d .LASF408
C:\Users\CYMR90~1\AppData\Local\Temp\ccMBshSz.s:29356  .debug_str:0000000000021c02 .LASF409
C:\Users\CYMR90~1\AppData\Local\Temp\ccMBshSz.s:22403  .debug_str:0000000000005f74 .LASF410
C:\Users\CYMR90~1\AppData\Local\Temp\ccMBshSz.s:26363  .debug_str:0000000000015b9d .LASF411
C:\Users\CYMR90~1\AppData\Local\Temp\ccMBshSz.s:29478  .debug_str:0000000000022322 .LASF412
C:\Users\CYMR90~1\AppData\Local\Temp\ccMBshSz.s:22593  .debug_str:0000000000006b33 .LASF413
C:\Users\CYMR90~1\AppData\Local\Temp\ccMBshSz.s:31208  .debug_str:00000000000292a7 .LASF414
C:\Users\CYMR90~1\AppData\Local\Temp\ccMBshSz.s:24717  .debug_str:000000000000f390 .LASF415
C:\Users\CYMR90~1\AppData\Local\Temp\ccMBshSz.s:30542  .debug_str:0000000000026765 .LASF416
C:\Users\CYMR90~1\AppData\Local\Temp\ccMBshSz.s:32062  .debug_str:000000000002c820 .LASF417
C:\Users\CYMR90~1\AppData\Local\Temp\ccMBshSz.s:23039  .debug_str:000000000000895a .LASF418
C:\Users\CYMR90~1\AppData\Local\Temp\ccMBshSz.s:31428  .debug_str:000000000002a05b .LASF419
C:\Users\CYMR90~1\AppData\Local\Temp\ccMBshSz.s:22667  .debug_str:000000000000701c .LASF420
C:\Users\CYMR90~1\AppData\Local\Temp\ccMBshSz.s:31624  .debug_str:000000000002ac1f .LASF421
C:\Users\CYMR90~1\AppData\Local\Temp\ccMBshSz.s:23887  .debug_str:000000000000c062 .LASF422
C:\Users\CYMR90~1\AppData\Local\Temp\ccMBshSz.s:24085  .debug_str:000000000000cd2e .LASF423
C:\Users\CYMR90~1\AppData\Local\Temp\ccMBshSz.s:28580  .debug_str:000000000001ec93 .LASF424
C:\Users\CYMR90~1\AppData\Local\Temp\ccMBshSz.s:27184  .debug_str:0000000000019271 .LASF425
C:\Users\CYMR90~1\AppData\Local\Temp\ccMBshSz.s:20927  .debug_str:0000000000000327 .LASF426
C:\Users\CYMR90~1\AppData\Local\Temp\ccMBshSz.s:31120  .debug_str:0000000000028d56 .LASF427
C:\Users\CYMR90~1\AppData\Local\Temp\ccMBshSz.s:26445  .debug_str:0000000000016172 .LASF428
C:\Users\CYMR90~1\AppData\Local\Temp\ccMBshSz.s:28362  .debug_str:000000000001dfb6 .LASF429
C:\Users\CYMR90~1\AppData\Local\Temp\ccMBshSz.s:24897  .debug_str:000000000000ff1f .LASF430
C:\Users\CYMR90~1\AppData\Local\Temp\ccMBshSz.s:26636  .debug_str:0000000000016ffa .LASF431
C:\Users\CYMR90~1\AppData\Local\Temp\ccMBshSz.s:29432  .debug_str:0000000000022070 .LASF432
C:\Users\CYMR90~1\AppData\Local\Temp\ccMBshSz.s:24069  .debug_str:000000000000cc4e .LASF434
C:\Users\CYMR90~1\AppData\Local\Temp\ccMBshSz.s:22121  .debug_str:0000000000004e99 .LASF435
C:\Users\CYMR90~1\AppData\Local\Temp\ccMBshSz.s:26820  .debug_str:0000000000017b41 .LASF436
C:\Users\CYMR90~1\AppData\Local\Temp\ccMBshSz.s:22685  .debug_str:0000000000007145 .LASF437
C:\Users\CYMR90~1\AppData\Local\Temp\ccMBshSz.s:31136  .debug_str:0000000000028e0d .LASF438
C:\Users\CYMR90~1\AppData\Local\Temp\ccMBshSz.s:20889  .debug_str:00000000000000c7 .LASF439
C:\Users\CYMR90~1\AppData\Local\Temp\ccMBshSz.s:28620  .debug_str:000000000001eee8 .LASF440
C:\Users\CYMR90~1\AppData\Local\Temp\ccMBshSz.s:24309  .debug_str:000000000000daf1 .LASF441
C:\Users\CYMR90~1\AppData\Local\Temp\ccMBshSz.s:29662  .debug_str:0000000000022e45 .LASF442
C:\Users\CYMR90~1\AppData\Local\Temp\ccMBshSz.s:28554  .debug_str:000000000001eb37 .LASF443
C:\Users\CYMR90~1\AppData\Local\Temp\ccMBshSz.s:25029  .debug_str:000000000001070b .LASF444
C:\Users\CYMR90~1\AppData\Local\Temp\ccMBshSz.s:32056  .debug_str:000000000002c7d4 .LASF445
C:\Users\CYMR90~1\AppData\Local\Temp\ccMBshSz.s:31990  .debug_str:000000000002c36f .LASF446
C:\Users\CYMR90~1\AppData\Local\Temp\ccMBshSz.s:25377  .debug_str:0000000000011da5 .LASF447
C:\Users\CYMR90~1\AppData\Local\Temp\ccMBshSz.s:29638  .debug_str:0000000000022d00 .LASF448
C:\Users\CYMR90~1\AppData\Local\Temp\ccMBshSz.s:21949  .debug_str:0000000000004300 .LASF449
C:\Users\CYMR90~1\AppData\Local\Temp\ccMBshSz.s:22705  .debug_str:00000000000072ad .LASF450
C:\Users\CYMR90~1\AppData\Local\Temp\ccMBshSz.s:23313  .debug_str:0000000000009a49 .LASF451
C:\Users\CYMR90~1\AppData\Local\Temp\ccMBshSz.s:26071  .debug_str:00000000000149cd .LASF452
C:\Users\CYMR90~1\AppData\Local\Temp\ccMBshSz.s:21395  .debug_str:0000000000002033 .LASF453
C:\Users\CYMR90~1\AppData\Local\Temp\ccMBshSz.s:31996  .debug_str:000000000002c3a8 .LASF454
C:\Users\CYMR90~1\AppData\Local\Temp\ccMBshSz.s:24477  .debug_str:000000000000e4f1 .LASF455
C:\Users\CYMR90~1\AppData\Local\Temp\ccMBshSz.s:29252  .debug_str:00000000000215a3 .LASF456
C:\Users\CYMR90~1\AppData\Local\Temp\ccMBshSz.s:24163  .debug_str:000000000000d1f1 .LASF457
C:\Users\CYMR90~1\AppData\Local\Temp\ccMBshSz.s:22461  .debug_str:0000000000006306 .LASF458
C:\Users\CYMR90~1\AppData\Local\Temp\ccMBshSz.s:27036  .debug_str:000000000001880e .LASF459
C:\Users\CYMR90~1\AppData\Local\Temp\ccMBshSz.s:29006  .debug_str:00000000000206d8 .LASF460
C:\Users\CYMR90~1\AppData\Local\Temp\ccMBshSz.s:30152  .debug_str:0000000000024d28 .LASF461
C:\Users\CYMR90~1\AppData\Local\Temp\ccMBshSz.s:26601  .debug_str:0000000000016c10 .LASF462
C:\Users\CYMR90~1\AppData\Local\Temp\ccMBshSz.s:27462  .debug_str:000000000001a560 .LASF463
C:\Users\CYMR90~1\AppData\Local\Temp\ccMBshSz.s:24325  .debug_str:000000000000dbbd .LASF464
C:\Users\CYMR90~1\AppData\Local\Temp\ccMBshSz.s:25467  .debug_str:000000000001237d .LASF465
C:\Users\CYMR90~1\AppData\Local\Temp\ccMBshSz.s:22613  .debug_str:0000000000006c86 .LASF466
C:\Users\CYMR90~1\AppData\Local\Temp\ccMBshSz.s:23171  .debug_str:0000000000009174 .LASF467
C:\Users\CYMR90~1\AppData\Local\Temp\ccMBshSz.s:31228  .debug_str:00000000000293dd .LASF468
C:\Users\CYMR90~1\AppData\Local\Temp\ccMBshSz.s:21747  .debug_str:00000000000035d4 .LASF469
C:\Users\CYMR90~1\AppData\Local\Temp\ccMBshSz.s:24993  .debug_str:00000000000104d5 .LASF470
C:\Users\CYMR90~1\AppData\Local\Temp\ccMBshSz.s:24871  .debug_str:000000000000fd54 .LASF471
C:\Users\CYMR90~1\AppData\Local\Temp\ccMBshSz.s:24451  .debug_str:000000000000e365 .LASF472
C:\Users\CYMR90~1\AppData\Local\Temp\ccMBshSz.s:21107  .debug_str:0000000000000e0c .LASF473
C:\Users\CYMR90~1\AppData\Local\Temp\ccMBshSz.s:22729  .debug_str:000000000000745e .LASF474
C:\Users\CYMR90~1\AppData\Local\Temp\ccMBshSz.s:21055  .debug_str:0000000000000ad8 .LASF475
C:\Users\CYMR90~1\AppData\Local\Temp\ccMBshSz.s:21917  .debug_str:0000000000004084 .LASF476
C:\Users\CYMR90~1\AppData\Local\Temp\ccMBshSz.s:21275  .debug_str:00000000000018e2 .LASF477
C:\Users\CYMR90~1\AppData\Local\Temp\ccMBshSz.s:26389  .debug_str:0000000000015d96 .LASF478
C:\Users\CYMR90~1\AppData\Local\Temp\ccMBshSz.s:23771  .debug_str:000000000000b88b .LASF479
C:\Users\CYMR90~1\AppData\Local\Temp\ccMBshSz.s:31620  .debug_str:000000000002abef .LASF480
C:\Users\CYMR90~1\AppData\Local\Temp\ccMBshSz.s:26974  .debug_str:0000000000018435 .LASF481
C:\Users\CYMR90~1\AppData\Local\Temp\ccMBshSz.s:23695  .debug_str:000000000000b34a .LASF482
C:\Users\CYMR90~1\AppData\Local\Temp\ccMBshSz.s:22505  .debug_str:00000000000065b7 .LASF483
C:\Users\CYMR90~1\AppData\Local\Temp\ccMBshSz.s:21021  .debug_str:0000000000000896 .LASF484
C:\Users\CYMR90~1\AppData\Local\Temp\ccMBshSz.s:26920  .debug_str:0000000000018101 .LASF485
C:\Users\CYMR90~1\AppData\Local\Temp\ccMBshSz.s:22133  .debug_str:0000000000004f5e .LASF486
C:\Users\CYMR90~1\AppData\Local\Temp\ccMBshSz.s:27144  .debug_str:0000000000018f3f .LASF487
C:\Users\CYMR90~1\AppData\Local\Temp\ccMBshSz.s:25017  .debug_str:0000000000010667 .LASF488
C:\Users\CYMR90~1\AppData\Local\Temp\ccMBshSz.s:25587  .debug_str:0000000000012b55 .LASF489
C:\Users\CYMR90~1\AppData\Local\Temp\ccMBshSz.s:24045  .debug_str:000000000000cada .LASF490
C:\Users\CYMR90~1\AppData\Local\Temp\ccMBshSz.s:23037  .debug_str:000000000000894c .LASF491
C:\Users\CYMR90~1\AppData\Local\Temp\ccMBshSz.s:24673  .debug_str:000000000000f0f8 .LASF492
C:\Users\CYMR90~1\AppData\Local\Temp\ccMBshSz.s:24983  .debug_str:0000000000010459 .LASF493
C:\Users\CYMR90~1\AppData\Local\Temp\ccMBshSz.s:24877  .debug_str:000000000000fdc8 .LASF494
C:\Users\CYMR90~1\AppData\Local\Temp\ccMBshSz.s:27174  .debug_str:00000000000191ee .LASF495
C:\Users\CYMR90~1\AppData\Local\Temp\ccMBshSz.s:32078  .debug_str:000000000002c914 .LASF496
C:\Users\CYMR90~1\AppData\Local\Temp\ccMBshSz.s:32016  .debug_str:000000000002c52c .LASF497
C:\Users\CYMR90~1\AppData\Local\Temp\ccMBshSz.s:24721  .debug_str:000000000000f3d7 .LASF498
C:\Users\CYMR90~1\AppData\Local\Temp\ccMBshSz.s:31236  .debug_str:000000000002942c .LASF499
C:\Users\CYMR90~1\AppData\Local\Temp\ccMBshSz.s:31340  .debug_str:0000000000029b12 .LASF500
C:\Users\CYMR90~1\AppData\Local\Temp\ccMBshSz.s:26035  .debug_str:0000000000014783 .LASF501
C:\Users\CYMR90~1\AppData\Local\Temp\ccMBshSz.s:31294  .debug_str:0000000000029858 .LASF502
C:\Users\CYMR90~1\AppData\Local\Temp\ccMBshSz.s:25987  .debug_str:000000000001444c .LASF503
C:\Users\CYMR90~1\AppData\Local\Temp\ccMBshSz.s:21609  .debug_str:0000000000002cfb .LASF504
C:\Users\CYMR90~1\AppData\Local\Temp\ccMBshSz.s:29922  .debug_str:0000000000023d9c .LASF505
C:\Users\CYMR90~1\AppData\Local\Temp\ccMBshSz.s:30808  .debug_str:000000000002783c .LASF506
C:\Users\CYMR90~1\AppData\Local\Temp\ccMBshSz.s:30372  .debug_str:0000000000025cfc .LASF507
C:\Users\CYMR90~1\AppData\Local\Temp\ccMBshSz.s:27092  .debug_str:0000000000018b70 .LASF508
C:\Users\CYMR90~1\AppData\Local\Temp\ccMBshSz.s:29342  .debug_str:0000000000021aef .LASF509
C:\Users\CYMR90~1\AppData\Local\Temp\ccMBshSz.s:31032  .debug_str:00000000000287a1 .LASF510
C:\Users\CYMR90~1\AppData\Local\Temp\ccMBshSz.s:26501  .debug_str:0000000000016496 .LASF511
C:\Users\CYMR90~1\AppData\Local\Temp\ccMBshSz.s:30654  .debug_str:0000000000026df9 .LASF512
C:\Users\CYMR90~1\AppData\Local\Temp\ccMBshSz.s:30780  .debug_str:00000000000276a8 .LASF513
C:\Users\CYMR90~1\AppData\Local\Temp\ccMBshSz.s:31216  .debug_str:0000000000029313 .LASF514
C:\Users\CYMR90~1\AppData\Local\Temp\ccMBshSz.s:25753  .debug_str:0000000000013664 .LASF515
C:\Users\CYMR90~1\AppData\Local\Temp\ccMBshSz.s:31090  .debug_str:0000000000028b8f .LASF516
C:\Users\CYMR90~1\AppData\Local\Temp\ccMBshSz.s:27244  .debug_str:00000000000195fa .LASF517
C:\Users\CYMR90~1\AppData\Local\Temp\ccMBshSz.s:31040  .debug_str:0000000000028855 .LASF518
C:\Users\CYMR90~1\AppData\Local\Temp\ccMBshSz.s:27898  .debug_str:000000000001c086 .LASF519
C:\Users\CYMR90~1\AppData\Local\Temp\ccMBshSz.s:31984  .debug_str:000000000002c30d .LASF520
C:\Users\CYMR90~1\AppData\Local\Temp\ccMBshSz.s:28168  .debug_str:000000000001d32e .LASF521
C:\Users\CYMR90~1\AppData\Local\Temp\ccMBshSz.s:30280  .debug_str:000000000002563e .LASF522
C:\Users\CYMR90~1\AppData\Local\Temp\ccMBshSz.s:25629  .debug_str:0000000000012e10 .LASF523
C:\Users\CYMR90~1\AppData\Local\Temp\ccMBshSz.s:29830  .debug_str:0000000000023845 .LASF524
C:\Users\CYMR90~1\AppData\Local\Temp\ccMBshSz.s:23251  .debug_str:0000000000009608 .LASF525
C:\Users\CYMR90~1\AppData\Local\Temp\ccMBshSz.s:32006  .debug_str:000000000002c421 .LASF526
C:\Users\CYMR90~1\AppData\Local\Temp\ccMBshSz.s:24485  .debug_str:000000000000e56f .LASF527
C:\Users\CYMR90~1\AppData\Local\Temp\ccMBshSz.s:25491  .debug_str:00000000000124f8 .LASF528
C:\Users\CYMR90~1\AppData\Local\Temp\ccMBshSz.s:26369  .debug_str:0000000000015bfa .LASF529
C:\Users\CYMR90~1\AppData\Local\Temp\ccMBshSz.s:26401  .debug_str:0000000000015e43 .LASF530
C:\Users\CYMR90~1\AppData\Local\Temp\ccMBshSz.s:25417  .debug_str:0000000000012064 .LASF531
C:\Users\CYMR90~1\AppData\Local\Temp\ccMBshSz.s:21673  .debug_str:00000000000030a8 .LASF532
C:\Users\CYMR90~1\AppData\Local\Temp\ccMBshSz.s:24171  .debug_str:000000000000d24d .LASF533
C:\Users\CYMR90~1\AppData\Local\Temp\ccMBshSz.s:31844  .debug_str:000000000002b9d9 .LASF534
C:\Users\CYMR90~1\AppData\Local\Temp\ccMBshSz.s:24671  .debug_str:000000000000f0ac .LASF535
C:\Users\CYMR90~1\AppData\Local\Temp\ccMBshSz.s:30014  .debug_str:000000000002441a .LASF536
C:\Users\CYMR90~1\AppData\Local\Temp\ccMBshSz.s:31494  .debug_str:000000000002a41e .LASF537
C:\Users\CYMR90~1\AppData\Local\Temp\ccMBshSz.s:25247  .debug_str:000000000001147a .LASF538
C:\Users\CYMR90~1\AppData\Local\Temp\ccMBshSz.s:30194  .debug_str:0000000000024fdf .LASF539
C:\Users\CYMR90~1\AppData\Local\Temp\ccMBshSz.s:27956  .debug_str:000000000001c40a .LASF540
C:\Users\CYMR90~1\AppData\Local\Temp\ccMBshSz.s:30306  .debug_str:000000000002585e .LASF541
C:\Users\CYMR90~1\AppData\Local\Temp\ccMBshSz.s:28256  .debug_str:000000000001d8a6 .LASF542
C:\Users\CYMR90~1\AppData\Local\Temp\ccMBshSz.s:22021  .debug_str:00000000000047b6 .LASF543
C:\Users\CYMR90~1\AppData\Local\Temp\ccMBshSz.s:24415  .debug_str:000000000000e130 .LASF544
C:\Users\CYMR90~1\AppData\Local\Temp\ccMBshSz.s:31280  .debug_str:0000000000029774 .LASF545
C:\Users\CYMR90~1\AppData\Local\Temp\ccMBshSz.s:25765  .debug_str:0000000000013709 .LASF546
C:\Users\CYMR90~1\AppData\Local\Temp\ccMBshSz.s:29532  .debug_str:000000000002261a .LASF547
C:\Users\CYMR90~1\AppData\Local\Temp\ccMBshSz.s:31760  .debug_str:000000000002b4a3 .LASF548
C:\Users\CYMR90~1\AppData\Local\Temp\ccMBshSz.s:21721  .debug_str:0000000000003412 .LASF549
C:\Users\CYMR90~1\AppData\Local\Temp\ccMBshSz.s:22869  .debug_str:0000000000007d36 .LASF550
C:\Users\CYMR90~1\AppData\Local\Temp\ccMBshSz.s:30548  .debug_str:00000000000267ab .LASF551
C:\Users\CYMR90~1\AppData\Local\Temp\ccMBshSz.s:22429  .debug_str:000000000000610f .LASF552
C:\Users\CYMR90~1\AppData\Local\Temp\ccMBshSz.s:23899  .debug_str:000000000000c124 .LASF553
C:\Users\CYMR90~1\AppData\Local\Temp\ccMBshSz.s:23839  .debug_str:000000000000bcac .LASF554
C:\Users\CYMR90~1\AppData\Local\Temp\ccMBshSz.s:24023  .debug_str:000000000000c931 .LASF555
C:\Users\CYMR90~1\AppData\Local\Temp\ccMBshSz.s:22555  .debug_str:00000000000068cb .LASF556
C:\Users\CYMR90~1\AppData\Local\Temp\ccMBshSz.s:22265  .debug_str:0000000000005717 .LASF557
C:\Users\CYMR90~1\AppData\Local\Temp\ccMBshSz.s:25363  .debug_str:0000000000011cca .LASF558
C:\Users\CYMR90~1\AppData\Local\Temp\ccMBshSz.s:27120  .debug_str:0000000000018dc8 .LASF559
C:\Users\CYMR90~1\AppData\Local\Temp\ccMBshSz.s:31080  .debug_str:0000000000028ade .LASF560
C:\Users\CYMR90~1\AppData\Local\Temp\ccMBshSz.s:21387  .debug_str:0000000000001f99 .LASF561
C:\Users\CYMR90~1\AppData\Local\Temp\ccMBshSz.s:24829  .debug_str:000000000000faa9 .LASF562
C:\Users\CYMR90~1\AppData\Local\Temp\ccMBshSz.s:24219  .debug_str:000000000000d5df .LASF563
C:\Users\CYMR90~1\AppData\Local\Temp\ccMBshSz.s:23549  .debug_str:000000000000a8a9 .LASF564
C:\Users\CYMR90~1\AppData\Local\Temp\ccMBshSz.s:29280  .debug_str:000000000002173b .LASF565
C:\Users\CYMR90~1\AppData\Local\Temp\ccMBshSz.s:28498  .debug_str:000000000001e7b7 .LASF566
C:\Users\CYMR90~1\AppData\Local\Temp\ccMBshSz.s:25359  .debug_str:0000000000011c82 .LASF567
C:\Users\CYMR90~1\AppData\Local\Temp\ccMBshSz.s:22431  .debug_str:0000000000006123 .LASF568
C:\Users\CYMR90~1\AppData\Local\Temp\ccMBshSz.s:21081  .debug_str:0000000000000c9e .LASF570
C:\Users\CYMR90~1\AppData\Local\Temp\ccMBshSz.s:26752  .debug_str:00000000000176d0 .LASF571
C:\Users\CYMR90~1\AppData\Local\Temp\ccMBshSz.s:27894  .debug_str:000000000001c060 .LASF574
C:\Users\CYMR90~1\AppData\Local\Temp\ccMBshSz.s:21991  .debug_str:00000000000045ba .LASF575
C:\Users\CYMR90~1\AppData\Local\Temp\ccMBshSz.s:25993  .debug_str:00000000000144d6 .LASF576
C:\Users\CYMR90~1\AppData\Local\Temp\ccMBshSz.s:22965  .debug_str:00000000000084d2 .LASF577
C:\Users\CYMR90~1\AppData\Local\Temp\ccMBshSz.s:29178  .debug_str:00000000000210c9 .LASF579
C:\Users\CYMR90~1\AppData\Local\Temp\ccMBshSz.s:28372  .debug_str:000000000001e04b .LASF580
C:\Users\CYMR90~1\AppData\Local\Temp\ccMBshSz.s:29920  .debug_str:0000000000023d93 .LASF581
C:\Users\CYMR90~1\AppData\Local\Temp\ccMBshSz.s:22387  .debug_str:0000000000005e7e .LASF582
C:\Users\CYMR90~1\AppData\Local\Temp\ccMBshSz.s:24977  .debug_str:00000000000103ef .LASF583
C:\Users\CYMR90~1\AppData\Local\Temp\ccMBshSz.s:21561  .debug_str:0000000000002a1d .LASF584
C:\Users\CYMR90~1\AppData\Local\Temp\ccMBshSz.s:31374  .debug_str:0000000000029d33 .LASF585
C:\Users\CYMR90~1\AppData\Local\Temp\ccMBshSz.s:29578  .debug_str:0000000000022912 .LASF586
C:\Users\CYMR90~1\AppData\Local\Temp\ccMBshSz.s:27770  .debug_str:000000000001b8a6 .LASF587
C:\Users\CYMR90~1\AppData\Local\Temp\ccMBshSz.s:23547  .debug_str:000000000000a899 .LASF588
C:\Users\CYMR90~1\AppData\Local\Temp\ccMBshSz.s:27030  .debug_str:00000000000187ab .LASF589
C:\Users\CYMR90~1\AppData\Local\Temp\ccMBshSz.s:27408  .debug_str:000000000001a091 .LASF590
C:\Users\CYMR90~1\AppData\Local\Temp\ccMBshSz.s:28248  .debug_str:000000000001d83a .LASF591
C:\Users\CYMR90~1\AppData\Local\Temp\ccMBshSz.s:30682  .debug_str:0000000000026ff3 .LASF592
C:\Users\CYMR90~1\AppData\Local\Temp\ccMBshSz.s:29906  .debug_str:0000000000023cc9 .LASF593
C:\Users\CYMR90~1\AppData\Local\Temp\ccMBshSz.s:24939  .debug_str:00000000000101af .LASF594
C:\Users\CYMR90~1\AppData\Local\Temp\ccMBshSz.s:25827  .debug_str:0000000000013ac0 .LASF595
C:\Users\CYMR90~1\AppData\Local\Temp\ccMBshSz.s:25547  .debug_str:00000000000128ac .LASF596
C:\Users\CYMR90~1\AppData\Local\Temp\ccMBshSz.s:22731  .debug_str:000000000000747d .LASF597
C:\Users\CYMR90~1\AppData\Local\Temp\ccMBshSz.s:30900  .debug_str:0000000000027e43 .LASF598
C:\Users\CYMR90~1\AppData\Local\Temp\ccMBshSz.s:25709  .debug_str:0000000000013396 .LASF599
C:\Users\CYMR90~1\AppData\Local\Temp\ccMBshSz.s:28704  .debug_str:000000000001f41b .LASF600
C:\Users\CYMR90~1\AppData\Local\Temp\ccMBshSz.s:27964  .debug_str:000000000001c476 .LASF601
C:\Users\CYMR90~1\AppData\Local\Temp\ccMBshSz.s:30380  .debug_str:0000000000025d7b .LASF602
C:\Users\CYMR90~1\AppData\Local\Temp\ccMBshSz.s:31096  .debug_str:0000000000028bf1 .LASF603
C:\Users\CYMR90~1\AppData\Local\Temp\ccMBshSz.s:30990  .debug_str:00000000000284d9 .LASF604
C:\Users\CYMR90~1\AppData\Local\Temp\ccMBshSz.s:25657  .debug_str:0000000000012fe5 .LASF605
C:\Users\CYMR90~1\AppData\Local\Temp\ccMBshSz.s:29716  .debug_str:0000000000023126 .LASF606
C:\Users\CYMR90~1\AppData\Local\Temp\ccMBshSz.s:23323  .debug_str:0000000000009b03 .LASF607
C:\Users\CYMR90~1\AppData\Local\Temp\ccMBshSz.s:22827  .debug_str:0000000000007a69 .LASF608
C:\Users\CYMR90~1\AppData\Local\Temp\ccMBshSz.s:23607  .debug_str:000000000000ad36 .LASF609
C:\Users\CYMR90~1\AppData\Local\Temp\ccMBshSz.s:27808  .debug_str:000000000001ba7e .LASF610
C:\Users\CYMR90~1\AppData\Local\Temp\ccMBshSz.s:22355  .debug_str:0000000000005cc5 .LASF611
C:\Users\CYMR90~1\AppData\Local\Temp\ccMBshSz.s:29502  .debug_str:000000000002246b .LASF612
C:\Users\CYMR90~1\AppData\Local\Temp\ccMBshSz.s:26227  .debug_str:00000000000153c3 .LASF613
C:\Users\CYMR90~1\AppData\Local\Temp\ccMBshSz.s:22889  .debug_str:0000000000007f30 .LASF614
C:\Users\CYMR90~1\AppData\Local\Temp\ccMBshSz.s:20979  .debug_str:000000000000060f .LASF615
C:\Users\CYMR90~1\AppData\Local\Temp\ccMBshSz.s:26473  .debug_str:00000000000162f7 .LASF616
C:\Users\CYMR90~1\AppData\Local\Temp\ccMBshSz.s:27444  .debug_str:000000000001a2c0 .LASF617
C:\Users\CYMR90~1\AppData\Local\Temp\ccMBshSz.s:26603  .debug_str:0000000000016c1f .LASF618
C:\Users\CYMR90~1\AppData\Local\Temp\ccMBshSz.s:29586  .debug_str:0000000000022977 .LASF619
C:\Users\CYMR90~1\AppData\Local\Temp\ccMBshSz.s:23855  .debug_str:000000000000be44 .LASF620
C:\Users\CYMR90~1\AppData\Local\Temp\ccMBshSz.s:22641  .debug_str:0000000000006e68 .LASF621
C:\Users\CYMR90~1\AppData\Local\Temp\ccMBshSz.s:29774  .debug_str:000000000002347c .LASF622
C:\Users\CYMR90~1\AppData\Local\Temp\ccMBshSz.s:28882  .debug_str:000000000001fef3 .LASF623
C:\Users\CYMR90~1\AppData\Local\Temp\ccMBshSz.s:30860  .debug_str:0000000000027b39 .LASF624
C:\Users\CYMR90~1\AppData\Local\Temp\ccMBshSz.s:31468  .debug_str:000000000002a2bc .LASF625
C:\Users\CYMR90~1\AppData\Local\Temp\ccMBshSz.s:25897  .debug_str:0000000000013eb6 .LASF626
C:\Users\CYMR90~1\AppData\Local\Temp\ccMBshSz.s:31726  .debug_str:000000000002b229 .LASF627
C:\Users\CYMR90~1\AppData\Local\Temp\ccMBshSz.s:26323  .debug_str:000000000001592e .LASF628
C:\Users\CYMR90~1\AppData\Local\Temp\ccMBshSz.s:29530  .debug_str:00000000000225e2 .LASF629
C:\Users\CYMR90~1\AppData\Local\Temp\ccMBshSz.s:23045  .debug_str:00000000000089d1 .LASF630
C:\Users\CYMR90~1\AppData\Local\Temp\ccMBshSz.s:28024  .debug_str:000000000001c8ed .LASF631
C:\Users\CYMR90~1\AppData\Local\Temp\ccMBshSz.s:29492  .debug_str:00000000000223cb .LASF632
C:\Users\CYMR90~1\AppData\Local\Temp\ccMBshSz.s:23967  .debug_str:000000000000c548 .LASF633
C:\Users\CYMR90~1\AppData\Local\Temp\ccMBshSz.s:21071  .debug_str:0000000000000c0b .LASF634
C:\Users\CYMR90~1\AppData\Local\Temp\ccMBshSz.s:27354  .debug_str:0000000000019d96 .LASF635
C:\Users\CYMR90~1\AppData\Local\Temp\ccMBshSz.s:26527  .debug_str:000000000001669e .LASF636
C:\Users\CYMR90~1\AppData\Local\Temp\ccMBshSz.s:28136  .debug_str:000000000001d138 .LASF637
C:\Users\CYMR90~1\AppData\Local\Temp\ccMBshSz.s:21785  .debug_str:0000000000003805 .LASF638
C:\Users\CYMR90~1\AppData\Local\Temp\ccMBshSz.s:25311  .debug_str:00000000000119b7 .LASF639
C:\Users\CYMR90~1\AppData\Local\Temp\ccMBshSz.s:22901  .debug_str:0000000000007fdf .LASF640
C:\Users\CYMR90~1\AppData\Local\Temp\ccMBshSz.s:25529  .debug_str:0000000000012770 .LASF641
C:\Users\CYMR90~1\AppData\Local\Temp\ccMBshSz.s:23761  .debug_str:000000000000b7a1 .LASF642
C:\Users\CYMR90~1\AppData\Local\Temp\ccMBshSz.s:30844  .debug_str:0000000000027a29 .LASF643
C:\Users\CYMR90~1\AppData\Local\Temp\ccMBshSz.s:24123  .debug_str:000000000000cf49 .LASF644
C:\Users\CYMR90~1\AppData\Local\Temp\ccMBshSz.s:21961  .debug_str:000000000000439d .LASF645
C:\Users\CYMR90~1\AppData\Local\Temp\ccMBshSz.s:22789  .debug_str:00000000000077d8 .LASF646
C:\Users\CYMR90~1\AppData\Local\Temp\ccMBshSz.s:21713  .debug_str:0000000000003378 .LASF647
C:\Users\CYMR90~1\AppData\Local\Temp\ccMBshSz.s:22077  .debug_str:0000000000004bb0 .LASF648
C:\Users\CYMR90~1\AppData\Local\Temp\ccMBshSz.s:31372  .debug_str:0000000000029cf4 .LASF649
C:\Users\CYMR90~1\AppData\Local\Temp\ccMBshSz.s:25229  .debug_str:0000000000011324 .LASF650
C:\Users\CYMR90~1\AppData\Local\Temp\ccMBshSz.s:31484  .debug_str:000000000002a396 .LASF651
C:\Users\CYMR90~1\AppData\Local\Temp\ccMBshSz.s:24835  .debug_str:000000000000fb24 .LASF652
C:\Users\CYMR90~1\AppData\Local\Temp\ccMBshSz.s:20959  .debug_str:00000000000004fe .LASF653
C:\Users\CYMR90~1\AppData\Local\Temp\ccMBshSz.s:31710  .debug_str:000000000002b151 .LASF654
C:\Users\CYMR90~1\AppData\Local\Temp\ccMBshSz.s:23141  .debug_str:0000000000008fdb .LASF655
C:\Users\CYMR90~1\AppData\Local\Temp\ccMBshSz.s:30916  .debug_str:0000000000027f3c .LASF656
C:\Users\CYMR90~1\AppData\Local\Temp\ccMBshSz.s:21015  .debug_str:000000000000084c .LASF657
C:\Users\CYMR90~1\AppData\Local\Temp\ccMBshSz.s:31534  .debug_str:000000000002a6ae .LASF658
C:\Users\CYMR90~1\AppData\Local\Temp\ccMBshSz.s:25623  .debug_str:0000000000012dc2 .LASF659
C:\Users\CYMR90~1\AppData\Local\Temp\ccMBshSz.s:28070  .debug_str:000000000001cbc2 .LASF660
C:\Users\CYMR90~1\AppData\Local\Temp\ccMBshSz.s:24519  .debug_str:000000000000e7cc .LASF661
C:\Users\CYMR90~1\AppData\Local\Temp\ccMBshSz.s:28730  .debug_str:000000000001f5bb .LASF662
C:\Users\CYMR90~1\AppData\Local\Temp\ccMBshSz.s:30696  .debug_str:00000000000270ce .LASF663
C:\Users\CYMR90~1\AppData\Local\Temp\ccMBshSz.s:25207  .debug_str:00000000000111e5 .LASF664
C:\Users\CYMR90~1\AppData\Local\Temp\ccMBshSz.s:25199  .debug_str:0000000000011174 .LASF665
C:\Users\CYMR90~1\AppData\Local\Temp\ccMBshSz.s:27130  .debug_str:0000000000018e9a .LASF666
C:\Users\CYMR90~1\AppData\Local\Temp\ccMBshSz.s:22367  .debug_str:0000000000005d5d .LASF667
C:\Users\CYMR90~1\AppData\Local\Temp\ccMBshSz.s:32210  .debug_str:000000000002d1de .LASF668
C:\Users\CYMR90~1\AppData\Local\Temp\ccMBshSz.s:22753  .debug_str:00000000000075b4 .LASF669
C:\Users\CYMR90~1\AppData\Local\Temp\ccMBshSz.s:29378  .debug_str:0000000000021d4a .LASF670
C:\Users\CYMR90~1\AppData\Local\Temp\ccMBshSz.s:25607  .debug_str:0000000000012cb3 .LASF671
C:\Users\CYMR90~1\AppData\Local\Temp\ccMBshSz.s:28782  .debug_str:000000000001f897 .LASF672
C:\Users\CYMR90~1\AppData\Local\Temp\ccMBshSz.s:29506  .debug_str:000000000002249c .LASF673
C:\Users\CYMR90~1\AppData\Local\Temp\ccMBshSz.s:21343  .debug_str:0000000000001d08 .LASF674
C:\Users\CYMR90~1\AppData\Local\Temp\ccMBshSz.s:26309  .debug_str:000000000001585c .LASF676
C:\Users\CYMR90~1\AppData\Local\Temp\ccMBshSz.s:29938  .debug_str:0000000000023eab .LASF677
C:\Users\CYMR90~1\AppData\Local\Temp\ccMBshSz.s:27366  .debug_str:0000000000019e46 .LASF678
C:\Users\CYMR90~1\AppData\Local\Temp\ccMBshSz.s:30034  .debug_str:0000000000024585 .LASF679
C:\Users\CYMR90~1\AppData\Local\Temp\ccMBshSz.s:28494  .debug_str:000000000001e78b .LASF680
C:\Users\CYMR90~1\AppData\Local\Temp\ccMBshSz.s:31386  .debug_str:0000000000029df1 .LASF681
C:\Users\CYMR90~1\AppData\Local\Temp\ccMBshSz.s:21963  .debug_str:00000000000043db .LASF682
C:\Users\CYMR90~1\AppData\Local\Temp\ccMBshSz.s:21885  .debug_str:0000000000003e76 .LASF683
C:\Users\CYMR90~1\AppData\Local\Temp\ccMBshSz.s:23279  .debug_str:00000000000097ee .LASF684
C:\Users\CYMR90~1\AppData\Local\Temp\ccMBshSz.s:27816  .debug_str:000000000001bae4 .LASF685
C:\Users\CYMR90~1\AppData\Local\Temp\ccMBshSz.s:29236  .debug_str:00000000000214af .LASF686
C:\Users\CYMR90~1\AppData\Local\Temp\ccMBshSz.s:26583  .debug_str:0000000000016a76 .LASF687
C:\Users\CYMR90~1\AppData\Local\Temp\ccMBshSz.s:25129  .debug_str:0000000000010d64 .LASF688
C:\Users\CYMR90~1\AppData\Local\Temp\ccMBshSz.s:21767  .debug_str:00000000000036de .LASF689
C:\Users\CYMR90~1\AppData\Local\Temp\ccMBshSz.s:22649  .debug_str:0000000000006f07 .LASF690
C:\Users\CYMR90~1\AppData\Local\Temp\ccMBshSz.s:25475  .debug_str:00000000000123f1 .LASF691
C:\Users\CYMR90~1\AppData\Local\Temp\ccMBshSz.s:26349  .debug_str:0000000000015abd .LASF692
C:\Users\CYMR90~1\AppData\Local\Temp\ccMBshSz.s:22335  .debug_str:0000000000005ba5 .LASF695
C:\Users\CYMR90~1\AppData\Local\Temp\ccMBshSz.s:26750  .debug_str:00000000000176b9 .LASF696
C:\Users\CYMR90~1\AppData\Local\Temp\ccMBshSz.s:24153  .debug_str:000000000000d137 .LASF697
C:\Users\CYMR90~1\AppData\Local\Temp\ccMBshSz.s:27780  .debug_str:000000000001b907 .LASF698
C:\Users\CYMR90~1\AppData\Local\Temp\ccMBshSz.s:29974  .debug_str:000000000002408e .LASF699
C:\Users\CYMR90~1\AppData\Local\Temp\ccMBshSz.s:26067  .debug_str:000000000001494a .LASF702
C:\Users\CYMR90~1\AppData\Local\Temp\ccMBshSz.s:23303  .debug_str:0000000000009961 .LASF703
C:\Users\CYMR90~1\AppData\Local\Temp\ccMBshSz.s:28674  .debug_str:000000000001f25a .LASF704
C:\Users\CYMR90~1\AppData\Local\Temp\ccMBshSz.s:22157  .debug_str:00000000000050ba .LASF705
C:\Users\CYMR90~1\AppData\Local\Temp\ccMBshSz.s:26413  .debug_str:0000000000015f24 .LASF706
C:\Users\CYMR90~1\AppData\Local\Temp\ccMBshSz.s:24719  .debug_str:000000000000f3b1 .LASF707
C:\Users\CYMR90~1\AppData\Local\Temp\ccMBshSz.s:31110  .debug_str:0000000000028ccd .LASF708
C:\Users\CYMR90~1\AppData\Local\Temp\ccMBshSz.s:30348  .debug_str:0000000000025b74 .LASF709
C:\Users\CYMR90~1\AppData\Local\Temp\ccMBshSz.s:24359  .debug_str:000000000000de1e .LASF710
C:\Users\CYMR90~1\AppData\Local\Temp\ccMBshSz.s:24875  .debug_str:000000000000fd95 .LASF711
C:\Users\CYMR90~1\AppData\Local\Temp\ccMBshSz.s:26557  .debug_str:000000000001686a .LASF712
C:\Users\CYMR90~1\AppData\Local\Temp\ccMBshSz.s:23543  .debug_str:000000000000a83f .LASF713
C:\Users\CYMR90~1\AppData\Local\Temp\ccMBshSz.s:31928  .debug_str:000000000002bf4c .LASF714
C:\Users\CYMR90~1\AppData\Local\Temp\ccMBshSz.s:22885  .debug_str:0000000000007ecb .LASF715
C:\Users\CYMR90~1\AppData\Local\Temp\ccMBshSz.s:23799  .debug_str:000000000000ba0b .LASF716
C:\Users\CYMR90~1\AppData\Local\Temp\ccMBshSz.s:28896  .debug_str:000000000001fff5 .LASF717
C:\Users\CYMR90~1\AppData\Local\Temp\ccMBshSz.s:31492  .debug_str:000000000002a412 .LASF718
C:\Users\CYMR90~1\AppData\Local\Temp\ccMBshSz.s:30078  .debug_str:000000000002481d .LASF719
C:\Users\CYMR90~1\AppData\Local\Temp\ccMBshSz.s:27064  .debug_str:00000000000189c4 .LASF720
C:\Users\CYMR90~1\AppData\Local\Temp\ccMBshSz.s:21399  .debug_str:0000000000002068 .LASF721
C:\Users\CYMR90~1\AppData\Local\Temp\ccMBshSz.s:29010  .debug_str:000000000002070c .LASF722
C:\Users\CYMR90~1\AppData\Local\Temp\ccMBshSz.s:27978  .debug_str:000000000001c52c .LASF723
C:\Users\CYMR90~1\AppData\Local\Temp\ccMBshSz.s:28544  .debug_str:000000000001eac4 .LASF724
C:\Users\CYMR90~1\AppData\Local\Temp\ccMBshSz.s:29484  .debug_str:0000000000022379 .LASF725
C:\Users\CYMR90~1\AppData\Local\Temp\ccMBshSz.s:25725  .debug_str:00000000000134a2 .LASF726
C:\Users\CYMR90~1\AppData\Local\Temp\ccMBshSz.s:23537  .debug_str:000000000000a7e5 .LASF727
C:\Users\CYMR90~1\AppData\Local\Temp\ccMBshSz.s:30446  .debug_str:00000000000261a3 .LASF728
C:\Users\CYMR90~1\AppData\Local\Temp\ccMBshSz.s:28788  .debug_str:000000000001f90c .LASF729
C:\Users\CYMR90~1\AppData\Local\Temp\ccMBshSz.s:27254  .debug_str:0000000000019695 .LASF730
C:\Users\CYMR90~1\AppData\Local\Temp\ccMBshSz.s:25697  .debug_str:00000000000132ce .LASF731
C:\Users\CYMR90~1\AppData\Local\Temp\ccMBshSz.s:30382  .debug_str:0000000000025db6 .LASF732
C:\Users\CYMR90~1\AppData\Local\Temp\ccMBshSz.s:32134  .debug_str:000000000002ccf5 .LASF733
C:\Users\CYMR90~1\AppData\Local\Temp\ccMBshSz.s:25185  .debug_str:0000000000011089 .LASF734
C:\Users\CYMR90~1\AppData\Local\Temp\ccMBshSz.s:25105  .debug_str:0000000000010c40 .LASF735
C:\Users\CYMR90~1\AppData\Local\Temp\ccMBshSz.s:32066  .debug_str:000000000002c841 .LASF736
C:\Users\CYMR90~1\AppData\Local\Temp\ccMBshSz.s:24093  .debug_str:000000000000cd8d .LASF737
C:\Users\CYMR90~1\AppData\Local\Temp\ccMBshSz.s:31994  .debug_str:000000000002c397 .LASF738
C:\Users\CYMR90~1\AppData\Local\Temp\ccMBshSz.s:31812  .debug_str:000000000002b7f3 .LASF739
C:\Users\CYMR90~1\AppData\Local\Temp\ccMBshSz.s:21311  .debug_str:0000000000001af9 .LASF740
C:\Users\CYMR90~1\AppData\Local\Temp\ccMBshSz.s:24029  .debug_str:000000000000c9a1 .LASF741
C:\Users\CYMR90~1\AppData\Local\Temp\ccMBshSz.s:21285  .debug_str:0000000000001983 .LASF742
C:\Users\CYMR90~1\AppData\Local\Temp\ccMBshSz.s:25141  .debug_str:0000000000010df6 .LASF743
C:\Users\CYMR90~1\AppData\Local\Temp\ccMBshSz.s:21751  .debug_str:0000000000003611 .LASF744
C:\Users\CYMR90~1\AppData\Local\Temp\ccMBshSz.s:23151  .debug_str:000000000000907c .LASF745
C:\Users\CYMR90~1\AppData\Local\Temp\ccMBshSz.s:29496  .debug_str:000000000002241a .LASF746
C:\Users\CYMR90~1\AppData\Local\Temp\ccMBshSz.s:21181  .debug_str:00000000000012bd .LASF747
C:\Users\CYMR90~1\AppData\Local\Temp\ccMBshSz.s:21171  .debug_str:000000000000123b .LASF748
C:\Users\CYMR90~1\AppData\Local\Temp\ccMBshSz.s:22315  .debug_str:0000000000005a37 .LASF750
C:\Users\CYMR90~1\AppData\Local\Temp\ccMBshSz.s:25059  .debug_str:00000000000108a5 .LASF751
C:\Users\CYMR90~1\AppData\Local\Temp\ccMBshSz.s:31276  .debug_str:0000000000029732 .LASF752
C:\Users\CYMR90~1\AppData\Local\Temp\ccMBshSz.s:24999  .debug_str:000000000001054f .LASF753
C:\Users\CYMR90~1\AppData\Local\Temp\ccMBshSz.s:22199  .debug_str:000000000000533b .LASF754
C:\Users\CYMR90~1\AppData\Local\Temp\ccMBshSz.s:23783  .debug_str:000000000000b931 .LASF755
C:\Users\CYMR90~1\AppData\Local\Temp\ccMBshSz.s:27330  .debug_str:0000000000019c37 .LASF756
C:\Users\CYMR90~1\AppData\Local\Temp\ccMBshSz.s:23289  .debug_str:000000000000989d .LASF757
C:\Users\CYMR90~1\AppData\Local\Temp\ccMBshSz.s:30334  .debug_str:0000000000025ab8 .LASF758
C:\Users\CYMR90~1\AppData\Local\Temp\ccMBshSz.s:32170  .debug_str:000000000002cf71 .LASF759
C:\Users\CYMR90~1\AppData\Local\Temp\ccMBshSz.s:27694  .debug_str:000000000001b418 .LASF760
C:\Users\CYMR90~1\AppData\Local\Temp\ccMBshSz.s:31910  .debug_str:000000000002be06 .LASF761
C:\Users\CYMR90~1\AppData\Local\Temp\ccMBshSz.s:23713  .debug_str:000000000000b42b .LASF762
C:\Users\CYMR90~1\AppData\Local\Temp\ccMBshSz.s:27702  .debug_str:000000000001b4ac .LASF765
C:\Users\CYMR90~1\AppData\Local\Temp\ccMBshSz.s:26383  .debug_str:0000000000015cf7 .LASF766
C:\Users\CYMR90~1\AppData\Local\Temp\ccMBshSz.s:29388  .debug_str:0000000000021dc8 .LASF767
C:\Users\CYMR90~1\AppData\Local\Temp\ccMBshSz.s:26375  .debug_str:0000000000015c93 .LASF768
C:\Users\CYMR90~1\AppData\Local\Temp\ccMBshSz.s:21549  .debug_str:000000000000295c .LASF769
C:\Users\CYMR90~1\AppData\Local\Temp\ccMBshSz.s:27832  .debug_str:000000000001bc27 .LASF770
C:\Users\CYMR90~1\AppData\Local\Temp\ccMBshSz.s:26469  .debug_str:00000000000162d1 .LASF771
C:\Users\CYMR90~1\AppData\Local\Temp\ccMBshSz.s:30044  .debug_str:0000000000024614 .LASF772
C:\Users\CYMR90~1\AppData\Local\Temp\ccMBshSz.s:29674  .debug_str:0000000000022ee8 .LASF773
C:\Users\CYMR90~1\AppData\Local\Temp\ccMBshSz.s:28154  .debug_str:000000000001d27a .LASF774
C:\Users\CYMR90~1\AppData\Local\Temp\ccMBshSz.s:30386  .debug_str:0000000000025ddd .LASF775
C:\Users\CYMR90~1\AppData\Local\Temp\ccMBshSz.s:23437  .debug_str:000000000000a1f9 .LASF776
C:\Users\CYMR90~1\AppData\Local\Temp\ccMBshSz.s:23453  .debug_str:000000000000a2ff .LASF777
C:\Users\CYMR90~1\AppData\Local\Temp\ccMBshSz.s:28484  .debug_str:000000000001e6f4 .LASF778
C:\Users\CYMR90~1\AppData\Local\Temp\ccMBshSz.s:24941  .debug_str:00000000000101d7 .LASF779
C:\Users\CYMR90~1\AppData\Local\Temp\ccMBshSz.s:28738  .debug_str:000000000001f630 .LASF780
C:\Users\CYMR90~1\AppData\Local\Temp\ccMBshSz.s:29384  .debug_str:0000000000021daf .LASF781
C:\Users\CYMR90~1\AppData\Local\Temp\ccMBshSz.s:25427  .debug_str:000000000001210b .LASF782
C:\Users\CYMR90~1\AppData\Local\Temp\ccMBshSz.s:26589  .debug_str:0000000000016b73 .LASF783
C:\Users\CYMR90~1\AppData\Local\Temp\ccMBshSz.s:25327  .debug_str:0000000000011ab5 .LASF784
C:\Users\CYMR90~1\AppData\Local\Temp\ccMBshSz.s:24621  .debug_str:000000000000ede1 .LASF785
C:\Users\CYMR90~1\AppData\Local\Temp\ccMBshSz.s:29744  .debug_str:00000000000232c5 .LASF786
C:\Users\CYMR90~1\AppData\Local\Temp\ccMBshSz.s:26081  .debug_str:0000000000014a6f .LASF787
C:\Users\CYMR90~1\AppData\Local\Temp\ccMBshSz.s:28420  .debug_str:000000000001e313 .LASF788
C:\Users\CYMR90~1\AppData\Local\Temp\ccMBshSz.s:24797  .debug_str:000000000000f8d6 .LASF789
C:\Users\CYMR90~1\AppData\Local\Temp\ccMBshSz.s:22251  .debug_str:0000000000005666 .LASF790
C:\Users\CYMR90~1\AppData\Local\Temp\ccMBshSz.s:30744  .debug_str:000000000002745e .LASF791
C:\Users\CYMR90~1\AppData\Local\Temp\ccMBshSz.s:23009  .debug_str:0000000000008761 .LASF792
C:\Users\CYMR90~1\AppData\Local\Temp\ccMBshSz.s:32140  .debug_str:000000000002cd43 .LASF793
C:\Users\CYMR90~1\AppData\Local\Temp\ccMBshSz.s:22799  .debug_str:00000000000078ac .LASF794
C:\Users\CYMR90~1\AppData\Local\Temp\ccMBshSz.s:30996  .debug_str:0000000000028538 .LASF795
C:\Users\CYMR90~1\AppData\Local\Temp\ccMBshSz.s:28984  .debug_str:0000000000020517 .LASF796
C:\Users\CYMR90~1\AppData\Local\Temp\ccMBshSz.s:31702  .debug_str:000000000002b100 .LASF797
C:\Users\CYMR90~1\AppData\Local\Temp\ccMBshSz.s:22631  .debug_str:0000000000006dc5 .LASF798
C:\Users\CYMR90~1\AppData\Local\Temp\ccMBshSz.s:31054  .debug_str:000000000002895b .LASF799
C:\Users\CYMR90~1\AppData\Local\Temp\ccMBshSz.s:22215  .debug_str:0000000000005432 .LASF800
C:\Users\CYMR90~1\AppData\Local\Temp\ccMBshSz.s:27464  .debug_str:000000000001a56d .LASF801
C:\Users\CYMR90~1\AppData\Local\Temp\ccMBshSz.s:27496  .debug_str:000000000001a73d .LASF802
C:\Users\CYMR90~1\AppData\Local\Temp\ccMBshSz.s:23355  .debug_str:0000000000009cf2 .LASF803
C:\Users\CYMR90~1\AppData\Local\Temp\ccMBshSz.s:25835  .debug_str:0000000000013b2e .LASF804
C:\Users\CYMR90~1\AppData\Local\Temp\ccMBshSz.s:22645  .debug_str:0000000000006e8c .LASF805
C:\Users\CYMR90~1\AppData\Local\Temp\ccMBshSz.s:25281  .debug_str:0000000000011727 .LASF806
C:\Users\CYMR90~1\AppData\Local\Temp\ccMBshSz.s:28440  .debug_str:000000000001e406 .LASF807
C:\Users\CYMR90~1\AppData\Local\Temp\ccMBshSz.s:28030  .debug_str:000000000001c953 .LASF808
C:\Users\CYMR90~1\AppData\Local\Temp\ccMBshSz.s:30456  .debug_str:000000000002623a .LASF809
C:\Users\CYMR90~1\AppData\Local\Temp\ccMBshSz.s:31914  .debug_str:000000000002be5b .LASF810
C:\Users\CYMR90~1\AppData\Local\Temp\ccMBshSz.s:23035  .debug_str:0000000000008913 .LASF811
C:\Users\CYMR90~1\AppData\Local\Temp\ccMBshSz.s:21947  .debug_str:00000000000042e6 .LASF812
C:\Users\CYMR90~1\AppData\Local\Temp\ccMBshSz.s:31948  .debug_str:000000000002c10f .LASF813
C:\Users\CYMR90~1\AppData\Local\Temp\ccMBshSz.s:22311  .debug_str:0000000000005a10 .LASF814
C:\Users\CYMR90~1\AppData\Local\Temp\ccMBshSz.s:22537  .debug_str:0000000000006790 .LASF815
C:\Users\CYMR90~1\AppData\Local\Temp\ccMBshSz.s:27796  .debug_str:000000000001b9d8 .LASF816
C:\Users\CYMR90~1\AppData\Local\Temp\ccMBshSz.s:23215  .debug_str:0000000000009401 .LASF817
C:\Users\CYMR90~1\AppData\Local\Temp\ccMBshSz.s:27944  .debug_str:000000000001c36a .LASF818
C:\Users\CYMR90~1\AppData\Local\Temp\ccMBshSz.s:27836  .debug_str:000000000001bc3f .LASF819
C:\Users\CYMR90~1\AppData\Local\Temp\ccMBshSz.s:21057  .debug_str:0000000000000b11 .LASF820
C:\Users\CYMR90~1\AppData\Local\Temp\ccMBshSz.s:31536  .debug_str:000000000002a6be .LASF821
C:\Users\CYMR90~1\AppData\Local\Temp\ccMBshSz.s:30040  .debug_str:00000000000245e4 .LASF822
C:\Users\CYMR90~1\AppData\Local\Temp\ccMBshSz.s:23181  .debug_str:00000000000091f7 .LASF823
C:\Users\CYMR90~1\AppData\Local\Temp\ccMBshSz.s:26515  .debug_str:00000000000165fb .LASF824
C:\Users\CYMR90~1\AppData\Local\Temp\ccMBshSz.s:28138  .debug_str:000000000001d162 .LASF825
C:\Users\CYMR90~1\AppData\Local\Temp\ccMBshSz.s:26307  .debug_str:000000000001583b .LASF826
C:\Users\CYMR90~1\AppData\Local\Temp\ccMBshSz.s:21835  .debug_str:0000000000003b5a .LASF827
C:\Users\CYMR90~1\AppData\Local\Temp\ccMBshSz.s:24601  .debug_str:000000000000ecd4 .LASF828
C:\Users\CYMR90~1\AppData\Local\Temp\ccMBshSz.s:30146  .debug_str:0000000000024cc7 .LASF829
C:\Users\CYMR90~1\AppData\Local\Temp\ccMBshSz.s:30324  .debug_str:00000000000259f8 .LASF830
C:\Users\CYMR90~1\AppData\Local\Temp\ccMBshSz.s:23789  .debug_str:000000000000b980 .LASF831
C:\Users\CYMR90~1\AppData\Local\Temp\ccMBshSz.s:24543  .debug_str:000000000000e956 .LASF832
C:\Users\CYMR90~1\AppData\Local\Temp\ccMBshSz.s:22395  .debug_str:0000000000005eea .LASF833
C:\Users\CYMR90~1\AppData\Local\Temp\ccMBshSz.s:25187  .debug_str:000000000001109a .LASF834
C:\Users\CYMR90~1\AppData\Local\Temp\ccMBshSz.s:26984  .debug_str:00000000000184fb .LASF835
C:\Users\CYMR90~1\AppData\Local\Temp\ccMBshSz.s:25089  .debug_str:0000000000010aef .LASF836
C:\Users\CYMR90~1\AppData\Local\Temp\ccMBshSz.s:28890  .debug_str:000000000001ff95 .LASF837
C:\Users\CYMR90~1\AppData\Local\Temp\ccMBshSz.s:23083  .debug_str:0000000000008c55 .LASF838
C:\Users\CYMR90~1\AppData\Local\Temp\ccMBshSz.s:22239  .debug_str:00000000000055c7 .LASF839
C:\Users\CYMR90~1\AppData\Local\Temp\ccMBshSz.s:24989  .debug_str:000000000001049e .LASF840
C:\Users\CYMR90~1\AppData\Local\Temp\ccMBshSz.s:23915  .debug_str:000000000000c221 .LASF841
C:\Users\CYMR90~1\AppData\Local\Temp\ccMBshSz.s:28048  .debug_str:000000000001ca7f .LASF842
C:\Users\CYMR90~1\AppData\Local\Temp\ccMBshSz.s:21123  .debug_str:0000000000000f87 .LASF843
C:\Users\CYMR90~1\AppData\Local\Temp\ccMBshSz.s:21485  .debug_str:0000000000002514 .LASF844
C:\Users\CYMR90~1\AppData\Local\Temp\ccMBshSz.s:29898  .debug_str:0000000000023c61 .LASF845
C:\Users\CYMR90~1\AppData\Local\Temp\ccMBshSz.s:20885  .debug_str:0000000000000096 .LASF846
C:\Users\CYMR90~1\AppData\Local\Temp\ccMBshSz.s:22875  .debug_str:0000000000007e3e .LASF847
C:\Users\CYMR90~1\AppData\Local\Temp\ccMBshSz.s:28746  .debug_str:000000000001f688 .LASF848
C:\Users\CYMR90~1\AppData\Local\Temp\ccMBshSz.s:22843  .debug_str:0000000000007b9c .LASF849
C:\Users\CYMR90~1\AppData\Local\Temp\ccMBshSz.s:24215  .debug_str:000000000000d5b1 .LASF852
C:\Users\CYMR90~1\AppData\Local\Temp\ccMBshSz.s:31104  .debug_str:0000000000028c75 .LASF853
C:\Users\CYMR90~1\AppData\Local\Temp\ccMBshSz.s:26143  .debug_str:0000000000014eb7 .LASF854
C:\Users\CYMR90~1\AppData\Local\Temp\ccMBshSz.s:29394  .debug_str:0000000000021e5d .LASF856
C:\Users\CYMR90~1\AppData\Local\Temp\ccMBshSz.s:28276  .debug_str:000000000001da0d .LASF857
C:\Users\CYMR90~1\AppData\Local\Temp\ccMBshSz.s:30928  .debug_str:0000000000027ff0 .LASF858
C:\Users\CYMR90~1\AppData\Local\Temp\ccMBshSz.s:24201  .debug_str:000000000000d4e0 .LASF859
C:\Users\CYMR90~1\AppData\Local\Temp\ccMBshSz.s:25139  .debug_str:0000000000010dec .LASF860
C:\Users\CYMR90~1\AppData\Local\Temp\ccMBshSz.s:29322  .debug_str:00000000000219d7 .LASF861
C:\Users\CYMR90~1\AppData\Local\Temp\ccMBshSz.s:28476  .debug_str:000000000001e6a4 .LASF862
C:\Users\CYMR90~1\AppData\Local\Temp\ccMBshSz.s:21223  .debug_str:0000000000001522 .LASF863
C:\Users\CYMR90~1\AppData\Local\Temp\ccMBshSz.s:21891  .debug_str:0000000000003ecb .LASF864
C:\Users\CYMR90~1\AppData\Local\Temp\ccMBshSz.s:22285  .debug_str:000000000000587d .LASF865
C:\Users\CYMR90~1\AppData\Local\Temp\ccMBshSz.s:23485  .debug_str:000000000000a516 .LASF866
C:\Users\CYMR90~1\AppData\Local\Temp\ccMBshSz.s:22945  .debug_str:000000000000836e .LASF867
C:\Users\CYMR90~1\AppData\Local\Temp\ccMBshSz.s:28206  .debug_str:000000000001d56d .LASF868
C:\Users\CYMR90~1\AppData\Local\Temp\ccMBshSz.s:28832  .debug_str:000000000001fbdd .LASF869
C:\Users\CYMR90~1\AppData\Local\Temp\ccMBshSz.s:29914  .debug_str:0000000000023d4c .LASF870
C:\Users\CYMR90~1\AppData\Local\Temp\ccMBshSz.s:23119  .debug_str:0000000000008ea7 .LASF871
C:\Users\CYMR90~1\AppData\Local\Temp\ccMBshSz.s:23561  .debug_str:000000000000aa70 .LASF872
C:\Users\CYMR90~1\AppData\Local\Temp\ccMBshSz.s:28040  .debug_str:000000000001ca0d .LASF873
C:\Users\CYMR90~1\AppData\Local\Temp\ccMBshSz.s:30626  .debug_str:0000000000026c73 .LASF874
C:\Users\CYMR90~1\AppData\Local\Temp\ccMBshSz.s:25347  .debug_str:0000000000011be0 .LASF875
C:\Users\CYMR90~1\AppData\Local\Temp\ccMBshSz.s:26045  .debug_str:000000000001483d .LASF876
C:\Users\CYMR90~1\AppData\Local\Temp\ccMBshSz.s:23361  .debug_str:0000000000009d47 .LASF877
C:\Users\CYMR90~1\AppData\Local\Temp\ccMBshSz.s:27732  .debug_str:000000000001b67f .LASF878
C:\Users\CYMR90~1\AppData\Local\Temp\ccMBshSz.s:31394  .debug_str:0000000000029e74 .LASF879
C:\Users\CYMR90~1\AppData\Local\Temp\ccMBshSz.s:26700  .debug_str:00000000000173bd .LASF880
C:\Users\CYMR90~1\AppData\Local\Temp\ccMBshSz.s:22217  .debug_str:000000000000544b .LASF881
C:\Users\CYMR90~1\AppData\Local\Temp\ccMBshSz.s:25567  .debug_str:0000000000012a24 .LASF882
C:\Users\CYMR90~1\AppData\Local\Temp\ccMBshSz.s:28716  .debug_str:000000000001f502 .LASF883
C:\Users\CYMR90~1\AppData\Local\Temp\ccMBshSz.s:28900  .debug_str:0000000000020022 .LASF884
C:\Users\CYMR90~1\AppData\Local\Temp\ccMBshSz.s:32196  .debug_str:000000000002d0f2 .LASF885
C:\Users\CYMR90~1\AppData\Local\Temp\ccMBshSz.s:27738  .debug_str:000000000001b6d7 .LASF886
C:\Users\CYMR90~1\AppData\Local\Temp\ccMBshSz.s:23227  .debug_str:00000000000094a8 .LASF887
C:\Users\CYMR90~1\AppData\Local\Temp\ccMBshSz.s:29860  .debug_str:0000000000023a27 .LASF888
C:\Users\CYMR90~1\AppData\Local\Temp\ccMBshSz.s:25505  .debug_str:00000000000125ee .LASF889
C:\Users\CYMR90~1\AppData\Local\Temp\ccMBshSz.s:29792  .debug_str:00000000000235a2 .LASF890
C:\Users\CYMR90~1\AppData\Local\Temp\ccMBshSz.s:22037  .debug_str:0000000000004961 .LASF891
C:\Users\CYMR90~1\AppData\Local\Temp\ccMBshSz.s:24493  .debug_str:000000000000e633 .LASF892
C:\Users\CYMR90~1\AppData\Local\Temp\ccMBshSz.s:30572  .debug_str:000000000002694f .LASF893
C:\Users\CYMR90~1\AppData\Local\Temp\ccMBshSz.s:29956  .debug_str:0000000000023f9b .LASF894
C:\Users\CYMR90~1\AppData\Local\Temp\ccMBshSz.s:21193  .debug_str:0000000000001367 .LASF895
C:\Users\CYMR90~1\AppData\Local\Temp\ccMBshSz.s:25899  .debug_str:0000000000013eee .LASF896
C:\Users\CYMR90~1\AppData\Local\Temp\ccMBshSz.s:22125  .debug_str:0000000000004ec4 .LASF897
C:\Users\CYMR90~1\AppData\Local\Temp\ccMBshSz.s:23351  .debug_str:0000000000009cb3 .LASF898
C:\Users\CYMR90~1\AppData\Local\Temp\ccMBshSz.s:30872  .debug_str:0000000000027c41 .LASF899
C:\Users\CYMR90~1\AppData\Local\Temp\ccMBshSz.s:23671  .debug_str:000000000000b1f5 .LASF900
C:\Users\CYMR90~1\AppData\Local\Temp\ccMBshSz.s:27786  .debug_str:000000000001b93d .LASF901
C:\Users\CYMR90~1\AppData\Local\Temp\ccMBshSz.s:31408  .debug_str:0000000000029f44 .LASF902
C:\Users\CYMR90~1\AppData\Local\Temp\ccMBshSz.s:30144  .debug_str:0000000000024ca1 .LASF903
C:\Users\CYMR90~1\AppData\Local\Temp\ccMBshSz.s:31018  .debug_str:00000000000286a3 .LASF904
C:\Users\CYMR90~1\AppData\Local\Temp\ccMBshSz.s:25551  .debug_str:0000000000012916 .LASF905
C:\Users\CYMR90~1\AppData\Local\Temp\ccMBshSz.s:22997  .debug_str:00000000000086c7 .LASF906
C:\Users\CYMR90~1\AppData\Local\Temp\ccMBshSz.s:31578  .debug_str:000000000002a9a6 .LASF907
C:\Users\CYMR90~1\AppData\Local\Temp\ccMBshSz.s:24489  .debug_str:000000000000e5f0 .LASF908
C:\Users\CYMR90~1\AppData\Local\Temp\ccMBshSz.s:30848  .debug_str:0000000000027a89 .LASF909
C:\Users\CYMR90~1\AppData\Local\Temp\ccMBshSz.s:25107  .debug_str:0000000000010c51 .LASF910
C:\Users\CYMR90~1\AppData\Local\Temp\ccMBshSz.s:21583  .debug_str:0000000000002b59 .LASF911
C:\Users\CYMR90~1\AppData\Local\Temp\ccMBshSz.s:21165  .debug_str:00000000000011fe .LASF912
C:\Users\CYMR90~1\AppData\Local\Temp\ccMBshSz.s:29238  .debug_str:00000000000214d3 .LASF913
C:\Users\CYMR90~1\AppData\Local\Temp\ccMBshSz.s:30126  .debug_str:0000000000024b71 .LASF914
C:\Users\CYMR90~1\AppData\Local\Temp\ccMBshSz.s:24041  .debug_str:000000000000ca73 .LASF915
C:\Users\CYMR90~1\AppData\Local\Temp\ccMBshSz.s:24349  .debug_str:000000000000dd5f .LASF916
C:\Users\CYMR90~1\AppData\Local\Temp\ccMBshSz.s:24923  .debug_str:00000000000100a9 .LASF917
C:\Users\CYMR90~1\AppData\Local\Temp\ccMBshSz.s:31652  .debug_str:000000000002adb3 .LASF918
C:\Users\CYMR90~1\AppData\Local\Temp\ccMBshSz.s:21149  .debug_str:00000000000010e4 .LASF919
C:\Users\CYMR90~1\AppData\Local\Temp\ccMBshSz.s:23657  .debug_str:000000000000b10a .LASF920
C:\Users\CYMR90~1\AppData\Local\Temp\ccMBshSz.s:30080  .debug_str:0000000000024832 .LASF921
C:\Users\CYMR90~1\AppData\Local\Temp\ccMBshSz.s:27490  .debug_str:000000000001a6cb .LASF922
C:\Users\CYMR90~1\AppData\Local\Temp\ccMBshSz.s:30606  .debug_str:0000000000026b44 .LASF923
C:\Users\CYMR90~1\AppData\Local\Temp\ccMBshSz.s:26628  .debug_str:0000000000016f76 .LASF924
C:\Users\CYMR90~1\AppData\Local\Temp\ccMBshSz.s:21541  .debug_str:00000000000028c9 .LASF925
C:\Users\CYMR90~1\AppData\Local\Temp\ccMBshSz.s:27696  .debug_str:000000000001b452 .LASF926
C:\Users\CYMR90~1\AppData\Local\Temp\ccMBshSz.s:21263  .debug_str:000000000000180c .LASF927
C:\Users\CYMR90~1\AppData\Local\Temp\ccMBshSz.s:26073  .debug_str:00000000000149e9 .LASF928
C:\Users\CYMR90~1\AppData\Local\Temp\ccMBshSz.s:28778  .debug_str:000000000001f85e .LASF929
C:\Users\CYMR90~1\AppData\Local\Temp\ccMBshSz.s:31912  .debug_str:000000000002be3e .LASF930
C:\Users\CYMR90~1\AppData\Local\Temp\ccMBshSz.s:32132  .debug_str:000000000002ccd7 .LASF931
C:\Users\CYMR90~1\AppData\Local\Temp\ccMBshSz.s:28676  .debug_str:000000000001f26e .LASF932
C:\Users\CYMR90~1\AppData\Local\Temp\ccMBshSz.s:31388  .debug_str:0000000000029e01 .LASF933
C:\Users\CYMR90~1\AppData\Local\Temp\ccMBshSz.s:26433  .debug_str:00000000000160ac .LASF934
C:\Users\CYMR90~1\AppData\Local\Temp\ccMBshSz.s:27262  .debug_str:000000000001970f .LASF935
C:\Users\CYMR90~1\AppData\Local\Temp\ccMBshSz.s:26311  .debug_str:0000000000015870 .LASF936
C:\Users\CYMR90~1\AppData\Local\Temp\ccMBshSz.s:30218  .debug_str:00000000000251d2 .LASF937
C:\Users\CYMR90~1\AppData\Local\Temp\ccMBshSz.s:21075  .debug_str:0000000000000c44 .LASF938
C:\Users\CYMR90~1\AppData\Local\Temp\ccMBshSz.s:29048  .debug_str:000000000002096c .LASF939
C:\Users\CYMR90~1\AppData\Local\Temp\ccMBshSz.s:30308  .debug_str:000000000002587b .LASF940
C:\Users\CYMR90~1\AppData\Local\Temp\ccMBshSz.s:23791  .debug_str:000000000000b99e .LASF941
C:\Users\CYMR90~1\AppData\Local\Temp\ccMBshSz.s:27478  .debug_str:000000000001a612 .LASF942
C:\Users\CYMR90~1\AppData\Local\Temp\ccMBshSz.s:24531  .debug_str:000000000000e864 .LASF943
C:\Users\CYMR90~1\AppData\Local\Temp\ccMBshSz.s:30434  .debug_str:00000000000260d1 .LASF944
C:\Users\CYMR90~1\AppData\Local\Temp\ccMBshSz.s:27888  .debug_str:000000000001c006 .LASF945
C:\Users\CYMR90~1\AppData\Local\Temp\ccMBshSz.s:24741  .debug_str:000000000000f4ff .LASF946
C:\Users\CYMR90~1\AppData\Local\Temp\ccMBshSz.s:26774  .debug_str:000000000001783e .LASF947
C:\Users\CYMR90~1\AppData\Local\Temp\ccMBshSz.s:28404  .debug_str:000000000001e22d .LASF948
C:\Users\CYMR90~1\AppData\Local\Temp\ccMBshSz.s:25085  .debug_str:0000000000010ab1 .LASF949
C:\Users\CYMR90~1\AppData\Local\Temp\ccMBshSz.s:24099  .debug_str:000000000000cde3 .LASF950
C:\Users\CYMR90~1\AppData\Local\Temp\ccMBshSz.s:22709  .debug_str:000000000000730a .LASF952
C:\Users\CYMR90~1\AppData\Local\Temp\ccMBshSz.s:26229  .debug_str:00000000000153da .LASF953
C:\Users\CYMR90~1\AppData\Local\Temp\ccMBshSz.s:24133  .debug_str:000000000000cff4 .LASF954
C:\Users\CYMR90~1\AppData\Local\Temp\ccMBshSz.s:32124  .debug_str:000000000002cc62 .LASF955
C:\Users\CYMR90~1\AppData\Local\Temp\ccMBshSz.s:31290  .debug_str:00000000000297db .LASF956
C:\Users\CYMR90~1\AppData\Local\Temp\ccMBshSz.s:31378  .debug_str:0000000000029d6b .LASF960
C:\Users\CYMR90~1\AppData\Local\Temp\ccMBshSz.s:23253  .debug_str:0000000000009694 .LASF961
C:\Users\CYMR90~1\AppData\Local\Temp\ccMBshSz.s:30636  .debug_str:0000000000026d09 .LASF962
C:\Users\CYMR90~1\AppData\Local\Temp\ccMBshSz.s:25319  .debug_str:0000000000011a39 .LASF963
C:\Users\CYMR90~1\AppData\Local\Temp\ccMBshSz.s:22733  .debug_str:00000000000074a1 .LASF964
C:\Users\CYMR90~1\AppData\Local\Temp\ccMBshSz.s:29426  .debug_str:0000000000022026 .LASF965
C:\Users\CYMR90~1\AppData\Local\Temp\ccMBshSz.s:27690  .debug_str:000000000001b3e6 .LASF966
C:\Users\CYMR90~1\AppData\Local\Temp\ccMBshSz.s:30578  .debug_str:00000000000269ab .LASF967
C:\Users\CYMR90~1\AppData\Local\Temp\ccMBshSz.s:31696  .debug_str:000000000002b092 .LASF968
C:\Users\CYMR90~1\AppData\Local\Temp\ccMBshSz.s:22453  .debug_str:0000000000006288 .LASF969
C:\Users\CYMR90~1\AppData\Local\Temp\ccMBshSz.s:25943  .debug_str:00000000000141f8 .LASF970
C:\Users\CYMR90~1\AppData\Local\Temp\ccMBshSz.s:31784  .debug_str:000000000002b620 .LASF971
C:\Users\CYMR90~1\AppData\Local\Temp\ccMBshSz.s:24541  .debug_str:000000000000e930 .LASF972
C:\Users\CYMR90~1\AppData\Local\Temp\ccMBshSz.s:24509  .debug_str:000000000000e735 .LASF973
C:\Users\CYMR90~1\AppData\Local\Temp\ccMBshSz.s:24159  .debug_str:000000000000d182 .LASF974
C:\Users\CYMR90~1\AppData\Local\Temp\ccMBshSz.s:26563  .debug_str:00000000000168e4 .LASF975
C:\Users\CYMR90~1\AppData\Local\Temp\ccMBshSz.s:32158  .debug_str:000000000002ce16 .LASF976
C:\Users\CYMR90~1\AppData\Local\Temp\ccMBshSz.s:24095  .debug_str:000000000000cd9e .LASF977
C:\Users\CYMR90~1\AppData\Local\Temp\ccMBshSz.s:32184  .debug_str:000000000002d061 .LASF978
C:\Users\CYMR90~1\AppData\Local\Temp\ccMBshSz.s:30416  .debug_str:0000000000025f98 .LASF979
C:\Users\CYMR90~1\AppData\Local\Temp\ccMBshSz.s:30476  .debug_str:0000000000026353 .LASF980
C:\Users\CYMR90~1\AppData\Local\Temp\ccMBshSz.s:24597  .debug_str:000000000000eca0 .LASF981
C:\Users\CYMR90~1\AppData\Local\Temp\ccMBshSz.s:22165  .debug_str:000000000000513b .LASF982
C:\Users\CYMR90~1\AppData\Local\Temp\ccMBshSz.s:25343  .debug_str:0000000000011bc3 .LASF983
C:\Users\CYMR90~1\AppData\Local\Temp\ccMBshSz.s:23123  .debug_str:0000000000008ec7 .LASF984
C:\Users\CYMR90~1\AppData\Local\Temp\ccMBshSz.s:28130  .debug_str:000000000001d050 .LASF985
C:\Users\CYMR90~1\AppData\Local\Temp\ccMBshSz.s:29708  .debug_str:00000000000230d4 .LASF986
C:\Users\CYMR90~1\AppData\Local\Temp\ccMBshSz.s:26379  .debug_str:0000000000015cd3 .LASF987
C:\Users\CYMR90~1\AppData\Local\Temp\ccMBshSz.s:21601  .debug_str:0000000000002c6c .LASF988
C:\Users\CYMR90~1\AppData\Local\Temp\ccMBshSz.s:29622  .debug_str:0000000000022c1c .LASF989
C:\Users\CYMR90~1\AppData\Local\Temp\ccMBshSz.s:27078  .debug_str:0000000000018a96 .LASF990
C:\Users\CYMR90~1\AppData\Local\Temp\ccMBshSz.s:24091  .debug_str:000000000000cd76 .LASF991
C:\Users\CYMR90~1\AppData\Local\Temp\ccMBshSz.s:30580  .debug_str:00000000000269d3 .LASF992
C:\Users\CYMR90~1\AppData\Local\Temp\ccMBshSz.s:22749  .debug_str:000000000000757b .LASF993
C:\Users\CYMR90~1\AppData\Local\Temp\ccMBshSz.s:30396  .debug_str:0000000000025e47 .LASF994
C:\Users\CYMR90~1\AppData\Local\Temp\ccMBshSz.s:27162  .debug_str:000000000001912d .LASF995
C:\Users\CYMR90~1\AppData\Local\Temp\ccMBshSz.s:31188  .debug_str:0000000000029179 .LASF996
C:\Users\CYMR90~1\AppData\Local\Temp\ccMBshSz.s:28320  .debug_str:000000000001dc88 .LASF997
C:\Users\CYMR90~1\AppData\Local\Temp\ccMBshSz.s:28382  .debug_str:000000000001e0cc .LASF998
C:\Users\CYMR90~1\AppData\Local\Temp\ccMBshSz.s:21497  .debug_str:00000000000025a8 .LASF999
C:\Users\CYMR90~1\AppData\Local\Temp\ccMBshSz.s:21841  .debug_str:0000000000003bb4 .LASF1000
C:\Users\CYMR90~1\AppData\Local\Temp\ccMBshSz.s:30056  .debug_str:00000000000246d2 .LASF1001
C:\Users\CYMR90~1\AppData\Local\Temp\ccMBshSz.s:24931  .debug_str:0000000000010131 .LASF1002
C:\Users\CYMR90~1\AppData\Local\Temp\ccMBshSz.s:22117  .debug_str:0000000000004e6b .LASF1003
C:\Users\CYMR90~1\AppData\Local\Temp\ccMBshSz.s:27930  .debug_str:000000000001c29f .LASF1004
C:\Users\CYMR90~1\AppData\Local\Temp\ccMBshSz.s:25297  .debug_str:0000000000011854 .LASF1005
C:\Users\CYMR90~1\AppData\Local\Temp\ccMBshSz.s:24057  .debug_str:000000000000cb91 .LASF1006
C:\Users\CYMR90~1\AppData\Local\Temp\ccMBshSz.s:22427  .debug_str:00000000000060f1 .LASF1007
C:\Users\CYMR90~1\AppData\Local\Temp\ccMBshSz.s:29422  .debug_str:0000000000021fee .LASF1008
C:\Users\CYMR90~1\AppData\Local\Temp\ccMBshSz.s:26852  .debug_str:0000000000017d0a .LASF1009
C:\Users\CYMR90~1\AppData\Local\Temp\ccMBshSz.s:27008  .debug_str:0000000000018642 .LASF1010
C:\Users\CYMR90~1\AppData\Local\Temp\ccMBshSz.s:24365  .debug_str:000000000000de6c .LASF1011
C:\Users\CYMR90~1\AppData\Local\Temp\ccMBshSz.s:28176  .debug_str:000000000001d3ac .LASF1012
C:\Users\CYMR90~1\AppData\Local\Temp\ccMBshSz.s:24559  .debug_str:000000000000ea65 .LASF1013
C:\Users\CYMR90~1\AppData\Local\Temp\ccMBshSz.s:27280  .debug_str:0000000000019899 .LASF1014
C:\Users\CYMR90~1\AppData\Local\Temp\ccMBshSz.s:23979  .debug_str:000000000000c5f2 .LASF1015
C:\Users\CYMR90~1\AppData\Local\Temp\ccMBshSz.s:22319  .debug_str:0000000000005a62 .LASF1016
C:\Users\CYMR90~1\AppData\Local\Temp\ccMBshSz.s:22275  .debug_str:00000000000057ef .LASF1017
C:\Users\CYMR90~1\AppData\Local\Temp\ccMBshSz.s:30734  .debug_str:000000000002731e .LASF1018
C:\Users\CYMR90~1\AppData\Local\Temp\ccMBshSz.s:24609  .debug_str:000000000000ed3c .LASF1019
C:\Users\CYMR90~1\AppData\Local\Temp\ccMBshSz.s:21491  .debug_str:000000000000255f .LASF1020
C:\Users\CYMR90~1\AppData\Local\Temp\ccMBshSz.s:26888  .debug_str:0000000000017f35 .LASF1021
C:\Users\CYMR90~1\AppData\Local\Temp\ccMBshSz.s:23913  .debug_str:000000000000c209 .LASF1022
C:\Users\CYMR90~1\AppData\Local\Temp\ccMBshSz.s:30656  .debug_str:0000000000026e24 .LASF1023
C:\Users\CYMR90~1\AppData\Local\Temp\ccMBshSz.s:23163  .debug_str:000000000000911f .LASF1024
C:\Users\CYMR90~1\AppData\Local\Temp\ccMBshSz.s:27466  .debug_str:000000000001a587 .LASF1025
C:\Users\CYMR90~1\AppData\Local\Temp\ccMBshSz.s:25111  .debug_str:0000000000010c92 .LASF1026
C:\Users\CYMR90~1\AppData\Local\Temp\ccMBshSz.s:26065  .debug_str:0000000000014935 .LASF1027
C:\Users\CYMR90~1\AppData\Local\Temp\ccMBshSz.s:28254  .debug_str:000000000001d891 .LASF1028
C:\Users\CYMR90~1\AppData\Local\Temp\ccMBshSz.s:28634  .debug_str:000000000001efc8 .LASF1029
C:\Users\CYMR90~1\AppData\Local\Temp\ccMBshSz.s:29932  .debug_str:0000000000023e59 .LASF1030
C:\Users\CYMR90~1\AppData\Local\Temp\ccMBshSz.s:29004  .debug_str:00000000000206c6 .LASF1031
C:\Users\CYMR90~1\AppData\Local\Temp\ccMBshSz.s:31292  .debug_str:0000000000029843 .LASF1032
C:\Users\CYMR90~1\AppData\Local\Temp\ccMBshSz.s:23311  .debug_str:0000000000009a38 .LASF1033
C:\Users\CYMR90~1\AppData\Local\Temp\ccMBshSz.s:22173  .debug_str:00000000000051bd .LASF1034
C:\Users\CYMR90~1\AppData\Local\Temp\ccMBshSz.s:27208  .debug_str:00000000000193d7 .LASF1035
C:\Users\CYMR90~1\AppData\Local\Temp\ccMBshSz.s:27468  .debug_str:000000000001a59c .LASF1036
C:\Users\CYMR90~1\AppData\Local\Temp\ccMBshSz.s:29722  .debug_str:000000000002316b .LASF1037
C:\Users\CYMR90~1\AppData\Local\Temp\ccMBshSz.s:24779  .debug_str:000000000000f7e2 .LASF1038
C:\Users\CYMR90~1\AppData\Local\Temp\ccMBshSz.s:28358  .debug_str:000000000001df66 .LASF1039
C:\Users\CYMR90~1\AppData\Local\Temp\ccMBshSz.s:26249  .debug_str:000000000001552b .LASF1040
C:\Users\CYMR90~1\AppData\Local\Temp\ccMBshSz.s:24689  .debug_str:000000000000f1dc .LASF1041
C:\Users\CYMR90~1\AppData\Local\Temp\ccMBshSz.s:26537  .debug_str:0000000000016736 .LASF1042
C:\Users\CYMR90~1\AppData\Local\Temp\ccMBshSz.s:24933  .debug_str:0000000000010148 .LASF1043
C:\Users\CYMR90~1\AppData\Local\Temp\ccMBshSz.s:20905  .debug_str:00000000000001c8 .LASF1044
C:\Users\CYMR90~1\AppData\Local\Temp\ccMBshSz.s:23175  .debug_str:00000000000091a6 .LASF1045
C:\Users\CYMR90~1\AppData\Local\Temp\ccMBshSz.s:27398  .debug_str:000000000001a01a .LASF1046
C:\Users\CYMR90~1\AppData\Local\Temp\ccMBshSz.s:30832  .debug_str:0000000000027989 .LASF1047
C:\Users\CYMR90~1\AppData\Local\Temp\ccMBshSz.s:29764  .debug_str:00000000000233df .LASF1048
C:\Users\CYMR90~1\AppData\Local\Temp\ccMBshSz.s:28598  .debug_str:000000000001ed9f .LASF1049
C:\Users\CYMR90~1\AppData\Local\Temp\ccMBshSz.s:21679  .debug_str:000000000000315a .LASF1050
C:\Users\CYMR90~1\AppData\Local\Temp\ccMBshSz.s:28608  .debug_str:000000000001ee2a .LASF1051
C:\Users\CYMR90~1\AppData\Local\Temp\ccMBshSz.s:28814  .debug_str:000000000001faa9 .LASF1052
C:\Users\CYMR90~1\AppData\Local\Temp\ccMBshSz.s:23669  .debug_str:000000000000b1e3 .LASF1053
C:\Users\CYMR90~1\AppData\Local\Temp\ccMBshSz.s:29664  .debug_str:0000000000022e5f .LASF1054
C:\Users\CYMR90~1\AppData\Local\Temp\ccMBshSz.s:25593  .debug_str:0000000000012bbe .LASF1055
C:\Users\CYMR90~1\AppData\Local\Temp\ccMBshSz.s:24537  .debug_str:000000000000e8de .LASF1056
C:\Users\CYMR90~1\AppData\Local\Temp\ccMBshSz.s:30906  .debug_str:0000000000027ea3 .LASF1057
C:\Users\CYMR90~1\AppData\Local\Temp\ccMBshSz.s:31498  .debug_str:000000000002a443 .LASF1058
C:\Users\CYMR90~1\AppData\Local\Temp\ccMBshSz.s:30214  .debug_str:000000000002518f .LASF1059
C:\Users\CYMR90~1\AppData\Local\Temp\ccMBshSz.s:23501  .debug_str:000000000000a611 .LASF1060
C:\Users\CYMR90~1\AppData\Local\Temp\ccMBshSz.s:22977  .debug_str:000000000000859a .LASF1061
C:\Users\CYMR90~1\AppData\Local\Temp\ccMBshSz.s:21039  .debug_str:00000000000009a9 .LASF1062
C:\Users\CYMR90~1\AppData\Local\Temp\ccMBshSz.s:25981  .debug_str:0000000000014400 .LASF1063
C:\Users\CYMR90~1\AppData\Local\Temp\ccMBshSz.s:21887  .debug_str:0000000000003e8d .LASF1064
C:\Users\CYMR90~1\AppData\Local\Temp\ccMBshSz.s:20977  .debug_str:00000000000005f8 .LASF1065
C:\Users\CYMR90~1\AppData\Local\Temp\ccMBshSz.s:32190  .debug_str:000000000002d0aa .LASF1066
C:\Users\CYMR90~1\AppData\Local\Temp\ccMBshSz.s:30058  .debug_str:00000000000246ea .LASF1067
C:\Users\CYMR90~1\AppData\Local\Temp\ccMBshSz.s:26561  .debug_str:00000000000168ca .LASF1068
C:\Users\CYMR90~1\AppData\Local\Temp\ccMBshSz.s:28146  .debug_str:000000000001d1d5 .LASF1069
C:\Users\CYMR90~1\AppData\Local\Temp\ccMBshSz.s:21091  .debug_str:0000000000000d1d .LASF1070
C:\Users\CYMR90~1\AppData\Local\Temp\ccMBshSz.s:23443  .debug_str:000000000000a24d .LASF1071
C:\Users\CYMR90~1\AppData\Local\Temp\ccMBshSz.s:29572  .debug_str:00000000000228b4 .LASF1072
C:\Users\CYMR90~1\AppData\Local\Temp\ccMBshSz.s:28112  .debug_str:000000000001cf0d .LASF1073
C:\Users\CYMR90~1\AppData\Local\Temp\ccMBshSz.s:31152  .debug_str:0000000000028f17 .LASF1074
C:\Users\CYMR90~1\AppData\Local\Temp\ccMBshSz.s:26708  .debug_str:000000000001741e .LASF1075
C:\Users\CYMR90~1\AppData\Local\Temp\ccMBshSz.s:21535  .debug_str:0000000000002879 .LASF1076
C:\Users\CYMR90~1\AppData\Local\Temp\ccMBshSz.s:31584  .debug_str:000000000002a9f5 .LASF1077
C:\Users\CYMR90~1\AppData\Local\Temp\ccMBshSz.s:22489  .debug_str:00000000000064c1 .LASF1078
C:\Users\CYMR90~1\AppData\Local\Temp\ccMBshSz.s:29046  .debug_str:000000000002095a .LASF1079
C:\Users\CYMR90~1\AppData\Local\Temp\ccMBshSz.s:24377  .debug_str:000000000000df20 .LASF1080
C:\Users\CYMR90~1\AppData\Local\Temp\ccMBshSz.s:27910  .debug_str:000000000001c170 .LASF1081
C:\Users\CYMR90~1\AppData\Local\Temp\ccMBshSz.s:30766  .debug_str:00000000000275cf .LASF1082
C:\Users\CYMR90~1\AppData\Local\Temp\ccMBshSz.s:26175  .debug_str:00000000000150bc .LASF1083
C:\Users\CYMR90~1\AppData\Local\Temp\ccMBshSz.s:29262  .debug_str:0000000000021647 .LASF1084
C:\Users\CYMR90~1\AppData\Local\Temp\ccMBshSz.s:22195  .debug_str:0000000000005303 .LASF1085
C:\Users\CYMR90~1\AppData\Local\Temp\ccMBshSz.s:21299  .debug_str:0000000000001a4c .LASF1086
C:\Users\CYMR90~1\AppData\Local\Temp\ccMBshSz.s:24411  .debug_str:000000000000e105 .LASF1087
C:\Users\CYMR90~1\AppData\Local\Temp\ccMBshSz.s:30474  .debug_str:0000000000026344 .LASF1088
C:\Users\CYMR90~1\AppData\Local\Temp\ccMBshSz.s:29566  .debug_str:000000000002285c .LASF1089
C:\Users\CYMR90~1\AppData\Local\Temp\ccMBshSz.s:21143  .debug_str:0000000000001088 .LASF1090
C:\Users\CYMR90~1\AppData\Local\Temp\ccMBshSz.s:32120  .debug_str:000000000002cc0a .LASF1091
C:\Users\CYMR90~1\AppData\Local\Temp\ccMBshSz.s:30870  .debug_str:0000000000027c29 .LASF1092
C:\Users\CYMR90~1\AppData\Local\Temp\ccMBshSz.s:24761  .debug_str:000000000000f61e .LASF1093
C:\Users\CYMR90~1\AppData\Local\Temp\ccMBshSz.s:30522  .debug_str:0000000000026618 .LASF1094
C:\Users\CYMR90~1\AppData\Local\Temp\ccMBshSz.s:26265  .debug_str:00000000000155d6 .LASF1095
C:\Users\CYMR90~1\AppData\Local\Temp\ccMBshSz.s:27712  .debug_str:000000000001b538 .LASF1096
C:\Users\CYMR90~1\AppData\Local\Temp\ccMBshSz.s:28258  .debug_str:000000000001d8e3 .LASF1097
C:\Users\CYMR90~1\AppData\Local\Temp\ccMBshSz.s:22477  .debug_str:000000000000641c .LASF1098
C:\Users\CYMR90~1\AppData\Local\Temp\ccMBshSz.s:25613  .debug_str:0000000000012cf7 .LASF1099
C:\Users\CYMR90~1\AppData\Local\Temp\ccMBshSz.s:24927  .debug_str:0000000000010100 .LASF1100
C:\Users\CYMR90~1\AppData\Local\Temp\ccMBshSz.s:29844  .debug_str:000000000002392b .LASF1101
C:\Users\CYMR90~1\AppData\Local\Temp\ccMBshSz.s:24105  .debug_str:000000000000ce3d .LASF1102
C:\Users\CYMR90~1\AppData\Local\Temp\ccMBshSz.s:29512  .debug_str:00000000000224dd .LASF1103
C:\Users\CYMR90~1\AppData\Local\Temp\ccMBshSz.s:31100  .debug_str:0000000000028c3f .LASF1104
C:\Users\CYMR90~1\AppData\Local\Temp\ccMBshSz.s:28934  .debug_str:0000000000020201 .LASF1105
C:\Users\CYMR90~1\AppData\Local\Temp\ccMBshSz.s:25801  .debug_str:000000000001391d .LASF1106
C:\Users\CYMR90~1\AppData\Local\Temp\ccMBshSz.s:29760  .debug_str:00000000000233a9 .LASF1107
C:\Users\CYMR90~1\AppData\Local\Temp\ccMBshSz.s:27634  .debug_str:000000000001b06c .LASF1108
C:\Users\CYMR90~1\AppData\Local\Temp\ccMBshSz.s:22493  .debug_str:00000000000064fd .LASF1109
C:\Users\CYMR90~1\AppData\Local\Temp\ccMBshSz.s:23473  .debug_str:000000000000a428 .LASF1110
C:\Users\CYMR90~1\AppData\Local\Temp\ccMBshSz.s:21361  .debug_str:0000000000001e2d .LASF1111
C:\Users\CYMR90~1\AppData\Local\Temp\ccMBshSz.s:22587  .debug_str:0000000000006adc .LASF1112
C:\Users\CYMR90~1\AppData\Local\Temp\ccMBshSz.s:23693  .debug_str:000000000000b329 .LASF1113
C:\Users\CYMR90~1\AppData\Local\Temp\ccMBshSz.s:22243  .debug_str:00000000000055ef .LASF1114
C:\Users\CYMR90~1\AppData\Local\Temp\ccMBshSz.s:23257  .debug_str:00000000000096bb .LASF1115
C:\Users\CYMR90~1\AppData\Local\Temp\ccMBshSz.s:30950  .debug_str:000000000002819f .LASF1116
C:\Users\CYMR90~1\AppData\Local\Temp\ccMBshSz.s:31450  .debug_str:000000000002a18b .LASF1117
C:\Users\CYMR90~1\AppData\Local\Temp\ccMBshSz.s:22397  .debug_str:0000000000005f14 .LASF1118
C:\Users\CYMR90~1\AppData\Local\Temp\ccMBshSz.s:26868  .debug_str:0000000000017de7 .LASF1119
C:\Users\CYMR90~1\AppData\Local\Temp\ccMBshSz.s:22943  .debug_str:0000000000008351 .LASF1120
C:\Users\CYMR90~1\AppData\Local\Temp\ccMBshSz.s:23157  .debug_str:00000000000090be .LASF1121
C:\Users\CYMR90~1\AppData\Local\Temp\ccMBshSz.s:25731  .debug_str:00000000000134f4 .LASF1122
C:\Users\CYMR90~1\AppData\Local\Temp\ccMBshSz.s:25369  .debug_str:0000000000011d34 .LASF1123
C:\Users\CYMR90~1\AppData\Local\Temp\ccMBshSz.s:29022  .debug_str:00000000000207d4 .LASF1124
C:\Users\CYMR90~1\AppData\Local\Temp\ccMBshSz.s:26181  .debug_str:0000000000015102 .LASF1125
C:\Users\CYMR90~1\AppData\Local\Temp\ccMBshSz.s:26285  .debug_str:000000000001570f .LASF1126
C:\Users\CYMR90~1\AppData\Local\Temp\ccMBshSz.s:29654  .debug_str:0000000000022dd2 .LASF1127
C:\Users\CYMR90~1\AppData\Local\Temp\ccMBshSz.s:30764  .debug_str:00000000000275ba .LASF1128
C:\Users\CYMR90~1\AppData\Local\Temp\ccMBshSz.s:22287  .debug_str:000000000000588a .LASF1129
C:\Users\CYMR90~1\AppData\Local\Temp\ccMBshSz.s:26283  .debug_str:00000000000156fa .LASF1130
C:\Users\CYMR90~1\AppData\Local\Temp\ccMBshSz.s:31288  .debug_str:00000000000297c6 .LASF1131
C:\Users\CYMR90~1\AppData\Local\Temp\ccMBshSz.s:31688  .debug_str:000000000002b033 .LASF1132
C:\Users\CYMR90~1\AppData\Local\Temp\ccMBshSz.s:26978  .debug_str:0000000000018476 .LASF1133
C:\Users\CYMR90~1\AppData\Local\Temp\ccMBshSz.s:29812  .debug_str:00000000000236f7 .LASF1134
C:\Users\CYMR90~1\AppData\Local\Temp\ccMBshSz.s:22831  .debug_str:0000000000007af6 .LASF1135
C:\Users\CYMR90~1\AppData\Local\Temp\ccMBshSz.s:22061  .debug_str:0000000000004ad4 .LASF1136
C:\Users\CYMR90~1\AppData\Local\Temp\ccMBshSz.s:21893  .debug_str:0000000000003ed6 .LASF1137
C:\Users\CYMR90~1\AppData\Local\Temp\ccMBshSz.s:31298  .debug_str:00000000000298a2 .LASF1138
C:\Users\CYMR90~1\AppData\Local\Temp\ccMBshSz.s:21009  .debug_str:00000000000007de .LASF1139
C:\Users\CYMR90~1\AppData\Local\Temp\ccMBshSz.s:31284  .debug_str:0000000000029799 .LASF1140
C:\Users\CYMR90~1\AppData\Local\Temp\ccMBshSz.s:20951  .debug_str:000000000000049a .LASF1141
C:\Users\CYMR90~1\AppData\Local\Temp\ccMBshSz.s:25161  .debug_str:0000000000010f39 .LASF1142
C:\Users\CYMR90~1\AppData\Local\Temp\ccMBshSz.s:24417  .debug_str:000000000000e178 .LASF1143
C:\Users\CYMR90~1\AppData\Local\Temp\ccMBshSz.s:30820  .debug_str:00000000000278d5 .LASF1144
C:\Users\CYMR90~1\AppData\Local\Temp\ccMBshSz.s:28982  .debug_str:00000000000204fd .LASF1145
C:\Users\CYMR90~1\AppData\Local\Temp\ccMBshSz.s:23947  .debug_str:000000000000c40f .LASF1146
C:\Users\CYMR90~1\AppData\Local\Temp\ccMBshSz.s:32116  .debug_str:000000000002cbb8 .LASF1147
C:\Users\CYMR90~1\AppData\Local\Temp\ccMBshSz.s:26732  .debug_str:000000000001757e .LASF1148
C:\Users\CYMR90~1\AppData\Local\Temp\ccMBshSz.s:26986  .debug_str:0000000000018523 .LASF1149
C:\Users\CYMR90~1\AppData\Local\Temp\ccMBshSz.s:27730  .debug_str:000000000001b644 .LASF1150
C:\Users\CYMR90~1\AppData\Local\Temp\ccMBshSz.s:21363  .debug_str:0000000000001e4b .LASF1151
C:\Users\CYMR90~1\AppData\Local\Temp\ccMBshSz.s:28166  .debug_str:000000000001d317 .LASF1152
C:\Users\CYMR90~1\AppData\Local\Temp\ccMBshSz.s:23283  .debug_str:000000000000980f .LASF1153
C:\Users\CYMR90~1\AppData\Local\Temp\ccMBshSz.s:29276  .debug_str:00000000000216f9 .LASF1154
C:\Users\CYMR90~1\AppData\Local\Temp\ccMBshSz.s:28514  .debug_str:000000000001e902 .LASF1155
C:\Users\CYMR90~1\AppData\Local\Temp\ccMBshSz.s:22177  .debug_str:00000000000051e9 .LASF1156
C:\Users\CYMR90~1\AppData\Local\Temp\ccMBshSz.s:28354  .debug_str:000000000001df1d .LASF1157
C:\Users\CYMR90~1\AppData\Local\Temp\ccMBshSz.s:23711  .debug_str:000000000000b419 .LASF1158
C:\Users\CYMR90~1\AppData\Local\Temp\ccMBshSz.s:31466  .debug_str:000000000002a2aa .LASF1159
C:\Users\CYMR90~1\AppData\Local\Temp\ccMBshSz.s:21247  .debug_str:000000000000168a .LASF1160
C:\Users\CYMR90~1\AppData\Local\Temp\ccMBshSz.s:31546  .debug_str:000000000002a79d .LASF1161
C:\Users\CYMR90~1\AppData\Local\Temp\ccMBshSz.s:31234  .debug_str:0000000000029424 .LASF1162
C:\Users\CYMR90~1\AppData\Local\Temp\ccMBshSz.s:28244  .debug_str:000000000001d80c .LASF1163
C:\Users\CYMR90~1\AppData\Local\Temp\ccMBshSz.s:27368  .debug_str:0000000000019e57 .LASF1164
C:\Users\CYMR90~1\AppData\Local\Temp\ccMBshSz.s:24245  .debug_str:000000000000d78e .LASF1165
C:\Users\CYMR90~1\AppData\Local\Temp\ccMBshSz.s:28904  .debug_str:000000000002005e .LASF1166
C:\Users\CYMR90~1\AppData\Local\Temp\ccMBshSz.s:25119  .debug_str:0000000000010cef .LASF1167
C:\Users\CYMR90~1\AppData\Local\Temp\ccMBshSz.s:23281  .debug_str:0000000000009805 .LASF1168
C:\Users\CYMR90~1\AppData\Local\Temp\ccMBshSz.s:26219  .debug_str:0000000000015362 .LASF1169
C:\Users\CYMR90~1\AppData\Local\Temp\ccMBshSz.s:27576  .debug_str:000000000001ac8a .LASF1170
C:\Users\CYMR90~1\AppData\Local\Temp\ccMBshSz.s:27282  .debug_str:00000000000198b0 .LASF1171
C:\Users\CYMR90~1\AppData\Local\Temp\ccMBshSz.s:21001  .debug_str:0000000000000772 .LASF1172
C:\Users\CYMR90~1\AppData\Local\Temp\ccMBshSz.s:26509  .debug_str:0000000000016518 .LASF1173
C:\Users\CYMR90~1\AppData\Local\Temp\ccMBshSz.s:21073  .debug_str:0000000000000c36 .LASF1174
C:\Users\CYMR90~1\AppData\Local\Temp\ccMBshSz.s:21471  .debug_str:0000000000002420 .LASF1175
C:\Users\CYMR90~1\AppData\Local\Temp\ccMBshSz.s:25701  .debug_str:0000000000013321 .LASF1176
C:\Users\CYMR90~1\AppData\Local\Temp\ccMBshSz.s:24051  .debug_str:000000000000cb4c .LASF1177
C:\Users\CYMR90~1\AppData\Local\Temp\ccMBshSz.s:28306  .debug_str:000000000001dbe1 .LASF1178
C:\Users\CYMR90~1\AppData\Local\Temp\ccMBshSz.s:24655  .debug_str:000000000000efbf .LASF1179
C:\Users\CYMR90~1\AppData\Local\Temp\ccMBshSz.s:24231  .debug_str:000000000000d6df .LASF1180
C:\Users\CYMR90~1\AppData\Local\Temp\ccMBshSz.s:30018  .debug_str:0000000000024481 .LASF1181
C:\Users\CYMR90~1\AppData\Local\Temp\ccMBshSz.s:23093  .debug_str:0000000000008ce4 .LASF1182
C:\Users\CYMR90~1\AppData\Local\Temp\ccMBshSz.s:21643  .debug_str:0000000000002efe .LASF1183
C:\Users\CYMR90~1\AppData\Local\Temp\ccMBshSz.s:28622  .debug_str:000000000001eefd .LASF1184
C:\Users\CYMR90~1\AppData\Local\Temp\ccMBshSz.s:29076  .debug_str:0000000000020ae5 .LASF1185
C:\Users\CYMR90~1\AppData\Local\Temp\ccMBshSz.s:30258  .debug_str:00000000000254ec .LASF1186
C:\Users\CYMR90~1\AppData\Local\Temp\ccMBshSz.s:24157  .debug_str:000000000000d16e .LASF1187
C:\Users\CYMR90~1\AppData\Local\Temp\ccMBshSz.s:28386  .debug_str:000000000001e105 .LASF1188
C:\Users\CYMR90~1\AppData\Local\Temp\ccMBshSz.s:29620  .debug_str:0000000000022c08 .LASF1189
C:\Users\CYMR90~1\AppData\Local\Temp\ccMBshSz.s:22835  .debug_str:0000000000007b27 .LASF1190
C:\Users\CYMR90~1\AppData\Local\Temp\ccMBshSz.s:29602  .debug_str:0000000000022a8b .LASF1191
C:\Users\CYMR90~1\AppData\Local\Temp\ccMBshSz.s:24027  .debug_str:000000000000c98f .LASF1192
C:\Users\CYMR90~1\AppData\Local\Temp\ccMBshSz.s:29264  .debug_str:0000000000021659 .LASF1193
C:\Users\CYMR90~1\AppData\Local\Temp\ccMBshSz.s:24273  .debug_str:000000000000d8f8 .LASF1194
C:\Users\CYMR90~1\AppData\Local\Temp\ccMBshSz.s:27834  .debug_str:000000000001bc34 .LASF1195
C:\Users\CYMR90~1\AppData\Local\Temp\ccMBshSz.s:25853  .debug_str:0000000000013c4a .LASF1196
C:\Users\CYMR90~1\AppData\Local\Temp\ccMBshSz.s:29300  .debug_str:00000000000218a1 .LASF1197
C:\Users\CYMR90~1\AppData\Local\Temp\ccMBshSz.s:31490  .debug_str:000000000002a403 .LASF1198
C:\Users\CYMR90~1\AppData\Local\Temp\ccMBshSz.s:26531  .debug_str:00000000000166e8 .LASF1199
C:\Users\CYMR90~1\AppData\Local\Temp\ccMBshSz.s:31496  .debug_str:000000000002a438 .LASF1200
C:\Users\CYMR90~1\AppData\Local\Temp\ccMBshSz.s:23535  .debug_str:000000000000a7d9 .LASF1201
C:\Users\CYMR90~1\AppData\Local\Temp\ccMBshSz.s:23191  .debug_str:00000000000092b6 .LASF1202
C:\Users\CYMR90~1\AppData\Local\Temp\ccMBshSz.s:26720  .debug_str:00000000000174dd .LASF1203
C:\Users\CYMR90~1\AppData\Local\Temp\ccMBshSz.s:30592  .debug_str:0000000000026a7c .LASF1204
C:\Users\CYMR90~1\AppData\Local\Temp\ccMBshSz.s:25759  .debug_str:00000000000136c7 .LASF1205
C:\Users\CYMR90~1\AppData\Local\Temp\ccMBshSz.s:24821  .debug_str:000000000000fa4b .LASF1206
C:\Users\CYMR90~1\AppData\Local\Temp\ccMBshSz.s:31464  .debug_str:000000000002a29e .LASF1207
C:\Users\CYMR90~1\AppData\Local\Temp\ccMBshSz.s:30108  .debug_str:0000000000024a66 .LASF1208
C:\Users\CYMR90~1\AppData\Local\Temp\ccMBshSz.s:24753  .debug_str:000000000000f5c1 .LASF1209
C:\Users\CYMR90~1\AppData\Local\Temp\ccMBshSz.s:22189  .debug_str:000000000000529b .LASF1210
C:\Users\CYMR90~1\AppData\Local\Temp\ccMBshSz.s:22289  .debug_str:00000000000058a0 .LASF1211
C:\Users\CYMR90~1\AppData\Local\Temp\ccMBshSz.s:22981  .debug_str:00000000000085de .LASF1212
C:\Users\CYMR90~1\AppData\Local\Temp\ccMBshSz.s:22581  .debug_str:0000000000006a5c .LASF1213
C:\Users\CYMR90~1\AppData\Local\Temp\ccMBshSz.s:21481  .debug_str:00000000000024dc .LASF1214
C:\Users\CYMR90~1\AppData\Local\Temp\ccMBshSz.s:23327  .debug_str:0000000000009b45 .LASF1215
C:\Users\CYMR90~1\AppData\Local\Temp\ccMBshSz.s:21421  .debug_str:0000000000002172 .LASF1216
C:\Users\CYMR90~1\AppData\Local\Temp\ccMBshSz.s:29718  .debug_str:000000000002313e .LASF1217
C:\Users\CYMR90~1\AppData\Local\Temp\ccMBshSz.s:29732  .debug_str:00000000000231ef .LASF1218
C:\Users\CYMR90~1\AppData\Local\Temp\ccMBshSz.s:30162  .debug_str:0000000000024df7 .LASF1219
C:\Users\CYMR90~1\AppData\Local\Temp\ccMBshSz.s:27716  .debug_str:000000000001b56c .LASF1220
C:\Users\CYMR90~1\AppData\Local\Temp\ccMBshSz.s:24311  .debug_str:000000000000db06 .LASF1221
C:\Users\CYMR90~1\AppData\Local\Temp\ccMBshSz.s:26029  .debug_str:0000000000014731 .LASF1222
C:\Users\CYMR90~1\AppData\Local\Temp\ccMBshSz.s:21663  .debug_str:0000000000003032 .LASF1223
C:\Users\CYMR90~1\AppData\Local\Temp\ccMBshSz.s:27460  .debug_str:000000000001a551 .LASF1224
C:\Users\CYMR90~1\AppData\Local\Temp\ccMBshSz.s:30784  .debug_str:00000000000276ea .LASF1225
C:\Users\CYMR90~1\AppData\Local\Temp\ccMBshSz.s:23795  .debug_str:000000000000b9d8 .LASF1226
C:\Users\CYMR90~1\AppData\Local\Temp\ccMBshSz.s:22723  .debug_str:00000000000073f7 .LASF1227
C:\Users\CYMR90~1\AppData\Local\Temp\ccMBshSz.s:21761  .debug_str:000000000000368e .LASF1228
C:\Users\CYMR90~1\AppData\Local\Temp\ccMBshSz.s:32174  .debug_str:000000000002cfb6 .LASF1229
C:\Users\CYMR90~1\AppData\Local\Temp\ccMBshSz.s:31214  .debug_str:00000000000292fd .LASF1230
C:\Users\CYMR90~1\AppData\Local\Temp\ccMBshSz.s:30224  .debug_str:0000000000025227 .LASF1231
C:\Users\CYMR90~1\AppData\Local\Temp\ccMBshSz.s:29250  .debug_str:000000000002158d .LASF1232
C:\Users\CYMR90~1\AppData\Local\Temp\ccMBshSz.s:29134  .debug_str:0000000000020e69 .LASF1233
C:\Users\CYMR90~1\AppData\Local\Temp\ccMBshSz.s:28184  .debug_str:000000000001d40f .LASF1234
C:\Users\CYMR90~1\AppData\Local\Temp\ccMBshSz.s:27238  .debug_str:00000000000195b9 .LASF1235
C:\Users\CYMR90~1\AppData\Local\Temp\ccMBshSz.s:25927  .debug_str:0000000000014105 .LASF1236
C:\Users\CYMR90~1\AppData\Local\Temp\ccMBshSz.s:25287  .debug_str:00000000000117d4 .LASF1237
C:\Users\CYMR90~1\AppData\Local\Temp\ccMBshSz.s:27752  .debug_str:000000000001b7ad .LASF1238
C:\Users\CYMR90~1\AppData\Local\Temp\ccMBshSz.s:23403  .debug_str:0000000000009fa1 .LASF1239
C:\Users\CYMR90~1\AppData\Local\Temp\ccMBshSz.s:22393  .debug_str:0000000000005ed3 .LASF1240
C:\Users\CYMR90~1\AppData\Local\Temp\ccMBshSz.s:21437  .debug_str:000000000000225e .LASF1241
C:\Users\CYMR90~1\AppData\Local\Temp\ccMBshSz.s:31884  .debug_str:000000000002bc9a .LASF1242
C:\Users\CYMR90~1\AppData\Local\Temp\ccMBshSz.s:20965  .debug_str:000000000000054e .LASF1243
C:\Users\CYMR90~1\AppData\Local\Temp\ccMBshSz.s:31362  .debug_str:0000000000029c80 .LASF1244
C:\Users\CYMR90~1\AppData\Local\Temp\ccMBshSz.s:30374  .debug_str:0000000000025d26 .LASF1245
C:\Users\CYMR90~1\AppData\Local\Temp\ccMBshSz.s:29414  .debug_str:0000000000021f71 .LASF1246
C:\Users\CYMR90~1\AppData\Local\Temp\ccMBshSz.s:28426  .debug_str:000000000001e35b .LASF1247
C:\Users\CYMR90~1\AppData\Local\Temp\ccMBshSz.s:27522  .debug_str:000000000001a92a .LASF1248
C:\Users\CYMR90~1\AppData\Local\Temp\ccMBshSz.s:26575  .debug_str:00000000000169eb .LASF1249
C:\Users\CYMR90~1\AppData\Local\Temp\ccMBshSz.s:25617  .debug_str:0000000000012d5a .LASF1250
C:\Users\CYMR90~1\AppData\Local\Temp\ccMBshSz.s:24661  .debug_str:000000000000f00b .LASF1251
C:\Users\CYMR90~1\AppData\Local\Temp\ccMBshSz.s:26830  .debug_str:0000000000017be3 .LASF1252
C:\Users\CYMR90~1\AppData\Local\Temp\ccMBshSz.s:24167  .debug_str:000000000000d21e .LASF1253
C:\Users\CYMR90~1\AppData\Local\Temp\ccMBshSz.s:23205  .debug_str:0000000000009371 .LASF1254
C:\Users\CYMR90~1\AppData\Local\Temp\ccMBshSz.s:21207  .debug_str:0000000000001459 .LASF1255
C:\Users\CYMR90~1\AppData\Local\Temp\ccMBshSz.s:24083  .debug_str:000000000000cd20 .LASF1256
C:\Users\CYMR90~1\AppData\Local\Temp\ccMBshSz.s:22349  .debug_str:0000000000005c7a .LASF1257
C:\Users\CYMR90~1\AppData\Local\Temp\ccMBshSz.s:27104  .debug_str:0000000000018cde .LASF1258
C:\Users\CYMR90~1\AppData\Local\Temp\ccMBshSz.s:27106  .debug_str:0000000000018cf1 .LASF1259
C:\Users\CYMR90~1\AppData\Local\Temp\ccMBshSz.s:29606  .debug_str:0000000000022abb .LASF1260
C:\Users\CYMR90~1\AppData\Local\Temp\ccMBshSz.s:27710  .debug_str:000000000001b525 .LASF1261
C:\Users\CYMR90~1\AppData\Local\Temp\ccMBshSz.s:25091  .debug_str:0000000000010bb5 .LASF1262
C:\Users\CYMR90~1\AppData\Local\Temp\ccMBshSz.s:22247  .debug_str:0000000000005632 .LASF1263
C:\Users\CYMR90~1\AppData\Local\Temp\ccMBshSz.s:24393  .debug_str:000000000000dff7 .LASF1264
C:\Users\CYMR90~1\AppData\Local\Temp\ccMBshSz.s:26597  .debug_str:0000000000016bec .LASF1265
C:\Users\CYMR90~1\AppData\Local\Temp\ccMBshSz.s:24445  .debug_str:000000000000e329 .LASF1266
C:\Users\CYMR90~1\AppData\Local\Temp\ccMBshSz.s:29632  .debug_str:0000000000022cb5 .LASF1267
C:\Users\CYMR90~1\AppData\Local\Temp\ccMBshSz.s:29806  .debug_str:00000000000236ad .LASF1268
C:\Users\CYMR90~1\AppData\Local\Temp\ccMBshSz.s:25223  .debug_str:00000000000112dc .LASF1269
C:\Users\CYMR90~1\AppData\Local\Temp\ccMBshSz.s:31936  .debug_str:000000000002bfd5 .LASF1270
C:\Users\CYMR90~1\AppData\Local\Temp\ccMBshSz.s:26832  .debug_str:0000000000017bfa .LASF1271
C:\Users\CYMR90~1\AppData\Local\Temp\ccMBshSz.s:31326  .debug_str:0000000000029a74 .LASF1272
C:\Users\CYMR90~1\AppData\Local\Temp\ccMBshSz.s:28308  .debug_str:000000000001dbee .LASF1273
C:\Users\CYMR90~1\AppData\Local\Temp\ccMBshSz.s:21029  .debug_str:000000000000091b .LASF1274
C:\Users\CYMR90~1\AppData\Local\Temp\ccMBshSz.s:27116  .debug_str:0000000000018d9d .LASF1275
C:\Users\CYMR90~1\AppData\Local\Temp\ccMBshSz.s:21133  .debug_str:0000000000001004 .LASF1276
C:\Users\CYMR90~1\AppData\Local\Temp\ccMBshSz.s:23425  .debug_str:000000000000a129 .LASF1277
C:\Users\CYMR90~1\AppData\Local\Temp\ccMBshSz.s:22411  .debug_str:0000000000005fee .LASF1278
C:\Users\CYMR90~1\AppData\Local\Temp\ccMBshSz.s:21469  .debug_str:000000000000240e .LASF1279
C:\Users\CYMR90~1\AppData\Local\Temp\ccMBshSz.s:31904  .debug_str:000000000002bdb7 .LASF1280
C:\Users\CYMR90~1\AppData\Local\Temp\ccMBshSz.s:22307  .debug_str:00000000000059d1 .LASF1281
C:\Users\CYMR90~1\AppData\Local\Temp\ccMBshSz.s:21353  .debug_str:0000000000001da9 .LASF1282
C:\Users\CYMR90~1\AppData\Local\Temp\ccMBshSz.s:28466  .debug_str:000000000001e5fe .LASF1283
C:\Users\CYMR90~1\AppData\Local\Temp\ccMBshSz.s:30816  .debug_str:000000000002789c .LASF1284
C:\Users\CYMR90~1\AppData\Local\Temp\ccMBshSz.s:29834  .debug_str:00000000000238a5 .LASF1285
C:\Users\CYMR90~1\AppData\Local\Temp\ccMBshSz.s:28856  .debug_str:000000000001fd39 .LASF1286
C:\Users\CYMR90~1\AppData\Local\Temp\ccMBshSz.s:27902  .debug_str:000000000001c0ca .LASF1287
C:\Users\CYMR90~1\AppData\Local\Temp\ccMBshSz.s:26938  .debug_str:000000000001821e .LASF1288
C:\Users\CYMR90~1\AppData\Local\Temp\ccMBshSz.s:25969  .debug_str:0000000000014372 .LASF1289
C:\Users\CYMR90~1\AppData\Local\Temp\ccMBshSz.s:25021  .debug_str:0000000000010698 .LASF1290
C:\Users\CYMR90~1\AppData\Local\Temp\ccMBshSz.s:29360  .debug_str:0000000000021c3f .LASF1291
C:\Users\CYMR90~1\AppData\Local\Temp\ccMBshSz.s:28374  .debug_str:000000000001e05b .LASF1292
C:\Users\CYMR90~1\AppData\Local\Temp\ccMBshSz.s:27458  .debug_str:000000000001a53d .LASF1293
C:\Users\CYMR90~1\AppData\Local\Temp\ccMBshSz.s:26465  .debug_str:00000000000162a5 .LASF1294
C:\Users\CYMR90~1\AppData\Local\Temp\ccMBshSz.s:25513  .debug_str:0000000000012672 .LASF1295
C:\Users\CYMR90~1\AppData\Local\Temp\ccMBshSz.s:24549  .debug_str:000000000000e9bb .LASF1296
C:\Users\CYMR90~1\AppData\Local\Temp\ccMBshSz.s:23927  .debug_str:000000000000c2f1 .LASF1297
C:\Users\CYMR90~1\AppData\Local\Temp\ccMBshSz.s:28824  .debug_str:000000000001fb34 .LASF1298
C:\Users\CYMR90~1\AppData\Local\Temp\ccMBshSz.s:27872  .debug_str:000000000001bed2 .LASF1299
C:\Users\CYMR90~1\AppData\Local\Temp\ccMBshSz.s:26906  .debug_str:0000000000018025 .LASF1300
C:\Users\CYMR90~1\AppData\Local\Temp\ccMBshSz.s:27846  .debug_str:000000000001bd08 .LASF1301
C:\Users\CYMR90~1\AppData\Local\Temp\ccMBshSz.s:29072  .debug_str:0000000000020ac2 .LASF1302
C:\Users\CYMR90~1\AppData\Local\Temp\ccMBshSz.s:26507  .debug_str:0000000000016505 .LASF1303
C:\Users\CYMR90~1\AppData\Local\Temp\ccMBshSz.s:27376  .debug_str:0000000000019ed5 .LASF1304
C:\Users\CYMR90~1\AppData\Local\Temp\ccMBshSz.s:27350  .debug_str:0000000000019d67 .LASF1305
C:\Users\CYMR90~1\AppData\Local\Temp\ccMBshSz.s:23097  .debug_str:0000000000008d18 .LASF1306
C:\Users\CYMR90~1\AppData\Local\Temp\ccMBshSz.s:22091  .debug_str:0000000000004cc8 .LASF1307
C:\Users\CYMR90~1\AppData\Local\Temp\ccMBshSz.s:21145  .debug_str:000000000000109a .LASF1308
C:\Users\CYMR90~1\AppData\Local\Temp\ccMBshSz.s:31562  .debug_str:000000000002a89c .LASF1309
C:\Users\CYMR90~1\AppData\Local\Temp\ccMBshSz.s:30588  .debug_str:0000000000026a41 .LASF1310
C:\Users\CYMR90~1\AppData\Local\Temp\ccMBshSz.s:29608  .debug_str:0000000000022acc .LASF1311
C:\Users\CYMR90~1\AppData\Local\Temp\ccMBshSz.s:25833  .debug_str:0000000000013b17 .LASF1312
C:\Users\CYMR90~1\AppData\Local\Temp\ccMBshSz.s:24405  .debug_str:000000000000e0b0 .LASF1313
C:\Users\CYMR90~1\AppData\Local\Temp\ccMBshSz.s:25673  .debug_str:00000000000130f0 .LASF1314
C:\Users\CYMR90~1\AppData\Local\Temp\ccMBshSz.s:31782  .debug_str:000000000002b608 .LASF1315
C:\Users\CYMR90~1\AppData\Local\Temp\ccMBshSz.s:30302  .debug_str:000000000002580f .LASF1316
C:\Users\CYMR90~1\AppData\Local\Temp\ccMBshSz.s:29826  .debug_str:0000000000023809 .LASF1317
C:\Users\CYMR90~1\AppData\Local\Temp\ccMBshSz.s:28848  .debug_str:000000000001fccc .LASF1318
C:\Users\CYMR90~1\AppData\Local\Temp\ccMBshSz.s:27914  .debug_str:000000000001c19b .LASF1319
C:\Users\CYMR90~1\AppData\Local\Temp\ccMBshSz.s:26948  .debug_str:00000000000182cc .LASF1320
C:\Users\CYMR90~1\AppData\Local\Temp\ccMBshSz.s:25979  .debug_str:00000000000143e8 .LASF1321
C:\Users\CYMR90~1\AppData\Local\Temp\ccMBshSz.s:25027  .debug_str:00000000000106f3 .LASF1322
C:\Users\CYMR90~1\AppData\Local\Temp\ccMBshSz.s:25485  .debug_str:00000000000124a1 .LASF1323
C:\Users\CYMR90~1\AppData\Local\Temp\ccMBshSz.s:23931  .debug_str:000000000000c316 .LASF1324
C:\Users\CYMR90~1\AppData\Local\Temp\ccMBshSz.s:23585  .debug_str:000000000000abd1 .LASF1325
C:\Users\CYMR90~1\AppData\Local\Temp\ccMBshSz.s:22589  .debug_str:0000000000006af8 .LASF1326
C:\Users\CYMR90~1\AppData\Local\Temp\ccMBshSz.s:21619  .debug_str:0000000000002d9d .LASF1327
C:\Users\CYMR90~1\AppData\Local\Temp\ccMBshSz.s:32058  .debug_str:000000000002c7ef .LASF1328
C:\Users\CYMR90~1\AppData\Local\Temp\ccMBshSz.s:31128  .debug_str:0000000000028db8 .LASF1329
C:\Users\CYMR90~1\AppData\Local\Temp\ccMBshSz.s:30142  .debug_str:0000000000024c89 .LASF1330
C:\Users\CYMR90~1\AppData\Local\Temp\ccMBshSz.s:29172  .debug_str:0000000000021073 .LASF1331
C:\Users\CYMR90~1\AppData\Local\Temp\ccMBshSz.s:28216  .debug_str:000000000001d619 .LASF1332
C:\Users\CYMR90~1\AppData\Local\Temp\ccMBshSz.s:28644  .debug_str:000000000001f076 .LASF1333
C:\Users\CYMR90~1\AppData\Local\Temp\ccMBshSz.s:27724  .debug_str:000000000001b5e8 .LASF1334
C:\Users\CYMR90~1\AppData\Local\Temp\ccMBshSz.s:26427  .debug_str:0000000000016042 .LASF1335
C:\Users\CYMR90~1\AppData\Local\Temp\ccMBshSz.s:24079  .debug_str:000000000000ccf5 .LASF1336
C:\Users\CYMR90~1\AppData\Local\Temp\ccMBshSz.s:28864  .debug_str:000000000001fd98 .LASF1337
C:\Users\CYMR90~1\AppData\Local\Temp\ccMBshSz.s:25367  .debug_str:0000000000011d1f .LASF1338
C:\Users\CYMR90~1\AppData\Local\Temp\ccMBshSz.s:21251  .debug_str:00000000000016c2 .LASF1339
C:\Users\CYMR90~1\AppData\Local\Temp\ccMBshSz.s:23373  .debug_str:0000000000009df1 .LASF1340
C:\Users\CYMR90~1\AppData\Local\Temp\ccMBshSz.s:22365  .debug_str:0000000000005d48 .LASF1341
C:\Users\CYMR90~1\AppData\Local\Temp\ccMBshSz.s:21407  .debug_str:00000000000020bb .LASF1342
C:\Users\CYMR90~1\AppData\Local\Temp\ccMBshSz.s:31860  .debug_str:000000000002bb17 .LASF1343
C:\Users\CYMR90~1\AppData\Local\Temp\ccMBshSz.s:31650  .debug_str:000000000002ad9d .LASF1344
C:\Users\CYMR90~1\AppData\Local\Temp\ccMBshSz.s:30672  .debug_str:0000000000026f52 .LASF1345
C:\Users\CYMR90~1\AppData\Local\Temp\ccMBshSz.s:29696  .debug_str:0000000000023031 .LASF1346
C:\Users\CYMR90~1\AppData\Local\Temp\ccMBshSz.s:31084  .debug_str:0000000000028b41 .LASF1347
C:\Users\CYMR90~1\AppData\Local\Temp\ccMBshSz.s:27772  .debug_str:000000000001b8b2 .LASF1348
C:\Users\CYMR90~1\AppData\Local\Temp\ccMBshSz.s:28298  .debug_str:000000000001db60 .LASF1349
C:\Users\CYMR90~1\AppData\Local\Temp\ccMBshSz.s:25845  .debug_str:0000000000013bd4 .LASF1350
C:\Users\CYMR90~1\AppData\Local\Temp\ccMBshSz.s:29008  .debug_str:00000000000206f6 .LASF1351
C:\Users\CYMR90~1\AppData\Local\Temp\ccMBshSz.s:23943  .debug_str:000000000000c3e4 .LASF1352
C:\Users\CYMR90~1\AppData\Local\Temp\ccMBshSz.s:22877  .debug_str:0000000000007e50 .LASF1353
C:\Users\CYMR90~1\AppData\Local\Temp\ccMBshSz.s:23457  .debug_str:000000000000a334 .LASF1354
C:\Users\CYMR90~1\AppData\Local\Temp\ccMBshSz.s:22443  .debug_str:000000000000620c .LASF1355
C:\Users\CYMR90~1\AppData\Local\Temp\ccMBshSz.s:21493  .debug_str:000000000000257c .LASF1356
C:\Users\CYMR90~1\AppData\Local\Temp\ccMBshSz.s:31932  .debug_str:000000000002bfb5 .LASF1357
C:\Users\CYMR90~1\AppData\Local\Temp\ccMBshSz.s:25939  .debug_str:00000000000141cd .LASF1358
C:\Users\CYMR90~1\AppData\Local\Temp\ccMBshSz.s:22583  .debug_str:0000000000006aa0 .LASF1359
C:\Users\CYMR90~1\AppData\Local\Temp\ccMBshSz.s:29054  .debug_str:00000000000209aa .LASF1360
C:\Users\CYMR90~1\AppData\Local\Temp\ccMBshSz.s:28006  .debug_str:000000000001c718 .LASF1361
C:\Users\CYMR90~1\AppData\Local\Temp\ccMBshSz.s:27050  .debug_str:00000000000188e0 .LASF1362
C:\Users\CYMR90~1\AppData\Local\Temp\ccMBshSz.s:31094  .debug_str:0000000000028bdb .LASF1363
C:\Users\CYMR90~1\AppData\Local\Temp\ccMBshSz.s:26351  .debug_str:0000000000015ad7 .LASF1364
C:\Users\CYMR90~1\AppData\Local\Temp\ccMBshSz.s:22999  .debug_str:00000000000086e1 .LASF1365
C:\Users\CYMR90~1\AppData\Local\Temp\ccMBshSz.s:30702  .debug_str:0000000000027127 .LASF1366
C:\Users\CYMR90~1\AppData\Local\Temp\ccMBshSz.s:29940  .debug_str:0000000000023ebc .LASF1367
C:\Users\CYMR90~1\AppData\Local\Temp\ccMBshSz.s:28946  .debug_str:00000000000202b7 .LASF1368
C:\Users\CYMR90~1\AppData\Local\Temp\ccMBshSz.s:27212  .debug_str:0000000000019403 .LASF1369
C:\Users\CYMR90~1\AppData\Local\Temp\ccMBshSz.s:31820  .debug_str:000000000002b855 .LASF1370
C:\Users\CYMR90~1\AppData\Local\Temp\ccMBshSz.s:28226  .debug_str:000000000001d6a4 .LASF1371
C:\Users\CYMR90~1\AppData\Local\Temp\ccMBshSz.s:21539  .debug_str:00000000000028b6 .LASF1372
C:\Users\CYMR90~1\AppData\Local\Temp\ccMBshSz.s:24121  .debug_str:000000000000cf32 .LASF1373
C:\Users\CYMR90~1\AppData\Local\Temp\ccMBshSz.s:27258  .debug_str:00000000000196ce .LASF1374
C:\Users\CYMR90~1\AppData\Local\Temp\ccMBshSz.s:30364  .debug_str:0000000000025c7b .LASF1375
C:\Users\CYMR90~1\AppData\Local\Temp\ccMBshSz.s:22119  .debug_str:0000000000004e82 .LASF1376
C:\Users\CYMR90~1\AppData\Local\Temp\ccMBshSz.s:25273  .debug_str:000000000001163c .LASF1377
C:\Users\CYMR90~1\AppData\Local\Temp\ccMBshSz.s:28380  .debug_str:000000000001e0b5 .LASF1378
C:\Users\CYMR90~1\AppData\Local\Temp\ccMBshSz.s:31558  .debug_str:000000000002a85f .LASF1379
C:\Users\CYMR90~1\AppData\Local\Temp\ccMBshSz.s:31526  .debug_str:000000000002a63e .LASF1380
C:\Users\CYMR90~1\AppData\Local\Temp\ccMBshSz.s:23217  .debug_str:0000000000009421 .LASF1381
C:\Users\CYMR90~1\AppData\Local\Temp\ccMBshSz.s:26321  .debug_str:0000000000015916 .LASF1382
C:\Users\CYMR90~1\AppData\Local\Temp\ccMBshSz.s:29456  .debug_str:00000000000221f1 .LASF1383
C:\Users\CYMR90~1\AppData\Local\Temp\ccMBshSz.s:21225  .debug_str:000000000000152b .LASF1384
C:\Users\CYMR90~1\AppData\Local\Temp\ccMBshSz.s:25743  .debug_str:00000000000135d8 .LASF1385
C:\Users\CYMR90~1\AppData\Local\Temp\ccMBshSz.s:27554  .debug_str:000000000001ab3b .LASF1386
C:\Users\CYMR90~1\AppData\Local\Temp\ccMBshSz.s:30662  .debug_str:0000000000026e91 .LASF1387
C:\Users\CYMR90~1\AppData\Local\Temp\ccMBshSz.s:22399  .debug_str:0000000000005f36 .LASF1388
C:\Users\CYMR90~1\AppData\Local\Temp\ccMBshSz.s:25469  .debug_str:00000000000123a0 .LASF1389
C:\Users\CYMR90~1\AppData\Local\Temp\ccMBshSz.s:24827  .debug_str:000000000000fa91 .LASF1390
C:\Users\CYMR90~1\AppData\Local\Temp\ccMBshSz.s:27856  .debug_str:000000000001bdbe .LASF1391
C:\Users\CYMR90~1\AppData\Local\Temp\ccMBshSz.s:31004  .debug_str:00000000000285bf .LASF1392
C:\Users\CYMR90~1\AppData\Local\Temp\ccMBshSz.s:22759  .debug_str:000000000000761b .LASF1393
C:\Users\CYMR90~1\AppData\Local\Temp\ccMBshSz.s:25873  .debug_str:0000000000013d66 .LASF1394
C:\Users\CYMR90~1\AppData\Local\Temp\ccMBshSz.s:21839  .debug_str:0000000000003b9c .LASF1395
C:\Users\CYMR90~1\AppData\Local\Temp\ccMBshSz.s:32232  .debug_str:000000000002d33d .LASF1396
C:\Users\CYMR90~1\AppData\Local\Temp\ccMBshSz.s:24001  .debug_str:000000000000c75c .LASF1397
C:\Users\CYMR90~1\AppData\Local\Temp\ccMBshSz.s:28592  .debug_str:000000000001ed4a .LASF1398
C:\Users\CYMR90~1\AppData\Local\Temp\ccMBshSz.s:25177  .debug_str:000000000001102e .LASF1399
C:\Users\CYMR90~1\AppData\Local\Temp\ccMBshSz.s:26491  .debug_str:000000000001641d .LASF1400
C:\Users\CYMR90~1\AppData\Local\Temp\ccMBshSz.s:21179  .debug_str:00000000000012a5 .LASF1401
C:\Users\CYMR90~1\AppData\Local\Temp\ccMBshSz.s:28926  .debug_str:00000000000201aa .LASF1402
C:\Users\CYMR90~1\AppData\Local\Temp\ccMBshSz.s:23831  .debug_str:000000000000bc4b .LASF1403
C:\Users\CYMR90~1\AppData\Local\Temp\ccMBshSz.s:28694  .debug_str:000000000001f393 .LASF1404
C:\Users\CYMR90~1\AppData\Local\Temp\ccMBshSz.s:21907  .debug_str:0000000000004016 .LASF1405
C:\Users\CYMR90~1\AppData\Local\Temp\ccMBshSz.s:31486  .debug_str:000000000002a3b3 .LASF1406
C:\Users\CYMR90~1\AppData\Local\Temp\ccMBshSz.s:29652  .debug_str:0000000000022dba .LASF1407
C:\Users\CYMR90~1\AppData\Local\Temp\ccMBshSz.s:29810  .debug_str:00000000000236df .LASF1408
C:\Users\CYMR90~1\AppData\Local\Temp\ccMBshSz.s:21571  .debug_str:0000000000002ab1 .LASF1409
C:\Users\CYMR90~1\AppData\Local\Temp\ccMBshSz.s:24735  .debug_str:000000000000f4ad .LASF1410
C:\Users\CYMR90~1\AppData\Local\Temp\ccMBshSz.s:31232  .debug_str:000000000002940b .LASF1411
C:\Users\CYMR90~1\AppData\Local\Temp\ccMBshSz.s:22987  .debug_str:0000000000008633 .LASF1412
C:\Users\CYMR90~1\AppData\Local\Temp\ccMBshSz.s:26093  .debug_str:0000000000014b1f .LASF1413
C:\Users\CYMR90~1\AppData\Local\Temp\ccMBshSz.s:29232  .debug_str:0000000000021478 .LASF1414
C:\Users\CYMR90~1\AppData\Local\Temp\ccMBshSz.s:21031  .debug_str:000000000000092e .LASF1415
C:\Users\CYMR90~1\AppData\Local\Temp\ccMBshSz.s:24089  .debug_str:000000000000cd5d .LASF1416
C:\Users\CYMR90~1\AppData\Local\Temp\ccMBshSz.s:27236  .debug_str:00000000000195a0 .LASF1417
C:\Users\CYMR90~1\AppData\Local\Temp\ccMBshSz.s:28756  .debug_str:000000000001f725 .LASF1418
C:\Users\CYMR90~1\AppData\Local\Temp\ccMBshSz.s:22099  .debug_str:0000000000004d32 .LASF1419
C:\Users\CYMR90~1\AppData\Local\Temp\ccMBshSz.s:25163  .debug_str:0000000000010f4f .LASF1420
C:\Users\CYMR90~1\AppData\Local\Temp\ccMBshSz.s:24505  .debug_str:000000000000e6f4 .LASF1421
C:\Users\CYMR90~1\AppData\Local\Temp\ccMBshSz.s:27664  .debug_str:000000000001b265 .LASF1422
C:\Users\CYMR90~1\AppData\Local\Temp\ccMBshSz.s:30782  .debug_str:00000000000276d1 .LASF1423
C:\Users\CYMR90~1\AppData\Local\Temp\ccMBshSz.s:21647  .debug_str:0000000000002f37 .LASF1424
C:\Users\CYMR90~1\AppData\Local\Temp\ccMBshSz.s:25677  .debug_str:000000000001311e .LASF1425
C:\Users\CYMR90~1\AppData\Local\Temp\ccMBshSz.s:28686  .debug_str:000000000001f2fa .LASF1426
C:\Users\CYMR90~1\AppData\Local\Temp\ccMBshSz.s:31942  .debug_str:000000000002c0a8 .LASF1427
C:\Users\CYMR90~1\AppData\Local\Temp\ccMBshSz.s:23709  .debug_str:000000000000b400 .LASF1428
C:\Users\CYMR90~1\AppData\Local\Temp\ccMBshSz.s:26808  .debug_str:0000000000017aa8 .LASF1429
C:\Users\CYMR90~1\AppData\Local\Temp\ccMBshSz.s:29950  .debug_str:0000000000023f5c .LASF1430
C:\Users\CYMR90~1\AppData\Local\Temp\ccMBshSz.s:28696  .debug_str:000000000001f3ab .LASF1431
C:\Users\CYMR90~1\AppData\Local\Temp\ccMBshSz.s:20989  .debug_str:00000000000006b0 .LASF1432
C:\Users\CYMR90~1\AppData\Local\Temp\ccMBshSz.s:29902  .debug_str:0000000000023c9d .LASF1433
C:\Users\CYMR90~1\AppData\Local\Temp\ccMBshSz.s:28930  .debug_str:00000000000201d4 .LASF1434
C:\Users\CYMR90~1\AppData\Local\Temp\ccMBshSz.s:27972  .debug_str:000000000001c4e8 .LASF1435
C:\Users\CYMR90~1\AppData\Local\Temp\ccMBshSz.s:27014  .debug_str:00000000000186b8 .LASF1436
C:\Users\CYMR90~1\AppData\Local\Temp\ccMBshSz.s:26449  .debug_str:00000000000161c4 .LASF1437
C:\Users\CYMR90~1\AppData\Local\Temp\ccMBshSz.s:30814  .debug_str:0000000000027888 .LASF1438
C:\Users\CYMR90~1\AppData\Local\Temp\ccMBshSz.s:29832  .debug_str:0000000000023891 .LASF1439
C:\Users\CYMR90~1\AppData\Local\Temp\ccMBshSz.s:28854  .debug_str:000000000001fd25 .LASF1440
C:\Users\CYMR90~1\AppData\Local\Temp\ccMBshSz.s:27900  .debug_str:000000000001c0b6 .LASF1441
C:\Users\CYMR90~1\AppData\Local\Temp\ccMBshSz.s:26936  .debug_str:000000000001820a .LASF1442
C:\Users\CYMR90~1\AppData\Local\Temp\ccMBshSz.s:25967  .debug_str:000000000001435e .LASF1443
C:\Users\CYMR90~1\AppData\Local\Temp\ccMBshSz.s:25019  .debug_str:0000000000010684 .LASF1444
C:\Users\CYMR90~1\AppData\Local\Temp\ccMBshSz.s:31900  .debug_str:000000000002bd7f .LASF1445
C:\Users\CYMR90~1\AppData\Local\Temp\ccMBshSz.s:23105  .debug_str:0000000000008d86 .LASF1446
C:\Users\CYMR90~1\AppData\Local\Temp\ccMBshSz.s:24645  .debug_str:000000000000ef34 .LASF1447
C:\Users\CYMR90~1\AppData\Local\Temp\ccMBshSz.s:30178  .debug_str:0000000000024eeb .LASF1448
C:\Users\CYMR90~1\AppData\Local\Temp\ccMBshSz.s:29208  .debug_str:0000000000021277 .LASF1449
C:\Users\CYMR90~1\AppData\Local\Temp\ccMBshSz.s:28236  .debug_str:000000000001d7a3 .LASF1450
C:\Users\CYMR90~1\AppData\Local\Temp\ccMBshSz.s:27304  .debug_str:0000000000019a8b .LASF1451
C:\Users\CYMR90~1\AppData\Local\Temp\ccMBshSz.s:26319  .debug_str:0000000000015901 .LASF1452
C:\Users\CYMR90~1\AppData\Local\Temp\ccMBshSz.s:23707  .debug_str:000000000000b3ed .LASF1453
C:\Users\CYMR90~1\AppData\Local\Temp\ccMBshSz.s:22313  .debug_str:0000000000005a27 .LASF1454
C:\Users\CYMR90~1\AppData\Local\Temp\ccMBshSz.s:23517  .debug_str:000000000000a6d5 .LASF1455
C:\Users\CYMR90~1\AppData\Local\Temp\ccMBshSz.s:28596  .debug_str:000000000001ed8c .LASF1456
C:\Users\CYMR90~1\AppData\Local\Temp\ccMBshSz.s:30232  .debug_str:00000000000252b6 .LASF1457
C:\Users\CYMR90~1\AppData\Local\Temp\ccMBshSz.s:22065  .debug_str:0000000000004b16 .LASF1458
C:\Users\CYMR90~1\AppData\Local\Temp\ccMBshSz.s:28680  .debug_str:000000000001f2ac .LASF1459
C:\Users\CYMR90~1\AppData\Local\Temp\ccMBshSz.s:25489  .debug_str:00000000000124e2 .LASF1460
C:\Users\CYMR90~1\AppData\Local\Temp\ccMBshSz.s:23619  .debug_str:000000000000ade6 .LASF1461
C:\Users\CYMR90~1\AppData\Local\Temp\ccMBshSz.s:24787  .debug_str:000000000000f859 .LASF1462
C:\Users\CYMR90~1\AppData\Local\Temp\ccMBshSz.s:25279  .debug_str:0000000000011717 .LASF1463
C:\Users\CYMR90~1\AppData\Local\Temp\ccMBshSz.s:26381  .debug_str:0000000000015cdf .LASF1464
C:\Users\CYMR90~1\AppData\Local\Temp\ccMBshSz.s:31678  .debug_str:000000000002af8c .LASF1465
C:\Users\CYMR90~1\AppData\Local\Temp\ccMBshSz.s:27566  .debug_str:000000000001ac00 .LASF1466
C:\Users\CYMR90~1\AppData\Local\Temp\ccMBshSz.s:25971  .debug_str:0000000000014385 .LASF1467
C:\Users\CYMR90~1\AppData\Local\Temp\ccMBshSz.s:30692  .debug_str:0000000000027098 .LASF1468
C:\Users\CYMR90~1\AppData\Local\Temp\ccMBshSz.s:24961  .debug_str:00000000000102e9 .LASF1469
C:\Users\CYMR90~1\AppData\Local\Temp\ccMBshSz.s:23061  .debug_str:0000000000008aec .LASF1470
C:\Users\CYMR90~1\AppData\Local\Temp\ccMBshSz.s:25251  .debug_str:00000000000114d2 .LASF1471
C:\Users\CYMR90~1\AppData\Local\Temp\ccMBshSz.s:26834  .debug_str:0000000000017c0d .LASF1472
C:\Users\CYMR90~1\AppData\Local\Temp\ccMBshSz.s:30132  .debug_str:0000000000024be7 .LASF1473
C:\Users\CYMR90~1\AppData\Local\Temp\ccMBshSz.s:30788  .debug_str:0000000000027722 .LASF1474
C:\Users\CYMR90~1\AppData\Local\Temp\ccMBshSz.s:21083  .debug_str:0000000000000caf .LASF1475
C:\Users\CYMR90~1\AppData\Local\Temp\ccMBshSz.s:22989  .debug_str:000000000000864c .LASF1476
C:\Users\CYMR90~1\AppData\Local\Temp\ccMBshSz.s:21597  .debug_str:0000000000002c3c .LASF1477
C:\Users\CYMR90~1\AppData\Local\Temp\ccMBshSz.s:30970  .debug_str:0000000000028302 .LASF1478
C:\Users\CYMR90~1\AppData\Local\Temp\ccMBshSz.s:29982  .debug_str:00000000000241e0 .LASF1479
C:\Users\CYMR90~1\AppData\Local\Temp\ccMBshSz.s:21725  .debug_str:0000000000003457 .LASF1480
C:\Users\CYMR90~1\AppData\Local\Temp\ccMBshSz.s:23953  .debug_str:000000000000c467 .LASF1481
C:\Users\CYMR90~1\AppData\Local\Temp\ccMBshSz.s:30100  .debug_str:00000000000249fd .LASF1482
C:\Users\CYMR90~1\AppData\Local\Temp\ccMBshSz.s:23305  .debug_str:00000000000099d0 .LASF1483
C:\Users\CYMR90~1\AppData\Local\Temp\ccMBshSz.s:22105  .debug_str:0000000000004d8b .LASF1484
C:\Users\CYMR90~1\AppData\Local\Temp\ccMBshSz.s:24515  .debug_str:000000000000e796 .LASF1485
C:\Users\CYMR90~1\AppData\Local\Temp\ccMBshSz.s:25937  .debug_str:00000000000141ba .LASF1486
C:\Users\CYMR90~1\AppData\Local\Temp\ccMBshSz.s:27550  .debug_str:000000000001ab0c .LASF1487
C:\Users\CYMR90~1\AppData\Local\Temp\ccMBshSz.s:20913  .debug_str:000000000000024b .LASF1488
C:\Users\CYMR90~1\AppData\Local\Temp\ccMBshSz.s:26339  .debug_str:0000000000015a23 .LASF1489
C:\Users\CYMR90~1\AppData\Local\Temp\ccMBshSz.s:24317  .debug_str:000000000000db44 .LASF1490
C:\Users\CYMR90~1\AppData\Local\Temp\ccMBshSz.s:31192  .debug_str:00000000000291b7 .LASF1491
C:\Users\CYMR90~1\AppData\Local\Temp\ccMBshSz.s:21565  .debug_str:0000000000002a4a .LASF1492
C:\Users\CYMR90~1\AppData\Local\Temp\ccMBshSz.s:29162  .debug_str:0000000000020ff4 .LASF1493
C:\Users\CYMR90~1\AppData\Local\Temp\ccMBshSz.s:31416  .debug_str:0000000000029fbb .LASF1494
C:\Users\CYMR90~1\AppData\Local\Temp\ccMBshSz.s:22745  .debug_str:0000000000007550 .LASF1495
C:\Users\CYMR90~1\AppData\Local\Temp\ccMBshSz.s:30462  .debug_str:0000000000026295 .LASF1496
C:\Users\CYMR90~1\AppData\Local\Temp\ccMBshSz.s:31164  .debug_str:0000000000028ff2 .LASF1497
C:\Users\CYMR90~1\AppData\Local\Temp\ccMBshSz.s:22539  .debug_str:00000000000067ab .LASF1498
C:\Users\CYMR90~1\AppData\Local\Temp\ccMBshSz.s:23399  .debug_str:0000000000009f68 .LASF1499
C:\Users\CYMR90~1\AppData\Local\Temp\ccMBshSz.s:32106  .debug_str:000000000002cb10 .LASF1500
C:\Users\CYMR90~1\AppData\Local\Temp\ccMBshSz.s:31334  .debug_str:0000000000029adb .LASF1501
C:\Users\CYMR90~1\AppData\Local\Temp\ccMBshSz.s:29064  .debug_str:0000000000020a52 .LASF1502
C:\Users\CYMR90~1\AppData\Local\Temp\ccMBshSz.s:22517  .debug_str:000000000000665e .LASF1503
C:\Users\CYMR90~1\AppData\Local\Temp\ccMBshSz.s:31418  .debug_str:0000000000029fc9 .LASF1504
C:\Users\CYMR90~1\AppData\Local\Temp\ccMBshSz.s:28436  .debug_str:000000000001e3e6 .LASF1505
C:\Users\CYMR90~1\AppData\Local\Temp\ccMBshSz.s:27746  .debug_str:000000000001b74d .LASF1506
C:\Users\CYMR90~1\AppData\Local\Temp\ccMBshSz.s:24639  .debug_str:000000000000eee5 .LASF1507
C:\Users\CYMR90~1\AppData\Local\Temp\ccMBshSz.s:29266  .debug_str:0000000000021664 .LASF1508
C:\Users\CYMR90~1\AppData\Local\Temp\ccMBshSz.s:25435  .debug_str:0000000000012161 .LASF1509
C:\Users\CYMR90~1\AppData\Local\Temp\ccMBshSz.s:31070  .debug_str:0000000000028a49 .LASF1510
C:\Users\CYMR90~1\AppData\Local\Temp\ccMBshSz.s:29846  .debug_str:000000000002394b .LASF1511
C:\Users\CYMR90~1\AppData\Local\Temp\ccMBshSz.s:21769  .debug_str:00000000000036f8 .LASF1512
C:\Users\CYMR90~1\AppData\Local\Temp\ccMBshSz.s:26403  .debug_str:0000000000015ea6 .LASF1513
C:\Users\CYMR90~1\AppData\Local\Temp\ccMBshSz.s:30260  .debug_str:0000000000025500 .LASF1514
C:\Users\CYMR90~1\AppData\Local\Temp\ccMBshSz.s:28656  .debug_str:000000000001f160 .LASF1515
C:\Users\CYMR90~1\AppData\Local\Temp\ccMBshSz.s:31840  .debug_str:000000000002b9a5 .LASF1516
C:\Users\CYMR90~1\AppData\Local\Temp\ccMBshSz.s:28486  .debug_str:000000000001e702 .LASF1517
C:\Users\CYMR90~1\AppData\Local\Temp\ccMBshSz.s:30500  .debug_str:00000000000264ca .LASF1518
C:\Users\CYMR90~1\AppData\Local\Temp\ccMBshSz.s:25425  .debug_str:00000000000120f0 .LASF1519
C:\Users\CYMR90~1\AppData\Local\Temp\ccMBshSz.s:28880  .debug_str:000000000001fed8 .LASF1520
C:\Users\CYMR90~1\AppData\Local\Temp\ccMBshSz.s:27932  .debug_str:000000000001c2b5 .LASF1521
C:\Users\CYMR90~1\AppData\Local\Temp\ccMBshSz.s:29200  .debug_str:0000000000021208 .LASF1522
C:\Users\CYMR90~1\AppData\Local\Temp\ccMBshSz.s:27210  .debug_str:00000000000193e7 .LASF1523
C:\Users\CYMR90~1\AppData\Local\Temp\ccMBshSz.s:29848  .debug_str:0000000000023961 .LASF1524
C:\Users\CYMR90~1\AppData\Local\Temp\ccMBshSz.s:22179  .debug_str:0000000000005200 .LASF1525
C:\Users\CYMR90~1\AppData\Local\Temp\ccMBshSz.s:27870  .debug_str:000000000001beb7 .LASF1526
C:\Users\CYMR90~1\AppData\Local\Temp\ccMBshSz.s:23975  .debug_str:000000000000c5c9 .LASF1527
C:\Users\CYMR90~1\AppData\Local\Temp\ccMBshSz.s:29604  .debug_str:0000000000022a9f .LASF1528
C:\Users\CYMR90~1\AppData\Local\Temp\ccMBshSz.s:30866  .debug_str:0000000000027ba1 .LASF1529
C:\Users\CYMR90~1\AppData\Local\Temp\ccMBshSz.s:30092  .debug_str:00000000000248f8 .LASF1530
C:\Users\CYMR90~1\AppData\Local\Temp\ccMBshSz.s:30156  .debug_str:0000000000024d6b .LASF1531
C:\Users\CYMR90~1\AppData\Local\Temp\ccMBshSz.s:21929  .debug_str:000000000000413b .LASF1532
C:\Users\CYMR90~1\AppData\Local\Temp\ccMBshSz.s:27158  .debug_str:0000000000019019 .LASF1533
C:\Users\CYMR90~1\AppData\Local\Temp\ccMBshSz.s:29976  .debug_str:00000000000240a0 .LASF1534
C:\Users\CYMR90~1\AppData\Local\Temp\ccMBshSz.s:23555  .debug_str:000000000000a938 .LASF1535
C:\Users\CYMR90~1\AppData\Local\Temp\ccMBshSz.s:30160  .debug_str:0000000000024deb .LASF1536
C:\Users\CYMR90~1\AppData\Local\Temp\ccMBshSz.s:29510  .debug_str:00000000000224cd .LASF1537
C:\Users\CYMR90~1\AppData\Local\Temp\ccMBshSz.s:30740  .debug_str:0000000000027380 .LASF1538
C:\Users\CYMR90~1\AppData\Local\Temp\ccMBshSz.s:30628  .debug_str:0000000000026c7c .LASF1539
C:\Users\CYMR90~1\AppData\Local\Temp\ccMBshSz.s:25305  .debug_str:0000000000011950 .LASF1540
C:\Users\CYMR90~1\AppData\Local\Temp\ccMBshSz.s:31360  .debug_str:0000000000029c63 .LASF1541
C:\Users\CYMR90~1\AppData\Local\Temp\ccMBshSz.s:24295  .debug_str:000000000000da30 .LASF1542
C:\Users\CYMR90~1\AppData\Local\Temp\ccMBshSz.s:21691  .debug_str:00000000000031e0 .LASF1543
C:\Users\CYMR90~1\AppData\Local\Temp\ccMBshSz.s:31824  .debug_str:000000000002b88d .LASF1544
C:\Users\CYMR90~1\AppData\Local\Temp\ccMBshSz.s:22921  .debug_str:00000000000081bb .LASF1545
C:\Users\CYMR90~1\AppData\Local\Temp\ccMBshSz.s:23407  .debug_str:0000000000009fdb .LASF1546
C:\Users\CYMR90~1\AppData\Local\Temp\ccMBshSz.s:24031  .debug_str:000000000000c9b4 .LASF1547
C:\Users\CYMR90~1\AppData\Local\Temp\ccMBshSz.s:30946  .debug_str:0000000000028121 .LASF1548
C:\Users\CYMR90~1\AppData\Local\Temp\ccMBshSz.s:30432  .debug_str:000000000002606f .LASF1549
C:\Users\CYMR90~1\AppData\Local\Temp\ccMBshSz.s:27820  .debug_str:000000000001bb21 .LASF1550
C:\Users\CYMR90~1\AppData\Local\Temp\ccMBshSz.s:25173  .debug_str:0000000000010fe0 .LASF1551
C:\Users\CYMR90~1\AppData\Local\Temp\ccMBshSz.s:27784  .debug_str:000000000001b927 .LASF1552
C:\Users\CYMR90~1\AppData\Local\Temp\ccMBshSz.s:21147  .debug_str:00000000000010b1 .LASF1553
C:\Users\CYMR90~1\AppData\Local\Temp\ccMBshSz.s:21463  .debug_str:00000000000023a3 .LASF1554
C:\Users\CYMR90~1\AppData\Local\Temp\ccMBshSz.s:28520  .debug_str:000000000001e94c .LASF1555
C:\Users\CYMR90~1\AppData\Local\Temp\ccMBshSz.s:27108  .debug_str:0000000000018d00 .LASF1556
C:\Users\CYMR90~1\AppData\Local\Temp\ccMBshSz.s:27136  .debug_str:0000000000018ed0 .LASF1557
C:\Users\CYMR90~1\AppData\Local\Temp\ccMBshSz.s:31444  .debug_str:000000000002a13c .LASF1558
C:\Users\CYMR90~1\AppData\Local\Temp\ccMBshSz.s:25015  .debug_str:0000000000010658 .LASF1559
C:\Users\CYMR90~1\AppData\Local\Temp\ccMBshSz.s:29858  .debug_str:00000000000239da .LASF1560
C:\Users\CYMR90~1\AppData\Local\Temp\ccMBshSz.s:30290  .debug_str:0000000000025711 .LASF1561
C:\Users\CYMR90~1\AppData\Local\Temp\ccMBshSz.s:25123  .debug_str:0000000000010d1d .LASF1562
C:\Users\CYMR90~1\AppData\Local\Temp\ccMBshSz.s:22359  .debug_str:0000000000005cf8 .LASF1563
C:\Users\CYMR90~1\AppData\Local\Temp\ccMBshSz.s:31940  .debug_str:000000000002c002 .LASF1564
C:\Users\CYMR90~1\AppData\Local\Temp\ccMBshSz.s:22547  .debug_str:0000000000006814 .LASF1565
C:\Users\CYMR90~1\AppData\Local\Temp\ccMBshSz.s:28234  .debug_str:000000000001d715 .LASF1566
C:\Users\CYMR90~1\AppData\Local\Temp\ccMBshSz.s:27504  .debug_str:000000000001a7c9 .LASF1567
C:\Users\CYMR90~1\AppData\Local\Temp\ccMBshSz.s:29000  .debug_str:0000000000020621 .LASF1568
C:\Users\CYMR90~1\AppData\Local\Temp\ccMBshSz.s:25303  .debug_str:00000000000118a9 .LASF1569
C:\Users\CYMR90~1\AppData\Local\Temp\ccMBshSz.s:30318  .debug_str:0000000000025925 .LASF1570
C:\Users\CYMR90~1\AppData\Local\Temp\ccMBshSz.s:25699  .debug_str:00000000000132e1 .LASF1571
C:\Users\CYMR90~1\AppData\Local\Temp\ccMBshSz.s:22231  .debug_str:000000000000553b .LASF1572
C:\Users\CYMR90~1\AppData\Local\Temp\ccMBshSz.s:26129  .debug_str:0000000000014db5 .LASF1573
C:\Users\CYMR90~1\AppData\Local\Temp\ccMBshSz.s:31056  .debug_str:0000000000028974 .LASF1574
C:\Users\CYMR90~1\AppData\Local\Temp\ccMBshSz.s:26610  .debug_str:0000000000016e49 .LASF1575
C:\Users\CYMR90~1\AppData\Local\Temp\ccMBshSz.s:24675  .debug_str:000000000000f108 .LASF1576
C:\Users\CYMR90~1\AppData\Local\Temp\ccMBshSz.s:28524  .debug_str:000000000001e98e .LASF1577
C:\Users\CYMR90~1\AppData\Local\Temp\ccMBshSz.s:31550  .debug_str:000000000002a7c3 .LASF1578
C:\Users\CYMR90~1\AppData\Local\Temp\ccMBshSz.s:21473  .debug_str:000000000000242e .LASF1579
C:\Users\CYMR90~1\AppData\Local\Temp\ccMBshSz.s:28080  .debug_str:000000000001cc71 .LASF1580
C:\Users\CYMR90~1\AppData\Local\Temp\ccMBshSz.s:23523  .debug_str:000000000000a728 .LASF1581
C:\Users\CYMR90~1\AppData\Local\Temp\ccMBshSz.s:24221  .debug_str:000000000000d625 .LASF1582
C:\Users\CYMR90~1\AppData\Local\Temp\ccMBshSz.s:22911  .debug_str:000000000000808f .LASF1583
C:\Users\CYMR90~1\AppData\Local\Temp\ccMBshSz.s:30742  .debug_str:000000000002739e .LASF1584
C:\Users\CYMR90~1\AppData\Local\Temp\ccMBshSz.s:28338  .debug_str:000000000001ddb0 .LASF1585
C:\Users\CYMR90~1\AppData\Local\Temp\ccMBshSz.s:32160  .debug_str:000000000002ce28 .LASF1586
C:\Users\CYMR90~1\AppData\Local\Temp\ccMBshSz.s:24193  .debug_str:000000000000d3d9 .LASF1587
C:\Users\CYMR90~1\AppData\Local\Temp\ccMBshSz.s:22871  .debug_str:0000000000007d65 .LASF1588
C:\Users\CYMR90~1\AppData\Local\Temp\ccMBshSz.s:26585  .debug_str:0000000000016a9a .LASF1589
C:\Users\CYMR90~1\AppData\Local\Temp\ccMBshSz.s:23735  .debug_str:000000000000b574 .LASF1590
C:\Users\CYMR90~1\AppData\Local\Temp\ccMBshSz.s:26513  .debug_str:0000000000016547 .LASF1591
C:\Users\CYMR90~1\AppData\Local\Temp\ccMBshSz.s:23115  .debug_str:0000000000008de4 .LASF1592
C:\Users\CYMR90~1\AppData\Local\Temp\ccMBshSz.s:25691  .debug_str:00000000000131fc .LASF1593
C:\Users\CYMR90~1\AppData\Local\Temp\ccMBshSz.s:31240  .debug_str:000000000002946f .LASF1594
C:\Users\CYMR90~1\AppData\Local\Temp\ccMBshSz.s:30978  .debug_str:0000000000028380 .LASF1595
C:\Users\CYMR90~1\AppData\Local\Temp\ccMBshSz.s:21113  .debug_str:0000000000000e65 .LASF1596
C:\Users\CYMR90~1\AppData\Local\Temp\ccMBshSz.s:28108  .debug_str:000000000001ce3a .LASF1597
C:\Users\CYMR90~1\AppData\Local\Temp\ccMBshSz.s:22035  .debug_str:00000000000048ad .LASF1598
C:\Users\CYMR90~1\AppData\Local\Temp\ccMBshSz.s:30234  .debug_str:00000000000252c5 .LASF1599
C:\Users\CYMR90~1\AppData\Local\Temp\ccMBshSz.s:21257  .debug_str:000000000000171b .LASF1600
C:\Users\CYMR90~1\AppData\Local\Temp\ccMBshSz.s:24763  .debug_str:000000000000f636 .LASF1601
C:\Users\CYMR90~1\AppData\Local\Temp\ccMBshSz.s:29222  .debug_str:0000000000021358 .LASF1602
C:\Users\CYMR90~1\AppData\Local\Temp\ccMBshSz.s:28132  .debug_str:000000000001d05f .LASF1603
C:\Users\CYMR90~1\AppData\Local\Temp\ccMBshSz.s:28018  .debug_str:000000000001c7e8 .LASF1604
C:\Users\CYMR90~1\AppData\Local\Temp\ccMBshSz.s:30212  .debug_str:00000000000250e3 .LASF1605
C:\Users\CYMR90~1\AppData\Local\Temp\ccMBshSz.s:30134  .debug_str:0000000000024bfd .LASF1606
C:\Users\CYMR90~1\AppData\Local\Temp\ccMBshSz.s:30086  .debug_str:00000000000248a4 .LASF1607
C:\Users\CYMR90~1\AppData\Local\Temp\ccMBshSz.s:27056  .debug_str:0000000000018932 .LASF1608
C:\Users\CYMR90~1\AppData\Local\Temp\ccMBshSz.s:22013  .debug_str:0000000000004726 .LASF1609
C:\Users\CYMR90~1\AppData\Local\Temp\ccMBshSz.s:29440  .debug_str:00000000000220ea .LASF1610
C:\Users\CYMR90~1\AppData\Local\Temp\ccMBshSz.s:32068  .debug_str:000000000002c852 .LASF1611
C:\Users\CYMR90~1\AppData\Local\Temp\ccMBshSz.s:27968  .debug_str:000000000001c4ac .LASF1612
C:\Users\CYMR90~1\AppData\Local\Temp\ccMBshSz.s:26015  .debug_str:0000000000014661 .LASF1613
C:\Users\CYMR90~1\AppData\Local\Temp\ccMBshSz.s:23391  .debug_str:0000000000009eeb .LASF1614
C:\Users\CYMR90~1\AppData\Local\Temp\ccMBshSz.s:27650  .debug_str:000000000001b167 .LASF1615
C:\Users\CYMR90~1\AppData\Local\Temp\ccMBshSz.s:29324  .debug_str:00000000000219e3 .LASF1616
C:\Users\CYMR90~1\AppData\Local\Temp\ccMBshSz.s:26099  .debug_str:0000000000014b77 .LASF1617
C:\Users\CYMR90~1\AppData\Local\Temp\ccMBshSz.s:28032  .debug_str:000000000001c982 .LASF1618
C:\Users\CYMR90~1\AppData\Local\Temp\ccMBshSz.s:22059  .debug_str:0000000000004ab6 .LASF1619
C:\Users\CYMR90~1\AppData\Local\Temp\ccMBshSz.s:23769  .debug_str:000000000000b845 .LASF1620
C:\Users\CYMR90~1\AppData\Local\Temp\ccMBshSz.s:24591  .debug_str:000000000000ec50 .LASF1621
C:\Users\CYMR90~1\AppData\Local\Temp\ccMBshSz.s:21627  .debug_str:0000000000002e13 .LASF1622
C:\Users\CYMR90~1\AppData\Local\Temp\ccMBshSz.s:29030  .debug_str:0000000000020835 .LASF1623
C:\Users\CYMR90~1\AppData\Local\Temp\ccMBshSz.s:25693  .debug_str:0000000000013297 .LASF1624
C:\Users\CYMR90~1\AppData\Local\Temp\ccMBshSz.s:23861  .debug_str:000000000000bea1 .LASF1625
C:\Users\CYMR90~1\AppData\Local\Temp\ccMBshSz.s:29726  .debug_str:000000000002319a .LASF1626
C:\Users\CYMR90~1\AppData\Local\Temp\ccMBshSz.s:22543  .debug_str:00000000000067e6 .LASF1627
C:\Users\CYMR90~1\AppData\Local\Temp\ccMBshSz.s:28774  .debug_str:000000000001f83e .LASF1628
C:\Users\CYMR90~1\AppData\Local\Temp\ccMBshSz.s:23631  .debug_str:000000000000aea8 .LASF1629
C:\Users\CYMR90~1\AppData\Local\Temp\ccMBshSz.s:29520  .debug_str:0000000000022539 .LASF1630
C:\Users\CYMR90~1\AppData\Local\Temp\ccMBshSz.s:23099  .debug_str:0000000000008d2f .LASF1631
C:\Users\CYMR90~1\AppData\Local\Temp\ccMBshSz.s:21213  .debug_str:00000000000014b5 .LASF1632
C:\Users\CYMR90~1\AppData\Local\Temp\ccMBshSz.s:27760  .debug_str:000000000001b830 .LASF1633
C:\Users\CYMR90~1\AppData\Local\Temp\ccMBshSz.s:26746  .debug_str:000000000001767e .LASF1634
C:\Users\CYMR90~1\AppData\Local\Temp\ccMBshSz.s:23843  .debug_str:000000000000bd26 .LASF1635
C:\Users\CYMR90~1\AppData\Local\Temp\ccMBshSz.s:23945  .debug_str:000000000000c3fa .LASF1636
C:\Users\CYMR90~1\AppData\Local\Temp\ccMBshSz.s:27622  .debug_str:000000000001afbb .LASF1637
C:\Users\CYMR90~1\AppData\Local\Temp\ccMBshSz.s:24015  .debug_str:000000000000c8a1 .LASF1638
C:\Users\CYMR90~1\AppData\Local\Temp\ccMBshSz.s:23745  .debug_str:000000000000b699 .LASF1639
C:\Users\CYMR90~1\AppData\Local\Temp\ccMBshSz.s:26952  .debug_str:00000000000182fd .LASF1640
C:\Users\CYMR90~1\AppData\Local\Temp\ccMBshSz.s:24967  .debug_str:0000000000010345 .LASF1641
C:\Users\CYMR90~1\AppData\Local\Temp\ccMBshSz.s:30076  .debug_str:0000000000024808 .LASF1642
C:\Users\CYMR90~1\AppData\Local\Temp\ccMBshSz.s:25313  .debug_str:00000000000119f1 .LASF1643
C:\Users\CYMR90~1\AppData\Local\Temp\ccMBshSz.s:28914  .debug_str:00000000000200ff .LASF1644
C:\Users\CYMR90~1\AppData\Local\Temp\ccMBshSz.s:32034  .debug_str:000000000002c67c .LASF1645
C:\Users\CYMR90~1\AppData\Local\Temp\ccMBshSz.s:21615  .debug_str:0000000000002d74 .LASF1646
C:\Users\CYMR90~1\AppData\Local\Temp\ccMBshSz.s:26549  .debug_str:00000000000167fc .LASF1647
C:\Users\CYMR90~1\AppData\Local\Temp\ccMBshSz.s:26654  .debug_str:000000000001711b .LASF1648
C:\Users\CYMR90~1\AppData\Local\Temp\ccMBshSz.s:21411  .debug_str:00000000000020ef .LASF1649
C:\Users\CYMR90~1\AppData\Local\Temp\ccMBshSz.s:22937  .debug_str:00000000000082f2 .LASF1650
C:\Users\CYMR90~1\AppData\Local\Temp\ccMBshSz.s:29742  .debug_str:00000000000232af .LASF1651
C:\Users\CYMR90~1\AppData\Local\Temp\ccMBshSz.s:25061  .debug_str:00000000000108b3 .LASF1652
C:\Users\CYMR90~1\AppData\Local\Temp\ccMBshSz.s:22829  .debug_str:0000000000007a81 .LASF1653
C:\Users\CYMR90~1\AppData\Local\Temp\ccMBshSz.s:21151  .debug_str:0000000000001108 .LASF1654
C:\Users\CYMR90~1\AppData\Local\Temp\ccMBshSz.s:26848  .debug_str:0000000000017cd0 .LASF1657
C:\Users\CYMR90~1\AppData\Local\Temp\ccMBshSz.s:31600  .debug_str:000000000002aae3 .LASF1658
C:\Users\CYMR90~1\AppData\Local\Temp\ccMBshSz.s:25093  .debug_str:0000000000010bc3 .LASF1659
C:\Users\CYMR90~1\AppData\Local\Temp\ccMBshSz.s:27182  .debug_str:0000000000019260 .LASF1660
C:\Users\CYMR90~1\AppData\Local\Temp\ccMBshSz.s:31836  .debug_str:000000000002b966 .LASF1661
C:\Users\CYMR90~1\AppData\Local\Temp\ccMBshSz.s:31872  .debug_str:000000000002bbe4 .LASF1662
C:\Users\CYMR90~1\AppData\Local\Temp\ccMBshSz.s:29114  .debug_str:0000000000020d4c .LASF1663
C:\Users\CYMR90~1\AppData\Local\Temp\ccMBshSz.s:26061  .debug_str:0000000000014907 .LASF1664
C:\Users\CYMR90~1\AppData\Local\Temp\ccMBshSz.s:28284  .debug_str:000000000001da75 .LASF1665
C:\Users\CYMR90~1\AppData\Local\Temp\ccMBshSz.s:29202  .debug_str:0000000000021223 .LASF1666
C:\Users\CYMR90~1\AppData\Local\Temp\ccMBshSz.s:30314  .debug_str:00000000000258e1 .LASF1667
C:\Users\CYMR90~1\AppData\Local\Temp\ccMBshSz.s:24499  .debug_str:000000000000e67e .LASF1668
C:\Users\CYMR90~1\AppData\Local\Temp\ccMBshSz.s:21855  .debug_str:0000000000003c77 .LASF1669
C:\Users\CYMR90~1\AppData\Local\Temp\ccMBshSz.s:23135  .debug_str:0000000000008f82 .LASF1670
C:\Users\CYMR90~1\AppData\Local\Temp\ccMBshSz.s:22073  .debug_str:0000000000004b82 .LASF1671
C:\Users\CYMR90~1\AppData\Local\Temp\ccMBshSz.s:20963  .debug_str:0000000000000534 .LASF1672
C:\Users\CYMR90~1\AppData\Local\Temp\ccMBshSz.s:25991  .debug_str:000000000001449d .LASF1673
C:\Users\CYMR90~1\AppData\Local\Temp\ccMBshSz.s:25385  .debug_str:0000000000011e14 .LASF1674
C:\Users\CYMR90~1\AppData\Local\Temp\ccMBshSz.s:24539  .debug_str:000000000000e8f3 .LASF1675
C:\Users\CYMR90~1\AppData\Local\Temp\ccMBshSz.s:30098  .debug_str:00000000000249e3 .LASF1676
C:\Users\CYMR90~1\AppData\Local\Temp\ccMBshSz.s:25517  .debug_str:000000000001269b .LASF1677
C:\Users\CYMR90~1\AppData\Local\Temp\ccMBshSz.s:32036  .debug_str:000000000002c691 .LASF1678
C:\Users\CYMR90~1\AppData\Local\Temp\ccMBshSz.s:21523  .debug_str:000000000000276a .LASF1679
C:\Users\CYMR90~1\AppData\Local\Temp\ccMBshSz.s:25043  .debug_str:00000000000107da .LASF1680
C:\Users\CYMR90~1\AppData\Local\Temp\ccMBshSz.s:26247  .debug_str:00000000000154fc .LASF1681
C:\Users\CYMR90~1\AppData\Local\Temp\ccMBshSz.s:24891  .debug_str:000000000000febc .LASF1682
C:\Users\CYMR90~1\AppData\Local\Temp\ccMBshSz.s:27606  .debug_str:000000000001ae4c .LASF1683
C:\Users\CYMR90~1\AppData\Local\Temp\ccMBshSz.s:29690  .debug_str:0000000000022fdc .LASF1684
C:\Users\CYMR90~1\AppData\Local\Temp\ccMBshSz.s:30620  .debug_str:0000000000026c21 .LASF1685
C:\Users\CYMR90~1\AppData\Local\Temp\ccMBshSz.s:25041  .debug_str:00000000000107c2 .LASF1686
C:\Users\CYMR90~1\AppData\Local\Temp\ccMBshSz.s:29012  .debug_str:000000000002071f .LASF1687
C:\Users\CYMR90~1\AppData\Local\Temp\ccMBshSz.s:31350  .debug_str:0000000000029bb8 .LASF1688
C:\Users\CYMR90~1\AppData\Local\Temp\ccMBshSz.s:29874  .debug_str:0000000000023ae4 .LASF1689
C:\Users\CYMR90~1\AppData\Local\Temp\ccMBshSz.s:27720  .debug_str:000000000001b59a .LASF1690
C:\Users\CYMR90~1\AppData\Local\Temp\ccMBshSz.s:25783  .debug_str:000000000001382e .LASF1691
C:\Users\CYMR90~1\AppData\Local\Temp\ccMBshSz.s:29424  .debug_str:000000000002200a .LASF1692
C:\Users\CYMR90~1\AppData\Local\Temp\ccMBshSz.s:27042  .debug_str:0000000000018853 .LASF1693
C:\Users\CYMR90~1\AppData\Local\Temp\ccMBshSz.s:22931  .debug_str:000000000000827e .LASF1694
C:\Users\CYMR90~1\AppData\Local\Temp\ccMBshSz.s:24963  .debug_str:00000000000102f9 .LASF1695
C:\Users\CYMR90~1\AppData\Local\Temp\ccMBshSz.s:26818  .debug_str:0000000000017b1d .LASF1696
C:\Users\CYMR90~1\AppData\Local\Temp\ccMBshSz.s:26107  .debug_str:0000000000014c0a .LASF1697
C:\Users\CYMR90~1\AppData\Local\Temp\ccMBshSz.s:28670  .debug_str:000000000001f219 .LASF1698
C:\Users\CYMR90~1\AppData\Local\Temp\ccMBshSz.s:27220  .debug_str:00000000000194ae .LASF1699
C:\Users\CYMR90~1\AppData\Local\Temp\ccMBshSz.s:29124  .debug_str:0000000000020de7 .LASF1700
C:\Users\CYMR90~1\AppData\Local\Temp\ccMBshSz.s:28666  .debug_str:000000000001f1dc .LASF1701
C:\Users\CYMR90~1\AppData\Local\Temp\ccMBshSz.s:29924  .debug_str:0000000000023dd9 .LASF1702
C:\Users\CYMR90~1\AppData\Local\Temp\ccMBshSz.s:24211  .debug_str:000000000000d576 .LASF1703
C:\Users\CYMR90~1\AppData\Local\Temp\ccMBshSz.s:29416  .debug_str:0000000000021f88 .LASF1704
C:\Users\CYMR90~1\AppData\Local\Temp\ccMBshSz.s:27852  .debug_str:000000000001bd63 .LASF1705
C:\Users\CYMR90~1\AppData\Local\Temp\ccMBshSz.s:29268  .debug_str:0000000000021678 .LASF1706
C:\Users\CYMR90~1\AppData\Local\Temp\ccMBshSz.s:26730  .debug_str:000000000001755a .LASF1707
C:\Users\CYMR90~1\AppData\Local\Temp\ccMBshSz.s:25695  .debug_str:00000000000132aa .LASF1708
C:\Users\CYMR90~1\AppData\Local\Temp\ccMBshSz.s:28418  .debug_str:000000000001e2f1 .LASF1709
C:\Users\CYMR90~1\AppData\Local\Temp\ccMBshSz.s:26954  .debug_str:0000000000018312 .LASF1710
C:\Users\CYMR90~1\AppData\Local\Temp\ccMBshSz.s:30822  .debug_str:00000000000278ec .LASF1711
C:\Users\CYMR90~1\AppData\Local\Temp\ccMBshSz.s:25333  .debug_str:0000000000011b17 .LASF1712
C:\Users\CYMR90~1\AppData\Local\Temp\ccMBshSz.s:22465  .debug_str:000000000000633a .LASF1713
C:\Users\CYMR90~1\AppData\Local\Temp\ccMBshSz.s:24805  .debug_str:000000000000f92d .LASF1714
C:\Users\CYMR90~1\AppData\Local\Temp\ccMBshSz.s:21745  .debug_str:00000000000035a8 .LASF1715
C:\Users\CYMR90~1\AppData\Local\Temp\ccMBshSz.s:25039  .debug_str:0000000000010796 .LASF1716
C:\Users\CYMR90~1\AppData\Local\Temp\ccMBshSz.s:28384  .debug_str:000000000001e0e3 .LASF1717
C:\Users\CYMR90~1\AppData\Local\Temp\ccMBshSz.s:26918  .debug_str:00000000000180df .LASF1718
C:\Users\CYMR90~1\AppData\Local\Temp\ccMBshSz.s:25277  .debug_str:0000000000011669 .LASF1719
C:\Users\CYMR90~1\AppData\Local\Temp\ccMBshSz.s:27284  .debug_str:00000000000198bd .LASF1720
C:\Users\CYMR90~1\AppData\Local\Temp\ccMBshSz.s:25775  .debug_str:00000000000137ab .LASF1721
C:\Users\CYMR90~1\AppData\Local\Temp\ccMBshSz.s:21449  .debug_str:00000000000022ea .LASF1722
C:\Users\CYMR90~1\AppData\Local\Temp\ccMBshSz.s:27614  .debug_str:000000000001aeeb .LASF1723
C:\Users\CYMR90~1\AppData\Local\Temp\ccMBshSz.s:21513  .debug_str:00000000000026e0 .LASF1724
C:\Users\CYMR90~1\AppData\Local\Temp\ccMBshSz.s:26315  .debug_str:00000000000158b1 .LASF1725
C:\Users\CYMR90~1\AppData\Local\Temp\ccMBshSz.s:31140  .debug_str:0000000000028e47 .LASF1726
C:\Users\CYMR90~1\AppData\Local\Temp\ccMBshSz.s:29556  .debug_str:0000000000022790 .LASF1727
C:\Users\CYMR90~1\AppData\Local\Temp\ccMBshSz.s:30790  .debug_str:0000000000027736 .LASF1728
C:\Users\CYMR90~1\AppData\Local\Temp\ccMBshSz.s:28078  .debug_str:000000000001cc3a .LASF1729
C:\Users\CYMR90~1\AppData\Local\Temp\ccMBshSz.s:31944  .debug_str:000000000002c0c1 .LASF1730
C:\Users\CYMR90~1\AppData\Local\Temp\ccMBshSz.s:30610  .debug_str:0000000000026b86 .LASF1731
C:\Users\CYMR90~1\AppData\Local\Temp\ccMBshSz.s:25211  .debug_str:0000000000011214 .LASF1732
C:\Users\CYMR90~1\AppData\Local\Temp\ccMBshSz.s:23247  .debug_str:00000000000095c3 .LASF1733
C:\Users\CYMR90~1\AppData\Local\Temp\ccMBshSz.s:21217  .debug_str:00000000000014d2 .LASF1734
C:\Users\CYMR90~1\AppData\Local\Temp\ccMBshSz.s:26686  .debug_str:00000000000172c8 .LASF1735
C:\Users\CYMR90~1\AppData\Local\Temp\ccMBshSz.s:28842  .debug_str:000000000001fc70 .LASF1736
C:\Users\CYMR90~1\AppData\Local\Temp\ccMBshSz.s:23239  .debug_str:000000000000954d .LASF1737
C:\Users\CYMR90~1\AppData\Local\Temp\ccMBshSz.s:22953  .debug_str:00000000000083e8 .LASF1738
C:\Users\CYMR90~1\AppData\Local\Temp\ccMBshSz.s:30616  .debug_str:0000000000026bf2 .LASF1739
C:\Users\CYMR90~1\AppData\Local\Temp\ccMBshSz.s:24565  .debug_str:000000000000eac3 .LASF1740
C:\Users\CYMR90~1\AppData\Local\Temp\ccMBshSz.s:23587  .debug_str:000000000000abe9 .LASF1741
C:\Users\CYMR90~1\AppData\Local\Temp\ccMBshSz.s:28692  .debug_str:000000000001f360 .LASF1742
C:\Users\CYMR90~1\AppData\Local\Temp\ccMBshSz.s:24063  .debug_str:000000000000cbe3 .LASF1743
C:\Users\CYMR90~1\AppData\Local\Temp\ccMBshSz.s:30898  .debug_str:0000000000027deb .LASF1744
C:\Users\CYMR90~1\AppData\Local\Temp\ccMBshSz.s:22959  .debug_str:000000000000845a .LASF1745
C:\Users\CYMR90~1\AppData\Local\Temp\ccMBshSz.s:24861  .debug_str:000000000000fcae .LASF1746
C:\Users\CYMR90~1\AppData\Local\Temp\ccMBshSz.s:29928  .debug_str:0000000000023e17 .LASF1747
C:\Users\CYMR90~1\AppData\Local\Temp\ccMBshSz.s:29528  .debug_str:00000000000225bf .LASF1748
C:\Users\CYMR90~1\AppData\Local\Temp\ccMBshSz.s:25037  .debug_str:0000000000010773 .LASF1749
C:\Users\CYMR90~1\AppData\Local\Temp\ccMBshSz.s:23741  .debug_str:000000000000b650 .LASF1750
C:\Users\CYMR90~1\AppData\Local\Temp\ccMBshSz.s:26854  .debug_str:0000000000017d26 .LASF1751
C:\Users\CYMR90~1\AppData\Local\Temp\ccMBshSz.s:22107  .debug_str:0000000000004d9f .LASF1752
C:\Users\CYMR90~1\AppData\Local\Temp\ccMBshSz.s:27590  .debug_str:000000000001ad60 .LASF1753
C:\Users\CYMR90~1\AppData\Local\Temp\ccMBshSz.s:27488  .debug_str:000000000001a6a5 .LASF1754
C:\Users\CYMR90~1\AppData\Local\Temp\ccMBshSz.s:24005  .debug_str:000000000000c7a0 .LASF1755
C:\Users\CYMR90~1\AppData\Local\Temp\ccMBshSz.s:25585  .debug_str:0000000000012b32 .LASF1756
C:\Users\CYMR90~1\AppData\Local\Temp\ccMBshSz.s:27676  .debug_str:000000000001b315 .LASF1757
C:\Users\CYMR90~1\AppData\Local\Temp\ccMBshSz.s:24663  .debug_str:000000000000f022 .LASF1758
C:\Users\CYMR90~1\AppData\Local\Temp\ccMBshSz.s:22777  .debug_str:0000000000007726 .LASF1759
C:\Users\CYMR90~1\AppData\Local\Temp\ccMBshSz.s:27428  .debug_str:000000000001a1bd .LASF1760
C:\Users\CYMR90~1\AppData\Local\Temp\ccMBshSz.s:23063  .debug_str:0000000000008afe .LASF1761
C:\Users\CYMR90~1\AppData\Local\Temp\ccMBshSz.s:21279  .debug_str:000000000000192a .LASF1762
C:\Users\CYMR90~1\AppData\Local\Temp\ccMBshSz.s:30112  .debug_str:0000000000024a89 .LASF1763
C:\Users\CYMR90~1\AppData\Local\Temp\ccMBshSz.s:22805  .debug_str:0000000000007901 .LASF1764
C:\Users\CYMR90~1\AppData\Local\Temp\ccMBshSz.s:22479  .debug_str:0000000000006433 .LASF1765
C:\Users\CYMR90~1\AppData\Local\Temp\ccMBshSz.s:21259  .debug_str:00000000000017d1 .LASF1766
C:\Users\CYMR90~1\AppData\Local\Temp\ccMBshSz.s:27790  .debug_str:000000000001b980 .LASF1767
C:\Users\CYMR90~1\AppData\Local\Temp\ccMBshSz.s:21321  .debug_str:0000000000001bab .LASF1768
C:\Users\CYMR90~1\AppData\Local\Temp\ccMBshSz.s:30320  .debug_str:00000000000259b3 .LASF1769
C:\Users\CYMR90~1\AppData\Local\Temp\ccMBshSz.s:32020  .debug_str:000000000002c58b .LASF1770
C:\Users\CYMR90~1\AppData\Local\Temp\ccMBshSz.s:23895  .debug_str:000000000000c0c9 .LASF1771
C:\Users\CYMR90~1\AppData\Local\Temp\ccMBshSz.s:23495  .debug_str:000000000000a58b .LASF1772
C:\Users\CYMR90~1\AppData\Local\Temp\ccMBshSz.s:26215  .debug_str:000000000001532a .LASF1773
C:\Users\CYMR90~1\AppData\Local\Temp\ccMBshSz.s:21047  .debug_str:0000000000000a18 .LASF1774
C:\Users\CYMR90~1\AppData\Local\Temp\ccMBshSz.s:31046  .debug_str:00000000000288b5 .LASF1775
C:\Users\CYMR90~1\AppData\Local\Temp\ccMBshSz.s:26007  .debug_str:00000000000145cd .LASF1776
C:\Users\CYMR90~1\AppData\Local\Temp\ccMBshSz.s:24745  .debug_str:000000000000f534 .LASF1777
C:\Users\CYMR90~1\AppData\Local\Temp\ccMBshSz.s:26844  .debug_str:0000000000017c9f .LASF1778
C:\Users\CYMR90~1\AppData\Local\Temp\ccMBshSz.s:22205  .debug_str:0000000000005397 .LASF1779
C:\Users\CYMR90~1\AppData\Local\Temp\ccMBshSz.s:30356  .debug_str:0000000000025bf1 .LASF1780
C:\Users\CYMR90~1\AppData\Local\Temp\ccMBshSz.s:29560  .debug_str:00000000000227f9 .LASF1781
C:\Users\CYMR90~1\AppData\Local\Temp\ccMBshSz.s:28086  .debug_str:000000000001ccdc .LASF1784
C:\Users\CYMR90~1\AppData\Local\Temp\ccMBshSz.s:27232  .debug_str:000000000001955a .LASF1785
C:\Users\CYMR90~1\AppData\Local\Temp\ccMBshSz.s:27076  .debug_str:0000000000018a74 .LASF1786
C:\Users\CYMR90~1\AppData\Local\Temp\ccMBshSz.s:26047  .debug_str:0000000000014847 .LASF1787
C:\Users\CYMR90~1\AppData\Local\Temp\ccMBshSz.s:31478  .debug_str:000000000002a334 .LASF1788
C:\Users\CYMR90~1\AppData\Local\Temp\ccMBshSz.s:31786  .debug_str:000000000002b646 .LASF1789
C:\Users\CYMR90~1\AppData\Local\Temp\ccMBshSz.s:21791  .debug_str:0000000000003889 .LASF1790
C:\Users\CYMR90~1\AppData\Local\Temp\ccMBshSz.s:20909  .debug_str:0000000000000215 .LASF1791
C:\Users\CYMR90~1\AppData\Local\Temp\ccMBshSz.s:30704  .debug_str:000000000002713b .LASF1792
C:\Users\CYMR90~1\AppData\Local\Temp\ccMBshSz.s:29770  .debug_str:0000000000023435 .LASF1793
C:\Users\CYMR90~1\AppData\Local\Temp\ccMBshSz.s:31668  .debug_str:000000000002aea8 .LASF1794
C:\Users\CYMR90~1\AppData\Local\Temp\ccMBshSz.s:30982  .debug_str:0000000000028451 .LASF1795
C:\Users\CYMR90~1\AppData\Local\Temp\ccMBshSz.s:25707  .debug_str:0000000000013374 .LASF1796
C:\Users\CYMR90~1\AppData\Local\Temp\ccMBshSz.s:25995  .debug_str:00000000000144df .LASF1797
C:\Users\CYMR90~1\AppData\Local\Temp\ccMBshSz.s:25097  .debug_str:0000000000010bda .LASF1798
C:\Users\CYMR90~1\AppData\Local\Temp\ccMBshSz.s:23921  .debug_str:000000000000c28a .LASF1799
C:\Users\CYMR90~1\AppData\Local\Temp\ccMBshSz.s:26760  .debug_str:000000000001775a .LASF1800
C:\Users\CYMR90~1\AppData\Local\Temp\ccMBshSz.s:27068  .debug_str:00000000000189f2 .LASF1801
C:\Users\CYMR90~1\AppData\Local\Temp\ccMBshSz.s:26133  .debug_str:0000000000014def .LASF1802
C:\Users\CYMR90~1\AppData\Local\Temp\ccMBshSz.s:25157  .debug_str:0000000000010efe .LASF1803
C:\Users\CYMR90~1\AppData\Local\Temp\ccMBshSz.s:24641  .debug_str:000000000000eefc .LASF1804
C:\Users\CYMR90~1\AppData\Local\Temp\ccMBshSz.s:29358  .debug_str:0000000000021c18 .LASF1805
C:\Users\CYMR90~1\AppData\Local\Temp\ccMBshSz.s:26017  .debug_str:0000000000014685 .LASF1806
C:\Users\CYMR90~1\AppData\Local\Temp\ccMBshSz.s:28956  .debug_str:0000000000020334 .LASF1807
C:\Users\CYMR90~1\AppData\Local\Temp\ccMBshSz.s:26157  .debug_str:0000000000014f85 .LASF1808
C:\Users\CYMR90~1\AppData\Local\Temp\ccMBshSz.s:30974  .debug_str:000000000002833f .LASF1809
C:\Users\CYMR90~1\AppData\Local\Temp\ccMBshSz.s:28180  .debug_str:000000000001d3de .LASF1810
C:\Users\CYMR90~1\AppData\Local\Temp\ccMBshSz.s:26860  .debug_str:0000000000017d9b .LASF1811
C:\Users\CYMR90~1\AppData\Local\Temp\ccMBshSz.s:21239  .debug_str:0000000000001606 .LASF1812
C:\Users\CYMR90~1\AppData\Local\Temp\ccMBshSz.s:25049  .debug_str:0000000000010820 .LASF1813
C:\Users\CYMR90~1\AppData\Local\Temp\ccMBshSz.s:25317  .debug_str:0000000000011a23 .LASF1814
C:\Users\CYMR90~1\AppData\Local\Temp\ccMBshSz.s:28162  .debug_str:000000000001d2e6 .LASF1815
C:\Users\CYMR90~1\AppData\Local\Temp\ccMBshSz.s:26824  .debug_str:0000000000017b8f .LASF1816
C:\Users\CYMR90~1\AppData\Local\Temp\ccMBshSz.s:28170  .debug_str:000000000001d364 .LASF1817
C:\Users\CYMR90~1\AppData\Local\Temp\ccMBshSz.s:28614  .debug_str:000000000001ee90 .LASF1818
C:\Users\CYMR90~1\AppData\Local\Temp\ccMBshSz.s:24857  .debug_str:000000000000fc76 .LASF1819
C:\Users\CYMR90~1\AppData\Local\Temp\ccMBshSz.s:29096  .debug_str:0000000000020c3d .LASF1820
C:\Users\CYMR90~1\AppData\Local\Temp\ccMBshSz.s:22509  .debug_str:00000000000065f2 .LASF1821
C:\Users\CYMR90~1\AppData\Local\Temp\ccMBshSz.s:27070  .debug_str:0000000000018a16 .LASF1822
C:\Users\CYMR90~1\AppData\Local\Temp\ccMBshSz.s:28542  .debug_str:000000000001eaad .LASF1823
C:\Users\CYMR90~1\AppData\Local\Temp\ccMBshSz.s:31260  .debug_str:0000000000029619 .LASF1824
C:\Users\CYMR90~1\AppData\Local\Temp\ccMBshSz.s:23803  .debug_str:000000000000bab3 .LASF1825
C:\Users\CYMR90~1\AppData\Local\Temp\ccMBshSz.s:29190  .debug_str:000000000002116d .LASF1826
C:\Users\CYMR90~1\AppData\Local\Temp\ccMBshSz.s:31606  .debug_str:000000000002ab1d .LASF1827
C:\Users\CYMR90~1\AppData\Local\Temp\ccMBshSz.s:24611  .debug_str:000000000000ed5c .LASF1828
C:\Users\CYMR90~1\AppData\Local\Temp\ccMBshSz.s:24683  .debug_str:000000000000f188 .LASF1829
C:\Users\CYMR90~1\AppData\Local\Temp\ccMBshSz.s:25461  .debug_str:0000000000012315 .LASF1830
C:\Users\CYMR90~1\AppData\Local\Temp\ccMBshSz.s:23267  .debug_str:000000000000975a .LASF1831
C:\Users\CYMR90~1\AppData\Local\Temp\ccMBshSz.s:30646  .debug_str:0000000000026d7b .LASF1832
C:\Users\CYMR90~1\AppData\Local\Temp\ccMBshSz.s:24061  .debug_str:000000000000cbc8 .LASF1833
C:\Users\CYMR90~1\AppData\Local\Temp\ccMBshSz.s:22719  .debug_str:00000000000073b8 .LASF1834
C:\Users\CYMR90~1\AppData\Local\Temp\ccMBshSz.s:26467  .debug_str:00000000000162b9 .LASF1835
C:\Users\CYMR90~1\AppData\Local\Temp\ccMBshSz.s:30516  .debug_str:00000000000265b2 .LASF1836
C:\Users\CYMR90~1\AppData\Local\Temp\ccMBshSz.s:26437  .debug_str:00000000000160f9 .LASF1837
C:\Users\CYMR90~1\AppData\Local\Temp\ccMBshSz.s:27156  .debug_str:0000000000019001 .LASF1838
C:\Users\CYMR90~1\AppData\Local\Temp\ccMBshSz.s:25101  .debug_str:0000000000010c12 .LASF1839
C:\Users\CYMR90~1\AppData\Local\Temp\ccMBshSz.s:28118  .debug_str:000000000001cf75 .LASF1840
C:\Users\CYMR90~1\AppData\Local\Temp\ccMBshSz.s:27390  .debug_str:0000000000019fa2 .LASF1841
C:\Users\CYMR90~1\AppData\Local\Temp\ccMBshSz.s:30192  .debug_str:0000000000024fc6 .LASF1842
C:\Users\CYMR90~1\AppData\Local\Temp\ccMBshSz.s:30600  .debug_str:0000000000026ae5 .LASF1843
C:\Users\CYMR90~1\AppData\Local\Temp\ccMBshSz.s:31804  .debug_str:000000000002b796 .LASF1844
C:\Users\CYMR90~1\AppData\Local\Temp\ccMBshSz.s:31662  .debug_str:000000000002ae55 .LASF1845
C:\Users\CYMR90~1\AppData\Local\Temp\ccMBshSz.s:22995  .debug_str:00000000000086b0 .LASF1846
C:\Users\CYMR90~1\AppData\Local\Temp\ccMBshSz.s:28322  .debug_str:000000000001dc9f .LASF1847
C:\Users\CYMR90~1\AppData\Local\Temp\ccMBshSz.s:29466  .debug_str:000000000002227f .LASF1848
C:\Users\CYMR90~1\AppData\Local\Temp\ccMBshSz.s:29480  .debug_str:0000000000022333 .LASF1849
C:\Users\CYMR90~1\AppData\Local\Temp\ccMBshSz.s:28702  .debug_str:000000000001f3fe .LASF1850
C:\Users\CYMR90~1\AppData\Local\Temp\ccMBshSz.s:23055  .debug_str:0000000000008a7b .LASF1851
C:\Users\CYMR90~1\AppData\Local\Temp\ccMBshSz.s:30554  .debug_str:0000000000026819 .LASF1852
C:\Users\CYMR90~1\AppData\Local\Temp\ccMBshSz.s:24297  .debug_str:000000000000da4d .LASF1853
C:\Users\CYMR90~1\AppData\Local\Temp\ccMBshSz.s:21697  .debug_str:0000000000003274 .LASF1854
C:\Users\CYMR90~1\AppData\Local\Temp\ccMBshSz.s:28200  .debug_str:000000000001d523 .LASF1855
C:\Users\CYMR90~1\AppData\Local\Temp\ccMBshSz.s:30828  .debug_str:000000000002795a .LASF1856
C:\Users\CYMR90~1\AppData\Local\Temp\ccMBshSz.s:23145  .debug_str:0000000000009023 .LASF1857
C:\Users\CYMR90~1\AppData\Local\Temp\ccMBshSz.s:23987  .debug_str:000000000000c693 .LASF1858
C:\Users\CYMR90~1\AppData\Local\Temp\ccMBshSz.s:30920  .debug_str:0000000000027f72 .LASF1859
C:\Users\CYMR90~1\AppData\Local\Temp\ccMBshSz.s:26163  .debug_str:0000000000014fe6 .LASF1860
C:\Users\CYMR90~1\AppData\Local\Temp\ccMBshSz.s:27096  .debug_str:0000000000018c31 .LASF1861
C:\Users\CYMR90~1\AppData\Local\Temp\ccMBshSz.s:24909  .debug_str:000000000000ffc4 .LASF1862
C:\Users\CYMR90~1\AppData\Local\Temp\ccMBshSz.s:22675  .debug_str:000000000000707f .LASF1863
C:\Users\CYMR90~1\AppData\Local\Temp\ccMBshSz.s:27006  .debug_str:0000000000018621 .LASF1864
C:\Users\CYMR90~1\AppData\Local\Temp\ccMBshSz.s:22309  .debug_str:00000000000059e4 .LASF1865
C:\Users\CYMR90~1\AppData\Local\Temp\ccMBshSz.s:29660  .debug_str:0000000000022e25 .LASF1866
C:\Users\CYMR90~1\AppData\Local\Temp\ccMBshSz.s:28886  .debug_str:000000000001ff3e .LASF1867
C:\Users\CYMR90~1\AppData\Local\Temp\ccMBshSz.s:23919  .debug_str:000000000000c25a .LASF1868
C:\Users\CYMR90~1\AppData\Local\Temp\ccMBshSz.s:21027  .debug_str:00000000000008ea .LASF1869
C:\Users\CYMR90~1\AppData\Local\Temp\ccMBshSz.s:22975  .debug_str:0000000000008562 .LASF1870
C:\Users\CYMR90~1\AppData\Local\Temp\ccMBshSz.s:31200  .debug_str:000000000002920a .LASF1871
C:\Users\CYMR90~1\AppData\Local\Temp\ccMBshSz.s:30296  .debug_str:0000000000025793 .LASF1872
C:\Users\CYMR90~1\AppData\Local\Temp\ccMBshSz.s:26305  .debug_str:0000000000015812 .LASF1873
C:\Users\CYMR90~1\AppData\Local\Temp\ccMBshSz.s:22837  .debug_str:0000000000007b3b .LASF1874
C:\Users\CYMR90~1\AppData\Local\Temp\ccMBshSz.s:23721  .debug_str:000000000000b4a5 .LASF1875
C:\Users\CYMR90~1\AppData\Local\Temp\ccMBshSz.s:31384  .debug_str:0000000000029dc8 .LASF1876
C:\Users\CYMR90~1\AppData\Local\Temp\ccMBshSz.s:27624  .debug_str:000000000001afd0 .LASF1877
C:\Users\CYMR90~1\AppData\Local\Temp\ccMBshSz.s:28376  .debug_str:000000000001e06f .LASF1878
C:\Users\CYMR90~1\AppData\Local\Temp\ccMBshSz.s:24749  .debug_str:000000000000f56d .LASF1879
C:\Users\CYMR90~1\AppData\Local\Temp\ccMBshSz.s:23101  .debug_str:0000000000008d46 .LASF1880
C:\Users\CYMR90~1\AppData\Local\Temp\ccMBshSz.s:28682  .debug_str:000000000001f2c1 .LASF1881
C:\Users\CYMR90~1\AppData\Local\Temp\ccMBshSz.s:21135  .debug_str:0000000000001012 .LASF1882
C:\Users\CYMR90~1\AppData\Local\Temp\ccMBshSz.s:29086  .debug_str:0000000000020b7b .LASF1883
C:\Users\CYMR90~1\AppData\Local\Temp\ccMBshSz.s:31800  .debug_str:000000000002b74e .LASF1884
C:\Users\CYMR90~1\AppData\Local\Temp\ccMBshSz.s:28792  .debug_str:000000000001f945 .LASF1885
C:\Users\CYMR90~1\AppData\Local\Temp\ccMBshSz.s:30936  .debug_str:0000000000028072 .LASF1886
C:\Users\CYMR90~1\AppData\Local\Temp\ccMBshSz.s:23325  .debug_str:0000000000009b1b .LASF1887
C:\Users\CYMR90~1\AppData\Local\Temp\ccMBshSz.s:23131  .debug_str:0000000000008f44 .LASF1888
C:\Users\CYMR90~1\AppData\Local\Temp\ccMBshSz.s:31832  .debug_str:000000000002b924 .LASF1889
C:\Users\CYMR90~1\AppData\Local\Temp\ccMBshSz.s:27248  .debug_str:0000000000019619 .LASF1890
C:\Users\CYMR90~1\AppData\Local\Temp\ccMBshSz.s:23317  .debug_str:0000000000009a75 .LASF1891
C:\Users\CYMR90~1\AppData\Local\Temp\ccMBshSz.s:23413  .debug_str:000000000000a05f .LASF1892
C:\Users\CYMR90~1\AppData\Local\Temp\ccMBshSz.s:28000  .debug_str:000000000001c6a2 .LASF1893
C:\Users\CYMR90~1\AppData\Local\Temp\ccMBshSz.s:23125  .debug_str:0000000000008ed8 .LASF1894
C:\Users\CYMR90~1\AppData\Local\Temp\ccMBshSz.s:24361  .debug_str:000000000000de32 .LASF1895
C:\Users\CYMR90~1\AppData\Local\Temp\ccMBshSz.s:26698  .debug_str:0000000000017398 .LASF1896
C:\Users\CYMR90~1\AppData\Local\Temp\ccMBshSz.s:21339  .debug_str:0000000000001cbc .LASF1897
C:\Users\CYMR90~1\AppData\Local\Temp\ccMBshSz.s:30670  .debug_str:0000000000026f2c .LASF1898
C:\Users\CYMR90~1\AppData\Local\Temp\ccMBshSz.s:27494  .debug_str:000000000001a717 .LASF1899
C:\Users\CYMR90~1\AppData\Local\Temp\ccMBshSz.s:24195  .debug_str:000000000000d491 .LASF1900
C:\Users\CYMR90~1\AppData\Local\Temp\ccMBshSz.s:20945  .debug_str:000000000000044b .LASF1901
C:\Users\CYMR90~1\AppData\Local\Temp\ccMBshSz.s:21775  .debug_str:0000000000003767 .LASF1902
C:\Users\CYMR90~1\AppData\Local\Temp\ccMBshSz.s:23825  .debug_str:000000000000bbcc .LASF1903
C:\Users\CYMR90~1\AppData\Local\Temp\ccMBshSz.s:32084  .debug_str:000000000002c964 .LASF1904
C:\Users\CYMR90~1\AppData\Local\Temp\ccMBshSz.s:26567  .debug_str:0000000000016965 .LASF1905
C:\Users\CYMR90~1\AppData\Local\Temp\ccMBshSz.s:23285  .debug_str:000000000000982a .LASF1906
C:\Users\CYMR90~1\AppData\Local\Temp\ccMBshSz.s:31016  .debug_str:0000000000028667 .LASF1907
C:\Users\CYMR90~1\AppData\Local\Temp\ccMBshSz.s:28042  .debug_str:000000000001ca1a .LASF1908
C:\Users\CYMR90~1\AppData\Local\Temp\ccMBshSz.s:22297  .debug_str:000000000000591a .LASF1909
C:\Users\CYMR90~1\AppData\Local\Temp\ccMBshSz.s:31376  .debug_str:0000000000029d4b .LASF1910
C:\Users\CYMR90~1\AppData\Local\Temp\ccMBshSz.s:27666  .debug_str:000000000001b27e .LASF1911
C:\Users\CYMR90~1\AppData\Local\Temp\ccMBshSz.s:27348  .debug_str:0000000000019d48 .LASF1912
C:\Users\CYMR90~1\AppData\Local\Temp\ccMBshSz.s:23739  .debug_str:000000000000b631 .LASF1913
C:\Users\CYMR90~1\AppData\Local\Temp\ccMBshSz.s:23583  .debug_str:000000000000ab91 .LASF1914
C:\Users\CYMR90~1\AppData\Local\Temp\ccMBshSz.s:28990  .debug_str:0000000000020568 .LASF1915
C:\Users\CYMR90~1\AppData\Local\Temp\ccMBshSz.s:30270  .debug_str:00000000000255b9 .LASF1916
C:\Users\CYMR90~1\AppData\Local\Temp\ccMBshSz.s:26858  .debug_str:0000000000017d6f .LASF1917
C:\Users\CYMR90~1\AppData\Local\Temp\ccMBshSz.s:23487  .debug_str:000000000000a51d .LASF1918
C:\Users\CYMR90~1\AppData\Local\Temp\ccMBshSz.s:31430  .debug_str:000000000002a065 .LASF1919
C:\Users\CYMR90~1\AppData\Local\Temp\ccMBshSz.s:28010  .debug_str:000000000001c745 .LASF1920
C:\Users\CYMR90~1\AppData\Local\Temp\ccMBshSz.s:23777  .debug_str:000000000000b8d1 .LASF1921
C:\Users\CYMR90~1\AppData\Local\Temp\ccMBshSz.s:22695  .debug_str:00000000000071f3 .LASF1922
C:\Users\CYMR90~1\AppData\Local\Temp\ccMBshSz.s:29058  .debug_str:00000000000209d6 .LASF1923
C:\Users\CYMR90~1\AppData\Local\Temp\ccMBshSz.s:31154  .debug_str:0000000000028f33 .LASF1924
C:\Users\CYMR90~1\AppData\Local\Temp\ccMBshSz.s:23601  .debug_str:000000000000acd8 .LASF1925
C:\Users\CYMR90~1\AppData\Local\Temp\ccMBshSz.s:28884  .debug_str:000000000001ff10 .LASF1926
C:\Users\CYMR90~1\AppData\Local\Temp\ccMBshSz.s:27906  .debug_str:000000000001c104 .LASF1927
C:\Users\CYMR90~1\AppData\Local\Temp\ccMBshSz.s:21815  .debug_str:00000000000039fb .LASF1928
C:\Users\CYMR90~1\AppData\Local\Temp\ccMBshSz.s:22741  .debug_str:00000000000074f4 .LASF1929
C:\Users\CYMR90~1\AppData\Local\Temp\ccMBshSz.s:28812  .debug_str:000000000001fa7a .LASF1930
C:\Users\CYMR90~1\AppData\Local\Temp\ccMBshSz.s:32112  .debug_str:000000000002cb67 .LASF1931
C:\Users\CYMR90~1\AppData\Local\Temp\ccMBshSz.s:31792  .debug_str:000000000002b6b4 .LASF1932
C:\Users\CYMR90~1\AppData\Local\Temp\ccMBshSz.s:22849  .debug_str:0000000000007be5 .LASF1933
C:\Users\CYMR90~1\AppData\Local\Temp\ccMBshSz.s:24889  .debug_str:000000000000fe8c .LASF1934
C:\Users\CYMR90~1\AppData\Local\Temp\ccMBshSz.s:27982  .debug_str:000000000001c563 .LASF1935
C:\Users\CYMR90~1\AppData\Local\Temp\ccMBshSz.s:22339  .debug_str:0000000000005bd1 .LASF1936
C:\Users\CYMR90~1\AppData\Local\Temp\ccMBshSz.s:27838  .debug_str:000000000001bc66 .LASF1937
C:\Users\CYMR90~1\AppData\Local\Temp\ccMBshSz.s:26806  .debug_str:0000000000017a7c .LASF1938
C:\Users\CYMR90~1\AppData\Local\Temp\ccMBshSz.s:26109  .debug_str:0000000000014c36 .LASF1939
C:\Users\CYMR90~1\AppData\Local\Temp\ccMBshSz.s:23041  .debug_str:0000000000008970 .LASF1940
C:\Users\CYMR90~1\AppData\Local\Temp\ccMBshSz.s:31222  .debug_str:000000000002937e .LASF1941
C:\Users\CYMR90~1\AppData\Local\Temp\ccMBshSz.s:28100  .debug_str:000000000001cda3 .LASF1942
C:\Users\CYMR90~1\AppData\Local\Temp\ccMBshSz.s:23957  .debug_str:000000000000c4ad .LASF1943
C:\Users\CYMR90~1\AppData\Local\Temp\ccMBshSz.s:25083  .debug_str:0000000000010a92 .LASF1944
C:\Users\CYMR90~1\AppData\Local\Temp\ccMBshSz.s:28918  .debug_str:000000000002013b .LASF1945
C:\Users\CYMR90~1\AppData\Local\Temp\ccMBshSz.s:25823  .debug_str:0000000000013a78 .LASF1946
C:\Users\CYMR90~1\AppData\Local\Temp\ccMBshSz.s:22637  .debug_str:0000000000006e23 .LASF1947
C:\Users\CYMR90~1\AppData\Local\Temp\ccMBshSz.s:21545  .debug_str:0000000000002913 .LASF1948
C:\Users\CYMR90~1\AppData\Local\Temp\ccMBshSz.s:27718  .debug_str:000000000001b57b .LASF1949
C:\Users\CYMR90~1\AppData\Local\Temp\ccMBshSz.s:24629  .debug_str:000000000000ee3f .LASF1950
C:\Users\CYMR90~1\AppData\Local\Temp\ccMBshSz.s:21409  .debug_str:00000000000020d0 .LASF1951
C:\Users\CYMR90~1\AppData\Local\Temp\ccMBshSz.s:29676  .debug_str:0000000000022ef6 .LASF1952
C:\Users\CYMR90~1\AppData\Local\Temp\ccMBshSz.s:30408  .debug_str:0000000000025f0e .LASF1953
C:\Users\CYMR90~1\AppData\Local\Temp\ccMBshSz.s:25953  .debug_str:000000000001429d .LASF1954
C:\Users\CYMR90~1\AppData\Local\Temp\ccMBshSz.s:29204  .debug_str:0000000000021246 .LASF1955
C:\Users\CYMR90~1\AppData\Local\Temp\ccMBshSz.s:29876  .debug_str:0000000000023afc .LASF1956
C:\Users\CYMR90~1\AppData\Local\Temp\ccMBshSz.s:21465  .debug_str:00000000000023cd .LASF1957
C:\Users\CYMR90~1\AppData\Local\Temp\ccMBshSz.s:31632  .debug_str:000000000002aca4 .LASF1958
C:\Users\CYMR90~1\AppData\Local\Temp\ccMBshSz.s:22855  .debug_str:0000000000007c63 .LASF1959
C:\Users\CYMR90~1\AppData\Local\Temp\ccMBshSz.s:31202  .debug_str:0000000000029249 .LASF1960
C:\Users\CYMR90~1\AppData\Local\Temp\ccMBshSz.s:28050  .debug_str:000000000001caa0 .LASF1961
C:\Users\CYMR90~1\AppData\Local\Temp\ccMBshSz.s:20987  .debug_str:0000000000000671 .LASF1962
C:\Users\CYMR90~1\AppData\Local\Temp\ccMBshSz.s:26353  .debug_str:0000000000015aed .LASF1963
C:\Users\CYMR90~1\AppData\Local\Temp\ccMBshSz.s:30250  .debug_str:000000000002545c .LASF1964
C:\Users\CYMR90~1\AppData\Local\Temp\ccMBshSz.s:22699  .debug_str:000000000000725e .LASF1965
C:\Users\CYMR90~1\AppData\Local\Temp\ccMBshSz.s:28190  .debug_str:000000000001d467 .LASF1966
C:\Users\CYMR90~1\AppData\Local\Temp\ccMBshSz.s:31732  .debug_str:000000000002b290 .LASF1967
C:\Users\CYMR90~1\AppData\Local\Temp\ccMBshSz.s:29260  .debug_str:0000000000021625 .LASF1968
C:\Users\CYMR90~1\AppData\Local\Temp\ccMBshSz.s:29564  .debug_str:0000000000022839 .LASF1969
C:\Users\CYMR90~1\AppData\Local\Temp\ccMBshSz.s:22683  .debug_str:0000000000007122 .LASF1970
C:\Users\CYMR90~1\AppData\Local\Temp\ccMBshSz.s:29568  .debug_str:000000000002286a .LASF1971
C:\Users\CYMR90~1\AppData\Local\Temp\ccMBshSz.s:30288  .debug_str:00000000000256e9 .LASF1972
C:\Users\CYMR90~1\AppData\Local\Temp\ccMBshSz.s:27336  .debug_str:0000000000019c88 .LASF1973
C:\Users\CYMR90~1\AppData\Local\Temp\ccMBshSz.s:27142  .debug_str:0000000000018f32 .LASF1974
C:\Users\CYMR90~1\AppData\Local\Temp\ccMBshSz.s:31684  .debug_str:000000000002afec .LASF1975
C:\Users\CYMR90~1\AppData\Local\Temp\ccMBshSz.s:22873  .debug_str:0000000000007e1b .LASF1976
C:\Users\CYMR90~1\AppData\Local\Temp\ccMBshSz.s:23233  .debug_str:0000000000009504 .LASF1977
C:\Users\CYMR90~1\AppData\Local\Temp\ccMBshSz.s:31452  .debug_str:000000000002a1a8 .LASF1978
C:\Users\CYMR90~1\AppData\Local\Temp\ccMBshSz.s:22163  .debug_str:0000000000005118 .LASF1979
C:\Users\CYMR90~1\AppData\Local\Temp\ccMBshSz.s:30182  .debug_str:0000000000024f1e .LASF1980
C:\Users\CYMR90~1\AppData\Local\Temp\ccMBshSz.s:30042  .debug_str:00000000000245f1 .LASF1981
C:\Users\CYMR90~1\AppData\Local\Temp\ccMBshSz.s:29884  .debug_str:0000000000023b86 .LASF1982
C:\Users\CYMR90~1\AppData\Local\Temp\ccMBshSz.s:30722  .debug_str:000000000002722b .LASF1983
C:\Users\CYMR90~1\AppData\Local\Temp\ccMBshSz.s:31636  .debug_str:000000000002acfa .LASF1984
C:\Users\CYMR90~1\AppData\Local\Temp\ccMBshSz.s:28572  .debug_str:000000000001ec18 .LASF1985
C:\Users\CYMR90~1\AppData\Local\Temp\ccMBshSz.s:27748  .debug_str:000000000001b766 .LASF1986
C:\Users\CYMR90~1\AppData\Local\Temp\ccMBshSz.s:26027  .debug_str:000000000001470e .LASF1987
C:\Users\CYMR90~1\AppData\Local\Temp\ccMBshSz.s:27038  .debug_str:000000000001881a .LASF1988
C:\Users\CYMR90~1\AppData\Local\Temp\ccMBshSz.s:24055  .debug_str:000000000000cb6e .LASF1989
C:\Users\CYMR90~1\AppData\Local\Temp\ccMBshSz.s:21911  .debug_str:0000000000004042 .LASF1990
C:\Users\CYMR90~1\AppData\Local\Temp\ccMBshSz.s:24113  .debug_str:000000000000ce9c .LASF1991
C:\Users\CYMR90~1\AppData\Local\Temp\ccMBshSz.s:25007  .debug_str:00000000000105bb .LASF1992
C:\Users\CYMR90~1\AppData\Local\Temp\ccMBshSz.s:27754  .debug_str:000000000001b7c4 .LASF1993
C:\Users\CYMR90~1\AppData\Local\Temp\ccMBshSz.s:21131  .debug_str:0000000000000fe2 .LASF1994
C:\Users\CYMR90~1\AppData\Local\Temp\ccMBshSz.s:30304  .debug_str:0000000000025827 .LASF1995
C:\Users\CYMR90~1\AppData\Local\Temp\ccMBshSz.s:21773  .debug_str:0000000000003733 .LASF1996
C:\Users\CYMR90~1\AppData\Local\Temp\ccMBshSz.s:30776  .debug_str:0000000000027666 .LASF1997
C:\Users\CYMR90~1\AppData\Local\Temp\ccMBshSz.s:23011  .debug_str:0000000000008777 .LASF1998
C:\Users\CYMR90~1\AppData\Local\Temp\ccMBshSz.s:26960  .debug_str:000000000001837c .LASF1999
C:\Users\CYMR90~1\AppData\Local\Temp\ccMBshSz.s:26455  .debug_str:000000000001620e .LASF2000
C:\Users\CYMR90~1\AppData\Local\Temp\ccMBshSz.s:25243  .debug_str:000000000001143d .LASF2001
C:\Users\CYMR90~1\AppData\Local\Temp\ccMBshSz.s:29576  .debug_str:00000000000228fc .LASF2002
C:\Users\CYMR90~1\AppData\Local\Temp\ccMBshSz.s:30994  .debug_str:000000000002851a .LASF2003
C:\Users\CYMR90~1\AppData\Local\Temp\ccMBshSz.s:24799  .debug_str:000000000000f8e2 .LASF2004
C:\Users\CYMR90~1\AppData\Local\Temp\ccMBshSz.s:29468  .debug_str:000000000002229a .LASF2005
C:\Users\CYMR90~1\AppData\Local\Temp\ccMBshSz.s:26656  .debug_str:000000000001712f .LASF2006
C:\Users\CYMR90~1\AppData\Local\Temp\ccMBshSz.s:31886  .debug_str:000000000002bcb1 .LASF2007
C:\Users\CYMR90~1\AppData\Local\Temp\ccMBshSz.s:22207  .debug_str:00000000000053bf .LASF2008
C:\Users\CYMR90~1\AppData\Local\Temp\ccMBshSz.s:25745  .debug_str:00000000000135f0 .LASF2009
C:\Users\CYMR90~1\AppData\Local\Temp\ccMBshSz.s:28468  .debug_str:000000000001e611 .LASF2010
C:\Users\CYMR90~1\AppData\Local\Temp\ccMBshSz.s:24081  .debug_str:000000000000cd0b .LASF2011
C:\Users\CYMR90~1\AppData\Local\Temp\ccMBshSz.s:21323  .debug_str:0000000000001bd6 .LASF2012
C:\Users\CYMR90~1\AppData\Local\Temp\ccMBshSz.s:29756  .debug_str:0000000000023371 .LASF2013
C:\Users\CYMR90~1\AppData\Local\Temp\ccMBshSz.s:29518  .debug_str:0000000000022521 .LASF2014
C:\Users\CYMR90~1\AppData\Local\Temp\ccMBshSz.s:27472  .debug_str:000000000001a5ba .LASF2015
C:\Users\CYMR90~1\AppData\Local\Temp\ccMBshSz.s:31364  .debug_str:0000000000029c97 .LASF2016
C:\Users\CYMR90~1\AppData\Local\Temp\ccMBshSz.s:29668  .debug_str:0000000000022e9f .LASF2017
C:\Users\CYMR90~1\AppData\Local\Temp\ccMBshSz.s:31794  .debug_str:000000000002b6e4 .LASF2018
C:\Users\CYMR90~1\AppData\Local\Temp\ccMBshSz.s:28230  .debug_str:000000000001d6df .LASF2019
C:\Users\CYMR90~1\AppData\Local\Temp\ccMBshSz.s:22573  .debug_str:00000000000069e9 .LASF2020
C:\Users\CYMR90~1\AppData\Local\Temp\ccMBshSz.s:29712  .debug_str:00000000000230f6 .LASF2021
C:\Users\CYMR90~1\AppData\Local\Temp\ccMBshSz.s:30712  .debug_str:00000000000271ad .LASF2022
C:\Users\CYMR90~1\AppData\Local\Temp\ccMBshSz.s:25125  .debug_str:0000000000010d34 .LASF2023
C:\Users\CYMR90~1\AppData\Local\Temp\ccMBshSz.s:30648  .debug_str:0000000000026d90 .LASF2024
C:\Users\CYMR90~1\AppData\Local\Temp\ccMBshSz.s:23801  .debug_str:000000000000ba98 .LASF2025
C:\Users\CYMR90~1\AppData\Local\Temp\ccMBshSz.s:31746  .debug_str:000000000002b35f .LASF2026
C:\Users\CYMR90~1\AppData\Local\Temp\ccMBshSz.s:21737  .debug_str:0000000000003526 .LASF2027
C:\Users\CYMR90~1\AppData\Local\Temp\ccMBshSz.s:29768  .debug_str:0000000000023417 .LASF2028
C:\Users\CYMR90~1\AppData\Local\Temp\ccMBshSz.s:28780  .debug_str:000000000001f87a .LASF2029
C:\Users\CYMR90~1\AppData\Local\Temp\ccMBshSz.s:25387  .debug_str:0000000000011e31 .LASF2030
C:\Users\CYMR90~1\AppData\Local\Temp\ccMBshSz.s:26862  .debug_str:0000000000017db0 .LASF2031
C:\Users\CYMR90~1\AppData\Local\Temp\ccMBshSz.s:23577  .debug_str:000000000000ab4c .LASF2032
C:\Users\CYMR90~1\AppData\Local\Temp\ccMBshSz.s:24765  .debug_str:000000000000f6f0 .LASF2033
C:\Users\CYMR90~1\AppData\Local\Temp\ccMBshSz.s:23781  .debug_str:000000000000b914 .LASF2034
C:\Users\CYMR90~1\AppData\Local\Temp\ccMBshSz.s:25315  .debug_str:0000000000011a06 .LASF2035
C:\Users\CYMR90~1\AppData\Local\Temp\ccMBshSz.s:29240  .debug_str:00000000000214ef .LASF2036
C:\Users\CYMR90~1\AppData\Local\Temp\ccMBshSz.s:29648  .debug_str:0000000000022d91 .LASF2037
C:\Users\CYMR90~1\AppData\Local\Temp\ccMBshSz.s:30228  .debug_str:000000000002525b .LASF2038
C:\Users\CYMR90~1\AppData\Local\Temp\ccMBshSz.s:25411  .debug_str:0000000000011ff9 .LASF2039
C:\Users\CYMR90~1\AppData\Local\Temp\ccMBshSz.s:27410  .debug_str:000000000001a0c8 .LASF2040
C:\Users\CYMR90~1\AppData\Local\Temp\ccMBshSz.s:24109  .debug_str:000000000000ce6f .LASF2041
C:\Users\CYMR90~1\AppData\Local\Temp\ccMBshSz.s:21553  .debug_str:0000000000002986 .LASF2042
C:\Users\CYMR90~1\AppData\Local\Temp\ccMBshSz.s:22299  .debug_str:0000000000005958 .LASF2043
C:\Users\CYMR90~1\AppData\Local\Temp\ccMBshSz.s:32162  .debug_str:000000000002cede .LASF2044
C:\Users\CYMR90~1\AppData\Local\Temp\ccMBshSz.s:25713  .debug_str:00000000000133cd .LASF2045
C:\Users\CYMR90~1\AppData\Local\Temp\ccMBshSz.s:29534  .debug_str:000000000002262d .LASF2046
C:\Users\CYMR90~1\AppData\Local\Temp\ccMBshSz.s:31166  .debug_str:0000000000029006 .LASF2047
C:\Users\CYMR90~1\AppData\Local\Temp\ccMBshSz.s:27886  .debug_str:000000000001bfc4 .LASF2048
C:\Users\CYMR90~1\AppData\Local\Temp\ccMBshSz.s:22891  .debug_str:0000000000007f46 .LASF2049
C:\Users\CYMR90~1\AppData\Local\Temp\ccMBshSz.s:22361  .debug_str:0000000000005d12 .LASF2050
C:\Users\CYMR90~1\AppData\Local\Temp\ccMBshSz.s:21723  .debug_str:000000000000342c .LASF2051
C:\Users\CYMR90~1\AppData\Local\Temp\ccMBshSz.s:23687  .debug_str:000000000000b2c7 .LASF2052
C:\Users\CYMR90~1\AppData\Local\Temp\ccMBshSz.s:30268  .debug_str:0000000000025572 .LASF2053
C:\Users\CYMR90~1\AppData\Local\Temp\ccMBshSz.s:31590  .debug_str:000000000002aa43 .LASF2054
C:\Users\CYMR90~1\AppData\Local\Temp\ccMBshSz.s:22171  .debug_str:0000000000005197 .LASF2055
C:\Users\CYMR90~1\AppData\Local\Temp\ccMBshSz.s:30604  .debug_str:0000000000026b1c .LASF2056
C:\Users\CYMR90~1\AppData\Local\Temp\ccMBshSz.s:28590  .debug_str:000000000001ed26 .LASF2057
C:\Users\CYMR90~1\AppData\Local\Temp\ccMBshSz.s:26716  .debug_str:00000000000174a2 .LASF2058
C:\Users\CYMR90~1\AppData\Local\Temp\ccMBshSz.s:23567  .debug_str:000000000000aaa3 .LASF2059
C:\Users\CYMR90~1\AppData\Local\Temp\ccMBshSz.s:24353  .debug_str:000000000000ddb2 .LASF2060
C:\Users\CYMR90~1\AppData\Local\Temp\ccMBshSz.s:29044  .debug_str:000000000002093a .LASF2061
C:\Users\CYMR90~1\AppData\Local\Temp\ccMBshSz.s:25851  .debug_str:0000000000013c29 .LASF2062
C:\Users\CYMR90~1\AppData\Local\Temp\ccMBshSz.s:21525  .debug_str:00000000000027a3 .LASF2063
C:\Users\CYMR90~1\AppData\Local\Temp\ccMBshSz.s:27612  .debug_str:000000000001aebf .LASF2064
C:\Users\CYMR90~1\AppData\Local\Temp\ccMBshSz.s:26487  .debug_str:00000000000163e3 .LASF2065
C:\Users\CYMR90~1\AppData\Local\Temp\ccMBshSz.s:23249  .debug_str:00000000000095e4 .LASF2066
C:\Users\CYMR90~1\AppData\Local\Temp\ccMBshSz.s:23715  .debug_str:000000000000b447 .LASF2067
C:\Users\CYMR90~1\AppData\Local\Temp\ccMBshSz.s:26812  .debug_str:0000000000017ad3 .LASF2068
C:\Users\CYMR90~1\AppData\Local\Temp\ccMBshSz.s:26429  .debug_str:0000000000016058 .LASF2069
C:\Users\CYMR90~1\AppData\Local\Temp\ccMBshSz.s:24251  .debug_str:000000000000d7c1 .LASF2070
C:\Users\CYMR90~1\AppData\Local\Temp\ccMBshSz.s:22333  .debug_str:0000000000005b8a .LASF2071
C:\Users\CYMR90~1\AppData\Local\Temp\ccMBshSz.s:25569  .debug_str:0000000000012a3d .LASF2072
C:\Users\CYMR90~1\AppData\Local\Temp\ccMBshSz.s:24587  .debug_str:000000000000ec23 .LASF2073
C:\Users\CYMR90~1\AppData\Local\Temp\ccMBshSz.s:23837  .debug_str:000000000000bc99 .LASF2074
C:\Users\CYMR90~1\AppData\Local\Temp\ccMBshSz.s:31966  .debug_str:000000000002c1f8 .LASF2075
C:\Users\CYMR90~1\AppData\Local\Temp\ccMBshSz.s:23117  .debug_str:0000000000008e9a .LASF2076
C:\Users\CYMR90~1\AppData\Local\Temp\ccMBshSz.s:31250  .debug_str:0000000000029587 .LASF2077
C:\Users\CYMR90~1\AppData\Local\Temp\ccMBshSz.s:31868  .debug_str:000000000002bbaa .LASF2078
C:\Users\CYMR90~1\AppData\Local\Temp\ccMBshSz.s:21289  .debug_str:00000000000019ac .LASF2079
C:\Users\CYMR90~1\AppData\Local\Temp\ccMBshSz.s:29798  .debug_str:0000000000023630 .LASF2080
C:\Users\CYMR90~1\AppData\Local\Temp\ccMBshSz.s:31130  .debug_str:0000000000028dd0 .LASF2081
C:\Users\CYMR90~1\AppData\Local\Temp\ccMBshSz.s:31224  .debug_str:00000000000293a6 .LASF2082
C:\Users\CYMR90~1\AppData\Local\Temp\ccMBshSz.s:25437  .debug_str:0000000000012175 .LASF2083
C:\Users\CYMR90~1\AppData\Local\Temp\ccMBshSz.s:22895  .debug_str:0000000000007f8d .LASF2084
C:\Users\CYMR90~1\AppData\Local\Temp\ccMBshSz.s:29682  .debug_str:0000000000022f54 .LASF2085
C:\Users\CYMR90~1\AppData\Local\Temp\ccMBshSz.s:21183  .debug_str:00000000000012d0 .LASF2086
C:\Users\CYMR90~1\AppData\Local\Temp\ccMBshSz.s:21041  .debug_str:00000000000009c6 .LASF2087
C:\Users\CYMR90~1\AppData\Local\Temp\ccMBshSz.s:27670  .debug_str:000000000001b2c4 .LASF2088
C:\Users\CYMR90~1\AppData\Local\Temp\ccMBshSz.s:28750  .debug_str:000000000001f6cd .LASF2089
C:\Users\CYMR90~1\AppData\Local\Temp\ccMBshSz.s:26644  .debug_str:0000000000017076 .LASF2090
C:\Users\CYMR90~1\AppData\Local\Temp\ccMBshSz.s:25371  .debug_str:0000000000011d49 .LASF2091
C:\Users\CYMR90~1\AppData\Local\Temp\ccMBshSz.s:26742  .debug_str:000000000001763f .LASF2092
C:\Users\CYMR90~1\AppData\Local\Temp\ccMBshSz.s:25881  .debug_str:0000000000013deb .LASF2093
C:\Users\CYMR90~1\AppData\Local\Temp\ccMBshSz.s:31960  .debug_str:000000000002c1a4 .LASF2094
C:\Users\CYMR90~1\AppData\Local\Temp\ccMBshSz.s:21937  .debug_str:0000000000004250 .LASF2095
C:\Users\CYMR90~1\AppData\Local\Temp\ccMBshSz.s:23365  .debug_str:0000000000009d6a .LASF2096
C:\Users\CYMR90~1\AppData\Local\Temp\ccMBshSz.s:21693  .debug_str:0000000000003211 .LASF2097
C:\Users\CYMR90~1\AppData\Local\Temp\ccMBshSz.s:30418  .debug_str:0000000000025fac .LASF2098
C:\Users\CYMR90~1\AppData\Local\Temp\ccMBshSz.s:24921  .debug_str:0000000000010098 .LASF2099
C:\Users\CYMR90~1\AppData\Local\Temp\ccMBshSz.s:23723  .debug_str:000000000000b4ce .LASF2100
C:\Users\CYMR90~1\AppData\Local\Temp\ccMBshSz.s:22507  .debug_str:00000000000065cf .LASF2101
C:\Users\CYMR90~1\AppData\Local\Temp\ccMBshSz.s:21603  .debug_str:0000000000002c82 .LASF2102
C:\Users\CYMR90~1\AppData\Local\Temp\ccMBshSz.s:23405  .debug_str:0000000000009fb8 .LASF2103
C:\Users\CYMR90~1\AppData\Local\Temp\ccMBshSz.s:31916  .debug_str:000000000002be8d .LASF2104
C:\Users\CYMR90~1\AppData\Local\Temp\ccMBshSz.s:26740  .debug_str:000000000001761b .LASF2105
C:\Users\CYMR90~1\AppData\Local\Temp\ccMBshSz.s:21711  .debug_str:0000000000003354 .LASF2106
C:\Users\CYMR90~1\AppData\Local\Temp\ccMBshSz.s:31190  .debug_str:0000000000029191 .LASF2107
C:\Users\CYMR90~1\AppData\Local\Temp\ccMBshSz.s:25405  .debug_str:0000000000011f7f .LASF2108
C:\Users\CYMR90~1\AppData\Local\Temp\ccMBshSz.s:21727  .debug_str:000000000000346a .LASF2109
C:\Users\CYMR90~1\AppData\Local\Temp\ccMBshSz.s:24155  .debug_str:000000000000d149 .LASF2110
C:\Users\CYMR90~1\AppData\Local\Temp\ccMBshSz.s:26690  .debug_str:0000000000017300 .LASF2111
C:\Users\CYMR90~1\AppData\Local\Temp\ccMBshSz.s:28770  .debug_str:000000000001f7f4 .LASF2112
C:\Users\CYMR90~1\AppData\Local\Temp\ccMBshSz.s:31358  .debug_str:0000000000029c3d .LASF2113
C:\Users\CYMR90~1\AppData\Local\Temp\ccMBshSz.s:30758  .debug_str:0000000000027547 .LASF2114
C:\Users\CYMR90~1\AppData\Local\Temp\ccMBshSz.s:25769  .debug_str:000000000001373b .LASF2115
C:\Users\CYMR90~1\AppData\Local\Temp\ccMBshSz.s:27602  .debug_str:000000000001adfa .LASF2116
C:\Users\CYMR90~1\AppData\Local\Temp\ccMBshSz.s:25965  .debug_str:000000000001433a .LASF2117
C:\Users\CYMR90~1\AppData\Local\Temp\ccMBshSz.s:30032  .debug_str:0000000000024561 .LASF2118
C:\Users\CYMR90~1\AppData\Local\Temp\ccMBshSz.s:28712  .debug_str:000000000001f49c .LASF2119
C:\Users\CYMR90~1\AppData\Local\Temp\ccMBshSz.s:21557  .debug_str:00000000000029bd .LASF2120
C:\Users\CYMR90~1\AppData\Local\Temp\ccMBshSz.s:29144  .debug_str:0000000000020ef6 .LASF2121
C:\Users\CYMR90~1\AppData\Local\Temp\ccMBshSz.s:22969  .debug_str:00000000000084f8 .LASF2122
C:\Users\CYMR90~1\AppData\Local\Temp\ccMBshSz.s:25821  .debug_str:0000000000013a54 .LASF2123
C:\Users\CYMR90~1\AppData\Local\Temp\ccMBshSz.s:28452  .debug_str:000000000001e4e1 .LASF2124
C:\Users\CYMR90~1\AppData\Local\Temp\ccMBshSz.s:25665  .debug_str:0000000000013077 .LASF2125
C:\Users\CYMR90~1\AppData\Local\Temp\ccMBshSz.s:26804  .debug_str:0000000000017a55 .LASF2126
C:\Users\CYMR90~1\AppData\Local\Temp\ccMBshSz.s:30736  .debug_str:0000000000027336 .LASF2127
C:\Users\CYMR90~1\AppData\Local\Temp\ccMBshSz.s:29254  .debug_str:00000000000215b1 .LASF2128
C:\Users\CYMR90~1\AppData\Local\Temp\ccMBshSz.s:25121  .debug_str:0000000000010cf9 .LASF2129
C:\Users\CYMR90~1\AppData\Local\Temp\ccMBshSz.s:29160  .debug_str:0000000000020fd0 .LASF2130
C:\Users\CYMR90~1\AppData\Local\Temp\ccMBshSz.s:27028  .debug_str:0000000000018785 .LASF2131
C:\Users\CYMR90~1\AppData\Local\Temp\ccMBshSz.s:28986  .debug_str:0000000000020522 .LASF2132
C:\Users\CYMR90~1\AppData\Local\Temp\ccMBshSz.s:25309  .debug_str:0000000000011990 .LASF2133
C:\Users\CYMR90~1\AppData\Local\Temp\ccMBshSz.s:21701  .debug_str:00000000000032b6 .LASF2134
C:\Users\CYMR90~1\AppData\Local\Temp\ccMBshSz.s:21433  .debug_str:000000000000221f .LASF2135
C:\Users\CYMR90~1\AppData\Local\Temp\ccMBshSz.s:27188  .debug_str:000000000001929d .LASF2136
C:\Users\CYMR90~1\AppData\Local\Temp\ccMBshSz.s:31460  .debug_str:000000000002a237 .LASF2137
C:\Users\CYMR90~1\AppData\Local\Temp\ccMBshSz.s:22971  .debug_str:000000000000851d .LASF2138
C:\Users\CYMR90~1\AppData\Local\Temp\ccMBshSz.s:29352  .debug_str:0000000000021bba .LASF2139
C:\Users\CYMR90~1\AppData\Local\Temp\ccMBshSz.s:25221  .debug_str:00000000000112b7 .LASF2140
C:\Users\CYMR90~1\AppData\Local\Temp\ccMBshSz.s:24709  .debug_str:000000000000f32a .LASF2141
C:\Users\CYMR90~1\AppData\Local\Temp\ccMBshSz.s:28728  .debug_str:000000000001f597 .LASF2142
C:\Users\CYMR90~1\AppData\Local\Temp\ccMBshSz.s:29278  .debug_str:0000000000021715 .LASF2143
C:\Users\CYMR90~1\AppData\Local\Temp\ccMBshSz.s:25503  .debug_str:00000000000125c7 .LASF2144
C:\Users\CYMR90~1\AppData\Local\Temp\ccMBshSz.s:21729  .debug_str:0000000000003491 .LASF2145
C:\Users\CYMR90~1\AppData\Local\Temp\ccMBshSz.s:20899  .debug_str:000000000000014f .LASF2146
C:\Users\CYMR90~1\AppData\Local\Temp\ccMBshSz.s:21315  .debug_str:0000000000001b3a .LASF2147
C:\Users\CYMR90~1\AppData\Local\Temp\ccMBshSz.s:26748  .debug_str:0000000000017695 .LASF2148
C:\Users\CYMR90~1\AppData\Local\Temp\ccMBshSz.s:31156  .debug_str:0000000000028f73 .LASF2149
C:\Users\CYMR90~1\AppData\Local\Temp\ccMBshSz.s:30760  .debug_str:000000000002756e .LASF2150
C:\Users\CYMR90~1\AppData\Local\Temp\ccMBshSz.s:25771  .debug_str:0000000000013762 .LASF2151
C:\Users\CYMR90~1\AppData\Local\Temp\ccMBshSz.s:24323  .debug_str:000000000000db98 .LASF2152
C:\Users\CYMR90~1\AppData\Local\Temp\ccMBshSz.s:31316  .debug_str:0000000000029a06 .LASF2153
C:\Users\CYMR90~1\AppData\Local\Temp\ccMBshSz.s:26529  .debug_str:00000000000166d2 .LASF2154
C:\Users\CYMR90~1\AppData\Local\Temp\ccMBshSz.s:21243  .debug_str:0000000000001656 .LASF2155
C:\Users\CYMR90~1\AppData\Local\Temp\ccMBshSz.s:21803  .debug_str:0000000000003955 .LASF2156
C:\Users\CYMR90~1\AppData\Local\Temp\ccMBshSz.s:30724  .debug_str:000000000002724e .LASF2157
C:\Users\CYMR90~1\AppData\Local\Temp\ccMBshSz.s:25159  .debug_str:0000000000010f22 .LASF2158
C:\Users\CYMR90~1\AppData\Local\Temp\ccMBshSz.s:27090  .debug_str:0000000000018b59 .LASF2159
C:\Users\CYMR90~1\AppData\Local\Temp\ccMBshSz.s:30526  .debug_str:0000000000026673 .LASF2160
C:\Users\CYMR90~1\AppData\Local\Temp\ccMBshSz.s:23149  .debug_str:0000000000009065 .LASF2161
C:\Users\CYMR90~1\AppData\Local\Temp\ccMBshSz.s:31440  .debug_str:000000000002a10b .LASF2162
C:\Users\CYMR90~1\AppData\Local\Temp\ccMBshSz.s:32150  .debug_str:000000000002cdbc .LASF2163
C:\Users\CYMR90~1\AppData\Local\Temp\ccMBshSz.s:21837  .debug_str:0000000000003b84 .LASF2164
C:\Users\CYMR90~1\AppData\Local\Temp\ccMBshSz.s:29778  .debug_str:00000000000234b3 .LASF2165
C:\Users\CYMR90~1\AppData\Local\Temp\ccMBshSz.s:27172  .debug_str:00000000000191d6 .LASF2166
C:\Users\CYMR90~1\AppData\Local\Temp\ccMBshSz.s:24703  .debug_str:000000000000f2d3 .LASF2167
C:\Users\CYMR90~1\AppData\Local\Temp\ccMBshSz.s:23003  .debug_str:000000000000870b .LASF2168
C:\Users\CYMR90~1\AppData\Local\Temp\ccMBshSz.s:28286  .debug_str:000000000001da99 .LASF2169
C:\Users\CYMR90~1\AppData\Local\Temp\ccMBshSz.s:26477  .debug_str:000000000001635b .LASF2170
C:\Users\CYMR90~1\AppData\Local\Temp\ccMBshSz.s:24475  .debug_str:000000000000e4d9 .LASF2171
C:\Users\CYMR90~1\AppData\Local\Temp\ccMBshSz.s:24617  .debug_str:000000000000ed9e .LASF2172
C:\Users\CYMR90~1\AppData\Local\Temp\ccMBshSz.s:28732  .debug_str:000000000001f5ce .LASF2173
C:\Users\CYMR90~1\AppData\Local\Temp\ccMBshSz.s:26417  .debug_str:0000000000015f7b .LASF2174
C:\Users\CYMR90~1\AppData\Local\Temp\ccMBshSz.s:25365  .debug_str:0000000000011d07 .LASF2175
C:\Users\CYMR90~1\AppData\Local\Temp\ccMBshSz.s:28518  .debug_str:000000000001e930 .LASF2176
C:\Users\CYMR90~1\AppData\Local\Temp\ccMBshSz.s:23725  .debug_str:000000000000b4dd .LASF2177
C:\Users\CYMR90~1\AppData\Local\Temp\ccMBshSz.s:29430  .debug_str:0000000000022059 .LASF2178
C:\Users\CYMR90~1\AppData\Local\Temp\ccMBshSz.s:24337  .debug_str:000000000000dc91 .LASF2179
C:\Users\CYMR90~1\AppData\Local\Temp\ccMBshSz.s:22845  .debug_str:0000000000007baf .LASF2180
C:\Users\CYMR90~1\AppData\Local\Temp\ccMBshSz.s:25605  .debug_str:0000000000012c95 .LASF2181
C:\Users\CYMR90~1\AppData\Local\Temp\ccMBshSz.s:24503  .debug_str:000000000000e6da .LASF2182
C:\Users\CYMR90~1\AppData\Local\Temp\ccMBshSz.s:26451  .debug_str:00000000000161d8 .LASF2183
C:\Users\CYMR90~1\AppData\Local\Temp\ccMBshSz.s:21955  .debug_str:000000000000434f .LASF2184
C:\Users\CYMR90~1\AppData\Local\Temp\ccMBshSz.s:24791  .debug_str:000000000000f886 .LASF2185
C:\Users\CYMR90~1\AppData\Local\Temp\ccMBshSz.s:31704  .debug_str:000000000002b10b .LASF2186
C:\Users\CYMR90~1\AppData\Local\Temp\ccMBshSz.s:28528  .debug_str:000000000001e9d0 .LASF2187
C:\Users\CYMR90~1\AppData\Local\Temp\ccMBshSz.s:23349  .debug_str:0000000000009c98 .LASF2188
C:\Users\CYMR90~1\AppData\Local\Temp\ccMBshSz.s:27508  .debug_str:000000000001a883 .LASF2189
C:\Users\CYMR90~1\AppData\Local\Temp\ccMBshSz.s:21895  .debug_str:0000000000003eed .LASF2190
C:\Users\CYMR90~1\AppData\Local\Temp\ccMBshSz.s:23451  .debug_str:000000000000a2c3 .LASF2191
C:\Users\CYMR90~1\AppData\Local\Temp\ccMBshSz.s:28610  .debug_str:000000000001ee3c .LASF2192
C:\Users\CYMR90~1\AppData\Local\Temp\ccMBshSz.s:21819  .debug_str:0000000000003a48 .LASF2193
C:\Users\CYMR90~1\AppData\Local\Temp\ccMBshSz.s:25249  .debug_str:0000000000011493 .LASF2194
C:\Users\CYMR90~1\AppData\Local\Temp\ccMBshSz.s:21581  .debug_str:0000000000002b1a .LASF2195
C:\Users\CYMR90~1\AppData\Local\Temp\ccMBshSz.s:22797  .debug_str:000000000000786f .LASF2196
C:\Users\CYMR90~1\AppData\Local\Temp\ccMBshSz.s:26127  .debug_str:0000000000014d74 .LASF2197
C:\Users\CYMR90~1\AppData\Local\Temp\ccMBshSz.s:23071  .debug_str:0000000000008b77 .LASF2198
C:\Users\CYMR90~1\AppData\Local\Temp\ccMBshSz.s:28980  .debug_str:00000000000204d9 .LASF2199
C:\Users\CYMR90~1\AppData\Local\Temp\ccMBshSz.s:23591  .debug_str:000000000000ac2b .LASF2200
C:\Users\CYMR90~1\AppData\Local\Temp\ccMBshSz.s:29494  .debug_str:00000000000223f6 .LASF2201
C:\Users\CYMR90~1\AppData\Local\Temp\ccMBshSz.s:28816  .debug_str:000000000001fabb .LASF2202
C:\Users\CYMR90~1\AppData\Local\Temp\ccMBshSz.s:29998  .debug_str:00000000000242ec .LASF2203
C:\Users\CYMR90~1\AppData\Local\Temp\ccMBshSz.s:30590  .debug_str:0000000000026a58 .LASF2204
C:\Users\CYMR90~1\AppData\Local\Temp\ccMBshSz.s:30422  .debug_str:0000000000025fdf .LASF2205
C:\Users\CYMR90~1\AppData\Local\Temp\ccMBshSz.s:30050  .debug_str:0000000000024658 .LASF2206
C:\Users\CYMR90~1\AppData\Local\Temp\ccMBshSz.s:29110  .debug_str:0000000000020d0b .LASF2207
C:\Users\CYMR90~1\AppData\Local\Temp\ccMBshSz.s:24969  .debug_str:000000000001035a .LASF2208
C:\Users\CYMR90~1\AppData\Local\Temp\ccMBshSz.s:27138  .debug_str:0000000000018ee4 .LASF2209
C:\Users\CYMR90~1\AppData\Local\Temp\ccMBshSz.s:28958  .debug_str:0000000000020348 .LASF2210
C:\Users\CYMR90~1\AppData\Local\Temp\ccMBshSz.s:23849  .debug_str:000000000000bda2 .LASF2211
C:\Users\CYMR90~1\AppData\Local\Temp\ccMBshSz.s:22571  .debug_str:00000000000069c1 .LASF2212
C:\Users\CYMR90~1\AppData\Local\Temp\ccMBshSz.s:25147  .debug_str:0000000000010e4b .LASF2213
C:\Users\CYMR90~1\AppData\Local\Temp\ccMBshSz.s:31968  .debug_str:000000000002c209 .LASF2214
C:\Users\CYMR90~1\AppData\Local\Temp\ccMBshSz.s:25867  .debug_str:0000000000013d00 .LASF2215
C:\Users\CYMR90~1\AppData\Local\Temp\ccMBshSz.s:23551  .debug_str:000000000000a8e7 .LASF2216
C:\Users\CYMR90~1\AppData\Local\Temp\ccMBshSz.s:27744  .debug_str:000000000001b72e .LASF2217
C:\Users\CYMR90~1\AppData\Local\Temp\ccMBshSz.s:27062  .debug_str:00000000000189a2 .LASF2218
C:\Users\CYMR90~1\AppData\Local\Temp\ccMBshSz.s:31736  .debug_str:000000000002b2cd .LASF2219
C:\Users\CYMR90~1\AppData\Local\Temp\ccMBshSz.s:28312  .debug_str:000000000001dc21 .LASF2220
C:\Users\CYMR90~1\AppData\Local\Temp\ccMBshSz.s:27150  .debug_str:0000000000018f82 .LASF2221
C:\Users\CYMR90~1\AppData\Local\Temp\ccMBshSz.s:25539  .debug_str:0000000000012822 .LASF2222
C:\Users\CYMR90~1\AppData\Local\Temp\ccMBshSz.s:27788  .debug_str:000000000001b959 .LASF2223
C:\Users\CYMR90~1\AppData\Local\Temp\ccMBshSz.s:30414  .debug_str:0000000000025f71 .LASF2224
C:\Users\CYMR90~1\AppData\Local\Temp\ccMBshSz.s:20923  .debug_str:00000000000002cb .LASF2225
C:\Users\CYMR90~1\AppData\Local\Temp\ccMBshSz.s:22029  .debug_str:000000000000484c .LASF2226
C:\Users\CYMR90~1\AppData\Local\Temp\ccMBshSz.s:27338  .debug_str:0000000000019c99 .LASF2227
C:\Users\CYMR90~1\AppData\Local\Temp\ccMBshSz.s:26616  .debug_str:0000000000016eaa .LASF2228
C:\Users\CYMR90~1\AppData\Local\Temp\ccMBshSz.s:28360  .debug_str:000000000001df7c .LASF2229
C:\Users\CYMR90~1\AppData\Local\Temp\ccMBshSz.s:21999  .debug_str:0000000000004634 .LASF2230
C:\Users\CYMR90~1\AppData\Local\Temp\ccMBshSz.s:28582  .debug_str:000000000001ec9d .LASF2231
C:\Users\CYMR90~1\AppData\Local\Temp\ccMBshSz.s:21301  .debug_str:0000000000001a5e .LASF2232
C:\Users\CYMR90~1\AppData\Local\Temp\ccMBshSz.s:27326  .debug_str:0000000000019bd5 .LASF2233
C:\Users\CYMR90~1\AppData\Local\Temp\ccMBshSz.s:24019  .debug_str:000000000000c8e5 .LASF2234
C:\Users\CYMR90~1\AppData\Local\Temp\ccMBshSz.s:22237  .debug_str:00000000000055a8 .LASF2235
C:\Users\CYMR90~1\AppData\Local\Temp\ccMBshSz.s:31922  .debug_str:000000000002beea .LASF2236
C:\Users\CYMR90~1\AppData\Local\Temp\ccMBshSz.s:24479  .debug_str:000000000000e514 .LASF2237
C:\Users\CYMR90~1\AppData\Local\Temp\ccMBshSz.s:29230  .debug_str:0000000000021453 .LASF2238
C:\Users\CYMR90~1\AppData\Local\Temp\ccMBshSz.s:28264  .debug_str:000000000001d936 .LASF2239
C:\Users\CYMR90~1\AppData\Local\Temp\ccMBshSz.s:28194  .debug_str:000000000001d4a4 .LASF2240
C:\Users\CYMR90~1\AppData\Local\Temp\ccMBshSz.s:21359  .debug_str:0000000000001dfb .LASF2241
C:\Users\CYMR90~1\AppData\Local\Temp\ccMBshSz.s:29248  .debug_str:000000000002155d .LASF2242
C:\Users\CYMR90~1\AppData\Local\Temp\ccMBshSz.s:30804  .debug_str:00000000000277f0 .LASF2243
C:\Users\CYMR90~1\AppData\Local\Temp\ccMBshSz.s:24229  .debug_str:000000000000d6ac .LASF2244
C:\Users\CYMR90~1\AppData\Local\Temp\ccMBshSz.s:26626  .debug_str:0000000000016f42 .LASF2245
C:\Users\CYMR90~1\AppData\Local\Temp\ccMBshSz.s:23541  .debug_str:000000000000a80c .LASF2246
C:\Users\CYMR90~1\AppData\Local\Temp\ccMBshSz.s:26193  .debug_str:00000000000151c1 .LASF2247
C:\Users\CYMR90~1\AppData\Local\Temp\ccMBshSz.s:21731  .debug_str:00000000000034b8 .LASF2248
C:\Users\CYMR90~1\AppData\Local\Temp\ccMBshSz.s:28604  .debug_str:000000000001ede2 .LASF2249
C:\Users\CYMR90~1\AppData\Local\Temp\ccMBshSz.s:27722  .debug_str:000000000001b5b9 .LASF2250
C:\Users\CYMR90~1\AppData\Local\Temp\ccMBshSz.s:26780  .debug_str:0000000000017891 .LASF2251
C:\Users\CYMR90~1\AppData\Local\Temp\ccMBshSz.s:30006  .debug_str:0000000000024385 .LASF2252
C:\Users\CYMR90~1\AppData\Local\Temp\ccMBshSz.s:25545  .debug_str:000000000001287f .LASF2253
C:\Users\CYMR90~1\AppData\Local\Temp\ccMBshSz.s:24289  .debug_str:000000000000d9ca .LASF2254
C:\Users\CYMR90~1\AppData\Local\Temp\ccMBshSz.s:23057  .debug_str:0000000000008a98 .LASF2255
C:\Users\CYMR90~1\AppData\Local\Temp\ccMBshSz.s:24947  .debug_str:0000000000010219 .LASF2256
C:\Users\CYMR90~1\AppData\Local\Temp\ccMBshSz.s:28002  .debug_str:000000000001c6ce .LASF2257
C:\Users\CYMR90~1\AppData\Local\Temp\ccMBshSz.s:25239  .debug_str:00000000000113f1 .LASF2258
C:\Users\CYMR90~1\AppData\Local\Temp\ccMBshSz.s:25463  .debug_str:0000000000012329 .LASF2259
C:\Users\CYMR90~1\AppData\Local\Temp\ccMBshSz.s:25143  .debug_str:0000000000010e09 .LASF2260
C:\Users\CYMR90~1\AppData\Local\Temp\ccMBshSz.s:26255  .debug_str:0000000000015565 .LASF2261
C:\Users\CYMR90~1\AppData\Local\Temp\ccMBshSz.s:21417  .debug_str:0000000000002141 .LASF2262
C:\Users\CYMR90~1\AppData\Local\Temp\ccMBshSz.s:24525  .debug_str:000000000000e819 .LASF2263
C:\Users\CYMR90~1\AppData\Local\Temp\ccMBshSz.s:28378  .debug_str:000000000001e099 .LASF2264
C:\Users\CYMR90~1\AppData\Local\Temp\ccMBshSz.s:27424  .debug_str:000000000001a181 .LASF2265
C:\Users\CYMR90~1\AppData\Local\Temp\ccMBshSz.s:24369  .debug_str:000000000000dea1 .LASF2266
C:\Users\CYMR90~1\AppData\Local\Temp\ccMBshSz.s:23737  .debug_str:000000000000b611 .LASF2267
C:\Users\CYMR90~1\AppData\Local\Temp\ccMBshSz.s:26788  .debug_str:000000000001794b .LASF2268
C:\Users\CYMR90~1\AppData\Local\Temp\ccMBshSz.s:23143  .debug_str:0000000000009003 .LASF2269
C:\Users\CYMR90~1\AppData\Local\Temp\ccMBshSz.s:22051  .debug_str:0000000000004a30 .LASF2270
C:\Users\CYMR90~1\AppData\Local\Temp\ccMBshSz.s:27880  .debug_str:000000000001bf46 .LASF2271
C:\Users\CYMR90~1\AppData\Local\Temp\ccMBshSz.s:28288  .debug_str:000000000001dab1 .LASF2272
C:\Users\CYMR90~1\AppData\Local\Temp\ccMBshSz.s:26079  .debug_str:0000000000014a52 .LASF2273
C:\Users\CYMR90~1\AppData\Local\Temp\ccMBshSz.s:31010  .debug_str:0000000000028617 .LASF2274
C:\Users\CYMR90~1\AppData\Local\Temp\ccMBshSz.s:27630  .debug_str:000000000001b033 .LASF2275
C:\Users\CYMR90~1\AppData\Local\Temp\ccMBshSz.s:24293  .debug_str:000000000000da12 .LASF2276
C:\Users\CYMR90~1\AppData\Local\Temp\ccMBshSz.s:21831  .debug_str:0000000000003b1e .LASF2277
C:\Users\CYMR90~1\AppData\Local\Temp\ccMBshSz.s:21095  .debug_str:0000000000000d58 .LASF2278
C:\Users\CYMR90~1\AppData\Local\Temp\ccMBshSz.s:30864  .debug_str:0000000000027b83 .LASF2279
C:\Users\CYMR90~1\AppData\Local\Temp\ccMBshSz.s:29234  .debug_str:0000000000021491 .LASF2280
C:\Users\CYMR90~1\AppData\Local\Temp\ccMBshSz.s:22241  .debug_str:00000000000055dc .LASF2281
C:\Users\CYMR90~1\AppData\Local\Temp\ccMBshSz.s:27360  .debug_str:0000000000019e09 .LASF2282
C:\Users\CYMR90~1\AppData\Local\Temp\ccMBshSz.s:26678  .debug_str:0000000000017249 .LASF2283
C:\Users\CYMR90~1\AppData\Local\Temp\ccMBshSz.s:28066  .debug_str:000000000001cb7c .LASF2284
C:\Users\CYMR90~1\AppData\Local\Temp\ccMBshSz.s:27588  .debug_str:000000000001ad3a .LASF2285
C:\Users\CYMR90~1\AppData\Local\Temp\ccMBshSz.s:30786  .debug_str:00000000000276fc .LASF2286
C:\Users\CYMR90~1\AppData\Local\Temp\ccMBshSz.s:25149  .debug_str:0000000000010e73 .LASF2287
C:\Users\CYMR90~1\AppData\Local\Temp\ccMBshSz.s:29392  .debug_str:0000000000021e34 .LASF2288
C:\Users\CYMR90~1\AppData\Local\Temp\ccMBshSz.s:25231  .debug_str:000000000001137c .LASF2289
C:\Users\CYMR90~1\AppData\Local\Temp\ccMBshSz.s:25357  .debug_str:0000000000011c5c .LASF2290
C:\Users\CYMR90~1\AppData\Local\Temp\ccMBshSz.s:31788  .debug_str:000000000002b66a .LASF2291
C:\Users\CYMR90~1\AppData\Local\Temp\ccMBshSz.s:28472  .debug_str:000000000001e65e .LASF2292
C:\Users\CYMR90~1\AppData\Local\Temp\ccMBshSz.s:22135  .debug_str:0000000000004f71 .LASF2293
C:\Users\CYMR90~1\AppData\Local\Temp\ccMBshSz.s:31180  .debug_str:00000000000290cf .LASF2294
C:\Users\CYMR90~1\AppData\Local\Temp\ccMBshSz.s:31752  .debug_str:000000000002b3f6 .LASF2295
C:\Users\CYMR90~1\AppData\Local\Temp\ccMBshSz.s:24351  .debug_str:000000000000dd87 .LASF2296
C:\Users\CYMR90~1\AppData\Local\Temp\ccMBshSz.s:24327  .debug_str:000000000000dbce .LASF2297
C:\Users\CYMR90~1\AppData\Local\Temp\ccMBshSz.s:23717  .debug_str:000000000000b458 .LASF2298
C:\Users\CYMR90~1\AppData\Local\Temp\ccMBshSz.s:25879  .debug_str:0000000000013dc0 .LASF2299
C:\Users\CYMR90~1\AppData\Local\Temp\ccMBshSz.s:31024  .debug_str:000000000002870c .LASF2300
C:\Users\CYMR90~1\AppData\Local\Temp\ccMBshSz.s:24679  .debug_str:000000000000f147 .LASF2301
C:\Users\CYMR90~1\AppData\Local\Temp\ccMBshSz.s:27826  .debug_str:000000000001bbc1 .LASF2302
C:\Users\CYMR90~1\AppData\Local\Temp\ccMBshSz.s:30138  .debug_str:0000000000024c41 .LASF2303
C:\Users\CYMR90~1\AppData\Local\Temp\ccMBshSz.s:24287  .debug_str:000000000000d9a3 .LASF2304
C:\Users\CYMR90~1\AppData\Local\Temp\ccMBshSz.s:29282  .debug_str:0000000000021750 .LASF2305
C:\Users\CYMR90~1\AppData\Local\Temp\ccMBshSz.s:21173  .debug_str:0000000000001251 .LASF2306
C:\Users\CYMR90~1\AppData\Local\Temp\ccMBshSz.s:27534  .debug_str:000000000001a9e9 .LASF2307
C:\Users\CYMR90~1\AppData\Local\Temp\ccMBshSz.s:28022  .debug_str:000000000001c8c4 .LASF2308
C:\Users\CYMR90~1\AppData\Local\Temp\ccMBshSz.s:21677  .debug_str:0000000000003131 .LASF2309
C:\Users\CYMR90~1\AppData\Local\Temp\ccMBshSz.s:30436  .debug_str:00000000000260eb .LASF2310
C:\Users\CYMR90~1\AppData\Local\Temp\ccMBshSz.s:31264  .debug_str:0000000000029651 .LASF2311
C:\Users\CYMR90~1\AppData\Local\Temp\ccMBshSz.s:25921  .debug_str:0000000000014092 .LASF2312
C:\Users\CYMR90~1\AppData\Local\Temp\ccMBshSz.s:30976  .debug_str:0000000000028354 .LASF2313
C:\Users\CYMR90~1\AppData\Local\Temp\ccMBshSz.s:22757  .debug_str:00000000000075ef .LASF2314
C:\Users\CYMR90~1\AppData\Local\Temp\ccMBshSz.s:29062  .debug_str:0000000000020a26 .LASF2315
C:\Users\CYMR90~1\AppData\Local\Temp\ccMBshSz.s:22817  .debug_str:00000000000079ac .LASF2316
C:\Users\CYMR90~1\AppData\Local\Temp\ccMBshSz.s:27844  .debug_str:000000000001bcdc .LASF2317
C:\Users\CYMR90~1\AppData\Local\Temp\ccMBshSz.s:31020  .debug_str:00000000000286cb .LASF2318
C:\Users\CYMR90~1\AppData\Local\Temp\ccMBshSz.s:24563  .debug_str:000000000000ea97 .LASF2319
C:\Users\CYMR90~1\AppData\Local\Temp\ccMBshSz.s:22063  .debug_str:0000000000004aec .LASF2320
C:\Users\CYMR90~1\AppData\Local\Temp\ccMBshSz.s:21595  .debug_str:0000000000002c26 .LASF2321
C:\Users\CYMR90~1\AppData\Local\Temp\ccMBshSz.s:32234  .debug_str:000000000002d355 .LASF2322
C:\Users\CYMR90~1\AppData\Local\Temp\ccMBshSz.s:22423  .debug_str:00000000000060c3 .LASF2323
C:\Users\CYMR90~1\AppData\Local\Temp\ccMBshSz.s:26041  .debug_str:0000000000014801 .LASF2324
C:\Users\CYMR90~1\AppData\Local\Temp\ccMBshSz.s:27124  .debug_str:0000000000018e3b .LASF2325
C:\Users\CYMR90~1\AppData\Local\Temp\ccMBshSz.s:23519  .debug_str:000000000000a6ea .LASF2326
C:\Users\CYMR90~1\AppData\Local\Temp\ccMBshSz.s:27020  .debug_str:0000000000018701 .LASF2327
C:\Users\CYMR90~1\AppData\Local\Temp\ccMBshSz.s:21453  .debug_str:0000000000002322 .LASF2328
C:\Users\CYMR90~1\AppData\Local\Temp\ccMBshSz.s:25957  .debug_str:00000000000142c8 .LASF2329
C:\Users\CYMR90~1\AppData\Local\Temp\ccMBshSz.s:22811  .debug_str:000000000000795f .LASF2330
C:\Users\CYMR90~1\AppData\Local\Temp\ccMBshSz.s:23951  .debug_str:000000000000c44e .LASF2331
C:\Users\CYMR90~1\AppData\Local\Temp\ccMBshSz.s:24991  .debug_str:00000000000104b9 .LASF2332
C:\Users\CYMR90~1\AppData\Local\Temp\ccMBshSz.s:29188  .debug_str:0000000000021150 .LASF2333
C:\Users\CYMR90~1\AppData\Local\Temp\ccMBshSz.s:30614  .debug_str:0000000000026bdb .LASF2334
C:\Users\CYMR90~1\AppData\Local\Temp\ccMBshSz.s:25003  .debug_str:0000000000010573 .LASF2335
C:\Users\CYMR90~1\AppData\Local\Temp\ccMBshSz.s:25397  .debug_str:0000000000011ef5 .LASF2336
C:\Users\CYMR90~1\AppData\Local\Temp\ccMBshSz.s:24455  .debug_str:000000000000e3a6 .LASF2337
C:\Users\CYMR90~1\AppData\Local\Temp\ccMBshSz.s:22437  .debug_str:00000000000061be .LASF2338
C:\Users\CYMR90~1\AppData\Local\Temp\ccMBshSz.s:21499  .debug_str:00000000000025be .LASF2339
C:\Users\CYMR90~1\AppData\Local\Temp\ccMBshSz.s:28250  .debug_str:000000000001d857 .LASF2340
C:\Users\CYMR90~1\AppData\Local\Temp\ccMBshSz.s:30498  .debug_str:00000000000264b2 .LASF2341
C:\Users\CYMR90~1\AppData\Local\Temp\ccMBshSz.s:28844  .debug_str:000000000001fc92 .LASF2342
C:\Users\CYMR90~1\AppData\Local\Temp\ccMBshSz.s:28860  .debug_str:000000000001fd6a .LASF2343
C:\Users\CYMR90~1\AppData\Local\Temp\ccMBshSz.s:29904  .debug_str:0000000000023cb0 .LASF2344
C:\Users\CYMR90~1\AppData\Local\Temp\ccMBshSz.s:30726  .debug_str:0000000000027264 .LASF2345
C:\Users\CYMR90~1\AppData\Local\Temp\ccMBshSz.s:27946  .debug_str:000000000001c38e .LASF2346
C:\Users\CYMR90~1\AppData\Local\Temp\ccMBshSz.s:28122  .debug_str:000000000001cfb3 .LASF2347
C:\Users\CYMR90~1\AppData\Local\Temp\ccMBshSz.s:23027  .debug_str:0000000000008896 .LASF2348
C:\Users\CYMR90~1\AppData\Local\Temp\ccMBshSz.s:25755  .debug_str:0000000000013697 .LASF2349
C:\Users\CYMR90~1\AppData\Local\Temp\ccMBshSz.s:29334  .debug_str:0000000000021a72 .LASF2350
C:\Users\CYMR90~1\AppData\Local\Temp\ccMBshSz.s:31618  .debug_str:000000000002abd0 .LASF2351
C:\Users\CYMR90~1\AppData\Local\Temp\ccMBshSz.s:30124  .debug_str:0000000000024b52 .LASF2352
C:\Users\CYMR90~1\AppData\Local\Temp\ccMBshSz.s:22599  .debug_str:0000000000006b79 .LASF2353
C:\Users\CYMR90~1\AppData\Local\Temp\ccMBshSz.s:24901  .debug_str:000000000000ff3e .LASF2354
C:\Users\CYMR90~1\AppData\Local\Temp\ccMBshSz.s:22541  .debug_str:00000000000067c2 .LASF2355
C:\Users\CYMR90~1\AppData\Local\Temp\ccMBshSz.s:32028  .debug_str:000000000002c609 .LASF2356
C:\Users\CYMR90~1\AppData\Local\Temp\ccMBshSz.s:31446  .debug_str:000000000002a14a .LASF2357
C:\Users\CYMR90~1\AppData\Local\Temp\ccMBshSz.s:26167  .debug_str:0000000000015028 .LASF2358
C:\Users\CYMR90~1\AppData\Local\Temp\ccMBshSz.s:23259  .debug_str:00000000000096d7 .LASF2359
C:\Users\CYMR90~1\AppData\Local\Temp\ccMBshSz.s:21825  .debug_str:0000000000003ad1 .LASF2360
C:\Users\CYMR90~1\AppData\Local\Temp\ccMBshSz.s:24911  .debug_str:000000000000ffde .LASF2361
C:\Users\CYMR90~1\AppData\Local\Temp\ccMBshSz.s:23697  .debug_str:000000000000b363 .LASF2362
C:\Users\CYMR90~1\AppData\Local\Temp\ccMBshSz.s:22467  .debug_str:0000000000006360 .LASF2363
C:\Users\CYMR90~1\AppData\Local\Temp\ccMBshSz.s:29910  .debug_str:0000000000023d00 .LASF2364
C:\Users\CYMR90~1\AppData\Local\Temp\ccMBshSz.s:29070  .debug_str:0000000000020aa1 .LASF2365
C:\Users\CYMR90~1\AppData\Local\Temp\ccMBshSz.s:25457  .debug_str:00000000000122c8 .LASF2366
C:\Users\CYMR90~1\AppData\Local\Temp\ccMBshSz.s:30158  .debug_str:0000000000024dca .LASF2367
C:\Users\CYMR90~1\AppData\Local\Temp\ccMBshSz.s:30800  .debug_str:00000000000277c3 .LASF2368
C:\Users\CYMR90~1\AppData\Local\Temp\ccMBshSz.s:23245  .debug_str:00000000000095b4 .LASF2369
C:\Users\CYMR90~1\AppData\Local\Temp\ccMBshSz.s:24555  .debug_str:000000000000e9fe .LASF2370
C:\Users\CYMR90~1\AppData\Local\Temp\ccMBshSz.s:22611  .debug_str:0000000000006c62 .LASF2371
C:\Users\CYMR90~1\AppData\Local\Temp\ccMBshSz.s:24965  .debug_str:0000000000010321 .LASF2372
C:\Users\CYMR90~1\AppData\Local\Temp\ccMBshSz.s:31902  .debug_str:000000000002bd93 .LASF2373
C:\Users\CYMR90~1\AppData\Local\Temp\ccMBshSz.s:30566  .debug_str:00000000000268f3 .LASF2374
C:\Users\CYMR90~1\AppData\Local\Temp\ccMBshSz.s:21035  .debug_str:0000000000000972 .LASF2375
C:\Users\CYMR90~1\AppData\Local\Temp\ccMBshSz.s:25361  .debug_str:0000000000011cb1 .LASF2376
C:\Users\CYMR90~1\AppData\Local\Temp\ccMBshSz.s:28548  .debug_str:000000000001eaec .LASF2377
C:\Users\CYMR90~1\AppData\Local\Temp\ccMBshSz.s:31846  .debug_str:000000000002ba50 .LASF2378
C:\Users\CYMR90~1\AppData\Local\Temp\ccMBshSz.s:23699  .debug_str:000000000000b388 .LASF2379
C:\Users\CYMR90~1\AppData\Local\Temp\ccMBshSz.s:22655  .debug_str:0000000000006f56 .LASF2380
C:\Users\CYMR90~1\AppData\Local\Temp\ccMBshSz.s:30114  .debug_str:0000000000024ab0 .LASF2381
C:\Users\CYMR90~1\AppData\Local\Temp\ccMBshSz.s:29864  .debug_str:0000000000023a5b .LASF2382
C:\Users\CYMR90~1\AppData\Local\Temp\ccMBshSz.s:25131  .debug_str:0000000000010d88 .LASF2383
C:\Users\CYMR90~1\AppData\Local\Temp\ccMBshSz.s:28332  .debug_str:000000000001dd60 .LASF2384
C:\Users\CYMR90~1\AppData\Local\Temp\ccMBshSz.s:31588  .debug_str:000000000002aa2a .LASF2385
C:\Users\CYMR90~1\AppData\Local\Temp\ccMBshSz.s:21335  .debug_str:0000000000001c8e .LASF2386
C:\Users\CYMR90~1\AppData\Local\Temp\ccMBshSz.s:26049  .debug_str:0000000000014869 .LASF2387
C:\Users\CYMR90~1\AppData\Local\Temp\ccMBshSz.s:30802  .debug_str:00000000000277d5 .LASF2388
C:\Users\CYMR90~1\AppData\Local\Temp\ccMBshSz.s:27684  .debug_str:000000000001b38c .LASF2389
C:\Users\CYMR90~1\AppData\Local\Temp\ccMBshSz.s:28852  .debug_str:000000000001fd0a .LASF2390
C:\Users\CYMR90~1\AppData\Local\Temp\ccMBshSz.s:22211  .debug_str:00000000000053fb .LASF2391
C:\Users\CYMR90~1\AppData\Local\Temp\ccMBshSz.s:26942  .debug_str:0000000000018252 .LASF2392
C:\Users\CYMR90~1\AppData\Local\Temp\ccMBshSz.s:31692  .debug_str:000000000002b056 .LASF2393
C:\Users\CYMR90~1\AppData\Local\Temp\ccMBshSz.s:27798  .debug_str:000000000001b9f4 .LASF2394
C:\Users\CYMR90~1\AppData\Local\Temp\ccMBshSz.s:30858  .debug_str:0000000000027b1e .LASF2395
C:\Users\CYMR90~1\AppData\Local\Temp\ccMBshSz.s:24223  .debug_str:000000000000d63b .LASF2396
C:\Users\CYMR90~1\AppData\Local\Temp\ccMBshSz.s:28906  .debug_str:0000000000020069 .LASF2397
C:\Users\CYMR90~1\AppData\Local\Temp\ccMBshSz.s:22261  .debug_str:00000000000056d6 .LASF2398
C:\Users\CYMR90~1\AppData\Local\Temp\ccMBshSz.s:26998  .debug_str:00000000000185b6 .LASF2399
C:\Users\CYMR90~1\AppData\Local\Temp\ccMBshSz.s:31748  .debug_str:000000000002b3c5 .LASF2400
C:\Users\CYMR90~1\AppData\Local\Temp\ccMBshSz.s:31622  .debug_str:000000000002ac08 .LASF2401
C:\Users\CYMR90~1\AppData\Local\Temp\ccMBshSz.s:23493  .debug_str:000000000000a574 .LASF2402
C:\Users\CYMR90~1\AppData\Local\Temp\ccMBshSz.s:26694  .debug_str:0000000000017345 .LASF2403
C:\Users\CYMR90~1\AppData\Local\Temp\ccMBshSz.s:29916  .debug_str:0000000000023d58 .LASF2404
C:\Users\CYMR90~1\AppData\Local\Temp\ccMBshSz.s:21853  .debug_str:0000000000003c60 .LASF2405
C:\Users\CYMR90~1\AppData\Local\Temp\ccMBshSz.s:25011  .debug_str:0000000000010617 .LASF2406
C:\Users\CYMR90~1\AppData\Local\Temp\ccMBshSz.s:28222  .debug_str:000000000001d67a .LASF2407
C:\Users\CYMR90~1\AppData\Local\Temp\ccMBshSz.s:31470  .debug_str:000000000002a2da .LASF2408
C:\Users\CYMR90~1\AppData\Local\Temp\ccMBshSz.s:25807  .debug_str:000000000001397b .LASF2409
C:\Users\CYMR90~1\AppData\Local\Temp\ccMBshSz.s:24199  .debug_str:000000000000d4c9 .LASF2410
C:\Users\CYMR90~1\AppData\Local\Temp\ccMBshSz.s:27578  .debug_str:000000000001ac97 .LASF2411
C:\Users\CYMR90~1\AppData\Local\Temp\ccMBshSz.s:20917  .debug_str:000000000000026f .LASF2412
C:\Users\CYMR90~1\AppData\Local\Temp\ccMBshSz.s:20931  .debug_str:0000000000000375 .LASF2413
C:\Users\CYMR90~1\AppData\Local\Temp\ccMBshSz.s:30336  .debug_str:0000000000025ad2 .LASF2414
C:\Users\CYMR90~1\AppData\Local\Temp\ccMBshSz.s:23733  .debug_str:000000000000b55b .LASF2415
C:\Users\CYMR90~1\AppData\Local\Temp\ccMBshSz.s:28394  .debug_str:000000000001e184 .LASF2416
C:\Users\CYMR90~1\AppData\Local\Temp\ccMBshSz.s:24047  .debug_str:000000000000caf3 .LASF2417
C:\Users\CYMR90~1\AppData\Local\Temp\ccMBshSz.s:26495  .debug_str:0000000000016443 .LASF2418
C:\Users\CYMR90~1\AppData\Local\Temp\ccMBshSz.s:28606  .debug_str:000000000001ee11 .LASF2419
C:\Users\CYMR90~1\AppData\Local\Temp\ccMBshSz.s:25671  .debug_str:00000000000130d7 .LASF2420
C:\Users\CYMR90~1\AppData\Local\Temp\ccMBshSz.s:30390  .debug_str:0000000000025e01 .LASF2421
C:\Users\CYMR90~1\AppData\Local\Temp\ccMBshSz.s:23773  .debug_str:000000000000b8a2 .LASF2422
C:\Users\CYMR90~1\AppData\Local\Temp\ccMBshSz.s:28444  .debug_str:000000000001e478 .LASF2423
C:\Users\CYMR90~1\AppData\Local\Temp\ccMBshSz.s:21821  .debug_str:0000000000003a86 .LASF2424
C:\Users\CYMR90~1\AppData\Local\Temp\ccMBshSz.s:26551  .debug_str:0000000000016811 .LASF2425
C:\Users\CYMR90~1\AppData\Local\Temp\ccMBshSz.s:23615  .debug_str:000000000000adad .LASF2426
C:\Users\CYMR90~1\AppData\Local\Temp\ccMBshSz.s:26722  .debug_str:00000000000174e9 .LASF2427
C:\Users\CYMR90~1\AppData\Local\Temp\ccMBshSz.s:29952  .debug_str:0000000000023f75 .LASF2428
C:\Users\CYMR90~1\AppData\Local\Temp\ccMBshSz.s:21805  .debug_str:000000000000396b .LASF2429
C:\Users\CYMR90~1\AppData\Local\Temp\ccMBshSz.s:25045  .debug_str:00000000000107ef .LASF2430
C:\Users\CYMR90~1\AppData\Local\Temp\ccMBshSz.s:25291  .debug_str:00000000000117ff .LASF2431
C:\Users\CYMR90~1\AppData\Local\Temp\ccMBshSz.s:31510  .debug_str:000000000002a503 .LASF2432
C:\Users\CYMR90~1\AppData\Local\Temp\ccMBshSz.s:22005  .debug_str:00000000000046a5 .LASF2433
C:\Users\CYMR90~1\AppData\Local\Temp\ccMBshSz.s:30770  .debug_str:000000000002761a .LASF2434
C:\Users\CYMR90~1\AppData\Local\Temp\ccMBshSz.s:29710  .debug_str:00000000000230df .LASF2435
C:\Users\CYMR90~1\AppData\Local\Temp\ccMBshSz.s:31076  .debug_str:0000000000028a96 .LASF2436
C:\Users\CYMR90~1\AppData\Local\Temp\ccMBshSz.s:24425  .debug_str:000000000000e1e6 .LASF2437
C:\Users\CYMR90~1\AppData\Local\Temp\ccMBshSz.s:29128  .debug_str:0000000000020e16 .LASF2438
C:\Users\CYMR90~1\AppData\Local\Temp\ccMBshSz.s:22487  .debug_str:00000000000064a8 .LASF2439
C:\Users\CYMR90~1\AppData\Local\Temp\ccMBshSz.s:27242  .debug_str:00000000000195e1 .LASF2440
C:\Users\CYMR90~1\AppData\Local\Temp\ccMBshSz.s:27620  .debug_str:000000000001afa2 .LASF2441
C:\Users\CYMR90~1\AppData\Local\Temp\ccMBshSz.s:25299  .debug_str:000000000001186c .LASF2442
C:\Users\CYMR90~1\AppData\Local\Temp\ccMBshSz.s:30016  .debug_str:0000000000024468 .LASF2443
C:\Users\CYMR90~1\AppData\Local\Temp\ccMBshSz.s:28098  .debug_str:000000000001cd8a .LASF2444
C:\Users\CYMR90~1\AppData\Local\Temp\ccMBshSz.s:29182  .debug_str:00000000000210e5 .LASF2445
C:\Users\CYMR90~1\AppData\Local\Temp\ccMBshSz.s:22545  .debug_str:00000000000067fb .LASF2446
C:\Users\CYMR90~1\AppData\Local\Temp\ccMBshSz.s:27290  .debug_str:0000000000019986 .LASF2447
C:\Users\CYMR90~1\AppData\Local\Temp\ccMBshSz.s:32024  .debug_str:000000000002c5ca .LASF2448
C:\Users\CYMR90~1\AppData\Local\Temp\ccMBshSz.s:25353  .debug_str:0000000000011c0e .LASF2449
C:\Users\CYMR90~1\AppData\Local\Temp\ccMBshSz.s:30066  .debug_str:000000000002476b .LASF2450
C:\Users\CYMR90~1\AppData\Local\Temp\ccMBshSz.s:28874  .debug_str:000000000001fe6b .LASF2451
C:\Users\CYMR90~1\AppData\Local\Temp\ccMBshSz.s:30176  .debug_str:0000000000024ed4 .LASF2452
C:\Users\CYMR90~1\AppData\Local\Temp\ccMBshSz.s:28516  .debug_str:000000000001e919 .LASF2453
C:\Users\CYMR90~1\AppData\Local\Temp\ccMBshSz.s:27134  .debug_str:0000000000018eb9 .LASF2454
C:\Users\CYMR90~1\AppData\Local\Temp\ccMBshSz.s:30338  .debug_str:0000000000025aeb .LASF2455
C:\Users\CYMR90~1\AppData\Local\Temp\ccMBshSz.s:22185  .debug_str:0000000000005268 .LASF2456
C:\Users\CYMR90~1\AppData\Local\Temp\ccMBshSz.s:25431  .debug_str:0000000000012132 .LASF2457
C:\Users\CYMR90~1\AppData\Local\Temp\ccMBshSz.s:28616  .debug_str:000000000001eea5 .LASF2458
C:\Users\CYMR90~1\AppData\Local\Temp\ccMBshSz.s:30106  .debug_str:0000000000024a4f .LASF2459
C:\Users\CYMR90~1\AppData\Local\Temp\ccMBshSz.s:23681  .debug_str:000000000000b288 .LASF2460
C:\Users\CYMR90~1\AppData\Local\Temp\ccMBshSz.s:29746  .debug_str:00000000000232ce .LASF2461
C:\Users\CYMR90~1\AppData\Local\Temp\ccMBshSz.s:31842  .debug_str:000000000002b9c0 .LASF2462
C:\Users\CYMR90~1\AppData\Local\Temp\ccMBshSz.s:28110  .debug_str:000000000001cef4 .LASF2463
C:\Users\CYMR90~1\AppData\Local\Temp\ccMBshSz.s:21459  .debug_str:000000000000236e .LASF2464
C:\Users\CYMR90~1\AppData\Local\Temp\ccMBshSz.s:26171  .debug_str:0000000000015067 .LASF2465
C:\Users\CYMR90~1\AppData\Local\Temp\ccMBshSz.s:30924  .debug_str:0000000000027fb8 .LASF2466
C:\Users\CYMR90~1\AppData\Local\Temp\ccMBshSz.s:24279  .debug_str:000000000000d93a .LASF2467
C:\Users\CYMR90~1\AppData\Local\Temp\ccMBshSz.s:28974  .debug_str:000000000002047b .LASF2468
C:\Users\CYMR90~1\AppData\Local\Temp\ccMBshSz.s:27074  .debug_str:0000000000018a5b .LASF2469
C:\Users\CYMR90~1\AppData\Local\Temp\ccMBshSz.s:21881  .debug_str:0000000000003e39 .LASF2470
C:\Users\CYMR90~1\AppData\Local\Temp\ccMBshSz.s:21515  .debug_str:0000000000002702 .LASF2471
C:\Users\CYMR90~1\AppData\Local\Temp\ccMBshSz.s:25723  .debug_str:0000000000013489 .LASF2472
C:\Users\CYMR90~1\AppData\Local\Temp\ccMBshSz.s:30980  .debug_str:0000000000028438 .LASF2473
C:\Users\CYMR90~1\AppData\Local\Temp\ccMBshSz.s:24331  .debug_str:000000000000dc1f .LASF2474
C:\Users\CYMR90~1\AppData\Local\Temp\ccMBshSz.s:29032  .debug_str:000000000002084c .LASF2475
C:\Users\CYMR90~1\AppData\Local\Temp\ccMBshSz.s:31198  .debug_str:00000000000291f1 .LASF2476
C:\Users\CYMR90~1\AppData\Local\Temp\ccMBshSz.s:21661  .debug_str:0000000000003019 .LASF2477
C:\Users\CYMR90~1\AppData\Local\Temp\ccMBshSz.s:26267  .debug_str:00000000000155f0 .LASF2478
C:\Users\CYMR90~1\AppData\Local\Temp\ccMBshSz.s:30966  .debug_str:00000000000282cc .LASF2479
C:\Users\CYMR90~1\AppData\Local\Temp\ccMBshSz.s:29302  .debug_str:00000000000218b0 .LASF2480
C:\Users\CYMR90~1\AppData\Local\Temp\ccMBshSz.s:27688  .debug_str:000000000001b3cd .LASF2481
C:\Users\CYMR90~1\AppData\Local\Temp\ccMBshSz.s:27804  .debug_str:000000000001ba3f .LASF2482
C:\Users\CYMR90~1\AppData\Local\Temp\ccMBshSz.s:31050  .debug_str:000000000002891e .LASF2483
C:\Users\CYMR90~1\AppData\Local\Temp\ccMBshSz.s:22899  .debug_str:0000000000007fc6 .LASF2484
C:\Users\CYMR90~1\AppData\Local\Temp\ccMBshSz.s:26023  .debug_str:00000000000146de .LASF2485
C:\Users\CYMR90~1\AppData\Local\Temp\ccMBshSz.s:25727  .debug_str:00000000000134b6 .LASF2486
C:\Users\CYMR90~1\AppData\Local\Temp\ccMBshSz.s:30450  .debug_str:00000000000261da .LASF2487
C:\Users\CYMR90~1\AppData\Local\Temp\ccMBshSz.s:23821  .debug_str:000000000000bb9a .LASF2488
C:\Users\CYMR90~1\AppData\Local\Temp\ccMBshSz.s:28496  .debug_str:000000000001e79c .LASF2489
C:\Users\CYMR90~1\AppData\Local\Temp\ccMBshSz.s:21871  .debug_str:0000000000003da6 .LASF2490
C:\Users\CYMR90~1\AppData\Local\Temp\ccMBshSz.s:26612  .debug_str:0000000000016e65 .LASF2491
C:\Users\CYMR90~1\AppData\Local\Temp\ccMBshSz.s:31344  .debug_str:0000000000029b65 .LASF2492
C:\Users\CYMR90~1\AppData\Local\Temp\ccMBshSz.s:24693  .debug_str:000000000000f203 .LASF2493
C:\Users\CYMR90~1\AppData\Local\Temp\ccMBshSz.s:22763  .debug_str:0000000000007640 .LASF2494
C:\Users\CYMR90~1\AppData\Local\Temp\ccMBshSz.s:23871  .debug_str:000000000000bf47 .LASF2495
C:\Users\CYMR90~1\AppData\Local\Temp\ccMBshSz.s:28538  .debug_str:000000000001ea77 .LASF2496
C:\Users\CYMR90~1\AppData\Local\Temp\ccMBshSz.s:21921  .debug_str:00000000000040bd .LASF2497
C:\Users\CYMR90~1\AppData\Local\Temp\ccMBshSz.s:21303  .debug_str:0000000000001a7f .LASF2498
C:\Users\CYMR90~1\AppData\Local\Temp\ccMBshSz.s:31396  .debug_str:0000000000029e82 .LASF2499
C:\Users\CYMR90~1\AppData\Local\Temp\ccMBshSz.s:24755  .debug_str:000000000000f5cd .LASF2500
C:\Users\CYMR90~1\AppData\Local\Temp\ccMBshSz.s:24469  .debug_str:000000000000e477 .LASF2501
C:\Users\CYMR90~1\AppData\Local\Temp\ccMBshSz.s:27698  .debug_str:000000000001b47b .LASF2502
C:\Users\CYMR90~1\AppData\Local\Temp\ccMBshSz.s:30934  .debug_str:000000000002805f .LASF2503
C:\Users\CYMR90~1\AppData\Local\Temp\ccMBshSz.s:22781  .debug_str:0000000000007775 .LASF2504
C:\Users\CYMR90~1\AppData\Local\Temp\ccMBshSz.s:25903  .debug_str:0000000000013f2f .LASF2505
C:\Users\CYMR90~1\AppData\Local\Temp\ccMBshSz.s:29126  .debug_str:0000000000020e03 .LASF2506
C:\Users\CYMR90~1\AppData\Local\Temp\ccMBshSz.s:31330  .debug_str:0000000000029aa2 .LASF2507
C:\Users\CYMR90~1\AppData\Local\Temp\ccMBshSz.s:24249  .debug_str:000000000000d7ae .LASF2508
C:\Users\CYMR90~1\AppData\Local\Temp\ccMBshSz.s:27484  .debug_str:000000000001a66c .LASF2509
C:\Users\CYMR90~1\AppData\Local\Temp\ccMBshSz.s:30690  .debug_str:0000000000027085 .LASF2510
C:\Users\CYMR90~1\AppData\Local\Temp\ccMBshSz.s:31022  .debug_str:00000000000286f7 .LASF2511
C:\Users\CYMR90~1\AppData\Local\Temp\ccMBshSz.s:24371  .debug_str:000000000000dec1 .LASF2512
C:\Users\CYMR90~1\AppData\Local\Temp\ccMBshSz.s:29074  .debug_str:0000000000020ad0 .LASF2513
C:\Users\CYMR90~1\AppData\Local\Temp\ccMBshSz.s:22415  .debug_str:000000000000602c .LASF2514
C:\Users\CYMR90~1\AppData\Local\Temp\ccMBshSz.s:27178  .debug_str:000000000001923d .LASF2515
C:\Users\CYMR90~1\AppData\Local\Temp\ccMBshSz.s:24053  .debug_str:000000000000cb59 .LASF2516
C:\Users\CYMR90~1\AppData\Local\Temp\ccMBshSz.s:25237  .debug_str:00000000000113dc .LASF2517
C:\Users\CYMR90~1\AppData\Local\Temp\ccMBshSz.s:29962  .debug_str:0000000000023fe5 .LASF2518
C:\Users\CYMR90~1\AppData\Local\Temp\ccMBshSz.s:28044  .debug_str:000000000001ca55 .LASF2519
C:\Users\CYMR90~1\AppData\Local\Temp\ccMBshSz.s:29214  .debug_str:00000000000212d5 .LASF2520
C:\Users\CYMR90~1\AppData\Local\Temp\ccMBshSz.s:22577  .debug_str:0000000000006a20 .LASF2521
C:\Users\CYMR90~1\AppData\Local\Temp\ccMBshSz.s:27316  .debug_str:0000000000019b3d .LASF2522
C:\Users\CYMR90~1\AppData\Local\Temp\ccMBshSz.s:32054  .debug_str:000000000002c7bf .LASF2523
C:\Users\CYMR90~1\AppData\Local\Temp\ccMBshSz.s:25379  .debug_str:0000000000011db6 .LASF2524
C:\Users\CYMR90~1\AppData\Local\Temp\ccMBshSz.s:30088  .debug_str:00000000000248c6 .LASF2525
C:\Users\CYMR90~1\AppData\Local\Temp\ccMBshSz.s:25579  .debug_str:0000000000012abc .LASF2526
C:\Users\CYMR90~1\AppData\Local\Temp\ccMBshSz.s:21755  .debug_str:000000000000364f .LASF2527
C:\Users\CYMR90~1\AppData\Local\Temp\ccMBshSz.s:26966  .debug_str:00000000000183d3 .LASF2528
C:\Users\CYMR90~1\AppData\Local\Temp\ccMBshSz.s:23321  .debug_str:0000000000009ae0 .LASF2529
C:\Users\CYMR90~1\AppData\Local\Temp\ccMBshSz.s:22087  .debug_str:0000000000004c7a .LASF2530
C:\Users\CYMR90~1\AppData\Local\Temp\ccMBshSz.s:30410  .debug_str:0000000000025f2e .LASF2531
C:\Users\CYMR90~1\AppData\Local\Temp\ccMBshSz.s:26393  .debug_str:0000000000015dc9 .LASF2532
C:\Users\CYMR90~1\AppData\Local\Temp\ccMBshSz.s:26141  .debug_str:0000000000014e93 .LASF2533
C:\Users\CYMR90~1\AppData\Local\Temp\ccMBshSz.s:26535  .debug_str:0000000000016715 .LASF2534
C:\Users\CYMR90~1\AppData\Local\Temp\ccMBshSz.s:23385  .debug_str:0000000000009ea7 .LASF2535
C:\Users\CYMR90~1\AppData\Local\Temp\ccMBshSz.s:22627  .debug_str:0000000000006d67 .LASF2536
C:\Users\CYMR90~1\AppData\Local\Temp\ccMBshSz.s:31148  .debug_str:0000000000028ec4 .LASF2537
C:\Users\CYMR90~1\AppData\Local\Temp\ccMBshSz.s:20997  .debug_str:0000000000000728 .LASF2538
C:\Users\CYMR90~1\AppData\Local\Temp\ccMBshSz.s:22801  .debug_str:00000000000078b7 .LASF2539
C:\Users\CYMR90~1\AppData\Local\Temp\ccMBshSz.s:21797  .debug_str:00000000000038f0 .LASF2540
C:\Users\CYMR90~1\AppData\Local\Temp\ccMBshSz.s:30300  .debug_str:00000000000257eb .LASF2541
C:\Users\CYMR90~1\AppData\Local\Temp\ccMBshSz.s:25381  .debug_str:0000000000011dcb .LASF2542
C:\Users\CYMR90~1\AppData\Local\Temp\ccMBshSz.s:24165  .debug_str:000000000000d1fc .LASF2543
C:\Users\CYMR90~1\AppData\Local\Temp\ccMBshSz.s:28808  .debug_str:000000000001fa32 .LASF2544
C:\Users\CYMR90~1\AppData\Local\Temp\ccMBshSz.s:27920  .debug_str:000000000001c214 .LASF2545
C:\Users\CYMR90~1\AppData\Local\Temp\ccMBshSz.s:21845  .debug_str:0000000000003be1 .LASF2546
C:\Users\CYMR90~1\AppData\Local\Temp\ccMBshSz.s:30458  .debug_str:000000000002626a .LASF2547
C:\Users\CYMR90~1\AppData\Local\Temp\ccMBshSz.s:24129  .debug_str:000000000000cfac .LASF2548
C:\Users\CYMR90~1\AppData\Local\Temp\ccMBshSz.s:23223  .debug_str:000000000000946c .LASF2549
C:\Users\CYMR90~1\AppData\Local\Temp\ccMBshSz.s:22181  .debug_str:000000000000521b .LASF2550
C:\Users\CYMR90~1\AppData\Local\Temp\ccMBshSz.s:30810  .debug_str:0000000000027855 .LASF2551
C:\Users\CYMR90~1\AppData\Local\Temp\ccMBshSz.s:31102  .debug_str:0000000000028c53 .LASF2552
C:\Users\CYMR90~1\AppData\Local\Temp\ccMBshSz.s:25235  .debug_str:00000000000113ba .LASF2553
C:\Users\CYMR90~1\AppData\Local\Temp\ccMBshSz.s:29166  .debug_str:000000000002101d .LASF2554
C:\Users\CYMR90~1\AppData\Local\Temp\ccMBshSz.s:26313  .debug_str:000000000001588f .LASF2555
C:\Users\CYMR90~1\AppData\Local\Temp\ccMBshSz.s:26870  .debug_str:0000000000017e04 .LASF2556
C:\Users\CYMR90~1\AppData\Local\Temp\ccMBshSz.s:25705  .debug_str:0000000000013352 .LASF2557
C:\Users\CYMR90~1\AppData\Local\Temp\ccMBshSz.s:26201  .debug_str:000000000001526c .LASF2558
C:\Users\CYMR90~1\AppData\Local\Temp\ccMBshSz.s:24905  .debug_str:000000000000ff7d .LASF2559
C:\Users\CYMR90~1\AppData\Local\Temp\ccMBshSz.s:25189  .debug_str:00000000000110c4 .LASF2560
C:\Users\CYMR90~1\AppData\Local\Temp\ccMBshSz.s:24283  .debug_str:000000000000d968 .LASF2561
C:\Users\CYMR90~1\AppData\Local\Temp\ccMBshSz.s:23301  .debug_str:000000000000993e .LASF2562
C:\Users\CYMR90~1\AppData\Local\Temp\ccMBshSz.s:31808  .debug_str:000000000002b7ba .LASF2563
C:\Users\CYMR90~1\AppData\Local\Temp\ccMBshSz.s:24929  .debug_str:000000000001011a .LASF2564
C:\Users\CYMR90~1\AppData\Local\Temp\ccMBshSz.s:31142  .debug_str:0000000000028e67 .LASF2565
C:\Users\CYMR90~1\AppData\Local\Temp\ccMBshSz.s:29852  .debug_str:0000000000023994 .LASF2566
C:\Users\CYMR90~1\AppData\Local\Temp\ccMBshSz.s:26704  .debug_str:00000000000173f0 .LASF2567
C:\Users\CYMR90~1\AppData\Local\Temp\ccMBshSz.s:26333  .debug_str:00000000000159dd .LASF2568
C:\Users\CYMR90~1\AppData\Local\Temp\ccMBshSz.s:26463  .debug_str:0000000000016293 .LASF2569
C:\Users\CYMR90~1\AppData\Local\Temp\ccMBshSz.s:27792  .debug_str:000000000001b9aa .LASF2570
C:\Users\CYMR90~1\AppData\Local\Temp\ccMBshSz.s:24147  .debug_str:000000000000d0d2 .LASF2571
C:\Users\CYMR90~1\AppData\Local\Temp\ccMBshSz.s:28584  .debug_str:000000000001ecbe .LASF2572
C:\Users\CYMR90~1\AppData\Local\Temp\ccMBshSz.s:22703  .debug_str:0000000000007298 .LASF2573
C:\Users\CYMR90~1\AppData\Local\Temp\ccMBshSz.s:21137  .debug_str:000000000000103d .LASF2574
C:\Users\CYMR90~1\AppData\Local\Temp\ccMBshSz.s:27568  .debug_str:000000000001ac13 .LASF2575
C:\Users\CYMR90~1\AppData\Local\Temp\ccMBshSz.s:23563  .debug_str:000000000000aa7c .LASF2576
C:\Users\CYMR90~1\AppData\Local\Temp\ccMBshSz.s:26443  .debug_str:000000000001615c .LASF2577
C:\Users\CYMR90~1\AppData\Local\Temp\ccMBshSz.s:23869  .debug_str:000000000000bf2f .LASF2578
C:\Users\CYMR90~1\AppData\Local\Temp\ccMBshSz.s:23997  .debug_str:000000000000c720 .LASF2579
C:\Users\CYMR90~1\AppData\Local\Temp\ccMBshSz.s:27960  .debug_str:000000000001c43f .LASF2580
C:\Users\CYMR90~1\AppData\Local\Temp\ccMBshSz.s:22123  .debug_str:0000000000004eae .LASF2581
C:\Users\CYMR90~1\AppData\Local\Temp\ccMBshSz.s:27814  .debug_str:000000000001bacf .LASF2582
C:\Users\CYMR90~1\AppData\Local\Temp\ccMBshSz.s:31256  .debug_str:00000000000295dc .LASF2583
C:\Users\CYMR90~1\AppData\Local\Temp\ccMBshSz.s:31296  .debug_str:000000000002988b .LASF2584
C:\Users\CYMR90~1\AppData\Local\Temp\ccMBshSz.s:29458  .debug_str:0000000000022209 .LASF2585
C:\Users\CYMR90~1\AppData\Local\Temp\ccMBshSz.s:22093  .debug_str:0000000000004cdf .LASF2586
C:\Users\CYMR90~1\AppData\Local\Temp\ccMBshSz.s:29192  .debug_str:0000000000021185 .LASF2587
C:\Users\CYMR90~1\AppData\Local\Temp\ccMBshSz.s:31568  .debug_str:000000000002a8ef .LASF2588
C:\Users\CYMR90~1\AppData\Local\Temp\ccMBshSz.s:21093  .debug_str:0000000000000d38 .LASF2589
C:\Users\CYMR90~1\AppData\Local\Temp\ccMBshSz.s:22821  .debug_str:00000000000079fe .LASF2590
C:\Users\CYMR90~1\AppData\Local\Temp\ccMBshSz.s:23299  .debug_str:000000000000991e .LASF2591
C:\Users\CYMR90~1\AppData\Local\Temp\ccMBshSz.s:25559  .debug_str:0000000000012996 .LASF2592
C:\Users\CYMR90~1\AppData\Local\Temp\ccMBshSz.s:23357  .debug_str:0000000000009d0e .LASF2593
C:\Users\CYMR90~1\AppData\Local\Temp\ccMBshSz.s:21883  .debug_str:0000000000003e52 .LASF2594
C:\Users\CYMR90~1\AppData\Local\Temp\ccMBshSz.s:27824  .debug_str:000000000001bb9f .LASF2595
C:\Users\CYMR90~1\AppData\Local\Temp\ccMBshSz.s:26958  .debug_str:0000000000018358 .LASF2596
C:\Users\CYMR90~1\AppData\Local\Temp\ccMBshSz.s:23421  .debug_str:000000000000a0ec .LASF2597
C:\Users\CYMR90~1\AppData\Local\Temp\ccMBshSz.s:32142  .debug_str:000000000002cd53 .LASF2598
C:\Users\CYMR90~1\AppData\Local\Temp\ccMBshSz.s:21331  .debug_str:0000000000001c54 .LASF2599
C:\Users\CYMR90~1\AppData\Local\Temp\ccMBshSz.s:25819  .debug_str:0000000000013a30 .LASF2600
C:\Users\CYMR90~1\AppData\Local\Temp\ccMBshSz.s:29436  .debug_str:00000000000220a1 .LASF2601
C:\Users\CYMR90~1\AppData\Local\Temp\ccMBshSz.s:31920  .debug_str:000000000002becc .LASF2602
C:\Users\CYMR90~1\AppData\Local\Temp\ccMBshSz.s:25241  .debug_str:0000000000011420 .LASF2603
C:\Users\CYMR90~1\AppData\Local\Temp\ccMBshSz.s:24579  .debug_str:000000000000ebc1 .LASF2604
C:\Users\CYMR90~1\AppData\Local\Temp\ccMBshSz.s:28092  .debug_str:000000000001cd4e .LASF2605
C:\Users\CYMR90~1\AppData\Local\Temp\ccMBshSz.s:27352  .debug_str:0000000000019d7a .LASF2606
C:\Users\CYMR90~1\AppData\Local\Temp\ccMBshSz.s:22143  .debug_str:0000000000004ff2 .LASF2607
C:\Users\CYMR90~1\AppData\Local\Temp\ccMBshSz.s:22057  .debug_str:0000000000004a9b .LASF2608
C:\Users\CYMR90~1\AppData\Local\Temp\ccMBshSz.s:32176  .debug_str:000000000002cfcc .LASF2609
C:\Users\CYMR90~1\AppData\Local\Temp\ccMBshSz.s:28710  .debug_str:000000000001f47e .LASF2610
C:\Users\CYMR90~1\AppData\Local\Temp\ccMBshSz.s:22973  .debug_str:0000000000008544 .LASF2611
C:\Users\CYMR90~1\AppData\Local\Temp\ccMBshSz.s:22961  .debug_str:00000000000084a3 .LASF2612
C:\Users\CYMR90~1\AppData\Local\Temp\ccMBshSz.s:30342  .debug_str:0000000000025b19 .LASF2613
C:\Users\CYMR90~1\AppData\Local\Temp\ccMBshSz.s:25201  .debug_str:0000000000011187 .LASF2614
C:\Users\CYMR90~1\AppData\Local\Temp\ccMBshSz.s:26461  .debug_str:000000000001626f .LASF2615
C:\Users\CYMR90~1\AppData\Local\Temp\ccMBshSz.s:27764  .debug_str:000000000001b861 .LASF2616
C:\Users\CYMR90~1\AppData\Local\Temp\ccMBshSz.s:31082  .debug_str:0000000000028b25 .LASF2617
C:\Users\CYMR90~1\AppData\Local\Temp\ccMBshSz.s:29308  .debug_str:000000000002191e .LASF2618
C:\Users\CYMR90~1\AppData\Local\Temp\ccMBshSz.s:28336  .debug_str:000000000001dd8b .LASF2619
C:\Users\CYMR90~1\AppData\Local\Temp\ccMBshSz.s:27328  .debug_str:0000000000019c12 .LASF2620
C:\Users\CYMR90~1\AppData\Local\Temp\ccMBshSz.s:26419  .debug_str:0000000000015f99 .LASF2621
C:\Users\CYMR90~1\AppData\Local\Temp\ccMBshSz.s:25465  .debug_str:0000000000012358 .LASF2622
C:\Users\CYMR90~1\AppData\Local\Temp\ccMBshSz.s:29694  .debug_str:000000000002300c .LASF2623
C:\Users\CYMR90~1\AppData\Local\Temp\ccMBshSz.s:26245  .debug_str:00000000000154d7 .LASF2624
C:\Users\CYMR90~1\AppData\Local\Temp\ccMBshSz.s:21981  .debug_str:000000000000450a .LASF2625
C:\Users\CYMR90~1\AppData\Local\Temp\ccMBshSz.s:21689  .debug_str:00000000000031c6 .LASF2626
C:\Users\CYMR90~1\AppData\Local\Temp\ccMBshSz.s:23225  .debug_str:000000000000948e .LASF2627
C:\Users\CYMR90~1\AppData\Local\Temp\ccMBshSz.s:21089  .debug_str:0000000000000d01 .LASF2628
C:\Users\CYMR90~1\AppData\Local\Temp\ccMBshSz.s:24367  .debug_str:000000000000de83 .LASF2629
C:\Users\CYMR90~1\AppData\Local\Temp\ccMBshSz.s:23033  .debug_str:00000000000088f8 .LASF2630
C:\Users\CYMR90~1\AppData\Local\Temp\ccMBshSz.s:21377  .debug_str:0000000000001f20 .LASF2631
C:\Users\CYMR90~1\AppData\Local\Temp\ccMBshSz.s:23835  .debug_str:000000000000bc7a .LASF2632
C:\Users\CYMR90~1\AppData\Local\Temp\ccMBshSz.s:21189  .debug_str:0000000000001322 .LASF2633
C:\Users\CYMR90~1\AppData\Local\Temp\ccMBshSz.s:27452  .debug_str:000000000001a4e8 .LASF2634
C:\Users\CYMR90~1\AppData\Local\Temp\ccMBshSz.s:27240  .debug_str:00000000000195d0 .LASF2635
C:\Users\CYMR90~1\AppData\Local\Temp\ccMBshSz.s:25735  .debug_str:0000000000013546 .LASF2636
C:\Users\CYMR90~1\AppData\Local\Temp\ccMBshSz.s:30988  .debug_str:00000000000284b2 .LASF2637
C:\Users\CYMR90~1\AppData\Local\Temp\ccMBshSz.s:23429  .debug_str:000000000000a16d .LASF2638
C:\Users\CYMR90~1\AppData\Local\Temp\ccMBshSz.s:27498  .debug_str:000000000001a759 .LASF2639
C:\Users\CYMR90~1\AppData\Local\Temp\ccMBshSz.s:28140  .debug_str:000000000001d170 .LASF2640
C:\Users\CYMR90~1\AppData\Local\Temp\ccMBshSz.s:26638  .debug_str:0000000000017009 .LASF2641
C:\Users\CYMR90~1\AppData\Local\Temp\ccMBshSz.s:30576  .debug_str:0000000000026992 .LASF2642
C:\Users\CYMR90~1\AppData\Local\Temp\ccMBshSz.s:25675  .debug_str:0000000000013108 .LASF2643
C:\Users\CYMR90~1\AppData\Local\Temp\ccMBshSz.s:20957  .debug_str:00000000000004e8 .LASF2644
C:\Users\CYMR90~1\AppData\Local\Temp\ccMBshSz.s:21441  .debug_str:000000000000228e .LASF2645
C:\Users\CYMR90~1\AppData\Local\Temp\ccMBshSz.s:26275  .debug_str:0000000000015660 .LASF2646
C:\Users\CYMR90~1\AppData\Local\Temp\ccMBshSz.s:21079  .debug_str:0000000000000c79 .LASF2647
C:\Users\CYMR90~1\AppData\Local\Temp\ccMBshSz.s:28238  .debug_str:000000000001d7b8 .LASF2648
C:\Users\CYMR90~1\AppData\Local\Temp\ccMBshSz.s:28810  .debug_str:000000000001fa54 .LASF2649
C:\Users\CYMR90~1\AppData\Local\Temp\ccMBshSz.s:30136  .debug_str:0000000000024c1b .LASF2650
C:\Users\CYMR90~1\AppData\Local\Temp\ccMBshSz.s:22245  .debug_str:000000000000560b .LASF2651
C:\Users\CYMR90~1\AppData\Local\Temp\ccMBshSz.s:21847  .debug_str:0000000000003c03 .LASF2652
C:\Users\CYMR90~1\AppData\Local\Temp\ccMBshSz.s:25951  .debug_str:0000000000014270 .LASF2653
C:\Users\CYMR90~1\AppData\Local\Temp\ccMBshSz.s:23905  .debug_str:000000000000c189 .LASF2654
C:\Users\CYMR90~1\AppData\Local\Temp\ccMBshSz.s:28698  .debug_str:000000000001f3c4 .LASF2655
C:\Users\CYMR90~1\AppData\Local\Temp\ccMBshSz.s:24453  .debug_str:000000000000e381 .LASF2656
C:\Users\CYMR90~1\AppData\Local\Temp\ccMBshSz.s:29600  .debug_str:0000000000022a61 .LASF2657
C:\Users\CYMR90~1\AppData\Local\Temp\ccMBshSz.s:32126  .debug_str:000000000002cc7d .LASF2658
C:\Users\CYMR90~1\AppData\Local\Temp\ccMBshSz.s:22357  .debug_str:0000000000005cda .LASF2659
C:\Users\CYMR90~1\AppData\Local\Temp\ccMBshSz.s:27482  .debug_str:000000000001a64e .LASF2660
C:\Users\CYMR90~1\AppData\Local\Temp\ccMBshSz.s:23637  .debug_str:000000000000af22 .LASF2661
C:\Users\CYMR90~1\AppData\Local\Temp\ccMBshSz.s:30278  .debug_str:000000000002562c .LASF2662
C:\Users\CYMR90~1\AppData\Local\Temp\ccMBshSz.s:21635  .debug_str:0000000000002e7c .LASF2663
C:\Users\CYMR90~1\AppData\Local\Temp\ccMBshSz.s:32008  .debug_str:000000000002c480 .LASF2664
C:\Users\CYMR90~1\AppData\Local\Temp\ccMBshSz.s:21227  .debug_str:0000000000001543 .LASF2665
C:\Users\CYMR90~1\AppData\Local\Temp\ccMBshSz.s:20995  .debug_str:00000000000006fb .LASF2666
C:\Users\CYMR90~1\AppData\Local\Temp\ccMBshSz.s:29474  .debug_str:00000000000222d9 .LASF2667
C:\Users\CYMR90~1\AppData\Local\Temp\ccMBshSz.s:25839  .debug_str:0000000000013b78 .LASF2668
C:\Users\CYMR90~1\AppData\Local\Temp\ccMBshSz.s:25621  .debug_str:0000000000012d95 .LASF2669
C:\Users\CYMR90~1\AppData\Local\Temp\ccMBshSz.s:28502  .debug_str:000000000001e812 .LASF2670
C:\Users\CYMR90~1\AppData\Local\Temp\ccMBshSz.s:23763  .debug_str:000000000000b7dd .LASF2671
C:\Users\CYMR90~1\AppData\Local\Temp\ccMBshSz.s:22635  .debug_str:0000000000006df6 .LASF2672
C:\Users\CYMR90~1\AppData\Local\Temp\ccMBshSz.s:28806  .debug_str:000000000001fa04 .LASF2673
C:\Users\CYMR90~1\AppData\Local\Temp\ccMBshSz.s:31352  .debug_str:0000000000029bcc .LASF2674
C:\Users\CYMR90~1\AppData\Local\Temp\ccMBshSz.s:26786  .debug_str:000000000001791b .LASF2675
C:\Users\CYMR90~1\AppData\Local\Temp\ccMBshSz.s:28156  .debug_str:000000000001d288 .LASF2676
C:\Users\CYMR90~1\AppData\Local\Temp\ccMBshSz.s:26011  .debug_str:000000000001461c .LASF2677
C:\Users\CYMR90~1\AppData\Local\Temp\ccMBshSz.s:24285  .debug_str:000000000000d98b .LASF2678
C:\Users\CYMR90~1\AppData\Local\Temp\ccMBshSz.s:27658  .debug_str:000000000001b1f5 .LASF2679
C:\Users\CYMR90~1\AppData\Local\Temp\ccMBshSz.s:31728  .debug_str:000000000002b25f .LASF2680
C:\Users\CYMR90~1\AppData\Local\Temp\ccMBshSz.s:22155  .debug_str:00000000000050a2 .LASF2681
C:\Users\CYMR90~1\AppData\Local\Temp\ccMBshSz.s:22793  .debug_str:0000000000007831 .LASF2682
C:\Users\CYMR90~1\AppData\Local\Temp\ccMBshSz.s:31158  .debug_str:0000000000028f99 .LASF2683
C:\Users\CYMR90~1\AppData\Local\Temp\ccMBshSz.s:27164  .debug_str:0000000000019145 .LASF2684
C:\Users\CYMR90~1\AppData\Local\Temp\ccMBshSz.s:30210  .debug_str:00000000000250c9 .LASF2685
C:\Users\CYMR90~1\AppData\Local\Temp\ccMBshSz.s:24137  .debug_str:000000000000d022 .LASF2686
C:\Users\CYMR90~1\AppData\Local\Temp\ccMBshSz.s:29368  .debug_str:0000000000021caa .LASF2687
C:\Users\CYMR90~1\AppData\Local\Temp\ccMBshSz.s:29616  .debug_str:0000000000022b4f .LASF2688
C:\Users\CYMR90~1\AppData\Local\Temp\ccMBshSz.s:28034  .debug_str:000000000001c9a3 .LASF2689
C:\Users\CYMR90~1\AppData\Local\Temp\ccMBshSz.s:21829  .debug_str:0000000000003b03 .LASF2690
C:\Users\CYMR90~1\AppData\Local\Temp\ccMBshSz.s:27118  .debug_str:0000000000018dad .LASF2691
C:\Users\CYMR90~1\AppData\Local\Temp\ccMBshSz.s:21011  .debug_str:00000000000007f8 .LASF2692
C:\Users\CYMR90~1\AppData\Local\Temp\ccMBshSz.s:28898  .debug_str:0000000000020007 .LASF2693
C:\Users\CYMR90~1\AppData\Local\Temp\ccMBshSz.s:31072  .debug_str:0000000000028a64 .LASF2694
C:\Users\CYMR90~1\AppData\Local\Temp\ccMBshSz.s:22927  .debug_str:0000000000008242 .LASF2695
C:\Users\CYMR90~1\AppData\Local\Temp\ccMBshSz.s:23575  .debug_str:000000000000ab36 .LASF2696
C:\Users\CYMR90~1\AppData\Local\Temp\ccMBshSz.s:29364  .debug_str:0000000000021c6e .LASF2697
C:\Users\CYMR90~1\AppData\Local\Temp\ccMBshSz.s:21139  .debug_str:000000000000104f .LASF2698
C:\Users\CYMR90~1\AppData\Local\Temp\ccMBshSz.s:24379  .debug_str:000000000000df32 .LASF2699
C:\Users\CYMR90~1\AppData\Local\Temp\ccMBshSz.s:27626  .debug_str:000000000001aff9 .LASF2700
C:\Users\CYMR90~1\AppData\Local\Temp\ccMBshSz.s:30834  .debug_str:00000000000279a4 .LASF2701
C:\Users\CYMR90~1\AppData\Local\Temp\ccMBshSz.s:22681  .debug_str:000000000000710c .LASF2702
C:\Users\CYMR90~1\AppData\Local\Temp\ccMBshSz.s:25895  .debug_str:0000000000013ea0 .LASF2703
C:\Users\CYMR90~1\AppData\Local\Temp\ccMBshSz.s:22351  .debug_str:0000000000005c8a .LASF2704
C:\Users\CYMR90~1\AppData\Local\Temp\ccMBshSz.s:27110  .debug_str:0000000000018d27 .LASF2705
C:\Users\CYMR90~1\AppData\Local\Temp\ccMBshSz.s:31852  .debug_str:000000000002baa9 .LASF2706
C:\Users\CYMR90~1\AppData\Local\Temp\ccMBshSz.s:25179  .debug_str:0000000000011046 .LASF2707
C:\Users\CYMR90~1\AppData\Local\Temp\ccMBshSz.s:29890  .debug_str:0000000000023bda .LASF2708
C:\Users\CYMR90~1\AppData\Local\Temp\ccMBshSz.s:23275  .debug_str:00000000000097cc .LASF2709
C:\Users\CYMR90~1\AppData\Local\Temp\ccMBshSz.s:23649  .debug_str:000000000000b0b3 .LASF2710
C:\Users\CYMR90~1\AppData\Local\Temp\ccMBshSz.s:24291  .debug_str:000000000000d9f8 .LASF2711
C:\Users\CYMR90~1\AppData\Local\Temp\ccMBshSz.s:29610  .debug_str:0000000000022ae3 .LASF2712
C:\Users\CYMR90~1\AppData\Local\Temp\ccMBshSz.s:26838  .debug_str:0000000000017c44 .LASF2713
C:\Users\CYMR90~1\AppData\Local\Temp\ccMBshSz.s:22071  .debug_str:0000000000004b68 .LASF2714
C:\Users\CYMR90~1\AppData\Local\Temp\ccMBshSz.s:23525  .debug_str:000000000000a73f .LASF2715
C:\Users\CYMR90~1\AppData\Local\Temp\ccMBshSz.s:28726  .debug_str:000000000001f57b .LASF2716
C:\Users\CYMR90~1\AppData\Local\Temp\ccMBshSz.s:22651  .debug_str:0000000000006f21 .LASF2717
C:\Users\CYMR90~1\AppData\Local\Temp\ccMBshSz.s:27828  .debug_str:000000000001bbec .LASF2718
C:\Users\CYMR90~1\AppData\Local\Temp\ccMBshSz.s:23995  .debug_str:000000000000c704 .LASF2719
C:\Users\CYMR90~1\AppData\Local\Temp\ccMBshSz.s:23747  .debug_str:000000000000b6ac .LASF2720
C:\Users\CYMR90~1\AppData\Local\Temp\ccMBshSz.s:28970  .debug_str:000000000002043a .LASF2721
C:\Users\CYMR90~1\AppData\Local\Temp\ccMBshSz.s:22881  .debug_str:0000000000007e8a .LASF2722
C:\Users\CYMR90~1\AppData\Local\Temp\ccMBshSz.s:28060  .debug_str:000000000001cb32 .LASF2723
C:\Users\CYMR90~1\AppData\Local\Temp\ccMBshSz.s:21943  .debug_str:00000000000042b0 .LASF2724
C:\Users\CYMR90~1\AppData\Local\Temp\ccMBshSz.s:29866  .debug_str:0000000000023a74 .LASF2725
C:\Users\CYMR90~1\AppData\Local\Temp\ccMBshSz.s:27146  .debug_str:0000000000018f55 .LASF2726
C:\Users\CYMR90~1\AppData\Local\Temp\ccMBshSz.s:21403  .debug_str:000000000000208e .LASF2727
C:\Users\CYMR90~1\AppData\Local\Temp\ccMBshSz.s:21763  .debug_str:00000000000036a4 .LASF2728
C:\Users\CYMR90~1\AppData\Local\Temp\ccMBshSz.s:30346  .debug_str:0000000000025b5c .LASF2729
C:\Users\CYMR90~1\AppData\Local\Temp\ccMBshSz.s:27682  .debug_str:000000000001b374 .LASF2730
C:\Users\CYMR90~1\AppData\Local\Temp\ccMBshSz.s:26826  .debug_str:0000000000017ba6 .LASF2731
C:\Users\CYMR90~1\AppData\Local\Temp\ccMBshSz.s:32038  .debug_str:000000000002c6aa .LASF2732
C:\Users\CYMR90~1\AppData\Local\Temp\ccMBshSz.s:25893  .debug_str:0000000000013e86 .LASF2733
C:\Users\CYMR90~1\AppData\Local\Temp\ccMBshSz.s:31182  .debug_str:00000000000290f8 .LASF2734
C:\Users\CYMR90~1\AppData\Local\Temp\ccMBshSz.s:24987  .debug_str:0000000000010484 .LASF2735
C:\Users\CYMR90~1\AppData\Local\Temp\ccMBshSz.s:27584  .debug_str:000000000001ad02 .LASF2736
C:\Users\CYMR90~1\AppData\Local\Temp\ccMBshSz.s:21435  .debug_str:0000000000002243 .LASF2737
C:\Users\CYMR90~1\AppData\Local\Temp\ccMBshSz.s:26630  .debug_str:0000000000016f9a .LASF2738
C:\Users\CYMR90~1\AppData\Local\Temp\ccMBshSz.s:25931  .debug_str:0000000000014142 .LASF2739
C:\Users\CYMR90~1\AppData\Local\Temp\ccMBshSz.s:25689  .debug_str:00000000000131e1 .LASF2740
C:\Users\CYMR90~1\AppData\Local\Temp\ccMBshSz.s:24583  .debug_str:000000000000ebf2 .LASF2741
C:\Users\CYMR90~1\AppData\Local\Temp\ccMBshSz.s:31730  .debug_str:000000000002b277 .LASF2742
C:\Users\CYMR90~1\AppData\Local\Temp\ccMBshSz.s:23593  .debug_str:000000000000ac4f .LASF2743
C:\Users\CYMR90~1\AppData\Local\Temp\ccMBshSz.s:26784  .debug_str:0000000000017902 .LASF2744
C:\Users\CYMR90~1\AppData\Local\Temp\ccMBshSz.s:30012  .debug_str:0000000000024401 .LASF2745
C:\Users\CYMR90~1\AppData\Local\Temp\ccMBshSz.s:21869  .debug_str:0000000000003d8d .LASF2746
C:\Users\CYMR90~1\AppData\Local\Temp\ccMBshSz.s:25109  .debug_str:0000000000010c79 .LASF2747
C:\Users\CYMR90~1\AppData\Local\Temp\ccMBshSz.s:28314  .debug_str:000000000001dc47 .LASF2748
C:\Users\CYMR90~1\AppData\Local\Temp\ccMBshSz.s:31480  .debug_str:000000000002a358 .LASF2749
C:\Users\CYMR90~1\AppData\Local\Temp\ccMBshSz.s:23353  .debug_str:0000000000009cd9 .LASF2750
C:\Users\CYMR90~1\AppData\Local\Temp\ccMBshSz.s:26553  .debug_str:000000000001682a .LASF2751
C:\Users\CYMR90~1\AppData\Local\Temp\ccMBshSz.s:28540  .debug_str:000000000001ea92 .LASF2752
C:\Users\CYMR90~1\AppData\Local\Temp\ccMBshSz.s:21923  .debug_str:00000000000040d8 .LASF2753
C:\Users\CYMR90~1\AppData\Local\Temp\ccMBshSz.s:26662  .debug_str:0000000000017169 .LASF2754
C:\Users\CYMR90~1\AppData\Local\Temp\ccMBshSz.s:31398  .debug_str:0000000000029e9d .LASF2755
C:\Users\CYMR90~1\AppData\Local\Temp\ccMBshSz.s:24757  .debug_str:000000000000f5e8 .LASF2756
C:\Users\CYMR90~1\AppData\Local\Temp\ccMBshSz.s:29452  .debug_str:00000000000221bf .LASF2757
C:\Users\CYMR90~1\AppData\Local\Temp\ccMBshSz.s:22807  .debug_str:0000000000007928 .LASF2758
C:\Users\CYMR90~1\AppData\Local\Temp\ccMBshSz.s:26025  .debug_str:00000000000146f7 .LASF2759
C:\Users\CYMR90~1\AppData\Local\Temp\ccMBshSz.s:29154  .debug_str:0000000000020f81 .LASF2760
C:\Users\CYMR90~1\AppData\Local\Temp\ccMBshSz.s:21043  .debug_str:00000000000009e2 .LASF2761
C:\Users\CYMR90~1\AppData\Local\Temp\ccMBshSz.s:24275  .debug_str:000000000000d903 .LASF2762
C:\Users\CYMR90~1\AppData\Local\Temp\ccMBshSz.s:27516  .debug_str:000000000001a8e0 .LASF2763
C:\Users\CYMR90~1\AppData\Local\Temp\ccMBshSz.s:30718  .debug_str:0000000000027200 .LASF2764
C:\Users\CYMR90~1\AppData\Local\Temp\ccMBshSz.s:22563  .debug_str:0000000000006960 .LASF2765
C:\Users\CYMR90~1\AppData\Local\Temp\ccMBshSz.s:25793  .debug_str:00000000000138b3 .LASF2766
C:\Users\CYMR90~1\AppData\Local\Temp\ccMBshSz.s:29018  .debug_str:0000000000020799 .LASF2767
C:\Users\CYMR90~1\AppData\Local\Temp\ccMBshSz.s:26347  .debug_str:0000000000015aa4 .LASF2768
C:\Users\CYMR90~1\AppData\Local\Temp\ccMBshSz.s:31086  .debug_str:0000000000028b57 .LASF2769
C:\Users\CYMR90~1\AppData\Local\Temp\ccMBshSz.s:24435  .debug_str:000000000000e294 .LASF2770
C:\Users\CYMR90~1\AppData\Local\Temp\ccMBshSz.s:22495  .debug_str:0000000000006512 .LASF2771
C:\Users\CYMR90~1\AppData\Local\Temp\ccMBshSz.s:27252  .debug_str:000000000001967c .LASF2772
C:\Users\CYMR90~1\AppData\Local\Temp\ccMBshSz.s:25747  .debug_str:0000000000013606 .LASF2773
C:\Users\CYMR90~1\AppData\Local\Temp\ccMBshSz.s:28960  .debug_str:0000000000020371 .LASF2774
C:\Users\CYMR90~1\AppData\Local\Temp\ccMBshSz.s:32218  .debug_str:000000000002d268 .LASF2775
C:\Users\CYMR90~1\AppData\Local\Temp\ccMBshSz.s:27922  .debug_str:000000000001c236 .LASF2776
C:\Users\CYMR90~1\AppData\Local\Temp\ccMBshSz.s:29994  .debug_str:00000000000242b5 .LASF2777
C:\Users\CYMR90~1\AppData\Local\Temp\ccMBshSz.s:30424  .debug_str:0000000000026003 .LASF2778
C:\Users\CYMR90~1\AppData\Local\Temp\ccMBshSz.s:24281  .debug_str:000000000000d953 .LASF2779
C:\Users\CYMR90~1\AppData\Local\Temp\ccMBshSz.s:25515  .debug_str:0000000000012686 .LASF2780
C:\Users\CYMR90~1\AppData\Local\Temp\ccMBshSz.s:28700  .debug_str:000000000001f3e9 .LASF2781
C:\Users\CYMR90~1\AppData\Local\Temp\ccMBshSz.s:31986  .debug_str:000000000002c33b .LASF2782
C:\Users\CYMR90~1\AppData\Local\Temp\ccMBshSz.s:29454  .debug_str:00000000000221da .LASF2783
C:\Users\CYMR90~1\AppData\Local\Temp\ccMBshSz.s:31456  .debug_str:000000000002a1fa .LASF2784
C:\Users\CYMR90~1\AppData\Local\Temp\ccMBshSz.s:21843  .debug_str:0000000000003bca .LASF2785
C:\Users\CYMR90~1\AppData\Local\Temp\ccMBshSz.s:26577  .debug_str:0000000000016a02 .LASF2786
C:\Users\CYMR90~1\AppData\Local\Temp\ccMBshSz.s:31320  .debug_str:0000000000029a33 .LASF2787
C:\Users\CYMR90~1\AppData\Local\Temp\ccMBshSz.s:24669  .debug_str:000000000000f095 .LASF2788
C:\Users\CYMR90~1\AppData\Local\Temp\ccMBshSz.s:26543  .debug_str:00000000000167a5 .LASF2789
C:\Users\CYMR90~1\AppData\Local\Temp\ccMBshSz.s:31286  .debug_str:00000000000297b1 .LASF2790
C:\Users\CYMR90~1\AppData\Local\Temp\ccMBshSz.s:24643  .debug_str:000000000000ef1f .LASF2791
C:\Users\CYMR90~1\AppData\Local\Temp\ccMBshSz.s:29338  .debug_str:0000000000021ab3 .LASF2792
C:\Users\CYMR90~1\AppData\Local\Temp\ccMBshSz.s:25805  .debug_str:0000000000013966 .LASF2793
C:\Users\CYMR90~1\AppData\Local\Temp\ccMBshSz.s:21345  .debug_str:0000000000001d1d .LASF2794
C:\Users\CYMR90~1\AppData\Local\Temp\ccMBshSz.s:26059  .debug_str:00000000000148f2 .LASF2795
C:\Users\CYMR90~1\AppData\Local\Temp\ccMBshSz.s:25857  .debug_str:0000000000013c6d .LASF2796
C:\Users\CYMR90~1\AppData\Local\Temp\ccMBshSz.s:24179  .debug_str:000000000000d318 .LASF2797
C:\Users\CYMR90~1\AppData\Local\Temp\ccMBshSz.s:28862  .debug_str:000000000001fd83 .LASF2798
C:\Users\CYMR90~1\AppData\Local\Temp\ccMBshSz.s:23807  .debug_str:000000000000bae5 .LASF2799
C:\Users\CYMR90~1\AppData\Local\Temp\ccMBshSz.s:28488  .debug_str:000000000001e718 .LASF2800
C:\Users\CYMR90~1\AppData\Local\Temp\ccMBshSz.s:21859  .debug_str:0000000000003cc2 .LASF2801
C:\Users\CYMR90~1\AppData\Local\Temp\ccMBshSz.s:26591  .debug_str:0000000000016b81 .LASF2802
C:\Users\CYMR90~1\AppData\Local\Temp\ccMBshSz.s:23193  .debug_str:00000000000092c3 .LASF2803
C:\Users\CYMR90~1\AppData\Local\Temp\ccMBshSz.s:29968  .debug_str:0000000000024045 .LASF2804
C:\Users\CYMR90~1\AppData\Local\Temp\ccMBshSz.s:21355  .debug_str:0000000000001dbc .LASF2805
C:\Users\CYMR90~1\AppData\Local\Temp\ccMBshSz.s:24607  .debug_str:000000000000ed27 .LASF2806
C:\Users\CYMR90~1\AppData\Local\Temp\ccMBshSz.s:30774  .debug_str:0000000000027651 .LASF2807
C:\Users\CYMR90~1\AppData\Local\Temp\ccMBshSz.s:31060  .debug_str:00000000000289c5 .LASF2808
C:\Users\CYMR90~1\AppData\Local\Temp\ccMBshSz.s:22815  .debug_str:0000000000007997 .LASF2809
C:\Users\CYMR90~1\AppData\Local\Temp\ccMBshSz.s:26031  .debug_str:000000000001473e .LASF2810
C:\Users\CYMR90~1\AppData\Local\Temp\ccMBshSz.s:23363  .debug_str:0000000000009d55 .LASF2811
C:\Users\CYMR90~1\AppData\Local\Temp\ccMBshSz.s:21127  .debug_str:0000000000000fb5 .LASF2812
C:\Users\CYMR90~1\AppData\Local\Temp\ccMBshSz.s:24363  .debug_str:000000000000de57 .LASF2813
C:\Users\CYMR90~1\AppData\Local\Temp\ccMBshSz.s:22905  .debug_str:0000000000008041 .LASF2814
C:\Users\CYMR90~1\AppData\Local\Temp\ccMBshSz.s:26884  .debug_str:0000000000017f0c .LASF2815
C:\Users\CYMR90~1\AppData\Local\Temp\ccMBshSz.s:31638  .debug_str:000000000002ad1d .LASF2816
C:\Users\CYMR90~1\AppData\Local\Temp\ccMBshSz.s:24985  .debug_str:000000000001046d .LASF2817
C:\Users\CYMR90~1\AppData\Local\Temp\ccMBshSz.s:29692  .debug_str:0000000000022ff5 .LASF2818
C:\Users\CYMR90~1\AppData\Local\Temp\ccMBshSz.s:30312  .debug_str:00000000000258ca .LASF2819
C:\Users\CYMR90~1\AppData\Local\Temp\ccMBshSz.s:27776  .debug_str:000000000001b8d8 .LASF2820
C:\Users\CYMR90~1\AppData\Local\Temp\ccMBshSz.s:25165  .debug_str:0000000000010f68 .LASF2821
C:\Users\CYMR90~1\AppData\Local\Temp\ccMBshSz.s:31504  .debug_str:000000000002a497 .LASF2822
C:\Users\CYMR90~1\AppData\Local\Temp\ccMBshSz.s:22595  .debug_str:0000000000006b43 .LASF2823
C:\Users\CYMR90~1\AppData\Local\Temp\ccMBshSz.s:23005  .debug_str:0000000000008722 .LASF2824
C:\Users\CYMR90~1\AppData\Local\Temp\ccMBshSz.s:23971  .debug_str:000000000000c57d .LASF2825
C:\Users\CYMR90~1\AppData\Local\Temp\ccMBshSz.s:31520  .debug_str:000000000002a5c2 .LASF2826
C:\Users\CYMR90~1\AppData\Local\Temp\ccMBshSz.s:21771  .debug_str:0000000000003716 .LASF2827
C:\Users\CYMR90~1\AppData\Local\Temp\ccMBshSz.s:26728  .debug_str:000000000001753d .LASF2828
C:\Users\CYMR90~1\AppData\Local\Temp\ccMBshSz.s:22129  .debug_str:0000000000004f1a .LASF2829
C:\Users\CYMR90~1\AppData\Local\Temp\ccMBshSz.s:25509  .debug_str:0000000000012623 .LASF2830
C:\Users\CYMR90~1\AppData\Local\Temp\ccMBshSz.s:22175  .debug_str:00000000000051ce .LASF2831
C:\Users\CYMR90~1\AppData\Local\Temp\ccMBshSz.s:29028  .debug_str:0000000000020818 .LASF2832
C:\Users\CYMR90~1\AppData\Local\Temp\ccMBshSz.s:25789  .debug_str:0000000000013877 .LASF2833
C:\Users\CYMR90~1\AppData\Local\Temp\ccMBshSz.s:24573  .debug_str:000000000000eb56 .LASF2834
C:\Users\CYMR90~1\AppData\Local\Temp\ccMBshSz.s:23641  .debug_str:000000000000af77 .LASF2835
C:\Users\CYMR90~1\AppData\Local\Temp\ccMBshSz.s:21187  .debug_str:0000000000001304 .LASF2836
C:\Users\CYMR90~1\AppData\Local\Temp\ccMBshSz.s:24007  .debug_str:000000000000c7c6 .LASF2837
C:\Users\CYMR90~1\AppData\Local\Temp\ccMBshSz.s:25799  .debug_str:000000000001390a .LASF2838
C:\Users\CYMR90~1\AppData\Local\Temp\ccMBshSz.s:29024  .debug_str:00000000000207e9 .LASF2839
C:\Users\CYMR90~1\AppData\Local\Temp\ccMBshSz.s:20911  .debug_str:0000000000000238 .LASF2840
C:\Users\CYMR90~1\AppData\Local\Temp\ccMBshSz.s:24135  .debug_str:000000000000d00f .LASF2841
C:\Users\CYMR90~1\AppData\Local\Temp\ccMBshSz.s:27356  .debug_str:0000000000019dd0 .LASF2842
C:\Users\CYMR90~1\AppData\Local\Temp\ccMBshSz.s:21105  .debug_str:0000000000000df9 .LASF2843
C:\Users\CYMR90~1\AppData\Local\Temp\ccMBshSz.s:30840  .debug_str:00000000000279fc .LASF2844
C:\Users\CYMR90~1\AppData\Local\Temp\ccMBshSz.s:29180  .debug_str:00000000000210d2 .LASF2845
C:\Users\CYMR90~1\AppData\Local\Temp\ccMBshSz.s:27592  .debug_str:000000000001ad86 .LASF2846
C:\Users\CYMR90~1\AppData\Local\Temp\ccMBshSz.s:32048  .debug_str:000000000002c75c .LASF2847
C:\Users\CYMR90~1\AppData\Local\Temp\ccMBshSz.s:21221  .debug_str:000000000000150d .LASF2848
C:\Users\CYMR90~1\AppData\Local\Temp\ccMBshSz.s:25941  .debug_str:00000000000141e3 .LASF2849
C:\Users\CYMR90~1\AppData\Local\Temp\ccMBshSz.s:24117  .debug_str:000000000000cef7 .LASF2850
C:\Users\CYMR90~1\AppData\Local\Temp\ccMBshSz.s:31722  .debug_str:000000000002b1fd .LASF2851
C:\Users\CYMR90~1\AppData\Local\Temp\ccMBshSz.s:27926  .debug_str:000000000001c264 .LASF2852
C:\Users\CYMR90~1\AppData\Local\Temp\ccMBshSz.s:24189  .debug_str:000000000000d3ac .LASF2853
C:\Users\CYMR90~1\AppData\Local\Temp\ccMBshSz.s:29488  .debug_str:00000000000223a1 .LASF2854
C:\Users\CYMR90~1\AppData\Local\Temp\ccMBshSz.s:21337  .debug_str:0000000000001ca9 .LASF2855
C:\Users\CYMR90~1\AppData\Local\Temp\ccMBshSz.s:24589  .debug_str:000000000000ec3d .LASF2856
C:\Users\CYMR90~1\AppData\Local\Temp\ccMBshSz.s:27800  .debug_str:000000000001ba0f .LASF2857
C:\Users\CYMR90~1\AppData\Local\Temp\ccMBshSz.s:30958  .debug_str:0000000000028244 .LASF2858
C:\Users\CYMR90~1\AppData\Local\Temp\ccMBshSz.s:24511  .debug_str:000000000000e75d .LASF2859
C:\Users\CYMR90~1\AppData\Local\Temp\ccMBshSz.s:26019  .debug_str:00000000000146a7 .LASF2860
C:\Users\CYMR90~1\AppData\Local\Temp\ccMBshSz.s:26053  .debug_str:000000000001489d .LASF2861
C:\Users\CYMR90~1\AppData\Local\Temp\ccMBshSz.s:21117  .debug_str:0000000000000f38 .LASF2862
C:\Users\CYMR90~1\AppData\Local\Temp\ccMBshSz.s:21261  .debug_str:00000000000017f9 .LASF2863
C:\Users\CYMR90~1\AppData\Local\Temp\ccMBshSz.s:26599  .debug_str:0000000000016bfb .LASF2864
C:\Users\CYMR90~1\AppData\Local\Temp\ccMBshSz.s:29486  .debug_str:000000000002238c .LASF2865
C:\Users\CYMR90~1\AppData\Local\Temp\ccMBshSz.s:24691  .debug_str:000000000000f1ee .LASF2866
C:\Users\CYMR90~1\AppData\Local\Temp\ccMBshSz.s:29390  .debug_str:0000000000021e1f .LASF2867
C:\Users\CYMR90~1\AppData\Local\Temp\ccMBshSz.s:29554  .debug_str:000000000002277b .LASF2868
C:\Users\CYMR90~1\AppData\Local\Temp\ccMBshSz.s:27506  .debug_str:000000000001a86e .LASF2869
C:\Users\CYMR90~1\AppData\Local\Temp\ccMBshSz.s:26756  .debug_str:0000000000017702 .LASF2870
C:\Users\CYMR90~1\AppData\Local\Temp\ccMBshSz.s:24457  .debug_str:000000000000e3c0 .LASF2871
C:\Users\CYMR90~1\AppData\Local\Temp\ccMBshSz.s:25631  .debug_str:0000000000012e3d .LASF2872
C:\Users\CYMR90~1\AppData\Local\Temp\ccMBshSz.s:25597  .debug_str:0000000000012bfa .LASF2873
C:\Users\CYMR90~1\AppData\Local\Temp\ccMBshSz.s:21683  .debug_str:0000000000003180 .LASF2874
C:\Users\CYMR90~1\AppData\Local\Temp\ccMBshSz.s:21559  .debug_str:00000000000029e4 .LASF2875
C:\Users\CYMR90~1\AppData\Local\Temp\ccMBshSz.s:29142  .debug_str:0000000000020edb .LASF2876
C:\Users\CYMR90~1\AppData\Local\Temp\ccMBshSz.s:30140  .debug_str:0000000000024c6c .LASF2877
C:\Users\CYMR90~1\AppData\Local\Temp\ccMBshSz.s:29818  .debug_str:000000000002377e .LASF2878
C:\Users\CYMR90~1\AppData\Local\Temp\ccMBshSz.s:23701  .debug_str:000000000000b3a1 .LASF2879
C:\Users\CYMR90~1\AppData\Local\Temp\ccMBshSz.s:26886  .debug_str:0000000000017f23 .LASF2880
C:\Users\CYMR90~1\AppData\Local\Temp\ccMBshSz.s:30116  .debug_str:0000000000024ac9 .LASF2881
C:\Users\CYMR90~1\AppData\Local\Temp\ccMBshSz.s:21973  .debug_str:0000000000004488 .LASF2882
C:\Users\CYMR90~1\AppData\Local\Temp\ccMBshSz.s:25133  .debug_str:0000000000010da1 .LASF2883
C:\Users\CYMR90~1\AppData\Local\Temp\ccMBshSz.s:28334  .debug_str:000000000001dd79 .LASF2884
C:\Users\CYMR90~1\AppData\Local\Temp\ccMBshSz.s:32146  .debug_str:000000000002cd9d .LASF2885
C:\Users\CYMR90~1\AppData\Local\Temp\ccMBshSz.s:23467  .debug_str:000000000000a3ce .LASF2886
C:\Users\CYMR90~1\AppData\Local\Temp\ccMBshSz.s:26668  .debug_str:00000000000171c6 .LASF2887
C:\Users\CYMR90~1\AppData\Local\Temp\ccMBshSz.s:29886  .debug_str:0000000000023ba8 .LASF2888
C:\Users\CYMR90~1\AppData\Local\Temp\ccMBshSz.s:28064  .debug_str:000000000001cb68 .LASF2889
C:\Users\CYMR90~1\AppData\Local\Temp\ccMBshSz.s:21401  .debug_str:000000000000207a .LASF2890
C:\Users\CYMR90~1\AppData\Local\Temp\ccMBshSz.s:26117  .debug_str:0000000000014cd4 .LASF2891
C:\Users\CYMR90~1\AppData\Local\Temp\ccMBshSz.s:30874  .debug_str:0000000000027c60 .LASF2892
C:\Users\CYMR90~1\AppData\Local\Temp\ccMBshSz.s:24237  .debug_str:000000000000d72a .LASF2893
C:\Users\CYMR90~1\AppData\Local\Temp\ccMBshSz.s:28924  .debug_str:0000000000020196 .LASF2894
C:\Users\CYMR90~1\AppData\Local\Temp\ccMBshSz.s:31544  .debug_str:000000000002a785 .LASF2895
C:\Users\CYMR90~1\AppData\Local\Temp\ccMBshSz.s:31758  .debug_str:000000000002b460 .LASF2896
C:\Users\CYMR90~1\AppData\Local\Temp\ccMBshSz.s:27542  .debug_str:000000000001aa60 .LASF2897
C:\Users\CYMR90~1\AppData\Local\Temp\ccMBshSz.s:22713  .debug_str:0000000000007336 .LASF2898
C:\Users\CYMR90~1\AppData\Local\Temp\ccMBshSz.s:23013  .debug_str:000000000000879a .LASF2899
C:\Users\CYMR90~1\AppData\Local\Temp\ccMBshSz.s:26946  .debug_str:0000000000018285 .LASF2900
C:\Users\CYMR90~1\AppData\Local\Temp\ccMBshSz.s:31856  .debug_str:000000000002bad6 .LASF2901
C:\Users\CYMR90~1\AppData\Local\Temp\ccMBshSz.s:25375  .debug_str:0000000000011d84 .LASF2902
C:\Users\CYMR90~1\AppData\Local\Temp\ccMBshSz.s:26225  .debug_str:00000000000153a2 .LASF2903
C:\Users\CYMR90~1\AppData\Local\Temp\ccMBshSz.s:22405  .debug_str:0000000000005f85 .LASF2904
C:\Users\CYMR90~1\AppData\Local\Temp\ccMBshSz.s:29168  .debug_str:000000000002103f .LASF2905
C:\Users\CYMR90~1\AppData\Local\Temp\ccMBshSz.s:30564  .debug_str:00000000000268d3 .LASF2906
C:\Users\CYMR90~1\AppData\Local\Temp\ccMBshSz.s:31958  .debug_str:000000000002c184 .LASF2907
C:\Users\CYMR90~1\AppData\Local\Temp\ccMBshSz.s:21933  .debug_str:000000000000420a .LASF2908
C:\Users\CYMR90~1\AppData\Local\Temp\ccMBshSz.s:25639  .debug_str:0000000000012eb3 .LASF2909
C:\Users\CYMR90~1\AppData\Local\Temp\ccMBshSz.s:31064  .debug_str:00000000000289f3 .LASF2910
C:\Users\CYMR90~1\AppData\Local\Temp\ccMBshSz.s:28992  .debug_str:0000000000020596 .LASF2911
C:\Users\CYMR90~1\AppData\Local\Temp\ccMBshSz.s:27884  .debug_str:000000000001bfa1 .LASF2912
C:\Users\CYMR90~1\AppData\Local\Temp\ccMBshSz.s:27450  .debug_str:000000000001a4aa .LASF2913
C:\Users\CYMR90~1\AppData\Local\Temp\ccMBshSz.s:27374  .debug_str:0000000000019eaf .LASF2914
C:\Users\CYMR90~1\AppData\Local\Temp\ccMBshSz.s:29594  .debug_str:00000000000229ed .LASF2915
C:\Users\CYMR90~1\AppData\Local\Temp\ccMBshSz.s:27876  .debug_str:000000000001bf10 .LASF2916
C:\Users\CYMR90~1\AppData\Local\Temp\ccMBshSz.s:27012  .debug_str:00000000000186a8 .LASF2917
C:\Users\CYMR90~1\AppData\Local\Temp\ccMBshSz.s:28408  .debug_str:000000000001e26d .LASF2918
C:\Users\CYMR90~1\AppData\Local\Temp\ccMBshSz.s:25575  .debug_str:0000000000012a8a .LASF2919
C:\Users\CYMR90~1\AppData\Local\Temp\ccMBshSz.s:24315  .debug_str:000000000000db34 .LASF2920
C:\Users\CYMR90~1\AppData\Local\Temp\ccMBshSz.s:23461  .debug_str:000000000000a36b .LASF2921
C:\Users\CYMR90~1\AppData\Local\Temp\ccMBshSz.s:22549  .debug_str:000000000000688e .LASF2922
C:\Users\CYMR90~1\AppData\Local\Temp\ccMBshSz.s:21687  .debug_str:00000000000031b6 .LASF2923
C:\Users\CYMR90~1\AppData\Local\Temp\ccMBshSz.s:32192  .debug_str:000000000002d0be .LASF2924
C:\Users\CYMR90~1\AppData\Local\Temp\ccMBshSz.s:31324  .debug_str:0000000000029a64 .LASF2925
C:\Users\CYMR90~1\AppData\Local\Temp\ccMBshSz.s:30048  .debug_str:0000000000024646 .LASF2926
C:\Users\CYMR90~1\AppData\Local\Temp\ccMBshSz.s:21897  .debug_str:0000000000003f8a .LASF2927
C:\Users\CYMR90~1\AppData\Local\Temp\ccMBshSz.s:25151  .debug_str:0000000000010e9a .LASF2928
C:\Users\CYMR90~1\AppData\Local\Temp\ccMBshSz.s:28350  .debug_str:000000000001dee9 .LASF2929
C:\Users\CYMR90~1\AppData\Local\Temp\ccMBshSz.s:31608  .debug_str:000000000002ab33 .LASF2930
C:\Users\CYMR90~1\AppData\Local\Temp\ccMBshSz.s:23479  .debug_str:000000000000a4b7 .LASF2931
C:\Users\CYMR90~1\AppData\Local\Temp\ccMBshSz.s:29672  .debug_str:0000000000022ed7 .LASF2932
C:\Users\CYMR90~1\AppData\Local\Temp\ccMBshSz.s:32148  .debug_str:000000000002cdaf .LASF2933
C:\Users\CYMR90~1\AppData\Local\Temp\ccMBshSz.s:25401  .debug_str:0000000000011f38 .LASF2934
C:\Users\CYMR90~1\AppData\Local\Temp\ccMBshSz.s:26289  .debug_str:000000000001573a .LASF2935
C:\Users\CYMR90~1\AppData\Local\Temp\ccMBshSz.s:21487  .debug_str:0000000000002524 .LASF2936
C:\Users\CYMR90~1\AppData\Local\Temp\ccMBshSz.s:28134  .debug_str:000000000001d117 .LASF2937
C:\Users\CYMR90~1\AppData\Local\Temp\ccMBshSz.s:27512  .debug_str:000000000001a8a8 .LASF2938
C:\Users\CYMR90~1\AppData\Local\Temp\ccMBshSz.s:27548  .debug_str:000000000001aaeb .LASF2939
C:\Users\CYMR90~1\AppData\Local\Temp\ccMBshSz.s:26511  .debug_str:0000000000016526 .LASF2940
C:\Users\CYMR90~1\AppData\Local\Temp\ccMBshSz.s:23765  .debug_str:000000000000b80b .LASF2941
C:\Users\CYMR90~1\AppData\Local\Temp\ccMBshSz.s:25887  .debug_str:0000000000013e39 .LASF2942
C:\Users\CYMR90~1\AppData\Local\Temp\ccMBshSz.s:30480  .debug_str:0000000000026373 .LASF2943
C:\Users\CYMR90~1\AppData\Local\Temp\ccMBshSz.s:27704  .debug_str:000000000001b4bd .LASF2944
C:\Users\CYMR90~1\AppData\Local\Temp\ccMBshSz.s:22389  .debug_str:0000000000005e96 .LASF2945
C:\Users\CYMR90~1\AppData\Local\Temp\ccMBshSz.s:24313  .debug_str:000000000000db12 .LASF2946
C:\Users\CYMR90~1\AppData\Local\Temp\ccMBshSz.s:26199  .debug_str:000000000001522f .LASF2947
C:\Users\CYMR90~1\AppData\Local\Temp\ccMBshSz.s:30850  .debug_str:0000000000027aaf .LASF2948
C:\Users\CYMR90~1\AppData\Local\Temp\ccMBshSz.s:23885  .debug_str:000000000000c04e .LASF2949
C:\Users\CYMR90~1\AppData\Local\Temp\ccMBshSz.s:24439  .debug_str:000000000000e2e8 .LASF2950
C:\Users\CYMR90~1\AppData\Local\Temp\ccMBshSz.s:28450  .debug_str:000000000001e4ce .LASF2951
C:\Users\CYMR90~1\AppData\Local\Temp\ccMBshSz.s:22153  .debug_str:000000000000508c .LASF2952
C:\Users\CYMR90~1\AppData\Local\Temp\ccMBshSz.s:31716  .debug_str:000000000002b1a4 .LASF2953
C:\Users\CYMR90~1\AppData\Local\Temp\ccMBshSz.s:28800  .debug_str:000000000001f9ba .LASF2954
C:\Users\CYMR90~1\AppData\Local\Temp\ccMBshSz.s:30720  .debug_str:0000000000027217 .LASF2955
C:\Users\CYMR90~1\AppData\Local\Temp\ccMBshSz.s:29132  .debug_str:0000000000020e55 .LASF2956
C:\Users\CYMR90~1\AppData\Local\Temp\ccMBshSz.s:32222  .debug_str:000000000002d29c .LASF2957
C:\Users\CYMR90~1\AppData\Local\Temp\ccMBshSz.s:21657  .debug_str:0000000000002fde .LASF2958
C:\Users\CYMR90~1\AppData\Local\Temp\ccMBshSz.s:21379  .debug_str:0000000000001f42 .LASF2959
C:\Users\CYMR90~1\AppData\Local\Temp\ccMBshSz.s:28478  .debug_str:000000000001e6ac .LASF2960
C:\Users\CYMR90~1\AppData\Local\Temp\ccMBshSz.s:21297  .debug_str:0000000000001a35 .LASF2961
C:\Users\CYMR90~1\AppData\Local\Temp\ccMBshSz.s:25785  .debug_str:0000000000013849 .LASF2962
C:\Users\CYMR90~1\AppData\Local\Temp\ccMBshSz.s:32004  .debug_str:000000000002c40b .LASF2963
C:\Users\CYMR90~1\AppData\Local\Temp\ccMBshSz.s:30618  .debug_str:0000000000026c0d .LASF2964
C:\Users\CYMR90~1\AppData\Local\Temp\ccMBshSz.s:22375  .debug_str:0000000000005dd1 .LASF2965
C:\Users\CYMR90~1\AppData\Local\Temp\ccMBshSz.s:30830  .debug_str:0000000000027974 .LASF2966
C:\Users\CYMR90~1\AppData\Local\Temp\ccMBshSz.s:28046  .debug_str:000000000001ca6a .LASF2967
C:\Users\CYMR90~1\AppData\Local\Temp\ccMBshSz.s:29042  .debug_str:0000000000020914 .LASF2968
C:\Users\CYMR90~1\AppData\Local\Temp\ccMBshSz.s:24811  .debug_str:000000000000f99b .LASF2969
C:\Users\CYMR90~1\AppData\Local\Temp\ccMBshSz.s:23955  .debug_str:000000000000c47b .LASF2970
C:\Users\CYMR90~1\AppData\Local\Temp\ccMBshSz.s:27762  .debug_str:000000000001b845 .LASF2971
C:\Users\CYMR90~1\AppData\Local\Temp\ccMBshSz.s:31028  .debug_str:0000000000028757 .LASF2972
C:\Users\CYMR90~1\AppData\Local\Temp\ccMBshSz.s:29446  .debug_str:000000000002214a .LASF2973
C:\Users\CYMR90~1\AppData\Local\Temp\ccMBshSz.s:30370  .debug_str:0000000000025cbf .LASF2974
C:\Users\CYMR90~1\AppData\Local\Temp\ccMBshSz.s:23609  .debug_str:000000000000ad4e .LASF2975
C:\Users\CYMR90~1\AppData\Local\Temp\ccMBshSz.s:26850  .debug_str:0000000000017ce8 .LASF2976
C:\Users\CYMR90~1\AppData\Local\Temp\ccMBshSz.s:29354  .debug_str:0000000000021be1 .LASF2977
C:\Users\CYMR90~1\AppData\Local\Temp\ccMBshSz.s:22861  .debug_str:0000000000007cb1 .LASF2978
C:\Users\CYMR90~1\AppData\Local\Temp\ccMBshSz.s:28228  .debug_str:000000000001d6b4 .LASF2979
C:\Users\CYMR90~1\AppData\Local\Temp\ccMBshSz.s:24259  .debug_str:000000000000d843 .LASF2980
C:\Users\CYMR90~1\AppData\Local\Temp\ccMBshSz.s:31780  .debug_str:000000000002b5db .LASF2981
C:\Users\CYMR90~1\AppData\Local\Temp\ccMBshSz.s:26880  .debug_str:0000000000017eba .LASF2982
C:\Users\CYMR90~1\AppData\Local\Temp\ccMBshSz.s:21857  .debug_str:0000000000003c9f .LASF2983
C:\Users\CYMR90~1\AppData\Local\Temp\ccMBshSz.s:27112  .debug_str:0000000000018d3f .LASF2984
C:\Users\CYMR90~1\AppData\Local\Temp\ccMBshSz.s:20903  .debug_str:00000000000001a6 .LASF2985
C:\Users\CYMR90~1\AppData\Local\Temp\ccMBshSz.s:24633  .debug_str:000000000000ee78 .LASF2986
C:\Users\CYMR90~1\AppData\Local\Temp\ccMBshSz.s:26097  .debug_str:0000000000014b56 .LASF2987
C:\Users\CYMR90~1\AppData\Local\Temp\ccMBshSz.s:26003  .debug_str:000000000001458b .LASF2988
C:\Users\CYMR90~1\AppData\Local\Temp\ccMBshSz.s:24659  .debug_str:000000000000eff0 .LASF2989
C:\Users\CYMR90~1\AppData\Local\Temp\ccMBshSz.s:24339  .debug_str:000000000000dcaf .LASF2990
C:\Users\CYMR90~1\AppData\Local\Temp\ccMBshSz.s:29836  .debug_str:00000000000238b8 .LASF2991
C:\Users\CYMR90~1\AppData\Local\Temp\ccMBshSz.s:26702  .debug_str:00000000000173cb .LASF2992
C:\Users\CYMR90~1\AppData\Local\Temp\ccMBshSz.s:25781  .debug_str:00000000000137ff .LASF2993
C:\Users\CYMR90~1\AppData\Local\Temp\ccMBshSz.s:23085  .debug_str:0000000000008c73 .LASF2994
C:\Users\CYMR90~1\AppData\Local\Temp\ccMBshSz.s:31530  .debug_str:000000000002a67a .LASF2995
C:\Users\CYMR90~1\AppData\Local\Temp\ccMBshSz.s:26095  .debug_str:0000000000014b38 .LASF2996
C:\Users\CYMR90~1\AppData\Local\Temp\ccMBshSz.s:26189  .debug_str:000000000001517d .LASF2997
C:\Users\CYMR90~1\AppData\Local\Temp\ccMBshSz.s:22227  .debug_str:00000000000054e2 .LASF2998
C:\Users\CYMR90~1\AppData\Local\Temp\ccMBshSz.s:26385  .debug_str:0000000000015d4c .LASF2999
C:\Users\CYMR90~1\AppData\Local\Temp\ccMBshSz.s:29574  .debug_str:00000000000228cf .LASF3000
C:\Users\CYMR90~1\AppData\Local\Temp\ccMBshSz.s:25005  .debug_str:000000000001058e .LASF3001
C:\Users\CYMR90~1\AppData\Local\Temp\ccMBshSz.s:26365  .debug_str:0000000000015bb4 .LASF3002
C:\Users\CYMR90~1\AppData\Local\Temp\ccMBshSz.s:21033  .debug_str:0000000000000947 .LASF3003
C:\Users\CYMR90~1\AppData\Local\Temp\ccMBshSz.s:29036  .debug_str:0000000000020895 .LASF3004
C:\Users\CYMR90~1\AppData\Local\Temp\ccMBshSz.s:32070  .debug_str:000000000002c877 .LASF3005
C:\Users\CYMR90~1\AppData\Local\Temp\ccMBshSz.s:29964  .debug_str:0000000000023ffa .LASF3006
C:\Users\CYMR90~1\AppData\Local\Temp\ccMBshSz.s:29348  .debug_str:0000000000021b77 .LASF3007
C:\Users\CYMR90~1\AppData\Local\Temp\ccMBshSz.s:22183  .debug_str:000000000000523d .LASF3008
C:\Users\CYMR90~1\AppData\Local\Temp\ccMBshSz.s:32198  .debug_str:000000000002d10c .LASF3009
C:\Users\CYMR90~1\AppData\Local\Temp\ccMBshSz.s:24529  .debug_str:000000000000e850 .LASF3010
C:\Users\CYMR90~1\AppData\Local\Temp\ccMBshSz.s:27896  .debug_str:000000000001c06f .LASF3011
C:\Users\CYMR90~1\AppData\Local\Temp\ccMBshSz.s:21219  .debug_str:00000000000014f6 .LASF3012
C:\Users\CYMR90~1\AppData\Local\Temp\ccMBshSz.s:25127  .debug_str:0000000000010d4d .LASF3013
C:\Users\CYMR90~1\AppData\Local\Temp\ccMBshSz.s:24257  .debug_str:000000000000d82a .LASF3014
C:\Users\CYMR90~1\AppData\Local\Temp\ccMBshSz.s:21405  .debug_str:00000000000020a6 .LASF3015
C:\Users\CYMR90~1\AppData\Local\Temp\ccMBshSz.s:28588  .debug_str:000000000001ed10 .LASF3016
C:\Users\CYMR90~1\AppData\Local\Temp\ccMBshSz.s:23907  .debug_str:000000000000c1b7 .LASF3017
C:\Users\CYMR90~1\AppData\Local\Temp\ccMBshSz.s:22701  .debug_str:0000000000007281 .LASF3018
C:\Users\CYMR90~1\AppData\Local\Temp\ccMBshSz.s:27040  .debug_str:000000000001883d .LASF3019
C:\Users\CYMR90~1\AppData\Local\Temp\ccMBshSz.s:24853  .debug_str:000000000000fc38 .LASF3020
C:\Users\CYMR90~1\AppData\Local\Temp\ccMBshSz.s:21641  .debug_str:0000000000002ee7 .LASF3021
C:\Users\CYMR90~1\AppData\Local\Temp\ccMBshSz.s:23969  .debug_str:000000000000c569 .LASF3022
C:\Users\CYMR90~1\AppData\Local\Temp\ccMBshSz.s:24463  .debug_str:000000000000e422 .LASF3023
C:\Users\CYMR90~1\AppData\Local\Temp\ccMBshSz.s:31810  .debug_str:000000000002b7dd .LASF3024
C:\Users\CYMR90~1\AppData\Local\Temp\ccMBshSz.s:22671  .debug_str:0000000000007040 .LASF3025
C:\Users\CYMR90~1\AppData\Local\Temp\ccMBshSz.s:28920  .debug_str:000000000002015a .LASF3026
C:\Users\CYMR90~1\AppData\Local\Temp\ccMBshSz.s:24841  .debug_str:000000000000fb65 .LASF3027
C:\Users\CYMR90~1\AppData\Local\Temp\ccMBshSz.s:26714  .debug_str:000000000001748b .LASF3028
C:\Users\CYMR90~1\AppData\Local\Temp\ccMBshSz.s:22139  .debug_str:0000000000004fb4 .LASF3029
C:\Users\CYMR90~1\AppData\Local\Temp\ccMBshSz.s:31738  .debug_str:000000000002b2ed .LASF3030
C:\Users\CYMR90~1\AppData\Local\Temp\ccMBshSz.s:24413  .debug_str:000000000000e117 .LASF3031
C:\Users\CYMR90~1\AppData\Local\Temp\ccMBshSz.s:23533  .debug_str:000000000000a7c0 .LASF3032
C:\Users\CYMR90~1\AppData\Local\Temp\ccMBshSz.s:30186  .debug_str:0000000000024f67 .LASF3033
C:\Users\CYMR90~1\AppData\Local\Temp\ccMBshSz.s:24585  .debug_str:000000000000ec0d .LASF3034
C:\Users\CYMR90~1\AppData\Local\Temp\ccMBshSz.s:24383  .debug_str:000000000000df78 .LASF3035
C:\Users\CYMR90~1\AppData\Local\Temp\ccMBshSz.s:30954  .debug_str:00000000000281f7 .LASF3036
C:\Users\CYMR90~1\AppData\Local\Temp\ccMBshSz.s:23051  .debug_str:0000000000008a41 .LASF3037
C:\Users\CYMR90~1\AppData\Local\Temp\ccMBshSz.s:31888  .debug_str:000000000002bcc6 .LASF3038
C:\Users\CYMR90~1\AppData\Local\Temp\ccMBshSz.s:31044  .debug_str:000000000002889b .LASF3039
C:\Users\CYMR90~1\AppData\Local\Temp\ccMBshSz.s:20919  .debug_str:0000000000000288 .LASF3040
C:\Users\CYMR90~1\AppData\Local\Temp\ccMBshSz.s:21905  .debug_str:0000000000003ff9 .LASF3041
C:\Users\CYMR90~1\AppData\Local\Temp\ccMBshSz.s:27948  .debug_str:000000000001c3ab .LASF3042
C:\Users\CYMR90~1\AppData\Local\Temp\ccMBshSz.s:27742  .debug_str:000000000001b711 .LASF3043
C:\Users\CYMR90~1\AppData\Local\Temp\ccMBshSz.s:30202  .debug_str:0000000000025053 .LASF3044
C:\Users\CYMR90~1\AppData\Local\Temp\ccMBshSz.s:24263  .debug_str:000000000000d887 .LASF3045
C:\Users\CYMR90~1\AppData\Local\Temp\ccMBshSz.s:27362  .debug_str:0000000000019e1c .LASF3046
C:\Users\CYMR90~1\AppData\Local\Temp\ccMBshSz.s:21157  .debug_str:0000000000001189 .LASF3047
C:\Users\CYMR90~1\AppData\Local\Temp\ccMBshSz.s:24631  .debug_str:000000000000ee5e .LASF3048
C:\Users\CYMR90~1\AppData\Local\Temp\ccMBshSz.s:27952  .debug_str:000000000001c3db .LASF3049
C:\Users\CYMR90~1\AppData\Local\Temp\ccMBshSz.s:31328  .debug_str:0000000000029a83 .LASF3050
C:\Users\CYMR90~1\AppData\Local\Temp\ccMBshSz.s:21293  .debug_str:00000000000019ed .LASF3051
C:\Users\CYMR90~1\AppData\Local\Temp\ccMBshSz.s:23383  .debug_str:0000000000009e8c .LASF3052
C:\Users\CYMR90~1\AppData\Local\Temp\ccMBshSz.s:30752  .debug_str:00000000000274ec .LASF3053
C:\Users\CYMR90~1\AppData\Local\Temp\ccMBshSz.s:22935  .debug_str:00000000000082d7 .LASF3054
C:\Users\CYMR90~1\AppData\Local\Temp\ccMBshSz.s:24419  .debug_str:000000000000e190 .LASF3055
C:\Users\CYMR90~1\AppData\Local\Temp\ccMBshSz.s:29966  .debug_str:0000000000024026 .LASF3056
C:\Users\CYMR90~1\AppData\Local\Temp\ccMBshSz.s:27292  .debug_str:000000000001999f .LASF3057
C:\Users\CYMR90~1\AppData\Local\Temp\ccMBshSz.s:23335  .debug_str:0000000000009bb9 .LASF3058
C:\Users\CYMR90~1\AppData\Local\Temp\ccMBshSz.s:28708  .debug_str:000000000001f46b .LASF3059
C:\Users\CYMR90~1\AppData\Local\Temp\ccMBshSz.s:22909  .debug_str:000000000000807a .LASF3060
C:\Users\CYMR90~1\AppData\Local\Temp\ccMBshSz.s:30938  .debug_str:00000000000280b1 .LASF3061
C:\Users\CYMR90~1\AppData\Local\Temp\ccMBshSz.s:30598  .debug_str:0000000000026ad0 .LASF3062
C:\Users\CYMR90~1\AppData\Local\Temp\ccMBshSz.s:25227  .debug_str:000000000001130d .LASF3063
C:\Users\CYMR90~1\AppData\Local\Temp\ccMBshSz.s:30094  .debug_str:00000000000249b8 .LASF3064
C:\Users\CYMR90~1\AppData\Local\Temp\ccMBshSz.s:29170  .debug_str:000000000002105f .LASF3065
C:\Users\CYMR90~1\AppData\Local\Temp\ccMBshSz.s:25113  .debug_str:0000000000010ca7 .LASF3066
C:\Users\CYMR90~1\AppData\Local\Temp\ccMBshSz.s:30688  .debug_str:000000000002706d .LASF3067
C:\Users\CYMR90~1\AppData\Local\Temp\ccMBshSz.s:29840  .debug_str:00000000000238f5 .LASF3068
C:\Users\CYMR90~1\AppData\Local\Temp\ccMBshSz.s:26658  .debug_str:0000000000017144 .LASF3069
C:\Users\CYMR90~1\AppData\Local\Temp\ccMBshSz.s:26405  .debug_str:0000000000015ebb .LASF3070
C:\Users\CYMR90~1\AppData\Local\Temp\ccMBshSz.s:28664  .debug_str:000000000001f1c4 .LASF3071
C:\Users\CYMR90~1\AppData\Local\Temp\ccMBshSz.s:25075  .debug_str:0000000000010a0f .LASF3072
C:\Users\CYMR90~1\AppData\Local\Temp\ccMBshSz.s:25203  .debug_str:00000000000111ab .LASF3073
C:\Users\CYMR90~1\AppData\Local\Temp\ccMBshSz.s:24603  .debug_str:000000000000ecf6 .LASF3074
C:\Users\CYMR90~1\AppData\Local\Temp\ccMBshSz.s:24739  .debug_str:000000000000f4e5 .LASF3075
C:\Users\CYMR90~1\AppData\Local\Temp\ccMBshSz.s:28392  .debug_str:000000000001e16d .LASF3076
C:\Users\CYMR90~1\AppData\Local\Temp\ccMBshSz.s:31062  .debug_str:00000000000289da .LASF3077
C:\Users\CYMR90~1\AppData\Local\Temp\ccMBshSz.s:26523  .debug_str:0000000000016664 .LASF3078
C:\Users\CYMR90~1\AppData\Local\Temp\ccMBshSz.s:29960  .debug_str:0000000000023fcb .LASF3079
C:\Users\CYMR90~1\AppData\Local\Temp\ccMBshSz.s:21439  .debug_str:0000000000002275 .LASF3080
C:\Users\CYMR90~1\AppData\Local\Temp\ccMBshSz.s:22693  .debug_str:00000000000071d9 .LASF3081
C:\Users\CYMR90~1\AppData\Local\Temp\ccMBshSz.s:31112  .debug_str:0000000000028cde .LASF3082
C:\Users\CYMR90~1\AppData\Local\Temp\ccMBshSz.s:23439  .debug_str:000000000000a207 .LASF3083
C:\Users\CYMR90~1\AppData\Local\Temp\ccMBshSz.s:25891  .debug_str:0000000000013e6f .LASF3084
C:\Users\CYMR90~1\AppData\Local\Temp\ccMBshSz.s:24561  .debug_str:000000000000ea7d .LASF3085
C:\Users\CYMR90~1\AppData\Local\Temp\ccMBshSz.s:26253  .debug_str:000000000001554b .LASF3086
C:\Users\CYMR90~1\AppData\Local\Temp\ccMBshSz.s:29112  .debug_str:0000000000020d33 .LASF3087
C:\Users\CYMR90~1\AppData\Local\Temp\ccMBshSz.s:27010  .debug_str:0000000000018659 .LASF3088
C:\Users\CYMR90~1\AppData\Local\Temp\ccMBshSz.s:28968  .debug_str:00000000000203e5 .LASF3089
C:\Users\CYMR90~1\AppData\Local\Temp\ccMBshSz.s:31204  .debug_str:0000000000029269 .LASF3090
C:\Users\CYMR90~1\AppData\Local\Temp\ccMBshSz.s:29618  .debug_str:0000000000022b6a .LASF3091
C:\Users\CYMR90~1\AppData\Local\Temp\ccMBshSz.s:23981  .debug_str:000000000000c608 .LASF3092
C:\Users\CYMR90~1\AppData\Local\Temp\ccMBshSz.s:32018  .debug_str:000000000002c551 .LASF3093
C:\Users\CYMR90~1\AppData\Local\Temp\ccMBshSz.s:28758  .debug_str:000000000001f73e .LASF3094
C:\Users\CYMR90~1\AppData\Local\Temp\ccMBshSz.s:30732  .debug_str:00000000000272f2 .LASF3095
C:\Users\CYMR90~1\AppData\Local\Temp\ccMBshSz.s:30468  .debug_str:00000000000262e3 .LASF3096
C:\Users\CYMR90~1\AppData\Local\Temp\ccMBshSz.s:23883  .debug_str:000000000000c026 .LASF3097
C:\Users\CYMR90~1\AppData\Local\Temp\ccMBshSz.s:26301  .debug_str:00000000000157db .LASF3098
C:\Users\CYMR90~1\AppData\Local\Temp\ccMBshSz.s:26191  .debug_str:00000000000151a8 .LASF3099
C:\Users\CYMR90~1\AppData\Local\Temp\ccMBshSz.s:27102  .debug_str:0000000000018cbd .LASF3100
C:\Users\CYMR90~1\AppData\Local\Temp\ccMBshSz.s:28794  .debug_str:000000000001f970 .LASF3101
C:\Users\CYMR90~1\AppData\Local\Temp\ccMBshSz.s:29314  .debug_str:0000000000021966 .LASF3102
C:\Users\CYMR90~1\AppData\Local\Temp\ccMBshSz.s:32152  .debug_str:000000000002cdd3 .LASF3103
C:\Users\CYMR90~1\AppData\Local\Temp\ccMBshSz.s:24793  .debug_str:000000000000f8a6 .LASF3104
C:\Users\CYMR90~1\AppData\Local\Temp\ccMBshSz.s:21655  .debug_str:0000000000002fb2 .LASF3105
C:\Users\CYMR90~1\AppData\Local\Temp\ccMBshSz.s:24649  .debug_str:000000000000ef6f .LASF3106
C:\Users\CYMR90~1\AppData\Local\Temp\ccMBshSz.s:28994  .debug_str:00000000000205bb .LASF3107
C:\Users\CYMR90~1\AppData\Local\Temp\ccMBshSz.s:26277  .debug_str:0000000000015685 .LASF3108
C:\Users\CYMR90~1\AppData\Local\Temp\ccMBshSz.s:25267  .debug_str:00000000000115be .LASF3109
C:\Users\CYMR90~1\AppData\Local\Temp\ccMBshSz.s:27892  .debug_str:000000000001c038 .LASF3110
C:\Users\CYMR90~1\AppData\Local\Temp\ccMBshSz.s:26914  .debug_str:0000000000018085 .LASF3111
C:\Users\CYMR90~1\AppData\Local\Temp\ccMBshSz.s:28830  .debug_str:000000000001fbb5 .LASF3112
C:\Users\CYMR90~1\AppData\Local\Temp\ccMBshSz.s:25077  .debug_str:0000000000010a27 .LASF3113
C:\Users\CYMR90~1\AppData\Local\Temp\ccMBshSz.s:30998  .debug_str:0000000000028543 .LASF3114
C:\Users\CYMR90~1\AppData\Local\Temp\ccMBshSz.s:23155  .debug_str:0000000000009096 .LASF3115
C:\Users\CYMR90~1\AppData\Local\Temp\ccMBshSz.s:22235  .debug_str:0000000000005580 .LASF3116
C:\Users\CYMR90~1\AppData\Local\Temp\ccMBshSz.s:21277  .debug_str:0000000000001902 .LASF3117
C:\Users\CYMR90~1\AppData\Local\Temp\ccMBshSz.s:31700  .debug_str:000000000002b0d8 .LASF3118
C:\Users\CYMR90~1\AppData\Local\Temp\ccMBshSz.s:29258  .debug_str:00000000000215fc .LASF3119
C:\Users\CYMR90~1\AppData\Local\Temp\ccMBshSz.s:28292  .debug_str:000000000001daf5 .LASF3120
C:\Users\CYMR90~1\AppData\Local\Temp\ccMBshSz.s:27442  .debug_str:000000000001a297 .LASF3121
C:\Users\CYMR90~1\AppData\Local\Temp\ccMBshSz.s:26447  .debug_str:000000000001619b .LASF3122
C:\Users\CYMR90~1\AppData\Local\Temp\ccMBshSz.s:25487  .debug_str:00000000000124b9 .LASF3123
C:\Users\CYMR90~1\AppData\Local\Temp\ccMBshSz.s:24521  .debug_str:000000000000e7df .LASF3124
C:\Users\CYMR90~1\AppData\Local\Temp\ccMBshSz.s:24665  .debug_str:000000000000f049 .LASF3125
C:\Users\CYMR90~1\AppData\Local\Temp\ccMBshSz.s:30680  .debug_str:0000000000026fc6 .LASF3126
C:\Users\CYMR90~1\AppData\Local\Temp\ccMBshSz.s:30464  .debug_str:00000000000262aa .LASF3127
C:\Users\CYMR90~1\AppData\Local\Temp\ccMBshSz.s:24981  .debug_str:000000000001042c .LASF3128
C:\Users\CYMR90~1\AppData\Local\Temp\ccMBshSz.s:23841  .debug_str:000000000000bcf9 .LASF3129
C:\Users\CYMR90~1\AppData\Local\Temp\ccMBshSz.s:22743  .debug_str:0000000000007523 .LASF3130
C:\Users\CYMR90~1\AppData\Local\Temp\ccMBshSz.s:28126  .debug_str:000000000001cffe .LASF3131
C:\Users\CYMR90~1\AppData\Local\Temp\ccMBshSz.s:29736  .debug_str:000000000002322b .LASF3132
C:\Users\CYMR90~1\AppData\Local\Temp\ccMBshSz.s:24017  .debug_str:000000000000c8b4 .LASF3133
C:\Users\CYMR90~1\AppData\Local\Temp\ccMBshSz.s:22301  .debug_str:0000000000005977 .LASF3134
C:\Users\CYMR90~1\AppData\Local\Temp\ccMBshSz.s:22083  .debug_str:0000000000004c2d .LASF3135
C:\Users\CYMR90~1\AppData\Local\Temp\ccMBshSz.s:28038  .debug_str:000000000001c9e0 .LASF3136
C:\Users\CYMR90~1\AppData\Local\Temp\ccMBshSz.s:26539  .debug_str:000000000001675f .LASF3137
C:\Users\CYMR90~1\AppData\Local\Temp\ccMBshSz.s:21585  .debug_str:0000000000002b78 .LASF3138
C:\Users\CYMR90~1\AppData\Local\Temp\ccMBshSz.s:32092  .debug_str:000000000002ca11 .LASF3139
C:\Users\CYMR90~1\AppData\Local\Temp\ccMBshSz.s:31036  .debug_str:00000000000287ef .LASF3140
C:\Users\CYMR90~1\AppData\Local\Temp\ccMBshSz.s:22053  .debug_str:0000000000004a4d .LASF3141
C:\Users\CYMR90~1\AppData\Local\Temp\ccMBshSz.s:27868  .debug_str:000000000001be89 .LASF3142
C:\Users\CYMR90~1\AppData\Local\Temp\ccMBshSz.s:25081  .debug_str:0000000000010a6c .LASF3143
C:\Users\CYMR90~1\AppData\Local\Temp\ccMBshSz.s:28178  .debug_str:000000000001d3c4 .LASF3144
C:\Users\CYMR90~1\AppData\Local\Temp\ccMBshSz.s:20971  .debug_str:00000000000005b5 .LASF3145
C:\Users\CYMR90~1\AppData\Local\Temp\ccMBshSz.s:25663  .debug_str:000000000001305b .LASF3146
C:\Users\CYMR90~1\AppData\Local\Temp\ccMBshSz.s:30412  .debug_str:0000000000025f4f .LASF3147
C:\Users\CYMR90~1\AppData\Local\Temp\ccMBshSz.s:25571  .debug_str:0000000000012a56 .LASF3148
C:\Users\CYMR90~1\AppData\Local\Temp\ccMBshSz.s:22451  .debug_str:0000000000006268 .LASF3149
C:\Users\CYMR90~1\AppData\Local\Temp\ccMBshSz.s:26878  .debug_str:0000000000017ea2 .LASF3150
C:\Users\CYMR90~1\AppData\Local\Temp\ccMBshSz.s:25329  .debug_str:0000000000011ac3 .LASF3151
C:\Users\CYMR90~1\AppData\Local\Temp\ccMBshSz.s:23881  .debug_str:000000000000c00a .LASF3152
C:\Users\CYMR90~1\AppData\Local\Temp\ccMBshSz.s:27728  .debug_str:000000000001b622 .LASF3153
C:\Users\CYMR90~1\AppData\Local\Temp\ccMBshSz.s:24235  .debug_str:000000000000d70c .LASF3154
C:\Users\CYMR90~1\AppData\Local\Temp\ccMBshSz.s:23221  .debug_str:000000000000944c .LASF3155
C:\Users\CYMR90~1\AppData\Local\Temp\ccMBshSz.s:30104  .debug_str:0000000000024a2d .LASF3156
C:\Users\CYMR90~1\AppData\Local\Temp\ccMBshSz.s:25373  .debug_str:0000000000011d64 .LASF3157
C:\Users\CYMR90~1\AppData\Local\Temp\ccMBshSz.s:29706  .debug_str:00000000000230b4 .LASF3158
C:\Users\CYMR90~1\AppData\Local\Temp\ccMBshSz.s:23559  .debug_str:000000000000aa58 .LASF3159
C:\Users\CYMR90~1\AppData\Local\Temp\ccMBshSz.s:27308  .debug_str:0000000000019ac3 .LASF3160
C:\Users\CYMR90~1\AppData\Local\Temp\ccMBshSz.s:30642  .debug_str:0000000000026d4b .LASF3161
C:\Users\CYMR90~1\AppData\Local\Temp\ccMBshSz.s:24261  .debug_str:000000000000d862 .LASF3162
C:\Users\CYMR90~1\AppData\Local\Temp\ccMBshSz.s:22347  .debug_str:0000000000005c54 .LASF3163
C:\Users\CYMR90~1\AppData\Local\Temp\ccMBshSz.s:23865  .debug_str:000000000000bede .LASF3164
C:\Users\CYMR90~1\AppData\Local\Temp\ccMBshSz.s:22653  .debug_str:0000000000006f3d .LASF3165
C:\Users\CYMR90~1\AppData\Local\Temp\ccMBshSz.s:24547  .debug_str:000000000000e9a4 .LASF3166
C:\Users\CYMR90~1\AppData\Local\Temp\ccMBshSz.s:21115  .debug_str:0000000000000f1b .LASF3167
C:\Users\CYMR90~1\AppData\Local\Temp\ccMBshSz.s:31834  .debug_str:000000000002b94e .LASF3168
C:\Users\CYMR90~1\AppData\Local\Temp\ccMBshSz.s:31432  .debug_str:000000000002a091 .LASF3169
C:\Users\CYMR90~1\AppData\Local\Temp\ccMBshSz.s:28840  .debug_str:000000000001fc54 .LASF3170
C:\Users\CYMR90~1\AppData\Local\Temp\ccMBshSz.s:29958  .debug_str:0000000000023fb3 .LASF3171
C:\Users\CYMR90~1\AppData\Local\Temp\ccMBshSz.s:28412  .debug_str:000000000001e2a3 .LASF3172
C:\Users\CYMR90~1\AppData\Local\Temp\ccMBshSz.s:28802  .debug_str:000000000001f9cf .LASF3173
C:\Users\CYMR90~1\AppData\Local\Temp\ccMBshSz.s:30792  .debug_str:0000000000027750 .LASF3174
C:\Users\CYMR90~1\AppData\Local\Temp\ccMBshSz.s:25973  .debug_str:0000000000014399 .LASF3175
C:\Users\CYMR90~1\AppData\Local\Temp\ccMBshSz.s:26545  .debug_str:00000000000167ba .LASF3176
C:\Users\CYMR90~1\AppData\Local\Temp\ccMBshSz.s:21371  .debug_str:0000000000001ec5 .LASF3177
C:\Users\CYMR90~1\AppData\Local\Temp\ccMBshSz.s:28786  .debug_str:000000000001f8d2 .LASF3178
C:\Users\CYMR90~1\AppData\Local\Temp\ccMBshSz.s:28734  .debug_str:000000000001f5ec .LASF3179
C:\Users\CYMR90~1\AppData\Local\Temp\ccMBshSz.s:27842  .debug_str:000000000001bcba .LASF3180
C:\Users\CYMR90~1\AppData\Local\Temp\ccMBshSz.s:21543  .debug_str:00000000000028ef .LASF3181
C:\Users\CYMR90~1\AppData\Local\Temp\ccMBshSz.s:30276  .debug_str:000000000002560d .LASF3182
C:\Users\CYMR90~1\AppData\Local\Temp\ccMBshSz.s:24149  .debug_str:000000000000d0e5 .LASF3183
C:\Users\CYMR90~1\AppData\Local\Temp\ccMBshSz.s:21901  .debug_str:0000000000003fc0 .LASF3184
C:\Users\CYMR90~1\AppData\Local\Temp\ccMBshSz.s:21637  .debug_str:0000000000002e9c .LASF3185
C:\Users\CYMR90~1\AppData\Local\Temp\ccMBshSz.s:23047  .debug_str:0000000000008a07 .LASF3186
C:\Users\CYMR90~1\AppData\Local\Temp\ccMBshSz.s:28402  .debug_str:000000000001e205 .LASF3187
C:\Users\CYMR90~1\AppData\Local\Temp\ccMBshSz.s:29548  .debug_str:0000000000022719 .LASF3188
C:\Users\CYMR90~1\AppData\Local\Temp\ccMBshSz.s:23431  .debug_str:000000000000a194 .LASF3189
C:\Users\CYMR90~1\AppData\Local\Temp\ccMBshSz.s:24345  .debug_str:000000000000dd00 .LASF3190
C:\Users\CYMR90~1\AppData\Local\Temp\ccMBshSz.s:26343  .debug_str:0000000000015a6c .LASF3191
C:\Users\CYMR90~1\AppData\Local\Temp\ccMBshSz.s:22463  .debug_str:0000000000006313 .LASF3192
C:\Users\CYMR90~1\AppData\Local\Temp\ccMBshSz.s:29882  .debug_str:0000000000023b5a .LASF3193
C:\Users\CYMR90~1\AppData\Local\Temp\ccMBshSz.s:27266  .debug_str:0000000000019769 .LASF3194
C:\Users\CYMR90~1\AppData\Local\Temp\ccMBshSz.s:23873  .debug_str:000000000000bf62 .LASF3195
C:\Users\CYMR90~1\AppData\Local\Temp\ccMBshSz.s:28998  .debug_str:00000000000205fd .LASF3196
C:\Users\CYMR90~1\AppData\Local\Temp\ccMBshSz.s:26814  .debug_str:0000000000017ae0 .LASF3197
C:\Users\CYMR90~1\AppData\Local\Temp\ccMBshSz.s:31030  .debug_str:000000000002877d .LASF3198
C:\Users\CYMR90~1\AppData\Local\Temp\ccMBshSz.s:28504  .debug_str:000000000001e841 .LASF3199
C:\Users\CYMR90~1\AppData\Local\Temp\ccMBshSz.s:27818  .debug_str:000000000001bafb .LASF3200
C:\Users\CYMR90~1\AppData\Local\Temp\ccMBshSz.s:30908  .debug_str:0000000000027eb8 .LASF3201
C:\Users\CYMR90~1\AppData\Local\Temp\ccMBshSz.s:21397  .debug_str:0000000000002049 .LASF3202
C:\Users\CYMR90~1\AppData\Local\Temp\ccMBshSz.s:24575  .debug_str:000000000000eb74 .LASF3203
C:\Users\CYMR90~1\AppData\Local\Temp\ccMBshSz.s:24619  .debug_str:000000000000edb7 .LASF3204
C:\Users\CYMR90~1\AppData\Local\Temp\ccMBshSz.s:30552  .debug_str:00000000000267f1 .LASF3205
C:\Users\CYMR90~1\AppData\Local\Temp\ccMBshSz.s:30914  .debug_str:0000000000027f18 .LASF3206
C:\Users\CYMR90~1\AppData\Local\Temp\ccMBshSz.s:26904  .debug_str:0000000000018014 .LASF3207
C:\Users\CYMR90~1\AppData\Local\Temp\ccMBshSz.s:23107  .debug_str:0000000000008d9a .LASF3208
C:\Users\CYMR90~1\AppData\Local\Temp\ccMBshSz.s:21235  .debug_str:00000000000015b1 .LASF3209
C:\Users\CYMR90~1\AppData\Local\Temp\ccMBshSz.s:21537  .debug_str:0000000000002893 .LASF3210
C:\Users\CYMR90~1\AppData\Local\Temp\ccMBshSz.s:31506  .debug_str:000000000002a4b2 .LASF3211
C:\Users\CYMR90~1\AppData\Local\Temp\ccMBshSz.s:22435  .debug_str:000000000000619b .LASF3212
C:\Users\CYMR90~1\AppData\Local\Temp\ccMBshSz.s:25667  .debug_str:000000000001309d .LASF3213
C:\Users\CYMR90~1\AppData\Local\Temp\ccMBshSz.s:24227  .debug_str:000000000000d688 .LASF3214
C:\Users\CYMR90~1\AppData\Local\Temp\ccMBshSz.s:29216  .debug_str:00000000000212ea .LASF3215
C:\Users\CYMR90~1\AppData\Local\Temp\ccMBshSz.s:27276  .debug_str:000000000001984e .LASF3216
C:\Users\CYMR90~1\AppData\Local\Temp\ccMBshSz.s:23409  .debug_str:000000000000a014 .LASF3217
C:\Users\CYMR90~1\AppData\Local\Temp\ccMBshSz.s:23159  .debug_str:00000000000090d3 .LASF3218
C:\Users\CYMR90~1\AppData\Local\Temp\ccMBshSz.s:23749  .debug_str:000000000000b6c9 .LASF3219
C:\Users\CYMR90~1\AppData\Local\Temp\ccMBshSz.s:21977  .debug_str:00000000000044c0 .LASF3220
C:\Users\CYMR90~1\AppData\Local\Temp\ccMBshSz.s:25099  .debug_str:0000000000010bfc .LASF3221
C:\Users\CYMR90~1\AppData\Local\Temp\ccMBshSz.s:26798  .debug_str:00000000000179fe .LASF3222
C:\Users\CYMR90~1\AppData\Local\Temp\ccMBshSz.s:23023  .debug_str:0000000000008848 .LASF3223
C:\Users\CYMR90~1\AppData\Local\Temp\ccMBshSz.s:23823  .debug_str:000000000000bbb5 .LASF3224
C:\Users\CYMR90~1\AppData\Local\Temp\ccMBshSz.s:23775  .debug_str:000000000000b8bb .LASF3225
C:\Users\CYMR90~1\AppData\Local\Temp\ccMBshSz.s:26706  .debug_str:0000000000017406 .LASF3226
C:\Users\CYMR90~1\AppData\Local\Temp\ccMBshSz.s:30638  .debug_str:0000000000026d12 .LASF3227
C:\Users\CYMR90~1\AppData\Local\Temp\ccMBshSz.s:23509  .debug_str:000000000000a66b .LASF3228
C:\Users\CYMR90~1\AppData\Local\Temp\ccMBshSz.s:21511  .debug_str:00000000000026ca .LASF3229
C:\Users\CYMR90~1\AppData\Local\Temp\ccMBshSz.s:28530  .debug_str:000000000001e9e9 .LASF3230
C:\Users\CYMR90~1\AppData\Local\Temp\ccMBshSz.s:21199  .debug_str:00000000000013eb .LASF3231
C:\Users\CYMR90~1\AppData\Local\Temp\ccMBshSz.s:27088  .debug_str:0000000000018b45 .LASF3232
C:\Users\CYMR90~1\AppData\Local\Temp\ccMBshSz.s:21307  .debug_str:0000000000001ac0 .LASF3233
C:\Users\CYMR90~1\AppData\Local\Temp\ccMBshSz.s:32104  .debug_str:000000000002cafa .LASF3234
C:\Users\CYMR90~1\AppData\Local\Temp\ccMBshSz.s:26259  .debug_str:0000000000015589 .LASF3235
C:\Users\CYMR90~1\AppData\Local\Temp\ccMBshSz.s:30054  .debug_str:00000000000246bb .LASF3236
C:\Users\CYMR90~1\AppData\Local\Temp\ccMBshSz.s:21623  .debug_str:0000000000002dda .LASF3237
C:\Users\CYMR90~1\AppData\Local\Temp\ccMBshSz.s:21333  .debug_str:0000000000001c76 .LASF3238
C:\Users\CYMR90~1\AppData\Local\Temp\ccMBshSz.s:22457  .debug_str:00000000000062d6 .LASF3239
C:\Users\CYMR90~1\AppData\Local\Temp\ccMBshSz.s:27692  .debug_str:000000000001b403 .LASF3240
C:\Users\CYMR90~1\AppData\Local\Temp\ccMBshSz.s:25787  .debug_str:000000000001385f .LASF3241
C:\Users\CYMR90~1\AppData\Local\Temp\ccMBshSz.s:23165  .debug_str:0000000000009136 .LASF3242
C:\Users\CYMR90~1\AppData\Local\Temp\ccMBshSz.s:22213  .debug_str:0000000000005416 .LASF3243
C:\Users\CYMR90~1\AppData\Local\Temp\ccMBshSz.s:31596  .debug_str:000000000002aaa2 .LASF3244
C:\Users\CYMR90~1\AppData\Local\Temp\ccMBshSz.s:23891  .debug_str:000000000000c096 .LASF3245
C:\Users\CYMR90~1\AppData\Local\Temp\ccMBshSz.s:21551  .debug_str:000000000000296a .LASF3246
C:\Users\CYMR90~1\AppData\Local\Temp\ccMBshSz.s:29508  .debug_str:00000000000224b0 .LASF3247
C:\Users\CYMR90~1\AppData\Local\Temp\ccMBshSz.s:26153  .debug_str:0000000000014f45 .LASF3248
C:\Users\CYMR90~1\AppData\Local\Temp\ccMBshSz.s:22739  .debug_str:00000000000074dc .LASF3249
C:\Users\CYMR90~1\AppData\Local\Temp\ccMBshSz.s:27672  .debug_str:000000000001b2de .LASF3250
C:\Users\CYMR90~1\AppData\Local\Temp\ccMBshSz.s:22345  .debug_str:0000000000005c35 .LASF3251
C:\Users\CYMR90~1\AppData\Local\Temp\ccMBshSz.s:23255  .debug_str:000000000000969e .LASF3252
C:\Users\CYMR90~1\AppData\Local\Temp\ccMBshSz.s:25507  .debug_str:0000000000012607 .LASF3253
C:\Users\CYMR90~1\AppData\Local\Temp\ccMBshSz.s:29526  .debug_str:00000000000225a1 .LASF3254
C:\Users\CYMR90~1\AppData\Local\Temp\ccMBshSz.s:30894  .debug_str:0000000000027da5 .LASF3255
C:\Users\CYMR90~1\AppData\Local\Temp\ccMBshSz.s:26894  .debug_str:0000000000017f88 .LASF3256
C:\Users\CYMR90~1\AppData\Local\Temp\ccMBshSz.s:24737  .debug_str:000000000000f4c5 .LASF3257
C:\Users\CYMR90~1\AppData\Local\Temp\ccMBshSz.s:29524  .debug_str:0000000000022588 .LASF3258
C:\Users\CYMR90~1\AppData\Local\Temp\ccMBshSz.s:31338  .debug_str:0000000000029af8 .LASF3259
C:\Users\CYMR90~1\AppData\Local\Temp\ccMBshSz.s:27538  .debug_str:000000000001aa26 .LASF3260
C:\Users\CYMR90~1\AppData\Local\Temp\ccMBshSz.s:22607  .debug_str:0000000000006c19 .LASF3261
C:\Users\CYMR90~1\AppData\Local\Temp\ccMBshSz.s:22219  .debug_str:000000000000545a .LASF3262
C:\Users\CYMR90~1\AppData\Local\Temp\ccMBshSz.s:28448  .debug_str:000000000001e4b1 .LASF3263
C:\Users\CYMR90~1\AppData\Local\Temp\ccMBshSz.s:24443  .debug_str:000000000000e30b .LASF3264
C:\Users\CYMR90~1\AppData\Local\Temp\ccMBshSz.s:29724  .debug_str:000000000002317d .LASF3265
C:\Users\CYMR90~1\AppData\Local\Temp\ccMBshSz.s:26758  .debug_str:000000000001773b .LASF3266
C:\Users\CYMR90~1\AppData\Local\Temp\ccMBshSz.s:30168  .debug_str:0000000000024e49 .LASF3267
C:\Users\CYMR90~1\AppData\Local\Temp\ccMBshSz.s:29562  .debug_str:000000000002281a .LASF3268
C:\Users\CYMR90~1\AppData\Local\Temp\ccMBshSz.s:31980  .debug_str:000000000002c2cb .LASF3269
C:\Users\CYMR90~1\AppData\Local\Temp\ccMBshSz.s:31770  .debug_str:000000000002b527 .LASF3270
C:\Users\CYMR90~1\AppData\Local\Temp\ccMBshSz.s:32074  .debug_str:000000000002c8d3 .LASF3271
C:\Users\CYMR90~1\AppData\Local\Temp\ccMBshSz.s:30484  .debug_str:00000000000263b0 .LASF3272
C:\Users\CYMR90~1\AppData\Local\Temp\ccMBshSz.s:21863  .debug_str:0000000000003d12 .LASF3273
C:\Users\CYMR90~1\AppData\Local\Temp\ccMBshSz.s:24667  .debug_str:000000000000f078 .LASF3274
C:\Users\CYMR90~1\AppData\Local\Temp\ccMBshSz.s:21833  .debug_str:0000000000003b3c .LASF3275
C:\Users\CYMR90~1\AppData\Local\Temp\ccMBshSz.s:25215  .debug_str:000000000001125e .LASF3276
C:\Users\CYMR90~1\AppData\Local\Temp\ccMBshSz.s:25035  .debug_str:0000000000010757 .LASF3277
C:\Users\CYMR90~1\AppData\Local\Temp\ccMBshSz.s:22575  .debug_str:0000000000006a04 .LASF3278
C:\Users\CYMR90~1\AppData\Local\Temp\ccMBshSz.s:25423  .debug_str:00000000000120d4 .LASF3279
C:\Users\CYMR90~1\AppData\Local\Temp\ccMBshSz.s:25079  .debug_str:0000000000010a4f .LASF3280
C:\Users\CYMR90~1\AppData\Local\Temp\ccMBshSz.s:22825  .debug_str:0000000000007a4d .LASF3281
C:\Users\CYMR90~1\AppData\Local\Temp\ccMBshSz.s:23515  .debug_str:000000000000a6b9 .LASF3282
C:\Users\CYMR90~1\AppData\Local\Temp\ccMBshSz.s:25911  .debug_str:0000000000013fd2 .LASF3283
C:\Users\CYMR90~1\AppData\Local\Temp\ccMBshSz.s:28456  .debug_str:000000000001e520 .LASF3284
C:\Users\CYMR90~1\AppData\Local\Temp\ccMBshSz.s:22017  .debug_str:000000000000477c .LASF3285
C:\Users\CYMR90~1\AppData\Local\Temp\ccMBshSz.s:28996  .debug_str:00000000000205e7 .LASF3286
C:\Users\CYMR90~1\AppData\Local\Temp\ccMBshSz.s:29362  .debug_str:0000000000021c53 .LASF3287
C:\Users\CYMR90~1\AppData\Local\Temp\ccMBshSz.s:23315  .debug_str:0000000000009a58 .LASF3288
C:\Users\CYMR90~1\AppData\Local\Temp\ccMBshSz.s:22657  .debug_str:0000000000006f6f .LASF3289
C:\Users\CYMR90~1\AppData\Local\Temp\ccMBshSz.s:23177  .debug_str:00000000000091be .LASF3290
C:\Users\CYMR90~1\AppData\Local\Temp\ccMBshSz.s:21613  .debug_str:0000000000002d54 .LASF3291
C:\Users\CYMR90~1\AppData\Local\Temp\ccMBshSz.s:31924  .debug_str:000000000002bf09 .LASF3292
C:\Users\CYMR90~1\AppData\Local\Temp\ccMBshSz.s:22441  .debug_str:00000000000061ee .LASF3293
C:\Users\CYMR90~1\AppData\Local\Temp\ccMBshSz.s:21005  .debug_str:0000000000000799 .LASF3294
C:\Users\CYMR90~1\AppData\Local\Temp\ccMBshSz.s:22023  .debug_str:00000000000047f9 .LASF3295
C:\Users\CYMR90~1\AppData\Local\Temp\ccMBshSz.s:29464  .debug_str:0000000000022260 .LASF3296
C:\Users\CYMR90~1\AppData\Local\Temp\ccMBshSz.s:25497  .debug_str:0000000000012555 .LASF3297
C:\Users\CYMR90~1\AppData\Local\Temp\ccMBshSz.s:29080  .debug_str:0000000000020b12 .LASF3298
C:\Users\CYMR90~1\AppData\Local\Temp\ccMBshSz.s:20941  .debug_str:0000000000000418 .LASF3299
C:\Users\CYMR90~1\AppData\Local\Temp\ccMBshSz.s:28672  .debug_str:000000000001f23d .LASF3300
C:\Users\CYMR90~1\AppData\Local\Temp\ccMBshSz.s:27526  .debug_str:000000000001a964 .LASF3301
C:\Users\CYMR90~1\AppData\Local\Temp\ccMBshSz.s:28446  .debug_str:000000000001e491 .LASF3302
C:\Users\CYMR90~1\AppData\Local\Temp\ccMBshSz.s:28026  .debug_str:000000000001c914 .LASF3303
C:\Users\CYMR90~1\AppData\Local\Temp\ccMBshSz.s:26874  .debug_str:0000000000017e6c .LASF3304
C:\Users\CYMR90~1\AppData\Local\Temp\ccMBshSz.s:25383  .debug_str:0000000000011ded .LASF3305
C:\Users\CYMR90~1\AppData\Local\Temp\ccMBshSz.s:23401  .debug_str:0000000000009f81 .LASF3306
C:\Users\CYMR90~1\AppData\Local\Temp\ccMBshSz.s:28324  .debug_str:000000000001dcbc .LASF3307
C:\Users\CYMR90~1\AppData\Local\Temp\ccMBshSz.s:32022  .debug_str:000000000002c5b2 .LASF3308
C:\Users\CYMR90~1\AppData\Local\Temp\ccMBshSz.s:27286  .debug_str:0000000000019954 .LASF3309
C:\Users\CYMR90~1\AppData\Local\Temp\ccMBshSz.s:27594  .debug_str:000000000001ad99 .LASF3310
C:\Users\CYMR90~1\AppData\Local\Temp\ccMBshSz.s:30096  .debug_str:00000000000249cb .LASF3311
C:\Users\CYMR90~1\AppData\Local\Temp\ccMBshSz.s:31502  .debug_str:000000000002a47f .LASF3312
C:\Users\CYMR90~1\AppData\Local\Temp\ccMBshSz.s:25259  .debug_str:000000000001153a .LASF3313
C:\Users\CYMR90~1\AppData\Local\Temp\ccMBshSz.s:28272  .debug_str:000000000001d9de .LASF3314
C:\Users\CYMR90~1\AppData\Local\Temp\ccMBshSz.s:24343  .debug_str:000000000000dce8 .LASF3315
C:\Users\CYMR90~1\AppData\Local\Temp\ccMBshSz.s:31278  .debug_str:000000000002973f .LASF3316
C:\Users\CYMR90~1\AppData\Local\Temp\ccMBshSz.s:22751  .debug_str:0000000000007593 .LASF3317
C:\Users\CYMR90~1\AppData\Local\Temp\ccMBshSz.s:31548  .debug_str:000000000002a7a5 .LASF3318
C:\Users\CYMR90~1\AppData\Local\Temp\ccMBshSz.s:30326  .debug_str:0000000000025a17 .LASF3319
C:\Users\CYMR90~1\AppData\Local\Temp\ccMBshSz.s:21789  .debug_str:0000000000003865 .LASF3320
C:\Users\CYMR90~1\AppData\Local\Temp\ccMBshSz.s:24975  .debug_str:00000000000103ce .LASF3321
C:\Users\CYMR90~1\AppData\Local\Temp\ccMBshSz.s:31002  .debug_str:0000000000028591 .LASF3322
C:\Users\CYMR90~1\AppData\Local\Temp\ccMBshSz.s:25447  .debug_str:0000000000012240 .LASF3323
C:\Users\CYMR90~1\AppData\Local\Temp\ccMBshSz.s:23573  .debug_str:000000000000ab17 .LASF3324
C:\Users\CYMR90~1\AppData\Local\Temp\ccMBshSz.s:31826  .debug_str:000000000002b8ba .LASF3325
C:\Users\CYMR90~1\AppData\Local\Temp\ccMBshSz.s:30122  .debug_str:0000000000024b33 .LASF3326
C:\Users\CYMR90~1\AppData\Local\Temp\ccMBshSz.s:27340  .debug_str:0000000000019cc0 .LASF3327
C:\Users\CYMR90~1\AppData\Local\Temp\ccMBshSz.s:31576  .debug_str:000000000002a96e .LASF3328
C:\Users\CYMR90~1\AppData\Local\Temp\ccMBshSz.s:22529  .debug_str:0000000000006712 .LASF3329
C:\Users\CYMR90~1\AppData\Local\Temp\ccMBshSz.s:31616  .debug_str:000000000002abb1 .LASF3330
C:\Users\CYMR90~1\AppData\Local\Temp\ccMBshSz.s:29184  .debug_str:00000000000210fe .LASF3331
C:\Users\CYMR90~1\AppData\Local\Temp\ccMBshSz.s:30570  .debug_str:0000000000026931 .LASF3332
C:\Users\CYMR90~1\AppData\Local\Temp\ccMBshSz.s:24203  .debug_str:000000000000d4e5 .LASF3333
C:\Users\CYMR90~1\AppData\Local\Temp\ccMBshSz.s:29948  .debug_str:0000000000023f39 .LASF3334
C:\Users\CYMR90~1\AppData\Local\Temp\ccMBshSz.s:26037  .debug_str:00000000000147b0 .LASF3335
C:\Users\CYMR90~1\AppData\Local\Temp\ccMBshSz.s:24865  .debug_str:000000000000fcf0 .LASF3336
C:\Users\CYMR90~1\AppData\Local\Temp\ccMBshSz.s:28014  .debug_str:000000000001c796 .LASF3337
C:\Users\CYMR90~1\AppData\Local\Temp\ccMBshSz.s:30836  .debug_str:00000000000279ba .LASF3338
C:\Users\CYMR90~1\AppData\Local\Temp\ccMBshSz.s:21813  .debug_str:00000000000039d6 .LASF3339
C:\Users\CYMR90~1\AppData\Local\Temp\ccMBshSz.s:28252  .debug_str:000000000001d86e .LASF3340
C:\Users\CYMR90~1\AppData\Local\Temp\ccMBshSz.s:31012  .debug_str:0000000000028635 .LASF3341
C:\Users\CYMR90~1\AppData\Local\Temp\ccMBshSz.s:23067  .debug_str:0000000000008b3c .LASF3342
C:\Users\CYMR90~1\AppData\Local\Temp\ccMBshSz.s:29438  .debug_str:00000000000220be .LASF3343
C:\Users\CYMR90~1\AppData\Local\Temp\ccMBshSz.s:26235  .debug_str:0000000000015427 .LASF3344
C:\Users\CYMR90~1\AppData\Local\Temp\ccMBshSz.s:23161  .debug_str:00000000000090f7 .LASF3345
C:\Users\CYMR90~1\AppData\Local\Temp\ccMBshSz.s:32114  .debug_str:000000000002cb97 .LASF3346
C:\Users\CYMR90~1\AppData\Local\Temp\ccMBshSz.s:25591  .debug_str:0000000000012b9d .LASF3347
C:\Users\CYMR90~1\AppData\Local\Temp\ccMBshSz.s:23633  .debug_str:000000000000aebd .LASF3348
C:\Users\CYMR90~1\AppData\Local\Temp\ccMBshSz.s:28090  .debug_str:000000000001cd27 .LASF3349
C:\Users\CYMR90~1\AppData\Local\Temp\ccMBshSz.s:30190  .debug_str:0000000000024f9c .LASF3350
C:\Users\CYMR90~1\AppData\Local\Temp\ccMBshSz.s:22101  .debug_str:0000000000004d4b .LASF3351
C:\Users\CYMR90~1\AppData\Local\Temp\ccMBshSz.s:31516  .debug_str:000000000002a588 .LASF3352
C:\Users\CYMR90~1\AppData\Local\Temp\ccMBshSz.s:30394  .debug_str:0000000000025e2d .LASF3353
C:\Users\CYMR90~1\AppData\Local\Temp\ccMBshSz.s:27380  .debug_str:0000000000019f01 .LASF3354
C:\Users\CYMR90~1\AppData\Local\Temp\ccMBshSz.s:27388  .debug_str:0000000000019f87 .LASF3355
C:\Users\CYMR90~1\AppData\Local\Temp\ccMBshSz.s:30684  .debug_str:000000000002701a .LASF3356
C:\Users\CYMR90~1\AppData\Local\Temp\ccMBshSz.s:25477  .debug_str:000000000001240b .LASF3357
C:\Users\CYMR90~1\AppData\Local\Temp\ccMBshSz.s:31488  .debug_str:000000000002a3cb .LASF3358
C:\Users\CYMR90~1\AppData\Local\Temp\ccMBshSz.s:27048  .debug_str:00000000000188a9 .LASF3359
C:\Users\CYMR90~1\AppData\Local\Temp\ccMBshSz.s:30768  .debug_str:00000000000275e1 .LASF3360
C:\Users\CYMR90~1\AppData\Local\Temp\ccMBshSz.s:21997  .debug_str:00000000000045fd .LASF3361
C:\Users\CYMR90~1\AppData\Local\Temp\ccMBshSz.s:25069  .debug_str:0000000000010971 .LASF3362
C:\Users\CYMR90~1\AppData\Local\Temp\ccMBshSz.s:28428  .debug_str:000000000001e372 .LASF3363
C:\Users\CYMR90~1\AppData\Local\Temp\ccMBshSz.s:25407  .debug_str:0000000000011fa6 .LASF3364
C:\Users\CYMR90~1\AppData\Local\Temp\ccMBshSz.s:24819  .debug_str:000000000000fa14 .LASF3365
C:\Users\CYMR90~1\AppData\Local\Temp\ccMBshSz.s:25589  .debug_str:0000000000012b64 .LASF3366
C:\Users\CYMR90~1\AppData\Local\Temp\ccMBshSz.s:29894  .debug_str:0000000000023c0a .LASF3367
C:\Users\CYMR90~1\AppData\Local\Temp\ccMBshSz.s:26425  .debug_str:000000000001600d .LASF3368
C:\Users\CYMR90~1\AppData\Local\Temp\ccMBshSz.s:27996  .debug_str:000000000001c642 .LASF3369
C:\Users\CYMR90~1\AppData\Local\Temp\ccMBshSz.s:23845  .debug_str:000000000000bd3b .LASF3370
C:\Users\CYMR90~1\AppData\Local\Temp\ccMBshSz.s:22853  .debug_str:0000000000007c3e .LASF3371
C:\Users\CYMR90~1\AppData\Local\Temp\ccMBshSz.s:22159  .debug_str:00000000000050cd .LASF3372
C:\Users\CYMR90~1\AppData\Local\Temp\ccMBshSz.s:25541  .debug_str:0000000000012848 .LASF3373
C:\Users\CYMR90~1\AppData\Local\Temp\ccMBshSz.s:21155  .debug_str:0000000000001159 .LASF3374
C:\Users\CYMR90~1\AppData\Local\Temp\ccMBshSz.s:21249  .debug_str:0000000000001692 .LASF3375
C:\Users\CYMR90~1\AppData\Local\Temp\ccMBshSz.s:30962  .debug_str:000000000002827c .LASF3376
C:\Users\CYMR90~1\AppData\Local\Temp\ccMBshSz.s:27660  .debug_str:000000000001b20d .LASF3377
C:\Users\CYMR90~1\AppData\Local\Temp\ccMBshSz.s:24115  .debug_str:000000000000cebe .LASF3378
C:\Users\CYMR90~1\AppData\Local\Temp\ccMBshSz.s:26001  .debug_str:0000000000014552 .LASF3379
C:\Users\CYMR90~1\AppData\Local\Temp\ccMBshSz.s:26988  .debug_str:0000000000018543 .LASF3380
C:\Users\CYMR90~1\AppData\Local\Temp\ccMBshSz.s:24817  .debug_str:000000000000f9fb .LASF3381
C:\Users\CYMR90~1\AppData\Local\Temp\ccMBshSz.s:22407  .debug_str:0000000000005fbf .LASF3382
C:\Users\CYMR90~1\AppData\Local\Temp\ccMBshSz.s:21381  .debug_str:0000000000001f58 .LASF3383
C:\Users\CYMR90~1\AppData\Local\Temp\ccMBshSz.s:26968  .debug_str:00000000000183f4 .LASF3384
C:\Users\CYMR90~1\AppData\Local\Temp\ccMBshSz.s:26692  .debug_str:0000000000017324 .LASF3385
C:\Users\CYMR90~1\AppData\Local\Temp\ccMBshSz.s:27726  .debug_str:000000000001b600 .LASF3386
C:\Users\CYMR90~1\AppData\Local\Temp\ccMBshSz.s:24355  .debug_str:000000000000ddd3 .LASF3387
C:\Users\CYMR90~1\AppData\Local\Temp\ccMBshSz.s:29118  .debug_str:0000000000020d8a .LASF3388
C:\Users\CYMR90~1\AppData\Local\Temp\ccMBshSz.s:29992  .debug_str:0000000000024290 .LASF3389
C:\Users\CYMR90~1\AppData\Local\Temp\ccMBshSz.s:30880  .debug_str:0000000000027cae .LASF3390
C:\Users\CYMR90~1\AppData\Local\Temp\ccMBshSz.s:28012  .debug_str:000000000001c771 .LASF3391
C:\Users\CYMR90~1\AppData\Local\Temp\ccMBshSz.s:30518  .debug_str:00000000000265cd .LASF3392
C:\Users\CYMR90~1\AppData\Local\Temp\ccMBshSz.s:22707  .debug_str:00000000000072e6 .LASF3393
C:\Users\CYMR90~1\AppData\Local\Temp\ccMBshSz.s:27734  .debug_str:000000000001b68d .LASF3394
C:\Users\CYMR90~1\AppData\Local\Temp\ccMBshSz.s:21475  .debug_str:0000000000002446 .LASF3395
C:\Users\CYMR90~1\AppData\Local\Temp\ccMBshSz.s:30266  .debug_str:000000000002554e .LASF3396
C:\Users\CYMR90~1\AppData\Local\Temp\ccMBshSz.s:23941  .debug_str:000000000000c3c0 .LASF3397
C:\Users\CYMR90~1\AppData\Local\Temp\ccMBshSz.s:26457  .debug_str:0000000000016225 .LASF3398
C:\Users\CYMR90~1\AppData\Local\Temp\ccMBshSz.s:30716  .debug_str:00000000000271dd .LASF3399
C:\Users\CYMR90~1\AppData\Local\Temp\ccMBshSz.s:23599  .debug_str:000000000000acb4 .LASF3400
C:\Users\CYMR90~1\AppData\Local\Temp\ccMBshSz.s:24431  .debug_str:000000000000e24a .LASF3401
C:\Users\CYMR90~1\AppData\Local\Temp\ccMBshSz.s:22085  .debug_str:0000000000004c58 .LASF3402
C:\Users\CYMR90~1\AppData\Local\Temp\ccMBshSz.s:21063  .debug_str:0000000000000b7b .LASF3403
C:\Users\CYMR90~1\AppData\Local\Temp\ccMBshSz.s:29408  .debug_str:0000000000021f1e .LASF3404
C:\Users\CYMR90~1\AppData\Local\Temp\ccMBshSz.s:23617  .debug_str:000000000000adc4 .LASF3405
C:\Users\CYMR90~1\AppData\Local\Temp\ccMBshSz.s:21781  .debug_str:00000000000037cb .LASF3406
C:\Users\CYMR90~1\AppData\Local\Temp\ccMBshSz.s:21231  .debug_str:0000000000001577 .LASF3407
C:\Users\CYMR90~1\AppData\Local\Temp\ccMBshSz.s:27674  .debug_str:000000000001b2fc .LASF3408
C:\Users\CYMR90~1\AppData\Local\Temp\ccMBshSz.s:26479  .debug_str:0000000000016372 .LASF3409
C:\Users\CYMR90~1\AppData\Local\Temp\ccMBshSz.s:25637  .debug_str:0000000000012e97 .LASF3410
C:\Users\CYMR90~1\AppData\Local\Temp\ccMBshSz.s:27346  .debug_str:0000000000019d29 .LASF3411
C:\Users\CYMR90~1\AppData\Local\Temp\ccMBshSz.s:31642  .debug_str:000000000002ad48 .LASF3412
C:\Users\CYMR90~1\AppData\Local\Temp\ccMBshSz.s:26541  .debug_str:000000000001678c .LASF3413
C:\Users\CYMR90~1\AppData\Local\Temp\ccMBshSz.s:25557  .debug_str:000000000001297d .LASF3414
C:\Users\CYMR90~1\AppData\Local\Temp\ccMBshSz.s:27636  .debug_str:000000000001b086 .LASF3415
C:\Users\CYMR90~1\AppData\Local\Temp\ccMBshSz.s:30546  .debug_str:0000000000026792 .LASF3416
C:\Users\CYMR90~1\AppData\Local\Temp\ccMBshSz.s:22917  .debug_str:0000000000008186 .LASF3417
C:\Users\CYMR90~1\AppData\Local\Temp\ccMBshSz.s:21599  .debug_str:0000000000002c52 .LASF3418
C:\Users\CYMR90~1\AppData\Local\Temp\ccMBshSz.s:29330  .debug_str:0000000000021a36 .LASF3419
C:\Users\CYMR90~1\AppData\Local\Temp\ccMBshSz.s:28662  .debug_str:000000000001f1a9 .LASF3420
C:\Users\CYMR90~1\AppData\Local\Temp\ccMBshSz.s:28954  .debug_str:000000000002031a .LASF3421
C:\Users\CYMR90~1\AppData\Local\Temp\ccMBshSz.s:29490  .debug_str:00000000000223b4 .LASF3422
C:\Users\CYMR90~1\AppData\Local\Temp\ccMBshSz.s:26990  .debug_str:000000000001855c .LASF3423
C:\Users\CYMR90~1\AppData\Local\Temp\ccMBshSz.s:22633  .debug_str:0000000000006ddc .LASF3424
C:\Users\CYMR90~1\AppData\Local\Temp\ccMBshSz.s:31802  .debug_str:000000000002b779 .LASF3425
C:\Users\CYMR90~1\AppData\Local\Temp\ccMBshSz.s:31630  .debug_str:000000000002ac87 .LASF3426
C:\Users\CYMR90~1\AppData\Local\Temp\ccMBshSz.s:28346  .debug_str:000000000001dea0 .LASF3427
C:\Users\CYMR90~1\AppData\Local\Temp\ccMBshSz.s:21045  .debug_str:00000000000009f9 .LASF3428
C:\Users\CYMR90~1\AppData\Local\Temp\ccMBshSz.s:30644  .debug_str:0000000000026d5c .LASF3429
C:\Users\CYMR90~1\AppData\Local\Temp\ccMBshSz.s:24849  .debug_str:000000000000fbfe .LASF3430
C:\Users\CYMR90~1\AppData\Local\Temp\ccMBshSz.s:32108  .debug_str:000000000002cb27 .LASF3431
C:\Users\CYMR90~1\AppData\Local\Temp\ccMBshSz.s:27160  .debug_str:0000000000019112 .LASF3432
C:\Users\CYMR90~1\AppData\Local\Temp\ccMBshSz.s:31740  .debug_str:000000000002b304 .LASF3433
C:\Users\CYMR90~1\AppData\Local\Temp\ccMBshSz.s:27204  .debug_str:0000000000019396 .LASF3434
C:\Users\CYMR90~1\AppData\Local\Temp\ccMBshSz.s:29476  .debug_str:0000000000022308 .LASF3435
C:\Users\CYMR90~1\AppData\Local\Temp\ccMBshSz.s:25905  .debug_str:0000000000013f42 .LASF3436
C:\Users\CYMR90~1\AppData\Local\Temp\ccMBshSz.s:24039  .debug_str:000000000000ca5e .LASF3437
C:\Users\CYMR90~1\AppData\Local\Temp\ccMBshSz.s:21665  .debug_str:0000000000003042 .LASF3438
C:\Users\CYMR90~1\AppData\Local\Temp\ccMBshSz.s:27520  .debug_str:000000000001a910 .LASF3439
C:\Users\CYMR90~1\AppData\Local\Temp\ccMBshSz.s:28742  .debug_str:000000000001f648 .LASF3440
C:\Users\CYMR90~1\AppData\Local\Temp\ccMBshSz.s:31436  .debug_str:000000000002a0ce .LASF3441
C:\Users\CYMR90~1\AppData\Local\Temp\ccMBshSz.s:30630  .debug_str:0000000000026cbe .LASF3442
C:\Users\CYMR90~1\AppData\Local\Temp\ccMBshSz.s:29538  .debug_str:0000000000022671 .LASF3443
C:\Users\CYMR90~1\AppData\Local\Temp\ccMBshSz.s:30206  .debug_str:0000000000025094 .LASF3444
C:\Users\CYMR90~1\AppData\Local\Temp\ccMBshSz.s:28344  .debug_str:000000000001de84 .LASF3445
C:\Users\CYMR90~1\AppData\Local\Temp\ccMBshSz.s:28400  .debug_str:000000000001e1ea .LASF3446
C:\Users\CYMR90~1\AppData\Local\Temp\ccMBshSz.s:27426  .debug_str:000000000001a1a1 .LASF3447
C:\Users\CYMR90~1\AppData\Local\Temp\ccMBshSz.s:20943  .debug_str:0000000000000435 .LASF3448
C:\Users\CYMR90~1\AppData\Local\Temp\ccMBshSz.s:26778  .debug_str:0000000000017878 .LASF3449
C:\Users\CYMR90~1\AppData\Local\Temp\ccMBshSz.s:30400  .debug_str:0000000000025e83 .LASF3450
C:\Users\CYMR90~1\AppData\Local\Temp\ccMBshSz.s:22201  .debug_str:0000000000005353 .LASF3451
C:\Users\CYMR90~1\AppData\Local\Temp\ccMBshSz.s:21281  .debug_str:0000000000001951 .LASF3452
C:\Users\CYMR90~1\AppData\Local\Temp\ccMBshSz.s:26335  .debug_str:00000000000159f2 .LASF3453
C:\Users\CYMR90~1\AppData\Local\Temp\ccMBshSz.s:24759  .debug_str:000000000000f603 .LASF3454
C:\Users\CYMR90~1\AppData\Local\Temp\ccMBshSz.s:23291  .debug_str:00000000000098b6 .LASF3455
C:\Users\CYMR90~1\AppData\Local\Temp\ccMBshSz.s:28416  .debug_str:000000000001e2d5 .LASF3456
C:\Users\CYMR90~1\AppData\Local\Temp\ccMBshSz.s:21373  .debug_str:0000000000001ee2 .LASF3457
C:\Users\CYMR90~1\AppData\Local\Temp\ccMBshSz.s:28722  .debug_str:000000000001f556 .LASF3458
C:\Users\CYMR90~1\AppData\Local\Temp\ccMBshSz.s:23265  .debug_str:000000000000973f .LASF3459
C:\Users\CYMR90~1\AppData\Local\Temp\ccMBshSz.s:26900  .debug_str:0000000000017fea .LASF3460
C:\Users\CYMR90~1\AppData\Local\Temp\ccMBshSz.s:30506  .debug_str:0000000000026515 .LASF3461
C:\Users\CYMR90~1\AppData\Local\Temp\ccMBshSz.s:24391  .debug_str:000000000000dfda .LASF3462
C:\Users\CYMR90~1\AppData\Local\Temp\ccMBshSz.s:28474  .debug_str:000000000001e687 .LASF3463
C:\Users\CYMR90~1\AppData\Local\Temp\ccMBshSz.s:32002  .debug_str:000000000002c3ee .LASF3464
C:\Users\CYMR90~1\AppData\Local\Temp\ccMBshSz.s:24707  .debug_str:000000000000f30f .LASF3465
C:\Users\CYMR90~1\AppData\Local\Temp\ccMBshSz.s:24139  .debug_str:000000000000d03c .LASF3466
C:\Users\CYMR90~1\AppData\Local\Temp\ccMBshSz.s:22069  .debug_str:0000000000004b4a .LASF3467
C:\Users\CYMR90~1\AppData\Local\Temp\ccMBshSz.s:28658  .debug_str:000000000001f175 .LASF3468
C:\Users\CYMR90~1\AppData\Local\Temp\ccMBshSz.s:24401  .debug_str:000000000000e07a .LASF3469
C:\Users\CYMR90~1\AppData\Local\Temp\ccMBshSz.s:31756  .debug_str:000000000002b445 .LASF3470
C:\Users\CYMR90~1\AppData\Local\Temp\ccMBshSz.s:29320  .debug_str:00000000000219ba .LASF3471
C:\Users\CYMR90~1\AppData\Local\Temp\ccMBshSz.s:26674  .debug_str:0000000000017207 .LASF3472
C:\Users\CYMR90~1\AppData\Local\Temp\ccMBshSz.s:28214  .debug_str:000000000001d5ff .LASF3473
C:\Users\CYMR90~1\AppData\Local\Temp\ccMBshSz.s:26724  .debug_str:0000000000017500 .LASF3474
C:\Users\CYMR90~1\AppData\Local\Temp\ccMBshSz.s:30226  .debug_str:000000000002523d .LASF3475
C:\Users\CYMR90~1\AppData\Local\Temp\ccMBshSz.s:28364  .debug_str:000000000001dfd8 .LASF3476
C:\Users\CYMR90~1\AppData\Local\Temp\ccMBshSz.s:29292  .debug_str:0000000000021820 .LASF3477
C:\Users\CYMR90~1\AppData\Local\Temp\ccMBshSz.s:24959  .debug_str:00000000000102cf .LASF3478
C:\Users\CYMR90~1\AppData\Local\Temp\ccMBshSz.s:26103  .debug_str:0000000000014bbd .LASF3479
C:\Users\CYMR90~1\AppData\Local\Temp\ccMBshSz.s:32128  .debug_str:000000000002cca7 .LASF3480
C:\Users\CYMR90~1\AppData\Local\Temp\ccMBshSz.s:29224  .debug_str:000000000002140e .LASF3481
C:\Users\CYMR90~1\AppData\Local\Temp\ccMBshSz.s:26950  .debug_str:00000000000182e4 .LASF3482
C:\Users\CYMR90~1\AppData\Local\Temp\ccMBshSz.s:23295  .debug_str:00000000000098e8 .LASF3483
C:\Users\CYMR90~1\AppData\Local\Temp\ccMBshSz.s:30502  .debug_str:00000000000264df .LASF3484
C:\Users\CYMR90~1\AppData\Local\Temp\ccMBshSz.s:31572  .debug_str:000000000002a92e .LASF3485
C:\Users\CYMR90~1\AppData\Local\Temp\ccMBshSz.s:23833  .debug_str:000000000000bc5f .LASF3486
C:\Users\CYMR90~1\AppData\Local\Temp\ccMBshSz.s:30986  .debug_str:0000000000028497 .LASF3487
C:\Users\CYMR90~1\AppData\Local\Temp\ccMBshSz.s:27860  .debug_str:000000000001be05 .LASF3488
C:\Users\CYMR90~1\AppData\Local\Temp\ccMBshSz.s:31448  .debug_str:000000000002a172 .LASF3489
C:\Users\CYMR90~1\AppData\Local\Temp\ccMBshSz.s:21447  .debug_str:00000000000022d1 .LASF3490
C:\Users\CYMR90~1\AppData\Local\Temp\ccMBshSz.s:30558  .debug_str:000000000002686d .LASF3491
C:\Users\CYMR90~1\AppData\Local\Temp\ccMBshSz.s:27298  .debug_str:0000000000019a30 .LASF3492
C:\Users\CYMR90~1\AppData\Local\Temp\ccMBshSz.s:27222  .debug_str:00000000000194ca .LASF3493
C:\Users\CYMR90~1\AppData\Local\Temp\ccMBshSz.s:27640  .debug_str:000000000001b0c6 .LASF3494
C:\Users\CYMR90~1\AppData\Local\Temp\ccMBshSz.s:21455  .debug_str:000000000000233b .LASF3495
C:\Users\CYMR90~1\AppData\Local\Temp\ccMBshSz.s:30904  .debug_str:0000000000027e88 .LASF3496
C:\Users\CYMR90~1\AppData\Local\Temp\ccMBshSz.s:28304  .debug_str:000000000001dbc6 .LASF3497
C:\Users\CYMR90~1\AppData\Local\Temp\ccMBshSz.s:30246  .debug_str:0000000000025429 .LASF3498
C:\Users\CYMR90~1\AppData\Local\Temp\ccMBshSz.s:29540  .debug_str:000000000002268d .LASF3499
C:\Users\CYMR90~1\AppData\Local\Temp\ccMBshSz.s:29078  .debug_str:0000000000020af9 .LASF3500
C:\Users\CYMR90~1\AppData\Local\Temp\ccMBshSz.s:31956  .debug_str:000000000002c169 .LASF3501
C:\Users\CYMR90~1\AppData\Local\Temp\ccMBshSz.s:31698  .debug_str:000000000002b0bc .LASF3502
C:\Users\CYMR90~1\AppData\Local\Temp\ccMBshSz.s:21003  .debug_str:000000000000077f .LASF3503
C:\Users\CYMR90~1\AppData\Local\Temp\ccMBshSz.s:24623  .debug_str:000000000000edea .LASF3504
C:\Users\CYMR90~1\AppData\Local\Temp\ccMBshSz.s:26013  .debug_str:0000000000014648 .LASF3505
C:\Users\CYMR90~1\AppData\Local\Temp\ccMBshSz.s:29854  .debug_str:00000000000239a9 .LASF3506
C:\Users\CYMR90~1\AppData\Local\Temp\ccMBshSz.s:27474  .debug_str:000000000001a5d2 .LASF3507
C:\Users\CYMR90~1\AppData\Local\Temp\ccMBshSz.s:26622  .debug_str:0000000000016f08 .LASF3508
C:\Users\CYMR90~1\AppData\Local\Temp\ccMBshSz.s:27066  .debug_str:00000000000189d9 .LASF3509
C:\Users\CYMR90~1\AppData\Local\Temp\ccMBshSz.s:31518  .debug_str:000000000002a5a6 .LASF3510
C:\Users\CYMR90~1\AppData\Local\Temp\ccMBshSz.s:24181  .debug_str:000000000000d32d .LASF3511
C:\Users\CYMR90~1\AppData\Local\Temp\ccMBshSz.s:26670  .debug_str:00000000000171d8 .LASF3512
C:\Users\CYMR90~1\AppData\Local\Temp\ccMBshSz.s:25989  .debug_str:0000000000014485 .LASF3513
C:\Users\CYMR90~1\AppData\Local\Temp\ccMBshSz.s:26077  .debug_str:0000000000014a35 .LASF3514
C:\Users\CYMR90~1\AppData\Local\Temp\ccMBshSz.s:28442  .debug_str:000000000001e45f .LASF3515
C:\Users\CYMR90~1\AppData\Local\Temp\ccMBshSz.s:31322  .debug_str:0000000000029a4a .LASF3516
C:\Users\CYMR90~1\AppData\Local\Temp\ccMBshSz.s:21593  .debug_str:0000000000002c0c .LASF3517
C:\Users\CYMR90~1\AppData\Local\Temp\ccMBshSz.s:28640  .debug_str:000000000001f01d .LASF3518
C:\Users\CYMR90~1\AppData\Local\Temp\ccMBshSz.s:23423  .debug_str:000000000000a10e .LASF3519
C:\Users\CYMR90~1\AppData\Local\Temp\ccMBshSz.s:21719  .debug_str:00000000000033fa .LASF3520
C:\Users\CYMR90~1\AppData\Local\Temp\ccMBshSz.s:23659  .debug_str:000000000000b133 .LASF3521
C:\Users\CYMR90~1\AppData\Local\Temp\ccMBshSz.s:22597  .debug_str:0000000000006b5e .LASF3522
C:\Users\CYMR90~1\AppData\Local\Temp\ccMBshSz.s:30166  .debug_str:0000000000024e2d .LASF3523
C:\Users\CYMR90~1\AppData\Local\Temp\ccMBshSz.s:24269  .debug_str:000000000000d8bd .LASF3524
C:\Users\CYMR90~1\AppData\Local\Temp\ccMBshSz.s:27396  .debug_str:000000000001a000 .LASF3525
C:\Users\CYMR90~1\AppData\Local\Temp\ccMBshSz.s:22551  .debug_str:000000000000689e .LASF3526
C:\Users\CYMR90~1\AppData\Local\Temp\ccMBshSz.s:24497  .debug_str:000000000000e664 .LASF3527
C:\Users\CYMR90~1\AppData\Local\Temp\ccMBshSz.s:24341  .debug_str:000000000000dccb .LASF3528
C:\Users\CYMR90~1\AppData\Local\Temp\ccMBshSz.s:22985  .debug_str:0000000000008616 .LASF3529
C:\Users\CYMR90~1\AppData\Local\Temp\ccMBshSz.s:23179  .debug_str:00000000000091dd .LASF3530
C:\Users\CYMR90~1\AppData\Local\Temp\ccMBshSz.s:23759  .debug_str:000000000000b77b .LASF3531
C:\Users\CYMR90~1\AppData\Local\Temp\ccMBshSz.s:21743  .debug_str:000000000000357f .LASF3532
C:\Users\CYMR90~1\AppData\Local\Temp\ccMBshSz.s:26179  .debug_str:00000000000150e5 .LASF3533
C:\Users\CYMR90~1\AppData\Local\Temp\ccMBshSz.s:20925  .debug_str:000000000000030c .LASF3534
C:\Users\CYMR90~1\AppData\Local\Temp\ccMBshSz.s:26666  .debug_str:00000000000171aa .LASF3535
C:\Users\CYMR90~1\AppData\Local\Temp\ccMBshSz.s:23903  .debug_str:000000000000c16e .LASF3536
C:\Users\CYMR90~1\AppData\Local\Temp\ccMBshSz.s:29790  .debug_str:0000000000023589 .LASF3537
C:\Users\CYMR90~1\AppData\Local\Temp\ccMBshSz.s:31874  .debug_str:000000000002bbfd .LASF3538
C:\Users\CYMR90~1\AppData\Local\Temp\ccMBshSz.s:25451  .debug_str:000000000001227a .LASF3539
C:\Users\CYMR90~1\AppData\Local\Temp\ccMBshSz.s:25307  .debug_str:000000000001197a .LASF3540
C:\Users\CYMR90~1\AppData\Local\Temp\ccMBshSz.s:27654  .debug_str:000000000001b1ce .LASF3541
C:\Users\CYMR90~1\AppData\Local\Temp\ccMBshSz.s:29802  .debug_str:0000000000023678 .LASF3542
C:\Users\CYMR90~1\AppData\Local\Temp\ccMBshSz.s:31252  .debug_str:00000000000295a7 .LASF3543
C:\Users\CYMR90~1\AppData\Local\Temp\ccMBshSz.s:27314  .debug_str:0000000000019b20 .LASF3544
C:\Users\CYMR90~1\AppData\Local\Temp\ccMBshSz.s:28624  .debug_str:000000000001ef11 .LASF3545
C:\Users\CYMR90~1\AppData\Local\Temp\ccMBshSz.s:31088  .debug_str:0000000000028b70 .LASF3546
C:\Users\CYMR90~1\AppData\Local\Temp\ccMBshSz.s:30586  .debug_str:0000000000026a1d .LASF3547
C:\Users\CYMR90~1\AppData\Local\Temp\ccMBshSz.s:21103  .debug_str:0000000000000dd5 .LASF3548
C:\Users\CYMR90~1\AppData\Local\Temp\ccMBshSz.s:24567  .debug_str:000000000000eaf8 .LASF3549
C:\Users\CYMR90~1\AppData\Local\Temp\ccMBshSz.s:31952  .debug_str:000000000002c138 .LASF3550
C:\Users\CYMR90~1\AppData\Local\Temp\ccMBshSz.s:30730  .debug_str:00000000000272a2 .LASF3551
C:\Users\CYMR90~1\AppData\Local\Temp\ccMBshSz.s:27882  .debug_str:000000000001bf63 .LASF3552
C:\Users\CYMR90~1\AppData\Local\Temp\ccMBshSz.s:21253  .debug_str:00000000000016d7 .LASF3553
C:\Users\CYMR90~1\AppData\Local\Temp\ccMBshSz.s:32216  .debug_str:000000000002d240 .LASF3554
C:\Users\CYMR90~1\AppData\Local\Temp\ccMBshSz.s:24101  .debug_str:000000000000cdff .LASF3555
C:\Users\CYMR90~1\AppData\Local\Temp\ccMBshSz.s:22447  .debug_str:0000000000006241 .LASF3556
C:\Users\CYMR90~1\AppData\Local\Temp\ccMBshSz.s:29176  .debug_str:00000000000210b1 .LASF3557
C:\Users\CYMR90~1\AppData\Local\Temp\ccMBshSz.s:29448  .debug_str:0000000000022164 .LASF3558
C:\Users\CYMR90~1\AppData\Local\Temp\ccMBshSz.s:23273  .debug_str:00000000000097b4 .LASF3559
C:\Users\CYMR90~1\AppData\Local\Temp\ccMBshSz.s:29850  .debug_str:000000000002397b .LASF3560
C:\Users\CYMR90~1\AppData\Local\Temp\ccMBshSz.s:22715  .debug_str:0000000000007379 .LASF3561
C:\Users\CYMR90~1\AppData\Local\Temp\ccMBshSz.s:23611  .debug_str:000000000000ad70 .LASF3562
C:\Users\CYMR90~1\AppData\Local\Temp\ccMBshSz.s:24389  .debug_str:000000000000dfc1 .LASF3563
C:\Users\CYMR90~1\AppData\Local\Temp\ccMBshSz.s:28564  .debug_str:000000000001ebbe .LASF3564
C:\Users\CYMR90~1\AppData\Local\Temp\ccMBshSz.s:22033  .debug_str:0000000000004895 .LASF3565
C:\Users\CYMR90~1\AppData\Local\Temp\ccMBshSz.s:21327  .debug_str:0000000000001c12 .LASF3566
C:\Users\CYMR90~1\AppData\Local\Temp\ccMBshSz.s:23359  .debug_str:0000000000009d30 .LASF3567
C:\Users\CYMR90~1\AppData\Local\Temp\ccMBshSz.s:29702  .debug_str:0000000000023086 .LASF3568
C:\Users\CYMR90~1\AppData\Local\Temp\ccMBshSz.s:25339  .debug_str:0000000000011b8a .LASF3569
C:\Users\CYMR90~1\AppData\Local\Temp\ccMBshSz.s:25885  .debug_str:0000000000013e24 .LASF3570
C:\Users\CYMR90~1\AppData\Local\Temp\ccMBshSz.s:23237  .debug_str:0000000000009537 .LASF3571
C:\Users\CYMR90~1\AppData\Local\Temp\ccMBshSz.s:27556  .debug_str:000000000001ab53 .LASF3572
C:\Users\CYMR90~1\AppData\Local\Temp\ccMBshSz.s:30352  .debug_str:0000000000025bc4 .LASF3573
C:\Users\CYMR90~1\AppData\Local\Temp\ccMBshSz.s:29026  .debug_str:00000000000207fc .LASF3574
C:\Users\CYMR90~1\AppData\Local\Temp\ccMBshSz.s:26822  .debug_str:0000000000017b55 .LASF3575
C:\Users\CYMR90~1\AppData\Local\Temp\ccMBshSz.s:31026  .debug_str:0000000000028737 .LASF3576
C:\Users\CYMR90~1\AppData\Local\Temp\ccMBshSz.s:24399  .debug_str:000000000000e05b .LASF3577
C:\Users\CYMR90~1\AppData\Local\Temp\ccMBshSz.s:22897  .debug_str:0000000000007fa6 .LASF3578
C:\Users\CYMR90~1\AppData\Local\Temp\ccMBshSz.s:32010  .debug_str:000000000002c4a0 .LASF3579
C:\Users\CYMR90~1\AppData\Local\Temp\ccMBshSz.s:28490  .debug_str:000000000001e72e .LASF3580
C:\Users\CYMR90~1\AppData\Local\Temp\ccMBshSz.s:22317  .debug_str:0000000000005a46 .LASF3581
C:\Users\CYMR90~1\AppData\Local\Temp\ccMBshSz.s:27372  .debug_str:0000000000019e92 .LASF3582
C:\Users\CYMR90~1\AppData\Local\Temp\ccMBshSz.s:29990  .debug_str:0000000000024253 .LASF3583
C:\Users\CYMR90~1\AppData\Local\Temp\ccMBshSz.s:29226  .debug_str:0000000000021425 .LASF3584
C:\Users\CYMR90~1\AppData\Local\Temp\ccMBshSz.s:23787  .debug_str:000000000000b95e .LASF3585
C:\Users\CYMR90~1\AppData\Local\Temp\ccMBshSz.s:27418  .debug_str:000000000001a131 .LASF3586
C:\Users\CYMR90~1\AppData\Local\Temp\ccMBshSz.s:20891  .debug_str:00000000000000dc .LASF3587
C:\Users\CYMR90~1\AppData\Local\Temp\ccMBshSz.s:25301  .debug_str:0000000000011885 .LASF3588
C:\Users\CYMR90~1\AppData\Local\Temp\ccMBshSz.s:29270  .debug_str:00000000000216a6 .LASF3589
C:\Users\CYMR90~1\AppData\Local\Temp\ccMBshSz.s:29536  .debug_str:000000000002264c .LASF3590
C:\Users\CYMR90~1\AppData\Local\Temp\ccMBshSz.s:26411  .debug_str:0000000000015eff .LASF3591
C:\Users\CYMR90~1\AppData\Local\Temp\ccMBshSz.s:31382  .debug_str:0000000000029da3 .LASF3592
C:\Users\CYMR90~1\AppData\Local\Temp\ccMBshSz.s:24009  .debug_str:000000000000c7e4 .LASF3593
C:\Users\CYMR90~1\AppData\Local\Temp\ccMBshSz.s:32194  .debug_str:000000000002d0ce .LASF3594
C:\Users\CYMR90~1\AppData\Local\Temp\ccMBshSz.s:29828  .debug_str:0000000000023821 .LASF3595
C:\Users\CYMR90~1\AppData\Local\Temp\ccMBshSz.s:30262  .debug_str:000000000002551a .LASF3596
C:\Users\CYMR90~1\AppData\Local\Temp\ccMBshSz.s:25341  .debug_str:0000000000011b9f .LASF3597
C:\Users\CYMR90~1\AppData\Local\Temp\ccMBshSz.s:25703  .debug_str:000000000001332d .LASF3598
C:\Users\CYMR90~1\AppData\Local\Temp\ccMBshSz.s:21349  .debug_str:0000000000001d4a .LASF3599
C:\Users\CYMR90~1\AppData\Local\Temp\ccMBshSz.s:22687  .debug_str:0000000000007155 .LASF3600
C:\Users\CYMR90~1\AppData\Local\Temp\ccMBshSz.s:31828  .debug_str:000000000002b8d9 .LASF3601
C:\Users\CYMR90~1\AppData\Local\Temp\ccMBshSz.s:26441  .debug_str:0000000000016138 .LASF3602
C:\Users\CYMR90~1\AppData\Local\Temp\ccMBshSz.s:27234  .debug_str:000000000001957c .LASF3603
C:\Users\CYMR90~1\AppData\Local\Temp\ccMBshSz.s:23901  .debug_str:000000000000c149 .LASF3604
C:\Users\CYMR90~1\AppData\Local\Temp\ccMBshSz.s:25549  .debug_str:00000000000128d6 .LASF3605
C:\Users\CYMR90~1\AppData\Local\Temp\ccMBshSz.s:21121  .debug_str:0000000000000f65 .LASF3606
C:\Users\CYMR90~1\AppData\Local\Temp\ccMBshSz.s:27502  .debug_str:000000000001a7a7 .LASF3607
C:\Users\CYMR90~1\AppData\Local\Temp\ccMBshSz.s:21953  .debug_str:000000000000432d .LASF3608
C:\Users\CYMR90~1\AppData\Local\Temp\ccMBshSz.s:27740  .debug_str:000000000001b6ef .LASF3609
C:\Users\CYMR90~1\AppData\Local\Temp\ccMBshSz.s:22223  .debug_str:000000000000549b .LASF3610
C:\Users\CYMR90~1\AppData\Local\Temp\ccMBshSz.s:23343  .debug_str:0000000000009c1b .LASF3611
C:\Users\CYMR90~1\AppData\Local\Temp\ccMBshSz.s:22491  .debug_str:00000000000064db .LASF3612
C:\Users\CYMR90~1\AppData\Local\Temp\ccMBshSz.s:28262  .debug_str:000000000001d914 .LASF3613
C:\Users\CYMR90~1\AppData\Local\Temp\ccMBshSz.s:30756  .debug_str:0000000000027525 .LASF3614
C:\Users\CYMR90~1\AppData\Local\Temp\ccMBshSz.s:29470  .debug_str:00000000000222af .LASF3615
C:\Users\CYMR90~1\AppData\Local\Temp\ccMBshSz.s:22535  .debug_str:000000000000676c .LASF3616
C:\Users\CYMR90~1\AppData\Local\Temp\ccMBshSz.s:31392  .debug_str:0000000000029e50 .LASF3617
C:\Users\CYMR90~1\AppData\Local\Temp\ccMBshSz.s:28718  .debug_str:000000000001f51c .LASF3618
C:\Users\CYMR90~1\AppData\Local\Temp\ccMBshSz.s:24593  .debug_str:000000000000ec63 .LASF3619
C:\Users\CYMR90~1\AppData\Local\Temp\ccMBshSz.s:23613  .debug_str:000000000000ad89 .LASF3620
C:\Users\CYMR90~1\AppData\Local\Temp\ccMBshSz.s:20985  .debug_str:000000000000064d .LASF3621
C:\Users\CYMR90~1\AppData\Local\Temp\ccMBshSz.s:24833  .debug_str:000000000000fb00 .LASF3622
C:\Users\CYMR90~1\AppData\Local\Temp\ccMBshSz.s:23793  .debug_str:000000000000b9b4 .LASF3623
C:\Users\CYMR90~1\AppData\Local\Temp\ccMBshSz.s:24545  .debug_str:000000000000e980 .LASF3624
C:\Users\CYMR90~1\AppData\Local\Temp\ccMBshSz.s:22721  .debug_str:00000000000073d3 .LASF3625
C:\Users\CYMR90~1\AppData\Local\Temp\ccMBshSz.s:30824  .debug_str:0000000000027910 .LASF3626
C:\Users\CYMR90~1\AppData\Local\Temp\ccMBshSz.s:28186  .debug_str:000000000001d426 .LASF3627
C:\Users\CYMR90~1\AppData\Local\Temp\ccMBshSz.s:25643  .debug_str:0000000000012ef7 .LASF3628
C:\Users\CYMR90~1\AppData\Local\Temp\ccMBshSz.s:27756  .debug_str:000000000001b7e6 .LASF3629
C:\Users\CYMR90~1\AppData\Local\Temp\ccMBshSz.s:31790  .debug_str:000000000002b690 .LASF3630
C:\Users\CYMR90~1\AppData\Local\Temp\ccMBshSz.s:24979  .debug_str:0000000000010408 .LASF3631
C:\Users\CYMR90~1\AppData\Local\Temp\ccMBshSz.s:31052  .debug_str:0000000000028937 .LASF3632
C:\Users\CYMR90~1\AppData\Local\Temp\ccMBshSz.s:23989  .debug_str:000000000000c6af .LASF3633
C:\Users\CYMR90~1\AppData\Local\Temp\ccMBshSz.s:21429  .debug_str:00000000000021d9 .LASF3634
C:\Users\CYMR90~1\AppData\Local\Temp\ccMBshSz.s:24955  .debug_str:0000000000010291 .LASF3635
C:\Users\CYMR90~1\AppData\Local\Temp\ccMBshSz.s:24873  .debug_str:000000000000fd71 .LASF3636
C:\Users\CYMR90~1\AppData\Local\Temp\ccMBshSz.s:25087  .debug_str:0000000000010acb .LASF3637
C:\Users\CYMR90~1\AppData\Local\Temp\ccMBshSz.s:29450  .debug_str:000000000002217c .LASF3638
C:\Users\CYMR90~1\AppData\Local\Temp\ccMBshSz.s:25767  .debug_str:0000000000013714 .LASF3639
C:\Users\CYMR90~1\AppData\Local\Temp\ccMBshSz.s:22887  .debug_str:0000000000007f0a .LASF3640
C:\Users\CYMR90~1\AppData\Local\Temp\ccMBshSz.s:29678  .debug_str:0000000000022f15 .LASF3641
C:\Users\CYMR90~1\AppData\Local\Temp\ccMBshSz.s:31830  .debug_str:000000000002b8fd .LASF3642
C:\Users\CYMR90~1\AppData\Local\Temp\ccMBshSz.s:31366  .debug_str:0000000000029cad .LASF3643
C:\Users\CYMR90~1\AppData\Local\Temp\ccMBshSz.s:27850  .debug_str:000000000001bd3d .LASF3644
C:\Users\CYMR90~1\AppData\Local\Temp\ccMBshSz.s:22691  .debug_str:0000000000007196 .LASF3645
C:\Users\CYMR90~1\AppData\Local\Temp\ccMBshSz.s:22271  .debug_str:00000000000057a7 .LASF3646
C:\Users\CYMR90~1\AppData\Local\Temp\ccMBshSz.s:22775  .debug_str:0000000000007704 .LASF3647
C:\Users\CYMR90~1\AppData\Local\Temp\ccMBshSz.s:21735  .debug_str:0000000000003504 .LASF3648
C:\Users\CYMR90~1\AppData\Local\Temp\ccMBshSz.s:30072  .debug_str:00000000000247c0 .LASF3649
C:\Users\CYMR90~1\AppData\Local\Temp\ccMBshSz.s:24903  .debug_str:000000000000ff5b .LASF3650
C:\Users\CYMR90~1\AppData\Local\Temp\ccMBshSz.s:23081  .debug_str:0000000000008c12 .LASF3651
C:\Users\CYMR90~1\AppData\Local\Temp\ccMBshSz.s:23189  .debug_str:0000000000009290 .LASF3652
C:\Users\CYMR90~1\AppData\Local\Temp\ccMBshSz.s:29340  .debug_str:0000000000021ac8 .LASF3653
C:\Users\CYMR90~1\AppData\Local\Temp\ccMBshSz.s:31302  .debug_str:00000000000298e3 .LASF3654
C:\Users\CYMR90~1\AppData\Local\Temp\ccMBshSz.s:29592  .debug_str:00000000000229c6 .LASF3655
C:\Users\CYMR90~1\AppData\Local\Temp\ccMBshSz.s:31186  .debug_str:0000000000029136 .LASF3656
C:\Users\CYMR90~1\AppData\Local\Temp\ccMBshSz.s:21019  .debug_str:0000000000000874 .LASF3657
C:\Users\CYMR90~1\AppData\Local\Temp\ccMBshSz.s:29626  .debug_str:0000000000022c47 .LASF3658
C:\Users\CYMR90~1\AppData\Local\Temp\ccMBshSz.s:26624  .debug_str:0000000000016f20 .LASF3659
C:\Users\CYMR90~1\AppData\Local\Temp\ccMBshSz.s:23621  .debug_str:000000000000adfd .LASF3660
C:\Users\CYMR90~1\AppData\Local\Temp\ccMBshSz.s:24161  .debug_str:000000000000d1cf .LASF3661
C:\Users\CYMR90~1\AppData\Local\Temp\ccMBshSz.s:22677  .debug_str:00000000000070a6 .LASF3662
C:\Users\CYMR90~1\AppData\Local\Temp\ccMBshSz.s:26239  .debug_str:0000000000015464 .LASF3663
C:\Users\CYMR90~1\AppData\Local\Temp\ccMBshSz.s:24035  .debug_str:000000000000ca2e .LASF3664
C:\Users\CYMR90~1\AppData\Local\Temp\ccMBshSz.s:29698  .debug_str:0000000000023047 .LASF3665
C:\Users\CYMR90~1\AppData\Local\Temp\ccMBshSz.s:27652  .debug_str:000000000001b18b .LASF3666
C:\Users\CYMR90~1\AppData\Local\Temp\ccMBshSz.s:29634  .debug_str:0000000000022cc7 .LASF3667
C:\Users\CYMR90~1\AppData\Local\Temp\ccMBshSz.s:26764  .debug_str:000000000001779c .LASF3668
C:\Users\CYMR90~1\AppData\Local\Temp\ccMBshSz.s:24465  .debug_str:000000000000e438 .LASF3669
C:\Users\CYMR90~1\AppData\Local\Temp\ccMBshSz.s:28688  .debug_str:000000000001f313 .LASF3670
C:\Users\CYMR90~1\AppData\Local\Temp\ccMBshSz.s:24557  .debug_str:000000000000ea23 .LASF3671
C:\Users\CYMR90~1\AppData\Local\Temp\ccMBshSz.s:25935  .debug_str:0000000000014198 .LASF3672
C:\Users\CYMR90~1\AppData\Local\Temp\ccMBshSz.s:26898  .debug_str:0000000000017fc8 .LASF3673
C:\Users\CYMR90~1\AppData\Local\Temp\ccMBshSz.s:30640  .debug_str:0000000000026d29 .LASF3674
C:\Users\CYMR90~1\AppData\Local\Temp\ccMBshSz.s:23469  .debug_str:000000000000a3e0 .LASF3675
C:\Users\CYMR90~1\AppData\Local\Temp\ccMBshSz.s:22191  .debug_str:00000000000052a7 .LASF3676
C:\Users\CYMR90~1\AppData\Local\Temp\ccMBshSz.s:27202  .debug_str:0000000000019374 .LASF3677
C:\Users\CYMR90~1\AppData\Local\Temp\ccMBshSz.s:23719  .debug_str:000000000000b483 .LASF3678
C:\Users\CYMR90~1\AppData\Local\Temp\ccMBshSz.s:24433  .debug_str:000000000000e272 .LASF3679
C:\Users\CYMR90~1\AppData\Local\Temp\ccMBshSz.s:31930  .debug_str:000000000002bf93 .LASF3680
C:\Users\CYMR90~1\AppData\Local\Temp\ccMBshSz.s:31776  .debug_str:000000000002b592 .LASF3681
C:\Users\CYMR90~1\AppData\Local\Temp\ccMBshSz.s:24299  .debug_str:000000000000da68 .LASF3682
C:\Users\CYMR90~1\AppData\Local\Temp\ccMBshSz.s:22279  .debug_str:0000000000005816 .LASF3683
C:\Users\CYMR90~1\AppData\Local\Temp\ccMBshSz.s:31420  .debug_str:0000000000029fe0 .LASF3684
C:\Users\CYMR90~1\AppData\Local\Temp\ccMBshSz.s:29138  .debug_str:0000000000020e99 .LASF3685
C:\Users\CYMR90~1\AppData\Local\Temp\ccMBshSz.s:22283  .debug_str:0000000000005859 .LASF3686
C:\Users\CYMR90~1\AppData\Local\Temp\ccMBshSz.s:26361  .debug_str:0000000000015b79 .LASF3687
C:\Users\CYMR90~1\AppData\Local\Temp\ccMBshSz.s:22373  .debug_str:0000000000005dad .LASF3688
C:\Users\CYMR90~1\AppData\Local\Temp\ccMBshSz.s:25817  .debug_str:0000000000013a0c .LASF3689
C:\Users\CYMR90~1\AppData\Local\Temp\ccMBshSz.s:29332  .debug_str:0000000000021a4e .LASF3690
C:\Users\CYMR90~1\AppData\Local\Temp\ccMBshSz.s:30448  .debug_str:00000000000261b6 .LASF3691
C:\Users\CYMR90~1\AppData\Local\Temp\ccMBshSz.s:22103  .debug_str:0000000000004d67 .LASF3692
C:\Users\CYMR90~1\AppData\Local\Temp\ccMBshSz.s:29918  .debug_str:0000000000023d6f .LASF3693
C:\Users\CYMR90~1\AppData\Local\Temp\ccMBshSz.s:29060  .debug_str:0000000000020a02 .LASF3694
C:\Users\CYMR90~1\AppData\Local\Temp\ccMBshSz.s:31570  .debug_str:000000000002a90a .LASF3695
C:\Users\CYMR90~1\AppData\Local\Temp\ccMBshSz.s:24569  .debug_str:000000000000eb10 .LASF3696
C:\Users\CYMR90~1\AppData\Local\Temp\ccMBshSz.s:22291  .debug_str:00000000000058af .LASF3697
C:\Users\CYMR90~1\AppData\Local\Temp\ccMBshSz.s:23939  .debug_str:000000000000c39c .LASF3698
C:\Users\CYMR90~1\AppData\Local\Temp\ccMBshSz.s:29150  .debug_str:0000000000020f3b .LASF3699
C:\Users\CYMR90~1\AppData\Local\Temp\ccMBshSz.s:27002  .debug_str:00000000000185e9 .LASF3700
C:\Users\CYMR90~1\AppData\Local\Temp\ccMBshSz.s:28104  .debug_str:000000000001cdeb .LASF3701
C:\Users\CYMR90~1\AppData\Local\Temp\ccMBshSz.s:31160  .debug_str:0000000000028fb3 .LASF3702
C:\Users\CYMR90~1\AppData\Local\Temp\ccMBshSz.s:28972  .debug_str:0000000000020457 .LASF3703
C:\Users\CYMR90~1\AppData\Local\Temp\ccMBshSz.s:32102  .debug_str:000000000002cad4 .LASF3704
C:\Users\CYMR90~1\AppData\Local\Temp\ccMBshSz.s:21777  .debug_str:000000000000378e .LASF3705
C:\Users\CYMR90~1\AppData\Local\Temp\ccMBshSz.s:30244  .debug_str:00000000000253ff .LASF3706
C:\Users\CYMR90~1\AppData\Local\Temp\ccMBshSz.s:21141  .debug_str:0000000000001065 .LASF3707
C:\Users\CYMR90~1\AppData\Local\Temp\ccMBshSz.s:28266  .debug_str:000000000001d95b .LASF3708
C:\Users\CYMR90~1\AppData\Local\Temp\ccMBshSz.s:25679  .debug_str:0000000000013137 .LASF3709
C:\Users\CYMR90~1\AppData\Local\Temp\ccMBshSz.s:32188  .debug_str:000000000002d080 .LASF3710
C:\Users\CYMR90~1\AppData\Local\Temp\ccMBshSz.s:21567  .debug_str:0000000000002a5f .LASF3711
C:\Users\CYMR90~1\AppData\Local\Temp\ccMBshSz.s:30698  .debug_str:00000000000270e2 .LASF3712
C:\Users\CYMR90~1\AppData\Local\Temp\ccMBshSz.s:25535  .debug_str:00000000000127d2 .LASF3713
C:\Users\CYMR90~1\AppData\Local\Temp\ccMBshSz.s:28964  .debug_str:000000000002039d .LASF3714
C:\Users\CYMR90~1\AppData\Local\Temp\ccMBshSz.s:29104  .debug_str:0000000000020ca2 .LASF3715
C:\Users\CYMR90~1\AppData\Local\Temp\ccMBshSz.s:21101  .debug_str:0000000000000db3 .LASF3716
C:\Users\CYMR90~1\AppData\Local\Temp\ccMBshSz.s:28330  .debug_str:000000000001dd34 .LASF3717
C:\Users\CYMR90~1\AppData\Local\Temp\ccMBshSz.s:21197  .debug_str:000000000000139e .LASF3718
C:\Users\CYMR90~1\AppData\Local\Temp\ccMBshSz.s:30956  .debug_str:0000000000028214 .LASF3719
C:\Users\CYMR90~1\AppData\Local\Temp\ccMBshSz.s:25439  .debug_str:000000000001218f .LASF3720
C:\Users\CYMR90~1\AppData\Local\Temp\ccMBshSz.s:28462  .debug_str:000000000001e5a8 .LASF3721
C:\Users\CYMR90~1\AppData\Local\Temp\ccMBshSz.s:27370  .debug_str:0000000000019e62 .LASF3722
C:\Users\CYMR90~1\AppData\Local\Temp\ccMBshSz.s:26113  .debug_str:0000000000014c85 .LASF3723
C:\Users\CYMR90~1\AppData\Local\Temp\ccMBshSz.s:24925  .debug_str:00000000000100d0 .LASF3724
C:\Users\CYMR90~1\AppData\Local\Temp\ccMBshSz.s:31818  .debug_str:000000000002b825 .LASF3725
C:\Users\CYMR90~1\AppData\Local\Temp\ccMBshSz.s:30154  .debug_str:0000000000024d3b .LASF3726
C:\Users\CYMR90~1\AppData\Local\Temp\ccMBshSz.s:21313  .debug_str:0000000000001b0a .LASF3727
C:\Users\CYMR90~1\AppData\Local\Temp\ccMBshSz.s:30944  .debug_str:00000000000280f0 .LASF3728
C:\Users\CYMR90~1\AppData\Local\Temp\ccMBshSz.s:31178  .debug_str:000000000002909d .LASF3729
C:\Users\CYMR90~1\AppData\Local\Temp\ccMBshSz.s:20901  .debug_str:0000000000000174 .LASF3730
C:\Users\CYMR90~1\AppData\Local\Temp\ccMBshSz.s:32052  .debug_str:000000000002c78d .LASF3731
C:\Users\CYMR90~1\AppData\Local\Temp\ccMBshSz.s:23569  .debug_str:000000000000aac3 .LASF3732
C:\Users\CYMR90~1\AppData\Local\Temp\ccMBshSz.s:30170  .debug_str:0000000000024e67 .LASF3733
C:\Users\CYMR90~1\AppData\Local\Temp\ccMBshSz.s:23427  .debug_str:000000000000a13b .LASF3734
C:\Users\CYMR90~1\AppData\Local\Temp\ccMBshSz.s:29210  .debug_str:000000000002128c .LASF3735
C:\Users\CYMR90~1\AppData\Local\Temp\ccMBshSz.s:21605  .debug_str:0000000000002ca5 .LASF3736
C:\Users\CYMR90~1\AppData\Local\Temp\ccMBshSz.s:27386  .debug_str:0000000000019f55 .LASF3737
C:\Users\CYMR90~1\AppData\Local\Temp\ccMBshSz.s:24225  .debug_str:000000000000d656 .LASF3738
C:\Users\CYMR90~1\AppData\Local\Temp\ccMBshSz.s:22327  .debug_str:0000000000005af6 .LASF3739
C:\Users\CYMR90~1\AppData\Local\Temp\ccMBshSz.s:30862  .debug_str:0000000000027b51 .LASF3740
C:\Users\CYMR90~1\AppData\Local\Temp\ccMBshSz.s:24701  .debug_str:000000000000f2a1 .LASF3741
C:\Users\CYMR90~1\AppData\Local\Temp\ccMBshSz.s:23897  .debug_str:000000000000c0f2 .LASF3742
C:\Users\CYMR90~1\AppData\Local\Temp\ccMBshSz.s:28940  .debug_str:0000000000020249 .LASF3743
C:\Users\CYMR90~1\AppData\Local\Temp\ccMBshSz.s:21049  .debug_str:0000000000000a44 .LASF3744
C:\Users\CYMR90~1\AppData\Local\Temp\ccMBshSz.s:25337  .debug_str:0000000000011b58 .LASF3745
C:\Users\CYMR90~1\AppData\Local\Temp\ccMBshSz.s:29630  .debug_str:0000000000022c83 .LASF3746
C:\Users\CYMR90~1\AppData\Local\Temp\ccMBshSz.s:22473  .debug_str:00000000000063b3 .LASF3747
C:\Users\CYMR90~1\AppData\Local\Temp\ccMBshSz.s:23829  .debug_str:000000000000bc19 .LASF3748
C:\Users\CYMR90~1\AppData\Local\Temp\ccMBshSz.s:24913  .debug_str:0000000000010004 .LASF3749
C:\Users\CYMR90~1\AppData\Local\Temp\ccMBshSz.s:29186  .debug_str:000000000002111e .LASF3750
C:\Users\CYMR90~1\AppData\Local\Temp\ccMBshSz.s:22113  .debug_str:0000000000004e11 .LASF3751
C:\Users\CYMR90~1\AppData\Local\Temp\ccMBshSz.s:26341  .debug_str:0000000000015a3a .LASF3752
C:\Users\CYMR90~1\AppData\Local\Temp\ccMBshSz.s:30658  .debug_str:0000000000026e39 .LASF3753
C:\Users\CYMR90~1\AppData\Local\Temp\ccMBshSz.s:26211  .debug_str:00000000000152d5 .LASF3754
C:\Users\CYMR90~1\AppData\Local\Temp\ccMBshSz.s:25907  .debug_str:0000000000013f5d .LASF3755
C:\Users\CYMR90~1\AppData\Local\Temp\ccMBshSz.s:32118  .debug_str:000000000002cbd8 .LASF3756
C:\Users\CYMR90~1\AppData\Local\Temp\ccMBshSz.s:24097  .debug_str:000000000000cdb1 .LASF3757
C:\Users\CYMR90~1\AppData\Local\Temp\ccMBshSz.s:29380  .debug_str:0000000000021d5e .LASF3758
C:\Users\CYMR90~1\AppData\Local\Temp\ccMBshSz.s:22323  .debug_str:0000000000005a9e .LASF3759
C:\Users\CYMR90~1\AppData\Local\Temp\ccMBshSz.s:31774  .debug_str:000000000002b560 .LASF3760
C:\Users\CYMR90~1\AppData\Local\Temp\ccMBshSz.s:24695  .debug_str:000000000000f21e .LASF3761
C:\Users\CYMR90~1\AppData\Local\Temp\ccMBshSz.s:28876  .debug_str:000000000001fe82 .LASF3762
C:\Users\CYMR90~1\AppData\Local\Temp\ccMBshSz.s:21823  .debug_str:0000000000003a9f .LASF3763
C:\Users\CYMR90~1\AppData\Local\Temp\ccMBshSz.s:24769  .debug_str:000000000000f731 .LASF3764
C:\Users\CYMR90~1\AppData\Local\Temp\ccMBshSz.s:30438  .debug_str:0000000000026114 .LASF3765
C:\Users\CYMR90~1\AppData\Local\Temp\ccMBshSz.s:23309  .debug_str:0000000000009a06 .LASF3766
C:\Users\CYMR90~1\AppData\Local\Temp\ccMBshSz.s:27610  .debug_str:000000000001ae8d .LASF3767
C:\Users\CYMR90~1\AppData\Local\Temp\ccMBshSz.s:21925  .debug_str:00000000000040f3 .LASF3768
C:\Users\CYMR90~1\AppData\Local\Temp\ccMBshSz.s:29988  .debug_str:0000000000024221 .LASF3769
C:\Users\CYMR90~1\AppData\Local\Temp\ccMBshSz.s:22941  .debug_str:000000000000831f .LASF3770
C:\Users\CYMR90~1\AppData\Local\Temp\ccMBshSz.s:24535  .debug_str:000000000000e8ac .LASF3771
C:\Users\CYMR90~1\AppData\Local\Temp\ccMBshSz.s:31454  .debug_str:000000000002a1c8 .LASF3772
C:\Users\CYMR90~1\AppData\Local\Temp\ccMBshSz.s:22773  .debug_str:00000000000076d2 .LASF3773
C:\Users\CYMR90~1\AppData\Local\Temp\ccMBshSz.s:28748  .debug_str:000000000001f69b .LASF3774
C:\Users\CYMR90~1\AppData\Local\Temp\ccMBshSz.s:21527  .debug_str:00000000000027ce .LASF3775
C:\Users\CYMR90~1\AppData\Local\Temp\ccMBshSz.s:26932  .debug_str:00000000000181b9 .LASF3776
C:\Users\CYMR90~1\AppData\Local\Temp\ccMBshSz.s:30120  .debug_str:0000000000024b01 .LASF3777
C:\Users\CYMR90~1\AppData\Local\Temp\ccMBshSz.s:22951  .debug_str:00000000000083b6 .LASF3778
C:\Users\CYMR90~1\AppData\Local\Temp\ccMBshSz.s:30404  .debug_str:0000000000025ec2 .LASF3779
C:\Users\CYMR90~1\AppData\Local\Temp\ccMBshSz.s:25479  .debug_str:000000000001243f .LASF3780
C:\Users\CYMR90~1\AppData\Local\Temp\ccMBshSz.s:29684  .debug_str:0000000000022f70 .LASF3781
C:\Users\CYMR90~1\AppData\Local\Temp\ccMBshSz.s:22625  .debug_str:0000000000006d35 .LASF3782
C:\Users\CYMR90~1\AppData\Local\Temp\ccMBshSz.s:25525  .debug_str:0000000000012712 .LASF3783
C:\Users\CYMR90~1\AppData\Local\Temp\ccMBshSz.s:28878  .debug_str:000000000001feb4 .LASF3784
C:\Users\CYMR90~1\AppData\Local\Temp\ccMBshSz.s:25445  .debug_str:000000000001221c .LASF3785
C:\Users\CYMR90~1\AppData\Local\Temp\ccMBshSz.s:30440  .debug_str:0000000000026146 .LASF3786
C:\Users\CYMR90~1\AppData\Local\Temp\ccMBshSz.s:21951  .debug_str:0000000000004309 .LASF3787
C:\Users\CYMR90~1\AppData\Local\Temp\ccMBshSz.s:24049  .debug_str:000000000000cb0c .LASF3788
C:\Users\CYMR90~1\AppData\Local\Temp\ccMBshSz.s:24483  .debug_str:000000000000e54d .LASF3789
C:\Users\CYMR90~1\AppData\Local\Temp\ccMBshSz.s:29996  .debug_str:00000000000242ca .LASF3790
C:\Users\CYMR90~1\AppData\Local\Temp\ccMBshSz.s:26357  .debug_str:0000000000015b28 .LASF3791
C:\Users\CYMR90~1\AppData\Local\Temp\ccMBshSz.s:26776  .debug_str:0000000000017856 .LASF3792
C:\Users\CYMR90~1\AppData\Local\Temp\ccMBshSz.s:26197  .debug_str:000000000001520d .LASF3793
C:\Users\CYMR90~1\AppData\Local\Temp\ccMBshSz.s:26121  .debug_str:0000000000014d0e .LASF3794
C:\Users\CYMR90~1\AppData\Local\Temp\ccMBshSz.s:29084  .debug_str:0000000000020b59 .LASF3795
C:\Users\CYMR90~1\AppData\Local\Temp\ccMBshSz.s:26147  .debug_str:0000000000014ee1 .LASF3796
C:\Users\CYMR90~1\AppData\Local\Temp\ccMBshSz.s:30472  .debug_str:0000000000026322 .LASF3797
C:\Users\CYMR90~1\AppData\Local\Temp\ccMBshSz.s:27226  .debug_str:00000000000194f9 .LASF3798
C:\Users\CYMR90~1\AppData\Local\Temp\ccMBshSz.s:25191  .debug_str:00000000000110e7 .LASF3799
C:\Users\CYMR90~1\AppData\Local\Temp\ccMBshSz.s:22863  .debug_str:0000000000007cd2 .LASF3800
C:\Users\CYMR90~1\AppData\Local\Temp\ccMBshSz.s:21209  .debug_str:000000000000146b .LASF3801
C:\Users\CYMR90~1\AppData\Local\Temp\ccMBshSz.s:20893  .debug_str:00000000000000ff .LASF3802
C:\Users\CYMR90~1\AppData\Local\Temp\ccMBshSz.s:25761  .debug_str:00000000000136d3 .LASF3803
C:\Users\CYMR90~1\AppData\Local\Temp\ccMBshSz.s:22249  .debug_str:0000000000005642 .LASF3804
C:\Users\CYMR90~1\AppData\Local\Temp\ccMBshSz.s:23851  .debug_str:000000000000bde3 .LASF3805
C:\Users\CYMR90~1\AppData\Local\Temp\ccMBshSz.s:24375  .debug_str:000000000000defc .LASF3806
C:\Users\CYMR90~1\AppData\Local\Temp\ccMBshSz.s:23435  .debug_str:000000000000a1d5 .LASF3807
C:\Users\CYMR90~1\AppData\Local\Temp\ccMBshSz.s:24867  .debug_str:000000000000fd13 .LASF3808
C:\Users\CYMR90~1\AppData\Local\Temp\ccMBshSz.s:26744  .debug_str:000000000001765a .LASF3809
C:\Users\CYMR90~1\AppData\Local\Temp\ccMBshSz.s:26185  .debug_str:0000000000015133 .LASF3810
C:\Users\CYMR90~1\AppData\Local\Temp\ccMBshSz.s:25563  .debug_str:00000000000129e1 .LASF3811
C:\Users\CYMR90~1\AppData\Local\Temp\ccMBshSz.s:27934  .debug_str:000000000001c2cd .LASF3812
C:\Users\CYMR90~1\AppData\Local\Temp\ccMBshSz.s:24487  .debug_str:000000000000e5cc .LASF3813
C:\Users\CYMR90~1\AppData\Local\Temp\ccMBshSz.s:21087  .debug_str:0000000000000cdd .LASF3814
C:\Users\CYMR90~1\AppData\Local\Temp\ccMBshSz.s:31184  .debug_str:0000000000029112 .LASF3815
C:\Users\CYMR90~1\AppData\Local\Temp\ccMBshSz.s:25625  .debug_str:0000000000012dd4 .LASF3816
C:\Users\CYMR90~1\AppData\Local\Temp\ccMBshSz.s:28278  .debug_str:000000000001da15 .LASF3817
C:\Users\CYMR90~1\AppData\Local\Temp\ccMBshSz.s:21467  .debug_str:00000000000023ea .LASF3818
C:\Users\CYMR90~1\AppData\Local\Temp\ccMBshSz.s:21375  .debug_str:0000000000001efc .LASF3819
C:\Users\CYMR90~1\AppData\Local\Temp\ccMBshSz.s:30238  .debug_str:0000000000025398 .LASF3820
C:\Users\CYMR90~1\AppData\Local\Temp\ccMBshSz.s:30010  .debug_str:00000000000243dd .LASF3821
C:\Users\CYMR90~1\AppData\Local\Temp\ccMBshSz.s:26618  .debug_str:0000000000016ed1 .LASF3822
C:\Users\CYMR90~1\AppData\Local\Temp\ccMBshSz.s:25917  .debug_str:0000000000014044 .LASF3823
C:\Users\CYMR90~1\AppData\Local\Temp\ccMBshSz.s:31172  .debug_str:0000000000029058 .LASF3824
C:\Users\CYMR90~1\AppData\Local\Temp\ccMBshSz.s:27750  .debug_str:000000000001b789 .LASF3825
C:\Users\CYMR90~1\AppData\Local\Temp\ccMBshSz.s:21607  .debug_str:0000000000002cd7 .LASF3826
C:\Users\CYMR90~1\AppData\Local\Temp\ccMBshSz.s:31554  .debug_str:000000000002a80c .LASF3827
C:\Users\CYMR90~1\AppData\Local\Temp\ccMBshSz.s:31862  .debug_str:000000000002bb2c .LASF3828
C:\Users\CYMR90~1\AppData\Local\Temp\ccMBshSz.s:24209  .debug_str:000000000000d552 .LASF3829
C:\Users\CYMR90~1\AppData\Local\Temp\ccMBshSz.s:22111  .debug_str:0000000000004ded .LASF3830
C:\Users\CYMR90~1\AppData\Local\Temp\ccMBshSz.s:32086  .debug_str:000000000002c9a1 .LASF3831
C:\Users\CYMR90~1\AppData\Local\Temp\ccMBshSz.s:25321  .debug_str:0000000000011a41 .LASF3832
C:\Users\CYMR90~1\AppData\Local\Temp\ccMBshSz.s:21899  .debug_str:0000000000003f9c .LASF3833
C:\Users\CYMR90~1\AppData\Local\Temp\ccMBshSz.s:29872  .debug_str:0000000000023ac0 .LASF3834
C:\Users\CYMR90~1\AppData\Local\Temp\ccMBshSz.s:26459  .debug_str:000000000001624b .LASF3835
C:\Users\CYMR90~1\AppData\Local\Temp\ccMBshSz.s:24881  .debug_str:000000000000fe16 .LASF3836
C:\Users\CYMR90~1\AppData\Local\Temp\ccMBshSz.s:31034  .debug_str:00000000000287cb .LASF3837
C:\Users\CYMR90~1\AppData\Local\Temp\ccMBshSz.s:29020  .debug_str:00000000000207b0 .LASF3838
C:\Users\CYMR90~1\AppData\Local\Temp\ccMBshSz.s:22907  .debug_str:0000000000008056 .LASF3839
C:\Users\CYMR90~1\AppData\Local\Temp\ccMBshSz.s:30876  .debug_str:0000000000027c74 .LASF3840
C:\Users\CYMR90~1\AppData\Local\Temp\ccMBshSz.s:27480  .debug_str:000000000001a62a .LASF3841
C:\Users\CYMR90~1\AppData\Local\Temp\ccMBshSz.s:24067  .debug_str:000000000000cc2a .LASF3842
C:\Users\CYMR90~1\AppData\Local\Temp\ccMBshSz.s:32030  .debug_str:000000000002c630 .LASF3843
C:\Users\CYMR90~1\AppData\Local\Temp\ccMBshSz.s:22011  .debug_str:0000000000004702 .LASF3844
C:\Users\CYMR90~1\AppData\Local\Temp\ccMBshSz.s:25195  .debug_str:0000000000011122 .LASF3845
C:\Users\CYMR90~1\AppData\Local\Temp\ccMBshSz.s:28120  .debug_str:000000000001cf8f .LASF3846
C:\Users\CYMR90~1\AppData\Local\Temp\ccMBshSz.s:29730  .debug_str:00000000000231cb .LASF3847
C:\Users\CYMR90~1\AppData\Local\Temp\ccMBshSz.s:31106  .debug_str:0000000000028c91 .LASF3848
C:\Users\CYMR90~1\AppData\Local\Temp\ccMBshSz.s:21611  .debug_str:0000000000002d30 .LASF3849
C:\Users\CYMR90~1\AppData\Local\Temp\ccMBshSz.s:26738  .debug_str:00000000000175f7 .LASF3850
C:\Users\CYMR90~1\AppData\Local\Temp\ccMBshSz.s:26155  .debug_str:0000000000014f61 .LASF3851
C:\Users\CYMR90~1\AppData\Local\Temp\ccMBshSz.s:22765  .debug_str:000000000000765b .LASF3852
C:\Users\CYMR90~1\AppData\Local\Temp\ccMBshSz.s:22883  .debug_str:0000000000007ea7 .LASF3853
C:\Users\CYMR90~1\AppData\Local\Temp\ccMBshSz.s:22879  .debug_str:0000000000007e66 .LASF3854
C:\Users\CYMR90~1\AppData\Local\Temp\ccMBshSz.s:23917  .debug_str:000000000000c236 .LASF3855
C:\Users\CYMR90~1\AppData\Local\Temp\ccMBshSz.s:31892  .debug_str:000000000002bcf7 .LASF3856
C:\Users\CYMR90~1\AppData\Local\Temp\ccMBshSz.s:21519  .debug_str:000000000000272f .LASF3857
C:\Users\CYMR90~1\AppData\Local\Temp\ccMBshSz.s:29896  .debug_str:0000000000023c3d .LASF3858
C:\Users\CYMR90~1\AppData\Local\Temp\ccMBshSz.s:25261  .debug_str:0000000000011552 .LASF3859
C:\Users\CYMR90~1\AppData\Local\Temp\ccMBshSz.s:28282  .debug_str:000000000001da51 .LASF3860
C:\Users\CYMR90~1\AppData\Local\Temp\ccMBshSz.s:24907  .debug_str:000000000000ffa0 .LASF3861
C:\Users\CYMR90~1\AppData\Local\Temp\ccMBshSz.s:21317  .debug_str:0000000000001b5e .LASF3862
C:\Users\CYMR90~1\AppData\Local\Temp\ccMBshSz.s:29434  .debug_str:000000000002207d .LASF3863
C:\Users\CYMR90~1\AppData\Local\Temp\ccMBshSz.s:26021  .debug_str:00000000000146ba .LASF3864
C:\Users\CYMR90~1\AppData\Local\Temp\ccMBshSz.s:24705  .debug_str:000000000000f2eb .LASF3865
C:\Users\CYMR90~1\AppData\Local\Temp\ccMBshSz.s:27310  .debug_str:0000000000019ad6 .LASF3866
C:\Users\CYMR90~1\AppData\Local\Temp\ccMBshSz.s:27190  .debug_str:00000000000192c1 .LASF3867
C:\Users\CYMR90~1\AppData\Local\Temp\ccMBshSz.s:28576  .debug_str:000000000001ec53 .LASF3868
C:\Users\CYMR90~1\AppData\Local\Temp\ccMBshSz.s:30524  .debug_str:000000000002664f .LASF3869
C:\Users\CYMR90~1\AppData\Local\Temp\ccMBshSz.s:28646  .debug_str:000000000001f08e .LASF3870
C:\Users\CYMR90~1\AppData\Local\Temp\ccMBshSz.s:23241  .debug_str:0000000000009578 .LASF3871
C:\Users\CYMR90~1\AppData\Local\Temp\ccMBshSz.s:31674  .debug_str:000000000002af2d .LASF3872
C:\Users\CYMR90~1\AppData\Local\Temp\ccMBshSz.s:28158  .debug_str:000000000001d2b4 .LASF3873
C:\Users\CYMR90~1\AppData\Local\Temp\ccMBshSz.s:29370  .debug_str:0000000000021cc4 .LASF3874
C:\Users\CYMR90~1\AppData\Local\Temp\ccMBshSz.s:21325  .debug_str:0000000000001bee .LASF3875
C:\Users\CYMR90~1\AppData\Local\Temp\ccMBshSz.s:29284  .debug_str:0000000000021777 .LASF3876
C:\Users\CYMR90~1\AppData\Local\Temp\ccMBshSz.s:25869  .debug_str:0000000000013d29 .LASF3877
C:\Users\CYMR90~1\AppData\Local\Temp\ccMBshSz.s:31566  .debug_str:000000000002a8cb .LASF3878
C:\Users\CYMR90~1\AppData\Local\Temp\ccMBshSz.s:29218  .debug_str:000000000002130e .LASF3879
C:\Users\CYMR90~1\AppData\Local\Temp\ccMBshSz.s:25813  .debug_str:00000000000139d1 .LASF3880
C:\Users\CYMR90~1\AppData\Local\Temp\ccMBshSz.s:30540  .debug_str:0000000000026741 .LASF3881
C:\Users\CYMR90~1\AppData\Local\Temp\ccMBshSz.s:30362  .debug_str:0000000000025c57 .LASF3882
C:\Users\CYMR90~1\AppData\Local\Temp\ccMBshSz.s:26956  .debug_str:0000000000018334 .LASF3883
C:\Users\CYMR90~1\AppData\Local\Temp\ccMBshSz.s:32138  .debug_str:000000000002cd1f .LASF3884
C:\Users\CYMR90~1\AppData\Local\Temp\ccMBshSz.s:31522  .debug_str:000000000002a5df .LASF3885
C:\Users\CYMR90~1\AppData\Local\Temp\ccMBshSz.s:21811  .debug_str:00000000000039b2 .LASF3886
C:\Users\CYMR90~1\AppData\Local\Temp\ccMBshSz.s:28300  .debug_str:000000000001db76 .LASF3887
C:\Users\CYMR90~1\AppData\Local\Temp\ccMBshSz.s:22679  .debug_str:00000000000070e7 .LASF3888
C:\Users\CYMR90~1\AppData\Local\Temp\ccMBshSz.s:22819  .debug_str:00000000000079d8 .LASF3889
C:\Users\CYMR90~1\AppData\Local\Temp\ccMBshSz.s:26842  .debug_str:0000000000017c79 .LASF3890
C:\Users\CYMR90~1\AppData\Local\Temp\ccMBshSz.s:30818  .debug_str:00000000000278af .LASF3891
C:\Users\CYMR90~1\AppData\Local\Temp\ccMBshSz.s:23411  .debug_str:000000000000a039 .LASF3892
C:\Users\CYMR90~1\AppData\Local\Temp\ccMBshSz.s:31962  .debug_str:000000000002c1c2 .LASF3893
C:\Users\CYMR90~1\AppData\Local\Temp\ccMBshSz.s:22923  .debug_str:00000000000081f6 .LASF3894
C:\Users\CYMR90~1\AppData\Local\Temp\ccMBshSz.s:25253  .debug_str:00000000000114e7 .LASF3895
C:\Users\CYMR90~1\AppData\Local\Temp\ccMBshSz.s:27806  .debug_str:000000000001ba58 .LASF3896
C:\Users\CYMR90~1\AppData\Local\Temp\ccMBshSz.s:31882  .debug_str:000000000002bc74 .LASF3897
C:\Users\CYMR90~1\AppData\Local\Temp\ccMBshSz.s:25961  .debug_str:00000000000142fd .LASF3898
C:\Users\CYMR90~1\AppData\Local\Temp\ccMBshSz.s:28410  .debug_str:000000000001e27d .LASF3899
C:\Users\CYMR90~1\AppData\Local\Temp\ccMBshSz.s:30748  .debug_str:000000000002749a .LASF3900
C:\Users\CYMR90~1\AppData\Local\Temp\ccMBshSz.s:21757  .debug_str:000000000000365c .LASF3901
C:\Users\CYMR90~1\AppData\Local\Temp\ccMBshSz.s:29116  .debug_str:0000000000020d64 .LASF3902
C:\Users\CYMR90~1\AppData\Local\Temp\ccMBshSz.s:21667  .debug_str:000000000000305d .LASF3903
C:\Users\CYMR90~1\AppData\Local\Temp\ccMBshSz.s:28754  .debug_str:000000000001f6ff .LASF3904
C:\Users\CYMR90~1\AppData\Local\Temp\ccMBshSz.s:31138  .debug_str:0000000000028e21 .LASF3905
C:\Users\CYMR90~1\AppData\Local\Temp\ccMBshSz.s:25581  .debug_str:0000000000012acd .LASF3906
C:\Users\CYMR90~1\AppData\Local\Temp\ccMBshSz.s:24373  .debug_str:000000000000ded6 .LASF3907
C:\Users\CYMR90~1\AppData\Local\Temp\ccMBshSz.s:21413  .debug_str:0000000000002102 .LASF3908
C:\Users\CYMR90~1\AppData\Local\Temp\ccMBshSz.s:22949  .debug_str:0000000000008390 .LASF3909
C:\Users\CYMR90~1\AppData\Local\Temp\ccMBshSz.s:25283  .debug_str:0000000000011782 .LASF3910
C:\Users\CYMR90~1\AppData\Local\Temp\ccMBshSz.s:27218  .debug_str:0000000000019488 .LASF3911
C:\Users\CYMR90~1\AppData\Local\Temp\ccMBshSz.s:25245  .debug_str:0000000000011454 .LASF3912
C:\Users\CYMR90~1\AppData\Local\Temp\ccMBshSz.s:20969  .debug_str:000000000000058f .LASF3913
C:\Users\CYMR90~1\AppData\Local\Temp\ccMBshSz.s:27686  .debug_str:000000000001b3a7 .LASF3914
C:\Users\CYMR90~1\AppData\Local\Temp\ccMBshSz.s:26519  .debug_str:0000000000016626 .LASF3915
C:\Users\CYMR90~1\AppData\Local\Temp\ccMBshSz.s:24307  .debug_str:000000000000dacb .LASF3916
C:\Users\CYMR90~1\AppData\Local\Temp\ccMBshSz.s:28706  .debug_str:000000000001f445 .LASF3917
C:\Users\CYMR90~1\AppData\Local\Temp\ccMBshSz.s:27256  .debug_str:00000000000196a8 .LASF3918
C:\Users\CYMR90~1\AppData\Local\Temp\ccMBshSz.s:23209  .debug_str:00000000000093aa .LASF3919
C:\Users\CYMR90~1\AppData\Local\Temp\ccMBshSz.s:27152  .debug_str:0000000000018fc3 .LASF3920
C:\Users\CYMR90~1\AppData\Local\Temp\ccMBshSz.s:31098  .debug_str:0000000000028c19 .LASF3921
C:\Users\CYMR90~1\AppData\Local\Temp\ccMBshSz.s:26085  .debug_str:0000000000014a90 .LASF3922
C:\Users\CYMR90~1\AppData\Local\Temp\ccMBshSz.s:27644  .debug_str:000000000001b0fb .LASF3923
C:\Users\CYMR90~1\AppData\Local\Temp\ccMBshSz.s:31672  .debug_str:000000000002af07 .LASF3924
C:\Users\CYMR90~1\AppData\Local\Temp\ccMBshSz.s:24253  .debug_str:000000000000d7de .LASF3925
C:\Users\CYMR90~1\AppData\Local\Temp\ccMBshSz.s:23395  .debug_str:0000000000009f23 .LASF3926
C:\Users\CYMR90~1\AppData\Local\Temp\ccMBshSz.s:25715  .debug_str:00000000000133ec .LASF3927
C:\Users\CYMR90~1\AppData\Local\Temp\ccMBshSz.s:29174  .debug_str:000000000002108b .LASF3928
C:\Users\CYMR90~1\AppData\Local\Temp\ccMBshSz.s:30948  .debug_str:0000000000028179 .LASF3929
C:\Users\CYMR90~1\AppData\Local\Temp\ccMBshSz.s:28246  .debug_str:000000000001d814 .LASF3930
C:\Users\CYMR90~1\AppData\Local\Temp\ccMBshSz.s:23627  .debug_str:000000000000ae55 .LASF3931
C:\Users\CYMR90~1\AppData\Local\Temp\ccMBshSz.s:27582  .debug_str:000000000001acdc .LASF3932
C:\Users\CYMR90~1\AppData\Local\Temp\ccMBshSz.s:31598  .debug_str:000000000002aabd .LASF3933
C:\Users\CYMR90~1\AppData\Local\Temp\ccMBshSz.s:26896  .debug_str:0000000000017fa2 .LASF3934
C:\Users\CYMR90~1\AppData\Local\Temp\ccMBshSz.s:28116  .debug_str:000000000001cf4f .LASF3935
C:\Users\CYMR90~1\AppData\Local\Temp\ccMBshSz.s:32088  .debug_str:000000000002c9c5 .LASF3936
C:\Users\CYMR90~1\AppData\Local\Temp\ccMBshSz.s:24657  .debug_str:000000000000efca .LASF3937
C:\Users\CYMR90~1\AppData\Local\Temp\ccMBshSz.s:21705  .debug_str:00000000000032f0 .LASF3938
C:\Users\CYMR90~1\AppData\Local\Temp\ccMBshSz.s:30972  .debug_str:0000000000028319 .LASF3939
C:\Users\CYMR90~1\AppData\Local\Temp\ccMBshSz.s:31542  .debug_str:000000000002a75f .LASF3940
C:\Users\CYMR90~1\AppData\Local\Temp\ccMBshSz.s:22497  .debug_str:000000000000652b .LASF3941
C:\Users\CYMR90~1\AppData\Local\Temp\ccMBshSz.s:31532  .debug_str:000000000002a688 .LASF3942
C:\Users\CYMR90~1\AppData\Local\Temp\ccMBshSz.s:24119  .debug_str:000000000000cf0c .LASF3943
C:\Users\CYMR90~1\AppData\Local\Temp\ccMBshSz.s:28052  .debug_str:000000000001cac0 .LASF3944
C:\Users\CYMR90~1\AppData\Local\Temp\ccMBshSz.s:32026  .debug_str:000000000002c5e3 .LASF3945
C:\Users\CYMR90~1\AppData\Local\Temp\ccMBshSz.s:22925  .debug_str:000000000000821c .LASF3946
C:\Users\CYMR90~1\AppData\Local\Temp\ccMBshSz.s:26075  .debug_str:0000000000014a0f .LASF3947
C:\Users\CYMR90~1\AppData\Local\Temp\ccMBshSz.s:25595  .debug_str:0000000000012bd4 .LASF3948
C:\Users\CYMR90~1\AppData\Local\Temp\ccMBshSz.s:23499  .debug_str:000000000000a5eb .LASF3949
C:\Users\CYMR90~1\AppData\Local\Temp\ccMBshSz.s:27436  .debug_str:000000000001a22e .LASF3950
C:\Users\CYMR90~1\AppData\Local\Temp\ccMBshSz.s:24915  .debug_str:0000000000010036 .LASF3951
C:\Users\CYMR90~1\AppData\Local\Temp\ccMBshSz.s:27822  .debug_str:000000000001bb79 .LASF3952
C:\Users\CYMR90~1\AppData\Local\Temp\ccMBshSz.s:27980  .debug_str:000000000001c53d .LASF3953
C:\Users\CYMR90~1\AppData\Local\Temp\ccMBshSz.s:29286  .debug_str:000000000002179b .LASF3954
C:\Users\CYMR90~1\AppData\Local\Temp\ccMBshSz.s:24517  .debug_str:000000000000e7a6 .LASF3955
C:\Users\CYMR90~1\AppData\Local\Temp\ccMBshSz.s:28434  .debug_str:000000000001e3c0 .LASF3956
C:\Users\CYMR90~1\AppData\Local\Temp\ccMBshSz.s:21061  .debug_str:0000000000000b55 .LASF3957
C:\Users\CYMR90~1\AppData\Local\Temp\ccMBshSz.s:27986  .debug_str:000000000001c59b .LASF3958
C:\Users\CYMR90~1\AppData\Local\Temp\ccMBshSz.s:29558  .debug_str:00000000000227d3 .LASF3959
C:\Users\CYMR90~1\AppData\Local\Temp\ccMBshSz.s:31404  .debug_str:0000000000029ef5 .LASF3960
C:\Users\CYMR90~1\AppData\Local\Temp\ccMBshSz.s:23985  .debug_str:000000000000c66d .LASF3961
C:\Users\CYMR90~1\AppData\Local\Temp\ccMBshSz.s:22503  .debug_str:0000000000006591 .LASF3962
C:\Users\CYMR90~1\AppData\Local\Temp\ccMBshSz.s:31896  .debug_str:000000000002bd33 .LASF3963
C:\Users\CYMR90~1\AppData\Local\Temp\ccMBshSz.s:32168  .debug_str:000000000002cf4b .LASF3964
C:\Users\CYMR90~1\AppData\Local\Temp\ccMBshSz.s:28368  .debug_str:000000000001e001 .LASF3965
C:\Users\CYMR90~1\AppData\Local\Temp\ccMBshSz.s:20999  .debug_str:000000000000074c .LASF3966
C:\Users\CYMR90~1\AppData\Local\Temp\ccMBshSz.s:32076  .debug_str:000000000002c8ee .LASF3967
C:\Users\CYMR90~1\AppData\Local\Temp\ccMBshSz.s:21975  .debug_str:000000000000449a .LASF3968
C:\Users\CYMR90~1\AppData\Local\Temp\ccMBshSz.s:31342  .debug_str:0000000000029b3f .LASF3969
C:\Users\CYMR90~1\AppData\Local\Temp\ccMBshSz.s:27318  .debug_str:0000000000019b52 .LASF3970
C:\Users\CYMR90~1\AppData\Local\Temp\ccMBshSz.s:29642  .debug_str:0000000000022d25 .LASF3971
C:\Users\CYMR90~1\AppData\Local\Temp\ccMBshSz.s:31838  .debug_str:000000000002b97f .LASF3972
C:\Users\CYMR90~1\AppData\Local\Temp\ccMBshSz.s:24395  .debug_str:000000000000e009 .LASF3973
C:\Users\CYMR90~1\AppData\Local\Temp\ccMBshSz.s:22273  .debug_str:00000000000057c9 .LASF3974
C:\Users\CYMR90~1\AppData\Local\Temp\ccMBshSz.s:20929  .debug_str:000000000000034f .LASF3975
C:\Users\CYMR90~1\AppData\Local\Temp\ccMBshSz.s:25459  .debug_str:00000000000122ef .LASF3976
C:\Users\CYMR90~1\AppData\Local\Temp\ccMBshSz.s:21851  .debug_str:0000000000003c3a .LASF3977
C:\Users\CYMR90~1\AppData\Local\Temp\ccMBshSz.s:25949  .debug_str:000000000001424a .LASF3978
C:\Users\CYMR90~1\AppData\Local\Temp\ccMBshSz.s:23857  .debug_str:000000000000be5a .LASF3979
C:\Users\CYMR90~1\AppData\Local\Temp\ccMBshSz.s:21211  .debug_str:000000000000148f .LASF3980
C:\Users\CYMR90~1\AppData\Local\Temp\ccMBshSz.s:24175  .debug_str:000000000000d2c7 .LASF3981
C:\Users\CYMR90~1\AppData\Local\Temp\ccMBshSz.s:28632  .debug_str:000000000001efa2 .LASF3982
C:\Users\CYMR90~1\AppData\Local\Temp\ccMBshSz.s:28818  .debug_str:000000000001fadf .LASF3983
C:\Users\CYMR90~1\AppData\Local\Temp\ccMBshSz.s:32230  .debug_str:000000000002d317 .LASF3984
C:\Users\CYMR90~1\AppData\Local\Temp\ccMBshSz.s:21205  .debug_str:0000000000001433 .LASF3985
C:\Users\CYMR90~1\AppData\Local\Temp\ccMBshSz.s:25389  .debug_str:0000000000011e4e .LASF3986
C:\Users\CYMR90~1\AppData\Local\Temp\ccMBshSz.s:27736  .debug_str:000000000001b6b1 .LASF3987
C:\Users\CYMR90~1\AppData\Local\Temp\ccMBshSz.s:30426  .debug_str:0000000000026018 .LASF3988
C:\Users\CYMR90~1\AppData\Local\Temp\ccMBshSz.s:26123  .debug_str:0000000000014d30 .LASF3989
C:\Users\CYMR90~1\AppData\Local\Temp\ccMBshSz.s:29366  .debug_str:0000000000021c84 .LASF3990
C:\Users\CYMR90~1\AppData\Local\Temp\ccMBshSz.s:21659  .debug_str:0000000000002ff3 .LASF3991
C:\Users\CYMR90~1\AppData\Local\Temp\ccMBshSz.s:22991  .debug_str:0000000000008660 .LASF3992
C:\Users\CYMR90~1\AppData\Local\Temp\ccMBshSz.s:26926  .debug_str:000000000001815c .LASF3993
C:\Users\CYMR90~1\AppData\Local\Temp\ccMBshSz.s:30892  .debug_str:0000000000027d7f .LASF3994
C:\Users\CYMR90~1\AppData\Local\Temp\ccMBshSz.s:23489  .debug_str:000000000000a549 .LASF3995
C:\Users\CYMR90~1\AppData\Local\Temp\ccMBshSz.s:32090  .debug_str:000000000002c9eb .LASF3996
C:\Users\CYMR90~1\AppData\Local\Temp\ccMBshSz.s:31458  .debug_str:000000000002a211 .LASF3997
C:\Users\CYMR90~1\AppData\Local\Temp\ccMBshSz.s:27140  .debug_str:0000000000018f0c .LASF3998
C:\Users\CYMR90~1\AppData\Local\Temp\ccMBshSz.s:21533  .debug_str:0000000000002853 .LASF3999
C:\Users\CYMR90~1\AppData\Local\Temp\ccMBshSz.s:30330  .debug_str:0000000000025a75 .LASF4000
C:\Users\CYMR90~1\AppData\Local\Temp\ccMBshSz.s:22929  .debug_str:0000000000008258 .LASF4001
C:\Users\CYMR90~1\AppData\Local\Temp\ccMBshSz.s:26856  .debug_str:0000000000017d49 .LASF4002
C:\Users\CYMR90~1\AppData\Local\Temp\ccMBshSz.s:31664  .debug_str:000000000002ae6c .LASF4003
C:\Users\CYMR90~1\AppData\Local\Temp\ccMBshSz.s:21873  .debug_str:0000000000003dc1 .LASF4004
C:\Users\CYMR90~1\AppData\Local\Temp\ccMBshSz.s:27358  .debug_str:0000000000019de3 .LASF4005
C:\Users\CYMR90~1\AppData\Local\Temp\ccMBshSz.s:31400  .debug_str:0000000000029eb8 .LASF4006
C:\Users\CYMR90~1\AppData\Local\Temp\ccMBshSz.s:29800  .debug_str:0000000000023652 .LASF4007
C:\Users\CYMR90~1\AppData\Local\Temp\ccMBshSz.s:28850  .debug_str:000000000001fce4 .LASF4008
C:\Users\CYMR90~1\AppData\Local\Temp\ccMBshSz.s:30150  .debug_str:0000000000024d02 .LASF4009
C:\Users\CYMR90~1\AppData\Local\Temp\ccMBshSz.s:25271  .debug_str:0000000000011616 .LASF4010
C:\Users\CYMR90~1\AppData\Local\Temp\ccMBshSz.s:26796  .debug_str:00000000000179d8 .LASF4011
C:\Users\CYMR90~1\AppData\Local\Temp\ccMBshSz.s:23087  .debug_str:0000000000008c84 .LASF4012
C:\Users\CYMR90~1\AppData\Local\Temp\ccMBshSz.s:27528  .debug_str:000000000001a984 .LASF4013
C:\Users\CYMR90~1\AppData\Local\Temp\ccMBshSz.s:27758  .debug_str:000000000001b80a .LASF4014
C:\Users\CYMR90~1\AppData\Local\Temp\ccMBshSz.s:31332  .debug_str:0000000000029ab5 .LASF4015
C:\Users\CYMR90~1\AppData\Local\Temp\ccMBshSz.s:23911  .debug_str:000000000000c1e3 .LASF4016
C:\Users\CYMR90~1\AppData\Local\Temp\ccMBshSz.s:24321  .debug_str:000000000000db72 .LASF4017
C:\Users\CYMR90~1\AppData\Local\Temp\ccMBshSz.s:24781  .debug_str:000000000000f7f4 .LASF4018
C:\Users\CYMR90~1\AppData\Local\Temp\ccMBshSz.s:22795  .debug_str:0000000000007849 .LASF4019
C:\Users\CYMR90~1\AppData\Local\Temp\ccMBshSz.s:26734  .debug_str:00000000000175b9 .LASF4020
C:\Users\CYMR90~1\AppData\Local\Temp\ccMBshSz.s:29780  .debug_str:00000000000234cb .LASF4021
C:\Users\CYMR90~1\AppData\Local\Temp\ccMBshSz.s:23271  .debug_str:000000000000978e .LASF4022
C:\Users\CYMR90~1\AppData\Local\Temp\ccMBshSz.s:32144  .debug_str:000000000002cd77 .LASF4023
C:\Users\CYMR90~1\AppData\Local\Temp\ccMBshSz.s:31272  .debug_str:00000000000296ec .LASF4024
C:\Users\CYMR90~1\AppData\Local\Temp\ccMBshSz.s:28784  .debug_str:000000000001f8ac .LASF4025
C:\Users\CYMR90~1\AppData\Local\Temp\ccMBshSz.s:27840  .debug_str:000000000001bc94 .LASF4026
C:\Users\CYMR90~1\AppData\Local\Temp\ccMBshSz.s:31754  .debug_str:000000000002b41f .LASF4027
C:\Users\CYMR90~1\AppData\Local\Temp\ccMBshSz.s:26187  .debug_str:0000000000015157 .LASF4028
C:\Users\CYMR90~1\AppData\Local\Temp\ccMBshSz.s:26676  .debug_str:0000000000017223 .LASF4029
C:\Users\CYMR90~1\AppData\Local\Temp\ccMBshSz.s:28142  .debug_str:000000000001d189 .LASF4030
C:\Users\CYMR90~1\AppData\Local\Temp\ccMBshSz.s:21109  .debug_str:0000000000000e29 .LASF4031
C:\Users\CYMR90~1\AppData\Local\Temp\ccMBshSz.s:27168  .debug_str:000000000001918c .LASF4032
C:\Users\CYMR90~1\AppData\Local\Temp\ccMBshSz.s:26682  .debug_str:000000000001728f .LASF4033
C:\Users\CYMR90~1\AppData\Local\Temp\ccMBshSz.s:29016  .debug_str:0000000000020773 .LASF4034
C:\Users\CYMR90~1\AppData\Local\Temp\ccMBshSz.s:31380  .debug_str:0000000000029d7d .LASF4035
C:\Users\CYMR90~1\AppData\Local\Temp\ccMBshSz.s:31686  .debug_str:000000000002b00d .LASF4036
C:\Users\CYMR90~1\AppData\Local\Temp\ccMBshSz.s:24699  .debug_str:000000000000f27b .LASF4037
C:\Users\CYMR90~1\AppData\Local\Temp\ccMBshSz.s:32096  .debug_str:000000000002ca64 .LASF4038
C:\Users\CYMR90~1\AppData\Local\Temp\ccMBshSz.s:30560  .debug_str:0000000000026887 .LASF4039
C:\Users\CYMR90~1\AppData\Local\Temp\ccMBshSz.s:24647  .debug_str:000000000000ef49 .LASF4040
C:\Users\CYMR90~1\AppData\Local\Temp\ccMBshSz.s:27098  .debug_str:0000000000018c71 .LASF4041
C:\Users\CYMR90~1\AppData\Local\Temp\ccMBshSz.s:30196  .debug_str:0000000000024fff .LASF4042
C:\Users\CYMR90~1\AppData\Local\Temp\ccMBshSz.s:30024  .debug_str:00000000000244d4 .LASF4043
C:\Users\CYMR90~1\AppData\Local\Temp\ccMBshSz.s:27668  .debug_str:000000000001b29e .LASF4044
C:\Users\CYMR90~1\AppData\Local\Temp\ccMBshSz.s:31612  .debug_str:000000000002ab6b .LASF4045
C:\Users\CYMR90~1\AppData\Local\Temp\ccMBshSz.s:24205  .debug_str:000000000000d50a .LASF4046
C:\Users\CYMR90~1\AppData\Local\Temp\ccMBshSz.s:30562  .debug_str:00000000000268ad .LASF4047
C:\Users\CYMR90~1\AppData\Local\Temp\ccMBshSz.s:26581  .debug_str:0000000000016a50 .LASF4048
C:\Users\CYMR90~1\AppData\Local\Temp\ccMBshSz.s:23091  .debug_str:0000000000008cbe .LASF4049
C:\Users\CYMR90~1\AppData\Local\Temp\ccMBshSz.s:27024  .debug_str:000000000001873d .LASF4050
C:\Users\CYMR90~1\AppData\Local\Temp\ccMBshSz.s:25051  .debug_str:000000000001083b .LASF4051
C:\Users\CYMR90~1\AppData\Local\Temp\ccMBshSz.s:23665  .debug_str:000000000000b192 .LASF4052
C:\Users\CYMR90~1\AppData\Local\Temp\ccMBshSz.s:27060  .debug_str:000000000001897c .LASF4053
C:\Users\CYMR90~1\AppData\Local\Temp\ccMBshSz.s:27278  .debug_str:0000000000019873 .LASF4054
C:\Users\CYMR90~1\AppData\Local\Temp\ccMBshSz.s:31768  .debug_str:000000000002b501 .LASF4055
C:\Users\CYMR90~1\AppData\Local\Temp\ccMBshSz.s:22717  .debug_str:0000000000007392 .LASF4056
C:\Users\CYMR90~1\AppData\Local\Temp\ccMBshSz.s:32042  .debug_str:000000000002c6f3 .LASF4057
C:\Users\CYMR90~1\AppData\Local\Temp\ccMBshSz.s:29066  .debug_str:0000000000020a65 .LASF4058
C:\Users\CYMR90~1\AppData\Local\Temp\ccMBshSz.s:22661  .debug_str:0000000000006faa .LASF4059
C:\Users\CYMR90~1\AppData\Local\Temp\ccMBshSz.s:31008  .debug_str:00000000000285f1 .LASF4060
C:\Users\CYMR90~1\AppData\Local\Temp\ccMBshSz.s:23597  .debug_str:000000000000ac8e .LASF4061
C:\Users\CYMR90~1\AppData\Local\Temp\ccMBshSz.s:22263  .debug_str:00000000000056f1 .LASF4062
C:\Users\CYMR90~1\AppData\Local\Temp\ccMBshSz.s:23031  .debug_str:00000000000088d2 .LASF4063
C:\Users\CYMR90~1\AppData\Local\Temp\ccMBshSz.s:24075  .debug_str:000000000000cca4 .LASF4064
C:\Users\CYMR90~1\AppData\Local\Temp\ccMBshSz.s:27998  .debug_str:000000000001c67c .LASF4065
C:\Users\CYMR90~1\AppData\Local\Temp\ccMBshSz.s:31972  .debug_str:000000000002c23c .LASF4066
C:\Users\CYMR90~1\AppData\Local\Temp\ccMBshSz.s:24635  .debug_str:000000000000eea4 .LASF4067
C:\Users\CYMR90~1\AppData\Local\Temp\ccMBshSz.s:28790  .debug_str:000000000001f91f .LASF4068
C:\Users\CYMR90~1\AppData\Local\Temp\ccMBshSz.s:29420  .debug_str:0000000000021fc8 .LASF4069
C:\Users\CYMR90~1\AppData\Local\Temp\ccMBshSz.s:31796  .debug_str:000000000002b6fa .LASF4070
C:\Users\CYMR90~1\AppData\Local\Temp\ccMBshSz.s:27486  .debug_str:000000000001a67f .LASF4071
C:\Users\CYMR90~1\AppData\Local\Temp\ccMBshSz.s:30130  .debug_str:0000000000024bc1 .LASF4072
C:\Users\CYMR90~1\AppData\Local\Temp\ccMBshSz.s:27454  .debug_str:000000000001a4fb .LASF4073
C:\Users\CYMR90~1\AppData\Local\Temp\ccMBshSz.s:27928  .debug_str:000000000001c279 .LASF4074
C:\Users\CYMR90~1\AppData\Local\Temp\ccMBshSz.s:21007  .debug_str:00000000000007b8 .LASF4075
C:\Users\CYMR90~1\AppData\Local\Temp\ccMBshSz.s:23999  .debug_str:000000000000c736 .LASF4076
C:\Users\CYMR90~1\AppData\Local\Temp\ccMBshSz.s:21965  .debug_str:00000000000043f8 .LASF4077
C:\Users\CYMR90~1\AppData\Local\Temp\ccMBshSz.s:22331  .debug_str:0000000000005b64 .LASF4078
C:\Users\CYMR90~1\AppData\Local\Temp\ccMBshSz.s:23471  .debug_str:000000000000a402 .LASF4079
C:\Users\CYMR90~1\AppData\Local\Temp\ccMBshSz.s:27400  .debug_str:000000000001a032 .LASF4080
C:\Users\CYMR90~1\AppData\Local\Temp\ccMBshSz.s:31354  .debug_str:0000000000029bfc .LASF4081
C:\Users\CYMR90~1\AppData\Local\Temp\ccMBshSz.s:23935  .debug_str:000000000000c353 .LASF4082
C:\Users\CYMR90~1\AppData\Local\Temp\ccMBshSz.s:27866  .debug_str:000000000001be63 .LASF4083
C:\Users\CYMR90~1\AppData\Local\Temp\ccMBshSz.s:28114  .debug_str:000000000001cf29 .LASF4084
C:\Users\CYMR90~1\AppData\Local\Temp\ccMBshSz.s:27546  .debug_str:000000000001aac5 .LASF4085
C:\Users\CYMR90~1\AppData\Local\Temp\ccMBshSz.s:28406  .debug_str:000000000001e247 .LASF4086
C:\Users\CYMR90~1\AppData\Local\Temp\ccMBshSz.s:32044  .debug_str:000000000002c719 .LASF4087
C:\Users\CYMR90~1\AppData\Local\Temp\ccMBshSz.s:23557  .debug_str:000000000000aa32 .LASF4088
C:\Users\CYMR90~1\AppData\Local\Temp\ccMBshSz.s:22003  .debug_str:000000000000467f .LASF4089
C:\Users\CYMR90~1\AppData\Local\Temp\ccMBshSz.s:26043  .debug_str:0000000000014817 .LASF4090
C:\Users\CYMR90~1\AppData\Local\Temp\ccMBshSz.s:30000  .debug_str:0000000000024310 .LASF4091
C:\Users\CYMR90~1\AppData\Local\Temp\ccMBshSz.s:22585  .debug_str:0000000000006ab6 .LASF4092
C:\Users\CYMR90~1\AppData\Local\Temp\ccMBshSz.s:29498  .debug_str:000000000002242d .LASF4093
C:\Users\CYMR90~1\AppData\Local\Temp\ccMBshSz.s:30490  .debug_str:000000000002640f .LASF4094
C:\Users\CYMR90~1\AppData\Local\Temp\ccMBshSz.s:22565  .debug_str:0000000000006977 .LASF4095
C:\Users\CYMR90~1\AppData\Local\Temp\ccMBshSz.s:27016  .debug_str:00000000000186cb .LASF4096
C:\Users\CYMR90~1\AppData\Local\Temp\ccMBshSz.s:31066  .debug_str:0000000000028a18 .LASF4097
C:\Users\CYMR90~1\AppData\Local\Temp\ccMBshSz.s:30402  .debug_str:0000000000025e9c .LASF4098
C:\Users\CYMR90~1\AppData\Local\Temp\ccMBshSz.s:25985  .debug_str:0000000000014426 .LASF4099
C:\Users\CYMR90~1\AppData\Local\Temp\ccMBshSz.s:30084  .debug_str:000000000002487e .LASF4100
C:\Users\CYMR90~1\AppData\Local\Temp\ccMBshSz.s:30694  .debug_str:00000000000270a8 .LASF4101
C:\Users\CYMR90~1\AppData\Local\Temp\ccMBshSz.s:28212  .debug_str:000000000001d5d9 .LASF4102
C:\Users\CYMR90~1\AppData\Local\Temp\ccMBshSz.s:28944  .debug_str:0000000000020291 .LASF4103
C:\Users\CYMR90~1\AppData\Local\Temp\ccMBshSz.s:25033  .debug_str:0000000000010731 .LASF4104
C:\Users\CYMR90~1\AppData\Local\Temp\ccMBshSz.s:28648  .debug_str:000000000001f0b2 .LASF4105
C:\Users\CYMR90~1\AppData\Local\Temp\ccMBshSz.s:24329  .debug_str:000000000000dbf9 .LASF4106
C:\Users\CYMR90~1\AppData\Local\Temp\ccMBshSz.s:22903  .debug_str:000000000000801b .LASF4107
C:\Users\CYMR90~1\AppData\Local\Temp\ccMBshSz.s:30286  .debug_str:00000000000256c3 .LASF4108
C:\Users\CYMR90~1\AppData\Local\Temp\ccMBshSz.s:31898  .debug_str:000000000002bd59 .LASF4109
C:\Users\CYMR90~1\AppData\Local\Temp\ccMBshSz.s:23261  .debug_str:00000000000096f7 .LASF4110
C:\Users\CYMR90~1\AppData\Local\Temp\ccMBshSz.s:26397  .debug_str:0000000000015e01 .LASF4111
C:\Users\CYMR90~1\AppData\Local\Temp\ccMBshSz.s:30344  .debug_str:0000000000025b36 .LASF4112
C:\Users\CYMR90~1\AppData\Local\Temp\ccMBshSz.s:25453  .debug_str:0000000000012294 .LASF4113
C:\Users\CYMR90~1\AppData\Local\Temp\ccMBshSz.s:25499  .debug_str:0000000000012575 .LASF4114
C:\Users\CYMR90~1\AppData\Local\Temp\ccMBshSz.s:24103  .debug_str:000000000000ce17 .LASF4115
C:\Users\CYMR90~1\AppData\Local\Temp\ccMBshSz.s:23527  .debug_str:000000000000a75b .LASF4116
C:\Users\CYMR90~1\AppData\Local\Temp\ccMBshSz.s:27476  .debug_str:000000000001a5ec .LASF4117
C:\Users\CYMR90~1\AppData\Local\Temp\ccMBshSz.s:24513  .debug_str:000000000000e770 .LASF4118
C:\Users\CYMR90~1\AppData\Local\Temp\ccMBshSz.s:22371  .debug_str:0000000000005d87 .LASF4119
C:\Users\CYMR90~1\AppData\Local\Temp\ccMBshSz.s:28678  .debug_str:000000000001f286 .LASF4120
C:\Users\CYMR90~1\AppData\Local\Temp\ccMBshSz.s:30282  .debug_str:0000000000025671 .LASF4121
C:\Users\CYMR90~1\AppData\Local\Temp\ccMBshSz.s:30064  .debug_str:0000000000024745 .LASF4122
C:\Users\CYMR90~1\AppData\Local\Temp\ccMBshSz.s:21935  .debug_str:000000000000422a .LASF4123
C:\Users\CYMR90~1\AppData\Local\Temp\ccMBshSz.s:30868  .debug_str:0000000000027c03 .LASF4124
C:\Users\CYMR90~1\AppData\Local\Temp\ccMBshSz.s:23643  .debug_str:000000000000af95 .LASF4125
C:\Users\CYMR90~1\AppData\Local\Temp\ccMBshSz.s:27392  .debug_str:0000000000019fbb .LASF4126
C:\Users\CYMR90~1\AppData\Local\Temp\ccMBshSz.s:31348  .debug_str:0000000000029b92 .LASF4127
C:\Users\CYMR90~1\AppData\Local\Temp\ccMBshSz.s:30676  .debug_str:0000000000026f7e .LASF4128
C:\Users\CYMR90~1\AppData\Local\Temp\ccMBshSz.s:26271  .debug_str:0000000000015622 .LASF4129
C:\Users\CYMR90~1\AppData\Local\Temp\ccMBshSz.s:31982  .debug_str:000000000002c2e7 .LASF4130
C:\Users\CYMR90~1\AppData\Local\Temp\ccMBshSz.s:22803  .debug_str:00000000000078db .LASF4131
C:\Users\CYMR90~1\AppData\Local\Temp\ccMBshSz.s:30222  .debug_str:0000000000025201 .LASF4132
C:\Users\CYMR90~1\AppData\Local\Temp\ccMBshSz.s:32224  .debug_str:000000000002d2b3 .LASF4133
C:\Users\CYMR90~1\AppData\Local\Temp\ccMBshSz.s:22097  .debug_str:0000000000004d0c .LASF4134
C:\Users\CYMR90~1\AppData\Local\Temp\ccMBshSz.s:27334  .debug_str:0000000000019c62 .LASF4135
C:\Users\CYMR90~1\AppData\Local\Temp\ccMBshSz.s:22325  .debug_str:0000000000005ad0 .LASF4136
C:\Users\CYMR90~1\AppData\Local\Temp\ccMBshSz.s:23863  .debug_str:000000000000beb8 .LASF4137
C:\Users\CYMR90~1\AppData\Local\Temp\ccMBshSz.s:25183  .debug_str:0000000000011063 .LASF4138
C:\Users\CYMR90~1\AppData\Local\Temp\ccMBshSz.s:23367  .debug_str:0000000000009d90 .LASF4139
C:\Users\CYMR90~1\AppData\Local\Temp\ccMBshSz.s:30444  .debug_str:000000000002617d .LASF4140
C:\Users\CYMR90~1\AppData\Local\Temp\ccMBshSz.s:26768  .debug_str:00000000000177db .LASF4141
C:\Users\CYMR90~1\AppData\Local\Temp\ccMBshSz.s:27270  .debug_str:00000000000197c9 .LASF4142
C:\Users\CYMR90~1\AppData\Local\Temp\ccMBshSz.s:23337  .debug_str:0000000000009bcd .LASF4143
C:\Users\CYMR90~1\AppData\Local\Temp\ccMBshSz.s:27274  .debug_str:0000000000019828 .LASF4144
C:\Users\CYMR90~1\AppData\Local\Temp\ccMBshSz.s:31220  .debug_str:0000000000029358 .LASF4145
C:\Users\CYMR90~1\AppData\Local\Temp\ccMBshSz.s:21305  .debug_str:0000000000001a9a .LASF4146
C:\Users\CYMR90~1\AppData\Local\Temp\ccMBshSz.s:23679  .debug_str:000000000000b262 .LASF4147
C:\Users\CYMR90~1\AppData\Local\Temp\ccMBshSz.s:24809  .debug_str:000000000000f975 .LASF4148
C:\Users\CYMR90~1\AppData\Local\Temp\ccMBshSz.s:22673  .debug_str:0000000000007059 .LASF4149
C:\Users\CYMR90~1\AppData\Local\Temp\ccMBshSz.s:26712  .debug_str:0000000000017465 .LASF4150
C:\Users\CYMR90~1\AppData\Local\Temp\ccMBshSz.s:30668  .debug_str:0000000000026f06 .LASF4151
C:\Users\CYMR90~1\AppData\Local\Temp\ccMBshSz.s:29158  .debug_str:0000000000020faa .LASF4152
C:\Users\CYMR90~1\AppData\Local\Temp\ccMBshSz.s:27206  .debug_str:00000000000193b1 .LASF4153
C:\Users\CYMR90~1\AppData\Local\Temp\ccMBshSz.s:22483  .debug_str:0000000000006471 .LASF4154
C:\Users\CYMR90~1\AppData\Local\Temp\ccMBshSz.s:23743  .debug_str:000000000000b673 .LASF4155
C:\Users\CYMR90~1\AppData\Local\Temp\ccMBshSz.s:27196  .debug_str:0000000000019318 .LASF4156
C:\Users\CYMR90~1\AppData\Local\Temp\ccMBshSz.s:21163  .debug_str:00000000000011d8 .LASF4157
C:\Users\CYMR90~1\AppData\Local\Temp\ccMBshSz.s:22401  .debug_str:0000000000005f4e .LASF4158
C:\Users\CYMR90~1\AppData\Local\Temp\ccMBshSz.s:26648  .debug_str:00000000000170aa .LASF4159
C:\Users\CYMR90~1\AppData\Local\Temp\ccMBshSz.s:30596  .debug_str:0000000000026aaa .LASF4160
C:\Users\CYMR90~1\AppData\Local\Temp\ccMBshSz.s:23195  .debug_str:00000000000092d9 .LASF4161
C:\Users\CYMR90~1\AppData\Local\Temp\ccMBshSz.s:21267  .debug_str:0000000000001856 .LASF4162
C:\Users\CYMR90~1\AppData\Local\Temp\ccMBshSz.s:27312  .debug_str:0000000000019afa .LASF4163
C:\Users\CYMR90~1\AppData\Local\Temp\ccMBshSz.s:23677  .debug_str:000000000000b23c .LASF4164
C:\Users\CYMR90~1\AppData\Local\Temp\ccMBshSz.s:27632  .debug_str:000000000001b046 .LASF4165
C:\Users\CYMR90~1\AppData\Local\Temp\ccMBshSz.s:31560  .debug_str:000000000002a876 .LASF4166
C:\Users\CYMR90~1\AppData\Local\Temp\ccMBshSz.s:24243  .debug_str:000000000000d768 .LASF4167
C:\Users\CYMR90~1\AppData\Local\Temp\ccMBshSz.s:21273  .debug_str:00000000000018bc .LASF4168
C:\Users\CYMR90~1\AppData\Local\Temp\ccMBshSz.s:30538  .debug_str:000000000002671b .LASF4169
C:\Users\CYMR90~1\AppData\Local\Temp\ccMBshSz.s:24879  .debug_str:000000000000fdf0 .LASF4170
C:\Users\CYMR90~1\AppData\Local\Temp\ccMBshSz.s:27228  .debug_str:000000000001951c .LASF4171
C:\Users\CYMR90~1\AppData\Local\Temp\ccMBshSz.s:29552  .debug_str:0000000000022755 .LASF4172
C:\Users\CYMR90~1\AppData\Local\Temp\ccMBshSz.s:31926  .debug_str:000000000002bf26 .LASF4173
C:\Users\CYMR90~1\AppData\Local\Temp\ccMBshSz.s:27572  .debug_str:000000000001ac3e .LASF4174
C:\Users\CYMR90~1\AppData\Local\Temp\ccMBshSz.s:31500  .debug_str:000000000002a459 .LASF4175
C:\Users\CYMR90~1\AppData\Local\Temp\ccMBshSz.s:28422  .debug_str:000000000001e31c .LASF4176
C:\Users\CYMR90~1\AppData\Local\Temp\ccMBshSz.s:24825  .debug_str:000000000000fa6b .LASF4177
C:\Users\CYMR90~1\AppData\Local\Temp\ccMBshSz.s:25167  .debug_str:0000000000010f7e .LASF4178
C:\Users\CYMR90~1\AppData\Local\Temp\ccMBshSz.s:23059  .debug_str:0000000000008ac6 .LASF4179
C:\Users\CYMR90~1\AppData\Local\Temp\ccMBshSz.s:23137  .debug_str:0000000000008f9f .LASF4180
C:\Users\CYMR90~1\AppData\Local\Temp\ccMBshSz.s:28144  .debug_str:000000000001d1af .LASF4181
C:\Users\CYMR90~1\AppData\Local\Temp\ccMBshSz.s:25145  .debug_str:0000000000010e25 .LASF4182
C:\Users\CYMR90~1\AppData\Local\Temp\ccMBshSz.s:27500  .debug_str:000000000001a781 .LASF4183
C:\Users\CYMR90~1\AppData\Local\Temp\ccMBshSz.s:25863  .debug_str:0000000000013cc5 .LASF4184
C:\Users\CYMR90~1\AppData\Local\Temp\ccMBshSz.s:28464  .debug_str:000000000001e5d8 .LASF4185
C:\Users\CYMR90~1\AppData\Local\Temp\ccMBshSz.s:29220  .debug_str:0000000000021332 .LASF4186
C:\Users\CYMR90~1\AppData\Local\Temp\ccMBshSz.s:25295  .debug_str:000000000001182e .LASF4187
C:\Users\CYMR90~1\AppData\Local\Temp\ccMBshSz.s:23595  .debug_str:000000000000ac68 .LASF4188
C:\Users\CYMR90~1\AppData\Local\Temp\ccMBshSz.s:21709  .debug_str:000000000000332e .LASF4189
C:\Users\CYMR90~1\AppData\Local\Temp\ccMBshSz.s:25655  .debug_str:0000000000012fbf .LASF4190
C:\Users\CYMR90~1\AppData\Local\Temp\ccMBshSz.s:29256  .debug_str:00000000000215d6 .LASF4191
C:\Users\CYMR90~1\AppData\Local\Temp\ccMBshSz.s:22167  .debug_str:0000000000005157 .LASF4192
C:\Users\CYMR90~1\AppData\Local\Temp\ccMBshSz.s:26119  .debug_str:0000000000014ce8 .LASF4193
C:\Users\CYMR90~1\AppData\Local\Temp\ccMBshSz.s:30074  .debug_str:00000000000247e2 .LASF4194
C:\Users\CYMR90~1\AppData\Local\Temp\ccMBshSz.s:22665  .debug_str:0000000000006ff6 .LASF4195
C:\Users\CYMR90~1\AppData\Local\Temp\ccMBshSz.s:21265  .debug_str:0000000000001830 .LASF4196
C:\Users\CYMR90~1\AppData\Local\Temp\ccMBshSz.s:30660  .debug_str:0000000000026e6b .LASF4197
C:\Users\CYMR90~1\AppData\Local\Temp\ccMBshSz.s:28868  .debug_str:000000000001fddc .LASF4198
C:\Users\CYMR90~1\AppData\Local\Temp\ccMBshSz.s:25603  .debug_str:0000000000012c6f .LASF4199
C:\Users\CYMR90~1\AppData\Local\Temp\ccMBshSz.s:29544  .debug_str:00000000000226c0 .LASF4200
C:\Users\CYMR90~1\AppData\Local\Temp\ccMBshSz.s:25441  .debug_str:00000000000121bf .LASF4201
C:\Users\CYMR90~1\AppData\Local\Temp\ccMBshSz.s:26165  .debug_str:0000000000015002 .LASF4202
C:\Users\CYMR90~1\AppData\Local\Temp\ccMBshSz.s:32094  .debug_str:000000000002ca3e .LASF4203
C:\Users\CYMR90~1\AppData\Local\Temp\ccMBshSz.s:30826  .debug_str:0000000000027934 .LASF4204
C:\Users\CYMR90~1\AppData\Local\Temp\ccMBshSz.s:26547  .debug_str:00000000000167d6 .LASF4205
C:\Users\CYMR90~1\AppData\Local\Temp\ccMBshSz.s:25025  .debug_str:00000000000106cd .LASF4206
C:\Users\CYMR90~1\AppData\Local\Temp\ccMBshSz.s:23187  .debug_str:000000000000926a .LASF4207
C:\Users\CYMR90~1\AppData\Local\Temp\ccMBshSz.s:31610  .debug_str:000000000002ab45 .LASF4208
C:\Users\CYMR90~1\AppData\Local\Temp\ccMBshSz.s:24973  .debug_str:00000000000103a8 .LASF4209
C:\Users\CYMR90~1\AppData\Local\Temp\ccMBshSz.s:26435  .debug_str:00000000000160d3 .LASF4210
C:\Users\CYMR90~1\AppData\Local\Temp\ccMBshSz.s:25999  .debug_str:000000000001452c .LASF4211
C:\Users\CYMR90~1\AppData\Local\Temp\ccMBshSz.s:24733  .debug_str:000000000000f487 .LASF4212
C:\Users\CYMR90~1\AppData\Local\Temp\ccMBshSz.s:22525  .debug_str:00000000000066ca .LASF4213
C:\Users\CYMR90~1\AppData\Local\Temp\ccMBshSz.s:26481  .debug_str:000000000001638c .LASF4214
C:\Users\CYMR90~1\AppData\Local\Temp\ccMBshSz.s:30530  .debug_str:00000000000266a1 .LASF4215
C:\Users\CYMR90~1\AppData\Local\Temp\ccMBshSz.s:23127  .debug_str:0000000000008f14 .LASF4216
C:\Users\CYMR90~1\AppData\Local\Temp\ccMBshSz.s:27058  .debug_str:0000000000018956 .LASF4217
C:\Users\CYMR90~1\AppData\Local\Temp\ccMBshSz.s:24131  .debug_str:000000000000cfce .LASF4218
C:\Users\CYMR90~1\AppData\Local\Temp\ccMBshSz.s:21979  .debug_str:00000000000044e4 .LASF4219
C:\Users\CYMR90~1\AppData\Local\Temp\ccMBshSz.s:25929  .debug_str:000000000001411c .LASF4220
C:\Users\CYMR90~1\AppData\Local\Temp\ccMBshSz.s:29794  .debug_str:00000000000235c3 .LASF4221
C:\Users\CYMR90~1\AppData\Local\Temp\ccMBshSz.s:22455  .debug_str:00000000000062b0 .LASF4222
C:\Users\CYMR90~1\AppData\Local\Temp\ccMBshSz.s:21587  .debug_str:0000000000002ba5 .LASF4223
C:\Users\CYMR90~1\AppData\Local\Temp\ccMBshSz.s:32100  .debug_str:000000000002caae .LASF4224
C:\Users\CYMR90~1\AppData\Local\Temp\ccMBshSz.s:23073  .debug_str:0000000000008b9b .LASF4225
C:\Users\CYMR90~1\AppData\Local\Temp\ccMBshSz.s:26982  .debug_str:00000000000184d5 .LASF4226
C:\Users\CYMR90~1\AppData\Local\Temp\ccMBshSz.s:21341  .debug_str:0000000000001ce2 .LASF4227
C:\Users\CYMR90~1\AppData\Local\Temp\ccMBshSz.s:27994  .debug_str:000000000001c61c .LASF4228
C:\Users\CYMR90~1\AppData\Local\Temp\ccMBshSz.s:25859  .debug_str:0000000000013c82 .LASF4229
C:\Users\CYMR90~1\AppData\Local\Temp\ccMBshSz.s:29820  .debug_str:000000000002379d .LASF4230
C:\Users\CYMR90~1\AppData\Local\Temp\ccMBshSz.s:26281  .debug_str:00000000000156d4 .LASF4231
C:\Users\CYMR90~1\AppData\Local\Temp\ccMBshSz.s:31000  .debug_str:000000000002856b .LASF4232
C:\Users\CYMR90~1\AppData\Local\Temp\ccMBshSz.s:24255  .debug_str:000000000000d804 .LASF4233
C:\Users\CYMR90~1\AppData\Local\Temp\ccMBshSz.s:22979  .debug_str:00000000000085b8 .LASF4234
C:\Users\CYMR90~1\AppData\Local\Temp\ccMBshSz.s:28912  .debug_str:00000000000200d9 .LASF4235
C:\Users\CYMR90~1\AppData\Local\Temp\ccMBshSz.s:30882  .debug_str:0000000000027cd3 .LASF4236
C:\Users\CYMR90~1\AppData\Local\Temp\ccMBshSz.s:23475  .debug_str:000000000000a440 .LASF4237
C:\Users\CYMR90~1\AppData\Local\Temp\ccMBshSz.s:31908  .debug_str:000000000002bde0 .LASF4238
C:\Users\CYMR90~1\AppData\Local\Temp\ccMBshSz.s:22767  .debug_str:000000000000767f .LASF4239
C:\Users\CYMR90~1\AppData\Local\Temp\ccMBshSz.s:22321  .debug_str:0000000000005a78 .LASF4240
C:\Users\CYMR90~1\AppData\Local\Temp\ccMBshSz.s:25421  .debug_str:00000000000120ae .LASF4241
C:\Users\CYMR90~1\AppData\Local\Temp\ccMBshSz.s:26331  .debug_str:00000000000159b7 .LASF4242
C:\Users\CYMR90~1\AppData\Local\Temp\ccMBshSz.s:22915  .debug_str:0000000000008160 .LASF4243
C:\Users\CYMR90~1\AppData\Local\Temp\ccMBshSz.s:20935  .debug_str:00000000000003b1 .LASF4244
C:\Users\CYMR90~1\AppData\Local\Temp\ccMBshSz.s:23463  .debug_str:000000000000a37b .LASF4245
C:\Users\CYMR90~1\AppData\Local\Temp\ccMBshSz.s:21569  .debug_str:0000000000002a8b .LASF4246
C:\Users\CYMR90~1\AppData\Local\Temp\ccMBshSz.s:28888  .debug_str:000000000001ff6f .LASF4247
C:\Users\CYMR90~1\AppData\Local\Temp\ccMBshSz.s:23663  .debug_str:000000000000b16c .LASF4248
C:\Users\CYMR90~1\AppData\Local\Temp\ccMBshSz.s:22257  .debug_str:00000000000056a5 .LASF4249
C:\Users\CYMR90~1\AppData\Local\Temp\ccMBshSz.s:22867  .debug_str:0000000000007d10 .LASF4250
C:\Users\CYMR90~1\AppData\Local\Temp\ccMBshSz.s:31314  .debug_str:00000000000299e0 .LASF4251
C:\Users\CYMR90~1\AppData\Local\Temp\ccMBshSz.s:22839  .debug_str:0000000000007b64 .LASF4252
C:\Users\CYMR90~1\AppData\Local\Temp\ccMBshSz.s:22417  .debug_str:0000000000006041 .LASF4253
C:\Users\CYMR90~1\AppData\Local\Temp\ccMBshSz.s:23203  .debug_str:000000000000934b .LASF4254
C:\Users\CYMR90~1\AppData\Local\Temp\ccMBshSz.s:29900  .debug_str:0000000000023c77 .LASF4255
C:\Users\CYMR90~1\AppData\Local\Temp\ccMBshSz.s:22027  .debug_str:0000000000004826 .LASF4256
C:\Users\CYMR90~1\AppData\Local\Temp\ccMBshSz.s:22621  .debug_str:0000000000006ce2 .LASF4257
C:\Users\CYMR90~1\AppData\Local\Temp\ccMBshSz.s:31778  .debug_str:000000000002b5b5 .LASF4258
C:\Users\CYMR90~1\AppData\Local\Temp\ccMBshSz.s:22197  .debug_str:0000000000005315 .LASF4259
C:\Users\CYMR90~1\AppData\Local\Temp\ccMBshSz.s:23483  .debug_str:000000000000a4f0 .LASF4260
C:\Users\CYMR90~1\AppData\Local\Temp\ccMBshSz.s:22779  .debug_str:000000000000774f .LASF4261
C:\Users\CYMR90~1\AppData\Local\Temp\ccMBshSz.s:28152  .debug_str:000000000001d254 .LASF4262
C:\Users\CYMR90~1\AppData\Local\Temp\ccMBshSz.s:30494  .debug_str:0000000000026477 .LASF4263
C:\Users\CYMR90~1\AppData\Local\Temp\ccMBshSz.s:27492  .debug_str:000000000001a6f1 .LASF4264
C:\Users\CYMR90~1\AppData\Local\Temp\ccMBshSz.s:23827  .debug_str:000000000000bbf3 .LASF4265
C:\Users\CYMR90~1\AppData\Local\Temp\ccMBshSz.s:27046  .debug_str:0000000000018883 .LASF4266
C:\Users\CYMR90~1\AppData\Local\Temp\ccMBshSz.s:29372  .debug_str:0000000000021ce8 .LASF4267
C:\Users\CYMR90~1\AppData\Local\Temp\ccMBshSz.s:25403  .debug_str:0000000000011f59 .LASF4268
C:\Users\CYMR90~1\AppData\Local\Temp\ccMBshSz.s:30118  .debug_str:0000000000024adb .LASF4269
C:\Users\CYMR90~1\AppData\Local\Temp\ccMBshSz.s:29316  .debug_str:0000000000021983 .LASF4270
C:\Users\CYMR90~1\AppData\Local\Temp\ccMBshSz.s:26664  .debug_str:0000000000017184 .LASF4271
C:\Users\CYMR90~1\AppData\Local\Temp\ccMBshSz.s:30612  .debug_str:0000000000026bb5 .LASF4272
C:\Users\CYMR90~1\AppData\Local\Temp\ccMBshSz.s:26792  .debug_str:0000000000017981 .LASF4273
C:\Users\CYMR90~1\AppData\Local\Temp\ccMBshSz.s:27574  .debug_str:000000000001ac64 .LASF4274
C:\Users\CYMR90~1\AppData\Local\Temp\ccMBshSz.s:30574  .debug_str:000000000002696c .LASF4275
C:\Users\CYMR90~1\AppData\Local\Temp\ccMBshSz.s:30708  .debug_str:0000000000027170 .LASF4276
C:\Users\CYMR90~1\AppData\Local\Temp\ccMBshSz.s:27706  .debug_str:000000000001b4de .LASF4277
C:\Users\CYMR90~1\AppData\Local\Temp\ccMBshSz.s:24785  .debug_str:000000000000f833 .LASF4278
C:\Users\CYMR90~1\AppData\Local\Temp\ccMBshSz.s:22639  .debug_str:0000000000006e42 .LASF4279
C:\Users\CYMR90~1\AppData\Local\Temp\ccMBshSz.s:26593  .debug_str:0000000000016b97 .LASF4280
C:\Users\CYMR90~1\AppData\Local\Temp\ccMBshSz.s:30550  .debug_str:00000000000267cb .LASF4281
C:\Users\CYMR90~1\AppData\Local\Temp\ccMBshSz.s:21969  .debug_str:0000000000004444 .LASF4282
C:\Users\CYMR90~1\AppData\Local\Temp\ccMBshSz.s:27100  .debug_str:0000000000018c97 .LASF4283
C:\Users\CYMR90~1\AppData\Local\Temp\ccMBshSz.s:25719  .debug_str:000000000001344c .LASF4284
C:\Users\CYMR90~1\AppData\Local\Temp\ccMBshSz.s:27848  .debug_str:000000000001bd17 .LASF4285
C:\Users\CYMR90~1\AppData\Local\Temp\ccMBshSz.s:27662  .debug_str:000000000001b23f .LASF4286
C:\Users\CYMR90~1\AppData\Local\Temp\ccMBshSz.s:26089  .debug_str:0000000000014aca .LASF4287
C:\Users\CYMR90~1\AppData\Local\Temp\ccMBshSz.s:21099  .debug_str:0000000000000d8d .LASF4288
C:\Users\CYMR90~1\AppData\Local\Temp\ccMBshSz.s:30520  .debug_str:00000000000265f2 .LASF4289
C:\Users\CYMR90~1\AppData\Local\Temp\ccMBshSz.s:25255  .debug_str:000000000001150d .LASF4290
C:\Users\CYMR90~1\AppData\Local\Temp\ccMBshSz.s:29198  .debug_str:00000000000211e2 .LASF4291
C:\Users\CYMR90~1\AppData\Local\Temp\ccMBshSz.s:21787  .debug_str:000000000000383f .LASF4292
C:\Users\CYMR90~1\AppData\Local\Temp\ccMBshSz.s:25739  .debug_str:000000000001359a .LASF4293
C:\Users\CYMR90~1\AppData\Local\Temp\ccMBshSz.s:29396  .debug_str:0000000000021e63 .LASF4294
C:\Users\CYMR90~1\AppData\Local\Temp\ccMBshSz.s:27966  .debug_str:000000000001c486 .LASF4295
C:\Users\CYMR90~1\AppData\Local\Temp\ccMBshSz.s:27122  .debug_str:0000000000018e15 .LASF4296
C:\Users\CYMR90~1\AppData\Local\Temp\ccMBshSz.s:28690  .debug_str:000000000001f33a .LASF4297
C:\Users\CYMR90~1\AppData\Local\Temp\ccMBshSz.s:21967  .debug_str:000000000000441e .LASF4298
C:\Users\CYMR90~1\AppData\Local\Temp\ccMBshSz.s:25205  .debug_str:00000000000111bf .LASF4299
C:\Users\CYMR90~1\AppData\Local\Temp\ccMBshSz.s:29130  .debug_str:0000000000020e2f .LASF4300
C:\Users\CYMR90~1\AppData\Local\Temp\ccMBshSz.s:27084  .debug_str:0000000000018ad8 .LASF4301
C:\Users\CYMR90~1\AppData\Local\Temp\ccMBshSz.s:25773  .debug_str:0000000000013789 .LASF4302
C:\Users\CYMR90~1\AppData\Local\Temp\ccMBshSz.s:29644  .debug_str:0000000000022d4b .LASF4303
C:\Users\CYMR90~1\AppData\Local\Temp\ccMBshSz.s:32202  .debug_str:000000000002d142 .LASF4304
C:\Users\CYMR90~1\AppData\Local\Temp\ccMBshSz.s:23581  .debug_str:000000000000ab80 .LASF4305
C:\Users\CYMR90~1\AppData\Local\Temp\ccMBshSz.s:24241  .debug_str:000000000000d75b .LASF4306
C:\Users\CYMR90~1\AppData\Local\Temp\ccMBshSz.s:29772  .debug_str:0000000000023458 .LASF4307
C:\Users\CYMR90~1\AppData\Local\Temp\ccMBshSz.s:28326  .debug_str:000000000001dcf2 .LASF4308
C:\Users\CYMR90~1\AppData\Local\Temp\ccMBshSz.s:20961  .debug_str:0000000000000511 .LASF4309
C:\Users\CYMR90~1\AppData\Local\Temp\ccMBshSz.s:22019  .debug_str:0000000000004792 .LASF4310
C:\Users\CYMR90~1\AppData\Local\Temp\ccMBshSz.s:24409  .debug_str:000000000000e0e2 .LASF4311
C:\Users\CYMR90~1\AppData\Local\Temp\ccMBshSz.s:22591  .debug_str:0000000000006b10 .LASF4312
C:\Users\CYMR90~1\AppData\Local\Temp\ccMBshSz.s:25795  .debug_str:00000000000138ca .LASF4313
C:\Users\CYMR90~1\AppData\Local\Temp\ccMBshSz.s:25419  .debug_str:0000000000012087 .LASF4314
C:\Users\CYMR90~1\AppData\Local\Temp\ccMBshSz.s:21649  .debug_str:0000000000002f50 .LASF4315
C:\Users\CYMR90~1\AppData\Local\Temp\ccMBshSz.s:22221  .debug_str:0000000000005478 .LASF4316
C:\Users\CYMR90~1\AppData\Local\Temp\ccMBshSz.s:21739  .debug_str:0000000000003544 .LASF4317
C:\Users\CYMR90~1\AppData\Local\Temp\ccMBshSz.s:20921  .debug_str:00000000000002a3 .LASF4318
C:\Users\CYMR90~1\AppData\Local\Temp\ccMBshSz.s:23079  .debug_str:0000000000008bef .LASF4319
C:\Users\CYMR90~1\AppData\Local\Temp\ccMBshSz.s:26569  .debug_str:00000000000169a1 .LASF4320
C:\Users\CYMR90~1\AppData\Local\Temp\ccMBshSz.s:21639  .debug_str:0000000000002ec3 .LASF4321
C:\Users\CYMR90~1\AppData\Local\Temp\ccMBshSz.s:30634  .debug_str:0000000000026ce5 .LASF4322
C:\Users\CYMR90~1\AppData\Local\Temp\ccMBshSz.s:26439  .debug_str:0000000000016114 .LASF4323
C:\Users\CYMR90~1\AppData\Local\Temp\ccMBshSz.s:23513  .debug_str:000000000000a692 .LASF4324
C:\Users\CYMR90~1\AppData\Local\Temp\ccMBshSz.s:29784  .debug_str:0000000000023528 .LASF4325
C:\Users\CYMR90~1\AppData\Local\Temp\ccMBshSz.s:29570  .debug_str:0000000000022890 .LASF4326
C:\Users\CYMR90~1\AppData\Local\Temp\ccMBshSz.s:25619  .debug_str:0000000000012d71 .LASF4327
C:\Users\CYMR90~1\AppData\Local\Temp\ccMBshSz.s:31308  .debug_str:0000000000029969 .LASF4328
C:\Users\CYMR90~1\AppData\Local\Temp\ccMBshSz.s:31528  .debug_str:000000000002a656 .LASF4329
C:\Users\CYMR90~1\AppData\Local\Temp\ccMBshSz.s:28220  .debug_str:000000000001d656 .LASF4330
C:\Users\CYMR90~1\AppData\Local\Temp\ccMBshSz.s:30398  .debug_str:0000000000025e5f .LASF4331
C:\Users\CYMR90~1\AppData\Local\Temp\ccMBshSz.s:25153  .debug_str:0000000000010eac .LASF4332
C:\Users\CYMR90~1\AppData\Local\Temp\ccMBshSz.s:28370  .debug_str:000000000001e027 .LASF4333
C:\Users\CYMR90~1\AppData\Local\Temp\ccMBshSz.s:23371  .debug_str:0000000000009dcd .LASF4334
C:\Users\CYMR90~1\AppData\Local\Temp\ccMBshSz.s:27628  .debug_str:000000000001b00f .LASF4335
C:\Users\CYMR90~1\AppData\Local\Temp\ccMBshSz.s:28218  .debug_str:000000000001d631 .LASF4336
C:\Users\CYMR90~1\AppData\Local\Temp\ccMBshSz.s:23755  .debug_str:000000000000b734 .LASF4337
C:\Users\CYMR90~1\AppData\Local\Temp\ccMBshSz.s:26772  .debug_str:0000000000017819 .LASF4338
C:\Users\CYMR90~1\AppData\Local\Temp\ccMBshSz.s:27916  .debug_str:000000000001c1b3 .LASF4339
C:\Users\CYMR90~1\AppData\Local\Temp\ccMBshSz.s:25553  .debug_str:0000000000012935 .LASF4340
C:\Users\CYMR90~1\AppData\Local\Temp\ccMBshSz.s:29088  .debug_str:0000000000020ba6 .LASF4341
C:\Users\CYMR90~1\AppData\Local\Temp\ccMBshSz.s:23689  .debug_str:000000000000b2e6 .LASF4342
C:\Users\CYMR90~1\AppData\Local\Temp\ccMBshSz.s:21309  .debug_str:0000000000001ad4 .LASF4343
C:\Users\CYMR90~1\AppData\Local\Temp\ccMBshSz.s:26279  .debug_str:00000000000156af .LASF4344
C:\Users\CYMR90~1\AppData\Local\Temp\ccMBshSz.s:25601  .debug_str:0000000000012c4a .LASF4345
C:\Users\CYMR90~1\AppData\Local\Temp\ccMBshSz.s:31906  .debug_str:000000000002bdc9 .LASF4346
C:\Users\CYMR90~1\AppData\Local\Temp\ccMBshSz.s:27224  .debug_str:00000000000194e2 .LASF4347
C:\Users\CYMR90~1\AppData\Local\Temp\ccMBshSz.s:26770  .debug_str:0000000000017801 .LASF4348
C:\Users\CYMR90~1\AppData\Local\Temp\ccMBshSz.s:28242  .debug_str:000000000001d7f3 .LASF4349
C:\Users\CYMR90~1\AppData\Local\Temp\ccMBshSz.s:29908  .debug_str:0000000000023ce7 .LASF4350
C:\Users\CYMR90~1\AppData\Local\Temp\ccMBshSz.s:22255  .debug_str:000000000000568c .LASF4351
C:\Users\CYMR90~1\AppData\Local\Temp\ccMBshSz.s:21203  .debug_str:000000000000141f .LASF4352
C:\Users\CYMR90~1\AppData\Local\Temp\ccMBshSz.s:28552  .debug_str:000000000001eb1f .LASF4353
C:\Users\CYMR90~1\AppData\Local\Temp\ccMBshSz.s:29274  .debug_str:00000000000216e1 .LASF4354
C:\Users\CYMR90~1\AppData\Local\Temp\ccMBshSz.s:31474  .debug_str:000000000002a308 .LASF4355
C:\Users\CYMR90~1\AppData\Local\Temp\ccMBshSz.s:25275  .debug_str:0000000000011653 .LASF4356
C:\Users\CYMR90~1\AppData\Local\Temp\ccMBshSz.s:31126  .debug_str:0000000000028d9f .LASF4357
C:\Users\CYMR90~1\AppData\Local\Temp\ccMBshSz.s:26051  .debug_str:0000000000014884 .LASF4358
C:\Users\CYMR90~1\AppData\Local\Temp\ccMBshSz.s:23651  .debug_str:000000000000b0cd .LASF4359
C:\Users\CYMR90~1\AppData\Local\Temp\ccMBshSz.s:29050  .debug_str:0000000000020984 .LASF4360
C:\Users\CYMR90~1\AppData\Local\Temp\ccMBshSz.s:23089  .debug_str:0000000000008caa .LASF4361
C:\Users\CYMR90~1\AppData\Local\Temp\ccMBshSz.s:26688  .debug_str:00000000000172eb .LASF4362
C:\Users\CYMR90~1\AppData\Local\Temp\ccMBshSz.s:29868  .debug_str:0000000000023a91 .LASF4363
C:\Users\CYMR90~1\AppData\Local\Temp\ccMBshSz.s:30706  .debug_str:000000000002715e .LASF4364
C:\Users\CYMR90~1\AppData\Local\Temp\ccMBshSz.s:26087  .debug_str:0000000000014ab6 .LASF4365
C:\Users\CYMR90~1\AppData\Local\Temp\ccMBshSz.s:28458  .debug_str:000000000001e538 .LASF4366
C:\Users\CYMR90~1\AppData\Local\Temp\ccMBshSz.s:24059  .debug_str:000000000000cbb1 .LASF4367
C:\Users\CYMR90~1\AppData\Local\Temp\ccMBshSz.s:25865  .debug_str:0000000000013ceb .LASF4368
C:\Users\CYMR90~1\AppData\Local\Temp\ccMBshSz.s:28294  .debug_str:000000000001db1e .LASF4369
C:\Users\CYMR90~1\AppData\Local\Temp\ccMBshSz.s:25627  .debug_str:0000000000012df8 .LASF4370
C:\Users\CYMR90~1\AppData\Local\Temp\ccMBshSz.s:29120  .debug_str:0000000000020daf .LASF4371
C:\Users\CYMR90~1\AppData\Local\Temp\ccMBshSz.s:24605  .debug_str:000000000000ed12 .LASF4372
C:\Users\CYMR90~1\AppData\Local\Temp\ccMBshSz.s:28240  .debug_str:000000000001d7de .LASF4373
C:\Users\CYMR90~1\AppData\Local\Temp\ccMBshSz.s:21617  .debug_str:0000000000002d89 .LASF4374
C:\Users\CYMR90~1\AppData\Local\Temp\ccMBshSz.s:21391  .debug_str:0000000000002009 .LASF4375
C:\Users\CYMR90~1\AppData\Local\Temp\ccMBshSz.s:27954  .debug_str:000000000001c3f6 .LASF4376
C:\Users\CYMR90~1\AppData\Local\Temp\ccMBshSz.s:23001  .debug_str:00000000000086f7 .LASF4377
C:\Users\CYMR90~1\AppData\Local\Temp\ccMBshSz.s:31602  .debug_str:000000000002aaf4 .LASF4378
C:\Users\CYMR90~1\AppData\Local\Temp\ccMBshSz.s:22363  .debug_str:0000000000005d31 .LASF4379
C:\Users\CYMR90~1\AppData\Local\Temp\ccMBshSz.s:20973  .debug_str:00000000000005cd .LASF4380
C:\Users\CYMR90~1\AppData\Local\Temp\ccMBshSz.s:30110  .debug_str:0000000000024a72 .LASF4381
C:\Users\CYMR90~1\AppData\Local\Temp\ccMBshSz.s:27000  .debug_str:00000000000185d1 .LASF4382
C:\Users\CYMR90~1\AppData\Local\Temp\ccMBshSz.s:24713  .debug_str:000000000000f36a .LASF4383
C:\Users\CYMR90~1\AppData\Local\Temp\ccMBshSz.s:29714  .debug_str:0000000000023111 .LASF4384
C:\Users\CYMR90~1\AppData\Local\Temp\ccMBshSz.s:31426  .debug_str:000000000002a046 .LASF4385
C:\Users\CYMR90~1\AppData\Local\Temp\ccMBshSz.s:23909  .debug_str:000000000000c1cf .LASF4386
C:\Users\CYMR90~1\AppData\Local\Temp\ccMBshSz.s:22439  .debug_str:00000000000061d8 .LASF4387
C:\Users\CYMR90~1\AppData\Local\Temp\ccMBshSz.s:22075  .debug_str:0000000000004b9a .LASF4388
C:\Users\CYMR90~1\AppData\Local\Temp\ccMBshSz.s:30470  .debug_str:000000000002630c .LASF4389
C:\Users\CYMR90~1\AppData\Local\Temp\ccMBshSz.s:24305  .debug_str:000000000000dab4 .LASF4390
C:\Users\CYMR90~1\AppData\Local\Temp\ccMBshSz.s:25711  .debug_str:00000000000133b6 .LASF4391
C:\Users\CYMR90~1\AppData\Local\Temp\ccMBshSz.s:23065  .debug_str:0000000000008b27 .LASF4392
C:\Users\CYMR90~1\AppData\Local\Temp\ccMBshSz.s:26287  .debug_str:0000000000015725 .LASF4393
C:\Users\CYMR90~1\AppData\Local\Temp\ccMBshSz.s:30252  .debug_str:000000000002547f .LASF4394
C:\Users\CYMR90~1\AppData\Local\Temp\ccMBshSz.s:21495  .debug_str:0000000000002592 .LASF4395
C:\Users\CYMR90~1\AppData\Local\Temp\ccMBshSz.s:24653  .debug_str:000000000000efa9 .LASF4396
C:\Users\CYMR90~1\AppData\Local\Temp\ccMBshSz.s:21111  .debug_str:0000000000000e4f .LASF4397
C:\Users\CYMR90~1\AppData\Local\Temp\ccMBshSz.s:26910  .debug_str:0000000000018047 .LASF4398
C:\Users\CYMR90~1\AppData\Local\Temp\ccMBshSz.s:23797  .debug_str:000000000000b9ee .LASF4399
C:\Users\CYMR90~1\AppData\Local\Temp\ccMBshSz.s:28820  .debug_str:000000000001fb05 .LASF4400
C:\Users\CYMR90~1\AppData\Local\Temp\ccMBshSz.s:27778  .debug_str:000000000001b8ef .LASF4401
C:\Users\CYMR90~1\AppData\Local\Temp\ccMBshSz.s:25519  .debug_str:00000000000126d4 .LASF4402
C:\Users\CYMR90~1\AppData\Local\Temp\ccMBshSz.s:21489  .debug_str:0000000000002545 .LASF4403
C:\Users\CYMR90~1\AppData\Local\Temp\ccMBshSz.s:28192  .debug_str:000000000001d48a .LASF4404
C:\Users\CYMR90~1\AppData\Local\Temp\ccMBshSz.s:24033  .debug_str:000000000000ca16 .LASF4405
C:\Users\CYMR90~1\AppData\Local\Temp\ccMBshSz.s:31586  .debug_str:000000000002aa0f .LASF4406
C:\Users\CYMR90~1\AppData\Local\Temp\ccMBshSz.s:27456  .debug_str:000000000001a521 .LASF4407
C:\Users\CYMR90~1\AppData\Local\Temp\ccMBshSz.s:29680  .debug_str:0000000000022f3b .LASF4408
C:\Users\CYMR90~1\AppData\Local\Temp\ccMBshSz.s:31266  .debug_str:000000000002967a .LASF4409
C:\Users\CYMR90~1\AppData\Local\Temp\ccMBshSz.s:26533  .debug_str:00000000000166f9 .LASF4410
C:\Users\CYMR90~1\AppData\Local\Temp\ccMBshSz.s:27192  .debug_str:00000000000192e5 .LASF4411
C:\Users\CYMR90~1\AppData\Local\Temp\ccMBshSz.s:22253  .debug_str:0000000000005673 .LASF4412
C:\Users\CYMR90~1\AppData\Local\Temp\ccMBshSz.s:25945  .debug_str:000000000001421a .LASF4413
C:\Users\CYMR90~1\AppData\Local\Temp\ccMBshSz.s:24887  .debug_str:000000000000fe6f .LASF4414
C:\Users\CYMR90~1\AppData\Local\Temp\ccMBshSz.s:28096  .debug_str:000000000001cd71 .LASF4415
C:\Users\CYMR90~1\AppData\Local\Temp\ccMBshSz.s:29398  .debug_str:0000000000021e89 .LASF4416
C:\Users\CYMR90~1\AppData\Local\Temp\ccMBshSz.s:24681  .debug_str:000000000000f172 .LASF4417
C:\Users\CYMR90~1\AppData\Local\Temp\ccMBshSz.s:31750  .debug_str:000000000002b3e0 .LASF4418
C:\Users\CYMR90~1\AppData\Local\Temp\ccMBshSz.s:23815  .debug_str:000000000000bb46 .LASF4419
C:\Users\CYMR90~1\AppData\Local\Temp\ccMBshSz.s:29002  .debug_str:00000000000206ad .LASF4420
C:\Users\CYMR90~1\AppData\Local\Temp\ccMBshSz.s:26395  .debug_str:0000000000015deb .LASF4421
C:\Users\CYMR90~1\AppData\Local\Temp\ccMBshSz.s:29856  .debug_str:00000000000239c4 .LASF4422
C:\Users\CYMR90~1\AppData\Local\Temp\ccMBshSz.s:31720  .debug_str:000000000002b1e6 .LASF4423
C:\Users\CYMR90~1\AppData\Local\Temp\ccMBshSz.s:29194  .debug_str:000000000002119f .LASF4424
C:\Users\CYMR90~1\AppData\Local\Temp\ccMBshSz.s:29542  .debug_str:00000000000226a8 .LASF4425
C:\Users\CYMR90~1\AppData\Local\Temp\ccMBshSz.s:26521  .debug_str:000000000001664c .LASF4426
C:\Users\CYMR90~1\AppData\Local\Temp\ccMBshSz.s:23049  .debug_str:0000000000008a2e .LASF4427
C:\Users\CYMR90~1\AppData\Local\Temp\ccMBshSz.s:30292  .debug_str:000000000002575e .LASF4428
C:\Users\CYMR90~1\AppData\Local\Temp\ccMBshSz.s:27514  .debug_str:000000000001a8c9 .LASF4429
C:\Users\CYMR90~1\AppData\Local\Temp\ccMBshSz.s:29738  .debug_str:0000000000023258 .LASF4430
C:\Users\CYMR90~1\AppData\Local\Temp\ccMBshSz.s:29516  .debug_str:000000000002250c .LASF4431
C:\Users\CYMR90~1\AppData\Local\Temp\ccMBshSz.s:31246  .debug_str:0000000000029565 .LASF4432
C:\Users\CYMR90~1\AppData\Local\Temp\ccMBshSz.s:21577  .debug_str:0000000000002afc .LASF4433
C:\Users\CYMR90~1\AppData\Local\Temp\ccMBshSz.s:24581  .debug_str:000000000000ebda .LASF4434
C:\Users\CYMR90~1\AppData\Local\Temp\ccMBshSz.s:24651  .debug_str:000000000000ef91 .LASF4435
C:\Users\CYMR90~1\AppData\Local\Temp\ccMBshSz.s:21807  .debug_str:0000000000003982 .LASF4436
C:\Users\CYMR90~1\AppData\Local\Temp\ccMBshSz.s:25841  .debug_str:0000000000013ba6 .LASF4437
C:\Users\CYMR90~1\AppData\Local\Temp\ccMBshSz.s:30200  .debug_str:000000000002503d .LASF4438
C:\Users\CYMR90~1\AppData\Local\Temp\ccMBshSz.s:24839  .debug_str:000000000000fb4f .LASF4439
C:\Users\CYMR90~1\AppData\Local\Temp\ccMBshSz.s:25847  .debug_str:0000000000013bea .LASF4440
C:\Users\CYMR90~1\AppData\Local\Temp\ccMBshSz.s:22369  .debug_str:0000000000005d71 .LASF4441
C:\Users\CYMR90~1\AppData\Local\Temp\ccMBshSz.s:21959  .debug_str:0000000000004387 .LASF4442
C:\Users\CYMR90~1\AppData\Local\Temp\ccMBshSz.s:29312  .debug_str:0000000000021951 .LASF4443
C:\Users\CYMR90~1\AppData\Local\Temp\ccMBshSz.s:28836  .debug_str:000000000001fc03 .LASF4444
C:\Users\CYMR90~1\AppData\Local\Temp\ccMBshSz.s:22049  .debug_str:0000000000004a17 .LASF4445
C:\Users\CYMR90~1\AppData\Local\Temp\ccMBshSz.s:28550  .debug_str:000000000001eb05 .LASF4446
C:\Users\CYMR90~1\AppData\Local\Temp\ccMBshSz.s:30528  .debug_str:000000000002668a .LASF4447
C:\Users\CYMR90~1\AppData\Local\Temp\ccMBshSz.s:31708  .debug_str:000000000002b13c .LASF4448
C:\Users\CYMR90~1\AppData\Local\Temp\ccMBshSz.s:26221  .debug_str:000000000001536d .LASF4449
C:\Users\CYMR90~1\AppData\Local\Temp\ccMBshSz.s:21255  .debug_str:0000000000001702 .LASF4450
C:\Users\CYMR90~1\AppData\Local\Temp\ccMBshSz.s:28424  .debug_str:000000000001e342 .LASF4451
C:\Users\CYMR90~1\AppData\Local\Temp\ccMBshSz.s:30754  .debug_str:000000000002750a .LASF4452
C:\Users\CYMR90~1\AppData\Local\Temp\ccMBshSz.s:23505  .debug_str:000000000000a639 .LASF4453
C:\Users\CYMR90~1\AppData\Local\Temp\ccMBshSz.s:32060  .debug_str:000000000002c807 .LASF4454
C:\Users\CYMR90~1\AppData\Local\Temp\ccMBshSz.s:31414  .debug_str:0000000000029fa2 .LASF4455
C:\Users\CYMR90~1\AppData\Local\Temp\ccMBshSz.s:22857  .debug_str:0000000000007c81 .LASF4456
C:\Users\CYMR90~1\AppData\Local\Temp\ccMBshSz.s:21945  .debug_str:00000000000042cd .LASF4457
C:\Users\CYMR90~1\AppData\Local\Temp\ccMBshSz.s:30608  .debug_str:0000000000026b6d .LASF4458
C:\Users\CYMR90~1\AppData\Local\Temp\ccMBshSz.s:27970  .debug_str:000000000001c4cf .LASF4459
C:\Users\CYMR90~1\AppData\Local\Temp\ccMBshSz.s:30582  .debug_str:00000000000269ea .LASF4460
C:\Users\CYMR90~1\AppData\Local\Temp\ccMBshSz.s:25877  .debug_str:0000000000013da7 .LASF4461
C:\Users\CYMR90~1\AppData\Local\Temp\ccMBshSz.s:24783  .debug_str:000000000000f81a .LASF4462
C:\Users\CYMR90~1\AppData\Local\Temp\ccMBshSz.s:28522  .debug_str:000000000001e975 .LASF4463
C:\Users\CYMR90~1\AppData\Local\Temp\ccMBshSz.s:22305  .debug_str:00000000000059b7 .LASF4464
C:\Users\CYMR90~1\AppData\Local\Temp\ccMBshSz.s:29734  .debug_str:0000000000023211 .LASF4465
C:\Users\CYMR90~1\AppData\Local\Temp\ccMBshSz.s:27126  .debug_str:0000000000018e54 .LASF4466
C:\Users\CYMR90~1\AppData\Local\Temp\ccMBshSz.s:21457  .debug_str:0000000000002354 .LASF4467
C:\Users\CYMR90~1\AppData\Local\Temp\ccMBshSz.s:21669  .debug_str:0000000000003083 .LASF4468
C:\Users\CYMR90~1\AppData\Local\Temp\ccMBshSz.s:30406  .debug_str:0000000000025ef4 .LASF4469
C:\Users\CYMR90~1\AppData\Local\Temp\ccMBshSz.s:26295  .debug_str:0000000000015791 .LASF4470
C:\Users\CYMR90~1\AppData\Local\Temp\ccMBshSz.s:32208  .debug_str:000000000002d1c4 .LASF4471
C:\Users\CYMR90~1\AppData\Local\Temp\ccMBshSz.s:23173  .debug_str:000000000000918c .LASF4472
C:\Users\CYMR90~1\AppData\Local\Temp\ccMBshSz.s:31006  .debug_str:00000000000285d7 .LASF4473
C:\Users\CYMR90~1\AppData\Local\Temp\ccMBshSz.s:32206  .debug_str:000000000002d18b .LASF4474
C:\Users\CYMR90~1\AppData\Local\Temp\ccMBshSz.s:28356  .debug_str:000000000001df3b .LASF4475
C:\Users\CYMR90~1\AppData\Local\Temp\ccMBshSz.s:22629  .debug_str:0000000000006d8b .LASF4476
C:\Users\CYMR90~1\AppData\Local\Temp\ccMBshSz.s:22089  .debug_str:0000000000004c9c .LASF4477
C:\Users\CYMR90~1\AppData\Local\Temp\ccMBshSz.s:26640  .debug_str:0000000000017021 .LASF4478
C:\Users\CYMR90~1\AppData\Local\Temp\ccMBshSz.s:31848  .debug_str:000000000002ba69 .LASF4479
C:\Users\CYMR90~1\AppData\Local\Temp\ccMBshSz.s:25651  .debug_str:0000000000012f83 .LASF4480
C:\Users\CYMR90~1\AppData\Local\Temp\ccMBshSz.s:31476  .debug_str:000000000002a321 .LASF4481
C:\Users\CYMR90~1\AppData\Local\Temp\ccMBshSz.s:30556  .debug_str:0000000000026833 .LASF4482
C:\Users\CYMR90~1\AppData\Local\Temp\ccMBshSz.s:30778  .debug_str:000000000002767c .LASF4483
C:\Users\CYMR90~1\AppData\Local\Temp\ccMBshSz.s:31312  .debug_str:00000000000299a5 .LASF4484
C:\Users\CYMR90~1\AppData\Local\Temp\ccMBshSz.s:27874  .debug_str:000000000001bee3 .LASF4485
C:\Users\CYMR90~1\AppData\Local\Temp\ccMBshSz.s:27342  .debug_str:0000000000019cdf .LASF4486
C:\Users\CYMR90~1\AppData\Local\Temp\ccMBshSz.s:22913  .debug_str:0000000000008147 .LASF4487
C:\Users\CYMR90~1\AppData\Local\Temp\ccMBshSz.s:28062  .debug_str:000000000001cb4f .LASF4488
C:\Users\CYMR90~1\AppData\Local\Temp\ccMBshSz.s:27646  .debug_str:000000000001b121 .LASF4489
C:\Users\CYMR90~1\AppData\Local\Temp\ccMBshSz.s:29582  .debug_str:0000000000022938 .LASF4490
C:\Users\CYMR90~1\AppData\Local\Temp\ccMBshSz.s:30514  .debug_str:0000000000026599 .LASF4491
C:\Users\CYMR90~1\AppData\Local\Temp\ccMBshSz.s:21367  .debug_str:0000000000001e82 .LASF4492
C:\Users\CYMR90~1\AppData\Local\Temp\ccMBshSz.s:26471  .debug_str:00000000000162de .LASF4493
C:\Users\CYMR90~1\AppData\Local\Temp\ccMBshSz.s:21685  .debug_str:000000000000319d .LASF4494
C:\Users\CYMR90~1\AppData\Local\Temp\ccMBshSz.s:23879  .debug_str:000000000000bff1 .LASF4495
C:\Users\CYMR90~1\AppData\Local\Temp\ccMBshSz.s:28532  .debug_str:000000000001ea03 .LASF4496
C:\Users\CYMR90~1\AppData\Local\Temp\ccMBshSz.s:21161  .debug_str:00000000000011bf .LASF4497
C:\Users\CYMR90~1\AppData\Local\Temp\ccMBshSz.s:30230  .debug_str:0000000000025279 .LASF4498
C:\Users\CYMR90~1\AppData\Local\Temp\ccMBshSz.s:23025  .debug_str:000000000000885e .LASF4499
C:\Users\CYMR90~1\AppData\Local\Temp\ccMBshSz.s:28164  .debug_str:000000000001d2fc .LASF4500
C:\Users\CYMR90~1\AppData\Local\Temp\ccMBshSz.s:28182  .debug_str:000000000001d3f3 .LASF4501
C:\Users\CYMR90~1\AppData\Local\Temp\ccMBshSz.s:29140  .debug_str:0000000000020ebd .LASF4502
C:\Users\CYMR90~1\AppData\Local\Temp\ccMBshSz.s:27586  .debug_str:000000000001ad1d .LASF4503
C:\Users\CYMR90~1\AppData\Local\Temp\ccMBshSz.s:22341  .debug_str:0000000000005bf7 .LASF4504
C:\Users\CYMR90~1\AppData\Local\Temp\ccMBshSz.s:30968  .debug_str:00000000000282e5 .LASF4505
C:\Users\CYMR90~1\AppData\Local\Temp\ccMBshSz.s:29862  .debug_str:0000000000023a40 .LASF4506
C:\Users\CYMR90~1\AppData\Local\Temp\ccMBshSz.s:26173  .debug_str:0000000000015080 .LASF4507
C:\Users\CYMR90~1\AppData\Local\Temp\ccMBshSz.s:28296  .debug_str:000000000001db33 .LASF4508
C:\Users\CYMR90~1\AppData\Local\Temp\ccMBshSz.s:21645  .debug_str:0000000000002f12 .LASF4509
C:\Users\CYMR90~1\AppData\Local\Temp\ccMBshSz.s:20907  .debug_str:00000000000001f6 .LASF4510
C:\Users\CYMR90~1\AppData\Local\Temp\ccMBshSz.s:27294  .debug_str:00000000000199ba .LASF4511
C:\Users\CYMR90~1\AppData\Local\Temp\ccMBshSz.s:25053  .debug_str:0000000000010861 .LASF4512
C:\Users\CYMR90~1\AppData\Local\Temp\ccMBshSz.s:21957  .debug_str:000000000000436f .LASF4513
C:\Users\CYMR90~1\AppData\Local\Temp\ccMBshSz.s:27230  .debug_str:0000000000019542 .LASF4514
C:\Users\CYMR90~1\AppData\Local\Temp\ccMBshSz.s:25855  .debug_str:0000000000013c55 .LASF4515
C:\Users\CYMR90~1\AppData\Local\Temp\ccMBshSz.s:20933  .debug_str:000000000000038e .LASF4516
C:\Users\CYMR90~1\AppData\Local\Temp\ccMBshSz.s:31682  .debug_str:000000000002afbb .LASF4517
C:\Users\CYMR90~1\AppData\Local\Temp\ccMBshSz.s:31226  .debug_str:00000000000293bf .LASF4518
C:\Users\CYMR90~1\AppData\Local\Temp\ccMBshSz.s:21989  .debug_str:000000000000458c .LASF4519
C:\Users\CYMR90~1\AppData\Local\Temp\ccMBshSz.s:32050  .debug_str:000000000002c76f .LASF4520
C:\Users\CYMR90~1\AppData\Local\Temp\ccMBshSz.s:20953  .debug_str:00000000000004b0 .LASF4521
C:\Users\CYMR90~1\AppData\Local\Temp\ccMBshSz.s:28510  .debug_str:000000000001e8b3 .LASF4522
C:\Users\CYMR90~1\AppData\Local\Temp\ccMBshSz.s:26650  .debug_str:00000000000170d0 .LASF4523
C:\Users\CYMR90~1\AppData\Local\Temp\ccMBshSz.s:21507  .debug_str:000000000000266e .LASF4524
C:\Users\CYMR90~1\AppData\Local\Temp\ccMBshSz.s:30674  .debug_str:0000000000026f68 .LASF4525
C:\Users\CYMR90~1\AppData\Local\Temp\ccMBshSz.s:32014  .debug_str:000000000002c4fa .LASF4526
C:\Users\CYMR90~1\AppData\Local\Temp\ccMBshSz.s:28966  .debug_str:00000000000203bd .LASF4527
C:\Users\CYMR90~1\AppData\Local\Temp\ccMBshSz.s:23973  .debug_str:000000000000c59a .LASF4528
C:\Users\CYMR90~1\AppData\Local\Temp\ccMBshSz.s:29590  .debug_str:00000000000229a7 .LASF4529
C:\Users\CYMR90~1\AppData\Local\Temp\ccMBshSz.s:23875  .debug_str:000000000000bf8d .LASF4530
C:\Users\CYMR90~1\AppData\Local\Temp\ccMBshSz.s:29580  .debug_str:000000000002291a .LASF4531
C:\Users\CYMR90~1\AppData\Local\Temp\ccMBshSz.s:31116  .debug_str:0000000000028d08 .LASF4532
C:\Users\CYMR90~1\AppData\Local\Temp\ccMBshSz.s:22383  .debug_str:0000000000005e4d .LASF4533
C:\Users\CYMR90~1\AppData\Local\Temp\ccMBshSz.s:25171  .debug_str:0000000000010fbf .LASF4534
C:\Users\CYMR90~1\AppData\Local\Temp\ccMBshSz.s:24347  .debug_str:000000000000dd20 .LASF4535
C:\Users\CYMR90~1\AppData\Local\Temp\ccMBshSz.s:22039  .debug_str:000000000000497d .LASF4536
C:\Users\CYMR90~1\AppData\Local\Temp\ccMBshSz.s:23319  .debug_str:0000000000009a9f .LASF4537
C:\Users\CYMR90~1\AppData\Local\Temp\ccMBshSz.s:25837  .debug_str:0000000000013b46 .LASF4538
C:\Users\CYMR90~1\AppData\Local\Temp\ccMBshSz.s:21861  .debug_str:0000000000003cd8 .LASF4539
C:\Users\CYMR90~1\AppData\Local\Temp\ccMBshSz.s:22623  .debug_str:0000000000006d08 .LASF4540
C:\Users\CYMR90~1\AppData\Local\Temp\ccMBshSz.s:20881  .debug_str:000000000000002e .LASF4541
C:\Users\CYMR90~1\AppData\Local\Temp\ccMBshSz.s:25155  .debug_str:0000000000010ed0 .LASF4542
C:\Users\CYMR90~1\AppData\Local\Temp\ccMBshSz.s:27544  .debug_str:000000000001aa87 .LASF4543
C:\Users\CYMR90~1\AppData\Local\Temp\ccMBshSz.s:26595  .debug_str:0000000000016bbd .LASF4544
C:\Users\CYMR90~1\AppData\Local\Temp\ccMBshSz.s:29740  .debug_str:0000000000023270 .LASF4545
C:\Users\CYMR90~1\AppData\Local\Temp\ccMBshSz.s:30002  .debug_str:0000000000024336 .LASF4546
C:\Users\CYMR90~1\AppData\Local\Temp\ccMBshSz.s:22609  .debug_str:0000000000006c36 .LASF4547
C:\Users\CYMR90~1\AppData\Local\Temp\ccMBshSz.s:28636  .debug_str:000000000001efdf .LASF4548
C:\Users\CYMR90~1\AppData\Local\Temp\ccMBshSz.s:26101  .debug_str:0000000000014b98 .LASF4549
C:\Users\CYMR90~1\AppData\Local\Temp\ccMBshSz.s:31300  .debug_str:00000000000298bc .LASF4550
C:\Users\CYMR90~1\AppData\Local\Temp\ccMBshSz.s:29880  .debug_str:0000000000023b33 .LASF4551
C:\Users\CYMR90~1\AppData\Local\Temp\ccMBshSz.s:28460  .debug_str:000000000001e54f .LASF4552
C:\Users\CYMR90~1\AppData\Local\Temp\ccMBshSz.s:21501  .debug_str:00000000000025d8 .LASF4553
C:\Users\CYMR90~1\AppData\Local\Temp\ccMBshSz.s:28618  .debug_str:000000000001eebc .LASF4554
C:\Users\CYMR90~1\AppData\Local\Temp\ccMBshSz.s:23497  .debug_str:000000000000a5b2 .LASF4555
C:\Users\CYMR90~1\AppData\Local\Temp\ccMBshSz.s:21013  .debug_str:0000000000000813 .LASF4556
C:\Users\CYMR90~1\AppData\Local\Temp\ccMBshSz.s:27560  .debug_str:000000000001ab86 .LASF4557
C:\Users\CYMR90~1\AppData\Local\Temp\ccMBshSz.s:30886  .debug_str:0000000000027d1b .LASF4558
C:\Users\CYMR90~1\AppData\Local\Temp\ccMBshSz.s:26263  .debug_str:00000000000155b1 .LASF4559
C:\Users\CYMR90~1\AppData\Local\Temp\ccMBshSz.s:27214  .debug_str:0000000000019415 .LASF4560
C:\Users\CYMR90~1\AppData\Local\Temp\ccMBshSz.s:23867  .debug_str:000000000000bf05 .LASF4561
C:\Users\CYMR90~1\AppData\Local\Temp\ccMBshSz.s:27272  .debug_str:00000000000197ef .LASF4562
C:\Users\CYMR90~1\AppData\Local\Temp\ccMBshSz.s:29196  .debug_str:00000000000211b7 .LASF4563
C:\Users\CYMR90~1\AppData\Local\Temp\ccMBshSz.s:27296  .debug_str:00000000000199f5 .LASF4564
C:\Users\CYMR90~1\AppData\Local\Temp\ccMBshSz.s:21941  .debug_str:0000000000004284 .LASF4565
C:\Users\CYMR90~1\AppData\Local\Temp\ccMBshSz.s:23545  .debug_str:000000000000a860 .LASF4566
C:\Users\CYMR90~1\AppData\Local\Temp\ccMBshSz.s:22081  .debug_str:0000000000004c02 .LASF4567
C:\Users\CYMR90~1\AppData\Local\Temp\ccMBshSz.s:29038  .debug_str:00000000000208c1 .LASF4568
C:\Users\CYMR90~1\AppData\Local\Temp\ccMBshSz.s:28630  .debug_str:000000000001ef76 .LASF4569
C:\Users\CYMR90~1\AppData\Local\Temp\ccMBshSz.s:28908  .debug_str:0000000000020084 .LASF4570
C:\Users\CYMR90~1\AppData\Local\Temp\ccMBshSz.s:28016  .debug_str:000000000001c7bb .LASF4571
C:\Users\CYMR90~1\AppData\Local\Temp\ccMBshSz.s:31524  .debug_str:000000000002a603 .LASF4572
C:\Users\CYMR90~1\AppData\Local\Temp\ccMBshSz.s:25073  .debug_str:00000000000109d4 .LASF4573
C:\Users\CYMR90~1\AppData\Local\Temp\ccMBshSz.s:25803  .debug_str:0000000000013933 .LASF4574
C:\Users\CYMR90~1\AppData\Local\Temp\ccMBshSz.s:29482  .debug_str:000000000002234e .LASF4575
C:\Users\CYMR90~1\AppData\Local\Temp\ccMBshSz.s:31628  .debug_str:000000000002ac5e .LASF4576
C:\Users\CYMR90~1\AppData\Local\Temp\ccMBshSz.s:24855  .debug_str:000000000000fc4e .LASF4577
C:\Users\CYMR90~1\AppData\Local\Temp\ccMBshSz.s:29546  .debug_str:00000000000226e6 .LASF4578
C:\Users\CYMR90~1\AppData\Local\Temp\ccMBshSz.s:31866  .debug_str:000000000002bb67 .LASF4579
C:\Users\CYMR90~1\AppData\Local\Temp\ccMBshSz.s:30046  .debug_str:0000000000024621 .LASF4580
C:\Users\CYMR90~1\AppData\Local\Temp\ccMBshSz.s:29646  .debug_str:0000000000022d6d .LASF4581
C:\Users\CYMR90~1\AppData\Local\Temp\ccMBshSz.s:28020  .debug_str:000000000001c8a0 .LASF4582
C:\Users\CYMR90~1\AppData\Local\Temp\ccMBshSz.s:27322  .debug_str:0000000000019b95 .LASF4583
C:\Users\CYMR90~1\AppData\Local\Temp\ccMBshSz.s:24995  .debug_str:00000000000104f5 .LASF4584
C:\Users\CYMR90~1\AppData\Local\Temp\ccMBshSz.s:25429  .debug_str:0000000000012119 .LASF4585
C:\Users\CYMR90~1\AppData\Local\Temp\ccMBshSz.s:21741  .debug_str:0000000000003566 .LASF4586
C:\Users\CYMR90~1\AppData\Local\Temp\ccMBshSz.s:22615  .debug_str:0000000000006c9c .LASF4587
C:\Users\CYMR90~1\AppData\Local\Temp\ccMBshSz.s:25483  .debug_str:0000000000012488 .LASF4588
C:\Users\CYMR90~1\AppData\Local\Temp\ccMBshSz.s:31670  .debug_str:000000000002aeca .LASF4589
C:\Users\CYMR90~1\AppData\Local\Temp\ccMBshSz.s:24467  .debug_str:000000000000e45e .LASF4590
C:\Users\CYMR90~1\AppData\Local\Temp\ccMBshSz.s:27420  .debug_str:000000000001a153 .LASF4591
C:\Users\CYMR90~1\AppData\Local\Temp\ccMBshSz.s:21097  .debug_str:0000000000000d76 .LASF4592
C:\Users\CYMR90~1\AppData\Local\Temp\ccMBshSz.s:30890  .debug_str:0000000000027d68 .LASF4593
C:\Users\CYMR90~1\AppData\Local\Temp\ccMBshSz.s:32122  .debug_str:000000000002cc26 .LASF4594
C:\Users\CYMR90~1\AppData\Local\Temp\ccMBshSz.s:31876  .debug_str:000000000002bc17 .LASF4595
C:\Users\CYMR90~1\AppData\Local\Temp\ccMBshSz.s:26934  .debug_str:00000000000181eb .LASF4596
C:\Users\CYMR90~1\AppData\Local\Temp\ccMBshSz.s:21245  .debug_str:000000000000166c .LASF4597
C:\Users\CYMR90~1\AppData\Local\Temp\ccMBshSz.s:21971  .debug_str:000000000000446a .LASF4598
C:\Users\CYMR90~1\AppData\Local\Temp\ccMBshSz.s:26409  .debug_str:0000000000015ee1 .LASF4599
C:\Users\CYMR90~1\AppData\Local\Temp\ccMBshSz.s:31592  .debug_str:000000000002aa67 .LASF4600
C:\Users\CYMR90~1\AppData\Local\Temp\ccMBshSz.s:29106  .debug_str:0000000000020cc3 .LASF4601
C:\Users\CYMR90~1\AppData\Local\Temp\ccMBshSz.s:31594  .debug_str:000000000002aa85 .LASF4602
C:\Users\CYMR90~1\AppData\Local\Temp\ccMBshSz.s:27958  .debug_str:000000000001c424 .LASF4603
C:\Users\CYMR90~1\AppData\Local\Temp\ccMBshSz.s:21191  .debug_str:000000000000134c .LASF4604
C:\Users\CYMR90~1\AppData\Local\Temp\ccMBshSz.s:30310  .debug_str:0000000000025893 .LASF4605
C:\Users\CYMR90~1\AppData\Local\Temp\ccMBshSz.s:27858  .debug_str:000000000001bdd6 .LASF4606
C:\Users\CYMR90~1\AppData\Local\Temp\ccMBshSz.s:22377  .debug_str:0000000000005de5 .LASF4607
C:\Users\CYMR90~1\AppData\Local\Temp\ccMBshSz.s:24473  .debug_str:000000000000e4ac .LASF4608
C:\Users\CYMR90~1\AppData\Local\Temp\ccMBshSz.s:28976  .debug_str:0000000000020494 .LASF4609
C:\Users\CYMR90~1\AppData\Local\Temp\ccMBshSz.s:25615  .debug_str:0000000000012d2e .LASF4610
C:\Users\CYMR90~1\AppData\Local\Temp\ccMBshSz.s:30686  .debug_str:000000000002704c .LASF4611
C:\Users\CYMR90~1\AppData\Local\Temp\ccMBshSz.s:26159  .debug_str:0000000000014f99 .LASF4612
C:\Users\CYMR90~1\AppData\Local\Temp\ccMBshSz.s:25909  .debug_str:0000000000013f8f .LASF4613
C:\Users\CYMR90~1\AppData\Local\Temp\ccMBshSz.s:23963  .debug_str:000000000000c4fb .LASF4614
C:\Users\CYMR90~1\AppData\Local\Temp\ccMBshSz.s:28846  .debug_str:000000000001fcaa .LASF4615
C:\Users\CYMR90~1\AppData\Local\Temp\ccMBshSz.s:24571  .debug_str:000000000000eb34 .LASF4616
C:\Users\CYMR90~1\AppData\Local\Temp\ccMBshSz.s:22293  .debug_str:00000000000058d3 .LASF4617
C:\Users\CYMR90~1\AppData\Local\Temp\ccMBshSz.s:31434  .debug_str:000000000002a0ac .LASF4618
C:\Users\CYMR90~1\AppData\Local\Temp\ccMBshSz.s:29152  .debug_str:0000000000020f5f .LASF4619
C:\Users\CYMR90~1\AppData\Local\Temp\ccMBshSz.s:31946  .debug_str:000000000002c0ed .LASF4620
C:\Users\CYMR90~1\AppData\Local\Temp\ccMBshSz.s:24775  .debug_str:000000000000f7a5 .LASF4621
C:\Users\CYMR90~1\AppData\Local\Temp\ccMBshSz.s:23207  .debug_str:0000000000009388 .LASF4622
C:\Users\CYMR90~1\AppData\Local\Temp\ccMBshSz.s:31626  .debug_str:000000000002ac3c .LASF4623
C:\Users\CYMR90~1\AppData\Local\Temp\ccMBshSz.s:29244  .debug_str:000000000002151d .LASF4624
C:\Users\CYMR90~1\AppData\Local\Temp\ccMBshSz.s:31092  .debug_str:0000000000028bb7 .LASF4625
C:\Users\CYMR90~1\AppData\Local\Temp\ccMBshSz.s:22603  .debug_str:0000000000006bd2 .LASF4626
C:\Users\CYMR90~1\AppData\Local\Temp\ccMBshSz.s:29402  .debug_str:0000000000021ead .LASF4627
C:\Users\CYMR90~1\AppData\Local\Temp\ccMBshSz.s:31262  .debug_str:0000000000029630 .LASF4628
C:\Users\CYMR90~1\AppData\Local\Temp\ccMBshSz.s:30992  .debug_str:00000000000284f7 .LASF4629
C:\Users\CYMR90~1\AppData\Local\Temp\ccMBshSz.s:30274  .debug_str:00000000000255ee .LASF4630
C:\Users\CYMR90~1\AppData\Local\Temp\ccMBshSz.s:27394  .debug_str:0000000000019fe1 .LASF4631
C:\Users\CYMR90~1\AppData\Local\Temp\ccMBshSz.s:23381  .debug_str:0000000000009e6d .LASF4632
C:\Users\CYMR90~1\AppData\Local\Temp\ccMBshSz.s:24777  .debug_str:000000000000f7c7 .LASF4633
C:\Users\CYMR90~1\AppData\Local\Temp\ccMBshSz.s:21461  .debug_str:0000000000002387 .LASF4634
C:\Users\CYMR90~1\AppData\Local\Temp\ccMBshSz.s:23529  .debug_str:000000000000a781 .LASF4635
C:\Users\CYMR90~1\AppData\Local\Temp\ccMBshSz.s:28480  .debug_str:000000000001e6c1 .LASF4636
C:\Users\CYMR90~1\AppData\Local\Temp\ccMBshSz.s:26718  .debug_str:00000000000174bf .LASF4637
C:\Users\CYMR90~1\AppData\Local\Temp\ccMBshSz.s:24177  .debug_str:000000000000d2ed .LASF4638
C:\Users\CYMR90~1\AppData\Local\Temp\ccMBshSz.s:32000  .debug_str:000000000002c3c7 .LASF4639
C:\Users\CYMR90~1\AppData\Local\Temp\ccMBshSz.s:26555  .debug_str:0000000000016843 .LASF4640
C:\Users\CYMR90~1\AppData\Local\Temp\ccMBshSz.s:24971  .debug_str:0000000000010382 .LASF4641
C:\Users\CYMR90~1\AppData\Local\Temp\ccMBshSz.s:21675  .debug_str:000000000000310b .LASF4642
C:\Users\CYMR90~1\AppData\Local\Temp\ccMBshSz.s:30020  .debug_str:0000000000024495 .LASF4643
C:\Users\CYMR90~1\AppData\Local\Temp\ccMBshSz.s:26565  .debug_str:0000000000016949 .LASF4644
C:\Users\CYMR90~1\AppData\Local\Temp\ccMBshSz.s:23095  .debug_str:0000000000008cf8 .LASF4645
C:\Users\CYMR90~1\AppData\Local\Temp\ccMBshSz.s:30772  .debug_str:0000000000027631 .LASF4646
C:\Users\CYMR90~1\AppData\Local\Temp\ccMBshSz.s:29686  .debug_str:0000000000022fa2 .LASF4647
C:\Users\CYMR90~1\AppData\Local\Temp\ccMBshSz.s:21431  .debug_str:00000000000021fd .LASF4648
C:\Users\CYMR90~1\AppData\Local\Temp\ccMBshSz.s:22559  .debug_str:000000000000692a .LASF4649
C:\Users\CYMR90~1\AppData\Local\Temp\ccMBshSz.s:30910  .debug_str:0000000000027edc .LASF4650
C:\Users\CYMR90~1\AppData\Local\Temp\ccMBshSz.s:28414  .debug_str:000000000001e2bb .LASF4651
C:\Users\CYMR90~1\AppData\Local\Temp\ccMBshSz.s:22919  .debug_str:000000000000819e .LASF4652
C:\Users\CYMR90~1\AppData\Local\Temp\ccMBshSz.s:24239  .debug_str:000000000000d73e .LASF4653
C:\Users\CYMR90~1\AppData\Local\Temp\ccMBshSz.s:24637  .debug_str:000000000000eeca .LASF4654
C:\Users\CYMR90~1\AppData\Local\Temp\ccMBshSz.s:28102  .debug_str:000000000001cdcb .LASF4655
C:\Users\CYMR90~1\AppData\Local\Temp\ccMBshSz.s:28232  .debug_str:000000000001d6f5 .LASF4656
C:\Users\CYMR90~1\AppData\Local\Temp\ccMBshSz.s:21415  .debug_str:0000000000002128 .LASF4657
C:\Users\CYMR90~1\AppData\Local\Temp\ccMBshSz.s:24801  .debug_str:000000000000f8fd .LASF4658
C:\Users\CYMR90~1\AppData\Local\Temp\ccMBshSz.s:31412  .debug_str:0000000000029f83 .LASF4659
C:\Users\CYMR90~1\AppData\Local\Temp\ccMBshSz.s:24615  .debug_str:000000000000ed83 .LASF4660
C:\Users\CYMR90~1\AppData\Local\Temp\ccMBshSz.s:26233  .debug_str:000000000001540c .LASF4661
C:\Users\CYMR90~1\AppData\Local\Temp\ccMBshSz.s:23705  .debug_str:000000000000b3dc .LASF4662
C:\Users\CYMR90~1\AppData\Local\Temp\ccMBshSz.s:26864  .debug_str:0000000000017dcd .LASF4663
C:\Users\CYMR90~1\AppData\Local\Temp\ccMBshSz.s:25023  .debug_str:00000000000106ab .LASF4664
C:\Users\CYMR90~1\AppData\Local\Temp\ccMBshSz.s:21505  .debug_str:000000000000264c .LASF4665
C:\Users\CYMR90~1\AppData\Local\Temp\ccMBshSz.s:29670  .debug_str:0000000000022eb5 .LASF4666
C:\Users\CYMR90~1\AppData\Local\Temp\ccMBshSz.s:21233  .debug_str:000000000000158f .LASF4667
C:\Users\CYMR90~1\AppData\Local\Temp\ccMBshSz.s:21067  .debug_str:0000000000000bd0 .LASF4668
C:\Users\CYMR90~1\AppData\Local\Temp\ccMBshSz.s:22141  .debug_str:0000000000004fd0 .LASF4669
C:\Users\CYMR90~1\AppData\Local\Temp\ccMBshSz.s:22785  .debug_str:000000000000779f .LASF4670
C:\Users\CYMR90~1\AppData\Local\Temp\ccMBshSz.s:30496  .debug_str:000000000002649d .LASF4671
C:\Users\CYMR90~1\AppData\Local\Temp\ccMBshSz.s:21419  .debug_str:000000000000215d .LASF4672
C:\Users\CYMR90~1\AppData\Local\Temp\ccMBshSz.s:25067  .debug_str:000000000001095a .LASF4673
C:\Users\CYMR90~1\AppData\Local\Temp\ccMBshSz.s:23779  .debug_str:000000000000b8fd .LASF4674
C:\Users\CYMR90~1\AppData\Local\Temp\ccMBshSz.s:29926  .debug_str:0000000000023e01 .LASF4675
C:\Users\CYMR90~1\AppData\Local\Temp\ccMBshSz.s:23133  .debug_str:0000000000008f6f .LASF4676
C:\Users\CYMR90~1\AppData\Local\Temp\ccMBshSz.s:28834  .debug_str:000000000001fbed .LASF4677
C:\Users\CYMR90~1\AppData\Local\Temp\ccMBshSz.s:29460  .debug_str:0000000000022224 .LASF4678
C:\Users\CYMR90~1\AppData\Local\Temp\ccMBshSz.s:27004  .debug_str:000000000001860d .LASF4679
C:\Users\CYMR90~1\AppData\Local\Temp\ccMBshSz.s:29550  .debug_str:000000000002273f .LASF4680
C:\Users\CYMR90~1\AppData\Local\Temp\ccMBshSz.s:26489  .debug_str:0000000000016406 .LASF4681
C:\Users\CYMR90~1\AppData\Local\Temp\ccMBshSz.s:26391  .debug_str:0000000000015db2 .LASF4682
C:\Users\CYMR90~1\AppData\Local\Temp\ccMBshSz.s:25963  .debug_str:0000000000014323 .LASF4683
C:\Users\CYMR90~1\AppData\Local\Temp\ccMBshSz.s:28546  .debug_str:000000000001ead6 .LASF4684
C:\Users\CYMR90~1\AppData\Local\Temp\ccMBshSz.s:25193  .debug_str:000000000001110b .LASF4685
C:\Users\CYMR90~1\AppData\Local\Temp\ccMBshSz.s:28274  .debug_str:000000000001d9f6 .LASF4686
C:\Users\CYMR90~1\AppData\Local\Temp\ccMBshSz.s:32182  .debug_str:000000000002d04a .LASF4687
C:\Users\CYMR90~1\AppData\Local\Temp\ccMBshSz.s:24459  .debug_str:000000000000e3dc .LASF4688
C:\Users\CYMR90~1\AppData\Local\Temp\ccMBshSz.s:26962  .debug_str:0000000000018394 .LASF4689
C:\Users\CYMR90~1\AppData\Local\Temp\ccMBshSz.s:21283  .debug_str:000000000000196c .LASF4690
C:\Users\CYMR90~1\AppData\Local\Temp\ccMBshSz.s:21927  .debug_str:0000000000004125 .LASF4691
C:\Users\CYMR90~1\AppData\Local\Temp\ccMBshSz.s:21931  .debug_str:00000000000041f5 .LASF4692
C:\Users\CYMR90~1\AppData\Local\Temp\ccMBshSz.s:25103  .debug_str:0000000000010c2c .LASF4693
C:\Users\CYMR90~1\AppData\Local\Temp\ccMBshSz.s:29946  .debug_str:0000000000023f22 .LASF4694
C:\Users\CYMR90~1\AppData\Local\Temp\ccMBshSz.s:26485  .debug_str:00000000000163cb .LASF4695
C:\Users\CYMR90~1\AppData\Local\Temp\ccMBshSz.s:20949  .debug_str:0000000000000482 .LASF4696
C:\Users\CYMR90~1\AppData\Local\Temp\ccMBshSz.s:29092  .debug_str:0000000000020c05 .LASF4697
C:\Users\CYMR90~1\AppData\Local\Temp\ccMBshSz.s:29822  .debug_str:00000000000237c3 .LASF4698
C:\Users\CYMR90~1\AppData\Local\Temp\ccMBshSz.s:30368  .debug_str:0000000000025ca6 .LASF4699
C:\Users\CYMR90~1\AppData\Local\Temp\ccMBshSz.s:30004  .debug_str:0000000000024366 .LASF4700
C:\Users\CYMR90~1\AppData\Local\Temp\ccMBshSz.s:24935  .debug_str:0000000000010170 .LASF4701
C:\Users\CYMR90~1\AppData\Local\Temp\ccMBshSz.s:26269  .debug_str:0000000000015609 .LASF4702
C:\Users\CYMR90~1\AppData\Local\Temp\ccMBshSz.s:31798  .debug_str:000000000002b720 .LASF4703
C:\Users\CYMR90~1\AppData\Local\Temp\ccMBshSz.s:30052  .debug_str:0000000000024699 .LASF4704
C:\Users\CYMR90~1\AppData\Local\Temp\ccMBshSz.s:27260  .debug_str:00000000000196e5 .LASF4705
C:\Users\CYMR90~1\AppData\Local\Temp\ccMBshSz.s:28302  .debug_str:000000000001db9a .LASF4706
C:\Users\CYMR90~1\AppData\Local\Temp\ccMBshSz.s:26475  .debug_str:000000000001632a .LASF4707
C:\Users\CYMR90~1\AppData\Local\Temp\ccMBshSz.s:23147  .debug_str:000000000000903f .LASF4708
C:\Users\CYMR90~1\AppData\Local\Temp\ccMBshSz.s:29656  .debug_str:0000000000022de7 .LASF4709
C:\Users\CYMR90~1\AppData\Local\Temp\ccMBshSz.s:25331  .debug_str:0000000000011add .LASF4710
C:\Users\CYMR90~1\AppData\Local\Temp\ccMBshSz.s:26726  .debug_str:000000000001751b .LASF4711
C:\Users\CYMR90~1\AppData\Local\Temp\ccMBshSz.s:26503  .debug_str:00000000000164c2 .LASF4712
C:\Users\CYMR90~1\AppData\Local\Temp\ccMBshSz.s:21875  .debug_str:0000000000003de7 .LASF4713
C:\Users\CYMR90~1\AppData\Local\Temp\ccMBshSz.s:30794  .debug_str:000000000002776b .LASF4714
C:\Users\CYMR90~1\AppData\Local\Temp\ccMBshSz.s:24429  .debug_str:000000000000e223 .LASF4715
C:\Users\CYMR90~1\AppData\Local\Temp\ccMBshSz.s:21919  .debug_str:00000000000040a2 .LASF4716
C:\Users\CYMR90~1\AppData\Local\Temp\ccMBshSz.s:26091  .debug_str:0000000000014af0 .LASF4717
C:\Users\CYMR90~1\AppData\Local\Temp\ccMBshSz.s:24423  .debug_str:000000000000e1c0 .LASF4718
C:\Users\CYMR90~1\AppData\Local\Temp\ccMBshSz.s:26325  .debug_str:0000000000015966 .LASF4719
C:\Users\CYMR90~1\AppData\Local\Temp\ccMBshSz.s:31634  .debug_str:000000000002acc2 .LASF4720
C:\Users\CYMR90~1\AppData\Local\Temp\ccMBshSz.s:23043  .debug_str:0000000000008998 .LASF4721
C:\Users\CYMR90~1\AppData\Local\Temp\ccMBshSz.s:21631  .debug_str:0000000000002e55 .LASF4722
C:\Users\CYMR90~1\AppData\Local\Temp\ccMBshSz.s:30878  .debug_str:0000000000027c98 .LASF4723
C:\Users\CYMR90~1\AppData\Local\Temp\ccMBshSz.s:31370  .debug_str:0000000000029cde .LASF4724
C:\Users\CYMR90~1\AppData\Local\Temp\ccMBshSz.s:27384  .debug_str:0000000000019f3e .LASF4725
C:\Users\CYMR90~1\AppData\Local\Temp\ccMBshSz.s:27422  .debug_str:000000000001a16a .LASF4726
C:\Users\CYMR90~1\AppData\Local\Temp\ccMBshSz.s:30316  .debug_str:000000000002590e .LASF4727
C:\Users\CYMR90~1\AppData\Local\Temp\ccMBshSz.s:26195  .debug_str:00000000000151f5 .LASF4728
C:\Users\CYMR90~1\AppData\Local\Temp\ccMBshSz.s:32154  .debug_str:000000000002cdf0 .LASF4729
C:\Users\CYMR90~1\AppData\Local\Temp\ccMBshSz.s:23603  .debug_str:000000000000ad06 .LASF4730
C:\Users\CYMR90~1\AppData\Local\Temp\ccMBshSz.s:29766  .debug_str:00000000000233f6 .LASF4731
C:\Users\CYMR90~1\AppData\Local\Temp\ccMBshSz.s:28578  .debug_str:000000000001ec77 .LASF4732
C:\Users\CYMR90~1\AppData\Local\Temp\ccMBshSz.s:24997  .debug_str:0000000000010533 .LASF4733
C:\Users\CYMR90~1\AppData\Local\Temp\ccMBshSz.s:32046  .debug_str:000000000002c73f .LASF4734
C:\Users\CYMR90~1\AppData\Local\Temp\ccMBshSz.s:30180  .debug_str:0000000000024f00 .LASF4735
C:\Users\CYMR90~1\AppData\Local\Temp\ccMBshSz.s:30090  .debug_str:00000000000248db .LASF4736
C:\Users\CYMR90~1\AppData\Local\Temp\ccMBshSz.s:22659  .debug_str:0000000000006f88 .LASF4737
C:\Users\CYMR90~1\AppData\Local\Temp\ccMBshSz.s:26525  .debug_str:000000000001667b .LASF4738
C:\Users\CYMR90~1\AppData\Local\Temp\ccMBshSz.s:30856  .debug_str:0000000000027af8 .LASF4739
C:\Users\CYMR90~1\AppData\Local\Temp\ccMBshSz.s:28082  .debug_str:000000000001cc85 .LASF4740
C:\Users\CYMR90~1\AppData\Local\Temp\ccMBshSz.s:30650  .debug_str:0000000000026db4 .LASF4741
C:\Users\CYMR90~1\AppData\Local\Temp\ccMBshSz.s:26828  .debug_str:0000000000017bc0 .LASF4742
C:\Users\CYMR90~1\AppData\Local\Temp\ccMBshSz.s:29786  .debug_str:000000000002354f .LASF4743
C:\Users\CYMR90~1\AppData\Local\Temp\ccMBshSz.s:22939  .debug_str:0000000000008305 .LASF4744
C:\Users\CYMR90~1\AppData\Local\Temp\ccMBshSz.s:28068  .debug_str:000000000001cba2 .LASF4745
C:\Users\CYMR90~1\AppData\Local\Temp\ccMBshSz.s:23571  .debug_str:000000000000aaf5 .LASF4746
C:\Users\CYMR90~1\AppData\Local\Temp\ccMBshSz.s:22527  .debug_str:00000000000066f0 .LASF4747
C:\Users\CYMR90~1\AppData\Local\Temp\ccMBshSz.s:26517  .debug_str:0000000000016608 .LASF4748
C:\Users\CYMR90~1\AppData\Local\Temp\ccMBshSz.s:31816  .debug_str:000000000002b809 .LASF4749
C:\Users\CYMR90~1\AppData\Local\Temp\ccMBshSz.s:21909  .debug_str:000000000000402e .LASF4750
C:\Users\CYMR90~1\AppData\Local\Temp\ccMBshSz.s:30392  .debug_str:0000000000025e1a .LASF4751
C:\Users\CYMR90~1\AppData\Local\Temp\ccMBshSz.s:24507  .debug_str:000000000000e70d .LASF4752
C:\Users\CYMR90~1\AppData\Local\Temp\ccMBshSz.s:29294  .debug_str:000000000002183f .LASF4753
C:\Users\CYMR90~1\AppData\Local\Temp\ccMBshSz.s:25997  .debug_str:0000000000014501 .LASF4754
C:\Users\CYMR90~1\AppData\Local\Temp\ccMBshSz.s:23667  .debug_str:000000000000b1b8 .LASF4755
C:\Users\CYMR90~1\AppData\Local\Temp\ccMBshSz.s:29108  .debug_str:0000000000020ce0 .LASF4756
C:\Users\CYMR90~1\AppData\Local\Temp\ccMBshSz.s:30510  .debug_str:0000000000026549 .LASF4757
C:\Users\CYMR90~1\AppData\Local\Temp\ccMBshSz.s:28796  .debug_str:000000000001f98d .LASF4758
C:\Users\CYMR90~1\AppData\Local\Temp\ccMBshSz.s:29404  .debug_str:0000000000021ed1 .LASF4759
C:\Users\CYMR90~1\AppData\Local\Temp\ccMBshSz.s:27648  .debug_str:000000000001b13a .LASF4760
C:\Users\CYMR90~1\AppData\Local\Temp\ccMBshSz.s:28948  .debug_str:00000000000202c8 .LASF4761
C:\Users\CYMR90~1\AppData\Local\Temp\ccMBshSz.s:30454  .debug_str:000000000002620d .LASF4762
C:\Users\CYMR90~1\AppData\Local\Temp\ccMBshSz.s:29930  .debug_str:0000000000023e39 .LASF4763
C:\Users\CYMR90~1\AppData\Local\Temp\ccMBshSz.s:31878  .debug_str:000000000002bc36 .LASF4764
C:\Users\CYMR90~1\AppData\Local\Temp\ccMBshSz.s:32212  .debug_str:000000000002d1f1 .LASF4765
C:\Users\CYMR90~1\AppData\Local\Temp\ccMBshSz.s:22521  .debug_str:0000000000006691 .LASF4766
C:\Users\CYMR90~1\AppData\Local\Temp\ccMBshSz.s:22161  .debug_str:00000000000050f4 .LASF4767
C:\Users\CYMR90~1\AppData\Local\Temp\ccMBshSz.s:24173  .debug_str:000000000000d2a5 .LASF4768
C:\Users\CYMR90~1\AppData\Local\Temp\ccMBshSz.s:29598  .debug_str:0000000000022a3f .LASF4769
C:\Users\CYMR90~1\AppData\Local\Temp\ccMBshSz.s:28892  .debug_str:000000000001ffa7 .LASF4770
C:\Users\CYMR90~1\AppData\Local\Temp\ccMBshSz.s:21051  .debug_str:0000000000000a76 .LASF4771
C:\Users\CYMR90~1\AppData\Local\Temp\ccMBshSz.s:25777  .debug_str:00000000000137c5 .LASF4772
C:\Users\CYMR90~1\AppData\Local\Temp\ccMBshSz.s:26912  .debug_str:0000000000018063 .LASF4773
C:\Users\CYMR90~1\AppData\Local\Temp\ccMBshSz.s:25681  .debug_str:0000000000013167 .LASF4774
C:\Users\CYMR90~1\AppData\Local\Temp\ccMBshSz.s:28128  .debug_str:000000000001d02b .LASF4775
C:\Users\CYMR90~1\AppData\Local\Temp\ccMBshSz.s:26131  .debug_str:0000000000014dcc .LASF4776
C:\Users\CYMR90~1\AppData\Local\Temp\ccMBshSz.s:21427  .debug_str:00000000000021b6 .LASF4777
C:\Users\CYMR90~1\AppData\Local\Temp\ccMBshSz.s:22893  .debug_str:0000000000007f69 .LASF4778
C:\Users\CYMR90~1\AppData\Local\Temp\ccMBshSz.s:23933  .debug_str:000000000000c32e .LASF4779
C:\Users\CYMR90~1\AppData\Local\Temp\ccMBshSz.s:26291  .debug_str:000000000001575a .LASF4780
C:\Users\CYMR90~1\AppData\Local\Temp\ccMBshSz.s:27802  .debug_str:000000000001ba22 .LASF4781
C:\Users\CYMR90~1\AppData\Local\Temp\ccMBshSz.s:21995  .debug_str:00000000000045e1 .LASF4782
C:\Users\CYMR90~1\AppData\Local\Temp\ccMBshSz.s:23017  .debug_str:00000000000087d8 .LASF4783
C:\Users\CYMR90~1\AppData\Local\Temp\ccMBshSz.s:22045  .debug_str:00000000000049de .LASF4784
C:\Users\CYMR90~1\AppData\Local\Temp\ccMBshSz.s:28390  .debug_str:000000000001e14b .LASF4785
C:\Users\CYMR90~1\AppData\Local\Temp\ccMBshSz.s:30022  .debug_str:00000000000244b1 .LASF4786
C:\Users\CYMR90~1\AppData\Local\Temp\ccMBshSz.s:31540  .debug_str:000000000002a73b .LASF4787
C:\Users\CYMR90~1\AppData\Local\Temp\ccMBshSz.s:24843  .debug_str:000000000000fb7f .LASF4788
C:\Users\CYMR90~1\AppData\Local\Temp\ccMBshSz.s:29428  .debug_str:0000000000022035 .LASF4789
C:\Users\CYMR90~1\AppData\Local\Temp\ccMBshSz.s:30984  .debug_str:0000000000028473 .LASF4790
C:\Users\CYMR90~1\AppData\Local\Temp\ccMBshSz.s:29808  .debug_str:00000000000236bb .LASF4791
C:\Users\CYMR90~1\AppData\Local\Temp\ccMBshSz.s:26151  .debug_str:0000000000014f1c .LASF4792
C:\Users\CYMR90~1\AppData\Local\Temp\ccMBshSz.s:31742  .debug_str:000000000002b31e .LASF4793
C:\Users\CYMR90~1\AppData\Local\Temp\ccMBshSz.s:23703  .debug_str:000000000000b3b3 .LASF4794
C:\Users\CYMR90~1\AppData\Local\Temp\ccMBshSz.s:31244  .debug_str:000000000002953c .LASF4795
C:\Users\CYMR90~1\AppData\Local\Temp\ccMBshSz.s:26243  .debug_str:00000000000154ae .LASF4796
C:\Users\CYMR90~1\AppData\Local\Temp\ccMBshSz.s:29304  .debug_str:00000000000218c9 .LASF4797
C:\Users\CYMR90~1\AppData\Local\Temp\ccMBshSz.s:32172  .debug_str:000000000002cf8b .LASF4798
C:\Users\CYMR90~1\AppData\Local\Temp\ccMBshSz.s:21023  .debug_str:00000000000008b2 .LASF4799
C:\Users\CYMR90~1\AppData\Local\Temp\ccMBshSz.s:20967  .debug_str:0000000000000565 .LASF4800
C:\Users\CYMR90~1\AppData\Local\Temp\ccMBshSz.s:28594  .debug_str:000000000001ed62 .LASF4801
C:\Users\CYMR90~1\AppData\Local\Temp\ccMBshSz.s:23449  .debug_str:000000000000a299 .LASF4802
C:\Users\CYMR90~1\AppData\Local\Temp\ccMBshSz.s:22269  .debug_str:000000000000577d .LASF4803
C:\Users\CYMR90~1\AppData\Local\Temp\ccMBshSz.s:24773  .debug_str:000000000000f77b .LASF4804
C:\Users\CYMR90~1\AppData\Local\Temp\ccMBshSz.s:27054  .debug_str:000000000001890a .LASF4805
C:\Users\CYMR90~1\AppData\Local\Temp\ccMBshSz.s:21529  .debug_str:0000000000002800 .LASF4806
C:\Users\CYMR90~1\AppData\Local\Temp\ccMBshSz.s:27300  .debug_str:0000000000019a48 .LASF4807
C:\Users\CYMR90~1\AppData\Local\Temp\ccMBshSz.s:28652  .debug_str:000000000001f0f5 .LASF4808
C:\Users\CYMR90~1\AppData\Local\Temp\ccMBshSz.s:21059  .debug_str:0000000000000b3c .LASF4809
C:\Users\CYMR90~1\AppData\Local\Temp\ccMBshSz.s:22499  .debug_str:0000000000006551 .LASF4810
C:\Users\CYMR90~1\AppData\Local\Temp\ccMBshSz.s:25527  .debug_str:0000000000012757 .LASF4811
C:\Users\CYMR90~1\AppData\Local\Temp\ccMBshSz.s:27924  .debug_str:000000000001c24b .LASF4812
C:\Users\CYMR90~1\AppData\Local\Temp\ccMBshSz.s:27302  .debug_str:0000000000019a74 .LASF4813
C:\Users\CYMR90~1\AppData\Local\Temp\ccMBshSz.s:31694  .debug_str:000000000002b071 .LASF4814
C:\Users\CYMR90~1\AppData\Local\Temp\ccMBshSz.s:23853  .debug_str:000000000000be07 .LASF4815
C:\Users\CYMR90~1\AppData\Local\Temp\ccMBshSz.s:26882  .debug_str:0000000000017ee9 .LASF4816
C:\Users\CYMR90~1\AppData\Local\Temp\ccMBshSz.s:22343  .debug_str:0000000000005c12 .LASF4817
C:\Users\CYMR90~1\AppData\Local\Temp\ccMBshSz.s:28536  .debug_str:000000000001ea54 .LASF4818
C:\Users\CYMR90~1\AppData\Local\Temp\ccMBshSz.s:29094  .debug_str:0000000000020c1b .LASF4819
C:\Users\CYMR90~1\AppData\Local\Temp\ccMBshSz.s:29098  .debug_str:0000000000020c54 .LASF4820
C:\Users\CYMR90~1\AppData\Local\Temp\ccMBshSz.s:21653  .debug_str:0000000000002f90 .LASF4821
C:\Users\CYMR90~1\AppData\Local\Temp\ccMBshSz.s:24943  .debug_str:00000000000101e5 .LASF4822
C:\Users\CYMR90~1\AppData\Local\Temp\ccMBshSz.s:31438  .debug_str:000000000002a0e9 .LASF4823
C:\Users\CYMR90~1\AppData\Local\Temp\ccMBshSz.s:23053  .debug_str:0000000000008a59 .LASF4824
C:\Users\CYMR90~1\AppData\Local\Temp\ccMBshSz.s:24807  .debug_str:000000000000f953 .LASF4825
C:\Users\CYMR90~1\AppData\Local\Temp\ccMBshSz.s:21591  .debug_str:0000000000002bea .LASF4826
C:\Users\CYMR90~1\AppData\Local\Temp\ccMBshSz.s:25577  .debug_str:0000000000012a9a .LASF4827
C:\Users\CYMR90~1\AppData\Local\Temp\ccMBshSz.s:26680  .debug_str:000000000001726d .LASF4828
C:\Users\CYMR90~1\AppData\Local\Temp\ccMBshSz.s:30038  .debug_str:00000000000245c1 .LASF4829
C:\Users\CYMR90~1\AppData\Local\Temp\ccMBshSz.s:23937  .debug_str:000000000000c379 .LASF4830
C:\Users\CYMR90~1\AppData\Local\Temp\ccMBshSz.s:23331  .debug_str:0000000000009b7e .LASF4831
C:\Users\CYMR90~1\AppData\Local\Temp\ccMBshSz.s:26145  .debug_str:0000000000014ebe .LASF4832
C:\Users\CYMR90~1\AppData\Local\Temp\ccMBshSz.s:23075  .debug_str:0000000000008bc1 .LASF4833
C:\Users\CYMR90~1\AppData\Local\Temp\ccMBshSz.s:23007  .debug_str:000000000000873e .LASF4834
C:\Users\CYMR90~1\AppData\Local\Temp\ccMBshSz.s:27438  .debug_str:000000000001a254 .LASF4835
C:\Users\CYMR90~1\AppData\Local\Temp\ccMBshSz.s:29978  .debug_str:0000000000024198 .LASF4836
C:\Users\CYMR90~1\AppData\Local\Temp\ccMBshSz.s:31680  .debug_str:000000000002af9f .LASF4837
C:\Users\CYMR90~1\AppData\Local\Temp\ccMBshSz.s:26423  .debug_str:0000000000015ff5 .LASF4838
C:\Users\CYMR90~1\AppData\Local\Temp\ccMBshSz.s:21903  .debug_str:0000000000003fe6 .LASF4839
C:\Users\CYMR90~1\AppData\Local\Temp\ccMBshSz.s:30854  .debug_str:0000000000027ad6 .LASF4840
C:\Users\CYMR90~1\AppData\Local\Temp\ccMBshSz.s:23307  .debug_str:00000000000099e4 .LASF4841
C:\Users\CYMR90~1\AppData\Local\Temp\ccMBshSz.s:30594  .debug_str:0000000000026a88 .LASF4842
C:\Users\CYMR90~1\AppData\Local\Temp\ccMBshSz.s:26928  .debug_str:0000000000018182 .LASF4843
C:\Users\CYMR90~1\AppData\Local\Temp\ccMBshSz.s:26836  .debug_str:0000000000017c21 .LASF4844
C:\Users\CYMR90~1\AppData\Local\Temp\ccMBshSz.s:30728  .debug_str:000000000002727f .LASF4845
C:\Users\CYMR90~1\AppData\Local\Temp\ccMBshSz.s:24697  .debug_str:000000000000f250 .LASF4846
C:\Users\CYMR90~1\AppData\Local\Temp\ccMBshSz.s:28106  .debug_str:000000000001ce0f .LASF4847
C:\Users\CYMR90~1\AppData\Local\Temp\ccMBshSz.s:27128  .debug_str:0000000000018e6e .LASF4848
C:\Users\CYMR90~1\AppData\Local\Temp\ccMBshSz.s:24013  .debug_str:000000000000c872 .LASF4849
C:\Users\CYMR90~1\AppData\Local\Temp\ccMBshSz.s:30240  .debug_str:00000000000253bc .LASF4850
C:\Users\CYMR90~1\AppData\Local\Temp\ccMBshSz.s:23441  .debug_str:000000000000a221 .LASF4851
C:\Users\CYMR90~1\AppData\Local\Temp\ccMBshSz.s:30060  .debug_str:00000000000246fe .LASF4852
C:\Users\CYMR90~1\AppData\Local\Temp\ccMBshSz.s:27862  .debug_str:000000000001be20 .LASF4853
C:\Users\CYMR90~1\AppData\Local\Temp\ccMBshSz.s:24151  .debug_str:000000000000d10a .LASF4854
C:\Users\CYMR90~1\AppData\Local\Temp\ccMBshSz.s:25013  .debug_str:000000000001062e .LASF4855
C:\Users\CYMR90~1\AppData\Local\Temp\ccMBshSz.s:21369  .debug_str:0000000000001e9b .LASF4856
C:\Users\CYMR90~1\AppData\Local\Temp\ccMBshSz.s:26632  .debug_str:0000000000016fb5 .LASF4857
C:\Users\CYMR90~1\AppData\Local\Temp\ccMBshSz.s:27942  .debug_str:000000000001c33f .LASF4858
C:\Users\CYMR90~1\AppData\Local\Temp\ccMBshSz.s:26039  .debug_str:00000000000147d5 .LASF4859
C:\Users\CYMR90~1\AppData\Local\Temp\ccMBshSz.s:21987  .debug_str:0000000000004560 .LASF4860
C:\Users\CYMR90~1\AppData\Local\Temp\ccMBshSz.s:27580  .debug_str:000000000001acb0 .LASF4861
C:\Users\CYMR90~1\AppData\Local\Temp\ccMBshSz.s:24895  .debug_str:000000000000fef3 .LASF4862
C:\Users\CYMR90~1\AppData\Local\Temp\ccMBshSz.s:24751  .debug_str:000000000000f596 .LASF4863
C:\Users\CYMR90~1\AppData\Local\Temp\ccMBshSz.s:23847  .debug_str:000000000000bd75 .LASF4864
C:\Users\CYMR90~1\AppData\Local\Temp\ccMBshSz.s:20883  .debug_str:000000000000006a .LASF4865
C:\Users\CYMR90~1\AppData\Local\Temp\ccMBshSz.s:23923  .debug_str:000000000000c2ab .LASF4866
C:\Users\CYMR90~1\AppData\Local\Temp\ccMBshSz.s:22523  .debug_str:00000000000066b4 .LASF4867
C:\Users\CYMR90~1\AppData\Local\Temp\ccMBshSz.s:31890  .debug_str:000000000002bcdf .LASF4868
C:\Users\CYMR90~1\AppData\Local\Temp\ccMBshSz.s:26297  .debug_str:00000000000157ab .LASF4869
C:\Users\CYMR90~1\AppData\Local\Temp\ccMBshSz.s:23809  .debug_str:000000000000bafb .LASF4870
C:\Users\CYMR90~1\AppData\Local\Temp\ccMBshSz.s:26135  .debug_str:0000000000014e13 .LASF4871
C:\Users\CYMR90~1\AppData\Local\Temp\ccMBshSz.s:23767  .debug_str:000000000000b82c .LASF4872
C:\Users\CYMR90~1\AppData\Local\Temp\ccMBshSz.s:26345  .debug_str:0000000000015a8d .LASF4873
C:\Users\CYMR90~1\AppData\Local\Temp\ccMBshSz.s:25209  .debug_str:00000000000111f9 .LASF4874
C:\Users\CYMR90~1\AppData\Local\Temp\ccMBshSz.s:25135  .debug_str:0000000000010db3 .LASF4875
C:\Users\CYMR90~1\AppData\Local\Temp\ccMBshSz.s:25449  .debug_str:0000000000012263 .LASF4876
C:\Users\CYMR90~1\AppData\Local\Temp\ccMBshSz.s:26205  .debug_str:00000000000152a0 .LASF4877
C:\Users\CYMR90~1\AppData\Local\Temp\ccMBshSz.s:25117  .debug_str:0000000000010cd6 .LASF4878
C:\Users\CYMR90~1\AppData\Local\Temp\ccMBshSz.s:31042  .debug_str:0000000000028884 .LASF4879
C:\Users\CYMR90~1\AppData\Local\Temp\ccMBshSz.s:22787  .debug_str:00000000000077c1 .LASF4880
C:\Users\CYMR90~1\AppData\Local\Temp\ccMBshSz.s:31938  .debug_str:000000000002bfea .LASF4881
C:\Users\CYMR90~1\AppData\Local\Temp\ccMBshSz.s:31954  .debug_str:000000000002c151 .LASF4882
C:\Users\CYMR90~1\AppData\Local\Temp\ccMBshSz.s:25683  .debug_str:000000000001318b .LASF4883
C:\Users\CYMR90~1\AppData\Local\Temp\ccMBshSz.s:21085  .debug_str:0000000000000cc5 .LASF4884
C:\Users\CYMR90~1\AppData\Local\Temp\ccMBshSz.s:30568  .debug_str:0000000000026918 .LASF4885
C:\Users\CYMR90~1\AppData\Local\Temp\ccMBshSz.s:28574  .debug_str:000000000001ec3b .LASF4886
C:\Users\CYMR90~1\AppData\Local\Temp\ccMBshSz.s:22511  .debug_str:0000000000006609 .LASF4887
C:\Users\CYMR90~1\AppData\Local\Temp\ccMBshSz.s:31880  .debug_str:000000000002bc58 .LASF4888
C:\Users\CYMR90~1\AppData\Local\Temp\ccMBshSz.s:21125  .debug_str:0000000000000f97 .LASF4889
C:\Users\CYMR90~1\AppData\Local\Temp\ccMBshSz.s:25055  .debug_str:000000000001087a .LASF4890
C:\Users\CYMR90~1\AppData\Local\Temp\ccMBshSz.s:30172  .debug_str:0000000000024e99 .LASF4891
C:\Users\CYMR90~1\AppData\Local\Temp\ccMBshSz.s:28454  .debug_str:000000000001e505 .LASF4892
C:\Users\CYMR90~1\AppData\Local\Temp\ccMBshSz.s:22187  .debug_str:000000000000527f .LASF4893
C:\Users\CYMR90~1\AppData\Local\Temp\ccMBshSz.s:29246  .debug_str:0000000000021541 .LASF4894
C:\Users\CYMR90~1\AppData\Local\Temp\ccMBshSz.s:26399  .debug_str:0000000000015e27 .LASF4895
C:\Users\CYMR90~1\AppData\Local\Temp\ccMBshSz.s:22419  .debug_str:0000000000006067 .LASF4896
C:\Users\CYMR90~1\AppData\Local\Temp\ccMBshSz.s:27382  .debug_str:0000000000019f22 .LASF4897
C:\Users\CYMR90~1\AppData\Local\Temp\ccMBshSz.s:26223  .debug_str:0000000000015386 .LASF4898
C:\Users\CYMR90~1\AppData\Local\Temp\ccMBshSz.s:27642  .debug_str:000000000001b0df .LASF4899
C:\Users\CYMR90~1\AppData\Local\Temp\ccMBshSz.s:31074  .debug_str:0000000000028a7a .LASF4900
C:\Users\CYMR90~1\AppData\Local\Temp\ccMBshSz.s:25861  .debug_str:0000000000013ca8 .LASF4901
C:\Users\CYMR90~1\AppData\Local\Temp\ccMBshSz.s:25791  .debug_str:0000000000013895 .LASF4902
C:\Users\CYMR90~1\AppData\Local\Temp\ccMBshSz.s:21479  .debug_str:00000000000024be .LASF4903
C:\Users\CYMR90~1\AppData\Local\Temp\ccMBshSz.s:28506  .debug_str:000000000001e85f .LASF4904
C:\Users\CYMR90~1\AppData\Local\Temp\ccMBshSz.s:27962  .debug_str:000000000001c458 .LASF4905
C:\Users\CYMR90~1\AppData\Local\Temp\ccMBshSz.s:30294  .debug_str:0000000000025775 .LASF4906
C:\Users\CYMR90~1\AppData\Local\Temp\ccMBshSz.s:22567  .debug_str:000000000000699d .LASF4907
C:\Users\CYMR90~1\AppData\Local\Temp\ccMBshSz.s:26944  .debug_str:000000000001826d .LASF4908
C:\Users\CYMR90~1\AppData\Local\Temp\ccMBshSz.s:23167  .debug_str:000000000000914d .LASF4909
C:\Users\CYMR90~1\AppData\Local\Temp\ccMBshSz.s:23333  .debug_str:0000000000009ba1 .LASF4910
C:\Users\CYMR90~1\AppData\Local\Temp\ccMBshSz.s:21347  .debug_str:0000000000001d32 .LASF4911
C:\Users\CYMR90~1\AppData\Local\Temp\ccMBshSz.s:31978  .debug_str:000000000002c2b3 .LASF4912
C:\Users\CYMR90~1\AppData\Local\Temp\ccMBshSz.s:26083  .debug_str:0000000000014a78 .LASF4913
C:\Users\CYMR90~1\AppData\Local\Temp\ccMBshSz.s:23805  .debug_str:000000000000bacd .LASF4914
C:\Users\CYMR90~1\AppData\Local\Temp\ccMBshSz.s:25573  .debug_str:0000000000012a72 .LASF4915
C:\Users\CYMR90~1\AppData\Local\Temp\ccMBshSz.s:26483  .debug_str:00000000000163b2 .LASF4916
C:\Users\CYMR90~1\AppData\Local\Temp\ccMBshSz.s:26149  .debug_str:0000000000014f03 .LASF4917
C:\Users\CYMR90~1\AppData\Local\Temp\ccMBshSz.s:22711  .debug_str:000000000000731d .LASF4918
C:\Users\CYMR90~1\AppData\Local\Temp\ccMBshSz.s:26924  .debug_str:0000000000018145 .LASF4919
C:\Users\CYMR90~1\AppData\Local\Temp\ccMBshSz.s:24795  .debug_str:000000000000f8be .LASF4920
C:\Users\CYMR90~1\AppData\Local\Temp\ccMBshSz.s:26329  .debug_str:000000000001599f .LASF4921
C:\Users\CYMR90~1\AppData\Local\Temp\ccMBshSz.s:22847  .debug_str:0000000000007bcd .LASF4922
C:\Users\CYMR90~1\AppData\Local\Temp\ccMBshSz.s:27600  .debug_str:000000000001ade2 .LASF4923
C:\Users\CYMR90~1\AppData\Local\Temp\ccMBshSz.s:32228  .debug_str:000000000002d2ff .LASF4924
C:\Users\CYMR90~1\AppData\Local\Temp\ccMBshSz.s:21779  .debug_str:00000000000037b3 .LASF4925
C:\Users\CYMR90~1\AppData\Local\Temp\ccMBshSz.s:25433  .debug_str:0000000000012149 .LASF4926
C:\Users\CYMR90~1\AppData\Local\Temp\ccMBshSz.s:22689  .debug_str:0000000000007179 .LASF4927
C:\Users\CYMR90~1\AppData\Local\Temp\ccMBshSz.s:22145  .debug_str:000000000000500e .LASF4928
C:\Users\CYMR90~1\AppData\Local\Temp\ccMBshSz.s:21351  .debug_str:0000000000001d8b .LASF4929
C:\Users\CYMR90~1\AppData\Local\Temp\ccMBshSz.s:23329  .debug_str:0000000000009b5d .LASF4930
C:\Users\CYMR90~1\AppData\Local\Temp\ccMBshSz.s:24217  .debug_str:000000000000d5c1 .LASF4931
C:\Users\CYMR90~1\AppData\Local\Temp\ccMBshSz.s:21425  .debug_str:0000000000002199 .LASF4932
C:\Users\CYMR90~1\AppData\Local\Temp\ccMBshSz.s:29382  .debug_str:0000000000021d90 .LASF4933
C:\Users\CYMR90~1\AppData\Local\Temp\ccMBshSz.s:29014  .debug_str:0000000000020754 .LASF4934
C:\Users\CYMR90~1\AppData\Local\Temp\ccMBshSz.s:30738  .debug_str:000000000002735d .LASF4935
C:\Users\CYMR90~1\AppData\Local\Temp\ccMBshSz.s:21291  .debug_str:00000000000019ce .LASF4936
C:\Users\CYMR90~1\AppData\Local\Temp\ccMBshSz.s:24815  .debug_str:000000000000f9da .LASF4937
C:\Users\CYMR90~1\AppData\Local\Temp\ccMBshSz.s:23213  .debug_str:00000000000093e0 .LASF4938
C:\Users\CYMR90~1\AppData\Local\Temp\ccMBshSz.s:30174  .debug_str:0000000000024eb1 .LASF4939
C:\Users\CYMR90~1\AppData\Local\Temp\ccMBshSz.s:31660  .debug_str:000000000002ae32 .LASF4940
C:\Users\CYMR90~1\AppData\Local\Temp\ccMBshSz.s:26652  .debug_str:00000000000170fe .LASF4941
C:\Users\CYMR90~1\AppData\Local\Temp\ccMBshSz.s:26762  .debug_str:000000000001777e .LASF4942
C:\Users\CYMR90~1\AppData\Local\Temp\ccMBshSz.s:28328  .debug_str:000000000001dd16 .LASF4943
C:\Users\CYMR90~1\AppData\Local\Temp\ccMBshSz.s:23459  .debug_str:000000000000a34a .LASF4944
C:\Users\CYMR90~1\AppData\Local\Temp\ccMBshSz.s:28762  .debug_str:000000000001f783 .LASF4945
C:\Users\CYMR90~1\AppData\Local\Temp\ccMBshSz.s:29944  .debug_str:0000000000023f05 .LASF4946
C:\Users\CYMR90~1\AppData\Local\Temp\ccMBshSz.s:25565  .debug_str:0000000000012a05 .LASF4947
C:\Users\CYMR90~1\AppData\Local\Temp\ccMBshSz.s:29612  .debug_str:0000000000022afd .LASF4948
C:\Users\CYMR90~1\AppData\Local\Temp\ccMBshSz.s:25729  .debug_str:00000000000134d1 .LASF4949
C:\Users\CYMR90~1\AppData\Local\Temp\ccMBshSz.s:30888  .debug_str:0000000000027d49 .LASF4950
C:\Users\CYMR90~1\AppData\Local\Temp\ccMBshSz.s:25225  .debug_str:00000000000112ec .LASF4951
C:\Users\CYMR90~1\AppData\Local\Temp\ccMBshSz.s:23817  .debug_str:000000000000bb62 .LASF4952
C:\Users\CYMR90~1\AppData\Local\Temp\ccMBshSz.s:29936  .debug_str:0000000000023e88 .LASF4953
C:\Users\CYMR90~1\AppData\Local\Temp\ccMBshSz.s:28922  .debug_str:0000000000020173 .LASF4954
C:\Users\CYMR90~1\AppData\Local\Temp\ccMBshSz.s:26299  .debug_str:00000000000157c1 .LASF4955
C:\Users\CYMR90~1\AppData\Local\Temp\ccMBshSz.s:21809  .debug_str:0000000000003999 .LASF4956
C:\Users\CYMR90~1\AppData\Local\Temp\ccMBshSz.s:26634  .debug_str:0000000000016fdf .LASF4957
C:\Users\CYMR90~1\AppData\Local\Temp\ccMBshSz.s:21749  .debug_str:00000000000035f7 .LASF4958
C:\Users\CYMR90~1\AppData\Local\Temp\ccMBshSz.s:22079  .debug_str:0000000000004be8 .LASF4959
C:\Users\CYMR90~1\AppData\Local\Temp\ccMBshSz.s:22471  .debug_str:000000000000639a .LASF4960
C:\Users\CYMR90~1\AppData\Local\Temp\ccMBshSz.s:30532  .debug_str:00000000000266c7 .LASF4961
C:\Users\CYMR90~1\AppData\Local\Temp\ccMBshSz.s:31442  .debug_str:000000000002a122 .LASF4962
C:\Users\CYMR90~1\AppData\Local\Temp\ccMBshSz.s:20993  .debug_str:00000000000006e1 .LASF4963
C:\Users\CYMR90~1\AppData\Local\Temp\ccMBshSz.s:27518  .debug_str:000000000001a8f7 .LASF4964
C:\Users\CYMR90~1\AppData\Local\Temp\ccMBshSz.s:31918  .debug_str:000000000002beb0 .LASF4965
C:\Users\CYMR90~1\AppData\Local\Temp\ccMBshSz.s:23639  .debug_str:000000000000af5c .LASF4966
C:\Users\CYMR90~1\AppData\Local\Temp\ccMBshSz.s:22561  .debug_str:0000000000006945 .LASF4967
C:\Users\CYMR90~1\AppData\Local\Temp\ccMBshSz.s:30842  .debug_str:0000000000027a0f .LASF4968
C:\Users\CYMR90~1\AppData\Local\Temp\ccMBshSz.s:27540  .debug_str:000000000001aa45 .LASF4969
C:\Users\CYMR90~1\AppData\Local\Temp\ccMBshSz.s:28668  .debug_str:000000000001f1fe .LASF4970
C:\Users\CYMR90~1\AppData\Local\Temp\ccMBshSz.s:27794  .debug_str:000000000001b9bd .LASF4971
C:\Users\CYMR90~1\AppData\Local\Temp\ccMBshSz.s:22267  .debug_str:0000000000005764 .LASF4972
C:\Users\CYMR90~1\AppData\Local\Temp\ccMBshSz.s:29700  .debug_str:000000000002306a .LASF4973
C:\Users\CYMR90~1\AppData\Local\Temp\ccMBshSz.s:29720  .debug_str:000000000002314f .LASF4974
C:\Users\CYMR90~1\AppData\Local\Temp\ccMBshSz.s:30208  .debug_str:00000000000250af .LASF4975
C:\Users\CYMR90~1\AppData\Local\Temp\ccMBshSz.s:31144  .debug_str:0000000000028e82 .LASF4976
C:\Users\CYMR90~1\AppData\Local\Temp\ccMBshSz.s:29758  .debug_str:0000000000023389 .LASF4977
C:\Users\CYMR90~1\AppData\Local\Temp\ccMBshSz.s:31274  .debug_str:0000000000029712 .LASF4978
C:\Users\CYMR90~1\AppData\Local\Temp\ccMBshSz.s:25641  .debug_str:0000000000012ed7 .LASF4979
C:\Users\CYMR90~1\AppData\Local\Temp\ccMBshSz.s:25471  .debug_str:00000000000123b8 .LASF4980
C:\Users\CYMR90~1\AppData\Local\Temp\ccMBshSz.s:29288  .debug_str:00000000000217c1 .LASF4981
C:\Users\CYMR90~1\AppData\Local\Temp\ccMBshSz.s:32200  .debug_str:000000000002d122 .LASF4982
C:\Users\CYMR90~1\AppData\Local\Temp\ccMBshSz.s:25645  .debug_str:0000000000012f1b .LASF4983
C:\Users\CYMR90~1\AppData\Local\Temp\ccMBshSz.s:26840  .debug_str:0000000000017c5e .LASF4984
C:\Users\CYMR90~1\AppData\Local\Temp\ccMBshSz.s:22137  .debug_str:0000000000004f9a .LASF4985
C:\Users\CYMR90~1\AppData\Local\Temp\ccMBshSz.s:29272  .debug_str:00000000000216ca .LASF4986
C:\Users\CYMR90~1\AppData\Local\Temp\ccMBshSz.s:26573  .debug_str:00000000000169d4 .LASF4987
C:\Users\CYMR90~1\AppData\Local\Temp\ccMBshSz.s:21651  .debug_str:0000000000002f77 .LASF4988
C:\Users\CYMR90~1\AppData\Local\Temp\ccMBshSz.s:28568  .debug_str:000000000001ebed .LASF4989
C:\Users\CYMR90~1\AppData\Local\Temp\ccMBshSz.s:29514  .debug_str:00000000000224f4 .LASF4990
C:\Users\CYMR90~1\AppData\Local\Temp\ccMBshSz.s:22425  .debug_str:00000000000060d9 .LASF4991
C:\Users\CYMR90~1\AppData\Local\Temp\ccMBshSz.s:29972  .debug_str:0000000000024071 .LASF4992
C:\Users\CYMR90~1\AppData\Local\Temp\ccMBshSz.s:28208  .debug_str:000000000001d57d .LASF4993
C:\Users\CYMR90~1\AppData\Local\Temp\ccMBshSz.s:28188  .debug_str:000000000001d44a .LASF4994
C:\Users\CYMR90~1\AppData\Local\Temp\ccMBshSz.s:29296  .debug_str:000000000002186a .LASF4995
C:\Users\CYMR90~1\AppData\Local\Temp\ccMBshSz.s:25521  .debug_str:00000000000126e9 .LASF4996
C:\Users\CYMR90~1\AppData\Local\Temp\ccMBshSz.s:26940  .debug_str:0000000000018231 .LASF4997
C:\Users\CYMR90~1\AppData\Local\Temp\ccMBshSz.s:26213  .debug_str:0000000000015307 .LASF4998
C:\Users\CYMR90~1\AppData\Local\Temp\ccMBshSz.s:27524  .debug_str:000000000001a941 .LASF4999
C:\Users\CYMR90~1\AppData\Local\Temp\ccMBshSz.s:31390  .debug_str:0000000000029e2d .LASF5000
C:\Users\CYMR90~1\AppData\Local\Temp\ccMBshSz.s:23993  .debug_str:000000000000c6e1 .LASF5001
C:\Users\CYMR90~1\AppData\Local\Temp\ccMBshSz.s:23623  .debug_str:000000000000ae1f .LASF5002
C:\Users\CYMR90~1\AppData\Local\Temp\ccMBshSz.s:24625  .debug_str:000000000000ee04 .LASF5003
C:\Users\CYMR90~1\AppData\Local\Temp\ccMBshSz.s:22605  .debug_str:0000000000006bf6 .LASF5004
C:\Users\CYMR90~1\AppData\Local\Temp\ccMBshSz.s:28936  .debug_str:0000000000020214 .LASF5005
C:\Users\CYMR90~1\AppData\Local\Temp\ccMBshSz.s:21483  .debug_str:00000000000024f4 .LASF5006
C:\Users\CYMR90~1\AppData\Local\Temp\ccMBshSz.s:29748  .debug_str:00000000000232e7 .LASF5007
C:\Users\CYMR90~1\AppData\Local\Temp\ccMBshSz.s:26559  .debug_str:00000000000168aa .LASF5008
C:\Users\CYMR90~1\AppData\Local\Temp\ccMBshSz.s:31614  .debug_str:000000000002ab91 .LASF5009
C:\Users\CYMR90~1\AppData\Local\Temp\ccMBshSz.s:24813  .debug_str:000000000000f9ba .LASF5010
C:\Users\CYMR90~1\AppData\Local\Temp\ccMBshSz.s:30932  .debug_str:000000000002803f .LASF5011
C:\Users\CYMR90~1\AppData\Local\Temp\ccMBshSz.s:22809  .debug_str:000000000000793f .LASF5012
C:\Users\CYMR90~1\AppData\Local\Temp\ccMBshSz.s:24233  .debug_str:000000000000d6eb .LASF5013
C:\Users\CYMR90~1\AppData\Local\Temp\ccMBshSz.s:32110  .debug_str:000000000002cb46 .LASF5014
C:\Users\CYMR90~1\AppData\Local\Temp\ccMBshSz.s:23859  .debug_str:000000000000be80 .LASF5015
C:\Users\CYMR90~1\AppData\Local\Temp\ccMBshSz.s:23433  .debug_str:000000000000a1b4 .LASF5016
C:\Users\CYMR90~1\AppData\Local\Temp\ccMBshSz.s:30846  .debug_str:0000000000027a67 .LASF5017
C:\Users\CYMR90~1\AppData\Local\Temp\ccMBshSz.s:25263  .debug_str:0000000000011576 .LASF5018
C:\Users\CYMR90~1\AppData\Local\Temp\ccMBshSz.s:22055  .debug_str:0000000000004a77 .LASF5019
C:\Users\CYMR90~1\AppData\Local\Temp\ccMBshSz.s:23375  .debug_str:0000000000009e06 .LASF5020
C:\Users\CYMR90~1\AppData\Local\Temp\ccMBshSz.s:27170  .debug_str:00000000000191b2 .LASF5021
C:\Users\CYMR90~1\AppData\Local\Temp\ccMBshSz.s:28150  .debug_str:000000000001d230 .LASF5022
C:\Users\CYMR90~1\AppData\Local\Temp\ccMBshSz.s:26055  .debug_str:00000000000148b0 .LASF5023
C:\Users\CYMR90~1\AppData\Local\Temp\ccMBshSz.s:24071  .debug_str:000000000000cc69 .LASF5024
C:\Users\CYMR90~1\AppData\Local\Temp\ccMBshSz.s:26359  .debug_str:0000000000015b4a .LASF5025
C:\Users\CYMR90~1\AppData\Local\Temp\ccMBshSz.s:24461  .debug_str:000000000000e3f1 .LASF5026
C:\Users\CYMR90~1\AppData\Local\Temp\ccMBshSz.s:27344  .debug_str:0000000000019cf8 .LASF5027
C:\Users\CYMR90~1\AppData\Local\Temp\ccMBshSz.s:27086  .debug_str:0000000000018b14 .LASF5028
C:\Users\CYMR90~1\AppData\Local\Temp\ccMBshSz.s:29824  .debug_str:00000000000237d8 .LASF5029
C:\Users\CYMR90~1\AppData\Local\Temp\ccMBshSz.s:22015  .debug_str:000000000000474b .LASF5030
C:\Users\CYMR90~1\AppData\Local\Temp\ccMBshSz.s:21065  .debug_str:0000000000000b9f .LASF5031
C:\Users\CYMR90~1\AppData\Local\Temp\ccMBshSz.s:25355  .debug_str:0000000000011c27 .LASF5032
C:\Users\CYMR90~1\AppData\Local\Temp\ccMBshSz.s:26105  .debug_str:0000000000014bd4 .LASF5033
C:\Users\CYMR90~1\AppData\Local\Temp\ccMBshSz.s:23019  .debug_str:00000000000087f3 .LASF5034
C:\Users\CYMR90~1\AppData\Local\Temp\ccMBshSz.s:22955  .debug_str:00000000000083fc .LASF5035
C:\Users\CYMR90~1\AppData\Local\Temp\ccMBshSz.s:23521  .debug_str:000000000000a700 .LASF5036
C:\Users\CYMR90~1\AppData\Local\Temp\ccMBshSz.s:27176  .debug_str:0000000000019214 .LASF5037
C:\Users\CYMR90~1\AppData\Local\Temp\ccMBshSz.s:24397  .debug_str:000000000000e02f .LASF5038
C:\Users\CYMR90~1\AppData\Local\Temp\ccMBshSz.s:32032  .debug_str:000000000002c654 .LASF5039
C:\Users\CYMR90~1\AppData\Local\Temp\ccMBshSz.s:21295  .debug_str:0000000000001a0c .LASF5040
C:\Users\CYMR90~1\AppData\Local\Temp\ccMBshSz.s:30922  .debug_str:0000000000027f8e .LASF5041
C:\Users\CYMR90~1\AppData\Local\Temp\ccMBshSz.s:28268  .debug_str:000000000001d99b .LASF5042
C:\Users\CYMR90~1\AppData\Local\Temp\ccMBshSz.s:26614  .debug_str:0000000000016e80 .LASF5043
C:\Users\CYMR90~1\AppData\Local\Temp\ccMBshSz.s:23481  .debug_str:000000000000a4c9 .LASF5044
C:\Users\CYMR90~1\AppData\Local\Temp\ccMBshSz.s:29336  .debug_str:0000000000021a8b .LASF5045
C:\Users\CYMR90~1\AppData\Local\Temp\ccMBshSz.s:25647  .debug_str:0000000000012f3b .LASF5046
C:\Users\CYMR90~1\AppData\Local\Temp\ccMBshSz.s:27072  .debug_str:0000000000018a32 .LASF5047
C:\Users\CYMR90~1\AppData\Local\Temp\ccMBshSz.s:25849  .debug_str:0000000000013bff .LASF5048
C:\Users\CYMR90~1\AppData\Local\Temp\ccMBshSz.s:30008  .debug_str:00000000000243b3 .LASF5049
C:\Users\CYMR90~1\AppData\Local\Temp\ccMBshSz.s:22993  .debug_str:0000000000008686 .LASF5050
C:\Users\CYMR90~1\AppData\Local\Temp\ccMBshSz.s:21547  .debug_str:0000000000002932 .LASF5051
C:\Users\CYMR90~1\AppData\Local\Temp\ccMBshSz.s:25325  .debug_str:0000000000011a8c .LASF5052
C:\Users\CYMR90~1\AppData\Local\Temp\ccMBshSz.s:28894  .debug_str:000000000001ffca .LASF5053
C:\Users\CYMR90~1\AppData\Local\Temp\ccMBshSz.s:21699  .debug_str:000000000000328c .LASF5054
C:\Users\CYMR90~1\AppData\Local\Temp\ccMBshSz.s:28828  .debug_str:000000000001fb76 .LASF5055
C:\Users\CYMR90~1\AppData\Local\Temp\ccMBshSz.s:25737  .debug_str:000000000001356d .LASF5056
C:\Users\CYMR90~1\AppData\Local\Temp\ccMBshSz.s:31268  .debug_str:0000000000029696 .LASF5057
C:\Users\CYMR90~1\AppData\Local\Temp\ccMBshSz.s:23465  .debug_str:000000000000a3a1 .LASF5058
C:\Users\CYMR90~1\AppData\Local\Temp\ccMBshSz.s:27166  .debug_str:000000000001915f .LASF5059
C:\Users\CYMR90~1\AppData\Local\Temp\ccMBshSz.s:31514  .debug_str:000000000002a55b .LASF5060
C:\Users\CYMR90~1\AppData\Local\Temp\ccMBshSz.s:22513  .debug_str:0000000000006620 .LASF5061
C:\Users\CYMR90~1\AppData\Local\Temp\ccMBshSz.s:31508  .debug_str:000000000002a4d6 .LASF5062
C:\Users\CYMR90~1\AppData\Local\Temp\ccMBshSz.s:21629  .debug_str:0000000000002e28 .LASF5063
C:\Users\CYMR90~1\AppData\Local\Temp\ccMBshSz.s:27604  .debug_str:000000000001ae1f .LASF5064
C:\Users\CYMR90~1\AppData\Local\Temp\ccMBshSz.s:24727  .debug_str:000000000000f424 .LASF5065
C:\Users\CYMR90~1\AppData\Local\Temp\ccMBshSz.s:25923  .debug_str:00000000000140be .LASF5066
C:\Users\CYMR90~1\AppData\Local\Temp\ccMBshSz.s:31150  .debug_str:0000000000028ee8 .LASF5067
C:\Users\CYMR90~1\AppData\Local\Temp\ccMBshSz.s:23185  .debug_str:000000000000923b .LASF5068
C:\Users\CYMR90~1\AppData\Local\Temp\ccMBshSz.s:28124  .debug_str:000000000001cfcf .LASF5069
C:\Users\CYMR90~1\AppData\Local\Temp\ccMBshSz.s:31556  .debug_str:000000000002a830 .LASF5070
C:\Users\CYMR90~1\AppData\Local\Temp\ccMBshSz.s:22009  .debug_str:00000000000046d3 .LASF5071
C:\Users\CYMR90~1\AppData\Local\Temp\ccMBshSz.s:30298  .debug_str:00000000000257bc .LASF5072
C:\Users\CYMR90~1\AppData\Local\Temp\ccMBshSz.s:32040  .debug_str:000000000002c6c4 .LASF5073
C:\Users\CYMR90~1\AppData\Local\Temp\ccMBshSz.s:27940  .debug_str:000000000001c317 .LASF5074
C:\Users\CYMR90~1\AppData\Local\Temp\ccMBshSz.s:28916  .debug_str:0000000000020112 .LASF5075
C:\Users\CYMR90~1\AppData\Local\Temp\ccMBshSz.s:32178  .debug_str:000000000002cfeb .LASF5076
C:\Users\CYMR90~1\AppData\Local\Temp\ccMBshSz.s:21753  .debug_str:0000000000003626 .LASF5077
C:\Users\CYMR90~1\AppData\Local\Temp\ccMBshSz.s:28526  .debug_str:000000000001e9a7 .LASF5078
C:\Users\CYMR90~1\AppData\Local\Temp\ccMBshSz.s:29306  .debug_str:00000000000218f5 .LASF5079
C:\Users\CYMR90~1\AppData\Local\Temp\ccMBshSz.s:21319  .debug_str:0000000000001b82 .LASF5080
C:\Users\CYMR90~1\AppData\Local\Temp\ccMBshSz.s:25561  .debug_str:00000000000129b8 .LASF5081
C:\Users\CYMR90~1\AppData\Local\Temp\ccMBshSz.s:26872  .debug_str:0000000000017e26 .LASF5082
C:\Users\CYMR90~1\AppData\Local\Temp\ccMBshSz.s:25063  .debug_str:0000000000010928 .LASF5083
C:\Users\CYMR90~1\AppData\Local\Temp\ccMBshSz.s:26976  .debug_str:0000000000018450 .LASF5084
C:\Users\CYMR90~1\AppData\Local\Temp\ccMBshSz.s:27562  .debug_str:000000000001abc5 .LASF5085
C:\Users\CYMR90~1\AppData\Local\Temp\ccMBshSz.s:22663  .debug_str:0000000000006fd0 .LASF5086
C:\Users\CYMR90~1\AppData\Local\Temp\ccMBshSz.s:32214  .debug_str:000000000002d213 .LASF5087
C:\Users\CYMR90~1\AppData\Local\Temp\ccMBshSz.s:26033  .debug_str:0000000000014753 .LASF5088
C:\Users\CYMR90~1\AppData\Local\Temp\ccMBshSz.s:27414  .debug_str:000000000001a0f8 .LASF5089
C:\Users\CYMR90~1\AppData\Local\Temp\ccMBshSz.s:22229  .debug_str:000000000000550d .LASF5090
C:\Users\CYMR90~1\AppData\Local\Temp\ccMBshSz.s:30030  .debug_str:0000000000024519 .LASF5091
C:\Users\CYMR90~1\AppData\Local\Temp\ccMBshSz.s:30926  .debug_str:0000000000027fd1 .LASF5092
C:\Users\CYMR90~1\AppData\Local\Temp\ccMBshSz.s:28988  .debug_str:0000000000020549 .LASF5093
C:\Users\CYMR90~1\AppData\Local\Temp\ccMBshSz.s:31988  .debug_str:000000000002c350 .LASF5094
C:\Users\CYMR90~1\AppData\Local\Temp\ccMBshSz.s:24577  .debug_str:000000000000eb94 .LASF5095
C:\Users\CYMR90~1\AppData\Local\Temp\ccMBshSz.s:26794  .debug_str:00000000000179a7 .LASF5096
C:\Users\CYMR90~1\AppData\Local\Temp\ccMBshSz.s:22933  .debug_str:00000000000082a6 .LASF5097
C:\Users\CYMR90~1\AppData\Local\Temp\ccMBshSz.s:22531  .debug_str:000000000000672e .LASF5098
C:\Users\CYMR90~1\AppData\Local\Temp\ccMBshSz.s:22127  .debug_str:0000000000004ee8 .LASF5099
C:\Users\CYMR90~1\AppData\Local\Temp\ccMBshSz.s:30750  .debug_str:00000000000274c0 .LASF5100
C:\Users\CYMR90~1\AppData\Local\Temp\ccMBshSz.s:26916  .debug_str:00000000000180ad .LASF5101
C:\Users\CYMR90~1\AppData\Local\Temp\ccMBshSz.s:25501  .debug_str:000000000001259b .LASF5102
C:\Users\CYMR90~1\AppData\Local\Temp\ccMBshSz.s:24021  .debug_str:000000000000c904 .LASF5103
C:\Users\CYMR90~1\AppData\Local\Temp\ccMBshSz.s:28508  .debug_str:000000000001e87d .LASF5104
C:\Users\CYMR90~1\AppData\Local\Temp\ccMBshSz.s:23183  .debug_str:000000000000920a .LASF5105
C:\Users\CYMR90~1\AppData\Local\Temp\ccMBshSz.s:31718  .debug_str:000000000002b1bc .LASF5106
C:\Users\CYMR90~1\AppData\Local\Temp\ccMBshSz.s:28500  .debug_str:000000000001e7cb .LASF5107
C:\Users\CYMR90~1\AppData\Local\Temp\ccMBshSz.s:23029  .debug_str:00000000000088b1 .LASF5108
C:\Users\CYMR90~1\AppData\Local\Temp\ccMBshSz.s:30838  .debug_str:00000000000279dd .LASF5109
C:\Users\CYMR90~1\AppData\Local\Temp\ccMBshSz.s:32220  .debug_str:000000000002d27d .LASF5110
C:\Users\CYMR90~1\AppData\Local\Temp\ccMBshSz.s:22281  .debug_str:000000000000583a .LASF5111
C:\Users\CYMR90~1\AppData\Local\Temp\ccMBshSz.s:31118  .debug_str:0000000000028d26 .LASF5112
C:\Users\CYMR90~1\AppData\Local\Temp\ccMBshSz.s:22109  .debug_str:0000000000004dc5 .LASF5113
C:\Users\CYMR90~1\AppData\Local\Temp\ccMBshSz.s:22445  .debug_str:0000000000006222 .LASF5114
C:\Users\CYMR90~1\AppData\Local\Temp\ccMBshSz.s:27434  .debug_str:000000000001a20f .LASF5115
C:\Users\CYMR90~1\AppData\Local\Temp\ccMBshSz.s:26115  .debug_str:0000000000014cb5 .LASF5116
C:\Users\CYMR90~1\AppData\Local\Temp\ccMBshSz.s:24863  .debug_str:000000000000fcd1 .LASF5117
C:\Users\CYMR90~1\AppData\Local\Temp\ccMBshSz.s:31574  .debug_str:000000000002a949 .LASF5118
C:\Users\CYMR90~1\AppData\Local\Temp\ccMBshSz.s:27878  .debug_str:000000000001bf20 .LASF5119
C:\Users\CYMR90~1\AppData\Local\Temp\ccMBshSz.s:29374  .debug_str:0000000000021d0e .LASF5120
C:\Users\CYMR90~1\AppData\Local\Temp\ccMBshSz.s:27638  .debug_str:000000000001b09f .LASF5121
C:\Users\CYMR90~1\AppData\Local\Temp\ccMBshSz.s:23231  .debug_str:00000000000094d9 .LASF5122
C:\Users\CYMR90~1\AppData\Local\Temp\ccMBshSz.s:20937  .debug_str:00000000000003d7 .LASF5123
C:\Users\CYMR90~1\AppData\Local\Temp\ccMBshSz.s:25285  .debug_str:00000000000117a8 .LASF5124
C:\Users\CYMR90~1\AppData\Local\Temp\ccMBshSz.s:21531  .debug_str:0000000000002828 .LASF5125
C:\Users\CYMR90~1\AppData\Local\Temp\ccMBshSz.s:28556  .debug_str:000000000001eb52 .LASF5126
C:\Users\CYMR90~1\AppData\Local\Temp\ccMBshSz.s:26139  .debug_str:0000000000014e68 .LASF5127
C:\Users\CYMR90~1\AppData\Local\Temp\ccMBshSz.s:20879  .debug_str:0000000000000000 .LASF5128
C:\Users\CYMR90~1\AppData\Local\Temp\ccMBshSz.s:21329  .debug_str:0000000000001c27 .LASF5129
C:\Users\CYMR90~1\AppData\Local\Temp\ccMBshSz.s:31270  .debug_str:00000000000296c3 .LASF5130
C:\Users\CYMR90~1\AppData\Local\Temp\ccMBshSz.s:28764  .debug_str:000000000001f7a1 .LASF5131
C:\Users\CYMR90~1\AppData\Local\Temp\ccMBshSz.s:30896  .debug_str:0000000000027dc0 .LASF5132
C:\Users\CYMR90~1\AppData\Local\Temp\ccMBshSz.s:22233  .debug_str:0000000000005557 .LASF5133
C:\Users\CYMR90~1\AppData\Local\Temp\ccMBshSz.s:30164  .debug_str:0000000000024e07 .LASF5134
C:\Users\CYMR90~1\AppData\Local\Temp\ccMBshSz.s:28872  .debug_str:000000000001fe44 .LASF5135
C:\Users\CYMR90~1\AppData\Local\Temp\ccMBshSz.s:27530  .debug_str:000000000001a9aa .LASF5136
C:\Users\CYMR90~1\AppData\Local\Temp\ccMBshSz.s:32204  .debug_str:000000000002d164 .LASF5137
C:\Users\CYMR90~1\AppData\Local\Temp\ccMBshSz.s:26710  .debug_str:000000000001743a .LASF5138
C:\Users\CYMR90~1\AppData\Local\Temp\ccMBshSz.s:22413  .debug_str:0000000000006000 .LASF5139
C:\Users\CYMR90~1\AppData\Local\Temp\ccMBshSz.s:24687  .debug_str:000000000000f1b4 .LASF5140
C:\Users\CYMR90~1\AppData\Local\Temp\ccMBshSz.s:25393  .debug_str:0000000000011eb3 .LASF5141
C:\Users\CYMR90~1\AppData\Local\Temp\ccMBshSz.s:27034  .debug_str:00000000000187e4 .LASF5142
C:\Users\CYMR90~1\AppData\Local\Temp\ccMBshSz.s:22203  .debug_str:000000000000536c .LASF5143
C:\Users\CYMR90~1\AppData\Local\Temp\ccMBshSz.s:30284  .debug_str:0000000000025697 .LASF5144
C:\Users\CYMR90~1\AppData\Local\Temp\ccMBshSz.s:31078  .debug_str:0000000000028aaf .LASF5145
C:\Users\CYMR90~1\AppData\Local\Temp\ccMBshSz.s:30536  .debug_str:00000000000266ee .LASF5146
C:\Users\CYMR90~1\AppData\Local\Temp\ccMBshSz.s:25197  .debug_str:0000000000011146 .LASF5147
C:\Users\CYMR90~1\AppData\Local\Temp\ccMBshSz.s:21985  .debug_str:0000000000004530 .LASF5148
C:\Users\CYMR90~1\AppData\Local\Temp\ccMBshSz.s:29034  .debug_str:0000000000020865 .LASF5149
C:\Users\CYMR90~1\AppData\Local\Temp\ccMBshSz.s:26377  .debug_str:0000000000015ca1 .LASF5150
C:\Users\CYMR90~1\AppData\Local\Temp\ccMBshSz.s:24077  .debug_str:000000000000ccca .LASF5151
C:\Users\CYMR90~1\AppData\Local\Temp\ccMBshSz.s:30512  .debug_str:0000000000026573 .LASF5152
C:\Users\CYMR90~1\AppData\Local\Temp\ccMBshSz.s:25661  .debug_str:0000000000013035 .LASF5153
C:\Users\CYMR90~1\AppData\Local\Temp\ccMBshSz.s:23889  .debug_str:000000000000c070 .LASF5154
C:\Users\CYMR90~1\AppData\Local\Temp\ccMBshSz.s:21795  .debug_str:00000000000038ca .LASF5155
C:\Users\CYMR90~1\AppData\Local\Temp\ccMBshSz.s:22725  .debug_str:000000000000740d .LASF5156
C:\Users\CYMR90~1\AppData\Local\Temp\ccMBshSz.s:24767  .debug_str:000000000000f70d .LASF5157
C:\Users\CYMR90~1\AppData\Local\Temp\ccMBshSz.s:22295  .debug_str:00000000000058f5 .LASF5158
C:\Users\CYMR90~1\AppData\Local\Temp\ccMBshSz.s:30960  .debug_str:0000000000028257 .LASF5159
C:\Users\CYMR90~1\AppData\Local\Temp\ccMBshSz.s:24893  .debug_str:000000000000fed1 .LASF5160
C:\Users\CYMR90~1\AppData\Local\Temp\ccMBshSz.s:21621  .debug_str:0000000000002db5 .LASF5161
C:\Users\CYMR90~1\AppData\Local\Temp\ccMBshSz.s:30360  .debug_str:0000000000025c32 .LASF5162
C:\Users\CYMR90~1\AppData\Local\Temp\ccMBshSz.s:30762  .debug_str:0000000000027595 .LASF5163
C:\Users\CYMR90~1\AppData\Local\Temp\ccMBshSz.s:25213  .debug_str:0000000000011239 .LASF5164
C:\Users\CYMR90~1\AppData\Local\Temp\ccMBshSz.s:26421  .debug_str:0000000000015fbe .LASF5165
C:\Users\CYMR90~1\AppData\Local\Temp\ccMBshSz.s:29752  .debug_str:0000000000023320 .LASF5166
C:\Users\CYMR90~1\AppData\Local\Temp\ccMBshSz.s:28492  .debug_str:000000000001e74b .LASF5167
C:\Users\CYMR90~1\AppData\Local\Temp\ccMBshSz.s:29406  .debug_str:0000000000021ef9 .LASF5168
C:\Users\CYMR90~1\AppData\Local\Temp\ccMBshSz.s:32226  .debug_str:000000000002d2d9 .LASF5169
C:\Users\CYMR90~1\AppData\Local\Temp\ccMBshSz.s:29584  .debug_str:0000000000022951 .LASF5170
C:\Users\CYMR90~1\AppData\Local\Temp\ccMBshSz.s:30184  .debug_str:0000000000024f41 .LASF5171
C:\Users\CYMR90~1\AppData\Local\Temp\ccMBshSz.s:22813  .debug_str:0000000000007975 .LASF5172
C:\Users\CYMR90~1\AppData\Local\Temp\ccMBshSz.s:26964  .debug_str:00000000000183aa .LASF5173
C:\Users\CYMR90~1\AppData\Local\Temp\ccMBshSz.s:29614  .debug_str:0000000000022b1c .LASF5174
C:\Users\CYMR90~1\AppData\Local\Temp\ccMBshSz.s:25511  .debug_str:000000000001263e .LASF5175
C:\Users\CYMR90~1\AppData\Local\Temp\ccMBshSz.s:30082  .debug_str:0000000000024856 .LASF5176
C:\Users\CYMR90~1\AppData\Local\Temp\ccMBshSz.s:31406  .debug_str:0000000000029f1b .LASF5177
C:\Users\CYMR90~1\AppData\Local\Temp\ccMBshSz.s:29666  .debug_str:0000000000022e77 .LASF5178
C:\Users\CYMR90~1\AppData\Local\Temp\ccMBshSz.s:30328  .debug_str:0000000000025a4c .LASF5179
C:\Users\CYMR90~1\AppData\Local\Temp\ccMBshSz.s:30376  .debug_str:0000000000025d3d .LASF5180
C:\Users\CYMR90~1\AppData\Local\Temp\ccMBshSz.s:29146  .debug_str:0000000000020f1d .LASF5181
C:\Users\CYMR90~1\AppData\Local\Temp\ccMBshSz.s:24859  .debug_str:000000000000fc8b .LASF5182
C:\Users\CYMR90~1\AppData\Local\Temp\ccMBshSz.s:25265  .debug_str:000000000001159a .LASF5183
C:\Users\CYMR90~1\AppData\Local\Temp\ccMBshSz.s:30204  .debug_str:0000000000025070 .LASF5184
C:\Users\CYMR90~1\AppData\Local\Temp\ccMBshSz.s:23579  .debug_str:000000000000ab69 .LASF5185
C:\Users\CYMR90~1\AppData\Local\Temp\ccMBshSz.s:25065  .debug_str:0000000000010947 .LASF5186
C:\Users\CYMR90~1\AppData\Local\Temp\ccMBshSz.s:31666  .debug_str:000000000002ae92 .LASF5187
C:\Users\CYMR90~1\AppData\Local\Temp\ccMBshSz.s:23103  .debug_str:0000000000008d70 .LASF5188
C:\Users\CYMR90~1\AppData\Local\Temp\ccMBshSz.s:23683  .debug_str:000000000000b29f .LASF5189
C:\Users\CYMR90~1\AppData\Local\Temp\ccMBshSz.s:30388  .debug_str:0000000000025deb .LASF5190
C:\Users\CYMR90~1\AppData\Local\Temp\ccMBshSz.s:21153  .debug_str:0000000000001143 .LASF5191
C:\Users\CYMR90~1\AppData\Local\Temp\ccMBshSz.s:26499  .debug_str:0000000000016479 .LASF5192
C:\Users\CYMR90~1\AppData\Local\Temp\ccMBshSz.s:28570  .debug_str:000000000001ec05 .LASF5193
C:\Users\CYMR90~1\AppData\Local\Temp\ccMBshSz.s:30884  .debug_str:0000000000027cf9 .LASF5194
C:\Users\CYMR90~1\AppData\Local\Temp\ccMBshSz.s:24523  .debug_str:000000000000e808 .LASF5195
C:\Users\CYMR90~1\AppData\Local\Temp\ccMBshSz.s:30912  .debug_str:0000000000027ef7 .LASF5196
C:\Users\CYMR90~1\AppData\Local\Temp\ccMBshSz.s:28512  .debug_str:000000000001e8d1 .LASF5197
C:\Users\CYMR90~1\AppData\Local\Temp\ccMBshSz.s:25269  .debug_str:00000000000115e5 .LASF5198
C:\Users\CYMR90~1\AppData\Local\Temp\ccMBshSz.s:28826  .debug_str:000000000001fb45 .LASF5199
C:\Users\CYMR90~1\AppData\Local\Temp\ccMBshSz.s:22147  .debug_str:000000000000502c .LASF5200
C:\Users\CYMR90~1\AppData\Local\Temp\ccMBshSz.s:25809  .debug_str:0000000000013992 .LASF5201
C:\Users\CYMR90~1\AppData\Local\Temp\ccMBshSz.s:28866  .debug_str:000000000001fdad .LASF5202
C:\Users\CYMR90~1\AppData\Local\Temp\ccMBshSz.s:24381  .debug_str:000000000000df48 .LASF5203
C:\Users\CYMR90~1\AppData\Local\Temp\ccMBshSz.s:28084  .debug_str:000000000001ccab .LASF5204
C:\Users\CYMR90~1\AppData\Local\Temp\ccMBshSz.s:24501  .debug_str:000000000000e6a9 .LASF5205
C:\Users\CYMR90~1\AppData\Local\Temp\ccMBshSz.s:31306  .debug_str:0000000000029937 .LASF5206
C:\Users\CYMR90~1\AppData\Local\Temp\ccMBshSz.s:32072  .debug_str:000000000002c8a1 .LASF5207
C:\Users\CYMR90~1\AppData\Local\Temp\ccMBshSz.s:24533  .debug_str:000000000000e87c .LASF5208
C:\Users\CYMR90~1\AppData\Local\Temp\ccMBshSz.s:21237  .debug_str:00000000000015d5 .LASF5209
C:\Users\CYMR90~1\AppData\Local\Temp\ccMBshSz.s:27678  .debug_str:000000000001b33e .LASF5210
C:\Users\CYMR90~1\AppData\Local\Temp\ccMBshSz.s:30714  .debug_str:00000000000271c6 .LASF5211
C:\Users\CYMR90~1\AppData\Local\Temp\ccMBshSz.s:27570  .debug_str:000000000001ac28 .LASF5212
C:\Users\CYMR90~1\AppData\Local\Temp\ccMBshSz.s:28566  .debug_str:000000000001ebd7 .LASF5213
C:\Users\CYMR90~1\AppData\Local\Temp\ccMBshSz.s:28910  .debug_str:00000000000200c0 .LASF5214
C:\Users\CYMR90~1\AppData\Local\Temp\ccMBshSz.s:29164  .debug_str:0000000000021004 .LASF5215
C:\Users\CYMR90~1\AppData\Local\Temp\ccMBshSz.s:24025  .debug_str:000000000000c978 .LASF5216
C:\Users\CYMR90~1\AppData\Local\Temp\ccMBshSz.s:26367  .debug_str:0000000000015be2 .LASF5217
C:\Users\CYMR90~1\AppData\Local\Temp\ccMBshSz.s:24789  .debug_str:000000000000f86d .LASF5218
C:\Users\CYMR90~1\AppData\Local\Temp\ccMBshSz.s:26970  .debug_str:0000000000018415 .LASF5219
C:\Users\CYMR90~1\AppData\Local\Temp\ccMBshSz.s:31564  .debug_str:000000000002a8b3 .LASF5220
C:\Users\CYMR90~1\AppData\Local\Temp\ccMBshSz.s:25733  .debug_str:0000000000013530 .LASF5221
C:\Users\CYMR90~1\AppData\Local\Temp\ccMBshSz.s:28752  .debug_str:000000000001f6e9 .LASF5222
C:\Users\CYMR90~1\AppData\Local\Temp\ccMBshSz.s:22791  .debug_str:000000000000781a .LASF5223
C:\Users\CYMR90~1\AppData\Local\Temp\ccMBshSz.s:30242  .debug_str:00000000000253e7 .LASF5224
C:\Users\CYMR90~1\AppData\Local\Temp\ccMBshSz.s:22669  .debug_str:0000000000007026 .LASF5225
C:\Users\CYMR90~1\AppData\Local\Temp\ccMBshSz.s:30796  .debug_str:0000000000027790 .LASF5226
C:\Users\CYMR90~1\AppData\Local\Temp\ccMBshSz.s:31282  .debug_str:000000000002977e .LASF5227
C:\Users\CYMR90~1\AppData\Local\Temp\ccMBshSz.s:29500  .debug_str:0000000000022453 .LASF5228
C:\Users\CYMR90~1\AppData\Local\Temp\ccMBshSz.s:26273  .debug_str:0000000000015648 .LASF5229
C:\Users\CYMR90~1\AppData\Local\Temp\ccMBshSz.s:23109  .debug_str:0000000000008da7 .LASF5230
C:\Users\CYMR90~1\AppData\Local\Temp\ccMBshSz.s:21707  .debug_str:0000000000003316 .LASF5231
C:\Users\CYMR90~1\AppData\Local\Temp\ccMBshSz.s:31976  .debug_str:000000000002c29b .LASF5232
C:\Users\CYMR90~1\AppData\Local\Temp\ccMBshSz.s:23293  .debug_str:00000000000098d1 .LASF5233
C:\Users\CYMR90~1\AppData\Local\Temp\ccMBshSz.s:23113  .debug_str:0000000000008dce .LASF5234
C:\Users\CYMR90~1\AppData\Local\Temp\ccMBshSz.s:23653  .debug_str:000000000000b0e6 .LASF5235
C:\Users\CYMR90~1\AppData\Local\Temp\ccMBshSz.s:24627  .debug_str:000000000000ee27 .LASF5236
C:\Users\CYMR90~1\AppData\Local\Temp\ccMBshSz.s:31162  .debug_str:0000000000028fd7 .LASF5237
C:\Users\CYMR90~1\AppData\Local\Temp\ccMBshSz.s:23229  .debug_str:00000000000094c1 .LASF5238
C:\Users\CYMR90~1\AppData\Local\Temp\ccMBshSz.s:31870  .debug_str:000000000002bbcc .LASF5239
C:\Users\CYMR90~1\AppData\Local\Temp\ccMBshSz.s:30452  .debug_str:00000000000261f5 .LASF5240
C:\Users\CYMR90~1\AppData\Local\Temp\ccMBshSz.s:24771  .debug_str:000000000000f763 .LASF5241
C:\Users\CYMR90~1\AppData\Local\Temp\ccMBshSz.s:21993  .debug_str:00000000000045c9 .LASF5242
C:\Users\CYMR90~1\AppData\Local\Temp\ccMBshSz.s:27532  .debug_str:000000000001a9d1 .LASF5243
C:\Users\CYMR90~1\AppData\Local\Temp\ccMBshSz.s:30198  .debug_str:0000000000025025 .LASF5244
C:\Users\CYMR90~1\AppData\Local\Temp\ccMBshSz.s:24711  .debug_str:000000000000f34e .LASF5245
C:\Users\CYMR90~1\AppData\Local\Temp\ccMBshSz.s:20991  .debug_str:00000000000006c9 .LASF5246
C:\Users\CYMR90~1\AppData\Local\Temp\ccMBshSz.s:20939  .debug_str:0000000000000401 .LASF5247
C:\Users\CYMR90~1\AppData\Local\Temp\ccMBshSz.s:21287  .debug_str:0000000000001995 .LASF5248
C:\Users\CYMR90~1\AppData\Local\Temp\ccMBshSz.s:29838  .debug_str:00000000000238de .LASF5249
C:\Users\CYMR90~1\AppData\Local\Temp\ccMBshSz.s:30508  .debug_str:0000000000026532 .LASF5250
C:\Users\CYMR90~1\AppData\Local\Temp\ccMBshSz.s:25611  .debug_str:0000000000012ce0 .LASF5251
C:\Users\CYMR90~1\AppData\Local\Temp\ccMBshSz.s:27564  .debug_str:000000000001abe9 .LASF5252
C:\Users\CYMR90~1\AppData\Local\Temp\ccMBshSz.s:21575  .debug_str:0000000000002ae5 .LASF5253
C:\Users\CYMR90~1\AppData\Local\Temp\ccMBshSz.s:26373  .debug_str:0000000000015c7b .LASF5254
C:\Users\CYMR90~1\AppData\Local\Temp\ccMBshSz.s:28950  .debug_str:00000000000202f5 .LASF5255
C:\Users\CYMR90~1\AppData\Local\Temp\ccMBshSz.s:28270  .debug_str:000000000001d9c5 .LASF5256
C:\Users\CYMR90~1\AppData\Local\Temp\ccMBshSz.s:23015  .debug_str:00000000000087c1 .LASF5257
C:\Users\CYMR90~1\AppData\Local\Temp\ccMBshSz.s:29640  .debug_str:0000000000022d0d .LASF5258
C:\Users\CYMR90~1\AppData\Local\Temp\ccMBshSz.s:28928  .debug_str:00000000000201bc .LASF5259
C:\Users\CYMR90~1\AppData\Local\Temp\ccMBshSz.s:22047  .debug_str:0000000000004a00 .LASF5260
C:\Users\CYMR90~1\AppData\Local\Temp\ccMBshSz.s:22469  .debug_str:0000000000006383 .LASF5261
C:\Users\CYMR90~1\AppData\Local\Temp\ccMBshSz.s:29596  .debug_str:0000000000022a20 .LASF5262
C:\Users\CYMR90~1\AppData\Local\Temp\ccMBshSz.s:31356  .debug_str:0000000000029c22 .LASF5263
C:\Users\CYMR90~1\AppData\Local\Temp\ccMBshSz.s:27154  .debug_str:0000000000018fe9 .LASF5264
C:\Users\CYMR90~1\AppData\Local\Temp\ccMBshSz.s:23925  .debug_str:000000000000c2d5 .LASF5265
C:\Users\CYMR90~1\AppData\Local\Temp\ccMBshSz.s:28650  .debug_str:000000000001f0d8 .LASF5266
C:\Users\CYMR90~1\AppData\Local\Temp\ccMBshSz.s:25481  .debug_str:0000000000012471 .LASF5267
C:\Users\CYMR90~1\AppData\Local\Temp\ccMBshSz.s:29040  .debug_str:00000000000208fb .LASF5268
C:\Users\CYMR90~1\AppData\Local\Temp\ccMBshSz.s:25815  .debug_str:00000000000139f5 .LASF5269
C:\Users\CYMR90~1\AppData\Local\Temp\ccMBshSz.s:31310  .debug_str:000000000002998d .LASF5270
C:\Users\CYMR90~1\AppData\Local\Temp\ccMBshSz.s:24951  .debug_str:0000000000010260 .LASF5271
C:\Users\CYMR90~1\AppData\Local\Temp\ccMBshSz.s:24183  .debug_str:000000000000d34a .LASF5272
C:\Users\CYMR90~1\AppData\Local\Temp\ccMBshSz.s:28660  .debug_str:000000000001f191 .LASF5273
C:\Users\CYMR90~1\AppData\Local\Temp\ccMBshSz.s:31894  .debug_str:000000000002bd1b .LASF5274
C:\Users\CYMR90~1\AppData\Local\Temp\ccMBshSz.s:30710  .debug_str:0000000000027196 .LASF5275
C:\Users\CYMR90~1\AppData\Local\Temp\ccMBshSz.s:29762  .debug_str:00000000000233c8 .LASF5276
C:\Users\CYMR90~1\AppData\Local\Temp\ccMBshSz.s:23727  .debug_str:000000000000b4f6 .LASF5277
C:\Users\CYMR90~1\AppData\Local\Temp\ccMBshSz.s:29892  .debug_str:0000000000023bf2 .LASF5278
C:\Users\CYMR90~1\AppData\Local\Temp\ccMBshSz.s:29504  .debug_str:0000000000022484 .LASF5279
C:\Users\CYMR90~1\AppData\Local\Temp\ccMBshSz.s:27402  .debug_str:000000000001a058 .LASF5280
C:\Users\CYMR90~1\AppData\Local\Temp\ccMBshSz.s:26930  .debug_str:00000000000181a4 .LASF5281
C:\Users\CYMR90~1\AppData\Local\Temp\ccMBshSz.s:29376  .debug_str:0000000000021d34 .LASF5282
C:\Users\CYMR90~1\AppData\Local\Temp\ccMBshSz.s:31864  .debug_str:000000000002bb50 .LASF5283
C:\Users\CYMR90~1\AppData\Local\Temp\ccMBshSz.s:22859  .debug_str:0000000000007c9a .LASF5284
C:\Users\CYMR90~1\AppData\Local\Temp\ccMBshSz.s:22303  .debug_str:00000000000059a0 .LASF5285
C:\Users\CYMR90~1\AppData\Local\Temp\ccMBshSz.s:22617  .debug_str:0000000000006cb5 .LASF5286
C:\Users\CYMR90~1\AppData\Local\Temp\ccMBshSz.s:24065  .debug_str:000000000000cc13 .LASF5287
C:\Users\CYMR90~1\AppData\Local\Temp\ccMBshSz.s:25415  .debug_str:000000000001204d .LASF5288
C:\Users\CYMR90~1\AppData\Local\Temp\ccMBshSz.s:23819  .debug_str:000000000000bb83 .LASF5289
C:\Users\CYMR90~1\AppData\Local\Temp\ccMBshSz.s:30902  .debug_str:0000000000027e71 .LASF5290
C:\Users\CYMR90~1\AppData\Local\Temp\ccMBshSz.s:30488  .debug_str:00000000000263f8 .LASF5291
C:\Users\CYMR90~1\AppData\Local\Temp\ccMBshSz.s:26169  .debug_str:0000000000015050 .LASF5292
C:\Users\CYMR90~1\AppData\Local\Temp\ccMBshSz.s:28822  .debug_str:000000000001fb1d .LASF5293
C:\Users\CYMR90~1\AppData\Local\Temp\ccMBshSz.s:25721  .debug_str:0000000000013472 .LASF5294
C:\Users\CYMR90~1\AppData\Local\Temp\ccMBshSz.s:25757  .debug_str:00000000000136b1 .LASF5295
C:\Users\CYMR90~1\AppData\Local\Temp\ccMBshSz.s:28316  .debug_str:000000000001dc60 .LASF5296
C:\Users\CYMR90~1\AppData\Local\Temp\ccMBshSz.s:29056  .debug_str:00000000000209c0 .LASF5297
C:\Users\CYMR90~1\AppData\Local\Temp\ccMBshSz.s:29212  .debug_str:00000000000212be .LASF5298
C:\Users\CYMR90~1\AppData\Local\Temp\ccMBshSz.s:24141  .debug_str:000000000000d059 .LASF5299
C:\Users\CYMR90~1\AppData\Local\Temp\ccMBshSz.s:28260  .debug_str:000000000001d8fe .LASF5300
C:\Users\CYMR90~1\AppData\Local\Temp\ccMBshSz.s:26816  .debug_str:0000000000017b06 .LASF5301
C:\Users\CYMR90~1\AppData\Local\Temp\ccMBshSz.s:25977  .debug_str:00000000000143d1 .LASF5302
C:\Users\CYMR90~1\AppData\Local\Temp\ccMBshSz.s:26005  .debug_str:00000000000145b6 .LASF5303
C:\Users\CYMR90~1\AppData\Local\Temp\ccMBshSz.s:26177  .debug_str:00000000000150ce .LASF5304
C:\Users\CYMR90~1\AppData\Local\Temp\ccMBshSz.s:24213  .debug_str:000000000000d59a .LASF5305
C:\Users\CYMR90~1\AppData\Local\Temp\ccMBshSz.s:25843  .debug_str:0000000000013bbd .LASF5306
C:\Users\CYMR90~1\AppData\Local\Temp\ccMBshSz.s:21573  .debug_str:0000000000002ac9 .LASF5307
C:\Users\CYMR90~1\AppData\Local\Temp\ccMBshSz.s:23415  .debug_str:000000000000a089 .LASF5308
C:\Users\CYMR90~1\AppData\Local\Temp\ccMBshSz.s:30220  .debug_str:00000000000251ec .LASF5309
C:\Users\CYMR90~1\AppData\Local\Temp\ccMBshSz.s:28174  .debug_str:000000000001d395 .LASF5310
C:\Users\CYMR90~1\AppData\Local\Temp\ccMBshSz.s:32130  .debug_str:000000000002ccbe .LASF5311
C:\Users\CYMR90~1\AppData\Local\Temp\ccMBshSz.s:31472  .debug_str:000000000002a2f1 .LASF5312
C:\Users\CYMR90~1\AppData\Local\Temp\ccMBshSz.s:23447  .debug_str:000000000000a281 .LASF5313
C:\Users\CYMR90~1\AppData\Local\Temp\ccMBshSz.s:24247  .debug_str:000000000000d797 .LASF5314
C:\Users\CYMR90~1\AppData\Local\Temp\ccMBshSz.s:28938  .debug_str:0000000000020232 .LASF5315
C:\Users\CYMR90~1\AppData\Local\Temp\ccMBshSz.s:30322  .debug_str:00000000000259db .LASF5316
C:\Users\CYMR90~1\AppData\Local\Temp\ccMBshSz.s:20981  .debug_str:000000000000061b .LASF5317
C:\Users\CYMR90~1\AppData\Local\Temp\ccMBshSz.s:23477  .debug_str:000000000000a466 .LASF5318
C:\Users\CYMR90~1\AppData\Local\Temp\ccMBshSz.s:27618  .debug_str:000000000001af47 .LASF5319
C:\Users\CYMR90~1\AppData\Local\Temp\ccMBshSz.s:24845  .debug_str:000000000000fba3 .LASF5320
C:\Users\CYMR90~1\AppData\Local\Temp\ccMBshSz.s:27094  .debug_str:0000000000018b91 .LASF5321
C:\Users\CYMR90~1\AppData\Local\Temp\ccMBshSz.s:24011  .debug_str:000000000000c825 .LASF5322
C:\Users\CYMR90~1\AppData\Local\Temp\ccMBshSz.s:24143  .debug_str:000000000000d071 .LASF5323
C:\Users\CYMR90~1\AppData\Local\Temp\ccMBshSz.s:25217  .debug_str:000000000001127d .LASF5324
C:\Users\CYMR90~1\AppData\Local\Temp\ccMBshSz.s:28310  .debug_str:000000000001dbff .LASF5325
C:\Users\CYMR90~1\AppData\Local\Temp\ccMBshSz.s:23199  .debug_str:000000000000930e .LASF5326
C:\Users\CYMR90~1\AppData\Local\Temp\ccMBshSz.s:23263  .debug_str:000000000000971d .LASF5327
C:\Users\CYMR90~1\AppData\Local\Temp\ccMBshSz.s:28198  .debug_str:000000000001d502 .LASF5328
C:\Users\CYMR90~1\AppData\Local\Temp\ccMBshSz.s:26754  .debug_str:00000000000176e0 .LASF5329
C:\Users\CYMR90~1\AppData\Local\Temp\ccMBshSz.s:29522  .debug_str:0000000000022552 .LASF5330
C:\Users\CYMR90~1\AppData\Local\Temp\ccMBshSz.s:20887  .debug_str:00000000000000a6 .LASF5331
C:\Users\CYMR90~1\AppData\Local\Temp\ccMBshSz.s:28902  .debug_str:000000000002003c .LASF5332
C:\Users\CYMR90~1\AppData\Local\Temp\ccMBshSz.s:32180  .debug_str:000000000002d014 .LASF5333
C:\Users\CYMR90~1\AppData\Local\Temp\ccMBshSz.s:28340  .debug_str:000000000001de4b .LASF5334
C:\Users\CYMR90~1\AppData\Local\Temp\ccMBshSz.s:22353  .debug_str:0000000000005ca2 .LASF5335
C:\Users\CYMR90~1\AppData\Local\Temp\ccMBshSz.s:21509  .debug_str:0000000000002691 .LASF5336
C:\Users\CYMR90~1\AppData\Local\Temp\ccMBshSz.s:29136  .debug_str:0000000000020e80 .LASF5337
C:\Users\CYMR90~1\AppData\Local\Temp\ccMBshSz.s:27404  .debug_str:000000000001a06f .LASF5338
C:\Users\CYMR90~1\AppData\Local\Temp\ccMBshSz.s:20983  .debug_str:0000000000000635 .LASF5339
C:\Users\CYMR90~1\AppData\Local\Temp\ccMBshSz.s:25443  .debug_str:00000000000121e5 .LASF5340
C:\Users\CYMR90~1\AppData\Local\Temp\ccMBshSz.s:25871  .debug_str:0000000000013d4d .LASF5341
C:\Users\CYMR90~1\AppData\Local\Temp\ccMBshSz.s:25413  .debug_str:0000000000012034 .LASF5342
C:\Users\CYMR90~1\AppData\Local\Temp\ccMBshSz.s:22475  .debug_str:00000000000063e5 .LASF5343
C:\Users\CYMR90~1\AppData\Local\Temp\ccMBshSz.s:28638  .debug_str:000000000001f004 .LASF5344
C:\Users\CYMR90~1\AppData\Local\Temp\ccMBshSz.s:26766  .debug_str:00000000000177c2 .LASF5345
C:\Users\CYMR90~1\AppData\Local\Temp\ccMBshSz.s:21241  .debug_str:000000000000161b .LASF5346
C:\Users\CYMR90~1\AppData\Local\Temp\ccMBshSz.s:28858  .debug_str:000000000001fd4c .LASF5347
C:\Users\CYMR90~1\AppData\Local\Temp\ccMBshSz.s:21589  .debug_str:0000000000002bcb .LASF5348
C:\Users\CYMR90~1\AppData\Local\Temp\ccMBshSz.s:29782  .debug_str:00000000000234f1 .LASF5349
C:\Users\CYMR90~1\AppData\Local\Temp\ccMBshSz.s:21195  .debug_str:0000000000001381 .LASF5350
C:\Users\CYMR90~1\AppData\Local\Temp\ccMBshSz.s:30652  .debug_str:0000000000026dd9 .LASF5351
C:\Users\CYMR90~1\AppData\Local\Temp\ccMBshSz.s:26431  .debug_str:0000000000016074 .LASF5352
C:\Users\CYMR90~1\AppData\Local\Temp\ccMBshSz.s:21817  .debug_str:0000000000003a2a .LASF5353
C:\Users\CYMR90~1\AppData\Local\Temp\ccMBshSz.s:23691  .debug_str:000000000000b30b .LASF5354
C:\Users\CYMR90~1\AppData\Local\Temp\ccMBshSz.s:29942  .debug_str:0000000000023ece .LASF5355
C:\Users\CYMR90~1\AppData\Local\Temp\ccMBshSz.s:22379  .debug_str:0000000000005e1a .LASF5356
C:\Users\CYMR90~1\AppData\Local\Temp\ccMBshSz.s:30806  .debug_str:0000000000027821 .LASF5357
C:\Users\CYMR90~1\AppData\Local\Temp\ccMBshSz.s:22957  .debug_str:0000000000008424 .LASF5358
C:\Users\CYMR90~1\AppData\Local\Temp\ccMBshSz.s:31766  .debug_str:000000000002b4e7 .LASF5359
C:\Users\CYMR90~1\AppData\Local\Temp\ccMBshSz.s:28932  .debug_str:00000000000201e7 .LASF5360
C:\Users\CYMR90~1\AppData\Local\Temp\ccMBshSz.s:27250  .debug_str:0000000000019644 .LASF5361
C:\Users\CYMR90~1\AppData\Local\Temp\ccMBshSz.s:21119  .debug_str:0000000000000f4b .LASF5362
C:\Users\CYMR90~1\AppData\Local\Temp\ccMBshSz.s:28766  .debug_str:000000000001f7ca .LASF5363
C:\Users\CYMR90~1\AppData\Local\Temp\ccMBshSz.s:22329  .debug_str:0000000000005b28 .LASF5364
C:\Users\CYMR90~1\AppData\Local\Temp\ccMBshSz.s:31734  .debug_str:000000000002b2b2 .LASF5365
C:\Users\CYMR90~1\AppData\Local\Temp\ccMBshSz.s:26497  .debug_str:000000000001645c .LASF5366
C:\Users\CYMR90~1\AppData\Local\Temp\ccMBshSz.s:26293  .debug_str:0000000000015776 .LASF5367
C:\Users\CYMR90~1\AppData\Local\Temp\ccMBshSz.s:27320  .debug_str:0000000000019b78 .LASF5368
C:\Users\CYMR90~1\AppData\Local\Temp\ccMBshSz.s:23751  .debug_str:000000000000b6ee .LASF5369
C:\Users\CYMR90~1\AppData\Local\Temp\ccMBshSz.s:30102  .debug_str:0000000000024a11 .LASF5370
C:\Users\CYMR90~1\AppData\Local\Temp\ccMBshSz.s:31712  .debug_str:000000000002b172 .LASF5371
C:\Users\CYMR90~1\AppData\Local\Temp\ccMBshSz.s:21865  .debug_str:0000000000003d29 .LASF5372
C:\Users\CYMR90~1\AppData\Local\Temp\ccMBshSz.s:28558  .debug_str:000000000001eb7e .LASF5373
C:\Users\CYMR90~1\AppData\Local\Temp\ccMBshSz.s:27830  .debug_str:000000000001bc08 .LASF5374
C:\Users\CYMR90~1\AppData\Local\Temp\ccMBshSz.s:25633  .debug_str:0000000000012e5a .LASF5375
C:\Users\CYMR90~1\AppData\Local\Temp\ccMBshSz.s:24677  .debug_str:000000000000f121 .LASF5376
C:\Users\CYMR90~1\AppData\Local\Temp\ccMBshSz.s:29346  .debug_str:0000000000021b50 .LASF5377
C:\Users\CYMR90~1\AppData\Local\Temp\ccMBshSz.s:23287  .debug_str:0000000000009866 .LASF5378
C:\Users\CYMR90~1\AppData\Local\Temp\ccMBshSz.s:23949  .debug_str:000000000000c427 .LASF5379
C:\Users\CYMR90~1\AppData\Local\Temp\ccMBshSz.s:31170  .debug_str:0000000000029030 .LASF5380
C:\Users\CYMR90~1\AppData\Local\Temp\ccMBshSz.s:21695  .debug_str:000000000000323c .LASF5381
C:\Users\CYMR90~1\AppData\Local\Temp\ccMBshSz.s:29298  .debug_str:0000000000021882 .LASF5382
C:\Users\CYMR90~1\AppData\Local\Temp\ccMBshSz.s:32080  .debug_str:000000000002c937 .LASF5383
C:\Users\CYMR90~1\AppData\Local\Temp\ccMBshSz.s:28534  .debug_str:000000000001ea1c .LASF5384
C:\Users\CYMR90~1\AppData\Local\Temp\ccMBshSz.s:31424  .debug_str:000000000002a027 .LASF5385
C:\Users\CYMR90~1\AppData\Local\Temp\ccMBshSz.s:26371  .debug_str:0000000000015c5b .LASF5386
C:\Users\CYMR90~1\AppData\Local\Temp\ccMBshSz.s:28470  .debug_str:000000000001e626 .LASF5387
C:\Users\CYMR90~1\AppData\Local\Temp\ccMBshSz.s:24743  .debug_str:000000000000f519 .LASF5388
C:\Users\CYMR90~1\AppData\Local\Temp\ccMBshSz.s:24731  .debug_str:000000000000f46c .LASF5389
C:\Users\CYMR90~1\AppData\Local\Temp\ccMBshSz.s:28838  .debug_str:000000000001fc1c .LASF5390
C:\Users\CYMR90~1\AppData\Local\Temp\ccMBshSz.s:30544  .debug_str:0000000000026777 .LASF5391
C:\Users\CYMR90~1\AppData\Local\Temp\ccMBshSz.s:21271  .debug_str:00000000000018a2 .LASF5392
C:\Users\CYMR90~1\AppData\Local\Temp\ccMBshSz.s:27264  .debug_str:000000000001972d .LASF5393
C:\Users\CYMR90~1\AppData\Local\Temp\ccMBshSz.s:21077  .debug_str:0000000000000c5e .LASF5394
C:\Users\CYMR90~1\AppData\Local\Temp\ccMBshSz.s:25883  .debug_str:0000000000013e07 .LASF5395
C:\Users\CYMR90~1\AppData\Local\Temp\ccMBshSz.s:21385  .debug_str:0000000000001f7e .LASF5396
C:\Users\CYMR90~1\AppData\Local\Temp\ccMBshSz.s:21717  .debug_str:00000000000033c5 .LASF5397
C:\Users\CYMR90~1\AppData\Local\Temp\ccMBshSz.s:24481  .debug_str:000000000000e533 .LASF5398
C:\Users\CYMR90~1\AppData\Local\Temp\ccMBshSz.s:25219  .debug_str:000000000001129f .LASF5399
C:\Users\CYMR90~1\AppData\Local\Temp\ccMBshSz.s:23625  .debug_str:000000000000ae42 .LASF5400
C:\Users\CYMR90~1\AppData\Local\Temp\ccMBshSz.s:21913  .debug_str:0000000000004065 .LASF5401
C:\Users\CYMR90~1\AppData\Local\Temp\ccMBshSz.s:31822  .debug_str:000000000002b866 .LASF5402
C:\Users\CYMR90~1\AppData\Local\Temp\ccMBshSz.s:23455  .debug_str:000000000000a30d .LASF5403
C:\Users\CYMR90~1\AppData\Local\Temp\ccMBshSz.s:29082  .debug_str:0000000000020b31 .LASF5404
C:\Users\CYMR90~1\AppData\Local\Temp\ccMBshSz.s:29776  .debug_str:000000000002349b .LASF5405
C:\Users\CYMR90~1\AppData\Local\Temp\ccMBshSz.s:31858  .debug_str:000000000002baff .LASF5406
C:\Users\CYMR90~1\AppData\Local\Temp\ccMBshSz.s:21177  .debug_str:000000000000128d .LASF5407
C:\Users\CYMR90~1\AppData\Local\Temp\ccMBshSz.s:26646  .debug_str:0000000000017092 .LASF5408
C:\Users\CYMR90~1\AppData\Local\Temp\ccMBshSz.s:29418  .debug_str:0000000000021fb2 .LASF5409
C:\Users\CYMR90~1\AppData\Local\Temp\ccMBshSz.s:28342  .debug_str:000000000001de6d .LASF5410
C:\Users\CYMR90~1\AppData\Local\Temp\ccMBshSz.s:31658  .debug_str:000000000002adf9 .LASF5411
C:\Users\CYMR90~1\AppData\Local\Temp\ccMBshSz.s:21357  .debug_str:0000000000001dd1 .LASF5412
C:\Users\CYMR90~1\AppData\Local\Temp\ccMBshSz.s:27988  .debug_str:000000000001c5c1 .LASF5413
C:\Users\CYMR90~1\AppData\Local\Temp\ccMBshSz.s:24357  .debug_str:000000000000ddf4 .LASF5414
C:\Users\CYMR90~1\AppData\Local\Temp\ccMBshSz.s:25919  .debug_str:0000000000014068 .LASF5415
C:\Users\CYMR90~1\AppData\Local\Temp\ccMBshSz.s:31038  .debug_str:000000000002881c .LASF5416
C:\Users\CYMR90~1\AppData\Local\Temp\ccMBshSz.s:31974  .debug_str:000000000002c262 .LASF5417
C:\Users\CYMR90~1\AppData\Local\Temp\ccMBshSz.s:23929  .debug_str:000000000000c303 .LASF5418
C:\Users\CYMR90~1\AppData\Local\Temp\ccMBshSz.s:24917  .debug_str:000000000001005c .LASF5419
C:\Users\CYMR90~1\AppData\Local\Temp\ccMBshSz.s:22851  .debug_str:0000000000007c1a .LASF5420
C:\Users\CYMR90~1\AppData\Local\Temp\ccMBshSz.s:29442  .debug_str:000000000002210e .LASF5421
C:\Users\CYMR90~1\AppData\Local\Temp\ccMBshSz.s:28736  .debug_str:000000000001f60b .LASF5422
C:\Users\CYMR90~1\AppData\Local\Temp\ccMBshSz.s:27810  .debug_str:000000000001ba96 .LASF5423
C:\Users\CYMR90~1\AppData\Local\Temp\ccMBshSz.s:32098  .debug_str:000000000002ca8a .LASF5424
C:\Users\CYMR90~1\AppData\Local\Temp\ccMBshSz.s:26800  .debug_str:0000000000017a15 .LASF5425
C:\Users\CYMR90~1\AppData\Local\Temp\ccMBshSz.s:29462  .debug_str:000000000002223c .LASF5426
C:\Users\CYMR90~1\AppData\Local\Temp\ccMBshSz.s:23811  .debug_str:000000000000bb11 .LASF5427
C:\Users\CYMR90~1\AppData\Local\Temp\ccMBshSz.s:27022  .debug_str:0000000000018717 .LASF5428
C:\Users\CYMR90~1\AppData\Local\Temp\ccMBshSz.s:25875  .debug_str:0000000000013d7e .LASF5429
C:\Users\CYMR90~1\AppData\Local\Temp\ccMBshSz.s:28628  .debug_str:000000000001ef4e .LASF5430
C:\Users\CYMR90~1\AppData\Local\Temp\ccMBshSz.s:24145  .debug_str:000000000000d0ad .LASF5431
C:\Users\CYMR90~1\AppData\Local\Temp\ccMBshSz.s:31482  .debug_str:000000000002a371 .LASF5432
C:\Users\CYMR90~1\AppData\Local\Temp\ccMBshSz.s:23341  .debug_str:0000000000009c04 .LASF5433
C:\Users\CYMR90~1\AppData\Local\Temp\ccMBshSz.s:28942  .debug_str:000000000002027b .LASF5434
C:\Users\CYMR90~1\AppData\Local\Temp\ccMBshSz.s:29704  .debug_str:000000000002309e .LASF5435
C:\Users\CYMR90~1\AppData\Local\Temp\ccMBshSz.s:25293  .debug_str:0000000000011816 .LASF5436
C:\Users\CYMR90~1\AppData\Local\Temp\ccMBshSz.s:23201  .debug_str:0000000000009330 .LASF5437
C:\Users\CYMR90~1\AppData\Local\Temp\ccMBshSz.s:22783  .debug_str:0000000000007788 .LASF5438
C:\Users\CYMR90~1\AppData\Local\Temp\ccMBshSz.s:28280  .debug_str:000000000001da39 .LASF5439
C:\Users\CYMR90~1\AppData\Local\Temp\ccMBshSz.s:32012  .debug_str:000000000002c4db .LASF5440
C:\Users\CYMR90~1\AppData\Local\Temp\ccMBshSz.s:31744  .debug_str:000000000002b347 .LASF5441
C:\Users\CYMR90~1\AppData\Local\Temp\ccMBshSz.s:28978  .debug_str:00000000000204c3 .LASF5442
C:\Users\CYMR90~1\AppData\Local\Temp\ccMBshSz.s:31950  .debug_str:000000000002c122 .LASF5443
C:\Users\CYMR90~1\AppData\Local\Temp\ccMBshSz.s:28612  .debug_str:000000000001ee78 .LASF5444
C:\Users\CYMR90~1\AppData\Local\Temp\ccMBshSz.s:29750  .debug_str:0000000000023307 .LASF5445
C:\Users\CYMR90~1\AppData\Local\Temp\ccMBshSz.s:21169  .debug_str:0000000000001225 .LASF5446
C:\Users\CYMR90~1\AppData\Local\Temp\ccMBshSz.s:28054  .debug_str:000000000001cae6 .LASF5447
C:\Users\CYMR90~1\AppData\Local\Temp\ccMBshSz.s:21783  .debug_str:00000000000037ec .LASF5448
C:\Users\CYMR90~1\AppData\Local\Temp\ccMBshSz.s:29350  .debug_str:0000000000021ba3 .LASF5449
C:\Users\CYMR90~1\AppData\Local\Temp\ccMBshSz.s:29934  .debug_str:0000000000023e6e .LASF5450
C:\Users\CYMR90~1\AppData\Local\Temp\ccMBshSz.s:30236  .debug_str:000000000002537d .LASF5451
C:\Users\CYMR90~1\AppData\Local\Temp\ccMBshSz.s:29068  .debug_str:0000000000020a8b .LASF5452
C:\Users\CYMR90~1\AppData\Local\Temp\ccMBshSz.s:26327  .debug_str:000000000001598b .LASF5453
C:\Users\CYMR90~1\AppData\Local\Temp\ccMBshSz.s:27812  .debug_str:000000000001babb .LASF5454
C:\Users\CYMR90~1\AppData\Local\Temp\ccMBshSz.s:26790  .debug_str:000000000001796b .LASF5455
C:\Users\CYMR90~1\AppData\Local\Temp\ccMBshSz.s:28962  .debug_str:0000000000020386 .LASF5456
C:\Users\CYMR90~1\AppData\Local\Temp\ccMBshSz.s:22747  .debug_str:0000000000007565 .LASF5457
C:\Users\CYMR90~1\AppData\Local\Temp\ccMBshSz.s:26355  .debug_str:0000000000015b10 .LASF5458
C:\Users\CYMR90~1\AppData\Local\Temp\ccMBshSz.s:31108  .debug_str:0000000000028cb5 .LASF5459
C:\Users\CYMR90~1\AppData\Local\Temp\ccMBshSz.s:21069  .debug_str:0000000000000bf5 .LASF5460
C:\Users\CYMR90~1\AppData\Local\Temp\ccMBshSz.s:25913  .debug_str:0000000000013fec .LASF5461
C:\Users\CYMR90~1\AppData\Local\Temp\ccMBshSz.s:26209  .debug_str:00000000000152bc .LASF5462
C:\Users\CYMR90~1\AppData\Local\Temp\ccMBshSz.s:23297  .debug_str:0000000000009902 .LASF5463
C:\Users\CYMR90~1\AppData\Local\Temp\ccMBshSz.s:27680  .debug_str:000000000001b354 .LASF5464
C:\Users\CYMR90~1\AppData\Local\Temp\ccMBshSz.s:30504  .debug_str:00000000000264fc .LASF5465
C:\Users\CYMR90~1\AppData\Local\Temp\ccMBshSz.s:27700  .debug_str:000000000001b48e .LASF5466
C:\Users\CYMR90~1\AppData\Local\Temp\ccMBshSz.s:25653  .debug_str:0000000000012fa2 .LASF5467
C:\Users\CYMR90~1\AppData\Local\Temp\ccMBshSz.s:30188  .debug_str:0000000000024f7e .LASF5468
C:\Users\CYMR90~1\AppData\Local\Temp\ccMBshSz.s:30942  .debug_str:00000000000280d3 .LASF5469
C:\Users\CYMR90~1\AppData\Local\Temp\ccMBshSz.s:25797  .debug_str:00000000000138ee .LASF5470
C:\Users\CYMR90~1\AppData\Local\Temp\ccMBshSz.s:25685  .debug_str:00000000000131a4 .LASF5471
C:\Users\CYMR90~1\AppData\Local\Temp\ccMBshSz.s:28204  .debug_str:000000000001d552 .LASF5472
C:\Users\CYMR90~1\AppData\Local\Temp\ccMBshSz.s:26231  .debug_str:00000000000153f5 .LASF5473
C:\Users\CYMR90~1\AppData\Local\Temp\ccMBshSz.s:32136  .debug_str:000000000002cd05 .LASF5474
C:\Users\CYMR90~1\AppData\Local\Temp\ccMBshSz.s:22769  .debug_str:00000000000076a5 .LASF5475
C:\Users\CYMR90~1\AppData\Local\Temp\ccMBshSz.s:21879  .debug_str:0000000000003e1f .LASF5476
C:\Users\CYMR90~1\AppData\Local\Temp\ccMBshSz.s:31656  .debug_str:000000000002addd .LASF5477
C:\Users\CYMR90~1\AppData\Local\Temp\ccMBshSz.s:23661  .debug_str:000000000000b14c .LASF5478
C:\Users\CYMR90~1\AppData\Local\Temp\ccMBshSz.s:31212  .debug_str:00000000000292db .LASF5479
C:\Users\CYMR90~1\AppData\Local\Temp\ccMBshSz.s:22151  .debug_str:000000000000506d .LASF5480
C:\Users\CYMR90~1\AppData\Local\Temp\ccMBshSz.s:30700  .debug_str:000000000002710f .LASF5481
C:\Users\CYMR90~1\AppData\Local\Temp\ccMBshSz.s:30746  .debug_str:0000000000027470 .LASF5482
C:\Users\CYMR90~1\AppData\Local\Temp\ccMBshSz.s:23757  .debug_str:000000000000b759 .LASF5483
C:\Users\CYMR90~1\AppData\Local\Temp\ccMBshSz.s:24185  .debug_str:000000000000d361 .LASF5484
C:\Users\CYMR90~1\AppData\Local\Temp\ccMBshSz.s:25399  .debug_str:0000000000011f0f .LASF5485
C:\Users\CYMR90~1\AppData\Local\Temp\ccMBshSz.s:31304  .debug_str:0000000000029909 .LASF5486
C:\Users\CYMR90~1\AppData\Local\Temp\ccMBshSz.s:29816  .debug_str:0000000000023751 .LASF5487
C:\Users\CYMR90~1\AppData\Local\Temp\ccMBshSz.s:24437  .debug_str:000000000000e2ad .LASF5488
C:\Users\CYMR90~1\AppData\Local\Temp\ccMBshSz.s:32166  .debug_str:000000000002cf24 .LASF5489
C:\Users\CYMR90~1\AppData\Local\Temp\ccMBshSz.s:22131  .debug_str:0000000000004f37 .LASF5490
C:\Users\CYMR90~1\AppData\Local\Temp\ccMBshSz.s:29912  .debug_str:0000000000023d25 .LASF5491
C:\Users\CYMR90~1\AppData\Local\Temp\ccMBshSz.s:22755  .debug_str:00000000000075c8 .LASF5492
C:\Users\CYMR90~1\AppData\Local\Temp\ccMBshSz.s:31258  .debug_str:00000000000295f2 .LASF5493
C:\Users\CYMR90~1\AppData\Local\Temp\ccMBshSz.s:21889  .debug_str:0000000000003ea4 .LASF5494
C:\Users\CYMR90~1\AppData\Local\Temp\ccMBshSz.s:22983  .debug_str:00000000000085ef .LASF5495
C:\Users\CYMR90~1\AppData\Local\Temp\ccMBshSz.s:26241  .debug_str:0000000000015487 .LASF5496
C:\Users\CYMR90~1\AppData\Local\Temp\ccMBshSz.s:31676  .debug_str:000000000002af51 .LASF5497
C:\Users\CYMR90~1\AppData\Local\Temp\ccMBshSz.s:30430  .debug_str:000000000002604b .LASF5498
C:\Users\CYMR90~1\AppData\Local\Temp\ccMBshSz.s:21269  .debug_str:000000000000187c .LASF5499
C:\Users\CYMR90~1\AppData\Local\Temp\ccMBshSz.s:25751  .debug_str:000000000001363d .LASF5500
C:\Users\CYMR90~1\AppData\Local\Temp\ccMBshSz.s:26111  .debug_str:0000000000014c5e .LASF5501
C:\Users\CYMR90~1\AppData\Local\Temp\ccMBshSz.s:28714  .debug_str:000000000001f4c2 .LASF5502
C:\Users\CYMR90~1\AppData\Local\Temp\ccMBshSz.s:29842  .debug_str:000000000002390c .LASF5503
C:\Users\CYMR90~1\AppData\Local\Temp\ccMBshSz.s:30216  .debug_str:00000000000251b1 .LASF5504
C:\Users\CYMR90~1\AppData\Local\Temp\ccMBshSz.s:27026  .debug_str:0000000000018763 .LASF5505
C:\Users\CYMR90~1\AppData\Local\Temp\ccMBshSz.s:25137  .debug_str:0000000000010dca .LASF5506
C:\Users\CYMR90~1\AppData\Local\Temp\ccMBshSz.s:23731  .debug_str:000000000000b51c .LASF5507
C:\Users\CYMR90~1\AppData\Local\Temp\ccMBshSz.s:26892  .debug_str:0000000000017f68 .LASF5508
C:\Users\CYMR90~1\AppData\Local\Temp\ccMBshSz.s:21201  .debug_str:00000000000013fe .LASF5509
C:\Users\CYMR90~1\AppData\Local\Temp\ccMBshSz.s:27974  .debug_str:000000000001c4fb .LASF5510
C:\Users\CYMR90~1\AppData\Local\Temp\ccMBshSz.s:28028  .debug_str:000000000001c932 .LASF5511
C:\Users\CYMR90~1\AppData\Local\Temp\ccMBshSz.s:25915  .debug_str:0000000000014004 .LASF5512
C:\Users\CYMR90~1\AppData\Local\Temp\ccMBshSz.s:22225  .debug_str:00000000000054bd .LASF5513
C:\Users\CYMR90~1\AppData\Local\Temp\ccMBshSz.s:27598  .debug_str:000000000001adbb .LASF5514
C:\Users\CYMR90~1\AppData\Local\Temp\ccMBshSz.s:21801  .debug_str:000000000000392d .LASF5515
C:\Users\CYMR90~1\AppData\Local\Temp\ccMBshSz.s:30350  .debug_str:0000000000025b9c .LASF5516
C:\Users\CYMR90~1\AppData\Local\Temp\ccMBshSz.s:29290  .debug_str:00000000000217e1 .LASF5517
C:\Users\CYMR90~1\AppData\Local\Temp\ccMBshSz.s:24937  .debug_str:0000000000010189 .LASF5518
C:\Users\CYMR90~1\AppData\Local\Temp\ccMBshSz.s:22501  .debug_str:000000000000656a .LASF5519
C:\Users\CYMR90~1\AppData\Local\Temp\ccMBshSz.s:26009  .debug_str:00000000000145f5 .LASF5520
C:\Users\CYMR90~1\AppData\Local\Temp\ccMBshSz.s:27904  .debug_str:000000000001c0dd .LASF5521
C:\Users\CYMR90~1\AppData\Local\Temp\ccMBshSz.s:28148  .debug_str:000000000001d1f0 .LASF5522
C:\Users\CYMR90~1\AppData\Local\Temp\ccMBshSz.s:25687  .debug_str:00000000000131c2 .LASF5523
C:\Users\CYMR90~1\AppData\Local\Temp\ccMBshSz.s:30036  .debug_str:00000000000245a0 .LASF5524
C:\Users\CYMR90~1\AppData\Local\Temp\ccMBshSz.s:28036  .debug_str:000000000001c9be .LASF5525
C:\Users\CYMR90~1\AppData\Local\Temp\ccMBshSz.s:23379  .debug_str:0000000000009e4b .LASF5526
C:\Users\CYMR90~1\AppData\Local\Temp\ccMBshSz.s:27268  .debug_str:000000000001978c .LASF5527
C:\Users\CYMR90~1\AppData\Local\Temp\ccMBshSz.s:23397  .debug_str:0000000000009f49 .LASF5528
C:\Users\CYMR90~1\AppData\Local\Temp\ccMBshSz.s:28626  .debug_str:000000000001ef30 .LASF5529
C:\Users\CYMR90~1\AppData\Local\Temp\ccMBshSz.s:27080  .debug_str:0000000000018aad .LASF5530
C:\Users\CYMR90~1\AppData\Local\Temp\ccMBshSz.s:22647  .debug_str:0000000000006ee7 .LASF5531
C:\Users\CYMR90~1\AppData\Local\Temp\ccMBshSz.s:27854  .debug_str:000000000001bd8d .LASF5532
C:\Users\CYMR90~1\AppData\Local\Temp\ccMBshSz.s:21867  .debug_str:0000000000003d60 .LASF5533
C:\Users\CYMR90~1\AppData\Local\Temp\ccMBshSz.s:23645  .debug_str:000000000000afbb .LASF5534
C:\Users\CYMR90~1\AppData\Local\Temp\ccMBshSz.s:27198  .debug_str:000000000001933e .LASF5535
C:\Users\CYMR90~1\AppData\Local\Temp\ccMBshSz.s:30378  .debug_str:0000000000025d4f .LASF5536
C:\Users\CYMR90~1\AppData\Local\Temp\ccMBshSz.s:26587  .debug_str:0000000000016b52 .LASF5537
C:\Users\CYMR90~1\AppData\Local\Temp\ccMBshSz.s:28388  .debug_str:000000000001e119 .LASF5538
C:\Users\CYMR90~1\AppData\Local\Temp\ccMBshSz.s:28290  .debug_str:000000000001dace .LASF5539
C:\Users\CYMR90~1\AppData\Local\Temp\ccMBshSz.s:22947  .debug_str:0000000000008376 .LASF5540
C:\Users\CYMR90~1\AppData\Local\Temp\ccMBshSz.s:24599  .debug_str:000000000000ecba .LASF5541
C:\Users\CYMR90~1\AppData\Local\Temp\ccMBshSz.s:25975  .debug_str:00000000000143b3 .LASF5542
C:\Users\CYMR90~1\AppData\Local\Temp\ccMBshSz.s:22409  .debug_str:0000000000005fd0 .LASF5543
C:\Users\CYMR90~1\AppData\Local\Temp\ccMBshSz.s:29122  .debug_str:0000000000020dc7 .LASF5544
C:\Users\CYMR90~1\AppData\Local\Temp\ccMBshSz.s:21365  .debug_str:0000000000001e64 .LASF5545
C:\Users\CYMR90~1\AppData\Local\Temp\ccMBshSz.s:31210  .debug_str:00000000000292bd .LASF5546
C:\Users\CYMR90~1\AppData\Local\Temp\ccMBshSz.s:27552  .debug_str:000000000001ab21 .LASF5547
C:\Users\CYMR90~1\AppData\Local\Temp\ccMBshSz.s:22169  .debug_str:000000000000517d .LASF5548
C:\Users\CYMR90~1\AppData\Local\Temp\ccMBshSz.s:23531  .debug_str:000000000000a7a2 .LASF5549
C:\Users\CYMR90~1\AppData\Local\Temp\ccMBshSz.s:25649  .debug_str:0000000000012f63 .LASF5550
C:\Users\CYMR90~1\AppData\Local\Temp\ccMBshSz.s:24207  .debug_str:000000000000d530 .LASF5551
C:\Users\CYMR90~1\AppData\Local\Temp\ccMBshSz.s:26125  .debug_str:0000000000014d56 .LASF5552
C:\Users\CYMR90~1\AppData\Local\Temp\ccMBshSz.s:23269  .debug_str:0000000000009770 .LASF5553
C:\Users\CYMR90~1\AppData\Local\Temp\ccMBshSz.s:30678  .debug_str:0000000000026fa4 .LASF5554
C:\Users\CYMR90~1\AppData\Local\Temp\ccMBshSz.s:24427  .debug_str:000000000000e1ff .LASF5555
                           .group:0000000000000000 wm4.0.10abbef32179bc1260444192115bdf5e
                           .group:0000000000000000 wm4.stddef.h.39.144cf5ddcd53cbfdac30259dc1a6c87f
                           .group:0000000000000000 wm4._newlib_version.h.4.bfdf54b0af045d4a71376ae00f63a22c
                           .group:0000000000000000 wm4.newlib.h.18.08a2ecba46890ca2aa56bbe21686e6c3
                           .group:0000000000000000 wm4.ieeefp.h.202.4f2759f5758fd82153cfbf98692f2ced
                           .group:0000000000000000 wm4.features.h.22.fad1cec3bc7ff06488171438dbdcfd02
                           .group:0000000000000000 wm4.config.h.83.13bbc8852bfac55b724c9822481355b5
                           .group:0000000000000000 wm4._ansi.h.31.de524f58584151836e90d8620a16f8e8
                           .group:0000000000000000 wm4.stdio.h.31.7c0e28c411445f3f9c5b11accf882760
                           .group:0000000000000000 wm4._default_types.h.6.959254cf5f09734ea7516c89e8bb21bd
                           .group:0000000000000000 wm4.stddef.h.155.ba788add86a0e365f264484f110c3c29
                           .group:0000000000000000 wm4.cdefs.h.49.39045112216f6a021dbdffe3bf5accce
                           .group:0000000000000000 wm4.stdarg.h.34.3a23a216c0c293b3d2ea2e89281481e6
                           .group:0000000000000000 wm4._types.h.20.dd0d04dca3800a0d2a6129b87f3adbb2
                           .group:0000000000000000 wm4.stddef.h.155.3588ebfdd1e8c7ede80509bb9c3b8009
                           .group:0000000000000000 wm4._types.h.127.34941de1b2539d59d5cac00e0dd27a45
                           .group:0000000000000000 wm4.reent.h.17.e292bf8b0bec6c96e131a54347145a30
                           .group:0000000000000000 wm4.lock.h.2.c0958401bd0ce484d507ee19aacab817
                           .group:0000000000000000 wm4.reent.h.77.dcd6129ff07fe81bd5636db29abe53b2
                           .group:0000000000000000 wm4.types.h.40.8b6acba56cefbb11746718204edc8f5e
                           .group:0000000000000000 wm4._stdint.h.10.c24fa3af3bc1706662bb5593a907e841
                           .group:0000000000000000 wm4._endian.h.18.1bf9649e8e5bbc91042012680270b9ed
                           .group:0000000000000000 wm4.endian.h.9.49f3a4695c1b61e8a0808de3c4a106cb
                           .group:0000000000000000 wm4._timeval.h.32.bec3221fa7a9bb0bdde696c9c57e47d2
                           .group:0000000000000000 wm4.timespec.h.41.d855182eb0e690443ab8651bcedca6e1
                           .group:0000000000000000 wm4.select.h.19.40cd3f2bfc456b193b790c2754690ebf
                           .group:0000000000000000 wm4.types.h.51.5571ec98f267d17d3c670b7a3ba33afa
                           .group:0000000000000000 wm4.sched.h.22.c60982713a5c428609783c78f9c78d95
                           .group:0000000000000000 wm4._pthreadtypes.h.36.fcee9961c35163dde6267ef772ad1972
                           .group:0000000000000000 wm4.stdio.h.2.4aa87247282eca6c8f36f9de33d8df1a
                           .group:0000000000000000 wm4.stdio.h.81.932d0c162786b883f622b8d05c120c78
                           .group:0000000000000000 wm4.gd32vw55x.h.47.379378190858578060a317909b2c8d8a
                           .group:0000000000000000 wm4._intsup.h.10.48bafbb683905c4daa4565a85aeeb264
                           .group:0000000000000000 wm4.stdint.h.23.d53047a68f4a85177f80b422d52785ed
                           .group:0000000000000000 wm4.nmsis_version.h.19.ffa173da8efb17b1050904994d6f500e
                           .group:0000000000000000 wm4.riscv_bits.h.19.ee94eb3d39937793d4cd0a62363e5d00
                           .group:0000000000000000 wm4.riscv_encoding.h.35.f5d37fad7abbab8278b4bb6f1e32fa65
                           .group:0000000000000000 wm4.nmsis_gcc.h.61.5d70d7598ffc79c3c991d847a574cf23
                           .group:0000000000000000 wm4.core_feature_base.h.20.e99d3e75c26a8f3341d35bf20d0e1d20
                           .group:0000000000000000 wm4.core_feature_fpu.h.19.695f2200274659b530cb97cda749ff4f
                           .group:0000000000000000 wm4.core_feature_dsp.h.19.e8f8d7aa42f197807aefedb6584486cd
                           .group:0000000000000000 wm4.core_compatiable.h.19.5b8282d61b1f6889a82895616b730084
                           .group:0000000000000000 wm4.core_feature_eclic.h.19.e0c091d0cbda79e8b3b031b979ebd5a1
                           .group:0000000000000000 wm4.core_feature_timer.h.19.21a5151282de34c37dfa6d84e262aa54
                           .group:0000000000000000 wm4.system_gd32vw55x.h.32.f1fcb1212d387c35ac955b0e96ada468
                           .group:0000000000000000 wm4.gd32vw55x.h.231.3529c650aff38c9372f7e03177fd2c8a
                           .group:0000000000000000 wm4.gd32vw55x_adc.h.42.ae73acec1704ef509ccecb41a875b50e
                           .group:0000000000000000 wm4.gd32vw55x_cau.h.36.c98428fe1eae7edb4721da5c8078c974
                           .group:0000000000000000 wm4.gd32vw55x_crc.h.37.c58f296814c2300a4b067c08bd88d54e
                           .group:0000000000000000 wm4.gd32vw55x_dbg.h.36.311650c8545549d482ceca8befc5a232
                           .group:0000000000000000 wm4.gd32vw55x_dma.h.36.f4adc751172b2a7b1533dda72e948737
                           .group:0000000000000000 wm4.gd32vw55x_eclic.h.36.0411499f2b2493c67246e32ccae096c1
                           .group:0000000000000000 wm4.gd32vw55x_efuse.h.36.091404cecbab70359dfd93faec5fdb62
                           .group:0000000000000000 wm4.gd32vw55x_exti.h.36.de7508334dd12f1a6a673521a1a835f5
                           .group:0000000000000000 wm4.gd32vw55x_fmc.h.36.a4b0b94c47ffe23a2fa09260c5ed4850
                           .group:0000000000000000 wm4.gd32vw55x_fwdgt.h.36.4846b6900fd24b5bfce4986c9a8ce677
                           .group:0000000000000000 wm4.gd32vw55x_gpio.h.36.adfee1371bb58d3d9043c47bdb25a90f
                           .group:0000000000000000 wm4.gd32vw55x_hau.h.36.f3cbcbd7b67c9e5bdc7a1100b1bf3458
                           .group:0000000000000000 wm4.gd32vw55x_i2c.h.36.3848990933925e084eb427083790c53f
                           .group:0000000000000000 wm4.gd32vw55x_pkcau.h.36.bb2235f4cf4967063a51bfa9aca5ef27
                           .group:0000000000000000 wm4.gd32vw55x_pmu.h.36.4c76091f1415551526d489ccf2c42052
                           .group:0000000000000000 wm4.gd32vw55x_rcu.h.36.780a8a45c00d563711cceb445027ef47
                           .group:0000000000000000 wm4.gd32vw55x_rtc.h.36.3172855e8715659e080e0eab46fdf175
                           .group:0000000000000000 wm4.gd32vw55x_spi.h.36.9fa1be2b09fb73e4b5886e97f0e96d58
                           .group:0000000000000000 wm4.gd32vw55x_syscfg.h.36.010551f05591f5e34051d2e15df0352b
                           .group:0000000000000000 wm4.gd32vw55x_timer.h.38.2cbee78ea60d47145be361b2d2c55070
                           .group:0000000000000000 wm4.gd32vw55x_trng.h.36.c9e7807af1b1ab68d3bbb54f4ed5cd73
                           .group:0000000000000000 wm4.gd32vw55x_usart.h.36.f5c497cca17945a34f154b0e17017d02
                           .group:0000000000000000 wm4.gd32vw55x_wwdgt.h.36.f7a443b7302efc0e5c335888582ee197
                           .group:0000000000000000 wm4.gd32vw55x_qspi.h.41.5a90d3ddf4beb0aa4167e61f121327e8

UNDEFINED SYMBOLS
rcu_periph_reset_enable
rcu_periph_reset_disable
