   1              		.file	"gd32vw55x_timer.c"
   2              		.option nopic
   3              		.attribute arch, "rv32i2p0_m2p0_a2p0_c2p0"
   4              		.attribute unaligned_access, 0
   5              		.attribute stack_align, 16
   6              		.text
   7              	.Ltext0:
   8              		.cfi_sections	.debug_frame
   9              		.section	.text.timer_deinit,"ax",@progbits
  10              		.align	1
  11              		.globl	timer_deinit
  13              	timer_deinit:
  14              	.LFB347:
  15              		.file 1 "../Firmware/GD32VW55x_standard_peripheral/Source/gd32vw55x_timer.c"
   1:../Firmware/GD32VW55x_standard_peripheral/Source/gd32vw55x_timer.c **** /*!
   2:../Firmware/GD32VW55x_standard_peripheral/Source/gd32vw55x_timer.c ****     \file    gd32vw55x_timer.c
   3:../Firmware/GD32VW55x_standard_peripheral/Source/gd32vw55x_timer.c ****     \brief   TIMER driver
   4:../Firmware/GD32VW55x_standard_peripheral/Source/gd32vw55x_timer.c **** 
   5:../Firmware/GD32VW55x_standard_peripheral/Source/gd32vw55x_timer.c ****     \version 2025-01-16, V1.4.0, firmware for GD32VW55x
   6:../Firmware/GD32VW55x_standard_peripheral/Source/gd32vw55x_timer.c **** */
   7:../Firmware/GD32VW55x_standard_peripheral/Source/gd32vw55x_timer.c **** 
   8:../Firmware/GD32VW55x_standard_peripheral/Source/gd32vw55x_timer.c **** /*
   9:../Firmware/GD32VW55x_standard_peripheral/Source/gd32vw55x_timer.c ****     Copyright (c) 2025, GigaDevice Semiconductor Inc.
  10:../Firmware/GD32VW55x_standard_peripheral/Source/gd32vw55x_timer.c **** 
  11:../Firmware/GD32VW55x_standard_peripheral/Source/gd32vw55x_timer.c ****     Redistribution and use in source and binary forms, with or without modification,
  12:../Firmware/GD32VW55x_standard_peripheral/Source/gd32vw55x_timer.c **** are permitted provided that the following conditions are met:
  13:../Firmware/GD32VW55x_standard_peripheral/Source/gd32vw55x_timer.c **** 
  14:../Firmware/GD32VW55x_standard_peripheral/Source/gd32vw55x_timer.c ****     1. Redistributions of source code must retain the above copyright notice, this
  15:../Firmware/GD32VW55x_standard_peripheral/Source/gd32vw55x_timer.c ****        list of conditions and the following disclaimer.
  16:../Firmware/GD32VW55x_standard_peripheral/Source/gd32vw55x_timer.c ****     2. Redistributions in binary form must reproduce the above copyright notice,
  17:../Firmware/GD32VW55x_standard_peripheral/Source/gd32vw55x_timer.c ****        this list of conditions and the following disclaimer in the documentation
  18:../Firmware/GD32VW55x_standard_peripheral/Source/gd32vw55x_timer.c ****        and/or other materials provided with the distribution.
  19:../Firmware/GD32VW55x_standard_peripheral/Source/gd32vw55x_timer.c ****     3. Neither the name of the copyright holder nor the names of its contributors
  20:../Firmware/GD32VW55x_standard_peripheral/Source/gd32vw55x_timer.c ****        may be used to endorse or promote products derived from this software without
  21:../Firmware/GD32VW55x_standard_peripheral/Source/gd32vw55x_timer.c ****        specific prior written permission.
  22:../Firmware/GD32VW55x_standard_peripheral/Source/gd32vw55x_timer.c **** 
  23:../Firmware/GD32VW55x_standard_peripheral/Source/gd32vw55x_timer.c ****     THIS SOFTWARE IS PROVIDED BY THE COPYRIGHT HOLDERS AND CONTRIBUTORS "AS IS"
  24:../Firmware/GD32VW55x_standard_peripheral/Source/gd32vw55x_timer.c **** AND ANY EXPRESS OR IMPLIED WARRANTIES, INCLUDING, BUT NOT LIMITED TO, THE IMPLIED
  25:../Firmware/GD32VW55x_standard_peripheral/Source/gd32vw55x_timer.c **** WARRANTIES OF MERCHANTABILITY AND FITNESS FOR A PARTICULAR PURPOSE ARE DISCLAIMED.
  26:../Firmware/GD32VW55x_standard_peripheral/Source/gd32vw55x_timer.c **** IN NO EVENT SHALL THE COPYRIGHT HOLDER OR CONTRIBUTORS BE LIABLE FOR ANY DIRECT,
  27:../Firmware/GD32VW55x_standard_peripheral/Source/gd32vw55x_timer.c **** INDIRECT, INCIDENTAL, SPECIAL, EXEMPLARY, OR CONSEQUENTIAL DAMAGES (INCLUDING, BUT
  28:../Firmware/GD32VW55x_standard_peripheral/Source/gd32vw55x_timer.c **** NOT LIMITED TO, PROCUREMENT OF SUBSTITUTE GOODS OR SERVICES; LOSS OF USE, DATA, OR
  29:../Firmware/GD32VW55x_standard_peripheral/Source/gd32vw55x_timer.c **** PROFITS; OR BUSINESS INTERRUPTION) HOWEVER CAUSED AND ON ANY THEORY OF LIABILITY,
  30:../Firmware/GD32VW55x_standard_peripheral/Source/gd32vw55x_timer.c **** WHETHER IN CONTRACT, STRICT LIABILITY, OR TORT (INCLUDING NEGLIGENCE OR OTHERWISE)
  31:../Firmware/GD32VW55x_standard_peripheral/Source/gd32vw55x_timer.c **** ARISING IN ANY WAY OUT OF THE USE OF THIS SOFTWARE, EVEN IF ADVISED OF THE POSSIBILITY
  32:../Firmware/GD32VW55x_standard_peripheral/Source/gd32vw55x_timer.c **** OF SUCH DAMAGE.
  33:../Firmware/GD32VW55x_standard_peripheral/Source/gd32vw55x_timer.c **** */
  34:../Firmware/GD32VW55x_standard_peripheral/Source/gd32vw55x_timer.c **** 
  35:../Firmware/GD32VW55x_standard_peripheral/Source/gd32vw55x_timer.c **** #include "gd32vw55x_timer.h"
  36:../Firmware/GD32VW55x_standard_peripheral/Source/gd32vw55x_timer.c **** 
  37:../Firmware/GD32VW55x_standard_peripheral/Source/gd32vw55x_timer.c **** /* TIMER init parameter mask */
  38:../Firmware/GD32VW55x_standard_peripheral/Source/gd32vw55x_timer.c **** #define ALIGNEDMODE_MASK            ((uint32_t)0x00000060U)   /*!< TIMER init parameter aligne dmod
  39:../Firmware/GD32VW55x_standard_peripheral/Source/gd32vw55x_timer.c **** #define COUNTERDIRECTION_MASK       ((uint32_t)0x00000010U)   /*!< TIMER init parameter counter dir
  40:../Firmware/GD32VW55x_standard_peripheral/Source/gd32vw55x_timer.c **** #define CLOCKDIVISION_MASK          ((uint32_t)0x00000300U)   /*!< TIMER init parameter clock divis
  41:../Firmware/GD32VW55x_standard_peripheral/Source/gd32vw55x_timer.c **** 
  42:../Firmware/GD32VW55x_standard_peripheral/Source/gd32vw55x_timer.c **** /*!
  43:../Firmware/GD32VW55x_standard_peripheral/Source/gd32vw55x_timer.c ****     \brief      deinit a TIMER
  44:../Firmware/GD32VW55x_standard_peripheral/Source/gd32vw55x_timer.c ****     \param[in]  timer_periph: TIMERx(x=0,1,2,5,15,16)
  45:../Firmware/GD32VW55x_standard_peripheral/Source/gd32vw55x_timer.c ****     \param[out] none
  46:../Firmware/GD32VW55x_standard_peripheral/Source/gd32vw55x_timer.c ****     \retval     none
  47:../Firmware/GD32VW55x_standard_peripheral/Source/gd32vw55x_timer.c **** */
  48:../Firmware/GD32VW55x_standard_peripheral/Source/gd32vw55x_timer.c **** void timer_deinit(uint32_t timer_periph)
  49:../Firmware/GD32VW55x_standard_peripheral/Source/gd32vw55x_timer.c **** {
  16              		.loc 1 49 1
  17              		.cfi_startproc
  18 0000 0111     		addi	sp,sp,-32
  19              		.cfi_def_cfa_offset 32
  20 0002 06CE     		sw	ra,28(sp)
  21 0004 22CC     		sw	s0,24(sp)
  22              		.cfi_offset 1, -4
  23              		.cfi_offset 8, -8
  24 0006 0010     		addi	s0,sp,32
  25              		.cfi_def_cfa 8, 0
  26 0008 2326A4FE 		sw	a0,-20(s0)
  50:../Firmware/GD32VW55x_standard_peripheral/Source/gd32vw55x_timer.c ****     switch(timer_periph){
  27              		.loc 1 50 5
  28 000c 0327C4FE 		lw	a4,-20(s0)
  29 0010 B7870140 		li	a5,1073840128
  30 0014 93870740 		addi	a5,a5,1024
  31 0018 6308F710 		beq	a4,a5,.L2
  32 001c 0327C4FE 		lw	a4,-20(s0)
  33 0020 B7870140 		li	a5,1073840128
  34 0024 93870740 		addi	a5,a5,1024
  35 0028 63EFE710 		bgtu	a4,a5,.L10
  36 002c 0327C4FE 		lw	a4,-20(s0)
  37 0030 B7870140 		li	a5,1073840128
  38 0034 630BF70C 		beq	a4,a5,.L4
  39 0038 0327C4FE 		lw	a4,-20(s0)
  40 003c B7870140 		li	a5,1073840128
  41 0040 63E3E710 		bgtu	a4,a5,.L10
  42 0044 0327C4FE 		lw	a4,-20(s0)
  43 0048 B7070140 		li	a5,1073807360
  44 004c 6303F704 		beq	a4,a5,.L5
  45 0050 0327C4FE 		lw	a4,-20(s0)
  46 0054 B7070140 		li	a5,1073807360
  47 0058 63E7E70E 		bgtu	a4,a5,.L10
  48 005c 0327C4FE 		lw	a4,-20(s0)
  49 0060 B7170040 		li	a5,1073745920
  50 0064 6304F708 		beq	a4,a5,.L6
  51 0068 0327C4FE 		lw	a4,-20(s0)
  52 006c B7170040 		li	a5,1073745920
  53 0070 63EBE70C 		bgtu	a4,a5,.L10
  54 0074 0327C4FE 		lw	a4,-20(s0)
  55 0078 B7070040 		li	a5,1073741824
  56 007c 630AF702 		beq	a4,a5,.L7
  57 0080 0327C4FE 		lw	a4,-20(s0)
  58 0084 B7070040 		li	a5,1073741824
  59 0088 93870740 		addi	a5,a5,1024
  60 008c 6301F704 		beq	a4,a5,.L8
  51:../Firmware/GD32VW55x_standard_peripheral/Source/gd32vw55x_timer.c ****     case TIMER0:
  52:../Firmware/GD32VW55x_standard_peripheral/Source/gd32vw55x_timer.c ****         /* reset TIMER0 */
  53:../Firmware/GD32VW55x_standard_peripheral/Source/gd32vw55x_timer.c ****         rcu_periph_reset_enable(RCU_TIMER0RST);
  54:../Firmware/GD32VW55x_standard_peripheral/Source/gd32vw55x_timer.c ****         rcu_periph_reset_disable(RCU_TIMER0RST);
  55:../Firmware/GD32VW55x_standard_peripheral/Source/gd32vw55x_timer.c ****         break;
  56:../Firmware/GD32VW55x_standard_peripheral/Source/gd32vw55x_timer.c ****     case TIMER1:
  57:../Firmware/GD32VW55x_standard_peripheral/Source/gd32vw55x_timer.c ****         /* reset TIMER1 */
  58:../Firmware/GD32VW55x_standard_peripheral/Source/gd32vw55x_timer.c ****         rcu_periph_reset_enable(RCU_TIMER1RST);
  59:../Firmware/GD32VW55x_standard_peripheral/Source/gd32vw55x_timer.c ****         rcu_periph_reset_disable(RCU_TIMER1RST);
  60:../Firmware/GD32VW55x_standard_peripheral/Source/gd32vw55x_timer.c ****         break;
  61:../Firmware/GD32VW55x_standard_peripheral/Source/gd32vw55x_timer.c ****     case TIMER2:
  62:../Firmware/GD32VW55x_standard_peripheral/Source/gd32vw55x_timer.c ****         /* reset TIMER2 */
  63:../Firmware/GD32VW55x_standard_peripheral/Source/gd32vw55x_timer.c ****        	rcu_periph_reset_enable(RCU_TIMER2RST);
  64:../Firmware/GD32VW55x_standard_peripheral/Source/gd32vw55x_timer.c ****        	rcu_periph_reset_disable(RCU_TIMER2RST);
  65:../Firmware/GD32VW55x_standard_peripheral/Source/gd32vw55x_timer.c ****         break;
  66:../Firmware/GD32VW55x_standard_peripheral/Source/gd32vw55x_timer.c ****     case TIMER5:
  67:../Firmware/GD32VW55x_standard_peripheral/Source/gd32vw55x_timer.c ****         /* reset TIMER5 */
  68:../Firmware/GD32VW55x_standard_peripheral/Source/gd32vw55x_timer.c ****         rcu_periph_reset_enable(RCU_TIMER5RST);
  69:../Firmware/GD32VW55x_standard_peripheral/Source/gd32vw55x_timer.c ****         rcu_periph_reset_disable(RCU_TIMER5RST);
  70:../Firmware/GD32VW55x_standard_peripheral/Source/gd32vw55x_timer.c ****         break;
  71:../Firmware/GD32VW55x_standard_peripheral/Source/gd32vw55x_timer.c ****     case TIMER15:
  72:../Firmware/GD32VW55x_standard_peripheral/Source/gd32vw55x_timer.c ****         /* reset TIMER15 */
  73:../Firmware/GD32VW55x_standard_peripheral/Source/gd32vw55x_timer.c ****         rcu_periph_reset_enable(RCU_TIMER15RST);
  74:../Firmware/GD32VW55x_standard_peripheral/Source/gd32vw55x_timer.c ****         rcu_periph_reset_disable(RCU_TIMER15RST);
  75:../Firmware/GD32VW55x_standard_peripheral/Source/gd32vw55x_timer.c ****         break;
  76:../Firmware/GD32VW55x_standard_peripheral/Source/gd32vw55x_timer.c ****     case TIMER16:
  77:../Firmware/GD32VW55x_standard_peripheral/Source/gd32vw55x_timer.c ****         /* reset TIMER16 */
  78:../Firmware/GD32VW55x_standard_peripheral/Source/gd32vw55x_timer.c ****         rcu_periph_reset_enable(RCU_TIMER16RST);
  79:../Firmware/GD32VW55x_standard_peripheral/Source/gd32vw55x_timer.c ****         rcu_periph_reset_disable(RCU_TIMER16RST);
  80:../Firmware/GD32VW55x_standard_peripheral/Source/gd32vw55x_timer.c ****         break;
  81:../Firmware/GD32VW55x_standard_peripheral/Source/gd32vw55x_timer.c ****     default:
  82:../Firmware/GD32VW55x_standard_peripheral/Source/gd32vw55x_timer.c ****         break;
  61              		.loc 1 82 9
  62 0090 5DA8     		j	.L10
  63              	.L5:
  53:../Firmware/GD32VW55x_standard_peripheral/Source/gd32vw55x_timer.c ****         rcu_periph_reset_disable(RCU_TIMER0RST);
  64              		.loc 1 53 9
  65 0092 8567     		li	a5,4096
  66 0094 13850790 		addi	a0,a5,-1792
  67 0098 97000000 		call	rcu_periph_reset_enable
  67      E7800000 
  54:../Firmware/GD32VW55x_standard_peripheral/Source/gd32vw55x_timer.c ****         break;
  68              		.loc 1 54 9
  69 00a0 8567     		li	a5,4096
  70 00a2 13850790 		addi	a0,a5,-1792
  71 00a6 97000000 		call	rcu_periph_reset_disable
  71      E7800000 
  55:../Firmware/GD32VW55x_standard_peripheral/Source/gd32vw55x_timer.c ****     case TIMER1:
  72              		.loc 1 55 9
  73 00ae 69A8     		j	.L9
  74              	.L7:
  58:../Firmware/GD32VW55x_standard_peripheral/Source/gd32vw55x_timer.c ****         rcu_periph_reset_disable(RCU_TIMER1RST);
  75              		.loc 1 58 9
  76 00b0 8567     		li	a5,4096
  77 00b2 13850780 		addi	a0,a5,-2048
  78 00b6 97000000 		call	rcu_periph_reset_enable
  78      E7800000 
  59:../Firmware/GD32VW55x_standard_peripheral/Source/gd32vw55x_timer.c ****         break;
  79              		.loc 1 59 9
  80 00be 8567     		li	a5,4096
  81 00c0 13850780 		addi	a0,a5,-2048
  82 00c4 97000000 		call	rcu_periph_reset_disable
  82      E7800000 
  60:../Firmware/GD32VW55x_standard_peripheral/Source/gd32vw55x_timer.c ****     case TIMER2:
  83              		.loc 1 60 9
  84 00cc B5A8     		j	.L9
  85              	.L8:
  63:../Firmware/GD32VW55x_standard_peripheral/Source/gd32vw55x_timer.c ****        	rcu_periph_reset_disable(RCU_TIMER2RST);
  86              		.loc 1 63 9
  87 00ce 8567     		li	a5,4096
  88 00d0 13851780 		addi	a0,a5,-2047
  89 00d4 97000000 		call	rcu_periph_reset_enable
  89      E7800000 
  64:../Firmware/GD32VW55x_standard_peripheral/Source/gd32vw55x_timer.c ****         break;
  90              		.loc 1 64 9
  91 00dc 8567     		li	a5,4096
  92 00de 13851780 		addi	a0,a5,-2047
  93 00e2 97000000 		call	rcu_periph_reset_disable
  93      E7800000 
  65:../Firmware/GD32VW55x_standard_peripheral/Source/gd32vw55x_timer.c ****     case TIMER5:
  94              		.loc 1 65 9
  95 00ea B9A8     		j	.L9
  96              	.L6:
  68:../Firmware/GD32VW55x_standard_peripheral/Source/gd32vw55x_timer.c ****         rcu_periph_reset_disable(RCU_TIMER5RST);
  97              		.loc 1 68 9
  98 00ec 8567     		li	a5,4096
  99 00ee 13854780 		addi	a0,a5,-2044
 100 00f2 97000000 		call	rcu_periph_reset_enable
 100      E7800000 
  69:../Firmware/GD32VW55x_standard_peripheral/Source/gd32vw55x_timer.c ****         break;
 101              		.loc 1 69 9
 102 00fa 8567     		li	a5,4096
 103 00fc 13854780 		addi	a0,a5,-2044
 104 0100 97000000 		call	rcu_periph_reset_disable
 104      E7800000 
  70:../Firmware/GD32VW55x_standard_peripheral/Source/gd32vw55x_timer.c ****     case TIMER15:
 105              		.loc 1 70 9
 106 0108 81A0     		j	.L9
 107              	.L4:
  73:../Firmware/GD32VW55x_standard_peripheral/Source/gd32vw55x_timer.c ****         rcu_periph_reset_disable(RCU_TIMER15RST);
 108              		.loc 1 73 9
 109 010a 8567     		li	a5,4096
 110 010c 13851791 		addi	a0,a5,-1775
 111 0110 97000000 		call	rcu_periph_reset_enable
 111      E7800000 
  74:../Firmware/GD32VW55x_standard_peripheral/Source/gd32vw55x_timer.c ****         break;
 112              		.loc 1 74 9
 113 0118 8567     		li	a5,4096
 114 011a 13851791 		addi	a0,a5,-1775
 115 011e 97000000 		call	rcu_periph_reset_disable
 115      E7800000 
  75:../Firmware/GD32VW55x_standard_peripheral/Source/gd32vw55x_timer.c ****     case TIMER16:
 116              		.loc 1 75 9
 117 0126 0DA0     		j	.L9
 118              	.L2:
  78:../Firmware/GD32VW55x_standard_peripheral/Source/gd32vw55x_timer.c ****         rcu_periph_reset_disable(RCU_TIMER16RST);
 119              		.loc 1 78 9
 120 0128 8567     		li	a5,4096
 121 012a 13852791 		addi	a0,a5,-1774
 122 012e 97000000 		call	rcu_periph_reset_enable
 122      E7800000 
  79:../Firmware/GD32VW55x_standard_peripheral/Source/gd32vw55x_timer.c ****         break;
 123              		.loc 1 79 9
 124 0136 8567     		li	a5,4096
 125 0138 13852791 		addi	a0,a5,-1774
 126 013c 97000000 		call	rcu_periph_reset_disable
 126      E7800000 
  80:../Firmware/GD32VW55x_standard_peripheral/Source/gd32vw55x_timer.c ****     default:
 127              		.loc 1 80 9
 128 0144 11A0     		j	.L9
 129              	.L10:
 130              		.loc 1 82 9
 131 0146 0100     		nop
 132              	.L9:
  83:../Firmware/GD32VW55x_standard_peripheral/Source/gd32vw55x_timer.c ****     }
  84:../Firmware/GD32VW55x_standard_peripheral/Source/gd32vw55x_timer.c **** }
 133              		.loc 1 84 1
 134 0148 0100     		nop
 135 014a F240     		lw	ra,28(sp)
 136              		.cfi_restore 1
 137 014c 6244     		lw	s0,24(sp)
 138              		.cfi_restore 8
 139              		.cfi_def_cfa 2, 32
 140 014e 0561     		addi	sp,sp,32
 141              		.cfi_def_cfa_offset 0
 142 0150 8280     		jr	ra
 143              		.cfi_endproc
 144              	.LFE347:
 146              		.section	.text.timer_struct_para_init,"ax",@progbits
 147              		.align	1
 148              		.globl	timer_struct_para_init
 150              	timer_struct_para_init:
 151              	.LFB348:
  85:../Firmware/GD32VW55x_standard_peripheral/Source/gd32vw55x_timer.c **** 
  86:../Firmware/GD32VW55x_standard_peripheral/Source/gd32vw55x_timer.c **** /*!
  87:../Firmware/GD32VW55x_standard_peripheral/Source/gd32vw55x_timer.c ****     \brief      initialize TIMER init parameter struct with a default value
  88:../Firmware/GD32VW55x_standard_peripheral/Source/gd32vw55x_timer.c ****     \param[in]  initpara: init parameter struct
  89:../Firmware/GD32VW55x_standard_peripheral/Source/gd32vw55x_timer.c ****     \param[out] none
  90:../Firmware/GD32VW55x_standard_peripheral/Source/gd32vw55x_timer.c ****     \retval     none
  91:../Firmware/GD32VW55x_standard_peripheral/Source/gd32vw55x_timer.c **** */
  92:../Firmware/GD32VW55x_standard_peripheral/Source/gd32vw55x_timer.c **** void timer_struct_para_init(timer_parameter_struct* initpara)
  93:../Firmware/GD32VW55x_standard_peripheral/Source/gd32vw55x_timer.c **** {
 152              		.loc 1 93 1
 153              		.cfi_startproc
 154 0000 0111     		addi	sp,sp,-32
 155              		.cfi_def_cfa_offset 32
 156 0002 22CE     		sw	s0,28(sp)
 157              		.cfi_offset 8, -4
 158 0004 0010     		addi	s0,sp,32
 159              		.cfi_def_cfa 8, 0
 160 0006 2326A4FE 		sw	a0,-20(s0)
  94:../Firmware/GD32VW55x_standard_peripheral/Source/gd32vw55x_timer.c ****     /* initialize the init parameter struct member with the default value */
  95:../Firmware/GD32VW55x_standard_peripheral/Source/gd32vw55x_timer.c ****     initpara->prescaler         = 0U;
 161              		.loc 1 95 33
 162 000a 8327C4FE 		lw	a5,-20(s0)
 163 000e 23900700 		sh	zero,0(a5)
  96:../Firmware/GD32VW55x_standard_peripheral/Source/gd32vw55x_timer.c ****     initpara->alignedmode       = TIMER_COUNTER_EDGE;
 164              		.loc 1 96 33
 165 0012 8327C4FE 		lw	a5,-20(s0)
 166 0016 23910700 		sh	zero,2(a5)
  97:../Firmware/GD32VW55x_standard_peripheral/Source/gd32vw55x_timer.c ****     initpara->counterdirection  = TIMER_COUNTER_UP;
 167              		.loc 1 97 33
 168 001a 8327C4FE 		lw	a5,-20(s0)
 169 001e 23920700 		sh	zero,4(a5)
  98:../Firmware/GD32VW55x_standard_peripheral/Source/gd32vw55x_timer.c ****     initpara->period            = 65535U;
 170              		.loc 1 98 33
 171 0022 8327C4FE 		lw	a5,-20(s0)
 172 0026 4167     		li	a4,65536
 173 0028 7D17     		addi	a4,a4,-1
 174 002a 98C7     		sw	a4,8(a5)
  99:../Firmware/GD32VW55x_standard_peripheral/Source/gd32vw55x_timer.c ****     initpara->clockdivision     = TIMER_CKDIV_DIV1;
 175              		.loc 1 99 33
 176 002c 8327C4FE 		lw	a5,-20(s0)
 177 0030 23960700 		sh	zero,12(a5)
 100:../Firmware/GD32VW55x_standard_peripheral/Source/gd32vw55x_timer.c ****     initpara->repetitioncounter = 0U;
 178              		.loc 1 100 33
 179 0034 8327C4FE 		lw	a5,-20(s0)
 180 0038 23870700 		sb	zero,14(a5)
 101:../Firmware/GD32VW55x_standard_peripheral/Source/gd32vw55x_timer.c **** }
 181              		.loc 1 101 1
 182 003c 0100     		nop
 183 003e 7244     		lw	s0,28(sp)
 184              		.cfi_restore 8
 185              		.cfi_def_cfa 2, 32
 186 0040 0561     		addi	sp,sp,32
 187              		.cfi_def_cfa_offset 0
 188 0042 8280     		jr	ra
 189              		.cfi_endproc
 190              	.LFE348:
 192              		.section	.text.timer_init,"ax",@progbits
 193              		.align	1
 194              		.globl	timer_init
 196              	timer_init:
 197              	.LFB349:
 102:../Firmware/GD32VW55x_standard_peripheral/Source/gd32vw55x_timer.c **** 
 103:../Firmware/GD32VW55x_standard_peripheral/Source/gd32vw55x_timer.c **** /*!
 104:../Firmware/GD32VW55x_standard_peripheral/Source/gd32vw55x_timer.c ****     \brief      initialize TIMER counter
 105:../Firmware/GD32VW55x_standard_peripheral/Source/gd32vw55x_timer.c ****     \param[in]  timer_periph: TIMERx(x=0,1,2,5,15,16)
 106:../Firmware/GD32VW55x_standard_peripheral/Source/gd32vw55x_timer.c ****     \param[in]  initpara: init parameter struct
 107:../Firmware/GD32VW55x_standard_peripheral/Source/gd32vw55x_timer.c ****                   prescaler: prescaler value of the counter clock, 0~65535
 108:../Firmware/GD32VW55x_standard_peripheral/Source/gd32vw55x_timer.c ****                   alignedmode: TIMER_COUNTER_EDGE, TIMER_COUNTER_CENTER_DOWN, TIMER_COUNTER_CENTER_
 109:../Firmware/GD32VW55x_standard_peripheral/Source/gd32vw55x_timer.c ****                   counterdirection: TIMER_COUNTER_UP, TIMER_COUNTER_DOWN
 110:../Firmware/GD32VW55x_standard_peripheral/Source/gd32vw55x_timer.c ****                   period: counter auto reload value, 0~65535(TIMERx(x=0,5,15,16)),0~4294967295(TIME
 111:../Firmware/GD32VW55x_standard_peripheral/Source/gd32vw55x_timer.c ****                   clockdivision: TIMER_CKDIV_DIV1, TIMER_CKDIV_DIV2, TIMER_CKDIV_DIV4
 112:../Firmware/GD32VW55x_standard_peripheral/Source/gd32vw55x_timer.c ****                   repetitioncounter: counter repetition value, 0~255
 113:../Firmware/GD32VW55x_standard_peripheral/Source/gd32vw55x_timer.c ****     \param[out] none
 114:../Firmware/GD32VW55x_standard_peripheral/Source/gd32vw55x_timer.c ****     \retval     none
 115:../Firmware/GD32VW55x_standard_peripheral/Source/gd32vw55x_timer.c **** */
 116:../Firmware/GD32VW55x_standard_peripheral/Source/gd32vw55x_timer.c **** void timer_init(uint32_t timer_periph, timer_parameter_struct* initpara)
 117:../Firmware/GD32VW55x_standard_peripheral/Source/gd32vw55x_timer.c **** {
 198              		.loc 1 117 1
 199              		.cfi_startproc
 200 0000 0111     		addi	sp,sp,-32
 201              		.cfi_def_cfa_offset 32
 202 0002 22CE     		sw	s0,28(sp)
 203              		.cfi_offset 8, -4
 204 0004 0010     		addi	s0,sp,32
 205              		.cfi_def_cfa 8, 0
 206 0006 2326A4FE 		sw	a0,-20(s0)
 207 000a 2324B4FE 		sw	a1,-24(s0)
 118:../Firmware/GD32VW55x_standard_peripheral/Source/gd32vw55x_timer.c ****     /* configure the counter prescaler value */
 119:../Firmware/GD32VW55x_standard_peripheral/Source/gd32vw55x_timer.c ****     TIMER_PSC(timer_periph) = (uint16_t)initpara->prescaler;
 208              		.loc 1 119 49
 209 000e 832784FE 		lw	a5,-24(s0)
 210 0012 03D70700 		lhu	a4,0(a5)
 211              		.loc 1 119 5
 212 0016 8327C4FE 		lw	a5,-20(s0)
 213 001a 93878702 		addi	a5,a5,40
 214              		.loc 1 119 29
 215 001e 98C3     		sw	a4,0(a5)
 120:../Firmware/GD32VW55x_standard_peripheral/Source/gd32vw55x_timer.c **** 
 121:../Firmware/GD32VW55x_standard_peripheral/Source/gd32vw55x_timer.c ****     /* configure the counter direction and aligned mode */
 122:../Firmware/GD32VW55x_standard_peripheral/Source/gd32vw55x_timer.c ****     if((TIMER0 == timer_periph) || (TIMER1 == timer_periph) || (TIMER2 == timer_periph)){
 216              		.loc 1 122 7
 217 0020 0327C4FE 		lw	a4,-20(s0)
 218 0024 B7070140 		li	a5,1073807360
 219 0028 6300F702 		beq	a4,a5,.L13
 220              		.loc 1 122 33 discriminator 1
 221 002c 0327C4FE 		lw	a4,-20(s0)
 222 0030 B7070040 		li	a5,1073741824
 223 0034 630AF700 		beq	a4,a5,.L13
 224              		.loc 1 122 61 discriminator 2
 225 0038 0327C4FE 		lw	a4,-20(s0)
 226 003c B7070040 		li	a5,1073741824
 227 0040 93870740 		addi	a5,a5,1024
 228 0044 6314F704 		bne	a4,a5,.L14
 229              	.L13:
 123:../Firmware/GD32VW55x_standard_peripheral/Source/gd32vw55x_timer.c ****         TIMER_CTL0(timer_periph) &= (~(uint32_t)(TIMER_CTL0_DIR | TIMER_CTL0_CAM));
 230              		.loc 1 123 34
 231 0048 8327C4FE 		lw	a5,-20(s0)
 232 004c 9843     		lw	a4,0(a5)
 233 004e 8327C4FE 		lw	a5,-20(s0)
 234 0052 1377F7F8 		andi	a4,a4,-113
 235 0056 98C3     		sw	a4,0(a5)
 124:../Firmware/GD32VW55x_standard_peripheral/Source/gd32vw55x_timer.c ****         TIMER_CTL0(timer_periph) |= (uint32_t)(initpara->alignedmode & ALIGNEDMODE_MASK);
 236              		.loc 1 124 34
 237 0058 8327C4FE 		lw	a5,-20(s0)
 238 005c 9443     		lw	a3,0(a5)
 239              		.loc 1 124 56
 240 005e 832784FE 		lw	a5,-24(s0)
 241 0062 83D72700 		lhu	a5,2(a5)
 242              		.loc 1 124 37
 243 0066 13F70706 		andi	a4,a5,96
 244              		.loc 1 124 34
 245 006a 8327C4FE 		lw	a5,-20(s0)
 246 006e 558F     		or	a4,a3,a4
 247 0070 98C3     		sw	a4,0(a5)
 125:../Firmware/GD32VW55x_standard_peripheral/Source/gd32vw55x_timer.c ****         TIMER_CTL0(timer_periph) |= (uint32_t)(initpara->counterdirection & COUNTERDIRECTION_MASK);
 248              		.loc 1 125 34
 249 0072 8327C4FE 		lw	a5,-20(s0)
 250 0076 9443     		lw	a3,0(a5)
 251              		.loc 1 125 56
 252 0078 832784FE 		lw	a5,-24(s0)
 253 007c 83D74700 		lhu	a5,4(a5)
 254              		.loc 1 125 37
 255 0080 13F70701 		andi	a4,a5,16
 256              		.loc 1 125 34
 257 0084 8327C4FE 		lw	a5,-20(s0)
 258 0088 558F     		or	a4,a3,a4
 259 008a 98C3     		sw	a4,0(a5)
 260              	.L14:
 126:../Firmware/GD32VW55x_standard_peripheral/Source/gd32vw55x_timer.c ****     }
 127:../Firmware/GD32VW55x_standard_peripheral/Source/gd32vw55x_timer.c **** 
 128:../Firmware/GD32VW55x_standard_peripheral/Source/gd32vw55x_timer.c ****     /* configure the autoreload value */
 129:../Firmware/GD32VW55x_standard_peripheral/Source/gd32vw55x_timer.c ****     TIMER_CAR(timer_periph) = (uint32_t)initpara->period;
 261              		.loc 1 129 5
 262 008c 8327C4FE 		lw	a5,-20(s0)
 263 0090 9387C702 		addi	a5,a5,44
 264 0094 3E87     		mv	a4,a5
 265              		.loc 1 129 49
 266 0096 832784FE 		lw	a5,-24(s0)
 267 009a 9C47     		lw	a5,8(a5)
 268              		.loc 1 129 29
 269 009c 1CC3     		sw	a5,0(a4)
 130:../Firmware/GD32VW55x_standard_peripheral/Source/gd32vw55x_timer.c **** 
 131:../Firmware/GD32VW55x_standard_peripheral/Source/gd32vw55x_timer.c ****     if(TIMER5 != timer_periph){
 270              		.loc 1 131 7
 271 009e 0327C4FE 		lw	a4,-20(s0)
 272 00a2 B7170040 		li	a5,1073745920
 273 00a6 6307F702 		beq	a4,a5,.L15
 132:../Firmware/GD32VW55x_standard_peripheral/Source/gd32vw55x_timer.c ****         /* reset the CKDIV bit */
 133:../Firmware/GD32VW55x_standard_peripheral/Source/gd32vw55x_timer.c ****         TIMER_CTL0(timer_periph) &= (~(uint32_t)TIMER_CTL0_CKDIV);
 274              		.loc 1 133 34
 275 00aa 8327C4FE 		lw	a5,-20(s0)
 276 00ae 9843     		lw	a4,0(a5)
 277 00b0 8327C4FE 		lw	a5,-20(s0)
 278 00b4 1377F7CF 		andi	a4,a4,-769
 279 00b8 98C3     		sw	a4,0(a5)
 134:../Firmware/GD32VW55x_standard_peripheral/Source/gd32vw55x_timer.c ****         TIMER_CTL0(timer_periph) |= (uint32_t)(initpara->clockdivision & CLOCKDIVISION_MASK);
 280              		.loc 1 134 34
 281 00ba 8327C4FE 		lw	a5,-20(s0)
 282 00be 9443     		lw	a3,0(a5)
 283              		.loc 1 134 56
 284 00c0 832784FE 		lw	a5,-24(s0)
 285 00c4 83D7C700 		lhu	a5,12(a5)
 286              		.loc 1 134 37
 287 00c8 13F70730 		andi	a4,a5,768
 288              		.loc 1 134 34
 289 00cc 8327C4FE 		lw	a5,-20(s0)
 290 00d0 558F     		or	a4,a3,a4
 291 00d2 98C3     		sw	a4,0(a5)
 292              	.L15:
 135:../Firmware/GD32VW55x_standard_peripheral/Source/gd32vw55x_timer.c ****     }
 136:../Firmware/GD32VW55x_standard_peripheral/Source/gd32vw55x_timer.c **** 
 137:../Firmware/GD32VW55x_standard_peripheral/Source/gd32vw55x_timer.c ****     if((TIMER0 == timer_periph) || (TIMER15 == timer_periph) || (TIMER16 == timer_periph)){
 293              		.loc 1 137 7
 294 00d4 0327C4FE 		lw	a4,-20(s0)
 295 00d8 B7070140 		li	a5,1073807360
 296 00dc 6300F702 		beq	a4,a5,.L16
 297              		.loc 1 137 33 discriminator 1
 298 00e0 0327C4FE 		lw	a4,-20(s0)
 299 00e4 B7870140 		li	a5,1073840128
 300 00e8 630AF700 		beq	a4,a5,.L16
 301              		.loc 1 137 62 discriminator 2
 302 00ec 0327C4FE 		lw	a4,-20(s0)
 303 00f0 B7870140 		li	a5,1073840128
 304 00f4 93870740 		addi	a5,a5,1024
 305 00f8 631BF700 		bne	a4,a5,.L17
 306              	.L16:
 138:../Firmware/GD32VW55x_standard_peripheral/Source/gd32vw55x_timer.c ****         /* configure the repetition counter value */
 139:../Firmware/GD32VW55x_standard_peripheral/Source/gd32vw55x_timer.c ****         TIMER_CREP(timer_periph) = (uint32_t)initpara->repetitioncounter;
 307              		.loc 1 139 54
 308 00fc 832784FE 		lw	a5,-24(s0)
 309 0100 03C7E700 		lbu	a4,14(a5)
 310              		.loc 1 139 9
 311 0104 8327C4FE 		lw	a5,-20(s0)
 312 0108 93870703 		addi	a5,a5,48
 313              		.loc 1 139 34
 314 010c 98C3     		sw	a4,0(a5)
 315              	.L17:
 140:../Firmware/GD32VW55x_standard_peripheral/Source/gd32vw55x_timer.c ****     }
 141:../Firmware/GD32VW55x_standard_peripheral/Source/gd32vw55x_timer.c **** 
 142:../Firmware/GD32VW55x_standard_peripheral/Source/gd32vw55x_timer.c ****     /* generate an update event */
 143:../Firmware/GD32VW55x_standard_peripheral/Source/gd32vw55x_timer.c ****     TIMER_SWEVG(timer_periph) |= (uint32_t)TIMER_SWEVG_UPG;
 316              		.loc 1 143 31
 317 010e 8327C4FE 		lw	a5,-20(s0)
 318 0112 D107     		addi	a5,a5,20
 319 0114 9C43     		lw	a5,0(a5)
 320 0116 0327C4FE 		lw	a4,-20(s0)
 321 011a 5107     		addi	a4,a4,20
 322 011c 93E71700 		ori	a5,a5,1
 323 0120 1CC3     		sw	a5,0(a4)
 144:../Firmware/GD32VW55x_standard_peripheral/Source/gd32vw55x_timer.c **** }
 324              		.loc 1 144 1
 325 0122 0100     		nop
 326 0124 7244     		lw	s0,28(sp)
 327              		.cfi_restore 8
 328              		.cfi_def_cfa 2, 32
 329 0126 0561     		addi	sp,sp,32
 330              		.cfi_def_cfa_offset 0
 331 0128 8280     		jr	ra
 332              		.cfi_endproc
 333              	.LFE349:
 335              		.section	.text.timer_enable,"ax",@progbits
 336              		.align	1
 337              		.globl	timer_enable
 339              	timer_enable:
 340              	.LFB350:
 145:../Firmware/GD32VW55x_standard_peripheral/Source/gd32vw55x_timer.c **** 
 146:../Firmware/GD32VW55x_standard_peripheral/Source/gd32vw55x_timer.c **** /*!
 147:../Firmware/GD32VW55x_standard_peripheral/Source/gd32vw55x_timer.c ****     \brief      enable a TIMER
 148:../Firmware/GD32VW55x_standard_peripheral/Source/gd32vw55x_timer.c ****     \param[in]  timer_periph: TIMERx(x=0,1,2,5,15,16)
 149:../Firmware/GD32VW55x_standard_peripheral/Source/gd32vw55x_timer.c ****     \param[out] none
 150:../Firmware/GD32VW55x_standard_peripheral/Source/gd32vw55x_timer.c ****     \retval     none
 151:../Firmware/GD32VW55x_standard_peripheral/Source/gd32vw55x_timer.c **** */
 152:../Firmware/GD32VW55x_standard_peripheral/Source/gd32vw55x_timer.c **** void timer_enable(uint32_t timer_periph)
 153:../Firmware/GD32VW55x_standard_peripheral/Source/gd32vw55x_timer.c **** {
 341              		.loc 1 153 1
 342              		.cfi_startproc
 343 0000 0111     		addi	sp,sp,-32
 344              		.cfi_def_cfa_offset 32
 345 0002 22CE     		sw	s0,28(sp)
 346              		.cfi_offset 8, -4
 347 0004 0010     		addi	s0,sp,32
 348              		.cfi_def_cfa 8, 0
 349 0006 2326A4FE 		sw	a0,-20(s0)
 154:../Firmware/GD32VW55x_standard_peripheral/Source/gd32vw55x_timer.c ****     TIMER_CTL0(timer_periph) |= (uint32_t)TIMER_CTL0_CEN;
 350              		.loc 1 154 30
 351 000a 8327C4FE 		lw	a5,-20(s0)
 352 000e 9843     		lw	a4,0(a5)
 353 0010 8327C4FE 		lw	a5,-20(s0)
 354 0014 13671700 		ori	a4,a4,1
 355 0018 98C3     		sw	a4,0(a5)
 155:../Firmware/GD32VW55x_standard_peripheral/Source/gd32vw55x_timer.c **** }
 356              		.loc 1 155 1
 357 001a 0100     		nop
 358 001c 7244     		lw	s0,28(sp)
 359              		.cfi_restore 8
 360              		.cfi_def_cfa 2, 32
 361 001e 0561     		addi	sp,sp,32
 362              		.cfi_def_cfa_offset 0
 363 0020 8280     		jr	ra
 364              		.cfi_endproc
 365              	.LFE350:
 367              		.section	.text.timer_disable,"ax",@progbits
 368              		.align	1
 369              		.globl	timer_disable
 371              	timer_disable:
 372              	.LFB351:
 156:../Firmware/GD32VW55x_standard_peripheral/Source/gd32vw55x_timer.c **** 
 157:../Firmware/GD32VW55x_standard_peripheral/Source/gd32vw55x_timer.c **** /*!
 158:../Firmware/GD32VW55x_standard_peripheral/Source/gd32vw55x_timer.c ****     \brief      disable a TIMER
 159:../Firmware/GD32VW55x_standard_peripheral/Source/gd32vw55x_timer.c ****     \param[in]  timer_periph: TIMERx(x=0,1,2,5,15,16)
 160:../Firmware/GD32VW55x_standard_peripheral/Source/gd32vw55x_timer.c ****     \param[out] none
 161:../Firmware/GD32VW55x_standard_peripheral/Source/gd32vw55x_timer.c ****     \retval     none
 162:../Firmware/GD32VW55x_standard_peripheral/Source/gd32vw55x_timer.c **** */
 163:../Firmware/GD32VW55x_standard_peripheral/Source/gd32vw55x_timer.c **** void timer_disable(uint32_t timer_periph)
 164:../Firmware/GD32VW55x_standard_peripheral/Source/gd32vw55x_timer.c **** {
 373              		.loc 1 164 1
 374              		.cfi_startproc
 375 0000 0111     		addi	sp,sp,-32
 376              		.cfi_def_cfa_offset 32
 377 0002 22CE     		sw	s0,28(sp)
 378              		.cfi_offset 8, -4
 379 0004 0010     		addi	s0,sp,32
 380              		.cfi_def_cfa 8, 0
 381 0006 2326A4FE 		sw	a0,-20(s0)
 165:../Firmware/GD32VW55x_standard_peripheral/Source/gd32vw55x_timer.c ****     TIMER_CTL0(timer_periph) &= ~(uint32_t)TIMER_CTL0_CEN;
 382              		.loc 1 165 30
 383 000a 8327C4FE 		lw	a5,-20(s0)
 384 000e 9843     		lw	a4,0(a5)
 385 0010 8327C4FE 		lw	a5,-20(s0)
 386 0014 799B     		andi	a4,a4,-2
 387 0016 98C3     		sw	a4,0(a5)
 166:../Firmware/GD32VW55x_standard_peripheral/Source/gd32vw55x_timer.c **** }
 388              		.loc 1 166 1
 389 0018 0100     		nop
 390 001a 7244     		lw	s0,28(sp)
 391              		.cfi_restore 8
 392              		.cfi_def_cfa 2, 32
 393 001c 0561     		addi	sp,sp,32
 394              		.cfi_def_cfa_offset 0
 395 001e 8280     		jr	ra
 396              		.cfi_endproc
 397              	.LFE351:
 399              		.section	.text.timer_auto_reload_shadow_enable,"ax",@progbits
 400              		.align	1
 401              		.globl	timer_auto_reload_shadow_enable
 403              	timer_auto_reload_shadow_enable:
 404              	.LFB352:
 167:../Firmware/GD32VW55x_standard_peripheral/Source/gd32vw55x_timer.c **** 
 168:../Firmware/GD32VW55x_standard_peripheral/Source/gd32vw55x_timer.c **** /*!
 169:../Firmware/GD32VW55x_standard_peripheral/Source/gd32vw55x_timer.c ****     \brief      enable the auto reload shadow function
 170:../Firmware/GD32VW55x_standard_peripheral/Source/gd32vw55x_timer.c ****     \param[in]  timer_periph: TIMERx(x=0,1,2,5,15,16)
 171:../Firmware/GD32VW55x_standard_peripheral/Source/gd32vw55x_timer.c ****     \param[out] none
 172:../Firmware/GD32VW55x_standard_peripheral/Source/gd32vw55x_timer.c ****     \retval     none
 173:../Firmware/GD32VW55x_standard_peripheral/Source/gd32vw55x_timer.c **** */
 174:../Firmware/GD32VW55x_standard_peripheral/Source/gd32vw55x_timer.c **** void timer_auto_reload_shadow_enable(uint32_t timer_periph)
 175:../Firmware/GD32VW55x_standard_peripheral/Source/gd32vw55x_timer.c **** {
 405              		.loc 1 175 1
 406              		.cfi_startproc
 407 0000 0111     		addi	sp,sp,-32
 408              		.cfi_def_cfa_offset 32
 409 0002 22CE     		sw	s0,28(sp)
 410              		.cfi_offset 8, -4
 411 0004 0010     		addi	s0,sp,32
 412              		.cfi_def_cfa 8, 0
 413 0006 2326A4FE 		sw	a0,-20(s0)
 176:../Firmware/GD32VW55x_standard_peripheral/Source/gd32vw55x_timer.c ****     TIMER_CTL0(timer_periph) |= (uint32_t)TIMER_CTL0_ARSE;
 414              		.loc 1 176 30
 415 000a 8327C4FE 		lw	a5,-20(s0)
 416 000e 9843     		lw	a4,0(a5)
 417 0010 8327C4FE 		lw	a5,-20(s0)
 418 0014 13670708 		ori	a4,a4,128
 419 0018 98C3     		sw	a4,0(a5)
 177:../Firmware/GD32VW55x_standard_peripheral/Source/gd32vw55x_timer.c **** }
 420              		.loc 1 177 1
 421 001a 0100     		nop
 422 001c 7244     		lw	s0,28(sp)
 423              		.cfi_restore 8
 424              		.cfi_def_cfa 2, 32
 425 001e 0561     		addi	sp,sp,32
 426              		.cfi_def_cfa_offset 0
 427 0020 8280     		jr	ra
 428              		.cfi_endproc
 429              	.LFE352:
 431              		.section	.text.timer_auto_reload_shadow_disable,"ax",@progbits
 432              		.align	1
 433              		.globl	timer_auto_reload_shadow_disable
 435              	timer_auto_reload_shadow_disable:
 436              	.LFB353:
 178:../Firmware/GD32VW55x_standard_peripheral/Source/gd32vw55x_timer.c **** 
 179:../Firmware/GD32VW55x_standard_peripheral/Source/gd32vw55x_timer.c **** /*!
 180:../Firmware/GD32VW55x_standard_peripheral/Source/gd32vw55x_timer.c ****     \brief      disable the auto reload shadow function
 181:../Firmware/GD32VW55x_standard_peripheral/Source/gd32vw55x_timer.c ****     \param[in]  timer_periph: TIMERx(x=0,1,2,5,15,16)
 182:../Firmware/GD32VW55x_standard_peripheral/Source/gd32vw55x_timer.c ****     \param[out] none
 183:../Firmware/GD32VW55x_standard_peripheral/Source/gd32vw55x_timer.c ****     \retval     none
 184:../Firmware/GD32VW55x_standard_peripheral/Source/gd32vw55x_timer.c **** */
 185:../Firmware/GD32VW55x_standard_peripheral/Source/gd32vw55x_timer.c **** void timer_auto_reload_shadow_disable(uint32_t timer_periph)
 186:../Firmware/GD32VW55x_standard_peripheral/Source/gd32vw55x_timer.c **** {
 437              		.loc 1 186 1
 438              		.cfi_startproc
 439 0000 0111     		addi	sp,sp,-32
 440              		.cfi_def_cfa_offset 32
 441 0002 22CE     		sw	s0,28(sp)
 442              		.cfi_offset 8, -4
 443 0004 0010     		addi	s0,sp,32
 444              		.cfi_def_cfa 8, 0
 445 0006 2326A4FE 		sw	a0,-20(s0)
 187:../Firmware/GD32VW55x_standard_peripheral/Source/gd32vw55x_timer.c ****     TIMER_CTL0(timer_periph) &= ~(uint32_t)TIMER_CTL0_ARSE;
 446              		.loc 1 187 30
 447 000a 8327C4FE 		lw	a5,-20(s0)
 448 000e 9843     		lw	a4,0(a5)
 449 0010 8327C4FE 		lw	a5,-20(s0)
 450 0014 1377F7F7 		andi	a4,a4,-129
 451 0018 98C3     		sw	a4,0(a5)
 188:../Firmware/GD32VW55x_standard_peripheral/Source/gd32vw55x_timer.c **** }
 452              		.loc 1 188 1
 453 001a 0100     		nop
 454 001c 7244     		lw	s0,28(sp)
 455              		.cfi_restore 8
 456              		.cfi_def_cfa 2, 32
 457 001e 0561     		addi	sp,sp,32
 458              		.cfi_def_cfa_offset 0
 459 0020 8280     		jr	ra
 460              		.cfi_endproc
 461              	.LFE353:
 463              		.section	.text.timer_update_event_enable,"ax",@progbits
 464              		.align	1
 465              		.globl	timer_update_event_enable
 467              	timer_update_event_enable:
 468              	.LFB354:
 189:../Firmware/GD32VW55x_standard_peripheral/Source/gd32vw55x_timer.c **** 
 190:../Firmware/GD32VW55x_standard_peripheral/Source/gd32vw55x_timer.c **** /*!
 191:../Firmware/GD32VW55x_standard_peripheral/Source/gd32vw55x_timer.c ****     \brief      enable the update event
 192:../Firmware/GD32VW55x_standard_peripheral/Source/gd32vw55x_timer.c ****     \param[in]  timer_periph: TIMERx(x=0,1,2,5,15,16)
 193:../Firmware/GD32VW55x_standard_peripheral/Source/gd32vw55x_timer.c ****     \param[out] none
 194:../Firmware/GD32VW55x_standard_peripheral/Source/gd32vw55x_timer.c ****     \retval     none
 195:../Firmware/GD32VW55x_standard_peripheral/Source/gd32vw55x_timer.c **** */
 196:../Firmware/GD32VW55x_standard_peripheral/Source/gd32vw55x_timer.c **** void timer_update_event_enable(uint32_t timer_periph)
 197:../Firmware/GD32VW55x_standard_peripheral/Source/gd32vw55x_timer.c **** {
 469              		.loc 1 197 1
 470              		.cfi_startproc
 471 0000 0111     		addi	sp,sp,-32
 472              		.cfi_def_cfa_offset 32
 473 0002 22CE     		sw	s0,28(sp)
 474              		.cfi_offset 8, -4
 475 0004 0010     		addi	s0,sp,32
 476              		.cfi_def_cfa 8, 0
 477 0006 2326A4FE 		sw	a0,-20(s0)
 198:../Firmware/GD32VW55x_standard_peripheral/Source/gd32vw55x_timer.c ****     TIMER_CTL0(timer_periph) &= ~(uint32_t)TIMER_CTL0_UPDIS;
 478              		.loc 1 198 30
 479 000a 8327C4FE 		lw	a5,-20(s0)
 480 000e 9843     		lw	a4,0(a5)
 481 0010 8327C4FE 		lw	a5,-20(s0)
 482 0014 759B     		andi	a4,a4,-3
 483 0016 98C3     		sw	a4,0(a5)
 199:../Firmware/GD32VW55x_standard_peripheral/Source/gd32vw55x_timer.c **** }
 484              		.loc 1 199 1
 485 0018 0100     		nop
 486 001a 7244     		lw	s0,28(sp)
 487              		.cfi_restore 8
 488              		.cfi_def_cfa 2, 32
 489 001c 0561     		addi	sp,sp,32
 490              		.cfi_def_cfa_offset 0
 491 001e 8280     		jr	ra
 492              		.cfi_endproc
 493              	.LFE354:
 495              		.section	.text.timer_update_event_disable,"ax",@progbits
 496              		.align	1
 497              		.globl	timer_update_event_disable
 499              	timer_update_event_disable:
 500              	.LFB355:
 200:../Firmware/GD32VW55x_standard_peripheral/Source/gd32vw55x_timer.c **** 
 201:../Firmware/GD32VW55x_standard_peripheral/Source/gd32vw55x_timer.c **** /*!
 202:../Firmware/GD32VW55x_standard_peripheral/Source/gd32vw55x_timer.c ****     \brief      disable the update event
 203:../Firmware/GD32VW55x_standard_peripheral/Source/gd32vw55x_timer.c ****     \param[in]  timer_periph: TIMERx(x=0,1,2,5,15,16)
 204:../Firmware/GD32VW55x_standard_peripheral/Source/gd32vw55x_timer.c ****     \param[out] none
 205:../Firmware/GD32VW55x_standard_peripheral/Source/gd32vw55x_timer.c ****     \retval     none
 206:../Firmware/GD32VW55x_standard_peripheral/Source/gd32vw55x_timer.c **** */
 207:../Firmware/GD32VW55x_standard_peripheral/Source/gd32vw55x_timer.c **** void timer_update_event_disable(uint32_t timer_periph)
 208:../Firmware/GD32VW55x_standard_peripheral/Source/gd32vw55x_timer.c **** {
 501              		.loc 1 208 1
 502              		.cfi_startproc
 503 0000 0111     		addi	sp,sp,-32
 504              		.cfi_def_cfa_offset 32
 505 0002 22CE     		sw	s0,28(sp)
 506              		.cfi_offset 8, -4
 507 0004 0010     		addi	s0,sp,32
 508              		.cfi_def_cfa 8, 0
 509 0006 2326A4FE 		sw	a0,-20(s0)
 209:../Firmware/GD32VW55x_standard_peripheral/Source/gd32vw55x_timer.c ****     TIMER_CTL0(timer_periph) |= (uint32_t) TIMER_CTL0_UPDIS;
 510              		.loc 1 209 30
 511 000a 8327C4FE 		lw	a5,-20(s0)
 512 000e 9843     		lw	a4,0(a5)
 513 0010 8327C4FE 		lw	a5,-20(s0)
 514 0014 13672700 		ori	a4,a4,2
 515 0018 98C3     		sw	a4,0(a5)
 210:../Firmware/GD32VW55x_standard_peripheral/Source/gd32vw55x_timer.c **** }
 516              		.loc 1 210 1
 517 001a 0100     		nop
 518 001c 7244     		lw	s0,28(sp)
 519              		.cfi_restore 8
 520              		.cfi_def_cfa 2, 32
 521 001e 0561     		addi	sp,sp,32
 522              		.cfi_def_cfa_offset 0
 523 0020 8280     		jr	ra
 524              		.cfi_endproc
 525              	.LFE355:
 527              		.section	.text.timer_counter_alignment,"ax",@progbits
 528              		.align	1
 529              		.globl	timer_counter_alignment
 531              	timer_counter_alignment:
 532              	.LFB356:
 211:../Firmware/GD32VW55x_standard_peripheral/Source/gd32vw55x_timer.c **** 
 212:../Firmware/GD32VW55x_standard_peripheral/Source/gd32vw55x_timer.c **** /*!
 213:../Firmware/GD32VW55x_standard_peripheral/Source/gd32vw55x_timer.c ****     \brief      set TIMER counter alignment mode
 214:../Firmware/GD32VW55x_standard_peripheral/Source/gd32vw55x_timer.c ****     \param[in]  timer_periph: TIMERx(x=0,1,2)
 215:../Firmware/GD32VW55x_standard_peripheral/Source/gd32vw55x_timer.c ****     \param[in]  aligned:
 216:../Firmware/GD32VW55x_standard_peripheral/Source/gd32vw55x_timer.c ****                 only one parameter can be selected which is shown as below:
 217:../Firmware/GD32VW55x_standard_peripheral/Source/gd32vw55x_timer.c ****       \arg        TIMER_COUNTER_EDGE: edge-aligned mode
 218:../Firmware/GD32VW55x_standard_peripheral/Source/gd32vw55x_timer.c ****       \arg        TIMER_COUNTER_CENTER_DOWN: center-aligned and counting down assert mode
 219:../Firmware/GD32VW55x_standard_peripheral/Source/gd32vw55x_timer.c ****       \arg        TIMER_COUNTER_CENTER_UP: center-aligned and counting up assert mode
 220:../Firmware/GD32VW55x_standard_peripheral/Source/gd32vw55x_timer.c ****       \arg        TIMER_COUNTER_CENTER_BOTH: center-aligned and counting up/down assert mode
 221:../Firmware/GD32VW55x_standard_peripheral/Source/gd32vw55x_timer.c ****     \param[out] none
 222:../Firmware/GD32VW55x_standard_peripheral/Source/gd32vw55x_timer.c ****     \retval     none
 223:../Firmware/GD32VW55x_standard_peripheral/Source/gd32vw55x_timer.c **** */
 224:../Firmware/GD32VW55x_standard_peripheral/Source/gd32vw55x_timer.c **** void timer_counter_alignment(uint32_t timer_periph, uint16_t aligned)
 225:../Firmware/GD32VW55x_standard_peripheral/Source/gd32vw55x_timer.c **** {
 533              		.loc 1 225 1
 534              		.cfi_startproc
 535 0000 0111     		addi	sp,sp,-32
 536              		.cfi_def_cfa_offset 32
 537 0002 22CE     		sw	s0,28(sp)
 538              		.cfi_offset 8, -4
 539 0004 0010     		addi	s0,sp,32
 540              		.cfi_def_cfa 8, 0
 541 0006 2326A4FE 		sw	a0,-20(s0)
 542 000a AE87     		mv	a5,a1
 543 000c 2315F4FE 		sh	a5,-22(s0)
 226:../Firmware/GD32VW55x_standard_peripheral/Source/gd32vw55x_timer.c ****     TIMER_CTL0(timer_periph) &= (uint32_t)(~TIMER_CTL0_CAM);
 544              		.loc 1 226 30
 545 0010 8327C4FE 		lw	a5,-20(s0)
 546 0014 9843     		lw	a4,0(a5)
 547 0016 8327C4FE 		lw	a5,-20(s0)
 548 001a 1377F7F9 		andi	a4,a4,-97
 549 001e 98C3     		sw	a4,0(a5)
 227:../Firmware/GD32VW55x_standard_peripheral/Source/gd32vw55x_timer.c ****     TIMER_CTL0(timer_periph) |= (uint32_t)aligned;
 550              		.loc 1 227 30
 551 0020 8327C4FE 		lw	a5,-20(s0)
 552 0024 9443     		lw	a3,0(a5)
 553              		.loc 1 227 33
 554 0026 0357A4FE 		lhu	a4,-22(s0)
 555              		.loc 1 227 30
 556 002a 8327C4FE 		lw	a5,-20(s0)
 557 002e 558F     		or	a4,a3,a4
 558 0030 98C3     		sw	a4,0(a5)
 228:../Firmware/GD32VW55x_standard_peripheral/Source/gd32vw55x_timer.c **** }
 559              		.loc 1 228 1
 560 0032 0100     		nop
 561 0034 7244     		lw	s0,28(sp)
 562              		.cfi_restore 8
 563              		.cfi_def_cfa 2, 32
 564 0036 0561     		addi	sp,sp,32
 565              		.cfi_def_cfa_offset 0
 566 0038 8280     		jr	ra
 567              		.cfi_endproc
 568              	.LFE356:
 570              		.section	.text.timer_counter_up_direction,"ax",@progbits
 571              		.align	1
 572              		.globl	timer_counter_up_direction
 574              	timer_counter_up_direction:
 575              	.LFB357:
 229:../Firmware/GD32VW55x_standard_peripheral/Source/gd32vw55x_timer.c **** 
 230:../Firmware/GD32VW55x_standard_peripheral/Source/gd32vw55x_timer.c **** /*!
 231:../Firmware/GD32VW55x_standard_peripheral/Source/gd32vw55x_timer.c ****     \brief      set TIMER counter up direction
 232:../Firmware/GD32VW55x_standard_peripheral/Source/gd32vw55x_timer.c ****     \param[in]  timer_periph: TIMERx(x=0,1,2)
 233:../Firmware/GD32VW55x_standard_peripheral/Source/gd32vw55x_timer.c ****     \param[out] none
 234:../Firmware/GD32VW55x_standard_peripheral/Source/gd32vw55x_timer.c ****     \retval     none
 235:../Firmware/GD32VW55x_standard_peripheral/Source/gd32vw55x_timer.c **** */
 236:../Firmware/GD32VW55x_standard_peripheral/Source/gd32vw55x_timer.c **** void timer_counter_up_direction(uint32_t timer_periph)
 237:../Firmware/GD32VW55x_standard_peripheral/Source/gd32vw55x_timer.c **** {
 576              		.loc 1 237 1
 577              		.cfi_startproc
 578 0000 0111     		addi	sp,sp,-32
 579              		.cfi_def_cfa_offset 32
 580 0002 22CE     		sw	s0,28(sp)
 581              		.cfi_offset 8, -4
 582 0004 0010     		addi	s0,sp,32
 583              		.cfi_def_cfa 8, 0
 584 0006 2326A4FE 		sw	a0,-20(s0)
 238:../Firmware/GD32VW55x_standard_peripheral/Source/gd32vw55x_timer.c ****     TIMER_CTL0(timer_periph) &= ~(uint32_t)TIMER_CTL0_DIR;
 585              		.loc 1 238 30
 586 000a 8327C4FE 		lw	a5,-20(s0)
 587 000e 9843     		lw	a4,0(a5)
 588 0010 8327C4FE 		lw	a5,-20(s0)
 589 0014 3D9B     		andi	a4,a4,-17
 590 0016 98C3     		sw	a4,0(a5)
 239:../Firmware/GD32VW55x_standard_peripheral/Source/gd32vw55x_timer.c **** }
 591              		.loc 1 239 1
 592 0018 0100     		nop
 593 001a 7244     		lw	s0,28(sp)
 594              		.cfi_restore 8
 595              		.cfi_def_cfa 2, 32
 596 001c 0561     		addi	sp,sp,32
 597              		.cfi_def_cfa_offset 0
 598 001e 8280     		jr	ra
 599              		.cfi_endproc
 600              	.LFE357:
 602              		.section	.text.timer_counter_down_direction,"ax",@progbits
 603              		.align	1
 604              		.globl	timer_counter_down_direction
 606              	timer_counter_down_direction:
 607              	.LFB358:
 240:../Firmware/GD32VW55x_standard_peripheral/Source/gd32vw55x_timer.c **** 
 241:../Firmware/GD32VW55x_standard_peripheral/Source/gd32vw55x_timer.c **** /*!
 242:../Firmware/GD32VW55x_standard_peripheral/Source/gd32vw55x_timer.c ****     \brief      set TIMER counter down direction
 243:../Firmware/GD32VW55x_standard_peripheral/Source/gd32vw55x_timer.c ****     \param[in]  timer_periph: TIMERx(x=0,1,2)
 244:../Firmware/GD32VW55x_standard_peripheral/Source/gd32vw55x_timer.c ****     \param[out] none
 245:../Firmware/GD32VW55x_standard_peripheral/Source/gd32vw55x_timer.c ****     \retval     none
 246:../Firmware/GD32VW55x_standard_peripheral/Source/gd32vw55x_timer.c **** */
 247:../Firmware/GD32VW55x_standard_peripheral/Source/gd32vw55x_timer.c **** void timer_counter_down_direction(uint32_t timer_periph)
 248:../Firmware/GD32VW55x_standard_peripheral/Source/gd32vw55x_timer.c **** {
 608              		.loc 1 248 1
 609              		.cfi_startproc
 610 0000 0111     		addi	sp,sp,-32
 611              		.cfi_def_cfa_offset 32
 612 0002 22CE     		sw	s0,28(sp)
 613              		.cfi_offset 8, -4
 614 0004 0010     		addi	s0,sp,32
 615              		.cfi_def_cfa 8, 0
 616 0006 2326A4FE 		sw	a0,-20(s0)
 249:../Firmware/GD32VW55x_standard_peripheral/Source/gd32vw55x_timer.c ****     TIMER_CTL0(timer_periph) |= (uint32_t)TIMER_CTL0_DIR;
 617              		.loc 1 249 30
 618 000a 8327C4FE 		lw	a5,-20(s0)
 619 000e 9843     		lw	a4,0(a5)
 620 0010 8327C4FE 		lw	a5,-20(s0)
 621 0014 13670701 		ori	a4,a4,16
 622 0018 98C3     		sw	a4,0(a5)
 250:../Firmware/GD32VW55x_standard_peripheral/Source/gd32vw55x_timer.c **** }
 623              		.loc 1 250 1
 624 001a 0100     		nop
 625 001c 7244     		lw	s0,28(sp)
 626              		.cfi_restore 8
 627              		.cfi_def_cfa 2, 32
 628 001e 0561     		addi	sp,sp,32
 629              		.cfi_def_cfa_offset 0
 630 0020 8280     		jr	ra
 631              		.cfi_endproc
 632              	.LFE358:
 634              		.section	.text.timer_prescaler_config,"ax",@progbits
 635              		.align	1
 636              		.globl	timer_prescaler_config
 638              	timer_prescaler_config:
 639              	.LFB359:
 251:../Firmware/GD32VW55x_standard_peripheral/Source/gd32vw55x_timer.c **** 
 252:../Firmware/GD32VW55x_standard_peripheral/Source/gd32vw55x_timer.c **** /*!
 253:../Firmware/GD32VW55x_standard_peripheral/Source/gd32vw55x_timer.c ****     \brief      configure TIMER prescaler
 254:../Firmware/GD32VW55x_standard_peripheral/Source/gd32vw55x_timer.c ****     \param[in]  timer_periph: TIMERx(x=0,1,2,5,15,16)
 255:../Firmware/GD32VW55x_standard_peripheral/Source/gd32vw55x_timer.c ****     \param[in]  prescaler: prescaler value,0~65535
 256:../Firmware/GD32VW55x_standard_peripheral/Source/gd32vw55x_timer.c ****     \param[in]  pscreload: prescaler reload mode
 257:../Firmware/GD32VW55x_standard_peripheral/Source/gd32vw55x_timer.c ****                 only one parameter can be selected which is shown as below:
 258:../Firmware/GD32VW55x_standard_peripheral/Source/gd32vw55x_timer.c ****       \arg        TIMER_PSC_RELOAD_NOW: the prescaler is loaded right now
 259:../Firmware/GD32VW55x_standard_peripheral/Source/gd32vw55x_timer.c ****       \arg        TIMER_PSC_RELOAD_UPDATE: the prescaler is loaded at the next update event
 260:../Firmware/GD32VW55x_standard_peripheral/Source/gd32vw55x_timer.c ****     \param[out] none
 261:../Firmware/GD32VW55x_standard_peripheral/Source/gd32vw55x_timer.c ****     \retval     none
 262:../Firmware/GD32VW55x_standard_peripheral/Source/gd32vw55x_timer.c **** */
 263:../Firmware/GD32VW55x_standard_peripheral/Source/gd32vw55x_timer.c **** void timer_prescaler_config(uint32_t timer_periph, uint16_t prescaler, uint32_t pscreload)
 264:../Firmware/GD32VW55x_standard_peripheral/Source/gd32vw55x_timer.c **** {
 640              		.loc 1 264 1
 641              		.cfi_startproc
 642 0000 0111     		addi	sp,sp,-32
 643              		.cfi_def_cfa_offset 32
 644 0002 22CE     		sw	s0,28(sp)
 645              		.cfi_offset 8, -4
 646 0004 0010     		addi	s0,sp,32
 647              		.cfi_def_cfa 8, 0
 648 0006 2326A4FE 		sw	a0,-20(s0)
 649 000a AE87     		mv	a5,a1
 650 000c 2322C4FE 		sw	a2,-28(s0)
 651 0010 2315F4FE 		sh	a5,-22(s0)
 265:../Firmware/GD32VW55x_standard_peripheral/Source/gd32vw55x_timer.c ****     TIMER_PSC(timer_periph) = (uint32_t)prescaler;
 652              		.loc 1 265 5
 653 0014 8327C4FE 		lw	a5,-20(s0)
 654 0018 93878702 		addi	a5,a5,40
 655 001c 3E87     		mv	a4,a5
 656              		.loc 1 265 31
 657 001e 8357A4FE 		lhu	a5,-22(s0)
 658              		.loc 1 265 29
 659 0022 1CC3     		sw	a5,0(a4)
 266:../Firmware/GD32VW55x_standard_peripheral/Source/gd32vw55x_timer.c **** 
 267:../Firmware/GD32VW55x_standard_peripheral/Source/gd32vw55x_timer.c ****     if(TIMER_PSC_RELOAD_NOW == pscreload){
 660              		.loc 1 267 7
 661 0024 832744FE 		lw	a5,-28(s0)
 662 0028 99EB     		bne	a5,zero,.L29
 268:../Firmware/GD32VW55x_standard_peripheral/Source/gd32vw55x_timer.c ****         TIMER_SWEVG(timer_periph) |= (uint32_t)TIMER_SWEVG_UPG;
 663              		.loc 1 268 35
 664 002a 8327C4FE 		lw	a5,-20(s0)
 665 002e D107     		addi	a5,a5,20
 666 0030 9C43     		lw	a5,0(a5)
 667 0032 0327C4FE 		lw	a4,-20(s0)
 668 0036 5107     		addi	a4,a4,20
 669 0038 93E71700 		ori	a5,a5,1
 670 003c 1CC3     		sw	a5,0(a4)
 671              	.L29:
 269:../Firmware/GD32VW55x_standard_peripheral/Source/gd32vw55x_timer.c ****     }
 270:../Firmware/GD32VW55x_standard_peripheral/Source/gd32vw55x_timer.c **** }
 672              		.loc 1 270 1
 673 003e 0100     		nop
 674 0040 7244     		lw	s0,28(sp)
 675              		.cfi_restore 8
 676              		.cfi_def_cfa 2, 32
 677 0042 0561     		addi	sp,sp,32
 678              		.cfi_def_cfa_offset 0
 679 0044 8280     		jr	ra
 680              		.cfi_endproc
 681              	.LFE359:
 683              		.section	.text.timer_repetition_value_config,"ax",@progbits
 684              		.align	1
 685              		.globl	timer_repetition_value_config
 687              	timer_repetition_value_config:
 688              	.LFB360:
 271:../Firmware/GD32VW55x_standard_peripheral/Source/gd32vw55x_timer.c **** 
 272:../Firmware/GD32VW55x_standard_peripheral/Source/gd32vw55x_timer.c **** /*!
 273:../Firmware/GD32VW55x_standard_peripheral/Source/gd32vw55x_timer.c ****     \brief      configure TIMER repetition register value
 274:../Firmware/GD32VW55x_standard_peripheral/Source/gd32vw55x_timer.c ****     \param[in]  timer_periph: TIMERx(x=0,15,16)
 275:../Firmware/GD32VW55x_standard_peripheral/Source/gd32vw55x_timer.c ****     \param[in]  repetition: the counter repetition value, 0~255
 276:../Firmware/GD32VW55x_standard_peripheral/Source/gd32vw55x_timer.c ****     \param[out] none
 277:../Firmware/GD32VW55x_standard_peripheral/Source/gd32vw55x_timer.c ****     \retval     none
 278:../Firmware/GD32VW55x_standard_peripheral/Source/gd32vw55x_timer.c **** */
 279:../Firmware/GD32VW55x_standard_peripheral/Source/gd32vw55x_timer.c **** void timer_repetition_value_config(uint32_t timer_periph, uint16_t repetition)
 280:../Firmware/GD32VW55x_standard_peripheral/Source/gd32vw55x_timer.c **** {
 689              		.loc 1 280 1
 690              		.cfi_startproc
 691 0000 0111     		addi	sp,sp,-32
 692              		.cfi_def_cfa_offset 32
 693 0002 22CE     		sw	s0,28(sp)
 694              		.cfi_offset 8, -4
 695 0004 0010     		addi	s0,sp,32
 696              		.cfi_def_cfa 8, 0
 697 0006 2326A4FE 		sw	a0,-20(s0)
 698 000a AE87     		mv	a5,a1
 699 000c 2315F4FE 		sh	a5,-22(s0)
 281:../Firmware/GD32VW55x_standard_peripheral/Source/gd32vw55x_timer.c ****     TIMER_CREP(timer_periph) = (uint32_t)repetition;
 700              		.loc 1 281 5
 701 0010 8327C4FE 		lw	a5,-20(s0)
 702 0014 93870703 		addi	a5,a5,48
 703 0018 3E87     		mv	a4,a5
 704              		.loc 1 281 32
 705 001a 8357A4FE 		lhu	a5,-22(s0)
 706              		.loc 1 281 30
 707 001e 1CC3     		sw	a5,0(a4)
 282:../Firmware/GD32VW55x_standard_peripheral/Source/gd32vw55x_timer.c **** }
 708              		.loc 1 282 1
 709 0020 0100     		nop
 710 0022 7244     		lw	s0,28(sp)
 711              		.cfi_restore 8
 712              		.cfi_def_cfa 2, 32
 713 0024 0561     		addi	sp,sp,32
 714              		.cfi_def_cfa_offset 0
 715 0026 8280     		jr	ra
 716              		.cfi_endproc
 717              	.LFE360:
 719              		.section	.text.timer_autoreload_value_config,"ax",@progbits
 720              		.align	1
 721              		.globl	timer_autoreload_value_config
 723              	timer_autoreload_value_config:
 724              	.LFB361:
 283:../Firmware/GD32VW55x_standard_peripheral/Source/gd32vw55x_timer.c **** 
 284:../Firmware/GD32VW55x_standard_peripheral/Source/gd32vw55x_timer.c **** /*!
 285:../Firmware/GD32VW55x_standard_peripheral/Source/gd32vw55x_timer.c ****     \brief      configure TIMER autoreload register value
 286:../Firmware/GD32VW55x_standard_peripheral/Source/gd32vw55x_timer.c ****     \param[in]  timer_periph: TIMERx(x=0,1,2,5,15,16)
 287:../Firmware/GD32VW55x_standard_peripheral/Source/gd32vw55x_timer.c ****     \param[in]  autoreload: the counter auto-reload value,0~65535(TIMERx(x=0,5,15,16)),0~4294967295
 288:../Firmware/GD32VW55x_standard_peripheral/Source/gd32vw55x_timer.c ****     \param[out] none
 289:../Firmware/GD32VW55x_standard_peripheral/Source/gd32vw55x_timer.c ****     \retval     none
 290:../Firmware/GD32VW55x_standard_peripheral/Source/gd32vw55x_timer.c **** */
 291:../Firmware/GD32VW55x_standard_peripheral/Source/gd32vw55x_timer.c **** void timer_autoreload_value_config(uint32_t timer_periph, uint32_t autoreload)
 292:../Firmware/GD32VW55x_standard_peripheral/Source/gd32vw55x_timer.c **** {
 725              		.loc 1 292 1
 726              		.cfi_startproc
 727 0000 0111     		addi	sp,sp,-32
 728              		.cfi_def_cfa_offset 32
 729 0002 22CE     		sw	s0,28(sp)
 730              		.cfi_offset 8, -4
 731 0004 0010     		addi	s0,sp,32
 732              		.cfi_def_cfa 8, 0
 733 0006 2326A4FE 		sw	a0,-20(s0)
 734 000a 2324B4FE 		sw	a1,-24(s0)
 293:../Firmware/GD32VW55x_standard_peripheral/Source/gd32vw55x_timer.c ****     TIMER_CAR(timer_periph) = (uint32_t)autoreload;
 735              		.loc 1 293 5
 736 000e 8327C4FE 		lw	a5,-20(s0)
 737 0012 9387C702 		addi	a5,a5,44
 738 0016 3E87     		mv	a4,a5
 739              		.loc 1 293 29
 740 0018 832784FE 		lw	a5,-24(s0)
 741 001c 1CC3     		sw	a5,0(a4)
 294:../Firmware/GD32VW55x_standard_peripheral/Source/gd32vw55x_timer.c **** }
 742              		.loc 1 294 1
 743 001e 0100     		nop
 744 0020 7244     		lw	s0,28(sp)
 745              		.cfi_restore 8
 746              		.cfi_def_cfa 2, 32
 747 0022 0561     		addi	sp,sp,32
 748              		.cfi_def_cfa_offset 0
 749 0024 8280     		jr	ra
 750              		.cfi_endproc
 751              	.LFE361:
 753              		.section	.text.timer_counter_value_config,"ax",@progbits
 754              		.align	1
 755              		.globl	timer_counter_value_config
 757              	timer_counter_value_config:
 758              	.LFB362:
 295:../Firmware/GD32VW55x_standard_peripheral/Source/gd32vw55x_timer.c **** 
 296:../Firmware/GD32VW55x_standard_peripheral/Source/gd32vw55x_timer.c **** /*!
 297:../Firmware/GD32VW55x_standard_peripheral/Source/gd32vw55x_timer.c ****     \brief      configure TIMER counter register value
 298:../Firmware/GD32VW55x_standard_peripheral/Source/gd32vw55x_timer.c ****     \param[in]  timer_periph: TIMERx(x=0,1,2,5,15,16)
 299:../Firmware/GD32VW55x_standard_peripheral/Source/gd32vw55x_timer.c ****     \param[in]  counter: the counter value,0~65535(TIMERx(x=0,5,15,16)),0~4294967295(TIMERx(x=1,2))
 300:../Firmware/GD32VW55x_standard_peripheral/Source/gd32vw55x_timer.c ****     \param[out] none
 301:../Firmware/GD32VW55x_standard_peripheral/Source/gd32vw55x_timer.c ****     \retval     none
 302:../Firmware/GD32VW55x_standard_peripheral/Source/gd32vw55x_timer.c **** */
 303:../Firmware/GD32VW55x_standard_peripheral/Source/gd32vw55x_timer.c **** void timer_counter_value_config(uint32_t timer_periph, uint32_t counter)
 304:../Firmware/GD32VW55x_standard_peripheral/Source/gd32vw55x_timer.c **** {
 759              		.loc 1 304 1
 760              		.cfi_startproc
 761 0000 0111     		addi	sp,sp,-32
 762              		.cfi_def_cfa_offset 32
 763 0002 22CE     		sw	s0,28(sp)
 764              		.cfi_offset 8, -4
 765 0004 0010     		addi	s0,sp,32
 766              		.cfi_def_cfa 8, 0
 767 0006 2326A4FE 		sw	a0,-20(s0)
 768 000a 2324B4FE 		sw	a1,-24(s0)
 305:../Firmware/GD32VW55x_standard_peripheral/Source/gd32vw55x_timer.c ****     TIMER_CNT(timer_periph) = (uint32_t)counter;
 769              		.loc 1 305 5
 770 000e 8327C4FE 		lw	a5,-20(s0)
 771 0012 93874702 		addi	a5,a5,36
 772 0016 3E87     		mv	a4,a5
 773              		.loc 1 305 29
 774 0018 832784FE 		lw	a5,-24(s0)
 775 001c 1CC3     		sw	a5,0(a4)
 306:../Firmware/GD32VW55x_standard_peripheral/Source/gd32vw55x_timer.c **** }
 776              		.loc 1 306 1
 777 001e 0100     		nop
 778 0020 7244     		lw	s0,28(sp)
 779              		.cfi_restore 8
 780              		.cfi_def_cfa 2, 32
 781 0022 0561     		addi	sp,sp,32
 782              		.cfi_def_cfa_offset 0
 783 0024 8280     		jr	ra
 784              		.cfi_endproc
 785              	.LFE362:
 787              		.section	.text.timer_counter_read,"ax",@progbits
 788              		.align	1
 789              		.globl	timer_counter_read
 791              	timer_counter_read:
 792              	.LFB363:
 307:../Firmware/GD32VW55x_standard_peripheral/Source/gd32vw55x_timer.c **** 
 308:../Firmware/GD32VW55x_standard_peripheral/Source/gd32vw55x_timer.c **** /*!
 309:../Firmware/GD32VW55x_standard_peripheral/Source/gd32vw55x_timer.c ****     \brief      read TIMER counter value
 310:../Firmware/GD32VW55x_standard_peripheral/Source/gd32vw55x_timer.c ****     \param[in]  timer_periph: TIMERx(x=0,1,2,5,15,16)
 311:../Firmware/GD32VW55x_standard_peripheral/Source/gd32vw55x_timer.c ****     \param[out] none
 312:../Firmware/GD32VW55x_standard_peripheral/Source/gd32vw55x_timer.c ****     \retval     counter value
 313:../Firmware/GD32VW55x_standard_peripheral/Source/gd32vw55x_timer.c **** */
 314:../Firmware/GD32VW55x_standard_peripheral/Source/gd32vw55x_timer.c **** uint32_t timer_counter_read(uint32_t timer_periph)
 315:../Firmware/GD32VW55x_standard_peripheral/Source/gd32vw55x_timer.c **** {
 793              		.loc 1 315 1
 794              		.cfi_startproc
 795 0000 7971     		addi	sp,sp,-48
 796              		.cfi_def_cfa_offset 48
 797 0002 22D6     		sw	s0,44(sp)
 798              		.cfi_offset 8, -4
 799 0004 0018     		addi	s0,sp,48
 800              		.cfi_def_cfa 8, 0
 801 0006 232EA4FC 		sw	a0,-36(s0)
 316:../Firmware/GD32VW55x_standard_peripheral/Source/gd32vw55x_timer.c ****     uint32_t count_value = 0U;
 802              		.loc 1 316 14
 803 000a 232604FE 		sw	zero,-20(s0)
 317:../Firmware/GD32VW55x_standard_peripheral/Source/gd32vw55x_timer.c ****     count_value = TIMER_CNT(timer_periph);
 804              		.loc 1 317 19
 805 000e 8327C4FD 		lw	a5,-36(s0)
 806 0012 93874702 		addi	a5,a5,36
 807              		.loc 1 317 17
 808 0016 9C43     		lw	a5,0(a5)
 809 0018 2326F4FE 		sw	a5,-20(s0)
 318:../Firmware/GD32VW55x_standard_peripheral/Source/gd32vw55x_timer.c ****     return (count_value);
 810              		.loc 1 318 12
 811 001c 8327C4FE 		lw	a5,-20(s0)
 319:../Firmware/GD32VW55x_standard_peripheral/Source/gd32vw55x_timer.c **** }
 812              		.loc 1 319 1
 813 0020 3E85     		mv	a0,a5
 814 0022 3254     		lw	s0,44(sp)
 815              		.cfi_restore 8
 816              		.cfi_def_cfa 2, 48
 817 0024 4561     		addi	sp,sp,48
 818              		.cfi_def_cfa_offset 0
 819 0026 8280     		jr	ra
 820              		.cfi_endproc
 821              	.LFE363:
 823              		.section	.text.timer_prescaler_read,"ax",@progbits
 824              		.align	1
 825              		.globl	timer_prescaler_read
 827              	timer_prescaler_read:
 828              	.LFB364:
 320:../Firmware/GD32VW55x_standard_peripheral/Source/gd32vw55x_timer.c **** 
 321:../Firmware/GD32VW55x_standard_peripheral/Source/gd32vw55x_timer.c **** /*!
 322:../Firmware/GD32VW55x_standard_peripheral/Source/gd32vw55x_timer.c ****     \brief      read TIMER prescaler value
 323:../Firmware/GD32VW55x_standard_peripheral/Source/gd32vw55x_timer.c ****     \param[in]  timer_periph: TIMERx(x=0,1,2,5,15,16)
 324:../Firmware/GD32VW55x_standard_peripheral/Source/gd32vw55x_timer.c ****     \param[out] none
 325:../Firmware/GD32VW55x_standard_peripheral/Source/gd32vw55x_timer.c ****     \retval     prescaler register value
 326:../Firmware/GD32VW55x_standard_peripheral/Source/gd32vw55x_timer.c **** */
 327:../Firmware/GD32VW55x_standard_peripheral/Source/gd32vw55x_timer.c **** uint16_t timer_prescaler_read(uint32_t timer_periph)
 328:../Firmware/GD32VW55x_standard_peripheral/Source/gd32vw55x_timer.c **** {
 829              		.loc 1 328 1
 830              		.cfi_startproc
 831 0000 7971     		addi	sp,sp,-48
 832              		.cfi_def_cfa_offset 48
 833 0002 22D6     		sw	s0,44(sp)
 834              		.cfi_offset 8, -4
 835 0004 0018     		addi	s0,sp,48
 836              		.cfi_def_cfa 8, 0
 837 0006 232EA4FC 		sw	a0,-36(s0)
 329:../Firmware/GD32VW55x_standard_peripheral/Source/gd32vw55x_timer.c ****     uint16_t prescaler_value = 0U;
 838              		.loc 1 329 14
 839 000a 231704FE 		sh	zero,-18(s0)
 330:../Firmware/GD32VW55x_standard_peripheral/Source/gd32vw55x_timer.c ****     prescaler_value = (uint16_t)(TIMER_PSC(timer_periph));
 840              		.loc 1 330 34
 841 000e 8327C4FD 		lw	a5,-36(s0)
 842 0012 93878702 		addi	a5,a5,40
 843 0016 9C43     		lw	a5,0(a5)
 844              		.loc 1 330 21
 845 0018 2317F4FE 		sh	a5,-18(s0)
 331:../Firmware/GD32VW55x_standard_peripheral/Source/gd32vw55x_timer.c ****     return (prescaler_value);
 846              		.loc 1 331 12
 847 001c 8357E4FE 		lhu	a5,-18(s0)
 332:../Firmware/GD32VW55x_standard_peripheral/Source/gd32vw55x_timer.c **** }
 848              		.loc 1 332 1
 849 0020 3E85     		mv	a0,a5
 850 0022 3254     		lw	s0,44(sp)
 851              		.cfi_restore 8
 852              		.cfi_def_cfa 2, 48
 853 0024 4561     		addi	sp,sp,48
 854              		.cfi_def_cfa_offset 0
 855 0026 8280     		jr	ra
 856              		.cfi_endproc
 857              	.LFE364:
 859              		.section	.text.timer_single_pulse_mode_config,"ax",@progbits
 860              		.align	1
 861              		.globl	timer_single_pulse_mode_config
 863              	timer_single_pulse_mode_config:
 864              	.LFB365:
 333:../Firmware/GD32VW55x_standard_peripheral/Source/gd32vw55x_timer.c **** 
 334:../Firmware/GD32VW55x_standard_peripheral/Source/gd32vw55x_timer.c **** /*!
 335:../Firmware/GD32VW55x_standard_peripheral/Source/gd32vw55x_timer.c ****     \brief      configure TIMER single pulse mode
 336:../Firmware/GD32VW55x_standard_peripheral/Source/gd32vw55x_timer.c ****     \param[in]  timer_periph: TIMERx(x=0,1,2,5,15,16)
 337:../Firmware/GD32VW55x_standard_peripheral/Source/gd32vw55x_timer.c ****     \param[in]  spmode:
 338:../Firmware/GD32VW55x_standard_peripheral/Source/gd32vw55x_timer.c ****                 only one parameter can be selected which is shown as below:
 339:../Firmware/GD32VW55x_standard_peripheral/Source/gd32vw55x_timer.c ****       \arg        TIMER_SP_MODE_SINGLE: single pulse mode
 340:../Firmware/GD32VW55x_standard_peripheral/Source/gd32vw55x_timer.c ****       \arg        TIMER_SP_MODE_REPETITIVE: repetitive pulse mode
 341:../Firmware/GD32VW55x_standard_peripheral/Source/gd32vw55x_timer.c ****     \param[out] none
 342:../Firmware/GD32VW55x_standard_peripheral/Source/gd32vw55x_timer.c ****     \retval     none
 343:../Firmware/GD32VW55x_standard_peripheral/Source/gd32vw55x_timer.c **** */
 344:../Firmware/GD32VW55x_standard_peripheral/Source/gd32vw55x_timer.c **** void timer_single_pulse_mode_config(uint32_t timer_periph, uint32_t spmode)
 345:../Firmware/GD32VW55x_standard_peripheral/Source/gd32vw55x_timer.c **** {
 865              		.loc 1 345 1
 866              		.cfi_startproc
 867 0000 0111     		addi	sp,sp,-32
 868              		.cfi_def_cfa_offset 32
 869 0002 22CE     		sw	s0,28(sp)
 870              		.cfi_offset 8, -4
 871 0004 0010     		addi	s0,sp,32
 872              		.cfi_def_cfa 8, 0
 873 0006 2326A4FE 		sw	a0,-20(s0)
 874 000a 2324B4FE 		sw	a1,-24(s0)
 346:../Firmware/GD32VW55x_standard_peripheral/Source/gd32vw55x_timer.c ****     if(TIMER_SP_MODE_SINGLE == spmode){
 875              		.loc 1 346 7
 876 000e 832784FE 		lw	a5,-24(s0)
 877 0012 91EB     		bne	a5,zero,.L38
 347:../Firmware/GD32VW55x_standard_peripheral/Source/gd32vw55x_timer.c ****         TIMER_CTL0(timer_periph) |= (uint32_t)TIMER_CTL0_SPM;
 878              		.loc 1 347 34
 879 0014 8327C4FE 		lw	a5,-20(s0)
 880 0018 9843     		lw	a4,0(a5)
 881 001a 8327C4FE 		lw	a5,-20(s0)
 882 001e 13678700 		ori	a4,a4,8
 883 0022 98C3     		sw	a4,0(a5)
 348:../Firmware/GD32VW55x_standard_peripheral/Source/gd32vw55x_timer.c ****     }else if(TIMER_SP_MODE_REPETITIVE == spmode){
 349:../Firmware/GD32VW55x_standard_peripheral/Source/gd32vw55x_timer.c ****         TIMER_CTL0(timer_periph) &= ~((uint32_t)TIMER_CTL0_SPM);
 350:../Firmware/GD32VW55x_standard_peripheral/Source/gd32vw55x_timer.c ****     }else{
 351:../Firmware/GD32VW55x_standard_peripheral/Source/gd32vw55x_timer.c ****         /* illegal parameters */
 352:../Firmware/GD32VW55x_standard_peripheral/Source/gd32vw55x_timer.c ****     }
 353:../Firmware/GD32VW55x_standard_peripheral/Source/gd32vw55x_timer.c **** }
 884              		.loc 1 353 1
 885 0024 29A8     		j	.L40
 886              	.L38:
 348:../Firmware/GD32VW55x_standard_peripheral/Source/gd32vw55x_timer.c ****     }else if(TIMER_SP_MODE_REPETITIVE == spmode){
 887              		.loc 1 348 13
 888 0026 032784FE 		lw	a4,-24(s0)
 889 002a 8547     		li	a5,1
 890 002c 6319F700 		bne	a4,a5,.L40
 349:../Firmware/GD32VW55x_standard_peripheral/Source/gd32vw55x_timer.c ****     }else{
 891              		.loc 1 349 34
 892 0030 8327C4FE 		lw	a5,-20(s0)
 893 0034 9843     		lw	a4,0(a5)
 894 0036 8327C4FE 		lw	a5,-20(s0)
 895 003a 5D9B     		andi	a4,a4,-9
 896 003c 98C3     		sw	a4,0(a5)
 897              	.L40:
 898              		.loc 1 353 1
 899 003e 0100     		nop
 900 0040 7244     		lw	s0,28(sp)
 901              		.cfi_restore 8
 902              		.cfi_def_cfa 2, 32
 903 0042 0561     		addi	sp,sp,32
 904              		.cfi_def_cfa_offset 0
 905 0044 8280     		jr	ra
 906              		.cfi_endproc
 907              	.LFE365:
 909              		.section	.text.timer_update_source_config,"ax",@progbits
 910              		.align	1
 911              		.globl	timer_update_source_config
 913              	timer_update_source_config:
 914              	.LFB366:
 354:../Firmware/GD32VW55x_standard_peripheral/Source/gd32vw55x_timer.c **** 
 355:../Firmware/GD32VW55x_standard_peripheral/Source/gd32vw55x_timer.c **** /*!
 356:../Firmware/GD32VW55x_standard_peripheral/Source/gd32vw55x_timer.c ****     \brief      configure TIMER update source
 357:../Firmware/GD32VW55x_standard_peripheral/Source/gd32vw55x_timer.c ****     \param[in]  timer_periph: TIMERx(x=0,1,2,5,15,16)
 358:../Firmware/GD32VW55x_standard_peripheral/Source/gd32vw55x_timer.c ****     \param[in]  update:
 359:../Firmware/GD32VW55x_standard_peripheral/Source/gd32vw55x_timer.c ****                 only one parameter can be selected which is shown as below:
 360:../Firmware/GD32VW55x_standard_peripheral/Source/gd32vw55x_timer.c ****       \arg        TIMER_UPDATE_SRC_GLOBAL: update generate by setting of UPG bit or the counter ove
 361:../Firmware/GD32VW55x_standard_peripheral/Source/gd32vw55x_timer.c ****       \arg        TIMER_UPDATE_SRC_REGULAR: update generate only by counter overflow/underflow
 362:../Firmware/GD32VW55x_standard_peripheral/Source/gd32vw55x_timer.c ****     \param[out] none
 363:../Firmware/GD32VW55x_standard_peripheral/Source/gd32vw55x_timer.c ****     \retval     none
 364:../Firmware/GD32VW55x_standard_peripheral/Source/gd32vw55x_timer.c **** */
 365:../Firmware/GD32VW55x_standard_peripheral/Source/gd32vw55x_timer.c **** void timer_update_source_config(uint32_t timer_periph, uint32_t update)
 366:../Firmware/GD32VW55x_standard_peripheral/Source/gd32vw55x_timer.c **** {
 915              		.loc 1 366 1
 916              		.cfi_startproc
 917 0000 0111     		addi	sp,sp,-32
 918              		.cfi_def_cfa_offset 32
 919 0002 22CE     		sw	s0,28(sp)
 920              		.cfi_offset 8, -4
 921 0004 0010     		addi	s0,sp,32
 922              		.cfi_def_cfa 8, 0
 923 0006 2326A4FE 		sw	a0,-20(s0)
 924 000a 2324B4FE 		sw	a1,-24(s0)
 367:../Firmware/GD32VW55x_standard_peripheral/Source/gd32vw55x_timer.c ****     if(TIMER_UPDATE_SRC_REGULAR == update){
 925              		.loc 1 367 7
 926 000e 832784FE 		lw	a5,-24(s0)
 927 0012 91EB     		bne	a5,zero,.L42
 368:../Firmware/GD32VW55x_standard_peripheral/Source/gd32vw55x_timer.c ****         TIMER_CTL0(timer_periph) |= (uint32_t)TIMER_CTL0_UPS;
 928              		.loc 1 368 34
 929 0014 8327C4FE 		lw	a5,-20(s0)
 930 0018 9843     		lw	a4,0(a5)
 931 001a 8327C4FE 		lw	a5,-20(s0)
 932 001e 13674700 		ori	a4,a4,4
 933 0022 98C3     		sw	a4,0(a5)
 369:../Firmware/GD32VW55x_standard_peripheral/Source/gd32vw55x_timer.c ****     }else if(TIMER_UPDATE_SRC_GLOBAL == update){
 370:../Firmware/GD32VW55x_standard_peripheral/Source/gd32vw55x_timer.c ****         TIMER_CTL0(timer_periph) &= ~(uint32_t)TIMER_CTL0_UPS;
 371:../Firmware/GD32VW55x_standard_peripheral/Source/gd32vw55x_timer.c ****     }else{
 372:../Firmware/GD32VW55x_standard_peripheral/Source/gd32vw55x_timer.c ****         /* illegal parameters */
 373:../Firmware/GD32VW55x_standard_peripheral/Source/gd32vw55x_timer.c ****     }
 374:../Firmware/GD32VW55x_standard_peripheral/Source/gd32vw55x_timer.c **** }
 934              		.loc 1 374 1
 935 0024 29A8     		j	.L44
 936              	.L42:
 369:../Firmware/GD32VW55x_standard_peripheral/Source/gd32vw55x_timer.c ****     }else if(TIMER_UPDATE_SRC_GLOBAL == update){
 937              		.loc 1 369 13
 938 0026 032784FE 		lw	a4,-24(s0)
 939 002a 8547     		li	a5,1
 940 002c 6319F700 		bne	a4,a5,.L44
 370:../Firmware/GD32VW55x_standard_peripheral/Source/gd32vw55x_timer.c ****     }else{
 941              		.loc 1 370 34
 942 0030 8327C4FE 		lw	a5,-20(s0)
 943 0034 9843     		lw	a4,0(a5)
 944 0036 8327C4FE 		lw	a5,-20(s0)
 945 003a 6D9B     		andi	a4,a4,-5
 946 003c 98C3     		sw	a4,0(a5)
 947              	.L44:
 948              		.loc 1 374 1
 949 003e 0100     		nop
 950 0040 7244     		lw	s0,28(sp)
 951              		.cfi_restore 8
 952              		.cfi_def_cfa 2, 32
 953 0042 0561     		addi	sp,sp,32
 954              		.cfi_def_cfa_offset 0
 955 0044 8280     		jr	ra
 956              		.cfi_endproc
 957              	.LFE366:
 959              		.section	.text.timer_dma_enable,"ax",@progbits
 960              		.align	1
 961              		.globl	timer_dma_enable
 963              	timer_dma_enable:
 964              	.LFB367:
 375:../Firmware/GD32VW55x_standard_peripheral/Source/gd32vw55x_timer.c **** 
 376:../Firmware/GD32VW55x_standard_peripheral/Source/gd32vw55x_timer.c **** /*!
 377:../Firmware/GD32VW55x_standard_peripheral/Source/gd32vw55x_timer.c ****     \brief      enable the TIMER DMA
 378:../Firmware/GD32VW55x_standard_peripheral/Source/gd32vw55x_timer.c ****     \param[in]  timer_periph: please refer to the following parameters
 379:../Firmware/GD32VW55x_standard_peripheral/Source/gd32vw55x_timer.c ****     \param[in]  dma: specify which DMA to enable
 380:../Firmware/GD32VW55x_standard_peripheral/Source/gd32vw55x_timer.c ****                 one or more parameters can be selected which are shown as below:
 381:../Firmware/GD32VW55x_standard_peripheral/Source/gd32vw55x_timer.c ****       \arg        TIMER_DMA_UPD:  update DMA enable,TIMERx(x=0,1,2,5,15,16)
 382:../Firmware/GD32VW55x_standard_peripheral/Source/gd32vw55x_timer.c ****       \arg        TIMER_DMA_CH0D: channel 0 DMA enable, TIMERx(x=0,1,2,15,16)
 383:../Firmware/GD32VW55x_standard_peripheral/Source/gd32vw55x_timer.c ****       \arg        TIMER_DMA_CH1D: channel 1 DMA enable, TIMERx(x=0,1,2)
 384:../Firmware/GD32VW55x_standard_peripheral/Source/gd32vw55x_timer.c ****       \arg        TIMER_DMA_CH2D: channel 2 DMA enable, TIMERx(x=0,1,2)
 385:../Firmware/GD32VW55x_standard_peripheral/Source/gd32vw55x_timer.c ****       \arg        TIMER_DMA_CH3D: channel 3 DMA enable, TIMERx(x=0,1,2)
 386:../Firmware/GD32VW55x_standard_peripheral/Source/gd32vw55x_timer.c ****       \arg        TIMER_DMA_CMTD: commutation DMA enable,TIMERx(x=0)
 387:../Firmware/GD32VW55x_standard_peripheral/Source/gd32vw55x_timer.c ****       \arg        TIMER_DMA_TRGD: trigger DMA enable,TIMERx(x=0,1,2)
 388:../Firmware/GD32VW55x_standard_peripheral/Source/gd32vw55x_timer.c ****     \param[out] none
 389:../Firmware/GD32VW55x_standard_peripheral/Source/gd32vw55x_timer.c ****     \retval     none
 390:../Firmware/GD32VW55x_standard_peripheral/Source/gd32vw55x_timer.c **** */
 391:../Firmware/GD32VW55x_standard_peripheral/Source/gd32vw55x_timer.c **** void timer_dma_enable(uint32_t timer_periph, uint16_t dma)
 392:../Firmware/GD32VW55x_standard_peripheral/Source/gd32vw55x_timer.c **** {
 965              		.loc 1 392 1
 966              		.cfi_startproc
 967 0000 0111     		addi	sp,sp,-32
 968              		.cfi_def_cfa_offset 32
 969 0002 22CE     		sw	s0,28(sp)
 970              		.cfi_offset 8, -4
 971 0004 0010     		addi	s0,sp,32
 972              		.cfi_def_cfa 8, 0
 973 0006 2326A4FE 		sw	a0,-20(s0)
 974 000a AE87     		mv	a5,a1
 975 000c 2315F4FE 		sh	a5,-22(s0)
 393:../Firmware/GD32VW55x_standard_peripheral/Source/gd32vw55x_timer.c ****     TIMER_DMAINTEN(timer_periph) |= (uint32_t) dma;
 976              		.loc 1 393 34
 977 0010 8327C4FE 		lw	a5,-20(s0)
 978 0014 B107     		addi	a5,a5,12
 979 0016 9843     		lw	a4,0(a5)
 980              		.loc 1 393 37
 981 0018 8357A4FE 		lhu	a5,-22(s0)
 982              		.loc 1 393 34
 983 001c 8326C4FE 		lw	a3,-20(s0)
 984 0020 B106     		addi	a3,a3,12
 985 0022 D98F     		or	a5,a4,a5
 986 0024 9CC2     		sw	a5,0(a3)
 394:../Firmware/GD32VW55x_standard_peripheral/Source/gd32vw55x_timer.c **** }
 987              		.loc 1 394 1
 988 0026 0100     		nop
 989 0028 7244     		lw	s0,28(sp)
 990              		.cfi_restore 8
 991              		.cfi_def_cfa 2, 32
 992 002a 0561     		addi	sp,sp,32
 993              		.cfi_def_cfa_offset 0
 994 002c 8280     		jr	ra
 995              		.cfi_endproc
 996              	.LFE367:
 998              		.section	.text.timer_dma_disable,"ax",@progbits
 999              		.align	1
 1000              		.globl	timer_dma_disable
 1002              	timer_dma_disable:
 1003              	.LFB368:
 395:../Firmware/GD32VW55x_standard_peripheral/Source/gd32vw55x_timer.c **** 
 396:../Firmware/GD32VW55x_standard_peripheral/Source/gd32vw55x_timer.c **** /*!
 397:../Firmware/GD32VW55x_standard_peripheral/Source/gd32vw55x_timer.c ****     \brief      disable the TIMER DMA
 398:../Firmware/GD32VW55x_standard_peripheral/Source/gd32vw55x_timer.c ****     \param[in]  timer_periph: please refer to the following parameters
 399:../Firmware/GD32VW55x_standard_peripheral/Source/gd32vw55x_timer.c ****     \param[in]  dma: specify which DMA to disable
 400:../Firmware/GD32VW55x_standard_peripheral/Source/gd32vw55x_timer.c ****                 one or more parameters can be selected which are shown as below:
 401:../Firmware/GD32VW55x_standard_peripheral/Source/gd32vw55x_timer.c ****       \arg        TIMER_DMA_UPD:  update DMA disable,TIMERx(x=0,1,2,5,15,16)
 402:../Firmware/GD32VW55x_standard_peripheral/Source/gd32vw55x_timer.c ****       \arg        TIMER_DMA_CH0D: channel 0 DMA disable,TIMERx(x=0,1,2,15,16)
 403:../Firmware/GD32VW55x_standard_peripheral/Source/gd32vw55x_timer.c ****       \arg        TIMER_DMA_CH1D: channel 1 DMA disable,TIMERx(x=0,1,2)
 404:../Firmware/GD32VW55x_standard_peripheral/Source/gd32vw55x_timer.c ****       \arg        TIMER_DMA_CH2D: channel 2 DMA disable,TIMERx(x=0,1,2)
 405:../Firmware/GD32VW55x_standard_peripheral/Source/gd32vw55x_timer.c ****       \arg        TIMER_DMA_CH3D: channel 3 DMA disable,TIMERx(x=0,1,2)
 406:../Firmware/GD32VW55x_standard_peripheral/Source/gd32vw55x_timer.c ****       \arg        TIMER_DMA_CMTD: commutation DMA disable,TIMERx(x=0)
 407:../Firmware/GD32VW55x_standard_peripheral/Source/gd32vw55x_timer.c ****       \arg        TIMER_DMA_TRGD: trigger DMA disable,TIMERx(x=0,1,2)
 408:../Firmware/GD32VW55x_standard_peripheral/Source/gd32vw55x_timer.c ****     \param[out] none
 409:../Firmware/GD32VW55x_standard_peripheral/Source/gd32vw55x_timer.c ****     \retval     none
 410:../Firmware/GD32VW55x_standard_peripheral/Source/gd32vw55x_timer.c **** */
 411:../Firmware/GD32VW55x_standard_peripheral/Source/gd32vw55x_timer.c **** void timer_dma_disable(uint32_t timer_periph, uint16_t dma)
 412:../Firmware/GD32VW55x_standard_peripheral/Source/gd32vw55x_timer.c **** {
 1004              		.loc 1 412 1
 1005              		.cfi_startproc
 1006 0000 0111     		addi	sp,sp,-32
 1007              		.cfi_def_cfa_offset 32
 1008 0002 22CE     		sw	s0,28(sp)
 1009              		.cfi_offset 8, -4
 1010 0004 0010     		addi	s0,sp,32
 1011              		.cfi_def_cfa 8, 0
 1012 0006 2326A4FE 		sw	a0,-20(s0)
 1013 000a AE87     		mv	a5,a1
 1014 000c 2315F4FE 		sh	a5,-22(s0)
 413:../Firmware/GD32VW55x_standard_peripheral/Source/gd32vw55x_timer.c ****     TIMER_DMAINTEN(timer_periph) &= (~(uint32_t)(dma));
 1015              		.loc 1 413 34
 1016 0010 8327C4FE 		lw	a5,-20(s0)
 1017 0014 B107     		addi	a5,a5,12
 1018 0016 9843     		lw	a4,0(a5)
 1019              		.loc 1 413 39
 1020 0018 8357A4FE 		lhu	a5,-22(s0)
 1021              		.loc 1 413 38
 1022 001c 93C7F7FF 		not	a5,a5
 1023              		.loc 1 413 34
 1024 0020 8326C4FE 		lw	a3,-20(s0)
 1025 0024 B106     		addi	a3,a3,12
 1026 0026 F98F     		and	a5,a4,a5
 1027 0028 9CC2     		sw	a5,0(a3)
 414:../Firmware/GD32VW55x_standard_peripheral/Source/gd32vw55x_timer.c **** }
 1028              		.loc 1 414 1
 1029 002a 0100     		nop
 1030 002c 7244     		lw	s0,28(sp)
 1031              		.cfi_restore 8
 1032              		.cfi_def_cfa 2, 32
 1033 002e 0561     		addi	sp,sp,32
 1034              		.cfi_def_cfa_offset 0
 1035 0030 8280     		jr	ra
 1036              		.cfi_endproc
 1037              	.LFE368:
 1039              		.section	.text.timer_channel_dma_request_source_select,"ax",@progbits
 1040              		.align	1
 1041              		.globl	timer_channel_dma_request_source_select
 1043              	timer_channel_dma_request_source_select:
 1044              	.LFB369:
 415:../Firmware/GD32VW55x_standard_peripheral/Source/gd32vw55x_timer.c **** 
 416:../Firmware/GD32VW55x_standard_peripheral/Source/gd32vw55x_timer.c **** /*!
 417:../Firmware/GD32VW55x_standard_peripheral/Source/gd32vw55x_timer.c ****     \brief      channel DMA request source selection
 418:../Firmware/GD32VW55x_standard_peripheral/Source/gd32vw55x_timer.c ****     \param[in]  timer_periph: TIMERx(x=0,1,2,15,16)
 419:../Firmware/GD32VW55x_standard_peripheral/Source/gd32vw55x_timer.c ****     \param[in]  dma_request: channel DMA request source selection
 420:../Firmware/GD32VW55x_standard_peripheral/Source/gd32vw55x_timer.c ****                 only one parameter can be selected which is shown as below:
 421:../Firmware/GD32VW55x_standard_peripheral/Source/gd32vw55x_timer.c ****        \arg        TIMER_DMAREQUEST_CHANNELEVENT: DMA request of channel y is sent when channel y e
 422:../Firmware/GD32VW55x_standard_peripheral/Source/gd32vw55x_timer.c ****        \arg        TIMER_DMAREQUEST_UPDATEEVENT: DMA request of channel y is sent when update event
 423:../Firmware/GD32VW55x_standard_peripheral/Source/gd32vw55x_timer.c ****     \param[out] none
 424:../Firmware/GD32VW55x_standard_peripheral/Source/gd32vw55x_timer.c ****     \retval     none
 425:../Firmware/GD32VW55x_standard_peripheral/Source/gd32vw55x_timer.c **** */
 426:../Firmware/GD32VW55x_standard_peripheral/Source/gd32vw55x_timer.c **** void timer_channel_dma_request_source_select(uint32_t timer_periph, uint32_t dma_request)
 427:../Firmware/GD32VW55x_standard_peripheral/Source/gd32vw55x_timer.c **** {
 1045              		.loc 1 427 1
 1046              		.cfi_startproc
 1047 0000 0111     		addi	sp,sp,-32
 1048              		.cfi_def_cfa_offset 32
 1049 0002 22CE     		sw	s0,28(sp)
 1050              		.cfi_offset 8, -4
 1051 0004 0010     		addi	s0,sp,32
 1052              		.cfi_def_cfa 8, 0
 1053 0006 2326A4FE 		sw	a0,-20(s0)
 1054 000a 2324B4FE 		sw	a1,-24(s0)
 428:../Firmware/GD32VW55x_standard_peripheral/Source/gd32vw55x_timer.c ****     if(TIMER_DMAREQUEST_UPDATEEVENT == dma_request){
 1055              		.loc 1 428 7
 1056 000e 832784FE 		lw	a5,-24(s0)
 1057 0012 81EF     		bne	a5,zero,.L48
 429:../Firmware/GD32VW55x_standard_peripheral/Source/gd32vw55x_timer.c ****         TIMER_CTL1(timer_periph) |= (uint32_t)TIMER_CTL1_DMAS;
 1058              		.loc 1 429 34
 1059 0014 8327C4FE 		lw	a5,-20(s0)
 1060 0018 9107     		addi	a5,a5,4
 1061 001a 9C43     		lw	a5,0(a5)
 1062 001c 0327C4FE 		lw	a4,-20(s0)
 1063 0020 1107     		addi	a4,a4,4
 1064 0022 93E78700 		ori	a5,a5,8
 1065 0026 1CC3     		sw	a5,0(a4)
 430:../Firmware/GD32VW55x_standard_peripheral/Source/gd32vw55x_timer.c ****     }else if(TIMER_DMAREQUEST_CHANNELEVENT == dma_request){
 431:../Firmware/GD32VW55x_standard_peripheral/Source/gd32vw55x_timer.c ****         TIMER_CTL1(timer_periph) &= ~(uint32_t)TIMER_CTL1_DMAS;
 432:../Firmware/GD32VW55x_standard_peripheral/Source/gd32vw55x_timer.c ****     }else{
 433:../Firmware/GD32VW55x_standard_peripheral/Source/gd32vw55x_timer.c ****         /* illegal parameters */
 434:../Firmware/GD32VW55x_standard_peripheral/Source/gd32vw55x_timer.c ****     }
 435:../Firmware/GD32VW55x_standard_peripheral/Source/gd32vw55x_timer.c **** }
 1066              		.loc 1 435 1
 1067 0028 39A8     		j	.L50
 1068              	.L48:
 430:../Firmware/GD32VW55x_standard_peripheral/Source/gd32vw55x_timer.c ****     }else if(TIMER_DMAREQUEST_CHANNELEVENT == dma_request){
 1069              		.loc 1 430 13
 1070 002a 032784FE 		lw	a4,-24(s0)
 1071 002e 8547     		li	a5,1
 1072 0030 631BF700 		bne	a4,a5,.L50
 431:../Firmware/GD32VW55x_standard_peripheral/Source/gd32vw55x_timer.c ****     }else{
 1073              		.loc 1 431 34
 1074 0034 8327C4FE 		lw	a5,-20(s0)
 1075 0038 9107     		addi	a5,a5,4
 1076 003a 9C43     		lw	a5,0(a5)
 1077 003c 0327C4FE 		lw	a4,-20(s0)
 1078 0040 1107     		addi	a4,a4,4
 1079 0042 DD9B     		andi	a5,a5,-9
 1080 0044 1CC3     		sw	a5,0(a4)
 1081              	.L50:
 1082              		.loc 1 435 1
 1083 0046 0100     		nop
 1084 0048 7244     		lw	s0,28(sp)
 1085              		.cfi_restore 8
 1086              		.cfi_def_cfa 2, 32
 1087 004a 0561     		addi	sp,sp,32
 1088              		.cfi_def_cfa_offset 0
 1089 004c 8280     		jr	ra
 1090              		.cfi_endproc
 1091              	.LFE369:
 1093              		.section	.text.timer_dma_transfer_config,"ax",@progbits
 1094              		.align	1
 1095              		.globl	timer_dma_transfer_config
 1097              	timer_dma_transfer_config:
 1098              	.LFB370:
 436:../Firmware/GD32VW55x_standard_peripheral/Source/gd32vw55x_timer.c **** 
 437:../Firmware/GD32VW55x_standard_peripheral/Source/gd32vw55x_timer.c **** /*!
 438:../Firmware/GD32VW55x_standard_peripheral/Source/gd32vw55x_timer.c ****     \brief      configure the TIMER DMA transfer
 439:../Firmware/GD32VW55x_standard_peripheral/Source/gd32vw55x_timer.c ****     \param[in]  timer_periph: please refer to the following parameters
 440:../Firmware/GD32VW55x_standard_peripheral/Source/gd32vw55x_timer.c ****     \param[in]  dma_baseaddr:
 441:../Firmware/GD32VW55x_standard_peripheral/Source/gd32vw55x_timer.c ****                 only one parameter can be selected which is shown as below:
 442:../Firmware/GD32VW55x_standard_peripheral/Source/gd32vw55x_timer.c ****        \arg        TIMER_DMACFG_DMATA_CTL0: DMA transfer address is TIMER_CTL0,TIMERx(x=0,1,2,15,16
 443:../Firmware/GD32VW55x_standard_peripheral/Source/gd32vw55x_timer.c ****        \arg        TIMER_DMACFG_DMATA_CTL1: DMA transfer address is TIMER_CTL1,TIMERx(x=0,1,2,15,16
 444:../Firmware/GD32VW55x_standard_peripheral/Source/gd32vw55x_timer.c ****        \arg        TIMER_DMACFG_DMATA_SMCFG: DMA transfer address is TIMER_SMCFG,TIMERx(x=0,1,2)
 445:../Firmware/GD32VW55x_standard_peripheral/Source/gd32vw55x_timer.c ****        \arg        TIMER_DMACFG_DMATA_DMAINTEN: DMA transfer address is TIMER_DMAINTEN,TIMERx(x=0,1
 446:../Firmware/GD32VW55x_standard_peripheral/Source/gd32vw55x_timer.c ****        \arg        TIMER_DMACFG_DMATA_INTF: DMA transfer address is TIMER_INTF,TIMERx(x=0,1,2,15,16
 447:../Firmware/GD32VW55x_standard_peripheral/Source/gd32vw55x_timer.c ****        \arg        TIMER_DMACFG_DMATA_SWEVG: DMA transfer address is TIMER_SWEVG,TIMERx(x=0,1,2,15,
 448:../Firmware/GD32VW55x_standard_peripheral/Source/gd32vw55x_timer.c ****        \arg        TIMER_DMACFG_DMATA_CHCTL0: DMA transfer address is TIMER_CHCTL0,TIMERx(x=0,1,2,1
 449:../Firmware/GD32VW55x_standard_peripheral/Source/gd32vw55x_timer.c ****        \arg        TIMER_DMACFG_DMATA_CHCTL1: DMA transfer address is TIMER_CHCTL1,TIMERx(x=0,1,2)
 450:../Firmware/GD32VW55x_standard_peripheral/Source/gd32vw55x_timer.c ****        \arg        TIMER_DMACFG_DMATA_CHCTL2: DMA transfer address is TIMER_CHCTL2,TIMERx(x=0,1,2,1
 451:../Firmware/GD32VW55x_standard_peripheral/Source/gd32vw55x_timer.c ****        \arg        TIMER_DMACFG_DMATA_CNT: DMA transfer address is TIMER_CNT,TIMERx(x=0,1,2,15,16)
 452:../Firmware/GD32VW55x_standard_peripheral/Source/gd32vw55x_timer.c ****        \arg        TIMER_DMACFG_DMATA_PSC: DMA transfer address is TIMER_PSC,TIMERx(x=0,1,2,15,16)
 453:../Firmware/GD32VW55x_standard_peripheral/Source/gd32vw55x_timer.c ****        \arg        TIMER_DMACFG_DMATA_CAR: DMA transfer address is TIMER_CAR,TIMERx(x=0,1,2,15,16)
 454:../Firmware/GD32VW55x_standard_peripheral/Source/gd32vw55x_timer.c ****        \arg        TIMER_DMACFG_DMATA_CREP: DMA transfer address is TIMER_CREP,TIMERx(x=0,15,16)
 455:../Firmware/GD32VW55x_standard_peripheral/Source/gd32vw55x_timer.c ****        \arg        TIMER_DMACFG_DMATA_CH0CV: DMA transfer address is TIMER_CH0CV,TIMERx(x=0,1,2,15,
 456:../Firmware/GD32VW55x_standard_peripheral/Source/gd32vw55x_timer.c ****        \arg        TIMER_DMACFG_DMATA_CH1CV: DMA transfer address is TIMER_CH1CV,TIMERx(x=0,1,2)
 457:../Firmware/GD32VW55x_standard_peripheral/Source/gd32vw55x_timer.c ****        \arg        TIMER_DMACFG_DMATA_CH2CV: DMA transfer address is TIMER_CH2CV,TIMERx(x=0,1,2)
 458:../Firmware/GD32VW55x_standard_peripheral/Source/gd32vw55x_timer.c ****        \arg        TIMER_DMACFG_DMATA_CH3CV: DMA transfer address is TIMER_CH3CV,TIMERx(x=0,1,2)
 459:../Firmware/GD32VW55x_standard_peripheral/Source/gd32vw55x_timer.c ****        \arg        TIMER_DMACFG_DMATA_CCHP: DMA transfer address is TIMER_CCHP,TIMERx(x=0,15,16)
 460:../Firmware/GD32VW55x_standard_peripheral/Source/gd32vw55x_timer.c ****        \arg        TIMER_DMACFG_DMATA_DMACFG: DMA transfer address is TIMER_DMACFG,TIMERx(x=0,1,2,1
 461:../Firmware/GD32VW55x_standard_peripheral/Source/gd32vw55x_timer.c ****        \arg        TIMER_DMACFG_DMATA_DMATB: DMA transfer address is TIMER_DMATB,TIMERx(x=0,1,2,15,
 462:../Firmware/GD32VW55x_standard_peripheral/Source/gd32vw55x_timer.c ****     \param[in]  dma_lenth:
 463:../Firmware/GD32VW55x_standard_peripheral/Source/gd32vw55x_timer.c ****                 only one parameter can be selected which is shown as below:
 464:../Firmware/GD32VW55x_standard_peripheral/Source/gd32vw55x_timer.c ****        \arg        TIMER_DMACFG_DMATC_xTRANSFER(x=1..18): DMA transfer x time
 465:../Firmware/GD32VW55x_standard_peripheral/Source/gd32vw55x_timer.c ****     \param[out] none
 466:../Firmware/GD32VW55x_standard_peripheral/Source/gd32vw55x_timer.c ****     \retval     none
 467:../Firmware/GD32VW55x_standard_peripheral/Source/gd32vw55x_timer.c **** */
 468:../Firmware/GD32VW55x_standard_peripheral/Source/gd32vw55x_timer.c **** void timer_dma_transfer_config(uint32_t timer_periph, uint32_t dma_baseaddr, uint32_t dma_lenth)
 469:../Firmware/GD32VW55x_standard_peripheral/Source/gd32vw55x_timer.c **** {
 1099              		.loc 1 469 1
 1100              		.cfi_startproc
 1101 0000 0111     		addi	sp,sp,-32
 1102              		.cfi_def_cfa_offset 32
 1103 0002 22CE     		sw	s0,28(sp)
 1104              		.cfi_offset 8, -4
 1105 0004 0010     		addi	s0,sp,32
 1106              		.cfi_def_cfa 8, 0
 1107 0006 2326A4FE 		sw	a0,-20(s0)
 1108 000a 2324B4FE 		sw	a1,-24(s0)
 1109 000e 2322C4FE 		sw	a2,-28(s0)
 470:../Firmware/GD32VW55x_standard_peripheral/Source/gd32vw55x_timer.c ****     TIMER_DMACFG(timer_periph) &= (~(uint32_t)(TIMER_DMACFG_DMATA | TIMER_DMACFG_DMATC));
 1110              		.loc 1 470 32
 1111 0012 8327C4FE 		lw	a5,-20(s0)
 1112 0016 93878704 		addi	a5,a5,72
 1113 001a 9843     		lw	a4,0(a5)
 1114 001c 8327C4FE 		lw	a5,-20(s0)
 1115 0020 93878704 		addi	a5,a5,72
 1116 0024 BE86     		mv	a3,a5
 1117 0026 F977     		li	a5,-8192
 1118 0028 9387070E 		addi	a5,a5,224
 1119 002c F98F     		and	a5,a4,a5
 1120 002e 9CC2     		sw	a5,0(a3)
 471:../Firmware/GD32VW55x_standard_peripheral/Source/gd32vw55x_timer.c ****     TIMER_DMACFG(timer_periph) |= (uint32_t)(dma_baseaddr | dma_lenth);
 1121              		.loc 1 471 32
 1122 0030 8327C4FE 		lw	a5,-20(s0)
 1123 0034 93878704 		addi	a5,a5,72
 1124 0038 9843     		lw	a4,0(a5)
 1125              		.loc 1 471 59
 1126 003a 832684FE 		lw	a3,-24(s0)
 1127 003e 832744FE 		lw	a5,-28(s0)
 1128 0042 D58F     		or	a5,a3,a5
 1129              		.loc 1 471 32
 1130 0044 8326C4FE 		lw	a3,-20(s0)
 1131 0048 93868604 		addi	a3,a3,72
 1132 004c D98F     		or	a5,a4,a5
 1133 004e 9CC2     		sw	a5,0(a3)
 472:../Firmware/GD32VW55x_standard_peripheral/Source/gd32vw55x_timer.c **** }
 1134              		.loc 1 472 1
 1135 0050 0100     		nop
 1136 0052 7244     		lw	s0,28(sp)
 1137              		.cfi_restore 8
 1138              		.cfi_def_cfa 2, 32
 1139 0054 0561     		addi	sp,sp,32
 1140              		.cfi_def_cfa_offset 0
 1141 0056 8280     		jr	ra
 1142              		.cfi_endproc
 1143              	.LFE370:
 1145              		.section	.text.timer_event_software_generate,"ax",@progbits
 1146              		.align	1
 1147              		.globl	timer_event_software_generate
 1149              	timer_event_software_generate:
 1150              	.LFB371:
 473:../Firmware/GD32VW55x_standard_peripheral/Source/gd32vw55x_timer.c **** 
 474:../Firmware/GD32VW55x_standard_peripheral/Source/gd32vw55x_timer.c **** /*!
 475:../Firmware/GD32VW55x_standard_peripheral/Source/gd32vw55x_timer.c ****     \brief      software generate events
 476:../Firmware/GD32VW55x_standard_peripheral/Source/gd32vw55x_timer.c ****     \param[in]  timer_periph: please refer to the following parameters
 477:../Firmware/GD32VW55x_standard_peripheral/Source/gd32vw55x_timer.c ****     \param[in]  event: the timer software event generation sources
 478:../Firmware/GD32VW55x_standard_peripheral/Source/gd32vw55x_timer.c ****                 one or more parameters can be selected which are shown as below:
 479:../Firmware/GD32VW55x_standard_peripheral/Source/gd32vw55x_timer.c ****       \arg        TIMER_EVENT_SRC_UPG: update event,TIMERx(x=0,1,2,5,15,16)
 480:../Firmware/GD32VW55x_standard_peripheral/Source/gd32vw55x_timer.c ****       \arg        TIMER_EVENT_SRC_CH0G: channel 0 capture or compare event generation,TIMERx(x=0,1,
 481:../Firmware/GD32VW55x_standard_peripheral/Source/gd32vw55x_timer.c ****       \arg        TIMER_EVENT_SRC_CH1G: channel 1 capture or compare event generation,TIMERx(x=0,1,
 482:../Firmware/GD32VW55x_standard_peripheral/Source/gd32vw55x_timer.c ****       \arg        TIMER_EVENT_SRC_CH2G: channel 2 capture or compare event generation,TIMERx(x=0,1,
 483:../Firmware/GD32VW55x_standard_peripheral/Source/gd32vw55x_timer.c ****       \arg        TIMER_EVENT_SRC_CH3G: channel 3 capture or compare event generation,TIMERx(x=0,1,
 484:../Firmware/GD32VW55x_standard_peripheral/Source/gd32vw55x_timer.c ****       \arg        TIMER_EVENT_SRC_CMTG: channel commutation event generation,TIMERx(x=0,15,16)
 485:../Firmware/GD32VW55x_standard_peripheral/Source/gd32vw55x_timer.c ****       \arg        TIMER_EVENT_SRC_TRGG: trigger event generation,TIMERx(x=0,1,2)
 486:../Firmware/GD32VW55x_standard_peripheral/Source/gd32vw55x_timer.c ****       \arg        TIMER_EVENT_SRC_BRKG:  break event generation,TIMERx(x=0,15,16)
 487:../Firmware/GD32VW55x_standard_peripheral/Source/gd32vw55x_timer.c ****     \param[out] none
 488:../Firmware/GD32VW55x_standard_peripheral/Source/gd32vw55x_timer.c ****     \retval     none
 489:../Firmware/GD32VW55x_standard_peripheral/Source/gd32vw55x_timer.c **** */
 490:../Firmware/GD32VW55x_standard_peripheral/Source/gd32vw55x_timer.c **** void timer_event_software_generate(uint32_t timer_periph, uint16_t event)
 491:../Firmware/GD32VW55x_standard_peripheral/Source/gd32vw55x_timer.c **** {
 1151              		.loc 1 491 1
 1152              		.cfi_startproc
 1153 0000 0111     		addi	sp,sp,-32
 1154              		.cfi_def_cfa_offset 32
 1155 0002 22CE     		sw	s0,28(sp)
 1156              		.cfi_offset 8, -4
 1157 0004 0010     		addi	s0,sp,32
 1158              		.cfi_def_cfa 8, 0
 1159 0006 2326A4FE 		sw	a0,-20(s0)
 1160 000a AE87     		mv	a5,a1
 1161 000c 2315F4FE 		sh	a5,-22(s0)
 492:../Firmware/GD32VW55x_standard_peripheral/Source/gd32vw55x_timer.c ****     TIMER_SWEVG(timer_periph) |= (uint32_t)event;
 1162              		.loc 1 492 31
 1163 0010 8327C4FE 		lw	a5,-20(s0)
 1164 0014 D107     		addi	a5,a5,20
 1165 0016 9843     		lw	a4,0(a5)
 1166              		.loc 1 492 34
 1167 0018 8357A4FE 		lhu	a5,-22(s0)
 1168              		.loc 1 492 31
 1169 001c 8326C4FE 		lw	a3,-20(s0)
 1170 0020 D106     		addi	a3,a3,20
 1171 0022 D98F     		or	a5,a4,a5
 1172 0024 9CC2     		sw	a5,0(a3)
 493:../Firmware/GD32VW55x_standard_peripheral/Source/gd32vw55x_timer.c **** }
 1173              		.loc 1 493 1
 1174 0026 0100     		nop
 1175 0028 7244     		lw	s0,28(sp)
 1176              		.cfi_restore 8
 1177              		.cfi_def_cfa 2, 32
 1178 002a 0561     		addi	sp,sp,32
 1179              		.cfi_def_cfa_offset 0
 1180 002c 8280     		jr	ra
 1181              		.cfi_endproc
 1182              	.LFE371:
 1184              		.section	.text.timer_break_struct_para_init,"ax",@progbits
 1185              		.align	1
 1186              		.globl	timer_break_struct_para_init
 1188              	timer_break_struct_para_init:
 1189              	.LFB372:
 494:../Firmware/GD32VW55x_standard_peripheral/Source/gd32vw55x_timer.c **** 
 495:../Firmware/GD32VW55x_standard_peripheral/Source/gd32vw55x_timer.c **** /*!
 496:../Firmware/GD32VW55x_standard_peripheral/Source/gd32vw55x_timer.c ****     \brief      initialize TIMER break parameter struct with a default value
 497:../Firmware/GD32VW55x_standard_peripheral/Source/gd32vw55x_timer.c ****     \param[in]  breakpara: TIMER break parameter struct
 498:../Firmware/GD32VW55x_standard_peripheral/Source/gd32vw55x_timer.c ****     \param[out] none
 499:../Firmware/GD32VW55x_standard_peripheral/Source/gd32vw55x_timer.c ****     \retval     none
 500:../Firmware/GD32VW55x_standard_peripheral/Source/gd32vw55x_timer.c **** */
 501:../Firmware/GD32VW55x_standard_peripheral/Source/gd32vw55x_timer.c **** void timer_break_struct_para_init(timer_break_parameter_struct* breakpara)
 502:../Firmware/GD32VW55x_standard_peripheral/Source/gd32vw55x_timer.c **** {
 1190              		.loc 1 502 1
 1191              		.cfi_startproc
 1192 0000 0111     		addi	sp,sp,-32
 1193              		.cfi_def_cfa_offset 32
 1194 0002 22CE     		sw	s0,28(sp)
 1195              		.cfi_offset 8, -4
 1196 0004 0010     		addi	s0,sp,32
 1197              		.cfi_def_cfa 8, 0
 1198 0006 2326A4FE 		sw	a0,-20(s0)
 503:../Firmware/GD32VW55x_standard_peripheral/Source/gd32vw55x_timer.c ****     /* initialize the break parameter struct member with the default value */
 504:../Firmware/GD32VW55x_standard_peripheral/Source/gd32vw55x_timer.c ****     breakpara->runoffstate     = TIMER_ROS_STATE_DISABLE;
 1199              		.loc 1 504 32
 1200 000a 8327C4FE 		lw	a5,-20(s0)
 1201 000e 23900700 		sh	zero,0(a5)
 505:../Firmware/GD32VW55x_standard_peripheral/Source/gd32vw55x_timer.c ****     breakpara->ideloffstate    = TIMER_IOS_STATE_DISABLE;
 1202              		.loc 1 505 32
 1203 0012 8327C4FE 		lw	a5,-20(s0)
 1204 0016 23A20700 		sw	zero,4(a5)
 506:../Firmware/GD32VW55x_standard_peripheral/Source/gd32vw55x_timer.c ****     breakpara->deadtime        = 0U;
 1205              		.loc 1 506 32
 1206 001a 8327C4FE 		lw	a5,-20(s0)
 1207 001e 23940700 		sh	zero,8(a5)
 507:../Firmware/GD32VW55x_standard_peripheral/Source/gd32vw55x_timer.c ****     breakpara->breakpolarity   = TIMER_BREAK_POLARITY_LOW;
 1208              		.loc 1 507 32
 1209 0022 8327C4FE 		lw	a5,-20(s0)
 1210 0026 23950700 		sh	zero,10(a5)
 508:../Firmware/GD32VW55x_standard_peripheral/Source/gd32vw55x_timer.c ****     breakpara->outputautostate = TIMER_OUTAUTO_DISABLE;
 1211              		.loc 1 508 32
 1212 002a 8327C4FE 		lw	a5,-20(s0)
 1213 002e 23960700 		sh	zero,12(a5)
 509:../Firmware/GD32VW55x_standard_peripheral/Source/gd32vw55x_timer.c ****     breakpara->protectmode     = TIMER_CCHP_PROT_OFF;
 1214              		.loc 1 509 32
 1215 0032 8327C4FE 		lw	a5,-20(s0)
 1216 0036 23970700 		sh	zero,14(a5)
 510:../Firmware/GD32VW55x_standard_peripheral/Source/gd32vw55x_timer.c ****     breakpara->breakstate      = TIMER_BREAK_DISABLE;
 1217              		.loc 1 510 32
 1218 003a 8327C4FE 		lw	a5,-20(s0)
 1219 003e 23980700 		sh	zero,16(a5)
 511:../Firmware/GD32VW55x_standard_peripheral/Source/gd32vw55x_timer.c **** }
 1220              		.loc 1 511 1
 1221 0042 0100     		nop
 1222 0044 7244     		lw	s0,28(sp)
 1223              		.cfi_restore 8
 1224              		.cfi_def_cfa 2, 32
 1225 0046 0561     		addi	sp,sp,32
 1226              		.cfi_def_cfa_offset 0
 1227 0048 8280     		jr	ra
 1228              		.cfi_endproc
 1229              	.LFE372:
 1231              		.section	.text.timer_break_config,"ax",@progbits
 1232              		.align	1
 1233              		.globl	timer_break_config
 1235              	timer_break_config:
 1236              	.LFB373:
 512:../Firmware/GD32VW55x_standard_peripheral/Source/gd32vw55x_timer.c **** 
 513:../Firmware/GD32VW55x_standard_peripheral/Source/gd32vw55x_timer.c **** /*!
 514:../Firmware/GD32VW55x_standard_peripheral/Source/gd32vw55x_timer.c ****     \brief      configure TIMER break function
 515:../Firmware/GD32VW55x_standard_peripheral/Source/gd32vw55x_timer.c ****     \param[in]  timer_periph: TIMERx(x=0,15,16)
 516:../Firmware/GD32VW55x_standard_peripheral/Source/gd32vw55x_timer.c ****     \param[in]  breakpara: TIMER break parameter struct
 517:../Firmware/GD32VW55x_standard_peripheral/Source/gd32vw55x_timer.c ****                 runoffstate: TIMER_ROS_STATE_ENABLE,TIMER_ROS_STATE_DISABLE
 518:../Firmware/GD32VW55x_standard_peripheral/Source/gd32vw55x_timer.c ****                 ideloffstate: TIMER_IOS_STATE_ENABLE,TIMER_IOS_STATE_DISABLE
 519:../Firmware/GD32VW55x_standard_peripheral/Source/gd32vw55x_timer.c ****                 deadtime: 0~255
 520:../Firmware/GD32VW55x_standard_peripheral/Source/gd32vw55x_timer.c ****                 breakpolarity: TIMER_BREAK_POLARITY_LOW,TIMER_BREAK_POLARITY_HIGH
 521:../Firmware/GD32VW55x_standard_peripheral/Source/gd32vw55x_timer.c ****                 outputautostate: TIMER_OUTAUTO_ENABLE,TIMER_OUTAUTO_DISABLE
 522:../Firmware/GD32VW55x_standard_peripheral/Source/gd32vw55x_timer.c ****                 protectmode: TIMER_CCHP_PROT_OFF,TIMER_CCHP_PROT_0,TIMER_CCHP_PROT_1,TIMER_CCHP_PRO
 523:../Firmware/GD32VW55x_standard_peripheral/Source/gd32vw55x_timer.c ****                 breakstate: TIMER_BREAK_ENABLE,TIMER_BREAK_DISABLE
 524:../Firmware/GD32VW55x_standard_peripheral/Source/gd32vw55x_timer.c ****     \param[out] none
 525:../Firmware/GD32VW55x_standard_peripheral/Source/gd32vw55x_timer.c ****     \retval     none
 526:../Firmware/GD32VW55x_standard_peripheral/Source/gd32vw55x_timer.c **** */
 527:../Firmware/GD32VW55x_standard_peripheral/Source/gd32vw55x_timer.c **** void timer_break_config(uint32_t timer_periph, timer_break_parameter_struct* breakpara)
 528:../Firmware/GD32VW55x_standard_peripheral/Source/gd32vw55x_timer.c **** {
 1237              		.loc 1 528 1
 1238              		.cfi_startproc
 1239 0000 0111     		addi	sp,sp,-32
 1240              		.cfi_def_cfa_offset 32
 1241 0002 22CE     		sw	s0,28(sp)
 1242              		.cfi_offset 8, -4
 1243 0004 0010     		addi	s0,sp,32
 1244              		.cfi_def_cfa 8, 0
 1245 0006 2326A4FE 		sw	a0,-20(s0)
 1246 000a 2324B4FE 		sw	a1,-24(s0)
 529:../Firmware/GD32VW55x_standard_peripheral/Source/gd32vw55x_timer.c ****     TIMER_CCHP(timer_periph) = (uint32_t)(((uint32_t)(breakpara->runoffstate))|
 1247              		.loc 1 529 64
 1248 000e 832784FE 		lw	a5,-24(s0)
 1249 0012 83D70700 		lhu	a5,0(a5)
 1250              		.loc 1 529 44
 1251 0016 3E87     		mv	a4,a5
 530:../Firmware/GD32VW55x_standard_peripheral/Source/gd32vw55x_timer.c ****                                           ((uint32_t)(breakpara->ideloffstate))|
 1252              		.loc 1 530 64
 1253 0018 832784FE 		lw	a5,-24(s0)
 1254 001c DC43     		lw	a5,4(a5)
 529:../Firmware/GD32VW55x_standard_peripheral/Source/gd32vw55x_timer.c ****     TIMER_CCHP(timer_periph) = (uint32_t)(((uint32_t)(breakpara->runoffstate))|
 1255              		.loc 1 529 79
 1256 001e D98F     		or	a5,a4,a5
 531:../Firmware/GD32VW55x_standard_peripheral/Source/gd32vw55x_timer.c ****                                           ((uint32_t)(breakpara->deadtime))|
 1257              		.loc 1 531 64
 1258 0020 032784FE 		lw	a4,-24(s0)
 1259 0024 03578700 		lhu	a4,8(a4)
 530:../Firmware/GD32VW55x_standard_peripheral/Source/gd32vw55x_timer.c ****                                           ((uint32_t)(breakpara->ideloffstate))|
 1260              		.loc 1 530 80
 1261 0028 D98F     		or	a5,a5,a4
 532:../Firmware/GD32VW55x_standard_peripheral/Source/gd32vw55x_timer.c ****                                           ((uint32_t)(breakpara->breakpolarity))|
 1262              		.loc 1 532 64
 1263 002a 032784FE 		lw	a4,-24(s0)
 1264 002e 0357A700 		lhu	a4,10(a4)
 531:../Firmware/GD32VW55x_standard_peripheral/Source/gd32vw55x_timer.c ****                                           ((uint32_t)(breakpara->deadtime))|
 1265              		.loc 1 531 76
 1266 0032 D98F     		or	a5,a5,a4
 533:../Firmware/GD32VW55x_standard_peripheral/Source/gd32vw55x_timer.c ****                                           ((uint32_t)(breakpara->outputautostate)) |
 1267              		.loc 1 533 64
 1268 0034 032784FE 		lw	a4,-24(s0)
 1269 0038 0357C700 		lhu	a4,12(a4)
 532:../Firmware/GD32VW55x_standard_peripheral/Source/gd32vw55x_timer.c ****                                           ((uint32_t)(breakpara->breakpolarity))|
 1270              		.loc 1 532 81
 1271 003c D98F     		or	a5,a5,a4
 534:../Firmware/GD32VW55x_standard_peripheral/Source/gd32vw55x_timer.c ****                                           ((uint32_t)(breakpara->protectmode))|
 1272              		.loc 1 534 64
 1273 003e 032784FE 		lw	a4,-24(s0)
 1274 0042 0357E700 		lhu	a4,14(a4)
 533:../Firmware/GD32VW55x_standard_peripheral/Source/gd32vw55x_timer.c ****                                           ((uint32_t)(breakpara->outputautostate)) |
 1275              		.loc 1 533 84
 1276 0046 D98F     		or	a5,a5,a4
 535:../Firmware/GD32VW55x_standard_peripheral/Source/gd32vw55x_timer.c ****                                           ((uint32_t)(breakpara->breakstate))) ;
 1277              		.loc 1 535 64
 1278 0048 032784FE 		lw	a4,-24(s0)
 1279 004c 03570701 		lhu	a4,16(a4)
 1280              		.loc 1 535 44
 1281 0050 BA86     		mv	a3,a4
 529:../Firmware/GD32VW55x_standard_peripheral/Source/gd32vw55x_timer.c ****                                           ((uint32_t)(breakpara->ideloffstate))|
 1282              		.loc 1 529 5
 1283 0052 0327C4FE 		lw	a4,-20(s0)
 1284 0056 13074704 		addi	a4,a4,68
 529:../Firmware/GD32VW55x_standard_peripheral/Source/gd32vw55x_timer.c ****                                           ((uint32_t)(breakpara->ideloffstate))|
 1285              		.loc 1 529 32
 1286 005a D58F     		or	a5,a5,a3
 529:../Firmware/GD32VW55x_standard_peripheral/Source/gd32vw55x_timer.c ****                                           ((uint32_t)(breakpara->ideloffstate))|
 1287              		.loc 1 529 30
 1288 005c 1CC3     		sw	a5,0(a4)
 536:../Firmware/GD32VW55x_standard_peripheral/Source/gd32vw55x_timer.c **** }
 1289              		.loc 1 536 1
 1290 005e 0100     		nop
 1291 0060 7244     		lw	s0,28(sp)
 1292              		.cfi_restore 8
 1293              		.cfi_def_cfa 2, 32
 1294 0062 0561     		addi	sp,sp,32
 1295              		.cfi_def_cfa_offset 0
 1296 0064 8280     		jr	ra
 1297              		.cfi_endproc
 1298              	.LFE373:
 1300              		.section	.text.timer_break_enable,"ax",@progbits
 1301              		.align	1
 1302              		.globl	timer_break_enable
 1304              	timer_break_enable:
 1305              	.LFB374:
 537:../Firmware/GD32VW55x_standard_peripheral/Source/gd32vw55x_timer.c **** 
 538:../Firmware/GD32VW55x_standard_peripheral/Source/gd32vw55x_timer.c **** /*!
 539:../Firmware/GD32VW55x_standard_peripheral/Source/gd32vw55x_timer.c ****     \brief      enable TIMER break function
 540:../Firmware/GD32VW55x_standard_peripheral/Source/gd32vw55x_timer.c ****     \param[in]  timer_periph: TIMERx(x=0,15,16)
 541:../Firmware/GD32VW55x_standard_peripheral/Source/gd32vw55x_timer.c ****     \param[out] none
 542:../Firmware/GD32VW55x_standard_peripheral/Source/gd32vw55x_timer.c ****     \retval     none
 543:../Firmware/GD32VW55x_standard_peripheral/Source/gd32vw55x_timer.c **** */
 544:../Firmware/GD32VW55x_standard_peripheral/Source/gd32vw55x_timer.c **** void timer_break_enable(uint32_t timer_periph)
 545:../Firmware/GD32VW55x_standard_peripheral/Source/gd32vw55x_timer.c **** {
 1306              		.loc 1 545 1
 1307              		.cfi_startproc
 1308 0000 0111     		addi	sp,sp,-32
 1309              		.cfi_def_cfa_offset 32
 1310 0002 22CE     		sw	s0,28(sp)
 1311              		.cfi_offset 8, -4
 1312 0004 0010     		addi	s0,sp,32
 1313              		.cfi_def_cfa 8, 0
 1314 0006 2326A4FE 		sw	a0,-20(s0)
 546:../Firmware/GD32VW55x_standard_peripheral/Source/gd32vw55x_timer.c ****     TIMER_CCHP(timer_periph) |= (uint32_t)TIMER_CCHP_BRKEN;
 1315              		.loc 1 546 30
 1316 000a 8327C4FE 		lw	a5,-20(s0)
 1317 000e 93874704 		addi	a5,a5,68
 1318 0012 9843     		lw	a4,0(a5)
 1319 0014 8327C4FE 		lw	a5,-20(s0)
 1320 0018 93874704 		addi	a5,a5,68
 1321 001c BE86     		mv	a3,a5
 1322 001e 8567     		li	a5,4096
 1323 0020 D98F     		or	a5,a4,a5
 1324 0022 9CC2     		sw	a5,0(a3)
 547:../Firmware/GD32VW55x_standard_peripheral/Source/gd32vw55x_timer.c **** }
 1325              		.loc 1 547 1
 1326 0024 0100     		nop
 1327 0026 7244     		lw	s0,28(sp)
 1328              		.cfi_restore 8
 1329              		.cfi_def_cfa 2, 32
 1330 0028 0561     		addi	sp,sp,32
 1331              		.cfi_def_cfa_offset 0
 1332 002a 8280     		jr	ra
 1333              		.cfi_endproc
 1334              	.LFE374:
 1336              		.section	.text.timer_break_disable,"ax",@progbits
 1337              		.align	1
 1338              		.globl	timer_break_disable
 1340              	timer_break_disable:
 1341              	.LFB375:
 548:../Firmware/GD32VW55x_standard_peripheral/Source/gd32vw55x_timer.c **** 
 549:../Firmware/GD32VW55x_standard_peripheral/Source/gd32vw55x_timer.c **** /*!
 550:../Firmware/GD32VW55x_standard_peripheral/Source/gd32vw55x_timer.c ****     \brief      disable TIMER break function
 551:../Firmware/GD32VW55x_standard_peripheral/Source/gd32vw55x_timer.c ****     \param[in]  timer_periph: TIMERx(x=0,15,16)
 552:../Firmware/GD32VW55x_standard_peripheral/Source/gd32vw55x_timer.c ****     \param[out] none
 553:../Firmware/GD32VW55x_standard_peripheral/Source/gd32vw55x_timer.c ****     \retval     none
 554:../Firmware/GD32VW55x_standard_peripheral/Source/gd32vw55x_timer.c **** */
 555:../Firmware/GD32VW55x_standard_peripheral/Source/gd32vw55x_timer.c **** void timer_break_disable(uint32_t timer_periph)
 556:../Firmware/GD32VW55x_standard_peripheral/Source/gd32vw55x_timer.c **** {
 1342              		.loc 1 556 1
 1343              		.cfi_startproc
 1344 0000 0111     		addi	sp,sp,-32
 1345              		.cfi_def_cfa_offset 32
 1346 0002 22CE     		sw	s0,28(sp)
 1347              		.cfi_offset 8, -4
 1348 0004 0010     		addi	s0,sp,32
 1349              		.cfi_def_cfa 8, 0
 1350 0006 2326A4FE 		sw	a0,-20(s0)
 557:../Firmware/GD32VW55x_standard_peripheral/Source/gd32vw55x_timer.c ****     TIMER_CCHP(timer_periph) &= ~(uint32_t)TIMER_CCHP_BRKEN;
 1351              		.loc 1 557 30
 1352 000a 8327C4FE 		lw	a5,-20(s0)
 1353 000e 93874704 		addi	a5,a5,68
 1354 0012 9843     		lw	a4,0(a5)
 1355 0014 8327C4FE 		lw	a5,-20(s0)
 1356 0018 93874704 		addi	a5,a5,68
 1357 001c BE86     		mv	a3,a5
 1358 001e FD77     		li	a5,-4096
 1359 0020 FD17     		addi	a5,a5,-1
 1360 0022 F98F     		and	a5,a4,a5
 1361 0024 9CC2     		sw	a5,0(a3)
 558:../Firmware/GD32VW55x_standard_peripheral/Source/gd32vw55x_timer.c **** }
 1362              		.loc 1 558 1
 1363 0026 0100     		nop
 1364 0028 7244     		lw	s0,28(sp)
 1365              		.cfi_restore 8
 1366              		.cfi_def_cfa 2, 32
 1367 002a 0561     		addi	sp,sp,32
 1368              		.cfi_def_cfa_offset 0
 1369 002c 8280     		jr	ra
 1370              		.cfi_endproc
 1371              	.LFE375:
 1373              		.section	.text.timer_automatic_output_enable,"ax",@progbits
 1374              		.align	1
 1375              		.globl	timer_automatic_output_enable
 1377              	timer_automatic_output_enable:
 1378              	.LFB376:
 559:../Firmware/GD32VW55x_standard_peripheral/Source/gd32vw55x_timer.c **** 
 560:../Firmware/GD32VW55x_standard_peripheral/Source/gd32vw55x_timer.c **** /*!
 561:../Firmware/GD32VW55x_standard_peripheral/Source/gd32vw55x_timer.c ****     \brief      enable TIMER output automatic function
 562:../Firmware/GD32VW55x_standard_peripheral/Source/gd32vw55x_timer.c ****     \param[in]  timer_periph: TIMERx(x=0,15,16)
 563:../Firmware/GD32VW55x_standard_peripheral/Source/gd32vw55x_timer.c ****     \param[out] none
 564:../Firmware/GD32VW55x_standard_peripheral/Source/gd32vw55x_timer.c ****     \retval     none
 565:../Firmware/GD32VW55x_standard_peripheral/Source/gd32vw55x_timer.c **** */
 566:../Firmware/GD32VW55x_standard_peripheral/Source/gd32vw55x_timer.c **** void timer_automatic_output_enable(uint32_t timer_periph)
 567:../Firmware/GD32VW55x_standard_peripheral/Source/gd32vw55x_timer.c **** {
 1379              		.loc 1 567 1
 1380              		.cfi_startproc
 1381 0000 0111     		addi	sp,sp,-32
 1382              		.cfi_def_cfa_offset 32
 1383 0002 22CE     		sw	s0,28(sp)
 1384              		.cfi_offset 8, -4
 1385 0004 0010     		addi	s0,sp,32
 1386              		.cfi_def_cfa 8, 0
 1387 0006 2326A4FE 		sw	a0,-20(s0)
 568:../Firmware/GD32VW55x_standard_peripheral/Source/gd32vw55x_timer.c ****     TIMER_CCHP(timer_periph) |= (uint32_t)TIMER_CCHP_OAEN;
 1388              		.loc 1 568 30
 1389 000a 8327C4FE 		lw	a5,-20(s0)
 1390 000e 93874704 		addi	a5,a5,68
 1391 0012 9843     		lw	a4,0(a5)
 1392 0014 8327C4FE 		lw	a5,-20(s0)
 1393 0018 93874704 		addi	a5,a5,68
 1394 001c BE86     		mv	a3,a5
 1395 001e 9167     		li	a5,16384
 1396 0020 D98F     		or	a5,a4,a5
 1397 0022 9CC2     		sw	a5,0(a3)
 569:../Firmware/GD32VW55x_standard_peripheral/Source/gd32vw55x_timer.c **** }
 1398              		.loc 1 569 1
 1399 0024 0100     		nop
 1400 0026 7244     		lw	s0,28(sp)
 1401              		.cfi_restore 8
 1402              		.cfi_def_cfa 2, 32
 1403 0028 0561     		addi	sp,sp,32
 1404              		.cfi_def_cfa_offset 0
 1405 002a 8280     		jr	ra
 1406              		.cfi_endproc
 1407              	.LFE376:
 1409              		.section	.text.timer_automatic_output_disable,"ax",@progbits
 1410              		.align	1
 1411              		.globl	timer_automatic_output_disable
 1413              	timer_automatic_output_disable:
 1414              	.LFB377:
 570:../Firmware/GD32VW55x_standard_peripheral/Source/gd32vw55x_timer.c **** 
 571:../Firmware/GD32VW55x_standard_peripheral/Source/gd32vw55x_timer.c **** /*!
 572:../Firmware/GD32VW55x_standard_peripheral/Source/gd32vw55x_timer.c ****     \brief      disable TIMER output automatic function
 573:../Firmware/GD32VW55x_standard_peripheral/Source/gd32vw55x_timer.c ****     \param[in]  timer_periph: TIMERx(x=0,15,16)
 574:../Firmware/GD32VW55x_standard_peripheral/Source/gd32vw55x_timer.c ****     \param[out] none
 575:../Firmware/GD32VW55x_standard_peripheral/Source/gd32vw55x_timer.c ****     \retval     none
 576:../Firmware/GD32VW55x_standard_peripheral/Source/gd32vw55x_timer.c **** */
 577:../Firmware/GD32VW55x_standard_peripheral/Source/gd32vw55x_timer.c **** void timer_automatic_output_disable(uint32_t timer_periph)
 578:../Firmware/GD32VW55x_standard_peripheral/Source/gd32vw55x_timer.c **** {
 1415              		.loc 1 578 1
 1416              		.cfi_startproc
 1417 0000 0111     		addi	sp,sp,-32
 1418              		.cfi_def_cfa_offset 32
 1419 0002 22CE     		sw	s0,28(sp)
 1420              		.cfi_offset 8, -4
 1421 0004 0010     		addi	s0,sp,32
 1422              		.cfi_def_cfa 8, 0
 1423 0006 2326A4FE 		sw	a0,-20(s0)
 579:../Firmware/GD32VW55x_standard_peripheral/Source/gd32vw55x_timer.c ****     TIMER_CCHP(timer_periph) &= ~(uint32_t)TIMER_CCHP_OAEN;
 1424              		.loc 1 579 30
 1425 000a 8327C4FE 		lw	a5,-20(s0)
 1426 000e 93874704 		addi	a5,a5,68
 1427 0012 9843     		lw	a4,0(a5)
 1428 0014 8327C4FE 		lw	a5,-20(s0)
 1429 0018 93874704 		addi	a5,a5,68
 1430 001c BE86     		mv	a3,a5
 1431 001e F177     		li	a5,-16384
 1432 0020 FD17     		addi	a5,a5,-1
 1433 0022 F98F     		and	a5,a4,a5
 1434 0024 9CC2     		sw	a5,0(a3)
 580:../Firmware/GD32VW55x_standard_peripheral/Source/gd32vw55x_timer.c **** }
 1435              		.loc 1 580 1
 1436 0026 0100     		nop
 1437 0028 7244     		lw	s0,28(sp)
 1438              		.cfi_restore 8
 1439              		.cfi_def_cfa 2, 32
 1440 002a 0561     		addi	sp,sp,32
 1441              		.cfi_def_cfa_offset 0
 1442 002c 8280     		jr	ra
 1443              		.cfi_endproc
 1444              	.LFE377:
 1446              		.section	.text.timer_primary_output_config,"ax",@progbits
 1447              		.align	1
 1448              		.globl	timer_primary_output_config
 1450              	timer_primary_output_config:
 1451              	.LFB378:
 581:../Firmware/GD32VW55x_standard_peripheral/Source/gd32vw55x_timer.c **** 
 582:../Firmware/GD32VW55x_standard_peripheral/Source/gd32vw55x_timer.c **** /*!
 583:../Firmware/GD32VW55x_standard_peripheral/Source/gd32vw55x_timer.c ****     \brief      configure TIMER primary output function
 584:../Firmware/GD32VW55x_standard_peripheral/Source/gd32vw55x_timer.c ****     \param[in]  timer_periph: TIMERx(x=0,15,16)
 585:../Firmware/GD32VW55x_standard_peripheral/Source/gd32vw55x_timer.c ****     \param[in]  newvalue: ENABLE or DISABLE
 586:../Firmware/GD32VW55x_standard_peripheral/Source/gd32vw55x_timer.c ****     \param[out] none
 587:../Firmware/GD32VW55x_standard_peripheral/Source/gd32vw55x_timer.c ****     \retval     none
 588:../Firmware/GD32VW55x_standard_peripheral/Source/gd32vw55x_timer.c **** */
 589:../Firmware/GD32VW55x_standard_peripheral/Source/gd32vw55x_timer.c **** void timer_primary_output_config(uint32_t timer_periph, ControlStatus newvalue)
 590:../Firmware/GD32VW55x_standard_peripheral/Source/gd32vw55x_timer.c **** {
 1452              		.loc 1 590 1
 1453              		.cfi_startproc
 1454 0000 0111     		addi	sp,sp,-32
 1455              		.cfi_def_cfa_offset 32
 1456 0002 22CE     		sw	s0,28(sp)
 1457              		.cfi_offset 8, -4
 1458 0004 0010     		addi	s0,sp,32
 1459              		.cfi_def_cfa 8, 0
 1460 0006 2326A4FE 		sw	a0,-20(s0)
 1461 000a 2324B4FE 		sw	a1,-24(s0)
 591:../Firmware/GD32VW55x_standard_peripheral/Source/gd32vw55x_timer.c ****     if(ENABLE == newvalue){
 1462              		.loc 1 591 7
 1463 000e 032784FE 		lw	a4,-24(s0)
 1464 0012 8547     		li	a5,1
 1465 0014 6310F702 		bne	a4,a5,.L60
 592:../Firmware/GD32VW55x_standard_peripheral/Source/gd32vw55x_timer.c ****         TIMER_CCHP(timer_periph) |= (uint32_t)TIMER_CCHP_POEN;
 1466              		.loc 1 592 34
 1467 0018 8327C4FE 		lw	a5,-20(s0)
 1468 001c 93874704 		addi	a5,a5,68
 1469 0020 9843     		lw	a4,0(a5)
 1470 0022 8327C4FE 		lw	a5,-20(s0)
 1471 0026 93874704 		addi	a5,a5,68
 1472 002a BE86     		mv	a3,a5
 1473 002c A167     		li	a5,32768
 1474 002e D98F     		or	a5,a4,a5
 1475 0030 9CC2     		sw	a5,0(a3)
 593:../Firmware/GD32VW55x_standard_peripheral/Source/gd32vw55x_timer.c ****     }else{
 594:../Firmware/GD32VW55x_standard_peripheral/Source/gd32vw55x_timer.c ****         TIMER_CCHP(timer_periph) &= (~(uint32_t)TIMER_CCHP_POEN);
 595:../Firmware/GD32VW55x_standard_peripheral/Source/gd32vw55x_timer.c ****     }
 596:../Firmware/GD32VW55x_standard_peripheral/Source/gd32vw55x_timer.c **** }
 1476              		.loc 1 596 1
 1477 0032 39A8     		j	.L62
 1478              	.L60:
 594:../Firmware/GD32VW55x_standard_peripheral/Source/gd32vw55x_timer.c ****     }
 1479              		.loc 1 594 34
 1480 0034 8327C4FE 		lw	a5,-20(s0)
 1481 0038 93874704 		addi	a5,a5,68
 1482 003c 9843     		lw	a4,0(a5)
 1483 003e 8327C4FE 		lw	a5,-20(s0)
 1484 0042 93874704 		addi	a5,a5,68
 1485 0046 BE86     		mv	a3,a5
 1486 0048 E177     		li	a5,-32768
 1487 004a FD17     		addi	a5,a5,-1
 1488 004c F98F     		and	a5,a4,a5
 1489 004e 9CC2     		sw	a5,0(a3)
 1490              	.L62:
 1491              		.loc 1 596 1
 1492 0050 0100     		nop
 1493 0052 7244     		lw	s0,28(sp)
 1494              		.cfi_restore 8
 1495              		.cfi_def_cfa 2, 32
 1496 0054 0561     		addi	sp,sp,32
 1497              		.cfi_def_cfa_offset 0
 1498 0056 8280     		jr	ra
 1499              		.cfi_endproc
 1500              	.LFE378:
 1502              		.section	.text.timer_channel_control_shadow_config,"ax",@progbits
 1503              		.align	1
 1504              		.globl	timer_channel_control_shadow_config
 1506              	timer_channel_control_shadow_config:
 1507              	.LFB379:
 597:../Firmware/GD32VW55x_standard_peripheral/Source/gd32vw55x_timer.c **** 
 598:../Firmware/GD32VW55x_standard_peripheral/Source/gd32vw55x_timer.c **** /*!
 599:../Firmware/GD32VW55x_standard_peripheral/Source/gd32vw55x_timer.c ****     \brief      enable or disable channel capture/compare control shadow register
 600:../Firmware/GD32VW55x_standard_peripheral/Source/gd32vw55x_timer.c ****     \param[in]  timer_periph: TIMERx(x=0,15,16)
 601:../Firmware/GD32VW55x_standard_peripheral/Source/gd32vw55x_timer.c ****     \param[in]  newvalue: ENABLE or DISABLE
 602:../Firmware/GD32VW55x_standard_peripheral/Source/gd32vw55x_timer.c ****     \param[out] none
 603:../Firmware/GD32VW55x_standard_peripheral/Source/gd32vw55x_timer.c ****     \retval     none
 604:../Firmware/GD32VW55x_standard_peripheral/Source/gd32vw55x_timer.c **** */
 605:../Firmware/GD32VW55x_standard_peripheral/Source/gd32vw55x_timer.c **** void timer_channel_control_shadow_config(uint32_t timer_periph, ControlStatus newvalue)
 606:../Firmware/GD32VW55x_standard_peripheral/Source/gd32vw55x_timer.c **** {
 1508              		.loc 1 606 1
 1509              		.cfi_startproc
 1510 0000 0111     		addi	sp,sp,-32
 1511              		.cfi_def_cfa_offset 32
 1512 0002 22CE     		sw	s0,28(sp)
 1513              		.cfi_offset 8, -4
 1514 0004 0010     		addi	s0,sp,32
 1515              		.cfi_def_cfa 8, 0
 1516 0006 2326A4FE 		sw	a0,-20(s0)
 1517 000a 2324B4FE 		sw	a1,-24(s0)
 607:../Firmware/GD32VW55x_standard_peripheral/Source/gd32vw55x_timer.c ****     if(ENABLE == newvalue){
 1518              		.loc 1 607 7
 1519 000e 032784FE 		lw	a4,-24(s0)
 1520 0012 8547     		li	a5,1
 1521 0014 631DF700 		bne	a4,a5,.L64
 608:../Firmware/GD32VW55x_standard_peripheral/Source/gd32vw55x_timer.c ****         TIMER_CTL1(timer_periph) |= (uint32_t)TIMER_CTL1_CCSE;
 1522              		.loc 1 608 34
 1523 0018 8327C4FE 		lw	a5,-20(s0)
 1524 001c 9107     		addi	a5,a5,4
 1525 001e 9C43     		lw	a5,0(a5)
 1526 0020 0327C4FE 		lw	a4,-20(s0)
 1527 0024 1107     		addi	a4,a4,4
 1528 0026 93E71700 		ori	a5,a5,1
 1529 002a 1CC3     		sw	a5,0(a4)
 609:../Firmware/GD32VW55x_standard_peripheral/Source/gd32vw55x_timer.c ****     }else{
 610:../Firmware/GD32VW55x_standard_peripheral/Source/gd32vw55x_timer.c ****         TIMER_CTL1(timer_periph) &= (~(uint32_t)TIMER_CTL1_CCSE);
 611:../Firmware/GD32VW55x_standard_peripheral/Source/gd32vw55x_timer.c ****     }
 612:../Firmware/GD32VW55x_standard_peripheral/Source/gd32vw55x_timer.c **** }
 1530              		.loc 1 612 1
 1531 002c 11A8     		j	.L66
 1532              	.L64:
 610:../Firmware/GD32VW55x_standard_peripheral/Source/gd32vw55x_timer.c ****     }
 1533              		.loc 1 610 34
 1534 002e 8327C4FE 		lw	a5,-20(s0)
 1535 0032 9107     		addi	a5,a5,4
 1536 0034 9C43     		lw	a5,0(a5)
 1537 0036 0327C4FE 		lw	a4,-20(s0)
 1538 003a 1107     		addi	a4,a4,4
 1539 003c F99B     		andi	a5,a5,-2
 1540 003e 1CC3     		sw	a5,0(a4)
 1541              	.L66:
 1542              		.loc 1 612 1
 1543 0040 0100     		nop
 1544 0042 7244     		lw	s0,28(sp)
 1545              		.cfi_restore 8
 1546              		.cfi_def_cfa 2, 32
 1547 0044 0561     		addi	sp,sp,32
 1548              		.cfi_def_cfa_offset 0
 1549 0046 8280     		jr	ra
 1550              		.cfi_endproc
 1551              	.LFE379:
 1553              		.section	.text.timer_channel_control_shadow_update_config,"ax",@progbits
 1554              		.align	1
 1555              		.globl	timer_channel_control_shadow_update_config
 1557              	timer_channel_control_shadow_update_config:
 1558              	.LFB380:
 613:../Firmware/GD32VW55x_standard_peripheral/Source/gd32vw55x_timer.c **** 
 614:../Firmware/GD32VW55x_standard_peripheral/Source/gd32vw55x_timer.c **** /*!
 615:../Firmware/GD32VW55x_standard_peripheral/Source/gd32vw55x_timer.c ****     \brief      configure TIMER channel control shadow register update control
 616:../Firmware/GD32VW55x_standard_peripheral/Source/gd32vw55x_timer.c ****     \param[in]  timer_periph: TIMERx(x=0,15,16)
 617:../Firmware/GD32VW55x_standard_peripheral/Source/gd32vw55x_timer.c ****     \param[in]  ccuctl: channel control shadow register update control
 618:../Firmware/GD32VW55x_standard_peripheral/Source/gd32vw55x_timer.c ****                 only one parameter can be selected which is shown as below:
 619:../Firmware/GD32VW55x_standard_peripheral/Source/gd32vw55x_timer.c ****       \arg        TIMER_UPDATECTL_CCU: the shadow registers update by when CMTG bit is set
 620:../Firmware/GD32VW55x_standard_peripheral/Source/gd32vw55x_timer.c ****       \arg        TIMER_UPDATECTL_CCUTRI: the shadow registers update by when CMTG bit is set or an
 621:../Firmware/GD32VW55x_standard_peripheral/Source/gd32vw55x_timer.c ****     \param[out] none
 622:../Firmware/GD32VW55x_standard_peripheral/Source/gd32vw55x_timer.c ****     \retval     none
 623:../Firmware/GD32VW55x_standard_peripheral/Source/gd32vw55x_timer.c **** */
 624:../Firmware/GD32VW55x_standard_peripheral/Source/gd32vw55x_timer.c **** void timer_channel_control_shadow_update_config(uint32_t timer_periph, uint32_t ccuctl)
 625:../Firmware/GD32VW55x_standard_peripheral/Source/gd32vw55x_timer.c **** {
 1559              		.loc 1 625 1
 1560              		.cfi_startproc
 1561 0000 0111     		addi	sp,sp,-32
 1562              		.cfi_def_cfa_offset 32
 1563 0002 22CE     		sw	s0,28(sp)
 1564              		.cfi_offset 8, -4
 1565 0004 0010     		addi	s0,sp,32
 1566              		.cfi_def_cfa 8, 0
 1567 0006 2326A4FE 		sw	a0,-20(s0)
 1568 000a 2324B4FE 		sw	a1,-24(s0)
 626:../Firmware/GD32VW55x_standard_peripheral/Source/gd32vw55x_timer.c ****     if(TIMER_UPDATECTL_CCU == ccuctl){
 1569              		.loc 1 626 7
 1570 000e 832784FE 		lw	a5,-24(s0)
 1571 0012 99EB     		bne	a5,zero,.L68
 627:../Firmware/GD32VW55x_standard_peripheral/Source/gd32vw55x_timer.c ****         TIMER_CTL1(timer_periph) &= (~(uint32_t)TIMER_CTL1_CCUC);
 1572              		.loc 1 627 34
 1573 0014 8327C4FE 		lw	a5,-20(s0)
 1574 0018 9107     		addi	a5,a5,4
 1575 001a 9C43     		lw	a5,0(a5)
 1576 001c 0327C4FE 		lw	a4,-20(s0)
 1577 0020 1107     		addi	a4,a4,4
 1578 0022 ED9B     		andi	a5,a5,-5
 1579 0024 1CC3     		sw	a5,0(a4)
 628:../Firmware/GD32VW55x_standard_peripheral/Source/gd32vw55x_timer.c ****     }else if(TIMER_UPDATECTL_CCUTRI == ccuctl){
 629:../Firmware/GD32VW55x_standard_peripheral/Source/gd32vw55x_timer.c ****         TIMER_CTL1(timer_periph) |= (uint32_t)TIMER_CTL1_CCUC;
 630:../Firmware/GD32VW55x_standard_peripheral/Source/gd32vw55x_timer.c ****     }else{
 631:../Firmware/GD32VW55x_standard_peripheral/Source/gd32vw55x_timer.c ****         /* illegal parameters */
 632:../Firmware/GD32VW55x_standard_peripheral/Source/gd32vw55x_timer.c ****     }
 633:../Firmware/GD32VW55x_standard_peripheral/Source/gd32vw55x_timer.c **** }
 1580              		.loc 1 633 1
 1581 0026 05A0     		j	.L70
 1582              	.L68:
 628:../Firmware/GD32VW55x_standard_peripheral/Source/gd32vw55x_timer.c ****     }else if(TIMER_UPDATECTL_CCUTRI == ccuctl){
 1583              		.loc 1 628 13
 1584 0028 032784FE 		lw	a4,-24(s0)
 1585 002c 8547     		li	a5,1
 1586 002e 631CF700 		bne	a4,a5,.L70
 629:../Firmware/GD32VW55x_standard_peripheral/Source/gd32vw55x_timer.c ****     }else{
 1587              		.loc 1 629 34
 1588 0032 8327C4FE 		lw	a5,-20(s0)
 1589 0036 9107     		addi	a5,a5,4
 1590 0038 9C43     		lw	a5,0(a5)
 1591 003a 0327C4FE 		lw	a4,-20(s0)
 1592 003e 1107     		addi	a4,a4,4
 1593 0040 93E74700 		ori	a5,a5,4
 1594 0044 1CC3     		sw	a5,0(a4)
 1595              	.L70:
 1596              		.loc 1 633 1
 1597 0046 0100     		nop
 1598 0048 7244     		lw	s0,28(sp)
 1599              		.cfi_restore 8
 1600              		.cfi_def_cfa 2, 32
 1601 004a 0561     		addi	sp,sp,32
 1602              		.cfi_def_cfa_offset 0
 1603 004c 8280     		jr	ra
 1604              		.cfi_endproc
 1605              	.LFE380:
 1607              		.section	.text.timer_channel_output_struct_para_init,"ax",@progbits
 1608              		.align	1
 1609              		.globl	timer_channel_output_struct_para_init
 1611              	timer_channel_output_struct_para_init:
 1612              	.LFB381:
 634:../Firmware/GD32VW55x_standard_peripheral/Source/gd32vw55x_timer.c **** 
 635:../Firmware/GD32VW55x_standard_peripheral/Source/gd32vw55x_timer.c **** /*!
 636:../Firmware/GD32VW55x_standard_peripheral/Source/gd32vw55x_timer.c ****     \brief      initialize TIMER channel output parameter struct with a default value
 637:../Firmware/GD32VW55x_standard_peripheral/Source/gd32vw55x_timer.c ****     \param[in]  ocpara: TIMER channel n output parameter struct
 638:../Firmware/GD32VW55x_standard_peripheral/Source/gd32vw55x_timer.c ****     \param[out] none
 639:../Firmware/GD32VW55x_standard_peripheral/Source/gd32vw55x_timer.c ****     \retval     none
 640:../Firmware/GD32VW55x_standard_peripheral/Source/gd32vw55x_timer.c **** */
 641:../Firmware/GD32VW55x_standard_peripheral/Source/gd32vw55x_timer.c **** void timer_channel_output_struct_para_init(timer_oc_parameter_struct* ocpara)
 642:../Firmware/GD32VW55x_standard_peripheral/Source/gd32vw55x_timer.c **** {
 1613              		.loc 1 642 1
 1614              		.cfi_startproc
 1615 0000 0111     		addi	sp,sp,-32
 1616              		.cfi_def_cfa_offset 32
 1617 0002 22CE     		sw	s0,28(sp)
 1618              		.cfi_offset 8, -4
 1619 0004 0010     		addi	s0,sp,32
 1620              		.cfi_def_cfa 8, 0
 1621 0006 2326A4FE 		sw	a0,-20(s0)
 643:../Firmware/GD32VW55x_standard_peripheral/Source/gd32vw55x_timer.c ****     /* initialize the channel output parameter struct member with the default value */
 644:../Firmware/GD32VW55x_standard_peripheral/Source/gd32vw55x_timer.c ****     ocpara->outputstate  = TIMER_CCX_DISABLE;
 1622              		.loc 1 644 26
 1623 000a 8327C4FE 		lw	a5,-20(s0)
 1624 000e 23A00700 		sw	zero,0(a5)
 645:../Firmware/GD32VW55x_standard_peripheral/Source/gd32vw55x_timer.c ****     ocpara->outputnstate = TIMER_CCXN_DISABLE;
 1625              		.loc 1 645 26
 1626 0012 8327C4FE 		lw	a5,-20(s0)
 1627 0016 23920700 		sh	zero,4(a5)
 646:../Firmware/GD32VW55x_standard_peripheral/Source/gd32vw55x_timer.c ****     ocpara->ocpolarity   = TIMER_OC_POLARITY_HIGH;
 1628              		.loc 1 646 26
 1629 001a 8327C4FE 		lw	a5,-20(s0)
 1630 001e 23930700 		sh	zero,6(a5)
 647:../Firmware/GD32VW55x_standard_peripheral/Source/gd32vw55x_timer.c ****     ocpara->ocnpolarity  = TIMER_OCN_POLARITY_HIGH;
 1631              		.loc 1 647 26
 1632 0022 8327C4FE 		lw	a5,-20(s0)
 1633 0026 23940700 		sh	zero,8(a5)
 648:../Firmware/GD32VW55x_standard_peripheral/Source/gd32vw55x_timer.c ****     ocpara->ocidlestate  = TIMER_OC_IDLE_STATE_LOW;
 1634              		.loc 1 648 26
 1635 002a 8327C4FE 		lw	a5,-20(s0)
 1636 002e 23950700 		sh	zero,10(a5)
 649:../Firmware/GD32VW55x_standard_peripheral/Source/gd32vw55x_timer.c ****     ocpara->ocnidlestate = TIMER_OCN_IDLE_STATE_LOW;
 1637              		.loc 1 649 26
 1638 0032 8327C4FE 		lw	a5,-20(s0)
 1639 0036 23960700 		sh	zero,12(a5)
 650:../Firmware/GD32VW55x_standard_peripheral/Source/gd32vw55x_timer.c **** }
 1640              		.loc 1 650 1
 1641 003a 0100     		nop
 1642 003c 7244     		lw	s0,28(sp)
 1643              		.cfi_restore 8
 1644              		.cfi_def_cfa 2, 32
 1645 003e 0561     		addi	sp,sp,32
 1646              		.cfi_def_cfa_offset 0
 1647 0040 8280     		jr	ra
 1648              		.cfi_endproc
 1649              	.LFE381:
 1651              		.section	.text.timer_channel_output_config,"ax",@progbits
 1652              		.align	1
 1653              		.globl	timer_channel_output_config
 1655              	timer_channel_output_config:
 1656              	.LFB382:
 651:../Firmware/GD32VW55x_standard_peripheral/Source/gd32vw55x_timer.c **** 
 652:../Firmware/GD32VW55x_standard_peripheral/Source/gd32vw55x_timer.c **** /*!
 653:../Firmware/GD32VW55x_standard_peripheral/Source/gd32vw55x_timer.c ****     \brief      configure TIMER channel output function
 654:../Firmware/GD32VW55x_standard_peripheral/Source/gd32vw55x_timer.c ****     \param[in]  timer_periph: please refer to the following parameters
 655:../Firmware/GD32VW55x_standard_peripheral/Source/gd32vw55x_timer.c ****     \param[in]  channel:
 656:../Firmware/GD32VW55x_standard_peripheral/Source/gd32vw55x_timer.c ****                 only one parameter can be selected which is shown as below:
 657:../Firmware/GD32VW55x_standard_peripheral/Source/gd32vw55x_timer.c ****       \arg        TIMER_CH_0: TIMER channel 0(TIMERx(x=0,1,2,15,16))
 658:../Firmware/GD32VW55x_standard_peripheral/Source/gd32vw55x_timer.c ****       \arg        TIMER_CH_1: TIMER channel 1(TIMERx(x=0,1,2))
 659:../Firmware/GD32VW55x_standard_peripheral/Source/gd32vw55x_timer.c ****       \arg        TIMER_CH_2: TIMER channel 2(TIMERx(x=0,1,2))
 660:../Firmware/GD32VW55x_standard_peripheral/Source/gd32vw55x_timer.c ****       \arg        TIMER_CH_3: TIMER channel 3(TIMERx(x=0,1,2))
 661:../Firmware/GD32VW55x_standard_peripheral/Source/gd32vw55x_timer.c ****     \param[in]  ocpara: TIMER channeln output parameter struct
 662:../Firmware/GD32VW55x_standard_peripheral/Source/gd32vw55x_timer.c ****                 outputstate: TIMER_CCX_ENABLE,TIMER_CCX_DISABLE
 663:../Firmware/GD32VW55x_standard_peripheral/Source/gd32vw55x_timer.c ****                 outputnstate: TIMER_CCXN_ENABLE,TIMER_CCXN_DISABLE
 664:../Firmware/GD32VW55x_standard_peripheral/Source/gd32vw55x_timer.c ****                 ocpolarity: TIMER_OC_POLARITY_HIGH,TIMER_OC_POLARITY_LOW
 665:../Firmware/GD32VW55x_standard_peripheral/Source/gd32vw55x_timer.c ****                 ocnpolarity: TIMER_OCN_POLARITY_HIGH,TIMER_OCN_POLARITY_LOW
 666:../Firmware/GD32VW55x_standard_peripheral/Source/gd32vw55x_timer.c ****                 ocidlestate: TIMER_OC_IDLE_STATE_LOW,TIMER_OC_IDLE_STATE_HIGH
 667:../Firmware/GD32VW55x_standard_peripheral/Source/gd32vw55x_timer.c ****                 ocnidlestate: TIMER_OCN_IDLE_STATE_LOW,TIMER_OCN_IDLE_STATE_HIGH
 668:../Firmware/GD32VW55x_standard_peripheral/Source/gd32vw55x_timer.c ****     \param[out] none
 669:../Firmware/GD32VW55x_standard_peripheral/Source/gd32vw55x_timer.c ****     \retval     none
 670:../Firmware/GD32VW55x_standard_peripheral/Source/gd32vw55x_timer.c **** */
 671:../Firmware/GD32VW55x_standard_peripheral/Source/gd32vw55x_timer.c **** void timer_channel_output_config(uint32_t timer_periph, uint16_t channel, timer_oc_parameter_struct
 672:../Firmware/GD32VW55x_standard_peripheral/Source/gd32vw55x_timer.c **** {
 1657              		.loc 1 672 1
 1658              		.cfi_startproc
 1659 0000 0111     		addi	sp,sp,-32
 1660              		.cfi_def_cfa_offset 32
 1661 0002 22CE     		sw	s0,28(sp)
 1662              		.cfi_offset 8, -4
 1663 0004 0010     		addi	s0,sp,32
 1664              		.cfi_def_cfa 8, 0
 1665 0006 2326A4FE 		sw	a0,-20(s0)
 1666 000a AE87     		mv	a5,a1
 1667 000c 2322C4FE 		sw	a2,-28(s0)
 1668 0010 2315F4FE 		sh	a5,-22(s0)
 673:../Firmware/GD32VW55x_standard_peripheral/Source/gd32vw55x_timer.c ****     switch(channel){
 1669              		.loc 1 673 5
 1670 0014 8357A4FE 		lhu	a5,-22(s0)
 1671 0018 0D47     		li	a4,3
 1672 001a 6380E746 		beq	a5,a4,.L73
 1673 001e 0D47     		li	a4,3
 1674 0020 6343F752 		bgt	a5,a4,.L84
 1675 0024 0947     		li	a4,2
 1676 0026 6384E72E 		beq	a5,a4,.L75
 1677 002a 0947     		li	a4,2
 1678 002c 634DF750 		bgt	a5,a4,.L84
 1679 0030 89C7     		beq	a5,zero,.L76
 1680 0032 0547     		li	a4,1
 1681 0034 638BE716 		beq	a5,a4,.L77
 674:../Firmware/GD32VW55x_standard_peripheral/Source/gd32vw55x_timer.c ****     /* configure TIMER_CH_0 */
 675:../Firmware/GD32VW55x_standard_peripheral/Source/gd32vw55x_timer.c ****     case TIMER_CH_0:
 676:../Firmware/GD32VW55x_standard_peripheral/Source/gd32vw55x_timer.c ****         /* reset the CH0EN bit */
 677:../Firmware/GD32VW55x_standard_peripheral/Source/gd32vw55x_timer.c ****         TIMER_CHCTL2(timer_periph) &= (~(uint32_t)TIMER_CHCTL2_CH0EN);
 678:../Firmware/GD32VW55x_standard_peripheral/Source/gd32vw55x_timer.c ****         TIMER_CHCTL0(timer_periph) &= ~(uint32_t)TIMER_CHCTL0_CH0MS;
 679:../Firmware/GD32VW55x_standard_peripheral/Source/gd32vw55x_timer.c ****         /* set the CH0EN bit */
 680:../Firmware/GD32VW55x_standard_peripheral/Source/gd32vw55x_timer.c ****         TIMER_CHCTL2(timer_periph) |= (uint32_t)ocpara->outputstate;
 681:../Firmware/GD32VW55x_standard_peripheral/Source/gd32vw55x_timer.c ****         /* reset the CH0P bit */
 682:../Firmware/GD32VW55x_standard_peripheral/Source/gd32vw55x_timer.c ****         TIMER_CHCTL2(timer_periph) &= (~(uint32_t)TIMER_CHCTL2_CH0P);
 683:../Firmware/GD32VW55x_standard_peripheral/Source/gd32vw55x_timer.c ****         /* set the CH0P bit */
 684:../Firmware/GD32VW55x_standard_peripheral/Source/gd32vw55x_timer.c ****         TIMER_CHCTL2(timer_periph) |= (uint32_t)ocpara->ocpolarity;
 685:../Firmware/GD32VW55x_standard_peripheral/Source/gd32vw55x_timer.c **** 
 686:../Firmware/GD32VW55x_standard_peripheral/Source/gd32vw55x_timer.c ****         if((TIMER0 == timer_periph) || (TIMER15 == timer_periph) || (TIMER16 == timer_periph)){
 687:../Firmware/GD32VW55x_standard_peripheral/Source/gd32vw55x_timer.c ****             /* reset the CH0NEN bit */
 688:../Firmware/GD32VW55x_standard_peripheral/Source/gd32vw55x_timer.c ****             TIMER_CHCTL2(timer_periph) &= (~(uint32_t)TIMER_CHCTL2_CH0NEN);
 689:../Firmware/GD32VW55x_standard_peripheral/Source/gd32vw55x_timer.c ****             /* set the CH0NEN bit */
 690:../Firmware/GD32VW55x_standard_peripheral/Source/gd32vw55x_timer.c ****             TIMER_CHCTL2(timer_periph) |= (uint32_t)ocpara->outputnstate;
 691:../Firmware/GD32VW55x_standard_peripheral/Source/gd32vw55x_timer.c ****             /* reset the CH0NP bit */
 692:../Firmware/GD32VW55x_standard_peripheral/Source/gd32vw55x_timer.c ****             TIMER_CHCTL2(timer_periph) &= (~(uint32_t)TIMER_CHCTL2_CH0NP);
 693:../Firmware/GD32VW55x_standard_peripheral/Source/gd32vw55x_timer.c ****             /* set the CH0NP bit */
 694:../Firmware/GD32VW55x_standard_peripheral/Source/gd32vw55x_timer.c ****             TIMER_CHCTL2(timer_periph) |= (uint32_t)ocpara->ocnpolarity;
 695:../Firmware/GD32VW55x_standard_peripheral/Source/gd32vw55x_timer.c ****             /* reset the ISO0 bit */
 696:../Firmware/GD32VW55x_standard_peripheral/Source/gd32vw55x_timer.c ****             TIMER_CTL1(timer_periph) &= (~(uint32_t)TIMER_CTL1_ISO0);
 697:../Firmware/GD32VW55x_standard_peripheral/Source/gd32vw55x_timer.c ****             /* set the ISO0 bit */
 698:../Firmware/GD32VW55x_standard_peripheral/Source/gd32vw55x_timer.c ****             TIMER_CTL1(timer_periph) |= (uint32_t)ocpara->ocidlestate;
 699:../Firmware/GD32VW55x_standard_peripheral/Source/gd32vw55x_timer.c ****             /* reset the ISO0N bit */
 700:../Firmware/GD32VW55x_standard_peripheral/Source/gd32vw55x_timer.c ****             TIMER_CTL1(timer_periph) &= (~(uint32_t)TIMER_CTL1_ISO0N);
 701:../Firmware/GD32VW55x_standard_peripheral/Source/gd32vw55x_timer.c ****             /* set the ISO0N bit */
 702:../Firmware/GD32VW55x_standard_peripheral/Source/gd32vw55x_timer.c ****             TIMER_CTL1(timer_periph) |= (uint32_t)ocpara->ocnidlestate;
 703:../Firmware/GD32VW55x_standard_peripheral/Source/gd32vw55x_timer.c ****         }
 704:../Firmware/GD32VW55x_standard_peripheral/Source/gd32vw55x_timer.c ****         break;
 705:../Firmware/GD32VW55x_standard_peripheral/Source/gd32vw55x_timer.c ****     /* configure TIMER_CH_1 */
 706:../Firmware/GD32VW55x_standard_peripheral/Source/gd32vw55x_timer.c ****     case TIMER_CH_1:
 707:../Firmware/GD32VW55x_standard_peripheral/Source/gd32vw55x_timer.c ****         /* reset the CH1EN bit */
 708:../Firmware/GD32VW55x_standard_peripheral/Source/gd32vw55x_timer.c ****         TIMER_CHCTL2(timer_periph) &= (~(uint32_t)TIMER_CHCTL2_CH1EN);
 709:../Firmware/GD32VW55x_standard_peripheral/Source/gd32vw55x_timer.c ****         TIMER_CHCTL0(timer_periph) &= ~(uint32_t)TIMER_CHCTL0_CH1MS;
 710:../Firmware/GD32VW55x_standard_peripheral/Source/gd32vw55x_timer.c ****         /* set the CH1EN bit */
 711:../Firmware/GD32VW55x_standard_peripheral/Source/gd32vw55x_timer.c ****         TIMER_CHCTL2(timer_periph) |= (uint32_t)((uint32_t)(ocpara->outputstate) << 4U);
 712:../Firmware/GD32VW55x_standard_peripheral/Source/gd32vw55x_timer.c ****         /* reset the CH1P bit */
 713:../Firmware/GD32VW55x_standard_peripheral/Source/gd32vw55x_timer.c ****         TIMER_CHCTL2(timer_periph) &= (~(uint32_t)TIMER_CHCTL2_CH1P);
 714:../Firmware/GD32VW55x_standard_peripheral/Source/gd32vw55x_timer.c ****         /* set the CH1P bit */
 715:../Firmware/GD32VW55x_standard_peripheral/Source/gd32vw55x_timer.c ****         TIMER_CHCTL2(timer_periph) |= (uint32_t)((uint32_t)(ocpara->ocpolarity) << 4U);
 716:../Firmware/GD32VW55x_standard_peripheral/Source/gd32vw55x_timer.c **** 
 717:../Firmware/GD32VW55x_standard_peripheral/Source/gd32vw55x_timer.c ****         if(TIMER0 == timer_periph){
 718:../Firmware/GD32VW55x_standard_peripheral/Source/gd32vw55x_timer.c ****             /* reset the CH1NEN bit */
 719:../Firmware/GD32VW55x_standard_peripheral/Source/gd32vw55x_timer.c ****             TIMER_CHCTL2(timer_periph) &= (~(uint32_t)TIMER_CHCTL2_CH1NEN);
 720:../Firmware/GD32VW55x_standard_peripheral/Source/gd32vw55x_timer.c ****             /* set the CH1NEN bit */
 721:../Firmware/GD32VW55x_standard_peripheral/Source/gd32vw55x_timer.c ****             TIMER_CHCTL2(timer_periph) |= (uint32_t)((uint32_t)(ocpara->outputnstate) << 4U);
 722:../Firmware/GD32VW55x_standard_peripheral/Source/gd32vw55x_timer.c ****             /* reset the CH1NP bit */
 723:../Firmware/GD32VW55x_standard_peripheral/Source/gd32vw55x_timer.c ****             TIMER_CHCTL2(timer_periph) &= (~(uint32_t)TIMER_CHCTL2_CH1NP);
 724:../Firmware/GD32VW55x_standard_peripheral/Source/gd32vw55x_timer.c ****             /* set the CH1NP bit */
 725:../Firmware/GD32VW55x_standard_peripheral/Source/gd32vw55x_timer.c ****             TIMER_CHCTL2(timer_periph) |= (uint32_t)((uint32_t)(ocpara->ocnpolarity) << 4U);
 726:../Firmware/GD32VW55x_standard_peripheral/Source/gd32vw55x_timer.c ****             /* reset the ISO1 bit */
 727:../Firmware/GD32VW55x_standard_peripheral/Source/gd32vw55x_timer.c ****             TIMER_CTL1(timer_periph) &= (~(uint32_t)TIMER_CTL1_ISO1);
 728:../Firmware/GD32VW55x_standard_peripheral/Source/gd32vw55x_timer.c ****             /* set the ISO1 bit */
 729:../Firmware/GD32VW55x_standard_peripheral/Source/gd32vw55x_timer.c ****             TIMER_CTL1(timer_periph) |= (uint32_t)((uint32_t)(ocpara->ocidlestate) << 2U);
 730:../Firmware/GD32VW55x_standard_peripheral/Source/gd32vw55x_timer.c ****             /* reset the ISO1N bit */
 731:../Firmware/GD32VW55x_standard_peripheral/Source/gd32vw55x_timer.c ****             TIMER_CTL1(timer_periph) &= (~(uint32_t)TIMER_CTL1_ISO1N);
 732:../Firmware/GD32VW55x_standard_peripheral/Source/gd32vw55x_timer.c ****             /* set the ISO1N bit */
 733:../Firmware/GD32VW55x_standard_peripheral/Source/gd32vw55x_timer.c ****             TIMER_CTL1(timer_periph) |= (uint32_t)((uint32_t)(ocpara->ocnidlestate) << 2U);
 734:../Firmware/GD32VW55x_standard_peripheral/Source/gd32vw55x_timer.c ****         }
 735:../Firmware/GD32VW55x_standard_peripheral/Source/gd32vw55x_timer.c ****         break;
 736:../Firmware/GD32VW55x_standard_peripheral/Source/gd32vw55x_timer.c ****     /* configure TIMER_CH_2 */
 737:../Firmware/GD32VW55x_standard_peripheral/Source/gd32vw55x_timer.c ****     case TIMER_CH_2:
 738:../Firmware/GD32VW55x_standard_peripheral/Source/gd32vw55x_timer.c ****         /* reset the CH2EN bit */
 739:../Firmware/GD32VW55x_standard_peripheral/Source/gd32vw55x_timer.c ****         TIMER_CHCTL2(timer_periph) &= (~(uint32_t)TIMER_CHCTL2_CH2EN);
 740:../Firmware/GD32VW55x_standard_peripheral/Source/gd32vw55x_timer.c ****         TIMER_CHCTL1(timer_periph) &= ~(uint32_t)TIMER_CHCTL1_CH2MS;
 741:../Firmware/GD32VW55x_standard_peripheral/Source/gd32vw55x_timer.c ****         /* set the CH2EN bit */
 742:../Firmware/GD32VW55x_standard_peripheral/Source/gd32vw55x_timer.c ****         TIMER_CHCTL2(timer_periph) |= (uint32_t)((uint32_t)(ocpara->outputstate) << 8U);
 743:../Firmware/GD32VW55x_standard_peripheral/Source/gd32vw55x_timer.c ****         /* reset the CH2P bit */
 744:../Firmware/GD32VW55x_standard_peripheral/Source/gd32vw55x_timer.c ****         TIMER_CHCTL2(timer_periph) &= (~(uint32_t)TIMER_CHCTL2_CH2P);
 745:../Firmware/GD32VW55x_standard_peripheral/Source/gd32vw55x_timer.c ****         /* set the CH2P bit */
 746:../Firmware/GD32VW55x_standard_peripheral/Source/gd32vw55x_timer.c ****         TIMER_CHCTL2(timer_periph) |= (uint32_t)((uint32_t)(ocpara->ocpolarity) << 8U);
 747:../Firmware/GD32VW55x_standard_peripheral/Source/gd32vw55x_timer.c **** 
 748:../Firmware/GD32VW55x_standard_peripheral/Source/gd32vw55x_timer.c ****         if(TIMER0 == timer_periph){
 749:../Firmware/GD32VW55x_standard_peripheral/Source/gd32vw55x_timer.c ****             /* reset the CH2NEN bit */
 750:../Firmware/GD32VW55x_standard_peripheral/Source/gd32vw55x_timer.c ****             TIMER_CHCTL2(timer_periph) &= (~(uint32_t)TIMER_CHCTL2_CH2NEN);
 751:../Firmware/GD32VW55x_standard_peripheral/Source/gd32vw55x_timer.c ****             /* set the CH2NEN bit */
 752:../Firmware/GD32VW55x_standard_peripheral/Source/gd32vw55x_timer.c ****             TIMER_CHCTL2(timer_periph) |= (uint32_t)((uint32_t)(ocpara->outputnstate) << 8U);
 753:../Firmware/GD32VW55x_standard_peripheral/Source/gd32vw55x_timer.c ****             /* reset the CH2NP bit */
 754:../Firmware/GD32VW55x_standard_peripheral/Source/gd32vw55x_timer.c ****             TIMER_CHCTL2(timer_periph) &= (~(uint32_t)TIMER_CHCTL2_CH2NP);
 755:../Firmware/GD32VW55x_standard_peripheral/Source/gd32vw55x_timer.c ****             /* set the CH2NP bit */
 756:../Firmware/GD32VW55x_standard_peripheral/Source/gd32vw55x_timer.c ****             TIMER_CHCTL2(timer_periph) |= (uint32_t)((uint32_t)(ocpara->ocnpolarity) << 8U);
 757:../Firmware/GD32VW55x_standard_peripheral/Source/gd32vw55x_timer.c ****             /* reset the ISO2 bit */
 758:../Firmware/GD32VW55x_standard_peripheral/Source/gd32vw55x_timer.c ****             TIMER_CTL1(timer_periph) &= (~(uint32_t)TIMER_CTL1_ISO2);
 759:../Firmware/GD32VW55x_standard_peripheral/Source/gd32vw55x_timer.c ****             /* set the ISO2 bit */
 760:../Firmware/GD32VW55x_standard_peripheral/Source/gd32vw55x_timer.c ****             TIMER_CTL1(timer_periph) |= (uint32_t)((uint32_t)(ocpara->ocidlestate) << 4U);
 761:../Firmware/GD32VW55x_standard_peripheral/Source/gd32vw55x_timer.c ****             /* reset the ISO2N bit */
 762:../Firmware/GD32VW55x_standard_peripheral/Source/gd32vw55x_timer.c ****             TIMER_CTL1(timer_periph) &= (~(uint32_t)TIMER_CTL1_ISO2N);
 763:../Firmware/GD32VW55x_standard_peripheral/Source/gd32vw55x_timer.c ****             /* set the ISO2N bit */
 764:../Firmware/GD32VW55x_standard_peripheral/Source/gd32vw55x_timer.c ****             TIMER_CTL1(timer_periph) |= (uint32_t)((uint32_t)(ocpara->ocnidlestate) << 4U);
 765:../Firmware/GD32VW55x_standard_peripheral/Source/gd32vw55x_timer.c ****         }
 766:../Firmware/GD32VW55x_standard_peripheral/Source/gd32vw55x_timer.c ****         break;
 767:../Firmware/GD32VW55x_standard_peripheral/Source/gd32vw55x_timer.c ****     /* configure TIMER_CH_3 */
 768:../Firmware/GD32VW55x_standard_peripheral/Source/gd32vw55x_timer.c ****     case TIMER_CH_3:
 769:../Firmware/GD32VW55x_standard_peripheral/Source/gd32vw55x_timer.c ****         /* reset the CH3EN bit */
 770:../Firmware/GD32VW55x_standard_peripheral/Source/gd32vw55x_timer.c ****         TIMER_CHCTL2(timer_periph) &=(~(uint32_t)TIMER_CHCTL2_CH3EN);
 771:../Firmware/GD32VW55x_standard_peripheral/Source/gd32vw55x_timer.c ****         TIMER_CHCTL1(timer_periph) &= ~(uint32_t)TIMER_CHCTL1_CH3MS;
 772:../Firmware/GD32VW55x_standard_peripheral/Source/gd32vw55x_timer.c ****         /* set the CH3EN bit */
 773:../Firmware/GD32VW55x_standard_peripheral/Source/gd32vw55x_timer.c ****         TIMER_CHCTL2(timer_periph) |= (uint32_t)((uint32_t)(ocpara->outputstate) << 12U);
 774:../Firmware/GD32VW55x_standard_peripheral/Source/gd32vw55x_timer.c ****         /* reset the CH3P bit */
 775:../Firmware/GD32VW55x_standard_peripheral/Source/gd32vw55x_timer.c ****         TIMER_CHCTL2(timer_periph) &= (~(uint32_t)TIMER_CHCTL2_CH3P);
 776:../Firmware/GD32VW55x_standard_peripheral/Source/gd32vw55x_timer.c ****         /* set the CH3P bit */
 777:../Firmware/GD32VW55x_standard_peripheral/Source/gd32vw55x_timer.c ****         TIMER_CHCTL2(timer_periph) |= (uint32_t)((uint32_t)(ocpara->ocpolarity) << 12U);
 778:../Firmware/GD32VW55x_standard_peripheral/Source/gd32vw55x_timer.c **** 
 779:../Firmware/GD32VW55x_standard_peripheral/Source/gd32vw55x_timer.c ****         if(TIMER0 == timer_periph){
 780:../Firmware/GD32VW55x_standard_peripheral/Source/gd32vw55x_timer.c ****             /* reset the ISO3 bit */
 781:../Firmware/GD32VW55x_standard_peripheral/Source/gd32vw55x_timer.c ****             TIMER_CTL1(timer_periph) &= (~(uint32_t)TIMER_CTL1_ISO3);
 782:../Firmware/GD32VW55x_standard_peripheral/Source/gd32vw55x_timer.c ****             /* set the ISO3 bit */
 783:../Firmware/GD32VW55x_standard_peripheral/Source/gd32vw55x_timer.c ****             TIMER_CTL1(timer_periph) |= (uint32_t)((uint32_t)(ocpara->ocidlestate) << 6U);
 784:../Firmware/GD32VW55x_standard_peripheral/Source/gd32vw55x_timer.c ****         }
 785:../Firmware/GD32VW55x_standard_peripheral/Source/gd32vw55x_timer.c ****         break;
 786:../Firmware/GD32VW55x_standard_peripheral/Source/gd32vw55x_timer.c ****     default:
 787:../Firmware/GD32VW55x_standard_peripheral/Source/gd32vw55x_timer.c ****         break;
 1682              		.loc 1 787 9
 1683 0038 39A3     		j	.L84
 1684              	.L76:
 677:../Firmware/GD32VW55x_standard_peripheral/Source/gd32vw55x_timer.c ****         TIMER_CHCTL0(timer_periph) &= ~(uint32_t)TIMER_CHCTL0_CH0MS;
 1685              		.loc 1 677 36
 1686 003a 8327C4FE 		lw	a5,-20(s0)
 1687 003e 93870702 		addi	a5,a5,32
 1688 0042 9C43     		lw	a5,0(a5)
 1689 0044 0327C4FE 		lw	a4,-20(s0)
 1690 0048 13070702 		addi	a4,a4,32
 1691 004c F99B     		andi	a5,a5,-2
 1692 004e 1CC3     		sw	a5,0(a4)
 678:../Firmware/GD32VW55x_standard_peripheral/Source/gd32vw55x_timer.c ****         /* set the CH0EN bit */
 1693              		.loc 1 678 36
 1694 0050 8327C4FE 		lw	a5,-20(s0)
 1695 0054 E107     		addi	a5,a5,24
 1696 0056 9C43     		lw	a5,0(a5)
 1697 0058 0327C4FE 		lw	a4,-20(s0)
 1698 005c 6107     		addi	a4,a4,24
 1699 005e F19B     		andi	a5,a5,-4
 1700 0060 1CC3     		sw	a5,0(a4)
 680:../Firmware/GD32VW55x_standard_peripheral/Source/gd32vw55x_timer.c ****         /* reset the CH0P bit */
 1701              		.loc 1 680 36
 1702 0062 8327C4FE 		lw	a5,-20(s0)
 1703 0066 93870702 		addi	a5,a5,32
 1704 006a 9843     		lw	a4,0(a5)
 680:../Firmware/GD32VW55x_standard_peripheral/Source/gd32vw55x_timer.c ****         /* reset the CH0P bit */
 1705              		.loc 1 680 55
 1706 006c 832744FE 		lw	a5,-28(s0)
 1707 0070 9C43     		lw	a5,0(a5)
 680:../Firmware/GD32VW55x_standard_peripheral/Source/gd32vw55x_timer.c ****         /* reset the CH0P bit */
 1708              		.loc 1 680 36
 1709 0072 8326C4FE 		lw	a3,-20(s0)
 1710 0076 93860602 		addi	a3,a3,32
 1711 007a D98F     		or	a5,a4,a5
 1712 007c 9CC2     		sw	a5,0(a3)
 682:../Firmware/GD32VW55x_standard_peripheral/Source/gd32vw55x_timer.c ****         /* set the CH0P bit */
 1713              		.loc 1 682 36
 1714 007e 8327C4FE 		lw	a5,-20(s0)
 1715 0082 93870702 		addi	a5,a5,32
 1716 0086 9C43     		lw	a5,0(a5)
 1717 0088 0327C4FE 		lw	a4,-20(s0)
 1718 008c 13070702 		addi	a4,a4,32
 1719 0090 F59B     		andi	a5,a5,-3
 1720 0092 1CC3     		sw	a5,0(a4)
 684:../Firmware/GD32VW55x_standard_peripheral/Source/gd32vw55x_timer.c **** 
 1721              		.loc 1 684 36
 1722 0094 8327C4FE 		lw	a5,-20(s0)
 1723 0098 93870702 		addi	a5,a5,32
 1724 009c 9C43     		lw	a5,0(a5)
 684:../Firmware/GD32VW55x_standard_peripheral/Source/gd32vw55x_timer.c **** 
 1725              		.loc 1 684 55
 1726 009e 032744FE 		lw	a4,-28(s0)
 1727 00a2 03576700 		lhu	a4,6(a4)
 684:../Firmware/GD32VW55x_standard_peripheral/Source/gd32vw55x_timer.c **** 
 1728              		.loc 1 684 39
 1729 00a6 BA86     		mv	a3,a4
 684:../Firmware/GD32VW55x_standard_peripheral/Source/gd32vw55x_timer.c **** 
 1730              		.loc 1 684 36
 1731 00a8 0327C4FE 		lw	a4,-20(s0)
 1732 00ac 13070702 		addi	a4,a4,32
 1733 00b0 D58F     		or	a5,a5,a3
 1734 00b2 1CC3     		sw	a5,0(a4)
 686:../Firmware/GD32VW55x_standard_peripheral/Source/gd32vw55x_timer.c ****             /* reset the CH0NEN bit */
 1735              		.loc 1 686 11
 1736 00b4 0327C4FE 		lw	a4,-20(s0)
 1737 00b8 B7070140 		li	a5,1073807360
 1738 00bc 6300F702 		beq	a4,a5,.L78
 686:../Firmware/GD32VW55x_standard_peripheral/Source/gd32vw55x_timer.c ****             /* reset the CH0NEN bit */
 1739              		.loc 1 686 37 discriminator 1
 1740 00c0 0327C4FE 		lw	a4,-20(s0)
 1741 00c4 B7870140 		li	a5,1073840128
 1742 00c8 630AF700 		beq	a4,a5,.L78
 686:../Firmware/GD32VW55x_standard_peripheral/Source/gd32vw55x_timer.c ****             /* reset the CH0NEN bit */
 1743              		.loc 1 686 66 discriminator 2
 1744 00cc 0327C4FE 		lw	a4,-20(s0)
 1745 00d0 B7870140 		li	a5,1073840128
 1746 00d4 93870740 		addi	a5,a5,1024
 1747 00d8 6319F746 		bne	a4,a5,.L85
 1748              	.L78:
 688:../Firmware/GD32VW55x_standard_peripheral/Source/gd32vw55x_timer.c ****             /* set the CH0NEN bit */
 1749              		.loc 1 688 40
 1750 00dc 8327C4FE 		lw	a5,-20(s0)
 1751 00e0 93870702 		addi	a5,a5,32
 1752 00e4 9C43     		lw	a5,0(a5)
 1753 00e6 0327C4FE 		lw	a4,-20(s0)
 1754 00ea 13070702 		addi	a4,a4,32
 1755 00ee ED9B     		andi	a5,a5,-5
 1756 00f0 1CC3     		sw	a5,0(a4)
 690:../Firmware/GD32VW55x_standard_peripheral/Source/gd32vw55x_timer.c ****             /* reset the CH0NP bit */
 1757              		.loc 1 690 40
 1758 00f2 8327C4FE 		lw	a5,-20(s0)
 1759 00f6 93870702 		addi	a5,a5,32
 1760 00fa 9C43     		lw	a5,0(a5)
 690:../Firmware/GD32VW55x_standard_peripheral/Source/gd32vw55x_timer.c ****             /* reset the CH0NP bit */
 1761              		.loc 1 690 59
 1762 00fc 032744FE 		lw	a4,-28(s0)
 1763 0100 03574700 		lhu	a4,4(a4)
 690:../Firmware/GD32VW55x_standard_peripheral/Source/gd32vw55x_timer.c ****             /* reset the CH0NP bit */
 1764              		.loc 1 690 43
 1765 0104 BA86     		mv	a3,a4
 690:../Firmware/GD32VW55x_standard_peripheral/Source/gd32vw55x_timer.c ****             /* reset the CH0NP bit */
 1766              		.loc 1 690 40
 1767 0106 0327C4FE 		lw	a4,-20(s0)
 1768 010a 13070702 		addi	a4,a4,32
 1769 010e D58F     		or	a5,a5,a3
 1770 0110 1CC3     		sw	a5,0(a4)
 692:../Firmware/GD32VW55x_standard_peripheral/Source/gd32vw55x_timer.c ****             /* set the CH0NP bit */
 1771              		.loc 1 692 40
 1772 0112 8327C4FE 		lw	a5,-20(s0)
 1773 0116 93870702 		addi	a5,a5,32
 1774 011a 9C43     		lw	a5,0(a5)
 1775 011c 0327C4FE 		lw	a4,-20(s0)
 1776 0120 13070702 		addi	a4,a4,32
 1777 0124 DD9B     		andi	a5,a5,-9
 1778 0126 1CC3     		sw	a5,0(a4)
 694:../Firmware/GD32VW55x_standard_peripheral/Source/gd32vw55x_timer.c ****             /* reset the ISO0 bit */
 1779              		.loc 1 694 40
 1780 0128 8327C4FE 		lw	a5,-20(s0)
 1781 012c 93870702 		addi	a5,a5,32
 1782 0130 9C43     		lw	a5,0(a5)
 694:../Firmware/GD32VW55x_standard_peripheral/Source/gd32vw55x_timer.c ****             /* reset the ISO0 bit */
 1783              		.loc 1 694 59
 1784 0132 032744FE 		lw	a4,-28(s0)
 1785 0136 03578700 		lhu	a4,8(a4)
 694:../Firmware/GD32VW55x_standard_peripheral/Source/gd32vw55x_timer.c ****             /* reset the ISO0 bit */
 1786              		.loc 1 694 43
 1787 013a BA86     		mv	a3,a4
 694:../Firmware/GD32VW55x_standard_peripheral/Source/gd32vw55x_timer.c ****             /* reset the ISO0 bit */
 1788              		.loc 1 694 40
 1789 013c 0327C4FE 		lw	a4,-20(s0)
 1790 0140 13070702 		addi	a4,a4,32
 1791 0144 D58F     		or	a5,a5,a3
 1792 0146 1CC3     		sw	a5,0(a4)
 696:../Firmware/GD32VW55x_standard_peripheral/Source/gd32vw55x_timer.c ****             /* set the ISO0 bit */
 1793              		.loc 1 696 38
 1794 0148 8327C4FE 		lw	a5,-20(s0)
 1795 014c 9107     		addi	a5,a5,4
 1796 014e 9C43     		lw	a5,0(a5)
 1797 0150 0327C4FE 		lw	a4,-20(s0)
 1798 0154 1107     		addi	a4,a4,4
 1799 0156 93F7F7EF 		andi	a5,a5,-257
 1800 015a 1CC3     		sw	a5,0(a4)
 698:../Firmware/GD32VW55x_standard_peripheral/Source/gd32vw55x_timer.c ****             /* reset the ISO0N bit */
 1801              		.loc 1 698 38
 1802 015c 8327C4FE 		lw	a5,-20(s0)
 1803 0160 9107     		addi	a5,a5,4
 1804 0162 9C43     		lw	a5,0(a5)
 698:../Firmware/GD32VW55x_standard_peripheral/Source/gd32vw55x_timer.c ****             /* reset the ISO0N bit */
 1805              		.loc 1 698 57
 1806 0164 032744FE 		lw	a4,-28(s0)
 1807 0168 0357A700 		lhu	a4,10(a4)
 698:../Firmware/GD32VW55x_standard_peripheral/Source/gd32vw55x_timer.c ****             /* reset the ISO0N bit */
 1808              		.loc 1 698 41
 1809 016c BA86     		mv	a3,a4
 698:../Firmware/GD32VW55x_standard_peripheral/Source/gd32vw55x_timer.c ****             /* reset the ISO0N bit */
 1810              		.loc 1 698 38
 1811 016e 0327C4FE 		lw	a4,-20(s0)
 1812 0172 1107     		addi	a4,a4,4
 1813 0174 D58F     		or	a5,a5,a3
 1814 0176 1CC3     		sw	a5,0(a4)
 700:../Firmware/GD32VW55x_standard_peripheral/Source/gd32vw55x_timer.c ****             /* set the ISO0N bit */
 1815              		.loc 1 700 38
 1816 0178 8327C4FE 		lw	a5,-20(s0)
 1817 017c 9107     		addi	a5,a5,4
 1818 017e 9C43     		lw	a5,0(a5)
 1819 0180 0327C4FE 		lw	a4,-20(s0)
 1820 0184 1107     		addi	a4,a4,4
 1821 0186 93F7F7DF 		andi	a5,a5,-513
 1822 018a 1CC3     		sw	a5,0(a4)
 702:../Firmware/GD32VW55x_standard_peripheral/Source/gd32vw55x_timer.c ****         }
 1823              		.loc 1 702 38
 1824 018c 8327C4FE 		lw	a5,-20(s0)
 1825 0190 9107     		addi	a5,a5,4
 1826 0192 9C43     		lw	a5,0(a5)
 702:../Firmware/GD32VW55x_standard_peripheral/Source/gd32vw55x_timer.c ****         }
 1827              		.loc 1 702 57
 1828 0194 032744FE 		lw	a4,-28(s0)
 1829 0198 0357C700 		lhu	a4,12(a4)
 702:../Firmware/GD32VW55x_standard_peripheral/Source/gd32vw55x_timer.c ****         }
 1830              		.loc 1 702 41
 1831 019c BA86     		mv	a3,a4
 702:../Firmware/GD32VW55x_standard_peripheral/Source/gd32vw55x_timer.c ****         }
 1832              		.loc 1 702 38
 1833 019e 0327C4FE 		lw	a4,-20(s0)
 1834 01a2 1107     		addi	a4,a4,4
 1835 01a4 D58F     		or	a5,a5,a3
 1836 01a6 1CC3     		sw	a5,0(a4)
 704:../Firmware/GD32VW55x_standard_peripheral/Source/gd32vw55x_timer.c ****     /* configure TIMER_CH_1 */
 1837              		.loc 1 704 9
 1838 01a8 4DA6     		j	.L85
 1839              	.L77:
 708:../Firmware/GD32VW55x_standard_peripheral/Source/gd32vw55x_timer.c ****         TIMER_CHCTL0(timer_periph) &= ~(uint32_t)TIMER_CHCTL0_CH1MS;
 1840              		.loc 1 708 36
 1841 01aa 8327C4FE 		lw	a5,-20(s0)
 1842 01ae 93870702 		addi	a5,a5,32
 1843 01b2 9C43     		lw	a5,0(a5)
 1844 01b4 0327C4FE 		lw	a4,-20(s0)
 1845 01b8 13070702 		addi	a4,a4,32
 1846 01bc BD9B     		andi	a5,a5,-17
 1847 01be 1CC3     		sw	a5,0(a4)
 709:../Firmware/GD32VW55x_standard_peripheral/Source/gd32vw55x_timer.c ****         /* set the CH1EN bit */
 1848              		.loc 1 709 36
 1849 01c0 8327C4FE 		lw	a5,-20(s0)
 1850 01c4 E107     		addi	a5,a5,24
 1851 01c6 9C43     		lw	a5,0(a5)
 1852 01c8 0327C4FE 		lw	a4,-20(s0)
 1853 01cc 6107     		addi	a4,a4,24
 1854 01ce 93F7F7CF 		andi	a5,a5,-769
 1855 01d2 1CC3     		sw	a5,0(a4)
 711:../Firmware/GD32VW55x_standard_peripheral/Source/gd32vw55x_timer.c ****         /* reset the CH1P bit */
 1856              		.loc 1 711 36
 1857 01d4 8327C4FE 		lw	a5,-20(s0)
 1858 01d8 93870702 		addi	a5,a5,32
 1859 01dc 9843     		lw	a4,0(a5)
 711:../Firmware/GD32VW55x_standard_peripheral/Source/gd32vw55x_timer.c ****         /* reset the CH1P bit */
 1860              		.loc 1 711 67
 1861 01de 832744FE 		lw	a5,-28(s0)
 1862 01e2 9C43     		lw	a5,0(a5)
 711:../Firmware/GD32VW55x_standard_peripheral/Source/gd32vw55x_timer.c ****         /* reset the CH1P bit */
 1863              		.loc 1 711 39
 1864 01e4 9207     		slli	a5,a5,4
 711:../Firmware/GD32VW55x_standard_peripheral/Source/gd32vw55x_timer.c ****         /* reset the CH1P bit */
 1865              		.loc 1 711 36
 1866 01e6 8326C4FE 		lw	a3,-20(s0)
 1867 01ea 93860602 		addi	a3,a3,32
 1868 01ee D98F     		or	a5,a4,a5
 1869 01f0 9CC2     		sw	a5,0(a3)
 713:../Firmware/GD32VW55x_standard_peripheral/Source/gd32vw55x_timer.c ****         /* set the CH1P bit */
 1870              		.loc 1 713 36
 1871 01f2 8327C4FE 		lw	a5,-20(s0)
 1872 01f6 93870702 		addi	a5,a5,32
 1873 01fa 9C43     		lw	a5,0(a5)
 1874 01fc 0327C4FE 		lw	a4,-20(s0)
 1875 0200 13070702 		addi	a4,a4,32
 1876 0204 93F7F7FD 		andi	a5,a5,-33
 1877 0208 1CC3     		sw	a5,0(a4)
 715:../Firmware/GD32VW55x_standard_peripheral/Source/gd32vw55x_timer.c **** 
 1878              		.loc 1 715 36
 1879 020a 8327C4FE 		lw	a5,-20(s0)
 1880 020e 93870702 		addi	a5,a5,32
 1881 0212 9843     		lw	a4,0(a5)
 715:../Firmware/GD32VW55x_standard_peripheral/Source/gd32vw55x_timer.c **** 
 1882              		.loc 1 715 67
 1883 0214 832744FE 		lw	a5,-28(s0)
 1884 0218 83D76700 		lhu	a5,6(a5)
 715:../Firmware/GD32VW55x_standard_peripheral/Source/gd32vw55x_timer.c **** 
 1885              		.loc 1 715 39
 1886 021c 9207     		slli	a5,a5,4
 715:../Firmware/GD32VW55x_standard_peripheral/Source/gd32vw55x_timer.c **** 
 1887              		.loc 1 715 36
 1888 021e 8326C4FE 		lw	a3,-20(s0)
 1889 0222 93860602 		addi	a3,a3,32
 1890 0226 D98F     		or	a5,a4,a5
 1891 0228 9CC2     		sw	a5,0(a3)
 717:../Firmware/GD32VW55x_standard_peripheral/Source/gd32vw55x_timer.c ****             /* reset the CH1NEN bit */
 1892              		.loc 1 717 11
 1893 022a 0327C4FE 		lw	a4,-20(s0)
 1894 022e B7070140 		li	a5,1073807360
 1895 0232 631EF730 		bne	a4,a5,.L86
 719:../Firmware/GD32VW55x_standard_peripheral/Source/gd32vw55x_timer.c ****             /* set the CH1NEN bit */
 1896              		.loc 1 719 40
 1897 0236 8327C4FE 		lw	a5,-20(s0)
 1898 023a 93870702 		addi	a5,a5,32
 1899 023e 9C43     		lw	a5,0(a5)
 1900 0240 0327C4FE 		lw	a4,-20(s0)
 1901 0244 13070702 		addi	a4,a4,32
 1902 0248 93F7F7FB 		andi	a5,a5,-65
 1903 024c 1CC3     		sw	a5,0(a4)
 721:../Firmware/GD32VW55x_standard_peripheral/Source/gd32vw55x_timer.c ****             /* reset the CH1NP bit */
 1904              		.loc 1 721 40
 1905 024e 8327C4FE 		lw	a5,-20(s0)
 1906 0252 93870702 		addi	a5,a5,32
 1907 0256 9843     		lw	a4,0(a5)
 721:../Firmware/GD32VW55x_standard_peripheral/Source/gd32vw55x_timer.c ****             /* reset the CH1NP bit */
 1908              		.loc 1 721 71
 1909 0258 832744FE 		lw	a5,-28(s0)
 1910 025c 83D74700 		lhu	a5,4(a5)
 721:../Firmware/GD32VW55x_standard_peripheral/Source/gd32vw55x_timer.c ****             /* reset the CH1NP bit */
 1911              		.loc 1 721 43
 1912 0260 9207     		slli	a5,a5,4
 721:../Firmware/GD32VW55x_standard_peripheral/Source/gd32vw55x_timer.c ****             /* reset the CH1NP bit */
 1913              		.loc 1 721 40
 1914 0262 8326C4FE 		lw	a3,-20(s0)
 1915 0266 93860602 		addi	a3,a3,32
 1916 026a D98F     		or	a5,a4,a5
 1917 026c 9CC2     		sw	a5,0(a3)
 723:../Firmware/GD32VW55x_standard_peripheral/Source/gd32vw55x_timer.c ****             /* set the CH1NP bit */
 1918              		.loc 1 723 40
 1919 026e 8327C4FE 		lw	a5,-20(s0)
 1920 0272 93870702 		addi	a5,a5,32
 1921 0276 9C43     		lw	a5,0(a5)
 1922 0278 0327C4FE 		lw	a4,-20(s0)
 1923 027c 13070702 		addi	a4,a4,32
 1924 0280 93F7F7F7 		andi	a5,a5,-129
 1925 0284 1CC3     		sw	a5,0(a4)
 725:../Firmware/GD32VW55x_standard_peripheral/Source/gd32vw55x_timer.c ****             /* reset the ISO1 bit */
 1926              		.loc 1 725 40
 1927 0286 8327C4FE 		lw	a5,-20(s0)
 1928 028a 93870702 		addi	a5,a5,32
 1929 028e 9843     		lw	a4,0(a5)
 725:../Firmware/GD32VW55x_standard_peripheral/Source/gd32vw55x_timer.c ****             /* reset the ISO1 bit */
 1930              		.loc 1 725 71
 1931 0290 832744FE 		lw	a5,-28(s0)
 1932 0294 83D78700 		lhu	a5,8(a5)
 725:../Firmware/GD32VW55x_standard_peripheral/Source/gd32vw55x_timer.c ****             /* reset the ISO1 bit */
 1933              		.loc 1 725 43
 1934 0298 9207     		slli	a5,a5,4
 725:../Firmware/GD32VW55x_standard_peripheral/Source/gd32vw55x_timer.c ****             /* reset the ISO1 bit */
 1935              		.loc 1 725 40
 1936 029a 8326C4FE 		lw	a3,-20(s0)
 1937 029e 93860602 		addi	a3,a3,32
 1938 02a2 D98F     		or	a5,a4,a5
 1939 02a4 9CC2     		sw	a5,0(a3)
 727:../Firmware/GD32VW55x_standard_peripheral/Source/gd32vw55x_timer.c ****             /* set the ISO1 bit */
 1940              		.loc 1 727 38
 1941 02a6 8327C4FE 		lw	a5,-20(s0)
 1942 02aa 9107     		addi	a5,a5,4
 1943 02ac 9C43     		lw	a5,0(a5)
 1944 02ae 0327C4FE 		lw	a4,-20(s0)
 1945 02b2 1107     		addi	a4,a4,4
 1946 02b4 93F7F7BF 		andi	a5,a5,-1025
 1947 02b8 1CC3     		sw	a5,0(a4)
 729:../Firmware/GD32VW55x_standard_peripheral/Source/gd32vw55x_timer.c ****             /* reset the ISO1N bit */
 1948              		.loc 1 729 38
 1949 02ba 8327C4FE 		lw	a5,-20(s0)
 1950 02be 9107     		addi	a5,a5,4
 1951 02c0 9843     		lw	a4,0(a5)
 729:../Firmware/GD32VW55x_standard_peripheral/Source/gd32vw55x_timer.c ****             /* reset the ISO1N bit */
 1952              		.loc 1 729 69
 1953 02c2 832744FE 		lw	a5,-28(s0)
 1954 02c6 83D7A700 		lhu	a5,10(a5)
 729:../Firmware/GD32VW55x_standard_peripheral/Source/gd32vw55x_timer.c ****             /* reset the ISO1N bit */
 1955              		.loc 1 729 41
 1956 02ca 8A07     		slli	a5,a5,2
 729:../Firmware/GD32VW55x_standard_peripheral/Source/gd32vw55x_timer.c ****             /* reset the ISO1N bit */
 1957              		.loc 1 729 38
 1958 02cc 8326C4FE 		lw	a3,-20(s0)
 1959 02d0 9106     		addi	a3,a3,4
 1960 02d2 D98F     		or	a5,a4,a5
 1961 02d4 9CC2     		sw	a5,0(a3)
 731:../Firmware/GD32VW55x_standard_peripheral/Source/gd32vw55x_timer.c ****             /* set the ISO1N bit */
 1962              		.loc 1 731 38
 1963 02d6 8327C4FE 		lw	a5,-20(s0)
 1964 02da 9107     		addi	a5,a5,4
 1965 02dc 9843     		lw	a4,0(a5)
 1966 02de 8327C4FE 		lw	a5,-20(s0)
 1967 02e2 9107     		addi	a5,a5,4
 1968 02e4 BE86     		mv	a3,a5
 1969 02e6 FD77     		li	a5,-4096
 1970 02e8 9387F77F 		addi	a5,a5,2047
 1971 02ec F98F     		and	a5,a4,a5
 1972 02ee 9CC2     		sw	a5,0(a3)
 733:../Firmware/GD32VW55x_standard_peripheral/Source/gd32vw55x_timer.c ****         }
 1973              		.loc 1 733 38
 1974 02f0 8327C4FE 		lw	a5,-20(s0)
 1975 02f4 9107     		addi	a5,a5,4
 1976 02f6 9843     		lw	a4,0(a5)
 733:../Firmware/GD32VW55x_standard_peripheral/Source/gd32vw55x_timer.c ****         }
 1977              		.loc 1 733 69
 1978 02f8 832744FE 		lw	a5,-28(s0)
 1979 02fc 83D7C700 		lhu	a5,12(a5)
 733:../Firmware/GD32VW55x_standard_peripheral/Source/gd32vw55x_timer.c ****         }
 1980              		.loc 1 733 41
 1981 0300 8A07     		slli	a5,a5,2
 733:../Firmware/GD32VW55x_standard_peripheral/Source/gd32vw55x_timer.c ****         }
 1982              		.loc 1 733 38
 1983 0302 8326C4FE 		lw	a3,-20(s0)
 1984 0306 9106     		addi	a3,a3,4
 1985 0308 D98F     		or	a5,a4,a5
 1986 030a 9CC2     		sw	a5,0(a3)
 735:../Firmware/GD32VW55x_standard_peripheral/Source/gd32vw55x_timer.c ****     /* configure TIMER_CH_2 */
 1987              		.loc 1 735 9
 1988 030c 89A4     		j	.L86
 1989              	.L75:
 739:../Firmware/GD32VW55x_standard_peripheral/Source/gd32vw55x_timer.c ****         TIMER_CHCTL1(timer_periph) &= ~(uint32_t)TIMER_CHCTL1_CH2MS;
 1990              		.loc 1 739 36
 1991 030e 8327C4FE 		lw	a5,-20(s0)
 1992 0312 93870702 		addi	a5,a5,32
 1993 0316 9C43     		lw	a5,0(a5)
 1994 0318 0327C4FE 		lw	a4,-20(s0)
 1995 031c 13070702 		addi	a4,a4,32
 1996 0320 93F7F7EF 		andi	a5,a5,-257
 1997 0324 1CC3     		sw	a5,0(a4)
 740:../Firmware/GD32VW55x_standard_peripheral/Source/gd32vw55x_timer.c ****         /* set the CH2EN bit */
 1998              		.loc 1 740 36
 1999 0326 8327C4FE 		lw	a5,-20(s0)
 2000 032a F107     		addi	a5,a5,28
 2001 032c 9C43     		lw	a5,0(a5)
 2002 032e 0327C4FE 		lw	a4,-20(s0)
 2003 0332 7107     		addi	a4,a4,28
 2004 0334 F19B     		andi	a5,a5,-4
 2005 0336 1CC3     		sw	a5,0(a4)
 742:../Firmware/GD32VW55x_standard_peripheral/Source/gd32vw55x_timer.c ****         /* reset the CH2P bit */
 2006              		.loc 1 742 36
 2007 0338 8327C4FE 		lw	a5,-20(s0)
 2008 033c 93870702 		addi	a5,a5,32
 2009 0340 9843     		lw	a4,0(a5)
 742:../Firmware/GD32VW55x_standard_peripheral/Source/gd32vw55x_timer.c ****         /* reset the CH2P bit */
 2010              		.loc 1 742 67
 2011 0342 832744FE 		lw	a5,-28(s0)
 2012 0346 9C43     		lw	a5,0(a5)
 742:../Firmware/GD32VW55x_standard_peripheral/Source/gd32vw55x_timer.c ****         /* reset the CH2P bit */
 2013              		.loc 1 742 39
 2014 0348 A207     		slli	a5,a5,8
 742:../Firmware/GD32VW55x_standard_peripheral/Source/gd32vw55x_timer.c ****         /* reset the CH2P bit */
 2015              		.loc 1 742 36
 2016 034a 8326C4FE 		lw	a3,-20(s0)
 2017 034e 93860602 		addi	a3,a3,32
 2018 0352 D98F     		or	a5,a4,a5
 2019 0354 9CC2     		sw	a5,0(a3)
 744:../Firmware/GD32VW55x_standard_peripheral/Source/gd32vw55x_timer.c ****         /* set the CH2P bit */
 2020              		.loc 1 744 36
 2021 0356 8327C4FE 		lw	a5,-20(s0)
 2022 035a 93870702 		addi	a5,a5,32
 2023 035e 9C43     		lw	a5,0(a5)
 2024 0360 0327C4FE 		lw	a4,-20(s0)
 2025 0364 13070702 		addi	a4,a4,32
 2026 0368 93F7F7DF 		andi	a5,a5,-513
 2027 036c 1CC3     		sw	a5,0(a4)
 746:../Firmware/GD32VW55x_standard_peripheral/Source/gd32vw55x_timer.c **** 
 2028              		.loc 1 746 36
 2029 036e 8327C4FE 		lw	a5,-20(s0)
 2030 0372 93870702 		addi	a5,a5,32
 2031 0376 9843     		lw	a4,0(a5)
 746:../Firmware/GD32VW55x_standard_peripheral/Source/gd32vw55x_timer.c **** 
 2032              		.loc 1 746 67
 2033 0378 832744FE 		lw	a5,-28(s0)
 2034 037c 83D76700 		lhu	a5,6(a5)
 746:../Firmware/GD32VW55x_standard_peripheral/Source/gd32vw55x_timer.c **** 
 2035              		.loc 1 746 39
 2036 0380 A207     		slli	a5,a5,8
 746:../Firmware/GD32VW55x_standard_peripheral/Source/gd32vw55x_timer.c **** 
 2037              		.loc 1 746 36
 2038 0382 8326C4FE 		lw	a3,-20(s0)
 2039 0386 93860602 		addi	a3,a3,32
 2040 038a D98F     		or	a5,a4,a5
 2041 038c 9CC2     		sw	a5,0(a3)
 748:../Firmware/GD32VW55x_standard_peripheral/Source/gd32vw55x_timer.c ****             /* reset the CH2NEN bit */
 2042              		.loc 1 748 11
 2043 038e 0327C4FE 		lw	a4,-20(s0)
 2044 0392 B7070140 		li	a5,1073807360
 2045 0396 631EF71A 		bne	a4,a5,.L87
 750:../Firmware/GD32VW55x_standard_peripheral/Source/gd32vw55x_timer.c ****             /* set the CH2NEN bit */
 2046              		.loc 1 750 40
 2047 039a 8327C4FE 		lw	a5,-20(s0)
 2048 039e 93870702 		addi	a5,a5,32
 2049 03a2 9C43     		lw	a5,0(a5)
 2050 03a4 0327C4FE 		lw	a4,-20(s0)
 2051 03a8 13070702 		addi	a4,a4,32
 2052 03ac 93F7F7BF 		andi	a5,a5,-1025
 2053 03b0 1CC3     		sw	a5,0(a4)
 752:../Firmware/GD32VW55x_standard_peripheral/Source/gd32vw55x_timer.c ****             /* reset the CH2NP bit */
 2054              		.loc 1 752 40
 2055 03b2 8327C4FE 		lw	a5,-20(s0)
 2056 03b6 93870702 		addi	a5,a5,32
 2057 03ba 9843     		lw	a4,0(a5)
 752:../Firmware/GD32VW55x_standard_peripheral/Source/gd32vw55x_timer.c ****             /* reset the CH2NP bit */
 2058              		.loc 1 752 71
 2059 03bc 832744FE 		lw	a5,-28(s0)
 2060 03c0 83D74700 		lhu	a5,4(a5)
 752:../Firmware/GD32VW55x_standard_peripheral/Source/gd32vw55x_timer.c ****             /* reset the CH2NP bit */
 2061              		.loc 1 752 43
 2062 03c4 A207     		slli	a5,a5,8
 752:../Firmware/GD32VW55x_standard_peripheral/Source/gd32vw55x_timer.c ****             /* reset the CH2NP bit */
 2063              		.loc 1 752 40
 2064 03c6 8326C4FE 		lw	a3,-20(s0)
 2065 03ca 93860602 		addi	a3,a3,32
 2066 03ce D98F     		or	a5,a4,a5
 2067 03d0 9CC2     		sw	a5,0(a3)
 754:../Firmware/GD32VW55x_standard_peripheral/Source/gd32vw55x_timer.c ****             /* set the CH2NP bit */
 2068              		.loc 1 754 40
 2069 03d2 8327C4FE 		lw	a5,-20(s0)
 2070 03d6 93870702 		addi	a5,a5,32
 2071 03da 9843     		lw	a4,0(a5)
 2072 03dc 8327C4FE 		lw	a5,-20(s0)
 2073 03e0 93870702 		addi	a5,a5,32
 2074 03e4 BE86     		mv	a3,a5
 2075 03e6 FD77     		li	a5,-4096
 2076 03e8 9387F77F 		addi	a5,a5,2047
 2077 03ec F98F     		and	a5,a4,a5
 2078 03ee 9CC2     		sw	a5,0(a3)
 756:../Firmware/GD32VW55x_standard_peripheral/Source/gd32vw55x_timer.c ****             /* reset the ISO2 bit */
 2079              		.loc 1 756 40
 2080 03f0 8327C4FE 		lw	a5,-20(s0)
 2081 03f4 93870702 		addi	a5,a5,32
 2082 03f8 9843     		lw	a4,0(a5)
 756:../Firmware/GD32VW55x_standard_peripheral/Source/gd32vw55x_timer.c ****             /* reset the ISO2 bit */
 2083              		.loc 1 756 71
 2084 03fa 832744FE 		lw	a5,-28(s0)
 2085 03fe 83D78700 		lhu	a5,8(a5)
 756:../Firmware/GD32VW55x_standard_peripheral/Source/gd32vw55x_timer.c ****             /* reset the ISO2 bit */
 2086              		.loc 1 756 43
 2087 0402 A207     		slli	a5,a5,8
 756:../Firmware/GD32VW55x_standard_peripheral/Source/gd32vw55x_timer.c ****             /* reset the ISO2 bit */
 2088              		.loc 1 756 40
 2089 0404 8326C4FE 		lw	a3,-20(s0)
 2090 0408 93860602 		addi	a3,a3,32
 2091 040c D98F     		or	a5,a4,a5
 2092 040e 9CC2     		sw	a5,0(a3)
 758:../Firmware/GD32VW55x_standard_peripheral/Source/gd32vw55x_timer.c ****             /* set the ISO2 bit */
 2093              		.loc 1 758 38
 2094 0410 8327C4FE 		lw	a5,-20(s0)
 2095 0414 9107     		addi	a5,a5,4
 2096 0416 9843     		lw	a4,0(a5)
 2097 0418 8327C4FE 		lw	a5,-20(s0)
 2098 041c 9107     		addi	a5,a5,4
 2099 041e BE86     		mv	a3,a5
 2100 0420 FD77     		li	a5,-4096
 2101 0422 FD17     		addi	a5,a5,-1
 2102 0424 F98F     		and	a5,a4,a5
 2103 0426 9CC2     		sw	a5,0(a3)
 760:../Firmware/GD32VW55x_standard_peripheral/Source/gd32vw55x_timer.c ****             /* reset the ISO2N bit */
 2104              		.loc 1 760 38
 2105 0428 8327C4FE 		lw	a5,-20(s0)
 2106 042c 9107     		addi	a5,a5,4
 2107 042e 9843     		lw	a4,0(a5)
 760:../Firmware/GD32VW55x_standard_peripheral/Source/gd32vw55x_timer.c ****             /* reset the ISO2N bit */
 2108              		.loc 1 760 69
 2109 0430 832744FE 		lw	a5,-28(s0)
 2110 0434 83D7A700 		lhu	a5,10(a5)
 760:../Firmware/GD32VW55x_standard_peripheral/Source/gd32vw55x_timer.c ****             /* reset the ISO2N bit */
 2111              		.loc 1 760 41
 2112 0438 9207     		slli	a5,a5,4
 760:../Firmware/GD32VW55x_standard_peripheral/Source/gd32vw55x_timer.c ****             /* reset the ISO2N bit */
 2113              		.loc 1 760 38
 2114 043a 8326C4FE 		lw	a3,-20(s0)
 2115 043e 9106     		addi	a3,a3,4
 2116 0440 D98F     		or	a5,a4,a5
 2117 0442 9CC2     		sw	a5,0(a3)
 762:../Firmware/GD32VW55x_standard_peripheral/Source/gd32vw55x_timer.c ****             /* set the ISO2N bit */
 2118              		.loc 1 762 38
 2119 0444 8327C4FE 		lw	a5,-20(s0)
 2120 0448 9107     		addi	a5,a5,4
 2121 044a 9843     		lw	a4,0(a5)
 2122 044c 8327C4FE 		lw	a5,-20(s0)
 2123 0450 9107     		addi	a5,a5,4
 2124 0452 BE86     		mv	a3,a5
 2125 0454 F977     		li	a5,-8192
 2126 0456 FD17     		addi	a5,a5,-1
 2127 0458 F98F     		and	a5,a4,a5
 2128 045a 9CC2     		sw	a5,0(a3)
 764:../Firmware/GD32VW55x_standard_peripheral/Source/gd32vw55x_timer.c ****         }
 2129              		.loc 1 764 38
 2130 045c 8327C4FE 		lw	a5,-20(s0)
 2131 0460 9107     		addi	a5,a5,4
 2132 0462 9843     		lw	a4,0(a5)
 764:../Firmware/GD32VW55x_standard_peripheral/Source/gd32vw55x_timer.c ****         }
 2133              		.loc 1 764 69
 2134 0464 832744FE 		lw	a5,-28(s0)
 2135 0468 83D7C700 		lhu	a5,12(a5)
 764:../Firmware/GD32VW55x_standard_peripheral/Source/gd32vw55x_timer.c ****         }
 2136              		.loc 1 764 41
 2137 046c 9207     		slli	a5,a5,4
 764:../Firmware/GD32VW55x_standard_peripheral/Source/gd32vw55x_timer.c ****         }
 2138              		.loc 1 764 38
 2139 046e 8326C4FE 		lw	a3,-20(s0)
 2140 0472 9106     		addi	a3,a3,4
 2141 0474 D98F     		or	a5,a4,a5
 2142 0476 9CC2     		sw	a5,0(a3)
 766:../Firmware/GD32VW55x_standard_peripheral/Source/gd32vw55x_timer.c ****     /* configure TIMER_CH_3 */
 2143              		.loc 1 766 9
 2144 0478 E9A8     		j	.L87
 2145              	.L73:
 770:../Firmware/GD32VW55x_standard_peripheral/Source/gd32vw55x_timer.c ****         TIMER_CHCTL1(timer_periph) &= ~(uint32_t)TIMER_CHCTL1_CH3MS;
 2146              		.loc 1 770 36
 2147 047a 8327C4FE 		lw	a5,-20(s0)
 2148 047e 93870702 		addi	a5,a5,32
 2149 0482 9843     		lw	a4,0(a5)
 2150 0484 8327C4FE 		lw	a5,-20(s0)
 2151 0488 93870702 		addi	a5,a5,32
 2152 048c BE86     		mv	a3,a5
 2153 048e FD77     		li	a5,-4096
 2154 0490 FD17     		addi	a5,a5,-1
 2155 0492 F98F     		and	a5,a4,a5
 2156 0494 9CC2     		sw	a5,0(a3)
 771:../Firmware/GD32VW55x_standard_peripheral/Source/gd32vw55x_timer.c ****         /* set the CH3EN bit */
 2157              		.loc 1 771 36
 2158 0496 8327C4FE 		lw	a5,-20(s0)
 2159 049a F107     		addi	a5,a5,28
 2160 049c 9C43     		lw	a5,0(a5)
 2161 049e 0327C4FE 		lw	a4,-20(s0)
 2162 04a2 7107     		addi	a4,a4,28
 2163 04a4 93F7F7CF 		andi	a5,a5,-769
 2164 04a8 1CC3     		sw	a5,0(a4)
 773:../Firmware/GD32VW55x_standard_peripheral/Source/gd32vw55x_timer.c ****         /* reset the CH3P bit */
 2165              		.loc 1 773 36
 2166 04aa 8327C4FE 		lw	a5,-20(s0)
 2167 04ae 93870702 		addi	a5,a5,32
 2168 04b2 9843     		lw	a4,0(a5)
 773:../Firmware/GD32VW55x_standard_peripheral/Source/gd32vw55x_timer.c ****         /* reset the CH3P bit */
 2169              		.loc 1 773 67
 2170 04b4 832744FE 		lw	a5,-28(s0)
 2171 04b8 9C43     		lw	a5,0(a5)
 773:../Firmware/GD32VW55x_standard_peripheral/Source/gd32vw55x_timer.c ****         /* reset the CH3P bit */
 2172              		.loc 1 773 39
 2173 04ba B207     		slli	a5,a5,12
 773:../Firmware/GD32VW55x_standard_peripheral/Source/gd32vw55x_timer.c ****         /* reset the CH3P bit */
 2174              		.loc 1 773 36
 2175 04bc 8326C4FE 		lw	a3,-20(s0)
 2176 04c0 93860602 		addi	a3,a3,32
 2177 04c4 D98F     		or	a5,a4,a5
 2178 04c6 9CC2     		sw	a5,0(a3)
 775:../Firmware/GD32VW55x_standard_peripheral/Source/gd32vw55x_timer.c ****         /* set the CH3P bit */
 2179              		.loc 1 775 36
 2180 04c8 8327C4FE 		lw	a5,-20(s0)
 2181 04cc 93870702 		addi	a5,a5,32
 2182 04d0 9843     		lw	a4,0(a5)
 2183 04d2 8327C4FE 		lw	a5,-20(s0)
 2184 04d6 93870702 		addi	a5,a5,32
 2185 04da BE86     		mv	a3,a5
 2186 04dc F977     		li	a5,-8192
 2187 04de FD17     		addi	a5,a5,-1
 2188 04e0 F98F     		and	a5,a4,a5
 2189 04e2 9CC2     		sw	a5,0(a3)
 777:../Firmware/GD32VW55x_standard_peripheral/Source/gd32vw55x_timer.c **** 
 2190              		.loc 1 777 36
 2191 04e4 8327C4FE 		lw	a5,-20(s0)
 2192 04e8 93870702 		addi	a5,a5,32
 2193 04ec 9843     		lw	a4,0(a5)
 777:../Firmware/GD32VW55x_standard_peripheral/Source/gd32vw55x_timer.c **** 
 2194              		.loc 1 777 67
 2195 04ee 832744FE 		lw	a5,-28(s0)
 2196 04f2 83D76700 		lhu	a5,6(a5)
 777:../Firmware/GD32VW55x_standard_peripheral/Source/gd32vw55x_timer.c **** 
 2197              		.loc 1 777 39
 2198 04f6 B207     		slli	a5,a5,12
 777:../Firmware/GD32VW55x_standard_peripheral/Source/gd32vw55x_timer.c **** 
 2199              		.loc 1 777 36
 2200 04f8 8326C4FE 		lw	a3,-20(s0)
 2201 04fc 93860602 		addi	a3,a3,32
 2202 0500 D98F     		or	a5,a4,a5
 2203 0502 9CC2     		sw	a5,0(a3)
 779:../Firmware/GD32VW55x_standard_peripheral/Source/gd32vw55x_timer.c ****             /* reset the ISO3 bit */
 2204              		.loc 1 779 11
 2205 0504 0327C4FE 		lw	a4,-20(s0)
 2206 0508 B7070140 		li	a5,1073807360
 2207 050c 6315F704 		bne	a4,a5,.L88
 781:../Firmware/GD32VW55x_standard_peripheral/Source/gd32vw55x_timer.c ****             /* set the ISO3 bit */
 2208              		.loc 1 781 38
 2209 0510 8327C4FE 		lw	a5,-20(s0)
 2210 0514 9107     		addi	a5,a5,4
 2211 0516 9843     		lw	a4,0(a5)
 2212 0518 8327C4FE 		lw	a5,-20(s0)
 2213 051c 9107     		addi	a5,a5,4
 2214 051e BE86     		mv	a3,a5
 2215 0520 F177     		li	a5,-16384
 2216 0522 FD17     		addi	a5,a5,-1
 2217 0524 F98F     		and	a5,a4,a5
 2218 0526 9CC2     		sw	a5,0(a3)
 783:../Firmware/GD32VW55x_standard_peripheral/Source/gd32vw55x_timer.c ****         }
 2219              		.loc 1 783 38
 2220 0528 8327C4FE 		lw	a5,-20(s0)
 2221 052c 9107     		addi	a5,a5,4
 2222 052e 9843     		lw	a4,0(a5)
 783:../Firmware/GD32VW55x_standard_peripheral/Source/gd32vw55x_timer.c ****         }
 2223              		.loc 1 783 69
 2224 0530 832744FE 		lw	a5,-28(s0)
 2225 0534 83D7A700 		lhu	a5,10(a5)
 783:../Firmware/GD32VW55x_standard_peripheral/Source/gd32vw55x_timer.c ****         }
 2226              		.loc 1 783 41
 2227 0538 9A07     		slli	a5,a5,6
 783:../Firmware/GD32VW55x_standard_peripheral/Source/gd32vw55x_timer.c ****         }
 2228              		.loc 1 783 38
 2229 053a 8326C4FE 		lw	a3,-20(s0)
 2230 053e 9106     		addi	a3,a3,4
 2231 0540 D98F     		or	a5,a4,a5
 2232 0542 9CC2     		sw	a5,0(a3)
 785:../Firmware/GD32VW55x_standard_peripheral/Source/gd32vw55x_timer.c ****     default:
 2233              		.loc 1 785 9
 2234 0544 09A8     		j	.L88
 2235              	.L84:
 2236              		.loc 1 787 9
 2237 0546 0100     		nop
 2238 0548 01A8     		j	.L89
 2239              	.L85:
 704:../Firmware/GD32VW55x_standard_peripheral/Source/gd32vw55x_timer.c ****     /* configure TIMER_CH_1 */
 2240              		.loc 1 704 9
 2241 054a 0100     		nop
 2242 054c 31A0     		j	.L89
 2243              	.L86:
 735:../Firmware/GD32VW55x_standard_peripheral/Source/gd32vw55x_timer.c ****     /* configure TIMER_CH_2 */
 2244              		.loc 1 735 9
 2245 054e 0100     		nop
 2246 0550 21A0     		j	.L89
 2247              	.L87:
 766:../Firmware/GD32VW55x_standard_peripheral/Source/gd32vw55x_timer.c ****     /* configure TIMER_CH_3 */
 2248              		.loc 1 766 9
 2249 0552 0100     		nop
 2250 0554 11A0     		j	.L89
 2251              	.L88:
 785:../Firmware/GD32VW55x_standard_peripheral/Source/gd32vw55x_timer.c ****     default:
 2252              		.loc 1 785 9
 2253 0556 0100     		nop
 2254              	.L89:
 788:../Firmware/GD32VW55x_standard_peripheral/Source/gd32vw55x_timer.c ****     }
 789:../Firmware/GD32VW55x_standard_peripheral/Source/gd32vw55x_timer.c **** }
 2255              		.loc 1 789 1
 2256 0558 0100     		nop
 2257 055a 7244     		lw	s0,28(sp)
 2258              		.cfi_restore 8
 2259              		.cfi_def_cfa 2, 32
 2260 055c 0561     		addi	sp,sp,32
 2261              		.cfi_def_cfa_offset 0
 2262 055e 8280     		jr	ra
 2263              		.cfi_endproc
 2264              	.LFE382:
 2266              		.section	.text.timer_channel_output_mode_config,"ax",@progbits
 2267              		.align	1
 2268              		.globl	timer_channel_output_mode_config
 2270              	timer_channel_output_mode_config:
 2271              	.LFB383:
 790:../Firmware/GD32VW55x_standard_peripheral/Source/gd32vw55x_timer.c **** 
 791:../Firmware/GD32VW55x_standard_peripheral/Source/gd32vw55x_timer.c **** /*!
 792:../Firmware/GD32VW55x_standard_peripheral/Source/gd32vw55x_timer.c ****     \brief      configure TIMER channel output compare mode
 793:../Firmware/GD32VW55x_standard_peripheral/Source/gd32vw55x_timer.c ****     \param[in]  timer_periph: please refer to the following parameters
 794:../Firmware/GD32VW55x_standard_peripheral/Source/gd32vw55x_timer.c ****     \param[in]  channel:
 795:../Firmware/GD32VW55x_standard_peripheral/Source/gd32vw55x_timer.c ****                 only one parameter can be selected which is shown as below:
 796:../Firmware/GD32VW55x_standard_peripheral/Source/gd32vw55x_timer.c ****       \arg        TIMER_CH_0: TIMER channel0(TIMERx(x=0,1,2,15,16))
 797:../Firmware/GD32VW55x_standard_peripheral/Source/gd32vw55x_timer.c ****       \arg        TIMER_CH_1: TIMER channel1(TIMERx(x=0,1,2))
 798:../Firmware/GD32VW55x_standard_peripheral/Source/gd32vw55x_timer.c ****       \arg        TIMER_CH_2: TIMER channel2(TIMERx(x=0,1,2))
 799:../Firmware/GD32VW55x_standard_peripheral/Source/gd32vw55x_timer.c ****       \arg        TIMER_CH_3: TIMER channel3(TIMERx(x=0,1,2))
 800:../Firmware/GD32VW55x_standard_peripheral/Source/gd32vw55x_timer.c ****     \param[in]  ocmode: channel output compare mode
 801:../Firmware/GD32VW55x_standard_peripheral/Source/gd32vw55x_timer.c ****                 only one parameter can be selected which is shown as below:
 802:../Firmware/GD32VW55x_standard_peripheral/Source/gd32vw55x_timer.c ****       \arg        TIMER_OC_MODE_TIMING: timing mode
 803:../Firmware/GD32VW55x_standard_peripheral/Source/gd32vw55x_timer.c ****       \arg        TIMER_OC_MODE_ACTIVE: active mode
 804:../Firmware/GD32VW55x_standard_peripheral/Source/gd32vw55x_timer.c ****       \arg        TIMER_OC_MODE_INACTIVE: inactive mode
 805:../Firmware/GD32VW55x_standard_peripheral/Source/gd32vw55x_timer.c ****       \arg        TIMER_OC_MODE_TOGGLE: toggle mode
 806:../Firmware/GD32VW55x_standard_peripheral/Source/gd32vw55x_timer.c ****       \arg        TIMER_OC_MODE_LOW: force low mode
 807:../Firmware/GD32VW55x_standard_peripheral/Source/gd32vw55x_timer.c ****       \arg        TIMER_OC_MODE_HIGH: force high mode
 808:../Firmware/GD32VW55x_standard_peripheral/Source/gd32vw55x_timer.c ****       \arg        TIMER_OC_MODE_PWM0: PWM0 mode
 809:../Firmware/GD32VW55x_standard_peripheral/Source/gd32vw55x_timer.c ****       \arg        TIMER_OC_MODE_PWM1: PWM1 mode
 810:../Firmware/GD32VW55x_standard_peripheral/Source/gd32vw55x_timer.c ****     \param[out] none
 811:../Firmware/GD32VW55x_standard_peripheral/Source/gd32vw55x_timer.c ****     \retval     none
 812:../Firmware/GD32VW55x_standard_peripheral/Source/gd32vw55x_timer.c **** */
 813:../Firmware/GD32VW55x_standard_peripheral/Source/gd32vw55x_timer.c **** void timer_channel_output_mode_config(uint32_t timer_periph, uint16_t channel, uint16_t ocmode)
 814:../Firmware/GD32VW55x_standard_peripheral/Source/gd32vw55x_timer.c **** {
 2272              		.loc 1 814 1
 2273              		.cfi_startproc
 2274 0000 0111     		addi	sp,sp,-32
 2275              		.cfi_def_cfa_offset 32
 2276 0002 22CE     		sw	s0,28(sp)
 2277              		.cfi_offset 8, -4
 2278 0004 0010     		addi	s0,sp,32
 2279              		.cfi_def_cfa 8, 0
 2280 0006 2326A4FE 		sw	a0,-20(s0)
 2281 000a AE87     		mv	a5,a1
 2282 000c 3287     		mv	a4,a2
 2283 000e 2315F4FE 		sh	a5,-22(s0)
 2284 0012 BA87     		mv	a5,a4
 2285 0014 2314F4FE 		sh	a5,-24(s0)
 815:../Firmware/GD32VW55x_standard_peripheral/Source/gd32vw55x_timer.c ****     switch(channel){
 2286              		.loc 1 815 5
 2287 0018 8357A4FE 		lhu	a5,-22(s0)
 2288 001c 0D47     		li	a4,3
 2289 001e 6385E70A 		beq	a5,a4,.L91
 2290 0022 0D47     		li	a4,3
 2291 0024 634BF70C 		bgt	a5,a4,.L97
 2292 0028 0947     		li	a4,2
 2293 002a 6389E706 		beq	a5,a4,.L93
 2294 002e 0947     		li	a4,2
 2295 0030 6345F70C 		bgt	a5,a4,.L97
 2296 0034 89C7     		beq	a5,zero,.L94
 2297 0036 0547     		li	a4,1
 2298 0038 6389E702 		beq	a5,a4,.L95
 816:../Firmware/GD32VW55x_standard_peripheral/Source/gd32vw55x_timer.c ****     /* configure TIMER_CH_0 */
 817:../Firmware/GD32VW55x_standard_peripheral/Source/gd32vw55x_timer.c ****     case TIMER_CH_0:
 818:../Firmware/GD32VW55x_standard_peripheral/Source/gd32vw55x_timer.c ****         TIMER_CHCTL0(timer_periph) &= (~(uint32_t)TIMER_CHCTL0_CH0COMCTL);
 819:../Firmware/GD32VW55x_standard_peripheral/Source/gd32vw55x_timer.c ****         TIMER_CHCTL0(timer_periph) |= (uint32_t)ocmode;
 820:../Firmware/GD32VW55x_standard_peripheral/Source/gd32vw55x_timer.c ****         break;
 821:../Firmware/GD32VW55x_standard_peripheral/Source/gd32vw55x_timer.c ****     /* configure TIMER_CH_1 */
 822:../Firmware/GD32VW55x_standard_peripheral/Source/gd32vw55x_timer.c ****     case TIMER_CH_1:
 823:../Firmware/GD32VW55x_standard_peripheral/Source/gd32vw55x_timer.c ****         TIMER_CHCTL0(timer_periph) &= (~(uint32_t)TIMER_CHCTL0_CH1COMCTL);
 824:../Firmware/GD32VW55x_standard_peripheral/Source/gd32vw55x_timer.c ****         TIMER_CHCTL0(timer_periph) |= (uint32_t)((uint32_t)(ocmode) << 8U);
 825:../Firmware/GD32VW55x_standard_peripheral/Source/gd32vw55x_timer.c ****         break;
 826:../Firmware/GD32VW55x_standard_peripheral/Source/gd32vw55x_timer.c ****     /* configure TIMER_CH_2 */
 827:../Firmware/GD32VW55x_standard_peripheral/Source/gd32vw55x_timer.c ****     case TIMER_CH_2:
 828:../Firmware/GD32VW55x_standard_peripheral/Source/gd32vw55x_timer.c ****         TIMER_CHCTL1(timer_periph) &= (~(uint32_t)TIMER_CHCTL1_CH2COMCTL);
 829:../Firmware/GD32VW55x_standard_peripheral/Source/gd32vw55x_timer.c ****         TIMER_CHCTL1(timer_periph) |= (uint32_t)ocmode;
 830:../Firmware/GD32VW55x_standard_peripheral/Source/gd32vw55x_timer.c ****         break;
 831:../Firmware/GD32VW55x_standard_peripheral/Source/gd32vw55x_timer.c ****     /* configure TIMER_CH_3 */
 832:../Firmware/GD32VW55x_standard_peripheral/Source/gd32vw55x_timer.c ****     case TIMER_CH_3:
 833:../Firmware/GD32VW55x_standard_peripheral/Source/gd32vw55x_timer.c ****         TIMER_CHCTL1(timer_periph) &= (~(uint32_t)TIMER_CHCTL1_CH3COMCTL);
 834:../Firmware/GD32VW55x_standard_peripheral/Source/gd32vw55x_timer.c ****         TIMER_CHCTL1(timer_periph) |= (uint32_t)((uint32_t)(ocmode) << 8U);
 835:../Firmware/GD32VW55x_standard_peripheral/Source/gd32vw55x_timer.c ****         break;
 836:../Firmware/GD32VW55x_standard_peripheral/Source/gd32vw55x_timer.c ****     default:
 837:../Firmware/GD32VW55x_standard_peripheral/Source/gd32vw55x_timer.c ****         break;
 2299              		.loc 1 837 9
 2300 003c 7DA8     		j	.L97
 2301              	.L94:
 818:../Firmware/GD32VW55x_standard_peripheral/Source/gd32vw55x_timer.c ****         TIMER_CHCTL0(timer_periph) |= (uint32_t)ocmode;
 2302              		.loc 1 818 36
 2303 003e 8327C4FE 		lw	a5,-20(s0)
 2304 0042 E107     		addi	a5,a5,24
 2305 0044 9C43     		lw	a5,0(a5)
 2306 0046 0327C4FE 		lw	a4,-20(s0)
 2307 004a 6107     		addi	a4,a4,24
 2308 004c 93F7F7F8 		andi	a5,a5,-113
 2309 0050 1CC3     		sw	a5,0(a4)
 819:../Firmware/GD32VW55x_standard_peripheral/Source/gd32vw55x_timer.c ****         break;
 2310              		.loc 1 819 36
 2311 0052 8327C4FE 		lw	a5,-20(s0)
 2312 0056 E107     		addi	a5,a5,24
 2313 0058 9843     		lw	a4,0(a5)
 819:../Firmware/GD32VW55x_standard_peripheral/Source/gd32vw55x_timer.c ****         break;
 2314              		.loc 1 819 39
 2315 005a 835784FE 		lhu	a5,-24(s0)
 819:../Firmware/GD32VW55x_standard_peripheral/Source/gd32vw55x_timer.c ****         break;
 2316              		.loc 1 819 36
 2317 005e 8326C4FE 		lw	a3,-20(s0)
 2318 0062 E106     		addi	a3,a3,24
 2319 0064 D98F     		or	a5,a4,a5
 2320 0066 9CC2     		sw	a5,0(a3)
 820:../Firmware/GD32VW55x_standard_peripheral/Source/gd32vw55x_timer.c ****     /* configure TIMER_CH_1 */
 2321              		.loc 1 820 9
 2322 0068 51A8     		j	.L96
 2323              	.L95:
 823:../Firmware/GD32VW55x_standard_peripheral/Source/gd32vw55x_timer.c ****         TIMER_CHCTL0(timer_periph) |= (uint32_t)((uint32_t)(ocmode) << 8U);
 2324              		.loc 1 823 36
 2325 006a 8327C4FE 		lw	a5,-20(s0)
 2326 006e E107     		addi	a5,a5,24
 2327 0070 9843     		lw	a4,0(a5)
 2328 0072 8327C4FE 		lw	a5,-20(s0)
 2329 0076 E107     		addi	a5,a5,24
 2330 0078 BE86     		mv	a3,a5
 2331 007a E577     		li	a5,-28672
 2332 007c FD17     		addi	a5,a5,-1
 2333 007e F98F     		and	a5,a4,a5
 2334 0080 9CC2     		sw	a5,0(a3)
 824:../Firmware/GD32VW55x_standard_peripheral/Source/gd32vw55x_timer.c ****         break;
 2335              		.loc 1 824 36
 2336 0082 8327C4FE 		lw	a5,-20(s0)
 2337 0086 E107     		addi	a5,a5,24
 2338 0088 9843     		lw	a4,0(a5)
 824:../Firmware/GD32VW55x_standard_peripheral/Source/gd32vw55x_timer.c ****         break;
 2339              		.loc 1 824 50
 2340 008a 835784FE 		lhu	a5,-24(s0)
 824:../Firmware/GD32VW55x_standard_peripheral/Source/gd32vw55x_timer.c ****         break;
 2341              		.loc 1 824 39
 2342 008e A207     		slli	a5,a5,8
 824:../Firmware/GD32VW55x_standard_peripheral/Source/gd32vw55x_timer.c ****         break;
 2343              		.loc 1 824 36
 2344 0090 8326C4FE 		lw	a3,-20(s0)
 2345 0094 E106     		addi	a3,a3,24
 2346 0096 D98F     		or	a5,a4,a5
 2347 0098 9CC2     		sw	a5,0(a3)
 825:../Firmware/GD32VW55x_standard_peripheral/Source/gd32vw55x_timer.c ****     /* configure TIMER_CH_2 */
 2348              		.loc 1 825 9
 2349 009a 8DA0     		j	.L96
 2350              	.L93:
 828:../Firmware/GD32VW55x_standard_peripheral/Source/gd32vw55x_timer.c ****         TIMER_CHCTL1(timer_periph) |= (uint32_t)ocmode;
 2351              		.loc 1 828 36
 2352 009c 8327C4FE 		lw	a5,-20(s0)
 2353 00a0 F107     		addi	a5,a5,28
 2354 00a2 9C43     		lw	a5,0(a5)
 2355 00a4 0327C4FE 		lw	a4,-20(s0)
 2356 00a8 7107     		addi	a4,a4,28
 2357 00aa 93F7F7F8 		andi	a5,a5,-113
 2358 00ae 1CC3     		sw	a5,0(a4)
 829:../Firmware/GD32VW55x_standard_peripheral/Source/gd32vw55x_timer.c ****         break;
 2359              		.loc 1 829 36
 2360 00b0 8327C4FE 		lw	a5,-20(s0)
 2361 00b4 F107     		addi	a5,a5,28
 2362 00b6 9843     		lw	a4,0(a5)
 829:../Firmware/GD32VW55x_standard_peripheral/Source/gd32vw55x_timer.c ****         break;
 2363              		.loc 1 829 39
 2364 00b8 835784FE 		lhu	a5,-24(s0)
 829:../Firmware/GD32VW55x_standard_peripheral/Source/gd32vw55x_timer.c ****         break;
 2365              		.loc 1 829 36
 2366 00bc 8326C4FE 		lw	a3,-20(s0)
 2367 00c0 F106     		addi	a3,a3,28
 2368 00c2 D98F     		or	a5,a4,a5
 2369 00c4 9CC2     		sw	a5,0(a3)
 830:../Firmware/GD32VW55x_standard_peripheral/Source/gd32vw55x_timer.c ****     /* configure TIMER_CH_3 */
 2370              		.loc 1 830 9
 2371 00c6 1DA8     		j	.L96
 2372              	.L91:
 833:../Firmware/GD32VW55x_standard_peripheral/Source/gd32vw55x_timer.c ****         TIMER_CHCTL1(timer_periph) |= (uint32_t)((uint32_t)(ocmode) << 8U);
 2373              		.loc 1 833 36
 2374 00c8 8327C4FE 		lw	a5,-20(s0)
 2375 00cc F107     		addi	a5,a5,28
 2376 00ce 9843     		lw	a4,0(a5)
 2377 00d0 8327C4FE 		lw	a5,-20(s0)
 2378 00d4 F107     		addi	a5,a5,28
 2379 00d6 BE86     		mv	a3,a5
 2380 00d8 E577     		li	a5,-28672
 2381 00da FD17     		addi	a5,a5,-1
 2382 00dc F98F     		and	a5,a4,a5
 2383 00de 9CC2     		sw	a5,0(a3)
 834:../Firmware/GD32VW55x_standard_peripheral/Source/gd32vw55x_timer.c ****         break;
 2384              		.loc 1 834 36
 2385 00e0 8327C4FE 		lw	a5,-20(s0)
 2386 00e4 F107     		addi	a5,a5,28
 2387 00e6 9843     		lw	a4,0(a5)
 834:../Firmware/GD32VW55x_standard_peripheral/Source/gd32vw55x_timer.c ****         break;
 2388              		.loc 1 834 50
 2389 00e8 835784FE 		lhu	a5,-24(s0)
 834:../Firmware/GD32VW55x_standard_peripheral/Source/gd32vw55x_timer.c ****         break;
 2390              		.loc 1 834 39
 2391 00ec A207     		slli	a5,a5,8
 834:../Firmware/GD32VW55x_standard_peripheral/Source/gd32vw55x_timer.c ****         break;
 2392              		.loc 1 834 36
 2393 00ee 8326C4FE 		lw	a3,-20(s0)
 2394 00f2 F106     		addi	a3,a3,28
 2395 00f4 D98F     		or	a5,a4,a5
 2396 00f6 9CC2     		sw	a5,0(a3)
 835:../Firmware/GD32VW55x_standard_peripheral/Source/gd32vw55x_timer.c ****     default:
 2397              		.loc 1 835 9
 2398 00f8 11A0     		j	.L96
 2399              	.L97:
 2400              		.loc 1 837 9
 2401 00fa 0100     		nop
 2402              	.L96:
 838:../Firmware/GD32VW55x_standard_peripheral/Source/gd32vw55x_timer.c ****     }
 839:../Firmware/GD32VW55x_standard_peripheral/Source/gd32vw55x_timer.c **** }
 2403              		.loc 1 839 1
 2404 00fc 0100     		nop
 2405 00fe 7244     		lw	s0,28(sp)
 2406              		.cfi_restore 8
 2407              		.cfi_def_cfa 2, 32
 2408 0100 0561     		addi	sp,sp,32
 2409              		.cfi_def_cfa_offset 0
 2410 0102 8280     		jr	ra
 2411              		.cfi_endproc
 2412              	.LFE383:
 2414              		.section	.text.timer_channel_output_pulse_value_config,"ax",@progbits
 2415              		.align	1
 2416              		.globl	timer_channel_output_pulse_value_config
 2418              	timer_channel_output_pulse_value_config:
 2419              	.LFB384:
 840:../Firmware/GD32VW55x_standard_peripheral/Source/gd32vw55x_timer.c **** 
 841:../Firmware/GD32VW55x_standard_peripheral/Source/gd32vw55x_timer.c **** /*!
 842:../Firmware/GD32VW55x_standard_peripheral/Source/gd32vw55x_timer.c ****     \brief      configure TIMER channel output pulse value
 843:../Firmware/GD32VW55x_standard_peripheral/Source/gd32vw55x_timer.c ****     \param[in]  timer_periph: please refer to the following parameters
 844:../Firmware/GD32VW55x_standard_peripheral/Source/gd32vw55x_timer.c ****     \param[in]  channel:
 845:../Firmware/GD32VW55x_standard_peripheral/Source/gd32vw55x_timer.c ****                 only one parameter can be selected which is shown as below:
 846:../Firmware/GD32VW55x_standard_peripheral/Source/gd32vw55x_timer.c ****       \arg        TIMER_CH_0: TIMER channel0(TIMERx(x=0,1,2,15,16))
 847:../Firmware/GD32VW55x_standard_peripheral/Source/gd32vw55x_timer.c ****       \arg        TIMER_CH_1: TIMER channel1(TIMERx(x=0,1,2))
 848:../Firmware/GD32VW55x_standard_peripheral/Source/gd32vw55x_timer.c ****       \arg        TIMER_CH_2: TIMER channel2(TIMERx(x=0,1,2))
 849:../Firmware/GD32VW55x_standard_peripheral/Source/gd32vw55x_timer.c ****       \arg        TIMER_CH_3: TIMER channel3(TIMERx(x=0,1,2))
 850:../Firmware/GD32VW55x_standard_peripheral/Source/gd32vw55x_timer.c ****     \param[in]  pulse: channel output pulse value
 851:../Firmware/GD32VW55x_standard_peripheral/Source/gd32vw55x_timer.c ****     \param[out] none
 852:../Firmware/GD32VW55x_standard_peripheral/Source/gd32vw55x_timer.c ****     \retval     none
 853:../Firmware/GD32VW55x_standard_peripheral/Source/gd32vw55x_timer.c **** */
 854:../Firmware/GD32VW55x_standard_peripheral/Source/gd32vw55x_timer.c **** void timer_channel_output_pulse_value_config(uint32_t timer_periph, uint16_t channel, uint32_t puls
 855:../Firmware/GD32VW55x_standard_peripheral/Source/gd32vw55x_timer.c **** {
 2420              		.loc 1 855 1
 2421              		.cfi_startproc
 2422 0000 0111     		addi	sp,sp,-32
 2423              		.cfi_def_cfa_offset 32
 2424 0002 22CE     		sw	s0,28(sp)
 2425              		.cfi_offset 8, -4
 2426 0004 0010     		addi	s0,sp,32
 2427              		.cfi_def_cfa 8, 0
 2428 0006 2326A4FE 		sw	a0,-20(s0)
 2429 000a AE87     		mv	a5,a1
 2430 000c 2322C4FE 		sw	a2,-28(s0)
 2431 0010 2315F4FE 		sh	a5,-22(s0)
 856:../Firmware/GD32VW55x_standard_peripheral/Source/gd32vw55x_timer.c ****     switch(channel){
 2432              		.loc 1 856 5
 2433 0014 8357A4FE 		lhu	a5,-22(s0)
 2434 0018 0D47     		li	a4,3
 2435 001a 638BE704 		beq	a5,a4,.L99
 2436 001e 0D47     		li	a4,3
 2437 0020 6341F706 		bgt	a5,a4,.L105
 2438 0024 0947     		li	a4,2
 2439 0026 638CE702 		beq	a5,a4,.L101
 2440 002a 0947     		li	a4,2
 2441 002c 634BF704 		bgt	a5,a4,.L105
 2442 0030 89C7     		beq	a5,zero,.L102
 2443 0032 0547     		li	a4,1
 2444 0034 638CE700 		beq	a5,a4,.L103
 857:../Firmware/GD32VW55x_standard_peripheral/Source/gd32vw55x_timer.c ****     /* configure TIMER_CH_0 */
 858:../Firmware/GD32VW55x_standard_peripheral/Source/gd32vw55x_timer.c ****     case TIMER_CH_0:
 859:../Firmware/GD32VW55x_standard_peripheral/Source/gd32vw55x_timer.c ****         TIMER_CH0CV(timer_periph) = (uint32_t)pulse;
 860:../Firmware/GD32VW55x_standard_peripheral/Source/gd32vw55x_timer.c ****         break;
 861:../Firmware/GD32VW55x_standard_peripheral/Source/gd32vw55x_timer.c ****     /* configure TIMER_CH_1 */
 862:../Firmware/GD32VW55x_standard_peripheral/Source/gd32vw55x_timer.c ****     case TIMER_CH_1:
 863:../Firmware/GD32VW55x_standard_peripheral/Source/gd32vw55x_timer.c ****         TIMER_CH1CV(timer_periph) = (uint32_t)pulse;
 864:../Firmware/GD32VW55x_standard_peripheral/Source/gd32vw55x_timer.c ****         break;
 865:../Firmware/GD32VW55x_standard_peripheral/Source/gd32vw55x_timer.c ****     /* configure TIMER_CH_2 */
 866:../Firmware/GD32VW55x_standard_peripheral/Source/gd32vw55x_timer.c ****     case TIMER_CH_2:
 867:../Firmware/GD32VW55x_standard_peripheral/Source/gd32vw55x_timer.c ****         TIMER_CH2CV(timer_periph) = (uint32_t)pulse;
 868:../Firmware/GD32VW55x_standard_peripheral/Source/gd32vw55x_timer.c ****         break;
 869:../Firmware/GD32VW55x_standard_peripheral/Source/gd32vw55x_timer.c ****     /* configure TIMER_CH_3 */
 870:../Firmware/GD32VW55x_standard_peripheral/Source/gd32vw55x_timer.c ****     case TIMER_CH_3:
 871:../Firmware/GD32VW55x_standard_peripheral/Source/gd32vw55x_timer.c ****         TIMER_CH3CV(timer_periph) = (uint32_t)pulse;
 872:../Firmware/GD32VW55x_standard_peripheral/Source/gd32vw55x_timer.c ****         break;
 873:../Firmware/GD32VW55x_standard_peripheral/Source/gd32vw55x_timer.c ****     default:
 874:../Firmware/GD32VW55x_standard_peripheral/Source/gd32vw55x_timer.c ****         break;
 2445              		.loc 1 874 9
 2446 0038 A9A0     		j	.L105
 2447              	.L102:
 859:../Firmware/GD32VW55x_standard_peripheral/Source/gd32vw55x_timer.c ****         break;
 2448              		.loc 1 859 9
 2449 003a 8327C4FE 		lw	a5,-20(s0)
 2450 003e 93874703 		addi	a5,a5,52
 2451 0042 3E87     		mv	a4,a5
 859:../Firmware/GD32VW55x_standard_peripheral/Source/gd32vw55x_timer.c ****         break;
 2452              		.loc 1 859 35
 2453 0044 832744FE 		lw	a5,-28(s0)
 2454 0048 1CC3     		sw	a5,0(a4)
 860:../Firmware/GD32VW55x_standard_peripheral/Source/gd32vw55x_timer.c ****     /* configure TIMER_CH_1 */
 2455              		.loc 1 860 9
 2456 004a 2DA8     		j	.L104
 2457              	.L103:
 863:../Firmware/GD32VW55x_standard_peripheral/Source/gd32vw55x_timer.c ****         break;
 2458              		.loc 1 863 9
 2459 004c 8327C4FE 		lw	a5,-20(s0)
 2460 0050 93878703 		addi	a5,a5,56
 2461 0054 3E87     		mv	a4,a5
 863:../Firmware/GD32VW55x_standard_peripheral/Source/gd32vw55x_timer.c ****         break;
 2462              		.loc 1 863 35
 2463 0056 832744FE 		lw	a5,-28(s0)
 2464 005a 1CC3     		sw	a5,0(a4)
 864:../Firmware/GD32VW55x_standard_peripheral/Source/gd32vw55x_timer.c ****     /* configure TIMER_CH_2 */
 2465              		.loc 1 864 9
 2466 005c 25A0     		j	.L104
 2467              	.L101:
 867:../Firmware/GD32VW55x_standard_peripheral/Source/gd32vw55x_timer.c ****         break;
 2468              		.loc 1 867 9
 2469 005e 8327C4FE 		lw	a5,-20(s0)
 2470 0062 9387C703 		addi	a5,a5,60
 2471 0066 3E87     		mv	a4,a5
 867:../Firmware/GD32VW55x_standard_peripheral/Source/gd32vw55x_timer.c ****         break;
 2472              		.loc 1 867 35
 2473 0068 832744FE 		lw	a5,-28(s0)
 2474 006c 1CC3     		sw	a5,0(a4)
 868:../Firmware/GD32VW55x_standard_peripheral/Source/gd32vw55x_timer.c ****     /* configure TIMER_CH_3 */
 2475              		.loc 1 868 9
 2476 006e 19A8     		j	.L104
 2477              	.L99:
 871:../Firmware/GD32VW55x_standard_peripheral/Source/gd32vw55x_timer.c ****         break;
 2478              		.loc 1 871 9
 2479 0070 8327C4FE 		lw	a5,-20(s0)
 2480 0074 93870704 		addi	a5,a5,64
 2481 0078 3E87     		mv	a4,a5
 871:../Firmware/GD32VW55x_standard_peripheral/Source/gd32vw55x_timer.c ****         break;
 2482              		.loc 1 871 35
 2483 007a 832744FE 		lw	a5,-28(s0)
 2484 007e 1CC3     		sw	a5,0(a4)
 872:../Firmware/GD32VW55x_standard_peripheral/Source/gd32vw55x_timer.c ****     default:
 2485              		.loc 1 872 9
 2486 0080 11A0     		j	.L104
 2487              	.L105:
 2488              		.loc 1 874 9
 2489 0082 0100     		nop
 2490              	.L104:
 875:../Firmware/GD32VW55x_standard_peripheral/Source/gd32vw55x_timer.c ****     }
 876:../Firmware/GD32VW55x_standard_peripheral/Source/gd32vw55x_timer.c **** }
 2491              		.loc 1 876 1
 2492 0084 0100     		nop
 2493 0086 7244     		lw	s0,28(sp)
 2494              		.cfi_restore 8
 2495              		.cfi_def_cfa 2, 32
 2496 0088 0561     		addi	sp,sp,32
 2497              		.cfi_def_cfa_offset 0
 2498 008a 8280     		jr	ra
 2499              		.cfi_endproc
 2500              	.LFE384:
 2502              		.section	.text.timer_channel_output_shadow_config,"ax",@progbits
 2503              		.align	1
 2504              		.globl	timer_channel_output_shadow_config
 2506              	timer_channel_output_shadow_config:
 2507              	.LFB385:
 877:../Firmware/GD32VW55x_standard_peripheral/Source/gd32vw55x_timer.c **** 
 878:../Firmware/GD32VW55x_standard_peripheral/Source/gd32vw55x_timer.c **** /*!
 879:../Firmware/GD32VW55x_standard_peripheral/Source/gd32vw55x_timer.c ****     \brief      configure TIMER channel output shadow function
 880:../Firmware/GD32VW55x_standard_peripheral/Source/gd32vw55x_timer.c ****     \param[in]  timer_periph: please refer to the following parameters
 881:../Firmware/GD32VW55x_standard_peripheral/Source/gd32vw55x_timer.c ****     \param[in]  channel:
 882:../Firmware/GD32VW55x_standard_peripheral/Source/gd32vw55x_timer.c ****                 only one parameter can be selected which is shown as below:
 883:../Firmware/GD32VW55x_standard_peripheral/Source/gd32vw55x_timer.c ****       \arg        TIMER_CH_0: TIMER channel0(TIMERx(x=0,1,2,15,16))
 884:../Firmware/GD32VW55x_standard_peripheral/Source/gd32vw55x_timer.c ****       \arg        TIMER_CH_1: TIMER channel1(TIMERx(x=0,1,2))
 885:../Firmware/GD32VW55x_standard_peripheral/Source/gd32vw55x_timer.c ****       \arg        TIMER_CH_2: TIMER channel2(TIMERx(x=0,1,2))
 886:../Firmware/GD32VW55x_standard_peripheral/Source/gd32vw55x_timer.c ****       \arg        TIMER_CH_3: TIMER channel3(TIMERx(x=0,1,2))
 887:../Firmware/GD32VW55x_standard_peripheral/Source/gd32vw55x_timer.c ****     \param[in]  ocshadow: channel output shadow state
 888:../Firmware/GD32VW55x_standard_peripheral/Source/gd32vw55x_timer.c ****                 only one parameter can be selected which is shown as below:
 889:../Firmware/GD32VW55x_standard_peripheral/Source/gd32vw55x_timer.c ****       \arg        TIMER_OC_SHADOW_ENABLE: channel output shadow state enable
 890:../Firmware/GD32VW55x_standard_peripheral/Source/gd32vw55x_timer.c ****       \arg        TIMER_OC_SHADOW_DISABLE: channel output shadow state disable
 891:../Firmware/GD32VW55x_standard_peripheral/Source/gd32vw55x_timer.c ****     \param[out] none
 892:../Firmware/GD32VW55x_standard_peripheral/Source/gd32vw55x_timer.c ****     \retval     none
 893:../Firmware/GD32VW55x_standard_peripheral/Source/gd32vw55x_timer.c **** */
 894:../Firmware/GD32VW55x_standard_peripheral/Source/gd32vw55x_timer.c **** void timer_channel_output_shadow_config(uint32_t timer_periph, uint16_t channel, uint16_t ocshadow)
 895:../Firmware/GD32VW55x_standard_peripheral/Source/gd32vw55x_timer.c **** {
 2508              		.loc 1 895 1
 2509              		.cfi_startproc
 2510 0000 0111     		addi	sp,sp,-32
 2511              		.cfi_def_cfa_offset 32
 2512 0002 22CE     		sw	s0,28(sp)
 2513              		.cfi_offset 8, -4
 2514 0004 0010     		addi	s0,sp,32
 2515              		.cfi_def_cfa 8, 0
 2516 0006 2326A4FE 		sw	a0,-20(s0)
 2517 000a AE87     		mv	a5,a1
 2518 000c 3287     		mv	a4,a2
 2519 000e 2315F4FE 		sh	a5,-22(s0)
 2520 0012 BA87     		mv	a5,a4
 2521 0014 2314F4FE 		sh	a5,-24(s0)
 896:../Firmware/GD32VW55x_standard_peripheral/Source/gd32vw55x_timer.c ****     switch(channel){
 2522              		.loc 1 896 5
 2523 0018 8357A4FE 		lhu	a5,-22(s0)
 2524 001c 0D47     		li	a4,3
 2525 001e 6384E70A 		beq	a5,a4,.L107
 2526 0022 0D47     		li	a4,3
 2527 0024 634BF70C 		bgt	a5,a4,.L113
 2528 0028 0947     		li	a4,2
 2529 002a 6389E706 		beq	a5,a4,.L109
 2530 002e 0947     		li	a4,2
 2531 0030 6345F70C 		bgt	a5,a4,.L113
 2532 0034 89C7     		beq	a5,zero,.L110
 2533 0036 0547     		li	a4,1
 2534 0038 6388E702 		beq	a5,a4,.L111
 897:../Firmware/GD32VW55x_standard_peripheral/Source/gd32vw55x_timer.c ****     /* configure TIMER_CH_0 */
 898:../Firmware/GD32VW55x_standard_peripheral/Source/gd32vw55x_timer.c ****     case TIMER_CH_0:
 899:../Firmware/GD32VW55x_standard_peripheral/Source/gd32vw55x_timer.c ****         TIMER_CHCTL0(timer_periph) &= (~(uint32_t)TIMER_CHCTL0_CH0COMSEN);
 900:../Firmware/GD32VW55x_standard_peripheral/Source/gd32vw55x_timer.c ****         TIMER_CHCTL0(timer_periph) |= (uint32_t)ocshadow;
 901:../Firmware/GD32VW55x_standard_peripheral/Source/gd32vw55x_timer.c ****         break;
 902:../Firmware/GD32VW55x_standard_peripheral/Source/gd32vw55x_timer.c ****     /* configure TIMER_CH_1 */
 903:../Firmware/GD32VW55x_standard_peripheral/Source/gd32vw55x_timer.c ****     case TIMER_CH_1:
 904:../Firmware/GD32VW55x_standard_peripheral/Source/gd32vw55x_timer.c ****         TIMER_CHCTL0(timer_periph) &= (~(uint32_t)TIMER_CHCTL0_CH1COMSEN);
 905:../Firmware/GD32VW55x_standard_peripheral/Source/gd32vw55x_timer.c ****         TIMER_CHCTL0(timer_periph) |= (uint32_t)((uint32_t)(ocshadow) << 8U);
 906:../Firmware/GD32VW55x_standard_peripheral/Source/gd32vw55x_timer.c ****         break;
 907:../Firmware/GD32VW55x_standard_peripheral/Source/gd32vw55x_timer.c ****     /* configure TIMER_CH_2 */
 908:../Firmware/GD32VW55x_standard_peripheral/Source/gd32vw55x_timer.c ****     case TIMER_CH_2:
 909:../Firmware/GD32VW55x_standard_peripheral/Source/gd32vw55x_timer.c ****         TIMER_CHCTL1(timer_periph) &= (~(uint32_t)TIMER_CHCTL1_CH2COMSEN);
 910:../Firmware/GD32VW55x_standard_peripheral/Source/gd32vw55x_timer.c ****         TIMER_CHCTL1(timer_periph) |= (uint32_t)ocshadow;
 911:../Firmware/GD32VW55x_standard_peripheral/Source/gd32vw55x_timer.c ****         break;
 912:../Firmware/GD32VW55x_standard_peripheral/Source/gd32vw55x_timer.c ****     /* configure TIMER_CH_3 */
 913:../Firmware/GD32VW55x_standard_peripheral/Source/gd32vw55x_timer.c ****     case TIMER_CH_3:
 914:../Firmware/GD32VW55x_standard_peripheral/Source/gd32vw55x_timer.c ****         TIMER_CHCTL1(timer_periph) &= (~(uint32_t)TIMER_CHCTL1_CH3COMSEN);
 915:../Firmware/GD32VW55x_standard_peripheral/Source/gd32vw55x_timer.c ****         TIMER_CHCTL1(timer_periph) |= (uint32_t)((uint32_t)(ocshadow) << 8U);
 916:../Firmware/GD32VW55x_standard_peripheral/Source/gd32vw55x_timer.c ****         break;
 917:../Firmware/GD32VW55x_standard_peripheral/Source/gd32vw55x_timer.c ****     default:
 918:../Firmware/GD32VW55x_standard_peripheral/Source/gd32vw55x_timer.c ****         break;
 2535              		.loc 1 918 9
 2536 003c 7DA8     		j	.L113
 2537              	.L110:
 899:../Firmware/GD32VW55x_standard_peripheral/Source/gd32vw55x_timer.c ****         TIMER_CHCTL0(timer_periph) |= (uint32_t)ocshadow;
 2538              		.loc 1 899 36
 2539 003e 8327C4FE 		lw	a5,-20(s0)
 2540 0042 E107     		addi	a5,a5,24
 2541 0044 9C43     		lw	a5,0(a5)
 2542 0046 0327C4FE 		lw	a4,-20(s0)
 2543 004a 6107     		addi	a4,a4,24
 2544 004c DD9B     		andi	a5,a5,-9
 2545 004e 1CC3     		sw	a5,0(a4)
 900:../Firmware/GD32VW55x_standard_peripheral/Source/gd32vw55x_timer.c ****         break;
 2546              		.loc 1 900 36
 2547 0050 8327C4FE 		lw	a5,-20(s0)
 2548 0054 E107     		addi	a5,a5,24
 2549 0056 9843     		lw	a4,0(a5)
 900:../Firmware/GD32VW55x_standard_peripheral/Source/gd32vw55x_timer.c ****         break;
 2550              		.loc 1 900 39
 2551 0058 835784FE 		lhu	a5,-24(s0)
 900:../Firmware/GD32VW55x_standard_peripheral/Source/gd32vw55x_timer.c ****         break;
 2552              		.loc 1 900 36
 2553 005c 8326C4FE 		lw	a3,-20(s0)
 2554 0060 E106     		addi	a3,a3,24
 2555 0062 D98F     		or	a5,a4,a5
 2556 0064 9CC2     		sw	a5,0(a3)
 901:../Firmware/GD32VW55x_standard_peripheral/Source/gd32vw55x_timer.c ****     /* configure TIMER_CH_1 */
 2557              		.loc 1 901 9
 2558 0066 59A8     		j	.L112
 2559              	.L111:
 904:../Firmware/GD32VW55x_standard_peripheral/Source/gd32vw55x_timer.c ****         TIMER_CHCTL0(timer_periph) |= (uint32_t)((uint32_t)(ocshadow) << 8U);
 2560              		.loc 1 904 36
 2561 0068 8327C4FE 		lw	a5,-20(s0)
 2562 006c E107     		addi	a5,a5,24
 2563 006e 9843     		lw	a4,0(a5)
 2564 0070 8327C4FE 		lw	a5,-20(s0)
 2565 0074 E107     		addi	a5,a5,24
 2566 0076 BE86     		mv	a3,a5
 2567 0078 FD77     		li	a5,-4096
 2568 007a 9387F77F 		addi	a5,a5,2047
 2569 007e F98F     		and	a5,a4,a5
 2570 0080 9CC2     		sw	a5,0(a3)
 905:../Firmware/GD32VW55x_standard_peripheral/Source/gd32vw55x_timer.c ****         break;
 2571              		.loc 1 905 36
 2572 0082 8327C4FE 		lw	a5,-20(s0)
 2573 0086 E107     		addi	a5,a5,24
 2574 0088 9843     		lw	a4,0(a5)
 905:../Firmware/GD32VW55x_standard_peripheral/Source/gd32vw55x_timer.c ****         break;
 2575              		.loc 1 905 50
 2576 008a 835784FE 		lhu	a5,-24(s0)
 905:../Firmware/GD32VW55x_standard_peripheral/Source/gd32vw55x_timer.c ****         break;
 2577              		.loc 1 905 39
 2578 008e A207     		slli	a5,a5,8
 905:../Firmware/GD32VW55x_standard_peripheral/Source/gd32vw55x_timer.c ****         break;
 2579              		.loc 1 905 36
 2580 0090 8326C4FE 		lw	a3,-20(s0)
 2581 0094 E106     		addi	a3,a3,24
 2582 0096 D98F     		or	a5,a4,a5
 2583 0098 9CC2     		sw	a5,0(a3)
 906:../Firmware/GD32VW55x_standard_peripheral/Source/gd32vw55x_timer.c ****     /* configure TIMER_CH_2 */
 2584              		.loc 1 906 9
 2585 009a 8DA0     		j	.L112
 2586              	.L109:
 909:../Firmware/GD32VW55x_standard_peripheral/Source/gd32vw55x_timer.c ****         TIMER_CHCTL1(timer_periph) |= (uint32_t)ocshadow;
 2587              		.loc 1 909 36
 2588 009c 8327C4FE 		lw	a5,-20(s0)
 2589 00a0 F107     		addi	a5,a5,28
 2590 00a2 9C43     		lw	a5,0(a5)
 2591 00a4 0327C4FE 		lw	a4,-20(s0)
 2592 00a8 7107     		addi	a4,a4,28
 2593 00aa DD9B     		andi	a5,a5,-9
 2594 00ac 1CC3     		sw	a5,0(a4)
 910:../Firmware/GD32VW55x_standard_peripheral/Source/gd32vw55x_timer.c ****         break;
 2595              		.loc 1 910 36
 2596 00ae 8327C4FE 		lw	a5,-20(s0)
 2597 00b2 F107     		addi	a5,a5,28
 2598 00b4 9843     		lw	a4,0(a5)
 910:../Firmware/GD32VW55x_standard_peripheral/Source/gd32vw55x_timer.c ****         break;
 2599              		.loc 1 910 39
 2600 00b6 835784FE 		lhu	a5,-24(s0)
 910:../Firmware/GD32VW55x_standard_peripheral/Source/gd32vw55x_timer.c ****         break;
 2601              		.loc 1 910 36
 2602 00ba 8326C4FE 		lw	a3,-20(s0)
 2603 00be F106     		addi	a3,a3,28
 2604 00c0 D98F     		or	a5,a4,a5
 2605 00c2 9CC2     		sw	a5,0(a3)
 911:../Firmware/GD32VW55x_standard_peripheral/Source/gd32vw55x_timer.c ****     /* configure TIMER_CH_3 */
 2606              		.loc 1 911 9
 2607 00c4 25A8     		j	.L112
 2608              	.L107:
 914:../Firmware/GD32VW55x_standard_peripheral/Source/gd32vw55x_timer.c ****         TIMER_CHCTL1(timer_periph) |= (uint32_t)((uint32_t)(ocshadow) << 8U);
 2609              		.loc 1 914 36
 2610 00c6 8327C4FE 		lw	a5,-20(s0)
 2611 00ca F107     		addi	a5,a5,28
 2612 00cc 9843     		lw	a4,0(a5)
 2613 00ce 8327C4FE 		lw	a5,-20(s0)
 2614 00d2 F107     		addi	a5,a5,28
 2615 00d4 BE86     		mv	a3,a5
 2616 00d6 FD77     		li	a5,-4096
 2617 00d8 9387F77F 		addi	a5,a5,2047
 2618 00dc F98F     		and	a5,a4,a5
 2619 00de 9CC2     		sw	a5,0(a3)
 915:../Firmware/GD32VW55x_standard_peripheral/Source/gd32vw55x_timer.c ****         break;
 2620              		.loc 1 915 36
 2621 00e0 8327C4FE 		lw	a5,-20(s0)
 2622 00e4 F107     		addi	a5,a5,28
 2623 00e6 9843     		lw	a4,0(a5)
 915:../Firmware/GD32VW55x_standard_peripheral/Source/gd32vw55x_timer.c ****         break;
 2624              		.loc 1 915 50
 2625 00e8 835784FE 		lhu	a5,-24(s0)
 915:../Firmware/GD32VW55x_standard_peripheral/Source/gd32vw55x_timer.c ****         break;
 2626              		.loc 1 915 39
 2627 00ec A207     		slli	a5,a5,8
 915:../Firmware/GD32VW55x_standard_peripheral/Source/gd32vw55x_timer.c ****         break;
 2628              		.loc 1 915 36
 2629 00ee 8326C4FE 		lw	a3,-20(s0)
 2630 00f2 F106     		addi	a3,a3,28
 2631 00f4 D98F     		or	a5,a4,a5
 2632 00f6 9CC2     		sw	a5,0(a3)
 916:../Firmware/GD32VW55x_standard_peripheral/Source/gd32vw55x_timer.c ****     default:
 2633              		.loc 1 916 9
 2634 00f8 11A0     		j	.L112
 2635              	.L113:
 2636              		.loc 1 918 9
 2637 00fa 0100     		nop
 2638              	.L112:
 919:../Firmware/GD32VW55x_standard_peripheral/Source/gd32vw55x_timer.c ****     }
 920:../Firmware/GD32VW55x_standard_peripheral/Source/gd32vw55x_timer.c **** }
 2639              		.loc 1 920 1
 2640 00fc 0100     		nop
 2641 00fe 7244     		lw	s0,28(sp)
 2642              		.cfi_restore 8
 2643              		.cfi_def_cfa 2, 32
 2644 0100 0561     		addi	sp,sp,32
 2645              		.cfi_def_cfa_offset 0
 2646 0102 8280     		jr	ra
 2647              		.cfi_endproc
 2648              	.LFE385:
 2650              		.section	.text.timer_channel_output_fast_config,"ax",@progbits
 2651              		.align	1
 2652              		.globl	timer_channel_output_fast_config
 2654              	timer_channel_output_fast_config:
 2655              	.LFB386:
 921:../Firmware/GD32VW55x_standard_peripheral/Source/gd32vw55x_timer.c **** 
 922:../Firmware/GD32VW55x_standard_peripheral/Source/gd32vw55x_timer.c **** /*!
 923:../Firmware/GD32VW55x_standard_peripheral/Source/gd32vw55x_timer.c ****     \brief      configure TIMER channel output fast function
 924:../Firmware/GD32VW55x_standard_peripheral/Source/gd32vw55x_timer.c ****     \param[in]  timer_periph: please refer to the following parameters
 925:../Firmware/GD32VW55x_standard_peripheral/Source/gd32vw55x_timer.c ****     \param[in]  channel:
 926:../Firmware/GD32VW55x_standard_peripheral/Source/gd32vw55x_timer.c ****                 only one parameter can be selected which is shown as below:
 927:../Firmware/GD32VW55x_standard_peripheral/Source/gd32vw55x_timer.c ****       \arg        TIMER_CH_0: TIMER channel0(TIMERx(x=0,1,2,15,16))
 928:../Firmware/GD32VW55x_standard_peripheral/Source/gd32vw55x_timer.c ****       \arg        TIMER_CH_1: TIMER channel1(TIMERx(x=0,1,2))
 929:../Firmware/GD32VW55x_standard_peripheral/Source/gd32vw55x_timer.c ****       \arg        TIMER_CH_2: TIMER channel2(TIMERx(x=0,1,2))
 930:../Firmware/GD32VW55x_standard_peripheral/Source/gd32vw55x_timer.c ****       \arg        TIMER_CH_3: TIMER channel3(TIMERx(x=0,1,2))
 931:../Firmware/GD32VW55x_standard_peripheral/Source/gd32vw55x_timer.c ****     \param[in]  ocfast: channel output fast function
 932:../Firmware/GD32VW55x_standard_peripheral/Source/gd32vw55x_timer.c ****                 only one parameter can be selected which is shown as below:
 933:../Firmware/GD32VW55x_standard_peripheral/Source/gd32vw55x_timer.c ****       \arg        TIMER_OC_FAST_ENABLE: channel output fast function enable
 934:../Firmware/GD32VW55x_standard_peripheral/Source/gd32vw55x_timer.c ****       \arg        TIMER_OC_FAST_DISABLE: channel output fast function disable
 935:../Firmware/GD32VW55x_standard_peripheral/Source/gd32vw55x_timer.c ****     \param[out] none
 936:../Firmware/GD32VW55x_standard_peripheral/Source/gd32vw55x_timer.c ****     \retval     none
 937:../Firmware/GD32VW55x_standard_peripheral/Source/gd32vw55x_timer.c **** */
 938:../Firmware/GD32VW55x_standard_peripheral/Source/gd32vw55x_timer.c **** void timer_channel_output_fast_config(uint32_t timer_periph, uint16_t channel, uint16_t ocfast)
 939:../Firmware/GD32VW55x_standard_peripheral/Source/gd32vw55x_timer.c **** {
 2656              		.loc 1 939 1
 2657              		.cfi_startproc
 2658 0000 0111     		addi	sp,sp,-32
 2659              		.cfi_def_cfa_offset 32
 2660 0002 22CE     		sw	s0,28(sp)
 2661              		.cfi_offset 8, -4
 2662 0004 0010     		addi	s0,sp,32
 2663              		.cfi_def_cfa 8, 0
 2664 0006 2326A4FE 		sw	a0,-20(s0)
 2665 000a AE87     		mv	a5,a1
 2666 000c 3287     		mv	a4,a2
 2667 000e 2315F4FE 		sh	a5,-22(s0)
 2668 0012 BA87     		mv	a5,a4
 2669 0014 2314F4FE 		sh	a5,-24(s0)
 940:../Firmware/GD32VW55x_standard_peripheral/Source/gd32vw55x_timer.c ****     switch(channel){
 2670              		.loc 1 940 5
 2671 0018 8357A4FE 		lhu	a5,-22(s0)
 2672 001c 0D47     		li	a4,3
 2673 001e 6381E70A 		beq	a5,a4,.L115
 2674 0022 0D47     		li	a4,3
 2675 0024 6345F70C 		bgt	a5,a4,.L121
 2676 0028 0947     		li	a4,2
 2677 002a 6386E706 		beq	a5,a4,.L117
 2678 002e 0947     		li	a4,2
 2679 0030 634FF70A 		bgt	a5,a4,.L121
 2680 0034 89C7     		beq	a5,zero,.L118
 2681 0036 0547     		li	a4,1
 2682 0038 6388E702 		beq	a5,a4,.L119
 941:../Firmware/GD32VW55x_standard_peripheral/Source/gd32vw55x_timer.c ****     /* configure TIMER_CH_0 */
 942:../Firmware/GD32VW55x_standard_peripheral/Source/gd32vw55x_timer.c ****     case TIMER_CH_0:
 943:../Firmware/GD32VW55x_standard_peripheral/Source/gd32vw55x_timer.c ****         TIMER_CHCTL0(timer_periph) &= (~(uint32_t)TIMER_CHCTL0_CH0COMFEN);
 944:../Firmware/GD32VW55x_standard_peripheral/Source/gd32vw55x_timer.c ****         TIMER_CHCTL0(timer_periph) |= (uint32_t)ocfast;
 945:../Firmware/GD32VW55x_standard_peripheral/Source/gd32vw55x_timer.c ****         break;
 946:../Firmware/GD32VW55x_standard_peripheral/Source/gd32vw55x_timer.c ****     /* configure TIMER_CH_1 */
 947:../Firmware/GD32VW55x_standard_peripheral/Source/gd32vw55x_timer.c ****     case TIMER_CH_1:
 948:../Firmware/GD32VW55x_standard_peripheral/Source/gd32vw55x_timer.c ****         TIMER_CHCTL0(timer_periph) &= (~(uint32_t)TIMER_CHCTL0_CH1COMFEN);
 949:../Firmware/GD32VW55x_standard_peripheral/Source/gd32vw55x_timer.c ****         TIMER_CHCTL0(timer_periph) |= (uint32_t)((uint32_t)ocfast << 8U);
 950:../Firmware/GD32VW55x_standard_peripheral/Source/gd32vw55x_timer.c ****         break;
 951:../Firmware/GD32VW55x_standard_peripheral/Source/gd32vw55x_timer.c ****     /* configure TIMER_CH_2 */
 952:../Firmware/GD32VW55x_standard_peripheral/Source/gd32vw55x_timer.c ****     case TIMER_CH_2:
 953:../Firmware/GD32VW55x_standard_peripheral/Source/gd32vw55x_timer.c ****         TIMER_CHCTL1(timer_periph) &= (~(uint32_t)TIMER_CHCTL1_CH2COMFEN);
 954:../Firmware/GD32VW55x_standard_peripheral/Source/gd32vw55x_timer.c ****         TIMER_CHCTL1(timer_periph) |= (uint32_t)ocfast;
 955:../Firmware/GD32VW55x_standard_peripheral/Source/gd32vw55x_timer.c ****         break;
 956:../Firmware/GD32VW55x_standard_peripheral/Source/gd32vw55x_timer.c ****     /* configure TIMER_CH_3 */
 957:../Firmware/GD32VW55x_standard_peripheral/Source/gd32vw55x_timer.c ****     case TIMER_CH_3:
 958:../Firmware/GD32VW55x_standard_peripheral/Source/gd32vw55x_timer.c ****         TIMER_CHCTL1(timer_periph) &= (~(uint32_t)TIMER_CHCTL1_CH3COMFEN);
 959:../Firmware/GD32VW55x_standard_peripheral/Source/gd32vw55x_timer.c ****         TIMER_CHCTL1(timer_periph) |= (uint32_t)((uint32_t)ocfast << 8U);
 960:../Firmware/GD32VW55x_standard_peripheral/Source/gd32vw55x_timer.c ****         break;
 961:../Firmware/GD32VW55x_standard_peripheral/Source/gd32vw55x_timer.c ****     default:
 962:../Firmware/GD32VW55x_standard_peripheral/Source/gd32vw55x_timer.c ****         break;
 2683              		.loc 1 962 9
 2684 003c 4DA8     		j	.L121
 2685              	.L118:
 943:../Firmware/GD32VW55x_standard_peripheral/Source/gd32vw55x_timer.c ****         TIMER_CHCTL0(timer_periph) |= (uint32_t)ocfast;
 2686              		.loc 1 943 36
 2687 003e 8327C4FE 		lw	a5,-20(s0)
 2688 0042 E107     		addi	a5,a5,24
 2689 0044 9C43     		lw	a5,0(a5)
 2690 0046 0327C4FE 		lw	a4,-20(s0)
 2691 004a 6107     		addi	a4,a4,24
 2692 004c ED9B     		andi	a5,a5,-5
 2693 004e 1CC3     		sw	a5,0(a4)
 944:../Firmware/GD32VW55x_standard_peripheral/Source/gd32vw55x_timer.c ****         break;
 2694              		.loc 1 944 36
 2695 0050 8327C4FE 		lw	a5,-20(s0)
 2696 0054 E107     		addi	a5,a5,24
 2697 0056 9843     		lw	a4,0(a5)
 944:../Firmware/GD32VW55x_standard_peripheral/Source/gd32vw55x_timer.c ****         break;
 2698              		.loc 1 944 39
 2699 0058 835784FE 		lhu	a5,-24(s0)
 944:../Firmware/GD32VW55x_standard_peripheral/Source/gd32vw55x_timer.c ****         break;
 2700              		.loc 1 944 36
 2701 005c 8326C4FE 		lw	a3,-20(s0)
 2702 0060 E106     		addi	a3,a3,24
 2703 0062 D98F     		or	a5,a4,a5
 2704 0064 9CC2     		sw	a5,0(a3)
 945:../Firmware/GD32VW55x_standard_peripheral/Source/gd32vw55x_timer.c ****     /* configure TIMER_CH_1 */
 2705              		.loc 1 945 9
 2706 0066 69A0     		j	.L120
 2707              	.L119:
 948:../Firmware/GD32VW55x_standard_peripheral/Source/gd32vw55x_timer.c ****         TIMER_CHCTL0(timer_periph) |= (uint32_t)((uint32_t)ocfast << 8U);
 2708              		.loc 1 948 36
 2709 0068 8327C4FE 		lw	a5,-20(s0)
 2710 006c E107     		addi	a5,a5,24
 2711 006e 9C43     		lw	a5,0(a5)
 2712 0070 0327C4FE 		lw	a4,-20(s0)
 2713 0074 6107     		addi	a4,a4,24
 2714 0076 93F7F7BF 		andi	a5,a5,-1025
 2715 007a 1CC3     		sw	a5,0(a4)
 949:../Firmware/GD32VW55x_standard_peripheral/Source/gd32vw55x_timer.c ****         break;
 2716              		.loc 1 949 36
 2717 007c 8327C4FE 		lw	a5,-20(s0)
 2718 0080 E107     		addi	a5,a5,24
 2719 0082 9843     		lw	a4,0(a5)
 949:../Firmware/GD32VW55x_standard_peripheral/Source/gd32vw55x_timer.c ****         break;
 2720              		.loc 1 949 50
 2721 0084 835784FE 		lhu	a5,-24(s0)
 949:../Firmware/GD32VW55x_standard_peripheral/Source/gd32vw55x_timer.c ****         break;
 2722              		.loc 1 949 39
 2723 0088 A207     		slli	a5,a5,8
 949:../Firmware/GD32VW55x_standard_peripheral/Source/gd32vw55x_timer.c ****         break;
 2724              		.loc 1 949 36
 2725 008a 8326C4FE 		lw	a3,-20(s0)
 2726 008e E106     		addi	a3,a3,24
 2727 0090 D98F     		or	a5,a4,a5
 2728 0092 9CC2     		sw	a5,0(a3)
 950:../Firmware/GD32VW55x_standard_peripheral/Source/gd32vw55x_timer.c ****     /* configure TIMER_CH_2 */
 2729              		.loc 1 950 9
 2730 0094 B1A8     		j	.L120
 2731              	.L117:
 953:../Firmware/GD32VW55x_standard_peripheral/Source/gd32vw55x_timer.c ****         TIMER_CHCTL1(timer_periph) |= (uint32_t)ocfast;
 2732              		.loc 1 953 36
 2733 0096 8327C4FE 		lw	a5,-20(s0)
 2734 009a F107     		addi	a5,a5,28
 2735 009c 9C43     		lw	a5,0(a5)
 2736 009e 0327C4FE 		lw	a4,-20(s0)
 2737 00a2 7107     		addi	a4,a4,28
 2738 00a4 ED9B     		andi	a5,a5,-5
 2739 00a6 1CC3     		sw	a5,0(a4)
 954:../Firmware/GD32VW55x_standard_peripheral/Source/gd32vw55x_timer.c ****         break;
 2740              		.loc 1 954 36
 2741 00a8 8327C4FE 		lw	a5,-20(s0)
 2742 00ac F107     		addi	a5,a5,28
 2743 00ae 9843     		lw	a4,0(a5)
 954:../Firmware/GD32VW55x_standard_peripheral/Source/gd32vw55x_timer.c ****         break;
 2744              		.loc 1 954 39
 2745 00b0 835784FE 		lhu	a5,-24(s0)
 954:../Firmware/GD32VW55x_standard_peripheral/Source/gd32vw55x_timer.c ****         break;
 2746              		.loc 1 954 36
 2747 00b4 8326C4FE 		lw	a3,-20(s0)
 2748 00b8 F106     		addi	a3,a3,28
 2749 00ba D98F     		or	a5,a4,a5
 2750 00bc 9CC2     		sw	a5,0(a3)
 955:../Firmware/GD32VW55x_standard_peripheral/Source/gd32vw55x_timer.c ****     /* configure TIMER_CH_3 */
 2751              		.loc 1 955 9
 2752 00be 0DA8     		j	.L120
 2753              	.L115:
 958:../Firmware/GD32VW55x_standard_peripheral/Source/gd32vw55x_timer.c ****         TIMER_CHCTL1(timer_periph) |= (uint32_t)((uint32_t)ocfast << 8U);
 2754              		.loc 1 958 36
 2755 00c0 8327C4FE 		lw	a5,-20(s0)
 2756 00c4 F107     		addi	a5,a5,28
 2757 00c6 9C43     		lw	a5,0(a5)
 2758 00c8 0327C4FE 		lw	a4,-20(s0)
 2759 00cc 7107     		addi	a4,a4,28
 2760 00ce 93F7F7BF 		andi	a5,a5,-1025
 2761 00d2 1CC3     		sw	a5,0(a4)
 959:../Firmware/GD32VW55x_standard_peripheral/Source/gd32vw55x_timer.c ****         break;
 2762              		.loc 1 959 36
 2763 00d4 8327C4FE 		lw	a5,-20(s0)
 2764 00d8 F107     		addi	a5,a5,28
 2765 00da 9843     		lw	a4,0(a5)
 959:../Firmware/GD32VW55x_standard_peripheral/Source/gd32vw55x_timer.c ****         break;
 2766              		.loc 1 959 50
 2767 00dc 835784FE 		lhu	a5,-24(s0)
 959:../Firmware/GD32VW55x_standard_peripheral/Source/gd32vw55x_timer.c ****         break;
 2768              		.loc 1 959 39
 2769 00e0 A207     		slli	a5,a5,8
 959:../Firmware/GD32VW55x_standard_peripheral/Source/gd32vw55x_timer.c ****         break;
 2770              		.loc 1 959 36
 2771 00e2 8326C4FE 		lw	a3,-20(s0)
 2772 00e6 F106     		addi	a3,a3,28
 2773 00e8 D98F     		or	a5,a4,a5
 2774 00ea 9CC2     		sw	a5,0(a3)
 960:../Firmware/GD32VW55x_standard_peripheral/Source/gd32vw55x_timer.c ****     default:
 2775              		.loc 1 960 9
 2776 00ec 11A0     		j	.L120
 2777              	.L121:
 2778              		.loc 1 962 9
 2779 00ee 0100     		nop
 2780              	.L120:
 963:../Firmware/GD32VW55x_standard_peripheral/Source/gd32vw55x_timer.c ****     }
 964:../Firmware/GD32VW55x_standard_peripheral/Source/gd32vw55x_timer.c **** }
 2781              		.loc 1 964 1
 2782 00f0 0100     		nop
 2783 00f2 7244     		lw	s0,28(sp)
 2784              		.cfi_restore 8
 2785              		.cfi_def_cfa 2, 32
 2786 00f4 0561     		addi	sp,sp,32
 2787              		.cfi_def_cfa_offset 0
 2788 00f6 8280     		jr	ra
 2789              		.cfi_endproc
 2790              	.LFE386:
 2792              		.section	.text.timer_channel_output_clear_config,"ax",@progbits
 2793              		.align	1
 2794              		.globl	timer_channel_output_clear_config
 2796              	timer_channel_output_clear_config:
 2797              	.LFB387:
 965:../Firmware/GD32VW55x_standard_peripheral/Source/gd32vw55x_timer.c **** 
 966:../Firmware/GD32VW55x_standard_peripheral/Source/gd32vw55x_timer.c **** /*!
 967:../Firmware/GD32VW55x_standard_peripheral/Source/gd32vw55x_timer.c ****     \brief      configure TIMER channel output clear function
 968:../Firmware/GD32VW55x_standard_peripheral/Source/gd32vw55x_timer.c ****     \param[in]  timer_periph: TIMERx(x=0,1,2)
 969:../Firmware/GD32VW55x_standard_peripheral/Source/gd32vw55x_timer.c ****     \param[in]  channel:
 970:../Firmware/GD32VW55x_standard_peripheral/Source/gd32vw55x_timer.c ****                 only one parameter can be selected which is shown as below:
 971:../Firmware/GD32VW55x_standard_peripheral/Source/gd32vw55x_timer.c ****       \arg        TIMER_CH_0: TIMER channel0
 972:../Firmware/GD32VW55x_standard_peripheral/Source/gd32vw55x_timer.c ****       \arg        TIMER_CH_1: TIMER channel1
 973:../Firmware/GD32VW55x_standard_peripheral/Source/gd32vw55x_timer.c ****       \arg        TIMER_CH_2: TIMER channel2
 974:../Firmware/GD32VW55x_standard_peripheral/Source/gd32vw55x_timer.c ****       \arg        TIMER_CH_3: TIMER channel3
 975:../Firmware/GD32VW55x_standard_peripheral/Source/gd32vw55x_timer.c ****     \param[in]  occlear: channel output clear function
 976:../Firmware/GD32VW55x_standard_peripheral/Source/gd32vw55x_timer.c ****                 only one parameter can be selected which is shown as below:
 977:../Firmware/GD32VW55x_standard_peripheral/Source/gd32vw55x_timer.c ****       \arg        TIMER_OC_CLEAR_ENABLE: channel output clear function enable
 978:../Firmware/GD32VW55x_standard_peripheral/Source/gd32vw55x_timer.c ****       \arg        TIMER_OC_CLEAR_DISABLE: channel output clear function disable
 979:../Firmware/GD32VW55x_standard_peripheral/Source/gd32vw55x_timer.c ****     \param[out] none
 980:../Firmware/GD32VW55x_standard_peripheral/Source/gd32vw55x_timer.c ****     \retval     none
 981:../Firmware/GD32VW55x_standard_peripheral/Source/gd32vw55x_timer.c **** */
 982:../Firmware/GD32VW55x_standard_peripheral/Source/gd32vw55x_timer.c **** void timer_channel_output_clear_config(uint32_t timer_periph, uint16_t channel, uint16_t occlear)
 983:../Firmware/GD32VW55x_standard_peripheral/Source/gd32vw55x_timer.c **** {
 2798              		.loc 1 983 1
 2799              		.cfi_startproc
 2800 0000 0111     		addi	sp,sp,-32
 2801              		.cfi_def_cfa_offset 32
 2802 0002 22CE     		sw	s0,28(sp)
 2803              		.cfi_offset 8, -4
 2804 0004 0010     		addi	s0,sp,32
 2805              		.cfi_def_cfa 8, 0
 2806 0006 2326A4FE 		sw	a0,-20(s0)
 2807 000a AE87     		mv	a5,a1
 2808 000c 3287     		mv	a4,a2
 2809 000e 2315F4FE 		sh	a5,-22(s0)
 2810 0012 BA87     		mv	a5,a4
 2811 0014 2314F4FE 		sh	a5,-24(s0)
 984:../Firmware/GD32VW55x_standard_peripheral/Source/gd32vw55x_timer.c ****     switch(channel){
 2812              		.loc 1 984 5
 2813 0018 8357A4FE 		lhu	a5,-22(s0)
 2814 001c 0D47     		li	a4,3
 2815 001e 6385E70A 		beq	a5,a4,.L123
 2816 0022 0D47     		li	a4,3
 2817 0024 634BF70C 		bgt	a5,a4,.L129
 2818 0028 0947     		li	a4,2
 2819 002a 6389E706 		beq	a5,a4,.L125
 2820 002e 0947     		li	a4,2
 2821 0030 6345F70C 		bgt	a5,a4,.L129
 2822 0034 89C7     		beq	a5,zero,.L126
 2823 0036 0547     		li	a4,1
 2824 0038 6389E702 		beq	a5,a4,.L127
 985:../Firmware/GD32VW55x_standard_peripheral/Source/gd32vw55x_timer.c ****     /* configure TIMER_CH_0 */
 986:../Firmware/GD32VW55x_standard_peripheral/Source/gd32vw55x_timer.c ****     case TIMER_CH_0:
 987:../Firmware/GD32VW55x_standard_peripheral/Source/gd32vw55x_timer.c ****         TIMER_CHCTL0(timer_periph) &= (~(uint32_t)TIMER_CHCTL0_CH0COMCEN);
 988:../Firmware/GD32VW55x_standard_peripheral/Source/gd32vw55x_timer.c ****         TIMER_CHCTL0(timer_periph) |= (uint32_t)occlear;
 989:../Firmware/GD32VW55x_standard_peripheral/Source/gd32vw55x_timer.c ****         break;
 990:../Firmware/GD32VW55x_standard_peripheral/Source/gd32vw55x_timer.c ****     /* configure TIMER_CH_1 */
 991:../Firmware/GD32VW55x_standard_peripheral/Source/gd32vw55x_timer.c ****     case TIMER_CH_1:
 992:../Firmware/GD32VW55x_standard_peripheral/Source/gd32vw55x_timer.c ****         TIMER_CHCTL0(timer_periph) &= (~(uint32_t)TIMER_CHCTL0_CH1COMCEN);
 993:../Firmware/GD32VW55x_standard_peripheral/Source/gd32vw55x_timer.c ****         TIMER_CHCTL0(timer_periph) |= (uint32_t)((uint32_t)occlear << 8U);
 994:../Firmware/GD32VW55x_standard_peripheral/Source/gd32vw55x_timer.c ****         break;
 995:../Firmware/GD32VW55x_standard_peripheral/Source/gd32vw55x_timer.c ****     /* configure TIMER_CH_2 */
 996:../Firmware/GD32VW55x_standard_peripheral/Source/gd32vw55x_timer.c ****     case TIMER_CH_2:
 997:../Firmware/GD32VW55x_standard_peripheral/Source/gd32vw55x_timer.c ****         TIMER_CHCTL1(timer_periph) &= (~(uint32_t)TIMER_CHCTL1_CH2COMCEN);
 998:../Firmware/GD32VW55x_standard_peripheral/Source/gd32vw55x_timer.c ****         TIMER_CHCTL1(timer_periph) |= (uint32_t)occlear;
 999:../Firmware/GD32VW55x_standard_peripheral/Source/gd32vw55x_timer.c ****         break;
1000:../Firmware/GD32VW55x_standard_peripheral/Source/gd32vw55x_timer.c ****     /* configure TIMER_CH_3 */
1001:../Firmware/GD32VW55x_standard_peripheral/Source/gd32vw55x_timer.c ****     case TIMER_CH_3:
1002:../Firmware/GD32VW55x_standard_peripheral/Source/gd32vw55x_timer.c ****         TIMER_CHCTL1(timer_periph) &= (~(uint32_t)TIMER_CHCTL1_CH3COMCEN);
1003:../Firmware/GD32VW55x_standard_peripheral/Source/gd32vw55x_timer.c ****         TIMER_CHCTL1(timer_periph) |= (uint32_t)((uint32_t)occlear << 8U);
1004:../Firmware/GD32VW55x_standard_peripheral/Source/gd32vw55x_timer.c ****         break;
1005:../Firmware/GD32VW55x_standard_peripheral/Source/gd32vw55x_timer.c ****     default:
1006:../Firmware/GD32VW55x_standard_peripheral/Source/gd32vw55x_timer.c ****         break;
 2825              		.loc 1 1006 9
 2826 003c 7DA8     		j	.L129
 2827              	.L126:
 987:../Firmware/GD32VW55x_standard_peripheral/Source/gd32vw55x_timer.c ****         TIMER_CHCTL0(timer_periph) |= (uint32_t)occlear;
 2828              		.loc 1 987 36
 2829 003e 8327C4FE 		lw	a5,-20(s0)
 2830 0042 E107     		addi	a5,a5,24
 2831 0044 9C43     		lw	a5,0(a5)
 2832 0046 0327C4FE 		lw	a4,-20(s0)
 2833 004a 6107     		addi	a4,a4,24
 2834 004c 93F7F7F7 		andi	a5,a5,-129
 2835 0050 1CC3     		sw	a5,0(a4)
 988:../Firmware/GD32VW55x_standard_peripheral/Source/gd32vw55x_timer.c ****         break;
 2836              		.loc 1 988 36
 2837 0052 8327C4FE 		lw	a5,-20(s0)
 2838 0056 E107     		addi	a5,a5,24
 2839 0058 9843     		lw	a4,0(a5)
 988:../Firmware/GD32VW55x_standard_peripheral/Source/gd32vw55x_timer.c ****         break;
 2840              		.loc 1 988 39
 2841 005a 835784FE 		lhu	a5,-24(s0)
 988:../Firmware/GD32VW55x_standard_peripheral/Source/gd32vw55x_timer.c ****         break;
 2842              		.loc 1 988 36
 2843 005e 8326C4FE 		lw	a3,-20(s0)
 2844 0062 E106     		addi	a3,a3,24
 2845 0064 D98F     		or	a5,a4,a5
 2846 0066 9CC2     		sw	a5,0(a3)
 989:../Firmware/GD32VW55x_standard_peripheral/Source/gd32vw55x_timer.c ****     /* configure TIMER_CH_1 */
 2847              		.loc 1 989 9
 2848 0068 51A8     		j	.L128
 2849              	.L127:
 992:../Firmware/GD32VW55x_standard_peripheral/Source/gd32vw55x_timer.c ****         TIMER_CHCTL0(timer_periph) |= (uint32_t)((uint32_t)occlear << 8U);
 2850              		.loc 1 992 36
 2851 006a 8327C4FE 		lw	a5,-20(s0)
 2852 006e E107     		addi	a5,a5,24
 2853 0070 9843     		lw	a4,0(a5)
 2854 0072 8327C4FE 		lw	a5,-20(s0)
 2855 0076 E107     		addi	a5,a5,24
 2856 0078 BE86     		mv	a3,a5
 2857 007a E177     		li	a5,-32768
 2858 007c FD17     		addi	a5,a5,-1
 2859 007e F98F     		and	a5,a4,a5
 2860 0080 9CC2     		sw	a5,0(a3)
 993:../Firmware/GD32VW55x_standard_peripheral/Source/gd32vw55x_timer.c ****         break;
 2861              		.loc 1 993 36
 2862 0082 8327C4FE 		lw	a5,-20(s0)
 2863 0086 E107     		addi	a5,a5,24
 2864 0088 9843     		lw	a4,0(a5)
 993:../Firmware/GD32VW55x_standard_peripheral/Source/gd32vw55x_timer.c ****         break;
 2865              		.loc 1 993 50
 2866 008a 835784FE 		lhu	a5,-24(s0)
 993:../Firmware/GD32VW55x_standard_peripheral/Source/gd32vw55x_timer.c ****         break;
 2867              		.loc 1 993 39
 2868 008e A207     		slli	a5,a5,8
 993:../Firmware/GD32VW55x_standard_peripheral/Source/gd32vw55x_timer.c ****         break;
 2869              		.loc 1 993 36
 2870 0090 8326C4FE 		lw	a3,-20(s0)
 2871 0094 E106     		addi	a3,a3,24
 2872 0096 D98F     		or	a5,a4,a5
 2873 0098 9CC2     		sw	a5,0(a3)
 994:../Firmware/GD32VW55x_standard_peripheral/Source/gd32vw55x_timer.c ****     /* configure TIMER_CH_2 */
 2874              		.loc 1 994 9
 2875 009a 8DA0     		j	.L128
 2876              	.L125:
 997:../Firmware/GD32VW55x_standard_peripheral/Source/gd32vw55x_timer.c ****         TIMER_CHCTL1(timer_periph) |= (uint32_t)occlear;
 2877              		.loc 1 997 36
 2878 009c 8327C4FE 		lw	a5,-20(s0)
 2879 00a0 F107     		addi	a5,a5,28
 2880 00a2 9C43     		lw	a5,0(a5)
 2881 00a4 0327C4FE 		lw	a4,-20(s0)
 2882 00a8 7107     		addi	a4,a4,28
 2883 00aa 93F7F7F7 		andi	a5,a5,-129
 2884 00ae 1CC3     		sw	a5,0(a4)
 998:../Firmware/GD32VW55x_standard_peripheral/Source/gd32vw55x_timer.c ****         break;
 2885              		.loc 1 998 36
 2886 00b0 8327C4FE 		lw	a5,-20(s0)
 2887 00b4 F107     		addi	a5,a5,28
 2888 00b6 9843     		lw	a4,0(a5)
 998:../Firmware/GD32VW55x_standard_peripheral/Source/gd32vw55x_timer.c ****         break;
 2889              		.loc 1 998 39
 2890 00b8 835784FE 		lhu	a5,-24(s0)
 998:../Firmware/GD32VW55x_standard_peripheral/Source/gd32vw55x_timer.c ****         break;
 2891              		.loc 1 998 36
 2892 00bc 8326C4FE 		lw	a3,-20(s0)
 2893 00c0 F106     		addi	a3,a3,28
 2894 00c2 D98F     		or	a5,a4,a5
 2895 00c4 9CC2     		sw	a5,0(a3)
 999:../Firmware/GD32VW55x_standard_peripheral/Source/gd32vw55x_timer.c ****     /* configure TIMER_CH_3 */
 2896              		.loc 1 999 9
 2897 00c6 1DA8     		j	.L128
 2898              	.L123:
1002:../Firmware/GD32VW55x_standard_peripheral/Source/gd32vw55x_timer.c ****         TIMER_CHCTL1(timer_periph) |= (uint32_t)((uint32_t)occlear << 8U);
 2899              		.loc 1 1002 36
 2900 00c8 8327C4FE 		lw	a5,-20(s0)
 2901 00cc F107     		addi	a5,a5,28
 2902 00ce 9843     		lw	a4,0(a5)
 2903 00d0 8327C4FE 		lw	a5,-20(s0)
 2904 00d4 F107     		addi	a5,a5,28
 2905 00d6 BE86     		mv	a3,a5
 2906 00d8 E177     		li	a5,-32768
 2907 00da FD17     		addi	a5,a5,-1
 2908 00dc F98F     		and	a5,a4,a5
 2909 00de 9CC2     		sw	a5,0(a3)
1003:../Firmware/GD32VW55x_standard_peripheral/Source/gd32vw55x_timer.c ****         break;
 2910              		.loc 1 1003 36
