   1              		.file	"gd32vw55x_adc.c"
   2              		.option nopic
   3              		.attribute arch, "rv32i2p0_m2p0_a2p0_c2p0"
   4              		.attribute unaligned_access, 0
   5              		.attribute stack_align, 16
   6              		.text
   7              	.Ltext0:
   8              		.cfi_sections	.debug_frame
   9              		.section	.text.adc_deinit,"ax",@progbits
  10              		.align	1
  11              		.globl	adc_deinit
  13              	adc_deinit:
  14              	.LFB347:
  15              		.file 1 "../Firmware/GD32VW55x_standard_peripheral/Source/gd32vw55x_adc.c"
   1:../Firmware/GD32VW55x_standard_peripheral/Source/gd32vw55x_adc.c **** /*!
   2:../Firmware/GD32VW55x_standard_peripheral/Source/gd32vw55x_adc.c ****     \file    GD32VW55x_adc.c
   3:../Firmware/GD32VW55x_standard_peripheral/Source/gd32vw55x_adc.c ****     \brief   ADC driver
   4:../Firmware/GD32VW55x_standard_peripheral/Source/gd32vw55x_adc.c **** 
   5:../Firmware/GD32VW55x_standard_peripheral/Source/gd32vw55x_adc.c ****     \version 2025-01-16, V1.4.0, firmware for GD32VW55x
   6:../Firmware/GD32VW55x_standard_peripheral/Source/gd32vw55x_adc.c **** */
   7:../Firmware/GD32VW55x_standard_peripheral/Source/gd32vw55x_adc.c **** 
   8:../Firmware/GD32VW55x_standard_peripheral/Source/gd32vw55x_adc.c **** /*
   9:../Firmware/GD32VW55x_standard_peripheral/Source/gd32vw55x_adc.c ****     Copyright (c) 2025, GigaDevice Semiconductor Inc.
  10:../Firmware/GD32VW55x_standard_peripheral/Source/gd32vw55x_adc.c **** 
  11:../Firmware/GD32VW55x_standard_peripheral/Source/gd32vw55x_adc.c ****     Redistribution and use in source and binary forms, with or without modification,
  12:../Firmware/GD32VW55x_standard_peripheral/Source/gd32vw55x_adc.c **** are permitted provided that the following conditions are met:
  13:../Firmware/GD32VW55x_standard_peripheral/Source/gd32vw55x_adc.c **** 
  14:../Firmware/GD32VW55x_standard_peripheral/Source/gd32vw55x_adc.c ****     1. Redistributions of source code must retain the above copyright notice, this
  15:../Firmware/GD32VW55x_standard_peripheral/Source/gd32vw55x_adc.c ****        list of conditions and the following disclaimer.
  16:../Firmware/GD32VW55x_standard_peripheral/Source/gd32vw55x_adc.c ****     2. Redistributions in binary form must reproduce the above copyright notice,
  17:../Firmware/GD32VW55x_standard_peripheral/Source/gd32vw55x_adc.c ****        this list of conditions and the following disclaimer in the documentation
  18:../Firmware/GD32VW55x_standard_peripheral/Source/gd32vw55x_adc.c ****        and/or other materials provided with the distribution.
  19:../Firmware/GD32VW55x_standard_peripheral/Source/gd32vw55x_adc.c ****     3. Neither the name of the copyright holder nor the names of its contributors
  20:../Firmware/GD32VW55x_standard_peripheral/Source/gd32vw55x_adc.c ****        may be used to endorse or promote products derived from this software without
  21:../Firmware/GD32VW55x_standard_peripheral/Source/gd32vw55x_adc.c ****        specific prior written permission.
  22:../Firmware/GD32VW55x_standard_peripheral/Source/gd32vw55x_adc.c **** 
  23:../Firmware/GD32VW55x_standard_peripheral/Source/gd32vw55x_adc.c ****     THIS SOFTWARE IS PROVIDED BY THE COPYRIGHT HOLDERS AND CONTRIBUTORS "AS IS"
  24:../Firmware/GD32VW55x_standard_peripheral/Source/gd32vw55x_adc.c **** AND ANY EXPRESS OR IMPLIED WARRANTIES, INCLUDING, BUT NOT LIMITED TO, THE IMPLIED
  25:../Firmware/GD32VW55x_standard_peripheral/Source/gd32vw55x_adc.c **** WARRANTIES OF MERCHANTABILITY AND FITNESS FOR A PARTICULAR PURPOSE ARE DISCLAIMED.
  26:../Firmware/GD32VW55x_standard_peripheral/Source/gd32vw55x_adc.c **** IN NO EVENT SHALL THE COPYRIGHT HOLDER OR CONTRIBUTORS BE LIABLE FOR ANY DIRECT,
  27:../Firmware/GD32VW55x_standard_peripheral/Source/gd32vw55x_adc.c **** INDIRECT, INCIDENTAL, SPECIAL, EXEMPLARY, OR CONSEQUENTIAL DAMAGES (INCLUDING, BUT
  28:../Firmware/GD32VW55x_standard_peripheral/Source/gd32vw55x_adc.c **** NOT LIMITED TO, PROCUREMENT OF SUBSTITUTE GOODS OR SERVICES; LOSS OF USE, DATA, OR
  29:../Firmware/GD32VW55x_standard_peripheral/Source/gd32vw55x_adc.c **** PROFITS; OR BUSINESS INTERRUPTION) HOWEVER CAUSED AND ON ANY THEORY OF LIABILITY,
  30:../Firmware/GD32VW55x_standard_peripheral/Source/gd32vw55x_adc.c **** WHETHER IN CONTRACT, STRICT LIABILITY, OR TORT (INCLUDING NEGLIGENCE OR OTHERWISE)
  31:../Firmware/GD32VW55x_standard_peripheral/Source/gd32vw55x_adc.c **** ARISING IN ANY WAY OUT OF THE USE OF THIS SOFTWARE, EVEN IF ADVISED OF THE POSSIBILITY
  32:../Firmware/GD32VW55x_standard_peripheral/Source/gd32vw55x_adc.c **** OF SUCH DAMAGE.
  33:../Firmware/GD32VW55x_standard_peripheral/Source/gd32vw55x_adc.c **** */
  34:../Firmware/GD32VW55x_standard_peripheral/Source/gd32vw55x_adc.c **** 
  35:../Firmware/GD32VW55x_standard_peripheral/Source/gd32vw55x_adc.c **** #include "gd32vw55x_adc.h"
  36:../Firmware/GD32VW55x_standard_peripheral/Source/gd32vw55x_adc.c **** 
  37:../Firmware/GD32VW55x_standard_peripheral/Source/gd32vw55x_adc.c **** #define ROUTINE_TRIGGER_MODE_OFFSET                 ((uint32_t)0x0000001CU)
  38:../Firmware/GD32VW55x_standard_peripheral/Source/gd32vw55x_adc.c **** #define INSERTED_TRIGGER_MODE_OFFSET                ((uint32_t)0x00000014U)
  39:../Firmware/GD32VW55x_standard_peripheral/Source/gd32vw55x_adc.c **** 
  40:../Firmware/GD32VW55x_standard_peripheral/Source/gd32vw55x_adc.c **** /* discontinuous mode macro*/
  41:../Firmware/GD32VW55x_standard_peripheral/Source/gd32vw55x_adc.c **** #define  ADC_CHANNEL_LENGTH_SUBTRACT_ONE            ((uint8_t)0x01U)
  42:../Firmware/GD32VW55x_standard_peripheral/Source/gd32vw55x_adc.c **** 
  43:../Firmware/GD32VW55x_standard_peripheral/Source/gd32vw55x_adc.c **** /* ADC routine channel macro */
  44:../Firmware/GD32VW55x_standard_peripheral/Source/gd32vw55x_adc.c **** #define  ADC_ROUTINE_CHANNEL_RANK_SIX               ((uint8_t)0x06U)
  45:../Firmware/GD32VW55x_standard_peripheral/Source/gd32vw55x_adc.c **** #define  ADC_ROUTINE_CHANNEL_RANK_NINE              ((uint8_t)0x09U)
  46:../Firmware/GD32VW55x_standard_peripheral/Source/gd32vw55x_adc.c **** #define  ADC_ROUTINE_CHANNEL_RANK_LENGTH            ((uint8_t)0x05U)
  47:../Firmware/GD32VW55x_standard_peripheral/Source/gd32vw55x_adc.c **** 
  48:../Firmware/GD32VW55x_standard_peripheral/Source/gd32vw55x_adc.c **** /* ADC sampling time macro */
  49:../Firmware/GD32VW55x_standard_peripheral/Source/gd32vw55x_adc.c **** #define  ADC_CHANNEL_SAMPLE_EIGHT                   ((uint8_t)0x08U)
  50:../Firmware/GD32VW55x_standard_peripheral/Source/gd32vw55x_adc.c **** #define  ADC_CHANNEL_SAMPLE_ELEVEN                  ((uint8_t)0x0BU)
  51:../Firmware/GD32VW55x_standard_peripheral/Source/gd32vw55x_adc.c **** #define  ADC_CHANNEL_SAMPLE_LENGTH                  ((uint8_t)0x04U)
  52:../Firmware/GD32VW55x_standard_peripheral/Source/gd32vw55x_adc.c **** 
  53:../Firmware/GD32VW55x_standard_peripheral/Source/gd32vw55x_adc.c **** /* ADC inserted channel macro */
  54:../Firmware/GD32VW55x_standard_peripheral/Source/gd32vw55x_adc.c **** #define  ADC_INSERTED_CHANNEL_RANK_LENGTH           ((uint8_t)0x05U)
  55:../Firmware/GD32VW55x_standard_peripheral/Source/gd32vw55x_adc.c **** #define  ADC_INSERTED_CHANNEL_SHIFT_OFFSET          ((uint8_t)0x0FU)
  56:../Firmware/GD32VW55x_standard_peripheral/Source/gd32vw55x_adc.c **** 
  57:../Firmware/GD32VW55x_standard_peripheral/Source/gd32vw55x_adc.c **** /* ADC inserted channel offset macro */
  58:../Firmware/GD32VW55x_standard_peripheral/Source/gd32vw55x_adc.c **** #define  ADC_OFFSET_LENGTH                          ((uint8_t)0x03U)
  59:../Firmware/GD32VW55x_standard_peripheral/Source/gd32vw55x_adc.c **** #define  ADC_OFFSET_SHIFT_LENGTH                    ((uint8_t)0x04U)
  60:../Firmware/GD32VW55x_standard_peripheral/Source/gd32vw55x_adc.c **** 
  61:../Firmware/GD32VW55x_standard_peripheral/Source/gd32vw55x_adc.c **** /*!
  62:../Firmware/GD32VW55x_standard_peripheral/Source/gd32vw55x_adc.c ****     \brief      reset ADC
  63:../Firmware/GD32VW55x_standard_peripheral/Source/gd32vw55x_adc.c ****     \param[in]  none
  64:../Firmware/GD32VW55x_standard_peripheral/Source/gd32vw55x_adc.c ****     \param[out] none
  65:../Firmware/GD32VW55x_standard_peripheral/Source/gd32vw55x_adc.c ****     \retval     none
  66:../Firmware/GD32VW55x_standard_peripheral/Source/gd32vw55x_adc.c **** */
  67:../Firmware/GD32VW55x_standard_peripheral/Source/gd32vw55x_adc.c **** void adc_deinit(void)
  68:../Firmware/GD32VW55x_standard_peripheral/Source/gd32vw55x_adc.c **** {
  16              		.loc 1 68 1
  17              		.cfi_startproc
  18 0000 4111     		addi	sp,sp,-16
  19              		.cfi_def_cfa_offset 16
  20 0002 06C6     		sw	ra,12(sp)
  21 0004 22C4     		sw	s0,8(sp)
  22              		.cfi_offset 1, -4
  23              		.cfi_offset 8, -8
  24 0006 0008     		addi	s0,sp,16
  25              		.cfi_def_cfa 8, 0
  69:../Firmware/GD32VW55x_standard_peripheral/Source/gd32vw55x_adc.c ****     rcu_periph_reset_enable(RCU_ADCRST);
  26              		.loc 1 69 5
  27 0008 8567     		li	a5,4096
  28 000a 13858790 		addi	a0,a5,-1784
  29 000e 97000000 		call	rcu_periph_reset_enable
  29      E7800000 
  70:../Firmware/GD32VW55x_standard_peripheral/Source/gd32vw55x_adc.c ****     rcu_periph_reset_disable(RCU_ADCRST);
  30              		.loc 1 70 5
  31 0016 8567     		li	a5,4096
  32 0018 13858790 		addi	a0,a5,-1784
  33 001c 97000000 		call	rcu_periph_reset_disable
  33      E7800000 
  71:../Firmware/GD32VW55x_standard_peripheral/Source/gd32vw55x_adc.c **** }
  34              		.loc 1 71 1
  35 0024 0100     		nop
  36 0026 B240     		lw	ra,12(sp)
  37              		.cfi_restore 1
  38 0028 2244     		lw	s0,8(sp)
  39              		.cfi_restore 8
  40              		.cfi_def_cfa 2, 16
  41 002a 4101     		addi	sp,sp,16
  42              		.cfi_def_cfa_offset 0
  43 002c 8280     		jr	ra
  44              		.cfi_endproc
  45              	.LFE347:
  47              		.section	.text.adc_clock_config,"ax",@progbits
  48              		.align	1
  49              		.globl	adc_clock_config
  51              	adc_clock_config:
  52              	.LFB348:
  72:../Firmware/GD32VW55x_standard_peripheral/Source/gd32vw55x_adc.c **** 
  73:../Firmware/GD32VW55x_standard_peripheral/Source/gd32vw55x_adc.c **** /*!
  74:../Firmware/GD32VW55x_standard_peripheral/Source/gd32vw55x_adc.c ****     \brief      configure the ADC clock
  75:../Firmware/GD32VW55x_standard_peripheral/Source/gd32vw55x_adc.c ****     \param[in]  prescaler: configure ADC prescaler ratio
  76:../Firmware/GD32VW55x_standard_peripheral/Source/gd32vw55x_adc.c ****                 only one parameter can be selected which is shown as below:
  77:../Firmware/GD32VW55x_standard_peripheral/Source/gd32vw55x_adc.c ****       \arg        ADC_ADCCK_PCLK2_DIV2: PCLK2 div2
  78:../Firmware/GD32VW55x_standard_peripheral/Source/gd32vw55x_adc.c ****       \arg        ADC_ADCCK_PCLK2_DIV4: PCLK2 div4
  79:../Firmware/GD32VW55x_standard_peripheral/Source/gd32vw55x_adc.c ****       \arg        ADC_ADCCK_PCLK2_DIV6: PCLK2 div6
  80:../Firmware/GD32VW55x_standard_peripheral/Source/gd32vw55x_adc.c ****       \arg        ADC_ADCCK_PCLK2_DIV8: PCLK2 div8
  81:../Firmware/GD32VW55x_standard_peripheral/Source/gd32vw55x_adc.c ****       \arg        ADC_ADCCK_HCLK_DIV5: HCLK div5
  82:../Firmware/GD32VW55x_standard_peripheral/Source/gd32vw55x_adc.c ****       \arg        ADC_ADCCK_HCLK_DIV6: HCLK div6
  83:../Firmware/GD32VW55x_standard_peripheral/Source/gd32vw55x_adc.c ****       \arg        ADC_ADCCK_HCLK_DIV10: HCLK div10
  84:../Firmware/GD32VW55x_standard_peripheral/Source/gd32vw55x_adc.c ****       \arg        ADC_ADCCK_HCLK_DIV20: HCLK div20
  85:../Firmware/GD32VW55x_standard_peripheral/Source/gd32vw55x_adc.c ****     \param[out] none
  86:../Firmware/GD32VW55x_standard_peripheral/Source/gd32vw55x_adc.c ****     \retval     none
  87:../Firmware/GD32VW55x_standard_peripheral/Source/gd32vw55x_adc.c **** */
  88:../Firmware/GD32VW55x_standard_peripheral/Source/gd32vw55x_adc.c **** void adc_clock_config(uint32_t prescaler)
  89:../Firmware/GD32VW55x_standard_peripheral/Source/gd32vw55x_adc.c **** {
  53              		.loc 1 89 1
  54              		.cfi_startproc
  55 0000 0111     		addi	sp,sp,-32
  56              		.cfi_def_cfa_offset 32
  57 0002 22CE     		sw	s0,28(sp)
  58              		.cfi_offset 8, -4
  59 0004 0010     		addi	s0,sp,32
  60              		.cfi_def_cfa 8, 0
  61 0006 2326A4FE 		sw	a0,-20(s0)
  90:../Firmware/GD32VW55x_standard_peripheral/Source/gd32vw55x_adc.c ****     ADC_CCTL &= ~((uint32_t)ADC_CCTL_ADCCK);
  62              		.loc 1 90 14
  63 000a B7270140 		li	a5,1073815552
  64 000e 93874730 		addi	a5,a5,772
  65 0012 9443     		lw	a3,0(a5)
  66 0014 B7270140 		li	a5,1073815552
  67 0018 93874730 		addi	a5,a5,772
  68 001c 3707F9FF 		li	a4,-458752
  69 0020 7D17     		addi	a4,a4,-1
  70 0022 758F     		and	a4,a3,a4
  71 0024 98C3     		sw	a4,0(a5)
  91:../Firmware/GD32VW55x_standard_peripheral/Source/gd32vw55x_adc.c ****     ADC_CCTL |= (uint32_t) prescaler;
  72              		.loc 1 91 14
  73 0026 B7270140 		li	a5,1073815552
  74 002a 93874730 		addi	a5,a5,772
  75 002e 9443     		lw	a3,0(a5)
  76 0030 B7270140 		li	a5,1073815552
  77 0034 93874730 		addi	a5,a5,772
  78 0038 0327C4FE 		lw	a4,-20(s0)
  79 003c 558F     		or	a4,a3,a4
  80 003e 98C3     		sw	a4,0(a5)
  92:../Firmware/GD32VW55x_standard_peripheral/Source/gd32vw55x_adc.c **** }
  81              		.loc 1 92 1
  82 0040 0100     		nop
  83 0042 7244     		lw	s0,28(sp)
  84              		.cfi_restore 8
  85              		.cfi_def_cfa 2, 32
  86 0044 0561     		addi	sp,sp,32
  87              		.cfi_def_cfa_offset 0
  88 0046 8280     		jr	ra
  89              		.cfi_endproc
  90              	.LFE348:
  92              		.section	.text.adc_enable,"ax",@progbits
  93              		.align	1
  94              		.globl	adc_enable
  96              	adc_enable:
  97              	.LFB349:
  93:../Firmware/GD32VW55x_standard_peripheral/Source/gd32vw55x_adc.c **** 
  94:../Firmware/GD32VW55x_standard_peripheral/Source/gd32vw55x_adc.c **** /*!
  95:../Firmware/GD32VW55x_standard_peripheral/Source/gd32vw55x_adc.c ****     \brief      enable ADC interface
  96:../Firmware/GD32VW55x_standard_peripheral/Source/gd32vw55x_adc.c ****     \param[in]  none
  97:../Firmware/GD32VW55x_standard_peripheral/Source/gd32vw55x_adc.c ****     \param[out] none
  98:../Firmware/GD32VW55x_standard_peripheral/Source/gd32vw55x_adc.c ****     \retval     none
  99:../Firmware/GD32VW55x_standard_peripheral/Source/gd32vw55x_adc.c **** */
 100:../Firmware/GD32VW55x_standard_peripheral/Source/gd32vw55x_adc.c **** void adc_enable(void)
 101:../Firmware/GD32VW55x_standard_peripheral/Source/gd32vw55x_adc.c **** {
  98              		.loc 1 101 1
  99              		.cfi_startproc
 100 0000 4111     		addi	sp,sp,-16
 101              		.cfi_def_cfa_offset 16
 102 0002 22C6     		sw	s0,12(sp)
 103              		.cfi_offset 8, -4
 104 0004 0008     		addi	s0,sp,16
 105              		.cfi_def_cfa 8, 0
 102:../Firmware/GD32VW55x_standard_peripheral/Source/gd32vw55x_adc.c ****     if(RESET == (ADC_CTL1 & ADC_CTL1_ADCON)){
 106              		.loc 1 102 18
 107 0006 B7270140 		li	a5,1073815552
 108 000a A107     		addi	a5,a5,8
 109 000c 9C43     		lw	a5,0(a5)
 110              		.loc 1 102 27
 111 000e 858B     		andi	a5,a5,1
 112              		.loc 1 102 7
 113 0010 99EB     		bne	a5,zero,.L5
 103:../Firmware/GD32VW55x_standard_peripheral/Source/gd32vw55x_adc.c ****         /* enable ADC */
 104:../Firmware/GD32VW55x_standard_peripheral/Source/gd32vw55x_adc.c ****         ADC_CTL1 |= (uint32_t)ADC_CTL1_ADCON;
 114              		.loc 1 104 18
 115 0012 B7270140 		li	a5,1073815552
 116 0016 A107     		addi	a5,a5,8
 117 0018 9843     		lw	a4,0(a5)
 118 001a B7270140 		li	a5,1073815552
 119 001e A107     		addi	a5,a5,8
 120 0020 13671700 		ori	a4,a4,1
 121 0024 98C3     		sw	a4,0(a5)
 122              	.L5:
 105:../Firmware/GD32VW55x_standard_peripheral/Source/gd32vw55x_adc.c ****     }
 106:../Firmware/GD32VW55x_standard_peripheral/Source/gd32vw55x_adc.c **** }
 123              		.loc 1 106 1
 124 0026 0100     		nop
 125 0028 3244     		lw	s0,12(sp)
 126              		.cfi_restore 8
 127              		.cfi_def_cfa 2, 16
 128 002a 4101     		addi	sp,sp,16
 129              		.cfi_def_cfa_offset 0
 130 002c 8280     		jr	ra
 131              		.cfi_endproc
 132              	.LFE349:
 134              		.section	.text.adc_disable,"ax",@progbits
 135              		.align	1
 136              		.globl	adc_disable
 138              	adc_disable:
 139              	.LFB350:
 107:../Firmware/GD32VW55x_standard_peripheral/Source/gd32vw55x_adc.c **** 
 108:../Firmware/GD32VW55x_standard_peripheral/Source/gd32vw55x_adc.c **** /*!
 109:../Firmware/GD32VW55x_standard_peripheral/Source/gd32vw55x_adc.c ****     \brief      disable ADC interface
 110:../Firmware/GD32VW55x_standard_peripheral/Source/gd32vw55x_adc.c ****     \param[in]  none
 111:../Firmware/GD32VW55x_standard_peripheral/Source/gd32vw55x_adc.c ****     \param[out] none
 112:../Firmware/GD32VW55x_standard_peripheral/Source/gd32vw55x_adc.c ****     \retval     none
 113:../Firmware/GD32VW55x_standard_peripheral/Source/gd32vw55x_adc.c **** */
 114:../Firmware/GD32VW55x_standard_peripheral/Source/gd32vw55x_adc.c **** void adc_disable(void)
 115:../Firmware/GD32VW55x_standard_peripheral/Source/gd32vw55x_adc.c **** {
 140              		.loc 1 115 1
 141              		.cfi_startproc
 142 0000 4111     		addi	sp,sp,-16
 143              		.cfi_def_cfa_offset 16
 144 0002 22C6     		sw	s0,12(sp)
 145              		.cfi_offset 8, -4
 146 0004 0008     		addi	s0,sp,16
 147              		.cfi_def_cfa 8, 0
 116:../Firmware/GD32VW55x_standard_peripheral/Source/gd32vw55x_adc.c ****     /* disable ADC */
 117:../Firmware/GD32VW55x_standard_peripheral/Source/gd32vw55x_adc.c ****     ADC_CTL1 &= ~((uint32_t)ADC_CTL1_ADCON);
 148              		.loc 1 117 14
 149 0006 B7270140 		li	a5,1073815552
 150 000a A107     		addi	a5,a5,8
 151 000c 9843     		lw	a4,0(a5)
 152 000e B7270140 		li	a5,1073815552
 153 0012 A107     		addi	a5,a5,8
 154 0014 799B     		andi	a4,a4,-2
 155 0016 98C3     		sw	a4,0(a5)
 118:../Firmware/GD32VW55x_standard_peripheral/Source/gd32vw55x_adc.c **** }
 156              		.loc 1 118 1
 157 0018 0100     		nop
 158 001a 3244     		lw	s0,12(sp)
 159              		.cfi_restore 8
 160              		.cfi_def_cfa 2, 16
 161 001c 4101     		addi	sp,sp,16
 162              		.cfi_def_cfa_offset 0
 163 001e 8280     		jr	ra
 164              		.cfi_endproc
 165              	.LFE350:
 167              		.section	.text.adc_dma_mode_enable,"ax",@progbits
 168              		.align	1
 169              		.globl	adc_dma_mode_enable
 171              	adc_dma_mode_enable:
 172              	.LFB351:
 119:../Firmware/GD32VW55x_standard_peripheral/Source/gd32vw55x_adc.c **** 
 120:../Firmware/GD32VW55x_standard_peripheral/Source/gd32vw55x_adc.c **** /*!
 121:../Firmware/GD32VW55x_standard_peripheral/Source/gd32vw55x_adc.c ****     \brief      enable DMA request
 122:../Firmware/GD32VW55x_standard_peripheral/Source/gd32vw55x_adc.c ****     \param[in]  none
 123:../Firmware/GD32VW55x_standard_peripheral/Source/gd32vw55x_adc.c ****     \param[out] none
 124:../Firmware/GD32VW55x_standard_peripheral/Source/gd32vw55x_adc.c ****     \retval     none
 125:../Firmware/GD32VW55x_standard_peripheral/Source/gd32vw55x_adc.c **** */
 126:../Firmware/GD32VW55x_standard_peripheral/Source/gd32vw55x_adc.c **** void adc_dma_mode_enable(void)
 127:../Firmware/GD32VW55x_standard_peripheral/Source/gd32vw55x_adc.c **** {
 173              		.loc 1 127 1
 174              		.cfi_startproc
 175 0000 4111     		addi	sp,sp,-16
 176              		.cfi_def_cfa_offset 16
 177 0002 22C6     		sw	s0,12(sp)
 178              		.cfi_offset 8, -4
 179 0004 0008     		addi	s0,sp,16
 180              		.cfi_def_cfa 8, 0
 128:../Firmware/GD32VW55x_standard_peripheral/Source/gd32vw55x_adc.c ****     /* enable DMA request */
 129:../Firmware/GD32VW55x_standard_peripheral/Source/gd32vw55x_adc.c ****     ADC_CTL1 |= (uint32_t)(ADC_CTL1_DMA);
 181              		.loc 1 129 14
 182 0006 B7270140 		li	a5,1073815552
 183 000a A107     		addi	a5,a5,8
 184 000c 9843     		lw	a4,0(a5)
 185 000e B7270140 		li	a5,1073815552
 186 0012 A107     		addi	a5,a5,8
 187 0014 13670710 		ori	a4,a4,256
 188 0018 98C3     		sw	a4,0(a5)
 130:../Firmware/GD32VW55x_standard_peripheral/Source/gd32vw55x_adc.c **** }
 189              		.loc 1 130 1
 190 001a 0100     		nop
 191 001c 3244     		lw	s0,12(sp)
 192              		.cfi_restore 8
 193              		.cfi_def_cfa 2, 16
 194 001e 4101     		addi	sp,sp,16
 195              		.cfi_def_cfa_offset 0
 196 0020 8280     		jr	ra
 197              		.cfi_endproc
 198              	.LFE351:
 200              		.section	.text.adc_dma_mode_disable,"ax",@progbits
 201              		.align	1
 202              		.globl	adc_dma_mode_disable
 204              	adc_dma_mode_disable:
 205              	.LFB352:
 131:../Firmware/GD32VW55x_standard_peripheral/Source/gd32vw55x_adc.c **** 
 132:../Firmware/GD32VW55x_standard_peripheral/Source/gd32vw55x_adc.c **** /*!
 133:../Firmware/GD32VW55x_standard_peripheral/Source/gd32vw55x_adc.c ****     \brief      disable DMA request
 134:../Firmware/GD32VW55x_standard_peripheral/Source/gd32vw55x_adc.c ****     \param[in]  none
 135:../Firmware/GD32VW55x_standard_peripheral/Source/gd32vw55x_adc.c ****     \param[out] none
 136:../Firmware/GD32VW55x_standard_peripheral/Source/gd32vw55x_adc.c ****     \retval     none
 137:../Firmware/GD32VW55x_standard_peripheral/Source/gd32vw55x_adc.c **** */
 138:../Firmware/GD32VW55x_standard_peripheral/Source/gd32vw55x_adc.c **** void adc_dma_mode_disable(void)
 139:../Firmware/GD32VW55x_standard_peripheral/Source/gd32vw55x_adc.c **** {
 206              		.loc 1 139 1
 207              		.cfi_startproc
 208 0000 4111     		addi	sp,sp,-16
 209              		.cfi_def_cfa_offset 16
 210 0002 22C6     		sw	s0,12(sp)
 211              		.cfi_offset 8, -4
 212 0004 0008     		addi	s0,sp,16
 213              		.cfi_def_cfa 8, 0
 140:../Firmware/GD32VW55x_standard_peripheral/Source/gd32vw55x_adc.c ****     /* disable DMA request */
 141:../Firmware/GD32VW55x_standard_peripheral/Source/gd32vw55x_adc.c ****     ADC_CTL1 &= ~((uint32_t)ADC_CTL1_DMA);
 214              		.loc 1 141 14
 215 0006 B7270140 		li	a5,1073815552
 216 000a A107     		addi	a5,a5,8
 217 000c 9843     		lw	a4,0(a5)
 218 000e B7270140 		li	a5,1073815552
 219 0012 A107     		addi	a5,a5,8
 220 0014 1377F7EF 		andi	a4,a4,-257
 221 0018 98C3     		sw	a4,0(a5)
 142:../Firmware/GD32VW55x_standard_peripheral/Source/gd32vw55x_adc.c **** }
 222              		.loc 1 142 1
 223 001a 0100     		nop
 224 001c 3244     		lw	s0,12(sp)
 225              		.cfi_restore 8
 226              		.cfi_def_cfa 2, 16
 227 001e 4101     		addi	sp,sp,16
 228              		.cfi_def_cfa_offset 0
 229 0020 8280     		jr	ra
 230              		.cfi_endproc
 231              	.LFE352:
 233              		.section	.text.adc_dma_request_after_last_enable,"ax",@progbits
 234              		.align	1
 235              		.globl	adc_dma_request_after_last_enable
 237              	adc_dma_request_after_last_enable:
 238              	.LFB353:
 143:../Firmware/GD32VW55x_standard_peripheral/Source/gd32vw55x_adc.c **** 
 144:../Firmware/GD32VW55x_standard_peripheral/Source/gd32vw55x_adc.c **** /*!
 145:../Firmware/GD32VW55x_standard_peripheral/Source/gd32vw55x_adc.c ****     \brief      when DDM=1, the DMA engine issues a request at end of each routine conversion
 146:../Firmware/GD32VW55x_standard_peripheral/Source/gd32vw55x_adc.c ****     \param[in]  none
 147:../Firmware/GD32VW55x_standard_peripheral/Source/gd32vw55x_adc.c ****     \param[out] none
 148:../Firmware/GD32VW55x_standard_peripheral/Source/gd32vw55x_adc.c ****     \retval     none
 149:../Firmware/GD32VW55x_standard_peripheral/Source/gd32vw55x_adc.c **** */
 150:../Firmware/GD32VW55x_standard_peripheral/Source/gd32vw55x_adc.c **** void adc_dma_request_after_last_enable(void)
 151:../Firmware/GD32VW55x_standard_peripheral/Source/gd32vw55x_adc.c **** {
 239              		.loc 1 151 1
 240              		.cfi_startproc
 241 0000 4111     		addi	sp,sp,-16
 242              		.cfi_def_cfa_offset 16
 243 0002 22C6     		sw	s0,12(sp)
 244              		.cfi_offset 8, -4
 245 0004 0008     		addi	s0,sp,16
 246              		.cfi_def_cfa 8, 0
 152:../Firmware/GD32VW55x_standard_peripheral/Source/gd32vw55x_adc.c ****     ADC_CTL1 |= (uint32_t)(ADC_CTL1_DDM);
 247              		.loc 1 152 14
 248 0006 B7270140 		li	a5,1073815552
 249 000a A107     		addi	a5,a5,8
 250 000c 9843     		lw	a4,0(a5)
 251 000e B7270140 		li	a5,1073815552
 252 0012 A107     		addi	a5,a5,8
 253 0014 13670720 		ori	a4,a4,512
 254 0018 98C3     		sw	a4,0(a5)
 153:../Firmware/GD32VW55x_standard_peripheral/Source/gd32vw55x_adc.c **** }
 255              		.loc 1 153 1
 256 001a 0100     		nop
 257 001c 3244     		lw	s0,12(sp)
 258              		.cfi_restore 8
 259              		.cfi_def_cfa 2, 16
 260 001e 4101     		addi	sp,sp,16
 261              		.cfi_def_cfa_offset 0
 262 0020 8280     		jr	ra
 263              		.cfi_endproc
 264              	.LFE353:
 266              		.section	.text.adc_dma_request_after_last_disable,"ax",@progbits
 267              		.align	1
 268              		.globl	adc_dma_request_after_last_disable
 270              	adc_dma_request_after_last_disable:
 271              	.LFB354:
 154:../Firmware/GD32VW55x_standard_peripheral/Source/gd32vw55x_adc.c **** 
 155:../Firmware/GD32VW55x_standard_peripheral/Source/gd32vw55x_adc.c **** /*!
 156:../Firmware/GD32VW55x_standard_peripheral/Source/gd32vw55x_adc.c ****     \brief      the DMA engine is disabled after the end of transfer signal from DMA controller is 
 157:../Firmware/GD32VW55x_standard_peripheral/Source/gd32vw55x_adc.c ****     \param[in]  none
 158:../Firmware/GD32VW55x_standard_peripheral/Source/gd32vw55x_adc.c ****     \param[out] none
 159:../Firmware/GD32VW55x_standard_peripheral/Source/gd32vw55x_adc.c ****     \retval     none
 160:../Firmware/GD32VW55x_standard_peripheral/Source/gd32vw55x_adc.c **** */
 161:../Firmware/GD32VW55x_standard_peripheral/Source/gd32vw55x_adc.c **** void adc_dma_request_after_last_disable(void)
 162:../Firmware/GD32VW55x_standard_peripheral/Source/gd32vw55x_adc.c **** {
 272              		.loc 1 162 1
 273              		.cfi_startproc
 274 0000 4111     		addi	sp,sp,-16
 275              		.cfi_def_cfa_offset 16
 276 0002 22C6     		sw	s0,12(sp)
 277              		.cfi_offset 8, -4
 278 0004 0008     		addi	s0,sp,16
 279              		.cfi_def_cfa 8, 0
 163:../Firmware/GD32VW55x_standard_peripheral/Source/gd32vw55x_adc.c ****     ADC_CTL1 &= ~((uint32_t)ADC_CTL1_DDM);
 280              		.loc 1 163 14
 281 0006 B7270140 		li	a5,1073815552
 282 000a A107     		addi	a5,a5,8
 283 000c 9843     		lw	a4,0(a5)
 284 000e B7270140 		li	a5,1073815552
 285 0012 A107     		addi	a5,a5,8
 286 0014 1377F7DF 		andi	a4,a4,-513
 287 0018 98C3     		sw	a4,0(a5)
 164:../Firmware/GD32VW55x_standard_peripheral/Source/gd32vw55x_adc.c **** }
 288              		.loc 1 164 1
 289 001a 0100     		nop
 290 001c 3244     		lw	s0,12(sp)
 291              		.cfi_restore 8
 292              		.cfi_def_cfa 2, 16
 293 001e 4101     		addi	sp,sp,16
 294              		.cfi_def_cfa_offset 0
 295 0020 8280     		jr	ra
 296              		.cfi_endproc
 297              	.LFE354:
 299              		.section	.text.adc_discontinuous_mode_config,"ax",@progbits
 300              		.align	1
 301              		.globl	adc_discontinuous_mode_config
 303              	adc_discontinuous_mode_config:
 304              	.LFB355:
 165:../Firmware/GD32VW55x_standard_peripheral/Source/gd32vw55x_adc.c **** 
 166:../Firmware/GD32VW55x_standard_peripheral/Source/gd32vw55x_adc.c **** /*!
 167:../Firmware/GD32VW55x_standard_peripheral/Source/gd32vw55x_adc.c ****     \brief      configure ADC discontinuous mode
 168:../Firmware/GD32VW55x_standard_peripheral/Source/gd32vw55x_adc.c ****     \param[in]  channel_group: select the channel group
 169:../Firmware/GD32VW55x_standard_peripheral/Source/gd32vw55x_adc.c ****                 only one parameter can be selected which is shown as below:
 170:../Firmware/GD32VW55x_standard_peripheral/Source/gd32vw55x_adc.c ****       \arg        ADC_ROUTINE_CHANNEL: routine channel group
 171:../Firmware/GD32VW55x_standard_peripheral/Source/gd32vw55x_adc.c ****       \arg        ADC_INSERTED_CHANNEL: inserted channel group
 172:../Firmware/GD32VW55x_standard_peripheral/Source/gd32vw55x_adc.c ****       \arg        ADC_CHANNEL_DISCON_DISABLE: disable discontinuous mode of routine and inserted ch
 173:../Firmware/GD32VW55x_standard_peripheral/Source/gd32vw55x_adc.c ****     \param[in]  length: number of conversions in discontinuous mode,the number can be 1..8
 174:../Firmware/GD32VW55x_standard_peripheral/Source/gd32vw55x_adc.c ****                         for routine channel ,the number has no effect for inserted channel
 175:../Firmware/GD32VW55x_standard_peripheral/Source/gd32vw55x_adc.c ****     \param[out] none
 176:../Firmware/GD32VW55x_standard_peripheral/Source/gd32vw55x_adc.c ****     \retval     none
 177:../Firmware/GD32VW55x_standard_peripheral/Source/gd32vw55x_adc.c **** */
 178:../Firmware/GD32VW55x_standard_peripheral/Source/gd32vw55x_adc.c **** void adc_discontinuous_mode_config(uint8_t channel_group, uint8_t length)
 179:../Firmware/GD32VW55x_standard_peripheral/Source/gd32vw55x_adc.c **** {
 305              		.loc 1 179 1
 306              		.cfi_startproc
 307 0000 0111     		addi	sp,sp,-32
 308              		.cfi_def_cfa_offset 32
 309 0002 22CE     		sw	s0,28(sp)
 310              		.cfi_offset 8, -4
 311 0004 0010     		addi	s0,sp,32
 312              		.cfi_def_cfa 8, 0
 313 0006 AA87     		mv	a5,a0
 314 0008 2E87     		mv	a4,a1
 315 000a A307F4FE 		sb	a5,-17(s0)
 316 000e BA87     		mv	a5,a4
 317 0010 2307F4FE 		sb	a5,-18(s0)
 180:../Firmware/GD32VW55x_standard_peripheral/Source/gd32vw55x_adc.c ****     /* disable discontinuous mode of routine & inserted channel */
 181:../Firmware/GD32VW55x_standard_peripheral/Source/gd32vw55x_adc.c ****     ADC_CTL0 &= ~((uint32_t)( ADC_CTL0_DISRC | ADC_CTL0_DISIC ));
 318              		.loc 1 181 14
 319 0014 B7270140 		li	a5,1073815552
 320 0018 9107     		addi	a5,a5,4
 321 001a 9443     		lw	a3,0(a5)
 322 001c B7270140 		li	a5,1073815552
 323 0020 9107     		addi	a5,a5,4
 324 0022 7977     		li	a4,-8192
 325 0024 1307F77F 		addi	a4,a4,2047
 326 0028 758F     		and	a4,a3,a4
 327 002a 98C3     		sw	a4,0(a5)
 182:../Firmware/GD32VW55x_standard_peripheral/Source/gd32vw55x_adc.c ****     switch(channel_group){
 328              		.loc 1 182 5
 329 002c 8347F4FE 		lbu	a5,-17(s0)
 330 0030 0547     		li	a4,1
 331 0032 6386E700 		beq	a5,a4,.L12
 332 0036 0947     		li	a4,2
 333 0038 6384E706 		beq	a5,a4,.L13
 183:../Firmware/GD32VW55x_standard_peripheral/Source/gd32vw55x_adc.c ****     case ADC_ROUTINE_CHANNEL:
 184:../Firmware/GD32VW55x_standard_peripheral/Source/gd32vw55x_adc.c ****         /* configure the number of conversions in discontinuous mode  */
 185:../Firmware/GD32VW55x_standard_peripheral/Source/gd32vw55x_adc.c ****         ADC_CTL0 &= ~((uint32_t)ADC_CTL0_DISNUM);
 186:../Firmware/GD32VW55x_standard_peripheral/Source/gd32vw55x_adc.c ****         if((length <= 8U) && (length >= 1U)){
 187:../Firmware/GD32VW55x_standard_peripheral/Source/gd32vw55x_adc.c ****             ADC_CTL0 |= CTL0_DISNUM(((uint32_t)length - ADC_CHANNEL_LENGTH_SUBTRACT_ONE));
 188:../Firmware/GD32VW55x_standard_peripheral/Source/gd32vw55x_adc.c ****         }
 189:../Firmware/GD32VW55x_standard_peripheral/Source/gd32vw55x_adc.c ****         /* enable routine channel group discontinuous mode */
 190:../Firmware/GD32VW55x_standard_peripheral/Source/gd32vw55x_adc.c ****         ADC_CTL0 |= (uint32_t)ADC_CTL0_DISRC;
 191:../Firmware/GD32VW55x_standard_peripheral/Source/gd32vw55x_adc.c ****         break;
 192:../Firmware/GD32VW55x_standard_peripheral/Source/gd32vw55x_adc.c ****     case ADC_INSERTED_CHANNEL:
 193:../Firmware/GD32VW55x_standard_peripheral/Source/gd32vw55x_adc.c ****         /* enable inserted channel group discontinuous mode */
 194:../Firmware/GD32VW55x_standard_peripheral/Source/gd32vw55x_adc.c ****         ADC_CTL0 |= (uint32_t)ADC_CTL0_DISIC;
 195:../Firmware/GD32VW55x_standard_peripheral/Source/gd32vw55x_adc.c ****         break;
 196:../Firmware/GD32VW55x_standard_peripheral/Source/gd32vw55x_adc.c ****     case ADC_CHANNEL_DISCON_DISABLE:
 197:../Firmware/GD32VW55x_standard_peripheral/Source/gd32vw55x_adc.c ****         /* disable discontinuous mode of routine & inserted channel */
 198:../Firmware/GD32VW55x_standard_peripheral/Source/gd32vw55x_adc.c ****     default:
 199:../Firmware/GD32VW55x_standard_peripheral/Source/gd32vw55x_adc.c ****         break;
 334              		.loc 1 199 9
 335 003c ADA8     		j	.L16
 336              	.L12:
 185:../Firmware/GD32VW55x_standard_peripheral/Source/gd32vw55x_adc.c ****         if((length <= 8U) && (length >= 1U)){
 337              		.loc 1 185 18
 338 003e B7270140 		li	a5,1073815552
 339 0042 9107     		addi	a5,a5,4
 340 0044 9443     		lw	a3,0(a5)
 341 0046 B7270140 		li	a5,1073815552
 342 004a 9107     		addi	a5,a5,4
 343 004c 4977     		li	a4,-57344
 344 004e 7D17     		addi	a4,a4,-1
 345 0050 758F     		and	a4,a3,a4
 346 0052 98C3     		sw	a4,0(a5)
 186:../Firmware/GD32VW55x_standard_peripheral/Source/gd32vw55x_adc.c ****             ADC_CTL0 |= CTL0_DISNUM(((uint32_t)length - ADC_CHANNEL_LENGTH_SUBTRACT_ONE));
 347              		.loc 1 186 11
 348 0054 0347E4FE 		lbu	a4,-18(s0)
 349 0058 A147     		li	a5,8
 350 005a 63E6E702 		bgtu	a4,a5,.L15
 186:../Firmware/GD32VW55x_standard_peripheral/Source/gd32vw55x_adc.c ****             ADC_CTL0 |= CTL0_DISNUM(((uint32_t)length - ADC_CHANNEL_LENGTH_SUBTRACT_ONE));
 351              		.loc 1 186 27 discriminator 1
 352 005e 8347E4FE 		lbu	a5,-18(s0)
 353 0062 95C3     		beq	a5,zero,.L15
 187:../Firmware/GD32VW55x_standard_peripheral/Source/gd32vw55x_adc.c ****         }
 354              		.loc 1 187 22
 355 0064 B7270140 		li	a5,1073815552
 356 0068 9107     		addi	a5,a5,4
 357 006a 9443     		lw	a3,0(a5)
 187:../Firmware/GD32VW55x_standard_peripheral/Source/gd32vw55x_adc.c ****         }
 358              		.loc 1 187 25
 359 006c 8347E4FE 		lbu	a5,-18(s0)
 360 0070 FD17     		addi	a5,a5,-1
 361 0072 1397D700 		slli	a4,a5,13
 362 0076 C167     		li	a5,65536
 363 0078 FD17     		addi	a5,a5,-1
 364 007a 7D8F     		and	a4,a4,a5
 187:../Firmware/GD32VW55x_standard_peripheral/Source/gd32vw55x_adc.c ****         }
 365              		.loc 1 187 22
 366 007c B7270140 		li	a5,1073815552
 367 0080 9107     		addi	a5,a5,4
 368 0082 558F     		or	a4,a3,a4
 369 0084 98C3     		sw	a4,0(a5)
 370              	.L15:
 190:../Firmware/GD32VW55x_standard_peripheral/Source/gd32vw55x_adc.c ****         break;
 371              		.loc 1 190 18
 372 0086 B7270140 		li	a5,1073815552
 373 008a 9107     		addi	a5,a5,4
 374 008c 9443     		lw	a3,0(a5)
 375 008e B7270140 		li	a5,1073815552
 376 0092 9107     		addi	a5,a5,4
 377 0094 0567     		li	a4,4096
 378 0096 13070780 		addi	a4,a4,-2048
 379 009a 558F     		or	a4,a3,a4
 380 009c 98C3     		sw	a4,0(a5)
 191:../Firmware/GD32VW55x_standard_peripheral/Source/gd32vw55x_adc.c ****     case ADC_INSERTED_CHANNEL:
 381              		.loc 1 191 9
 382 009e 21A8     		j	.L16
 383              	.L13:
 194:../Firmware/GD32VW55x_standard_peripheral/Source/gd32vw55x_adc.c ****         break;
 384              		.loc 1 194 18
 385 00a0 B7270140 		li	a5,1073815552
 386 00a4 9107     		addi	a5,a5,4
 387 00a6 9443     		lw	a3,0(a5)
 388 00a8 B7270140 		li	a5,1073815552
 389 00ac 9107     		addi	a5,a5,4
 390 00ae 0567     		li	a4,4096
 391 00b0 558F     		or	a4,a3,a4
 392 00b2 98C3     		sw	a4,0(a5)
 195:../Firmware/GD32VW55x_standard_peripheral/Source/gd32vw55x_adc.c ****     case ADC_CHANNEL_DISCON_DISABLE:
 393              		.loc 1 195 9
 394 00b4 0100     		nop
 395              	.L16:
 200:../Firmware/GD32VW55x_standard_peripheral/Source/gd32vw55x_adc.c ****     }
 201:../Firmware/GD32VW55x_standard_peripheral/Source/gd32vw55x_adc.c **** }
 396              		.loc 1 201 1
 397 00b6 0100     		nop
 398 00b8 7244     		lw	s0,28(sp)
 399              		.cfi_restore 8
 400              		.cfi_def_cfa 2, 32
 401 00ba 0561     		addi	sp,sp,32
 402              		.cfi_def_cfa_offset 0
 403 00bc 8280     		jr	ra
 404              		.cfi_endproc
 405              	.LFE355:
 407              		.section	.text.adc_special_function_config,"ax",@progbits
 408              		.align	1
 409              		.globl	adc_special_function_config
 411              	adc_special_function_config:
 412              	.LFB356:
 202:../Firmware/GD32VW55x_standard_peripheral/Source/gd32vw55x_adc.c **** 
 203:../Firmware/GD32VW55x_standard_peripheral/Source/gd32vw55x_adc.c **** /*!
 204:../Firmware/GD32VW55x_standard_peripheral/Source/gd32vw55x_adc.c ****     \brief      configure ADC special function
 205:../Firmware/GD32VW55x_standard_peripheral/Source/gd32vw55x_adc.c ****     \param[in]  function: the function to configure
 206:../Firmware/GD32VW55x_standard_peripheral/Source/gd32vw55x_adc.c ****                 one or more parameters can be selected which is shown as below:
 207:../Firmware/GD32VW55x_standard_peripheral/Source/gd32vw55x_adc.c ****       \arg        ADC_SCAN_MODE: scan mode select
 208:../Firmware/GD32VW55x_standard_peripheral/Source/gd32vw55x_adc.c ****       \arg        ADC_INSERTED_CHANNEL_AUTO: inserted channel group convert automatically
 209:../Firmware/GD32VW55x_standard_peripheral/Source/gd32vw55x_adc.c ****       \arg        ADC_CONTINUOUS_MODE: continuous mode select
 210:../Firmware/GD32VW55x_standard_peripheral/Source/gd32vw55x_adc.c ****     \param[in]  newvalue: ENABLE or DISABLE
 211:../Firmware/GD32VW55x_standard_peripheral/Source/gd32vw55x_adc.c ****     \param[out] none
 212:../Firmware/GD32VW55x_standard_peripheral/Source/gd32vw55x_adc.c ****     \retval     none
 213:../Firmware/GD32VW55x_standard_peripheral/Source/gd32vw55x_adc.c **** */
 214:../Firmware/GD32VW55x_standard_peripheral/Source/gd32vw55x_adc.c **** void adc_special_function_config(uint32_t function, ControlStatus newvalue)
 215:../Firmware/GD32VW55x_standard_peripheral/Source/gd32vw55x_adc.c **** {
 413              		.loc 1 215 1
 414              		.cfi_startproc
 415 0000 0111     		addi	sp,sp,-32
 416              		.cfi_def_cfa_offset 32
 417 0002 22CE     		sw	s0,28(sp)
 418              		.cfi_offset 8, -4
 419 0004 0010     		addi	s0,sp,32
 420              		.cfi_def_cfa 8, 0
 421 0006 2326A4FE 		sw	a0,-20(s0)
 422 000a 2324B4FE 		sw	a1,-24(s0)
 216:../Firmware/GD32VW55x_standard_peripheral/Source/gd32vw55x_adc.c ****     if(newvalue){
 423              		.loc 1 216 7
 424 000e 832784FE 		lw	a5,-24(s0)
 425 0012 B1CF     		beq	a5,zero,.L18
 217:../Firmware/GD32VW55x_standard_peripheral/Source/gd32vw55x_adc.c ****         if(RESET != (function & ADC_SCAN_MODE)){
 426              		.loc 1 217 31
 427 0014 8327C4FE 		lw	a5,-20(s0)
 428 0018 93F70710 		andi	a5,a5,256
 429              		.loc 1 217 11
 430 001c 99CB     		beq	a5,zero,.L19
 218:../Firmware/GD32VW55x_standard_peripheral/Source/gd32vw55x_adc.c ****             /* enable scan mode */
 219:../Firmware/GD32VW55x_standard_peripheral/Source/gd32vw55x_adc.c ****             ADC_CTL0 |= ADC_SCAN_MODE;
 431              		.loc 1 219 22
 432 001e B7270140 		li	a5,1073815552
 433 0022 9107     		addi	a5,a5,4
 434 0024 9843     		lw	a4,0(a5)
 435 0026 B7270140 		li	a5,1073815552
 436 002a 9107     		addi	a5,a5,4
 437 002c 13670710 		ori	a4,a4,256
 438 0030 98C3     		sw	a4,0(a5)
 439              	.L19:
 220:../Firmware/GD32VW55x_standard_peripheral/Source/gd32vw55x_adc.c ****         }
 221:../Firmware/GD32VW55x_standard_peripheral/Source/gd32vw55x_adc.c ****         if(RESET != (function & ADC_INSERTED_CHANNEL_AUTO)){
 440              		.loc 1 221 31
 441 0032 8327C4FE 		lw	a5,-20(s0)
 442 0036 93F70740 		andi	a5,a5,1024
 443              		.loc 1 221 11
 444 003a 99CB     		beq	a5,zero,.L20
 222:../Firmware/GD32VW55x_standard_peripheral/Source/gd32vw55x_adc.c ****             /* enable inserted channel group convert automatically */
 223:../Firmware/GD32VW55x_standard_peripheral/Source/gd32vw55x_adc.c ****             ADC_CTL0 |= ADC_INSERTED_CHANNEL_AUTO;
 445              		.loc 1 223 22
 446 003c B7270140 		li	a5,1073815552
 447 0040 9107     		addi	a5,a5,4
 448 0042 9843     		lw	a4,0(a5)
 449 0044 B7270140 		li	a5,1073815552
 450 0048 9107     		addi	a5,a5,4
 451 004a 13670740 		ori	a4,a4,1024
 452 004e 98C3     		sw	a4,0(a5)
 453              	.L20:
 224:../Firmware/GD32VW55x_standard_peripheral/Source/gd32vw55x_adc.c ****         }
 225:../Firmware/GD32VW55x_standard_peripheral/Source/gd32vw55x_adc.c ****         if(RESET != (function & ADC_CONTINUOUS_MODE)){
 454              		.loc 1 225 31
 455 0050 8327C4FE 		lw	a5,-20(s0)
 456 0054 898B     		andi	a5,a5,2
 457              		.loc 1 225 11
 458 0056 BDC7     		beq	a5,zero,.L24
 226:../Firmware/GD32VW55x_standard_peripheral/Source/gd32vw55x_adc.c ****             /* enable continuous mode */
 227:../Firmware/GD32VW55x_standard_peripheral/Source/gd32vw55x_adc.c ****             ADC_CTL1 |= ADC_CONTINUOUS_MODE;
 459              		.loc 1 227 22
 460 0058 B7270140 		li	a5,1073815552
 461 005c A107     		addi	a5,a5,8
 462 005e 9843     		lw	a4,0(a5)
 463 0060 B7270140 		li	a5,1073815552
 464 0064 A107     		addi	a5,a5,8
 465 0066 13672700 		ori	a4,a4,2
 466 006a 98C3     		sw	a4,0(a5)
 228:../Firmware/GD32VW55x_standard_peripheral/Source/gd32vw55x_adc.c ****         }
 229:../Firmware/GD32VW55x_standard_peripheral/Source/gd32vw55x_adc.c ****     }else{
 230:../Firmware/GD32VW55x_standard_peripheral/Source/gd32vw55x_adc.c ****         if(RESET != (function & ADC_SCAN_MODE)){
 231:../Firmware/GD32VW55x_standard_peripheral/Source/gd32vw55x_adc.c ****             /* disable scan mode */
 232:../Firmware/GD32VW55x_standard_peripheral/Source/gd32vw55x_adc.c ****             ADC_CTL0 &= ~ADC_SCAN_MODE;
 233:../Firmware/GD32VW55x_standard_peripheral/Source/gd32vw55x_adc.c ****         }
 234:../Firmware/GD32VW55x_standard_peripheral/Source/gd32vw55x_adc.c ****         if(RESET != (function & ADC_INSERTED_CHANNEL_AUTO)){
 235:../Firmware/GD32VW55x_standard_peripheral/Source/gd32vw55x_adc.c ****             /* disable inserted channel group convert automatically */
 236:../Firmware/GD32VW55x_standard_peripheral/Source/gd32vw55x_adc.c ****             ADC_CTL0 &= ~ADC_INSERTED_CHANNEL_AUTO;
 237:../Firmware/GD32VW55x_standard_peripheral/Source/gd32vw55x_adc.c ****         }
 238:../Firmware/GD32VW55x_standard_peripheral/Source/gd32vw55x_adc.c ****         if(RESET != (function & ADC_CONTINUOUS_MODE)){
 239:../Firmware/GD32VW55x_standard_peripheral/Source/gd32vw55x_adc.c ****             /* disable continuous mode */
 240:../Firmware/GD32VW55x_standard_peripheral/Source/gd32vw55x_adc.c ****             ADC_CTL1 &= ~ADC_CONTINUOUS_MODE;
 241:../Firmware/GD32VW55x_standard_peripheral/Source/gd32vw55x_adc.c ****         }
 242:../Firmware/GD32VW55x_standard_peripheral/Source/gd32vw55x_adc.c ****     }
 243:../Firmware/GD32VW55x_standard_peripheral/Source/gd32vw55x_adc.c **** }
 467              		.loc 1 243 1
 468 006c A1A8     		j	.L24
 469              	.L18:
 230:../Firmware/GD32VW55x_standard_peripheral/Source/gd32vw55x_adc.c ****             /* disable scan mode */
 470              		.loc 1 230 31
 471 006e 8327C4FE 		lw	a5,-20(s0)
 472 0072 93F70710 		andi	a5,a5,256
 230:../Firmware/GD32VW55x_standard_peripheral/Source/gd32vw55x_adc.c ****             /* disable scan mode */
 473              		.loc 1 230 11
 474 0076 99CB     		beq	a5,zero,.L22
 232:../Firmware/GD32VW55x_standard_peripheral/Source/gd32vw55x_adc.c ****         }
 475              		.loc 1 232 22
 476 0078 B7270140 		li	a5,1073815552
 477 007c 9107     		addi	a5,a5,4
 478 007e 9843     		lw	a4,0(a5)
 479 0080 B7270140 		li	a5,1073815552
 480 0084 9107     		addi	a5,a5,4
 481 0086 1377F7EF 		andi	a4,a4,-257
 482 008a 98C3     		sw	a4,0(a5)
 483              	.L22:
 234:../Firmware/GD32VW55x_standard_peripheral/Source/gd32vw55x_adc.c ****             /* disable inserted channel group convert automatically */
 484              		.loc 1 234 31
 485 008c 8327C4FE 		lw	a5,-20(s0)
 486 0090 93F70740 		andi	a5,a5,1024
 234:../Firmware/GD32VW55x_standard_peripheral/Source/gd32vw55x_adc.c ****             /* disable inserted channel group convert automatically */
 487              		.loc 1 234 11
 488 0094 99CB     		beq	a5,zero,.L23
 236:../Firmware/GD32VW55x_standard_peripheral/Source/gd32vw55x_adc.c ****         }
 489              		.loc 1 236 22
 490 0096 B7270140 		li	a5,1073815552
 491 009a 9107     		addi	a5,a5,4
 492 009c 9843     		lw	a4,0(a5)
 493 009e B7270140 		li	a5,1073815552
 494 00a2 9107     		addi	a5,a5,4
 495 00a4 1377F7BF 		andi	a4,a4,-1025
 496 00a8 98C3     		sw	a4,0(a5)
 497              	.L23:
 238:../Firmware/GD32VW55x_standard_peripheral/Source/gd32vw55x_adc.c ****             /* disable continuous mode */
 498              		.loc 1 238 31
 499 00aa 8327C4FE 		lw	a5,-20(s0)
 500 00ae 898B     		andi	a5,a5,2
 238:../Firmware/GD32VW55x_standard_peripheral/Source/gd32vw55x_adc.c ****             /* disable continuous mode */
 501              		.loc 1 238 11
 502 00b0 91CB     		beq	a5,zero,.L24
 240:../Firmware/GD32VW55x_standard_peripheral/Source/gd32vw55x_adc.c ****         }
 503              		.loc 1 240 22
 504 00b2 B7270140 		li	a5,1073815552
 505 00b6 A107     		addi	a5,a5,8
 506 00b8 9843     		lw	a4,0(a5)
 507 00ba B7270140 		li	a5,1073815552
 508 00be A107     		addi	a5,a5,8
 509 00c0 759B     		andi	a4,a4,-3
 510 00c2 98C3     		sw	a4,0(a5)
 511              	.L24:
 512              		.loc 1 243 1
 513 00c4 0100     		nop
 514 00c6 7244     		lw	s0,28(sp)
 515              		.cfi_restore 8
 516              		.cfi_def_cfa 2, 32
 517 00c8 0561     		addi	sp,sp,32
 518              		.cfi_def_cfa_offset 0
 519 00ca 8280     		jr	ra
 520              		.cfi_endproc
 521              	.LFE356:
 523              		.section	.text.adc_tempsensor_vrefint_enable,"ax",@progbits
 524              		.align	1
 525              		.globl	adc_tempsensor_vrefint_enable
 527              	adc_tempsensor_vrefint_enable:
 528              	.LFB357:
 244:../Firmware/GD32VW55x_standard_peripheral/Source/gd32vw55x_adc.c **** 
 245:../Firmware/GD32VW55x_standard_peripheral/Source/gd32vw55x_adc.c **** /*!
 246:../Firmware/GD32VW55x_standard_peripheral/Source/gd32vw55x_adc.c ****     \brief      enable the temperature sensor and Vrefint channel
 247:../Firmware/GD32VW55x_standard_peripheral/Source/gd32vw55x_adc.c ****     \param[in]  none
 248:../Firmware/GD32VW55x_standard_peripheral/Source/gd32vw55x_adc.c ****     \param[out] none
 249:../Firmware/GD32VW55x_standard_peripheral/Source/gd32vw55x_adc.c ****     \retval     none
 250:../Firmware/GD32VW55x_standard_peripheral/Source/gd32vw55x_adc.c **** */
 251:../Firmware/GD32VW55x_standard_peripheral/Source/gd32vw55x_adc.c **** void adc_tempsensor_vrefint_enable(void)
 252:../Firmware/GD32VW55x_standard_peripheral/Source/gd32vw55x_adc.c **** {
 529              		.loc 1 252 1
 530              		.cfi_startproc
 531 0000 4111     		addi	sp,sp,-16
 532              		.cfi_def_cfa_offset 16
 533 0002 22C6     		sw	s0,12(sp)
 534              		.cfi_offset 8, -4
 535 0004 0008     		addi	s0,sp,16
 536              		.cfi_def_cfa 8, 0
 253:../Firmware/GD32VW55x_standard_peripheral/Source/gd32vw55x_adc.c ****     /* enable the temperature sensor and Vrefint channel */
 254:../Firmware/GD32VW55x_standard_peripheral/Source/gd32vw55x_adc.c ****     ADC_CCTL |= ADC_CCTL_TSVREN;
 537              		.loc 1 254 14
 538 0006 B7270140 		li	a5,1073815552
 539 000a 93874730 		addi	a5,a5,772
 540 000e 9443     		lw	a3,0(a5)
 541 0010 B7270140 		li	a5,1073815552
 542 0014 93874730 		addi	a5,a5,772
 543 0018 37078000 		li	a4,8388608
 544 001c 558F     		or	a4,a3,a4
 545 001e 98C3     		sw	a4,0(a5)
 255:../Firmware/GD32VW55x_standard_peripheral/Source/gd32vw55x_adc.c **** }
 546              		.loc 1 255 1
 547 0020 0100     		nop
 548 0022 3244     		lw	s0,12(sp)
 549              		.cfi_restore 8
 550              		.cfi_def_cfa 2, 16
 551 0024 4101     		addi	sp,sp,16
 552              		.cfi_def_cfa_offset 0
 553 0026 8280     		jr	ra
 554              		.cfi_endproc
 555              	.LFE357:
 557              		.section	.text.adc_tempsensor_vrefint_disable,"ax",@progbits
 558              		.align	1
 559              		.globl	adc_tempsensor_vrefint_disable
 561              	adc_tempsensor_vrefint_disable:
 562              	.LFB358:
 256:../Firmware/GD32VW55x_standard_peripheral/Source/gd32vw55x_adc.c **** 
 257:../Firmware/GD32VW55x_standard_peripheral/Source/gd32vw55x_adc.c **** /*!
 258:../Firmware/GD32VW55x_standard_peripheral/Source/gd32vw55x_adc.c ****     \brief      disable the temperature sensor and Vrefint channel
 259:../Firmware/GD32VW55x_standard_peripheral/Source/gd32vw55x_adc.c ****     \param[in]  none
 260:../Firmware/GD32VW55x_standard_peripheral/Source/gd32vw55x_adc.c ****     \param[out] none
 261:../Firmware/GD32VW55x_standard_peripheral/Source/gd32vw55x_adc.c ****     \retval     none
 262:../Firmware/GD32VW55x_standard_peripheral/Source/gd32vw55x_adc.c **** */
 263:../Firmware/GD32VW55x_standard_peripheral/Source/gd32vw55x_adc.c **** void adc_tempsensor_vrefint_disable(void)
 264:../Firmware/GD32VW55x_standard_peripheral/Source/gd32vw55x_adc.c **** {
 563              		.loc 1 264 1
 564              		.cfi_startproc
 565 0000 4111     		addi	sp,sp,-16
 566              		.cfi_def_cfa_offset 16
 567 0002 22C6     		sw	s0,12(sp)
 568              		.cfi_offset 8, -4
 569 0004 0008     		addi	s0,sp,16
 570              		.cfi_def_cfa 8, 0
 265:../Firmware/GD32VW55x_standard_peripheral/Source/gd32vw55x_adc.c ****     /* disable the temperature sensor and Vrefint channel */
 266:../Firmware/GD32VW55x_standard_peripheral/Source/gd32vw55x_adc.c ****     ADC_CCTL &= ~ADC_CCTL_TSVREN;
 571              		.loc 1 266 14
 572 0006 B7270140 		li	a5,1073815552
 573 000a 93874730 		addi	a5,a5,772
 574 000e 9443     		lw	a3,0(a5)
 575 0010 B7270140 		li	a5,1073815552
 576 0014 93874730 		addi	a5,a5,772
 577 0018 370780FF 		li	a4,-8388608
 578 001c 7D17     		addi	a4,a4,-1
 579 001e 758F     		and	a4,a3,a4
 580 0020 98C3     		sw	a4,0(a5)
 267:../Firmware/GD32VW55x_standard_peripheral/Source/gd32vw55x_adc.c **** }
 581              		.loc 1 267 1
 582 0022 0100     		nop
 583 0024 3244     		lw	s0,12(sp)
 584              		.cfi_restore 8
 585              		.cfi_def_cfa 2, 16
 586 0026 4101     		addi	sp,sp,16
 587              		.cfi_def_cfa_offset 0
 588 0028 8280     		jr	ra
 589              		.cfi_endproc
 590              	.LFE358:
 592              		.section	.text.adc_data_alignment_config,"ax",@progbits
 593              		.align	1
 594              		.globl	adc_data_alignment_config
 596              	adc_data_alignment_config:
 597              	.LFB359:
 268:../Firmware/GD32VW55x_standard_peripheral/Source/gd32vw55x_adc.c **** 
 269:../Firmware/GD32VW55x_standard_peripheral/Source/gd32vw55x_adc.c **** /*!
 270:../Firmware/GD32VW55x_standard_peripheral/Source/gd32vw55x_adc.c ****     \brief      configure ADC data alignment
 271:../Firmware/GD32VW55x_standard_peripheral/Source/gd32vw55x_adc.c ****     \param[in]  data_alignment: data alignment select
 272:../Firmware/GD32VW55x_standard_peripheral/Source/gd32vw55x_adc.c ****                 only one parameter can be selected which is shown as below:
 273:../Firmware/GD32VW55x_standard_peripheral/Source/gd32vw55x_adc.c ****       \arg        ADC_DATAALIGN_RIGHT: right alignment
 274:../Firmware/GD32VW55x_standard_peripheral/Source/gd32vw55x_adc.c ****       \arg        ADC_DATAALIGN_LEFT: left alignment
 275:../Firmware/GD32VW55x_standard_peripheral/Source/gd32vw55x_adc.c ****     \param[out] none
 276:../Firmware/GD32VW55x_standard_peripheral/Source/gd32vw55x_adc.c ****     \retval     none
 277:../Firmware/GD32VW55x_standard_peripheral/Source/gd32vw55x_adc.c **** */
 278:../Firmware/GD32VW55x_standard_peripheral/Source/gd32vw55x_adc.c **** void adc_data_alignment_config(uint32_t data_alignment)
 279:../Firmware/GD32VW55x_standard_peripheral/Source/gd32vw55x_adc.c **** {
 598              		.loc 1 279 1
 599              		.cfi_startproc
 600 0000 0111     		addi	sp,sp,-32
 601              		.cfi_def_cfa_offset 32
 602 0002 22CE     		sw	s0,28(sp)
 603              		.cfi_offset 8, -4
 604 0004 0010     		addi	s0,sp,32
 605              		.cfi_def_cfa 8, 0
 606 0006 2326A4FE 		sw	a0,-20(s0)
 280:../Firmware/GD32VW55x_standard_peripheral/Source/gd32vw55x_adc.c ****     if(ADC_DATAALIGN_RIGHT != data_alignment){
 607              		.loc 1 280 7
 608 000a 8327C4FE 		lw	a5,-20(s0)
 609 000e 91CF     		beq	a5,zero,.L28
 281:../Firmware/GD32VW55x_standard_peripheral/Source/gd32vw55x_adc.c ****         /* left alignment */
 282:../Firmware/GD32VW55x_standard_peripheral/Source/gd32vw55x_adc.c ****         ADC_CTL1 |= ADC_CTL1_DAL;
 610              		.loc 1 282 18
 611 0010 B7270140 		li	a5,1073815552
 612 0014 A107     		addi	a5,a5,8
 613 0016 9443     		lw	a3,0(a5)
 614 0018 B7270140 		li	a5,1073815552
 615 001c A107     		addi	a5,a5,8
 616 001e 0567     		li	a4,4096
 617 0020 13070780 		addi	a4,a4,-2048
 618 0024 558F     		or	a4,a3,a4
 619 0026 98C3     		sw	a4,0(a5)
 283:../Firmware/GD32VW55x_standard_peripheral/Source/gd32vw55x_adc.c ****     }else{
 284:../Firmware/GD32VW55x_standard_peripheral/Source/gd32vw55x_adc.c ****         /* right alignment */
 285:../Firmware/GD32VW55x_standard_peripheral/Source/gd32vw55x_adc.c ****         ADC_CTL1 &= ~((uint32_t)ADC_CTL1_DAL);
 286:../Firmware/GD32VW55x_standard_peripheral/Source/gd32vw55x_adc.c ****     }
 287:../Firmware/GD32VW55x_standard_peripheral/Source/gd32vw55x_adc.c **** }
 620              		.loc 1 287 1
 621 0028 29A8     		j	.L30
 622              	.L28:
 285:../Firmware/GD32VW55x_standard_peripheral/Source/gd32vw55x_adc.c ****     }
 623              		.loc 1 285 18
 624 002a B7270140 		li	a5,1073815552
 625 002e A107     		addi	a5,a5,8
 626 0030 9443     		lw	a3,0(a5)
 627 0032 B7270140 		li	a5,1073815552
 628 0036 A107     		addi	a5,a5,8
 629 0038 7D77     		li	a4,-4096
 630 003a 1307F77F 		addi	a4,a4,2047
 631 003e 758F     		and	a4,a3,a4
 632 0040 98C3     		sw	a4,0(a5)
 633              	.L30:
 634              		.loc 1 287 1
 635 0042 0100     		nop
 636 0044 7244     		lw	s0,28(sp)
 637              		.cfi_restore 8
 638              		.cfi_def_cfa 2, 32
 639 0046 0561     		addi	sp,sp,32
 640              		.cfi_def_cfa_offset 0
 641 0048 8280     		jr	ra
 642              		.cfi_endproc
 643              	.LFE359:
 645              		.section	.text.adc_channel_length_config,"ax",@progbits
 646              		.align	1
 647              		.globl	adc_channel_length_config
 649              	adc_channel_length_config:
 650              	.LFB360:
 288:../Firmware/GD32VW55x_standard_peripheral/Source/gd32vw55x_adc.c **** 
 289:../Firmware/GD32VW55x_standard_peripheral/Source/gd32vw55x_adc.c **** /*!
 290:../Firmware/GD32VW55x_standard_peripheral/Source/gd32vw55x_adc.c ****     \brief      configure the length of routine channel group or inserted channel group
 291:../Firmware/GD32VW55x_standard_peripheral/Source/gd32vw55x_adc.c ****     \param[in]  channel_group: select the channel group
 292:../Firmware/GD32VW55x_standard_peripheral/Source/gd32vw55x_adc.c ****                 only one parameter can be selected which is shown as below:
 293:../Firmware/GD32VW55x_standard_peripheral/Source/gd32vw55x_adc.c ****       \arg        ADC_ROUTINE_CHANNEL: routine channel group
 294:../Firmware/GD32VW55x_standard_peripheral/Source/gd32vw55x_adc.c ****       \arg        ADC_INSERTED_CHANNEL: inserted channel group
 295:../Firmware/GD32VW55x_standard_peripheral/Source/gd32vw55x_adc.c ****     \param[in]  length: the length of the channel
 296:../Firmware/GD32VW55x_standard_peripheral/Source/gd32vw55x_adc.c ****                         routine channel 1-9
 297:../Firmware/GD32VW55x_standard_peripheral/Source/gd32vw55x_adc.c ****                         inserted channel 1-4
 298:../Firmware/GD32VW55x_standard_peripheral/Source/gd32vw55x_adc.c ****     \param[out] none
 299:../Firmware/GD32VW55x_standard_peripheral/Source/gd32vw55x_adc.c ****     \retval     none
 300:../Firmware/GD32VW55x_standard_peripheral/Source/gd32vw55x_adc.c **** */
 301:../Firmware/GD32VW55x_standard_peripheral/Source/gd32vw55x_adc.c **** void adc_channel_length_config(uint8_t channel_group, uint32_t length)
 302:../Firmware/GD32VW55x_standard_peripheral/Source/gd32vw55x_adc.c **** {
 651              		.loc 1 302 1
 652              		.cfi_startproc
 653 0000 0111     		addi	sp,sp,-32
 654              		.cfi_def_cfa_offset 32
 655 0002 22CE     		sw	s0,28(sp)
 656              		.cfi_offset 8, -4
 657 0004 0010     		addi	s0,sp,32
 658              		.cfi_def_cfa 8, 0
 659 0006 AA87     		mv	a5,a0
 660 0008 2324B4FE 		sw	a1,-24(s0)
 661 000c A307F4FE 		sb	a5,-17(s0)
 303:../Firmware/GD32VW55x_standard_peripheral/Source/gd32vw55x_adc.c ****     switch(channel_group){
 662              		.loc 1 303 5
 663 0010 8347F4FE 		lbu	a5,-17(s0)
 664 0014 0547     		li	a4,1
 665 0016 6386E700 		beq	a5,a4,.L32
 666 001a 0947     		li	a4,2
 667 001c 638DE704 		beq	a5,a4,.L33
 304:../Firmware/GD32VW55x_standard_peripheral/Source/gd32vw55x_adc.c ****     case ADC_ROUTINE_CHANNEL:
 305:../Firmware/GD32VW55x_standard_peripheral/Source/gd32vw55x_adc.c ****         /* configure the length of routine channel group */
 306:../Firmware/GD32VW55x_standard_peripheral/Source/gd32vw55x_adc.c ****         if((length >= 1U) && (length <= 9U)){
 307:../Firmware/GD32VW55x_standard_peripheral/Source/gd32vw55x_adc.c ****             ADC_RSQ0 &= ~((uint32_t)ADC_RSQ0_RL);
 308:../Firmware/GD32VW55x_standard_peripheral/Source/gd32vw55x_adc.c ****             ADC_RSQ0 |= RSQ0_RL((uint32_t)(length - ADC_CHANNEL_LENGTH_SUBTRACT_ONE));
 309:../Firmware/GD32VW55x_standard_peripheral/Source/gd32vw55x_adc.c ****         }
 310:../Firmware/GD32VW55x_standard_peripheral/Source/gd32vw55x_adc.c ****         break;
 311:../Firmware/GD32VW55x_standard_peripheral/Source/gd32vw55x_adc.c ****     case ADC_INSERTED_CHANNEL:
 312:../Firmware/GD32VW55x_standard_peripheral/Source/gd32vw55x_adc.c ****         /* configure the length of inserted channel group */
 313:../Firmware/GD32VW55x_standard_peripheral/Source/gd32vw55x_adc.c ****         if((length >= 1U) && (length <= 4U)){
 314:../Firmware/GD32VW55x_standard_peripheral/Source/gd32vw55x_adc.c ****             ADC_ISQ &= ~((uint32_t)ADC_ISQ_IL);
 315:../Firmware/GD32VW55x_standard_peripheral/Source/gd32vw55x_adc.c ****             ADC_ISQ |= ISQ_IL((uint32_t)(length - ADC_CHANNEL_LENGTH_SUBTRACT_ONE));
 316:../Firmware/GD32VW55x_standard_peripheral/Source/gd32vw55x_adc.c ****         }
 317:../Firmware/GD32VW55x_standard_peripheral/Source/gd32vw55x_adc.c ****         break;
 318:../Firmware/GD32VW55x_standard_peripheral/Source/gd32vw55x_adc.c ****     default:
 319:../Firmware/GD32VW55x_standard_peripheral/Source/gd32vw55x_adc.c ****         break;
 668              		.loc 1 319 9
 669 0020 45A8     		j	.L36
 670              	.L32:
 306:../Firmware/GD32VW55x_standard_peripheral/Source/gd32vw55x_adc.c ****             ADC_RSQ0 &= ~((uint32_t)ADC_RSQ0_RL);
 671              		.loc 1 306 11
 672 0022 832784FE 		lw	a5,-24(s0)
 673 0026 D5C3     		beq	a5,zero,.L38
 306:../Firmware/GD32VW55x_standard_peripheral/Source/gd32vw55x_adc.c ****             ADC_RSQ0 &= ~((uint32_t)ADC_RSQ0_RL);
 674              		.loc 1 306 27 discriminator 1
 675 0028 032784FE 		lw	a4,-24(s0)
 676 002c A547     		li	a5,9
 677 002e 63EEE708 		bgtu	a4,a5,.L38
 307:../Firmware/GD32VW55x_standard_peripheral/Source/gd32vw55x_adc.c ****             ADC_RSQ0 |= RSQ0_RL((uint32_t)(length - ADC_CHANNEL_LENGTH_SUBTRACT_ONE));
 678              		.loc 1 307 22
 679 0032 B7270140 		li	a5,1073815552
 680 0036 9387C702 		addi	a5,a5,44
 681 003a 9443     		lw	a3,0(a5)
 682 003c B7270140 		li	a5,1073815552
 683 0040 9387C702 		addi	a5,a5,44
 684 0044 370710FF 		li	a4,-15728640
 685 0048 7D17     		addi	a4,a4,-1
 686 004a 758F     		and	a4,a3,a4
 687 004c 98C3     		sw	a4,0(a5)
 308:../Firmware/GD32VW55x_standard_peripheral/Source/gd32vw55x_adc.c ****         }
 688              		.loc 1 308 22
 689 004e B7270140 		li	a5,1073815552
 690 0052 9387C702 		addi	a5,a5,44
 691 0056 9443     		lw	a3,0(a5)
 308:../Firmware/GD32VW55x_standard_peripheral/Source/gd32vw55x_adc.c ****         }
 692              		.loc 1 308 25
 693 0058 832784FE 		lw	a5,-24(s0)
 694 005c FD17     		addi	a5,a5,-1
 695 005e 13974701 		slli	a4,a5,20
 696 0062 B707F000 		li	a5,15728640
 697 0066 7D8F     		and	a4,a4,a5
 308:../Firmware/GD32VW55x_standard_peripheral/Source/gd32vw55x_adc.c ****         }
 698              		.loc 1 308 22
 699 0068 B7270140 		li	a5,1073815552
 700 006c 9387C702 		addi	a5,a5,44
 701 0070 558F     		or	a4,a3,a4
 702 0072 98C3     		sw	a4,0(a5)
 310:../Firmware/GD32VW55x_standard_peripheral/Source/gd32vw55x_adc.c ****     case ADC_INSERTED_CHANNEL:
 703              		.loc 1 310 9
 704 0074 99A8     		j	.L38
 705              	.L33:
 313:../Firmware/GD32VW55x_standard_peripheral/Source/gd32vw55x_adc.c ****             ADC_ISQ &= ~((uint32_t)ADC_ISQ_IL);
 706              		.loc 1 313 11
 707 0076 832784FE 		lw	a5,-24(s0)
 708 007a B1CB     		beq	a5,zero,.L39
 313:../Firmware/GD32VW55x_standard_peripheral/Source/gd32vw55x_adc.c ****             ADC_ISQ &= ~((uint32_t)ADC_ISQ_IL);
 709              		.loc 1 313 27 discriminator 1
 710 007c 032784FE 		lw	a4,-24(s0)
 711 0080 9147     		li	a5,4
 712 0082 63E6E704 		bgtu	a4,a5,.L39
 314:../Firmware/GD32VW55x_standard_peripheral/Source/gd32vw55x_adc.c ****             ADC_ISQ |= ISQ_IL((uint32_t)(length - ADC_CHANNEL_LENGTH_SUBTRACT_ONE));
 713              		.loc 1 314 21
 714 0086 B7270140 		li	a5,1073815552
 715 008a 93878703 		addi	a5,a5,56
 716 008e 9443     		lw	a3,0(a5)
 717 0090 B7270140 		li	a5,1073815552
 718 0094 93878703 		addi	a5,a5,56
 719 0098 3707D0FF 		li	a4,-3145728
 720 009c 7D17     		addi	a4,a4,-1
 721 009e 758F     		and	a4,a3,a4
 722 00a0 98C3     		sw	a4,0(a5)
 315:../Firmware/GD32VW55x_standard_peripheral/Source/gd32vw55x_adc.c ****         }
 723              		.loc 1 315 21
 724 00a2 B7270140 		li	a5,1073815552
 725 00a6 93878703 		addi	a5,a5,56
 726 00aa 9443     		lw	a3,0(a5)
 315:../Firmware/GD32VW55x_standard_peripheral/Source/gd32vw55x_adc.c ****         }
 727              		.loc 1 315 24
 728 00ac 832784FE 		lw	a5,-24(s0)
 729 00b0 FD17     		addi	a5,a5,-1
 730 00b2 13974701 		slli	a4,a5,20
 731 00b6 B7073000 		li	a5,3145728
 732 00ba 7D8F     		and	a4,a4,a5
 315:../Firmware/GD32VW55x_standard_peripheral/Source/gd32vw55x_adc.c ****         }
 733              		.loc 1 315 21
 734 00bc B7270140 		li	a5,1073815552
 735 00c0 93878703 		addi	a5,a5,56
 736 00c4 558F     		or	a4,a3,a4
 737 00c6 98C3     		sw	a4,0(a5)
 317:../Firmware/GD32VW55x_standard_peripheral/Source/gd32vw55x_adc.c ****     default:
 738              		.loc 1 317 9
 739 00c8 19A0     		j	.L39
 740              	.L38:
 310:../Firmware/GD32VW55x_standard_peripheral/Source/gd32vw55x_adc.c ****     case ADC_INSERTED_CHANNEL:
 741              		.loc 1 310 9
 742 00ca 0100     		nop
 743 00cc 11A0     		j	.L40
 744              	.L39:
 317:../Firmware/GD32VW55x_standard_peripheral/Source/gd32vw55x_adc.c ****     default:
 745              		.loc 1 317 9
 746 00ce 0100     		nop
 747              	.L36:
 748              	.L40:
 320:../Firmware/GD32VW55x_standard_peripheral/Source/gd32vw55x_adc.c ****     }
 321:../Firmware/GD32VW55x_standard_peripheral/Source/gd32vw55x_adc.c **** }
 749              		.loc 1 321 1
 750 00d0 0100     		nop
 751 00d2 7244     		lw	s0,28(sp)
 752              		.cfi_restore 8
 753              		.cfi_def_cfa 2, 32
 754 00d4 0561     		addi	sp,sp,32
 755              		.cfi_def_cfa_offset 0
 756 00d6 8280     		jr	ra
 757              		.cfi_endproc
 758              	.LFE360:
 760              		.section	.text.adc_routine_channel_config,"ax",@progbits
 761              		.align	1
 762              		.globl	adc_routine_channel_config
 764              	adc_routine_channel_config:
 765              	.LFB361:
 322:../Firmware/GD32VW55x_standard_peripheral/Source/gd32vw55x_adc.c **** 
 323:../Firmware/GD32VW55x_standard_peripheral/Source/gd32vw55x_adc.c **** /*!
 324:../Firmware/GD32VW55x_standard_peripheral/Source/gd32vw55x_adc.c ****     \brief      configure ADC routine channel
 325:../Firmware/GD32VW55x_standard_peripheral/Source/gd32vw55x_adc.c ****     \param[in]  rank: the routine group sequence rank, this parameter must be between 0 to 8
 326:../Firmware/GD32VW55x_standard_peripheral/Source/gd32vw55x_adc.c ****     \param[in]  channel: the selected ADC channel
 327:../Firmware/GD32VW55x_standard_peripheral/Source/gd32vw55x_adc.c ****                 only one parameter can be selected which is shown as below:
 328:../Firmware/GD32VW55x_standard_peripheral/Source/gd32vw55x_adc.c ****       \arg        ADC_CHANNEL_x(x=0..10): ADC Channelx
 329:../Firmware/GD32VW55x_standard_peripheral/Source/gd32vw55x_adc.c ****     \param[in]  sample_time: the sample time value
 330:../Firmware/GD32VW55x_standard_peripheral/Source/gd32vw55x_adc.c ****                 only one parameter can be selected which is shown as below:
 331:../Firmware/GD32VW55x_standard_peripheral/Source/gd32vw55x_adc.c ****       \arg        ADC_SAMPLETIME_1POINT5: 1.5 cycle
 332:../Firmware/GD32VW55x_standard_peripheral/Source/gd32vw55x_adc.c ****       \arg        ADC_SAMPLETIME_2POINT5: 2.5 cycles
 333:../Firmware/GD32VW55x_standard_peripheral/Source/gd32vw55x_adc.c ****       \arg        ADC_SAMPLETIME_14POINT5: 14.5 cycles
 334:../Firmware/GD32VW55x_standard_peripheral/Source/gd32vw55x_adc.c ****       \arg        ADC_SAMPLETIME_27POINT5: 27.5 cycles
 335:../Firmware/GD32VW55x_standard_peripheral/Source/gd32vw55x_adc.c ****       \arg        ADC_SAMPLETIME_55POINT5: 55.5 cycles
 336:../Firmware/GD32VW55x_standard_peripheral/Source/gd32vw55x_adc.c ****       \arg        ADC_SAMPLETIME_83POINT5: 83.5 cycles
 337:../Firmware/GD32VW55x_standard_peripheral/Source/gd32vw55x_adc.c ****       \arg        ADC_SAMPLETIME_111POINT5: 111.5 cycles
 338:../Firmware/GD32VW55x_standard_peripheral/Source/gd32vw55x_adc.c ****       \arg        ADC_SAMPLETIME_143POINT5: 143.5 cycles
 339:../Firmware/GD32VW55x_standard_peripheral/Source/gd32vw55x_adc.c ****       \arg        ADC_SAMPLETIME_479POINT5: 479.5 cycles
 340:../Firmware/GD32VW55x_standard_peripheral/Source/gd32vw55x_adc.c ****     \param[out] none
 341:../Firmware/GD32VW55x_standard_peripheral/Source/gd32vw55x_adc.c ****     \retval     none
 342:../Firmware/GD32VW55x_standard_peripheral/Source/gd32vw55x_adc.c **** */
 343:../Firmware/GD32VW55x_standard_peripheral/Source/gd32vw55x_adc.c **** void adc_routine_channel_config(uint8_t rank, uint8_t channel, uint32_t sample_time)
 344:../Firmware/GD32VW55x_standard_peripheral/Source/gd32vw55x_adc.c **** {
 766              		.loc 1 344 1
 767              		.cfi_startproc
 768 0000 7971     		addi	sp,sp,-48
 769              		.cfi_def_cfa_offset 48
 770 0002 22D6     		sw	s0,44(sp)
 771              		.cfi_offset 8, -4
 772 0004 0018     		addi	s0,sp,48
 773              		.cfi_def_cfa 8, 0
 774 0006 AA87     		mv	a5,a0
 775 0008 2E87     		mv	a4,a1
 776 000a 232CC4FC 		sw	a2,-40(s0)
 777 000e A30FF4FC 		sb	a5,-33(s0)
 778 0012 BA87     		mv	a5,a4
 779 0014 230FF4FC 		sb	a5,-34(s0)
 345:../Firmware/GD32VW55x_standard_peripheral/Source/gd32vw55x_adc.c ****     uint32_t rsq,sampt;
 346:../Firmware/GD32VW55x_standard_peripheral/Source/gd32vw55x_adc.c **** 
 347:../Firmware/GD32VW55x_standard_peripheral/Source/gd32vw55x_adc.c ****     /* configure ADC routine sequence */
 348:../Firmware/GD32VW55x_standard_peripheral/Source/gd32vw55x_adc.c ****     if(rank < ADC_ROUTINE_CHANNEL_RANK_SIX){
 780              		.loc 1 348 7
 781 0018 0347F4FD 		lbu	a4,-33(s0)
 782 001c 9547     		li	a5,5
 783 001e 63EEE704 		bgtu	a4,a5,.L42
 349:../Firmware/GD32VW55x_standard_peripheral/Source/gd32vw55x_adc.c ****         /* the routine group sequence rank is smaller than six */
 350:../Firmware/GD32VW55x_standard_peripheral/Source/gd32vw55x_adc.c ****         rsq = ADC_RSQ2;
 784              		.loc 1 350 15
 785 0022 B7270140 		li	a5,1073815552
 786 0026 93874703 		addi	a5,a5,52
 787              		.loc 1 350 13
 788 002a 9C43     		lw	a5,0(a5)
 789 002c 2326F4FE 		sw	a5,-20(s0)
 351:../Firmware/GD32VW55x_standard_peripheral/Source/gd32vw55x_adc.c ****         rsq &=  ~((uint32_t)(ADC_RSQX_RSQN << (ADC_ROUTINE_CHANNEL_RANK_LENGTH * rank)));
 790              		.loc 1 351 80
 791 0030 0347F4FD 		lbu	a4,-33(s0)
 792 0034 BA87     		mv	a5,a4
 793 0036 8A07     		slli	a5,a5,2
 794 0038 BA97     		add	a5,a5,a4
 795              		.loc 1 351 19
 796 003a 7D47     		li	a4,31
 797 003c B317F700 		sll	a5,a4,a5
 798              		.loc 1 351 17
 799 0040 93C7F7FF 		not	a5,a5
 800              		.loc 1 351 13
 801 0044 0327C4FE 		lw	a4,-20(s0)
 802 0048 F98F     		and	a5,a4,a5
 803 004a 2326F4FE 		sw	a5,-20(s0)
 352:../Firmware/GD32VW55x_standard_peripheral/Source/gd32vw55x_adc.c ****         /* the channel number is written to these bits to select a channel as the nth conversion in
 353:../Firmware/GD32VW55x_standard_peripheral/Source/gd32vw55x_adc.c ****         rsq |= ((uint32_t)channel << (ADC_ROUTINE_CHANNEL_RANK_LENGTH*rank));
 804              		.loc 1 353 17
 805 004e 8346E4FD 		lbu	a3,-34(s0)
 806              		.loc 1 353 70
 807 0052 0347F4FD 		lbu	a4,-33(s0)
 808 0056 BA87     		mv	a5,a4
 809 0058 8A07     		slli	a5,a5,2
 810 005a BA97     		add	a5,a5,a4
 811              		.loc 1 353 35
 812 005c B397F600 		sll	a5,a3,a5
 813              		.loc 1 353 13
 814 0060 0327C4FE 		lw	a4,-20(s0)
 815 0064 D98F     		or	a5,a4,a5
 816 0066 2326F4FE 		sw	a5,-20(s0)
 354:../Firmware/GD32VW55x_standard_peripheral/Source/gd32vw55x_adc.c ****         ADC_RSQ2 = rsq;
 817              		.loc 1 354 9
 818 006a B7270140 		li	a5,1073815552
 819 006e 93874703 		addi	a5,a5,52
 820              		.loc 1 354 18
 821 0072 0327C4FE 		lw	a4,-20(s0)
 822 0076 98C3     		sw	a4,0(a5)
 823 0078 ADA0     		j	.L43
 824              	.L42:
 355:../Firmware/GD32VW55x_standard_peripheral/Source/gd32vw55x_adc.c ****     }else if(rank < ADC_ROUTINE_CHANNEL_RANK_NINE){
 825              		.loc 1 355 13
 826 007a 0347F4FD 		lbu	a4,-33(s0)
 827 007e A147     		li	a5,8
 828 0080 63E1E706 		bgtu	a4,a5,.L43
 356:../Firmware/GD32VW55x_standard_peripheral/Source/gd32vw55x_adc.c ****         /* the routine group sequence rank is smaller than nine */
 357:../Firmware/GD32VW55x_standard_peripheral/Source/gd32vw55x_adc.c ****         rsq = ADC_RSQ1;
 829              		.loc 1 357 15
 830 0084 B7270140 		li	a5,1073815552
 831 0088 93870703 		addi	a5,a5,48
 832              		.loc 1 357 13
 833 008c 9C43     		lw	a5,0(a5)
 834 008e 2326F4FE 		sw	a5,-20(s0)
 358:../Firmware/GD32VW55x_standard_peripheral/Source/gd32vw55x_adc.c ****         rsq &= ~((uint32_t)(ADC_RSQX_RSQN << (ADC_ROUTINE_CHANNEL_RANK_LENGTH * (rank - ADC_ROUTINE
 835              		.loc 1 358 87
 836 0092 8347F4FD 		lbu	a5,-33(s0)
 837 0096 1387A7FF 		addi	a4,a5,-6
 838              		.loc 1 358 79
 839 009a BA87     		mv	a5,a4
 840 009c 8A07     		slli	a5,a5,2
 841 009e BA97     		add	a5,a5,a4
 842              		.loc 1 358 18
 843 00a0 7D47     		li	a4,31
 844 00a2 B317F700 		sll	a5,a4,a5
 845              		.loc 1 358 16
 846 00a6 93C7F7FF 		not	a5,a5
 847              		.loc 1 358 13
 848 00aa 0327C4FE 		lw	a4,-20(s0)
 849 00ae F98F     		and	a5,a4,a5
 850 00b0 2326F4FE 		sw	a5,-20(s0)
 359:../Firmware/GD32VW55x_standard_peripheral/Source/gd32vw55x_adc.c ****         /* the channel number is written to these bits to select a channel as the nth conversion in
 360:../Firmware/GD32VW55x_standard_peripheral/Source/gd32vw55x_adc.c ****         rsq |= ((uint32_t)channel << (ADC_ROUTINE_CHANNEL_RANK_LENGTH*(rank-ADC_ROUTINE_CHANNEL_RAN
 851              		.loc 1 360 17
 852 00b4 8346E4FD 		lbu	a3,-34(s0)
 853              		.loc 1 360 76
 854 00b8 8347F4FD 		lbu	a5,-33(s0)
 855 00bc 1387A7FF 		addi	a4,a5,-6
 856              		.loc 1 360 70
 857 00c0 BA87     		mv	a5,a4
 858 00c2 8A07     		slli	a5,a5,2
 859 00c4 BA97     		add	a5,a5,a4
 860              		.loc 1 360 35
 861 00c6 B397F600 		sll	a5,a3,a5
 862              		.loc 1 360 13
 863 00ca 0327C4FE 		lw	a4,-20(s0)
 864 00ce D98F     		or	a5,a4,a5
 865 00d0 2326F4FE 		sw	a5,-20(s0)
 361:../Firmware/GD32VW55x_standard_peripheral/Source/gd32vw55x_adc.c ****         ADC_RSQ1 = rsq;
 866              		.loc 1 361 9
 867 00d4 B7270140 		li	a5,1073815552
 868 00d8 93870703 		addi	a5,a5,48
 869              		.loc 1 361 18
 870 00dc 0327C4FE 		lw	a4,-20(s0)
 871 00e0 98C3     		sw	a4,0(a5)
 872              	.L43:
 362:../Firmware/GD32VW55x_standard_peripheral/Source/gd32vw55x_adc.c ****     }else{
 363:../Firmware/GD32VW55x_standard_peripheral/Source/gd32vw55x_adc.c ****         /* illegal parameters */
 364:../Firmware/GD32VW55x_standard_peripheral/Source/gd32vw55x_adc.c ****     }
 365:../Firmware/GD32VW55x_standard_peripheral/Source/gd32vw55x_adc.c **** 
 366:../Firmware/GD32VW55x_standard_peripheral/Source/gd32vw55x_adc.c ****     /* configure ADC sampling time */
 367:../Firmware/GD32VW55x_standard_peripheral/Source/gd32vw55x_adc.c ****     if(channel < ADC_CHANNEL_SAMPLE_EIGHT){
 873              		.loc 1 367 7
 874 00e2 0347E4FD 		lbu	a4,-34(s0)
 875 00e6 9D47     		li	a5,7
 876 00e8 63E8E704 		bgtu	a4,a5,.L44
 368:../Firmware/GD32VW55x_standard_peripheral/Source/gd32vw55x_adc.c ****         /* the routine group sequence rank is smaller than ten */
 369:../Firmware/GD32VW55x_standard_peripheral/Source/gd32vw55x_adc.c ****         sampt = ADC_SAMPT1;
 877              		.loc 1 369 17
 878 00ec B7270140 		li	a5,1073815552
 879 00f0 C107     		addi	a5,a5,16
 880              		.loc 1 369 15
 881 00f2 9C43     		lw	a5,0(a5)
 882 00f4 2324F4FE 		sw	a5,-24(s0)
 370:../Firmware/GD32VW55x_standard_peripheral/Source/gd32vw55x_adc.c ****         sampt &= ~((uint32_t)(ADC_SAMPTX_SPTN << (ADC_CHANNEL_SAMPLE_LENGTH*channel)));
 883              		.loc 1 370 76
 884 00f8 8347E4FD 		lbu	a5,-34(s0)
 885 00fc 8A07     		slli	a5,a5,2
 886              		.loc 1 370 20
 887 00fe 1D47     		li	a4,7
 888 0100 B317F700 		sll	a5,a4,a5
 889              		.loc 1 370 18
 890 0104 93C7F7FF 		not	a5,a5
 891              		.loc 1 370 15
 892 0108 032784FE 		lw	a4,-24(s0)
 893 010c F98F     		and	a5,a4,a5
 894 010e 2324F4FE 		sw	a5,-24(s0)
 371:../Firmware/GD32VW55x_standard_peripheral/Source/gd32vw55x_adc.c ****         /* channel sample time set*/
 372:../Firmware/GD32VW55x_standard_peripheral/Source/gd32vw55x_adc.c ****         sampt |= (uint32_t)(sample_time << (ADC_CHANNEL_SAMPLE_LENGTH*channel));
 895              		.loc 1 372 70
 896 0112 8347E4FD 		lbu	a5,-34(s0)
 897 0116 8A07     		slli	a5,a5,2
 898              		.loc 1 372 41
 899 0118 032784FD 		lw	a4,-40(s0)
 900 011c B317F700 		sll	a5,a4,a5
 901              		.loc 1 372 15
 902 0120 032784FE 		lw	a4,-24(s0)
 903 0124 D98F     		or	a5,a4,a5
 904 0126 2324F4FE 		sw	a5,-24(s0)
 373:../Firmware/GD32VW55x_standard_peripheral/Source/gd32vw55x_adc.c ****         ADC_SAMPT1 = sampt;
 905              		.loc 1 373 9
 906 012a B7270140 		li	a5,1073815552
 907 012e C107     		addi	a5,a5,16
 908              		.loc 1 373 20
 909 0130 032784FE 		lw	a4,-24(s0)
 910 0134 98C3     		sw	a4,0(a5)
 374:../Firmware/GD32VW55x_standard_peripheral/Source/gd32vw55x_adc.c ****     }else if(channel <= ADC_CHANNEL_SAMPLE_ELEVEN){
 375:../Firmware/GD32VW55x_standard_peripheral/Source/gd32vw55x_adc.c ****         /* the routine group sequence rank is smaller than eleven */
 376:../Firmware/GD32VW55x_standard_peripheral/Source/gd32vw55x_adc.c ****         sampt = ADC_SAMPT0;
 377:../Firmware/GD32VW55x_standard_peripheral/Source/gd32vw55x_adc.c ****         sampt &= ~((uint32_t)(ADC_SAMPTX_SPTN << (ADC_CHANNEL_SAMPLE_LENGTH*(channel-ADC_CHANNEL_SA
 378:../Firmware/GD32VW55x_standard_peripheral/Source/gd32vw55x_adc.c ****         /* channel sample time set*/
 379:../Firmware/GD32VW55x_standard_peripheral/Source/gd32vw55x_adc.c ****         sampt |= (uint32_t)(sample_time << (ADC_CHANNEL_SAMPLE_LENGTH*(channel-ADC_CHANNEL_SAMPLE_E
 380:../Firmware/GD32VW55x_standard_peripheral/Source/gd32vw55x_adc.c ****         ADC_SAMPT0 = sampt;
 381:../Firmware/GD32VW55x_standard_peripheral/Source/gd32vw55x_adc.c ****     }else{
 382:../Firmware/GD32VW55x_standard_peripheral/Source/gd32vw55x_adc.c ****         /* illegal parameters */
 383:../Firmware/GD32VW55x_standard_peripheral/Source/gd32vw55x_adc.c ****     }
 384:../Firmware/GD32VW55x_standard_peripheral/Source/gd32vw55x_adc.c **** }
 911              		.loc 1 384 1
 912 0136 A9A8     		j	.L46
 913              	.L44:
 374:../Firmware/GD32VW55x_standard_peripheral/Source/gd32vw55x_adc.c ****     }else if(channel <= ADC_CHANNEL_SAMPLE_ELEVEN){
 914              		.loc 1 374 13
 915 0138 0347E4FD 		lbu	a4,-34(s0)
 916 013c AD47     		li	a5,11
 917 013e 63E9E704 		bgtu	a4,a5,.L46
 376:../Firmware/GD32VW55x_standard_peripheral/Source/gd32vw55x_adc.c ****         sampt &= ~((uint32_t)(ADC_SAMPTX_SPTN << (ADC_CHANNEL_SAMPLE_LENGTH*(channel-ADC_CHANNEL_SA
 918              		.loc 1 376 17
 919 0142 B7270140 		li	a5,1073815552
 920 0146 B107     		addi	a5,a5,12
 376:../Firmware/GD32VW55x_standard_peripheral/Source/gd32vw55x_adc.c ****         sampt &= ~((uint32_t)(ADC_SAMPTX_SPTN << (ADC_CHANNEL_SAMPLE_LENGTH*(channel-ADC_CHANNEL_SA
 921              		.loc 1 376 15
 922 0148 9C43     		lw	a5,0(a5)
 923 014a 2324F4FE 		sw	a5,-24(s0)
 377:../Firmware/GD32VW55x_standard_peripheral/Source/gd32vw55x_adc.c ****         /* channel sample time set*/
 924              		.loc 1 377 85
 925 014e 8347E4FD 		lbu	a5,-34(s0)
 926 0152 E117     		addi	a5,a5,-8
 377:../Firmware/GD32VW55x_standard_peripheral/Source/gd32vw55x_adc.c ****         /* channel sample time set*/
 927              		.loc 1 377 76
 928 0154 8A07     		slli	a5,a5,2
 377:../Firmware/GD32VW55x_standard_peripheral/Source/gd32vw55x_adc.c ****         /* channel sample time set*/
 929              		.loc 1 377 20
 930 0156 1D47     		li	a4,7
 931 0158 B317F700 		sll	a5,a4,a5
 377:../Firmware/GD32VW55x_standard_peripheral/Source/gd32vw55x_adc.c ****         /* channel sample time set*/
 932              		.loc 1 377 18
 933 015c 93C7F7FF 		not	a5,a5
 377:../Firmware/GD32VW55x_standard_peripheral/Source/gd32vw55x_adc.c ****         /* channel sample time set*/
 934              		.loc 1 377 15
 935 0160 032784FE 		lw	a4,-24(s0)
 936 0164 F98F     		and	a5,a4,a5
 937 0166 2324F4FE 		sw	a5,-24(s0)
 379:../Firmware/GD32VW55x_standard_peripheral/Source/gd32vw55x_adc.c ****         ADC_SAMPT0 = sampt;
 938              		.loc 1 379 79
 939 016a 8347E4FD 		lbu	a5,-34(s0)
 940 016e E117     		addi	a5,a5,-8
 379:../Firmware/GD32VW55x_standard_peripheral/Source/gd32vw55x_adc.c ****         ADC_SAMPT0 = sampt;
 941              		.loc 1 379 70
 942 0170 8A07     		slli	a5,a5,2
 379:../Firmware/GD32VW55x_standard_peripheral/Source/gd32vw55x_adc.c ****         ADC_SAMPT0 = sampt;
 943              		.loc 1 379 41
 944 0172 032784FD 		lw	a4,-40(s0)
 945 0176 B317F700 		sll	a5,a4,a5
 379:../Firmware/GD32VW55x_standard_peripheral/Source/gd32vw55x_adc.c ****         ADC_SAMPT0 = sampt;
 946              		.loc 1 379 15
 947 017a 032784FE 		lw	a4,-24(s0)
 948 017e D98F     		or	a5,a4,a5
 949 0180 2324F4FE 		sw	a5,-24(s0)
 380:../Firmware/GD32VW55x_standard_peripheral/Source/gd32vw55x_adc.c ****     }else{
 950              		.loc 1 380 9
 951 0184 B7270140 		li	a5,1073815552
 952 0188 B107     		addi	a5,a5,12
 380:../Firmware/GD32VW55x_standard_peripheral/Source/gd32vw55x_adc.c ****     }else{
 953              		.loc 1 380 20
 954 018a 032784FE 		lw	a4,-24(s0)
 955 018e 98C3     		sw	a4,0(a5)
 956              	.L46:
 957              		.loc 1 384 1
 958 0190 0100     		nop
 959 0192 3254     		lw	s0,44(sp)
 960              		.cfi_restore 8
 961              		.cfi_def_cfa 2, 48
 962 0194 4561     		addi	sp,sp,48
 963              		.cfi_def_cfa_offset 0
 964 0196 8280     		jr	ra
 965              		.cfi_endproc
 966              	.LFE361:
 968              		.section	.text.adc_inserted_channel_config,"ax",@progbits
 969              		.align	1
 970              		.globl	adc_inserted_channel_config
 972              	adc_inserted_channel_config:
 973              	.LFB362:
 385:../Firmware/GD32VW55x_standard_peripheral/Source/gd32vw55x_adc.c **** 
 386:../Firmware/GD32VW55x_standard_peripheral/Source/gd32vw55x_adc.c **** /*!
 387:../Firmware/GD32VW55x_standard_peripheral/Source/gd32vw55x_adc.c ****     \brief      configure ADC inserted channel
 388:../Firmware/GD32VW55x_standard_peripheral/Source/gd32vw55x_adc.c ****     \param[in]  rank: the inserted group sequencer rank,this parameter must be between 0 to 3
 389:../Firmware/GD32VW55x_standard_peripheral/Source/gd32vw55x_adc.c ****     \param[in]  channel: the selected ADC channel
 390:../Firmware/GD32VW55x_standard_peripheral/Source/gd32vw55x_adc.c ****                 only one parameter can be selected which is shown as below:
 391:../Firmware/GD32VW55x_standard_peripheral/Source/gd32vw55x_adc.c ****       \arg        ADC_CHANNEL_x(x=0..10): ADC Channelx
 392:../Firmware/GD32VW55x_standard_peripheral/Source/gd32vw55x_adc.c ****     \param[in]  sample_time: The sample time value
 393:../Firmware/GD32VW55x_standard_peripheral/Source/gd32vw55x_adc.c ****                 only one parameter can be selected which is shown as below:
 394:../Firmware/GD32VW55x_standard_peripheral/Source/gd32vw55x_adc.c ****       \arg        ADC_SAMPLETIME_1POINT5: 1.5 cycle
 395:../Firmware/GD32VW55x_standard_peripheral/Source/gd32vw55x_adc.c ****       \arg        ADC_SAMPLETIME_2POINT5: 2.5 cycles
 396:../Firmware/GD32VW55x_standard_peripheral/Source/gd32vw55x_adc.c ****       \arg        ADC_SAMPLETIME_14POINT5: 14.5 cycles
 397:../Firmware/GD32VW55x_standard_peripheral/Source/gd32vw55x_adc.c ****       \arg        ADC_SAMPLETIME_27POINT5: 27.5 cycles
 398:../Firmware/GD32VW55x_standard_peripheral/Source/gd32vw55x_adc.c ****       \arg        ADC_SAMPLETIME_55POINT5: 55.5 cycles
 399:../Firmware/GD32VW55x_standard_peripheral/Source/gd32vw55x_adc.c ****       \arg        ADC_SAMPLETIME_83POINT5: 83.5 cycles
 400:../Firmware/GD32VW55x_standard_peripheral/Source/gd32vw55x_adc.c ****       \arg        ADC_SAMPLETIME_111POINT5: 111.5 cycles
 401:../Firmware/GD32VW55x_standard_peripheral/Source/gd32vw55x_adc.c ****       \arg        ADC_SAMPLETIME_143POINT5: 143.5 cycles
 402:../Firmware/GD32VW55x_standard_peripheral/Source/gd32vw55x_adc.c ****       \arg        ADC_SAMPLETIME_479POINT5: 479.5 cycles
 403:../Firmware/GD32VW55x_standard_peripheral/Source/gd32vw55x_adc.c ****     \param[out] none
 404:../Firmware/GD32VW55x_standard_peripheral/Source/gd32vw55x_adc.c ****     \retval     none
 405:../Firmware/GD32VW55x_standard_peripheral/Source/gd32vw55x_adc.c **** */
 406:../Firmware/GD32VW55x_standard_peripheral/Source/gd32vw55x_adc.c **** void adc_inserted_channel_config(uint8_t rank, uint8_t channel, uint32_t sample_time)
 407:../Firmware/GD32VW55x_standard_peripheral/Source/gd32vw55x_adc.c **** {
 974              		.loc 1 407 1
 975              		.cfi_startproc
 976 0000 7971     		addi	sp,sp,-48
 977              		.cfi_def_cfa_offset 48
 978 0002 22D6     		sw	s0,44(sp)
 979              		.cfi_offset 8, -4
 980 0004 0018     		addi	s0,sp,48
 981              		.cfi_def_cfa 8, 0
 982 0006 AA87     		mv	a5,a0
 983 0008 2E87     		mv	a4,a1
 984 000a 232CC4FC 		sw	a2,-40(s0)
 985 000e A30FF4FC 		sb	a5,-33(s0)
 986 0012 BA87     		mv	a5,a4
 987 0014 230FF4FC 		sb	a5,-34(s0)
 408:../Firmware/GD32VW55x_standard_peripheral/Source/gd32vw55x_adc.c ****     uint8_t inserted_length;
 409:../Firmware/GD32VW55x_standard_peripheral/Source/gd32vw55x_adc.c ****     uint32_t isq,sampt;
 410:../Firmware/GD32VW55x_standard_peripheral/Source/gd32vw55x_adc.c **** 
 411:../Firmware/GD32VW55x_standard_peripheral/Source/gd32vw55x_adc.c ****     /* get inserted channel group length */
 412:../Firmware/GD32VW55x_standard_peripheral/Source/gd32vw55x_adc.c ****     inserted_length = (uint8_t)GET_BITS(ADC_ISQ, 20U, 21U);
 988              		.loc 1 412 32
 989 0018 B7270140 		li	a5,1073815552
 990 001c 93878703 		addi	a5,a5,56
 991 0020 9C43     		lw	a5,0(a5)
 992 0022 D183     		srli	a5,a5,20
 993              		.loc 1 412 23
 994 0024 93F7F70F 		andi	a5,a5,0xff
 995              		.loc 1 412 21
 996 0028 8D8B     		andi	a5,a5,3
 997 002a A307F4FE 		sb	a5,-17(s0)
 413:../Firmware/GD32VW55x_standard_peripheral/Source/gd32vw55x_adc.c ****      /* the channel number is written to these bits to select a channel as the nth conversion in th
 414:../Firmware/GD32VW55x_standard_peripheral/Source/gd32vw55x_adc.c ****     if(rank < 4U){
 998              		.loc 1 414 7
 999 002e 0347F4FD 		lbu	a4,-33(s0)
 1000 0032 8D47     		li	a5,3
 1001 0034 63E9E706 		bgtu	a4,a5,.L48
 415:../Firmware/GD32VW55x_standard_peripheral/Source/gd32vw55x_adc.c ****         isq = ADC_ISQ;
 1002              		.loc 1 415 15
 1003 0038 B7270140 		li	a5,1073815552
 1004 003c 93878703 		addi	a5,a5,56
 1005              		.loc 1 415 13
 1006 0040 9C43     		lw	a5,0(a5)
 1007 0042 2324F4FE 		sw	a5,-24(s0)
 416:../Firmware/GD32VW55x_standard_peripheral/Source/gd32vw55x_adc.c ****         isq &= ~((uint32_t)(ADC_ISQ_ISQN << (ADC_INSERTED_CHANNEL_SHIFT_OFFSET-(inserted_length-ran
 1008              		.loc 1 416 96
 1009 0046 0347F4FE 		lbu	a4,-17(s0)
 1010 004a 8347F4FD 		lbu	a5,-33(s0)
 1011 004e 1D8F     		sub	a4,a4,a5
 1012              		.loc 1 416 102
 1013 0050 BA87     		mv	a5,a4
 1014 0052 8A07     		slli	a5,a5,2
 1015 0054 BA97     		add	a5,a5,a4
 1016 0056 B307F040 		neg	a5,a5
 1017              		.loc 1 416 79
 1018 005a BD07     		addi	a5,a5,15
 1019              		.loc 1 416 18
 1020 005c 7D47     		li	a4,31
 1021 005e B317F700 		sll	a5,a4,a5
 1022              		.loc 1 416 16
 1023 0062 93C7F7FF 		not	a5,a5
 1024              		.loc 1 416 13
 1025 0066 032784FE 		lw	a4,-24(s0)
 1026 006a F98F     		and	a5,a4,a5
 1027 006c 2324F4FE 		sw	a5,-24(s0)
 417:../Firmware/GD32VW55x_standard_peripheral/Source/gd32vw55x_adc.c ****         isq |= ((uint32_t)channel << (ADC_INSERTED_CHANNEL_SHIFT_OFFSET-(inserted_length-rank)*ADC_
 1028              		.loc 1 417 17
 1029 0070 8346E4FD 		lbu	a3,-34(s0)
 1030              		.loc 1 417 89
 1031 0074 0347F4FE 		lbu	a4,-17(s0)
 1032 0078 8347F4FD 		lbu	a5,-33(s0)
 1033 007c 1D8F     		sub	a4,a4,a5
 1034              		.loc 1 417 95
 1035 007e BA87     		mv	a5,a4
 1036 0080 8A07     		slli	a5,a5,2
 1037 0082 BA97     		add	a5,a5,a4
 1038 0084 B307F040 		neg	a5,a5
 1039              		.loc 1 417 72
 1040 0088 BD07     		addi	a5,a5,15
 1041              		.loc 1 417 35
 1042 008a B397F600 		sll	a5,a3,a5
 1043              		.loc 1 417 13
 1044 008e 032784FE 		lw	a4,-24(s0)
 1045 0092 D98F     		or	a5,a4,a5
 1046 0094 2324F4FE 		sw	a5,-24(s0)
 418:../Firmware/GD32VW55x_standard_peripheral/Source/gd32vw55x_adc.c ****         ADC_ISQ = isq;
 1047              		.loc 1 418 9
 1048 0098 B7270140 		li	a5,1073815552
 1049 009c 93878703 		addi	a5,a5,56
 1050              		.loc 1 418 17
 1051 00a0 032784FE 		lw	a4,-24(s0)
 1052 00a4 98C3     		sw	a4,0(a5)
 1053              	.L48:
 419:../Firmware/GD32VW55x_standard_peripheral/Source/gd32vw55x_adc.c ****     }
 420:../Firmware/GD32VW55x_standard_peripheral/Source/gd32vw55x_adc.c **** 
 421:../Firmware/GD32VW55x_standard_peripheral/Source/gd32vw55x_adc.c ****     /* configure ADC sampling time */
 422:../Firmware/GD32VW55x_standard_peripheral/Source/gd32vw55x_adc.c ****     if(channel < ADC_CHANNEL_SAMPLE_EIGHT){
 1054              		.loc 1 422 7
 1055 00a6 0347E4FD 		lbu	a4,-34(s0)
 1056 00aa 9D47     		li	a5,7
 1057 00ac 63E8E704 		bgtu	a4,a5,.L49
 423:../Firmware/GD32VW55x_standard_peripheral/Source/gd32vw55x_adc.c ****         /* the inserted group sequence rank is smaller than ten */
 424:../Firmware/GD32VW55x_standard_peripheral/Source/gd32vw55x_adc.c ****         sampt = ADC_SAMPT1;
 1058              		.loc 1 424 17
 1059 00b0 B7270140 		li	a5,1073815552
 1060 00b4 C107     		addi	a5,a5,16
 1061              		.loc 1 424 15
 1062 00b6 9C43     		lw	a5,0(a5)
 1063 00b8 2322F4FE 		sw	a5,-28(s0)
 425:../Firmware/GD32VW55x_standard_peripheral/Source/gd32vw55x_adc.c ****         sampt &= ~((uint32_t)(ADC_SAMPTX_SPTN << (ADC_CHANNEL_SAMPLE_LENGTH * channel)));
 1064              		.loc 1 425 77
 1065 00bc 8347E4FD 		lbu	a5,-34(s0)
 1066 00c0 8A07     		slli	a5,a5,2
 1067              		.loc 1 425 20
 1068 00c2 1D47     		li	a4,7
 1069 00c4 B317F700 		sll	a5,a4,a5
 1070              		.loc 1 425 18
 1071 00c8 93C7F7FF 		not	a5,a5
 1072              		.loc 1 425 15
 1073 00cc 032744FE 		lw	a4,-28(s0)
 1074 00d0 F98F     		and	a5,a4,a5
 1075 00d2 2322F4FE 		sw	a5,-28(s0)
 426:../Firmware/GD32VW55x_standard_peripheral/Source/gd32vw55x_adc.c ****         /* channel sample time set*/
 427:../Firmware/GD32VW55x_standard_peripheral/Source/gd32vw55x_adc.c ****         sampt |= (uint32_t) sample_time << (ADC_CHANNEL_SAMPLE_LENGTH * channel);
 1076              		.loc 1 427 71
 1077 00d6 8347E4FD 		lbu	a5,-34(s0)
 1078 00da 8A07     		slli	a5,a5,2
 1079              		.loc 1 427 41
 1080 00dc 032784FD 		lw	a4,-40(s0)
 1081 00e0 B317F700 		sll	a5,a4,a5
 1082              		.loc 1 427 15
 1083 00e4 032744FE 		lw	a4,-28(s0)
 1084 00e8 D98F     		or	a5,a4,a5
 1085 00ea 2322F4FE 		sw	a5,-28(s0)
 428:../Firmware/GD32VW55x_standard_peripheral/Source/gd32vw55x_adc.c ****         ADC_SAMPT1 = sampt;
 1086              		.loc 1 428 9
 1087 00ee B7270140 		li	a5,1073815552
 1088 00f2 C107     		addi	a5,a5,16
 1089              		.loc 1 428 20
 1090 00f4 032744FE 		lw	a4,-28(s0)
 1091 00f8 98C3     		sw	a4,0(a5)
 429:../Firmware/GD32VW55x_standard_peripheral/Source/gd32vw55x_adc.c ****     }else if(channel <= ADC_CHANNEL_SAMPLE_ELEVEN){
 430:../Firmware/GD32VW55x_standard_peripheral/Source/gd32vw55x_adc.c ****         /* the inserted group sequence rank is smaller than eighteen */
 431:../Firmware/GD32VW55x_standard_peripheral/Source/gd32vw55x_adc.c ****         sampt = ADC_SAMPT0;
 432:../Firmware/GD32VW55x_standard_peripheral/Source/gd32vw55x_adc.c ****         sampt &= ~((uint32_t)(ADC_SAMPTX_SPTN << (ADC_CHANNEL_SAMPLE_LENGTH*(channel - ADC_CHANNEL_
 433:../Firmware/GD32VW55x_standard_peripheral/Source/gd32vw55x_adc.c ****         /* channel sample time set*/
 434:../Firmware/GD32VW55x_standard_peripheral/Source/gd32vw55x_adc.c ****         sampt |= ((uint32_t)sample_time << (ADC_CHANNEL_SAMPLE_LENGTH*(channel - ADC_CHANNEL_SAMPLE
 435:../Firmware/GD32VW55x_standard_peripheral/Source/gd32vw55x_adc.c ****         ADC_SAMPT0 = sampt;
 436:../Firmware/GD32VW55x_standard_peripheral/Source/gd32vw55x_adc.c ****     }else{
 437:../Firmware/GD32VW55x_standard_peripheral/Source/gd32vw55x_adc.c ****         /* illegal parameters */
 438:../Firmware/GD32VW55x_standard_peripheral/Source/gd32vw55x_adc.c ****     }
 439:../Firmware/GD32VW55x_standard_peripheral/Source/gd32vw55x_adc.c **** }
 1092              		.loc 1 439 1
 1093 00fa A9A8     		j	.L51
 1094              	.L49:
 429:../Firmware/GD32VW55x_standard_peripheral/Source/gd32vw55x_adc.c ****     }else if(channel <= ADC_CHANNEL_SAMPLE_ELEVEN){
 1095              		.loc 1 429 13
 1096 00fc 0347E4FD 		lbu	a4,-34(s0)
 1097 0100 AD47     		li	a5,11
 1098 0102 63E9E704 		bgtu	a4,a5,.L51
 431:../Firmware/GD32VW55x_standard_peripheral/Source/gd32vw55x_adc.c ****         sampt &= ~((uint32_t)(ADC_SAMPTX_SPTN << (ADC_CHANNEL_SAMPLE_LENGTH*(channel - ADC_CHANNEL_
 1099              		.loc 1 431 17
 1100 0106 B7270140 		li	a5,1073815552
 1101 010a B107     		addi	a5,a5,12
 431:../Firmware/GD32VW55x_standard_peripheral/Source/gd32vw55x_adc.c ****         sampt &= ~((uint32_t)(ADC_SAMPTX_SPTN << (ADC_CHANNEL_SAMPLE_LENGTH*(channel - ADC_CHANNEL_
 1102              		.loc 1 431 15
 1103 010c 9C43     		lw	a5,0(a5)
 1104 010e 2322F4FE 		sw	a5,-28(s0)
 432:../Firmware/GD32VW55x_standard_peripheral/Source/gd32vw55x_adc.c ****         /* channel sample time set*/
 1105              		.loc 1 432 86
 1106 0112 8347E4FD 		lbu	a5,-34(s0)
 1107 0116 E117     		addi	a5,a5,-8
 432:../Firmware/GD32VW55x_standard_peripheral/Source/gd32vw55x_adc.c ****         /* channel sample time set*/
 1108              		.loc 1 432 76
 1109 0118 8A07     		slli	a5,a5,2
 432:../Firmware/GD32VW55x_standard_peripheral/Source/gd32vw55x_adc.c ****         /* channel sample time set*/
 1110              		.loc 1 432 20
 1111 011a 1D47     		li	a4,7
 1112 011c B317F700 		sll	a5,a4,a5
 432:../Firmware/GD32VW55x_standard_peripheral/Source/gd32vw55x_adc.c ****         /* channel sample time set*/
 1113              		.loc 1 432 18
 1114 0120 93C7F7FF 		not	a5,a5
 432:../Firmware/GD32VW55x_standard_peripheral/Source/gd32vw55x_adc.c ****         /* channel sample time set*/
 1115              		.loc 1 432 15
 1116 0124 032744FE 		lw	a4,-28(s0)
 1117 0128 F98F     		and	a5,a4,a5
 1118 012a 2322F4FE 		sw	a5,-28(s0)
 434:../Firmware/GD32VW55x_standard_peripheral/Source/gd32vw55x_adc.c ****         ADC_SAMPT0 = sampt;
 1119              		.loc 1 434 80
 1120 012e 8347E4FD 		lbu	a5,-34(s0)
 1121 0132 E117     		addi	a5,a5,-8
 434:../Firmware/GD32VW55x_standard_peripheral/Source/gd32vw55x_adc.c ****         ADC_SAMPT0 = sampt;
 1122              		.loc 1 434 70
 1123 0134 8A07     		slli	a5,a5,2
 434:../Firmware/GD32VW55x_standard_peripheral/Source/gd32vw55x_adc.c ****         ADC_SAMPT0 = sampt;
 1124              		.loc 1 434 41
 1125 0136 032784FD 		lw	a4,-40(s0)
 1126 013a B317F700 		sll	a5,a4,a5
 434:../Firmware/GD32VW55x_standard_peripheral/Source/gd32vw55x_adc.c ****         ADC_SAMPT0 = sampt;
 1127              		.loc 1 434 15
 1128 013e 032744FE 		lw	a4,-28(s0)
 1129 0142 D98F     		or	a5,a4,a5
 1130 0144 2322F4FE 		sw	a5,-28(s0)
 435:../Firmware/GD32VW55x_standard_peripheral/Source/gd32vw55x_adc.c ****     }else{
 1131              		.loc 1 435 9
 1132 0148 B7270140 		li	a5,1073815552
 1133 014c B107     		addi	a5,a5,12
 435:../Firmware/GD32VW55x_standard_peripheral/Source/gd32vw55x_adc.c ****     }else{
 1134              		.loc 1 435 20
 1135 014e 032744FE 		lw	a4,-28(s0)
 1136 0152 98C3     		sw	a4,0(a5)
 1137              	.L51:
 1138              		.loc 1 439 1
 1139 0154 0100     		nop
 1140 0156 3254     		lw	s0,44(sp)
 1141              		.cfi_restore 8
 1142              		.cfi_def_cfa 2, 48
 1143 0158 4561     		addi	sp,sp,48
 1144              		.cfi_def_cfa_offset 0
 1145 015a 8280     		jr	ra
 1146              		.cfi_endproc
 1147              	.LFE362:
 1149              		.section	.text.adc_inserted_channel_offset_config,"ax",@progbits
 1150              		.align	1
 1151              		.globl	adc_inserted_channel_offset_config
 1153              	adc_inserted_channel_offset_config:
 1154              	.LFB363:
 440:../Firmware/GD32VW55x_standard_peripheral/Source/gd32vw55x_adc.c **** 
 441:../Firmware/GD32VW55x_standard_peripheral/Source/gd32vw55x_adc.c **** /*!
 442:../Firmware/GD32VW55x_standard_peripheral/Source/gd32vw55x_adc.c ****     \brief      configure ADC inserted channel offset
 443:../Firmware/GD32VW55x_standard_peripheral/Source/gd32vw55x_adc.c ****     \param[in]  inserted_channel : inserted channel select
 444:../Firmware/GD32VW55x_standard_peripheral/Source/gd32vw55x_adc.c ****                 only one parameter can be selected which is shown as below:
 445:../Firmware/GD32VW55x_standard_peripheral/Source/gd32vw55x_adc.c ****       \arg        ADC_INSERTED_CHANNEL_0: ADC inserted channel 0
 446:../Firmware/GD32VW55x_standard_peripheral/Source/gd32vw55x_adc.c ****       \arg        ADC_INSERTED_CHANNEL_1: ADC inserted channel 1
 447:../Firmware/GD32VW55x_standard_peripheral/Source/gd32vw55x_adc.c ****       \arg        ADC_INSERTED_CHANNEL_2: ADC inserted channel 2
 448:../Firmware/GD32VW55x_standard_peripheral/Source/gd32vw55x_adc.c ****       \arg        ADC_INSERTED_CHANNEL_3: ADC inserted channel 3
 449:../Firmware/GD32VW55x_standard_peripheral/Source/gd32vw55x_adc.c ****     \param[in]  offset : the offset data
 450:../Firmware/GD32VW55x_standard_peripheral/Source/gd32vw55x_adc.c ****     \param[out] none
 451:../Firmware/GD32VW55x_standard_peripheral/Source/gd32vw55x_adc.c ****     \retval     none
 452:../Firmware/GD32VW55x_standard_peripheral/Source/gd32vw55x_adc.c **** */
 453:../Firmware/GD32VW55x_standard_peripheral/Source/gd32vw55x_adc.c **** void adc_inserted_channel_offset_config(uint8_t inserted_channel, uint16_t offset)
 454:../Firmware/GD32VW55x_standard_peripheral/Source/gd32vw55x_adc.c **** {
 1155              		.loc 1 454 1
 1156              		.cfi_startproc
 1157 0000 7971     		addi	sp,sp,-48
 1158              		.cfi_def_cfa_offset 48
 1159 0002 22D6     		sw	s0,44(sp)
 1160              		.cfi_offset 8, -4
 1161 0004 0018     		addi	s0,sp,48
 1162              		.cfi_def_cfa 8, 0
 1163 0006 AA87     		mv	a5,a0
 1164 0008 2E87     		mv	a4,a1
 1165 000a A30FF4FC 		sb	a5,-33(s0)
 1166 000e BA87     		mv	a5,a4
 1167 0010 231EF4FC 		sh	a5,-36(s0)
 455:../Firmware/GD32VW55x_standard_peripheral/Source/gd32vw55x_adc.c ****     uint8_t inserted_length;
 456:../Firmware/GD32VW55x_standard_peripheral/Source/gd32vw55x_adc.c ****     uint32_t num = 0U;
 1168              		.loc 1 456 14
 1169 0014 232604FE 		sw	zero,-20(s0)
 457:../Firmware/GD32VW55x_standard_peripheral/Source/gd32vw55x_adc.c **** 
 458:../Firmware/GD32VW55x_standard_peripheral/Source/gd32vw55x_adc.c ****     inserted_length = (uint8_t)GET_BITS(ADC_ISQ, 20U, 21U);
 1170              		.loc 1 458 32
 1171 0018 B7270140 		li	a5,1073815552
 1172 001c 93878703 		addi	a5,a5,56
 1173 0020 9C43     		lw	a5,0(a5)
 1174 0022 D183     		srli	a5,a5,20
 1175              		.loc 1 458 23
 1176 0024 93F7F70F 		andi	a5,a5,0xff
 1177              		.loc 1 458 21
 1178 0028 8D8B     		andi	a5,a5,3
 1179 002a A305F4FE 		sb	a5,-21(s0)
 459:../Firmware/GD32VW55x_standard_peripheral/Source/gd32vw55x_adc.c ****     num = ((uint32_t)ADC_OFFSET_LENGTH - ((uint32_t)inserted_length - (uint32_t)inserted_channel));
 1180              		.loc 1 459 71
 1181 002e 0347F4FD 		lbu	a4,-33(s0)
 1182              		.loc 1 459 43
 1183 0032 8347B4FE 		lbu	a5,-21(s0)
 1184              		.loc 1 459 40
 1185 0036 B307F740 		sub	a5,a4,a5
 1186              		.loc 1 459 9
 1187 003a 8D07     		addi	a5,a5,3
 1188 003c 2326F4FE 		sw	a5,-20(s0)
 460:../Firmware/GD32VW55x_standard_peripheral/Source/gd32vw55x_adc.c **** 
 461:../Firmware/GD32VW55x_standard_peripheral/Source/gd32vw55x_adc.c ****     if(num <= ADC_OFFSET_LENGTH){
 1189              		.loc 1 461 7
 1190 0040 0327C4FE 		lw	a4,-20(s0)
 1191 0044 8D47     		li	a5,3
 1192 0046 63E4E702 		bgtu	a4,a5,.L54
 462:../Firmware/GD32VW55x_standard_peripheral/Source/gd32vw55x_adc.c ****         /* calculate the offset of the register */
 463:../Firmware/GD32VW55x_standard_peripheral/Source/gd32vw55x_adc.c ****         num = num * ADC_OFFSET_SHIFT_LENGTH;
 1193              		.loc 1 463 13
 1194 004a 8327C4FE 		lw	a5,-20(s0)
 1195 004e 8A07     		slli	a5,a5,2
 1196 0050 2326F4FE 		sw	a5,-20(s0)
 464:../Firmware/GD32VW55x_standard_peripheral/Source/gd32vw55x_adc.c ****         /* configure the offset of the selected channels */
 465:../Firmware/GD32VW55x_standard_peripheral/Source/gd32vw55x_adc.c ****         REG32((ADC) + 0x14U + num) = IOFFX_IOFF((uint32_t)offset);
 1197              		.loc 1 465 38
 1198 0054 0357C4FD 		lhu	a4,-36(s0)
 1199              		.loc 1 465 9
 1200 0058 8326C4FE 		lw	a3,-20(s0)
 1201 005c B7270140 		li	a5,1073815552
 1202 0060 D107     		addi	a5,a5,20
 1203 0062 B697     		add	a5,a3,a5
 1204 0064 BE86     		mv	a3,a5
 1205              		.loc 1 465 38
 1206 0066 8567     		li	a5,4096
 1207 0068 FD17     		addi	a5,a5,-1
 1208 006a F98F     		and	a5,a4,a5
 1209              		.loc 1 465 36
 1210 006c 9CC2     		sw	a5,0(a3)
 1211              	.L54:
 466:../Firmware/GD32VW55x_standard_peripheral/Source/gd32vw55x_adc.c ****     }
 467:../Firmware/GD32VW55x_standard_peripheral/Source/gd32vw55x_adc.c **** }
 1212              		.loc 1 467 1
 1213 006e 0100     		nop
 1214 0070 3254     		lw	s0,44(sp)
 1215              		.cfi_restore 8
 1216              		.cfi_def_cfa 2, 48
 1217 0072 4561     		addi	sp,sp,48
 1218              		.cfi_def_cfa_offset 0
 1219 0074 8280     		jr	ra
 1220              		.cfi_endproc
 1221              	.LFE363:
 1223              		.section	.text.adc_external_trigger_config,"ax",@progbits
 1224              		.align	1
 1225              		.globl	adc_external_trigger_config
 1227              	adc_external_trigger_config:
 1228              	.LFB364:
 468:../Firmware/GD32VW55x_standard_peripheral/Source/gd32vw55x_adc.c **** 
 469:../Firmware/GD32VW55x_standard_peripheral/Source/gd32vw55x_adc.c **** /*!
 470:../Firmware/GD32VW55x_standard_peripheral/Source/gd32vw55x_adc.c ****     \brief      configure ADC external trigger
 471:../Firmware/GD32VW55x_standard_peripheral/Source/gd32vw55x_adc.c ****     \param[in]  channel_group: select the channel group
 472:../Firmware/GD32VW55x_standard_peripheral/Source/gd32vw55x_adc.c ****                 only one parameter can be selected which is shown as below:
 473:../Firmware/GD32VW55x_standard_peripheral/Source/gd32vw55x_adc.c ****       \arg        ADC_ROUTINE_CHANNEL: routine channel group
 474:../Firmware/GD32VW55x_standard_peripheral/Source/gd32vw55x_adc.c ****       \arg        ADC_INSERTED_CHANNEL: inserted channel group
 475:../Firmware/GD32VW55x_standard_peripheral/Source/gd32vw55x_adc.c ****     \param[in]  trigger_mode: external trigger mode
 476:../Firmware/GD32VW55x_standard_peripheral/Source/gd32vw55x_adc.c ****                 only one parameter can be selected which is shown as below:
 477:../Firmware/GD32VW55x_standard_peripheral/Source/gd32vw55x_adc.c ****       \arg        EXTERNAL_TRIGGER_DISABLE: external trigger disable
 478:../Firmware/GD32VW55x_standard_peripheral/Source/gd32vw55x_adc.c ****       \arg        EXTERNAL_TRIGGER_RISING: rising edge of external trigger
 479:../Firmware/GD32VW55x_standard_peripheral/Source/gd32vw55x_adc.c ****       \arg        EXTERNAL_TRIGGER_FALLING: falling edge of external trigger
 480:../Firmware/GD32VW55x_standard_peripheral/Source/gd32vw55x_adc.c ****       \arg        EXTERNAL_TRIGGER_RISING_FALLING: rising and falling edge of external trigger
 481:../Firmware/GD32VW55x_standard_peripheral/Source/gd32vw55x_adc.c ****     \param[out] none
 482:../Firmware/GD32VW55x_standard_peripheral/Source/gd32vw55x_adc.c ****     \retval     none
 483:../Firmware/GD32VW55x_standard_peripheral/Source/gd32vw55x_adc.c **** */
 484:../Firmware/GD32VW55x_standard_peripheral/Source/gd32vw55x_adc.c **** void adc_external_trigger_config(uint8_t channel_group, uint32_t trigger_mode)
 485:../Firmware/GD32VW55x_standard_peripheral/Source/gd32vw55x_adc.c **** {
 1229              		.loc 1 485 1
 1230              		.cfi_startproc
 1231 0000 0111     		addi	sp,sp,-32
 1232              		.cfi_def_cfa_offset 32
 1233 0002 22CE     		sw	s0,28(sp)
 1234              		.cfi_offset 8, -4
 1235 0004 0010     		addi	s0,sp,32
 1236              		.cfi_def_cfa 8, 0
 1237 0006 AA87     		mv	a5,a0
 1238 0008 2324B4FE 		sw	a1,-24(s0)
 1239 000c A307F4FE 		sb	a5,-17(s0)
 486:../Firmware/GD32VW55x_standard_peripheral/Source/gd32vw55x_adc.c ****         switch(channel_group){
 1240              		.loc 1 486 9
 1241 0010 8347F4FE 		lbu	a5,-17(s0)
 1242 0014 0547     		li	a4,1
 1243 0016 6386E700 		beq	a5,a4,.L56
 1244 001a 0947     		li	a4,2
 1245 001c 638DE702 		beq	a5,a4,.L57
 487:../Firmware/GD32VW55x_standard_peripheral/Source/gd32vw55x_adc.c ****         case ADC_ROUTINE_CHANNEL:
 488:../Firmware/GD32VW55x_standard_peripheral/Source/gd32vw55x_adc.c ****             /* configure ADC routine channel group external trigger mode */
 489:../Firmware/GD32VW55x_standard_peripheral/Source/gd32vw55x_adc.c ****             ADC_CTL1 &= ~((uint32_t)ADC_CTL1_ETMRC);
 490:../Firmware/GD32VW55x_standard_peripheral/Source/gd32vw55x_adc.c ****             ADC_CTL1 |= (uint32_t) (trigger_mode << ROUTINE_TRIGGER_MODE_OFFSET);
 491:../Firmware/GD32VW55x_standard_peripheral/Source/gd32vw55x_adc.c ****             break;
 492:../Firmware/GD32VW55x_standard_peripheral/Source/gd32vw55x_adc.c ****         case ADC_INSERTED_CHANNEL:
 493:../Firmware/GD32VW55x_standard_peripheral/Source/gd32vw55x_adc.c ****             /* configure ADC inserted channel group external trigger mode */
 494:../Firmware/GD32VW55x_standard_peripheral/Source/gd32vw55x_adc.c ****             ADC_CTL1 &=  ~((uint32_t)ADC_CTL1_ETMIC);
 495:../Firmware/GD32VW55x_standard_peripheral/Source/gd32vw55x_adc.c ****             ADC_CTL1 |= (uint32_t) (trigger_mode << INSERTED_TRIGGER_MODE_OFFSET);
 496:../Firmware/GD32VW55x_standard_peripheral/Source/gd32vw55x_adc.c ****             break;
 497:../Firmware/GD32VW55x_standard_peripheral/Source/gd32vw55x_adc.c ****         default:
 498:../Firmware/GD32VW55x_standard_peripheral/Source/gd32vw55x_adc.c ****             break;
 1246              		.loc 1 498 13
 1247 0020 ADA0     		j	.L59
 1248              	.L56:
 489:../Firmware/GD32VW55x_standard_peripheral/Source/gd32vw55x_adc.c ****             ADC_CTL1 |= (uint32_t) (trigger_mode << ROUTINE_TRIGGER_MODE_OFFSET);
 1249              		.loc 1 489 22
 1250 0022 B7270140 		li	a5,1073815552
 1251 0026 A107     		addi	a5,a5,8
 1252 0028 9443     		lw	a3,0(a5)
 1253 002a B7270140 		li	a5,1073815552
 1254 002e A107     		addi	a5,a5,8
 1255 0030 370700D0 		li	a4,-805306368
 1256 0034 7D17     		addi	a4,a4,-1
 1257 0036 758F     		and	a4,a3,a4
 1258 0038 98C3     		sw	a4,0(a5)
 490:../Firmware/GD32VW55x_standard_peripheral/Source/gd32vw55x_adc.c ****             break;
 1259              		.loc 1 490 22
 1260 003a B7270140 		li	a5,1073815552
 1261 003e A107     		addi	a5,a5,8
 1262 0040 9443     		lw	a3,0(a5)
 490:../Firmware/GD32VW55x_standard_peripheral/Source/gd32vw55x_adc.c ****             break;
 1263              		.loc 1 490 50
 1264 0042 832784FE 		lw	a5,-24(s0)
 1265 0046 1397C701 		slli	a4,a5,28
 490:../Firmware/GD32VW55x_standard_peripheral/Source/gd32vw55x_adc.c ****             break;
 1266              		.loc 1 490 22
 1267 004a B7270140 		li	a5,1073815552
 1268 004e A107     		addi	a5,a5,8
 1269 0050 558F     		or	a4,a3,a4
 1270 0052 98C3     		sw	a4,0(a5)
 491:../Firmware/GD32VW55x_standard_peripheral/Source/gd32vw55x_adc.c ****         case ADC_INSERTED_CHANNEL:
 1271              		.loc 1 491 13
 1272 0054 1DA8     		j	.L59
 1273              	.L57:
 494:../Firmware/GD32VW55x_standard_peripheral/Source/gd32vw55x_adc.c ****             ADC_CTL1 |= (uint32_t) (trigger_mode << INSERTED_TRIGGER_MODE_OFFSET);
 1274              		.loc 1 494 22
 1275 0056 B7270140 		li	a5,1073815552
 1276 005a A107     		addi	a5,a5,8
 1277 005c 9443     		lw	a3,0(a5)
 1278 005e B7270140 		li	a5,1073815552
 1279 0062 A107     		addi	a5,a5,8
 1280 0064 3707D0FF 		li	a4,-3145728
 1281 0068 7D17     		addi	a4,a4,-1
 1282 006a 758F     		and	a4,a3,a4
 1283 006c 98C3     		sw	a4,0(a5)
 495:../Firmware/GD32VW55x_standard_peripheral/Source/gd32vw55x_adc.c ****             break;
 1284              		.loc 1 495 22
 1285 006e B7270140 		li	a5,1073815552
 1286 0072 A107     		addi	a5,a5,8
 1287 0074 9443     		lw	a3,0(a5)
 495:../Firmware/GD32VW55x_standard_peripheral/Source/gd32vw55x_adc.c ****             break;
 1288              		.loc 1 495 50
 1289 0076 832784FE 		lw	a5,-24(s0)
 1290 007a 13974701 		slli	a4,a5,20
 495:../Firmware/GD32VW55x_standard_peripheral/Source/gd32vw55x_adc.c ****             break;
 1291              		.loc 1 495 22
 1292 007e B7270140 		li	a5,1073815552
 1293 0082 A107     		addi	a5,a5,8
 1294 0084 558F     		or	a4,a3,a4
 1295 0086 98C3     		sw	a4,0(a5)
 496:../Firmware/GD32VW55x_standard_peripheral/Source/gd32vw55x_adc.c ****         default:
 1296              		.loc 1 496 13
 1297 0088 0100     		nop
 1298              	.L59:
 499:../Firmware/GD32VW55x_standard_peripheral/Source/gd32vw55x_adc.c ****         }
 500:../Firmware/GD32VW55x_standard_peripheral/Source/gd32vw55x_adc.c **** }
 1299              		.loc 1 500 1
 1300 008a 0100     		nop
 1301 008c 7244     		lw	s0,28(sp)
 1302              		.cfi_restore 8
 1303              		.cfi_def_cfa 2, 32
 1304 008e 0561     		addi	sp,sp,32
 1305              		.cfi_def_cfa_offset 0
 1306 0090 8280     		jr	ra
 1307              		.cfi_endproc
 1308              	.LFE364:
 1310              		.section	.text.adc_external_trigger_source_config,"ax",@progbits
 1311              		.align	1
 1312              		.globl	adc_external_trigger_source_config
 1314              	adc_external_trigger_source_config:
 1315              	.LFB365:
 501:../Firmware/GD32VW55x_standard_peripheral/Source/gd32vw55x_adc.c **** 
 502:../Firmware/GD32VW55x_standard_peripheral/Source/gd32vw55x_adc.c **** /*!
 503:../Firmware/GD32VW55x_standard_peripheral/Source/gd32vw55x_adc.c ****     \brief      configure ADC external trigger source
 504:../Firmware/GD32VW55x_standard_peripheral/Source/gd32vw55x_adc.c ****     \param[in]  channel_group: select the channel group
 505:../Firmware/GD32VW55x_standard_peripheral/Source/gd32vw55x_adc.c ****                 only one parameter can be selected which is shown as below:
 506:../Firmware/GD32VW55x_standard_peripheral/Source/gd32vw55x_adc.c ****       \arg        ADC_ROUTINE_CHANNEL: routine channel group
 507:../Firmware/GD32VW55x_standard_peripheral/Source/gd32vw55x_adc.c ****       \arg        ADC_INSERTED_CHANNEL: inserted channel group
 508:../Firmware/GD32VW55x_standard_peripheral/Source/gd32vw55x_adc.c ****     \param[in]  external_trigger_source: routine or inserted group trigger source
 509:../Firmware/GD32VW55x_standard_peripheral/Source/gd32vw55x_adc.c ****                 for routine channel:
 510:../Firmware/GD32VW55x_standard_peripheral/Source/gd32vw55x_adc.c ****                 only one parameter can be selected which is shown as below:
 511:../Firmware/GD32VW55x_standard_peripheral/Source/gd32vw55x_adc.c ****       \arg        ADC_EXTTRIG_ROUTINE_T0_CH0: external trigger TIMER0 CH0 event select for routine 
 512:../Firmware/GD32VW55x_standard_peripheral/Source/gd32vw55x_adc.c ****       \arg        ADC_EXTTRIG_ROUTINE_T0_CH1: external trigger TIMER0 CH1 event select for routine 
 513:../Firmware/GD32VW55x_standard_peripheral/Source/gd32vw55x_adc.c ****       \arg        ADC_EXTTRIG_ROUTINE_T0_CH2: external trigger TIMER0 CH2 event select for routine 
 514:../Firmware/GD32VW55x_standard_peripheral/Source/gd32vw55x_adc.c ****       \arg        ADC_EXTTRIG_ROUTINE_T1_CH1: external trigger TIMER1 CH1 event select for routine 
 515:../Firmware/GD32VW55x_standard_peripheral/Source/gd32vw55x_adc.c ****       \arg        ADC_EXTTRIG_ROUTINE_T1_CH2: external trigger TIMER1 CH2 event select for routine 
 516:../Firmware/GD32VW55x_standard_peripheral/Source/gd32vw55x_adc.c ****       \arg        ADC_EXTTRIG_ROUTINE_T1_CH3: external trigger TIMER1 CH3 event select for routine 
 517:../Firmware/GD32VW55x_standard_peripheral/Source/gd32vw55x_adc.c ****       \arg        ADC_EXTTRIG_ROUTINE_T1_TRGO: external trigger TIMER1 TRGO event select for routin
 518:../Firmware/GD32VW55x_standard_peripheral/Source/gd32vw55x_adc.c ****       \arg        ADC_EXTTRIG_ROUTINE_T2_CH0 : external trigger TIMER2 CH0 event select for routine
 519:../Firmware/GD32VW55x_standard_peripheral/Source/gd32vw55x_adc.c ****       \arg        ADC_EXTTRIG_ROUTINE_T2_TRGO : external trigger TIMER2 TRGO event select for routi
 520:../Firmware/GD32VW55x_standard_peripheral/Source/gd32vw55x_adc.c ****       \arg        ADC_EXTTRIG_ROUTINE_EXTI_11: external trigger extiline 11 select for routine chan
 521:../Firmware/GD32VW55x_standard_peripheral/Source/gd32vw55x_adc.c ****                 for inserted channel:
 522:../Firmware/GD32VW55x_standard_peripheral/Source/gd32vw55x_adc.c ****                 only one parameter can be selected which is shown as below:
 523:../Firmware/GD32VW55x_standard_peripheral/Source/gd32vw55x_adc.c ****       \arg        ADC_EXTTRIG_INSERTED_T0_CH3: TIMER0 CH3 event select for inserted channel
 524:../Firmware/GD32VW55x_standard_peripheral/Source/gd32vw55x_adc.c ****       \arg        ADC_EXTTRIG_INSERTED_T0_TRGO: TIMER0 TRGO event event select for inserted channel
 525:../Firmware/GD32VW55x_standard_peripheral/Source/gd32vw55x_adc.c ****       \arg        ADC_EXTTRIG_INSERTED_T1_CH0: TIMER1 CH0 event select for inserted channel
 526:../Firmware/GD32VW55x_standard_peripheral/Source/gd32vw55x_adc.c ****       \arg        ADC_EXTTRIG_INSERTED_T1_TRGO: TIMER1 TRGO event event select for inserted channel
 527:../Firmware/GD32VW55x_standard_peripheral/Source/gd32vw55x_adc.c ****       \arg        ADC_EXTTRIG_INSERTED_T2_CH1: TIMER2 CH1 event select for inserted channel
 528:../Firmware/GD32VW55x_standard_peripheral/Source/gd32vw55x_adc.c ****       \arg        ADC_EXTTRIG_INSERTED_T2_CH3: TIMER2 CH3 event select for inserted channel
 529:../Firmware/GD32VW55x_standard_peripheral/Source/gd32vw55x_adc.c ****       \arg        ADC_EXTTRIG_INSERTED_EXTI_15: external interrupt line 15 event select for inserte
 530:../Firmware/GD32VW55x_standard_peripheral/Source/gd32vw55x_adc.c ****     \param[out] none
 531:../Firmware/GD32VW55x_standard_peripheral/Source/gd32vw55x_adc.c ****     \retval     none
 532:../Firmware/GD32VW55x_standard_peripheral/Source/gd32vw55x_adc.c **** */
 533:../Firmware/GD32VW55x_standard_peripheral/Source/gd32vw55x_adc.c **** void adc_external_trigger_source_config(uint8_t channel_group, uint32_t external_trigger_source)
 534:../Firmware/GD32VW55x_standard_peripheral/Source/gd32vw55x_adc.c **** {
 1316              		.loc 1 534 1
 1317              		.cfi_startproc
 1318 0000 0111     		addi	sp,sp,-32
 1319              		.cfi_def_cfa_offset 32
 1320 0002 22CE     		sw	s0,28(sp)
 1321              		.cfi_offset 8, -4
 1322 0004 0010     		addi	s0,sp,32
 1323              		.cfi_def_cfa 8, 0
 1324 0006 AA87     		mv	a5,a0
 1325 0008 2324B4FE 		sw	a1,-24(s0)
 1326 000c A307F4FE 		sb	a5,-17(s0)
 535:../Firmware/GD32VW55x_standard_peripheral/Source/gd32vw55x_adc.c ****     switch(channel_group){
 1327              		.loc 1 535 5
 1328 0010 8347F4FE 		lbu	a5,-17(s0)
 1329 0014 0547     		li	a4,1
 1330 0016 6386E700 		beq	a5,a4,.L61
 1331 001a 0947     		li	a4,2
 1332 001c 638BE702 		beq	a5,a4,.L62
 536:../Firmware/GD32VW55x_standard_peripheral/Source/gd32vw55x_adc.c ****     case ADC_ROUTINE_CHANNEL:
 537:../Firmware/GD32VW55x_standard_peripheral/Source/gd32vw55x_adc.c ****         /* configure ADC routine group external trigger source */
 538:../Firmware/GD32VW55x_standard_peripheral/Source/gd32vw55x_adc.c ****         ADC_CTL1 &= ~((uint32_t)ADC_CTL1_ETSRC);
 539:../Firmware/GD32VW55x_standard_peripheral/Source/gd32vw55x_adc.c ****         ADC_CTL1 |= (uint32_t)external_trigger_source;
 540:../Firmware/GD32VW55x_standard_peripheral/Source/gd32vw55x_adc.c ****         break;
 541:../Firmware/GD32VW55x_standard_peripheral/Source/gd32vw55x_adc.c ****     case ADC_INSERTED_CHANNEL:
 542:../Firmware/GD32VW55x_standard_peripheral/Source/gd32vw55x_adc.c ****         /* configure ADC inserted group external trigger source */
 543:../Firmware/GD32VW55x_standard_peripheral/Source/gd32vw55x_adc.c ****         ADC_CTL1 &= ~((uint32_t)ADC_CTL1_ETSIC);
 544:../Firmware/GD32VW55x_standard_peripheral/Source/gd32vw55x_adc.c ****         ADC_CTL1 |= (uint32_t)external_trigger_source;
 545:../Firmware/GD32VW55x_standard_peripheral/Source/gd32vw55x_adc.c ****         break;
 546:../Firmware/GD32VW55x_standard_peripheral/Source/gd32vw55x_adc.c ****     default:
 547:../Firmware/GD32VW55x_standard_peripheral/Source/gd32vw55x_adc.c ****         break;
 1333              		.loc 1 547 9
 1334 0020 8DA0     		j	.L64
 1335              	.L61:
 538:../Firmware/GD32VW55x_standard_peripheral/Source/gd32vw55x_adc.c ****         ADC_CTL1 |= (uint32_t)external_trigger_source;
 1336              		.loc 1 538 18
 1337 0022 B7270140 		li	a5,1073815552
 1338 0026 A107     		addi	a5,a5,8
 1339 0028 9443     		lw	a3,0(a5)
 1340 002a B7270140 		li	a5,1073815552
 1341 002e A107     		addi	a5,a5,8
 1342 0030 370700F1 		li	a4,-251658240
 1343 0034 7D17     		addi	a4,a4,-1
 1344 0036 758F     		and	a4,a3,a4
 1345 0038 98C3     		sw	a4,0(a5)
 539:../Firmware/GD32VW55x_standard_peripheral/Source/gd32vw55x_adc.c ****         break;
 1346              		.loc 1 539 18
 1347 003a B7270140 		li	a5,1073815552
 1348 003e A107     		addi	a5,a5,8
 1349 0040 9443     		lw	a3,0(a5)
 1350 0042 B7270140 		li	a5,1073815552
 1351 0046 A107     		addi	a5,a5,8
 1352 0048 032784FE 		lw	a4,-24(s0)
 1353 004c 558F     		or	a4,a3,a4
 1354 004e 98C3     		sw	a4,0(a5)
 540:../Firmware/GD32VW55x_standard_peripheral/Source/gd32vw55x_adc.c ****     case ADC_INSERTED_CHANNEL:
 1355              		.loc 1 540 9
 1356 0050 0DA8     		j	.L64
 1357              	.L62:
 543:../Firmware/GD32VW55x_standard_peripheral/Source/gd32vw55x_adc.c ****         ADC_CTL1 |= (uint32_t)external_trigger_source;
 1358              		.loc 1 543 18
 1359 0052 B7270140 		li	a5,1073815552
 1360 0056 A107     		addi	a5,a5,8
 1361 0058 9443     		lw	a3,0(a5)
 1362 005a B7270140 		li	a5,1073815552
 1363 005e A107     		addi	a5,a5,8
 1364 0060 3707F1FF 		li	a4,-983040
 1365 0064 7D17     		addi	a4,a4,-1
 1366 0066 758F     		and	a4,a3,a4
 1367 0068 98C3     		sw	a4,0(a5)
 544:../Firmware/GD32VW55x_standard_peripheral/Source/gd32vw55x_adc.c ****         break;
 1368              		.loc 1 544 18
 1369 006a B7270140 		li	a5,1073815552
 1370 006e A107     		addi	a5,a5,8
 1371 0070 9443     		lw	a3,0(a5)
 1372 0072 B7270140 		li	a5,1073815552
 1373 0076 A107     		addi	a5,a5,8
 1374 0078 032784FE 		lw	a4,-24(s0)
 1375 007c 558F     		or	a4,a3,a4
 1376 007e 98C3     		sw	a4,0(a5)
 545:../Firmware/GD32VW55x_standard_peripheral/Source/gd32vw55x_adc.c ****     default:
 1377              		.loc 1 545 9
 1378 0080 0100     		nop
 1379              	.L64:
 548:../Firmware/GD32VW55x_standard_peripheral/Source/gd32vw55x_adc.c ****     }
 549:../Firmware/GD32VW55x_standard_peripheral/Source/gd32vw55x_adc.c **** }
 1380              		.loc 1 549 1
 1381 0082 0100     		nop
 1382 0084 7244     		lw	s0,28(sp)
 1383              		.cfi_restore 8
 1384              		.cfi_def_cfa 2, 32
 1385 0086 0561     		addi	sp,sp,32
 1386              		.cfi_def_cfa_offset 0
 1387 0088 8280     		jr	ra
 1388              		.cfi_endproc
 1389              	.LFE365:
 1391              		.section	.text.adc_software_trigger_enable,"ax",@progbits
 1392              		.align	1
 1393              		.globl	adc_software_trigger_enable
 1395              	adc_software_trigger_enable:
 1396              	.LFB366:
 550:../Firmware/GD32VW55x_standard_peripheral/Source/gd32vw55x_adc.c **** 
 551:../Firmware/GD32VW55x_standard_peripheral/Source/gd32vw55x_adc.c **** /*!
 552:../Firmware/GD32VW55x_standard_peripheral/Source/gd32vw55x_adc.c ****     \brief      enable ADC software trigger
 553:../Firmware/GD32VW55x_standard_peripheral/Source/gd32vw55x_adc.c ****     \param[in]  channel_group: select the channel group
 554:../Firmware/GD32VW55x_standard_peripheral/Source/gd32vw55x_adc.c ****                 only one parameter can be selected which is shown as below:
 555:../Firmware/GD32VW55x_standard_peripheral/Source/gd32vw55x_adc.c ****       \arg        ADC_ROUTINE_CHANNEL: routine channel group
 556:../Firmware/GD32VW55x_standard_peripheral/Source/gd32vw55x_adc.c ****       \arg        ADC_INSERTED_CHANNEL: inserted channel group
 557:../Firmware/GD32VW55x_standard_peripheral/Source/gd32vw55x_adc.c ****     \param[out] none
 558:../Firmware/GD32VW55x_standard_peripheral/Source/gd32vw55x_adc.c ****     \retval     none
 559:../Firmware/GD32VW55x_standard_peripheral/Source/gd32vw55x_adc.c **** */
 560:../Firmware/GD32VW55x_standard_peripheral/Source/gd32vw55x_adc.c **** void adc_software_trigger_enable(uint8_t channel_group)
 561:../Firmware/GD32VW55x_standard_peripheral/Source/gd32vw55x_adc.c **** {
 1397              		.loc 1 561 1
 1398              		.cfi_startproc
 1399 0000 0111     		addi	sp,sp,-32
 1400              		.cfi_def_cfa_offset 32
 1401 0002 22CE     		sw	s0,28(sp)
 1402              		.cfi_offset 8, -4
 1403 0004 0010     		addi	s0,sp,32
 1404              		.cfi_def_cfa 8, 0
 1405 0006 AA87     		mv	a5,a0
 1406 0008 A307F4FE 		sb	a5,-17(s0)
 562:../Firmware/GD32VW55x_standard_peripheral/Source/gd32vw55x_adc.c ****     /* enable routine group channel software trigger */
 563:../Firmware/GD32VW55x_standard_peripheral/Source/gd32vw55x_adc.c ****     if(RESET != (channel_group & ADC_ROUTINE_CHANNEL)){
 1407              		.loc 1 563 32
 1408 000c 8347F4FE 		lbu	a5,-17(s0)
 1409 0010 858B     		andi	a5,a5,1
 1410              		.loc 1 563 7
 1411 0012 81CF     		beq	a5,zero,.L66
 564:../Firmware/GD32VW55x_standard_peripheral/Source/gd32vw55x_adc.c ****         ADC_CTL1 |= (uint32_t)ADC_CTL1_SWRCST;
 1412              		.loc 1 564 18
 1413 0014 B7270140 		li	a5,1073815552
 1414 0018 A107     		addi	a5,a5,8
 1415 001a 9443     		lw	a3,0(a5)
 1416 001c B7270140 		li	a5,1073815552
 1417 0020 A107     		addi	a5,a5,8
 1418 0022 37070040 		li	a4,1073741824
 1419 0026 558F     		or	a4,a3,a4
 1420 0028 98C3     		sw	a4,0(a5)
 1421              	.L66:
 565:../Firmware/GD32VW55x_standard_peripheral/Source/gd32vw55x_adc.c ****     }
 566:../Firmware/GD32VW55x_standard_peripheral/Source/gd32vw55x_adc.c ****     /* enable inserted channel group software trigger */
 567:../Firmware/GD32VW55x_standard_peripheral/Source/gd32vw55x_adc.c ****     if(RESET != (channel_group & ADC_INSERTED_CHANNEL)){
 1422              		.loc 1 567 32
 1423 002a 8347F4FE 		lbu	a5,-17(s0)
 1424 002e 898B     		andi	a5,a5,2
 1425              		.loc 1 567 7
 1426 0030 81CF     		beq	a5,zero,.L68
 568:../Firmware/GD32VW55x_standard_peripheral/Source/gd32vw55x_adc.c ****         ADC_CTL1 |= (uint32_t)ADC_CTL1_SWICST;
 1427              		.loc 1 568 18
 1428 0032 B7270140 		li	a5,1073815552
 1429 0036 A107     		addi	a5,a5,8
 1430 0038 9443     		lw	a3,0(a5)
 1431 003a B7270140 		li	a5,1073815552
 1432 003e A107     		addi	a5,a5,8
 1433 0040 37074000 		li	a4,4194304
 1434 0044 558F     		or	a4,a3,a4
 1435 0046 98C3     		sw	a4,0(a5)
 1436              	.L68:
 569:../Firmware/GD32VW55x_standard_peripheral/Source/gd32vw55x_adc.c ****     }
 570:../Firmware/GD32VW55x_standard_peripheral/Source/gd32vw55x_adc.c **** }
 1437              		.loc 1 570 1
 1438 0048 0100     		nop
 1439 004a 7244     		lw	s0,28(sp)
 1440              		.cfi_restore 8
 1441              		.cfi_def_cfa 2, 32
 1442 004c 0561     		addi	sp,sp,32
 1443              		.cfi_def_cfa_offset 0
 1444 004e 8280     		jr	ra
 1445              		.cfi_endproc
 1446              	.LFE366:
 1448              		.section	.text.adc_end_of_conversion_config,"ax",@progbits
 1449              		.align	1
 1450              		.globl	adc_end_of_conversion_config
 1452              	adc_end_of_conversion_config:
 1453              	.LFB367:
 571:../Firmware/GD32VW55x_standard_peripheral/Source/gd32vw55x_adc.c **** 
 572:../Firmware/GD32VW55x_standard_peripheral/Source/gd32vw55x_adc.c **** /*!
 573:../Firmware/GD32VW55x_standard_peripheral/Source/gd32vw55x_adc.c ****     \brief      configure end of conversion mode
 574:../Firmware/GD32VW55x_standard_peripheral/Source/gd32vw55x_adc.c ****     \param[in]  end_selection: end of conversion mode
 575:../Firmware/GD32VW55x_standard_peripheral/Source/gd32vw55x_adc.c ****                 only one parameter can be selected which is shown as below:
 576:../Firmware/GD32VW55x_standard_peripheral/Source/gd32vw55x_adc.c ****       \arg        ADC_EOC_SET_SEQUENCE: only at the end of a sequence of routine conversions, the E
 577:../Firmware/GD32VW55x_standard_peripheral/Source/gd32vw55x_adc.c ****       \arg        ADC_EOC_SET_CONVERSION: at the end of each routine conversion, the EOC bit is set
 578:../Firmware/GD32VW55x_standard_peripheral/Source/gd32vw55x_adc.c ****     \param[out] none
 579:../Firmware/GD32VW55x_standard_peripheral/Source/gd32vw55x_adc.c ****     \retval     none
 580:../Firmware/GD32VW55x_standard_peripheral/Source/gd32vw55x_adc.c **** */
 581:../Firmware/GD32VW55x_standard_peripheral/Source/gd32vw55x_adc.c **** void adc_end_of_conversion_config(uint8_t end_selection)
 582:../Firmware/GD32VW55x_standard_peripheral/Source/gd32vw55x_adc.c **** {
 1454              		.loc 1 582 1
 1455              		.cfi_startproc
 1456 0000 0111     		addi	sp,sp,-32
 1457              		.cfi_def_cfa_offset 32
 1458 0002 22CE     		sw	s0,28(sp)
 1459              		.cfi_offset 8, -4
 1460 0004 0010     		addi	s0,sp,32
 1461              		.cfi_def_cfa 8, 0
 1462 0006 AA87     		mv	a5,a0
 1463 0008 A307F4FE 		sb	a5,-17(s0)
 583:../Firmware/GD32VW55x_standard_peripheral/Source/gd32vw55x_adc.c ****     switch(end_selection){
 1464              		.loc 1 583 5
 1465 000c 8347F4FE 		lbu	a5,-17(s0)
 1466 0010 89C7     		beq	a5,zero,.L70
 1467 0012 0547     		li	a4,1
 1468 0014 638EE700 		beq	a5,a4,.L71
 584:../Firmware/GD32VW55x_standard_peripheral/Source/gd32vw55x_adc.c ****         case ADC_EOC_SET_SEQUENCE:
 585:../Firmware/GD32VW55x_standard_peripheral/Source/gd32vw55x_adc.c ****             /* only at the end of a sequence of routine conversions, the EOC bit is set */
 586:../Firmware/GD32VW55x_standard_peripheral/Source/gd32vw55x_adc.c ****             ADC_CTL1 &= ~((uint32_t)ADC_CTL1_EOCM);
 587:../Firmware/GD32VW55x_standard_peripheral/Source/gd32vw55x_adc.c ****             break;
 588:../Firmware/GD32VW55x_standard_peripheral/Source/gd32vw55x_adc.c ****         case ADC_EOC_SET_CONVERSION:
 589:../Firmware/GD32VW55x_standard_peripheral/Source/gd32vw55x_adc.c ****             /* at the end of each routine conversion, the EOC bit is set.Overflow is detected autom
 590:../Firmware/GD32VW55x_standard_peripheral/Source/gd32vw55x_adc.c ****             ADC_CTL1 |= (uint32_t)(ADC_CTL1_EOCM);
 591:../Firmware/GD32VW55x_standard_peripheral/Source/gd32vw55x_adc.c ****             break;
 592:../Firmware/GD32VW55x_standard_peripheral/Source/gd32vw55x_adc.c ****         default:
 593:../Firmware/GD32VW55x_standard_peripheral/Source/gd32vw55x_adc.c ****             break;
 1469              		.loc 1 593 13
 1470 0018 3DA0     		j	.L73
 1471              	.L70:
 586:../Firmware/GD32VW55x_standard_peripheral/Source/gd32vw55x_adc.c ****             break;
 1472              		.loc 1 586 22
 1473 001a B7270140 		li	a5,1073815552
 1474 001e A107     		addi	a5,a5,8
 1475 0020 9843     		lw	a4,0(a5)
 1476 0022 B7270140 		li	a5,1073815552
 1477 0026 A107     		addi	a5,a5,8
 1478 0028 1377F7BF 		andi	a4,a4,-1025
 1479 002c 98C3     		sw	a4,0(a5)
 587:../Firmware/GD32VW55x_standard_peripheral/Source/gd32vw55x_adc.c ****         case ADC_EOC_SET_CONVERSION:
 1480              		.loc 1 587 13
 1481 002e 21A8     		j	.L73
 1482              	.L71:
 590:../Firmware/GD32VW55x_standard_peripheral/Source/gd32vw55x_adc.c ****             break;
 1483              		.loc 1 590 22
 1484 0030 B7270140 		li	a5,1073815552
 1485 0034 A107     		addi	a5,a5,8
 1486 0036 9843     		lw	a4,0(a5)
 1487 0038 B7270140 		li	a5,1073815552
 1488 003c A107     		addi	a5,a5,8
 1489 003e 13670740 		ori	a4,a4,1024
 1490 0042 98C3     		sw	a4,0(a5)
 591:../Firmware/GD32VW55x_standard_peripheral/Source/gd32vw55x_adc.c ****         default:
 1491              		.loc 1 591 13
 1492 0044 0100     		nop
 1493              	.L73:
 594:../Firmware/GD32VW55x_standard_peripheral/Source/gd32vw55x_adc.c ****     }
 595:../Firmware/GD32VW55x_standard_peripheral/Source/gd32vw55x_adc.c **** }
 1494              		.loc 1 595 1
 1495 0046 0100     		nop
 1496 0048 7244     		lw	s0,28(sp)
 1497              		.cfi_restore 8
 1498              		.cfi_def_cfa 2, 32
 1499 004a 0561     		addi	sp,sp,32
 1500              		.cfi_def_cfa_offset 0
 1501 004c 8280     		jr	ra
 1502              		.cfi_endproc
 1503              	.LFE367:
 1505              		.section	.text.adc_resolution_config,"ax",@progbits
 1506              		.align	1
 1507              		.globl	adc_resolution_config
 1509              	adc_resolution_config:
 1510              	.LFB368:
 596:../Firmware/GD32VW55x_standard_peripheral/Source/gd32vw55x_adc.c **** 
 597:../Firmware/GD32VW55x_standard_peripheral/Source/gd32vw55x_adc.c **** /*!
 598:../Firmware/GD32VW55x_standard_peripheral/Source/gd32vw55x_adc.c ****     \brief      configure ADC resolution
 599:../Firmware/GD32VW55x_standard_peripheral/Source/gd32vw55x_adc.c ****     \param[in]  resolution: ADC resolution
 600:../Firmware/GD32VW55x_standard_peripheral/Source/gd32vw55x_adc.c ****                 only one parameter can be selected which is shown as below:
 601:../Firmware/GD32VW55x_standard_peripheral/Source/gd32vw55x_adc.c ****       \arg        ADC_RESOLUTION_12B: 12-bit ADC resolution
 602:../Firmware/GD32VW55x_standard_peripheral/Source/gd32vw55x_adc.c ****       \arg        ADC_RESOLUTION_10B: 10-bit ADC resolution
 603:../Firmware/GD32VW55x_standard_peripheral/Source/gd32vw55x_adc.c ****       \arg        ADC_RESOLUTION_8B: 8-bit ADC resolution
 604:../Firmware/GD32VW55x_standard_peripheral/Source/gd32vw55x_adc.c ****       \arg        ADC_RESOLUTION_6B: 6-bit ADC resolution
 605:../Firmware/GD32VW55x_standard_peripheral/Source/gd32vw55x_adc.c ****     \param[out] none
 606:../Firmware/GD32VW55x_standard_peripheral/Source/gd32vw55x_adc.c ****     \retval     none
 607:../Firmware/GD32VW55x_standard_peripheral/Source/gd32vw55x_adc.c **** */
 608:../Firmware/GD32VW55x_standard_peripheral/Source/gd32vw55x_adc.c **** void adc_resolution_config(uint32_t resolution)
 609:../Firmware/GD32VW55x_standard_peripheral/Source/gd32vw55x_adc.c **** {
 1511              		.loc 1 609 1
 1512              		.cfi_startproc
 1513 0000 0111     		addi	sp,sp,-32
 1514              		.cfi_def_cfa_offset 32
 1515 0002 22CE     		sw	s0,28(sp)
 1516              		.cfi_offset 8, -4
 1517 0004 0010     		addi	s0,sp,32
 1518              		.cfi_def_cfa 8, 0
 1519 0006 2326A4FE 		sw	a0,-20(s0)
 610:../Firmware/GD32VW55x_standard_peripheral/Source/gd32vw55x_adc.c ****     ADC_CTL0 &= ~((uint32_t)ADC_CTL0_DRES);
 1520              		.loc 1 610 14
 1521 000a B7270140 		li	a5,1073815552
 1522 000e 9107     		addi	a5,a5,4
 1523 0010 9443     		lw	a3,0(a5)
 1524 0012 B7270140 		li	a5,1073815552
 1525 0016 9107     		addi	a5,a5,4
 1526 0018 370700FD 		li	a4,-50331648
 1527 001c 7D17     		addi	a4,a4,-1
 1528 001e 758F     		and	a4,a3,a4
 1529 0020 98C3     		sw	a4,0(a5)
 611:../Firmware/GD32VW55x_standard_peripheral/Source/gd32vw55x_adc.c ****     ADC_CTL0 |= (uint32_t)resolution;
 1530              		.loc 1 611 14
 1531 0022 B7270140 		li	a5,1073815552
 1532 0026 9107     		addi	a5,a5,4
 1533 0028 9443     		lw	a3,0(a5)
 1534 002a B7270140 		li	a5,1073815552
 1535 002e 9107     		addi	a5,a5,4
 1536 0030 0327C4FE 		lw	a4,-20(s0)
 1537 0034 558F     		or	a4,a3,a4
 1538 0036 98C3     		sw	a4,0(a5)
 612:../Firmware/GD32VW55x_standard_peripheral/Source/gd32vw55x_adc.c **** }
 1539              		.loc 1 612 1
 1540 0038 0100     		nop
 1541 003a 7244     		lw	s0,28(sp)
 1542              		.cfi_restore 8
 1543              		.cfi_def_cfa 2, 32
 1544 003c 0561     		addi	sp,sp,32
 1545              		.cfi_def_cfa_offset 0
 1546 003e 8280     		jr	ra
 1547              		.cfi_endproc
 1548              	.LFE368:
 1550              		.section	.text.adc_routine_data_read,"ax",@progbits
 1551              		.align	1
 1552              		.globl	adc_routine_data_read
 1554              	adc_routine_data_read:
 1555              	.LFB369:
 613:../Firmware/GD32VW55x_standard_peripheral/Source/gd32vw55x_adc.c **** 
 614:../Firmware/GD32VW55x_standard_peripheral/Source/gd32vw55x_adc.c **** /*!
 615:../Firmware/GD32VW55x_standard_peripheral/Source/gd32vw55x_adc.c ****     \brief      read ADC routine group data register
 616:../Firmware/GD32VW55x_standard_peripheral/Source/gd32vw55x_adc.c ****     \param[in]  none
 617:../Firmware/GD32VW55x_standard_peripheral/Source/gd32vw55x_adc.c ****     \param[out] none
 618:../Firmware/GD32VW55x_standard_peripheral/Source/gd32vw55x_adc.c ****     \retval     the conversion value: 0~0xFFFF
 619:../Firmware/GD32VW55x_standard_peripheral/Source/gd32vw55x_adc.c **** */
 620:../Firmware/GD32VW55x_standard_peripheral/Source/gd32vw55x_adc.c **** uint16_t adc_routine_data_read(void)
 621:../Firmware/GD32VW55x_standard_peripheral/Source/gd32vw55x_adc.c **** {
 1556              		.loc 1 621 1
 1557              		.cfi_startproc
 1558 0000 4111     		addi	sp,sp,-16
 1559              		.cfi_def_cfa_offset 16
 1560 0002 22C6     		sw	s0,12(sp)
 1561              		.cfi_offset 8, -4
 1562 0004 0008     		addi	s0,sp,16
 1563              		.cfi_def_cfa 8, 0
 622:../Firmware/GD32VW55x_standard_peripheral/Source/gd32vw55x_adc.c ****     return ((uint16_t)(ADC_RDATA));
 1564              		.loc 1 622 24
 1565 0006 B7270140 		li	a5,1073815552
 1566 000a 9387C704 		addi	a5,a5,76
 1567 000e 9C43     		lw	a5,0(a5)
 1568              		.loc 1 622 13
 1569 0010 C207     		slli	a5,a5,16
 1570 0012 C183     		srli	a5,a5,16
 623:../Firmware/GD32VW55x_standard_peripheral/Source/gd32vw55x_adc.c **** }
 1571              		.loc 1 623 1
 1572 0014 3E85     		mv	a0,a5
 1573 0016 3244     		lw	s0,12(sp)
 1574              		.cfi_restore 8
 1575              		.cfi_def_cfa 2, 16
 1576 0018 4101     		addi	sp,sp,16
 1577              		.cfi_def_cfa_offset 0
 1578 001a 8280     		jr	ra
 1579              		.cfi_endproc
 1580              	.LFE369:
 1582              		.section	.text.adc_inserted_data_read,"ax",@progbits
 1583              		.align	1
 1584              		.globl	adc_inserted_data_read
 1586              	adc_inserted_data_read:
 1587              	.LFB370:
 624:../Firmware/GD32VW55x_standard_peripheral/Source/gd32vw55x_adc.c **** 
 625:../Firmware/GD32VW55x_standard_peripheral/Source/gd32vw55x_adc.c **** /*!
 626:../Firmware/GD32VW55x_standard_peripheral/Source/gd32vw55x_adc.c ****     \brief      read ADC inserted group data register
 627:../Firmware/GD32VW55x_standard_peripheral/Source/gd32vw55x_adc.c ****     \param[in]  inserted_channel : inserted channel select
 628:../Firmware/GD32VW55x_standard_peripheral/Source/gd32vw55x_adc.c ****                 only one parameter can be selected which is shown as below:
 629:../Firmware/GD32VW55x_standard_peripheral/Source/gd32vw55x_adc.c ****       \arg        ADC_INSERTED_CHANNEL_0: inserted channel0
 630:../Firmware/GD32VW55x_standard_peripheral/Source/gd32vw55x_adc.c ****       \arg        ADC_INSERTED_CHANNEL_1: inserted channel1
 631:../Firmware/GD32VW55x_standard_peripheral/Source/gd32vw55x_adc.c ****       \arg        ADC_INSERTED_CHANNEL_2: inserted channel2
 632:../Firmware/GD32VW55x_standard_peripheral/Source/gd32vw55x_adc.c ****       \arg        ADC_INSERTED_CHANNEL_3: inserted channel3
 633:../Firmware/GD32VW55x_standard_peripheral/Source/gd32vw55x_adc.c ****     \param[out] none
 634:../Firmware/GD32VW55x_standard_peripheral/Source/gd32vw55x_adc.c ****     \retval     the conversion value: 0~0xFFFF
 635:../Firmware/GD32VW55x_standard_peripheral/Source/gd32vw55x_adc.c **** */
 636:../Firmware/GD32VW55x_standard_peripheral/Source/gd32vw55x_adc.c **** uint16_t adc_inserted_data_read(uint8_t inserted_channel)
 637:../Firmware/GD32VW55x_standard_peripheral/Source/gd32vw55x_adc.c **** {
 1588              		.loc 1 637 1
 1589              		.cfi_startproc
 1590 0000 7971     		addi	sp,sp,-48
 1591              		.cfi_def_cfa_offset 48
 1592 0002 22D6     		sw	s0,44(sp)
 1593              		.cfi_offset 8, -4
 1594 0004 0018     		addi	s0,sp,48
 1595              		.cfi_def_cfa 8, 0
 1596 0006 AA87     		mv	a5,a0
 1597 0008 A30FF4FC 		sb	a5,-33(s0)
 638:../Firmware/GD32VW55x_standard_peripheral/Source/gd32vw55x_adc.c ****     uint32_t idata;
 639:../Firmware/GD32VW55x_standard_peripheral/Source/gd32vw55x_adc.c ****     /* read the data of the selected channel */
 640:../Firmware/GD32VW55x_standard_peripheral/Source/gd32vw55x_adc.c ****     switch(inserted_channel){
 1598              		.loc 1 640 5
 1599 000c 8347F4FD 		lbu	a5,-33(s0)
 1600 0010 0D47     		li	a4,3
 1601 0012 6388E704 		beq	a5,a4,.L78
 1602 0016 0D47     		li	a4,3
 1603 0018 634DF704 		bgt	a5,a4,.L79
 1604 001c 0947     		li	a4,2
 1605 001e 638AE702 		beq	a5,a4,.L80
 1606 0022 0947     		li	a4,2
 1607 0024 6347F704 		bgt	a5,a4,.L79
 1608 0028 89C7     		beq	a5,zero,.L81
 1609 002a 0547     		li	a4,1
 1610 002c 638BE700 		beq	a5,a4,.L82
 1611 0030 89A0     		j	.L79
 1612              	.L81:
 641:../Firmware/GD32VW55x_standard_peripheral/Source/gd32vw55x_adc.c ****     case ADC_INSERTED_CHANNEL_0:
 642:../Firmware/GD32VW55x_standard_peripheral/Source/gd32vw55x_adc.c ****         /* read the data of channel 0 */
 643:../Firmware/GD32VW55x_standard_peripheral/Source/gd32vw55x_adc.c ****         idata = ADC_IDATA0;
 1613              		.loc 1 643 17
 1614 0032 B7270140 		li	a5,1073815552
 1615 0036 9387C703 		addi	a5,a5,60
 1616              		.loc 1 643 15
 1617 003a 9C43     		lw	a5,0(a5)
 1618 003c 2326F4FE 		sw	a5,-20(s0)
 644:../Firmware/GD32VW55x_standard_peripheral/Source/gd32vw55x_adc.c ****         break;
 1619              		.loc 1 644 9
 1620 0040 25A8     		j	.L83
 1621              	.L82:
 645:../Firmware/GD32VW55x_standard_peripheral/Source/gd32vw55x_adc.c ****     case ADC_INSERTED_CHANNEL_1:
 646:../Firmware/GD32VW55x_standard_peripheral/Source/gd32vw55x_adc.c ****         /* read the data of channel 1 */
 647:../Firmware/GD32VW55x_standard_peripheral/Source/gd32vw55x_adc.c ****         idata = ADC_IDATA1;
 1622              		.loc 1 647 17
 1623 0042 B7270140 		li	a5,1073815552
 1624 0046 93870704 		addi	a5,a5,64
 1625              		.loc 1 647 15
 1626 004a 9C43     		lw	a5,0(a5)
 1627 004c 2326F4FE 		sw	a5,-20(s0)
 648:../Firmware/GD32VW55x_standard_peripheral/Source/gd32vw55x_adc.c ****         break;
 1628              		.loc 1 648 9
 1629 0050 25A0     		j	.L83
 1630              	.L80:
 649:../Firmware/GD32VW55x_standard_peripheral/Source/gd32vw55x_adc.c ****     case ADC_INSERTED_CHANNEL_2:
 650:../Firmware/GD32VW55x_standard_peripheral/Source/gd32vw55x_adc.c ****         /* read the data of channel 2 */
 651:../Firmware/GD32VW55x_standard_peripheral/Source/gd32vw55x_adc.c ****         idata = ADC_IDATA2;
 1631              		.loc 1 651 17
 1632 0052 B7270140 		li	a5,1073815552
 1633 0056 93874704 		addi	a5,a5,68
 1634              		.loc 1 651 15
 1635 005a 9C43     		lw	a5,0(a5)
 1636 005c 2326F4FE 		sw	a5,-20(s0)
 652:../Firmware/GD32VW55x_standard_peripheral/Source/gd32vw55x_adc.c ****         break;
 1637              		.loc 1 652 9
 1638 0060 21A8     		j	.L83
 1639              	.L78:
 653:../Firmware/GD32VW55x_standard_peripheral/Source/gd32vw55x_adc.c ****     case ADC_INSERTED_CHANNEL_3:
 654:../Firmware/GD32VW55x_standard_peripheral/Source/gd32vw55x_adc.c ****         /* read the data of channel 3 */
 655:../Firmware/GD32VW55x_standard_peripheral/Source/gd32vw55x_adc.c ****         idata = ADC_IDATA3;
 1640              		.loc 1 655 17
 1641 0062 B7270140 		li	a5,1073815552
 1642 0066 93878704 		addi	a5,a5,72
 1643              		.loc 1 655 15
 1644 006a 9C43     		lw	a5,0(a5)
 1645 006c 2326F4FE 		sw	a5,-20(s0)
 656:../Firmware/GD32VW55x_standard_peripheral/Source/gd32vw55x_adc.c ****         break;
 1646              		.loc 1 656 9
 1647 0070 21A0     		j	.L83
 1648              	.L79:
 657:../Firmware/GD32VW55x_standard_peripheral/Source/gd32vw55x_adc.c ****     default:
 658:../Firmware/GD32VW55x_standard_peripheral/Source/gd32vw55x_adc.c ****         idata = 0U;
 1649              		.loc 1 658 15
 1650 0072 232604FE 		sw	zero,-20(s0)
 659:../Firmware/GD32VW55x_standard_peripheral/Source/gd32vw55x_adc.c ****         break;
 1651              		.loc 1 659 9
 1652 0076 0100     		nop
 1653              	.L83:
 660:../Firmware/GD32VW55x_standard_peripheral/Source/gd32vw55x_adc.c ****     }
 661:../Firmware/GD32VW55x_standard_peripheral/Source/gd32vw55x_adc.c ****     return (uint16_t)idata;
 1654              		.loc 1 661 12
 1655 0078 8327C4FE 		lw	a5,-20(s0)
 1656 007c C207     		slli	a5,a5,16
 1657 007e C183     		srli	a5,a5,16
 662:../Firmware/GD32VW55x_standard_peripheral/Source/gd32vw55x_adc.c **** }
 1658              		.loc 1 662 1
 1659 0080 3E85     		mv	a0,a5
 1660 0082 3254     		lw	s0,44(sp)
 1661              		.cfi_restore 8
 1662              		.cfi_def_cfa 2, 48
 1663 0084 4561     		addi	sp,sp,48
 1664              		.cfi_def_cfa_offset 0
 1665 0086 8280     		jr	ra
 1666              		.cfi_endproc
 1667              	.LFE370:
 1669              		.section	.text.adc_watchdog_single_channel_enable,"ax",@progbits
 1670              		.align	1
 1671              		.globl	adc_watchdog_single_channel_enable
 1673              	adc_watchdog_single_channel_enable:
 1674              	.LFB371:
 663:../Firmware/GD32VW55x_standard_peripheral/Source/gd32vw55x_adc.c **** 
 664:../Firmware/GD32VW55x_standard_peripheral/Source/gd32vw55x_adc.c **** /*!
 665:../Firmware/GD32VW55x_standard_peripheral/Source/gd32vw55x_adc.c ****     \brief      enable ADC analog watchdog single channel
 666:../Firmware/GD32VW55x_standard_peripheral/Source/gd32vw55x_adc.c ****     \param[in]  channel: the selected ADC channel
 667:../Firmware/GD32VW55x_standard_peripheral/Source/gd32vw55x_adc.c ****                 only one parameter can be selected which is shown as below:
 668:../Firmware/GD32VW55x_standard_peripheral/Source/gd32vw55x_adc.c ****       \arg        ADC_CHANNEL_x: ADC Channelx(x=0..10)
 669:../Firmware/GD32VW55x_standard_peripheral/Source/gd32vw55x_adc.c ****     \param[out] none
 670:../Firmware/GD32VW55x_standard_peripheral/Source/gd32vw55x_adc.c ****     \retval     none
 671:../Firmware/GD32VW55x_standard_peripheral/Source/gd32vw55x_adc.c **** */
 672:../Firmware/GD32VW55x_standard_peripheral/Source/gd32vw55x_adc.c **** void adc_watchdog_single_channel_enable(uint8_t channel)
 673:../Firmware/GD32VW55x_standard_peripheral/Source/gd32vw55x_adc.c **** {
 1675              		.loc 1 673 1
 1676              		.cfi_startproc
 1677 0000 0111     		addi	sp,sp,-32
 1678              		.cfi_def_cfa_offset 32
 1679 0002 22CE     		sw	s0,28(sp)
 1680              		.cfi_offset 8, -4
 1681 0004 0010     		addi	s0,sp,32
 1682              		.cfi_def_cfa 8, 0
 1683 0006 AA87     		mv	a5,a0
 1684 0008 A307F4FE 		sb	a5,-17(s0)
 674:../Firmware/GD32VW55x_standard_peripheral/Source/gd32vw55x_adc.c ****     ADC_CTL0 &= (uint32_t)~(ADC_CTL0_RWDEN | ADC_CTL0_IWDEN | ADC_CTL0_WDSC | ADC_CTL0_WDCHSEL);
 1685              		.loc 1 674 14
 1686 000c B7270140 		li	a5,1073815552
 1687 0010 9107     		addi	a5,a5,4
 1688 0012 9443     		lw	a3,0(a5)
 1689 0014 B7270140 		li	a5,1073815552
 1690 0018 9107     		addi	a5,a5,4
 1691 001a 370740FF 		li	a4,-12582912
 1692 001e 130707DE 		addi	a4,a4,-544
 1693 0022 758F     		and	a4,a3,a4
 1694 0024 98C3     		sw	a4,0(a5)
 675:../Firmware/GD32VW55x_standard_peripheral/Source/gd32vw55x_adc.c **** 
 676:../Firmware/GD32VW55x_standard_peripheral/Source/gd32vw55x_adc.c ****     ADC_CTL0 |= (uint32_t)channel;
 1695              		.loc 1 676 14
 1696 0026 B7270140 		li	a5,1073815552
 1697 002a 9107     		addi	a5,a5,4
 1698 002c 9443     		lw	a3,0(a5)
 1699              		.loc 1 676 17
 1700 002e 0347F4FE 		lbu	a4,-17(s0)
 1701              		.loc 1 676 14
 1702 0032 B7270140 		li	a5,1073815552
 1703 0036 9107     		addi	a5,a5,4
 1704 0038 558F     		or	a4,a3,a4
 1705 003a 98C3     		sw	a4,0(a5)
 677:../Firmware/GD32VW55x_standard_peripheral/Source/gd32vw55x_adc.c ****     ADC_CTL0 |= (uint32_t)(ADC_CTL0_RWDEN | ADC_CTL0_IWDEN | ADC_CTL0_WDSC);
 1706              		.loc 1 677 14
 1707 003c B7270140 		li	a5,1073815552
 1708 0040 9107     		addi	a5,a5,4
 1709 0042 9443     		lw	a3,0(a5)
 1710 0044 B7270140 		li	a5,1073815552
 1711 0048 9107     		addi	a5,a5,4
 1712 004a 3707C000 		li	a4,12582912
 1713 004e 13070720 		addi	a4,a4,512
 1714 0052 558F     		or	a4,a3,a4
 1715 0054 98C3     		sw	a4,0(a5)
 678:../Firmware/GD32VW55x_standard_peripheral/Source/gd32vw55x_adc.c **** }
 1716              		.loc 1 678 1
 1717 0056 0100     		nop
 1718 0058 7244     		lw	s0,28(sp)
 1719              		.cfi_restore 8
 1720              		.cfi_def_cfa 2, 32
 1721 005a 0561     		addi	sp,sp,32
 1722              		.cfi_def_cfa_offset 0
 1723 005c 8280     		jr	ra
 1724              		.cfi_endproc
 1725              	.LFE371:
 1727              		.section	.text.adc_watchdog_group_channel_enable,"ax",@progbits
 1728              		.align	1
 1729              		.globl	adc_watchdog_group_channel_enable
 1731              	adc_watchdog_group_channel_enable:
 1732              	.LFB372:
 679:../Firmware/GD32VW55x_standard_peripheral/Source/gd32vw55x_adc.c **** 
 680:../Firmware/GD32VW55x_standard_peripheral/Source/gd32vw55x_adc.c **** /*!
 681:../Firmware/GD32VW55x_standard_peripheral/Source/gd32vw55x_adc.c ****     \brief      configure ADC analog watchdog group channel
 682:../Firmware/GD32VW55x_standard_peripheral/Source/gd32vw55x_adc.c ****     \param[in]  channel_group: the channel group use analog watchdog
 683:../Firmware/GD32VW55x_standard_peripheral/Source/gd32vw55x_adc.c ****                 only one parameter can be selected which is shown as below:
 684:../Firmware/GD32VW55x_standard_peripheral/Source/gd32vw55x_adc.c ****       \arg        ADC_ROUTINE_CHANNEL: routine channel group
 685:../Firmware/GD32VW55x_standard_peripheral/Source/gd32vw55x_adc.c ****       \arg        ADC_INSERTED_CHANNEL: inserted channel group
 686:../Firmware/GD32VW55x_standard_peripheral/Source/gd32vw55x_adc.c ****       \arg        ADC_ROUTINE_INSERTED_CHANNEL: both routine and inserted group
 687:../Firmware/GD32VW55x_standard_peripheral/Source/gd32vw55x_adc.c ****     \param[out] none
 688:../Firmware/GD32VW55x_standard_peripheral/Source/gd32vw55x_adc.c ****     \retval     none
 689:../Firmware/GD32VW55x_standard_peripheral/Source/gd32vw55x_adc.c **** */
 690:../Firmware/GD32VW55x_standard_peripheral/Source/gd32vw55x_adc.c **** void adc_watchdog_group_channel_enable(uint8_t channel_group)
 691:../Firmware/GD32VW55x_standard_peripheral/Source/gd32vw55x_adc.c **** {
 1733              		.loc 1 691 1
 1734              		.cfi_startproc
 1735 0000 0111     		addi	sp,sp,-32
 1736              		.cfi_def_cfa_offset 32
 1737 0002 22CE     		sw	s0,28(sp)
 1738              		.cfi_offset 8, -4
 1739 0004 0010     		addi	s0,sp,32
 1740              		.cfi_def_cfa 8, 0
 1741 0006 AA87     		mv	a5,a0
 1742 0008 A307F4FE 		sb	a5,-17(s0)
 692:../Firmware/GD32VW55x_standard_peripheral/Source/gd32vw55x_adc.c ****     ADC_CTL0 &= ~((uint32_t)(ADC_CTL0_RWDEN | ADC_CTL0_IWDEN | ADC_CTL0_WDSC));
 1743              		.loc 1 692 14
 1744 000c B7270140 		li	a5,1073815552
 1745 0010 9107     		addi	a5,a5,4
 1746 0012 9443     		lw	a3,0(a5)
 1747 0014 B7270140 		li	a5,1073815552
 1748 0018 9107     		addi	a5,a5,4
 1749 001a 370740FF 		li	a4,-12582912
 1750 001e 1307F7DF 		addi	a4,a4,-513
 1751 0022 758F     		and	a4,a3,a4
 1752 0024 98C3     		sw	a4,0(a5)
 693:../Firmware/GD32VW55x_standard_peripheral/Source/gd32vw55x_adc.c ****     /* select the group */
 694:../Firmware/GD32VW55x_standard_peripheral/Source/gd32vw55x_adc.c ****     switch(channel_group){
 1753              		.loc 1 694 5
 1754 0026 8347F4FE 		lbu	a5,-17(s0)
 1755 002a 0D47     		li	a4,3
 1756 002c 6384E704 		beq	a5,a4,.L87
 1757 0030 0D47     		li	a4,3
 1758 0032 634DF704 		bgt	a5,a4,.L92
 1759 0036 0547     		li	a4,1
 1760 0038 6386E700 		beq	a5,a4,.L89
 1761 003c 0947     		li	a4,2
 1762 003e 638FE700 		beq	a5,a4,.L90
 695:../Firmware/GD32VW55x_standard_peripheral/Source/gd32vw55x_adc.c ****     case ADC_ROUTINE_CHANNEL:
 696:../Firmware/GD32VW55x_standard_peripheral/Source/gd32vw55x_adc.c ****         /* routine channel analog watchdog enable */
 697:../Firmware/GD32VW55x_standard_peripheral/Source/gd32vw55x_adc.c ****         ADC_CTL0 |= (uint32_t) ADC_CTL0_RWDEN;
 698:../Firmware/GD32VW55x_standard_peripheral/Source/gd32vw55x_adc.c ****         break;
 699:../Firmware/GD32VW55x_standard_peripheral/Source/gd32vw55x_adc.c ****     case ADC_INSERTED_CHANNEL:
 700:../Firmware/GD32VW55x_standard_peripheral/Source/gd32vw55x_adc.c ****         /* inserted channel analog watchdog enable */
 701:../Firmware/GD32VW55x_standard_peripheral/Source/gd32vw55x_adc.c ****         ADC_CTL0 |= (uint32_t) ADC_CTL0_IWDEN;
 702:../Firmware/GD32VW55x_standard_peripheral/Source/gd32vw55x_adc.c ****         break;
 703:../Firmware/GD32VW55x_standard_peripheral/Source/gd32vw55x_adc.c ****     case ADC_ROUTINE_INSERTED_CHANNEL:
 704:../Firmware/GD32VW55x_standard_peripheral/Source/gd32vw55x_adc.c ****         /* routine and inserted channel analog watchdog enable */
 705:../Firmware/GD32VW55x_standard_peripheral/Source/gd32vw55x_adc.c ****         ADC_CTL0 |= (uint32_t)(ADC_CTL0_RWDEN | ADC_CTL0_IWDEN);
 706:../Firmware/GD32VW55x_standard_peripheral/Source/gd32vw55x_adc.c ****         break;
 707:../Firmware/GD32VW55x_standard_peripheral/Source/gd32vw55x_adc.c ****     default:
 708:../Firmware/GD32VW55x_standard_peripheral/Source/gd32vw55x_adc.c ****         break;
 1763              		.loc 1 708 9
 1764 0042 A9A0     		j	.L92
 1765              	.L89:
 697:../Firmware/GD32VW55x_standard_peripheral/Source/gd32vw55x_adc.c ****         break;
 1766              		.loc 1 697 18
 1767 0044 B7270140 		li	a5,1073815552
 1768 0048 9107     		addi	a5,a5,4
 1769 004a 9443     		lw	a3,0(a5)
 1770 004c B7270140 		li	a5,1073815552
 1771 0050 9107     		addi	a5,a5,4
 1772 0052 37078000 		li	a4,8388608
 1773 0056 558F     		or	a4,a3,a4
 1774 0058 98C3     		sw	a4,0(a5)
 698:../Firmware/GD32VW55x_standard_peripheral/Source/gd32vw55x_adc.c ****     case ADC_INSERTED_CHANNEL:
 1775              		.loc 1 698 9
 1776 005a 15A8     		j	.L91
 1777              	.L90:
 701:../Firmware/GD32VW55x_standard_peripheral/Source/gd32vw55x_adc.c ****         break;
 1778              		.loc 1 701 18
 1779 005c B7270140 		li	a5,1073815552
 1780 0060 9107     		addi	a5,a5,4
 1781 0062 9443     		lw	a3,0(a5)
 1782 0064 B7270140 		li	a5,1073815552
 1783 0068 9107     		addi	a5,a5,4
 1784 006a 37074000 		li	a4,4194304
 1785 006e 558F     		or	a4,a3,a4
 1786 0070 98C3     		sw	a4,0(a5)
 702:../Firmware/GD32VW55x_standard_peripheral/Source/gd32vw55x_adc.c ****     case ADC_ROUTINE_INSERTED_CHANNEL:
 1787              		.loc 1 702 9
 1788 0072 31A8     		j	.L91
 1789              	.L87:
 705:../Firmware/GD32VW55x_standard_peripheral/Source/gd32vw55x_adc.c ****         break;
 1790              		.loc 1 705 18
 1791 0074 B7270140 		li	a5,1073815552
 1792 0078 9107     		addi	a5,a5,4
 1793 007a 9443     		lw	a3,0(a5)
 1794 007c B7270140 		li	a5,1073815552
 1795 0080 9107     		addi	a5,a5,4
 1796 0082 3707C000 		li	a4,12582912
 1797 0086 558F     		or	a4,a3,a4
 1798 0088 98C3     		sw	a4,0(a5)
 706:../Firmware/GD32VW55x_standard_peripheral/Source/gd32vw55x_adc.c ****     default:
 1799              		.loc 1 706 9
 1800 008a 11A0     		j	.L91
 1801              	.L92:
 1802              		.loc 1 708 9
 1803 008c 0100     		nop
 1804              	.L91:
 709:../Firmware/GD32VW55x_standard_peripheral/Source/gd32vw55x_adc.c ****     }
 710:../Firmware/GD32VW55x_standard_peripheral/Source/gd32vw55x_adc.c **** }
 1805              		.loc 1 710 1
 1806 008e 0100     		nop
 1807 0090 7244     		lw	s0,28(sp)
 1808              		.cfi_restore 8
 1809              		.cfi_def_cfa 2, 32
 1810 0092 0561     		addi	sp,sp,32
 1811              		.cfi_def_cfa_offset 0
 1812 0094 8280     		jr	ra
 1813              		.cfi_endproc
 1814              	.LFE372:
 1816              		.section	.text.adc_watchdog_disable,"ax",@progbits
 1817              		.align	1
 1818              		.globl	adc_watchdog_disable
 1820              	adc_watchdog_disable:
 1821              	.LFB373:
 711:../Firmware/GD32VW55x_standard_peripheral/Source/gd32vw55x_adc.c **** 
 712:../Firmware/GD32VW55x_standard_peripheral/Source/gd32vw55x_adc.c **** /*!
 713:../Firmware/GD32VW55x_standard_peripheral/Source/gd32vw55x_adc.c ****     \brief      disable ADC analog watchdog
 714:../Firmware/GD32VW55x_standard_peripheral/Source/gd32vw55x_adc.c ****     \param[in]  none
 715:../Firmware/GD32VW55x_standard_peripheral/Source/gd32vw55x_adc.c ****     \param[out] none
 716:../Firmware/GD32VW55x_standard_peripheral/Source/gd32vw55x_adc.c ****     \retval     none
 717:../Firmware/GD32VW55x_standard_peripheral/Source/gd32vw55x_adc.c **** */
 718:../Firmware/GD32VW55x_standard_peripheral/Source/gd32vw55x_adc.c **** void adc_watchdog_disable(void)
 719:../Firmware/GD32VW55x_standard_peripheral/Source/gd32vw55x_adc.c **** {
 1822              		.loc 1 719 1
 1823              		.cfi_startproc
 1824 0000 4111     		addi	sp,sp,-16
 1825              		.cfi_def_cfa_offset 16
 1826 0002 22C6     		sw	s0,12(sp)
 1827              		.cfi_offset 8, -4
 1828 0004 0008     		addi	s0,sp,16
 1829              		.cfi_def_cfa 8, 0
 720:../Firmware/GD32VW55x_standard_peripheral/Source/gd32vw55x_adc.c ****     ADC_CTL0 &= (uint32_t)~(ADC_CTL0_RWDEN | ADC_CTL0_IWDEN | ADC_CTL0_WDSC | ADC_CTL0_WDCHSEL);
 1830              		.loc 1 720 14
 1831 0006 B7270140 		li	a5,1073815552
 1832 000a 9107     		addi	a5,a5,4
 1833 000c 9443     		lw	a3,0(a5)
 1834 000e B7270140 		li	a5,1073815552
 1835 0012 9107     		addi	a5,a5,4
 1836 0014 370740FF 		li	a4,-12582912
 1837 0018 130707DE 		addi	a4,a4,-544
 1838 001c 758F     		and	a4,a3,a4
 1839 001e 98C3     		sw	a4,0(a5)
 721:../Firmware/GD32VW55x_standard_peripheral/Source/gd32vw55x_adc.c **** }
 1840              		.loc 1 721 1
 1841 0020 0100     		nop
 1842 0022 3244     		lw	s0,12(sp)
 1843              		.cfi_restore 8
 1844              		.cfi_def_cfa 2, 16
 1845 0024 4101     		addi	sp,sp,16
 1846              		.cfi_def_cfa_offset 0
 1847 0026 8280     		jr	ra
 1848              		.cfi_endproc
 1849              	.LFE373:
 1851              		.section	.text.adc_watchdog_threshold_config,"ax",@progbits
 1852              		.align	1
 1853              		.globl	adc_watchdog_threshold_config
 1855              	adc_watchdog_threshold_config:
 1856              	.LFB374:
 722:../Firmware/GD32VW55x_standard_peripheral/Source/gd32vw55x_adc.c **** 
 723:../Firmware/GD32VW55x_standard_peripheral/Source/gd32vw55x_adc.c **** /*!
 724:../Firmware/GD32VW55x_standard_peripheral/Source/gd32vw55x_adc.c ****     \brief      configure ADC analog watchdog threshold
 725:../Firmware/GD32VW55x_standard_peripheral/Source/gd32vw55x_adc.c ****     \param[in]  low_threshold: analog watchdog low threshold,0..4095
 726:../Firmware/GD32VW55x_standard_peripheral/Source/gd32vw55x_adc.c ****     \param[in]  high_threshold: analog watchdog high threshold,0..4095
 727:../Firmware/GD32VW55x_standard_peripheral/Source/gd32vw55x_adc.c ****     \param[out] none
 728:../Firmware/GD32VW55x_standard_peripheral/Source/gd32vw55x_adc.c ****     \retval     none
 729:../Firmware/GD32VW55x_standard_peripheral/Source/gd32vw55x_adc.c **** */
 730:../Firmware/GD32VW55x_standard_peripheral/Source/gd32vw55x_adc.c **** void adc_watchdog_threshold_config(uint16_t low_threshold, uint16_t high_threshold)
 731:../Firmware/GD32VW55x_standard_peripheral/Source/gd32vw55x_adc.c **** {
 1857              		.loc 1 731 1
 1858              		.cfi_startproc
 1859 0000 0111     		addi	sp,sp,-32
 1860              		.cfi_def_cfa_offset 32
 1861 0002 22CE     		sw	s0,28(sp)
 1862              		.cfi_offset 8, -4
 1863 0004 0010     		addi	s0,sp,32
 1864              		.cfi_def_cfa 8, 0
 1865 0006 AA87     		mv	a5,a0
 1866 0008 2E87     		mv	a4,a1
 1867 000a 2317F4FE 		sh	a5,-18(s0)
 1868 000e BA87     		mv	a5,a4
 1869 0010 2316F4FE 		sh	a5,-20(s0)
 732:../Firmware/GD32VW55x_standard_peripheral/Source/gd32vw55x_adc.c ****     /* configure ADC analog watchdog low threshold */
 733:../Firmware/GD32VW55x_standard_peripheral/Source/gd32vw55x_adc.c ****     ADC_WDLT = (uint32_t)WDLT_WDLT(low_threshold);
 1870              		.loc 1 733 26
 1871 0014 8356E4FE 		lhu	a3,-18(s0)
 1872              		.loc 1 733 5
 1873 0018 B7270140 		li	a5,1073815552
 1874 001c 93878702 		addi	a5,a5,40
 1875              		.loc 1 733 16
 1876 0020 0567     		li	a4,4096
 1877 0022 7D17     		addi	a4,a4,-1
 1878 0024 758F     		and	a4,a3,a4
 1879              		.loc 1 733 14
 1880 0026 98C3     		sw	a4,0(a5)
 734:../Firmware/GD32VW55x_standard_peripheral/Source/gd32vw55x_adc.c ****     /* configure ADC analog watchdog high threshold */
 735:../Firmware/GD32VW55x_standard_peripheral/Source/gd32vw55x_adc.c ****     ADC_WDHT = (uint32_t)WDHT_WDHT(high_threshold);
 1881              		.loc 1 735 26
 1882 0028 8356C4FE 		lhu	a3,-20(s0)
 1883              		.loc 1 735 5
 1884 002c B7270140 		li	a5,1073815552
 1885 0030 93874702 		addi	a5,a5,36
 1886              		.loc 1 735 16
 1887 0034 0567     		li	a4,4096
 1888 0036 7D17     		addi	a4,a4,-1
 1889 0038 758F     		and	a4,a3,a4
 1890              		.loc 1 735 14
 1891 003a 98C3     		sw	a4,0(a5)
 736:../Firmware/GD32VW55x_standard_peripheral/Source/gd32vw55x_adc.c **** }
 1892              		.loc 1 736 1
 1893 003c 0100     		nop
 1894 003e 7244     		lw	s0,28(sp)
 1895              		.cfi_restore 8
 1896              		.cfi_def_cfa 2, 32
 1897 0040 0561     		addi	sp,sp,32
 1898              		.cfi_def_cfa_offset 0
 1899 0042 8280     		jr	ra
 1900              		.cfi_endproc
 1901              	.LFE374:
 1903              		.section	.text.adc_oversample_mode_config,"ax",@progbits
 1904              		.align	1
 1905              		.globl	adc_oversample_mode_config
 1907              	adc_oversample_mode_config:
 1908              	.LFB375:
 737:../Firmware/GD32VW55x_standard_peripheral/Source/gd32vw55x_adc.c **** 
 738:../Firmware/GD32VW55x_standard_peripheral/Source/gd32vw55x_adc.c **** /*!
 739:../Firmware/GD32VW55x_standard_peripheral/Source/gd32vw55x_adc.c ****     \brief      configure ADC oversample mode
 740:../Firmware/GD32VW55x_standard_peripheral/Source/gd32vw55x_adc.c ****     \param[in]  mode: ADC oversampling mode
 741:../Firmware/GD32VW55x_standard_peripheral/Source/gd32vw55x_adc.c ****                 only one parameter can be selected which is shown as below:
 742:../Firmware/GD32VW55x_standard_peripheral/Source/gd32vw55x_adc.c ****       \arg        ADC_OVERSAMPLING_ALL_CONVERT: all oversampled conversions for a channel are done 
 743:../Firmware/GD32VW55x_standard_peripheral/Source/gd32vw55x_adc.c ****       \arg        ADC_OVERSAMPLING_ONE_CONVERT: each oversampled conversion for a channel needs a t
 744:../Firmware/GD32VW55x_standard_peripheral/Source/gd32vw55x_adc.c ****     \param[in]  shift: ADC oversampling shift
 745:../Firmware/GD32VW55x_standard_peripheral/Source/gd32vw55x_adc.c ****                 only one parameter can be selected which is shown as below:
 746:../Firmware/GD32VW55x_standard_peripheral/Source/gd32vw55x_adc.c ****       \arg        ADC_OVERSAMPLING_SHIFT_NONE: no oversampling shift
 747:../Firmware/GD32VW55x_standard_peripheral/Source/gd32vw55x_adc.c ****       \arg        ADC_OVERSAMPLING_SHIFT_1B: 1-bit oversampling shift
 748:../Firmware/GD32VW55x_standard_peripheral/Source/gd32vw55x_adc.c ****       \arg        ADC_OVERSAMPLING_SHIFT_2B: 2-bit oversampling shift
 749:../Firmware/GD32VW55x_standard_peripheral/Source/gd32vw55x_adc.c ****       \arg        ADC_OVERSAMPLING_SHIFT_3B: 3-bit oversampling shift
 750:../Firmware/GD32VW55x_standard_peripheral/Source/gd32vw55x_adc.c ****       \arg        ADC_OVERSAMPLING_SHIFT_4B: 3-bit oversampling shift
 751:../Firmware/GD32VW55x_standard_peripheral/Source/gd32vw55x_adc.c ****       \arg        ADC_OVERSAMPLING_SHIFT_5B: 5-bit oversampling shift
 752:../Firmware/GD32VW55x_standard_peripheral/Source/gd32vw55x_adc.c ****       \arg        ADC_OVERSAMPLING_SHIFT_6B: 6-bit oversampling shift
 753:../Firmware/GD32VW55x_standard_peripheral/Source/gd32vw55x_adc.c ****       \arg        ADC_OVERSAMPLING_SHIFT_7B: 7-bit oversampling shift
 754:../Firmware/GD32VW55x_standard_peripheral/Source/gd32vw55x_adc.c ****       \arg        ADC_OVERSAMPLING_SHIFT_8B: 8-bit oversampling shift
 755:../Firmware/GD32VW55x_standard_peripheral/Source/gd32vw55x_adc.c ****     \param[in]  ratio: ADC oversampling ratio
 756:../Firmware/GD32VW55x_standard_peripheral/Source/gd32vw55x_adc.c ****                 only one parameter can be selected which is shown as below:
 757:../Firmware/GD32VW55x_standard_peripheral/Source/gd32vw55x_adc.c ****       \arg        ADC_OVERSAMPLING_RATIO_MUL2: oversampling ratio multiple 2
 758:../Firmware/GD32VW55x_standard_peripheral/Source/gd32vw55x_adc.c ****       \arg        ADC_OVERSAMPLING_RATIO_MUL4: oversampling ratio multiple 4
 759:../Firmware/GD32VW55x_standard_peripheral/Source/gd32vw55x_adc.c ****       \arg        ADC_OVERSAMPLING_RATIO_MUL8: oversampling ratio multiple 8
 760:../Firmware/GD32VW55x_standard_peripheral/Source/gd32vw55x_adc.c ****       \arg        ADC_OVERSAMPLING_RATIO_MUL16: oversampling ratio multiple 16
 761:../Firmware/GD32VW55x_standard_peripheral/Source/gd32vw55x_adc.c ****       \arg        ADC_OVERSAMPLING_RATIO_MUL32: oversampling ratio multiple 32
 762:../Firmware/GD32VW55x_standard_peripheral/Source/gd32vw55x_adc.c ****       \arg        ADC_OVERSAMPLING_RATIO_MUL64: oversampling ratio multiple 64
 763:../Firmware/GD32VW55x_standard_peripheral/Source/gd32vw55x_adc.c ****       \arg        ADC_OVERSAMPLING_RATIO_MUL128: oversampling ratio multiple 128
 764:../Firmware/GD32VW55x_standard_peripheral/Source/gd32vw55x_adc.c ****       \arg        ADC_OVERSAMPLING_RATIO_MUL256: oversampling ratio multiple 256
 765:../Firmware/GD32VW55x_standard_peripheral/Source/gd32vw55x_adc.c ****     \param[out] none
 766:../Firmware/GD32VW55x_standard_peripheral/Source/gd32vw55x_adc.c ****     \retval     none
 767:../Firmware/GD32VW55x_standard_peripheral/Source/gd32vw55x_adc.c **** */
 768:../Firmware/GD32VW55x_standard_peripheral/Source/gd32vw55x_adc.c **** void adc_oversample_mode_config(uint32_t mode, uint16_t shift, uint8_t ratio)
 769:../Firmware/GD32VW55x_standard_peripheral/Source/gd32vw55x_adc.c **** {
 1909              		.loc 1 769 1
 1910              		.cfi_startproc
 1911 0000 0111     		addi	sp,sp,-32
 1912              		.cfi_def_cfa_offset 32
 1913 0002 22CE     		sw	s0,28(sp)
 1914              		.cfi_offset 8, -4
 1915 0004 0010     		addi	s0,sp,32
 1916              		.cfi_def_cfa 8, 0
 1917 0006 2326A4FE 		sw	a0,-20(s0)
 1918 000a AE87     		mv	a5,a1
 1919 000c 3287     		mv	a4,a2
 1920 000e 2315F4FE 		sh	a5,-22(s0)
 1921 0012 BA87     		mv	a5,a4
 1922 0014 A304F4FE 		sb	a5,-23(s0)
 770:../Firmware/GD32VW55x_standard_peripheral/Source/gd32vw55x_adc.c ****     /* configure ADC oversampling mode */
 771:../Firmware/GD32VW55x_standard_peripheral/Source/gd32vw55x_adc.c ****     if(ADC_OVERSAMPLING_ONE_CONVERT == mode){
 1923              		.loc 1 771 7
 1924 0018 0327C4FE 		lw	a4,-20(s0)
 1925 001c 93070020 		li	a5,512
 1926 0020 631FF700 		bne	a4,a5,.L96
 772:../Firmware/GD32VW55x_standard_peripheral/Source/gd32vw55x_adc.c ****         ADC_OVSAMPCTL |= (uint32_t)ADC_OVSAMPCTL_TOVS;
 1927              		.loc 1 772 23
 1928 0024 B7270140 		li	a5,1073815552
 1929 0028 93870708 		addi	a5,a5,128
 1930 002c 9843     		lw	a4,0(a5)
 1931 002e B7270140 		li	a5,1073815552
 1932 0032 93870708 		addi	a5,a5,128
 1933 0036 13670720 		ori	a4,a4,512
 1934 003a 98C3     		sw	a4,0(a5)
 1935 003c 29A8     		j	.L97
 1936              	.L96:
 773:../Firmware/GD32VW55x_standard_peripheral/Source/gd32vw55x_adc.c ****     }else{
 774:../Firmware/GD32VW55x_standard_peripheral/Source/gd32vw55x_adc.c ****         ADC_OVSAMPCTL &= ~((uint32_t)ADC_OVSAMPCTL_TOVS);
 1937              		.loc 1 774 23
 1938 003e B7270140 		li	a5,1073815552
 1939 0042 93870708 		addi	a5,a5,128
 1940 0046 9843     		lw	a4,0(a5)
 1941 0048 B7270140 		li	a5,1073815552
 1942 004c 93870708 		addi	a5,a5,128
 1943 0050 1377F7DF 		andi	a4,a4,-513
 1944 0054 98C3     		sw	a4,0(a5)
 1945              	.L97:
 775:../Firmware/GD32VW55x_standard_peripheral/Source/gd32vw55x_adc.c ****     }
 776:../Firmware/GD32VW55x_standard_peripheral/Source/gd32vw55x_adc.c ****     /* configure the shift and ratio */
 777:../Firmware/GD32VW55x_standard_peripheral/Source/gd32vw55x_adc.c ****     ADC_OVSAMPCTL &= ~((uint32_t)(ADC_OVSAMPCTL_OVSR | ADC_OVSAMPCTL_OVSS));
 1946              		.loc 1 777 19
 1947 0056 B7270140 		li	a5,1073815552
 1948 005a 93870708 		addi	a5,a5,128
 1949 005e 9843     		lw	a4,0(a5)
 1950 0060 B7270140 		li	a5,1073815552
 1951 0064 93870708 		addi	a5,a5,128
 1952 0068 137737E0 		andi	a4,a4,-509
 1953 006c 98C3     		sw	a4,0(a5)
 778:../Firmware/GD32VW55x_standard_peripheral/Source/gd32vw55x_adc.c ****     ADC_OVSAMPCTL |= ((uint32_t)shift | (uint32_t)ratio);
 1954              		.loc 1 778 19
 1955 006e B7270140 		li	a5,1073815552
 1956 0072 93870708 		addi	a5,a5,128
 1957 0076 9443     		lw	a3,0(a5)
 1958              		.loc 1 778 23
 1959 0078 0357A4FE 		lhu	a4,-22(s0)
 1960              		.loc 1 778 41
 1961 007c 834794FE 		lbu	a5,-23(s0)
 1962              		.loc 1 778 39
 1963 0080 5D8F     		or	a4,a4,a5
 1964              		.loc 1 778 19
 1965 0082 B7270140 		li	a5,1073815552
 1966 0086 93870708 		addi	a5,a5,128
 1967 008a 558F     		or	a4,a3,a4
 1968 008c 98C3     		sw	a4,0(a5)
 779:../Firmware/GD32VW55x_standard_peripheral/Source/gd32vw55x_adc.c **** }
 1969              		.loc 1 779 1
 1970 008e 0100     		nop
 1971 0090 7244     		lw	s0,28(sp)
 1972              		.cfi_restore 8
 1973              		.cfi_def_cfa 2, 32
 1974 0092 0561     		addi	sp,sp,32
 1975              		.cfi_def_cfa_offset 0
 1976 0094 8280     		jr	ra
 1977              		.cfi_endproc
 1978              	.LFE375:
 1980              		.section	.text.adc_oversample_mode_enable,"ax",@progbits
 1981              		.align	1
 1982              		.globl	adc_oversample_mode_enable
 1984              	adc_oversample_mode_enable:
 1985              	.LFB376:
 780:../Firmware/GD32VW55x_standard_peripheral/Source/gd32vw55x_adc.c **** 
 781:../Firmware/GD32VW55x_standard_peripheral/Source/gd32vw55x_adc.c **** /*!
 782:../Firmware/GD32VW55x_standard_peripheral/Source/gd32vw55x_adc.c ****     \brief      enable ADC oversample mode
 783:../Firmware/GD32VW55x_standard_peripheral/Source/gd32vw55x_adc.c ****     \param[in]  none
 784:../Firmware/GD32VW55x_standard_peripheral/Source/gd32vw55x_adc.c ****     \param[out] none
 785:../Firmware/GD32VW55x_standard_peripheral/Source/gd32vw55x_adc.c ****     \retval     none
 786:../Firmware/GD32VW55x_standard_peripheral/Source/gd32vw55x_adc.c **** */
 787:../Firmware/GD32VW55x_standard_peripheral/Source/gd32vw55x_adc.c **** void adc_oversample_mode_enable(void)
 788:../Firmware/GD32VW55x_standard_peripheral/Source/gd32vw55x_adc.c **** {
 1986              		.loc 1 788 1
 1987              		.cfi_startproc
 1988 0000 4111     		addi	sp,sp,-16
 1989              		.cfi_def_cfa_offset 16
 1990 0002 22C6     		sw	s0,12(sp)
 1991              		.cfi_offset 8, -4
 1992 0004 0008     		addi	s0,sp,16
 1993              		.cfi_def_cfa 8, 0
 789:../Firmware/GD32VW55x_standard_peripheral/Source/gd32vw55x_adc.c ****     ADC_OVSAMPCTL |= ADC_OVSAMPCTL_OVSEN;
 1994              		.loc 1 789 19
 1995 0006 B7270140 		li	a5,1073815552
 1996 000a 93870708 		addi	a5,a5,128
 1997 000e 9843     		lw	a4,0(a5)
 1998 0010 B7270140 		li	a5,1073815552
 1999 0014 93870708 		addi	a5,a5,128
 2000 0018 13671700 		ori	a4,a4,1
 2001 001c 98C3     		sw	a4,0(a5)
 790:../Firmware/GD32VW55x_standard_peripheral/Source/gd32vw55x_adc.c **** }
 2002              		.loc 1 790 1
 2003 001e 0100     		nop
 2004 0020 3244     		lw	s0,12(sp)
 2005              		.cfi_restore 8
 2006              		.cfi_def_cfa 2, 16
 2007 0022 4101     		addi	sp,sp,16
 2008              		.cfi_def_cfa_offset 0
 2009 0024 8280     		jr	ra
 2010              		.cfi_endproc
 2011              	.LFE376:
 2013              		.section	.text.adc_oversample_mode_disable,"ax",@progbits
 2014              		.align	1
 2015              		.globl	adc_oversample_mode_disable
 2017              	adc_oversample_mode_disable:
 2018              	.LFB377:
 791:../Firmware/GD32VW55x_standard_peripheral/Source/gd32vw55x_adc.c **** 
 792:../Firmware/GD32VW55x_standard_peripheral/Source/gd32vw55x_adc.c **** /*!
 793:../Firmware/GD32VW55x_standard_peripheral/Source/gd32vw55x_adc.c ****     \brief      disable ADC oversample mode
 794:../Firmware/GD32VW55x_standard_peripheral/Source/gd32vw55x_adc.c ****     \param[in]  none
 795:../Firmware/GD32VW55x_standard_peripheral/Source/gd32vw55x_adc.c ****     \param[out] none
 796:../Firmware/GD32VW55x_standard_peripheral/Source/gd32vw55x_adc.c ****     \retval     none
 797:../Firmware/GD32VW55x_standard_peripheral/Source/gd32vw55x_adc.c **** */
 798:../Firmware/GD32VW55x_standard_peripheral/Source/gd32vw55x_adc.c **** void adc_oversample_mode_disable(void)
 799:../Firmware/GD32VW55x_standard_peripheral/Source/gd32vw55x_adc.c **** {
 2019              		.loc 1 799 1
 2020              		.cfi_startproc
 2021 0000 4111     		addi	sp,sp,-16
 2022              		.cfi_def_cfa_offset 16
 2023 0002 22C6     		sw	s0,12(sp)
 2024              		.cfi_offset 8, -4
 2025 0004 0008     		addi	s0,sp,16
 2026              		.cfi_def_cfa 8, 0
 800:../Firmware/GD32VW55x_standard_peripheral/Source/gd32vw55x_adc.c ****     ADC_OVSAMPCTL &= ~((uint32_t)ADC_OVSAMPCTL_OVSEN);
 2027              		.loc 1 800 19
 2028 0006 B7270140 		li	a5,1073815552
 2029 000a 93870708 		addi	a5,a5,128
 2030 000e 9843     		lw	a4,0(a5)
 2031 0010 B7270140 		li	a5,1073815552
 2032 0014 93870708 		addi	a5,a5,128
 2033 0018 799B     		andi	a4,a4,-2
 2034 001a 98C3     		sw	a4,0(a5)
 801:../Firmware/GD32VW55x_standard_peripheral/Source/gd32vw55x_adc.c **** }
 2035              		.loc 1 801 1
 2036 001c 0100     		nop
 2037 001e 3244     		lw	s0,12(sp)
 2038              		.cfi_restore 8
 2039              		.cfi_def_cfa 2, 16
 2040 0020 4101     		addi	sp,sp,16
 2041              		.cfi_def_cfa_offset 0
 2042 0022 8280     		jr	ra
 2043              		.cfi_endproc
 2044              	.LFE377:
 2046              		.section	.text.adc_flag_get,"ax",@progbits
 2047              		.align	1
 2048              		.globl	adc_flag_get
 2050              	adc_flag_get:
 2051              	.LFB378:
 802:../Firmware/GD32VW55x_standard_peripheral/Source/gd32vw55x_adc.c **** 
 803:../Firmware/GD32VW55x_standard_peripheral/Source/gd32vw55x_adc.c **** /*!
 804:../Firmware/GD32VW55x_standard_peripheral/Source/gd32vw55x_adc.c ****     \brief      get the ADC flag
 805:../Firmware/GD32VW55x_standard_peripheral/Source/gd32vw55x_adc.c ****     \param[in]  flag: the ADC flag
 806:../Firmware/GD32VW55x_standard_peripheral/Source/gd32vw55x_adc.c ****                 only one parameter can be selected which is shown as below:
 807:../Firmware/GD32VW55x_standard_peripheral/Source/gd32vw55x_adc.c ****       \arg        ADC_FLAG_WDE: analog watchdog event flag
 808:../Firmware/GD32VW55x_standard_peripheral/Source/gd32vw55x_adc.c ****       \arg        ADC_FLAG_EOC: end of group conversion flag
 809:../Firmware/GD32VW55x_standard_peripheral/Source/gd32vw55x_adc.c ****       \arg        ADC_FLAG_EOIC: end of inserted group conversion flag
 810:../Firmware/GD32VW55x_standard_peripheral/Source/gd32vw55x_adc.c ****       \arg        ADC_FLAG_STIC: start flag of inserted channel group
 811:../Firmware/GD32VW55x_standard_peripheral/Source/gd32vw55x_adc.c ****       \arg        ADC_FLAG_STRC: start flag of routine channel group
 812:../Firmware/GD32VW55x_standard_peripheral/Source/gd32vw55x_adc.c ****       \arg        ADC_FLAG_ROVF: routine data register overflow flag
 813:../Firmware/GD32VW55x_standard_peripheral/Source/gd32vw55x_adc.c ****     \param[out] none
 814:../Firmware/GD32VW55x_standard_peripheral/Source/gd32vw55x_adc.c ****     \retval     FlagStatus: SET or RESET
 815:../Firmware/GD32VW55x_standard_peripheral/Source/gd32vw55x_adc.c **** */
 816:../Firmware/GD32VW55x_standard_peripheral/Source/gd32vw55x_adc.c **** FlagStatus adc_flag_get(uint32_t flag)
 817:../Firmware/GD32VW55x_standard_peripheral/Source/gd32vw55x_adc.c **** {
 2052              		.loc 1 817 1
 2053              		.cfi_startproc
 2054 0000 7971     		addi	sp,sp,-48
 2055              		.cfi_def_cfa_offset 48
 2056 0002 22D6     		sw	s0,44(sp)
 2057              		.cfi_offset 8, -4
 2058 0004 0018     		addi	s0,sp,48
 2059              		.cfi_def_cfa 8, 0
 2060 0006 232EA4FC 		sw	a0,-36(s0)
 818:../Firmware/GD32VW55x_standard_peripheral/Source/gd32vw55x_adc.c ****     FlagStatus reval = RESET;
 2061              		.loc 1 818 16
 2062 000a 232604FE 		sw	zero,-20(s0)
 819:../Firmware/GD32VW55x_standard_peripheral/Source/gd32vw55x_adc.c ****     if(ADC_STAT & flag){
 2063              		.loc 1 819 8
 2064 000e B7270140 		li	a5,1073815552
 2065 0012 9843     		lw	a4,0(a5)
 2066              		.loc 1 819 17
 2067 0014 8327C4FD 		lw	a5,-36(s0)
 2068 0018 F98F     		and	a5,a4,a5
 2069              		.loc 1 819 7
 2070 001a 81C7     		beq	a5,zero,.L101
 820:../Firmware/GD32VW55x_standard_peripheral/Source/gd32vw55x_adc.c ****         reval = SET;
 2071              		.loc 1 820 15
 2072 001c 8547     		li	a5,1
 2073 001e 2326F4FE 		sw	a5,-20(s0)
 2074              	.L101:
 821:../Firmware/GD32VW55x_standard_peripheral/Source/gd32vw55x_adc.c ****     }
 822:../Firmware/GD32VW55x_standard_peripheral/Source/gd32vw55x_adc.c ****     return reval;
 2075              		.loc 1 822 12
 2076 0022 8327C4FE 		lw	a5,-20(s0)
 823:../Firmware/GD32VW55x_standard_peripheral/Source/gd32vw55x_adc.c **** 
 824:../Firmware/GD32VW55x_standard_peripheral/Source/gd32vw55x_adc.c **** }
 2077              		.loc 1 824 1
 2078 0026 3E85     		mv	a0,a5
 2079 0028 3254     		lw	s0,44(sp)
 2080              		.cfi_restore 8
 2081              		.cfi_def_cfa 2, 48
 2082 002a 4561     		addi	sp,sp,48
 2083              		.cfi_def_cfa_offset 0
 2084 002c 8280     		jr	ra
 2085              		.cfi_endproc
 2086              	.LFE378:
 2088              		.section	.text.adc_flag_clear,"ax",@progbits
 2089              		.align	1
 2090              		.globl	adc_flag_clear
 2092              	adc_flag_clear:
 2093              	.LFB379:
 825:../Firmware/GD32VW55x_standard_peripheral/Source/gd32vw55x_adc.c **** 
 826:../Firmware/GD32VW55x_standard_peripheral/Source/gd32vw55x_adc.c **** /*!
 827:../Firmware/GD32VW55x_standard_peripheral/Source/gd32vw55x_adc.c ****     \brief      clear the ADC flag
 828:../Firmware/GD32VW55x_standard_peripheral/Source/gd32vw55x_adc.c ****     \param[in]  flag: the ADC flag
 829:../Firmware/GD32VW55x_standard_peripheral/Source/gd32vw55x_adc.c ****                 only one parameter can be selected which is shown as below:
 830:../Firmware/GD32VW55x_standard_peripheral/Source/gd32vw55x_adc.c ****       \arg        ADC_FLAG_WDE: analog watchdog event flag
 831:../Firmware/GD32VW55x_standard_peripheral/Source/gd32vw55x_adc.c ****       \arg        ADC_FLAG_EOC: end of group conversion flag
 832:../Firmware/GD32VW55x_standard_peripheral/Source/gd32vw55x_adc.c ****       \arg        ADC_FLAG_EOIC: end of inserted group conversion flag
 833:../Firmware/GD32VW55x_standard_peripheral/Source/gd32vw55x_adc.c ****       \arg        ADC_FLAG_STIC: start flag of inserted channel group
 834:../Firmware/GD32VW55x_standard_peripheral/Source/gd32vw55x_adc.c ****       \arg        ADC_FLAG_STRC: start flag of routine channel group
 835:../Firmware/GD32VW55x_standard_peripheral/Source/gd32vw55x_adc.c ****       \arg        ADC_FLAG_ROVF: routine data register overflow flag
 836:../Firmware/GD32VW55x_standard_peripheral/Source/gd32vw55x_adc.c ****     \param[out] none
 837:../Firmware/GD32VW55x_standard_peripheral/Source/gd32vw55x_adc.c ****     \retval     none
 838:../Firmware/GD32VW55x_standard_peripheral/Source/gd32vw55x_adc.c **** */
 839:../Firmware/GD32VW55x_standard_peripheral/Source/gd32vw55x_adc.c **** void adc_flag_clear(uint32_t flag)
 840:../Firmware/GD32VW55x_standard_peripheral/Source/gd32vw55x_adc.c **** {
 2094              		.loc 1 840 1
 2095              		.cfi_startproc
 2096 0000 0111     		addi	sp,sp,-32
 2097              		.cfi_def_cfa_offset 32
 2098 0002 22CE     		sw	s0,28(sp)
 2099              		.cfi_offset 8, -4
 2100 0004 0010     		addi	s0,sp,32
 2101              		.cfi_def_cfa 8, 0
 2102 0006 2326A4FE 		sw	a0,-20(s0)
 841:../Firmware/GD32VW55x_standard_peripheral/Source/gd32vw55x_adc.c ****     ADC_STAT = ~((uint32_t)flag);
 2103              		.loc 1 841 5
 2104 000a B7270140 		li	a5,1073815552
 2105              		.loc 1 841 16
 2106 000e 0327C4FE 		lw	a4,-20(s0)
 2107 0012 1347F7FF 		not	a4,a4
 2108              		.loc 1 841 14
 2109 0016 98C3     		sw	a4,0(a5)
 842:../Firmware/GD32VW55x_standard_peripheral/Source/gd32vw55x_adc.c **** }
 2110              		.loc 1 842 1
 2111 0018 0100     		nop
 2112 001a 7244     		lw	s0,28(sp)
 2113              		.cfi_restore 8
 2114              		.cfi_def_cfa 2, 32
 2115 001c 0561     		addi	sp,sp,32
 2116              		.cfi_def_cfa_offset 0
 2117 001e 8280     		jr	ra
 2118              		.cfi_endproc
 2119              	.LFE379:
 2121              		.section	.text.adc_interrupt_enable,"ax",@progbits
 2122              		.align	1
 2123              		.globl	adc_interrupt_enable
 2125              	adc_interrupt_enable:
 2126              	.LFB380:
 843:../Firmware/GD32VW55x_standard_peripheral/Source/gd32vw55x_adc.c **** 
 844:../Firmware/GD32VW55x_standard_peripheral/Source/gd32vw55x_adc.c **** /*!
 845:../Firmware/GD32VW55x_standard_peripheral/Source/gd32vw55x_adc.c ****     \brief      enable ADC interrupt
 846:../Firmware/GD32VW55x_standard_peripheral/Source/gd32vw55x_adc.c ****     \param[in]  interrupt: the ADC interrupt
 847:../Firmware/GD32VW55x_standard_peripheral/Source/gd32vw55x_adc.c ****                 only one parameter can be selected which is shown as below:
 848:../Firmware/GD32VW55x_standard_peripheral/Source/gd32vw55x_adc.c ****       \arg        ADC_INT_WDE: analog watchdog interrupt
 849:../Firmware/GD32VW55x_standard_peripheral/Source/gd32vw55x_adc.c ****       \arg        ADC_INT_EOC: end of group conversion interrupt
 850:../Firmware/GD32VW55x_standard_peripheral/Source/gd32vw55x_adc.c ****       \arg        ADC_INT_EOIC: end of inserted group conversion interrupt
 851:../Firmware/GD32VW55x_standard_peripheral/Source/gd32vw55x_adc.c ****       \arg        ADC_INT_ROVF: routine data register overflow interrupt
 852:../Firmware/GD32VW55x_standard_peripheral/Source/gd32vw55x_adc.c ****     \param[out] none
 853:../Firmware/GD32VW55x_standard_peripheral/Source/gd32vw55x_adc.c ****     \retval     none
 854:../Firmware/GD32VW55x_standard_peripheral/Source/gd32vw55x_adc.c **** */
 855:../Firmware/GD32VW55x_standard_peripheral/Source/gd32vw55x_adc.c **** void adc_interrupt_enable(uint32_t interrupt)
 856:../Firmware/GD32VW55x_standard_peripheral/Source/gd32vw55x_adc.c **** {
 2127              		.loc 1 856 1
 2128              		.cfi_startproc
 2129 0000 0111     		addi	sp,sp,-32
 2130              		.cfi_def_cfa_offset 32
 2131 0002 22CE     		sw	s0,28(sp)
 2132              		.cfi_offset 8, -4
 2133 0004 0010     		addi	s0,sp,32
 2134              		.cfi_def_cfa 8, 0
 2135 0006 2326A4FE 		sw	a0,-20(s0)
 857:../Firmware/GD32VW55x_standard_peripheral/Source/gd32vw55x_adc.c ****     switch(interrupt){
 2136              		.loc 1 857 5
 2137 000a 0327C4FE 		lw	a4,-20(s0)
 2138 000e B7070004 		li	a5,67108864
 2139 0012 6301F708 		beq	a4,a5,.L105
 2140 0016 0327C4FE 		lw	a4,-20(s0)
 2141 001a B7070004 		li	a5,67108864
 2142 001e 63E7E708 		bgtu	a4,a5,.L110
 2143 0022 0327C4FE 		lw	a4,-20(s0)
 2144 0026 93070008 		li	a5,128
 2145 002a 630AF704 		beq	a4,a5,.L107
 2146 002e 0327C4FE 		lw	a4,-20(s0)
 2147 0032 93070008 		li	a5,128
 2148 0036 63EBE706 		bgtu	a4,a5,.L110
 2149 003a 0327C4FE 		lw	a4,-20(s0)
 2150 003e 93070002 		li	a5,32
 2151 0042 6303F702 		beq	a4,a5,.L108
 2152 0046 0327C4FE 		lw	a4,-20(s0)
 2153 004a 93070004 		li	a5,64
 2154 004e 631FF704 		bne	a4,a5,.L110
 858:../Firmware/GD32VW55x_standard_peripheral/Source/gd32vw55x_adc.c ****     case ADC_INT_WDE:
 859:../Firmware/GD32VW55x_standard_peripheral/Source/gd32vw55x_adc.c ****         /* enable analog watchdog interrupt */
 860:../Firmware/GD32VW55x_standard_peripheral/Source/gd32vw55x_adc.c ****         ADC_CTL0 |= (uint32_t) ADC_CTL0_WDEIE;
 2155              		.loc 1 860 18
 2156 0052 B7270140 		li	a5,1073815552
 2157 0056 9107     		addi	a5,a5,4
 2158 0058 9843     		lw	a4,0(a5)
 2159 005a B7270140 		li	a5,1073815552
 2160 005e 9107     		addi	a5,a5,4
 2161 0060 13670704 		ori	a4,a4,64
 2162 0064 98C3     		sw	a4,0(a5)
 861:../Firmware/GD32VW55x_standard_peripheral/Source/gd32vw55x_adc.c ****         break;
 2163              		.loc 1 861 9
 2164 0066 A1A0     		j	.L109
 2165              	.L108:
 862:../Firmware/GD32VW55x_standard_peripheral/Source/gd32vw55x_adc.c ****     case ADC_INT_EOC:
 863:../Firmware/GD32VW55x_standard_peripheral/Source/gd32vw55x_adc.c ****         /* enable end of group conversion interrupt */
 864:../Firmware/GD32VW55x_standard_peripheral/Source/gd32vw55x_adc.c ****         ADC_CTL0 |= (uint32_t) ADC_CTL0_EOCIE;
 2166              		.loc 1 864 18
 2167 0068 B7270140 		li	a5,1073815552
 2168 006c 9107     		addi	a5,a5,4
 2169 006e 9843     		lw	a4,0(a5)
 2170 0070 B7270140 		li	a5,1073815552
 2171 0074 9107     		addi	a5,a5,4
 2172 0076 13670702 		ori	a4,a4,32
 2173 007a 98C3     		sw	a4,0(a5)
 865:../Firmware/GD32VW55x_standard_peripheral/Source/gd32vw55x_adc.c ****         break;
 2174              		.loc 1 865 9
 2175 007c 0DA8     		j	.L109
 2176              	.L107:
 866:../Firmware/GD32VW55x_standard_peripheral/Source/gd32vw55x_adc.c ****     case ADC_INT_EOIC:
 867:../Firmware/GD32VW55x_standard_peripheral/Source/gd32vw55x_adc.c ****         /* enable end of inserted group conversion interrupt */
 868:../Firmware/GD32VW55x_standard_peripheral/Source/gd32vw55x_adc.c ****         ADC_CTL0 |= (uint32_t) ADC_CTL0_EOICIE;
 2177              		.loc 1 868 18
 2178 007e B7270140 		li	a5,1073815552
 2179 0082 9107     		addi	a5,a5,4
 2180 0084 9843     		lw	a4,0(a5)
 2181 0086 B7270140 		li	a5,1073815552
 2182 008a 9107     		addi	a5,a5,4
 2183 008c 13670708 		ori	a4,a4,128
 2184 0090 98C3     		sw	a4,0(a5)
 869:../Firmware/GD32VW55x_standard_peripheral/Source/gd32vw55x_adc.c ****         break;
 2185              		.loc 1 869 9
 2186 0092 31A8     		j	.L109
 2187              	.L105:
 870:../Firmware/GD32VW55x_standard_peripheral/Source/gd32vw55x_adc.c ****     case ADC_INT_ROVF:
 871:../Firmware/GD32VW55x_standard_peripheral/Source/gd32vw55x_adc.c ****         ADC_CTL0 |= (uint32_t) ADC_CTL0_ROVFIE;
 2188              		.loc 1 871 18
 2189 0094 B7270140 		li	a5,1073815552
 2190 0098 9107     		addi	a5,a5,4
 2191 009a 9443     		lw	a3,0(a5)
 2192 009c B7270140 		li	a5,1073815552
 2193 00a0 9107     		addi	a5,a5,4
 2194 00a2 37070004 		li	a4,67108864
 2195 00a6 558F     		or	a4,a3,a4
 2196 00a8 98C3     		sw	a4,0(a5)
 872:../Firmware/GD32VW55x_standard_peripheral/Source/gd32vw55x_adc.c ****         break;
 2197              		.loc 1 872 9
 2198 00aa 11A0     		j	.L109
 2199              	.L110:
 873:../Firmware/GD32VW55x_standard_peripheral/Source/gd32vw55x_adc.c ****     default:
 874:../Firmware/GD32VW55x_standard_peripheral/Source/gd32vw55x_adc.c ****         break;
 2200              		.loc 1 874 9
 2201 00ac 0100     		nop
 2202              	.L109:
 875:../Firmware/GD32VW55x_standard_peripheral/Source/gd32vw55x_adc.c ****     }
 876:../Firmware/GD32VW55x_standard_peripheral/Source/gd32vw55x_adc.c **** }
 2203              		.loc 1 876 1
 2204 00ae 0100     		nop
 2205 00b0 7244     		lw	s0,28(sp)
 2206              		.cfi_restore 8
 2207              		.cfi_def_cfa 2, 32
 2208 00b2 0561     		addi	sp,sp,32
 2209              		.cfi_def_cfa_offset 0
 2210 00b4 8280     		jr	ra
 2211              		.cfi_endproc
 2212              	.LFE380:
 2214              		.section	.text.adc_interrupt_disable,"ax",@progbits
 2215              		.align	1
 2216              		.globl	adc_interrupt_disable
 2218              	adc_interrupt_disable:
 2219              	.LFB381:
 877:../Firmware/GD32VW55x_standard_peripheral/Source/gd32vw55x_adc.c **** 
 878:../Firmware/GD32VW55x_standard_peripheral/Source/gd32vw55x_adc.c **** /*!
 879:../Firmware/GD32VW55x_standard_peripheral/Source/gd32vw55x_adc.c ****     \brief      disable ADC interrupt
 880:../Firmware/GD32VW55x_standard_peripheral/Source/gd32vw55x_adc.c ****     \param[in]  interrupt: the ADC interrupt
 881:../Firmware/GD32VW55x_standard_peripheral/Source/gd32vw55x_adc.c ****                 only one parameter can be selected which is shown as below:
 882:../Firmware/GD32VW55x_standard_peripheral/Source/gd32vw55x_adc.c ****       \arg        ADC_INT_WDE: analog watchdog interrupt
 883:../Firmware/GD32VW55x_standard_peripheral/Source/gd32vw55x_adc.c ****       \arg        ADC_INT_EOC: end of group conversion interrupt
 884:../Firmware/GD32VW55x_standard_peripheral/Source/gd32vw55x_adc.c ****       \arg        ADC_INT_EOIC: end of inserted group conversion interrupt
 885:../Firmware/GD32VW55x_standard_peripheral/Source/gd32vw55x_adc.c ****       \arg        ADC_INT_ROVF: routine data register overflow interrupt
 886:../Firmware/GD32VW55x_standard_peripheral/Source/gd32vw55x_adc.c ****     \param[out] none
 887:../Firmware/GD32VW55x_standard_peripheral/Source/gd32vw55x_adc.c ****     \retval     none
 888:../Firmware/GD32VW55x_standard_peripheral/Source/gd32vw55x_adc.c **** */
 889:../Firmware/GD32VW55x_standard_peripheral/Source/gd32vw55x_adc.c **** void adc_interrupt_disable(uint32_t interrupt)
 890:../Firmware/GD32VW55x_standard_peripheral/Source/gd32vw55x_adc.c **** {
 2220              		.loc 1 890 1
 2221              		.cfi_startproc
 2222 0000 0111     		addi	sp,sp,-32
 2223              		.cfi_def_cfa_offset 32
 2224 0002 22CE     		sw	s0,28(sp)
 2225              		.cfi_offset 8, -4
 2226 0004 0010     		addi	s0,sp,32
 2227              		.cfi_def_cfa 8, 0
 2228 0006 2326A4FE 		sw	a0,-20(s0)
 891:../Firmware/GD32VW55x_standard_peripheral/Source/gd32vw55x_adc.c ****     switch(interrupt){
 2229              		.loc 1 891 5
 2230 000a 0327C4FE 		lw	a4,-20(s0)
 2231 000e B7070004 		li	a5,67108864
 2232 0012 6301F708 		beq	a4,a5,.L112
 2233 0016 0327C4FE 		lw	a4,-20(s0)
 2234 001a B7070004 		li	a5,67108864
 2235 001e 63E8E708 		bgtu	a4,a5,.L117
 2236 0022 0327C4FE 		lw	a4,-20(s0)
 2237 0026 93070008 		li	a5,128
 2238 002a 630AF704 		beq	a4,a5,.L114
 2239 002e 0327C4FE 		lw	a4,-20(s0)
 2240 0032 93070008 		li	a5,128
 2241 0036 63ECE706 		bgtu	a4,a5,.L117
 2242 003a 0327C4FE 		lw	a4,-20(s0)
 2243 003e 93070002 		li	a5,32
 2244 0042 6303F702 		beq	a4,a5,.L115
 2245 0046 0327C4FE 		lw	a4,-20(s0)
 2246 004a 93070004 		li	a5,64
 2247 004e 6310F706 		bne	a4,a5,.L117
 892:../Firmware/GD32VW55x_standard_peripheral/Source/gd32vw55x_adc.c ****     /* select the interrupt source */
 893:../Firmware/GD32VW55x_standard_peripheral/Source/gd32vw55x_adc.c ****     case ADC_INT_WDE:
 894:../Firmware/GD32VW55x_standard_peripheral/Source/gd32vw55x_adc.c ****         ADC_CTL0 &= ~((uint32_t)ADC_CTL0_WDEIE);
 2248              		.loc 1 894 18
 2249 0052 B7270140 		li	a5,1073815552
 2250 0056 9107     		addi	a5,a5,4
 2251 0058 9843     		lw	a4,0(a5)
 2252 005a B7270140 		li	a5,1073815552
 2253 005e 9107     		addi	a5,a5,4
 2254 0060 1377F7FB 		andi	a4,a4,-65
 2255 0064 98C3     		sw	a4,0(a5)
 895:../Firmware/GD32VW55x_standard_peripheral/Source/gd32vw55x_adc.c ****         break;
 2256              		.loc 1 895 9
 2257 0066 A9A0     		j	.L116
 2258              	.L115:
 896:../Firmware/GD32VW55x_standard_peripheral/Source/gd32vw55x_adc.c ****     case ADC_INT_EOC:
 897:../Firmware/GD32VW55x_standard_peripheral/Source/gd32vw55x_adc.c ****         ADC_CTL0 &= ~((uint32_t)ADC_CTL0_EOCIE);
 2259              		.loc 1 897 18
 2260 0068 B7270140 		li	a5,1073815552
 2261 006c 9107     		addi	a5,a5,4
 2262 006e 9843     		lw	a4,0(a5)
 2263 0070 B7270140 		li	a5,1073815552
 2264 0074 9107     		addi	a5,a5,4
 2265 0076 1377F7FD 		andi	a4,a4,-33
 2266 007a 98C3     		sw	a4,0(a5)
 898:../Firmware/GD32VW55x_standard_peripheral/Source/gd32vw55x_adc.c ****         break;
 2267              		.loc 1 898 9
 2268 007c 15A8     		j	.L116
 2269              	.L114:
 899:../Firmware/GD32VW55x_standard_peripheral/Source/gd32vw55x_adc.c ****     case ADC_INT_EOIC:
 900:../Firmware/GD32VW55x_standard_peripheral/Source/gd32vw55x_adc.c ****         ADC_CTL0 &= ~((uint32_t)ADC_CTL0_EOICIE);
 2270              		.loc 1 900 18
 2271 007e B7270140 		li	a5,1073815552
 2272 0082 9107     		addi	a5,a5,4
 2273 0084 9843     		lw	a4,0(a5)
 2274 0086 B7270140 		li	a5,1073815552
 2275 008a 9107     		addi	a5,a5,4
 2276 008c 1377F7F7 		andi	a4,a4,-129
 2277 0090 98C3     		sw	a4,0(a5)
 901:../Firmware/GD32VW55x_standard_peripheral/Source/gd32vw55x_adc.c ****         break;
 2278              		.loc 1 901 9
 2279 0092 39A8     		j	.L116
 2280              	.L112:
 902:../Firmware/GD32VW55x_standard_peripheral/Source/gd32vw55x_adc.c ****     case ADC_INT_ROVF:
 903:../Firmware/GD32VW55x_standard_peripheral/Source/gd32vw55x_adc.c ****         ADC_CTL0 &= ~((uint32_t)ADC_CTL0_ROVFIE);
 2281              		.loc 1 903 18
 2282 0094 B7270140 		li	a5,1073815552
 2283 0098 9107     		addi	a5,a5,4
 2284 009a 9443     		lw	a3,0(a5)
 2285 009c B7270140 		li	a5,1073815552
 2286 00a0 9107     		addi	a5,a5,4
 2287 00a2 370700FC 		li	a4,-67108864
 2288 00a6 7D17     		addi	a4,a4,-1
 2289 00a8 758F     		and	a4,a3,a4
 2290 00aa 98C3     		sw	a4,0(a5)
 904:../Firmware/GD32VW55x_standard_peripheral/Source/gd32vw55x_adc.c ****         break;
 2291              		.loc 1 904 9
 2292 00ac 11A0     		j	.L116
 2293              	.L117:
 905:../Firmware/GD32VW55x_standard_peripheral/Source/gd32vw55x_adc.c ****     default:
 906:../Firmware/GD32VW55x_standard_peripheral/Source/gd32vw55x_adc.c ****         break;
 2294              		.loc 1 906 9
 2295 00ae 0100     		nop
 2296              	.L116:
 907:../Firmware/GD32VW55x_standard_peripheral/Source/gd32vw55x_adc.c ****     }
 908:../Firmware/GD32VW55x_standard_peripheral/Source/gd32vw55x_adc.c **** }
 2297              		.loc 1 908 1
 2298 00b0 0100     		nop
 2299 00b2 7244     		lw	s0,28(sp)
 2300              		.cfi_restore 8
 2301              		.cfi_def_cfa 2, 32
 2302 00b4 0561     		addi	sp,sp,32
 2303              		.cfi_def_cfa_offset 0
 2304 00b6 8280     		jr	ra
 2305              		.cfi_endproc
 2306              	.LFE381:
 2308              		.section	.text.adc_interrupt_flag_get,"ax",@progbits
 2309              		.align	1
 2310              		.globl	adc_interrupt_flag_get
 2312              	adc_interrupt_flag_get:
 2313              	.LFB382:
 909:../Firmware/GD32VW55x_standard_peripheral/Source/gd32vw55x_adc.c **** 
 910:../Firmware/GD32VW55x_standard_peripheral/Source/gd32vw55x_adc.c **** /*!
 911:../Firmware/GD32VW55x_standard_peripheral/Source/gd32vw55x_adc.c ****     \brief      get ADC interrupt flag
 912:../Firmware/GD32VW55x_standard_peripheral/Source/gd32vw55x_adc.c ****     \param[in]  int_flag: the ADC interrupt flag
 913:../Firmware/GD32VW55x_standard_peripheral/Source/gd32vw55x_adc.c ****                 only one parameter can be selected which is shown as below:
 914:../Firmware/GD32VW55x_standard_peripheral/Source/gd32vw55x_adc.c ****       \arg        ADC_INT_FLAG_WDE: analog watchdog interrupt
 915:../Firmware/GD32VW55x_standard_peripheral/Source/gd32vw55x_adc.c ****       \arg        ADC_INT_FLAG_EOC: end of group conversion interrupt
 916:../Firmware/GD32VW55x_standard_peripheral/Source/gd32vw55x_adc.c ****       \arg        ADC_INT_FLAG_EOIC: end of inserted group conversion interrupt
 917:../Firmware/GD32VW55x_standard_peripheral/Source/gd32vw55x_adc.c ****       \arg        ADC_INT_FLAG_ROVF: routine data register overflow interrupt
 918:../Firmware/GD32VW55x_standard_peripheral/Source/gd32vw55x_adc.c ****     \param[out] none
 919:../Firmware/GD32VW55x_standard_peripheral/Source/gd32vw55x_adc.c ****     \retval     FlagStatus: SET or RESET
 920:../Firmware/GD32VW55x_standard_peripheral/Source/gd32vw55x_adc.c **** */
 921:../Firmware/GD32VW55x_standard_peripheral/Source/gd32vw55x_adc.c **** FlagStatus adc_interrupt_flag_get(uint32_t int_flag)
 922:../Firmware/GD32VW55x_standard_peripheral/Source/gd32vw55x_adc.c **** {
 2314              		.loc 1 922 1
 2315              		.cfi_startproc
 2316 0000 7971     		addi	sp,sp,-48
 2317              		.cfi_def_cfa_offset 48
 2318 0002 22D6     		sw	s0,44(sp)
 2319              		.cfi_offset 8, -4
 2320 0004 0018     		addi	s0,sp,48
 2321              		.cfi_def_cfa 8, 0
 2322 0006 232EA4FC 		sw	a0,-36(s0)
 923:../Firmware/GD32VW55x_standard_peripheral/Source/gd32vw55x_adc.c ****     FlagStatus interrupt_flag = RESET;
 2323              		.loc 1 923 16
 2324 000a 232604FE 		sw	zero,-20(s0)
 924:../Firmware/GD32VW55x_standard_peripheral/Source/gd32vw55x_adc.c ****     uint32_t state;
 925:../Firmware/GD32VW55x_standard_peripheral/Source/gd32vw55x_adc.c ****     /* check the interrupt bits */
 926:../Firmware/GD32VW55x_standard_peripheral/Source/gd32vw55x_adc.c ****     switch(int_flag){
 2325              		.loc 1 926 5
 2326 000e 0327C4FD 		lw	a4,-36(s0)
 2327 0012 93070002 		li	a5,32
 2328 0016 6309F70A 		beq	a4,a5,.L119
 2329 001a 0327C4FD 		lw	a4,-36(s0)
 2330 001e 93070002 		li	a5,32
 2331 0022 63E9E70C 		bgtu	a4,a5,.L130
 2332 0026 0327C4FD 		lw	a4,-36(s0)
 2333 002a 9147     		li	a5,4
 2334 002c 630AF706 		beq	a4,a5,.L121
 2335 0030 0327C4FD 		lw	a4,-36(s0)
 2336 0034 9147     		li	a5,4
 2337 0036 63EFE70A 		bgtu	a4,a5,.L130
 2338 003a 0327C4FD 		lw	a4,-36(s0)
 2339 003e 8547     		li	a5,1
 2340 0040 6308F700 		beq	a4,a5,.L122
 2341 0044 0327C4FD 		lw	a4,-36(s0)
 2342 0048 8947     		li	a5,2
 2343 004a 6307F702 		beq	a4,a5,.L123
 927:../Firmware/GD32VW55x_standard_peripheral/Source/gd32vw55x_adc.c ****     case ADC_INT_FLAG_WDE:
 928:../Firmware/GD32VW55x_standard_peripheral/Source/gd32vw55x_adc.c ****         /* get the ADC analog watchdog interrupt bits */
 929:../Firmware/GD32VW55x_standard_peripheral/Source/gd32vw55x_adc.c ****         state = ADC_STAT & ADC_STAT_WDE;
 930:../Firmware/GD32VW55x_standard_peripheral/Source/gd32vw55x_adc.c ****         if((ADC_CTL0 & ADC_CTL0_WDEIE) && state){
 931:../Firmware/GD32VW55x_standard_peripheral/Source/gd32vw55x_adc.c ****           interrupt_flag = SET;
 932:../Firmware/GD32VW55x_standard_peripheral/Source/gd32vw55x_adc.c ****         }
 933:../Firmware/GD32VW55x_standard_peripheral/Source/gd32vw55x_adc.c ****         break;
 934:../Firmware/GD32VW55x_standard_peripheral/Source/gd32vw55x_adc.c ****     case ADC_INT_FLAG_EOC:
 935:../Firmware/GD32VW55x_standard_peripheral/Source/gd32vw55x_adc.c ****          /* get the ADC end of group conversion interrupt bits */
 936:../Firmware/GD32VW55x_standard_peripheral/Source/gd32vw55x_adc.c ****         state = ADC_STAT & ADC_STAT_EOC;
 937:../Firmware/GD32VW55x_standard_peripheral/Source/gd32vw55x_adc.c ****           if((ADC_CTL0 & ADC_CTL0_EOCIE) && state){
 938:../Firmware/GD32VW55x_standard_peripheral/Source/gd32vw55x_adc.c ****             interrupt_flag = SET;
 939:../Firmware/GD32VW55x_standard_peripheral/Source/gd32vw55x_adc.c ****           }
 940:../Firmware/GD32VW55x_standard_peripheral/Source/gd32vw55x_adc.c ****         break;
 941:../Firmware/GD32VW55x_standard_peripheral/Source/gd32vw55x_adc.c ****     case ADC_INT_FLAG_EOIC:
 942:../Firmware/GD32VW55x_standard_peripheral/Source/gd32vw55x_adc.c ****         /* get the ADC end of inserted group conversion interrupt bits */
 943:../Firmware/GD32VW55x_standard_peripheral/Source/gd32vw55x_adc.c ****         state = ADC_STAT & ADC_STAT_EOIC;
 944:../Firmware/GD32VW55x_standard_peripheral/Source/gd32vw55x_adc.c ****         if((ADC_CTL0 & ADC_CTL0_EOICIE) && state){
 945:../Firmware/GD32VW55x_standard_peripheral/Source/gd32vw55x_adc.c ****             interrupt_flag = SET;
 946:../Firmware/GD32VW55x_standard_peripheral/Source/gd32vw55x_adc.c ****         }
 947:../Firmware/GD32VW55x_standard_peripheral/Source/gd32vw55x_adc.c ****         break;
 948:../Firmware/GD32VW55x_standard_peripheral/Source/gd32vw55x_adc.c ****     case ADC_INT_FLAG_ROVF:
 949:../Firmware/GD32VW55x_standard_peripheral/Source/gd32vw55x_adc.c ****         /* get the ADC routine data register overflow interrupt bits */
 950:../Firmware/GD32VW55x_standard_peripheral/Source/gd32vw55x_adc.c ****         state = ADC_STAT & ADC_STAT_ROVF;
 951:../Firmware/GD32VW55x_standard_peripheral/Source/gd32vw55x_adc.c ****         if((ADC_CTL0 & ADC_CTL0_ROVFIE) && state){
 952:../Firmware/GD32VW55x_standard_peripheral/Source/gd32vw55x_adc.c ****           interrupt_flag = SET;
 953:../Firmware/GD32VW55x_standard_peripheral/Source/gd32vw55x_adc.c ****         }
 954:../Firmware/GD32VW55x_standard_peripheral/Source/gd32vw55x_adc.c ****         break;
 955:../Firmware/GD32VW55x_standard_peripheral/Source/gd32vw55x_adc.c ****     default:
 956:../Firmware/GD32VW55x_standard_peripheral/Source/gd32vw55x_adc.c ****         break;
 2344              		.loc 1 956 9
 2345 004e 5DA0     		j	.L130
 2346              	.L122:
 929:../Firmware/GD32VW55x_standard_peripheral/Source/gd32vw55x_adc.c ****         if((ADC_CTL0 & ADC_CTL0_WDEIE) && state){
 2347              		.loc 1 929 17
 2348 0050 B7270140 		li	a5,1073815552
 2349 0054 9C43     		lw	a5,0(a5)
 929:../Firmware/GD32VW55x_standard_peripheral/Source/gd32vw55x_adc.c ****         if((ADC_CTL0 & ADC_CTL0_WDEIE) && state){
 2350              		.loc 1 929 15
 2351 0056 858B     		andi	a5,a5,1
 2352 0058 2324F4FE 		sw	a5,-24(s0)
 930:../Firmware/GD32VW55x_standard_peripheral/Source/gd32vw55x_adc.c ****           interrupt_flag = SET;
 2353              		.loc 1 930 13
 2354 005c B7270140 		li	a5,1073815552
 2355 0060 9107     		addi	a5,a5,4
 2356 0062 9C43     		lw	a5,0(a5)
 930:../Firmware/GD32VW55x_standard_peripheral/Source/gd32vw55x_adc.c ****           interrupt_flag = SET;
 2357              		.loc 1 930 22
 2358 0064 93F70704 		andi	a5,a5,64
 930:../Firmware/GD32VW55x_standard_peripheral/Source/gd32vw55x_adc.c ****           interrupt_flag = SET;
 2359              		.loc 1 930 11
 2360 0068 C1CB     		beq	a5,zero,.L131
 930:../Firmware/GD32VW55x_standard_peripheral/Source/gd32vw55x_adc.c ****           interrupt_flag = SET;
 2361              		.loc 1 930 40 discriminator 1
 2362 006a 832784FE 		lw	a5,-24(s0)
 2363 006e C9C7     		beq	a5,zero,.L131
 931:../Firmware/GD32VW55x_standard_peripheral/Source/gd32vw55x_adc.c ****         }
 2364              		.loc 1 931 26
 2365 0070 8547     		li	a5,1
 2366 0072 2326F4FE 		sw	a5,-20(s0)
 933:../Firmware/GD32VW55x_standard_peripheral/Source/gd32vw55x_adc.c ****     case ADC_INT_FLAG_EOC:
 2367              		.loc 1 933 9
 2368 0076 49A0     		j	.L131
 2369              	.L123:
 936:../Firmware/GD32VW55x_standard_peripheral/Source/gd32vw55x_adc.c ****           if((ADC_CTL0 & ADC_CTL0_EOCIE) && state){
 2370              		.loc 1 936 17
 2371 0078 B7270140 		li	a5,1073815552
 2372 007c 9C43     		lw	a5,0(a5)
 936:../Firmware/GD32VW55x_standard_peripheral/Source/gd32vw55x_adc.c ****           if((ADC_CTL0 & ADC_CTL0_EOCIE) && state){
 2373              		.loc 1 936 15
 2374 007e 898B     		andi	a5,a5,2
 2375 0080 2324F4FE 		sw	a5,-24(s0)
 937:../Firmware/GD32VW55x_standard_peripheral/Source/gd32vw55x_adc.c ****             interrupt_flag = SET;
 2376              		.loc 1 937 15
 2377 0084 B7270140 		li	a5,1073815552
 2378 0088 9107     		addi	a5,a5,4
 2379 008a 9C43     		lw	a5,0(a5)
 937:../Firmware/GD32VW55x_standard_peripheral/Source/gd32vw55x_adc.c ****             interrupt_flag = SET;
 2380              		.loc 1 937 24
 2381 008c 93F70702 		andi	a5,a5,32
 937:../Firmware/GD32VW55x_standard_peripheral/Source/gd32vw55x_adc.c ****             interrupt_flag = SET;
 2382              		.loc 1 937 13
 2383 0090 B5C7     		beq	a5,zero,.L132
 937:../Firmware/GD32VW55x_standard_peripheral/Source/gd32vw55x_adc.c ****             interrupt_flag = SET;
 2384              		.loc 1 937 42 discriminator 1
 2385 0092 832784FE 		lw	a5,-24(s0)
 2386 0096 BDC3     		beq	a5,zero,.L132
 938:../Firmware/GD32VW55x_standard_peripheral/Source/gd32vw55x_adc.c ****           }
 2387              		.loc 1 938 28
 2388 0098 8547     		li	a5,1
 2389 009a 2326F4FE 		sw	a5,-20(s0)
 940:../Firmware/GD32VW55x_standard_peripheral/Source/gd32vw55x_adc.c ****     case ADC_INT_FLAG_EOIC:
 2390              		.loc 1 940 9
 2391 009e B9A8     		j	.L132
 2392              	.L121:
 943:../Firmware/GD32VW55x_standard_peripheral/Source/gd32vw55x_adc.c ****         if((ADC_CTL0 & ADC_CTL0_EOICIE) && state){
 2393              		.loc 1 943 17
 2394 00a0 B7270140 		li	a5,1073815552
 2395 00a4 9C43     		lw	a5,0(a5)
 943:../Firmware/GD32VW55x_standard_peripheral/Source/gd32vw55x_adc.c ****         if((ADC_CTL0 & ADC_CTL0_EOICIE) && state){
 2396              		.loc 1 943 15
 2397 00a6 918B     		andi	a5,a5,4
 2398 00a8 2324F4FE 		sw	a5,-24(s0)
 944:../Firmware/GD32VW55x_standard_peripheral/Source/gd32vw55x_adc.c ****             interrupt_flag = SET;
 2399              		.loc 1 944 13
 2400 00ac B7270140 		li	a5,1073815552
 2401 00b0 9107     		addi	a5,a5,4
 2402 00b2 9C43     		lw	a5,0(a5)
 944:../Firmware/GD32VW55x_standard_peripheral/Source/gd32vw55x_adc.c ****             interrupt_flag = SET;
 2403              		.loc 1 944 22
 2404 00b4 93F70708 		andi	a5,a5,128
 944:../Firmware/GD32VW55x_standard_peripheral/Source/gd32vw55x_adc.c ****             interrupt_flag = SET;
 2405              		.loc 1 944 11
 2406 00b8 A1C7     		beq	a5,zero,.L133
 944:../Firmware/GD32VW55x_standard_peripheral/Source/gd32vw55x_adc.c ****             interrupt_flag = SET;
 2407              		.loc 1 944 41 discriminator 1
 2408 00ba 832784FE 		lw	a5,-24(s0)
 2409 00be A9C3     		beq	a5,zero,.L133
 945:../Firmware/GD32VW55x_standard_peripheral/Source/gd32vw55x_adc.c ****         }
 2410              		.loc 1 945 28
 2411 00c0 8547     		li	a5,1
 2412 00c2 2326F4FE 		sw	a5,-20(s0)
 947:../Firmware/GD32VW55x_standard_peripheral/Source/gd32vw55x_adc.c ****     case ADC_INT_FLAG_ROVF:
 2413              		.loc 1 947 9
 2414 00c6 2DA8     		j	.L133
 2415              	.L119:
 950:../Firmware/GD32VW55x_standard_peripheral/Source/gd32vw55x_adc.c ****         if((ADC_CTL0 & ADC_CTL0_ROVFIE) && state){
 2416              		.loc 1 950 17
 2417 00c8 B7270140 		li	a5,1073815552
 2418 00cc 9C43     		lw	a5,0(a5)
 950:../Firmware/GD32VW55x_standard_peripheral/Source/gd32vw55x_adc.c ****         if((ADC_CTL0 & ADC_CTL0_ROVFIE) && state){
 2419              		.loc 1 950 15
 2420 00ce 93F70702 		andi	a5,a5,32
 2421 00d2 2324F4FE 		sw	a5,-24(s0)
 951:../Firmware/GD32VW55x_standard_peripheral/Source/gd32vw55x_adc.c ****           interrupt_flag = SET;
 2422              		.loc 1 951 13
 2423 00d6 B7270140 		li	a5,1073815552
 2424 00da 9107     		addi	a5,a5,4
 2425 00dc 9843     		lw	a4,0(a5)
 951:../Firmware/GD32VW55x_standard_peripheral/Source/gd32vw55x_adc.c ****           interrupt_flag = SET;
 2426              		.loc 1 951 22
 2427 00de B7070004 		li	a5,67108864
 2428 00e2 F98F     		and	a5,a4,a5
 951:../Firmware/GD32VW55x_standard_peripheral/Source/gd32vw55x_adc.c ****           interrupt_flag = SET;
 2429              		.loc 1 951 11
 2430 00e4 85C3     		beq	a5,zero,.L134
 951:../Firmware/GD32VW55x_standard_peripheral/Source/gd32vw55x_adc.c ****           interrupt_flag = SET;
 2431              		.loc 1 951 41 discriminator 1
 2432 00e6 832784FE 		lw	a5,-24(s0)
 2433 00ea 89CF     		beq	a5,zero,.L134
 952:../Firmware/GD32VW55x_standard_peripheral/Source/gd32vw55x_adc.c ****         }
 2434              		.loc 1 952 26
 2435 00ec 8547     		li	a5,1
 2436 00ee 2326F4FE 		sw	a5,-20(s0)
 954:../Firmware/GD32VW55x_standard_peripheral/Source/gd32vw55x_adc.c ****     default:
 2437              		.loc 1 954 9
 2438 00f2 09A8     		j	.L134
 2439              	.L130:
 2440              		.loc 1 956 9
 2441 00f4 0100     		nop
 2442 00f6 01A8     		j	.L125
 2443              	.L131:
 933:../Firmware/GD32VW55x_standard_peripheral/Source/gd32vw55x_adc.c ****     case ADC_INT_FLAG_EOC:
 2444              		.loc 1 933 9
 2445 00f8 0100     		nop
 2446 00fa 31A0     		j	.L125
 2447              	.L132:
 940:../Firmware/GD32VW55x_standard_peripheral/Source/gd32vw55x_adc.c ****     case ADC_INT_FLAG_EOIC:
 2448              		.loc 1 940 9
 2449 00fc 0100     		nop
 2450 00fe 21A0     		j	.L125
 2451              	.L133:
 947:../Firmware/GD32VW55x_standard_peripheral/Source/gd32vw55x_adc.c ****     case ADC_INT_FLAG_ROVF:
 2452              		.loc 1 947 9
 2453 0100 0100     		nop
 2454 0102 11A0     		j	.L125
 2455              	.L134:
 954:../Firmware/GD32VW55x_standard_peripheral/Source/gd32vw55x_adc.c ****     default:
 2456              		.loc 1 954 9
 2457 0104 0100     		nop
 2458              	.L125:
 957:../Firmware/GD32VW55x_standard_peripheral/Source/gd32vw55x_adc.c ****     }
 958:../Firmware/GD32VW55x_standard_peripheral/Source/gd32vw55x_adc.c ****     return interrupt_flag;
 2459              		.loc 1 958 12
 2460 0106 8327C4FE 		lw	a5,-20(s0)
 959:../Firmware/GD32VW55x_standard_peripheral/Source/gd32vw55x_adc.c **** }
 2461              		.loc 1 959 1
 2462 010a 3E85     		mv	a0,a5
 2463 010c 3254     		lw	s0,44(sp)
 2464              		.cfi_restore 8
 2465              		.cfi_def_cfa 2, 48
 2466 010e 4561     		addi	sp,sp,48
 2467              		.cfi_def_cfa_offset 0
 2468 0110 8280     		jr	ra
 2469              		.cfi_endproc
 2470              	.LFE382:
 2472              		.section	.text.adc_interrupt_flag_clear,"ax",@progbits
 2473              		.align	1
 2474              		.globl	adc_interrupt_flag_clear
 2476              	adc_interrupt_flag_clear:
 2477              	.LFB383:
 960:../Firmware/GD32VW55x_standard_peripheral/Source/gd32vw55x_adc.c **** 
 961:../Firmware/GD32VW55x_standard_peripheral/Source/gd32vw55x_adc.c **** /*!
 962:../Firmware/GD32VW55x_standard_peripheral/Source/gd32vw55x_adc.c ****     \brief      clear ADC interrupt flag
 963:../Firmware/GD32VW55x_standard_peripheral/Source/gd32vw55x_adc.c ****     \param[in]  int_flag: the ADC interrupt flag
 964:../Firmware/GD32VW55x_standard_peripheral/Source/gd32vw55x_adc.c ****                 only one parameter can be selected which is shown as below:
 965:../Firmware/GD32VW55x_standard_peripheral/Source/gd32vw55x_adc.c ****       \arg        ADC_INT_FLAG_WDE: analog watchdog interrupt flag
 966:../Firmware/GD32VW55x_standard_peripheral/Source/gd32vw55x_adc.c ****       \arg        ADC_INT_FLAG_EOC: end of group conversion interrupt flag
 967:../Firmware/GD32VW55x_standard_peripheral/Source/gd32vw55x_adc.c ****       \arg        ADC_INT_FLAG_EOIC: end of inserted group conversion interrupt flag
 968:../Firmware/GD32VW55x_standard_peripheral/Source/gd32vw55x_adc.c ****       \arg        ADC_INT_FLAG_ROVF: routine data register overflow interrupt flag
 969:../Firmware/GD32VW55x_standard_peripheral/Source/gd32vw55x_adc.c ****     \param[out] none
 970:../Firmware/GD32VW55x_standard_peripheral/Source/gd32vw55x_adc.c ****     \retval     none
 971:../Firmware/GD32VW55x_standard_peripheral/Source/gd32vw55x_adc.c **** */
 972:../Firmware/GD32VW55x_standard_peripheral/Source/gd32vw55x_adc.c **** void adc_interrupt_flag_clear(uint32_t int_flag)
 973:../Firmware/GD32VW55x_standard_peripheral/Source/gd32vw55x_adc.c **** {
 2478              		.loc 1 973 1
 2479              		.cfi_startproc
 2480 0000 0111     		addi	sp,sp,-32
 2481              		.cfi_def_cfa_offset 32
 2482 0002 22CE     		sw	s0,28(sp)
 2483              		.cfi_offset 8, -4
 2484 0004 0010     		addi	s0,sp,32
 2485              		.cfi_def_cfa 8, 0
 2486 0006 2326A4FE 		sw	a0,-20(s0)
 974:../Firmware/GD32VW55x_standard_peripheral/Source/gd32vw55x_adc.c ****     ADC_STAT = ~((uint32_t)int_flag);
 2487              		.loc 1 974 5
 2488 000a B7270140 		li	a5,1073815552
 2489              		.loc 1 974 16
 2490 000e 0327C4FE 		lw	a4,-20(s0)
 2491 0012 1347F7FF 		not	a4,a4
 2492              		.loc 1 974 14
 2493 0016 98C3     		sw	a4,0(a5)
 975:../Firmware/GD32VW55x_standard_peripheral/Source/gd32vw55x_adc.c **** }
 2494              		.loc 1 975 1
 2495 0018 0100     		nop
 2496 001a 7244     		lw	s0,28(sp)
 2497              		.cfi_restore 8
 2498              		.cfi_def_cfa 2, 32
 2499 001c 0561     		addi	sp,sp,32
 2500              		.cfi_def_cfa_offset 0
 2501 001e 8280     		jr	ra
 2502              		.cfi_endproc
 2503              	.LFE383:
 2505              		.text
 2506              	.Letext0:
 2507              		.file 2 "e:\\gd32\\gd32embeddedbuilder_v1.5.2.30854\\tools\\nuclei_riscv_newlibc_prebuilt_win32_20
 2508              		.file 3 "e:\\gd32\\gd32embeddedbuilder_v1.5.2.30854\\tools\\nuclei_riscv_newlibc_prebuilt_win32_20
 2509              		.file 4 "../Firmware/GD32VW55x_standard_peripheral/gd32vw55x.h"
 2510              		.file 5 "../Firmware/GD32VW55x_standard_peripheral/Include/gd32vw55x_rcu.h"