   1              		.file	"gd32vw55x_cau_tdes.c"
   2              		.option nopic
   3              		.attribute arch, "rv32i2p0_m2p0_a2p0_c2p0"
   4              		.attribute unaligned_access, 0
   5              		.attribute stack_align, 16
   6              		.text
   7              	.Ltext0:
   8              		.cfi_sections	.debug_frame
   9              		.section	.text.cau_tdes_ecb,"ax",@progbits
  10              		.align	1
  11              		.globl	cau_tdes_ecb
  13              	cau_tdes_ecb:
  14              	.LFB347:
  15              		.file 1 "../Firmware/GD32VW55x_standard_peripheral/Source/gd32vw55x_cau_tdes.c"
   1:../Firmware/GD32VW55x_standard_peripheral/Source/gd32vw55x_cau_tdes.c **** /*!
   2:../Firmware/GD32VW55x_standard_peripheral/Source/gd32vw55x_cau_tdes.c ****     \file    gd32vw55x_cau_tdes.c
   3:../Firmware/GD32VW55x_standard_peripheral/Source/gd32vw55x_cau_tdes.c ****     \brief   CAU TDES driver
   4:../Firmware/GD32VW55x_standard_peripheral/Source/gd32vw55x_cau_tdes.c **** 
   5:../Firmware/GD32VW55x_standard_peripheral/Source/gd32vw55x_cau_tdes.c ****     \version 2025-01-16, V1.4.0, firmware for GD32VW55x
   6:../Firmware/GD32VW55x_standard_peripheral/Source/gd32vw55x_cau_tdes.c **** */
   7:../Firmware/GD32VW55x_standard_peripheral/Source/gd32vw55x_cau_tdes.c **** 
   8:../Firmware/GD32VW55x_standard_peripheral/Source/gd32vw55x_cau_tdes.c **** /*
   9:../Firmware/GD32VW55x_standard_peripheral/Source/gd32vw55x_cau_tdes.c ****     Copyright (c) 2025, GigaDevice Semiconductor Inc.
  10:../Firmware/GD32VW55x_standard_peripheral/Source/gd32vw55x_cau_tdes.c **** 
  11:../Firmware/GD32VW55x_standard_peripheral/Source/gd32vw55x_cau_tdes.c ****     Redistribution and use in source and binary forms, with or without modification,
  12:../Firmware/GD32VW55x_standard_peripheral/Source/gd32vw55x_cau_tdes.c **** are permitted provided that the following conditions are met:
  13:../Firmware/GD32VW55x_standard_peripheral/Source/gd32vw55x_cau_tdes.c **** 
  14:../Firmware/GD32VW55x_standard_peripheral/Source/gd32vw55x_cau_tdes.c ****     1. Redistributions of source code must retain the above copyright notice, this
  15:../Firmware/GD32VW55x_standard_peripheral/Source/gd32vw55x_cau_tdes.c ****        list of conditions and the following disclaimer.
  16:../Firmware/GD32VW55x_standard_peripheral/Source/gd32vw55x_cau_tdes.c ****     2. Redistributions in binary form must reproduce the above copyright notice,
  17:../Firmware/GD32VW55x_standard_peripheral/Source/gd32vw55x_cau_tdes.c ****        this list of conditions and the following disclaimer in the documentation
  18:../Firmware/GD32VW55x_standard_peripheral/Source/gd32vw55x_cau_tdes.c ****        and/or other materials provided with the distribution.
  19:../Firmware/GD32VW55x_standard_peripheral/Source/gd32vw55x_cau_tdes.c ****     3. Neither the name of the copyright holder nor the names of its contributors
  20:../Firmware/GD32VW55x_standard_peripheral/Source/gd32vw55x_cau_tdes.c ****        may be used to endorse or promote products derived from this software without
  21:../Firmware/GD32VW55x_standard_peripheral/Source/gd32vw55x_cau_tdes.c ****        specific prior written permission.
  22:../Firmware/GD32VW55x_standard_peripheral/Source/gd32vw55x_cau_tdes.c **** 
  23:../Firmware/GD32VW55x_standard_peripheral/Source/gd32vw55x_cau_tdes.c ****     THIS SOFTWARE IS PROVIDED BY THE COPYRIGHT HOLDERS AND CONTRIBUTORS "AS IS"
  24:../Firmware/GD32VW55x_standard_peripheral/Source/gd32vw55x_cau_tdes.c **** AND ANY EXPRESS OR IMPLIED WARRANTIES, INCLUDING, BUT NOT LIMITED TO, THE IMPLIED
  25:../Firmware/GD32VW55x_standard_peripheral/Source/gd32vw55x_cau_tdes.c **** WARRANTIES OF MERCHANTABILITY AND FITNESS FOR A PARTICULAR PURPOSE ARE DISCLAIMED.
  26:../Firmware/GD32VW55x_standard_peripheral/Source/gd32vw55x_cau_tdes.c **** IN NO EVENT SHALL THE COPYRIGHT HOLDER OR CONTRIBUTORS BE LIABLE FOR ANY DIRECT,
  27:../Firmware/GD32VW55x_standard_peripheral/Source/gd32vw55x_cau_tdes.c **** INDIRECT, INCIDENTAL, SPECIAL, EXEMPLARY, OR CONSEQUENTIAL DAMAGES (INCLUDING, BUT
  28:../Firmware/GD32VW55x_standard_peripheral/Source/gd32vw55x_cau_tdes.c **** NOT LIMITED TO, PROCUREMENT OF SUBSTITUTE GOODS OR SERVICES; LOSS OF USE, DATA, OR
  29:../Firmware/GD32VW55x_standard_peripheral/Source/gd32vw55x_cau_tdes.c **** PROFITS; OR BUSINESS INTERRUPTION) HOWEVER CAUSED AND ON ANY THEORY OF LIABILITY,
  30:../Firmware/GD32VW55x_standard_peripheral/Source/gd32vw55x_cau_tdes.c **** WHETHER IN CONTRACT, STRICT LIABILITY, OR TORT (INCLUDING NEGLIGENCE OR OTHERWISE)
  31:../Firmware/GD32VW55x_standard_peripheral/Source/gd32vw55x_cau_tdes.c **** ARISING IN ANY WAY OUT OF THE USE OF THIS SOFTWARE, EVEN IF ADVISED OF THE POSSIBILITY
  32:../Firmware/GD32VW55x_standard_peripheral/Source/gd32vw55x_cau_tdes.c **** OF SUCH DAMAGE.
  33:../Firmware/GD32VW55x_standard_peripheral/Source/gd32vw55x_cau_tdes.c **** */
  34:../Firmware/GD32VW55x_standard_peripheral/Source/gd32vw55x_cau_tdes.c **** 
  35:../Firmware/GD32VW55x_standard_peripheral/Source/gd32vw55x_cau_tdes.c **** #include "gd32vw55x_cau.h"
  36:../Firmware/GD32VW55x_standard_peripheral/Source/gd32vw55x_cau_tdes.c **** 
  37:../Firmware/GD32VW55x_standard_peripheral/Source/gd32vw55x_cau_tdes.c **** #define TDESBSY_TIMEOUT    ((uint32_t)0x00010000U)
  38:../Firmware/GD32VW55x_standard_peripheral/Source/gd32vw55x_cau_tdes.c **** 
  39:../Firmware/GD32VW55x_standard_peripheral/Source/gd32vw55x_cau_tdes.c **** /* TDES calculate process */
  40:../Firmware/GD32VW55x_standard_peripheral/Source/gd32vw55x_cau_tdes.c **** static ErrStatus cau_tdes_calculate(uint8_t *input, uint32_t in_length, uint8_t *output);
  41:../Firmware/GD32VW55x_standard_peripheral/Source/gd32vw55x_cau_tdes.c **** 
  42:../Firmware/GD32VW55x_standard_peripheral/Source/gd32vw55x_cau_tdes.c **** /*!
  43:../Firmware/GD32VW55x_standard_peripheral/Source/gd32vw55x_cau_tdes.c ****     \brief      encrypt and decrypt using TDES in ECB mode
  44:../Firmware/GD32VW55x_standard_peripheral/Source/gd32vw55x_cau_tdes.c ****     \param[in]  cau_parameter: pointer to the input structure
  45:../Firmware/GD32VW55x_standard_peripheral/Source/gd32vw55x_cau_tdes.c ****                   alg_dir: algorithm direction
  46:../Firmware/GD32VW55x_standard_peripheral/Source/gd32vw55x_cau_tdes.c ****                     CAU_ENCRYPT, CAU_DECRYPT
  47:../Firmware/GD32VW55x_standard_peripheral/Source/gd32vw55x_cau_tdes.c ****                   key: key, 24 bytes
  48:../Firmware/GD32VW55x_standard_peripheral/Source/gd32vw55x_cau_tdes.c ****                   input: input data
  49:../Firmware/GD32VW55x_standard_peripheral/Source/gd32vw55x_cau_tdes.c ****                   in_length: input data length in bytes, must be a multiple of 8 bytes
  50:../Firmware/GD32VW55x_standard_peripheral/Source/gd32vw55x_cau_tdes.c ****     \param[out] output: pointer to the output structure
  51:../Firmware/GD32VW55x_standard_peripheral/Source/gd32vw55x_cau_tdes.c ****     \retval     ErrStatus: SUCCESS or ERROR
  52:../Firmware/GD32VW55x_standard_peripheral/Source/gd32vw55x_cau_tdes.c **** */
  53:../Firmware/GD32VW55x_standard_peripheral/Source/gd32vw55x_cau_tdes.c **** ErrStatus cau_tdes_ecb(cau_parameter_struct *cau_parameter, uint8_t *output)
  54:../Firmware/GD32VW55x_standard_peripheral/Source/gd32vw55x_cau_tdes.c **** {
  16              		.loc 1 54 1
  17              		.cfi_startproc
  18 0000 1971     		addi	sp,sp,-128
  19              		.cfi_def_cfa_offset 128
  20 0002 86DE     		sw	ra,124(sp)
  21 0004 A2DC     		sw	s0,120(sp)
  22              		.cfi_offset 1, -4
  23              		.cfi_offset 8, -8
  24 0006 0001     		addi	s0,sp,128
  25              		.cfi_def_cfa 8, 0
  26 0008 2326A4F8 		sw	a0,-116(s0)
  27 000c 2324B4F8 		sw	a1,-120(s0)
  55:../Firmware/GD32VW55x_standard_peripheral/Source/gd32vw55x_cau_tdes.c ****     ErrStatus ret = ERROR;
  28              		.loc 1 55 15
  29 0010 232604FE 		sw	zero,-20(s0)
  56:../Firmware/GD32VW55x_standard_peripheral/Source/gd32vw55x_cau_tdes.c ****     cau_key_parameter_struct key_initpara;
  57:../Firmware/GD32VW55x_standard_peripheral/Source/gd32vw55x_cau_tdes.c ****     uint32_t keyaddr    = (uint32_t)(cau_parameter->key);
  30              		.loc 1 57 51
  31 0014 8327C4F8 		lw	a5,-116(s0)
  32 0018 DC43     		lw	a5,4(a5)
  33              		.loc 1 57 14
  34 001a 2324F4FE 		sw	a5,-24(s0)
  58:../Firmware/GD32VW55x_standard_peripheral/Source/gd32vw55x_cau_tdes.c ****     uint32_t inputaddr  = (uint32_t)(cau_parameter->input);
  35              		.loc 1 58 51
  36 001e 8327C4F8 		lw	a5,-116(s0)
  37 0022 DC4B     		lw	a5,20(a5)
  38              		.loc 1 58 14
  39 0024 2322F4FE 		sw	a5,-28(s0)
  59:../Firmware/GD32VW55x_standard_peripheral/Source/gd32vw55x_cau_tdes.c ****     uint32_t outputaddr = (uint32_t)output;
  40              		.loc 1 59 14
  41 0028 832784F8 		lw	a5,-120(s0)
  42 002c 2320F4FE 		sw	a5,-32(s0)
  60:../Firmware/GD32VW55x_standard_peripheral/Source/gd32vw55x_cau_tdes.c **** 
  61:../Firmware/GD32VW55x_standard_peripheral/Source/gd32vw55x_cau_tdes.c ****     /* key structure initialization */
  62:../Firmware/GD32VW55x_standard_peripheral/Source/gd32vw55x_cau_tdes.c ****     cau_key_struct_para_init(&key_initpara);
  43              		.loc 1 62 5
  44 0030 930704F9 		addi	a5,s0,-112
  45 0034 3E85     		mv	a0,a5
  46 0036 97000000 		call	cau_key_struct_para_init
  46      E7800000 
  63:../Firmware/GD32VW55x_standard_peripheral/Source/gd32vw55x_cau_tdes.c ****     /* initialize the CAU peripheral */
  64:../Firmware/GD32VW55x_standard_peripheral/Source/gd32vw55x_cau_tdes.c ****     cau_init(cau_parameter->alg_dir, CAU_MODE_TDES_ECB, CAU_SWAPPING_8BIT);
  47              		.loc 1 64 5
  48 003e 8327C4F8 		lw	a5,-116(s0)
  49 0042 9C43     		lw	a5,0(a5)
  50 0044 13060008 		li	a2,128
  51 0048 8145     		li	a1,0
  52 004a 3E85     		mv	a0,a5
  53 004c 97000000 		call	cau_init
  53      E7800000 
  65:../Firmware/GD32VW55x_standard_peripheral/Source/gd32vw55x_cau_tdes.c **** 
  66:../Firmware/GD32VW55x_standard_peripheral/Source/gd32vw55x_cau_tdes.c ****     /* key initialization */
  67:../Firmware/GD32VW55x_standard_peripheral/Source/gd32vw55x_cau_tdes.c ****     key_initpara.key_1_high = __REV(*(uint32_t *)(keyaddr));
  54              		.loc 1 67 38
  55 0054 832784FE 		lw	a5,-24(s0)
  56              		.loc 1 67 31
  57 0058 9C43     		lw	a5,0(a5)
  58 005a 232AF4FA 		sw	a5,-76(s0)
  59              	.LBB30:
  60              	.LBB31:
  61              		.file 2 "../Firmware/RISCV/drivers/core_compatiable.h"
   1:../Firmware/RISCV/drivers/core_compatiable.h **** /*
   2:../Firmware/RISCV/drivers/core_compatiable.h ****  * Copyright (c) 2019 Nuclei Limited. All rights reserved.
   3:../Firmware/RISCV/drivers/core_compatiable.h ****  *
   4:../Firmware/RISCV/drivers/core_compatiable.h ****  * SPDX-License-Identifier: Apache-2.0
   5:../Firmware/RISCV/drivers/core_compatiable.h ****  *
   6:../Firmware/RISCV/drivers/core_compatiable.h ****  * Licensed under the Apache License, Version 2.0 (the License); you may
   7:../Firmware/RISCV/drivers/core_compatiable.h ****  * not use this file except in compliance with the License.
   8:../Firmware/RISCV/drivers/core_compatiable.h ****  * You may obtain a copy of the License at
   9:../Firmware/RISCV/drivers/core_compatiable.h ****  *
  10:../Firmware/RISCV/drivers/core_compatiable.h ****  * www.apache.org/licenses/LICENSE-2.0
  11:../Firmware/RISCV/drivers/core_compatiable.h ****  *
  12:../Firmware/RISCV/drivers/core_compatiable.h ****  * Unless required by applicable law or agreed to in writing, software
  13:../Firmware/RISCV/drivers/core_compatiable.h ****  * distributed under the License is distributed on an AS IS BASIS, WITHOUT
  14:../Firmware/RISCV/drivers/core_compatiable.h ****  * WARRANTIES OR CONDITIONS OF ANY KIND, either express or implied.
  15:../Firmware/RISCV/drivers/core_compatiable.h ****  * See the License for the specific language governing permissions and
  16:../Firmware/RISCV/drivers/core_compatiable.h ****  * limitations under the License.
  17:../Firmware/RISCV/drivers/core_compatiable.h ****  */
  18:../Firmware/RISCV/drivers/core_compatiable.h **** #ifndef __CORE_COMPATIABLE_H__
  19:../Firmware/RISCV/drivers/core_compatiable.h **** #define __CORE_COMPATIABLE_H__
  20:../Firmware/RISCV/drivers/core_compatiable.h **** /*!
  21:../Firmware/RISCV/drivers/core_compatiable.h ****  * @file     core_compatiable.h
  22:../Firmware/RISCV/drivers/core_compatiable.h ****  * @brief    ARM compatiable function definitions header file
  23:../Firmware/RISCV/drivers/core_compatiable.h ****  */
  24:../Firmware/RISCV/drivers/core_compatiable.h **** #ifdef __cplusplus
  25:../Firmware/RISCV/drivers/core_compatiable.h ****  extern "C" {
  26:../Firmware/RISCV/drivers/core_compatiable.h **** #endif
  27:../Firmware/RISCV/drivers/core_compatiable.h **** 
  28:../Firmware/RISCV/drivers/core_compatiable.h **** /* ===== ARM Compatiable Functions ===== */
  29:../Firmware/RISCV/drivers/core_compatiable.h **** /**
  30:../Firmware/RISCV/drivers/core_compatiable.h ****  * \defgroup NMSIS_Core_ARMCompatiable_Functions   ARM Compatiable Functions
  31:../Firmware/RISCV/drivers/core_compatiable.h ****  * \ingroup  NMSIS_Core
  32:../Firmware/RISCV/drivers/core_compatiable.h ****  * \brief    A few functions that compatiable with ARM CMSIS-Core.
  33:../Firmware/RISCV/drivers/core_compatiable.h ****  * \details
  34:../Firmware/RISCV/drivers/core_compatiable.h ****  *
  35:../Firmware/RISCV/drivers/core_compatiable.h ****  * Here we provided a few functions that compatiable with ARM CMSIS-Core,
  36:../Firmware/RISCV/drivers/core_compatiable.h ****  * mostly used in the DSP and NN library.
  37:../Firmware/RISCV/drivers/core_compatiable.h ****  * @{
  38:../Firmware/RISCV/drivers/core_compatiable.h ****  */
  39:../Firmware/RISCV/drivers/core_compatiable.h **** /** \brief Instruction Synchronization Barrier, compatiable with ARM */
  40:../Firmware/RISCV/drivers/core_compatiable.h **** #define __ISB()                             __RWMB()
  41:../Firmware/RISCV/drivers/core_compatiable.h **** 
  42:../Firmware/RISCV/drivers/core_compatiable.h **** /** \brief Data Synchronization Barrier, compatiable with ARM */
  43:../Firmware/RISCV/drivers/core_compatiable.h **** #define __DSB()                             __RWMB()
  44:../Firmware/RISCV/drivers/core_compatiable.h **** 
  45:../Firmware/RISCV/drivers/core_compatiable.h **** /** \brief Data Memory Barrier, compatiable with ARM */
  46:../Firmware/RISCV/drivers/core_compatiable.h **** #define __DMB()                             __RWMB()
  47:../Firmware/RISCV/drivers/core_compatiable.h **** 
  48:../Firmware/RISCV/drivers/core_compatiable.h **** /** \brief LDRT Unprivileged (8 bit), ARM Compatiable */
  49:../Firmware/RISCV/drivers/core_compatiable.h **** #define __LDRBT(ptr)                        __LB((ptr))
  50:../Firmware/RISCV/drivers/core_compatiable.h **** /** \brief LDRT Unprivileged (16 bit), ARM Compatiable */
  51:../Firmware/RISCV/drivers/core_compatiable.h **** #define __LDRHT(ptr)                        __LH((ptr))
  52:../Firmware/RISCV/drivers/core_compatiable.h **** /** \brief LDRT Unprivileged (32 bit), ARM Compatiable */
  53:../Firmware/RISCV/drivers/core_compatiable.h **** #define __LDRT(ptr)                         __LW((ptr))
  54:../Firmware/RISCV/drivers/core_compatiable.h **** 
  55:../Firmware/RISCV/drivers/core_compatiable.h **** /** \brief STRT Unprivileged (8 bit), ARM Compatiable */
  56:../Firmware/RISCV/drivers/core_compatiable.h **** #define __STRBT(val, ptr)                   __SB((ptr), (val))
  57:../Firmware/RISCV/drivers/core_compatiable.h **** /** \brief STRT Unprivileged (16 bit), ARM Compatiable */
  58:../Firmware/RISCV/drivers/core_compatiable.h **** #define __STRHT(val, ptr)                   __SH((ptr), (val))
  59:../Firmware/RISCV/drivers/core_compatiable.h **** /** \brief STRT Unprivileged (32 bit), ARM Compatiable */
  60:../Firmware/RISCV/drivers/core_compatiable.h **** #define __STRT(val, ptr)                    __SW((ptr), (val))
  61:../Firmware/RISCV/drivers/core_compatiable.h **** 
  62:../Firmware/RISCV/drivers/core_compatiable.h **** /* ===== Saturation Operations ===== */
  63:../Firmware/RISCV/drivers/core_compatiable.h **** /**
  64:../Firmware/RISCV/drivers/core_compatiable.h ****  * \brief   Signed Saturate
  65:../Firmware/RISCV/drivers/core_compatiable.h ****  * \details Saturates a signed value.
  66:../Firmware/RISCV/drivers/core_compatiable.h ****  * \param [in]  value  Value to be saturated
  67:../Firmware/RISCV/drivers/core_compatiable.h ****  * \param [in]    sat  Bit position to saturate to (1..32)
  68:../Firmware/RISCV/drivers/core_compatiable.h ****  * \return             Saturated value
  69:../Firmware/RISCV/drivers/core_compatiable.h ****  */
  70:../Firmware/RISCV/drivers/core_compatiable.h **** #if defined(__DSP_PRESENT) && (__DSP_PRESENT == 1)
  71:../Firmware/RISCV/drivers/core_compatiable.h **** #define __SSAT(val, sat)          __RV_SCLIP32((val), (sat-1))
  72:../Firmware/RISCV/drivers/core_compatiable.h **** #else
  73:../Firmware/RISCV/drivers/core_compatiable.h **** __STATIC_FORCEINLINE int32_t __SSAT(int32_t val, uint32_t sat)
  74:../Firmware/RISCV/drivers/core_compatiable.h **** {
  75:../Firmware/RISCV/drivers/core_compatiable.h ****     if ((sat >= 1U) && (sat <= 32U)) {
  76:../Firmware/RISCV/drivers/core_compatiable.h ****         const int32_t max = (int32_t)((1U << (sat - 1U)) - 1U);
  77:../Firmware/RISCV/drivers/core_compatiable.h ****         const int32_t min = -1 - max ;
  78:../Firmware/RISCV/drivers/core_compatiable.h ****         if (val > max) {
  79:../Firmware/RISCV/drivers/core_compatiable.h ****             return max;
  80:../Firmware/RISCV/drivers/core_compatiable.h ****         } else if (val < min) {
  81:../Firmware/RISCV/drivers/core_compatiable.h ****             return min;
  82:../Firmware/RISCV/drivers/core_compatiable.h ****         }
  83:../Firmware/RISCV/drivers/core_compatiable.h ****     }
  84:../Firmware/RISCV/drivers/core_compatiable.h ****     return val;
  85:../Firmware/RISCV/drivers/core_compatiable.h **** }
  86:../Firmware/RISCV/drivers/core_compatiable.h **** #endif
  87:../Firmware/RISCV/drivers/core_compatiable.h **** 
  88:../Firmware/RISCV/drivers/core_compatiable.h **** /**
  89:../Firmware/RISCV/drivers/core_compatiable.h ****  * \brief   Unsigned Saturate
  90:../Firmware/RISCV/drivers/core_compatiable.h ****  * \details Saturates an unsigned value.
  91:../Firmware/RISCV/drivers/core_compatiable.h ****  * \param [in]  value  Value to be saturated
  92:../Firmware/RISCV/drivers/core_compatiable.h ****  * \param [in]    sat  Bit position to saturate to (0..31)
  93:../Firmware/RISCV/drivers/core_compatiable.h ****  * \return             Saturated value
  94:../Firmware/RISCV/drivers/core_compatiable.h ****  */
  95:../Firmware/RISCV/drivers/core_compatiable.h **** #if defined(__DSP_PRESENT) && (__DSP_PRESENT == 1)
  96:../Firmware/RISCV/drivers/core_compatiable.h **** #define __USAT(val, sat)        __RV_UCLIP32((val), (sat))
  97:../Firmware/RISCV/drivers/core_compatiable.h **** #else
  98:../Firmware/RISCV/drivers/core_compatiable.h **** __STATIC_FORCEINLINE uint32_t __USAT(int32_t val, uint32_t sat)
  99:../Firmware/RISCV/drivers/core_compatiable.h **** {
 100:../Firmware/RISCV/drivers/core_compatiable.h ****     if (sat <= 31U) {
 101:../Firmware/RISCV/drivers/core_compatiable.h ****         const uint32_t max = ((1U << sat) - 1U);
 102:../Firmware/RISCV/drivers/core_compatiable.h ****         if (val > (int32_t)max) {
 103:../Firmware/RISCV/drivers/core_compatiable.h ****             return max;
 104:../Firmware/RISCV/drivers/core_compatiable.h ****         } else if (val < 0) {
 105:../Firmware/RISCV/drivers/core_compatiable.h ****             return 0U;
 106:../Firmware/RISCV/drivers/core_compatiable.h ****         }
 107:../Firmware/RISCV/drivers/core_compatiable.h ****     }
 108:../Firmware/RISCV/drivers/core_compatiable.h ****     return (uint32_t)val;
 109:../Firmware/RISCV/drivers/core_compatiable.h **** }
 110:../Firmware/RISCV/drivers/core_compatiable.h **** #endif
 111:../Firmware/RISCV/drivers/core_compatiable.h **** 
 112:../Firmware/RISCV/drivers/core_compatiable.h **** /* ===== Data Processing Operations ===== */
 113:../Firmware/RISCV/drivers/core_compatiable.h **** /**
 114:../Firmware/RISCV/drivers/core_compatiable.h ****  * \brief   Reverse byte order (32 bit)
 115:../Firmware/RISCV/drivers/core_compatiable.h ****  * \details Reverses the byte order in unsigned integer value.
 116:../Firmware/RISCV/drivers/core_compatiable.h ****  * For example, 0x12345678 becomes 0x78563412.
 117:../Firmware/RISCV/drivers/core_compatiable.h ****  * \param [in]    value  Value to reverse
 118:../Firmware/RISCV/drivers/core_compatiable.h ****  * \return               Reversed value
 119:../Firmware/RISCV/drivers/core_compatiable.h ****  */
 120:../Firmware/RISCV/drivers/core_compatiable.h **** __STATIC_FORCEINLINE uint32_t __REV(uint32_t value)
 121:../Firmware/RISCV/drivers/core_compatiable.h **** {
 122:../Firmware/RISCV/drivers/core_compatiable.h ****     uint32_t result;
 123:../Firmware/RISCV/drivers/core_compatiable.h **** 
 124:../Firmware/RISCV/drivers/core_compatiable.h ****     result =  ((value & 0xff000000) >> 24)
  62              		.loc 2 124 37
  63 005e 832744FB 		lw	a5,-76(s0)
  64 0062 13D78701 		srli	a4,a5,24
 125:../Firmware/RISCV/drivers/core_compatiable.h ****         | ((value & 0x00ff0000) >> 8 )
  65              		.loc 2 125 33
  66 0066 832744FB 		lw	a5,-76(s0)
  67 006a 93D68700 		srli	a3,a5,8
  68 006e C167     		li	a5,65536
  69 0070 938707F0 		addi	a5,a5,-256
  70 0074 F58F     		and	a5,a3,a5
  71              		.loc 2 125 9
  72 0076 5D8F     		or	a4,a4,a5
 126:../Firmware/RISCV/drivers/core_compatiable.h ****         | ((value & 0x0000ff00) << 8 )
  73              		.loc 2 126 33
  74 0078 832744FB 		lw	a5,-76(s0)
  75 007c 93968700 		slli	a3,a5,8
  76 0080 B707FF00 		li	a5,16711680
  77 0084 F58F     		and	a5,a3,a5
  78              		.loc 2 126 9
  79 0086 5D8F     		or	a4,a4,a5
 127:../Firmware/RISCV/drivers/core_compatiable.h ****         | ((value & 0x000000ff) << 24);
  80              		.loc 2 127 33
  81 0088 832744FB 		lw	a5,-76(s0)
  82 008c E207     		slli	a5,a5,24
 124:../Firmware/RISCV/drivers/core_compatiable.h ****         | ((value & 0x00ff0000) >> 8 )
  83              		.loc 2 124 12
  84 008e D98F     		or	a5,a4,a5
  85 0090 2328F4FA 		sw	a5,-80(s0)
 128:../Firmware/RISCV/drivers/core_compatiable.h ****     return result;
  86              		.loc 2 128 12
  87 0094 832704FB 		lw	a5,-80(s0)
  88              	.LBE31:
  89              	.LBE30:
  90              		.loc 1 67 29
  91 0098 232CF4F8 		sw	a5,-104(s0)
  68:../Firmware/GD32VW55x_standard_peripheral/Source/gd32vw55x_cau_tdes.c ****     keyaddr += 4U;
  92              		.loc 1 68 13
  93 009c 832784FE 		lw	a5,-24(s0)
  94 00a0 9107     		addi	a5,a5,4
  95 00a2 2324F4FE 		sw	a5,-24(s0)
  69:../Firmware/GD32VW55x_standard_peripheral/Source/gd32vw55x_cau_tdes.c ****     key_initpara.key_1_low  = __REV(*(uint32_t *)(keyaddr));
  96              		.loc 1 69 38
  97 00a6 832784FE 		lw	a5,-24(s0)
  98              		.loc 1 69 31
  99 00aa 9C43     		lw	a5,0(a5)
 100 00ac 232EF4FA 		sw	a5,-68(s0)
 101              	.LBB32:
 102              	.LBB33:
 124:../Firmware/RISCV/drivers/core_compatiable.h ****         | ((value & 0x00ff0000) >> 8 )
 103              		.loc 2 124 37
 104 00b0 8327C4FB 		lw	a5,-68(s0)
 105 00b4 13D78701 		srli	a4,a5,24
 125:../Firmware/RISCV/drivers/core_compatiable.h ****         | ((value & 0x0000ff00) << 8 )
 106              		.loc 2 125 33
 107 00b8 8327C4FB 		lw	a5,-68(s0)
 108 00bc 93D68700 		srli	a3,a5,8
 109 00c0 C167     		li	a5,65536
 110 00c2 938707F0 		addi	a5,a5,-256
 111 00c6 F58F     		and	a5,a3,a5
 125:../Firmware/RISCV/drivers/core_compatiable.h ****         | ((value & 0x0000ff00) << 8 )
 112              		.loc 2 125 9
 113 00c8 5D8F     		or	a4,a4,a5
 126:../Firmware/RISCV/drivers/core_compatiable.h ****         | ((value & 0x000000ff) << 24);
 114              		.loc 2 126 33
 115 00ca 8327C4FB 		lw	a5,-68(s0)
 116 00ce 93968700 		slli	a3,a5,8
 117 00d2 B707FF00 		li	a5,16711680
 118 00d6 F58F     		and	a5,a3,a5
 126:../Firmware/RISCV/drivers/core_compatiable.h ****         | ((value & 0x000000ff) << 24);
 119              		.loc 2 126 9
 120 00d8 5D8F     		or	a4,a4,a5
 127:../Firmware/RISCV/drivers/core_compatiable.h ****     return result;
 121              		.loc 2 127 33
 122 00da 8327C4FB 		lw	a5,-68(s0)
 123 00de E207     		slli	a5,a5,24
 124:../Firmware/RISCV/drivers/core_compatiable.h ****         | ((value & 0x00ff0000) >> 8 )
 124              		.loc 2 124 12
 125 00e0 D98F     		or	a5,a4,a5
 126 00e2 232CF4FA 		sw	a5,-72(s0)
 127              		.loc 2 128 12
 128 00e6 832784FB 		lw	a5,-72(s0)
 129              	.LBE33:
 130              	.LBE32:
 131              		.loc 1 69 29
 132 00ea 232EF4F8 		sw	a5,-100(s0)
  70:../Firmware/GD32VW55x_standard_peripheral/Source/gd32vw55x_cau_tdes.c ****     keyaddr += 4U;
 133              		.loc 1 70 13
 134 00ee 832784FE 		lw	a5,-24(s0)
 135 00f2 9107     		addi	a5,a5,4
 136 00f4 2324F4FE 		sw	a5,-24(s0)
  71:../Firmware/GD32VW55x_standard_peripheral/Source/gd32vw55x_cau_tdes.c ****     key_initpara.key_2_high = __REV(*(uint32_t *)(keyaddr));
 137              		.loc 1 71 38
 138 00f8 832784FE 		lw	a5,-24(s0)
 139              		.loc 1 71 31
 140 00fc 9C43     		lw	a5,0(a5)
 141 00fe 2322F4FC 		sw	a5,-60(s0)
 142              	.LBB34:
 143              	.LBB35:
 124:../Firmware/RISCV/drivers/core_compatiable.h ****         | ((value & 0x00ff0000) >> 8 )
 144              		.loc 2 124 37
 145 0102 832744FC 		lw	a5,-60(s0)
 146 0106 13D78701 		srli	a4,a5,24
 125:../Firmware/RISCV/drivers/core_compatiable.h ****         | ((value & 0x0000ff00) << 8 )
 147              		.loc 2 125 33
 148 010a 832744FC 		lw	a5,-60(s0)
 149 010e 93D68700 		srli	a3,a5,8
 150 0112 C167     		li	a5,65536
 151 0114 938707F0 		addi	a5,a5,-256
 152 0118 F58F     		and	a5,a3,a5
 125:../Firmware/RISCV/drivers/core_compatiable.h ****         | ((value & 0x0000ff00) << 8 )
 153              		.loc 2 125 9
 154 011a 5D8F     		or	a4,a4,a5
 126:../Firmware/RISCV/drivers/core_compatiable.h ****         | ((value & 0x000000ff) << 24);
 155              		.loc 2 126 33
 156 011c 832744FC 		lw	a5,-60(s0)
 157 0120 93968700 		slli	a3,a5,8
 158 0124 B707FF00 		li	a5,16711680
 159 0128 F58F     		and	a5,a3,a5
 126:../Firmware/RISCV/drivers/core_compatiable.h ****         | ((value & 0x000000ff) << 24);
 160              		.loc 2 126 9
 161 012a 5D8F     		or	a4,a4,a5
 127:../Firmware/RISCV/drivers/core_compatiable.h ****     return result;
 162              		.loc 2 127 33
 163 012c 832744FC 		lw	a5,-60(s0)
 164 0130 E207     		slli	a5,a5,24
 124:../Firmware/RISCV/drivers/core_compatiable.h ****         | ((value & 0x00ff0000) >> 8 )
 165              		.loc 2 124 12
 166 0132 D98F     		or	a5,a4,a5
 167 0134 2320F4FC 		sw	a5,-64(s0)
 168              		.loc 2 128 12
 169 0138 832704FC 		lw	a5,-64(s0)
 170              	.LBE35:
 171              	.LBE34:
 172              		.loc 1 71 29
 173 013c 2320F4FA 		sw	a5,-96(s0)
  72:../Firmware/GD32VW55x_standard_peripheral/Source/gd32vw55x_cau_tdes.c ****     keyaddr += 4U;
 174              		.loc 1 72 13
 175 0140 832784FE 		lw	a5,-24(s0)
 176 0144 9107     		addi	a5,a5,4
 177 0146 2324F4FE 		sw	a5,-24(s0)
  73:../Firmware/GD32VW55x_standard_peripheral/Source/gd32vw55x_cau_tdes.c ****     key_initpara.key_2_low  = __REV(*(uint32_t *)(keyaddr));
 178              		.loc 1 73 38
 179 014a 832784FE 		lw	a5,-24(s0)
 180              		.loc 1 73 31
 181 014e 9C43     		lw	a5,0(a5)
 182 0150 2326F4FC 		sw	a5,-52(s0)
 183              	.LBB36:
 184              	.LBB37:
 124:../Firmware/RISCV/drivers/core_compatiable.h ****         | ((value & 0x00ff0000) >> 8 )
 185              		.loc 2 124 37
 186 0154 8327C4FC 		lw	a5,-52(s0)
 187 0158 13D78701 		srli	a4,a5,24
 125:../Firmware/RISCV/drivers/core_compatiable.h ****         | ((value & 0x0000ff00) << 8 )
 188              		.loc 2 125 33
 189 015c 8327C4FC 		lw	a5,-52(s0)
 190 0160 93D68700 		srli	a3,a5,8
 191 0164 C167     		li	a5,65536
 192 0166 938707F0 		addi	a5,a5,-256
 193 016a F58F     		and	a5,a3,a5
 125:../Firmware/RISCV/drivers/core_compatiable.h ****         | ((value & 0x0000ff00) << 8 )
 194              		.loc 2 125 9
 195 016c 5D8F     		or	a4,a4,a5
 126:../Firmware/RISCV/drivers/core_compatiable.h ****         | ((value & 0x000000ff) << 24);
 196              		.loc 2 126 33
 197 016e 8327C4FC 		lw	a5,-52(s0)
 198 0172 93968700 		slli	a3,a5,8
 199 0176 B707FF00 		li	a5,16711680
 200 017a F58F     		and	a5,a3,a5
 126:../Firmware/RISCV/drivers/core_compatiable.h ****         | ((value & 0x000000ff) << 24);
 201              		.loc 2 126 9
 202 017c 5D8F     		or	a4,a4,a5
 127:../Firmware/RISCV/drivers/core_compatiable.h ****     return result;
 203              		.loc 2 127 33
 204 017e 8327C4FC 		lw	a5,-52(s0)
 205 0182 E207     		slli	a5,a5,24
 124:../Firmware/RISCV/drivers/core_compatiable.h ****         | ((value & 0x00ff0000) >> 8 )
 206              		.loc 2 124 12
 207 0184 D98F     		or	a5,a4,a5
 208 0186 2324F4FC 		sw	a5,-56(s0)
 209              		.loc 2 128 12
 210 018a 832784FC 		lw	a5,-56(s0)
 211              	.LBE37:
 212              	.LBE36:
 213              		.loc 1 73 29
 214 018e 2322F4FA 		sw	a5,-92(s0)
  74:../Firmware/GD32VW55x_standard_peripheral/Source/gd32vw55x_cau_tdes.c ****     keyaddr += 4U;
 215              		.loc 1 74 13
 216 0192 832784FE 		lw	a5,-24(s0)
 217 0196 9107     		addi	a5,a5,4
 218 0198 2324F4FE 		sw	a5,-24(s0)
  75:../Firmware/GD32VW55x_standard_peripheral/Source/gd32vw55x_cau_tdes.c ****     key_initpara.key_3_high = __REV(*(uint32_t *)(keyaddr));
 219              		.loc 1 75 38
 220 019c 832784FE 		lw	a5,-24(s0)
 221              		.loc 1 75 31
 222 01a0 9C43     		lw	a5,0(a5)
 223 01a2 232AF4FC 		sw	a5,-44(s0)
 224              	.LBB38:
 225              	.LBB39:
 124:../Firmware/RISCV/drivers/core_compatiable.h ****         | ((value & 0x00ff0000) >> 8 )
 226              		.loc 2 124 37
 227 01a6 832744FD 		lw	a5,-44(s0)
 228 01aa 13D78701 		srli	a4,a5,24
 125:../Firmware/RISCV/drivers/core_compatiable.h ****         | ((value & 0x0000ff00) << 8 )
 229              		.loc 2 125 33
 230 01ae 832744FD 		lw	a5,-44(s0)
 231 01b2 93D68700 		srli	a3,a5,8
 232 01b6 C167     		li	a5,65536
 233 01b8 938707F0 		addi	a5,a5,-256
 234 01bc F58F     		and	a5,a3,a5
 125:../Firmware/RISCV/drivers/core_compatiable.h ****         | ((value & 0x0000ff00) << 8 )
 235              		.loc 2 125 9
 236 01be 5D8F     		or	a4,a4,a5
 126:../Firmware/RISCV/drivers/core_compatiable.h ****         | ((value & 0x000000ff) << 24);
 237              		.loc 2 126 33
 238 01c0 832744FD 		lw	a5,-44(s0)
 239 01c4 93968700 		slli	a3,a5,8
 240 01c8 B707FF00 		li	a5,16711680
 241 01cc F58F     		and	a5,a3,a5
 126:../Firmware/RISCV/drivers/core_compatiable.h ****         | ((value & 0x000000ff) << 24);
 242              		.loc 2 126 9
 243 01ce 5D8F     		or	a4,a4,a5
 127:../Firmware/RISCV/drivers/core_compatiable.h ****     return result;
 244              		.loc 2 127 33
 245 01d0 832744FD 		lw	a5,-44(s0)
 246 01d4 E207     		slli	a5,a5,24
 124:../Firmware/RISCV/drivers/core_compatiable.h ****         | ((value & 0x00ff0000) >> 8 )
 247              		.loc 2 124 12
 248 01d6 D98F     		or	a5,a4,a5
 249 01d8 2328F4FC 		sw	a5,-48(s0)
 250              		.loc 2 128 12
 251 01dc 832704FD 		lw	a5,-48(s0)
 252              	.LBE39:
 253              	.LBE38:
 254              		.loc 1 75 29
 255 01e0 2324F4FA 		sw	a5,-88(s0)
  76:../Firmware/GD32VW55x_standard_peripheral/Source/gd32vw55x_cau_tdes.c ****     keyaddr += 4U;
 256              		.loc 1 76 13
 257 01e4 832784FE 		lw	a5,-24(s0)
 258 01e8 9107     		addi	a5,a5,4
 259 01ea 2324F4FE 		sw	a5,-24(s0)
  77:../Firmware/GD32VW55x_standard_peripheral/Source/gd32vw55x_cau_tdes.c ****     key_initpara.key_3_low  = __REV(*(uint32_t *)(keyaddr));
 260              		.loc 1 77 38
 261 01ee 832784FE 		lw	a5,-24(s0)
 262              		.loc 1 77 31
 263 01f2 9C43     		lw	a5,0(a5)
 264 01f4 232EF4FC 		sw	a5,-36(s0)
 265              	.LBB40:
 266              	.LBB41:
 124:../Firmware/RISCV/drivers/core_compatiable.h ****         | ((value & 0x00ff0000) >> 8 )
 267              		.loc 2 124 37
 268 01f8 8327C4FD 		lw	a5,-36(s0)
 269 01fc 13D78701 		srli	a4,a5,24
 125:../Firmware/RISCV/drivers/core_compatiable.h ****         | ((value & 0x0000ff00) << 8 )
 270              		.loc 2 125 33
 271 0200 8327C4FD 		lw	a5,-36(s0)
 272 0204 93D68700 		srli	a3,a5,8
 273 0208 C167     		li	a5,65536
 274 020a 938707F0 		addi	a5,a5,-256
 275 020e F58F     		and	a5,a3,a5
 125:../Firmware/RISCV/drivers/core_compatiable.h ****         | ((value & 0x0000ff00) << 8 )
 276              		.loc 2 125 9
 277 0210 5D8F     		or	a4,a4,a5
 126:../Firmware/RISCV/drivers/core_compatiable.h ****         | ((value & 0x000000ff) << 24);
 278              		.loc 2 126 33
 279 0212 8327C4FD 		lw	a5,-36(s0)
 280 0216 93968700 		slli	a3,a5,8
 281 021a B707FF00 		li	a5,16711680
 282 021e F58F     		and	a5,a3,a5
 126:../Firmware/RISCV/drivers/core_compatiable.h ****         | ((value & 0x000000ff) << 24);
 283              		.loc 2 126 9
 284 0220 5D8F     		or	a4,a4,a5
 127:../Firmware/RISCV/drivers/core_compatiable.h ****     return result;
 285              		.loc 2 127 33
 286 0222 8327C4FD 		lw	a5,-36(s0)
 287 0226 E207     		slli	a5,a5,24
 124:../Firmware/RISCV/drivers/core_compatiable.h ****         | ((value & 0x00ff0000) >> 8 )
 288              		.loc 2 124 12
 289 0228 D98F     		or	a5,a4,a5
 290 022a 232CF4FC 		sw	a5,-40(s0)
 291              		.loc 2 128 12
 292 022e 832784FD 		lw	a5,-40(s0)
 293              	.LBE41:
 294              	.LBE40:
 295              		.loc 1 77 29
 296 0232 2326F4FA 		sw	a5,-84(s0)
  78:../Firmware/GD32VW55x_standard_peripheral/Source/gd32vw55x_cau_tdes.c ****     cau_key_init(&key_initpara);
 297              		.loc 1 78 5
 298 0236 930704F9 		addi	a5,s0,-112
 299 023a 3E85     		mv	a0,a5
 300 023c 97000000 		call	cau_key_init
 300      E7800000 
  79:../Firmware/GD32VW55x_standard_peripheral/Source/gd32vw55x_cau_tdes.c **** 
  80:../Firmware/GD32VW55x_standard_peripheral/Source/gd32vw55x_cau_tdes.c ****     /* flush the IN and OUT FIFOs */
  81:../Firmware/GD32VW55x_standard_peripheral/Source/gd32vw55x_cau_tdes.c ****     cau_fifo_flush();
 301              		.loc 1 81 5
 302 0244 97000000 		call	cau_fifo_flush
 302      E7800000 
  82:../Firmware/GD32VW55x_standard_peripheral/Source/gd32vw55x_cau_tdes.c **** 
  83:../Firmware/GD32VW55x_standard_peripheral/Source/gd32vw55x_cau_tdes.c ****     /* enable the CAU peripheral */
  84:../Firmware/GD32VW55x_standard_peripheral/Source/gd32vw55x_cau_tdes.c ****     cau_enable();
 303              		.loc 1 84 5
 304 024c 97000000 		call	cau_enable
 304      E7800000 
  85:../Firmware/GD32VW55x_standard_peripheral/Source/gd32vw55x_cau_tdes.c ****     /* TDES calculate process */
  86:../Firmware/GD32VW55x_standard_peripheral/Source/gd32vw55x_cau_tdes.c ****     ret = cau_tdes_calculate((uint8_t *)inputaddr, cau_parameter->in_length, (uint8_t *)outputaddr)
 305              		.loc 1 86 11
 306 0254 032744FE 		lw	a4,-28(s0)
 307 0258 8327C4F8 		lw	a5,-116(s0)
 308 025c 9C4F     		lw	a5,24(a5)
 309 025e 832604FE 		lw	a3,-32(s0)
 310 0262 3686     		mv	a2,a3
 311 0264 BE85     		mv	a1,a5
 312 0266 3A85     		mv	a0,a4
 313 0268 97000000 		call	cau_tdes_calculate
 313      E7800000 
 314 0270 2326A4FE 		sw	a0,-20(s0)
  87:../Firmware/GD32VW55x_standard_peripheral/Source/gd32vw55x_cau_tdes.c ****     /* disable the CAU peripheral */
  88:../Firmware/GD32VW55x_standard_peripheral/Source/gd32vw55x_cau_tdes.c ****     cau_disable();
 315              		.loc 1 88 5
 316 0274 97000000 		call	cau_disable
 316      E7800000 
  89:../Firmware/GD32VW55x_standard_peripheral/Source/gd32vw55x_cau_tdes.c **** 
  90:../Firmware/GD32VW55x_standard_peripheral/Source/gd32vw55x_cau_tdes.c ****     return ret;
 317              		.loc 1 90 12
 318 027c 8327C4FE 		lw	a5,-20(s0)
  91:../Firmware/GD32VW55x_standard_peripheral/Source/gd32vw55x_cau_tdes.c **** }
 319              		.loc 1 91 1
 320 0280 3E85     		mv	a0,a5
 321 0282 F650     		lw	ra,124(sp)
 322              		.cfi_restore 1
 323 0284 6654     		lw	s0,120(sp)
 324              		.cfi_restore 8
 325              		.cfi_def_cfa 2, 128
 326 0286 0961     		addi	sp,sp,128
 327              		.cfi_def_cfa_offset 0
 328 0288 8280     		jr	ra
 329              		.cfi_endproc
 330              	.LFE347:
 332              		.section	.text.cau_tdes_cbc,"ax",@progbits
 333              		.align	1
 334              		.globl	cau_tdes_cbc
 336              	cau_tdes_cbc:
 337              	.LFB348:
  92:../Firmware/GD32VW55x_standard_peripheral/Source/gd32vw55x_cau_tdes.c **** 
  93:../Firmware/GD32VW55x_standard_peripheral/Source/gd32vw55x_cau_tdes.c **** /*!
  94:../Firmware/GD32VW55x_standard_peripheral/Source/gd32vw55x_cau_tdes.c ****     \brief      encrypt and decrypt using TDES in CBC mode
  95:../Firmware/GD32VW55x_standard_peripheral/Source/gd32vw55x_cau_tdes.c ****     \param[in]  cau_parameter: pointer to the input structure
  96:../Firmware/GD32VW55x_standard_peripheral/Source/gd32vw55x_cau_tdes.c ****                   alg_dir: algorithm direction
  97:../Firmware/GD32VW55x_standard_peripheral/Source/gd32vw55x_cau_tdes.c ****                     CAU_ENCRYPT, CAU_DECRYPT
  98:../Firmware/GD32VW55x_standard_peripheral/Source/gd32vw55x_cau_tdes.c ****                   key: key, 24 bytes
  99:../Firmware/GD32VW55x_standard_peripheral/Source/gd32vw55x_cau_tdes.c ****                   iv: initialization vector, 8 bytes
 100:../Firmware/GD32VW55x_standard_peripheral/Source/gd32vw55x_cau_tdes.c ****                   input: input data
 101:../Firmware/GD32VW55x_standard_peripheral/Source/gd32vw55x_cau_tdes.c ****                   in_length: input data length in bytes, must be a multiple of 8 bytes
 102:../Firmware/GD32VW55x_standard_peripheral/Source/gd32vw55x_cau_tdes.c ****     \param[out] output: pointer to the output structure
 103:../Firmware/GD32VW55x_standard_peripheral/Source/gd32vw55x_cau_tdes.c ****     \retval     ErrStatus: SUCCESS or ERROR
 104:../Firmware/GD32VW55x_standard_peripheral/Source/gd32vw55x_cau_tdes.c **** */
 105:../Firmware/GD32VW55x_standard_peripheral/Source/gd32vw55x_cau_tdes.c **** ErrStatus cau_tdes_cbc(cau_parameter_struct *cau_parameter, uint8_t *output)
 106:../Firmware/GD32VW55x_standard_peripheral/Source/gd32vw55x_cau_tdes.c **** {
 338              		.loc 1 106 1
 339              		.cfi_startproc
 340 0000 7171     		addi	sp,sp,-176
 341              		.cfi_def_cfa_offset 176
 342 0002 06D7     		sw	ra,172(sp)
 343 0004 22D5     		sw	s0,168(sp)
 344              		.cfi_offset 1, -4
 345              		.cfi_offset 8, -8
 346 0006 0019     		addi	s0,sp,176
 347              		.cfi_def_cfa 8, 0
 348 0008 232EA4F4 		sw	a0,-164(s0)
 349 000c 232CB4F4 		sw	a1,-168(s0)
 107:../Firmware/GD32VW55x_standard_peripheral/Source/gd32vw55x_cau_tdes.c ****     ErrStatus ret = ERROR;
 350              		.loc 1 107 15
 351 0010 232604FE 		sw	zero,-20(s0)
 108:../Firmware/GD32VW55x_standard_peripheral/Source/gd32vw55x_cau_tdes.c ****     cau_key_parameter_struct key_initpara;
 109:../Firmware/GD32VW55x_standard_peripheral/Source/gd32vw55x_cau_tdes.c ****     cau_iv_parameter_struct iv_initpara;
 110:../Firmware/GD32VW55x_standard_peripheral/Source/gd32vw55x_cau_tdes.c ****     uint32_t keyaddr    = (uint32_t)(cau_parameter->key);
 352              		.loc 1 110 51
 353 0014 8327C4F5 		lw	a5,-164(s0)
 354 0018 DC43     		lw	a5,4(a5)
 355              		.loc 1 110 14
 356 001a 2324F4FE 		sw	a5,-24(s0)
 111:../Firmware/GD32VW55x_standard_peripheral/Source/gd32vw55x_cau_tdes.c ****     uint32_t inputaddr  = (uint32_t)(cau_parameter->input);
 357              		.loc 1 111 51
 358 001e 8327C4F5 		lw	a5,-164(s0)
 359 0022 DC4B     		lw	a5,20(a5)
 360              		.loc 1 111 14
 361 0024 2322F4FE 		sw	a5,-28(s0)
 112:../Firmware/GD32VW55x_standard_peripheral/Source/gd32vw55x_cau_tdes.c ****     uint32_t outputaddr = (uint32_t)output;
 362              		.loc 1 112 14
 363 0028 832784F5 		lw	a5,-168(s0)
 364 002c 2320F4FE 		sw	a5,-32(s0)
 113:../Firmware/GD32VW55x_standard_peripheral/Source/gd32vw55x_cau_tdes.c ****     uint32_t ivaddr     = (uint32_t)(cau_parameter->iv);
 365              		.loc 1 113 51
 366 0030 8327C4F5 		lw	a5,-164(s0)
 367 0034 DC47     		lw	a5,12(a5)
 368              		.loc 1 113 14
 369 0036 232EF4FC 		sw	a5,-36(s0)
 114:../Firmware/GD32VW55x_standard_peripheral/Source/gd32vw55x_cau_tdes.c **** 
 115:../Firmware/GD32VW55x_standard_peripheral/Source/gd32vw55x_cau_tdes.c ****     /* key structure initialization */
 116:../Firmware/GD32VW55x_standard_peripheral/Source/gd32vw55x_cau_tdes.c ****     cau_key_struct_para_init(&key_initpara);
 370              		.loc 1 116 5
 371 003a 9307C4F7 		addi	a5,s0,-132
 372 003e 3E85     		mv	a0,a5
 373 0040 97000000 		call	cau_key_struct_para_init
 373      E7800000 
 117:../Firmware/GD32VW55x_standard_peripheral/Source/gd32vw55x_cau_tdes.c ****     /* initialize the CAU peripheral */
 118:../Firmware/GD32VW55x_standard_peripheral/Source/gd32vw55x_cau_tdes.c ****     cau_init(cau_parameter->alg_dir, CAU_MODE_TDES_CBC, CAU_SWAPPING_8BIT);
 374              		.loc 1 118 5
 375 0048 8327C4F5 		lw	a5,-164(s0)
 376 004c 9C43     		lw	a5,0(a5)
 377 004e 13060008 		li	a2,128
 378 0052 A145     		li	a1,8
 379 0054 3E85     		mv	a0,a5
 380 0056 97000000 		call	cau_init
 380      E7800000 
 119:../Firmware/GD32VW55x_standard_peripheral/Source/gd32vw55x_cau_tdes.c **** 
 120:../Firmware/GD32VW55x_standard_peripheral/Source/gd32vw55x_cau_tdes.c ****     /* key initialization */
 121:../Firmware/GD32VW55x_standard_peripheral/Source/gd32vw55x_cau_tdes.c ****     key_initpara.key_1_high = __REV(*(uint32_t *)(keyaddr));
 381              		.loc 1 121 38
 382 005e 832784FE 		lw	a5,-24(s0)
 383              		.loc 1 121 31
 384 0062 9C43     		lw	a5,0(a5)
 385 0064 2320F4FA 		sw	a5,-96(s0)
 386              	.LBB42:
 387              	.LBB43:
 124:../Firmware/RISCV/drivers/core_compatiable.h ****         | ((value & 0x00ff0000) >> 8 )
 388              		.loc 2 124 37
 389 0068 832704FA 		lw	a5,-96(s0)
 390 006c 13D78701 		srli	a4,a5,24
 125:../Firmware/RISCV/drivers/core_compatiable.h ****         | ((value & 0x0000ff00) << 8 )
 391              		.loc 2 125 33
 392 0070 832704FA 		lw	a5,-96(s0)
 393 0074 93D68700 		srli	a3,a5,8
 394 0078 C167     		li	a5,65536
 395 007a 938707F0 		addi	a5,a5,-256
 396 007e F58F     		and	a5,a3,a5
 125:../Firmware/RISCV/drivers/core_compatiable.h ****         | ((value & 0x0000ff00) << 8 )
 397              		.loc 2 125 9
 398 0080 5D8F     		or	a4,a4,a5
 126:../Firmware/RISCV/drivers/core_compatiable.h ****         | ((value & 0x000000ff) << 24);
 399              		.loc 2 126 33
 400 0082 832704FA 		lw	a5,-96(s0)
 401 0086 93968700 		slli	a3,a5,8
 402 008a B707FF00 		li	a5,16711680
 403 008e F58F     		and	a5,a3,a5
 126:../Firmware/RISCV/drivers/core_compatiable.h ****         | ((value & 0x000000ff) << 24);
 404              		.loc 2 126 9
 405 0090 5D8F     		or	a4,a4,a5
 127:../Firmware/RISCV/drivers/core_compatiable.h ****     return result;
 406              		.loc 2 127 33
 407 0092 832704FA 		lw	a5,-96(s0)
 408 0096 E207     		slli	a5,a5,24
 124:../Firmware/RISCV/drivers/core_compatiable.h ****         | ((value & 0x00ff0000) >> 8 )
 409              		.loc 2 124 12
 410 0098 D98F     		or	a5,a4,a5
 411 009a 232EF4F8 		sw	a5,-100(s0)
 412              		.loc 2 128 12
 413 009e 8327C4F9 		lw	a5,-100(s0)
 414              	.LBE43:
 415              	.LBE42:
 416              		.loc 1 121 29
 417 00a2 2322F4F8 		sw	a5,-124(s0)
 122:../Firmware/GD32VW55x_standard_peripheral/Source/gd32vw55x_cau_tdes.c ****     keyaddr += 4U;
 418              		.loc 1 122 13
 419 00a6 832784FE 		lw	a5,-24(s0)
 420 00aa 9107     		addi	a5,a5,4
 421 00ac 2324F4FE 		sw	a5,-24(s0)
 123:../Firmware/GD32VW55x_standard_peripheral/Source/gd32vw55x_cau_tdes.c ****     key_initpara.key_1_low  = __REV(*(uint32_t *)(keyaddr));
 422              		.loc 1 123 38
 423 00b0 832784FE 		lw	a5,-24(s0)
 424              		.loc 1 123 31
 425 00b4 9C43     		lw	a5,0(a5)
 426 00b6 2324F4FA 		sw	a5,-88(s0)
 427              	.LBB44:
 428              	.LBB45:
 124:../Firmware/RISCV/drivers/core_compatiable.h ****         | ((value & 0x00ff0000) >> 8 )
 429              		.loc 2 124 37
 430 00ba 832784FA 		lw	a5,-88(s0)
 431 00be 13D78701 		srli	a4,a5,24
 125:../Firmware/RISCV/drivers/core_compatiable.h ****         | ((value & 0x0000ff00) << 8 )
 432              		.loc 2 125 33
 433 00c2 832784FA 		lw	a5,-88(s0)
 434 00c6 93D68700 		srli	a3,a5,8
 435 00ca C167     		li	a5,65536
 436 00cc 938707F0 		addi	a5,a5,-256
 437 00d0 F58F     		and	a5,a3,a5
 125:../Firmware/RISCV/drivers/core_compatiable.h ****         | ((value & 0x0000ff00) << 8 )
 438              		.loc 2 125 9
 439 00d2 5D8F     		or	a4,a4,a5
 126:../Firmware/RISCV/drivers/core_compatiable.h ****         | ((value & 0x000000ff) << 24);
 440              		.loc 2 126 33
 441 00d4 832784FA 		lw	a5,-88(s0)
 442 00d8 93968700 		slli	a3,a5,8
 443 00dc B707FF00 		li	a5,16711680
 444 00e0 F58F     		and	a5,a3,a5
 126:../Firmware/RISCV/drivers/core_compatiable.h ****         | ((value & 0x000000ff) << 24);
 445              		.loc 2 126 9
 446 00e2 5D8F     		or	a4,a4,a5
 127:../Firmware/RISCV/drivers/core_compatiable.h ****     return result;
 447              		.loc 2 127 33
 448 00e4 832784FA 		lw	a5,-88(s0)
 449 00e8 E207     		slli	a5,a5,24
 124:../Firmware/RISCV/drivers/core_compatiable.h ****         | ((value & 0x00ff0000) >> 8 )
 450              		.loc 2 124 12
 451 00ea D98F     		or	a5,a4,a5
 452 00ec 2322F4FA 		sw	a5,-92(s0)
 453              		.loc 2 128 12
 454 00f0 832744FA 		lw	a5,-92(s0)
 455              	.LBE45:
 456              	.LBE44:
 457              		.loc 1 123 29
 458 00f4 2324F4F8 		sw	a5,-120(s0)
 124:../Firmware/GD32VW55x_standard_peripheral/Source/gd32vw55x_cau_tdes.c ****     keyaddr += 4U;
 459              		.loc 1 124 13
 460 00f8 832784FE 		lw	a5,-24(s0)
 461 00fc 9107     		addi	a5,a5,4
 462 00fe 2324F4FE 		sw	a5,-24(s0)
 125:../Firmware/GD32VW55x_standard_peripheral/Source/gd32vw55x_cau_tdes.c ****     key_initpara.key_2_high = __REV(*(uint32_t *)(keyaddr));
 463              		.loc 1 125 38
 464 0102 832784FE 		lw	a5,-24(s0)
 465              		.loc 1 125 31
 466 0106 9C43     		lw	a5,0(a5)
 467 0108 2328F4FA 		sw	a5,-80(s0)
 468              	.LBB46:
 469              	.LBB47:
 124:../Firmware/RISCV/drivers/core_compatiable.h ****         | ((value & 0x00ff0000) >> 8 )
 470              		.loc 2 124 37
 471 010c 832704FB 		lw	a5,-80(s0)
 472 0110 13D78701 		srli	a4,a5,24
 125:../Firmware/RISCV/drivers/core_compatiable.h ****         | ((value & 0x0000ff00) << 8 )
 473              		.loc 2 125 33
 474 0114 832704FB 		lw	a5,-80(s0)
 475 0118 93D68700 		srli	a3,a5,8
 476 011c C167     		li	a5,65536
 477 011e 938707F0 		addi	a5,a5,-256
 478 0122 F58F     		and	a5,a3,a5
 125:../Firmware/RISCV/drivers/core_compatiable.h ****         | ((value & 0x0000ff00) << 8 )
 479              		.loc 2 125 9
 480 0124 5D8F     		or	a4,a4,a5
 126:../Firmware/RISCV/drivers/core_compatiable.h ****         | ((value & 0x000000ff) << 24);
 481              		.loc 2 126 33
 482 0126 832704FB 		lw	a5,-80(s0)
 483 012a 93968700 		slli	a3,a5,8
 484 012e B707FF00 		li	a5,16711680
 485 0132 F58F     		and	a5,a3,a5
 126:../Firmware/RISCV/drivers/core_compatiable.h ****         | ((value & 0x000000ff) << 24);
 486              		.loc 2 126 9
 487 0134 5D8F     		or	a4,a4,a5
 127:../Firmware/RISCV/drivers/core_compatiable.h ****     return result;
 488              		.loc 2 127 33
 489 0136 832704FB 		lw	a5,-80(s0)
 490 013a E207     		slli	a5,a5,24
 124:../Firmware/RISCV/drivers/core_compatiable.h ****         | ((value & 0x00ff0000) >> 8 )
 491              		.loc 2 124 12
 492 013c D98F     		or	a5,a4,a5
 493 013e 2326F4FA 		sw	a5,-84(s0)
 494              		.loc 2 128 12
 495 0142 8327C4FA 		lw	a5,-84(s0)
 496              	.LBE47:
 497              	.LBE46:
 498              		.loc 1 125 29
 499 0146 2326F4F8 		sw	a5,-116(s0)
 126:../Firmware/GD32VW55x_standard_peripheral/Source/gd32vw55x_cau_tdes.c ****     keyaddr += 4U;
 500              		.loc 1 126 13
 501 014a 832784FE 		lw	a5,-24(s0)
 502 014e 9107     		addi	a5,a5,4
 503 0150 2324F4FE 		sw	a5,-24(s0)
 127:../Firmware/GD32VW55x_standard_peripheral/Source/gd32vw55x_cau_tdes.c ****     key_initpara.key_2_low  = __REV(*(uint32_t *)(keyaddr));
 504              		.loc 1 127 38
 505 0154 832784FE 		lw	a5,-24(s0)
 506              		.loc 1 127 31
 507 0158 9C43     		lw	a5,0(a5)
 508 015a 232CF4FA 		sw	a5,-72(s0)
 509              	.LBB48:
 510              	.LBB49:
 124:../Firmware/RISCV/drivers/core_compatiable.h ****         | ((value & 0x00ff0000) >> 8 )
 511              		.loc 2 124 37
 512 015e 832784FB 		lw	a5,-72(s0)
 513 0162 13D78701 		srli	a4,a5,24
 125:../Firmware/RISCV/drivers/core_compatiable.h ****         | ((value & 0x0000ff00) << 8 )
 514              		.loc 2 125 33
 515 0166 832784FB 		lw	a5,-72(s0)
 516 016a 93D68700 		srli	a3,a5,8
 517 016e C167     		li	a5,65536
 518 0170 938707F0 		addi	a5,a5,-256
 519 0174 F58F     		and	a5,a3,a5
 125:../Firmware/RISCV/drivers/core_compatiable.h ****         | ((value & 0x0000ff00) << 8 )
 520              		.loc 2 125 9
 521 0176 5D8F     		or	a4,a4,a5
 126:../Firmware/RISCV/drivers/core_compatiable.h ****         | ((value & 0x000000ff) << 24);
 522              		.loc 2 126 33
 523 0178 832784FB 		lw	a5,-72(s0)
 524 017c 93968700 		slli	a3,a5,8
 525 0180 B707FF00 		li	a5,16711680
 526 0184 F58F     		and	a5,a3,a5
 126:../Firmware/RISCV/drivers/core_compatiable.h ****         | ((value & 0x000000ff) << 24);
 527              		.loc 2 126 9
 528 0186 5D8F     		or	a4,a4,a5
 127:../Firmware/RISCV/drivers/core_compatiable.h ****     return result;
 529              		.loc 2 127 33
 530 0188 832784FB 		lw	a5,-72(s0)
 531 018c E207     		slli	a5,a5,24
 124:../Firmware/RISCV/drivers/core_compatiable.h ****         | ((value & 0x00ff0000) >> 8 )
 532              		.loc 2 124 12
 533 018e D98F     		or	a5,a4,a5
 534 0190 232AF4FA 		sw	a5,-76(s0)
 535              		.loc 2 128 12
 536 0194 832744FB 		lw	a5,-76(s0)
 537              	.LBE49:
 538              	.LBE48:
 539              		.loc 1 127 29
 540 0198 2328F4F8 		sw	a5,-112(s0)
 128:../Firmware/GD32VW55x_standard_peripheral/Source/gd32vw55x_cau_tdes.c ****     keyaddr += 4U;
 541              		.loc 1 128 13
 542 019c 832784FE 		lw	a5,-24(s0)
 543 01a0 9107     		addi	a5,a5,4
 544 01a2 2324F4FE 		sw	a5,-24(s0)
 129:../Firmware/GD32VW55x_standard_peripheral/Source/gd32vw55x_cau_tdes.c ****     key_initpara.key_3_high = __REV(*(uint32_t *)(keyaddr));
 545              		.loc 1 129 38
 546 01a6 832784FE 		lw	a5,-24(s0)
 547              		.loc 1 129 31
 548 01aa 9C43     		lw	a5,0(a5)
 549 01ac 2320F4FC 		sw	a5,-64(s0)
 550              	.LBB50:
 551              	.LBB51:
 124:../Firmware/RISCV/drivers/core_compatiable.h ****         | ((value & 0x00ff0000) >> 8 )
 552              		.loc 2 124 37
 553 01b0 832704FC 		lw	a5,-64(s0)
 554 01b4 13D78701 		srli	a4,a5,24
 125:../Firmware/RISCV/drivers/core_compatiable.h ****         | ((value & 0x0000ff00) << 8 )
 555              		.loc 2 125 33
 556 01b8 832704FC 		lw	a5,-64(s0)
 557 01bc 93D68700 		srli	a3,a5,8
 558 01c0 C167     		li	a5,65536
 559 01c2 938707F0 		addi	a5,a5,-256
 560 01c6 F58F     		and	a5,a3,a5
 125:../Firmware/RISCV/drivers/core_compatiable.h ****         | ((value & 0x0000ff00) << 8 )
 561              		.loc 2 125 9
 562 01c8 5D8F     		or	a4,a4,a5
 126:../Firmware/RISCV/drivers/core_compatiable.h ****         | ((value & 0x000000ff) << 24);
 563              		.loc 2 126 33
 564 01ca 832704FC 		lw	a5,-64(s0)
 565 01ce 93968700 		slli	a3,a5,8
 566 01d2 B707FF00 		li	a5,16711680
 567 01d6 F58F     		and	a5,a3,a5
 126:../Firmware/RISCV/drivers/core_compatiable.h ****         | ((value & 0x000000ff) << 24);
 568              		.loc 2 126 9
 569 01d8 5D8F     		or	a4,a4,a5
 127:../Firmware/RISCV/drivers/core_compatiable.h ****     return result;
 570              		.loc 2 127 33
 571 01da 832704FC 		lw	a5,-64(s0)
 572 01de E207     		slli	a5,a5,24
 124:../Firmware/RISCV/drivers/core_compatiable.h ****         | ((value & 0x00ff0000) >> 8 )
 573              		.loc 2 124 12
 574 01e0 D98F     		or	a5,a4,a5
 575 01e2 232EF4FA 		sw	a5,-68(s0)
 576              		.loc 2 128 12
 577 01e6 8327C4FB 		lw	a5,-68(s0)
 578              	.LBE51:
 579              	.LBE50:
 580              		.loc 1 129 29
 581 01ea 232AF4F8 		sw	a5,-108(s0)
 130:../Firmware/GD32VW55x_standard_peripheral/Source/gd32vw55x_cau_tdes.c ****     keyaddr += 4U;
 582              		.loc 1 130 13
 583 01ee 832784FE 		lw	a5,-24(s0)
 584 01f2 9107     		addi	a5,a5,4
 585 01f4 2324F4FE 		sw	a5,-24(s0)
 131:../Firmware/GD32VW55x_standard_peripheral/Source/gd32vw55x_cau_tdes.c ****     key_initpara.key_3_low  = __REV(*(uint32_t *)(keyaddr));
 586              		.loc 1 131 38
 587 01f8 832784FE 		lw	a5,-24(s0)
 588              		.loc 1 131 31
 589 01fc 9C43     		lw	a5,0(a5)
 590 01fe 2324F4FC 		sw	a5,-56(s0)
 591              	.LBB52:
 592              	.LBB53:
 124:../Firmware/RISCV/drivers/core_compatiable.h ****         | ((value & 0x00ff0000) >> 8 )
 593              		.loc 2 124 37
 594 0202 832784FC 		lw	a5,-56(s0)
 595 0206 13D78701 		srli	a4,a5,24
 125:../Firmware/RISCV/drivers/core_compatiable.h ****         | ((value & 0x0000ff00) << 8 )
 596              		.loc 2 125 33
 597 020a 832784FC 		lw	a5,-56(s0)
 598 020e 93D68700 		srli	a3,a5,8
 599 0212 C167     		li	a5,65536
 600 0214 938707F0 		addi	a5,a5,-256
 601 0218 F58F     		and	a5,a3,a5
 125:../Firmware/RISCV/drivers/core_compatiable.h ****         | ((value & 0x0000ff00) << 8 )
 602              		.loc 2 125 9
 603 021a 5D8F     		or	a4,a4,a5
 126:../Firmware/RISCV/drivers/core_compatiable.h ****         | ((value & 0x000000ff) << 24);
 604              		.loc 2 126 33
 605 021c 832784FC 		lw	a5,-56(s0)
 606 0220 93968700 		slli	a3,a5,8
 607 0224 B707FF00 		li	a5,16711680
 608 0228 F58F     		and	a5,a3,a5
 126:../Firmware/RISCV/drivers/core_compatiable.h ****         | ((value & 0x000000ff) << 24);
 609              		.loc 2 126 9
 610 022a 5D8F     		or	a4,a4,a5
 127:../Firmware/RISCV/drivers/core_compatiable.h ****     return result;
 611              		.loc 2 127 33
 612 022c 832784FC 		lw	a5,-56(s0)
 613 0230 E207     		slli	a5,a5,24
 124:../Firmware/RISCV/drivers/core_compatiable.h ****         | ((value & 0x00ff0000) >> 8 )
 614              		.loc 2 124 12
 615 0232 D98F     		or	a5,a4,a5
 616 0234 2322F4FC 		sw	a5,-60(s0)
 617              		.loc 2 128 12
 618 0238 832744FC 		lw	a5,-60(s0)
 619              	.LBE53:
 620              	.LBE52:
 621              		.loc 1 131 29
 622 023c 232CF4F8 		sw	a5,-104(s0)
 132:../Firmware/GD32VW55x_standard_peripheral/Source/gd32vw55x_cau_tdes.c ****     cau_key_init(&key_initpara);
 623              		.loc 1 132 5
 624 0240 9307C4F7 		addi	a5,s0,-132
 625 0244 3E85     		mv	a0,a5
 626 0246 97000000 		call	cau_key_init
 626      E7800000 
 133:../Firmware/GD32VW55x_standard_peripheral/Source/gd32vw55x_cau_tdes.c **** 
 134:../Firmware/GD32VW55x_standard_peripheral/Source/gd32vw55x_cau_tdes.c ****     /* vectors initialization */
 135:../Firmware/GD32VW55x_standard_peripheral/Source/gd32vw55x_cau_tdes.c ****     iv_initpara.iv_0_high = __REV(*(uint32_t *)(ivaddr));
 627              		.loc 1 135 36
 628 024e 8327C4FD 		lw	a5,-36(s0)
 629              		.loc 1 135 29
 630 0252 9C43     		lw	a5,0(a5)
 631 0254 2328F4FC 		sw	a5,-48(s0)
 632              	.LBB54:
 633              	.LBB55:
 124:../Firmware/RISCV/drivers/core_compatiable.h ****         | ((value & 0x00ff0000) >> 8 )
 634              		.loc 2 124 37
 635 0258 832704FD 		lw	a5,-48(s0)
 636 025c 13D78701 		srli	a4,a5,24
 125:../Firmware/RISCV/drivers/core_compatiable.h ****         | ((value & 0x0000ff00) << 8 )
 637              		.loc 2 125 33
 638 0260 832704FD 		lw	a5,-48(s0)
 639 0264 93D68700 		srli	a3,a5,8
 640 0268 C167     		li	a5,65536
 641 026a 938707F0 		addi	a5,a5,-256
 642 026e F58F     		and	a5,a3,a5
 125:../Firmware/RISCV/drivers/core_compatiable.h ****         | ((value & 0x0000ff00) << 8 )
 643              		.loc 2 125 9
 644 0270 5D8F     		or	a4,a4,a5
 126:../Firmware/RISCV/drivers/core_compatiable.h ****         | ((value & 0x000000ff) << 24);
 645              		.loc 2 126 33
 646 0272 832704FD 		lw	a5,-48(s0)
 647 0276 93968700 		slli	a3,a5,8
 648 027a B707FF00 		li	a5,16711680
 649 027e F58F     		and	a5,a3,a5
 126:../Firmware/RISCV/drivers/core_compatiable.h ****         | ((value & 0x000000ff) << 24);
 650              		.loc 2 126 9
 651 0280 5D8F     		or	a4,a4,a5
 127:../Firmware/RISCV/drivers/core_compatiable.h ****     return result;
 652              		.loc 2 127 33
 653 0282 832704FD 		lw	a5,-48(s0)
 654 0286 E207     		slli	a5,a5,24
 124:../Firmware/RISCV/drivers/core_compatiable.h ****         | ((value & 0x00ff0000) >> 8 )
 655              		.loc 2 124 12
 656 0288 D98F     		or	a5,a4,a5
 657 028a 2326F4FC 		sw	a5,-52(s0)
 658              		.loc 2 128 12
 659 028e 8327C4FC 		lw	a5,-52(s0)
 660              	.LBE55:
 661              	.LBE54:
 662              		.loc 1 135 27
 663 0292 2326F4F6 		sw	a5,-148(s0)
 136:../Firmware/GD32VW55x_standard_peripheral/Source/gd32vw55x_cau_tdes.c ****     ivaddr += 4U;
 664              		.loc 1 136 12
 665 0296 8327C4FD 		lw	a5,-36(s0)
 666 029a 9107     		addi	a5,a5,4
 667 029c 232EF4FC 		sw	a5,-36(s0)
 137:../Firmware/GD32VW55x_standard_peripheral/Source/gd32vw55x_cau_tdes.c ****     iv_initpara.iv_0_low  = __REV(*(uint32_t *)(ivaddr));
 668              		.loc 1 137 36
 669 02a0 8327C4FD 		lw	a5,-36(s0)
 670              		.loc 1 137 29
 671 02a4 9C43     		lw	a5,0(a5)
 672 02a6 232CF4FC 		sw	a5,-40(s0)
 673              	.LBB56:
 674              	.LBB57:
 124:../Firmware/RISCV/drivers/core_compatiable.h ****         | ((value & 0x00ff0000) >> 8 )
 675              		.loc 2 124 37
 676 02aa 832784FD 		lw	a5,-40(s0)
 677 02ae 13D78701 		srli	a4,a5,24
 125:../Firmware/RISCV/drivers/core_compatiable.h ****         | ((value & 0x0000ff00) << 8 )
 678              		.loc 2 125 33
 679 02b2 832784FD 		lw	a5,-40(s0)
 680 02b6 93D68700 		srli	a3,a5,8
 681 02ba C167     		li	a5,65536
 682 02bc 938707F0 		addi	a5,a5,-256
 683 02c0 F58F     		and	a5,a3,a5
 125:../Firmware/RISCV/drivers/core_compatiable.h ****         | ((value & 0x0000ff00) << 8 )
 684              		.loc 2 125 9
 685 02c2 5D8F     		or	a4,a4,a5
 126:../Firmware/RISCV/drivers/core_compatiable.h ****         | ((value & 0x000000ff) << 24);
 686              		.loc 2 126 33
 687 02c4 832784FD 		lw	a5,-40(s0)
 688 02c8 93968700 		slli	a3,a5,8
 689 02cc B707FF00 		li	a5,16711680
 690 02d0 F58F     		and	a5,a3,a5
 126:../Firmware/RISCV/drivers/core_compatiable.h ****         | ((value & 0x000000ff) << 24);
 691              		.loc 2 126 9
 692 02d2 5D8F     		or	a4,a4,a5
 127:../Firmware/RISCV/drivers/core_compatiable.h ****     return result;
 693              		.loc 2 127 33
 694 02d4 832784FD 		lw	a5,-40(s0)
 695 02d8 E207     		slli	a5,a5,24
 124:../Firmware/RISCV/drivers/core_compatiable.h ****         | ((value & 0x00ff0000) >> 8 )
 696              		.loc 2 124 12
 697 02da D98F     		or	a5,a4,a5
 698 02dc 232AF4FC 		sw	a5,-44(s0)
 699              		.loc 2 128 12
 700 02e0 832744FD 		lw	a5,-44(s0)
 701              	.LBE57:
 702              	.LBE56:
 703              		.loc 1 137 27
 704 02e4 2328F4F6 		sw	a5,-144(s0)
 138:../Firmware/GD32VW55x_standard_peripheral/Source/gd32vw55x_cau_tdes.c ****     cau_iv_init(&iv_initpara);
 705              		.loc 1 138 5
 706 02e8 9307C4F6 		addi	a5,s0,-148
 707 02ec 3E85     		mv	a0,a5
 708 02ee 97000000 		call	cau_iv_init
 708      E7800000 
 139:../Firmware/GD32VW55x_standard_peripheral/Source/gd32vw55x_cau_tdes.c **** 
 140:../Firmware/GD32VW55x_standard_peripheral/Source/gd32vw55x_cau_tdes.c ****     /* flush the IN and OUT FIFOs */
 141:../Firmware/GD32VW55x_standard_peripheral/Source/gd32vw55x_cau_tdes.c ****     cau_fifo_flush();
 709              		.loc 1 141 5
 710 02f6 97000000 		call	cau_fifo_flush
 710      E7800000 
 142:../Firmware/GD32VW55x_standard_peripheral/Source/gd32vw55x_cau_tdes.c ****     /* enable the CAU peripheral */
 143:../Firmware/GD32VW55x_standard_peripheral/Source/gd32vw55x_cau_tdes.c ****     cau_enable();
 711              		.loc 1 143 5
 712 02fe 97000000 		call	cau_enable
 712      E7800000 
 144:../Firmware/GD32VW55x_standard_peripheral/Source/gd32vw55x_cau_tdes.c ****     /* TDES calculate process */
 145:../Firmware/GD32VW55x_standard_peripheral/Source/gd32vw55x_cau_tdes.c ****     ret = cau_tdes_calculate((uint8_t *)inputaddr, cau_parameter->in_length, (uint8_t *)outputaddr)
 713              		.loc 1 145 11
 714 0306 032744FE 		lw	a4,-28(s0)
 715 030a 8327C4F5 		lw	a5,-164(s0)
 716 030e 9C4F     		lw	a5,24(a5)
 717 0310 832604FE 		lw	a3,-32(s0)
 718 0314 3686     		mv	a2,a3
 719 0316 BE85     		mv	a1,a5
 720 0318 3A85     		mv	a0,a4
 721 031a 97000000 		call	cau_tdes_calculate
 721      E7800000 
 722 0322 2326A4FE 		sw	a0,-20(s0)
 146:../Firmware/GD32VW55x_standard_peripheral/Source/gd32vw55x_cau_tdes.c ****     /* disable the CAU peripheral */
 147:../Firmware/GD32VW55x_standard_peripheral/Source/gd32vw55x_cau_tdes.c ****     cau_disable();
 723              		.loc 1 147 5
 724 0326 97000000 		call	cau_disable
 724      E7800000 
 148:../Firmware/GD32VW55x_standard_peripheral/Source/gd32vw55x_cau_tdes.c **** 
 149:../Firmware/GD32VW55x_standard_peripheral/Source/gd32vw55x_cau_tdes.c ****     return ret;
 725              		.loc 1 149 12
 726 032e 8327C4FE 		lw	a5,-20(s0)
 150:../Firmware/GD32VW55x_standard_peripheral/Source/gd32vw55x_cau_tdes.c **** }
 727              		.loc 1 150 1
 728 0332 3E85     		mv	a0,a5
 729 0334 BA50     		lw	ra,172(sp)
 730              		.cfi_restore 1
 731 0336 2A54     		lw	s0,168(sp)
 732              		.cfi_restore 8
 733              		.cfi_def_cfa 2, 176
 734 0338 4D61     		addi	sp,sp,176
 735              		.cfi_def_cfa_offset 0
 736 033a 8280     		jr	ra
 737              		.cfi_endproc
 738              	.LFE348:
 740              		.section	.text.cau_tdes_calculate,"ax",@progbits
 741              		.align	1
 743              	cau_tdes_calculate:
 744              	.LFB349:
 151:../Firmware/GD32VW55x_standard_peripheral/Source/gd32vw55x_cau_tdes.c **** 
 152:../Firmware/GD32VW55x_standard_peripheral/Source/gd32vw55x_cau_tdes.c **** /*!
 153:../Firmware/GD32VW55x_standard_peripheral/Source/gd32vw55x_cau_tdes.c ****     \brief      TDES calculate process
 154:../Firmware/GD32VW55x_standard_peripheral/Source/gd32vw55x_cau_tdes.c ****     \param[in]  input: pointer to the input buffer
 155:../Firmware/GD32VW55x_standard_peripheral/Source/gd32vw55x_cau_tdes.c ****     \param[in]  in_length: length of the input buffer in bytes, must be a multiple of 8 bytes
 156:../Firmware/GD32VW55x_standard_peripheral/Source/gd32vw55x_cau_tdes.c ****     \param[out] output: pointer to the returned buffer
 157:../Firmware/GD32VW55x_standard_peripheral/Source/gd32vw55x_cau_tdes.c ****     \retval     ErrStatus: SUCCESS or ERROR
 158:../Firmware/GD32VW55x_standard_peripheral/Source/gd32vw55x_cau_tdes.c **** */
 159:../Firmware/GD32VW55x_standard_peripheral/Source/gd32vw55x_cau_tdes.c **** static ErrStatus cau_tdes_calculate(uint8_t *input, uint32_t in_length, uint8_t *output)
 160:../Firmware/GD32VW55x_standard_peripheral/Source/gd32vw55x_cau_tdes.c **** {
 745              		.loc 1 160 1
 746              		.cfi_startproc
 747 0000 3971     		addi	sp,sp,-64
 748              		.cfi_def_cfa_offset 64
 749 0002 06DE     		sw	ra,60(sp)
 750 0004 22DC     		sw	s0,56(sp)
 751 0006 26DA     		sw	s1,52(sp)
 752              		.cfi_offset 1, -4
 753              		.cfi_offset 8, -8
 754              		.cfi_offset 9, -12
 755 0008 8000     		addi	s0,sp,64
 756              		.cfi_def_cfa 8, 0
 757 000a 2326A4FC 		sw	a0,-52(s0)
 758 000e 2324B4FC 		sw	a1,-56(s0)
 759 0012 2322C4FC 		sw	a2,-60(s0)
 161:../Firmware/GD32VW55x_standard_peripheral/Source/gd32vw55x_cau_tdes.c ****     uint32_t inputaddr  = (uint32_t)input;
 760              		.loc 1 161 14
 761 0016 8327C4FC 		lw	a5,-52(s0)
 762 001a 2326F4FE 		sw	a5,-20(s0)
 162:../Firmware/GD32VW55x_standard_peripheral/Source/gd32vw55x_cau_tdes.c ****     uint32_t outputaddr = (uint32_t)output;
 763              		.loc 1 162 14
 764 001e 832744FC 		lw	a5,-60(s0)
 765 0022 2324F4FE 		sw	a5,-24(s0)
 163:../Firmware/GD32VW55x_standard_peripheral/Source/gd32vw55x_cau_tdes.c ****     uint32_t i = 0U;
 766              		.loc 1 163 14
 767 0026 232204FE 		sw	zero,-28(s0)
 164:../Firmware/GD32VW55x_standard_peripheral/Source/gd32vw55x_cau_tdes.c ****     __IO uint32_t counter = 0U;
 768              		.loc 1 164 19
 769 002a 232E04FC 		sw	zero,-36(s0)
 165:../Firmware/GD32VW55x_standard_peripheral/Source/gd32vw55x_cau_tdes.c ****     uint32_t busystatus = 0U;
 770              		.loc 1 165 14
 771 002e 232004FE 		sw	zero,-32(s0)
 166:../Firmware/GD32VW55x_standard_peripheral/Source/gd32vw55x_cau_tdes.c **** 
 167:../Firmware/GD32VW55x_standard_peripheral/Source/gd32vw55x_cau_tdes.c ****     /* the clock is not enabled or there is no embedded CAU peripheral */
 168:../Firmware/GD32VW55x_standard_peripheral/Source/gd32vw55x_cau_tdes.c ****     if(DISABLE == cau_enable_state_get()) {
 772              		.loc 1 168 19
 773 0032 97000000 		call	cau_enable_state_get
 773      E7800000 
 774 003a AA87     		mv	a5,a0
 775              		.loc 1 168 7
 776 003c 99E3     		bne	a5,zero,.L20
 169:../Firmware/GD32VW55x_standard_peripheral/Source/gd32vw55x_cau_tdes.c ****         return ERROR;
 777              		.loc 1 169 16
 778 003e 8147     		li	a5,0
 779 0040 7DA8     		j	.L21
 780              	.L20:
 170:../Firmware/GD32VW55x_standard_peripheral/Source/gd32vw55x_cau_tdes.c ****     }
 171:../Firmware/GD32VW55x_standard_peripheral/Source/gd32vw55x_cau_tdes.c **** 
 172:../Firmware/GD32VW55x_standard_peripheral/Source/gd32vw55x_cau_tdes.c ****     for(i = 0U; i < in_length; i += 8U) {
 781              		.loc 1 172 11
 782 0042 232204FE 		sw	zero,-28(s0)
 783              		.loc 1 172 5
 784 0046 6DA0     		j	.L22
 785              	.L26:
 173:../Firmware/GD32VW55x_standard_peripheral/Source/gd32vw55x_cau_tdes.c ****         /* write data to the IN FIFO */
 174:../Firmware/GD32VW55x_standard_peripheral/Source/gd32vw55x_cau_tdes.c ****         cau_data_write(*(uint32_t *)(inputaddr));
 786              		.loc 1 174 25
 787 0048 8327C4FE 		lw	a5,-20(s0)
 788              		.loc 1 174 9
 789 004c 9C43     		lw	a5,0(a5)
 790 004e 3E85     		mv	a0,a5
 791 0050 97000000 		call	cau_data_write
 791      E7800000 
 175:../Firmware/GD32VW55x_standard_peripheral/Source/gd32vw55x_cau_tdes.c ****         inputaddr += 4U;
 792              		.loc 1 175 19
 793 0058 8327C4FE 		lw	a5,-20(s0)
 794 005c 9107     		addi	a5,a5,4
 795 005e 2326F4FE 		sw	a5,-20(s0)
 176:../Firmware/GD32VW55x_standard_peripheral/Source/gd32vw55x_cau_tdes.c ****         cau_data_write(*(uint32_t *)(inputaddr));
 796              		.loc 1 176 25
 797 0062 8327C4FE 		lw	a5,-20(s0)
 798              		.loc 1 176 9
 799 0066 9C43     		lw	a5,0(a5)
 800 0068 3E85     		mv	a0,a5
 801 006a 97000000 		call	cau_data_write
 801      E7800000 
 177:../Firmware/GD32VW55x_standard_peripheral/Source/gd32vw55x_cau_tdes.c ****         inputaddr += 4U;
 802              		.loc 1 177 19
 803 0072 8327C4FE 		lw	a5,-20(s0)
 804 0076 9107     		addi	a5,a5,4
 805 0078 2326F4FE 		sw	a5,-20(s0)
 178:../Firmware/GD32VW55x_standard_peripheral/Source/gd32vw55x_cau_tdes.c **** 
 179:../Firmware/GD32VW55x_standard_peripheral/Source/gd32vw55x_cau_tdes.c ****         /* wait until the complete message has been processed */
 180:../Firmware/GD32VW55x_standard_peripheral/Source/gd32vw55x_cau_tdes.c ****         counter = 0U;
 806              		.loc 1 180 17
 807 007c 232E04FC 		sw	zero,-36(s0)
 808              	.L24:
 181:../Firmware/GD32VW55x_standard_peripheral/Source/gd32vw55x_cau_tdes.c ****         do {
 182:../Firmware/GD32VW55x_standard_peripheral/Source/gd32vw55x_cau_tdes.c ****             busystatus = cau_flag_get(CAU_FLAG_BUSY);
 809              		.loc 1 182 26 discriminator 2
 810 0080 4145     		li	a0,16
 811 0082 97000000 		call	cau_flag_get
 811      E7800000 
 812 008a 2320A4FE 		sw	a0,-32(s0)
 183:../Firmware/GD32VW55x_standard_peripheral/Source/gd32vw55x_cau_tdes.c ****             counter++;
 813              		.loc 1 183 20 discriminator 2
 814 008e 8327C4FD 		lw	a5,-36(s0)
 815 0092 8507     		addi	a5,a5,1
 816 0094 232EF4FC 		sw	a5,-36(s0)
 184:../Firmware/GD32VW55x_standard_peripheral/Source/gd32vw55x_cau_tdes.c ****         } while((TDESBSY_TIMEOUT != counter) && (RESET != busystatus));
 817              		.loc 1 184 34 discriminator 2
 818 0098 0327C4FD 		lw	a4,-36(s0)
 819              		.loc 1 184 9 discriminator 2
 820 009c C167     		li	a5,65536
 821 009e 6305F700 		beq	a4,a5,.L23
 822              		.loc 1 184 46 discriminator 1
 823 00a2 832704FE 		lw	a5,-32(s0)
 824 00a6 E9FF     		bne	a5,zero,.L24
 825              	.L23:
 185:../Firmware/GD32VW55x_standard_peripheral/Source/gd32vw55x_cau_tdes.c **** 
 186:../Firmware/GD32VW55x_standard_peripheral/Source/gd32vw55x_cau_tdes.c ****         if(RESET != busystatus) {
 826              		.loc 1 186 11
 827 00a8 832704FE 		lw	a5,-32(s0)
 828 00ac 99C3     		beq	a5,zero,.L25
 187:../Firmware/GD32VW55x_standard_peripheral/Source/gd32vw55x_cau_tdes.c ****             return ERROR;
 829              		.loc 1 187 20
 830 00ae 8147     		li	a5,0
 831 00b0 B9A0     		j	.L21
 832              	.L25:
 188:../Firmware/GD32VW55x_standard_peripheral/Source/gd32vw55x_cau_tdes.c ****         } else {
 189:../Firmware/GD32VW55x_standard_peripheral/Source/gd32vw55x_cau_tdes.c ****             /* read the output block from the output FIFO */
 190:../Firmware/GD32VW55x_standard_peripheral/Source/gd32vw55x_cau_tdes.c ****             *(uint32_t *)(outputaddr) = cau_data_read();
 833              		.loc 1 190 14 discriminator 2
 834 00b2 832484FE 		lw	s1,-24(s0)
 835              		.loc 1 190 41 discriminator 2
 836 00b6 97000000 		call	cau_data_read
 836      E7800000 
 837 00be AA87     		mv	a5,a0
 838              		.loc 1 190 39 discriminator 2
 839 00c0 9CC0     		sw	a5,0(s1)
 191:../Firmware/GD32VW55x_standard_peripheral/Source/gd32vw55x_cau_tdes.c ****             outputaddr += 4U;
 840              		.loc 1 191 24 discriminator 2
 841 00c2 832784FE 		lw	a5,-24(s0)
 842 00c6 9107     		addi	a5,a5,4
 843 00c8 2324F4FE 		sw	a5,-24(s0)
 192:../Firmware/GD32VW55x_standard_peripheral/Source/gd32vw55x_cau_tdes.c ****             *(uint32_t *)(outputaddr) = cau_data_read();
 844              		.loc 1 192 14 discriminator 2
 845 00cc 832484FE 		lw	s1,-24(s0)
 846              		.loc 1 192 41 discriminator 2
 847 00d0 97000000 		call	cau_data_read
 847      E7800000 
 848 00d8 AA87     		mv	a5,a0
 849              		.loc 1 192 39 discriminator 2
 850 00da 9CC0     		sw	a5,0(s1)
 193:../Firmware/GD32VW55x_standard_peripheral/Source/gd32vw55x_cau_tdes.c ****             outputaddr += 4U;
 851              		.loc 1 193 24 discriminator 2
 852 00dc 832784FE 		lw	a5,-24(s0)
 853 00e0 9107     		addi	a5,a5,4
 854 00e2 2324F4FE 		sw	a5,-24(s0)
 172:../Firmware/GD32VW55x_standard_peripheral/Source/gd32vw55x_cau_tdes.c ****         /* write data to the IN FIFO */
 855              		.loc 1 172 34 discriminator 2
 856 00e6 832744FE 		lw	a5,-28(s0)
 857 00ea A107     		addi	a5,a5,8
 858 00ec 2322F4FE 		sw	a5,-28(s0)
 859              	.L22:
 172:../Firmware/GD32VW55x_standard_peripheral/Source/gd32vw55x_cau_tdes.c ****         /* write data to the IN FIFO */
 860              		.loc 1 172 5 discriminator 1
 861 00f0 032744FE 		lw	a4,-28(s0)
 862 00f4 832784FC 		lw	a5,-56(s0)
 863 00f8 E368F7F4 		bltu	a4,a5,.L26
 194:../Firmware/GD32VW55x_standard_peripheral/Source/gd32vw55x_cau_tdes.c ****         }
 195:../Firmware/GD32VW55x_standard_peripheral/Source/gd32vw55x_cau_tdes.c ****     }
 196:../Firmware/GD32VW55x_standard_peripheral/Source/gd32vw55x_cau_tdes.c **** 
 197:../Firmware/GD32VW55x_standard_peripheral/Source/gd32vw55x_cau_tdes.c ****     return SUCCESS;
 864              		.loc 1 197 12
 865 00fc 8547     		li	a5,1
 866              	.L21:
 198:../Firmware/GD32VW55x_standard_peripheral/Source/gd32vw55x_cau_tdes.c **** }
 867              		.loc 1 198 1
 868 00fe 3E85     		mv	a0,a5
 869 0100 F250     		lw	ra,60(sp)
 870              		.cfi_restore 1
 871 0102 6254     		lw	s0,56(sp)
 872              		.cfi_restore 8
 873              		.cfi_def_cfa 2, 64
 874 0104 D254     		lw	s1,52(sp)
 875              		.cfi_restore 9
 876 0106 2161     		addi	sp,sp,64
 877              		.cfi_def_cfa_offset 0
 878 0108 8280     		jr	ra
 879              		.cfi_endproc
 880              	.LFE349:
 882              		.text
 883              	.Letext0:
 884              		.file 3 "e:\\gd32\\gd32embeddedbuilder_v1.5.2.30854\\tools\\nuclei_riscv_newlibc_prebuilt_win32_20
 885              		.file 4 "e:\\gd32\\gd32embeddedbuilder_v1.5.2.30854\\tools\\nuclei_riscv_newlibc_prebuilt_win32_20
 886              		.file 5 "../Firmware/GD32VW55x_standard_peripheral/gd32vw55x.h"
 887              		.file 6 "../Firmware/GD32VW55x_standard_peripheral/Include/gd32vw55x_cau.h"
DEFINED SYMBOLS
                            *ABS*:0000000000000000 gd32vw55x_cau_tdes.c
C:\Users\CYMR90~1\AppData\Local\Temp\cchaIJlx.s:13     .text.cau_tdes_ecb:0000000000000000 cau_tdes_ecb
C:\Users\CYMR90~1\AppData\Local\Temp\cchaIJlx.s:17     .text.cau_tdes_ecb:0000000000000000 .L0 
C:\Users\CYMR90~1\AppData\Local\Temp\cchaIJlx.s:18     .text.cau_tdes_ecb:0000000000000000 .L0 
C:\Users\CYMR90~1\AppData\Local\Temp\cchaIJlx.s:19     .text.cau_tdes_ecb:0000000000000002 .L0 
C:\Users\CYMR90~1\AppData\Local\Temp\cchaIJlx.s:22     .text.cau_tdes_ecb:0000000000000006 .L0 
C:\Users\CYMR90~1\AppData\Local\Temp\cchaIJlx.s:23     .text.cau_tdes_ecb:0000000000000006 .L0 
C:\Users\CYMR90~1\AppData\Local\Temp\cchaIJlx.s:25     .text.cau_tdes_ecb:0000000000000008 .L0 
C:\Users\CYMR90~1\AppData\Local\Temp\cchaIJlx.s:29     .text.cau_tdes_ecb:0000000000000010 .L0 
C:\Users\CYMR90~1\AppData\Local\Temp\cchaIJlx.s:31     .text.cau_tdes_ecb:0000000000000014 .L0 
C:\Users\CYMR90~1\AppData\Local\Temp\cchaIJlx.s:34     .text.cau_tdes_ecb:000000000000001a .L0 
C:\Users\CYMR90~1\AppData\Local\Temp\cchaIJlx.s:36     .text.cau_tdes_ecb:000000000000001e .L0 
C:\Users\CYMR90~1\AppData\Local\Temp\cchaIJlx.s:39     .text.cau_tdes_ecb:0000000000000024 .L0 
C:\Users\CYMR90~1\AppData\Local\Temp\cchaIJlx.s:41     .text.cau_tdes_ecb:0000000000000028 .L0 
C:\Users\CYMR90~1\AppData\Local\Temp\cchaIJlx.s:44     .text.cau_tdes_ecb:0000000000000030 .L0 
C:\Users\CYMR90~1\AppData\Local\Temp\cchaIJlx.s:48     .text.cau_tdes_ecb:000000000000003e .L0 
C:\Users\CYMR90~1\AppData\Local\Temp\cchaIJlx.s:55     .text.cau_tdes_ecb:0000000000000054 .L0 
C:\Users\CYMR90~1\AppData\Local\Temp\cchaIJlx.s:57     .text.cau_tdes_ecb:0000000000000058 .L0 
C:\Users\CYMR90~1\AppData\Local\Temp\cchaIJlx.s:63     .text.cau_tdes_ecb:000000000000005e .L0 
C:\Users\CYMR90~1\AppData\Local\Temp\cchaIJlx.s:66     .text.cau_tdes_ecb:0000000000000066 .L0 
C:\Users\CYMR90~1\AppData\Local\Temp\cchaIJlx.s:72     .text.cau_tdes_ecb:0000000000000076 .L0 
C:\Users\CYMR90~1\AppData\Local\Temp\cchaIJlx.s:74     .text.cau_tdes_ecb:0000000000000078 .L0 
C:\Users\CYMR90~1\AppData\Local\Temp\cchaIJlx.s:79     .text.cau_tdes_ecb:0000000000000086 .L0 
C:\Users\CYMR90~1\AppData\Local\Temp\cchaIJlx.s:81     .text.cau_tdes_ecb:0000000000000088 .L0 
C:\Users\CYMR90~1\AppData\Local\Temp\cchaIJlx.s:84     .text.cau_tdes_ecb:000000000000008e .L0 
C:\Users\CYMR90~1\AppData\Local\Temp\cchaIJlx.s:87     .text.cau_tdes_ecb:0000000000000094 .L0 
C:\Users\CYMR90~1\AppData\Local\Temp\cchaIJlx.s:91     .text.cau_tdes_ecb:0000000000000098 .L0 
C:\Users\CYMR90~1\AppData\Local\Temp\cchaIJlx.s:93     .text.cau_tdes_ecb:000000000000009c .L0 
C:\Users\CYMR90~1\AppData\Local\Temp\cchaIJlx.s:97     .text.cau_tdes_ecb:00000000000000a6 .L0 
C:\Users\CYMR90~1\AppData\Local\Temp\cchaIJlx.s:99     .text.cau_tdes_ecb:00000000000000aa .L0 
C:\Users\CYMR90~1\AppData\Local\Temp\cchaIJlx.s:104    .text.cau_tdes_ecb:00000000000000b0 .L0 
C:\Users\CYMR90~1\AppData\Local\Temp\cchaIJlx.s:107    .text.cau_tdes_ecb:00000000000000b8 .L0 
C:\Users\CYMR90~1\AppData\Local\Temp\cchaIJlx.s:113    .text.cau_tdes_ecb:00000000000000c8 .L0 
C:\Users\CYMR90~1\AppData\Local\Temp\cchaIJlx.s:115    .text.cau_tdes_ecb:00000000000000ca .L0 
C:\Users\CYMR90~1\AppData\Local\Temp\cchaIJlx.s:120    .text.cau_tdes_ecb:00000000000000d8 .L0 
C:\Users\CYMR90~1\AppData\Local\Temp\cchaIJlx.s:122    .text.cau_tdes_ecb:00000000000000da .L0 
C:\Users\CYMR90~1\AppData\Local\Temp\cchaIJlx.s:125    .text.cau_tdes_ecb:00000000000000e0 .L0 
C:\Users\CYMR90~1\AppData\Local\Temp\cchaIJlx.s:128    .text.cau_tdes_ecb:00000000000000e6 .L0 
C:\Users\CYMR90~1\AppData\Local\Temp\cchaIJlx.s:132    .text.cau_tdes_ecb:00000000000000ea .L0 
C:\Users\CYMR90~1\AppData\Local\Temp\cchaIJlx.s:134    .text.cau_tdes_ecb:00000000000000ee .L0 
C:\Users\CYMR90~1\AppData\Local\Temp\cchaIJlx.s:138    .text.cau_tdes_ecb:00000000000000f8 .L0 
C:\Users\CYMR90~1\AppData\Local\Temp\cchaIJlx.s:140    .text.cau_tdes_ecb:00000000000000fc .L0 
C:\Users\CYMR90~1\AppData\Local\Temp\cchaIJlx.s:145    .text.cau_tdes_ecb:0000000000000102 .L0 
C:\Users\CYMR90~1\AppData\Local\Temp\cchaIJlx.s:148    .text.cau_tdes_ecb:000000000000010a .L0 
C:\Users\CYMR90~1\AppData\Local\Temp\cchaIJlx.s:154    .text.cau_tdes_ecb:000000000000011a .L0 
C:\Users\CYMR90~1\AppData\Local\Temp\cchaIJlx.s:156    .text.cau_tdes_ecb:000000000000011c .L0 
C:\Users\CYMR90~1\AppData\Local\Temp\cchaIJlx.s:161    .text.cau_tdes_ecb:000000000000012a .L0 
C:\Users\CYMR90~1\AppData\Local\Temp\cchaIJlx.s:163    .text.cau_tdes_ecb:000000000000012c .L0 
C:\Users\CYMR90~1\AppData\Local\Temp\cchaIJlx.s:166    .text.cau_tdes_ecb:0000000000000132 .L0 
C:\Users\CYMR90~1\AppData\Local\Temp\cchaIJlx.s:169    .text.cau_tdes_ecb:0000000000000138 .L0 
C:\Users\CYMR90~1\AppData\Local\Temp\cchaIJlx.s:173    .text.cau_tdes_ecb:000000000000013c .L0 
C:\Users\CYMR90~1\AppData\Local\Temp\cchaIJlx.s:175    .text.cau_tdes_ecb:0000000000000140 .L0 
C:\Users\CYMR90~1\AppData\Local\Temp\cchaIJlx.s:179    .text.cau_tdes_ecb:000000000000014a .L0 
C:\Users\CYMR90~1\AppData\Local\Temp\cchaIJlx.s:181    .text.cau_tdes_ecb:000000000000014e .L0 
C:\Users\CYMR90~1\AppData\Local\Temp\cchaIJlx.s:186    .text.cau_tdes_ecb:0000000000000154 .L0 
C:\Users\CYMR90~1\AppData\Local\Temp\cchaIJlx.s:189    .text.cau_tdes_ecb:000000000000015c .L0 
C:\Users\CYMR90~1\AppData\Local\Temp\cchaIJlx.s:195    .text.cau_tdes_ecb:000000000000016c .L0 
C:\Users\CYMR90~1\AppData\Local\Temp\cchaIJlx.s:197    .text.cau_tdes_ecb:000000000000016e .L0 
C:\Users\CYMR90~1\AppData\Local\Temp\cchaIJlx.s:202    .text.cau_tdes_ecb:000000000000017c .L0 
C:\Users\CYMR90~1\AppData\Local\Temp\cchaIJlx.s:204    .text.cau_tdes_ecb:000000000000017e .L0 
C:\Users\CYMR90~1\AppData\Local\Temp\cchaIJlx.s:207    .text.cau_tdes_ecb:0000000000000184 .L0 
C:\Users\CYMR90~1\AppData\Local\Temp\cchaIJlx.s:210    .text.cau_tdes_ecb:000000000000018a .L0 
C:\Users\CYMR90~1\AppData\Local\Temp\cchaIJlx.s:214    .text.cau_tdes_ecb:000000000000018e .L0 
C:\Users\CYMR90~1\AppData\Local\Temp\cchaIJlx.s:216    .text.cau_tdes_ecb:0000000000000192 .L0 
C:\Users\CYMR90~1\AppData\Local\Temp\cchaIJlx.s:220    .text.cau_tdes_ecb:000000000000019c .L0 
C:\Users\CYMR90~1\AppData\Local\Temp\cchaIJlx.s:222    .text.cau_tdes_ecb:00000000000001a0 .L0 
C:\Users\CYMR90~1\AppData\Local\Temp\cchaIJlx.s:227    .text.cau_tdes_ecb:00000000000001a6 .L0 
C:\Users\CYMR90~1\AppData\Local\Temp\cchaIJlx.s:230    .text.cau_tdes_ecb:00000000000001ae .L0 
C:\Users\CYMR90~1\AppData\Local\Temp\cchaIJlx.s:236    .text.cau_tdes_ecb:00000000000001be .L0 
C:\Users\CYMR90~1\AppData\Local\Temp\cchaIJlx.s:238    .text.cau_tdes_ecb:00000000000001c0 .L0 
C:\Users\CYMR90~1\AppData\Local\Temp\cchaIJlx.s:243    .text.cau_tdes_ecb:00000000000001ce .L0 
C:\Users\CYMR90~1\AppData\Local\Temp\cchaIJlx.s:245    .text.cau_tdes_ecb:00000000000001d0 .L0 
C:\Users\CYMR90~1\AppData\Local\Temp\cchaIJlx.s:248    .text.cau_tdes_ecb:00000000000001d6 .L0 
C:\Users\CYMR90~1\AppData\Local\Temp\cchaIJlx.s:251    .text.cau_tdes_ecb:00000000000001dc .L0 
C:\Users\CYMR90~1\AppData\Local\Temp\cchaIJlx.s:255    .text.cau_tdes_ecb:00000000000001e0 .L0 
C:\Users\CYMR90~1\AppData\Local\Temp\cchaIJlx.s:257    .text.cau_tdes_ecb:00000000000001e4 .L0 
C:\Users\CYMR90~1\AppData\Local\Temp\cchaIJlx.s:261    .text.cau_tdes_ecb:00000000000001ee .L0 
C:\Users\CYMR90~1\AppData\Local\Temp\cchaIJlx.s:263    .text.cau_tdes_ecb:00000000000001f2 .L0 
C:\Users\CYMR90~1\AppData\Local\Temp\cchaIJlx.s:268    .text.cau_tdes_ecb:00000000000001f8 .L0 
C:\Users\CYMR90~1\AppData\Local\Temp\cchaIJlx.s:271    .text.cau_tdes_ecb:0000000000000200 .L0 
C:\Users\CYMR90~1\AppData\Local\Temp\cchaIJlx.s:277    .text.cau_tdes_ecb:0000000000000210 .L0 
C:\Users\CYMR90~1\AppData\Local\Temp\cchaIJlx.s:279    .text.cau_tdes_ecb:0000000000000212 .L0 
C:\Users\CYMR90~1\AppData\Local\Temp\cchaIJlx.s:284    .text.cau_tdes_ecb:0000000000000220 .L0 
C:\Users\CYMR90~1\AppData\Local\Temp\cchaIJlx.s:286    .text.cau_tdes_ecb:0000000000000222 .L0 
C:\Users\CYMR90~1\AppData\Local\Temp\cchaIJlx.s:289    .text.cau_tdes_ecb:0000000000000228 .L0 
C:\Users\CYMR90~1\AppData\Local\Temp\cchaIJlx.s:292    .text.cau_tdes_ecb:000000000000022e .L0 
C:\Users\CYMR90~1\AppData\Local\Temp\cchaIJlx.s:296    .text.cau_tdes_ecb:0000000000000232 .L0 
C:\Users\CYMR90~1\AppData\Local\Temp\cchaIJlx.s:298    .text.cau_tdes_ecb:0000000000000236 .L0 
C:\Users\CYMR90~1\AppData\Local\Temp\cchaIJlx.s:302    .text.cau_tdes_ecb:0000000000000244 .L0 
C:\Users\CYMR90~1\AppData\Local\Temp\cchaIJlx.s:304    .text.cau_tdes_ecb:000000000000024c .L0 
C:\Users\CYMR90~1\AppData\Local\Temp\cchaIJlx.s:306    .text.cau_tdes_ecb:0000000000000254 .L0 
C:\Users\CYMR90~1\AppData\Local\Temp\cchaIJlx.s:743    .text.cau_tdes_calculate:0000000000000000 cau_tdes_calculate
C:\Users\CYMR90~1\AppData\Local\Temp\cchaIJlx.s:316    .text.cau_tdes_ecb:0000000000000274 .L0 
C:\Users\CYMR90~1\AppData\Local\Temp\cchaIJlx.s:318    .text.cau_tdes_ecb:000000000000027c .L0 
C:\Users\CYMR90~1\AppData\Local\Temp\cchaIJlx.s:320    .text.cau_tdes_ecb:0000000000000280 .L0 
C:\Users\CYMR90~1\AppData\Local\Temp\cchaIJlx.s:322    .text.cau_tdes_ecb:0000000000000284 .L0 
C:\Users\CYMR90~1\AppData\Local\Temp\cchaIJlx.s:324    .text.cau_tdes_ecb:0000000000000286 .L0 
C:\Users\CYMR90~1\AppData\Local\Temp\cchaIJlx.s:325    .text.cau_tdes_ecb:0000000000000286 .L0 
C:\Users\CYMR90~1\AppData\Local\Temp\cchaIJlx.s:327    .text.cau_tdes_ecb:0000000000000288 .L0 
C:\Users\CYMR90~1\AppData\Local\Temp\cchaIJlx.s:329    .text.cau_tdes_ecb:000000000000028a .L0 
C:\Users\CYMR90~1\AppData\Local\Temp\cchaIJlx.s:336    .text.cau_tdes_cbc:0000000000000000 cau_tdes_cbc
C:\Users\CYMR90~1\AppData\Local\Temp\cchaIJlx.s:339    .text.cau_tdes_cbc:0000000000000000 .L0 
C:\Users\CYMR90~1\AppData\Local\Temp\cchaIJlx.s:340    .text.cau_tdes_cbc:0000000000000000 .L0 
C:\Users\CYMR90~1\AppData\Local\Temp\cchaIJlx.s:341    .text.cau_tdes_cbc:0000000000000002 .L0 
C:\Users\CYMR90~1\AppData\Local\Temp\cchaIJlx.s:344    .text.cau_tdes_cbc:0000000000000006 .L0 
C:\Users\CYMR90~1\AppData\Local\Temp\cchaIJlx.s:345    .text.cau_tdes_cbc:0000000000000006 .L0 
C:\Users\CYMR90~1\AppData\Local\Temp\cchaIJlx.s:347    .text.cau_tdes_cbc:0000000000000008 .L0 
C:\Users\CYMR90~1\AppData\Local\Temp\cchaIJlx.s:351    .text.cau_tdes_cbc:0000000000000010 .L0 
C:\Users\CYMR90~1\AppData\Local\Temp\cchaIJlx.s:353    .text.cau_tdes_cbc:0000000000000014 .L0 
C:\Users\CYMR90~1\AppData\Local\Temp\cchaIJlx.s:356    .text.cau_tdes_cbc:000000000000001a .L0 
C:\Users\CYMR90~1\AppData\Local\Temp\cchaIJlx.s:358    .text.cau_tdes_cbc:000000000000001e .L0 
C:\Users\CYMR90~1\AppData\Local\Temp\cchaIJlx.s:361    .text.cau_tdes_cbc:0000000000000024 .L0 
C:\Users\CYMR90~1\AppData\Local\Temp\cchaIJlx.s:363    .text.cau_tdes_cbc:0000000000000028 .L0 
C:\Users\CYMR90~1\AppData\Local\Temp\cchaIJlx.s:366    .text.cau_tdes_cbc:0000000000000030 .L0 
C:\Users\CYMR90~1\AppData\Local\Temp\cchaIJlx.s:369    .text.cau_tdes_cbc:0000000000000036 .L0 
C:\Users\CYMR90~1\AppData\Local\Temp\cchaIJlx.s:371    .text.cau_tdes_cbc:000000000000003a .L0 
C:\Users\CYMR90~1\AppData\Local\Temp\cchaIJlx.s:375    .text.cau_tdes_cbc:0000000000000048 .L0 
C:\Users\CYMR90~1\AppData\Local\Temp\cchaIJlx.s:382    .text.cau_tdes_cbc:000000000000005e .L0 
C:\Users\CYMR90~1\AppData\Local\Temp\cchaIJlx.s:384    .text.cau_tdes_cbc:0000000000000062 .L0 
C:\Users\CYMR90~1\AppData\Local\Temp\cchaIJlx.s:389    .text.cau_tdes_cbc:0000000000000068 .L0 
C:\Users\CYMR90~1\AppData\Local\Temp\cchaIJlx.s:392    .text.cau_tdes_cbc:0000000000000070 .L0 
C:\Users\CYMR90~1\AppData\Local\Temp\cchaIJlx.s:398    .text.cau_tdes_cbc:0000000000000080 .L0 
C:\Users\CYMR90~1\AppData\Local\Temp\cchaIJlx.s:400    .text.cau_tdes_cbc:0000000000000082 .L0 
C:\Users\CYMR90~1\AppData\Local\Temp\cchaIJlx.s:405    .text.cau_tdes_cbc:0000000000000090 .L0 
C:\Users\CYMR90~1\AppData\Local\Temp\cchaIJlx.s:407    .text.cau_tdes_cbc:0000000000000092 .L0 
C:\Users\CYMR90~1\AppData\Local\Temp\cchaIJlx.s:410    .text.cau_tdes_cbc:0000000000000098 .L0 
C:\Users\CYMR90~1\AppData\Local\Temp\cchaIJlx.s:413    .text.cau_tdes_cbc:000000000000009e .L0 
C:\Users\CYMR90~1\AppData\Local\Temp\cchaIJlx.s:417    .text.cau_tdes_cbc:00000000000000a2 .L0 
C:\Users\CYMR90~1\AppData\Local\Temp\cchaIJlx.s:419    .text.cau_tdes_cbc:00000000000000a6 .L0 
C:\Users\CYMR90~1\AppData\Local\Temp\cchaIJlx.s:423    .text.cau_tdes_cbc:00000000000000b0 .L0 
C:\Users\CYMR90~1\AppData\Local\Temp\cchaIJlx.s:425    .text.cau_tdes_cbc:00000000000000b4 .L0 
C:\Users\CYMR90~1\AppData\Local\Temp\cchaIJlx.s:430    .text.cau_tdes_cbc:00000000000000ba .L0 
C:\Users\CYMR90~1\AppData\Local\Temp\cchaIJlx.s:433    .text.cau_tdes_cbc:00000000000000c2 .L0 
C:\Users\CYMR90~1\AppData\Local\Temp\cchaIJlx.s:439    .text.cau_tdes_cbc:00000000000000d2 .L0 
C:\Users\CYMR90~1\AppData\Local\Temp\cchaIJlx.s:441    .text.cau_tdes_cbc:00000000000000d4 .L0 
C:\Users\CYMR90~1\AppData\Local\Temp\cchaIJlx.s:446    .text.cau_tdes_cbc:00000000000000e2 .L0 
C:\Users\CYMR90~1\AppData\Local\Temp\cchaIJlx.s:448    .text.cau_tdes_cbc:00000000000000e4 .L0 
C:\Users\CYMR90~1\AppData\Local\Temp\cchaIJlx.s:451    .text.cau_tdes_cbc:00000000000000ea .L0 
C:\Users\CYMR90~1\AppData\Local\Temp\cchaIJlx.s:454    .text.cau_tdes_cbc:00000000000000f0 .L0 
C:\Users\CYMR90~1\AppData\Local\Temp\cchaIJlx.s:458    .text.cau_tdes_cbc:00000000000000f4 .L0 
C:\Users\CYMR90~1\AppData\Local\Temp\cchaIJlx.s:460    .text.cau_tdes_cbc:00000000000000f8 .L0 
C:\Users\CYMR90~1\AppData\Local\Temp\cchaIJlx.s:464    .text.cau_tdes_cbc:0000000000000102 .L0 
C:\Users\CYMR90~1\AppData\Local\Temp\cchaIJlx.s:466    .text.cau_tdes_cbc:0000000000000106 .L0 
C:\Users\CYMR90~1\AppData\Local\Temp\cchaIJlx.s:471    .text.cau_tdes_cbc:000000000000010c .L0 
C:\Users\CYMR90~1\AppData\Local\Temp\cchaIJlx.s:474    .text.cau_tdes_cbc:0000000000000114 .L0 
C:\Users\CYMR90~1\AppData\Local\Temp\cchaIJlx.s:480    .text.cau_tdes_cbc:0000000000000124 .L0 
C:\Users\CYMR90~1\AppData\Local\Temp\cchaIJlx.s:482    .text.cau_tdes_cbc:0000000000000126 .L0 
C:\Users\CYMR90~1\AppData\Local\Temp\cchaIJlx.s:487    .text.cau_tdes_cbc:0000000000000134 .L0 
C:\Users\CYMR90~1\AppData\Local\Temp\cchaIJlx.s:489    .text.cau_tdes_cbc:0000000000000136 .L0 
C:\Users\CYMR90~1\AppData\Local\Temp\cchaIJlx.s:492    .text.cau_tdes_cbc:000000000000013c .L0 
C:\Users\CYMR90~1\AppData\Local\Temp\cchaIJlx.s:495    .text.cau_tdes_cbc:0000000000000142 .L0 
C:\Users\CYMR90~1\AppData\Local\Temp\cchaIJlx.s:499    .text.cau_tdes_cbc:0000000000000146 .L0 
C:\Users\CYMR90~1\AppData\Local\Temp\cchaIJlx.s:501    .text.cau_tdes_cbc:000000000000014a .L0 
C:\Users\CYMR90~1\AppData\Local\Temp\cchaIJlx.s:505    .text.cau_tdes_cbc:0000000000000154 .L0 
C:\Users\CYMR90~1\AppData\Local\Temp\cchaIJlx.s:507    .text.cau_tdes_cbc:0000000000000158 .L0 
C:\Users\CYMR90~1\AppData\Local\Temp\cchaIJlx.s:512    .text.cau_tdes_cbc:000000000000015e .L0 
C:\Users\CYMR90~1\AppData\Local\Temp\cchaIJlx.s:515    .text.cau_tdes_cbc:0000000000000166 .L0 
C:\Users\CYMR90~1\AppData\Local\Temp\cchaIJlx.s:521    .text.cau_tdes_cbc:0000000000000176 .L0 
C:\Users\CYMR90~1\AppData\Local\Temp\cchaIJlx.s:523    .text.cau_tdes_cbc:0000000000000178 .L0 
C:\Users\CYMR90~1\AppData\Local\Temp\cchaIJlx.s:528    .text.cau_tdes_cbc:0000000000000186 .L0 
C:\Users\CYMR90~1\AppData\Local\Temp\cchaIJlx.s:530    .text.cau_tdes_cbc:0000000000000188 .L0 
C:\Users\CYMR90~1\AppData\Local\Temp\cchaIJlx.s:533    .text.cau_tdes_cbc:000000000000018e .L0 
C:\Users\CYMR90~1\AppData\Local\Temp\cchaIJlx.s:536    .text.cau_tdes_cbc:0000000000000194 .L0 
C:\Users\CYMR90~1\AppData\Local\Temp\cchaIJlx.s:540    .text.cau_tdes_cbc:0000000000000198 .L0 
C:\Users\CYMR90~1\AppData\Local\Temp\cchaIJlx.s:542    .text.cau_tdes_cbc:000000000000019c .L0 
C:\Users\CYMR90~1\AppData\Local\Temp\cchaIJlx.s:546    .text.cau_tdes_cbc:00000000000001a6 .L0 
C:\Users\CYMR90~1\AppData\Local\Temp\cchaIJlx.s:548    .text.cau_tdes_cbc:00000000000001aa .L0 
C:\Users\CYMR90~1\AppData\Local\Temp\cchaIJlx.s:553    .text.cau_tdes_cbc:00000000000001b0 .L0 
C:\Users\CYMR90~1\AppData\Local\Temp\cchaIJlx.s:556    .text.cau_tdes_cbc:00000000000001b8 .L0 
C:\Users\CYMR90~1\AppData\Local\Temp\cchaIJlx.s:562    .text.cau_tdes_cbc:00000000000001c8 .L0 
C:\Users\CYMR90~1\AppData\Local\Temp\cchaIJlx.s:564    .text.cau_tdes_cbc:00000000000001ca .L0 
C:\Users\CYMR90~1\AppData\Local\Temp\cchaIJlx.s:569    .text.cau_tdes_cbc:00000000000001d8 .L0 
C:\Users\CYMR90~1\AppData\Local\Temp\cchaIJlx.s:571    .text.cau_tdes_cbc:00000000000001da .L0 
C:\Users\CYMR90~1\AppData\Local\Temp\cchaIJlx.s:574    .text.cau_tdes_cbc:00000000000001e0 .L0 
C:\Users\CYMR90~1\AppData\Local\Temp\cchaIJlx.s:577    .text.cau_tdes_cbc:00000000000001e6 .L0 
C:\Users\CYMR90~1\AppData\Local\Temp\cchaIJlx.s:581    .text.cau_tdes_cbc:00000000000001ea .L0 
C:\Users\CYMR90~1\AppData\Local\Temp\cchaIJlx.s:583    .text.cau_tdes_cbc:00000000000001ee .L0 
C:\Users\CYMR90~1\AppData\Local\Temp\cchaIJlx.s:587    .text.cau_tdes_cbc:00000000000001f8 .L0 
C:\Users\CYMR90~1\AppData\Local\Temp\cchaIJlx.s:589    .text.cau_tdes_cbc:00000000000001fc .L0 
C:\Users\CYMR90~1\AppData\Local\Temp\cchaIJlx.s:594    .text.cau_tdes_cbc:0000000000000202 .L0 
C:\Users\CYMR90~1\AppData\Local\Temp\cchaIJlx.s:597    .text.cau_tdes_cbc:000000000000020a .L0 
C:\Users\CYMR90~1\AppData\Local\Temp\cchaIJlx.s:603    .text.cau_tdes_cbc:000000000000021a .L0 
C:\Users\CYMR90~1\AppData\Local\Temp\cchaIJlx.s:605    .text.cau_tdes_cbc:000000000000021c .L0 
C:\Users\CYMR90~1\AppData\Local\Temp\cchaIJlx.s:610    .text.cau_tdes_cbc:000000000000022a .L0 
C:\Users\CYMR90~1\AppData\Local\Temp\cchaIJlx.s:612    .text.cau_tdes_cbc:000000000000022c .L0 
C:\Users\CYMR90~1\AppData\Local\Temp\cchaIJlx.s:615    .text.cau_tdes_cbc:0000000000000232 .L0 
C:\Users\CYMR90~1\AppData\Local\Temp\cchaIJlx.s:618    .text.cau_tdes_cbc:0000000000000238 .L0 
C:\Users\CYMR90~1\AppData\Local\Temp\cchaIJlx.s:622    .text.cau_tdes_cbc:000000000000023c .L0 
C:\Users\CYMR90~1\AppData\Local\Temp\cchaIJlx.s:624    .text.cau_tdes_cbc:0000000000000240 .L0 
C:\Users\CYMR90~1\AppData\Local\Temp\cchaIJlx.s:628    .text.cau_tdes_cbc:000000000000024e .L0 
C:\Users\CYMR90~1\AppData\Local\Temp\cchaIJlx.s:630    .text.cau_tdes_cbc:0000000000000252 .L0 
C:\Users\CYMR90~1\AppData\Local\Temp\cchaIJlx.s:635    .text.cau_tdes_cbc:0000000000000258 .L0 
C:\Users\CYMR90~1\AppData\Local\Temp\cchaIJlx.s:638    .text.cau_tdes_cbc:0000000000000260 .L0 
C:\Users\CYMR90~1\AppData\Local\Temp\cchaIJlx.s:644    .text.cau_tdes_cbc:0000000000000270 .L0 
C:\Users\CYMR90~1\AppData\Local\Temp\cchaIJlx.s:646    .text.cau_tdes_cbc:0000000000000272 .L0 
C:\Users\CYMR90~1\AppData\Local\Temp\cchaIJlx.s:651    .text.cau_tdes_cbc:0000000000000280 .L0 
C:\Users\CYMR90~1\AppData\Local\Temp\cchaIJlx.s:653    .text.cau_tdes_cbc:0000000000000282 .L0 
C:\Users\CYMR90~1\AppData\Local\Temp\cchaIJlx.s:656    .text.cau_tdes_cbc:0000000000000288 .L0 
C:\Users\CYMR90~1\AppData\Local\Temp\cchaIJlx.s:659    .text.cau_tdes_cbc:000000000000028e .L0 
C:\Users\CYMR90~1\AppData\Local\Temp\cchaIJlx.s:663    .text.cau_tdes_cbc:0000000000000292 .L0 
C:\Users\CYMR90~1\AppData\Local\Temp\cchaIJlx.s:665    .text.cau_tdes_cbc:0000000000000296 .L0 
C:\Users\CYMR90~1\AppData\Local\Temp\cchaIJlx.s:669    .text.cau_tdes_cbc:00000000000002a0 .L0 
C:\Users\CYMR90~1\AppData\Local\Temp\cchaIJlx.s:671    .text.cau_tdes_cbc:00000000000002a4 .L0 
C:\Users\CYMR90~1\AppData\Local\Temp\cchaIJlx.s:676    .text.cau_tdes_cbc:00000000000002aa .L0 
C:\Users\CYMR90~1\AppData\Local\Temp\cchaIJlx.s:679    .text.cau_tdes_cbc:00000000000002b2 .L0 
C:\Users\CYMR90~1\AppData\Local\Temp\cchaIJlx.s:685    .text.cau_tdes_cbc:00000000000002c2 .L0 
C:\Users\CYMR90~1\AppData\Local\Temp\cchaIJlx.s:687    .text.cau_tdes_cbc:00000000000002c4 .L0 
C:\Users\CYMR90~1\AppData\Local\Temp\cchaIJlx.s:692    .text.cau_tdes_cbc:00000000000002d2 .L0 
C:\Users\CYMR90~1\AppData\Local\Temp\cchaIJlx.s:694    .text.cau_tdes_cbc:00000000000002d4 .L0 
C:\Users\CYMR90~1\AppData\Local\Temp\cchaIJlx.s:697    .text.cau_tdes_cbc:00000000000002da .L0 
C:\Users\CYMR90~1\AppData\Local\Temp\cchaIJlx.s:700    .text.cau_tdes_cbc:00000000000002e0 .L0 
C:\Users\CYMR90~1\AppData\Local\Temp\cchaIJlx.s:704    .text.cau_tdes_cbc:00000000000002e4 .L0 
C:\Users\CYMR90~1\AppData\Local\Temp\cchaIJlx.s:706    .text.cau_tdes_cbc:00000000000002e8 .L0 
C:\Users\CYMR90~1\AppData\Local\Temp\cchaIJlx.s:710    .text.cau_tdes_cbc:00000000000002f6 .L0 
C:\Users\CYMR90~1\AppData\Local\Temp\cchaIJlx.s:712    .text.cau_tdes_cbc:00000000000002fe .L0 
C:\Users\CYMR90~1\AppData\Local\Temp\cchaIJlx.s:714    .text.cau_tdes_cbc:0000000000000306 .L0 
C:\Users\CYMR90~1\AppData\Local\Temp\cchaIJlx.s:724    .text.cau_tdes_cbc:0000000000000326 .L0 
C:\Users\CYMR90~1\AppData\Local\Temp\cchaIJlx.s:726    .text.cau_tdes_cbc:000000000000032e .L0 
C:\Users\CYMR90~1\AppData\Local\Temp\cchaIJlx.s:728    .text.cau_tdes_cbc:0000000000000332 .L0 
C:\Users\CYMR90~1\AppData\Local\Temp\cchaIJlx.s:730    .text.cau_tdes_cbc:0000000000000336 .L0 
C:\Users\CYMR90~1\AppData\Local\Temp\cchaIJlx.s:732    .text.cau_tdes_cbc:0000000000000338 .L0 
C:\Users\CYMR90~1\AppData\Local\Temp\cchaIJlx.s:733    .text.cau_tdes_cbc:0000000000000338 .L0 
C:\Users\CYMR90~1\AppData\Local\Temp\cchaIJlx.s:735    .text.cau_tdes_cbc:000000000000033a .L0 
C:\Users\CYMR90~1\AppData\Local\Temp\cchaIJlx.s:737    .text.cau_tdes_cbc:000000000000033c .L0 
C:\Users\CYMR90~1\AppData\Local\Temp\cchaIJlx.s:746    .text.cau_tdes_calculate:0000000000000000 .L0 
C:\Users\CYMR90~1\AppData\Local\Temp\cchaIJlx.s:747    .text.cau_tdes_calculate:0000000000000000 .L0 
C:\Users\CYMR90~1\AppData\Local\Temp\cchaIJlx.s:748    .text.cau_tdes_calculate:0000000000000002 .L0 
C:\Users\CYMR90~1\AppData\Local\Temp\cchaIJlx.s:752    .text.cau_tdes_calculate:0000000000000008 .L0 
C:\Users\CYMR90~1\AppData\Local\Temp\cchaIJlx.s:753    .text.cau_tdes_calculate:0000000000000008 .L0 
C:\Users\CYMR90~1\AppData\Local\Temp\cchaIJlx.s:754    .text.cau_tdes_calculate:0000000000000008 .L0 
C:\Users\CYMR90~1\AppData\Local\Temp\cchaIJlx.s:756    .text.cau_tdes_calculate:000000000000000a .L0 
C:\Users\CYMR90~1\AppData\Local\Temp\cchaIJlx.s:761    .text.cau_tdes_calculate:0000000000000016 .L0 
C:\Users\CYMR90~1\AppData\Local\Temp\cchaIJlx.s:764    .text.cau_tdes_calculate:000000000000001e .L0 
C:\Users\CYMR90~1\AppData\Local\Temp\cchaIJlx.s:767    .text.cau_tdes_calculate:0000000000000026 .L0 
C:\Users\CYMR90~1\AppData\Local\Temp\cchaIJlx.s:769    .text.cau_tdes_calculate:000000000000002a .L0 
C:\Users\CYMR90~1\AppData\Local\Temp\cchaIJlx.s:771    .text.cau_tdes_calculate:000000000000002e .L0 
C:\Users\CYMR90~1\AppData\Local\Temp\cchaIJlx.s:773    .text.cau_tdes_calculate:0000000000000032 .L0 
C:\Users\CYMR90~1\AppData\Local\Temp\cchaIJlx.s:776    .text.cau_tdes_calculate:000000000000003c .L0 
C:\Users\CYMR90~1\AppData\Local\Temp\cchaIJlx.s:778    .text.cau_tdes_calculate:000000000000003e .L0 
C:\Users\CYMR90~1\AppData\Local\Temp\cchaIJlx.s:782    .text.cau_tdes_calculate:0000000000000042 .L0 
C:\Users\CYMR90~1\AppData\Local\Temp\cchaIJlx.s:784    .text.cau_tdes_calculate:0000000000000046 .L0 
C:\Users\CYMR90~1\AppData\Local\Temp\cchaIJlx.s:787    .text.cau_tdes_calculate:0000000000000048 .L0 
C:\Users\CYMR90~1\AppData\Local\Temp\cchaIJlx.s:789    .text.cau_tdes_calculate:000000000000004c .L0 
C:\Users\CYMR90~1\AppData\Local\Temp\cchaIJlx.s:793    .text.cau_tdes_calculate:0000000000000058 .L0 
C:\Users\CYMR90~1\AppData\Local\Temp\cchaIJlx.s:797    .text.cau_tdes_calculate:0000000000000062 .L0 
C:\Users\CYMR90~1\AppData\Local\Temp\cchaIJlx.s:799    .text.cau_tdes_calculate:0000000000000066 .L0 
C:\Users\CYMR90~1\AppData\Local\Temp\cchaIJlx.s:803    .text.cau_tdes_calculate:0000000000000072 .L0 
C:\Users\CYMR90~1\AppData\Local\Temp\cchaIJlx.s:807    .text.cau_tdes_calculate:000000000000007c .L0 
C:\Users\CYMR90~1\AppData\Local\Temp\cchaIJlx.s:810    .text.cau_tdes_calculate:0000000000000080 .L0 
C:\Users\CYMR90~1\AppData\Local\Temp\cchaIJlx.s:814    .text.cau_tdes_calculate:000000000000008e .L0 
C:\Users\CYMR90~1\AppData\Local\Temp\cchaIJlx.s:818    .text.cau_tdes_calculate:0000000000000098 .L0 
C:\Users\CYMR90~1\AppData\Local\Temp\cchaIJlx.s:820    .text.cau_tdes_calculate:000000000000009c .L0 
C:\Users\CYMR90~1\AppData\Local\Temp\cchaIJlx.s:823    .text.cau_tdes_calculate:00000000000000a2 .L0 
C:\Users\CYMR90~1\AppData\Local\Temp\cchaIJlx.s:827    .text.cau_tdes_calculate:00000000000000a8 .L0 
C:\Users\CYMR90~1\AppData\Local\Temp\cchaIJlx.s:830    .text.cau_tdes_calculate:00000000000000ae .L0 
C:\Users\CYMR90~1\AppData\Local\Temp\cchaIJlx.s:834    .text.cau_tdes_calculate:00000000000000b2 .L0 
C:\Users\CYMR90~1\AppData\Local\Temp\cchaIJlx.s:836    .text.cau_tdes_calculate:00000000000000b6 .L0 
C:\Users\CYMR90~1\AppData\Local\Temp\cchaIJlx.s:839    .text.cau_tdes_calculate:00000000000000c0 .L0 
C:\Users\CYMR90~1\AppData\Local\Temp\cchaIJlx.s:841    .text.cau_tdes_calculate:00000000000000c2 .L0 
C:\Users\CYMR90~1\AppData\Local\Temp\cchaIJlx.s:845    .text.cau_tdes_calculate:00000000000000cc .L0 
C:\Users\CYMR90~1\AppData\Local\Temp\cchaIJlx.s:847    .text.cau_tdes_calculate:00000000000000d0 .L0 
C:\Users\CYMR90~1\AppData\Local\Temp\cchaIJlx.s:850    .text.cau_tdes_calculate:00000000000000da .L0 
C:\Users\CYMR90~1\AppData\Local\Temp\cchaIJlx.s:852    .text.cau_tdes_calculate:00000000000000dc .L0 
C:\Users\CYMR90~1\AppData\Local\Temp\cchaIJlx.s:856    .text.cau_tdes_calculate:00000000000000e6 .L0 
C:\Users\CYMR90~1\AppData\Local\Temp\cchaIJlx.s:861    .text.cau_tdes_calculate:00000000000000f0 .L0 
C:\Users\CYMR90~1\AppData\Local\Temp\cchaIJlx.s:865    .text.cau_tdes_calculate:00000000000000fc .L0 
C:\Users\CYMR90~1\AppData\Local\Temp\cchaIJlx.s:868    .text.cau_tdes_calculate:00000000000000fe .L0 
C:\Users\CYMR90~1\AppData\Local\Temp\cchaIJlx.s:870    .text.cau_tdes_calculate:0000000000000102 .L0 
C:\Users\CYMR90~1\AppData\Local\Temp\cchaIJlx.s:872    .text.cau_tdes_calculate:0000000000000104 .L0 
C:\Users\CYMR90~1\AppData\Local\Temp\cchaIJlx.s:873    .text.cau_tdes_calculate:0000000000000104 .L0 
C:\Users\CYMR90~1\AppData\Local\Temp\cchaIJlx.s:875    .text.cau_tdes_calculate:0000000000000106 .L0 
C:\Users\CYMR90~1\AppData\Local\Temp\cchaIJlx.s:877    .text.cau_tdes_calculate:0000000000000108 .L0 
C:\Users\CYMR90~1\AppData\Local\Temp\cchaIJlx.s:879    .text.cau_tdes_calculate:000000000000010a .L0 
C:\Users\CYMR90~1\AppData\Local\Temp\cchaIJlx.s:332    .text.cau_tdes_ecb:000000000000028a .L0 
C:\Users\CYMR90~1\AppData\Local\Temp\cchaIJlx.s:740    .text.cau_tdes_cbc:000000000000033c .L0 
C:\Users\CYMR90~1\AppData\Local\Temp\cchaIJlx.s:882    .text.cau_tdes_calculate:000000000000010a .L0 
                     .debug_frame:0000000000000000 .L0 
C:\Users\CYMR90~1\AppData\Local\Temp\cchaIJlx.s:780    .text.cau_tdes_calculate:0000000000000042 .L20
C:\Users\CYMR90~1\AppData\Local\Temp\cchaIJlx.s:866    .text.cau_tdes_calculate:00000000000000fe .L21
C:\Users\CYMR90~1\AppData\Local\Temp\cchaIJlx.s:859    .text.cau_tdes_calculate:00000000000000f0 .L22
C:\Users\CYMR90~1\AppData\Local\Temp\cchaIJlx.s:825    .text.cau_tdes_calculate:00000000000000a8 .L23
C:\Users\CYMR90~1\AppData\Local\Temp\cchaIJlx.s:808    .text.cau_tdes_calculate:0000000000000080 .L24
C:\Users\CYMR90~1\AppData\Local\Temp\cchaIJlx.s:832    .text.cau_tdes_calculate:00000000000000b2 .L25
C:\Users\CYMR90~1\AppData\Local\Temp\cchaIJlx.s:785    .text.cau_tdes_calculate:0000000000000048 .L26
C:\Users\CYMR90~1\AppData\Local\Temp\cchaIJlx.s:1758   .debug_abbrev:0000000000000000 .Ldebug_abbrev0
C:\Users\CYMR90~1\AppData\Local\Temp\cchaIJlx.s:22541  .debug_str:000000000000adb8 .LASF5610
C:\Users\CYMR90~1\AppData\Local\Temp\cchaIJlx.s:29950  .debug_str:0000000000028a78 .LASF5611
C:\Users\CYMR90~1\AppData\Local\Temp\cchaIJlx.s:25459  .debug_str:0000000000016953 .LASF5612
C:\Users\CYMR90~1\AppData\Local\Temp\cchaIJlx.s:2147   .debug_ranges:0000000000000000 .Ldebug_ranges0
C:\Users\CYMR90~1\AppData\Local\Temp\cchaIJlx.s:19795  .debug_line:0000000000000000 .Ldebug_line0
C:\Users\CYMR90~1\AppData\Local\Temp\cchaIJlx.s:2157   .debug_macro:0000000000000000 .Ldebug_macro0
C:\Users\CYMR90~1\AppData\Local\Temp\cchaIJlx.s:30990  .debug_str:000000000002ccd3 .LASF5557
C:\Users\CYMR90~1\AppData\Local\Temp\cchaIJlx.s:19813  .debug_str:0000000000000123 .LASF5558
C:\Users\CYMR90~1\AppData\Local\Temp\cchaIJlx.s:20727  .debug_str:0000000000003a17 .LASF5559
C:\Users\CYMR90~1\AppData\Local\Temp\cchaIJlx.s:25912  .debug_str:00000000000186fd .LASF5560
C:\Users\CYMR90~1\AppData\Local\Temp\cchaIJlx.s:22031  .debug_str:0000000000008e04 .LASF5565
C:\Users\CYMR90~1\AppData\Local\Temp\cchaIJlx.s:25371  .debug_str:0000000000016348 .LASF5561
C:\Users\CYMR90~1\AppData\Local\Temp\cchaIJlx.s:27230  .debug_str:000000000001de9c .LASF5562
C:\Users\CYMR90~1\AppData\Local\Temp\cchaIJlx.s:24839  .debug_str:0000000000014227 .LASF5563
C:\Users\CYMR90~1\AppData\Local\Temp\cchaIJlx.s:27628  .debug_str:000000000001f65f .LASF5564
C:\Users\CYMR90~1\AppData\Local\Temp\cchaIJlx.s:26120  .debug_str:000000000001956c .LASF5566
C:\Users\CYMR90~1\AppData\Local\Temp\cchaIJlx.s:19929  .debug_str:0000000000000824 .LASF5567
C:\Users\CYMR90~1\AppData\Local\Temp\cchaIJlx.s:29172  .debug_str:000000000002585d .LASF5568
C:\Users\CYMR90~1\AppData\Local\Temp\cchaIJlx.s:27650  .debug_str:000000000001f7c9 .LASF855
C:\Users\CYMR90~1\AppData\Local\Temp\cchaIJlx.s:25141  .debug_str:00000000000154cb .LASF5569
C:\Users\CYMR90~1\AppData\Local\Temp\cchaIJlx.s:29288  .debug_str:0000000000025f99 .LASF5570
C:\Users\CYMR90~1\AppData\Local\Temp\cchaIJlx.s:21833  .debug_str:0000000000008196 .LASF5571
C:\Users\CYMR90~1\AppData\Local\Temp\cchaIJlx.s:23335  .debug_str:000000000000e1ce .LASF5572
C:\Users\CYMR90~1\AppData\Local\Temp\cchaIJlx.s:27112  .debug_str:000000000001d777 .LASF5573
C:\Users\CYMR90~1\AppData\Local\Temp\cchaIJlx.s:27432  .debug_str:000000000001eaa5 .LASF5574
C:\Users\CYMR90~1\AppData\Local\Temp\cchaIJlx.s:24687  .debug_str:0000000000013903 .LASF5575
C:\Users\CYMR90~1\AppData\Local\Temp\cchaIJlx.s:30962  .debug_str:000000000002cb31 .LASF5576
C:\Users\CYMR90~1\AppData\Local\Temp\cchaIJlx.s:21213  .debug_str:000000000000593e .LASF5577
C:\Users\CYMR90~1\AppData\Local\Temp\cchaIJlx.s:22735  .debug_str:000000000000bad9 .LASF5578
C:\Users\CYMR90~1\AppData\Local\Temp\cchaIJlx.s:24705  .debug_str:00000000000139fd .LASF5579
C:\Users\CYMR90~1\AppData\Local\Temp\cchaIJlx.s:24473  .debug_str:0000000000012ae7 .LASF5580
C:\Users\CYMR90~1\AppData\Local\Temp\cchaIJlx.s:25135  .debug_str:0000000000015494 .LASF5581
C:\Users\CYMR90~1\AppData\Local\Temp\cchaIJlx.s:26210  .debug_str:0000000000019ba7 .LASF5582
C:\Users\CYMR90~1\AppData\Local\Temp\cchaIJlx.s:20509  .debug_str:0000000000002c0d .LASF5583
C:\Users\CYMR90~1\AppData\Local\Temp\cchaIJlx.s:27912  .debug_str:00000000000207da .LASF5584
C:\Users\CYMR90~1\AppData\Local\Temp\cchaIJlx.s:20279  .debug_str:0000000000001e3f .LASF5585
C:\Users\CYMR90~1\AppData\Local\Temp\cchaIJlx.s:27246  .debug_str:000000000001df71 .LASF5586
C:\Users\CYMR90~1\AppData\Local\Temp\cchaIJlx.s:20469  .debug_str:0000000000002993 .LASF5587
C:\Users\CYMR90~1\AppData\Local\Temp\cchaIJlx.s:30732  .debug_str:000000000002bba7 .LASF5588
C:\Users\CYMR90~1\AppData\Local\Temp\cchaIJlx.s:21755  .debug_str:0000000000007b81 .LASF5589
C:\Users\CYMR90~1\AppData\Local\Temp\cchaIJlx.s:24179  .debug_str:000000000001170a .LASF5590
C:\Users\CYMR90~1\AppData\Local\Temp\cchaIJlx.s:21391  .debug_str:000000000000645b .LASF5591
C:\Users\CYMR90~1\AppData\Local\Temp\cchaIJlx.s:22467  .debug_str:000000000000a8e6 .LASF5592
C:\Users\CYMR90~1\AppData\Local\Temp\cchaIJlx.s:26636  .debug_str:000000000001b831 .LASF5593
C:\Users\CYMR90~1\AppData\Local\Temp\cchaIJlx.s:20927  .debug_str:000000000000476e .LASF5594
C:\Users\CYMR90~1\AppData\Local\Temp\cchaIJlx.s:24755  .debug_str:0000000000013cd7 .LASF5595
C:\Users\CYMR90~1\AppData\Local\Temp\cchaIJlx.s:22897  .debug_str:000000000000c564 .LASF5596
C:\Users\CYMR90~1\AppData\Local\Temp\cchaIJlx.s:30738  .debug_str:000000000002bbd1 .LASF5597
C:\Users\CYMR90~1\AppData\Local\Temp\cchaIJlx.s:22717  .debug_str:000000000000b9cf .LASF5613
C:\Users\CYMR90~1\AppData\Local\Temp\cchaIJlx.s:744    .text.cau_tdes_calculate:0000000000000000 .LFB349
C:\Users\CYMR90~1\AppData\Local\Temp\cchaIJlx.s:880    .text.cau_tdes_calculate:000000000000010a .LFE349
C:\Users\CYMR90~1\AppData\Local\Temp\cchaIJlx.s:26942  .debug_str:000000000001cb45 .LASF5598
C:\Users\CYMR90~1\AppData\Local\Temp\cchaIJlx.s:30926  .debug_str:000000000002c8cb .LASF5599
C:\Users\CYMR90~1\AppData\Local\Temp\cchaIJlx.s:30460  .debug_str:000000000002aa1e .LASF5600
C:\Users\CYMR90~1\AppData\Local\Temp\cchaIJlx.s:30138  .debug_str:00000000000296f6 .LASF5601
C:\Users\CYMR90~1\AppData\Local\Temp\cchaIJlx.s:24747  .debug_str:0000000000013c78 .LASF5602
C:\Users\CYMR90~1\AppData\Local\Temp\cchaIJlx.s:26530  .debug_str:000000000001b198 .LASF5608
C:\Users\CYMR90~1\AppData\Local\Temp\cchaIJlx.s:337    .text.cau_tdes_cbc:0000000000000000 .LFB348
C:\Users\CYMR90~1\AppData\Local\Temp\cchaIJlx.s:738    .text.cau_tdes_cbc:000000000000033c .LFE348
C:\Users\CYMR90~1\AppData\Local\Temp\cchaIJlx.s:28098  .debug_str:000000000002134c .LASF5603
C:\Users\CYMR90~1\AppData\Local\Temp\cchaIJlx.s:21361  .debug_str:000000000000628b .LASF5604
C:\Users\CYMR90~1\AppData\Local\Temp\cchaIJlx.s:21979  .debug_str:0000000000008ab5 .LASF5605
C:\Users\CYMR90~1\AppData\Local\Temp\cchaIJlx.s:22887  .debug_str:000000000000c4dc .LASF5606
C:\Users\CYMR90~1\AppData\Local\Temp\cchaIJlx.s:25950  .debug_str:000000000001898e .LASF5607
C:\Users\CYMR90~1\AppData\Local\Temp\cchaIJlx.s:386    .text.cau_tdes_cbc:0000000000000068 .LBB42
C:\Users\CYMR90~1\AppData\Local\Temp\cchaIJlx.s:415    .text.cau_tdes_cbc:00000000000000a2 .LBE42
C:\Users\CYMR90~1\AppData\Local\Temp\cchaIJlx.s:427    .text.cau_tdes_cbc:00000000000000ba .LBB44
C:\Users\CYMR90~1\AppData\Local\Temp\cchaIJlx.s:456    .text.cau_tdes_cbc:00000000000000f4 .LBE44
C:\Users\CYMR90~1\AppData\Local\Temp\cchaIJlx.s:468    .text.cau_tdes_cbc:000000000000010c .LBB46
C:\Users\CYMR90~1\AppData\Local\Temp\cchaIJlx.s:497    .text.cau_tdes_cbc:0000000000000146 .LBE46
C:\Users\CYMR90~1\AppData\Local\Temp\cchaIJlx.s:509    .text.cau_tdes_cbc:000000000000015e .LBB48
C:\Users\CYMR90~1\AppData\Local\Temp\cchaIJlx.s:538    .text.cau_tdes_cbc:0000000000000198 .LBE48
C:\Users\CYMR90~1\AppData\Local\Temp\cchaIJlx.s:550    .text.cau_tdes_cbc:00000000000001b0 .LBB50
C:\Users\CYMR90~1\AppData\Local\Temp\cchaIJlx.s:579    .text.cau_tdes_cbc:00000000000001ea .LBE50
C:\Users\CYMR90~1\AppData\Local\Temp\cchaIJlx.s:591    .text.cau_tdes_cbc:0000000000000202 .LBB52
C:\Users\CYMR90~1\AppData\Local\Temp\cchaIJlx.s:620    .text.cau_tdes_cbc:000000000000023c .LBE52
C:\Users\CYMR90~1\AppData\Local\Temp\cchaIJlx.s:632    .text.cau_tdes_cbc:0000000000000258 .LBB54
C:\Users\CYMR90~1\AppData\Local\Temp\cchaIJlx.s:661    .text.cau_tdes_cbc:0000000000000292 .LBE54
C:\Users\CYMR90~1\AppData\Local\Temp\cchaIJlx.s:673    .text.cau_tdes_cbc:00000000000002aa .LBB56
C:\Users\CYMR90~1\AppData\Local\Temp\cchaIJlx.s:702    .text.cau_tdes_cbc:00000000000002e4 .LBE56
C:\Users\CYMR90~1\AppData\Local\Temp\cchaIJlx.s:21727  .debug_str:00000000000079a6 .LASF5609
C:\Users\CYMR90~1\AppData\Local\Temp\cchaIJlx.s:14     .text.cau_tdes_ecb:0000000000000000 .LFB347
C:\Users\CYMR90~1\AppData\Local\Temp\cchaIJlx.s:330    .text.cau_tdes_ecb:000000000000028a .LFE347
C:\Users\CYMR90~1\AppData\Local\Temp\cchaIJlx.s:59     .text.cau_tdes_ecb:000000000000005e .LBB30
C:\Users\CYMR90~1\AppData\Local\Temp\cchaIJlx.s:89     .text.cau_tdes_ecb:0000000000000098 .LBE30
C:\Users\CYMR90~1\AppData\Local\Temp\cchaIJlx.s:101    .text.cau_tdes_ecb:00000000000000b0 .LBB32
C:\Users\CYMR90~1\AppData\Local\Temp\cchaIJlx.s:130    .text.cau_tdes_ecb:00000000000000ea .LBE32
C:\Users\CYMR90~1\AppData\Local\Temp\cchaIJlx.s:142    .text.cau_tdes_ecb:0000000000000102 .LBB34
C:\Users\CYMR90~1\AppData\Local\Temp\cchaIJlx.s:171    .text.cau_tdes_ecb:000000000000013c .LBE34
C:\Users\CYMR90~1\AppData\Local\Temp\cchaIJlx.s:183    .text.cau_tdes_ecb:0000000000000154 .LBB36
C:\Users\CYMR90~1\AppData\Local\Temp\cchaIJlx.s:212    .text.cau_tdes_ecb:000000000000018e .LBE36
C:\Users\CYMR90~1\AppData\Local\Temp\cchaIJlx.s:224    .text.cau_tdes_ecb:00000000000001a6 .LBB38
C:\Users\CYMR90~1\AppData\Local\Temp\cchaIJlx.s:253    .text.cau_tdes_ecb:00000000000001e0 .LBE38
C:\Users\CYMR90~1\AppData\Local\Temp\cchaIJlx.s:265    .text.cau_tdes_ecb:00000000000001f8 .LBB40
C:\Users\CYMR90~1\AppData\Local\Temp\cchaIJlx.s:294    .text.cau_tdes_ecb:0000000000000232 .LBE40
C:\Users\CYMR90~1\AppData\Local\Temp\cchaIJlx.s:30782  .debug_str:000000000002befd .LASF5614
C:\Users\CYMR90~1\AppData\Local\Temp\cchaIJlx.s:26130  .debug_str:0000000000019606 .LASF5615
C:\Users\CYMR90~1\AppData\Local\Temp\cchaIJlx.s:20401  .debug_str:0000000000002524 .LASF5616
C:\Users\CYMR90~1\AppData\Local\Temp\cchaIJlx.s:889    .debug_info:0000000000000000 .Ldebug_info0
C:\Users\CYMR90~1\AppData\Local\Temp\cchaIJlx.s:2780   .debug_macro:0000000000000000 .Ldebug_macro2
C:\Users\CYMR90~1\AppData\Local\Temp\cchaIJlx.s:26212  .debug_str:0000000000019bb1 .LASF314
C:\Users\CYMR90~1\AppData\Local\Temp\cchaIJlx.s:25538  .debug_str:0000000000017079 .LASF315
C:\Users\CYMR90~1\AppData\Local\Temp\cchaIJlx.s:3727   .debug_macro:0000000000000000 .Ldebug_macro3
C:\Users\CYMR90~1\AppData\Local\Temp\cchaIJlx.s:21981  .debug_str:0000000000008ac1 .LASF369
C:\Users\CYMR90~1\AppData\Local\Temp\cchaIJlx.s:21545  .debug_str:0000000000006dbc .LASF370
C:\Users\CYMR90~1\AppData\Local\Temp\cchaIJlx.s:25788  .debug_str:0000000000017fbb .LASF371
C:\Users\CYMR90~1\AppData\Local\Temp\cchaIJlx.s:3891   .debug_macro:0000000000000000 .Ldebug_macro4
C:\Users\CYMR90~1\AppData\Local\Temp\cchaIJlx.s:3911   .debug_macro:0000000000000000 .Ldebug_macro5
C:\Users\CYMR90~1\AppData\Local\Temp\cchaIJlx.s:24437  .debug_str:0000000000012885 .LASF390
C:\Users\CYMR90~1\AppData\Local\Temp\cchaIJlx.s:3955   .debug_macro:0000000000000000 .Ldebug_macro6
C:\Users\CYMR90~1\AppData\Local\Temp\cchaIJlx.s:3969   .debug_macro:0000000000000000 .Ldebug_macro7
C:\Users\CYMR90~1\AppData\Local\Temp\cchaIJlx.s:4037   .debug_macro:0000000000000000 .Ldebug_macro8
C:\Users\CYMR90~1\AppData\Local\Temp\cchaIJlx.s:4063   .debug_macro:0000000000000000 .Ldebug_macro9
C:\Users\CYMR90~1\AppData\Local\Temp\cchaIJlx.s:4092   .debug_macro:0000000000000000 .Ldebug_macro10
C:\Users\CYMR90~1\AppData\Local\Temp\cchaIJlx.s:28428  .debug_str:0000000000022721 .LASF433
C:\Users\CYMR90~1\AppData\Local\Temp\cchaIJlx.s:4106   .debug_macro:0000000000000000 .Ldebug_macro11
C:\Users\CYMR90~1\AppData\Local\Temp\cchaIJlx.s:4150   .debug_macro:0000000000000000 .Ldebug_macro12
C:\Users\CYMR90~1\AppData\Local\Temp\cchaIJlx.s:4176   .debug_macro:0000000000000000 .Ldebug_macro13
C:\Users\CYMR90~1\AppData\Local\Temp\cchaIJlx.s:29450  .debug_str:0000000000026982 .LASF569
C:\Users\CYMR90~1\AppData\Local\Temp\cchaIJlx.s:4547   .debug_macro:0000000000000000 .Ldebug_macro14
C:\Users\CYMR90~1\AppData\Local\Temp\cchaIJlx.s:23961  .debug_str:00000000000108b5 .LASF572
C:\Users\CYMR90~1\AppData\Local\Temp\cchaIJlx.s:28798  .debug_str:0000000000023d6c .LASF573
C:\Users\CYMR90~1\AppData\Local\Temp\cchaIJlx.s:4558   .debug_macro:0000000000000000 .Ldebug_macro15
C:\Users\CYMR90~1\AppData\Local\Temp\cchaIJlx.s:4572   .debug_macro:0000000000000000 .Ldebug_macro16
C:\Users\CYMR90~1\AppData\Local\Temp\cchaIJlx.s:20495  .debug_str:0000000000002b2d .LASF578
C:\Users\CYMR90~1\AppData\Local\Temp\cchaIJlx.s:4604   .debug_macro:0000000000000000 .Ldebug_macro17
C:\Users\CYMR90~1\AppData\Local\Temp\cchaIJlx.s:4630   .debug_macro:0000000000000000 .Ldebug_macro18
C:\Users\CYMR90~1\AppData\Local\Temp\cchaIJlx.s:4641   .debug_macro:0000000000000000 .Ldebug_macro19
C:\Users\CYMR90~1\AppData\Local\Temp\cchaIJlx.s:4685   .debug_macro:0000000000000000 .Ldebug_macro20
C:\Users\CYMR90~1\AppData\Local\Temp\cchaIJlx.s:4855   .debug_macro:0000000000000000 .Ldebug_macro21
C:\Users\CYMR90~1\AppData\Local\Temp\cchaIJlx.s:4866   .debug_macro:0000000000000000 .Ldebug_macro22
C:\Users\CYMR90~1\AppData\Local\Temp\cchaIJlx.s:24443  .debug_str:00000000000128de .LASF675
C:\Users\CYMR90~1\AppData\Local\Temp\cchaIJlx.s:4922   .debug_macro:0000000000000000 .Ldebug_macro23
C:\Users\CYMR90~1\AppData\Local\Temp\cchaIJlx.s:4939   .debug_macro:0000000000000000 .Ldebug_macro24
C:\Users\CYMR90~1\AppData\Local\Temp\cchaIJlx.s:27620  .debug_str:000000000001f5ef .LASF693
C:\Users\CYMR90~1\AppData\Local\Temp\cchaIJlx.s:25794  .debug_str:0000000000017fec .LASF694
C:\Users\CYMR90~1\AppData\Local\Temp\cchaIJlx.s:4983   .debug_macro:0000000000000000 .Ldebug_macro25
C:\Users\CYMR90~1\AppData\Local\Temp\cchaIJlx.s:21003  .debug_str:0000000000004c88 .LASF700
C:\Users\CYMR90~1\AppData\Local\Temp\cchaIJlx.s:22117  .debug_str:00000000000092e8 .LASF701
C:\Users\CYMR90~1\AppData\Local\Temp\cchaIJlx.s:5003   .debug_macro:0000000000000000 .Ldebug_macro26
C:\Users\CYMR90~1\AppData\Local\Temp\cchaIJlx.s:5014   .debug_macro:0000000000000000 .Ldebug_macro27
C:\Users\CYMR90~1\AppData\Local\Temp\cchaIJlx.s:5058   .debug_macro:0000000000000000 .Ldebug_macro28
C:\Users\CYMR90~1\AppData\Local\Temp\cchaIJlx.s:21373  .debug_str:000000000000632e .LASF749
C:\Users\CYMR90~1\AppData\Local\Temp\cchaIJlx.s:5159   .debug_macro:0000000000000000 .Ldebug_macro29
C:\Users\CYMR90~1\AppData\Local\Temp\cchaIJlx.s:5176   .debug_macro:0000000000000000 .Ldebug_macro30
C:\Users\CYMR90~1\AppData\Local\Temp\cchaIJlx.s:19861  .debug_str:0000000000000418 .LASF763
C:\Users\CYMR90~1\AppData\Local\Temp\cchaIJlx.s:21179  .debug_str:0000000000005736 .LASF764
C:\Users\CYMR90~1\AppData\Local\Temp\cchaIJlx.s:5208   .debug_macro:0000000000000000 .Ldebug_macro31
C:\Users\CYMR90~1\AppData\Local\Temp\cchaIJlx.s:5222   .debug_macro:0000000000000000 .Ldebug_macro32
C:\Users\CYMR90~1\AppData\Local\Temp\cchaIJlx.s:5392   .debug_macro:0000000000000000 .Ldebug_macro33
C:\Users\CYMR90~1\AppData\Local\Temp\cchaIJlx.s:23629  .debug_str:000000000000f3ea .LASF850
C:\Users\CYMR90~1\AppData\Local\Temp\cchaIJlx.s:26006  .debug_str:0000000000018da1 .LASF851
C:\Users\CYMR90~1\AppData\Local\Temp\cchaIJlx.s:5478   .debug_macro:0000000000000000 .Ldebug_macro34
C:\Users\CYMR90~1\AppData\Local\Temp\cchaIJlx.s:5603   .debug_macro:0000000000000000 .Ldebug_macro35
C:\Users\CYMR90~1\AppData\Local\Temp\cchaIJlx.s:20141  .debug_str:000000000000152f .LASF951
C:\Users\CYMR90~1\AppData\Local\Temp\cchaIJlx.s:5815   .debug_macro:0000000000000000 .Ldebug_macro36
C:\Users\CYMR90~1\AppData\Local\Temp\cchaIJlx.s:21869  .debug_str:0000000000008400 .LASF957
C:\Users\CYMR90~1\AppData\Local\Temp\cchaIJlx.s:21425  .debug_str:000000000000661b .LASF958
C:\Users\CYMR90~1\AppData\Local\Temp\cchaIJlx.s:20309  .debug_str:0000000000002007 .LASF959
C:\Users\CYMR90~1\AppData\Local\Temp\cchaIJlx.s:5835   .debug_macro:0000000000000000 .Ldebug_macro37
C:\Users\CYMR90~1\AppData\Local\Temp\cchaIJlx.s:5927   .debug_macro:0000000000000000 .Ldebug_macro38
C:\Users\CYMR90~1\AppData\Local\Temp\cchaIJlx.s:7573   .debug_macro:0000000000000000 .Ldebug_macro39
C:\Users\CYMR90~1\AppData\Local\Temp\cchaIJlx.s:7665   .debug_macro:0000000000000000 .Ldebug_macro40
C:\Users\CYMR90~1\AppData\Local\Temp\cchaIJlx.s:7721   .debug_macro:0000000000000000 .Ldebug_macro41
C:\Users\CYMR90~1\AppData\Local\Temp\cchaIJlx.s:7735   .debug_macro:0000000000000000 .Ldebug_macro42
C:\Users\CYMR90~1\AppData\Local\Temp\cchaIJlx.s:25331  .debug_str:00000000000160fa .LASF1655
C:\Users\CYMR90~1\AppData\Local\Temp\cchaIJlx.s:22241  .debug_str:0000000000009b08 .LASF1656
C:\Users\CYMR90~1\AppData\Local\Temp\cchaIJlx.s:7959   .debug_macro:0000000000000000 .Ldebug_macro43
C:\Users\CYMR90~1\AppData\Local\Temp\cchaIJlx.s:8006   .debug_macro:0000000000000000 .Ldebug_macro44
C:\Users\CYMR90~1\AppData\Local\Temp\cchaIJlx.s:8161   .debug_macro:0000000000000000 .Ldebug_macro45
C:\Users\CYMR90~1\AppData\Local\Temp\cchaIJlx.s:8217   .debug_macro:0000000000000000 .Ldebug_macro46
C:\Users\CYMR90~1\AppData\Local\Temp\cchaIJlx.s:8228   .debug_macro:0000000000000000 .Ldebug_macro47
C:\Users\CYMR90~1\AppData\Local\Temp\cchaIJlx.s:30218  .debug_str:0000000000029bc0 .LASF1782
C:\Users\CYMR90~1\AppData\Local\Temp\cchaIJlx.s:25095  .debug_str:0000000000015276 .LASF1783
C:\Users\CYMR90~1\AppData\Local\Temp\cchaIJlx.s:8359   .debug_macro:0000000000000000 .Ldebug_macro48
C:\Users\CYMR90~1\AppData\Local\Temp\cchaIJlx.s:8931   .debug_macro:0000000000000000 .Ldebug_macro49
C:\Users\CYMR90~1\AppData\Local\Temp\cchaIJlx.s:8960   .debug_macro:0000000000000000 .Ldebug_macro50
C:\Users\CYMR90~1\AppData\Local\Temp\cchaIJlx.s:9037   .debug_macro:0000000000000000 .Ldebug_macro51
C:\Users\CYMR90~1\AppData\Local\Temp\cchaIJlx.s:9570   .debug_macro:0000000000000000 .Ldebug_macro52
C:\Users\CYMR90~1\AppData\Local\Temp\cchaIJlx.s:9593   .debug_macro:0000000000000000 .Ldebug_macro53
C:\Users\CYMR90~1\AppData\Local\Temp\cchaIJlx.s:9859   .debug_macro:0000000000000000 .Ldebug_macro54
C:\Users\CYMR90~1\AppData\Local\Temp\cchaIJlx.s:10338  .debug_macro:0000000000000000 .Ldebug_macro55
C:\Users\CYMR90~1\AppData\Local\Temp\cchaIJlx.s:10667  .debug_macro:0000000000000000 .Ldebug_macro56
C:\Users\CYMR90~1\AppData\Local\Temp\cchaIJlx.s:10756  .debug_macro:0000000000000000 .Ldebug_macro57
C:\Users\CYMR90~1\AppData\Local\Temp\cchaIJlx.s:11571  .debug_macro:0000000000000000 .Ldebug_macro58
C:\Users\CYMR90~1\AppData\Local\Temp\cchaIJlx.s:11762  .debug_macro:0000000000000000 .Ldebug_macro59
C:\Users\CYMR90~1\AppData\Local\Temp\cchaIJlx.s:12265  .debug_macro:0000000000000000 .Ldebug_macro60
C:\Users\CYMR90~1\AppData\Local\Temp\cchaIJlx.s:12411  .debug_macro:0000000000000000 .Ldebug_macro61
C:\Users\CYMR90~1\AppData\Local\Temp\cchaIJlx.s:12941  .debug_macro:0000000000000000 .Ldebug_macro62
C:\Users\CYMR90~1\AppData\Local\Temp\cchaIJlx.s:13363  .debug_macro:0000000000000000 .Ldebug_macro63
C:\Users\CYMR90~1\AppData\Local\Temp\cchaIJlx.s:16137  .debug_macro:0000000000000000 .Ldebug_macro64
C:\Users\CYMR90~1\AppData\Local\Temp\cchaIJlx.s:17213  .debug_macro:0000000000000000 .Ldebug_macro65
C:\Users\CYMR90~1\AppData\Local\Temp\cchaIJlx.s:17482  .debug_macro:0000000000000000 .Ldebug_macro66
C:\Users\CYMR90~1\AppData\Local\Temp\cchaIJlx.s:17754  .debug_macro:0000000000000000 .Ldebug_macro67
C:\Users\CYMR90~1\AppData\Local\Temp\cchaIJlx.s:18782  .debug_macro:0000000000000000 .Ldebug_macro68
C:\Users\CYMR90~1\AppData\Local\Temp\cchaIJlx.s:18826  .debug_macro:0000000000000000 .Ldebug_macro69
C:\Users\CYMR90~1\AppData\Local\Temp\cchaIJlx.s:19452  .debug_macro:0000000000000000 .Ldebug_macro70
C:\Users\CYMR90~1\AppData\Local\Temp\cchaIJlx.s:19511  .debug_macro:0000000000000000 .Ldebug_macro71
C:\Users\CYMR90~1\AppData\Local\Temp\cchaIJlx.s:21737  .debug_str:0000000000007a82 .LASF5556
C:\Users\CYMR90~1\AppData\Local\Temp\cchaIJlx.s:21161  .debug_str:00000000000055fb .LASF0
C:\Users\CYMR90~1\AppData\Local\Temp\cchaIJlx.s:25520  .debug_str:0000000000016f80 .LASF1
C:\Users\CYMR90~1\AppData\Local\Temp\cchaIJlx.s:23793  .debug_str:000000000000fe98 .LASF2
C:\Users\CYMR90~1\AppData\Local\Temp\cchaIJlx.s:23849  .debug_str:0000000000010214 .LASF3
C:\Users\CYMR90~1\AppData\Local\Temp\cchaIJlx.s:25139  .debug_str:00000000000154b9 .LASF4
C:\Users\CYMR90~1\AppData\Local\Temp\cchaIJlx.s:30608  .debug_str:000000000002b34c .LASF5
C:\Users\CYMR90~1\AppData\Local\Temp\cchaIJlx.s:21401  .debug_str:00000000000064de .LASF6
C:\Users\CYMR90~1\AppData\Local\Temp\cchaIJlx.s:20645  .debug_str:00000000000034d3 .LASF7
C:\Users\CYMR90~1\AppData\Local\Temp\cchaIJlx.s:28914  .debug_str:00000000000245bf .LASF8
C:\Users\CYMR90~1\AppData\Local\Temp\cchaIJlx.s:26852  .debug_str:000000000001c4dd .LASF9
C:\Users\CYMR90~1\AppData\Local\Temp\cchaIJlx.s:26208  .debug_str:0000000000019b94 .LASF10
C:\Users\CYMR90~1\AppData\Local\Temp\cchaIJlx.s:26062  .debug_str:00000000000191ff .LASF11
C:\Users\CYMR90~1\AppData\Local\Temp\cchaIJlx.s:30450  .debug_str:000000000002a9a0 .LASF12
C:\Users\CYMR90~1\AppData\Local\Temp\cchaIJlx.s:26074  .debug_str:00000000000192b3 .LASF13
C:\Users\CYMR90~1\AppData\Local\Temp\cchaIJlx.s:22395  .debug_str:000000000000a4c6 .LASF14
C:\Users\CYMR90~1\AppData\Local\Temp\cchaIJlx.s:27418  .debug_str:000000000001e9f8 .LASF15
C:\Users\CYMR90~1\AppData\Local\Temp\cchaIJlx.s:28170  .debug_str:000000000002178c .LASF16
C:\Users\CYMR90~1\AppData\Local\Temp\cchaIJlx.s:22443  .debug_str:000000000000a7aa .LASF17
C:\Users\CYMR90~1\AppData\Local\Temp\cchaIJlx.s:29186  .debug_str:000000000002593a .LASF18
C:\Users\CYMR90~1\AppData\Local\Temp\cchaIJlx.s:23407  .debug_str:000000000000e652 .LASF19
C:\Users\CYMR90~1\AppData\Local\Temp\cchaIJlx.s:20479  .debug_str:0000000000002a2e .LASF20
C:\Users\CYMR90~1\AppData\Local\Temp\cchaIJlx.s:25878  .debug_str:0000000000018528 .LASF21
C:\Users\CYMR90~1\AppData\Local\Temp\cchaIJlx.s:25876  .debug_str:000000000001850e .LASF22
C:\Users\CYMR90~1\AppData\Local\Temp\cchaIJlx.s:28476  .debug_str:0000000000022a3b .LASF23
C:\Users\CYMR90~1\AppData\Local\Temp\cchaIJlx.s:26806  .debug_str:000000000001c25b .LASF24
C:\Users\CYMR90~1\AppData\Local\Temp\cchaIJlx.s:20701  .debug_str:000000000000386a .LASF25
C:\Users\CYMR90~1\AppData\Local\Temp\cchaIJlx.s:25267  .debug_str:0000000000015c8a .LASF26
C:\Users\CYMR90~1\AppData\Local\Temp\cchaIJlx.s:28480  .debug_str:0000000000022a71 .LASF27
C:\Users\CYMR90~1\AppData\Local\Temp\cchaIJlx.s:28178  .debug_str:00000000000217e4 .LASF28
C:\Users\CYMR90~1\AppData\Local\Temp\cchaIJlx.s:21113  .debug_str:0000000000005329 .LASF29
C:\Users\CYMR90~1\AppData\Local\Temp\cchaIJlx.s:27210  .debug_str:000000000001dd3b .LASF30
C:\Users\CYMR90~1\AppData\Local\Temp\cchaIJlx.s:20091  .debug_str:000000000000125c .LASF31
C:\Users\CYMR90~1\AppData\Local\Temp\cchaIJlx.s:27654  .debug_str:000000000001f7e8 .LASF32
C:\Users\CYMR90~1\AppData\Local\Temp\cchaIJlx.s:22283  .debug_str:0000000000009d73 .LASF33
C:\Users\CYMR90~1\AppData\Local\Temp\cchaIJlx.s:22133  .debug_str:00000000000093d3 .LASF34
C:\Users\CYMR90~1\AppData\Local\Temp\cchaIJlx.s:23437  .debug_str:000000000000e81d .LASF35
C:\Users\CYMR90~1\AppData\Local\Temp\cchaIJlx.s:26316  .debug_str:000000000001a1c0 .LASF36
C:\Users\CYMR90~1\AppData\Local\Temp\cchaIJlx.s:21639  .debug_str:000000000000740c .LASF37
C:\Users\CYMR90~1\AppData\Local\Temp\cchaIJlx.s:23791  .debug_str:000000000000fe75 .LASF38
C:\Users\CYMR90~1\AppData\Local\Temp\cchaIJlx.s:20667  .debug_str:0000000000003600 .LASF39
C:\Users\CYMR90~1\AppData\Local\Temp\cchaIJlx.s:20471  .debug_str:000000000000299c .LASF40
C:\Users\CYMR90~1\AppData\Local\Temp\cchaIJlx.s:23951  .debug_str:0000000000010828 .LASF41
C:\Users\CYMR90~1\AppData\Local\Temp\cchaIJlx.s:24371  .debug_str:0000000000012414 .LASF42
C:\Users\CYMR90~1\AppData\Local\Temp\cchaIJlx.s:24641  .debug_str:0000000000013632 .LASF43
C:\Users\CYMR90~1\AppData\Local\Temp\cchaIJlx.s:26306  .debug_str:000000000001a12e .LASF44
C:\Users\CYMR90~1\AppData\Local\Temp\cchaIJlx.s:24233  .debug_str:0000000000011ac8 .LASF45
C:\Users\CYMR90~1\AppData\Local\Temp\cchaIJlx.s:20935  .debug_str:00000000000047d4 .LASF46
C:\Users\CYMR90~1\AppData\Local\Temp\cchaIJlx.s:27216  .debug_str:000000000001dda0 .LASF47
C:\Users\CYMR90~1\AppData\Local\Temp\cchaIJlx.s:28916  .debug_str:00000000000245d4 .LASF48
C:\Users\CYMR90~1\AppData\Local\Temp\cchaIJlx.s:23175  .debug_str:000000000000d833 .LASF49
C:\Users\CYMR90~1\AppData\Local\Temp\cchaIJlx.s:20305  .debug_str:0000000000001fd4 .LASF50
C:\Users\CYMR90~1\AppData\Local\Temp\cchaIJlx.s:19815  .debug_str:0000000000000131 .LASF51
C:\Users\CYMR90~1\AppData\Local\Temp\cchaIJlx.s:30230  .debug_str:0000000000029c55 .LASF52
C:\Users\CYMR90~1\AppData\Local\Temp\cchaIJlx.s:22981  .debug_str:000000000000cb98 .LASF53
C:\Users\CYMR90~1\AppData\Local\Temp\cchaIJlx.s:24719  .debug_str:0000000000013ace .LASF54
C:\Users\CYMR90~1\AppData\Local\Temp\cchaIJlx.s:23757  .debug_str:000000000000fc24 .LASF55
C:\Users\CYMR90~1\AppData\Local\Temp\cchaIJlx.s:21725  .debug_str:0000000000007979 .LASF56
C:\Users\CYMR90~1\AppData\Local\Temp\cchaIJlx.s:25121  .debug_str:00000000000153bd .LASF57
C:\Users\CYMR90~1\AppData\Local\Temp\cchaIJlx.s:20043  .debug_str:0000000000000f8c .LASF58
C:\Users\CYMR90~1\AppData\Local\Temp\cchaIJlx.s:29190  .debug_str:000000000002597a .LASF59
C:\Users\CYMR90~1\AppData\Local\Temp\cchaIJlx.s:24649  .debug_str:00000000000136a1 .LASF60
C:\Users\CYMR90~1\AppData\Local\Temp\cchaIJlx.s:26588  .debug_str:000000000001b528 .LASF61
C:\Users\CYMR90~1\AppData\Local\Temp\cchaIJlx.s:20535  .debug_str:0000000000002d8c .LASF62
C:\Users\CYMR90~1\AppData\Local\Temp\cchaIJlx.s:23169  .debug_str:000000000000d7ef .LASF63
C:\Users\CYMR90~1\AppData\Local\Temp\cchaIJlx.s:22895  .debug_str:000000000000c538 .LASF64
C:\Users\CYMR90~1\AppData\Local\Temp\cchaIJlx.s:26292  .debug_str:000000000001a065 .LASF65
C:\Users\CYMR90~1\AppData\Local\Temp\cchaIJlx.s:24955  .debug_str:0000000000014920 .LASF66
C:\Users\CYMR90~1\AppData\Local\Temp\cchaIJlx.s:30014  .debug_str:0000000000028e97 .LASF67
C:\Users\CYMR90~1\AppData\Local\Temp\cchaIJlx.s:30452  .debug_str:000000000002a9b3 .LASF68
C:\Users\CYMR90~1\AppData\Local\Temp\cchaIJlx.s:24187  .debug_str:000000000001178b .LASF69
C:\Users\CYMR90~1\AppData\Local\Temp\cchaIJlx.s:23329  .debug_str:000000000000e178 .LASF70
C:\Users\CYMR90~1\AppData\Local\Temp\cchaIJlx.s:20947  .debug_str:0000000000004927 .LASF71
C:\Users\CYMR90~1\AppData\Local\Temp\cchaIJlx.s:24221  .debug_str:0000000000011a05 .LASF72
C:\Users\CYMR90~1\AppData\Local\Temp\cchaIJlx.s:23857  .debug_str:0000000000010285 .LASF73
C:\Users\CYMR90~1\AppData\Local\Temp\cchaIJlx.s:24455  .debug_str:00000000000129cf .LASF74
C:\Users\CYMR90~1\AppData\Local\Temp\cchaIJlx.s:24293  .debug_str:0000000000011e99 .LASF75
C:\Users\CYMR90~1\AppData\Local\Temp\cchaIJlx.s:24395  .debug_str:00000000000125ba .LASF76
C:\Users\CYMR90~1\AppData\Local\Temp\cchaIJlx.s:28834  .debug_str:0000000000024052 .LASF77
C:\Users\CYMR90~1\AppData\Local\Temp\cchaIJlx.s:26782  .debug_str:000000000001c0f5 .LASF78
C:\Users\CYMR90~1\AppData\Local\Temp\cchaIJlx.s:27178  .debug_str:000000000001db51 .LASF79
C:\Users\CYMR90~1\AppData\Local\Temp\cchaIJlx.s:29994  .debug_str:0000000000028d48 .LASF80
C:\Users\CYMR90~1\AppData\Local\Temp\cchaIJlx.s:22235  .debug_str:0000000000009a90 .LASF81
C:\Users\CYMR90~1\AppData\Local\Temp\cchaIJlx.s:22429  .debug_str:000000000000a676 .LASF82
C:\Users\CYMR90~1\AppData\Local\Temp\cchaIJlx.s:30124  .debug_str:000000000002964a .LASF83
C:\Users\CYMR90~1\AppData\Local\Temp\cchaIJlx.s:22175  .debug_str:0000000000009675 .LASF84
C:\Users\CYMR90~1\AppData\Local\Temp\cchaIJlx.s:21461  .debug_str:0000000000006876 .LASF85
C:\Users\CYMR90~1\AppData\Local\Temp\cchaIJlx.s:26490  .debug_str:000000000001aed3 .LASF86
C:\Users\CYMR90~1\AppData\Local\Temp\cchaIJlx.s:30154  .debug_str:00000000000297c9 .LASF87
C:\Users\CYMR90~1\AppData\Local\Temp\cchaIJlx.s:27596  .debug_str:000000000001f480 .LASF88
C:\Users\CYMR90~1\AppData\Local\Temp\cchaIJlx.s:26408  .debug_str:000000000001a991 .LASF89
C:\Users\CYMR90~1\AppData\Local\Temp\cchaIJlx.s:27624  .debug_str:000000000001f622 .LASF90
C:\Users\CYMR90~1\AppData\Local\Temp\cchaIJlx.s:30358  .debug_str:000000000002a423 .LASF91
C:\Users\CYMR90~1\AppData\Local\Temp\cchaIJlx.s:29198  .debug_str:00000000000259f2 .LASF92
C:\Users\CYMR90~1\AppData\Local\Temp\cchaIJlx.s:22311  .debug_str:0000000000009f4c .LASF93
C:\Users\CYMR90~1\AppData\Local\Temp\cchaIJlx.s:27058  .debug_str:000000000001d3b5 .LASF94
C:\Users\CYMR90~1\AppData\Local\Temp\cchaIJlx.s:24679  .debug_str:0000000000013883 .LASF95
C:\Users\CYMR90~1\AppData\Local\Temp\cchaIJlx.s:24661  .debug_str:000000000001376a .LASF96
C:\Users\CYMR90~1\AppData\Local\Temp\cchaIJlx.s:30658  .debug_str:000000000002b6b0 .LASF97
C:\Users\CYMR90~1\AppData\Local\Temp\cchaIJlx.s:24307  .debug_str:0000000000012011 .LASF98
C:\Users\CYMR90~1\AppData\Local\Temp\cchaIJlx.s:28196  .debug_str:0000000000021908 .LASF99
C:\Users\CYMR90~1\AppData\Local\Temp\cchaIJlx.s:21673  .debug_str:0000000000007618 .LASF100
C:\Users\CYMR90~1\AppData\Local\Temp\cchaIJlx.s:23805  .debug_str:000000000000ff23 .LASF101
C:\Users\CYMR90~1\AppData\Local\Temp\cchaIJlx.s:25185  .debug_str:000000000001572e .LASF102
C:\Users\CYMR90~1\AppData\Local\Temp\cchaIJlx.s:24077  .debug_str:0000000000010fec .LASF103
C:\Users\CYMR90~1\AppData\Local\Temp\cchaIJlx.s:23083  .debug_str:000000000000d236 .LASF104
C:\Users\CYMR90~1\AppData\Local\Temp\cchaIJlx.s:24243  .debug_str:0000000000011b5f .LASF105
C:\Users\CYMR90~1\AppData\Local\Temp\cchaIJlx.s:20995  .debug_str:0000000000004c13 .LASF106
C:\Users\CYMR90~1\AppData\Local\Temp\cchaIJlx.s:24071  .debug_str:0000000000010f87 .LASF107
C:\Users\CYMR90~1\AppData\Local\Temp\cchaIJlx.s:23079  .debug_str:000000000000d212 .LASF108
C:\Users\CYMR90~1\AppData\Local\Temp\cchaIJlx.s:24511  .debug_str:0000000000012d40 .LASF109
C:\Users\CYMR90~1\AppData\Local\Temp\cchaIJlx.s:23461  .debug_str:000000000000e9b7 .LASF110
C:\Users\CYMR90~1\AppData\Local\Temp\cchaIJlx.s:25928  .debug_str:0000000000018829 .LASF111
C:\Users\CYMR90~1\AppData\Local\Temp\cchaIJlx.s:22567  .debug_str:000000000000aff5 .LASF112
C:\Users\CYMR90~1\AppData\Local\Temp\cchaIJlx.s:22309  .debug_str:0000000000009f23 .LASF113
C:\Users\CYMR90~1\AppData\Local\Temp\cchaIJlx.s:25217  .debug_str:000000000001592e .LASF114
C:\Users\CYMR90~1\AppData\Local\Temp\cchaIJlx.s:30054  .debug_str:0000000000029192 .LASF115
C:\Users\CYMR90~1\AppData\Local\Temp\cchaIJlx.s:28716  .debug_str:0000000000023891 .LASF116
C:\Users\CYMR90~1\AppData\Local\Temp\cchaIJlx.s:22067  .debug_str:0000000000008ff9 .LASF117
C:\Users\CYMR90~1\AppData\Local\Temp\cchaIJlx.s:26648  .debug_str:000000000001b8ce .LASF118
C:\Users\CYMR90~1\AppData\Local\Temp\cchaIJlx.s:30768  .debug_str:000000000002be24 .LASF119
C:\Users\CYMR90~1\AppData\Local\Temp\cchaIJlx.s:23379  .debug_str:000000000000e44c .LASF120
C:\Users\CYMR90~1\AppData\Local\Temp\cchaIJlx.s:28816  .debug_str:0000000000023e54 .LASF121
C:\Users\CYMR90~1\AppData\Local\Temp\cchaIJlx.s:22859  .debug_str:000000000000c301 .LASF122
C:\Users\CYMR90~1\AppData\Local\Temp\cchaIJlx.s:22967  .debug_str:000000000000cada .LASF123
C:\Users\CYMR90~1\AppData\Local\Temp\cchaIJlx.s:20641  .debug_str:0000000000003494 .LASF124
C:\Users\CYMR90~1\AppData\Local\Temp\cchaIJlx.s:20909  .debug_str:0000000000004612 .LASF125
C:\Users\CYMR90~1\AppData\Local\Temp\cchaIJlx.s:29734  .debug_str:0000000000027bab .LASF126
C:\Users\CYMR90~1\AppData\Local\Temp\cchaIJlx.s:24249  .debug_str:0000000000011b9d .LASF127
C:\Users\CYMR90~1\AppData\Local\Temp\cchaIJlx.s:27032  .debug_str:000000000001d234 .LASF128
C:\Users\CYMR90~1\AppData\Local\Temp\cchaIJlx.s:22141  .debug_str:000000000000944b .LASF129
C:\Users\CYMR90~1\AppData\Local\Temp\cchaIJlx.s:29312  .debug_str:00000000000260d1 .LASF130
C:\Users\CYMR90~1\AppData\Local\Temp\cchaIJlx.s:29612  .debug_str:00000000000273b8 .LASF131
C:\Users\CYMR90~1\AppData\Local\Temp\cchaIJlx.s:29426  .debug_str:00000000000267fc .LASF132
C:\Users\CYMR90~1\AppData\Local\Temp\cchaIJlx.s:23353  .debug_str:000000000000e2b5 .LASF133
C:\Users\CYMR90~1\AppData\Local\Temp\cchaIJlx.s:28732  .debug_str:000000000002396a .LASF134
C:\Users\CYMR90~1\AppData\Local\Temp\cchaIJlx.s:20901  .debug_str:0000000000004589 .LASF135
C:\Users\CYMR90~1\AppData\Local\Temp\cchaIJlx.s:21773  .debug_str:0000000000007c82 .LASF136
C:\Users\CYMR90~1\AppData\Local\Temp\cchaIJlx.s:26792  .debug_str:000000000001c1a9 .LASF137
C:\Users\CYMR90~1\AppData\Local\Temp\cchaIJlx.s:24507  .debug_str:0000000000012d10 .LASF138
C:\Users\CYMR90~1\AppData\Local\Temp\cchaIJlx.s:29944  .debug_str:0000000000028a37 .LASF139
C:\Users\CYMR90~1\AppData\Local\Temp\cchaIJlx.s:29084  .debug_str:00000000000251f9 .LASF140
C:\Users\CYMR90~1\AppData\Local\Temp\cchaIJlx.s:26740  .debug_str:000000000001be69 .LASF141
C:\Users\CYMR90~1\AppData\Local\Temp\cchaIJlx.s:22271  .debug_str:0000000000009cb4 .LASF142
C:\Users\CYMR90~1\AppData\Local\Temp\cchaIJlx.s:30516  .debug_str:000000000002ad5b .LASF143
C:\Users\CYMR90~1\AppData\Local\Temp\cchaIJlx.s:25900  .debug_str:000000000001863c .LASF144
C:\Users\CYMR90~1\AppData\Local\Temp\cchaIJlx.s:24969  .debug_str:0000000000014a24 .LASF145
C:\Users\CYMR90~1\AppData\Local\Temp\cchaIJlx.s:22929  .debug_str:000000000000c7f7 .LASF146
C:\Users\CYMR90~1\AppData\Local\Temp\cchaIJlx.s:20945  .debug_str:0000000000004910 .LASF147
C:\Users\CYMR90~1\AppData\Local\Temp\cchaIJlx.s:23503  .debug_str:000000000000ec66 .LASF148
C:\Users\CYMR90~1\AppData\Local\Temp\cchaIJlx.s:25880  .debug_str:000000000001853c .LASF149
C:\Users\CYMR90~1\AppData\Local\Temp\cchaIJlx.s:19889  .debug_str:0000000000000571 .LASF150
C:\Users\CYMR90~1\AppData\Local\Temp\cchaIJlx.s:30998  .debug_str:000000000002cd2e .LASF151
C:\Users\CYMR90~1\AppData\Local\Temp\cchaIJlx.s:24501  .debug_str:0000000000012c8e .LASF152
C:\Users\CYMR90~1\AppData\Local\Temp\cchaIJlx.s:29090  .debug_str:000000000002524c .LASF153
C:\Users\CYMR90~1\AppData\Local\Temp\cchaIJlx.s:26936  .debug_str:000000000001cac3 .LASF154
C:\Users\CYMR90~1\AppData\Local\Temp\cchaIJlx.s:23913  .debug_str:00000000000105e9 .LASF155
C:\Users\CYMR90~1\AppData\Local\Temp\cchaIJlx.s:26950  .debug_str:000000000001cbb0 .LASF156
C:\Users\CYMR90~1\AppData\Local\Temp\cchaIJlx.s:27064  .debug_str:000000000001d41d .LASF157
C:\Users\CYMR90~1\AppData\Local\Temp\cchaIJlx.s:22791  .debug_str:000000000000bee2 .LASF158
C:\Users\CYMR90~1\AppData\Local\Temp\cchaIJlx.s:21873  .debug_str:0000000000008422 .LASF159
C:\Users\CYMR90~1\AppData\Local\Temp\cchaIJlx.s:26594  .debug_str:000000000001b57c .LASF160
C:\Users\CYMR90~1\AppData\Local\Temp\cchaIJlx.s:28002  .debug_str:0000000000020d2e .LASF161
C:\Users\CYMR90~1\AppData\Local\Temp\cchaIJlx.s:26200  .debug_str:0000000000019b02 .LASF162
C:\Users\CYMR90~1\AppData\Local\Temp\cchaIJlx.s:28724  .debug_str:0000000000023903 .LASF163
C:\Users\CYMR90~1\AppData\Local\Temp\cchaIJlx.s:30344  .debug_str:000000000002a355 .LASF164
C:\Users\CYMR90~1\AppData\Local\Temp\cchaIJlx.s:21629  .debug_str:0000000000007388 .LASF165
C:\Users\CYMR90~1\AppData\Local\Temp\cchaIJlx.s:30042  .debug_str:0000000000029063 .LASF166
C:\Users\CYMR90~1\AppData\Local\Temp\cchaIJlx.s:29868  .debug_str:0000000000028561 .LASF167
C:\Users\CYMR90~1\AppData\Local\Temp\cchaIJlx.s:28646  .debug_str:0000000000023415 .LASF168
C:\Users\CYMR90~1\AppData\Local\Temp\cchaIJlx.s:25662  .debug_str:00000000000177f7 .LASF169
C:\Users\CYMR90~1\AppData\Local\Temp\cchaIJlx.s:29488  .debug_str:0000000000026ba1 .LASF170
C:\Users\CYMR90~1\AppData\Local\Temp\cchaIJlx.s:25293  .debug_str:0000000000015e36 .LASF171
C:\Users\CYMR90~1\AppData\Local\Temp\cchaIJlx.s:26858  .debug_str:000000000001c532 .LASF172
C:\Users\CYMR90~1\AppData\Local\Temp\cchaIJlx.s:22263  .debug_str:0000000000009c40 .LASF173
C:\Users\CYMR90~1\AppData\Local\Temp\cchaIJlx.s:28538  .debug_str:0000000000022dc3 .LASF174
C:\Users\CYMR90~1\AppData\Local\Temp\cchaIJlx.s:21291  .debug_str:0000000000005df7 .LASF175
C:\Users\CYMR90~1\AppData\Local\Temp\cchaIJlx.s:22109  .debug_str:000000000000927f .LASF176
C:\Users\CYMR90~1\AppData\Local\Temp\cchaIJlx.s:20779  .debug_str:0000000000003d4e .LASF177
C:\Users\CYMR90~1\AppData\Local\Temp\cchaIJlx.s:26070  .debug_str:0000000000019271 .LASF178
C:\Users\CYMR90~1\AppData\Local\Temp\cchaIJlx.s:23021  .debug_str:000000000000ce3a .LASF179
C:\Users\CYMR90~1\AppData\Local\Temp\cchaIJlx.s:20299  .debug_str:0000000000001f4f .LASF180
C:\Users\CYMR90~1\AppData\Local\Temp\cchaIJlx.s:30654  .debug_str:000000000002b685 .LASF181
C:\Users\CYMR90~1\AppData\Local\Temp\cchaIJlx.s:20077  .debug_str:00000000000011b1 .LASF182
C:\Users\CYMR90~1\AppData\Local\Temp\cchaIJlx.s:24619  .debug_str:00000000000134a7 .LASF183
C:\Users\CYMR90~1\AppData\Local\Temp\cchaIJlx.s:25033  .debug_str:0000000000014e62 .LASF184
C:\Users\CYMR90~1\AppData\Local\Temp\cchaIJlx.s:29878  .debug_str:0000000000028610 .LASF185
C:\Users\CYMR90~1\AppData\Local\Temp\cchaIJlx.s:23123  .debug_str:000000000000d55f .LASF186
C:\Users\CYMR90~1\AppData\Local\Temp\cchaIJlx.s:21615  .debug_str:0000000000007262 .LASF187
C:\Users\CYMR90~1\AppData\Local\Temp\cchaIJlx.s:27574  .debug_str:000000000001f366 .LASF188
C:\Users\CYMR90~1\AppData\Local\Temp\cchaIJlx.s:23399  .debug_str:000000000000e5dd .LASF189
C:\Users\CYMR90~1\AppData\Local\Temp\cchaIJlx.s:24725  .debug_str:0000000000013b2d .LASF190
C:\Users\CYMR90~1\AppData\Local\Temp\cchaIJlx.s:28060  .debug_str:000000000002105f .LASF191
C:\Users\CYMR90~1\AppData\Local\Temp\cchaIJlx.s:25451  .debug_str:00000000000168fe .LASF192
C:\Users\CYMR90~1\AppData\Local\Temp\cchaIJlx.s:28290  .debug_str:0000000000021edc .LASF193
C:\Users\CYMR90~1\AppData\Local\Temp\cchaIJlx.s:21243  .debug_str:0000000000005b0c .LASF194
C:\Users\CYMR90~1\AppData\Local\Temp\cchaIJlx.s:20611  .debug_str:0000000000003281 .LASF195
C:\Users\CYMR90~1\AppData\Local\Temp\cchaIJlx.s:23221  .debug_str:000000000000dabc .LASF196
C:\Users\CYMR90~1\AppData\Local\Temp\cchaIJlx.s:24133  .debug_str:0000000000011356 .LASF197
C:\Users\CYMR90~1\AppData\Local\Temp\cchaIJlx.s:21099  .debug_str:0000000000005236 .LASF198
C:\Users\CYMR90~1\AppData\Local\Temp\cchaIJlx.s:29764  .debug_str:0000000000027dcc .LASF199
C:\Users\CYMR90~1\AppData\Local\Temp\cchaIJlx.s:27944  .debug_str:00000000000209ad .LASF200
C:\Users\CYMR90~1\AppData\Local\Temp\cchaIJlx.s:27072  .debug_str:000000000001d47b .LASF201
C:\Users\CYMR90~1\AppData\Local\Temp\cchaIJlx.s:22239  .debug_str:0000000000009ac7 .LASF202
C:\Users\CYMR90~1\AppData\Local\Temp\cchaIJlx.s:30210  .debug_str:0000000000029b2f .LASF203
C:\Users\CYMR90~1\AppData\Local\Temp\cchaIJlx.s:20623  .debug_str:0000000000003352 .LASF204
C:\Users\CYMR90~1\AppData\Local\Temp\cchaIJlx.s:23635  .debug_str:000000000000f444 .LASF205
C:\Users\CYMR90~1\AppData\Local\Temp\cchaIJlx.s:29952  .debug_str:0000000000028abe .LASF206
C:\Users\CYMR90~1\AppData\Local\Temp\cchaIJlx.s:24847  .debug_str:00000000000142a8 .LASF207
C:\Users\CYMR90~1\AppData\Local\Temp\cchaIJlx.s:27612  .debug_str:000000000001f580 .LASF208
C:\Users\CYMR90~1\AppData\Local\Temp\cchaIJlx.s:22855  .debug_str:000000000000c2d2 .LASF209
C:\Users\CYMR90~1\AppData\Local\Temp\cchaIJlx.s:30862  .debug_str:000000000002c452 .LASF210
C:\Users\CYMR90~1\AppData\Local\Temp\cchaIJlx.s:24817  .debug_str:00000000000140dd .LASF211
C:\Users\CYMR90~1\AppData\Local\Temp\cchaIJlx.s:27458  .debug_str:000000000001ec11 .LASF212
C:\Users\CYMR90~1\AppData\Local\Temp\cchaIJlx.s:26090  .debug_str:000000000001939f .LASF213
C:\Users\CYMR90~1\AppData\Local\Temp\cchaIJlx.s:21333  .debug_str:000000000000609b .LASF214
C:\Users\CYMR90~1\AppData\Local\Temp\cchaIJlx.s:24825  .debug_str:000000000001414d .LASF215
C:\Users\CYMR90~1\AppData\Local\Temp\cchaIJlx.s:26778  .debug_str:000000000001c0a5 .LASF216
C:\Users\CYMR90~1\AppData\Local\Temp\cchaIJlx.s:27720  .debug_str:000000000001fbfa .LASF217
C:\Users\CYMR90~1\AppData\Local\Temp\cchaIJlx.s:23713  .debug_str:000000000000f958 .LASF218
C:\Users\CYMR90~1\AppData\Local\Temp\cchaIJlx.s:29092  .debug_str:0000000000025288 .LASF219
C:\Users\CYMR90~1\AppData\Local\Temp\cchaIJlx.s:28908  .debug_str:000000000002455b .LASF220
C:\Users\CYMR90~1\AppData\Local\Temp\cchaIJlx.s:28440  .debug_str:00000000000227af .LASF221
C:\Users\CYMR90~1\AppData\Local\Temp\cchaIJlx.s:25105  .debug_str:00000000000152ed .LASF222
C:\Users\CYMR90~1\AppData\Local\Temp\cchaIJlx.s:21301  .debug_str:0000000000005e79 .LASF223
C:\Users\CYMR90~1\AppData\Local\Temp\cchaIJlx.s:21973  .debug_str:0000000000008a4f .LASF224
C:\Users\CYMR90~1\AppData\Local\Temp\cchaIJlx.s:30526  .debug_str:000000000002addf .LASF225
C:\Users\CYMR90~1\AppData\Local\Temp\cchaIJlx.s:23293  .debug_str:000000000000df4a .LASF226
C:\Users\CYMR90~1\AppData\Local\Temp\cchaIJlx.s:26932  .debug_str:000000000001ca95 .LASF227
C:\Users\CYMR90~1\AppData\Local\Temp\cchaIJlx.s:26788  .debug_str:000000000001c14b .LASF228
C:\Users\CYMR90~1\AppData\Local\Temp\cchaIJlx.s:23235  .debug_str:000000000000db99 .LASF229
C:\Users\CYMR90~1\AppData\Local\Temp\cchaIJlx.s:27498  .debug_str:000000000001ee7c .LASF230
C:\Users\CYMR90~1\AppData\Local\Temp\cchaIJlx.s:27260  .debug_str:000000000001e03d .LASF231
C:\Users\CYMR90~1\AppData\Local\Temp\cchaIJlx.s:21343  .debug_str:0000000000006158 .LASF232
C:\Users\CYMR90~1\AppData\Local\Temp\cchaIJlx.s:21925  .debug_str:000000000000872e .LASF233
C:\Users\CYMR90~1\AppData\Local\Temp\cchaIJlx.s:23905  .debug_str:0000000000010566 .LASF234
C:\Users\CYMR90~1\AppData\Local\Temp\cchaIJlx.s:23631  .debug_str:000000000000f3fc .LASF235
C:\Users\CYMR90~1\AppData\Local\Temp\cchaIJlx.s:28654  .debug_str:00000000000234c1 .LASF236
C:\Users\CYMR90~1\AppData\Local\Temp\cchaIJlx.s:23653  .debug_str:000000000000f54d .LASF237
C:\Users\CYMR90~1\AppData\Local\Temp\cchaIJlx.s:29308  .debug_str:0000000000026095 .LASF238
C:\Users\CYMR90~1\AppData\Local\Temp\cchaIJlx.s:28636  .debug_str:0000000000023372 .LASF239
C:\Users\CYMR90~1\AppData\Local\Temp\cchaIJlx.s:28874  .debug_str:000000000002432d .LASF240
C:\Users\CYMR90~1\AppData\Local\Temp\cchaIJlx.s:21741  .debug_str:0000000000007ac0 .LASF241
C:\Users\CYMR90~1\AppData\Local\Temp\cchaIJlx.s:23315  .debug_str:000000000000e097 .LASF242
C:\Users\CYMR90~1\AppData\Local\Temp\cchaIJlx.s:24289  .debug_str:0000000000011e31 .LASF243
C:\Users\CYMR90~1\AppData\Local\Temp\cchaIJlx.s:28664  .debug_str:0000000000023539 .LASF244
C:\Users\CYMR90~1\AppData\Local\Temp\cchaIJlx.s:24485  .debug_str:0000000000012b6e .LASF245
C:\Users\CYMR90~1\AppData\Local\Temp\cchaIJlx.s:27508  .debug_str:000000000001ef44 .LASF246
C:\Users\CYMR90~1\AppData\Local\Temp\cchaIJlx.s:25864  .debug_str:0000000000018428 .LASF247
C:\Users\CYMR90~1\AppData\Local\Temp\cchaIJlx.s:25383  .debug_str:00000000000163ef .LASF248
C:\Users\CYMR90~1\AppData\Local\Temp\cchaIJlx.s:26872  .debug_str:000000000001c645 .LASF249
C:\Users\CYMR90~1\AppData\Local\Temp\cchaIJlx.s:26256  .debug_str:0000000000019e35 .LASF250
C:\Users\CYMR90~1\AppData\Local\Temp\cchaIJlx.s:26808  .debug_str:000000000001c26a .LASF251
C:\Users\CYMR90~1\AppData\Local\Temp\cchaIJlx.s:28488  .debug_str:0000000000022af6 .LASF252
C:\Users\CYMR90~1\AppData\Local\Temp\cchaIJlx.s:23205  .debug_str:000000000000d9fa .LASF253
C:\Users\CYMR90~1\AppData\Local\Temp\cchaIJlx.s:29162  .debug_str:00000000000257ca .LASF254
C:\Users\CYMR90~1\AppData\Local\Temp\cchaIJlx.s:23063  .debug_str:000000000000d0f0 .LASF255
C:\Users\CYMR90~1\AppData\Local\Temp\cchaIJlx.s:26164  .debug_str:00000000000198b1 .LASF256
C:\Users\CYMR90~1\AppData\Local\Temp\cchaIJlx.s:23311  .debug_str:000000000000e050 .LASF257
C:\Users\CYMR90~1\AppData\Local\Temp\cchaIJlx.s:27446  .debug_str:000000000001eb42 .LASF258
C:\Users\CYMR90~1\AppData\Local\Temp\cchaIJlx.s:22529  .debug_str:000000000000acb9 .LASF259
C:\Users\CYMR90~1\AppData\Local\Temp\cchaIJlx.s:19965  .debug_str:0000000000000a5c .LASF260
C:\Users\CYMR90~1\AppData\Local\Temp\cchaIJlx.s:30266  .debug_str:0000000000029e7f .LASF261
C:\Users\CYMR90~1\AppData\Local\Temp\cchaIJlx.s:29746  .debug_str:0000000000027c51 .LASF262
C:\Users\CYMR90~1\AppData\Local\Temp\cchaIJlx.s:24797  .debug_str:0000000000013f5f .LASF263
C:\Users\CYMR90~1\AppData\Local\Temp\cchaIJlx.s:26762  .debug_str:000000000001bfb8 .LASF264
C:\Users\CYMR90~1\AppData\Local\Temp\cchaIJlx.s:23761  .debug_str:000000000000fc6b .LASF265
C:\Users\CYMR90~1\AppData\Local\Temp\cchaIJlx.s:23237  .debug_str:000000000000dbda .LASF266
C:\Users\CYMR90~1\AppData\Local\Temp\cchaIJlx.s:22579  .debug_str:000000000000b0ba .LASF267
C:\Users\CYMR90~1\AppData\Local\Temp\cchaIJlx.s:26860  .debug_str:000000000001c547 .LASF268
C:\Users\CYMR90~1\AppData\Local\Temp\cchaIJlx.s:22875  .debug_str:000000000000c427 .LASF269
C:\Users\CYMR90~1\AppData\Local\Temp\cchaIJlx.s:23825  .debug_str:0000000000010090 .LASF270
C:\Users\CYMR90~1\AppData\Local\Temp\cchaIJlx.s:24589  .debug_str:0000000000013284 .LASF271
C:\Users\CYMR90~1\AppData\Local\Temp\cchaIJlx.s:29410  .debug_str:0000000000026717 .LASF272
C:\Users\CYMR90~1\AppData\Local\Temp\cchaIJlx.s:21505  .debug_str:0000000000006b11 .LASF273
C:\Users\CYMR90~1\AppData\Local\Temp\cchaIJlx.s:20417  .debug_str:00000000000025ee .LASF274
C:\Users\CYMR90~1\AppData\Local\Temp\cchaIJlx.s:21597  .debug_str:000000000000712b .LASF275
C:\Users\CYMR90~1\AppData\Local\Temp\cchaIJlx.s:20671  .debug_str:000000000000363c .LASF276
C:\Users\CYMR90~1\AppData\Local\Temp\cchaIJlx.s:22775  .debug_str:000000000000bdce .LASF277
C:\Users\CYMR90~1\AppData\Local\Temp\cchaIJlx.s:20101  .debug_str:00000000000012d0 .LASF278
C:\Users\CYMR90~1\AppData\Local\Temp\cchaIJlx.s:21429  .debug_str:0000000000006645 .LASF279
C:\Users\CYMR90~1\AppData\Local\Temp\cchaIJlx.s:30064  .debug_str:0000000000029226 .LASF280
C:\Users\CYMR90~1\AppData\Local\Temp\cchaIJlx.s:22287  .debug_str:0000000000009dab .LASF281
C:\Users\CYMR90~1\AppData\Local\Temp\cchaIJlx.s:21397  .debug_str:00000000000064a1 .LASF282
C:\Users\CYMR90~1\AppData\Local\Temp\cchaIJlx.s:21295  .debug_str:0000000000005e27 .LASF283
C:\Users\CYMR90~1\AppData\Local\Temp\cchaIJlx.s:21055  .debug_str:0000000000004fa7 .LASF284
C:\Users\CYMR90~1\AppData\Local\Temp\cchaIJlx.s:28974  .debug_str:00000000000249ee .LASF285
C:\Users\CYMR90~1\AppData\Local\Temp\cchaIJlx.s:29778  .debug_str:0000000000027ee1 .LASF286
C:\Users\CYMR90~1\AppData\Local\Temp\cchaIJlx.s:30050  .debug_str:00000000000290c0 .LASF287
C:\Users\CYMR90~1\AppData\Local\Temp\cchaIJlx.s:29966  .debug_str:0000000000028b8f .LASF288
C:\Users\CYMR90~1\AppData\Local\Temp\cchaIJlx.s:30796  .debug_str:000000000002bff0 .LASF289
C:\Users\CYMR90~1\AppData\Local\Temp\cchaIJlx.s:25808  .debug_str:00000000000180e5 .LASF290
C:\Users\CYMR90~1\AppData\Local\Temp\cchaIJlx.s:24851  .debug_str:00000000000142ce .LASF291
C:\Users\CYMR90~1\AppData\Local\Temp\cchaIJlx.s:29010  .debug_str:0000000000024c59 .LASF292
C:\Users\CYMR90~1\AppData\Local\Temp\cchaIJlx.s:20695  .debug_str:0000000000003802 .LASF293
C:\Users\CYMR90~1\AppData\Local\Temp\cchaIJlx.s:27956  .debug_str:0000000000020a72 .LASF294
C:\Users\CYMR90~1\AppData\Local\Temp\cchaIJlx.s:20975  .debug_str:0000000000004ac5 .LASF295
C:\Users\CYMR90~1\AppData\Local\Temp\cchaIJlx.s:30388  .debug_str:000000000002a603 .LASF296
C:\Users\CYMR90~1\AppData\Local\Temp\cchaIJlx.s:30574  .debug_str:000000000002b0e5 .LASF297
C:\Users\CYMR90~1\AppData\Local\Temp\cchaIJlx.s:25682  .debug_str:0000000000017970 .LASF298
C:\Users\CYMR90~1\AppData\Local\Temp\cchaIJlx.s:19949  .debug_str:0000000000000956 .LASF299
C:\Users\CYMR90~1\AppData\Local\Temp\cchaIJlx.s:23733  .debug_str:000000000000fa99 .LASF300
C:\Users\CYMR90~1\AppData\Local\Temp\cchaIJlx.s:26432  .debug_str:000000000001ab09 .LASF301
C:\Users\CYMR90~1\AppData\Local\Temp\cchaIJlx.s:24963  .debug_str:0000000000014996 .LASF302
C:\Users\CYMR90~1\AppData\Local\Temp\cchaIJlx.s:24431  .debug_str:0000000000012821 .LASF303
C:\Users\CYMR90~1\AppData\Local\Temp\cchaIJlx.s:20341  .debug_str:0000000000002186 .LASF304
C:\Users\CYMR90~1\AppData\Local\Temp\cchaIJlx.s:22883  .debug_str:000000000000c4ab .LASF305
C:\Users\CYMR90~1\AppData\Local\Temp\cchaIJlx.s:28162  .debug_str:0000000000021726 .LASF306
C:\Users\CYMR90~1\AppData\Local\Temp\cchaIJlx.s:23749  .debug_str:000000000000fba2 .LASF307
C:\Users\CYMR90~1\AppData\Local\Temp\cchaIJlx.s:28994  .debug_str:0000000000024b44 .LASF308
C:\Users\CYMR90~1\AppData\Local\Temp\cchaIJlx.s:28604  .debug_str:000000000002317a .LASF309
C:\Users\CYMR90~1\AppData\Local\Temp\cchaIJlx.s:23295  .debug_str:000000000000df63 .LASF310
C:\Users\CYMR90~1\AppData\Local\Temp\cchaIJlx.s:29304  .debug_str:000000000002606a .LASF311
C:\Users\CYMR90~1\AppData\Local\Temp\cchaIJlx.s:28828  .debug_str:0000000000023feb .LASF312
C:\Users\CYMR90~1\AppData\Local\Temp\cchaIJlx.s:23003  .debug_str:000000000000cccc .LASF313
C:\Users\CYMR90~1\AppData\Local\Temp\cchaIJlx.s:25948  .debug_str:0000000000018983 .LASF316
C:\Users\CYMR90~1\AppData\Local\Temp\cchaIJlx.s:26308  .debug_str:000000000001a14b .LASF317
C:\Users\CYMR90~1\AppData\Local\Temp\cchaIJlx.s:26654  .debug_str:000000000001b90c .LASF318
C:\Users\CYMR90~1\AppData\Local\Temp\cchaIJlx.s:23741  .debug_str:000000000000fb36 .LASF319
C:\Users\CYMR90~1\AppData\Local\Temp\cchaIJlx.s:22647  .debug_str:000000000000b52d .LASF320
C:\Users\CYMR90~1\AppData\Local\Temp\cchaIJlx.s:30012  .debug_str:0000000000028e8b .LASF321
C:\Users\CYMR90~1\AppData\Local\Temp\cchaIJlx.s:23203  .debug_str:000000000000d9ed .LASF322
C:\Users\CYMR90~1\AppData\Local\Temp\cchaIJlx.s:29256  .debug_str:0000000000025d5e .LASF323
C:\Users\CYMR90~1\AppData\Local\Temp\cchaIJlx.s:19831  .debug_str:0000000000000230 .LASF324
C:\Users\CYMR90~1\AppData\Local\Temp\cchaIJlx.s:30408  .debug_str:000000000002a706 .LASF325
C:\Users\CYMR90~1\AppData\Local\Temp\cchaIJlx.s:20749  .debug_str:0000000000003b48 .LASF326
C:\Users\CYMR90~1\AppData\Local\Temp\cchaIJlx.s:24785  .debug_str:0000000000013ea2 .LASF327
C:\Users\CYMR90~1\AppData\Local\Temp\cchaIJlx.s:24433  .debug_str:0000000000012836 .LASF328
C:\Users\CYMR90~1\AppData\Local\Temp\cchaIJlx.s:27298  .debug_str:000000000001e279 .LASF329
C:\Users\CYMR90~1\AppData\Local\Temp\cchaIJlx.s:27290  .debug_str:000000000001e228 .LASF330
C:\Users\CYMR90~1\AppData\Local\Temp\cchaIJlx.s:29452  .debug_str:0000000000026994 .LASF331
C:\Users\CYMR90~1\AppData\Local\Temp\cchaIJlx.s:29992  .debug_str:0000000000028d39 .LASF332
C:\Users\CYMR90~1\AppData\Local\Temp\cchaIJlx.s:30176  .debug_str:000000000002991d .LASF333
C:\Users\CYMR90~1\AppData\Local\Temp\cchaIJlx.s:26282  .debug_str:0000000000019fd0 .LASF334
C:\Users\CYMR90~1\AppData\Local\Temp\cchaIJlx.s:25730  .debug_str:0000000000017c3b .LASF335
C:\Users\CYMR90~1\AppData\Local\Temp\cchaIJlx.s:30032  .debug_str:0000000000028fd4 .LASF336
C:\Users\CYMR90~1\AppData\Local\Temp\cchaIJlx.s:24353  .debug_str:00000000000122f6 .LASF337
C:\Users\CYMR90~1\AppData\Local\Temp\cchaIJlx.s:28010  .debug_str:0000000000020d9a .LASF338
C:\Users\CYMR90~1\AppData\Local\Temp\cchaIJlx.s:22399  .debug_str:000000000000a4ef .LASF339
C:\Users\CYMR90~1\AppData\Local\Temp\cchaIJlx.s:24571  .debug_str:000000000001314e .LASF340
C:\Users\CYMR90~1\AppData\Local\Temp\cchaIJlx.s:26482  .debug_str:000000000001ae21 .LASF341
C:\Users\CYMR90~1\AppData\Local\Temp\cchaIJlx.s:22709  .debug_str:000000000000b96a .LASF342
C:\Users\CYMR90~1\AppData\Local\Temp\cchaIJlx.s:20083  .debug_str:00000000000011fc .LASF343
C:\Users\CYMR90~1\AppData\Local\Temp\cchaIJlx.s:30144  .debug_str:0000000000029738 .LASF344
C:\Users\CYMR90~1\AppData\Local\Temp\cchaIJlx.s:30736  .debug_str:000000000002bbc7 .LASF345
C:\Users\CYMR90~1\AppData\Local\Temp\cchaIJlx.s:23621  .debug_str:000000000000f374 .LASF346
C:\Users\CYMR90~1\AppData\Local\Temp\cchaIJlx.s:19937  .debug_str:000000000000089f .LASF347
C:\Users\CYMR90~1\AppData\Local\Temp\cchaIJlx.s:27804  .debug_str:000000000002011a .LASF348
C:\Users\CYMR90~1\AppData\Local\Temp\cchaIJlx.s:29756  .debug_str:0000000000027d20 .LASF349
C:\Users\CYMR90~1\AppData\Local\Temp\cchaIJlx.s:27292  .debug_str:000000000001e234 .LASF350
C:\Users\CYMR90~1\AppData\Local\Temp\cchaIJlx.s:19869  .debug_str:0000000000000481 .LASF351
C:\Users\CYMR90~1\AppData\Local\Temp\cchaIJlx.s:27578  .debug_str:000000000001f396 .LASF352
C:\Users\CYMR90~1\AppData\Local\Temp\cchaIJlx.s:29248  .debug_str:0000000000025cf4 .LASF353
C:\Users\CYMR90~1\AppData\Local\Temp\cchaIJlx.s:26918  .debug_str:000000000001c9e3 .LASF354
C:\Users\CYMR90~1\AppData\Local\Temp\cchaIJlx.s:27088  .debug_str:000000000001d5b8 .LASF355
C:\Users\CYMR90~1\AppData\Local\Temp\cchaIJlx.s:23089  .debug_str:000000000000d32c .LASF356
C:\Users\CYMR90~1\AppData\Local\Temp\cchaIJlx.s:26240  .debug_str:0000000000019d63 .LASF357
C:\Users\CYMR90~1\AppData\Local\Temp\cchaIJlx.s:29668  .debug_str:0000000000027719 .LASF358
C:\Users\CYMR90~1\AppData\Local\Temp\cchaIJlx.s:24423  .debug_str:0000000000012776 .LASF359
C:\Users\CYMR90~1\AppData\Local\Temp\cchaIJlx.s:22499  .debug_str:000000000000aaf1 .LASF360
C:\Users\CYMR90~1\AppData\Local\Temp\cchaIJlx.s:27460  .debug_str:000000000001ec29 .LASF361
C:\Users\CYMR90~1\AppData\Local\Temp\cchaIJlx.s:24157  .debug_str:0000000000011509 .LASF362
C:\Users\CYMR90~1\AppData\Local\Temp\cchaIJlx.s:29936  .debug_str:00000000000289b7 .LASF363
C:\Users\CYMR90~1\AppData\Local\Temp\cchaIJlx.s:22051  .debug_str:0000000000008f25 .LASF364
C:\Users\CYMR90~1\AppData\Local\Temp\cchaIJlx.s:29828  .debug_str:0000000000028287 .LASF365
C:\Users\CYMR90~1\AppData\Local\Temp\cchaIJlx.s:21465  .debug_str:00000000000068db .LASF366
C:\Users\CYMR90~1\AppData\Local\Temp\cchaIJlx.s:24561  .debug_str:000000000001308a .LASF367
C:\Users\CYMR90~1\AppData\Local\Temp\cchaIJlx.s:21749  .debug_str:0000000000007b3e .LASF368
C:\Users\CYMR90~1\AppData\Local\Temp\cchaIJlx.s:25776  .debug_str:0000000000017f08 .LASF372
C:\Users\CYMR90~1\AppData\Local\Temp\cchaIJlx.s:29490  .debug_str:0000000000026be6 .LASF373
C:\Users\CYMR90~1\AppData\Local\Temp\cchaIJlx.s:22481  .debug_str:000000000000a9bf .LASF374
C:\Users\CYMR90~1\AppData\Local\Temp\cchaIJlx.s:25562  .debug_str:00000000000171e8 .LASF375
C:\Users\CYMR90~1\AppData\Local\Temp\cchaIJlx.s:25762  .debug_str:0000000000017e40 .LASF376
C:\Users\CYMR90~1\AppData\Local\Temp\cchaIJlx.s:28256  .debug_str:0000000000021cf8 .LASF377
C:\Users\CYMR90~1\AppData\Local\Temp\cchaIJlx.s:26934  .debug_str:000000000001caae .LASF378
C:\Users\CYMR90~1\AppData\Local\Temp\cchaIJlx.s:30566  .debug_str:000000000002b072 .LASF379
C:\Users\CYMR90~1\AppData\Local\Temp\cchaIJlx.s:20433  .debug_str:0000000000002725 .LASF380
C:\Users\CYMR90~1\AppData\Local\Temp\cchaIJlx.s:30508  .debug_str:000000000002acf3 .LASF381
C:\Users\CYMR90~1\AppData\Local\Temp\cchaIJlx.s:26662  .debug_str:000000000001b95d .LASF382
C:\Users\CYMR90~1\AppData\Local\Temp\cchaIJlx.s:21521  .debug_str:0000000000006c1e .LASF383
C:\Users\CYMR90~1\AppData\Local\Temp\cchaIJlx.s:22857  .debug_str:000000000000c2ed .LASF384
C:\Users\CYMR90~1\AppData\Local\Temp\cchaIJlx.s:26182  .debug_str:00000000000199e5 .LASF385
C:\Users\CYMR90~1\AppData\Local\Temp\cchaIJlx.s:23853  .debug_str:0000000000010256 .LASF386
C:\Users\CYMR90~1\AppData\Local\Temp\cchaIJlx.s:20365  .debug_str:000000000000230c .LASF387
C:\Users\CYMR90~1\AppData\Local\Temp\cchaIJlx.s:23463  .debug_str:000000000000e9d7 .LASF388
C:\Users\CYMR90~1\AppData\Local\Temp\cchaIJlx.s:22023  .debug_str:0000000000008d7d .LASF389
C:\Users\CYMR90~1\AppData\Local\Temp\cchaIJlx.s:20839  .debug_str:0000000000004194 .LASF391
C:\Users\CYMR90~1\AppData\Local\Temp\cchaIJlx.s:23861  .debug_str:00000000000102c2 .LASF392
C:\Users\CYMR90~1\AppData\Local\Temp\cchaIJlx.s:27904  .debug_str:000000000002075a .LASF393
C:\Users\CYMR90~1\AppData\Local\Temp\cchaIJlx.s:29626  .debug_str:0000000000027484 .LASF394
C:\Users\CYMR90~1\AppData\Local\Temp\cchaIJlx.s:20391  .debug_str:000000000000246a .LASF395
C:\Users\CYMR90~1\AppData\Local\Temp\cchaIJlx.s:22523  .debug_str:000000000000ac55 .LASF396
C:\Users\CYMR90~1\AppData\Local\Temp\cchaIJlx.s:26288  .debug_str:000000000001a030 .LASF397
C:\Users\CYMR90~1\AppData\Local\Temp\cchaIJlx.s:30386  .debug_str:000000000002a5f1 .LASF398
C:\Users\CYMR90~1\AppData\Local\Temp\cchaIJlx.s:25133  .debug_str:0000000000015486 .LASF399
C:\Users\CYMR90~1\AppData\Local\Temp\cchaIJlx.s:27538  .debug_str:000000000001f10f .LASF400
C:\Users\CYMR90~1\AppData\Local\Temp\cchaIJlx.s:22013  .debug_str:0000000000008c88 .LASF401
C:\Users\CYMR90~1\AppData\Local\Temp\cchaIJlx.s:25614  .debug_str:00000000000174ed .LASF402
C:\Users\CYMR90~1\AppData\Local\Temp\cchaIJlx.s:21363  .debug_str:0000000000006298 .LASF403
C:\Users\CYMR90~1\AppData\Local\Temp\cchaIJlx.s:22457  .debug_str:000000000000a85a .LASF404
C:\Users\CYMR90~1\AppData\Local\Temp\cchaIJlx.s:23519  .debug_str:000000000000ed35 .LASF405
C:\Users\CYMR90~1\AppData\Local\Temp\cchaIJlx.s:26844  .debug_str:000000000001c471 .LASF406
C:\Users\CYMR90~1\AppData\Local\Temp\cchaIJlx.s:25057  .debug_str:000000000001500f .LASF407
C:\Users\CYMR90~1\AppData\Local\Temp\cchaIJlx.s:26022  .debug_str:0000000000018ea3 .LASF408
C:\Users\CYMR90~1\AppData\Local\Temp\cchaIJlx.s:28204  .debug_str:00000000000219a5 .LASF409
C:\Users\CYMR90~1\AppData\Local\Temp\cchaIJlx.s:21315  .debug_str:0000000000005f9a .LASF410
C:\Users\CYMR90~1\AppData\Local\Temp\cchaIJlx.s:25243  .debug_str:0000000000015ad0 .LASF411
C:\Users\CYMR90~1\AppData\Local\Temp\cchaIJlx.s:28326  .debug_str:0000000000022132 .LASF412
C:\Users\CYMR90~1\AppData\Local\Temp\cchaIJlx.s:21497  .debug_str:0000000000006ab8 .LASF413
C:\Users\CYMR90~1\AppData\Local\Temp\cchaIJlx.s:30026  .debug_str:0000000000028f6d .LASF414
C:\Users\CYMR90~1\AppData\Local\Temp\cchaIJlx.s:23623  .debug_str:000000000000f382 .LASF415
C:\Users\CYMR90~1\AppData\Local\Temp\cchaIJlx.s:29364  .debug_str:0000000000026424 .LASF416
C:\Users\CYMR90~1\AppData\Local\Temp\cchaIJlx.s:30860  .debug_str:000000000002c447 .LASF417
C:\Users\CYMR90~1\AppData\Local\Temp\cchaIJlx.s:21943  .debug_str:0000000000008857 .LASF418
C:\Users\CYMR90~1\AppData\Local\Temp\cchaIJlx.s:30234  .debug_str:0000000000029c97 .LASF419
C:\Users\CYMR90~1\AppData\Local\Temp\cchaIJlx.s:21565  .debug_str:0000000000006f14 .LASF420
C:\Users\CYMR90~1\AppData\Local\Temp\cchaIJlx.s:30428  .debug_str:000000000002a81c .LASF421
C:\Users\CYMR90~1\AppData\Local\Temp\cchaIJlx.s:22785  .debug_str:000000000000be92 .LASF422
C:\Users\CYMR90~1\AppData\Local\Temp\cchaIJlx.s:22979  .debug_str:000000000000cb8c .LASF423
C:\Users\CYMR90~1\AppData\Local\Temp\cchaIJlx.s:27440  .debug_str:000000000001eb03 .LASF424
C:\Users\CYMR90~1\AppData\Local\Temp\cchaIJlx.s:26060  .debug_str:00000000000191e6 .LASF425
C:\Users\CYMR90~1\AppData\Local\Temp\cchaIJlx.s:19841  .debug_str:00000000000002de .LASF426
C:\Users\CYMR90~1\AppData\Local\Temp\cchaIJlx.s:29942  .debug_str:0000000000028a14 .LASF427
C:\Users\CYMR90~1\AppData\Local\Temp\cchaIJlx.s:25323  .debug_str:0000000000016076 .LASF428
C:\Users\CYMR90~1\AppData\Local\Temp\cchaIJlx.s:27226  .debug_str:000000000001de5b .LASF429
C:\Users\CYMR90~1\AppData\Local\Temp\cchaIJlx.s:23803  .debug_str:000000000000ff1a .LASF430
C:\Users\CYMR90~1\AppData\Local\Temp\cchaIJlx.s:25514  .debug_str:0000000000016f1d .LASF431
C:\Users\CYMR90~1\AppData\Local\Temp\cchaIJlx.s:28278  .debug_str:0000000000021e26 .LASF432
C:\Users\CYMR90~1\AppData\Local\Temp\cchaIJlx.s:22963  .debug_str:000000000000ca9b .LASF434
C:\Users\CYMR90~1\AppData\Local\Temp\cchaIJlx.s:21031  .debug_str:0000000000004e26 .LASF435
C:\Users\CYMR90~1\AppData\Local\Temp\cchaIJlx.s:25702  .debug_str:0000000000017a9f .LASF436
C:\Users\CYMR90~1\AppData\Local\Temp\cchaIJlx.s:21585  .debug_str:0000000000007050 .LASF437
C:\Users\CYMR90~1\AppData\Local\Temp\cchaIJlx.s:29956  .debug_str:0000000000028afa .LASF438
C:\Users\CYMR90~1\AppData\Local\Temp\cchaIJlx.s:19807  .debug_str:00000000000000c7 .LASF439
C:\Users\CYMR90~1\AppData\Local\Temp\cchaIJlx.s:27476  .debug_str:000000000001ed2a .LASF440
C:\Users\CYMR90~1\AppData\Local\Temp\cchaIJlx.s:23211  .debug_str:000000000000da52 .LASF441
C:\Users\CYMR90~1\AppData\Local\Temp\cchaIJlx.s:28514  .debug_str:0000000000022c5e .LASF442
C:\Users\CYMR90~1\AppData\Local\Temp\cchaIJlx.s:27412  .debug_str:000000000001e995 .LASF443
C:\Users\CYMR90~1\AppData\Local\Temp\cchaIJlx.s:23933  .debug_str:0000000000010717 .LASF444
C:\Users\CYMR90~1\AppData\Local\Temp\cchaIJlx.s:30854  .debug_str:000000000002c3fb .LASF445
C:\Users\CYMR90~1\AppData\Local\Temp\cchaIJlx.s:20157  .debug_str:0000000000001638 .LASF446
C:\Users\CYMR90~1\AppData\Local\Temp\cchaIJlx.s:24275  .debug_str:0000000000011d4c .LASF447
C:\Users\CYMR90~1\AppData\Local\Temp\cchaIJlx.s:28490  .debug_str:0000000000022b08 .LASF448
C:\Users\CYMR90~1\AppData\Local\Temp\cchaIJlx.s:20851  .debug_str:000000000000424c .LASF449
C:\Users\CYMR90~1\AppData\Local\Temp\cchaIJlx.s:21607  .debug_str:00000000000071d9 .LASF450
C:\Users\CYMR90~1\AppData\Local\Temp\cchaIJlx.s:20321  .debug_str:0000000000002090 .LASF451
C:\Users\CYMR90~1\AppData\Local\Temp\cchaIJlx.s:24971  .debug_str:0000000000014a38 .LASF452
C:\Users\CYMR90~1\AppData\Local\Temp\cchaIJlx.s:20311  .debug_str:000000000000201d .LASF453
C:\Users\CYMR90~1\AppData\Local\Temp\cchaIJlx.s:30800  .debug_str:000000000002c030 .LASF454
C:\Users\CYMR90~1\AppData\Local\Temp\cchaIJlx.s:23385  .debug_str:000000000000e4b3 .LASF455
C:\Users\CYMR90~1\AppData\Local\Temp\cchaIJlx.s:28106  .debug_str:00000000000213bc .LASF456
C:\Users\CYMR90~1\AppData\Local\Temp\cchaIJlx.s:23059  .debug_str:000000000000d0ce .LASF457
C:\Users\CYMR90~1\AppData\Local\Temp\cchaIJlx.s:21375  .debug_str:0000000000006345 .LASF458
C:\Users\CYMR90~1\AppData\Local\Temp\cchaIJlx.s:23999  .debug_str:0000000000010bde .LASF459
C:\Users\CYMR90~1\AppData\Local\Temp\cchaIJlx.s:27856  .debug_str:000000000002048d .LASF460
C:\Users\CYMR90~1\AppData\Local\Temp\cchaIJlx.s:28998  .debug_str:0000000000024b7a .LASF461
C:\Users\CYMR90~1\AppData\Local\Temp\cchaIJlx.s:25483  .debug_str:0000000000016b70 .LASF462
C:\Users\CYMR90~1\AppData\Local\Temp\cchaIJlx.s:26338  .debug_str:000000000001a4af .LASF463
C:\Users\CYMR90~1\AppData\Local\Temp\cchaIJlx.s:23227  .debug_str:000000000000db1e .LASF464
C:\Users\CYMR90~1\AppData\Local\Temp\cchaIJlx.s:24365  .debug_str:00000000000123b9 .LASF465
C:\Users\CYMR90~1\AppData\Local\Temp\cchaIJlx.s:21515  .debug_str:0000000000006bd8 .LASF466
C:\Users\CYMR90~1\AppData\Local\Temp\cchaIJlx.s:22069  .debug_str:0000000000009008 .LASF467
C:\Users\CYMR90~1\AppData\Local\Temp\cchaIJlx.s:24131  .debug_str:000000000001133f .LASF468
C:\Users\CYMR90~1\AppData\Local\Temp\cchaIJlx.s:20653  .debug_str:000000000000354d .LASF469
C:\Users\CYMR90~1\AppData\Local\Temp\cchaIJlx.s:23897  .debug_str:00000000000104e1 .LASF470
C:\Users\CYMR90~1\AppData\Local\Temp\cchaIJlx.s:23779  .debug_str:000000000000fd8f .LASF471
C:\Users\CYMR90~1\AppData\Local\Temp\cchaIJlx.s:23357  .debug_str:000000000000e301 .LASF472
C:\Users\CYMR90~1\AppData\Local\Temp\cchaIJlx.s:20021  .debug_str:0000000000000dd4 .LASF473
C:\Users\CYMR90~1\AppData\Local\Temp\cchaIJlx.s:21631  .debug_str:000000000000739f .LASF474
C:\Users\CYMR90~1\AppData\Local\Temp\cchaIJlx.s:19967  .debug_str:0000000000000a9a .LASF475
C:\Users\CYMR90~1\AppData\Local\Temp\cchaIJlx.s:20817  .debug_str:0000000000003faa .LASF476
C:\Users\CYMR90~1\AppData\Local\Temp\cchaIJlx.s:20191  .debug_str:00000000000018de .LASF477
C:\Users\CYMR90~1\AppData\Local\Temp\cchaIJlx.s:25269  .debug_str:0000000000015ca7 .LASF478
C:\Users\CYMR90~1\AppData\Local\Temp\cchaIJlx.s:22665  .debug_str:000000000000b691 .LASF479
C:\Users\CYMR90~1\AppData\Local\Temp\cchaIJlx.s:30424  .debug_str:000000000002a7ec .LASF480
C:\Users\CYMR90~1\AppData\Local\Temp\cchaIJlx.s:25858  .debug_str:00000000000183ce .LASF481
C:\Users\CYMR90~1\AppData\Local\Temp\cchaIJlx.s:22589  .debug_str:000000000000b14f .LASF482
C:\Users\CYMR90~1\AppData\Local\Temp\cchaIJlx.s:21417  .debug_str:00000000000065b2 .LASF483
C:\Users\CYMR90~1\AppData\Local\Temp\cchaIJlx.s:19933  .debug_str:0000000000000858 .LASF484
C:\Users\CYMR90~1\AppData\Local\Temp\cchaIJlx.s:25806  .debug_str:00000000000180c2 .LASF485
C:\Users\CYMR90~1\AppData\Local\Temp\cchaIJlx.s:21041  .debug_str:0000000000004ec4 .LASF486
C:\Users\CYMR90~1\AppData\Local\Temp\cchaIJlx.s:24723  .debug_str:0000000000013b17 .LASF487
C:\Users\CYMR90~1\AppData\Local\Temp\cchaIJlx.s:23921  .debug_str:0000000000010673 .LASF488
C:\Users\CYMR90~1\AppData\Local\Temp\cchaIJlx.s:24489  .debug_str:0000000000012bd0 .LASF489
C:\Users\CYMR90~1\AppData\Local\Temp\cchaIJlx.s:22939  .debug_str:000000000000c954 .LASF490
C:\Users\CYMR90~1\AppData\Local\Temp\cchaIJlx.s:21941  .debug_str:0000000000008849 .LASF491
C:\Users\CYMR90~1\AppData\Local\Temp\cchaIJlx.s:23581  .debug_str:000000000000f0f3 .LASF492
C:\Users\CYMR90~1\AppData\Local\Temp\cchaIJlx.s:21949  .debug_str:00000000000088ce .LASF493
C:\Users\CYMR90~1\AppData\Local\Temp\cchaIJlx.s:23785  .debug_str:000000000000fe03 .LASF494
C:\Users\CYMR90~1\AppData\Local\Temp\cchaIJlx.s:26050  .debug_str:000000000001914b .LASF495
C:\Users\CYMR90~1\AppData\Local\Temp\cchaIJlx.s:30880  .debug_str:000000000002c577 .LASF496
C:\Users\CYMR90~1\AppData\Local\Temp\cchaIJlx.s:30816  .debug_str:000000000002c18a .LASF497
C:\Users\CYMR90~1\AppData\Local\Temp\cchaIJlx.s:23627  .debug_str:000000000000f3c9 .LASF498
C:\Users\CYMR90~1\AppData\Local\Temp\cchaIJlx.s:30048  .debug_str:000000000002909b .LASF499
C:\Users\CYMR90~1\AppData\Local\Temp\cchaIJlx.s:30148  .debug_str:000000000002975b .LASF500
C:\Users\CYMR90~1\AppData\Local\Temp\cchaIJlx.s:26270  .debug_str:0000000000019f14 .LASF501
C:\Users\CYMR90~1\AppData\Local\Temp\cchaIJlx.s:30102  .debug_str:00000000000294af .LASF502
C:\Users\CYMR90~1\AppData\Local\Temp\cchaIJlx.s:24879  .debug_str:000000000001444e .LASF503
C:\Users\CYMR90~1\AppData\Local\Temp\cchaIJlx.s:20521  .debug_str:0000000000002ca5 .LASF504
C:\Users\CYMR90~1\AppData\Local\Temp\cchaIJlx.s:28762  .debug_str:0000000000023af4 .LASF505
C:\Users\CYMR90~1\AppData\Local\Temp\cchaIJlx.s:29622  .debug_str:0000000000027449 .LASF506
C:\Users\CYMR90~1\AppData\Local\Temp\cchaIJlx.s:29202  .debug_str:0000000000025a1f .LASF507
C:\Users\CYMR90~1\AppData\Local\Temp\cchaIJlx.s:25970  .debug_str:0000000000018aba .LASF508
C:\Users\CYMR90~1\AppData\Local\Temp\cchaIJlx.s:28194  .debug_str:00000000000218ca .LASF509
C:\Users\CYMR90~1\AppData\Local\Temp\cchaIJlx.s:29848  .debug_str:00000000000283eb .LASF510
C:\Users\CYMR90~1\AppData\Local\Temp\cchaIJlx.s:25748  .debug_str:0000000000017d35 .LASF511
C:\Users\CYMR90~1\AppData\Local\Temp\cchaIJlx.s:29478  .debug_str:0000000000026af1 .LASF512
C:\Users\CYMR90~1\AppData\Local\Temp\cchaIJlx.s:29594  .debug_str:00000000000272c1 .LASF513
C:\Users\CYMR90~1\AppData\Local\Temp\cchaIJlx.s:30030  .debug_str:0000000000028f99 .LASF514
C:\Users\CYMR90~1\AppData\Local\Temp\cchaIJlx.s:24653  .debug_str:00000000000136ed .LASF515
C:\Users\CYMR90~1\AppData\Local\Temp\cchaIJlx.s:29908  .debug_str:0000000000028800 .LASF516
C:\Users\CYMR90~1\AppData\Local\Temp\cchaIJlx.s:26118  .debug_str:0000000000019558 .LASF517
C:\Users\CYMR90~1\AppData\Local\Temp\cchaIJlx.s:29858  .debug_str:00000000000284b8 .LASF518
C:\Users\CYMR90~1\AppData\Local\Temp\cchaIJlx.s:26770  .debug_str:000000000001c020 .LASF519
C:\Users\CYMR90~1\AppData\Local\Temp\cchaIJlx.s:30788  .debug_str:000000000002bf67 .LASF520
C:\Users\CYMR90~1\AppData\Local\Temp\cchaIJlx.s:27028  .debug_str:000000000001d1eb .LASF521
C:\Users\CYMR90~1\AppData\Local\Temp\cchaIJlx.s:29112  .debug_str:00000000000253ab .LASF522
C:\Users\CYMR90~1\AppData\Local\Temp\cchaIJlx.s:24531  .debug_str:0000000000012e87 .LASF523
C:\Users\CYMR90~1\AppData\Local\Temp\cchaIJlx.s:28676  .debug_str:000000000002362f .LASF524
C:\Users\CYMR90~1\AppData\Local\Temp\cchaIJlx.s:22149  .debug_str:00000000000094a2 .LASF525
C:\Users\CYMR90~1\AppData\Local\Temp\cchaIJlx.s:30808  .debug_str:000000000002c09e .LASF526
C:\Users\CYMR90~1\AppData\Local\Temp\cchaIJlx.s:23393  .debug_str:000000000000e531 .LASF527
C:\Users\CYMR90~1\AppData\Local\Temp\cchaIJlx.s:24393  .debug_str:000000000001257c .LASF528
C:\Users\CYMR90~1\AppData\Local\Temp\cchaIJlx.s:25247  .debug_str:0000000000015aff .LASF529
C:\Users\CYMR90~1\AppData\Local\Temp\cchaIJlx.s:25281  .debug_str:0000000000015d54 .LASF530
C:\Users\CYMR90~1\AppData\Local\Temp\cchaIJlx.s:24315  .debug_str:0000000000012096 .LASF531
C:\Users\CYMR90~1\AppData\Local\Temp\cchaIJlx.s:20583  .debug_str:0000000000003062 .LASF532
C:\Users\CYMR90~1\AppData\Local\Temp\cchaIJlx.s:23065  .debug_str:000000000000d108 .LASF533
C:\Users\CYMR90~1\AppData\Local\Temp\cchaIJlx.s:30648  .debug_str:000000000002b5c8 .LASF534
C:\Users\CYMR90~1\AppData\Local\Temp\cchaIJlx.s:23579  .debug_str:000000000000f0a7 .LASF535
C:\Users\CYMR90~1\AppData\Local\Temp\cchaIJlx.s:28862  .debug_str:0000000000024253 .LASF536
C:\Users\CYMR90~1\AppData\Local\Temp\cchaIJlx.s:30300  .debug_str:000000000002a069 .LASF537
C:\Users\CYMR90~1\AppData\Local\Temp\cchaIJlx.s:24147  .debug_str:0000000000011450 .LASF538
C:\Users\CYMR90~1\AppData\Local\Temp\cchaIJlx.s:24729  .debug_str:0000000000013b5b .LASF539
C:\Users\CYMR90~1\AppData\Local\Temp\cchaIJlx.s:26826  .debug_str:000000000001c380 .LASF540
C:\Users\CYMR90~1\AppData\Local\Temp\cchaIJlx.s:23163  .debug_str:000000000000d7a6 .LASF541
C:\Users\CYMR90~1\AppData\Local\Temp\cchaIJlx.s:27120  .debug_str:000000000001d7cc .LASF542
C:\Users\CYMR90~1\AppData\Local\Temp\cchaIJlx.s:20923  .debug_str:000000000000470c .LASF543
C:\Users\CYMR90~1\AppData\Local\Temp\cchaIJlx.s:23323  .debug_str:000000000000e0ff .LASF544
C:\Users\CYMR90~1\AppData\Local\Temp\cchaIJlx.s:30088  .debug_str:00000000000293c2 .LASF545
C:\Users\CYMR90~1\AppData\Local\Temp\cchaIJlx.s:24663  .debug_str:000000000001377c .LASF546
C:\Users\CYMR90~1\AppData\Local\Temp\cchaIJlx.s:28380  .debug_str:0000000000022436 .LASF547
C:\Users\CYMR90~1\AppData\Local\Temp\cchaIJlx.s:30562  .debug_str:000000000002b031 .LASF548
C:\Users\CYMR90~1\AppData\Local\Temp\cchaIJlx.s:20629  .debug_str:00000000000033b8 .LASF549
C:\Users\CYMR90~1\AppData\Local\Temp\cchaIJlx.s:21777  .debug_str:0000000000007cc2 .LASF550
C:\Users\CYMR90~1\AppData\Local\Temp\cchaIJlx.s:29372  .debug_str:0000000000026487 .LASF551
C:\Users\CYMR90~1\AppData\Local\Temp\cchaIJlx.s:21339  .debug_str:000000000000610f .LASF552
C:\Users\CYMR90~1\AppData\Local\Temp\cchaIJlx.s:30318  .debug_str:000000000002a165 .LASF553
C:\Users\CYMR90~1\AppData\Local\Temp\cchaIJlx.s:22737  .debug_str:000000000000bae3 .LASF554
C:\Users\CYMR90~1\AppData\Local\Temp\cchaIJlx.s:22915  .debug_str:000000000000c6d8 .LASF555
C:\Users\CYMR90~1\AppData\Local\Temp\cchaIJlx.s:21463  .debug_str:0000000000006888 .LASF556
C:\Users\CYMR90~1\AppData\Local\Temp\cchaIJlx.s:21167  .debug_str:0000000000005647 .LASF557
C:\Users\CYMR90~1\AppData\Local\Temp\cchaIJlx.s:24261  .debug_str:0000000000011c71 .LASF558
C:\Users\CYMR90~1\AppData\Local\Temp\cchaIJlx.s:25996  .debug_str:0000000000018cdb .LASF559
C:\Users\CYMR90~1\AppData\Local\Temp\cchaIJlx.s:29898  .debug_str:0000000000028758 .LASF560
C:\Users\CYMR90~1\AppData\Local\Temp\cchaIJlx.s:20303  .debug_str:0000000000001f83 .LASF561
C:\Users\CYMR90~1\AppData\Local\Temp\cchaIJlx.s:23739  .debug_str:000000000000faeb .LASF562
C:\Users\CYMR90~1\AppData\Local\Temp\cchaIJlx.s:23111  .debug_str:000000000000d467 .LASF563
C:\Users\CYMR90~1\AppData\Local\Temp\cchaIJlx.s:22439  .debug_str:000000000000a72d .LASF564
C:\Users\CYMR90~1\AppData\Local\Temp\cchaIJlx.s:28134  .debug_str:0000000000021549 .LASF565
C:\Users\CYMR90~1\AppData\Local\Temp\cchaIJlx.s:27358  .debug_str:000000000001e61f .LASF566
C:\Users\CYMR90~1\AppData\Local\Temp\cchaIJlx.s:24257  .debug_str:0000000000011c29 .LASF567
C:\Users\CYMR90~1\AppData\Local\Temp\cchaIJlx.s:21341  .debug_str:0000000000006123 .LASF568
C:\Users\CYMR90~1\AppData\Local\Temp\cchaIJlx.s:19993  .debug_str:0000000000000c60 .LASF570
C:\Users\CYMR90~1\AppData\Local\Temp\cchaIJlx.s:25628  .debug_str:00000000000175ba .LASF571
C:\Users\CYMR90~1\AppData\Local\Temp\cchaIJlx.s:26766  .debug_str:000000000001bffa .LASF574
C:\Users\CYMR90~1\AppData\Local\Temp\cchaIJlx.s:20891  .debug_str:00000000000044ee .LASF575
C:\Users\CYMR90~1\AppData\Local\Temp\cchaIJlx.s:24885  .debug_str:00000000000144e6 .LASF576
C:\Users\CYMR90~1\AppData\Local\Temp\cchaIJlx.s:21871  .debug_str:0000000000008414 .LASF577
C:\Users\CYMR90~1\AppData\Local\Temp\cchaIJlx.s:28032  .debug_str:0000000000020ecb .LASF579
C:\Users\CYMR90~1\AppData\Local\Temp\cchaIJlx.s:27236  .debug_str:000000000001def0 .LASF580
C:\Users\CYMR90~1\AppData\Local\Temp\cchaIJlx.s:28760  .debug_str:0000000000023aeb .LASF581
C:\Users\CYMR90~1\AppData\Local\Temp\cchaIJlx.s:21297  .debug_str:0000000000005e3e .LASF582
C:\Users\CYMR90~1\AppData\Local\Temp\cchaIJlx.s:23881  .debug_str:00000000000103ed .LASF583
C:\Users\CYMR90~1\AppData\Local\Temp\cchaIJlx.s:20477  .debug_str:0000000000002a14 .LASF584
C:\Users\CYMR90~1\AppData\Local\Temp\cchaIJlx.s:30182  .debug_str:000000000002997c .LASF585
C:\Users\CYMR90~1\AppData\Local\Temp\cchaIJlx.s:28430  .debug_str:0000000000022730 .LASF586
C:\Users\CYMR90~1\AppData\Local\Temp\cchaIJlx.s:26650  .debug_str:000000000001b8ea .LASF587
C:\Users\CYMR90~1\AppData\Local\Temp\cchaIJlx.s:21529  .debug_str:0000000000006cb9 .LASF588
C:\Users\CYMR90~1\AppData\Local\Temp\cchaIJlx.s:25910  .debug_str:00000000000186d0 .LASF589
C:\Users\CYMR90~1\AppData\Local\Temp\cchaIJlx.s:26284  .debug_str:0000000000019fd9 .LASF590
C:\Users\CYMR90~1\AppData\Local\Temp\cchaIJlx.s:30890  .debug_str:000000000002c641 .LASF591
C:\Users\CYMR90~1\AppData\Local\Temp\cchaIJlx.s:26900  .debug_str:000000000001c8b6 .LASF592
C:\Users\CYMR90~1\AppData\Local\Temp\cchaIJlx.s:28748  .debug_str:0000000000023a48 .LASF593
C:\Users\CYMR90~1\AppData\Local\Temp\cchaIJlx.s:23845  .debug_str:00000000000101de .LASF594
C:\Users\CYMR90~1\AppData\Local\Temp\cchaIJlx.s:24721  .debug_str:0000000000013af7 .LASF595
C:\Users\CYMR90~1\AppData\Local\Temp\cchaIJlx.s:24447  .debug_str:0000000000012921 .LASF596
C:\Users\CYMR90~1\AppData\Local\Temp\cchaIJlx.s:21633  .debug_str:00000000000073be .LASF597
C:\Users\CYMR90~1\AppData\Local\Temp\cchaIJlx.s:29718  .debug_str:0000000000027abb .LASF598
C:\Users\CYMR90~1\AppData\Local\Temp\cchaIJlx.s:24611  .debug_str:000000000001342b .LASF599
C:\Users\CYMR90~1\AppData\Local\Temp\cchaIJlx.s:27558  .debug_str:000000000001f240 .LASF600
C:\Users\CYMR90~1\AppData\Local\Temp\cchaIJlx.s:26834  .debug_str:000000000001c3ec .LASF601
C:\Users\CYMR90~1\AppData\Local\Temp\cchaIJlx.s:29210  .debug_str:0000000000025ab2 .LASF602
C:\Users\CYMR90~1\AppData\Local\Temp\cchaIJlx.s:29916  .debug_str:0000000000028893 .LASF603
C:\Users\CYMR90~1\AppData\Local\Temp\cchaIJlx.s:29804  .debug_str:000000000002810c .LASF604
C:\Users\CYMR90~1\AppData\Local\Temp\cchaIJlx.s:24559  .debug_str:0000000000013072 .LASF605
C:\Users\CYMR90~1\AppData\Local\Temp\cchaIJlx.s:28564  .debug_str:0000000000022f2e .LASF606
C:\Users\CYMR90~1\AppData\Local\Temp\cchaIJlx.s:22219  .debug_str:000000000000998e .LASF607
C:\Users\CYMR90~1\AppData\Local\Temp\cchaIJlx.s:21729  .debug_str:00000000000079b3 .LASF608
C:\Users\CYMR90~1\AppData\Local\Temp\cchaIJlx.s:22501  .debug_str:000000000000aaff .LASF609
C:\Users\CYMR90~1\AppData\Local\Temp\cchaIJlx.s:26686  .debug_str:000000000001baaf .LASF610
C:\Users\CYMR90~1\AppData\Local\Temp\cchaIJlx.s:27198  .debug_str:000000000001dc8a .LASF611
C:\Users\CYMR90~1\AppData\Local\Temp\cchaIJlx.s:28350  .debug_str:000000000002227b .LASF612
C:\Users\CYMR90~1\AppData\Local\Temp\cchaIJlx.s:25113  .debug_str:0000000000015346 .LASF613
C:\Users\CYMR90~1\AppData\Local\Temp\cchaIJlx.s:21797  .debug_str:0000000000007eae .LASF614
C:\Users\CYMR90~1\AppData\Local\Temp\cchaIJlx.s:19893  .debug_str:000000000000059e .LASF615
C:\Users\CYMR90~1\AppData\Local\Temp\cchaIJlx.s:25351  .debug_str:00000000000161fa .LASF616
C:\Users\CYMR90~1\AppData\Local\Temp\cchaIJlx.s:26320  .debug_str:000000000001a207 .LASF617
C:\Users\CYMR90~1\AppData\Local\Temp\cchaIJlx.s:25485  .debug_str:0000000000016b7f .LASF618
C:\Users\CYMR90~1\AppData\Local\Temp\cchaIJlx.s:28438  .debug_str:0000000000022795 .LASF619
C:\Users\CYMR90~1\AppData\Local\Temp\cchaIJlx.s:22753  .debug_str:000000000000bc67 .LASF620
C:\Users\CYMR90~1\AppData\Local\Temp\cchaIJlx.s:21543  .debug_str:0000000000006da6 .LASF621
C:\Users\CYMR90~1\AppData\Local\Temp\cchaIJlx.s:28624  .debug_str:000000000002329f .LASF622
C:\Users\CYMR90~1\AppData\Local\Temp\cchaIJlx.s:27732  .debug_str:000000000001fceb .LASF623
C:\Users\CYMR90~1\AppData\Local\Temp\cchaIJlx.s:29676  .debug_str:000000000002778e .LASF624
C:\Users\CYMR90~1\AppData\Local\Temp\cchaIJlx.s:30274  .debug_str:0000000000029f04 .LASF625
C:\Users\CYMR90~1\AppData\Local\Temp\cchaIJlx.s:24793  .debug_str:0000000000013efe .LASF626
C:\Users\CYMR90~1\AppData\Local\Temp\cchaIJlx.s:30528  .debug_str:000000000002adf6 .LASF627
C:\Users\CYMR90~1\AppData\Local\Temp\cchaIJlx.s:25205  .debug_str:0000000000015873 .LASF628
C:\Users\CYMR90~1\AppData\Local\Temp\cchaIJlx.s:28378  .debug_str:00000000000223fe .LASF629
C:\Users\CYMR90~1\AppData\Local\Temp\cchaIJlx.s:23835  .debug_str:000000000001012b .LASF630
C:\Users\CYMR90~1\AppData\Local\Temp\cchaIJlx.s:23149  .debug_str:000000000000d6bf .LASF631
C:\Users\CYMR90~1\AppData\Local\Temp\cchaIJlx.s:28340  .debug_str:00000000000221db .LASF632
C:\Users\CYMR90~1\AppData\Local\Temp\cchaIJlx.s:22861  .debug_str:000000000000c32c .LASF633
C:\Users\CYMR90~1\AppData\Local\Temp\cchaIJlx.s:19983  .debug_str:0000000000000bcd .LASF634
C:\Users\CYMR90~1\AppData\Local\Temp\cchaIJlx.s:26230  .debug_str:0000000000019cbf .LASF635
C:\Users\CYMR90~1\AppData\Local\Temp\cchaIJlx.s:25407  .debug_str:00000000000165b8 .LASF636
C:\Users\CYMR90~1\AppData\Local\Temp\cchaIJlx.s:26998  .debug_str:000000000001d00f .LASF637
C:\Users\CYMR90~1\AppData\Local\Temp\cchaIJlx.s:20687  .debug_str:000000000000375b .LASF638
C:\Users\CYMR90~1\AppData\Local\Temp\cchaIJlx.s:24209  .debug_str:0000000000011957 .LASF639
C:\Users\CYMR90~1\AppData\Local\Temp\cchaIJlx.s:21809  .debug_str:0000000000007f59 .LASF640
C:\Users\CYMR90~1\AppData\Local\Temp\cchaIJlx.s:24429  .debug_str:00000000000127e5 .LASF641
C:\Users\CYMR90~1\AppData\Local\Temp\cchaIJlx.s:22655  .debug_str:000000000000b5a7 .LASF642
C:\Users\CYMR90~1\AppData\Local\Temp\cchaIJlx.s:29658  .debug_str:0000000000027644 .LASF643
C:\Users\CYMR90~1\AppData\Local\Temp\cchaIJlx.s:23019  .debug_str:000000000000cdf8 .LASF644
C:\Users\CYMR90~1\AppData\Local\Temp\cchaIJlx.s:20863  .debug_str:00000000000042e4 .LASF645
C:\Users\CYMR90~1\AppData\Local\Temp\cchaIJlx.s:21691  .debug_str:0000000000007731 .LASF646
C:\Users\CYMR90~1\AppData\Local\Temp\cchaIJlx.s:20621  .debug_str:000000000000331e .LASF647
C:\Users\CYMR90~1\AppData\Local\Temp\cchaIJlx.s:20985  .debug_str:0000000000004b4f .LASF648
C:\Users\CYMR90~1\AppData\Local\Temp\cchaIJlx.s:30180  .debug_str:000000000002993d .LASF649
C:\Users\CYMR90~1\AppData\Local\Temp\cchaIJlx.s:24127  .debug_str:00000000000112cc .LASF650
C:\Users\CYMR90~1\AppData\Local\Temp\cchaIJlx.s:30290  .debug_str:0000000000029fe0 .LASF651
C:\Users\CYMR90~1\AppData\Local\Temp\cchaIJlx.s:23747  .debug_str:000000000000fb88 .LASF652
C:\Users\CYMR90~1\AppData\Local\Temp\cchaIJlx.s:19873  .debug_str:00000000000004a1 .LASF653
C:\Users\CYMR90~1\AppData\Local\Temp\cchaIJlx.s:30512  .debug_str:000000000002ad1e .LASF654
C:\Users\CYMR90~1\AppData\Local\Temp\cchaIJlx.s:22041  .debug_str:0000000000008e8f .LASF655
C:\Users\CYMR90~1\AppData\Local\Temp\cchaIJlx.s:29732  .debug_str:0000000000027b93 .LASF656
C:\Users\CYMR90~1\AppData\Local\Temp\cchaIJlx.s:19927  .debug_str:0000000000000816 .LASF657
C:\Users\CYMR90~1\AppData\Local\Temp\cchaIJlx.s:30340  .debug_str:000000000002a2dd .LASF658
C:\Users\CYMR90~1\AppData\Local\Temp\cchaIJlx.s:24525  .debug_str:0000000000012e39 .LASF659
C:\Users\CYMR90~1\AppData\Local\Temp\cchaIJlx.s:26930  .debug_str:000000000001ca82 .LASF660
C:\Users\CYMR90~1\AppData\Local\Temp\cchaIJlx.s:23429  .debug_str:000000000000e7b4 .LASF661
C:\Users\CYMR90~1\AppData\Local\Temp\cchaIJlx.s:27584  .debug_str:000000000001f3e1 .LASF662
C:\Users\CYMR90~1\AppData\Local\Temp\cchaIJlx.s:29518  .debug_str:0000000000026d9c .LASF663
C:\Users\CYMR90~1\AppData\Local\Temp\cchaIJlx.s:24107  .debug_str:00000000000111a8 .LASF664
C:\Users\CYMR90~1\AppData\Local\Temp\cchaIJlx.s:24099  .debug_str:0000000000011152 .LASF665
C:\Users\CYMR90~1\AppData\Local\Temp\cchaIJlx.s:26004  .debug_str:0000000000018d8d .LASF666
C:\Users\CYMR90~1\AppData\Local\Temp\cchaIJlx.s:21275  .debug_str:0000000000005d02 .LASF667
C:\Users\CYMR90~1\AppData\Local\Temp\cchaIJlx.s:31014  .debug_str:000000000002ce46 .LASF668
C:\Users\CYMR90~1\AppData\Local\Temp\cchaIJlx.s:21657  .debug_str:0000000000007524 .LASF669
C:\Users\CYMR90~1\AppData\Local\Temp\cchaIJlx.s:28226  .debug_str:0000000000021af3 .LASF670
C:\Users\CYMR90~1\AppData\Local\Temp\cchaIJlx.s:24509  .debug_str:0000000000012d2c .LASF671
C:\Users\CYMR90~1\AppData\Local\Temp\cchaIJlx.s:27634  .debug_str:000000000001f6a1 .LASF672
C:\Users\CYMR90~1\AppData\Local\Temp\cchaIJlx.s:28354  .debug_str:00000000000222ac .LASF673
C:\Users\CYMR90~1\AppData\Local\Temp\cchaIJlx.s:20257  .debug_str:0000000000001ce4 .LASF674
C:\Users\CYMR90~1\AppData\Local\Temp\cchaIJlx.s:25191  .debug_str:0000000000015794 .LASF676
C:\Users\CYMR90~1\AppData\Local\Temp\cchaIJlx.s:28780  .debug_str:0000000000023c45 .LASF677
C:\Users\CYMR90~1\AppData\Local\Temp\cchaIJlx.s:26242  .debug_str:0000000000019d6f .LASF678
C:\Users\CYMR90~1\AppData\Local\Temp\cchaIJlx.s:28882  .debug_str:00000000000243cb .LASF679
C:\Users\CYMR90~1\AppData\Local\Temp\cchaIJlx.s:27354  .debug_str:000000000001e5f3 .LASF680
C:\Users\CYMR90~1\AppData\Local\Temp\cchaIJlx.s:30194  .debug_str:0000000000029a3a .LASF681
C:\Users\CYMR90~1\AppData\Local\Temp\cchaIJlx.s:20865  .debug_str:0000000000004322 .LASF682
C:\Users\CYMR90~1\AppData\Local\Temp\cchaIJlx.s:20787  .debug_str:0000000000003dae .LASF683
C:\Users\CYMR90~1\AppData\Local\Temp\cchaIJlx.s:22177  .debug_str:0000000000009688 .LASF684
C:\Users\CYMR90~1\AppData\Local\Temp\cchaIJlx.s:26690  .debug_str:000000000001badc .LASF685
C:\Users\CYMR90~1\AppData\Local\Temp\cchaIJlx.s:28090  .debug_str:00000000000212ca .LASF686
C:\Users\CYMR90~1\AppData\Local\Temp\cchaIJlx.s:25463  .debug_str:00000000000169b0 .LASF687
C:\Users\CYMR90~1\AppData\Local\Temp\cchaIJlx.s:24035  .debug_str:0000000000010da3 .LASF688
C:\Users\CYMR90~1\AppData\Local\Temp\cchaIJlx.s:20669  .debug_str:0000000000003622 .LASF689
C:\Users\CYMR90~1\AppData\Local\Temp\cchaIJlx.s:21549  .debug_str:0000000000006e25 .LASF690
C:\Users\CYMR90~1\AppData\Local\Temp\cchaIJlx.s:24373  .debug_str:000000000001242d .LASF691
C:\Users\CYMR90~1\AppData\Local\Temp\cchaIJlx.s:25229  .debug_str:00000000000159e2 .LASF692
C:\Users\CYMR90~1\AppData\Local\Temp\cchaIJlx.s:21241  .debug_str:0000000000005afa .LASF695
C:\Users\CYMR90~1\AppData\Local\Temp\cchaIJlx.s:25626  .debug_str:00000000000175a3 .LASF696
C:\Users\CYMR90~1\AppData\Local\Temp\cchaIJlx.s:25524  .debug_str:0000000000016fb5 .LASF697
C:\Users\CYMR90~1\AppData\Local\Temp\cchaIJlx.s:26660  .debug_str:000000000001b94b .LASF698
C:\Users\CYMR90~1\AppData\Local\Temp\cchaIJlx.s:28820  .debug_str:0000000000023e87 .LASF699
C:\Users\CYMR90~1\AppData\Local\Temp\cchaIJlx.s:24967  .debug_str:00000000000149b5 .LASF702
C:\Users\CYMR90~1\AppData\Local\Temp\cchaIJlx.s:22199  .debug_str:00000000000097df .LASF703
C:\Users\CYMR90~1\AppData\Local\Temp\cchaIJlx.s:27528  .debug_str:000000000001f07f .LASF704
C:\Users\CYMR90~1\AppData\Local\Temp\cchaIJlx.s:21063  .debug_str:0000000000005004 .LASF705
C:\Users\CYMR90~1\AppData\Local\Temp\cchaIJlx.s:25291  .debug_str:0000000000015e28 .LASF706
C:\Users\CYMR90~1\AppData\Local\Temp\cchaIJlx.s:23625  .debug_str:000000000000f3a3 .LASF707
C:\Users\CYMR90~1\AppData\Local\Temp\cchaIJlx.s:29932  .debug_str:000000000002898b .LASF708
C:\Users\CYMR90~1\AppData\Local\Temp\cchaIJlx.s:29180  .debug_str:00000000000258cf .LASF709
C:\Users\CYMR90~1\AppData\Local\Temp\cchaIJlx.s:23267  .debug_str:000000000000ddc9 .LASF710
C:\Users\CYMR90~1\AppData\Local\Temp\cchaIJlx.s:23783  .debug_str:000000000000fdd0 .LASF711
C:\Users\CYMR90~1\AppData\Local\Temp\cchaIJlx.s:25437  .debug_str:00000000000167a4 .LASF712
C:\Users\CYMR90~1\AppData\Local\Temp\cchaIJlx.s:22433  .debug_str:000000000000a6bb .LASF713
C:\Users\CYMR90~1\AppData\Local\Temp\cchaIJlx.s:30730  .debug_str:000000000002bb60 .LASF714
C:\Users\CYMR90~1\AppData\Local\Temp\cchaIJlx.s:21793  .debug_str:0000000000007e49 .LASF715
C:\Users\CYMR90~1\AppData\Local\Temp\cchaIJlx.s:22693  .debug_str:000000000000b81c .LASF716
C:\Users\CYMR90~1\AppData\Local\Temp\cchaIJlx.s:27750  .debug_str:000000000001fe2f .LASF717
C:\Users\CYMR90~1\AppData\Local\Temp\cchaIJlx.s:29138  .debug_str:00000000000255cb .LASF718
C:\Users\CYMR90~1\AppData\Local\Temp\cchaIJlx.s:28924  .debug_str:0000000000024658 .LASF719
C:\Users\CYMR90~1\AppData\Local\Temp\cchaIJlx.s:25942  .debug_str:0000000000018931 .LASF720
C:\Users\CYMR90~1\AppData\Local\Temp\cchaIJlx.s:20315  .debug_str:0000000000002052 .LASF721
C:\Users\CYMR90~1\AppData\Local\Temp\cchaIJlx.s:27860  .debug_str:00000000000204c1 .LASF722
C:\Users\CYMR90~1\AppData\Local\Temp\cchaIJlx.s:26846  .debug_str:000000000001c481 .LASF723
C:\Users\CYMR90~1\AppData\Local\Temp\cchaIJlx.s:27404  .debug_str:000000000001e92c .LASF724
C:\Users\CYMR90~1\AppData\Local\Temp\cchaIJlx.s:28332  .debug_str:0000000000022189 .LASF725
C:\Users\CYMR90~1\AppData\Local\Temp\cchaIJlx.s:24627  .debug_str:0000000000013537 .LASF726
C:\Users\CYMR90~1\AppData\Local\Temp\cchaIJlx.s:22427  .debug_str:000000000000a661 .LASF727
C:\Users\CYMR90~1\AppData\Local\Temp\cchaIJlx.s:29274  .debug_str:0000000000025eb0 .LASF728
C:\Users\CYMR90~1\AppData\Local\Temp\cchaIJlx.s:20223  .debug_str:0000000000001ac2 .LASF729
C:\Users\CYMR90~1\AppData\Local\Temp\cchaIJlx.s:26128  .debug_str:00000000000195f3 .LASF730
C:\Users\CYMR90~1\AppData\Local\Temp\cchaIJlx.s:24599  .debug_str:000000000001338c .LASF731
C:\Users\CYMR90~1\AppData\Local\Temp\cchaIJlx.s:29212  .debug_str:0000000000025aed .LASF732
C:\Users\CYMR90~1\AppData\Local\Temp\cchaIJlx.s:30938  .debug_str:000000000002c968 .LASF733
C:\Users\CYMR90~1\AppData\Local\Temp\cchaIJlx.s:24085  .debug_str:0000000000011067 .LASF734
C:\Users\CYMR90~1\AppData\Local\Temp\cchaIJlx.s:24011  .debug_str:0000000000010c6c .LASF735
C:\Users\CYMR90~1\AppData\Local\Temp\cchaIJlx.s:30864  .debug_str:000000000002c468 .LASF736
C:\Users\CYMR90~1\AppData\Local\Temp\cchaIJlx.s:22987  .debug_str:000000000000cbeb .LASF737
C:\Users\CYMR90~1\AppData\Local\Temp\cchaIJlx.s:26996  .debug_str:000000000001cffe .LASF738
C:\Users\CYMR90~1\AppData\Local\Temp\cchaIJlx.s:30616  .debug_str:000000000002b3b3 .LASF739
C:\Users\CYMR90~1\AppData\Local\Temp\cchaIJlx.s:20225  .debug_str:0000000000001ad5 .LASF740
C:\Users\CYMR90~1\AppData\Local\Temp\cchaIJlx.s:22921  .debug_str:000000000000c748 .LASF741
C:\Users\CYMR90~1\AppData\Local\Temp\cchaIJlx.s:20201  .debug_str:000000000000197f .LASF742
C:\Users\CYMR90~1\AppData\Local\Temp\cchaIJlx.s:24045  .debug_str:0000000000010e0f .LASF743
C:\Users\CYMR90~1\AppData\Local\Temp\cchaIJlx.s:20657  .debug_str:000000000000358a .LASF744
C:\Users\CYMR90~1\AppData\Local\Temp\cchaIJlx.s:22049  .debug_str:0000000000008f10 .LASF745
C:\Users\CYMR90~1\AppData\Local\Temp\cchaIJlx.s:28344  .debug_str:000000000002222a .LASF746
C:\Users\CYMR90~1\AppData\Local\Temp\cchaIJlx.s:20097  .debug_str:00000000000012a1 .LASF747
C:\Users\CYMR90~1\AppData\Local\Temp\cchaIJlx.s:20087  .debug_str:000000000000121f .LASF748
C:\Users\CYMR90~1\AppData\Local\Temp\cchaIJlx.s:21221  .debug_str:000000000000599c .LASF750
C:\Users\CYMR90~1\AppData\Local\Temp\cchaIJlx.s:23963  .debug_str:00000000000108c7 .LASF751
C:\Users\CYMR90~1\AppData\Local\Temp\cchaIJlx.s:30084  .debug_str:0000000000029380 .LASF752
C:\Users\CYMR90~1\AppData\Local\Temp\cchaIJlx.s:23903  .debug_str:000000000001055b .LASF753
C:\Users\CYMR90~1\AppData\Local\Temp\cchaIJlx.s:21105  .debug_str:00000000000052bb .LASF754
C:\Users\CYMR90~1\AppData\Local\Temp\cchaIJlx.s:22677  .debug_str:000000000000b736 .LASF755
C:\Users\CYMR90~1\AppData\Local\Temp\cchaIJlx.s:26206  .debug_str:0000000000019b7c .LASF756
C:\Users\CYMR90~1\AppData\Local\Temp\cchaIJlx.s:22187  .debug_str:0000000000009737 .LASF757
C:\Users\CYMR90~1\AppData\Local\Temp\cchaIJlx.s:29164  .debug_str:00000000000257e7 .LASF758
C:\Users\CYMR90~1\AppData\Local\Temp\cchaIJlx.s:25844  .debug_str:0000000000018319 .LASF759
C:\Users\CYMR90~1\AppData\Local\Temp\cchaIJlx.s:26574  .debug_str:000000000001b43c .LASF760
C:\Users\CYMR90~1\AppData\Local\Temp\cchaIJlx.s:30712  .debug_str:000000000002ba1a .LASF761
C:\Users\CYMR90~1\AppData\Local\Temp\cchaIJlx.s:22607  .debug_str:000000000000b230 .LASF762
C:\Users\CYMR90~1\AppData\Local\Temp\cchaIJlx.s:26582  .debug_str:000000000001b4d0 .LASF765
C:\Users\CYMR90~1\AppData\Local\Temp\cchaIJlx.s:25263  .debug_str:0000000000015c08 .LASF766
C:\Users\CYMR90~1\AppData\Local\Temp\cchaIJlx.s:28236  .debug_str:0000000000021b91 .LASF767
C:\Users\CYMR90~1\AppData\Local\Temp\cchaIJlx.s:25253  .debug_str:0000000000015b98 .LASF768
C:\Users\CYMR90~1\AppData\Local\Temp\cchaIJlx.s:20463  .debug_str:0000000000002952 .LASF769
C:\Users\CYMR90~1\AppData\Local\Temp\cchaIJlx.s:26708  .debug_str:000000000001bc43 .LASF770
C:\Users\CYMR90~1\AppData\Local\Temp\cchaIJlx.s:25347  .debug_str:00000000000161d4 .LASF771
C:\Users\CYMR90~1\AppData\Local\Temp\cchaIJlx.s:28890  .debug_str:0000000000024444 .LASF772
C:\Users\CYMR90~1\AppData\Local\Temp\cchaIJlx.s:28526  .debug_str:0000000000022d03 .LASF773
C:\Users\CYMR90~1\AppData\Local\Temp\cchaIJlx.s:23347  .debug_str:000000000000e277 .LASF774
C:\Users\CYMR90~1\AppData\Local\Temp\cchaIJlx.s:29214  .debug_str:0000000000025b03 .LASF775
C:\Users\CYMR90~1\AppData\Local\Temp\cchaIJlx.s:22329  .debug_str:000000000000a06c .LASF776
C:\Users\CYMR90~1\AppData\Local\Temp\cchaIJlx.s:22345  .debug_str:000000000000a170 .LASF777
C:\Users\CYMR90~1\AppData\Local\Temp\cchaIJlx.s:27344  .debug_str:000000000001e552 .LASF778
C:\Users\CYMR90~1\AppData\Local\Temp\cchaIJlx.s:23847  .debug_str:0000000000010206 .LASF779
C:\Users\CYMR90~1\AppData\Local\Temp\cchaIJlx.s:27592  .debug_str:000000000001f456 .LASF780
C:\Users\CYMR90~1\AppData\Local\Temp\cchaIJlx.s:28232  .debug_str:0000000000021b58 .LASF781
C:\Users\CYMR90~1\AppData\Local\Temp\cchaIJlx.s:24325  .debug_str:000000000001213d .LASF782
C:\Users\CYMR90~1\AppData\Local\Temp\cchaIJlx.s:25471  .debug_str:0000000000016ad3 .LASF783
C:\Users\CYMR90~1\AppData\Local\Temp\cchaIJlx.s:24225  .debug_str:0000000000011a55 .LASF784
C:\Users\CYMR90~1\AppData\Local\Temp\cchaIJlx.s:23529  .debug_str:000000000000edce .LASF785
C:\Users\CYMR90~1\AppData\Local\Temp\cchaIJlx.s:28592  .debug_str:00000000000230b8 .LASF786
C:\Users\CYMR90~1\AppData\Local\Temp\cchaIJlx.s:24981  .debug_str:0000000000014ada .LASF787
C:\Users\CYMR90~1\AppData\Local\Temp\cchaIJlx.s:27280  .debug_str:000000000001e195 .LASF788
C:\Users\CYMR90~1\AppData\Local\Temp\cchaIJlx.s:23707  .debug_str:000000000000f906 .LASF789
C:\Users\CYMR90~1\AppData\Local\Temp\cchaIJlx.s:21153  .debug_str:0000000000005596 .LASF790
C:\Users\CYMR90~1\AppData\Local\Temp\cchaIJlx.s:29560  .debug_str:00000000000270a1 .LASF791
C:\Users\CYMR90~1\AppData\Local\Temp\cchaIJlx.s:21915  .debug_str:000000000000869c .LASF792
C:\Users\CYMR90~1\AppData\Local\Temp\cchaIJlx.s:30944  .debug_str:000000000002c9b6 .LASF793
C:\Users\CYMR90~1\AppData\Local\Temp\cchaIJlx.s:21701  .debug_str:0000000000007805 .LASF794
C:\Users\CYMR90~1\AppData\Local\Temp\cchaIJlx.s:29810  .debug_str:0000000000028169 .LASF795
C:\Users\CYMR90~1\AppData\Local\Temp\cchaIJlx.s:27834  .debug_str:00000000000202cd .LASF796
C:\Users\CYMR90~1\AppData\Local\Temp\cchaIJlx.s:30504  .debug_str:000000000002accd .LASF797
C:\Users\CYMR90~1\AppData\Local\Temp\cchaIJlx.s:21533  .debug_str:0000000000006d03 .LASF798
C:\Users\CYMR90~1\AppData\Local\Temp\cchaIJlx.s:29874  .debug_str:00000000000285e0 .LASF799
C:\Users\CYMR90~1\AppData\Local\Temp\cchaIJlx.s:21119  .debug_str:0000000000005387 .LASF800
C:\Users\CYMR90~1\AppData\Local\Temp\cchaIJlx.s:26340  .debug_str:000000000001a4bc .LASF801
C:\Users\CYMR90~1\AppData\Local\Temp\cchaIJlx.s:26368  .debug_str:000000000001a685 .LASF802
C:\Users\CYMR90~1\AppData\Local\Temp\cchaIJlx.s:22249  .debug_str:0000000000009b7c .LASF803
C:\Users\CYMR90~1\AppData\Local\Temp\cchaIJlx.s:24731  .debug_str:0000000000013b7b .LASF804
C:\Users\CYMR90~1\AppData\Local\Temp\cchaIJlx.s:21547  .debug_str:0000000000006dca .LASF805
C:\Users\CYMR90~1\AppData\Local\Temp\cchaIJlx.s:24177  .debug_str:00000000000116af .LASF806
C:\Users\CYMR90~1\AppData\Local\Temp\cchaIJlx.s:27300  .debug_str:000000000001e285 .LASF807
C:\Users\CYMR90~1\AppData\Local\Temp\cchaIJlx.s:26896  .debug_str:000000000001c866 .LASF808
C:\Users\CYMR90~1\AppData\Local\Temp\cchaIJlx.s:29284  .debug_str:0000000000025f47 .LASF809
C:\Users\CYMR90~1\AppData\Local\Temp\cchaIJlx.s:30716  .debug_str:000000000002ba6f .LASF810
C:\Users\CYMR90~1\AppData\Local\Temp\cchaIJlx.s:21939  .debug_str:0000000000008810 .LASF811
C:\Users\CYMR90~1\AppData\Local\Temp\cchaIJlx.s:20847  .debug_str:000000000000420c .LASF812
C:\Users\CYMR90~1\AppData\Local\Temp\cchaIJlx.s:30752  .debug_str:000000000002bd22 .LASF813
C:\Users\CYMR90~1\AppData\Local\Temp\cchaIJlx.s:21217  .debug_str:0000000000005975 .LASF814
C:\Users\CYMR90~1\AppData\Local\Temp\cchaIJlx.s:21445  .debug_str:000000000000674d .LASF815
C:\Users\CYMR90~1\AppData\Local\Temp\cchaIJlx.s:26674  .debug_str:000000000001ba09 .LASF816
C:\Users\CYMR90~1\AppData\Local\Temp\cchaIJlx.s:22113  .debug_str:00000000000092b0 .LASF817
C:\Users\CYMR90~1\AppData\Local\Temp\cchaIJlx.s:26816  .debug_str:000000000001c2f0 .LASF818
C:\Users\CYMR90~1\AppData\Local\Temp\cchaIJlx.s:26712  .debug_str:000000000001bc5b .LASF819
C:\Users\CYMR90~1\AppData\Local\Temp\cchaIJlx.s:19969  .debug_str:0000000000000ad3 .LASF820
C:\Users\CYMR90~1\AppData\Local\Temp\cchaIJlx.s:30342  .debug_str:000000000002a2ed .LASF821
C:\Users\CYMR90~1\AppData\Local\Temp\cchaIJlx.s:28886  .debug_str:0000000000024409 .LASF822
C:\Users\CYMR90~1\AppData\Local\Temp\cchaIJlx.s:22077  .debug_str:0000000000009071 .LASF823
C:\Users\CYMR90~1\AppData\Local\Temp\cchaIJlx.s:25395  .debug_str:0000000000016515 .LASF824
C:\Users\CYMR90~1\AppData\Local\Temp\cchaIJlx.s:27000  .debug_str:000000000001d039 .LASF825
C:\Users\CYMR90~1\AppData\Local\Temp\cchaIJlx.s:25189  .debug_str:0000000000015773 .LASF826
C:\Users\CYMR90~1\AppData\Local\Temp\cchaIJlx.s:20735  .debug_str:0000000000003a7a .LASF827
C:\Users\CYMR90~1\AppData\Local\Temp\cchaIJlx.s:23507  .debug_str:000000000000ec99 .LASF828
C:\Users\CYMR90~1\AppData\Local\Temp\cchaIJlx.s:28992  .debug_str:0000000000024b19 .LASF829
C:\Users\CYMR90~1\AppData\Local\Temp\cchaIJlx.s:29154  .debug_str:0000000000025727 .LASF830
C:\Users\CYMR90~1\AppData\Local\Temp\cchaIJlx.s:22683  .debug_str:000000000000b791 .LASF831
C:\Users\CYMR90~1\AppData\Local\Temp\cchaIJlx.s:23453  .debug_str:000000000000e93e .LASF832
C:\Users\CYMR90~1\AppData\Local\Temp\cchaIJlx.s:21305  .debug_str:0000000000005eaa .LASF833
C:\Users\CYMR90~1\AppData\Local\Temp\cchaIJlx.s:24087  .debug_str:0000000000011078 .LASF834
C:\Users\CYMR90~1\AppData\Local\Temp\cchaIJlx.s:25868  .debug_str:0000000000018494 .LASF835
C:\Users\CYMR90~1\AppData\Local\Temp\cchaIJlx.s:23993  .debug_str:0000000000010af9 .LASF836
C:\Users\CYMR90~1\AppData\Local\Temp\cchaIJlx.s:27742  .debug_str:000000000001fdb3 .LASF837
C:\Users\CYMR90~1\AppData\Local\Temp\cchaIJlx.s:21985  .debug_str:0000000000008b0f .LASF838
C:\Users\CYMR90~1\AppData\Local\Temp\cchaIJlx.s:21141  .debug_str:00000000000054f7 .LASF839
C:\Users\CYMR90~1\AppData\Local\Temp\cchaIJlx.s:23893  .debug_str:00000000000104aa .LASF840
C:\Users\CYMR90~1\AppData\Local\Temp\cchaIJlx.s:22813  .debug_str:000000000000c050 .LASF841
C:\Users\CYMR90~1\AppData\Local\Temp\cchaIJlx.s:26912  .debug_str:000000000001c97c .LASF842
C:\Users\CYMR90~1\AppData\Local\Temp\cchaIJlx.s:20039  .debug_str:0000000000000f67 .LASF843
C:\Users\CYMR90~1\AppData\Local\Temp\cchaIJlx.s:20399  .debug_str:0000000000002514 .LASF844
C:\Users\CYMR90~1\AppData\Local\Temp\cchaIJlx.s:28740  .debug_str:00000000000239de .LASF845
C:\Users\CYMR90~1\AppData\Local\Temp\cchaIJlx.s:19803  .debug_str:0000000000000096 .LASF846
C:\Users\CYMR90~1\AppData\Local\Temp\cchaIJlx.s:21783  .debug_str:0000000000007dca .LASF847
C:\Users\CYMR90~1\AppData\Local\Temp\cchaIJlx.s:27598  .debug_str:000000000001f4a4 .LASF848
C:\Users\CYMR90~1\AppData\Local\Temp\cchaIJlx.s:21751  .debug_str:0000000000007b50 .LASF849
C:\Users\CYMR90~1\AppData\Local\Temp\cchaIJlx.s:23107  .debug_str:000000000000d439 .LASF852
C:\Users\CYMR90~1\AppData\Local\Temp\cchaIJlx.s:29926  .debug_str:0000000000028933 .LASF853
C:\Users\CYMR90~1\AppData\Local\Temp\cchaIJlx.s:25039  .debug_str:0000000000014ef0 .LASF854
C:\Users\CYMR90~1\AppData\Local\Temp\cchaIJlx.s:28242  .debug_str:0000000000021c26 .LASF856
C:\Users\CYMR90~1\AppData\Local\Temp\cchaIJlx.s:27142  .debug_str:000000000001d952 .LASF857
C:\Users\CYMR90~1\AppData\Local\Temp\cchaIJlx.s:29744  .debug_str:0000000000027c47 .LASF858
C:\Users\CYMR90~1\AppData\Local\Temp\cchaIJlx.s:23093  .debug_str:000000000000d355 .LASF859
C:\Users\CYMR90~1\AppData\Local\Temp\cchaIJlx.s:24043  .debug_str:0000000000010e05 .LASF860
C:\Users\CYMR90~1\AppData\Local\Temp\cchaIJlx.s:28174  .debug_str:00000000000217b5 .LASF861
C:\Users\CYMR90~1\AppData\Local\Temp\cchaIJlx.s:27336  .debug_str:000000000001e502 .LASF862
C:\Users\CYMR90~1\AppData\Local\Temp\cchaIJlx.s:20135  .debug_str:00000000000014ee .LASF863
C:\Users\CYMR90~1\AppData\Local\Temp\cchaIJlx.s:20791  .debug_str:0000000000003ddc .LASF864
C:\Users\CYMR90~1\AppData\Local\Temp\cchaIJlx.s:21187  .debug_str:00000000000057ca .LASF865
C:\Users\CYMR90~1\AppData\Local\Temp\cchaIJlx.s:22377  .debug_str:000000000000a387 .LASF866
C:\Users\CYMR90~1\AppData\Local\Temp\cchaIJlx.s:21853  .debug_str:00000000000082ca .LASF867
C:\Users\CYMR90~1\AppData\Local\Temp\cchaIJlx.s:27068  .debug_str:000000000001d44d .LASF868
C:\Users\CYMR90~1\AppData\Local\Temp\cchaIJlx.s:27680  .debug_str:000000000001f9b6 .LASF869
C:\Users\CYMR90~1\AppData\Local\Temp\cchaIJlx.s:28754  .debug_str:0000000000023aa4 .LASF870
C:\Users\CYMR90~1\AppData\Local\Temp\cchaIJlx.s:22021  .debug_str:0000000000008d71 .LASF871
C:\Users\CYMR90~1\AppData\Local\Temp\cchaIJlx.s:22453  .debug_str:000000000000a838 .LASF872
C:\Users\CYMR90~1\AppData\Local\Temp\cchaIJlx.s:26904  .debug_str:000000000001c90a .LASF873
C:\Users\CYMR90~1\AppData\Local\Temp\cchaIJlx.s:29454  .debug_str:000000000002699d .LASF874
C:\Users\CYMR90~1\AppData\Local\Temp\cchaIJlx.s:24245  .debug_str:0000000000011b6d .LASF875
C:\Users\CYMR90~1\AppData\Local\Temp\cchaIJlx.s:24943  .debug_str:0000000000014899 .LASF876
C:\Users\CYMR90~1\AppData\Local\Temp\cchaIJlx.s:22255  .debug_str:0000000000009bd1 .LASF877
C:\Users\CYMR90~1\AppData\Local\Temp\cchaIJlx.s:26614  .debug_str:000000000001b6c6 .LASF878
C:\Users\CYMR90~1\AppData\Local\Temp\cchaIJlx.s:24039  .debug_str:0000000000010de0 .LASF879
C:\Users\CYMR90~1\AppData\Local\Temp\cchaIJlx.s:25576  .debug_str:00000000000172b4 .LASF880
C:\Users\CYMR90~1\AppData\Local\Temp\cchaIJlx.s:21121  .debug_str:00000000000053a0 .LASF881
C:\Users\CYMR90~1\AppData\Local\Temp\cchaIJlx.s:24467  .debug_str:0000000000012a99 .LASF882
C:\Users\CYMR90~1\AppData\Local\Temp\cchaIJlx.s:27570  .debug_str:000000000001f328 .LASF883
C:\Users\CYMR90~1\AppData\Local\Temp\cchaIJlx.s:27754  .debug_str:000000000001fe5c .LASF884
C:\Users\CYMR90~1\AppData\Local\Temp\cchaIJlx.s:31000  .debug_str:000000000002cd44 .LASF885
C:\Users\CYMR90~1\AppData\Local\Temp\cchaIJlx.s:26620  .debug_str:000000000001b71e .LASF886
C:\Users\CYMR90~1\AppData\Local\Temp\cchaIJlx.s:22125  .debug_str:0000000000009357 .LASF887
C:\Users\CYMR90~1\AppData\Local\Temp\cchaIJlx.s:28706  .debug_str:0000000000023811 .LASF888
C:\Users\CYMR90~1\AppData\Local\Temp\cchaIJlx.s:24405  .debug_str:0000000000012663 .LASF889
C:\Users\CYMR90~1\AppData\Local\Temp\cchaIJlx.s:28640  .debug_str:00000000000233a9 .LASF890
C:\Users\CYMR90~1\AppData\Local\Temp\cchaIJlx.s:20941  .debug_str:00000000000048c3 .LASF891
C:\Users\CYMR90~1\AppData\Local\Temp\cchaIJlx.s:23403  .debug_str:000000000000e610 .LASF892
C:\Users\CYMR90~1\AppData\Local\Temp\cchaIJlx.s:29398  .debug_str:0000000000026663 .LASF893
C:\Users\CYMR90~1\AppData\Local\Temp\cchaIJlx.s:28800  .debug_str:0000000000023d7b .LASF894
C:\Users\CYMR90~1\AppData\Local\Temp\cchaIJlx.s:20109  .debug_str:000000000000134b .LASF895
C:\Users\CYMR90~1\AppData\Local\Temp\cchaIJlx.s:24795  .debug_str:0000000000013f36 .LASF896
C:\Users\CYMR90~1\AppData\Local\Temp\cchaIJlx.s:21035  .debug_str:0000000000004e51 .LASF897
C:\Users\CYMR90~1\AppData\Local\Temp\cchaIJlx.s:22245  .debug_str:0000000000009b3d .LASF898
C:\Users\CYMR90~1\AppData\Local\Temp\cchaIJlx.s:29688  .debug_str:000000000002789e .LASF899
C:\Users\CYMR90~1\AppData\Local\Temp\cchaIJlx.s:22565  .debug_str:000000000000afdb .LASF900
C:\Users\CYMR90~1\AppData\Local\Temp\cchaIJlx.s:26666  .debug_str:000000000001b981 .LASF901
C:\Users\CYMR90~1\AppData\Local\Temp\cchaIJlx.s:30216  .debug_str:0000000000029b95 .LASF902
C:\Users\CYMR90~1\AppData\Local\Temp\cchaIJlx.s:28990  .debug_str:0000000000024af3 .LASF903
C:\Users\CYMR90~1\AppData\Local\Temp\cchaIJlx.s:29832  .debug_str:00000000000282d4 .LASF904
C:\Users\CYMR90~1\AppData\Local\Temp\cchaIJlx.s:24451  .debug_str:000000000001298b .LASF905
C:\Users\CYMR90~1\AppData\Local\Temp\cchaIJlx.s:21903  .debug_str:0000000000008602 .LASF906
C:\Users\CYMR90~1\AppData\Local\Temp\cchaIJlx.s:30384  .debug_str:000000000002a5d5 .LASF907
C:\Users\CYMR90~1\AppData\Local\Temp\cchaIJlx.s:23397  .debug_str:000000000000e5b2 .LASF908
C:\Users\CYMR90~1\AppData\Local\Temp\cchaIJlx.s:29662  .debug_str:00000000000276a4 .LASF909
C:\Users\CYMR90~1\AppData\Local\Temp\cchaIJlx.s:24013  .debug_str:0000000000010c7d .LASF910
C:\Users\CYMR90~1\AppData\Local\Temp\cchaIJlx.s:20497  .debug_str:0000000000002b40 .LASF911
C:\Users\CYMR90~1\AppData\Local\Temp\cchaIJlx.s:20081  .debug_str:00000000000011e2 .LASF912
C:\Users\CYMR90~1\AppData\Local\Temp\cchaIJlx.s:28092  .debug_str:00000000000212ee .LASF913
C:\Users\CYMR90~1\AppData\Local\Temp\cchaIJlx.s:28972  .debug_str:00000000000249c3 .LASF914
C:\Users\CYMR90~1\AppData\Local\Temp\cchaIJlx.s:22933  .debug_str:000000000000c81a .LASF915
C:\Users\CYMR90~1\AppData\Local\Temp\cchaIJlx.s:25550  .debug_str:0000000000017112 .LASF916
C:\Users\CYMR90~1\AppData\Local\Temp\cchaIJlx.s:23829  .debug_str:00000000000100ba .LASF917
C:\Users\CYMR90~1\AppData\Local\Temp\cchaIJlx.s:30456  .debug_str:000000000002a9dc .LASF918
C:\Users\CYMR90~1\AppData\Local\Temp\cchaIJlx.s:20067  .debug_str:00000000000010ee .LASF919
C:\Users\CYMR90~1\AppData\Local\Temp\cchaIJlx.s:22551  .debug_str:000000000000aef0 .LASF920
C:\Users\CYMR90~1\AppData\Local\Temp\cchaIJlx.s:28926  .debug_str:000000000002466d .LASF921
C:\Users\CYMR90~1\AppData\Local\Temp\cchaIJlx.s:26362  .debug_str:000000000001a613 .LASF922
C:\Users\CYMR90~1\AppData\Local\Temp\cchaIJlx.s:29430  .debug_str:0000000000026843 .LASF923
C:\Users\CYMR90~1\AppData\Local\Temp\cchaIJlx.s:25506  .debug_str:0000000000016e99 .LASF924
C:\Users\CYMR90~1\AppData\Local\Temp\cchaIJlx.s:20453  .debug_str:000000000000289b .LASF925
C:\Users\CYMR90~1\AppData\Local\Temp\cchaIJlx.s:26576  .debug_str:000000000001b476 .LASF926
C:\Users\CYMR90~1\AppData\Local\Temp\cchaIJlx.s:20179  .debug_str:000000000000180d .LASF927
C:\Users\CYMR90~1\AppData\Local\Temp\cchaIJlx.s:24973  .debug_str:0000000000014a54 .LASF928
C:\Users\CYMR90~1\AppData\Local\Temp\cchaIJlx.s:27630  .debug_str:000000000001f668 .LASF929
C:\Users\CYMR90~1\AppData\Local\Temp\cchaIJlx.s:30714  .debug_str:000000000002ba52 .LASF930
C:\Users\CYMR90~1\AppData\Local\Temp\cchaIJlx.s:30936  .debug_str:000000000002c94a .LASF931
C:\Users\CYMR90~1\AppData\Local\Temp\cchaIJlx.s:27530  .debug_str:000000000001f093 .LASF932
C:\Users\CYMR90~1\AppData\Local\Temp\cchaIJlx.s:30196  .debug_str:0000000000029a4a .LASF933
C:\Users\CYMR90~1\AppData\Local\Temp\cchaIJlx.s:25311  .debug_str:0000000000015fb0 .LASF934
C:\Users\CYMR90~1\AppData\Local\Temp\cchaIJlx.s:26138  .debug_str:0000000000019673 .LASF935
C:\Users\CYMR90~1\AppData\Local\Temp\cchaIJlx.s:25193  .debug_str:00000000000157a8 .LASF936
C:\Users\CYMR90~1\AppData\Local\Temp\cchaIJlx.s:29056  .debug_str:0000000000024f8f .LASF937
C:\Users\CYMR90~1\AppData\Local\Temp\cchaIJlx.s:19987  .debug_str:0000000000000c06 .LASF938
C:\Users\CYMR90~1\AppData\Local\Temp\cchaIJlx.s:27900  .debug_str:000000000002072b .LASF939
C:\Users\CYMR90~1\AppData\Local\Temp\cchaIJlx.s:29140  .debug_str:00000000000255d7 .LASF940
C:\Users\CYMR90~1\AppData\Local\Temp\cchaIJlx.s:22685  .debug_str:000000000000b7af .LASF941
C:\Users\CYMR90~1\AppData\Local\Temp\cchaIJlx.s:26350  .debug_str:000000000001a55a .LASF942
C:\Users\CYMR90~1\AppData\Local\Temp\cchaIJlx.s:23441  .debug_str:000000000000e84c .LASF943
C:\Users\CYMR90~1\AppData\Local\Temp\cchaIJlx.s:29082  .debug_str:00000000000251df .LASF944
C:\Users\CYMR90~1\AppData\Local\Temp\cchaIJlx.s:26760  .debug_str:000000000001bfa0 .LASF945
C:\Users\CYMR90~1\AppData\Local\Temp\cchaIJlx.s:23647  .debug_str:000000000000f4f1 .LASF946
C:\Users\CYMR90~1\AppData\Local\Temp\cchaIJlx.s:25654  .debug_str:0000000000017775 .LASF947
C:\Users\CYMR90~1\AppData\Local\Temp\cchaIJlx.s:27266  .debug_str:000000000001e0bf .LASF948
C:\Users\CYMR90~1\AppData\Local\Temp\cchaIJlx.s:23989  .debug_str:0000000000010abb .LASF949
C:\Users\CYMR90~1\AppData\Local\Temp\cchaIJlx.s:22995  .debug_str:000000000000cc57 .LASF950
C:\Users\CYMR90~1\AppData\Local\Temp\cchaIJlx.s:21611  .debug_str:0000000000007236 .LASF952
C:\Users\CYMR90~1\AppData\Local\Temp\cchaIJlx.s:25115  .debug_str:000000000001535d .LASF953
C:\Users\CYMR90~1\AppData\Local\Temp\cchaIJlx.s:23031  .debug_str:000000000000cecb .LASF954
C:\Users\CYMR90~1\AppData\Local\Temp\cchaIJlx.s:30928  .debug_str:000000000002c8d5 .LASF955
C:\Users\CYMR90~1\AppData\Local\Temp\cchaIJlx.s:30098  .debug_str:0000000000029432 .LASF956
C:\Users\CYMR90~1\AppData\Local\Temp\cchaIJlx.s:30186  .debug_str:00000000000299b4 .LASF960
C:\Users\CYMR90~1\AppData\Local\Temp\cchaIJlx.s:22151  .debug_str:000000000000952e .LASF961
C:\Users\CYMR90~1\AppData\Local\Temp\cchaIJlx.s:29462  .debug_str:0000000000026a28 .LASF962
C:\Users\CYMR90~1\AppData\Local\Temp\cchaIJlx.s:24217  .debug_str:00000000000119d9 .LASF963
C:\Users\CYMR90~1\AppData\Local\Temp\cchaIJlx.s:21635  .debug_str:00000000000073e2 .LASF964
C:\Users\CYMR90~1\AppData\Local\Temp\cchaIJlx.s:28272  .debug_str:0000000000021ddc .LASF965
C:\Users\CYMR90~1\AppData\Local\Temp\cchaIJlx.s:26570  .debug_str:000000000001b40a .LASF966
C:\Users\CYMR90~1\AppData\Local\Temp\cchaIJlx.s:29404  .debug_str:00000000000266bf .LASF967
C:\Users\CYMR90~1\AppData\Local\Temp\cchaIJlx.s:30498  .debug_str:000000000002ac5f .LASF968
C:\Users\CYMR90~1\AppData\Local\Temp\cchaIJlx.s:21367  .debug_str:00000000000062c7 .LASF969
C:\Users\CYMR90~1\AppData\Local\Temp\cchaIJlx.s:24835  .debug_str:00000000000141e8 .LASF970
C:\Users\CYMR90~1\AppData\Local\Temp\cchaIJlx.s:30586  .debug_str:000000000002b1c1 .LASF971
C:\Users\CYMR90~1\AppData\Local\Temp\cchaIJlx.s:23451  .debug_str:000000000000e918 .LASF972
C:\Users\CYMR90~1\AppData\Local\Temp\cchaIJlx.s:24897  .debug_str:00000000000145c6 .LASF973
C:\Users\CYMR90~1\AppData\Local\Temp\cchaIJlx.s:23055  .debug_str:000000000000d05f .LASF974
C:\Users\CYMR90~1\AppData\Local\Temp\cchaIJlx.s:25443  .debug_str:000000000001681e .LASF975
C:\Users\CYMR90~1\AppData\Local\Temp\cchaIJlx.s:30958  .debug_str:000000000002ca69 .LASF976
C:\Users\CYMR90~1\AppData\Local\Temp\cchaIJlx.s:22989  .debug_str:000000000000cbfc .LASF977
C:\Users\CYMR90~1\AppData\Local\Temp\cchaIJlx.s:30988  .debug_str:000000000002ccc1 .LASF978
C:\Users\CYMR90~1\AppData\Local\Temp\cchaIJlx.s:29244  .debug_str:0000000000025cb8 .LASF979
C:\Users\CYMR90~1\AppData\Local\Temp\cchaIJlx.s:29302  .debug_str:0000000000026054 .LASF980
C:\Users\CYMR90~1\AppData\Local\Temp\cchaIJlx.s:23505  .debug_str:000000000000ec7f .LASF981
C:\Users\CYMR90~1\AppData\Local\Temp\cchaIJlx.s:21073  .debug_str:00000000000050b4 .LASF982
C:\Users\CYMR90~1\AppData\Local\Temp\cchaIJlx.s:24241  .debug_str:0000000000011b50 .LASF983
C:\Users\CYMR90~1\AppData\Local\Temp\cchaIJlx.s:22025  .debug_str:0000000000008d91 .LASF984
C:\Users\CYMR90~1\AppData\Local\Temp\cchaIJlx.s:26990  .debug_str:000000000001cf16 .LASF985
C:\Users\CYMR90~1\AppData\Local\Temp\cchaIJlx.s:28556  .debug_str:0000000000022ebd .LASF986
C:\Users\CYMR90~1\AppData\Local\Temp\cchaIJlx.s:25259  .debug_str:0000000000015be4 .LASF987
C:\Users\CYMR90~1\AppData\Local\Temp\cchaIJlx.s:20515  .debug_str:0000000000002c48 .LASF988
C:\Users\CYMR90~1\AppData\Local\Temp\cchaIJlx.s:28474  .debug_str:0000000000022a24 .LASF989
C:\Users\CYMR90~1\AppData\Local\Temp\cchaIJlx.s:25956  .debug_str:00000000000189d0 .LASF990
C:\Users\CYMR90~1\AppData\Local\Temp\cchaIJlx.s:22985  .debug_str:000000000000cbd4 .LASF991
C:\Users\CYMR90~1\AppData\Local\Temp\cchaIJlx.s:29406  .debug_str:00000000000266e7 .LASF992
C:\Users\CYMR90~1\AppData\Local\Temp\cchaIJlx.s:21653  .debug_str:00000000000074eb .LASF993
C:\Users\CYMR90~1\AppData\Local\Temp\cchaIJlx.s:29224  .debug_str:0000000000025b6d .LASF994
C:\Users\CYMR90~1\AppData\Local\Temp\cchaIJlx.s:26038  .debug_str:000000000001908a .LASF995
C:\Users\CYMR90~1\AppData\Local\Temp\cchaIJlx.s:30006  .debug_str:0000000000028e36 .LASF996
C:\Users\CYMR90~1\AppData\Local\Temp\cchaIJlx.s:28728  .debug_str:0000000000023941 .LASF997
C:\Users\CYMR90~1\AppData\Local\Temp\cchaIJlx.s:28110  .debug_str:00000000000213ef .LASF998
C:\Users\CYMR90~1\AppData\Local\Temp\cchaIJlx.s:20411  .debug_str:000000000000258e .LASF999
C:\Users\CYMR90~1\AppData\Local\Temp\cchaIJlx.s:20741  .debug_str:0000000000003ad2 .LASF1000
C:\Users\CYMR90~1\AppData\Local\Temp\cchaIJlx.s:28902  .debug_str:0000000000024502 .LASF1001
C:\Users\CYMR90~1\AppData\Local\Temp\cchaIJlx.s:23837  .debug_str:0000000000010161 .LASF1002
C:\Users\CYMR90~1\AppData\Local\Temp\cchaIJlx.s:21027  .debug_str:0000000000004df8 .LASF1003
C:\Users\CYMR90~1\AppData\Local\Temp\cchaIJlx.s:26800  .debug_str:000000000001c20d .LASF1004
C:\Users\CYMR90~1\AppData\Local\Temp\cchaIJlx.s:24195  .debug_str:00000000000117f4 .LASF1005
C:\Users\CYMR90~1\AppData\Local\Temp\cchaIJlx.s:22949  .debug_str:000000000000c9e5 .LASF1006
C:\Users\CYMR90~1\AppData\Local\Temp\cchaIJlx.s:21337  .debug_str:00000000000060f1 .LASF1007
C:\Users\CYMR90~1\AppData\Local\Temp\cchaIJlx.s:28268  .debug_str:0000000000021da4 .LASF1008
C:\Users\CYMR90~1\AppData\Local\Temp\cchaIJlx.s:25734  .debug_str:0000000000017c5d .LASF1009
C:\Users\CYMR90~1\AppData\Local\Temp\cchaIJlx.s:25892  .debug_str:00000000000185dc .LASF1010
C:\Users\CYMR90~1\AppData\Local\Temp\cchaIJlx.s:23273  .debug_str:000000000000de17 .LASF1011
C:\Users\CYMR90~1\AppData\Local\Temp\cchaIJlx.s:27038  .debug_str:000000000001d28c .LASF1012
C:\Users\CYMR90~1\AppData\Local\Temp\cchaIJlx.s:23467  .debug_str:000000000000ea0b .LASF1013
C:\Users\CYMR90~1\AppData\Local\Temp\cchaIJlx.s:26156  .debug_str:00000000000197de .LASF1014
C:\Users\CYMR90~1\AppData\Local\Temp\cchaIJlx.s:20739  .debug_str:0000000000003abc .LASF1015
C:\Users\CYMR90~1\AppData\Local\Temp\cchaIJlx.s:23665  .debug_str:000000000000f5f5 .LASF1016
C:\Users\CYMR90~1\AppData\Local\Temp\cchaIJlx.s:21177  .debug_str:000000000000571f .LASF1017
C:\Users\CYMR90~1\AppData\Local\Temp\cchaIJlx.s:29550  .debug_str:0000000000026f69 .LASF1018
C:\Users\CYMR90~1\AppData\Local\Temp\cchaIJlx.s:23515  .debug_str:000000000000ed01 .LASF1019
C:\Users\CYMR90~1\AppData\Local\Temp\cchaIJlx.s:20405  .debug_str:0000000000002545 .LASF1020
C:\Users\CYMR90~1\AppData\Local\Temp\cchaIJlx.s:25774  .debug_str:0000000000017eeb .LASF1021
C:\Users\CYMR90~1\AppData\Local\Temp\cchaIJlx.s:22811  .debug_str:000000000000c038 .LASF1022
C:\Users\CYMR90~1\AppData\Local\Temp\cchaIJlx.s:29480  .debug_str:0000000000026b1c .LASF1023
C:\Users\CYMR90~1\AppData\Local\Temp\cchaIJlx.s:22061  .debug_str:0000000000008fb3 .LASF1024
C:\Users\CYMR90~1\AppData\Local\Temp\cchaIJlx.s:24519  .debug_str:0000000000012dd3 .LASF1025
C:\Users\CYMR90~1\AppData\Local\Temp\cchaIJlx.s:24017  .debug_str:0000000000010cbe .LASF1026
C:\Users\CYMR90~1\AppData\Local\Temp\cchaIJlx.s:24965  .debug_str:00000000000149a0 .LASF1027
C:\Users\CYMR90~1\AppData\Local\Temp\cchaIJlx.s:27118  .debug_str:000000000001d7b7 .LASF1028
C:\Users\CYMR90~1\AppData\Local\Temp\cchaIJlx.s:27490  .debug_str:000000000001ee0a .LASF1029
C:\Users\CYMR90~1\AppData\Local\Temp\cchaIJlx.s:28772  .debug_str:0000000000023bb9 .LASF1030
C:\Users\CYMR90~1\AppData\Local\Temp\cchaIJlx.s:27854  .debug_str:000000000002047b .LASF1031
C:\Users\CYMR90~1\AppData\Local\Temp\cchaIJlx.s:30100  .debug_str:000000000002949a .LASF1032
C:\Users\CYMR90~1\AppData\Local\Temp\cchaIJlx.s:22207  .debug_str:00000000000098b6 .LASF1033
C:\Users\CYMR90~1\AppData\Local\Temp\cchaIJlx.s:21081  .debug_str:0000000000005136 .LASF1034
C:\Users\CYMR90~1\AppData\Local\Temp\cchaIJlx.s:26082  .debug_str:0000000000019329 .LASF1035
C:\Users\CYMR90~1\AppData\Local\Temp\cchaIJlx.s:26342  .debug_str:000000000001a4d6 .LASF1036
C:\Users\CYMR90~1\AppData\Local\Temp\cchaIJlx.s:28570  .debug_str:0000000000022f73 .LASF1037
C:\Users\CYMR90~1\AppData\Local\Temp\cchaIJlx.s:23687  .debug_str:000000000000f801 .LASF1038
C:\Users\CYMR90~1\AppData\Local\Temp\cchaIJlx.s:27222  .debug_str:000000000001de0b .LASF1039
C:\Users\CYMR90~1\AppData\Local\Temp\cchaIJlx.s:25131  .debug_str:0000000000015474 .LASF1040
C:\Users\CYMR90~1\AppData\Local\Temp\cchaIJlx.s:23595  .debug_str:000000000000f1ce .LASF1041
C:\Users\CYMR90~1\AppData\Local\Temp\cchaIJlx.s:29294  .debug_str:0000000000025fe4 .LASF1042
C:\Users\CYMR90~1\AppData\Local\Temp\cchaIJlx.s:23839  .debug_str:0000000000010178 .LASF1043
C:\Users\CYMR90~1\AppData\Local\Temp\cchaIJlx.s:19821  .debug_str:000000000000019a .LASF1044
C:\Users\CYMR90~1\AppData\Local\Temp\cchaIJlx.s:22071  .debug_str:0000000000009020 .LASF1045
C:\Users\CYMR90~1\AppData\Local\Temp\cchaIJlx.s:26562  .debug_str:000000000001b394 .LASF1046
C:\Users\CYMR90~1\AppData\Local\Temp\cchaIJlx.s:25379  .debug_str:00000000000163a9 .LASF1047
C:\Users\CYMR90~1\AppData\Local\Temp\cchaIJlx.s:28614  .debug_str:0000000000023202 .LASF1048
C:\Users\CYMR90~1\AppData\Local\Temp\cchaIJlx.s:27456  .debug_str:000000000001ebf9 .LASF1049
C:\Users\CYMR90~1\AppData\Local\Temp\cchaIJlx.s:20589  .debug_str:0000000000003114 .LASF1050
C:\Users\CYMR90~1\AppData\Local\Temp\cchaIJlx.s:27466  .debug_str:000000000001ec84 .LASF1051
C:\Users\CYMR90~1\AppData\Local\Temp\cchaIJlx.s:27662  .debug_str:000000000001f882 .LASF1052
C:\Users\CYMR90~1\AppData\Local\Temp\cchaIJlx.s:22563  .debug_str:000000000000afc9 .LASF1053
C:\Users\CYMR90~1\AppData\Local\Temp\cchaIJlx.s:28516  .debug_str:0000000000022c78 .LASF1054
C:\Users\CYMR90~1\AppData\Local\Temp\cchaIJlx.s:24495  .debug_str:0000000000012c39 .LASF1055
C:\Users\CYMR90~1\AppData\Local\Temp\cchaIJlx.s:23447  .debug_str:000000000000e8c6 .LASF1056
C:\Users\CYMR90~1\AppData\Local\Temp\cchaIJlx.s:29724  .debug_str:0000000000027b1b .LASF1057
C:\Users\CYMR90~1\AppData\Local\Temp\cchaIJlx.s:30304  .debug_str:000000000002a08e .LASF1058
C:\Users\CYMR90~1\AppData\Local\Temp\cchaIJlx.s:29054  .debug_str:0000000000024f6d .LASF1059
C:\Users\CYMR90~1\AppData\Local\Temp\cchaIJlx.s:20265  .debug_str:0000000000001d67 .LASF1060
C:\Users\CYMR90~1\AppData\Local\Temp\cchaIJlx.s:21885  .debug_str:00000000000084ff .LASF1061
C:\Users\CYMR90~1\AppData\Local\Temp\cchaIJlx.s:19951  .debug_str:000000000000096b .LASF1062
C:\Users\CYMR90~1\AppData\Local\Temp\cchaIJlx.s:24873  .debug_str:00000000000143f0 .LASF1063
C:\Users\CYMR90~1\AppData\Local\Temp\cchaIJlx.s:20789  .debug_str:0000000000003dc5 .LASF1064
C:\Users\CYMR90~1\AppData\Local\Temp\cchaIJlx.s:19891  .debug_str:0000000000000587 .LASF1065
C:\Users\CYMR90~1\AppData\Local\Temp\cchaIJlx.s:30994  .debug_str:000000000002cd0a .LASF1066
C:\Users\CYMR90~1\AppData\Local\Temp\cchaIJlx.s:28904  .debug_str:000000000002451a .LASF1067
C:\Users\CYMR90~1\AppData\Local\Temp\cchaIJlx.s:25441  .debug_str:0000000000016804 .LASF1068
C:\Users\CYMR90~1\AppData\Local\Temp\cchaIJlx.s:27008  .debug_str:000000000001d0a2 .LASF1069
C:\Users\CYMR90~1\AppData\Local\Temp\cchaIJlx.s:20005  .debug_str:0000000000000cf8 .LASF1070
C:\Users\CYMR90~1\AppData\Local\Temp\cchaIJlx.s:22335  .debug_str:000000000000a0c0 .LASF1071
C:\Users\CYMR90~1\AppData\Local\Temp\cchaIJlx.s:28424  .debug_str:00000000000226d9 .LASF1072
C:\Users\CYMR90~1\AppData\Local\Temp\cchaIJlx.s:26972  .debug_str:000000000001cdd3 .LASF1073
C:\Users\CYMR90~1\AppData\Local\Temp\cchaIJlx.s:29970  .debug_str:0000000000028bd5 .LASF1074
C:\Users\CYMR90~1\AppData\Local\Temp\cchaIJlx.s:25584  .debug_str:0000000000017315 .LASF1075
C:\Users\CYMR90~1\AppData\Local\Temp\cchaIJlx.s:20447  .debug_str:000000000000284b .LASF1076
C:\Users\CYMR90~1\AppData\Local\Temp\cchaIJlx.s:30390  .debug_str:000000000002a624 .LASF1077
C:\Users\CYMR90~1\AppData\Local\Temp\cchaIJlx.s:21405  .debug_str:0000000000006508 .LASF1078
C:\Users\CYMR90~1\AppData\Local\Temp\cchaIJlx.s:27898  .debug_str:0000000000020719 .LASF1079
C:\Users\CYMR90~1\AppData\Local\Temp\cchaIJlx.s:23285  .debug_str:000000000000decb .LASF1080
C:\Users\CYMR90~1\AppData\Local\Temp\cchaIJlx.s:26780  .debug_str:000000000001c0e3 .LASF1081
C:\Users\CYMR90~1\AppData\Local\Temp\cchaIJlx.s:29580  .debug_str:00000000000271e8 .LASF1082
C:\Users\CYMR90~1\AppData\Local\Temp\cchaIJlx.s:25071  .debug_str:00000000000150e3 .LASF1083
C:\Users\CYMR90~1\AppData\Local\Temp\cchaIJlx.s:28116  .debug_str:0000000000021455 .LASF1084
C:\Users\CYMR90~1\AppData\Local\Temp\cchaIJlx.s:24749  .debug_str:0000000000013c83 .LASF1085
C:\Users\CYMR90~1\AppData\Local\Temp\cchaIJlx.s:20213  .debug_str:0000000000001a31 .LASF1086
C:\Users\CYMR90~1\AppData\Local\Temp\cchaIJlx.s:23319  .debug_str:000000000000e0d4 .LASF1087
C:\Users\CYMR90~1\AppData\Local\Temp\cchaIJlx.s:29300  .debug_str:0000000000026045 .LASF1088
C:\Users\CYMR90~1\AppData\Local\Temp\cchaIJlx.s:28418  .debug_str:0000000000022681 .LASF1089
C:\Users\CYMR90~1\AppData\Local\Temp\cchaIJlx.s:20057  .debug_str:000000000000104c .LASF1090
C:\Users\CYMR90~1\AppData\Local\Temp\cchaIJlx.s:30922  .debug_str:000000000002c873 .LASF1091
C:\Users\CYMR90~1\AppData\Local\Temp\cchaIJlx.s:29686  .debug_str:0000000000027886 .LASF1092
C:\Users\CYMR90~1\AppData\Local\Temp\cchaIJlx.s:23667  .debug_str:000000000000f60b .LASF1093
C:\Users\CYMR90~1\AppData\Local\Temp\cchaIJlx.s:29344  .debug_str:00000000000262b9 .LASF1094
C:\Users\CYMR90~1\AppData\Local\Temp\cchaIJlx.s:25147  .debug_str:000000000001550e .LASF1095
C:\Users\CYMR90~1\AppData\Local\Temp\cchaIJlx.s:26592  .debug_str:000000000001b55c .LASF1096
C:\Users\CYMR90~1\AppData\Local\Temp\cchaIJlx.s:27122  .debug_str:000000000001d809 .LASF1097
C:\Users\CYMR90~1\AppData\Local\Temp\cchaIJlx.s:21393  .debug_str:0000000000006463 .LASF1098
C:\Users\CYMR90~1\AppData\Local\Temp\cchaIJlx.s:24515  .debug_str:0000000000012d70 .LASF1099
C:\Users\CYMR90~1\AppData\Local\Temp\cchaIJlx.s:23833  .debug_str:0000000000010111 .LASF1100
C:\Users\CYMR90~1\AppData\Local\Temp\cchaIJlx.s:28690  .debug_str:0000000000023715 .LASF1101
C:\Users\CYMR90~1\AppData\Local\Temp\cchaIJlx.s:23001  .debug_str:000000000000ccb1 .LASF1102
C:\Users\CYMR90~1\AppData\Local\Temp\cchaIJlx.s:28360  .debug_str:00000000000222ed .LASF1103
C:\Users\CYMR90~1\AppData\Local\Temp\cchaIJlx.s:29920  .debug_str:00000000000288e1 .LASF1104
C:\Users\CYMR90~1\AppData\Local\Temp\cchaIJlx.s:27788  .debug_str:0000000000020037 .LASF1105
C:\Users\CYMR90~1\AppData\Local\Temp\cchaIJlx.s:24695  .debug_str:0000000000013959 .LASF1106
C:\Users\CYMR90~1\AppData\Local\Temp\cchaIJlx.s:28610  .debug_str:00000000000231cc .LASF1107
C:\Users\CYMR90~1\AppData\Local\Temp\cchaIJlx.s:26508  .debug_str:000000000001b00f .LASF1108
C:\Users\CYMR90~1\AppData\Local\Temp\cchaIJlx.s:21409  .debug_str:0000000000006544 .LASF1109
C:\Users\CYMR90~1\AppData\Local\Temp\cchaIJlx.s:22365  .debug_str:000000000000a299 .LASF1110
C:\Users\CYMR90~1\AppData\Local\Temp\cchaIJlx.s:20275  .debug_str:0000000000001e08 .LASF1111
C:\Users\CYMR90~1\AppData\Local\Temp\cchaIJlx.s:21491  .debug_str:0000000000006a61 .LASF1112
C:\Users\CYMR90~1\AppData\Local\Temp\cchaIJlx.s:22587  .debug_str:000000000000b12e .LASF1113
C:\Users\CYMR90~1\AppData\Local\Temp\cchaIJlx.s:21145  .debug_str:000000000000551f .LASF1114
C:\Users\CYMR90~1\AppData\Local\Temp\cchaIJlx.s:22157  .debug_str:000000000000956a .LASF1115
C:\Users\CYMR90~1\AppData\Local\Temp\cchaIJlx.s:29762  .debug_str:0000000000027db3 .LASF1116
C:\Users\CYMR90~1\AppData\Local\Temp\cchaIJlx.s:30254  .debug_str:0000000000029dad .LASF1117
C:\Users\CYMR90~1\AppData\Local\Temp\cchaIJlx.s:21309  .debug_str:0000000000005f3a .LASF1118
C:\Users\CYMR90~1\AppData\Local\Temp\cchaIJlx.s:25750  .debug_str:0000000000017d61 .LASF1119
C:\Users\CYMR90~1\AppData\Local\Temp\cchaIJlx.s:21851  .debug_str:00000000000082ad .LASF1120
C:\Users\CYMR90~1\AppData\Local\Temp\cchaIJlx.s:22055  .debug_str:0000000000008f52 .LASF1121
C:\Users\CYMR90~1\AppData\Local\Temp\cchaIJlx.s:24631  .debug_str:0000000000013566 .LASF1122
C:\Users\CYMR90~1\AppData\Local\Temp\cchaIJlx.s:24267  .debug_str:0000000000011cdb .LASF1123
C:\Users\CYMR90~1\AppData\Local\Temp\cchaIJlx.s:27872  .debug_str:0000000000020589 .LASF1124
C:\Users\CYMR90~1\AppData\Local\Temp\cchaIJlx.s:25075  .debug_str:000000000001510c .LASF1125
C:\Users\CYMR90~1\AppData\Local\Temp\cchaIJlx.s:25167  .debug_str:0000000000015647 .LASF1126
C:\Users\CYMR90~1\AppData\Local\Temp\cchaIJlx.s:28506  .debug_str:0000000000022bda .LASF1127
C:\Users\CYMR90~1\AppData\Local\Temp\cchaIJlx.s:29578  .debug_str:00000000000271d3 .LASF1128
C:\Users\CYMR90~1\AppData\Local\Temp\cchaIJlx.s:21189  .debug_str:00000000000057d7 .LASF1129
C:\Users\CYMR90~1\AppData\Local\Temp\cchaIJlx.s:25165  .debug_str:0000000000015632 .LASF1130
C:\Users\CYMR90~1\AppData\Local\Temp\cchaIJlx.s:30096  .debug_str:000000000002941d .LASF1131
C:\Users\CYMR90~1\AppData\Local\Temp\cchaIJlx.s:30490  .debug_str:000000000002abf6 .LASF1132
C:\Users\CYMR90~1\AppData\Local\Temp\cchaIJlx.s:25862  .debug_str:000000000001840f .LASF1133
C:\Users\CYMR90~1\AppData\Local\Temp\cchaIJlx.s:28662  .debug_str:0000000000023523 .LASF1134
C:\Users\CYMR90~1\AppData\Local\Temp\cchaIJlx.s:21739  .debug_str:0000000000007aaa .LASF1135
C:\Users\CYMR90~1\AppData\Local\Temp\cchaIJlx.s:20965  .debug_str:0000000000004a36 .LASF1136
C:\Users\CYMR90~1\AppData\Local\Temp\cchaIJlx.s:20795  .debug_str:0000000000003e02 .LASF1137
C:\Users\CYMR90~1\AppData\Local\Temp\cchaIJlx.s:30106  .debug_str:00000000000294f9 .LASF1138
C:\Users\CYMR90~1\AppData\Local\Temp\cchaIJlx.s:27250  .debug_str:000000000001df9d .LASF1139
C:\Users\CYMR90~1\AppData\Local\Temp\cchaIJlx.s:27158  .debug_str:000000000001da39 .LASF1140
C:\Users\CYMR90~1\AppData\Local\Temp\cchaIJlx.s:19863  .debug_str:0000000000000428 .LASF1141
C:\Users\CYMR90~1\AppData\Local\Temp\cchaIJlx.s:24063  .debug_str:0000000000010f1c .LASF1142
C:\Users\CYMR90~1\AppData\Local\Temp\cchaIJlx.s:23325  .debug_str:000000000000e147 .LASF1143
C:\Users\CYMR90~1\AppData\Local\Temp\cchaIJlx.s:29634  .debug_str:00000000000274e4 .LASF1144
C:\Users\CYMR90~1\AppData\Local\Temp\cchaIJlx.s:27832  .debug_str:00000000000202b3 .LASF1145
C:\Users\CYMR90~1\AppData\Local\Temp\cchaIJlx.s:22845  .debug_str:000000000000c23c .LASF1146
C:\Users\CYMR90~1\AppData\Local\Temp\cchaIJlx.s:30918  .debug_str:000000000002c831 .LASF1147
C:\Users\CYMR90~1\AppData\Local\Temp\cchaIJlx.s:25608  .debug_str:0000000000017475 .LASF1148
C:\Users\CYMR90~1\AppData\Local\Temp\cchaIJlx.s:25870  .debug_str:00000000000184bc .LASF1149
C:\Users\CYMR90~1\AppData\Local\Temp\cchaIJlx.s:26612  .debug_str:000000000001b68b .LASF1150
C:\Users\CYMR90~1\AppData\Local\Temp\cchaIJlx.s:20277  .debug_str:0000000000001e26 .LASF1151
C:\Users\CYMR90~1\AppData\Local\Temp\cchaIJlx.s:27026  .debug_str:000000000001d1d4 .LASF1152
C:\Users\CYMR90~1\AppData\Local\Temp\cchaIJlx.s:22181  .debug_str:00000000000096a9 .LASF1153
C:\Users\CYMR90~1\AppData\Local\Temp\cchaIJlx.s:28130  .debug_str:0000000000021507 .LASF1154
C:\Users\CYMR90~1\AppData\Local\Temp\cchaIJlx.s:27376  .debug_str:000000000001e794 .LASF1155
C:\Users\CYMR90~1\AppData\Local\Temp\cchaIJlx.s:24993  .debug_str:0000000000014b8a .LASF1156
C:\Users\CYMR90~1\AppData\Local\Temp\cchaIJlx.s:27218  .debug_str:000000000001ddc2 .LASF1157
C:\Users\CYMR90~1\AppData\Local\Temp\cchaIJlx.s:22605  .debug_str:000000000000b21e .LASF1158
C:\Users\CYMR90~1\AppData\Local\Temp\cchaIJlx.s:30272  .debug_str:0000000000029ef2 .LASF1159
C:\Users\CYMR90~1\AppData\Local\Temp\cchaIJlx.s:20163  .debug_str:0000000000001678 .LASF1160
C:\Users\CYMR90~1\AppData\Local\Temp\cchaIJlx.s:30352  .debug_str:000000000002a3cc .LASF1161
C:\Users\CYMR90~1\AppData\Local\Temp\cchaIJlx.s:30046  .debug_str:0000000000029093 .LASF1162
C:\Users\CYMR90~1\AppData\Local\Temp\cchaIJlx.s:27108  .debug_str:000000000001d749 .LASF1163
C:\Users\CYMR90~1\AppData\Local\Temp\cchaIJlx.s:26244  .debug_str:0000000000019d80 .LASF1164
C:\Users\CYMR90~1\AppData\Local\Temp\cchaIJlx.s:23139  .debug_str:000000000000d649 .LASF1165
C:\Users\CYMR90~1\AppData\Local\Temp\cchaIJlx.s:27758  .debug_str:000000000001fe98 .LASF1166
C:\Users\CYMR90~1\AppData\Local\Temp\cchaIJlx.s:24025  .debug_str:0000000000010d29 .LASF1167
C:\Users\CYMR90~1\AppData\Local\Temp\cchaIJlx.s:22179  .debug_str:000000000000969f .LASF1168
C:\Users\CYMR90~1\AppData\Local\Temp\cchaIJlx.s:25107  .debug_str:00000000000152fe .LASF1169
C:\Users\CYMR90~1\AppData\Local\Temp\cchaIJlx.s:26450  .debug_str:000000000001ac24 .LASF1170
C:\Users\CYMR90~1\AppData\Local\Temp\cchaIJlx.s:26158  .debug_str:00000000000197f5 .LASF1171
C:\Users\CYMR90~1\AppData\Local\Temp\cchaIJlx.s:30298  .debug_str:000000000002a05c .LASF1172
C:\Users\CYMR90~1\AppData\Local\Temp\cchaIJlx.s:25389  .debug_str:0000000000016432 .LASF1173
C:\Users\CYMR90~1\AppData\Local\Temp\cchaIJlx.s:19985  .debug_str:0000000000000bf8 .LASF1174
C:\Users\CYMR90~1\AppData\Local\Temp\cchaIJlx.s:20385  .debug_str:0000000000002420 .LASF1175
C:\Users\CYMR90~1\AppData\Local\Temp\cchaIJlx.s:24603  .debug_str:00000000000133b6 .LASF1176
C:\Users\CYMR90~1\AppData\Local\Temp\cchaIJlx.s:22945  .debug_str:000000000000c998 .LASF1177
C:\Users\CYMR90~1\AppData\Local\Temp\cchaIJlx.s:27166  .debug_str:000000000001dabc .LASF1178
C:\Users\CYMR90~1\AppData\Local\Temp\cchaIJlx.s:23561  .debug_str:000000000000efa3 .LASF1179
C:\Users\CYMR90~1\AppData\Local\Temp\cchaIJlx.s:23125  .debug_str:000000000000d59b .LASF1180
C:\Users\CYMR90~1\AppData\Local\Temp\cchaIJlx.s:28866  .debug_str:00000000000242ba .LASF1181
C:\Users\CYMR90~1\AppData\Local\Temp\cchaIJlx.s:21995  .debug_str:0000000000008b9e .LASF1182
C:\Users\CYMR90~1\AppData\Local\Temp\cchaIJlx.s:20555  .debug_str:0000000000002ec5 .LASF1183
C:\Users\CYMR90~1\AppData\Local\Temp\cchaIJlx.s:27478  .debug_str:000000000001ed3f .LASF1184
C:\Users\CYMR90~1\AppData\Local\Temp\cchaIJlx.s:27930  .debug_str:00000000000208c7 .LASF1185
C:\Users\CYMR90~1\AppData\Local\Temp\cchaIJlx.s:29094  .debug_str:00000000000252a1 .LASF1186
C:\Users\CYMR90~1\AppData\Local\Temp\cchaIJlx.s:20281  .debug_str:0000000000001e58 .LASF1187
C:\Users\CYMR90~1\AppData\Local\Temp\cchaIJlx.s:21199  .debug_str:0000000000005867 .LASF1188
C:\Users\CYMR90~1\AppData\Local\Temp\cchaIJlx.s:28404  .debug_str:00000000000225a0 .LASF1189
C:\Users\CYMR90~1\AppData\Local\Temp\cchaIJlx.s:21743  .debug_str:0000000000007adb .LASF1190
C:\Users\CYMR90~1\AppData\Local\Temp\cchaIJlx.s:28454  .debug_str:0000000000022896 .LASF1191
C:\Users\CYMR90~1\AppData\Local\Temp\cchaIJlx.s:22919  .debug_str:000000000000c736 .LASF1192
C:\Users\CYMR90~1\AppData\Local\Temp\cchaIJlx.s:28118  .debug_str:0000000000021467 .LASF1193
C:\Users\CYMR90~1\AppData\Local\Temp\cchaIJlx.s:23171  .debug_str:000000000000d811 .LASF1194
C:\Users\CYMR90~1\AppData\Local\Temp\cchaIJlx.s:26710  .debug_str:000000000001bc50 .LASF1195
C:\Users\CYMR90~1\AppData\Local\Temp\cchaIJlx.s:24105  .debug_str:000000000001119d .LASF1196
C:\Users\CYMR90~1\AppData\Local\Temp\cchaIJlx.s:28152  .debug_str:0000000000021684 .LASF1197
C:\Users\CYMR90~1\AppData\Local\Temp\cchaIJlx.s:30296  .debug_str:000000000002a04d .LASF1198
C:\Users\CYMR90~1\AppData\Local\Temp\cchaIJlx.s:25411  .debug_str:0000000000016627 .LASF1199
C:\Users\CYMR90~1\AppData\Local\Temp\cchaIJlx.s:30302  .debug_str:000000000002a083 .LASF1200
C:\Users\CYMR90~1\AppData\Local\Temp\cchaIJlx.s:22425  .debug_str:000000000000a655 .LASF1201
C:\Users\CYMR90~1\AppData\Local\Temp\cchaIJlx.s:22087  .debug_str:0000000000009130 .LASF1202
C:\Users\CYMR90~1\AppData\Local\Temp\cchaIJlx.s:25596  .debug_str:00000000000173d4 .LASF1203
C:\Users\CYMR90~1\AppData\Local\Temp\cchaIJlx.s:29418  .debug_str:0000000000026790 .LASF1204
C:\Users\CYMR90~1\AppData\Local\Temp\cchaIJlx.s:24657  .debug_str:000000000001373a .LASF1205
C:\Users\CYMR90~1\AppData\Local\Temp\cchaIJlx.s:23731  .debug_str:000000000000fa8d .LASF1206
C:\Users\CYMR90~1\AppData\Local\Temp\cchaIJlx.s:30268  .debug_str:0000000000029ec0 .LASF1207
C:\Users\CYMR90~1\AppData\Local\Temp\cchaIJlx.s:28954  .debug_str:00000000000248ae .LASF1208
C:\Users\CYMR90~1\AppData\Local\Temp\cchaIJlx.s:23659  .debug_str:000000000000f5b3 .LASF1209
C:\Users\CYMR90~1\AppData\Local\Temp\cchaIJlx.s:21095  .debug_str:0000000000005208 .LASF1210
C:\Users\CYMR90~1\AppData\Local\Temp\cchaIJlx.s:21191  .debug_str:00000000000057ed .LASF1211
C:\Users\CYMR90~1\AppData\Local\Temp\cchaIJlx.s:21889  .debug_str:0000000000008543 .LASF1212
C:\Users\CYMR90~1\AppData\Local\Temp\cchaIJlx.s:21485  .debug_str:00000000000069e1 .LASF1213
C:\Users\CYMR90~1\AppData\Local\Temp\cchaIJlx.s:20395  .debug_str:00000000000024dc .LASF1214
C:\Users\CYMR90~1\AppData\Local\Temp\cchaIJlx.s:22223  .debug_str:00000000000099d0 .LASF1215
C:\Users\CYMR90~1\AppData\Local\Temp\cchaIJlx.s:20339  .debug_str:0000000000002170 .LASF1216
C:\Users\CYMR90~1\AppData\Local\Temp\cchaIJlx.s:28566  .debug_str:0000000000022f46 .LASF1217
C:\Users\CYMR90~1\AppData\Local\Temp\cchaIJlx.s:28580  .debug_str:0000000000022ffa .LASF1218
C:\Users\CYMR90~1\AppData\Local\Temp\cchaIJlx.s:29008  .debug_str:0000000000024c49 .LASF1219
C:\Users\CYMR90~1\AppData\Local\Temp\cchaIJlx.s:26596  .debug_str:000000000001b590 .LASF1220
C:\Users\CYMR90~1\AppData\Local\Temp\cchaIJlx.s:23213  .debug_str:000000000000da67 .LASF1221
C:\Users\CYMR90~1\AppData\Local\Temp\cchaIJlx.s:24923  .debug_str:0000000000014774 .LASF1222
C:\Users\CYMR90~1\AppData\Local\Temp\cchaIJlx.s:20575  .debug_str:0000000000002ff7 .LASF1223
C:\Users\CYMR90~1\AppData\Local\Temp\cchaIJlx.s:22147  .debug_str:0000000000009493 .LASF1224
C:\Users\CYMR90~1\AppData\Local\Temp\cchaIJlx.s:29598  .debug_str:0000000000027303 .LASF1225
C:\Users\CYMR90~1\AppData\Local\Temp\cchaIJlx.s:22689  .debug_str:000000000000b7e9 .LASF1226
C:\Users\CYMR90~1\AppData\Local\Temp\cchaIJlx.s:21627  .debug_str:0000000000007372 .LASF1227
C:\Users\CYMR90~1\AppData\Local\Temp\cchaIJlx.s:20663  .debug_str:00000000000035d2 .LASF1228
C:\Users\CYMR90~1\AppData\Local\Temp\cchaIJlx.s:30978  .debug_str:000000000002cc26 .LASF1229
C:\Users\CYMR90~1\AppData\Local\Temp\cchaIJlx.s:30028  .debug_str:0000000000028f83 .LASF1230
C:\Users\CYMR90~1\AppData\Local\Temp\cchaIJlx.s:29062  .debug_str:0000000000024fe4 .LASF1231
C:\Users\CYMR90~1\AppData\Local\Temp\cchaIJlx.s:28104  .debug_str:00000000000213a6 .LASF1232
C:\Users\CYMR90~1\AppData\Local\Temp\cchaIJlx.s:27988  .debug_str:0000000000020c6b .LASF1233
C:\Users\CYMR90~1\AppData\Local\Temp\cchaIJlx.s:27046  .debug_str:000000000001d2ef .LASF1234
C:\Users\CYMR90~1\AppData\Local\Temp\cchaIJlx.s:26112  .debug_str:0000000000019517 .LASF1235
C:\Users\CYMR90~1\AppData\Local\Temp\cchaIJlx.s:24819  .debug_str:00000000000140f5 .LASF1236
C:\Users\CYMR90~1\AppData\Local\Temp\cchaIJlx.s:24185  .debug_str:0000000000011774 .LASF1237
C:\Users\CYMR90~1\AppData\Local\Temp\cchaIJlx.s:30548  .debug_str:000000000002af3b .LASF1238
C:\Users\CYMR90~1\AppData\Local\Temp\cchaIJlx.s:22295  .debug_str:0000000000009e1f .LASF1239
C:\Users\CYMR90~1\AppData\Local\Temp\cchaIJlx.s:21303  .debug_str:0000000000005e93 .LASF1240
C:\Users\CYMR90~1\AppData\Local\Temp\cchaIJlx.s:20355  .debug_str:000000000000225c .LASF1241
C:\Users\CYMR90~1\AppData\Local\Temp\cchaIJlx.s:30684  .debug_str:000000000002b879 .LASF1242
C:\Users\CYMR90~1\AppData\Local\Temp\cchaIJlx.s:19879  .debug_str:00000000000004f1 .LASF1243
C:\Users\CYMR90~1\AppData\Local\Temp\cchaIJlx.s:30170  .debug_str:00000000000298c9 .LASF1244
C:\Users\CYMR90~1\AppData\Local\Temp\cchaIJlx.s:29204  .debug_str:0000000000025a49 .LASF1245
C:\Users\CYMR90~1\AppData\Local\Temp\cchaIJlx.s:28258  .debug_str:0000000000021d0f .LASF1246
C:\Users\CYMR90~1\AppData\Local\Temp\cchaIJlx.s:27284  .debug_str:000000000001e1b7 .LASF1247
C:\Users\CYMR90~1\AppData\Local\Temp\cchaIJlx.s:26394  .debug_str:000000000001a8ab .LASF1248
C:\Users\CYMR90~1\AppData\Local\Temp\cchaIJlx.s:25455  .debug_str:0000000000016925 .LASF1249
C:\Users\CYMR90~1\AppData\Local\Temp\cchaIJlx.s:25612  .debug_str:00000000000174d6 .LASF1250
C:\Users\CYMR90~1\AppData\Local\Temp\cchaIJlx.s:23567  .debug_str:000000000000efe8 .LASF1251
C:\Users\CYMR90~1\AppData\Local\Temp\cchaIJlx.s:25712  .debug_str:0000000000017b41 .LASF1252
C:\Users\CYMR90~1\AppData\Local\Temp\cchaIJlx.s:23061  .debug_str:000000000000d0d9 .LASF1253
C:\Users\CYMR90~1\AppData\Local\Temp\cchaIJlx.s:22101  .debug_str:00000000000091ff .LASF1254
C:\Users\CYMR90~1\AppData\Local\Temp\cchaIJlx.s:20123  .debug_str:0000000000001446 .LASF1255
C:\Users\CYMR90~1\AppData\Local\Temp\cchaIJlx.s:22977  .debug_str:000000000000cb7e .LASF1256
C:\Users\CYMR90~1\AppData\Local\Temp\cchaIJlx.s:21257  .debug_str:0000000000005bec .LASF1257
C:\Users\CYMR90~1\AppData\Local\Temp\cchaIJlx.s:25984  .debug_str:0000000000018c4f .LASF1258
C:\Users\CYMR90~1\AppData\Local\Temp\cchaIJlx.s:25986  .debug_str:0000000000018c62 .LASF1259
C:\Users\CYMR90~1\AppData\Local\Temp\cchaIJlx.s:28458  .debug_str:00000000000228c6 .LASF1260
C:\Users\CYMR90~1\AppData\Local\Temp\cchaIJlx.s:26590  .debug_str:000000000001b549 .LASF1261
C:\Users\CYMR90~1\AppData\Local\Temp\cchaIJlx.s:23995  .debug_str:0000000000010bbf .LASF1262
C:\Users\CYMR90~1\AppData\Local\Temp\cchaIJlx.s:21149  .debug_str:0000000000005562 .LASF1263
C:\Users\CYMR90~1\AppData\Local\Temp\cchaIJlx.s:23301  .debug_str:000000000000dfb1 .LASF1264
C:\Users\CYMR90~1\AppData\Local\Temp\cchaIJlx.s:25479  .debug_str:0000000000016b4c .LASF1265
C:\Users\CYMR90~1\AppData\Local\Temp\cchaIJlx.s:23351  .debug_str:000000000000e2a3 .LASF1266
C:\Users\CYMR90~1\AppData\Local\Temp\cchaIJlx.s:28484  .debug_str:0000000000022abd .LASF1267
C:\Users\CYMR90~1\AppData\Local\Temp\cchaIJlx.s:28656  .debug_str:00000000000234d9 .LASF1268
C:\Users\CYMR90~1\AppData\Local\Temp\cchaIJlx.s:24123  .debug_str:000000000001129b .LASF1269
C:\Users\CYMR90~1\AppData\Local\Temp\cchaIJlx.s:26506  .debug_str:000000000001affa .LASF1270
C:\Users\CYMR90~1\AppData\Local\Temp\cchaIJlx.s:30596  .debug_str:000000000002b285 .LASF1271
C:\Users\CYMR90~1\AppData\Local\Temp\cchaIJlx.s:30132  .debug_str:00000000000296a2 .LASF1272
C:\Users\CYMR90~1\AppData\Local\Temp\cchaIJlx.s:27168  .debug_str:000000000001dac9 .LASF1273
C:\Users\CYMR90~1\AppData\Local\Temp\cchaIJlx.s:19941  .debug_str:00000000000008dd .LASF1274
C:\Users\CYMR90~1\AppData\Local\Temp\cchaIJlx.s:25992  .debug_str:0000000000018cb0 .LASF1275
C:\Users\CYMR90~1\AppData\Local\Temp\cchaIJlx.s:20047  .debug_str:0000000000000fc8 .LASF1276
C:\Users\CYMR90~1\AppData\Local\Temp\cchaIJlx.s:22317  .debug_str:0000000000009f9c .LASF1277
C:\Users\CYMR90~1\AppData\Local\Temp\cchaIJlx.s:21323  .debug_str:000000000000601f .LASF1278
C:\Users\CYMR90~1\AppData\Local\Temp\cchaIJlx.s:20383  .debug_str:000000000000240e .LASF1279
C:\Users\CYMR90~1\AppData\Local\Temp\cchaIJlx.s:30706  .debug_str:000000000002b9cb .LASF1280
C:\Users\CYMR90~1\AppData\Local\Temp\cchaIJlx.s:21211  .debug_str:000000000000592b .LASF1281
C:\Users\CYMR90~1\AppData\Local\Temp\cchaIJlx.s:20267  .debug_str:0000000000001d84 .LASF1282
C:\Users\CYMR90~1\AppData\Local\Temp\cchaIJlx.s:27326  .debug_str:000000000001e44b .LASF1283
C:\Users\CYMR90~1\AppData\Local\Temp\cchaIJlx.s:20013  .debug_str:0000000000000d68 .LASF1284
C:\Users\CYMR90~1\AppData\Local\Temp\cchaIJlx.s:28680  .debug_str:000000000002368f .LASF1285
C:\Users\CYMR90~1\AppData\Local\Temp\cchaIJlx.s:27706  .debug_str:000000000001fb31 .LASF1286
C:\Users\CYMR90~1\AppData\Local\Temp\cchaIJlx.s:26774  .debug_str:000000000001c064 .LASF1287
C:\Users\CYMR90~1\AppData\Local\Temp\cchaIJlx.s:25824  .debug_str:00000000000181df .LASF1288
C:\Users\CYMR90~1\AppData\Local\Temp\cchaIJlx.s:24861  .debug_str:0000000000014362 .LASF1289
C:\Users\CYMR90~1\AppData\Local\Temp\cchaIJlx.s:23925  .debug_str:00000000000106a4 .LASF1290
C:\Users\CYMR90~1\AppData\Local\Temp\cchaIJlx.s:28208  .debug_str:00000000000219e2 .LASF1291
C:\Users\CYMR90~1\AppData\Local\Temp\cchaIJlx.s:27238  .debug_str:000000000001df00 .LASF1292
C:\Users\CYMR90~1\AppData\Local\Temp\cchaIJlx.s:26334  .debug_str:000000000001a484 .LASF1293
C:\Users\CYMR90~1\AppData\Local\Temp\cchaIJlx.s:25343  .debug_str:00000000000161a8 .LASF1294
C:\Users\CYMR90~1\AppData\Local\Temp\cchaIJlx.s:24413  .debug_str:00000000000126e7 .LASF1295
C:\Users\CYMR90~1\AppData\Local\Temp\cchaIJlx.s:23459  .debug_str:000000000000e9a3 .LASF1296
C:\Users\CYMR90~1\AppData\Local\Temp\cchaIJlx.s:22825  .debug_str:000000000000c120 .LASF1297
C:\Users\CYMR90~1\AppData\Local\Temp\cchaIJlx.s:27672  .debug_str:000000000001f90d .LASF1298
C:\Users\CYMR90~1\AppData\Local\Temp\cchaIJlx.s:26748  .debug_str:000000000001beee .LASF1299
C:\Users\CYMR90~1\AppData\Local\Temp\cchaIJlx.s:25792  .debug_str:0000000000017fdb .LASF1300
C:\Users\CYMR90~1\AppData\Local\Temp\cchaIJlx.s:26722  .debug_str:000000000001bd24 .LASF1301
C:\Users\CYMR90~1\AppData\Local\Temp\cchaIJlx.s:27926  .debug_str:00000000000208a4 .LASF1302
C:\Users\CYMR90~1\AppData\Local\Temp\cchaIJlx.s:25387  .debug_str:000000000001641f .LASF1303
C:\Users\CYMR90~1\AppData\Local\Temp\cchaIJlx.s:26254  .debug_str:0000000000019e24 .LASF1304
C:\Users\CYMR90~1\AppData\Local\Temp\cchaIJlx.s:26226  .debug_str:0000000000019c90 .LASF1305
C:\Users\CYMR90~1\AppData\Local\Temp\cchaIJlx.s:21999  .debug_str:0000000000008bd2 .LASF1306
C:\Users\CYMR90~1\AppData\Local\Temp\cchaIJlx.s:20999  .debug_str:0000000000004c56 .LASF1307
C:\Users\CYMR90~1\AppData\Local\Temp\cchaIJlx.s:20059  .debug_str:000000000000105e .LASF1308
C:\Users\CYMR90~1\AppData\Local\Temp\cchaIJlx.s:30368  .debug_str:000000000002a4cb .LASF1309
C:\Users\CYMR90~1\AppData\Local\Temp\cchaIJlx.s:29414  .debug_str:0000000000026755 .LASF1310
C:\Users\CYMR90~1\AppData\Local\Temp\cchaIJlx.s:28460  .debug_str:00000000000228d7 .LASF1311
C:\Users\CYMR90~1\AppData\Local\Temp\cchaIJlx.s:21953  .debug_str:0000000000008909 .LASF1312
C:\Users\CYMR90~1\AppData\Local\Temp\cchaIJlx.s:21203  .debug_str:00000000000058b9 .LASF1313
C:\Users\CYMR90~1\AppData\Local\Temp\cchaIJlx.s:24575  .debug_str:000000000001317d .LASF1314
C:\Users\CYMR90~1\AppData\Local\Temp\cchaIJlx.s:30584  .debug_str:000000000002b1a9 .LASF1315
C:\Users\CYMR90~1\AppData\Local\Temp\cchaIJlx.s:29134  .debug_str:000000000002557c .LASF1316
C:\Users\CYMR90~1\AppData\Local\Temp\cchaIJlx.s:28672  .debug_str:00000000000235f3 .LASF1317
C:\Users\CYMR90~1\AppData\Local\Temp\cchaIJlx.s:27698  .debug_str:000000000001fac4 .LASF1318
C:\Users\CYMR90~1\AppData\Local\Temp\cchaIJlx.s:26784  .debug_str:000000000001c10e .LASF1319
C:\Users\CYMR90~1\AppData\Local\Temp\cchaIJlx.s:25834  .debug_str:000000000001828d .LASF1320
C:\Users\CYMR90~1\AppData\Local\Temp\cchaIJlx.s:24871  .debug_str:00000000000143d8 .LASF1321
C:\Users\CYMR90~1\AppData\Local\Temp\cchaIJlx.s:23931  .debug_str:00000000000106ff .LASF1322
C:\Users\CYMR90~1\AppData\Local\Temp\cchaIJlx.s:24385  .debug_str:000000000001250d .LASF1323
C:\Users\CYMR90~1\AppData\Local\Temp\cchaIJlx.s:22829  .debug_str:000000000000c145 .LASF1324
C:\Users\CYMR90~1\AppData\Local\Temp\cchaIJlx.s:22477  .debug_str:000000000000a972 .LASF1325
C:\Users\CYMR90~1\AppData\Local\Temp\cchaIJlx.s:21493  .debug_str:0000000000006a7d .LASF1326
C:\Users\CYMR90~1\AppData\Local\Temp\cchaIJlx.s:20531  .debug_str:0000000000002d4f .LASF1327
C:\Users\CYMR90~1\AppData\Local\Temp\cchaIJlx.s:30856  .debug_str:000000000002c416 .LASF1328
C:\Users\CYMR90~1\AppData\Local\Temp\cchaIJlx.s:29948  .debug_str:0000000000028a60 .LASF1329
C:\Users\CYMR90~1\AppData\Local\Temp\cchaIJlx.s:28988  .debug_str:0000000000024adb .LASF1330
C:\Users\CYMR90~1\AppData\Local\Temp\cchaIJlx.s:28026  .debug_str:0000000000020e75 .LASF1331
C:\Users\CYMR90~1\AppData\Local\Temp\cchaIJlx.s:27080  .debug_str:000000000001d540 .LASF1332
C:\Users\CYMR90~1\AppData\Local\Temp\cchaIJlx.s:27500  .debug_str:000000000001eeb8 .LASF1333
C:\Users\CYMR90~1\AppData\Local\Temp\cchaIJlx.s:26606  .debug_str:000000000001b62f .LASF1334
C:\Users\CYMR90~1\AppData\Local\Temp\cchaIJlx.s:25305  .debug_str:0000000000015f46 .LASF1335
C:\Users\CYMR90~1\AppData\Local\Temp\cchaIJlx.s:22973  .debug_str:000000000000cb42 .LASF1336
C:\Users\CYMR90~1\AppData\Local\Temp\cchaIJlx.s:27714  .debug_str:000000000001fb90 .LASF1337
C:\Users\CYMR90~1\AppData\Local\Temp\cchaIJlx.s:24265  .debug_str:0000000000011cc6 .LASF1338
C:\Users\CYMR90~1\AppData\Local\Temp\cchaIJlx.s:20167  .debug_str:00000000000016b0 .LASF1339
C:\Users\CYMR90~1\AppData\Local\Temp\cchaIJlx.s:22267  .debug_str:0000000000009c7b .LASF1340
C:\Users\CYMR90~1\AppData\Local\Temp\cchaIJlx.s:21273  .debug_str:0000000000005ced .LASF1341
C:\Users\CYMR90~1\AppData\Local\Temp\cchaIJlx.s:20325  .debug_str:00000000000020b9 .LASF1342
C:\Users\CYMR90~1\AppData\Local\Temp\cchaIJlx.s:30664  .debug_str:000000000002b706 .LASF1343
C:\Users\CYMR90~1\AppData\Local\Temp\cchaIJlx.s:30454  .debug_str:000000000002a9c6 .LASF1344
C:\Users\CYMR90~1\AppData\Local\Temp\cchaIJlx.s:29496  .debug_str:0000000000026c4a .LASF1345
C:\Users\CYMR90~1\AppData\Local\Temp\cchaIJlx.s:28546  .debug_str:0000000000022e30 .LASF1346
C:\Users\CYMR90~1\AppData\Local\Temp\cchaIJlx.s:29902  .debug_str:00000000000287bb .LASF1347
C:\Users\CYMR90~1\AppData\Local\Temp\cchaIJlx.s:26652  .debug_str:000000000001b8f6 .LASF1348
C:\Users\CYMR90~1\AppData\Local\Temp\cchaIJlx.s:23259  .debug_str:000000000000dd47 .LASF1349
C:\Users\CYMR90~1\AppData\Local\Temp\cchaIJlx.s:24739  .debug_str:0000000000013c0a .LASF1350
C:\Users\CYMR90~1\AppData\Local\Temp\cchaIJlx.s:27858  .debug_str:00000000000204ab .LASF1351
C:\Users\CYMR90~1\AppData\Local\Temp\cchaIJlx.s:22841  .debug_str:000000000000c211 .LASF1352
C:\Users\CYMR90~1\AppData\Local\Temp\cchaIJlx.s:21785  .debug_str:0000000000007ddc .LASF1353
C:\Users\CYMR90~1\AppData\Local\Temp\cchaIJlx.s:22349  .debug_str:000000000000a1a5 .LASF1354
C:\Users\CYMR90~1\AppData\Local\Temp\cchaIJlx.s:21357  .debug_str:0000000000006256 .LASF1355
C:\Users\CYMR90~1\AppData\Local\Temp\cchaIJlx.s:20407  .debug_str:0000000000002562 .LASF1356
C:\Users\CYMR90~1\AppData\Local\Temp\cchaIJlx.s:30734  .debug_str:000000000002bbb1 .LASF1357
C:\Users\CYMR90~1\AppData\Local\Temp\cchaIJlx.s:24831  .debug_str:00000000000141bd .LASF1358
C:\Users\CYMR90~1\AppData\Local\Temp\cchaIJlx.s:21487  .debug_str:0000000000006a25 .LASF1359
C:\Users\CYMR90~1\AppData\Local\Temp\cchaIJlx.s:27906  .debug_str:0000000000020782 .LASF1360
C:\Users\CYMR90~1\AppData\Local\Temp\cchaIJlx.s:26874  .debug_str:000000000001c65f .LASF1361
C:\Users\CYMR90~1\AppData\Local\Temp\cchaIJlx.s:25926  .debug_str:0000000000018813 .LASF1362
C:\Users\CYMR90~1\AppData\Local\Temp\cchaIJlx.s:29914  .debug_str:000000000002887d .LASF1363
C:\Users\CYMR90~1\AppData\Local\Temp\cchaIJlx.s:25231  .debug_str:00000000000159fc .LASF1364
C:\Users\CYMR90~1\AppData\Local\Temp\cchaIJlx.s:21905  .debug_str:000000000000861c .LASF1365
C:\Users\CYMR90~1\AppData\Local\Temp\cchaIJlx.s:29522  .debug_str:0000000000026ddd .LASF1366
C:\Users\CYMR90~1\AppData\Local\Temp\cchaIJlx.s:22955  .debug_str:000000000000ca37 .LASF1367
C:\Users\CYMR90~1\AppData\Local\Temp\cchaIJlx.s:27798  .debug_str:00000000000200c4 .LASF1368
C:\Users\CYMR90~1\AppData\Local\Temp\cchaIJlx.s:26086  .debug_str:0000000000019355 .LASF1369
C:\Users\CYMR90~1\AppData\Local\Temp\cchaIJlx.s:23975  .debug_str:00000000000109cd .LASF1370
C:\Users\CYMR90~1\AppData\Local\Temp\cchaIJlx.s:27090  .debug_str:000000000001d5cb .LASF1371
C:\Users\CYMR90~1\AppData\Local\Temp\cchaIJlx.s:20451  .debug_str:0000000000002888 .LASF1372
C:\Users\CYMR90~1\AppData\Local\Temp\cchaIJlx.s:23017  .debug_str:000000000000cde1 .LASF1373
C:\Users\CYMR90~1\AppData\Local\Temp\cchaIJlx.s:26134  .debug_str:0000000000019632 .LASF1374
C:\Users\CYMR90~1\AppData\Local\Temp\cchaIJlx.s:29196  .debug_str:00000000000259db .LASF1375
C:\Users\CYMR90~1\AppData\Local\Temp\cchaIJlx.s:21029  .debug_str:0000000000004e0f .LASF1376
C:\Users\CYMR90~1\AppData\Local\Temp\cchaIJlx.s:24169  .debug_str:00000000000115c4 .LASF1377
C:\Users\CYMR90~1\AppData\Local\Temp\cchaIJlx.s:27244  .debug_str:000000000001df5a .LASF1378
C:\Users\CYMR90~1\AppData\Local\Temp\cchaIJlx.s:30364  .debug_str:000000000002a48e .LASF1379
C:\Users\CYMR90~1\AppData\Local\Temp\cchaIJlx.s:30332  .debug_str:000000000002a26d .LASF1380
C:\Users\CYMR90~1\AppData\Local\Temp\cchaIJlx.s:22115  .debug_str:00000000000092d0 .LASF1381
C:\Users\CYMR90~1\AppData\Local\Temp\cchaIJlx.s:25203  .debug_str:000000000001585b .LASF1382
C:\Users\CYMR90~1\AppData\Local\Temp\cchaIJlx.s:28302  .debug_str:0000000000021f9b .LASF1383
C:\Users\CYMR90~1\AppData\Local\Temp\cchaIJlx.s:20137  .debug_str:00000000000014f7 .LASF1384
C:\Users\CYMR90~1\AppData\Local\Temp\cchaIJlx.s:24643  .debug_str:000000000001364a .LASF1385
C:\Users\CYMR90~1\AppData\Local\Temp\cchaIJlx.s:26428  .debug_str:000000000001aad5 .LASF1386
C:\Users\CYMR90~1\AppData\Local\Temp\cchaIJlx.s:29486  .debug_str:0000000000026b89 .LASF1387
C:\Users\CYMR90~1\AppData\Local\Temp\cchaIJlx.s:21311  .debug_str:0000000000005f5c .LASF1388
C:\Users\CYMR90~1\AppData\Local\Temp\cchaIJlx.s:24367  .debug_str:00000000000123dc .LASF1389
C:\Users\CYMR90~1\AppData\Local\Temp\cchaIJlx.s:23737  .debug_str:000000000000fad3 .LASF1390
C:\Users\CYMR90~1\AppData\Local\Temp\cchaIJlx.s:26732  .debug_str:000000000001bdda .LASF1391
C:\Users\CYMR90~1\AppData\Local\Temp\cchaIJlx.s:29818  .debug_str:00000000000281f0 .LASF1392
C:\Users\CYMR90~1\AppData\Local\Temp\cchaIJlx.s:21661  .debug_str:0000000000007564 .LASF1393
C:\Users\CYMR90~1\AppData\Local\Temp\cchaIJlx.s:24769  .debug_str:0000000000013da8 .LASF1394
C:\Users\CYMR90~1\AppData\Local\Temp\cchaIJlx.s:24921  .debug_str:000000000001475c .LASF1395
C:\Users\CYMR90~1\AppData\Local\Temp\cchaIJlx.s:31036  .debug_str:000000000002cf95 .LASF1396
C:\Users\CYMR90~1\AppData\Local\Temp\cchaIJlx.s:22893  .debug_str:000000000000c520 .LASF1397
C:\Users\CYMR90~1\AppData\Local\Temp\cchaIJlx.s:27450  .debug_str:000000000001eba4 .LASF1398
C:\Users\CYMR90~1\AppData\Local\Temp\cchaIJlx.s:24079  .debug_str:0000000000011011 .LASF1399
C:\Users\CYMR90~1\AppData\Local\Temp\cchaIJlx.s:25369  .debug_str:0000000000016330 .LASF1400
C:\Users\CYMR90~1\AppData\Local\Temp\cchaIJlx.s:20095  .debug_str:0000000000001289 .LASF1401
C:\Users\CYMR90~1\AppData\Local\Temp\cchaIJlx.s:27780  .debug_str:000000000001ffe0 .LASF1402
C:\Users\CYMR90~1\AppData\Local\Temp\cchaIJlx.s:22727  .debug_str:000000000000ba78 .LASF1403
C:\Users\CYMR90~1\AppData\Local\Temp\cchaIJlx.s:27548  .debug_str:000000000001f1b8 .LASF1404
C:\Users\CYMR90~1\AppData\Local\Temp\cchaIJlx.s:20809  .debug_str:0000000000003f55 .LASF1405
C:\Users\CYMR90~1\AppData\Local\Temp\cchaIJlx.s:30292  .debug_str:0000000000029ffd .LASF1406
C:\Users\CYMR90~1\AppData\Local\Temp\cchaIJlx.s:28504  .debug_str:0000000000022bc2 .LASF1407
C:\Users\CYMR90~1\AppData\Local\Temp\cchaIJlx.s:28660  .debug_str:000000000002350b .LASF1408
C:\Users\CYMR90~1\AppData\Local\Temp\cchaIJlx.s:20487  .debug_str:0000000000002aa8 .LASF1409
C:\Users\CYMR90~1\AppData\Local\Temp\cchaIJlx.s:23641  .debug_str:000000000000f49f .LASF1410
C:\Users\CYMR90~1\AppData\Local\Temp\cchaIJlx.s:30044  .debug_str:000000000002907a .LASF1411
C:\Users\CYMR90~1\AppData\Local\Temp\cchaIJlx.s:21895  .debug_str:0000000000008598 .LASF1412
C:\Users\CYMR90~1\AppData\Local\Temp\cchaIJlx.s:27426  .debug_str:000000000001ea5b .LASF1413
C:\Users\CYMR90~1\AppData\Local\Temp\cchaIJlx.s:28086  .debug_str:0000000000021293 .LASF1414
C:\Users\CYMR90~1\AppData\Local\Temp\cchaIJlx.s:19943  .debug_str:00000000000008f0 .LASF1415
C:\Users\CYMR90~1\AppData\Local\Temp\cchaIJlx.s:22983  .debug_str:000000000000cbbb .LASF1416
C:\Users\CYMR90~1\AppData\Local\Temp\cchaIJlx.s:26110  .debug_str:00000000000194fe .LASF1417
C:\Users\CYMR90~1\AppData\Local\Temp\cchaIJlx.s:27608  .debug_str:000000000001f541 .LASF1418
C:\Users\CYMR90~1\AppData\Local\Temp\cchaIJlx.s:21007  .debug_str:0000000000004cc0 .LASF1419
C:\Users\CYMR90~1\AppData\Local\Temp\cchaIJlx.s:24065  .debug_str:0000000000010f32 .LASF1420
C:\Users\CYMR90~1\AppData\Local\Temp\cchaIJlx.s:23417  .debug_str:000000000000e6f5 .LASF1421
C:\Users\CYMR90~1\AppData\Local\Temp\cchaIJlx.s:26542  .debug_str:000000000001b267 .LASF1422
C:\Users\CYMR90~1\AppData\Local\Temp\cchaIJlx.s:29596  .debug_str:00000000000272ea .LASF1423
C:\Users\CYMR90~1\AppData\Local\Temp\cchaIJlx.s:21441  .debug_str:0000000000006710 .LASF1424
C:\Users\CYMR90~1\AppData\Local\Temp\cchaIJlx.s:24579  .debug_str:00000000000131ab .LASF1425
C:\Users\CYMR90~1\AppData\Local\Temp\cchaIJlx.s:27540  .debug_str:000000000001f11f .LASF1426
C:\Users\CYMR90~1\AppData\Local\Temp\cchaIJlx.s:30744  .debug_str:000000000002bca4 .LASF1427
C:\Users\CYMR90~1\AppData\Local\Temp\cchaIJlx.s:22603  .debug_str:000000000000b205 .LASF1428
C:\Users\CYMR90~1\AppData\Local\Temp\cchaIJlx.s:25690  .debug_str:00000000000179fc .LASF1429
C:\Users\CYMR90~1\AppData\Local\Temp\cchaIJlx.s:28792  .debug_str:0000000000023d0a .LASF1430
C:\Users\CYMR90~1\AppData\Local\Temp\cchaIJlx.s:27550  .debug_str:000000000001f1d0 .LASF1431
C:\Users\CYMR90~1\AppData\Local\Temp\cchaIJlx.s:19905  .debug_str:00000000000006a7 .LASF1432
C:\Users\CYMR90~1\AppData\Local\Temp\cchaIJlx.s:21325  .debug_str:0000000000006031 .LASF1433
C:\Users\CYMR90~1\AppData\Local\Temp\cchaIJlx.s:27784  .debug_str:000000000002000a .LASF1434
C:\Users\CYMR90~1\AppData\Local\Temp\cchaIJlx.s:26842  .debug_str:000000000001c45e .LASF1435
C:\Users\CYMR90~1\AppData\Local\Temp\cchaIJlx.s:25896  .debug_str:0000000000018603 .LASF1436
C:\Users\CYMR90~1\AppData\Local\Temp\cchaIJlx.s:25327  .debug_str:00000000000160c8 .LASF1437
C:\Users\CYMR90~1\AppData\Local\Temp\cchaIJlx.s:29628  .debug_str:0000000000027495 .LASF1438
C:\Users\CYMR90~1\AppData\Local\Temp\cchaIJlx.s:28678  .debug_str:000000000002367b .LASF1439
C:\Users\CYMR90~1\AppData\Local\Temp\cchaIJlx.s:27704  .debug_str:000000000001fb1d .LASF1440
C:\Users\CYMR90~1\AppData\Local\Temp\cchaIJlx.s:26772  .debug_str:000000000001c050 .LASF1441
C:\Users\CYMR90~1\AppData\Local\Temp\cchaIJlx.s:25822  .debug_str:00000000000181cb .LASF1442
C:\Users\CYMR90~1\AppData\Local\Temp\cchaIJlx.s:24859  .debug_str:000000000001434e .LASF1443
C:\Users\CYMR90~1\AppData\Local\Temp\cchaIJlx.s:23923  .debug_str:0000000000010690 .LASF1444
C:\Users\CYMR90~1\AppData\Local\Temp\cchaIJlx.s:30702  .debug_str:000000000002b993 .LASF1445
C:\Users\CYMR90~1\AppData\Local\Temp\cchaIJlx.s:22007  .debug_str:0000000000008c40 .LASF1446
C:\Users\CYMR90~1\AppData\Local\Temp\cchaIJlx.s:23553  .debug_str:000000000000ef21 .LASF1447
C:\Users\CYMR90~1\AppData\Local\Temp\cchaIJlx.s:29024  .debug_str:0000000000024d42 .LASF1448
C:\Users\CYMR90~1\AppData\Local\Temp\cchaIJlx.s:28062  .debug_str:0000000000021075 .LASF1449
C:\Users\CYMR90~1\AppData\Local\Temp\cchaIJlx.s:27100  .debug_str:000000000001d6e0 .LASF1450
C:\Users\CYMR90~1\AppData\Local\Temp\cchaIJlx.s:26180  .debug_str:00000000000199d0 .LASF1451
C:\Users\CYMR90~1\AppData\Local\Temp\cchaIJlx.s:25201  .debug_str:0000000000015846 .LASF1452
C:\Users\CYMR90~1\AppData\Local\Temp\cchaIJlx.s:22601  .debug_str:000000000000b1f2 .LASF1453
C:\Users\CYMR90~1\AppData\Local\Temp\cchaIJlx.s:21219  .debug_str:000000000000598c .LASF1454
C:\Users\CYMR90~1\AppData\Local\Temp\cchaIJlx.s:22405  .debug_str:000000000000a53f .LASF1455
C:\Users\CYMR90~1\AppData\Local\Temp\cchaIJlx.s:27454  .debug_str:000000000001ebe6 .LASF1456
C:\Users\CYMR90~1\AppData\Local\Temp\cchaIJlx.s:29070  .debug_str:0000000000025087 .LASF1457
C:\Users\CYMR90~1\AppData\Local\Temp\cchaIJlx.s:20971  .debug_str:0000000000004a9e .LASF1458
C:\Users\CYMR90~1\AppData\Local\Temp\cchaIJlx.s:27534  .debug_str:000000000001f0d1 .LASF1459
C:\Users\CYMR90~1\AppData\Local\Temp\cchaIJlx.s:24391  .debug_str:0000000000012566 .LASF1460
C:\Users\CYMR90~1\AppData\Local\Temp\cchaIJlx.s:22513  .debug_str:000000000000abc0 .LASF1461
C:\Users\CYMR90~1\AppData\Local\Temp\cchaIJlx.s:23695  .debug_str:000000000000f86f .LASF1462
C:\Users\CYMR90~1\AppData\Local\Temp\cchaIJlx.s:24175  .debug_str:000000000001169f .LASF1463
C:\Users\CYMR90~1\AppData\Local\Temp\cchaIJlx.s:25261  .debug_str:0000000000015bf0 .LASF1464
C:\Users\CYMR90~1\AppData\Local\Temp\cchaIJlx.s:30480  .debug_str:000000000002ab6e .LASF1465
C:\Users\CYMR90~1\AppData\Local\Temp\cchaIJlx.s:26440  .debug_str:000000000001ab9a .LASF1466
C:\Users\CYMR90~1\AppData\Local\Temp\cchaIJlx.s:24863  .debug_str:0000000000014375 .LASF1467
C:\Users\CYMR90~1\AppData\Local\Temp\cchaIJlx.s:29514  .debug_str:0000000000026d66 .LASF1468
C:\Users\CYMR90~1\AppData\Local\Temp\cchaIJlx.s:23865  .debug_str:00000000000102f6 .LASF1469
C:\Users\CYMR90~1\AppData\Local\Temp\cchaIJlx.s:21965  .debug_str:00000000000089cb .LASF1470
C:\Users\CYMR90~1\AppData\Local\Temp\cchaIJlx.s:24151  .debug_str:00000000000114a8 .LASF1471
C:\Users\CYMR90~1\AppData\Local\Temp\cchaIJlx.s:25716  .debug_str:0000000000017b6c .LASF1472
C:\Users\CYMR90~1\AppData\Local\Temp\cchaIJlx.s:28978  .debug_str:0000000000024a39 .LASF1473
C:\Users\CYMR90~1\AppData\Local\Temp\cchaIJlx.s:29602  .debug_str:000000000002732f .LASF1474
C:\Users\CYMR90~1\AppData\Local\Temp\cchaIJlx.s:19995  .debug_str:0000000000000c71 .LASF1475
C:\Users\CYMR90~1\AppData\Local\Temp\cchaIJlx.s:21897  .debug_str:00000000000085b1 .LASF1476
C:\Users\CYMR90~1\AppData\Local\Temp\cchaIJlx.s:20511  .debug_str:0000000000002c18 .LASF1477
C:\Users\CYMR90~1\AppData\Local\Temp\cchaIJlx.s:29784  .debug_str:0000000000027f35 .LASF1478
C:\Users\CYMR90~1\AppData\Local\Temp\cchaIJlx.s:28830  .debug_str:0000000000023ffc .LASF1479
C:\Users\CYMR90~1\AppData\Local\Temp\cchaIJlx.s:26478  .debug_str:000000000001addf .LASF1480
C:\Users\CYMR90~1\AppData\Local\Temp\cchaIJlx.s:22849  .debug_str:000000000000c26d .LASF1481
C:\Users\CYMR90~1\AppData\Local\Temp\cchaIJlx.s:28946  .debug_str:0000000000024845 .LASF1482
C:\Users\CYMR90~1\AppData\Local\Temp\cchaIJlx.s:22201  .debug_str:000000000000984e .LASF1483
C:\Users\CYMR90~1\AppData\Local\Temp\cchaIJlx.s:21013  .debug_str:0000000000004d19 .LASF1484
C:\Users\CYMR90~1\AppData\Local\Temp\cchaIJlx.s:23425  .debug_str:000000000000e77e .LASF1485
C:\Users\CYMR90~1\AppData\Local\Temp\cchaIJlx.s:24829  .debug_str:00000000000141aa .LASF1486
C:\Users\CYMR90~1\AppData\Local\Temp\cchaIJlx.s:26424  .debug_str:000000000001aaa6 .LASF1487
C:\Users\CYMR90~1\AppData\Local\Temp\cchaIJlx.s:19829  .debug_str:000000000000021d .LASF1488
C:\Users\CYMR90~1\AppData\Local\Temp\cchaIJlx.s:25219  .debug_str:0000000000015943 .LASF1489
C:\Users\CYMR90~1\AppData\Local\Temp\cchaIJlx.s:23219  .debug_str:000000000000daa5 .LASF1490
C:\Users\CYMR90~1\AppData\Local\Temp\cchaIJlx.s:30010  .debug_str:0000000000028e74 .LASF1491
C:\Users\CYMR90~1\AppData\Local\Temp\cchaIJlx.s:20481  .debug_str:0000000000002a41 .LASF1492
C:\Users\CYMR90~1\AppData\Local\Temp\cchaIJlx.s:28016  .debug_str:0000000000020df6 .LASF1493
C:\Users\CYMR90~1\AppData\Local\Temp\cchaIJlx.s:30224  .debug_str:0000000000029c0c .LASF1494
C:\Users\CYMR90~1\AppData\Local\Temp\cchaIJlx.s:21649  .debug_str:00000000000074c0 .LASF1495
C:\Users\CYMR90~1\AppData\Local\Temp\cchaIJlx.s:29290  .debug_str:0000000000025fa2 .LASF1496
C:\Users\CYMR90~1\AppData\Local\Temp\cchaIJlx.s:29982  .debug_str:0000000000028cb0 .LASF1497
C:\Users\CYMR90~1\AppData\Local\Temp\cchaIJlx.s:21447  .debug_str:0000000000006768 .LASF1498
C:\Users\CYMR90~1\AppData\Local\Temp\cchaIJlx.s:22291  .debug_str:0000000000009de6 .LASF1499
C:\Users\CYMR90~1\AppData\Local\Temp\cchaIJlx.s:30908  .debug_str:000000000002c783 .LASF1500
C:\Users\CYMR90~1\AppData\Local\Temp\cchaIJlx.s:30142  .debug_str:0000000000029724 .LASF1501
C:\Users\CYMR90~1\AppData\Local\Temp\cchaIJlx.s:27918  .debug_str:0000000000020834 .LASF1502
C:\Users\CYMR90~1\AppData\Local\Temp\cchaIJlx.s:21427  .debug_str:000000000000662c .LASF1503
C:\Users\CYMR90~1\AppData\Local\Temp\cchaIJlx.s:30226  .debug_str:0000000000029c1a .LASF1504
C:\Users\CYMR90~1\AppData\Local\Temp\cchaIJlx.s:27296  .debug_str:000000000001e265 .LASF1505
C:\Users\CYMR90~1\AppData\Local\Temp\cchaIJlx.s:26628  .debug_str:000000000001b794 .LASF1506
C:\Users\CYMR90~1\AppData\Local\Temp\cchaIJlx.s:23547  .debug_str:000000000000eed2 .LASF1507
C:\Users\CYMR90~1\AppData\Local\Temp\cchaIJlx.s:28120  .debug_str:0000000000021472 .LASF1508
C:\Users\CYMR90~1\AppData\Local\Temp\cchaIJlx.s:24331  .debug_str:000000000001217b .LASF1509
C:\Users\CYMR90~1\AppData\Local\Temp\cchaIJlx.s:29888  .debug_str:00000000000286c3 .LASF1510
C:\Users\CYMR90~1\AppData\Local\Temp\cchaIJlx.s:28692  .debug_str:0000000000023735 .LASF1511
C:\Users\CYMR90~1\AppData\Local\Temp\cchaIJlx.s:20673  .debug_str:000000000000367d .LASF1512
C:\Users\CYMR90~1\AppData\Local\Temp\cchaIJlx.s:25283  .debug_str:0000000000015db7 .LASF1513
C:\Users\CYMR90~1\AppData\Local\Temp\cchaIJlx.s:29096  .debug_str:00000000000252b5 .LASF1514
C:\Users\CYMR90~1\AppData\Local\Temp\cchaIJlx.s:27510  .debug_str:000000000001ef85 .LASF1515
C:\Users\CYMR90~1\AppData\Local\Temp\cchaIJlx.s:30644  .debug_str:000000000002b594 .LASF1516
C:\Users\CYMR90~1\AppData\Local\Temp\cchaIJlx.s:27346  .debug_str:000000000001e560 .LASF1517
C:\Users\CYMR90~1\AppData\Local\Temp\cchaIJlx.s:29324  .debug_str:0000000000026184 .LASF1518
C:\Users\CYMR90~1\AppData\Local\Temp\cchaIJlx.s:24323  .debug_str:0000000000012122 .LASF1519
C:\Users\CYMR90~1\AppData\Local\Temp\cchaIJlx.s:27730  .debug_str:000000000001fcd0 .LASF1520
C:\Users\CYMR90~1\AppData\Local\Temp\cchaIJlx.s:26802  .debug_str:000000000001c223 .LASF1521
C:\Users\CYMR90~1\AppData\Local\Temp\cchaIJlx.s:28054  .debug_str:0000000000021006 .LASF1522
C:\Users\CYMR90~1\AppData\Local\Temp\cchaIJlx.s:26084  .debug_str:0000000000019339 .LASF1523
C:\Users\CYMR90~1\AppData\Local\Temp\cchaIJlx.s:28694  .debug_str:000000000002374b .LASF1524
C:\Users\CYMR90~1\AppData\Local\Temp\cchaIJlx.s:21085  .debug_str:0000000000005162 .LASF1525
C:\Users\CYMR90~1\AppData\Local\Temp\cchaIJlx.s:26746  .debug_str:000000000001bed3 .LASF1526
C:\Users\CYMR90~1\AppData\Local\Temp\cchaIJlx.s:22869  .debug_str:000000000000c3ad .LASF1527
C:\Users\CYMR90~1\AppData\Local\Temp\cchaIJlx.s:28456  .debug_str:00000000000228aa .LASF1528
C:\Users\CYMR90~1\AppData\Local\Temp\cchaIJlx.s:29682  .debug_str:00000000000277f6 .LASF1529
C:\Users\CYMR90~1\AppData\Local\Temp\cchaIJlx.s:28938  .debug_str:0000000000024723 .LASF1530
C:\Users\CYMR90~1\AppData\Local\Temp\cchaIJlx.s:29002  .debug_str:0000000000024bbd .LASF1531
C:\Users\CYMR90~1\AppData\Local\Temp\cchaIJlx.s:20829  .debug_str:0000000000004061 .LASF1532
C:\Users\CYMR90~1\AppData\Local\Temp\cchaIJlx.s:26034  .debug_str:0000000000018f76 .LASF1533
C:\Users\CYMR90~1\AppData\Local\Temp\cchaIJlx.s:28824  .debug_str:0000000000023ebc .LASF1534
C:\Users\CYMR90~1\AppData\Local\Temp\cchaIJlx.s:22937  .debug_str:000000000000c85a .LASF1535
C:\Users\CYMR90~1\AppData\Local\Temp\cchaIJlx.s:29006  .debug_str:0000000000024c3d .LASF1536
C:\Users\CYMR90~1\AppData\Local\Temp\cchaIJlx.s:28358  .debug_str:00000000000222dd .LASF1537
C:\Users\CYMR90~1\AppData\Local\Temp\cchaIJlx.s:29556  .debug_str:0000000000026fc3 .LASF1538
C:\Users\CYMR90~1\AppData\Local\Temp\cchaIJlx.s:29456  .debug_str:00000000000269a6 .LASF1539
C:\Users\CYMR90~1\AppData\Local\Temp\cchaIJlx.s:24203  .debug_str:00000000000118f0 .LASF1540
C:\Users\CYMR90~1\AppData\Local\Temp\cchaIJlx.s:30168  .debug_str:00000000000298ac .LASF1541
C:\Users\CYMR90~1\AppData\Local\Temp\cchaIJlx.s:23197  .debug_str:000000000000d991 .LASF1542
C:\Users\CYMR90~1\AppData\Local\Temp\cchaIJlx.s:20599  .debug_str:0000000000003186 .LASF1543
C:\Users\CYMR90~1\AppData\Local\Temp\cchaIJlx.s:23777  .debug_str:000000000000fd62 .LASF1544
C:\Users\CYMR90~1\AppData\Local\Temp\cchaIJlx.s:21829  .debug_str:0000000000008135 .LASF1545
C:\Users\CYMR90~1\AppData\Local\Temp\cchaIJlx.s:22299  .debug_str:0000000000009e59 .LASF1546
C:\Users\CYMR90~1\AppData\Local\Temp\cchaIJlx.s:22923  .debug_str:000000000000c75b .LASF1547
C:\Users\CYMR90~1\AppData\Local\Temp\cchaIJlx.s:29760  .debug_str:0000000000027d5b .LASF1548
C:\Users\CYMR90~1\AppData\Local\Temp\cchaIJlx.s:29260  .debug_str:0000000000025d8f .LASF1549
C:\Users\CYMR90~1\AppData\Local\Temp\cchaIJlx.s:26694  .debug_str:000000000001bb19 .LASF1550
C:\Users\CYMR90~1\AppData\Local\Temp\cchaIJlx.s:24075  .debug_str:0000000000010fc3 .LASF1551
C:\Users\CYMR90~1\AppData\Local\Temp\cchaIJlx.s:26664  .debug_str:000000000001b96b .LASF1552
C:\Users\CYMR90~1\AppData\Local\Temp\cchaIJlx.s:20063  .debug_str:00000000000010a1 .LASF1553
C:\Users\CYMR90~1\AppData\Local\Temp\cchaIJlx.s:20377  .debug_str:00000000000023a3 .LASF1554
C:\Users\CYMR90~1\AppData\Local\Temp\cchaIJlx.s:27382  .debug_str:000000000001e7de .LASF1555
C:\Users\CYMR90~1\AppData\Local\Temp\cchaIJlx.s:25988  .debug_str:0000000000018c71 .LASF1556
C:\Users\CYMR90~1\AppData\Local\Temp\cchaIJlx.s:26010  .debug_str:0000000000018dc3 .LASF1557
C:\Users\CYMR90~1\AppData\Local\Temp\cchaIJlx.s:30248  .debug_str:0000000000029d5e .LASF1558
C:\Users\CYMR90~1\AppData\Local\Temp\cchaIJlx.s:23919  .debug_str:0000000000010664 .LASF1559
C:\Users\CYMR90~1\AppData\Local\Temp\cchaIJlx.s:28704  .debug_str:00000000000237c4 .LASF1560
C:\Users\CYMR90~1\AppData\Local\Temp\cchaIJlx.s:29122  .debug_str:000000000002547e .LASF1561
C:\Users\CYMR90~1\AppData\Local\Temp\cchaIJlx.s:24029  .debug_str:0000000000010d57 .LASF1562
C:\Users\CYMR90~1\AppData\Local\Temp\cchaIJlx.s:23705  .debug_str:000000000000f8ec .LASF1563
C:\Users\CYMR90~1\AppData\Local\Temp\cchaIJlx.s:30742  .debug_str:000000000002bbfe .LASF1564
C:\Users\CYMR90~1\AppData\Local\Temp\cchaIJlx.s:21455  .debug_str:00000000000067d1 .LASF1565
C:\Users\CYMR90~1\AppData\Local\Temp\cchaIJlx.s:27098  .debug_str:000000000001d652 .LASF1566
C:\Users\CYMR90~1\AppData\Local\Temp\cchaIJlx.s:26378  .debug_str:000000000001a74d .LASF1567
C:\Users\CYMR90~1\AppData\Local\Temp\cchaIJlx.s:27850  .debug_str:00000000000203d6 .LASF1568
C:\Users\CYMR90~1\AppData\Local\Temp\cchaIJlx.s:24201  .debug_str:0000000000011849 .LASF1569
C:\Users\CYMR90~1\AppData\Local\Temp\cchaIJlx.s:29148  .debug_str:0000000000025654 .LASF1570
C:\Users\CYMR90~1\AppData\Local\Temp\cchaIJlx.s:19895  .debug_str:00000000000005aa .LASF1571
C:\Users\CYMR90~1\AppData\Local\Temp\cchaIJlx.s:21133  .debug_str:000000000000546b .LASF1572
C:\Users\CYMR90~1\AppData\Local\Temp\cchaIJlx.s:25025  .debug_str:0000000000014dee .LASF1573
C:\Users\CYMR90~1\AppData\Local\Temp\cchaIJlx.s:29876  .debug_str:00000000000285f9 .LASF1574
C:\Users\CYMR90~1\AppData\Local\Temp\cchaIJlx.s:25492  .debug_str:0000000000016da9 .LASF1575
C:\Users\CYMR90~1\AppData\Local\Temp\cchaIJlx.s:23583  .debug_str:000000000000f103 .LASF1576
C:\Users\CYMR90~1\AppData\Local\Temp\cchaIJlx.s:27386  .debug_str:000000000001e820 .LASF1577
C:\Users\CYMR90~1\AppData\Local\Temp\cchaIJlx.s:30356  .debug_str:000000000002a3f2 .LASF1578
C:\Users\CYMR90~1\AppData\Local\Temp\cchaIJlx.s:20387  .debug_str:000000000000242e .LASF1579
C:\Users\CYMR90~1\AppData\Local\Temp\cchaIJlx.s:26940  .debug_str:000000000001cb31 .LASF1580
C:\Users\CYMR90~1\AppData\Local\Temp\cchaIJlx.s:22411  .debug_str:000000000000a592 .LASF1581
C:\Users\CYMR90~1\AppData\Local\Temp\cchaIJlx.s:23113  .debug_str:000000000000d4ad .LASF1582
C:\Users\CYMR90~1\AppData\Local\Temp\cchaIJlx.s:21819  .debug_str:0000000000008009 .LASF1583
C:\Users\CYMR90~1\AppData\Local\Temp\cchaIJlx.s:29558  .debug_str:0000000000026fe1 .LASF1584
C:\Users\CYMR90~1\AppData\Local\Temp\cchaIJlx.s:24295  .debug_str:0000000000011eb2 .LASF1585
C:\Users\CYMR90~1\AppData\Local\Temp\cchaIJlx.s:30960  .debug_str:000000000002ca7b .LASF1586
C:\Users\CYMR90~1\AppData\Local\Temp\cchaIJlx.s:23085  .debug_str:000000000000d24e .LASF1587
C:\Users\CYMR90~1\AppData\Local\Temp\cchaIJlx.s:21779  .debug_str:0000000000007cf1 .LASF1588
C:\Users\CYMR90~1\AppData\Local\Temp\cchaIJlx.s:25467  .debug_str:00000000000169fa .LASF1589
C:\Users\CYMR90~1\AppData\Local\Temp\cchaIJlx.s:22629  .debug_str:000000000000b39c .LASF1590
C:\Users\CYMR90~1\AppData\Local\Temp\cchaIJlx.s:25393  .debug_str:0000000000016461 .LASF1591
C:\Users\CYMR90~1\AppData\Local\Temp\cchaIJlx.s:22017  .debug_str:0000000000008cae .LASF1592
C:\Users\CYMR90~1\AppData\Local\Temp\cchaIJlx.s:24593  .debug_str:00000000000132ba .LASF1593
C:\Users\CYMR90~1\AppData\Local\Temp\cchaIJlx.s:30052  .debug_str:00000000000290de .LASF1594
C:\Users\CYMR90~1\AppData\Local\Temp\cchaIJlx.s:29792  .debug_str:0000000000027fb3 .LASF1595
C:\Users\CYMR90~1\AppData\Local\Temp\cchaIJlx.s:20029  .debug_str:0000000000000e45 .LASF1596
C:\Users\CYMR90~1\AppData\Local\Temp\cchaIJlx.s:26968  .debug_str:000000000001cd00 .LASF1597
C:\Users\CYMR90~1\AppData\Local\Temp\cchaIJlx.s:20939  .debug_str:000000000000480f .LASF1598
C:\Users\CYMR90~1\AppData\Local\Temp\cchaIJlx.s:29072  .debug_str:0000000000025096 .LASF1599
C:\Users\CYMR90~1\AppData\Local\Temp\cchaIJlx.s:20173  .debug_str:0000000000001709 .LASF1600
C:\Users\CYMR90~1\AppData\Local\Temp\cchaIJlx.s:23669  .debug_str:000000000000f623 .LASF1601
C:\Users\CYMR90~1\AppData\Local\Temp\cchaIJlx.s:28078  .debug_str:000000000002116d .LASF1602
C:\Users\CYMR90~1\AppData\Local\Temp\cchaIJlx.s:26992  .debug_str:000000000001cf25 .LASF1603
C:\Users\CYMR90~1\AppData\Local\Temp\cchaIJlx.s:26886  .debug_str:000000000001c721 .LASF1604
C:\Users\CYMR90~1\AppData\Local\Temp\cchaIJlx.s:29052  .debug_str:0000000000024ec1 .LASF1605
C:\Users\CYMR90~1\AppData\Local\Temp\cchaIJlx.s:28980  .debug_str:0000000000024a4f .LASF1606
C:\Users\CYMR90~1\AppData\Local\Temp\cchaIJlx.s:28932  .debug_str:00000000000246cf .LASF1607
C:\Users\CYMR90~1\AppData\Local\Temp\cchaIJlx.s:25932  .debug_str:0000000000018865 .LASF1608
C:\Users\CYMR90~1\AppData\Local\Temp\cchaIJlx.s:20915  .debug_str:000000000000467c .LASF1609
C:\Users\CYMR90~1\AppData\Local\Temp\cchaIJlx.s:28286  .debug_str:0000000000021ea0 .LASF1610
C:\Users\CYMR90~1\AppData\Local\Temp\cchaIJlx.s:30866  .debug_str:000000000002c479 .LASF1611
C:\Users\CYMR90~1\AppData\Local\Temp\cchaIJlx.s:26838  .debug_str:000000000001c422 .LASF1612
C:\Users\CYMR90~1\AppData\Local\Temp\cchaIJlx.s:24907  .debug_str:0000000000014682 .LASF1613
C:\Users\CYMR90~1\AppData\Local\Temp\cchaIJlx.s:22285  .debug_str:0000000000009d88 .LASF1614
C:\Users\CYMR90~1\AppData\Local\Temp\cchaIJlx.s:26524  .debug_str:000000000001b114 .LASF1615
C:\Users\CYMR90~1\AppData\Local\Temp\cchaIJlx.s:28176  .debug_str:00000000000217c1 .LASF1616
C:\Users\CYMR90~1\AppData\Local\Temp\cchaIJlx.s:24999  .debug_str:0000000000014be8 .LASF1617
C:\Users\CYMR90~1\AppData\Local\Temp\cchaIJlx.s:26898  .debug_str:000000000001c895 .LASF1618
C:\Users\CYMR90~1\AppData\Local\Temp\cchaIJlx.s:20963  .debug_str:0000000000004a18 .LASF1619
C:\Users\CYMR90~1\AppData\Local\Temp\cchaIJlx.s:22663  .debug_str:000000000000b64b .LASF1620
C:\Users\CYMR90~1\AppData\Local\Temp\cchaIJlx.s:23499  .debug_str:000000000000ec31 .LASF1621
C:\Users\CYMR90~1\AppData\Local\Temp\cchaIJlx.s:20537  .debug_str:0000000000002dae .LASF1622
C:\Users\CYMR90~1\AppData\Local\Temp\cchaIJlx.s:27880  .debug_str:00000000000205e3 .LASF1623
C:\Users\CYMR90~1\AppData\Local\Temp\cchaIJlx.s:24595  .debug_str:0000000000013355 .LASF1624
C:\Users\CYMR90~1\AppData\Local\Temp\cchaIJlx.s:22759  .debug_str:000000000000bcc4 .LASF1625
C:\Users\CYMR90~1\AppData\Local\Temp\cchaIJlx.s:28574  .debug_str:0000000000022fa2 .LASF1626
C:\Users\CYMR90~1\AppData\Local\Temp\cchaIJlx.s:21451  .debug_str:00000000000067a3 .LASF1627
C:\Users\CYMR90~1\AppData\Local\Temp\cchaIJlx.s:27626  .debug_str:000000000001f648 .LASF1628
C:\Users\CYMR90~1\AppData\Local\Temp\cchaIJlx.s:22525  .debug_str:000000000000ac82 .LASF1629
C:\Users\CYMR90~1\AppData\Local\Temp\cchaIJlx.s:28368  .debug_str:0000000000022355 .LASF1630
C:\Users\CYMR90~1\AppData\Local\Temp\cchaIJlx.s:22001  .debug_str:0000000000008be9 .LASF1631
C:\Users\CYMR90~1\AppData\Local\Temp\cchaIJlx.s:20129  .debug_str:00000000000014a2 .LASF1632
C:\Users\CYMR90~1\AppData\Local\Temp\cchaIJlx.s:26642  .debug_str:000000000001b883 .LASF1633
C:\Users\CYMR90~1\AppData\Local\Temp\cchaIJlx.s:25622  .debug_str:0000000000017568 .LASF1634
C:\Users\CYMR90~1\AppData\Local\Temp\cchaIJlx.s:22741  .debug_str:000000000000bb5d .LASF1635
C:\Users\CYMR90~1\AppData\Local\Temp\cchaIJlx.s:22843  .debug_str:000000000000c227 .LASF1636
C:\Users\CYMR90~1\AppData\Local\Temp\cchaIJlx.s:26496  .debug_str:000000000001af6f .LASF1637
C:\Users\CYMR90~1\AppData\Local\Temp\cchaIJlx.s:22907  .debug_str:000000000000c648 .LASF1638
C:\Users\CYMR90~1\AppData\Local\Temp\cchaIJlx.s:22639  .debug_str:000000000000b4c1 .LASF1639
C:\Users\CYMR90~1\AppData\Local\Temp\cchaIJlx.s:25838  .debug_str:00000000000182be .LASF1640
C:\Users\CYMR90~1\AppData\Local\Temp\cchaIJlx.s:23871  .debug_str:0000000000010352 .LASF1641
C:\Users\CYMR90~1\AppData\Local\Temp\cchaIJlx.s:28922  .debug_str:0000000000024643 .LASF1642
C:\Users\CYMR90~1\AppData\Local\Temp\cchaIJlx.s:24211  .debug_str:0000000000011991 .LASF1643
C:\Users\CYMR90~1\AppData\Local\Temp\cchaIJlx.s:27768  .debug_str:000000000001ff32 .LASF1644
C:\Users\CYMR90~1\AppData\Local\Temp\cchaIJlx.s:30834  .debug_str:000000000002c2da .LASF1645
C:\Users\CYMR90~1\AppData\Local\Temp\cchaIJlx.s:20527  .debug_str:0000000000002d1e .LASF1646
C:\Users\CYMR90~1\AppData\Local\Temp\cchaIJlx.s:25429  .debug_str:0000000000016736 .LASF1647
C:\Users\CYMR90~1\AppData\Local\Temp\cchaIJlx.s:25532  .debug_str:0000000000017038 .LASF1648
C:\Users\CYMR90~1\AppData\Local\Temp\cchaIJlx.s:20329  .debug_str:00000000000020ed .LASF1649
C:\Users\CYMR90~1\AppData\Local\Temp\cchaIJlx.s:21845  .debug_str:000000000000824e .LASF1650
C:\Users\CYMR90~1\AppData\Local\Temp\cchaIJlx.s:28590  .debug_str:00000000000230a2 .LASF1651
C:\Users\CYMR90~1\AppData\Local\Temp\cchaIJlx.s:23965  .debug_str:00000000000108d5 .LASF1652
C:\Users\CYMR90~1\AppData\Local\Temp\cchaIJlx.s:21735  .debug_str:0000000000007a0d .LASF1653
C:\Users\CYMR90~1\AppData\Local\Temp\cchaIJlx.s:20069  .debug_str:0000000000001112 .LASF1654
C:\Users\CYMR90~1\AppData\Local\Temp\cchaIJlx.s:25732  .debug_str:0000000000017c45 .LASF1657
C:\Users\CYMR90~1\AppData\Local\Temp\cchaIJlx.s:30404  .debug_str:000000000002a6e0 .LASF1658
C:\Users\CYMR90~1\AppData\Local\Temp\cchaIJlx.s:23997  .debug_str:0000000000010bcd .LASF1659
C:\Users\CYMR90~1\AppData\Local\Temp\cchaIJlx.s:26058  .debug_str:00000000000191d5 .LASF1660
C:\Users\CYMR90~1\AppData\Local\Temp\cchaIJlx.s:30640  .debug_str:000000000002b555 .LASF1661
C:\Users\CYMR90~1\AppData\Local\Temp\cchaIJlx.s:30672  .debug_str:000000000002b79a .LASF1662
C:\Users\CYMR90~1\AppData\Local\Temp\cchaIJlx.s:27968  .debug_str:0000000000020b44 .LASF1663
C:\Users\CYMR90~1\AppData\Local\Temp\cchaIJlx.s:24961  .debug_str:0000000000014972 .LASF1664
C:\Users\CYMR90~1\AppData\Local\Temp\cchaIJlx.s:27148  .debug_str:000000000001d9a2 .LASF1665
C:\Users\CYMR90~1\AppData\Local\Temp\cchaIJlx.s:28056  .debug_str:0000000000021021 .LASF1666
C:\Users\CYMR90~1\AppData\Local\Temp\cchaIJlx.s:23709  .debug_str:000000000000f912 .LASF1667
C:\Users\CYMR90~1\AppData\Local\Temp\cchaIJlx.s:23411  .debug_str:000000000000e67f .LASF1668
C:\Users\CYMR90~1\AppData\Local\Temp\cchaIJlx.s:20755  .debug_str:0000000000003ba2 .LASF1669
C:\Users\CYMR90~1\AppData\Local\Temp\cchaIJlx.s:22037  .debug_str:0000000000008e4c .LASF1670
C:\Users\CYMR90~1\AppData\Local\Temp\cchaIJlx.s:20981  .debug_str:0000000000004b21 .LASF1671
C:\Users\CYMR90~1\AppData\Local\Temp\cchaIJlx.s:19877  .debug_str:00000000000004d7 .LASF1672
C:\Users\CYMR90~1\AppData\Local\Temp\cchaIJlx.s:24883  .debug_str:00000000000144ad .LASF1673
C:\Users\CYMR90~1\AppData\Local\Temp\cchaIJlx.s:24283  .debug_str:0000000000011dbb .LASF1674
C:\Users\CYMR90~1\AppData\Local\Temp\cchaIJlx.s:23449  .debug_str:000000000000e8db .LASF1675
C:\Users\CYMR90~1\AppData\Local\Temp\cchaIJlx.s:28944  .debug_str:000000000002482b .LASF1676
C:\Users\CYMR90~1\AppData\Local\Temp\cchaIJlx.s:24417  .debug_str:0000000000012710 .LASF1677
C:\Users\CYMR90~1\AppData\Local\Temp\cchaIJlx.s:30836  .debug_str:000000000002c2ef .LASF1678
C:\Users\CYMR90~1\AppData\Local\Temp\cchaIJlx.s:20435  .debug_str:000000000000273c .LASF1679
C:\Users\CYMR90~1\AppData\Local\Temp\cchaIJlx.s:23947  .debug_str:00000000000107fc .LASF1680
C:\Users\CYMR90~1\AppData\Local\Temp\cchaIJlx.s:25129  .debug_str:0000000000015445 .LASF1681
C:\Users\CYMR90~1\AppData\Local\Temp\cchaIJlx.s:23797  .debug_str:000000000000fec7 .LASF1682
C:\Users\CYMR90~1\AppData\Local\Temp\cchaIJlx.s:26480  .debug_str:000000000001adf2 .LASF1683
C:\Users\CYMR90~1\AppData\Local\Temp\cchaIJlx.s:28540  .debug_str:0000000000022ddb .LASF1684
C:\Users\CYMR90~1\AppData\Local\Temp\cchaIJlx.s:29448  .debug_str:000000000002694b .LASF1685
C:\Users\CYMR90~1\AppData\Local\Temp\cchaIJlx.s:23945  .debug_str:00000000000107e4 .LASF1686
C:\Users\CYMR90~1\AppData\Local\Temp\cchaIJlx.s:27862  .debug_str:00000000000204d4 .LASF1687
C:\Users\CYMR90~1\AppData\Local\Temp\cchaIJlx.s:30158  .debug_str:0000000000029801 .LASF1688
C:\Users\CYMR90~1\AppData\Local\Temp\cchaIJlx.s:28720  .debug_str:00000000000238ce .LASF1689
C:\Users\CYMR90~1\AppData\Local\Temp\cchaIJlx.s:26602  .debug_str:000000000001b5e1 .LASF1690
C:\Users\CYMR90~1\AppData\Local\Temp\cchaIJlx.s:24683  .debug_str:00000000000138ca .LASF1691
C:\Users\CYMR90~1\AppData\Local\Temp\cchaIJlx.s:28270  .debug_str:0000000000021dc0 .LASF1692
C:\Users\CYMR90~1\AppData\Local\Temp\cchaIJlx.s:25922  .debug_str:00000000000187bb .LASF1693
C:\Users\CYMR90~1\AppData\Local\Temp\cchaIJlx.s:21839  .debug_str:00000000000081da .LASF1694
C:\Users\CYMR90~1\AppData\Local\Temp\cchaIJlx.s:23867  .debug_str:0000000000010306 .LASF1695
C:\Users\CYMR90~1\AppData\Local\Temp\cchaIJlx.s:25700  .debug_str:0000000000017a7b .LASF1696
C:\Users\CYMR90~1\AppData\Local\Temp\cchaIJlx.s:25007  .debug_str:0000000000014c88 .LASF1697
C:\Users\CYMR90~1\AppData\Local\Temp\cchaIJlx.s:27524  .debug_str:000000000001f03e .LASF1698
C:\Users\CYMR90~1\AppData\Local\Temp\cchaIJlx.s:26094  .debug_str:0000000000019400 .LASF1699
C:\Users\CYMR90~1\AppData\Local\Temp\cchaIJlx.s:27978  .debug_str:0000000000020bdf .LASF1700
C:\Users\CYMR90~1\AppData\Local\Temp\cchaIJlx.s:27520  .debug_str:000000000001f001 .LASF1701
C:\Users\CYMR90~1\AppData\Local\Temp\cchaIJlx.s:28764  .debug_str:0000000000023b31 .LASF1702
C:\Users\CYMR90~1\AppData\Local\Temp\cchaIJlx.s:28726  .debug_str:000000000002391d .LASF1703
C:\Users\CYMR90~1\AppData\Local\Temp\cchaIJlx.s:28260  .debug_str:0000000000021d26 .LASF1704
C:\Users\CYMR90~1\AppData\Local\Temp\cchaIJlx.s:26728  .debug_str:000000000001bd7f .LASF1705
C:\Users\CYMR90~1\AppData\Local\Temp\cchaIJlx.s:28122  .debug_str:0000000000021486 .LASF1706
C:\Users\CYMR90~1\AppData\Local\Temp\cchaIJlx.s:25606  .debug_str:0000000000017451 .LASF1707
C:\Users\CYMR90~1\AppData\Local\Temp\cchaIJlx.s:24597  .debug_str:0000000000013368 .LASF1708
C:\Users\CYMR90~1\AppData\Local\Temp\cchaIJlx.s:27278  .debug_str:000000000001e173 .LASF1709
C:\Users\CYMR90~1\AppData\Local\Temp\cchaIJlx.s:25840  .debug_str:00000000000182d3 .LASF1710
C:\Users\CYMR90~1\AppData\Local\Temp\cchaIJlx.s:22743  .debug_str:000000000000bb72 .LASF1711
C:\Users\CYMR90~1\AppData\Local\Temp\cchaIJlx.s:24231  .debug_str:0000000000011aa4 .LASF1712
C:\Users\CYMR90~1\AppData\Local\Temp\cchaIJlx.s:21379  .debug_str:0000000000006379 .LASF1713
C:\Users\CYMR90~1\AppData\Local\Temp\cchaIJlx.s:23715  .debug_str:000000000000f96f .LASF1714
C:\Users\CYMR90~1\AppData\Local\Temp\cchaIJlx.s:27094  .debug_str:000000000001d606 .LASF1715
C:\Users\CYMR90~1\AppData\Local\Temp\cchaIJlx.s:23943  .debug_str:00000000000107b8 .LASF1716
C:\Users\CYMR90~1\AppData\Local\Temp\cchaIJlx.s:27248  .debug_str:000000000001df7b .LASF1717
C:\Users\CYMR90~1\AppData\Local\Temp\cchaIJlx.s:25804  .debug_str:00000000000180a0 .LASF1718
C:\Users\CYMR90~1\AppData\Local\Temp\cchaIJlx.s:24173  .debug_str:00000000000115f1 .LASF1719
C:\Users\CYMR90~1\AppData\Local\Temp\cchaIJlx.s:26160  .debug_str:0000000000019802 .LASF1720
C:\Users\CYMR90~1\AppData\Local\Temp\cchaIJlx.s:24675  .debug_str:0000000000013847 .LASF1721
C:\Users\CYMR90~1\AppData\Local\Temp\cchaIJlx.s:20363  .debug_str:00000000000022ea .LASF1722
C:\Users\CYMR90~1\AppData\Local\Temp\cchaIJlx.s:26488  .debug_str:000000000001ae8c .LASF1723
C:\Users\CYMR90~1\AppData\Local\Temp\cchaIJlx.s:20427  .debug_str:00000000000026c6 .LASF1724
C:\Users\CYMR90~1\AppData\Local\Temp\cchaIJlx.s:25197  .debug_str:00000000000157e9 .LASF1725
C:\Users\CYMR90~1\AppData\Local\Temp\cchaIJlx.s:29960  .debug_str:0000000000028b34 .LASF1726
C:\Users\CYMR90~1\AppData\Local\Temp\cchaIJlx.s:21267  .debug_str:0000000000005c74 .LASF1727
C:\Users\CYMR90~1\AppData\Local\Temp\cchaIJlx.s:29604  .debug_str:0000000000027343 .LASF1728
C:\Users\CYMR90~1\AppData\Local\Temp\cchaIJlx.s:26938  .debug_str:000000000001cafa .LASF1729
C:\Users\CYMR90~1\AppData\Local\Temp\cchaIJlx.s:30746  .debug_str:000000000002bcbd .LASF1730
C:\Users\CYMR90~1\AppData\Local\Temp\cchaIJlx.s:29434  .debug_str:0000000000026885 .LASF1731
C:\Users\CYMR90~1\AppData\Local\Temp\cchaIJlx.s:24111  .debug_str:00000000000111d3 .LASF1732
C:\Users\CYMR90~1\AppData\Local\Temp\cchaIJlx.s:22145  .debug_str:0000000000009472 .LASF1733
C:\Users\CYMR90~1\AppData\Local\Temp\cchaIJlx.s:20131  .debug_str:00000000000014b5 .LASF1734
C:\Users\CYMR90~1\AppData\Local\Temp\cchaIJlx.s:25564  .debug_str:00000000000171fb .LASF1735
C:\Users\CYMR90~1\AppData\Local\Temp\cchaIJlx.s:27692  .debug_str:000000000001fa68 .LASF1736
C:\Users\CYMR90~1\AppData\Local\Temp\cchaIJlx.s:22137  .debug_str:00000000000093fc .LASF1737
C:\Users\CYMR90~1\AppData\Local\Temp\cchaIJlx.s:21859  .debug_str:000000000000832a .LASF1738
C:\Users\CYMR90~1\AppData\Local\Temp\cchaIJlx.s:29444  .debug_str:000000000002691c .LASF1739
C:\Users\CYMR90~1\AppData\Local\Temp\cchaIJlx.s:23473  .debug_str:000000000000eaa4 .LASF1740
C:\Users\CYMR90~1\AppData\Local\Temp\cchaIJlx.s:22479  .debug_str:000000000000a98a .LASF1741
C:\Users\CYMR90~1\AppData\Local\Temp\cchaIJlx.s:27546  .debug_str:000000000001f185 .LASF1742
C:\Users\CYMR90~1\AppData\Local\Temp\cchaIJlx.s:27208  .debug_str:000000000001dd0b .LASF1743
C:\Users\CYMR90~1\AppData\Local\Temp\cchaIJlx.s:29716  .debug_str:0000000000027a63 .LASF1744
C:\Users\CYMR90~1\AppData\Local\Temp\cchaIJlx.s:21865  .debug_str:000000000000839c .LASF1745
C:\Users\CYMR90~1\AppData\Local\Temp\cchaIJlx.s:23769  .debug_str:000000000000fcd9 .LASF1746
C:\Users\CYMR90~1\AppData\Local\Temp\cchaIJlx.s:28768  .debug_str:0000000000023b77 .LASF1747
C:\Users\CYMR90~1\AppData\Local\Temp\cchaIJlx.s:28376  .debug_str:00000000000223db .LASF1748
C:\Users\CYMR90~1\AppData\Local\Temp\cchaIJlx.s:23939  .debug_str:0000000000010772 .LASF1749
C:\Users\CYMR90~1\AppData\Local\Temp\cchaIJlx.s:22635  .debug_str:000000000000b478 .LASF1750
C:\Users\CYMR90~1\AppData\Local\Temp\cchaIJlx.s:25736  .debug_str:0000000000017c79 .LASF1751
C:\Users\CYMR90~1\AppData\Local\Temp\cchaIJlx.s:21015  .debug_str:0000000000004d2d .LASF1752
C:\Users\CYMR90~1\AppData\Local\Temp\cchaIJlx.s:26464  .debug_str:000000000001acfa .LASF1753
C:\Users\CYMR90~1\AppData\Local\Temp\cchaIJlx.s:26360  .debug_str:000000000001a5ed .LASF1754
C:\Users\CYMR90~1\AppData\Local\Temp\cchaIJlx.s:20547  .debug_str:0000000000002e3d .LASF1755
C:\Users\CYMR90~1\AppData\Local\Temp\cchaIJlx.s:24487  .debug_str:0000000000012bad .LASF1756
C:\Users\CYMR90~1\AppData\Local\Temp\cchaIJlx.s:26556  .debug_str:000000000001b338 .LASF1757
C:\Users\CYMR90~1\AppData\Local\Temp\cchaIJlx.s:23571  .debug_str:000000000000f01d .LASF1758
C:\Users\CYMR90~1\AppData\Local\Temp\cchaIJlx.s:21679  .debug_str:000000000000767f .LASF1759
C:\Users\CYMR90~1\AppData\Local\Temp\cchaIJlx.s:26304  .debug_str:000000000001a105 .LASF1760
C:\Users\CYMR90~1\AppData\Local\Temp\cchaIJlx.s:21967  .debug_str:00000000000089dd .LASF1761
C:\Users\CYMR90~1\AppData\Local\Temp\cchaIJlx.s:20195  .debug_str:0000000000001926 .LASF1762
C:\Users\CYMR90~1\AppData\Local\Temp\cchaIJlx.s:28960  .debug_str:00000000000248fa .LASF1763
C:\Users\CYMR90~1\AppData\Local\Temp\cchaIJlx.s:21707  .debug_str:000000000000785a .LASF1764
C:\Users\CYMR90~1\AppData\Local\Temp\cchaIJlx.s:21395  .debug_str:000000000000647a .LASF1765
C:\Users\CYMR90~1\AppData\Local\Temp\cchaIJlx.s:20175  .debug_str:00000000000017bf .LASF1766
C:\Users\CYMR90~1\AppData\Local\Temp\cchaIJlx.s:26670  .debug_str:000000000001b9c4 .LASF1767
C:\Users\CYMR90~1\AppData\Local\Temp\cchaIJlx.s:20235  .debug_str:0000000000001b82 .LASF1768
C:\Users\CYMR90~1\AppData\Local\Temp\cchaIJlx.s:29150  .debug_str:00000000000256e2 .LASF1769
C:\Users\CYMR90~1\AppData\Local\Temp\cchaIJlx.s:30820  .debug_str:000000000002c1e9 .LASF1770
C:\Users\CYMR90~1\AppData\Local\Temp\cchaIJlx.s:22793  .debug_str:000000000000bef9 .LASF1771
C:\Users\CYMR90~1\AppData\Local\Temp\cchaIJlx.s:22385  .debug_str:000000000000a3f3 .LASF1772
C:\Users\CYMR90~1\AppData\Local\Temp\cchaIJlx.s:19911  .debug_str:00000000000006f2 .LASF1773
C:\Users\CYMR90~1\AppData\Local\Temp\cchaIJlx.s:19959  .debug_str:00000000000009da .LASF1774
C:\Users\CYMR90~1\AppData\Local\Temp\cchaIJlx.s:29866  .debug_str:000000000002853a .LASF1775
C:\Users\CYMR90~1\AppData\Local\Temp\cchaIJlx.s:24899  .debug_str:00000000000145ee .LASF1776
C:\Users\CYMR90~1\AppData\Local\Temp\cchaIJlx.s:23651  .debug_str:000000000000f526 .LASF1777
C:\Users\CYMR90~1\AppData\Local\Temp\cchaIJlx.s:25728  .debug_str:0000000000017c14 .LASF1778
C:\Users\CYMR90~1\AppData\Local\Temp\cchaIJlx.s:21109  .debug_str:00000000000052ec .LASF1779
C:\Users\CYMR90~1\AppData\Local\Temp\cchaIJlx.s:29188  .debug_str:0000000000025951 .LASF1780
C:\Users\CYMR90~1\AppData\Local\Temp\cchaIJlx.s:28410  .debug_str:0000000000022606 .LASF1781
C:\Users\CYMR90~1\AppData\Local\Temp\cchaIJlx.s:26948  .debug_str:000000000001cba3 .LASF1784
C:\Users\CYMR90~1\AppData\Local\Temp\cchaIJlx.s:26106  .debug_str:00000000000194b8 .LASF1785
C:\Users\CYMR90~1\AppData\Local\Temp\cchaIJlx.s:25954  .debug_str:00000000000189ae .LASF1786
C:\Users\CYMR90~1\AppData\Local\Temp\cchaIJlx.s:24945  .debug_str:00000000000148a3 .LASF1787
C:\Users\CYMR90~1\AppData\Local\Temp\cchaIJlx.s:30284  .debug_str:0000000000029f7e .LASF1788
C:\Users\CYMR90~1\AppData\Local\Temp\cchaIJlx.s:30588  .debug_str:000000000002b1e7 .LASF1789
C:\Users\CYMR90~1\AppData\Local\Temp\cchaIJlx.s:20693  .debug_str:00000000000037df .LASF1790
C:\Users\CYMR90~1\AppData\Local\Temp\cchaIJlx.s:19825  .debug_str:00000000000001e7 .LASF1791
C:\Users\CYMR90~1\AppData\Local\Temp\cchaIJlx.s:29524  .debug_str:0000000000026df1 .LASF1792
C:\Users\CYMR90~1\AppData\Local\Temp\cchaIJlx.s:28620  .debug_str:0000000000023258 .LASF1793
C:\Users\CYMR90~1\AppData\Local\Temp\cchaIJlx.s:30472  .debug_str:000000000002aac5 .LASF1794
C:\Users\CYMR90~1\AppData\Local\Temp\cchaIJlx.s:29796  .debug_str:0000000000028084 .LASF1795
C:\Users\CYMR90~1\AppData\Local\Temp\cchaIJlx.s:24609  .debug_str:0000000000013409 .LASF1796
C:\Users\CYMR90~1\AppData\Local\Temp\cchaIJlx.s:24887  .debug_str:00000000000144ef .LASF1797
C:\Users\CYMR90~1\AppData\Local\Temp\cchaIJlx.s:24001  .debug_str:0000000000010bea .LASF1798
C:\Users\CYMR90~1\AppData\Local\Temp\cchaIJlx.s:22819  .debug_str:000000000000c0b9 .LASF1799
C:\Users\CYMR90~1\AppData\Local\Temp\cchaIJlx.s:25638  .debug_str:0000000000017667 .LASF1800
C:\Users\CYMR90~1\AppData\Local\Temp\cchaIJlx.s:25946  .debug_str:000000000001895f .LASF1801
C:\Users\CYMR90~1\AppData\Local\Temp\cchaIJlx.s:25029  .debug_str:0000000000014e28 .LASF1802
C:\Users\CYMR90~1\AppData\Local\Temp\cchaIJlx.s:24059  .debug_str:0000000000010ee1 .LASF1803
C:\Users\CYMR90~1\AppData\Local\Temp\cchaIJlx.s:23549  .debug_str:000000000000eee9 .LASF1804
C:\Users\CYMR90~1\AppData\Local\Temp\cchaIJlx.s:28206  .debug_str:00000000000219bb .LASF1805
C:\Users\CYMR90~1\AppData\Local\Temp\cchaIJlx.s:24909  .debug_str:00000000000146a6 .LASF1806
C:\Users\CYMR90~1\AppData\Local\Temp\cchaIJlx.s:27808  .debug_str:0000000000020141 .LASF1807
C:\Users\CYMR90~1\AppData\Local\Temp\cchaIJlx.s:25053  .debug_str:0000000000014fbe .LASF1808
C:\Users\CYMR90~1\AppData\Local\Temp\cchaIJlx.s:29788  .debug_str:0000000000027f72 .LASF1809
C:\Users\CYMR90~1\AppData\Local\Temp\cchaIJlx.s:27042  .debug_str:000000000001d2be .LASF1810
C:\Users\CYMR90~1\AppData\Local\Temp\cchaIJlx.s:25742  .debug_str:0000000000017cee .LASF1811
C:\Users\CYMR90~1\AppData\Local\Temp\cchaIJlx.s:20151  .debug_str:00000000000015d2 .LASF1812
C:\Users\CYMR90~1\AppData\Local\Temp\cchaIJlx.s:23953  .debug_str:0000000000010842 .LASF1813
C:\Users\CYMR90~1\AppData\Local\Temp\cchaIJlx.s:24215  .debug_str:00000000000119c3 .LASF1814
C:\Users\CYMR90~1\AppData\Local\Temp\cchaIJlx.s:27022  .debug_str:000000000001d1a3 .LASF1815
C:\Users\CYMR90~1\AppData\Local\Temp\cchaIJlx.s:25706  .debug_str:0000000000017aed .LASF1816
C:\Users\CYMR90~1\AppData\Local\Temp\cchaIJlx.s:27030  .debug_str:000000000001d221 .LASF1817
C:\Users\CYMR90~1\AppData\Local\Temp\cchaIJlx.s:27470  .debug_str:000000000001ecd2 .LASF1818
C:\Users\CYMR90~1\AppData\Local\Temp\cchaIJlx.s:23767  .debug_str:000000000000fcc4 .LASF1819
C:\Users\CYMR90~1\AppData\Local\Temp\cchaIJlx.s:27950  .debug_str:0000000000020a1f .LASF1820
C:\Users\CYMR90~1\AppData\Local\Temp\cchaIJlx.s:21421  .debug_str:00000000000065ed .LASF1821
C:\Users\CYMR90~1\AppData\Local\Temp\cchaIJlx.s:21799  .debug_str:0000000000007ec4 .LASF1822
C:\Users\CYMR90~1\AppData\Local\Temp\cchaIJlx.s:27402  .debug_str:000000000001e915 .LASF1823
C:\Users\CYMR90~1\AppData\Local\Temp\cchaIJlx.s:30068  .debug_str:0000000000029267 .LASF1824
C:\Users\CYMR90~1\AppData\Local\Temp\cchaIJlx.s:22697  .debug_str:000000000000b8cf .LASF1825
C:\Users\CYMR90~1\AppData\Local\Temp\cchaIJlx.s:28044  .debug_str:0000000000020f6f .LASF1826
C:\Users\CYMR90~1\AppData\Local\Temp\cchaIJlx.s:30410  .debug_str:000000000002a71a .LASF1827
C:\Users\CYMR90~1\AppData\Local\Temp\cchaIJlx.s:23517  .debug_str:000000000000ed21 .LASF1828
C:\Users\CYMR90~1\AppData\Local\Temp\cchaIJlx.s:23591  .debug_str:000000000000f192 .LASF1829
C:\Users\CYMR90~1\AppData\Local\Temp\cchaIJlx.s:24359  .debug_str:0000000000012351 .LASF1830
C:\Users\CYMR90~1\AppData\Local\Temp\cchaIJlx.s:22167  .debug_str:0000000000009609 .LASF1831
C:\Users\CYMR90~1\AppData\Local\Temp\cchaIJlx.s:29472  .debug_str:0000000000026a93 .LASF1832
C:\Users\CYMR90~1\AppData\Local\Temp\cchaIJlx.s:22953  .debug_str:000000000000ca1c .LASF1833
C:\Users\CYMR90~1\AppData\Local\Temp\cchaIJlx.s:21623  .debug_str:0000000000007333 .LASF1834
C:\Users\CYMR90~1\AppData\Local\Temp\cchaIJlx.s:25345  .debug_str:00000000000161bc .LASF1835
C:\Users\CYMR90~1\AppData\Local\Temp\cchaIJlx.s:29338  .debug_str:0000000000026253 .LASF1836
C:\Users\CYMR90~1\AppData\Local\Temp\cchaIJlx.s:25315  .debug_str:0000000000015ffd .LASF1837
C:\Users\CYMR90~1\AppData\Local\Temp\cchaIJlx.s:26032  .debug_str:0000000000018f5e .LASF1838
C:\Users\CYMR90~1\AppData\Local\Temp\cchaIJlx.s:24005  .debug_str:0000000000010c22 .LASF1839
C:\Users\CYMR90~1\AppData\Local\Temp\cchaIJlx.s:26978  .debug_str:000000000001ce3b .LASF1840
C:\Users\CYMR90~1\AppData\Local\Temp\cchaIJlx.s:26266  .debug_str:0000000000019ed5 .LASF1841
C:\Users\CYMR90~1\AppData\Local\Temp\cchaIJlx.s:29036  .debug_str:0000000000024deb .LASF1842
C:\Users\CYMR90~1\AppData\Local\Temp\cchaIJlx.s:29424  .debug_str:00000000000267e4 .LASF1843
C:\Users\CYMR90~1\AppData\Local\Temp\cchaIJlx.s:30606  .debug_str:000000000002b334 .LASF1844
C:\Users\CYMR90~1\AppData\Local\Temp\cchaIJlx.s:30466  .debug_str:000000000002aa72 .LASF1845
C:\Users\CYMR90~1\AppData\Local\Temp\cchaIJlx.s:21901  .debug_str:00000000000085eb .LASF1846
C:\Users\CYMR90~1\AppData\Local\Temp\cchaIJlx.s:27182  .debug_str:000000000001db79 .LASF1847
C:\Users\CYMR90~1\AppData\Local\Temp\cchaIJlx.s:28312  .debug_str:0000000000022037 .LASF1848
C:\Users\CYMR90~1\AppData\Local\Temp\cchaIJlx.s:28328  .debug_str:0000000000022143 .LASF1849
C:\Users\CYMR90~1\AppData\Local\Temp\cchaIJlx.s:27556  .debug_str:000000000001f223 .LASF1850
C:\Users\CYMR90~1\AppData\Local\Temp\cchaIJlx.s:21959  .debug_str:000000000000895a .LASF1851
C:\Users\CYMR90~1\AppData\Local\Temp\cchaIJlx.s:29380  .debug_str:000000000002652e .LASF1852
C:\Users\CYMR90~1\AppData\Local\Temp\cchaIJlx.s:23199  .debug_str:000000000000d9ae .LASF1853
C:\Users\CYMR90~1\AppData\Local\Temp\cchaIJlx.s:20605  .debug_str:000000000000321a .LASF1854
C:\Users\CYMR90~1\AppData\Local\Temp\cchaIJlx.s:27062  .debug_str:000000000001d403 .LASF1855
C:\Users\CYMR90~1\AppData\Local\Temp\cchaIJlx.s:29642  .debug_str:000000000002756b .LASF1856
C:\Users\CYMR90~1\AppData\Local\Temp\cchaIJlx.s:22043  .debug_str:0000000000008eb7 .LASF1857
C:\Users\CYMR90~1\AppData\Local\Temp\cchaIJlx.s:22879  .debug_str:000000000000c46b .LASF1858
C:\Users\CYMR90~1\AppData\Local\Temp\cchaIJlx.s:29736  .debug_str:0000000000027bc9 .LASF1859
C:\Users\CYMR90~1\AppData\Local\Temp\cchaIJlx.s:25059  .debug_str:000000000001501f .LASF1860
C:\Users\CYMR90~1\AppData\Local\Temp\cchaIJlx.s:25976  .debug_str:0000000000018ba2 .LASF1861
C:\Users\CYMR90~1\AppData\Local\Temp\cchaIJlx.s:23815  .debug_str:000000000000ffbf .LASF1862
C:\Users\CYMR90~1\AppData\Local\Temp\cchaIJlx.s:21573  .debug_str:0000000000006f77 .LASF1863
C:\Users\CYMR90~1\AppData\Local\Temp\cchaIJlx.s:25890  .debug_str:00000000000185bb .LASF1864
C:\Users\CYMR90~1\AppData\Local\Temp\cchaIJlx.s:21215  .debug_str:0000000000005949 .LASF1865
C:\Users\CYMR90~1\AppData\Local\Temp\cchaIJlx.s:28512  .debug_str:0000000000022c3e .LASF1866
C:\Users\CYMR90~1\AppData\Local\Temp\cchaIJlx.s:27738  .debug_str:000000000001fd5c .LASF1867
C:\Users\CYMR90~1\AppData\Local\Temp\cchaIJlx.s:22817  .debug_str:000000000000c089 .LASF1868
C:\Users\CYMR90~1\AppData\Local\Temp\cchaIJlx.s:19939  .debug_str:00000000000008ac .LASF1869
C:\Users\CYMR90~1\AppData\Local\Temp\cchaIJlx.s:21881  .debug_str:00000000000084a4 .LASF1870
C:\Users\CYMR90~1\AppData\Local\Temp\cchaIJlx.s:30018  .debug_str:0000000000028ec7 .LASF1871
C:\Users\CYMR90~1\AppData\Local\Temp\cchaIJlx.s:29128  .debug_str:0000000000025500 .LASF1872
C:\Users\CYMR90~1\AppData\Local\Temp\cchaIJlx.s:25187  .debug_str:000000000001574a .LASF1873
C:\Users\CYMR90~1\AppData\Local\Temp\cchaIJlx.s:21745  .debug_str:0000000000007aef .LASF1874
C:\Users\CYMR90~1\AppData\Local\Temp\cchaIJlx.s:22615  .debug_str:000000000000b2aa .LASF1875
C:\Users\CYMR90~1\AppData\Local\Temp\cchaIJlx.s:30192  .debug_str:0000000000029a11 .LASF1876
C:\Users\CYMR90~1\AppData\Local\Temp\cchaIJlx.s:26498  .debug_str:000000000001af84 .LASF1877
C:\Users\CYMR90~1\AppData\Local\Temp\cchaIJlx.s:27240  .debug_str:000000000001df14 .LASF1878
C:\Users\CYMR90~1\AppData\Local\Temp\cchaIJlx.s:23655  .debug_str:000000000000f55f .LASF1879
C:\Users\CYMR90~1\AppData\Local\Temp\cchaIJlx.s:22003  .debug_str:0000000000008c00 .LASF1880
C:\Users\CYMR90~1\AppData\Local\Temp\cchaIJlx.s:27536  .debug_str:000000000001f0e6 .LASF1881
C:\Users\CYMR90~1\AppData\Local\Temp\cchaIJlx.s:20049  .debug_str:0000000000000fd6 .LASF1882
C:\Users\CYMR90~1\AppData\Local\Temp\cchaIJlx.s:27940  .debug_str:000000000002095d .LASF1883
C:\Users\CYMR90~1\AppData\Local\Temp\cchaIJlx.s:30602  .debug_str:000000000002b2ec .LASF1884
C:\Users\CYMR90~1\AppData\Local\Temp\cchaIJlx.s:27644  .debug_str:000000000001f759 .LASF1885
C:\Users\CYMR90~1\AppData\Local\Temp\cchaIJlx.s:29752  .debug_str:0000000000027cc9 .LASF1886
C:\Users\CYMR90~1\AppData\Local\Temp\cchaIJlx.s:22221  .debug_str:00000000000099a6 .LASF1887
C:\Users\CYMR90~1\AppData\Local\Temp\cchaIJlx.s:22033  .debug_str:0000000000008e0e .LASF1888
C:\Users\CYMR90~1\AppData\Local\Temp\cchaIJlx.s:30636  .debug_str:000000000002b513 .LASF1889
C:\Users\CYMR90~1\AppData\Local\Temp\cchaIJlx.s:26122  .debug_str:0000000000019577 .LASF1890
C:\Users\CYMR90~1\AppData\Local\Temp\cchaIJlx.s:22213  .debug_str:0000000000009900 .LASF1891
C:\Users\CYMR90~1\AppData\Local\Temp\cchaIJlx.s:22305  .debug_str:0000000000009edd .LASF1892
C:\Users\CYMR90~1\AppData\Local\Temp\cchaIJlx.s:26868  .debug_str:000000000001c5e9 .LASF1893
C:\Users\CYMR90~1\AppData\Local\Temp\cchaIJlx.s:22027  .debug_str:0000000000008da2 .LASF1894
C:\Users\CYMR90~1\AppData\Local\Temp\cchaIJlx.s:23269  .debug_str:000000000000dddd .LASF1895
C:\Users\CYMR90~1\AppData\Local\Temp\cchaIJlx.s:25574  .debug_str:000000000001728f .LASF1896
C:\Users\CYMR90~1\AppData\Local\Temp\cchaIJlx.s:20253  .debug_str:0000000000001c98 .LASF1897
C:\Users\CYMR90~1\AppData\Local\Temp\cchaIJlx.s:29494  .debug_str:0000000000026c24 .LASF1898
C:\Users\CYMR90~1\AppData\Local\Temp\cchaIJlx.s:26366  .debug_str:000000000001a65f .LASF1899
C:\Users\CYMR90~1\AppData\Local\Temp\cchaIJlx.s:23087  .debug_str:000000000000d306 .LASF1900
C:\Users\CYMR90~1\AppData\Local\Temp\cchaIJlx.s:19859  .debug_str:00000000000003f1 .LASF1901
C:\Users\CYMR90~1\AppData\Local\Temp\cchaIJlx.s:20679  .debug_str:00000000000036cf .LASF1902
C:\Users\CYMR90~1\AppData\Local\Temp\cchaIJlx.s:22721  .debug_str:000000000000b9f9 .LASF1903
C:\Users\CYMR90~1\AppData\Local\Temp\cchaIJlx.s:30884  .debug_str:000000000002c5ba .LASF1904
C:\Users\CYMR90~1\AppData\Local\Temp\cchaIJlx.s:25447  .debug_str:000000000001689f .LASF1905
C:\Users\CYMR90~1\AppData\Local\Temp\cchaIJlx.s:22183  .debug_str:00000000000096c4 .LASF1906
C:\Users\CYMR90~1\AppData\Local\Temp\cchaIJlx.s:29830  .debug_str:0000000000028298 .LASF1907
C:\Users\CYMR90~1\AppData\Local\Temp\cchaIJlx.s:26906  .debug_str:000000000001c917 .LASF1908
C:\Users\CYMR90~1\AppData\Local\Temp\cchaIJlx.s:21201  .debug_str:000000000000587b .LASF1909
C:\Users\CYMR90~1\AppData\Local\Temp\cchaIJlx.s:30184  .debug_str:0000000000029994 .LASF1910
C:\Users\CYMR90~1\AppData\Local\Temp\cchaIJlx.s:26544  .debug_str:000000000001b280 .LASF1911
C:\Users\CYMR90~1\AppData\Local\Temp\cchaIJlx.s:26224  .debug_str:0000000000019c71 .LASF1912
C:\Users\CYMR90~1\AppData\Local\Temp\cchaIJlx.s:22633  .debug_str:000000000000b459 .LASF1913
C:\Users\CYMR90~1\AppData\Local\Temp\cchaIJlx.s:22475  .debug_str:000000000000a932 .LASF1914
C:\Users\CYMR90~1\AppData\Local\Temp\cchaIJlx.s:27840  .debug_str:000000000002031d .LASF1915
C:\Users\CYMR90~1\AppData\Local\Temp\cchaIJlx.s:29104  .debug_str:000000000002532f .LASF1916
C:\Users\CYMR90~1\AppData\Local\Temp\cchaIJlx.s:25740  .debug_str:0000000000017cc2 .LASF1917
C:\Users\CYMR90~1\AppData\Local\Temp\cchaIJlx.s:22379  .debug_str:000000000000a38e .LASF1918
C:\Users\CYMR90~1\AppData\Local\Temp\cchaIJlx.s:30236  .debug_str:0000000000029ca1 .LASF1919
C:\Users\CYMR90~1\AppData\Local\Temp\cchaIJlx.s:26878  .debug_str:000000000001c697 .LASF1920
C:\Users\CYMR90~1\AppData\Local\Temp\cchaIJlx.s:23049  .debug_str:000000000000cfec .LASF1921
C:\Users\CYMR90~1\AppData\Local\Temp\cchaIJlx.s:21595  .debug_str:00000000000070ff .LASF1922
C:\Users\CYMR90~1\AppData\Local\Temp\cchaIJlx.s:27910  .debug_str:00000000000207ae .LASF1923
C:\Users\CYMR90~1\AppData\Local\Temp\cchaIJlx.s:29972  .debug_str:0000000000028bf1 .LASF1924
C:\Users\CYMR90~1\AppData\Local\Temp\cchaIJlx.s:22495  .debug_str:000000000000aa9d .LASF1925
C:\Users\CYMR90~1\AppData\Local\Temp\cchaIJlx.s:27734  .debug_str:000000000001fd08 .LASF1926
C:\Users\CYMR90~1\AppData\Local\Temp\cchaIJlx.s:26776  .debug_str:000000000001c077 .LASF1927
C:\Users\CYMR90~1\AppData\Local\Temp\cchaIJlx.s:24137  .debug_str:0000000000011390 .LASF1928
C:\Users\CYMR90~1\AppData\Local\Temp\cchaIJlx.s:21645  .debug_str:0000000000007464 .LASF1929
C:\Users\CYMR90~1\AppData\Local\Temp\cchaIJlx.s:27660  .debug_str:000000000001f853 .LASF1930
C:\Users\CYMR90~1\AppData\Local\Temp\cchaIJlx.s:30914  .debug_str:000000000002c7da .LASF1931
C:\Users\CYMR90~1\AppData\Local\Temp\cchaIJlx.s:30594  .debug_str:000000000002b255 .LASF1932
C:\Users\CYMR90~1\AppData\Local\Temp\cchaIJlx.s:21757  .debug_str:0000000000007b8a .LASF1933
C:\Users\CYMR90~1\AppData\Local\Temp\cchaIJlx.s:22797  .debug_str:000000000000bf54 .LASF1934
C:\Users\CYMR90~1\AppData\Local\Temp\cchaIJlx.s:26850  .debug_str:000000000001c4b8 .LASF1935
C:\Users\CYMR90~1\AppData\Local\Temp\cchaIJlx.s:21245  .debug_str:0000000000005b26 .LASF1936
C:\Users\CYMR90~1\AppData\Local\Temp\cchaIJlx.s:26714  .debug_str:000000000001bc82 .LASF1937
C:\Users\CYMR90~1\AppData\Local\Temp\cchaIJlx.s:25688  .debug_str:00000000000179d0 .LASF1938
C:\Users\CYMR90~1\AppData\Local\Temp\cchaIJlx.s:25009  .debug_str:0000000000014cb4 .LASF1939
C:\Users\CYMR90~1\AppData\Local\Temp\cchaIJlx.s:21945  .debug_str:000000000000886d .LASF1940
C:\Users\CYMR90~1\AppData\Local\Temp\cchaIJlx.s:30036  .debug_str:0000000000029004 .LASF1941
C:\Users\CYMR90~1\AppData\Local\Temp\cchaIJlx.s:26960  .debug_str:000000000001cc69 .LASF1942
C:\Users\CYMR90~1\AppData\Local\Temp\cchaIJlx.s:22853  .debug_str:000000000000c2b3 .LASF1943
C:\Users\CYMR90~1\AppData\Local\Temp\cchaIJlx.s:23987  .debug_str:0000000000010a9c .LASF1944
C:\Users\CYMR90~1\AppData\Local\Temp\cchaIJlx.s:27772  .debug_str:000000000001ff6e .LASF1945
C:\Users\CYMR90~1\AppData\Local\Temp\cchaIJlx.s:24717  .debug_str:0000000000013aaf .LASF1946
C:\Users\CYMR90~1\AppData\Local\Temp\cchaIJlx.s:21539  .debug_str:0000000000006d61 .LASF1947
C:\Users\CYMR90~1\AppData\Local\Temp\cchaIJlx.s:20457  .debug_str:00000000000028e5 .LASF1948
C:\Users\CYMR90~1\AppData\Local\Temp\cchaIJlx.s:26598  .debug_str:000000000001b59f .LASF1949
C:\Users\CYMR90~1\AppData\Local\Temp\cchaIJlx.s:23537  .debug_str:000000000000ee2c .LASF1950
C:\Users\CYMR90~1\AppData\Local\Temp\cchaIJlx.s:20327  .debug_str:00000000000020ce .LASF1951
C:\Users\CYMR90~1\AppData\Local\Temp\cchaIJlx.s:28528  .debug_str:0000000000022d11 .LASF1952
C:\Users\CYMR90~1\AppData\Local\Temp\cchaIJlx.s:29236  .debug_str:0000000000025c34 .LASF1953
C:\Users\CYMR90~1\AppData\Local\Temp\cchaIJlx.s:24845  .debug_str:000000000001428d .LASF1954
C:\Users\CYMR90~1\AppData\Local\Temp\cchaIJlx.s:28058  .debug_str:0000000000021044 .LASF1955
C:\Users\CYMR90~1\AppData\Local\Temp\cchaIJlx.s:28722  .debug_str:00000000000238e6 .LASF1956
C:\Users\CYMR90~1\AppData\Local\Temp\cchaIJlx.s:20379  .debug_str:00000000000023cd .LASF1957
C:\Users\CYMR90~1\AppData\Local\Temp\cchaIJlx.s:30436  .debug_str:000000000002a8a1 .LASF1958
C:\Users\CYMR90~1\AppData\Local\Temp\cchaIJlx.s:21763  .debug_str:0000000000007bfb .LASF1959
C:\Users\CYMR90~1\AppData\Local\Temp\cchaIJlx.s:30020  .debug_str:0000000000028f06 .LASF1960
C:\Users\CYMR90~1\AppData\Local\Temp\cchaIJlx.s:26914  .debug_str:000000000001c99d .LASF1961
C:\Users\CYMR90~1\AppData\Local\Temp\cchaIJlx.s:19901  .debug_str:0000000000000626 .LASF1962
C:\Users\CYMR90~1\AppData\Local\Temp\cchaIJlx.s:25233  .debug_str:0000000000015a12 .LASF1963
C:\Users\CYMR90~1\AppData\Local\Temp\cchaIJlx.s:29086  .debug_str:0000000000025211 .LASF1964
C:\Users\CYMR90~1\AppData\Local\Temp\cchaIJlx.s:21599  .debug_str:000000000000716a .LASF1965
C:\Users\CYMR90~1\AppData\Local\Temp\cchaIJlx.s:27052  .debug_str:000000000001d347 .LASF1966
C:\Users\CYMR90~1\AppData\Local\Temp\cchaIJlx.s:30534  .debug_str:000000000002ae5d .LASF1967
C:\Users\CYMR90~1\AppData\Local\Temp\cchaIJlx.s:26892  .debug_str:000000000001c826 .LASF1968
C:\Users\CYMR90~1\AppData\Local\Temp\cchaIJlx.s:28416  .debug_str:000000000002265e .LASF1969
C:\Users\CYMR90~1\AppData\Local\Temp\cchaIJlx.s:21583  .debug_str:000000000000702d .LASF1970
C:\Users\CYMR90~1\AppData\Local\Temp\cchaIJlx.s:28420  .debug_str:000000000002268f .LASF1971
C:\Users\CYMR90~1\AppData\Local\Temp\cchaIJlx.s:29120  .debug_str:0000000000025456 .LASF1972
C:\Users\CYMR90~1\AppData\Local\Temp\cchaIJlx.s:22609  .debug_str:000000000000b24c .LASF1973
C:\Users\CYMR90~1\AppData\Local\Temp\cchaIJlx.s:25694  .debug_str:0000000000017a31 .LASF1974
C:\Users\CYMR90~1\AppData\Local\Temp\cchaIJlx.s:25307  .debug_str:0000000000015f5c .LASF1975
C:\Users\CYMR90~1\AppData\Local\Temp\cchaIJlx.s:23145  .debug_str:000000000000d67c .LASF1976
C:\Users\CYMR90~1\AppData\Local\Temp\cchaIJlx.s:21239  .debug_str:0000000000005adf .LASF1977
C:\Users\CYMR90~1\AppData\Local\Temp\cchaIJlx.s:24469  .debug_str:0000000000012ab2 .LASF1978
C:\Users\CYMR90~1\AppData\Local\Temp\cchaIJlx.s:23495  .debug_str:000000000000ec04 .LASF1979
C:\Users\CYMR90~1\AppData\Local\Temp\cchaIJlx.s:22733  .debug_str:000000000000bac6 .LASF1980
C:\Users\CYMR90~1\AppData\Local\Temp\cchaIJlx.s:30770  .debug_str:000000000002be34 .LASF1981
C:\Users\CYMR90~1\AppData\Local\Temp\cchaIJlx.s:22019  .debug_str:0000000000008d64 .LASF1982
C:\Users\CYMR90~1\AppData\Local\Temp\cchaIJlx.s:30060  .debug_str:00000000000291ec .LASF1983
C:\Users\CYMR90~1\AppData\Local\Temp\cchaIJlx.s:21091  .debug_str:00000000000051ca .LASF1984
C:\Users\CYMR90~1\AppData\Local\Temp\cchaIJlx.s:20205  .debug_str:00000000000019a8 .LASF1985
C:\Users\CYMR90~1\AppData\Local\Temp\cchaIJlx.s:28648  .debug_str:000000000002345c .LASF1986
C:\Users\CYMR90~1\AppData\Local\Temp\cchaIJlx.s:22461  .debug_str:000000000000a88b .LASF1987
C:\Users\CYMR90~1\AppData\Local\Temp\cchaIJlx.s:30038  .debug_str:000000000002902c .LASF1988
C:\Users\CYMR90~1\AppData\Local\Temp\cchaIJlx.s:24333  .debug_str:000000000001218f .LASF1989
C:\Users\CYMR90~1\AppData\Local\Temp\cchaIJlx.s:30276  .debug_str:0000000000029f22 .LASF1990
C:\Users\CYMR90~1\AppData\Local\Temp\cchaIJlx.s:29808  .debug_str:000000000002814d .LASF1991
C:\Users\CYMR90~1\AppData\Local\Temp\cchaIJlx.s:20099  .debug_str:00000000000012b4 .LASF1992
C:\Users\CYMR90~1\AppData\Local\Temp\cchaIJlx.s:19953  .debug_str:0000000000000988 .LASF1993
C:\Users\CYMR90~1\AppData\Local\Temp\cchaIJlx.s:26548  .debug_str:000000000001b2c6 .LASF1994
C:\Users\CYMR90~1\AppData\Local\Temp\cchaIJlx.s:27602  .debug_str:000000000001f4e9 .LASF1995
C:\Users\CYMR90~1\AppData\Local\Temp\cchaIJlx.s:25522  .debug_str:0000000000016f99 .LASF1996
C:\Users\CYMR90~1\AppData\Local\Temp\cchaIJlx.s:24269  .debug_str:0000000000011cf0 .LASF1997
C:\Users\CYMR90~1\AppData\Local\Temp\cchaIJlx.s:25618  .debug_str:0000000000017529 .LASF1998
C:\Users\CYMR90~1\AppData\Local\Temp\cchaIJlx.s:24777  .debug_str:0000000000013e2d .LASF1999
C:\Users\CYMR90~1\AppData\Local\Temp\cchaIJlx.s:30764  .debug_str:000000000002bde0 .LASF2000
C:\Users\CYMR90~1\AppData\Local\Temp\cchaIJlx.s:20837  .debug_str:0000000000004176 .LASF2001
C:\Users\CYMR90~1\AppData\Local\Temp\cchaIJlx.s:22259  .debug_str:0000000000009bf4 .LASF2002
C:\Users\CYMR90~1\AppData\Local\Temp\cchaIJlx.s:20601  .debug_str:00000000000031b7 .LASF2003
C:\Users\CYMR90~1\AppData\Local\Temp\cchaIJlx.s:29246  .debug_str:0000000000025ccc .LASF2004
C:\Users\CYMR90~1\AppData\Local\Temp\cchaIJlx.s:23827  .debug_str:00000000000100a9 .LASF2005
C:\Users\CYMR90~1\AppData\Local\Temp\cchaIJlx.s:22617  .debug_str:000000000000b2d3 .LASF2006
C:\Users\CYMR90~1\AppData\Local\Temp\cchaIJlx.s:21419  .debug_str:00000000000065ca .LASF2007
C:\Users\CYMR90~1\AppData\Local\Temp\cchaIJlx.s:20517  .debug_str:0000000000002c5e .LASF2008
C:\Users\CYMR90~1\AppData\Local\Temp\cchaIJlx.s:22297  .debug_str:0000000000009e36 .LASF2009
C:\Users\CYMR90~1\AppData\Local\Temp\cchaIJlx.s:30718  .debug_str:000000000002baa1 .LASF2010
C:\Users\CYMR90~1\AppData\Local\Temp\cchaIJlx.s:25616  .debug_str:0000000000017505 .LASF2011
C:\Users\CYMR90~1\AppData\Local\Temp\cchaIJlx.s:20619  .debug_str:00000000000032fa .LASF2012
C:\Users\CYMR90~1\AppData\Local\Temp\cchaIJlx.s:30008  .debug_str:0000000000028e4e .LASF2013
C:\Users\CYMR90~1\AppData\Local\Temp\cchaIJlx.s:24303  .debug_str:0000000000011fb1 .LASF2014
C:\Users\CYMR90~1\AppData\Local\Temp\cchaIJlx.s:21619  .debug_str:00000000000072e6 .LASF2015
C:\Users\CYMR90~1\AppData\Local\Temp\cchaIJlx.s:23051  .debug_str:000000000000d018 .LASF2016
C:\Users\CYMR90~1\AppData\Local\Temp\cchaIJlx.s:25568  .debug_str:0000000000017233 .LASF2017
C:\Users\CYMR90~1\AppData\Local\Temp\cchaIJlx.s:27622  .debug_str:000000000001f5fe .LASF2018
C:\Users\CYMR90~1\AppData\Local\Temp\cchaIJlx.s:30166  .debug_str:0000000000029886 .LASF2019
C:\Users\CYMR90~1\AppData\Local\Temp\cchaIJlx.s:29572  .debug_str:0000000000027160 .LASF2020
C:\Users\CYMR90~1\AppData\Local\Temp\cchaIJlx.s:24667  .debug_str:00000000000137ae .LASF2021
C:\Users\CYMR90~1\AppData\Local\Temp\cchaIJlx.s:26532  .debug_str:000000000001b1a5 .LASF2022
C:\Users\CYMR90~1\AppData\Local\Temp\cchaIJlx.s:24857  .debug_str:000000000001432a .LASF2023
C:\Users\CYMR90~1\AppData\Local\Temp\cchaIJlx.s:28880  .debug_str:00000000000243a7 .LASF2024
C:\Users\CYMR90~1\AppData\Local\Temp\cchaIJlx.s:27566  .debug_str:000000000001f2c2 .LASF2025
C:\Users\CYMR90~1\AppData\Local\Temp\cchaIJlx.s:20473  .debug_str:00000000000029b4 .LASF2026
C:\Users\CYMR90~1\AppData\Local\Temp\cchaIJlx.s:27998  .debug_str:0000000000020cf8 .LASF2027
C:\Users\CYMR90~1\AppData\Local\Temp\cchaIJlx.s:21875  .debug_str:000000000000843a .LASF2028
C:\Users\CYMR90~1\AppData\Local\Temp\cchaIJlx.s:24715  .debug_str:0000000000013a8b .LASF2029
C:\Users\CYMR90~1\AppData\Local\Temp\cchaIJlx.s:27312  .debug_str:000000000001e360 .LASF2030
C:\Users\CYMR90~1\AppData\Local\Temp\cchaIJlx.s:24567  .debug_str:0000000000013104 .LASF2031
C:\Users\CYMR90~1\AppData\Local\Temp\cchaIJlx.s:25686  .debug_str:00000000000179a9 .LASF2032
C:\Users\CYMR90~1\AppData\Local\Temp\cchaIJlx.s:30794  .debug_str:000000000002bfc9 .LASF2033
C:\Users\CYMR90~1\AppData\Local\Temp\cchaIJlx.s:28108  .debug_str:00000000000213ca .LASF2034
C:\Users\CYMR90~1\AppData\Local\Temp\cchaIJlx.s:24027  .debug_str:0000000000010d33 .LASF2035
C:\Users\CYMR90~1\AppData\Local\Temp\cchaIJlx.s:28014  .debug_str:0000000000020dd2 .LASF2036
C:\Users\CYMR90~1\AppData\Local\Temp\cchaIJlx.s:25908  .debug_str:00000000000186aa .LASF2037
C:\Users\CYMR90~1\AppData\Local\Temp\cchaIJlx.s:27836  .debug_str:00000000000202d8 .LASF2038
C:\Users\CYMR90~1\AppData\Local\Temp\cchaIJlx.s:24207  .debug_str:0000000000011930 .LASF2039
C:\Users\CYMR90~1\AppData\Local\Temp\cchaIJlx.s:20609  .debug_str:000000000000325c .LASF2040
C:\Users\CYMR90~1\AppData\Local\Temp\cchaIJlx.s:20351  .debug_str:000000000000221d .LASF2041
C:\Users\CYMR90~1\AppData\Local\Temp\cchaIJlx.s:26064  .debug_str:0000000000019212 .LASF2042
C:\Users\CYMR90~1\AppData\Local\Temp\cchaIJlx.s:30264  .debug_str:0000000000029e59 .LASF2043
C:\Users\CYMR90~1\AppData\Local\Temp\cchaIJlx.s:21877  .debug_str:000000000000845f .LASF2044
C:\Users\CYMR90~1\AppData\Local\Temp\cchaIJlx.s:28202  .debug_str:000000000002197e .LASF2045
C:\Users\CYMR90~1\AppData\Local\Temp\cchaIJlx.s:24121  .debug_str:0000000000011276 .LASF2046
C:\Users\CYMR90~1\AppData\Local\Temp\cchaIJlx.s:23615  .debug_str:000000000000f31c .LASF2047
C:\Users\CYMR90~1\AppData\Local\Temp\cchaIJlx.s:27582  .debug_str:000000000001f3bd .LASF2048
C:\Users\CYMR90~1\AppData\Local\Temp\cchaIJlx.s:28132  .debug_str:0000000000021523 .LASF2049
C:\Users\CYMR90~1\AppData\Local\Temp\cchaIJlx.s:24403  .debug_str:000000000001263c .LASF2050
C:\Users\CYMR90~1\AppData\Local\Temp\cchaIJlx.s:20637  .debug_str:000000000000343e .LASF2051
C:\Users\CYMR90~1\AppData\Local\Temp\cchaIJlx.s:19817  .debug_str:000000000000014f .LASF2052
C:\Users\CYMR90~1\AppData\Local\Temp\cchaIJlx.s:20229  .debug_str:0000000000001b16 .LASF2053
C:\Users\CYMR90~1\AppData\Local\Temp\cchaIJlx.s:25624  .debug_str:000000000001757f .LASF2054
C:\Users\CYMR90~1\AppData\Local\Temp\cchaIJlx.s:29974  .debug_str:0000000000028c31 .LASF2055
C:\Users\CYMR90~1\AppData\Local\Temp\cchaIJlx.s:29574  .debug_str:0000000000027187 .LASF2056
C:\Users\CYMR90~1\AppData\Local\Temp\cchaIJlx.s:24669  .debug_str:00000000000137d5 .LASF2057
C:\Users\CYMR90~1\AppData\Local\Temp\cchaIJlx.s:23225  .debug_str:000000000000daf9 .LASF2058
C:\Users\CYMR90~1\AppData\Local\Temp\cchaIJlx.s:21251  .debug_str:0000000000005b91 .LASF2059
C:\Users\CYMR90~1\AppData\Local\Temp\cchaIJlx.s:29984  .debug_str:0000000000028cc4 .LASF2060
C:\Users\CYMR90~1\AppData\Local\Temp\cchaIJlx.s:20155  .debug_str:0000000000001622 .LASF2061
C:\Users\CYMR90~1\AppData\Local\Temp\cchaIJlx.s:20703  .debug_str:0000000000003883 .LASF2062
C:\Users\CYMR90~1\AppData\Local\Temp\cchaIJlx.s:29540  .debug_str:0000000000026ec5 .LASF2063
C:\Users\CYMR90~1\AppData\Local\Temp\cchaIJlx.s:24061  .debug_str:0000000000010f05 .LASF2064
C:\Users\CYMR90~1\AppData\Local\Temp\cchaIJlx.s:25968  .debug_str:0000000000018aa3 .LASF2065
C:\Users\CYMR90~1\AppData\Local\Temp\cchaIJlx.s:29348  .debug_str:0000000000026314 .LASF2066
C:\Users\CYMR90~1\AppData\Local\Temp\cchaIJlx.s:22047  .debug_str:0000000000008ef9 .LASF2067
C:\Users\CYMR90~1\AppData\Local\Temp\cchaIJlx.s:30246  .debug_str:0000000000029d47 .LASF2068
C:\Users\CYMR90~1\AppData\Local\Temp\cchaIJlx.s:30952  .debug_str:000000000002ca1d .LASF2069
C:\Users\CYMR90~1\AppData\Local\Temp\cchaIJlx.s:20737  .debug_str:0000000000003aa4 .LASF2070
C:\Users\CYMR90~1\AppData\Local\Temp\cchaIJlx.s:28628  .debug_str:00000000000232d6 .LASF2071
C:\Users\CYMR90~1\AppData\Local\Temp\cchaIJlx.s:26048  .debug_str:0000000000019133 .LASF2072
C:\Users\CYMR90~1\AppData\Local\Temp\cchaIJlx.s:23609  .debug_str:000000000000f2c5 .LASF2073
C:\Users\CYMR90~1\AppData\Local\Temp\cchaIJlx.s:21909  .debug_str:0000000000008646 .LASF2074
C:\Users\CYMR90~1\AppData\Local\Temp\cchaIJlx.s:27150  .debug_str:000000000001d9c6 .LASF2075
C:\Users\CYMR90~1\AppData\Local\Temp\cchaIJlx.s:25355  .debug_str:000000000001625e .LASF2076
C:\Users\CYMR90~1\AppData\Local\Temp\cchaIJlx.s:23383  .debug_str:000000000000e49b .LASF2077
C:\Users\CYMR90~1\AppData\Local\Temp\cchaIJlx.s:23523  .debug_str:000000000000ed63 .LASF2078
C:\Users\CYMR90~1\AppData\Local\Temp\cchaIJlx.s:27586  .debug_str:000000000001f3f4 .LASF2079
C:\Users\CYMR90~1\AppData\Local\Temp\cchaIJlx.s:25295  .debug_str:0000000000015e7f .LASF2080
C:\Users\CYMR90~1\AppData\Local\Temp\cchaIJlx.s:24263  .debug_str:0000000000011cae .LASF2081
C:\Users\CYMR90~1\AppData\Local\Temp\cchaIJlx.s:27380  .debug_str:000000000001e7c2 .LASF2082
C:\Users\CYMR90~1\AppData\Local\Temp\cchaIJlx.s:22619  .debug_str:000000000000b2e2 .LASF2083
C:\Users\CYMR90~1\AppData\Local\Temp\cchaIJlx.s:28276  .debug_str:0000000000021e0f .LASF2084
C:\Users\CYMR90~1\AppData\Local\Temp\cchaIJlx.s:23241  .debug_str:000000000000dbff .LASF2085
C:\Users\CYMR90~1\AppData\Local\Temp\cchaIJlx.s:21753  .debug_str:0000000000007b63 .LASF2086
C:\Users\CYMR90~1\AppData\Local\Temp\cchaIJlx.s:29266  .debug_str:0000000000025e2f .LASF2087
C:\Users\CYMR90~1\AppData\Local\Temp\cchaIJlx.s:23415  .debug_str:000000000000e6db .LASF2088
C:\Users\CYMR90~1\AppData\Local\Temp\cchaIJlx.s:25329  .debug_str:00000000000160dc .LASF2089
C:\Users\CYMR90~1\AppData\Local\Temp\cchaIJlx.s:20857  .debug_str:0000000000004296 .LASF2090
C:\Users\CYMR90~1\AppData\Local\Temp\cchaIJlx.s:23699  .debug_str:000000000000f89c .LASF2091
C:\Users\CYMR90~1\AppData\Local\Temp\cchaIJlx.s:30506  .debug_str:000000000002acd8 .LASF2092
C:\Users\CYMR90~1\AppData\Local\Temp\cchaIJlx.s:27388  .debug_str:000000000001e839 .LASF2093
C:\Users\CYMR90~1\AppData\Local\Temp\cchaIJlx.s:22243  .debug_str:0000000000009b22 .LASF2094
C:\Users\CYMR90~1\AppData\Local\Temp\cchaIJlx.s:26382  .debug_str:000000000001a807 .LASF2095
C:\Users\CYMR90~1\AppData\Local\Temp\cchaIJlx.s:20797  .debug_str:0000000000003e19 .LASF2096
C:\Users\CYMR90~1\AppData\Local\Temp\cchaIJlx.s:22343  .debug_str:000000000000a134 .LASF2097
C:\Users\CYMR90~1\AppData\Local\Temp\cchaIJlx.s:27468  .debug_str:000000000001ec96 .LASF2098
C:\Users\CYMR90~1\AppData\Local\Temp\cchaIJlx.s:20719  .debug_str:0000000000003968 .LASF2099
C:\Users\CYMR90~1\AppData\Local\Temp\cchaIJlx.s:24149  .debug_str:0000000000011469 .LASF2100
C:\Users\CYMR90~1\AppData\Local\Temp\cchaIJlx.s:28832  .debug_str:0000000000024013 .LASF2101
C:\Users\CYMR90~1\AppData\Local\Temp\cchaIJlx.s:21699  .debug_str:00000000000077c8 .LASF2102
C:\Users\CYMR90~1\AppData\Local\Temp\cchaIJlx.s:25023  .debug_str:0000000000014dad .LASF2103
C:\Users\CYMR90~1\AppData\Local\Temp\cchaIJlx.s:21975  .debug_str:0000000000008a6b .LASF2104
C:\Users\CYMR90~1\AppData\Local\Temp\cchaIJlx.s:27830  .debug_str:000000000002028f .LASF2105
C:\Users\CYMR90~1\AppData\Local\Temp\cchaIJlx.s:22483  .debug_str:000000000000a9cc .LASF2106
C:\Users\CYMR90~1\AppData\Local\Temp\cchaIJlx.s:28342  .debug_str:0000000000022206 .LASF2107
C:\Users\CYMR90~1\AppData\Local\Temp\cchaIJlx.s:27664  .debug_str:000000000001f894 .LASF2108
C:\Users\CYMR90~1\AppData\Local\Temp\cchaIJlx.s:28848  .debug_str:0000000000024155 .LASF2109
C:\Users\CYMR90~1\AppData\Local\Temp\cchaIJlx.s:29416  .debug_str:000000000002676c .LASF2110
C:\Users\CYMR90~1\AppData\Local\Temp\cchaIJlx.s:29250  .debug_str:0000000000025cff .LASF2111
C:\Users\CYMR90~1\AppData\Local\Temp\cchaIJlx.s:28896  .debug_str:0000000000024488 .LASF2112
C:\Users\CYMR90~1\AppData\Local\Temp\cchaIJlx.s:27964  .debug_str:0000000000020b03 .LASF2113
C:\Users\CYMR90~1\AppData\Local\Temp\cchaIJlx.s:23873  .debug_str:0000000000010367 .LASF2114
C:\Users\CYMR90~1\AppData\Local\Temp\cchaIJlx.s:26012  .debug_str:0000000000018dd7 .LASF2115
C:\Users\CYMR90~1\AppData\Local\Temp\cchaIJlx.s:27810  .debug_str:0000000000020155 .LASF2116
C:\Users\CYMR90~1\AppData\Local\Temp\cchaIJlx.s:22747  .debug_str:000000000000bbc3 .LASF2117
C:\Users\CYMR90~1\AppData\Local\Temp\cchaIJlx.s:21477  .debug_str:0000000000006971 .LASF2118
C:\Users\CYMR90~1\AppData\Local\Temp\cchaIJlx.s:30690  .debug_str:000000000002b8c1 .LASF2119
C:\Users\CYMR90~1\AppData\Local\Temp\cchaIJlx.s:30772  .debug_str:000000000002be45 .LASF2120
C:\Users\CYMR90~1\AppData\Local\Temp\cchaIJlx.s:24763  .debug_str:0000000000013d39 .LASF2121
C:\Users\CYMR90~1\AppData\Local\Temp\cchaIJlx.s:22441  .debug_str:000000000000a76b .LASF2122
C:\Users\CYMR90~1\AppData\Local\Temp\cchaIJlx.s:26626  .debug_str:000000000001b775 .LASF2123
C:\Users\CYMR90~1\AppData\Local\Temp\cchaIJlx.s:25940  .debug_str:000000000001890f .LASF2124
C:\Users\CYMR90~1\AppData\Local\Temp\cchaIJlx.s:30538  .debug_str:000000000002ae9a .LASF2125
C:\Users\CYMR90~1\AppData\Local\Temp\cchaIJlx.s:27172  .debug_str:000000000001dafc .LASF2126
C:\Users\CYMR90~1\AppData\Local\Temp\cchaIJlx.s:26026  .debug_str:0000000000018edf .LASF2127
C:\Users\CYMR90~1\AppData\Local\Temp\cchaIJlx.s:24439  .debug_str:0000000000012897 .LASF2128
C:\Users\CYMR90~1\AppData\Local\Temp\cchaIJlx.s:26668  .debug_str:000000000001b99d .LASF2129
C:\Users\CYMR90~1\AppData\Local\Temp\cchaIJlx.s:21413  .debug_str:0000000000006572 .LASF2130
C:\Users\CYMR90~1\AppData\Local\Temp\cchaIJlx.s:19837  .debug_str:0000000000000282 .LASF2131
C:\Users\CYMR90~1\AppData\Local\Temp\cchaIJlx.s:20933  .debug_str:00000000000047ae .LASF2132
C:\Users\CYMR90~1\AppData\Local\Temp\cchaIJlx.s:26214  .debug_str:0000000000019bc2 .LASF2133
C:\Users\CYMR90~1\AppData\Local\Temp\cchaIJlx.s:25496  .debug_str:0000000000016de0 .LASF2134
C:\Users\CYMR90~1\AppData\Local\Temp\cchaIJlx.s:27224  .debug_str:000000000001de21 .LASF2135
C:\Users\CYMR90~1\AppData\Local\Temp\cchaIJlx.s:20899  .debug_str:0000000000004568 .LASF2136
C:\Users\CYMR90~1\AppData\Local\Temp\cchaIJlx.s:27442  .debug_str:000000000001eb0d .LASF2137
C:\Users\CYMR90~1\AppData\Local\Temp\cchaIJlx.s:20215  .debug_str:0000000000001a43 .LASF2138
C:\Users\CYMR90~1\AppData\Local\Temp\cchaIJlx.s:26202  .debug_str:0000000000019b1a .LASF2139
C:\Users\CYMR90~1\AppData\Local\Temp\cchaIJlx.s:22911  .debug_str:000000000000c68c .LASF2140
C:\Users\CYMR90~1\AppData\Local\Temp\cchaIJlx.s:21139  .debug_str:00000000000054d8 .LASF2141
C:\Users\CYMR90~1\AppData\Local\Temp\cchaIJlx.s:30724  .debug_str:000000000002bafe .LASF2142
C:\Users\CYMR90~1\AppData\Local\Temp\cchaIJlx.s:23387  .debug_str:000000000000e4d6 .LASF2143
C:\Users\CYMR90~1\AppData\Local\Temp\cchaIJlx.s:28084  .debug_str:000000000002126e .LASF2144
C:\Users\CYMR90~1\AppData\Local\Temp\cchaIJlx.s:27128  .debug_str:000000000001d85c .LASF2145
C:\Users\CYMR90~1\AppData\Local\Temp\cchaIJlx.s:27056  .debug_str:000000000001d384 .LASF2146
C:\Users\CYMR90~1\AppData\Local\Temp\cchaIJlx.s:20273  .debug_str:0000000000001dd6 .LASF2147
C:\Users\CYMR90~1\AppData\Local\Temp\cchaIJlx.s:28102  .debug_str:0000000000021376 .LASF2148
C:\Users\CYMR90~1\AppData\Local\Temp\cchaIJlx.s:29618  .debug_str:00000000000273fd .LASF2149
C:\Users\CYMR90~1\AppData\Local\Temp\cchaIJlx.s:24285  .debug_str:0000000000011dd8 .LASF2150
C:\Users\CYMR90~1\AppData\Local\Temp\cchaIJlx.s:25504  .debug_str:0000000000016e65 .LASF2151
C:\Users\CYMR90~1\AppData\Local\Temp\cchaIJlx.s:22431  .debug_str:000000000000a688 .LASF2152
C:\Users\CYMR90~1\AppData\Local\Temp\cchaIJlx.s:25087  .debug_str:00000000000151ca .LASF2153
C:\Users\CYMR90~1\AppData\Local\Temp\cchaIJlx.s:20639  .debug_str:0000000000003465 .LASF2154
C:\Users\CYMR90~1\AppData\Local\Temp\cchaIJlx.s:27462  .debug_str:000000000001ec3c .LASF2155
C:\Users\CYMR90~1\AppData\Local\Temp\cchaIJlx.s:26604  .debug_str:000000000001b600 .LASF2156
C:\Users\CYMR90~1\AppData\Local\Temp\cchaIJlx.s:25660  .debug_str:00000000000177c8 .LASF2157
C:\Users\CYMR90~1\AppData\Local\Temp\cchaIJlx.s:28854  .debug_str:00000000000241be .LASF2158
C:\Users\CYMR90~1\AppData\Local\Temp\cchaIJlx.s:24445  .debug_str:00000000000128f4 .LASF2159
C:\Users\CYMR90~1\AppData\Local\Temp\cchaIJlx.s:23189  .debug_str:000000000000d908 .LASF2160
C:\Users\CYMR90~1\AppData\Local\Temp\cchaIJlx.s:21961  .debug_str:0000000000008977 .LASF2161
C:\Users\CYMR90~1\AppData\Local\Temp\cchaIJlx.s:23851  .debug_str:0000000000010226 .LASF2162
C:\Users\CYMR90~1\AppData\Local\Temp\cchaIJlx.s:26870  .debug_str:000000000001c615 .LASF2163
C:\Users\CYMR90~1\AppData\Local\Temp\cchaIJlx.s:24139  .debug_str:00000000000113bf .LASF2164
C:\Users\CYMR90~1\AppData\Local\Temp\cchaIJlx.s:24361  .debug_str:0000000000012365 .LASF2165
C:\Users\CYMR90~1\AppData\Local\Temp\cchaIJlx.s:24047  .debug_str:0000000000010e22 .LASF2166
C:\Users\CYMR90~1\AppData\Local\Temp\cchaIJlx.s:26854  .debug_str:000000000001c4f0 .LASF2167
C:\Users\CYMR90~1\AppData\Local\Temp\cchaIJlx.s:20335  .debug_str:000000000000213f .LASF2168
C:\Users\CYMR90~1\AppData\Local\Temp\cchaIJlx.s:23435  .debug_str:000000000000e801 .LASF2169
C:\Users\CYMR90~1\AppData\Local\Temp\cchaIJlx.s:27242  .debug_str:000000000001df3e .LASF2170
C:\Users\CYMR90~1\AppData\Local\Temp\cchaIJlx.s:26300  .debug_str:000000000001a0c9 .LASF2171
C:\Users\CYMR90~1\AppData\Local\Temp\cchaIJlx.s:23277  .debug_str:000000000000de4c .LASF2172
C:\Users\CYMR90~1\AppData\Local\Temp\cchaIJlx.s:22631  .debug_str:000000000000b439 .LASF2173
C:\Users\CYMR90~1\AppData\Local\Temp\cchaIJlx.s:25668  .debug_str:0000000000017882 .LASF2174
C:\Users\CYMR90~1\AppData\Local\Temp\cchaIJlx.s:30458  .debug_str:000000000002a9fe .LASF2175
C:\Users\CYMR90~1\AppData\Local\Temp\cchaIJlx.s:20955  .debug_str:0000000000004992 .LASF2176
C:\Users\CYMR90~1\AppData\Local\Temp\cchaIJlx.s:26754  .debug_str:000000000001bf3c .LASF2177
C:\Users\CYMR90~1\AppData\Local\Temp\cchaIJlx.s:27152  .debug_str:000000000001d9de .LASF2178
C:\Users\CYMR90~1\AppData\Local\Temp\cchaIJlx.s:24979  .debug_str:0000000000014abd .LASF2179
C:\Users\CYMR90~1\AppData\Local\Temp\cchaIJlx.s:29824  .debug_str:0000000000028248 .LASF2180
C:\Users\CYMR90~1\AppData\Local\Temp\cchaIJlx.s:26504  .debug_str:000000000001afe7 .LASF2181
C:\Users\CYMR90~1\AppData\Local\Temp\cchaIJlx.s:23195  .debug_str:000000000000d973 .LASF2182
C:\Users\CYMR90~1\AppData\Local\Temp\cchaIJlx.s:20731  .debug_str:0000000000003a3e .LASF2183
C:\Users\CYMR90~1\AppData\Local\Temp\cchaIJlx.s:20009  .debug_str:0000000000000d33 .LASF2184
C:\Users\CYMR90~1\AppData\Local\Temp\cchaIJlx.s:29680  .debug_str:00000000000277d8 .LASF2185
C:\Users\CYMR90~1\AppData\Local\Temp\cchaIJlx.s:28088  .debug_str:00000000000212ac .LASF2186
C:\Users\CYMR90~1\AppData\Local\Temp\cchaIJlx.s:21143  .debug_str:000000000000550c .LASF2187
C:\Users\CYMR90~1\AppData\Local\Temp\cchaIJlx.s:26236  .debug_str:0000000000019d32 .LASF2188
C:\Users\CYMR90~1\AppData\Local\Temp\cchaIJlx.s:25556  .debug_str:000000000001717c .LASF2189
C:\Users\CYMR90~1\AppData\Local\Temp\cchaIJlx.s:26926  .debug_str:000000000001ca3c .LASF2190
C:\Users\CYMR90~1\AppData\Local\Temp\cchaIJlx.s:26462  .debug_str:000000000001acd4 .LASF2191
C:\Users\CYMR90~1\AppData\Local\Temp\cchaIJlx.s:29636  .debug_str:00000000000274fb .LASF2192
C:\Users\CYMR90~1\AppData\Local\Temp\cchaIJlx.s:24051  .debug_str:0000000000010e56 .LASF2193
C:\Users\CYMR90~1\AppData\Local\Temp\cchaIJlx.s:28240  .debug_str:0000000000021bfd .LASF2194
C:\Users\CYMR90~1\AppData\Local\Temp\cchaIJlx.s:30134  .debug_str:00000000000296b1 .LASF2195
C:\Users\CYMR90~1\AppData\Local\Temp\cchaIJlx.s:24255  .debug_str:0000000000011c03 .LASF2196
C:\Users\CYMR90~1\AppData\Local\Temp\cchaIJlx.s:30590  .debug_str:000000000002b20b .LASF2197
C:\Users\CYMR90~1\AppData\Local\Temp\cchaIJlx.s:27332  .debug_str:000000000001e4bc .LASF2198
C:\Users\CYMR90~1\AppData\Local\Temp\cchaIJlx.s:21043  .debug_str:0000000000004ed7 .LASF2199
C:\Users\CYMR90~1\AppData\Local\Temp\cchaIJlx.s:29998  .debug_str:0000000000028d8c .LASF2200
C:\Users\CYMR90~1\AppData\Local\Temp\cchaIJlx.s:30554  .debug_str:000000000002af83 .LASF2201
C:\Users\CYMR90~1\AppData\Local\Temp\cchaIJlx.s:23257  .debug_str:000000000000dd1c .LASF2202
C:\Users\CYMR90~1\AppData\Local\Temp\cchaIJlx.s:23229  .debug_str:000000000000db2f .LASF2203
C:\Users\CYMR90~1\AppData\Local\Temp\cchaIJlx.s:22611  .debug_str:000000000000b25d .LASF2204
C:\Users\CYMR90~1\AppData\Local\Temp\cchaIJlx.s:24775  .debug_str:0000000000013e02 .LASF2205
C:\Users\CYMR90~1\AppData\Local\Temp\cchaIJlx.s:29838  .debug_str:000000000002833d .LASF2206
C:\Users\CYMR90~1\AppData\Local\Temp\cchaIJlx.s:23587  .debug_str:000000000000f13f .LASF2207
C:\Users\CYMR90~1\AppData\Local\Temp\cchaIJlx.s:26702  .debug_str:000000000001bbdd .LASF2208
C:\Users\CYMR90~1\AppData\Local\Temp\cchaIJlx.s:28984  .debug_str:0000000000024a93 .LASF2209
C:\Users\CYMR90~1\AppData\Local\Temp\cchaIJlx.s:23187  .debug_str:000000000000d8e1 .LASF2210
C:\Users\CYMR90~1\AppData\Local\Temp\cchaIJlx.s:28136  .debug_str:000000000002155e .LASF2211
C:\Users\CYMR90~1\AppData\Local\Temp\cchaIJlx.s:20089  .debug_str:0000000000001235 .LASF2212
C:\Users\CYMR90~1\AppData\Local\Temp\cchaIJlx.s:26406  .debug_str:000000000001a96a .LASF2213
C:\Users\CYMR90~1\AppData\Local\Temp\cchaIJlx.s:26890  .debug_str:000000000001c7fd .LASF2214
C:\Users\CYMR90~1\AppData\Local\Temp\cchaIJlx.s:20587  .debug_str:00000000000030eb .LASF2215
C:\Users\CYMR90~1\AppData\Local\Temp\cchaIJlx.s:29264  .debug_str:0000000000025e06 .LASF2216
C:\Users\CYMR90~1\AppData\Local\Temp\cchaIJlx.s:30072  .debug_str:000000000002929f .LASF2217
C:\Users\CYMR90~1\AppData\Local\Temp\cchaIJlx.s:24813  .debug_str:0000000000014082 .LASF2218
C:\Users\CYMR90~1\AppData\Local\Temp\cchaIJlx.s:29790  .debug_str:0000000000027f87 .LASF2219
C:\Users\CYMR90~1\AppData\Local\Temp\cchaIJlx.s:21659  .debug_str:0000000000007538 .LASF2220
C:\Users\CYMR90~1\AppData\Local\Temp\cchaIJlx.s:27916  .debug_str:0000000000020808 .LASF2221
C:\Users\CYMR90~1\AppData\Local\Temp\cchaIJlx.s:21719  .debug_str:0000000000007905 .LASF2222
C:\Users\CYMR90~1\AppData\Local\Temp\cchaIJlx.s:26720  .debug_str:000000000001bcf8 .LASF2223
C:\Users\CYMR90~1\AppData\Local\Temp\cchaIJlx.s:29834  .debug_str:00000000000282fc .LASF2224
C:\Users\CYMR90~1\AppData\Local\Temp\cchaIJlx.s:23471  .debug_str:000000000000ea78 .LASF2225
C:\Users\CYMR90~1\AppData\Local\Temp\cchaIJlx.s:20967  .debug_str:0000000000004a4e .LASF2226
C:\Users\CYMR90~1\AppData\Local\Temp\cchaIJlx.s:22993  .debug_str:000000000000cc41 .LASF2227
C:\Users\CYMR90~1\AppData\Local\Temp\cchaIJlx.s:31038  .debug_str:000000000002cfad .LASF2228
C:\Users\CYMR90~1\AppData\Local\Temp\cchaIJlx.s:21335  .debug_str:00000000000060db .LASF2229
C:\Users\CYMR90~1\AppData\Local\Temp\cchaIJlx.s:24937  .debug_str:000000000001483a .LASF2230
C:\Users\CYMR90~1\AppData\Local\Temp\cchaIJlx.s:30618  .debug_str:000000000002b3c4 .LASF2231
C:\Users\CYMR90~1\AppData\Local\Temp\cchaIJlx.s:22407  .debug_str:000000000000a554 .LASF2232
C:\Users\CYMR90~1\AppData\Local\Temp\cchaIJlx.s:25902  .debug_str:000000000001864c .LASF2233
C:\Users\CYMR90~1\AppData\Local\Temp\cchaIJlx.s:20367  .debug_str:0000000000002322 .LASF2234
C:\Users\CYMR90~1\AppData\Local\Temp\cchaIJlx.s:24849  .debug_str:00000000000142b8 .LASF2235
C:\Users\CYMR90~1\AppData\Local\Temp\cchaIJlx.s:21713  .debug_str:00000000000078b8 .LASF2236
C:\Users\CYMR90~1\AppData\Local\Temp\cchaIJlx.s:22847  .debug_str:000000000000c254 .LASF2237
C:\Users\CYMR90~1\AppData\Local\Temp\cchaIJlx.s:23895  .debug_str:00000000000104c5 .LASF2238
C:\Users\CYMR90~1\AppData\Local\Temp\cchaIJlx.s:28042  .debug_str:0000000000020f52 .LASF2239
C:\Users\CYMR90~1\AppData\Local\Temp\cchaIJlx.s:29440  .debug_str:00000000000268ef .LASF2240
C:\Users\CYMR90~1\AppData\Local\Temp\cchaIJlx.s:23907  .debug_str:000000000001057f .LASF2241
C:\Users\CYMR90~1\AppData\Local\Temp\cchaIJlx.s:24297  .debug_str:0000000000011f4d .LASF2242
C:\Users\CYMR90~1\AppData\Local\Temp\cchaIJlx.s:23361  .debug_str:000000000000e342 .LASF2243
C:\Users\CYMR90~1\AppData\Local\Temp\cchaIJlx.s:21349  .debug_str:00000000000061e4 .LASF2244
C:\Users\CYMR90~1\AppData\Local\Temp\cchaIJlx.s:20413  .debug_str:00000000000025a4 .LASF2245
C:\Users\CYMR90~1\AppData\Local\Temp\cchaIJlx.s:27114  .debug_str:000000000001d77d .LASF2246
C:\Users\CYMR90~1\AppData\Local\Temp\cchaIJlx.s:29322  .debug_str:000000000002616c .LASF2247
C:\Users\CYMR90~1\AppData\Local\Temp\cchaIJlx.s:27694  .debug_str:000000000001fa8a .LASF2248
C:\Users\CYMR90~1\AppData\Local\Temp\cchaIJlx.s:27710  .debug_str:000000000001fb62 .LASF2249
C:\Users\CYMR90~1\AppData\Local\Temp\cchaIJlx.s:28746  .debug_str:0000000000023a2f .LASF2250
C:\Users\CYMR90~1\AppData\Local\Temp\cchaIJlx.s:29542  .debug_str:0000000000026edb .LASF2251
C:\Users\CYMR90~1\AppData\Local\Temp\cchaIJlx.s:26818  .debug_str:000000000001c314 .LASF2252
C:\Users\CYMR90~1\AppData\Local\Temp\cchaIJlx.s:26982  .debug_str:000000000001ce79 .LASF2253
C:\Users\CYMR90~1\AppData\Local\Temp\cchaIJlx.s:21931  .debug_str:0000000000008793 .LASF2254
C:\Users\CYMR90~1\AppData\Local\Temp\cchaIJlx.s:24655  .debug_str:0000000000013720 .LASF2255
C:\Users\CYMR90~1\AppData\Local\Temp\cchaIJlx.s:28186  .debug_str:000000000002184d .LASF2256
C:\Users\CYMR90~1\AppData\Local\Temp\cchaIJlx.s:30422  .debug_str:000000000002a7cd .LASF2257
C:\Users\CYMR90~1\AppData\Local\Temp\cchaIJlx.s:28970  .debug_str:00000000000249a4 .LASF2258
C:\Users\CYMR90~1\AppData\Local\Temp\cchaIJlx.s:21503  .debug_str:0000000000006af7 .LASF2259
C:\Users\CYMR90~1\AppData\Local\Temp\cchaIJlx.s:23807  .debug_str:000000000000ff39 .LASF2260
C:\Users\CYMR90~1\AppData\Local\Temp\cchaIJlx.s:21449  .debug_str:000000000000677f .LASF2261
C:\Users\CYMR90~1\AppData\Local\Temp\cchaIJlx.s:30828  .debug_str:000000000002c267 .LASF2262
C:\Users\CYMR90~1\AppData\Local\Temp\cchaIJlx.s:30250  .debug_str:0000000000029d6c .LASF2263
C:\Users\CYMR90~1\AppData\Local\Temp\cchaIJlx.s:23101  .debug_str:000000000000d3e5 .LASF2264
C:\Users\CYMR90~1\AppData\Local\Temp\cchaIJlx.s:22159  .debug_str:0000000000009586 .LASF2265
C:\Users\CYMR90~1\AppData\Local\Temp\cchaIJlx.s:20725  .debug_str:00000000000039f1 .LASF2266
C:\Users\CYMR90~1\AppData\Local\Temp\cchaIJlx.s:23819  .debug_str:0000000000010012 .LASF2267
C:\Users\CYMR90~1\AppData\Local\Temp\cchaIJlx.s:22591  .debug_str:000000000000b168 .LASF2268
C:\Users\CYMR90~1\AppData\Local\Temp\cchaIJlx.s:21381  .debug_str:000000000000639f .LASF2269
C:\Users\CYMR90~1\AppData\Local\Temp\cchaIJlx.s:28752  .debug_str:0000000000023a7f .LASF2270
C:\Users\CYMR90~1\AppData\Local\Temp\cchaIJlx.s:27924  .debug_str:0000000000020883 .LASF2271
C:\Users\CYMR90~1\AppData\Local\Temp\cchaIJlx.s:24355  .debug_str:0000000000012304 .LASF2272
C:\Users\CYMR90~1\AppData\Local\Temp\cchaIJlx.s:29004  .debug_str:0000000000024c1c .LASF2273
C:\Users\CYMR90~1\AppData\Local\Temp\cchaIJlx.s:29614  .debug_str:00000000000273d0 .LASF2274
C:\Users\CYMR90~1\AppData\Local\Temp\cchaIJlx.s:22143  .debug_str:0000000000009463 .LASF2275
C:\Users\CYMR90~1\AppData\Local\Temp\cchaIJlx.s:23465  .debug_str:000000000000e9e6 .LASF2276
C:\Users\CYMR90~1\AppData\Local\Temp\cchaIJlx.s:21513  .debug_str:0000000000006bb4 .LASF2277
C:\Users\CYMR90~1\AppData\Local\Temp\cchaIJlx.s:23869  .debug_str:000000000001032e .LASF2278
C:\Users\CYMR90~1\AppData\Local\Temp\cchaIJlx.s:30704  .debug_str:000000000002b9a7 .LASF2279
C:\Users\CYMR90~1\AppData\Local\Temp\cchaIJlx.s:29392  .debug_str:0000000000026608 .LASF2280
C:\Users\CYMR90~1\AppData\Local\Temp\cchaIJlx.s:19947  .debug_str:0000000000000934 .LASF2281
C:\Users\CYMR90~1\AppData\Local\Temp\cchaIJlx.s:24259  .debug_str:0000000000011c58 .LASF2282
C:\Users\CYMR90~1\AppData\Local\Temp\cchaIJlx.s:27408  .debug_str:000000000001e964 .LASF2283
C:\Users\CYMR90~1\AppData\Local\Temp\cchaIJlx.s:30650  .debug_str:000000000002b63f .LASF2284
C:\Users\CYMR90~1\AppData\Local\Temp\cchaIJlx.s:22593  .debug_str:000000000000b18d .LASF2285
C:\Users\CYMR90~1\AppData\Local\Temp\cchaIJlx.s:21555  .debug_str:0000000000006e74 .LASF2286
C:\Users\CYMR90~1\AppData\Local\Temp\cchaIJlx.s:28962  .debug_str:0000000000024921 .LASF2287
C:\Users\CYMR90~1\AppData\Local\Temp\cchaIJlx.s:28710  .debug_str:0000000000023845 .LASF2288
C:\Users\CYMR90~1\AppData\Local\Temp\cchaIJlx.s:24037  .debug_str:0000000000010dc7 .LASF2289
C:\Users\CYMR90~1\AppData\Local\Temp\cchaIJlx.s:27192  .debug_str:000000000001dc3a .LASF2290
C:\Users\CYMR90~1\AppData\Local\Temp\cchaIJlx.s:30392  .debug_str:000000000002a63e .LASF2291
C:\Users\CYMR90~1\AppData\Local\Temp\cchaIJlx.s:20247  .debug_str:0000000000001c52 .LASF2292
C:\Users\CYMR90~1\AppData\Local\Temp\cchaIJlx.s:24947  .debug_str:00000000000148c5 .LASF2293
C:\Users\CYMR90~1\AppData\Local\Temp\cchaIJlx.s:29616  .debug_str:00000000000273e2 .LASF2294
C:\Users\CYMR90~1\AppData\Local\Temp\cchaIJlx.s:26560  .debug_str:000000000001b379 .LASF2295
C:\Users\CYMR90~1\AppData\Local\Temp\cchaIJlx.s:27702  .debug_str:000000000001fb02 .LASF2296
C:\Users\CYMR90~1\AppData\Local\Temp\cchaIJlx.s:21115  .debug_str:0000000000005350 .LASF2297
C:\Users\CYMR90~1\AppData\Local\Temp\cchaIJlx.s:25828  .debug_str:0000000000018213 .LASF2298
C:\Users\CYMR90~1\AppData\Local\Temp\cchaIJlx.s:30494  .debug_str:000000000002ac23 .LASF2299
C:\Users\CYMR90~1\AppData\Local\Temp\cchaIJlx.s:26676  .debug_str:000000000001ba25 .LASF2300
C:\Users\CYMR90~1\AppData\Local\Temp\cchaIJlx.s:29674  .debug_str:0000000000027773 .LASF2301
C:\Users\CYMR90~1\AppData\Local\Temp\cchaIJlx.s:23115  .debug_str:000000000000d4c3 .LASF2302
C:\Users\CYMR90~1\AppData\Local\Temp\cchaIJlx.s:27760  .debug_str:000000000001fea3 .LASF2303
C:\Users\CYMR90~1\AppData\Local\Temp\cchaIJlx.s:21163  .debug_str:0000000000005606 .LASF2304
C:\Users\CYMR90~1\AppData\Local\Temp\cchaIJlx.s:25882  .debug_str:0000000000018550 .LASF2305
C:\Users\CYMR90~1\AppData\Local\Temp\cchaIJlx.s:30550  .debug_str:000000000002af52 .LASF2306
C:\Users\CYMR90~1\AppData\Local\Temp\cchaIJlx.s:30426  .debug_str:000000000002a805 .LASF2307
C:\Users\CYMR90~1\AppData\Local\Temp\cchaIJlx.s:22383  .debug_str:000000000000a3dc .LASF2308
C:\Users\CYMR90~1\AppData\Local\Temp\cchaIJlx.s:25572  .debug_str:0000000000017278 .LASF2309
C:\Users\CYMR90~1\AppData\Local\Temp\cchaIJlx.s:28756  .debug_str:0000000000023ab0 .LASF2310
C:\Users\CYMR90~1\AppData\Local\Temp\cchaIJlx.s:20677  .debug_str:00000000000036b8 .LASF2311
C:\Users\CYMR90~1\AppData\Local\Temp\cchaIJlx.s:23915  .debug_str:0000000000010623 .LASF2312
C:\Users\CYMR90~1\AppData\Local\Temp\cchaIJlx.s:27086  .debug_str:000000000001d5a1 .LASF2313
C:\Users\CYMR90~1\AppData\Local\Temp\cchaIJlx.s:24109  .debug_str:00000000000111bc .LASF2314
C:\Users\CYMR90~1\AppData\Local\Temp\cchaIJlx.s:24701  .debug_str:00000000000139b7 .LASF2315
C:\Users\CYMR90~1\AppData\Local\Temp\cchaIJlx.s:23091  .debug_str:000000000000d33e .LASF2316
C:\Users\CYMR90~1\AppData\Local\Temp\cchaIJlx.s:26452  .debug_str:000000000001ac31 .LASF2317
C:\Users\CYMR90~1\AppData\Local\Temp\cchaIJlx.s:19833  .debug_str:0000000000000241 .LASF2318
C:\Users\CYMR90~1\AppData\Local\Temp\cchaIJlx.s:28388  .debug_str:000000000002249f .LASF2319
C:\Users\CYMR90~1\AppData\Local\Temp\cchaIJlx.s:29166  .debug_str:0000000000025801 .LASF2320
C:\Users\CYMR90~1\AppData\Local\Temp\cchaIJlx.s:22627  .debug_str:000000000000b383 .LASF2321
C:\Users\CYMR90~1\AppData\Local\Temp\cchaIJlx.s:27258  .debug_str:000000000001e024 .LASF2322
C:\Users\CYMR90~1\AppData\Local\Temp\cchaIJlx.s:22941  .debug_str:000000000000c96d .LASF2323
C:\Users\CYMR90~1\AppData\Local\Temp\cchaIJlx.s:25373  .debug_str:0000000000016356 .LASF2324
C:\Users\CYMR90~1\AppData\Local\Temp\cchaIJlx.s:27464  .debug_str:000000000001ec6b .LASF2325
C:\Users\CYMR90~1\AppData\Local\Temp\cchaIJlx.s:24573  .debug_str:0000000000013164 .LASF2326
C:\Users\CYMR90~1\AppData\Local\Temp\cchaIJlx.s:29218  .debug_str:0000000000025b27 .LASF2327
C:\Users\CYMR90~1\AppData\Local\Temp\cchaIJlx.s:28810  .debug_str:0000000000023e06 .LASF2328
C:\Users\CYMR90~1\AppData\Local\Temp\cchaIJlx.s:27304  .debug_str:000000000001e2f7 .LASF2329
C:\Users\CYMR90~1\AppData\Local\Temp\cchaIJlx.s:20721  .debug_str:00000000000039a6 .LASF2330
C:\Users\CYMR90~1\AppData\Local\Temp\cchaIJlx.s:25431  .debug_str:000000000001674b .LASF2331
C:\Users\CYMR90~1\AppData\Local\Temp\cchaIJlx.s:22509  .debug_str:000000000000ab87 .LASF2332
C:\Users\CYMR90~1\AppData\Local\Temp\cchaIJlx.s:25598  .debug_str:00000000000173e0 .LASF2333
C:\Users\CYMR90~1\AppData\Local\Temp\cchaIJlx.s:28796  .debug_str:0000000000023d55 .LASF2334
C:\Users\CYMR90~1\AppData\Local\Temp\cchaIJlx.s:20705  .debug_str:0000000000003899 .LASF2335
C:\Users\CYMR90~1\AppData\Local\Temp\cchaIJlx.s:23949  .debug_str:0000000000010811 .LASF2336
C:\Users\CYMR90~1\AppData\Local\Temp\cchaIJlx.s:24189  .debug_str:000000000001179f .LASF2337
C:\Users\CYMR90~1\AppData\Local\Temp\cchaIJlx.s:30316  .debug_str:000000000002a14e .LASF2338
C:\Users\CYMR90~1\AppData\Local\Temp\cchaIJlx.s:20907  .debug_str:00000000000045fb .LASF2339
C:\Users\CYMR90~1\AppData\Local\Temp\cchaIJlx.s:29584  .debug_str:0000000000027233 .LASF2340
C:\Users\CYMR90~1\AppData\Local\Temp\cchaIJlx.s:28558  .debug_str:0000000000022ec8 .LASF2341
C:\Users\CYMR90~1\AppData\Local\Temp\cchaIJlx.s:29894  .debug_str:0000000000028710 .LASF2342
C:\Users\CYMR90~1\AppData\Local\Temp\cchaIJlx.s:23333  .debug_str:000000000000e1b5 .LASF2343
C:\Users\CYMR90~1\AppData\Local\Temp\cchaIJlx.s:27982  .debug_str:0000000000020c0e .LASF2344
C:\Users\CYMR90~1\AppData\Local\Temp\cchaIJlx.s:21403  .debug_str:00000000000064ef .LASF2345
C:\Users\CYMR90~1\AppData\Local\Temp\cchaIJlx.s:26116  .debug_str:000000000001953f .LASF2346
C:\Users\CYMR90~1\AppData\Local\Temp\cchaIJlx.s:30774  .debug_str:000000000002be6d .LASF2347
C:\Users\CYMR90~1\AppData\Local\Temp\cchaIJlx.s:24197  .debug_str:000000000001180c .LASF2348
C:\Users\CYMR90~1\AppData\Local\Temp\cchaIJlx.s:28864  .debug_str:00000000000242a1 .LASF2349
C:\Users\CYMR90~1\AppData\Local\Temp\cchaIJlx.s:22799  .debug_str:000000000000bf84 .LASF2350
C:\Users\CYMR90~1\AppData\Local\Temp\cchaIJlx.s:28036  .debug_str:0000000000020ee7 .LASF2351
C:\Users\CYMR90~1\AppData\Local\Temp\cchaIJlx.s:21453  .debug_str:00000000000067b8 .LASF2352
C:\Users\CYMR90~1\AppData\Local\Temp\cchaIJlx.s:26166  .debug_str:00000000000198cb .LASF2353
C:\Users\CYMR90~1\AppData\Local\Temp\cchaIJlx.s:30824  .debug_str:000000000002c228 .LASF2354
C:\Users\CYMR90~1\AppData\Local\Temp\cchaIJlx.s:24251  .debug_str:0000000000011bb5 .LASF2355
C:\Users\CYMR90~1\AppData\Local\Temp\cchaIJlx.s:24167  .debug_str:00000000000115ab .LASF2356
C:\Users\CYMR90~1\AppData\Local\Temp\cchaIJlx.s:27724  .debug_str:000000000001fc63 .LASF2357
C:\Users\CYMR90~1\AppData\Local\Temp\cchaIJlx.s:29022  .debug_str:0000000000024d2b .LASF2358
C:\Users\CYMR90~1\AppData\Local\Temp\cchaIJlx.s:27378  .debug_str:000000000001e7ab .LASF2359
C:\Users\CYMR90~1\AppData\Local\Temp\cchaIJlx.s:26008  .debug_str:0000000000018dac .LASF2360
C:\Users\CYMR90~1\AppData\Local\Temp\cchaIJlx.s:29168  .debug_str:000000000002581a .LASF2361
C:\Users\CYMR90~1\AppData\Local\Temp\cchaIJlx.s:22571  .debug_str:000000000000b050 .LASF2362
C:\Users\CYMR90~1\AppData\Local\Temp\cchaIJlx.s:24329  .debug_str:0000000000012164 .LASF2363
C:\Users\CYMR90~1\AppData\Local\Temp\cchaIJlx.s:27472  .debug_str:000000000001ece7 .LASF2364
C:\Users\CYMR90~1\AppData\Local\Temp\cchaIJlx.s:28952  .debug_str:0000000000024897 .LASF2365
C:\Users\CYMR90~1\AppData\Local\Temp\cchaIJlx.s:22575  .debug_str:000000000000b08d .LASF2366
C:\Users\CYMR90~1\AppData\Local\Temp\cchaIJlx.s:28876  .debug_str:0000000000024346 .LASF2367
C:\Users\CYMR90~1\AppData\Local\Temp\cchaIJlx.s:30646  .debug_str:000000000002b5af .LASF2368
C:\Users\CYMR90~1\AppData\Local\Temp\cchaIJlx.s:26970  .debug_str:000000000001cdba .LASF2369
C:\Users\CYMR90~1\AppData\Local\Temp\cchaIJlx.s:20373  .debug_str:000000000000236e .LASF2370
C:\Users\CYMR90~1\AppData\Local\Temp\cchaIJlx.s:25067  .debug_str:000000000001508e .LASF2371
C:\Users\CYMR90~1\AppData\Local\Temp\cchaIJlx.s:29740  .debug_str:0000000000027c0f .LASF2372
C:\Users\CYMR90~1\AppData\Local\Temp\cchaIJlx.s:23177  .debug_str:000000000000d853 .LASF2373
C:\Users\CYMR90~1\AppData\Local\Temp\cchaIJlx.s:27826  .debug_str:0000000000020247 .LASF2374
C:\Users\CYMR90~1\AppData\Local\Temp\cchaIJlx.s:25952  .debug_str:0000000000018995 .LASF2375
C:\Users\CYMR90~1\AppData\Local\Temp\cchaIJlx.s:20783  .debug_str:0000000000003d82 .LASF2376
C:\Users\CYMR90~1\AppData\Local\Temp\cchaIJlx.s:20429  .debug_str:00000000000026e8 .LASF2377
C:\Users\CYMR90~1\AppData\Local\Temp\cchaIJlx.s:24625  .debug_str:000000000001351e .LASF2378
C:\Users\CYMR90~1\AppData\Local\Temp\cchaIJlx.s:29794  .debug_str:000000000002806b .LASF2379
C:\Users\CYMR90~1\AppData\Local\Temp\cchaIJlx.s:23233  .debug_str:000000000000db80 .LASF2380
C:\Users\CYMR90~1\AppData\Local\Temp\cchaIJlx.s:27882  .debug_str:00000000000205fa .LASF2381
C:\Users\CYMR90~1\AppData\Local\Temp\cchaIJlx.s:30016  .debug_str:0000000000028eae .LASF2382
C:\Users\CYMR90~1\AppData\Local\Temp\cchaIJlx.s:20573  .debug_str:0000000000002fde .LASF2383
C:\Users\CYMR90~1\AppData\Local\Temp\cchaIJlx.s:25149  .debug_str:0000000000015528 .LASF2384
C:\Users\CYMR90~1\AppData\Local\Temp\cchaIJlx.s:29780  .debug_str:0000000000027eff .LASF2385
C:\Users\CYMR90~1\AppData\Local\Temp\cchaIJlx.s:28154  .debug_str:0000000000021693 .LASF2386
C:\Users\CYMR90~1\AppData\Local\Temp\cchaIJlx.s:26568  .debug_str:000000000001b3f1 .LASF2387
C:\Users\CYMR90~1\AppData\Local\Temp\cchaIJlx.s:26682  .debug_str:000000000001ba70 .LASF2388
C:\Users\CYMR90~1\AppData\Local\Temp\cchaIJlx.s:29870  .debug_str:00000000000285a3 .LASF2389
C:\Users\CYMR90~1\AppData\Local\Temp\cchaIJlx.s:21807  .debug_str:0000000000007f40 .LASF2390
C:\Users\CYMR90~1\AppData\Local\Temp\cchaIJlx.s:24915  .debug_str:00000000000146ff .LASF2391
C:\Users\CYMR90~1\AppData\Local\Temp\cchaIJlx.s:24629  .debug_str:000000000001354b .LASF2392
C:\Users\CYMR90~1\AppData\Local\Temp\cchaIJlx.s:29278  .debug_str:0000000000025ee7 .LASF2393
C:\Users\CYMR90~1\AppData\Local\Temp\cchaIJlx.s:26278  .debug_str:0000000000019f9a .LASF2394
C:\Users\CYMR90~1\AppData\Local\Temp\cchaIJlx.s:27356  .debug_str:000000000001e604 .LASF2395
C:\Users\CYMR90~1\AppData\Local\Temp\cchaIJlx.s:20773  .debug_str:0000000000003cef .LASF2396
C:\Users\CYMR90~1\AppData\Local\Temp\cchaIJlx.s:25494  .debug_str:0000000000016dc5 .LASF2397
C:\Users\CYMR90~1\AppData\Local\Temp\cchaIJlx.s:30152  .debug_str:00000000000297ae .LASF2398
C:\Users\CYMR90~1\AppData\Local\Temp\cchaIJlx.s:23599  .debug_str:000000000000f1f5 .LASF2399
C:\Users\CYMR90~1\AppData\Local\Temp\cchaIJlx.s:21665  .debug_str:0000000000007599 .LASF2400
C:\Users\CYMR90~1\AppData\Local\Temp\cchaIJlx.s:22769  .debug_str:000000000000bd6a .LASF2401
C:\Users\CYMR90~1\AppData\Local\Temp\cchaIJlx.s:27398  .debug_str:000000000001e8df .LASF2402
C:\Users\CYMR90~1\AppData\Local\Temp\cchaIJlx.s:20821  .debug_str:0000000000003fe3 .LASF2403
C:\Users\CYMR90~1\AppData\Local\Temp\cchaIJlx.s:20217  .debug_str:0000000000001a64 .LASF2404
C:\Users\CYMR90~1\AppData\Local\Temp\cchaIJlx.s:30204  .debug_str:0000000000029ad3 .LASF2405
C:\Users\CYMR90~1\AppData\Local\Temp\cchaIJlx.s:23661  .debug_str:000000000000f5bf .LASF2406
C:\Users\CYMR90~1\AppData\Local\Temp\cchaIJlx.s:23377  .debug_str:000000000000e439 .LASF2407
C:\Users\CYMR90~1\AppData\Local\Temp\cchaIJlx.s:26578  .debug_str:000000000001b49f .LASF2408
C:\Users\CYMR90~1\AppData\Local\Temp\cchaIJlx.s:29750  .debug_str:0000000000027cb6 .LASF2409
C:\Users\CYMR90~1\AppData\Local\Temp\cchaIJlx.s:21683  .debug_str:00000000000076ce .LASF2410
C:\Users\CYMR90~1\AppData\Local\Temp\cchaIJlx.s:24799  .debug_str:0000000000013f77 .LASF2411
C:\Users\CYMR90~1\AppData\Local\Temp\cchaIJlx.s:27980  .debug_str:0000000000020bfb .LASF2412
C:\Users\CYMR90~1\AppData\Local\Temp\cchaIJlx.s:26000  .debug_str:0000000000018d4e .LASF2413
C:\Users\CYMR90~1\AppData\Local\Temp\cchaIJlx.s:23143  .debug_str:000000000000d669 .LASF2414
C:\Users\CYMR90~1\AppData\Local\Temp\cchaIJlx.s:26356  .debug_str:000000000001a5b4 .LASF2415
C:\Users\CYMR90~1\AppData\Local\Temp\cchaIJlx.s:29512  .debug_str:0000000000026d53 .LASF2416
C:\Users\CYMR90~1\AppData\Local\Temp\cchaIJlx.s:29836  .debug_str:0000000000028328 .LASF2417
C:\Users\CYMR90~1\AppData\Local\Temp\cchaIJlx.s:23279  .debug_str:000000000000de6c .LASF2418
C:\Users\CYMR90~1\AppData\Local\Temp\cchaIJlx.s:27928  .debug_str:00000000000208b2 .LASF2419
C:\Users\CYMR90~1\AppData\Local\Temp\cchaIJlx.s:21327  .debug_str:0000000000006044 .LASF2420
C:\Users\CYMR90~1\AppData\Local\Temp\cchaIJlx.s:26054  .debug_str:000000000001919a .LASF2421
C:\Users\CYMR90~1\AppData\Local\Temp\cchaIJlx.s:26822  .debug_str:000000000001c350 .LASF2422
C:\Users\CYMR90~1\AppData\Local\Temp\cchaIJlx.s:23105  .debug_str:000000000000d424 .LASF2423
C:\Users\CYMR90~1\AppData\Local\Temp\cchaIJlx.s:28806  .debug_str:0000000000023dc5 .LASF2424
C:\Users\CYMR90~1\AppData\Local\Temp\cchaIJlx.s:26908  .debug_str:000000000001c952 .LASF2425
C:\Users\CYMR90~1\AppData\Local\Temp\cchaIJlx.s:28070  .debug_str:00000000000210ea .LASF2426
C:\Users\CYMR90~1\AppData\Local\Temp\cchaIJlx.s:21483  .debug_str:00000000000069cc .LASF2427
C:\Users\CYMR90~1\AppData\Local\Temp\cchaIJlx.s:26192  .debug_str:0000000000019a82 .LASF2428
C:\Users\CYMR90~1\AppData\Local\Temp\cchaIJlx.s:30852  .debug_str:000000000002c3e6 .LASF2429
C:\Users\CYMR90~1\AppData\Local\Temp\cchaIJlx.s:24277  .debug_str:0000000000011d5d .LASF2430
C:\Users\CYMR90~1\AppData\Local\Temp\cchaIJlx.s:28934  .debug_str:00000000000246f1 .LASF2431
C:\Users\CYMR90~1\AppData\Local\Temp\cchaIJlx.s:24481  .debug_str:0000000000012b37 .LASF2432
C:\Users\CYMR90~1\AppData\Local\Temp\cchaIJlx.s:20659  .debug_str:000000000000359f .LASF2433
C:\Users\CYMR90~1\AppData\Local\Temp\cchaIJlx.s:25852  .debug_str:0000000000018377 .LASF2434
C:\Users\CYMR90~1\AppData\Local\Temp\cchaIJlx.s:22217  .debug_str:000000000000996b .LASF2435
C:\Users\CYMR90~1\AppData\Local\Temp\cchaIJlx.s:30612  .debug_str:000000000002b37b .LASF2436
C:\Users\CYMR90~1\AppData\Local\Temp\cchaIJlx.s:29238  .debug_str:0000000000025c54 .LASF2437
C:\Users\CYMR90~1\AppData\Local\Temp\cchaIJlx.s:25273  .debug_str:0000000000015cda .LASF2438
C:\Users\CYMR90~1\AppData\Local\Temp\cchaIJlx.s:25037  .debug_str:0000000000014ecc .LASF2439
C:\Users\CYMR90~1\AppData\Local\Temp\cchaIJlx.s:25415  .debug_str:0000000000016654 .LASF2440
C:\Users\CYMR90~1\AppData\Local\Temp\cchaIJlx.s:22281  .debug_str:0000000000009d4f .LASF2441
C:\Users\CYMR90~1\AppData\Local\Temp\cchaIJlx.s:28912  .debug_str:000000000002459b .LASF2442
C:\Users\CYMR90~1\AppData\Local\Temp\cchaIJlx.s:29968  .debug_str:0000000000028bb1 .LASF2443
C:\Users\CYMR90~1\AppData\Local\Temp\cchaIJlx.s:19913  .debug_str:0000000000000719 .LASF2444
C:\Users\CYMR90~1\AppData\Local\Temp\cchaIJlx.s:21703  .debug_str:0000000000007810 .LASF2445
C:\Users\CYMR90~1\AppData\Local\Temp\cchaIJlx.s:20699  .debug_str:0000000000003846 .LASF2446
C:\Users\CYMR90~1\AppData\Local\Temp\cchaIJlx.s:29132  .debug_str:0000000000025558 .LASF2447
C:\Users\CYMR90~1\AppData\Local\Temp\cchaIJlx.s:24279  .debug_str:0000000000011d72 .LASF2448
C:\Users\CYMR90~1\AppData\Local\Temp\cchaIJlx.s:23053  .debug_str:000000000000d03d .LASF2449
C:\Users\CYMR90~1\AppData\Local\Temp\cchaIJlx.s:27658  .debug_str:000000000001f831 .LASF2450
C:\Users\CYMR90~1\AppData\Local\Temp\cchaIJlx.s:26790  .debug_str:000000000001c187 .LASF2451
C:\Users\CYMR90~1\AppData\Local\Temp\cchaIJlx.s:20745  .debug_str:0000000000003aff .LASF2452
C:\Users\CYMR90~1\AppData\Local\Temp\cchaIJlx.s:29286  .debug_str:0000000000025f77 .LASF2453
C:\Users\CYMR90~1\AppData\Local\Temp\cchaIJlx.s:23027  .debug_str:000000000000ce83 .LASF2454
C:\Users\CYMR90~1\AppData\Local\Temp\cchaIJlx.s:22121  .debug_str:000000000000931b .LASF2455
C:\Users\CYMR90~1\AppData\Local\Temp\cchaIJlx.s:21087  .debug_str:000000000000517d .LASF2456
C:\Users\CYMR90~1\AppData\Local\Temp\cchaIJlx.s:29624  .debug_str:0000000000027462 .LASF2457
C:\Users\CYMR90~1\AppData\Local\Temp\cchaIJlx.s:29924  .debug_str:0000000000028911 .LASF2458
C:\Users\CYMR90~1\AppData\Local\Temp\cchaIJlx.s:24135  .debug_str:000000000001136e .LASF2459
C:\Users\CYMR90~1\AppData\Local\Temp\cchaIJlx.s:28020  .debug_str:0000000000020e1f .LASF2460
C:\Users\CYMR90~1\AppData\Local\Temp\cchaIJlx.s:25195  .debug_str:00000000000157c7 .LASF2461
C:\Users\CYMR90~1\AppData\Local\Temp\cchaIJlx.s:25754  .debug_str:0000000000017da1 .LASF2462
C:\Users\CYMR90~1\AppData\Local\Temp\cchaIJlx.s:24607  .debug_str:00000000000133e7 .LASF2463
C:\Users\CYMR90~1\AppData\Local\Temp\cchaIJlx.s:25093  .debug_str:0000000000015253 .LASF2464
C:\Users\CYMR90~1\AppData\Local\Temp\cchaIJlx.s:23811  .debug_str:000000000000ff78 .LASF2465
C:\Users\CYMR90~1\AppData\Local\Temp\cchaIJlx.s:24089  .debug_str:00000000000110a2 .LASF2466
C:\Users\CYMR90~1\AppData\Local\Temp\cchaIJlx.s:23183  .debug_str:000000000000d8a6 .LASF2467
C:\Users\CYMR90~1\AppData\Local\Temp\cchaIJlx.s:22197  .debug_str:00000000000097bc .LASF2468
C:\Users\CYMR90~1\AppData\Local\Temp\cchaIJlx.s:30610  .debug_str:000000000002b358 .LASF2469
C:\Users\CYMR90~1\AppData\Local\Temp\cchaIJlx.s:22667  .debug_str:000000000000b6a8 .LASF2470
C:\Users\CYMR90~1\AppData\Local\Temp\cchaIJlx.s:29962  .debug_str:0000000000028b54 .LASF2471
C:\Users\CYMR90~1\AppData\Local\Temp\cchaIJlx.s:28698  .debug_str:000000000002377e .LASF2472
C:\Users\CYMR90~1\AppData\Local\Temp\cchaIJlx.s:25580  .debug_str:00000000000172e7 .LASF2473
C:\Users\CYMR90~1\AppData\Local\Temp\cchaIJlx.s:25213  .debug_str:00000000000158fd .LASF2474
C:\Users\CYMR90~1\AppData\Local\Temp\cchaIJlx.s:25341  .debug_str:0000000000016196 .LASF2475
C:\Users\CYMR90~1\AppData\Local\Temp\cchaIJlx.s:29646  .debug_str:00000000000275a2 .LASF2476
C:\Users\CYMR90~1\AppData\Local\Temp\cchaIJlx.s:23043  .debug_str:000000000000cf87 .LASF2477
C:\Users\CYMR90~1\AppData\Local\Temp\cchaIJlx.s:27444  .debug_str:000000000001eb2e .LASF2478
C:\Users\CYMR90~1\AppData\Local\Temp\cchaIJlx.s:21603  .debug_str:00000000000071a4 .LASF2479
C:\Users\CYMR90~1\AppData\Local\Temp\cchaIJlx.s:20051  .debug_str:0000000000001001 .LASF2480
C:\Users\CYMR90~1\AppData\Local\Temp\cchaIJlx.s:26442  .debug_str:000000000001abad .LASF2481
C:\Users\CYMR90~1\AppData\Local\Temp\cchaIJlx.s:22455  .debug_str:000000000000a844 .LASF2482
C:\Users\CYMR90~1\AppData\Local\Temp\cchaIJlx.s:25321  .debug_str:0000000000016060 .LASF2483
C:\Users\CYMR90~1\AppData\Local\Temp\cchaIJlx.s:22767  .debug_str:000000000000bd52 .LASF2484
C:\Users\CYMR90~1\AppData\Local\Temp\cchaIJlx.s:22889  .debug_str:000000000000c4e4 .LASF2485
C:\Users\CYMR90~1\AppData\Local\Temp\cchaIJlx.s:26830  .debug_str:000000000001c3b5 .LASF2486
C:\Users\CYMR90~1\AppData\Local\Temp\cchaIJlx.s:21033  .debug_str:0000000000004e3b .LASF2487
C:\Users\CYMR90~1\AppData\Local\Temp\cchaIJlx.s:26688  .debug_str:000000000001bac7 .LASF2488
C:\Users\CYMR90~1\AppData\Local\Temp\cchaIJlx.s:25199  .debug_str:0000000000015830 .LASF2489
C:\Users\CYMR90~1\AppData\Local\Temp\cchaIJlx.s:30104  .debug_str:00000000000294e2 .LASF2490
C:\Users\CYMR90~1\AppData\Local\Temp\cchaIJlx.s:28304  .debug_str:0000000000021fb3 .LASF2491
C:\Users\CYMR90~1\AppData\Local\Temp\cchaIJlx.s:21001  .debug_str:0000000000004c6d .LASF2492
C:\Users\CYMR90~1\AppData\Local\Temp\cchaIJlx.s:20065  .debug_str:00000000000010d4 .LASF2493
C:\Users\CYMR90~1\AppData\Local\Temp\cchaIJlx.s:30374  .debug_str:000000000002a51e .LASF2494
C:\Users\CYMR90~1\AppData\Local\Temp\cchaIJlx.s:20007  .debug_str:0000000000000d13 .LASF2495
C:\Users\CYMR90~1\AppData\Local\Temp\cchaIJlx.s:21723  .debug_str:0000000000007957 .LASF2496
C:\Users\CYMR90~1\AppData\Local\Temp\cchaIJlx.s:22195  .debug_str:000000000000979c .LASF2497
C:\Users\CYMR90~1\AppData\Local\Temp\cchaIJlx.s:24459  .debug_str:0000000000012a0b .LASF2498
C:\Users\CYMR90~1\AppData\Local\Temp\cchaIJlx.s:22251  .debug_str:0000000000009b98 .LASF2499
C:\Users\CYMR90~1\AppData\Local\Temp\cchaIJlx.s:28318  .debug_str:000000000002209b .LASF2500
C:\Users\CYMR90~1\AppData\Local\Temp\cchaIJlx.s:26700  .debug_str:000000000001bbbb .LASF2501
C:\Users\CYMR90~1\AppData\Local\Temp\cchaIJlx.s:20233  .debug_str:0000000000001b5e .LASF2502
C:\Users\CYMR90~1\AppData\Local\Temp\cchaIJlx.s:27396  .debug_str:000000000001e8bd .LASF2503
C:\Users\CYMR90~1\AppData\Local\Temp\cchaIJlx.s:30946  .debug_str:000000000002c9c6 .LASF2504
C:\Users\CYMR90~1\AppData\Local\Temp\cchaIJlx.s:20243  .debug_str:0000000000001c18 .LASF2505
C:\Users\CYMR90~1\AppData\Local\Temp\cchaIJlx.s:24713  .debug_str:0000000000013a67 .LASF2506
C:\Users\CYMR90~1\AppData\Local\Temp\cchaIJlx.s:28282  .debug_str:0000000000021e57 .LASF2507
C:\Users\CYMR90~1\AppData\Local\Temp\cchaIJlx.s:30722  .debug_str:000000000002bae0 .LASF2508
C:\Users\CYMR90~1\AppData\Local\Temp\cchaIJlx.s:24143  .debug_str:0000000000011412 .LASF2509
C:\Users\CYMR90~1\AppData\Local\Temp\cchaIJlx.s:23487  .debug_str:000000000000eba2 .LASF2510
C:\Users\CYMR90~1\AppData\Local\Temp\cchaIJlx.s:26954  .debug_str:000000000001cc15 .LASF2511
C:\Users\CYMR90~1\AppData\Local\Temp\cchaIJlx.s:26228  .debug_str:0000000000019ca3 .LASF2512
C:\Users\CYMR90~1\AppData\Local\Temp\cchaIJlx.s:21049  .debug_str:0000000000004f3c .LASF2513
C:\Users\CYMR90~1\AppData\Local\Temp\cchaIJlx.s:20961  .debug_str:00000000000049fd .LASF2514
C:\Users\CYMR90~1\AppData\Local\Temp\cchaIJlx.s:30980  .debug_str:000000000002cc3c .LASF2515
C:\Users\CYMR90~1\AppData\Local\Temp\cchaIJlx.s:27564  .debug_str:000000000001f2a4 .LASF2516
C:\Users\CYMR90~1\AppData\Local\Temp\cchaIJlx.s:21879  .debug_str:0000000000008486 .LASF2517
C:\Users\CYMR90~1\AppData\Local\Temp\cchaIJlx.s:21867  .debug_str:00000000000083e5 .LASF2518
C:\Users\CYMR90~1\AppData\Local\Temp\cchaIJlx.s:29174  .debug_str:0000000000025874 .LASF2519
C:\Users\CYMR90~1\AppData\Local\Temp\cchaIJlx.s:24101  .debug_str:0000000000011165 .LASF2520
C:\Users\CYMR90~1\AppData\Local\Temp\cchaIJlx.s:25339  .debug_str:0000000000016172 .LASF2521
C:\Users\CYMR90~1\AppData\Local\Temp\cchaIJlx.s:26646  .debug_str:000000000001b8b4 .LASF2522
C:\Users\CYMR90~1\AppData\Local\Temp\cchaIJlx.s:29900  .debug_str:000000000002879f .LASF2523
C:\Users\CYMR90~1\AppData\Local\Temp\cchaIJlx.s:28160  .debug_str:0000000000021701 .LASF2524
C:\Users\CYMR90~1\AppData\Local\Temp\cchaIJlx.s:27196  .debug_str:000000000001dc65 .LASF2525
C:\Users\CYMR90~1\AppData\Local\Temp\cchaIJlx.s:26204  .debug_str:0000000000019b57 .LASF2526
C:\Users\CYMR90~1\AppData\Local\Temp\cchaIJlx.s:25297  .debug_str:0000000000015e9d .LASF2527
C:\Users\CYMR90~1\AppData\Local\Temp\cchaIJlx.s:24363  .debug_str:0000000000012394 .LASF2528
C:\Users\CYMR90~1\AppData\Local\Temp\cchaIJlx.s:28544  .debug_str:0000000000022e0b .LASF2529
C:\Users\CYMR90~1\AppData\Local\Temp\cchaIJlx.s:25127  .debug_str:0000000000015420 .LASF2530
C:\Users\CYMR90~1\AppData\Local\Temp\cchaIJlx.s:20883  .debug_str:0000000000004456 .LASF2531
C:\Users\CYMR90~1\AppData\Local\Temp\cchaIJlx.s:20597  .debug_str:000000000000316c .LASF2532
C:\Users\CYMR90~1\AppData\Local\Temp\cchaIJlx.s:22123  .debug_str:000000000000933d .LASF2533
C:\Users\CYMR90~1\AppData\Local\Temp\cchaIJlx.s:20003  .debug_str:0000000000000cdc .LASF2534
C:\Users\CYMR90~1\AppData\Local\Temp\cchaIJlx.s:23275  .debug_str:000000000000de2e .LASF2535
C:\Users\CYMR90~1\AppData\Local\Temp\cchaIJlx.s:21937  .debug_str:00000000000087f5 .LASF2536
C:\Users\CYMR90~1\AppData\Local\Temp\cchaIJlx.s:20293  .debug_str:0000000000001f0a .LASF2537
C:\Users\CYMR90~1\AppData\Local\Temp\cchaIJlx.s:22731  .debug_str:000000000000baa7 .LASF2538
C:\Users\CYMR90~1\AppData\Local\Temp\cchaIJlx.s:20105  .debug_str:0000000000001306 .LASF2539
C:\Users\CYMR90~1\AppData\Local\Temp\cchaIJlx.s:26328  .debug_str:000000000001a42f .LASF2540
C:\Users\CYMR90~1\AppData\Local\Temp\cchaIJlx.s:26114  .debug_str:000000000001952e .LASF2541
C:\Users\CYMR90~1\AppData\Local\Temp\cchaIJlx.s:24635  .debug_str:00000000000135b8 .LASF2542
C:\Users\CYMR90~1\AppData\Local\Temp\cchaIJlx.s:29802  .debug_str:00000000000280e5 .LASF2543
C:\Users\CYMR90~1\AppData\Local\Temp\cchaIJlx.s:22321  .debug_str:0000000000009fe0 .LASF2544
C:\Users\CYMR90~1\AppData\Local\Temp\cchaIJlx.s:26370  .debug_str:000000000001a6a1 .LASF2545
C:\Users\CYMR90~1\AppData\Local\Temp\cchaIJlx.s:27002  .debug_str:000000000001d047 .LASF2546
C:\Users\CYMR90~1\AppData\Local\Temp\cchaIJlx.s:25516  .debug_str:0000000000016f2c .LASF2547
C:\Users\CYMR90~1\AppData\Local\Temp\cchaIJlx.s:29402  .debug_str:00000000000266a6 .LASF2548
C:\Users\CYMR90~1\AppData\Local\Temp\cchaIJlx.s:24577  .debug_str:0000000000013195 .LASF2549
C:\Users\CYMR90~1\AppData\Local\Temp\cchaIJlx.s:19871  .debug_str:000000000000048b .LASF2550
C:\Users\CYMR90~1\AppData\Local\Temp\cchaIJlx.s:20357  .debug_str:0000000000002273 .LASF2551
C:\Users\CYMR90~1\AppData\Local\Temp\cchaIJlx.s:25157  .debug_str:0000000000015598 .LASF2552
C:\Users\CYMR90~1\AppData\Local\Temp\cchaIJlx.s:19991  .debug_str:0000000000000c3b .LASF2553
C:\Users\CYMR90~1\AppData\Local\Temp\cchaIJlx.s:27102  .debug_str:000000000001d6f5 .LASF2554
C:\Users\CYMR90~1\AppData\Local\Temp\cchaIJlx.s:22445  .debug_str:000000000000a7bc .LASF2555
C:\Users\CYMR90~1\AppData\Local\Temp\cchaIJlx.s:28982  .debug_str:0000000000024a6d .LASF2556
C:\Users\CYMR90~1\AppData\Local\Temp\cchaIJlx.s:21147  .debug_str:000000000000553b .LASF2557
C:\Users\CYMR90~1\AppData\Local\Temp\cchaIJlx.s:20747  .debug_str:0000000000003b21 .LASF2558
C:\Users\CYMR90~1\AppData\Local\Temp\cchaIJlx.s:24843  .debug_str:0000000000014260 .LASF2559
C:\Users\CYMR90~1\AppData\Local\Temp\cchaIJlx.s:22803  .debug_str:000000000000bfb8 .LASF2560
C:\Users\CYMR90~1\AppData\Local\Temp\cchaIJlx.s:27552  .debug_str:000000000001f1e9 .LASF2561
C:\Users\CYMR90~1\AppData\Local\Temp\cchaIJlx.s:23359  .debug_str:000000000000e31d .LASF2562
C:\Users\CYMR90~1\AppData\Local\Temp\cchaIJlx.s:27368  .debug_str:000000000001e6e5 .LASF2563
C:\Users\CYMR90~1\AppData\Local\Temp\cchaIJlx.s:30930  .debug_str:000000000002c8f0 .LASF2564
C:\Users\CYMR90~1\AppData\Local\Temp\cchaIJlx.s:21265  .debug_str:0000000000005c56 .LASF2565
C:\Users\CYMR90~1\AppData\Local\Temp\cchaIJlx.s:26354  .debug_str:000000000001a596 .LASF2566
C:\Users\CYMR90~1\AppData\Local\Temp\cchaIJlx.s:22531  .debug_str:000000000000acfc .LASF2567
C:\Users\CYMR90~1\AppData\Local\Temp\cchaIJlx.s:29110  .debug_str:0000000000025399 .LASF2568
C:\Users\CYMR90~1\AppData\Local\Temp\cchaIJlx.s:20545  .debug_str:0000000000002e1d .LASF2569
C:\Users\CYMR90~1\AppData\Local\Temp\cchaIJlx.s:30810  .debug_str:000000000002c0fd .LASF2570
C:\Users\CYMR90~1\AppData\Local\Temp\cchaIJlx.s:20139  .debug_str:000000000000150f .LASF2571
C:\Users\CYMR90~1\AppData\Local\Temp\cchaIJlx.s:28310  .debug_str:000000000002200a .LASF2572
C:\Users\CYMR90~1\AppData\Local\Temp\cchaIJlx.s:28320  .debug_str:00000000000220bf .LASF2573
C:\Users\CYMR90~1\AppData\Local\Temp\cchaIJlx.s:24735  .debug_str:0000000000013bc5 .LASF2574
C:\Users\CYMR90~1\AppData\Local\Temp\cchaIJlx.s:24523  .debug_str:0000000000012e0c .LASF2575
C:\Users\CYMR90~1\AppData\Local\Temp\cchaIJlx.s:27362  .debug_str:000000000001e67a .LASF2576
C:\Users\CYMR90~1\AppData\Local\Temp\cchaIJlx.s:22657  .debug_str:000000000000b5e3 .LASF2577
C:\Users\CYMR90~1\AppData\Local\Temp\cchaIJlx.s:21537  .debug_str:0000000000006d34 .LASF2578
C:\Users\CYMR90~1\AppData\Local\Temp\cchaIJlx.s:27656  .debug_str:000000000001f803 .LASF2579
C:\Users\CYMR90~1\AppData\Local\Temp\cchaIJlx.s:30160  .debug_str:0000000000029815 .LASF2580
C:\Users\CYMR90~1\AppData\Local\Temp\cchaIJlx.s:25666  .debug_str:0000000000017852 .LASF2581
C:\Users\CYMR90~1\AppData\Local\Temp\cchaIJlx.s:27016  .debug_str:000000000001d132 .LASF2582
C:\Users\CYMR90~1\AppData\Local\Temp\cchaIJlx.s:24903  .debug_str:000000000001463d .LASF2583
C:\Users\CYMR90~1\AppData\Local\Temp\cchaIJlx.s:23185  .debug_str:000000000000d8c9 .LASF2584
C:\Users\CYMR90~1\AppData\Local\Temp\cchaIJlx.s:26534  .debug_str:000000000001b1ca .LASF2585
C:\Users\CYMR90~1\AppData\Local\Temp\cchaIJlx.s:30530  .debug_str:000000000002ae2c .LASF2586
C:\Users\CYMR90~1\AppData\Local\Temp\cchaIJlx.s:21061  .debug_str:0000000000004fec .LASF2587
C:\Users\CYMR90~1\AppData\Local\Temp\cchaIJlx.s:21695  .debug_str:000000000000778a .LASF2588
C:\Users\CYMR90~1\AppData\Local\Temp\cchaIJlx.s:29976  .debug_str:0000000000028c57 .LASF2589
C:\Users\CYMR90~1\AppData\Local\Temp\cchaIJlx.s:26040  .debug_str:00000000000190a2 .LASF2590
C:\Users\CYMR90~1\AppData\Local\Temp\cchaIJlx.s:29050  .debug_str:0000000000024ea7 .LASF2591
C:\Users\CYMR90~1\AppData\Local\Temp\cchaIJlx.s:23035  .debug_str:000000000000cef9 .LASF2592
C:\Users\CYMR90~1\AppData\Local\Temp\cchaIJlx.s:28216  .debug_str:0000000000021a4d .LASF2593
C:\Users\CYMR90~1\AppData\Local\Temp\cchaIJlx.s:28468  .debug_str:0000000000022954 .LASF2594
C:\Users\CYMR90~1\AppData\Local\Temp\cchaIJlx.s:24129  .debug_str:0000000000011324 .LASF2595
C:\Users\CYMR90~1\AppData\Local\Temp\cchaIJlx.s:20729  .debug_str:0000000000003a23 .LASF2596
C:\Users\CYMR90~1\AppData\Local\Temp\cchaIJlx.s:25994  .debug_str:0000000000018cc0 .LASF2597
C:\Users\CYMR90~1\AppData\Local\Temp\cchaIJlx.s:19923  .debug_str:00000000000007c2 .LASF2598
C:\Users\CYMR90~1\AppData\Local\Temp\cchaIJlx.s:27752  .debug_str:000000000001fe41 .LASF2599
C:\Users\CYMR90~1\AppData\Local\Temp\cchaIJlx.s:29890  .debug_str:00000000000286de .LASF2600
C:\Users\CYMR90~1\AppData\Local\Temp\cchaIJlx.s:21835  .debug_str:000000000000819e .LASF2601
C:\Users\CYMR90~1\AppData\Local\Temp\cchaIJlx.s:19881  .debug_str:0000000000000508 .LASF2602
C:\Users\CYMR90~1\AppData\Local\Temp\cchaIJlx.s:28212  .debug_str:0000000000021a11 .LASF2603
C:\Users\CYMR90~1\AppData\Local\Temp\cchaIJlx.s:20053  .debug_str:0000000000001013 .LASF2604
C:\Users\CYMR90~1\AppData\Local\Temp\cchaIJlx.s:23287  .debug_str:000000000000dedd .LASF2605
C:\Users\CYMR90~1\AppData\Local\Temp\cchaIJlx.s:26500  .debug_str:000000000001afad .LASF2606
C:\Users\CYMR90~1\AppData\Local\Temp\cchaIJlx.s:29648  .debug_str:00000000000275b5 .LASF2607
C:\Users\CYMR90~1\AppData\Local\Temp\cchaIJlx.s:21581  .debug_str:0000000000007017 .LASF2608
C:\Users\CYMR90~1\AppData\Local\Temp\cchaIJlx.s:24791  .debug_str:0000000000013ee8 .LASF2609
C:\Users\CYMR90~1\AppData\Local\Temp\cchaIJlx.s:21259  .debug_str:0000000000005bfc .LASF2610
C:\Users\CYMR90~1\AppData\Local\Temp\cchaIJlx.s:25990  .debug_str:0000000000018c98 .LASF2611
C:\Users\CYMR90~1\AppData\Local\Temp\cchaIJlx.s:30656  .debug_str:000000000002b698 .LASF2612
C:\Users\CYMR90~1\AppData\Local\Temp\cchaIJlx.s:24081  .debug_str:0000000000011029 .LASF2613
C:\Users\CYMR90~1\AppData\Local\Temp\cchaIJlx.s:28734  .debug_str:000000000002398a .LASF2614
C:\Users\CYMR90~1\AppData\Local\Temp\cchaIJlx.s:22173  .debug_str:000000000000965d .LASF2615
C:\Users\CYMR90~1\AppData\Local\Temp\cchaIJlx.s:22543  .debug_str:000000000000ae85 .LASF2616
C:\Users\CYMR90~1\AppData\Local\Temp\cchaIJlx.s:23193  .debug_str:000000000000d959 .LASF2617
C:\Users\CYMR90~1\AppData\Local\Temp\cchaIJlx.s:28462  .debug_str:00000000000228ee .LASF2618
C:\Users\CYMR90~1\AppData\Local\Temp\cchaIJlx.s:25720  .debug_str:0000000000017ba3 .LASF2619
C:\Users\CYMR90~1\AppData\Local\Temp\cchaIJlx.s:20979  .debug_str:0000000000004b07 .LASF2620
C:\Users\CYMR90~1\AppData\Local\Temp\cchaIJlx.s:22413  .debug_str:000000000000a5a9 .LASF2621
C:\Users\CYMR90~1\AppData\Local\Temp\cchaIJlx.s:27580  .debug_str:000000000001f3a1 .LASF2622
C:\Users\CYMR90~1\AppData\Local\Temp\cchaIJlx.s:21551  .debug_str:0000000000006e3f .LASF2623
C:\Users\CYMR90~1\AppData\Local\Temp\cchaIJlx.s:26704  .debug_str:000000000001bc08 .LASF2624
C:\Users\CYMR90~1\AppData\Local\Temp\cchaIJlx.s:27314  .debug_str:000000000001e384 .LASF2625
C:\Users\CYMR90~1\AppData\Local\Temp\cchaIJlx.s:22641  .debug_str:000000000000b4d4 .LASF2626
C:\Users\CYMR90~1\AppData\Local\Temp\cchaIJlx.s:27822  .debug_str:0000000000020209 .LASF2627
C:\Users\CYMR90~1\AppData\Local\Temp\cchaIJlx.s:21789  .debug_str:0000000000007e16 .LASF2628
C:\Users\CYMR90~1\AppData\Local\Temp\cchaIJlx.s:26920  .debug_str:000000000001c9f2 .LASF2629
C:\Users\CYMR90~1\AppData\Local\Temp\cchaIJlx.s:20843  .debug_str:00000000000041d6 .LASF2630
C:\Users\CYMR90~1\AppData\Local\Temp\cchaIJlx.s:28712  .debug_str:000000000002385e .LASF2631
C:\Users\CYMR90~1\AppData\Local\Temp\cchaIJlx.s:26020  .debug_str:0000000000018e8b .LASF2632
C:\Users\CYMR90~1\AppData\Local\Temp\cchaIJlx.s:20319  .debug_str:0000000000002078 .LASF2633
C:\Users\CYMR90~1\AppData\Local\Temp\cchaIJlx.s:20665  .debug_str:00000000000035e8 .LASF2634
C:\Users\CYMR90~1\AppData\Local\Temp\cchaIJlx.s:29178  .debug_str:00000000000258b7 .LASF2635
C:\Users\CYMR90~1\AppData\Local\Temp\cchaIJlx.s:26558  .debug_str:000000000001b361 .LASF2636
C:\Users\CYMR90~1\AppData\Local\Temp\cchaIJlx.s:25708  .debug_str:0000000000017b04 .LASF2637
C:\Users\CYMR90~1\AppData\Local\Temp\cchaIJlx.s:30838  .debug_str:000000000002c308 .LASF2638
C:\Users\CYMR90~1\AppData\Local\Temp\cchaIJlx.s:24789  .debug_str:0000000000013ece .LASF2639
C:\Users\CYMR90~1\AppData\Local\Temp\cchaIJlx.s:30000  .debug_str:0000000000028db5 .LASF2640
C:\Users\CYMR90~1\AppData\Local\Temp\cchaIJlx.s:23891  .debug_str:0000000000010490 .LASF2641
C:\Users\CYMR90~1\AppData\Local\Temp\cchaIJlx.s:26458  .debug_str:000000000001ac9c .LASF2642
C:\Users\CYMR90~1\AppData\Local\Temp\cchaIJlx.s:20353  .debug_str:0000000000002241 .LASF2643
C:\Users\CYMR90~1\AppData\Local\Temp\cchaIJlx.s:25508  .debug_str:0000000000016ebd .LASF2644
C:\Users\CYMR90~1\AppData\Local\Temp\cchaIJlx.s:24823  .debug_str:0000000000014132 .LASF2645
C:\Users\CYMR90~1\AppData\Local\Temp\cchaIJlx.s:24591  .debug_str:000000000001329f .LASF2646
C:\Users\CYMR90~1\AppData\Local\Temp\cchaIJlx.s:23491  .debug_str:000000000000ebd3 .LASF2647
C:\Users\CYMR90~1\AppData\Local\Temp\cchaIJlx.s:30532  .debug_str:000000000002ae44 .LASF2648
C:\Users\CYMR90~1\AppData\Local\Temp\cchaIJlx.s:22485  .debug_str:000000000000a9f0 .LASF2649
C:\Users\CYMR90~1\AppData\Local\Temp\cchaIJlx.s:25664  .debug_str:0000000000017839 .LASF2650
C:\Users\CYMR90~1\AppData\Local\Temp\cchaIJlx.s:28860  .debug_str:000000000002423a .LASF2651
C:\Users\CYMR90~1\AppData\Local\Temp\cchaIJlx.s:20769  .debug_str:0000000000003cb8 .LASF2652
C:\Users\CYMR90~1\AppData\Local\Temp\cchaIJlx.s:24015  .debug_str:0000000000010ca5 .LASF2653
C:\Users\CYMR90~1\AppData\Local\Temp\cchaIJlx.s:27174  .debug_str:000000000001db22 .LASF2654
C:\Users\CYMR90~1\AppData\Local\Temp\cchaIJlx.s:30286  .debug_str:0000000000029fa2 .LASF2655
C:\Users\CYMR90~1\AppData\Local\Temp\cchaIJlx.s:22247  .debug_str:0000000000009b63 .LASF2656
C:\Users\CYMR90~1\AppData\Local\Temp\cchaIJlx.s:25433  .debug_str:0000000000016764 .LASF2657
C:\Users\CYMR90~1\AppData\Local\Temp\cchaIJlx.s:27400  .debug_str:000000000001e8fa .LASF2658
C:\Users\CYMR90~1\AppData\Local\Temp\cchaIJlx.s:20823  .debug_str:0000000000003ffe .LASF2659
C:\Users\CYMR90~1\AppData\Local\Temp\cchaIJlx.s:25540  .debug_str:0000000000017086 .LASF2660
C:\Users\CYMR90~1\AppData\Local\Temp\cchaIJlx.s:30206  .debug_str:0000000000029aee .LASF2661
C:\Users\CYMR90~1\AppData\Local\Temp\cchaIJlx.s:23663  .debug_str:000000000000f5da .LASF2662
C:\Users\CYMR90~1\AppData\Local\Temp\cchaIJlx.s:28298  .debug_str:0000000000021f69 .LASF2663
C:\Users\CYMR90~1\AppData\Local\Temp\cchaIJlx.s:21709  .debug_str:0000000000007881 .LASF2664
C:\Users\CYMR90~1\AppData\Local\Temp\cchaIJlx.s:24917  .debug_str:0000000000014718 .LASF2665
C:\Users\CYMR90~1\AppData\Local\Temp\cchaIJlx.s:28008  .debug_str:0000000000020d83 .LASF2666
C:\Users\CYMR90~1\AppData\Local\Temp\cchaIJlx.s:19955  .debug_str:00000000000009a4 .LASF2667
C:\Users\CYMR90~1\AppData\Local\Temp\cchaIJlx.s:23173  .debug_str:000000000000d81c .LASF2668
C:\Users\CYMR90~1\AppData\Local\Temp\cchaIJlx.s:26388  .debug_str:000000000001a858 .LASF2669
C:\Users\CYMR90~1\AppData\Local\Temp\cchaIJlx.s:29534  .debug_str:0000000000026e79 .LASF2670
C:\Users\CYMR90~1\AppData\Local\Temp\cchaIJlx.s:21471  .debug_str:000000000000691d .LASF2671
C:\Users\CYMR90~1\AppData\Local\Temp\cchaIJlx.s:24689  .debug_str:000000000001390b .LASF2672
C:\Users\CYMR90~1\AppData\Local\Temp\cchaIJlx.s:27868  .debug_str:000000000002054e .LASF2673
C:\Users\CYMR90~1\AppData\Local\Temp\cchaIJlx.s:25227  .debug_str:00000000000159c9 .LASF2674
C:\Users\CYMR90~1\AppData\Local\Temp\cchaIJlx.s:29904  .debug_str:00000000000287d1 .LASF2675
C:\Users\CYMR90~1\AppData\Local\Temp\cchaIJlx.s:23343  .debug_str:000000000000e246 .LASF2676
C:\Users\CYMR90~1\AppData\Local\Temp\cchaIJlx.s:21411  .debug_str:0000000000006559 .LASF2677
C:\Users\CYMR90~1\AppData\Local\Temp\cchaIJlx.s:26126  .debug_str:00000000000195da .LASF2678
C:\Users\CYMR90~1\AppData\Local\Temp\cchaIJlx.s:24647  .debug_str:000000000001368c .LASF2679
C:\Users\CYMR90~1\AppData\Local\Temp\cchaIJlx.s:27812  .debug_str:000000000002017e .LASF2680
C:\Users\CYMR90~1\AppData\Local\Temp\cchaIJlx.s:31022  .debug_str:000000000002cec0 .LASF2681
C:\Users\CYMR90~1\AppData\Local\Temp\cchaIJlx.s:26794  .debug_str:000000000001c1bd .LASF2682
C:\Users\CYMR90~1\AppData\Local\Temp\cchaIJlx.s:28842  .debug_str:0000000000024101 .LASF2683
C:\Users\CYMR90~1\AppData\Local\Temp\cchaIJlx.s:29252  .debug_str:0000000000025d23 .LASF2684
C:\Users\CYMR90~1\AppData\Local\Temp\cchaIJlx.s:23179  .debug_str:000000000000d86c .LASF2685
C:\Users\CYMR90~1\AppData\Local\Temp\cchaIJlx.s:24415  .debug_str:00000000000126fb .LASF2686
C:\Users\CYMR90~1\AppData\Local\Temp\cchaIJlx.s:27554  .debug_str:000000000001f20e .LASF2687
C:\Users\CYMR90~1\AppData\Local\Temp\cchaIJlx.s:30790  .debug_str:000000000002bf95 .LASF2688
C:\Users\CYMR90~1\AppData\Local\Temp\cchaIJlx.s:28300  .debug_str:0000000000021f84 .LASF2689
C:\Users\CYMR90~1\AppData\Local\Temp\cchaIJlx.s:30260  .debug_str:0000000000029e1c .LASF2690
C:\Users\CYMR90~1\AppData\Local\Temp\cchaIJlx.s:20743  .debug_str:0000000000003ae8 .LASF2691
C:\Users\CYMR90~1\AppData\Local\Temp\cchaIJlx.s:25457  .debug_str:000000000001693c .LASF2692
C:\Users\CYMR90~1\AppData\Local\Temp\cchaIJlx.s:30126  .debug_str:0000000000029661 .LASF2693
C:\Users\CYMR90~1\AppData\Local\Temp\cchaIJlx.s:23577  .debug_str:000000000000f090 .LASF2694
C:\Users\CYMR90~1\AppData\Local\Temp\cchaIJlx.s:25423  .debug_str:00000000000166df .LASF2695
C:\Users\CYMR90~1\AppData\Local\Temp\cchaIJlx.s:30094  .debug_str:0000000000029408 .LASF2696
C:\Users\CYMR90~1\AppData\Local\Temp\cchaIJlx.s:23551  .debug_str:000000000000ef0c .LASF2697
C:\Users\CYMR90~1\AppData\Local\Temp\cchaIJlx.s:28190  .debug_str:000000000002188e .LASF2698
C:\Users\CYMR90~1\AppData\Local\Temp\cchaIJlx.s:24699  .debug_str:00000000000139a2 .LASF2699
C:\Users\CYMR90~1\AppData\Local\Temp\cchaIJlx.s:20259  .debug_str:0000000000001cf9 .LASF2700
C:\Users\CYMR90~1\AppData\Local\Temp\cchaIJlx.s:24959  .debug_str:000000000001495d .LASF2701
C:\Users\CYMR90~1\AppData\Local\Temp\cchaIJlx.s:29630  .debug_str:00000000000274a9 .LASF2702
C:\Users\CYMR90~1\AppData\Local\Temp\cchaIJlx.s:23073  .debug_str:000000000000d1c9 .LASF2703
C:\Users\CYMR90~1\AppData\Local\Temp\cchaIJlx.s:27712  .debug_str:000000000001fb7b .LASF2704
C:\Users\CYMR90~1\AppData\Local\Temp\cchaIJlx.s:22703  .debug_str:000000000000b91a .LASF2705
C:\Users\CYMR90~1\AppData\Local\Temp\cchaIJlx.s:27348  .debug_str:000000000001e576 .LASF2706
C:\Users\CYMR90~1\AppData\Local\Temp\cchaIJlx.s:20759  .debug_str:0000000000003bed .LASF2707
C:\Users\CYMR90~1\AppData\Local\Temp\cchaIJlx.s:25473  .debug_str:0000000000016ae1 .LASF2708
C:\Users\CYMR90~1\AppData\Local\Temp\cchaIJlx.s:22089  .debug_str:000000000000913d .LASF2709
C:\Users\CYMR90~1\AppData\Local\Temp\cchaIJlx.s:28814  .debug_str:0000000000023e3e .LASF2710
C:\Users\CYMR90~1\AppData\Local\Temp\cchaIJlx.s:20269  .debug_str:0000000000001d97 .LASF2711
C:\Users\CYMR90~1\AppData\Local\Temp\cchaIJlx.s:23513  .debug_str:000000000000ecec .LASF2712
C:\Users\CYMR90~1\AppData\Local\Temp\cchaIJlx.s:29588  .debug_str:000000000002726a .LASF2713
C:\Users\CYMR90~1\AppData\Local\Temp\cchaIJlx.s:29880  .debug_str:000000000002864a .LASF2714
C:\Users\CYMR90~1\AppData\Local\Temp\cchaIJlx.s:21717  .debug_str:00000000000078f0 .LASF2715
C:\Users\CYMR90~1\AppData\Local\Temp\cchaIJlx.s:24925  .debug_str:0000000000014781 .LASF2716
C:\Users\CYMR90~1\AppData\Local\Temp\cchaIJlx.s:22257  .debug_str:0000000000009bdf .LASF2717
C:\Users\CYMR90~1\AppData\Local\Temp\cchaIJlx.s:20041  .debug_str:0000000000000f77 .LASF2718
C:\Users\CYMR90~1\AppData\Local\Temp\cchaIJlx.s:23271  .debug_str:000000000000de02 .LASF2719
C:\Users\CYMR90~1\AppData\Local\Temp\cchaIJlx.s:21813  .debug_str:0000000000007fbb .LASF2720
C:\Users\CYMR90~1\AppData\Local\Temp\cchaIJlx.s:25770  .debug_str:0000000000017ec2 .LASF2721
C:\Users\CYMR90~1\AppData\Local\Temp\cchaIJlx.s:30442  .debug_str:000000000002a91a .LASF2722
C:\Users\CYMR90~1\AppData\Local\Temp\cchaIJlx.s:23889  .debug_str:0000000000010479 .LASF2723
C:\Users\CYMR90~1\AppData\Local\Temp\cchaIJlx.s:28542  .debug_str:0000000000022df4 .LASF2724
C:\Users\CYMR90~1\AppData\Local\Temp\cchaIJlx.s:29144  .debug_str:0000000000025626 .LASF2725
C:\Users\CYMR90~1\AppData\Local\Temp\cchaIJlx.s:26656  .debug_str:000000000001b91c .LASF2726
C:\Users\CYMR90~1\AppData\Local\Temp\cchaIJlx.s:24067  .debug_str:0000000000010f4b .LASF2727
C:\Users\CYMR90~1\AppData\Local\Temp\cchaIJlx.s:30310  .debug_str:000000000002a0e2 .LASF2728
C:\Users\CYMR90~1\AppData\Local\Temp\cchaIJlx.s:26280  .debug_str:0000000000019fb5 .LASF2729
C:\Users\CYMR90~1\AppData\Local\Temp\cchaIJlx.s:21911  .debug_str:000000000000865d .LASF2730
C:\Users\CYMR90~1\AppData\Local\Temp\cchaIJlx.s:22865  .debug_str:000000000000c361 .LASF2731
C:\Users\CYMR90~1\AppData\Local\Temp\cchaIJlx.s:30326  .debug_str:000000000002a1f1 .LASF2732
C:\Users\CYMR90~1\AppData\Local\Temp\cchaIJlx.s:20675  .debug_str:000000000000369b .LASF2733
C:\Users\CYMR90~1\AppData\Local\Temp\cchaIJlx.s:25604  .debug_str:0000000000017434 .LASF2734
C:\Users\CYMR90~1\AppData\Local\Temp\cchaIJlx.s:21039  .debug_str:0000000000004ea7 .LASF2735
C:\Users\CYMR90~1\AppData\Local\Temp\cchaIJlx.s:24409  .debug_str:0000000000012698 .LASF2736
C:\Users\CYMR90~1\AppData\Local\Temp\cchaIJlx.s:21083  .debug_str:0000000000005147 .LASF2737
C:\Users\CYMR90~1\AppData\Local\Temp\cchaIJlx.s:27878  .debug_str:00000000000205c6 .LASF2738
C:\Users\CYMR90~1\AppData\Local\Temp\cchaIJlx.s:24685  .debug_str:00000000000138e5 .LASF2739
C:\Users\CYMR90~1\AppData\Local\Temp\cchaIJlx.s:23481  .debug_str:000000000000eb37 .LASF2740
C:\Users\CYMR90~1\AppData\Local\Temp\cchaIJlx.s:22535  .debug_str:000000000000ad51 .LASF2741
C:\Users\CYMR90~1\AppData\Local\Temp\cchaIJlx.s:20103  .debug_str:00000000000012e8 .LASF2742
C:\Users\CYMR90~1\AppData\Local\Temp\cchaIJlx.s:22899  .debug_str:000000000000c56d .LASF2743
C:\Users\CYMR90~1\AppData\Local\Temp\cchaIJlx.s:24693  .debug_str:0000000000013946 .LASF2744
C:\Users\CYMR90~1\AppData\Local\Temp\cchaIJlx.s:27874  .debug_str:000000000002059e .LASF2745
C:\Users\CYMR90~1\AppData\Local\Temp\cchaIJlx.s:19827  .debug_str:000000000000020a .LASF2746
C:\Users\CYMR90~1\AppData\Local\Temp\cchaIJlx.s:23033  .debug_str:000000000000cee6 .LASF2747
C:\Users\CYMR90~1\AppData\Local\Temp\cchaIJlx.s:26232  .debug_str:0000000000019cf9 .LASF2748
C:\Users\CYMR90~1\AppData\Local\Temp\cchaIJlx.s:20019  .debug_str:0000000000000dc1 .LASF2749
C:\Users\CYMR90~1\AppData\Local\Temp\cchaIJlx.s:21225  .debug_str:00000000000059d2 .LASF2750
C:\Users\CYMR90~1\AppData\Local\Temp\cchaIJlx.s:28034  .debug_str:0000000000020ed4 .LASF2751
C:\Users\CYMR90~1\AppData\Local\Temp\cchaIJlx.s:26466  .debug_str:000000000001ad20 .LASF2752
C:\Users\CYMR90~1\AppData\Local\Temp\cchaIJlx.s:30846  .debug_str:000000000002c38b .LASF2753
C:\Users\CYMR90~1\AppData\Local\Temp\cchaIJlx.s:20133  .debug_str:00000000000014d9 .LASF2754
C:\Users\CYMR90~1\AppData\Local\Temp\cchaIJlx.s:24833  .debug_str:00000000000141d3 .LASF2755
C:\Users\CYMR90~1\AppData\Local\Temp\cchaIJlx.s:29506  .debug_str:0000000000026ceb .LASF2756
C:\Users\CYMR90~1\AppData\Local\Temp\cchaIJlx.s:30524  .debug_str:000000000002adca .LASF2757
C:\Users\CYMR90~1\AppData\Local\Temp\cchaIJlx.s:26796  .debug_str:000000000001c1d2 .LASF2758
C:\Users\CYMR90~1\AppData\Local\Temp\cchaIJlx.s:23081  .debug_str:000000000000d221 .LASF2759
C:\Users\CYMR90~1\AppData\Local\Temp\cchaIJlx.s:28336  .debug_str:00000000000221b1 .LASF2760
C:\Users\CYMR90~1\AppData\Local\Temp\cchaIJlx.s:20251  .debug_str:0000000000001c85 .LASF2761
C:\Users\CYMR90~1\AppData\Local\Temp\cchaIJlx.s:23497  .debug_str:000000000000ec1e .LASF2762
C:\Users\CYMR90~1\AppData\Local\Temp\cchaIJlx.s:26678  .debug_str:000000000001ba40 .LASF2763
C:\Users\CYMR90~1\AppData\Local\Temp\cchaIJlx.s:29772  .debug_str:0000000000027e77 .LASF2764
C:\Users\CYMR90~1\AppData\Local\Temp\cchaIJlx.s:28180  .debug_str:00000000000217fe .LASF2765
C:\Users\CYMR90~1\AppData\Local\Temp\cchaIJlx.s:24911  .debug_str:00000000000146c8 .LASF2766
C:\Users\CYMR90~1\AppData\Local\Temp\cchaIJlx.s:24951  .debug_str:00000000000148f9 .LASF2767
C:\Users\CYMR90~1\AppData\Local\Temp\cchaIJlx.s:20033  .debug_str:0000000000000f18 .LASF2768
C:\Users\CYMR90~1\AppData\Local\Temp\cchaIJlx.s:23255  .debug_str:000000000000dd09 .LASF2769
C:\Users\CYMR90~1\AppData\Local\Temp\cchaIJlx.s:25481  .debug_str:0000000000016b5b .LASF2770
C:\Users\CYMR90~1\AppData\Local\Temp\cchaIJlx.s:28334  .debug_str:000000000002219c .LASF2771
C:\Users\CYMR90~1\AppData\Local\Temp\cchaIJlx.s:23597  .debug_str:000000000000f1e0 .LASF2772
C:\Users\CYMR90~1\AppData\Local\Temp\cchaIJlx.s:28238  .debug_str:0000000000021be8 .LASF2773
C:\Users\CYMR90~1\AppData\Local\Temp\cchaIJlx.s:28402  .debug_str:000000000002258b .LASF2774
C:\Users\CYMR90~1\AppData\Local\Temp\cchaIJlx.s:26380  .debug_str:000000000001a7f2 .LASF2775
C:\Users\CYMR90~1\AppData\Local\Temp\cchaIJlx.s:25632  .debug_str:00000000000175ec .LASF2776
C:\Users\CYMR90~1\AppData\Local\Temp\cchaIJlx.s:23363  .debug_str:000000000000e35c .LASF2777
C:\Users\CYMR90~1\AppData\Local\Temp\cchaIJlx.s:24533  .debug_str:0000000000012eb4 .LASF2778
C:\Users\CYMR90~1\AppData\Local\Temp\cchaIJlx.s:24499  .debug_str:0000000000012c75 .LASF2779
C:\Users\CYMR90~1\AppData\Local\Temp\cchaIJlx.s:20591  .debug_str:0000000000003126 .LASF2780
C:\Users\CYMR90~1\AppData\Local\Temp\cchaIJlx.s:20475  .debug_str:00000000000029db .LASF2781
C:\Users\CYMR90~1\AppData\Local\Temp\cchaIJlx.s:27996  .debug_str:0000000000020cdd .LASF2782
C:\Users\CYMR90~1\AppData\Local\Temp\cchaIJlx.s:28986  .debug_str:0000000000024abe .LASF2783
C:\Users\CYMR90~1\AppData\Local\Temp\cchaIJlx.s:28666  .debug_str:000000000002357d .LASF2784
C:\Users\CYMR90~1\AppData\Local\Temp\cchaIJlx.s:22595  .debug_str:000000000000b1a6 .LASF2785
C:\Users\CYMR90~1\AppData\Local\Temp\cchaIJlx.s:25772  .debug_str:0000000000017ed9 .LASF2786
C:\Users\CYMR90~1\AppData\Local\Temp\cchaIJlx.s:28964  .debug_str:000000000002493a .LASF2787
C:\Users\CYMR90~1\AppData\Local\Temp\cchaIJlx.s:20875  .debug_str:00000000000043d4 .LASF2788
C:\Users\CYMR90~1\AppData\Local\Temp\cchaIJlx.s:22943  .debug_str:000000000000c986 .LASF2789
C:\Users\CYMR90~1\AppData\Local\Temp\cchaIJlx.s:27194  .debug_str:000000000001dc53 .LASF2790
C:\Users\CYMR90~1\AppData\Local\Temp\cchaIJlx.s:30394  .debug_str:000000000002a657 .LASF2791
C:\Users\CYMR90~1\AppData\Local\Temp\cchaIJlx.s:22359  .debug_str:000000000000a23f .LASF2792
C:\Users\CYMR90~1\AppData\Local\Temp\cchaIJlx.s:25546  .debug_str:00000000000170e3 .LASF2793
C:\Users\CYMR90~1\AppData\Local\Temp\cchaIJlx.s:28730  .debug_str:0000000000023958 .LASF2794
C:\Users\CYMR90~1\AppData\Local\Temp\cchaIJlx.s:26924  .debug_str:000000000001ca28 .LASF2795
C:\Users\CYMR90~1\AppData\Local\Temp\cchaIJlx.s:20317  .debug_str:0000000000002064 .LASF2796
C:\Users\CYMR90~1\AppData\Local\Temp\cchaIJlx.s:25015  .debug_str:0000000000014d2b .LASF2797
C:\Users\CYMR90~1\AppData\Local\Temp\cchaIJlx.s:29690  .debug_str:00000000000278bd .LASF2798
C:\Users\CYMR90~1\AppData\Local\Temp\cchaIJlx.s:23133  .debug_str:000000000000d602 .LASF2799
C:\Users\CYMR90~1\AppData\Local\Temp\cchaIJlx.s:27778  .debug_str:000000000001ffcc .LASF2800
C:\Users\CYMR90~1\AppData\Local\Temp\cchaIJlx.s:30350  .debug_str:000000000002a3b4 .LASF2801
C:\Users\CYMR90~1\AppData\Local\Temp\cchaIJlx.s:30560  .debug_str:000000000002afee .LASF2802
C:\Users\CYMR90~1\AppData\Local\Temp\cchaIJlx.s:26416  .debug_str:000000000001a9fa .LASF2803
C:\Users\CYMR90~1\AppData\Local\Temp\cchaIJlx.s:21617  .debug_str:00000000000072a3 .LASF2804
C:\Users\CYMR90~1\AppData\Local\Temp\cchaIJlx.s:21919  .debug_str:00000000000086d5 .LASF2805
C:\Users\CYMR90~1\AppData\Local\Temp\cchaIJlx.s:25832  .debug_str:0000000000018246 .LASF2806
C:\Users\CYMR90~1\AppData\Local\Temp\cchaIJlx.s:30660  .debug_str:000000000002b6c5 .LASF2807
C:\Users\CYMR90~1\AppData\Local\Temp\cchaIJlx.s:24273  .debug_str:0000000000011d2b .LASF2808
C:\Users\CYMR90~1\AppData\Local\Temp\cchaIJlx.s:25111  .debug_str:0000000000015325 .LASF2809
C:\Users\CYMR90~1\AppData\Local\Temp\cchaIJlx.s:21317  .debug_str:0000000000005fab .LASF2810
C:\Users\CYMR90~1\AppData\Local\Temp\cchaIJlx.s:28022  .debug_str:0000000000020e41 .LASF2811
C:\Users\CYMR90~1\AppData\Local\Temp\cchaIJlx.s:29390  .debug_str:00000000000265e8 .LASF2812
C:\Users\CYMR90~1\AppData\Local\Temp\cchaIJlx.s:30762  .debug_str:000000000002bdc0 .LASF2813
C:\Users\CYMR90~1\AppData\Local\Temp\cchaIJlx.s:20833  .debug_str:0000000000004130 .LASF2814
C:\Users\CYMR90~1\AppData\Local\Temp\cchaIJlx.s:24541  .debug_str:0000000000012f42 .LASF2815
C:\Users\CYMR90~1\AppData\Local\Temp\cchaIJlx.s:29884  .debug_str:0000000000028678 .LASF2816
C:\Users\CYMR90~1\AppData\Local\Temp\cchaIJlx.s:27842  .debug_str:000000000002034b .LASF2817
C:\Users\CYMR90~1\AppData\Local\Temp\cchaIJlx.s:26756  .debug_str:000000000001bf59 .LASF2818
C:\Users\CYMR90~1\AppData\Local\Temp\cchaIJlx.s:26326  .debug_str:000000000001a3f1 .LASF2819
C:\Users\CYMR90~1\AppData\Local\Temp\cchaIJlx.s:26250  .debug_str:0000000000019dd8 .LASF2820
C:\Users\CYMR90~1\AppData\Local\Temp\cchaIJlx.s:28446  .debug_str:000000000002280b .LASF2821
C:\Users\CYMR90~1\AppData\Local\Temp\cchaIJlx.s:26752  .debug_str:000000000001bf2c .LASF2822
C:\Users\CYMR90~1\AppData\Local\Temp\cchaIJlx.s:25894  .debug_str:00000000000185f3 .LASF2823
C:\Users\CYMR90~1\AppData\Local\Temp\cchaIJlx.s:24931  .debug_str:00000000000147d9 .LASF2824
C:\Users\CYMR90~1\AppData\Local\Temp\cchaIJlx.s:24477  .debug_str:0000000000012b09 .LASF2825
C:\Users\CYMR90~1\AppData\Local\Temp\cchaIJlx.s:23217  .debug_str:000000000000da95 .LASF2826
C:\Users\CYMR90~1\AppData\Local\Temp\cchaIJlx.s:22353  .debug_str:000000000000a1dc .LASF2827
C:\Users\CYMR90~1\AppData\Local\Temp\cchaIJlx.s:21457  .debug_str:000000000000684b .LASF2828
C:\Users\CYMR90~1\AppData\Local\Temp\cchaIJlx.s:20595  .debug_str:000000000000315c .LASF2829
C:\Users\CYMR90~1\AppData\Local\Temp\cchaIJlx.s:30996  .debug_str:000000000002cd1e .LASF2830
C:\Users\CYMR90~1\AppData\Local\Temp\cchaIJlx.s:30130  .debug_str:0000000000029692 .LASF2831
C:\Users\CYMR90~1\AppData\Local\Temp\cchaIJlx.s:28894  .debug_str:0000000000024476 .LASF2832
C:\Users\CYMR90~1\AppData\Local\Temp\cchaIJlx.s:20799  .debug_str:0000000000003eb6 .LASF2833
C:\Users\CYMR90~1\AppData\Local\Temp\cchaIJlx.s:24053  .debug_str:0000000000010e7d .LASF2834
C:\Users\CYMR90~1\AppData\Local\Temp\cchaIJlx.s:27214  .debug_str:000000000001dd8e .LASF2835
C:\Users\CYMR90~1\AppData\Local\Temp\cchaIJlx.s:30412  .debug_str:000000000002a730 .LASF2836
C:\Users\CYMR90~1\AppData\Local\Temp\cchaIJlx.s:22371  .debug_str:000000000000a328 .LASF2837
C:\Users\CYMR90~1\AppData\Local\Temp\cchaIJlx.s:28524  .debug_str:0000000000022cf2 .LASF2838
C:\Users\CYMR90~1\AppData\Local\Temp\cchaIJlx.s:30950  .debug_str:000000000002ca10 .LASF2839
C:\Users\CYMR90~1\AppData\Local\Temp\cchaIJlx.s:24301  .debug_str:0000000000011f90 .LASF2840
C:\Users\CYMR90~1\AppData\Local\Temp\cchaIJlx.s:25171  .debug_str:0000000000015672 .LASF2841
C:\Users\CYMR90~1\AppData\Local\Temp\cchaIJlx.s:27824  .debug_str:0000000000020226 .LASF2842
C:\Users\CYMR90~1\AppData\Local\Temp\cchaIJlx.s:26994  .debug_str:000000000001cfdd .LASF2843
C:\Users\CYMR90~1\AppData\Local\Temp\cchaIJlx.s:26384  .debug_str:000000000001a820 .LASF2844
C:\Users\CYMR90~1\AppData\Local\Temp\cchaIJlx.s:26422  .debug_str:000000000001aa85 .LASF2845
C:\Users\CYMR90~1\AppData\Local\Temp\cchaIJlx.s:25391  .debug_str:0000000000016440 .LASF2846
C:\Users\CYMR90~1\AppData\Local\Temp\cchaIJlx.s:22659  .debug_str:000000000000b611 .LASF2847
C:\Users\CYMR90~1\AppData\Local\Temp\cchaIJlx.s:24783  .debug_str:0000000000013e81 .LASF2848
C:\Users\CYMR90~1\AppData\Local\Temp\cchaIJlx.s:29306  .debug_str:0000000000026074 .LASF2849
C:\Users\CYMR90~1\AppData\Local\Temp\cchaIJlx.s:26584  .debug_str:000000000001b4e1 .LASF2850
C:\Users\CYMR90~1\AppData\Local\Temp\cchaIJlx.s:21299  .debug_str:0000000000005e56 .LASF2851
C:\Users\CYMR90~1\AppData\Local\Temp\cchaIJlx.s:23215  .debug_str:000000000000da73 .LASF2852
C:\Users\CYMR90~1\AppData\Local\Temp\cchaIJlx.s:25091  .debug_str:0000000000015216 .LASF2853
C:\Users\CYMR90~1\AppData\Local\Temp\cchaIJlx.s:29664  .debug_str:00000000000276ca .LASF2854
C:\Users\CYMR90~1\AppData\Local\Temp\cchaIJlx.s:22783  .debug_str:000000000000be7e .LASF2855
C:\Users\CYMR90~1\AppData\Local\Temp\cchaIJlx.s:23345  .debug_str:000000000000e25f .LASF2856
C:\Users\CYMR90~1\AppData\Local\Temp\cchaIJlx.s:27310  .debug_str:000000000001e34d .LASF2857
C:\Users\CYMR90~1\AppData\Local\Temp\cchaIJlx.s:21059  .debug_str:0000000000004fd6 .LASF2858
C:\Users\CYMR90~1\AppData\Local\Temp\cchaIJlx.s:30518  .debug_str:000000000002ad71 .LASF2859
C:\Users\CYMR90~1\AppData\Local\Temp\cchaIJlx.s:28744  .debug_str:0000000000023a1a .LASF2860
C:\Users\CYMR90~1\AppData\Local\Temp\cchaIJlx.s:29536  .debug_str:0000000000026e90 .LASF2861
C:\Users\CYMR90~1\AppData\Local\Temp\cchaIJlx.s:21499  .debug_str:0000000000006ac8 .LASF2862
C:\Users\CYMR90~1\AppData\Local\Temp\cchaIJlx.s:31026  .debug_str:000000000002cef4 .LASF2863
C:\Users\CYMR90~1\AppData\Local\Temp\cchaIJlx.s:20569  .debug_str:0000000000002fa3 .LASF2864
C:\Users\CYMR90~1\AppData\Local\Temp\cchaIJlx.s:20295  .debug_str:0000000000001f2c .LASF2865
C:\Users\CYMR90~1\AppData\Local\Temp\cchaIJlx.s:27338  .debug_str:000000000001e50a .LASF2866
C:\Users\CYMR90~1\AppData\Local\Temp\cchaIJlx.s:20543  .debug_str:0000000000002e06 .LASF2867
C:\Users\CYMR90~1\AppData\Local\Temp\cchaIJlx.s:19845  .debug_str:000000000000032c .LASF2868
C:\Users\CYMR90~1\AppData\Local\Temp\cchaIJlx.s:30806  .debug_str:000000000002c088 .LASF2869
C:\Users\CYMR90~1\AppData\Local\Temp\cchaIJlx.s:29446  .debug_str:0000000000026937 .LASF2870
C:\Users\CYMR90~1\AppData\Local\Temp\cchaIJlx.s:21283  .debug_str:0000000000005d76 .LASF2871
C:\Users\CYMR90~1\AppData\Local\Temp\cchaIJlx.s:30492  .debug_str:000000000002ac0e .LASF2872
C:\Users\CYMR90~1\AppData\Local\Temp\cchaIJlx.s:26910  .debug_str:000000000001c967 .LASF2873
C:\Users\CYMR90~1\AppData\Local\Temp\cchaIJlx.s:27894  .debug_str:00000000000206d3 .LASF2874
C:\Users\CYMR90~1\AppData\Local\Temp\cchaIJlx.s:23721  .debug_str:000000000000f9dd .LASF2875
C:\Users\CYMR90~1\AppData\Local\Temp\cchaIJlx.s:22851  .debug_str:000000000000c281 .LASF2876
C:\Users\CYMR90~1\AppData\Local\Temp\cchaIJlx.s:26644  .debug_str:000000000001b898 .LASF2877
C:\Users\CYMR90~1\AppData\Local\Temp\cchaIJlx.s:29842  .debug_str:0000000000028388 .LASF2878
C:\Users\CYMR90~1\AppData\Local\Temp\cchaIJlx.s:28292  .debug_str:0000000000021ef4 .LASF2879
C:\Users\CYMR90~1\AppData\Local\Temp\cchaIJlx.s:26634  .debug_str:000000000001b7f4 .LASF2880
C:\Users\CYMR90~1\AppData\Local\Temp\cchaIJlx.s:20885  .debug_str:0000000000004472 .LASF2881
C:\Users\CYMR90~1\AppData\Local\Temp\cchaIJlx.s:26958  .debug_str:000000000001cc47 .LASF2882
C:\Users\CYMR90~1\AppData\Local\Temp\cchaIJlx.s:30092  .debug_str:00000000000293e7 .LASF2883
C:\Users\CYMR90~1\AppData\Local\Temp\cchaIJlx.s:29242  .debug_str:0000000000025c97 .LASF2884
C:\Users\CYMR90~1\AppData\Local\Temp\cchaIJlx.s:27092  .debug_str:000000000001d5db .LASF2885
C:\Users\CYMR90~1\AppData\Local\Temp\cchaIJlx.s:23157  .debug_str:000000000000d744 .LASF2886
C:\Users\CYMR90~1\AppData\Local\Temp\cchaIJlx.s:30582  .debug_str:000000000002b17c .LASF2887
C:\Users\CYMR90~1\AppData\Local\Temp\cchaIJlx.s:25766  .debug_str:0000000000017e70 .LASF2888
C:\Users\CYMR90~1\AppData\Local\Temp\cchaIJlx.s:20757  .debug_str:0000000000003bca .LASF2889
C:\Users\CYMR90~1\AppData\Local\Temp\cchaIJlx.s:30624  .debug_str:000000000002b429 .LASF2890
C:\Users\CYMR90~1\AppData\Local\Temp\cchaIJlx.s:23421  .debug_str:000000000000e736 .LASF2891
C:\Users\CYMR90~1\AppData\Local\Temp\cchaIJlx.s:23541  .debug_str:000000000000ee65 .LASF2892
C:\Users\CYMR90~1\AppData\Local\Temp\cchaIJlx.s:24997  .debug_str:0000000000014bc7 .LASF2893
C:\Users\CYMR90~1\AppData\Local\Temp\cchaIJlx.s:24895  .debug_str:000000000001459b .LASF2894
C:\Users\CYMR90~1\AppData\Local\Temp\cchaIJlx.s:23565  .debug_str:000000000000efcd .LASF2895
C:\Users\CYMR90~1\AppData\Local\Temp\cchaIJlx.s:23243  .debug_str:000000000000dc1d .LASF2896
C:\Users\CYMR90~1\AppData\Local\Temp\cchaIJlx.s:28682  .debug_str:00000000000236a2 .LASF2897
C:\Users\CYMR90~1\AppData\Local\Temp\cchaIJlx.s:25578  .debug_str:00000000000172c2 .LASF2898
C:\Users\CYMR90~1\AppData\Local\Temp\cchaIJlx.s:24681  .debug_str:000000000001389b .LASF2899
C:\Users\CYMR90~1\AppData\Local\Temp\cchaIJlx.s:21987  .debug_str:0000000000008b2d .LASF2900
C:\Users\CYMR90~1\AppData\Local\Temp\cchaIJlx.s:30336  .debug_str:000000000002a2a9 .LASF2901
C:\Users\CYMR90~1\AppData\Local\Temp\cchaIJlx.s:30798  .debug_str:000000000002c012 .LASF2902
C:\Users\CYMR90~1\AppData\Local\Temp\cchaIJlx.s:25083  .debug_str:0000000000015186 .LASF2903
C:\Users\CYMR90~1\AppData\Local\Temp\cchaIJlx.s:21129  .debug_str:0000000000005412 .LASF2904
C:\Users\CYMR90~1\AppData\Local\Temp\cchaIJlx.s:25265  .debug_str:0000000000015c5d .LASF2905
C:\Users\CYMR90~1\AppData\Local\Temp\cchaIJlx.s:28426  .debug_str:00000000000226f4 .LASF2906
C:\Users\CYMR90~1\AppData\Local\Temp\cchaIJlx.s:23909  .debug_str:000000000001059a .LASF2907
C:\Users\CYMR90~1\AppData\Local\Temp\cchaIJlx.s:22391  .debug_str:000000000000a479 .LASF2908
C:\Users\CYMR90~1\AppData\Local\Temp\cchaIJlx.s:19945  .debug_str:0000000000000909 .LASF2909
C:\Users\CYMR90~1\AppData\Local\Temp\cchaIJlx.s:27886  .debug_str:0000000000020643 .LASF2910
C:\Users\CYMR90~1\AppData\Local\Temp\cchaIJlx.s:30868  .debug_str:000000000002c49e .LASF2911
C:\Users\CYMR90~1\AppData\Local\Temp\cchaIJlx.s:28808  .debug_str:0000000000023dda .LASF2912
C:\Users\CYMR90~1\AppData\Local\Temp\cchaIJlx.s:28200  .debug_str:0000000000021952 .LASF2913
C:\Users\CYMR90~1\AppData\Local\Temp\cchaIJlx.s:21089  .debug_str:000000000000519f .LASF2914
C:\Users\CYMR90~1\AppData\Local\Temp\cchaIJlx.s:31002  .debug_str:000000000002cd5e .LASF2915
C:\Users\CYMR90~1\AppData\Local\Temp\cchaIJlx.s:23439  .debug_str:000000000000e838 .LASF2916
C:\Users\CYMR90~1\AppData\Local\Temp\cchaIJlx.s:26768  .debug_str:000000000001c009 .LASF2917
C:\Users\CYMR90~1\AppData\Local\Temp\cchaIJlx.s:28452  .debug_str:000000000002287f .LASF2918
C:\Users\CYMR90~1\AppData\Local\Temp\cchaIJlx.s:29028  .debug_str:0000000000024d75 .LASF2919
C:\Users\CYMR90~1\AppData\Local\Temp\cchaIJlx.s:23155  .debug_str:000000000000d72b .LASF2920
C:\Users\CYMR90~1\AppData\Local\Temp\cchaIJlx.s:27876  .debug_str:00000000000205b1 .LASF2921
C:\Users\CYMR90~1\AppData\Local\Temp\cchaIJlx.s:30202  .debug_str:0000000000029abd .LASF2922
C:\Users\CYMR90~1\AppData\Local\Temp\cchaIJlx.s:22805  .debug_str:000000000000bfe6 .LASF2923
C:\Users\CYMR90~1\AppData\Local\Temp\cchaIJlx.s:21601  .debug_str:000000000000718d .LASF2924
C:\Users\CYMR90~1\AppData\Local\Temp\cchaIJlx.s:28046  .debug_str:0000000000020f87 .LASF2925
C:\Users\CYMR90~1\AppData\Local\Temp\cchaIJlx.s:23763  .debug_str:000000000000fc86 .LASF2926
C:\Users\CYMR90~1\AppData\Local\Temp\cchaIJlx.s:20553  .debug_str:0000000000002eae .LASF2927
C:\Users\CYMR90~1\AppData\Local\Temp\cchaIJlx.s:22863  .debug_str:000000000000c34d .LASF2928
C:\Users\CYMR90~1\AppData\Local\Temp\cchaIJlx.s:23369  .debug_str:000000000000e3be .LASF2929
C:\Users\CYMR90~1\AppData\Local\Temp\cchaIJlx.s:30614  .debug_str:000000000002b39d .LASF2930
C:\Users\CYMR90~1\AppData\Local\Temp\cchaIJlx.s:21569  .debug_str:0000000000006f38 .LASF2931
C:\Users\CYMR90~1\AppData\Local\Temp\cchaIJlx.s:27774  .debug_str:000000000001ff8d .LASF2932
C:\Users\CYMR90~1\AppData\Local\Temp\cchaIJlx.s:23751  .debug_str:000000000000fbb3 .LASF2933
C:\Users\CYMR90~1\AppData\Local\Temp\cchaIJlx.s:25590  .debug_str:0000000000017382 .LASF2934
C:\Users\CYMR90~1\AppData\Local\Temp\cchaIJlx.s:22209  .debug_str:00000000000098c7 .LASF2935
C:\Users\CYMR90~1\AppData\Local\Temp\cchaIJlx.s:22313  .debug_str:0000000000009f6a .LASF2936
C:\Users\CYMR90~1\AppData\Local\Temp\cchaIJlx.s:23321  .debug_str:000000000000e0e6 .LASF2937
C:\Users\CYMR90~1\AppData\Local\Temp\cchaIJlx.s:22423  .debug_str:000000000000a63c .LASF2938
C:\Users\CYMR90~1\AppData\Local\Temp\cchaIJlx.s:29030  .debug_str:0000000000024d8c .LASF2939
C:\Users\CYMR90~1\AppData\Local\Temp\cchaIJlx.s:23493  .debug_str:000000000000ebee .LASF2940
C:\Users\CYMR90~1\AppData\Local\Temp\cchaIJlx.s:24049  .debug_str:0000000000010e3e .LASF2941
C:\Users\CYMR90~1\AppData\Local\Temp\cchaIJlx.s:29766  .debug_str:0000000000027e0b .LASF2942
C:\Users\CYMR90~1\AppData\Local\Temp\cchaIJlx.s:21955  .debug_str:0000000000008920 .LASF2943
C:\Users\CYMR90~1\AppData\Local\Temp\cchaIJlx.s:30688  .debug_str:000000000002b8a8 .LASF2944
C:\Users\CYMR90~1\AppData\Local\Temp\cchaIJlx.s:29864  .debug_str:0000000000028520 .LASF2945
C:\Users\CYMR90~1\AppData\Local\Temp\cchaIJlx.s:30122  .debug_str:000000000002962f .LASF2946
C:\Users\CYMR90~1\AppData\Local\Temp\cchaIJlx.s:20807  .debug_str:0000000000003f38 .LASF2947
C:\Users\CYMR90~1\AppData\Local\Temp\cchaIJlx.s:26820  .debug_str:000000000001c331 .LASF2948
C:\Users\CYMR90~1\AppData\Local\Temp\cchaIJlx.s:26624  .debug_str:000000000001b758 .LASF2949
C:\Users\CYMR90~1\AppData\Local\Temp\cchaIJlx.s:29042  .debug_str:0000000000024e31 .LASF2950
C:\Users\CYMR90~1\AppData\Local\Temp\cchaIJlx.s:23161  .debug_str:000000000000d788 .LASF2951
C:\Users\CYMR90~1\AppData\Local\Temp\cchaIJlx.s:26238  .debug_str:0000000000019d45 .LASF2952
C:\Users\CYMR90~1\AppData\Local\Temp\cchaIJlx.s:20075  .debug_str:0000000000001193 .LASF2953
C:\Users\CYMR90~1\AppData\Local\Temp\cchaIJlx.s:23539  .debug_str:000000000000ee4b .LASF2954
C:\Users\CYMR90~1\AppData\Local\Temp\cchaIJlx.s:26824  .debug_str:000000000001c365 .LASF2955
C:\Users\CYMR90~1\AppData\Local\Temp\cchaIJlx.s:30136  .debug_str:00000000000296d7 .LASF2956
C:\Users\CYMR90~1\AppData\Local\Temp\cchaIJlx.s:20209  .debug_str:00000000000019e9 .LASF2957
C:\Users\CYMR90~1\AppData\Local\Temp\cchaIJlx.s:22279  .debug_str:0000000000009d34 .LASF2958
C:\Users\CYMR90~1\AppData\Local\Temp\cchaIJlx.s:29566  .debug_str:0000000000027105 .LASF2959
C:\Users\CYMR90~1\AppData\Local\Temp\cchaIJlx.s:21843  .debug_str:0000000000008233 .LASF2960
C:\Users\CYMR90~1\AppData\Local\Temp\cchaIJlx.s:23327  .debug_str:000000000000e15f .LASF2961
C:\Users\CYMR90~1\AppData\Local\Temp\cchaIJlx.s:28812  .debug_str:0000000000023e1f .LASF2962
C:\Users\CYMR90~1\AppData\Local\Temp\cchaIJlx.s:26168  .debug_str:00000000000198e4 .LASF2963
C:\Users\CYMR90~1\AppData\Local\Temp\cchaIJlx.s:27640  .debug_str:000000000001f71f .LASF2964
C:\Users\CYMR90~1\AppData\Local\Temp\cchaIJlx.s:27562  .debug_str:000000000001f291 .LASF2965
C:\Users\CYMR90~1\AppData\Local\Temp\cchaIJlx.s:21817  .debug_str:0000000000007ff4 .LASF2966
C:\Users\CYMR90~1\AppData\Local\Temp\cchaIJlx.s:29102  .debug_str:0000000000025317 .LASF2967
C:\Users\CYMR90~1\AppData\Local\Temp\cchaIJlx.s:29262  .debug_str:0000000000025df1 .LASF2968
C:\Users\CYMR90~1\AppData\Local\Temp\cchaIJlx.s:29038  .debug_str:0000000000024e04 .LASF2969
C:\Users\CYMR90~1\AppData\Local\Temp\cchaIJlx.s:20785  .debug_str:0000000000003d9b .LASF2970
C:\Users\CYMR90~1\AppData\Local\Temp\cchaIJlx.s:28024  .debug_str:0000000000020e61 .LASF2971
C:\Users\CYMR90~1\AppData\Local\Temp\cchaIJlx.s:24019  .debug_str:0000000000010cd3 .LASF2972
C:\Users\CYMR90~1\AppData\Local\Temp\cchaIJlx.s:20633  .debug_str:00000000000033fd .LASF2973
C:\Users\CYMR90~1\AppData\Local\Temp\cchaIJlx.s:28686  .debug_str:00000000000236df .LASF2974
C:\Users\CYMR90~1\AppData\Local\Temp\cchaIJlx.s:25536  .debug_str:0000000000017061 .LASF2975
C:\Users\CYMR90~1\AppData\Local\Temp\cchaIJlx.s:25285  .debug_str:0000000000015dcc .LASF2976
C:\Users\CYMR90~1\AppData\Local\Temp\cchaIJlx.s:27518  .debug_str:000000000001efe9 .LASF2977
C:\Users\CYMR90~1\AppData\Local\Temp\cchaIJlx.s:23979  .debug_str:0000000000010a19 .LASF2978
C:\Users\CYMR90~1\AppData\Local\Temp\cchaIJlx.s:24103  .debug_str:0000000000011189 .LASF2979
C:\Users\CYMR90~1\AppData\Local\Temp\cchaIJlx.s:23509  .debug_str:000000000000ecbb .LASF2980
C:\Users\CYMR90~1\AppData\Local\Temp\cchaIJlx.s:23645  .debug_str:000000000000f4d7 .LASF2981
C:\Users\CYMR90~1\AppData\Local\Temp\cchaIJlx.s:24601  .debug_str:000000000001339f .LASF2982
C:\Users\CYMR90~1\AppData\Local\Temp\cchaIJlx.s:29882  .debug_str:000000000002865f .LASF2983
C:\Users\CYMR90~1\AppData\Local\Temp\cchaIJlx.s:25403  .debug_str:000000000001657e .LASF2984
C:\Users\CYMR90~1\AppData\Local\Temp\cchaIJlx.s:28804  .debug_str:0000000000023dab .LASF2985
C:\Users\CYMR90~1\AppData\Local\Temp\cchaIJlx.s:26274  .debug_str:0000000000019f5b .LASF2986
C:\Users\CYMR90~1\AppData\Local\Temp\cchaIJlx.s:21593  .debug_str:00000000000070e5 .LASF2987
C:\Users\CYMR90~1\AppData\Local\Temp\cchaIJlx.s:29934  .debug_str:000000000002899c .LASF2988
C:\Users\CYMR90~1\AppData\Local\Temp\cchaIJlx.s:22331  .debug_str:000000000000a07a .LASF2989
C:\Users\CYMR90~1\AppData\Local\Temp\cchaIJlx.s:24787  .debug_str:0000000000013eb7 .LASF2990
C:\Users\CYMR90~1\AppData\Local\Temp\cchaIJlx.s:25077  .debug_str:0000000000015122 .LASF2991
C:\Users\CYMR90~1\AppData\Local\Temp\cchaIJlx.s:25137  .debug_str:000000000001549f .LASF2992
C:\Users\CYMR90~1\AppData\Local\Temp\cchaIJlx.s:27966  .debug_str:0000000000020b2b .LASF2993
C:\Users\CYMR90~1\AppData\Local\Temp\cchaIJlx.s:25920  .debug_str:000000000001876c .LASF2994
C:\Users\CYMR90~1\AppData\Local\Temp\cchaIJlx.s:23469  .debug_str:000000000000ea23 .LASF2995
C:\Users\CYMR90~1\AppData\Local\Temp\cchaIJlx.s:30022  .debug_str:0000000000028f26 .LASF2996
C:\Users\CYMR90~1\AppData\Local\Temp\cchaIJlx.s:28470  .debug_str:000000000002296f .LASF2997
C:\Users\CYMR90~1\AppData\Local\Temp\cchaIJlx.s:22873  .debug_str:000000000000c3e0 .LASF2998
C:\Users\CYMR90~1\AppData\Local\Temp\cchaIJlx.s:30818  .debug_str:000000000002c1af .LASF2999
C:\Users\CYMR90~1\AppData\Local\Temp\cchaIJlx.s:30444  .debug_str:000000000002a931 .LASF3000
C:\Users\CYMR90~1\AppData\Local\Temp\cchaIJlx.s:29548  .debug_str:0000000000026f3d .LASF3001
C:\Users\CYMR90~1\AppData\Local\Temp\cchaIJlx.s:20635  .debug_str:0000000000003415 .LASF3002
C:\Users\CYMR90~1\AppData\Local\Temp\cchaIJlx.s:22781  .debug_str:000000000000be56 .LASF3003
C:\Users\CYMR90~1\AppData\Local\Temp\cchaIJlx.s:25183  .debug_str:0000000000015713 .LASF3004
C:\Users\CYMR90~1\AppData\Local\Temp\cchaIJlx.s:25085  .debug_str:00000000000151b1 .LASF3005
C:\Users\CYMR90~1\AppData\Local\Temp\cchaIJlx.s:25982  .debug_str:0000000000018c2e .LASF3006
C:\Users\CYMR90~1\AppData\Local\Temp\cchaIJlx.s:27646  .debug_str:000000000001f784 .LASF3007
C:\Users\CYMR90~1\AppData\Local\Temp\cchaIJlx.s:28166  .debug_str:0000000000021749 .LASF3008
C:\Users\CYMR90~1\AppData\Local\Temp\cchaIJlx.s:30954  .debug_str:000000000002ca34 .LASF3009
C:\Users\CYMR90~1\AppData\Local\Temp\cchaIJlx.s:23701  .debug_str:000000000000f8bc .LASF3010
C:\Users\CYMR90~1\AppData\Local\Temp\cchaIJlx.s:20567  .debug_str:0000000000002f77 .LASF3011
C:\Users\CYMR90~1\AppData\Local\Temp\cchaIJlx.s:23557  .debug_str:000000000000ef5c .LASF3012
C:\Users\CYMR90~1\AppData\Local\Temp\cchaIJlx.s:27844  .debug_str:0000000000020370 .LASF3013
C:\Users\CYMR90~1\AppData\Local\Temp\cchaIJlx.s:25159  .debug_str:00000000000155bd .LASF3014
C:\Users\CYMR90~1\AppData\Local\Temp\cchaIJlx.s:24163  .debug_str:0000000000011553 .LASF3015
C:\Users\CYMR90~1\AppData\Local\Temp\cchaIJlx.s:26764  .debug_str:000000000001bfd2 .LASF3016
C:\Users\CYMR90~1\AppData\Local\Temp\cchaIJlx.s:25800  .debug_str:0000000000018046 .LASF3017
C:\Users\CYMR90~1\AppData\Local\Temp\cchaIJlx.s:27678  .debug_str:000000000001f98e .LASF3018
C:\Users\CYMR90~1\AppData\Local\Temp\cchaIJlx.s:23981  .debug_str:0000000000010a31 .LASF3019
C:\Users\CYMR90~1\AppData\Local\Temp\cchaIJlx.s:29812  .debug_str:0000000000028174 .LASF3020
C:\Users\CYMR90~1\AppData\Local\Temp\cchaIJlx.s:22053  .debug_str:0000000000008f2a .LASF3021
C:\Users\CYMR90~1\AppData\Local\Temp\cchaIJlx.s:21137  .debug_str:00000000000054b0 .LASF3022
C:\Users\CYMR90~1\AppData\Local\Temp\cchaIJlx.s:20193  .debug_str:00000000000018fe .LASF3023
C:\Users\CYMR90~1\AppData\Local\Temp\cchaIJlx.s:30502  .debug_str:000000000002aca5 .LASF3024
C:\Users\CYMR90~1\AppData\Local\Temp\cchaIJlx.s:28114  .debug_str:000000000002142c .LASF3025
C:\Users\CYMR90~1\AppData\Local\Temp\cchaIJlx.s:27154  .debug_str:000000000001d9fb .LASF3026
C:\Users\CYMR90~1\AppData\Local\Temp\cchaIJlx.s:26318  .debug_str:000000000001a1de .LASF3027
C:\Users\CYMR90~1\AppData\Local\Temp\cchaIJlx.s:25325  .debug_str:000000000001609f .LASF3028
C:\Users\CYMR90~1\AppData\Local\Temp\cchaIJlx.s:24387  .debug_str:0000000000012525 .LASF3029
C:\Users\CYMR90~1\AppData\Local\Temp\cchaIJlx.s:23431  .debug_str:000000000000e7c7 .LASF3030
C:\Users\CYMR90~1\AppData\Local\Temp\cchaIJlx.s:23573  .debug_str:000000000000f044 .LASF3031
C:\Users\CYMR90~1\AppData\Local\Temp\cchaIJlx.s:29504  .debug_str:0000000000026cbe .LASF3032
C:\Users\CYMR90~1\AppData\Local\Temp\cchaIJlx.s:29292  .debug_str:0000000000025fb7 .LASF3033
C:\Users\CYMR90~1\AppData\Local\Temp\cchaIJlx.s:23885  .debug_str:000000000001042a .LASF3034
C:\Users\CYMR90~1\AppData\Local\Temp\cchaIJlx.s:22739  .debug_str:000000000000bb30 .LASF3035
C:\Users\CYMR90~1\AppData\Local\Temp\cchaIJlx.s:21647  .debug_str:0000000000007493 .LASF3036
C:\Users\CYMR90~1\AppData\Local\Temp\cchaIJlx.s:26986  .debug_str:000000000001cec4 .LASF3037
C:\Users\CYMR90~1\AppData\Local\Temp\cchaIJlx.s:28584  .debug_str:0000000000023036 .LASF3038
C:\Users\CYMR90~1\AppData\Local\Temp\cchaIJlx.s:22909  .debug_str:000000000000c65b .LASF3039
C:\Users\CYMR90~1\AppData\Local\Temp\cchaIJlx.s:21205  .debug_str:00000000000058d1 .LASF3040
C:\Users\CYMR90~1\AppData\Local\Temp\cchaIJlx.s:20991  .debug_str:0000000000004bc6 .LASF3041
C:\Users\CYMR90~1\AppData\Local\Temp\cchaIJlx.s:26902  .debug_str:000000000001c8dd .LASF3042
C:\Users\CYMR90~1\AppData\Local\Temp\cchaIJlx.s:25419  .debug_str:0000000000016699 .LASF3043
C:\Users\CYMR90~1\AppData\Local\Temp\cchaIJlx.s:20499  .debug_str:0000000000002b5f .LASF3044
C:\Users\CYMR90~1\AppData\Local\Temp\cchaIJlx.s:30894  .debug_str:000000000002c684 .LASF3045
C:\Users\CYMR90~1\AppData\Local\Temp\cchaIJlx.s:29852  .debug_str:0000000000028439 .LASF3046
C:\Users\CYMR90~1\AppData\Local\Temp\cchaIJlx.s:20957  .debug_str:00000000000049af .LASF3047
C:\Users\CYMR90~1\AppData\Local\Temp\cchaIJlx.s:26744  .debug_str:000000000001bea5 .LASF3048
C:\Users\CYMR90~1\AppData\Local\Temp\cchaIJlx.s:23985  .debug_str:0000000000010a76 .LASF3049
C:\Users\CYMR90~1\AppData\Local\Temp\cchaIJlx.s:27040  .debug_str:000000000001d2a4 .LASF3050
C:\Users\CYMR90~1\AppData\Local\Temp\cchaIJlx.s:19885  .debug_str:0000000000000544 .LASF3051
C:\Users\CYMR90~1\AppData\Local\Temp\cchaIJlx.s:24565  .debug_str:00000000000130e8 .LASF3052
C:\Users\CYMR90~1\AppData\Local\Temp\cchaIJlx.s:29240  .debug_str:0000000000025c75 .LASF3053
C:\Users\CYMR90~1\AppData\Local\Temp\cchaIJlx.s:24471  .debug_str:0000000000012acb .LASF3054
C:\Users\CYMR90~1\AppData\Local\Temp\cchaIJlx.s:21365  .debug_str:00000000000062a7 .LASF3055
C:\Users\CYMR90~1\AppData\Local\Temp\cchaIJlx.s:25764  .debug_str:0000000000017e58 .LASF3056
C:\Users\CYMR90~1\AppData\Local\Temp\cchaIJlx.s:24227  .debug_str:0000000000011a63 .LASF3057
C:\Users\CYMR90~1\AppData\Local\Temp\cchaIJlx.s:22777  .debug_str:000000000000be14 .LASF3058
C:\Users\CYMR90~1\AppData\Local\Temp\cchaIJlx.s:26610  .debug_str:000000000001b669 .LASF3059
C:\Users\CYMR90~1\AppData\Local\Temp\cchaIJlx.s:23129  .debug_str:000000000000d5c8 .LASF3060
C:\Users\CYMR90~1\AppData\Local\Temp\cchaIJlx.s:22119  .debug_str:00000000000092fb .LASF3061
C:\Users\CYMR90~1\AppData\Local\Temp\cchaIJlx.s:28950  .debug_str:0000000000024875 .LASF3062
C:\Users\CYMR90~1\AppData\Local\Temp\cchaIJlx.s:24271  .debug_str:0000000000011d0b .LASF3063
C:\Users\CYMR90~1\AppData\Local\Temp\cchaIJlx.s:28554  .debug_str:0000000000022e9d .LASF3064
C:\Users\CYMR90~1\AppData\Local\Temp\cchaIJlx.s:22451  .debug_str:000000000000a820 .LASF3065
C:\Users\CYMR90~1\AppData\Local\Temp\cchaIJlx.s:26184  .debug_str:0000000000019a08 .LASF3066
C:\Users\CYMR90~1\AppData\Local\Temp\cchaIJlx.s:29468  .debug_str:0000000000026a6a .LASF3067
C:\Users\CYMR90~1\AppData\Local\Temp\cchaIJlx.s:23159  .debug_str:000000000000d763 .LASF3068
C:\Users\CYMR90~1\AppData\Local\Temp\cchaIJlx.s:21255  .debug_str:0000000000005bc6 .LASF3069
C:\Users\CYMR90~1\AppData\Local\Temp\cchaIJlx.s:22763  .debug_str:000000000000bd01 .LASF3070
C:\Users\CYMR90~1\AppData\Local\Temp\cchaIJlx.s:21553  .debug_str:0000000000006e5b .LASF3071
C:\Users\CYMR90~1\AppData\Local\Temp\cchaIJlx.s:23457  .debug_str:000000000000e98c .LASF3072
C:\Users\CYMR90~1\AppData\Local\Temp\cchaIJlx.s:20031  .debug_str:0000000000000efb .LASF3073
C:\Users\CYMR90~1\AppData\Local\Temp\cchaIJlx.s:30638  .debug_str:000000000002b53d .LASF3074
C:\Users\CYMR90~1\AppData\Local\Temp\cchaIJlx.s:30238  .debug_str:0000000000029ccd .LASF3075
C:\Users\CYMR90~1\AppData\Local\Temp\cchaIJlx.s:27690  .debug_str:000000000001fa4c .LASF3076
C:\Users\CYMR90~1\AppData\Local\Temp\cchaIJlx.s:28802  .debug_str:0000000000023d93 .LASF3077
C:\Users\CYMR90~1\AppData\Local\Temp\cchaIJlx.s:27272  .debug_str:000000000001e125 .LASF3078
C:\Users\CYMR90~1\AppData\Local\Temp\cchaIJlx.s:27652  .debug_str:000000000001f7ce .LASF3079
C:\Users\CYMR90~1\AppData\Local\Temp\cchaIJlx.s:29606  .debug_str:000000000002735d .LASF3080
C:\Users\CYMR90~1\AppData\Local\Temp\cchaIJlx.s:24865  .debug_str:0000000000014389 .LASF3081
C:\Users\CYMR90~1\AppData\Local\Temp\cchaIJlx.s:25425  .debug_str:00000000000166f4 .LASF3082
C:\Users\CYMR90~1\AppData\Local\Temp\cchaIJlx.s:20287  .debug_str:0000000000001eaf .LASF3083
C:\Users\CYMR90~1\AppData\Local\Temp\cchaIJlx.s:27638  .debug_str:000000000001f6e5 .LASF3084
C:\Users\CYMR90~1\AppData\Local\Temp\cchaIJlx.s:27588  .debug_str:000000000001f412 .LASF3085
C:\Users\CYMR90~1\AppData\Local\Temp\cchaIJlx.s:26718  .debug_str:000000000001bcd6 .LASF3086
C:\Users\CYMR90~1\AppData\Local\Temp\cchaIJlx.s:20455  .debug_str:00000000000028c1 .LASF3087
C:\Users\CYMR90~1\AppData\Local\Temp\cchaIJlx.s:29108  .debug_str:000000000002537a .LASF3088
C:\Users\CYMR90~1\AppData\Local\Temp\cchaIJlx.s:23045  .debug_str:000000000000cf9a .LASF3089
C:\Users\CYMR90~1\AppData\Local\Temp\cchaIJlx.s:20805  .debug_str:0000000000003f12 .LASF3090
C:\Users\CYMR90~1\AppData\Local\Temp\cchaIJlx.s:20549  .debug_str:0000000000002e63 .LASF3091
C:\Users\CYMR90~1\AppData\Local\Temp\cchaIJlx.s:21951  .debug_str:00000000000088e2 .LASF3092
C:\Users\CYMR90~1\AppData\Local\Temp\cchaIJlx.s:27264  .debug_str:000000000001e097 .LASF3093
C:\Users\CYMR90~1\AppData\Local\Temp\cchaIJlx.s:28396  .debug_str:0000000000022529 .LASF3094
C:\Users\CYMR90~1\AppData\Local\Temp\cchaIJlx.s:22323  .debug_str:000000000000a007 .LASF3095
C:\Users\CYMR90~1\AppData\Local\Temp\cchaIJlx.s:23249  .debug_str:000000000000dc6e .LASF3096
C:\Users\CYMR90~1\AppData\Local\Temp\cchaIJlx.s:29538  .debug_str:0000000000026ea4 .LASF3097
C:\Users\CYMR90~1\AppData\Local\Temp\cchaIJlx.s:23291  .debug_str:000000000000df23 .LASF3098
C:\Users\CYMR90~1\AppData\Local\Temp\cchaIJlx.s:26494  .debug_str:000000000001af43 .LASF3099
C:\Users\CYMR90~1\AppData\Local\Temp\cchaIJlx.s:26142  .debug_str:00000000000196b7 .LASF3100
C:\Users\CYMR90~1\AppData\Local\Temp\cchaIJlx.s:22771  .debug_str:000000000000bd85 .LASF3101
C:\Users\CYMR90~1\AppData\Local\Temp\cchaIJlx.s:27848  .debug_str:00000000000203b2 .LASF3102
C:\Users\CYMR90~1\AppData\Local\Temp\cchaIJlx.s:25696  .debug_str:0000000000017a3e .LASF3103
C:\Users\CYMR90~1\AppData\Local\Temp\cchaIJlx.s:29846  .debug_str:00000000000283c7 .LASF3104
C:\Users\CYMR90~1\AppData\Local\Temp\cchaIJlx.s:27364  .debug_str:000000000001e6a9 .LASF3105
C:\Users\CYMR90~1\AppData\Local\Temp\cchaIJlx.s:26692  .debug_str:000000000001baf3 .LASF3106
C:\Users\CYMR90~1\AppData\Local\Temp\cchaIJlx.s:29726  .debug_str:0000000000027b30 .LASF3107
C:\Users\CYMR90~1\AppData\Local\Temp\cchaIJlx.s:20313  .debug_str:0000000000002033 .LASF3108
C:\Users\CYMR90~1\AppData\Local\Temp\cchaIJlx.s:23483  .debug_str:000000000000eb55 .LASF3109
C:\Users\CYMR90~1\AppData\Local\Temp\cchaIJlx.s:23527  .debug_str:000000000000eda4 .LASF3110
C:\Users\CYMR90~1\AppData\Local\Temp\cchaIJlx.s:29378  .debug_str:0000000000026506 .LASF3111
C:\Users\CYMR90~1\AppData\Local\Temp\cchaIJlx.s:29730  .debug_str:0000000000027b6f .LASF3112
C:\Users\CYMR90~1\AppData\Local\Temp\cchaIJlx.s:25790  .debug_str:0000000000017fca .LASF3113
C:\Users\CYMR90~1\AppData\Local\Temp\cchaIJlx.s:28502  .debug_str:0000000000022bb5 .LASF3114
C:\Users\CYMR90~1\AppData\Local\Temp\cchaIJlx.s:20147  .debug_str:000000000000157d .LASF3115
C:\Users\CYMR90~1\AppData\Local\Temp\cchaIJlx.s:20449  .debug_str:0000000000002865 .LASF3116
C:\Users\CYMR90~1\AppData\Local\Temp\cchaIJlx.s:30312  .debug_str:000000000002a0fd .LASF3117
C:\Users\CYMR90~1\AppData\Local\Temp\cchaIJlx.s:21345  .debug_str:000000000000619b .LASF3118
C:\Users\CYMR90~1\AppData\Local\Temp\cchaIJlx.s:24569  .debug_str:000000000001312a .LASF3119
C:\Users\CYMR90~1\AppData\Local\Temp\cchaIJlx.s:23119  .debug_str:000000000000d510 .LASF3120
C:\Users\CYMR90~1\AppData\Local\Temp\cchaIJlx.s:28072  .debug_str:00000000000210ff .LASF3121
C:\Users\CYMR90~1\AppData\Local\Temp\cchaIJlx.s:26152  .debug_str:0000000000019793 .LASF3122
C:\Users\CYMR90~1\AppData\Local\Temp\cchaIJlx.s:22301  .debug_str:0000000000009e92 .LASF3123
C:\Users\CYMR90~1\AppData\Local\Temp\cchaIJlx.s:22057  .debug_str:0000000000008f67 .LASF3124
C:\Users\CYMR90~1\AppData\Local\Temp\cchaIJlx.s:22643  .debug_str:000000000000b4f1 .LASF3125
C:\Users\CYMR90~1\AppData\Local\Temp\cchaIJlx.s:20879  .debug_str:000000000000440c .LASF3126
C:\Users\CYMR90~1\AppData\Local\Temp\cchaIJlx.s:24003  .debug_str:0000000000010c0c .LASF3127
C:\Users\CYMR90~1\AppData\Local\Temp\cchaIJlx.s:25678  .debug_str:0000000000017935 .LASF3128
C:\Users\CYMR90~1\AppData\Local\Temp\cchaIJlx.s:21927  .debug_str:0000000000008745 .LASF3129
C:\Users\CYMR90~1\AppData\Local\Temp\cchaIJlx.s:22719  .debug_str:000000000000b9e2 .LASF3130
C:\Users\CYMR90~1\AppData\Local\Temp\cchaIJlx.s:22669  .debug_str:000000000000b6bf .LASF3131
C:\Users\CYMR90~1\AppData\Local\Temp\cchaIJlx.s:25582  .debug_str:00000000000172fd .LASF3132
C:\Users\CYMR90~1\AppData\Local\Temp\cchaIJlx.s:29464  .debug_str:0000000000026a31 .LASF3133
C:\Users\CYMR90~1\AppData\Local\Temp\cchaIJlx.s:22397  .debug_str:000000000000a4d9 .LASF3134
C:\Users\CYMR90~1\AppData\Local\Temp\cchaIJlx.s:20425  .debug_str:00000000000026b0 .LASF3135
C:\Users\CYMR90~1\AppData\Local\Temp\cchaIJlx.s:27390  .debug_str:000000000001e852 .LASF3136
C:\Users\CYMR90~1\AppData\Local\Temp\cchaIJlx.s:30486  .debug_str:000000000002abbd .LASF3137
C:\Users\CYMR90~1\AppData\Local\Temp\cchaIJlx.s:25966  .debug_str:0000000000018a8f .LASF3138
C:\Users\CYMR90~1\AppData\Local\Temp\cchaIJlx.s:20221  .debug_str:0000000000001aae .LASF3139
C:\Users\CYMR90~1\AppData\Local\Temp\cchaIJlx.s:30906  .debug_str:000000000002c76d .LASF3140
C:\Users\CYMR90~1\AppData\Local\Temp\cchaIJlx.s:25143  .debug_str:00000000000154d3 .LASF3141
C:\Users\CYMR90~1\AppData\Local\Temp\cchaIJlx.s:28900  .debug_str:00000000000244eb .LASF3142
C:\Users\CYMR90~1\AppData\Local\Temp\cchaIJlx.s:22337  .debug_str:000000000000a0db .LASF3143
C:\Users\CYMR90~1\AppData\Local\Temp\cchaIJlx.s:20245  .debug_str:0000000000001c3a .LASF3144
C:\Users\CYMR90~1\AppData\Local\Temp\cchaIJlx.s:21371  .debug_str:0000000000006315 .LASF3145
C:\Users\CYMR90~1\AppData\Local\Temp\cchaIJlx.s:26572  .debug_str:000000000001b427 .LASF3146
C:\Users\CYMR90~1\AppData\Local\Temp\cchaIJlx.s:20813  .debug_str:0000000000003f81 .LASF3147
C:\Users\CYMR90~1\AppData\Local\Temp\cchaIJlx.s:22063  .debug_str:0000000000008fca .LASF3148
C:\Users\CYMR90~1\AppData\Local\Temp\cchaIJlx.s:21117  .debug_str:000000000000536b .LASF3149
C:\Users\CYMR90~1\AppData\Local\Temp\cchaIJlx.s:22469  .debug_str:000000000000a8ef .LASF3150
C:\Users\CYMR90~1\AppData\Local\Temp\cchaIJlx.s:22789  .debug_str:000000000000bec6 .LASF3151
C:\Users\CYMR90~1\AppData\Local\Temp\cchaIJlx.s:20465  .debug_str:0000000000002960 .LASF3152
C:\Users\CYMR90~1\AppData\Local\Temp\cchaIJlx.s:28356  .debug_str:00000000000222c0 .LASF3153
C:\Users\CYMR90~1\AppData\Local\Temp\cchaIJlx.s:25049  .debug_str:0000000000014f7e .LASF3154
C:\Users\CYMR90~1\AppData\Local\Temp\cchaIJlx.s:21643  .debug_str:000000000000744c .LASF3155
C:\Users\CYMR90~1\AppData\Local\Temp\cchaIJlx.s:26550  .debug_str:000000000001b2e0 .LASF3156
C:\Users\CYMR90~1\AppData\Local\Temp\cchaIJlx.s:21253  .debug_str:0000000000005ba7 .LASF3157
C:\Users\CYMR90~1\AppData\Local\Temp\cchaIJlx.s:22153  .debug_str:0000000000009538 .LASF3158
C:\Users\CYMR90~1\AppData\Local\Temp\cchaIJlx.s:24407  .debug_str:000000000001267c .LASF3159
C:\Users\CYMR90~1\AppData\Local\Temp\cchaIJlx.s:28374  .debug_str:00000000000223bd .LASF3160
C:\Users\CYMR90~1\AppData\Local\Temp\cchaIJlx.s:29712  .debug_str:0000000000027a1d .LASF3161
C:\Users\CYMR90~1\AppData\Local\Temp\cchaIJlx.s:25780  .debug_str:0000000000017f3e .LASF3162
C:\Users\CYMR90~1\AppData\Local\Temp\cchaIJlx.s:23643  .debug_str:000000000000f4b7 .LASF3163
C:\Users\CYMR90~1\AppData\Local\Temp\cchaIJlx.s:28372  .debug_str:00000000000223a4 .LASF3164
C:\Users\CYMR90~1\AppData\Local\Temp\cchaIJlx.s:30146  .debug_str:0000000000029741 .LASF3165
C:\Users\CYMR90~1\AppData\Local\Temp\cchaIJlx.s:26410  .debug_str:000000000001a9a7 .LASF3166
C:\Users\CYMR90~1\AppData\Local\Temp\cchaIJlx.s:21511  .debug_str:0000000000006b97 .LASF3167
C:\Users\CYMR90~1\AppData\Local\Temp\cchaIJlx.s:21123  .debug_str:00000000000053af .LASF3168
C:\Users\CYMR90~1\AppData\Local\Temp\cchaIJlx.s:27308  .debug_str:000000000001e330 .LASF3169
C:\Users\CYMR90~1\AppData\Local\Temp\cchaIJlx.s:23349  .debug_str:000000000000e285 .LASF3170
C:\Users\CYMR90~1\AppData\Local\Temp\cchaIJlx.s:28572  .debug_str:0000000000022f85 .LASF3171
C:\Users\CYMR90~1\AppData\Local\Temp\cchaIJlx.s:25634  .debug_str:0000000000017625 .LASF3172
C:\Users\CYMR90~1\AppData\Local\Temp\cchaIJlx.s:29014  .debug_str:0000000000024c92 .LASF3173
C:\Users\CYMR90~1\AppData\Local\Temp\cchaIJlx.s:28412  .debug_str:0000000000022627 .LASF3174
C:\Users\CYMR90~1\AppData\Local\Temp\cchaIJlx.s:25692  .debug_str:0000000000017a15 .LASF3175
C:\Users\CYMR90~1\AppData\Local\Temp\cchaIJlx.s:30572  .debug_str:000000000002b0c8 .LASF3176
C:\Users\CYMR90~1\AppData\Local\Temp\cchaIJlx.s:30872  .debug_str:000000000002c4fa .LASF3177
C:\Users\CYMR90~1\AppData\Local\Temp\cchaIJlx.s:29310  .debug_str:00000000000260b1 .LASF3178
C:\Users\CYMR90~1\AppData\Local\Temp\cchaIJlx.s:20763  .debug_str:0000000000003c3d .LASF3179
C:\Users\CYMR90~1\AppData\Local\Temp\cchaIJlx.s:23575  .debug_str:000000000000f073 .LASF3180
C:\Users\CYMR90~1\AppData\Local\Temp\cchaIJlx.s:20733  .debug_str:0000000000003a5c .LASF3181
C:\Users\CYMR90~1\AppData\Local\Temp\cchaIJlx.s:24115  .debug_str:000000000001121d .LASF3182
C:\Users\CYMR90~1\AppData\Local\Temp\cchaIJlx.s:23937  .debug_str:0000000000010756 .LASF3183
C:\Users\CYMR90~1\AppData\Local\Temp\cchaIJlx.s:21481  .debug_str:00000000000069b0 .LASF3184
C:\Users\CYMR90~1\AppData\Local\Temp\cchaIJlx.s:24321  .debug_str:0000000000012106 .LASF3185
C:\Users\CYMR90~1\AppData\Local\Temp\cchaIJlx.s:23983  .debug_str:0000000000010a59 .LASF3186
C:\Users\CYMR90~1\AppData\Local\Temp\cchaIJlx.s:21319  .debug_str:0000000000005fe5 .LASF3187
C:\Users\CYMR90~1\AppData\Local\Temp\cchaIJlx.s:22403  .debug_str:000000000000a523 .LASF3188
C:\Users\CYMR90~1\AppData\Local\Temp\cchaIJlx.s:24807  .debug_str:000000000001401a .LASF3189
C:\Users\CYMR90~1\AppData\Local\Temp\cchaIJlx.s:27316  .debug_str:000000000001e3a0 .LASF3190
C:\Users\CYMR90~1\AppData\Local\Temp\cchaIJlx.s:20919  .debug_str:00000000000046d2 .LASF3191
C:\Users\CYMR90~1\AppData\Local\Temp\cchaIJlx.s:27846  .debug_str:000000000002039c .LASF3192
C:\Users\CYMR90~1\AppData\Local\Temp\cchaIJlx.s:28210  .debug_str:00000000000219f6 .LASF3193
C:\Users\CYMR90~1\AppData\Local\Temp\cchaIJlx.s:22211  .debug_str:00000000000098e3 .LASF3194
C:\Users\CYMR90~1\AppData\Local\Temp\cchaIJlx.s:21557  .debug_str:0000000000006e8d .LASF3195
C:\Users\CYMR90~1\AppData\Local\Temp\cchaIJlx.s:22073  .debug_str:0000000000009038 .LASF3196
C:\Users\CYMR90~1\AppData\Local\Temp\cchaIJlx.s:20525  .debug_str:0000000000002cfe .LASF3197
C:\Users\CYMR90~1\AppData\Local\Temp\cchaIJlx.s:30726  .debug_str:000000000002bb1d .LASF3198
C:\Users\CYMR90~1\AppData\Local\Temp\cchaIJlx.s:21355  .debug_str:0000000000006238 .LASF3199
C:\Users\CYMR90~1\AppData\Local\Temp\cchaIJlx.s:19919  .debug_str:000000000000077d .LASF3200
C:\Users\CYMR90~1\AppData\Local\Temp\cchaIJlx.s:20925  .debug_str:000000000000474f .LASF3201
C:\Users\CYMR90~1\AppData\Local\Temp\cchaIJlx.s:20707  .debug_str:00000000000038b0 .LASF3202
C:\Users\CYMR90~1\AppData\Local\Temp\cchaIJlx.s:24397  .debug_str:00000000000125ca .LASF3203
C:\Users\CYMR90~1\AppData\Local\Temp\cchaIJlx.s:27934  .debug_str:00000000000208f4 .LASF3204
C:\Users\CYMR90~1\AppData\Local\Temp\cchaIJlx.s:19855  .debug_str:00000000000003be .LASF3205
C:\Users\CYMR90~1\AppData\Local\Temp\cchaIJlx.s:27526  .debug_str:000000000001f062 .LASF3206
C:\Users\CYMR90~1\AppData\Local\Temp\cchaIJlx.s:26398  .debug_str:000000000001a8e5 .LASF3207
C:\Users\CYMR90~1\AppData\Local\Temp\cchaIJlx.s:27306  .debug_str:000000000001e310 .LASF3208
C:\Users\CYMR90~1\AppData\Local\Temp\cchaIJlx.s:26894  .debug_str:000000000001c848 .LASF3209
C:\Users\CYMR90~1\AppData\Local\Temp\cchaIJlx.s:25760  .debug_str:0000000000017e22 .LASF3210
C:\Users\CYMR90~1\AppData\Local\Temp\cchaIJlx.s:24281  .debug_str:0000000000011d94 .LASF3211
C:\Users\CYMR90~1\AppData\Local\Temp\cchaIJlx.s:22293  .debug_str:0000000000009dff .LASF3212
C:\Users\CYMR90~1\AppData\Local\Temp\cchaIJlx.s:27184  .debug_str:000000000001db96 .LASF3213
C:\Users\CYMR90~1\AppData\Local\Temp\cchaIJlx.s:30822  .debug_str:000000000002c210 .LASF3214
C:\Users\CYMR90~1\AppData\Local\Temp\cchaIJlx.s:26162  .debug_str:0000000000019899 .LASF3215
C:\Users\CYMR90~1\AppData\Local\Temp\cchaIJlx.s:26468  .debug_str:000000000001ad33 .LASF3216
C:\Users\CYMR90~1\AppData\Local\Temp\cchaIJlx.s:28942  .debug_str:0000000000024813 .LASF3217
C:\Users\CYMR90~1\AppData\Local\Temp\cchaIJlx.s:30308  .debug_str:000000000002a0ca .LASF3218
C:\Users\CYMR90~1\AppData\Local\Temp\cchaIJlx.s:24159  .debug_str:0000000000011517 .LASF3219
C:\Users\CYMR90~1\AppData\Local\Temp\cchaIJlx.s:27138  .debug_str:000000000001d923 .LASF3220
C:\Users\CYMR90~1\AppData\Local\Temp\cchaIJlx.s:23247  .debug_str:000000000000dc56 .LASF3221
C:\Users\CYMR90~1\AppData\Local\Temp\cchaIJlx.s:30086  .debug_str:000000000002938d .LASF3222
C:\Users\CYMR90~1\AppData\Local\Temp\cchaIJlx.s:21655  .debug_str:0000000000007503 .LASF3223
C:\Users\CYMR90~1\AppData\Local\Temp\cchaIJlx.s:30354  .debug_str:000000000002a3d4 .LASF3224
C:\Users\CYMR90~1\AppData\Local\Temp\cchaIJlx.s:29156  .debug_str:0000000000025746 .LASF3225
C:\Users\CYMR90~1\AppData\Local\Temp\cchaIJlx.s:20691  .debug_str:00000000000037bb .LASF3226
C:\Users\CYMR90~1\AppData\Local\Temp\cchaIJlx.s:23879  .debug_str:00000000000103cc .LASF3227
C:\Users\CYMR90~1\AppData\Local\Temp\cchaIJlx.s:29816  .debug_str:00000000000281c2 .LASF3228
C:\Users\CYMR90~1\AppData\Local\Temp\cchaIJlx.s:24343  .debug_str:000000000001225a .LASF3229
C:\Users\CYMR90~1\AppData\Local\Temp\cchaIJlx.s:22465  .debug_str:000000000000a8c7 .LASF3230
C:\Users\CYMR90~1\AppData\Local\Temp\cchaIJlx.s:30630  .debug_str:000000000002b4a9 .LASF3231
C:\Users\CYMR90~1\AppData\Local\Temp\cchaIJlx.s:22549  .debug_str:000000000000aed1 .LASF3232
C:\Users\CYMR90~1\AppData\Local\Temp\cchaIJlx.s:26216  .debug_str:0000000000019be9 .LASF3233
C:\Users\CYMR90~1\AppData\Local\Temp\cchaIJlx.s:30382  .debug_str:000000000002a59d .LASF3234
C:\Users\CYMR90~1\AppData\Local\Temp\cchaIJlx.s:25960  .debug_str:0000000000018a06 .LASF3235
C:\Users\CYMR90~1\AppData\Local\Temp\cchaIJlx.s:30420  .debug_str:000000000002a7ae .LASF3236
C:\Users\CYMR90~1\AppData\Local\Temp\cchaIJlx.s:28038  .debug_str:0000000000020f00 .LASF3237
C:\Users\CYMR90~1\AppData\Local\Temp\cchaIJlx.s:29396  .debug_str:0000000000026645 .LASF3238
C:\Users\CYMR90~1\AppData\Local\Temp\cchaIJlx.s:23095  .debug_str:000000000000d35a .LASF3239
C:\Users\CYMR90~1\AppData\Local\Temp\cchaIJlx.s:28790  .debug_str:0000000000023ce7 .LASF3240
C:\Users\CYMR90~1\AppData\Local\Temp\cchaIJlx.s:24933  .debug_str:00000000000147e9 .LASF3241
C:\Users\CYMR90~1\AppData\Local\Temp\cchaIJlx.s:23773  .debug_str:000000000000fd1b .LASF3242
C:\Users\CYMR90~1\AppData\Local\Temp\cchaIJlx.s:26882  .debug_str:000000000001c6de .LASF3243
C:\Users\CYMR90~1\AppData\Local\Temp\cchaIJlx.s:29650  .debug_str:00000000000275cb .LASF3244
C:\Users\CYMR90~1\AppData\Local\Temp\cchaIJlx.s:20713  .debug_str:000000000000390c .LASF3245
C:\Users\CYMR90~1\AppData\Local\Temp\cchaIJlx.s:27116  .debug_str:000000000001d794 .LASF3246
C:\Users\CYMR90~1\AppData\Local\Temp\cchaIJlx.s:29826  .debug_str:0000000000028266 .LASF3247
C:\Users\CYMR90~1\AppData\Local\Temp\cchaIJlx.s:29552  .debug_str:0000000000026f81 .LASF3248
C:\Users\CYMR90~1\AppData\Local\Temp\cchaIJlx.s:28284  .debug_str:0000000000021e74 .LASF3249
C:\Users\CYMR90~1\AppData\Local\Temp\cchaIJlx.s:25119  .debug_str:0000000000015397 .LASF3250
C:\Users\CYMR90~1\AppData\Local\Temp\cchaIJlx.s:22059  .debug_str:0000000000008f8b .LASF3251
C:\Users\CYMR90~1\AppData\Local\Temp\cchaIJlx.s:27020  .debug_str:000000000001d182 .LASF3252
C:\Users\CYMR90~1\AppData\Local\Temp\cchaIJlx.s:24493  .debug_str:0000000000012c18 .LASF3253
C:\Users\CYMR90~1\AppData\Local\Temp\cchaIJlx.s:22527  .debug_str:000000000000ac97 .LASF3254
C:\Users\CYMR90~1\AppData\Local\Temp\cchaIJlx.s:26952  .debug_str:000000000001cbee .LASF3255
C:\Users\CYMR90~1\AppData\Local\Temp\cchaIJlx.s:29034  .debug_str:0000000000024dc1 .LASF3256
C:\Users\CYMR90~1\AppData\Local\Temp\cchaIJlx.s:21009  .debug_str:0000000000004cd9 .LASF3257
C:\Users\CYMR90~1\AppData\Local\Temp\cchaIJlx.s:30322  .debug_str:000000000002a1b7 .LASF3258
C:\Users\CYMR90~1\AppData\Local\Temp\cchaIJlx.s:29222  .debug_str:0000000000025b53 .LASF3259
C:\Users\CYMR90~1\AppData\Local\Temp\cchaIJlx.s:26258  .debug_str:0000000000019e50 .LASF3260
C:\Users\CYMR90~1\AppData\Local\Temp\cchaIJlx.s:26264  .debug_str:0000000000019eba .LASF3261
C:\Users\CYMR90~1\AppData\Local\Temp\cchaIJlx.s:29508  .debug_str:0000000000026d00 .LASF3262
C:\Users\CYMR90~1\AppData\Local\Temp\cchaIJlx.s:24377  .debug_str:000000000001246a .LASF3263
C:\Users\CYMR90~1\AppData\Local\Temp\cchaIJlx.s:30294  .debug_str:000000000002a015 .LASF3264
C:\Users\CYMR90~1\AppData\Local\Temp\cchaIJlx.s:25924  .debug_str:00000000000187dc .LASF3265
C:\Users\CYMR90~1\AppData\Local\Temp\cchaIJlx.s:29582  .debug_str:00000000000271fa .LASF3266
C:\Users\CYMR90~1\AppData\Local\Temp\cchaIJlx.s:20897  .debug_str:0000000000004531 .LASF3267
C:\Users\CYMR90~1\AppData\Local\Temp\cchaIJlx.s:23973  .debug_str:0000000000010994 .LASF3268
C:\Users\CYMR90~1\AppData\Local\Temp\cchaIJlx.s:27288  .debug_str:000000000001e1f1 .LASF3269
C:\Users\CYMR90~1\AppData\Local\Temp\cchaIJlx.s:24305  .debug_str:0000000000011fd8 .LASF3270
C:\Users\CYMR90~1\AppData\Local\Temp\cchaIJlx.s:23729  .debug_str:000000000000fa56 .LASF3271
C:\Users\CYMR90~1\AppData\Local\Temp\cchaIJlx.s:24491  .debug_str:0000000000012bdf .LASF3272
C:\Users\CYMR90~1\AppData\Local\Temp\cchaIJlx.s:28510  .debug_str:0000000000022c0b .LASF3273
C:\Users\CYMR90~1\AppData\Local\Temp\cchaIJlx.s:25303  .debug_str:0000000000015f11 .LASF3274
C:\Users\CYMR90~1\AppData\Local\Temp\cchaIJlx.s:26864  .debug_str:000000000001c589 .LASF3275
C:\Users\CYMR90~1\AppData\Local\Temp\cchaIJlx.s:29666  .debug_str:00000000000276df .LASF3276
C:\Users\CYMR90~1\AppData\Local\Temp\cchaIJlx.s:21761  .debug_str:0000000000007bd6 .LASF3277
C:\Users\CYMR90~1\AppData\Local\Temp\cchaIJlx.s:21065  .debug_str:0000000000005017 .LASF3278
C:\Users\CYMR90~1\AppData\Local\Temp\cchaIJlx.s:24441  .debug_str:00000000000128bd .LASF3279
C:\Users\CYMR90~1\AppData\Local\Temp\cchaIJlx.s:20073  .debug_str:0000000000001163 .LASF3280
C:\Users\CYMR90~1\AppData\Local\Temp\cchaIJlx.s:20165  .debug_str:0000000000001680 .LASF3281
C:\Users\CYMR90~1\AppData\Local\Temp\cchaIJlx.s:29776  .debug_str:0000000000027eaf .LASF3282
C:\Users\CYMR90~1\AppData\Local\Temp\cchaIJlx.s:26536  .debug_str:000000000001b1e2 .LASF3283
C:\Users\CYMR90~1\AppData\Local\Temp\cchaIJlx.s:23011  .debug_str:000000000000cd50 .LASF3284
C:\Users\CYMR90~1\AppData\Local\Temp\cchaIJlx.s:24893  .debug_str:0000000000014562 .LASF3285
C:\Users\CYMR90~1\AppData\Local\Temp\cchaIJlx.s:25872  .debug_str:00000000000184dc .LASF3286
C:\Users\CYMR90~1\AppData\Local\Temp\cchaIJlx.s:23727  .debug_str:000000000000fa3d .LASF3287
C:\Users\CYMR90~1\AppData\Local\Temp\cchaIJlx.s:27342  .debug_str:000000000001e540 .LASF3288
C:\Users\CYMR90~1\AppData\Local\Temp\cchaIJlx.s:22827  .debug_str:000000000000c132 .LASF3289
C:\Users\CYMR90~1\AppData\Local\Temp\cchaIJlx.s:22401  .debug_str:000000000000a500 .LASF3290
C:\Users\CYMR90~1\AppData\Local\Temp\cchaIJlx.s:25363  .debug_str:00000000000162d2 .LASF3291
C:\Users\CYMR90~1\AppData\Local\Temp\cchaIJlx.s:26314  .debug_str:000000000001a19c .LASF3292
C:\Users\CYMR90~1\AppData\Local\Temp\cchaIJlx.s:27590  .debug_str:000000000001f431 .LASF3293
C:\Users\CYMR90~1\AppData\Local\Temp\cchaIJlx.s:23801  .debug_str:000000000000fef5 .LASF3294
C:\Users\CYMR90~1\AppData\Local\Temp\cchaIJlx.s:30900  .debug_str:000000000002c6fd .LASF3295
C:\Users\CYMR90~1\AppData\Local\Temp\cchaIJlx.s:25680  .debug_str:000000000001794c .LASF3296
C:\Users\CYMR90~1\AppData\Local\Temp\cchaIJlx.s:28308  .debug_str:0000000000021fe6 .LASF3297
C:\Users\CYMR90~1\AppData\Local\Temp\cchaIJlx.s:22707  .debug_str:000000000000b946 .LASF3298
C:\Users\CYMR90~1\AppData\Local\Temp\cchaIJlx.s:28586  .debug_str:0000000000023063 .LASF3299
C:\Users\CYMR90~1\AppData\Local\Temp\cchaIJlx.s:24771  .debug_str:0000000000013dc0 .LASF3300
C:\Users\CYMR90~1\AppData\Local\Temp\cchaIJlx.s:27484  .debug_str:000000000001ed90 .LASF3301
C:\Users\CYMR90~1\AppData\Local\Temp\cchaIJlx.s:23559  .debug_str:000000000000ef7e .LASF3302
C:\Users\CYMR90~1\AppData\Local\Temp\cchaIJlx.s:30288  .debug_str:0000000000029fbb .LASF3303
C:\Users\CYMR90~1\AppData\Local\Temp\cchaIJlx.s:23875  .debug_str:000000000001038f .LASF3304
C:\Users\CYMR90~1\AppData\Local\Temp\cchaIJlx.s:29906  .debug_str:00000000000287ea .LASF3305
C:\Users\CYMR90~1\AppData\Local\Temp\cchaIJlx.s:25063  .debug_str:0000000000015061 .LASF3306
C:\Users\CYMR90~1\AppData\Local\Temp\cchaIJlx.s:24191  .debug_str:00000000000117b6 .LASF3307
C:\Users\CYMR90~1\AppData\Local\Temp\cchaIJlx.s:22097  .debug_str:00000000000091be .LASF3308
C:\Users\CYMR90~1\AppData\Local\Temp\cchaIJlx.s:21685  .debug_str:00000000000076e1 .LASF3309
C:\Users\CYMR90~1\AppData\Local\Temp\cchaIJlx.s:31020  .debug_str:000000000002cea8 .LASF3310
C:\Users\CYMR90~1\AppData\Local\Temp\cchaIJlx.s:20853  .debug_str:0000000000004255 .LASF3311
C:\Users\CYMR90~1\AppData\Local\Temp\cchaIJlx.s:30546  .debug_str:000000000002af23 .LASF3312
C:\Users\CYMR90~1\AppData\Local\Temp\cchaIJlx.s:23167  .debug_str:000000000000d7d9 .LASF3313
C:\Users\CYMR90~1\AppData\Local\Temp\cchaIJlx.s:25850  .debug_str:0000000000018361 .LASF3314
C:\Users\CYMR90~1\AppData\Local\Temp\cchaIJlx.s:25301  .debug_str:0000000000015ef9 .LASF3315
C:\Users\CYMR90~1\AppData\Local\Temp\cchaIJlx.s:28598  .debug_str:0000000000023103 .LASF3316
C:\Users\CYMR90~1\AppData\Local\Temp\cchaIJlx.s:20085  .debug_str:0000000000001209 .LASF3317
C:\Users\CYMR90~1\AppData\Local\Temp\cchaIJlx.s:21025  .debug_str:0000000000004de2 .LASF3318
C:\Users\CYMR90~1\AppData\Local\Temp\cchaIJlx.s:28464  .debug_str:0000000000022908 .LASF3319
C:\Users\CYMR90~1\AppData\Local\Temp\cchaIJlx.s:21271  .debug_str:0000000000005cd6 .LASF3320
C:\Users\CYMR90~1\AppData\Local\Temp\cchaIJlx.s:28774  .debug_str:0000000000023bce .LASF3321
C:\Users\CYMR90~1\AppData\Local\Temp\cchaIJlx.s:29184  .debug_str:000000000002591f .LASF3322
C:\Users\CYMR90~1\AppData\Local\Temp\cchaIJlx.s:27922  .debug_str:000000000002086d .LASF3323
C:\Users\CYMR90~1\AppData\Local\Temp\cchaIJlx.s:25207  .debug_str:00000000000158ab .LASF3324
C:\Users\CYMR90~1\AppData\Local\Temp\cchaIJlx.s:24953  .debug_str:000000000001490c .LASF3325
C:\Users\CYMR90~1\AppData\Local\Temp\cchaIJlx.s:25670  .debug_str:00000000000178a2 .LASF3326
C:\Users\CYMR90~1\AppData\Local\Temp\cchaIJlx.s:27814  .debug_str:0000000000020193 .LASF3327
C:\Users\CYMR90~1\AppData\Local\Temp\cchaIJlx.s:21651  .debug_str:00000000000074d5 .LASF3328
C:\Users\CYMR90~1\AppData\Local\Temp\cchaIJlx.s:19849  .debug_str:0000000000000365 .LASF3329
C:\Users\CYMR90~1\AppData\Local\Temp\cchaIJlx.s:29930  .debug_str:0000000000028973 .LASF3330
C:\Users\CYMR90~1\AppData\Local\Temp\cchaIJlx.s:19981  .debug_str:0000000000000bb7 .LASF3331
C:\Users\CYMR90~1\AppData\Local\Temp\cchaIJlx.s:28288  .debug_str:0000000000021ec4 .LASF3332
C:\Users\CYMR90~1\AppData\Local\Temp\cchaIJlx.s:25099  .debug_str:000000000001529e .LASF3333
C:\Users\CYMR90~1\AppData\Local\Temp\cchaIJlx.s:24751  .debug_str:0000000000013c95 .LASF3334
C:\Users\CYMR90~1\AppData\Local\Temp\cchaIJlx.s:23037  .debug_str:000000000000cf13 .LASF3335
C:\Users\CYMR90~1\AppData\Local\Temp\cchaIJlx.s:28588  .debug_str:0000000000023089 .LASF3336
C:\Users\CYMR90~1\AppData\Local\Temp\cchaIJlx.s:26580  .debug_str:000000000001b4b2 .LASF3337
C:\Users\CYMR90~1\AppData\Local\Temp\cchaIJlx.s:25361  .debug_str:00000000000162b5 .LASF3338
C:\Users\CYMR90~1\AppData\Local\Temp\cchaIJlx.s:29032  .debug_str:0000000000024da3 .LASF3339
C:\Users\CYMR90~1\AppData\Local\Temp\cchaIJlx.s:23693  .debug_str:000000000000f852 .LASF3340
C:\Users\CYMR90~1\AppData\Local\Temp\cchaIJlx.s:28508  .debug_str:0000000000022bef .LASF3341
C:\Users\CYMR90~1\AppData\Local\Temp\cchaIJlx.s:24587  .debug_str:0000000000013266 .LASF3342
C:\Users\CYMR90~1\AppData\Local\Temp\cchaIJlx.s:27066  .debug_str:000000000001d432 .LASF3343
C:\Users\CYMR90~1\AppData\Local\Temp\cchaIJlx.s:21479  .debug_str:0000000000006999 .LASF3344
C:\Users\CYMR90~1\AppData\Local\Temp\cchaIJlx.s:30940  .debug_str:000000000002c978 .LASF3345
C:\Users\CYMR90~1\AppData\Local\Temp\cchaIJlx.s:21671  .debug_str:00000000000075fe .LASF3346
C:\Users\CYMR90~1\AppData\Local\Temp\cchaIJlx.s:20781  .debug_str:0000000000003d68 .LASF3347
C:\Users\CYMR90~1\AppData\Local\Temp\cchaIJlx.s:30620  .debug_str:000000000002b3dd .LASF3348
C:\Users\CYMR90~1\AppData\Local\Temp\cchaIJlx.s:22555  .debug_str:000000000000af32 .LASF3349
C:\Users\CYMR90~1\AppData\Local\Temp\cchaIJlx.s:24743  .debug_str:0000000000013c35 .LASF3350
C:\Users\CYMR90~1\AppData\Local\Temp\cchaIJlx.s:21057  .debug_str:0000000000004fb7 .LASF3351
C:\Users\CYMR90~1\AppData\Local\Temp\cchaIJlx.s:22437  .debug_str:000000000000a715 .LASF3352
C:\Users\CYMR90~1\AppData\Local\Temp\cchaIJlx.s:21249  .debug_str:0000000000005b67 .LASF3353
C:\Users\CYMR90~1\AppData\Local\Temp\cchaIJlx.s:22651  .debug_str:000000000000b55f .LASF3354
C:\Users\CYMR90~1\AppData\Local\Temp\cchaIJlx.s:21183  .debug_str:000000000000576a .LASF3355
C:\Users\CYMR90~1\AppData\Local\Temp\cchaIJlx.s:24299  .debug_str:0000000000011f67 .LASF3356
C:\Users\CYMR90~1\AppData\Local\Temp\cchaIJlx.s:29684  .debug_str:0000000000027858 .LASF3357
C:\Users\CYMR90~1\AppData\Local\Temp\cchaIJlx.s:26104  .debug_str:000000000001948b .LASF3358
C:\Users\CYMR90~1\AppData\Local\Temp\cchaIJlx.s:25409  .debug_str:00000000000165ec .LASF3359
C:\Users\CYMR90~1\AppData\Local\Temp\cchaIJlx.s:30970  .debug_str:000000000002cbaf .LASF3360
C:\Users\CYMR90~1\AppData\Local\Temp\cchaIJlx.s:27560  .debug_str:000000000001f26a .LASF3361
C:\Users\CYMR90~1\AppData\Local\Temp\cchaIJlx.s:24229  .debug_str:0000000000011a7d .LASF3362
C:\Users\CYMR90~1\AppData\Local\Temp\cchaIJlx.s:21377  .debug_str:0000000000006352 .LASF3363
C:\Users\CYMR90~1\AppData\Local\Temp\cchaIJlx.s:28642  .debug_str:00000000000233ca .LASF3364
C:\Users\CYMR90~1\AppData\Local\Temp\cchaIJlx.s:25257  .debug_str:0000000000015bbd .LASF3365
C:\Users\CYMR90~1\AppData\Local\Temp\cchaIJlx.s:21891  .debug_str:0000000000008554 .LASF3366
C:\Users\CYMR90~1\AppData\Local\Temp\cchaIJlx.s:25796  .debug_str:0000000000017ffd .LASF3367
C:\Users\CYMR90~1\AppData\Local\Temp\cchaIJlx.s:30680  .debug_str:000000000002b818 .LASF3368
C:\Users\CYMR90~1\AppData\Local\Temp\cchaIJlx.s:29258  .debug_str:0000000000025d6b .LASF3369
C:\Users\CYMR90~1\AppData\Local\Temp\cchaIJlx.s:20185  .debug_str:0000000000001878 .LASF3370
C:\Users\CYMR90~1\AppData\Local\Temp\cchaIJlx.s:21223  .debug_str:00000000000059ab .LASF3371
C:\Users\CYMR90~1\AppData\Local\Temp\cchaIJlx.s:27350  .debug_str:000000000001e58c .LASF3372
C:\Users\CYMR90~1\AppData\Local\Temp\cchaIJlx.s:27568  .debug_str:000000000001f2e8 .LASF3373
C:\Users\CYMR90~1\AppData\Local\Temp\cchaIJlx.s:28688  .debug_str:00000000000236f6 .LASF3374
C:\Users\CYMR90~1\AppData\Local\Temp\cchaIJlx.s:20181  .debug_str:0000000000001831 .LASF3375
C:\Users\CYMR90~1\AppData\Local\Temp\cchaIJlx.s:25906  .debug_str:0000000000018688 .LASF3376
C:\Users\CYMR90~1\AppData\Local\Temp\cchaIJlx.s:30920  .debug_str:000000000002c851 .LASF3377
C:\Users\CYMR90~1\AppData\Local\Temp\cchaIJlx.s:22625  .debug_str:000000000000b344 .LASF3378
C:\Users\CYMR90~1\AppData\Local\Temp\cchaIJlx.s:25778  .debug_str:0000000000017f1e .LASF3379
C:\Users\CYMR90~1\AppData\Local\Temp\cchaIJlx.s:20117  .debug_str:00000000000013eb .LASF3380
C:\Users\CYMR90~1\AppData\Local\Temp\cchaIJlx.s:24145  .debug_str:000000000001142f .LASF3381
C:\Users\CYMR90~1\AppData\Local\Temp\cchaIJlx.s:22835  .debug_str:000000000000c1a8 .LASF3382
C:\Users\CYMR90~1\AppData\Local\Temp\cchaIJlx.s:23099  .debug_str:000000000000d3a5 .LASF3383
C:\Users\CYMR90~1\AppData\Local\Temp\cchaIJlx.s:30676  .debug_str:000000000002b7cd .LASF3384
C:\Users\CYMR90~1\AppData\Local\Temp\cchaIJlx.s:27764  .debug_str:000000000001fee5 .LASF3385
C:\Users\CYMR90~1\AppData\Local\Temp\cchaIJlx.s:23589  .debug_str:000000000000f16a .LASF3386
C:\Users\CYMR90~1\AppData\Local\Temp\cchaIJlx.s:29182  .debug_str:00000000000258f7 .LASF3387
C:\Users\CYMR90~1\AppData\Local\Temp\cchaIJlx.s:28144  .debug_str:00000000000215ef .LASF3388
C:\Users\CYMR90~1\AppData\Local\Temp\cchaIJlx.s:23843  .debug_str:00000000000101b8 .LASF3389
C:\Users\CYMR90~1\AppData\Local\Temp\cchaIJlx.s:27762  .debug_str:000000000001febe .LASF3390
C:\Users\CYMR90~1\AppData\Local\Temp\cchaIJlx.s:24901  .debug_str:0000000000014616 .LASF3391
C:\Users\CYMR90~1\AppData\Local\Temp\cchaIJlx.s:30556  .debug_str:000000000002afac .LASF3392
C:\Users\CYMR90~1\AppData\Local\Temp\cchaIJlx.s:22947  .debug_str:000000000000c9a5 .LASF3393
C:\Users\CYMR90~1\AppData\Local\Temp\cchaIJlx.s:27794  .debug_str:000000000002007f .LASF3394
C:\Users\CYMR90~1\AppData\Local\Temp\cchaIJlx.s:29316  .debug_str:0000000000026110 .LASF3395
C:\Users\CYMR90~1\AppData\Local\Temp\cchaIJlx.s:30974  .debug_str:000000000002cbec .LASF3396
C:\Users\CYMR90~1\AppData\Local\Temp\cchaIJlx.s:22273  .debug_str:0000000000009cd5 .LASF3397
C:\Users\CYMR90~1\AppData\Local\Temp\cchaIJlx.s:26144  .debug_str:00000000000196da .LASF3398
C:\Users\CYMR90~1\AppData\Local\Temp\cchaIJlx.s:23563  .debug_str:000000000000efae .LASF3399
C:\Users\CYMR90~1\AppData\Local\Temp\cchaIJlx.s:27482  .debug_str:000000000001ed72 .LASF3400
C:\Users\CYMR90~1\AppData\Local\Temp\cchaIJlx.s:25958  .debug_str:00000000000189e7 .LASF3401
C:\Users\CYMR90~1\AppData\Local\Temp\cchaIJlx.s:30484  .debug_str:000000000002ab9d .LASF3402
C:\Users\CYMR90~1\AppData\Local\Temp\cchaIJlx.s:26730  .debug_str:000000000001bda9 .LASF3403
C:\Users\CYMR90~1\AppData\Local\Temp\cchaIJlx.s:20767  .debug_str:0000000000003c8b .LASF3404
C:\Users\CYMR90~1\AppData\Local\Temp\cchaIJlx.s:22539  .debug_str:000000000000ad8d .LASF3405
C:\Users\CYMR90~1\AppData\Local\Temp\cchaIJlx.s:23585  .debug_str:000000000000f11c .LASF3406
C:\Users\CYMR90~1\AppData\Local\Temp\cchaIJlx.s:28220  .debug_str:0000000000021a8b .LASF3407
C:\Users\CYMR90~1\AppData\Local\Temp\cchaIJlx.s:25469  .debug_str:0000000000016ab2 .LASF3408
C:\Users\CYMR90~1\AppData\Local\Temp\cchaIJlx.s:27252  .debug_str:000000000001dfb7 .LASF3409
C:\Users\CYMR90~1\AppData\Local\Temp\cchaIJlx.s:26486  .debug_str:000000000001ae65 .LASF3410
C:\Users\CYMR90~1\AppData\Local\Temp\cchaIJlx.s:28244  .debug_str:0000000000021c2c .LASF3411
C:\Users\CYMR90~1\AppData\Local\Temp\cchaIJlx.s:22505  .debug_str:000000000000ab49 .LASF3412
C:\Users\CYMR90~1\AppData\Local\Temp\cchaIJlx.s:24867  .debug_str:00000000000143a3 .LASF3413
C:\Users\CYMR90~1\AppData\Local\Temp\cchaIJlx.s:21321  .debug_str:0000000000006001 .LASF3414
C:\Users\CYMR90~1\AppData\Local\Temp\cchaIJlx.s:27976  .debug_str:0000000000020bbf .LASF3415
C:\Users\CYMR90~1\AppData\Local\Temp\cchaIJlx.s:24479  .debug_str:0000000000012b19 .LASF3416
C:\Users\CYMR90~1\AppData\Local\Temp\cchaIJlx.s:26554  .debug_str:000000000001b31a .LASF3417
C:\Users\CYMR90~1\AppData\Local\Temp\cchaIJlx.s:26426  .debug_str:000000000001aabb .LASF3418
C:\Users\CYMR90~1\AppData\Local\Temp\cchaIJlx.s:21077  .debug_str:00000000000050f6 .LASF3419
C:\Users\CYMR90~1\AppData\Local\Temp\cchaIJlx.s:27838  .debug_str:00000000000202ff .LASF3420
C:\Users\CYMR90~1\AppData\Local\Temp\cchaIJlx.s:24553  .debug_str:000000000001300d .LASF3421
C:\Users\CYMR90~1\AppData\Local\Temp\cchaIJlx.s:22381  .debug_str:000000000000a3ba .LASF3422
C:\Users\CYMR90~1\AppData\Local\Temp\cchaIJlx.s:26884  .debug_str:000000000001c703 .LASF3423
C:\Users\CYMR90~1\AppData\Local\Temp\cchaIJlx.s:21589  .debug_str:0000000000007084 .LASF3424
C:\Users\CYMR90~1\AppData\Local\Temp\cchaIJlx.s:29502  .debug_str:0000000000026c9c .LASF3425
C:\Users\CYMR90~1\AppData\Local\Temp\cchaIJlx.s:20989  .debug_str:0000000000004ba2 .LASF3426
C:\Users\CYMR90~1\AppData\Local\Temp\cchaIJlx.s:27892  .debug_str:00000000000206c2 .LASF3427
C:\Users\CYMR90~1\AppData\Local\Temp\cchaIJlx.s:20297  .debug_str:0000000000001f42 .LASF3428
C:\Users\CYMR90~1\AppData\Local\Temp\cchaIJlx.s:25854  .debug_str:0000000000018398 .LASF3429
C:\Users\CYMR90~1\AppData\Local\Temp\cchaIJlx.s:25570  .debug_str:0000000000017257 .LASF3430
C:\Users\CYMR90~1\AppData\Local\Temp\cchaIJlx.s:26608  .debug_str:000000000001b647 .LASF3431
C:\Users\CYMR90~1\AppData\Local\Temp\cchaIJlx.s:23261  .debug_str:000000000000dd5d .LASF3432
C:\Users\CYMR90~1\AppData\Local\Temp\cchaIJlx.s:27972  .debug_str:0000000000020b82 .LASF3433
C:\Users\CYMR90~1\AppData\Local\Temp\cchaIJlx.s:28840  .debug_str:00000000000240dc .LASF3434
C:\Users\CYMR90~1\AppData\Local\Temp\cchaIJlx.s:29696  .debug_str:000000000002790b .LASF3435
C:\Users\CYMR90~1\AppData\Local\Temp\cchaIJlx.s:28096  .debug_str:0000000000021327 .LASF3436
C:\Users\CYMR90~1\AppData\Local\Temp\cchaIJlx.s:29340  .debug_str:000000000002626e .LASF3437
C:\Users\CYMR90~1\AppData\Local\Temp\cchaIJlx.s:21609  .debug_str:0000000000007212 .LASF3438
C:\Users\CYMR90~1\AppData\Local\Temp\cchaIJlx.s:26616  .debug_str:000000000001b6d4 .LASF3439
C:\Users\CYMR90~1\AppData\Local\Temp\cchaIJlx.s:20389  .debug_str:0000000000002446 .LASF3440
C:\Users\CYMR90~1\AppData\Local\Temp\cchaIJlx.s:29100  .debug_str:00000000000252f3 .LASF3441
C:\Users\CYMR90~1\AppData\Local\Temp\cchaIJlx.s:22839  .debug_str:000000000000c1ed .LASF3442
C:\Users\CYMR90~1\AppData\Local\Temp\cchaIJlx.s:25335  .debug_str:0000000000016128 .LASF3443
C:\Users\CYMR90~1\AppData\Local\Temp\cchaIJlx.s:29532  .debug_str:0000000000026e56 .LASF3444
C:\Users\CYMR90~1\AppData\Local\Temp\cchaIJlx.s:22493  .debug_str:000000000000aa79 .LASF3445
C:\Users\CYMR90~1\AppData\Local\Temp\cchaIJlx.s:23339  .debug_str:000000000000e1fc .LASF3446
C:\Users\CYMR90~1\AppData\Local\Temp\cchaIJlx.s:20993  .debug_str:0000000000004bf1 .LASF3447
C:\Users\CYMR90~1\AppData\Local\Temp\cchaIJlx.s:19975  .debug_str:0000000000000b3d .LASF3448
C:\Users\CYMR90~1\AppData\Local\Temp\cchaIJlx.s:28254  .debug_str:0000000000021cd0 .LASF3449
C:\Users\CYMR90~1\AppData\Local\Temp\cchaIJlx.s:22511  .debug_str:000000000000ab9e .LASF3450
C:\Users\CYMR90~1\AppData\Local\Temp\cchaIJlx.s:20683  .debug_str:000000000000371b .LASF3451
C:\Users\CYMR90~1\AppData\Local\Temp\cchaIJlx.s:20143  .debug_str:0000000000001543 .LASF3452
C:\Users\CYMR90~1\AppData\Local\Temp\cchaIJlx.s:25874  .debug_str:00000000000184f5 .LASF3453
C:\Users\CYMR90~1\AppData\Local\Temp\cchaIJlx.s:25357  .debug_str:0000000000016275 .LASF3454
C:\Users\CYMR90~1\AppData\Local\Temp\cchaIJlx.s:24539  .debug_str:0000000000012f26 .LASF3455
C:\Users\CYMR90~1\AppData\Local\Temp\cchaIJlx.s:26222  .debug_str:0000000000019c52 .LASF3456
C:\Users\CYMR90~1\AppData\Local\Temp\cchaIJlx.s:30446  .debug_str:000000000002a95d .LASF3457
C:\Users\CYMR90~1\AppData\Local\Temp\cchaIJlx.s:25421  .debug_str:00000000000166c6 .LASF3458
C:\Users\CYMR90~1\AppData\Local\Temp\cchaIJlx.s:24457  .debug_str:00000000000129f2 .LASF3459
C:\Users\CYMR90~1\AppData\Local\Temp\cchaIJlx.s:26510  .debug_str:000000000001b029 .LASF3460
C:\Users\CYMR90~1\AppData\Local\Temp\cchaIJlx.s:29370  .debug_str:000000000002646e .LASF3461
C:\Users\CYMR90~1\AppData\Local\Temp\cchaIJlx.s:21825  .debug_str:0000000000008100 .LASF3462
C:\Users\CYMR90~1\AppData\Local\Temp\cchaIJlx.s:20513  .debug_str:0000000000002c2e .LASF3463
C:\Users\CYMR90~1\AppData\Local\Temp\cchaIJlx.s:28182  .debug_str:0000000000021811 .LASF3464
C:\Users\CYMR90~1\AppData\Local\Temp\cchaIJlx.s:27516  .debug_str:000000000001efce .LASF3465
C:\Users\CYMR90~1\AppData\Local\Temp\cchaIJlx.s:27806  .debug_str:0000000000020127 .LASF3466
C:\Users\CYMR90~1\AppData\Local\Temp\cchaIJlx.s:28338  .debug_str:00000000000221c4 .LASF3467
C:\Users\CYMR90~1\AppData\Local\Temp\cchaIJlx.s:23971  .debug_str:000000000001097c .LASF3468
C:\Users\CYMR90~1\AppData\Local\Temp\cchaIJlx.s:21535  .debug_str:0000000000006d1a .LASF3469
C:\Users\CYMR90~1\AppData\Local\Temp\cchaIJlx.s:30604  .debug_str:000000000002b317 .LASF3470
C:\Users\CYMR90~1\AppData\Local\Temp\cchaIJlx.s:30434  .debug_str:000000000002a884 .LASF3471
C:\Users\CYMR90~1\AppData\Local\Temp\cchaIJlx.s:20159  .debug_str:000000000000163e .LASF3472
C:\Users\CYMR90~1\AppData\Local\Temp\cchaIJlx.s:19957  .debug_str:00000000000009bb .LASF3473
C:\Users\CYMR90~1\AppData\Local\Temp\cchaIJlx.s:21263  .debug_str:0000000000005c37 .LASF3474
C:\Users\CYMR90~1\AppData\Local\Temp\cchaIJlx.s:23759  .debug_str:000000000000fc4c .LASF3475
C:\Users\CYMR90~1\AppData\Local\Temp\cchaIJlx.s:30910  .debug_str:000000000002c79a .LASF3476
C:\Users\CYMR90~1\AppData\Local\Temp\cchaIJlx.s:26036  .debug_str:000000000001906f .LASF3477
C:\Users\CYMR90~1\AppData\Local\Temp\cchaIJlx.s:30542  .debug_str:000000000002aee0 .LASF3478
C:\Users\CYMR90~1\AppData\Local\Temp\cchaIJlx.s:26078  .debug_str:00000000000192e8 .LASF3479
C:\Users\CYMR90~1\AppData\Local\Temp\cchaIJlx.s:28322  .debug_str:00000000000220ee .LASF3480
C:\Users\CYMR90~1\AppData\Local\Temp\cchaIJlx.s:24801  .debug_str:0000000000013f8a .LASF3481
C:\Users\CYMR90~1\AppData\Local\Temp\cchaIJlx.s:22931  .debug_str:000000000000c805 .LASF3482
C:\Users\CYMR90~1\AppData\Local\Temp\cchaIJlx.s:20577  .debug_str:0000000000003007 .LASF3483
C:\Users\CYMR90~1\AppData\Local\Temp\cchaIJlx.s:26392  .debug_str:000000000001a891 .LASF3484
C:\Users\CYMR90~1\AppData\Local\Temp\cchaIJlx.s:27594  .debug_str:000000000001f464 .LASF3485
C:\Users\CYMR90~1\AppData\Local\Temp\cchaIJlx.s:30242  .debug_str:0000000000029d0a .LASF3486
C:\Users\CYMR90~1\AppData\Local\Temp\cchaIJlx.s:29458  .debug_str:00000000000269e8 .LASF3487
C:\Users\CYMR90~1\AppData\Local\Temp\cchaIJlx.s:28386  .debug_str:0000000000022483 .LASF3488
C:\Users\CYMR90~1\AppData\Local\Temp\cchaIJlx.s:29046  .debug_str:0000000000024e72 .LASF3489
C:\Users\CYMR90~1\AppData\Local\Temp\cchaIJlx.s:27206  .debug_str:000000000001dcef .LASF3490
C:\Users\CYMR90~1\AppData\Local\Temp\cchaIJlx.s:27262  .debug_str:000000000001e07c .LASF3491
C:\Users\CYMR90~1\AppData\Local\Temp\cchaIJlx.s:26302  .debug_str:000000000001a0e9 .LASF3492
C:\Users\CYMR90~1\AppData\Local\Temp\cchaIJlx.s:19857  .debug_str:00000000000003db .LASF3493
C:\Users\CYMR90~1\AppData\Local\Temp\cchaIJlx.s:25658  .debug_str:00000000000177af .LASF3494
C:\Users\CYMR90~1\AppData\Local\Temp\cchaIJlx.s:29228  .debug_str:0000000000025ba9 .LASF3495
C:\Users\CYMR90~1\AppData\Local\Temp\cchaIJlx.s:21107  .debug_str:00000000000052d3 .LASF3496
C:\Users\CYMR90~1\AppData\Local\Temp\cchaIJlx.s:20197  .debug_str:000000000000194d .LASF3497
C:\Users\CYMR90~1\AppData\Local\Temp\cchaIJlx.s:25215  .debug_str:0000000000015912 .LASF3498
C:\Users\CYMR90~1\AppData\Local\Temp\cchaIJlx.s:21019  .debug_str:0000000000004d7b .LASF3499
C:\Users\CYMR90~1\AppData\Local\Temp\cchaIJlx.s:22189  .debug_str:0000000000009750 .LASF3500
C:\Users\CYMR90~1\AppData\Local\Temp\cchaIJlx.s:27276  .debug_str:000000000001e157 .LASF3501
C:\Users\CYMR90~1\AppData\Local\Temp\cchaIJlx.s:20289  .debug_str:0000000000001ecc .LASF3502
C:\Users\CYMR90~1\AppData\Local\Temp\cchaIJlx.s:27576  .debug_str:000000000001f37c .LASF3503
C:\Users\CYMR90~1\AppData\Local\Temp\cchaIJlx.s:22165  .debug_str:00000000000095ee .LASF3504
C:\Users\CYMR90~1\AppData\Local\Temp\cchaIJlx.s:25786  .debug_str:0000000000017fa0 .LASF3505
C:\Users\CYMR90~1\AppData\Local\Temp\cchaIJlx.s:29328  .debug_str:00000000000261b6 .LASF3506
C:\Users\CYMR90~1\AppData\Local\Temp\cchaIJlx.s:23299  .debug_str:000000000000df94 .LASF3507
C:\Users\CYMR90~1\AppData\Local\Temp\cchaIJlx.s:27334  .debug_str:000000000001e4e5 .LASF3508
C:\Users\CYMR90~1\AppData\Local\Temp\cchaIJlx.s:30804  .debug_str:000000000002c06b .LASF3509
C:\Users\CYMR90~1\AppData\Local\Temp\cchaIJlx.s:23613  .debug_str:000000000000f301 .LASF3510
C:\Users\CYMR90~1\AppData\Local\Temp\cchaIJlx.s:27616  .debug_str:000000000001f5b7 .LASF3511
C:\Users\CYMR90~1\AppData\Local\Temp\cchaIJlx.s:20977  .debug_str:0000000000004ae9 .LASF3512
C:\Users\CYMR90~1\AppData\Local\Temp\cchaIJlx.s:27512  .debug_str:000000000001ef9a .LASF3513
C:\Users\CYMR90~1\AppData\Local\Temp\cchaIJlx.s:23309  .debug_str:000000000000e034 .LASF3514
C:\Users\CYMR90~1\AppData\Local\Temp\cchaIJlx.s:30558  .debug_str:000000000002afd3 .LASF3515
C:\Users\CYMR90~1\AppData\Local\Temp\cchaIJlx.s:29654  .debug_str:000000000002760d .LASF3516
C:\Users\CYMR90~1\AppData\Local\Temp\cchaIJlx.s:25552  .debug_str:000000000001713a .LASF3517
C:\Users\CYMR90~1\AppData\Local\Temp\cchaIJlx.s:27078  .debug_str:000000000001d526 .LASF3518
C:\Users\CYMR90~1\AppData\Local\Temp\cchaIJlx.s:25600  .debug_str:00000000000173f7 .LASF3519
C:\Users\CYMR90~1\AppData\Local\Temp\cchaIJlx.s:29064  .debug_str:0000000000024ffa .LASF3520
C:\Users\CYMR90~1\AppData\Local\Temp\cchaIJlx.s:27228  .debug_str:000000000001de7d .LASF3521
C:\Users\CYMR90~1\AppData\Local\Temp\cchaIJlx.s:28146  .debug_str:000000000002162e .LASF3522
C:\Users\CYMR90~1\AppData\Local\Temp\cchaIJlx.s:23863  .debug_str:00000000000102dc .LASF3523
C:\Users\CYMR90~1\AppData\Local\Temp\cchaIJlx.s:26336  .debug_str:000000000001a498 .LASF3524
C:\Users\CYMR90~1\AppData\Local\Temp\cchaIJlx.s:30932  .debug_str:000000000002c91a .LASF3525
C:\Users\CYMR90~1\AppData\Local\Temp\cchaIJlx.s:23023  .debug_str:000000000000ce51 .LASF3526
C:\Users\CYMR90~1\AppData\Local\Temp\cchaIJlx.s:25836  .debug_str:00000000000182a5 .LASF3527
C:\Users\CYMR90~1\AppData\Local\Temp\cchaIJlx.s:22193  .debug_str:0000000000009782 .LASF3528
C:\Users\CYMR90~1\AppData\Local\Temp\cchaIJlx.s:29326  .debug_str:0000000000026199 .LASF3529
C:\Users\CYMR90~1\AppData\Local\Temp\cchaIJlx.s:30378  .debug_str:000000000002a55d .LASF3530
C:\Users\CYMR90~1\AppData\Local\Temp\cchaIJlx.s:22729  .debug_str:000000000000ba8c .LASF3531
C:\Users\CYMR90~1\AppData\Local\Temp\cchaIJlx.s:29800  .debug_str:00000000000280ca .LASF3532
C:\Users\CYMR90~1\AppData\Local\Temp\cchaIJlx.s:26736  .debug_str:000000000001be21 .LASF3533
C:\Users\CYMR90~1\AppData\Local\Temp\cchaIJlx.s:30252  .debug_str:0000000000029d94 .LASF3534
C:\Users\CYMR90~1\AppData\Local\Temp\cchaIJlx.s:20361  .debug_str:00000000000022d1 .LASF3535
C:\Users\CYMR90~1\AppData\Local\Temp\cchaIJlx.s:29384  .debug_str:0000000000026582 .LASF3536
C:\Users\CYMR90~1\AppData\Local\Temp\cchaIJlx.s:26174  .debug_str:0000000000019975 .LASF3537
C:\Users\CYMR90~1\AppData\Local\Temp\cchaIJlx.s:26098  .debug_str:0000000000019439 .LASF3538
C:\Users\CYMR90~1\AppData\Local\Temp\cchaIJlx.s:26514  .debug_str:000000000001b069 .LASF3539
C:\Users\CYMR90~1\AppData\Local\Temp\cchaIJlx.s:20369  .debug_str:000000000000233b .LASF3540
C:\Users\CYMR90~1\AppData\Local\Temp\cchaIJlx.s:29722  .debug_str:0000000000027b00 .LASF3541
C:\Users\CYMR90~1\AppData\Local\Temp\cchaIJlx.s:27164  .debug_str:000000000001daa1 .LASF3542
C:\Users\CYMR90~1\AppData\Local\Temp\cchaIJlx.s:20987  .debug_str:0000000000004b87 .LASF3543
C:\Users\CYMR90~1\AppData\Local\Temp\cchaIJlx.s:23401  .debug_str:000000000000e5f5 .LASF3544
C:\Users\CYMR90~1\AppData\Local\Temp\cchaIJlx.s:27932  .debug_str:00000000000208db .LASF3545
C:\Users\CYMR90~1\AppData\Local\Temp\cchaIJlx.s:30760  .debug_str:000000000002bda5 .LASF3546
C:\Users\CYMR90~1\AppData\Local\Temp\cchaIJlx.s:30500  .debug_str:000000000002ac89 .LASF3547
C:\Users\CYMR90~1\AppData\Local\Temp\cchaIJlx.s:19917  .debug_str:0000000000000763 .LASF3548
C:\Users\CYMR90~1\AppData\Local\Temp\cchaIJlx.s:23531  .debug_str:000000000000edd7 .LASF3549
C:\Users\CYMR90~1\AppData\Local\Temp\cchaIJlx.s:24905  .debug_str:0000000000014669 .LASF3550
C:\Users\CYMR90~1\AppData\Local\Temp\cchaIJlx.s:28700  .debug_str:0000000000023793 .LASF3551
C:\Users\CYMR90~1\AppData\Local\Temp\cchaIJlx.s:26346  .debug_str:000000000001a51a .LASF3552
C:\Users\CYMR90~1\AppData\Local\Temp\cchaIJlx.s:25500  .debug_str:0000000000016e2b .LASF3553
C:\Users\CYMR90~1\AppData\Local\Temp\cchaIJlx.s:25944  .debug_str:0000000000018946 .LASF3554
C:\Users\CYMR90~1\AppData\Local\Temp\cchaIJlx.s:30324  .debug_str:000000000002a1d5 .LASF3555
C:\Users\CYMR90~1\AppData\Local\Temp\cchaIJlx.s:23075  .debug_str:000000000000d1de .LASF3556
C:\Users\CYMR90~1\AppData\Local\Temp\cchaIJlx.s:25548  .debug_str:00000000000170f5 .LASF3557
C:\Users\CYMR90~1\AppData\Local\Temp\cchaIJlx.s:30686  .debug_str:000000000002b890 .LASF3558
C:\Users\CYMR90~1\AppData\Local\Temp\cchaIJlx.s:24977  .debug_str:0000000000014aa0 .LASF3559
C:\Users\CYMR90~1\AppData\Local\Temp\cchaIJlx.s:27302  .debug_str:000000000001e2de .LASF3560
C:\Users\CYMR90~1\AppData\Local\Temp\cchaIJlx.s:30128  .debug_str:0000000000029678 .LASF3561
C:\Users\CYMR90~1\AppData\Local\Temp\cchaIJlx.s:20507  .debug_str:0000000000002bf3 .LASF3562
C:\Users\CYMR90~1\AppData\Local\Temp\cchaIJlx.s:27496  .debug_str:000000000001ee5f .LASF3563
C:\Users\CYMR90~1\AppData\Local\Temp\cchaIJlx.s:22315  .debug_str:0000000000009f81 .LASF3564
C:\Users\CYMR90~1\AppData\Local\Temp\cchaIJlx.s:20627  .debug_str:00000000000033a0 .LASF3565
C:\Users\CYMR90~1\AppData\Local\Temp\cchaIJlx.s:22553  .debug_str:000000000000af19 .LASF3566
C:\Users\CYMR90~1\AppData\Local\Temp\cchaIJlx.s:21501  .debug_str:0000000000006adc .LASF3567
C:\Users\CYMR90~1\AppData\Local\Temp\cchaIJlx.s:29012  .debug_str:0000000000024c76 .LASF3568
C:\Users\CYMR90~1\AppData\Local\Temp\cchaIJlx.s:26412  .debug_str:000000000001a9c6 .LASF3569
C:\Users\CYMR90~1\AppData\Local\Temp\cchaIJlx.s:26272  .debug_str:0000000000019f41 .LASF3570
C:\Users\CYMR90~1\AppData\Local\Temp\cchaIJlx.s:21459  .debug_str:000000000000685b .LASF3571
C:\Users\CYMR90~1\AppData\Local\Temp\cchaIJlx.s:23409  .debug_str:000000000000e665 .LASF3572
C:\Users\CYMR90~1\AppData\Local\Temp\cchaIJlx.s:23245  .debug_str:000000000000dc39 .LASF3573
C:\Users\CYMR90~1\AppData\Local\Temp\cchaIJlx.s:21893  .debug_str:000000000000857b .LASF3574
C:\Users\CYMR90~1\AppData\Local\Temp\cchaIJlx.s:22075  .debug_str:0000000000009057 .LASF3575
C:\Users\CYMR90~1\AppData\Local\Temp\cchaIJlx.s:22653  .debug_str:000000000000b581 .LASF3576
C:\Users\CYMR90~1\AppData\Local\Temp\cchaIJlx.s:20651  .debug_str:0000000000003524 .LASF3577
C:\Users\CYMR90~1\AppData\Local\Temp\cchaIJlx.s:22009  .debug_str:0000000000008c54 .LASF3578
C:\Users\CYMR90~1\AppData\Local\Temp\cchaIJlx.s:19839  .debug_str:00000000000002c3 .LASF3579
C:\Users\CYMR90~1\AppData\Local\Temp\cchaIJlx.s:25544  .debug_str:00000000000170c7 .LASF3580
C:\Users\CYMR90~1\AppData\Local\Temp\cchaIJlx.s:22801  .debug_str:000000000000bf9d .LASF3581
C:\Users\CYMR90~1\AppData\Local\Temp\cchaIJlx.s:28638  .debug_str:0000000000023390 .LASF3582
C:\Users\CYMR90~1\AppData\Local\Temp\cchaIJlx.s:30674  .debug_str:000000000002b7b3 .LASF3583
C:\Users\CYMR90~1\AppData\Local\Temp\cchaIJlx.s:24349  .debug_str:00000000000122b6 .LASF3584
C:\Users\CYMR90~1\AppData\Local\Temp\cchaIJlx.s:24205  .debug_str:000000000001191a .LASF3585
C:\Users\CYMR90~1\AppData\Local\Temp\cchaIJlx.s:26528  .debug_str:000000000001b17b .LASF3586
C:\Users\CYMR90~1\AppData\Local\Temp\cchaIJlx.s:28652  .debug_str:00000000000234a4 .LASF3587
C:\Users\CYMR90~1\AppData\Local\Temp\cchaIJlx.s:30062  .debug_str:000000000002920c .LASF3588
C:\Users\CYMR90~1\AppData\Local\Temp\cchaIJlx.s:26190  .debug_str:0000000000019a65 .LASF3589
C:\Users\CYMR90~1\AppData\Local\Temp\cchaIJlx.s:27480  .debug_str:000000000001ed53 .LASF3590
C:\Users\CYMR90~1\AppData\Local\Temp\cchaIJlx.s:28576  .debug_str:0000000000022fb7 .LASF3591
C:\Users\CYMR90~1\AppData\Local\Temp\cchaIJlx.s:29412  .debug_str:0000000000026731 .LASF3592
C:\Users\CYMR90~1\AppData\Local\Temp\cchaIJlx.s:20017  .debug_str:0000000000000d9d .LASF3593
C:\Users\CYMR90~1\AppData\Local\Temp\cchaIJlx.s:23475  .debug_str:000000000000ead9 .LASF3594
C:\Users\CYMR90~1\AppData\Local\Temp\cchaIJlx.s:30756  .debug_str:000000000002bd74 .LASF3595
C:\Users\CYMR90~1\AppData\Local\Temp\cchaIJlx.s:26016  .debug_str:0000000000018e25 .LASF3596
C:\Users\CYMR90~1\AppData\Local\Temp\cchaIJlx.s:20493  .debug_str:0000000000002aef .LASF3597
C:\Users\CYMR90~1\AppData\Local\Temp\cchaIJlx.s:20169  .debug_str:00000000000016c5 .LASF3598
C:\Users\CYMR90~1\AppData\Local\Temp\cchaIJlx.s:23525  .debug_str:000000000000ed7c .LASF3599
C:\Users\CYMR90~1\AppData\Local\Temp\cchaIJlx.s:22997  .debug_str:000000000000cc73 .LASF3600
C:\Users\CYMR90~1\AppData\Local\Temp\cchaIJlx.s:24389  .debug_str:000000000001254e .LASF3601
C:\Users\CYMR90~1\AppData\Local\Temp\cchaIJlx.s:28030  .debug_str:0000000000020eb3 .LASF3602
C:\Users\CYMR90~1\AppData\Local\Temp\cchaIJlx.s:28294  .debug_str:0000000000021f0e .LASF3603
C:\Users\CYMR90~1\AppData\Local\Temp\cchaIJlx.s:22171  .debug_str:0000000000009645 .LASF3604
C:\Users\CYMR90~1\AppData\Local\Temp\cchaIJlx.s:28696  .debug_str:0000000000023765 .LASF3605
C:\Users\CYMR90~1\AppData\Local\Temp\cchaIJlx.s:30878  .debug_str:000000000002c55e .LASF3606
C:\Users\CYMR90~1\AppData\Local\Temp\cchaIJlx.s:23799  .debug_str:000000000000fedc .LASF3607
C:\Users\CYMR90~1\AppData\Local\Temp\cchaIJlx.s:23297  .debug_str:000000000000df7b .LASF3608
C:\Users\CYMR90~1\AppData\Local\Temp\cchaIJlx.s:27422  .debug_str:000000000001ea2c .LASF3609
C:\Users\CYMR90~1\AppData\Local\Temp\cchaIJlx.s:20937  .debug_str:00000000000047f7 .LASF3610
C:\Users\CYMR90~1\AppData\Local\Temp\cchaIJlx.s:20241  .debug_str:0000000000001c03 .LASF3611
C:\Users\CYMR90~1\AppData\Local\Temp\cchaIJlx.s:22253  .debug_str:0000000000009bba .LASF3612
C:\Users\CYMR90~1\AppData\Local\Temp\cchaIJlx.s:28552  .debug_str:0000000000022e85 .LASF3613
C:\Users\CYMR90~1\AppData\Local\Temp\cchaIJlx.s:24237  .debug_str:0000000000011b17 .LASF3614
C:\Users\CYMR90~1\AppData\Local\Temp\cchaIJlx.s:24781  .debug_str:0000000000013e6c .LASF3615
C:\Users\CYMR90~1\AppData\Local\Temp\cchaIJlx.s:22135  .debug_str:00000000000093e6 .LASF3616
C:\Users\CYMR90~1\AppData\Local\Temp\cchaIJlx.s:26430  .debug_str:000000000001aaed .LASF3617
C:\Users\CYMR90~1\AppData\Local\Temp\cchaIJlx.s:26018  .debug_str:0000000000018e75 .LASF3618
C:\Users\CYMR90~1\AppData\Local\Temp\cchaIJlx.s:29922  .debug_str:00000000000288f5 .LASF3619
C:\Users\CYMR90~1\AppData\Local\Temp\cchaIJlx.s:25704  .debug_str:0000000000017ab3 .LASF3620
C:\Users\CYMR90~1\AppData\Local\Temp\cchaIJlx.s:29840  .debug_str:0000000000028368 .LASF3621
C:\Users\CYMR90~1\AppData\Local\Temp\cchaIJlx.s:23307  .debug_str:000000000000e015 .LASF3622
C:\Users\CYMR90~1\AppData\Local\Temp\cchaIJlx.s:21805  .debug_str:0000000000007f20 .LASF3623
C:\Users\CYMR90~1\AppData\Local\Temp\cchaIJlx.s:30812  .debug_str:000000000002c11d .LASF3624
C:\Users\CYMR90~1\AppData\Local\Temp\cchaIJlx.s:25103  .debug_str:00000000000152d0 .LASF3625
C:\Users\CYMR90~1\AppData\Local\Temp\cchaIJlx.s:26810  .debug_str:000000000001c281 .LASF3626
C:\Users\CYMR90~1\AppData\Local\Temp\cchaIJlx.s:26248  .debug_str:0000000000019dbb .LASF3627
C:\Users\CYMR90~1\AppData\Local\Temp\cchaIJlx.s:28838  .debug_str:000000000002409f .LASF3628
C:\Users\CYMR90~1\AppData\Local\Temp\cchaIJlx.s:28080  .debug_str:0000000000021223 .LASF3629
C:\Users\CYMR90~1\AppData\Local\Temp\cchaIJlx.s:22681  .debug_str:000000000000b76f .LASF3630
C:\Users\CYMR90~1\AppData\Local\Temp\cchaIJlx.s:26294  .debug_str:000000000001a079 .LASF3631
C:\Users\CYMR90~1\AppData\Local\Temp\cchaIJlx.s:19809  .debug_str:00000000000000dc .LASF3632
C:\Users\CYMR90~1\AppData\Local\Temp\cchaIJlx.s:24199  .debug_str:0000000000011825 .LASF3633
C:\Users\CYMR90~1\AppData\Local\Temp\cchaIJlx.s:28124  .debug_str:00000000000214b4 .LASF3634
C:\Users\CYMR90~1\AppData\Local\Temp\cchaIJlx.s:28384  .debug_str:000000000002245e .LASF3635
C:\Users\CYMR90~1\AppData\Local\Temp\cchaIJlx.s:25289  .debug_str:0000000000015e03 .LASF3636
C:\Users\CYMR90~1\AppData\Local\Temp\cchaIJlx.s:30190  .debug_str:00000000000299ec .LASF3637
C:\Users\CYMR90~1\AppData\Local\Temp\cchaIJlx.s:22901  .debug_str:000000000000c58b .LASF3638
C:\Users\CYMR90~1\AppData\Local\Temp\cchaIJlx.s:24381  .debug_str:00000000000124d0 .LASF3639
C:\Users\CYMR90~1\AppData\Local\Temp\cchaIJlx.s:28674  .debug_str:000000000002360b .LASF3640
C:\Users\CYMR90~1\AppData\Local\Temp\cchaIJlx.s:29098  .debug_str:00000000000252cf .LASF3641
C:\Users\CYMR90~1\AppData\Local\Temp\cchaIJlx.s:24239  .debug_str:0000000000011b2c .LASF3642
C:\Users\CYMR90~1\AppData\Local\Temp\cchaIJlx.s:24605  .debug_str:00000000000133c2 .LASF3643
C:\Users\CYMR90~1\AppData\Local\Temp\cchaIJlx.s:20263  .debug_str:0000000000001d26 .LASF3644
C:\Users\CYMR90~1\AppData\Local\Temp\cchaIJlx.s:21587  .debug_str:0000000000007060 .LASF3645
C:\Users\CYMR90~1\AppData\Local\Temp\cchaIJlx.s:30632  .debug_str:000000000002b4c8 .LASF3646
C:\Users\CYMR90~1\AppData\Local\Temp\cchaIJlx.s:25319  .debug_str:000000000001603c .LASF3647
C:\Users\CYMR90~1\AppData\Local\Temp\cchaIJlx.s:26108  .debug_str:00000000000194da .LASF3648
C:\Users\CYMR90~1\AppData\Local\Temp\cchaIJlx.s:23181  .debug_str:000000000000d881 .LASF3649
C:\Users\CYMR90~1\AppData\Local\Temp\cchaIJlx.s:24449  .debug_str:000000000001294b .LASF3650
C:\Users\CYMR90~1\AppData\Local\Temp\cchaIJlx.s:20037  .debug_str:0000000000000f45 .LASF3651
C:\Users\CYMR90~1\AppData\Local\Temp\cchaIJlx.s:26376  .debug_str:000000000001a72b .LASF3652
C:\Users\CYMR90~1\AppData\Local\Temp\cchaIJlx.s:20855  .debug_str:0000000000004274 .LASF3653
C:\Users\CYMR90~1\AppData\Local\Temp\cchaIJlx.s:26622  .debug_str:000000000001b736 .LASF3654
C:\Users\CYMR90~1\AppData\Local\Temp\cchaIJlx.s:21127  .debug_str:00000000000053f0 .LASF3655
C:\Users\CYMR90~1\AppData\Local\Temp\cchaIJlx.s:26876  .debug_str:000000000001c675 .LASF3656
C:\Users\CYMR90~1\AppData\Local\Temp\cchaIJlx.s:21407  .debug_str:0000000000006522 .LASF3657
C:\Users\CYMR90~1\AppData\Local\Temp\cchaIJlx.s:27126  .debug_str:000000000001d83a .LASF3658
C:\Users\CYMR90~1\AppData\Local\Temp\cchaIJlx.s:29570  .debug_str:000000000002713e .LASF3659
C:\Users\CYMR90~1\AppData\Local\Temp\cchaIJlx.s:28316  .debug_str:0000000000022078 .LASF3660
C:\Users\CYMR90~1\AppData\Local\Temp\cchaIJlx.s:21443  .debug_str:0000000000006729 .LASF3661
C:\Users\CYMR90~1\AppData\Local\Temp\cchaIJlx.s:30200  .debug_str:0000000000029a99 .LASF3662
C:\Users\CYMR90~1\AppData\Local\Temp\cchaIJlx.s:27572  .debug_str:000000000001f342 .LASF3663
C:\Users\CYMR90~1\AppData\Local\Temp\cchaIJlx.s:25003  .debug_str:0000000000014c2e .LASF3664
C:\Users\CYMR90~1\AppData\Local\Temp\cchaIJlx.s:22507  .debug_str:000000000000ab63 .LASF3665
C:\Users\CYMR90~1\AppData\Local\Temp\cchaIJlx.s:19899  .debug_str:0000000000000602 .LASF3666
C:\Users\CYMR90~1\AppData\Local\Temp\cchaIJlx.s:23745  .debug_str:000000000000fb64 .LASF3667
C:\Users\CYMR90~1\AppData\Local\Temp\cchaIJlx.s:22687  .debug_str:000000000000b7c5 .LASF3668
C:\Users\CYMR90~1\AppData\Local\Temp\cchaIJlx.s:23455  .debug_str:000000000000e968 .LASF3669
C:\Users\CYMR90~1\AppData\Local\Temp\cchaIJlx.s:21625  .debug_str:000000000000734e .LASF3670
C:\Users\CYMR90~1\AppData\Local\Temp\cchaIJlx.s:29638  .debug_str:0000000000027521 .LASF3671
C:\Users\CYMR90~1\AppData\Local\Temp\cchaIJlx.s:27048  .debug_str:000000000001d306 .LASF3672
C:\Users\CYMR90~1\AppData\Local\Temp\cchaIJlx.s:24545  .debug_str:0000000000012f86 .LASF3673
C:\Users\CYMR90~1\AppData\Local\Temp\cchaIJlx.s:26638  .debug_str:000000000001b839 .LASF3674
C:\Users\CYMR90~1\AppData\Local\Temp\cchaIJlx.s:30592  .debug_str:000000000002b231 .LASF3675
C:\Users\CYMR90~1\AppData\Local\Temp\cchaIJlx.s:23883  .debug_str:0000000000010406 .LASF3676
C:\Users\CYMR90~1\AppData\Local\Temp\cchaIJlx.s:29872  .debug_str:00000000000285bc .LASF3677
C:\Users\CYMR90~1\AppData\Local\Temp\cchaIJlx.s:22881  .debug_str:000000000000c487 .LASF3678
C:\Users\CYMR90~1\AppData\Local\Temp\cchaIJlx.s:20347  .debug_str:00000000000021d7 .LASF3679
C:\Users\CYMR90~1\AppData\Local\Temp\cchaIJlx.s:23859  .debug_str:000000000001029e .LASF3680
C:\Users\CYMR90~1\AppData\Local\Temp\cchaIJlx.s:23781  .debug_str:000000000000fdac .LASF3681
C:\Users\CYMR90~1\AppData\Local\Temp\cchaIJlx.s:23991  .debug_str:0000000000010ad5 .LASF3682
C:\Users\CYMR90~1\AppData\Local\Temp\cchaIJlx.s:28296  .debug_str:0000000000021f26 .LASF3683
C:\Users\CYMR90~1\AppData\Local\Temp\cchaIJlx.s:24665  .debug_str:0000000000013787 .LASF3684
C:\Users\CYMR90~1\AppData\Local\Temp\cchaIJlx.s:21795  .debug_str:0000000000007e88 .LASF3685
C:\Users\CYMR90~1\AppData\Local\Temp\cchaIJlx.s:28530  .debug_str:0000000000022d30 .LASF3686
C:\Users\CYMR90~1\AppData\Local\Temp\cchaIJlx.s:30634  .debug_str:000000000002b4ec .LASF3687
C:\Users\CYMR90~1\AppData\Local\Temp\cchaIJlx.s:30174  .debug_str:00000000000298f6 .LASF3688
C:\Users\CYMR90~1\AppData\Local\Temp\cchaIJlx.s:26726  .debug_str:000000000001bd59 .LASF3689
C:\Users\CYMR90~1\AppData\Local\Temp\cchaIJlx.s:21591  .debug_str:00000000000070a2 .LASF3690
C:\Users\CYMR90~1\AppData\Local\Temp\cchaIJlx.s:21173  .debug_str:00000000000056d7 .LASF3691
C:\Users\CYMR90~1\AppData\Local\Temp\cchaIJlx.s:21677  .debug_str:000000000000765d .LASF3692
C:\Users\CYMR90~1\AppData\Local\Temp\cchaIJlx.s:20643  .debug_str:00000000000034b1 .LASF3693
C:\Users\CYMR90~1\AppData\Local\Temp\cchaIJlx.s:28918  .debug_str:00000000000245fb .LASF3694
C:\Users\CYMR90~1\AppData\Local\Temp\cchaIJlx.s:23809  .debug_str:000000000000ff56 .LASF3695
C:\Users\CYMR90~1\AppData\Local\Temp\cchaIJlx.s:21983  .debug_str:0000000000008acc .LASF3696
C:\Users\CYMR90~1\AppData\Local\Temp\cchaIJlx.s:22085  .debug_str:000000000000910a .LASF3697
C:\Users\CYMR90~1\AppData\Local\Temp\cchaIJlx.s:28192  .debug_str:00000000000218a3 .LASF3698
C:\Users\CYMR90~1\AppData\Local\Temp\cchaIJlx.s:30110  .debug_str:000000000002953a .LASF3699
C:\Users\CYMR90~1\AppData\Local\Temp\cchaIJlx.s:28444  .debug_str:00000000000227e4 .LASF3700
C:\Users\CYMR90~1\AppData\Local\Temp\cchaIJlx.s:30004  .debug_str:0000000000028df3 .LASF3701
C:\Users\CYMR90~1\AppData\Local\Temp\cchaIJlx.s:19931  .debug_str:0000000000000836 .LASF3702
C:\Users\CYMR90~1\AppData\Local\Temp\cchaIJlx.s:28478  .debug_str:0000000000022a4f .LASF3703
C:\Users\CYMR90~1\AppData\Local\Temp\cchaIJlx.s:25502  .debug_str:0000000000016e43 .LASF3704
C:\Users\CYMR90~1\AppData\Local\Temp\cchaIJlx.s:22515  .debug_str:000000000000abd7 .LASF3705
C:\Users\CYMR90~1\AppData\Local\Temp\cchaIJlx.s:23057  .debug_str:000000000000d0ac .LASF3706
C:\Users\CYMR90~1\AppData\Local\Temp\cchaIJlx.s:21575  .debug_str:0000000000006f9e .LASF3707
C:\Users\CYMR90~1\AppData\Local\Temp\cchaIJlx.s:25123  .debug_str:00000000000153d4 .LASF3708
C:\Users\CYMR90~1\AppData\Local\Temp\cchaIJlx.s:22927  .debug_str:000000000000c7d5 .LASF3709
C:\Users\CYMR90~1\AppData\Local\Temp\cchaIJlx.s:28548  .debug_str:0000000000022e46 .LASF3710
C:\Users\CYMR90~1\AppData\Local\Temp\cchaIJlx.s:26526  .debug_str:000000000001b138 .LASF3711
C:\Users\CYMR90~1\AppData\Local\Temp\cchaIJlx.s:28486  .debug_str:0000000000022acf .LASF3712
C:\Users\CYMR90~1\AppData\Local\Temp\cchaIJlx.s:25642  .debug_str:00000000000176a9 .LASF3713
C:\Users\CYMR90~1\AppData\Local\Temp\cchaIJlx.s:23373  .debug_str:000000000000e3fa .LASF3714
C:\Users\CYMR90~1\AppData\Local\Temp\cchaIJlx.s:27542  .debug_str:000000000001f138 .LASF3715
C:\Users\CYMR90~1\AppData\Local\Temp\cchaIJlx.s:22569  .debug_str:000000000000b00e .LASF3716
C:\Users\CYMR90~1\AppData\Local\Temp\cchaIJlx.s:24827  .debug_str:0000000000014188 .LASF3717
C:\Users\CYMR90~1\AppData\Local\Temp\cchaIJlx.s:25784  .debug_str:0000000000017f7e .LASF3718
C:\Users\CYMR90~1\AppData\Local\Temp\cchaIJlx.s:29466  .debug_str:0000000000026a48 .LASF3719
C:\Users\CYMR90~1\AppData\Local\Temp\cchaIJlx.s:22361  .debug_str:000000000000a251 .LASF3720
C:\Users\CYMR90~1\AppData\Local\Temp\cchaIJlx.s:21097  .debug_str:0000000000005214 .LASF3721
C:\Users\CYMR90~1\AppData\Local\Temp\cchaIJlx.s:26076  .debug_str:00000000000192c6 .LASF3722
C:\Users\CYMR90~1\AppData\Local\Temp\cchaIJlx.s:22613  .debug_str:000000000000b288 .LASF3723
C:\Users\CYMR90~1\AppData\Local\Temp\cchaIJlx.s:23341  .debug_str:000000000000e224 .LASF3724
C:\Users\CYMR90~1\AppData\Local\Temp\cchaIJlx.s:26390  .debug_str:000000000001a86f .LASF3725
C:\Users\CYMR90~1\AppData\Local\Temp\cchaIJlx.s:30578  .debug_str:000000000002b133 .LASF3726
C:\Users\CYMR90~1\AppData\Local\Temp\cchaIJlx.s:23201  .debug_str:000000000000d9c9 .LASF3727
C:\Users\CYMR90~1\AppData\Local\Temp\cchaIJlx.s:21181  .debug_str:0000000000005746 .LASF3728
C:\Users\CYMR90~1\AppData\Local\Temp\cchaIJlx.s:30228  .debug_str:0000000000029c31 .LASF3729
C:\Users\CYMR90~1\AppData\Local\Temp\cchaIJlx.s:27992  .debug_str:0000000000020c9b .LASF3730
C:\Users\CYMR90~1\AppData\Local\Temp\cchaIJlx.s:21185  .debug_str:00000000000057a6 .LASF3731
C:\Users\CYMR90~1\AppData\Local\Temp\cchaIJlx.s:20045  .debug_str:0000000000000fa4 .LASF3732
C:\Users\CYMR90~1\AppData\Local\Temp\cchaIJlx.s:21281  .debug_str:0000000000005d52 .LASF3733
C:\Users\CYMR90~1\AppData\Local\Temp\cchaIJlx.s:24711  .debug_str:0000000000013a43 .LASF3734
C:\Users\CYMR90~1\AppData\Local\Temp\cchaIJlx.s:28184  .debug_str:0000000000021829 .LASF3735
C:\Users\CYMR90~1\AppData\Local\Temp\cchaIJlx.s:29276  .debug_str:0000000000025ec3 .LASF3736
C:\Users\CYMR90~1\AppData\Local\Temp\cchaIJlx.s:21011  .debug_str:0000000000004cf5 .LASF3737
C:\Users\CYMR90~1\AppData\Local\Temp\cchaIJlx.s:28758  .debug_str:0000000000023ac7 .LASF3738
C:\Users\CYMR90~1\AppData\Local\Temp\cchaIJlx.s:27914  .debug_str:00000000000207e4 .LASF3739
C:\Users\CYMR90~1\AppData\Local\Temp\cchaIJlx.s:30376  .debug_str:000000000002a539 .LASF3740
C:\Users\CYMR90~1\AppData\Local\Temp\cchaIJlx.s:23477  .debug_str:000000000000eaf1 .LASF3741
C:\Users\CYMR90~1\AppData\Local\Temp\cchaIJlx.s:21193  .debug_str:00000000000057fc .LASF3742
C:\Users\CYMR90~1\AppData\Local\Temp\cchaIJlx.s:22837  .debug_str:000000000000c1c9 .LASF3743
C:\Users\CYMR90~1\AppData\Local\Temp\cchaIJlx.s:28004  .debug_str:0000000000020d3d .LASF3744
C:\Users\CYMR90~1\AppData\Local\Temp\cchaIJlx.s:25886  .debug_str:0000000000018583 .LASF3745
C:\Users\CYMR90~1\AppData\Local\Temp\cchaIJlx.s:26964  .debug_str:000000000001ccb1 .LASF3746
C:\Users\CYMR90~1\AppData\Local\Temp\cchaIJlx.s:29978  .debug_str:0000000000028c71 .LASF3747
C:\Users\CYMR90~1\AppData\Local\Temp\cchaIJlx.s:20753  .debug_str:0000000000003b7e .LASF3748
C:\Users\CYMR90~1\AppData\Local\Temp\cchaIJlx.s:30904  .debug_str:000000000002c747 .LASF3749
C:\Users\CYMR90~1\AppData\Local\Temp\cchaIJlx.s:20681  .debug_str:00000000000036f6 .LASF3750
C:\Users\CYMR90~1\AppData\Local\Temp\cchaIJlx.s:29080  .debug_str:00000000000251b5 .LASF3751
C:\Users\CYMR90~1\AppData\Local\Temp\cchaIJlx.s:20055  .debug_str:0000000000001029 .LASF3752
C:\Users\CYMR90~1\AppData\Local\Temp\cchaIJlx.s:27130  .debug_str:000000000001d881 .LASF3753
C:\Users\CYMR90~1\AppData\Local\Temp\cchaIJlx.s:24581  .debug_str:00000000000131c4 .LASF3754
C:\Users\CYMR90~1\AppData\Local\Temp\cchaIJlx.s:30992  .debug_str:000000000002cce0 .LASF3755
C:\Users\CYMR90~1\AppData\Local\Temp\cchaIJlx.s:20483  .debug_str:0000000000002a56 .LASF3756
C:\Users\CYMR90~1\AppData\Local\Temp\cchaIJlx.s:29520  .debug_str:0000000000026db0 .LASF3757
C:\Users\CYMR90~1\AppData\Local\Temp\cchaIJlx.s:24435  .debug_str:0000000000012847 .LASF3758
C:\Users\CYMR90~1\AppData\Local\Temp\cchaIJlx.s:27816  .debug_str:00000000000201aa .LASF3759
C:\Users\CYMR90~1\AppData\Local\Temp\cchaIJlx.s:27958  .debug_str:0000000000020a91 .LASF3760
C:\Users\CYMR90~1\AppData\Local\Temp\cchaIJlx.s:20015  .debug_str:0000000000000d7b .LASF3761
C:\Users\CYMR90~1\AppData\Local\Temp\cchaIJlx.s:27190  .debug_str:000000000001dc0e .LASF3762
C:\Users\CYMR90~1\AppData\Local\Temp\cchaIJlx.s:20113  .debug_str:0000000000001382 .LASF3763
C:\Users\CYMR90~1\AppData\Local\Temp\cchaIJlx.s:29770  .debug_str:0000000000027e47 .LASF3764
C:\Users\CYMR90~1\AppData\Local\Temp\cchaIJlx.s:24335  .debug_str:00000000000121a9 .LASF3765
C:\Users\CYMR90~1\AppData\Local\Temp\cchaIJlx.s:27322  .debug_str:000000000001e3f5 .LASF3766
C:\Users\CYMR90~1\AppData\Local\Temp\cchaIJlx.s:26246  .debug_str:0000000000019d8b .LASF3767
C:\Users\CYMR90~1\AppData\Local\Temp\cchaIJlx.s:25011  .debug_str:0000000000014cdc .LASF3768
C:\Users\CYMR90~1\AppData\Local\Temp\cchaIJlx.s:23831  .debug_str:00000000000100e1 .LASF3769
C:\Users\CYMR90~1\AppData\Local\Temp\cchaIJlx.s:30622  .debug_str:000000000002b3f9 .LASF3770
C:\Users\CYMR90~1\AppData\Local\Temp\cchaIJlx.s:29000  .debug_str:0000000000024b8d .LASF3771
C:\Users\CYMR90~1\AppData\Local\Temp\cchaIJlx.s:20227  .debug_str:0000000000001ae6 .LASF3772
C:\Users\CYMR90~1\AppData\Local\Temp\cchaIJlx.s:29758  .debug_str:0000000000027d2a .LASF3773
C:\Users\CYMR90~1\AppData\Local\Temp\cchaIJlx.s:29996  .debug_str:0000000000028d5a .LASF3774
C:\Users\CYMR90~1\AppData\Local\Temp\cchaIJlx.s:23013  .debug_str:000000000000cd89 .LASF3775
C:\Users\CYMR90~1\AppData\Local\Temp\cchaIJlx.s:30850  .debug_str:000000000002c3b4 .LASF3776
C:\Users\CYMR90~1\AppData\Local\Temp\cchaIJlx.s:20237  .debug_str:0000000000001bad .LASF3777
C:\Users\CYMR90~1\AppData\Local\Temp\cchaIJlx.s:29016  .debug_str:0000000000024cb0 .LASF3778
C:\Users\CYMR90~1\AppData\Local\Temp\cchaIJlx.s:22319  .debug_str:0000000000009fae .LASF3779
C:\Users\CYMR90~1\AppData\Local\Temp\cchaIJlx.s:28064  .debug_str:000000000002108a .LASF3780
C:\Users\CYMR90~1\AppData\Local\Temp\cchaIJlx.s:25241  .debug_str:0000000000015a9e .LASF3781
C:\Users\CYMR90~1\AppData\Local\Temp\cchaIJlx.s:26262  .debug_str:0000000000019e88 .LASF3782
C:\Users\CYMR90~1\AppData\Local\Temp\cchaIJlx.s:23117  .debug_str:000000000000d4de .LASF3783
C:\Users\CYMR90~1\AppData\Local\Temp\cchaIJlx.s:21233  .debug_str:0000000000005a4b .LASF3784
C:\Users\CYMR90~1\AppData\Local\Temp\cchaIJlx.s:29678  .debug_str:00000000000277a6 .LASF3785
C:\Users\CYMR90~1\AppData\Local\Temp\cchaIJlx.s:23607  .debug_str:000000000000f293 .LASF3786
C:\Users\CYMR90~1\AppData\Local\Temp\cchaIJlx.s:22795  .debug_str:000000000000bf22 .LASF3787
C:\Users\CYMR90~1\AppData\Local\Temp\cchaIJlx.s:22623  .debug_str:000000000000b312 .LASF3788
C:\Users\CYMR90~1\AppData\Local\Temp\cchaIJlx.s:19961  .debug_str:0000000000000a06 .LASF3789
C:\Users\CYMR90~1\AppData\Local\Temp\cchaIJlx.s:24235  .debug_str:0000000000011ae5 .LASF3790
C:\Users\CYMR90~1\AppData\Local\Temp\cchaIJlx.s:28482  .debug_str:0000000000022a8b .LASF3791
C:\Users\CYMR90~1\AppData\Local\Temp\cchaIJlx.s:21387  .debug_str:00000000000063f2 .LASF3792
C:\Users\CYMR90~1\AppData\Local\Temp\cchaIJlx.s:22725  .debug_str:000000000000ba46 .LASF3793
C:\Users\CYMR90~1\AppData\Local\Temp\cchaIJlx.s:23821  .debug_str:0000000000010038 .LASF3794
C:\Users\CYMR90~1\AppData\Local\Temp\cchaIJlx.s:28040  .debug_str:0000000000020f20 .LASF3795
C:\Users\CYMR90~1\AppData\Local\Temp\cchaIJlx.s:21021  .debug_str:0000000000004d96 .LASF3796
C:\Users\CYMR90~1\AppData\Local\Temp\cchaIJlx.s:25221  .debug_str:000000000001595a .LASF3797
C:\Users\CYMR90~1\AppData\Local\Temp\cchaIJlx.s:29482  .debug_str:0000000000026b31 .LASF3798
C:\Users\CYMR90~1\AppData\Local\Temp\cchaIJlx.s:22503  .debug_str:000000000000ab17 .LASF3799
C:\Users\CYMR90~1\AppData\Local\Temp\cchaIJlx.s:24803  .debug_str:0000000000013fa5 .LASF3800
C:\Users\CYMR90~1\AppData\Local\Temp\cchaIJlx.s:29066  .debug_str:0000000000025018 .LASF3801
C:\Users\CYMR90~1\AppData\Local\Temp\cchaIJlx.s:22991  .debug_str:000000000000cc0f .LASF3802
C:\Users\CYMR90~1\AppData\Local\Temp\cchaIJlx.s:28228  .debug_str:0000000000021b07 .LASF3803
C:\Users\CYMR90~1\AppData\Local\Temp\cchaIJlx.s:26344  .debug_str:000000000001a4e8 .LASF3804
C:\Users\CYMR90~1\AppData\Local\Temp\cchaIJlx.s:30576  .debug_str:000000000002b101 .LASF3805
C:\Users\CYMR90~1\AppData\Local\Temp\cchaIJlx.s:23601  .debug_str:000000000000f210 .LASF3806
C:\Users\CYMR90~1\AppData\Local\Temp\cchaIJlx.s:27726  .debug_str:000000000001fc7a .LASF3807
C:\Users\CYMR90~1\AppData\Local\Temp\cchaIJlx.s:20723  .debug_str:00000000000039bf .LASF3808
C:\Users\CYMR90~1\AppData\Local\Temp\cchaIJlx.s:23677  .debug_str:000000000000f750 .LASF3809
C:\Users\CYMR90~1\AppData\Local\Temp\cchaIJlx.s:28794  .debug_str:0000000000023d23 .LASF3810
C:\Users\CYMR90~1\AppData\Local\Temp\cchaIJlx.s:22205  .debug_str:0000000000009884 .LASF3811
C:\Users\CYMR90~1\AppData\Local\Temp\cchaIJlx.s:26484  .debug_str:000000000001ae33 .LASF3812
C:\Users\CYMR90~1\AppData\Local\Temp\cchaIJlx.s:20825  .debug_str:0000000000004019 .LASF3813
C:\Users\CYMR90~1\AppData\Local\Temp\cchaIJlx.s:28836  .debug_str:000000000002406d .LASF3814
C:\Users\CYMR90~1\AppData\Local\Temp\cchaIJlx.s:21849  .debug_str:000000000000827b .LASF3815
C:\Users\CYMR90~1\AppData\Local\Temp\cchaIJlx.s:23445  .debug_str:000000000000e894 .LASF3816
C:\Users\CYMR90~1\AppData\Local\Temp\cchaIJlx.s:30258  .debug_str:0000000000029dea .LASF3817
C:\Users\CYMR90~1\AppData\Local\Temp\cchaIJlx.s:21675  .debug_str:000000000000762b .LASF3818
C:\Users\CYMR90~1\AppData\Local\Temp\cchaIJlx.s:27600  .debug_str:000000000001f4b7 .LASF3819
C:\Users\CYMR90~1\AppData\Local\Temp\cchaIJlx.s:20439  .debug_str:00000000000027a0 .LASF3820
C:\Users\CYMR90~1\AppData\Local\Temp\cchaIJlx.s:25818  .debug_str:000000000001817a .LASF3821
C:\Users\CYMR90~1\AppData\Local\Temp\cchaIJlx.s:28968  .debug_str:0000000000024972 .LASF3822
C:\Users\CYMR90~1\AppData\Local\Temp\cchaIJlx.s:21857  .debug_str:00000000000082f8 .LASF3823
C:\Users\CYMR90~1\AppData\Local\Temp\cchaIJlx.s:29232  .debug_str:0000000000025be8 .LASF3824
C:\Users\CYMR90~1\AppData\Local\Temp\cchaIJlx.s:24379  .debug_str:000000000001249e .LASF3825
C:\Users\CYMR90~1\AppData\Local\Temp\cchaIJlx.s:28534  .debug_str:0000000000022d6f .LASF3826
C:\Users\CYMR90~1\AppData\Local\Temp\cchaIJlx.s:21527  .debug_str:0000000000006c87 .LASF3827
C:\Users\CYMR90~1\AppData\Local\Temp\cchaIJlx.s:24425  .debug_str:0000000000012787 .LASF3828
C:\Users\CYMR90~1\AppData\Local\Temp\cchaIJlx.s:27728  .debug_str:000000000001fcac .LASF3829
C:\Users\CYMR90~1\AppData\Local\Temp\cchaIJlx.s:24341  .debug_str:0000000000012236 .LASF3830
C:\Users\CYMR90~1\AppData\Local\Temp\cchaIJlx.s:29268  .debug_str:0000000000025e4d .LASF3831
C:\Users\CYMR90~1\AppData\Local\Temp\cchaIJlx.s:28366  .debug_str:0000000000022331 .LASF3832
C:\Users\CYMR90~1\AppData\Local\Temp\cchaIJlx.s:29206  .debug_str:0000000000025a60 .LASF3833
C:\Users\CYMR90~1\AppData\Local\Temp\cchaIJlx.s:23391  .debug_str:000000000000e50f .LASF3834
C:\Users\CYMR90~1\AppData\Local\Temp\cchaIJlx.s:28846  .debug_str:0000000000024133 .LASF3835
C:\Users\CYMR90~1\AppData\Local\Temp\cchaIJlx.s:25237  .debug_str:0000000000015a4d .LASF3836
C:\Users\CYMR90~1\AppData\Local\Temp\cchaIJlx.s:25656  .debug_str:000000000001778d .LASF3837
C:\Users\CYMR90~1\AppData\Local\Temp\cchaIJlx.s:22679  .debug_str:000000000000b74d .LASF3838
C:\Users\CYMR90~1\AppData\Local\Temp\cchaIJlx.s:25019  .debug_str:0000000000014d65 .LASF3839
C:\Users\CYMR90~1\AppData\Local\Temp\cchaIJlx.s:27938  .debug_str:000000000002093b .LASF3840
C:\Users\CYMR90~1\AppData\Local\Temp\cchaIJlx.s:25043  .debug_str:0000000000014f1a .LASF3841
C:\Users\CYMR90~1\AppData\Local\Temp\cchaIJlx.s:29298  .debug_str:0000000000026023 .LASF3842
C:\Users\CYMR90~1\AppData\Local\Temp\cchaIJlx.s:26102  .debug_str:0000000000019468 .LASF3843
C:\Users\CYMR90~1\AppData\Local\Temp\cchaIJlx.s:24091  .debug_str:00000000000110c5 .LASF3844
C:\Users\CYMR90~1\AppData\Local\Temp\cchaIJlx.s:21771  .debug_str:0000000000007c5e .LASF3845
C:\Users\CYMR90~1\AppData\Local\Temp\cchaIJlx.s:20125  .debug_str:0000000000001458 .LASF3846
C:\Users\CYMR90~1\AppData\Local\Temp\cchaIJlx.s:19811  .debug_str:00000000000000ff .LASF3847
C:\Users\CYMR90~1\AppData\Local\Temp\cchaIJlx.s:24659  .debug_str:0000000000013746 .LASF3848
C:\Users\CYMR90~1\AppData\Local\Temp\cchaIJlx.s:21151  .debug_str:0000000000005572 .LASF3849
C:\Users\CYMR90~1\AppData\Local\Temp\cchaIJlx.s:25916  .debug_str:0000000000018727 .LASF3850
C:\Users\CYMR90~1\AppData\Local\Temp\cchaIJlx.s:23283  .debug_str:000000000000dea7 .LASF3851
C:\Users\CYMR90~1\AppData\Local\Temp\cchaIJlx.s:22327  .debug_str:000000000000a048 .LASF3852
C:\Users\CYMR90~1\AppData\Local\Temp\cchaIJlx.s:23775  .debug_str:000000000000fd3e .LASF3853
C:\Users\CYMR90~1\AppData\Local\Temp\cchaIJlx.s:25620  .debug_str:0000000000017544 .LASF3854
C:\Users\CYMR90~1\AppData\Local\Temp\cchaIJlx.s:25079  .debug_str:000000000001513c .LASF3855
C:\Users\CYMR90~1\AppData\Local\Temp\cchaIJlx.s:24463  .debug_str:0000000000012a56 .LASF3856
C:\Users\CYMR90~1\AppData\Local\Temp\cchaIJlx.s:26758  .debug_str:000000000001bf7c .LASF3857
C:\Users\CYMR90~1\AppData\Local\Temp\cchaIJlx.s:23395  .debug_str:000000000000e58e .LASF3858
C:\Users\CYMR90~1\AppData\Local\Temp\cchaIJlx.s:19999  .debug_str:0000000000000c9f .LASF3859
C:\Users\CYMR90~1\AppData\Local\Temp\cchaIJlx.s:30002  .debug_str:0000000000028dcf .LASF3860
C:\Users\CYMR90~1\AppData\Local\Temp\cchaIJlx.s:24527  .debug_str:0000000000012e4b .LASF3861
C:\Users\CYMR90~1\AppData\Local\Temp\cchaIJlx.s:27144  .debug_str:000000000001d95a .LASF3862
C:\Users\CYMR90~1\AppData\Local\Temp\cchaIJlx.s:20381  .debug_str:00000000000023ea .LASF3863
C:\Users\CYMR90~1\AppData\Local\Temp\cchaIJlx.s:20291  .debug_str:0000000000001ee6 .LASF3864
C:\Users\CYMR90~1\AppData\Local\Temp\cchaIJlx.s:29074  .debug_str:000000000002514e .LASF3865
C:\Users\CYMR90~1\AppData\Local\Temp\cchaIJlx.s:28858  .debug_str:0000000000024216 .LASF3866
C:\Users\CYMR90~1\AppData\Local\Temp\cchaIJlx.s:25498  .debug_str:0000000000016e07 .LASF3867
C:\Users\CYMR90~1\AppData\Local\Temp\cchaIJlx.s:24809  .debug_str:0000000000014034 .LASF3868
C:\Users\CYMR90~1\AppData\Local\Temp\cchaIJlx.s:29990  .debug_str:0000000000028d15 .LASF3869
C:\Users\CYMR90~1\AppData\Local\Temp\cchaIJlx.s:26632  .debug_str:000000000001b7d0 .LASF3870
C:\Users\CYMR90~1\AppData\Local\Temp\cchaIJlx.s:20519  .debug_str:0000000000002c81 .LASF3871
C:\Users\CYMR90~1\AppData\Local\Temp\cchaIJlx.s:30360  .debug_str:000000000002a43b .LASF3872
C:\Users\CYMR90~1\AppData\Local\Temp\cchaIJlx.s:30666  .debug_str:000000000002b71b .LASF3873
C:\Users\CYMR90~1\AppData\Local\Temp\cchaIJlx.s:22487  .debug_str:000000000000aa09 .LASF3874
C:\Users\CYMR90~1\AppData\Local\Temp\cchaIJlx.s:30964  .debug_str:000000000002cb3b .LASF3875
C:\Users\CYMR90~1\AppData\Local\Temp\cchaIJlx.s:30886  .debug_str:000000000002c5f7 .LASF3876
C:\Users\CYMR90~1\AppData\Local\Temp\cchaIJlx.s:24219  .debug_str:00000000000119e1 .LASF3877
C:\Users\CYMR90~1\AppData\Local\Temp\cchaIJlx.s:20801  .debug_str:0000000000003ec8 .LASF3878
C:\Users\CYMR90~1\AppData\Local\Temp\cchaIJlx.s:28718  .debug_str:00000000000238aa .LASF3879
C:\Users\CYMR90~1\AppData\Local\Temp\cchaIJlx.s:25337  .debug_str:000000000001614e .LASF3880
C:\Users\CYMR90~1\AppData\Local\Temp\cchaIJlx.s:23789  .debug_str:000000000000fe51 .LASF3881
C:\Users\CYMR90~1\AppData\Local\Temp\cchaIJlx.s:29850  .debug_str:0000000000028415 .LASF3882
C:\Users\CYMR90~1\AppData\Local\Temp\cchaIJlx.s:27870  .debug_str:0000000000020565 .LASF3883
C:\Users\CYMR90~1\AppData\Local\Temp\cchaIJlx.s:21815  .debug_str:0000000000007fd0 .LASF3884
C:\Users\CYMR90~1\AppData\Local\Temp\cchaIJlx.s:29692  .debug_str:00000000000278d1 .LASF3885
C:\Users\CYMR90~1\AppData\Local\Temp\cchaIJlx.s:26352  .debug_str:000000000001a572 .LASF3886
C:\Users\CYMR90~1\AppData\Local\Temp\cchaIJlx.s:22961  .debug_str:000000000000ca77 .LASF3887
C:\Users\CYMR90~1\AppData\Local\Temp\cchaIJlx.s:30830  .debug_str:000000000002c28e .LASF3888
C:\Users\CYMR90~1\AppData\Local\Temp\cchaIJlx.s:20913  .debug_str:0000000000004658 .LASF3889
C:\Users\CYMR90~1\AppData\Local\Temp\cchaIJlx.s:24095  .debug_str:0000000000011100 .LASF3890
C:\Users\CYMR90~1\AppData\Local\Temp\cchaIJlx.s:26980  .debug_str:000000000001ce55 .LASF3891
C:\Users\CYMR90~1\AppData\Local\Temp\cchaIJlx.s:28578  .debug_str:0000000000022fd6 .LASF3892
C:\Users\CYMR90~1\AppData\Local\Temp\cchaIJlx.s:29928  .debug_str:000000000002894f .LASF3893
C:\Users\CYMR90~1\AppData\Local\Temp\cchaIJlx.s:20523  .debug_str:0000000000002cda .LASF3894
C:\Users\CYMR90~1\AppData\Local\Temp\cchaIJlx.s:27448  .debug_str:000000000001eb80 .LASF3895
C:\Users\CYMR90~1\AppData\Local\Temp\cchaIJlx.s:25051  .debug_str:0000000000014f9a .LASF3896
C:\Users\CYMR90~1\AppData\Local\Temp\cchaIJlx.s:21667  .debug_str:00000000000075b4 .LASF3897
C:\Users\CYMR90~1\AppData\Local\Temp\cchaIJlx.s:29546  .debug_str:0000000000026f19 .LASF3898
C:\Users\CYMR90~1\AppData\Local\Temp\cchaIJlx.s:21787  .debug_str:0000000000007df2 .LASF3899
C:\Users\CYMR90~1\AppData\Local\Temp\cchaIJlx.s:22815  .debug_str:000000000000c065 .LASF3900
C:\Users\CYMR90~1\AppData\Local\Temp\cchaIJlx.s:30692  .debug_str:000000000002b8e9 .LASF3901
C:\Users\CYMR90~1\AppData\Local\Temp\cchaIJlx.s:20431  .debug_str:0000000000002701 .LASF3902
C:\Users\CYMR90~1\AppData\Local\Temp\cchaIJlx.s:28738  .debug_str:00000000000239ba .LASF3903
C:\Users\CYMR90~1\AppData\Local\Temp\cchaIJlx.s:30628  .debug_str:000000000002b485 .LASF3904
C:\Users\CYMR90~1\AppData\Local\Temp\cchaIJlx.s:27146  .debug_str:000000000001d97e .LASF3905
C:\Users\CYMR90~1\AppData\Local\Temp\cchaIJlx.s:23813  .debug_str:000000000000ff9b .LASF3906
C:\Users\CYMR90~1\AppData\Local\Temp\cchaIJlx.s:20231  .debug_str:0000000000001b3a .LASF3907
C:\Users\CYMR90~1\AppData\Local\Temp\cchaIJlx.s:28280  .debug_str:0000000000021e33 .LASF3908
C:\Users\CYMR90~1\AppData\Local\Temp\cchaIJlx.s:24913  .debug_str:00000000000146db .LASF3909
C:\Users\CYMR90~1\AppData\Local\Temp\cchaIJlx.s:23611  .debug_str:000000000000f2dd .LASF3910
C:\Users\CYMR90~1\AppData\Local\Temp\cchaIJlx.s:26186  .debug_str:0000000000019a1b .LASF3911
C:\Users\CYMR90~1\AppData\Local\Temp\cchaIJlx.s:26066  .debug_str:0000000000019236 .LASF3912
C:\Users\CYMR90~1\AppData\Local\Temp\cchaIJlx.s:27436  .debug_str:000000000001eac3 .LASF3913
C:\Users\CYMR90~1\AppData\Local\Temp\cchaIJlx.s:29346  .debug_str:00000000000262f0 .LASF3914
C:\Users\CYMR90~1\AppData\Local\Temp\cchaIJlx.s:27502  .debug_str:000000000001eed0 .LASF3915
C:\Users\CYMR90~1\AppData\Local\Temp\cchaIJlx.s:22139  .debug_str:0000000000009427 .LASF3916
C:\Users\CYMR90~1\AppData\Local\Temp\cchaIJlx.s:30478  .debug_str:000000000002ab4a .LASF3917
C:\Users\CYMR90~1\AppData\Local\Temp\cchaIJlx.s:27018  .debug_str:000000000001d15e .LASF3918
C:\Users\CYMR90~1\AppData\Local\Temp\cchaIJlx.s:28218  .debug_str:0000000000021a67 .LASF3919
C:\Users\CYMR90~1\AppData\Local\Temp\cchaIJlx.s:20239  .debug_str:0000000000001bdf .LASF3920
C:\Users\CYMR90~1\AppData\Local\Temp\cchaIJlx.s:28138  .debug_str:0000000000021585 .LASF3921
C:\Users\CYMR90~1\AppData\Local\Temp\cchaIJlx.s:24767  .debug_str:0000000000013d84 .LASF3922
C:\Users\CYMR90~1\AppData\Local\Temp\cchaIJlx.s:30372  .debug_str:000000000002a4fa .LASF3923
C:\Users\CYMR90~1\AppData\Local\Temp\cchaIJlx.s:28074  .debug_str:0000000000021123 .LASF3924
C:\Users\CYMR90~1\AppData\Local\Temp\cchaIJlx.s:24707  .debug_str:0000000000013a08 .LASF3925
C:\Users\CYMR90~1\AppData\Local\Temp\cchaIJlx.s:29362  .debug_str:0000000000026400 .LASF3926
C:\Users\CYMR90~1\AppData\Local\Temp\cchaIJlx.s:29194  .debug_str:00000000000259b7 .LASF3927
C:\Users\CYMR90~1\AppData\Local\Temp\cchaIJlx.s:25842  .debug_str:00000000000182f5 .LASF3928
C:\Users\CYMR90~1\AppData\Local\Temp\cchaIJlx.s:30942  .debug_str:000000000002c992 .LASF3929
C:\Users\CYMR90~1\AppData\Local\Temp\cchaIJlx.s:30328  .debug_str:000000000002a20e .LASF3930
C:\Users\CYMR90~1\AppData\Local\Temp\cchaIJlx.s:20711  .debug_str:00000000000038e8 .LASF3931
C:\Users\CYMR90~1\AppData\Local\Temp\cchaIJlx.s:27160  .debug_str:000000000001da51 .LASF3932
C:\Users\CYMR90~1\AppData\Local\Temp\cchaIJlx.s:21579  .debug_str:0000000000006ff2 .LASF3933
C:\Users\CYMR90~1\AppData\Local\Temp\cchaIJlx.s:21721  .debug_str:0000000000007931 .LASF3934
C:\Users\CYMR90~1\AppData\Local\Temp\cchaIJlx.s:25726  .debug_str:0000000000017bee .LASF3935
C:\Users\CYMR90~1\AppData\Local\Temp\cchaIJlx.s:29632  .debug_str:00000000000274be .LASF3936
C:\Users\CYMR90~1\AppData\Local\Temp\cchaIJlx.s:22303  .debug_str:0000000000009eb7 .LASF3937
C:\Users\CYMR90~1\AppData\Local\Temp\cchaIJlx.s:30766  .debug_str:000000000002bdfe .LASF3938
C:\Users\CYMR90~1\AppData\Local\Temp\cchaIJlx.s:21831  .debug_str:0000000000008170 .LASF3939
C:\Users\CYMR90~1\AppData\Local\Temp\cchaIJlx.s:24153  .debug_str:00000000000114bd .LASF3940
C:\Users\CYMR90~1\AppData\Local\Temp\cchaIJlx.s:26684  .debug_str:000000000001ba89 .LASF3941
C:\Users\CYMR90~1\AppData\Local\Temp\cchaIJlx.s:30682  .debug_str:000000000002b853 .LASF3942
C:\Users\CYMR90~1\AppData\Local\Temp\cchaIJlx.s:24853  .debug_str:00000000000142ed .LASF3943
C:\Users\CYMR90~1\AppData\Local\Temp\cchaIJlx.s:27270  .debug_str:000000000001e0ff .LASF3944
C:\Users\CYMR90~1\AppData\Local\Temp\cchaIJlx.s:29562  .debug_str:00000000000270b3 .LASF3945
C:\Users\CYMR90~1\AppData\Local\Temp\cchaIJlx.s:20661  .debug_str:00000000000035ac .LASF3946
C:\Users\CYMR90~1\AppData\Local\Temp\cchaIJlx.s:27970  .debug_str:0000000000020b5c .LASF3947
C:\Users\CYMR90~1\AppData\Local\Temp\cchaIJlx.s:20579  .debug_str:0000000000003022 .LASF3948
C:\Users\CYMR90~1\AppData\Local\Temp\cchaIJlx.s:27606  .debug_str:000000000001f51b .LASF3949
C:\Users\CYMR90~1\AppData\Local\Temp\cchaIJlx.s:29958  .debug_str:0000000000028b0e .LASF3950
C:\Users\CYMR90~1\AppData\Local\Temp\cchaIJlx.s:24483  .debug_str:0000000000012b48 .LASF3951
C:\Users\CYMR90~1\AppData\Local\Temp\cchaIJlx.s:23281  .debug_str:000000000000de81 .LASF3952
C:\Users\CYMR90~1\AppData\Local\Temp\cchaIJlx.s:20331  .debug_str:0000000000002100 .LASF3953
C:\Users\CYMR90~1\AppData\Local\Temp\cchaIJlx.s:21855  .debug_str:00000000000082d2 .LASF3954
C:\Users\CYMR90~1\AppData\Local\Temp\cchaIJlx.s:24181  .debug_str:0000000000011722 .LASF3955
C:\Users\CYMR90~1\AppData\Local\Temp\cchaIJlx.s:26092  .debug_str:00000000000193da .LASF3956
C:\Users\CYMR90~1\AppData\Local\Temp\cchaIJlx.s:27610  .debug_str:000000000001f55a .LASF3957
C:\Users\CYMR90~1\AppData\Local\Temp\cchaIJlx.s:19883  .debug_str:000000000000051e .LASF3958
C:\Users\CYMR90~1\AppData\Local\Temp\cchaIJlx.s:26566  .debug_str:000000000001b3cb .LASF3959
C:\Users\CYMR90~1\AppData\Local\Temp\cchaIJlx.s:30540  .debug_str:000000000002aeba .LASF3960
C:\Users\CYMR90~1\AppData\Local\Temp\cchaIJlx.s:23209  .debug_str:000000000000da2c .LASF3961
C:\Users\CYMR90~1\AppData\Local\Temp\cchaIJlx.s:22233  .debug_str:0000000000009a6a .LASF3962
C:\Users\CYMR90~1\AppData\Local\Temp\cchaIJlx.s:26132  .debug_str:000000000001960c .LASF3963
C:\Users\CYMR90~1\AppData\Local\Temp\cchaIJlx.s:22107  .debug_str:0000000000009259 .LASF3964
C:\Users\CYMR90~1\AppData\Local\Temp\cchaIJlx.s:26028  .debug_str:0000000000018f20 .LASF3965
C:\Users\CYMR90~1\AppData\Local\Temp\cchaIJlx.s:29918  .debug_str:00000000000288bb .LASF3966
C:\Users\CYMR90~1\AppData\Local\Temp\cchaIJlx.s:24985  .debug_str:0000000000014afb .LASF3967
C:\Users\CYMR90~1\AppData\Local\Temp\cchaIJlx.s:26518  .debug_str:000000000001b0a8 .LASF3968
C:\Users\CYMR90~1\AppData\Local\Temp\cchaIJlx.s:30476  .debug_str:000000000002ab24 .LASF3969
C:\Users\CYMR90~1\AppData\Local\Temp\cchaIJlx.s:23147  .debug_str:000000000000d699 .LASF3970
C:\Users\CYMR90~1\AppData\Local\Temp\cchaIJlx.s:22289  .debug_str:0000000000009dc0 .LASF3971
C:\Users\CYMR90~1\AppData\Local\Temp\cchaIJlx.s:24617  .debug_str:0000000000013481 .LASF3972
C:\Users\CYMR90~1\AppData\Local\Temp\cchaIJlx.s:28028  .debug_str:0000000000020e8d .LASF3973
C:\Users\CYMR90~1\AppData\Local\Temp\cchaIJlx.s:22237  .debug_str:0000000000009aa1 .LASF3974
C:\Users\CYMR90~1\AppData\Local\Temp\cchaIJlx.s:27110  .debug_str:000000000001d751 .LASF3975
C:\Users\CYMR90~1\AppData\Local\Temp\cchaIJlx.s:22521  .debug_str:000000000000ac2f .LASF3976
C:\Users\CYMR90~1\AppData\Local\Temp\cchaIJlx.s:26456  .debug_str:000000000001ac76 .LASF3977
C:\Users\CYMR90~1\AppData\Local\Temp\cchaIJlx.s:30402  .debug_str:000000000002a6ba .LASF3978
C:\Users\CYMR90~1\AppData\Local\Temp\cchaIJlx.s:25782  .debug_str:0000000000017f58 .LASF3979
C:\Users\CYMR90~1\AppData\Local\Temp\cchaIJlx.s:26976  .debug_str:000000000001ce15 .LASF3980
C:\Users\CYMR90~1\AppData\Local\Temp\cchaIJlx.s:30888  .debug_str:000000000002c61b .LASF3981
C:\Users\CYMR90~1\AppData\Local\Temp\cchaIJlx.s:26056  .debug_str:00000000000191af .LASF3982
C:\Users\CYMR90~1\AppData\Local\Temp\cchaIJlx.s:20613  .debug_str:0000000000003296 .LASF3983
C:\Users\CYMR90~1\AppData\Local\Temp\cchaIJlx.s:29786  .debug_str:0000000000027f4c .LASF3984
C:\Users\CYMR90~1\AppData\Local\Temp\cchaIJlx.s:30348  .debug_str:000000000002a38e .LASF3985
C:\Users\CYMR90~1\AppData\Local\Temp\cchaIJlx.s:27736  .debug_str:000000000001fd36 .LASF3986
C:\Users\CYMR90~1\AppData\Local\Temp\cchaIJlx.s:30338  .debug_str:000000000002a2b7 .LASF3987
C:\Users\CYMR90~1\AppData\Local\Temp\cchaIJlx.s:23015  .debug_str:000000000000cdbb .LASF3988
C:\Users\CYMR90~1\AppData\Local\Temp\cchaIJlx.s:26916  .debug_str:000000000001c9bd .LASF3989
C:\Users\CYMR90~1\AppData\Local\Temp\cchaIJlx.s:30826  .debug_str:000000000002c241 .LASF3990
C:\Users\CYMR90~1\AppData\Local\Temp\cchaIJlx.s:20969  .debug_str:0000000000004a78 .LASF3991
C:\Users\CYMR90~1\AppData\Local\Temp\cchaIJlx.s:24975  .debug_str:0000000000014a7a .LASF3992
C:\Users\CYMR90~1\AppData\Local\Temp\cchaIJlx.s:24497  .debug_str:0000000000012c4f .LASF3993
C:\Users\CYMR90~1\AppData\Local\Temp\cchaIJlx.s:22389  .debug_str:000000000000a453 .LASF3994
C:\Users\CYMR90~1\AppData\Local\Temp\cchaIJlx.s:26312  .debug_str:000000000001a176 .LASF3995
C:\Users\CYMR90~1\AppData\Local\Temp\cchaIJlx.s:23823  .debug_str:000000000001006a .LASF3996
C:\Users\CYMR90~1\AppData\Local\Temp\cchaIJlx.s:26696  .debug_str:000000000001bb71 .LASF3997
C:\Users\CYMR90~1\AppData\Local\Temp\cchaIJlx.s:26848  .debug_str:000000000001c492 .LASF3998
C:\Users\CYMR90~1\AppData\Local\Temp\cchaIJlx.s:28140  .debug_str:00000000000215a9 .LASF3999
C:\Users\CYMR90~1\AppData\Local\Temp\cchaIJlx.s:23427  .debug_str:000000000000e78e .LASF4000
C:\Users\CYMR90~1\AppData\Local\Temp\cchaIJlx.s:27294  .debug_str:000000000001e23f .LASF4001
C:\Users\CYMR90~1\AppData\Local\Temp\cchaIJlx.s:19973  .debug_str:0000000000000b17 .LASF4002
C:\Users\CYMR90~1\AppData\Local\Temp\cchaIJlx.s:28314  .debug_str:0000000000022052 .LASF4003
C:\Users\CYMR90~1\AppData\Local\Temp\cchaIJlx.s:28408  .debug_str:00000000000225e0 .LASF4004
C:\Users\CYMR90~1\AppData\Local\Temp\cchaIJlx.s:30212  .debug_str:0000000000029b46 .LASF4005
C:\Users\CYMR90~1\AppData\Local\Temp\cchaIJlx.s:22877  .debug_str:000000000000c445 .LASF4006
C:\Users\CYMR90~1\AppData\Local\Temp\cchaIJlx.s:24995  .debug_str:0000000000014ba1 .LASF4007
C:\Users\CYMR90~1\AppData\Local\Temp\cchaIJlx.s:30698  .debug_str:000000000002b947 .LASF4008
C:\Users\CYMR90~1\AppData\Local\Temp\cchaIJlx.s:27320  .debug_str:000000000001e3cf .LASF4009
C:\Users\CYMR90~1\AppData\Local\Temp\cchaIJlx.s:27232  .debug_str:000000000001dea6 .LASF4010
C:\Users\CYMR90~1\AppData\Local\Temp\cchaIJlx.s:19915  .debug_str:000000000000073d .LASF4011
C:\Users\CYMR90~1\AppData\Local\Temp\cchaIJlx.s:30874  .debug_str:000000000002c515 .LASF4012
C:\Users\CYMR90~1\AppData\Local\Temp\cchaIJlx.s:20877  .debug_str:00000000000043e6 .LASF4013
C:\Users\CYMR90~1\AppData\Local\Temp\cchaIJlx.s:30150  .debug_str:0000000000029788 .LASF4014
C:\Users\CYMR90~1\AppData\Local\Temp\cchaIJlx.s:26194  .debug_str:0000000000019a97 .LASF4015
C:\Users\CYMR90~1\AppData\Local\Temp\cchaIJlx.s:28494  .debug_str:0000000000022b2d .LASF4016
C:\Users\CYMR90~1\AppData\Local\Temp\cchaIJlx.s:30642  .debug_str:000000000002b56e .LASF4017
C:\Users\CYMR90~1\AppData\Local\Temp\cchaIJlx.s:23303  .debug_str:000000000000dfc3 .LASF4018
C:\Users\CYMR90~1\AppData\Local\Temp\cchaIJlx.s:21175  .debug_str:00000000000056f9 .LASF4019
C:\Users\CYMR90~1\AppData\Local\Temp\cchaIJlx.s:19843  .debug_str:0000000000000306 .LASF4020
C:\Users\CYMR90~1\AppData\Local\Temp\cchaIJlx.s:24357  .debug_str:000000000001232b .LASF4021
C:\Users\CYMR90~1\AppData\Local\Temp\cchaIJlx.s:20751  .debug_str:0000000000003b58 .LASF4022
C:\Users\CYMR90~1\AppData\Local\Temp\cchaIJlx.s:24841  .debug_str:000000000001423a .LASF4023
C:\Users\CYMR90~1\AppData\Local\Temp\cchaIJlx.s:22755  .debug_str:000000000000bc7d .LASF4024
C:\Users\CYMR90~1\AppData\Local\Temp\cchaIJlx.s:20127  .debug_str:000000000000147c .LASF4025
C:\Users\CYMR90~1\AppData\Local\Temp\cchaIJlx.s:30564  .debug_str:000000000002b04c .LASF4026
C:\Users\CYMR90~1\AppData\Local\Temp\cchaIJlx.s:27488  .debug_str:000000000001ede4 .LASF4027
C:\Users\CYMR90~1\AppData\Local\Temp\cchaIJlx.s:27666  .debug_str:000000000001f8b8 .LASF4028
C:\Users\CYMR90~1\AppData\Local\Temp\cchaIJlx.s:31034  .debug_str:000000000002cf6f .LASF4029
C:\Users\CYMR90~1\AppData\Local\Temp\cchaIJlx.s:20121  .debug_str:0000000000001420 .LASF4030
C:\Users\CYMR90~1\AppData\Local\Temp\cchaIJlx.s:24287  .debug_str:0000000000011e0b .LASF4031
C:\Users\CYMR90~1\AppData\Local\Temp\cchaIJlx.s:26618  .debug_str:000000000001b6f8 .LASF4032
C:\Users\CYMR90~1\AppData\Local\Temp\cchaIJlx.s:29254  .debug_str:0000000000025d38 .LASF4033
C:\Users\CYMR90~1\AppData\Local\Temp\cchaIJlx.s:25021  .debug_str:0000000000014d87 .LASF4034
C:\Users\CYMR90~1\AppData\Local\Temp\cchaIJlx.s:28214  .debug_str:0000000000021a27 .LASF4035
C:\Users\CYMR90~1\AppData\Local\Temp\cchaIJlx.s:20571  .debug_str:0000000000002fb8 .LASF4036
C:\Users\CYMR90~1\AppData\Local\Temp\cchaIJlx.s:21899  .debug_str:00000000000085c5 .LASF4037
C:\Users\CYMR90~1\AppData\Local\Temp\cchaIJlx.s:25812  .debug_str:000000000001811d .LASF4038
C:\Users\CYMR90~1\AppData\Local\Temp\cchaIJlx.s:29710  .debug_str:00000000000279f7 .LASF4039
C:\Users\CYMR90~1\AppData\Local\Temp\cchaIJlx.s:29702  .debug_str:0000000000027978 .LASF4040
C:\Users\CYMR90~1\AppData\Local\Temp\cchaIJlx.s:30892  .debug_str:000000000002c65e .LASF4041
C:\Users\CYMR90~1\AppData\Local\Temp\cchaIJlx.s:30262  .debug_str:0000000000029e33 .LASF4042
C:\Users\CYMR90~1\AppData\Local\Temp\cchaIJlx.s:26014  .debug_str:0000000000018dff .LASF4043
C:\Users\CYMR90~1\AppData\Local\Temp\cchaIJlx.s:20445  .debug_str:0000000000002825 .LASF4044
C:\Users\CYMR90~1\AppData\Local\Temp\cchaIJlx.s:29160  .debug_str:00000000000257a4 .LASF4045
C:\Users\CYMR90~1\AppData\Local\Temp\cchaIJlx.s:21837  .debug_str:00000000000081b4 .LASF4046
C:\Users\CYMR90~1\AppData\Local\Temp\cchaIJlx.s:25738  .debug_str:0000000000017c9c .LASF4047
C:\Users\CYMR90~1\AppData\Local\Temp\cchaIJlx.s:30468  .debug_str:000000000002aa89 .LASF4048
C:\Users\CYMR90~1\AppData\Local\Temp\cchaIJlx.s:20775  .debug_str:0000000000003d0a .LASF4049
C:\Users\CYMR90~1\AppData\Local\Temp\cchaIJlx.s:26234  .debug_str:0000000000019d0c .LASF4050
C:\Users\CYMR90~1\AppData\Local\Temp\cchaIJlx.s:30208  .debug_str:0000000000029b09 .LASF4051
C:\Users\CYMR90~1\AppData\Local\Temp\cchaIJlx.s:28650  .debug_str:000000000002347e .LASF4052
C:\Users\CYMR90~1\AppData\Local\Temp\cchaIJlx.s:27700  .debug_str:000000000001fadc .LASF4053
C:\Users\CYMR90~1\AppData\Local\Temp\cchaIJlx.s:28996  .debug_str:0000000000024b54 .LASF4054
C:\Users\CYMR90~1\AppData\Local\Temp\cchaIJlx.s:30984  .debug_str:000000000002cc84 .LASF4055
C:\Users\CYMR90~1\AppData\Local\Temp\cchaIJlx.s:25676  .debug_str:000000000001790f .LASF4056
C:\Users\CYMR90~1\AppData\Local\Temp\cchaIJlx.s:21989  .debug_str:0000000000008b3e .LASF4057
C:\Users\CYMR90~1\AppData\Local\Temp\cchaIJlx.s:26400  .debug_str:000000000001a905 .LASF4058
C:\Users\CYMR90~1\AppData\Local\Temp\cchaIJlx.s:26640  .debug_str:000000000001b85d .LASF4059
C:\Users\CYMR90~1\AppData\Local\Temp\cchaIJlx.s:30140  .debug_str:00000000000296fe .LASF4060
C:\Users\CYMR90~1\AppData\Local\Temp\cchaIJlx.s:22809  .debug_str:000000000000c012 .LASF4061
C:\Users\CYMR90~1\AppData\Local\Temp\cchaIJlx.s:23223  .debug_str:000000000000dad3 .LASF4062
C:\Users\CYMR90~1\AppData\Local\Temp\cchaIJlx.s:23689  .debug_str:000000000000f813 .LASF4063
C:\Users\CYMR90~1\AppData\Local\Temp\cchaIJlx.s:21697  .debug_str:00000000000077a2 .LASF4064
C:\Users\CYMR90~1\AppData\Local\Temp\cchaIJlx.s:25610  .debug_str:00000000000174b0 .LASF4065
C:\Users\CYMR90~1\AppData\Local\Temp\cchaIJlx.s:28630  .debug_str:00000000000232ee .LASF4066
C:\Users\CYMR90~1\AppData\Local\Temp\cchaIJlx.s:22169  .debug_str:000000000000961f .LASF4067
C:\Users\CYMR90~1\AppData\Local\Temp\cchaIJlx.s:30948  .debug_str:000000000002c9ea .LASF4068
C:\Users\CYMR90~1\AppData\Local\Temp\cchaIJlx.s:30080  .debug_str:000000000002933a .LASF4069
C:\Users\CYMR90~1\AppData\Local\Temp\cchaIJlx.s:22749  .debug_str:000000000000bc04 .LASF4070
C:\Users\CYMR90~1\AppData\Local\Temp\cchaIJlx.s:26716  .debug_str:000000000001bcb0 .LASF4071
C:\Users\CYMR90~1\AppData\Local\Temp\cchaIJlx.s:29018  .debug_str:0000000000024ce2 .LASF4072
C:\Users\CYMR90~1\AppData\Local\Temp\cchaIJlx.s:25081  .debug_str:0000000000015160 .LASF4073
C:\Users\CYMR90~1\AppData\Local\Temp\cchaIJlx.s:25554  .debug_str:0000000000017156 .LASF4074
C:\Users\CYMR90~1\AppData\Local\Temp\cchaIJlx.s:27004  .debug_str:000000000001d060 .LASF4075
C:\Users\CYMR90~1\AppData\Local\Temp\cchaIJlx.s:20025  .debug_str:0000000000000e09 .LASF4076
C:\Users\CYMR90~1\AppData\Local\Temp\cchaIJlx.s:26044  .debug_str:00000000000190e9 .LASF4077
C:\Users\CYMR90~1\AppData\Local\Temp\cchaIJlx.s:25560  .debug_str:00000000000171c2 .LASF4078
C:\Users\CYMR90~1\AppData\Local\Temp\cchaIJlx.s:27866  .debug_str:0000000000020528 .LASF4079
C:\Users\CYMR90~1\AppData\Local\Temp\cchaIJlx.s:30188  .debug_str:00000000000299c6 .LASF4080
C:\Users\CYMR90~1\AppData\Local\Temp\cchaIJlx.s:30488  .debug_str:000000000002abd0 .LASF4081
C:\Users\CYMR90~1\AppData\Local\Temp\cchaIJlx.s:23605  .debug_str:000000000000f26d .LASF4082
C:\Users\CYMR90~1\AppData\Local\Temp\cchaIJlx.s:30898  .debug_str:000000000002c6d7 .LASF4083
C:\Users\CYMR90~1\AppData\Local\Temp\cchaIJlx.s:29386  .debug_str:000000000002659c .LASF4084
C:\Users\CYMR90~1\AppData\Local\Temp\cchaIJlx.s:23555  .debug_str:000000000000ef36 .LASF4085
C:\Users\CYMR90~1\AppData\Local\Temp\cchaIJlx.s:25978  .debug_str:0000000000018be2 .LASF4086
C:\Users\CYMR90~1\AppData\Local\Temp\cchaIJlx.s:29954  .debug_str:0000000000028ad4 .LASF4087
C:\Users\CYMR90~1\AppData\Local\Temp\cchaIJlx.s:28872  .debug_str:0000000000024307 .LASF4088
C:\Users\CYMR90~1\AppData\Local\Temp\cchaIJlx.s:26546  .debug_str:000000000001b2a0 .LASF4089
C:\Users\CYMR90~1\AppData\Local\Temp\cchaIJlx.s:30416  .debug_str:000000000002a768 .LASF4090
C:\Users\CYMR90~1\AppData\Local\Temp\cchaIJlx.s:23097  .debug_str:000000000000d37f .LASF4091
C:\Users\CYMR90~1\AppData\Local\Temp\cchaIJlx.s:29388  .debug_str:00000000000265c2 .LASF4092
C:\Users\CYMR90~1\AppData\Local\Temp\cchaIJlx.s:25461  .debug_str:000000000001698a .LASF4093
C:\Users\CYMR90~1\AppData\Local\Temp\cchaIJlx.s:21993  .debug_str:0000000000008b78 .LASF4094
C:\Users\CYMR90~1\AppData\Local\Temp\cchaIJlx.s:25904  .debug_str:0000000000018662 .LASF4095
C:\Users\CYMR90~1\AppData\Local\Temp\cchaIJlx.s:23955  .debug_str:000000000001085d .LASF4096
C:\Users\CYMR90~1\AppData\Local\Temp\cchaIJlx.s:22559  .debug_str:000000000000af78 .LASF4097
C:\Users\CYMR90~1\AppData\Local\Temp\cchaIJlx.s:25938  .debug_str:00000000000188e9 .LASF4098
C:\Users\CYMR90~1\AppData\Local\Temp\cchaIJlx.s:26154  .debug_str:00000000000197b8 .LASF4099
C:\Users\CYMR90~1\AppData\Local\Temp\cchaIJlx.s:30570  .debug_str:000000000002b0a2 .LASF4100
C:\Users\CYMR90~1\AppData\Local\Temp\cchaIJlx.s:21621  .debug_str:000000000000730d .LASF4101
C:\Users\CYMR90~1\AppData\Local\Temp\cchaIJlx.s:30840  .debug_str:000000000002c322 .LASF4102
C:\Users\CYMR90~1\AppData\Local\Temp\cchaIJlx.s:27920  .debug_str:0000000000020847 .LASF4103
C:\Users\CYMR90~1\AppData\Local\Temp\cchaIJlx.s:21561  .debug_str:0000000000006ec8 .LASF4104
C:\Users\CYMR90~1\AppData\Local\Temp\cchaIJlx.s:29822  .debug_str:0000000000028222 .LASF4105
C:\Users\CYMR90~1\AppData\Local\Temp\cchaIJlx.s:22491  .debug_str:000000000000aa53 .LASF4106
C:\Users\CYMR90~1\AppData\Local\Temp\cchaIJlx.s:21165  .debug_str:0000000000005621 .LASF4107
C:\Users\CYMR90~1\AppData\Local\Temp\cchaIJlx.s:21935  .debug_str:00000000000087cf .LASF4108
C:\Users\CYMR90~1\AppData\Local\Temp\cchaIJlx.s:22969  .debug_str:000000000000caf1 .LASF4109
C:\Users\CYMR90~1\AppData\Local\Temp\cchaIJlx.s:26866  .debug_str:000000000001c5c3 .LASF4110
C:\Users\CYMR90~1\AppData\Local\Temp\cchaIJlx.s:30776  .debug_str:000000000002be86 .LASF4111
C:\Users\CYMR90~1\AppData\Local\Temp\cchaIJlx.s:23543  .debug_str:000000000000ee91 .LASF4112
C:\Users\CYMR90~1\AppData\Local\Temp\cchaIJlx.s:27642  .debug_str:000000000001f733 .LASF4113
C:\Users\CYMR90~1\AppData\Local\Temp\cchaIJlx.s:28266  .debug_str:0000000000021d7e .LASF4114
C:\Users\CYMR90~1\AppData\Local\Temp\cchaIJlx.s:30598  .debug_str:000000000002b298 .LASF4115
C:\Users\CYMR90~1\AppData\Local\Temp\cchaIJlx.s:26358  .debug_str:000000000001a5c7 .LASF4116
C:\Users\CYMR90~1\AppData\Local\Temp\cchaIJlx.s:28976  .debug_str:0000000000024a13 .LASF4117
C:\Users\CYMR90~1\AppData\Local\Temp\cchaIJlx.s:26330  .debug_str:000000000001a442 .LASF4118
C:\Users\CYMR90~1\AppData\Local\Temp\cchaIJlx.s:26798  .debug_str:000000000001c1e7 .LASF4119
C:\Users\CYMR90~1\AppData\Local\Temp\cchaIJlx.s:19921  .debug_str:000000000000079c .LASF4120
C:\Users\CYMR90~1\AppData\Local\Temp\cchaIJlx.s:22891  .debug_str:000000000000c4fa .LASF4121
C:\Users\CYMR90~1\AppData\Local\Temp\cchaIJlx.s:27328  .debug_str:000000000001e45e .LASF4122
C:\Users\CYMR90~1\AppData\Local\Temp\cchaIJlx.s:21237  .debug_str:0000000000005ab9 .LASF4123
C:\Users\CYMR90~1\AppData\Local\Temp\cchaIJlx.s:22363  .debug_str:000000000000a273 .LASF4124
C:\Users\CYMR90~1\AppData\Local\Temp\cchaIJlx.s:26276  .debug_str:0000000000019f74 .LASF4125
C:\Users\CYMR90~1\AppData\Local\Temp\cchaIJlx.s:30162  .debug_str:0000000000029845 .LASF4126
C:\Users\CYMR90~1\AppData\Local\Temp\cchaIJlx.s:22833  .debug_str:000000000000c182 .LASF4127
C:\Users\CYMR90~1\AppData\Local\Temp\cchaIJlx.s:26742  .debug_str:000000000001be7f .LASF4128
C:\Users\CYMR90~1\AppData\Local\Temp\cchaIJlx.s:26974  .debug_str:000000000001cdef .LASF4129
C:\Users\CYMR90~1\AppData\Local\Temp\cchaIJlx.s:26420  .debug_str:000000000001aa5f .LASF4130
C:\Users\CYMR90~1\AppData\Local\Temp\cchaIJlx.s:27268  .debug_str:000000000001e0d9 .LASF4131
C:\Users\CYMR90~1\AppData\Local\Temp\cchaIJlx.s:30842  .debug_str:000000000002c348 .LASF4132
C:\Users\CYMR90~1\AppData\Local\Temp\cchaIJlx.s:22447  .debug_str:000000000000a7e2 .LASF4133
C:\Users\CYMR90~1\AppData\Local\Temp\cchaIJlx.s:20905  .debug_str:00000000000045d5 .LASF4134
C:\Users\CYMR90~1\AppData\Local\Temp\cchaIJlx.s:24941  .debug_str:0000000000014873 .LASF4135
C:\Users\CYMR90~1\AppData\Local\Temp\cchaIJlx.s:28850  .debug_str:0000000000024179 .LASF4136
C:\Users\CYMR90~1\AppData\Local\Temp\cchaIJlx.s:21489  .debug_str:0000000000006a3b .LASF4137
C:\Users\CYMR90~1\AppData\Local\Temp\cchaIJlx.s:28346  .debug_str:000000000002223d .LASF4138
C:\Users\CYMR90~1\AppData\Local\Temp\cchaIJlx.s:30678  .debug_str:000000000002b7f2 .LASF4139
C:\Users\CYMR90~1\AppData\Local\Temp\cchaIJlx.s:21473  .debug_str:0000000000006934 .LASF4140
C:\Users\CYMR90~1\AppData\Local\Temp\cchaIJlx.s:25898  .debug_str:0000000000018616 .LASF4141
C:\Users\CYMR90~1\AppData\Local\Temp\cchaIJlx.s:29886  .debug_str:000000000002869d .LASF4142
C:\Users\CYMR90~1\AppData\Local\Temp\cchaIJlx.s:29230  .debug_str:0000000000025bc2 .LASF4143
C:\Users\CYMR90~1\AppData\Local\Temp\cchaIJlx.s:24877  .debug_str:0000000000014428 .LASF4144
C:\Users\CYMR90~1\AppData\Local\Temp\cchaIJlx.s:28782  .debug_str:0000000000023c56 .LASF4145
C:\Users\CYMR90~1\AppData\Local\Temp\cchaIJlx.s:29516  .debug_str:0000000000026d76 .LASF4146
C:\Users\CYMR90~1\AppData\Local\Temp\cchaIJlx.s:27076  .debug_str:000000000001d500 .LASF4147
C:\Users\CYMR90~1\AppData\Local\Temp\cchaIJlx.s:27796  .debug_str:000000000002009e .LASF4148
C:\Users\CYMR90~1\AppData\Local\Temp\cchaIJlx.s:25223  .debug_str:000000000001598c .LASF4149
C:\Users\CYMR90~1\AppData\Local\Temp\cchaIJlx.s:27504  .debug_str:000000000001eef4 .LASF4150
C:\Users\CYMR90~1\AppData\Local\Temp\cchaIJlx.s:23231  .debug_str:000000000000db5a .LASF4151
C:\Users\CYMR90~1\AppData\Local\Temp\cchaIJlx.s:21811  .debug_str:0000000000007f95 .LASF4152
C:\Users\CYMR90~1\AppData\Local\Temp\cchaIJlx.s:29118  .debug_str:0000000000025430 .LASF4153
C:\Users\CYMR90~1\AppData\Local\Temp\cchaIJlx.s:30700  .debug_str:000000000002b96d .LASF4154
C:\Users\CYMR90~1\AppData\Local\Temp\cchaIJlx.s:22161  .debug_str:00000000000095a6 .LASF4155
C:\Users\CYMR90~1\AppData\Local\Temp\cchaIJlx.s:25277  .debug_str:0000000000015d12 .LASF4156
C:\Users\CYMR90~1\AppData\Local\Temp\cchaIJlx.s:29176  .debug_str:0000000000025891 .LASF4157
C:\Users\CYMR90~1\AppData\Local\Temp\cchaIJlx.s:24351  .debug_str:00000000000122d0 .LASF4158
C:\Users\CYMR90~1\AppData\Local\Temp\cchaIJlx.s:24399  .debug_str:00000000000125ea .LASF4159
C:\Users\CYMR90~1\AppData\Local\Temp\cchaIJlx.s:22999  .debug_str:000000000000cc8b .LASF4160
C:\Users\CYMR90~1\AppData\Local\Temp\cchaIJlx.s:22417  .debug_str:000000000000a5dd .LASF4161
C:\Users\CYMR90~1\AppData\Local\Temp\cchaIJlx.s:26348  .debug_str:000000000001a534 .LASF4162
C:\Users\CYMR90~1\AppData\Local\Temp\cchaIJlx.s:23423  .debug_str:000000000000e758 .LASF4163
C:\Users\CYMR90~1\AppData\Local\Temp\cchaIJlx.s:21279  .debug_str:0000000000005d2c .LASF4164
C:\Users\CYMR90~1\AppData\Local\Temp\cchaIJlx.s:27532  .debug_str:000000000001f0ab .LASF4165
C:\Users\CYMR90~1\AppData\Local\Temp\cchaIJlx.s:29114  .debug_str:00000000000253de .LASF4166
C:\Users\CYMR90~1\AppData\Local\Temp\cchaIJlx.s:28910  .debug_str:0000000000024575 .LASF4167
C:\Users\CYMR90~1\AppData\Local\Temp\cchaIJlx.s:20835  .debug_str:0000000000004150 .LASF4168
C:\Users\CYMR90~1\AppData\Local\Temp\cchaIJlx.s:26516  .debug_str:000000000001b082 .LASF4169
C:\Users\CYMR90~1\AppData\Local\Temp\cchaIJlx.s:24021  .debug_str:0000000000010ce8 .LASF4170
C:\Users\CYMR90~1\AppData\Local\Temp\cchaIJlx.s:26268  .debug_str:0000000000019eee .LASF4171
C:\Users\CYMR90~1\AppData\Local\Temp\cchaIJlx.s:30156  .debug_str:00000000000297db .LASF4172
C:\Users\CYMR90~1\AppData\Local\Temp\cchaIJlx.s:29500  .debug_str:0000000000026c76 .LASF4173
C:\Users\CYMR90~1\AppData\Local\Temp\cchaIJlx.s:25153  .debug_str:000000000001555a .LASF4174
C:\Users\CYMR90~1\AppData\Local\Temp\cchaIJlx.s:30786  .debug_str:000000000002bf41 .LASF4175
C:\Users\CYMR90~1\AppData\Local\Temp\cchaIJlx.s:21705  .debug_str:0000000000007834 .LASF4176
C:\Users\CYMR90~1\AppData\Local\Temp\cchaIJlx.s:29060  .debug_str:0000000000024fbe .LASF4177
C:\Users\CYMR90~1\AppData\Local\Temp\cchaIJlx.s:31028  .debug_str:000000000002cf0b .LASF4178
C:\Users\CYMR90~1\AppData\Local\Temp\cchaIJlx.s:21005  .debug_str:0000000000004c9a .LASF4179
C:\Users\CYMR90~1\AppData\Local\Temp\cchaIJlx.s:23371  .debug_str:000000000000e3d4 .LASF4180
C:\Users\CYMR90~1\AppData\Local\Temp\cchaIJlx.s:21231  .debug_str:0000000000005a25 .LASF4181
C:\Users\CYMR90~1\AppData\Local\Temp\cchaIJlx.s:22761  .debug_str:000000000000bcdb .LASF4182
C:\Users\CYMR90~1\AppData\Local\Temp\cchaIJlx.s:24083  .debug_str:0000000000011041 .LASF4183
C:\Users\CYMR90~1\AppData\Local\Temp\cchaIJlx.s:22261  .debug_str:0000000000009c1a .LASF4184
C:\Users\CYMR90~1\AppData\Local\Temp\cchaIJlx.s:29272  .debug_str:0000000000025e8a .LASF4185
C:\Users\CYMR90~1\AppData\Local\Temp\cchaIJlx.s:25646  .debug_str:00000000000176e8 .LASF4186
C:\Users\CYMR90~1\AppData\Local\Temp\cchaIJlx.s:22231  .debug_str:0000000000009a44 .LASF4187
C:\Users\CYMR90~1\AppData\Local\Temp\cchaIJlx.s:26856  .debug_str:000000000001c50c .LASF4188
C:\Users\CYMR90~1\AppData\Local\Temp\cchaIJlx.s:26150  .debug_str:000000000001976d .LASF4189
C:\Users\CYMR90~1\AppData\Local\Temp\cchaIJlx.s:30034  .debug_str:0000000000028fde .LASF4190
C:\Users\CYMR90~1\AppData\Local\Temp\cchaIJlx.s:22695  .debug_str:000000000000b8a9 .LASF4191
C:\Users\CYMR90~1\AppData\Local\Temp\cchaIJlx.s:22573  .debug_str:000000000000b067 .LASF4192
C:\Users\CYMR90~1\AppData\Local\Temp\cchaIJlx.s:23719  .debug_str:000000000000f9b7 .LASF4193
C:\Users\CYMR90~1\AppData\Local\Temp\cchaIJlx.s:21571  .debug_str:0000000000006f51 .LASF4194
C:\Users\CYMR90~1\AppData\Local\Temp\cchaIJlx.s:25588  .debug_str:000000000001735c .LASF4195
C:\Users\CYMR90~1\AppData\Local\Temp\cchaIJlx.s:29492  .debug_str:0000000000026bfe .LASF4196
C:\Users\CYMR90~1\AppData\Local\Temp\cchaIJlx.s:28012  .debug_str:0000000000020dac .LASF4197
C:\Users\CYMR90~1\AppData\Local\Temp\cchaIJlx.s:26080  .debug_str:0000000000019303 .LASF4198
C:\Users\CYMR90~1\AppData\Local\Temp\cchaIJlx.s:21399  .debug_str:00000000000064b8 .LASF4199
C:\Users\CYMR90~1\AppData\Local\Temp\cchaIJlx.s:22637  .debug_str:000000000000b49b .LASF4200
C:\Users\CYMR90~1\AppData\Local\Temp\cchaIJlx.s:26072  .debug_str:000000000001928d .LASF4201
C:\Users\CYMR90~1\AppData\Local\Temp\cchaIJlx.s:24247  .debug_str:0000000000011b77 .LASF4202
C:\Users\CYMR90~1\AppData\Local\Temp\cchaIJlx.s:21313  .debug_str:0000000000005f74 .LASF4203
C:\Users\CYMR90~1\AppData\Local\Temp\cchaIJlx.s:25526  .debug_str:0000000000016fc7 .LASF4204
C:\Users\CYMR90~1\AppData\Local\Temp\cchaIJlx.s:29422  .debug_str:00000000000267be .LASF4205
C:\Users\CYMR90~1\AppData\Local\Temp\cchaIJlx.s:22091  .debug_str:0000000000009153 .LASF4206
C:\Users\CYMR90~1\AppData\Local\Temp\cchaIJlx.s:20183  .debug_str:0000000000001852 .LASF4207
C:\Users\CYMR90~1\AppData\Local\Temp\cchaIJlx.s:26188  .debug_str:0000000000019a3f .LASF4208
C:\Users\CYMR90~1\AppData\Local\Temp\cchaIJlx.s:27212  .debug_str:000000000001dd68 .LASF4209
C:\Users\CYMR90~1\AppData\Local\Temp\cchaIJlx.s:21347  .debug_str:00000000000061be .LASF4210
C:\Users\CYMR90~1\AppData\Local\Temp\cchaIJlx.s:30366  .debug_str:000000000002a4a5 .LASF4211
C:\Users\CYMR90~1\AppData\Local\Temp\cchaIJlx.s:23137  .debug_str:000000000000d623 .LASF4212
C:\Users\CYMR90~1\AppData\Local\Temp\cchaIJlx.s:20189  .debug_str:00000000000018b8 .LASF4213
C:\Users\CYMR90~1\AppData\Local\Temp\cchaIJlx.s:29360  .debug_str:00000000000263da .LASF4214
C:\Users\CYMR90~1\AppData\Local\Temp\cchaIJlx.s:23787  .debug_str:000000000000fe2b .LASF4215
C:\Users\CYMR90~1\AppData\Local\Temp\cchaIJlx.s:26252  .debug_str:0000000000019dfe .LASF4216
C:\Users\CYMR90~1\AppData\Local\Temp\cchaIJlx.s:28400  .debug_str:0000000000022565 .LASF4217
C:\Users\CYMR90~1\AppData\Local\Temp\cchaIJlx.s:30728  .debug_str:000000000002bb3a .LASF4218
C:\Users\CYMR90~1\AppData\Local\Temp\cchaIJlx.s:26446  .debug_str:000000000001abd8 .LASF4219
C:\Users\CYMR90~1\AppData\Local\Temp\cchaIJlx.s:30306  .debug_str:000000000002a0a4 .LASF4220
C:\Users\CYMR90~1\AppData\Local\Temp\cchaIJlx.s:23069  .debug_str:000000000000d178 .LASF4221
C:\Users\CYMR90~1\AppData\Local\Temp\cchaIJlx.s:23735  .debug_str:000000000000faad .LASF4222
C:\Users\CYMR90~1\AppData\Local\Temp\cchaIJlx.s:24069  .debug_str:0000000000010f61 .LASF4223
C:\Users\CYMR90~1\AppData\Local\Temp\cchaIJlx.s:21963  .debug_str:00000000000089a5 .LASF4224
C:\Users\CYMR90~1\AppData\Local\Temp\cchaIJlx.s:22039  .debug_str:0000000000008e69 .LASF4225
C:\Users\CYMR90~1\AppData\Local\Temp\cchaIJlx.s:24881  .debug_str:0000000000014487 .LASF4226
C:\Users\CYMR90~1\AppData\Local\Temp\cchaIJlx.s:22975  .debug_str:000000000000cb58 .LASF4227
C:\Users\CYMR90~1\AppData\Local\Temp\cchaIJlx.s:26374  .debug_str:000000000001a705 .LASF4228
C:\Users\CYMR90~1\AppData\Local\Temp\cchaIJlx.s:24759  .debug_str:0000000000013cfe .LASF4229
C:\Users\CYMR90~1\AppData\Local\Temp\cchaIJlx.s:27324  .debug_str:000000000001e425 .LASF4230
C:\Users\CYMR90~1\AppData\Local\Temp\cchaIJlx.s:28076  .debug_str:0000000000021147 .LASF4231
C:\Users\CYMR90~1\AppData\Local\Temp\cchaIJlx.s:24193  .debug_str:00000000000117ce .LASF4232
C:\Users\CYMR90~1\AppData\Local\Temp\cchaIJlx.s:22489  .debug_str:000000000000aa2d .LASF4233
C:\Users\CYMR90~1\AppData\Local\Temp\cchaIJlx.s:20617  .debug_str:00000000000032d4 .LASF4234
C:\Users\CYMR90~1\AppData\Local\Temp\cchaIJlx.s:24557  .debug_str:000000000001304c .LASF4235
C:\Users\CYMR90~1\AppData\Local\Temp\cchaIJlx.s:28112  .debug_str:0000000000021406 .LASF4236
C:\Users\CYMR90~1\AppData\Local\Temp\cchaIJlx.s:21075  .debug_str:00000000000050d0 .LASF4237
C:\Users\CYMR90~1\AppData\Local\Temp\cchaIJlx.s:25017  .debug_str:0000000000014d3f .LASF4238
C:\Users\CYMR90~1\AppData\Local\Temp\cchaIJlx.s:28920  .debug_str:000000000002461d .LASF4239
C:\Users\CYMR90~1\AppData\Local\Temp\cchaIJlx.s:21563  .debug_str:0000000000006eee .LASF4240
C:\Users\CYMR90~1\AppData\Local\Temp\cchaIJlx.s:20849  .debug_str:0000000000004226 .LASF4241
C:\Users\CYMR90~1\AppData\Local\Temp\cchaIJlx.s:29484  .debug_str:0000000000026b63 .LASF4242
C:\Users\CYMR90~1\AppData\Local\Temp\cchaIJlx.s:27718  .debug_str:000000000001fbd4 .LASF4243
C:\Users\CYMR90~1\AppData\Local\Temp\cchaIJlx.s:24505  .debug_str:0000000000012cea .LASF4244
C:\Users\CYMR90~1\AppData\Local\Temp\cchaIJlx.s:28392  .debug_str:00000000000224d0 .LASF4245
C:\Users\CYMR90~1\AppData\Local\Temp\cchaIJlx.s:24337  .debug_str:00000000000121d9 .LASF4246
C:\Users\CYMR90~1\AppData\Local\Temp\cchaIJlx.s:25061  .debug_str:000000000001503b .LASF4247
C:\Users\CYMR90~1\AppData\Local\Temp\cchaIJlx.s:30896  .debug_str:000000000002c6b1 .LASF4248
C:\Users\CYMR90~1\AppData\Local\Temp\cchaIJlx.s:29640  .debug_str:0000000000027545 .LASF4249
C:\Users\CYMR90~1\AppData\Local\Temp\cchaIJlx.s:25427  .debug_str:0000000000016710 .LASF4250
C:\Users\CYMR90~1\AppData\Local\Temp\cchaIJlx.s:23929  .debug_str:00000000000106d9 .LASF4251
C:\Users\CYMR90~1\AppData\Local\Temp\cchaIJlx.s:22083  .debug_str:00000000000090e4 .LASF4252
C:\Users\CYMR90~1\AppData\Local\Temp\cchaIJlx.s:30414  .debug_str:000000000002a742 .LASF4253
C:\Users\CYMR90~1\AppData\Local\Temp\cchaIJlx.s:23877  .debug_str:00000000000103a6 .LASF4254
C:\Users\CYMR90~1\AppData\Local\Temp\cchaIJlx.s:25313  .debug_str:0000000000015fd7 .LASF4255
C:\Users\CYMR90~1\AppData\Local\Temp\cchaIJlx.s:24891  .debug_str:000000000001453c .LASF4256
C:\Users\CYMR90~1\AppData\Local\Temp\cchaIJlx.s:23639  .debug_str:000000000000f479 .LASF4257
C:\Users\CYMR90~1\AppData\Local\Temp\cchaIJlx.s:21435  .debug_str:0000000000006698 .LASF4258
C:\Users\CYMR90~1\AppData\Local\Temp\cchaIJlx.s:25359  .debug_str:000000000001628f .LASF4259
C:\Users\CYMR90~1\AppData\Local\Temp\cchaIJlx.s:29352  .debug_str:0000000000026342 .LASF4260
C:\Users\CYMR90~1\AppData\Local\Temp\cchaIJlx.s:22029  .debug_str:0000000000008dde .LASF4261
C:\Users\CYMR90~1\AppData\Local\Temp\cchaIJlx.s:25934  .debug_str:0000000000018889 .LASF4262
C:\Users\CYMR90~1\AppData\Local\Temp\cchaIJlx.s:23029  .debug_str:000000000000cea5 .LASF4263
C:\Users\CYMR90~1\AppData\Local\Temp\cchaIJlx.s:20881  .debug_str:0000000000004430 .LASF4264
C:\Users\CYMR90~1\AppData\Local\Temp\cchaIJlx.s:24821  .debug_str:000000000001410c .LASF4265
C:\Users\CYMR90~1\AppData\Local\Temp\cchaIJlx.s:22779  .debug_str:000000000000be30 .LASF4266
C:\Users\CYMR90~1\AppData\Local\Temp\cchaIJlx.s:21369  .debug_str:00000000000062ef .LASF4267
C:\Users\CYMR90~1\AppData\Local\Temp\cchaIJlx.s:20501  .debug_str:0000000000002b8c .LASF4268
C:\Users\CYMR90~1\AppData\Local\Temp\cchaIJlx.s:30902  .debug_str:000000000002c721 .LASF4269
C:\Users\CYMR90~1\AppData\Local\Temp\cchaIJlx.s:21977  .debug_str:0000000000008a8f .LASF4270
C:\Users\CYMR90~1\AppData\Local\Temp\cchaIJlx.s:25866  .debug_str:000000000001846e .LASF4271
C:\Users\CYMR90~1\AppData\Local\Temp\cchaIJlx.s:20255  .debug_str:0000000000001cbe .LASF4272
C:\Users\CYMR90~1\AppData\Local\Temp\cchaIJlx.s:26862  .debug_str:000000000001c563 .LASF4273
C:\Users\CYMR90~1\AppData\Local\Temp\cchaIJlx.s:24753  .debug_str:0000000000013cb1 .LASF4274
C:\Users\CYMR90~1\AppData\Local\Temp\cchaIJlx.s:28668  .debug_str:000000000002359c .LASF4275
C:\Users\CYMR90~1\AppData\Local\Temp\cchaIJlx.s:25163  .debug_str:000000000001560c .LASF4276
C:\Users\CYMR90~1\AppData\Local\Temp\cchaIJlx.s:29814  .debug_str:000000000002819c .LASF4277
C:\Users\CYMR90~1\AppData\Local\Temp\cchaIJlx.s:23153  .debug_str:000000000000d705 .LASF4278
C:\Users\CYMR90~1\AppData\Local\Temp\cchaIJlx.s:21887  .debug_str:000000000000851d .LASF4279
C:\Users\CYMR90~1\AppData\Local\Temp\cchaIJlx.s:27766  .debug_str:000000000001ff0c .LASF4280
C:\Users\CYMR90~1\AppData\Local\Temp\cchaIJlx.s:29698  .debug_str:0000000000027930 .LASF4281
C:\Users\CYMR90~1\AppData\Local\Temp\cchaIJlx.s:22367  .debug_str:000000000000a2b1 .LASF4282
C:\Users\CYMR90~1\AppData\Local\Temp\cchaIJlx.s:30710  .debug_str:000000000002b9f4 .LASF4283
C:\Users\CYMR90~1\AppData\Local\Temp\cchaIJlx.s:21669  .debug_str:00000000000075d8 .LASF4284
C:\Users\CYMR90~1\AppData\Local\Temp\cchaIJlx.s:21227  .debug_str:00000000000059e5 .LASF4285
C:\Users\CYMR90~1\AppData\Local\Temp\cchaIJlx.s:24319  .debug_str:00000000000120e0 .LASF4286
C:\Users\CYMR90~1\AppData\Local\Temp\cchaIJlx.s:25211  .debug_str:00000000000158d7 .LASF4287
C:\Users\CYMR90~1\AppData\Local\Temp\cchaIJlx.s:21823  .debug_str:00000000000080da .LASF4288
C:\Users\CYMR90~1\AppData\Local\Temp\cchaIJlx.s:25397  .debug_str:0000000000016522 .LASF4289
C:\Users\CYMR90~1\AppData\Local\Temp\cchaIJlx.s:22355  .debug_str:000000000000a1ec .LASF4290
C:\Users\CYMR90~1\AppData\Local\Temp\cchaIJlx.s:20485  .debug_str:0000000000002a82 .LASF4291
C:\Users\CYMR90~1\AppData\Local\Temp\cchaIJlx.s:27740  .debug_str:000000000001fd8d .LASF4292
C:\Users\CYMR90~1\AppData\Local\Temp\cchaIJlx.s:22557  .debug_str:000000000000af52 .LASF4293
C:\Users\CYMR90~1\AppData\Local\Temp\cchaIJlx.s:21159  .debug_str:00000000000055d5 .LASF4294
C:\Users\CYMR90~1\AppData\Local\Temp\cchaIJlx.s:21775  .debug_str:0000000000007c9c .LASF4295
C:\Users\CYMR90~1\AppData\Local\Temp\cchaIJlx.s:30120  .debug_str:0000000000029609 .LASF4296
C:\Users\CYMR90~1\AppData\Local\Temp\cchaIJlx.s:21747  .debug_str:0000000000007b18 .LASF4297
C:\Users\CYMR90~1\AppData\Local\Temp\cchaIJlx.s:21329  .debug_str:0000000000006059 .LASF4298
C:\Users\CYMR90~1\AppData\Local\Temp\cchaIJlx.s:22099  .debug_str:00000000000091d9 .LASF4299
C:\Users\CYMR90~1\AppData\Local\Temp\cchaIJlx.s:28742  .debug_str:00000000000239f4 .LASF4300
C:\Users\CYMR90~1\AppData\Local\Temp\cchaIJlx.s:20931  .debug_str:0000000000004788 .LASF4301
C:\Users\CYMR90~1\AppData\Local\Temp\cchaIJlx.s:21523  .debug_str:0000000000006c34 .LASF4302
C:\Users\CYMR90~1\AppData\Local\Temp\cchaIJlx.s:30580  .debug_str:000000000002b156 .LASF4303
C:\Users\CYMR90~1\AppData\Local\Temp\cchaIJlx.s:21103  .debug_str:0000000000005295 .LASF4304
C:\Users\CYMR90~1\AppData\Local\Temp\cchaIJlx.s:22375  .debug_str:000000000000a361 .LASF4305
C:\Users\CYMR90~1\AppData\Local\Temp\cchaIJlx.s:21681  .debug_str:00000000000076a8 .LASF4306
C:\Users\CYMR90~1\AppData\Local\Temp\cchaIJlx.s:27012  .debug_str:000000000001d0e1 .LASF4307
C:\Users\CYMR90~1\AppData\Local\Temp\cchaIJlx.s:29318  .debug_str:0000000000026131 .LASF4308
C:\Users\CYMR90~1\AppData\Local\Temp\cchaIJlx.s:26364  .debug_str:000000000001a639 .LASF4309
C:\Users\CYMR90~1\AppData\Local\Temp\cchaIJlx.s:22723  .debug_str:000000000000ba20 .LASF4310
C:\Users\CYMR90~1\AppData\Local\Temp\cchaIJlx.s:30066  .debug_str:0000000000029241 .LASF4311
C:\Users\CYMR90~1\AppData\Local\Temp\cchaIJlx.s:22497  .debug_str:000000000000aacb .LASF4312
C:\Users\CYMR90~1\AppData\Local\Temp\cchaIJlx.s:19819  .debug_str:0000000000000174 .LASF4313
C:\Users\CYMR90~1\AppData\Local\Temp\cchaIJlx.s:28966  .debug_str:000000000002494c .LASF4314
C:\Users\CYMR90~1\AppData\Local\Temp\cchaIJlx.s:28168  .debug_str:0000000000021766 .LASF4315
C:\Users\CYMR90~1\AppData\Local\Temp\cchaIJlx.s:25542  .debug_str:00000000000170a1 .LASF4316
C:\Users\CYMR90~1\AppData\Local\Temp\cchaIJlx.s:29438  .debug_str:00000000000268c9 .LASF4317
C:\Users\CYMR90~1\AppData\Local\Temp\cchaIJlx.s:25672  .debug_str:00000000000178b8 .LASF4318
C:\Users\CYMR90~1\AppData\Local\Temp\cchaIJlx.s:26448  .debug_str:000000000001abfe .LASF4319
C:\Users\CYMR90~1\AppData\Local\Temp\cchaIJlx.s:29400  .debug_str:0000000000026680 .LASF4320
C:\Users\CYMR90~1\AppData\Local\Temp\cchaIJlx.s:22671  .debug_str:000000000000b6d5 .LASF4321
C:\Users\CYMR90~1\AppData\Local\Temp\cchaIJlx.s:26586  .debug_str:000000000001b502 .LASF4322
C:\Users\CYMR90~1\AppData\Local\Temp\cchaIJlx.s:28602  .debug_str:0000000000023154 .LASF4323
C:\Users\CYMR90~1\AppData\Local\Temp\cchaIJlx.s:21541  .debug_str:0000000000006d80 .LASF4324
C:\Users\CYMR90~1\AppData\Local\Temp\cchaIJlx.s:25475  .debug_str:0000000000016af7 .LASF4325
C:\Users\CYMR90~1\AppData\Local\Temp\cchaIJlx.s:29374  .debug_str:00000000000264a7 .LASF4326
C:\Users\CYMR90~1\AppData\Local\Temp\cchaIJlx.s:20871  .debug_str:0000000000004388 .LASF4327
C:\Users\CYMR90~1\AppData\Local\Temp\cchaIJlx.s:25980  .debug_str:0000000000018c08 .LASF4328
C:\Users\CYMR90~1\AppData\Local\Temp\cchaIJlx.s:24621  .debug_str:00000000000134e1 .LASF4329
C:\Users\CYMR90~1\AppData\Local\Temp\cchaIJlx.s:26724  .debug_str:000000000001bd33 .LASF4330
C:\Users\CYMR90~1\AppData\Local\Temp\cchaIJlx.s:26538  .debug_str:000000000001b214 .LASF4331
C:\Users\CYMR90~1\AppData\Local\Temp\cchaIJlx.s:24989  .debug_str:0000000000014b35 .LASF4332
C:\Users\CYMR90~1\AppData\Local\Temp\cchaIJlx.s:20873  .debug_str:00000000000043ae .LASF4333
C:\Users\CYMR90~1\AppData\Local\Temp\cchaIJlx.s:29342  .debug_str:0000000000026293 .LASF4334
C:\Users\CYMR90~1\AppData\Local\Temp\cchaIJlx.s:24155  .debug_str:00000000000114e3 .LASF4335
C:\Users\CYMR90~1\AppData\Local\Temp\cchaIJlx.s:28052  .debug_str:0000000000020fe0 .LASF4336
C:\Users\CYMR90~1\AppData\Local\Temp\cchaIJlx.s:20689  .debug_str:0000000000003795 .LASF4337
C:\Users\CYMR90~1\AppData\Local\Temp\cchaIJlx.s:24639  .debug_str:000000000001360c .LASF4338
C:\Users\CYMR90~1\AppData\Local\Temp\cchaIJlx.s:27960  .debug_str:0000000000020ab2 .LASF4339
C:\Users\CYMR90~1\AppData\Local\Temp\cchaIJlx.s:26836  .debug_str:000000000001c3fc .LASF4340
C:\Users\CYMR90~1\AppData\Local\Temp\cchaIJlx.s:25998  .debug_str:0000000000018d28 .LASF4341
C:\Users\CYMR90~1\AppData\Local\Temp\cchaIJlx.s:27544  .debug_str:000000000001f15f .LASF4342
C:\Users\CYMR90~1\AppData\Local\Temp\cchaIJlx.s:20869  .debug_str:0000000000004362 .LASF4343
C:\Users\CYMR90~1\AppData\Local\Temp\cchaIJlx.s:20803  .debug_str:0000000000003eec .LASF4344
C:\Users\CYMR90~1\AppData\Local\Temp\cchaIJlx.s:27984  .debug_str:0000000000020c27 .LASF4345
C:\Users\CYMR90~1\AppData\Local\Temp\cchaIJlx.s:25962  .debug_str:0000000000018a22 .LASF4346
C:\Users\CYMR90~1\AppData\Local\Temp\cchaIJlx.s:24671  .debug_str:00000000000137fc .LASF4347
C:\Users\CYMR90~1\AppData\Local\Temp\cchaIJlx.s:28496  .debug_str:0000000000022b53 .LASF4348
C:\Users\CYMR90~1\AppData\Local\Temp\cchaIJlx.s:31004  .debug_str:000000000002cd74 .LASF4349
C:\Users\CYMR90~1\AppData\Local\Temp\cchaIJlx.s:22473  .debug_str:000000000000a921 .LASF4350
C:\Users\CYMR90~1\AppData\Local\Temp\cchaIJlx.s:23135  .debug_str:000000000000d616 .LASF4351
C:\Users\CYMR90~1\AppData\Local\Temp\cchaIJlx.s:28622  .debug_str:000000000002327b .LASF4352
C:\Users\CYMR90~1\AppData\Local\Temp\cchaIJlx.s:27186  .debug_str:000000000001dbcc .LASF4353
C:\Users\CYMR90~1\AppData\Local\Temp\cchaIJlx.s:19875  .debug_str:00000000000004b4 .LASF4354
C:\Users\CYMR90~1\AppData\Local\Temp\cchaIJlx.s:20921  .debug_str:00000000000046e8 .LASF4355
C:\Users\CYMR90~1\AppData\Local\Temp\cchaIJlx.s:23317  .debug_str:000000000000e0b1 .LASF4356
C:\Users\CYMR90~1\AppData\Local\Temp\cchaIJlx.s:21495  .debug_str:0000000000006a95 .LASF4357
C:\Users\CYMR90~1\AppData\Local\Temp\cchaIJlx.s:24691  .debug_str:0000000000013922 .LASF4358
C:\Users\CYMR90~1\AppData\Local\Temp\cchaIJlx.s:24317  .debug_str:00000000000120b9 .LASF4359
C:\Users\CYMR90~1\AppData\Local\Temp\cchaIJlx.s:20561  .debug_str:0000000000002f15 .LASF4360
C:\Users\CYMR90~1\AppData\Local\Temp\cchaIJlx.s:21125  .debug_str:00000000000053cd .LASF4361
C:\Users\CYMR90~1\AppData\Local\Temp\cchaIJlx.s:20647  .debug_str:00000000000034e9 .LASF4362
C:\Users\CYMR90~1\AppData\Local\Temp\cchaIJlx.s:19835  .debug_str:000000000000025a .LASF4363
C:\Users\CYMR90~1\AppData\Local\Temp\cchaIJlx.s:22093  .debug_str:0000000000009179 .LASF4364
C:\Users\CYMR90~1\AppData\Local\Temp\cchaIJlx.s:25449  .debug_str:00000000000168db .LASF4365
C:\Users\CYMR90~1\AppData\Local\Temp\cchaIJlx.s:20551  .debug_str:0000000000002e8a .LASF4366
C:\Users\CYMR90~1\AppData\Local\Temp\cchaIJlx.s:29460  .debug_str:0000000000026a04 .LASF4367
C:\Users\CYMR90~1\AppData\Local\Temp\cchaIJlx.s:25317  .debug_str:0000000000016018 .LASF4368
C:\Users\CYMR90~1\AppData\Local\Temp\cchaIJlx.s:25974  .debug_str:0000000000018b7b .LASF4369
C:\Users\CYMR90~1\AppData\Local\Temp\cchaIJlx.s:28634  .debug_str:000000000002334b .LASF4370
C:\Users\CYMR90~1\AppData\Local\Temp\cchaIJlx.s:28422  .debug_str:00000000000226b5 .LASF4371
C:\Users\CYMR90~1\AppData\Local\Temp\cchaIJlx.s:24521  .debug_str:0000000000012de8 .LASF4372
C:\Users\CYMR90~1\AppData\Local\Temp\cchaIJlx.s:30114  .debug_str:0000000000029592 .LASF4373
C:\Users\CYMR90~1\AppData\Local\Temp\cchaIJlx.s:30334  .debug_str:000000000002a285 .LASF4374
C:\Users\CYMR90~1\AppData\Local\Temp\cchaIJlx.s:27084  .debug_str:000000000001d57d .LASF4375
C:\Users\CYMR90~1\AppData\Local\Temp\cchaIJlx.s:29226  .debug_str:0000000000025b85 .LASF4376
C:\Users\CYMR90~1\AppData\Local\Temp\cchaIJlx.s:24055  .debug_str:0000000000010e8f .LASF4377
C:\Users\CYMR90~1\AppData\Local\Temp\cchaIJlx.s:27234  .debug_str:000000000001decc .LASF4378
C:\Users\CYMR90~1\AppData\Local\Temp\cchaIJlx.s:22265  .debug_str:0000000000009c57 .LASF4379
C:\Users\CYMR90~1\AppData\Local\Temp\cchaIJlx.s:26502  .debug_str:000000000001afc3 .LASF4380
C:\Users\CYMR90~1\AppData\Local\Temp\cchaIJlx.s:27082  .debug_str:000000000001d558 .LASF4381
C:\Users\CYMR90~1\AppData\Local\Temp\cchaIJlx.s:22649  .debug_str:000000000000b53a .LASF4382
C:\Users\CYMR90~1\AppData\Local\Temp\cchaIJlx.s:25650  .debug_str:0000000000017726 .LASF4383
C:\Users\CYMR90~1\AppData\Local\Temp\cchaIJlx.s:26786  .debug_str:000000000001c126 .LASF4384
C:\Users\CYMR90~1\AppData\Local\Temp\cchaIJlx.s:24453  .debug_str:00000000000129aa .LASF4385
C:\Users\CYMR90~1\AppData\Local\Temp\cchaIJlx.s:27942  .debug_str:0000000000020988 .LASF4386
C:\Users\CYMR90~1\AppData\Local\Temp\cchaIJlx.s:22583  .debug_str:000000000000b0eb .LASF4387
C:\Users\CYMR90~1\AppData\Local\Temp\cchaIJlx.s:26470  .debug_str:000000000001ad4b .LASF4388
C:\Users\CYMR90~1\AppData\Local\Temp\cchaIJlx.s:25161  .debug_str:00000000000155e7 .LASF4389
C:\Users\CYMR90~1\AppData\Local\Temp\cchaIJlx.s:24503  .debug_str:0000000000012cc5 .LASF4390
C:\Users\CYMR90~1\AppData\Local\Temp\cchaIJlx.s:30708  .debug_str:000000000002b9dd .LASF4391
C:\Users\CYMR90~1\AppData\Local\Temp\cchaIJlx.s:26100  .debug_str:0000000000019451 .LASF4392
C:\Users\CYMR90~1\AppData\Local\Temp\cchaIJlx.s:25648  .debug_str:000000000001770e .LASF4393
C:\Users\CYMR90~1\AppData\Local\Temp\cchaIJlx.s:27106  .debug_str:000000000001d730 .LASF4394
C:\Users\CYMR90~1\AppData\Local\Temp\cchaIJlx.s:28750  .debug_str:0000000000023a66 .LASF4395
C:\Users\CYMR90~1\AppData\Local\Temp\cchaIJlx.s:21157  .debug_str:00000000000055bc .LASF4396
C:\Users\CYMR90~1\AppData\Local\Temp\cchaIJlx.s:20119  .debug_str:000000000000140c .LASF4397
C:\Users\CYMR90~1\AppData\Local\Temp\cchaIJlx.s:27410  .debug_str:000000000001e97d .LASF4398
C:\Users\CYMR90~1\AppData\Local\Temp\cchaIJlx.s:28128  .debug_str:00000000000214ef .LASF4399
C:\Users\CYMR90~1\AppData\Local\Temp\cchaIJlx.s:30280  .debug_str:0000000000029f52 .LASF4400
C:\Users\CYMR90~1\AppData\Local\Temp\cchaIJlx.s:24171  .debug_str:00000000000115db .LASF4401
C:\Users\CYMR90~1\AppData\Local\Temp\cchaIJlx.s:29946  .debug_str:0000000000028a47 .LASF4402
C:\Users\CYMR90~1\AppData\Local\Temp\cchaIJlx.s:24949  .debug_str:00000000000148e0 .LASF4403
C:\Users\CYMR90~1\AppData\Local\Temp\cchaIJlx.s:22545  .debug_str:000000000000ae9f .LASF4404
C:\Users\CYMR90~1\AppData\Local\Temp\cchaIJlx.s:27902  .debug_str:0000000000020743 .LASF4405
C:\Users\CYMR90~1\AppData\Local\Temp\cchaIJlx.s:21991  .debug_str:0000000000008b64 .LASF4406
C:\Users\CYMR90~1\AppData\Local\Temp\cchaIJlx.s:25566  .debug_str:000000000001721e .LASF4407
C:\Users\CYMR90~1\AppData\Local\Temp\cchaIJlx.s:28714  .debug_str:000000000002387b .LASF4408
C:\Users\CYMR90~1\AppData\Local\Temp\cchaIJlx.s:29526  .debug_str:0000000000026e14 .LASF4409
C:\Users\CYMR90~1\AppData\Local\Temp\cchaIJlx.s:24987  .debug_str:0000000000014b21 .LASF4410
C:\Users\CYMR90~1\AppData\Local\Temp\cchaIJlx.s:27318  .debug_str:000000000001e3b8 .LASF4411
C:\Users\CYMR90~1\AppData\Local\Temp\cchaIJlx.s:22951  .debug_str:000000000000ca05 .LASF4412
C:\Users\CYMR90~1\AppData\Local\Temp\cchaIJlx.s:24761  .debug_str:0000000000013d24 .LASF4413
C:\Users\CYMR90~1\AppData\Local\Temp\cchaIJlx.s:27156  .debug_str:000000000001da24 .LASF4414
C:\Users\CYMR90~1\AppData\Local\Temp\cchaIJlx.s:24529  .debug_str:0000000000012e6f .LASF4415
C:\Users\CYMR90~1\AppData\Local\Temp\cchaIJlx.s:27974  .debug_str:0000000000020ba7 .LASF4416
C:\Users\CYMR90~1\AppData\Local\Temp\cchaIJlx.s:23511  .debug_str:000000000000ecd7 .LASF4417
C:\Users\CYMR90~1\AppData\Local\Temp\cchaIJlx.s:27104  .debug_str:000000000001d71b .LASF4418
C:\Users\CYMR90~1\AppData\Local\Temp\cchaIJlx.s:20929  .debug_str:0000000000004774 .LASF4419
C:\Users\CYMR90~1\AppData\Local\Temp\cchaIJlx.s:20307  .debug_str:0000000000001ff3 .LASF4420
C:\Users\CYMR90~1\AppData\Local\Temp\cchaIJlx.s:25714  .debug_str:0000000000017b58 .LASF4421
C:\Users\CYMR90~1\AppData\Local\Temp\cchaIJlx.s:21907  .debug_str:0000000000008632 .LASF4422
C:\Users\CYMR90~1\AppData\Local\Temp\cchaIJlx.s:30406  .debug_str:000000000002a6f1 .LASF4423
C:\Users\CYMR90~1\AppData\Local\Temp\cchaIJlx.s:21759  .debug_str:0000000000007bbf .LASF4424
C:\Users\CYMR90~1\AppData\Local\Temp\cchaIJlx.s:19887  .debug_str:000000000000055c .LASF4425
C:\Users\CYMR90~1\AppData\Local\Temp\cchaIJlx.s:28958  .debug_str:00000000000248e3 .LASF4426
C:\Users\CYMR90~1\AppData\Local\Temp\cchaIJlx.s:25884  .debug_str:000000000001856b .LASF4427
C:\Users\CYMR90~1\AppData\Local\Temp\cchaIJlx.s:23619  .debug_str:000000000000f35c .LASF4428
C:\Users\CYMR90~1\AppData\Local\Temp\cchaIJlx.s:28562  .debug_str:0000000000022f19 .LASF4429
C:\Users\CYMR90~1\AppData\Local\Temp\cchaIJlx.s:28382  .debug_str:0000000000022449 .LASF4430
C:\Users\CYMR90~1\AppData\Local\Temp\cchaIJlx.s:22807  .debug_str:000000000000bffe .LASF4431
C:\Users\CYMR90~1\AppData\Local\Temp\cchaIJlx.s:21353  .debug_str:0000000000006222 .LASF4432
C:\Users\CYMR90~1\AppData\Local\Temp\cchaIJlx.s:20983  .debug_str:0000000000004b39 .LASF4433
C:\Users\CYMR90~1\AppData\Local\Temp\cchaIJlx.s:29296  .debug_str:000000000002600d .LASF4434
C:\Users\CYMR90~1\AppData\Local\Temp\cchaIJlx.s:23207  .debug_str:000000000000da15 .LASF4435
C:\Users\CYMR90~1\AppData\Local\Temp\cchaIJlx.s:24613  .debug_str:000000000001344b .LASF4436
C:\Users\CYMR90~1\AppData\Local\Temp\cchaIJlx.s:21969  .debug_str:0000000000008a06 .LASF4437
C:\Users\CYMR90~1\AppData\Local\Temp\cchaIJlx.s:25169  .debug_str:000000000001565d .LASF4438
C:\Users\CYMR90~1\AppData\Local\Temp\cchaIJlx.s:29088  .debug_str:0000000000025234 .LASF4439
C:\Users\CYMR90~1\AppData\Local\Temp\cchaIJlx.s:20409  .debug_str:0000000000002578 .LASF4440
C:\Users\CYMR90~1\AppData\Local\Temp\cchaIJlx.s:25333  .debug_str:0000000000016112 .LASF4441
C:\Users\CYMR90~1\AppData\Local\Temp\cchaIJlx.s:20027  .debug_str:0000000000000e2f .LASF4442
C:\Users\CYMR90~1\AppData\Local\Temp\cchaIJlx.s:24009  .debug_str:0000000000010c50 .LASF4443
C:\Users\CYMR90~1\AppData\Local\Temp\cchaIJlx.s:22691  .debug_str:000000000000b7ff .LASF4444
C:\Users\CYMR90~1\AppData\Local\Temp\cchaIJlx.s:27668  .debug_str:000000000001f8de .LASF4445
C:\Users\CYMR90~1\AppData\Local\Temp\cchaIJlx.s:26658  .debug_str:000000000001b933 .LASF4446
C:\Users\CYMR90~1\AppData\Local\Temp\cchaIJlx.s:24419  .debug_str:0000000000012749 .LASF4447
C:\Users\CYMR90~1\AppData\Local\Temp\cchaIJlx.s:20403  .debug_str:000000000000252b .LASF4448
C:\Users\CYMR90~1\AppData\Local\Temp\cchaIJlx.s:27054  .debug_str:000000000001d36a .LASF4449
C:\Users\CYMR90~1\AppData\Local\Temp\cchaIJlx.s:22925  .debug_str:000000000000c7bd .LASF4450
C:\Users\CYMR90~1\AppData\Local\Temp\cchaIJlx.s:20793  .debug_str:0000000000003de7 .LASF4451
C:\Users\CYMR90~1\AppData\Local\Temp\cchaIJlx.s:26332  .debug_str:000000000001a468 .LASF4452
C:\Users\CYMR90~1\AppData\Local\Temp\cchaIJlx.s:28532  .debug_str:0000000000022d56 .LASF4453
C:\Users\CYMR90~1\AppData\Local\Temp\cchaIJlx.s:30074  .debug_str:00000000000292c8 .LASF4454
C:\Users\CYMR90~1\AppData\Local\Temp\cchaIJlx.s:25413  .debug_str:0000000000016638 .LASF4455
C:\Users\CYMR90~1\AppData\Local\Temp\cchaIJlx.s:26068  .debug_str:000000000001925a .LASF4456
C:\Users\CYMR90~1\AppData\Local\Temp\cchaIJlx.s:21155  .debug_str:00000000000055a3 .LASF4457
C:\Users\CYMR90~1\AppData\Local\Temp\cchaIJlx.s:24837  .debug_str:000000000001420a .LASF4458
C:\Users\CYMR90~1\AppData\Local\Temp\cchaIJlx.s:23795  .debug_str:000000000000feaa .LASF4459
C:\Users\CYMR90~1\AppData\Local\Temp\cchaIJlx.s:26956  .debug_str:000000000001cc2e .LASF4460
C:\Users\CYMR90~1\AppData\Local\Temp\cchaIJlx.s:28246  .debug_str:0000000000021c46 .LASF4461
C:\Users\CYMR90~1\AppData\Local\Temp\cchaIJlx.s:23165  .debug_str:000000000000d7c3 .LASF4462
C:\Users\CYMR90~1\AppData\Local\Temp\cchaIJlx.s:30552  .debug_str:000000000002af6d .LASF4463
C:\Users\CYMR90~1\AppData\Local\Temp\cchaIJlx.s:22711  .debug_str:000000000000b97b .LASF4464
C:\Users\CYMR90~1\AppData\Local\Temp\cchaIJlx.s:27852  .debug_str:0000000000020462 .LASF4465
C:\Users\CYMR90~1\AppData\Local\Temp\cchaIJlx.s:25275  .debug_str:0000000000015cfc .LASF4466
C:\Users\CYMR90~1\AppData\Local\Temp\cchaIJlx.s:28702  .debug_str:00000000000237ae .LASF4467
C:\Users\CYMR90~1\AppData\Local\Temp\cchaIJlx.s:30522  .debug_str:000000000002adb3 .LASF4468
C:\Users\CYMR90~1\AppData\Local\Temp\cchaIJlx.s:28048  .debug_str:0000000000020f9d .LASF4469
C:\Users\CYMR90~1\AppData\Local\Temp\cchaIJlx.s:28390  .debug_str:00000000000224b8 .LASF4470
C:\Users\CYMR90~1\AppData\Local\Temp\cchaIJlx.s:25401  .debug_str:0000000000016566 .LASF4471
C:\Users\CYMR90~1\AppData\Local\Temp\cchaIJlx.s:21577  .debug_str:0000000000006fdf .LASF4472
C:\Users\CYMR90~1\AppData\Local\Temp\cchaIJlx.s:29124  .debug_str:00000000000254cb .LASF4473
C:\Users\CYMR90~1\AppData\Local\Temp\cchaIJlx.s:26386  .debug_str:000000000001a841 .LASF4474
C:\Users\CYMR90~1\AppData\Local\Temp\cchaIJlx.s:20023  .debug_str:0000000000000df1 .LASF4475
C:\Users\CYMR90~1\AppData\Local\Temp\cchaIJlx.s:28364  .debug_str:000000000002231c .LASF4476
C:\Users\CYMR90~1\AppData\Local\Temp\cchaIJlx.s:30058  .debug_str:00000000000291d4 .LASF4477
C:\Users\CYMR90~1\AppData\Local\Temp\cchaIJlx.s:20491  .debug_str:0000000000002ad7 .LASF4478
C:\Users\CYMR90~1\AppData\Local\Temp\cchaIJlx.s:23489  .debug_str:000000000000ebbb .LASF4479
C:\Users\CYMR90~1\AppData\Local\Temp\cchaIJlx.s:30976  .debug_str:000000000002cc0e .LASF4480
C:\Users\CYMR90~1\AppData\Local\Temp\cchaIJlx.s:22957  .debug_str:000000000000ca49 .LASF4481
C:\Users\CYMR90~1\AppData\Local\Temp\cchaIJlx.s:20467  .debug_str:000000000000297c .LASF4482
C:\Users\CYMR90~1\AppData\Local\Temp\cchaIJlx.s:29040  .debug_str:0000000000024e1b .LASF4483
C:\Users\CYMR90~1\AppData\Local\Temp\cchaIJlx.s:30024  .debug_str:0000000000028f57 .LASF4484
C:\Users\CYMR90~1\AppData\Local\Temp\cchaIJlx.s:24741  .debug_str:0000000000013c20 .LASF4485
C:\Users\CYMR90~1\AppData\Local\Temp\cchaIJlx.s:21277  .debug_str:0000000000005d16 .LASF4486
C:\Users\CYMR90~1\AppData\Local\Temp\cchaIJlx.s:20861  .debug_str:00000000000042ce .LASF4487
C:\Users\CYMR90~1\AppData\Local\Temp\cchaIJlx.s:28164  .debug_str:0000000000021734 .LASF4488
C:\Users\CYMR90~1\AppData\Local\Temp\cchaIJlx.s:20715  .debug_str:0000000000003931 .LASF4489
C:\Users\CYMR90~1\AppData\Local\Temp\cchaIJlx.s:20953  .debug_str:0000000000004979 .LASF4490
C:\Users\CYMR90~1\AppData\Local\Temp\cchaIJlx.s:27954  .debug_str:0000000000020a58 .LASF4491
C:\Users\CYMR90~1\AppData\Local\Temp\cchaIJlx.s:29350  .debug_str:000000000002632b .LASF4492
C:\Users\CYMR90~1\AppData\Local\Temp\cchaIJlx.s:30510  .debug_str:000000000002ad09 .LASF4493
C:\Users\CYMR90~1\AppData\Local\Temp\cchaIJlx.s:29270  .debug_str:0000000000025e71 .LASF4494
C:\Users\CYMR90~1\AppData\Local\Temp\cchaIJlx.s:20171  .debug_str:00000000000016f0 .LASF4495
C:\Users\CYMR90~1\AppData\Local\Temp\cchaIJlx.s:27282  .debug_str:000000000001e19e .LASF4496
C:\Users\CYMR90~1\AppData\Local\Temp\cchaIJlx.s:29568  .debug_str:0000000000027123 .LASF4497
C:\Users\CYMR90~1\AppData\Local\Temp\cchaIJlx.s:22393  .debug_str:000000000000a4a7 .LASF4498
C:\Users\CYMR90~1\AppData\Local\Temp\cchaIJlx.s:30858  .debug_str:000000000002c42e .LASF4499
C:\Users\CYMR90~1\AppData\Local\Temp\cchaIJlx.s:30222  .debug_str:0000000000029bf3 .LASF4500
C:\Users\CYMR90~1\AppData\Local\Temp\cchaIJlx.s:21765  .debug_str:0000000000007c19 .LASF4501
C:\Users\CYMR90~1\AppData\Local\Temp\cchaIJlx.s:20845  .debug_str:00000000000041f3 .LASF4502
C:\Users\CYMR90~1\AppData\Local\Temp\cchaIJlx.s:29432  .debug_str:000000000002686c .LASF4503
C:\Users\CYMR90~1\AppData\Local\Temp\cchaIJlx.s:26840  .debug_str:000000000001c445 .LASF4504
C:\Users\CYMR90~1\AppData\Local\Temp\cchaIJlx.s:29408  .debug_str:00000000000266fe .LASF4505
C:\Users\CYMR90~1\AppData\Local\Temp\cchaIJlx.s:24773  .debug_str:0000000000013de9 .LASF4506
C:\Users\CYMR90~1\AppData\Local\Temp\cchaIJlx.s:23691  .debug_str:000000000000f839 .LASF4507
C:\Users\CYMR90~1\AppData\Local\Temp\cchaIJlx.s:27384  .debug_str:000000000001e807 .LASF4508
C:\Users\CYMR90~1\AppData\Local\Temp\cchaIJlx.s:21209  .debug_str:0000000000005911 .LASF4509
C:\Users\CYMR90~1\AppData\Local\Temp\cchaIJlx.s:28582  .debug_str:000000000002301c .LASF4510
C:\Users\CYMR90~1\AppData\Local\Temp\cchaIJlx.s:21023  .debug_str:0000000000004dc8 .LASF4511
C:\Users\CYMR90~1\AppData\Local\Temp\cchaIJlx.s:20371  .debug_str:0000000000002354 .LASF4512
C:\Users\CYMR90~1\AppData\Local\Temp\cchaIJlx.s:20581  .debug_str:0000000000003048 .LASF4513
C:\Users\CYMR90~1\AppData\Local\Temp\cchaIJlx.s:29234  .debug_str:0000000000025c1a .LASF4514
C:\Users\CYMR90~1\AppData\Local\Temp\cchaIJlx.s:25177  .debug_str:00000000000156c9 .LASF4515
C:\Users\CYMR90~1\AppData\Local\Temp\cchaIJlx.s:31012  .debug_str:000000000002ce2c .LASF4516
C:\Users\CYMR90~1\AppData\Local\Temp\cchaIJlx.s:21229  .debug_str:0000000000005a0b .LASF4517
C:\Users\CYMR90~1\AppData\Local\Temp\cchaIJlx.s:29820  .debug_str:0000000000028208 .LASF4518
C:\Users\CYMR90~1\AppData\Local\Temp\cchaIJlx.s:31010  .debug_str:000000000002cdf3 .LASF4519
C:\Users\CYMR90~1\AppData\Local\Temp\cchaIJlx.s:27220  .debug_str:000000000001dde0 .LASF4520
C:\Users\CYMR90~1\AppData\Local\Temp\cchaIJlx.s:21531  .debug_str:0000000000006cc9 .LASF4521
C:\Users\CYMR90~1\AppData\Local\Temp\cchaIJlx.s:20997  .debug_str:0000000000004c2a .LASF4522
C:\Users\CYMR90~1\AppData\Local\Temp\cchaIJlx.s:25518  .debug_str:0000000000016f44 .LASF4523
C:\Users\CYMR90~1\AppData\Local\Temp\cchaIJlx.s:30652  .debug_str:000000000002b658 .LASF4524
C:\Users\CYMR90~1\AppData\Local\Temp\cchaIJlx.s:24555  .debug_str:000000000001302d .LASF4525
C:\Users\CYMR90~1\AppData\Local\Temp\cchaIJlx.s:30282  .debug_str:0000000000029f6b .LASF4526
C:\Users\CYMR90~1\AppData\Local\Temp\cchaIJlx.s:29382  .debug_str:0000000000026548 .LASF4527
C:\Users\CYMR90~1\AppData\Local\Temp\cchaIJlx.s:29592  .debug_str:0000000000027295 .LASF4528
C:\Users\CYMR90~1\AppData\Local\Temp\cchaIJlx.s:30118  .debug_str:00000000000295ce .LASF4529
C:\Users\CYMR90~1\AppData\Local\Temp\cchaIJlx.s:26750  .debug_str:000000000001beff .LASF4530
C:\Users\CYMR90~1\AppData\Local\Temp\cchaIJlx.s:26218  .debug_str:0000000000019c08 .LASF4531
C:\Users\CYMR90~1\AppData\Local\Temp\cchaIJlx.s:21821  .debug_str:00000000000080c1 .LASF4532
C:\Users\CYMR90~1\AppData\Local\Temp\cchaIJlx.s:26922  .debug_str:000000000001ca0f .LASF4533
C:\Users\CYMR90~1\AppData\Local\Temp\cchaIJlx.s:26520  .debug_str:000000000001b0ce .LASF4534
C:\Users\CYMR90~1\AppData\Local\Temp\cchaIJlx.s:28434  .debug_str:0000000000022756 .LASF4535
C:\Users\CYMR90~1\AppData\Local\Temp\cchaIJlx.s:29336  .debug_str:000000000002623a .LASF4536
C:\Users\CYMR90~1\AppData\Local\Temp\cchaIJlx.s:20283  .debug_str:0000000000001e6c .LASF4537
C:\Users\CYMR90~1\AppData\Local\Temp\cchaIJlx.s:25349  .debug_str:00000000000161e1 .LASF4538
C:\Users\CYMR90~1\AppData\Local\Temp\cchaIJlx.s:20593  .debug_str:0000000000003143 .LASF4539
C:\Users\CYMR90~1\AppData\Local\Temp\cchaIJlx.s:27684  .debug_str:000000000001f9dc .LASF4540
C:\Users\CYMR90~1\AppData\Local\Temp\cchaIJlx.s:27392  .debug_str:000000000001e86c .LASF4541
C:\Users\CYMR90~1\AppData\Local\Temp\cchaIJlx.s:20079  .debug_str:00000000000011c9 .LASF4542
C:\Users\CYMR90~1\AppData\Local\Temp\cchaIJlx.s:29068  .debug_str:000000000002504a .LASF4543
C:\Users\CYMR90~1\AppData\Local\Temp\cchaIJlx.s:21929  .debug_str:000000000000875b .LASF4544
C:\Users\CYMR90~1\AppData\Local\Temp\cchaIJlx.s:27024  .debug_str:000000000001d1b9 .LASF4545
C:\Users\CYMR90~1\AppData\Local\Temp\cchaIJlx.s:27044  .debug_str:000000000001d2d3 .LASF4546
C:\Users\CYMR90~1\AppData\Local\Temp\cchaIJlx.s:27994  .debug_str:0000000000020cbf .LASF4547
C:\Users\CYMR90~1\AppData\Local\Temp\cchaIJlx.s:26460  .debug_str:000000000001acb7 .LASF4548
C:\Users\CYMR90~1\AppData\Local\Temp\cchaIJlx.s:21247  .debug_str:0000000000005b4c .LASF4549
C:\Users\CYMR90~1\AppData\Local\Temp\cchaIJlx.s:29782  .debug_str:0000000000027f18 .LASF4550
C:\Users\CYMR90~1\AppData\Local\Temp\cchaIJlx.s:28708  .debug_str:000000000002382a .LASF4551
C:\Users\CYMR90~1\AppData\Local\Temp\cchaIJlx.s:25069  .debug_str:00000000000150a7 .LASF4552
C:\Users\CYMR90~1\AppData\Local\Temp\cchaIJlx.s:30966  .debug_str:000000000002cb5f .LASF4553
C:\Users\CYMR90~1\AppData\Local\Temp\cchaIJlx.s:20557  .debug_str:0000000000002ed9 .LASF4554
C:\Users\CYMR90~1\AppData\Local\Temp\cchaIJlx.s:19823  .debug_str:00000000000001c8 .LASF4555
C:\Users\CYMR90~1\AppData\Local\Temp\cchaIJlx.s:26170  .debug_str:00000000000198ff .LASF4556
C:\Users\CYMR90~1\AppData\Local\Temp\cchaIJlx.s:23957  .debug_str:0000000000010883 .LASF4557
C:\Users\CYMR90~1\AppData\Local\Temp\cchaIJlx.s:20859  .debug_str:00000000000042b6 .LASF4558
C:\Users\CYMR90~1\AppData\Local\Temp\cchaIJlx.s:22871  .debug_str:000000000000c3c8 .LASF4559
C:\Users\CYMR90~1\AppData\Local\Temp\cchaIJlx.s:29394  .debug_str:000000000002662d .LASF4560
C:\Users\CYMR90~1\AppData\Local\Temp\cchaIJlx.s:19847  .debug_str:0000000000000342 .LASF4561
C:\Users\CYMR90~1\AppData\Local\Temp\cchaIJlx.s:29912  .debug_str:000000000002884c .LASF4562
C:\Users\CYMR90~1\AppData\Local\Temp\cchaIJlx.s:30040  .debug_str:0000000000029045 .LASF4563
C:\Users\CYMR90~1\AppData\Local\Temp\cchaIJlx.s:20889  .debug_str:00000000000044c0 .LASF4564
C:\Users\CYMR90~1\AppData\Local\Temp\cchaIJlx.s:22537  .debug_str:000000000000ad6f .LASF4565
C:\Users\CYMR90~1\AppData\Local\Temp\cchaIJlx.s:19867  .debug_str:0000000000000453 .LASF4566
C:\Users\CYMR90~1\AppData\Local\Temp\cchaIJlx.s:27372  .debug_str:000000000001e745 .LASF4567
C:\Users\CYMR90~1\AppData\Local\Temp\cchaIJlx.s:25528  .debug_str:0000000000016fed .LASF4568
C:\Users\CYMR90~1\AppData\Local\Temp\cchaIJlx.s:20421  .debug_str:0000000000002654 .LASF4569
C:\Users\CYMR90~1\AppData\Local\Temp\cchaIJlx.s:29498  .debug_str:0000000000026c60 .LASF4570
C:\Users\CYMR90~1\AppData\Local\Temp\cchaIJlx.s:30814  .debug_str:000000000002c158 .LASF4571
C:\Users\CYMR90~1\AppData\Local\Temp\cchaIJlx.s:27818  .debug_str:00000000000201ca .LASF4572
C:\Users\CYMR90~1\AppData\Local\Temp\cchaIJlx.s:22867  .debug_str:000000000000c37e .LASF4573
C:\Users\CYMR90~1\AppData\Local\Temp\cchaIJlx.s:28442  .debug_str:00000000000227c5 .LASF4574
C:\Users\CYMR90~1\AppData\Local\Temp\cchaIJlx.s:22773  .debug_str:000000000000bdb0 .LASF4575
C:\Users\CYMR90~1\AppData\Local\Temp\cchaIJlx.s:28432  .debug_str:0000000000022738 .LASF4576
C:\Users\CYMR90~1\AppData\Local\Temp\cchaIJlx.s:29938  .debug_str:00000000000289c6 .LASF4577
C:\Users\CYMR90~1\AppData\Local\Temp\cchaIJlx.s:21293  .debug_str:0000000000005e0d .LASF4578
C:\Users\CYMR90~1\AppData\Local\Temp\cchaIJlx.s:24073  .debug_str:0000000000010fa2 .LASF4579
C:\Users\CYMR90~1\AppData\Local\Temp\cchaIJlx.s:23253  .debug_str:000000000000dcca .LASF4580
C:\Users\CYMR90~1\AppData\Local\Temp\cchaIJlx.s:20943  .debug_str:00000000000048df .LASF4581
C:\Users\CYMR90~1\AppData\Local\Temp\cchaIJlx.s:22215  .debug_str:000000000000992a .LASF4582
C:\Users\CYMR90~1\AppData\Local\Temp\cchaIJlx.s:24733  .debug_str:0000000000013b93 .LASF4583
C:\Users\CYMR90~1\AppData\Local\Temp\cchaIJlx.s:20761  .debug_str:0000000000003c03 .LASF4584
C:\Users\CYMR90~1\AppData\Local\Temp\cchaIJlx.s:21525  .debug_str:0000000000006c5a .LASF4585
C:\Users\CYMR90~1\AppData\Local\Temp\cchaIJlx.s:19799  .debug_str:000000000000002e .LASF4586
C:\Users\CYMR90~1\AppData\Local\Temp\cchaIJlx.s:24057  .debug_str:0000000000010eb3 .LASF4587
C:\Users\CYMR90~1\AppData\Local\Temp\cchaIJlx.s:26418  .debug_str:000000000001aa21 .LASF4588
C:\Users\CYMR90~1\AppData\Local\Temp\cchaIJlx.s:25477  .debug_str:0000000000016b1d .LASF4589
C:\Users\CYMR90~1\AppData\Local\Temp\cchaIJlx.s:30754  .debug_str:000000000002bd35 .LASF4590
C:\Users\CYMR90~1\AppData\Local\Temp\cchaIJlx.s:28940  .debug_str:00000000000247e3 .LASF4591
C:\Users\CYMR90~1\AppData\Local\Temp\cchaIJlx.s:23355  .debug_str:000000000000e2d5 .LASF4592
C:\Users\CYMR90~1\AppData\Local\Temp\cchaIJlx.s:27492  .debug_str:000000000001ee21 .LASF4593
C:\Users\CYMR90~1\AppData\Local\Temp\cchaIJlx.s:25001  .debug_str:0000000000014c09 .LASF4594
C:\Users\CYMR90~1\AppData\Local\Temp\cchaIJlx.s:30108  .debug_str:0000000000029513 .LASF4595
C:\Users\CYMR90~1\AppData\Local\Temp\cchaIJlx.s:26024  .debug_str:0000000000018eb8 .LASF4596
C:\Users\CYMR90~1\AppData\Local\Temp\cchaIJlx.s:24583  .debug_str:00000000000131f4 .LASF4597
C:\Users\CYMR90~1\AppData\Local\Temp\cchaIJlx.s:20415  .debug_str:00000000000025be .LASF4598
C:\Users\CYMR90~1\AppData\Local\Temp\cchaIJlx.s:27474  .debug_str:000000000001ecfe .LASF4599
C:\Users\CYMR90~1\AppData\Local\Temp\cchaIJlx.s:22387  .debug_str:000000000000a41a .LASF4600
C:\Users\CYMR90~1\AppData\Local\Temp\cchaIJlx.s:19925  .debug_str:00000000000007dd .LASF4601
C:\Users\CYMR90~1\AppData\Local\Temp\cchaIJlx.s:26434  .debug_str:000000000001ab20 .LASF4602
C:\Users\CYMR90~1\AppData\Local\Temp\cchaIJlx.s:28888  .debug_str:0000000000024416 .LASF4603
C:\Users\CYMR90~1\AppData\Local\Temp\cchaIJlx.s:25145  .debug_str:00000000000154e9 .LASF4604
C:\Users\CYMR90~1\AppData\Local\Temp\cchaIJlx.s:26088  .debug_str:0000000000019367 .LASF4605
C:\Users\CYMR90~1\AppData\Local\Temp\cchaIJlx.s:22765  .debug_str:000000000000bd28 .LASF4606
C:\Users\CYMR90~1\AppData\Local\Temp\cchaIJlx.s:26148  .debug_str:0000000000019734 .LASF4607
C:\Users\CYMR90~1\AppData\Local\Temp\cchaIJlx.s:28050  .debug_str:0000000000020fb5 .LASF4608
C:\Users\CYMR90~1\AppData\Local\Temp\cchaIJlx.s:26172  .debug_str:000000000001993a .LASF4609
C:\Users\CYMR90~1\AppData\Local\Temp\cchaIJlx.s:20841  .debug_str:00000000000041aa .LASF4610
C:\Users\CYMR90~1\AppData\Local\Temp\cchaIJlx.s:22435  .debug_str:000000000000a6dc .LASF4611
C:\Users\CYMR90~1\AppData\Local\Temp\cchaIJlx.s:23121  .debug_str:000000000000d534 .LASF4612
C:\Users\CYMR90~1\AppData\Local\Temp\cchaIJlx.s:27888  .debug_str:000000000002066f .LASF4613
C:\Users\CYMR90~1\AppData\Local\Temp\cchaIJlx.s:27486  .debug_str:000000000001edb8 .LASF4614
C:\Users\CYMR90~1\AppData\Local\Temp\cchaIJlx.s:23251  .debug_str:000000000000dc8e .LASF4615
C:\Users\CYMR90~1\AppData\Local\Temp\cchaIJlx.s:26540  .debug_str:000000000001b23a .LASF4616
C:\Users\CYMR90~1\AppData\Local\Temp\cchaIJlx.s:30330  .debug_str:000000000002a232 .LASF4617
C:\Users\CYMR90~1\AppData\Local\Temp\cchaIJlx.s:23977  .debug_str:00000000000109de .LASF4618
C:\Users\CYMR90~1\AppData\Local\Temp\cchaIJlx.s:24697  .debug_str:000000000001396f .LASF4619
C:\Users\CYMR90~1\AppData\Local\Temp\cchaIJlx.s:28330  .debug_str:000000000002215e .LASF4620
C:\Users\CYMR90~1\AppData\Local\Temp\cchaIJlx.s:30432  .debug_str:000000000002a85b .LASF4621
C:\Users\CYMR90~1\AppData\Local\Temp\cchaIJlx.s:23765  .debug_str:000000000000fc9c .LASF4622
C:\Users\CYMR90~1\AppData\Local\Temp\cchaIJlx.s:28394  .debug_str:00000000000224f6 .LASF4623
C:\Users\CYMR90~1\AppData\Local\Temp\cchaIJlx.s:30668  .debug_str:000000000002b73f .LASF4624
C:\Users\CYMR90~1\AppData\Local\Temp\cchaIJlx.s:28892  .debug_str:0000000000024451 .LASF4625
C:\Users\CYMR90~1\AppData\Local\Temp\cchaIJlx.s:25417  .debug_str:0000000000016675 .LASF4626
C:\Users\CYMR90~1\AppData\Local\Temp\cchaIJlx.s:26888  .debug_str:000000000001c7d9 .LASF4627
C:\Users\CYMR90~1\AppData\Local\Temp\cchaIJlx.s:26198  .debug_str:0000000000019ada .LASF4628
C:\Users\CYMR90~1\AppData\Local\Temp\cchaIJlx.s:23899  .debug_str:0000000000010501 .LASF4629
C:\Users\CYMR90~1\AppData\Local\Temp\cchaIJlx.s:24327  .debug_str:000000000001214b .LASF4630
C:\Users\CYMR90~1\AppData\Local\Temp\cchaIJlx.s:20649  .debug_str:000000000000350b .LASF4631
C:\Users\CYMR90~1\AppData\Local\Temp\cchaIJlx.s:21517  .debug_str:0000000000006bee .LASF4632
C:\Users\CYMR90~1\AppData\Local\Temp\cchaIJlx.s:24383  .debug_str:00000000000124f4 .LASF4633
C:\Users\CYMR90~1\AppData\Local\Temp\cchaIJlx.s:30474  .debug_str:000000000002aae7 .LASF4634
C:\Users\CYMR90~1\AppData\Local\Temp\cchaIJlx.s:23375  .debug_str:000000000000e420 .LASF4635
C:\Users\CYMR90~1\AppData\Local\Temp\cchaIJlx.s:26296  .debug_str:000000000001a09b .LASF4636
C:\Users\CYMR90~1\AppData\Local\Temp\cchaIJlx.s:20011  .debug_str:0000000000000d51 .LASF4637
C:\Users\CYMR90~1\AppData\Local\Temp\cchaIJlx.s:29708  .debug_str:00000000000279e0 .LASF4638
C:\Users\CYMR90~1\AppData\Local\Temp\cchaIJlx.s:30924  .debug_str:000000000002c88f .LASF4639
C:\Users\CYMR90~1\AppData\Local\Temp\cchaIJlx.s:23151  .debug_str:000000000000d6e6 .LASF4640
C:\Users\CYMR90~1\AppData\Local\Temp\cchaIJlx.s:25820  .debug_str:00000000000181ac .LASF4641
C:\Users\CYMR90~1\AppData\Local\Temp\cchaIJlx.s:20161  .debug_str:000000000000165a .LASF4642
C:\Users\CYMR90~1\AppData\Local\Temp\cchaIJlx.s:28766  .debug_str:0000000000023b59 .LASF4643
C:\Users\CYMR90~1\AppData\Local\Temp\cchaIJlx.s:25287  .debug_str:0000000000015de5 .LASF4644
C:\Users\CYMR90~1\AppData\Local\Temp\cchaIJlx.s:30396  .debug_str:000000000002a669 .LASF4645
C:\Users\CYMR90~1\AppData\Local\Temp\cchaIJlx.s:29366  .debug_str:0000000000026436 .LASF4646
C:\Users\CYMR90~1\AppData\Local\Temp\cchaIJlx.s:30400  .debug_str:000000000002a69d .LASF4647
C:\Users\CYMR90~1\AppData\Local\Temp\cchaIJlx.s:26828  .debug_str:000000000001c39a .LASF4648
C:\Users\CYMR90~1\AppData\Local\Temp\cchaIJlx.s:20107  .debug_str:0000000000001330 .LASF4649
C:\Users\CYMR90~1\AppData\Local\Temp\cchaIJlx.s:29142  .debug_str:00000000000255ef .LASF4650
C:\Users\CYMR90~1\AppData\Local\Temp\cchaIJlx.s:26734  .debug_str:000000000001bdf2 .LASF4651
C:\Users\CYMR90~1\AppData\Local\Temp\cchaIJlx.s:21285  .debug_str:0000000000005d8a .LASF4652
C:\Users\CYMR90~1\AppData\Local\Temp\cchaIJlx.s:23381  .debug_str:000000000000e46e .LASF4653
C:\Users\CYMR90~1\AppData\Local\Temp\cchaIJlx.s:27828  .debug_str:0000000000020260 .LASF4654
C:\Users\CYMR90~1\AppData\Local\Temp\cchaIJlx.s:24517  .debug_str:0000000000012da7 .LASF4655
C:\Users\CYMR90~1\AppData\Local\Temp\cchaIJlx.s:29510  .debug_str:0000000000026d32 .LASF4656
C:\Users\CYMR90~1\AppData\Local\Temp\cchaIJlx.s:25055  .debug_str:0000000000014fd2 .LASF4657
C:\Users\CYMR90~1\AppData\Local\Temp\cchaIJlx.s:24805  .debug_str:0000000000013fd7 .LASF4658
C:\Users\CYMR90~1\AppData\Local\Temp\cchaIJlx.s:23887  .debug_str:0000000000010457 .LASF4659
C:\Users\CYMR90~1\AppData\Local\Temp\cchaIJlx.s:27696  .debug_str:000000000001faa2 .LASF4660
C:\Users\CYMR90~1\AppData\Local\Temp\cchaIJlx.s:23479  .debug_str:000000000000eb15 .LASF4661
C:\Users\CYMR90~1\AppData\Local\Temp\cchaIJlx.s:21195  .debug_str:0000000000005820 .LASF4662
C:\Users\CYMR90~1\AppData\Local\Temp\cchaIJlx.s:30240  .debug_str:0000000000029ce8 .LASF4663
C:\Users\CYMR90~1\AppData\Local\Temp\cchaIJlx.s:28006  .debug_str:0000000000020d61 .LASF4664
C:\Users\CYMR90~1\AppData\Local\Temp\cchaIJlx.s:30748  .debug_str:000000000002bce9 .LASF4665
C:\Users\CYMR90~1\AppData\Local\Temp\cchaIJlx.s:23683  .debug_str:000000000000f7c4 .LASF4666
C:\Users\CYMR90~1\AppData\Local\Temp\cchaIJlx.s:22105  .debug_str:0000000000009237 .LASF4667
C:\Users\CYMR90~1\AppData\Local\Temp\cchaIJlx.s:30430  .debug_str:000000000002a839 .LASF4668
C:\Users\CYMR90~1\AppData\Local\Temp\cchaIJlx.s:28644  .debug_str:00000000000233f1 .LASF4669
C:\Users\CYMR90~1\AppData\Local\Temp\cchaIJlx.s:29910  .debug_str:0000000000028828 .LASF4670
C:\Users\CYMR90~1\AppData\Local\Temp\cchaIJlx.s:21507  .debug_str:0000000000006b50 .LASF4671
C:\Users\CYMR90~1\AppData\Local\Temp\cchaIJlx.s:28248  .debug_str:0000000000021c5f .LASF4672
C:\Users\CYMR90~1\AppData\Local\Temp\cchaIJlx.s:30070  .debug_str:000000000002927e .LASF4673
C:\Users\CYMR90~1\AppData\Local\Temp\cchaIJlx.s:29806  .debug_str:000000000002812a .LASF4674
C:\Users\CYMR90~1\AppData\Local\Temp\cchaIJlx.s:29106  .debug_str:000000000002535b .LASF4675
C:\Users\CYMR90~1\AppData\Local\Temp\cchaIJlx.s:25117  .debug_str:0000000000015378 .LASF4676
C:\Users\CYMR90~1\AppData\Local\Temp\cchaIJlx.s:22275  .debug_str:0000000000009cf7 .LASF4677
C:\Users\CYMR90~1\AppData\Local\Temp\cchaIJlx.s:23685  .debug_str:000000000000f7e6 .LASF4678
C:\Users\CYMR90~1\AppData\Local\Temp\cchaIJlx.s:20375  .debug_str:0000000000002387 .LASF4679
C:\Users\CYMR90~1\AppData\Local\Temp\cchaIJlx.s:22419  .debug_str:000000000000a603 .LASF4680
C:\Users\CYMR90~1\AppData\Local\Temp\cchaIJlx.s:27340  .debug_str:000000000001e51f .LASF4681
C:\Users\CYMR90~1\AppData\Local\Temp\cchaIJlx.s:25594  .debug_str:00000000000173b6 .LASF4682
C:\Users\CYMR90~1\AppData\Local\Temp\cchaIJlx.s:23071  .debug_str:000000000000d19e .LASF4683
C:\Users\CYMR90~1\AppData\Local\Temp\cchaIJlx.s:30802  .debug_str:000000000002c044 .LASF4684
C:\Users\CYMR90~1\AppData\Local\Temp\cchaIJlx.s:25435  .debug_str:000000000001677d .LASF4685
C:\Users\CYMR90~1\AppData\Local\Temp\cchaIJlx.s:30462  .debug_str:000000000002aa29 .LASF4686
C:\Users\CYMR90~1\AppData\Local\Temp\cchaIJlx.s:20585  .debug_str:00000000000030c5 .LASF4687
C:\Users\CYMR90~1\AppData\Local\Temp\cchaIJlx.s:20115  .debug_str:00000000000013cf .LASF4688
C:\Users\CYMR90~1\AppData\Local\Temp\cchaIJlx.s:25445  .debug_str:0000000000016883 .LASF4689
C:\Users\CYMR90~1\AppData\Local\Temp\cchaIJlx.s:21997  .debug_str:0000000000008bb2 .LASF4690
C:\Users\CYMR90~1\AppData\Local\Temp\cchaIJlx.s:29586  .debug_str:000000000002724a .LASF4691
C:\Users\CYMR90~1\AppData\Local\Temp\cchaIJlx.s:28536  .debug_str:0000000000022da1 .LASF4692
C:\Users\CYMR90~1\AppData\Local\Temp\cchaIJlx.s:20349  .debug_str:00000000000021fb .LASF4693
C:\Users\CYMR90~1\AppData\Local\Temp\cchaIJlx.s:21467  .debug_str:00000000000068e7 .LASF4694
C:\Users\CYMR90~1\AppData\Local\Temp\cchaIJlx.s:29728  .debug_str:0000000000027b54 .LASF4695
C:\Users\CYMR90~1\AppData\Local\Temp\cchaIJlx.s:27274  .debug_str:000000000001e13d .LASF4696
C:\Users\CYMR90~1\AppData\Local\Temp\cchaIJlx.s:21827  .debug_str:0000000000008118 .LASF4697
C:\Users\CYMR90~1\AppData\Local\Temp\cchaIJlx.s:29644  .debug_str:0000000000027585 .LASF4698
C:\Users\CYMR90~1\AppData\Local\Temp\cchaIJlx.s:23545  .debug_str:000000000000eeb7 .LASF4699
C:\Users\CYMR90~1\AppData\Local\Temp\cchaIJlx.s:26962  .debug_str:000000000001cc91 .LASF4700
C:\Users\CYMR90~1\AppData\Local\Temp\cchaIJlx.s:27096  .debug_str:000000000001d632 .LASF4701
C:\Users\CYMR90~1\AppData\Local\Temp\cchaIJlx.s:20333  .debug_str:0000000000002126 .LASF4702
C:\Users\CYMR90~1\AppData\Local\Temp\cchaIJlx.s:23711  .debug_str:000000000000f93f .LASF4703
C:\Users\CYMR90~1\AppData\Local\Temp\cchaIJlx.s:30220  .debug_str:0000000000029bd4 .LASF4704
C:\Users\CYMR90~1\AppData\Local\Temp\cchaIJlx.s:23521  .debug_str:000000000000ed48 .LASF4705
C:\Users\CYMR90~1\AppData\Local\Temp\cchaIJlx.s:26880  .debug_str:000000000001c6c3 .LASF4706
C:\Users\CYMR90~1\AppData\Local\Temp\cchaIJlx.s:22599  .debug_str:000000000000b1e1 .LASF4707
C:\Users\CYMR90~1\AppData\Local\Temp\cchaIJlx.s:25746  .debug_str:0000000000017d28 .LASF4708
C:\Users\CYMR90~1\AppData\Local\Temp\cchaIJlx.s:23927  .debug_str:00000000000106b7 .LASF4709
C:\Users\CYMR90~1\AppData\Local\Temp\cchaIJlx.s:20419  .debug_str:0000000000002632 .LASF4710
C:\Users\CYMR90~1\AppData\Local\Temp\cchaIJlx.s:28522  .debug_str:0000000000022cd0 .LASF4711
C:\Users\CYMR90~1\AppData\Local\Temp\cchaIJlx.s:20145  .debug_str:000000000000155b .LASF4712
C:\Users\CYMR90~1\AppData\Local\Temp\cchaIJlx.s:19979  .debug_str:0000000000000b92 .LASF4713
C:\Users\CYMR90~1\AppData\Local\Temp\cchaIJlx.s:21047  .debug_str:0000000000004f1a .LASF4714
C:\Users\CYMR90~1\AppData\Local\Temp\cchaIJlx.s:21687  .debug_str:00000000000076f8 .LASF4715
C:\Users\CYMR90~1\AppData\Local\Temp\cchaIJlx.s:29320  .debug_str:0000000000026157 .LASF4716
C:\Users\CYMR90~1\AppData\Local\Temp\cchaIJlx.s:20337  .debug_str:000000000000215b .LASF4717
C:\Users\CYMR90~1\AppData\Local\Temp\cchaIJlx.s:28066  .debug_str:00000000000210bc .LASF4718
C:\Users\CYMR90~1\AppData\Local\Temp\cchaIJlx.s:22673  .debug_str:000000000000b6fb .LASF4719
C:\Users\CYMR90~1\AppData\Local\Temp\cchaIJlx.s:27180  .debug_str:000000000001db63 .LASF4720
C:\Users\CYMR90~1\AppData\Local\Temp\cchaIJlx.s:22035  .debug_str:0000000000008e39 .LASF4721
C:\Users\CYMR90~1\AppData\Local\Temp\cchaIJlx.s:27682  .debug_str:000000000001f9c6 .LASF4722
C:\Users\CYMR90~1\AppData\Local\Temp\cchaIJlx.s:28306  .debug_str:0000000000021fce .LASF4723
C:\Users\CYMR90~1\AppData\Local\Temp\cchaIJlx.s:25888  .debug_str:00000000000185a7 .LASF4724
C:\Users\CYMR90~1\AppData\Local\Temp\cchaIJlx.s:28398  .debug_str:000000000002254f .LASF4725
C:\Users\CYMR90~1\AppData\Local\Temp\cchaIJlx.s:25367  .debug_str:0000000000016319 .LASF4726
C:\Users\CYMR90~1\AppData\Local\Temp\cchaIJlx.s:25271  .debug_str:0000000000015cc3 .LASF4727
C:\Users\CYMR90~1\AppData\Local\Temp\cchaIJlx.s:24855  .debug_str:0000000000014313 .LASF4728
C:\Users\CYMR90~1\AppData\Local\Temp\cchaIJlx.s:21791  .debug_str:0000000000007e33 .LASF4729
C:\Users\CYMR90~1\AppData\Local\Temp\cchaIJlx.s:24093  .debug_str:00000000000110e9 .LASF4730
C:\Users\CYMR90~1\AppData\Local\Temp\cchaIJlx.s:27140  .debug_str:000000000001d93b .LASF4731
C:\Users\CYMR90~1\AppData\Local\Temp\cchaIJlx.s:30986  .debug_str:000000000002ccaa .LASF4732
C:\Users\CYMR90~1\AppData\Local\Temp\cchaIJlx.s:23365  .debug_str:000000000000e378 .LASF4733
C:\Users\CYMR90~1\AppData\Local\Temp\cchaIJlx.s:25848  .debug_str:000000000001834b .LASF4734
C:\Users\CYMR90~1\AppData\Local\Temp\cchaIJlx.s:20199  .debug_str:0000000000001968 .LASF4735
C:\Users\CYMR90~1\AppData\Local\Temp\cchaIJlx.s:20827  .debug_str:000000000000404b .LASF4736
C:\Users\CYMR90~1\AppData\Local\Temp\cchaIJlx.s:20831  .debug_str:000000000000411b .LASF4737
C:\Users\CYMR90~1\AppData\Local\Temp\cchaIJlx.s:24007  .debug_str:0000000000010c3c .LASF4738
C:\Users\CYMR90~1\AppData\Local\Temp\cchaIJlx.s:28788  .debug_str:0000000000023cd0 .LASF4739
C:\Users\CYMR90~1\AppData\Local\Temp\cchaIJlx.s:22699  .debug_str:000000000000b8e9 .LASF4740
C:\Users\CYMR90~1\AppData\Local\Temp\cchaIJlx.s:22415  .debug_str:000000000000a5c5 .LASF4741
C:\Users\CYMR90~1\AppData\Local\Temp\cchaIJlx.s:27946  .debug_str:00000000000209e7 .LASF4742
C:\Users\CYMR90~1\AppData\Local\Temp\cchaIJlx.s:21769  .debug_str:0000000000007c49 .LASF4743
C:\Users\CYMR90~1\AppData\Local\Temp\cchaIJlx.s:29200  .debug_str:0000000000025a06 .LASF4744
C:\Users\CYMR90~1\AppData\Local\Temp\cchaIJlx.s:28852  .debug_str:000000000002419f .LASF4745
C:\Users\CYMR90~1\AppData\Local\Temp\cchaIJlx.s:28606  .debug_str:0000000000023193 .LASF4746
C:\Users\CYMR90~1\AppData\Local\Temp\cchaIJlx.s:25151  .debug_str:0000000000015541 .LASF4747
C:\Users\CYMR90~1\AppData\Local\Temp\cchaIJlx.s:30600  .debug_str:000000000002b2be .LASF4748
C:\Users\CYMR90~1\AppData\Local\Temp\cchaIJlx.s:28898  .debug_str:00000000000244c9 .LASF4749
C:\Users\CYMR90~1\AppData\Local\Temp\cchaIJlx.s:26136  .debug_str:0000000000019649 .LASF4750
C:\Users\CYMR90~1\AppData\Local\Temp\cchaIJlx.s:27162  .debug_str:000000000001da75 .LASF4751
C:\Users\CYMR90~1\AppData\Local\Temp\cchaIJlx.s:25353  .debug_str:000000000001622d .LASF4752
C:\Users\CYMR90~1\AppData\Local\Temp\cchaIJlx.s:22045  .debug_str:0000000000008ed3 .LASF4753
C:\Users\CYMR90~1\AppData\Local\Temp\cchaIJlx.s:26140  .debug_str:0000000000019691 .LASF4754
C:\Users\CYMR90~1\AppData\Local\Temp\cchaIJlx.s:25936  .debug_str:00000000000188af .LASF4755
C:\Users\CYMR90~1\AppData\Local\Temp\cchaIJlx.s:25602  .debug_str:0000000000017412 .LASF4756
C:\Users\CYMR90~1\AppData\Local\Temp\cchaIJlx.s:25381  .debug_str:00000000000163c4 .LASF4757
C:\Users\CYMR90~1\AppData\Local\Temp\cchaIJlx.s:20777  .debug_str:0000000000003d30 .LASF4758
C:\Users\CYMR90~1\AppData\Local\Temp\cchaIJlx.s:29608  .debug_str:0000000000027378 .LASF4759
C:\Users\CYMR90~1\AppData\Local\Temp\cchaIJlx.s:23337  .debug_str:000000000000e1d5 .LASF4760
C:\Users\CYMR90~1\AppData\Local\Temp\cchaIJlx.s:20819  .debug_str:0000000000003fc8 .LASF4761
C:\Users\CYMR90~1\AppData\Local\Temp\cchaIJlx.s:24991  .debug_str:0000000000014b5b .LASF4762
C:\Users\CYMR90~1\AppData\Local\Temp\cchaIJlx.s:23331  .debug_str:000000000000e18f .LASF4763
C:\Users\CYMR90~1\AppData\Local\Temp\cchaIJlx.s:20359  .debug_str:00000000000022ac .LASF4764
C:\Users\CYMR90~1\AppData\Local\Temp\cchaIJlx.s:30438  .debug_str:000000000002a8bf .LASF4765
C:\Users\CYMR90~1\AppData\Local\Temp\cchaIJlx.s:21947  .debug_str:0000000000008895 .LASF4766
C:\Users\CYMR90~1\AppData\Local\Temp\cchaIJlx.s:20541  .debug_str:0000000000002df0 .LASF4767
C:\Users\CYMR90~1\AppData\Local\Temp\cchaIJlx.s:29694  .debug_str:00000000000278f5 .LASF4768
C:\Users\CYMR90~1\AppData\Local\Temp\cchaIJlx.s:30178  .debug_str:0000000000029927 .LASF4769
C:\Users\CYMR90~1\AppData\Local\Temp\cchaIJlx.s:26260  .debug_str:0000000000019e71 .LASF4770
C:\Users\CYMR90~1\AppData\Local\Temp\cchaIJlx.s:26298  .debug_str:000000000001a0b2 .LASF4771
C:\Users\CYMR90~1\AppData\Local\Temp\cchaIJlx.s:29146  .debug_str:000000000002563d .LASF4772
C:\Users\CYMR90~1\AppData\Local\Temp\cchaIJlx.s:25089  .debug_str:00000000000151fe .LASF4773
C:\Users\CYMR90~1\AppData\Local\Temp\cchaIJlx.s:30956  .debug_str:000000000002ca51 .LASF4774
C:\Users\CYMR90~1\AppData\Local\Temp\cchaIJlx.s:29860  .debug_str:00000000000284e7 .LASF4775
C:\Users\CYMR90~1\AppData\Local\Temp\cchaIJlx.s:28616  .debug_str:0000000000023219 .LASF4776
C:\Users\CYMR90~1\AppData\Local\Temp\cchaIJlx.s:27438  .debug_str:000000000001eae7 .LASF4777
C:\Users\CYMR90~1\AppData\Local\Temp\cchaIJlx.s:23901  .debug_str:000000000001053f .LASF4778
C:\Users\CYMR90~1\AppData\Local\Temp\cchaIJlx.s:30844  .debug_str:000000000002c36e .LASF4779
C:\Users\CYMR90~1\AppData\Local\Temp\cchaIJlx.s:29026  .debug_str:0000000000024d57 .LASF4780
C:\Users\CYMR90~1\AppData\Local\Temp\cchaIJlx.s:28936  .debug_str:0000000000024706 .LASF4781
C:\Users\CYMR90~1\AppData\Local\Temp\cchaIJlx.s:21559  .debug_str:0000000000006ea6 .LASF4782
C:\Users\CYMR90~1\AppData\Local\Temp\cchaIJlx.s:25405  .debug_str:0000000000016595 .LASF4783
C:\Users\CYMR90~1\AppData\Local\Temp\cchaIJlx.s:29672  .debug_str:000000000002774d .LASF4784
C:\Users\CYMR90~1\AppData\Local\Temp\cchaIJlx.s:26944  .debug_str:000000000001cb4c .LASF4785
C:\Users\CYMR90~1\AppData\Local\Temp\cchaIJlx.s:25744  .debug_str:0000000000017d03 .LASF4786
C:\Users\CYMR90~1\AppData\Local\Temp\cchaIJlx.s:25710  .debug_str:0000000000017b1e .LASF4787
C:\Users\CYMR90~1\AppData\Local\Temp\cchaIJlx.s:20529  .debug_str:0000000000002d33 .LASF4788
C:\Users\CYMR90~1\AppData\Local\Temp\cchaIJlx.s:21847  .debug_str:0000000000008261 .LASF4789
C:\Users\CYMR90~1\AppData\Local\Temp\cchaIJlx.s:26928  .debug_str:000000000001ca62 .LASF4790
C:\Users\CYMR90~1\AppData\Local\Temp\cchaIJlx.s:22463  .debug_str:000000000000a8a5 .LASF4791
C:\Users\CYMR90~1\AppData\Local\Temp\cchaIJlx.s:21437  .debug_str:00000000000066be .LASF4792
C:\Users\CYMR90~1\AppData\Local\Temp\cchaIJlx.s:25399  .debug_str:0000000000016548 .LASF4793
C:\Users\CYMR90~1\AppData\Local\Temp\cchaIJlx.s:26552  .debug_str:000000000001b2fe .LASF4794
C:\Users\CYMR90~1\AppData\Local\Temp\cchaIJlx.s:20811  .debug_str:0000000000003f6d .LASF4795
C:\Users\CYMR90~1\AppData\Local\Temp\cchaIJlx.s:29220  .debug_str:0000000000025b40 .LASF4796
C:\Users\CYMR90~1\AppData\Local\Temp\cchaIJlx.s:23419  .debug_str:000000000000e70e .LASF4797
C:\Users\CYMR90~1\AppData\Local\Temp\cchaIJlx.s:27014  .debug_str:000000000001d107 .LASF4798
C:\Users\CYMR90~1\AppData\Local\Temp\cchaIJlx.s:24889  .debug_str:0000000000014511 .LASF4799
C:\Users\CYMR90~1\AppData\Local\Temp\cchaIJlx.s:22561  .debug_str:000000000000af9e .LASF4800
C:\Users\CYMR90~1\AppData\Local\Temp\cchaIJlx.s:27962  .debug_str:0000000000020ad8 .LASF4801
C:\Users\CYMR90~1\AppData\Local\Temp\cchaIJlx.s:29332  .debug_str:00000000000261ea .LASF4802
C:\Users\CYMR90~1\AppData\Local\Temp\cchaIJlx.s:27648  .debug_str:000000000001f7a1 .LASF4803
C:\Users\CYMR90~1\AppData\Local\Temp\cchaIJlx.s:28250  .debug_str:0000000000021c83 .LASF4804
C:\Users\CYMR90~1\AppData\Local\Temp\cchaIJlx.s:26522  .debug_str:000000000001b0e7 .LASF4805
C:\Users\CYMR90~1\AppData\Local\Temp\cchaIJlx.s:27800  .debug_str:00000000000200d5 .LASF4806
C:\Users\CYMR90~1\AppData\Local\Temp\cchaIJlx.s:29282  .debug_str:0000000000025f1a .LASF4807
C:\Users\CYMR90~1\AppData\Local\Temp\cchaIJlx.s:28770  .debug_str:0000000000023b99 .LASF4808
C:\Users\CYMR90~1\AppData\Local\Temp\cchaIJlx.s:28594  .debug_str:00000000000230c1 .LASF4809
C:\Users\CYMR90~1\AppData\Local\Temp\cchaIJlx.s:31016  .debug_str:000000000002ce59 .LASF4810
C:\Users\CYMR90~1\AppData\Local\Temp\cchaIJlx.s:21431  .debug_str:000000000000665f .LASF4811
C:\Users\CYMR90~1\AppData\Local\Temp\cchaIJlx.s:21067  .debug_str:000000000000503e .LASF4812
C:\Users\CYMR90~1\AppData\Local\Temp\cchaIJlx.s:28498  .debug_str:0000000000022b75 .LASF4813
C:\Users\CYMR90~1\AppData\Local\Temp\cchaIJlx.s:28450  .debug_str:000000000002285d .LASF4814
C:\Users\CYMR90~1\AppData\Local\Temp\cchaIJlx.s:27744  .debug_str:000000000001fdc5 .LASF4815
C:\Users\CYMR90~1\AppData\Local\Temp\cchaIJlx.s:19963  .debug_str:0000000000000a38 .LASF4816
C:\Users\CYMR90~1\AppData\Local\Temp\cchaIJlx.s:24677  .debug_str:0000000000013861 .LASF4817
C:\Users\CYMR90~1\AppData\Local\Temp\cchaIJlx.s:25798  .debug_str:0000000000018024 .LASF4818
C:\Users\CYMR90~1\AppData\Local\Temp\cchaIJlx.s:23405  .debug_str:000000000000e62e .LASF4819
C:\Users\CYMR90~1\AppData\Local\Temp\cchaIJlx.s:26988  .debug_str:000000000001cef1 .LASF4820
C:\Users\CYMR90~1\AppData\Local\Temp\cchaIJlx.s:25027  .debug_str:0000000000014e05 .LASF4821
C:\Users\CYMR90~1\AppData\Local\Temp\cchaIJlx.s:20345  .debug_str:00000000000021b4 .LASF4822
C:\Users\CYMR90~1\AppData\Local\Temp\cchaIJlx.s:21801  .debug_str:0000000000007ee0 .LASF4823
C:\Users\CYMR90~1\AppData\Local\Temp\cchaIJlx.s:22831  .debug_str:000000000000c15d .LASF4824
C:\Users\CYMR90~1\AppData\Local\Temp\cchaIJlx.s:25173  .debug_str:0000000000015692 .LASF4825
C:\Users\CYMR90~1\AppData\Local\Temp\cchaIJlx.s:26680  .debug_str:000000000001ba53 .LASF4826
C:\Users\CYMR90~1\AppData\Local\Temp\cchaIJlx.s:20895  .debug_str:0000000000004515 .LASF4827
C:\Users\CYMR90~1\AppData\Local\Temp\cchaIJlx.s:21923  .debug_str:0000000000008713 .LASF4828
C:\Users\CYMR90~1\AppData\Local\Temp\cchaIJlx.s:20949  .debug_str:0000000000004940 .LASF4829
C:\Users\CYMR90~1\AppData\Local\Temp\cchaIJlx.s:27254  .debug_str:000000000001dfe9 .LASF4830
C:\Users\CYMR90~1\AppData\Local\Temp\cchaIJlx.s:28870  .debug_str:00000000000242e4 .LASF4831
C:\Users\CYMR90~1\AppData\Local\Temp\cchaIJlx.s:30346  .debug_str:000000000002a36a .LASF4832
C:\Users\CYMR90~1\AppData\Local\Temp\cchaIJlx.s:23753  .debug_str:000000000000fbcd .LASF4833
C:\Users\CYMR90~1\AppData\Local\Temp\cchaIJlx.s:28274  .debug_str:0000000000021deb .LASF4834
C:\Users\CYMR90~1\AppData\Local\Temp\cchaIJlx.s:29798  .debug_str:00000000000280a6 .LASF4835
C:\Users\CYMR90~1\AppData\Local\Temp\cchaIJlx.s:28658  .debug_str:00000000000234e7 .LASF4836
C:\Users\CYMR90~1\AppData\Local\Temp\cchaIJlx.s:25047  .debug_str:0000000000014f55 .LASF4837
C:\Users\CYMR90~1\AppData\Local\Temp\cchaIJlx.s:30544  .debug_str:000000000002aefa .LASF4838
C:\Users\CYMR90~1\AppData\Local\Temp\cchaIJlx.s:22597  .debug_str:000000000000b1b8 .LASF4839
C:\Users\CYMR90~1\AppData\Local\Temp\cchaIJlx.s:30056  .debug_str:00000000000291ab .LASF4840
C:\Users\CYMR90~1\AppData\Local\Temp\cchaIJlx.s:25125  .debug_str:00000000000153f7 .LASF4841
C:\Users\CYMR90~1\AppData\Local\Temp\cchaIJlx.s:28156  .debug_str:00000000000216ac .LASF4842
C:\Users\CYMR90~1\AppData\Local\Temp\cchaIJlx.s:30448  .debug_str:000000000002a975 .LASF4843
C:\Users\CYMR90~1\AppData\Local\Temp\cchaIJlx.s:19935  .debug_str:0000000000000874 .LASF4844
C:\Users\CYMR90~1\AppData\Local\Temp\cchaIJlx.s:25652  .debug_str:000000000001774b .LASF4845
C:\Users\CYMR90~1\AppData\Local\Temp\cchaIJlx.s:27452  .debug_str:000000000001ebbc .LASF4846
C:\Users\CYMR90~1\AppData\Local\Temp\cchaIJlx.s:22341  .debug_str:000000000000a10a .LASF4847
C:\Users\CYMR90~1\AppData\Local\Temp\cchaIJlx.s:21171  .debug_str:00000000000056ad .LASF4848
C:\Users\CYMR90~1\AppData\Local\Temp\cchaIJlx.s:23681  .debug_str:000000000000f79a .LASF4849
C:\Users\CYMR90~1\AppData\Local\Temp\cchaIJlx.s:25930  .debug_str:000000000001883d .LASF4850
C:\Users\CYMR90~1\AppData\Local\Temp\cchaIJlx.s:20441  .debug_str:00000000000027d2 .LASF4851
C:\Users\CYMR90~1\AppData\Local\Temp\cchaIJlx.s:26176  .debug_str:000000000001998d .LASF4852
C:\Users\CYMR90~1\AppData\Local\Temp\cchaIJlx.s:27506  .debug_str:000000000001ef1a .LASF4853
C:\Users\CYMR90~1\AppData\Local\Temp\cchaIJlx.s:19971  .debug_str:0000000000000afe .LASF4854
C:\Users\CYMR90~1\AppData\Local\Temp\cchaIJlx.s:21415  .debug_str:0000000000006599 .LASF4855
C:\Users\CYMR90~1\AppData\Local\Temp\cchaIJlx.s:24427  .debug_str:00000000000127cc .LASF4856
C:\Users\CYMR90~1\AppData\Local\Temp\cchaIJlx.s:27430  .debug_str:000000000001ea8c .LASF4857
C:\Users\CYMR90~1\AppData\Local\Temp\cchaIJlx.s:26178  .debug_str:00000000000199b9 .LASF4858
C:\Users\CYMR90~1\AppData\Local\Temp\cchaIJlx.s:30496  .debug_str:000000000002ac3e .LASF4859
C:\Users\CYMR90~1\AppData\Local\Temp\cchaIJlx.s:22751  .debug_str:000000000000bc2a .LASF4860
C:\Users\CYMR90~1\AppData\Local\Temp\cchaIJlx.s:25768  .debug_str:0000000000017e9f .LASF4861
C:\Users\CYMR90~1\AppData\Local\Temp\cchaIJlx.s:24779  .debug_str:0000000000013e49 .LASF4862
C:\Users\CYMR90~1\AppData\Local\Temp\cchaIJlx.s:25752  .debug_str:0000000000017d7e .LASF4863
C:\Users\CYMR90~1\AppData\Local\Temp\cchaIJlx.s:27948  .debug_str:00000000000209fd .LASF4864
C:\Users\CYMR90~1\AppData\Local\Temp\cchaIJlx.s:27952  .debug_str:0000000000020a36 .LASF4865
C:\Users\CYMR90~1\AppData\Local\Temp\cchaIJlx.s:20565  .debug_str:0000000000002f55 .LASF4866
C:\Users\CYMR90~1\AppData\Local\Temp\cchaIJlx.s:23501  .debug_str:000000000000ec44 .LASF4867
C:\Users\CYMR90~1\AppData\Local\Temp\cchaIJlx.s:30244  .debug_str:0000000000029d25 .LASF4868
C:\Users\CYMR90~1\AppData\Local\Temp\cchaIJlx.s:21957  .debug_str:0000000000008938 .LASF4869
C:\Users\CYMR90~1\AppData\Local\Temp\cchaIJlx.s:23717  .debug_str:000000000000f995 .LASF4870
C:\Users\CYMR90~1\AppData\Local\Temp\cchaIJlx.s:20505  .debug_str:0000000000002bd1 .LASF4871
C:\Users\CYMR90~1\AppData\Local\Temp\cchaIJlx.s:23743  .debug_str:000000000000fb42 .LASF4872
C:\Users\CYMR90~1\AppData\Local\Temp\cchaIJlx.s:25558  .debug_str:00000000000171a0 .LASF4873
C:\Users\CYMR90~1\AppData\Local\Temp\cchaIJlx.s:23191  .debug_str:000000000000d936 .LASF4874
C:\Users\CYMR90~1\AppData\Local\Temp\cchaIJlx.s:25636  .debug_str:0000000000017644 .LASF4875
C:\Users\CYMR90~1\AppData\Local\Temp\cchaIJlx.s:22227  .debug_str:0000000000009a09 .LASF4876
C:\Users\CYMR90~1\AppData\Local\Temp\cchaIJlx.s:25041  .debug_str:0000000000014ef7 .LASF4877
C:\Users\CYMR90~1\AppData\Local\Temp\cchaIJlx.s:24939  .debug_str:0000000000014850 .LASF4878
C:\Users\CYMR90~1\AppData\Local\Temp\cchaIJlx.s:21913  .debug_str:0000000000008679 .LASF4879
C:\Users\CYMR90~1\AppData\Local\Temp\cchaIJlx.s:21101  .debug_str:0000000000005270 .LASF4880
C:\Users\CYMR90~1\AppData\Local\Temp\cchaIJlx.s:28826  .debug_str:0000000000023fb4 .LASF4881
C:\Users\CYMR90~1\AppData\Local\Temp\cchaIJlx.s:30482  .debug_str:000000000002ab81 .LASF4882
C:\Users\CYMR90~1\AppData\Local\Temp\cchaIJlx.s:25830  .debug_str:000000000001822e .LASF4883
C:\Users\CYMR90~1\AppData\Local\Temp\cchaIJlx.s:29986  .debug_str:0000000000028cda .LASF4884
C:\Users\CYMR90~1\AppData\Local\Temp\cchaIJlx.s:29670  .debug_str:000000000002772b .LASF4885
C:\Users\CYMR90~1\AppData\Local\Temp\cchaIJlx.s:22203  .debug_str:0000000000009862 .LASF4886
C:\Users\CYMR90~1\AppData\Local\Temp\cchaIJlx.s:29420  .debug_str:000000000002679c .LASF4887
C:\Users\CYMR90~1\AppData\Local\Temp\cchaIJlx.s:25814  .debug_str:0000000000018143 .LASF4888
C:\Users\CYMR90~1\AppData\Local\Temp\cchaIJlx.s:25718  .debug_str:0000000000017b80 .LASF4889
C:\Users\CYMR90~1\AppData\Local\Temp\cchaIJlx.s:29544  .debug_str:0000000000026ef6 .LASF4890
C:\Users\CYMR90~1\AppData\Local\Temp\cchaIJlx.s:23603  .debug_str:000000000000f242 .LASF4891
C:\Users\CYMR90~1\AppData\Local\Temp\cchaIJlx.s:26966  .debug_str:000000000001ccd5 .LASF4892
C:\Users\CYMR90~1\AppData\Local\Temp\cchaIJlx.s:26002  .debug_str:0000000000018d61 .LASF4893
C:\Users\CYMR90~1\AppData\Local\Temp\cchaIJlx.s:22905  .debug_str:000000000000c619 .LASF4894
C:\Users\CYMR90~1\AppData\Local\Temp\cchaIJlx.s:29076  .debug_str:0000000000025172 .LASF4895
C:\Users\CYMR90~1\AppData\Local\Temp\cchaIJlx.s:22333  .debug_str:000000000000a094 .LASF4896
C:\Users\CYMR90~1\AppData\Local\Temp\cchaIJlx.s:28906  .debug_str:000000000002452e .LASF4897
C:\Users\CYMR90~1\AppData\Local\Temp\cchaIJlx.s:26738  .debug_str:000000000001be3c .LASF4898
C:\Users\CYMR90~1\AppData\Local\Temp\cchaIJlx.s:23047  .debug_str:000000000000cfbf .LASF4899
C:\Users\CYMR90~1\AppData\Local\Temp\cchaIJlx.s:23917  .debug_str:000000000001063a .LASF4900
C:\Users\CYMR90~1\AppData\Local\Temp\cchaIJlx.s:20285  .debug_str:0000000000001e85 .LASF4901
C:\Users\CYMR90~1\AppData\Local\Temp\cchaIJlx.s:25510  .debug_str:0000000000016ed8 .LASF4902
C:\Users\CYMR90~1\AppData\Local\Temp\cchaIJlx.s:26814  .debug_str:000000000001c2c5 .LASF4903
C:\Users\CYMR90~1\AppData\Local\Temp\cchaIJlx.s:24935  .debug_str:000000000001480e .LASF4904
C:\Users\CYMR90~1\AppData\Local\Temp\cchaIJlx.s:20887  .debug_str:0000000000004494 .LASF4905
C:\Users\CYMR90~1\AppData\Local\Temp\cchaIJlx.s:26454  .debug_str:000000000001ac4a .LASF4906
C:\Users\CYMR90~1\AppData\Local\Temp\cchaIJlx.s:29170  .debug_str:0000000000025831 .LASF4907
C:\Users\CYMR90~1\AppData\Local\Temp\cchaIJlx.s:23657  .debug_str:000000000000f588 .LASF4908
C:\Users\CYMR90~1\AppData\Local\Temp\cchaIJlx.s:22745  .debug_str:000000000000bb96 .LASF4909
C:\Users\CYMR90~1\AppData\Local\Temp\cchaIJlx.s:19801  .debug_str:000000000000006a .LASF4910
C:\Users\CYMR90~1\AppData\Local\Temp\cchaIJlx.s:22821  .debug_str:000000000000c0da .LASF4911
C:\Users\CYMR90~1\AppData\Local\Temp\cchaIJlx.s:21433  .debug_str:0000000000006682 .LASF4912
C:\Users\CYMR90~1\AppData\Local\Temp\cchaIJlx.s:21641  .debug_str:0000000000007434 .LASF4913
C:\Users\CYMR90~1\AppData\Local\Temp\cchaIJlx.s:25179  .debug_str:00000000000156e3 .LASF4914
C:\Users\CYMR90~1\AppData\Local\Temp\cchaIJlx.s:22705  .debug_str:000000000000b930 .LASF4915
C:\Users\CYMR90~1\AppData\Local\Temp\cchaIJlx.s:25031  .debug_str:0000000000014e4c .LASF4916
C:\Users\CYMR90~1\AppData\Local\Temp\cchaIJlx.s:22661  .debug_str:000000000000b632 .LASF4917
C:\Users\CYMR90~1\AppData\Local\Temp\cchaIJlx.s:25225  .debug_str:00000000000159b2 .LASF4918
C:\Users\CYMR90~1\AppData\Local\Temp\cchaIJlx.s:24023  .debug_str:0000000000010d0e .LASF4919
C:\Users\CYMR90~1\AppData\Local\Temp\cchaIJlx.s:24041  .debug_str:0000000000010dee .LASF4920
C:\Users\CYMR90~1\AppData\Local\Temp\cchaIJlx.s:24347  .debug_str:000000000001229f .LASF4921
C:\Users\CYMR90~1\AppData\Local\Temp\cchaIJlx.s:25097  .debug_str:0000000000015287 .LASF4922
C:\Users\CYMR90~1\AppData\Local\Temp\cchaIJlx.s:29856  .debug_str:000000000002849f .LASF4923
C:\Users\CYMR90~1\AppData\Local\Temp\cchaIJlx.s:29862  .debug_str:0000000000028509 .LASF4924
C:\Users\CYMR90~1\AppData\Local\Temp\cchaIJlx.s:21689  .debug_str:000000000000771a .LASF4925
C:\Users\CYMR90~1\AppData\Local\Temp\cchaIJlx.s:30740  .debug_str:000000000002bbe6 .LASF4926
C:\Users\CYMR90~1\AppData\Local\Temp\cchaIJlx.s:30758  .debug_str:000000000002bd8d .LASF4927
C:\Users\CYMR90~1\AppData\Local\Temp\cchaIJlx.s:24585  .debug_str:000000000001324d .LASF4928
C:\Users\CYMR90~1\AppData\Local\Temp\cchaIJlx.s:19997  .debug_str:0000000000000c87 .LASF4929
C:\Users\CYMR90~1\AppData\Local\Temp\cchaIJlx.s:22701  .debug_str:000000000000b901 .LASF4930
C:\Users\CYMR90~1\AppData\Local\Temp\cchaIJlx.s:27434  .debug_str:000000000001eaab .LASF4931
C:\Users\CYMR90~1\AppData\Local\Temp\cchaIJlx.s:21423  .debug_str:0000000000006604 .LASF4932
C:\Users\CYMR90~1\AppData\Local\Temp\cchaIJlx.s:23131  .debug_str:000000000000d5e6 .LASF4933
C:\Users\CYMR90~1\AppData\Local\Temp\cchaIJlx.s:24537  .debug_str:0000000000012f08 .LASF4934
C:\Users\CYMR90~1\AppData\Local\Temp\cchaIJlx.s:23959  .debug_str:000000000001089c .LASF4935
C:\Users\CYMR90~1\AppData\Local\Temp\cchaIJlx.s:28262  .debug_str:0000000000021d50 .LASF4936
C:\Users\CYMR90~1\AppData\Local\Temp\cchaIJlx.s:24551  .debug_str:0000000000012ff2 .LASF4937
C:\Users\CYMR90~1\AppData\Local\Temp\cchaIJlx.s:21093  .debug_str:00000000000051ec .LASF4938
C:\Users\CYMR90~1\AppData\Local\Temp\cchaIJlx.s:28100  .debug_str:000000000002135a .LASF4939
C:\Users\CYMR90~1\AppData\Local\Temp\cchaIJlx.s:25279  .debug_str:0000000000015d38 .LASF4940
C:\Users\CYMR90~1\AppData\Local\Temp\cchaIJlx.s:21331  .debug_str:000000000000607f .LASF4941
C:\Users\CYMR90~1\AppData\Local\Temp\cchaIJlx.s:21803  .debug_str:0000000000007f04 .LASF4942
C:\Users\CYMR90~1\AppData\Local\Temp\cchaIJlx.s:25109  .debug_str:0000000000015309 .LASF4943
C:\Users\CYMR90~1\AppData\Local\Temp\cchaIJlx.s:27748  .debug_str:000000000001fe13 .LASF4944
C:\Users\CYMR90~1\AppData\Local\Temp\cchaIJlx.s:29892  .debug_str:00000000000286f4 .LASF4945
C:\Users\CYMR90~1\AppData\Local\Temp\cchaIJlx.s:24757  .debug_str:0000000000013ce1 .LASF4946
C:\Users\CYMR90~1\AppData\Local\Temp\cchaIJlx.s:25914  .debug_str:0000000000018709 .LASF4947
C:\Users\CYMR90~1\AppData\Local\Temp\cchaIJlx.s:20393  .debug_str:00000000000024be .LASF4948
C:\Users\CYMR90~1\AppData\Local\Temp\cchaIJlx.s:27366  .debug_str:000000000001e6c7 .LASF4949
C:\Users\CYMR90~1\AppData\Local\Temp\cchaIJlx.s:26832  .debug_str:000000000001c3ce .LASF4950
C:\Users\CYMR90~1\AppData\Local\Temp\cchaIJlx.s:29126  .debug_str:00000000000254e2 .LASF4951
C:\Users\CYMR90~1\AppData\Local\Temp\cchaIJlx.s:21475  .debug_str:000000000000695a .LASF4952
C:\Users\CYMR90~1\AppData\Local\Temp\cchaIJlx.s:20249  .debug_str:0000000000001c6d .LASF4953
C:\Users\CYMR90~1\AppData\Local\Temp\cchaIJlx.s:22065  .debug_str:0000000000008fe1 .LASF4954
C:\Users\CYMR90~1\AppData\Local\Temp\cchaIJlx.s:22229  .debug_str:0000000000009a2c .LASF4955
C:\Users\CYMR90~1\AppData\Local\Temp\cchaIJlx.s:20261  .debug_str:0000000000001d0e .LASF4956
C:\Users\CYMR90~1\AppData\Local\Temp\cchaIJlx.s:22449  .debug_str:000000000000a808 .LASF4957
C:\Users\CYMR90~1\AppData\Local\Temp\cchaIJlx.s:24983  .debug_str:0000000000014ae3 .LASF4958
C:\Users\CYMR90~1\AppData\Local\Temp\cchaIJlx.s:25385  .debug_str:0000000000016407 .LASF4959
C:\Users\CYMR90~1\AppData\Local\Temp\cchaIJlx.s:24475  .debug_str:0000000000012af1 .LASF4960
C:\Users\CYMR90~1\AppData\Local\Temp\cchaIJlx.s:22547  .debug_str:000000000000aeb8 .LASF4961
C:\Users\CYMR90~1\AppData\Local\Temp\cchaIJlx.s:25045  .debug_str:0000000000014f3c .LASF4962
C:\Users\CYMR90~1\AppData\Local\Temp\cchaIJlx.s:21613  .debug_str:0000000000007249 .LASF4963
C:\Users\CYMR90~1\AppData\Local\Temp\cchaIJlx.s:25810  .debug_str:0000000000018106 .LASF4964
C:\Users\CYMR90~1\AppData\Local\Temp\cchaIJlx.s:23703  .debug_str:000000000000f8d4 .LASF4965
C:\Users\CYMR90~1\AppData\Local\Temp\cchaIJlx.s:25209  .debug_str:00000000000158bf .LASF4966
C:\Users\CYMR90~1\AppData\Local\Temp\cchaIJlx.s:23067  .debug_str:000000000000d160 .LASF4967
C:\Users\CYMR90~1\AppData\Local\Temp\cchaIJlx.s:26474  .debug_str:000000000001ad9a .LASF4968
C:\Users\CYMR90~1\AppData\Local\Temp\cchaIJlx.s:31032  .debug_str:000000000002cf57 .LASF4969
C:\Users\CYMR90~1\AppData\Local\Temp\cchaIJlx.s:29470  .debug_str:0000000000026a7b .LASF4970
C:\Users\CYMR90~1\AppData\Local\Temp\cchaIJlx.s:28520  .debug_str:0000000000022cb8 .LASF4971
C:\Users\CYMR90~1\AppData\Local\Temp\cchaIJlx.s:21663  .debug_str:000000000000757c .LASF4972
C:\Users\CYMR90~1\AppData\Local\Temp\cchaIJlx.s:21051  .debug_str:0000000000004f58 .LASF4973
C:\Users\CYMR90~1\AppData\Local\Temp\cchaIJlx.s:22277  .debug_str:0000000000009d16 .LASF4974
C:\Users\CYMR90~1\AppData\Local\Temp\cchaIJlx.s:22225  .debug_str:00000000000099e8 .LASF4975
C:\Users\CYMR90~1\AppData\Local\Temp\cchaIJlx.s:23109  .debug_str:000000000000d449 .LASF4976
C:\Users\CYMR90~1\AppData\Local\Temp\cchaIJlx.s:20343  .debug_str:0000000000002197 .LASF4977
C:\Users\CYMR90~1\AppData\Local\Temp\cchaIJlx.s:28230  .debug_str:0000000000021b39 .LASF4978
C:\Users\CYMR90~1\AppData\Local\Temp\cchaIJlx.s:27864  .debug_str:0000000000020509 .LASF4979
C:\Users\CYMR90~1\AppData\Local\Temp\cchaIJlx.s:29554  .debug_str:0000000000026fa0 .LASF4980
C:\Users\CYMR90~1\AppData\Local\Temp\cchaIJlx.s:20207  .debug_str:00000000000019ca .LASF4981
C:\Users\CYMR90~1\AppData\Local\Temp\cchaIJlx.s:23725  .debug_str:000000000000fa1c .LASF4982
C:\Users\CYMR90~1\AppData\Local\Temp\cchaIJlx.s:22111  .debug_str:000000000000928f .LASF4983
C:\Users\CYMR90~1\AppData\Local\Temp\cchaIJlx.s:29020  .debug_str:0000000000024d08 .LASF4984
C:\Users\CYMR90~1\AppData\Local\Temp\cchaIJlx.s:30464  .debug_str:000000000002aa4f .LASF4985
C:\Users\CYMR90~1\AppData\Local\Temp\cchaIJlx.s:25530  .debug_str:000000000001701b .LASF4986
C:\Users\CYMR90~1\AppData\Local\Temp\cchaIJlx.s:25640  .debug_str:000000000001768b .LASF4987
C:\Users\CYMR90~1\AppData\Local\Temp\cchaIJlx.s:27188  .debug_str:000000000001dbf0 .LASF4988
C:\Users\CYMR90~1\AppData\Local\Temp\cchaIJlx.s:22351  .debug_str:000000000000a1bb .LASF4989
C:\Users\CYMR90~1\AppData\Local\Temp\cchaIJlx.s:27614  .debug_str:000000000001f599 .LASF4990
C:\Users\CYMR90~1\AppData\Local\Temp\cchaIJlx.s:28786  .debug_str:0000000000023cb3 .LASF4991
C:\Users\CYMR90~1\AppData\Local\Temp\cchaIJlx.s:24465  .debug_str:0000000000012a7a .LASF4992
C:\Users\CYMR90~1\AppData\Local\Temp\cchaIJlx.s:20685  .debug_str:000000000000373c .LASF4993
C:\Users\CYMR90~1\AppData\Local\Temp\cchaIJlx.s:20867  .debug_str:000000000000433f .LASF4994
C:\Users\CYMR90~1\AppData\Local\Temp\cchaIJlx.s:29706  .debug_str:00000000000279c1 .LASF4995
C:\Users\CYMR90~1\AppData\Local\Temp\cchaIJlx.s:24125  .debug_str:00000000000112ab .LASF4996
C:\Users\CYMR90~1\AppData\Local\Temp\cchaIJlx.s:22713  .debug_str:000000000000b997 .LASF4997
C:\Users\CYMR90~1\AppData\Local\Temp\cchaIJlx.s:28778  .debug_str:0000000000023c22 .LASF4998
C:\Users\CYMR90~1\AppData\Local\Temp\cchaIJlx.s:28884  .debug_str:00000000000243e6 .LASF4999
C:\Users\CYMR90~1\AppData\Local\Temp\cchaIJlx.s:25181  .debug_str:00000000000156f9 .LASF5000
C:\Users\CYMR90~1\AppData\Local\Temp\cchaIJlx.s:20709  .debug_str:00000000000038cf .LASF5001
C:\Users\CYMR90~1\AppData\Local\Temp\cchaIJlx.s:25512  .debug_str:0000000000016f02 .LASF5002
C:\Users\CYMR90~1\AppData\Local\Temp\cchaIJlx.s:20655  .debug_str:0000000000003570 .LASF5003
C:\Users\CYMR90~1\AppData\Local\Temp\cchaIJlx.s:20323  .debug_str:000000000000209f .LASF5004
C:\Users\CYMR90~1\AppData\Local\Temp\cchaIJlx.s:21385  .debug_str:00000000000063d9 .LASF5005
C:\Users\CYMR90~1\AppData\Local\Temp\cchaIJlx.s:29354  .debug_str:0000000000026368 .LASF5006
C:\Users\CYMR90~1\AppData\Local\Temp\cchaIJlx.s:29600  .debug_str:0000000000027315 .LASF5007
C:\Users\CYMR90~1\AppData\Local\Temp\cchaIJlx.s:19909  .debug_str:00000000000006d8 .LASF5008
C:\Users\CYMR90~1\AppData\Local\Temp\cchaIJlx.s:25101  .debug_str:00000000000152b7 .LASF5009
C:\Users\CYMR90~1\AppData\Local\Temp\cchaIJlx.s:30720  .debug_str:000000000002bac4 .LASF5010
C:\Users\CYMR90~1\AppData\Local\Temp\cchaIJlx.s:22533  .debug_str:000000000000ad36 .LASF5011
C:\Users\CYMR90~1\AppData\Local\Temp\cchaIJlx.s:21469  .debug_str:0000000000006902 .LASF5012
C:\Users\CYMR90~1\AppData\Local\Temp\cchaIJlx.s:29656  .debug_str:000000000002762a .LASF5013
C:\Users\CYMR90~1\AppData\Local\Temp\cchaIJlx.s:26414  .debug_str:000000000001a9df .LASF5014
C:\Users\CYMR90~1\AppData\Local\Temp\cchaIJlx.s:27522  .debug_str:000000000001f023 .LASF5015
C:\Users\CYMR90~1\AppData\Local\Temp\cchaIJlx.s:26672  .debug_str:000000000001b9ee .LASF5016
C:\Users\CYMR90~1\AppData\Local\Temp\cchaIJlx.s:21169  .debug_str:0000000000005694 .LASF5017
C:\Users\CYMR90~1\AppData\Local\Temp\cchaIJlx.s:28550  .debug_str:0000000000022e69 .LASF5018
C:\Users\CYMR90~1\AppData\Local\Temp\cchaIJlx.s:28568  .debug_str:0000000000022f57 .LASF5019
C:\Users\CYMR90~1\AppData\Local\Temp\cchaIJlx.s:29048  .debug_str:0000000000024e8d .LASF5020
C:\Users\CYMR90~1\AppData\Local\Temp\cchaIJlx.s:29964  .debug_str:0000000000028b6f .LASF5021
C:\Users\CYMR90~1\AppData\Local\Temp\cchaIJlx.s:28608  .debug_str:00000000000231ac .LASF5022
C:\Users\CYMR90~1\AppData\Local\Temp\cchaIJlx.s:30082  .debug_str:0000000000029360 .LASF5023
C:\Users\CYMR90~1\AppData\Local\Temp\cchaIJlx.s:24543  .debug_str:0000000000012f66 .LASF5024
C:\Users\CYMR90~1\AppData\Local\Temp\cchaIJlx.s:24369  .debug_str:00000000000123f4 .LASF5025
C:\Users\CYMR90~1\AppData\Local\Temp\cchaIJlx.s:28142  .debug_str:00000000000215cf .LASF5026
C:\Users\CYMR90~1\AppData\Local\Temp\cchaIJlx.s:26804  .debug_str:000000000001c23b .LASF5027
C:\Users\CYMR90~1\AppData\Local\Temp\cchaIJlx.s:24547  .debug_str:0000000000012faa .LASF5028
C:\Users\CYMR90~1\AppData\Local\Temp\cchaIJlx.s:25722  .debug_str:0000000000017bbd .LASF5029
C:\Users\CYMR90~1\AppData\Local\Temp\cchaIJlx.s:21045  .debug_str:0000000000004f00 .LASF5030
C:\Users\CYMR90~1\AppData\Local\Temp\cchaIJlx.s:28126  .debug_str:00000000000214d8 .LASF5031
C:\Users\CYMR90~1\AppData\Local\Temp\cchaIJlx.s:25453  .debug_str:000000000001690e .LASF5032
C:\Users\CYMR90~1\AppData\Local\Temp\cchaIJlx.s:20563  .debug_str:0000000000002f3c .LASF5033
C:\Users\CYMR90~1\AppData\Local\Temp\cchaIJlx.s:27428  .debug_str:000000000001ea74 .LASF5034
C:\Users\CYMR90~1\AppData\Local\Temp\cchaIJlx.s:28362  .debug_str:0000000000022304 .LASF5035
C:\Users\CYMR90~1\AppData\Local\Temp\cchaIJlx.s:29754  .debug_str:0000000000027d08 .LASF5036
C:\Users\CYMR90~1\AppData\Local\Temp\cchaIJlx.s:28818  .debug_str:0000000000023e6a .LASF5037
C:\Users\CYMR90~1\AppData\Local\Temp\cchaIJlx.s:27070  .debug_str:000000000001d45d .LASF5038
C:\Users\CYMR90~1\AppData\Local\Temp\cchaIJlx.s:27050  .debug_str:000000000001d32a .LASF5039
C:\Users\CYMR90~1\AppData\Local\Temp\cchaIJlx.s:28148  .debug_str:000000000002164d .LASF5040
C:\Users\CYMR90~1\AppData\Local\Temp\cchaIJlx.s:24421  .debug_str:000000000001275e .LASF5041
C:\Users\CYMR90~1\AppData\Local\Temp\cchaIJlx.s:25826  .debug_str:00000000000181f2 .LASF5042
C:\Users\CYMR90~1\AppData\Local\Temp\cchaIJlx.s:21637  .debug_str:00000000000073e9 .LASF5043
C:\Users\CYMR90~1\AppData\Local\Temp\cchaIJlx.s:26396  .debug_str:000000000001a8c2 .LASF5044
C:\Users\CYMR90~1\AppData\Local\Temp\cchaIJlx.s:30198  .debug_str:0000000000029a76 .LASF5045
C:\Users\CYMR90~1\AppData\Local\Temp\cchaIJlx.s:22885  .debug_str:000000000000c4b9 .LASF5046
C:\Users\CYMR90~1\AppData\Local\Temp\cchaIJlx.s:22517  .debug_str:000000000000abf9 .LASF5047
C:\Users\CYMR90~1\AppData\Local\Temp\cchaIJlx.s:23533  .debug_str:000000000000edf1 .LASF5048
C:\Users\CYMR90~1\AppData\Local\Temp\cchaIJlx.s:21509  .debug_str:0000000000006b74 .LASF5049
C:\Users\CYMR90~1\AppData\Local\Temp\cchaIJlx.s:27790  .debug_str:000000000002004a .LASF5050
C:\Users\CYMR90~1\AppData\Local\Temp\cchaIJlx.s:20397  .debug_str:00000000000024f4 .LASF5051
C:\Users\CYMR90~1\AppData\Local\Temp\cchaIJlx.s:28596  .debug_str:00000000000230e3 .LASF5052
C:\Users\CYMR90~1\AppData\Local\Temp\cchaIJlx.s:25439  .debug_str:00000000000167e4 .LASF5053
C:\Users\CYMR90~1\AppData\Local\Temp\cchaIJlx.s:30418  .debug_str:000000000002a78e .LASF5054
C:\Users\CYMR90~1\AppData\Local\Temp\cchaIJlx.s:23723  .debug_str:000000000000f9fc .LASF5055
C:\Users\CYMR90~1\AppData\Local\Temp\cchaIJlx.s:29748  .debug_str:0000000000027c96 .LASF5056
C:\Users\CYMR90~1\AppData\Local\Temp\cchaIJlx.s:21711  .debug_str:0000000000007898 .LASF5057
C:\Users\CYMR90~1\AppData\Local\Temp\cchaIJlx.s:23127  .debug_str:000000000000d5a7 .LASF5058
C:\Users\CYMR90~1\AppData\Local\Temp\cchaIJlx.s:30912  .debug_str:000000000002c7b9 .LASF5059
C:\Users\CYMR90~1\AppData\Local\Temp\cchaIJlx.s:22757  .debug_str:000000000000bca3 .LASF5060
C:\Users\CYMR90~1\AppData\Local\Temp\cchaIJlx.s:22325  .debug_str:000000000000a027 .LASF5061
C:\Users\CYMR90~1\AppData\Local\Temp\cchaIJlx.s:29660  .debug_str:0000000000027682 .LASF5062
C:\Users\CYMR90~1\AppData\Local\Temp\cchaIJlx.s:24161  .debug_str:000000000001152f .LASF5063
C:\Users\CYMR90~1\AppData\Local\Temp\cchaIJlx.s:20959  .debug_str:00000000000049d9 .LASF5064
C:\Users\CYMR90~1\AppData\Local\Temp\cchaIJlx.s:22269  .debug_str:0000000000009c90 .LASF5065
C:\Users\CYMR90~1\AppData\Local\Temp\cchaIJlx.s:26046  .debug_str:000000000001910f .LASF5066
C:\Users\CYMR90~1\AppData\Local\Temp\cchaIJlx.s:27010  .debug_str:000000000001d0bd .LASF5067
C:\Users\CYMR90~1\AppData\Local\Temp\cchaIJlx.s:22675  .debug_str:000000000000b712 .LASF5068
C:\Users\CYMR90~1\AppData\Local\Temp\cchaIJlx.s:22965  .debug_str:000000000000cab6 .LASF5069
C:\Users\CYMR90~1\AppData\Local\Temp\cchaIJlx.s:25239  .debug_str:0000000000015a6f .LASF5070
C:\Users\CYMR90~1\AppData\Local\Temp\cchaIJlx.s:23367  .debug_str:000000000000e38d .LASF5071
C:\Users\CYMR90~1\AppData\Local\Temp\cchaIJlx.s:26220  .debug_str:0000000000019c21 .LASF5072
C:\Users\CYMR90~1\AppData\Local\Temp\cchaIJlx.s:25964  .debug_str:0000000000018a5e .LASF5073
C:\Users\CYMR90~1\AppData\Local\Temp\cchaIJlx.s:28670  .debug_str:00000000000235c2 .LASF5074
C:\Users\CYMR90~1\AppData\Local\Temp\cchaIJlx.s:20917  .debug_str:00000000000046a1 .LASF5075
C:\Users\CYMR90~1\AppData\Local\Temp\cchaIJlx.s:19977  .debug_str:0000000000000b61 .LASF5076
C:\Users\CYMR90~1\AppData\Local\Temp\cchaIJlx.s:24253  .debug_str:0000000000011bce .LASF5077
C:\Users\CYMR90~1\AppData\Local\Temp\cchaIJlx.s:25005  .debug_str:0000000000014c52 .LASF5078
C:\Users\CYMR90~1\AppData\Local\Temp\cchaIJlx.s:30784  .debug_str:000000000002bf03 .LASF5079
C:\Users\CYMR90~1\AppData\Local\Temp\cchaIJlx.s:21861  .debug_str:000000000000833e .LASF5080
C:\Users\CYMR90~1\AppData\Local\Temp\cchaIJlx.s:22409  .debug_str:000000000000a56a .LASF5081
C:\Users\CYMR90~1\AppData\Local\Temp\cchaIJlx.s:26052  .debug_str:0000000000019171 .LASF5082
C:\Users\CYMR90~1\AppData\Local\Temp\cchaIJlx.s:23305  .debug_str:000000000000dfe9 .LASF5083
C:\Users\CYMR90~1\AppData\Local\Temp\cchaIJlx.s:30832  .debug_str:000000000002c2b2 .LASF5084
C:\Users\CYMR90~1\AppData\Local\Temp\cchaIJlx.s:20211  .debug_str:0000000000001a08 .LASF5085
C:\Users\CYMR90~1\AppData\Local\Temp\cchaIJlx.s:29738  .debug_str:0000000000027be5 .LASF5086
C:\Users\CYMR90~1\AppData\Local\Temp\cchaIJlx.s:27132  .debug_str:000000000001d8c1 .LASF5087
C:\Users\CYMR90~1\AppData\Local\Temp\cchaIJlx.s:24645  .debug_str:0000000000013662 .LASF5088
C:\Users\CYMR90~1\AppData\Local\Temp\cchaIJlx.s:22373  .debug_str:000000000000a33a .LASF5089
C:\Users\CYMR90~1\AppData\Local\Temp\cchaIJlx.s:28188  .debug_str:0000000000021866 .LASF5090
C:\Users\CYMR90~1\AppData\Local\Temp\cchaIJlx.s:24549  .debug_str:0000000000012fca .LASF5091
C:\Users\CYMR90~1\AppData\Local\Temp\cchaIJlx.s:24673  .debug_str:000000000001381e .LASF5092
C:\Users\CYMR90~1\AppData\Local\Temp\cchaIJlx.s:24651  .debug_str:00000000000136c3 .LASF5093
C:\Users\CYMR90~1\AppData\Local\Temp\cchaIJlx.s:28856  .debug_str:00000000000241ec .LASF5094
C:\Users\CYMR90~1\AppData\Local\Temp\cchaIJlx.s:29356  .debug_str:0000000000026383 .LASF5095
C:\Users\CYMR90~1\AppData\Local\Temp\cchaIJlx.s:20461  .debug_str:0000000000002928 .LASF5096
C:\Users\CYMR90~1\AppData\Local\Temp\cchaIJlx.s:24223  .debug_str:0000000000011a2c .LASF5097
C:\Users\CYMR90~1\AppData\Local\Temp\cchaIJlx.s:27746  .debug_str:000000000001fde8 .LASF5098
C:\Users\CYMR90~1\AppData\Local\Temp\cchaIJlx.s:20607  .debug_str:0000000000003232 .LASF5099
C:\Users\CYMR90~1\AppData\Local\Temp\cchaIJlx.s:27676  .debug_str:000000000001f94f .LASF5100
C:\Users\CYMR90~1\AppData\Local\Temp\cchaIJlx.s:24637  .debug_str:00000000000135df .LASF5101
C:\Users\CYMR90~1\AppData\Local\Temp\cchaIJlx.s:30076  .debug_str:00000000000292e4 .LASF5102
C:\Users\CYMR90~1\AppData\Local\Temp\cchaIJlx.s:22357  .debug_str:000000000000a212 .LASF5103
C:\Users\CYMR90~1\AppData\Local\Temp\cchaIJlx.s:26042  .debug_str:00000000000190bc .LASF5104
C:\Users\CYMR90~1\AppData\Local\Temp\cchaIJlx.s:30320  .debug_str:000000000002a18a .LASF5105
C:\Users\CYMR90~1\AppData\Local\Temp\cchaIJlx.s:23313  .debug_str:000000000000e06a .LASF5106
C:\Users\CYMR90~1\AppData\Local\Temp\cchaIJlx.s:30314  .debug_str:000000000002a121 .LASF5107
C:\Users\CYMR90~1\AppData\Local\Temp\cchaIJlx.s:20539  .debug_str:0000000000002dc3 .LASF5108
C:\Users\CYMR90~1\AppData\Local\Temp\cchaIJlx.s:26476  .debug_str:000000000001adb2 .LASF5109
C:\Users\CYMR90~1\AppData\Local\Temp\cchaIJlx.s:23633  .debug_str:000000000000f416 .LASF5110
C:\Users\CYMR90~1\AppData\Local\Temp\cchaIJlx.s:24815  .debug_str:00000000000140ae .LASF5111
C:\Users\CYMR90~1\AppData\Local\Temp\cchaIJlx.s:20219  .debug_str:0000000000001a7f .LASF5112
C:\Users\CYMR90~1\AppData\Local\Temp\cchaIJlx.s:22081  .debug_str:00000000000090b5 .LASF5113
C:\Users\CYMR90~1\AppData\Local\Temp\cchaIJlx.s:26984  .debug_str:000000000001ce95 .LASF5114
C:\Users\CYMR90~1\AppData\Local\Temp\cchaIJlx.s:30362  .debug_str:000000000002a45f .LASF5115
C:\Users\CYMR90~1\AppData\Local\Temp\cchaIJlx.s:20911  .debug_str:0000000000004629 .LASF5116
C:\Users\CYMR90~1\AppData\Local\Temp\cchaIJlx.s:29130  .debug_str:0000000000025529 .LASF5117
C:\Users\CYMR90~1\AppData\Local\Temp\cchaIJlx.s:27636  .debug_str:000000000001f6b6 .LASF5118
C:\Users\CYMR90~1\AppData\Local\Temp\cchaIJlx.s:26812  .debug_str:000000000001c29d .LASF5119
C:\Users\CYMR90~1\AppData\Local\Temp\cchaIJlx.s:27770  .debug_str:000000000001ff45 .LASF5120
C:\Users\CYMR90~1\AppData\Local\Temp\cchaIJlx.s:30982  .debug_str:000000000002cc5b .LASF5121
C:\Users\CYMR90~1\AppData\Local\Temp\cchaIJlx.s:29474  .debug_str:0000000000026aa8 .LASF5122
C:\Users\CYMR90~1\AppData\Local\Temp\cchaIJlx.s:21069  .debug_str:0000000000005062 .LASF5123
C:\Users\CYMR90~1\AppData\Local\Temp\cchaIJlx.s:28158  .debug_str:00000000000216d8 .LASF5124
C:\Users\CYMR90~1\AppData\Local\Temp\cchaIJlx.s:28082  .debug_str:0000000000021245 .LASF5125
C:\Users\CYMR90~1\AppData\Local\Temp\cchaIJlx.s:24461  .debug_str:0000000000012a2d .LASF5126
C:\Users\CYMR90~1\AppData\Local\Temp\cchaIJlx.s:25756  .debug_str:0000000000017dc3 .LASF5127
C:\Users\CYMR90~1\AppData\Local\Temp\cchaIJlx.s:23967  .debug_str:000000000001094a .LASF5128
C:\Users\CYMR90~1\AppData\Local\Temp\cchaIJlx.s:25860  .debug_str:00000000000183e9 .LASF5129
C:\Users\CYMR90~1\AppData\Local\Temp\cchaIJlx.s:26436  .debug_str:000000000001ab5f .LASF5130
C:\Users\CYMR90~1\AppData\Local\Temp\cchaIJlx.s:27776  .debug_str:000000000001ffa6 .LASF5131
C:\Users\CYMR90~1\AppData\Local\Temp\cchaIJlx.s:31018  .debug_str:000000000002ce7b .LASF5132
C:\Users\CYMR90~1\AppData\Local\Temp\cchaIJlx.s:24927  .debug_str:0000000000014796 .LASF5133
C:\Users\CYMR90~1\AppData\Local\Temp\cchaIJlx.s:26290  .debug_str:000000000001a040 .LASF5134
C:\Users\CYMR90~1\AppData\Local\Temp\cchaIJlx.s:21131  .debug_str:000000000000543d .LASF5135
C:\Users\CYMR90~1\AppData\Local\Temp\cchaIJlx.s:28878  .debug_str:000000000002435f .LASF5136
C:\Users\CYMR90~1\AppData\Local\Temp\cchaIJlx.s:29742  .debug_str:0000000000027c28 .LASF5137
C:\Users\CYMR90~1\AppData\Local\Temp\cchaIJlx.s:21731  .debug_str:00000000000079cb .LASF5138
C:\Users\CYMR90~1\AppData\Local\Temp\cchaIJlx.s:30792  .debug_str:000000000002bfaa .LASF5139
C:\Users\CYMR90~1\AppData\Local\Temp\cchaIJlx.s:23485  .debug_str:000000000000eb75 .LASF5140
C:\Users\CYMR90~1\AppData\Local\Temp\cchaIJlx.s:25674  .debug_str:00000000000178de .LASF5141
C:\Users\CYMR90~1\AppData\Local\Temp\cchaIJlx.s:21841  .debug_str:0000000000008202 .LASF5142
C:\Users\CYMR90~1\AppData\Local\Temp\cchaIJlx.s:21439  .debug_str:00000000000066e0 .LASF5143
C:\Users\CYMR90~1\AppData\Local\Temp\cchaIJlx.s:21037  .debug_str:0000000000004e75 .LASF5144
C:\Users\CYMR90~1\AppData\Local\Temp\cchaIJlx.s:29564  .debug_str:00000000000270d9 .LASF5145
C:\Users\CYMR90~1\AppData\Local\Temp\cchaIJlx.s:25802  .debug_str:000000000001806e .LASF5146
C:\Users\CYMR90~1\AppData\Local\Temp\cchaIJlx.s:24401  .debug_str:0000000000012610 .LASF5147
C:\Users\CYMR90~1\AppData\Local\Temp\cchaIJlx.s:22913  .debug_str:000000000000c6ab .LASF5148
C:\Users\CYMR90~1\AppData\Local\Temp\cchaIJlx.s:27370  .debug_str:000000000001e70f .LASF5149
C:\Users\CYMR90~1\AppData\Local\Temp\cchaIJlx.s:22079  .debug_str:0000000000009084 .LASF5150
C:\Users\CYMR90~1\AppData\Local\Temp\cchaIJlx.s:30520  .debug_str:000000000002ad89 .LASF5151
C:\Users\CYMR90~1\AppData\Local\Temp\cchaIJlx.s:27360  .debug_str:000000000001e633 .LASF5152
C:\Users\CYMR90~1\AppData\Local\Temp\cchaIJlx.s:21933  .debug_str:00000000000087ae .LASF5153
C:\Users\CYMR90~1\AppData\Local\Temp\cchaIJlx.s:29652  .debug_str:00000000000275ee .LASF5154
C:\Users\CYMR90~1\AppData\Local\Temp\cchaIJlx.s:31024  .debug_str:000000000002ced5 .LASF5155
C:\Users\CYMR90~1\AppData\Local\Temp\cchaIJlx.s:27686  .debug_str:000000000001f9f5 .LASF5156
C:\Users\CYMR90~1\AppData\Local\Temp\cchaIJlx.s:29940  .debug_str:00000000000289e4 .LASF5157
C:\Users\CYMR90~1\AppData\Local\Temp\cchaIJlx.s:21017  .debug_str:0000000000004d53 .LASF5158
C:\Users\CYMR90~1\AppData\Local\Temp\cchaIJlx.s:21359  .debug_str:000000000000626c .LASF5159
C:\Users\CYMR90~1\AppData\Local\Temp\cchaIJlx.s:26310  .debug_str:000000000001a157 .LASF5160
C:\Users\CYMR90~1\AppData\Local\Temp\cchaIJlx.s:25013  .debug_str:0000000000014d0c .LASF5161
C:\Users\CYMR90~1\AppData\Local\Temp\cchaIJlx.s:23771  .debug_str:000000000000fcfc .LASF5162
C:\Users\CYMR90~1\AppData\Local\Temp\cchaIJlx.s:30380  .debug_str:000000000002a578 .LASF5163
C:\Users\CYMR90~1\AppData\Local\Temp\cchaIJlx.s:27406  .debug_str:000000000001e93e .LASF5164
C:\Users\CYMR90~1\AppData\Local\Temp\cchaIJlx.s:28222  .debug_str:0000000000021ab7 .LASF5165
C:\Users\CYMR90~1\AppData\Local\Temp\cchaIJlx.s:26512  .debug_str:000000000001b042 .LASF5166
C:\Users\CYMR90~1\AppData\Local\Temp\cchaIJlx.s:22129  .debug_str:0000000000009388 .LASF5167
C:\Users\CYMR90~1\AppData\Local\Temp\cchaIJlx.s:19851  .debug_str:000000000000037d .LASF5168
C:\Users\CYMR90~1\AppData\Local\Temp\cchaIJlx.s:24183  .debug_str:0000000000011748 .LASF5169
C:\Users\CYMR90~1\AppData\Local\Temp\cchaIJlx.s:20443  .debug_str:00000000000027fa .LASF5170
C:\Users\CYMR90~1\AppData\Local\Temp\cchaIJlx.s:27414  .debug_str:000000000001e9b0 .LASF5171
C:\Users\CYMR90~1\AppData\Local\Temp\cchaIJlx.s:25035  .debug_str:0000000000014ea1 .LASF5172
C:\Users\CYMR90~1\AppData\Local\Temp\cchaIJlx.s:19797  .debug_str:0000000000000000 .LASF5173
C:\Users\CYMR90~1\AppData\Local\Temp\cchaIJlx.s:24919  .debug_str:000000000001472f .LASF5174
C:\Users\CYMR90~1\AppData\Local\Temp\cchaIJlx.s:30078  .debug_str:0000000000029311 .LASF5175
C:\Users\CYMR90~1\AppData\Local\Temp\cchaIJlx.s:28956  .debug_str:00000000000248ba .LASF5176
C:\Users\CYMR90~1\AppData\Local\Temp\cchaIJlx.s:29714  .debug_str:0000000000027a38 .LASF5177
C:\Users\CYMR90~1\AppData\Local\Temp\cchaIJlx.s:21135  .debug_str:0000000000005487 .LASF5178
C:\Users\CYMR90~1\AppData\Local\Temp\cchaIJlx.s:25465  .debug_str:00000000000169d4 .LASF5179
C:\Users\CYMR90~1\AppData\Local\Temp\cchaIJlx.s:27722  .debug_str:000000000001fc3c .LASF5180
C:\Users\CYMR90~1\AppData\Local\Temp\cchaIJlx.s:26402  .debug_str:000000000001a92b .LASF5181
C:\Users\CYMR90~1\AppData\Local\Temp\cchaIJlx.s:31006  .debug_str:000000000002cd96 .LASF5182
C:\Users\CYMR90~1\AppData\Local\Temp\cchaIJlx.s:25586  .debug_str:0000000000017331 .LASF5183
C:\Users\CYMR90~1\AppData\Local\Temp\cchaIJlx.s:28406  .debug_str:00000000000225b4 .LASF5184
C:\Users\CYMR90~1\AppData\Local\Temp\cchaIJlx.s:23593  .debug_str:000000000000f1a6 .LASF5185
C:\Users\CYMR90~1\AppData\Local\Temp\cchaIJlx.s:24291  .debug_str:0000000000011e70 .LASF5186
C:\Users\CYMR90~1\AppData\Local\Temp\cchaIJlx.s:28324  .debug_str:0000000000022108 .LASF5187
C:\Users\CYMR90~1\AppData\Local\Temp\cchaIJlx.s:28234  .debug_str:0000000000021b66 .LASF5188
C:\Users\CYMR90~1\AppData\Local\Temp\cchaIJlx.s:29116  .debug_str:0000000000025404 .LASF5189
C:\Users\CYMR90~1\AppData\Local\Temp\cchaIJlx.s:29896  .debug_str:0000000000028729 .LASF5190
C:\Users\CYMR90~1\AppData\Local\Temp\cchaIJlx.s:29358  .debug_str:00000000000263ad .LASF5191
C:\Users\CYMR90~1\AppData\Local\Temp\cchaIJlx.s:24097  .debug_str:0000000000011124 .LASF5192
C:\Users\CYMR90~1\AppData\Local\Temp\cchaIJlx.s:23007  .debug_str:000000000000ccfe .LASF5193
C:\Users\CYMR90~1\AppData\Local\Temp\cchaIJlx.s:27884  .debug_str:0000000000020613 .LASF5194
C:\Users\CYMR90~1\AppData\Local\Temp\cchaIJlx.s:23671  .debug_str:000000000000f6dd .LASF5195
C:\Users\CYMR90~1\AppData\Local\Temp\cchaIJlx.s:22971  .debug_str:000000000000cb17 .LASF5196
C:\Users\CYMR90~1\AppData\Local\Temp\cchaIJlx.s:29334  .debug_str:0000000000026214 .LASF5197
C:\Users\CYMR90~1\AppData\Local\Temp\cchaIJlx.s:24563  .debug_str:00000000000130c2 .LASF5198
C:\Users\CYMR90~1\AppData\Local\Temp\cchaIJlx.s:22787  .debug_str:000000000000bea0 .LASF5199
C:\Users\CYMR90~1\AppData\Local\Temp\cchaIJlx.s:20697  .debug_str:0000000000003820 .LASF5200
C:\Users\CYMR90~1\AppData\Local\Temp\cchaIJlx.s:28560  .debug_str:0000000000022edf .LASF5201
C:\Users\CYMR90~1\AppData\Local\Temp\cchaIJlx.s:23675  .debug_str:000000000000f72c .LASF5202
C:\Users\CYMR90~1\AppData\Local\Temp\cchaIJlx.s:21197  .debug_str:0000000000005842 .LASF5203
C:\Users\CYMR90~1\AppData\Local\Temp\cchaIJlx.s:29774  .debug_str:0000000000027e8a .LASF5204
C:\Users\CYMR90~1\AppData\Local\Temp\cchaIJlx.s:24345  .debug_str:000000000001227d .LASF5205
C:\Users\CYMR90~1\AppData\Local\Temp\cchaIJlx.s:20533  .debug_str:0000000000002d67 .LASF5206
C:\Users\CYMR90~1\AppData\Local\Temp\cchaIJlx.s:29192  .debug_str:0000000000025992 .LASF5207
C:\Users\CYMR90~1\AppData\Local\Temp\cchaIJlx.s:29576  .debug_str:00000000000271ae .LASF5208
C:\Users\CYMR90~1\AppData\Local\Temp\cchaIJlx.s:24113  .debug_str:00000000000111f8 .LASF5209
C:\Users\CYMR90~1\AppData\Local\Temp\cchaIJlx.s:25299  .debug_str:0000000000015ec2 .LASF5210
C:\Users\CYMR90~1\AppData\Local\Temp\cchaIJlx.s:28600  .debug_str:000000000002311c .LASF5211
C:\Users\CYMR90~1\AppData\Local\Temp\cchaIJlx.s:27352  .debug_str:000000000001e5b3 .LASF5212
C:\Users\CYMR90~1\AppData\Local\Temp\cchaIJlx.s:28252  .debug_str:0000000000021cab .LASF5213
C:\Users\CYMR90~1\AppData\Local\Temp\cchaIJlx.s:31030  .debug_str:000000000002cf31 .LASF5214
C:\Users\CYMR90~1\AppData\Local\Temp\cchaIJlx.s:28436  .debug_str:000000000002276f .LASF5215
C:\Users\CYMR90~1\AppData\Local\Temp\cchaIJlx.s:20177  .debug_str:00000000000017e7 .LASF5216
C:\Users\CYMR90~1\AppData\Local\Temp\cchaIJlx.s:21715  .debug_str:00000000000078ce .LASF5217
C:\Users\CYMR90~1\AppData\Local\Temp\cchaIJlx.s:21071  .debug_str:000000000000508b .LASF5218
C:\Users\CYMR90~1\AppData\Local\Temp\cchaIJlx.s:28466  .debug_str:0000000000022921 .LASF5219
C:\Users\CYMR90~1\AppData\Local\Temp\cchaIJlx.s:24411  .debug_str:00000000000126b3 .LASF5220
C:\Users\CYMR90~1\AppData\Local\Temp\cchaIJlx.s:28930  .debug_str:00000000000246a7 .LASF5221
C:\Users\CYMR90~1\AppData\Local\Temp\cchaIJlx.s:30214  .debug_str:0000000000029b6c .LASF5222
C:\Users\CYMR90~1\AppData\Local\Temp\cchaIJlx.s:28518  .debug_str:0000000000022c90 .LASF5223
C:\Users\CYMR90~1\AppData\Local\Temp\cchaIJlx.s:29158  .debug_str:000000000002577b .LASF5224
C:\Users\CYMR90~1\AppData\Local\Temp\cchaIJlx.s:29208  .debug_str:0000000000025aa0 .LASF5225
C:\Users\CYMR90~1\AppData\Local\Temp\cchaIJlx.s:28000  .debug_str:0000000000020d1f .LASF5226
C:\Users\CYMR90~1\AppData\Local\Temp\cchaIJlx.s:29704  .debug_str:000000000002799e .LASF5227
C:\Users\CYMR90~1\AppData\Local\Temp\cchaIJlx.s:23935  .debug_str:0000000000010732 .LASF5228
C:\Users\CYMR90~1\AppData\Local\Temp\cchaIJlx.s:29044  .debug_str:0000000000024e4e .LASF5229
C:\Users\CYMR90~1\AppData\Local\Temp\cchaIJlx.s:22471  .debug_str:000000000000a90a .LASF5230
C:\Users\CYMR90~1\AppData\Local\Temp\cchaIJlx.s:23969  .debug_str:0000000000010969 .LASF5231
C:\Users\CYMR90~1\AppData\Local\Temp\cchaIJlx.s:30470  .debug_str:000000000002aaaf .LASF5232
C:\Users\CYMR90~1\AppData\Local\Temp\cchaIJlx.s:22005  .debug_str:0000000000008c2a .LASF5233
C:\Users\CYMR90~1\AppData\Local\Temp\cchaIJlx.s:22577  .debug_str:000000000000b0a4 .LASF5234
C:\Users\CYMR90~1\AppData\Local\Temp\cchaIJlx.s:29216  .debug_str:0000000000025b11 .LASF5235
C:\Users\CYMR90~1\AppData\Local\Temp\cchaIJlx.s:20071  .debug_str:000000000000114d .LASF5236
C:\Users\CYMR90~1\AppData\Local\Temp\cchaIJlx.s:25377  .debug_str:000000000001638c .LASF5237
C:\Users\CYMR90~1\AppData\Local\Temp\cchaIJlx.s:24929  .debug_str:00000000000147c6 .LASF5238
C:\Users\CYMR90~1\AppData\Local\Temp\cchaIJlx.s:29700  .debug_str:0000000000027956 .LASF5239
C:\Users\CYMR90~1\AppData\Local\Temp\cchaIJlx.s:23433  .debug_str:000000000000e7f0 .LASF5240
C:\Users\CYMR90~1\AppData\Local\Temp\cchaIJlx.s:25918  .debug_str:000000000001874b .LASF5241
C:\Users\CYMR90~1\AppData\Local\Temp\cchaIJlx.s:27374  .debug_str:000000000001e763 .LASF5242
C:\Users\CYMR90~1\AppData\Local\Temp\cchaIJlx.s:24165  .debug_str:000000000001157a .LASF5243
C:\Users\CYMR90~1\AppData\Local\Temp\cchaIJlx.s:27674  .debug_str:000000000001f91e .LASF5244
C:\Users\CYMR90~1\AppData\Local\Temp\cchaIJlx.s:21053  .debug_str:0000000000004f76 .LASF5245
C:\Users\CYMR90~1\AppData\Local\Temp\cchaIJlx.s:24703  .debug_str:00000000000139ce .LASF5246
C:\Users\CYMR90~1\AppData\Local\Temp\cchaIJlx.s:27716  .debug_str:000000000001fba5 .LASF5247
C:\Users\CYMR90~1\AppData\Local\Temp\cchaIJlx.s:23289  .debug_str:000000000000def3 .LASF5248
C:\Users\CYMR90~1\AppData\Local\Temp\cchaIJlx.s:26946  .debug_str:000000000001cb72 .LASF5249
C:\Users\CYMR90~1\AppData\Local\Temp\cchaIJlx.s:23413  .debug_str:000000000000e6aa .LASF5250
C:\Users\CYMR90~1\AppData\Local\Temp\cchaIJlx.s:30112  .debug_str:0000000000029560 .LASF5251
C:\Users\CYMR90~1\AppData\Local\Temp\cchaIJlx.s:30870  .debug_str:000000000002c4c8 .LASF5252
C:\Users\CYMR90~1\AppData\Local\Temp\cchaIJlx.s:23443  .debug_str:000000000000e864 .LASF5253
C:\Users\CYMR90~1\AppData\Local\Temp\cchaIJlx.s:20149  .debug_str:00000000000015a1 .LASF5254
C:\Users\CYMR90~1\AppData\Local\Temp\cchaIJlx.s:28868  .debug_str:00000000000242ce .LASF5255
C:\Users\CYMR90~1\AppData\Local\Temp\cchaIJlx.s:29530  .debug_str:0000000000026e3f .LASF5256
C:\Users\CYMR90~1\AppData\Local\Temp\cchaIJlx.s:26444  .debug_str:000000000001abc2 .LASF5257
C:\Users\CYMR90~1\AppData\Local\Temp\cchaIJlx.s:27424  .debug_str:000000000001ea45 .LASF5258
C:\Users\CYMR90~1\AppData\Local\Temp\cchaIJlx.s:20001  .debug_str:0000000000000cc3 .LASF5259
C:\Users\CYMR90~1\AppData\Local\Temp\cchaIJlx.s:28018  .debug_str:0000000000020e06 .LASF5260
C:\Users\CYMR90~1\AppData\Local\Temp\cchaIJlx.s:22917  .debug_str:000000000000c71f .LASF5261
C:\Users\CYMR90~1\AppData\Local\Temp\cchaIJlx.s:25245  .debug_str:0000000000015ae7 .LASF5262
C:\Users\CYMR90~1\AppData\Local\Temp\cchaIJlx.s:23697  .debug_str:000000000000f883 .LASF5263
C:\Users\CYMR90~1\AppData\Local\Temp\cchaIJlx.s:25856  .debug_str:00000000000183b9 .LASF5264
C:\Users\CYMR90~1\AppData\Local\Temp\cchaIJlx.s:30370  .debug_str:000000000002a4e2 .LASF5265
C:\Users\CYMR90~1\AppData\Local\Temp\cchaIJlx.s:24633  .debug_str:00000000000135a2 .LASF5266
C:\Users\CYMR90~1\AppData\Local\Temp\cchaIJlx.s:27604  .debug_str:000000000001f505 .LASF5267
C:\Users\CYMR90~1\AppData\Local\Temp\cchaIJlx.s:21693  .debug_str:0000000000007773 .LASF5268
C:\Users\CYMR90~1\AppData\Local\Temp\cchaIJlx.s:29078  .debug_str:000000000002519d .LASF5269
C:\Users\CYMR90~1\AppData\Local\Temp\cchaIJlx.s:21567  .debug_str:0000000000006f1e .LASF5270
C:\Users\CYMR90~1\AppData\Local\Temp\cchaIJlx.s:29610  .debug_str:000000000002739d .LASF5271
C:\Users\CYMR90~1\AppData\Local\Temp\cchaIJlx.s:30090  .debug_str:00000000000293cc .LASF5272
C:\Users\CYMR90~1\AppData\Local\Temp\cchaIJlx.s:28348  .debug_str:0000000000022263 .LASF5273
C:\Users\CYMR90~1\AppData\Local\Temp\cchaIJlx.s:25155  .debug_str:0000000000015580 .LASF5274
C:\Users\CYMR90~1\AppData\Local\Temp\cchaIJlx.s:22011  .debug_str:0000000000008c71 .LASF5275
C:\Users\CYMR90~1\AppData\Local\Temp\cchaIJlx.s:20615  .debug_str:00000000000032bc .LASF5276
C:\Users\CYMR90~1\AppData\Local\Temp\cchaIJlx.s:30780  .debug_str:000000000002bee5 .LASF5277
C:\Users\CYMR90~1\AppData\Local\Temp\cchaIJlx.s:22191  .debug_str:000000000000976b .LASF5278
C:\Users\CYMR90~1\AppData\Local\Temp\cchaIJlx.s:22015  .debug_str:0000000000008c98 .LASF5279
C:\Users\CYMR90~1\AppData\Local\Temp\cchaIJlx.s:30278  .debug_str:0000000000029f3b .LASF5280
C:\Users\CYMR90~1\AppData\Local\Temp\cchaIJlx.s:23535  .debug_str:000000000000ee14 .LASF5281
C:\Users\CYMR90~1\AppData\Local\Temp\cchaIJlx.s:29980  .debug_str:0000000000028c95 .LASF5282
C:\Users\CYMR90~1\AppData\Local\Temp\cchaIJlx.s:22127  .debug_str:0000000000009370 .LASF5283
C:\Users\CYMR90~1\AppData\Local\Temp\cchaIJlx.s:30670  .debug_str:000000000002b782 .LASF5284
C:\Users\CYMR90~1\AppData\Local\Temp\cchaIJlx.s:28172  .debug_str:000000000002179d .LASF5285
C:\Users\CYMR90~1\AppData\Local\Temp\cchaIJlx.s:23679  .debug_str:000000000000f782 .LASF5286
C:\Users\CYMR90~1\AppData\Local\Temp\cchaIJlx.s:20893  .debug_str:00000000000044fd .LASF5287
C:\Users\CYMR90~1\AppData\Local\Temp\cchaIJlx.s:26404  .debug_str:000000000001a952 .LASF5288
C:\Users\CYMR90~1\AppData\Local\Temp\cchaIJlx.s:24031  .debug_str:0000000000010d6e .LASF5289
C:\Users\CYMR90~1\AppData\Local\Temp\cchaIJlx.s:23617  .debug_str:000000000000f340 .LASF5290
C:\Users\CYMR90~1\AppData\Local\Temp\cchaIJlx.s:19907  .debug_str:00000000000006c0 .LASF5291
C:\Users\CYMR90~1\AppData\Local\Temp\cchaIJlx.s:19853  .debug_str:00000000000003a7 .LASF5292
C:\Users\CYMR90~1\AppData\Local\Temp\cchaIJlx.s:20203  .debug_str:0000000000001991 .LASF5293
C:\Users\CYMR90~1\AppData\Local\Temp\cchaIJlx.s:28684  .debug_str:00000000000236c8 .LASF5294
C:\Users\CYMR90~1\AppData\Local\Temp\cchaIJlx.s:29330  .debug_str:00000000000261d3 .LASF5295
C:\Users\CYMR90~1\AppData\Local\Temp\cchaIJlx.s:24513  .debug_str:0000000000012d59 .LASF5296
C:\Users\CYMR90~1\AppData\Local\Temp\cchaIJlx.s:26438  .debug_str:000000000001ab83 .LASF5297
C:\Users\CYMR90~1\AppData\Local\Temp\cchaIJlx.s:20489  .debug_str:0000000000002ac0 .LASF5298
C:\Users\CYMR90~1\AppData\Local\Temp\cchaIJlx.s:25251  .debug_str:0000000000015b80 .LASF5299
C:\Users\CYMR90~1\AppData\Local\Temp\cchaIJlx.s:27802  .debug_str:0000000000020102 .LASF5300
C:\Users\CYMR90~1\AppData\Local\Temp\cchaIJlx.s:27136  .debug_str:000000000001d90a .LASF5301
C:\Users\CYMR90~1\AppData\Local\Temp\cchaIJlx.s:21921  .debug_str:00000000000086fc .LASF5302
C:\Users\CYMR90~1\AppData\Local\Temp\cchaIJlx.s:28492  .debug_str:0000000000022b15 .LASF5303
C:\Users\CYMR90~1\AppData\Local\Temp\cchaIJlx.s:27782  .debug_str:000000000001fff2 .LASF5304
C:\Users\CYMR90~1\AppData\Local\Temp\cchaIJlx.s:20951  .debug_str:0000000000004962 .LASF5305
C:\Users\CYMR90~1\AppData\Local\Temp\cchaIJlx.s:21383  .debug_str:00000000000063c2 .LASF5306
C:\Users\CYMR90~1\AppData\Local\Temp\cchaIJlx.s:28448  .debug_str:000000000002283e .LASF5307
C:\Users\CYMR90~1\AppData\Local\Temp\cchaIJlx.s:30164  .debug_str:000000000002986b .LASF5308
C:\Users\CYMR90~1\AppData\Local\Temp\cchaIJlx.s:26030  .debug_str:0000000000018f46 .LASF5309
C:\Users\CYMR90~1\AppData\Local\Temp\cchaIJlx.s:22823  .debug_str:000000000000c104 .LASF5310
C:\Users\CYMR90~1\AppData\Local\Temp\cchaIJlx.s:24033  .debug_str:0000000000010d86 .LASF5311
C:\Users\CYMR90~1\AppData\Local\Temp\cchaIJlx.s:22645  .debug_str:000000000000b516 .LASF5312
C:\Users\CYMR90~1\AppData\Local\Temp\cchaIJlx.s:27890  .debug_str:00000000000206a9 .LASF5313
C:\Users\CYMR90~1\AppData\Local\Temp\cchaIJlx.s:24709  .debug_str:0000000000013a2c .LASF5314
C:\Users\CYMR90~1\AppData\Local\Temp\cchaIJlx.s:30116  .debug_str:00000000000295b6 .LASF5315
C:\Users\CYMR90~1\AppData\Local\Temp\cchaIJlx.s:23855  .debug_str:000000000001026d .LASF5316
C:\Users\CYMR90~1\AppData\Local\Temp\cchaIJlx.s:23077  .debug_str:000000000000d1fb .LASF5317
C:\Users\CYMR90~1\AppData\Local\Temp\cchaIJlx.s:27514  .debug_str:000000000001efb6 .LASF5318
C:\Users\CYMR90~1\AppData\Local\Temp\cchaIJlx.s:30694  .debug_str:000000000002b90d .LASF5319
C:\Users\CYMR90~1\AppData\Local\Temp\cchaIJlx.s:28472  .debug_str:0000000000022a0d .LASF5320
C:\Users\CYMR90~1\AppData\Local\Temp\cchaIJlx.s:28612  .debug_str:00000000000231eb .LASF5321
C:\Users\CYMR90~1\AppData\Local\Temp\cchaIJlx.s:22621  .debug_str:000000000000b2fb .LASF5322
C:\Users\CYMR90~1\AppData\Local\Temp\cchaIJlx.s:28736  .debug_str:00000000000239a2 .LASF5323
C:\Users\CYMR90~1\AppData\Local\Temp\cchaIJlx.s:28352  .debug_str:0000000000022294 .LASF5324
C:\Users\CYMR90~1\AppData\Local\Temp\cchaIJlx.s:27204  .debug_str:000000000001dcd8 .LASF5325
C:\Users\CYMR90~1\AppData\Local\Temp\cchaIJlx.s:25816  .debug_str:0000000000018165 .LASF5326
C:\Users\CYMR90~1\AppData\Local\Temp\cchaIJlx.s:28224  .debug_str:0000000000021add .LASF5327
C:\Users\CYMR90~1\AppData\Local\Temp\cchaIJlx.s:27820  .debug_str:00000000000201f2 .LASF5328
C:\Users\CYMR90~1\AppData\Local\Temp\cchaIJlx.s:21767  .debug_str:0000000000007c32 .LASF5329
C:\Users\CYMR90~1\AppData\Local\Temp\cchaIJlx.s:21207  .debug_str:00000000000058fa .LASF5330
C:\Users\CYMR90~1\AppData\Local\Temp\cchaIJlx.s:21519  .debug_str:0000000000006c07 .LASF5331
C:\Users\CYMR90~1\AppData\Local\Temp\cchaIJlx.s:22959  .debug_str:000000000000ca60 .LASF5332
C:\Users\CYMR90~1\AppData\Local\Temp\cchaIJlx.s:24313  .debug_str:000000000001207f .LASF5333
C:\Users\CYMR90~1\AppData\Local\Temp\cchaIJlx.s:22715  .debug_str:000000000000b9b8 .LASF5334
C:\Users\CYMR90~1\AppData\Local\Temp\cchaIJlx.s:29720  .debug_str:0000000000027ae9 .LASF5335
C:\Users\CYMR90~1\AppData\Local\Temp\cchaIJlx.s:29314  .debug_str:00000000000260f9 .LASF5336
C:\Users\CYMR90~1\AppData\Local\Temp\cchaIJlx.s:25065  .debug_str:0000000000015077 .LASF5337
C:\Users\CYMR90~1\AppData\Local\Temp\cchaIJlx.s:27670  .debug_str:000000000001f8f6 .LASF5338
C:\Users\CYMR90~1\AppData\Local\Temp\cchaIJlx.s:24623  .debug_str:0000000000013507 .LASF5339
C:\Users\CYMR90~1\AppData\Local\Temp\cchaIJlx.s:30848  .debug_str:000000000002c39e .LASF5340
C:\Users\CYMR90~1\AppData\Local\Temp\cchaIJlx.s:27176  .debug_str:000000000001db3b .LASF5341
C:\Users\CYMR90~1\AppData\Local\Temp\cchaIJlx.s:27908  .debug_str:0000000000020798 .LASF5342
C:\Users\CYMR90~1\AppData\Local\Temp\cchaIJlx.s:28068  .debug_str:00000000000210d3 .LASF5343
C:\Users\CYMR90~1\AppData\Local\Temp\cchaIJlx.s:23039  .debug_str:000000000000cf33 .LASF5344
C:\Users\CYMR90~1\AppData\Local\Temp\cchaIJlx.s:27124  .debug_str:000000000001d824 .LASF5345
C:\Users\CYMR90~1\AppData\Local\Temp\cchaIJlx.s:25698  .debug_str:0000000000017a64 .LASF5346
C:\Users\CYMR90~1\AppData\Local\Temp\cchaIJlx.s:24869  .debug_str:00000000000143c1 .LASF5347
C:\Users\CYMR90~1\AppData\Local\Temp\cchaIJlx.s:20559  .debug_str:0000000000002efe .LASF5348
C:\Users\CYMR90~1\AppData\Local\Temp\cchaIJlx.s:25073  .debug_str:00000000000150f5 .LASF5349
C:\Users\CYMR90~1\AppData\Local\Temp\cchaIJlx.s:23103  .debug_str:000000000000d40d .LASF5350
C:\Users\CYMR90~1\AppData\Local\Temp\cchaIJlx.s:24737  .debug_str:0000000000013bf3 .LASF5351
C:\Users\CYMR90~1\AppData\Local\Temp\cchaIJlx.s:27006  .debug_str:000000000001d086 .LASF5352
C:\Users\CYMR90~1\AppData\Local\Temp\cchaIJlx.s:22307  .debug_str:0000000000009f07 .LASF5353
C:\Users\CYMR90~1\AppData\Local\Temp\cchaIJlx.s:29058  .debug_str:0000000000024fa9 .LASF5354
C:\Users\CYMR90~1\AppData\Local\Temp\cchaIJlx.s:27036  .debug_str:000000000001d275 .LASF5355
C:\Users\CYMR90~1\AppData\Local\Temp\cchaIJlx.s:30934  .debug_str:000000000002c931 .LASF5356
C:\Users\CYMR90~1\AppData\Local\Temp\cchaIJlx.s:25255  .debug_str:0000000000015ba6 .LASF5357
C:\Users\CYMR90~1\AppData\Local\Temp\cchaIJlx.s:22339  .debug_str:000000000000a0f2 .LASF5358
C:\Users\CYMR90~1\AppData\Local\Temp\cchaIJlx.s:23141  .debug_str:000000000000d652 .LASF5359
C:\Users\CYMR90~1\AppData\Local\Temp\cchaIJlx.s:27792  .debug_str:0000000000020068 .LASF5360
C:\Users\CYMR90~1\AppData\Local\Temp\cchaIJlx.s:29152  .debug_str:000000000002570a .LASF5361
C:\Users\CYMR90~1\AppData\Local\Temp\cchaIJlx.s:22935  .debug_str:000000000000c840 .LASF5362
C:\Users\CYMR90~1\AppData\Local\Temp\cchaIJlx.s:22369  .debug_str:000000000000a2d7 .LASF5363
C:\Users\CYMR90~1\AppData\Local\Temp\cchaIJlx.s:26492  .debug_str:000000000001aee8 .LASF5364
C:\Users\CYMR90~1\AppData\Local\Temp\cchaIJlx.s:23755  .debug_str:000000000000fbf1 .LASF5365
C:\Users\CYMR90~1\AppData\Local\Temp\cchaIJlx.s:25972  .debug_str:0000000000018adb .LASF5366
C:\Users\CYMR90~1\AppData\Local\Temp\cchaIJlx.s:22903  .debug_str:000000000000c5cc .LASF5367
C:\Users\CYMR90~1\AppData\Local\Temp\cchaIJlx.s:23041  .debug_str:000000000000cf4b .LASF5368
C:\Users\CYMR90~1\AppData\Local\Temp\cchaIJlx.s:24117  .debug_str:000000000001123c .LASF5369
C:\Users\CYMR90~1\AppData\Local\Temp\cchaIJlx.s:27170  .debug_str:000000000001dada .LASF5370
C:\Users\CYMR90~1\AppData\Local\Temp\cchaIJlx.s:22095  .debug_str:000000000000919c .LASF5371
C:\Users\CYMR90~1\AppData\Local\Temp\cchaIJlx.s:22163  .debug_str:00000000000095cc .LASF5372
C:\Users\CYMR90~1\AppData\Local\Temp\cchaIJlx.s:27060  .debug_str:000000000001d3e2 .LASF5373
C:\Users\CYMR90~1\AppData\Local\Temp\cchaIJlx.s:25630  .debug_str:00000000000175ca .LASF5374
C:\Users\CYMR90~1\AppData\Local\Temp\cchaIJlx.s:28370  .debug_str:000000000002236e .LASF5375
C:\Users\CYMR90~1\AppData\Local\Temp\cchaIJlx.s:19805  .debug_str:00000000000000a6 .LASF5376
C:\Users\CYMR90~1\AppData\Local\Temp\cchaIJlx.s:27756  .debug_str:000000000001fe76 .LASF5377
C:\Users\CYMR90~1\AppData\Local\Temp\cchaIJlx.s:31008  .debug_str:000000000002cdbd .LASF5378
C:\Users\CYMR90~1\AppData\Local\Temp\cchaIJlx.s:27200  .debug_str:000000000001dc9f .LASF5379
C:\Users\CYMR90~1\AppData\Local\Temp\cchaIJlx.s:21261  .debug_str:0000000000005c14 .LASF5380
C:\Users\CYMR90~1\AppData\Local\Temp\cchaIJlx.s:20423  .debug_str:0000000000002677 .LASF5381
C:\Users\CYMR90~1\AppData\Local\Temp\cchaIJlx.s:27990  .debug_str:0000000000020c82 .LASF5382
C:\Users\CYMR90~1\AppData\Local\Temp\cchaIJlx.s:29844  .debug_str:00000000000283ae .LASF5383
C:\Users\CYMR90~1\AppData\Local\Temp\cchaIJlx.s:19897  .debug_str:00000000000005ea .LASF5384
C:\Users\CYMR90~1\AppData\Local\Temp\cchaIJlx.s:24339  .debug_str:00000000000121ff .LASF5385
C:\Users\CYMR90~1\AppData\Local\Temp\cchaIJlx.s:27256  .debug_str:000000000001e00b .LASF5386
C:\Users\CYMR90~1\AppData\Local\Temp\cchaIJlx.s:24311  .debug_str:0000000000012066 .LASF5387
C:\Users\CYMR90~1\AppData\Local\Temp\cchaIJlx.s:21389  .debug_str:0000000000006424 .LASF5388
C:\Users\CYMR90~1\AppData\Local\Temp\cchaIJlx.s:27494  .debug_str:000000000001ee46 .LASF5389
C:\Users\CYMR90~1\AppData\Local\Temp\cchaIJlx.s:25644  .debug_str:00000000000176cf .LASF5390
C:\Users\CYMR90~1\AppData\Local\Temp\cchaIJlx.s:20153  .debug_str:00000000000015e7 .LASF5391
C:\Users\CYMR90~1\AppData\Local\Temp\cchaIJlx.s:27708  .debug_str:000000000001fb44 .LASF5392
C:\Users\CYMR90~1\AppData\Local\Temp\cchaIJlx.s:20503  .debug_str:0000000000002bb2 .LASF5393
C:\Users\CYMR90~1\AppData\Local\Temp\cchaIJlx.s:28632  .debug_str:0000000000023314 .LASF5394
C:\Users\CYMR90~1\AppData\Local\Temp\cchaIJlx.s:20111  .debug_str:0000000000001365 .LASF5395
C:\Users\CYMR90~1\AppData\Local\Temp\cchaIJlx.s:29476  .debug_str:0000000000026ad1 .LASF5396
C:\Users\CYMR90~1\AppData\Local\Temp\cchaIJlx.s:25309  .debug_str:0000000000015f78 .LASF5397
C:\Users\CYMR90~1\AppData\Local\Temp\cchaIJlx.s:20717  .debug_str:000000000000394a .LASF5398
C:\Users\CYMR90~1\AppData\Local\Temp\cchaIJlx.s:22585  .debug_str:000000000000b110 .LASF5399
C:\Users\CYMR90~1\AppData\Local\Temp\cchaIJlx.s:28784  .debug_str:0000000000023c7c .LASF5400
C:\Users\CYMR90~1\AppData\Local\Temp\cchaIJlx.s:21289  .debug_str:0000000000005dda .LASF5401
C:\Users\CYMR90~1\AppData\Local\Temp\cchaIJlx.s:29620  .debug_str:000000000002742e .LASF5402
C:\Users\CYMR90~1\AppData\Local\Temp\cchaIJlx.s:21863  .debug_str:0000000000008366 .LASF5403
C:\Users\CYMR90~1\AppData\Local\Temp\cchaIJlx.s:30568  .debug_str:000000000002b088 .LASF5404
C:\Users\CYMR90~1\AppData\Local\Temp\cchaIJlx.s:27786  .debug_str:000000000002001d .LASF5405
C:\Users\CYMR90~1\AppData\Local\Temp\cchaIJlx.s:26124  .debug_str:00000000000195a2 .LASF5406
C:\Users\CYMR90~1\AppData\Local\Temp\cchaIJlx.s:20035  .debug_str:0000000000000f2b .LASF5407
C:\Users\CYMR90~1\AppData\Local\Temp\cchaIJlx.s:27618  .debug_str:000000000001f5d4 .LASF5408
C:\Users\CYMR90~1\AppData\Local\Temp\cchaIJlx.s:21235  .debug_str:0000000000005a7d .LASF5409
C:\Users\CYMR90~1\AppData\Local\Temp\cchaIJlx.s:30536  .debug_str:000000000002ae7f .LASF5410
C:\Users\CYMR90~1\AppData\Local\Temp\cchaIJlx.s:25375  .debug_str:000000000001636f .LASF5411
C:\Users\CYMR90~1\AppData\Local\Temp\cchaIJlx.s:25175  .debug_str:00000000000156ae .LASF5412
C:\Users\CYMR90~1\AppData\Local\Temp\cchaIJlx.s:26196  .debug_str:0000000000019abd .LASF5413
C:\Users\CYMR90~1\AppData\Local\Temp\cchaIJlx.s:29376  .debug_str:00000000000264cd .LASF5414
C:\Users\CYMR90~1\AppData\Local\Temp\cchaIJlx.s:28948  .debug_str:0000000000024859 .LASF5415
C:\Users\CYMR90~1\AppData\Local\Temp\cchaIJlx.s:30514  .debug_str:000000000002ad3f .LASF5416
C:\Users\CYMR90~1\AppData\Local\Temp\cchaIJlx.s:20765  .debug_str:0000000000003c54 .LASF5417
C:\Users\CYMR90~1\AppData\Local\Temp\cchaIJlx.s:27416  .debug_str:000000000001e9dc .LASF5418
C:\Users\CYMR90~1\AppData\Local\Temp\cchaIJlx.s:26706  .debug_str:000000000001bc24 .LASF5419
C:\Users\CYMR90~1\AppData\Local\Temp\cchaIJlx.s:24535  .debug_str:0000000000012ed1 .LASF5420
C:\Users\CYMR90~1\AppData\Local\Temp\cchaIJlx.s:30270  .debug_str:0000000000029ecc .LASF5421
C:\Users\CYMR90~1\AppData\Local\Temp\cchaIJlx.s:28198  .debug_str:000000000002192b .LASF5422
C:\Users\CYMR90~1\AppData\Local\Temp\cchaIJlx.s:22185  .debug_str:0000000000009700 .LASF5423
C:\Users\CYMR90~1\AppData\Local\Temp\cchaIJlx.s:30916  .debug_str:000000000002c80a .LASF5424
C:\Users\CYMR90~1\AppData\Local\Temp\cchaIJlx.s:29988  .debug_str:0000000000028ced .LASF5425
C:\Users\CYMR90~1\AppData\Local\Temp\cchaIJlx.s:20603  .debug_str:00000000000031e2 .LASF5426
C:\Users\CYMR90~1\AppData\Local\Temp\cchaIJlx.s:28150  .debug_str:0000000000021665 .LASF5427
C:\Users\CYMR90~1\AppData\Local\Temp\cchaIJlx.s:30882  .debug_str:000000000002c59a .LASF5428
C:\Users\CYMR90~1\AppData\Local\Temp\cchaIJlx.s:27394  .debug_str:000000000001e885 .LASF5429
C:\Users\CYMR90~1\AppData\Local\Temp\cchaIJlx.s:30232  .debug_str:0000000000029c78 .LASF5430
C:\Users\CYMR90~1\AppData\Local\Temp\cchaIJlx.s:25249  .debug_str:0000000000015b60 .LASF5431
C:\Users\CYMR90~1\AppData\Local\Temp\cchaIJlx.s:27330  .debug_str:000000000001e484 .LASF5432
C:\Users\CYMR90~1\AppData\Local\Temp\cchaIJlx.s:23649  .debug_str:000000000000f50b .LASF5433
C:\Users\CYMR90~1\AppData\Local\Temp\cchaIJlx.s:23637  .debug_str:000000000000f45e .LASF5434
C:\Users\CYMR90~1\AppData\Local\Temp\cchaIJlx.s:27688  .debug_str:000000000001fa14 .LASF5435
C:\Users\CYMR90~1\AppData\Local\Temp\cchaIJlx.s:29368  .debug_str:0000000000026453 .LASF5436
C:\Users\CYMR90~1\AppData\Local\Temp\cchaIJlx.s:20187  .debug_str:000000000000189e .LASF5437
C:\Users\CYMR90~1\AppData\Local\Temp\cchaIJlx.s:26372  .debug_str:000000000001a6c9 .LASF5438
C:\Users\CYMR90~1\AppData\Local\Temp\cchaIJlx.s:19989  .debug_str:0000000000000c20 .LASF5439
C:\Users\CYMR90~1\AppData\Local\Temp\cchaIJlx.s:25684  .debug_str:000000000001798c .LASF5440
C:\Users\CYMR90~1\AppData\Local\Temp\cchaIJlx.s:20301  .debug_str:0000000000001f68 .LASF5441
C:\Users\CYMR90~1\AppData\Local\Temp\cchaIJlx.s:20625  .debug_str:000000000000336b .LASF5442
C:\Users\CYMR90~1\AppData\Local\Temp\cchaIJlx.s:23389  .debug_str:000000000000e4f5 .LASF5443
C:\Users\CYMR90~1\AppData\Local\Temp\cchaIJlx.s:24119  .debug_str:000000000001125e .LASF5444
C:\Users\CYMR90~1\AppData\Local\Temp\cchaIJlx.s:22519  .debug_str:000000000000ac1c .LASF5445
C:\Users\CYMR90~1\AppData\Local\Temp\cchaIJlx.s:20815  .debug_str:0000000000003f99 .LASF5446
C:\Users\CYMR90~1\AppData\Local\Temp\cchaIJlx.s:30626  .debug_str:000000000002b45e .LASF5447
C:\Users\CYMR90~1\AppData\Local\Temp\cchaIJlx.s:22347  .debug_str:000000000000a17e .LASF5448
C:\Users\CYMR90~1\AppData\Local\Temp\cchaIJlx.s:27936  .debug_str:0000000000020913 .LASF5449
C:\Users\CYMR90~1\AppData\Local\Temp\cchaIJlx.s:28626  .debug_str:00000000000232be .LASF5450
C:\Users\CYMR90~1\AppData\Local\Temp\cchaIJlx.s:30662  .debug_str:000000000002b6ee .LASF5451
C:\Users\CYMR90~1\AppData\Local\Temp\cchaIJlx.s:20093  .debug_str:0000000000001271 .LASF5452
C:\Users\CYMR90~1\AppData\Local\Temp\cchaIJlx.s:29280  .debug_str:0000000000025f02 .LASF5453
C:\Users\CYMR90~1\AppData\Local\Temp\cchaIJlx.s:28264  .debug_str:0000000000021d68 .LASF5454
C:\Users\CYMR90~1\AppData\Local\Temp\cchaIJlx.s:27202  .debug_str:000000000001dcc1 .LASF5455
C:\Users\CYMR90~1\AppData\Local\Temp\cchaIJlx.s:23817  .debug_str:000000000000ffd9 .LASF5456
C:\Users\CYMR90~1\AppData\Local\Temp\cchaIJlx.s:20271  .debug_str:0000000000001dac .LASF5457
C:\Users\CYMR90~1\AppData\Local\Temp\cchaIJlx.s:26472  .debug_str:000000000001ad70 .LASF5458
C:\Users\CYMR90~1\AppData\Local\Temp\cchaIJlx.s:23263  .debug_str:000000000000dd7e .LASF5459
C:\Users\CYMR90~1\AppData\Local\Temp\cchaIJlx.s:24811  .debug_str:0000000000014058 .LASF5460
C:\Users\CYMR90~1\AppData\Local\Temp\cchaIJlx.s:29854  .debug_str:0000000000028466 .LASF5461
C:\Users\CYMR90~1\AppData\Local\Temp\cchaIJlx.s:30778  .debug_str:000000000002beac .LASF5462
C:\Users\CYMR90~1\AppData\Local\Temp\cchaIJlx.s:23239  .debug_str:000000000000dbf2 .LASF5463
C:\Users\CYMR90~1\AppData\Local\Temp\cchaIJlx.s:23265  .debug_str:000000000000dda8 .LASF5464
C:\Users\CYMR90~1\AppData\Local\Temp\cchaIJlx.s:21781  .debug_str:0000000000007da7 .LASF5465
C:\Users\CYMR90~1\AppData\Local\Temp\cchaIJlx.s:22131  .debug_str:00000000000093b3 .LASF5466
C:\Users\CYMR90~1\AppData\Local\Temp\cchaIJlx.s:30256  .debug_str:0000000000029dca .LASF5467
C:\Users\CYMR90~1\AppData\Local\Temp\cchaIJlx.s:27034  .debug_str:000000000001d252 .LASF5468
C:\Users\CYMR90~1\AppData\Local\Temp\cchaIJlx.s:26600  .debug_str:000000000001b5be .LASF5469
C:\Users\CYMR90~1\AppData\Local\Temp\cchaIJlx.s:23941  .debug_str:0000000000010795 .LASF5470
C:\Users\CYMR90~1\AppData\Local\Temp\cchaIJlx.s:24765  .debug_str:0000000000013d62 .LASF5471
C:\Users\CYMR90~1\AppData\Local\Temp\cchaIJlx.s:30876  .debug_str:000000000002c53b .LASF5472
C:\Users\CYMR90~1\AppData\Local\Temp\cchaIJlx.s:30440  .debug_str:000000000002a8f7 .LASF5473
C:\Users\CYMR90~1\AppData\Local\Temp\cchaIJlx.s:21733  .debug_str:00000000000079ea .LASF5474
C:\Users\CYMR90~1\AppData\Local\Temp\cchaIJlx.s:26630  .debug_str:000000000001b7ad .LASF5475
C:\Users\CYMR90~1\AppData\Local\Temp\cchaIJlx.s:24375  .debug_str:0000000000012447 .LASF5476
C:\Users\CYMR90~1\AppData\Local\Temp\cchaIJlx.s:28822  .debug_str:0000000000023e99 .LASF5477
C:\Users\CYMR90~1\AppData\Local\Temp\cchaIJlx.s:21883  .debug_str:00000000000084dc .LASF5478
C:\Users\CYMR90~1\AppData\Local\Temp\cchaIJlx.s:30968  .debug_str:000000000002cb8c .LASF5479
C:\Users\CYMR90~1\AppData\Local\Temp\cchaIJlx.s:23009  .debug_str:000000000000cd2e .LASF5480
C:\Users\CYMR90~1\AppData\Local\Temp\cchaIJlx.s:23911  .debug_str:00000000000105c7 .LASF5481
C:\Users\CYMR90~1\AppData\Local\Temp\cchaIJlx.s:20903  .debug_str:00000000000045b3 .LASF5482
C:\Users\CYMR90~1\AppData\Local\Temp\cchaIJlx.s:30696  .debug_str:000000000002b925 .LASF5483
C:\Users\CYMR90~1\AppData\Local\Temp\cchaIJlx.s:29136  .debug_str:0000000000025594 .LASF5484
C:\Users\CYMR90~1\AppData\Local\Temp\cchaIJlx.s:21971  .debug_str:0000000000008a1b .LASF5485
C:\Users\CYMR90~1\AppData\Local\Temp\cchaIJlx.s:29590  .debug_str:000000000002727f .LASF5486
C:\Users\CYMR90~1\AppData\Local\Temp\cchaIJlx.s:21917  .debug_str:00000000000086b2 .LASF5487
C:\Users\CYMR90~1\AppData\Local\Temp\cchaIJlx.s:25846  .debug_str:0000000000018333 .LASF5488
C:\Users\CYMR90~1\AppData\Local\Temp\cchaIJlx.s:20973  .debug_str:0000000000004aae .LASF5489
C:\Users\CYMR90~1\AppData\Local\Temp\cchaIJlx.s:30750  .debug_str:000000000002bd0b .LASF5490
C:\Users\CYMR90~1\AppData\Local\Temp\cchaIJlx.s:30972  .debug_str:000000000002cbd6 .LASF5491
C:\Users\CYMR90~1\AppData\Local\Temp\cchaIJlx.s:27986  .debug_str:0000000000020c4d .LASF5492
C:\Users\CYMR90~1\AppData\Local\Temp\cchaIJlx.s:24875  .debug_str:000000000001440d .LASF5493
C:\Users\CYMR90~1\AppData\Local\Temp\cchaIJlx.s:22155  .debug_str:0000000000009555 .LASF5494
C:\Users\CYMR90~1\AppData\Local\Temp\cchaIJlx.s:25534  .debug_str:000000000001704c .LASF5495
C:\Users\CYMR90~1\AppData\Local\Temp\cchaIJlx.s:24727  .debug_str:0000000000013b46 .LASF5496
C:\Users\CYMR90~1\AppData\Local\Temp\cchaIJlx.s:21111  .debug_str:0000000000005314 .LASF5497
C:\Users\CYMR90~1\AppData\Local\Temp\cchaIJlx.s:29442  .debug_str:0000000000026906 .LASF5498
C:\Users\CYMR90~1\AppData\Local\Temp\cchaIJlx.s:29436  .debug_str:00000000000268b4 .LASF5499
C:\Users\CYMR90~1\AppData\Local\Temp\cchaIJlx.s:19865  .debug_str:000000000000043e .LASF5500
C:\Users\CYMR90~1\AppData\Local\Temp\cchaIJlx.s:25235  .debug_str:0000000000015a35 .LASF5501
C:\Users\CYMR90~1\AppData\Local\Temp\cchaIJlx.s:28414  .debug_str:0000000000022646 .LASF5502
C:\Users\CYMR90~1\AppData\Local\Temp\cchaIJlx.s:22421  .debug_str:000000000000a624 .LASF5503
C:\Users\CYMR90~1\AppData\Local\Temp\cchaIJlx.s:23841  .debug_str:00000000000101a0 .LASF5504
C:\Users\CYMR90~1\AppData\Local\Temp\cchaIJlx.s:30172  .debug_str:00000000000298e0 .LASF5505
C:\Users\CYMR90~1\AppData\Local\Temp\cchaIJlx.s:30398  .debug_str:000000000002a687 .LASF5506
C:\Users\CYMR90~1\AppData\Local\Temp\cchaIJlx.s:25724  .debug_str:0000000000017bd8 .LASF5507
C:\Users\CYMR90~1\AppData\Local\Temp\cchaIJlx.s:28928  .debug_str:0000000000024691 .LASF5508
C:\Users\CYMR90~1\AppData\Local\Temp\cchaIJlx.s:23005  .debug_str:000000000000cce3 .LASF5509
C:\Users\CYMR90~1\AppData\Local\Temp\cchaIJlx.s:23025  .debug_str:000000000000ce68 .LASF5510
C:\Users\CYMR90~1\AppData\Local\Temp\cchaIJlx.s:29528  .debug_str:0000000000026e26 .LASF5511
C:\Users\CYMR90~1\AppData\Local\Temp\cchaIJlx.s:25758  .debug_str:0000000000017e09 .LASF5512
C:\Users\CYMR90~1\AppData\Local\Temp\cchaIJlx.s:21351  .debug_str:00000000000061fe .LASF5513
C:\Users\CYMR90~1\AppData\Local\Temp\cchaIJlx.s:21287  .debug_str:0000000000005dbf .LASF5514
C:\Users\CYMR90~1\AppData\Local\Temp\cchaIJlx.s:21307  .debug_str:0000000000005ed4 .LASF5515
C:\Users\CYMR90~1\AppData\Local\Temp\cchaIJlx.s:20771  .debug_str:0000000000003cd1 .LASF5516
C:\Users\CYMR90~1\AppData\Local\Temp\cchaIJlx.s:28618  .debug_str:000000000002323a .LASF5517
C:\Users\CYMR90~1\AppData\Local\Temp\cchaIJlx.s:27632  .debug_str:000000000001f684 .LASF5518
C:\Users\CYMR90~1\AppData\Local\Temp\cchaIJlx.s:26146  .debug_str:0000000000019717 .LASF5519
C:\Users\CYMR90~1\AppData\Local\Temp\cchaIJlx.s:26096  .debug_str:000000000001941c .LASF5520
C:\Users\CYMR90~1\AppData\Local\Temp\cchaIJlx.s:28844  .debug_str:0000000000024116 .LASF5521
C:\Users\CYMR90~1\AppData\Local\Temp\cchaIJlx.s:23673  .debug_str:000000000000f70f .LASF5522
C:\Users\CYMR90~1\AppData\Local\Temp\cchaIJlx.s:27420  .debug_str:000000000001ea0f .LASF5523
C:\Users\CYMR90~1\AppData\Local\Temp\cchaIJlx.s:24213  .debug_str:00000000000119a6 .LASF5524
C:\Users\CYMR90~1\AppData\Local\Temp\cchaIJlx.s:28094  .debug_str:000000000002130a .LASF5525
C:\Users\CYMR90~1\AppData\Local\Temp\cchaIJlx.s:28500  .debug_str:0000000000022b97 .LASF5526
C:\Users\CYMR90~1\AppData\Local\Temp\cchaIJlx.s:23569  .debug_str:000000000000efff .LASF5527
C:\Users\CYMR90~1\AppData\Local\Temp\cchaIJlx.s:24309  .debug_str:000000000001202b .LASF5528
C:\Users\CYMR90~1\AppData\Local\Temp\cchaIJlx.s:26286  .debug_str:000000000001a010 .LASF5529
C:\Users\CYMR90~1\AppData\Local\Temp\cchaIJlx.s:21605  .debug_str:00000000000071b9 .LASF5530
C:\Users\CYMR90~1\AppData\Local\Temp\cchaIJlx.s:27134  .debug_str:000000000001d8eb .LASF5531
C:\Users\CYMR90~1\AppData\Local\Temp\cchaIJlx.s:29768  .debug_str:0000000000027e28 .LASF5532
C:\Users\CYMR90~1\AppData\Local\Temp\cchaIJlx.s:28776  .debug_str:0000000000023be8 .LASF5533
C:\Users\CYMR90~1\AppData\Local\Temp\cchaIJlx.s:24615  .debug_str:0000000000013462 .LASF5534
C:\Users\CYMR90~1\AppData\Local\Temp\cchaIJlx.s:26564  .debug_str:000000000001b3ac .LASF5535
C:\Users\CYMR90~1\AppData\Local\Temp\cchaIJlx.s:24957  .debug_str:000000000001493e .LASF5536
C:\Users\CYMR90~1\AppData\Local\Temp\cchaIJlx.s:19903  .debug_str:0000000000000665 .LASF5537
C:\Users\CYMR90~1\AppData\Local\Temp\cchaIJlx.s:27286  .debug_str:000000000001e1ce .LASF5538
C:\Users\CYMR90~1\AppData\Local\Temp\cchaIJlx.s:21269  .debug_str:0000000000005cb7 .LASF5539
C:\Users\CYMR90~1\AppData\Local\Temp\cchaIJlx.s:20631  .debug_str:00000000000033d2 .LASF5540
C:\Users\CYMR90~1\AppData\Local\Temp\cchaIJlx.s:22581  .debug_str:000000000000b0cc .LASF5541
C:\Users\CYMR90~1\AppData\Local\Temp\cchaIJlx.s:27074  .debug_str:000000000001d4b9 .LASF5542
C:\Users\CYMR90~1\AppData\Local\Temp\cchaIJlx.s:26698  .debug_str:000000000001bb97 .LASF5543
C:\Users\CYMR90~1\AppData\Local\Temp\cchaIJlx.s:21079  .debug_str:0000000000005110 .LASF5544
C:\Users\CYMR90~1\AppData\Local\Temp\cchaIJlx.s:29428  .debug_str:000000000002681b .LASF5545
C:\Users\CYMR90~1\AppData\Local\Temp\cchaIJlx.s:20459  .debug_str:0000000000002904 .LASF5546
C:\Users\CYMR90~1\AppData\Local\Temp\cchaIJlx.s:25592  .debug_str:0000000000017399 .LASF5547
C:\Users\CYMR90~1\AppData\Local\Temp\cchaIJlx.s:22459  .debug_str:000000000000a86b .LASF5548
C:\Users\CYMR90~1\AppData\Local\Temp\cchaIJlx.s:22103  .debug_str:0000000000009216 .LASF5549
C:\Users\CYMR90~1\AppData\Local\Temp\cchaIJlx.s:27896  .debug_str:00000000000206f9 .LASF5550
C:\Users\CYMR90~1\AppData\Local\Temp\cchaIJlx.s:24745  .debug_str:0000000000013c57 .LASF5551
C:\Users\CYMR90~1\AppData\Local\Temp\cchaIJlx.s:20437  .debug_str:0000000000002775 .LASF5552
C:\Users\CYMR90~1\AppData\Local\Temp\cchaIJlx.s:20061  .debug_str:0000000000001075 .LASF5553
C:\Users\CYMR90~1\AppData\Local\Temp\cchaIJlx.s:25365  .debug_str:00000000000162f6 .LASF5554
C:\Users\CYMR90~1\AppData\Local\Temp\cchaIJlx.s:24141  .debug_str:00000000000113ee .LASF5555
                           .group:0000000000000000 wm4.0.10abbef32179bc1260444192115bdf5e
                           .group:0000000000000000 wm4.stddef.h.39.144cf5ddcd53cbfdac30259dc1a6c87f
                           .group:0000000000000000 wm4._newlib_version.h.4.bfdf54b0af045d4a71376ae00f63a22c
                           .group:0000000000000000 wm4.newlib.h.18.08a2ecba46890ca2aa56bbe21686e6c3
                           .group:0000000000000000 wm4.ieeefp.h.202.4f2759f5758fd82153cfbf98692f2ced
                           .group:0000000000000000 wm4.features.h.22.fad1cec3bc7ff06488171438dbdcfd02
                           .group:0000000000000000 wm4.config.h.83.13bbc8852bfac55b724c9822481355b5
                           .group:0000000000000000 wm4._ansi.h.31.de524f58584151836e90d8620a16f8e8
                           .group:0000000000000000 wm4.stdio.h.31.7c0e28c411445f3f9c5b11accf882760
                           .group:0000000000000000 wm4._default_types.h.6.959254cf5f09734ea7516c89e8bb21bd
                           .group:0000000000000000 wm4.stddef.h.155.ba788add86a0e365f264484f110c3c29
                           .group:0000000000000000 wm4.cdefs.h.49.39045112216f6a021dbdffe3bf5accce
                           .group:0000000000000000 wm4.stdarg.h.34.3a23a216c0c293b3d2ea2e89281481e6
                           .group:0000000000000000 wm4._types.h.20.dd0d04dca3800a0d2a6129b87f3adbb2
                           .group:0000000000000000 wm4.stddef.h.155.3588ebfdd1e8c7ede80509bb9c3b8009
                           .group:0000000000000000 wm4._types.h.127.34941de1b2539d59d5cac00e0dd27a45
                           .group:0000000000000000 wm4.reent.h.17.e292bf8b0bec6c96e131a54347145a30
                           .group:0000000000000000 wm4.lock.h.2.c0958401bd0ce484d507ee19aacab817
                           .group:0000000000000000 wm4.reent.h.77.dcd6129ff07fe81bd5636db29abe53b2
                           .group:0000000000000000 wm4.types.h.40.8b6acba56cefbb11746718204edc8f5e
                           .group:0000000000000000 wm4._stdint.h.10.c24fa3af3bc1706662bb5593a907e841
                           .group:0000000000000000 wm4._endian.h.18.1bf9649e8e5bbc91042012680270b9ed
                           .group:0000000000000000 wm4.endian.h.9.49f3a4695c1b61e8a0808de3c4a106cb
                           .group:0000000000000000 wm4._timeval.h.32.bec3221fa7a9bb0bdde696c9c57e47d2
                           .group:0000000000000000 wm4.timespec.h.41.d855182eb0e690443ab8651bcedca6e1
                           .group:0000000000000000 wm4.select.h.19.40cd3f2bfc456b193b790c2754690ebf
                           .group:0000000000000000 wm4.types.h.51.5571ec98f267d17d3c670b7a3ba33afa
                           .group:0000000000000000 wm4.sched.h.22.c60982713a5c428609783c78f9c78d95
                           .group:0000000000000000 wm4._pthreadtypes.h.36.fcee9961c35163dde6267ef772ad1972
                           .group:0000000000000000 wm4.stdio.h.2.4aa87247282eca6c8f36f9de33d8df1a
                           .group:0000000000000000 wm4.stdio.h.81.932d0c162786b883f622b8d05c120c78
                           .group:0000000000000000 wm4.gd32vw55x.h.47.379378190858578060a317909b2c8d8a
                           .group:0000000000000000 wm4._intsup.h.10.48bafbb683905c4daa4565a85aeeb264
                           .group:0000000000000000 wm4.stdint.h.23.d53047a68f4a85177f80b422d52785ed
                           .group:0000000000000000 wm4.nmsis_version.h.19.ffa173da8efb17b1050904994d6f500e
                           .group:0000000000000000 wm4.riscv_bits.h.19.ee94eb3d39937793d4cd0a62363e5d00
                           .group:0000000000000000 wm4.riscv_encoding.h.35.f5d37fad7abbab8278b4bb6f1e32fa65
                           .group:0000000000000000 wm4.nmsis_gcc.h.61.5d70d7598ffc79c3c991d847a574cf23
                           .group:0000000000000000 wm4.core_feature_base.h.20.e99d3e75c26a8f3341d35bf20d0e1d20
                           .group:0000000000000000 wm4.core_feature_fpu.h.19.695f2200274659b530cb97cda749ff4f
                           .group:0000000000000000 wm4.core_feature_dsp.h.19.e8f8d7aa42f197807aefedb6584486cd
                           .group:0000000000000000 wm4.core_compatiable.h.19.5b8282d61b1f6889a82895616b730084
                           .group:0000000000000000 wm4.core_feature_eclic.h.19.e0c091d0cbda79e8b3b031b979ebd5a1
                           .group:0000000000000000 wm4.core_feature_timer.h.19.21a5151282de34c37dfa6d84e262aa54
                           .group:0000000000000000 wm4.system_gd32vw55x.h.32.f1fcb1212d387c35ac955b0e96ada468
                           .group:0000000000000000 wm4.gd32vw55x.h.231.3529c650aff38c9372f7e03177fd2c8a
                           .group:0000000000000000 wm4.gd32vw55x_adc.h.42.ae73acec1704ef509ccecb41a875b50e
                           .group:0000000000000000 wm4.gd32vw55x_crc.h.37.c58f296814c2300a4b067c08bd88d54e
                           .group:0000000000000000 wm4.gd32vw55x_dbg.h.36.311650c8545549d482ceca8befc5a232
                           .group:0000000000000000 wm4.gd32vw55x_dma.h.36.f4adc751172b2a7b1533dda72e948737
                           .group:0000000000000000 wm4.gd32vw55x_eclic.h.36.0411499f2b2493c67246e32ccae096c1
                           .group:0000000000000000 wm4.gd32vw55x_efuse.h.36.091404cecbab70359dfd93faec5fdb62
                           .group:0000000000000000 wm4.gd32vw55x_exti.h.36.de7508334dd12f1a6a673521a1a835f5
                           .group:0000000000000000 wm4.gd32vw55x_fmc.h.36.a4b0b94c47ffe23a2fa09260c5ed4850
                           .group:0000000000000000 wm4.gd32vw55x_fwdgt.h.36.4846b6900fd24b5bfce4986c9a8ce677
                           .group:0000000000000000 wm4.gd32vw55x_gpio.h.36.adfee1371bb58d3d9043c47bdb25a90f
                           .group:0000000000000000 wm4.gd32vw55x_hau.h.36.f3cbcbd7b67c9e5bdc7a1100b1bf3458
                           .group:0000000000000000 wm4.gd32vw55x_i2c.h.36.3848990933925e084eb427083790c53f
                           .group:0000000000000000 wm4.gd32vw55x_pkcau.h.36.bb2235f4cf4967063a51bfa9aca5ef27
                           .group:0000000000000000 wm4.gd32vw55x_pmu.h.36.4c76091f1415551526d489ccf2c42052
                           .group:0000000000000000 wm4.gd32vw55x_qspi.h.36.2d2c181cfe19b935a9641008fc786613
                           .group:0000000000000000 wm4.gd32vw55x_rcu.h.36.780a8a45c00d563711cceb445027ef47
                           .group:0000000000000000 wm4.gd32vw55x_rtc.h.36.3172855e8715659e080e0eab46fdf175
                           .group:0000000000000000 wm4.gd32vw55x_spi.h.36.9fa1be2b09fb73e4b5886e97f0e96d58
                           .group:0000000000000000 wm4.gd32vw55x_syscfg.h.36.010551f05591f5e34051d2e15df0352b
                           .group:0000000000000000 wm4.gd32vw55x_timer.h.38.2cbee78ea60d47145be361b2d2c55070
                           .group:0000000000000000 wm4.gd32vw55x_trng.h.36.c9e7807af1b1ab68d3bbb54f4ed5cd73
                           .group:0000000000000000 wm4.gd32vw55x_usart.h.36.f5c497cca17945a34f154b0e17017d02
                           .group:0000000000000000 wm4.gd32vw55x_wwdgt.h.36.f7a443b7302efc0e5c335888582ee197
                           .group:0000000000000000 wm4.gd32vw55x_cau.h.41.50579844007a51268a8149adfbc49583

UNDEFINED SYMBOLS
cau_key_struct_para_init
cau_init
cau_key_init
cau_fifo_flush
cau_enable
cau_disable
cau_iv_init
cau_enable_state_get
cau_data_write
cau_flag_get
cau_data_read
