   1              		.file	"gd32vw55x_usart.c"
   2              		.option nopic
   3              		.attribute arch, "rv32i2p0_m2p0_a2p0_c2p0"
   4              		.attribute unaligned_access, 0
   5              		.attribute stack_align, 16
   6              		.text
   7              	.Ltext0:
   8              		.cfi_sections	.debug_frame
   9              		.section	.text.usart_deinit,"ax",@progbits
  10              		.align	1
  11              		.globl	usart_deinit
  13              	usart_deinit:
  14              	.LFB347:
  15              		.file 1 "../Firmware/GD32VW55x_standard_peripheral/Source/gd32vw55x_usart.c"
   1:../Firmware/GD32VW55x_standard_peripheral/Source/gd32vw55x_usart.c **** /*!
   2:../Firmware/GD32VW55x_standard_peripheral/Source/gd32vw55x_usart.c ****     \file    gd32vw55x_usart.c
   3:../Firmware/GD32VW55x_standard_peripheral/Source/gd32vw55x_usart.c ****     \brief   USART driver
   4:../Firmware/GD32VW55x_standard_peripheral/Source/gd32vw55x_usart.c **** 
   5:../Firmware/GD32VW55x_standard_peripheral/Source/gd32vw55x_usart.c ****     \version 2025-01-16, V1.4.0, firmware for GD32VW55x
   6:../Firmware/GD32VW55x_standard_peripheral/Source/gd32vw55x_usart.c **** */
   7:../Firmware/GD32VW55x_standard_peripheral/Source/gd32vw55x_usart.c **** 
   8:../Firmware/GD32VW55x_standard_peripheral/Source/gd32vw55x_usart.c **** /*
   9:../Firmware/GD32VW55x_standard_peripheral/Source/gd32vw55x_usart.c ****     Copyright (c) 2025, GigaDevice Semiconductor Inc.
  10:../Firmware/GD32VW55x_standard_peripheral/Source/gd32vw55x_usart.c **** 
  11:../Firmware/GD32VW55x_standard_peripheral/Source/gd32vw55x_usart.c ****     Redistribution and use in source and binary forms, with or without modification,
  12:../Firmware/GD32VW55x_standard_peripheral/Source/gd32vw55x_usart.c **** are permitted provided that the following conditions are met:
  13:../Firmware/GD32VW55x_standard_peripheral/Source/gd32vw55x_usart.c **** 
  14:../Firmware/GD32VW55x_standard_peripheral/Source/gd32vw55x_usart.c ****     1. Redistributions of source code must retain the above copyright notice, this
  15:../Firmware/GD32VW55x_standard_peripheral/Source/gd32vw55x_usart.c ****        list of conditions and the following disclaimer.
  16:../Firmware/GD32VW55x_standard_peripheral/Source/gd32vw55x_usart.c ****     2. Redistributions in binary form must reproduce the above copyright notice,
  17:../Firmware/GD32VW55x_standard_peripheral/Source/gd32vw55x_usart.c ****        this list of conditions and the following disclaimer in the documentation
  18:../Firmware/GD32VW55x_standard_peripheral/Source/gd32vw55x_usart.c ****        and/or other materials provided with the distribution.
  19:../Firmware/GD32VW55x_standard_peripheral/Source/gd32vw55x_usart.c ****     3. Neither the name of the copyright holder nor the names of its contributors
  20:../Firmware/GD32VW55x_standard_peripheral/Source/gd32vw55x_usart.c ****        may be used to endorse or promote products derived from this software without
  21:../Firmware/GD32VW55x_standard_peripheral/Source/gd32vw55x_usart.c ****        specific prior written permission.
  22:../Firmware/GD32VW55x_standard_peripheral/Source/gd32vw55x_usart.c **** 
  23:../Firmware/GD32VW55x_standard_peripheral/Source/gd32vw55x_usart.c ****     THIS SOFTWARE IS PROVIDED BY THE COPYRIGHT HOLDERS AND CONTRIBUTORS "AS IS"
  24:../Firmware/GD32VW55x_standard_peripheral/Source/gd32vw55x_usart.c **** AND ANY EXPRESS OR IMPLIED WARRANTIES, INCLUDING, BUT NOT LIMITED TO, THE IMPLIED
  25:../Firmware/GD32VW55x_standard_peripheral/Source/gd32vw55x_usart.c **** WARRANTIES OF MERCHANTABILITY AND FITNESS FOR A PARTICULAR PURPOSE ARE DISCLAIMED.
  26:../Firmware/GD32VW55x_standard_peripheral/Source/gd32vw55x_usart.c **** IN NO EVENT SHALL THE COPYRIGHT HOLDER OR CONTRIBUTORS BE LIABLE FOR ANY DIRECT,
  27:../Firmware/GD32VW55x_standard_peripheral/Source/gd32vw55x_usart.c **** INDIRECT, INCIDENTAL, SPECIAL, EXEMPLARY, OR CONSEQUENTIAL DAMAGES (INCLUDING, BUT
  28:../Firmware/GD32VW55x_standard_peripheral/Source/gd32vw55x_usart.c **** NOT LIMITED TO, PROCUREMENT OF SUBSTITUTE GOODS OR SERVICES; LOSS OF USE, DATA, OR
  29:../Firmware/GD32VW55x_standard_peripheral/Source/gd32vw55x_usart.c **** PROFITS; OR BUSINESS INTERRUPTION) HOWEVER CAUSED AND ON ANY THEORY OF LIABILITY,
  30:../Firmware/GD32VW55x_standard_peripheral/Source/gd32vw55x_usart.c **** WHETHER IN CONTRACT, STRICT LIABILITY, OR TORT (INCLUDING NEGLIGENCE OR OTHERWISE)
  31:../Firmware/GD32VW55x_standard_peripheral/Source/gd32vw55x_usart.c **** ARISING IN ANY WAY OUT OF THE USE OF THIS SOFTWARE, EVEN IF ADVISED OF THE POSSIBILITY
  32:../Firmware/GD32VW55x_standard_peripheral/Source/gd32vw55x_usart.c **** OF SUCH DAMAGE.
  33:../Firmware/GD32VW55x_standard_peripheral/Source/gd32vw55x_usart.c **** */
  34:../Firmware/GD32VW55x_standard_peripheral/Source/gd32vw55x_usart.c **** 
  35:../Firmware/GD32VW55x_standard_peripheral/Source/gd32vw55x_usart.c **** #include "gd32vw55x_usart.h"
  36:../Firmware/GD32VW55x_standard_peripheral/Source/gd32vw55x_usart.c **** 
  37:../Firmware/GD32VW55x_standard_peripheral/Source/gd32vw55x_usart.c **** /* USART register bit offset */
  38:../Firmware/GD32VW55x_standard_peripheral/Source/gd32vw55x_usart.c **** #define GP_GUAT_OFFSET            ((uint32_t)8U)       /* bit offset of GUAT in USART_GP */
  39:../Firmware/GD32VW55x_standard_peripheral/Source/gd32vw55x_usart.c **** #define CTL0_DED_OFFSET           ((uint32_t)16U)      /* bit offset of DED in USART_CTL0 */
  40:../Firmware/GD32VW55x_standard_peripheral/Source/gd32vw55x_usart.c **** #define CTL0_DEA_OFFSET           ((uint32_t)21U)      /* bit offset of DEA in USART_CTL0 */
  41:../Firmware/GD32VW55x_standard_peripheral/Source/gd32vw55x_usart.c **** #define CTL1_ADDR_OFFSET          ((uint32_t)24U)      /* bit offset of ADDR in USART_CTL1 */
  42:../Firmware/GD32VW55x_standard_peripheral/Source/gd32vw55x_usart.c **** #define CTL2_SCRTNUM_OFFSET       ((uint32_t)17U)       /* bit offset of SCRTNUM in USART_CTL2 */
  43:../Firmware/GD32VW55x_standard_peripheral/Source/gd32vw55x_usart.c **** #define RT_BL_OFFSET              ((uint32_t)24U)      /* bit offset of BL in USART_RT */
  44:../Firmware/GD32VW55x_standard_peripheral/Source/gd32vw55x_usart.c **** 
  45:../Firmware/GD32VW55x_standard_peripheral/Source/gd32vw55x_usart.c **** /*!
  46:../Firmware/GD32VW55x_standard_peripheral/Source/gd32vw55x_usart.c ****     \brief      reset USART
  47:../Firmware/GD32VW55x_standard_peripheral/Source/gd32vw55x_usart.c ****     \param[in]  usart_periph: USART0/UARTx(x=1,2)
  48:../Firmware/GD32VW55x_standard_peripheral/Source/gd32vw55x_usart.c ****     \param[out] none
  49:../Firmware/GD32VW55x_standard_peripheral/Source/gd32vw55x_usart.c ****     \retval     none
  50:../Firmware/GD32VW55x_standard_peripheral/Source/gd32vw55x_usart.c **** */
  51:../Firmware/GD32VW55x_standard_peripheral/Source/gd32vw55x_usart.c **** void usart_deinit(uint32_t usart_periph)
  52:../Firmware/GD32VW55x_standard_peripheral/Source/gd32vw55x_usart.c **** {
  16              		.loc 1 52 1
  17              		.cfi_startproc
  18 0000 0111     		addi	sp,sp,-32
  19              		.cfi_def_cfa_offset 32
  20 0002 06CE     		sw	ra,28(sp)
  21 0004 22CC     		sw	s0,24(sp)
  22              		.cfi_offset 1, -4
  23              		.cfi_offset 8, -8
  24 0006 0010     		addi	s0,sp,32
  25              		.cfi_def_cfa 8, 0
  26 0008 2326A4FE 		sw	a0,-20(s0)
  53:../Firmware/GD32VW55x_standard_peripheral/Source/gd32vw55x_usart.c ****     switch(usart_periph){
  27              		.loc 1 53 5
  28 000c 0327C4FE 		lw	a4,-20(s0)
  29 0010 B7170140 		li	a5,1073811456
  30 0014 6306F706 		beq	a4,a5,.L2
  31 0018 0327C4FE 		lw	a4,-20(s0)
  32 001c B7170140 		li	a5,1073811456
  33 0020 63EFE706 		bgtu	a4,a5,.L6
  34 0024 0327C4FE 		lw	a4,-20(s0)
  35 0028 B7470040 		li	a5,1073758208
  36 002c 93870740 		addi	a5,a5,1024
  37 0030 6309F702 		beq	a4,a5,.L4
  38 0034 0327C4FE 		lw	a4,-20(s0)
  39 0038 B7570040 		li	a5,1073762304
  40 003c 93870780 		addi	a5,a5,-2048
  41 0040 631FF704 		bne	a4,a5,.L6
  54:../Firmware/GD32VW55x_standard_peripheral/Source/gd32vw55x_usart.c ****     case USART0:
  55:../Firmware/GD32VW55x_standard_peripheral/Source/gd32vw55x_usart.c ****         /* reset USART0 */
  56:../Firmware/GD32VW55x_standard_peripheral/Source/gd32vw55x_usart.c ****         rcu_periph_reset_enable(RCU_USART0RST);
  42              		.loc 1 56 9
  43 0044 8567     		li	a5,4096
  44 0046 13852781 		addi	a0,a5,-2030
  45 004a 97000000 		call	rcu_periph_reset_enable
  45      E7800000 
  57:../Firmware/GD32VW55x_standard_peripheral/Source/gd32vw55x_usart.c ****         rcu_periph_reset_disable(RCU_USART0RST);
  46              		.loc 1 57 9
  47 0052 8567     		li	a5,4096
  48 0054 13852781 		addi	a0,a5,-2030
  49 0058 97000000 		call	rcu_periph_reset_disable
  49      E7800000 
  58:../Firmware/GD32VW55x_standard_peripheral/Source/gd32vw55x_usart.c ****         break;
  50              		.loc 1 58 9
  51 0060 81A0     		j	.L5
  52              	.L4:
  59:../Firmware/GD32VW55x_standard_peripheral/Source/gd32vw55x_usart.c ****     case UART1:
  60:../Firmware/GD32VW55x_standard_peripheral/Source/gd32vw55x_usart.c ****         /* reset UART1 */
  61:../Firmware/GD32VW55x_standard_peripheral/Source/gd32vw55x_usart.c ****         rcu_periph_reset_enable(RCU_UART1RST);
  53              		.loc 1 61 9
  54 0062 8567     		li	a5,4096
  55 0064 13851781 		addi	a0,a5,-2031
  56 0068 97000000 		call	rcu_periph_reset_enable
  56      E7800000 
  62:../Firmware/GD32VW55x_standard_peripheral/Source/gd32vw55x_usart.c ****         rcu_periph_reset_disable(RCU_UART1RST);
  57              		.loc 1 62 9
  58 0070 8567     		li	a5,4096
  59 0072 13851781 		addi	a0,a5,-2031
  60 0076 97000000 		call	rcu_periph_reset_disable
  60      E7800000 
  63:../Firmware/GD32VW55x_standard_peripheral/Source/gd32vw55x_usart.c ****         break;
  61              		.loc 1 63 9
  62 007e 0DA0     		j	.L5
  63              	.L2:
  64:../Firmware/GD32VW55x_standard_peripheral/Source/gd32vw55x_usart.c ****     case UART2:
  65:../Firmware/GD32VW55x_standard_peripheral/Source/gd32vw55x_usart.c ****         /* reset UART2 */
  66:../Firmware/GD32VW55x_standard_peripheral/Source/gd32vw55x_usart.c ****         rcu_periph_reset_enable(RCU_UART2RST);
  64              		.loc 1 66 9
  65 0080 8567     		li	a5,4096
  66 0082 13854790 		addi	a0,a5,-1788
  67 0086 97000000 		call	rcu_periph_reset_enable
  67      E7800000 
  67:../Firmware/GD32VW55x_standard_peripheral/Source/gd32vw55x_usart.c ****         rcu_periph_reset_disable(RCU_UART2RST);
  68              		.loc 1 67 9
  69 008e 8567     		li	a5,4096
  70 0090 13854790 		addi	a0,a5,-1788
  71 0094 97000000 		call	rcu_periph_reset_disable
  71      E7800000 
  68:../Firmware/GD32VW55x_standard_peripheral/Source/gd32vw55x_usart.c ****         break;
  72              		.loc 1 68 9
  73 009c 11A0     		j	.L5
  74              	.L6:
  69:../Firmware/GD32VW55x_standard_peripheral/Source/gd32vw55x_usart.c ****     default:
  70:../Firmware/GD32VW55x_standard_peripheral/Source/gd32vw55x_usart.c ****         break;
  75              		.loc 1 70 9
  76 009e 0100     		nop
  77              	.L5:
  71:../Firmware/GD32VW55x_standard_peripheral/Source/gd32vw55x_usart.c ****     }
  72:../Firmware/GD32VW55x_standard_peripheral/Source/gd32vw55x_usart.c **** }
  78              		.loc 1 72 1
  79 00a0 0100     		nop
  80 00a2 F240     		lw	ra,28(sp)
  81              		.cfi_restore 1
  82 00a4 6244     		lw	s0,24(sp)
  83              		.cfi_restore 8
  84              		.cfi_def_cfa 2, 32
  85 00a6 0561     		addi	sp,sp,32
  86              		.cfi_def_cfa_offset 0
  87 00a8 8280     		jr	ra
  88              		.cfi_endproc
  89              	.LFE347:
  91              		.section	.text.usart_baudrate_set,"ax",@progbits
  92              		.align	1
  93              		.globl	usart_baudrate_set
  95              	usart_baudrate_set:
  96              	.LFB348:
  73:../Firmware/GD32VW55x_standard_peripheral/Source/gd32vw55x_usart.c **** 
  74:../Firmware/GD32VW55x_standard_peripheral/Source/gd32vw55x_usart.c **** /*!
  75:../Firmware/GD32VW55x_standard_peripheral/Source/gd32vw55x_usart.c ****     \brief      configure USART baud rate value
  76:../Firmware/GD32VW55x_standard_peripheral/Source/gd32vw55x_usart.c ****     \param[in]  usart_periph: USART0/UARTx(x=1,2)
  77:../Firmware/GD32VW55x_standard_peripheral/Source/gd32vw55x_usart.c ****     \param[in]  baudval: baud rate value
  78:../Firmware/GD32VW55x_standard_peripheral/Source/gd32vw55x_usart.c ****     \param[out] none
  79:../Firmware/GD32VW55x_standard_peripheral/Source/gd32vw55x_usart.c ****     \retval     none
  80:../Firmware/GD32VW55x_standard_peripheral/Source/gd32vw55x_usart.c **** */
  81:../Firmware/GD32VW55x_standard_peripheral/Source/gd32vw55x_usart.c **** void usart_baudrate_set(uint32_t usart_periph, uint32_t baudval)
  82:../Firmware/GD32VW55x_standard_peripheral/Source/gd32vw55x_usart.c **** {
  97              		.loc 1 82 1
  98              		.cfi_startproc
  99 0000 7971     		addi	sp,sp,-48
 100              		.cfi_def_cfa_offset 48
 101 0002 06D6     		sw	ra,44(sp)
 102 0004 22D4     		sw	s0,40(sp)
 103              		.cfi_offset 1, -4
 104              		.cfi_offset 8, -8
 105 0006 0018     		addi	s0,sp,48
 106              		.cfi_def_cfa 8, 0
 107 0008 232EA4FC 		sw	a0,-36(s0)
 108 000c 232CB4FC 		sw	a1,-40(s0)
  83:../Firmware/GD32VW55x_standard_peripheral/Source/gd32vw55x_usart.c ****     uint32_t uclk = 0U, intdiv = 0U, fradiv = 0U, udiv = 0U;
 109              		.loc 1 83 14
 110 0010 232604FE 		sw	zero,-20(s0)
 111              		.loc 1 83 25
 112 0014 232404FE 		sw	zero,-24(s0)
 113              		.loc 1 83 38
 114 0018 232204FE 		sw	zero,-28(s0)
 115              		.loc 1 83 51
 116 001c 232004FE 		sw	zero,-32(s0)
  84:../Firmware/GD32VW55x_standard_peripheral/Source/gd32vw55x_usart.c ****     switch(usart_periph){
 117              		.loc 1 84 5
 118 0020 0327C4FD 		lw	a4,-36(s0)
 119 0024 B7170140 		li	a5,1073811456
 120 0028 6308F704 		beq	a4,a5,.L8
 121 002c 0327C4FD 		lw	a4,-36(s0)
 122 0030 B7170140 		li	a5,1073811456
 123 0034 63EAE704 		bgtu	a4,a5,.L14
 124 0038 0327C4FD 		lw	a4,-36(s0)
 125 003c B7470040 		li	a5,1073758208
 126 0040 93870740 		addi	a5,a5,1024
 127 0044 6302F702 		beq	a4,a5,.L10
 128 0048 0327C4FD 		lw	a4,-36(s0)
 129 004c B7570040 		li	a5,1073762304
 130 0050 93870780 		addi	a5,a5,-2048
 131 0054 631AF702 		bne	a4,a5,.L14
  85:../Firmware/GD32VW55x_standard_peripheral/Source/gd32vw55x_usart.c ****          /* get clock frequency */
  86:../Firmware/GD32VW55x_standard_peripheral/Source/gd32vw55x_usart.c ****     case USART0:
  87:../Firmware/GD32VW55x_standard_peripheral/Source/gd32vw55x_usart.c ****          /* get USART0 clock */
  88:../Firmware/GD32VW55x_standard_peripheral/Source/gd32vw55x_usart.c ****          uclk = rcu_clock_freq_get(CK_USART0);
 132              		.loc 1 88 17
 133 0058 1145     		li	a0,4
 134 005a 97000000 		call	rcu_clock_freq_get
 134      E7800000 
 135 0062 2326A4FE 		sw	a0,-20(s0)
  89:../Firmware/GD32VW55x_standard_peripheral/Source/gd32vw55x_usart.c ****          break;
 136              		.loc 1 89 10
 137 0066 15A0     		j	.L11
 138              	.L10:
  90:../Firmware/GD32VW55x_standard_peripheral/Source/gd32vw55x_usart.c ****     case UART1:
  91:../Firmware/GD32VW55x_standard_peripheral/Source/gd32vw55x_usart.c ****          /* get UART1 clock */
  92:../Firmware/GD32VW55x_standard_peripheral/Source/gd32vw55x_usart.c ****          uclk = rcu_clock_freq_get(CK_APB1);
 139              		.loc 1 92 17
 140 0068 0945     		li	a0,2
 141 006a 97000000 		call	rcu_clock_freq_get
 141      E7800000 
 142 0072 2326A4FE 		sw	a0,-20(s0)
  93:../Firmware/GD32VW55x_standard_peripheral/Source/gd32vw55x_usart.c ****          break;
 143              		.loc 1 93 10
 144 0076 11A8     		j	.L11
 145              	.L8:
  94:../Firmware/GD32VW55x_standard_peripheral/Source/gd32vw55x_usart.c ****     case UART2:
  95:../Firmware/GD32VW55x_standard_peripheral/Source/gd32vw55x_usart.c ****          /* get UART2 clock */
  96:../Firmware/GD32VW55x_standard_peripheral/Source/gd32vw55x_usart.c ****          uclk = rcu_clock_freq_get(CK_APB2);
 146              		.loc 1 96 17
 147 0078 0D45     		li	a0,3
 148 007a 97000000 		call	rcu_clock_freq_get
 148      E7800000 
 149 0082 2326A4FE 		sw	a0,-20(s0)
  97:../Firmware/GD32VW55x_standard_peripheral/Source/gd32vw55x_usart.c ****          break;
 150              		.loc 1 97 10
 151 0086 11A0     		j	.L11
 152              	.L14:
  98:../Firmware/GD32VW55x_standard_peripheral/Source/gd32vw55x_usart.c ****     default:
  99:../Firmware/GD32VW55x_standard_peripheral/Source/gd32vw55x_usart.c ****          break;
 153              		.loc 1 99 10
 154 0088 0100     		nop
 155              	.L11:
 100:../Firmware/GD32VW55x_standard_peripheral/Source/gd32vw55x_usart.c ****     }
 101:../Firmware/GD32VW55x_standard_peripheral/Source/gd32vw55x_usart.c ****     if(USART_CTL0(usart_periph) & USART_CTL0_OVSMOD){
 156              		.loc 1 101 8
 157 008a 8327C4FD 		lw	a5,-36(s0)
 158 008e 9843     		lw	a4,0(a5)
 159              		.loc 1 101 33
 160 0090 A167     		li	a5,32768
 161 0092 F98F     		and	a5,a4,a5
 162              		.loc 1 101 7
 163 0094 B1CB     		beq	a5,zero,.L12
 102:../Firmware/GD32VW55x_standard_peripheral/Source/gd32vw55x_usart.c ****         /* oversampling by 8, configure the value of USART_BAUD */
 103:../Firmware/GD32VW55x_standard_peripheral/Source/gd32vw55x_usart.c ****         udiv = ((2U * uclk) + (baudval / 2U)) / baudval;
 164              		.loc 1 103 21
 165 0096 8327C4FE 		lw	a5,-20(s0)
 166 009a 13971700 		slli	a4,a5,1
 167              		.loc 1 103 40
 168 009e 832784FD 		lw	a5,-40(s0)
 169 00a2 8583     		srli	a5,a5,1
 170              		.loc 1 103 29
 171 00a4 3E97     		add	a4,a4,a5
 172              		.loc 1 103 14
 173 00a6 832784FD 		lw	a5,-40(s0)
 174 00aa B357F702 		divu	a5,a4,a5
 175 00ae 2320F4FE 		sw	a5,-32(s0)
 104:../Firmware/GD32VW55x_standard_peripheral/Source/gd32vw55x_usart.c ****         intdiv = udiv & 0x0000fff0U;
 176              		.loc 1 104 16
 177 00b2 032704FE 		lw	a4,-32(s0)
 178 00b6 C167     		li	a5,65536
 179 00b8 C117     		addi	a5,a5,-16
 180 00ba F98F     		and	a5,a4,a5
 181 00bc 2324F4FE 		sw	a5,-24(s0)
 105:../Firmware/GD32VW55x_standard_peripheral/Source/gd32vw55x_usart.c ****         fradiv = (udiv >> 1U) & 0x00000007U;
 182              		.loc 1 105 24
 183 00c0 832704FE 		lw	a5,-32(s0)
 184 00c4 8583     		srli	a5,a5,1
 185              		.loc 1 105 16
 186 00c6 9D8B     		andi	a5,a5,7
 187 00c8 2322F4FE 		sw	a5,-28(s0)
 106:../Firmware/GD32VW55x_standard_peripheral/Source/gd32vw55x_usart.c ****         USART_BAUD(usart_periph) = ((USART_BAUD_FRADIV | USART_BAUD_INTDIV) & (intdiv | fradiv));
 188              		.loc 1 106 87
 189 00cc 032784FE 		lw	a4,-24(s0)
 190 00d0 832744FE 		lw	a5,-28(s0)
 191 00d4 5D8F     		or	a4,a4,a5
 192              		.loc 1 106 9
 193 00d6 8327C4FD 		lw	a5,-36(s0)
 194 00da B107     		addi	a5,a5,12
 195 00dc BE86     		mv	a3,a5
 196              		.loc 1 106 77
 197 00de C167     		li	a5,65536
 198 00e0 FD17     		addi	a5,a5,-1
 199 00e2 F98F     		and	a5,a4,a5
 200              		.loc 1 106 34
 201 00e4 9CC2     		sw	a5,0(a3)
 107:../Firmware/GD32VW55x_standard_peripheral/Source/gd32vw55x_usart.c ****     }else{
 108:../Firmware/GD32VW55x_standard_peripheral/Source/gd32vw55x_usart.c ****         /* oversampling by 16, configure the value of USART_BAUD */
 109:../Firmware/GD32VW55x_standard_peripheral/Source/gd32vw55x_usart.c ****         udiv = (uclk + (baudval / 2U)) / baudval;
 110:../Firmware/GD32VW55x_standard_peripheral/Source/gd32vw55x_usart.c ****         intdiv = udiv & 0x0000fff0U;
 111:../Firmware/GD32VW55x_standard_peripheral/Source/gd32vw55x_usart.c ****         fradiv = udiv & 0x0000000fU;
 112:../Firmware/GD32VW55x_standard_peripheral/Source/gd32vw55x_usart.c ****         USART_BAUD(usart_periph) = ((USART_BAUD_FRADIV | USART_BAUD_INTDIV) & (intdiv | fradiv));
 113:../Firmware/GD32VW55x_standard_peripheral/Source/gd32vw55x_usart.c ****     }
 114:../Firmware/GD32VW55x_standard_peripheral/Source/gd32vw55x_usart.c **** }
 202              		.loc 1 114 1
 203 00e6 B9A0     		j	.L15
 204              	.L12:
 109:../Firmware/GD32VW55x_standard_peripheral/Source/gd32vw55x_usart.c ****         intdiv = udiv & 0x0000fff0U;
 205              		.loc 1 109 33
 206 00e8 832784FD 		lw	a5,-40(s0)
 207 00ec 13D71700 		srli	a4,a5,1
 109:../Firmware/GD32VW55x_standard_peripheral/Source/gd32vw55x_usart.c ****         intdiv = udiv & 0x0000fff0U;
 208              		.loc 1 109 22
 209 00f0 8327C4FE 		lw	a5,-20(s0)
 210 00f4 3E97     		add	a4,a4,a5
 109:../Firmware/GD32VW55x_standard_peripheral/Source/gd32vw55x_usart.c ****         intdiv = udiv & 0x0000fff0U;
 211              		.loc 1 109 14
 212 00f6 832784FD 		lw	a5,-40(s0)
 213 00fa B357F702 		divu	a5,a4,a5
 214 00fe 2320F4FE 		sw	a5,-32(s0)
 110:../Firmware/GD32VW55x_standard_peripheral/Source/gd32vw55x_usart.c ****         fradiv = udiv & 0x0000000fU;
 215              		.loc 1 110 16
 216 0102 032704FE 		lw	a4,-32(s0)
 217 0106 C167     		li	a5,65536
 218 0108 C117     		addi	a5,a5,-16
 219 010a F98F     		and	a5,a4,a5
 220 010c 2324F4FE 		sw	a5,-24(s0)
 111:../Firmware/GD32VW55x_standard_peripheral/Source/gd32vw55x_usart.c ****         USART_BAUD(usart_periph) = ((USART_BAUD_FRADIV | USART_BAUD_INTDIV) & (intdiv | fradiv));
 221              		.loc 1 111 16
 222 0110 832704FE 		lw	a5,-32(s0)
 223 0114 BD8B     		andi	a5,a5,15
 224 0116 2322F4FE 		sw	a5,-28(s0)
 112:../Firmware/GD32VW55x_standard_peripheral/Source/gd32vw55x_usart.c ****     }
 225              		.loc 1 112 87
 226 011a 032784FE 		lw	a4,-24(s0)
 227 011e 832744FE 		lw	a5,-28(s0)
 228 0122 5D8F     		or	a4,a4,a5
 112:../Firmware/GD32VW55x_standard_peripheral/Source/gd32vw55x_usart.c ****     }
 229              		.loc 1 112 9
 230 0124 8327C4FD 		lw	a5,-36(s0)
 231 0128 B107     		addi	a5,a5,12
 232 012a BE86     		mv	a3,a5
 112:../Firmware/GD32VW55x_standard_peripheral/Source/gd32vw55x_usart.c ****     }
 233              		.loc 1 112 77
 234 012c C167     		li	a5,65536
 235 012e FD17     		addi	a5,a5,-1
 236 0130 F98F     		and	a5,a4,a5
 112:../Firmware/GD32VW55x_standard_peripheral/Source/gd32vw55x_usart.c ****     }
 237              		.loc 1 112 34
 238 0132 9CC2     		sw	a5,0(a3)
 239              	.L15:
 240              		.loc 1 114 1
 241 0134 0100     		nop
 242 0136 B250     		lw	ra,44(sp)
 243              		.cfi_restore 1
 244 0138 2254     		lw	s0,40(sp)
 245              		.cfi_restore 8
 246              		.cfi_def_cfa 2, 48
 247 013a 4561     		addi	sp,sp,48
 248              		.cfi_def_cfa_offset 0
 249 013c 8280     		jr	ra
 250              		.cfi_endproc
 251              	.LFE348:
 253              		.section	.text.usart_parity_config,"ax",@progbits
 254              		.align	1
 255              		.globl	usart_parity_config
 257              	usart_parity_config:
 258              	.LFB349:
 115:../Firmware/GD32VW55x_standard_peripheral/Source/gd32vw55x_usart.c **** 
 116:../Firmware/GD32VW55x_standard_peripheral/Source/gd32vw55x_usart.c **** /*!
 117:../Firmware/GD32VW55x_standard_peripheral/Source/gd32vw55x_usart.c ****     \brief      configure USART parity function
 118:../Firmware/GD32VW55x_standard_peripheral/Source/gd32vw55x_usart.c ****     \param[in]  usart_periph: USART0/UARTx(x=1,2)
 119:../Firmware/GD32VW55x_standard_peripheral/Source/gd32vw55x_usart.c ****     \param[in]  paritycfg: USART parity configure
 120:../Firmware/GD32VW55x_standard_peripheral/Source/gd32vw55x_usart.c ****                 only one parameter can be selected which is shown as below:
 121:../Firmware/GD32VW55x_standard_peripheral/Source/gd32vw55x_usart.c ****       \arg        USART_PM_NONE: no parity
 122:../Firmware/GD32VW55x_standard_peripheral/Source/gd32vw55x_usart.c ****       \arg        USART_PM_ODD: odd parity
 123:../Firmware/GD32VW55x_standard_peripheral/Source/gd32vw55x_usart.c ****       \arg        USART_PM_EVEN: even parity
 124:../Firmware/GD32VW55x_standard_peripheral/Source/gd32vw55x_usart.c ****     \param[out] none
 125:../Firmware/GD32VW55x_standard_peripheral/Source/gd32vw55x_usart.c ****     \retval     none
 126:../Firmware/GD32VW55x_standard_peripheral/Source/gd32vw55x_usart.c **** */
 127:../Firmware/GD32VW55x_standard_peripheral/Source/gd32vw55x_usart.c **** void usart_parity_config(uint32_t usart_periph, uint32_t paritycfg)
 128:../Firmware/GD32VW55x_standard_peripheral/Source/gd32vw55x_usart.c **** {
 259              		.loc 1 128 1
 260              		.cfi_startproc
 261 0000 0111     		addi	sp,sp,-32
 262              		.cfi_def_cfa_offset 32
 263 0002 22CE     		sw	s0,28(sp)
 264              		.cfi_offset 8, -4
 265 0004 0010     		addi	s0,sp,32
 266              		.cfi_def_cfa 8, 0
 267 0006 2326A4FE 		sw	a0,-20(s0)
 268 000a 2324B4FE 		sw	a1,-24(s0)
 129:../Firmware/GD32VW55x_standard_peripheral/Source/gd32vw55x_usart.c ****     /* disable USART */
 130:../Firmware/GD32VW55x_standard_peripheral/Source/gd32vw55x_usart.c ****     USART_CTL0(usart_periph) &= ~(USART_CTL0_UEN);
 269              		.loc 1 130 30
 270 000e 8327C4FE 		lw	a5,-20(s0)
 271 0012 9843     		lw	a4,0(a5)
 272 0014 8327C4FE 		lw	a5,-20(s0)
 273 0018 799B     		andi	a4,a4,-2
 274 001a 98C3     		sw	a4,0(a5)
 131:../Firmware/GD32VW55x_standard_peripheral/Source/gd32vw55x_usart.c ****     /* clear USART_CTL0 PM,PCEN bits */
 132:../Firmware/GD32VW55x_standard_peripheral/Source/gd32vw55x_usart.c ****     USART_CTL0(usart_periph) &= ~(USART_CTL0_PM | USART_CTL0_PCEN);
 275              		.loc 1 132 30
 276 001c 8327C4FE 		lw	a5,-20(s0)
 277 0020 9843     		lw	a4,0(a5)
 278 0022 8327C4FE 		lw	a5,-20(s0)
 279 0026 1377F79F 		andi	a4,a4,-1537
 280 002a 98C3     		sw	a4,0(a5)
 133:../Firmware/GD32VW55x_standard_peripheral/Source/gd32vw55x_usart.c ****     /* configure USART parity mode */
 134:../Firmware/GD32VW55x_standard_peripheral/Source/gd32vw55x_usart.c ****     USART_CTL0(usart_periph) |= paritycfg;
 281              		.loc 1 134 30
 282 002c 8327C4FE 		lw	a5,-20(s0)
 283 0030 9443     		lw	a3,0(a5)
 284 0032 8327C4FE 		lw	a5,-20(s0)
 285 0036 032784FE 		lw	a4,-24(s0)
 286 003a 558F     		or	a4,a3,a4
 287 003c 98C3     		sw	a4,0(a5)
 135:../Firmware/GD32VW55x_standard_peripheral/Source/gd32vw55x_usart.c **** }
 288              		.loc 1 135 1
 289 003e 0100     		nop
 290 0040 7244     		lw	s0,28(sp)
 291              		.cfi_restore 8
 292              		.cfi_def_cfa 2, 32
 293 0042 0561     		addi	sp,sp,32
 294              		.cfi_def_cfa_offset 0
 295 0044 8280     		jr	ra
 296              		.cfi_endproc
 297              	.LFE349:
 299              		.section	.text.usart_word_length_set,"ax",@progbits
 300              		.align	1
 301              		.globl	usart_word_length_set
 303              	usart_word_length_set:
 304              	.LFB350:
 136:../Firmware/GD32VW55x_standard_peripheral/Source/gd32vw55x_usart.c **** 
 137:../Firmware/GD32VW55x_standard_peripheral/Source/gd32vw55x_usart.c **** /*!
 138:../Firmware/GD32VW55x_standard_peripheral/Source/gd32vw55x_usart.c ****     \brief      configure USART word length
 139:../Firmware/GD32VW55x_standard_peripheral/Source/gd32vw55x_usart.c ****     \param[in]  usart_periph: USART0/UARTx(x=1,2)
 140:../Firmware/GD32VW55x_standard_peripheral/Source/gd32vw55x_usart.c ****     \param[in]  wlen: USART word length configure
 141:../Firmware/GD32VW55x_standard_peripheral/Source/gd32vw55x_usart.c ****                 only one parameter can be selected which is shown as below:
 142:../Firmware/GD32VW55x_standard_peripheral/Source/gd32vw55x_usart.c ****       \arg        USART_WL_8BIT: 8 bits
 143:../Firmware/GD32VW55x_standard_peripheral/Source/gd32vw55x_usart.c ****       \arg        USART_WL_9BIT: 9 bits
 144:../Firmware/GD32VW55x_standard_peripheral/Source/gd32vw55x_usart.c ****     \param[out] none
 145:../Firmware/GD32VW55x_standard_peripheral/Source/gd32vw55x_usart.c ****     \retval     none
 146:../Firmware/GD32VW55x_standard_peripheral/Source/gd32vw55x_usart.c **** */
 147:../Firmware/GD32VW55x_standard_peripheral/Source/gd32vw55x_usart.c **** void usart_word_length_set(uint32_t usart_periph, uint32_t wlen)
 148:../Firmware/GD32VW55x_standard_peripheral/Source/gd32vw55x_usart.c **** {
 305              		.loc 1 148 1
 306              		.cfi_startproc
 307 0000 0111     		addi	sp,sp,-32
 308              		.cfi_def_cfa_offset 32
 309 0002 22CE     		sw	s0,28(sp)
 310              		.cfi_offset 8, -4
 311 0004 0010     		addi	s0,sp,32
 312              		.cfi_def_cfa 8, 0
 313 0006 2326A4FE 		sw	a0,-20(s0)
 314 000a 2324B4FE 		sw	a1,-24(s0)
 149:../Firmware/GD32VW55x_standard_peripheral/Source/gd32vw55x_usart.c ****     /* disable USART */
 150:../Firmware/GD32VW55x_standard_peripheral/Source/gd32vw55x_usart.c ****     USART_CTL0(usart_periph) &= ~(USART_CTL0_UEN);
 315              		.loc 1 150 30
 316 000e 8327C4FE 		lw	a5,-20(s0)
 317 0012 9843     		lw	a4,0(a5)
 318 0014 8327C4FE 		lw	a5,-20(s0)
 319 0018 799B     		andi	a4,a4,-2
 320 001a 98C3     		sw	a4,0(a5)
 151:../Firmware/GD32VW55x_standard_peripheral/Source/gd32vw55x_usart.c ****     /* clear USART_CTL0 WL bit */
 152:../Firmware/GD32VW55x_standard_peripheral/Source/gd32vw55x_usart.c ****     USART_CTL0(usart_periph) &= ~USART_CTL0_WL;
 321              		.loc 1 152 30
 322 001c 8327C4FE 		lw	a5,-20(s0)
 323 0020 9443     		lw	a3,0(a5)
 324 0022 8327C4FE 		lw	a5,-20(s0)
 325 0026 7D77     		li	a4,-4096
 326 0028 7D17     		addi	a4,a4,-1
 327 002a 758F     		and	a4,a3,a4
 328 002c 98C3     		sw	a4,0(a5)
 153:../Firmware/GD32VW55x_standard_peripheral/Source/gd32vw55x_usart.c ****     /* configure USART word length */
 154:../Firmware/GD32VW55x_standard_peripheral/Source/gd32vw55x_usart.c ****     USART_CTL0(usart_periph) |= wlen;
 329              		.loc 1 154 30
 330 002e 8327C4FE 		lw	a5,-20(s0)
 331 0032 9443     		lw	a3,0(a5)
 332 0034 8327C4FE 		lw	a5,-20(s0)
 333 0038 032784FE 		lw	a4,-24(s0)
 334 003c 558F     		or	a4,a3,a4
 335 003e 98C3     		sw	a4,0(a5)
 155:../Firmware/GD32VW55x_standard_peripheral/Source/gd32vw55x_usart.c **** }
 336              		.loc 1 155 1
 337 0040 0100     		nop
 338 0042 7244     		lw	s0,28(sp)
 339              		.cfi_restore 8
 340              		.cfi_def_cfa 2, 32
 341 0044 0561     		addi	sp,sp,32
 342              		.cfi_def_cfa_offset 0
 343 0046 8280     		jr	ra
 344              		.cfi_endproc
 345              	.LFE350:
 347              		.section	.text.usart_stop_bit_set,"ax",@progbits
 348              		.align	1
 349              		.globl	usart_stop_bit_set
 351              	usart_stop_bit_set:
 352              	.LFB351:
 156:../Firmware/GD32VW55x_standard_peripheral/Source/gd32vw55x_usart.c **** 
 157:../Firmware/GD32VW55x_standard_peripheral/Source/gd32vw55x_usart.c **** /*!
 158:../Firmware/GD32VW55x_standard_peripheral/Source/gd32vw55x_usart.c ****     \brief      configure USART stop bit length
 159:../Firmware/GD32VW55x_standard_peripheral/Source/gd32vw55x_usart.c ****     \param[in]  usart_periph: USART0/UARTx(x=1,2)
 160:../Firmware/GD32VW55x_standard_peripheral/Source/gd32vw55x_usart.c ****     \param[in]  stblen: USART stop bit configure
 161:../Firmware/GD32VW55x_standard_peripheral/Source/gd32vw55x_usart.c ****                 only one parameter can be selected which is shown as below:
 162:../Firmware/GD32VW55x_standard_peripheral/Source/gd32vw55x_usart.c ****       \arg        USART_STB_1BIT: 1 bit
 163:../Firmware/GD32VW55x_standard_peripheral/Source/gd32vw55x_usart.c ****       \arg        USART_STB_0_5BIT: 0.5bit
 164:../Firmware/GD32VW55x_standard_peripheral/Source/gd32vw55x_usart.c ****       \arg        USART_STB_2BIT: 2 bits
 165:../Firmware/GD32VW55x_standard_peripheral/Source/gd32vw55x_usart.c ****       \arg        USART_STB_1_5BIT: 1.5bit
 166:../Firmware/GD32VW55x_standard_peripheral/Source/gd32vw55x_usart.c ****     \param[out] none
 167:../Firmware/GD32VW55x_standard_peripheral/Source/gd32vw55x_usart.c ****     \retval     none
 168:../Firmware/GD32VW55x_standard_peripheral/Source/gd32vw55x_usart.c **** */
 169:../Firmware/GD32VW55x_standard_peripheral/Source/gd32vw55x_usart.c **** void usart_stop_bit_set(uint32_t usart_periph, uint32_t stblen)
 170:../Firmware/GD32VW55x_standard_peripheral/Source/gd32vw55x_usart.c **** {
 353              		.loc 1 170 1
 354              		.cfi_startproc
 355 0000 0111     		addi	sp,sp,-32
 356              		.cfi_def_cfa_offset 32
 357 0002 22CE     		sw	s0,28(sp)
 358              		.cfi_offset 8, -4
 359 0004 0010     		addi	s0,sp,32
 360              		.cfi_def_cfa 8, 0
 361 0006 2326A4FE 		sw	a0,-20(s0)
 362 000a 2324B4FE 		sw	a1,-24(s0)
 171:../Firmware/GD32VW55x_standard_peripheral/Source/gd32vw55x_usart.c ****     /* disable USART */
 172:../Firmware/GD32VW55x_standard_peripheral/Source/gd32vw55x_usart.c ****     USART_CTL0(usart_periph) &= ~(USART_CTL0_UEN);
 363              		.loc 1 172 30
 364 000e 8327C4FE 		lw	a5,-20(s0)
 365 0012 9843     		lw	a4,0(a5)
 366 0014 8327C4FE 		lw	a5,-20(s0)
 367 0018 799B     		andi	a4,a4,-2
 368 001a 98C3     		sw	a4,0(a5)
 173:../Firmware/GD32VW55x_standard_peripheral/Source/gd32vw55x_usart.c ****     /* clear USART_CTL1 STB bits */
 174:../Firmware/GD32VW55x_standard_peripheral/Source/gd32vw55x_usart.c ****     USART_CTL1(usart_periph) &= ~USART_CTL1_STB;
 369              		.loc 1 174 30
 370 001c 8327C4FE 		lw	a5,-20(s0)
 371 0020 9107     		addi	a5,a5,4
 372 0022 9843     		lw	a4,0(a5)
 373 0024 8327C4FE 		lw	a5,-20(s0)
 374 0028 9107     		addi	a5,a5,4
 375 002a BE86     		mv	a3,a5
 376 002c F577     		li	a5,-12288
 377 002e FD17     		addi	a5,a5,-1
 378 0030 F98F     		and	a5,a4,a5
 379 0032 9CC2     		sw	a5,0(a3)
 175:../Firmware/GD32VW55x_standard_peripheral/Source/gd32vw55x_usart.c ****     USART_CTL1(usart_periph) |= stblen;
 380              		.loc 1 175 30
 381 0034 8327C4FE 		lw	a5,-20(s0)
 382 0038 9107     		addi	a5,a5,4
 383 003a 9843     		lw	a4,0(a5)
 384 003c 8327C4FE 		lw	a5,-20(s0)
 385 0040 9107     		addi	a5,a5,4
 386 0042 BE86     		mv	a3,a5
 387 0044 832784FE 		lw	a5,-24(s0)
 388 0048 D98F     		or	a5,a4,a5
 389 004a 9CC2     		sw	a5,0(a3)
 176:../Firmware/GD32VW55x_standard_peripheral/Source/gd32vw55x_usart.c **** }
 390              		.loc 1 176 1
 391 004c 0100     		nop
 392 004e 7244     		lw	s0,28(sp)
 393              		.cfi_restore 8
 394              		.cfi_def_cfa 2, 32
 395 0050 0561     		addi	sp,sp,32
 396              		.cfi_def_cfa_offset 0
 397 0052 8280     		jr	ra
 398              		.cfi_endproc
 399              	.LFE351:
 401              		.section	.text.usart_enable,"ax",@progbits
 402              		.align	1
 403              		.globl	usart_enable
 405              	usart_enable:
 406              	.LFB352:
 177:../Firmware/GD32VW55x_standard_peripheral/Source/gd32vw55x_usart.c **** 
 178:../Firmware/GD32VW55x_standard_peripheral/Source/gd32vw55x_usart.c **** /*!
 179:../Firmware/GD32VW55x_standard_peripheral/Source/gd32vw55x_usart.c ****     \brief      enable USART
 180:../Firmware/GD32VW55x_standard_peripheral/Source/gd32vw55x_usart.c ****     \param[in]  usart_periph: USART0/UARTx(x=1,2)
 181:../Firmware/GD32VW55x_standard_peripheral/Source/gd32vw55x_usart.c ****     \param[out] none
 182:../Firmware/GD32VW55x_standard_peripheral/Source/gd32vw55x_usart.c ****     \retval     none
 183:../Firmware/GD32VW55x_standard_peripheral/Source/gd32vw55x_usart.c **** */
 184:../Firmware/GD32VW55x_standard_peripheral/Source/gd32vw55x_usart.c **** void usart_enable(uint32_t usart_periph)
 185:../Firmware/GD32VW55x_standard_peripheral/Source/gd32vw55x_usart.c **** {
 407              		.loc 1 185 1
 408              		.cfi_startproc
 409 0000 0111     		addi	sp,sp,-32
 410              		.cfi_def_cfa_offset 32
 411 0002 22CE     		sw	s0,28(sp)
 412              		.cfi_offset 8, -4
 413 0004 0010     		addi	s0,sp,32
 414              		.cfi_def_cfa 8, 0
 415 0006 2326A4FE 		sw	a0,-20(s0)
 186:../Firmware/GD32VW55x_standard_peripheral/Source/gd32vw55x_usart.c ****     USART_CTL0(usart_periph) |= USART_CTL0_UEN;
 416              		.loc 1 186 30
 417 000a 8327C4FE 		lw	a5,-20(s0)
 418 000e 9843     		lw	a4,0(a5)
 419 0010 8327C4FE 		lw	a5,-20(s0)
 420 0014 13671700 		ori	a4,a4,1
 421 0018 98C3     		sw	a4,0(a5)
 187:../Firmware/GD32VW55x_standard_peripheral/Source/gd32vw55x_usart.c **** }
 422              		.loc 1 187 1
 423 001a 0100     		nop
 424 001c 7244     		lw	s0,28(sp)
 425              		.cfi_restore 8
 426              		.cfi_def_cfa 2, 32
 427 001e 0561     		addi	sp,sp,32
 428              		.cfi_def_cfa_offset 0
 429 0020 8280     		jr	ra
 430              		.cfi_endproc
 431              	.LFE352:
 433              		.section	.text.usart_disable,"ax",@progbits
 434              		.align	1
 435              		.globl	usart_disable
 437              	usart_disable:
 438              	.LFB353:
 188:../Firmware/GD32VW55x_standard_peripheral/Source/gd32vw55x_usart.c **** 
 189:../Firmware/GD32VW55x_standard_peripheral/Source/gd32vw55x_usart.c **** /*!
 190:../Firmware/GD32VW55x_standard_peripheral/Source/gd32vw55x_usart.c ****     \brief      disable USART
 191:../Firmware/GD32VW55x_standard_peripheral/Source/gd32vw55x_usart.c ****     \param[in]  usart_periph: USART0/UARTx(x=1,2)
 192:../Firmware/GD32VW55x_standard_peripheral/Source/gd32vw55x_usart.c ****     \param[out] none
 193:../Firmware/GD32VW55x_standard_peripheral/Source/gd32vw55x_usart.c ****     \retval     none
 194:../Firmware/GD32VW55x_standard_peripheral/Source/gd32vw55x_usart.c **** */
 195:../Firmware/GD32VW55x_standard_peripheral/Source/gd32vw55x_usart.c **** void usart_disable(uint32_t usart_periph)
 196:../Firmware/GD32VW55x_standard_peripheral/Source/gd32vw55x_usart.c **** {
 439              		.loc 1 196 1
 440              		.cfi_startproc
 441 0000 0111     		addi	sp,sp,-32
 442              		.cfi_def_cfa_offset 32
 443 0002 22CE     		sw	s0,28(sp)
 444              		.cfi_offset 8, -4
 445 0004 0010     		addi	s0,sp,32
 446              		.cfi_def_cfa 8, 0
 447 0006 2326A4FE 		sw	a0,-20(s0)
 197:../Firmware/GD32VW55x_standard_peripheral/Source/gd32vw55x_usart.c ****     USART_CTL0(usart_periph) &= ~(USART_CTL0_UEN);
 448              		.loc 1 197 30
 449 000a 8327C4FE 		lw	a5,-20(s0)
 450 000e 9843     		lw	a4,0(a5)
 451 0010 8327C4FE 		lw	a5,-20(s0)
 452 0014 799B     		andi	a4,a4,-2
 453 0016 98C3     		sw	a4,0(a5)
 198:../Firmware/GD32VW55x_standard_peripheral/Source/gd32vw55x_usart.c **** }
 454              		.loc 1 198 1
 455 0018 0100     		nop
 456 001a 7244     		lw	s0,28(sp)
 457              		.cfi_restore 8
 458              		.cfi_def_cfa 2, 32
 459 001c 0561     		addi	sp,sp,32
 460              		.cfi_def_cfa_offset 0
 461 001e 8280     		jr	ra
 462              		.cfi_endproc
 463              	.LFE353:
 465              		.section	.text.usart_transmit_config,"ax",@progbits
 466              		.align	1
 467              		.globl	usart_transmit_config
 469              	usart_transmit_config:
 470              	.LFB354:
 199:../Firmware/GD32VW55x_standard_peripheral/Source/gd32vw55x_usart.c **** 
 200:../Firmware/GD32VW55x_standard_peripheral/Source/gd32vw55x_usart.c **** /*!
 201:../Firmware/GD32VW55x_standard_peripheral/Source/gd32vw55x_usart.c ****     \brief      configure USART transmitter
 202:../Firmware/GD32VW55x_standard_peripheral/Source/gd32vw55x_usart.c ****     \param[in]  usart_periph: USART0/UARTx(x=1,2)
 203:../Firmware/GD32VW55x_standard_peripheral/Source/gd32vw55x_usart.c ****     \param[in]  txconfig: enable or disable USART transmitter
 204:../Firmware/GD32VW55x_standard_peripheral/Source/gd32vw55x_usart.c ****                 only one parameter can be selected which is shown as below:
 205:../Firmware/GD32VW55x_standard_peripheral/Source/gd32vw55x_usart.c ****       \arg        USART_TRANSMIT_ENABLE: enable USART transmission
 206:../Firmware/GD32VW55x_standard_peripheral/Source/gd32vw55x_usart.c ****       \arg        USART_TRANSMIT_DISABLE: enable USART transmission
 207:../Firmware/GD32VW55x_standard_peripheral/Source/gd32vw55x_usart.c ****     \param[out] none
 208:../Firmware/GD32VW55x_standard_peripheral/Source/gd32vw55x_usart.c ****     \retval     none
 209:../Firmware/GD32VW55x_standard_peripheral/Source/gd32vw55x_usart.c **** */
 210:../Firmware/GD32VW55x_standard_peripheral/Source/gd32vw55x_usart.c **** void usart_transmit_config(uint32_t usart_periph, uint32_t txconfig)
 211:../Firmware/GD32VW55x_standard_peripheral/Source/gd32vw55x_usart.c **** {
 471              		.loc 1 211 1
 472              		.cfi_startproc
 473 0000 0111     		addi	sp,sp,-32
 474              		.cfi_def_cfa_offset 32
 475 0002 22CE     		sw	s0,28(sp)
 476              		.cfi_offset 8, -4
 477 0004 0010     		addi	s0,sp,32
 478              		.cfi_def_cfa 8, 0
 479 0006 2326A4FE 		sw	a0,-20(s0)
 480 000a 2324B4FE 		sw	a1,-24(s0)
 212:../Firmware/GD32VW55x_standard_peripheral/Source/gd32vw55x_usart.c ****     USART_CTL0(usart_periph) &= ~USART_CTL0_TEN;
 481              		.loc 1 212 30
 482 000e 8327C4FE 		lw	a5,-20(s0)
 483 0012 9843     		lw	a4,0(a5)
 484 0014 8327C4FE 		lw	a5,-20(s0)
 485 0018 5D9B     		andi	a4,a4,-9
 486 001a 98C3     		sw	a4,0(a5)
 213:../Firmware/GD32VW55x_standard_peripheral/Source/gd32vw55x_usart.c ****     /* configure transfer mode */
 214:../Firmware/GD32VW55x_standard_peripheral/Source/gd32vw55x_usart.c ****     USART_CTL0(usart_periph) |= txconfig;
 487              		.loc 1 214 30
 488 001c 8327C4FE 		lw	a5,-20(s0)
 489 0020 9443     		lw	a3,0(a5)
 490 0022 8327C4FE 		lw	a5,-20(s0)
 491 0026 032784FE 		lw	a4,-24(s0)
 492 002a 558F     		or	a4,a3,a4
 493 002c 98C3     		sw	a4,0(a5)
 215:../Firmware/GD32VW55x_standard_peripheral/Source/gd32vw55x_usart.c **** }
 494              		.loc 1 215 1
 495 002e 0100     		nop
 496 0030 7244     		lw	s0,28(sp)
 497              		.cfi_restore 8
 498              		.cfi_def_cfa 2, 32
 499 0032 0561     		addi	sp,sp,32
 500              		.cfi_def_cfa_offset 0
 501 0034 8280     		jr	ra
 502              		.cfi_endproc
 503              	.LFE354:
 505              		.section	.text.usart_receive_config,"ax",@progbits
 506              		.align	1
 507              		.globl	usart_receive_config
 509              	usart_receive_config:
 510              	.LFB355:
 216:../Firmware/GD32VW55x_standard_peripheral/Source/gd32vw55x_usart.c **** 
 217:../Firmware/GD32VW55x_standard_peripheral/Source/gd32vw55x_usart.c **** /*!
 218:../Firmware/GD32VW55x_standard_peripheral/Source/gd32vw55x_usart.c ****     \brief      configure USART receiver
 219:../Firmware/GD32VW55x_standard_peripheral/Source/gd32vw55x_usart.c ****     \param[in]  usart_periph: USART0/UARTx(x=1,2)
 220:../Firmware/GD32VW55x_standard_peripheral/Source/gd32vw55x_usart.c ****     \param[in]  rxconfig: enable or disable USART receiver
 221:../Firmware/GD32VW55x_standard_peripheral/Source/gd32vw55x_usart.c ****                 only one parameter can be selected which is shown as below:
 222:../Firmware/GD32VW55x_standard_peripheral/Source/gd32vw55x_usart.c ****       \arg        USART_RECEIVE_ENABLE: enable USART reception
 223:../Firmware/GD32VW55x_standard_peripheral/Source/gd32vw55x_usart.c ****       \arg        USART_RECEIVE_DISABLE: disable USART reception
 224:../Firmware/GD32VW55x_standard_peripheral/Source/gd32vw55x_usart.c ****     \param[out] none
 225:../Firmware/GD32VW55x_standard_peripheral/Source/gd32vw55x_usart.c ****     \retval     none
 226:../Firmware/GD32VW55x_standard_peripheral/Source/gd32vw55x_usart.c **** */
 227:../Firmware/GD32VW55x_standard_peripheral/Source/gd32vw55x_usart.c **** void usart_receive_config(uint32_t usart_periph, uint32_t rxconfig)
 228:../Firmware/GD32VW55x_standard_peripheral/Source/gd32vw55x_usart.c **** {
 511              		.loc 1 228 1
 512              		.cfi_startproc
 513 0000 0111     		addi	sp,sp,-32
 514              		.cfi_def_cfa_offset 32
 515 0002 22CE     		sw	s0,28(sp)
 516              		.cfi_offset 8, -4
 517 0004 0010     		addi	s0,sp,32
 518              		.cfi_def_cfa 8, 0
 519 0006 2326A4FE 		sw	a0,-20(s0)
 520 000a 2324B4FE 		sw	a1,-24(s0)
 229:../Firmware/GD32VW55x_standard_peripheral/Source/gd32vw55x_usart.c ****     USART_CTL0(usart_periph) &= ~USART_CTL0_REN;
 521              		.loc 1 229 30
 522 000e 8327C4FE 		lw	a5,-20(s0)
 523 0012 9843     		lw	a4,0(a5)
 524 0014 8327C4FE 		lw	a5,-20(s0)
 525 0018 6D9B     		andi	a4,a4,-5
 526 001a 98C3     		sw	a4,0(a5)
 230:../Firmware/GD32VW55x_standard_peripheral/Source/gd32vw55x_usart.c ****     /* configure receiver mode */
 231:../Firmware/GD32VW55x_standard_peripheral/Source/gd32vw55x_usart.c ****     USART_CTL0(usart_periph) |= rxconfig;
 527              		.loc 1 231 30
 528 001c 8327C4FE 		lw	a5,-20(s0)
 529 0020 9443     		lw	a3,0(a5)
 530 0022 8327C4FE 		lw	a5,-20(s0)
 531 0026 032784FE 		lw	a4,-24(s0)
 532 002a 558F     		or	a4,a3,a4
 533 002c 98C3     		sw	a4,0(a5)
 232:../Firmware/GD32VW55x_standard_peripheral/Source/gd32vw55x_usart.c **** }
 534              		.loc 1 232 1
 535 002e 0100     		nop
 536 0030 7244     		lw	s0,28(sp)
 537              		.cfi_restore 8
 538              		.cfi_def_cfa 2, 32
 539 0032 0561     		addi	sp,sp,32
 540              		.cfi_def_cfa_offset 0
 541 0034 8280     		jr	ra
 542              		.cfi_endproc
 543              	.LFE355:
 545              		.section	.text.usart_data_first_config,"ax",@progbits
 546              		.align	1
 547              		.globl	usart_data_first_config
 549              	usart_data_first_config:
 550              	.LFB356:
 233:../Firmware/GD32VW55x_standard_peripheral/Source/gd32vw55x_usart.c **** 
 234:../Firmware/GD32VW55x_standard_peripheral/Source/gd32vw55x_usart.c **** /*!
 235:../Firmware/GD32VW55x_standard_peripheral/Source/gd32vw55x_usart.c ****     \brief      data is transmitted/received with the LSB/MSB first
 236:../Firmware/GD32VW55x_standard_peripheral/Source/gd32vw55x_usart.c ****     \param[in]  usart_periph: USART0/UARTx(x=1,2)
 237:../Firmware/GD32VW55x_standard_peripheral/Source/gd32vw55x_usart.c ****     \param[in]  msbf: LSB/MSB
 238:../Firmware/GD32VW55x_standard_peripheral/Source/gd32vw55x_usart.c ****                 only one parameter can be selected which is shown as below:
 239:../Firmware/GD32VW55x_standard_peripheral/Source/gd32vw55x_usart.c ****       \arg        USART_MSBF_LSB: LSB first
 240:../Firmware/GD32VW55x_standard_peripheral/Source/gd32vw55x_usart.c ****       \arg        USART_MSBF_MSB: MSB first
 241:../Firmware/GD32VW55x_standard_peripheral/Source/gd32vw55x_usart.c ****     \param[out] none
 242:../Firmware/GD32VW55x_standard_peripheral/Source/gd32vw55x_usart.c ****     \retval     none
 243:../Firmware/GD32VW55x_standard_peripheral/Source/gd32vw55x_usart.c **** */
 244:../Firmware/GD32VW55x_standard_peripheral/Source/gd32vw55x_usart.c **** void usart_data_first_config(uint32_t usart_periph, uint32_t msbf)
 245:../Firmware/GD32VW55x_standard_peripheral/Source/gd32vw55x_usart.c **** {
 551              		.loc 1 245 1
 552              		.cfi_startproc
 553 0000 0111     		addi	sp,sp,-32
 554              		.cfi_def_cfa_offset 32
 555 0002 22CE     		sw	s0,28(sp)
 556              		.cfi_offset 8, -4
 557 0004 0010     		addi	s0,sp,32
 558              		.cfi_def_cfa 8, 0
 559 0006 2326A4FE 		sw	a0,-20(s0)
 560 000a 2324B4FE 		sw	a1,-24(s0)
 246:../Firmware/GD32VW55x_standard_peripheral/Source/gd32vw55x_usart.c ****     USART_CTL0(usart_periph) &= ~(USART_CTL0_UEN);
 561              		.loc 1 246 30
 562 000e 8327C4FE 		lw	a5,-20(s0)
 563 0012 9843     		lw	a4,0(a5)
 564 0014 8327C4FE 		lw	a5,-20(s0)
 565 0018 799B     		andi	a4,a4,-2
 566 001a 98C3     		sw	a4,0(a5)
 247:../Firmware/GD32VW55x_standard_peripheral/Source/gd32vw55x_usart.c ****     /* configure LSB or MSB first */
 248:../Firmware/GD32VW55x_standard_peripheral/Source/gd32vw55x_usart.c ****     USART_CTL1(usart_periph) &= ~(USART_CTL1_MSBF);
 567              		.loc 1 248 30
 568 001c 8327C4FE 		lw	a5,-20(s0)
 569 0020 9107     		addi	a5,a5,4
 570 0022 9843     		lw	a4,0(a5)
 571 0024 8327C4FE 		lw	a5,-20(s0)
 572 0028 9107     		addi	a5,a5,4
 573 002a BE86     		mv	a3,a5
 574 002c B707F8FF 		li	a5,-524288
 575 0030 FD17     		addi	a5,a5,-1
 576 0032 F98F     		and	a5,a4,a5
 577 0034 9CC2     		sw	a5,0(a3)
 249:../Firmware/GD32VW55x_standard_peripheral/Source/gd32vw55x_usart.c ****     USART_CTL1(usart_periph) |= msbf;
 578              		.loc 1 249 30
 579 0036 8327C4FE 		lw	a5,-20(s0)
 580 003a 9107     		addi	a5,a5,4
 581 003c 9843     		lw	a4,0(a5)
 582 003e 8327C4FE 		lw	a5,-20(s0)
 583 0042 9107     		addi	a5,a5,4
 584 0044 BE86     		mv	a3,a5
 585 0046 832784FE 		lw	a5,-24(s0)
 586 004a D98F     		or	a5,a4,a5
 587 004c 9CC2     		sw	a5,0(a3)
 250:../Firmware/GD32VW55x_standard_peripheral/Source/gd32vw55x_usart.c **** }
 588              		.loc 1 250 1
 589 004e 0100     		nop
 590 0050 7244     		lw	s0,28(sp)
 591              		.cfi_restore 8
 592              		.cfi_def_cfa 2, 32
 593 0052 0561     		addi	sp,sp,32
 594              		.cfi_def_cfa_offset 0
 595 0054 8280     		jr	ra
 596              		.cfi_endproc
 597              	.LFE356:
 599              		.section	.text.usart_invert_config,"ax",@progbits
 600              		.align	1
 601              		.globl	usart_invert_config
 603              	usart_invert_config:
 604              	.LFB357:
 251:../Firmware/GD32VW55x_standard_peripheral/Source/gd32vw55x_usart.c **** 
 252:../Firmware/GD32VW55x_standard_peripheral/Source/gd32vw55x_usart.c **** /*!
 253:../Firmware/GD32VW55x_standard_peripheral/Source/gd32vw55x_usart.c ****     \brief      configure USART inverted
 254:../Firmware/GD32VW55x_standard_peripheral/Source/gd32vw55x_usart.c ****     \param[in]  usart_periph: USART0/UARTx(x=1,2)
 255:../Firmware/GD32VW55x_standard_peripheral/Source/gd32vw55x_usart.c ****     \param[in]  invertpara: refer to usart_invert_enum
 256:../Firmware/GD32VW55x_standard_peripheral/Source/gd32vw55x_usart.c ****                 only one parameter can be selected which is shown as below:
 257:../Firmware/GD32VW55x_standard_peripheral/Source/gd32vw55x_usart.c ****       \arg        USART_DINV_ENABLE: data bit level inversion
 258:../Firmware/GD32VW55x_standard_peripheral/Source/gd32vw55x_usart.c ****       \arg        USART_DINV_DISABLE: data bit level not inversion
 259:../Firmware/GD32VW55x_standard_peripheral/Source/gd32vw55x_usart.c ****       \arg        USART_TXPIN_ENABLE: TX pin level inversion
 260:../Firmware/GD32VW55x_standard_peripheral/Source/gd32vw55x_usart.c ****       \arg        USART_TXPIN_DISABLE: TX pin level not inversion
 261:../Firmware/GD32VW55x_standard_peripheral/Source/gd32vw55x_usart.c ****       \arg        USART_RXPIN_ENABLE: RX pin level inversion
 262:../Firmware/GD32VW55x_standard_peripheral/Source/gd32vw55x_usart.c ****       \arg        USART_RXPIN_DISABLE: RX pin level not inversion
 263:../Firmware/GD32VW55x_standard_peripheral/Source/gd32vw55x_usart.c ****       \arg        USART_SWAP_ENABLE: swap TX/RX pins
 264:../Firmware/GD32VW55x_standard_peripheral/Source/gd32vw55x_usart.c ****       \arg        USART_SWAP_DISABLE: not swap TX/RX pins
 265:../Firmware/GD32VW55x_standard_peripheral/Source/gd32vw55x_usart.c ****     \param[out] none
 266:../Firmware/GD32VW55x_standard_peripheral/Source/gd32vw55x_usart.c ****     \retval     none
 267:../Firmware/GD32VW55x_standard_peripheral/Source/gd32vw55x_usart.c **** */
 268:../Firmware/GD32VW55x_standard_peripheral/Source/gd32vw55x_usart.c **** void usart_invert_config(uint32_t usart_periph, usart_invert_enum invertpara)
 269:../Firmware/GD32VW55x_standard_peripheral/Source/gd32vw55x_usart.c **** {
 605              		.loc 1 269 1
 606              		.cfi_startproc
 607 0000 0111     		addi	sp,sp,-32
 608              		.cfi_def_cfa_offset 32
 609 0002 22CE     		sw	s0,28(sp)
 610              		.cfi_offset 8, -4
 611 0004 0010     		addi	s0,sp,32
 612              		.cfi_def_cfa 8, 0
 613 0006 2326A4FE 		sw	a0,-20(s0)
 614 000a 2324B4FE 		sw	a1,-24(s0)
 270:../Firmware/GD32VW55x_standard_peripheral/Source/gd32vw55x_usart.c ****     USART_CTL0(usart_periph) &= ~(USART_CTL0_UEN);
 615              		.loc 1 270 30
 616 000e 8327C4FE 		lw	a5,-20(s0)
 617 0012 9843     		lw	a4,0(a5)
 618 0014 8327C4FE 		lw	a5,-20(s0)
 619 0018 799B     		andi	a4,a4,-2
 620 001a 98C3     		sw	a4,0(a5)
 621 001c 032784FE 		lw	a4,-24(s0)
 622 0020 9D47     		li	a5,7
 623 0022 63E9E70E 		bgtu	a4,a5,.L36
 624 0026 832784FE 		lw	a5,-24(s0)
 625 002a 13972700 		slli	a4,a5,2
 626 002e 97070000 		lla	a5,.L27
 626      93870700 
 627 0036 BA97     		add	a5,a4,a5
 628 0038 9843     		lw	a4,0(a5)
 629 003a 97070000 		lla	a5,.L27
 629      93870700 
 630 0042 BA97     		add	a5,a4,a5
 631 0044 8287     		jr	a5
 632              		.section	.rodata.usart_invert_config,"a",@progbits
 633              		.align	2
 634              		.align	2
 635              	.L27:
 636 0000 00000000 		.word	.L34-.L27
 637 0004 00000000 		.word	.L33-.L27
 638 0008 00000000 		.word	.L32-.L27
 639 000c 00000000 		.word	.L31-.L27
 640 0010 00000000 		.word	.L30-.L27
 641 0014 00000000 		.word	.L29-.L27
 642 0018 00000000 		.word	.L28-.L27
 643 001c 00000000 		.word	.L26-.L27
 644              		.section	.text.usart_invert_config
 645              	.L34:
 271:../Firmware/GD32VW55x_standard_peripheral/Source/gd32vw55x_usart.c ****     /* inverted or not the specified signal */
 272:../Firmware/GD32VW55x_standard_peripheral/Source/gd32vw55x_usart.c ****     switch(invertpara){
 273:../Firmware/GD32VW55x_standard_peripheral/Source/gd32vw55x_usart.c ****     case USART_DINV_ENABLE:
 274:../Firmware/GD32VW55x_standard_peripheral/Source/gd32vw55x_usart.c ****         USART_CTL1(usart_periph) |= USART_CTL1_DINV;
 646              		.loc 1 274 34
 647 0046 8327C4FE 		lw	a5,-20(s0)
 648 004a 9107     		addi	a5,a5,4
 649 004c 9843     		lw	a4,0(a5)
 650 004e 8327C4FE 		lw	a5,-20(s0)
 651 0052 9107     		addi	a5,a5,4
 652 0054 BE86     		mv	a3,a5
 653 0056 B7070400 		li	a5,262144
 654 005a D98F     		or	a5,a4,a5
 655 005c 9CC2     		sw	a5,0(a3)
 275:../Firmware/GD32VW55x_standard_peripheral/Source/gd32vw55x_usart.c ****         break;
 656              		.loc 1 275 9
 657 005e 65A8     		j	.L35
 658              	.L33:
 276:../Firmware/GD32VW55x_standard_peripheral/Source/gd32vw55x_usart.c ****     case USART_DINV_DISABLE:
 277:../Firmware/GD32VW55x_standard_peripheral/Source/gd32vw55x_usart.c ****         USART_CTL1(usart_periph) &= ~(USART_CTL1_DINV);
 659              		.loc 1 277 34
 660 0060 8327C4FE 		lw	a5,-20(s0)
 661 0064 9107     		addi	a5,a5,4
 662 0066 9843     		lw	a4,0(a5)
 663 0068 8327C4FE 		lw	a5,-20(s0)
 664 006c 9107     		addi	a5,a5,4
 665 006e BE86     		mv	a3,a5
 666 0070 B707FCFF 		li	a5,-262144
 667 0074 FD17     		addi	a5,a5,-1
 668 0076 F98F     		and	a5,a4,a5
 669 0078 9CC2     		sw	a5,0(a3)
 278:../Firmware/GD32VW55x_standard_peripheral/Source/gd32vw55x_usart.c ****         break;
 670              		.loc 1 278 9
 671 007a 71A8     		j	.L35
 672              	.L32:
 279:../Firmware/GD32VW55x_standard_peripheral/Source/gd32vw55x_usart.c ****     case USART_TXPIN_ENABLE:
 280:../Firmware/GD32VW55x_standard_peripheral/Source/gd32vw55x_usart.c ****         USART_CTL1(usart_periph) |= USART_CTL1_TINV;
 673              		.loc 1 280 34
 674 007c 8327C4FE 		lw	a5,-20(s0)
 675 0080 9107     		addi	a5,a5,4
 676 0082 9843     		lw	a4,0(a5)
 677 0084 8327C4FE 		lw	a5,-20(s0)
 678 0088 9107     		addi	a5,a5,4
 679 008a BE86     		mv	a3,a5
 680 008c B7070200 		li	a5,131072
 681 0090 D98F     		or	a5,a4,a5
 682 0092 9CC2     		sw	a5,0(a3)
 281:../Firmware/GD32VW55x_standard_peripheral/Source/gd32vw55x_usart.c ****         break;
 683              		.loc 1 281 9
 684 0094 49A0     		j	.L35
 685              	.L31:
 282:../Firmware/GD32VW55x_standard_peripheral/Source/gd32vw55x_usart.c ****     case USART_TXPIN_DISABLE:
 283:../Firmware/GD32VW55x_standard_peripheral/Source/gd32vw55x_usart.c ****         USART_CTL1(usart_periph) &= ~(USART_CTL1_TINV);
 686              		.loc 1 283 34
 687 0096 8327C4FE 		lw	a5,-20(s0)
 688 009a 9107     		addi	a5,a5,4
 689 009c 9843     		lw	a4,0(a5)
 690 009e 8327C4FE 		lw	a5,-20(s0)
 691 00a2 9107     		addi	a5,a5,4
 692 00a4 BE86     		mv	a3,a5
 693 00a6 8177     		li	a5,-131072
 694 00a8 FD17     		addi	a5,a5,-1
 695 00aa F98F     		and	a5,a4,a5
 696 00ac 9CC2     		sw	a5,0(a3)
 284:../Firmware/GD32VW55x_standard_peripheral/Source/gd32vw55x_usart.c ****         break;
 697              		.loc 1 284 9
 698 00ae A5A0     		j	.L35
 699              	.L30:
 285:../Firmware/GD32VW55x_standard_peripheral/Source/gd32vw55x_usart.c ****     case USART_RXPIN_ENABLE:
 286:../Firmware/GD32VW55x_standard_peripheral/Source/gd32vw55x_usart.c ****         USART_CTL1(usart_periph) |= USART_CTL1_RINV;
 700              		.loc 1 286 34
 701 00b0 8327C4FE 		lw	a5,-20(s0)
 702 00b4 9107     		addi	a5,a5,4
 703 00b6 9843     		lw	a4,0(a5)
 704 00b8 8327C4FE 		lw	a5,-20(s0)
 705 00bc 9107     		addi	a5,a5,4
 706 00be BE86     		mv	a3,a5
 707 00c0 C167     		li	a5,65536
 708 00c2 D98F     		or	a5,a4,a5
 709 00c4 9CC2     		sw	a5,0(a3)
 287:../Firmware/GD32VW55x_standard_peripheral/Source/gd32vw55x_usart.c ****         break;
 710              		.loc 1 287 9
 711 00c6 81A8     		j	.L35
 712              	.L29:
 288:../Firmware/GD32VW55x_standard_peripheral/Source/gd32vw55x_usart.c ****     case USART_RXPIN_DISABLE:
 289:../Firmware/GD32VW55x_standard_peripheral/Source/gd32vw55x_usart.c ****         USART_CTL1(usart_periph) &= ~(USART_CTL1_RINV);
 713              		.loc 1 289 34
 714 00c8 8327C4FE 		lw	a5,-20(s0)
 715 00cc 9107     		addi	a5,a5,4
 716 00ce 9843     		lw	a4,0(a5)
 717 00d0 8327C4FE 		lw	a5,-20(s0)
 718 00d4 9107     		addi	a5,a5,4
 719 00d6 BE86     		mv	a3,a5
 720 00d8 C177     		li	a5,-65536
 721 00da FD17     		addi	a5,a5,-1
 722 00dc F98F     		and	a5,a4,a5
 723 00de 9CC2     		sw	a5,0(a3)
 290:../Firmware/GD32VW55x_standard_peripheral/Source/gd32vw55x_usart.c ****         break;
 724              		.loc 1 290 9
 725 00e0 1DA8     		j	.L35
 726              	.L28:
 291:../Firmware/GD32VW55x_standard_peripheral/Source/gd32vw55x_usart.c ****     case USART_SWAP_ENABLE:
 292:../Firmware/GD32VW55x_standard_peripheral/Source/gd32vw55x_usart.c ****         USART_CTL1(usart_periph) |= USART_CTL1_STRP;
 727              		.loc 1 292 34
 728 00e2 8327C4FE 		lw	a5,-20(s0)
 729 00e6 9107     		addi	a5,a5,4
 730 00e8 9843     		lw	a4,0(a5)
 731 00ea 8327C4FE 		lw	a5,-20(s0)
 732 00ee 9107     		addi	a5,a5,4
 733 00f0 BE86     		mv	a3,a5
 734 00f2 A167     		li	a5,32768
 735 00f4 D98F     		or	a5,a4,a5
 736 00f6 9CC2     		sw	a5,0(a3)
 293:../Firmware/GD32VW55x_standard_peripheral/Source/gd32vw55x_usart.c ****         break;
 737              		.loc 1 293 9
 738 00f8 39A8     		j	.L35
 739              	.L26:
 294:../Firmware/GD32VW55x_standard_peripheral/Source/gd32vw55x_usart.c ****     case USART_SWAP_DISABLE:
 295:../Firmware/GD32VW55x_standard_peripheral/Source/gd32vw55x_usart.c ****         USART_CTL1(usart_periph) &= ~(USART_CTL1_STRP);
 740              		.loc 1 295 34
 741 00fa 8327C4FE 		lw	a5,-20(s0)
 742 00fe 9107     		addi	a5,a5,4
 743 0100 9843     		lw	a4,0(a5)
 744 0102 8327C4FE 		lw	a5,-20(s0)
 745 0106 9107     		addi	a5,a5,4
 746 0108 BE86     		mv	a3,a5
 747 010a E177     		li	a5,-32768
 748 010c FD17     		addi	a5,a5,-1
 749 010e F98F     		and	a5,a4,a5
 750 0110 9CC2     		sw	a5,0(a3)
 296:../Firmware/GD32VW55x_standard_peripheral/Source/gd32vw55x_usart.c ****         break;
 751              		.loc 1 296 9
 752 0112 11A0     		j	.L35
 753              	.L36:
 297:../Firmware/GD32VW55x_standard_peripheral/Source/gd32vw55x_usart.c ****     default:
 298:../Firmware/GD32VW55x_standard_peripheral/Source/gd32vw55x_usart.c ****         break;
 754              		.loc 1 298 9
 755 0114 0100     		nop
 756              	.L35:
 299:../Firmware/GD32VW55x_standard_peripheral/Source/gd32vw55x_usart.c ****     }
 300:../Firmware/GD32VW55x_standard_peripheral/Source/gd32vw55x_usart.c **** }
 757              		.loc 1 300 1
 758 0116 0100     		nop
 759 0118 7244     		lw	s0,28(sp)
 760              		.cfi_restore 8
 761              		.cfi_def_cfa 2, 32
 762 011a 0561     		addi	sp,sp,32
 763              		.cfi_def_cfa_offset 0
 764 011c 8280     		jr	ra
 765              		.cfi_endproc
 766              	.LFE357:
 768              		.section	.text.usart_overrun_enable,"ax",@progbits
 769              		.align	1
 770              		.globl	usart_overrun_enable
 772              	usart_overrun_enable:
 773              	.LFB358:
 301:../Firmware/GD32VW55x_standard_peripheral/Source/gd32vw55x_usart.c **** 
 302:../Firmware/GD32VW55x_standard_peripheral/Source/gd32vw55x_usart.c **** /*!
 303:../Firmware/GD32VW55x_standard_peripheral/Source/gd32vw55x_usart.c ****     \brief      enable the USART overrun function
 304:../Firmware/GD32VW55x_standard_peripheral/Source/gd32vw55x_usart.c ****     \param[in]  usart_periph: USART0/UARTx(x=1,2)
 305:../Firmware/GD32VW55x_standard_peripheral/Source/gd32vw55x_usart.c ****     \param[out] none
 306:../Firmware/GD32VW55x_standard_peripheral/Source/gd32vw55x_usart.c ****     \retval     none
 307:../Firmware/GD32VW55x_standard_peripheral/Source/gd32vw55x_usart.c **** */
 308:../Firmware/GD32VW55x_standard_peripheral/Source/gd32vw55x_usart.c **** void usart_overrun_enable(uint32_t usart_periph)
 309:../Firmware/GD32VW55x_standard_peripheral/Source/gd32vw55x_usart.c **** {
 774              		.loc 1 309 1
 775              		.cfi_startproc
 776 0000 0111     		addi	sp,sp,-32
 777              		.cfi_def_cfa_offset 32
 778 0002 22CE     		sw	s0,28(sp)
 779              		.cfi_offset 8, -4
 780 0004 0010     		addi	s0,sp,32
 781              		.cfi_def_cfa 8, 0
 782 0006 2326A4FE 		sw	a0,-20(s0)
 310:../Firmware/GD32VW55x_standard_peripheral/Source/gd32vw55x_usart.c ****     USART_CTL0(usart_periph) &= ~(USART_CTL0_UEN);
 783              		.loc 1 310 30
 784 000a 8327C4FE 		lw	a5,-20(s0)
 785 000e 9843     		lw	a4,0(a5)
 786 0010 8327C4FE 		lw	a5,-20(s0)
 787 0014 799B     		andi	a4,a4,-2
 788 0016 98C3     		sw	a4,0(a5)
 311:../Firmware/GD32VW55x_standard_peripheral/Source/gd32vw55x_usart.c ****     /* enable overrun function */
 312:../Firmware/GD32VW55x_standard_peripheral/Source/gd32vw55x_usart.c ****     USART_CTL2(usart_periph) &= ~(USART_CTL2_OVRD);
 789              		.loc 1 312 30
 790 0018 8327C4FE 		lw	a5,-20(s0)
 791 001c A107     		addi	a5,a5,8
 792 001e 9843     		lw	a4,0(a5)
 793 0020 8327C4FE 		lw	a5,-20(s0)
 794 0024 A107     		addi	a5,a5,8
 795 0026 BE86     		mv	a3,a5
 796 0028 FD77     		li	a5,-4096
 797 002a FD17     		addi	a5,a5,-1
 798 002c F98F     		and	a5,a4,a5
 799 002e 9CC2     		sw	a5,0(a3)
 313:../Firmware/GD32VW55x_standard_peripheral/Source/gd32vw55x_usart.c **** }
 800              		.loc 1 313 1
 801 0030 0100     		nop
 802 0032 7244     		lw	s0,28(sp)
 803              		.cfi_restore 8
 804              		.cfi_def_cfa 2, 32
 805 0034 0561     		addi	sp,sp,32
 806              		.cfi_def_cfa_offset 0
 807 0036 8280     		jr	ra
 808              		.cfi_endproc
 809              	.LFE358:
 811              		.section	.text.usart_overrun_disable,"ax",@progbits
 812              		.align	1
 813              		.globl	usart_overrun_disable
 815              	usart_overrun_disable:
 816              	.LFB359:
 314:../Firmware/GD32VW55x_standard_peripheral/Source/gd32vw55x_usart.c **** 
 315:../Firmware/GD32VW55x_standard_peripheral/Source/gd32vw55x_usart.c **** /*!
 316:../Firmware/GD32VW55x_standard_peripheral/Source/gd32vw55x_usart.c ****     \brief      disable the USART overrun function
 317:../Firmware/GD32VW55x_standard_peripheral/Source/gd32vw55x_usart.c ****     \param[in]  usart_periph: USART0/UARTx(x=1,2)
 318:../Firmware/GD32VW55x_standard_peripheral/Source/gd32vw55x_usart.c ****     \param[out] none
 319:../Firmware/GD32VW55x_standard_peripheral/Source/gd32vw55x_usart.c ****     \retval     none
 320:../Firmware/GD32VW55x_standard_peripheral/Source/gd32vw55x_usart.c **** */
 321:../Firmware/GD32VW55x_standard_peripheral/Source/gd32vw55x_usart.c **** void usart_overrun_disable(uint32_t usart_periph)
 322:../Firmware/GD32VW55x_standard_peripheral/Source/gd32vw55x_usart.c **** {
 817              		.loc 1 322 1
 818              		.cfi_startproc
 819 0000 0111     		addi	sp,sp,-32
 820              		.cfi_def_cfa_offset 32
 821 0002 22CE     		sw	s0,28(sp)
 822              		.cfi_offset 8, -4
 823 0004 0010     		addi	s0,sp,32
 824              		.cfi_def_cfa 8, 0
 825 0006 2326A4FE 		sw	a0,-20(s0)
 323:../Firmware/GD32VW55x_standard_peripheral/Source/gd32vw55x_usart.c ****     USART_CTL0(usart_periph) &= ~(USART_CTL0_UEN);
 826              		.loc 1 323 30
 827 000a 8327C4FE 		lw	a5,-20(s0)
 828 000e 9843     		lw	a4,0(a5)
 829 0010 8327C4FE 		lw	a5,-20(s0)
 830 0014 799B     		andi	a4,a4,-2
 831 0016 98C3     		sw	a4,0(a5)
 324:../Firmware/GD32VW55x_standard_peripheral/Source/gd32vw55x_usart.c ****     /* disable overrun function */
 325:../Firmware/GD32VW55x_standard_peripheral/Source/gd32vw55x_usart.c ****     USART_CTL2(usart_periph) |= USART_CTL2_OVRD;
 832              		.loc 1 325 30
 833 0018 8327C4FE 		lw	a5,-20(s0)
 834 001c A107     		addi	a5,a5,8
 835 001e 9843     		lw	a4,0(a5)
 836 0020 8327C4FE 		lw	a5,-20(s0)
 837 0024 A107     		addi	a5,a5,8
 838 0026 BE86     		mv	a3,a5
 839 0028 8567     		li	a5,4096
 840 002a D98F     		or	a5,a4,a5
 841 002c 9CC2     		sw	a5,0(a3)
 326:../Firmware/GD32VW55x_standard_peripheral/Source/gd32vw55x_usart.c **** }
 842              		.loc 1 326 1
 843 002e 0100     		nop
 844 0030 7244     		lw	s0,28(sp)
 845              		.cfi_restore 8
 846              		.cfi_def_cfa 2, 32
 847 0032 0561     		addi	sp,sp,32
 848              		.cfi_def_cfa_offset 0
 849 0034 8280     		jr	ra
 850              		.cfi_endproc
 851              	.LFE359:
 853              		.section	.text.usart_oversample_config,"ax",@progbits
 854              		.align	1
 855              		.globl	usart_oversample_config
 857              	usart_oversample_config:
 858              	.LFB360:
 327:../Firmware/GD32VW55x_standard_peripheral/Source/gd32vw55x_usart.c **** 
 328:../Firmware/GD32VW55x_standard_peripheral/Source/gd32vw55x_usart.c **** /*!
 329:../Firmware/GD32VW55x_standard_peripheral/Source/gd32vw55x_usart.c ****     \brief      configure the USART oversample mode
 330:../Firmware/GD32VW55x_standard_peripheral/Source/gd32vw55x_usart.c ****     \param[in]  usart_periph: USART0/UARTx(x=1,2)
 331:../Firmware/GD32VW55x_standard_peripheral/Source/gd32vw55x_usart.c ****     \param[in]  oversamp: oversample value
 332:../Firmware/GD32VW55x_standard_peripheral/Source/gd32vw55x_usart.c ****                 only one parameter can be selected which is shown as below:
 333:../Firmware/GD32VW55x_standard_peripheral/Source/gd32vw55x_usart.c ****       \arg        USART_OVSMOD_8: oversampling by 8
 334:../Firmware/GD32VW55x_standard_peripheral/Source/gd32vw55x_usart.c ****       \arg        USART_OVSMOD_16: oversampling by 16
 335:../Firmware/GD32VW55x_standard_peripheral/Source/gd32vw55x_usart.c ****     \param[out] none
 336:../Firmware/GD32VW55x_standard_peripheral/Source/gd32vw55x_usart.c ****     \retval     none
 337:../Firmware/GD32VW55x_standard_peripheral/Source/gd32vw55x_usart.c **** */
 338:../Firmware/GD32VW55x_standard_peripheral/Source/gd32vw55x_usart.c **** void usart_oversample_config(uint32_t usart_periph, uint32_t oversamp)
 339:../Firmware/GD32VW55x_standard_peripheral/Source/gd32vw55x_usart.c **** {
 859              		.loc 1 339 1
 860              		.cfi_startproc
 861 0000 0111     		addi	sp,sp,-32
 862              		.cfi_def_cfa_offset 32
 863 0002 22CE     		sw	s0,28(sp)
 864              		.cfi_offset 8, -4
 865 0004 0010     		addi	s0,sp,32
 866              		.cfi_def_cfa 8, 0
 867 0006 2326A4FE 		sw	a0,-20(s0)
 868 000a 2324B4FE 		sw	a1,-24(s0)
 340:../Firmware/GD32VW55x_standard_peripheral/Source/gd32vw55x_usart.c ****     /* disable USART */
 341:../Firmware/GD32VW55x_standard_peripheral/Source/gd32vw55x_usart.c ****     USART_CTL0(usart_periph) &= ~(USART_CTL0_UEN);
 869              		.loc 1 341 30
 870 000e 8327C4FE 		lw	a5,-20(s0)
 871 0012 9843     		lw	a4,0(a5)
 872 0014 8327C4FE 		lw	a5,-20(s0)
 873 0018 799B     		andi	a4,a4,-2
 874 001a 98C3     		sw	a4,0(a5)
 342:../Firmware/GD32VW55x_standard_peripheral/Source/gd32vw55x_usart.c ****     /* clear OVSMOD bit */
 343:../Firmware/GD32VW55x_standard_peripheral/Source/gd32vw55x_usart.c ****     USART_CTL0(usart_periph) &= ~(USART_CTL0_OVSMOD);
 875              		.loc 1 343 30
 876 001c 8327C4FE 		lw	a5,-20(s0)
 877 0020 9443     		lw	a3,0(a5)
 878 0022 8327C4FE 		lw	a5,-20(s0)
 879 0026 6177     		li	a4,-32768
 880 0028 7D17     		addi	a4,a4,-1
 881 002a 758F     		and	a4,a3,a4
 882 002c 98C3     		sw	a4,0(a5)
 344:../Firmware/GD32VW55x_standard_peripheral/Source/gd32vw55x_usart.c ****     USART_CTL0(usart_periph) |= oversamp;
 883              		.loc 1 344 30
 884 002e 8327C4FE 		lw	a5,-20(s0)
 885 0032 9443     		lw	a3,0(a5)
 886 0034 8327C4FE 		lw	a5,-20(s0)
 887 0038 032784FE 		lw	a4,-24(s0)
 888 003c 558F     		or	a4,a3,a4
 889 003e 98C3     		sw	a4,0(a5)
 345:../Firmware/GD32VW55x_standard_peripheral/Source/gd32vw55x_usart.c **** }
 890              		.loc 1 345 1
 891 0040 0100     		nop
 892 0042 7244     		lw	s0,28(sp)
 893              		.cfi_restore 8
 894              		.cfi_def_cfa 2, 32
 895 0044 0561     		addi	sp,sp,32
 896              		.cfi_def_cfa_offset 0
 897 0046 8280     		jr	ra
 898              		.cfi_endproc
 899              	.LFE360:
 901              		.section	.text.usart_sample_bit_config,"ax",@progbits
 902              		.align	1
 903              		.globl	usart_sample_bit_config
 905              	usart_sample_bit_config:
 906              	.LFB361:
 346:../Firmware/GD32VW55x_standard_peripheral/Source/gd32vw55x_usart.c **** 
 347:../Firmware/GD32VW55x_standard_peripheral/Source/gd32vw55x_usart.c **** /*!
 348:../Firmware/GD32VW55x_standard_peripheral/Source/gd32vw55x_usart.c ****     \brief      configure the sample bit method
 349:../Firmware/GD32VW55x_standard_peripheral/Source/gd32vw55x_usart.c ****     \param[in]  usart_periph: USART0/UARTx(x=1,2)
 350:../Firmware/GD32VW55x_standard_peripheral/Source/gd32vw55x_usart.c ****     \param[in]  osb: sample bit
 351:../Firmware/GD32VW55x_standard_peripheral/Source/gd32vw55x_usart.c ****                 only one parameter can be selected which is shown as below:
 352:../Firmware/GD32VW55x_standard_peripheral/Source/gd32vw55x_usart.c ****       \arg        USART_OSB_1BIT: 1 bit
 353:../Firmware/GD32VW55x_standard_peripheral/Source/gd32vw55x_usart.c ****       \arg        USART_OSB_3BIT: 3 bits
 354:../Firmware/GD32VW55x_standard_peripheral/Source/gd32vw55x_usart.c ****     \param[out] none
 355:../Firmware/GD32VW55x_standard_peripheral/Source/gd32vw55x_usart.c ****     \retval     none
 356:../Firmware/GD32VW55x_standard_peripheral/Source/gd32vw55x_usart.c **** */
 357:../Firmware/GD32VW55x_standard_peripheral/Source/gd32vw55x_usart.c **** void usart_sample_bit_config(uint32_t usart_periph, uint32_t osb)
 358:../Firmware/GD32VW55x_standard_peripheral/Source/gd32vw55x_usart.c **** {
 907              		.loc 1 358 1
 908              		.cfi_startproc
 909 0000 0111     		addi	sp,sp,-32
 910              		.cfi_def_cfa_offset 32
 911 0002 22CE     		sw	s0,28(sp)
 912              		.cfi_offset 8, -4
 913 0004 0010     		addi	s0,sp,32
 914              		.cfi_def_cfa 8, 0
 915 0006 2326A4FE 		sw	a0,-20(s0)
 916 000a 2324B4FE 		sw	a1,-24(s0)
 359:../Firmware/GD32VW55x_standard_peripheral/Source/gd32vw55x_usart.c ****     /* disable USART */
 360:../Firmware/GD32VW55x_standard_peripheral/Source/gd32vw55x_usart.c ****     USART_CTL0(usart_periph) &= ~(USART_CTL0_UEN);
 917              		.loc 1 360 30
 918 000e 8327C4FE 		lw	a5,-20(s0)
 919 0012 9843     		lw	a4,0(a5)
 920 0014 8327C4FE 		lw	a5,-20(s0)
 921 0018 799B     		andi	a4,a4,-2
 922 001a 98C3     		sw	a4,0(a5)
 361:../Firmware/GD32VW55x_standard_peripheral/Source/gd32vw55x_usart.c **** 
 362:../Firmware/GD32VW55x_standard_peripheral/Source/gd32vw55x_usart.c ****     USART_CTL2(usart_periph) &= ~(USART_CTL2_OSB);
 923              		.loc 1 362 30
 924 001c 8327C4FE 		lw	a5,-20(s0)
 925 0020 A107     		addi	a5,a5,8
 926 0022 9843     		lw	a4,0(a5)
 927 0024 8327C4FE 		lw	a5,-20(s0)
 928 0028 A107     		addi	a5,a5,8
 929 002a BE86     		mv	a3,a5
 930 002c FD77     		li	a5,-4096
 931 002e 9387F77F 		addi	a5,a5,2047
 932 0032 F98F     		and	a5,a4,a5
 933 0034 9CC2     		sw	a5,0(a3)
 363:../Firmware/GD32VW55x_standard_peripheral/Source/gd32vw55x_usart.c ****     USART_CTL2(usart_periph) |= osb;
 934              		.loc 1 363 30
 935 0036 8327C4FE 		lw	a5,-20(s0)
 936 003a A107     		addi	a5,a5,8
 937 003c 9843     		lw	a4,0(a5)
 938 003e 8327C4FE 		lw	a5,-20(s0)
 939 0042 A107     		addi	a5,a5,8
 940 0044 BE86     		mv	a3,a5
 941 0046 832784FE 		lw	a5,-24(s0)
 942 004a D98F     		or	a5,a4,a5
 943 004c 9CC2     		sw	a5,0(a3)
 364:../Firmware/GD32VW55x_standard_peripheral/Source/gd32vw55x_usart.c **** }
 944              		.loc 1 364 1
 945 004e 0100     		nop
 946 0050 7244     		lw	s0,28(sp)
 947              		.cfi_restore 8
 948              		.cfi_def_cfa 2, 32
 949 0052 0561     		addi	sp,sp,32
 950              		.cfi_def_cfa_offset 0
 951 0054 8280     		jr	ra
 952              		.cfi_endproc
 953              	.LFE361:
 955              		.section	.text.usart_receiver_timeout_enable,"ax",@progbits
 956              		.align	1
 957              		.globl	usart_receiver_timeout_enable
 959              	usart_receiver_timeout_enable:
 960              	.LFB362:
 365:../Firmware/GD32VW55x_standard_peripheral/Source/gd32vw55x_usart.c **** 
 366:../Firmware/GD32VW55x_standard_peripheral/Source/gd32vw55x_usart.c **** /*!
 367:../Firmware/GD32VW55x_standard_peripheral/Source/gd32vw55x_usart.c ****     \brief      enable receiver timeout
 368:../Firmware/GD32VW55x_standard_peripheral/Source/gd32vw55x_usart.c ****     \param[in]  usart_periph: USART0
 369:../Firmware/GD32VW55x_standard_peripheral/Source/gd32vw55x_usart.c ****     \param[out] none
 370:../Firmware/GD32VW55x_standard_peripheral/Source/gd32vw55x_usart.c ****     \retval     none
 371:../Firmware/GD32VW55x_standard_peripheral/Source/gd32vw55x_usart.c **** */
 372:../Firmware/GD32VW55x_standard_peripheral/Source/gd32vw55x_usart.c **** void usart_receiver_timeout_enable(uint32_t usart_periph)
 373:../Firmware/GD32VW55x_standard_peripheral/Source/gd32vw55x_usart.c **** {
 961              		.loc 1 373 1
 962              		.cfi_startproc
 963 0000 0111     		addi	sp,sp,-32
 964              		.cfi_def_cfa_offset 32
 965 0002 22CE     		sw	s0,28(sp)
 966              		.cfi_offset 8, -4
 967 0004 0010     		addi	s0,sp,32
 968              		.cfi_def_cfa 8, 0
 969 0006 2326A4FE 		sw	a0,-20(s0)
 374:../Firmware/GD32VW55x_standard_peripheral/Source/gd32vw55x_usart.c ****     USART_CTL1(usart_periph) |= USART_CTL1_RTEN;
 970              		.loc 1 374 30
 971 000a 8327C4FE 		lw	a5,-20(s0)
 972 000e 9107     		addi	a5,a5,4
 973 0010 9843     		lw	a4,0(a5)
 974 0012 8327C4FE 		lw	a5,-20(s0)
 975 0016 9107     		addi	a5,a5,4
 976 0018 BE86     		mv	a3,a5
 977 001a B7078000 		li	a5,8388608
 978 001e D98F     		or	a5,a4,a5
 979 0020 9CC2     		sw	a5,0(a3)
 375:../Firmware/GD32VW55x_standard_peripheral/Source/gd32vw55x_usart.c **** }
 980              		.loc 1 375 1
 981 0022 0100     		nop
 982 0024 7244     		lw	s0,28(sp)
 983              		.cfi_restore 8
 984              		.cfi_def_cfa 2, 32
 985 0026 0561     		addi	sp,sp,32
 986              		.cfi_def_cfa_offset 0
 987 0028 8280     		jr	ra
 988              		.cfi_endproc
 989              	.LFE362:
 991              		.section	.text.usart_receiver_timeout_disable,"ax",@progbits
 992              		.align	1
 993              		.globl	usart_receiver_timeout_disable
 995              	usart_receiver_timeout_disable:
 996              	.LFB363:
 376:../Firmware/GD32VW55x_standard_peripheral/Source/gd32vw55x_usart.c **** 
 377:../Firmware/GD32VW55x_standard_peripheral/Source/gd32vw55x_usart.c **** /*!
 378:../Firmware/GD32VW55x_standard_peripheral/Source/gd32vw55x_usart.c ****     \brief      disable receiver timeout
 379:../Firmware/GD32VW55x_standard_peripheral/Source/gd32vw55x_usart.c ****     \param[in]  usart_periph: USART0
 380:../Firmware/GD32VW55x_standard_peripheral/Source/gd32vw55x_usart.c ****     \param[out] none
 381:../Firmware/GD32VW55x_standard_peripheral/Source/gd32vw55x_usart.c ****     \retval     none
 382:../Firmware/GD32VW55x_standard_peripheral/Source/gd32vw55x_usart.c **** */
 383:../Firmware/GD32VW55x_standard_peripheral/Source/gd32vw55x_usart.c **** void usart_receiver_timeout_disable(uint32_t usart_periph)
 384:../Firmware/GD32VW55x_standard_peripheral/Source/gd32vw55x_usart.c **** {
 997              		.loc 1 384 1
 998              		.cfi_startproc
 999 0000 0111     		addi	sp,sp,-32
 1000              		.cfi_def_cfa_offset 32
 1001 0002 22CE     		sw	s0,28(sp)
 1002              		.cfi_offset 8, -4
 1003 0004 0010     		addi	s0,sp,32
 1004              		.cfi_def_cfa 8, 0
 1005 0006 2326A4FE 		sw	a0,-20(s0)
 385:../Firmware/GD32VW55x_standard_peripheral/Source/gd32vw55x_usart.c ****     USART_CTL1(usart_periph) &= ~(USART_CTL1_RTEN);
 1006              		.loc 1 385 30
 1007 000a 8327C4FE 		lw	a5,-20(s0)
 1008 000e 9107     		addi	a5,a5,4
 1009 0010 9843     		lw	a4,0(a5)
 1010 0012 8327C4FE 		lw	a5,-20(s0)
 1011 0016 9107     		addi	a5,a5,4
 1012 0018 BE86     		mv	a3,a5
 1013 001a B70780FF 		li	a5,-8388608
 1014 001e FD17     		addi	a5,a5,-1
 1015 0020 F98F     		and	a5,a4,a5
 1016 0022 9CC2     		sw	a5,0(a3)
 386:../Firmware/GD32VW55x_standard_peripheral/Source/gd32vw55x_usart.c **** }
 1017              		.loc 1 386 1
 1018 0024 0100     		nop
 1019 0026 7244     		lw	s0,28(sp)
 1020              		.cfi_restore 8
 1021              		.cfi_def_cfa 2, 32
 1022 0028 0561     		addi	sp,sp,32
 1023              		.cfi_def_cfa_offset 0
 1024 002a 8280     		jr	ra
 1025              		.cfi_endproc
 1026              	.LFE363:
 1028              		.section	.text.usart_receiver_timeout_threshold_config,"ax",@progbits
 1029              		.align	1
 1030              		.globl	usart_receiver_timeout_threshold_config
 1032              	usart_receiver_timeout_threshold_config:
 1033              	.LFB364:
 387:../Firmware/GD32VW55x_standard_peripheral/Source/gd32vw55x_usart.c **** 
 388:../Firmware/GD32VW55x_standard_peripheral/Source/gd32vw55x_usart.c **** /*!
 389:../Firmware/GD32VW55x_standard_peripheral/Source/gd32vw55x_usart.c ****     \brief      configure receiver timeout threshold
 390:../Firmware/GD32VW55x_standard_peripheral/Source/gd32vw55x_usart.c ****     \param[in]  usart_periph: USART0
 391:../Firmware/GD32VW55x_standard_peripheral/Source/gd32vw55x_usart.c ****     \param[in]  rtimeout: 0x00000000-0x00FFFFFF, receiver timeout value in terms of number of baud 
 392:../Firmware/GD32VW55x_standard_peripheral/Source/gd32vw55x_usart.c ****     \param[out] none
 393:../Firmware/GD32VW55x_standard_peripheral/Source/gd32vw55x_usart.c ****     \retval     none
 394:../Firmware/GD32VW55x_standard_peripheral/Source/gd32vw55x_usart.c **** */
 395:../Firmware/GD32VW55x_standard_peripheral/Source/gd32vw55x_usart.c **** void usart_receiver_timeout_threshold_config(uint32_t usart_periph, uint32_t rtimeout)
 396:../Firmware/GD32VW55x_standard_peripheral/Source/gd32vw55x_usart.c **** {
 1034              		.loc 1 396 1
 1035              		.cfi_startproc
 1036 0000 0111     		addi	sp,sp,-32
 1037              		.cfi_def_cfa_offset 32
 1038 0002 22CE     		sw	s0,28(sp)
 1039              		.cfi_offset 8, -4
 1040 0004 0010     		addi	s0,sp,32
 1041              		.cfi_def_cfa 8, 0
 1042 0006 2326A4FE 		sw	a0,-20(s0)
 1043 000a 2324B4FE 		sw	a1,-24(s0)
 397:../Firmware/GD32VW55x_standard_peripheral/Source/gd32vw55x_usart.c ****     USART_RT(usart_periph) &= ~(USART_RT_RT);
 1044              		.loc 1 397 28
 1045 000e 8327C4FE 		lw	a5,-20(s0)
 1046 0012 D107     		addi	a5,a5,20
 1047 0014 9843     		lw	a4,0(a5)
 1048 0016 8327C4FE 		lw	a5,-20(s0)
 1049 001a D107     		addi	a5,a5,20
 1050 001c BE86     		mv	a3,a5
 1051 001e B70700FF 		li	a5,-16777216
 1052 0022 F98F     		and	a5,a4,a5
 1053 0024 9CC2     		sw	a5,0(a3)
 398:../Firmware/GD32VW55x_standard_peripheral/Source/gd32vw55x_usart.c ****     USART_RT(usart_periph) |= rtimeout;
 1054              		.loc 1 398 28
 1055 0026 8327C4FE 		lw	a5,-20(s0)
 1056 002a D107     		addi	a5,a5,20
 1057 002c 9843     		lw	a4,0(a5)
 1058 002e 8327C4FE 		lw	a5,-20(s0)
 1059 0032 D107     		addi	a5,a5,20
 1060 0034 BE86     		mv	a3,a5
 1061 0036 832784FE 		lw	a5,-24(s0)
 1062 003a D98F     		or	a5,a4,a5
 1063 003c 9CC2     		sw	a5,0(a3)
 399:../Firmware/GD32VW55x_standard_peripheral/Source/gd32vw55x_usart.c **** }
 1064              		.loc 1 399 1
 1065 003e 0100     		nop
 1066 0040 7244     		lw	s0,28(sp)
 1067              		.cfi_restore 8
 1068              		.cfi_def_cfa 2, 32
 1069 0042 0561     		addi	sp,sp,32
 1070              		.cfi_def_cfa_offset 0
 1071 0044 8280     		jr	ra
 1072              		.cfi_endproc
 1073              	.LFE364:
 1075              		.section	.text.usart_data_transmit,"ax",@progbits
 1076              		.align	1
 1077              		.globl	usart_data_transmit
 1079              	usart_data_transmit:
 1080              	.LFB365:
 400:../Firmware/GD32VW55x_standard_peripheral/Source/gd32vw55x_usart.c **** 
 401:../Firmware/GD32VW55x_standard_peripheral/Source/gd32vw55x_usart.c **** /*!
 402:../Firmware/GD32VW55x_standard_peripheral/Source/gd32vw55x_usart.c ****     \brief      USART transmit data function
 403:../Firmware/GD32VW55x_standard_peripheral/Source/gd32vw55x_usart.c ****     \param[in]  usart_periph: USART0/UARTx(x=1,2)
 404:../Firmware/GD32VW55x_standard_peripheral/Source/gd32vw55x_usart.c ****     \param[in]  data: data of transmission
 405:../Firmware/GD32VW55x_standard_peripheral/Source/gd32vw55x_usart.c ****     \param[out] none
 406:../Firmware/GD32VW55x_standard_peripheral/Source/gd32vw55x_usart.c ****     \retval     none
 407:../Firmware/GD32VW55x_standard_peripheral/Source/gd32vw55x_usart.c **** */
 408:../Firmware/GD32VW55x_standard_peripheral/Source/gd32vw55x_usart.c **** void usart_data_transmit(uint32_t usart_periph, uint16_t data)
 409:../Firmware/GD32VW55x_standard_peripheral/Source/gd32vw55x_usart.c **** {
 1081              		.loc 1 409 1
 1082              		.cfi_startproc
 1083 0000 0111     		addi	sp,sp,-32
 1084              		.cfi_def_cfa_offset 32
 1085 0002 22CE     		sw	s0,28(sp)
 1086              		.cfi_offset 8, -4
 1087 0004 0010     		addi	s0,sp,32
 1088              		.cfi_def_cfa 8, 0
 1089 0006 2326A4FE 		sw	a0,-20(s0)
 1090 000a AE87     		mv	a5,a1
 1091 000c 2315F4FE 		sh	a5,-22(s0)
 410:../Firmware/GD32VW55x_standard_peripheral/Source/gd32vw55x_usart.c ****     USART_TDATA(usart_periph) = (uint32_t)((uint16_t)USART_TDATA_TDATA & data);
 1092              		.loc 1 410 33
 1093 0010 8357A4FE 		lhu	a5,-22(s0)
 1094              		.loc 1 410 5
 1095 0014 0327C4FE 		lw	a4,-20(s0)
 1096 0018 13078702 		addi	a4,a4,40
 1097              		.loc 1 410 33
 1098 001c 93F7F71F 		andi	a5,a5,511
 1099              		.loc 1 410 31
 1100 0020 1CC3     		sw	a5,0(a4)
 411:../Firmware/GD32VW55x_standard_peripheral/Source/gd32vw55x_usart.c **** }
 1101              		.loc 1 411 1
 1102 0022 0100     		nop
 1103 0024 7244     		lw	s0,28(sp)
 1104              		.cfi_restore 8
 1105              		.cfi_def_cfa 2, 32
 1106 0026 0561     		addi	sp,sp,32
 1107              		.cfi_def_cfa_offset 0
 1108 0028 8280     		jr	ra
 1109              		.cfi_endproc
 1110              	.LFE365:
 1112              		.section	.text.usart_data_receive,"ax",@progbits
 1113              		.align	1
 1114              		.globl	usart_data_receive
 1116              	usart_data_receive:
 1117              	.LFB366:
 412:../Firmware/GD32VW55x_standard_peripheral/Source/gd32vw55x_usart.c **** 
 413:../Firmware/GD32VW55x_standard_peripheral/Source/gd32vw55x_usart.c **** /*!
 414:../Firmware/GD32VW55x_standard_peripheral/Source/gd32vw55x_usart.c ****     \brief      USART receive data function
 415:../Firmware/GD32VW55x_standard_peripheral/Source/gd32vw55x_usart.c ****     \param[in]  usart_periph: USART0/UARTx(x=1,2)
 416:../Firmware/GD32VW55x_standard_peripheral/Source/gd32vw55x_usart.c ****     \param[out] none
 417:../Firmware/GD32VW55x_standard_peripheral/Source/gd32vw55x_usart.c ****     \retval     data of received
 418:../Firmware/GD32VW55x_standard_peripheral/Source/gd32vw55x_usart.c **** */
 419:../Firmware/GD32VW55x_standard_peripheral/Source/gd32vw55x_usart.c **** 
 420:../Firmware/GD32VW55x_standard_peripheral/Source/gd32vw55x_usart.c **** uint16_t usart_data_receive(uint32_t usart_periph)
 421:../Firmware/GD32VW55x_standard_peripheral/Source/gd32vw55x_usart.c **** {
 1118              		.loc 1 421 1
 1119              		.cfi_startproc
 1120 0000 0111     		addi	sp,sp,-32
 1121              		.cfi_def_cfa_offset 32
 1122 0002 22CE     		sw	s0,28(sp)
 1123              		.cfi_offset 8, -4
 1124 0004 0010     		addi	s0,sp,32
 1125              		.cfi_def_cfa 8, 0
 1126 0006 2326A4FE 		sw	a0,-20(s0)
 422:../Firmware/GD32VW55x_standard_peripheral/Source/gd32vw55x_usart.c ****     return (uint16_t)(GET_BITS(USART_RDATA(usart_periph), 0U, 8U));
 1127              		.loc 1 422 23
 1128 000a 8327C4FE 		lw	a5,-20(s0)
 1129 000e 93874702 		addi	a5,a5,36
 1130 0012 9C43     		lw	a5,0(a5)
 1131              		.loc 1 422 12
 1132 0014 C207     		slli	a5,a5,16
 1133 0016 C183     		srli	a5,a5,16
 1134 0018 93F7F71F 		andi	a5,a5,511
 1135 001c C207     		slli	a5,a5,16
 1136 001e C183     		srli	a5,a5,16
 423:../Firmware/GD32VW55x_standard_peripheral/Source/gd32vw55x_usart.c **** }
 1137              		.loc 1 423 1
 1138 0020 3E85     		mv	a0,a5
 1139 0022 7244     		lw	s0,28(sp)
 1140              		.cfi_restore 8
 1141              		.cfi_def_cfa 2, 32
 1142 0024 0561     		addi	sp,sp,32
 1143              		.cfi_def_cfa_offset 0
 1144 0026 8280     		jr	ra
 1145              		.cfi_endproc
 1146              	.LFE366:
 1148              		.section	.text.usart_command_enable,"ax",@progbits
 1149              		.align	1
 1150              		.globl	usart_command_enable
 1152              	usart_command_enable:
 1153              	.LFB367:
 424:../Firmware/GD32VW55x_standard_peripheral/Source/gd32vw55x_usart.c **** 
 425:../Firmware/GD32VW55x_standard_peripheral/Source/gd32vw55x_usart.c **** /*!
 426:../Firmware/GD32VW55x_standard_peripheral/Source/gd32vw55x_usart.c ****     \brief      enable USART command
 427:../Firmware/GD32VW55x_standard_peripheral/Source/gd32vw55x_usart.c ****     \param[in]  usart_periph: USART0/UARTx(x=1,2)
 428:../Firmware/GD32VW55x_standard_peripheral/Source/gd32vw55x_usart.c ****     \param[in]  cmdtype: command type
 429:../Firmware/GD32VW55x_standard_peripheral/Source/gd32vw55x_usart.c ****                 only one parameter can be selected which is shown as below:
 430:../Firmware/GD32VW55x_standard_peripheral/Source/gd32vw55x_usart.c ****       \arg        USART_CMD_SBKCMD: send break command
 431:../Firmware/GD32VW55x_standard_peripheral/Source/gd32vw55x_usart.c ****       \arg        USART_CMD_MMCMD: mute mode command
 432:../Firmware/GD32VW55x_standard_peripheral/Source/gd32vw55x_usart.c ****       \arg        USART_CMD_RXFCMD: receive data flush command
 433:../Firmware/GD32VW55x_standard_peripheral/Source/gd32vw55x_usart.c ****       \arg        USART_CMD_TXFCMD: transmit data flush request
 434:../Firmware/GD32VW55x_standard_peripheral/Source/gd32vw55x_usart.c ****     \param[out] none
 435:../Firmware/GD32VW55x_standard_peripheral/Source/gd32vw55x_usart.c ****     \retval     none
 436:../Firmware/GD32VW55x_standard_peripheral/Source/gd32vw55x_usart.c **** */
 437:../Firmware/GD32VW55x_standard_peripheral/Source/gd32vw55x_usart.c **** void usart_command_enable(uint32_t usart_periph, uint32_t cmdtype)
 438:../Firmware/GD32VW55x_standard_peripheral/Source/gd32vw55x_usart.c **** {
 1154              		.loc 1 438 1
 1155              		.cfi_startproc
 1156 0000 0111     		addi	sp,sp,-32
 1157              		.cfi_def_cfa_offset 32
 1158 0002 22CE     		sw	s0,28(sp)
 1159              		.cfi_offset 8, -4
 1160 0004 0010     		addi	s0,sp,32
 1161              		.cfi_def_cfa 8, 0
 1162 0006 2326A4FE 		sw	a0,-20(s0)
 1163 000a 2324B4FE 		sw	a1,-24(s0)
 439:../Firmware/GD32VW55x_standard_peripheral/Source/gd32vw55x_usart.c ****     USART_CMD(usart_periph) |= (cmdtype);
 1164              		.loc 1 439 29
 1165 000e 8327C4FE 		lw	a5,-20(s0)
 1166 0012 E107     		addi	a5,a5,24
 1167 0014 9843     		lw	a4,0(a5)
 1168 0016 8327C4FE 		lw	a5,-20(s0)
 1169 001a E107     		addi	a5,a5,24
 1170 001c BE86     		mv	a3,a5
 1171 001e 832784FE 		lw	a5,-24(s0)
 1172 0022 D98F     		or	a5,a4,a5
 1173 0024 9CC2     		sw	a5,0(a3)
 440:../Firmware/GD32VW55x_standard_peripheral/Source/gd32vw55x_usart.c **** }
 1174              		.loc 1 440 1
 1175 0026 0100     		nop
 1176 0028 7244     		lw	s0,28(sp)
 1177              		.cfi_restore 8
 1178              		.cfi_def_cfa 2, 32
 1179 002a 0561     		addi	sp,sp,32
 1180              		.cfi_def_cfa_offset 0
 1181 002c 8280     		jr	ra
 1182              		.cfi_endproc
 1183              	.LFE367:
 1185              		.section	.text.usart_address_config,"ax",@progbits
 1186              		.align	1
 1187              		.globl	usart_address_config
 1189              	usart_address_config:
 1190              	.LFB368:
 441:../Firmware/GD32VW55x_standard_peripheral/Source/gd32vw55x_usart.c **** 
 442:../Firmware/GD32VW55x_standard_peripheral/Source/gd32vw55x_usart.c **** /*!
 443:../Firmware/GD32VW55x_standard_peripheral/Source/gd32vw55x_usart.c ****     \brief      configure address of the USART
 444:../Firmware/GD32VW55x_standard_peripheral/Source/gd32vw55x_usart.c ****     \param[in]  usart_periph: USART0/UARTx(x=1,2)
 445:../Firmware/GD32VW55x_standard_peripheral/Source/gd32vw55x_usart.c ****     \param[in]  addr: 0x00-0xFF, address of USART terminal
 446:../Firmware/GD32VW55x_standard_peripheral/Source/gd32vw55x_usart.c ****     \param[out] none
 447:../Firmware/GD32VW55x_standard_peripheral/Source/gd32vw55x_usart.c ****     \retval     none
 448:../Firmware/GD32VW55x_standard_peripheral/Source/gd32vw55x_usart.c **** */
 449:../Firmware/GD32VW55x_standard_peripheral/Source/gd32vw55x_usart.c **** void usart_address_config(uint32_t usart_periph, uint8_t addr)
 450:../Firmware/GD32VW55x_standard_peripheral/Source/gd32vw55x_usart.c **** {
 1191              		.loc 1 450 1
 1192              		.cfi_startproc
 1193 0000 0111     		addi	sp,sp,-32
 1194              		.cfi_def_cfa_offset 32
 1195 0002 22CE     		sw	s0,28(sp)
 1196              		.cfi_offset 8, -4
 1197 0004 0010     		addi	s0,sp,32
 1198              		.cfi_def_cfa 8, 0
 1199 0006 2326A4FE 		sw	a0,-20(s0)
 1200 000a AE87     		mv	a5,a1
 1201 000c A305F4FE 		sb	a5,-21(s0)
 451:../Firmware/GD32VW55x_standard_peripheral/Source/gd32vw55x_usart.c ****     /* disable USART */
 452:../Firmware/GD32VW55x_standard_peripheral/Source/gd32vw55x_usart.c ****     USART_CTL0(usart_periph) &= ~(USART_CTL0_UEN);
 1202              		.loc 1 452 30
 1203 0010 8327C4FE 		lw	a5,-20(s0)
 1204 0014 9843     		lw	a4,0(a5)
 1205 0016 8327C4FE 		lw	a5,-20(s0)
 1206 001a 799B     		andi	a4,a4,-2
 1207 001c 98C3     		sw	a4,0(a5)
 453:../Firmware/GD32VW55x_standard_peripheral/Source/gd32vw55x_usart.c **** 
 454:../Firmware/GD32VW55x_standard_peripheral/Source/gd32vw55x_usart.c ****     USART_CTL1(usart_periph) &= ~(USART_CTL1_ADDR);
 1208              		.loc 1 454 30
 1209 001e 8327C4FE 		lw	a5,-20(s0)
 1210 0022 9107     		addi	a5,a5,4
 1211 0024 9843     		lw	a4,0(a5)
 1212 0026 8327C4FE 		lw	a5,-20(s0)
 1213 002a 9107     		addi	a5,a5,4
 1214 002c BE86     		mv	a3,a5
 1215 002e B7070001 		li	a5,16777216
 1216 0032 FD17     		addi	a5,a5,-1
 1217 0034 F98F     		and	a5,a4,a5
 1218 0036 9CC2     		sw	a5,0(a3)
 455:../Firmware/GD32VW55x_standard_peripheral/Source/gd32vw55x_usart.c ****     USART_CTL1(usart_periph) |= (USART_CTL1_ADDR & (((uint32_t)addr) << CTL1_ADDR_OFFSET));
 1219              		.loc 1 455 30
 1220 0038 8327C4FE 		lw	a5,-20(s0)
 1221 003c 9107     		addi	a5,a5,4
 1222 003e 9843     		lw	a4,0(a5)
 1223              		.loc 1 455 54
 1224 0040 8347B4FE 		lbu	a5,-21(s0)
 1225              		.loc 1 455 50
 1226 0044 E207     		slli	a5,a5,24
 1227              		.loc 1 455 30
 1228 0046 8326C4FE 		lw	a3,-20(s0)
 1229 004a 9106     		addi	a3,a3,4
 1230 004c D98F     		or	a5,a4,a5
 1231 004e 9CC2     		sw	a5,0(a3)
 456:../Firmware/GD32VW55x_standard_peripheral/Source/gd32vw55x_usart.c **** }
 1232              		.loc 1 456 1
 1233 0050 0100     		nop
 1234 0052 7244     		lw	s0,28(sp)
 1235              		.cfi_restore 8
 1236              		.cfi_def_cfa 2, 32
 1237 0054 0561     		addi	sp,sp,32
 1238              		.cfi_def_cfa_offset 0
 1239 0056 8280     		jr	ra
 1240              		.cfi_endproc
 1241              	.LFE368:
 1243              		.section	.text.usart_address_detection_mode_config,"ax",@progbits
 1244              		.align	1
 1245              		.globl	usart_address_detection_mode_config
 1247              	usart_address_detection_mode_config:
 1248              	.LFB369:
 457:../Firmware/GD32VW55x_standard_peripheral/Source/gd32vw55x_usart.c **** 
 458:../Firmware/GD32VW55x_standard_peripheral/Source/gd32vw55x_usart.c **** /*!
 459:../Firmware/GD32VW55x_standard_peripheral/Source/gd32vw55x_usart.c ****     \brief      configure address detection mode
 460:../Firmware/GD32VW55x_standard_peripheral/Source/gd32vw55x_usart.c ****     \param[in]  usart_periph: USART0/UARTx(x=1,2)
 461:../Firmware/GD32VW55x_standard_peripheral/Source/gd32vw55x_usart.c ****     \param[in]  addmod: address detection mode
 462:../Firmware/GD32VW55x_standard_peripheral/Source/gd32vw55x_usart.c ****                 only one parameter can be selected which is shown as below:
 463:../Firmware/GD32VW55x_standard_peripheral/Source/gd32vw55x_usart.c ****       \arg        USART_ADDM_4BIT: 4 bits
 464:../Firmware/GD32VW55x_standard_peripheral/Source/gd32vw55x_usart.c ****       \arg        USART_ADDM_FULLBIT: full bits
 465:../Firmware/GD32VW55x_standard_peripheral/Source/gd32vw55x_usart.c ****     \param[out] none
 466:../Firmware/GD32VW55x_standard_peripheral/Source/gd32vw55x_usart.c ****     \retval     none
 467:../Firmware/GD32VW55x_standard_peripheral/Source/gd32vw55x_usart.c **** */
 468:../Firmware/GD32VW55x_standard_peripheral/Source/gd32vw55x_usart.c **** void usart_address_detection_mode_config(uint32_t usart_periph, uint32_t addmod)
 469:../Firmware/GD32VW55x_standard_peripheral/Source/gd32vw55x_usart.c **** {
 1249              		.loc 1 469 1
 1250              		.cfi_startproc
 1251 0000 0111     		addi	sp,sp,-32
 1252              		.cfi_def_cfa_offset 32
 1253 0002 22CE     		sw	s0,28(sp)
 1254              		.cfi_offset 8, -4
 1255 0004 0010     		addi	s0,sp,32
 1256              		.cfi_def_cfa 8, 0
 1257 0006 2326A4FE 		sw	a0,-20(s0)
 1258 000a 2324B4FE 		sw	a1,-24(s0)
 470:../Firmware/GD32VW55x_standard_peripheral/Source/gd32vw55x_usart.c ****     /* disable USART */
 471:../Firmware/GD32VW55x_standard_peripheral/Source/gd32vw55x_usart.c ****     USART_CTL0(usart_periph) &= ~(USART_CTL0_UEN);
 1259              		.loc 1 471 30
 1260 000e 8327C4FE 		lw	a5,-20(s0)
 1261 0012 9843     		lw	a4,0(a5)
 1262 0014 8327C4FE 		lw	a5,-20(s0)
 1263 0018 799B     		andi	a4,a4,-2
 1264 001a 98C3     		sw	a4,0(a5)
 472:../Firmware/GD32VW55x_standard_peripheral/Source/gd32vw55x_usart.c **** 
 473:../Firmware/GD32VW55x_standard_peripheral/Source/gd32vw55x_usart.c ****     USART_CTL1(usart_periph) &= ~(USART_CTL1_ADDM);
 1265              		.loc 1 473 30
 1266 001c 8327C4FE 		lw	a5,-20(s0)
 1267 0020 9107     		addi	a5,a5,4
 1268 0022 9C43     		lw	a5,0(a5)
 1269 0024 0327C4FE 		lw	a4,-20(s0)
 1270 0028 1107     		addi	a4,a4,4
 1271 002a BD9B     		andi	a5,a5,-17
 1272 002c 1CC3     		sw	a5,0(a4)
 474:../Firmware/GD32VW55x_standard_peripheral/Source/gd32vw55x_usart.c ****     USART_CTL1(usart_periph) |= USART_CTL1_ADDM & (addmod);
 1273              		.loc 1 474 30
 1274 002e 8327C4FE 		lw	a5,-20(s0)
 1275 0032 9107     		addi	a5,a5,4
 1276 0034 9843     		lw	a4,0(a5)
 1277              		.loc 1 474 49
 1278 0036 832784FE 		lw	a5,-24(s0)
 1279 003a C18B     		andi	a5,a5,16
 1280              		.loc 1 474 30
 1281 003c 8326C4FE 		lw	a3,-20(s0)
 1282 0040 9106     		addi	a3,a3,4
 1283 0042 D98F     		or	a5,a4,a5
 1284 0044 9CC2     		sw	a5,0(a3)
 475:../Firmware/GD32VW55x_standard_peripheral/Source/gd32vw55x_usart.c **** }
 1285              		.loc 1 475 1
 1286 0046 0100     		nop
 1287 0048 7244     		lw	s0,28(sp)
 1288              		.cfi_restore 8
 1289              		.cfi_def_cfa 2, 32
 1290 004a 0561     		addi	sp,sp,32
 1291              		.cfi_def_cfa_offset 0
 1292 004c 8280     		jr	ra
 1293              		.cfi_endproc
 1294              	.LFE369:
 1296              		.section	.text.usart_mute_mode_enable,"ax",@progbits
 1297              		.align	1
 1298              		.globl	usart_mute_mode_enable
 1300              	usart_mute_mode_enable:
 1301              	.LFB370:
 476:../Firmware/GD32VW55x_standard_peripheral/Source/gd32vw55x_usart.c **** 
 477:../Firmware/GD32VW55x_standard_peripheral/Source/gd32vw55x_usart.c **** /*!
 478:../Firmware/GD32VW55x_standard_peripheral/Source/gd32vw55x_usart.c ****     \brief      enable mute mode
 479:../Firmware/GD32VW55x_standard_peripheral/Source/gd32vw55x_usart.c ****     \param[in]  usart_periph: USART0/UARTx(x=1,2)
 480:../Firmware/GD32VW55x_standard_peripheral/Source/gd32vw55x_usart.c ****     \param[out] none
 481:../Firmware/GD32VW55x_standard_peripheral/Source/gd32vw55x_usart.c ****     \retval     none
 482:../Firmware/GD32VW55x_standard_peripheral/Source/gd32vw55x_usart.c **** */
 483:../Firmware/GD32VW55x_standard_peripheral/Source/gd32vw55x_usart.c **** void usart_mute_mode_enable(uint32_t usart_periph)
 484:../Firmware/GD32VW55x_standard_peripheral/Source/gd32vw55x_usart.c **** {
 1302              		.loc 1 484 1
 1303              		.cfi_startproc
 1304 0000 0111     		addi	sp,sp,-32
 1305              		.cfi_def_cfa_offset 32
 1306 0002 22CE     		sw	s0,28(sp)
 1307              		.cfi_offset 8, -4
 1308 0004 0010     		addi	s0,sp,32
 1309              		.cfi_def_cfa 8, 0
 1310 0006 2326A4FE 		sw	a0,-20(s0)
 485:../Firmware/GD32VW55x_standard_peripheral/Source/gd32vw55x_usart.c ****     USART_CTL0(usart_periph) |= USART_CTL0_MEN;
 1311              		.loc 1 485 30
 1312 000a 8327C4FE 		lw	a5,-20(s0)
 1313 000e 9443     		lw	a3,0(a5)
 1314 0010 8327C4FE 		lw	a5,-20(s0)
 1315 0014 0967     		li	a4,8192
 1316 0016 558F     		or	a4,a3,a4
 1317 0018 98C3     		sw	a4,0(a5)
 486:../Firmware/GD32VW55x_standard_peripheral/Source/gd32vw55x_usart.c **** }
 1318              		.loc 1 486 1
 1319 001a 0100     		nop
 1320 001c 7244     		lw	s0,28(sp)
 1321              		.cfi_restore 8
 1322              		.cfi_def_cfa 2, 32
 1323 001e 0561     		addi	sp,sp,32
 1324              		.cfi_def_cfa_offset 0
 1325 0020 8280     		jr	ra
 1326              		.cfi_endproc
 1327              	.LFE370:
 1329              		.section	.text.usart_mute_mode_disable,"ax",@progbits
 1330              		.align	1
 1331              		.globl	usart_mute_mode_disable
 1333              	usart_mute_mode_disable:
 1334              	.LFB371:
 487:../Firmware/GD32VW55x_standard_peripheral/Source/gd32vw55x_usart.c **** 
 488:../Firmware/GD32VW55x_standard_peripheral/Source/gd32vw55x_usart.c **** /*!
 489:../Firmware/GD32VW55x_standard_peripheral/Source/gd32vw55x_usart.c ****     \brief      disable mute mode
 490:../Firmware/GD32VW55x_standard_peripheral/Source/gd32vw55x_usart.c ****     \param[in]  usart_periph: USART0/UARTx(x=1,2)
 491:../Firmware/GD32VW55x_standard_peripheral/Source/gd32vw55x_usart.c ****     \param[out] none
 492:../Firmware/GD32VW55x_standard_peripheral/Source/gd32vw55x_usart.c ****     \retval     none
 493:../Firmware/GD32VW55x_standard_peripheral/Source/gd32vw55x_usart.c **** */
 494:../Firmware/GD32VW55x_standard_peripheral/Source/gd32vw55x_usart.c **** void usart_mute_mode_disable(uint32_t usart_periph)
 495:../Firmware/GD32VW55x_standard_peripheral/Source/gd32vw55x_usart.c **** {
 1335              		.loc 1 495 1
 1336              		.cfi_startproc
 1337 0000 0111     		addi	sp,sp,-32
 1338              		.cfi_def_cfa_offset 32
 1339 0002 22CE     		sw	s0,28(sp)
 1340              		.cfi_offset 8, -4
 1341 0004 0010     		addi	s0,sp,32
 1342              		.cfi_def_cfa 8, 0
 1343 0006 2326A4FE 		sw	a0,-20(s0)
 496:../Firmware/GD32VW55x_standard_peripheral/Source/gd32vw55x_usart.c ****     USART_CTL0(usart_periph) &= ~(USART_CTL0_MEN);
 1344              		.loc 1 496 30
 1345 000a 8327C4FE 		lw	a5,-20(s0)
 1346 000e 9443     		lw	a3,0(a5)
 1347 0010 8327C4FE 		lw	a5,-20(s0)
 1348 0014 7977     		li	a4,-8192
 1349 0016 7D17     		addi	a4,a4,-1
 1350 0018 758F     		and	a4,a3,a4
 1351 001a 98C3     		sw	a4,0(a5)
 497:../Firmware/GD32VW55x_standard_peripheral/Source/gd32vw55x_usart.c **** }
 1352              		.loc 1 497 1
 1353 001c 0100     		nop
 1354 001e 7244     		lw	s0,28(sp)
 1355              		.cfi_restore 8
 1356              		.cfi_def_cfa 2, 32
 1357 0020 0561     		addi	sp,sp,32
 1358              		.cfi_def_cfa_offset 0
 1359 0022 8280     		jr	ra
 1360              		.cfi_endproc
 1361              	.LFE371:
 1363              		.section	.text.usart_mute_mode_wakeup_config,"ax",@progbits
 1364              		.align	1
 1365              		.globl	usart_mute_mode_wakeup_config
 1367              	usart_mute_mode_wakeup_config:
 1368              	.LFB372:
 498:../Firmware/GD32VW55x_standard_peripheral/Source/gd32vw55x_usart.c **** 
 499:../Firmware/GD32VW55x_standard_peripheral/Source/gd32vw55x_usart.c **** /*!
 500:../Firmware/GD32VW55x_standard_peripheral/Source/gd32vw55x_usart.c ****     \brief      configure wakeup method in mute mode
 501:../Firmware/GD32VW55x_standard_peripheral/Source/gd32vw55x_usart.c ****     \param[in]  usart_periph: USART0/UARTx(x=1,2)
 502:../Firmware/GD32VW55x_standard_peripheral/Source/gd32vw55x_usart.c ****     \param[in]  wmethod: two methods be used to enter or exit the mute mode
 503:../Firmware/GD32VW55x_standard_peripheral/Source/gd32vw55x_usart.c ****                 only one parameter can be selected which is shown as below:
 504:../Firmware/GD32VW55x_standard_peripheral/Source/gd32vw55x_usart.c ****       \arg        USART_WM_IDLE: idle line
 505:../Firmware/GD32VW55x_standard_peripheral/Source/gd32vw55x_usart.c ****       \arg        USART_WM_ADDR: address mark
 506:../Firmware/GD32VW55x_standard_peripheral/Source/gd32vw55x_usart.c ****     \param[out] none
 507:../Firmware/GD32VW55x_standard_peripheral/Source/gd32vw55x_usart.c ****     \retval     none
 508:../Firmware/GD32VW55x_standard_peripheral/Source/gd32vw55x_usart.c **** */
 509:../Firmware/GD32VW55x_standard_peripheral/Source/gd32vw55x_usart.c **** void usart_mute_mode_wakeup_config(uint32_t usart_periph, uint32_t wmethod)
 510:../Firmware/GD32VW55x_standard_peripheral/Source/gd32vw55x_usart.c **** {
 1369              		.loc 1 510 1
 1370              		.cfi_startproc
 1371 0000 0111     		addi	sp,sp,-32
 1372              		.cfi_def_cfa_offset 32
 1373 0002 22CE     		sw	s0,28(sp)
 1374              		.cfi_offset 8, -4
 1375 0004 0010     		addi	s0,sp,32
 1376              		.cfi_def_cfa 8, 0
 1377 0006 2326A4FE 		sw	a0,-20(s0)
 1378 000a 2324B4FE 		sw	a1,-24(s0)
 511:../Firmware/GD32VW55x_standard_peripheral/Source/gd32vw55x_usart.c ****     /* disable USART */
 512:../Firmware/GD32VW55x_standard_peripheral/Source/gd32vw55x_usart.c ****     USART_CTL0(usart_periph) &= ~(USART_CTL0_UEN);
 1379              		.loc 1 512 30
 1380 000e 8327C4FE 		lw	a5,-20(s0)
 1381 0012 9843     		lw	a4,0(a5)
 1382 0014 8327C4FE 		lw	a5,-20(s0)
 1383 0018 799B     		andi	a4,a4,-2
 1384 001a 98C3     		sw	a4,0(a5)
 513:../Firmware/GD32VW55x_standard_peripheral/Source/gd32vw55x_usart.c **** 
 514:../Firmware/GD32VW55x_standard_peripheral/Source/gd32vw55x_usart.c ****     USART_CTL0(usart_periph) &= ~(USART_CTL0_WM);
 1385              		.loc 1 514 30
 1386 001c 8327C4FE 		lw	a5,-20(s0)
 1387 0020 9443     		lw	a3,0(a5)
 1388 0022 8327C4FE 		lw	a5,-20(s0)
 1389 0026 7D77     		li	a4,-4096
 1390 0028 1307F77F 		addi	a4,a4,2047
 1391 002c 758F     		and	a4,a3,a4
 1392 002e 98C3     		sw	a4,0(a5)
 515:../Firmware/GD32VW55x_standard_peripheral/Source/gd32vw55x_usart.c ****     USART_CTL0(usart_periph) |= wmethod;
 1393              		.loc 1 515 30
 1394 0030 8327C4FE 		lw	a5,-20(s0)
 1395 0034 9443     		lw	a3,0(a5)
 1396 0036 8327C4FE 		lw	a5,-20(s0)
 1397 003a 032784FE 		lw	a4,-24(s0)
 1398 003e 558F     		or	a4,a3,a4
 1399 0040 98C3     		sw	a4,0(a5)
 516:../Firmware/GD32VW55x_standard_peripheral/Source/gd32vw55x_usart.c **** }
 1400              		.loc 1 516 1
 1401 0042 0100     		nop
 1402 0044 7244     		lw	s0,28(sp)
 1403              		.cfi_restore 8
 1404              		.cfi_def_cfa 2, 32
 1405 0046 0561     		addi	sp,sp,32
 1406              		.cfi_def_cfa_offset 0
 1407 0048 8280     		jr	ra
 1408              		.cfi_endproc
 1409              	.LFE372:
 1411              		.section	.text.usart_lin_mode_enable,"ax",@progbits
 1412              		.align	1
 1413              		.globl	usart_lin_mode_enable
 1415              	usart_lin_mode_enable:
 1416              	.LFB373:
 517:../Firmware/GD32VW55x_standard_peripheral/Source/gd32vw55x_usart.c **** 
 518:../Firmware/GD32VW55x_standard_peripheral/Source/gd32vw55x_usart.c **** /*!
 519:../Firmware/GD32VW55x_standard_peripheral/Source/gd32vw55x_usart.c ****     \brief      enable LIN mode
 520:../Firmware/GD32VW55x_standard_peripheral/Source/gd32vw55x_usart.c ****     \param[in]  usart_periph: USART0
 521:../Firmware/GD32VW55x_standard_peripheral/Source/gd32vw55x_usart.c ****     \param[out] none
 522:../Firmware/GD32VW55x_standard_peripheral/Source/gd32vw55x_usart.c ****     \retval     none
 523:../Firmware/GD32VW55x_standard_peripheral/Source/gd32vw55x_usart.c **** */
 524:../Firmware/GD32VW55x_standard_peripheral/Source/gd32vw55x_usart.c **** void usart_lin_mode_enable(uint32_t usart_periph)
 525:../Firmware/GD32VW55x_standard_peripheral/Source/gd32vw55x_usart.c **** {
 1417              		.loc 1 525 1
 1418              		.cfi_startproc
 1419 0000 0111     		addi	sp,sp,-32
 1420              		.cfi_def_cfa_offset 32
 1421 0002 22CE     		sw	s0,28(sp)
 1422              		.cfi_offset 8, -4
 1423 0004 0010     		addi	s0,sp,32
 1424              		.cfi_def_cfa 8, 0
 1425 0006 2326A4FE 		sw	a0,-20(s0)
 526:../Firmware/GD32VW55x_standard_peripheral/Source/gd32vw55x_usart.c ****     /* disable USART */
 527:../Firmware/GD32VW55x_standard_peripheral/Source/gd32vw55x_usart.c ****     USART_CTL0(usart_periph) &= ~(USART_CTL0_UEN);
 1426              		.loc 1 527 30
 1427 000a 8327C4FE 		lw	a5,-20(s0)
 1428 000e 9843     		lw	a4,0(a5)
 1429 0010 8327C4FE 		lw	a5,-20(s0)
 1430 0014 799B     		andi	a4,a4,-2
 1431 0016 98C3     		sw	a4,0(a5)
 528:../Firmware/GD32VW55x_standard_peripheral/Source/gd32vw55x_usart.c **** 
 529:../Firmware/GD32VW55x_standard_peripheral/Source/gd32vw55x_usart.c ****     USART_CTL1(usart_periph) |= USART_CTL1_LMEN;
 1432              		.loc 1 529 30
 1433 0018 8327C4FE 		lw	a5,-20(s0)
 1434 001c 9107     		addi	a5,a5,4
 1435 001e 9843     		lw	a4,0(a5)
 1436 0020 8327C4FE 		lw	a5,-20(s0)
 1437 0024 9107     		addi	a5,a5,4
 1438 0026 BE86     		mv	a3,a5
 1439 0028 9167     		li	a5,16384
 1440 002a D98F     		or	a5,a4,a5
 1441 002c 9CC2     		sw	a5,0(a3)
 530:../Firmware/GD32VW55x_standard_peripheral/Source/gd32vw55x_usart.c **** }
 1442              		.loc 1 530 1
 1443 002e 0100     		nop
 1444 0030 7244     		lw	s0,28(sp)
 1445              		.cfi_restore 8
 1446              		.cfi_def_cfa 2, 32
 1447 0032 0561     		addi	sp,sp,32
 1448              		.cfi_def_cfa_offset 0
 1449 0034 8280     		jr	ra
 1450              		.cfi_endproc
 1451              	.LFE373:
 1453              		.section	.text.usart_lin_mode_disable,"ax",@progbits
 1454              		.align	1
 1455              		.globl	usart_lin_mode_disable
 1457              	usart_lin_mode_disable:
 1458              	.LFB374:
 531:../Firmware/GD32VW55x_standard_peripheral/Source/gd32vw55x_usart.c **** 
 532:../Firmware/GD32VW55x_standard_peripheral/Source/gd32vw55x_usart.c **** /*!
 533:../Firmware/GD32VW55x_standard_peripheral/Source/gd32vw55x_usart.c ****     \brief      disable LIN mode
 534:../Firmware/GD32VW55x_standard_peripheral/Source/gd32vw55x_usart.c ****     \param[in]  usart_periph: USART0
 535:../Firmware/GD32VW55x_standard_peripheral/Source/gd32vw55x_usart.c ****     \param[out] none
 536:../Firmware/GD32VW55x_standard_peripheral/Source/gd32vw55x_usart.c ****     \retval     none
 537:../Firmware/GD32VW55x_standard_peripheral/Source/gd32vw55x_usart.c **** */
 538:../Firmware/GD32VW55x_standard_peripheral/Source/gd32vw55x_usart.c **** void usart_lin_mode_disable(uint32_t usart_periph)
 539:../Firmware/GD32VW55x_standard_peripheral/Source/gd32vw55x_usart.c **** {
 1459              		.loc 1 539 1
 1460              		.cfi_startproc
 1461 0000 0111     		addi	sp,sp,-32
 1462              		.cfi_def_cfa_offset 32
 1463 0002 22CE     		sw	s0,28(sp)
 1464              		.cfi_offset 8, -4
 1465 0004 0010     		addi	s0,sp,32
 1466              		.cfi_def_cfa 8, 0
 1467 0006 2326A4FE 		sw	a0,-20(s0)
 540:../Firmware/GD32VW55x_standard_peripheral/Source/gd32vw55x_usart.c ****     /* disable USART */
 541:../Firmware/GD32VW55x_standard_peripheral/Source/gd32vw55x_usart.c ****     USART_CTL0(usart_periph) &= ~(USART_CTL0_UEN);
 1468              		.loc 1 541 30
 1469 000a 8327C4FE 		lw	a5,-20(s0)
 1470 000e 9843     		lw	a4,0(a5)
 1471 0010 8327C4FE 		lw	a5,-20(s0)
 1472 0014 799B     		andi	a4,a4,-2
 1473 0016 98C3     		sw	a4,0(a5)
 542:../Firmware/GD32VW55x_standard_peripheral/Source/gd32vw55x_usart.c **** 
 543:../Firmware/GD32VW55x_standard_peripheral/Source/gd32vw55x_usart.c ****     USART_CTL1(usart_periph) &= ~(USART_CTL1_LMEN);
 1474              		.loc 1 543 30
 1475 0018 8327C4FE 		lw	a5,-20(s0)
 1476 001c 9107     		addi	a5,a5,4
 1477 001e 9843     		lw	a4,0(a5)
 1478 0020 8327C4FE 		lw	a5,-20(s0)
 1479 0024 9107     		addi	a5,a5,4
 1480 0026 BE86     		mv	a3,a5
 1481 0028 F177     		li	a5,-16384
 1482 002a FD17     		addi	a5,a5,-1
 1483 002c F98F     		and	a5,a4,a5
 1484 002e 9CC2     		sw	a5,0(a3)
 544:../Firmware/GD32VW55x_standard_peripheral/Source/gd32vw55x_usart.c **** }
 1485              		.loc 1 544 1
 1486 0030 0100     		nop
 1487 0032 7244     		lw	s0,28(sp)
 1488              		.cfi_restore 8
 1489              		.cfi_def_cfa 2, 32
 1490 0034 0561     		addi	sp,sp,32
 1491              		.cfi_def_cfa_offset 0
 1492 0036 8280     		jr	ra
 1493              		.cfi_endproc
 1494              	.LFE374:
 1496              		.section	.text.usart_lin_break_detection_length_config,"ax",@progbits
 1497              		.align	1
 1498              		.globl	usart_lin_break_detection_length_config
 1500              	usart_lin_break_detection_length_config:
 1501              	.LFB375:
 545:../Firmware/GD32VW55x_standard_peripheral/Source/gd32vw55x_usart.c **** 
 546:../Firmware/GD32VW55x_standard_peripheral/Source/gd32vw55x_usart.c **** /*!
 547:../Firmware/GD32VW55x_standard_peripheral/Source/gd32vw55x_usart.c ****     \brief      LIN break detection length
 548:../Firmware/GD32VW55x_standard_peripheral/Source/gd32vw55x_usart.c ****     \param[in]  usart_periph: USART0
 549:../Firmware/GD32VW55x_standard_peripheral/Source/gd32vw55x_usart.c ****     \param[in]  lblen: LIN break detection length
 550:../Firmware/GD32VW55x_standard_peripheral/Source/gd32vw55x_usart.c ****                 only one parameter can be selected which is shown as below:
 551:../Firmware/GD32VW55x_standard_peripheral/Source/gd32vw55x_usart.c ****       \arg        USART_LBLEN_10B: 10 bits break detection
 552:../Firmware/GD32VW55x_standard_peripheral/Source/gd32vw55x_usart.c ****       \arg        USART_LBLEN_11B: 11 bits break detection
 553:../Firmware/GD32VW55x_standard_peripheral/Source/gd32vw55x_usart.c ****     \param[out] none
 554:../Firmware/GD32VW55x_standard_peripheral/Source/gd32vw55x_usart.c ****     \retval     none
 555:../Firmware/GD32VW55x_standard_peripheral/Source/gd32vw55x_usart.c **** */
 556:../Firmware/GD32VW55x_standard_peripheral/Source/gd32vw55x_usart.c **** void usart_lin_break_detection_length_config(uint32_t usart_periph, uint32_t lblen)
 557:../Firmware/GD32VW55x_standard_peripheral/Source/gd32vw55x_usart.c **** {
 1502              		.loc 1 557 1
 1503              		.cfi_startproc
 1504 0000 0111     		addi	sp,sp,-32
 1505              		.cfi_def_cfa_offset 32
 1506 0002 22CE     		sw	s0,28(sp)
 1507              		.cfi_offset 8, -4
 1508 0004 0010     		addi	s0,sp,32
 1509              		.cfi_def_cfa 8, 0
 1510 0006 2326A4FE 		sw	a0,-20(s0)
 1511 000a 2324B4FE 		sw	a1,-24(s0)
 558:../Firmware/GD32VW55x_standard_peripheral/Source/gd32vw55x_usart.c ****     /* disable USART */
 559:../Firmware/GD32VW55x_standard_peripheral/Source/gd32vw55x_usart.c ****     USART_CTL0(usart_periph) &= ~(USART_CTL0_UEN);
 1512              		.loc 1 559 30
 1513 000e 8327C4FE 		lw	a5,-20(s0)
 1514 0012 9843     		lw	a4,0(a5)
 1515 0014 8327C4FE 		lw	a5,-20(s0)
 1516 0018 799B     		andi	a4,a4,-2
 1517 001a 98C3     		sw	a4,0(a5)
 560:../Firmware/GD32VW55x_standard_peripheral/Source/gd32vw55x_usart.c ****     USART_CTL1(usart_periph) &= ~(USART_CTL1_LBLEN);
 1518              		.loc 1 560 30
 1519 001c 8327C4FE 		lw	a5,-20(s0)
 1520 0020 9107     		addi	a5,a5,4
 1521 0022 9C43     		lw	a5,0(a5)
 1522 0024 0327C4FE 		lw	a4,-20(s0)
 1523 0028 1107     		addi	a4,a4,4
 1524 002a 93F7F7FD 		andi	a5,a5,-33
 1525 002e 1CC3     		sw	a5,0(a4)
 561:../Firmware/GD32VW55x_standard_peripheral/Source/gd32vw55x_usart.c ****     USART_CTL1(usart_periph) |= USART_CTL1_LBLEN & (lblen);
 1526              		.loc 1 561 30
 1527 0030 8327C4FE 		lw	a5,-20(s0)
 1528 0034 9107     		addi	a5,a5,4
 1529 0036 9843     		lw	a4,0(a5)
 1530              		.loc 1 561 50
 1531 0038 832784FE 		lw	a5,-24(s0)
 1532 003c 93F70702 		andi	a5,a5,32
 1533              		.loc 1 561 30
 1534 0040 8326C4FE 		lw	a3,-20(s0)
 1535 0044 9106     		addi	a3,a3,4
 1536 0046 D98F     		or	a5,a4,a5
 1537 0048 9CC2     		sw	a5,0(a3)
 562:../Firmware/GD32VW55x_standard_peripheral/Source/gd32vw55x_usart.c **** }
 1538              		.loc 1 562 1
 1539 004a 0100     		nop
 1540 004c 7244     		lw	s0,28(sp)
 1541              		.cfi_restore 8
 1542              		.cfi_def_cfa 2, 32
 1543 004e 0561     		addi	sp,sp,32
 1544              		.cfi_def_cfa_offset 0
 1545 0050 8280     		jr	ra
 1546              		.cfi_endproc
 1547              	.LFE375:
 1549              		.section	.text.usart_halfduplex_enable,"ax",@progbits
 1550              		.align	1
 1551              		.globl	usart_halfduplex_enable
 1553              	usart_halfduplex_enable:
 1554              	.LFB376:
 563:../Firmware/GD32VW55x_standard_peripheral/Source/gd32vw55x_usart.c **** 
 564:../Firmware/GD32VW55x_standard_peripheral/Source/gd32vw55x_usart.c **** /*!
 565:../Firmware/GD32VW55x_standard_peripheral/Source/gd32vw55x_usart.c ****     \brief      enable half-duplex mode
 566:../Firmware/GD32VW55x_standard_peripheral/Source/gd32vw55x_usart.c ****     \param[in]  usart_periph: USART0/UARTx(x=1,2)
 567:../Firmware/GD32VW55x_standard_peripheral/Source/gd32vw55x_usart.c ****     \param[out] none
 568:../Firmware/GD32VW55x_standard_peripheral/Source/gd32vw55x_usart.c ****     \retval     none
 569:../Firmware/GD32VW55x_standard_peripheral/Source/gd32vw55x_usart.c **** */
 570:../Firmware/GD32VW55x_standard_peripheral/Source/gd32vw55x_usart.c **** void usart_halfduplex_enable(uint32_t usart_periph)
 571:../Firmware/GD32VW55x_standard_peripheral/Source/gd32vw55x_usart.c **** {
 1555              		.loc 1 571 1
 1556              		.cfi_startproc
 1557 0000 0111     		addi	sp,sp,-32
 1558              		.cfi_def_cfa_offset 32
 1559 0002 22CE     		sw	s0,28(sp)
 1560              		.cfi_offset 8, -4
 1561 0004 0010     		addi	s0,sp,32
 1562              		.cfi_def_cfa 8, 0
 1563 0006 2326A4FE 		sw	a0,-20(s0)
 572:../Firmware/GD32VW55x_standard_peripheral/Source/gd32vw55x_usart.c ****     /* disable USART */
 573:../Firmware/GD32VW55x_standard_peripheral/Source/gd32vw55x_usart.c ****     USART_CTL0(usart_periph) &= ~(USART_CTL0_UEN);
 1564              		.loc 1 573 30
 1565 000a 8327C4FE 		lw	a5,-20(s0)
 1566 000e 9843     		lw	a4,0(a5)
 1567 0010 8327C4FE 		lw	a5,-20(s0)
 1568 0014 799B     		andi	a4,a4,-2
 1569 0016 98C3     		sw	a4,0(a5)
 574:../Firmware/GD32VW55x_standard_peripheral/Source/gd32vw55x_usart.c **** 
 575:../Firmware/GD32VW55x_standard_peripheral/Source/gd32vw55x_usart.c ****     USART_CTL2(usart_periph) |= USART_CTL2_HDEN;
 1570              		.loc 1 575 30
 1571 0018 8327C4FE 		lw	a5,-20(s0)
 1572 001c A107     		addi	a5,a5,8
 1573 001e 9C43     		lw	a5,0(a5)
 1574 0020 0327C4FE 		lw	a4,-20(s0)
 1575 0024 2107     		addi	a4,a4,8
 1576 0026 93E78700 		ori	a5,a5,8
 1577 002a 1CC3     		sw	a5,0(a4)
 576:../Firmware/GD32VW55x_standard_peripheral/Source/gd32vw55x_usart.c **** }
 1578              		.loc 1 576 1
 1579 002c 0100     		nop
 1580 002e 7244     		lw	s0,28(sp)
 1581              		.cfi_restore 8
 1582              		.cfi_def_cfa 2, 32
 1583 0030 0561     		addi	sp,sp,32
 1584              		.cfi_def_cfa_offset 0
 1585 0032 8280     		jr	ra
 1586              		.cfi_endproc
 1587              	.LFE376:
 1589              		.section	.text.usart_halfduplex_disable,"ax",@progbits
 1590              		.align	1
 1591              		.globl	usart_halfduplex_disable
 1593              	usart_halfduplex_disable:
 1594              	.LFB377:
 577:../Firmware/GD32VW55x_standard_peripheral/Source/gd32vw55x_usart.c **** 
 578:../Firmware/GD32VW55x_standard_peripheral/Source/gd32vw55x_usart.c **** /*!
 579:../Firmware/GD32VW55x_standard_peripheral/Source/gd32vw55x_usart.c ****     \brief      disable half-duplex mode
 580:../Firmware/GD32VW55x_standard_peripheral/Source/gd32vw55x_usart.c ****     \param[in]  usart_periph: USART0/UARTx(x=1,2)
 581:../Firmware/GD32VW55x_standard_peripheral/Source/gd32vw55x_usart.c ****     \param[out] none
 582:../Firmware/GD32VW55x_standard_peripheral/Source/gd32vw55x_usart.c ****     \retval     none
 583:../Firmware/GD32VW55x_standard_peripheral/Source/gd32vw55x_usart.c **** */
 584:../Firmware/GD32VW55x_standard_peripheral/Source/gd32vw55x_usart.c **** void usart_halfduplex_disable(uint32_t usart_periph)
 585:../Firmware/GD32VW55x_standard_peripheral/Source/gd32vw55x_usart.c **** {
 1595              		.loc 1 585 1
 1596              		.cfi_startproc
 1597 0000 0111     		addi	sp,sp,-32
 1598              		.cfi_def_cfa_offset 32
 1599 0002 22CE     		sw	s0,28(sp)
 1600              		.cfi_offset 8, -4
 1601 0004 0010     		addi	s0,sp,32
 1602              		.cfi_def_cfa 8, 0
 1603 0006 2326A4FE 		sw	a0,-20(s0)
 586:../Firmware/GD32VW55x_standard_peripheral/Source/gd32vw55x_usart.c ****     /* disable USART */
 587:../Firmware/GD32VW55x_standard_peripheral/Source/gd32vw55x_usart.c ****     USART_CTL0(usart_periph) &= ~(USART_CTL0_UEN);
 1604              		.loc 1 587 30
 1605 000a 8327C4FE 		lw	a5,-20(s0)
 1606 000e 9843     		lw	a4,0(a5)
 1607 0010 8327C4FE 		lw	a5,-20(s0)
 1608 0014 799B     		andi	a4,a4,-2
 1609 0016 98C3     		sw	a4,0(a5)
 588:../Firmware/GD32VW55x_standard_peripheral/Source/gd32vw55x_usart.c **** 
 589:../Firmware/GD32VW55x_standard_peripheral/Source/gd32vw55x_usart.c ****     USART_CTL2(usart_periph) &= ~(USART_CTL2_HDEN);
 1610              		.loc 1 589 30
 1611 0018 8327C4FE 		lw	a5,-20(s0)
 1612 001c A107     		addi	a5,a5,8
 1613 001e 9C43     		lw	a5,0(a5)
 1614 0020 0327C4FE 		lw	a4,-20(s0)
 1615 0024 2107     		addi	a4,a4,8
 1616 0026 DD9B     		andi	a5,a5,-9
 1617 0028 1CC3     		sw	a5,0(a4)
 590:../Firmware/GD32VW55x_standard_peripheral/Source/gd32vw55x_usart.c **** }
 1618              		.loc 1 590 1
 1619 002a 0100     		nop
 1620 002c 7244     		lw	s0,28(sp)
 1621              		.cfi_restore 8
 1622              		.cfi_def_cfa 2, 32
 1623 002e 0561     		addi	sp,sp,32
 1624              		.cfi_def_cfa_offset 0
 1625 0030 8280     		jr	ra
 1626              		.cfi_endproc
 1627              	.LFE377:
 1629              		.section	.text.usart_clock_enable,"ax",@progbits
 1630              		.align	1
 1631              		.globl	usart_clock_enable
 1633              	usart_clock_enable:
 1634              	.LFB378:
 591:../Firmware/GD32VW55x_standard_peripheral/Source/gd32vw55x_usart.c **** 
 592:../Firmware/GD32VW55x_standard_peripheral/Source/gd32vw55x_usart.c **** /*!
 593:../Firmware/GD32VW55x_standard_peripheral/Source/gd32vw55x_usart.c ****     \brief      enable clock
 594:../Firmware/GD32VW55x_standard_peripheral/Source/gd32vw55x_usart.c ****     \param[in]  usart_periph: USART0
 595:../Firmware/GD32VW55x_standard_peripheral/Source/gd32vw55x_usart.c ****     \param[out] none
 596:../Firmware/GD32VW55x_standard_peripheral/Source/gd32vw55x_usart.c ****     \retval     none
 597:../Firmware/GD32VW55x_standard_peripheral/Source/gd32vw55x_usart.c **** */
 598:../Firmware/GD32VW55x_standard_peripheral/Source/gd32vw55x_usart.c **** void usart_clock_enable(uint32_t usart_periph)
 599:../Firmware/GD32VW55x_standard_peripheral/Source/gd32vw55x_usart.c **** {
 1635              		.loc 1 599 1
 1636              		.cfi_startproc
 1637 0000 0111     		addi	sp,sp,-32
 1638              		.cfi_def_cfa_offset 32
 1639 0002 22CE     		sw	s0,28(sp)
 1640              		.cfi_offset 8, -4
 1641 0004 0010     		addi	s0,sp,32
 1642              		.cfi_def_cfa 8, 0
 1643 0006 2326A4FE 		sw	a0,-20(s0)
 600:../Firmware/GD32VW55x_standard_peripheral/Source/gd32vw55x_usart.c ****     /* disable USART */
 601:../Firmware/GD32VW55x_standard_peripheral/Source/gd32vw55x_usart.c ****     USART_CTL0(usart_periph) &= ~(USART_CTL0_UEN);
 1644              		.loc 1 601 30
 1645 000a 8327C4FE 		lw	a5,-20(s0)
 1646 000e 9843     		lw	a4,0(a5)
 1647 0010 8327C4FE 		lw	a5,-20(s0)
 1648 0014 799B     		andi	a4,a4,-2
 1649 0016 98C3     		sw	a4,0(a5)
 602:../Firmware/GD32VW55x_standard_peripheral/Source/gd32vw55x_usart.c **** 
 603:../Firmware/GD32VW55x_standard_peripheral/Source/gd32vw55x_usart.c ****     USART_CTL1(usart_periph) |= USART_CTL1_CKEN;
 1650              		.loc 1 603 30
 1651 0018 8327C4FE 		lw	a5,-20(s0)
 1652 001c 9107     		addi	a5,a5,4
 1653 001e 9843     		lw	a4,0(a5)
 1654 0020 8327C4FE 		lw	a5,-20(s0)
 1655 0024 9107     		addi	a5,a5,4
 1656 0026 BE86     		mv	a3,a5
 1657 0028 8567     		li	a5,4096
 1658 002a 93870780 		addi	a5,a5,-2048
 1659 002e D98F     		or	a5,a4,a5
 1660 0030 9CC2     		sw	a5,0(a3)
 604:../Firmware/GD32VW55x_standard_peripheral/Source/gd32vw55x_usart.c **** }
 1661              		.loc 1 604 1
 1662 0032 0100     		nop
 1663 0034 7244     		lw	s0,28(sp)
 1664              		.cfi_restore 8
 1665              		.cfi_def_cfa 2, 32
 1666 0036 0561     		addi	sp,sp,32
 1667              		.cfi_def_cfa_offset 0
 1668 0038 8280     		jr	ra
 1669              		.cfi_endproc
 1670              	.LFE378:
 1672              		.section	.text.usart_clock_disable,"ax",@progbits
 1673              		.align	1
 1674              		.globl	usart_clock_disable
 1676              	usart_clock_disable:
 1677              	.LFB379:
 605:../Firmware/GD32VW55x_standard_peripheral/Source/gd32vw55x_usart.c **** 
 606:../Firmware/GD32VW55x_standard_peripheral/Source/gd32vw55x_usart.c **** /*!
 607:../Firmware/GD32VW55x_standard_peripheral/Source/gd32vw55x_usart.c ****     \brief      disable clock
 608:../Firmware/GD32VW55x_standard_peripheral/Source/gd32vw55x_usart.c ****     \param[in]  usart_periph: USART0
 609:../Firmware/GD32VW55x_standard_peripheral/Source/gd32vw55x_usart.c ****     \param[out] none
 610:../Firmware/GD32VW55x_standard_peripheral/Source/gd32vw55x_usart.c ****     \retval     none
 611:../Firmware/GD32VW55x_standard_peripheral/Source/gd32vw55x_usart.c **** */
 612:../Firmware/GD32VW55x_standard_peripheral/Source/gd32vw55x_usart.c **** void usart_clock_disable(uint32_t usart_periph)
 613:../Firmware/GD32VW55x_standard_peripheral/Source/gd32vw55x_usart.c **** {
 1678              		.loc 1 613 1
 1679              		.cfi_startproc
 1680 0000 0111     		addi	sp,sp,-32
 1681              		.cfi_def_cfa_offset 32
 1682 0002 22CE     		sw	s0,28(sp)
 1683              		.cfi_offset 8, -4
 1684 0004 0010     		addi	s0,sp,32
 1685              		.cfi_def_cfa 8, 0
 1686 0006 2326A4FE 		sw	a0,-20(s0)
 614:../Firmware/GD32VW55x_standard_peripheral/Source/gd32vw55x_usart.c ****     /* disable USART */
 615:../Firmware/GD32VW55x_standard_peripheral/Source/gd32vw55x_usart.c ****     USART_CTL0(usart_periph) &= ~(USART_CTL0_UEN);
 1687              		.loc 1 615 30
 1688 000a 8327C4FE 		lw	a5,-20(s0)
 1689 000e 9843     		lw	a4,0(a5)
 1690 0010 8327C4FE 		lw	a5,-20(s0)
 1691 0014 799B     		andi	a4,a4,-2
 1692 0016 98C3     		sw	a4,0(a5)
 616:../Firmware/GD32VW55x_standard_peripheral/Source/gd32vw55x_usart.c **** 
 617:../Firmware/GD32VW55x_standard_peripheral/Source/gd32vw55x_usart.c ****     USART_CTL1(usart_periph) &= ~(USART_CTL1_CKEN);
 1693              		.loc 1 617 30
 1694 0018 8327C4FE 		lw	a5,-20(s0)
 1695 001c 9107     		addi	a5,a5,4
 1696 001e 9843     		lw	a4,0(a5)
 1697 0020 8327C4FE 		lw	a5,-20(s0)
 1698 0024 9107     		addi	a5,a5,4
 1699 0026 BE86     		mv	a3,a5
 1700 0028 FD77     		li	a5,-4096
 1701 002a 9387F77F 		addi	a5,a5,2047
 1702 002e F98F     		and	a5,a4,a5
 1703 0030 9CC2     		sw	a5,0(a3)
 618:../Firmware/GD32VW55x_standard_peripheral/Source/gd32vw55x_usart.c **** }
 1704              		.loc 1 618 1
 1705 0032 0100     		nop
 1706 0034 7244     		lw	s0,28(sp)
 1707              		.cfi_restore 8
 1708              		.cfi_def_cfa 2, 32
 1709 0036 0561     		addi	sp,sp,32
 1710              		.cfi_def_cfa_offset 0
 1711 0038 8280     		jr	ra
 1712              		.cfi_endproc
 1713              	.LFE379:
 1715              		.section	.text.usart_synchronous_clock_config,"ax",@progbits
 1716              		.align	1
 1717              		.globl	usart_synchronous_clock_config
 1719              	usart_synchronous_clock_config:
 1720              	.LFB380:
 619:../Firmware/GD32VW55x_standard_peripheral/Source/gd32vw55x_usart.c **** 
 620:../Firmware/GD32VW55x_standard_peripheral/Source/gd32vw55x_usart.c **** /*!
 621:../Firmware/GD32VW55x_standard_peripheral/Source/gd32vw55x_usart.c ****     \brief      configure USART synchronous mode parameters
 622:../Firmware/GD32VW55x_standard_peripheral/Source/gd32vw55x_usart.c ****     \param[in]  usart_periph: USART0
 623:../Firmware/GD32VW55x_standard_peripheral/Source/gd32vw55x_usart.c ****     \param[in]  clen: last bit clock pulse
 624:../Firmware/GD32VW55x_standard_peripheral/Source/gd32vw55x_usart.c ****                 only one parameter can be selected which is shown as below:
 625:../Firmware/GD32VW55x_standard_peripheral/Source/gd32vw55x_usart.c ****       \arg        USART_CLEN_NONE: clock pulse of the last data bit (MSB) is not output to the CK p
 626:../Firmware/GD32VW55x_standard_peripheral/Source/gd32vw55x_usart.c ****       \arg        USART_CLEN_EN: clock pulse of the last data bit (MSB) is output to the CK pin
 627:../Firmware/GD32VW55x_standard_peripheral/Source/gd32vw55x_usart.c ****     \param[in]  cph: clock phase
 628:../Firmware/GD32VW55x_standard_peripheral/Source/gd32vw55x_usart.c ****                 only one parameter can be selected which is shown as below:
 629:../Firmware/GD32VW55x_standard_peripheral/Source/gd32vw55x_usart.c ****       \arg        USART_CPH_1CK: first clock transition is the first data capture edge
 630:../Firmware/GD32VW55x_standard_peripheral/Source/gd32vw55x_usart.c ****       \arg        USART_CPH_2CK: second clock transition is the first data capture edge
 631:../Firmware/GD32VW55x_standard_peripheral/Source/gd32vw55x_usart.c ****     \param[in]  cpl: clock polarity
 632:../Firmware/GD32VW55x_standard_peripheral/Source/gd32vw55x_usart.c ****                 only one parameter can be selected which is shown as below:
 633:../Firmware/GD32VW55x_standard_peripheral/Source/gd32vw55x_usart.c ****       \arg        USART_CPL_LOW: steady low value on CK pin
 634:../Firmware/GD32VW55x_standard_peripheral/Source/gd32vw55x_usart.c ****       \arg        USART_CPL_HIGH: steady high value on CK pin
 635:../Firmware/GD32VW55x_standard_peripheral/Source/gd32vw55x_usart.c ****     \param[out] none
 636:../Firmware/GD32VW55x_standard_peripheral/Source/gd32vw55x_usart.c ****     \retval     none
 637:../Firmware/GD32VW55x_standard_peripheral/Source/gd32vw55x_usart.c **** */
 638:../Firmware/GD32VW55x_standard_peripheral/Source/gd32vw55x_usart.c **** void usart_synchronous_clock_config(uint32_t usart_periph, uint32_t clen, uint32_t cph, uint32_t cp
 639:../Firmware/GD32VW55x_standard_peripheral/Source/gd32vw55x_usart.c **** {
 1721              		.loc 1 639 1
 1722              		.cfi_startproc
 1723 0000 0111     		addi	sp,sp,-32
 1724              		.cfi_def_cfa_offset 32
 1725 0002 22CE     		sw	s0,28(sp)
 1726              		.cfi_offset 8, -4
 1727 0004 0010     		addi	s0,sp,32
 1728              		.cfi_def_cfa 8, 0
 1729 0006 2326A4FE 		sw	a0,-20(s0)
 1730 000a 2324B4FE 		sw	a1,-24(s0)
 1731 000e 2322C4FE 		sw	a2,-28(s0)
 1732 0012 2320D4FE 		sw	a3,-32(s0)
 640:../Firmware/GD32VW55x_standard_peripheral/Source/gd32vw55x_usart.c ****     /* disable USART */
 641:../Firmware/GD32VW55x_standard_peripheral/Source/gd32vw55x_usart.c ****     USART_CTL0(usart_periph) &= ~(USART_CTL0_UEN);
 1733              		.loc 1 641 30
 1734 0016 8327C4FE 		lw	a5,-20(s0)
 1735 001a 9843     		lw	a4,0(a5)
 1736 001c 8327C4FE 		lw	a5,-20(s0)
 1737 0020 799B     		andi	a4,a4,-2
 1738 0022 98C3     		sw	a4,0(a5)
 642:../Firmware/GD32VW55x_standard_peripheral/Source/gd32vw55x_usart.c ****     /* reset USART_CTL1 CLEN,CPH,CPL bits */
 643:../Firmware/GD32VW55x_standard_peripheral/Source/gd32vw55x_usart.c ****     USART_CTL1(usart_periph) &= ~(USART_CTL1_CLEN | USART_CTL1_CPH | USART_CTL1_CPL);
 1739              		.loc 1 643 30
 1740 0024 8327C4FE 		lw	a5,-20(s0)
 1741 0028 9107     		addi	a5,a5,4
 1742 002a 9C43     		lw	a5,0(a5)
 1743 002c 0327C4FE 		lw	a4,-20(s0)
 1744 0030 1107     		addi	a4,a4,4
 1745 0032 93F7F78F 		andi	a5,a5,-1793
 1746 0036 1CC3     		sw	a5,0(a4)
 644:../Firmware/GD32VW55x_standard_peripheral/Source/gd32vw55x_usart.c **** 
 645:../Firmware/GD32VW55x_standard_peripheral/Source/gd32vw55x_usart.c ****     USART_CTL1(usart_periph) |= (USART_CTL1_CLEN & clen) | (USART_CTL1_CPH & cph) | (USART_CTL1_CPL
 1747              		.loc 1 645 30
 1748 0038 8327C4FE 		lw	a5,-20(s0)
 1749 003c 9107     		addi	a5,a5,4
 1750 003e 9843     		lw	a4,0(a5)
 1751              		.loc 1 645 50
 1752 0040 832784FE 		lw	a5,-24(s0)
 1753 0044 93F60710 		andi	a3,a5,256
 1754              		.loc 1 645 76
 1755 0048 832744FE 		lw	a5,-28(s0)
 1756 004c 93F70720 		andi	a5,a5,512
 1757              		.loc 1 645 58
 1758 0050 DD8E     		or	a3,a3,a5
 1759              		.loc 1 645 101
 1760 0052 832704FE 		lw	a5,-32(s0)
 1761 0056 93F70740 		andi	a5,a5,1024
 1762              		.loc 1 645 83
 1763 005a D58F     		or	a5,a3,a5
 1764              		.loc 1 645 30
 1765 005c 8326C4FE 		lw	a3,-20(s0)
 1766 0060 9106     		addi	a3,a3,4
 1767 0062 D98F     		or	a5,a4,a5
 1768 0064 9CC2     		sw	a5,0(a3)
 646:../Firmware/GD32VW55x_standard_peripheral/Source/gd32vw55x_usart.c **** }
 1769              		.loc 1 646 1
 1770 0066 0100     		nop
 1771 0068 7244     		lw	s0,28(sp)
 1772              		.cfi_restore 8
 1773              		.cfi_def_cfa 2, 32
 1774 006a 0561     		addi	sp,sp,32
 1775              		.cfi_def_cfa_offset 0
 1776 006c 8280     		jr	ra
 1777              		.cfi_endproc
 1778              	.LFE380:
 1780              		.section	.text.usart_guard_time_config,"ax",@progbits
 1781              		.align	1
 1782              		.globl	usart_guard_time_config
 1784              	usart_guard_time_config:
 1785              	.LFB381:
 647:../Firmware/GD32VW55x_standard_peripheral/Source/gd32vw55x_usart.c **** 
 648:../Firmware/GD32VW55x_standard_peripheral/Source/gd32vw55x_usart.c **** /*!
 649:../Firmware/GD32VW55x_standard_peripheral/Source/gd32vw55x_usart.c ****     \brief      configure guard time value in smartcard mode
 650:../Firmware/GD32VW55x_standard_peripheral/Source/gd32vw55x_usart.c ****     \param[in]  usart_periph: USART0
 651:../Firmware/GD32VW55x_standard_peripheral/Source/gd32vw55x_usart.c ****     \param[in]  guat: 0x00-0xFF
 652:../Firmware/GD32VW55x_standard_peripheral/Source/gd32vw55x_usart.c ****     \param[out] none
 653:../Firmware/GD32VW55x_standard_peripheral/Source/gd32vw55x_usart.c ****     \retval     none
 654:../Firmware/GD32VW55x_standard_peripheral/Source/gd32vw55x_usart.c **** */
 655:../Firmware/GD32VW55x_standard_peripheral/Source/gd32vw55x_usart.c **** void usart_guard_time_config(uint32_t usart_periph, uint8_t guat)
 656:../Firmware/GD32VW55x_standard_peripheral/Source/gd32vw55x_usart.c **** {
 1786              		.loc 1 656 1
 1787              		.cfi_startproc
 1788 0000 0111     		addi	sp,sp,-32
 1789              		.cfi_def_cfa_offset 32
 1790 0002 22CE     		sw	s0,28(sp)
 1791              		.cfi_offset 8, -4
 1792 0004 0010     		addi	s0,sp,32
 1793              		.cfi_def_cfa 8, 0
 1794 0006 2326A4FE 		sw	a0,-20(s0)
 1795 000a AE87     		mv	a5,a1
 1796 000c A305F4FE 		sb	a5,-21(s0)
 657:../Firmware/GD32VW55x_standard_peripheral/Source/gd32vw55x_usart.c ****     /* disable USART */
 658:../Firmware/GD32VW55x_standard_peripheral/Source/gd32vw55x_usart.c ****     USART_CTL0(usart_periph) &= ~(USART_CTL0_UEN);
 1797              		.loc 1 658 30
 1798 0010 8327C4FE 		lw	a5,-20(s0)
 1799 0014 9843     		lw	a4,0(a5)
 1800 0016 8327C4FE 		lw	a5,-20(s0)
 1801 001a 799B     		andi	a4,a4,-2
 1802 001c 98C3     		sw	a4,0(a5)
 659:../Firmware/GD32VW55x_standard_peripheral/Source/gd32vw55x_usart.c **** 
 660:../Firmware/GD32VW55x_standard_peripheral/Source/gd32vw55x_usart.c ****     USART_GP(usart_periph) &= ~(USART_GP_GUAT);
 1803              		.loc 1 660 28
 1804 001e 8327C4FE 		lw	a5,-20(s0)
 1805 0022 C107     		addi	a5,a5,16
 1806 0024 9843     		lw	a4,0(a5)
 1807 0026 8327C4FE 		lw	a5,-20(s0)
 1808 002a C107     		addi	a5,a5,16
 1809 002c BE86     		mv	a3,a5
 1810 002e C177     		li	a5,-65536
 1811 0030 9387F70F 		addi	a5,a5,255
 1812 0034 F98F     		and	a5,a4,a5
 1813 0036 9CC2     		sw	a5,0(a3)
 661:../Firmware/GD32VW55x_standard_peripheral/Source/gd32vw55x_usart.c ****     USART_GP(usart_periph) |= (USART_GP_GUAT & ((uint32_t)guat << GP_GUAT_OFFSET));
 1814              		.loc 1 661 28
 1815 0038 8327C4FE 		lw	a5,-20(s0)
 1816 003c C107     		addi	a5,a5,16
 1817 003e 9843     		lw	a4,0(a5)
 1818              		.loc 1 661 49
 1819 0040 8347B4FE 		lbu	a5,-21(s0)
 1820              		.loc 1 661 64
 1821 0044 93968700 		slli	a3,a5,8
 1822              		.loc 1 661 46
 1823 0048 C167     		li	a5,65536
 1824 004a FD17     		addi	a5,a5,-1
 1825 004c F58F     		and	a5,a3,a5
 1826              		.loc 1 661 28
 1827 004e 8326C4FE 		lw	a3,-20(s0)
 1828 0052 C106     		addi	a3,a3,16
 1829 0054 D98F     		or	a5,a4,a5
 1830 0056 9CC2     		sw	a5,0(a3)
 662:../Firmware/GD32VW55x_standard_peripheral/Source/gd32vw55x_usart.c **** }
 1831              		.loc 1 662 1
 1832 0058 0100     		nop
 1833 005a 7244     		lw	s0,28(sp)
 1834              		.cfi_restore 8
 1835              		.cfi_def_cfa 2, 32
 1836 005c 0561     		addi	sp,sp,32
 1837              		.cfi_def_cfa_offset 0
 1838 005e 8280     		jr	ra
 1839              		.cfi_endproc
 1840              	.LFE381:
 1842              		.section	.text.usart_smartcard_mode_enable,"ax",@progbits
 1843              		.align	1
 1844              		.globl	usart_smartcard_mode_enable
 1846              	usart_smartcard_mode_enable:
 1847              	.LFB382:
 663:../Firmware/GD32VW55x_standard_peripheral/Source/gd32vw55x_usart.c **** 
 664:../Firmware/GD32VW55x_standard_peripheral/Source/gd32vw55x_usart.c **** /*!
 665:../Firmware/GD32VW55x_standard_peripheral/Source/gd32vw55x_usart.c ****     \brief      enable smartcard mode
 666:../Firmware/GD32VW55x_standard_peripheral/Source/gd32vw55x_usart.c ****     \param[in]  usart_periph: USART0
 667:../Firmware/GD32VW55x_standard_peripheral/Source/gd32vw55x_usart.c ****     \param[out] none
 668:../Firmware/GD32VW55x_standard_peripheral/Source/gd32vw55x_usart.c ****     \retval     none
 669:../Firmware/GD32VW55x_standard_peripheral/Source/gd32vw55x_usart.c **** */
 670:../Firmware/GD32VW55x_standard_peripheral/Source/gd32vw55x_usart.c **** void usart_smartcard_mode_enable(uint32_t usart_periph)
 671:../Firmware/GD32VW55x_standard_peripheral/Source/gd32vw55x_usart.c **** {
 1848              		.loc 1 671 1
 1849              		.cfi_startproc
 1850 0000 0111     		addi	sp,sp,-32
 1851              		.cfi_def_cfa_offset 32
 1852 0002 22CE     		sw	s0,28(sp)
 1853              		.cfi_offset 8, -4
 1854 0004 0010     		addi	s0,sp,32
 1855              		.cfi_def_cfa 8, 0
 1856 0006 2326A4FE 		sw	a0,-20(s0)
 672:../Firmware/GD32VW55x_standard_peripheral/Source/gd32vw55x_usart.c ****     /* disable USART */
 673:../Firmware/GD32VW55x_standard_peripheral/Source/gd32vw55x_usart.c ****     USART_CTL0(usart_periph) &= ~(USART_CTL0_UEN);
 1857              		.loc 1 673 30
 1858 000a 8327C4FE 		lw	a5,-20(s0)
 1859 000e 9843     		lw	a4,0(a5)
 1860 0010 8327C4FE 		lw	a5,-20(s0)
 1861 0014 799B     		andi	a4,a4,-2
 1862 0016 98C3     		sw	a4,0(a5)
 674:../Firmware/GD32VW55x_standard_peripheral/Source/gd32vw55x_usart.c **** 
 675:../Firmware/GD32VW55x_standard_peripheral/Source/gd32vw55x_usart.c ****     USART_CTL2(usart_periph) |= USART_CTL2_SCEN;
 1863              		.loc 1 675 30
 1864 0018 8327C4FE 		lw	a5,-20(s0)
 1865 001c A107     		addi	a5,a5,8
 1866 001e 9C43     		lw	a5,0(a5)
 1867 0020 0327C4FE 		lw	a4,-20(s0)
 1868 0024 2107     		addi	a4,a4,8
 1869 0026 93E70702 		ori	a5,a5,32
 1870 002a 1CC3     		sw	a5,0(a4)
 676:../Firmware/GD32VW55x_standard_peripheral/Source/gd32vw55x_usart.c **** }
 1871              		.loc 1 676 1
 1872 002c 0100     		nop
 1873 002e 7244     		lw	s0,28(sp)
 1874              		.cfi_restore 8
 1875              		.cfi_def_cfa 2, 32
 1876 0030 0561     		addi	sp,sp,32
 1877              		.cfi_def_cfa_offset 0
 1878 0032 8280     		jr	ra
 1879              		.cfi_endproc
 1880              	.LFE382:
 1882              		.section	.text.usart_smartcard_mode_disable,"ax",@progbits
 1883              		.align	1
 1884              		.globl	usart_smartcard_mode_disable
 1886              	usart_smartcard_mode_disable:
 1887              	.LFB383:
 677:../Firmware/GD32VW55x_standard_peripheral/Source/gd32vw55x_usart.c **** 
 678:../Firmware/GD32VW55x_standard_peripheral/Source/gd32vw55x_usart.c **** /*!
 679:../Firmware/GD32VW55x_standard_peripheral/Source/gd32vw55x_usart.c ****     \brief      disable smartcard mode
 680:../Firmware/GD32VW55x_standard_peripheral/Source/gd32vw55x_usart.c ****     \param[in]  usart_periph: USART0
 681:../Firmware/GD32VW55x_standard_peripheral/Source/gd32vw55x_usart.c ****     \param[out] none
 682:../Firmware/GD32VW55x_standard_peripheral/Source/gd32vw55x_usart.c ****     \retval     none
 683:../Firmware/GD32VW55x_standard_peripheral/Source/gd32vw55x_usart.c **** */
 684:../Firmware/GD32VW55x_standard_peripheral/Source/gd32vw55x_usart.c **** void usart_smartcard_mode_disable(uint32_t usart_periph)
 685:../Firmware/GD32VW55x_standard_peripheral/Source/gd32vw55x_usart.c **** {
 1888              		.loc 1 685 1
 1889              		.cfi_startproc
 1890 0000 0111     		addi	sp,sp,-32
 1891              		.cfi_def_cfa_offset 32
 1892 0002 22CE     		sw	s0,28(sp)
 1893              		.cfi_offset 8, -4
 1894 0004 0010     		addi	s0,sp,32
 1895              		.cfi_def_cfa 8, 0
 1896 0006 2326A4FE 		sw	a0,-20(s0)
 686:../Firmware/GD32VW55x_standard_peripheral/Source/gd32vw55x_usart.c ****     /* disable USART */
 687:../Firmware/GD32VW55x_standard_peripheral/Source/gd32vw55x_usart.c ****     USART_CTL0(usart_periph) &= ~(USART_CTL0_UEN);
 1897              		.loc 1 687 30
 1898 000a 8327C4FE 		lw	a5,-20(s0)
 1899 000e 9843     		lw	a4,0(a5)
 1900 0010 8327C4FE 		lw	a5,-20(s0)
 1901 0014 799B     		andi	a4,a4,-2
 1902 0016 98C3     		sw	a4,0(a5)
 688:../Firmware/GD32VW55x_standard_peripheral/Source/gd32vw55x_usart.c **** 
 689:../Firmware/GD32VW55x_standard_peripheral/Source/gd32vw55x_usart.c ****     USART_CTL2(usart_periph) &= ~(USART_CTL2_SCEN);
 1903              		.loc 1 689 30
 1904 0018 8327C4FE 		lw	a5,-20(s0)
 1905 001c A107     		addi	a5,a5,8
 1906 001e 9C43     		lw	a5,0(a5)
 1907 0020 0327C4FE 		lw	a4,-20(s0)
 1908 0024 2107     		addi	a4,a4,8
 1909 0026 93F7F7FD 		andi	a5,a5,-33
 1910 002a 1CC3     		sw	a5,0(a4)
 690:../Firmware/GD32VW55x_standard_peripheral/Source/gd32vw55x_usart.c **** }
 1911              		.loc 1 690 1
 1912 002c 0100     		nop
 1913 002e 7244     		lw	s0,28(sp)
 1914              		.cfi_restore 8
 1915              		.cfi_def_cfa 2, 32
 1916 0030 0561     		addi	sp,sp,32
 1917              		.cfi_def_cfa_offset 0
 1918 0032 8280     		jr	ra
 1919              		.cfi_endproc
 1920              	.LFE383:
 1922              		.section	.text.usart_smartcard_mode_nack_enable,"ax",@progbits
 1923              		.align	1
 1924              		.globl	usart_smartcard_mode_nack_enable
 1926              	usart_smartcard_mode_nack_enable:
 1927              	.LFB384:
 691:../Firmware/GD32VW55x_standard_peripheral/Source/gd32vw55x_usart.c **** 
 692:../Firmware/GD32VW55x_standard_peripheral/Source/gd32vw55x_usart.c **** /*!
 693:../Firmware/GD32VW55x_standard_peripheral/Source/gd32vw55x_usart.c ****     \brief      enable NACK in smartcard mode
 694:../Firmware/GD32VW55x_standard_peripheral/Source/gd32vw55x_usart.c ****     \param[in]  usart_periph: USART0
 695:../Firmware/GD32VW55x_standard_peripheral/Source/gd32vw55x_usart.c ****     \param[out] none
 696:../Firmware/GD32VW55x_standard_peripheral/Source/gd32vw55x_usart.c ****     \retval     none
 697:../Firmware/GD32VW55x_standard_peripheral/Source/gd32vw55x_usart.c **** */
 698:../Firmware/GD32VW55x_standard_peripheral/Source/gd32vw55x_usart.c **** void usart_smartcard_mode_nack_enable(uint32_t usart_periph)
 699:../Firmware/GD32VW55x_standard_peripheral/Source/gd32vw55x_usart.c **** {
 1928              		.loc 1 699 1
 1929              		.cfi_startproc
 1930 0000 0111     		addi	sp,sp,-32
 1931              		.cfi_def_cfa_offset 32
 1932 0002 22CE     		sw	s0,28(sp)
 1933              		.cfi_offset 8, -4
 1934 0004 0010     		addi	s0,sp,32
 1935              		.cfi_def_cfa 8, 0
 1936 0006 2326A4FE 		sw	a0,-20(s0)
 700:../Firmware/GD32VW55x_standard_peripheral/Source/gd32vw55x_usart.c ****     /* disable USART */
 701:../Firmware/GD32VW55x_standard_peripheral/Source/gd32vw55x_usart.c ****     USART_CTL0(usart_periph) &= ~(USART_CTL0_UEN);
 1937              		.loc 1 701 30
 1938 000a 8327C4FE 		lw	a5,-20(s0)
 1939 000e 9843     		lw	a4,0(a5)
 1940 0010 8327C4FE 		lw	a5,-20(s0)
 1941 0014 799B     		andi	a4,a4,-2
 1942 0016 98C3     		sw	a4,0(a5)
 702:../Firmware/GD32VW55x_standard_peripheral/Source/gd32vw55x_usart.c **** 
 703:../Firmware/GD32VW55x_standard_peripheral/Source/gd32vw55x_usart.c ****     USART_CTL2(usart_periph) |= USART_CTL2_NKEN;
 1943              		.loc 1 703 30
 1944 0018 8327C4FE 		lw	a5,-20(s0)
 1945 001c A107     		addi	a5,a5,8
 1946 001e 9C43     		lw	a5,0(a5)
 1947 0020 0327C4FE 		lw	a4,-20(s0)
 1948 0024 2107     		addi	a4,a4,8
 1949 0026 93E70701 		ori	a5,a5,16
 1950 002a 1CC3     		sw	a5,0(a4)
 704:../Firmware/GD32VW55x_standard_peripheral/Source/gd32vw55x_usart.c **** }
 1951              		.loc 1 704 1
 1952 002c 0100     		nop
 1953 002e 7244     		lw	s0,28(sp)
 1954              		.cfi_restore 8
 1955              		.cfi_def_cfa 2, 32
 1956 0030 0561     		addi	sp,sp,32
 1957              		.cfi_def_cfa_offset 0
 1958 0032 8280     		jr	ra
 1959              		.cfi_endproc
 1960              	.LFE384:
 1962              		.section	.text.usart_smartcard_mode_nack_disable,"ax",@progbits
 1963              		.align	1
 1964              		.globl	usart_smartcard_mode_nack_disable
 1966              	usart_smartcard_mode_nack_disable:
 1967              	.LFB385:
 705:../Firmware/GD32VW55x_standard_peripheral/Source/gd32vw55x_usart.c **** 
 706:../Firmware/GD32VW55x_standard_peripheral/Source/gd32vw55x_usart.c **** /*!
 707:../Firmware/GD32VW55x_standard_peripheral/Source/gd32vw55x_usart.c ****     \brief      disable NACK in smartcard mode
 708:../Firmware/GD32VW55x_standard_peripheral/Source/gd32vw55x_usart.c ****     \param[in]  usart_periph: USART0
 709:../Firmware/GD32VW55x_standard_peripheral/Source/gd32vw55x_usart.c ****     \param[out] none
 710:../Firmware/GD32VW55x_standard_peripheral/Source/gd32vw55x_usart.c ****     \retval     none
 711:../Firmware/GD32VW55x_standard_peripheral/Source/gd32vw55x_usart.c **** */
 712:../Firmware/GD32VW55x_standard_peripheral/Source/gd32vw55x_usart.c **** void usart_smartcard_mode_nack_disable(uint32_t usart_periph)
 713:../Firmware/GD32VW55x_standard_peripheral/Source/gd32vw55x_usart.c **** {
 1968              		.loc 1 713 1
 1969              		.cfi_startproc
 1970 0000 0111     		addi	sp,sp,-32
 1971              		.cfi_def_cfa_offset 32
 1972 0002 22CE     		sw	s0,28(sp)
 1973              		.cfi_offset 8, -4
 1974 0004 0010     		addi	s0,sp,32
 1975              		.cfi_def_cfa 8, 0
 1976 0006 2326A4FE 		sw	a0,-20(s0)
 714:../Firmware/GD32VW55x_standard_peripheral/Source/gd32vw55x_usart.c ****     /* disable USART */
 715:../Firmware/GD32VW55x_standard_peripheral/Source/gd32vw55x_usart.c ****     USART_CTL0(usart_periph) &= ~(USART_CTL0_UEN);
 1977              		.loc 1 715 30
 1978 000a 8327C4FE 		lw	a5,-20(s0)
 1979 000e 9843     		lw	a4,0(a5)
 1980 0010 8327C4FE 		lw	a5,-20(s0)
 1981 0014 799B     		andi	a4,a4,-2
 1982 0016 98C3     		sw	a4,0(a5)
 716:../Firmware/GD32VW55x_standard_peripheral/Source/gd32vw55x_usart.c **** 
 717:../Firmware/GD32VW55x_standard_peripheral/Source/gd32vw55x_usart.c ****     USART_CTL2(usart_periph) &= ~(USART_CTL2_NKEN);
 1983              		.loc 1 717 30
 1984 0018 8327C4FE 		lw	a5,-20(s0)
 1985 001c A107     		addi	a5,a5,8
 1986 001e 9C43     		lw	a5,0(a5)
 1987 0020 0327C4FE 		lw	a4,-20(s0)
 1988 0024 2107     		addi	a4,a4,8
 1989 0026 BD9B     		andi	a5,a5,-17
 1990 0028 1CC3     		sw	a5,0(a4)
 718:../Firmware/GD32VW55x_standard_peripheral/Source/gd32vw55x_usart.c **** }
 1991              		.loc 1 718 1
 1992 002a 0100     		nop
 1993 002c 7244     		lw	s0,28(sp)
 1994              		.cfi_restore 8
 1995              		.cfi_def_cfa 2, 32
 1996 002e 0561     		addi	sp,sp,32
 1997              		.cfi_def_cfa_offset 0
 1998 0030 8280     		jr	ra
 1999              		.cfi_endproc
 2000              	.LFE385:
 2002              		.section	.text.usart_smartcard_mode_early_nack_enable,"ax",@progbits
 2003              		.align	1
 2004              		.globl	usart_smartcard_mode_early_nack_enable
 2006              	usart_smartcard_mode_early_nack_enable:
 2007              	.LFB386:
 719:../Firmware/GD32VW55x_standard_peripheral/Source/gd32vw55x_usart.c **** 
 720:../Firmware/GD32VW55x_standard_peripheral/Source/gd32vw55x_usart.c **** /*!
 721:../Firmware/GD32VW55x_standard_peripheral/Source/gd32vw55x_usart.c ****     \brief      enable early NACK in smartcard mode
 722:../Firmware/GD32VW55x_standard_peripheral/Source/gd32vw55x_usart.c ****     \param[in]  usart_periph: USART0
 723:../Firmware/GD32VW55x_standard_peripheral/Source/gd32vw55x_usart.c ****     \param[out] none
 724:../Firmware/GD32VW55x_standard_peripheral/Source/gd32vw55x_usart.c ****     \retval     none
 725:../Firmware/GD32VW55x_standard_peripheral/Source/gd32vw55x_usart.c **** */
 726:../Firmware/GD32VW55x_standard_peripheral/Source/gd32vw55x_usart.c **** void usart_smartcard_mode_early_nack_enable(uint32_t usart_periph)
 727:../Firmware/GD32VW55x_standard_peripheral/Source/gd32vw55x_usart.c **** {
 2008              		.loc 1 727 1
 2009              		.cfi_startproc
 2010 0000 0111     		addi	sp,sp,-32
 2011              		.cfi_def_cfa_offset 32
 2012 0002 22CE     		sw	s0,28(sp)
 2013              		.cfi_offset 8, -4
 2014 0004 0010     		addi	s0,sp,32
 2015              		.cfi_def_cfa 8, 0
 2016 0006 2326A4FE 		sw	a0,-20(s0)
 728:../Firmware/GD32VW55x_standard_peripheral/Source/gd32vw55x_usart.c ****     USART_RFCS(usart_periph) |= USART_RFCS_ELNACK;
 2017              		.loc 1 728 30
 2018 000a 8327C4FE 		lw	a5,-20(s0)
 2019 000e 9387070D 		addi	a5,a5,208
 2020 0012 9C43     		lw	a5,0(a5)
 2021 0014 0327C4FE 		lw	a4,-20(s0)
 2022 0018 1307070D 		addi	a4,a4,208
 2023 001c 93E71700 		ori	a5,a5,1
 2024 0020 1CC3     		sw	a5,0(a4)
 729:../Firmware/GD32VW55x_standard_peripheral/Source/gd32vw55x_usart.c **** }
 2025              		.loc 1 729 1
 2026 0022 0100     		nop
 2027 0024 7244     		lw	s0,28(sp)
 2028              		.cfi_restore 8
 2029              		.cfi_def_cfa 2, 32
 2030 0026 0561     		addi	sp,sp,32
 2031              		.cfi_def_cfa_offset 0
 2032 0028 8280     		jr	ra
 2033              		.cfi_endproc
 2034              	.LFE386:
 2036              		.section	.text.usart_smartcard_mode_early_nack_disable,"ax",@progbits
 2037              		.align	1
 2038              		.globl	usart_smartcard_mode_early_nack_disable
 2040              	usart_smartcard_mode_early_nack_disable:
 2041              	.LFB387:
 730:../Firmware/GD32VW55x_standard_peripheral/Source/gd32vw55x_usart.c **** 
 731:../Firmware/GD32VW55x_standard_peripheral/Source/gd32vw55x_usart.c **** /*!
 732:../Firmware/GD32VW55x_standard_peripheral/Source/gd32vw55x_usart.c ****     \brief      disable early NACK in smartcard mode
 733:../Firmware/GD32VW55x_standard_peripheral/Source/gd32vw55x_usart.c ****     \param[in]  usart_periph: USART0
 734:../Firmware/GD32VW55x_standard_peripheral/Source/gd32vw55x_usart.c ****     \param[out] none
 735:../Firmware/GD32VW55x_standard_peripheral/Source/gd32vw55x_usart.c ****     \retval     none
 736:../Firmware/GD32VW55x_standard_peripheral/Source/gd32vw55x_usart.c **** */
 737:../Firmware/GD32VW55x_standard_peripheral/Source/gd32vw55x_usart.c **** void usart_smartcard_mode_early_nack_disable(uint32_t usart_periph)
 738:../Firmware/GD32VW55x_standard_peripheral/Source/gd32vw55x_usart.c **** {
 2042              		.loc 1 738 1
 2043              		.cfi_startproc
 2044 0000 0111     		addi	sp,sp,-32
 2045              		.cfi_def_cfa_offset 32
 2046 0002 22CE     		sw	s0,28(sp)
 2047              		.cfi_offset 8, -4
 2048 0004 0010     		addi	s0,sp,32
 2049              		.cfi_def_cfa 8, 0
 2050 0006 2326A4FE 		sw	a0,-20(s0)
 739:../Firmware/GD32VW55x_standard_peripheral/Source/gd32vw55x_usart.c ****     USART_RFCS(usart_periph) &= ~USART_RFCS_ELNACK;
 2051              		.loc 1 739 30
 2052 000a 8327C4FE 		lw	a5,-20(s0)
 2053 000e 9387070D 		addi	a5,a5,208
 2054 0012 9C43     		lw	a5,0(a5)
 2055 0014 0327C4FE 		lw	a4,-20(s0)
 2056 0018 1307070D 		addi	a4,a4,208
 2057 001c F99B     		andi	a5,a5,-2
 2058 001e 1CC3     		sw	a5,0(a4)
 740:../Firmware/GD32VW55x_standard_peripheral/Source/gd32vw55x_usart.c **** }
 2059              		.loc 1 740 1
 2060 0020 0100     		nop
 2061 0022 7244     		lw	s0,28(sp)
 2062              		.cfi_restore 8
 2063              		.cfi_def_cfa 2, 32
 2064 0024 0561     		addi	sp,sp,32
 2065              		.cfi_def_cfa_offset 0
 2066 0026 8280     		jr	ra
 2067              		.cfi_endproc
 2068              	.LFE387:
 2070              		.section	.text.usart_smartcard_autoretry_config,"ax",@progbits
 2071              		.align	1
 2072              		.globl	usart_smartcard_autoretry_config
 2074              	usart_smartcard_autoretry_config:
 2075              	.LFB388:
 741:../Firmware/GD32VW55x_standard_peripheral/Source/gd32vw55x_usart.c **** 
 742:../Firmware/GD32VW55x_standard_peripheral/Source/gd32vw55x_usart.c **** /*!
 743:../Firmware/GD32VW55x_standard_peripheral/Source/gd32vw55x_usart.c ****     \brief      configure smartcard auto-retry number
 744:../Firmware/GD32VW55x_standard_peripheral/Source/gd32vw55x_usart.c ****     \param[in]  usart_periph: USART0
 745:../Firmware/GD32VW55x_standard_peripheral/Source/gd32vw55x_usart.c ****     \param[in]  scrtnum: 0x00-0x07, smartcard auto-retry number
 746:../Firmware/GD32VW55x_standard_peripheral/Source/gd32vw55x_usart.c ****     \param[out] none
 747:../Firmware/GD32VW55x_standard_peripheral/Source/gd32vw55x_usart.c ****     \retval     none
 748:../Firmware/GD32VW55x_standard_peripheral/Source/gd32vw55x_usart.c **** */
 749:../Firmware/GD32VW55x_standard_peripheral/Source/gd32vw55x_usart.c **** void usart_smartcard_autoretry_config(uint32_t usart_periph, uint8_t scrtnum)
 750:../Firmware/GD32VW55x_standard_peripheral/Source/gd32vw55x_usart.c **** {
 2076              		.loc 1 750 1
 2077              		.cfi_startproc
 2078 0000 0111     		addi	sp,sp,-32
 2079              		.cfi_def_cfa_offset 32
 2080 0002 22CE     		sw	s0,28(sp)
 2081              		.cfi_offset 8, -4
 2082 0004 0010     		addi	s0,sp,32
 2083              		.cfi_def_cfa 8, 0
 2084 0006 2326A4FE 		sw	a0,-20(s0)
 2085 000a AE87     		mv	a5,a1
 2086 000c A305F4FE 		sb	a5,-21(s0)
 751:../Firmware/GD32VW55x_standard_peripheral/Source/gd32vw55x_usart.c ****     /* disable USART */
 752:../Firmware/GD32VW55x_standard_peripheral/Source/gd32vw55x_usart.c ****     USART_CTL0(usart_periph) &= ~(USART_CTL0_UEN);
 2087              		.loc 1 752 30
 2088 0010 8327C4FE 		lw	a5,-20(s0)
 2089 0014 9843     		lw	a4,0(a5)
 2090 0016 8327C4FE 		lw	a5,-20(s0)
 2091 001a 799B     		andi	a4,a4,-2
 2092 001c 98C3     		sw	a4,0(a5)
 753:../Firmware/GD32VW55x_standard_peripheral/Source/gd32vw55x_usart.c ****     USART_CTL2(usart_periph) &= ~(USART_CTL2_SCRTNUM);
 2093              		.loc 1 753 30
 2094 001e 8327C4FE 		lw	a5,-20(s0)
 2095 0022 A107     		addi	a5,a5,8
 2096 0024 9843     		lw	a4,0(a5)
 2097 0026 8327C4FE 		lw	a5,-20(s0)
 2098 002a A107     		addi	a5,a5,8
 2099 002c BE86     		mv	a3,a5
 2100 002e B707F2FF 		li	a5,-917504
 2101 0032 FD17     		addi	a5,a5,-1
 2102 0034 F98F     		and	a5,a4,a5
 2103 0036 9CC2     		sw	a5,0(a3)
 754:../Firmware/GD32VW55x_standard_peripheral/Source/gd32vw55x_usart.c ****     USART_CTL2(usart_periph) |= (USART_CTL2_SCRTNUM & ((uint32_t)scrtnum << CTL2_SCRTNUM_OFFSET));
 2104              		.loc 1 754 30
 2105 0038 8327C4FE 		lw	a5,-20(s0)
 2106 003c A107     		addi	a5,a5,8
 2107 003e 9843     		lw	a4,0(a5)
 2108              		.loc 1 754 56
 2109 0040 8347B4FE 		lbu	a5,-21(s0)
 2110              		.loc 1 754 74
 2111 0044 93961701 		slli	a3,a5,17
 2112              		.loc 1 754 53
 2113 0048 B7070E00 		li	a5,917504
 2114 004c F58F     		and	a5,a3,a5
 2115              		.loc 1 754 30
 2116 004e 8326C4FE 		lw	a3,-20(s0)
 2117 0052 A106     		addi	a3,a3,8
 2118 0054 D98F     		or	a5,a4,a5
 2119 0056 9CC2     		sw	a5,0(a3)
 755:../Firmware/GD32VW55x_standard_peripheral/Source/gd32vw55x_usart.c **** }
 2120              		.loc 1 755 1
 2121 0058 0100     		nop
 2122 005a 7244     		lw	s0,28(sp)
 2123              		.cfi_restore 8
 2124              		.cfi_def_cfa 2, 32
 2125 005c 0561     		addi	sp,sp,32
 2126              		.cfi_def_cfa_offset 0
 2127 005e 8280     		jr	ra
 2128              		.cfi_endproc
 2129              	.LFE388:
 2131              		.section	.text.usart_block_length_config,"ax",@progbits
 2132              		.align	1
 2133              		.globl	usart_block_length_config
 2135              	usart_block_length_config:
 2136              	.LFB389:
 756:../Firmware/GD32VW55x_standard_peripheral/Source/gd32vw55x_usart.c **** 
 757:../Firmware/GD32VW55x_standard_peripheral/Source/gd32vw55x_usart.c **** /*!
 758:../Firmware/GD32VW55x_standard_peripheral/Source/gd32vw55x_usart.c ****     \brief      configure block length
 759:../Firmware/GD32VW55x_standard_peripheral/Source/gd32vw55x_usart.c ****     \param[in]  usart_periph: USART0
 760:../Firmware/GD32VW55x_standard_peripheral/Source/gd32vw55x_usart.c ****     \param[in]  bl: 0x00000000-0x000000FF
 761:../Firmware/GD32VW55x_standard_peripheral/Source/gd32vw55x_usart.c ****     \param[out] none
 762:../Firmware/GD32VW55x_standard_peripheral/Source/gd32vw55x_usart.c ****     \retval     none
 763:../Firmware/GD32VW55x_standard_peripheral/Source/gd32vw55x_usart.c **** */
 764:../Firmware/GD32VW55x_standard_peripheral/Source/gd32vw55x_usart.c **** void usart_block_length_config(uint32_t usart_periph, uint8_t bl)
 765:../Firmware/GD32VW55x_standard_peripheral/Source/gd32vw55x_usart.c **** {
 2137              		.loc 1 765 1
 2138              		.cfi_startproc
 2139 0000 0111     		addi	sp,sp,-32
 2140              		.cfi_def_cfa_offset 32
 2141 0002 22CE     		sw	s0,28(sp)
 2142              		.cfi_offset 8, -4
 2143 0004 0010     		addi	s0,sp,32
 2144              		.cfi_def_cfa 8, 0
 2145 0006 2326A4FE 		sw	a0,-20(s0)
 2146 000a AE87     		mv	a5,a1
 2147 000c A305F4FE 		sb	a5,-21(s0)
 766:../Firmware/GD32VW55x_standard_peripheral/Source/gd32vw55x_usart.c ****     USART_RT(usart_periph) &= ~(USART_RT_BL);
 2148              		.loc 1 766 28
 2149 0010 8327C4FE 		lw	a5,-20(s0)
 2150 0014 D107     		addi	a5,a5,20
 2151 0016 9843     		lw	a4,0(a5)
 2152 0018 8327C4FE 		lw	a5,-20(s0)
 2153 001c D107     		addi	a5,a5,20
 2154 001e BE86     		mv	a3,a5
 2155 0020 B7070001 		li	a5,16777216
 2156 0024 FD17     		addi	a5,a5,-1
 2157 0026 F98F     		and	a5,a4,a5
 2158 0028 9CC2     		sw	a5,0(a3)
 767:../Firmware/GD32VW55x_standard_peripheral/Source/gd32vw55x_usart.c ****     USART_RT(usart_periph) |= (USART_RT_BL & ((uint32_t)bl << RT_BL_OFFSET));
 2159              		.loc 1 767 28
 2160 002a 8327C4FE 		lw	a5,-20(s0)
 2161 002e D107     		addi	a5,a5,20
 2162 0030 9843     		lw	a4,0(a5)
 2163              		.loc 1 767 47
 2164 0032 8347B4FE 		lbu	a5,-21(s0)
 2165              		.loc 1 767 44
 2166 0036 E207     		slli	a5,a5,24
 2167              		.loc 1 767 28
 2168 0038 8326C4FE 		lw	a3,-20(s0)
 2169 003c D106     		addi	a3,a3,20
 2170 003e D98F     		or	a5,a4,a5
 2171 0040 9CC2     		sw	a5,0(a3)
 768:../Firmware/GD32VW55x_standard_peripheral/Source/gd32vw55x_usart.c **** }
 2172              		.loc 1 768 1
 2173 0042 0100     		nop
 2174 0044 7244     		lw	s0,28(sp)
 2175              		.cfi_restore 8
 2176              		.cfi_def_cfa 2, 32
 2177 0046 0561     		addi	sp,sp,32
 2178              		.cfi_def_cfa_offset 0
 2179 0048 8280     		jr	ra
 2180              		.cfi_endproc
 2181              	.LFE389:
 2183              		.section	.text.usart_irda_mode_enable,"ax",@progbits
 2184              		.align	1
 2185              		.globl	usart_irda_mode_enable
 2187              	usart_irda_mode_enable:
 2188              	.LFB390:
 769:../Firmware/GD32VW55x_standard_peripheral/Source/gd32vw55x_usart.c **** 
 770:../Firmware/GD32VW55x_standard_peripheral/Source/gd32vw55x_usart.c **** /*!
 771:../Firmware/GD32VW55x_standard_peripheral/Source/gd32vw55x_usart.c ****     \brief      enable IrDA mode
 772:../Firmware/GD32VW55x_standard_peripheral/Source/gd32vw55x_usart.c ****     \param[in]  usart_periph: USART0
 773:../Firmware/GD32VW55x_standard_peripheral/Source/gd32vw55x_usart.c ****     \param[out] none
 774:../Firmware/GD32VW55x_standard_peripheral/Source/gd32vw55x_usart.c ****     \retval     none
 775:../Firmware/GD32VW55x_standard_peripheral/Source/gd32vw55x_usart.c **** */
 776:../Firmware/GD32VW55x_standard_peripheral/Source/gd32vw55x_usart.c **** void usart_irda_mode_enable(uint32_t usart_periph)
 777:../Firmware/GD32VW55x_standard_peripheral/Source/gd32vw55x_usart.c **** {
 2189              		.loc 1 777 1
 2190              		.cfi_startproc
 2191 0000 0111     		addi	sp,sp,-32
 2192              		.cfi_def_cfa_offset 32
 2193 0002 22CE     		sw	s0,28(sp)
 2194              		.cfi_offset 8, -4
 2195 0004 0010     		addi	s0,sp,32
 2196              		.cfi_def_cfa 8, 0
 2197 0006 2326A4FE 		sw	a0,-20(s0)
 778:../Firmware/GD32VW55x_standard_peripheral/Source/gd32vw55x_usart.c ****     /* disable USART */
 779:../Firmware/GD32VW55x_standard_peripheral/Source/gd32vw55x_usart.c ****     USART_CTL0(usart_periph) &= ~(USART_CTL0_UEN);
 2198              		.loc 1 779 30
 2199 000a 8327C4FE 		lw	a5,-20(s0)
 2200 000e 9843     		lw	a4,0(a5)
 2201 0010 8327C4FE 		lw	a5,-20(s0)
 2202 0014 799B     		andi	a4,a4,-2
 2203 0016 98C3     		sw	a4,0(a5)
 780:../Firmware/GD32VW55x_standard_peripheral/Source/gd32vw55x_usart.c **** 
 781:../Firmware/GD32VW55x_standard_peripheral/Source/gd32vw55x_usart.c ****     USART_CTL2(usart_periph) |= USART_CTL2_IREN;
 2204              		.loc 1 781 30
 2205 0018 8327C4FE 		lw	a5,-20(s0)
 2206 001c A107     		addi	a5,a5,8
 2207 001e 9C43     		lw	a5,0(a5)
 2208 0020 0327C4FE 		lw	a4,-20(s0)
 2209 0024 2107     		addi	a4,a4,8
 2210 0026 93E72700 		ori	a5,a5,2
 2211 002a 1CC3     		sw	a5,0(a4)
 782:../Firmware/GD32VW55x_standard_peripheral/Source/gd32vw55x_usart.c **** }
 2212              		.loc 1 782 1
 2213 002c 0100     		nop
 2214 002e 7244     		lw	s0,28(sp)
 2215              		.cfi_restore 8
 2216              		.cfi_def_cfa 2, 32
 2217 0030 0561     		addi	sp,sp,32
 2218              		.cfi_def_cfa_offset 0
 2219 0032 8280     		jr	ra
 2220              		.cfi_endproc
 2221              	.LFE390:
 2223              		.section	.text.usart_irda_mode_disable,"ax",@progbits
 2224              		.align	1
 2225              		.globl	usart_irda_mode_disable
 2227              	usart_irda_mode_disable:
 2228              	.LFB391:
 783:../Firmware/GD32VW55x_standard_peripheral/Source/gd32vw55x_usart.c **** 
 784:../Firmware/GD32VW55x_standard_peripheral/Source/gd32vw55x_usart.c **** /*!
 785:../Firmware/GD32VW55x_standard_peripheral/Source/gd32vw55x_usart.c ****     \brief      disable IrDA mode
 786:../Firmware/GD32VW55x_standard_peripheral/Source/gd32vw55x_usart.c ****     \param[in]  usart_periph: USART0
 787:../Firmware/GD32VW55x_standard_peripheral/Source/gd32vw55x_usart.c ****     \param[out] none
 788:../Firmware/GD32VW55x_standard_peripheral/Source/gd32vw55x_usart.c ****     \retval     none
 789:../Firmware/GD32VW55x_standard_peripheral/Source/gd32vw55x_usart.c **** */
 790:../Firmware/GD32VW55x_standard_peripheral/Source/gd32vw55x_usart.c **** void usart_irda_mode_disable(uint32_t usart_periph)
 791:../Firmware/GD32VW55x_standard_peripheral/Source/gd32vw55x_usart.c **** {
 2229              		.loc 1 791 1
 2230              		.cfi_startproc
 2231 0000 0111     		addi	sp,sp,-32
 2232              		.cfi_def_cfa_offset 32
 2233 0002 22CE     		sw	s0,28(sp)
 2234              		.cfi_offset 8, -4
 2235 0004 0010     		addi	s0,sp,32
 2236              		.cfi_def_cfa 8, 0
 2237 0006 2326A4FE 		sw	a0,-20(s0)
 792:../Firmware/GD32VW55x_standard_peripheral/Source/gd32vw55x_usart.c ****     /* disable USART */
 793:../Firmware/GD32VW55x_standard_peripheral/Source/gd32vw55x_usart.c ****     USART_CTL0(usart_periph) &= ~(USART_CTL0_UEN);
 2238              		.loc 1 793 30
 2239 000a 8327C4FE 		lw	a5,-20(s0)
 2240 000e 9843     		lw	a4,0(a5)
 2241 0010 8327C4FE 		lw	a5,-20(s0)
 2242 0014 799B     		andi	a4,a4,-2
 2243 0016 98C3     		sw	a4,0(a5)
 794:../Firmware/GD32VW55x_standard_peripheral/Source/gd32vw55x_usart.c **** 
 795:../Firmware/GD32VW55x_standard_peripheral/Source/gd32vw55x_usart.c ****     USART_CTL2(usart_periph) &= ~(USART_CTL2_IREN);
 2244              		.loc 1 795 30
 2245 0018 8327C4FE 		lw	a5,-20(s0)
 2246 001c A107     		addi	a5,a5,8
 2247 001e 9C43     		lw	a5,0(a5)
 2248 0020 0327C4FE 		lw	a4,-20(s0)
 2249 0024 2107     		addi	a4,a4,8
 2250 0026 F59B     		andi	a5,a5,-3
 2251 0028 1CC3     		sw	a5,0(a4)
 796:../Firmware/GD32VW55x_standard_peripheral/Source/gd32vw55x_usart.c **** }
 2252              		.loc 1 796 1
 2253 002a 0100     		nop
 2254 002c 7244     		lw	s0,28(sp)
 2255              		.cfi_restore 8
 2256              		.cfi_def_cfa 2, 32
 2257 002e 0561     		addi	sp,sp,32
 2258              		.cfi_def_cfa_offset 0
 2259 0030 8280     		jr	ra
 2260              		.cfi_endproc
 2261              	.LFE391:
 2263              		.section	.text.usart_prescaler_config,"ax",@progbits
 2264              		.align	1
 2265              		.globl	usart_prescaler_config
 2267              	usart_prescaler_config:
 2268              	.LFB392:
 797:../Firmware/GD32VW55x_standard_peripheral/Source/gd32vw55x_usart.c **** 
 798:../Firmware/GD32VW55x_standard_peripheral/Source/gd32vw55x_usart.c **** /*!
 799:../Firmware/GD32VW55x_standard_peripheral/Source/gd32vw55x_usart.c ****     \brief      configure the peripheral clock prescaler in USART IrDA low-power or smartcard mode
 800:../Firmware/GD32VW55x_standard_peripheral/Source/gd32vw55x_usart.c ****     \param[in]  usart_periph: USART0
 801:../Firmware/GD32VW55x_standard_peripheral/Source/gd32vw55x_usart.c ****     \param[in]  psc: 0x00000000-0x000000FF
 802:../Firmware/GD32VW55x_standard_peripheral/Source/gd32vw55x_usart.c ****     \param[out] none
 803:../Firmware/GD32VW55x_standard_peripheral/Source/gd32vw55x_usart.c ****     \retval     none
 804:../Firmware/GD32VW55x_standard_peripheral/Source/gd32vw55x_usart.c **** */
 805:../Firmware/GD32VW55x_standard_peripheral/Source/gd32vw55x_usart.c **** void usart_prescaler_config(uint32_t usart_periph, uint8_t psc)
 806:../Firmware/GD32VW55x_standard_peripheral/Source/gd32vw55x_usart.c **** {
 2269              		.loc 1 806 1
 2270              		.cfi_startproc
 2271 0000 0111     		addi	sp,sp,-32
 2272              		.cfi_def_cfa_offset 32
 2273 0002 22CE     		sw	s0,28(sp)
 2274              		.cfi_offset 8, -4
 2275 0004 0010     		addi	s0,sp,32
 2276              		.cfi_def_cfa 8, 0
 2277 0006 2326A4FE 		sw	a0,-20(s0)
 2278 000a AE87     		mv	a5,a1
 2279 000c A305F4FE 		sb	a5,-21(s0)
 807:../Firmware/GD32VW55x_standard_peripheral/Source/gd32vw55x_usart.c ****     /* disable USART */
 808:../Firmware/GD32VW55x_standard_peripheral/Source/gd32vw55x_usart.c ****     USART_CTL0(usart_periph) &= ~(USART_CTL0_UEN);
 2280              		.loc 1 808 30
 2281 0010 8327C4FE 		lw	a5,-20(s0)
 2282 0014 9843     		lw	a4,0(a5)
 2283 0016 8327C4FE 		lw	a5,-20(s0)
 2284 001a 799B     		andi	a4,a4,-2
 2285 001c 98C3     		sw	a4,0(a5)
 809:../Firmware/GD32VW55x_standard_peripheral/Source/gd32vw55x_usart.c ****     USART_GP(usart_periph) &= ~(USART_GP_PSC);
 2286              		.loc 1 809 28
 2287 001e 8327C4FE 		lw	a5,-20(s0)
 2288 0022 C107     		addi	a5,a5,16
 2289 0024 9C43     		lw	a5,0(a5)
 2290 0026 0327C4FE 		lw	a4,-20(s0)
 2291 002a 4107     		addi	a4,a4,16
 2292 002c 93F707F0 		andi	a5,a5,-256
 2293 0030 1CC3     		sw	a5,0(a4)
 810:../Firmware/GD32VW55x_standard_peripheral/Source/gd32vw55x_usart.c ****     USART_GP(usart_periph) |= (uint32_t)psc;
 2294              		.loc 1 810 28
 2295 0032 8327C4FE 		lw	a5,-20(s0)
 2296 0036 C107     		addi	a5,a5,16
 2297 0038 9843     		lw	a4,0(a5)
 2298              		.loc 1 810 31
 2299 003a 8347B4FE 		lbu	a5,-21(s0)
 2300              		.loc 1 810 28
 2301 003e 8326C4FE 		lw	a3,-20(s0)
 2302 0042 C106     		addi	a3,a3,16
 2303 0044 D98F     		or	a5,a4,a5
 2304 0046 9CC2     		sw	a5,0(a3)
 811:../Firmware/GD32VW55x_standard_peripheral/Source/gd32vw55x_usart.c **** }
 2305              		.loc 1 811 1
 2306 0048 0100     		nop
 2307 004a 7244     		lw	s0,28(sp)
 2308              		.cfi_restore 8
 2309              		.cfi_def_cfa 2, 32
 2310 004c 0561     		addi	sp,sp,32
 2311              		.cfi_def_cfa_offset 0
 2312 004e 8280     		jr	ra
 2313              		.cfi_endproc
 2314              	.LFE392:
 2316              		.section	.text.usart_irda_lowpower_config,"ax",@progbits
 2317              		.align	1
 2318              		.globl	usart_irda_lowpower_config
 2320              	usart_irda_lowpower_config:
 2321              	.LFB393:
 812:../Firmware/GD32VW55x_standard_peripheral/Source/gd32vw55x_usart.c **** 
 813:../Firmware/GD32VW55x_standard_peripheral/Source/gd32vw55x_usart.c **** /*!
 814:../Firmware/GD32VW55x_standard_peripheral/Source/gd32vw55x_usart.c ****     \brief      configure IrDA low-power
 815:../Firmware/GD32VW55x_standard_peripheral/Source/gd32vw55x_usart.c ****     \param[in]  usart_periph: USART0
 816:../Firmware/GD32VW55x_standard_peripheral/Source/gd32vw55x_usart.c ****     \param[in]  irlp: IrDA low-power or normal
 817:../Firmware/GD32VW55x_standard_peripheral/Source/gd32vw55x_usart.c ****                 only one parameter can be selected which is shown as below:
 818:../Firmware/GD32VW55x_standard_peripheral/Source/gd32vw55x_usart.c ****       \arg        USART_IRLP_LOW: low-power
 819:../Firmware/GD32VW55x_standard_peripheral/Source/gd32vw55x_usart.c ****       \arg        USART_IRLP_NORMAL: normal
 820:../Firmware/GD32VW55x_standard_peripheral/Source/gd32vw55x_usart.c ****     \param[out] none
 821:../Firmware/GD32VW55x_standard_peripheral/Source/gd32vw55x_usart.c ****     \retval     none
 822:../Firmware/GD32VW55x_standard_peripheral/Source/gd32vw55x_usart.c **** */
 823:../Firmware/GD32VW55x_standard_peripheral/Source/gd32vw55x_usart.c **** void usart_irda_lowpower_config(uint32_t usart_periph, uint32_t irlp)
 824:../Firmware/GD32VW55x_standard_peripheral/Source/gd32vw55x_usart.c **** {
 2322              		.loc 1 824 1
 2323              		.cfi_startproc
 2324 0000 0111     		addi	sp,sp,-32
 2325              		.cfi_def_cfa_offset 32
 2326 0002 22CE     		sw	s0,28(sp)
 2327              		.cfi_offset 8, -4
 2328 0004 0010     		addi	s0,sp,32
 2329              		.cfi_def_cfa 8, 0
 2330 0006 2326A4FE 		sw	a0,-20(s0)
 2331 000a 2324B4FE 		sw	a1,-24(s0)
 825:../Firmware/GD32VW55x_standard_peripheral/Source/gd32vw55x_usart.c ****     /* disable USART */
 826:../Firmware/GD32VW55x_standard_peripheral/Source/gd32vw55x_usart.c ****     USART_CTL0(usart_periph) &= ~(USART_CTL0_UEN);
 2332              		.loc 1 826 30
 2333 000e 8327C4FE 		lw	a5,-20(s0)
 2334 0012 9843     		lw	a4,0(a5)
 2335 0014 8327C4FE 		lw	a5,-20(s0)
 2336 0018 799B     		andi	a4,a4,-2
 2337 001a 98C3     		sw	a4,0(a5)
 827:../Firmware/GD32VW55x_standard_peripheral/Source/gd32vw55x_usart.c ****     USART_CTL2(usart_periph) &= ~(USART_CTL2_IRLP);
 2338              		.loc 1 827 30
 2339 001c 8327C4FE 		lw	a5,-20(s0)
 2340 0020 A107     		addi	a5,a5,8
 2341 0022 9C43     		lw	a5,0(a5)
 2342 0024 0327C4FE 		lw	a4,-20(s0)
 2343 0028 2107     		addi	a4,a4,8
 2344 002a ED9B     		andi	a5,a5,-5
 2345 002c 1CC3     		sw	a5,0(a4)
 828:../Firmware/GD32VW55x_standard_peripheral/Source/gd32vw55x_usart.c ****     USART_CTL2(usart_periph) |= (USART_CTL2_IRLP & irlp);
 2346              		.loc 1 828 30
 2347 002e 8327C4FE 		lw	a5,-20(s0)
 2348 0032 A107     		addi	a5,a5,8
 2349 0034 9843     		lw	a4,0(a5)
 2350              		.loc 1 828 50
 2351 0036 832784FE 		lw	a5,-24(s0)
 2352 003a 918B     		andi	a5,a5,4
 2353              		.loc 1 828 30
 2354 003c 8326C4FE 		lw	a3,-20(s0)
 2355 0040 A106     		addi	a3,a3,8
 2356 0042 D98F     		or	a5,a4,a5
 2357 0044 9CC2     		sw	a5,0(a3)
 829:../Firmware/GD32VW55x_standard_peripheral/Source/gd32vw55x_usart.c **** }
 2358              		.loc 1 829 1
 2359 0046 0100     		nop
 2360 0048 7244     		lw	s0,28(sp)
 2361              		.cfi_restore 8
 2362              		.cfi_def_cfa 2, 32
 2363 004a 0561     		addi	sp,sp,32
 2364              		.cfi_def_cfa_offset 0
 2365 004c 8280     		jr	ra
 2366              		.cfi_endproc
 2367              	.LFE393:
 2369              		.section	.text.usart_hardware_flow_rts_config,"ax",@progbits
 2370              		.align	1
 2371              		.globl	usart_hardware_flow_rts_config
 2373              	usart_hardware_flow_rts_config:
 2374              	.LFB394:
 830:../Firmware/GD32VW55x_standard_peripheral/Source/gd32vw55x_usart.c **** 
 831:../Firmware/GD32VW55x_standard_peripheral/Source/gd32vw55x_usart.c **** /*!
 832:../Firmware/GD32VW55x_standard_peripheral/Source/gd32vw55x_usart.c ****     \brief      configure hardware flow control RTS
 833:../Firmware/GD32VW55x_standard_peripheral/Source/gd32vw55x_usart.c ****     \param[in]  usart_periph: USART0/UARTx(x=1,2)
 834:../Firmware/GD32VW55x_standard_peripheral/Source/gd32vw55x_usart.c ****     \param[in]  rtsconfig: enable or disable RTS
 835:../Firmware/GD32VW55x_standard_peripheral/Source/gd32vw55x_usart.c ****                 only one parameter can be selected which is shown as below:
 836:../Firmware/GD32VW55x_standard_peripheral/Source/gd32vw55x_usart.c ****       \arg        USART_RTS_ENABLE: enable RTS
 837:../Firmware/GD32VW55x_standard_peripheral/Source/gd32vw55x_usart.c ****       \arg        USART_RTS_DISABLE: disable RTS
 838:../Firmware/GD32VW55x_standard_peripheral/Source/gd32vw55x_usart.c ****     \param[out] none
 839:../Firmware/GD32VW55x_standard_peripheral/Source/gd32vw55x_usart.c ****     \retval     none
 840:../Firmware/GD32VW55x_standard_peripheral/Source/gd32vw55x_usart.c **** */
 841:../Firmware/GD32VW55x_standard_peripheral/Source/gd32vw55x_usart.c **** void usart_hardware_flow_rts_config(uint32_t usart_periph, uint32_t rtsconfig)
 842:../Firmware/GD32VW55x_standard_peripheral/Source/gd32vw55x_usart.c **** {
 2375              		.loc 1 842 1
 2376              		.cfi_startproc
 2377 0000 0111     		addi	sp,sp,-32
 2378              		.cfi_def_cfa_offset 32
 2379 0002 22CE     		sw	s0,28(sp)
 2380              		.cfi_offset 8, -4
 2381 0004 0010     		addi	s0,sp,32
 2382              		.cfi_def_cfa 8, 0
 2383 0006 2326A4FE 		sw	a0,-20(s0)
 2384 000a 2324B4FE 		sw	a1,-24(s0)
 843:../Firmware/GD32VW55x_standard_peripheral/Source/gd32vw55x_usart.c ****     /* disable USART */
 844:../Firmware/GD32VW55x_standard_peripheral/Source/gd32vw55x_usart.c ****     USART_CTL0(usart_periph) &= ~(USART_CTL0_UEN);
 2385              		.loc 1 844 30
 2386 000e 8327C4FE 		lw	a5,-20(s0)
 2387 0012 9843     		lw	a4,0(a5)
 2388 0014 8327C4FE 		lw	a5,-20(s0)
 2389 0018 799B     		andi	a4,a4,-2
 2390 001a 98C3     		sw	a4,0(a5)
 845:../Firmware/GD32VW55x_standard_peripheral/Source/gd32vw55x_usart.c **** 
 846:../Firmware/GD32VW55x_standard_peripheral/Source/gd32vw55x_usart.c ****     USART_CTL2(usart_periph) &= ~(USART_CTL2_RTSEN);
 2391              		.loc 1 846 30
 2392 001c 8327C4FE 		lw	a5,-20(s0)
 2393 0020 A107     		addi	a5,a5,8
 2394 0022 9C43     		lw	a5,0(a5)
 2395 0024 0327C4FE 		lw	a4,-20(s0)
 2396 0028 2107     		addi	a4,a4,8
 2397 002a 93F7F7EF 		andi	a5,a5,-257
 2398 002e 1CC3     		sw	a5,0(a4)
 847:../Firmware/GD32VW55x_standard_peripheral/Source/gd32vw55x_usart.c ****     USART_CTL2(usart_periph) |= (USART_CTL2_RTSEN & rtsconfig);
 2399              		.loc 1 847 30
 2400 0030 8327C4FE 		lw	a5,-20(s0)
 2401 0034 A107     		addi	a5,a5,8
 2402 0036 9843     		lw	a4,0(a5)
 2403              		.loc 1 847 51
 2404 0038 832784FE 		lw	a5,-24(s0)
 2405 003c 93F70710 		andi	a5,a5,256
 2406              		.loc 1 847 30
 2407 0040 8326C4FE 		lw	a3,-20(s0)
 2408 0044 A106     		addi	a3,a3,8
 2409 0046 D98F     		or	a5,a4,a5
 2410 0048 9CC2     		sw	a5,0(a3)
 848:../Firmware/GD32VW55x_standard_peripheral/Source/gd32vw55x_usart.c **** }
 2411              		.loc 1 848 1
 2412 004a 0100     		nop
 2413 004c 7244     		lw	s0,28(sp)
 2414              		.cfi_restore 8
 2415              		.cfi_def_cfa 2, 32
 2416 004e 0561     		addi	sp,sp,32
 2417              		.cfi_def_cfa_offset 0
 2418 0050 8280     		jr	ra
 2419              		.cfi_endproc
 2420              	.LFE394:
 2422              		.section	.text.usart_hardware_flow_cts_config,"ax",@progbits
 2423              		.align	1
 2424              		.globl	usart_hardware_flow_cts_config
 2426              	usart_hardware_flow_cts_config:
 2427              	.LFB395:
 849:../Firmware/GD32VW55x_standard_peripheral/Source/gd32vw55x_usart.c **** 
 850:../Firmware/GD32VW55x_standard_peripheral/Source/gd32vw55x_usart.c **** /*!
 851:../Firmware/GD32VW55x_standard_peripheral/Source/gd32vw55x_usart.c ****     \brief      configure hardware flow control CTS
 852:../Firmware/GD32VW55x_standard_peripheral/Source/gd32vw55x_usart.c ****     \param[in]  usart_periph: USART0/UARTx(x=1,2)
 853:../Firmware/GD32VW55x_standard_peripheral/Source/gd32vw55x_usart.c ****     \param[in]  ctsconfig:  enable or disable CTS
 854:../Firmware/GD32VW55x_standard_peripheral/Source/gd32vw55x_usart.c ****                 only one parameter can be selected which is shown as below:
 855:../Firmware/GD32VW55x_standard_peripheral/Source/gd32vw55x_usart.c ****       \arg        USART_CTS_ENABLE:  enable CTS
 856:../Firmware/GD32VW55x_standard_peripheral/Source/gd32vw55x_usart.c ****       \arg        USART_CTS_DISABLE: disable CTS
 857:../Firmware/GD32VW55x_standard_peripheral/Source/gd32vw55x_usart.c ****     \param[out] none
 858:../Firmware/GD32VW55x_standard_peripheral/Source/gd32vw55x_usart.c ****     \retval     none
 859:../Firmware/GD32VW55x_standard_peripheral/Source/gd32vw55x_usart.c **** */
 860:../Firmware/GD32VW55x_standard_peripheral/Source/gd32vw55x_usart.c **** void usart_hardware_flow_cts_config(uint32_t usart_periph, uint32_t ctsconfig)
 861:../Firmware/GD32VW55x_standard_peripheral/Source/gd32vw55x_usart.c **** {
 2428              		.loc 1 861 1
 2429              		.cfi_startproc
 2430 0000 0111     		addi	sp,sp,-32
 2431              		.cfi_def_cfa_offset 32
 2432 0002 22CE     		sw	s0,28(sp)
 2433              		.cfi_offset 8, -4
 2434 0004 0010     		addi	s0,sp,32
 2435              		.cfi_def_cfa 8, 0
 2436 0006 2326A4FE 		sw	a0,-20(s0)
 2437 000a 2324B4FE 		sw	a1,-24(s0)
 862:../Firmware/GD32VW55x_standard_peripheral/Source/gd32vw55x_usart.c ****     /* disable USART */
 863:../Firmware/GD32VW55x_standard_peripheral/Source/gd32vw55x_usart.c ****     USART_CTL0(usart_periph) &= ~(USART_CTL0_UEN);
 2438              		.loc 1 863 30
 2439 000e 8327C4FE 		lw	a5,-20(s0)
 2440 0012 9843     		lw	a4,0(a5)
 2441 0014 8327C4FE 		lw	a5,-20(s0)
 2442 0018 799B     		andi	a4,a4,-2
 2443 001a 98C3     		sw	a4,0(a5)
 864:../Firmware/GD32VW55x_standard_peripheral/Source/gd32vw55x_usart.c **** 
 865:../Firmware/GD32VW55x_standard_peripheral/Source/gd32vw55x_usart.c ****     USART_CTL2(usart_periph) &= ~(USART_CTL2_CTSEN);
 2444              		.loc 1 865 30
 2445 001c 8327C4FE 		lw	a5,-20(s0)
 2446 0020 A107     		addi	a5,a5,8
 2447 0022 9C43     		lw	a5,0(a5)
 2448 0024 0327C4FE 		lw	a4,-20(s0)
 2449 0028 2107     		addi	a4,a4,8
 2450 002a 93F7F7DF 		andi	a5,a5,-513
 2451 002e 1CC3     		sw	a5,0(a4)
 866:../Firmware/GD32VW55x_standard_peripheral/Source/gd32vw55x_usart.c ****     USART_CTL2(usart_periph) |= (USART_CTL2_CTSEN & ctsconfig);
 2452              		.loc 1 866 30
 2453 0030 8327C4FE 		lw	a5,-20(s0)
 2454 0034 A107     		addi	a5,a5,8
 2455 0036 9843     		lw	a4,0(a5)
 2456              		.loc 1 866 51
 2457 0038 832784FE 		lw	a5,-24(s0)
 2458 003c 93F70720 		andi	a5,a5,512
 2459              		.loc 1 866 30
 2460 0040 8326C4FE 		lw	a3,-20(s0)
 2461 0044 A106     		addi	a3,a3,8
 2462 0046 D98F     		or	a5,a4,a5
 2463 0048 9CC2     		sw	a5,0(a3)
 867:../Firmware/GD32VW55x_standard_peripheral/Source/gd32vw55x_usart.c **** }
 2464              		.loc 1 867 1
 2465 004a 0100     		nop
 2466 004c 7244     		lw	s0,28(sp)
 2467              		.cfi_restore 8
 2468              		.cfi_def_cfa 2, 32
 2469 004e 0561     		addi	sp,sp,32
 2470              		.cfi_def_cfa_offset 0
 2471 0050 8280     		jr	ra
 2472              		.cfi_endproc
 2473              	.LFE395:
 2475              		.section	.text.usart_hardware_flow_coherence_config,"ax",@progbits
 2476              		.align	1
 2477              		.globl	usart_hardware_flow_coherence_config
 2479              	usart_hardware_flow_coherence_config:
 2480              	.LFB396:
 868:../Firmware/GD32VW55x_standard_peripheral/Source/gd32vw55x_usart.c **** 
 869:../Firmware/GD32VW55x_standard_peripheral/Source/gd32vw55x_usart.c ****  /*!
 870:../Firmware/GD32VW55x_standard_peripheral/Source/gd32vw55x_usart.c ****     \brief      configure hardware flow control coherence mode
 871:../Firmware/GD32VW55x_standard_peripheral/Source/gd32vw55x_usart.c ****     \param[in]  usart_periph:USART0/UARTx(x=1,2)
 872:../Firmware/GD32VW55x_standard_peripheral/Source/gd32vw55x_usart.c ****     \param[in]  hcm:
 873:../Firmware/GD32VW55x_standard_peripheral/Source/gd32vw55x_usart.c ****                 only one parameter can be selected which is shown as below:
 874:../Firmware/GD32VW55x_standard_peripheral/Source/gd32vw55x_usart.c ****       \arg        USART_HCM_NONE: nRTS signal equals to the rbne status register
 875:../Firmware/GD32VW55x_standard_peripheral/Source/gd32vw55x_usart.c ****       \arg        USART_HCM_EN: nRTS signal is set when the last data bit has been sampled
 876:../Firmware/GD32VW55x_standard_peripheral/Source/gd32vw55x_usart.c ****     \param[out] none
 877:../Firmware/GD32VW55x_standard_peripheral/Source/gd32vw55x_usart.c ****     \retval     none
 878:../Firmware/GD32VW55x_standard_peripheral/Source/gd32vw55x_usart.c **** */
 879:../Firmware/GD32VW55x_standard_peripheral/Source/gd32vw55x_usart.c **** void usart_hardware_flow_coherence_config(uint32_t usart_periph, uint32_t hcm)
 880:../Firmware/GD32VW55x_standard_peripheral/Source/gd32vw55x_usart.c **** {
 2481              		.loc 1 880 1
 2482              		.cfi_startproc
 2483 0000 0111     		addi	sp,sp,-32
 2484              		.cfi_def_cfa_offset 32
 2485 0002 22CE     		sw	s0,28(sp)
 2486              		.cfi_offset 8, -4
 2487 0004 0010     		addi	s0,sp,32
 2488              		.cfi_def_cfa 8, 0
 2489 0006 2326A4FE 		sw	a0,-20(s0)
 2490 000a 2324B4FE 		sw	a1,-24(s0)
 881:../Firmware/GD32VW55x_standard_peripheral/Source/gd32vw55x_usart.c ****     USART_CHC(usart_periph) &= ~(USART_CHC_HCM);
 2491              		.loc 1 881 29
 2492 000e 8327C4FE 		lw	a5,-20(s0)
 2493 0012 9387070C 		addi	a5,a5,192
 2494 0016 9C43     		lw	a5,0(a5)
 2495 0018 0327C4FE 		lw	a4,-20(s0)
 2496 001c 1307070C 		addi	a4,a4,192
 2497 0020 F99B     		andi	a5,a5,-2
 2498 0022 1CC3     		sw	a5,0(a4)
 882:../Firmware/GD32VW55x_standard_peripheral/Source/gd32vw55x_usart.c ****     USART_CHC(usart_periph) |= hcm;
 2499              		.loc 1 882 29
 2500 0024 8327C4FE 		lw	a5,-20(s0)
 2501 0028 9387070C 		addi	a5,a5,192
 2502 002c 9843     		lw	a4,0(a5)
 2503 002e 8327C4FE 		lw	a5,-20(s0)
 2504 0032 9387070C 		addi	a5,a5,192
 2505 0036 BE86     		mv	a3,a5
 2506 0038 832784FE 		lw	a5,-24(s0)
 2507 003c D98F     		or	a5,a4,a5
 2508 003e 9CC2     		sw	a5,0(a3)
 883:../Firmware/GD32VW55x_standard_peripheral/Source/gd32vw55x_usart.c **** }
 2509              		.loc 1 883 1
 2510 0040 0100     		nop
 2511 0042 7244     		lw	s0,28(sp)
 2512              		.cfi_restore 8
 2513              		.cfi_def_cfa 2, 32
 2514 0044 0561     		addi	sp,sp,32
 2515              		.cfi_def_cfa_offset 0
 2516 0046 8280     		jr	ra
 2517              		.cfi_endproc
 2518              	.LFE396:
 2520              		.section	.text.usart_rs485_driver_enable,"ax",@progbits
 2521              		.align	1
 2522              		.globl	usart_rs485_driver_enable
 2524              	usart_rs485_driver_enable:
 2525              	.LFB397:
 884:../Firmware/GD32VW55x_standard_peripheral/Source/gd32vw55x_usart.c **** 
 885:../Firmware/GD32VW55x_standard_peripheral/Source/gd32vw55x_usart.c **** /*!
 886:../Firmware/GD32VW55x_standard_peripheral/Source/gd32vw55x_usart.c ****     \brief      enable RS485 driver
 887:../Firmware/GD32VW55x_standard_peripheral/Source/gd32vw55x_usart.c ****     \param[in]  usart_periph: USART0/UARTx(x=1,2)
 888:../Firmware/GD32VW55x_standard_peripheral/Source/gd32vw55x_usart.c ****     \param[out] none
 889:../Firmware/GD32VW55x_standard_peripheral/Source/gd32vw55x_usart.c ****     \retval     none
 890:../Firmware/GD32VW55x_standard_peripheral/Source/gd32vw55x_usart.c **** */
 891:../Firmware/GD32VW55x_standard_peripheral/Source/gd32vw55x_usart.c **** void usart_rs485_driver_enable(uint32_t usart_periph)
 892:../Firmware/GD32VW55x_standard_peripheral/Source/gd32vw55x_usart.c **** {
 2526              		.loc 1 892 1
 2527              		.cfi_startproc
 2528 0000 0111     		addi	sp,sp,-32
 2529              		.cfi_def_cfa_offset 32
 2530 0002 22CE     		sw	s0,28(sp)
 2531              		.cfi_offset 8, -4
 2532 0004 0010     		addi	s0,sp,32
 2533              		.cfi_def_cfa 8, 0
 2534 0006 2326A4FE 		sw	a0,-20(s0)
 893:../Firmware/GD32VW55x_standard_peripheral/Source/gd32vw55x_usart.c ****     /* disable USART */
 894:../Firmware/GD32VW55x_standard_peripheral/Source/gd32vw55x_usart.c ****     USART_CTL0(usart_periph) &= ~(USART_CTL0_UEN);
 2535              		.loc 1 894 30
 2536 000a 8327C4FE 		lw	a5,-20(s0)
 2537 000e 9843     		lw	a4,0(a5)
 2538 0010 8327C4FE 		lw	a5,-20(s0)
 2539 0014 799B     		andi	a4,a4,-2
 2540 0016 98C3     		sw	a4,0(a5)
 895:../Firmware/GD32VW55x_standard_peripheral/Source/gd32vw55x_usart.c **** 
 896:../Firmware/GD32VW55x_standard_peripheral/Source/gd32vw55x_usart.c ****     USART_CTL2(usart_periph) |= USART_CTL2_DEM;
 2541              		.loc 1 896 30
 2542 0018 8327C4FE 		lw	a5,-20(s0)
 2543 001c A107     		addi	a5,a5,8
 2544 001e 9843     		lw	a4,0(a5)
 2545 0020 8327C4FE 		lw	a5,-20(s0)
 2546 0024 A107     		addi	a5,a5,8
 2547 0026 BE86     		mv	a3,a5
 2548 0028 9167     		li	a5,16384
 2549 002a D98F     		or	a5,a4,a5
 2550 002c 9CC2     		sw	a5,0(a3)
 897:../Firmware/GD32VW55x_standard_peripheral/Source/gd32vw55x_usart.c **** }
 2551              		.loc 1 897 1
 2552 002e 0100     		nop
 2553 0030 7244     		lw	s0,28(sp)
 2554              		.cfi_restore 8
 2555              		.cfi_def_cfa 2, 32
 2556 0032 0561     		addi	sp,sp,32
 2557              		.cfi_def_cfa_offset 0
 2558 0034 8280     		jr	ra
 2559              		.cfi_endproc
 2560              	.LFE397:
 2562              		.section	.text.usart_rs485_driver_disable,"ax",@progbits
 2563              		.align	1
 2564              		.globl	usart_rs485_driver_disable
 2566              	usart_rs485_driver_disable:
 2567              	.LFB398:
 898:../Firmware/GD32VW55x_standard_peripheral/Source/gd32vw55x_usart.c **** 
 899:../Firmware/GD32VW55x_standard_peripheral/Source/gd32vw55x_usart.c **** /*!
 900:../Firmware/GD32VW55x_standard_peripheral/Source/gd32vw55x_usart.c ****     \brief      disable RS485 driver
 901:../Firmware/GD32VW55x_standard_peripheral/Source/gd32vw55x_usart.c ****     \param[in]  usart_periph: USART0/UARTx(x=1,2)
 902:../Firmware/GD32VW55x_standard_peripheral/Source/gd32vw55x_usart.c ****     \param[out] none
 903:../Firmware/GD32VW55x_standard_peripheral/Source/gd32vw55x_usart.c ****     \retval     none
 904:../Firmware/GD32VW55x_standard_peripheral/Source/gd32vw55x_usart.c **** */
 905:../Firmware/GD32VW55x_standard_peripheral/Source/gd32vw55x_usart.c **** void usart_rs485_driver_disable(uint32_t usart_periph)
 906:../Firmware/GD32VW55x_standard_peripheral/Source/gd32vw55x_usart.c **** {
 2568              		.loc 1 906 1
 2569              		.cfi_startproc
 2570 0000 0111     		addi	sp,sp,-32
 2571              		.cfi_def_cfa_offset 32
 2572 0002 22CE     		sw	s0,28(sp)
 2573              		.cfi_offset 8, -4
 2574 0004 0010     		addi	s0,sp,32
 2575              		.cfi_def_cfa 8, 0
 2576 0006 2326A4FE 		sw	a0,-20(s0)
 907:../Firmware/GD32VW55x_standard_peripheral/Source/gd32vw55x_usart.c ****     /* disable USART */
 908:../Firmware/GD32VW55x_standard_peripheral/Source/gd32vw55x_usart.c ****     USART_CTL0(usart_periph) &= ~(USART_CTL0_UEN);
 2577              		.loc 1 908 30
 2578 000a 8327C4FE 		lw	a5,-20(s0)
 2579 000e 9843     		lw	a4,0(a5)
 2580 0010 8327C4FE 		lw	a5,-20(s0)
 2581 0014 799B     		andi	a4,a4,-2
 2582 0016 98C3     		sw	a4,0(a5)
 909:../Firmware/GD32VW55x_standard_peripheral/Source/gd32vw55x_usart.c **** 
 910:../Firmware/GD32VW55x_standard_peripheral/Source/gd32vw55x_usart.c ****     USART_CTL2(usart_periph) &= ~(USART_CTL2_DEM);
 2583              		.loc 1 910 30
 2584 0018 8327C4FE 		lw	a5,-20(s0)
 2585 001c A107     		addi	a5,a5,8
 2586 001e 9843     		lw	a4,0(a5)
 2587 0020 8327C4FE 		lw	a5,-20(s0)
 2588 0024 A107     		addi	a5,a5,8
 2589 0026 BE86     		mv	a3,a5
 2590 0028 F177     		li	a5,-16384
 2591 002a FD17     		addi	a5,a5,-1
 2592 002c F98F     		and	a5,a4,a5
 2593 002e 9CC2     		sw	a5,0(a3)
 911:../Firmware/GD32VW55x_standard_peripheral/Source/gd32vw55x_usart.c **** }
 2594              		.loc 1 911 1
 2595 0030 0100     		nop
 2596 0032 7244     		lw	s0,28(sp)
 2597              		.cfi_restore 8
 2598              		.cfi_def_cfa 2, 32
 2599 0034 0561     		addi	sp,sp,32
 2600              		.cfi_def_cfa_offset 0
 2601 0036 8280     		jr	ra
 2602              		.cfi_endproc
 2603              	.LFE398:
 2605              		.section	.text.usart_driver_assertime_config,"ax",@progbits
 2606              		.align	1
 2607              		.globl	usart_driver_assertime_config
 2609              	usart_driver_assertime_config:
 2610              	.LFB399:
 912:../Firmware/GD32VW55x_standard_peripheral/Source/gd32vw55x_usart.c **** 
 913:../Firmware/GD32VW55x_standard_peripheral/Source/gd32vw55x_usart.c **** /*!
 914:../Firmware/GD32VW55x_standard_peripheral/Source/gd32vw55x_usart.c ****     \brief      configure driver enable assertion time
 915:../Firmware/GD32VW55x_standard_peripheral/Source/gd32vw55x_usart.c ****     \param[in]  usart_periph: USART0/UARTx(x=1,2)
 916:../Firmware/GD32VW55x_standard_peripheral/Source/gd32vw55x_usart.c ****     \param[in]  deatime: 0x00-0x1F
 917:../Firmware/GD32VW55x_standard_peripheral/Source/gd32vw55x_usart.c ****     \param[out] none
 918:../Firmware/GD32VW55x_standard_peripheral/Source/gd32vw55x_usart.c ****     \retval     none
 919:../Firmware/GD32VW55x_standard_peripheral/Source/gd32vw55x_usart.c **** */
 920:../Firmware/GD32VW55x_standard_peripheral/Source/gd32vw55x_usart.c **** void usart_driver_assertime_config(uint32_t usart_periph, uint32_t deatime)
 921:../Firmware/GD32VW55x_standard_peripheral/Source/gd32vw55x_usart.c **** {
 2611              		.loc 1 921 1
 2612              		.cfi_startproc
 2613 0000 0111     		addi	sp,sp,-32
 2614              		.cfi_def_cfa_offset 32
 2615 0002 22CE     		sw	s0,28(sp)
 2616              		.cfi_offset 8, -4
 2617 0004 0010     		addi	s0,sp,32
 2618              		.cfi_def_cfa 8, 0
 2619 0006 2326A4FE 		sw	a0,-20(s0)
 2620 000a 2324B4FE 		sw	a1,-24(s0)
 922:../Firmware/GD32VW55x_standard_peripheral/Source/gd32vw55x_usart.c ****     /* disable USART */
 923:../Firmware/GD32VW55x_standard_peripheral/Source/gd32vw55x_usart.c ****     USART_CTL0(usart_periph) &= ~(USART_CTL0_UEN);
 2621              		.loc 1 923 30
 2622 000e 8327C4FE 		lw	a5,-20(s0)
 2623 0012 9843     		lw	a4,0(a5)
 2624 0014 8327C4FE 		lw	a5,-20(s0)
 2625 0018 799B     		andi	a4,a4,-2
 2626 001a 98C3     		sw	a4,0(a5)
 924:../Firmware/GD32VW55x_standard_peripheral/Source/gd32vw55x_usart.c **** 
 925:../Firmware/GD32VW55x_standard_peripheral/Source/gd32vw55x_usart.c ****     USART_CTL0(usart_periph) &= ~(USART_CTL0_DEA);
 2627              		.loc 1 925 30
 2628 001c 8327C4FE 		lw	a5,-20(s0)
 2629 0020 9443     		lw	a3,0(a5)
 2630 0022 8327C4FE 		lw	a5,-20(s0)
 2631 0026 370720FC 		li	a4,-65011712
 2632 002a 7D17     		addi	a4,a4,-1
 2633 002c 758F     		and	a4,a3,a4
 2634 002e 98C3     		sw	a4,0(a5)
 926:../Firmware/GD32VW55x_standard_peripheral/Source/gd32vw55x_usart.c ****     USART_CTL0(usart_periph) |= (USART_CTL0_DEA & ((deatime) << CTL0_DEA_OFFSET));
 2635              		.loc 1 926 30
 2636 0030 8327C4FE 		lw	a5,-20(s0)
 2637 0034 9443     		lw	a3,0(a5)
 2638              		.loc 1 926 62
 2639 0036 832784FE 		lw	a5,-24(s0)
 2640 003a 13975701 		slli	a4,a5,21
 2641              		.loc 1 926 49
 2642 003e B707E003 		li	a5,65011712
 2643 0042 7D8F     		and	a4,a4,a5
 2644              		.loc 1 926 30
 2645 0044 8327C4FE 		lw	a5,-20(s0)
 2646 0048 558F     		or	a4,a3,a4
 2647 004a 98C3     		sw	a4,0(a5)
 927:../Firmware/GD32VW55x_standard_peripheral/Source/gd32vw55x_usart.c **** }
 2648              		.loc 1 927 1
 2649 004c 0100     		nop
 2650 004e 7244     		lw	s0,28(sp)
 2651              		.cfi_restore 8
 2652              		.cfi_def_cfa 2, 32
 2653 0050 0561     		addi	sp,sp,32
 2654              		.cfi_def_cfa_offset 0
 2655 0052 8280     		jr	ra
 2656              		.cfi_endproc
 2657              	.LFE399:
 2659              		.section	.text.usart_driver_deassertime_config,"ax",@progbits
 2660              		.align	1
 2661              		.globl	usart_driver_deassertime_config
 2663              	usart_driver_deassertime_config:
 2664              	.LFB400:
 928:../Firmware/GD32VW55x_standard_peripheral/Source/gd32vw55x_usart.c **** 
 929:../Firmware/GD32VW55x_standard_peripheral/Source/gd32vw55x_usart.c **** /*!
 930:../Firmware/GD32VW55x_standard_peripheral/Source/gd32vw55x_usart.c ****     \brief      configure driver enable de-assertion time
 931:../Firmware/GD32VW55x_standard_peripheral/Source/gd32vw55x_usart.c ****     \param[in]  usart_periph: USART0/UARTx(x=1,2)
 932:../Firmware/GD32VW55x_standard_peripheral/Source/gd32vw55x_usart.c ****     \param[in]  dedtime: 0x00-0x1F
 933:../Firmware/GD32VW55x_standard_peripheral/Source/gd32vw55x_usart.c ****     \param[out] none
 934:../Firmware/GD32VW55x_standard_peripheral/Source/gd32vw55x_usart.c ****     \retval     none
 935:../Firmware/GD32VW55x_standard_peripheral/Source/gd32vw55x_usart.c **** */
 936:../Firmware/GD32VW55x_standard_peripheral/Source/gd32vw55x_usart.c **** void usart_driver_deassertime_config(uint32_t usart_periph, uint32_t dedtime)
 937:../Firmware/GD32VW55x_standard_peripheral/Source/gd32vw55x_usart.c **** {
 2665              		.loc 1 937 1
 2666              		.cfi_startproc
 2667 0000 0111     		addi	sp,sp,-32
 2668              		.cfi_def_cfa_offset 32
 2669 0002 22CE     		sw	s0,28(sp)
 2670              		.cfi_offset 8, -4
 2671 0004 0010     		addi	s0,sp,32
 2672              		.cfi_def_cfa 8, 0
 2673 0006 2326A4FE 		sw	a0,-20(s0)
 2674 000a 2324B4FE 		sw	a1,-24(s0)
 938:../Firmware/GD32VW55x_standard_peripheral/Source/gd32vw55x_usart.c ****     /* disable USART */
 939:../Firmware/GD32VW55x_standard_peripheral/Source/gd32vw55x_usart.c ****     USART_CTL0(usart_periph) &= ~(USART_CTL0_UEN);
 2675              		.loc 1 939 30
 2676 000e 8327C4FE 		lw	a5,-20(s0)
 2677 0012 9843     		lw	a4,0(a5)
 2678 0014 8327C4FE 		lw	a5,-20(s0)
 2679 0018 799B     		andi	a4,a4,-2
 2680 001a 98C3     		sw	a4,0(a5)
 940:../Firmware/GD32VW55x_standard_peripheral/Source/gd32vw55x_usart.c **** 
 941:../Firmware/GD32VW55x_standard_peripheral/Source/gd32vw55x_usart.c ****     USART_CTL0(usart_periph) &= ~(USART_CTL0_DED);
 2681              		.loc 1 941 30
 2682 001c 8327C4FE 		lw	a5,-20(s0)
 2683 0020 9443     		lw	a3,0(a5)
 2684 0022 8327C4FE 		lw	a5,-20(s0)
 2685 0026 3707E1FF 		li	a4,-2031616
 2686 002a 7D17     		addi	a4,a4,-1
 2687 002c 758F     		and	a4,a3,a4
 2688 002e 98C3     		sw	a4,0(a5)
 942:../Firmware/GD32VW55x_standard_peripheral/Source/gd32vw55x_usart.c ****     USART_CTL0(usart_periph) |= (USART_CTL0_DED & ((dedtime) << CTL0_DED_OFFSET));
 2689              		.loc 1 942 30
 2690 0030 8327C4FE 		lw	a5,-20(s0)
 2691 0034 9443     		lw	a3,0(a5)
 2692              		.loc 1 942 62
 2693 0036 832784FE 		lw	a5,-24(s0)
 2694 003a 13970701 		slli	a4,a5,16
 2695              		.loc 1 942 49
 2696 003e B7071F00 		li	a5,2031616
 2697 0042 7D8F     		and	a4,a4,a5
 2698              		.loc 1 942 30
 2699 0044 8327C4FE 		lw	a5,-20(s0)
 2700 0048 558F     		or	a4,a3,a4
 2701 004a 98C3     		sw	a4,0(a5)
 943:../Firmware/GD32VW55x_standard_peripheral/Source/gd32vw55x_usart.c **** }
 2702              		.loc 1 943 1
 2703 004c 0100     		nop
 2704 004e 7244     		lw	s0,28(sp)
 2705              		.cfi_restore 8
 2706              		.cfi_def_cfa 2, 32
 2707 0050 0561     		addi	sp,sp,32
 2708              		.cfi_def_cfa_offset 0
 2709 0052 8280     		jr	ra
 2710              		.cfi_endproc
 2711              	.LFE400:
 2713              		.section	.text.usart_depolarity_config,"ax",@progbits
 2714              		.align	1
 2715              		.globl	usart_depolarity_config
 2717              	usart_depolarity_config:
 2718              	.LFB401:
 944:../Firmware/GD32VW55x_standard_peripheral/Source/gd32vw55x_usart.c **** 
 945:../Firmware/GD32VW55x_standard_peripheral/Source/gd32vw55x_usart.c **** /*!
 946:../Firmware/GD32VW55x_standard_peripheral/Source/gd32vw55x_usart.c ****     \brief      configure driver enable polarity mode
 947:../Firmware/GD32VW55x_standard_peripheral/Source/gd32vw55x_usart.c ****     \param[in]  usart_periph: USART0/UARTx(x=1,2)
 948:../Firmware/GD32VW55x_standard_peripheral/Source/gd32vw55x_usart.c ****     \param[in]  dep: DE signal
 949:../Firmware/GD32VW55x_standard_peripheral/Source/gd32vw55x_usart.c ****                 only one parameter can be selected which is shown as below:
 950:../Firmware/GD32VW55x_standard_peripheral/Source/gd32vw55x_usart.c ****       \arg        USART_DEP_HIGH: DE signal is active high
 951:../Firmware/GD32VW55x_standard_peripheral/Source/gd32vw55x_usart.c ****       \arg        USART_DEP_LOW: DE signal is active low
 952:../Firmware/GD32VW55x_standard_peripheral/Source/gd32vw55x_usart.c ****     \param[out] none
 953:../Firmware/GD32VW55x_standard_peripheral/Source/gd32vw55x_usart.c ****     \retval     none
 954:../Firmware/GD32VW55x_standard_peripheral/Source/gd32vw55x_usart.c **** */
 955:../Firmware/GD32VW55x_standard_peripheral/Source/gd32vw55x_usart.c **** void usart_depolarity_config(uint32_t usart_periph, uint32_t dep)
 956:../Firmware/GD32VW55x_standard_peripheral/Source/gd32vw55x_usart.c **** {
 2719              		.loc 1 956 1
 2720              		.cfi_startproc
 2721 0000 0111     		addi	sp,sp,-32
 2722              		.cfi_def_cfa_offset 32
 2723 0002 22CE     		sw	s0,28(sp)
 2724              		.cfi_offset 8, -4
 2725 0004 0010     		addi	s0,sp,32
 2726              		.cfi_def_cfa 8, 0
 2727 0006 2326A4FE 		sw	a0,-20(s0)
 2728 000a 2324B4FE 		sw	a1,-24(s0)
 957:../Firmware/GD32VW55x_standard_peripheral/Source/gd32vw55x_usart.c ****     /* disable USART */
 958:../Firmware/GD32VW55x_standard_peripheral/Source/gd32vw55x_usart.c ****     USART_CTL0(usart_periph) &= ~(USART_CTL0_UEN);
 2729              		.loc 1 958 30
 2730 000e 8327C4FE 		lw	a5,-20(s0)
 2731 0012 9843     		lw	a4,0(a5)
 2732 0014 8327C4FE 		lw	a5,-20(s0)
 2733 0018 799B     		andi	a4,a4,-2
 2734 001a 98C3     		sw	a4,0(a5)
 959:../Firmware/GD32VW55x_standard_peripheral/Source/gd32vw55x_usart.c ****     /* reset DEP bit */
 960:../Firmware/GD32VW55x_standard_peripheral/Source/gd32vw55x_usart.c ****     USART_CTL2(usart_periph) &= ~(USART_CTL2_DEP);
 2735              		.loc 1 960 30
 2736 001c 8327C4FE 		lw	a5,-20(s0)
 2737 0020 A107     		addi	a5,a5,8
 2738 0022 9843     		lw	a4,0(a5)
 2739 0024 8327C4FE 		lw	a5,-20(s0)
 2740 0028 A107     		addi	a5,a5,8
 2741 002a BE86     		mv	a3,a5
 2742 002c E177     		li	a5,-32768
 2743 002e FD17     		addi	a5,a5,-1
 2744 0030 F98F     		and	a5,a4,a5
 2745 0032 9CC2     		sw	a5,0(a3)
 961:../Firmware/GD32VW55x_standard_peripheral/Source/gd32vw55x_usart.c ****     USART_CTL2(usart_periph) |= (USART_CTL2_DEP & dep);
 2746              		.loc 1 961 30
 2747 0034 8327C4FE 		lw	a5,-20(s0)
 2748 0038 A107     		addi	a5,a5,8
 2749 003a 9843     		lw	a4,0(a5)
 2750              		.loc 1 961 49
 2751 003c 832684FE 		lw	a3,-24(s0)
 2752 0040 A167     		li	a5,32768
 2753 0042 F58F     		and	a5,a3,a5
 2754              		.loc 1 961 30
 2755 0044 8326C4FE 		lw	a3,-20(s0)
 2756 0048 A106     		addi	a3,a3,8
 2757 004a D98F     		or	a5,a4,a5
 2758 004c 9CC2     		sw	a5,0(a3)
 962:../Firmware/GD32VW55x_standard_peripheral/Source/gd32vw55x_usart.c **** }
 2759              		.loc 1 962 1
 2760 004e 0100     		nop
 2761 0050 7244     		lw	s0,28(sp)
 2762              		.cfi_restore 8
 2763              		.cfi_def_cfa 2, 32
 2764 0052 0561     		addi	sp,sp,32
 2765              		.cfi_def_cfa_offset 0
 2766 0054 8280     		jr	ra
 2767              		.cfi_endproc
 2768              	.LFE401:
 2770              		.section	.text.usart_dma_receive_config,"ax",@progbits
 2771              		.align	1
 2772              		.globl	usart_dma_receive_config
 2774              	usart_dma_receive_config:
 2775              	.LFB402:
 963:../Firmware/GD32VW55x_standard_peripheral/Source/gd32vw55x_usart.c **** 
 964:../Firmware/GD32VW55x_standard_peripheral/Source/gd32vw55x_usart.c **** /*!
 965:../Firmware/GD32VW55x_standard_peripheral/Source/gd32vw55x_usart.c ****     \brief      configure USART DMA reception
 966:../Firmware/GD32VW55x_standard_peripheral/Source/gd32vw55x_usart.c ****     \param[in]  usart_periph: USART0/UARTx(x=1,2)
 967:../Firmware/GD32VW55x_standard_peripheral/Source/gd32vw55x_usart.c ****     \param[in]  dmacmd: enable or disable DMA for reception
 968:../Firmware/GD32VW55x_standard_peripheral/Source/gd32vw55x_usart.c ****                 only one parameter can be selected which is shown as below:
 969:../Firmware/GD32VW55x_standard_peripheral/Source/gd32vw55x_usart.c ****       \arg        USART_RECEIVE_DMA_ENABLE: enable USART DMA for reception
 970:../Firmware/GD32VW55x_standard_peripheral/Source/gd32vw55x_usart.c ****       \arg        USART_RECEIVE_DMA_DISABLE: disable USART DMA for reception
 971:../Firmware/GD32VW55x_standard_peripheral/Source/gd32vw55x_usart.c ****     \param[out] none
 972:../Firmware/GD32VW55x_standard_peripheral/Source/gd32vw55x_usart.c ****     \retval     none
 973:../Firmware/GD32VW55x_standard_peripheral/Source/gd32vw55x_usart.c **** */
 974:../Firmware/GD32VW55x_standard_peripheral/Source/gd32vw55x_usart.c **** void usart_dma_receive_config(uint32_t usart_periph, uint8_t dmacmd)
 975:../Firmware/GD32VW55x_standard_peripheral/Source/gd32vw55x_usart.c **** {
 2776              		.loc 1 975 1
 2777              		.cfi_startproc
 2778 0000 7971     		addi	sp,sp,-48
 2779              		.cfi_def_cfa_offset 48
 2780 0002 22D6     		sw	s0,44(sp)
 2781              		.cfi_offset 8, -4
 2782 0004 0018     		addi	s0,sp,48
 2783              		.cfi_def_cfa 8, 0
 2784 0006 232EA4FC 		sw	a0,-36(s0)
 2785 000a AE87     		mv	a5,a1
 2786 000c A30DF4FC 		sb	a5,-37(s0)
 976:../Firmware/GD32VW55x_standard_peripheral/Source/gd32vw55x_usart.c ****     uint32_t ctl = 0U;
 2787              		.loc 1 976 14
 2788 0010 232604FE 		sw	zero,-20(s0)
 977:../Firmware/GD32VW55x_standard_peripheral/Source/gd32vw55x_usart.c **** 
 978:../Firmware/GD32VW55x_standard_peripheral/Source/gd32vw55x_usart.c ****     ctl = USART_CTL2(usart_periph);
 2789              		.loc 1 978 11
 2790 0014 8327C4FD 		lw	a5,-36(s0)
 2791 0018 A107     		addi	a5,a5,8
 2792              		.loc 1 978 9
 2793 001a 9C43     		lw	a5,0(a5)
 2794 001c 2326F4FE 		sw	a5,-20(s0)
 979:../Firmware/GD32VW55x_standard_peripheral/Source/gd32vw55x_usart.c ****     ctl &= ~(USART_CTL2_DENR);
 2795              		.loc 1 979 9
 2796 0020 8327C4FE 		lw	a5,-20(s0)
 2797 0024 93F7F7FB 		andi	a5,a5,-65
 2798 0028 2326F4FE 		sw	a5,-20(s0)
 980:../Firmware/GD32VW55x_standard_peripheral/Source/gd32vw55x_usart.c ****     ctl |= dmacmd;
 2799              		.loc 1 980 9
 2800 002c 8347B4FD 		lbu	a5,-37(s0)
 2801 0030 0327C4FE 		lw	a4,-20(s0)
 2802 0034 D98F     		or	a5,a4,a5
 2803 0036 2326F4FE 		sw	a5,-20(s0)
 981:../Firmware/GD32VW55x_standard_peripheral/Source/gd32vw55x_usart.c ****     /* configure DMA reception */
 982:../Firmware/GD32VW55x_standard_peripheral/Source/gd32vw55x_usart.c ****     USART_CTL2(usart_periph) = ctl;
 2804              		.loc 1 982 5
 2805 003a 8327C4FD 		lw	a5,-36(s0)
 2806 003e A107     		addi	a5,a5,8
 2807 0040 3E87     		mv	a4,a5
 2808              		.loc 1 982 30
 2809 0042 8327C4FE 		lw	a5,-20(s0)
 2810 0046 1CC3     		sw	a5,0(a4)
 983:../Firmware/GD32VW55x_standard_peripheral/Source/gd32vw55x_usart.c **** }
 2811              		.loc 1 983 1
 2812 0048 0100     		nop
 2813 004a 3254     		lw	s0,44(sp)
 2814              		.cfi_restore 8
 2815              		.cfi_def_cfa 2, 48
 2816 004c 4561     		addi	sp,sp,48
 2817              		.cfi_def_cfa_offset 0
 2818 004e 8280     		jr	ra
 2819              		.cfi_endproc
 2820              	.LFE402:
 2822              		.section	.text.usart_dma_transmit_config,"ax",@progbits
 2823              		.align	1
 2824              		.globl	usart_dma_transmit_config
 2826              	usart_dma_transmit_config:
 2827              	.LFB403:
 984:../Firmware/GD32VW55x_standard_peripheral/Source/gd32vw55x_usart.c **** 
 985:../Firmware/GD32VW55x_standard_peripheral/Source/gd32vw55x_usart.c **** /*!
 986:../Firmware/GD32VW55x_standard_peripheral/Source/gd32vw55x_usart.c ****     \brief      configure USART DMA transmission
 987:../Firmware/GD32VW55x_standard_peripheral/Source/gd32vw55x_usart.c ****     \param[in]  usart_periph: USART0/UARTx(x=1,2)
 988:../Firmware/GD32VW55x_standard_peripheral/Source/gd32vw55x_usart.c ****     \param[in]  dmacmd: enable or disable DMA for transmission
 989:../Firmware/GD32VW55x_standard_peripheral/Source/gd32vw55x_usart.c ****                 only one parameter can be selected which is shown as below:
 990:../Firmware/GD32VW55x_standard_peripheral/Source/gd32vw55x_usart.c ****       \arg        USART_TRANSMIT_DMA_ENABLE: enable USART DMA for transmission
 991:../Firmware/GD32VW55x_standard_peripheral/Source/gd32vw55x_usart.c ****       \arg        USART_TRANSMIT_DMA_DISABLE: disable USART DMA for transmission
 992:../Firmware/GD32VW55x_standard_peripheral/Source/gd32vw55x_usart.c ****     \param[out] none
 993:../Firmware/GD32VW55x_standard_peripheral/Source/gd32vw55x_usart.c ****     \retval     none
 994:../Firmware/GD32VW55x_standard_peripheral/Source/gd32vw55x_usart.c **** */
 995:../Firmware/GD32VW55x_standard_peripheral/Source/gd32vw55x_usart.c **** void usart_dma_transmit_config(uint32_t usart_periph, uint8_t dmacmd)
 996:../Firmware/GD32VW55x_standard_peripheral/Source/gd32vw55x_usart.c **** {
 2828              		.loc 1 996 1
 2829              		.cfi_startproc
 2830 0000 7971     		addi	sp,sp,-48
 2831              		.cfi_def_cfa_offset 48
 2832 0002 22D6     		sw	s0,44(sp)
 2833              		.cfi_offset 8, -4
 2834 0004 0018     		addi	s0,sp,48
 2835              		.cfi_def_cfa 8, 0
 2836 0006 232EA4FC 		sw	a0,-36(s0)
 2837 000a AE87     		mv	a5,a1
 2838 000c A30DF4FC 		sb	a5,-37(s0)
 997:../Firmware/GD32VW55x_standard_peripheral/Source/gd32vw55x_usart.c ****     uint32_t ctl = 0U;
 2839              		.loc 1 997 14
 2840 0010 232604FE 		sw	zero,-20(s0)
 998:../Firmware/GD32VW55x_standard_peripheral/Source/gd32vw55x_usart.c **** 
 999:../Firmware/GD32VW55x_standard_peripheral/Source/gd32vw55x_usart.c ****     ctl = USART_CTL2(usart_periph);
 2841              		.loc 1 999 11
 2842 0014 8327C4FD 		lw	a5,-36(s0)
 2843 0018 A107     		addi	a5,a5,8
 2844              		.loc 1 999 9
 2845 001a 9C43     		lw	a5,0(a5)
 2846 001c 2326F4FE 		sw	a5,-20(s0)
1000:../Firmware/GD32VW55x_standard_peripheral/Source/gd32vw55x_usart.c ****     ctl &= ~(USART_CTL2_DENT);
 2847              		.loc 1 1000 9
 2848 0020 8327C4FE 		lw	a5,-20(s0)
 2849 0024 93F7F7F7 		andi	a5,a5,-129
 2850 0028 2326F4FE 		sw	a5,-20(s0)
1001:../Firmware/GD32VW55x_standard_peripheral/Source/gd32vw55x_usart.c ****     ctl |= dmacmd;
 2851              		.loc 1 1001 9
 2852 002c 8347B4FD 		lbu	a5,-37(s0)
 2853 0030 0327C4FE 		lw	a4,-20(s0)
 2854 0034 D98F     		or	a5,a4,a5
 2855 0036 2326F4FE 		sw	a5,-20(s0)
1002:../Firmware/GD32VW55x_standard_peripheral/Source/gd32vw55x_usart.c ****     /* configure DMA transmission */
1003:../Firmware/GD32VW55x_standard_peripheral/Source/gd32vw55x_usart.c ****     USART_CTL2(usart_periph) = ctl;
 2856              		.loc 1 1003 5
 2857 003a 8327C4FD 		lw	a5,-36(s0)
 2858 003e A107     		addi	a5,a5,8
 2859 0040 3E87     		mv	a4,a5
 2860              		.loc 1 1003 30
 2861 0042 8327C4FE 		lw	a5,-20(s0)
 2862 0046 1CC3     		sw	a5,0(a4)
1004:../Firmware/GD32VW55x_standard_peripheral/Source/gd32vw55x_usart.c **** }
 2863              		.loc 1 1004 1
 2864 0048 0100     		nop
 2865 004a 3254     		lw	s0,44(sp)
 2866              		.cfi_restore 8
 2867              		.cfi_def_cfa 2, 48
 2868 004c 4561     		addi	sp,sp,48
 2869              		.cfi_def_cfa_offset 0
 2870 004e 8280     		jr	ra
 2871              		.cfi_endproc
 2872              	.LFE403:
 2874              		.section	.text.usart_reception_error_dma_disable,"ax",@progbits
 2875              		.align	1
 2876              		.globl	usart_reception_error_dma_disable
 2878              	usart_reception_error_dma_disable:
 2879              	.LFB404:
1005:../Firmware/GD32VW55x_standard_peripheral/Source/gd32vw55x_usart.c **** 
1006:../Firmware/GD32VW55x_standard_peripheral/Source/gd32vw55x_usart.c **** /*!
1007:../Firmware/GD32VW55x_standard_peripheral/Source/gd32vw55x_usart.c ****     \brief      disable DMA on reception error
1008:../Firmware/GD32VW55x_standard_peripheral/Source/gd32vw55x_usart.c ****     \param[in]  usart_periph: USART0/UARTx(x=1,2)
1009:../Firmware/GD32VW55x_standard_peripheral/Source/gd32vw55x_usart.c ****     \param[out] none
1010:../Firmware/GD32VW55x_standard_peripheral/Source/gd32vw55x_usart.c ****     \retval     none
1011:../Firmware/GD32VW55x_standard_peripheral/Source/gd32vw55x_usart.c **** */
1012:../Firmware/GD32VW55x_standard_peripheral/Source/gd32vw55x_usart.c **** void usart_reception_error_dma_disable(uint32_t usart_periph)
1013:../Firmware/GD32VW55x_standard_peripheral/Source/gd32vw55x_usart.c **** {
 2880              		.loc 1 1013 1
 2881              		.cfi_startproc
 2882 0000 0111     		addi	sp,sp,-32
 2883              		.cfi_def_cfa_offset 32
 2884 0002 22CE     		sw	s0,28(sp)
 2885              		.cfi_offset 8, -4
 2886 0004 0010     		addi	s0,sp,32
 2887              		.cfi_def_cfa 8, 0
 2888 0006 2326A4FE 		sw	a0,-20(s0)
1014:../Firmware/GD32VW55x_standard_peripheral/Source/gd32vw55x_usart.c ****     /* disable USART */
1015:../Firmware/GD32VW55x_standard_peripheral/Source/gd32vw55x_usart.c ****     USART_CTL0(usart_periph) &= ~(USART_CTL0_UEN);
 2889              		.loc 1 1015 30
 2890 000a 8327C4FE 		lw	a5,-20(s0)
 2891 000e 9843     		lw	a4,0(a5)
 2892 0010 8327C4FE 		lw	a5,-20(s0)
 2893 0014 799B     		andi	a4,a4,-2
 2894 0016 98C3     		sw	a4,0(a5)
1016:../Firmware/GD32VW55x_standard_peripheral/Source/gd32vw55x_usart.c **** 
1017:../Firmware/GD32VW55x_standard_peripheral/Source/gd32vw55x_usart.c ****     USART_CTL2(usart_periph) |= USART_CTL2_DDRE;
 2895              		.loc 1 1017 30
 2896 0018 8327C4FE 		lw	a5,-20(s0)
 2897 001c A107     		addi	a5,a5,8
 2898 001e 9843     		lw	a4,0(a5)
 2899 0020 8327C4FE 		lw	a5,-20(s0)
 2900 0024 A107     		addi	a5,a5,8
 2901 0026 BE86     		mv	a3,a5
 2902 0028 8967     		li	a5,8192
 2903 002a D98F     		or	a5,a4,a5
 2904 002c 9CC2     		sw	a5,0(a3)
1018:../Firmware/GD32VW55x_standard_peripheral/Source/gd32vw55x_usart.c **** }
 2905              		.loc 1 1018 1
 2906 002e 0100     		nop
 2907 0030 7244     		lw	s0,28(sp)
 2908              		.cfi_restore 8
 2909              		.cfi_def_cfa 2, 32
 2910 0032 0561     		addi	sp,sp,32
 2911              		.cfi_def_cfa_offset 0
 2912 0034 8280     		jr	ra
 2913              		.cfi_endproc
 2914              	.LFE404:
 2916              		.section	.text.usart_reception_error_dma_enable,"ax",@progbits
 2917              		.align	1
 2918              		.globl	usart_reception_error_dma_enable
 2920              	usart_reception_error_dma_enable:
 2921              	.LFB405:
1019:../Firmware/GD32VW55x_standard_peripheral/Source/gd32vw55x_usart.c **** 
1020:../Firmware/GD32VW55x_standard_peripheral/Source/gd32vw55x_usart.c **** /*!
1021:../Firmware/GD32VW55x_standard_peripheral/Source/gd32vw55x_usart.c ****     \brief      enable DMA on reception error
1022:../Firmware/GD32VW55x_standard_peripheral/Source/gd32vw55x_usart.c ****     \param[in]  usart_periph: USART0/UARTx(x=1,2)
1023:../Firmware/GD32VW55x_standard_peripheral/Source/gd32vw55x_usart.c ****     \param[out] none
1024:../Firmware/GD32VW55x_standard_peripheral/Source/gd32vw55x_usart.c ****     \retval     none
1025:../Firmware/GD32VW55x_standard_peripheral/Source/gd32vw55x_usart.c **** */
1026:../Firmware/GD32VW55x_standard_peripheral/Source/gd32vw55x_usart.c **** void usart_reception_error_dma_enable(uint32_t usart_periph)
1027:../Firmware/GD32VW55x_standard_peripheral/Source/gd32vw55x_usart.c **** {
 2922              		.loc 1 1027 1
 2923              		.cfi_startproc
 2924 0000 0111     		addi	sp,sp,-32
 2925              		.cfi_def_cfa_offset 32
 2926 0002 22CE     		sw	s0,28(sp)
 2927              		.cfi_offset 8, -4
 2928 0004 0010     		addi	s0,sp,32
 2929              		.cfi_def_cfa 8, 0
 2930 0006 2326A4FE 		sw	a0,-20(s0)
1028:../Firmware/GD32VW55x_standard_peripheral/Source/gd32vw55x_usart.c ****     /* disable USART */
1029:../Firmware/GD32VW55x_standard_peripheral/Source/gd32vw55x_usart.c ****     USART_CTL0(usart_periph) &= ~(USART_CTL0_UEN);
 2931              		.loc 1 1029 30
 2932 000a 8327C4FE 		lw	a5,-20(s0)
 2933 000e 9843     		lw	a4,0(a5)
 2934 0010 8327C4FE 		lw	a5,-20(s0)
 2935 0014 799B     		andi	a4,a4,-2
 2936 0016 98C3     		sw	a4,0(a5)
1030:../Firmware/GD32VW55x_standard_peripheral/Source/gd32vw55x_usart.c **** 
1031:../Firmware/GD32VW55x_standard_peripheral/Source/gd32vw55x_usart.c ****     USART_CTL2(usart_periph) &= ~(USART_CTL2_DDRE);
 2937              		.loc 1 1031 30
 2938 0018 8327C4FE 		lw	a5,-20(s0)
 2939 001c A107     		addi	a5,a5,8
 2940 001e 9843     		lw	a4,0(a5)
 2941 0020 8327C4FE 		lw	a5,-20(s0)
 2942 0024 A107     		addi	a5,a5,8
 2943 0026 BE86     		mv	a3,a5
 2944 0028 F977     		li	a5,-8192
 2945 002a FD17     		addi	a5,a5,-1
 2946 002c F98F     		and	a5,a4,a5
 2947 002e 9CC2     		sw	a5,0(a3)
1032:../Firmware/GD32VW55x_standard_peripheral/Source/gd32vw55x_usart.c **** }
 2948              		.loc 1 1032 1
 2949 0030 0100     		nop
 2950 0032 7244     		lw	s0,28(sp)
 2951              		.cfi_restore 8
 2952              		.cfi_def_cfa 2, 32
 2953 0034 0561     		addi	sp,sp,32
 2954              		.cfi_def_cfa_offset 0
 2955 0036 8280     		jr	ra
 2956              		.cfi_endproc
 2957              	.LFE405:
 2959              		.section	.text.usart_wakeup_enable,"ax",@progbits
 2960              		.align	1
 2961              		.globl	usart_wakeup_enable
 2963              	usart_wakeup_enable:
 2964              	.LFB406:
1033:../Firmware/GD32VW55x_standard_peripheral/Source/gd32vw55x_usart.c **** 
1034:../Firmware/GD32VW55x_standard_peripheral/Source/gd32vw55x_usart.c **** /*!
1035:../Firmware/GD32VW55x_standard_peripheral/Source/gd32vw55x_usart.c ****     \brief      enable USART to wakeup the MCU from deep-sleep mode
1036:../Firmware/GD32VW55x_standard_peripheral/Source/gd32vw55x_usart.c ****     \param[in]  usart_periph: USART0
1037:../Firmware/GD32VW55x_standard_peripheral/Source/gd32vw55x_usart.c ****     \param[out] none
1038:../Firmware/GD32VW55x_standard_peripheral/Source/gd32vw55x_usart.c ****     \retval     none
1039:../Firmware/GD32VW55x_standard_peripheral/Source/gd32vw55x_usart.c **** */
1040:../Firmware/GD32VW55x_standard_peripheral/Source/gd32vw55x_usart.c **** void usart_wakeup_enable(uint32_t usart_periph)
1041:../Firmware/GD32VW55x_standard_peripheral/Source/gd32vw55x_usart.c **** {
 2965              		.loc 1 1041 1
 2966              		.cfi_startproc
 2967 0000 0111     		addi	sp,sp,-32
 2968              		.cfi_def_cfa_offset 32
 2969 0002 22CE     		sw	s0,28(sp)
 2970              		.cfi_offset 8, -4
 2971 0004 0010     		addi	s0,sp,32
 2972              		.cfi_def_cfa 8, 0
 2973 0006 2326A4FE 		sw	a0,-20(s0)
1042:../Firmware/GD32VW55x_standard_peripheral/Source/gd32vw55x_usart.c ****     USART_CTL0(usart_periph) |= USART_CTL0_UESM;
 2974              		.loc 1 1042 30
 2975 000a 8327C4FE 		lw	a5,-20(s0)
 2976 000e 9843     		lw	a4,0(a5)
 2977 0010 8327C4FE 		lw	a5,-20(s0)
 2978 0014 13672700 		ori	a4,a4,2
 2979 0018 98C3     		sw	a4,0(a5)
1043:../Firmware/GD32VW55x_standard_peripheral/Source/gd32vw55x_usart.c **** }
 2980              		.loc 1 1043 1
 2981 001a 0100     		nop
 2982 001c 7244     		lw	s0,28(sp)
 2983              		.cfi_restore 8
 2984              		.cfi_def_cfa 2, 32
 2985 001e 0561     		addi	sp,sp,32
 2986              		.cfi_def_cfa_offset 0
 2987 0020 8280     		jr	ra
 2988              		.cfi_endproc
 2989              	.LFE406:
 2991              		.section	.text.usart_wakeup_disable,"ax",@progbits
 2992              		.align	1
 2993              		.globl	usart_wakeup_disable
 2995              	usart_wakeup_disable:
 2996              	.LFB407:
1044:../Firmware/GD32VW55x_standard_peripheral/Source/gd32vw55x_usart.c **** 
1045:../Firmware/GD32VW55x_standard_peripheral/Source/gd32vw55x_usart.c **** /*!
1046:../Firmware/GD32VW55x_standard_peripheral/Source/gd32vw55x_usart.c ****     \brief      disable USART to wakeup the MCU from deep-sleep mode
1047:../Firmware/GD32VW55x_standard_peripheral/Source/gd32vw55x_usart.c ****     \param[in]  usart_periph: USART0
1048:../Firmware/GD32VW55x_standard_peripheral/Source/gd32vw55x_usart.c ****     \param[out] none
1049:../Firmware/GD32VW55x_standard_peripheral/Source/gd32vw55x_usart.c ****     \retval     none
1050:../Firmware/GD32VW55x_standard_peripheral/Source/gd32vw55x_usart.c **** */
1051:../Firmware/GD32VW55x_standard_peripheral/Source/gd32vw55x_usart.c **** void usart_wakeup_disable(uint32_t usart_periph)
1052:../Firmware/GD32VW55x_standard_peripheral/Source/gd32vw55x_usart.c **** {
 2997              		.loc 1 1052 1
 2998              		.cfi_startproc
 2999 0000 0111     		addi	sp,sp,-32
 3000              		.cfi_def_cfa_offset 32
 3001 0002 22CE     		sw	s0,28(sp)
 3002              		.cfi_offset 8, -4
 3003 0004 0010     		addi	s0,sp,32
 3004              		.cfi_def_cfa 8, 0
 3005 0006 2326A4FE 		sw	a0,-20(s0)
1053:../Firmware/GD32VW55x_standard_peripheral/Source/gd32vw55x_usart.c ****     USART_CTL0(usart_periph) &= ~(USART_CTL0_UESM);
 3006              		.loc 1 1053 30
 3007 000a 8327C4FE 		lw	a5,-20(s0)
 3008 000e 9843     		lw	a4,0(a5)
 3009 0010 8327C4FE 		lw	a5,-20(s0)
 3010 0014 759B     		andi	a4,a4,-3
 3011 0016 98C3     		sw	a4,0(a5)
1054:../Firmware/GD32VW55x_standard_peripheral/Source/gd32vw55x_usart.c **** }
 3012              		.loc 1 1054 1
 3013 0018 0100     		nop
 3014 001a 7244     		lw	s0,28(sp)
 3015              		.cfi_restore 8
 3016              		.cfi_def_cfa 2, 32
 3017 001c 0561     		addi	sp,sp,32
 3018              		.cfi_def_cfa_offset 0
 3019 001e 8280     		jr	ra
 3020              		.cfi_endproc
 3021              	.LFE407:
 3023              		.section	.text.usart_wakeup_mode_config,"ax",@progbits
 3024              		.align	1
 3025              		.globl	usart_wakeup_mode_config
 3027              	usart_wakeup_mode_config:
 3028              	.LFB408:
1055:../Firmware/GD32VW55x_standard_peripheral/Source/gd32vw55x_usart.c **** 
1056:../Firmware/GD32VW55x_standard_peripheral/Source/gd32vw55x_usart.c **** /*!
1057:../Firmware/GD32VW55x_standard_peripheral/Source/gd32vw55x_usart.c ****     \brief      configure the USART wakeup mode from deep-sleep mode
1058:../Firmware/GD32VW55x_standard_peripheral/Source/gd32vw55x_usart.c ****     \param[in]  usart_periph: USART0
1059:../Firmware/GD32VW55x_standard_peripheral/Source/gd32vw55x_usart.c ****     \param[in]  wum: wakeup mode
1060:../Firmware/GD32VW55x_standard_peripheral/Source/gd32vw55x_usart.c ****                 only one parameter can be selected which is shown as below:
1061:../Firmware/GD32VW55x_standard_peripheral/Source/gd32vw55x_usart.c ****       \arg        USART_WUM_ADDR: WUF active on address match
1062:../Firmware/GD32VW55x_standard_peripheral/Source/gd32vw55x_usart.c ****       \arg        USART_WUM_STARTB: WUF active on start bit
1063:../Firmware/GD32VW55x_standard_peripheral/Source/gd32vw55x_usart.c ****       \arg        USART_WUM_RBNE: WUF active on RBNE
1064:../Firmware/GD32VW55x_standard_peripheral/Source/gd32vw55x_usart.c ****     \param[out] none
1065:../Firmware/GD32VW55x_standard_peripheral/Source/gd32vw55x_usart.c ****     \retval     none
1066:../Firmware/GD32VW55x_standard_peripheral/Source/gd32vw55x_usart.c **** */
1067:../Firmware/GD32VW55x_standard_peripheral/Source/gd32vw55x_usart.c **** void usart_wakeup_mode_config(uint32_t usart_periph, uint32_t wum)
1068:../Firmware/GD32VW55x_standard_peripheral/Source/gd32vw55x_usart.c **** {
 3029              		.loc 1 1068 1
 3030              		.cfi_startproc
 3031 0000 0111     		addi	sp,sp,-32
 3032              		.cfi_def_cfa_offset 32
 3033 0002 22CE     		sw	s0,28(sp)
 3034              		.cfi_offset 8, -4
 3035 0004 0010     		addi	s0,sp,32
 3036              		.cfi_def_cfa 8, 0
 3037 0006 2326A4FE 		sw	a0,-20(s0)
 3038 000a 2324B4FE 		sw	a1,-24(s0)
1069:../Firmware/GD32VW55x_standard_peripheral/Source/gd32vw55x_usart.c ****     /* disable USART */
1070:../Firmware/GD32VW55x_standard_peripheral/Source/gd32vw55x_usart.c ****     USART_CTL0(usart_periph) &= ~(USART_CTL0_UEN);
 3039              		.loc 1 1070 30
 3040 000e 8327C4FE 		lw	a5,-20(s0)
 3041 0012 9843     		lw	a4,0(a5)
 3042 0014 8327C4FE 		lw	a5,-20(s0)
 3043 0018 799B     		andi	a4,a4,-2
 3044 001a 98C3     		sw	a4,0(a5)
1071:../Firmware/GD32VW55x_standard_peripheral/Source/gd32vw55x_usart.c ****     /* reset WUM bit */
1072:../Firmware/GD32VW55x_standard_peripheral/Source/gd32vw55x_usart.c ****     USART_CTL2(usart_periph) &= ~(USART_CTL2_WUM);
 3045              		.loc 1 1072 30
 3046 001c 8327C4FE 		lw	a5,-20(s0)
 3047 0020 A107     		addi	a5,a5,8
 3048 0022 9843     		lw	a4,0(a5)
 3049 0024 8327C4FE 		lw	a5,-20(s0)
 3050 0028 A107     		addi	a5,a5,8
 3051 002a BE86     		mv	a3,a5
 3052 002c B707D0FF 		li	a5,-3145728
 3053 0030 FD17     		addi	a5,a5,-1
 3054 0032 F98F     		and	a5,a4,a5
 3055 0034 9CC2     		sw	a5,0(a3)
1073:../Firmware/GD32VW55x_standard_peripheral/Source/gd32vw55x_usart.c ****     USART_CTL2(usart_periph) |= USART_CTL2_WUM & (wum);
 3056              		.loc 1 1073 30
 3057 0036 8327C4FE 		lw	a5,-20(s0)
 3058 003a A107     		addi	a5,a5,8
 3059 003c 9843     		lw	a4,0(a5)
 3060              		.loc 1 1073 48
 3061 003e 832684FE 		lw	a3,-24(s0)
 3062 0042 B7073000 		li	a5,3145728
 3063 0046 F58F     		and	a5,a3,a5
 3064              		.loc 1 1073 30
 3065 0048 8326C4FE 		lw	a3,-20(s0)
 3066 004c A106     		addi	a3,a3,8
 3067 004e D98F     		or	a5,a4,a5
 3068 0050 9CC2     		sw	a5,0(a3)
1074:../Firmware/GD32VW55x_standard_peripheral/Source/gd32vw55x_usart.c **** }
 3069              		.loc 1 1074 1
 3070 0052 0100     		nop
 3071 0054 7244     		lw	s0,28(sp)
 3072              		.cfi_restore 8
 3073              		.cfi_def_cfa 2, 32
 3074 0056 0561     		addi	sp,sp,32
 3075              		.cfi_def_cfa_offset 0
 3076 0058 8280     		jr	ra
 3077              		.cfi_endproc
 3078              	.LFE408:
 3080              		.section	.text.usart_receive_fifo_enable,"ax",@progbits
 3081              		.align	1
 3082              		.globl	usart_receive_fifo_enable
 3084              	usart_receive_fifo_enable:
 3085              	.LFB409:
1075:../Firmware/GD32VW55x_standard_peripheral/Source/gd32vw55x_usart.c **** 
1076:../Firmware/GD32VW55x_standard_peripheral/Source/gd32vw55x_usart.c **** /*!
1077:../Firmware/GD32VW55x_standard_peripheral/Source/gd32vw55x_usart.c ****     \brief      enable receive FIFO
1078:../Firmware/GD32VW55x_standard_peripheral/Source/gd32vw55x_usart.c ****     \param[in]  usart_periph: USART0/UARTx(x=1,2)
1079:../Firmware/GD32VW55x_standard_peripheral/Source/gd32vw55x_usart.c ****     \param[out] none
1080:../Firmware/GD32VW55x_standard_peripheral/Source/gd32vw55x_usart.c ****     \retval     none
1081:../Firmware/GD32VW55x_standard_peripheral/Source/gd32vw55x_usart.c **** */
1082:../Firmware/GD32VW55x_standard_peripheral/Source/gd32vw55x_usart.c **** void usart_receive_fifo_enable(uint32_t usart_periph)
1083:../Firmware/GD32VW55x_standard_peripheral/Source/gd32vw55x_usart.c **** {
 3086              		.loc 1 1083 1
 3087              		.cfi_startproc
 3088 0000 0111     		addi	sp,sp,-32
 3089              		.cfi_def_cfa_offset 32
 3090 0002 22CE     		sw	s0,28(sp)
 3091              		.cfi_offset 8, -4
 3092 0004 0010     		addi	s0,sp,32
 3093              		.cfi_def_cfa 8, 0
 3094 0006 2326A4FE 		sw	a0,-20(s0)
1084:../Firmware/GD32VW55x_standard_peripheral/Source/gd32vw55x_usart.c ****     USART_RFCS(usart_periph) |= USART_RFCS_RFEN;
 3095              		.loc 1 1084 30
 3096 000a 8327C4FE 		lw	a5,-20(s0)
 3097 000e 9387070D 		addi	a5,a5,208
 3098 0012 9C43     		lw	a5,0(a5)
 3099 0014 0327C4FE 		lw	a4,-20(s0)
 3100 0018 1307070D 		addi	a4,a4,208
 3101 001c 93E70710 		ori	a5,a5,256
 3102 0020 1CC3     		sw	a5,0(a4)
1085:../Firmware/GD32VW55x_standard_peripheral/Source/gd32vw55x_usart.c **** }
 3103              		.loc 1 1085 1
 3104 0022 0100     		nop
 3105 0024 7244     		lw	s0,28(sp)
 3106              		.cfi_restore 8
 3107              		.cfi_def_cfa 2, 32
 3108 0026 0561     		addi	sp,sp,32
 3109              		.cfi_def_cfa_offset 0
 3110 0028 8280     		jr	ra
 3111              		.cfi_endproc
 3112              	.LFE409:
 3114              		.section	.text.usart_receive_fifo_disable,"ax",@progbits
 3115              		.align	1
 3116              		.globl	usart_receive_fifo_disable
 3118              	usart_receive_fifo_disable:
 3119              	.LFB410:
1086:../Firmware/GD32VW55x_standard_peripheral/Source/gd32vw55x_usart.c **** 
1087:../Firmware/GD32VW55x_standard_peripheral/Source/gd32vw55x_usart.c **** /*!
1088:../Firmware/GD32VW55x_standard_peripheral/Source/gd32vw55x_usart.c ****     \brief      disable receive FIFO
1089:../Firmware/GD32VW55x_standard_peripheral/Source/gd32vw55x_usart.c ****     \param[in]  usart_periph: USART0/UARTx(x=1,2)
1090:../Firmware/GD32VW55x_standard_peripheral/Source/gd32vw55x_usart.c ****     \param[out] none
1091:../Firmware/GD32VW55x_standard_peripheral/Source/gd32vw55x_usart.c ****     \retval     none
1092:../Firmware/GD32VW55x_standard_peripheral/Source/gd32vw55x_usart.c **** */
1093:../Firmware/GD32VW55x_standard_peripheral/Source/gd32vw55x_usart.c **** void usart_receive_fifo_disable(uint32_t usart_periph)
1094:../Firmware/GD32VW55x_standard_peripheral/Source/gd32vw55x_usart.c **** {
 3120              		.loc 1 1094 1
 3121              		.cfi_startproc
 3122 0000 0111     		addi	sp,sp,-32
 3123              		.cfi_def_cfa_offset 32
 3124 0002 22CE     		sw	s0,28(sp)
 3125              		.cfi_offset 8, -4
 3126 0004 0010     		addi	s0,sp,32
 3127              		.cfi_def_cfa 8, 0
 3128 0006 2326A4FE 		sw	a0,-20(s0)
1095:../Firmware/GD32VW55x_standard_peripheral/Source/gd32vw55x_usart.c ****     USART_RFCS(usart_periph) &= ~(USART_RFCS_RFEN);
 3129              		.loc 1 1095 30
 3130 000a 8327C4FE 		lw	a5,-20(s0)
 3131 000e 9387070D 		addi	a5,a5,208
 3132 0012 9C43     		lw	a5,0(a5)
 3133 0014 0327C4FE 		lw	a4,-20(s0)
 3134 0018 1307070D 		addi	a4,a4,208
 3135 001c 93F7F7EF 		andi	a5,a5,-257
 3136 0020 1CC3     		sw	a5,0(a4)
1096:../Firmware/GD32VW55x_standard_peripheral/Source/gd32vw55x_usart.c **** }
 3137              		.loc 1 1096 1
 3138 0022 0100     		nop
 3139 0024 7244     		lw	s0,28(sp)
 3140              		.cfi_restore 8
 3141              		.cfi_def_cfa 2, 32
 3142 0026 0561     		addi	sp,sp,32
 3143              		.cfi_def_cfa_offset 0
 3144 0028 8280     		jr	ra
 3145              		.cfi_endproc
 3146              	.LFE410:
 3148              		.section	.text.usart_receive_fifo_counter_number,"ax",@progbits
 3149              		.align	1
 3150              		.globl	usart_receive_fifo_counter_number
 3152              	usart_receive_fifo_counter_number:
 3153              	.LFB411:
1097:../Firmware/GD32VW55x_standard_peripheral/Source/gd32vw55x_usart.c **** 
1098:../Firmware/GD32VW55x_standard_peripheral/Source/gd32vw55x_usart.c **** /*!
1099:../Firmware/GD32VW55x_standard_peripheral/Source/gd32vw55x_usart.c ****     \brief      read receive FIFO counter number
1100:../Firmware/GD32VW55x_standard_peripheral/Source/gd32vw55x_usart.c ****     \param[in]  usart_periph: USART0/UARTx(x=1,2)
1101:../Firmware/GD32VW55x_standard_peripheral/Source/gd32vw55x_usart.c ****     \param[out] none
1102:../Firmware/GD32VW55x_standard_peripheral/Source/gd32vw55x_usart.c ****     \retval     receive FIFO counter number
1103:../Firmware/GD32VW55x_standard_peripheral/Source/gd32vw55x_usart.c **** */
1104:../Firmware/GD32VW55x_standard_peripheral/Source/gd32vw55x_usart.c **** uint8_t usart_receive_fifo_counter_number(uint32_t usart_periph)
1105:../Firmware/GD32VW55x_standard_peripheral/Source/gd32vw55x_usart.c **** {
 3154              		.loc 1 1105 1
 3155              		.cfi_startproc
 3156 0000 0111     		addi	sp,sp,-32
 3157              		.cfi_def_cfa_offset 32
 3158 0002 22CE     		sw	s0,28(sp)
 3159              		.cfi_offset 8, -4
 3160 0004 0010     		addi	s0,sp,32
 3161              		.cfi_def_cfa 8, 0
 3162 0006 2326A4FE 		sw	a0,-20(s0)
1106:../Firmware/GD32VW55x_standard_peripheral/Source/gd32vw55x_usart.c ****     return (uint8_t)(GET_BITS(USART_RFCS(usart_periph), 12U, 14U));
 3163              		.loc 1 1106 22
 3164 000a 8327C4FE 		lw	a5,-20(s0)
 3165 000e 9387070D 		addi	a5,a5,208
 3166 0012 9C43     		lw	a5,0(a5)
 3167 0014 B183     		srli	a5,a5,12
 3168              		.loc 1 1106 12
 3169 0016 93F7F70F 		andi	a5,a5,0xff
 3170 001a 9D8B     		andi	a5,a5,7
 3171 001c 93F7F70F 		andi	a5,a5,0xff
1107:../Firmware/GD32VW55x_standard_peripheral/Source/gd32vw55x_usart.c **** }
 3172              		.loc 1 1107 1
 3173 0020 3E85     		mv	a0,a5
 3174 0022 7244     		lw	s0,28(sp)
 3175              		.cfi_restore 8
 3176              		.cfi_def_cfa 2, 32
 3177 0024 0561     		addi	sp,sp,32
 3178              		.cfi_def_cfa_offset 0
 3179 0026 8280     		jr	ra
 3180              		.cfi_endproc
 3181              	.LFE411:
 3183              		.section	.text.usart_flag_get,"ax",@progbits
 3184              		.align	1
 3185              		.globl	usart_flag_get
 3187              	usart_flag_get:
 3188              	.LFB412:
1108:../Firmware/GD32VW55x_standard_peripheral/Source/gd32vw55x_usart.c **** 
1109:../Firmware/GD32VW55x_standard_peripheral/Source/gd32vw55x_usart.c **** /*!
1110:../Firmware/GD32VW55x_standard_peripheral/Source/gd32vw55x_usart.c ****     \brief      get flag in STAT/RFCS register
1111:../Firmware/GD32VW55x_standard_peripheral/Source/gd32vw55x_usart.c ****     \param[in]  usart_periph: USART0/UARTx(x=1,2)
1112:../Firmware/GD32VW55x_standard_peripheral/Source/gd32vw55x_usart.c ****     \param[in]  flag: flag type
1113:../Firmware/GD32VW55x_standard_peripheral/Source/gd32vw55x_usart.c ****                 only one parameter can be selected which is shown as below:
1114:../Firmware/GD32VW55x_standard_peripheral/Source/gd32vw55x_usart.c ****       \arg        USART_FLAG_PERR: parity error flag
1115:../Firmware/GD32VW55x_standard_peripheral/Source/gd32vw55x_usart.c ****       \arg        USART_FLAG_FERR: frame error flag
1116:../Firmware/GD32VW55x_standard_peripheral/Source/gd32vw55x_usart.c ****       \arg        USART_FLAG_NERR: noise error flag
1117:../Firmware/GD32VW55x_standard_peripheral/Source/gd32vw55x_usart.c ****       \arg        USART_FLAG_ORERR: overrun error
1118:../Firmware/GD32VW55x_standard_peripheral/Source/gd32vw55x_usart.c ****       \arg        USART_FLAG_IDLE: idle line detected flag
1119:../Firmware/GD32VW55x_standard_peripheral/Source/gd32vw55x_usart.c ****       \arg        USART_FLAG_RBNE: read data buffer not empty
1120:../Firmware/GD32VW55x_standard_peripheral/Source/gd32vw55x_usart.c ****       \arg        USART_FLAG_TC: transmission completed
1121:../Firmware/GD32VW55x_standard_peripheral/Source/gd32vw55x_usart.c ****       \arg        USART_FLAG_TBE: transmit data register empty
1122:../Firmware/GD32VW55x_standard_peripheral/Source/gd32vw55x_usart.c ****       \arg        USART_FLAG_LBD: LIN break detected flag, not available for UARTx(x=1,2)
1123:../Firmware/GD32VW55x_standard_peripheral/Source/gd32vw55x_usart.c ****       \arg        USART_FLAG_CTSF: CTS change flag
1124:../Firmware/GD32VW55x_standard_peripheral/Source/gd32vw55x_usart.c ****       \arg        USART_FLAG_CTS: CTS level
1125:../Firmware/GD32VW55x_standard_peripheral/Source/gd32vw55x_usart.c ****       \arg        USART_FLAG_RT: receiver timeout flag
1126:../Firmware/GD32VW55x_standard_peripheral/Source/gd32vw55x_usart.c ****       \arg        USART_FLAG_EB: end of block flag, not available for UARTx(x=1,2)
1127:../Firmware/GD32VW55x_standard_peripheral/Source/gd32vw55x_usart.c ****       \arg        USART_FLAG_BSY: busy flag
1128:../Firmware/GD32VW55x_standard_peripheral/Source/gd32vw55x_usart.c ****       \arg        USART_FLAG_AM: address match flag
1129:../Firmware/GD32VW55x_standard_peripheral/Source/gd32vw55x_usart.c ****       \arg        USART_FLAG_SB: send break flag
1130:../Firmware/GD32VW55x_standard_peripheral/Source/gd32vw55x_usart.c ****       \arg        USART_FLAG_RWU: receiver wakeup from mute mode
1131:../Firmware/GD32VW55x_standard_peripheral/Source/gd32vw55x_usart.c ****       \arg        USART_FLAG_WU: wakeup from deep-sleep mode flag
1132:../Firmware/GD32VW55x_standard_peripheral/Source/gd32vw55x_usart.c ****       \arg        USART_FLAG_TEA: transmit enable acknowledge flag
1133:../Firmware/GD32VW55x_standard_peripheral/Source/gd32vw55x_usart.c ****       \arg        USART_FLAG_REA: receive enable acknowledge flag
1134:../Firmware/GD32VW55x_standard_peripheral/Source/gd32vw55x_usart.c ****       \arg        USART_FLAG_EPERR: early parity error flag
1135:../Firmware/GD32VW55x_standard_peripheral/Source/gd32vw55x_usart.c ****       \arg        USART_FLAG_RFE: receive FIFO empty flag
1136:../Firmware/GD32VW55x_standard_peripheral/Source/gd32vw55x_usart.c ****       \arg        USART_FLAG_RFF: receive FIFO full flag
1137:../Firmware/GD32VW55x_standard_peripheral/Source/gd32vw55x_usart.c ****       \arg        USART_FLAG_RFFINT: receive FIFO full interrupt flag
1138:../Firmware/GD32VW55x_standard_peripheral/Source/gd32vw55x_usart.c ****     \param[out] none
1139:../Firmware/GD32VW55x_standard_peripheral/Source/gd32vw55x_usart.c ****     \retval     FlagStatus: SET or RESET
1140:../Firmware/GD32VW55x_standard_peripheral/Source/gd32vw55x_usart.c **** */
1141:../Firmware/GD32VW55x_standard_peripheral/Source/gd32vw55x_usart.c **** FlagStatus usart_flag_get(uint32_t usart_periph, usart_flag_enum flag)
1142:../Firmware/GD32VW55x_standard_peripheral/Source/gd32vw55x_usart.c **** {
 3189              		.loc 1 1142 1
 3190              		.cfi_startproc
 3191 0000 0111     		addi	sp,sp,-32
 3192              		.cfi_def_cfa_offset 32
 3193 0002 22CE     		sw	s0,28(sp)
 3194              		.cfi_offset 8, -4
 3195 0004 0010     		addi	s0,sp,32
 3196              		.cfi_def_cfa 8, 0
 3197 0006 2326A4FE 		sw	a0,-20(s0)
 3198 000a 2324B4FE 		sw	a1,-24(s0)
1143:../Firmware/GD32VW55x_standard_peripheral/Source/gd32vw55x_usart.c ****     if(RESET != (USART_REG_VAL(usart_periph, flag) & BIT(USART_BIT_POS(flag)))){
 3199              		.loc 1 1143 18
 3200 000e 832784FE 		lw	a5,-24(s0)
 3201 0012 9983     		srli	a5,a5,6
 3202 0014 13F7F73F 		andi	a4,a5,1023
 3203 0018 8327C4FE 		lw	a5,-20(s0)
 3204 001c BA97     		add	a5,a4,a5
 3205 001e 9843     		lw	a4,0(a5)
 3206              		.loc 1 1143 54
 3207 0020 832784FE 		lw	a5,-24(s0)
 3208 0024 FD8B     		andi	a5,a5,31
 3209              		.loc 1 1143 14
 3210 0026 B357F700 		srl	a5,a4,a5
 3211 002a 858B     		andi	a5,a5,1
 3212              		.loc 1 1143 7
 3213 002c 99C3     		beq	a5,zero,.L94
1144:../Firmware/GD32VW55x_standard_peripheral/Source/gd32vw55x_usart.c ****         return SET;
 3214              		.loc 1 1144 16
 3215 002e 8547     		li	a5,1
 3216 0030 11A0     		j	.L95
 3217              	.L94:
1145:../Firmware/GD32VW55x_standard_peripheral/Source/gd32vw55x_usart.c ****     }else{
1146:../Firmware/GD32VW55x_standard_peripheral/Source/gd32vw55x_usart.c ****         return RESET;
 3218              		.loc 1 1146 16
 3219 0032 8147     		li	a5,0
 3220              	.L95:
1147:../Firmware/GD32VW55x_standard_peripheral/Source/gd32vw55x_usart.c ****     }
1148:../Firmware/GD32VW55x_standard_peripheral/Source/gd32vw55x_usart.c **** }
 3221              		.loc 1 1148 1
 3222 0034 3E85     		mv	a0,a5
 3223 0036 7244     		lw	s0,28(sp)
 3224              		.cfi_restore 8
 3225              		.cfi_def_cfa 2, 32
 3226 0038 0561     		addi	sp,sp,32
 3227              		.cfi_def_cfa_offset 0
 3228 003a 8280     		jr	ra
 3229              		.cfi_endproc
 3230              	.LFE412:
 3232              		.section	.text.usart_flag_clear,"ax",@progbits
 3233              		.align	1
 3234              		.globl	usart_flag_clear
 3236              	usart_flag_clear:
 3237              	.LFB413:
1149:../Firmware/GD32VW55x_standard_peripheral/Source/gd32vw55x_usart.c **** 
1150:../Firmware/GD32VW55x_standard_peripheral/Source/gd32vw55x_usart.c **** /*!
1151:../Firmware/GD32VW55x_standard_peripheral/Source/gd32vw55x_usart.c ****     \brief      clear USART status
1152:../Firmware/GD32VW55x_standard_peripheral/Source/gd32vw55x_usart.c ****     \param[in]  usart_periph: USART0/UARTx(x=1,2)
1153:../Firmware/GD32VW55x_standard_peripheral/Source/gd32vw55x_usart.c ****     \param[in]  flag: flag type
1154:../Firmware/GD32VW55x_standard_peripheral/Source/gd32vw55x_usart.c ****                 only one parameter can be selected which is shown as below:
1155:../Firmware/GD32VW55x_standard_peripheral/Source/gd32vw55x_usart.c ****       \arg        USART_FLAG_PERR: parity error flag
1156:../Firmware/GD32VW55x_standard_peripheral/Source/gd32vw55x_usart.c ****       \arg        USART_FLAG_FERR: frame error flag
1157:../Firmware/GD32VW55x_standard_peripheral/Source/gd32vw55x_usart.c ****       \arg        USART_FLAG_NERR: noise detected flag
1158:../Firmware/GD32VW55x_standard_peripheral/Source/gd32vw55x_usart.c ****       \arg        USART_FLAG_ORERR: overrun error flag
1159:../Firmware/GD32VW55x_standard_peripheral/Source/gd32vw55x_usart.c ****       \arg        USART_FLAG_IDLE: idle line detected flag
1160:../Firmware/GD32VW55x_standard_peripheral/Source/gd32vw55x_usart.c ****       \arg        USART_FLAG_TC: transmission complete flag
1161:../Firmware/GD32VW55x_standard_peripheral/Source/gd32vw55x_usart.c ****       \arg        USART_FLAG_LBD: LIN break detected flag, not available for UARTx(x=1,2)
1162:../Firmware/GD32VW55x_standard_peripheral/Source/gd32vw55x_usart.c ****       \arg        USART_FLAG_CTSF: CTS change flag
1163:../Firmware/GD32VW55x_standard_peripheral/Source/gd32vw55x_usart.c ****       \arg        USART_FLAG_RT: receiver timeout flag
1164:../Firmware/GD32VW55x_standard_peripheral/Source/gd32vw55x_usart.c ****       \arg        USART_FLAG_EB: end of block flag, not available for UARTx(x=1,2)
1165:../Firmware/GD32VW55x_standard_peripheral/Source/gd32vw55x_usart.c ****       \arg        USART_FLAG_AM: address match flag
1166:../Firmware/GD32VW55x_standard_peripheral/Source/gd32vw55x_usart.c ****       \arg        USART_FLAG_WU: wakeup from deep-sleep mode flag
1167:../Firmware/GD32VW55x_standard_peripheral/Source/gd32vw55x_usart.c ****       \arg        USART_FLAG_EPERR: early parity error flag
1168:../Firmware/GD32VW55x_standard_peripheral/Source/gd32vw55x_usart.c ****     \param[out] none
1169:../Firmware/GD32VW55x_standard_peripheral/Source/gd32vw55x_usart.c ****     \retval     none
1170:../Firmware/GD32VW55x_standard_peripheral/Source/gd32vw55x_usart.c **** */
1171:../Firmware/GD32VW55x_standard_peripheral/Source/gd32vw55x_usart.c **** void usart_flag_clear(uint32_t usart_periph, usart_flag_enum flag)
1172:../Firmware/GD32VW55x_standard_peripheral/Source/gd32vw55x_usart.c **** {
 3238              		.loc 1 1172 1
 3239              		.cfi_startproc
 3240 0000 0111     		addi	sp,sp,-32
 3241              		.cfi_def_cfa_offset 32
 3242 0002 22CE     		sw	s0,28(sp)
 3243              		.cfi_offset 8, -4
 3244 0004 0010     		addi	s0,sp,32
 3245              		.cfi_def_cfa 8, 0
 3246 0006 2326A4FE 		sw	a0,-20(s0)
 3247 000a 2324B4FE 		sw	a1,-24(s0)
1173:../Firmware/GD32VW55x_standard_peripheral/Source/gd32vw55x_usart.c ****   if(flag == USART_FLAG_RBNE){
 3248              		.loc 1 1173 5
 3249 000e 032784FE 		lw	a4,-24(s0)
 3250 0012 93075070 		li	a5,1797
 3251 0016 631DF700 		bne	a4,a5,.L97
1174:../Firmware/GD32VW55x_standard_peripheral/Source/gd32vw55x_usart.c ****       USART_CMD(usart_periph) |= USART_CMD_RXFCMD;
 3252              		.loc 1 1174 31
 3253 001a 8327C4FE 		lw	a5,-20(s0)
 3254 001e E107     		addi	a5,a5,24
 3255 0020 9C43     		lw	a5,0(a5)
 3256 0022 0327C4FE 		lw	a4,-20(s0)
 3257 0026 6107     		addi	a4,a4,24
 3258 0028 93E78700 		ori	a5,a5,8
 3259 002c 1CC3     		sw	a5,0(a4)
1175:../Firmware/GD32VW55x_standard_peripheral/Source/gd32vw55x_usart.c ****   }else if(flag == USART_FLAG_EPERR){
1176:../Firmware/GD32VW55x_standard_peripheral/Source/gd32vw55x_usart.c ****       USART_CHC(usart_periph) &= ~USART_CHC_EPERR;
1177:../Firmware/GD32VW55x_standard_peripheral/Source/gd32vw55x_usart.c ****   }else{
1178:../Firmware/GD32VW55x_standard_peripheral/Source/gd32vw55x_usart.c ****       USART_INTC(usart_periph) |= BIT(USART_BIT_POS(flag));
1179:../Firmware/GD32VW55x_standard_peripheral/Source/gd32vw55x_usart.c ****   }
1180:../Firmware/GD32VW55x_standard_peripheral/Source/gd32vw55x_usart.c **** 
1181:../Firmware/GD32VW55x_standard_peripheral/Source/gd32vw55x_usart.c **** }
 3260              		.loc 1 1181 1
 3261 002e A9A0     		j	.L100
 3262              	.L97:
1175:../Firmware/GD32VW55x_standard_peripheral/Source/gd32vw55x_usart.c ****   }else if(flag == USART_FLAG_EPERR){
 3263              		.loc 1 1175 11
 3264 0030 032784FE 		lw	a4,-24(s0)
 3265 0034 8D67     		li	a5,12288
 3266 0036 A107     		addi	a5,a5,8
 3267 0038 631FF700 		bne	a4,a5,.L99
1176:../Firmware/GD32VW55x_standard_peripheral/Source/gd32vw55x_usart.c ****   }else{
 3268              		.loc 1 1176 31
 3269 003c 8327C4FE 		lw	a5,-20(s0)
 3270 0040 9387070C 		addi	a5,a5,192
 3271 0044 9C43     		lw	a5,0(a5)
 3272 0046 0327C4FE 		lw	a4,-20(s0)
 3273 004a 1307070C 		addi	a4,a4,192
 3274 004e 93F7F7EF 		andi	a5,a5,-257
 3275 0052 1CC3     		sw	a5,0(a4)
 3276              		.loc 1 1181 1
 3277 0054 15A0     		j	.L100
 3278              	.L99:
1178:../Firmware/GD32VW55x_standard_peripheral/Source/gd32vw55x_usart.c ****   }
 3279              		.loc 1 1178 32
 3280 0056 8327C4FE 		lw	a5,-20(s0)
 3281 005a 93870702 		addi	a5,a5,32
 3282 005e 9843     		lw	a4,0(a5)
1178:../Firmware/GD32VW55x_standard_peripheral/Source/gd32vw55x_usart.c ****   }
 3283              		.loc 1 1178 35
 3284 0060 832784FE 		lw	a5,-24(s0)
 3285 0064 FD8B     		andi	a5,a5,31
 3286 0066 8546     		li	a3,1
 3287 0068 B397F600 		sll	a5,a3,a5
1178:../Firmware/GD32VW55x_standard_peripheral/Source/gd32vw55x_usart.c ****   }
 3288              		.loc 1 1178 32
 3289 006c 8326C4FE 		lw	a3,-20(s0)
 3290 0070 93860602 		addi	a3,a3,32
 3291 0074 D98F     		or	a5,a4,a5
 3292 0076 9CC2     		sw	a5,0(a3)
 3293              	.L100:
 3294              		.loc 1 1181 1
 3295 0078 0100     		nop
 3296 007a 7244     		lw	s0,28(sp)
 3297              		.cfi_restore 8
 3298              		.cfi_def_cfa 2, 32
 3299 007c 0561     		addi	sp,sp,32
 3300              		.cfi_def_cfa_offset 0
 3301 007e 8280     		jr	ra
 3302              		.cfi_endproc
 3303              	.LFE413:
 3305              		.section	.text.usart_interrupt_enable,"ax",@progbits
 3306              		.align	1
 3307              		.globl	usart_interrupt_enable
 3309              	usart_interrupt_enable:
 3310              	.LFB414:
1182:../Firmware/GD32VW55x_standard_peripheral/Source/gd32vw55x_usart.c **** 
1183:../Firmware/GD32VW55x_standard_peripheral/Source/gd32vw55x_usart.c **** /*!
1184:../Firmware/GD32VW55x_standard_peripheral/Source/gd32vw55x_usart.c ****     \brief      enable USART interrupt
1185:../Firmware/GD32VW55x_standard_peripheral/Source/gd32vw55x_usart.c ****     \param[in]  usart_periph: USART0/UARTx(x=1,2)
1186:../Firmware/GD32VW55x_standard_peripheral/Source/gd32vw55x_usart.c ****     \param[in]  interrupt: interrupt type
1187:../Firmware/GD32VW55x_standard_peripheral/Source/gd32vw55x_usart.c ****                 only one parameter can be selected which is shown as below:
