   1              		.file	"gd32vw55x_i2c.c"
   2              		.option nopic
   3              		.attribute arch, "rv32i2p0_m2p0_a2p0_c2p0"
   4              		.attribute unaligned_access, 0
   5              		.attribute stack_align, 16
   6              		.text
   7              	.Ltext0:
   8              		.cfi_sections	.debug_frame
   9              		.section	.text.i2c_deinit,"ax",@progbits
  10              		.align	1
  11              		.globl	i2c_deinit
  13              	i2c_deinit:
  14              	.LFB347:
  15              		.file 1 "../Firmware/GD32VW55x_standard_peripheral/Source/gd32vw55x_i2c.c"
   1:../Firmware/GD32VW55x_standard_peripheral/Source/gd32vw55x_i2c.c **** /*!
   2:../Firmware/GD32VW55x_standard_peripheral/Source/gd32vw55x_i2c.c ****     \file    gd32vw55x_i2c.c
   3:../Firmware/GD32VW55x_standard_peripheral/Source/gd32vw55x_i2c.c ****     \brief   I2C driver
   4:../Firmware/GD32VW55x_standard_peripheral/Source/gd32vw55x_i2c.c **** 
   5:../Firmware/GD32VW55x_standard_peripheral/Source/gd32vw55x_i2c.c ****     \version 2025-01-16, V1.4.0, firmware for GD32VW55x
   6:../Firmware/GD32VW55x_standard_peripheral/Source/gd32vw55x_i2c.c **** */
   7:../Firmware/GD32VW55x_standard_peripheral/Source/gd32vw55x_i2c.c **** 
   8:../Firmware/GD32VW55x_standard_peripheral/Source/gd32vw55x_i2c.c **** /*
   9:../Firmware/GD32VW55x_standard_peripheral/Source/gd32vw55x_i2c.c ****     Copyright (c) 2025, GigaDevice Semiconductor Inc.
  10:../Firmware/GD32VW55x_standard_peripheral/Source/gd32vw55x_i2c.c **** 
  11:../Firmware/GD32VW55x_standard_peripheral/Source/gd32vw55x_i2c.c ****     Redistribution and use in source and binary forms, with or without modification,
  12:../Firmware/GD32VW55x_standard_peripheral/Source/gd32vw55x_i2c.c **** are permitted provided that the following conditions are met:
  13:../Firmware/GD32VW55x_standard_peripheral/Source/gd32vw55x_i2c.c **** 
  14:../Firmware/GD32VW55x_standard_peripheral/Source/gd32vw55x_i2c.c ****     1. Redistributions of source code must retain the above copyright notice, this
  15:../Firmware/GD32VW55x_standard_peripheral/Source/gd32vw55x_i2c.c ****        list of conditions and the following disclaimer.
  16:../Firmware/GD32VW55x_standard_peripheral/Source/gd32vw55x_i2c.c ****     2. Redistributions in binary form must reproduce the above copyright notice,
  17:../Firmware/GD32VW55x_standard_peripheral/Source/gd32vw55x_i2c.c ****        this list of conditions and the following disclaimer in the documentation
  18:../Firmware/GD32VW55x_standard_peripheral/Source/gd32vw55x_i2c.c ****        and/or other materials provided with the distribution.
  19:../Firmware/GD32VW55x_standard_peripheral/Source/gd32vw55x_i2c.c ****     3. Neither the name of the copyright holder nor the names of its contributors
  20:../Firmware/GD32VW55x_standard_peripheral/Source/gd32vw55x_i2c.c ****        may be used to endorse or promote products derived from this software without
  21:../Firmware/GD32VW55x_standard_peripheral/Source/gd32vw55x_i2c.c ****        specific prior written permission.
  22:../Firmware/GD32VW55x_standard_peripheral/Source/gd32vw55x_i2c.c **** 
  23:../Firmware/GD32VW55x_standard_peripheral/Source/gd32vw55x_i2c.c ****     THIS SOFTWARE IS PROVIDED BY THE COPYRIGHT HOLDERS AND CONTRIBUTORS "AS IS"
  24:../Firmware/GD32VW55x_standard_peripheral/Source/gd32vw55x_i2c.c **** AND ANY EXPRESS OR IMPLIED WARRANTIES, INCLUDING, BUT NOT LIMITED TO, THE IMPLIED
  25:../Firmware/GD32VW55x_standard_peripheral/Source/gd32vw55x_i2c.c **** WARRANTIES OF MERCHANTABILITY AND FITNESS FOR A PARTICULAR PURPOSE ARE DISCLAIMED.
  26:../Firmware/GD32VW55x_standard_peripheral/Source/gd32vw55x_i2c.c **** IN NO EVENT SHALL THE COPYRIGHT HOLDER OR CONTRIBUTORS BE LIABLE FOR ANY DIRECT,
  27:../Firmware/GD32VW55x_standard_peripheral/Source/gd32vw55x_i2c.c **** INDIRECT, INCIDENTAL, SPECIAL, EXEMPLARY, OR CONSEQUENTIAL DAMAGES (INCLUDING, BUT
  28:../Firmware/GD32VW55x_standard_peripheral/Source/gd32vw55x_i2c.c **** NOT LIMITED TO, PROCUREMENT OF SUBSTITUTE GOODS OR SERVICES; LOSS OF USE, DATA, OR
  29:../Firmware/GD32VW55x_standard_peripheral/Source/gd32vw55x_i2c.c **** PROFITS; OR BUSINESS INTERRUPTION) HOWEVER CAUSED AND ON ANY THEORY OF LIABILITY,
  30:../Firmware/GD32VW55x_standard_peripheral/Source/gd32vw55x_i2c.c **** WHETHER IN CONTRACT, STRICT LIABILITY, OR TORT (INCLUDING NEGLIGENCE OR OTHERWISE)
  31:../Firmware/GD32VW55x_standard_peripheral/Source/gd32vw55x_i2c.c **** ARISING IN ANY WAY OUT OF THE USE OF THIS SOFTWARE, EVEN IF ADVISED OF THE POSSIBILITY
  32:../Firmware/GD32VW55x_standard_peripheral/Source/gd32vw55x_i2c.c **** OF SUCH DAMAGE.
  33:../Firmware/GD32VW55x_standard_peripheral/Source/gd32vw55x_i2c.c **** */
  34:../Firmware/GD32VW55x_standard_peripheral/Source/gd32vw55x_i2c.c **** 
  35:../Firmware/GD32VW55x_standard_peripheral/Source/gd32vw55x_i2c.c **** #include "gd32vw55x_i2c.h"
  36:../Firmware/GD32VW55x_standard_peripheral/Source/gd32vw55x_i2c.c **** 
  37:../Firmware/GD32VW55x_standard_peripheral/Source/gd32vw55x_i2c.c **** /* I2C register bit mask */
  38:../Firmware/GD32VW55x_standard_peripheral/Source/gd32vw55x_i2c.c **** #define I2C_ADDRESS_MASK              ((uint32_t)0x000003FFU)               /*!< i2c address mask *
  39:../Firmware/GD32VW55x_standard_peripheral/Source/gd32vw55x_i2c.c **** #define I2C_ADDRESS2_MASK             ((uint32_t)0x000000FEU)               /*!< the second i2c add
  40:../Firmware/GD32VW55x_standard_peripheral/Source/gd32vw55x_i2c.c **** 
  41:../Firmware/GD32VW55x_standard_peripheral/Source/gd32vw55x_i2c.c **** /* I2C register bit offset */
  42:../Firmware/GD32VW55x_standard_peripheral/Source/gd32vw55x_i2c.c **** #define CTL0_DNF_OFFSET               ((uint32_t)0x00000008U)               /*!< bit offset of DNF 
  43:../Firmware/GD32VW55x_standard_peripheral/Source/gd32vw55x_i2c.c **** #define CTL1_BYTENUM_OFFSET           ((uint32_t)0x00000010U)               /*!< bit offset of BYTE
  44:../Firmware/GD32VW55x_standard_peripheral/Source/gd32vw55x_i2c.c **** #define STAT_READDR_OFFSET            ((uint32_t)0x00000011U)               /*!< bit offset of READ
  45:../Firmware/GD32VW55x_standard_peripheral/Source/gd32vw55x_i2c.c **** #define TIMING_SCLL_OFFSET            ((uint32_t)0x00000000U)               /*!< bit offset of SCLL
  46:../Firmware/GD32VW55x_standard_peripheral/Source/gd32vw55x_i2c.c **** #define TIMING_SCLH_OFFSET            ((uint32_t)0x00000008U)               /*!< bit offset of SCLH
  47:../Firmware/GD32VW55x_standard_peripheral/Source/gd32vw55x_i2c.c **** #define TIMING_SDADELY_OFFSET         ((uint32_t)0x00000010U)               /*!< bit offset of SDAD
  48:../Firmware/GD32VW55x_standard_peripheral/Source/gd32vw55x_i2c.c **** #define TIMING_SCLDELY_OFFSET         ((uint32_t)0x00000014U)               /*!< bit offset of SCLD
  49:../Firmware/GD32VW55x_standard_peripheral/Source/gd32vw55x_i2c.c **** #define TIMING_PSC_OFFSET             ((uint32_t)0x0000001CU)               /*!< bit offset of PSC 
  50:../Firmware/GD32VW55x_standard_peripheral/Source/gd32vw55x_i2c.c **** #define SADDR1_ADDMSK_OFFSET          ((uint32_t)0x00000008U)               /*!< bit offset of ADDM
  51:../Firmware/GD32VW55x_standard_peripheral/Source/gd32vw55x_i2c.c **** #define TIMEOUT_BUSTOB_OFFSET         ((uint32_t)0x00000010U)               /*!< bit offset of BUST
  52:../Firmware/GD32VW55x_standard_peripheral/Source/gd32vw55x_i2c.c **** 
  53:../Firmware/GD32VW55x_standard_peripheral/Source/gd32vw55x_i2c.c **** /*!
  54:../Firmware/GD32VW55x_standard_peripheral/Source/gd32vw55x_i2c.c ****     \brief      reset I2C
  55:../Firmware/GD32VW55x_standard_peripheral/Source/gd32vw55x_i2c.c ****     \param[in]  i2c_periph: I2Cx(x=0,1)
  56:../Firmware/GD32VW55x_standard_peripheral/Source/gd32vw55x_i2c.c ****     \param[out] none
  57:../Firmware/GD32VW55x_standard_peripheral/Source/gd32vw55x_i2c.c ****     \retval     none
  58:../Firmware/GD32VW55x_standard_peripheral/Source/gd32vw55x_i2c.c **** */
  59:../Firmware/GD32VW55x_standard_peripheral/Source/gd32vw55x_i2c.c **** void i2c_deinit(uint32_t i2c_periph)
  60:../Firmware/GD32VW55x_standard_peripheral/Source/gd32vw55x_i2c.c **** {
  16              		.loc 1 60 1
  17              		.cfi_startproc
  18 0000 0111     		addi	sp,sp,-32
  19              		.cfi_def_cfa_offset 32
  20 0002 06CE     		sw	ra,28(sp)
  21 0004 22CC     		sw	s0,24(sp)
  22              		.cfi_offset 1, -4
  23              		.cfi_offset 8, -8
  24 0006 0010     		addi	s0,sp,32
  25              		.cfi_def_cfa 8, 0
  26 0008 2326A4FE 		sw	a0,-20(s0)
  61:../Firmware/GD32VW55x_standard_peripheral/Source/gd32vw55x_i2c.c ****     switch(i2c_periph){
  27              		.loc 1 61 5
  28 000c 0327C4FE 		lw	a4,-20(s0)
  29 0010 B7570040 		li	a5,1073762304
  30 0014 93870740 		addi	a5,a5,1024
  31 0018 630BF700 		beq	a4,a5,.L2
  32 001c 0327C4FE 		lw	a4,-20(s0)
  33 0020 B7670040 		li	a5,1073766400
  34 0024 93870780 		addi	a5,a5,-2048
  35 0028 6302F702 		beq	a4,a5,.L3
  62:../Firmware/GD32VW55x_standard_peripheral/Source/gd32vw55x_i2c.c ****     case I2C0:
  63:../Firmware/GD32VW55x_standard_peripheral/Source/gd32vw55x_i2c.c ****         /* reset I2C0 */
  64:../Firmware/GD32VW55x_standard_peripheral/Source/gd32vw55x_i2c.c ****         rcu_periph_reset_enable(RCU_I2C0RST);
  65:../Firmware/GD32VW55x_standard_peripheral/Source/gd32vw55x_i2c.c ****         rcu_periph_reset_disable(RCU_I2C0RST);
  66:../Firmware/GD32VW55x_standard_peripheral/Source/gd32vw55x_i2c.c ****         break;
  67:../Firmware/GD32VW55x_standard_peripheral/Source/gd32vw55x_i2c.c ****     case I2C1:
  68:../Firmware/GD32VW55x_standard_peripheral/Source/gd32vw55x_i2c.c ****         /* reset I2C1 */
  69:../Firmware/GD32VW55x_standard_peripheral/Source/gd32vw55x_i2c.c ****         rcu_periph_reset_enable(RCU_I2C1RST);
  70:../Firmware/GD32VW55x_standard_peripheral/Source/gd32vw55x_i2c.c ****         rcu_periph_reset_disable(RCU_I2C1RST);
  71:../Firmware/GD32VW55x_standard_peripheral/Source/gd32vw55x_i2c.c ****         break;
  72:../Firmware/GD32VW55x_standard_peripheral/Source/gd32vw55x_i2c.c ****     default:
  73:../Firmware/GD32VW55x_standard_peripheral/Source/gd32vw55x_i2c.c ****         break;
  36              		.loc 1 73 9
  37 002c 3DA8     		j	.L5
  38              	.L2:
  64:../Firmware/GD32VW55x_standard_peripheral/Source/gd32vw55x_i2c.c ****         rcu_periph_reset_disable(RCU_I2C0RST);
  39              		.loc 1 64 9
  40 002e 8567     		li	a5,4096
  41 0030 13855781 		addi	a0,a5,-2027
  42 0034 97000000 		call	rcu_periph_reset_enable
  42      E7800000 
  65:../Firmware/GD32VW55x_standard_peripheral/Source/gd32vw55x_i2c.c ****         break;
  43              		.loc 1 65 9
  44 003c 8567     		li	a5,4096
  45 003e 13855781 		addi	a0,a5,-2027
  46 0042 97000000 		call	rcu_periph_reset_disable
  46      E7800000 
  66:../Firmware/GD32VW55x_standard_peripheral/Source/gd32vw55x_i2c.c ****     case I2C1:
  47              		.loc 1 66 9
  48 004a 05A0     		j	.L5
  49              	.L3:
  69:../Firmware/GD32VW55x_standard_peripheral/Source/gd32vw55x_i2c.c ****         rcu_periph_reset_disable(RCU_I2C1RST);
  50              		.loc 1 69 9
  51 004c 8567     		li	a5,4096
  52 004e 13856781 		addi	a0,a5,-2026
  53 0052 97000000 		call	rcu_periph_reset_enable
  53      E7800000 
  70:../Firmware/GD32VW55x_standard_peripheral/Source/gd32vw55x_i2c.c ****         break;
  54              		.loc 1 70 9
  55 005a 8567     		li	a5,4096
  56 005c 13856781 		addi	a0,a5,-2026
  57 0060 97000000 		call	rcu_periph_reset_disable
  57      E7800000 
  71:../Firmware/GD32VW55x_standard_peripheral/Source/gd32vw55x_i2c.c ****     default:
  58              		.loc 1 71 9
  59 0068 0100     		nop
  60              	.L5:
  74:../Firmware/GD32VW55x_standard_peripheral/Source/gd32vw55x_i2c.c ****     }
  75:../Firmware/GD32VW55x_standard_peripheral/Source/gd32vw55x_i2c.c **** }
  61              		.loc 1 75 1
  62 006a 0100     		nop
  63 006c F240     		lw	ra,28(sp)
  64              		.cfi_restore 1
  65 006e 6244     		lw	s0,24(sp)
  66              		.cfi_restore 8
  67              		.cfi_def_cfa 2, 32
  68 0070 0561     		addi	sp,sp,32
  69              		.cfi_def_cfa_offset 0
  70 0072 8280     		jr	ra
  71              		.cfi_endproc
  72              	.LFE347:
  74              		.section	.text.i2c_timing_config,"ax",@progbits
  75              		.align	1
  76              		.globl	i2c_timing_config
  78              	i2c_timing_config:
  79              	.LFB348:
  76:../Firmware/GD32VW55x_standard_peripheral/Source/gd32vw55x_i2c.c **** 
  77:../Firmware/GD32VW55x_standard_peripheral/Source/gd32vw55x_i2c.c **** /*!
  78:../Firmware/GD32VW55x_standard_peripheral/Source/gd32vw55x_i2c.c ****     \brief      configure the timing parameters
  79:../Firmware/GD32VW55x_standard_peripheral/Source/gd32vw55x_i2c.c ****     \param[in]  i2c_periph: I2Cx(x=0,1)
  80:../Firmware/GD32VW55x_standard_peripheral/Source/gd32vw55x_i2c.c ****     \param[in]  psc: 0-0x0000000F, timing prescaler
  81:../Firmware/GD32VW55x_standard_peripheral/Source/gd32vw55x_i2c.c ****     \param[in]  scl_dely: 0-0x0000000F, data setup time
  82:../Firmware/GD32VW55x_standard_peripheral/Source/gd32vw55x_i2c.c ****     \param[in]  sda_dely: 0-0x0000000F, data hold time
  83:../Firmware/GD32VW55x_standard_peripheral/Source/gd32vw55x_i2c.c ****     \param[out] none
  84:../Firmware/GD32VW55x_standard_peripheral/Source/gd32vw55x_i2c.c ****     \retval     none
  85:../Firmware/GD32VW55x_standard_peripheral/Source/gd32vw55x_i2c.c **** */
  86:../Firmware/GD32VW55x_standard_peripheral/Source/gd32vw55x_i2c.c **** void i2c_timing_config(uint32_t i2c_periph, uint32_t psc, uint32_t scl_dely, uint32_t sda_dely)
  87:../Firmware/GD32VW55x_standard_peripheral/Source/gd32vw55x_i2c.c **** {
  80              		.loc 1 87 1
  81              		.cfi_startproc
  82 0000 0111     		addi	sp,sp,-32
  83              		.cfi_def_cfa_offset 32
  84 0002 22CE     		sw	s0,28(sp)
  85              		.cfi_offset 8, -4
  86 0004 0010     		addi	s0,sp,32
  87              		.cfi_def_cfa 8, 0
  88 0006 2326A4FE 		sw	a0,-20(s0)
  89 000a 2324B4FE 		sw	a1,-24(s0)
  90 000e 2322C4FE 		sw	a2,-28(s0)
  91 0012 2320D4FE 		sw	a3,-32(s0)
  88:../Firmware/GD32VW55x_standard_peripheral/Source/gd32vw55x_i2c.c ****     /* clear PSC, SCLDELY, SDADELY bits in I2C_TIMING register */
  89:../Firmware/GD32VW55x_standard_peripheral/Source/gd32vw55x_i2c.c ****     I2C_TIMING(i2c_periph) &= ~I2C_TIMING_PSC;
  92              		.loc 1 89 28
  93 0016 8327C4FE 		lw	a5,-20(s0)
  94 001a C107     		addi	a5,a5,16
  95 001c 9843     		lw	a4,0(a5)
  96 001e 8327C4FE 		lw	a5,-20(s0)
  97 0022 C107     		addi	a5,a5,16
  98 0024 BE86     		mv	a3,a5
  99 0026 B7070010 		li	a5,268435456
 100 002a FD17     		addi	a5,a5,-1
 101 002c F98F     		and	a5,a4,a5
 102 002e 9CC2     		sw	a5,0(a3)
  90:../Firmware/GD32VW55x_standard_peripheral/Source/gd32vw55x_i2c.c ****     I2C_TIMING(i2c_periph) &= ~I2C_TIMING_SCLDELY;
 103              		.loc 1 90 28
 104 0030 8327C4FE 		lw	a5,-20(s0)
 105 0034 C107     		addi	a5,a5,16
 106 0036 9843     		lw	a4,0(a5)
 107 0038 8327C4FE 		lw	a5,-20(s0)
 108 003c C107     		addi	a5,a5,16
 109 003e BE86     		mv	a3,a5
 110 0040 B70710FF 		li	a5,-15728640
 111 0044 FD17     		addi	a5,a5,-1
 112 0046 F98F     		and	a5,a4,a5
 113 0048 9CC2     		sw	a5,0(a3)
  91:../Firmware/GD32VW55x_standard_peripheral/Source/gd32vw55x_i2c.c ****     I2C_TIMING(i2c_periph) &= ~I2C_TIMING_SDADELY;
 114              		.loc 1 91 28
 115 004a 8327C4FE 		lw	a5,-20(s0)
 116 004e C107     		addi	a5,a5,16
 117 0050 9843     		lw	a4,0(a5)
 118 0052 8327C4FE 		lw	a5,-20(s0)
 119 0056 C107     		addi	a5,a5,16
 120 0058 BE86     		mv	a3,a5
 121 005a B707F1FF 		li	a5,-983040
 122 005e FD17     		addi	a5,a5,-1
 123 0060 F98F     		and	a5,a4,a5
 124 0062 9CC2     		sw	a5,0(a3)
  92:../Firmware/GD32VW55x_standard_peripheral/Source/gd32vw55x_i2c.c ****     /* mask PSC, SCLDELY, SDADELY bits in I2C_TIMING register */
  93:../Firmware/GD32VW55x_standard_peripheral/Source/gd32vw55x_i2c.c ****     psc = (uint32_t)(psc << TIMING_PSC_OFFSET) & I2C_TIMING_PSC;
 125              		.loc 1 93 9
 126 0064 832784FE 		lw	a5,-24(s0)
 127 0068 F207     		slli	a5,a5,28
 128 006a 2324F4FE 		sw	a5,-24(s0)
  94:../Firmware/GD32VW55x_standard_peripheral/Source/gd32vw55x_i2c.c ****     scl_dely = (uint32_t)(scl_dely << TIMING_SCLDELY_OFFSET) & I2C_TIMING_SCLDELY;
 129              		.loc 1 94 36
 130 006e 832744FE 		lw	a5,-28(s0)
 131 0072 13974701 		slli	a4,a5,20
 132              		.loc 1 94 14
 133 0076 B707F000 		li	a5,15728640
 134 007a F98F     		and	a5,a4,a5
 135 007c 2322F4FE 		sw	a5,-28(s0)
  95:../Firmware/GD32VW55x_standard_peripheral/Source/gd32vw55x_i2c.c ****     sda_dely = (uint32_t)(sda_dely << TIMING_SDADELY_OFFSET) & I2C_TIMING_SDADELY;
 136              		.loc 1 95 36
 137 0080 832704FE 		lw	a5,-32(s0)
 138 0084 13970701 		slli	a4,a5,16
 139              		.loc 1 95 14
 140 0088 B7070F00 		li	a5,983040
 141 008c F98F     		and	a5,a4,a5
 142 008e 2320F4FE 		sw	a5,-32(s0)
  96:../Firmware/GD32VW55x_standard_peripheral/Source/gd32vw55x_i2c.c ****     /* write PSC, SCLDELY, SDADELY bits in I2C_TIMING register */
  97:../Firmware/GD32VW55x_standard_peripheral/Source/gd32vw55x_i2c.c ****     I2C_TIMING(i2c_periph) |= (psc | scl_dely |sda_dely);
 143              		.loc 1 97 28
 144 0092 8327C4FE 		lw	a5,-20(s0)
 145 0096 C107     		addi	a5,a5,16
 146 0098 9843     		lw	a4,0(a5)
 147              		.loc 1 97 36
 148 009a 832684FE 		lw	a3,-24(s0)
 149 009e 832744FE 		lw	a5,-28(s0)
 150 00a2 DD8E     		or	a3,a3,a5
 151              		.loc 1 97 47
 152 00a4 832704FE 		lw	a5,-32(s0)
 153 00a8 D58F     		or	a5,a3,a5
 154              		.loc 1 97 28
 155 00aa 8326C4FE 		lw	a3,-20(s0)
 156 00ae C106     		addi	a3,a3,16
 157 00b0 D98F     		or	a5,a4,a5
 158 00b2 9CC2     		sw	a5,0(a3)
  98:../Firmware/GD32VW55x_standard_peripheral/Source/gd32vw55x_i2c.c **** }
 159              		.loc 1 98 1
 160 00b4 0100     		nop
 161 00b6 7244     		lw	s0,28(sp)
 162              		.cfi_restore 8
 163              		.cfi_def_cfa 2, 32
 164 00b8 0561     		addi	sp,sp,32
 165              		.cfi_def_cfa_offset 0
 166 00ba 8280     		jr	ra
 167              		.cfi_endproc
 168              	.LFE348:
 170              		.section	.text.i2c_digital_noise_filter_config,"ax",@progbits
 171              		.align	1
 172              		.globl	i2c_digital_noise_filter_config
 174              	i2c_digital_noise_filter_config:
 175              	.LFB349:
  99:../Firmware/GD32VW55x_standard_peripheral/Source/gd32vw55x_i2c.c **** 
 100:../Firmware/GD32VW55x_standard_peripheral/Source/gd32vw55x_i2c.c **** /*!
 101:../Firmware/GD32VW55x_standard_peripheral/Source/gd32vw55x_i2c.c ****     \brief      configure digital noise filter
 102:../Firmware/GD32VW55x_standard_peripheral/Source/gd32vw55x_i2c.c ****     \param[in]  i2c_periph: I2Cx(x=0,1)
 103:../Firmware/GD32VW55x_standard_peripheral/Source/gd32vw55x_i2c.c ****     \param[in]  filter_length: the length of filter spikes
 104:../Firmware/GD32VW55x_standard_peripheral/Source/gd32vw55x_i2c.c ****                 only one parameter can be selected which is shown as below:
 105:../Firmware/GD32VW55x_standard_peripheral/Source/gd32vw55x_i2c.c ****       \arg        FILTER_DISABLE: digital filter is disabled
 106:../Firmware/GD32VW55x_standard_peripheral/Source/gd32vw55x_i2c.c ****       \arg        FILTER_LENGTH_1: digital filter is enabled and filter spikes with a length of up 
 107:../Firmware/GD32VW55x_standard_peripheral/Source/gd32vw55x_i2c.c ****       \arg        FILTER_LENGTH_2: digital filter is enabled and filter spikes with a length of up 
 108:../Firmware/GD32VW55x_standard_peripheral/Source/gd32vw55x_i2c.c ****       \arg        FILTER_LENGTH_3: digital filter is enabled and filter spikes with a length of up 
 109:../Firmware/GD32VW55x_standard_peripheral/Source/gd32vw55x_i2c.c ****       \arg        FILTER_LENGTH_4: digital filter is enabled and filter spikes with a length of up 
 110:../Firmware/GD32VW55x_standard_peripheral/Source/gd32vw55x_i2c.c ****       \arg        FILTER_LENGTH_5: digital filter is enabled and filter spikes with a length of up 
 111:../Firmware/GD32VW55x_standard_peripheral/Source/gd32vw55x_i2c.c ****       \arg        FILTER_LENGTH_6: digital filter is enabled and filter spikes with a length of up 
 112:../Firmware/GD32VW55x_standard_peripheral/Source/gd32vw55x_i2c.c ****       \arg        FILTER_LENGTH_7: digital filter is enabled and filter spikes with a length of up 
 113:../Firmware/GD32VW55x_standard_peripheral/Source/gd32vw55x_i2c.c ****       \arg        FILTER_LENGTH_8: digital filter is enabled and filter spikes with a length of up 
 114:../Firmware/GD32VW55x_standard_peripheral/Source/gd32vw55x_i2c.c ****       \arg        FILTER_LENGTH_9: digital filter is enabled and filter spikes with a length of up 
 115:../Firmware/GD32VW55x_standard_peripheral/Source/gd32vw55x_i2c.c ****       \arg        FILTER_LENGTH_10: digital filter is enabled and filter spikes with a length of up
 116:../Firmware/GD32VW55x_standard_peripheral/Source/gd32vw55x_i2c.c ****       \arg        FILTER_LENGTH_11: digital filter is enabled and filter spikes with a length of up
 117:../Firmware/GD32VW55x_standard_peripheral/Source/gd32vw55x_i2c.c ****       \arg        FILTER_LENGTH_12: digital filter is enabled and filter spikes with a length of up
 118:../Firmware/GD32VW55x_standard_peripheral/Source/gd32vw55x_i2c.c ****       \arg        FILTER_LENGTH_13: digital filter is enabled and filter spikes with a length of up
 119:../Firmware/GD32VW55x_standard_peripheral/Source/gd32vw55x_i2c.c ****       \arg        FILTER_LENGTH_14: digital filter is enabled and filter spikes with a length of up
 120:../Firmware/GD32VW55x_standard_peripheral/Source/gd32vw55x_i2c.c ****       \arg        FILTER_LENGTH_15: digital filter is enabled and filter spikes with a length of up
 121:../Firmware/GD32VW55x_standard_peripheral/Source/gd32vw55x_i2c.c ****     \param[out] none
 122:../Firmware/GD32VW55x_standard_peripheral/Source/gd32vw55x_i2c.c ****     \retval     none
 123:../Firmware/GD32VW55x_standard_peripheral/Source/gd32vw55x_i2c.c **** */
 124:../Firmware/GD32VW55x_standard_peripheral/Source/gd32vw55x_i2c.c **** void i2c_digital_noise_filter_config(uint32_t i2c_periph, uint32_t filter_length)
 125:../Firmware/GD32VW55x_standard_peripheral/Source/gd32vw55x_i2c.c **** {
 176              		.loc 1 125 1
 177              		.cfi_startproc
 178 0000 0111     		addi	sp,sp,-32
 179              		.cfi_def_cfa_offset 32
 180 0002 22CE     		sw	s0,28(sp)
 181              		.cfi_offset 8, -4
 182 0004 0010     		addi	s0,sp,32
 183              		.cfi_def_cfa 8, 0
 184 0006 2326A4FE 		sw	a0,-20(s0)
 185 000a 2324B4FE 		sw	a1,-24(s0)
 126:../Firmware/GD32VW55x_standard_peripheral/Source/gd32vw55x_i2c.c ****     I2C_CTL0(i2c_periph) &= (uint32_t)(~I2C_CTL0_DNF);
 186              		.loc 1 126 26
 187 000e 8327C4FE 		lw	a5,-20(s0)
 188 0012 9443     		lw	a3,0(a5)
 189 0014 8327C4FE 		lw	a5,-20(s0)
 190 0018 7D77     		li	a4,-4096
 191 001a 1307F70F 		addi	a4,a4,255
 192 001e 758F     		and	a4,a3,a4
 193 0020 98C3     		sw	a4,0(a5)
 127:../Firmware/GD32VW55x_standard_peripheral/Source/gd32vw55x_i2c.c ****     I2C_CTL0(i2c_periph) |= (uint32_t)(filter_length << CTL0_DNF_OFFSET);
 194              		.loc 1 127 26
 195 0022 8327C4FE 		lw	a5,-20(s0)
 196 0026 9443     		lw	a3,0(a5)
 197              		.loc 1 127 54
 198 0028 832784FE 		lw	a5,-24(s0)
 199 002c 13978700 		slli	a4,a5,8
 200              		.loc 1 127 26
 201 0030 8327C4FE 		lw	a5,-20(s0)
 202 0034 558F     		or	a4,a3,a4
 203 0036 98C3     		sw	a4,0(a5)
 128:../Firmware/GD32VW55x_standard_peripheral/Source/gd32vw55x_i2c.c **** }
 204              		.loc 1 128 1
 205 0038 0100     		nop
 206 003a 7244     		lw	s0,28(sp)
 207              		.cfi_restore 8
 208              		.cfi_def_cfa 2, 32
 209 003c 0561     		addi	sp,sp,32
 210              		.cfi_def_cfa_offset 0
 211 003e 8280     		jr	ra
 212              		.cfi_endproc
 213              	.LFE349:
 215              		.section	.text.i2c_analog_noise_filter_enable,"ax",@progbits
 216              		.align	1
 217              		.globl	i2c_analog_noise_filter_enable
 219              	i2c_analog_noise_filter_enable:
 220              	.LFB350:
 129:../Firmware/GD32VW55x_standard_peripheral/Source/gd32vw55x_i2c.c **** 
 130:../Firmware/GD32VW55x_standard_peripheral/Source/gd32vw55x_i2c.c **** /*!
 131:../Firmware/GD32VW55x_standard_peripheral/Source/gd32vw55x_i2c.c ****     \brief      enable analog noise filter
 132:../Firmware/GD32VW55x_standard_peripheral/Source/gd32vw55x_i2c.c ****     \param[in]  i2c_periph: I2Cx(x=0,1)
 133:../Firmware/GD32VW55x_standard_peripheral/Source/gd32vw55x_i2c.c ****     \param[out] none
 134:../Firmware/GD32VW55x_standard_peripheral/Source/gd32vw55x_i2c.c ****     \retval     none
 135:../Firmware/GD32VW55x_standard_peripheral/Source/gd32vw55x_i2c.c **** */
 136:../Firmware/GD32VW55x_standard_peripheral/Source/gd32vw55x_i2c.c **** void i2c_analog_noise_filter_enable(uint32_t i2c_periph)
 137:../Firmware/GD32VW55x_standard_peripheral/Source/gd32vw55x_i2c.c **** {
 221              		.loc 1 137 1
 222              		.cfi_startproc
 223 0000 0111     		addi	sp,sp,-32
 224              		.cfi_def_cfa_offset 32
 225 0002 22CE     		sw	s0,28(sp)
 226              		.cfi_offset 8, -4
 227 0004 0010     		addi	s0,sp,32
 228              		.cfi_def_cfa 8, 0
 229 0006 2326A4FE 		sw	a0,-20(s0)
 138:../Firmware/GD32VW55x_standard_peripheral/Source/gd32vw55x_i2c.c ****     I2C_CTL0(i2c_periph) &= ~I2C_CTL0_ANOFF;
 230              		.loc 1 138 26
 231 000a 8327C4FE 		lw	a5,-20(s0)
 232 000e 9443     		lw	a3,0(a5)
 233 0010 8327C4FE 		lw	a5,-20(s0)
 234 0014 7D77     		li	a4,-4096
 235 0016 7D17     		addi	a4,a4,-1
 236 0018 758F     		and	a4,a3,a4
 237 001a 98C3     		sw	a4,0(a5)
 139:../Firmware/GD32VW55x_standard_peripheral/Source/gd32vw55x_i2c.c **** }
 238              		.loc 1 139 1
 239 001c 0100     		nop
 240 001e 7244     		lw	s0,28(sp)
 241              		.cfi_restore 8
 242              		.cfi_def_cfa 2, 32
 243 0020 0561     		addi	sp,sp,32
 244              		.cfi_def_cfa_offset 0
 245 0022 8280     		jr	ra
 246              		.cfi_endproc
 247              	.LFE350:
 249              		.section	.text.i2c_analog_noise_filter_disable,"ax",@progbits
 250              		.align	1
 251              		.globl	i2c_analog_noise_filter_disable
 253              	i2c_analog_noise_filter_disable:
 254              	.LFB351:
 140:../Firmware/GD32VW55x_standard_peripheral/Source/gd32vw55x_i2c.c **** 
 141:../Firmware/GD32VW55x_standard_peripheral/Source/gd32vw55x_i2c.c **** /*!
 142:../Firmware/GD32VW55x_standard_peripheral/Source/gd32vw55x_i2c.c ****     \brief      disable analog noise filter
 143:../Firmware/GD32VW55x_standard_peripheral/Source/gd32vw55x_i2c.c ****     \param[in]  i2c_periph: I2Cx(x=0,1)
 144:../Firmware/GD32VW55x_standard_peripheral/Source/gd32vw55x_i2c.c ****     \param[out] none
 145:../Firmware/GD32VW55x_standard_peripheral/Source/gd32vw55x_i2c.c ****     \retval     none
 146:../Firmware/GD32VW55x_standard_peripheral/Source/gd32vw55x_i2c.c **** */
 147:../Firmware/GD32VW55x_standard_peripheral/Source/gd32vw55x_i2c.c **** void i2c_analog_noise_filter_disable(uint32_t i2c_periph)
 148:../Firmware/GD32VW55x_standard_peripheral/Source/gd32vw55x_i2c.c **** {
 255              		.loc 1 148 1
 256              		.cfi_startproc
 257 0000 0111     		addi	sp,sp,-32
 258              		.cfi_def_cfa_offset 32
 259 0002 22CE     		sw	s0,28(sp)
 260              		.cfi_offset 8, -4
 261 0004 0010     		addi	s0,sp,32
 262              		.cfi_def_cfa 8, 0
 263 0006 2326A4FE 		sw	a0,-20(s0)
 149:../Firmware/GD32VW55x_standard_peripheral/Source/gd32vw55x_i2c.c ****     I2C_CTL0(i2c_periph) |= I2C_CTL0_ANOFF;
 264              		.loc 1 149 26
 265 000a 8327C4FE 		lw	a5,-20(s0)
 266 000e 9443     		lw	a3,0(a5)
 267 0010 8327C4FE 		lw	a5,-20(s0)
 268 0014 0567     		li	a4,4096
 269 0016 558F     		or	a4,a3,a4
 270 0018 98C3     		sw	a4,0(a5)
 150:../Firmware/GD32VW55x_standard_peripheral/Source/gd32vw55x_i2c.c **** }
 271              		.loc 1 150 1
 272 001a 0100     		nop
 273 001c 7244     		lw	s0,28(sp)
 274              		.cfi_restore 8
 275              		.cfi_def_cfa 2, 32
 276 001e 0561     		addi	sp,sp,32
 277              		.cfi_def_cfa_offset 0
 278 0020 8280     		jr	ra
 279              		.cfi_endproc
 280              	.LFE351:
 282              		.section	.text.i2c_master_clock_config,"ax",@progbits
 283              		.align	1
 284              		.globl	i2c_master_clock_config
 286              	i2c_master_clock_config:
 287              	.LFB352:
 151:../Firmware/GD32VW55x_standard_peripheral/Source/gd32vw55x_i2c.c **** 
 152:../Firmware/GD32VW55x_standard_peripheral/Source/gd32vw55x_i2c.c **** /*!
 153:../Firmware/GD32VW55x_standard_peripheral/Source/gd32vw55x_i2c.c ****     \brief      configure the SCL high and low period of clock in master mode
 154:../Firmware/GD32VW55x_standard_peripheral/Source/gd32vw55x_i2c.c ****     \param[in]  i2c_periph: I2Cx(x=0,1)
 155:../Firmware/GD32VW55x_standard_peripheral/Source/gd32vw55x_i2c.c ****     \param[in]  sclh: 0-0x000000FF, SCL high period
 156:../Firmware/GD32VW55x_standard_peripheral/Source/gd32vw55x_i2c.c ****     \param[in]  scll: 0-0x000000FF, SCL low period
 157:../Firmware/GD32VW55x_standard_peripheral/Source/gd32vw55x_i2c.c ****     \param[out] none
 158:../Firmware/GD32VW55x_standard_peripheral/Source/gd32vw55x_i2c.c ****     \retval     none
 159:../Firmware/GD32VW55x_standard_peripheral/Source/gd32vw55x_i2c.c **** */
 160:../Firmware/GD32VW55x_standard_peripheral/Source/gd32vw55x_i2c.c **** void i2c_master_clock_config(uint32_t i2c_periph, uint32_t sclh, uint32_t scll)
 161:../Firmware/GD32VW55x_standard_peripheral/Source/gd32vw55x_i2c.c **** {
 288              		.loc 1 161 1
 289              		.cfi_startproc
 290 0000 0111     		addi	sp,sp,-32
 291              		.cfi_def_cfa_offset 32
 292 0002 22CE     		sw	s0,28(sp)
 293              		.cfi_offset 8, -4
 294 0004 0010     		addi	s0,sp,32
 295              		.cfi_def_cfa 8, 0
 296 0006 2326A4FE 		sw	a0,-20(s0)
 297 000a 2324B4FE 		sw	a1,-24(s0)
 298 000e 2322C4FE 		sw	a2,-28(s0)
 162:../Firmware/GD32VW55x_standard_peripheral/Source/gd32vw55x_i2c.c ****     /* clear SCLH, SCLL bits in I2C_TIMING register */
 163:../Firmware/GD32VW55x_standard_peripheral/Source/gd32vw55x_i2c.c ****     I2C_TIMING(i2c_periph) &= ~I2C_TIMING_SCLH;
 299              		.loc 1 163 28
 300 0012 8327C4FE 		lw	a5,-20(s0)
 301 0016 C107     		addi	a5,a5,16
 302 0018 9843     		lw	a4,0(a5)
 303 001a 8327C4FE 		lw	a5,-20(s0)
 304 001e C107     		addi	a5,a5,16
 305 0020 BE86     		mv	a3,a5
 306 0022 C177     		li	a5,-65536
 307 0024 9387F70F 		addi	a5,a5,255
 308 0028 F98F     		and	a5,a4,a5
 309 002a 9CC2     		sw	a5,0(a3)
 164:../Firmware/GD32VW55x_standard_peripheral/Source/gd32vw55x_i2c.c ****     I2C_TIMING(i2c_periph) &= ~I2C_TIMING_SCLL;
 310              		.loc 1 164 28
 311 002c 8327C4FE 		lw	a5,-20(s0)
 312 0030 C107     		addi	a5,a5,16
 313 0032 9C43     		lw	a5,0(a5)
 314 0034 0327C4FE 		lw	a4,-20(s0)
 315 0038 4107     		addi	a4,a4,16
 316 003a 93F707F0 		andi	a5,a5,-256
 317 003e 1CC3     		sw	a5,0(a4)
 165:../Firmware/GD32VW55x_standard_peripheral/Source/gd32vw55x_i2c.c ****     /* mask SCLH, SCLL bits in I2C_TIMING register */
 166:../Firmware/GD32VW55x_standard_peripheral/Source/gd32vw55x_i2c.c ****     sclh = (uint32_t)(sclh << TIMING_SCLH_OFFSET) & I2C_TIMING_SCLH;
 318              		.loc 1 166 28
 319 0040 832784FE 		lw	a5,-24(s0)
 320 0044 13978700 		slli	a4,a5,8
 321              		.loc 1 166 10
 322 0048 C167     		li	a5,65536
 323 004a FD17     		addi	a5,a5,-1
 324 004c F98F     		and	a5,a4,a5
 325 004e 2324F4FE 		sw	a5,-24(s0)
 167:../Firmware/GD32VW55x_standard_peripheral/Source/gd32vw55x_i2c.c ****     scll = (uint32_t)(scll << TIMING_SCLL_OFFSET) & I2C_TIMING_SCLL;
 326              		.loc 1 167 10
 327 0052 832744FE 		lw	a5,-28(s0)
 328 0056 93F7F70F 		andi	a5,a5,255
 329 005a 2322F4FE 		sw	a5,-28(s0)
 168:../Firmware/GD32VW55x_standard_peripheral/Source/gd32vw55x_i2c.c ****     /* write SCLH, SCLL bits in I2C_TIMING register */
 169:../Firmware/GD32VW55x_standard_peripheral/Source/gd32vw55x_i2c.c ****     I2C_TIMING(i2c_periph) |= (sclh | scll);
 330              		.loc 1 169 28
 331 005e 8327C4FE 		lw	a5,-20(s0)
 332 0062 C107     		addi	a5,a5,16
 333 0064 9843     		lw	a4,0(a5)
 334              		.loc 1 169 37
 335 0066 832684FE 		lw	a3,-24(s0)
 336 006a 832744FE 		lw	a5,-28(s0)
 337 006e D58F     		or	a5,a3,a5
 338              		.loc 1 169 28
 339 0070 8326C4FE 		lw	a3,-20(s0)
 340 0074 C106     		addi	a3,a3,16
 341 0076 D98F     		or	a5,a4,a5
 342 0078 9CC2     		sw	a5,0(a3)
 170:../Firmware/GD32VW55x_standard_peripheral/Source/gd32vw55x_i2c.c **** }
 343              		.loc 1 170 1
 344 007a 0100     		nop
 345 007c 7244     		lw	s0,28(sp)
 346              		.cfi_restore 8
 347              		.cfi_def_cfa 2, 32
 348 007e 0561     		addi	sp,sp,32
 349              		.cfi_def_cfa_offset 0
 350 0080 8280     		jr	ra
 351              		.cfi_endproc
 352              	.LFE352:
 354              		.section	.text.i2c_master_addressing,"ax",@progbits
 355              		.align	1
 356              		.globl	i2c_master_addressing
 358              	i2c_master_addressing:
 359              	.LFB353:
 171:../Firmware/GD32VW55x_standard_peripheral/Source/gd32vw55x_i2c.c **** 
 172:../Firmware/GD32VW55x_standard_peripheral/Source/gd32vw55x_i2c.c **** /*!
 173:../Firmware/GD32VW55x_standard_peripheral/Source/gd32vw55x_i2c.c ****     \brief      configure I2C slave address and transfer direction in master mode
 174:../Firmware/GD32VW55x_standard_peripheral/Source/gd32vw55x_i2c.c ****     \param[in]  i2c_periph: I2Cx(x=0,1)
 175:../Firmware/GD32VW55x_standard_peripheral/Source/gd32vw55x_i2c.c ****     \param[in]  address: 0-0x3FF except reserved address, I2C slave address to be sent
 176:../Firmware/GD32VW55x_standard_peripheral/Source/gd32vw55x_i2c.c ****     \param[in]  trans_direction: I2C transfer direction in master mode
 177:../Firmware/GD32VW55x_standard_peripheral/Source/gd32vw55x_i2c.c ****                 only one parameter can be selected which is shown as below:
 178:../Firmware/GD32VW55x_standard_peripheral/Source/gd32vw55x_i2c.c ****       \arg        I2C_MASTER_TRANSMIT: master transmit
 179:../Firmware/GD32VW55x_standard_peripheral/Source/gd32vw55x_i2c.c ****       \arg        I2C_MASTER_RECEIVE: master receive
 180:../Firmware/GD32VW55x_standard_peripheral/Source/gd32vw55x_i2c.c ****     \param[out] none
 181:../Firmware/GD32VW55x_standard_peripheral/Source/gd32vw55x_i2c.c ****     \retval     none
 182:../Firmware/GD32VW55x_standard_peripheral/Source/gd32vw55x_i2c.c **** */
 183:../Firmware/GD32VW55x_standard_peripheral/Source/gd32vw55x_i2c.c **** void i2c_master_addressing(uint32_t i2c_periph, uint32_t address, uint32_t trans_direction)
 184:../Firmware/GD32VW55x_standard_peripheral/Source/gd32vw55x_i2c.c **** {
 360              		.loc 1 184 1
 361              		.cfi_startproc
 362 0000 0111     		addi	sp,sp,-32
 363              		.cfi_def_cfa_offset 32
 364 0002 22CE     		sw	s0,28(sp)
 365              		.cfi_offset 8, -4
 366 0004 0010     		addi	s0,sp,32
 367              		.cfi_def_cfa 8, 0
 368 0006 2326A4FE 		sw	a0,-20(s0)
 369 000a 2324B4FE 		sw	a1,-24(s0)
 370 000e 2322C4FE 		sw	a2,-28(s0)
 185:../Firmware/GD32VW55x_standard_peripheral/Source/gd32vw55x_i2c.c ****     /* configure slave address */
 186:../Firmware/GD32VW55x_standard_peripheral/Source/gd32vw55x_i2c.c ****     I2C_CTL1(i2c_periph) &= ~I2C_CTL1_SADDRESS;
 371              		.loc 1 186 26
 372 0012 8327C4FE 		lw	a5,-20(s0)
 373 0016 9107     		addi	a5,a5,4
 374 0018 9C43     		lw	a5,0(a5)
 375 001a 0327C4FE 		lw	a4,-20(s0)
 376 001e 1107     		addi	a4,a4,4
 377 0020 93F707C0 		andi	a5,a5,-1024
 378 0024 1CC3     		sw	a5,0(a4)
 187:../Firmware/GD32VW55x_standard_peripheral/Source/gd32vw55x_i2c.c ****     I2C_CTL1(i2c_periph) |= address;
 379              		.loc 1 187 26
 380 0026 8327C4FE 		lw	a5,-20(s0)
 381 002a 9107     		addi	a5,a5,4
 382 002c 9843     		lw	a4,0(a5)
 383 002e 8327C4FE 		lw	a5,-20(s0)
 384 0032 9107     		addi	a5,a5,4
 385 0034 BE86     		mv	a3,a5
 386 0036 832784FE 		lw	a5,-24(s0)
 387 003a D98F     		or	a5,a4,a5
 388 003c 9CC2     		sw	a5,0(a3)
 188:../Firmware/GD32VW55x_standard_peripheral/Source/gd32vw55x_i2c.c ****     /* configure transfer direction */
 189:../Firmware/GD32VW55x_standard_peripheral/Source/gd32vw55x_i2c.c ****     I2C_CTL1(i2c_periph) &= ~I2C_CTL1_TRDIR;
 389              		.loc 1 189 26
 390 003e 8327C4FE 		lw	a5,-20(s0)
 391 0042 9107     		addi	a5,a5,4
 392 0044 9C43     		lw	a5,0(a5)
 393 0046 0327C4FE 		lw	a4,-20(s0)
 394 004a 1107     		addi	a4,a4,4
 395 004c 93F7F7BF 		andi	a5,a5,-1025
 396 0050 1CC3     		sw	a5,0(a4)
 190:../Firmware/GD32VW55x_standard_peripheral/Source/gd32vw55x_i2c.c ****     I2C_CTL1(i2c_periph) |= trans_direction;
 397              		.loc 1 190 26
 398 0052 8327C4FE 		lw	a5,-20(s0)
 399 0056 9107     		addi	a5,a5,4
 400 0058 9843     		lw	a4,0(a5)
 401 005a 8327C4FE 		lw	a5,-20(s0)
 402 005e 9107     		addi	a5,a5,4
 403 0060 BE86     		mv	a3,a5
 404 0062 832744FE 		lw	a5,-28(s0)
 405 0066 D98F     		or	a5,a4,a5
 406 0068 9CC2     		sw	a5,0(a3)
 191:../Firmware/GD32VW55x_standard_peripheral/Source/gd32vw55x_i2c.c **** }
 407              		.loc 1 191 1
 408 006a 0100     		nop
 409 006c 7244     		lw	s0,28(sp)
 410              		.cfi_restore 8
 411              		.cfi_def_cfa 2, 32
 412 006e 0561     		addi	sp,sp,32
 413              		.cfi_def_cfa_offset 0
 414 0070 8280     		jr	ra
 415              		.cfi_endproc
 416              	.LFE353:
 418              		.section	.text.i2c_address10_header_enable,"ax",@progbits
 419              		.align	1
 420              		.globl	i2c_address10_header_enable
 422              	i2c_address10_header_enable:
 423              	.LFB354:
 192:../Firmware/GD32VW55x_standard_peripheral/Source/gd32vw55x_i2c.c **** 
 193:../Firmware/GD32VW55x_standard_peripheral/Source/gd32vw55x_i2c.c **** /*!
 194:../Firmware/GD32VW55x_standard_peripheral/Source/gd32vw55x_i2c.c ****     \brief      10-bit address header executes read direction only in master receive mode
 195:../Firmware/GD32VW55x_standard_peripheral/Source/gd32vw55x_i2c.c ****     \param[in]  i2c_periph: I2Cx(x=0,1)
 196:../Firmware/GD32VW55x_standard_peripheral/Source/gd32vw55x_i2c.c ****     \param[out] none
 197:../Firmware/GD32VW55x_standard_peripheral/Source/gd32vw55x_i2c.c ****     \retval     none
 198:../Firmware/GD32VW55x_standard_peripheral/Source/gd32vw55x_i2c.c **** */
 199:../Firmware/GD32VW55x_standard_peripheral/Source/gd32vw55x_i2c.c **** void i2c_address10_header_enable(uint32_t i2c_periph)
 200:../Firmware/GD32VW55x_standard_peripheral/Source/gd32vw55x_i2c.c **** {
 424              		.loc 1 200 1
 425              		.cfi_startproc
 426 0000 0111     		addi	sp,sp,-32
 427              		.cfi_def_cfa_offset 32
 428 0002 22CE     		sw	s0,28(sp)
 429              		.cfi_offset 8, -4
 430 0004 0010     		addi	s0,sp,32
 431              		.cfi_def_cfa 8, 0
 432 0006 2326A4FE 		sw	a0,-20(s0)
 201:../Firmware/GD32VW55x_standard_peripheral/Source/gd32vw55x_i2c.c ****     I2C_CTL1(i2c_periph) |= I2C_CTL1_HEAD10R;
 433              		.loc 1 201 26
 434 000a 8327C4FE 		lw	a5,-20(s0)
 435 000e 9107     		addi	a5,a5,4
 436 0010 9843     		lw	a4,0(a5)
 437 0012 8327C4FE 		lw	a5,-20(s0)
 438 0016 9107     		addi	a5,a5,4
 439 0018 BE86     		mv	a3,a5
 440 001a 8567     		li	a5,4096
 441 001c D98F     		or	a5,a4,a5
 442 001e 9CC2     		sw	a5,0(a3)
 202:../Firmware/GD32VW55x_standard_peripheral/Source/gd32vw55x_i2c.c **** }
 443              		.loc 1 202 1
 444 0020 0100     		nop
 445 0022 7244     		lw	s0,28(sp)
 446              		.cfi_restore 8
 447              		.cfi_def_cfa 2, 32
 448 0024 0561     		addi	sp,sp,32
 449              		.cfi_def_cfa_offset 0
 450 0026 8280     		jr	ra
 451              		.cfi_endproc
 452              	.LFE354:
 454              		.section	.text.i2c_address10_header_disable,"ax",@progbits
 455              		.align	1
 456              		.globl	i2c_address10_header_disable
 458              	i2c_address10_header_disable:
 459              	.LFB355:
 203:../Firmware/GD32VW55x_standard_peripheral/Source/gd32vw55x_i2c.c **** 
 204:../Firmware/GD32VW55x_standard_peripheral/Source/gd32vw55x_i2c.c **** /*!
 205:../Firmware/GD32VW55x_standard_peripheral/Source/gd32vw55x_i2c.c ****     \brief      10-bit address header executes complete sequence in master receive mode
 206:../Firmware/GD32VW55x_standard_peripheral/Source/gd32vw55x_i2c.c ****     \param[in]  i2c_periph: I2Cx(x=0,1)
 207:../Firmware/GD32VW55x_standard_peripheral/Source/gd32vw55x_i2c.c ****     \param[out] none
 208:../Firmware/GD32VW55x_standard_peripheral/Source/gd32vw55x_i2c.c ****     \retval     none
 209:../Firmware/GD32VW55x_standard_peripheral/Source/gd32vw55x_i2c.c **** */
 210:../Firmware/GD32VW55x_standard_peripheral/Source/gd32vw55x_i2c.c **** void i2c_address10_header_disable(uint32_t i2c_periph)
 211:../Firmware/GD32VW55x_standard_peripheral/Source/gd32vw55x_i2c.c **** {
 460              		.loc 1 211 1
 461              		.cfi_startproc
 462 0000 0111     		addi	sp,sp,-32
 463              		.cfi_def_cfa_offset 32
 464 0002 22CE     		sw	s0,28(sp)
 465              		.cfi_offset 8, -4
 466 0004 0010     		addi	s0,sp,32
 467              		.cfi_def_cfa 8, 0
 468 0006 2326A4FE 		sw	a0,-20(s0)
 212:../Firmware/GD32VW55x_standard_peripheral/Source/gd32vw55x_i2c.c ****     I2C_CTL1(i2c_periph) &= ~I2C_CTL1_HEAD10R;
 469              		.loc 1 212 26
 470 000a 8327C4FE 		lw	a5,-20(s0)
 471 000e 9107     		addi	a5,a5,4
 472 0010 9843     		lw	a4,0(a5)
 473 0012 8327C4FE 		lw	a5,-20(s0)
 474 0016 9107     		addi	a5,a5,4
 475 0018 BE86     		mv	a3,a5
 476 001a FD77     		li	a5,-4096
 477 001c FD17     		addi	a5,a5,-1
 478 001e F98F     		and	a5,a4,a5
 479 0020 9CC2     		sw	a5,0(a3)
 213:../Firmware/GD32VW55x_standard_peripheral/Source/gd32vw55x_i2c.c **** }
 480              		.loc 1 213 1
 481 0022 0100     		nop
 482 0024 7244     		lw	s0,28(sp)
 483              		.cfi_restore 8
 484              		.cfi_def_cfa 2, 32
 485 0026 0561     		addi	sp,sp,32
 486              		.cfi_def_cfa_offset 0
 487 0028 8280     		jr	ra
 488              		.cfi_endproc
 489              	.LFE355:
 491              		.section	.text.i2c_address10_enable,"ax",@progbits
 492              		.align	1
 493              		.globl	i2c_address10_enable
 495              	i2c_address10_enable:
 496              	.LFB356:
 214:../Firmware/GD32VW55x_standard_peripheral/Source/gd32vw55x_i2c.c **** 
 215:../Firmware/GD32VW55x_standard_peripheral/Source/gd32vw55x_i2c.c **** /*!
 216:../Firmware/GD32VW55x_standard_peripheral/Source/gd32vw55x_i2c.c ****     \brief      enable 10-bit addressing mode in master mode
 217:../Firmware/GD32VW55x_standard_peripheral/Source/gd32vw55x_i2c.c ****     \param[in]  i2c_periph: I2Cx(x=0,1)
 218:../Firmware/GD32VW55x_standard_peripheral/Source/gd32vw55x_i2c.c ****     \param[out] none
 219:../Firmware/GD32VW55x_standard_peripheral/Source/gd32vw55x_i2c.c ****     \retval     none
 220:../Firmware/GD32VW55x_standard_peripheral/Source/gd32vw55x_i2c.c **** */
 221:../Firmware/GD32VW55x_standard_peripheral/Source/gd32vw55x_i2c.c **** void i2c_address10_enable(uint32_t i2c_periph)
 222:../Firmware/GD32VW55x_standard_peripheral/Source/gd32vw55x_i2c.c **** {
 497              		.loc 1 222 1
 498              		.cfi_startproc
 499 0000 0111     		addi	sp,sp,-32
 500              		.cfi_def_cfa_offset 32
 501 0002 22CE     		sw	s0,28(sp)
 502              		.cfi_offset 8, -4
 503 0004 0010     		addi	s0,sp,32
 504              		.cfi_def_cfa 8, 0
 505 0006 2326A4FE 		sw	a0,-20(s0)
 223:../Firmware/GD32VW55x_standard_peripheral/Source/gd32vw55x_i2c.c ****     I2C_CTL1(i2c_periph) |= I2C_CTL1_ADD10EN;
 506              		.loc 1 223 26
 507 000a 8327C4FE 		lw	a5,-20(s0)
 508 000e 9107     		addi	a5,a5,4
 509 0010 9843     		lw	a4,0(a5)
 510 0012 8327C4FE 		lw	a5,-20(s0)
 511 0016 9107     		addi	a5,a5,4
 512 0018 BE86     		mv	a3,a5
 513 001a 8567     		li	a5,4096
 514 001c 93870780 		addi	a5,a5,-2048
 515 0020 D98F     		or	a5,a4,a5
 516 0022 9CC2     		sw	a5,0(a3)
 224:../Firmware/GD32VW55x_standard_peripheral/Source/gd32vw55x_i2c.c **** }
 517              		.loc 1 224 1
 518 0024 0100     		nop
 519 0026 7244     		lw	s0,28(sp)
 520              		.cfi_restore 8
 521              		.cfi_def_cfa 2, 32
 522 0028 0561     		addi	sp,sp,32
 523              		.cfi_def_cfa_offset 0
 524 002a 8280     		jr	ra
 525              		.cfi_endproc
 526              	.LFE356:
 528              		.section	.text.i2c_address10_disable,"ax",@progbits
 529              		.align	1
 530              		.globl	i2c_address10_disable
 532              	i2c_address10_disable:
 533              	.LFB357:
 225:../Firmware/GD32VW55x_standard_peripheral/Source/gd32vw55x_i2c.c **** 
 226:../Firmware/GD32VW55x_standard_peripheral/Source/gd32vw55x_i2c.c **** /*!
 227:../Firmware/GD32VW55x_standard_peripheral/Source/gd32vw55x_i2c.c ****     \brief      disable 10-bit addressing mode in master mode
 228:../Firmware/GD32VW55x_standard_peripheral/Source/gd32vw55x_i2c.c ****     \param[in]  i2c_periph: I2Cx(x=0,1)
 229:../Firmware/GD32VW55x_standard_peripheral/Source/gd32vw55x_i2c.c ****     \param[out] none
 230:../Firmware/GD32VW55x_standard_peripheral/Source/gd32vw55x_i2c.c ****     \retval     none
 231:../Firmware/GD32VW55x_standard_peripheral/Source/gd32vw55x_i2c.c **** */
 232:../Firmware/GD32VW55x_standard_peripheral/Source/gd32vw55x_i2c.c **** void i2c_address10_disable(uint32_t i2c_periph)
 233:../Firmware/GD32VW55x_standard_peripheral/Source/gd32vw55x_i2c.c **** {
 534              		.loc 1 233 1
 535              		.cfi_startproc
 536 0000 0111     		addi	sp,sp,-32
 537              		.cfi_def_cfa_offset 32
 538 0002 22CE     		sw	s0,28(sp)
 539              		.cfi_offset 8, -4
 540 0004 0010     		addi	s0,sp,32
 541              		.cfi_def_cfa 8, 0
 542 0006 2326A4FE 		sw	a0,-20(s0)
 234:../Firmware/GD32VW55x_standard_peripheral/Source/gd32vw55x_i2c.c ****     I2C_CTL1(i2c_periph) &= ~I2C_CTL1_ADD10EN;
 543              		.loc 1 234 26
 544 000a 8327C4FE 		lw	a5,-20(s0)
 545 000e 9107     		addi	a5,a5,4
 546 0010 9843     		lw	a4,0(a5)
 547 0012 8327C4FE 		lw	a5,-20(s0)
 548 0016 9107     		addi	a5,a5,4
 549 0018 BE86     		mv	a3,a5
 550 001a FD77     		li	a5,-4096
 551 001c 9387F77F 		addi	a5,a5,2047
 552 0020 F98F     		and	a5,a4,a5
 553 0022 9CC2     		sw	a5,0(a3)
 235:../Firmware/GD32VW55x_standard_peripheral/Source/gd32vw55x_i2c.c **** }
 554              		.loc 1 235 1
 555 0024 0100     		nop
 556 0026 7244     		lw	s0,28(sp)
 557              		.cfi_restore 8
 558              		.cfi_def_cfa 2, 32
 559 0028 0561     		addi	sp,sp,32
 560              		.cfi_def_cfa_offset 0
 561 002a 8280     		jr	ra
 562              		.cfi_endproc
 563              	.LFE357:
 565              		.section	.text.i2c_automatic_end_enable,"ax",@progbits
 566              		.align	1
 567              		.globl	i2c_automatic_end_enable
 569              	i2c_automatic_end_enable:
 570              	.LFB358:
 236:../Firmware/GD32VW55x_standard_peripheral/Source/gd32vw55x_i2c.c **** 
 237:../Firmware/GD32VW55x_standard_peripheral/Source/gd32vw55x_i2c.c **** /*!
 238:../Firmware/GD32VW55x_standard_peripheral/Source/gd32vw55x_i2c.c ****     \brief      enable I2C automatic end mode in master mode
 239:../Firmware/GD32VW55x_standard_peripheral/Source/gd32vw55x_i2c.c ****     \param[in]  i2c_periph: I2Cx(x=0,1)
 240:../Firmware/GD32VW55x_standard_peripheral/Source/gd32vw55x_i2c.c ****     \param[out] none
 241:../Firmware/GD32VW55x_standard_peripheral/Source/gd32vw55x_i2c.c ****     \retval     none
 242:../Firmware/GD32VW55x_standard_peripheral/Source/gd32vw55x_i2c.c **** */
 243:../Firmware/GD32VW55x_standard_peripheral/Source/gd32vw55x_i2c.c **** void i2c_automatic_end_enable(uint32_t i2c_periph)
 244:../Firmware/GD32VW55x_standard_peripheral/Source/gd32vw55x_i2c.c **** {
 571              		.loc 1 244 1
 572              		.cfi_startproc
 573 0000 0111     		addi	sp,sp,-32
 574              		.cfi_def_cfa_offset 32
 575 0002 22CE     		sw	s0,28(sp)
 576              		.cfi_offset 8, -4
 577 0004 0010     		addi	s0,sp,32
 578              		.cfi_def_cfa 8, 0
 579 0006 2326A4FE 		sw	a0,-20(s0)
 245:../Firmware/GD32VW55x_standard_peripheral/Source/gd32vw55x_i2c.c ****     I2C_CTL1(i2c_periph) |= I2C_CTL1_AUTOEND;
 580              		.loc 1 245 26
 581 000a 8327C4FE 		lw	a5,-20(s0)
 582 000e 9107     		addi	a5,a5,4
 583 0010 9843     		lw	a4,0(a5)
 584 0012 8327C4FE 		lw	a5,-20(s0)
 585 0016 9107     		addi	a5,a5,4
 586 0018 BE86     		mv	a3,a5
 587 001a B7070002 		li	a5,33554432
 588 001e D98F     		or	a5,a4,a5
 589 0020 9CC2     		sw	a5,0(a3)
 246:../Firmware/GD32VW55x_standard_peripheral/Source/gd32vw55x_i2c.c **** }
 590              		.loc 1 246 1
 591 0022 0100     		nop
 592 0024 7244     		lw	s0,28(sp)
 593              		.cfi_restore 8
 594              		.cfi_def_cfa 2, 32
 595 0026 0561     		addi	sp,sp,32
 596              		.cfi_def_cfa_offset 0
 597 0028 8280     		jr	ra
 598              		.cfi_endproc
 599              	.LFE358:
 601              		.section	.text.i2c_automatic_end_disable,"ax",@progbits
 602              		.align	1
 603              		.globl	i2c_automatic_end_disable
 605              	i2c_automatic_end_disable:
 606              	.LFB359:
 247:../Firmware/GD32VW55x_standard_peripheral/Source/gd32vw55x_i2c.c **** 
 248:../Firmware/GD32VW55x_standard_peripheral/Source/gd32vw55x_i2c.c **** /*!
 249:../Firmware/GD32VW55x_standard_peripheral/Source/gd32vw55x_i2c.c ****     \brief      disable I2C automatic end mode in master mode
 250:../Firmware/GD32VW55x_standard_peripheral/Source/gd32vw55x_i2c.c ****     \param[in]  i2c_periph: I2Cx(x=0,1)
 251:../Firmware/GD32VW55x_standard_peripheral/Source/gd32vw55x_i2c.c ****     \param[out] none
 252:../Firmware/GD32VW55x_standard_peripheral/Source/gd32vw55x_i2c.c ****     \retval     none
 253:../Firmware/GD32VW55x_standard_peripheral/Source/gd32vw55x_i2c.c **** */
 254:../Firmware/GD32VW55x_standard_peripheral/Source/gd32vw55x_i2c.c **** void i2c_automatic_end_disable(uint32_t i2c_periph)
 255:../Firmware/GD32VW55x_standard_peripheral/Source/gd32vw55x_i2c.c **** {
 607              		.loc 1 255 1
 608              		.cfi_startproc
 609 0000 0111     		addi	sp,sp,-32
 610              		.cfi_def_cfa_offset 32
 611 0002 22CE     		sw	s0,28(sp)
 612              		.cfi_offset 8, -4
 613 0004 0010     		addi	s0,sp,32
 614              		.cfi_def_cfa 8, 0
 615 0006 2326A4FE 		sw	a0,-20(s0)
 256:../Firmware/GD32VW55x_standard_peripheral/Source/gd32vw55x_i2c.c ****     I2C_CTL1(i2c_periph) &= ~I2C_CTL1_AUTOEND;
 616              		.loc 1 256 26
 617 000a 8327C4FE 		lw	a5,-20(s0)
 618 000e 9107     		addi	a5,a5,4
 619 0010 9843     		lw	a4,0(a5)
 620 0012 8327C4FE 		lw	a5,-20(s0)
 621 0016 9107     		addi	a5,a5,4
 622 0018 BE86     		mv	a3,a5
 623 001a B70700FE 		li	a5,-33554432
 624 001e FD17     		addi	a5,a5,-1
 625 0020 F98F     		and	a5,a4,a5
 626 0022 9CC2     		sw	a5,0(a3)
 257:../Firmware/GD32VW55x_standard_peripheral/Source/gd32vw55x_i2c.c **** }
 627              		.loc 1 257 1
 628 0024 0100     		nop
 629 0026 7244     		lw	s0,28(sp)
 630              		.cfi_restore 8
 631              		.cfi_def_cfa 2, 32
 632 0028 0561     		addi	sp,sp,32
 633              		.cfi_def_cfa_offset 0
 634 002a 8280     		jr	ra
 635              		.cfi_endproc
 636              	.LFE359:
 638              		.section	.text.i2c_slave_response_to_gcall_enable,"ax",@progbits
 639              		.align	1
 640              		.globl	i2c_slave_response_to_gcall_enable
 642              	i2c_slave_response_to_gcall_enable:
 643              	.LFB360:
 258:../Firmware/GD32VW55x_standard_peripheral/Source/gd32vw55x_i2c.c **** 
 259:../Firmware/GD32VW55x_standard_peripheral/Source/gd32vw55x_i2c.c **** /*!
 260:../Firmware/GD32VW55x_standard_peripheral/Source/gd32vw55x_i2c.c ****     \brief      enable the response to a general call
 261:../Firmware/GD32VW55x_standard_peripheral/Source/gd32vw55x_i2c.c ****     \param[in]  i2c_periph: I2Cx(x=0,1)
 262:../Firmware/GD32VW55x_standard_peripheral/Source/gd32vw55x_i2c.c ****     \param[out] none
 263:../Firmware/GD32VW55x_standard_peripheral/Source/gd32vw55x_i2c.c ****     \retval     none
 264:../Firmware/GD32VW55x_standard_peripheral/Source/gd32vw55x_i2c.c **** */
 265:../Firmware/GD32VW55x_standard_peripheral/Source/gd32vw55x_i2c.c **** void i2c_slave_response_to_gcall_enable(uint32_t i2c_periph)
 266:../Firmware/GD32VW55x_standard_peripheral/Source/gd32vw55x_i2c.c **** {
 644              		.loc 1 266 1
 645              		.cfi_startproc
 646 0000 0111     		addi	sp,sp,-32
 647              		.cfi_def_cfa_offset 32
 648 0002 22CE     		sw	s0,28(sp)
 649              		.cfi_offset 8, -4
 650 0004 0010     		addi	s0,sp,32
 651              		.cfi_def_cfa 8, 0
 652 0006 2326A4FE 		sw	a0,-20(s0)
 267:../Firmware/GD32VW55x_standard_peripheral/Source/gd32vw55x_i2c.c ****     I2C_CTL0(i2c_periph) |= I2C_CTL0_GCEN;
 653              		.loc 1 267 26
 654 000a 8327C4FE 		lw	a5,-20(s0)
 655 000e 9443     		lw	a3,0(a5)
 656 0010 8327C4FE 		lw	a5,-20(s0)
 657 0014 37070800 		li	a4,524288
 658 0018 558F     		or	a4,a3,a4
 659 001a 98C3     		sw	a4,0(a5)
 268:../Firmware/GD32VW55x_standard_peripheral/Source/gd32vw55x_i2c.c **** }
 660              		.loc 1 268 1
 661 001c 0100     		nop
 662 001e 7244     		lw	s0,28(sp)
 663              		.cfi_restore 8
 664              		.cfi_def_cfa 2, 32
 665 0020 0561     		addi	sp,sp,32
 666              		.cfi_def_cfa_offset 0
 667 0022 8280     		jr	ra
 668              		.cfi_endproc
 669              	.LFE360:
 671              		.section	.text.i2c_slave_response_to_gcall_disable,"ax",@progbits
 672              		.align	1
 673              		.globl	i2c_slave_response_to_gcall_disable
 675              	i2c_slave_response_to_gcall_disable:
 676              	.LFB361:
 269:../Firmware/GD32VW55x_standard_peripheral/Source/gd32vw55x_i2c.c **** 
 270:../Firmware/GD32VW55x_standard_peripheral/Source/gd32vw55x_i2c.c **** /*!
 271:../Firmware/GD32VW55x_standard_peripheral/Source/gd32vw55x_i2c.c ****     \brief      disable the response to a general call
 272:../Firmware/GD32VW55x_standard_peripheral/Source/gd32vw55x_i2c.c ****     \param[in]  i2c_periph: I2Cx(x=0,1)
 273:../Firmware/GD32VW55x_standard_peripheral/Source/gd32vw55x_i2c.c ****     \param[out] none
 274:../Firmware/GD32VW55x_standard_peripheral/Source/gd32vw55x_i2c.c ****     \retval     none
 275:../Firmware/GD32VW55x_standard_peripheral/Source/gd32vw55x_i2c.c **** */
 276:../Firmware/GD32VW55x_standard_peripheral/Source/gd32vw55x_i2c.c **** void i2c_slave_response_to_gcall_disable(uint32_t i2c_periph)
 277:../Firmware/GD32VW55x_standard_peripheral/Source/gd32vw55x_i2c.c **** {
 677              		.loc 1 277 1
 678              		.cfi_startproc
 679 0000 0111     		addi	sp,sp,-32
 680              		.cfi_def_cfa_offset 32
 681 0002 22CE     		sw	s0,28(sp)
 682              		.cfi_offset 8, -4
 683 0004 0010     		addi	s0,sp,32
 684              		.cfi_def_cfa 8, 0
 685 0006 2326A4FE 		sw	a0,-20(s0)
 278:../Firmware/GD32VW55x_standard_peripheral/Source/gd32vw55x_i2c.c ****     I2C_CTL0(i2c_periph) &= ~I2C_CTL0_GCEN;
 686              		.loc 1 278 26
 687 000a 8327C4FE 		lw	a5,-20(s0)
 688 000e 9443     		lw	a3,0(a5)
 689 0010 8327C4FE 		lw	a5,-20(s0)
 690 0014 3707F8FF 		li	a4,-524288
 691 0018 7D17     		addi	a4,a4,-1
 692 001a 758F     		and	a4,a3,a4
 693 001c 98C3     		sw	a4,0(a5)
 279:../Firmware/GD32VW55x_standard_peripheral/Source/gd32vw55x_i2c.c **** }
 694              		.loc 1 279 1
 695 001e 0100     		nop
 696 0020 7244     		lw	s0,28(sp)
 697              		.cfi_restore 8
 698              		.cfi_def_cfa 2, 32
 699 0022 0561     		addi	sp,sp,32
 700              		.cfi_def_cfa_offset 0
 701 0024 8280     		jr	ra
 702              		.cfi_endproc
 703              	.LFE361:
 705              		.section	.text.i2c_stretch_scl_low_enable,"ax",@progbits
 706              		.align	1
 707              		.globl	i2c_stretch_scl_low_enable
 709              	i2c_stretch_scl_low_enable:
 710              	.LFB362:
 280:../Firmware/GD32VW55x_standard_peripheral/Source/gd32vw55x_i2c.c **** 
 281:../Firmware/GD32VW55x_standard_peripheral/Source/gd32vw55x_i2c.c **** /*!
 282:../Firmware/GD32VW55x_standard_peripheral/Source/gd32vw55x_i2c.c ****     \brief      enable to stretch SCL low when data is not ready in slave mode
 283:../Firmware/GD32VW55x_standard_peripheral/Source/gd32vw55x_i2c.c ****     \param[in]  i2c_periph: I2Cx(x=0,1)
 284:../Firmware/GD32VW55x_standard_peripheral/Source/gd32vw55x_i2c.c ****     \param[out] none
 285:../Firmware/GD32VW55x_standard_peripheral/Source/gd32vw55x_i2c.c ****     \retval     none
 286:../Firmware/GD32VW55x_standard_peripheral/Source/gd32vw55x_i2c.c **** */
 287:../Firmware/GD32VW55x_standard_peripheral/Source/gd32vw55x_i2c.c **** void i2c_stretch_scl_low_enable(uint32_t i2c_periph)
 288:../Firmware/GD32VW55x_standard_peripheral/Source/gd32vw55x_i2c.c **** {
 711              		.loc 1 288 1
 712              		.cfi_startproc
 713 0000 0111     		addi	sp,sp,-32
 714              		.cfi_def_cfa_offset 32
 715 0002 22CE     		sw	s0,28(sp)
 716              		.cfi_offset 8, -4
 717 0004 0010     		addi	s0,sp,32
 718              		.cfi_def_cfa 8, 0
 719 0006 2326A4FE 		sw	a0,-20(s0)
 289:../Firmware/GD32VW55x_standard_peripheral/Source/gd32vw55x_i2c.c ****     I2C_CTL0(i2c_periph) &= ~I2C_CTL0_SS;
 720              		.loc 1 289 26
 721 000a 8327C4FE 		lw	a5,-20(s0)
 722 000e 9443     		lw	a3,0(a5)
 723 0010 8327C4FE 		lw	a5,-20(s0)
 724 0014 0177     		li	a4,-131072
 725 0016 7D17     		addi	a4,a4,-1
 726 0018 758F     		and	a4,a3,a4
 727 001a 98C3     		sw	a4,0(a5)
 290:../Firmware/GD32VW55x_standard_peripheral/Source/gd32vw55x_i2c.c **** }
 728              		.loc 1 290 1
 729 001c 0100     		nop
 730 001e 7244     		lw	s0,28(sp)
 731              		.cfi_restore 8
 732              		.cfi_def_cfa 2, 32
 733 0020 0561     		addi	sp,sp,32
 734              		.cfi_def_cfa_offset 0
 735 0022 8280     		jr	ra
 736              		.cfi_endproc
 737              	.LFE362:
 739              		.section	.text.i2c_stretch_scl_low_disable,"ax",@progbits
 740              		.align	1
 741              		.globl	i2c_stretch_scl_low_disable
 743              	i2c_stretch_scl_low_disable:
 744              	.LFB363:
 291:../Firmware/GD32VW55x_standard_peripheral/Source/gd32vw55x_i2c.c **** 
 292:../Firmware/GD32VW55x_standard_peripheral/Source/gd32vw55x_i2c.c **** /*!
 293:../Firmware/GD32VW55x_standard_peripheral/Source/gd32vw55x_i2c.c ****     \brief      disable to stretch SCL low when data is not ready in slave mode
 294:../Firmware/GD32VW55x_standard_peripheral/Source/gd32vw55x_i2c.c ****     \param[in]  i2c_periph: I2Cx(x=0,1)
 295:../Firmware/GD32VW55x_standard_peripheral/Source/gd32vw55x_i2c.c ****     \param[out] none
 296:../Firmware/GD32VW55x_standard_peripheral/Source/gd32vw55x_i2c.c ****     \retval     none
 297:../Firmware/GD32VW55x_standard_peripheral/Source/gd32vw55x_i2c.c **** */
 298:../Firmware/GD32VW55x_standard_peripheral/Source/gd32vw55x_i2c.c **** void i2c_stretch_scl_low_disable(uint32_t i2c_periph)
 299:../Firmware/GD32VW55x_standard_peripheral/Source/gd32vw55x_i2c.c **** {
 745              		.loc 1 299 1
 746              		.cfi_startproc
 747 0000 0111     		addi	sp,sp,-32
 748              		.cfi_def_cfa_offset 32
 749 0002 22CE     		sw	s0,28(sp)
 750              		.cfi_offset 8, -4
 751 0004 0010     		addi	s0,sp,32
 752              		.cfi_def_cfa 8, 0
 753 0006 2326A4FE 		sw	a0,-20(s0)
 300:../Firmware/GD32VW55x_standard_peripheral/Source/gd32vw55x_i2c.c ****     I2C_CTL0(i2c_periph) |= I2C_CTL0_SS;
 754              		.loc 1 300 26
 755 000a 8327C4FE 		lw	a5,-20(s0)
 756 000e 9443     		lw	a3,0(a5)
 757 0010 8327C4FE 		lw	a5,-20(s0)
 758 0014 37070200 		li	a4,131072
 759 0018 558F     		or	a4,a3,a4
 760 001a 98C3     		sw	a4,0(a5)
 301:../Firmware/GD32VW55x_standard_peripheral/Source/gd32vw55x_i2c.c **** }
 761              		.loc 1 301 1
 762 001c 0100     		nop
 763 001e 7244     		lw	s0,28(sp)
 764              		.cfi_restore 8
 765              		.cfi_def_cfa 2, 32
 766 0020 0561     		addi	sp,sp,32
 767              		.cfi_def_cfa_offset 0
 768 0022 8280     		jr	ra
 769              		.cfi_endproc
 770              	.LFE363:
 772              		.section	.text.i2c_address_config,"ax",@progbits
 773              		.align	1
 774              		.globl	i2c_address_config
 776              	i2c_address_config:
 777              	.LFB364:
 302:../Firmware/GD32VW55x_standard_peripheral/Source/gd32vw55x_i2c.c **** 
 303:../Firmware/GD32VW55x_standard_peripheral/Source/gd32vw55x_i2c.c **** /*!
 304:../Firmware/GD32VW55x_standard_peripheral/Source/gd32vw55x_i2c.c ****     \brief      configure I2C slave address
 305:../Firmware/GD32VW55x_standard_peripheral/Source/gd32vw55x_i2c.c ****     \param[in]  i2c_periph: I2Cx(x=0,1)
 306:../Firmware/GD32VW55x_standard_peripheral/Source/gd32vw55x_i2c.c ****     \param[in]  address: I2C address
 307:../Firmware/GD32VW55x_standard_peripheral/Source/gd32vw55x_i2c.c ****     \param[in]  addr_format: 7bits or 10bits
 308:../Firmware/GD32VW55x_standard_peripheral/Source/gd32vw55x_i2c.c ****                 only one parameter can be selected which is shown as below:
 309:../Firmware/GD32VW55x_standard_peripheral/Source/gd32vw55x_i2c.c ****       \arg        I2C_ADDFORMAT_7BITS: address format is 7 bits
 310:../Firmware/GD32VW55x_standard_peripheral/Source/gd32vw55x_i2c.c ****       \arg        I2C_ADDFORMAT_10BITS: address format is 10 bits
 311:../Firmware/GD32VW55x_standard_peripheral/Source/gd32vw55x_i2c.c ****     \param[out] none
 312:../Firmware/GD32VW55x_standard_peripheral/Source/gd32vw55x_i2c.c ****     \retval     none
 313:../Firmware/GD32VW55x_standard_peripheral/Source/gd32vw55x_i2c.c **** */
 314:../Firmware/GD32VW55x_standard_peripheral/Source/gd32vw55x_i2c.c **** void i2c_address_config(uint32_t i2c_periph, uint32_t address, uint32_t addr_format)
 315:../Firmware/GD32VW55x_standard_peripheral/Source/gd32vw55x_i2c.c **** {
 778              		.loc 1 315 1
 779              		.cfi_startproc
 780 0000 0111     		addi	sp,sp,-32
 781              		.cfi_def_cfa_offset 32
 782 0002 22CE     		sw	s0,28(sp)
 783              		.cfi_offset 8, -4
 784 0004 0010     		addi	s0,sp,32
 785              		.cfi_def_cfa 8, 0
 786 0006 2326A4FE 		sw	a0,-20(s0)
 787 000a 2324B4FE 		sw	a1,-24(s0)
 788 000e 2322C4FE 		sw	a2,-28(s0)
 316:../Firmware/GD32VW55x_standard_peripheral/Source/gd32vw55x_i2c.c ****     /* configure ADDRESS[7:1] and address format */
 317:../Firmware/GD32VW55x_standard_peripheral/Source/gd32vw55x_i2c.c ****     address = address & I2C_ADDRESS_MASK;
 789              		.loc 1 317 13
 790 0012 832784FE 		lw	a5,-24(s0)
 791 0016 93F7F73F 		andi	a5,a5,1023
 792 001a 2324F4FE 		sw	a5,-24(s0)
 318:../Firmware/GD32VW55x_standard_peripheral/Source/gd32vw55x_i2c.c ****     I2C_SADDR0(i2c_periph) = (addr_format | address);
 793              		.loc 1 318 5
 794 001e 8327C4FE 		lw	a5,-20(s0)
 795 0022 A107     		addi	a5,a5,8
 796 0024 BE86     		mv	a3,a5
 797              		.loc 1 318 43
 798 0026 032744FE 		lw	a4,-28(s0)
 799 002a 832784FE 		lw	a5,-24(s0)
 800 002e D98F     		or	a5,a4,a5
 801              		.loc 1 318 28
 802 0030 9CC2     		sw	a5,0(a3)
 319:../Firmware/GD32VW55x_standard_peripheral/Source/gd32vw55x_i2c.c ****     /* enable I2C address in slave mode */
 320:../Firmware/GD32VW55x_standard_peripheral/Source/gd32vw55x_i2c.c ****     I2C_SADDR0(i2c_periph) |= I2C_SADDR0_ADDRESSEN;
 803              		.loc 1 320 28
 804 0032 8327C4FE 		lw	a5,-20(s0)
 805 0036 A107     		addi	a5,a5,8
 806 0038 9843     		lw	a4,0(a5)
 807 003a 8327C4FE 		lw	a5,-20(s0)
 808 003e A107     		addi	a5,a5,8
 809 0040 BE86     		mv	a3,a5
 810 0042 A167     		li	a5,32768
 811 0044 D98F     		or	a5,a4,a5
 812 0046 9CC2     		sw	a5,0(a3)
 321:../Firmware/GD32VW55x_standard_peripheral/Source/gd32vw55x_i2c.c **** }
 813              		.loc 1 321 1
 814 0048 0100     		nop
 815 004a 7244     		lw	s0,28(sp)
 816              		.cfi_restore 8
 817              		.cfi_def_cfa 2, 32
 818 004c 0561     		addi	sp,sp,32
 819              		.cfi_def_cfa_offset 0
 820 004e 8280     		jr	ra
 821              		.cfi_endproc
 822              	.LFE364:
 824              		.section	.text.i2c_address_bit_compare_config,"ax",@progbits
 825              		.align	1
 826              		.globl	i2c_address_bit_compare_config
 828              	i2c_address_bit_compare_config:
 829              	.LFB365:
 322:../Firmware/GD32VW55x_standard_peripheral/Source/gd32vw55x_i2c.c **** 
 323:../Firmware/GD32VW55x_standard_peripheral/Source/gd32vw55x_i2c.c **** /*!
 324:../Firmware/GD32VW55x_standard_peripheral/Source/gd32vw55x_i2c.c ****     \brief      define which bits of ADDRESS[7:1] need to compare with the incoming address byte
 325:../Firmware/GD32VW55x_standard_peripheral/Source/gd32vw55x_i2c.c ****     \param[in]  i2c_periph: I2Cx(x=0,1)
 326:../Firmware/GD32VW55x_standard_peripheral/Source/gd32vw55x_i2c.c ****     \param[in]  compare_bits: the bits need to compare
 327:../Firmware/GD32VW55x_standard_peripheral/Source/gd32vw55x_i2c.c ****                 one or more parameters can be selected which are shown as below:
 328:../Firmware/GD32VW55x_standard_peripheral/Source/gd32vw55x_i2c.c ****                 ADDRESS_NO_BIT_COMPARE: all the address bits are masked
 329:../Firmware/GD32VW55x_standard_peripheral/Source/gd32vw55x_i2c.c ****                 ADDRESS_BIT1_COMPARE: address bit1 needs compare
 330:../Firmware/GD32VW55x_standard_peripheral/Source/gd32vw55x_i2c.c ****                 ADDRESS_BIT2_COMPARE: address bit2 needs compare
 331:../Firmware/GD32VW55x_standard_peripheral/Source/gd32vw55x_i2c.c ****                 ADDRESS_BIT3_COMPARE: address bit3 needs compare
 332:../Firmware/GD32VW55x_standard_peripheral/Source/gd32vw55x_i2c.c ****                 ADDRESS_BIT4_COMPARE: address bit4 needs compare
 333:../Firmware/GD32VW55x_standard_peripheral/Source/gd32vw55x_i2c.c ****                 ADDRESS_BIT5_COMPARE: address bit5 needs compare
 334:../Firmware/GD32VW55x_standard_peripheral/Source/gd32vw55x_i2c.c ****                 ADDRESS_BIT6_COMPARE: address bit6 needs compare
 335:../Firmware/GD32VW55x_standard_peripheral/Source/gd32vw55x_i2c.c ****                 ADDRESS_BIT7_COMPARE: address bit7 needs compare
 336:../Firmware/GD32VW55x_standard_peripheral/Source/gd32vw55x_i2c.c ****                 ADDRESS_ALL_BITS_COMPARE: all the bits must be compared
 337:../Firmware/GD32VW55x_standard_peripheral/Source/gd32vw55x_i2c.c ****     \param[out] none
 338:../Firmware/GD32VW55x_standard_peripheral/Source/gd32vw55x_i2c.c ****     \retval     none
 339:../Firmware/GD32VW55x_standard_peripheral/Source/gd32vw55x_i2c.c **** */
 340:../Firmware/GD32VW55x_standard_peripheral/Source/gd32vw55x_i2c.c **** void i2c_address_bit_compare_config(uint32_t i2c_periph, uint32_t compare_bits)
 341:../Firmware/GD32VW55x_standard_peripheral/Source/gd32vw55x_i2c.c **** {
 830              		.loc 1 341 1
 831              		.cfi_startproc
 832 0000 0111     		addi	sp,sp,-32
 833              		.cfi_def_cfa_offset 32
 834 0002 22CE     		sw	s0,28(sp)
 835              		.cfi_offset 8, -4
 836 0004 0010     		addi	s0,sp,32
 837              		.cfi_def_cfa 8, 0
 838 0006 2326A4FE 		sw	a0,-20(s0)
 839 000a 2324B4FE 		sw	a1,-24(s0)
 342:../Firmware/GD32VW55x_standard_peripheral/Source/gd32vw55x_i2c.c ****     I2C_CTL2(i2c_periph) &= ~I2C_CTL2_ADDM;
 840              		.loc 1 342 26
 841 000e 8327C4FE 		lw	a5,-20(s0)
 842 0012 93870709 		addi	a5,a5,144
 843 0016 9843     		lw	a4,0(a5)
 844 0018 8327C4FE 		lw	a5,-20(s0)
 845 001c 93870709 		addi	a5,a5,144
 846 0020 BE86     		mv	a3,a5
 847 0022 C177     		li	a5,-65536
 848 0024 9387F71F 		addi	a5,a5,511
 849 0028 F98F     		and	a5,a4,a5
 850 002a 9CC2     		sw	a5,0(a3)
 343:../Firmware/GD32VW55x_standard_peripheral/Source/gd32vw55x_i2c.c ****     I2C_CTL2(i2c_periph) |= compare_bits;
 851              		.loc 1 343 26
 852 002c 8327C4FE 		lw	a5,-20(s0)
 853 0030 93870709 		addi	a5,a5,144
 854 0034 9843     		lw	a4,0(a5)
 855 0036 8327C4FE 		lw	a5,-20(s0)
 856 003a 93870709 		addi	a5,a5,144
 857 003e BE86     		mv	a3,a5
 858 0040 832784FE 		lw	a5,-24(s0)
 859 0044 D98F     		or	a5,a4,a5
 860 0046 9CC2     		sw	a5,0(a3)
 344:../Firmware/GD32VW55x_standard_peripheral/Source/gd32vw55x_i2c.c **** }
 861              		.loc 1 344 1
 862 0048 0100     		nop
 863 004a 7244     		lw	s0,28(sp)
 864              		.cfi_restore 8
 865              		.cfi_def_cfa 2, 32
 866 004c 0561     		addi	sp,sp,32
 867              		.cfi_def_cfa_offset 0
 868 004e 8280     		jr	ra
 869              		.cfi_endproc
 870              	.LFE365:
 872              		.section	.text.i2c_address_disable,"ax",@progbits
 873              		.align	1
 874              		.globl	i2c_address_disable
 876              	i2c_address_disable:
 877              	.LFB366:
 345:../Firmware/GD32VW55x_standard_peripheral/Source/gd32vw55x_i2c.c **** 
 346:../Firmware/GD32VW55x_standard_peripheral/Source/gd32vw55x_i2c.c **** /*!
 347:../Firmware/GD32VW55x_standard_peripheral/Source/gd32vw55x_i2c.c ****     \brief      disable I2C address in slave mode
 348:../Firmware/GD32VW55x_standard_peripheral/Source/gd32vw55x_i2c.c ****     \param[in]  i2c_periph: I2Cx(x=0,1)
 349:../Firmware/GD32VW55x_standard_peripheral/Source/gd32vw55x_i2c.c ****     \param[out] none
 350:../Firmware/GD32VW55x_standard_peripheral/Source/gd32vw55x_i2c.c ****     \retval     none
 351:../Firmware/GD32VW55x_standard_peripheral/Source/gd32vw55x_i2c.c **** */
 352:../Firmware/GD32VW55x_standard_peripheral/Source/gd32vw55x_i2c.c **** void i2c_address_disable(uint32_t i2c_periph)
 353:../Firmware/GD32VW55x_standard_peripheral/Source/gd32vw55x_i2c.c **** {
 878              		.loc 1 353 1
 879              		.cfi_startproc
 880 0000 0111     		addi	sp,sp,-32
 881              		.cfi_def_cfa_offset 32
 882 0002 22CE     		sw	s0,28(sp)
 883              		.cfi_offset 8, -4
 884 0004 0010     		addi	s0,sp,32
 885              		.cfi_def_cfa 8, 0
 886 0006 2326A4FE 		sw	a0,-20(s0)
 354:../Firmware/GD32VW55x_standard_peripheral/Source/gd32vw55x_i2c.c ****     I2C_SADDR0(i2c_periph) &= ~I2C_SADDR0_ADDRESSEN;
 887              		.loc 1 354 28
 888 000a 8327C4FE 		lw	a5,-20(s0)
 889 000e A107     		addi	a5,a5,8
 890 0010 9843     		lw	a4,0(a5)
 891 0012 8327C4FE 		lw	a5,-20(s0)
 892 0016 A107     		addi	a5,a5,8
 893 0018 BE86     		mv	a3,a5
 894 001a E177     		li	a5,-32768
 895 001c FD17     		addi	a5,a5,-1
 896 001e F98F     		and	a5,a4,a5
 897 0020 9CC2     		sw	a5,0(a3)
 355:../Firmware/GD32VW55x_standard_peripheral/Source/gd32vw55x_i2c.c **** }
 898              		.loc 1 355 1
 899 0022 0100     		nop
 900 0024 7244     		lw	s0,28(sp)
 901              		.cfi_restore 8
 902              		.cfi_def_cfa 2, 32
 903 0026 0561     		addi	sp,sp,32
 904              		.cfi_def_cfa_offset 0
 905 0028 8280     		jr	ra
 906              		.cfi_endproc
 907              	.LFE366:
 909              		.section	.text.i2c_second_address_config,"ax",@progbits
 910              		.align	1
 911              		.globl	i2c_second_address_config
 913              	i2c_second_address_config:
 914              	.LFB367:
 356:../Firmware/GD32VW55x_standard_peripheral/Source/gd32vw55x_i2c.c **** 
 357:../Firmware/GD32VW55x_standard_peripheral/Source/gd32vw55x_i2c.c **** /*!
 358:../Firmware/GD32VW55x_standard_peripheral/Source/gd32vw55x_i2c.c ****     \brief      configure I2C second slave address
 359:../Firmware/GD32VW55x_standard_peripheral/Source/gd32vw55x_i2c.c ****     \param[in]  i2c_periph: I2Cx(x=0,1)
 360:../Firmware/GD32VW55x_standard_peripheral/Source/gd32vw55x_i2c.c ****     \param[in]  address: I2C address
 361:../Firmware/GD32VW55x_standard_peripheral/Source/gd32vw55x_i2c.c ****     \param[in]  addr_mask: the bits not need to compare
 362:../Firmware/GD32VW55x_standard_peripheral/Source/gd32vw55x_i2c.c ****                 one or more parameters can be selected which are shown as below:
 363:../Firmware/GD32VW55x_standard_peripheral/Source/gd32vw55x_i2c.c ****       \arg        ADDRESS2_NO_MASK: no mask, all the bits must be compared
 364:../Firmware/GD32VW55x_standard_peripheral/Source/gd32vw55x_i2c.c ****       \arg        ADDRESS2_MASK_BIT1: ADDRESS2[1] is masked, only ADDRESS2[7:2] are compared
 365:../Firmware/GD32VW55x_standard_peripheral/Source/gd32vw55x_i2c.c ****       \arg        ADDRESS2_MASK_BIT1_2: ADDRESS2[2:1] is masked, only ADDRESS2[7:3] are compared
 366:../Firmware/GD32VW55x_standard_peripheral/Source/gd32vw55x_i2c.c ****       \arg        ADDRESS2_MASK_BIT1_3: ADDRESS2[3:1] is masked, only ADDRESS2[7:4] are compared
 367:../Firmware/GD32VW55x_standard_peripheral/Source/gd32vw55x_i2c.c ****       \arg        ADDRESS2_MASK_BIT1_4: ADDRESS2[4:1] is masked, only ADDRESS2[7:5] are compared
 368:../Firmware/GD32VW55x_standard_peripheral/Source/gd32vw55x_i2c.c ****       \arg        ADDRESS2_MASK_BIT1_5: ADDRESS2[5:1] is masked, only ADDRESS2[7:6] are compared
 369:../Firmware/GD32VW55x_standard_peripheral/Source/gd32vw55x_i2c.c ****       \arg        ADDRESS2_MASK_BIT1_6: ADDRESS2[6:1] is masked, only ADDRESS2[7] are compared
 370:../Firmware/GD32VW55x_standard_peripheral/Source/gd32vw55x_i2c.c ****       \arg        ADDRESS2_MASK_ALL: all the ADDRESS2[7:1] bits are masked
 371:../Firmware/GD32VW55x_standard_peripheral/Source/gd32vw55x_i2c.c ****     \param[out] none
 372:../Firmware/GD32VW55x_standard_peripheral/Source/gd32vw55x_i2c.c ****     \retval     none
 373:../Firmware/GD32VW55x_standard_peripheral/Source/gd32vw55x_i2c.c **** */
 374:../Firmware/GD32VW55x_standard_peripheral/Source/gd32vw55x_i2c.c **** void i2c_second_address_config(uint32_t i2c_periph, uint32_t address, uint32_t addr_mask)
 375:../Firmware/GD32VW55x_standard_peripheral/Source/gd32vw55x_i2c.c **** {
 915              		.loc 1 375 1
 916              		.cfi_startproc
 917 0000 0111     		addi	sp,sp,-32
 918              		.cfi_def_cfa_offset 32
 919 0002 22CE     		sw	s0,28(sp)
 920              		.cfi_offset 8, -4
 921 0004 0010     		addi	s0,sp,32
 922              		.cfi_def_cfa 8, 0
 923 0006 2326A4FE 		sw	a0,-20(s0)
 924 000a 2324B4FE 		sw	a1,-24(s0)
 925 000e 2322C4FE 		sw	a2,-28(s0)
 376:../Firmware/GD32VW55x_standard_peripheral/Source/gd32vw55x_i2c.c ****     /* configure ADDRESS2[7:1] */
 377:../Firmware/GD32VW55x_standard_peripheral/Source/gd32vw55x_i2c.c ****     address = address & I2C_ADDRESS2_MASK;
 926              		.loc 1 377 13
 927 0012 832784FE 		lw	a5,-24(s0)
 928 0016 93F7E70F 		andi	a5,a5,254
 929 001a 2324F4FE 		sw	a5,-24(s0)
 378:../Firmware/GD32VW55x_standard_peripheral/Source/gd32vw55x_i2c.c ****     I2C_SADDR1(i2c_periph) |= address;
 930              		.loc 1 378 28
 931 001e 8327C4FE 		lw	a5,-20(s0)
 932 0022 B107     		addi	a5,a5,12
 933 0024 9843     		lw	a4,0(a5)
 934 0026 8327C4FE 		lw	a5,-20(s0)
 935 002a B107     		addi	a5,a5,12
 936 002c BE86     		mv	a3,a5
 937 002e 832784FE 		lw	a5,-24(s0)
 938 0032 D98F     		or	a5,a4,a5
 939 0034 9CC2     		sw	a5,0(a3)
 379:../Firmware/GD32VW55x_standard_peripheral/Source/gd32vw55x_i2c.c ****     /* configure ADDRESS2[7:1] mask */
 380:../Firmware/GD32VW55x_standard_peripheral/Source/gd32vw55x_i2c.c ****     I2C_SADDR1(i2c_periph) &= ~I2C_SADDR1_ADDMSK2;
 940              		.loc 1 380 28
 941 0036 8327C4FE 		lw	a5,-20(s0)
 942 003a B107     		addi	a5,a5,12
 943 003c 9C43     		lw	a5,0(a5)
 944 003e 0327C4FE 		lw	a4,-20(s0)
 945 0042 3107     		addi	a4,a4,12
 946 0044 93F7F78F 		andi	a5,a5,-1793
 947 0048 1CC3     		sw	a5,0(a4)
 381:../Firmware/GD32VW55x_standard_peripheral/Source/gd32vw55x_i2c.c ****     I2C_SADDR1(i2c_periph) |= (uint32_t)(addr_mask << SADDR1_ADDMSK_OFFSET);
 948              		.loc 1 381 28
 949 004a 8327C4FE 		lw	a5,-20(s0)
 950 004e B107     		addi	a5,a5,12
 951 0050 9843     		lw	a4,0(a5)
 952              		.loc 1 381 52
 953 0052 832744FE 		lw	a5,-28(s0)
 954 0056 A207     		slli	a5,a5,8
 955              		.loc 1 381 28
 956 0058 8326C4FE 		lw	a3,-20(s0)
 957 005c B106     		addi	a3,a3,12
 958 005e D98F     		or	a5,a4,a5
 959 0060 9CC2     		sw	a5,0(a3)
 382:../Firmware/GD32VW55x_standard_peripheral/Source/gd32vw55x_i2c.c ****     /* enable i2c second address in slave mode */
 383:../Firmware/GD32VW55x_standard_peripheral/Source/gd32vw55x_i2c.c ****     I2C_SADDR1(i2c_periph) |= I2C_SADDR1_ADDRESS2EN;
 960              		.loc 1 383 28
 961 0062 8327C4FE 		lw	a5,-20(s0)
 962 0066 B107     		addi	a5,a5,12
 963 0068 9843     		lw	a4,0(a5)
 964 006a 8327C4FE 		lw	a5,-20(s0)
 965 006e B107     		addi	a5,a5,12
 966 0070 BE86     		mv	a3,a5
 967 0072 A167     		li	a5,32768
 968 0074 D98F     		or	a5,a4,a5
 969 0076 9CC2     		sw	a5,0(a3)
 384:../Firmware/GD32VW55x_standard_peripheral/Source/gd32vw55x_i2c.c **** }
 970              		.loc 1 384 1
 971 0078 0100     		nop
 972 007a 7244     		lw	s0,28(sp)
 973              		.cfi_restore 8
 974              		.cfi_def_cfa 2, 32
 975 007c 0561     		addi	sp,sp,32
 976              		.cfi_def_cfa_offset 0
 977 007e 8280     		jr	ra
 978              		.cfi_endproc
 979              	.LFE367:
 981              		.section	.text.i2c_second_address_disable,"ax",@progbits
 982              		.align	1
 983              		.globl	i2c_second_address_disable
 985              	i2c_second_address_disable:
 986              	.LFB368:
 385:../Firmware/GD32VW55x_standard_peripheral/Source/gd32vw55x_i2c.c **** 
 386:../Firmware/GD32VW55x_standard_peripheral/Source/gd32vw55x_i2c.c **** /*!
 387:../Firmware/GD32VW55x_standard_peripheral/Source/gd32vw55x_i2c.c ****     \brief      disable I2C second address in slave mode
 388:../Firmware/GD32VW55x_standard_peripheral/Source/gd32vw55x_i2c.c ****     \param[in]  i2c_periph: I2Cx(x=0,1)
 389:../Firmware/GD32VW55x_standard_peripheral/Source/gd32vw55x_i2c.c ****     \param[out] none
 390:../Firmware/GD32VW55x_standard_peripheral/Source/gd32vw55x_i2c.c ****     \retval     none
 391:../Firmware/GD32VW55x_standard_peripheral/Source/gd32vw55x_i2c.c **** */
 392:../Firmware/GD32VW55x_standard_peripheral/Source/gd32vw55x_i2c.c **** void i2c_second_address_disable(uint32_t i2c_periph)
 393:../Firmware/GD32VW55x_standard_peripheral/Source/gd32vw55x_i2c.c **** {
 987              		.loc 1 393 1
 988              		.cfi_startproc
 989 0000 0111     		addi	sp,sp,-32
 990              		.cfi_def_cfa_offset 32
 991 0002 22CE     		sw	s0,28(sp)
 992              		.cfi_offset 8, -4
 993 0004 0010     		addi	s0,sp,32
 994              		.cfi_def_cfa 8, 0
 995 0006 2326A4FE 		sw	a0,-20(s0)
 394:../Firmware/GD32VW55x_standard_peripheral/Source/gd32vw55x_i2c.c ****     I2C_SADDR1(i2c_periph) &= ~I2C_SADDR1_ADDRESS2EN;
 996              		.loc 1 394 28
 997 000a 8327C4FE 		lw	a5,-20(s0)
 998 000e B107     		addi	a5,a5,12
 999 0010 9843     		lw	a4,0(a5)
 1000 0012 8327C4FE 		lw	a5,-20(s0)
 1001 0016 B107     		addi	a5,a5,12
 1002 0018 BE86     		mv	a3,a5
 1003 001a E177     		li	a5,-32768
 1004 001c FD17     		addi	a5,a5,-1
 1005 001e F98F     		and	a5,a4,a5
 1006 0020 9CC2     		sw	a5,0(a3)
 395:../Firmware/GD32VW55x_standard_peripheral/Source/gd32vw55x_i2c.c **** }
 1007              		.loc 1 395 1
 1008 0022 0100     		nop
 1009 0024 7244     		lw	s0,28(sp)
 1010              		.cfi_restore 8
 1011              		.cfi_def_cfa 2, 32
 1012 0026 0561     		addi	sp,sp,32
 1013              		.cfi_def_cfa_offset 0
 1014 0028 8280     		jr	ra
 1015              		.cfi_endproc
 1016              	.LFE368:
 1018              		.section	.text.i2c_recevied_address_get,"ax",@progbits
 1019              		.align	1
 1020              		.globl	i2c_recevied_address_get
 1022              	i2c_recevied_address_get:
 1023              	.LFB369:
 396:../Firmware/GD32VW55x_standard_peripheral/Source/gd32vw55x_i2c.c **** 
 397:../Firmware/GD32VW55x_standard_peripheral/Source/gd32vw55x_i2c.c **** /*!
 398:../Firmware/GD32VW55x_standard_peripheral/Source/gd32vw55x_i2c.c ****     \brief      get received match address in slave mode
 399:../Firmware/GD32VW55x_standard_peripheral/Source/gd32vw55x_i2c.c ****     \param[in]  i2c_periph: I2Cx(x=0,1)
 400:../Firmware/GD32VW55x_standard_peripheral/Source/gd32vw55x_i2c.c ****     \param[out] none
 401:../Firmware/GD32VW55x_standard_peripheral/Source/gd32vw55x_i2c.c ****     \retval     received match address
 402:../Firmware/GD32VW55x_standard_peripheral/Source/gd32vw55x_i2c.c **** */
 403:../Firmware/GD32VW55x_standard_peripheral/Source/gd32vw55x_i2c.c **** uint32_t i2c_recevied_address_get(uint32_t i2c_periph)
 404:../Firmware/GD32VW55x_standard_peripheral/Source/gd32vw55x_i2c.c **** {
 1024              		.loc 1 404 1
 1025              		.cfi_startproc
 1026 0000 0111     		addi	sp,sp,-32
 1027              		.cfi_def_cfa_offset 32
 1028 0002 22CE     		sw	s0,28(sp)
 1029              		.cfi_offset 8, -4
 1030 0004 0010     		addi	s0,sp,32
 1031              		.cfi_def_cfa 8, 0
 1032 0006 2326A4FE 		sw	a0,-20(s0)
 405:../Firmware/GD32VW55x_standard_peripheral/Source/gd32vw55x_i2c.c ****     return (uint32_t)((I2C_STAT(i2c_periph) & I2C_STAT_READDR) >> STAT_READDR_OFFSET);
 1033              		.loc 1 405 24
 1034 000a 8327C4FE 		lw	a5,-20(s0)
 1035 000e E107     		addi	a5,a5,24
 1036 0010 9C43     		lw	a5,0(a5)
 1037              		.loc 1 405 12
 1038 0012 C583     		srli	a5,a5,17
 1039 0014 93F7F707 		andi	a5,a5,127
 406:../Firmware/GD32VW55x_standard_peripheral/Source/gd32vw55x_i2c.c **** }
 1040              		.loc 1 406 1
 1041 0018 3E85     		mv	a0,a5
 1042 001a 7244     		lw	s0,28(sp)
 1043              		.cfi_restore 8
 1044              		.cfi_def_cfa 2, 32
 1045 001c 0561     		addi	sp,sp,32
 1046              		.cfi_def_cfa_offset 0
 1047 001e 8280     		jr	ra
 1048              		.cfi_endproc
 1049              	.LFE369:
 1051              		.section	.text.i2c_slave_byte_control_enable,"ax",@progbits
 1052              		.align	1
 1053              		.globl	i2c_slave_byte_control_enable
 1055              	i2c_slave_byte_control_enable:
 1056              	.LFB370:
 407:../Firmware/GD32VW55x_standard_peripheral/Source/gd32vw55x_i2c.c **** 
 408:../Firmware/GD32VW55x_standard_peripheral/Source/gd32vw55x_i2c.c **** /*!
 409:../Firmware/GD32VW55x_standard_peripheral/Source/gd32vw55x_i2c.c ****     \brief      enable slave byte control
 410:../Firmware/GD32VW55x_standard_peripheral/Source/gd32vw55x_i2c.c ****     \param[in]  i2c_periph: I2Cx(x=0,1)
 411:../Firmware/GD32VW55x_standard_peripheral/Source/gd32vw55x_i2c.c ****     \param[out] none
 412:../Firmware/GD32VW55x_standard_peripheral/Source/gd32vw55x_i2c.c ****     \retval     none
 413:../Firmware/GD32VW55x_standard_peripheral/Source/gd32vw55x_i2c.c **** */
 414:../Firmware/GD32VW55x_standard_peripheral/Source/gd32vw55x_i2c.c **** void i2c_slave_byte_control_enable(uint32_t i2c_periph)
 415:../Firmware/GD32VW55x_standard_peripheral/Source/gd32vw55x_i2c.c **** {
 1057              		.loc 1 415 1
 1058              		.cfi_startproc
 1059 0000 0111     		addi	sp,sp,-32
 1060              		.cfi_def_cfa_offset 32
 1061 0002 22CE     		sw	s0,28(sp)
 1062              		.cfi_offset 8, -4
 1063 0004 0010     		addi	s0,sp,32
 1064              		.cfi_def_cfa 8, 0
 1065 0006 2326A4FE 		sw	a0,-20(s0)
 416:../Firmware/GD32VW55x_standard_peripheral/Source/gd32vw55x_i2c.c ****     I2C_CTL0(i2c_periph) |= I2C_CTL0_SBCTL;
 1066              		.loc 1 416 26
 1067 000a 8327C4FE 		lw	a5,-20(s0)
 1068 000e 9443     		lw	a3,0(a5)
 1069 0010 8327C4FE 		lw	a5,-20(s0)
 1070 0014 4167     		li	a4,65536
 1071 0016 558F     		or	a4,a3,a4
 1072 0018 98C3     		sw	a4,0(a5)
 417:../Firmware/GD32VW55x_standard_peripheral/Source/gd32vw55x_i2c.c **** }
 1073              		.loc 1 417 1
 1074 001a 0100     		nop
 1075 001c 7244     		lw	s0,28(sp)
 1076              		.cfi_restore 8
 1077              		.cfi_def_cfa 2, 32
 1078 001e 0561     		addi	sp,sp,32
 1079              		.cfi_def_cfa_offset 0
 1080 0020 8280     		jr	ra
 1081              		.cfi_endproc
 1082              	.LFE370:
 1084              		.section	.text.i2c_slave_byte_control_disable,"ax",@progbits
 1085              		.align	1
 1086              		.globl	i2c_slave_byte_control_disable
 1088              	i2c_slave_byte_control_disable:
 1089              	.LFB371:
 418:../Firmware/GD32VW55x_standard_peripheral/Source/gd32vw55x_i2c.c **** 
 419:../Firmware/GD32VW55x_standard_peripheral/Source/gd32vw55x_i2c.c **** /*!
 420:../Firmware/GD32VW55x_standard_peripheral/Source/gd32vw55x_i2c.c ****     \brief      disable slave byte control
 421:../Firmware/GD32VW55x_standard_peripheral/Source/gd32vw55x_i2c.c ****     \param[in]  i2c_periph: I2Cx(x=0,1)
 422:../Firmware/GD32VW55x_standard_peripheral/Source/gd32vw55x_i2c.c ****     \param[out] none
 423:../Firmware/GD32VW55x_standard_peripheral/Source/gd32vw55x_i2c.c ****     \retval     none
 424:../Firmware/GD32VW55x_standard_peripheral/Source/gd32vw55x_i2c.c **** */
 425:../Firmware/GD32VW55x_standard_peripheral/Source/gd32vw55x_i2c.c **** void i2c_slave_byte_control_disable(uint32_t i2c_periph)
 426:../Firmware/GD32VW55x_standard_peripheral/Source/gd32vw55x_i2c.c **** {
 1090              		.loc 1 426 1
 1091              		.cfi_startproc
 1092 0000 0111     		addi	sp,sp,-32
 1093              		.cfi_def_cfa_offset 32
 1094 0002 22CE     		sw	s0,28(sp)
 1095              		.cfi_offset 8, -4
 1096 0004 0010     		addi	s0,sp,32
 1097              		.cfi_def_cfa 8, 0
 1098 0006 2326A4FE 		sw	a0,-20(s0)
 427:../Firmware/GD32VW55x_standard_peripheral/Source/gd32vw55x_i2c.c ****     I2C_CTL0(i2c_periph) &= ~I2C_CTL0_SBCTL;
 1099              		.loc 1 427 26
 1100 000a 8327C4FE 		lw	a5,-20(s0)
 1101 000e 9443     		lw	a3,0(a5)
 1102 0010 8327C4FE 		lw	a5,-20(s0)
 1103 0014 4177     		li	a4,-65536
 1104 0016 7D17     		addi	a4,a4,-1
 1105 0018 758F     		and	a4,a3,a4
 1106 001a 98C3     		sw	a4,0(a5)
 428:../Firmware/GD32VW55x_standard_peripheral/Source/gd32vw55x_i2c.c **** }
 1107              		.loc 1 428 1
 1108 001c 0100     		nop
 1109 001e 7244     		lw	s0,28(sp)
 1110              		.cfi_restore 8
 1111              		.cfi_def_cfa 2, 32
 1112 0020 0561     		addi	sp,sp,32
 1113              		.cfi_def_cfa_offset 0
 1114 0022 8280     		jr	ra
 1115              		.cfi_endproc
 1116              	.LFE371:
 1118              		.section	.text.i2c_nack_enable,"ax",@progbits
 1119              		.align	1
 1120              		.globl	i2c_nack_enable
 1122              	i2c_nack_enable:
 1123              	.LFB372:
 429:../Firmware/GD32VW55x_standard_peripheral/Source/gd32vw55x_i2c.c **** 
 430:../Firmware/GD32VW55x_standard_peripheral/Source/gd32vw55x_i2c.c **** /*!
 431:../Firmware/GD32VW55x_standard_peripheral/Source/gd32vw55x_i2c.c ****     \brief      generate a NACK in slave mode
 432:../Firmware/GD32VW55x_standard_peripheral/Source/gd32vw55x_i2c.c ****     \param[in]  i2c_periph: I2Cx(x=0,1)
 433:../Firmware/GD32VW55x_standard_peripheral/Source/gd32vw55x_i2c.c ****     \param[out] none
 434:../Firmware/GD32VW55x_standard_peripheral/Source/gd32vw55x_i2c.c ****     \retval     none
 435:../Firmware/GD32VW55x_standard_peripheral/Source/gd32vw55x_i2c.c **** */
 436:../Firmware/GD32VW55x_standard_peripheral/Source/gd32vw55x_i2c.c **** void i2c_nack_enable(uint32_t i2c_periph)
 437:../Firmware/GD32VW55x_standard_peripheral/Source/gd32vw55x_i2c.c **** {
 1124              		.loc 1 437 1
 1125              		.cfi_startproc
 1126 0000 0111     		addi	sp,sp,-32
 1127              		.cfi_def_cfa_offset 32
 1128 0002 22CE     		sw	s0,28(sp)
 1129              		.cfi_offset 8, -4
 1130 0004 0010     		addi	s0,sp,32
 1131              		.cfi_def_cfa 8, 0
 1132 0006 2326A4FE 		sw	a0,-20(s0)
 438:../Firmware/GD32VW55x_standard_peripheral/Source/gd32vw55x_i2c.c ****     I2C_CTL1(i2c_periph) |= I2C_CTL1_NACKEN;
 1133              		.loc 1 438 26
 1134 000a 8327C4FE 		lw	a5,-20(s0)
 1135 000e 9107     		addi	a5,a5,4
 1136 0010 9843     		lw	a4,0(a5)
 1137 0012 8327C4FE 		lw	a5,-20(s0)
 1138 0016 9107     		addi	a5,a5,4
 1139 0018 BE86     		mv	a3,a5
 1140 001a A167     		li	a5,32768
 1141 001c D98F     		or	a5,a4,a5
 1142 001e 9CC2     		sw	a5,0(a3)
 439:../Firmware/GD32VW55x_standard_peripheral/Source/gd32vw55x_i2c.c **** }
 1143              		.loc 1 439 1
 1144 0020 0100     		nop
 1145 0022 7244     		lw	s0,28(sp)
 1146              		.cfi_restore 8
 1147              		.cfi_def_cfa 2, 32
 1148 0024 0561     		addi	sp,sp,32
 1149              		.cfi_def_cfa_offset 0
 1150 0026 8280     		jr	ra
 1151              		.cfi_endproc
 1152              	.LFE372:
 1154              		.section	.text.i2c_nack_disable,"ax",@progbits
 1155              		.align	1
 1156              		.globl	i2c_nack_disable
 1158              	i2c_nack_disable:
 1159              	.LFB373:
 440:../Firmware/GD32VW55x_standard_peripheral/Source/gd32vw55x_i2c.c **** 
 441:../Firmware/GD32VW55x_standard_peripheral/Source/gd32vw55x_i2c.c **** /*!
 442:../Firmware/GD32VW55x_standard_peripheral/Source/gd32vw55x_i2c.c ****     \brief      generate an ACK in slave mode
 443:../Firmware/GD32VW55x_standard_peripheral/Source/gd32vw55x_i2c.c ****     \param[in]  i2c_periph: I2Cx(x=0,1)
 444:../Firmware/GD32VW55x_standard_peripheral/Source/gd32vw55x_i2c.c ****     \param[out] none
 445:../Firmware/GD32VW55x_standard_peripheral/Source/gd32vw55x_i2c.c ****     \retval     none
 446:../Firmware/GD32VW55x_standard_peripheral/Source/gd32vw55x_i2c.c **** */
 447:../Firmware/GD32VW55x_standard_peripheral/Source/gd32vw55x_i2c.c **** void i2c_nack_disable(uint32_t i2c_periph)
 448:../Firmware/GD32VW55x_standard_peripheral/Source/gd32vw55x_i2c.c **** {
 1160              		.loc 1 448 1
 1161              		.cfi_startproc
 1162 0000 0111     		addi	sp,sp,-32
 1163              		.cfi_def_cfa_offset 32
 1164 0002 22CE     		sw	s0,28(sp)
 1165              		.cfi_offset 8, -4
 1166 0004 0010     		addi	s0,sp,32
 1167              		.cfi_def_cfa 8, 0
 1168 0006 2326A4FE 		sw	a0,-20(s0)
 449:../Firmware/GD32VW55x_standard_peripheral/Source/gd32vw55x_i2c.c ****     I2C_CTL1(i2c_periph) &= ~I2C_CTL1_NACKEN;
 1169              		.loc 1 449 26
 1170 000a 8327C4FE 		lw	a5,-20(s0)
 1171 000e 9107     		addi	a5,a5,4
 1172 0010 9843     		lw	a4,0(a5)
 1173 0012 8327C4FE 		lw	a5,-20(s0)
 1174 0016 9107     		addi	a5,a5,4
 1175 0018 BE86     		mv	a3,a5
 1176 001a E177     		li	a5,-32768
 1177 001c FD17     		addi	a5,a5,-1
 1178 001e F98F     		and	a5,a4,a5
 1179 0020 9CC2     		sw	a5,0(a3)
 450:../Firmware/GD32VW55x_standard_peripheral/Source/gd32vw55x_i2c.c **** }
 1180              		.loc 1 450 1
 1181 0022 0100     		nop
 1182 0024 7244     		lw	s0,28(sp)
 1183              		.cfi_restore 8
 1184              		.cfi_def_cfa 2, 32
 1185 0026 0561     		addi	sp,sp,32
 1186              		.cfi_def_cfa_offset 0
 1187 0028 8280     		jr	ra
 1188              		.cfi_endproc
 1189              	.LFE373:
 1191              		.section	.text.i2c_wakeup_from_deepsleep_enable,"ax",@progbits
 1192              		.align	1
 1193              		.globl	i2c_wakeup_from_deepsleep_enable
 1195              	i2c_wakeup_from_deepsleep_enable:
 1196              	.LFB374:
 451:../Firmware/GD32VW55x_standard_peripheral/Source/gd32vw55x_i2c.c **** 
 452:../Firmware/GD32VW55x_standard_peripheral/Source/gd32vw55x_i2c.c **** /*!
 453:../Firmware/GD32VW55x_standard_peripheral/Source/gd32vw55x_i2c.c ****     \brief      enable wakeup from deep-sleep mode
 454:../Firmware/GD32VW55x_standard_peripheral/Source/gd32vw55x_i2c.c ****     \param[in]  i2c_periph: I2Cx(x=0)
 455:../Firmware/GD32VW55x_standard_peripheral/Source/gd32vw55x_i2c.c ****     \param[out] none
 456:../Firmware/GD32VW55x_standard_peripheral/Source/gd32vw55x_i2c.c ****     \retval     none
 457:../Firmware/GD32VW55x_standard_peripheral/Source/gd32vw55x_i2c.c **** */
 458:../Firmware/GD32VW55x_standard_peripheral/Source/gd32vw55x_i2c.c **** void i2c_wakeup_from_deepsleep_enable(uint32_t i2c_periph)
 459:../Firmware/GD32VW55x_standard_peripheral/Source/gd32vw55x_i2c.c **** {
 1197              		.loc 1 459 1
 1198              		.cfi_startproc
 1199 0000 0111     		addi	sp,sp,-32
 1200              		.cfi_def_cfa_offset 32
 1201 0002 22CE     		sw	s0,28(sp)
 1202              		.cfi_offset 8, -4
 1203 0004 0010     		addi	s0,sp,32
 1204              		.cfi_def_cfa 8, 0
 1205 0006 2326A4FE 		sw	a0,-20(s0)
 460:../Firmware/GD32VW55x_standard_peripheral/Source/gd32vw55x_i2c.c ****     I2C_CTL0(i2c_periph) |= I2C_CTL0_WUEN;
 1206              		.loc 1 460 26
 1207 000a 8327C4FE 		lw	a5,-20(s0)
 1208 000e 9443     		lw	a3,0(a5)
 1209 0010 8327C4FE 		lw	a5,-20(s0)
 1210 0014 37070400 		li	a4,262144
 1211 0018 558F     		or	a4,a3,a4
 1212 001a 98C3     		sw	a4,0(a5)
 461:../Firmware/GD32VW55x_standard_peripheral/Source/gd32vw55x_i2c.c **** }
 1213              		.loc 1 461 1
 1214 001c 0100     		nop
 1215 001e 7244     		lw	s0,28(sp)
 1216              		.cfi_restore 8
 1217              		.cfi_def_cfa 2, 32
 1218 0020 0561     		addi	sp,sp,32
 1219              		.cfi_def_cfa_offset 0
 1220 0022 8280     		jr	ra
 1221              		.cfi_endproc
 1222              	.LFE374:
 1224              		.section	.text.i2c_wakeup_from_deepsleep_disable,"ax",@progbits
 1225              		.align	1
 1226              		.globl	i2c_wakeup_from_deepsleep_disable
 1228              	i2c_wakeup_from_deepsleep_disable:
 1229              	.LFB375:
 462:../Firmware/GD32VW55x_standard_peripheral/Source/gd32vw55x_i2c.c **** 
 463:../Firmware/GD32VW55x_standard_peripheral/Source/gd32vw55x_i2c.c **** /*!
 464:../Firmware/GD32VW55x_standard_peripheral/Source/gd32vw55x_i2c.c ****     \brief      disable wakeup from deep-sleep mode
 465:../Firmware/GD32VW55x_standard_peripheral/Source/gd32vw55x_i2c.c ****     \param[in]  i2c_periph: I2Cx(x=0)
 466:../Firmware/GD32VW55x_standard_peripheral/Source/gd32vw55x_i2c.c ****     \param[out] none
 467:../Firmware/GD32VW55x_standard_peripheral/Source/gd32vw55x_i2c.c ****     \retval     none
 468:../Firmware/GD32VW55x_standard_peripheral/Source/gd32vw55x_i2c.c **** */
 469:../Firmware/GD32VW55x_standard_peripheral/Source/gd32vw55x_i2c.c **** void i2c_wakeup_from_deepsleep_disable(uint32_t i2c_periph)
 470:../Firmware/GD32VW55x_standard_peripheral/Source/gd32vw55x_i2c.c **** {
 1230              		.loc 1 470 1
 1231              		.cfi_startproc
 1232 0000 0111     		addi	sp,sp,-32
 1233              		.cfi_def_cfa_offset 32
 1234 0002 22CE     		sw	s0,28(sp)
 1235              		.cfi_offset 8, -4
 1236 0004 0010     		addi	s0,sp,32
 1237              		.cfi_def_cfa 8, 0
 1238 0006 2326A4FE 		sw	a0,-20(s0)
 471:../Firmware/GD32VW55x_standard_peripheral/Source/gd32vw55x_i2c.c ****     I2C_CTL0(i2c_periph) &= ~I2C_CTL0_WUEN;
 1239              		.loc 1 471 26
 1240 000a 8327C4FE 		lw	a5,-20(s0)
 1241 000e 9443     		lw	a3,0(a5)
 1242 0010 8327C4FE 		lw	a5,-20(s0)
 1243 0014 3707FCFF 		li	a4,-262144
 1244 0018 7D17     		addi	a4,a4,-1
 1245 001a 758F     		and	a4,a3,a4
 1246 001c 98C3     		sw	a4,0(a5)
 472:../Firmware/GD32VW55x_standard_peripheral/Source/gd32vw55x_i2c.c **** }
 1247              		.loc 1 472 1
 1248 001e 0100     		nop
 1249 0020 7244     		lw	s0,28(sp)
 1250              		.cfi_restore 8
 1251              		.cfi_def_cfa 2, 32
 1252 0022 0561     		addi	sp,sp,32
 1253              		.cfi_def_cfa_offset 0
 1254 0024 8280     		jr	ra
 1255              		.cfi_endproc
 1256              	.LFE375:
 1258              		.section	.text.i2c_enable,"ax",@progbits
 1259              		.align	1
 1260              		.globl	i2c_enable
 1262              	i2c_enable:
 1263              	.LFB376:
 473:../Firmware/GD32VW55x_standard_peripheral/Source/gd32vw55x_i2c.c **** 
 474:../Firmware/GD32VW55x_standard_peripheral/Source/gd32vw55x_i2c.c **** /*!
 475:../Firmware/GD32VW55x_standard_peripheral/Source/gd32vw55x_i2c.c ****     \brief      enable I2C
 476:../Firmware/GD32VW55x_standard_peripheral/Source/gd32vw55x_i2c.c ****     \param[in]  i2c_periph: I2Cx(x=0,1)
 477:../Firmware/GD32VW55x_standard_peripheral/Source/gd32vw55x_i2c.c ****     \param[out] none
 478:../Firmware/GD32VW55x_standard_peripheral/Source/gd32vw55x_i2c.c ****     \retval     none
 479:../Firmware/GD32VW55x_standard_peripheral/Source/gd32vw55x_i2c.c **** */
 480:../Firmware/GD32VW55x_standard_peripheral/Source/gd32vw55x_i2c.c **** void i2c_enable(uint32_t i2c_periph)
 481:../Firmware/GD32VW55x_standard_peripheral/Source/gd32vw55x_i2c.c **** {
 1264              		.loc 1 481 1
 1265              		.cfi_startproc
 1266 0000 0111     		addi	sp,sp,-32
 1267              		.cfi_def_cfa_offset 32
 1268 0002 22CE     		sw	s0,28(sp)
 1269              		.cfi_offset 8, -4
 1270 0004 0010     		addi	s0,sp,32
 1271              		.cfi_def_cfa 8, 0
 1272 0006 2326A4FE 		sw	a0,-20(s0)
 482:../Firmware/GD32VW55x_standard_peripheral/Source/gd32vw55x_i2c.c ****     I2C_CTL0(i2c_periph) |= I2C_CTL0_I2CEN;
 1273              		.loc 1 482 26
 1274 000a 8327C4FE 		lw	a5,-20(s0)
 1275 000e 9843     		lw	a4,0(a5)
 1276 0010 8327C4FE 		lw	a5,-20(s0)
 1277 0014 13671700 		ori	a4,a4,1
 1278 0018 98C3     		sw	a4,0(a5)
 483:../Firmware/GD32VW55x_standard_peripheral/Source/gd32vw55x_i2c.c **** }
 1279              		.loc 1 483 1
 1280 001a 0100     		nop
 1281 001c 7244     		lw	s0,28(sp)
 1282              		.cfi_restore 8
 1283              		.cfi_def_cfa 2, 32
 1284 001e 0561     		addi	sp,sp,32
 1285              		.cfi_def_cfa_offset 0
 1286 0020 8280     		jr	ra
 1287              		.cfi_endproc
 1288              	.LFE376:
 1290              		.section	.text.i2c_disable,"ax",@progbits
 1291              		.align	1
 1292              		.globl	i2c_disable
 1294              	i2c_disable:
 1295              	.LFB377:
 484:../Firmware/GD32VW55x_standard_peripheral/Source/gd32vw55x_i2c.c **** 
 485:../Firmware/GD32VW55x_standard_peripheral/Source/gd32vw55x_i2c.c **** /*!
 486:../Firmware/GD32VW55x_standard_peripheral/Source/gd32vw55x_i2c.c ****     \brief      disable I2C
 487:../Firmware/GD32VW55x_standard_peripheral/Source/gd32vw55x_i2c.c ****     \param[in]  i2c_periph: I2Cx(x=0,1)
 488:../Firmware/GD32VW55x_standard_peripheral/Source/gd32vw55x_i2c.c ****     \param[out] none
 489:../Firmware/GD32VW55x_standard_peripheral/Source/gd32vw55x_i2c.c ****     \retval     none
 490:../Firmware/GD32VW55x_standard_peripheral/Source/gd32vw55x_i2c.c **** */
 491:../Firmware/GD32VW55x_standard_peripheral/Source/gd32vw55x_i2c.c **** void i2c_disable(uint32_t i2c_periph)
 492:../Firmware/GD32VW55x_standard_peripheral/Source/gd32vw55x_i2c.c **** {
 1296              		.loc 1 492 1
 1297              		.cfi_startproc
 1298 0000 0111     		addi	sp,sp,-32
 1299              		.cfi_def_cfa_offset 32
 1300 0002 22CE     		sw	s0,28(sp)
 1301              		.cfi_offset 8, -4
 1302 0004 0010     		addi	s0,sp,32
 1303              		.cfi_def_cfa 8, 0
 1304 0006 2326A4FE 		sw	a0,-20(s0)
 493:../Firmware/GD32VW55x_standard_peripheral/Source/gd32vw55x_i2c.c ****     I2C_CTL0(i2c_periph) &= ~I2C_CTL0_I2CEN;
 1305              		.loc 1 493 26
 1306 000a 8327C4FE 		lw	a5,-20(s0)
 1307 000e 9843     		lw	a4,0(a5)
 1308 0010 8327C4FE 		lw	a5,-20(s0)
 1309 0014 799B     		andi	a4,a4,-2
 1310 0016 98C3     		sw	a4,0(a5)
 494:../Firmware/GD32VW55x_standard_peripheral/Source/gd32vw55x_i2c.c **** }
 1311              		.loc 1 494 1
 1312 0018 0100     		nop
 1313 001a 7244     		lw	s0,28(sp)
 1314              		.cfi_restore 8
 1315              		.cfi_def_cfa 2, 32
 1316 001c 0561     		addi	sp,sp,32
 1317              		.cfi_def_cfa_offset 0
 1318 001e 8280     		jr	ra
 1319              		.cfi_endproc
 1320              	.LFE377:
 1322              		.section	.text.i2c_start_on_bus,"ax",@progbits
 1323              		.align	1
 1324              		.globl	i2c_start_on_bus
 1326              	i2c_start_on_bus:
 1327              	.LFB378:
 495:../Firmware/GD32VW55x_standard_peripheral/Source/gd32vw55x_i2c.c **** 
 496:../Firmware/GD32VW55x_standard_peripheral/Source/gd32vw55x_i2c.c **** /*!
 497:../Firmware/GD32VW55x_standard_peripheral/Source/gd32vw55x_i2c.c ****     \brief      generate a START condition on I2C bus
 498:../Firmware/GD32VW55x_standard_peripheral/Source/gd32vw55x_i2c.c ****     \param[in]  i2c_periph: I2Cx(x=0,1)
 499:../Firmware/GD32VW55x_standard_peripheral/Source/gd32vw55x_i2c.c ****     \param[out] none
 500:../Firmware/GD32VW55x_standard_peripheral/Source/gd32vw55x_i2c.c ****     \retval     none
 501:../Firmware/GD32VW55x_standard_peripheral/Source/gd32vw55x_i2c.c **** */
 502:../Firmware/GD32VW55x_standard_peripheral/Source/gd32vw55x_i2c.c **** void i2c_start_on_bus(uint32_t i2c_periph)
 503:../Firmware/GD32VW55x_standard_peripheral/Source/gd32vw55x_i2c.c **** {
 1328              		.loc 1 503 1
 1329              		.cfi_startproc
 1330 0000 0111     		addi	sp,sp,-32
 1331              		.cfi_def_cfa_offset 32
 1332 0002 22CE     		sw	s0,28(sp)
 1333              		.cfi_offset 8, -4
 1334 0004 0010     		addi	s0,sp,32
 1335              		.cfi_def_cfa 8, 0
 1336 0006 2326A4FE 		sw	a0,-20(s0)
 504:../Firmware/GD32VW55x_standard_peripheral/Source/gd32vw55x_i2c.c ****     I2C_CTL1(i2c_periph) |= I2C_CTL1_START;
 1337              		.loc 1 504 26
 1338 000a 8327C4FE 		lw	a5,-20(s0)
 1339 000e 9107     		addi	a5,a5,4
 1340 0010 9843     		lw	a4,0(a5)
 1341 0012 8327C4FE 		lw	a5,-20(s0)
 1342 0016 9107     		addi	a5,a5,4
 1343 0018 BE86     		mv	a3,a5
 1344 001a 8967     		li	a5,8192
 1345 001c D98F     		or	a5,a4,a5
 1346 001e 9CC2     		sw	a5,0(a3)
 505:../Firmware/GD32VW55x_standard_peripheral/Source/gd32vw55x_i2c.c **** }
 1347              		.loc 1 505 1
 1348 0020 0100     		nop
 1349 0022 7244     		lw	s0,28(sp)
 1350              		.cfi_restore 8
 1351              		.cfi_def_cfa 2, 32
 1352 0024 0561     		addi	sp,sp,32
 1353              		.cfi_def_cfa_offset 0
 1354 0026 8280     		jr	ra
 1355              		.cfi_endproc
 1356              	.LFE378:
 1358              		.section	.text.i2c_stop_on_bus,"ax",@progbits
 1359              		.align	1
 1360              		.globl	i2c_stop_on_bus
 1362              	i2c_stop_on_bus:
 1363              	.LFB379:
 506:../Firmware/GD32VW55x_standard_peripheral/Source/gd32vw55x_i2c.c **** 
 507:../Firmware/GD32VW55x_standard_peripheral/Source/gd32vw55x_i2c.c **** /*!
 508:../Firmware/GD32VW55x_standard_peripheral/Source/gd32vw55x_i2c.c ****     \brief      generate a STOP condition on I2C bus
 509:../Firmware/GD32VW55x_standard_peripheral/Source/gd32vw55x_i2c.c ****     \param[in]  i2c_periph: I2Cx(x=0,1)
 510:../Firmware/GD32VW55x_standard_peripheral/Source/gd32vw55x_i2c.c ****     \param[out] none
 511:../Firmware/GD32VW55x_standard_peripheral/Source/gd32vw55x_i2c.c ****     \retval     none
 512:../Firmware/GD32VW55x_standard_peripheral/Source/gd32vw55x_i2c.c **** */
 513:../Firmware/GD32VW55x_standard_peripheral/Source/gd32vw55x_i2c.c **** void i2c_stop_on_bus(uint32_t i2c_periph)
 514:../Firmware/GD32VW55x_standard_peripheral/Source/gd32vw55x_i2c.c **** {
 1364              		.loc 1 514 1
 1365              		.cfi_startproc
 1366 0000 0111     		addi	sp,sp,-32
 1367              		.cfi_def_cfa_offset 32
 1368 0002 22CE     		sw	s0,28(sp)
 1369              		.cfi_offset 8, -4
 1370 0004 0010     		addi	s0,sp,32
 1371              		.cfi_def_cfa 8, 0
 1372 0006 2326A4FE 		sw	a0,-20(s0)
 515:../Firmware/GD32VW55x_standard_peripheral/Source/gd32vw55x_i2c.c ****     I2C_CTL1(i2c_periph) |= I2C_CTL1_STOP;
 1373              		.loc 1 515 26
 1374 000a 8327C4FE 		lw	a5,-20(s0)
 1375 000e 9107     		addi	a5,a5,4
 1376 0010 9843     		lw	a4,0(a5)
 1377 0012 8327C4FE 		lw	a5,-20(s0)
 1378 0016 9107     		addi	a5,a5,4
 1379 0018 BE86     		mv	a3,a5
 1380 001a 9167     		li	a5,16384
 1381 001c D98F     		or	a5,a4,a5
 1382 001e 9CC2     		sw	a5,0(a3)
 516:../Firmware/GD32VW55x_standard_peripheral/Source/gd32vw55x_i2c.c **** }
 1383              		.loc 1 516 1
 1384 0020 0100     		nop
 1385 0022 7244     		lw	s0,28(sp)
 1386              		.cfi_restore 8
 1387              		.cfi_def_cfa 2, 32
 1388 0024 0561     		addi	sp,sp,32
 1389              		.cfi_def_cfa_offset 0
 1390 0026 8280     		jr	ra
 1391              		.cfi_endproc
 1392              	.LFE379:
 1394              		.section	.text.i2c_data_transmit,"ax",@progbits
 1395              		.align	1
 1396              		.globl	i2c_data_transmit
 1398              	i2c_data_transmit:
 1399              	.LFB380:
 517:../Firmware/GD32VW55x_standard_peripheral/Source/gd32vw55x_i2c.c **** 
 518:../Firmware/GD32VW55x_standard_peripheral/Source/gd32vw55x_i2c.c **** /*!
 519:../Firmware/GD32VW55x_standard_peripheral/Source/gd32vw55x_i2c.c ****     \brief      I2C transmit data
 520:../Firmware/GD32VW55x_standard_peripheral/Source/gd32vw55x_i2c.c ****     \param[in]  i2c_periph: I2Cx(x=0,1)
 521:../Firmware/GD32VW55x_standard_peripheral/Source/gd32vw55x_i2c.c ****     \param[in]  data: data to be transmitted
 522:../Firmware/GD32VW55x_standard_peripheral/Source/gd32vw55x_i2c.c ****     \param[out] none
 523:../Firmware/GD32VW55x_standard_peripheral/Source/gd32vw55x_i2c.c ****     \retval     none
 524:../Firmware/GD32VW55x_standard_peripheral/Source/gd32vw55x_i2c.c **** */
 525:../Firmware/GD32VW55x_standard_peripheral/Source/gd32vw55x_i2c.c **** void i2c_data_transmit(uint32_t i2c_periph, uint32_t data)
 526:../Firmware/GD32VW55x_standard_peripheral/Source/gd32vw55x_i2c.c **** {
 1400              		.loc 1 526 1
 1401              		.cfi_startproc
 1402 0000 0111     		addi	sp,sp,-32
 1403              		.cfi_def_cfa_offset 32
 1404 0002 22CE     		sw	s0,28(sp)
 1405              		.cfi_offset 8, -4
 1406 0004 0010     		addi	s0,sp,32
 1407              		.cfi_def_cfa 8, 0
 1408 0006 2326A4FE 		sw	a0,-20(s0)
 1409 000a 2324B4FE 		sw	a1,-24(s0)
 527:../Firmware/GD32VW55x_standard_peripheral/Source/gd32vw55x_i2c.c ****     I2C_TDATA(i2c_periph) = (I2C_TDATA_TDATA & data);
 1410              		.loc 1 527 5
 1411 000e 8327C4FE 		lw	a5,-20(s0)
 1412 0012 93878702 		addi	a5,a5,40
 1413 0016 3E87     		mv	a4,a5
 1414              		.loc 1 527 46
 1415 0018 832784FE 		lw	a5,-24(s0)
 1416 001c 93F7F70F 		andi	a5,a5,255
 1417              		.loc 1 527 27
 1418 0020 1CC3     		sw	a5,0(a4)
 528:../Firmware/GD32VW55x_standard_peripheral/Source/gd32vw55x_i2c.c **** }
 1419              		.loc 1 528 1
 1420 0022 0100     		nop
 1421 0024 7244     		lw	s0,28(sp)
 1422              		.cfi_restore 8
 1423              		.cfi_def_cfa 2, 32
 1424 0026 0561     		addi	sp,sp,32
 1425              		.cfi_def_cfa_offset 0
 1426 0028 8280     		jr	ra
 1427              		.cfi_endproc
 1428              	.LFE380:
 1430              		.section	.text.i2c_data_receive,"ax",@progbits
 1431              		.align	1
 1432              		.globl	i2c_data_receive
 1434              	i2c_data_receive:
 1435              	.LFB381:
 529:../Firmware/GD32VW55x_standard_peripheral/Source/gd32vw55x_i2c.c **** 
 530:../Firmware/GD32VW55x_standard_peripheral/Source/gd32vw55x_i2c.c **** /*!
 531:../Firmware/GD32VW55x_standard_peripheral/Source/gd32vw55x_i2c.c ****     \brief      I2C receive data
 532:../Firmware/GD32VW55x_standard_peripheral/Source/gd32vw55x_i2c.c ****     \param[in]  i2c_periph: I2Cx(x=0,1)
 533:../Firmware/GD32VW55x_standard_peripheral/Source/gd32vw55x_i2c.c ****     \param[out] none
 534:../Firmware/GD32VW55x_standard_peripheral/Source/gd32vw55x_i2c.c ****     \retval     received data
 535:../Firmware/GD32VW55x_standard_peripheral/Source/gd32vw55x_i2c.c **** */
 536:../Firmware/GD32VW55x_standard_peripheral/Source/gd32vw55x_i2c.c **** uint32_t i2c_data_receive(uint32_t i2c_periph)
 537:../Firmware/GD32VW55x_standard_peripheral/Source/gd32vw55x_i2c.c **** {
 1436              		.loc 1 537 1
 1437              		.cfi_startproc
 1438 0000 0111     		addi	sp,sp,-32
 1439              		.cfi_def_cfa_offset 32
 1440 0002 22CE     		sw	s0,28(sp)
 1441              		.cfi_offset 8, -4
 1442 0004 0010     		addi	s0,sp,32
 1443              		.cfi_def_cfa 8, 0
 1444 0006 2326A4FE 		sw	a0,-20(s0)
 538:../Firmware/GD32VW55x_standard_peripheral/Source/gd32vw55x_i2c.c ****     return (I2C_RDATA(i2c_periph) & I2C_RDATA_RDATA);
 1445              		.loc 1 538 13
 1446 000a 8327C4FE 		lw	a5,-20(s0)
 1447 000e 93874702 		addi	a5,a5,36
 1448              		.loc 1 538 35
 1449 0012 9C43     		lw	a5,0(a5)
 1450 0014 93F7F70F 		andi	a5,a5,255
 539:../Firmware/GD32VW55x_standard_peripheral/Source/gd32vw55x_i2c.c **** }
 1451              		.loc 1 539 1
 1452 0018 3E85     		mv	a0,a5
 1453 001a 7244     		lw	s0,28(sp)
 1454              		.cfi_restore 8
 1455              		.cfi_def_cfa 2, 32
 1456 001c 0561     		addi	sp,sp,32
 1457              		.cfi_def_cfa_offset 0
 1458 001e 8280     		jr	ra
 1459              		.cfi_endproc
 1460              	.LFE381:
 1462              		.section	.text.i2c_reload_enable,"ax",@progbits
 1463              		.align	1
 1464              		.globl	i2c_reload_enable
 1466              	i2c_reload_enable:
 1467              	.LFB382:
 540:../Firmware/GD32VW55x_standard_peripheral/Source/gd32vw55x_i2c.c **** 
 541:../Firmware/GD32VW55x_standard_peripheral/Source/gd32vw55x_i2c.c **** /*!
 542:../Firmware/GD32VW55x_standard_peripheral/Source/gd32vw55x_i2c.c ****     \brief      enable I2C reload mode
 543:../Firmware/GD32VW55x_standard_peripheral/Source/gd32vw55x_i2c.c ****     \param[in]  i2c_periph: I2Cx(x=0,1)
 544:../Firmware/GD32VW55x_standard_peripheral/Source/gd32vw55x_i2c.c ****     \param[out] none
 545:../Firmware/GD32VW55x_standard_peripheral/Source/gd32vw55x_i2c.c ****     \retval     none
 546:../Firmware/GD32VW55x_standard_peripheral/Source/gd32vw55x_i2c.c **** */
 547:../Firmware/GD32VW55x_standard_peripheral/Source/gd32vw55x_i2c.c **** void i2c_reload_enable(uint32_t i2c_periph)
 548:../Firmware/GD32VW55x_standard_peripheral/Source/gd32vw55x_i2c.c **** {
 1468              		.loc 1 548 1
 1469              		.cfi_startproc
 1470 0000 0111     		addi	sp,sp,-32
 1471              		.cfi_def_cfa_offset 32
 1472 0002 22CE     		sw	s0,28(sp)
 1473              		.cfi_offset 8, -4
 1474 0004 0010     		addi	s0,sp,32
 1475              		.cfi_def_cfa 8, 0
 1476 0006 2326A4FE 		sw	a0,-20(s0)
 549:../Firmware/GD32VW55x_standard_peripheral/Source/gd32vw55x_i2c.c ****     I2C_CTL1(i2c_periph) |= I2C_CTL1_RELOAD;
 1477              		.loc 1 549 26
 1478 000a 8327C4FE 		lw	a5,-20(s0)
 1479 000e 9107     		addi	a5,a5,4
 1480 0010 9843     		lw	a4,0(a5)
 1481 0012 8327C4FE 		lw	a5,-20(s0)
 1482 0016 9107     		addi	a5,a5,4
 1483 0018 BE86     		mv	a3,a5
 1484 001a B7070001 		li	a5,16777216
 1485 001e D98F     		or	a5,a4,a5
 1486 0020 9CC2     		sw	a5,0(a3)
 550:../Firmware/GD32VW55x_standard_peripheral/Source/gd32vw55x_i2c.c **** }
 1487              		.loc 1 550 1
 1488 0022 0100     		nop
 1489 0024 7244     		lw	s0,28(sp)
 1490              		.cfi_restore 8
 1491              		.cfi_def_cfa 2, 32
 1492 0026 0561     		addi	sp,sp,32
 1493              		.cfi_def_cfa_offset 0
 1494 0028 8280     		jr	ra
 1495              		.cfi_endproc
 1496              	.LFE382:
 1498              		.section	.text.i2c_reload_disable,"ax",@progbits
 1499              		.align	1
 1500              		.globl	i2c_reload_disable
 1502              	i2c_reload_disable:
 1503              	.LFB383:
 551:../Firmware/GD32VW55x_standard_peripheral/Source/gd32vw55x_i2c.c **** 
 552:../Firmware/GD32VW55x_standard_peripheral/Source/gd32vw55x_i2c.c **** /*!
 553:../Firmware/GD32VW55x_standard_peripheral/Source/gd32vw55x_i2c.c ****     \brief      disable I2C reload mode
 554:../Firmware/GD32VW55x_standard_peripheral/Source/gd32vw55x_i2c.c ****     \param[in]  i2c_periph: I2Cx(x=0,1)
 555:../Firmware/GD32VW55x_standard_peripheral/Source/gd32vw55x_i2c.c ****     \param[out] none
 556:../Firmware/GD32VW55x_standard_peripheral/Source/gd32vw55x_i2c.c ****     \retval     none
 557:../Firmware/GD32VW55x_standard_peripheral/Source/gd32vw55x_i2c.c **** */
 558:../Firmware/GD32VW55x_standard_peripheral/Source/gd32vw55x_i2c.c **** void i2c_reload_disable(uint32_t i2c_periph)
 559:../Firmware/GD32VW55x_standard_peripheral/Source/gd32vw55x_i2c.c **** {
 1504              		.loc 1 559 1
 1505              		.cfi_startproc
 1506 0000 0111     		addi	sp,sp,-32
 1507              		.cfi_def_cfa_offset 32
 1508 0002 22CE     		sw	s0,28(sp)
 1509              		.cfi_offset 8, -4
 1510 0004 0010     		addi	s0,sp,32
 1511              		.cfi_def_cfa 8, 0
 1512 0006 2326A4FE 		sw	a0,-20(s0)
 560:../Firmware/GD32VW55x_standard_peripheral/Source/gd32vw55x_i2c.c ****     I2C_CTL1(i2c_periph) &= ~I2C_CTL1_RELOAD;
 1513              		.loc 1 560 26
 1514 000a 8327C4FE 		lw	a5,-20(s0)
 1515 000e 9107     		addi	a5,a5,4
 1516 0010 9843     		lw	a4,0(a5)
 1517 0012 8327C4FE 		lw	a5,-20(s0)
 1518 0016 9107     		addi	a5,a5,4
 1519 0018 BE86     		mv	a3,a5
 1520 001a B70700FF 		li	a5,-16777216
 1521 001e FD17     		addi	a5,a5,-1
 1522 0020 F98F     		and	a5,a4,a5
 1523 0022 9CC2     		sw	a5,0(a3)
 561:../Firmware/GD32VW55x_standard_peripheral/Source/gd32vw55x_i2c.c **** }
 1524              		.loc 1 561 1
 1525 0024 0100     		nop
 1526 0026 7244     		lw	s0,28(sp)
 1527              		.cfi_restore 8
 1528              		.cfi_def_cfa 2, 32
 1529 0028 0561     		addi	sp,sp,32
 1530              		.cfi_def_cfa_offset 0
 1531 002a 8280     		jr	ra
 1532              		.cfi_endproc
 1533              	.LFE383:
 1535              		.section	.text.i2c_transfer_byte_number_config,"ax",@progbits
 1536              		.align	1
 1537              		.globl	i2c_transfer_byte_number_config
 1539              	i2c_transfer_byte_number_config:
 1540              	.LFB384:
 562:../Firmware/GD32VW55x_standard_peripheral/Source/gd32vw55x_i2c.c **** 
 563:../Firmware/GD32VW55x_standard_peripheral/Source/gd32vw55x_i2c.c **** /*!
 564:../Firmware/GD32VW55x_standard_peripheral/Source/gd32vw55x_i2c.c ****     \brief      configure number of bytes to be transferred
 565:../Firmware/GD32VW55x_standard_peripheral/Source/gd32vw55x_i2c.c ****     \param[in]  i2c_periph: I2Cx(x=0,1)
 566:../Firmware/GD32VW55x_standard_peripheral/Source/gd32vw55x_i2c.c ****     \param[in]  byte_number: 0x0-0xFF, number of bytes to be transferred
 567:../Firmware/GD32VW55x_standard_peripheral/Source/gd32vw55x_i2c.c ****     \param[out] none
 568:../Firmware/GD32VW55x_standard_peripheral/Source/gd32vw55x_i2c.c ****     \retval     none
 569:../Firmware/GD32VW55x_standard_peripheral/Source/gd32vw55x_i2c.c **** */
 570:../Firmware/GD32VW55x_standard_peripheral/Source/gd32vw55x_i2c.c **** void i2c_transfer_byte_number_config(uint32_t i2c_periph, uint32_t byte_number)
 571:../Firmware/GD32VW55x_standard_peripheral/Source/gd32vw55x_i2c.c **** {
 1541              		.loc 1 571 1
 1542              		.cfi_startproc
 1543 0000 0111     		addi	sp,sp,-32
 1544              		.cfi_def_cfa_offset 32
 1545 0002 22CE     		sw	s0,28(sp)
 1546              		.cfi_offset 8, -4
 1547 0004 0010     		addi	s0,sp,32
 1548              		.cfi_def_cfa 8, 0
 1549 0006 2326A4FE 		sw	a0,-20(s0)
 1550 000a 2324B4FE 		sw	a1,-24(s0)
 572:../Firmware/GD32VW55x_standard_peripheral/Source/gd32vw55x_i2c.c ****     I2C_CTL1(i2c_periph) &= (uint32_t)(~I2C_CTL1_BYTENUM);
 1551              		.loc 1 572 26
 1552 000e 8327C4FE 		lw	a5,-20(s0)
 1553 0012 9107     		addi	a5,a5,4
 1554 0014 9843     		lw	a4,0(a5)
 1555 0016 8327C4FE 		lw	a5,-20(s0)
 1556 001a 9107     		addi	a5,a5,4
 1557 001c BE86     		mv	a3,a5
 1558 001e B70701FF 		li	a5,-16711680
 1559 0022 FD17     		addi	a5,a5,-1
 1560 0024 F98F     		and	a5,a4,a5
 1561 0026 9CC2     		sw	a5,0(a3)
 573:../Firmware/GD32VW55x_standard_peripheral/Source/gd32vw55x_i2c.c ****     I2C_CTL1(i2c_periph) |= (uint32_t)(byte_number << CTL1_BYTENUM_OFFSET);
 1562              		.loc 1 573 26
 1563 0028 8327C4FE 		lw	a5,-20(s0)
 1564 002c 9107     		addi	a5,a5,4
 1565 002e 9843     		lw	a4,0(a5)
 1566              		.loc 1 573 52
 1567 0030 832784FE 		lw	a5,-24(s0)
 1568 0034 C207     		slli	a5,a5,16
 1569              		.loc 1 573 26
 1570 0036 8326C4FE 		lw	a3,-20(s0)
 1571 003a 9106     		addi	a3,a3,4
 1572 003c D98F     		or	a5,a4,a5
 1573 003e 9CC2     		sw	a5,0(a3)
 574:../Firmware/GD32VW55x_standard_peripheral/Source/gd32vw55x_i2c.c **** }
 1574              		.loc 1 574 1
 1575 0040 0100     		nop
 1576 0042 7244     		lw	s0,28(sp)
 1577              		.cfi_restore 8
 1578              		.cfi_def_cfa 2, 32
 1579 0044 0561     		addi	sp,sp,32
 1580              		.cfi_def_cfa_offset 0
 1581 0046 8280     		jr	ra
 1582              		.cfi_endproc
 1583              	.LFE384:
 1585              		.section	.text.i2c_dma_enable,"ax",@progbits
 1586              		.align	1
 1587              		.globl	i2c_dma_enable
 1589              	i2c_dma_enable:
 1590              	.LFB385:
 575:../Firmware/GD32VW55x_standard_peripheral/Source/gd32vw55x_i2c.c **** 
 576:../Firmware/GD32VW55x_standard_peripheral/Source/gd32vw55x_i2c.c **** /*!
 577:../Firmware/GD32VW55x_standard_peripheral/Source/gd32vw55x_i2c.c ****     \brief      enable I2C DMA for transmission or reception
 578:../Firmware/GD32VW55x_standard_peripheral/Source/gd32vw55x_i2c.c ****     \param[in]  i2c_periph: I2Cx(x=0,1)
 579:../Firmware/GD32VW55x_standard_peripheral/Source/gd32vw55x_i2c.c ****     \param[in]  dma: I2C DMA
 580:../Firmware/GD32VW55x_standard_peripheral/Source/gd32vw55x_i2c.c ****                 only one parameter can be selected which is shown as below:
 581:../Firmware/GD32VW55x_standard_peripheral/Source/gd32vw55x_i2c.c ****       \arg        I2C_DMA_TRANSMIT: transmit data using DMA
 582:../Firmware/GD32VW55x_standard_peripheral/Source/gd32vw55x_i2c.c ****       \arg        I2C_DMA_RECEIVE: receive data using DMA
 583:../Firmware/GD32VW55x_standard_peripheral/Source/gd32vw55x_i2c.c ****     \param[out] none
 584:../Firmware/GD32VW55x_standard_peripheral/Source/gd32vw55x_i2c.c ****     \retval     none
 585:../Firmware/GD32VW55x_standard_peripheral/Source/gd32vw55x_i2c.c **** */
 586:../Firmware/GD32VW55x_standard_peripheral/Source/gd32vw55x_i2c.c **** void i2c_dma_enable(uint32_t i2c_periph, uint8_t dma)
 587:../Firmware/GD32VW55x_standard_peripheral/Source/gd32vw55x_i2c.c **** {
 1591              		.loc 1 587 1
 1592              		.cfi_startproc
 1593 0000 0111     		addi	sp,sp,-32
 1594              		.cfi_def_cfa_offset 32
 1595 0002 22CE     		sw	s0,28(sp)
 1596              		.cfi_offset 8, -4
 1597 0004 0010     		addi	s0,sp,32
 1598              		.cfi_def_cfa 8, 0
 1599 0006 2326A4FE 		sw	a0,-20(s0)
 1600 000a AE87     		mv	a5,a1
 1601 000c A305F4FE 		sb	a5,-21(s0)
 588:../Firmware/GD32VW55x_standard_peripheral/Source/gd32vw55x_i2c.c ****     if(I2C_DMA_TRANSMIT == dma){
 1602              		.loc 1 588 7
 1603 0010 8347B4FE 		lbu	a5,-21(s0)
 1604 0014 91EB     		bne	a5,zero,.L46
 589:../Firmware/GD32VW55x_standard_peripheral/Source/gd32vw55x_i2c.c ****         I2C_CTL0(i2c_periph) |= I2C_CTL0_DENT;
 1605              		.loc 1 589 30
 1606 0016 8327C4FE 		lw	a5,-20(s0)
 1607 001a 9443     		lw	a3,0(a5)
 1608 001c 8327C4FE 		lw	a5,-20(s0)
 1609 0020 1167     		li	a4,16384
 1610 0022 558F     		or	a4,a3,a4
 1611 0024 98C3     		sw	a4,0(a5)
 590:../Firmware/GD32VW55x_standard_peripheral/Source/gd32vw55x_i2c.c ****     }else{
 591:../Firmware/GD32VW55x_standard_peripheral/Source/gd32vw55x_i2c.c ****         I2C_CTL0(i2c_periph) |= I2C_CTL0_DENR;
 592:../Firmware/GD32VW55x_standard_peripheral/Source/gd32vw55x_i2c.c ****     }
 593:../Firmware/GD32VW55x_standard_peripheral/Source/gd32vw55x_i2c.c **** }
 1612              		.loc 1 593 1
 1613 0026 09A8     		j	.L48
 1614              	.L46:
 591:../Firmware/GD32VW55x_standard_peripheral/Source/gd32vw55x_i2c.c ****     }
 1615              		.loc 1 591 30
 1616 0028 8327C4FE 		lw	a5,-20(s0)
 1617 002c 9443     		lw	a3,0(a5)
 1618 002e 8327C4FE 		lw	a5,-20(s0)
 1619 0032 2167     		li	a4,32768
 1620 0034 558F     		or	a4,a3,a4
 1621 0036 98C3     		sw	a4,0(a5)
 1622              	.L48:
 1623              		.loc 1 593 1
 1624 0038 0100     		nop
 1625 003a 7244     		lw	s0,28(sp)
 1626              		.cfi_restore 8
 1627              		.cfi_def_cfa 2, 32
 1628 003c 0561     		addi	sp,sp,32
 1629              		.cfi_def_cfa_offset 0
 1630 003e 8280     		jr	ra
 1631              		.cfi_endproc
 1632              	.LFE385:
 1634              		.section	.text.i2c_dma_disable,"ax",@progbits
 1635              		.align	1
 1636              		.globl	i2c_dma_disable
 1638              	i2c_dma_disable:
 1639              	.LFB386:
 594:../Firmware/GD32VW55x_standard_peripheral/Source/gd32vw55x_i2c.c **** 
 595:../Firmware/GD32VW55x_standard_peripheral/Source/gd32vw55x_i2c.c **** /*!
 596:../Firmware/GD32VW55x_standard_peripheral/Source/gd32vw55x_i2c.c ****     \brief      disable I2C DMA for transmission or reception
 597:../Firmware/GD32VW55x_standard_peripheral/Source/gd32vw55x_i2c.c ****     \param[in]  i2c_periph: I2Cx(x=0,1)
 598:../Firmware/GD32VW55x_standard_peripheral/Source/gd32vw55x_i2c.c ****     \param[in]  dma: I2C DMA
 599:../Firmware/GD32VW55x_standard_peripheral/Source/gd32vw55x_i2c.c ****                 only one parameter can be selected which is shown as below:
 600:../Firmware/GD32VW55x_standard_peripheral/Source/gd32vw55x_i2c.c ****       \arg        I2C_DMA_TRANSMIT: transmit data using DMA
 601:../Firmware/GD32VW55x_standard_peripheral/Source/gd32vw55x_i2c.c ****       \arg        I2C_DMA_RECEIVE: receive data using DMA
 602:../Firmware/GD32VW55x_standard_peripheral/Source/gd32vw55x_i2c.c ****     \param[out] none
 603:../Firmware/GD32VW55x_standard_peripheral/Source/gd32vw55x_i2c.c ****     \retval     none
 604:../Firmware/GD32VW55x_standard_peripheral/Source/gd32vw55x_i2c.c **** */
 605:../Firmware/GD32VW55x_standard_peripheral/Source/gd32vw55x_i2c.c **** void i2c_dma_disable(uint32_t i2c_periph, uint8_t dma)
 606:../Firmware/GD32VW55x_standard_peripheral/Source/gd32vw55x_i2c.c **** {
 1640              		.loc 1 606 1
 1641              		.cfi_startproc
 1642 0000 0111     		addi	sp,sp,-32
 1643              		.cfi_def_cfa_offset 32
 1644 0002 22CE     		sw	s0,28(sp)
 1645              		.cfi_offset 8, -4
 1646 0004 0010     		addi	s0,sp,32
 1647              		.cfi_def_cfa 8, 0
 1648 0006 2326A4FE 		sw	a0,-20(s0)
 1649 000a AE87     		mv	a5,a1
 1650 000c A305F4FE 		sb	a5,-21(s0)
 607:../Firmware/GD32VW55x_standard_peripheral/Source/gd32vw55x_i2c.c ****     if(I2C_DMA_TRANSMIT == dma){
 1651              		.loc 1 607 7
 1652 0010 8347B4FE 		lbu	a5,-21(s0)
 1653 0014 99EB     		bne	a5,zero,.L50
 608:../Firmware/GD32VW55x_standard_peripheral/Source/gd32vw55x_i2c.c ****         I2C_CTL0(i2c_periph) &= ~I2C_CTL0_DENT;
 1654              		.loc 1 608 30
 1655 0016 8327C4FE 		lw	a5,-20(s0)
 1656 001a 9443     		lw	a3,0(a5)
 1657 001c 8327C4FE 		lw	a5,-20(s0)
 1658 0020 7177     		li	a4,-16384
 1659 0022 7D17     		addi	a4,a4,-1
 1660 0024 758F     		and	a4,a3,a4
 1661 0026 98C3     		sw	a4,0(a5)
 609:../Firmware/GD32VW55x_standard_peripheral/Source/gd32vw55x_i2c.c ****     }else{
 610:../Firmware/GD32VW55x_standard_peripheral/Source/gd32vw55x_i2c.c ****         I2C_CTL0(i2c_periph) &= ~I2C_CTL0_DENR;
 611:../Firmware/GD32VW55x_standard_peripheral/Source/gd32vw55x_i2c.c ****     }
 612:../Firmware/GD32VW55x_standard_peripheral/Source/gd32vw55x_i2c.c **** }
 1662              		.loc 1 612 1
 1663 0028 11A8     		j	.L52
 1664              	.L50:
 610:../Firmware/GD32VW55x_standard_peripheral/Source/gd32vw55x_i2c.c ****     }
 1665              		.loc 1 610 30
 1666 002a 8327C4FE 		lw	a5,-20(s0)
 1667 002e 9443     		lw	a3,0(a5)
 1668 0030 8327C4FE 		lw	a5,-20(s0)
 1669 0034 6177     		li	a4,-32768
 1670 0036 7D17     		addi	a4,a4,-1
 1671 0038 758F     		and	a4,a3,a4
 1672 003a 98C3     		sw	a4,0(a5)
 1673              	.L52:
 1674              		.loc 1 612 1
 1675 003c 0100     		nop
 1676 003e 7244     		lw	s0,28(sp)
 1677              		.cfi_restore 8
 1678              		.cfi_def_cfa 2, 32
 1679 0040 0561     		addi	sp,sp,32
 1680              		.cfi_def_cfa_offset 0
 1681 0042 8280     		jr	ra
 1682              		.cfi_endproc
 1683              	.LFE386:
 1685              		.section	.text.i2c_pec_transfer,"ax",@progbits
 1686              		.align	1
 1687              		.globl	i2c_pec_transfer
 1689              	i2c_pec_transfer:
 1690              	.LFB387:
 613:../Firmware/GD32VW55x_standard_peripheral/Source/gd32vw55x_i2c.c **** 
 614:../Firmware/GD32VW55x_standard_peripheral/Source/gd32vw55x_i2c.c **** /*!
 615:../Firmware/GD32VW55x_standard_peripheral/Source/gd32vw55x_i2c.c ****     \brief      I2C transfers PEC value
 616:../Firmware/GD32VW55x_standard_peripheral/Source/gd32vw55x_i2c.c ****     \param[in]  i2c_periph: I2Cx(x=0,1)
 617:../Firmware/GD32VW55x_standard_peripheral/Source/gd32vw55x_i2c.c ****     \param[out] none
 618:../Firmware/GD32VW55x_standard_peripheral/Source/gd32vw55x_i2c.c ****     \retval     none
 619:../Firmware/GD32VW55x_standard_peripheral/Source/gd32vw55x_i2c.c **** */
 620:../Firmware/GD32VW55x_standard_peripheral/Source/gd32vw55x_i2c.c **** void i2c_pec_transfer(uint32_t i2c_periph)
 621:../Firmware/GD32VW55x_standard_peripheral/Source/gd32vw55x_i2c.c **** {
 1691              		.loc 1 621 1
 1692              		.cfi_startproc
 1693 0000 0111     		addi	sp,sp,-32
 1694              		.cfi_def_cfa_offset 32
 1695 0002 22CE     		sw	s0,28(sp)
 1696              		.cfi_offset 8, -4
 1697 0004 0010     		addi	s0,sp,32
 1698              		.cfi_def_cfa 8, 0
 1699 0006 2326A4FE 		sw	a0,-20(s0)
 622:../Firmware/GD32VW55x_standard_peripheral/Source/gd32vw55x_i2c.c ****     I2C_CTL1(i2c_periph) |= I2C_CTL1_PECTRANS;
 1700              		.loc 1 622 26
 1701 000a 8327C4FE 		lw	a5,-20(s0)
 1702 000e 9107     		addi	a5,a5,4
 1703 0010 9843     		lw	a4,0(a5)
 1704 0012 8327C4FE 		lw	a5,-20(s0)
 1705 0016 9107     		addi	a5,a5,4
 1706 0018 BE86     		mv	a3,a5
 1707 001a B7070004 		li	a5,67108864
 1708 001e D98F     		or	a5,a4,a5
 1709 0020 9CC2     		sw	a5,0(a3)
 623:../Firmware/GD32VW55x_standard_peripheral/Source/gd32vw55x_i2c.c **** }
 1710              		.loc 1 623 1
 1711 0022 0100     		nop
 1712 0024 7244     		lw	s0,28(sp)
 1713              		.cfi_restore 8
 1714              		.cfi_def_cfa 2, 32
 1715 0026 0561     		addi	sp,sp,32
 1716              		.cfi_def_cfa_offset 0
 1717 0028 8280     		jr	ra
 1718              		.cfi_endproc
 1719              	.LFE387:
 1721              		.section	.text.i2c_pec_enable,"ax",@progbits
 1722              		.align	1
 1723              		.globl	i2c_pec_enable
 1725              	i2c_pec_enable:
 1726              	.LFB388:
 624:../Firmware/GD32VW55x_standard_peripheral/Source/gd32vw55x_i2c.c **** 
 625:../Firmware/GD32VW55x_standard_peripheral/Source/gd32vw55x_i2c.c **** /*!
 626:../Firmware/GD32VW55x_standard_peripheral/Source/gd32vw55x_i2c.c ****     \brief      enable I2C PEC calculation
 627:../Firmware/GD32VW55x_standard_peripheral/Source/gd32vw55x_i2c.c ****     \param[in]  i2c_periph: I2Cx(x=0,1)
 628:../Firmware/GD32VW55x_standard_peripheral/Source/gd32vw55x_i2c.c ****     \param[out] none
 629:../Firmware/GD32VW55x_standard_peripheral/Source/gd32vw55x_i2c.c ****     \retval     none
 630:../Firmware/GD32VW55x_standard_peripheral/Source/gd32vw55x_i2c.c **** */
 631:../Firmware/GD32VW55x_standard_peripheral/Source/gd32vw55x_i2c.c **** void i2c_pec_enable(uint32_t i2c_periph)
 632:../Firmware/GD32VW55x_standard_peripheral/Source/gd32vw55x_i2c.c **** {
 1727              		.loc 1 632 1
 1728              		.cfi_startproc
 1729 0000 0111     		addi	sp,sp,-32
 1730              		.cfi_def_cfa_offset 32
 1731 0002 22CE     		sw	s0,28(sp)
 1732              		.cfi_offset 8, -4
 1733 0004 0010     		addi	s0,sp,32
 1734              		.cfi_def_cfa 8, 0
 1735 0006 2326A4FE 		sw	a0,-20(s0)
 633:../Firmware/GD32VW55x_standard_peripheral/Source/gd32vw55x_i2c.c ****     I2C_CTL0(i2c_periph) |= I2C_CTL0_PECEN;
 1736              		.loc 1 633 26
 1737 000a 8327C4FE 		lw	a5,-20(s0)
 1738 000e 9443     		lw	a3,0(a5)
 1739 0010 8327C4FE 		lw	a5,-20(s0)
 1740 0014 37078000 		li	a4,8388608
 1741 0018 558F     		or	a4,a3,a4
 1742 001a 98C3     		sw	a4,0(a5)
 634:../Firmware/GD32VW55x_standard_peripheral/Source/gd32vw55x_i2c.c **** }
 1743              		.loc 1 634 1
 1744 001c 0100     		nop
 1745 001e 7244     		lw	s0,28(sp)
 1746              		.cfi_restore 8
 1747              		.cfi_def_cfa 2, 32
 1748 0020 0561     		addi	sp,sp,32
 1749              		.cfi_def_cfa_offset 0
 1750 0022 8280     		jr	ra
 1751              		.cfi_endproc
 1752              	.LFE388:
 1754              		.section	.text.i2c_pec_disable,"ax",@progbits
 1755              		.align	1
 1756              		.globl	i2c_pec_disable
 1758              	i2c_pec_disable:
 1759              	.LFB389:
 635:../Firmware/GD32VW55x_standard_peripheral/Source/gd32vw55x_i2c.c **** 
 636:../Firmware/GD32VW55x_standard_peripheral/Source/gd32vw55x_i2c.c **** /*!
 637:../Firmware/GD32VW55x_standard_peripheral/Source/gd32vw55x_i2c.c ****     \brief      disable I2C PEC calculation
 638:../Firmware/GD32VW55x_standard_peripheral/Source/gd32vw55x_i2c.c ****     \param[in]  i2c_periph: I2Cx(x=0,1)
 639:../Firmware/GD32VW55x_standard_peripheral/Source/gd32vw55x_i2c.c ****     \param[out] none
 640:../Firmware/GD32VW55x_standard_peripheral/Source/gd32vw55x_i2c.c ****     \retval     none
 641:../Firmware/GD32VW55x_standard_peripheral/Source/gd32vw55x_i2c.c **** */
 642:../Firmware/GD32VW55x_standard_peripheral/Source/gd32vw55x_i2c.c **** void i2c_pec_disable(uint32_t i2c_periph)
 643:../Firmware/GD32VW55x_standard_peripheral/Source/gd32vw55x_i2c.c **** {
 1760              		.loc 1 643 1
 1761              		.cfi_startproc
 1762 0000 0111     		addi	sp,sp,-32
 1763              		.cfi_def_cfa_offset 32
 1764 0002 22CE     		sw	s0,28(sp)
 1765              		.cfi_offset 8, -4
 1766 0004 0010     		addi	s0,sp,32
 1767              		.cfi_def_cfa 8, 0
 1768 0006 2326A4FE 		sw	a0,-20(s0)
 644:../Firmware/GD32VW55x_standard_peripheral/Source/gd32vw55x_i2c.c ****     I2C_CTL0(i2c_periph) &= ~I2C_CTL0_PECEN;
 1769              		.loc 1 644 26
 1770 000a 8327C4FE 		lw	a5,-20(s0)
 1771 000e 9443     		lw	a3,0(a5)
 1772 0010 8327C4FE 		lw	a5,-20(s0)
 1773 0014 370780FF 		li	a4,-8388608
 1774 0018 7D17     		addi	a4,a4,-1
 1775 001a 758F     		and	a4,a3,a4
 1776 001c 98C3     		sw	a4,0(a5)
 645:../Firmware/GD32VW55x_standard_peripheral/Source/gd32vw55x_i2c.c **** }
 1777              		.loc 1 645 1
 1778 001e 0100     		nop
 1779 0020 7244     		lw	s0,28(sp)
 1780              		.cfi_restore 8
 1781              		.cfi_def_cfa 2, 32
 1782 0022 0561     		addi	sp,sp,32
 1783              		.cfi_def_cfa_offset 0
 1784 0024 8280     		jr	ra
 1785              		.cfi_endproc
 1786              	.LFE389:
 1788              		.section	.text.i2c_pec_value_get,"ax",@progbits
 1789              		.align	1
 1790              		.globl	i2c_pec_value_get
 1792              	i2c_pec_value_get:
 1793              	.LFB390:
 646:../Firmware/GD32VW55x_standard_peripheral/Source/gd32vw55x_i2c.c **** 
 647:../Firmware/GD32VW55x_standard_peripheral/Source/gd32vw55x_i2c.c **** /*!
 648:../Firmware/GD32VW55x_standard_peripheral/Source/gd32vw55x_i2c.c ****     \brief      get packet error checking value
 649:../Firmware/GD32VW55x_standard_peripheral/Source/gd32vw55x_i2c.c ****     \param[in]  i2c_periph: I2Cx(x=0,1)
 650:../Firmware/GD32VW55x_standard_peripheral/Source/gd32vw55x_i2c.c ****     \param[out] none
 651:../Firmware/GD32VW55x_standard_peripheral/Source/gd32vw55x_i2c.c ****     \retval     PEC value
 652:../Firmware/GD32VW55x_standard_peripheral/Source/gd32vw55x_i2c.c **** */
 653:../Firmware/GD32VW55x_standard_peripheral/Source/gd32vw55x_i2c.c **** uint32_t i2c_pec_value_get(uint32_t i2c_periph)
 654:../Firmware/GD32VW55x_standard_peripheral/Source/gd32vw55x_i2c.c **** {
 1794              		.loc 1 654 1
 1795              		.cfi_startproc
 1796 0000 0111     		addi	sp,sp,-32
 1797              		.cfi_def_cfa_offset 32
 1798 0002 22CE     		sw	s0,28(sp)
 1799              		.cfi_offset 8, -4
 1800 0004 0010     		addi	s0,sp,32
 1801              		.cfi_def_cfa 8, 0
 1802 0006 2326A4FE 		sw	a0,-20(s0)
 655:../Firmware/GD32VW55x_standard_peripheral/Source/gd32vw55x_i2c.c ****     return (I2C_PEC(i2c_periph) & I2C_PEC_PECV);
 1803              		.loc 1 655 13
 1804 000a 8327C4FE 		lw	a5,-20(s0)
 1805 000e 93870702 		addi	a5,a5,32
 1806              		.loc 1 655 33
 1807 0012 9C43     		lw	a5,0(a5)
 1808 0014 93F7F70F 		andi	a5,a5,255
 656:../Firmware/GD32VW55x_standard_peripheral/Source/gd32vw55x_i2c.c **** }
 1809              		.loc 1 656 1
 1810 0018 3E85     		mv	a0,a5
 1811 001a 7244     		lw	s0,28(sp)
 1812              		.cfi_restore 8
 1813              		.cfi_def_cfa 2, 32
 1814 001c 0561     		addi	sp,sp,32
 1815              		.cfi_def_cfa_offset 0
 1816 001e 8280     		jr	ra
 1817              		.cfi_endproc
 1818              	.LFE390:
 1820              		.section	.text.i2c_smbus_alert_enable,"ax",@progbits
 1821              		.align	1
 1822              		.globl	i2c_smbus_alert_enable
 1824              	i2c_smbus_alert_enable:
 1825              	.LFB391:
 657:../Firmware/GD32VW55x_standard_peripheral/Source/gd32vw55x_i2c.c **** 
 658:../Firmware/GD32VW55x_standard_peripheral/Source/gd32vw55x_i2c.c **** /*!
 659:../Firmware/GD32VW55x_standard_peripheral/Source/gd32vw55x_i2c.c ****     \brief      enable SMBus alert
 660:../Firmware/GD32VW55x_standard_peripheral/Source/gd32vw55x_i2c.c ****     \param[in]  i2c_periph: I2Cx(x=0,1)
 661:../Firmware/GD32VW55x_standard_peripheral/Source/gd32vw55x_i2c.c ****     \param[out] none
 662:../Firmware/GD32VW55x_standard_peripheral/Source/gd32vw55x_i2c.c ****     \retval     none
 663:../Firmware/GD32VW55x_standard_peripheral/Source/gd32vw55x_i2c.c **** */
 664:../Firmware/GD32VW55x_standard_peripheral/Source/gd32vw55x_i2c.c **** void i2c_smbus_alert_enable(uint32_t i2c_periph)
 665:../Firmware/GD32VW55x_standard_peripheral/Source/gd32vw55x_i2c.c **** {
 1826              		.loc 1 665 1
 1827              		.cfi_startproc
 1828 0000 0111     		addi	sp,sp,-32
 1829              		.cfi_def_cfa_offset 32
 1830 0002 22CE     		sw	s0,28(sp)
 1831              		.cfi_offset 8, -4
 1832 0004 0010     		addi	s0,sp,32
 1833              		.cfi_def_cfa 8, 0
 1834 0006 2326A4FE 		sw	a0,-20(s0)
 666:../Firmware/GD32VW55x_standard_peripheral/Source/gd32vw55x_i2c.c ****     I2C_CTL0(i2c_periph) |= I2C_CTL0_SMBALTEN;
 1835              		.loc 1 666 26
 1836 000a 8327C4FE 		lw	a5,-20(s0)
 1837 000e 9443     		lw	a3,0(a5)
 1838 0010 8327C4FE 		lw	a5,-20(s0)
 1839 0014 37074000 		li	a4,4194304
 1840 0018 558F     		or	a4,a3,a4
 1841 001a 98C3     		sw	a4,0(a5)
 667:../Firmware/GD32VW55x_standard_peripheral/Source/gd32vw55x_i2c.c **** }
 1842              		.loc 1 667 1
 1843 001c 0100     		nop
 1844 001e 7244     		lw	s0,28(sp)
 1845              		.cfi_restore 8
 1846              		.cfi_def_cfa 2, 32
 1847 0020 0561     		addi	sp,sp,32
 1848              		.cfi_def_cfa_offset 0
 1849 0022 8280     		jr	ra
 1850              		.cfi_endproc
 1851              	.LFE391:
 1853              		.section	.text.i2c_smbus_alert_disable,"ax",@progbits
 1854              		.align	1
 1855              		.globl	i2c_smbus_alert_disable
 1857              	i2c_smbus_alert_disable:
 1858              	.LFB392:
 668:../Firmware/GD32VW55x_standard_peripheral/Source/gd32vw55x_i2c.c **** 
 669:../Firmware/GD32VW55x_standard_peripheral/Source/gd32vw55x_i2c.c **** /*!
 670:../Firmware/GD32VW55x_standard_peripheral/Source/gd32vw55x_i2c.c ****     \brief      disable SMBus alert
 671:../Firmware/GD32VW55x_standard_peripheral/Source/gd32vw55x_i2c.c ****     \param[in]  i2c_periph: I2Cx(x=0,1)
 672:../Firmware/GD32VW55x_standard_peripheral/Source/gd32vw55x_i2c.c ****     \param[out] none
 673:../Firmware/GD32VW55x_standard_peripheral/Source/gd32vw55x_i2c.c ****     \retval     none
 674:../Firmware/GD32VW55x_standard_peripheral/Source/gd32vw55x_i2c.c **** */
 675:../Firmware/GD32VW55x_standard_peripheral/Source/gd32vw55x_i2c.c **** void i2c_smbus_alert_disable(uint32_t i2c_periph)
 676:../Firmware/GD32VW55x_standard_peripheral/Source/gd32vw55x_i2c.c **** {
 1859              		.loc 1 676 1
 1860              		.cfi_startproc
 1861 0000 0111     		addi	sp,sp,-32
 1862              		.cfi_def_cfa_offset 32
 1863 0002 22CE     		sw	s0,28(sp)
 1864              		.cfi_offset 8, -4
 1865 0004 0010     		addi	s0,sp,32
 1866              		.cfi_def_cfa 8, 0
 1867 0006 2326A4FE 		sw	a0,-20(s0)
 677:../Firmware/GD32VW55x_standard_peripheral/Source/gd32vw55x_i2c.c ****     I2C_CTL0(i2c_periph) &= ~I2C_CTL0_SMBALTEN;
 1868              		.loc 1 677 26
 1869 000a 8327C4FE 		lw	a5,-20(s0)
 1870 000e 9443     		lw	a3,0(a5)
 1871 0010 8327C4FE 		lw	a5,-20(s0)
 1872 0014 3707C0FF 		li	a4,-4194304
 1873 0018 7D17     		addi	a4,a4,-1
 1874 001a 758F     		and	a4,a3,a4
 1875 001c 98C3     		sw	a4,0(a5)
 678:../Firmware/GD32VW55x_standard_peripheral/Source/gd32vw55x_i2c.c **** }
 1876              		.loc 1 678 1
 1877 001e 0100     		nop
 1878 0020 7244     		lw	s0,28(sp)
 1879              		.cfi_restore 8
 1880              		.cfi_def_cfa 2, 32
 1881 0022 0561     		addi	sp,sp,32
 1882              		.cfi_def_cfa_offset 0
 1883 0024 8280     		jr	ra
 1884              		.cfi_endproc
 1885              	.LFE392:
 1887              		.section	.text.i2c_smbus_default_addr_enable,"ax",@progbits
 1888              		.align	1
 1889              		.globl	i2c_smbus_default_addr_enable
 1891              	i2c_smbus_default_addr_enable:
 1892              	.LFB393:
 679:../Firmware/GD32VW55x_standard_peripheral/Source/gd32vw55x_i2c.c **** 
 680:../Firmware/GD32VW55x_standard_peripheral/Source/gd32vw55x_i2c.c **** /*!
 681:../Firmware/GD32VW55x_standard_peripheral/Source/gd32vw55x_i2c.c ****     \brief      enable SMBus device default address
 682:../Firmware/GD32VW55x_standard_peripheral/Source/gd32vw55x_i2c.c ****     \param[in]  i2c_periph: I2Cx(x=0,1)
 683:../Firmware/GD32VW55x_standard_peripheral/Source/gd32vw55x_i2c.c ****     \param[out] none
 684:../Firmware/GD32VW55x_standard_peripheral/Source/gd32vw55x_i2c.c ****     \retval     none
 685:../Firmware/GD32VW55x_standard_peripheral/Source/gd32vw55x_i2c.c **** */
 686:../Firmware/GD32VW55x_standard_peripheral/Source/gd32vw55x_i2c.c **** void i2c_smbus_default_addr_enable(uint32_t i2c_periph)
 687:../Firmware/GD32VW55x_standard_peripheral/Source/gd32vw55x_i2c.c **** {
 1893              		.loc 1 687 1
 1894              		.cfi_startproc
 1895 0000 0111     		addi	sp,sp,-32
 1896              		.cfi_def_cfa_offset 32
 1897 0002 22CE     		sw	s0,28(sp)
 1898              		.cfi_offset 8, -4
 1899 0004 0010     		addi	s0,sp,32
 1900              		.cfi_def_cfa 8, 0
 1901 0006 2326A4FE 		sw	a0,-20(s0)
 688:../Firmware/GD32VW55x_standard_peripheral/Source/gd32vw55x_i2c.c ****     I2C_CTL0(i2c_periph) |= I2C_CTL0_SMBDAEN;
 1902              		.loc 1 688 26
 1903 000a 8327C4FE 		lw	a5,-20(s0)
 1904 000e 9443     		lw	a3,0(a5)
 1905 0010 8327C4FE 		lw	a5,-20(s0)
 1906 0014 37072000 		li	a4,2097152
 1907 0018 558F     		or	a4,a3,a4
 1908 001a 98C3     		sw	a4,0(a5)
 689:../Firmware/GD32VW55x_standard_peripheral/Source/gd32vw55x_i2c.c **** }
 1909              		.loc 1 689 1
 1910 001c 0100     		nop
 1911 001e 7244     		lw	s0,28(sp)
 1912              		.cfi_restore 8
 1913              		.cfi_def_cfa 2, 32
 1914 0020 0561     		addi	sp,sp,32
 1915              		.cfi_def_cfa_offset 0
 1916 0022 8280     		jr	ra
 1917              		.cfi_endproc
 1918              	.LFE393:
 1920              		.section	.text.i2c_smbus_default_addr_disable,"ax",@progbits
 1921              		.align	1
 1922              		.globl	i2c_smbus_default_addr_disable
 1924              	i2c_smbus_default_addr_disable:
 1925              	.LFB394:
 690:../Firmware/GD32VW55x_standard_peripheral/Source/gd32vw55x_i2c.c **** 
 691:../Firmware/GD32VW55x_standard_peripheral/Source/gd32vw55x_i2c.c **** /*!
 692:../Firmware/GD32VW55x_standard_peripheral/Source/gd32vw55x_i2c.c ****     \brief      disable SMBus device default address
 693:../Firmware/GD32VW55x_standard_peripheral/Source/gd32vw55x_i2c.c ****     \param[in]  i2c_periph: I2Cx(x=0,1)
 694:../Firmware/GD32VW55x_standard_peripheral/Source/gd32vw55x_i2c.c ****     \param[out] none
 695:../Firmware/GD32VW55x_standard_peripheral/Source/gd32vw55x_i2c.c ****     \retval     none
 696:../Firmware/GD32VW55x_standard_peripheral/Source/gd32vw55x_i2c.c **** */
 697:../Firmware/GD32VW55x_standard_peripheral/Source/gd32vw55x_i2c.c **** void i2c_smbus_default_addr_disable(uint32_t i2c_periph)
 698:../Firmware/GD32VW55x_standard_peripheral/Source/gd32vw55x_i2c.c **** {
 1926              		.loc 1 698 1
 1927              		.cfi_startproc
 1928 0000 0111     		addi	sp,sp,-32
 1929              		.cfi_def_cfa_offset 32
 1930 0002 22CE     		sw	s0,28(sp)
 1931              		.cfi_offset 8, -4
 1932 0004 0010     		addi	s0,sp,32
 1933              		.cfi_def_cfa 8, 0
 1934 0006 2326A4FE 		sw	a0,-20(s0)
 699:../Firmware/GD32VW55x_standard_peripheral/Source/gd32vw55x_i2c.c ****     I2C_CTL0(i2c_periph) &= ~I2C_CTL0_SMBDAEN;
 1935              		.loc 1 699 26
 1936 000a 8327C4FE 		lw	a5,-20(s0)
 1937 000e 9443     		lw	a3,0(a5)
 1938 0010 8327C4FE 		lw	a5,-20(s0)
 1939 0014 3707E0FF 		li	a4,-2097152
 1940 0018 7D17     		addi	a4,a4,-1
 1941 001a 758F     		and	a4,a3,a4
 1942 001c 98C3     		sw	a4,0(a5)
 700:../Firmware/GD32VW55x_standard_peripheral/Source/gd32vw55x_i2c.c **** }
 1943              		.loc 1 700 1
 1944 001e 0100     		nop
 1945 0020 7244     		lw	s0,28(sp)
 1946              		.cfi_restore 8
 1947              		.cfi_def_cfa 2, 32
 1948 0022 0561     		addi	sp,sp,32
 1949              		.cfi_def_cfa_offset 0
 1950 0024 8280     		jr	ra
 1951              		.cfi_endproc
 1952              	.LFE394:
 1954              		.section	.text.i2c_smbus_host_addr_enable,"ax",@progbits
 1955              		.align	1
 1956              		.globl	i2c_smbus_host_addr_enable
 1958              	i2c_smbus_host_addr_enable:
 1959              	.LFB395:
 701:../Firmware/GD32VW55x_standard_peripheral/Source/gd32vw55x_i2c.c **** 
 702:../Firmware/GD32VW55x_standard_peripheral/Source/gd32vw55x_i2c.c **** /*!
 703:../Firmware/GD32VW55x_standard_peripheral/Source/gd32vw55x_i2c.c ****     \brief      enable SMBus Host address
 704:../Firmware/GD32VW55x_standard_peripheral/Source/gd32vw55x_i2c.c ****     \param[in]  i2c_periph: I2Cx(x=0,1)
 705:../Firmware/GD32VW55x_standard_peripheral/Source/gd32vw55x_i2c.c ****     \param[out] none
 706:../Firmware/GD32VW55x_standard_peripheral/Source/gd32vw55x_i2c.c ****     \retval     none
 707:../Firmware/GD32VW55x_standard_peripheral/Source/gd32vw55x_i2c.c **** */
 708:../Firmware/GD32VW55x_standard_peripheral/Source/gd32vw55x_i2c.c **** void i2c_smbus_host_addr_enable(uint32_t i2c_periph)
 709:../Firmware/GD32VW55x_standard_peripheral/Source/gd32vw55x_i2c.c **** {
 1960              		.loc 1 709 1
 1961              		.cfi_startproc
 1962 0000 0111     		addi	sp,sp,-32
 1963              		.cfi_def_cfa_offset 32
 1964 0002 22CE     		sw	s0,28(sp)
 1965              		.cfi_offset 8, -4
 1966 0004 0010     		addi	s0,sp,32
 1967              		.cfi_def_cfa 8, 0
 1968 0006 2326A4FE 		sw	a0,-20(s0)
 710:../Firmware/GD32VW55x_standard_peripheral/Source/gd32vw55x_i2c.c ****     I2C_CTL0(i2c_periph) |= I2C_CTL0_SMBHAEN;
 1969              		.loc 1 710 26
 1970 000a 8327C4FE 		lw	a5,-20(s0)
 1971 000e 9443     		lw	a3,0(a5)
 1972 0010 8327C4FE 		lw	a5,-20(s0)
 1973 0014 37071000 		li	a4,1048576
 1974 0018 558F     		or	a4,a3,a4
 1975 001a 98C3     		sw	a4,0(a5)
 711:../Firmware/GD32VW55x_standard_peripheral/Source/gd32vw55x_i2c.c **** }
 1976              		.loc 1 711 1
 1977 001c 0100     		nop
 1978 001e 7244     		lw	s0,28(sp)
 1979              		.cfi_restore 8
 1980              		.cfi_def_cfa 2, 32
 1981 0020 0561     		addi	sp,sp,32
 1982              		.cfi_def_cfa_offset 0
 1983 0022 8280     		jr	ra
 1984              		.cfi_endproc
 1985              	.LFE395:
 1987              		.section	.text.i2c_smbus_host_addr_disable,"ax",@progbits
 1988              		.align	1
 1989              		.globl	i2c_smbus_host_addr_disable
 1991              	i2c_smbus_host_addr_disable:
 1992              	.LFB396:
 712:../Firmware/GD32VW55x_standard_peripheral/Source/gd32vw55x_i2c.c **** 
 713:../Firmware/GD32VW55x_standard_peripheral/Source/gd32vw55x_i2c.c **** /*!
 714:../Firmware/GD32VW55x_standard_peripheral/Source/gd32vw55x_i2c.c ****     \brief      disable SMBus Host address
 715:../Firmware/GD32VW55x_standard_peripheral/Source/gd32vw55x_i2c.c ****     \param[in]  i2c_periph: I2Cx(x=0,1)
 716:../Firmware/GD32VW55x_standard_peripheral/Source/gd32vw55x_i2c.c ****     \param[out] none
 717:../Firmware/GD32VW55x_standard_peripheral/Source/gd32vw55x_i2c.c ****     \retval     none
 718:../Firmware/GD32VW55x_standard_peripheral/Source/gd32vw55x_i2c.c **** */
 719:../Firmware/GD32VW55x_standard_peripheral/Source/gd32vw55x_i2c.c **** void i2c_smbus_host_addr_disable(uint32_t i2c_periph)
 720:../Firmware/GD32VW55x_standard_peripheral/Source/gd32vw55x_i2c.c **** {
 1993              		.loc 1 720 1
 1994              		.cfi_startproc
 1995 0000 0111     		addi	sp,sp,-32
 1996              		.cfi_def_cfa_offset 32
 1997 0002 22CE     		sw	s0,28(sp)
 1998              		.cfi_offset 8, -4
 1999 0004 0010     		addi	s0,sp,32
 2000              		.cfi_def_cfa 8, 0
 2001 0006 2326A4FE 		sw	a0,-20(s0)
 721:../Firmware/GD32VW55x_standard_peripheral/Source/gd32vw55x_i2c.c ****     I2C_CTL0(i2c_periph) &= ~I2C_CTL0_SMBHAEN;
 2002              		.loc 1 721 26
 2003 000a 8327C4FE 		lw	a5,-20(s0)
 2004 000e 9443     		lw	a3,0(a5)
 2005 0010 8327C4FE 		lw	a5,-20(s0)
 2006 0014 3707F0FF 		li	a4,-1048576
 2007 0018 7D17     		addi	a4,a4,-1
 2008 001a 758F     		and	a4,a3,a4
 2009 001c 98C3     		sw	a4,0(a5)
 722:../Firmware/GD32VW55x_standard_peripheral/Source/gd32vw55x_i2c.c **** }
 2010              		.loc 1 722 1
 2011 001e 0100     		nop
 2012 0020 7244     		lw	s0,28(sp)
 2013              		.cfi_restore 8
 2014              		.cfi_def_cfa 2, 32
 2015 0022 0561     		addi	sp,sp,32
 2016              		.cfi_def_cfa_offset 0
 2017 0024 8280     		jr	ra
 2018              		.cfi_endproc
 2019              	.LFE396:
 2021              		.section	.text.i2c_extented_clock_timeout_enable,"ax",@progbits
 2022              		.align	1
 2023              		.globl	i2c_extented_clock_timeout_enable
 2025              	i2c_extented_clock_timeout_enable:
 2026              	.LFB397:
 723:../Firmware/GD32VW55x_standard_peripheral/Source/gd32vw55x_i2c.c **** 
 724:../Firmware/GD32VW55x_standard_peripheral/Source/gd32vw55x_i2c.c **** /*!
 725:../Firmware/GD32VW55x_standard_peripheral/Source/gd32vw55x_i2c.c ****     \brief      enable extended clock timeout detection
 726:../Firmware/GD32VW55x_standard_peripheral/Source/gd32vw55x_i2c.c ****     \param[in]  i2c_periph: I2Cx(x=0,1)
 727:../Firmware/GD32VW55x_standard_peripheral/Source/gd32vw55x_i2c.c ****     \param[out] none
 728:../Firmware/GD32VW55x_standard_peripheral/Source/gd32vw55x_i2c.c ****     \retval     none
 729:../Firmware/GD32VW55x_standard_peripheral/Source/gd32vw55x_i2c.c **** */
 730:../Firmware/GD32VW55x_standard_peripheral/Source/gd32vw55x_i2c.c **** void i2c_extented_clock_timeout_enable(uint32_t i2c_periph)
 731:../Firmware/GD32VW55x_standard_peripheral/Source/gd32vw55x_i2c.c **** {
 2027              		.loc 1 731 1
 2028              		.cfi_startproc
 2029 0000 0111     		addi	sp,sp,-32
 2030              		.cfi_def_cfa_offset 32
 2031 0002 22CE     		sw	s0,28(sp)
 2032              		.cfi_offset 8, -4
 2033 0004 0010     		addi	s0,sp,32
 2034              		.cfi_def_cfa 8, 0
 2035 0006 2326A4FE 		sw	a0,-20(s0)
 732:../Firmware/GD32VW55x_standard_peripheral/Source/gd32vw55x_i2c.c ****     I2C_TIMEOUT(i2c_periph) |= I2C_TIMEOUT_EXTOEN;
 2036              		.loc 1 732 29
 2037 000a 8327C4FE 		lw	a5,-20(s0)
 2038 000e D107     		addi	a5,a5,20
 2039 0010 9843     		lw	a4,0(a5)
 2040 0012 8327C4FE 		lw	a5,-20(s0)
 2041 0016 D107     		addi	a5,a5,20
 2042 0018 BE86     		mv	a3,a5
 2043 001a B7070080 		li	a5,-2147483648
 2044 001e D98F     		or	a5,a4,a5
 2045 0020 9CC2     		sw	a5,0(a3)
 733:../Firmware/GD32VW55x_standard_peripheral/Source/gd32vw55x_i2c.c **** }
 2046              		.loc 1 733 1
 2047 0022 0100     		nop
 2048 0024 7244     		lw	s0,28(sp)
 2049              		.cfi_restore 8
 2050              		.cfi_def_cfa 2, 32
 2051 0026 0561     		addi	sp,sp,32
 2052              		.cfi_def_cfa_offset 0
 2053 0028 8280     		jr	ra
 2054              		.cfi_endproc
 2055              	.LFE397:
 2057              		.section	.text.i2c_extented_clock_timeout_disable,"ax",@progbits
 2058              		.align	1
 2059              		.globl	i2c_extented_clock_timeout_disable
 2061              	i2c_extented_clock_timeout_disable:
 2062              	.LFB398:
 734:../Firmware/GD32VW55x_standard_peripheral/Source/gd32vw55x_i2c.c **** 
 735:../Firmware/GD32VW55x_standard_peripheral/Source/gd32vw55x_i2c.c **** /*!
 736:../Firmware/GD32VW55x_standard_peripheral/Source/gd32vw55x_i2c.c ****     \brief      disable extended clock timeout detection
 737:../Firmware/GD32VW55x_standard_peripheral/Source/gd32vw55x_i2c.c ****     \param[in]  i2c_periph: I2Cx(x=0,1)
 738:../Firmware/GD32VW55x_standard_peripheral/Source/gd32vw55x_i2c.c ****     \param[out] none
 739:../Firmware/GD32VW55x_standard_peripheral/Source/gd32vw55x_i2c.c ****     \retval     none
 740:../Firmware/GD32VW55x_standard_peripheral/Source/gd32vw55x_i2c.c **** */
 741:../Firmware/GD32VW55x_standard_peripheral/Source/gd32vw55x_i2c.c **** void i2c_extented_clock_timeout_disable(uint32_t i2c_periph)
 742:../Firmware/GD32VW55x_standard_peripheral/Source/gd32vw55x_i2c.c **** {
 2063              		.loc 1 742 1
 2064              		.cfi_startproc
 2065 0000 0111     		addi	sp,sp,-32
 2066              		.cfi_def_cfa_offset 32
 2067 0002 22CE     		sw	s0,28(sp)
 2068              		.cfi_offset 8, -4
 2069 0004 0010     		addi	s0,sp,32
 2070              		.cfi_def_cfa 8, 0
 2071 0006 2326A4FE 		sw	a0,-20(s0)
 743:../Firmware/GD32VW55x_standard_peripheral/Source/gd32vw55x_i2c.c ****     I2C_TIMEOUT(i2c_periph) &= ~I2C_TIMEOUT_EXTOEN;
 2072              		.loc 1 743 29
 2073 000a 8327C4FE 		lw	a5,-20(s0)
 2074 000e D107     		addi	a5,a5,20
 2075 0010 9843     		lw	a4,0(a5)
 2076 0012 8327C4FE 		lw	a5,-20(s0)
 2077 0016 D107     		addi	a5,a5,20
 2078 0018 BE86     		mv	a3,a5
 2079 001a B7070080 		li	a5,-2147483648
 2080 001e 93C7F7FF 		xori	a5,a5,-1
 2081 0022 F98F     		and	a5,a4,a5
 2082 0024 9CC2     		sw	a5,0(a3)
 744:../Firmware/GD32VW55x_standard_peripheral/Source/gd32vw55x_i2c.c **** }
 2083              		.loc 1 744 1
 2084 0026 0100     		nop
 2085 0028 7244     		lw	s0,28(sp)
 2086              		.cfi_restore 8
 2087              		.cfi_def_cfa 2, 32
 2088 002a 0561     		addi	sp,sp,32
 2089              		.cfi_def_cfa_offset 0
 2090 002c 8280     		jr	ra
 2091              		.cfi_endproc
 2092              	.LFE398:
 2094              		.section	.text.i2c_clock_timeout_enable,"ax",@progbits
 2095              		.align	1
 2096              		.globl	i2c_clock_timeout_enable
 2098              	i2c_clock_timeout_enable:
 2099              	.LFB399:
 745:../Firmware/GD32VW55x_standard_peripheral/Source/gd32vw55x_i2c.c **** 
 746:../Firmware/GD32VW55x_standard_peripheral/Source/gd32vw55x_i2c.c **** /*!
 747:../Firmware/GD32VW55x_standard_peripheral/Source/gd32vw55x_i2c.c ****     \brief      enable clock timeout detection
 748:../Firmware/GD32VW55x_standard_peripheral/Source/gd32vw55x_i2c.c ****     \param[in]  i2c_periph: I2Cx(x=0,1)
 749:../Firmware/GD32VW55x_standard_peripheral/Source/gd32vw55x_i2c.c ****     \param[out] none
 750:../Firmware/GD32VW55x_standard_peripheral/Source/gd32vw55x_i2c.c ****     \retval     none
 751:../Firmware/GD32VW55x_standard_peripheral/Source/gd32vw55x_i2c.c **** */
 752:../Firmware/GD32VW55x_standard_peripheral/Source/gd32vw55x_i2c.c **** void i2c_clock_timeout_enable(uint32_t i2c_periph)
 753:../Firmware/GD32VW55x_standard_peripheral/Source/gd32vw55x_i2c.c **** {
 2100              		.loc 1 753 1
 2101              		.cfi_startproc
 2102 0000 0111     		addi	sp,sp,-32
 2103              		.cfi_def_cfa_offset 32
 2104 0002 22CE     		sw	s0,28(sp)
 2105              		.cfi_offset 8, -4
 2106 0004 0010     		addi	s0,sp,32
 2107              		.cfi_def_cfa 8, 0
 2108 0006 2326A4FE 		sw	a0,-20(s0)
 754:../Firmware/GD32VW55x_standard_peripheral/Source/gd32vw55x_i2c.c ****     I2C_TIMEOUT(i2c_periph) |= I2C_TIMEOUT_TOEN;
 2109              		.loc 1 754 29
 2110 000a 8327C4FE 		lw	a5,-20(s0)
 2111 000e D107     		addi	a5,a5,20
 2112 0010 9843     		lw	a4,0(a5)
 2113 0012 8327C4FE 		lw	a5,-20(s0)
 2114 0016 D107     		addi	a5,a5,20
 2115 0018 BE86     		mv	a3,a5
 2116 001a A167     		li	a5,32768
 2117 001c D98F     		or	a5,a4,a5
 2118 001e 9CC2     		sw	a5,0(a3)
 755:../Firmware/GD32VW55x_standard_peripheral/Source/gd32vw55x_i2c.c **** }
 2119              		.loc 1 755 1
 2120 0020 0100     		nop
 2121 0022 7244     		lw	s0,28(sp)
 2122              		.cfi_restore 8
 2123              		.cfi_def_cfa 2, 32
 2124 0024 0561     		addi	sp,sp,32
 2125              		.cfi_def_cfa_offset 0
 2126 0026 8280     		jr	ra
 2127              		.cfi_endproc
 2128              	.LFE399:
 2130              		.section	.text.i2c_clock_timeout_disable,"ax",@progbits
 2131              		.align	1
 2132              		.globl	i2c_clock_timeout_disable
 2134              	i2c_clock_timeout_disable:
 2135              	.LFB400:
 756:../Firmware/GD32VW55x_standard_peripheral/Source/gd32vw55x_i2c.c **** 
 757:../Firmware/GD32VW55x_standard_peripheral/Source/gd32vw55x_i2c.c **** /*!
 758:../Firmware/GD32VW55x_standard_peripheral/Source/gd32vw55x_i2c.c ****     \brief      disable clock timeout detection
 759:../Firmware/GD32VW55x_standard_peripheral/Source/gd32vw55x_i2c.c ****     \param[in]  i2c_periph: I2Cx(x=0,1)
 760:../Firmware/GD32VW55x_standard_peripheral/Source/gd32vw55x_i2c.c ****     \param[out] none
 761:../Firmware/GD32VW55x_standard_peripheral/Source/gd32vw55x_i2c.c ****     \retval     none
 762:../Firmware/GD32VW55x_standard_peripheral/Source/gd32vw55x_i2c.c **** */
 763:../Firmware/GD32VW55x_standard_peripheral/Source/gd32vw55x_i2c.c **** void i2c_clock_timeout_disable(uint32_t i2c_periph)
 764:../Firmware/GD32VW55x_standard_peripheral/Source/gd32vw55x_i2c.c **** {
 2136              		.loc 1 764 1
 2137              		.cfi_startproc
 2138 0000 0111     		addi	sp,sp,-32
 2139              		.cfi_def_cfa_offset 32
 2140 0002 22CE     		sw	s0,28(sp)
 2141              		.cfi_offset 8, -4
 2142 0004 0010     		addi	s0,sp,32
 2143              		.cfi_def_cfa 8, 0
 2144 0006 2326A4FE 		sw	a0,-20(s0)
 765:../Firmware/GD32VW55x_standard_peripheral/Source/gd32vw55x_i2c.c ****     I2C_TIMEOUT(i2c_periph) &= ~I2C_TIMEOUT_TOEN;
 2145              		.loc 1 765 29
 2146 000a 8327C4FE 		lw	a5,-20(s0)
 2147 000e D107     		addi	a5,a5,20
 2148 0010 9843     		lw	a4,0(a5)
 2149 0012 8327C4FE 		lw	a5,-20(s0)
 2150 0016 D107     		addi	a5,a5,20
 2151 0018 BE86     		mv	a3,a5
 2152 001a E177     		li	a5,-32768
 2153 001c FD17     		addi	a5,a5,-1
 2154 001e F98F     		and	a5,a4,a5
 2155 0020 9CC2     		sw	a5,0(a3)
 766:../Firmware/GD32VW55x_standard_peripheral/Source/gd32vw55x_i2c.c **** }
 2156              		.loc 1 766 1
 2157 0022 0100     		nop
 2158 0024 7244     		lw	s0,28(sp)
 2159              		.cfi_restore 8
 2160              		.cfi_def_cfa 2, 32
 2161 0026 0561     		addi	sp,sp,32
 2162              		.cfi_def_cfa_offset 0
 2163 0028 8280     		jr	ra
 2164              		.cfi_endproc
 2165              	.LFE400:
 2167              		.section	.text.i2c_bus_timeout_b_config,"ax",@progbits
 2168              		.align	1
 2169              		.globl	i2c_bus_timeout_b_config
 2171              	i2c_bus_timeout_b_config:
 2172              	.LFB401:
 767:../Firmware/GD32VW55x_standard_peripheral/Source/gd32vw55x_i2c.c **** 
 768:../Firmware/GD32VW55x_standard_peripheral/Source/gd32vw55x_i2c.c **** /*!
 769:../Firmware/GD32VW55x_standard_peripheral/Source/gd32vw55x_i2c.c ****     \brief      configure bus timeout B
 770:../Firmware/GD32VW55x_standard_peripheral/Source/gd32vw55x_i2c.c ****     \param[in]  i2c_periph: I2Cx(x=0,1)
 771:../Firmware/GD32VW55x_standard_peripheral/Source/gd32vw55x_i2c.c ****     \param[in]  timeout: bus timeout B
 772:../Firmware/GD32VW55x_standard_peripheral/Source/gd32vw55x_i2c.c ****     \param[out] none
 773:../Firmware/GD32VW55x_standard_peripheral/Source/gd32vw55x_i2c.c ****     \retval     none
 774:../Firmware/GD32VW55x_standard_peripheral/Source/gd32vw55x_i2c.c **** */
 775:../Firmware/GD32VW55x_standard_peripheral/Source/gd32vw55x_i2c.c **** void i2c_bus_timeout_b_config(uint32_t i2c_periph, uint32_t timeout)
 776:../Firmware/GD32VW55x_standard_peripheral/Source/gd32vw55x_i2c.c **** {
 2173              		.loc 1 776 1
 2174              		.cfi_startproc
 2175 0000 0111     		addi	sp,sp,-32
 2176              		.cfi_def_cfa_offset 32
 2177 0002 22CE     		sw	s0,28(sp)
 2178              		.cfi_offset 8, -4
 2179 0004 0010     		addi	s0,sp,32
 2180              		.cfi_def_cfa 8, 0
 2181 0006 2326A4FE 		sw	a0,-20(s0)
 2182 000a 2324B4FE 		sw	a1,-24(s0)
 777:../Firmware/GD32VW55x_standard_peripheral/Source/gd32vw55x_i2c.c ****     I2C_TIMEOUT(i2c_periph) &= ~I2C_TIMEOUT_BUSTOB;
 2183              		.loc 1 777 29
 2184 000e 8327C4FE 		lw	a5,-20(s0)
 2185 0012 D107     		addi	a5,a5,20
 2186 0014 9843     		lw	a4,0(a5)
 2187 0016 8327C4FE 		lw	a5,-20(s0)
 2188 001a D107     		addi	a5,a5,20
 2189 001c BE86     		mv	a3,a5
 2190 001e B70701F0 		li	a5,-268369920
 2191 0022 FD17     		addi	a5,a5,-1
 2192 0024 F98F     		and	a5,a4,a5
 2193 0026 9CC2     		sw	a5,0(a3)
 778:../Firmware/GD32VW55x_standard_peripheral/Source/gd32vw55x_i2c.c ****     I2C_TIMEOUT(i2c_periph) |= (uint32_t)(timeout << TIMEOUT_BUSTOB_OFFSET);
 2194              		.loc 1 778 29
 2195 0028 8327C4FE 		lw	a5,-20(s0)
 2196 002c D107     		addi	a5,a5,20
 2197 002e 9843     		lw	a4,0(a5)
 2198              		.loc 1 778 51
 2199 0030 832784FE 		lw	a5,-24(s0)
 2200 0034 C207     		slli	a5,a5,16
 2201              		.loc 1 778 29
 2202 0036 8326C4FE 		lw	a3,-20(s0)
 2203 003a D106     		addi	a3,a3,20
 2204 003c D98F     		or	a5,a4,a5
 2205 003e 9CC2     		sw	a5,0(a3)
 779:../Firmware/GD32VW55x_standard_peripheral/Source/gd32vw55x_i2c.c **** }
 2206              		.loc 1 779 1
 2207 0040 0100     		nop
 2208 0042 7244     		lw	s0,28(sp)
 2209              		.cfi_restore 8
 2210              		.cfi_def_cfa 2, 32
 2211 0044 0561     		addi	sp,sp,32
 2212              		.cfi_def_cfa_offset 0
 2213 0046 8280     		jr	ra
 2214              		.cfi_endproc
 2215              	.LFE401:
 2217              		.section	.text.i2c_bus_timeout_a_config,"ax",@progbits
 2218              		.align	1
 2219              		.globl	i2c_bus_timeout_a_config
 2221              	i2c_bus_timeout_a_config:
 2222              	.LFB402:
 780:../Firmware/GD32VW55x_standard_peripheral/Source/gd32vw55x_i2c.c **** 
 781:../Firmware/GD32VW55x_standard_peripheral/Source/gd32vw55x_i2c.c **** /*!
 782:../Firmware/GD32VW55x_standard_peripheral/Source/gd32vw55x_i2c.c ****     \brief      configure bus timeout A
 783:../Firmware/GD32VW55x_standard_peripheral/Source/gd32vw55x_i2c.c ****     \param[in]  i2c_periph: I2Cx(x=0,1)
 784:../Firmware/GD32VW55x_standard_peripheral/Source/gd32vw55x_i2c.c ****     \param[in]  timeout: bus timeout A
 785:../Firmware/GD32VW55x_standard_peripheral/Source/gd32vw55x_i2c.c ****     \param[out] none
 786:../Firmware/GD32VW55x_standard_peripheral/Source/gd32vw55x_i2c.c ****     \retval     none
 787:../Firmware/GD32VW55x_standard_peripheral/Source/gd32vw55x_i2c.c **** */
 788:../Firmware/GD32VW55x_standard_peripheral/Source/gd32vw55x_i2c.c **** void i2c_bus_timeout_a_config(uint32_t i2c_periph, uint32_t timeout)
 789:../Firmware/GD32VW55x_standard_peripheral/Source/gd32vw55x_i2c.c **** {
 2223              		.loc 1 789 1
 2224              		.cfi_startproc
 2225 0000 0111     		addi	sp,sp,-32
 2226              		.cfi_def_cfa_offset 32
 2227 0002 22CE     		sw	s0,28(sp)
 2228              		.cfi_offset 8, -4
 2229 0004 0010     		addi	s0,sp,32
 2230              		.cfi_def_cfa 8, 0
 2231 0006 2326A4FE 		sw	a0,-20(s0)
 2232 000a 2324B4FE 		sw	a1,-24(s0)
 790:../Firmware/GD32VW55x_standard_peripheral/Source/gd32vw55x_i2c.c ****     I2C_TIMEOUT(i2c_periph) &= ~I2C_TIMEOUT_BUSTOA;
 2233              		.loc 1 790 29
 2234 000e 8327C4FE 		lw	a5,-20(s0)
 2235 0012 D107     		addi	a5,a5,20
 2236 0014 9843     		lw	a4,0(a5)
 2237 0016 8327C4FE 		lw	a5,-20(s0)
 2238 001a D107     		addi	a5,a5,20
 2239 001c BE86     		mv	a3,a5
 2240 001e FD77     		li	a5,-4096
 2241 0020 F98F     		and	a5,a4,a5
 2242 0022 9CC2     		sw	a5,0(a3)
 791:../Firmware/GD32VW55x_standard_peripheral/Source/gd32vw55x_i2c.c ****     I2C_TIMEOUT(i2c_periph) |= timeout;
 2243              		.loc 1 791 29
 2244 0024 8327C4FE 		lw	a5,-20(s0)
 2245 0028 D107     		addi	a5,a5,20
 2246 002a 9843     		lw	a4,0(a5)
 2247 002c 8327C4FE 		lw	a5,-20(s0)
 2248 0030 D107     		addi	a5,a5,20
 2249 0032 BE86     		mv	a3,a5
 2250 0034 832784FE 		lw	a5,-24(s0)
 2251 0038 D98F     		or	a5,a4,a5
 2252 003a 9CC2     		sw	a5,0(a3)
 792:../Firmware/GD32VW55x_standard_peripheral/Source/gd32vw55x_i2c.c **** }
 2253              		.loc 1 792 1
 2254 003c 0100     		nop
 2255 003e 7244     		lw	s0,28(sp)
 2256              		.cfi_restore 8
 2257              		.cfi_def_cfa 2, 32
 2258 0040 0561     		addi	sp,sp,32
 2259              		.cfi_def_cfa_offset 0
 2260 0042 8280     		jr	ra
 2261              		.cfi_endproc
 2262              	.LFE402:
 2264              		.section	.text.i2c_idle_clock_timeout_config,"ax",@progbits
 2265              		.align	1
 2266              		.globl	i2c_idle_clock_timeout_config
 2268              	i2c_idle_clock_timeout_config:
 2269              	.LFB403:
 793:../Firmware/GD32VW55x_standard_peripheral/Source/gd32vw55x_i2c.c **** 
 794:../Firmware/GD32VW55x_standard_peripheral/Source/gd32vw55x_i2c.c **** /*!
 795:../Firmware/GD32VW55x_standard_peripheral/Source/gd32vw55x_i2c.c ****     \brief      configure idle clock timeout detection
 796:../Firmware/GD32VW55x_standard_peripheral/Source/gd32vw55x_i2c.c ****     \param[in]  i2c_periph: I2Cx(x=0,1)
 797:../Firmware/GD32VW55x_standard_peripheral/Source/gd32vw55x_i2c.c ****     \param[in]  timeout: bus timeout A
 798:../Firmware/GD32VW55x_standard_peripheral/Source/gd32vw55x_i2c.c ****       \arg        BUSTOA_DETECT_SCL_LOW: BUSTOA is used to detect SCL low timeout
 799:../Firmware/GD32VW55x_standard_peripheral/Source/gd32vw55x_i2c.c ****       \arg        BUSTOA_DETECT_IDLE: BUSTOA is used to detect both SCL and SDA high timeout when t
 800:../Firmware/GD32VW55x_standard_peripheral/Source/gd32vw55x_i2c.c ****     \param[out] none
 801:../Firmware/GD32VW55x_standard_peripheral/Source/gd32vw55x_i2c.c ****     \retval     none
 802:../Firmware/GD32VW55x_standard_peripheral/Source/gd32vw55x_i2c.c **** */
 803:../Firmware/GD32VW55x_standard_peripheral/Source/gd32vw55x_i2c.c **** void i2c_idle_clock_timeout_config(uint32_t i2c_periph, uint32_t timeout)
 804:../Firmware/GD32VW55x_standard_peripheral/Source/gd32vw55x_i2c.c **** {
 2270              		.loc 1 804 1
 2271              		.cfi_startproc
 2272 0000 0111     		addi	sp,sp,-32
 2273              		.cfi_def_cfa_offset 32
 2274 0002 22CE     		sw	s0,28(sp)
 2275              		.cfi_offset 8, -4
 2276 0004 0010     		addi	s0,sp,32
 2277              		.cfi_def_cfa 8, 0
 2278 0006 2326A4FE 		sw	a0,-20(s0)
 2279 000a 2324B4FE 		sw	a1,-24(s0)
 805:../Firmware/GD32VW55x_standard_peripheral/Source/gd32vw55x_i2c.c ****     I2C_TIMEOUT(i2c_periph) &= ~I2C_TIMEOUT_TOIDLE;
 2280              		.loc 1 805 29
 2281 000e 8327C4FE 		lw	a5,-20(s0)
 2282 0012 D107     		addi	a5,a5,20
 2283 0014 9843     		lw	a4,0(a5)
 2284 0016 8327C4FE 		lw	a5,-20(s0)
 2285 001a D107     		addi	a5,a5,20
 2286 001c BE86     		mv	a3,a5
 2287 001e FD77     		li	a5,-4096
 2288 0020 FD17     		addi	a5,a5,-1
 2289 0022 F98F     		and	a5,a4,a5
 2290 0024 9CC2     		sw	a5,0(a3)
 806:../Firmware/GD32VW55x_standard_peripheral/Source/gd32vw55x_i2c.c ****     I2C_TIMEOUT(i2c_periph) |= timeout;
 2291              		.loc 1 806 29
 2292 0026 8327C4FE 		lw	a5,-20(s0)
 2293 002a D107     		addi	a5,a5,20
 2294 002c 9843     		lw	a4,0(a5)
 2295 002e 8327C4FE 		lw	a5,-20(s0)
 2296 0032 D107     		addi	a5,a5,20
 2297 0034 BE86     		mv	a3,a5
 2298 0036 832784FE 		lw	a5,-24(s0)
 2299 003a D98F     		or	a5,a4,a5
 2300 003c 9CC2     		sw	a5,0(a3)
 807:../Firmware/GD32VW55x_standard_peripheral/Source/gd32vw55x_i2c.c **** }
 2301              		.loc 1 807 1
 2302 003e 0100     		nop
 2303 0040 7244     		lw	s0,28(sp)
 2304              		.cfi_restore 8
 2305              		.cfi_def_cfa 2, 32
 2306 0042 0561     		addi	sp,sp,32
 2307              		.cfi_def_cfa_offset 0
 2308 0044 8280     		jr	ra
 2309              		.cfi_endproc
 2310              	.LFE403:
 2312              		.section	.text.i2c_flag_get,"ax",@progbits
 2313              		.align	1
 2314              		.globl	i2c_flag_get
 2316              	i2c_flag_get:
 2317              	.LFB404:
 808:../Firmware/GD32VW55x_standard_peripheral/Source/gd32vw55x_i2c.c **** 
 809:../Firmware/GD32VW55x_standard_peripheral/Source/gd32vw55x_i2c.c **** /*!
 810:../Firmware/GD32VW55x_standard_peripheral/Source/gd32vw55x_i2c.c ****     \brief      get I2C flag status
 811:../Firmware/GD32VW55x_standard_peripheral/Source/gd32vw55x_i2c.c ****     \param[in]  i2c_periph: I2Cx(x=0,1)
 812:../Firmware/GD32VW55x_standard_peripheral/Source/gd32vw55x_i2c.c ****     \param[in]  flag: I2C flags
 813:../Firmware/GD32VW55x_standard_peripheral/Source/gd32vw55x_i2c.c ****                 only one parameter can be selected which is shown as below:
 814:../Firmware/GD32VW55x_standard_peripheral/Source/gd32vw55x_i2c.c ****       \arg        I2C_FLAG_TBE: I2C_TDATA is empty during transmitting
 815:../Firmware/GD32VW55x_standard_peripheral/Source/gd32vw55x_i2c.c ****       \arg        I2C_FLAG_TI: transmit interrupt
 816:../Firmware/GD32VW55x_standard_peripheral/Source/gd32vw55x_i2c.c ****       \arg        I2C_FLAG_RBNE: I2C_RDATA is not empty during receiving
 817:../Firmware/GD32VW55x_standard_peripheral/Source/gd32vw55x_i2c.c ****       \arg        I2C_FLAG_ADDSEND: address received matches in slave mode
 818:../Firmware/GD32VW55x_standard_peripheral/Source/gd32vw55x_i2c.c ****       \arg        I2C_FLAG_NACK: not acknowledge flag
 819:../Firmware/GD32VW55x_standard_peripheral/Source/gd32vw55x_i2c.c ****       \arg        I2C_FLAG_STPDET: STOP condition detected in slave mode
 820:../Firmware/GD32VW55x_standard_peripheral/Source/gd32vw55x_i2c.c ****       \arg        I2C_FLAG_TC: transfer complete in master mode
 821:../Firmware/GD32VW55x_standard_peripheral/Source/gd32vw55x_i2c.c ****       \arg        I2C_FLAG_TCR: transfer complete reload
 822:../Firmware/GD32VW55x_standard_peripheral/Source/gd32vw55x_i2c.c ****       \arg        I2C_FLAG_BERR: bus error
 823:../Firmware/GD32VW55x_standard_peripheral/Source/gd32vw55x_i2c.c ****       \arg        I2C_FLAG_LOSTARB: arbitration Lost
 824:../Firmware/GD32VW55x_standard_peripheral/Source/gd32vw55x_i2c.c ****       \arg        I2C_FLAG_OUERR: overrun/underrun error in slave mode
 825:../Firmware/GD32VW55x_standard_peripheral/Source/gd32vw55x_i2c.c ****       \arg        I2C_FLAG_PECERR: PEC error
 826:../Firmware/GD32VW55x_standard_peripheral/Source/gd32vw55x_i2c.c ****       \arg        I2C_FLAG_TIMEOUT: timeout flag
 827:../Firmware/GD32VW55x_standard_peripheral/Source/gd32vw55x_i2c.c ****       \arg        I2C_FLAG_SMBALT: SMBus alert
 828:../Firmware/GD32VW55x_standard_peripheral/Source/gd32vw55x_i2c.c ****       \arg        I2C_FLAG_I2CBSY: busy flag
 829:../Firmware/GD32VW55x_standard_peripheral/Source/gd32vw55x_i2c.c ****       \arg        I2C_FLAG_TR: whether the I2C is a transmitter or a receiver in slave mode
 830:../Firmware/GD32VW55x_standard_peripheral/Source/gd32vw55x_i2c.c ****     \param[out] none
 831:../Firmware/GD32VW55x_standard_peripheral/Source/gd32vw55x_i2c.c ****     \retval     FlagStatus: SET or RESET
 832:../Firmware/GD32VW55x_standard_peripheral/Source/gd32vw55x_i2c.c **** */
 833:../Firmware/GD32VW55x_standard_peripheral/Source/gd32vw55x_i2c.c **** FlagStatus i2c_flag_get(uint32_t i2c_periph, uint32_t flag)
 834:../Firmware/GD32VW55x_standard_peripheral/Source/gd32vw55x_i2c.c **** {
 2318              		.loc 1 834 1
 2319              		.cfi_startproc
 2320 0000 0111     		addi	sp,sp,-32
 2321              		.cfi_def_cfa_offset 32
 2322 0002 22CE     		sw	s0,28(sp)
 2323              		.cfi_offset 8, -4
 2324 0004 0010     		addi	s0,sp,32
 2325              		.cfi_def_cfa 8, 0
 2326 0006 2326A4FE 		sw	a0,-20(s0)
 2327 000a 2324B4FE 		sw	a1,-24(s0)
 835:../Firmware/GD32VW55x_standard_peripheral/Source/gd32vw55x_i2c.c ****     if(RESET != (I2C_STAT(i2c_periph) & flag)){
 2328              		.loc 1 835 18
 2329 000e 8327C4FE 		lw	a5,-20(s0)
 2330 0012 E107     		addi	a5,a5,24
 2331 0014 9843     		lw	a4,0(a5)
 2332              		.loc 1 835 39
 2333 0016 832784FE 		lw	a5,-24(s0)
 2334 001a F98F     		and	a5,a4,a5
 2335              		.loc 1 835 7
 2336 001c 99C3     		beq	a5,zero,.L72
 836:../Firmware/GD32VW55x_standard_peripheral/Source/gd32vw55x_i2c.c ****         return SET;
 2337              		.loc 1 836 16
 2338 001e 8547     		li	a5,1
 2339 0020 11A0     		j	.L73
 2340              	.L72:
 837:../Firmware/GD32VW55x_standard_peripheral/Source/gd32vw55x_i2c.c ****     }else{
 838:../Firmware/GD32VW55x_standard_peripheral/Source/gd32vw55x_i2c.c ****         return RESET;
 2341              		.loc 1 838 16
 2342 0022 8147     		li	a5,0
 2343              	.L73:
 839:../Firmware/GD32VW55x_standard_peripheral/Source/gd32vw55x_i2c.c ****     }
 840:../Firmware/GD32VW55x_standard_peripheral/Source/gd32vw55x_i2c.c **** }
 2344              		.loc 1 840 1
 2345 0024 3E85     		mv	a0,a5
 2346 0026 7244     		lw	s0,28(sp)
 2347              		.cfi_restore 8
 2348              		.cfi_def_cfa 2, 32
 2349 0028 0561     		addi	sp,sp,32
 2350              		.cfi_def_cfa_offset 0
 2351 002a 8280     		jr	ra
 2352              		.cfi_endproc
 2353              	.LFE404:
 2355              		.section	.text.i2c_flag_clear,"ax",@progbits
 2356              		.align	1
 2357              		.globl	i2c_flag_clear
 2359              	i2c_flag_clear:
 2360              	.LFB405:
 841:../Firmware/GD32VW55x_standard_peripheral/Source/gd32vw55x_i2c.c **** 
 842:../Firmware/GD32VW55x_standard_peripheral/Source/gd32vw55x_i2c.c **** /*!
 843:../Firmware/GD32VW55x_standard_peripheral/Source/gd32vw55x_i2c.c ****     \brief      clear I2C flag status
 844:../Firmware/GD32VW55x_standard_peripheral/Source/gd32vw55x_i2c.c ****     \param[in]  i2c_periph: I2Cx(x=0,1)
 845:../Firmware/GD32VW55x_standard_peripheral/Source/gd32vw55x_i2c.c ****     \param[in]  flag: I2C flags
 846:../Firmware/GD32VW55x_standard_peripheral/Source/gd32vw55x_i2c.c ****                 one or more parameters can be selected which are shown as below:
 847:../Firmware/GD32VW55x_standard_peripheral/Source/gd32vw55x_i2c.c ****       \arg        I2C_FLAG_ADDSEND: address received matches in slave mode
 848:../Firmware/GD32VW55x_standard_peripheral/Source/gd32vw55x_i2c.c ****       \arg        I2C_FLAG_NACK: not acknowledge flag
 849:../Firmware/GD32VW55x_standard_peripheral/Source/gd32vw55x_i2c.c ****       \arg        I2C_FLAG_STPDET: STOP condition detected in slave mode
 850:../Firmware/GD32VW55x_standard_peripheral/Source/gd32vw55x_i2c.c ****       \arg        I2C_FLAG_BERR: bus error
 851:../Firmware/GD32VW55x_standard_peripheral/Source/gd32vw55x_i2c.c ****       \arg        I2C_FLAG_LOSTARB: arbitration Lost
 852:../Firmware/GD32VW55x_standard_peripheral/Source/gd32vw55x_i2c.c ****       \arg        I2C_FLAG_OUERR: overrun/underrun error in slave mode
 853:../Firmware/GD32VW55x_standard_peripheral/Source/gd32vw55x_i2c.c ****       \arg        I2C_FLAG_PECERR: PEC error
 854:../Firmware/GD32VW55x_standard_peripheral/Source/gd32vw55x_i2c.c ****       \arg        I2C_FLAG_TIMEOUT: timeout flag
 855:../Firmware/GD32VW55x_standard_peripheral/Source/gd32vw55x_i2c.c ****       \arg        I2C_FLAG_SMBALT: SMBus alert
 856:../Firmware/GD32VW55x_standard_peripheral/Source/gd32vw55x_i2c.c ****     \param[out] none
 857:../Firmware/GD32VW55x_standard_peripheral/Source/gd32vw55x_i2c.c ****     \retval     none
 858:../Firmware/GD32VW55x_standard_peripheral/Source/gd32vw55x_i2c.c **** */
 859:../Firmware/GD32VW55x_standard_peripheral/Source/gd32vw55x_i2c.c **** void i2c_flag_clear(uint32_t i2c_periph, uint32_t flag)
 860:../Firmware/GD32VW55x_standard_peripheral/Source/gd32vw55x_i2c.c **** {
 2361              		.loc 1 860 1
 2362              		.cfi_startproc
 2363 0000 0111     		addi	sp,sp,-32
 2364              		.cfi_def_cfa_offset 32
 2365 0002 22CE     		sw	s0,28(sp)
 2366              		.cfi_offset 8, -4
 2367 0004 0010     		addi	s0,sp,32
 2368              		.cfi_def_cfa 8, 0
 2369 0006 2326A4FE 		sw	a0,-20(s0)
 2370 000a 2324B4FE 		sw	a1,-24(s0)
 861:../Firmware/GD32VW55x_standard_peripheral/Source/gd32vw55x_i2c.c ****     I2C_STATC(i2c_periph) |= flag;
 2371              		.loc 1 861 27
 2372 000e 8327C4FE 		lw	a5,-20(s0)
 2373 0012 F107     		addi	a5,a5,28
 2374 0014 9843     		lw	a4,0(a5)
 2375 0016 8327C4FE 		lw	a5,-20(s0)
 2376 001a F107     		addi	a5,a5,28
 2377 001c BE86     		mv	a3,a5
 2378 001e 832784FE 		lw	a5,-24(s0)
 2379 0022 D98F     		or	a5,a4,a5
 2380 0024 9CC2     		sw	a5,0(a3)
 862:../Firmware/GD32VW55x_standard_peripheral/Source/gd32vw55x_i2c.c **** }
 2381              		.loc 1 862 1
 2382 0026 0100     		nop
 2383 0028 7244     		lw	s0,28(sp)
 2384              		.cfi_restore 8
 2385              		.cfi_def_cfa 2, 32
 2386 002a 0561     		addi	sp,sp,32
 2387              		.cfi_def_cfa_offset 0
 2388 002c 8280     		jr	ra
 2389              		.cfi_endproc
 2390              	.LFE405:
 2392              		.section	.text.i2c_interrupt_enable,"ax",@progbits
 2393              		.align	1
 2394              		.globl	i2c_interrupt_enable
 2396              	i2c_interrupt_enable:
 2397              	.LFB406:
 863:../Firmware/GD32VW55x_standard_peripheral/Source/gd32vw55x_i2c.c **** 
 864:../Firmware/GD32VW55x_standard_peripheral/Source/gd32vw55x_i2c.c **** /*!
 865:../Firmware/GD32VW55x_standard_peripheral/Source/gd32vw55x_i2c.c ****     \brief      enable I2C interrupt
 866:../Firmware/GD32VW55x_standard_peripheral/Source/gd32vw55x_i2c.c ****     \param[in]  i2c_periph: I2Cx(x=0,1)
 867:../Firmware/GD32VW55x_standard_peripheral/Source/gd32vw55x_i2c.c ****     \param[in]  interrupt: I2C interrupts
 868:../Firmware/GD32VW55x_standard_peripheral/Source/gd32vw55x_i2c.c ****                 one or more parameters can be selected which are shown as below:
 869:../Firmware/GD32VW55x_standard_peripheral/Source/gd32vw55x_i2c.c ****       \arg        I2C_INT_ERR: error interrupt
 870:../Firmware/GD32VW55x_standard_peripheral/Source/gd32vw55x_i2c.c ****       \arg        I2C_INT_TC: transfer complete interrupt
 871:../Firmware/GD32VW55x_standard_peripheral/Source/gd32vw55x_i2c.c ****       \arg        I2C_INT_STPDET: stop detection interrupt
 872:../Firmware/GD32VW55x_standard_peripheral/Source/gd32vw55x_i2c.c ****       \arg        I2C_INT_NACK: not acknowledge received interrupt
 873:../Firmware/GD32VW55x_standard_peripheral/Source/gd32vw55x_i2c.c ****       \arg        I2C_INT_ADDM: address match interrupt
 874:../Firmware/GD32VW55x_standard_peripheral/Source/gd32vw55x_i2c.c ****       \arg        I2C_INT_RBNE: receive interrupt
 875:../Firmware/GD32VW55x_standard_peripheral/Source/gd32vw55x_i2c.c ****       \arg        I2C_INT_TI: transmit interrupt
 876:../Firmware/GD32VW55x_standard_peripheral/Source/gd32vw55x_i2c.c ****     \param[out] none
 877:../Firmware/GD32VW55x_standard_peripheral/Source/gd32vw55x_i2c.c ****     \retval     none
 878:../Firmware/GD32VW55x_standard_peripheral/Source/gd32vw55x_i2c.c **** */
 879:../Firmware/GD32VW55x_standard_peripheral/Source/gd32vw55x_i2c.c **** void i2c_interrupt_enable(uint32_t i2c_periph, uint32_t interrupt)
 880:../Firmware/GD32VW55x_standard_peripheral/Source/gd32vw55x_i2c.c **** {
 2398              		.loc 1 880 1
 2399              		.cfi_startproc
 2400 0000 0111     		addi	sp,sp,-32
 2401              		.cfi_def_cfa_offset 32
 2402 0002 22CE     		sw	s0,28(sp)
 2403              		.cfi_offset 8, -4
 2404 0004 0010     		addi	s0,sp,32
 2405              		.cfi_def_cfa 8, 0
 2406 0006 2326A4FE 		sw	a0,-20(s0)
 2407 000a 2324B4FE 		sw	a1,-24(s0)
 881:../Firmware/GD32VW55x_standard_peripheral/Source/gd32vw55x_i2c.c ****     I2C_CTL0(i2c_periph) |= interrupt;
 2408              		.loc 1 881 26
 2409 000e 8327C4FE 		lw	a5,-20(s0)
 2410 0012 9443     		lw	a3,0(a5)
 2411 0014 8327C4FE 		lw	a5,-20(s0)
 2412 0018 032784FE 		lw	a4,-24(s0)
 2413 001c 558F     		or	a4,a3,a4
 2414 001e 98C3     		sw	a4,0(a5)
 882:../Firmware/GD32VW55x_standard_peripheral/Source/gd32vw55x_i2c.c **** }
 2415              		.loc 1 882 1
 2416 0020 0100     		nop
 2417 0022 7244     		lw	s0,28(sp)
 2418              		.cfi_restore 8
 2419              		.cfi_def_cfa 2, 32
 2420 0024 0561     		addi	sp,sp,32
 2421              		.cfi_def_cfa_offset 0
 2422 0026 8280     		jr	ra
 2423              		.cfi_endproc
 2424              	.LFE406:
 2426              		.section	.text.i2c_interrupt_disable,"ax",@progbits
 2427              		.align	1
 2428              		.globl	i2c_interrupt_disable
 2430              	i2c_interrupt_disable:
 2431              	.LFB407:
 883:../Firmware/GD32VW55x_standard_peripheral/Source/gd32vw55x_i2c.c **** 
 884:../Firmware/GD32VW55x_standard_peripheral/Source/gd32vw55x_i2c.c **** /*!
 885:../Firmware/GD32VW55x_standard_peripheral/Source/gd32vw55x_i2c.c ****     \brief      disable I2C interrupt
 886:../Firmware/GD32VW55x_standard_peripheral/Source/gd32vw55x_i2c.c ****     \param[in]  i2c_periph: I2Cx(x=0,1)
 887:../Firmware/GD32VW55x_standard_peripheral/Source/gd32vw55x_i2c.c ****     \param[in]  interrupt: I2C interrupts
 888:../Firmware/GD32VW55x_standard_peripheral/Source/gd32vw55x_i2c.c ****                 one or more parameters can be selected which are shown as below:
 889:../Firmware/GD32VW55x_standard_peripheral/Source/gd32vw55x_i2c.c ****       \arg        I2C_INT_ERR: error interrupt
 890:../Firmware/GD32VW55x_standard_peripheral/Source/gd32vw55x_i2c.c ****       \arg        I2C_INT_TC: transfer complete interrupt
 891:../Firmware/GD32VW55x_standard_peripheral/Source/gd32vw55x_i2c.c ****       \arg        I2C_INT_STPDET: stop detection interrupt
 892:../Firmware/GD32VW55x_standard_peripheral/Source/gd32vw55x_i2c.c ****       \arg        I2C_INT_NACK: not acknowledge received interrupt
 893:../Firmware/GD32VW55x_standard_peripheral/Source/gd32vw55x_i2c.c ****       \arg        I2C_INT_ADDM: address match interrupt
 894:../Firmware/GD32VW55x_standard_peripheral/Source/gd32vw55x_i2c.c ****       \arg        I2C_INT_RBNE: receive interrupt
 895:../Firmware/GD32VW55x_standard_peripheral/Source/gd32vw55x_i2c.c ****       \arg        I2C_INT_TI: transmit interrupt
 896:../Firmware/GD32VW55x_standard_peripheral/Source/gd32vw55x_i2c.c ****     \param[out] none
 897:../Firmware/GD32VW55x_standard_peripheral/Source/gd32vw55x_i2c.c ****     \retval     none
 898:../Firmware/GD32VW55x_standard_peripheral/Source/gd32vw55x_i2c.c **** */
 899:../Firmware/GD32VW55x_standard_peripheral/Source/gd32vw55x_i2c.c **** void i2c_interrupt_disable(uint32_t i2c_periph, uint32_t interrupt)
 900:../Firmware/GD32VW55x_standard_peripheral/Source/gd32vw55x_i2c.c **** {
 2432              		.loc 1 900 1
 2433              		.cfi_startproc
 2434 0000 0111     		addi	sp,sp,-32
 2435              		.cfi_def_cfa_offset 32
 2436 0002 22CE     		sw	s0,28(sp)
 2437              		.cfi_offset 8, -4
 2438 0004 0010     		addi	s0,sp,32
 2439              		.cfi_def_cfa 8, 0
 2440 0006 2326A4FE 		sw	a0,-20(s0)
 2441 000a 2324B4FE 		sw	a1,-24(s0)
 901:../Firmware/GD32VW55x_standard_peripheral/Source/gd32vw55x_i2c.c ****     I2C_CTL0(i2c_periph) &= ~interrupt;
 2442              		.loc 1 901 26
 2443 000e 8327C4FE 		lw	a5,-20(s0)
 2444 0012 9443     		lw	a3,0(a5)
 2445              		.loc 1 901 29
 2446 0014 832784FE 		lw	a5,-24(s0)
 2447 0018 13C7F7FF 		not	a4,a5
 2448              		.loc 1 901 26
 2449 001c 8327C4FE 		lw	a5,-20(s0)
 2450 0020 758F     		and	a4,a3,a4
 2451 0022 98C3     		sw	a4,0(a5)
 902:../Firmware/GD32VW55x_standard_peripheral/Source/gd32vw55x_i2c.c **** }
 2452              		.loc 1 902 1
 2453 0024 0100     		nop
 2454 0026 7244     		lw	s0,28(sp)
 2455              		.cfi_restore 8
 2456              		.cfi_def_cfa 2, 32
 2457 0028 0561     		addi	sp,sp,32
 2458              		.cfi_def_cfa_offset 0
 2459 002a 8280     		jr	ra
 2460              		.cfi_endproc
 2461              	.LFE407:
 2463              		.section	.text.i2c_interrupt_flag_get,"ax",@progbits
 2464              		.align	1
 2465              		.globl	i2c_interrupt_flag_get
 2467              	i2c_interrupt_flag_get:
 2468              	.LFB408:
 903:../Firmware/GD32VW55x_standard_peripheral/Source/gd32vw55x_i2c.c **** 
 904:../Firmware/GD32VW55x_standard_peripheral/Source/gd32vw55x_i2c.c **** /*!
 905:../Firmware/GD32VW55x_standard_peripheral/Source/gd32vw55x_i2c.c ****     \brief      get I2C interrupt flag status
 906:../Firmware/GD32VW55x_standard_peripheral/Source/gd32vw55x_i2c.c ****     \param[in]  i2c_periph: I2Cx(x=0,1)
 907:../Firmware/GD32VW55x_standard_peripheral/Source/gd32vw55x_i2c.c ****     \param[in]  int_flag: I2C interrupt flags, refer to i2c_interrupt_flag_enum
 908:../Firmware/GD32VW55x_standard_peripheral/Source/gd32vw55x_i2c.c ****                 only one parameter can be selected which is shown as below:
 909:../Firmware/GD32VW55x_standard_peripheral/Source/gd32vw55x_i2c.c ****       \arg        I2C_INT_FLAG_TI: transmit interrupt flag
 910:../Firmware/GD32VW55x_standard_peripheral/Source/gd32vw55x_i2c.c ****       \arg        I2C_INT_FLAG_RBNE: I2C_RDATA is not empty during receiving interrupt flag
 911:../Firmware/GD32VW55x_standard_peripheral/Source/gd32vw55x_i2c.c ****       \arg        I2C_INT_FLAG_ADDSEND: address received matches in slave mode interrupt flag
 912:../Firmware/GD32VW55x_standard_peripheral/Source/gd32vw55x_i2c.c ****       \arg        I2C_INT_FLAG_NACK: not acknowledge interrupt flag
 913:../Firmware/GD32VW55x_standard_peripheral/Source/gd32vw55x_i2c.c ****       \arg        I2C_INT_FLAG_STPDET: stop condition detected in slave mode interrupt flag
 914:../Firmware/GD32VW55x_standard_peripheral/Source/gd32vw55x_i2c.c ****       \arg        I2C_INT_FLAG_TC: transfer complete in master mode interrupt flag
 915:../Firmware/GD32VW55x_standard_peripheral/Source/gd32vw55x_i2c.c ****       \arg        I2C_INT_FLAG_TCR: transfer complete reload interrupt flag
 916:../Firmware/GD32VW55x_standard_peripheral/Source/gd32vw55x_i2c.c ****       \arg        I2C_INT_FLAG_BERR: bus error interrupt flag
 917:../Firmware/GD32VW55x_standard_peripheral/Source/gd32vw55x_i2c.c ****       \arg        I2C_INT_FLAG_LOSTARB: arbitration lost interrupt flag
 918:../Firmware/GD32VW55x_standard_peripheral/Source/gd32vw55x_i2c.c ****       \arg        I2C_INT_FLAG_OUERR: overrun/underrun error in slave mode interrupt flag
 919:../Firmware/GD32VW55x_standard_peripheral/Source/gd32vw55x_i2c.c ****       \arg        I2C_INT_FLAG_PECERR: PEC error interrupt flag
 920:../Firmware/GD32VW55x_standard_peripheral/Source/gd32vw55x_i2c.c ****       \arg        I2C_INT_FLAG_TIMEOUT: timeout interrupt flag
 921:../Firmware/GD32VW55x_standard_peripheral/Source/gd32vw55x_i2c.c ****       \arg        I2C_INT_FLAG_SMBALT: SMBus Alert interrupt flag
 922:../Firmware/GD32VW55x_standard_peripheral/Source/gd32vw55x_i2c.c ****     \param[out] none
 923:../Firmware/GD32VW55x_standard_peripheral/Source/gd32vw55x_i2c.c ****     \retval     FlagStatus: SET or RESET
 924:../Firmware/GD32VW55x_standard_peripheral/Source/gd32vw55x_i2c.c **** */
 925:../Firmware/GD32VW55x_standard_peripheral/Source/gd32vw55x_i2c.c **** FlagStatus i2c_interrupt_flag_get(uint32_t i2c_periph, i2c_interrupt_flag_enum int_flag)
 926:../Firmware/GD32VW55x_standard_peripheral/Source/gd32vw55x_i2c.c **** {
 2469              		.loc 1 926 1
 2470              		.cfi_startproc
 2471 0000 7971     		addi	sp,sp,-48
 2472              		.cfi_def_cfa_offset 48
 2473 0002 22D6     		sw	s0,44(sp)
 2474              		.cfi_offset 8, -4
 2475 0004 0018     		addi	s0,sp,48
 2476              		.cfi_def_cfa 8, 0
 2477 0006 232EA4FC 		sw	a0,-36(s0)
 2478 000a 232CB4FC 		sw	a1,-40(s0)
 927:../Firmware/GD32VW55x_standard_peripheral/Source/gd32vw55x_i2c.c ****     uint32_t ret1 = RESET;
 2479              		.loc 1 927 14
 2480 000e 232604FE 		sw	zero,-20(s0)
 928:../Firmware/GD32VW55x_standard_peripheral/Source/gd32vw55x_i2c.c ****     uint32_t ret2 = RESET;
 2481              		.loc 1 928 14
 2482 0012 232404FE 		sw	zero,-24(s0)
 929:../Firmware/GD32VW55x_standard_peripheral/Source/gd32vw55x_i2c.c **** 
 930:../Firmware/GD32VW55x_standard_peripheral/Source/gd32vw55x_i2c.c ****     /* get the status of interrupt enable bit */
 931:../Firmware/GD32VW55x_standard_peripheral/Source/gd32vw55x_i2c.c ****     ret1 = (I2C_REG_VAL(i2c_periph, int_flag) & BIT(I2C_BIT_POS(int_flag)));
 2483              		.loc 1 931 13
 2484 0016 832784FD 		lw	a5,-40(s0)
 2485 001a 9983     		srli	a5,a5,6
 2486 001c 13F7F73F 		andi	a4,a5,1023
 2487 0020 8327C4FD 		lw	a5,-36(s0)
 2488 0024 BA97     		add	a5,a4,a5
 2489 0026 9843     		lw	a4,0(a5)
 2490              		.loc 1 931 49
 2491 0028 832784FD 		lw	a5,-40(s0)
 2492 002c FD8B     		andi	a5,a5,31
 2493 002e 8546     		li	a3,1
 2494 0030 B397F600 		sll	a5,a3,a5
 2495              		.loc 1 931 10
 2496 0034 F98F     		and	a5,a4,a5
 2497 0036 2326F4FE 		sw	a5,-20(s0)
 932:../Firmware/GD32VW55x_standard_peripheral/Source/gd32vw55x_i2c.c ****     /* get the status of interrupt flag */
 933:../Firmware/GD32VW55x_standard_peripheral/Source/gd32vw55x_i2c.c ****     ret2 = (I2C_REG_VAL2(i2c_periph, int_flag) & BIT(I2C_BIT_POS2(int_flag)));
 2498              		.loc 1 933 13
 2499 003a 832784FD 		lw	a5,-40(s0)
 2500 003e 13D76701 		srli	a4,a5,22
 2501 0042 8327C4FD 		lw	a5,-36(s0)
 2502 0046 BA97     		add	a5,a4,a5
 2503 0048 9843     		lw	a4,0(a5)
 2504              		.loc 1 933 50
 2505 004a 832784FD 		lw	a5,-40(s0)
 2506 004e C183     		srli	a5,a5,16
 2507 0050 FD8B     		andi	a5,a5,31
 2508 0052 8546     		li	a3,1
 2509 0054 B397F600 		sll	a5,a3,a5
 2510              		.loc 1 933 10
 2511 0058 F98F     		and	a5,a4,a5
 2512 005a 2324F4FE 		sw	a5,-24(s0)
 934:../Firmware/GD32VW55x_standard_peripheral/Source/gd32vw55x_i2c.c ****     if(ret1 && ret2){
 2513              		.loc 1 934 7
 2514 005e 8327C4FE 		lw	a5,-20(s0)
 2515 0062 91C7     		beq	a5,zero,.L78
 2516              		.loc 1 934 13 discriminator 1
 2517 0064 832784FE 		lw	a5,-24(s0)
 2518 0068 99C3     		beq	a5,zero,.L78
 935:../Firmware/GD32VW55x_standard_peripheral/Source/gd32vw55x_i2c.c ****         return SET;
 2519              		.loc 1 935 16
 2520 006a 8547     		li	a5,1
 2521 006c 11A0     		j	.L79
 2522              	.L78:
 936:../Firmware/GD32VW55x_standard_peripheral/Source/gd32vw55x_i2c.c ****     }else{
 937:../Firmware/GD32VW55x_standard_peripheral/Source/gd32vw55x_i2c.c ****         return RESET;
 2523              		.loc 1 937 16
 2524 006e 8147     		li	a5,0
 2525              	.L79:
 938:../Firmware/GD32VW55x_standard_peripheral/Source/gd32vw55x_i2c.c ****     }
 939:../Firmware/GD32VW55x_standard_peripheral/Source/gd32vw55x_i2c.c **** }
 2526              		.loc 1 939 1
 2527 0070 3E85     		mv	a0,a5
 2528 0072 3254     		lw	s0,44(sp)
 2529              		.cfi_restore 8
 2530              		.cfi_def_cfa 2, 48
 2531 0074 4561     		addi	sp,sp,48
 2532              		.cfi_def_cfa_offset 0
 2533 0076 8280     		jr	ra
 2534              		.cfi_endproc
 2535              	.LFE408:
 2537              		.section	.text.i2c_interrupt_flag_clear,"ax",@progbits
 2538              		.align	1
 2539              		.globl	i2c_interrupt_flag_clear
 2541              	i2c_interrupt_flag_clear:
 2542              	.LFB409:
 940:../Firmware/GD32VW55x_standard_peripheral/Source/gd32vw55x_i2c.c **** 
 941:../Firmware/GD32VW55x_standard_peripheral/Source/gd32vw55x_i2c.c **** /*!
 942:../Firmware/GD32VW55x_standard_peripheral/Source/gd32vw55x_i2c.c ****     \brief      clear I2C interrupt flag status
 943:../Firmware/GD32VW55x_standard_peripheral/Source/gd32vw55x_i2c.c ****     \param[in]  i2c_periph: I2Cx(x=0,1)
 944:../Firmware/GD32VW55x_standard_peripheral/Source/gd32vw55x_i2c.c ****     \param[in]  int_flag: I2C interrupt flags, refer to i2c_interrupt_flag_enum
 945:../Firmware/GD32VW55x_standard_peripheral/Source/gd32vw55x_i2c.c ****                 only one parameter can be selected which is shown as below:
 946:../Firmware/GD32VW55x_standard_peripheral/Source/gd32vw55x_i2c.c ****       \arg        I2C_INT_FLAG_ADDSEND: address received matches in slave mode interrupt flag
 947:../Firmware/GD32VW55x_standard_peripheral/Source/gd32vw55x_i2c.c ****       \arg        I2C_INT_FLAG_NACK: not acknowledge interrupt flag
 948:../Firmware/GD32VW55x_standard_peripheral/Source/gd32vw55x_i2c.c ****       \arg        I2C_INT_FLAG_STPDET: stop condition detected in slave mode interrupt flag
 949:../Firmware/GD32VW55x_standard_peripheral/Source/gd32vw55x_i2c.c ****       \arg        I2C_INT_FLAG_BERR: bus error interrupt flag
 950:../Firmware/GD32VW55x_standard_peripheral/Source/gd32vw55x_i2c.c ****       \arg        I2C_INT_FLAG_LOSTARB: arbitration lost interrupt flag
 951:../Firmware/GD32VW55x_standard_peripheral/Source/gd32vw55x_i2c.c ****       \arg        I2C_INT_FLAG_OUERR: overrun/underrun error in slave mode interrupt flag
 952:../Firmware/GD32VW55x_standard_peripheral/Source/gd32vw55x_i2c.c ****       \arg        I2C_INT_FLAG_PECERR: PEC error interrupt flag
 953:../Firmware/GD32VW55x_standard_peripheral/Source/gd32vw55x_i2c.c ****       \arg        I2C_INT_FLAG_TIMEOUT: timeout interrupt flag
 954:../Firmware/GD32VW55x_standard_peripheral/Source/gd32vw55x_i2c.c ****       \arg        I2C_INT_FLAG_SMBALT: SMBus Alert interrupt flag
 955:../Firmware/GD32VW55x_standard_peripheral/Source/gd32vw55x_i2c.c ****     \param[out] none
 956:../Firmware/GD32VW55x_standard_peripheral/Source/gd32vw55x_i2c.c ****     \retval     none
 957:../Firmware/GD32VW55x_standard_peripheral/Source/gd32vw55x_i2c.c **** */
 958:../Firmware/GD32VW55x_standard_peripheral/Source/gd32vw55x_i2c.c **** void i2c_interrupt_flag_clear(uint32_t i2c_periph, i2c_interrupt_flag_enum int_flag)
 959:../Firmware/GD32VW55x_standard_peripheral/Source/gd32vw55x_i2c.c **** {
 2543              		.loc 1 959 1
 2544              		.cfi_startproc
 2545 0000 0111     		addi	sp,sp,-32
 2546              		.cfi_def_cfa_offset 32
 2547 0002 22CE     		sw	s0,28(sp)
 2548              		.cfi_offset 8, -4
 2549 0004 0010     		addi	s0,sp,32
 2550              		.cfi_def_cfa 8, 0
 2551 0006 2326A4FE 		sw	a0,-20(s0)
 2552 000a 2324B4FE 		sw	a1,-24(s0)
 960:../Firmware/GD32VW55x_standard_peripheral/Source/gd32vw55x_i2c.c ****     I2C_STATC(i2c_periph) |= BIT(I2C_BIT_POS2(int_flag));
 2553              		.loc 1 960 27
 2554 000e 8327C4FE 		lw	a5,-20(s0)
 2555 0012 F107     		addi	a5,a5,28
 2556 0014 9843     		lw	a4,0(a5)
 2557              		.loc 1 960 30
 2558 0016 832784FE 		lw	a5,-24(s0)
 2559 001a C183     		srli	a5,a5,16
 2560 001c FD8B     		andi	a5,a5,31
 2561 001e 8546     		li	a3,1
 2562 0020 B397F600 		sll	a5,a3,a5
 2563              		.loc 1 960 27
 2564 0024 8326C4FE 		lw	a3,-20(s0)
 2565 0028 F106     		addi	a3,a3,28
 2566 002a D98F     		or	a5,a4,a5
 2567 002c 9CC2     		sw	a5,0(a3)
 961:../Firmware/GD32VW55x_standard_peripheral/Source/gd32vw55x_i2c.c **** }
 2568              		.loc 1 961 1
 2569 002e 0100     		nop
 2570 0030 7244     		lw	s0,28(sp)
 2571              		.cfi_restore 8
 2572              		.cfi_def_cfa 2, 32
 2573 0032 0561     		addi	sp,sp,32
 2574              		.cfi_def_cfa_offset 0
 2575 0034 8280     		jr	ra
 2576              		.cfi_endproc
 2577              	.LFE409:
 2579              		.text
 2580              	.Letext0:
 2581              		.file 2 "e:\\gd32\\gd32embeddedbuilder_v1.5.2.30854\\tools\\nuclei_riscv_newlibc_prebuilt_win32_20
 2582              		.file 3 "e:\\gd32\\gd32embeddedbuilder_v1.5.2.30854\\tools\\nuclei_riscv_newlibc_prebuilt_win32_20
 2583              		.file 4 "../Firmware/GD32VW55x_standard_peripheral/gd32vw55x.h"
 2584              		.file 5 "../Firmware/GD32VW55x_standard_peripheral/Include/gd32vw55x_rcu.h"
 2585              		.file 6 "../Firmware/GD32VW55x_standard_peripheral/Include/gd32vw55x_i2c.h"
DEFINED SYMBOLS
                            *ABS*:0000000000000000 gd32vw55x_i2c.c
C:\Users\CYMR90~1\AppData\Local\Temp\cchoDgth.s:13     .text.i2c_deinit:0000000000000000 i2c_deinit
C:\Users\CYMR90~1\AppData\Local\Temp\cchoDgth.s:17     .text.i2c_deinit:0000000000000000 .L0 
C:\Users\CYMR90~1\AppData\Local\Temp\cchoDgth.s:18     .text.i2c_deinit:0000000000000000 .L0 
C:\Users\CYMR90~1\AppData\Local\Temp\cchoDgth.s:19     .text.i2c_deinit:0000000000000002 .L0 
C:\Users\CYMR90~1\AppData\Local\Temp\cchoDgth.s:22     .text.i2c_deinit:0000000000000006 .L0 
C:\Users\CYMR90~1\AppData\Local\Temp\cchoDgth.s:23     .text.i2c_deinit:0000000000000006 .L0 
C:\Users\CYMR90~1\AppData\Local\Temp\cchoDgth.s:25     .text.i2c_deinit:0000000000000008 .L0 
C:\Users\CYMR90~1\AppData\Local\Temp\cchoDgth.s:28     .text.i2c_deinit:000000000000000c .L0 
C:\Users\CYMR90~1\AppData\Local\Temp\cchoDgth.s:37     .text.i2c_deinit:000000000000002c .L0 
C:\Users\CYMR90~1\AppData\Local\Temp\cchoDgth.s:40     .text.i2c_deinit:000000000000002e .L0 
C:\Users\CYMR90~1\AppData\Local\Temp\cchoDgth.s:44     .text.i2c_deinit:000000000000003c .L0 
C:\Users\CYMR90~1\AppData\Local\Temp\cchoDgth.s:48     .text.i2c_deinit:000000000000004a .L0 
C:\Users\CYMR90~1\AppData\Local\Temp\cchoDgth.s:51     .text.i2c_deinit:000000000000004c .L0 
C:\Users\CYMR90~1\AppData\Local\Temp\cchoDgth.s:55     .text.i2c_deinit:000000000000005a .L0 
C:\Users\CYMR90~1\AppData\Local\Temp\cchoDgth.s:59     .text.i2c_deinit:0000000000000068 .L0 
C:\Users\CYMR90~1\AppData\Local\Temp\cchoDgth.s:62     .text.i2c_deinit:000000000000006a .L0 
C:\Users\CYMR90~1\AppData\Local\Temp\cchoDgth.s:64     .text.i2c_deinit:000000000000006e .L0 
C:\Users\CYMR90~1\AppData\Local\Temp\cchoDgth.s:66     .text.i2c_deinit:0000000000000070 .L0 
C:\Users\CYMR90~1\AppData\Local\Temp\cchoDgth.s:67     .text.i2c_deinit:0000000000000070 .L0 
C:\Users\CYMR90~1\AppData\Local\Temp\cchoDgth.s:69     .text.i2c_deinit:0000000000000072 .L0 
C:\Users\CYMR90~1\AppData\Local\Temp\cchoDgth.s:71     .text.i2c_deinit:0000000000000074 .L0 
C:\Users\CYMR90~1\AppData\Local\Temp\cchoDgth.s:78     .text.i2c_timing_config:0000000000000000 i2c_timing_config
C:\Users\CYMR90~1\AppData\Local\Temp\cchoDgth.s:81     .text.i2c_timing_config:0000000000000000 .L0 
C:\Users\CYMR90~1\AppData\Local\Temp\cchoDgth.s:82     .text.i2c_timing_config:0000000000000000 .L0 
C:\Users\CYMR90~1\AppData\Local\Temp\cchoDgth.s:83     .text.i2c_timing_config:0000000000000002 .L0 
C:\Users\CYMR90~1\AppData\Local\Temp\cchoDgth.s:85     .text.i2c_timing_config:0000000000000004 .L0 
C:\Users\CYMR90~1\AppData\Local\Temp\cchoDgth.s:87     .text.i2c_timing_config:0000000000000006 .L0 
C:\Users\CYMR90~1\AppData\Local\Temp\cchoDgth.s:93     .text.i2c_timing_config:0000000000000016 .L0 
C:\Users\CYMR90~1\AppData\Local\Temp\cchoDgth.s:104    .text.i2c_timing_config:0000000000000030 .L0 
C:\Users\CYMR90~1\AppData\Local\Temp\cchoDgth.s:115    .text.i2c_timing_config:000000000000004a .L0 
C:\Users\CYMR90~1\AppData\Local\Temp\cchoDgth.s:126    .text.i2c_timing_config:0000000000000064 .L0 
C:\Users\CYMR90~1\AppData\Local\Temp\cchoDgth.s:130    .text.i2c_timing_config:000000000000006e .L0 
C:\Users\CYMR90~1\AppData\Local\Temp\cchoDgth.s:133    .text.i2c_timing_config:0000000000000076 .L0 
C:\Users\CYMR90~1\AppData\Local\Temp\cchoDgth.s:137    .text.i2c_timing_config:0000000000000080 .L0 
C:\Users\CYMR90~1\AppData\Local\Temp\cchoDgth.s:140    .text.i2c_timing_config:0000000000000088 .L0 
C:\Users\CYMR90~1\AppData\Local\Temp\cchoDgth.s:144    .text.i2c_timing_config:0000000000000092 .L0 
C:\Users\CYMR90~1\AppData\Local\Temp\cchoDgth.s:148    .text.i2c_timing_config:000000000000009a .L0 
C:\Users\CYMR90~1\AppData\Local\Temp\cchoDgth.s:152    .text.i2c_timing_config:00000000000000a4 .L0 
C:\Users\CYMR90~1\AppData\Local\Temp\cchoDgth.s:155    .text.i2c_timing_config:00000000000000aa .L0 
C:\Users\CYMR90~1\AppData\Local\Temp\cchoDgth.s:160    .text.i2c_timing_config:00000000000000b4 .L0 
C:\Users\CYMR90~1\AppData\Local\Temp\cchoDgth.s:162    .text.i2c_timing_config:00000000000000b8 .L0 
C:\Users\CYMR90~1\AppData\Local\Temp\cchoDgth.s:163    .text.i2c_timing_config:00000000000000b8 .L0 
C:\Users\CYMR90~1\AppData\Local\Temp\cchoDgth.s:165    .text.i2c_timing_config:00000000000000ba .L0 
C:\Users\CYMR90~1\AppData\Local\Temp\cchoDgth.s:167    .text.i2c_timing_config:00000000000000bc .L0 
C:\Users\CYMR90~1\AppData\Local\Temp\cchoDgth.s:174    .text.i2c_digital_noise_filter_config:0000000000000000 i2c_digital_noise_filter_config
C:\Users\CYMR90~1\AppData\Local\Temp\cchoDgth.s:177    .text.i2c_digital_noise_filter_config:0000000000000000 .L0 
C:\Users\CYMR90~1\AppData\Local\Temp\cchoDgth.s:178    .text.i2c_digital_noise_filter_config:0000000000000000 .L0 
C:\Users\CYMR90~1\AppData\Local\Temp\cchoDgth.s:179    .text.i2c_digital_noise_filter_config:0000000000000002 .L0 
C:\Users\CYMR90~1\AppData\Local\Temp\cchoDgth.s:181    .text.i2c_digital_noise_filter_config:0000000000000004 .L0 
C:\Users\CYMR90~1\AppData\Local\Temp\cchoDgth.s:183    .text.i2c_digital_noise_filter_config:0000000000000006 .L0 
C:\Users\CYMR90~1\AppData\Local\Temp\cchoDgth.s:187    .text.i2c_digital_noise_filter_config:000000000000000e .L0 
C:\Users\CYMR90~1\AppData\Local\Temp\cchoDgth.s:195    .text.i2c_digital_noise_filter_config:0000000000000022 .L0 
C:\Users\CYMR90~1\AppData\Local\Temp\cchoDgth.s:198    .text.i2c_digital_noise_filter_config:0000000000000028 .L0 
C:\Users\CYMR90~1\AppData\Local\Temp\cchoDgth.s:201    .text.i2c_digital_noise_filter_config:0000000000000030 .L0 
C:\Users\CYMR90~1\AppData\Local\Temp\cchoDgth.s:205    .text.i2c_digital_noise_filter_config:0000000000000038 .L0 
C:\Users\CYMR90~1\AppData\Local\Temp\cchoDgth.s:207    .text.i2c_digital_noise_filter_config:000000000000003c .L0 
C:\Users\CYMR90~1\AppData\Local\Temp\cchoDgth.s:208    .text.i2c_digital_noise_filter_config:000000000000003c .L0 
C:\Users\CYMR90~1\AppData\Local\Temp\cchoDgth.s:210    .text.i2c_digital_noise_filter_config:000000000000003e .L0 
C:\Users\CYMR90~1\AppData\Local\Temp\cchoDgth.s:212    .text.i2c_digital_noise_filter_config:0000000000000040 .L0 
C:\Users\CYMR90~1\AppData\Local\Temp\cchoDgth.s:219    .text.i2c_analog_noise_filter_enable:0000000000000000 i2c_analog_noise_filter_enable
C:\Users\CYMR90~1\AppData\Local\Temp\cchoDgth.s:222    .text.i2c_analog_noise_filter_enable:0000000000000000 .L0 
C:\Users\CYMR90~1\AppData\Local\Temp\cchoDgth.s:223    .text.i2c_analog_noise_filter_enable:0000000000000000 .L0 
C:\Users\CYMR90~1\AppData\Local\Temp\cchoDgth.s:224    .text.i2c_analog_noise_filter_enable:0000000000000002 .L0 
C:\Users\CYMR90~1\AppData\Local\Temp\cchoDgth.s:226    .text.i2c_analog_noise_filter_enable:0000000000000004 .L0 
C:\Users\CYMR90~1\AppData\Local\Temp\cchoDgth.s:228    .text.i2c_analog_noise_filter_enable:0000000000000006 .L0 
C:\Users\CYMR90~1\AppData\Local\Temp\cchoDgth.s:231    .text.i2c_analog_noise_filter_enable:000000000000000a .L0 
C:\Users\CYMR90~1\AppData\Local\Temp\cchoDgth.s:239    .text.i2c_analog_noise_filter_enable:000000000000001c .L0 
C:\Users\CYMR90~1\AppData\Local\Temp\cchoDgth.s:241    .text.i2c_analog_noise_filter_enable:0000000000000020 .L0 
C:\Users\CYMR90~1\AppData\Local\Temp\cchoDgth.s:242    .text.i2c_analog_noise_filter_enable:0000000000000020 .L0 
C:\Users\CYMR90~1\AppData\Local\Temp\cchoDgth.s:244    .text.i2c_analog_noise_filter_enable:0000000000000022 .L0 
C:\Users\CYMR90~1\AppData\Local\Temp\cchoDgth.s:246    .text.i2c_analog_noise_filter_enable:0000000000000024 .L0 
C:\Users\CYMR90~1\AppData\Local\Temp\cchoDgth.s:253    .text.i2c_analog_noise_filter_disable:0000000000000000 i2c_analog_noise_filter_disable
C:\Users\CYMR90~1\AppData\Local\Temp\cchoDgth.s:256    .text.i2c_analog_noise_filter_disable:0000000000000000 .L0 
C:\Users\CYMR90~1\AppData\Local\Temp\cchoDgth.s:257    .text.i2c_analog_noise_filter_disable:0000000000000000 .L0 
C:\Users\CYMR90~1\AppData\Local\Temp\cchoDgth.s:258    .text.i2c_analog_noise_filter_disable:0000000000000002 .L0 
C:\Users\CYMR90~1\AppData\Local\Temp\cchoDgth.s:260    .text.i2c_analog_noise_filter_disable:0000000000000004 .L0 
C:\Users\CYMR90~1\AppData\Local\Temp\cchoDgth.s:262    .text.i2c_analog_noise_filter_disable:0000000000000006 .L0 
C:\Users\CYMR90~1\AppData\Local\Temp\cchoDgth.s:265    .text.i2c_analog_noise_filter_disable:000000000000000a .L0 
C:\Users\CYMR90~1\AppData\Local\Temp\cchoDgth.s:272    .text.i2c_analog_noise_filter_disable:000000000000001a .L0 
C:\Users\CYMR90~1\AppData\Local\Temp\cchoDgth.s:274    .text.i2c_analog_noise_filter_disable:000000000000001e .L0 
C:\Users\CYMR90~1\AppData\Local\Temp\cchoDgth.s:275    .text.i2c_analog_noise_filter_disable:000000000000001e .L0 
C:\Users\CYMR90~1\AppData\Local\Temp\cchoDgth.s:277    .text.i2c_analog_noise_filter_disable:0000000000000020 .L0 
C:\Users\CYMR90~1\AppData\Local\Temp\cchoDgth.s:279    .text.i2c_analog_noise_filter_disable:0000000000000022 .L0 
C:\Users\CYMR90~1\AppData\Local\Temp\cchoDgth.s:286    .text.i2c_master_clock_config:0000000000000000 i2c_master_clock_config
C:\Users\CYMR90~1\AppData\Local\Temp\cchoDgth.s:289    .text.i2c_master_clock_config:0000000000000000 .L0 
C:\Users\CYMR90~1\AppData\Local\Temp\cchoDgth.s:290    .text.i2c_master_clock_config:0000000000000000 .L0 
C:\Users\CYMR90~1\AppData\Local\Temp\cchoDgth.s:291    .text.i2c_master_clock_config:0000000000000002 .L0 
C:\Users\CYMR90~1\AppData\Local\Temp\cchoDgth.s:293    .text.i2c_master_clock_config:0000000000000004 .L0 
C:\Users\CYMR90~1\AppData\Local\Temp\cchoDgth.s:295    .text.i2c_master_clock_config:0000000000000006 .L0 
C:\Users\CYMR90~1\AppData\Local\Temp\cchoDgth.s:300    .text.i2c_master_clock_config:0000000000000012 .L0 
C:\Users\CYMR90~1\AppData\Local\Temp\cchoDgth.s:311    .text.i2c_master_clock_config:000000000000002c .L0 
C:\Users\CYMR90~1\AppData\Local\Temp\cchoDgth.s:319    .text.i2c_master_clock_config:0000000000000040 .L0 
C:\Users\CYMR90~1\AppData\Local\Temp\cchoDgth.s:322    .text.i2c_master_clock_config:0000000000000048 .L0 
C:\Users\CYMR90~1\AppData\Local\Temp\cchoDgth.s:327    .text.i2c_master_clock_config:0000000000000052 .L0 
C:\Users\CYMR90~1\AppData\Local\Temp\cchoDgth.s:331    .text.i2c_master_clock_config:000000000000005e .L0 
C:\Users\CYMR90~1\AppData\Local\Temp\cchoDgth.s:335    .text.i2c_master_clock_config:0000000000000066 .L0 
C:\Users\CYMR90~1\AppData\Local\Temp\cchoDgth.s:339    .text.i2c_master_clock_config:0000000000000070 .L0 
C:\Users\CYMR90~1\AppData\Local\Temp\cchoDgth.s:344    .text.i2c_master_clock_config:000000000000007a .L0 
C:\Users\CYMR90~1\AppData\Local\Temp\cchoDgth.s:346    .text.i2c_master_clock_config:000000000000007e .L0 
C:\Users\CYMR90~1\AppData\Local\Temp\cchoDgth.s:347    .text.i2c_master_clock_config:000000000000007e .L0 
C:\Users\CYMR90~1\AppData\Local\Temp\cchoDgth.s:349    .text.i2c_master_clock_config:0000000000000080 .L0 
C:\Users\CYMR90~1\AppData\Local\Temp\cchoDgth.s:351    .text.i2c_master_clock_config:0000000000000082 .L0 
C:\Users\CYMR90~1\AppData\Local\Temp\cchoDgth.s:358    .text.i2c_master_addressing:0000000000000000 i2c_master_addressing
C:\Users\CYMR90~1\AppData\Local\Temp\cchoDgth.s:361    .text.i2c_master_addressing:0000000000000000 .L0 
C:\Users\CYMR90~1\AppData\Local\Temp\cchoDgth.s:362    .text.i2c_master_addressing:0000000000000000 .L0 
C:\Users\CYMR90~1\AppData\Local\Temp\cchoDgth.s:363    .text.i2c_master_addressing:0000000000000002 .L0 
C:\Users\CYMR90~1\AppData\Local\Temp\cchoDgth.s:365    .text.i2c_master_addressing:0000000000000004 .L0 
C:\Users\CYMR90~1\AppData\Local\Temp\cchoDgth.s:367    .text.i2c_master_addressing:0000000000000006 .L0 
C:\Users\CYMR90~1\AppData\Local\Temp\cchoDgth.s:372    .text.i2c_master_addressing:0000000000000012 .L0 
C:\Users\CYMR90~1\AppData\Local\Temp\cchoDgth.s:380    .text.i2c_master_addressing:0000000000000026 .L0 
C:\Users\CYMR90~1\AppData\Local\Temp\cchoDgth.s:390    .text.i2c_master_addressing:000000000000003e .L0 
C:\Users\CYMR90~1\AppData\Local\Temp\cchoDgth.s:398    .text.i2c_master_addressing:0000000000000052 .L0 
C:\Users\CYMR90~1\AppData\Local\Temp\cchoDgth.s:408    .text.i2c_master_addressing:000000000000006a .L0 
C:\Users\CYMR90~1\AppData\Local\Temp\cchoDgth.s:410    .text.i2c_master_addressing:000000000000006e .L0 
C:\Users\CYMR90~1\AppData\Local\Temp\cchoDgth.s:411    .text.i2c_master_addressing:000000000000006e .L0 
C:\Users\CYMR90~1\AppData\Local\Temp\cchoDgth.s:413    .text.i2c_master_addressing:0000000000000070 .L0 
C:\Users\CYMR90~1\AppData\Local\Temp\cchoDgth.s:415    .text.i2c_master_addressing:0000000000000072 .L0 
C:\Users\CYMR90~1\AppData\Local\Temp\cchoDgth.s:422    .text.i2c_address10_header_enable:0000000000000000 i2c_address10_header_enable
C:\Users\CYMR90~1\AppData\Local\Temp\cchoDgth.s:425    .text.i2c_address10_header_enable:0000000000000000 .L0 
C:\Users\CYMR90~1\AppData\Local\Temp\cchoDgth.s:426    .text.i2c_address10_header_enable:0000000000000000 .L0 
C:\Users\CYMR90~1\AppData\Local\Temp\cchoDgth.s:427    .text.i2c_address10_header_enable:0000000000000002 .L0 
C:\Users\CYMR90~1\AppData\Local\Temp\cchoDgth.s:429    .text.i2c_address10_header_enable:0000000000000004 .L0 
C:\Users\CYMR90~1\AppData\Local\Temp\cchoDgth.s:431    .text.i2c_address10_header_enable:0000000000000006 .L0 
C:\Users\CYMR90~1\AppData\Local\Temp\cchoDgth.s:434    .text.i2c_address10_header_enable:000000000000000a .L0 
C:\Users\CYMR90~1\AppData\Local\Temp\cchoDgth.s:444    .text.i2c_address10_header_enable:0000000000000020 .L0 
C:\Users\CYMR90~1\AppData\Local\Temp\cchoDgth.s:446    .text.i2c_address10_header_enable:0000000000000024 .L0 
C:\Users\CYMR90~1\AppData\Local\Temp\cchoDgth.s:447    .text.i2c_address10_header_enable:0000000000000024 .L0 
C:\Users\CYMR90~1\AppData\Local\Temp\cchoDgth.s:449    .text.i2c_address10_header_enable:0000000000000026 .L0 
C:\Users\CYMR90~1\AppData\Local\Temp\cchoDgth.s:451    .text.i2c_address10_header_enable:0000000000000028 .L0 
C:\Users\CYMR90~1\AppData\Local\Temp\cchoDgth.s:458    .text.i2c_address10_header_disable:0000000000000000 i2c_address10_header_disable
C:\Users\CYMR90~1\AppData\Local\Temp\cchoDgth.s:461    .text.i2c_address10_header_disable:0000000000000000 .L0 
C:\Users\CYMR90~1\AppData\Local\Temp\cchoDgth.s:462    .text.i2c_address10_header_disable:0000000000000000 .L0 
C:\Users\CYMR90~1\AppData\Local\Temp\cchoDgth.s:463    .text.i2c_address10_header_disable:0000000000000002 .L0 
C:\Users\CYMR90~1\AppData\Local\Temp\cchoDgth.s:465    .text.i2c_address10_header_disable:0000000000000004 .L0 
C:\Users\CYMR90~1\AppData\Local\Temp\cchoDgth.s:467    .text.i2c_address10_header_disable:0000000000000006 .L0 
C:\Users\CYMR90~1\AppData\Local\Temp\cchoDgth.s:470    .text.i2c_address10_header_disable:000000000000000a .L0 
C:\Users\CYMR90~1\AppData\Local\Temp\cchoDgth.s:481    .text.i2c_address10_header_disable:0000000000000022 .L0 
C:\Users\CYMR90~1\AppData\Local\Temp\cchoDgth.s:483    .text.i2c_address10_header_disable:0000000000000026 .L0 
C:\Users\CYMR90~1\AppData\Local\Temp\cchoDgth.s:484    .text.i2c_address10_header_disable:0000000000000026 .L0 
C:\Users\CYMR90~1\AppData\Local\Temp\cchoDgth.s:486    .text.i2c_address10_header_disable:0000000000000028 .L0 
C:\Users\CYMR90~1\AppData\Local\Temp\cchoDgth.s:488    .text.i2c_address10_header_disable:000000000000002a .L0 
C:\Users\CYMR90~1\AppData\Local\Temp\cchoDgth.s:495    .text.i2c_address10_enable:0000000000000000 i2c_address10_enable
C:\Users\CYMR90~1\AppData\Local\Temp\cchoDgth.s:498    .text.i2c_address10_enable:0000000000000000 .L0 
C:\Users\CYMR90~1\AppData\Local\Temp\cchoDgth.s:499    .text.i2c_address10_enable:0000000000000000 .L0 
C:\Users\CYMR90~1\AppData\Local\Temp\cchoDgth.s:500    .text.i2c_address10_enable:0000000000000002 .L0 
C:\Users\CYMR90~1\AppData\Local\Temp\cchoDgth.s:502    .text.i2c_address10_enable:0000000000000004 .L0 
C:\Users\CYMR90~1\AppData\Local\Temp\cchoDgth.s:504    .text.i2c_address10_enable:0000000000000006 .L0 
C:\Users\CYMR90~1\AppData\Local\Temp\cchoDgth.s:507    .text.i2c_address10_enable:000000000000000a .L0 
C:\Users\CYMR90~1\AppData\Local\Temp\cchoDgth.s:518    .text.i2c_address10_enable:0000000000000024 .L0 
C:\Users\CYMR90~1\AppData\Local\Temp\cchoDgth.s:520    .text.i2c_address10_enable:0000000000000028 .L0 
C:\Users\CYMR90~1\AppData\Local\Temp\cchoDgth.s:521    .text.i2c_address10_enable:0000000000000028 .L0 
C:\Users\CYMR90~1\AppData\Local\Temp\cchoDgth.s:523    .text.i2c_address10_enable:000000000000002a .L0 
C:\Users\CYMR90~1\AppData\Local\Temp\cchoDgth.s:525    .text.i2c_address10_enable:000000000000002c .L0 
C:\Users\CYMR90~1\AppData\Local\Temp\cchoDgth.s:532    .text.i2c_address10_disable:0000000000000000 i2c_address10_disable
C:\Users\CYMR90~1\AppData\Local\Temp\cchoDgth.s:535    .text.i2c_address10_disable:0000000000000000 .L0 
C:\Users\CYMR90~1\AppData\Local\Temp\cchoDgth.s:536    .text.i2c_address10_disable:0000000000000000 .L0 
C:\Users\CYMR90~1\AppData\Local\Temp\cchoDgth.s:537    .text.i2c_address10_disable:0000000000000002 .L0 
C:\Users\CYMR90~1\AppData\Local\Temp\cchoDgth.s:539    .text.i2c_address10_disable:0000000000000004 .L0 
C:\Users\CYMR90~1\AppData\Local\Temp\cchoDgth.s:541    .text.i2c_address10_disable:0000000000000006 .L0 
C:\Users\CYMR90~1\AppData\Local\Temp\cchoDgth.s:544    .text.i2c_address10_disable:000000000000000a .L0 
C:\Users\CYMR90~1\AppData\Local\Temp\cchoDgth.s:555    .text.i2c_address10_disable:0000000000000024 .L0 
C:\Users\CYMR90~1\AppData\Local\Temp\cchoDgth.s:557    .text.i2c_address10_disable:0000000000000028 .L0 
C:\Users\CYMR90~1\AppData\Local\Temp\cchoDgth.s:558    .text.i2c_address10_disable:0000000000000028 .L0 
C:\Users\CYMR90~1\AppData\Local\Temp\cchoDgth.s:560    .text.i2c_address10_disable:000000000000002a .L0 
C:\Users\CYMR90~1\AppData\Local\Temp\cchoDgth.s:562    .text.i2c_address10_disable:000000000000002c .L0 
C:\Users\CYMR90~1\AppData\Local\Temp\cchoDgth.s:569    .text.i2c_automatic_end_enable:0000000000000000 i2c_automatic_end_enable
C:\Users\CYMR90~1\AppData\Local\Temp\cchoDgth.s:572    .text.i2c_automatic_end_enable:0000000000000000 .L0 
C:\Users\CYMR90~1\AppData\Local\Temp\cchoDgth.s:573    .text.i2c_automatic_end_enable:0000000000000000 .L0 
C:\Users\CYMR90~1\AppData\Local\Temp\cchoDgth.s:574    .text.i2c_automatic_end_enable:0000000000000002 .L0 
C:\Users\CYMR90~1\AppData\Local\Temp\cchoDgth.s:576    .text.i2c_automatic_end_enable:0000000000000004 .L0 
C:\Users\CYMR90~1\AppData\Local\Temp\cchoDgth.s:578    .text.i2c_automatic_end_enable:0000000000000006 .L0 
C:\Users\CYMR90~1\AppData\Local\Temp\cchoDgth.s:581    .text.i2c_automatic_end_enable:000000000000000a .L0 
C:\Users\CYMR90~1\AppData\Local\Temp\cchoDgth.s:591    .text.i2c_automatic_end_enable:0000000000000022 .L0 
C:\Users\CYMR90~1\AppData\Local\Temp\cchoDgth.s:593    .text.i2c_automatic_end_enable:0000000000000026 .L0 
C:\Users\CYMR90~1\AppData\Local\Temp\cchoDgth.s:594    .text.i2c_automatic_end_enable:0000000000000026 .L0 
C:\Users\CYMR90~1\AppData\Local\Temp\cchoDgth.s:596    .text.i2c_automatic_end_enable:0000000000000028 .L0 
C:\Users\CYMR90~1\AppData\Local\Temp\cchoDgth.s:598    .text.i2c_automatic_end_enable:000000000000002a .L0 
C:\Users\CYMR90~1\AppData\Local\Temp\cchoDgth.s:605    .text.i2c_automatic_end_disable:0000000000000000 i2c_automatic_end_disable
C:\Users\CYMR90~1\AppData\Local\Temp\cchoDgth.s:608    .text.i2c_automatic_end_disable:0000000000000000 .L0 
C:\Users\CYMR90~1\AppData\Local\Temp\cchoDgth.s:609    .text.i2c_automatic_end_disable:0000000000000000 .L0 
C:\Users\CYMR90~1\AppData\Local\Temp\cchoDgth.s:610    .text.i2c_automatic_end_disable:0000000000000002 .L0 
C:\Users\CYMR90~1\AppData\Local\Temp\cchoDgth.s:612    .text.i2c_automatic_end_disable:0000000000000004 .L0 
C:\Users\CYMR90~1\AppData\Local\Temp\cchoDgth.s:614    .text.i2c_automatic_end_disable:0000000000000006 .L0 
C:\Users\CYMR90~1\AppData\Local\Temp\cchoDgth.s:617    .text.i2c_automatic_end_disable:000000000000000a .L0 
C:\Users\CYMR90~1\AppData\Local\Temp\cchoDgth.s:628    .text.i2c_automatic_end_disable:0000000000000024 .L0 
C:\Users\CYMR90~1\AppData\Local\Temp\cchoDgth.s:630    .text.i2c_automatic_end_disable:0000000000000028 .L0 
C:\Users\CYMR90~1\AppData\Local\Temp\cchoDgth.s:631    .text.i2c_automatic_end_disable:0000000000000028 .L0 
C:\Users\CYMR90~1\AppData\Local\Temp\cchoDgth.s:633    .text.i2c_automatic_end_disable:000000000000002a .L0 
C:\Users\CYMR90~1\AppData\Local\Temp\cchoDgth.s:635    .text.i2c_automatic_end_disable:000000000000002c .L0 
C:\Users\CYMR90~1\AppData\Local\Temp\cchoDgth.s:642    .text.i2c_slave_response_to_gcall_enable:0000000000000000 i2c_slave_response_to_gcall_enable
C:\Users\CYMR90~1\AppData\Local\Temp\cchoDgth.s:645    .text.i2c_slave_response_to_gcall_enable:0000000000000000 .L0 
C:\Users\CYMR90~1\AppData\Local\Temp\cchoDgth.s:646    .text.i2c_slave_response_to_gcall_enable:0000000000000000 .L0 
C:\Users\CYMR90~1\AppData\Local\Temp\cchoDgth.s:647    .text.i2c_slave_response_to_gcall_enable:0000000000000002 .L0 
C:\Users\CYMR90~1\AppData\Local\Temp\cchoDgth.s:649    .text.i2c_slave_response_to_gcall_enable:0000000000000004 .L0 
C:\Users\CYMR90~1\AppData\Local\Temp\cchoDgth.s:651    .text.i2c_slave_response_to_gcall_enable:0000000000000006 .L0 
C:\Users\CYMR90~1\AppData\Local\Temp\cchoDgth.s:654    .text.i2c_slave_response_to_gcall_enable:000000000000000a .L0 
C:\Users\CYMR90~1\AppData\Local\Temp\cchoDgth.s:661    .text.i2c_slave_response_to_gcall_enable:000000000000001c .L0 
C:\Users\CYMR90~1\AppData\Local\Temp\cchoDgth.s:663    .text.i2c_slave_response_to_gcall_enable:0000000000000020 .L0 
C:\Users\CYMR90~1\AppData\Local\Temp\cchoDgth.s:664    .text.i2c_slave_response_to_gcall_enable:0000000000000020 .L0 
C:\Users\CYMR90~1\AppData\Local\Temp\cchoDgth.s:666    .text.i2c_slave_response_to_gcall_enable:0000000000000022 .L0 
C:\Users\CYMR90~1\AppData\Local\Temp\cchoDgth.s:668    .text.i2c_slave_response_to_gcall_enable:0000000000000024 .L0 
C:\Users\CYMR90~1\AppData\Local\Temp\cchoDgth.s:675    .text.i2c_slave_response_to_gcall_disable:0000000000000000 i2c_slave_response_to_gcall_disable
C:\Users\CYMR90~1\AppData\Local\Temp\cchoDgth.s:678    .text.i2c_slave_response_to_gcall_disable:0000000000000000 .L0 
C:\Users\CYMR90~1\AppData\Local\Temp\cchoDgth.s:679    .text.i2c_slave_response_to_gcall_disable:0000000000000000 .L0 
C:\Users\CYMR90~1\AppData\Local\Temp\cchoDgth.s:680    .text.i2c_slave_response_to_gcall_disable:0000000000000002 .L0 
C:\Users\CYMR90~1\AppData\Local\Temp\cchoDgth.s:682    .text.i2c_slave_response_to_gcall_disable:0000000000000004 .L0 
C:\Users\CYMR90~1\AppData\Local\Temp\cchoDgth.s:684    .text.i2c_slave_response_to_gcall_disable:0000000000000006 .L0 
C:\Users\CYMR90~1\AppData\Local\Temp\cchoDgth.s:687    .text.i2c_slave_response_to_gcall_disable:000000000000000a .L0 
C:\Users\CYMR90~1\AppData\Local\Temp\cchoDgth.s:695    .text.i2c_slave_response_to_gcall_disable:000000000000001e .L0 
C:\Users\CYMR90~1\AppData\Local\Temp\cchoDgth.s:697    .text.i2c_slave_response_to_gcall_disable:0000000000000022 .L0 
C:\Users\CYMR90~1\AppData\Local\Temp\cchoDgth.s:698    .text.i2c_slave_response_to_gcall_disable:0000000000000022 .L0 
C:\Users\CYMR90~1\AppData\Local\Temp\cchoDgth.s:700    .text.i2c_slave_response_to_gcall_disable:0000000000000024 .L0 
C:\Users\CYMR90~1\AppData\Local\Temp\cchoDgth.s:702    .text.i2c_slave_response_to_gcall_disable:0000000000000026 .L0 
C:\Users\CYMR90~1\AppData\Local\Temp\cchoDgth.s:709    .text.i2c_stretch_scl_low_enable:0000000000000000 i2c_stretch_scl_low_enable
C:\Users\CYMR90~1\AppData\Local\Temp\cchoDgth.s:712    .text.i2c_stretch_scl_low_enable:0000000000000000 .L0 
C:\Users\CYMR90~1\AppData\Local\Temp\cchoDgth.s:713    .text.i2c_stretch_scl_low_enable:0000000000000000 .L0 
C:\Users\CYMR90~1\AppData\Local\Temp\cchoDgth.s:714    .text.i2c_stretch_scl_low_enable:0000000000000002 .L0 
C:\Users\CYMR90~1\AppData\Local\Temp\cchoDgth.s:716    .text.i2c_stretch_scl_low_enable:0000000000000004 .L0 
C:\Users\CYMR90~1\AppData\Local\Temp\cchoDgth.s:718    .text.i2c_stretch_scl_low_enable:0000000000000006 .L0 
C:\Users\CYMR90~1\AppData\Local\Temp\cchoDgth.s:721    .text.i2c_stretch_scl_low_enable:000000000000000a .L0 
C:\Users\CYMR90~1\AppData\Local\Temp\cchoDgth.s:729    .text.i2c_stretch_scl_low_enable:000000000000001c .L0 
C:\Users\CYMR90~1\AppData\Local\Temp\cchoDgth.s:731    .text.i2c_stretch_scl_low_enable:0000000000000020 .L0 
C:\Users\CYMR90~1\AppData\Local\Temp\cchoDgth.s:732    .text.i2c_stretch_scl_low_enable:0000000000000020 .L0 
C:\Users\CYMR90~1\AppData\Local\Temp\cchoDgth.s:734    .text.i2c_stretch_scl_low_enable:0000000000000022 .L0 
C:\Users\CYMR90~1\AppData\Local\Temp\cchoDgth.s:736    .text.i2c_stretch_scl_low_enable:0000000000000024 .L0 
C:\Users\CYMR90~1\AppData\Local\Temp\cchoDgth.s:743    .text.i2c_stretch_scl_low_disable:0000000000000000 i2c_stretch_scl_low_disable
C:\Users\CYMR90~1\AppData\Local\Temp\cchoDgth.s:746    .text.i2c_stretch_scl_low_disable:0000000000000000 .L0 
C:\Users\CYMR90~1\AppData\Local\Temp\cchoDgth.s:747    .text.i2c_stretch_scl_low_disable:0000000000000000 .L0 
C:\Users\CYMR90~1\AppData\Local\Temp\cchoDgth.s:748    .text.i2c_stretch_scl_low_disable:0000000000000002 .L0 
C:\Users\CYMR90~1\AppData\Local\Temp\cchoDgth.s:750    .text.i2c_stretch_scl_low_disable:0000000000000004 .L0 
C:\Users\CYMR90~1\AppData\Local\Temp\cchoDgth.s:752    .text.i2c_stretch_scl_low_disable:0000000000000006 .L0 
C:\Users\CYMR90~1\AppData\Local\Temp\cchoDgth.s:755    .text.i2c_stretch_scl_low_disable:000000000000000a .L0 
C:\Users\CYMR90~1\AppData\Local\Temp\cchoDgth.s:762    .text.i2c_stretch_scl_low_disable:000000000000001c .L0 
C:\Users\CYMR90~1\AppData\Local\Temp\cchoDgth.s:764    .text.i2c_stretch_scl_low_disable:0000000000000020 .L0 
C:\Users\CYMR90~1\AppData\Local\Temp\cchoDgth.s:765    .text.i2c_stretch_scl_low_disable:0000000000000020 .L0 
C:\Users\CYMR90~1\AppData\Local\Temp\cchoDgth.s:767    .text.i2c_stretch_scl_low_disable:0000000000000022 .L0 
C:\Users\CYMR90~1\AppData\Local\Temp\cchoDgth.s:769    .text.i2c_stretch_scl_low_disable:0000000000000024 .L0 
C:\Users\CYMR90~1\AppData\Local\Temp\cchoDgth.s:776    .text.i2c_address_config:0000000000000000 i2c_address_config
C:\Users\CYMR90~1\AppData\Local\Temp\cchoDgth.s:779    .text.i2c_address_config:0000000000000000 .L0 
C:\Users\CYMR90~1\AppData\Local\Temp\cchoDgth.s:780    .text.i2c_address_config:0000000000000000 .L0 
C:\Users\CYMR90~1\AppData\Local\Temp\cchoDgth.s:781    .text.i2c_address_config:0000000000000002 .L0 
C:\Users\CYMR90~1\AppData\Local\Temp\cchoDgth.s:783    .text.i2c_address_config:0000000000000004 .L0 
C:\Users\CYMR90~1\AppData\Local\Temp\cchoDgth.s:785    .text.i2c_address_config:0000000000000006 .L0 
C:\Users\CYMR90~1\AppData\Local\Temp\cchoDgth.s:790    .text.i2c_address_config:0000000000000012 .L0 
C:\Users\CYMR90~1\AppData\Local\Temp\cchoDgth.s:794    .text.i2c_address_config:000000000000001e .L0 
C:\Users\CYMR90~1\AppData\Local\Temp\cchoDgth.s:798    .text.i2c_address_config:0000000000000026 .L0 
C:\Users\CYMR90~1\AppData\Local\Temp\cchoDgth.s:802    .text.i2c_address_config:0000000000000030 .L0 
C:\Users\CYMR90~1\AppData\Local\Temp\cchoDgth.s:804    .text.i2c_address_config:0000000000000032 .L0 
C:\Users\CYMR90~1\AppData\Local\Temp\cchoDgth.s:814    .text.i2c_address_config:0000000000000048 .L0 
C:\Users\CYMR90~1\AppData\Local\Temp\cchoDgth.s:816    .text.i2c_address_config:000000000000004c .L0 
C:\Users\CYMR90~1\AppData\Local\Temp\cchoDgth.s:817    .text.i2c_address_config:000000000000004c .L0 
C:\Users\CYMR90~1\AppData\Local\Temp\cchoDgth.s:819    .text.i2c_address_config:000000000000004e .L0 
C:\Users\CYMR90~1\AppData\Local\Temp\cchoDgth.s:821    .text.i2c_address_config:0000000000000050 .L0 
C:\Users\CYMR90~1\AppData\Local\Temp\cchoDgth.s:828    .text.i2c_address_bit_compare_config:0000000000000000 i2c_address_bit_compare_config
C:\Users\CYMR90~1\AppData\Local\Temp\cchoDgth.s:831    .text.i2c_address_bit_compare_config:0000000000000000 .L0 
C:\Users\CYMR90~1\AppData\Local\Temp\cchoDgth.s:832    .text.i2c_address_bit_compare_config:0000000000000000 .L0 
C:\Users\CYMR90~1\AppData\Local\Temp\cchoDgth.s:833    .text.i2c_address_bit_compare_config:0000000000000002 .L0 
C:\Users\CYMR90~1\AppData\Local\Temp\cchoDgth.s:835    .text.i2c_address_bit_compare_config:0000000000000004 .L0 
C:\Users\CYMR90~1\AppData\Local\Temp\cchoDgth.s:837    .text.i2c_address_bit_compare_config:0000000000000006 .L0 
C:\Users\CYMR90~1\AppData\Local\Temp\cchoDgth.s:841    .text.i2c_address_bit_compare_config:000000000000000e .L0 
C:\Users\CYMR90~1\AppData\Local\Temp\cchoDgth.s:852    .text.i2c_address_bit_compare_config:000000000000002c .L0 
C:\Users\CYMR90~1\AppData\Local\Temp\cchoDgth.s:862    .text.i2c_address_bit_compare_config:0000000000000048 .L0 
C:\Users\CYMR90~1\AppData\Local\Temp\cchoDgth.s:864    .text.i2c_address_bit_compare_config:000000000000004c .L0 
C:\Users\CYMR90~1\AppData\Local\Temp\cchoDgth.s:865    .text.i2c_address_bit_compare_config:000000000000004c .L0 
C:\Users\CYMR90~1\AppData\Local\Temp\cchoDgth.s:867    .text.i2c_address_bit_compare_config:000000000000004e .L0 
C:\Users\CYMR90~1\AppData\Local\Temp\cchoDgth.s:869    .text.i2c_address_bit_compare_config:0000000000000050 .L0 
C:\Users\CYMR90~1\AppData\Local\Temp\cchoDgth.s:876    .text.i2c_address_disable:0000000000000000 i2c_address_disable
C:\Users\CYMR90~1\AppData\Local\Temp\cchoDgth.s:879    .text.i2c_address_disable:0000000000000000 .L0 
C:\Users\CYMR90~1\AppData\Local\Temp\cchoDgth.s:880    .text.i2c_address_disable:0000000000000000 .L0 
C:\Users\CYMR90~1\AppData\Local\Temp\cchoDgth.s:881    .text.i2c_address_disable:0000000000000002 .L0 
C:\Users\CYMR90~1\AppData\Local\Temp\cchoDgth.s:883    .text.i2c_address_disable:0000000000000004 .L0 
C:\Users\CYMR90~1\AppData\Local\Temp\cchoDgth.s:885    .text.i2c_address_disable:0000000000000006 .L0 
C:\Users\CYMR90~1\AppData\Local\Temp\cchoDgth.s:888    .text.i2c_address_disable:000000000000000a .L0 
C:\Users\CYMR90~1\AppData\Local\Temp\cchoDgth.s:899    .text.i2c_address_disable:0000000000000022 .L0 
C:\Users\CYMR90~1\AppData\Local\Temp\cchoDgth.s:901    .text.i2c_address_disable:0000000000000026 .L0 
C:\Users\CYMR90~1\AppData\Local\Temp\cchoDgth.s:902    .text.i2c_address_disable:0000000000000026 .L0 
C:\Users\CYMR90~1\AppData\Local\Temp\cchoDgth.s:904    .text.i2c_address_disable:0000000000000028 .L0 
C:\Users\CYMR90~1\AppData\Local\Temp\cchoDgth.s:906    .text.i2c_address_disable:000000000000002a .L0 
C:\Users\CYMR90~1\AppData\Local\Temp\cchoDgth.s:913    .text.i2c_second_address_config:0000000000000000 i2c_second_address_config
C:\Users\CYMR90~1\AppData\Local\Temp\cchoDgth.s:916    .text.i2c_second_address_config:0000000000000000 .L0 
C:\Users\CYMR90~1\AppData\Local\Temp\cchoDgth.s:917    .text.i2c_second_address_config:0000000000000000 .L0 
C:\Users\CYMR90~1\AppData\Local\Temp\cchoDgth.s:918    .text.i2c_second_address_config:0000000000000002 .L0 
C:\Users\CYMR90~1\AppData\Local\Temp\cchoDgth.s:920    .text.i2c_second_address_config:0000000000000004 .L0 
C:\Users\CYMR90~1\AppData\Local\Temp\cchoDgth.s:922    .text.i2c_second_address_config:0000000000000006 .L0 
C:\Users\CYMR90~1\AppData\Local\Temp\cchoDgth.s:927    .text.i2c_second_address_config:0000000000000012 .L0 
C:\Users\CYMR90~1\AppData\Local\Temp\cchoDgth.s:931    .text.i2c_second_address_config:000000000000001e .L0 
C:\Users\CYMR90~1\AppData\Local\Temp\cchoDgth.s:941    .text.i2c_second_address_config:0000000000000036 .L0 
C:\Users\CYMR90~1\AppData\Local\Temp\cchoDgth.s:949    .text.i2c_second_address_config:000000000000004a .L0 
C:\Users\CYMR90~1\AppData\Local\Temp\cchoDgth.s:953    .text.i2c_second_address_config:0000000000000052 .L0 
C:\Users\CYMR90~1\AppData\Local\Temp\cchoDgth.s:956    .text.i2c_second_address_config:0000000000000058 .L0 
C:\Users\CYMR90~1\AppData\Local\Temp\cchoDgth.s:961    .text.i2c_second_address_config:0000000000000062 .L0 
C:\Users\CYMR90~1\AppData\Local\Temp\cchoDgth.s:971    .text.i2c_second_address_config:0000000000000078 .L0 
C:\Users\CYMR90~1\AppData\Local\Temp\cchoDgth.s:973    .text.i2c_second_address_config:000000000000007c .L0 
C:\Users\CYMR90~1\AppData\Local\Temp\cchoDgth.s:974    .text.i2c_second_address_config:000000000000007c .L0 
C:\Users\CYMR90~1\AppData\Local\Temp\cchoDgth.s:976    .text.i2c_second_address_config:000000000000007e .L0 
C:\Users\CYMR90~1\AppData\Local\Temp\cchoDgth.s:978    .text.i2c_second_address_config:0000000000000080 .L0 
C:\Users\CYMR90~1\AppData\Local\Temp\cchoDgth.s:985    .text.i2c_second_address_disable:0000000000000000 i2c_second_address_disable
C:\Users\CYMR90~1\AppData\Local\Temp\cchoDgth.s:988    .text.i2c_second_address_disable:0000000000000000 .L0 
C:\Users\CYMR90~1\AppData\Local\Temp\cchoDgth.s:989    .text.i2c_second_address_disable:0000000000000000 .L0 
C:\Users\CYMR90~1\AppData\Local\Temp\cchoDgth.s:990    .text.i2c_second_address_disable:0000000000000002 .L0 
C:\Users\CYMR90~1\AppData\Local\Temp\cchoDgth.s:992    .text.i2c_second_address_disable:0000000000000004 .L0 
C:\Users\CYMR90~1\AppData\Local\Temp\cchoDgth.s:994    .text.i2c_second_address_disable:0000000000000006 .L0 
C:\Users\CYMR90~1\AppData\Local\Temp\cchoDgth.s:997    .text.i2c_second_address_disable:000000000000000a .L0 
C:\Users\CYMR90~1\AppData\Local\Temp\cchoDgth.s:1008   .text.i2c_second_address_disable:0000000000000022 .L0 
C:\Users\CYMR90~1\AppData\Local\Temp\cchoDgth.s:1010   .text.i2c_second_address_disable:0000000000000026 .L0 
C:\Users\CYMR90~1\AppData\Local\Temp\cchoDgth.s:1011   .text.i2c_second_address_disable:0000000000000026 .L0 
C:\Users\CYMR90~1\AppData\Local\Temp\cchoDgth.s:1013   .text.i2c_second_address_disable:0000000000000028 .L0 
C:\Users\CYMR90~1\AppData\Local\Temp\cchoDgth.s:1015   .text.i2c_second_address_disable:000000000000002a .L0 
C:\Users\CYMR90~1\AppData\Local\Temp\cchoDgth.s:1022   .text.i2c_recevied_address_get:0000000000000000 i2c_recevied_address_get
C:\Users\CYMR90~1\AppData\Local\Temp\cchoDgth.s:1025   .text.i2c_recevied_address_get:0000000000000000 .L0 
C:\Users\CYMR90~1\AppData\Local\Temp\cchoDgth.s:1026   .text.i2c_recevied_address_get:0000000000000000 .L0 
C:\Users\CYMR90~1\AppData\Local\Temp\cchoDgth.s:1027   .text.i2c_recevied_address_get:0000000000000002 .L0 
C:\Users\CYMR90~1\AppData\Local\Temp\cchoDgth.s:1029   .text.i2c_recevied_address_get:0000000000000004 .L0 
C:\Users\CYMR90~1\AppData\Local\Temp\cchoDgth.s:1031   .text.i2c_recevied_address_get:0000000000000006 .L0 
C:\Users\CYMR90~1\AppData\Local\Temp\cchoDgth.s:1034   .text.i2c_recevied_address_get:000000000000000a .L0 
C:\Users\CYMR90~1\AppData\Local\Temp\cchoDgth.s:1038   .text.i2c_recevied_address_get:0000000000000012 .L0 
C:\Users\CYMR90~1\AppData\Local\Temp\cchoDgth.s:1041   .text.i2c_recevied_address_get:0000000000000018 .L0 
C:\Users\CYMR90~1\AppData\Local\Temp\cchoDgth.s:1043   .text.i2c_recevied_address_get:000000000000001c .L0 
C:\Users\CYMR90~1\AppData\Local\Temp\cchoDgth.s:1044   .text.i2c_recevied_address_get:000000000000001c .L0 
C:\Users\CYMR90~1\AppData\Local\Temp\cchoDgth.s:1046   .text.i2c_recevied_address_get:000000000000001e .L0 
C:\Users\CYMR90~1\AppData\Local\Temp\cchoDgth.s:1048   .text.i2c_recevied_address_get:0000000000000020 .L0 
C:\Users\CYMR90~1\AppData\Local\Temp\cchoDgth.s:1055   .text.i2c_slave_byte_control_enable:0000000000000000 i2c_slave_byte_control_enable
C:\Users\CYMR90~1\AppData\Local\Temp\cchoDgth.s:1058   .text.i2c_slave_byte_control_enable:0000000000000000 .L0 
C:\Users\CYMR90~1\AppData\Local\Temp\cchoDgth.s:1059   .text.i2c_slave_byte_control_enable:0000000000000000 .L0 
C:\Users\CYMR90~1\AppData\Local\Temp\cchoDgth.s:1060   .text.i2c_slave_byte_control_enable:0000000000000002 .L0 
C:\Users\CYMR90~1\AppData\Local\Temp\cchoDgth.s:1062   .text.i2c_slave_byte_control_enable:0000000000000004 .L0 
C:\Users\CYMR90~1\AppData\Local\Temp\cchoDgth.s:1064   .text.i2c_slave_byte_control_enable:0000000000000006 .L0 
C:\Users\CYMR90~1\AppData\Local\Temp\cchoDgth.s:1067   .text.i2c_slave_byte_control_enable:000000000000000a .L0 
C:\Users\CYMR90~1\AppData\Local\Temp\cchoDgth.s:1074   .text.i2c_slave_byte_control_enable:000000000000001a .L0 
C:\Users\CYMR90~1\AppData\Local\Temp\cchoDgth.s:1076   .text.i2c_slave_byte_control_enable:000000000000001e .L0 
C:\Users\CYMR90~1\AppData\Local\Temp\cchoDgth.s:1077   .text.i2c_slave_byte_control_enable:000000000000001e .L0 
C:\Users\CYMR90~1\AppData\Local\Temp\cchoDgth.s:1079   .text.i2c_slave_byte_control_enable:0000000000000020 .L0 
C:\Users\CYMR90~1\AppData\Local\Temp\cchoDgth.s:1081   .text.i2c_slave_byte_control_enable:0000000000000022 .L0 
C:\Users\CYMR90~1\AppData\Local\Temp\cchoDgth.s:1088   .text.i2c_slave_byte_control_disable:0000000000000000 i2c_slave_byte_control_disable
C:\Users\CYMR90~1\AppData\Local\Temp\cchoDgth.s:1091   .text.i2c_slave_byte_control_disable:0000000000000000 .L0 
C:\Users\CYMR90~1\AppData\Local\Temp\cchoDgth.s:1092   .text.i2c_slave_byte_control_disable:0000000000000000 .L0 
C:\Users\CYMR90~1\AppData\Local\Temp\cchoDgth.s:1093   .text.i2c_slave_byte_control_disable:0000000000000002 .L0 
C:\Users\CYMR90~1\AppData\Local\Temp\cchoDgth.s:1095   .text.i2c_slave_byte_control_disable:0000000000000004 .L0 
C:\Users\CYMR90~1\AppData\Local\Temp\cchoDgth.s:1097   .text.i2c_slave_byte_control_disable:0000000000000006 .L0 
C:\Users\CYMR90~1\AppData\Local\Temp\cchoDgth.s:1100   .text.i2c_slave_byte_control_disable:000000000000000a .L0 
C:\Users\CYMR90~1\AppData\Local\Temp\cchoDgth.s:1108   .text.i2c_slave_byte_control_disable:000000000000001c .L0 
C:\Users\CYMR90~1\AppData\Local\Temp\cchoDgth.s:1110   .text.i2c_slave_byte_control_disable:0000000000000020 .L0 
C:\Users\CYMR90~1\AppData\Local\Temp\cchoDgth.s:1111   .text.i2c_slave_byte_control_disable:0000000000000020 .L0 
C:\Users\CYMR90~1\AppData\Local\Temp\cchoDgth.s:1113   .text.i2c_slave_byte_control_disable:0000000000000022 .L0 
C:\Users\CYMR90~1\AppData\Local\Temp\cchoDgth.s:1115   .text.i2c_slave_byte_control_disable:0000000000000024 .L0 
C:\Users\CYMR90~1\AppData\Local\Temp\cchoDgth.s:1122   .text.i2c_nack_enable:0000000000000000 i2c_nack_enable
C:\Users\CYMR90~1\AppData\Local\Temp\cchoDgth.s:1125   .text.i2c_nack_enable:0000000000000000 .L0 
C:\Users\CYMR90~1\AppData\Local\Temp\cchoDgth.s:1126   .text.i2c_nack_enable:0000000000000000 .L0 
C:\Users\CYMR90~1\AppData\Local\Temp\cchoDgth.s:1127   .text.i2c_nack_enable:0000000000000002 .L0 
C:\Users\CYMR90~1\AppData\Local\Temp\cchoDgth.s:1129   .text.i2c_nack_enable:0000000000000004 .L0 
C:\Users\CYMR90~1\AppData\Local\Temp\cchoDgth.s:1131   .text.i2c_nack_enable:0000000000000006 .L0 
C:\Users\CYMR90~1\AppData\Local\Temp\cchoDgth.s:1134   .text.i2c_nack_enable:000000000000000a .L0 
C:\Users\CYMR90~1\AppData\Local\Temp\cchoDgth.s:1144   .text.i2c_nack_enable:0000000000000020 .L0 
C:\Users\CYMR90~1\AppData\Local\Temp\cchoDgth.s:1146   .text.i2c_nack_enable:0000000000000024 .L0 
C:\Users\CYMR90~1\AppData\Local\Temp\cchoDgth.s:1147   .text.i2c_nack_enable:0000000000000024 .L0 
C:\Users\CYMR90~1\AppData\Local\Temp\cchoDgth.s:1149   .text.i2c_nack_enable:0000000000000026 .L0 
C:\Users\CYMR90~1\AppData\Local\Temp\cchoDgth.s:1151   .text.i2c_nack_enable:0000000000000028 .L0 
C:\Users\CYMR90~1\AppData\Local\Temp\cchoDgth.s:1158   .text.i2c_nack_disable:0000000000000000 i2c_nack_disable
C:\Users\CYMR90~1\AppData\Local\Temp\cchoDgth.s:1161   .text.i2c_nack_disable:0000000000000000 .L0 
C:\Users\CYMR90~1\AppData\Local\Temp\cchoDgth.s:1162   .text.i2c_nack_disable:0000000000000000 .L0 
C:\Users\CYMR90~1\AppData\Local\Temp\cchoDgth.s:1163   .text.i2c_nack_disable:0000000000000002 .L0 
C:\Users\CYMR90~1\AppData\Local\Temp\cchoDgth.s:1165   .text.i2c_nack_disable:0000000000000004 .L0 
C:\Users\CYMR90~1\AppData\Local\Temp\cchoDgth.s:1167   .text.i2c_nack_disable:0000000000000006 .L0 
C:\Users\CYMR90~1\AppData\Local\Temp\cchoDgth.s:1170   .text.i2c_nack_disable:000000000000000a .L0 
C:\Users\CYMR90~1\AppData\Local\Temp\cchoDgth.s:1181   .text.i2c_nack_disable:0000000000000022 .L0 
C:\Users\CYMR90~1\AppData\Local\Temp\cchoDgth.s:1183   .text.i2c_nack_disable:0000000000000026 .L0 
C:\Users\CYMR90~1\AppData\Local\Temp\cchoDgth.s:1184   .text.i2c_nack_disable:0000000000000026 .L0 
C:\Users\CYMR90~1\AppData\Local\Temp\cchoDgth.s:1186   .text.i2c_nack_disable:0000000000000028 .L0 
C:\Users\CYMR90~1\AppData\Local\Temp\cchoDgth.s:1188   .text.i2c_nack_disable:000000000000002a .L0 
C:\Users\CYMR90~1\AppData\Local\Temp\cchoDgth.s:1195   .text.i2c_wakeup_from_deepsleep_enable:0000000000000000 i2c_wakeup_from_deepsleep_enable
C:\Users\CYMR90~1\AppData\Local\Temp\cchoDgth.s:1198   .text.i2c_wakeup_from_deepsleep_enable:0000000000000000 .L0 
C:\Users\CYMR90~1\AppData\Local\Temp\cchoDgth.s:1199   .text.i2c_wakeup_from_deepsleep_enable:0000000000000000 .L0 
C:\Users\CYMR90~1\AppData\Local\Temp\cchoDgth.s:1200   .text.i2c_wakeup_from_deepsleep_enable:0000000000000002 .L0 
C:\Users\CYMR90~1\AppData\Local\Temp\cchoDgth.s:1202   .text.i2c_wakeup_from_deepsleep_enable:0000000000000004 .L0 
C:\Users\CYMR90~1\AppData\Local\Temp\cchoDgth.s:1204   .text.i2c_wakeup_from_deepsleep_enable:0000000000000006 .L0 
C:\Users\CYMR90~1\AppData\Local\Temp\cchoDgth.s:1207   .text.i2c_wakeup_from_deepsleep_enable:000000000000000a .L0 
C:\Users\CYMR90~1\AppData\Local\Temp\cchoDgth.s:1214   .text.i2c_wakeup_from_deepsleep_enable:000000000000001c .L0 
C:\Users\CYMR90~1\AppData\Local\Temp\cchoDgth.s:1216   .text.i2c_wakeup_from_deepsleep_enable:0000000000000020 .L0 
C:\Users\CYMR90~1\AppData\Local\Temp\cchoDgth.s:1217   .text.i2c_wakeup_from_deepsleep_enable:0000000000000020 .L0 
C:\Users\CYMR90~1\AppData\Local\Temp\cchoDgth.s:1219   .text.i2c_wakeup_from_deepsleep_enable:0000000000000022 .L0 
C:\Users\CYMR90~1\AppData\Local\Temp\cchoDgth.s:1221   .text.i2c_wakeup_from_deepsleep_enable:0000000000000024 .L0 
C:\Users\CYMR90~1\AppData\Local\Temp\cchoDgth.s:1228   .text.i2c_wakeup_from_deepsleep_disable:0000000000000000 i2c_wakeup_from_deepsleep_disable
C:\Users\CYMR90~1\AppData\Local\Temp\cchoDgth.s:1231   .text.i2c_wakeup_from_deepsleep_disable:0000000000000000 .L0 
C:\Users\CYMR90~1\AppData\Local\Temp\cchoDgth.s:1232   .text.i2c_wakeup_from_deepsleep_disable:0000000000000000 .L0 
C:\Users\CYMR90~1\AppData\Local\Temp\cchoDgth.s:1233   .text.i2c_wakeup_from_deepsleep_disable:0000000000000002 .L0 
C:\Users\CYMR90~1\AppData\Local\Temp\cchoDgth.s:1235   .text.i2c_wakeup_from_deepsleep_disable:0000000000000004 .L0 
C:\Users\CYMR90~1\AppData\Local\Temp\cchoDgth.s:1237   .text.i2c_wakeup_from_deepsleep_disable:0000000000000006 .L0 
C:\Users\CYMR90~1\AppData\Local\Temp\cchoDgth.s:1240   .text.i2c_wakeup_from_deepsleep_disable:000000000000000a .L0 
C:\Users\CYMR90~1\AppData\Local\Temp\cchoDgth.s:1248   .text.i2c_wakeup_from_deepsleep_disable:000000000000001e .L0 
C:\Users\CYMR90~1\AppData\Local\Temp\cchoDgth.s:1250   .text.i2c_wakeup_from_deepsleep_disable:0000000000000022 .L0 
C:\Users\CYMR90~1\AppData\Local\Temp\cchoDgth.s:1251   .text.i2c_wakeup_from_deepsleep_disable:0000000000000022 .L0 
C:\Users\CYMR90~1\AppData\Local\Temp\cchoDgth.s:1253   .text.i2c_wakeup_from_deepsleep_disable:0000000000000024 .L0 
C:\Users\CYMR90~1\AppData\Local\Temp\cchoDgth.s:1255   .text.i2c_wakeup_from_deepsleep_disable:0000000000000026 .L0 
C:\Users\CYMR90~1\AppData\Local\Temp\cchoDgth.s:1262   .text.i2c_enable:0000000000000000 i2c_enable
C:\Users\CYMR90~1\AppData\Local\Temp\cchoDgth.s:1265   .text.i2c_enable:0000000000000000 .L0 
C:\Users\CYMR90~1\AppData\Local\Temp\cchoDgth.s:1266   .text.i2c_enable:0000000000000000 .L0 
C:\Users\CYMR90~1\AppData\Local\Temp\cchoDgth.s:1267   .text.i2c_enable:0000000000000002 .L0 
C:\Users\CYMR90~1\AppData\Local\Temp\cchoDgth.s:1269   .text.i2c_enable:0000000000000004 .L0 
C:\Users\CYMR90~1\AppData\Local\Temp\cchoDgth.s:1271   .text.i2c_enable:0000000000000006 .L0 
C:\Users\CYMR90~1\AppData\Local\Temp\cchoDgth.s:1274   .text.i2c_enable:000000000000000a .L0 
C:\Users\CYMR90~1\AppData\Local\Temp\cchoDgth.s:1280   .text.i2c_enable:000000000000001a .L0 
C:\Users\CYMR90~1\AppData\Local\Temp\cchoDgth.s:1282   .text.i2c_enable:000000000000001e .L0 
C:\Users\CYMR90~1\AppData\Local\Temp\cchoDgth.s:1283   .text.i2c_enable:000000000000001e .L0 
C:\Users\CYMR90~1\AppData\Local\Temp\cchoDgth.s:1285   .text.i2c_enable:0000000000000020 .L0 
C:\Users\CYMR90~1\AppData\Local\Temp\cchoDgth.s:1287   .text.i2c_enable:0000000000000022 .L0 
C:\Users\CYMR90~1\AppData\Local\Temp\cchoDgth.s:1294   .text.i2c_disable:0000000000000000 i2c_disable
C:\Users\CYMR90~1\AppData\Local\Temp\cchoDgth.s:1297   .text.i2c_disable:0000000000000000 .L0 
C:\Users\CYMR90~1\AppData\Local\Temp\cchoDgth.s:1298   .text.i2c_disable:0000000000000000 .L0 
C:\Users\CYMR90~1\AppData\Local\Temp\cchoDgth.s:1299   .text.i2c_disable:0000000000000002 .L0 
C:\Users\CYMR90~1\AppData\Local\Temp\cchoDgth.s:1301   .text.i2c_disable:0000000000000004 .L0 
C:\Users\CYMR90~1\AppData\Local\Temp\cchoDgth.s:1303   .text.i2c_disable:0000000000000006 .L0 
C:\Users\CYMR90~1\AppData\Local\Temp\cchoDgth.s:1306   .text.i2c_disable:000000000000000a .L0 
C:\Users\CYMR90~1\AppData\Local\Temp\cchoDgth.s:1312   .text.i2c_disable:0000000000000018 .L0 
C:\Users\CYMR90~1\AppData\Local\Temp\cchoDgth.s:1314   .text.i2c_disable:000000000000001c .L0 
C:\Users\CYMR90~1\AppData\Local\Temp\cchoDgth.s:1315   .text.i2c_disable:000000000000001c .L0 
C:\Users\CYMR90~1\AppData\Local\Temp\cchoDgth.s:1317   .text.i2c_disable:000000000000001e .L0 
C:\Users\CYMR90~1\AppData\Local\Temp\cchoDgth.s:1319   .text.i2c_disable:0000000000000020 .L0 
C:\Users\CYMR90~1\AppData\Local\Temp\cchoDgth.s:1326   .text.i2c_start_on_bus:0000000000000000 i2c_start_on_bus
C:\Users\CYMR90~1\AppData\Local\Temp\cchoDgth.s:1329   .text.i2c_start_on_bus:0000000000000000 .L0 
C:\Users\CYMR90~1\AppData\Local\Temp\cchoDgth.s:1330   .text.i2c_start_on_bus:0000000000000000 .L0 
C:\Users\CYMR90~1\AppData\Local\Temp\cchoDgth.s:1331   .text.i2c_start_on_bus:0000000000000002 .L0 
C:\Users\CYMR90~1\AppData\Local\Temp\cchoDgth.s:1333   .text.i2c_start_on_bus:0000000000000004 .L0 
C:\Users\CYMR90~1\AppData\Local\Temp\cchoDgth.s:1335   .text.i2c_start_on_bus:0000000000000006 .L0 
C:\Users\CYMR90~1\AppData\Local\Temp\cchoDgth.s:1338   .text.i2c_start_on_bus:000000000000000a .L0 
C:\Users\CYMR90~1\AppData\Local\Temp\cchoDgth.s:1348   .text.i2c_start_on_bus:0000000000000020 .L0 
C:\Users\CYMR90~1\AppData\Local\Temp\cchoDgth.s:1350   .text.i2c_start_on_bus:0000000000000024 .L0 
C:\Users\CYMR90~1\AppData\Local\Temp\cchoDgth.s:1351   .text.i2c_start_on_bus:0000000000000024 .L0 
C:\Users\CYMR90~1\AppData\Local\Temp\cchoDgth.s:1353   .text.i2c_start_on_bus:0000000000000026 .L0 
C:\Users\CYMR90~1\AppData\Local\Temp\cchoDgth.s:1355   .text.i2c_start_on_bus:0000000000000028 .L0 
C:\Users\CYMR90~1\AppData\Local\Temp\cchoDgth.s:1362   .text.i2c_stop_on_bus:0000000000000000 i2c_stop_on_bus
C:\Users\CYMR90~1\AppData\Local\Temp\cchoDgth.s:1365   .text.i2c_stop_on_bus:0000000000000000 .L0 
C:\Users\CYMR90~1\AppData\Local\Temp\cchoDgth.s:1366   .text.i2c_stop_on_bus:0000000000000000 .L0 
C:\Users\CYMR90~1\AppData\Local\Temp\cchoDgth.s:1367   .text.i2c_stop_on_bus:0000000000000002 .L0 
C:\Users\CYMR90~1\AppData\Local\Temp\cchoDgth.s:1369   .text.i2c_stop_on_bus:0000000000000004 .L0 
C:\Users\CYMR90~1\AppData\Local\Temp\cchoDgth.s:1371   .text.i2c_stop_on_bus:0000000000000006 .L0 
C:\Users\CYMR90~1\AppData\Local\Temp\cchoDgth.s:1374   .text.i2c_stop_on_bus:000000000000000a .L0 
C:\Users\CYMR90~1\AppData\Local\Temp\cchoDgth.s:1384   .text.i2c_stop_on_bus:0000000000000020 .L0 
C:\Users\CYMR90~1\AppData\Local\Temp\cchoDgth.s:1386   .text.i2c_stop_on_bus:0000000000000024 .L0 
C:\Users\CYMR90~1\AppData\Local\Temp\cchoDgth.s:1387   .text.i2c_stop_on_bus:0000000000000024 .L0 
C:\Users\CYMR90~1\AppData\Local\Temp\cchoDgth.s:1389   .text.i2c_stop_on_bus:0000000000000026 .L0 
C:\Users\CYMR90~1\AppData\Local\Temp\cchoDgth.s:1391   .text.i2c_stop_on_bus:0000000000000028 .L0 
C:\Users\CYMR90~1\AppData\Local\Temp\cchoDgth.s:1398   .text.i2c_data_transmit:0000000000000000 i2c_data_transmit
C:\Users\CYMR90~1\AppData\Local\Temp\cchoDgth.s:1401   .text.i2c_data_transmit:0000000000000000 .L0 
C:\Users\CYMR90~1\AppData\Local\Temp\cchoDgth.s:1402   .text.i2c_data_transmit:0000000000000000 .L0 
C:\Users\CYMR90~1\AppData\Local\Temp\cchoDgth.s:1403   .text.i2c_data_transmit:0000000000000002 .L0 
C:\Users\CYMR90~1\AppData\Local\Temp\cchoDgth.s:1405   .text.i2c_data_transmit:0000000000000004 .L0 
C:\Users\CYMR90~1\AppData\Local\Temp\cchoDgth.s:1407   .text.i2c_data_transmit:0000000000000006 .L0 
C:\Users\CYMR90~1\AppData\Local\Temp\cchoDgth.s:1411   .text.i2c_data_transmit:000000000000000e .L0 
C:\Users\CYMR90~1\AppData\Local\Temp\cchoDgth.s:1415   .text.i2c_data_transmit:0000000000000018 .L0 
C:\Users\CYMR90~1\AppData\Local\Temp\cchoDgth.s:1418   .text.i2c_data_transmit:0000000000000020 .L0 
C:\Users\CYMR90~1\AppData\Local\Temp\cchoDgth.s:1420   .text.i2c_data_transmit:0000000000000022 .L0 
C:\Users\CYMR90~1\AppData\Local\Temp\cchoDgth.s:1422   .text.i2c_data_transmit:0000000000000026 .L0 
C:\Users\CYMR90~1\AppData\Local\Temp\cchoDgth.s:1423   .text.i2c_data_transmit:0000000000000026 .L0 
C:\Users\CYMR90~1\AppData\Local\Temp\cchoDgth.s:1425   .text.i2c_data_transmit:0000000000000028 .L0 
C:\Users\CYMR90~1\AppData\Local\Temp\cchoDgth.s:1427   .text.i2c_data_transmit:000000000000002a .L0 
C:\Users\CYMR90~1\AppData\Local\Temp\cchoDgth.s:1434   .text.i2c_data_receive:0000000000000000 i2c_data_receive
C:\Users\CYMR90~1\AppData\Local\Temp\cchoDgth.s:1437   .text.i2c_data_receive:0000000000000000 .L0 
C:\Users\CYMR90~1\AppData\Local\Temp\cchoDgth.s:1438   .text.i2c_data_receive:0000000000000000 .L0 
C:\Users\CYMR90~1\AppData\Local\Temp\cchoDgth.s:1439   .text.i2c_data_receive:0000000000000002 .L0 
C:\Users\CYMR90~1\AppData\Local\Temp\cchoDgth.s:1441   .text.i2c_data_receive:0000000000000004 .L0 
C:\Users\CYMR90~1\AppData\Local\Temp\cchoDgth.s:1443   .text.i2c_data_receive:0000000000000006 .L0 
C:\Users\CYMR90~1\AppData\Local\Temp\cchoDgth.s:1446   .text.i2c_data_receive:000000000000000a .L0 
C:\Users\CYMR90~1\AppData\Local\Temp\cchoDgth.s:1449   .text.i2c_data_receive:0000000000000012 .L0 
C:\Users\CYMR90~1\AppData\Local\Temp\cchoDgth.s:1452   .text.i2c_data_receive:0000000000000018 .L0 
C:\Users\CYMR90~1\AppData\Local\Temp\cchoDgth.s:1454   .text.i2c_data_receive:000000000000001c .L0 
C:\Users\CYMR90~1\AppData\Local\Temp\cchoDgth.s:1455   .text.i2c_data_receive:000000000000001c .L0 
C:\Users\CYMR90~1\AppData\Local\Temp\cchoDgth.s:1457   .text.i2c_data_receive:000000000000001e .L0 
C:\Users\CYMR90~1\AppData\Local\Temp\cchoDgth.s:1459   .text.i2c_data_receive:0000000000000020 .L0 
C:\Users\CYMR90~1\AppData\Local\Temp\cchoDgth.s:1466   .text.i2c_reload_enable:0000000000000000 i2c_reload_enable
C:\Users\CYMR90~1\AppData\Local\Temp\cchoDgth.s:1469   .text.i2c_reload_enable:0000000000000000 .L0 
C:\Users\CYMR90~1\AppData\Local\Temp\cchoDgth.s:1470   .text.i2c_reload_enable:0000000000000000 .L0 
C:\Users\CYMR90~1\AppData\Local\Temp\cchoDgth.s:1471   .text.i2c_reload_enable:0000000000000002 .L0 
C:\Users\CYMR90~1\AppData\Local\Temp\cchoDgth.s:1473   .text.i2c_reload_enable:0000000000000004 .L0 
C:\Users\CYMR90~1\AppData\Local\Temp\cchoDgth.s:1475   .text.i2c_reload_enable:0000000000000006 .L0 
C:\Users\CYMR90~1\AppData\Local\Temp\cchoDgth.s:1478   .text.i2c_reload_enable:000000000000000a .L0 
C:\Users\CYMR90~1\AppData\Local\Temp\cchoDgth.s:1488   .text.i2c_reload_enable:0000000000000022 .L0 
C:\Users\CYMR90~1\AppData\Local\Temp\cchoDgth.s:1490   .text.i2c_reload_enable:0000000000000026 .L0 
C:\Users\CYMR90~1\AppData\Local\Temp\cchoDgth.s:1491   .text.i2c_reload_enable:0000000000000026 .L0 
C:\Users\CYMR90~1\AppData\Local\Temp\cchoDgth.s:1493   .text.i2c_reload_enable:0000000000000028 .L0 
C:\Users\CYMR90~1\AppData\Local\Temp\cchoDgth.s:1495   .text.i2c_reload_enable:000000000000002a .L0 
C:\Users\CYMR90~1\AppData\Local\Temp\cchoDgth.s:1502   .text.i2c_reload_disable:0000000000000000 i2c_reload_disable
C:\Users\CYMR90~1\AppData\Local\Temp\cchoDgth.s:1505   .text.i2c_reload_disable:0000000000000000 .L0 
C:\Users\CYMR90~1\AppData\Local\Temp\cchoDgth.s:1506   .text.i2c_reload_disable:0000000000000000 .L0 
C:\Users\CYMR90~1\AppData\Local\Temp\cchoDgth.s:1507   .text.i2c_reload_disable:0000000000000002 .L0 
C:\Users\CYMR90~1\AppData\Local\Temp\cchoDgth.s:1509   .text.i2c_reload_disable:0000000000000004 .L0 
C:\Users\CYMR90~1\AppData\Local\Temp\cchoDgth.s:1511   .text.i2c_reload_disable:0000000000000006 .L0 
C:\Users\CYMR90~1\AppData\Local\Temp\cchoDgth.s:1514   .text.i2c_reload_disable:000000000000000a .L0 
C:\Users\CYMR90~1\AppData\Local\Temp\cchoDgth.s:1525   .text.i2c_reload_disable:0000000000000024 .L0 
C:\Users\CYMR90~1\AppData\Local\Temp\cchoDgth.s:1527   .text.i2c_reload_disable:0000000000000028 .L0 
C:\Users\CYMR90~1\AppData\Local\Temp\cchoDgth.s:1528   .text.i2c_reload_disable:0000000000000028 .L0 
C:\Users\CYMR90~1\AppData\Local\Temp\cchoDgth.s:1530   .text.i2c_reload_disable:000000000000002a .L0 
C:\Users\CYMR90~1\AppData\Local\Temp\cchoDgth.s:1532   .text.i2c_reload_disable:000000000000002c .L0 
C:\Users\CYMR90~1\AppData\Local\Temp\cchoDgth.s:1539   .text.i2c_transfer_byte_number_config:0000000000000000 i2c_transfer_byte_number_config
C:\Users\CYMR90~1\AppData\Local\Temp\cchoDgth.s:1542   .text.i2c_transfer_byte_number_config:0000000000000000 .L0 
C:\Users\CYMR90~1\AppData\Local\Temp\cchoDgth.s:1543   .text.i2c_transfer_byte_number_config:0000000000000000 .L0 
C:\Users\CYMR90~1\AppData\Local\Temp\cchoDgth.s:1544   .text.i2c_transfer_byte_number_config:0000000000000002 .L0 
C:\Users\CYMR90~1\AppData\Local\Temp\cchoDgth.s:1546   .text.i2c_transfer_byte_number_config:0000000000000004 .L0 
C:\Users\CYMR90~1\AppData\Local\Temp\cchoDgth.s:1548   .text.i2c_transfer_byte_number_config:0000000000000006 .L0 
C:\Users\CYMR90~1\AppData\Local\Temp\cchoDgth.s:1552   .text.i2c_transfer_byte_number_config:000000000000000e .L0 
C:\Users\CYMR90~1\AppData\Local\Temp\cchoDgth.s:1563   .text.i2c_transfer_byte_number_config:0000000000000028 .L0 
C:\Users\CYMR90~1\AppData\Local\Temp\cchoDgth.s:1567   .text.i2c_transfer_byte_number_config:0000000000000030 .L0 
C:\Users\CYMR90~1\AppData\Local\Temp\cchoDgth.s:1570   .text.i2c_transfer_byte_number_config:0000000000000036 .L0 
C:\Users\CYMR90~1\AppData\Local\Temp\cchoDgth.s:1575   .text.i2c_transfer_byte_number_config:0000000000000040 .L0 
C:\Users\CYMR90~1\AppData\Local\Temp\cchoDgth.s:1577   .text.i2c_transfer_byte_number_config:0000000000000044 .L0 
C:\Users\CYMR90~1\AppData\Local\Temp\cchoDgth.s:1578   .text.i2c_transfer_byte_number_config:0000000000000044 .L0 
C:\Users\CYMR90~1\AppData\Local\Temp\cchoDgth.s:1580   .text.i2c_transfer_byte_number_config:0000000000000046 .L0 
C:\Users\CYMR90~1\AppData\Local\Temp\cchoDgth.s:1582   .text.i2c_transfer_byte_number_config:0000000000000048 .L0 
C:\Users\CYMR90~1\AppData\Local\Temp\cchoDgth.s:1589   .text.i2c_dma_enable:0000000000000000 i2c_dma_enable
C:\Users\CYMR90~1\AppData\Local\Temp\cchoDgth.s:1592   .text.i2c_dma_enable:0000000000000000 .L0 
C:\Users\CYMR90~1\AppData\Local\Temp\cchoDgth.s:1593   .text.i2c_dma_enable:0000000000000000 .L0 
C:\Users\CYMR90~1\AppData\Local\Temp\cchoDgth.s:1594   .text.i2c_dma_enable:0000000000000002 .L0 
C:\Users\CYMR90~1\AppData\Local\Temp\cchoDgth.s:1596   .text.i2c_dma_enable:0000000000000004 .L0 
C:\Users\CYMR90~1\AppData\Local\Temp\cchoDgth.s:1598   .text.i2c_dma_enable:0000000000000006 .L0 
C:\Users\CYMR90~1\AppData\Local\Temp\cchoDgth.s:1603   .text.i2c_dma_enable:0000000000000010 .L0 
C:\Users\CYMR90~1\AppData\Local\Temp\cchoDgth.s:1606   .text.i2c_dma_enable:0000000000000016 .L0 
C:\Users\CYMR90~1\AppData\Local\Temp\cchoDgth.s:1613   .text.i2c_dma_enable:0000000000000026 .L0 
C:\Users\CYMR90~1\AppData\Local\Temp\cchoDgth.s:1616   .text.i2c_dma_enable:0000000000000028 .L0 
C:\Users\CYMR90~1\AppData\Local\Temp\cchoDgth.s:1624   .text.i2c_dma_enable:0000000000000038 .L0 
C:\Users\CYMR90~1\AppData\Local\Temp\cchoDgth.s:1626   .text.i2c_dma_enable:000000000000003c .L0 
C:\Users\CYMR90~1\AppData\Local\Temp\cchoDgth.s:1627   .text.i2c_dma_enable:000000000000003c .L0 
C:\Users\CYMR90~1\AppData\Local\Temp\cchoDgth.s:1629   .text.i2c_dma_enable:000000000000003e .L0 
C:\Users\CYMR90~1\AppData\Local\Temp\cchoDgth.s:1631   .text.i2c_dma_enable:0000000000000040 .L0 
C:\Users\CYMR90~1\AppData\Local\Temp\cchoDgth.s:1638   .text.i2c_dma_disable:0000000000000000 i2c_dma_disable
C:\Users\CYMR90~1\AppData\Local\Temp\cchoDgth.s:1641   .text.i2c_dma_disable:0000000000000000 .L0 
C:\Users\CYMR90~1\AppData\Local\Temp\cchoDgth.s:1642   .text.i2c_dma_disable:0000000000000000 .L0 
C:\Users\CYMR90~1\AppData\Local\Temp\cchoDgth.s:1643   .text.i2c_dma_disable:0000000000000002 .L0 
C:\Users\CYMR90~1\AppData\Local\Temp\cchoDgth.s:1645   .text.i2c_dma_disable:0000000000000004 .L0 
C:\Users\CYMR90~1\AppData\Local\Temp\cchoDgth.s:1647   .text.i2c_dma_disable:0000000000000006 .L0 
C:\Users\CYMR90~1\AppData\Local\Temp\cchoDgth.s:1652   .text.i2c_dma_disable:0000000000000010 .L0 
C:\Users\CYMR90~1\AppData\Local\Temp\cchoDgth.s:1655   .text.i2c_dma_disable:0000000000000016 .L0 
C:\Users\CYMR90~1\AppData\Local\Temp\cchoDgth.s:1663   .text.i2c_dma_disable:0000000000000028 .L0 
C:\Users\CYMR90~1\AppData\Local\Temp\cchoDgth.s:1666   .text.i2c_dma_disable:000000000000002a .L0 
C:\Users\CYMR90~1\AppData\Local\Temp\cchoDgth.s:1675   .text.i2c_dma_disable:000000000000003c .L0 
C:\Users\CYMR90~1\AppData\Local\Temp\cchoDgth.s:1677   .text.i2c_dma_disable:0000000000000040 .L0 
C:\Users\CYMR90~1\AppData\Local\Temp\cchoDgth.s:1678   .text.i2c_dma_disable:0000000000000040 .L0 
C:\Users\CYMR90~1\AppData\Local\Temp\cchoDgth.s:1680   .text.i2c_dma_disable:0000000000000042 .L0 
C:\Users\CYMR90~1\AppData\Local\Temp\cchoDgth.s:1682   .text.i2c_dma_disable:0000000000000044 .L0 
C:\Users\CYMR90~1\AppData\Local\Temp\cchoDgth.s:1689   .text.i2c_pec_transfer:0000000000000000 i2c_pec_transfer
C:\Users\CYMR90~1\AppData\Local\Temp\cchoDgth.s:1692   .text.i2c_pec_transfer:0000000000000000 .L0 
C:\Users\CYMR90~1\AppData\Local\Temp\cchoDgth.s:1693   .text.i2c_pec_transfer:0000000000000000 .L0 
C:\Users\CYMR90~1\AppData\Local\Temp\cchoDgth.s:1694   .text.i2c_pec_transfer:0000000000000002 .L0 
C:\Users\CYMR90~1\AppData\Local\Temp\cchoDgth.s:1696   .text.i2c_pec_transfer:0000000000000004 .L0 
C:\Users\CYMR90~1\AppData\Local\Temp\cchoDgth.s:1698   .text.i2c_pec_transfer:0000000000000006 .L0 
C:\Users\CYMR90~1\AppData\Local\Temp\cchoDgth.s:1701   .text.i2c_pec_transfer:000000000000000a .L0 
C:\Users\CYMR90~1\AppData\Local\Temp\cchoDgth.s:1711   .text.i2c_pec_transfer:0000000000000022 .L0 
C:\Users\CYMR90~1\AppData\Local\Temp\cchoDgth.s:1713   .text.i2c_pec_transfer:0000000000000026 .L0 
C:\Users\CYMR90~1\AppData\Local\Temp\cchoDgth.s:1714   .text.i2c_pec_transfer:0000000000000026 .L0 
C:\Users\CYMR90~1\AppData\Local\Temp\cchoDgth.s:1716   .text.i2c_pec_transfer:0000000000000028 .L0 
C:\Users\CYMR90~1\AppData\Local\Temp\cchoDgth.s:1718   .text.i2c_pec_transfer:000000000000002a .L0 
C:\Users\CYMR90~1\AppData\Local\Temp\cchoDgth.s:1725   .text.i2c_pec_enable:0000000000000000 i2c_pec_enable
C:\Users\CYMR90~1\AppData\Local\Temp\cchoDgth.s:1728   .text.i2c_pec_enable:0000000000000000 .L0 
C:\Users\CYMR90~1\AppData\Local\Temp\cchoDgth.s:1729   .text.i2c_pec_enable:0000000000000000 .L0 
C:\Users\CYMR90~1\AppData\Local\Temp\cchoDgth.s:1730   .text.i2c_pec_enable:0000000000000002 .L0 
C:\Users\CYMR90~1\AppData\Local\Temp\cchoDgth.s:1732   .text.i2c_pec_enable:0000000000000004 .L0 
C:\Users\CYMR90~1\AppData\Local\Temp\cchoDgth.s:1734   .text.i2c_pec_enable:0000000000000006 .L0 
C:\Users\CYMR90~1\AppData\Local\Temp\cchoDgth.s:1737   .text.i2c_pec_enable:000000000000000a .L0 
C:\Users\CYMR90~1\AppData\Local\Temp\cchoDgth.s:1744   .text.i2c_pec_enable:000000000000001c .L0 
C:\Users\CYMR90~1\AppData\Local\Temp\cchoDgth.s:1746   .text.i2c_pec_enable:0000000000000020 .L0 
C:\Users\CYMR90~1\AppData\Local\Temp\cchoDgth.s:1747   .text.i2c_pec_enable:0000000000000020 .L0 
C:\Users\CYMR90~1\AppData\Local\Temp\cchoDgth.s:1749   .text.i2c_pec_enable:0000000000000022 .L0 
C:\Users\CYMR90~1\AppData\Local\Temp\cchoDgth.s:1751   .text.i2c_pec_enable:0000000000000024 .L0 
C:\Users\CYMR90~1\AppData\Local\Temp\cchoDgth.s:1758   .text.i2c_pec_disable:0000000000000000 i2c_pec_disable
C:\Users\CYMR90~1\AppData\Local\Temp\cchoDgth.s:1761   .text.i2c_pec_disable:0000000000000000 .L0 
C:\Users\CYMR90~1\AppData\Local\Temp\cchoDgth.s:1762   .text.i2c_pec_disable:0000000000000000 .L0 
C:\Users\CYMR90~1\AppData\Local\Temp\cchoDgth.s:1763   .text.i2c_pec_disable:0000000000000002 .L0 
C:\Users\CYMR90~1\AppData\Local\Temp\cchoDgth.s:1765   .text.i2c_pec_disable:0000000000000004 .L0 
C:\Users\CYMR90~1\AppData\Local\Temp\cchoDgth.s:1767   .text.i2c_pec_disable:0000000000000006 .L0 
C:\Users\CYMR90~1\AppData\Local\Temp\cchoDgth.s:1770   .text.i2c_pec_disable:000000000000000a .L0 
C:\Users\CYMR90~1\AppData\Local\Temp\cchoDgth.s:1778   .text.i2c_pec_disable:000000000000001e .L0 
C:\Users\CYMR90~1\AppData\Local\Temp\cchoDgth.s:1780   .text.i2c_pec_disable:0000000000000022 .L0 
C:\Users\CYMR90~1\AppData\Local\Temp\cchoDgth.s:1781   .text.i2c_pec_disable:0000000000000022 .L0 
C:\Users\CYMR90~1\AppData\Local\Temp\cchoDgth.s:1783   .text.i2c_pec_disable:0000000000000024 .L0 
C:\Users\CYMR90~1\AppData\Local\Temp\cchoDgth.s:1785   .text.i2c_pec_disable:0000000000000026 .L0 
C:\Users\CYMR90~1\AppData\Local\Temp\cchoDgth.s:1792   .text.i2c_pec_value_get:0000000000000000 i2c_pec_value_get
C:\Users\CYMR90~1\AppData\Local\Temp\cchoDgth.s:1795   .text.i2c_pec_value_get:0000000000000000 .L0 
C:\Users\CYMR90~1\AppData\Local\Temp\cchoDgth.s:1796   .text.i2c_pec_value_get:0000000000000000 .L0 
C:\Users\CYMR90~1\AppData\Local\Temp\cchoDgth.s:1797   .text.i2c_pec_value_get:0000000000000002 .L0 
C:\Users\CYMR90~1\AppData\Local\Temp\cchoDgth.s:1799   .text.i2c_pec_value_get:0000000000000004 .L0 
C:\Users\CYMR90~1\AppData\Local\Temp\cchoDgth.s:1801   .text.i2c_pec_value_get:0000000000000006 .L0 
C:\Users\CYMR90~1\AppData\Local\Temp\cchoDgth.s:1804   .text.i2c_pec_value_get:000000000000000a .L0 
C:\Users\CYMR90~1\AppData\Local\Temp\cchoDgth.s:1807   .text.i2c_pec_value_get:0000000000000012 .L0 
C:\Users\CYMR90~1\AppData\Local\Temp\cchoDgth.s:1810   .text.i2c_pec_value_get:0000000000000018 .L0 
C:\Users\CYMR90~1\AppData\Local\Temp\cchoDgth.s:1812   .text.i2c_pec_value_get:000000000000001c .L0 
C:\Users\CYMR90~1\AppData\Local\Temp\cchoDgth.s:1813   .text.i2c_pec_value_get:000000000000001c .L0 
C:\Users\CYMR90~1\AppData\Local\Temp\cchoDgth.s:1815   .text.i2c_pec_value_get:000000000000001e .L0 
C:\Users\CYMR90~1\AppData\Local\Temp\cchoDgth.s:1817   .text.i2c_pec_value_get:0000000000000020 .L0 
C:\Users\CYMR90~1\AppData\Local\Temp\cchoDgth.s:1824   .text.i2c_smbus_alert_enable:0000000000000000 i2c_smbus_alert_enable
C:\Users\CYMR90~1\AppData\Local\Temp\cchoDgth.s:1827   .text.i2c_smbus_alert_enable:0000000000000000 .L0 
C:\Users\CYMR90~1\AppData\Local\Temp\cchoDgth.s:1828   .text.i2c_smbus_alert_enable:0000000000000000 .L0 
C:\Users\CYMR90~1\AppData\Local\Temp\cchoDgth.s:1829   .text.i2c_smbus_alert_enable:0000000000000002 .L0 
C:\Users\CYMR90~1\AppData\Local\Temp\cchoDgth.s:1831   .text.i2c_smbus_alert_enable:0000000000000004 .L0 
C:\Users\CYMR90~1\AppData\Local\Temp\cchoDgth.s:1833   .text.i2c_smbus_alert_enable:0000000000000006 .L0 
C:\Users\CYMR90~1\AppData\Local\Temp\cchoDgth.s:1836   .text.i2c_smbus_alert_enable:000000000000000a .L0 
C:\Users\CYMR90~1\AppData\Local\Temp\cchoDgth.s:1843   .text.i2c_smbus_alert_enable:000000000000001c .L0 
C:\Users\CYMR90~1\AppData\Local\Temp\cchoDgth.s:1845   .text.i2c_smbus_alert_enable:0000000000000020 .L0 
C:\Users\CYMR90~1\AppData\Local\Temp\cchoDgth.s:1846   .text.i2c_smbus_alert_enable:0000000000000020 .L0 
C:\Users\CYMR90~1\AppData\Local\Temp\cchoDgth.s:1848   .text.i2c_smbus_alert_enable:0000000000000022 .L0 
C:\Users\CYMR90~1\AppData\Local\Temp\cchoDgth.s:1850   .text.i2c_smbus_alert_enable:0000000000000024 .L0 
C:\Users\CYMR90~1\AppData\Local\Temp\cchoDgth.s:1857   .text.i2c_smbus_alert_disable:0000000000000000 i2c_smbus_alert_disable
C:\Users\CYMR90~1\AppData\Local\Temp\cchoDgth.s:1860   .text.i2c_smbus_alert_disable:0000000000000000 .L0 
C:\Users\CYMR90~1\AppData\Local\Temp\cchoDgth.s:1861   .text.i2c_smbus_alert_disable:0000000000000000 .L0 
C:\Users\CYMR90~1\AppData\Local\Temp\cchoDgth.s:1862   .text.i2c_smbus_alert_disable:0000000000000002 .L0 
C:\Users\CYMR90~1\AppData\Local\Temp\cchoDgth.s:1864   .text.i2c_smbus_alert_disable:0000000000000004 .L0 
C:\Users\CYMR90~1\AppData\Local\Temp\cchoDgth.s:1866   .text.i2c_smbus_alert_disable:0000000000000006 .L0 
C:\Users\CYMR90~1\AppData\Local\Temp\cchoDgth.s:1869   .text.i2c_smbus_alert_disable:000000000000000a .L0 
C:\Users\CYMR90~1\AppData\Local\Temp\cchoDgth.s:1877   .text.i2c_smbus_alert_disable:000000000000001e .L0 
C:\Users\CYMR90~1\AppData\Local\Temp\cchoDgth.s:1879   .text.i2c_smbus_alert_disable:0000000000000022 .L0 
C:\Users\CYMR90~1\AppData\Local\Temp\cchoDgth.s:1880   .text.i2c_smbus_alert_disable:0000000000000022 .L0 
C:\Users\CYMR90~1\AppData\Local\Temp\cchoDgth.s:1882   .text.i2c_smbus_alert_disable:0000000000000024 .L0 
C:\Users\CYMR90~1\AppData\Local\Temp\cchoDgth.s:1884   .text.i2c_smbus_alert_disable:0000000000000026 .L0 
C:\Users\CYMR90~1\AppData\Local\Temp\cchoDgth.s:1891   .text.i2c_smbus_default_addr_enable:0000000000000000 i2c_smbus_default_addr_enable
C:\Users\CYMR90~1\AppData\Local\Temp\cchoDgth.s:1894   .text.i2c_smbus_default_addr_enable:0000000000000000 .L0 
C:\Users\CYMR90~1\AppData\Local\Temp\cchoDgth.s:1895   .text.i2c_smbus_default_addr_enable:0000000000000000 .L0 
C:\Users\CYMR90~1\AppData\Local\Temp\cchoDgth.s:1896   .text.i2c_smbus_default_addr_enable:0000000000000002 .L0 
C:\Users\CYMR90~1\AppData\Local\Temp\cchoDgth.s:1898   .text.i2c_smbus_default_addr_enable:0000000000000004 .L0 
C:\Users\CYMR90~1\AppData\Local\Temp\cchoDgth.s:1900   .text.i2c_smbus_default_addr_enable:0000000000000006 .L0 
C:\Users\CYMR90~1\AppData\Local\Temp\cchoDgth.s:1903   .text.i2c_smbus_default_addr_enable:000000000000000a .L0 
C:\Users\CYMR90~1\AppData\Local\Temp\cchoDgth.s:1910   .text.i2c_smbus_default_addr_enable:000000000000001c .L0 
C:\Users\CYMR90~1\AppData\Local\Temp\cchoDgth.s:1912   .text.i2c_smbus_default_addr_enable:0000000000000020 .L0 
C:\Users\CYMR90~1\AppData\Local\Temp\cchoDgth.s:1913   .text.i2c_smbus_default_addr_enable:0000000000000020 .L0 
C:\Users\CYMR90~1\AppData\Local\Temp\cchoDgth.s:1915   .text.i2c_smbus_default_addr_enable:0000000000000022 .L0 
C:\Users\CYMR90~1\AppData\Local\Temp\cchoDgth.s:1917   .text.i2c_smbus_default_addr_enable:0000000000000024 .L0 
C:\Users\CYMR90~1\AppData\Local\Temp\cchoDgth.s:1924   .text.i2c_smbus_default_addr_disable:0000000000000000 i2c_smbus_default_addr_disable
C:\Users\CYMR90~1\AppData\Local\Temp\cchoDgth.s:1927   .text.i2c_smbus_default_addr_disable:0000000000000000 .L0 
C:\Users\CYMR90~1\AppData\Local\Temp\cchoDgth.s:1928   .text.i2c_smbus_default_addr_disable:0000000000000000 .L0 
C:\Users\CYMR90~1\AppData\Local\Temp\cchoDgth.s:1929   .text.i2c_smbus_default_addr_disable:0000000000000002 .L0 
C:\Users\CYMR90~1\AppData\Local\Temp\cchoDgth.s:1931   .text.i2c_smbus_default_addr_disable:0000000000000004 .L0 
C:\Users\CYMR90~1\AppData\Local\Temp\cchoDgth.s:1933   .text.i2c_smbus_default_addr_disable:0000000000000006 .L0 
C:\Users\CYMR90~1\AppData\Local\Temp\cchoDgth.s:1936   .text.i2c_smbus_default_addr_disable:000000000000000a .L0 
C:\Users\CYMR90~1\AppData\Local\Temp\cchoDgth.s:1944   .text.i2c_smbus_default_addr_disable:000000000000001e .L0 
C:\Users\CYMR90~1\AppData\Local\Temp\cchoDgth.s:1946   .text.i2c_smbus_default_addr_disable:0000000000000022 .L0 
C:\Users\CYMR90~1\AppData\Local\Temp\cchoDgth.s:1947   .text.i2c_smbus_default_addr_disable:0000000000000022 .L0 
C:\Users\CYMR90~1\AppData\Local\Temp\cchoDgth.s:1949   .text.i2c_smbus_default_addr_disable:0000000000000024 .L0 
C:\Users\CYMR90~1\AppData\Local\Temp\cchoDgth.s:1951   .text.i2c_smbus_default_addr_disable:0000000000000026 .L0 
C:\Users\CYMR90~1\AppData\Local\Temp\cchoDgth.s:1958   .text.i2c_smbus_host_addr_enable:0000000000000000 i2c_smbus_host_addr_enable
C:\Users\CYMR90~1\AppData\Local\Temp\cchoDgth.s:1961   .text.i2c_smbus_host_addr_enable:0000000000000000 .L0 
C:\Users\CYMR90~1\AppData\Local\Temp\cchoDgth.s:1962   .text.i2c_smbus_host_addr_enable:0000000000000000 .L0 
C:\Users\CYMR90~1\AppData\Local\Temp\cchoDgth.s:1963   .text.i2c_smbus_host_addr_enable:0000000000000002 .L0 
C:\Users\CYMR90~1\AppData\Local\Temp\cchoDgth.s:1965   .text.i2c_smbus_host_addr_enable:0000000000000004 .L0 
C:\Users\CYMR90~1\AppData\Local\Temp\cchoDgth.s:1967   .text.i2c_smbus_host_addr_enable:0000000000000006 .L0 
C:\Users\CYMR90~1\AppData\Local\Temp\cchoDgth.s:1970   .text.i2c_smbus_host_addr_enable:000000000000000a .L0 
C:\Users\CYMR90~1\AppData\Local\Temp\cchoDgth.s:1977   .text.i2c_smbus_host_addr_enable:000000000000001c .L0 
C:\Users\CYMR90~1\AppData\Local\Temp\cchoDgth.s:1979   .text.i2c_smbus_host_addr_enable:0000000000000020 .L0 
C:\Users\CYMR90~1\AppData\Local\Temp\cchoDgth.s:1980   .text.i2c_smbus_host_addr_enable:0000000000000020 .L0 
C:\Users\CYMR90~1\AppData\Local\Temp\cchoDgth.s:1982   .text.i2c_smbus_host_addr_enable:0000000000000022 .L0 
C:\Users\CYMR90~1\AppData\Local\Temp\cchoDgth.s:1984   .text.i2c_smbus_host_addr_enable:0000000000000024 .L0 
C:\Users\CYMR90~1\AppData\Local\Temp\cchoDgth.s:1991   .text.i2c_smbus_host_addr_disable:0000000000000000 i2c_smbus_host_addr_disable
C:\Users\CYMR90~1\AppData\Local\Temp\cchoDgth.s:1994   .text.i2c_smbus_host_addr_disable:0000000000000000 .L0 
C:\Users\CYMR90~1\AppData\Local\Temp\cchoDgth.s:1995   .text.i2c_smbus_host_addr_disable:0000000000000000 .L0 
C:\Users\CYMR90~1\AppData\Local\Temp\cchoDgth.s:1996   .text.i2c_smbus_host_addr_disable:0000000000000002 .L0 
C:\Users\CYMR90~1\AppData\Local\Temp\cchoDgth.s:1998   .text.i2c_smbus_host_addr_disable:0000000000000004 .L0 
C:\Users\CYMR90~1\AppData\Local\Temp\cchoDgth.s:2000   .text.i2c_smbus_host_addr_disable:0000000000000006 .L0 
C:\Users\CYMR90~1\AppData\Local\Temp\cchoDgth.s:2003   .text.i2c_smbus_host_addr_disable:000000000000000a .L0 
C:\Users\CYMR90~1\AppData\Local\Temp\cchoDgth.s:2011   .text.i2c_smbus_host_addr_disable:000000000000001e .L0 
C:\Users\CYMR90~1\AppData\Local\Temp\cchoDgth.s:2013   .text.i2c_smbus_host_addr_disable:0000000000000022 .L0 
C:\Users\CYMR90~1\AppData\Local\Temp\cchoDgth.s:2014   .text.i2c_smbus_host_addr_disable:0000000000000022 .L0 
C:\Users\CYMR90~1\AppData\Local\Temp\cchoDgth.s:2016   .text.i2c_smbus_host_addr_disable:0000000000000024 .L0 
C:\Users\CYMR90~1\AppData\Local\Temp\cchoDgth.s:2018   .text.i2c_smbus_host_addr_disable:0000000000000026 .L0 
C:\Users\CYMR90~1\AppData\Local\Temp\cchoDgth.s:2025   .text.i2c_extented_clock_timeout_enable:0000000000000000 i2c_extented_clock_timeout_enable
C:\Users\CYMR90~1\AppData\Local\Temp\cchoDgth.s:2028   .text.i2c_extented_clock_timeout_enable:0000000000000000 .L0 
C:\Users\CYMR90~1\AppData\Local\Temp\cchoDgth.s:2029   .text.i2c_extented_clock_timeout_enable:0000000000000000 .L0 
C:\Users\CYMR90~1\AppData\Local\Temp\cchoDgth.s:2030   .text.i2c_extented_clock_timeout_enable:0000000000000002 .L0 
C:\Users\CYMR90~1\AppData\Local\Temp\cchoDgth.s:2032   .text.i2c_extented_clock_timeout_enable:0000000000000004 .L0 
C:\Users\CYMR90~1\AppData\Local\Temp\cchoDgth.s:2034   .text.i2c_extented_clock_timeout_enable:0000000000000006 .L0 
C:\Users\CYMR90~1\AppData\Local\Temp\cchoDgth.s:2037   .text.i2c_extented_clock_timeout_enable:000000000000000a .L0 
C:\Users\CYMR90~1\AppData\Local\Temp\cchoDgth.s:2047   .text.i2c_extented_clock_timeout_enable:0000000000000022 .L0 
C:\Users\CYMR90~1\AppData\Local\Temp\cchoDgth.s:2049   .text.i2c_extented_clock_timeout_enable:0000000000000026 .L0 
C:\Users\CYMR90~1\AppData\Local\Temp\cchoDgth.s:2050   .text.i2c_extented_clock_timeout_enable:0000000000000026 .L0 
C:\Users\CYMR90~1\AppData\Local\Temp\cchoDgth.s:2052   .text.i2c_extented_clock_timeout_enable:0000000000000028 .L0 
C:\Users\CYMR90~1\AppData\Local\Temp\cchoDgth.s:2054   .text.i2c_extented_clock_timeout_enable:000000000000002a .L0 
C:\Users\CYMR90~1\AppData\Local\Temp\cchoDgth.s:2061   .text.i2c_extented_clock_timeout_disable:0000000000000000 i2c_extented_clock_timeout_disable
C:\Users\CYMR90~1\AppData\Local\Temp\cchoDgth.s:2064   .text.i2c_extented_clock_timeout_disable:0000000000000000 .L0 
C:\Users\CYMR90~1\AppData\Local\Temp\cchoDgth.s:2065   .text.i2c_extented_clock_timeout_disable:0000000000000000 .L0 
C:\Users\CYMR90~1\AppData\Local\Temp\cchoDgth.s:2066   .text.i2c_extented_clock_timeout_disable:0000000000000002 .L0 
C:\Users\CYMR90~1\AppData\Local\Temp\cchoDgth.s:2068   .text.i2c_extented_clock_timeout_disable:0000000000000004 .L0 
C:\Users\CYMR90~1\AppData\Local\Temp\cchoDgth.s:2070   .text.i2c_extented_clock_timeout_disable:0000000000000006 .L0 
C:\Users\CYMR90~1\AppData\Local\Temp\cchoDgth.s:2073   .text.i2c_extented_clock_timeout_disable:000000000000000a .L0 
C:\Users\CYMR90~1\AppData\Local\Temp\cchoDgth.s:2084   .text.i2c_extented_clock_timeout_disable:0000000000000026 .L0 
C:\Users\CYMR90~1\AppData\Local\Temp\cchoDgth.s:2086   .text.i2c_extented_clock_timeout_disable:000000000000002a .L0 
C:\Users\CYMR90~1\AppData\Local\Temp\cchoDgth.s:2087   .text.i2c_extented_clock_timeout_disable:000000000000002a .L0 
C:\Users\CYMR90~1\AppData\Local\Temp\cchoDgth.s:2089   .text.i2c_extented_clock_timeout_disable:000000000000002c .L0 
C:\Users\CYMR90~1\AppData\Local\Temp\cchoDgth.s:2091   .text.i2c_extented_clock_timeout_disable:000000000000002e .L0 
C:\Users\CYMR90~1\AppData\Local\Temp\cchoDgth.s:2098   .text.i2c_clock_timeout_enable:0000000000000000 i2c_clock_timeout_enable
C:\Users\CYMR90~1\AppData\Local\Temp\cchoDgth.s:2101   .text.i2c_clock_timeout_enable:0000000000000000 .L0 
C:\Users\CYMR90~1\AppData\Local\Temp\cchoDgth.s:2102   .text.i2c_clock_timeout_enable:0000000000000000 .L0 
C:\Users\CYMR90~1\AppData\Local\Temp\cchoDgth.s:2103   .text.i2c_clock_timeout_enable:0000000000000002 .L0 
C:\Users\CYMR90~1\AppData\Local\Temp\cchoDgth.s:2105   .text.i2c_clock_timeout_enable:0000000000000004 .L0 
C:\Users\CYMR90~1\AppData\Local\Temp\cchoDgth.s:2107   .text.i2c_clock_timeout_enable:0000000000000006 .L0 
C:\Users\CYMR90~1\AppData\Local\Temp\cchoDgth.s:2110   .text.i2c_clock_timeout_enable:000000000000000a .L0 
C:\Users\CYMR90~1\AppData\Local\Temp\cchoDgth.s:2120   .text.i2c_clock_timeout_enable:0000000000000020 .L0 
C:\Users\CYMR90~1\AppData\Local\Temp\cchoDgth.s:2122   .text.i2c_clock_timeout_enable:0000000000000024 .L0 
C:\Users\CYMR90~1\AppData\Local\Temp\cchoDgth.s:2123   .text.i2c_clock_timeout_enable:0000000000000024 .L0 
C:\Users\CYMR90~1\AppData\Local\Temp\cchoDgth.s:2125   .text.i2c_clock_timeout_enable:0000000000000026 .L0 
C:\Users\CYMR90~1\AppData\Local\Temp\cchoDgth.s:2127   .text.i2c_clock_timeout_enable:0000000000000028 .L0 
C:\Users\CYMR90~1\AppData\Local\Temp\cchoDgth.s:2134   .text.i2c_clock_timeout_disable:0000000000000000 i2c_clock_timeout_disable
C:\Users\CYMR90~1\AppData\Local\Temp\cchoDgth.s:2137   .text.i2c_clock_timeout_disable:0000000000000000 .L0 
C:\Users\CYMR90~1\AppData\Local\Temp\cchoDgth.s:2138   .text.i2c_clock_timeout_disable:0000000000000000 .L0 
C:\Users\CYMR90~1\AppData\Local\Temp\cchoDgth.s:2139   .text.i2c_clock_timeout_disable:0000000000000002 .L0 
C:\Users\CYMR90~1\AppData\Local\Temp\cchoDgth.s:2141   .text.i2c_clock_timeout_disable:0000000000000004 .L0 
C:\Users\CYMR90~1\AppData\Local\Temp\cchoDgth.s:2143   .text.i2c_clock_timeout_disable:0000000000000006 .L0 
C:\Users\CYMR90~1\AppData\Local\Temp\cchoDgth.s:2146   .text.i2c_clock_timeout_disable:000000000000000a .L0 
C:\Users\CYMR90~1\AppData\Local\Temp\cchoDgth.s:2157   .text.i2c_clock_timeout_disable:0000000000000022 .L0 
C:\Users\CYMR90~1\AppData\Local\Temp\cchoDgth.s:2159   .text.i2c_clock_timeout_disable:0000000000000026 .L0 
C:\Users\CYMR90~1\AppData\Local\Temp\cchoDgth.s:2160   .text.i2c_clock_timeout_disable:0000000000000026 .L0 
C:\Users\CYMR90~1\AppData\Local\Temp\cchoDgth.s:2162   .text.i2c_clock_timeout_disable:0000000000000028 .L0 
C:\Users\CYMR90~1\AppData\Local\Temp\cchoDgth.s:2164   .text.i2c_clock_timeout_disable:000000000000002a .L0 
C:\Users\CYMR90~1\AppData\Local\Temp\cchoDgth.s:2171   .text.i2c_bus_timeout_b_config:0000000000000000 i2c_bus_timeout_b_config
C:\Users\CYMR90~1\AppData\Local\Temp\cchoDgth.s:2174   .text.i2c_bus_timeout_b_config:0000000000000000 .L0 
C:\Users\CYMR90~1\AppData\Local\Temp\cchoDgth.s:2175   .text.i2c_bus_timeout_b_config:0000000000000000 .L0 
C:\Users\CYMR90~1\AppData\Local\Temp\cchoDgth.s:2176   .text.i2c_bus_timeout_b_config:0000000000000002 .L0 
C:\Users\CYMR90~1\AppData\Local\Temp\cchoDgth.s:2178   .text.i2c_bus_timeout_b_config:0000000000000004 .L0 
C:\Users\CYMR90~1\AppData\Local\Temp\cchoDgth.s:2180   .text.i2c_bus_timeout_b_config:0000000000000006 .L0 
C:\Users\CYMR90~1\AppData\Local\Temp\cchoDgth.s:2184   .text.i2c_bus_timeout_b_config:000000000000000e .L0 
C:\Users\CYMR90~1\AppData\Local\Temp\cchoDgth.s:2195   .text.i2c_bus_timeout_b_config:0000000000000028 .L0 
C:\Users\CYMR90~1\AppData\Local\Temp\cchoDgth.s:2199   .text.i2c_bus_timeout_b_config:0000000000000030 .L0 
C:\Users\CYMR90~1\AppData\Local\Temp\cchoDgth.s:2202   .text.i2c_bus_timeout_b_config:0000000000000036 .L0 
C:\Users\CYMR90~1\AppData\Local\Temp\cchoDgth.s:2207   .text.i2c_bus_timeout_b_config:0000000000000040 .L0 
C:\Users\CYMR90~1\AppData\Local\Temp\cchoDgth.s:2209   .text.i2c_bus_timeout_b_config:0000000000000044 .L0 
C:\Users\CYMR90~1\AppData\Local\Temp\cchoDgth.s:2210   .text.i2c_bus_timeout_b_config:0000000000000044 .L0 
C:\Users\CYMR90~1\AppData\Local\Temp\cchoDgth.s:2212   .text.i2c_bus_timeout_b_config:0000000000000046 .L0 
C:\Users\CYMR90~1\AppData\Local\Temp\cchoDgth.s:2214   .text.i2c_bus_timeout_b_config:0000000000000048 .L0 
C:\Users\CYMR90~1\AppData\Local\Temp\cchoDgth.s:2221   .text.i2c_bus_timeout_a_config:0000000000000000 i2c_bus_timeout_a_config
C:\Users\CYMR90~1\AppData\Local\Temp\cchoDgth.s:2224   .text.i2c_bus_timeout_a_config:0000000000000000 .L0 
C:\Users\CYMR90~1\AppData\Local\Temp\cchoDgth.s:2225   .text.i2c_bus_timeout_a_config:0000000000000000 .L0 
C:\Users\CYMR90~1\AppData\Local\Temp\cchoDgth.s:2226   .text.i2c_bus_timeout_a_config:0000000000000002 .L0 
C:\Users\CYMR90~1\AppData\Local\Temp\cchoDgth.s:2228   .text.i2c_bus_timeout_a_config:0000000000000004 .L0 
C:\Users\CYMR90~1\AppData\Local\Temp\cchoDgth.s:2230   .text.i2c_bus_timeout_a_config:0000000000000006 .L0 
C:\Users\CYMR90~1\AppData\Local\Temp\cchoDgth.s:2234   .text.i2c_bus_timeout_a_config:000000000000000e .L0 
C:\Users\CYMR90~1\AppData\Local\Temp\cchoDgth.s:2244   .text.i2c_bus_timeout_a_config:0000000000000024 .L0 
C:\Users\CYMR90~1\AppData\Local\Temp\cchoDgth.s:2254   .text.i2c_bus_timeout_a_config:000000000000003c .L0 
C:\Users\CYMR90~1\AppData\Local\Temp\cchoDgth.s:2256   .text.i2c_bus_timeout_a_config:0000000000000040 .L0 
C:\Users\CYMR90~1\AppData\Local\Temp\cchoDgth.s:2257   .text.i2c_bus_timeout_a_config:0000000000000040 .L0 
C:\Users\CYMR90~1\AppData\Local\Temp\cchoDgth.s:2259   .text.i2c_bus_timeout_a_config:0000000000000042 .L0 
C:\Users\CYMR90~1\AppData\Local\Temp\cchoDgth.s:2261   .text.i2c_bus_timeout_a_config:0000000000000044 .L0 
C:\Users\CYMR90~1\AppData\Local\Temp\cchoDgth.s:2268   .text.i2c_idle_clock_timeout_config:0000000000000000 i2c_idle_clock_timeout_config
C:\Users\CYMR90~1\AppData\Local\Temp\cchoDgth.s:2271   .text.i2c_idle_clock_timeout_config:0000000000000000 .L0 
C:\Users\CYMR90~1\AppData\Local\Temp\cchoDgth.s:2272   .text.i2c_idle_clock_timeout_config:0000000000000000 .L0 
C:\Users\CYMR90~1\AppData\Local\Temp\cchoDgth.s:2273   .text.i2c_idle_clock_timeout_config:0000000000000002 .L0 
C:\Users\CYMR90~1\AppData\Local\Temp\cchoDgth.s:2275   .text.i2c_idle_clock_timeout_config:0000000000000004 .L0 
C:\Users\CYMR90~1\AppData\Local\Temp\cchoDgth.s:2277   .text.i2c_idle_clock_timeout_config:0000000000000006 .L0 
C:\Users\CYMR90~1\AppData\Local\Temp\cchoDgth.s:2281   .text.i2c_idle_clock_timeout_config:000000000000000e .L0 
C:\Users\CYMR90~1\AppData\Local\Temp\cchoDgth.s:2292   .text.i2c_idle_clock_timeout_config:0000000000000026 .L0 
C:\Users\CYMR90~1\AppData\Local\Temp\cchoDgth.s:2302   .text.i2c_idle_clock_timeout_config:000000000000003e .L0 
C:\Users\CYMR90~1\AppData\Local\Temp\cchoDgth.s:2304   .text.i2c_idle_clock_timeout_config:0000000000000042 .L0 
C:\Users\CYMR90~1\AppData\Local\Temp\cchoDgth.s:2305   .text.i2c_idle_clock_timeout_config:0000000000000042 .L0 
C:\Users\CYMR90~1\AppData\Local\Temp\cchoDgth.s:2307   .text.i2c_idle_clock_timeout_config:0000000000000044 .L0 
C:\Users\CYMR90~1\AppData\Local\Temp\cchoDgth.s:2309   .text.i2c_idle_clock_timeout_config:0000000000000046 .L0 
C:\Users\CYMR90~1\AppData\Local\Temp\cchoDgth.s:2316   .text.i2c_flag_get:0000000000000000 i2c_flag_get
C:\Users\CYMR90~1\AppData\Local\Temp\cchoDgth.s:2319   .text.i2c_flag_get:0000000000000000 .L0 
C:\Users\CYMR90~1\AppData\Local\Temp\cchoDgth.s:2320   .text.i2c_flag_get:0000000000000000 .L0 
C:\Users\CYMR90~1\AppData\Local\Temp\cchoDgth.s:2321   .text.i2c_flag_get:0000000000000002 .L0 
C:\Users\CYMR90~1\AppData\Local\Temp\cchoDgth.s:2323   .text.i2c_flag_get:0000000000000004 .L0 
C:\Users\CYMR90~1\AppData\Local\Temp\cchoDgth.s:2325   .text.i2c_flag_get:0000000000000006 .L0 
C:\Users\CYMR90~1\AppData\Local\Temp\cchoDgth.s:2329   .text.i2c_flag_get:000000000000000e .L0 
C:\Users\CYMR90~1\AppData\Local\Temp\cchoDgth.s:2333   .text.i2c_flag_get:0000000000000016 .L0 
C:\Users\CYMR90~1\AppData\Local\Temp\cchoDgth.s:2336   .text.i2c_flag_get:000000000000001c .L0 
C:\Users\CYMR90~1\AppData\Local\Temp\cchoDgth.s:2338   .text.i2c_flag_get:000000000000001e .L0 
C:\Users\CYMR90~1\AppData\Local\Temp\cchoDgth.s:2342   .text.i2c_flag_get:0000000000000022 .L0 
C:\Users\CYMR90~1\AppData\Local\Temp\cchoDgth.s:2345   .text.i2c_flag_get:0000000000000024 .L0 
C:\Users\CYMR90~1\AppData\Local\Temp\cchoDgth.s:2347   .text.i2c_flag_get:0000000000000028 .L0 
C:\Users\CYMR90~1\AppData\Local\Temp\cchoDgth.s:2348   .text.i2c_flag_get:0000000000000028 .L0 
C:\Users\CYMR90~1\AppData\Local\Temp\cchoDgth.s:2350   .text.i2c_flag_get:000000000000002a .L0 
C:\Users\CYMR90~1\AppData\Local\Temp\cchoDgth.s:2352   .text.i2c_flag_get:000000000000002c .L0 
C:\Users\CYMR90~1\AppData\Local\Temp\cchoDgth.s:2359   .text.i2c_flag_clear:0000000000000000 i2c_flag_clear
C:\Users\CYMR90~1\AppData\Local\Temp\cchoDgth.s:2362   .text.i2c_flag_clear:0000000000000000 .L0 
C:\Users\CYMR90~1\AppData\Local\Temp\cchoDgth.s:2363   .text.i2c_flag_clear:0000000000000000 .L0 
C:\Users\CYMR90~1\AppData\Local\Temp\cchoDgth.s:2364   .text.i2c_flag_clear:0000000000000002 .L0 
C:\Users\CYMR90~1\AppData\Local\Temp\cchoDgth.s:2366   .text.i2c_flag_clear:0000000000000004 .L0 
C:\Users\CYMR90~1\AppData\Local\Temp\cchoDgth.s:2368   .text.i2c_flag_clear:0000000000000006 .L0 
C:\Users\CYMR90~1\AppData\Local\Temp\cchoDgth.s:2372   .text.i2c_flag_clear:000000000000000e .L0 
C:\Users\CYMR90~1\AppData\Local\Temp\cchoDgth.s:2382   .text.i2c_flag_clear:0000000000000026 .L0 
C:\Users\CYMR90~1\AppData\Local\Temp\cchoDgth.s:2384   .text.i2c_flag_clear:000000000000002a .L0 
C:\Users\CYMR90~1\AppData\Local\Temp\cchoDgth.s:2385   .text.i2c_flag_clear:000000000000002a .L0 
C:\Users\CYMR90~1\AppData\Local\Temp\cchoDgth.s:2387   .text.i2c_flag_clear:000000000000002c .L0 
C:\Users\CYMR90~1\AppData\Local\Temp\cchoDgth.s:2389   .text.i2c_flag_clear:000000000000002e .L0 
C:\Users\CYMR90~1\AppData\Local\Temp\cchoDgth.s:2396   .text.i2c_interrupt_enable:0000000000000000 i2c_interrupt_enable
C:\Users\CYMR90~1\AppData\Local\Temp\cchoDgth.s:2399   .text.i2c_interrupt_enable:0000000000000000 .L0 
C:\Users\CYMR90~1\AppData\Local\Temp\cchoDgth.s:2400   .text.i2c_interrupt_enable:0000000000000000 .L0 
C:\Users\CYMR90~1\AppData\Local\Temp\cchoDgth.s:2401   .text.i2c_interrupt_enable:0000000000000002 .L0 
C:\Users\CYMR90~1\AppData\Local\Temp\cchoDgth.s:2403   .text.i2c_interrupt_enable:0000000000000004 .L0 
C:\Users\CYMR90~1\AppData\Local\Temp\cchoDgth.s:2405   .text.i2c_interrupt_enable:0000000000000006 .L0 
C:\Users\CYMR90~1\AppData\Local\Temp\cchoDgth.s:2409   .text.i2c_interrupt_enable:000000000000000e .L0 
C:\Users\CYMR90~1\AppData\Local\Temp\cchoDgth.s:2416   .text.i2c_interrupt_enable:0000000000000020 .L0 
C:\Users\CYMR90~1\AppData\Local\Temp\cchoDgth.s:2418   .text.i2c_interrupt_enable:0000000000000024 .L0 
C:\Users\CYMR90~1\AppData\Local\Temp\cchoDgth.s:2419   .text.i2c_interrupt_enable:0000000000000024 .L0 
C:\Users\CYMR90~1\AppData\Local\Temp\cchoDgth.s:2421   .text.i2c_interrupt_enable:0000000000000026 .L0 
C:\Users\CYMR90~1\AppData\Local\Temp\cchoDgth.s:2423   .text.i2c_interrupt_enable:0000000000000028 .L0 
C:\Users\CYMR90~1\AppData\Local\Temp\cchoDgth.s:2430   .text.i2c_interrupt_disable:0000000000000000 i2c_interrupt_disable
C:\Users\CYMR90~1\AppData\Local\Temp\cchoDgth.s:2433   .text.i2c_interrupt_disable:0000000000000000 .L0 
C:\Users\CYMR90~1\AppData\Local\Temp\cchoDgth.s:2434   .text.i2c_interrupt_disable:0000000000000000 .L0 
C:\Users\CYMR90~1\AppData\Local\Temp\cchoDgth.s:2435   .text.i2c_interrupt_disable:0000000000000002 .L0 
C:\Users\CYMR90~1\AppData\Local\Temp\cchoDgth.s:2437   .text.i2c_interrupt_disable:0000000000000004 .L0 
C:\Users\CYMR90~1\AppData\Local\Temp\cchoDgth.s:2439   .text.i2c_interrupt_disable:0000000000000006 .L0 
C:\Users\CYMR90~1\AppData\Local\Temp\cchoDgth.s:2443   .text.i2c_interrupt_disable:000000000000000e .L0 
C:\Users\CYMR90~1\AppData\Local\Temp\cchoDgth.s:2446   .text.i2c_interrupt_disable:0000000000000014 .L0 
C:\Users\CYMR90~1\AppData\Local\Temp\cchoDgth.s:2449   .text.i2c_interrupt_disable:000000000000001c .L0 
C:\Users\CYMR90~1\AppData\Local\Temp\cchoDgth.s:2453   .text.i2c_interrupt_disable:0000000000000024 .L0 
C:\Users\CYMR90~1\AppData\Local\Temp\cchoDgth.s:2455   .text.i2c_interrupt_disable:0000000000000028 .L0 
C:\Users\CYMR90~1\AppData\Local\Temp\cchoDgth.s:2456   .text.i2c_interrupt_disable:0000000000000028 .L0 
C:\Users\CYMR90~1\AppData\Local\Temp\cchoDgth.s:2458   .text.i2c_interrupt_disable:000000000000002a .L0 
C:\Users\CYMR90~1\AppData\Local\Temp\cchoDgth.s:2460   .text.i2c_interrupt_disable:000000000000002c .L0 
C:\Users\CYMR90~1\AppData\Local\Temp\cchoDgth.s:2467   .text.i2c_interrupt_flag_get:0000000000000000 i2c_interrupt_flag_get
C:\Users\CYMR90~1\AppData\Local\Temp\cchoDgth.s:2470   .text.i2c_interrupt_flag_get:0000000000000000 .L0 
C:\Users\CYMR90~1\AppData\Local\Temp\cchoDgth.s:2471   .text.i2c_interrupt_flag_get:0000000000000000 .L0 
C:\Users\CYMR90~1\AppData\Local\Temp\cchoDgth.s:2472   .text.i2c_interrupt_flag_get:0000000000000002 .L0 
C:\Users\CYMR90~1\AppData\Local\Temp\cchoDgth.s:2474   .text.i2c_interrupt_flag_get:0000000000000004 .L0 
C:\Users\CYMR90~1\AppData\Local\Temp\cchoDgth.s:2476   .text.i2c_interrupt_flag_get:0000000000000006 .L0 
C:\Users\CYMR90~1\AppData\Local\Temp\cchoDgth.s:2480   .text.i2c_interrupt_flag_get:000000000000000e .L0 
C:\Users\CYMR90~1\AppData\Local\Temp\cchoDgth.s:2482   .text.i2c_interrupt_flag_get:0000000000000012 .L0 
C:\Users\CYMR90~1\AppData\Local\Temp\cchoDgth.s:2484   .text.i2c_interrupt_flag_get:0000000000000016 .L0 
C:\Users\CYMR90~1\AppData\Local\Temp\cchoDgth.s:2491   .text.i2c_interrupt_flag_get:0000000000000028 .L0 
C:\Users\CYMR90~1\AppData\Local\Temp\cchoDgth.s:2496   .text.i2c_interrupt_flag_get:0000000000000034 .L0 
C:\Users\CYMR90~1\AppData\Local\Temp\cchoDgth.s:2499   .text.i2c_interrupt_flag_get:000000000000003a .L0 
C:\Users\CYMR90~1\AppData\Local\Temp\cchoDgth.s:2505   .text.i2c_interrupt_flag_get:000000000000004a .L0 
C:\Users\CYMR90~1\AppData\Local\Temp\cchoDgth.s:2511   .text.i2c_interrupt_flag_get:0000000000000058 .L0 
C:\Users\CYMR90~1\AppData\Local\Temp\cchoDgth.s:2514   .text.i2c_interrupt_flag_get:000000000000005e .L0 
C:\Users\CYMR90~1\AppData\Local\Temp\cchoDgth.s:2517   .text.i2c_interrupt_flag_get:0000000000000064 .L0 
C:\Users\CYMR90~1\AppData\Local\Temp\cchoDgth.s:2520   .text.i2c_interrupt_flag_get:000000000000006a .L0 
C:\Users\CYMR90~1\AppData\Local\Temp\cchoDgth.s:2524   .text.i2c_interrupt_flag_get:000000000000006e .L0 
C:\Users\CYMR90~1\AppData\Local\Temp\cchoDgth.s:2527   .text.i2c_interrupt_flag_get:0000000000000070 .L0 
C:\Users\CYMR90~1\AppData\Local\Temp\cchoDgth.s:2529   .text.i2c_interrupt_flag_get:0000000000000074 .L0 
C:\Users\CYMR90~1\AppData\Local\Temp\cchoDgth.s:2530   .text.i2c_interrupt_flag_get:0000000000000074 .L0 
C:\Users\CYMR90~1\AppData\Local\Temp\cchoDgth.s:2532   .text.i2c_interrupt_flag_get:0000000000000076 .L0 
C:\Users\CYMR90~1\AppData\Local\Temp\cchoDgth.s:2534   .text.i2c_interrupt_flag_get:0000000000000078 .L0 
C:\Users\CYMR90~1\AppData\Local\Temp\cchoDgth.s:2541   .text.i2c_interrupt_flag_clear:0000000000000000 i2c_interrupt_flag_clear
C:\Users\CYMR90~1\AppData\Local\Temp\cchoDgth.s:2544   .text.i2c_interrupt_flag_clear:0000000000000000 .L0 
C:\Users\CYMR90~1\AppData\Local\Temp\cchoDgth.s:2545   .text.i2c_interrupt_flag_clear:0000000000000000 .L0 
C:\Users\CYMR90~1\AppData\Local\Temp\cchoDgth.s:2546   .text.i2c_interrupt_flag_clear:0000000000000002 .L0 
C:\Users\CYMR90~1\AppData\Local\Temp\cchoDgth.s:2548   .text.i2c_interrupt_flag_clear:0000000000000004 .L0 
C:\Users\CYMR90~1\AppData\Local\Temp\cchoDgth.s:2550   .text.i2c_interrupt_flag_clear:0000000000000006 .L0 
C:\Users\CYMR90~1\AppData\Local\Temp\cchoDgth.s:2554   .text.i2c_interrupt_flag_clear:000000000000000e .L0 
C:\Users\CYMR90~1\AppData\Local\Temp\cchoDgth.s:2558   .text.i2c_interrupt_flag_clear:0000000000000016 .L0 
C:\Users\CYMR90~1\AppData\Local\Temp\cchoDgth.s:2564   .text.i2c_interrupt_flag_clear:0000000000000024 .L0 
C:\Users\CYMR90~1\AppData\Local\Temp\cchoDgth.s:2569   .text.i2c_interrupt_flag_clear:000000000000002e .L0 
C:\Users\CYMR90~1\AppData\Local\Temp\cchoDgth.s:2571   .text.i2c_interrupt_flag_clear:0000000000000032 .L0 
C:\Users\CYMR90~1\AppData\Local\Temp\cchoDgth.s:2572   .text.i2c_interrupt_flag_clear:0000000000000032 .L0 
C:\Users\CYMR90~1\AppData\Local\Temp\cchoDgth.s:2574   .text.i2c_interrupt_flag_clear:0000000000000034 .L0 
C:\Users\CYMR90~1\AppData\Local\Temp\cchoDgth.s:2576   .text.i2c_interrupt_flag_clear:0000000000000036 .L0 
C:\Users\CYMR90~1\AppData\Local\Temp\cchoDgth.s:74     .text.i2c_deinit:0000000000000074 .L0 
C:\Users\CYMR90~1\AppData\Local\Temp\cchoDgth.s:170    .text.i2c_timing_config:00000000000000bc .L0 
C:\Users\CYMR90~1\AppData\Local\Temp\cchoDgth.s:215    .text.i2c_digital_noise_filter_config:0000000000000040 .L0 
C:\Users\CYMR90~1\AppData\Local\Temp\cchoDgth.s:249    .text.i2c_analog_noise_filter_enable:0000000000000024 .L0 
C:\Users\CYMR90~1\AppData\Local\Temp\cchoDgth.s:282    .text.i2c_analog_noise_filter_disable:0000000000000022 .L0 
C:\Users\CYMR90~1\AppData\Local\Temp\cchoDgth.s:354    .text.i2c_master_clock_config:0000000000000082 .L0 
C:\Users\CYMR90~1\AppData\Local\Temp\cchoDgth.s:418    .text.i2c_master_addressing:0000000000000072 .L0 
C:\Users\CYMR90~1\AppData\Local\Temp\cchoDgth.s:454    .text.i2c_address10_header_enable:0000000000000028 .L0 
C:\Users\CYMR90~1\AppData\Local\Temp\cchoDgth.s:491    .text.i2c_address10_header_disable:000000000000002a .L0 
C:\Users\CYMR90~1\AppData\Local\Temp\cchoDgth.s:528    .text.i2c_address10_enable:000000000000002c .L0 
C:\Users\CYMR90~1\AppData\Local\Temp\cchoDgth.s:565    .text.i2c_address10_disable:000000000000002c .L0 
C:\Users\CYMR90~1\AppData\Local\Temp\cchoDgth.s:601    .text.i2c_automatic_end_enable:000000000000002a .L0 
C:\Users\CYMR90~1\AppData\Local\Temp\cchoDgth.s:638    .text.i2c_automatic_end_disable:000000000000002c .L0 
C:\Users\CYMR90~1\AppData\Local\Temp\cchoDgth.s:671    .text.i2c_slave_response_to_gcall_enable:0000000000000024 .L0 
C:\Users\CYMR90~1\AppData\Local\Temp\cchoDgth.s:705    .text.i2c_slave_response_to_gcall_disable:0000000000000026 .L0 
C:\Users\CYMR90~1\AppData\Local\Temp\cchoDgth.s:739    .text.i2c_stretch_scl_low_enable:0000000000000024 .L0 
C:\Users\CYMR90~1\AppData\Local\Temp\cchoDgth.s:772    .text.i2c_stretch_scl_low_disable:0000000000000024 .L0 
C:\Users\CYMR90~1\AppData\Local\Temp\cchoDgth.s:824    .text.i2c_address_config:0000000000000050 .L0 
C:\Users\CYMR90~1\AppData\Local\Temp\cchoDgth.s:872    .text.i2c_address_bit_compare_config:0000000000000050 .L0 
C:\Users\CYMR90~1\AppData\Local\Temp\cchoDgth.s:909    .text.i2c_address_disable:000000000000002a .L0 
C:\Users\CYMR90~1\AppData\Local\Temp\cchoDgth.s:981    .text.i2c_second_address_config:0000000000000080 .L0 
C:\Users\CYMR90~1\AppData\Local\Temp\cchoDgth.s:1018   .text.i2c_second_address_disable:000000000000002a .L0 
C:\Users\CYMR90~1\AppData\Local\Temp\cchoDgth.s:1051   .text.i2c_recevied_address_get:0000000000000020 .L0 
C:\Users\CYMR90~1\AppData\Local\Temp\cchoDgth.s:1084   .text.i2c_slave_byte_control_enable:0000000000000022 .L0 
C:\Users\CYMR90~1\AppData\Local\Temp\cchoDgth.s:1118   .text.i2c_slave_byte_control_disable:0000000000000024 .L0 
C:\Users\CYMR90~1\AppData\Local\Temp\cchoDgth.s:1154   .text.i2c_nack_enable:0000000000000028 .L0 
C:\Users\CYMR90~1\AppData\Local\Temp\cchoDgth.s:1191   .text.i2c_nack_disable:000000000000002a .L0 
C:\Users\CYMR90~1\AppData\Local\Temp\cchoDgth.s:1224   .text.i2c_wakeup_from_deepsleep_enable:0000000000000024 .L0 
C:\Users\CYMR90~1\AppData\Local\Temp\cchoDgth.s:1258   .text.i2c_wakeup_from_deepsleep_disable:0000000000000026 .L0 
C:\Users\CYMR90~1\AppData\Local\Temp\cchoDgth.s:1290   .text.i2c_enable:0000000000000022 .L0 
C:\Users\CYMR90~1\AppData\Local\Temp\cchoDgth.s:1322   .text.i2c_disable:0000000000000020 .L0 
C:\Users\CYMR90~1\AppData\Local\Temp\cchoDgth.s:1358   .text.i2c_start_on_bus:0000000000000028 .L0 
C:\Users\CYMR90~1\AppData\Local\Temp\cchoDgth.s:1394   .text.i2c_stop_on_bus:0000000000000028 .L0 
C:\Users\CYMR90~1\AppData\Local\Temp\cchoDgth.s:1430   .text.i2c_data_transmit:000000000000002a .L0 
C:\Users\CYMR90~1\AppData\Local\Temp\cchoDgth.s:1462   .text.i2c_data_receive:0000000000000020 .L0 
C:\Users\CYMR90~1\AppData\Local\Temp\cchoDgth.s:1498   .text.i2c_reload_enable:000000000000002a .L0 
C:\Users\CYMR90~1\AppData\Local\Temp\cchoDgth.s:1535   .text.i2c_reload_disable:000000000000002c .L0 
C:\Users\CYMR90~1\AppData\Local\Temp\cchoDgth.s:1585   .text.i2c_transfer_byte_number_config:0000000000000048 .L0 
C:\Users\CYMR90~1\AppData\Local\Temp\cchoDgth.s:1634   .text.i2c_dma_enable:0000000000000040 .L0 
C:\Users\CYMR90~1\AppData\Local\Temp\cchoDgth.s:1685   .text.i2c_dma_disable:0000000000000044 .L0 
C:\Users\CYMR90~1\AppData\Local\Temp\cchoDgth.s:1721   .text.i2c_pec_transfer:000000000000002a .L0 
C:\Users\CYMR90~1\AppData\Local\Temp\cchoDgth.s:1754   .text.i2c_pec_enable:0000000000000024 .L0 
C:\Users\CYMR90~1\AppData\Local\Temp\cchoDgth.s:1788   .text.i2c_pec_disable:0000000000000026 .L0 
C:\Users\CYMR90~1\AppData\Local\Temp\cchoDgth.s:1820   .text.i2c_pec_value_get:0000000000000020 .L0 
C:\Users\CYMR90~1\AppData\Local\Temp\cchoDgth.s:1853   .text.i2c_smbus_alert_enable:0000000000000024 .L0 
C:\Users\CYMR90~1\AppData\Local\Temp\cchoDgth.s:1887   .text.i2c_smbus_alert_disable:0000000000000026 .L0 
C:\Users\CYMR90~1\AppData\Local\Temp\cchoDgth.s:1920   .text.i2c_smbus_default_addr_enable:0000000000000024 .L0 
C:\Users\CYMR90~1\AppData\Local\Temp\cchoDgth.s:1954   .text.i2c_smbus_default_addr_disable:0000000000000026 .L0 
C:\Users\CYMR90~1\AppData\Local\Temp\cchoDgth.s:1987   .text.i2c_smbus_host_addr_enable:0000000000000024 .L0 
C:\Users\CYMR90~1\AppData\Local\Temp\cchoDgth.s:2021   .text.i2c_smbus_host_addr_disable:0000000000000026 .L0 
C:\Users\CYMR90~1\AppData\Local\Temp\cchoDgth.s:2057   .text.i2c_extented_clock_timeout_enable:000000000000002a .L0 
C:\Users\CYMR90~1\AppData\Local\Temp\cchoDgth.s:2094   .text.i2c_extented_clock_timeout_disable:000000000000002e .L0 
C:\Users\CYMR90~1\AppData\Local\Temp\cchoDgth.s:2130   .text.i2c_clock_timeout_enable:0000000000000028 .L0 
C:\Users\CYMR90~1\AppData\Local\Temp\cchoDgth.s:2167   .text.i2c_clock_timeout_disable:000000000000002a .L0 
C:\Users\CYMR90~1\AppData\Local\Temp\cchoDgth.s:2217   .text.i2c_bus_timeout_b_config:0000000000000048 .L0 
C:\Users\CYMR90~1\AppData\Local\Temp\cchoDgth.s:2264   .text.i2c_bus_timeout_a_config:0000000000000044 .L0 
C:\Users\CYMR90~1\AppData\Local\Temp\cchoDgth.s:2312   .text.i2c_idle_clock_timeout_config:0000000000000046 .L0 
C:\Users\CYMR90~1\AppData\Local\Temp\cchoDgth.s:2355   .text.i2c_flag_get:000000000000002c .L0 
C:\Users\CYMR90~1\AppData\Local\Temp\cchoDgth.s:2392   .text.i2c_flag_clear:000000000000002e .L0 
C:\Users\CYMR90~1\AppData\Local\Temp\cchoDgth.s:2426   .text.i2c_interrupt_enable:0000000000000028 .L0 
C:\Users\CYMR90~1\AppData\Local\Temp\cchoDgth.s:2463   .text.i2c_interrupt_disable:000000000000002c .L0 
C:\Users\CYMR90~1\AppData\Local\Temp\cchoDgth.s:2537   .text.i2c_interrupt_flag_get:0000000000000078 .L0 
C:\Users\CYMR90~1\AppData\Local\Temp\cchoDgth.s:2579   .text.i2c_interrupt_flag_clear:0000000000000036 .L0 
                     .debug_frame:0000000000000000 .L0 
C:\Users\CYMR90~1\AppData\Local\Temp\cchoDgth.s:38     .text.i2c_deinit:000000000000002e .L2
C:\Users\CYMR90~1\AppData\Local\Temp\cchoDgth.s:49     .text.i2c_deinit:000000000000004c .L3
C:\Users\CYMR90~1\AppData\Local\Temp\cchoDgth.s:60     .text.i2c_deinit:000000000000006a .L5
C:\Users\CYMR90~1\AppData\Local\Temp\cchoDgth.s:1614   .text.i2c_dma_enable:0000000000000028 .L46
C:\Users\CYMR90~1\AppData\Local\Temp\cchoDgth.s:1622   .text.i2c_dma_enable:0000000000000038 .L48
C:\Users\CYMR90~1\AppData\Local\Temp\cchoDgth.s:1664   .text.i2c_dma_disable:000000000000002a .L50
C:\Users\CYMR90~1\AppData\Local\Temp\cchoDgth.s:1673   .text.i2c_dma_disable:000000000000003c .L52
C:\Users\CYMR90~1\AppData\Local\Temp\cchoDgth.s:2340   .text.i2c_flag_get:0000000000000022 .L72
C:\Users\CYMR90~1\AppData\Local\Temp\cchoDgth.s:2343   .text.i2c_flag_get:0000000000000024 .L73
C:\Users\CYMR90~1\AppData\Local\Temp\cchoDgth.s:2522   .text.i2c_interrupt_flag_get:000000000000006e .L78
C:\Users\CYMR90~1\AppData\Local\Temp\cchoDgth.s:2525   .text.i2c_interrupt_flag_get:0000000000000070 .L79
C:\Users\CYMR90~1\AppData\Local\Temp\cchoDgth.s:4365   .debug_abbrev:0000000000000000 .Ldebug_abbrev0
C:\Users\CYMR90~1\AppData\Local\Temp\cchoDgth.s:25408  .debug_str:000000000000b163 .LASF5709
C:\Users\CYMR90~1\AppData\Local\Temp\cchoDgth.s:24840  .debug_str:0000000000008d34 .LASF5710
C:\Users\CYMR90~1\AppData\Local\Temp\cchoDgth.s:28344  .debug_str:0000000000016c73 .LASF5711
C:\Users\CYMR90~1\AppData\Local\Temp\cchoDgth.s:4829   .debug_ranges:0000000000000000 .Ldebug_ranges0
C:\Users\CYMR90~1\AppData\Local\Temp\cchoDgth.s:22630  .debug_line:0000000000000000 .Ldebug_line0
C:\Users\CYMR90~1\AppData\Local\Temp\cchoDgth.s:4959   .debug_macro:0000000000000000 .Ldebug_macro0
C:\Users\CYMR90~1\AppData\Local\Temp\cchoDgth.s:34017  .debug_str:000000000002d60b .LASF5568
C:\Users\CYMR90~1\AppData\Local\Temp\cchoDgth.s:22648  .debug_str:0000000000000123 .LASF5569
C:\Users\CYMR90~1\AppData\Local\Temp\cchoDgth.s:23582  .debug_str:0000000000003ba4 .LASF5570
C:\Users\CYMR90~1\AppData\Local\Temp\cchoDgth.s:28807  .debug_str:0000000000018b03 .LASF5571
C:\Users\CYMR90~1\AppData\Local\Temp\cchoDgth.s:24880  .debug_str:0000000000009054 .LASF5576
C:\Users\CYMR90~1\AppData\Local\Temp\cchoDgth.s:28254  .debug_str:0000000000016686 .LASF5572
C:\Users\CYMR90~1\AppData\Local\Temp\cchoDgth.s:30153  .debug_str:000000000001e3d9 .LASF5573
C:\Users\CYMR90~1\AppData\Local\Temp\cchoDgth.s:31817  .debug_str:000000000002488c .LASF5574
C:\Users\CYMR90~1\AppData\Local\Temp\cchoDgth.s:30571  .debug_str:000000000001fc9e .LASF5575
C:\Users\CYMR90~1\AppData\Local\Temp\cchoDgth.s:27478  .debug_str:000000000001364a .LASF5577
C:\Users\CYMR90~1\AppData\Local\Temp\cchoDgth.s:22768  .debug_str:0000000000000882 .LASF5578
C:\Users\CYMR90~1\AppData\Local\Temp\cchoDgth.s:32173  .debug_str:00000000000261fd .LASF5579
C:\Users\CYMR90~1\AppData\Local\Temp\cchoDgth.s:32729  .debug_str:0000000000028502 .LASF855
C:\Users\CYMR90~1\AppData\Local\Temp\cchoDgth.s:31751  .debug_str:0000000000024410 .LASF5580
C:\Users\CYMR90~1\AppData\Local\Temp\cchoDgth.s:32287  .debug_str:0000000000026928 .LASF5581
C:\Users\CYMR90~1\AppData\Local\Temp\cchoDgth.s:31857  .debug_str:0000000000024b61 .LASF5582
C:\Users\CYMR90~1\AppData\Local\Temp\cchoDgth.s:25256  .debug_str:000000000000a718 .LASF5583
C:\Users\CYMR90~1\AppData\Local\Temp\cchoDgth.s:25420  .debug_str:000000000000b2b0 .LASF5584
C:\Users\CYMR90~1\AppData\Local\Temp\cchoDgth.s:33047  .debug_str:0000000000029966 .LASF5585
C:\Users\CYMR90~1\AppData\Local\Temp\cchoDgth.s:30359  .debug_str:000000000001effb .LASF5586
C:\Users\CYMR90~1\AppData\Local\Temp\cchoDgth.s:31209  .debug_str:00000000000223fe .LASF5587
C:\Users\CYMR90~1\AppData\Local\Temp\cchoDgth.s:25128  .debug_str:0000000000009f29 .LASF5588
C:\Users\CYMR90~1\AppData\Local\Temp\cchoDgth.s:32465  .debug_str:00000000000273f4 .LASF5589
C:\Users\CYMR90~1\AppData\Local\Temp\cchoDgth.s:33521  .debug_str:000000000002b5b4 .LASF5590
C:\Users\CYMR90~1\AppData\Local\Temp\cchoDgth.s:28164  .debug_str:00000000000160ee .LASF5591
C:\Users\CYMR90~1\AppData\Local\Temp\cchoDgth.s:23430  .debug_str:000000000000316c .LASF5592
C:\Users\CYMR90~1\AppData\Local\Temp\cchoDgth.s:26806  .debug_str:0000000000010a42 .LASF5593
C:\Users\CYMR90~1\AppData\Local\Temp\cchoDgth.s:32361  .debug_str:0000000000026d82 .LASF5594
C:\Users\CYMR90~1\AppData\Local\Temp\cchoDgth.s:24500  .debug_str:000000000000764f .LASF5595
C:\Users\CYMR90~1\AppData\Local\Temp\cchoDgth.s:25754  .debug_str:000000000000c88d .LASF5596
C:\Users\CYMR90~1\AppData\Local\Temp\cchoDgth.s:33987  .debug_str:000000000002d3be .LASF5597
C:\Users\CYMR90~1\AppData\Local\Temp\cchoDgth.s:24294  .debug_str:00000000000068c7 .LASF5598
C:\Users\CYMR90~1\AppData\Local\Temp\cchoDgth.s:32971  .debug_str:00000000000294a1 .LASF5599
C:\Users\CYMR90~1\AppData\Local\Temp\cchoDgth.s:32901  .debug_str:00000000000290f5 .LASF5600
C:\Users\CYMR90~1\AppData\Local\Temp\cchoDgth.s:27724  .debug_str:000000000001456f .LASF5601
C:\Users\CYMR90~1\AppData\Local\Temp\cchoDgth.s:23784  .debug_str:0000000000004933 .LASF5602
C:\Users\CYMR90~1\AppData\Local\Temp\cchoDgth.s:29249  .debug_str:000000000001a93d .LASF5603
C:\Users\CYMR90~1\AppData\Local\Temp\cchoDgth.s:26036  .debug_str:000000000000dae0 .LASF5604
C:\Users\CYMR90~1\AppData\Local\Temp\cchoDgth.s:33831  .debug_str:000000000002c9cc .LASF5605
C:\Users\CYMR90~1\AppData\Local\Temp\cchoDgth.s:28957  .debug_str:00000000000195d8 .LASF5606
C:\Users\CYMR90~1\AppData\Local\Temp\cchoDgth.s:24522  .debug_str:0000000000007780 .LASF5607
C:\Users\CYMR90~1\AppData\Local\Temp\cchoDgth.s:23642  .debug_str:0000000000003f31 .LASF5608
C:\Users\CYMR90~1\AppData\Local\Temp\cchoDgth.s:31195  .debug_str:0000000000022325 .LASF5609
C:\Users\CYMR90~1\AppData\Local\Temp\cchoDgth.s:23668  .debug_str:00000000000040fd .LASF5610
C:\Users\CYMR90~1\AppData\Local\Temp\cchoDgth.s:31813  .debug_str:0000000000024862 .LASF5611
C:\Users\CYMR90~1\AppData\Local\Temp\cchoDgth.s:25494  .debug_str:000000000000b6ce .LASF5612
C:\Users\CYMR90~1\AppData\Local\Temp\cchoDgth.s:29439  .debug_str:000000000001b5f4 .LASF5613
C:\Users\CYMR90~1\AppData\Local\Temp\cchoDgth.s:25070  .debug_str:0000000000009b84 .LASF5614
C:\Users\CYMR90~1\AppData\Local\Temp\cchoDgth.s:25580  .debug_str:000000000000bcf3 .LASF5615
C:\Users\CYMR90~1\AppData\Local\Temp\cchoDgth.s:23474  .debug_str:0000000000003471 .LASF5616
C:\Users\CYMR90~1\AppData\Local\Temp\cchoDgth.s:31141  .debug_str:0000000000021fbc .LASF5617
C:\Users\CYMR90~1\AppData\Local\Temp\cchoDgth.s:23954  .debug_str:00000000000053fe .LASF5618
C:\Users\CYMR90~1\AppData\Local\Temp\cchoDgth.s:25060  .debug_str:0000000000009b28 .LASF5619
C:\Users\CYMR90~1\AppData\Local\Temp\cchoDgth.s:33709  .debug_str:000000000002c1ab .LASF5620
C:\Users\CYMR90~1\AppData\Local\Temp\cchoDgth.s:33231  .debug_str:000000000002a4df .LASF5621
C:\Users\CYMR90~1\AppData\Local\Temp\cchoDgth.s:25410  .debug_str:000000000000b230 .LASF5622
C:\Users\CYMR90~1\AppData\Local\Temp\cchoDgth.s:33731  .debug_str:000000000002c302 .LASF5623
C:\Users\CYMR90~1\AppData\Local\Temp\cchoDgth.s:27868  .debug_str:0000000000014e42 .LASF5624
C:\Users\CYMR90~1\AppData\Local\Temp\cchoDgth.s:32631  .debug_str:0000000000027e90 .LASF5625
C:\Users\CYMR90~1\AppData\Local\Temp\cchoDgth.s:27094  .debug_str:0000000000011caf .LASF5626
C:\Users\CYMR90~1\AppData\Local\Temp\cchoDgth.s:28152  .debug_str:0000000000015fff .LASF5627
C:\Users\CYMR90~1\AppData\Local\Temp\cchoDgth.s:24140  .debug_str:0000000000005f5a .LASF5632
C:\Users\CYMR90~1\AppData\Local\Temp\cchoDgth.s:2542   .text.i2c_interrupt_flag_clear:0000000000000000 .LFB409
C:\Users\CYMR90~1\AppData\Local\Temp\cchoDgth.s:2577   .text.i2c_interrupt_flag_clear:0000000000000036 .LFE409
C:\Users\CYMR90~1\AppData\Local\Temp\cchoDgth.s:32909  .debug_str:000000000002914d .LASF5628
C:\Users\CYMR90~1\AppData\Local\Temp\cchoDgth.s:27760  .debug_str:0000000000014764 .LASF5629
C:\Users\CYMR90~1\AppData\Local\Temp\cchoDgth.s:29281  .debug_str:000000000001ab20 .LASF5638
C:\Users\CYMR90~1\AppData\Local\Temp\cchoDgth.s:2468   .text.i2c_interrupt_flag_get:0000000000000000 .LFB408
C:\Users\CYMR90~1\AppData\Local\Temp\cchoDgth.s:2535   .text.i2c_interrupt_flag_get:0000000000000078 .LFE408
C:\Users\CYMR90~1\AppData\Local\Temp\cchoDgth.s:24416  .debug_str:00000000000070b0 .LASF5630
C:\Users\CYMR90~1\AppData\Local\Temp\cchoDgth.s:24418  .debug_str:00000000000070b5 .LASF5631
C:\Users\CYMR90~1\AppData\Local\Temp\cchoDgth.s:28413  .debug_str:0000000000017320 .LASF5633
C:\Users\CYMR90~1\AppData\Local\Temp\cchoDgth.s:2431   .text.i2c_interrupt_disable:0000000000000000 .LFB407
C:\Users\CYMR90~1\AppData\Local\Temp\cchoDgth.s:2461   .text.i2c_interrupt_disable:000000000000002c .LFE407
C:\Users\CYMR90~1\AppData\Local\Temp\cchoDgth.s:29379  .debug_str:000000000001b19f .LASF5634
C:\Users\CYMR90~1\AppData\Local\Temp\cchoDgth.s:25274  .debug_str:000000000000a7e6 .LASF5635
C:\Users\CYMR90~1\AppData\Local\Temp\cchoDgth.s:2397   .text.i2c_interrupt_enable:0000000000000000 .LFB406
C:\Users\CYMR90~1\AppData\Local\Temp\cchoDgth.s:2424   .text.i2c_interrupt_enable:0000000000000028 .LFE406
C:\Users\CYMR90~1\AppData\Local\Temp\cchoDgth.s:29021  .debug_str:0000000000019978 .LASF5636
C:\Users\CYMR90~1\AppData\Local\Temp\cchoDgth.s:2360   .text.i2c_flag_clear:0000000000000000 .LFB405
C:\Users\CYMR90~1\AppData\Local\Temp\cchoDgth.s:2390   .text.i2c_flag_clear:000000000000002e .LFE405
C:\Users\CYMR90~1\AppData\Local\Temp\cchoDgth.s:25244  .debug_str:000000000000a65b .LASF5637
C:\Users\CYMR90~1\AppData\Local\Temp\cchoDgth.s:29769  .debug_str:000000000001c95f .LASF5639
C:\Users\CYMR90~1\AppData\Local\Temp\cchoDgth.s:2317   .text.i2c_flag_get:0000000000000000 .LFB404
C:\Users\CYMR90~1\AppData\Local\Temp\cchoDgth.s:2353   .text.i2c_flag_get:000000000000002c .LFE404
C:\Users\CYMR90~1\AppData\Local\Temp\cchoDgth.s:30015  .debug_str:000000000001da4c .LASF5640
C:\Users\CYMR90~1\AppData\Local\Temp\cchoDgth.s:2269   .text.i2c_idle_clock_timeout_config:0000000000000000 .LFB403
C:\Users\CYMR90~1\AppData\Local\Temp\cchoDgth.s:2310   .text.i2c_idle_clock_timeout_config:0000000000000046 .LFE403
C:\Users\CYMR90~1\AppData\Local\Temp\cchoDgth.s:33487  .debug_str:000000000002b393 .LASF5641
C:\Users\CYMR90~1\AppData\Local\Temp\cchoDgth.s:23910  .debug_str:000000000000516d .LASF5642
C:\Users\CYMR90~1\AppData\Local\Temp\cchoDgth.s:2222   .text.i2c_bus_timeout_a_config:0000000000000000 .LFB402
C:\Users\CYMR90~1\AppData\Local\Temp\cchoDgth.s:2262   .text.i2c_bus_timeout_a_config:0000000000000044 .LFE402
C:\Users\CYMR90~1\AppData\Local\Temp\cchoDgth.s:27082  .debug_str:0000000000011b68 .LASF5643
C:\Users\CYMR90~1\AppData\Local\Temp\cchoDgth.s:2172   .text.i2c_bus_timeout_b_config:0000000000000000 .LFB401
C:\Users\CYMR90~1\AppData\Local\Temp\cchoDgth.s:2215   .text.i2c_bus_timeout_b_config:0000000000000048 .LFE401
C:\Users\CYMR90~1\AppData\Local\Temp\cchoDgth.s:27170  .debug_str:0000000000012155 .LASF5644
C:\Users\CYMR90~1\AppData\Local\Temp\cchoDgth.s:2135   .text.i2c_clock_timeout_disable:0000000000000000 .LFB400
C:\Users\CYMR90~1\AppData\Local\Temp\cchoDgth.s:2165   .text.i2c_clock_timeout_disable:000000000000002a .LFE400
C:\Users\CYMR90~1\AppData\Local\Temp\cchoDgth.s:26438  .debug_str:000000000000f35d .LASF5645
C:\Users\CYMR90~1\AppData\Local\Temp\cchoDgth.s:2099   .text.i2c_clock_timeout_enable:0000000000000000 .LFB399
C:\Users\CYMR90~1\AppData\Local\Temp\cchoDgth.s:2128   .text.i2c_clock_timeout_enable:0000000000000028 .LFE399
C:\Users\CYMR90~1\AppData\Local\Temp\cchoDgth.s:23762  .debug_str:000000000000475e .LASF5646
C:\Users\CYMR90~1\AppData\Local\Temp\cchoDgth.s:2062   .text.i2c_extented_clock_timeout_disable:0000000000000000 .LFB398
C:\Users\CYMR90~1\AppData\Local\Temp\cchoDgth.s:2092   .text.i2c_extented_clock_timeout_disable:000000000000002e .LFE398
C:\Users\CYMR90~1\AppData\Local\Temp\cchoDgth.s:32107  .debug_str:0000000000025cd9 .LASF5647
C:\Users\CYMR90~1\AppData\Local\Temp\cchoDgth.s:2026   .text.i2c_extented_clock_timeout_enable:0000000000000000 .LFB397
C:\Users\CYMR90~1\AppData\Local\Temp\cchoDgth.s:2055   .text.i2c_extented_clock_timeout_enable:000000000000002a .LFE397
C:\Users\CYMR90~1\AppData\Local\Temp\cchoDgth.s:25402  .debug_str:000000000000b0fe .LASF5648
C:\Users\CYMR90~1\AppData\Local\Temp\cchoDgth.s:1992   .text.i2c_smbus_host_addr_disable:0000000000000000 .LFB396
C:\Users\CYMR90~1\AppData\Local\Temp\cchoDgth.s:2019   .text.i2c_smbus_host_addr_disable:0000000000000026 .LFE396
C:\Users\CYMR90~1\AppData\Local\Temp\cchoDgth.s:26270  .debug_str:000000000000e982 .LASF5649
C:\Users\CYMR90~1\AppData\Local\Temp\cchoDgth.s:1959   .text.i2c_smbus_host_addr_enable:0000000000000000 .LFB395
C:\Users\CYMR90~1\AppData\Local\Temp\cchoDgth.s:1985   .text.i2c_smbus_host_addr_enable:0000000000000024 .LFE395
C:\Users\CYMR90~1\AppData\Local\Temp\cchoDgth.s:26644  .debug_str:0000000000010074 .LASF5650
C:\Users\CYMR90~1\AppData\Local\Temp\cchoDgth.s:1925   .text.i2c_smbus_default_addr_disable:0000000000000000 .LFB394
C:\Users\CYMR90~1\AppData\Local\Temp\cchoDgth.s:1952   .text.i2c_smbus_default_addr_disable:0000000000000026 .LFE394
C:\Users\CYMR90~1\AppData\Local\Temp\cchoDgth.s:29695  .debug_str:000000000001c539 .LASF5651
C:\Users\CYMR90~1\AppData\Local\Temp\cchoDgth.s:1892   .text.i2c_smbus_default_addr_enable:0000000000000000 .LFB393
C:\Users\CYMR90~1\AppData\Local\Temp\cchoDgth.s:1918   .text.i2c_smbus_default_addr_enable:0000000000000024 .LFE393
C:\Users\CYMR90~1\AppData\Local\Temp\cchoDgth.s:33349  .debug_str:000000000002aba9 .LASF5652
C:\Users\CYMR90~1\AppData\Local\Temp\cchoDgth.s:1858   .text.i2c_smbus_alert_disable:0000000000000000 .LFB392
C:\Users\CYMR90~1\AppData\Local\Temp\cchoDgth.s:1885   .text.i2c_smbus_alert_disable:0000000000000026 .LFE392
C:\Users\CYMR90~1\AppData\Local\Temp\cchoDgth.s:29461  .debug_str:000000000001b758 .LASF5653
C:\Users\CYMR90~1\AppData\Local\Temp\cchoDgth.s:1825   .text.i2c_smbus_alert_enable:0000000000000000 .LFB391
C:\Users\CYMR90~1\AppData\Local\Temp\cchoDgth.s:1851   .text.i2c_smbus_alert_enable:0000000000000024 .LFE391
C:\Users\CYMR90~1\AppData\Local\Temp\cchoDgth.s:31097  .debug_str:0000000000021d02 .LASF5654
C:\Users\CYMR90~1\AppData\Local\Temp\cchoDgth.s:1793   .text.i2c_pec_value_get:0000000000000000 .LFB390
C:\Users\CYMR90~1\AppData\Local\Temp\cchoDgth.s:1818   .text.i2c_pec_value_get:0000000000000020 .LFE390
C:\Users\CYMR90~1\AppData\Local\Temp\cchoDgth.s:25748  .debug_str:000000000000c833 .LASF5655
C:\Users\CYMR90~1\AppData\Local\Temp\cchoDgth.s:1759   .text.i2c_pec_disable:0000000000000000 .LFB389
C:\Users\CYMR90~1\AppData\Local\Temp\cchoDgth.s:1786   .text.i2c_pec_disable:0000000000000026 .LFE389
C:\Users\CYMR90~1\AppData\Local\Temp\cchoDgth.s:29641  .debug_str:000000000001c205 .LASF5656
C:\Users\CYMR90~1\AppData\Local\Temp\cchoDgth.s:1726   .text.i2c_pec_enable:0000000000000000 .LFB388
C:\Users\CYMR90~1\AppData\Local\Temp\cchoDgth.s:1752   .text.i2c_pec_enable:0000000000000024 .LFE388
C:\Users\CYMR90~1\AppData\Local\Temp\cchoDgth.s:33997  .debug_str:000000000002d4ea .LASF5657
C:\Users\CYMR90~1\AppData\Local\Temp\cchoDgth.s:1690   .text.i2c_pec_transfer:0000000000000000 .LFB387
C:\Users\CYMR90~1\AppData\Local\Temp\cchoDgth.s:1719   .text.i2c_pec_transfer:000000000000002a .LFE387
C:\Users\CYMR90~1\AppData\Local\Temp\cchoDgth.s:23388  .debug_str:0000000000002eef .LASF5658
C:\Users\CYMR90~1\AppData\Local\Temp\cchoDgth.s:1639   .text.i2c_dma_disable:0000000000000000 .LFB386
C:\Users\CYMR90~1\AppData\Local\Temp\cchoDgth.s:1683   .text.i2c_dma_disable:0000000000000044 .LFE386
C:\Users\CYMR90~1\AppData\Local\Temp\cchoDgth.s:24720  .debug_str:00000000000085a6 .LASF5659
C:\Users\CYMR90~1\AppData\Local\Temp\cchoDgth.s:1590   .text.i2c_dma_enable:0000000000000000 .LFB385
C:\Users\CYMR90~1\AppData\Local\Temp\cchoDgth.s:1632   .text.i2c_dma_enable:0000000000000040 .LFE385
C:\Users\CYMR90~1\AppData\Local\Temp\cchoDgth.s:33179  .debug_str:000000000002a1a2 .LASF5660
C:\Users\CYMR90~1\AppData\Local\Temp\cchoDgth.s:1540   .text.i2c_transfer_byte_number_config:0000000000000000 .LFB384
C:\Users\CYMR90~1\AppData\Local\Temp\cchoDgth.s:1583   .text.i2c_transfer_byte_number_config:0000000000000048 .LFE384
C:\Users\CYMR90~1\AppData\Local\Temp\cchoDgth.s:29925  .debug_str:000000000001d4f6 .LASF5661
C:\Users\CYMR90~1\AppData\Local\Temp\cchoDgth.s:29259  .debug_str:000000000001a9b4 .LASF5662
C:\Users\CYMR90~1\AppData\Local\Temp\cchoDgth.s:1503   .text.i2c_reload_disable:0000000000000000 .LFB383
C:\Users\CYMR90~1\AppData\Local\Temp\cchoDgth.s:1533   .text.i2c_reload_disable:000000000000002c .LFE383
C:\Users\CYMR90~1\AppData\Local\Temp\cchoDgth.s:33139  .debug_str:0000000000029fa8 .LASF5663
C:\Users\CYMR90~1\AppData\Local\Temp\cchoDgth.s:1467   .text.i2c_reload_enable:0000000000000000 .LFB382
C:\Users\CYMR90~1\AppData\Local\Temp\cchoDgth.s:1496   .text.i2c_reload_enable:000000000000002a .LFE382
C:\Users\CYMR90~1\AppData\Local\Temp\cchoDgth.s:29655  .debug_str:000000000001c2c8 .LASF5664
C:\Users\CYMR90~1\AppData\Local\Temp\cchoDgth.s:1435   .text.i2c_data_receive:0000000000000000 .LFB381
C:\Users\CYMR90~1\AppData\Local\Temp\cchoDgth.s:1460   .text.i2c_data_receive:0000000000000020 .LFE381
C:\Users\CYMR90~1\AppData\Local\Temp\cchoDgth.s:29173  .debug_str:000000000001a374 .LASF5665
C:\Users\CYMR90~1\AppData\Local\Temp\cchoDgth.s:1399   .text.i2c_data_transmit:0000000000000000 .LFB380
C:\Users\CYMR90~1\AppData\Local\Temp\cchoDgth.s:1428   .text.i2c_data_transmit:000000000000002a .LFE380
C:\Users\CYMR90~1\AppData\Local\Temp\cchoDgth.s:33143  .debug_str:0000000000029fd2 .LASF5666
C:\Users\CYMR90~1\AppData\Local\Temp\cchoDgth.s:25456  .debug_str:000000000000b4d6 .LASF5667
C:\Users\CYMR90~1\AppData\Local\Temp\cchoDgth.s:1363   .text.i2c_stop_on_bus:0000000000000000 .LFB379
C:\Users\CYMR90~1\AppData\Local\Temp\cchoDgth.s:1392   .text.i2c_stop_on_bus:0000000000000028 .LFE379
C:\Users\CYMR90~1\AppData\Local\Temp\cchoDgth.s:30319  .debug_str:000000000001edc4 .LASF5668
C:\Users\CYMR90~1\AppData\Local\Temp\cchoDgth.s:1327   .text.i2c_start_on_bus:0000000000000000 .LFB378
C:\Users\CYMR90~1\AppData\Local\Temp\cchoDgth.s:1356   .text.i2c_start_on_bus:0000000000000028 .LFE378
C:\Users\CYMR90~1\AppData\Local\Temp\cchoDgth.s:32915  .debug_str:00000000000291a0 .LASF5669
C:\Users\CYMR90~1\AppData\Local\Temp\cchoDgth.s:1295   .text.i2c_disable:0000000000000000 .LFB377
C:\Users\CYMR90~1\AppData\Local\Temp\cchoDgth.s:1320   .text.i2c_disable:0000000000000020 .LFE377
C:\Users\CYMR90~1\AppData\Local\Temp\cchoDgth.s:31287  .debug_str:000000000002289d .LASF5670
C:\Users\CYMR90~1\AppData\Local\Temp\cchoDgth.s:1263   .text.i2c_enable:0000000000000000 .LFB376
C:\Users\CYMR90~1\AppData\Local\Temp\cchoDgth.s:1288   .text.i2c_enable:0000000000000022 .LFE376
C:\Users\CYMR90~1\AppData\Local\Temp\cchoDgth.s:26080  .debug_str:000000000000dd91 .LASF5671
C:\Users\CYMR90~1\AppData\Local\Temp\cchoDgth.s:1229   .text.i2c_wakeup_from_deepsleep_disable:0000000000000000 .LFB375
C:\Users\CYMR90~1\AppData\Local\Temp\cchoDgth.s:1256   .text.i2c_wakeup_from_deepsleep_disable:0000000000000026 .LFE375
C:\Users\CYMR90~1\AppData\Local\Temp\cchoDgth.s:25592  .debug_str:000000000000bd8e .LASF5672
C:\Users\CYMR90~1\AppData\Local\Temp\cchoDgth.s:1196   .text.i2c_wakeup_from_deepsleep_enable:0000000000000000 .LFB374
C:\Users\CYMR90~1\AppData\Local\Temp\cchoDgth.s:1222   .text.i2c_wakeup_from_deepsleep_enable:0000000000000024 .LFE374
C:\Users\CYMR90~1\AppData\Local\Temp\cchoDgth.s:23124  .debug_str:0000000000001e9c .LASF5673
C:\Users\CYMR90~1\AppData\Local\Temp\cchoDgth.s:1159   .text.i2c_nack_disable:0000000000000000 .LFB373
C:\Users\CYMR90~1\AppData\Local\Temp\cchoDgth.s:1189   .text.i2c_nack_disable:000000000000002a .LFE373
C:\Users\CYMR90~1\AppData\Local\Temp\cchoDgth.s:24988  .debug_str:000000000000964b .LASF5674
C:\Users\CYMR90~1\AppData\Local\Temp\cchoDgth.s:1123   .text.i2c_nack_enable:0000000000000000 .LFB372
C:\Users\CYMR90~1\AppData\Local\Temp\cchoDgth.s:1152   .text.i2c_nack_enable:0000000000000028 .LFE372
C:\Users\CYMR90~1\AppData\Local\Temp\cchoDgth.s:26684  .debug_str:00000000000102f0 .LASF5675
C:\Users\CYMR90~1\AppData\Local\Temp\cchoDgth.s:1089   .text.i2c_slave_byte_control_disable:0000000000000000 .LFB371
C:\Users\CYMR90~1\AppData\Local\Temp\cchoDgth.s:1116   .text.i2c_slave_byte_control_disable:0000000000000024 .LFE371
C:\Users\CYMR90~1\AppData\Local\Temp\cchoDgth.s:25334  .debug_str:000000000000ac52 .LASF5676
C:\Users\CYMR90~1\AppData\Local\Temp\cchoDgth.s:1056   .text.i2c_slave_byte_control_enable:0000000000000000 .LFB370
C:\Users\CYMR90~1\AppData\Local\Temp\cchoDgth.s:1082   .text.i2c_slave_byte_control_enable:0000000000000022 .LFE370
C:\Users\CYMR90~1\AppData\Local\Temp\cchoDgth.s:25472  .debug_str:000000000000b5b7 .LASF5677
C:\Users\CYMR90~1\AppData\Local\Temp\cchoDgth.s:1023   .text.i2c_recevied_address_get:0000000000000000 .LFB369
C:\Users\CYMR90~1\AppData\Local\Temp\cchoDgth.s:1049   .text.i2c_recevied_address_get:0000000000000020 .LFE369
C:\Users\CYMR90~1\AppData\Local\Temp\cchoDgth.s:32291  .debug_str:0000000000026946 .LASF5678
C:\Users\CYMR90~1\AppData\Local\Temp\cchoDgth.s:986    .text.i2c_second_address_disable:0000000000000000 .LFB368
C:\Users\CYMR90~1\AppData\Local\Temp\cchoDgth.s:1016   .text.i2c_second_address_disable:000000000000002a .LFE368
C:\Users\CYMR90~1\AppData\Local\Temp\cchoDgth.s:25844  .debug_str:000000000000ce4a .LASF5679
C:\Users\CYMR90~1\AppData\Local\Temp\cchoDgth.s:914    .text.i2c_second_address_config:0000000000000000 .LFB367
C:\Users\CYMR90~1\AppData\Local\Temp\cchoDgth.s:979    .text.i2c_second_address_config:0000000000000080 .LFE367
C:\Users\CYMR90~1\AppData\Local\Temp\cchoDgth.s:27992  .debug_str:0000000000015637 .LASF5680
C:\Users\CYMR90~1\AppData\Local\Temp\cchoDgth.s:33425  .debug_str:000000000002b034 .LASF5681
C:\Users\CYMR90~1\AppData\Local\Temp\cchoDgth.s:23114  .debug_str:0000000000001e01 .LASF5682
C:\Users\CYMR90~1\AppData\Local\Temp\cchoDgth.s:877    .text.i2c_address_disable:0000000000000000 .LFB366
C:\Users\CYMR90~1\AppData\Local\Temp\cchoDgth.s:907    .text.i2c_address_disable:000000000000002a .LFE366
C:\Users\CYMR90~1\AppData\Local\Temp\cchoDgth.s:31767  .debug_str:00000000000244f8 .LASF5683
C:\Users\CYMR90~1\AppData\Local\Temp\cchoDgth.s:829    .text.i2c_address_bit_compare_config:0000000000000000 .LFB365
C:\Users\CYMR90~1\AppData\Local\Temp\cchoDgth.s:870    .text.i2c_address_bit_compare_config:0000000000000050 .LFE365
C:\Users\CYMR90~1\AppData\Local\Temp\cchoDgth.s:23706  .debug_str:00000000000043af .LASF5684
C:\Users\CYMR90~1\AppData\Local\Temp\cchoDgth.s:30743  .debug_str:000000000002073b .LASF5685
C:\Users\CYMR90~1\AppData\Local\Temp\cchoDgth.s:777    .text.i2c_address_config:0000000000000000 .LFB364
C:\Users\CYMR90~1\AppData\Local\Temp\cchoDgth.s:822    .text.i2c_address_config:0000000000000050 .LFE364
C:\Users\CYMR90~1\AppData\Local\Temp\cchoDgth.s:28417  .debug_str:0000000000017348 .LASF5686
C:\Users\CYMR90~1\AppData\Local\Temp\cchoDgth.s:24282  .debug_str:00000000000067fa .LASF5687
C:\Users\CYMR90~1\AppData\Local\Temp\cchoDgth.s:744    .text.i2c_stretch_scl_low_disable:0000000000000000 .LFB363
C:\Users\CYMR90~1\AppData\Local\Temp\cchoDgth.s:770    .text.i2c_stretch_scl_low_disable:0000000000000024 .LFE363
C:\Users\CYMR90~1\AppData\Local\Temp\cchoDgth.s:33563  .debug_str:000000000002b7e5 .LASF5688
C:\Users\CYMR90~1\AppData\Local\Temp\cchoDgth.s:710    .text.i2c_stretch_scl_low_enable:0000000000000000 .LFB362
C:\Users\CYMR90~1\AppData\Local\Temp\cchoDgth.s:737    .text.i2c_stretch_scl_low_enable:0000000000000024 .LFE362
C:\Users\CYMR90~1\AppData\Local\Temp\cchoDgth.s:28841  .debug_str:0000000000018d30 .LASF5689
C:\Users\CYMR90~1\AppData\Local\Temp\cchoDgth.s:676    .text.i2c_slave_response_to_gcall_disable:0000000000000000 .LFB361
C:\Users\CYMR90~1\AppData\Local\Temp\cchoDgth.s:703    .text.i2c_slave_response_to_gcall_disable:0000000000000026 .LFE361
C:\Users\CYMR90~1\AppData\Local\Temp\cchoDgth.s:26660  .debug_str:00000000000101a6 .LASF5690
C:\Users\CYMR90~1\AppData\Local\Temp\cchoDgth.s:643    .text.i2c_slave_response_to_gcall_enable:0000000000000000 .LFB360
C:\Users\CYMR90~1\AppData\Local\Temp\cchoDgth.s:669    .text.i2c_slave_response_to_gcall_enable:0000000000000024 .LFE360
C:\Users\CYMR90~1\AppData\Local\Temp\cchoDgth.s:28262  .debug_str:00000000000166e7 .LASF5691
C:\Users\CYMR90~1\AppData\Local\Temp\cchoDgth.s:606    .text.i2c_automatic_end_disable:0000000000000000 .LFB359
C:\Users\CYMR90~1\AppData\Local\Temp\cchoDgth.s:636    .text.i2c_automatic_end_disable:000000000000002c .LFE359
C:\Users\CYMR90~1\AppData\Local\Temp\cchoDgth.s:31245  .debug_str:00000000000225f5 .LASF5692
C:\Users\CYMR90~1\AppData\Local\Temp\cchoDgth.s:570    .text.i2c_automatic_end_enable:0000000000000000 .LFB358
C:\Users\CYMR90~1\AppData\Local\Temp\cchoDgth.s:599    .text.i2c_automatic_end_enable:000000000000002a .LFE358
C:\Users\CYMR90~1\AppData\Local\Temp\cchoDgth.s:29475  .debug_str:000000000001b817 .LASF5693
C:\Users\CYMR90~1\AppData\Local\Temp\cchoDgth.s:533    .text.i2c_address10_disable:0000000000000000 .LFB357
C:\Users\CYMR90~1\AppData\Local\Temp\cchoDgth.s:563    .text.i2c_address10_disable:000000000000002c .LFE357
C:\Users\CYMR90~1\AppData\Local\Temp\cchoDgth.s:33011  .debug_str:0000000000029725 .LASF5694
C:\Users\CYMR90~1\AppData\Local\Temp\cchoDgth.s:496    .text.i2c_address10_enable:0000000000000000 .LFB356
C:\Users\CYMR90~1\AppData\Local\Temp\cchoDgth.s:526    .text.i2c_address10_enable:000000000000002c .LFE356
C:\Users\CYMR90~1\AppData\Local\Temp\cchoDgth.s:32951  .debug_str:000000000002938c .LASF5695
C:\Users\CYMR90~1\AppData\Local\Temp\cchoDgth.s:459    .text.i2c_address10_header_disable:0000000000000000 .LFB355
C:\Users\CYMR90~1\AppData\Local\Temp\cchoDgth.s:489    .text.i2c_address10_header_disable:000000000000002a .LFE355
C:\Users\CYMR90~1\AppData\Local\Temp\cchoDgth.s:33199  .debug_str:000000000002a2de .LASF5696
C:\Users\CYMR90~1\AppData\Local\Temp\cchoDgth.s:423    .text.i2c_address10_header_enable:0000000000000000 .LFB354
C:\Users\CYMR90~1\AppData\Local\Temp\cchoDgth.s:452    .text.i2c_address10_header_enable:0000000000000028 .LFE354
C:\Users\CYMR90~1\AppData\Local\Temp\cchoDgth.s:27274  .debug_str:0000000000012827 .LASF5697
C:\Users\CYMR90~1\AppData\Local\Temp\cchoDgth.s:359    .text.i2c_master_addressing:0000000000000000 .LFB353
C:\Users\CYMR90~1\AppData\Local\Temp\cchoDgth.s:416    .text.i2c_master_addressing:0000000000000072 .LFE353
C:\Users\CYMR90~1\AppData\Local\Temp\cchoDgth.s:23350  .debug_str:0000000000002cab .LASF5698
C:\Users\CYMR90~1\AppData\Local\Temp\cchoDgth.s:26322  .debug_str:000000000000ecd0 .LASF5699
C:\Users\CYMR90~1\AppData\Local\Temp\cchoDgth.s:287    .text.i2c_master_clock_config:0000000000000000 .LFB352
C:\Users\CYMR90~1\AppData\Local\Temp\cchoDgth.s:352    .text.i2c_master_clock_config:0000000000000082 .LFE352
C:\Users\CYMR90~1\AppData\Local\Temp\cchoDgth.s:30859  .debug_str:0000000000020e6a .LASF5700
C:\Users\CYMR90~1\AppData\Local\Temp\cchoDgth.s:30867  .debug_str:0000000000020ebe .LASF5701
C:\Users\CYMR90~1\AppData\Local\Temp\cchoDgth.s:28693  .debug_str:00000000000183ec .LASF5702
C:\Users\CYMR90~1\AppData\Local\Temp\cchoDgth.s:254    .text.i2c_analog_noise_filter_disable:0000000000000000 .LFB351
C:\Users\CYMR90~1\AppData\Local\Temp\cchoDgth.s:280    .text.i2c_analog_noise_filter_disable:0000000000000022 .LFE351
C:\Users\CYMR90~1\AppData\Local\Temp\cchoDgth.s:28300  .debug_str:000000000001698d .LASF5703
C:\Users\CYMR90~1\AppData\Local\Temp\cchoDgth.s:220    .text.i2c_analog_noise_filter_enable:0000000000000000 .LFB350
C:\Users\CYMR90~1\AppData\Local\Temp\cchoDgth.s:247    .text.i2c_analog_noise_filter_enable:0000000000000024 .LFE350
C:\Users\CYMR90~1\AppData\Local\Temp\cchoDgth.s:26376  .debug_str:000000000000eff4 .LASF5704
C:\Users\CYMR90~1\AppData\Local\Temp\cchoDgth.s:175    .text.i2c_digital_noise_filter_config:0000000000000000 .LFB349
C:\Users\CYMR90~1\AppData\Local\Temp\cchoDgth.s:213    .text.i2c_digital_noise_filter_config:0000000000000040 .LFE349
C:\Users\CYMR90~1\AppData\Local\Temp\cchoDgth.s:32061  .debug_str:0000000000025935 .LASF5705
C:\Users\CYMR90~1\AppData\Local\Temp\cchoDgth.s:27036  .debug_str:00000000000117fc .LASF5706
C:\Users\CYMR90~1\AppData\Local\Temp\cchoDgth.s:79     .text.i2c_timing_config:0000000000000000 .LFB348
C:\Users\CYMR90~1\AppData\Local\Temp\cchoDgth.s:168    .text.i2c_timing_config:00000000000000bc .LFE348
C:\Users\CYMR90~1\AppData\Local\Temp\cchoDgth.s:22792  .debug_str:00000000000009e5 .LASF5707
C:\Users\CYMR90~1\AppData\Local\Temp\cchoDgth.s:33363  .debug_str:000000000002ac6f .LASF5708
C:\Users\CYMR90~1\AppData\Local\Temp\cchoDgth.s:26838  .debug_str:0000000000010be6 .LASF5712
C:\Users\CYMR90~1\AppData\Local\Temp\cchoDgth.s:14     .text.i2c_deinit:0000000000000000 .LFB347
C:\Users\CYMR90~1\AppData\Local\Temp\cchoDgth.s:72     .text.i2c_deinit:0000000000000074 .LFE347
C:\Users\CYMR90~1\AppData\Local\Temp\cchoDgth.s:2587   .debug_info:0000000000000000 .Ldebug_info0
C:\Users\CYMR90~1\AppData\Local\Temp\cchoDgth.s:5615   .debug_macro:0000000000000000 .Ldebug_macro2
C:\Users\CYMR90~1\AppData\Local\Temp\cchoDgth.s:24838  .debug_str:0000000000008d23 .LASF314
C:\Users\CYMR90~1\AppData\Local\Temp\cchoDgth.s:31883  .debug_str:0000000000024cf9 .LASF315
C:\Users\CYMR90~1\AppData\Local\Temp\cchoDgth.s:6562   .debug_macro:0000000000000000 .Ldebug_macro3
C:\Users\CYMR90~1\AppData\Local\Temp\cchoDgth.s:24832  .debug_str:0000000000008cb7 .LASF369
C:\Users\CYMR90~1\AppData\Local\Temp\cchoDgth.s:24402  .debug_str:0000000000006fc6 .LASF370
C:\Users\CYMR90~1\AppData\Local\Temp\cchoDgth.s:28681  .debug_str:000000000001834c .LASF371
C:\Users\CYMR90~1\AppData\Local\Temp\cchoDgth.s:6726   .debug_macro:0000000000000000 .Ldebug_macro4
C:\Users\CYMR90~1\AppData\Local\Temp\cchoDgth.s:6746   .debug_macro:0000000000000000 .Ldebug_macro5
C:\Users\CYMR90~1\AppData\Local\Temp\cchoDgth.s:27320  .debug_str:0000000000012b45 .LASF390
C:\Users\CYMR90~1\AppData\Local\Temp\cchoDgth.s:6790   .debug_macro:0000000000000000 .Ldebug_macro6
C:\Users\CYMR90~1\AppData\Local\Temp\cchoDgth.s:6804   .debug_macro:0000000000000000 .Ldebug_macro7
C:\Users\CYMR90~1\AppData\Local\Temp\cchoDgth.s:6872   .debug_macro:0000000000000000 .Ldebug_macro8
C:\Users\CYMR90~1\AppData\Local\Temp\cchoDgth.s:6898   .debug_macro:0000000000000000 .Ldebug_macro9
C:\Users\CYMR90~1\AppData\Local\Temp\cchoDgth.s:6927   .debug_macro:0000000000000000 .Ldebug_macro10
C:\Users\CYMR90~1\AppData\Local\Temp\cchoDgth.s:28819  .debug_str:0000000000018bb7 .LASF433
C:\Users\CYMR90~1\AppData\Local\Temp\cchoDgth.s:6941   .debug_macro:0000000000000000 .Ldebug_macro11
C:\Users\CYMR90~1\AppData\Local\Temp\cchoDgth.s:6985   .debug_macro:0000000000000000 .Ldebug_macro12
C:\Users\CYMR90~1\AppData\Local\Temp\cchoDgth.s:7011   .debug_macro:0000000000000000 .Ldebug_macro13
C:\Users\CYMR90~1\AppData\Local\Temp\cchoDgth.s:32455  .debug_str:0000000000027372 .LASF569
C:\Users\CYMR90~1\AppData\Local\Temp\cchoDgth.s:7382   .debug_macro:0000000000000000 .Ldebug_macro14
C:\Users\CYMR90~1\AppData\Local\Temp\cchoDgth.s:26834  .debug_str:0000000000010bc6 .LASF572
C:\Users\CYMR90~1\AppData\Local\Temp\cchoDgth.s:31779  .debug_str:00000000000245b3 .LASF573
C:\Users\CYMR90~1\AppData\Local\Temp\cchoDgth.s:7393   .debug_macro:0000000000000000 .Ldebug_macro15
C:\Users\CYMR90~1\AppData\Local\Temp\cchoDgth.s:7407   .debug_macro:0000000000000000 .Ldebug_macro16
C:\Users\CYMR90~1\AppData\Local\Temp\cchoDgth.s:33591  .debug_str:000000000002b9f3 .LASF578
C:\Users\CYMR90~1\AppData\Local\Temp\cchoDgth.s:7439   .debug_macro:0000000000000000 .Ldebug_macro17
C:\Users\CYMR90~1\AppData\Local\Temp\cchoDgth.s:7465   .debug_macro:0000000000000000 .Ldebug_macro18
C:\Users\CYMR90~1\AppData\Local\Temp\cchoDgth.s:7476   .debug_macro:0000000000000000 .Ldebug_macro19
C:\Users\CYMR90~1\AppData\Local\Temp\cchoDgth.s:7520   .debug_macro:0000000000000000 .Ldebug_macro20
C:\Users\CYMR90~1\AppData\Local\Temp\cchoDgth.s:7690   .debug_macro:0000000000000000 .Ldebug_macro21
C:\Users\CYMR90~1\AppData\Local\Temp\cchoDgth.s:7701   .debug_macro:0000000000000000 .Ldebug_macro22
C:\Users\CYMR90~1\AppData\Local\Temp\cchoDgth.s:27326  .debug_str:0000000000012b9e .LASF675
C:\Users\CYMR90~1\AppData\Local\Temp\cchoDgth.s:7757   .debug_macro:0000000000000000 .Ldebug_macro23
C:\Users\CYMR90~1\AppData\Local\Temp\cchoDgth.s:7774   .debug_macro:0000000000000000 .Ldebug_macro24
C:\Users\CYMR90~1\AppData\Local\Temp\cchoDgth.s:30563  .debug_str:000000000001fc2e .LASF693
C:\Users\CYMR90~1\AppData\Local\Temp\cchoDgth.s:25190  .debug_str:000000000000a31a .LASF694
C:\Users\CYMR90~1\AppData\Local\Temp\cchoDgth.s:7818   .debug_macro:0000000000000000 .Ldebug_macro25
C:\Users\CYMR90~1\AppData\Local\Temp\cchoDgth.s:23854  .debug_str:0000000000004e00 .LASF700
C:\Users\CYMR90~1\AppData\Local\Temp\cchoDgth.s:24968  .debug_str:0000000000009533 .LASF701
C:\Users\CYMR90~1\AppData\Local\Temp\cchoDgth.s:7838   .debug_macro:0000000000000000 .Ldebug_macro26
C:\Users\CYMR90~1\AppData\Local\Temp\cchoDgth.s:7849   .debug_macro:0000000000000000 .Ldebug_macro27
C:\Users\CYMR90~1\AppData\Local\Temp\cchoDgth.s:7893   .debug_macro:0000000000000000 .Ldebug_macro28
C:\Users\CYMR90~1\AppData\Local\Temp\cchoDgth.s:24226  .debug_str:00000000000064bf .LASF749
C:\Users\CYMR90~1\AppData\Local\Temp\cchoDgth.s:7994   .debug_macro:0000000000000000 .Ldebug_macro29
C:\Users\CYMR90~1\AppData\Local\Temp\cchoDgth.s:8011   .debug_macro:0000000000000000 .Ldebug_macro30
C:\Users\CYMR90~1\AppData\Local\Temp\cchoDgth.s:22700  .debug_str:000000000000045f .LASF763
C:\Users\CYMR90~1\AppData\Local\Temp\cchoDgth.s:24044  .debug_str:0000000000005996 .LASF764
C:\Users\CYMR90~1\AppData\Local\Temp\cchoDgth.s:8043   .debug_macro:0000000000000000 .Ldebug_macro31
C:\Users\CYMR90~1\AppData\Local\Temp\cchoDgth.s:8057   .debug_macro:0000000000000000 .Ldebug_macro32
C:\Users\CYMR90~1\AppData\Local\Temp\cchoDgth.s:8227   .debug_macro:0000000000000000 .Ldebug_macro33
C:\Users\CYMR90~1\AppData\Local\Temp\cchoDgth.s:26500  .debug_str:000000000000f75e .LASF850
C:\Users\CYMR90~1\AppData\Local\Temp\cchoDgth.s:28905  .debug_str:00000000000191f4 .LASF851
C:\Users\CYMR90~1\AppData\Local\Temp\cchoDgth.s:8313   .debug_macro:0000000000000000 .Ldebug_macro34
C:\Users\CYMR90~1\AppData\Local\Temp\cchoDgth.s:8438   .debug_macro:0000000000000000 .Ldebug_macro35
C:\Users\CYMR90~1\AppData\Local\Temp\cchoDgth.s:22990  .debug_str:0000000000001622 .LASF951
C:\Users\CYMR90~1\AppData\Local\Temp\cchoDgth.s:8650   .debug_macro:0000000000000000 .Ldebug_macro36
C:\Users\CYMR90~1\AppData\Local\Temp\cchoDgth.s:24726  .debug_str:0000000000008619 .LASF957
C:\Users\CYMR90~1\AppData\Local\Temp\cchoDgth.s:24278  .debug_str:00000000000067d0 .LASF958
C:\Users\CYMR90~1\AppData\Local\Temp\cchoDgth.s:23160  .debug_str:00000000000020db .LASF959
C:\Users\CYMR90~1\AppData\Local\Temp\cchoDgth.s:8670   .debug_macro:0000000000000000 .Ldebug_macro37
C:\Users\CYMR90~1\AppData\Local\Temp\cchoDgth.s:8762   .debug_macro:0000000000000000 .Ldebug_macro38
C:\Users\CYMR90~1\AppData\Local\Temp\cchoDgth.s:10408  .debug_macro:0000000000000000 .Ldebug_macro39
C:\Users\CYMR90~1\AppData\Local\Temp\cchoDgth.s:10500  .debug_macro:0000000000000000 .Ldebug_macro40
C:\Users\CYMR90~1\AppData\Local\Temp\cchoDgth.s:10556  .debug_macro:0000000000000000 .Ldebug_macro41
C:\Users\CYMR90~1\AppData\Local\Temp\cchoDgth.s:10570  .debug_macro:0000000000000000 .Ldebug_macro42
C:\Users\CYMR90~1\AppData\Local\Temp\cchoDgth.s:28214  .debug_str:0000000000016441 .LASF1655
C:\Users\CYMR90~1\AppData\Local\Temp\cchoDgth.s:25100  .debug_str:0000000000009d9a .LASF1656
C:\Users\CYMR90~1\AppData\Local\Temp\cchoDgth.s:10794  .debug_macro:0000000000000000 .Ldebug_macro43
C:\Users\CYMR90~1\AppData\Local\Temp\cchoDgth.s:10841  .debug_macro:0000000000000000 .Ldebug_macro44
C:\Users\CYMR90~1\AppData\Local\Temp\cchoDgth.s:10996  .debug_macro:0000000000000000 .Ldebug_macro45
C:\Users\CYMR90~1\AppData\Local\Temp\cchoDgth.s:11052  .debug_macro:0000000000000000 .Ldebug_macro46
C:\Users\CYMR90~1\AppData\Local\Temp\cchoDgth.s:11063  .debug_macro:0000000000000000 .Ldebug_macro47
C:\Users\CYMR90~1\AppData\Local\Temp\cchoDgth.s:33243  .debug_str:000000000002a5a8 .LASF1782
C:\Users\CYMR90~1\AppData\Local\Temp\cchoDgth.s:27974  .debug_str:0000000000015567 .LASF1783
C:\Users\CYMR90~1\AppData\Local\Temp\cchoDgth.s:11194  .debug_macro:0000000000000000 .Ldebug_macro48
C:\Users\CYMR90~1\AppData\Local\Temp\cchoDgth.s:11766  .debug_macro:0000000000000000 .Ldebug_macro49
C:\Users\CYMR90~1\AppData\Local\Temp\cchoDgth.s:12053  .debug_macro:0000000000000000 .Ldebug_macro50
C:\Users\CYMR90~1\AppData\Local\Temp\cchoDgth.s:12082  .debug_macro:0000000000000000 .Ldebug_macro51
C:\Users\CYMR90~1\AppData\Local\Temp\cchoDgth.s:12159  .debug_macro:0000000000000000 .Ldebug_macro52
C:\Users\CYMR90~1\AppData\Local\Temp\cchoDgth.s:12692  .debug_macro:0000000000000000 .Ldebug_macro53
C:\Users\CYMR90~1\AppData\Local\Temp\cchoDgth.s:12715  .debug_macro:0000000000000000 .Ldebug_macro54
C:\Users\CYMR90~1\AppData\Local\Temp\cchoDgth.s:12981  .debug_macro:0000000000000000 .Ldebug_macro55
C:\Users\CYMR90~1\AppData\Local\Temp\cchoDgth.s:13460  .debug_macro:0000000000000000 .Ldebug_macro56
C:\Users\CYMR90~1\AppData\Local\Temp\cchoDgth.s:13789  .debug_macro:0000000000000000 .Ldebug_macro57
C:\Users\CYMR90~1\AppData\Local\Temp\cchoDgth.s:13878  .debug_macro:0000000000000000 .Ldebug_macro58
C:\Users\CYMR90~1\AppData\Local\Temp\cchoDgth.s:14693  .debug_macro:0000000000000000 .Ldebug_macro59
C:\Users\CYMR90~1\AppData\Local\Temp\cchoDgth.s:14884  .debug_macro:0000000000000000 .Ldebug_macro60
C:\Users\CYMR90~1\AppData\Local\Temp\cchoDgth.s:15030  .debug_macro:0000000000000000 .Ldebug_macro61
C:\Users\CYMR90~1\AppData\Local\Temp\cchoDgth.s:15560  .debug_macro:0000000000000000 .Ldebug_macro62
C:\Users\CYMR90~1\AppData\Local\Temp\cchoDgth.s:15982  .debug_macro:0000000000000000 .Ldebug_macro63
C:\Users\CYMR90~1\AppData\Local\Temp\cchoDgth.s:18756  .debug_macro:0000000000000000 .Ldebug_macro64
C:\Users\CYMR90~1\AppData\Local\Temp\cchoDgth.s:19832  .debug_macro:0000000000000000 .Ldebug_macro65
C:\Users\CYMR90~1\AppData\Local\Temp\cchoDgth.s:20101  .debug_macro:0000000000000000 .Ldebug_macro66
C:\Users\CYMR90~1\AppData\Local\Temp\cchoDgth.s:20373  .debug_macro:0000000000000000 .Ldebug_macro67
C:\Users\CYMR90~1\AppData\Local\Temp\cchoDgth.s:21401  .debug_macro:0000000000000000 .Ldebug_macro68
C:\Users\CYMR90~1\AppData\Local\Temp\cchoDgth.s:21445  .debug_macro:0000000000000000 .Ldebug_macro69
C:\Users\CYMR90~1\AppData\Local\Temp\cchoDgth.s:22071  .debug_macro:0000000000000000 .Ldebug_macro70
C:\Users\CYMR90~1\AppData\Local\Temp\cchoDgth.s:22130  .debug_macro:0000000000000000 .Ldebug_macro71
C:\Users\CYMR90~1\AppData\Local\Temp\cchoDgth.s:32311  .debug_str:0000000000026a61 .LASF5556
C:\Users\CYMR90~1\AppData\Local\Temp\cchoDgth.s:32047  .debug_str:00000000000257ce .LASF5557
C:\Users\CYMR90~1\AppData\Local\Temp\cchoDgth.s:25684  .debug_str:000000000000c44e .LASF5558
C:\Users\CYMR90~1\AppData\Local\Temp\cchoDgth.s:30931  .debug_str:00000000000212bf .LASF5559
C:\Users\CYMR90~1\AppData\Local\Temp\cchoDgth.s:28951  .debug_str:000000000001956f .LASF5560
C:\Users\CYMR90~1\AppData\Local\Temp\cchoDgth.s:30525  .debug_str:000000000001f9e5 .LASF5561
C:\Users\CYMR90~1\AppData\Local\Temp\cchoDgth.s:25568  .debug_str:000000000000bc55 .LASF5562
C:\Users\CYMR90~1\AppData\Local\Temp\cchoDgth.s:23990  .debug_str:000000000000563b .LASF5563
C:\Users\CYMR90~1\AppData\Local\Temp\cchoDgth.s:29483  .debug_str:000000000001b889 .LASF5564
C:\Users\CYMR90~1\AppData\Local\Temp\cchoDgth.s:28174  .debug_str:000000000001615f .LASF5565
C:\Users\CYMR90~1\AppData\Local\Temp\cchoDgth.s:31803  .debug_str:00000000000246de .LASF5566
C:\Users\CYMR90~1\AppData\Local\Temp\cchoDgth.s:30977  .debug_str:000000000002153a .LASF5567
C:\Users\CYMR90~1\AppData\Local\Temp\cchoDgth.s:24026  .debug_str:000000000000585b .LASF0
C:\Users\CYMR90~1\AppData\Local\Temp\cchoDgth.s:28409  .debug_str:00000000000172eb .LASF1
C:\Users\CYMR90~1\AppData\Local\Temp\cchoDgth.s:26662  .debug_str:00000000000101c9 .LASF2
C:\Users\CYMR90~1\AppData\Local\Temp\cchoDgth.s:26720  .debug_str:0000000000010539 .LASF3
C:\Users\CYMR90~1\AppData\Local\Temp\cchoDgth.s:28016  .debug_str:00000000000157a6 .LASF4
C:\Users\CYMR90~1\AppData\Local\Temp\cchoDgth.s:33637  .debug_str:000000000002bcf1 .LASF5
C:\Users\CYMR90~1\AppData\Local\Temp\cchoDgth.s:24252  .debug_str:0000000000006667 .LASF6
C:\Users\CYMR90~1\AppData\Local\Temp\cchoDgth.s:32961  .debug_str:000000000002942a .LASF7
C:\Users\CYMR90~1\AppData\Local\Temp\cchoDgth.s:31899  .debug_str:0000000000024dda .LASF8
C:\Users\CYMR90~1\AppData\Local\Temp\cchoDgth.s:29767  .debug_str:000000000001c94c .LASF9
C:\Users\CYMR90~1\AppData\Local\Temp\cchoDgth.s:29107  .debug_str:0000000000019fad .LASF10
C:\Users\CYMR90~1\AppData\Local\Temp\cchoDgth.s:28963  .debug_str:0000000000019610 .LASF11
C:\Users\CYMR90~1\AppData\Local\Temp\cchoDgth.s:33479  .debug_str:000000000002b335 .LASF12
C:\Users\CYMR90~1\AppData\Local\Temp\cchoDgth.s:28975  .debug_str:00000000000196c4 .LASF13
C:\Users\CYMR90~1\AppData\Local\Temp\cchoDgth.s:25260  .debug_str:000000000000a742 .LASF14
C:\Users\CYMR90~1\AppData\Local\Temp\cchoDgth.s:30357  .debug_str:000000000001efe4 .LASF15
C:\Users\CYMR90~1\AppData\Local\Temp\cchoDgth.s:31131  .debug_str:0000000000021f45 .LASF16
C:\Users\CYMR90~1\AppData\Local\Temp\cchoDgth.s:25306  .debug_str:000000000000a9fb .LASF17
C:\Users\CYMR90~1\AppData\Local\Temp\cchoDgth.s:32187  .debug_str:00000000000262da .LASF18
C:\Users\CYMR90~1\AppData\Local\Temp\cchoDgth.s:26274  .debug_str:000000000000e9c1 .LASF19
C:\Users\CYMR90~1\AppData\Local\Temp\cchoDgth.s:23320  .debug_str:0000000000002a92 .LASF20
C:\Users\CYMR90~1\AppData\Local\Temp\cchoDgth.s:28771  .debug_str:00000000000188df .LASF21
C:\Users\CYMR90~1\AppData\Local\Temp\cchoDgth.s:28769  .debug_str:00000000000188c5 .LASF22
C:\Users\CYMR90~1\AppData\Local\Temp\cchoDgth.s:31445  .debug_str:0000000000023231 .LASF23
C:\Users\CYMR90~1\AppData\Local\Temp\cchoDgth.s:29717  .debug_str:000000000001c695 .LASF24
C:\Users\CYMR90~1\AppData\Local\Temp\cchoDgth.s:23558  .debug_str:0000000000003a10 .LASF25
C:\Users\CYMR90~1\AppData\Local\Temp\cchoDgth.s:28144  .debug_str:0000000000015f8d .LASF26
C:\Users\CYMR90~1\AppData\Local\Temp\cchoDgth.s:31449  .debug_str:0000000000023267 .LASF27
C:\Users\CYMR90~1\AppData\Local\Temp\cchoDgth.s:31139  .debug_str:0000000000021fa2 .LASF28
C:\Users\CYMR90~1\AppData\Local\Temp\cchoDgth.s:23974  .debug_str:0000000000005552 .LASF29
C:\Users\CYMR90~1\AppData\Local\Temp\cchoDgth.s:30129  .debug_str:000000000001e20b .LASF30
C:\Users\CYMR90~1\AppData\Local\Temp\cchoDgth.s:22936  .debug_str:0000000000001330 .LASF31
C:\Users\CYMR90~1\AppData\Local\Temp\cchoDgth.s:30597  .debug_str:000000000001fe3f .LASF32
C:\Users\CYMR90~1\AppData\Local\Temp\cchoDgth.s:25142  .debug_str:0000000000009ff0 .LASF33
C:\Users\CYMR90~1\AppData\Local\Temp\cchoDgth.s:24984  .debug_str:0000000000009622 .LASF34
C:\Users\CYMR90~1\AppData\Local\Temp\cchoDgth.s:26306  .debug_str:000000000000eba5 .LASF35
C:\Users\CYMR90~1\AppData\Local\Temp\cchoDgth.s:29221  .debug_str:000000000001a61d .LASF36
C:\Users\CYMR90~1\AppData\Local\Temp\cchoDgth.s:24496  .debug_str:00000000000075fb .LASF37
C:\Users\CYMR90~1\AppData\Local\Temp\cchoDgth.s:26688  .debug_str:0000000000010329 .LASF38
C:\Users\CYMR90~1\AppData\Local\Temp\cchoDgth.s:23522  .debug_str:0000000000003771 .LASF39
C:\Users\CYMR90~1\AppData\Local\Temp\cchoDgth.s:23312  .debug_str:0000000000002a00 .LASF40
C:\Users\CYMR90~1\AppData\Local\Temp\cchoDgth.s:26824  .debug_str:0000000000010b3b .LASF41
C:\Users\CYMR90~1\AppData\Local\Temp\cchoDgth.s:27258  .debug_str:0000000000012710 .LASF42
C:\Users\CYMR90~1\AppData\Local\Temp\cchoDgth.s:27528  .debug_str:0000000000013983 .LASF43
C:\Users\CYMR90~1\AppData\Local\Temp\cchoDgth.s:29211  .debug_str:000000000001a58b .LASF44
C:\Users\CYMR90~1\AppData\Local\Temp\cchoDgth.s:27120  .debug_str:0000000000011e52 .LASF45
C:\Users\CYMR90~1\AppData\Local\Temp\cchoDgth.s:23790  .debug_str:000000000000498d .LASF46
C:\Users\CYMR90~1\AppData\Local\Temp\cchoDgth.s:30135  .debug_str:000000000001e270 .LASF47
C:\Users\CYMR90~1\AppData\Local\Temp\cchoDgth.s:31901  .debug_str:0000000000024def .LASF48
C:\Users\CYMR90~1\AppData\Local\Temp\cchoDgth.s:26050  .debug_str:000000000000dbd1 .LASF49
C:\Users\CYMR90~1\AppData\Local\Temp\cchoDgth.s:23156  .debug_str:00000000000020a8 .LASF50
C:\Users\CYMR90~1\AppData\Local\Temp\cchoDgth.s:22652  .debug_str:000000000000015e .LASF51
C:\Users\CYMR90~1\AppData\Local\Temp\cchoDgth.s:33255  .debug_str:000000000002a63d .LASF52
C:\Users\CYMR90~1\AppData\Local\Temp\cchoDgth.s:25860  .debug_str:000000000000cf11 .LASF53
C:\Users\CYMR90~1\AppData\Local\Temp\cchoDgth.s:27606  .debug_str:0000000000013e06 .LASF54
C:\Users\CYMR90~1\AppData\Local\Temp\cchoDgth.s:26626  .debug_str:000000000000ff44 .LASF55
C:\Users\CYMR90~1\AppData\Local\Temp\cchoDgth.s:24586  .debug_str:0000000000007b85 .LASF56
C:\Users\CYMR90~1\AppData\Local\Temp\cchoDgth.s:33621  .debug_str:000000000002bbe0 .LASF57
C:\Users\CYMR90~1\AppData\Local\Temp\cchoDgth.s:22886  .debug_str:000000000000104e .LASF58
C:\Users\CYMR90~1\AppData\Local\Temp\cchoDgth.s:32191  .debug_str:000000000002631a .LASF59
C:\Users\CYMR90~1\AppData\Local\Temp\cchoDgth.s:27536  .debug_str:00000000000139cf .LASF60
C:\Users\CYMR90~1\AppData\Local\Temp\cchoDgth.s:29501  .debug_str:000000000001b9b8 .LASF61
C:\Users\CYMR90~1\AppData\Local\Temp\cchoDgth.s:23382  .debug_str:0000000000002e8b .LASF62
C:\Users\CYMR90~1\AppData\Local\Temp\cchoDgth.s:26042  .debug_str:000000000000db18 .LASF63
C:\Users\CYMR90~1\AppData\Local\Temp\cchoDgth.s:25780  .debug_str:000000000000ca07 .LASF64
C:\Users\CYMR90~1\AppData\Local\Temp\cchoDgth.s:29197  .debug_str:000000000001a4c2 .LASF65
C:\Users\CYMR90~1\AppData\Local\Temp\cchoDgth.s:27834  .debug_str:0000000000014c26 .LASF66
C:\Users\CYMR90~1\AppData\Local\Temp\cchoDgth.s:33037  .debug_str:00000000000298bc .LASF67
C:\Users\CYMR90~1\AppData\Local\Temp\cchoDgth.s:33481  .debug_str:000000000002b348 .LASF68
C:\Users\CYMR90~1\AppData\Local\Temp\cchoDgth.s:27070  .debug_str:0000000000011ac2 .LASF69
C:\Users\CYMR90~1\AppData\Local\Temp\cchoDgth.s:26200  .debug_str:000000000000e51e .LASF70
C:\Users\CYMR90~1\AppData\Local\Temp\cchoDgth.s:23804  .debug_str:0000000000004af4 .LASF71
C:\Users\CYMR90~1\AppData\Local\Temp\cchoDgth.s:27108  .debug_str:0000000000011d71 .LASF72
C:\Users\CYMR90~1\AppData\Local\Temp\cchoDgth.s:26728  .debug_str:00000000000105aa .LASF73
C:\Users\CYMR90~1\AppData\Local\Temp\cchoDgth.s:27336  .debug_str:0000000000012c65 .LASF74
C:\Users\CYMR90~1\AppData\Local\Temp\cchoDgth.s:27178  .debug_str:00000000000121fd .LASF75
C:\Users\CYMR90~1\AppData\Local\Temp\cchoDgth.s:27280  .debug_str:0000000000012891 .LASF76
C:\Users\CYMR90~1\AppData\Local\Temp\cchoDgth.s:31815  .debug_str:0000000000024871 .LASF77
C:\Users\CYMR90~1\AppData\Local\Temp\cchoDgth.s:29693  .debug_str:000000000001c520 .LASF78
C:\Users\CYMR90~1\AppData\Local\Temp\cchoDgth.s:30099  .debug_str:000000000001dfb1 .LASF79
C:\Users\CYMR90~1\AppData\Local\Temp\cchoDgth.s:33017  .debug_str:000000000002976d .LASF80
C:\Users\CYMR90~1\AppData\Local\Temp\cchoDgth.s:25094  .debug_str:0000000000009d22 .LASF81
C:\Users\CYMR90~1\AppData\Local\Temp\cchoDgth.s:25292  .debug_str:000000000000a8c7 .LASF82
C:\Users\CYMR90~1\AppData\Local\Temp\cchoDgth.s:33149  .debug_str:000000000002a013 .LASF83
C:\Users\CYMR90~1\AppData\Local\Temp\cchoDgth.s:25028  .debug_str:00000000000098ed .LASF84
C:\Users\CYMR90~1\AppData\Local\Temp\cchoDgth.s:24314  .debug_str:0000000000006a22 .LASF85
C:\Users\CYMR90~1\AppData\Local\Temp\cchoDgth.s:29399  .debug_str:000000000001b323 .LASF86
C:\Users\CYMR90~1\AppData\Local\Temp\cchoDgth.s:33177  .debug_str:000000000002a190 .LASF87
C:\Users\CYMR90~1\AppData\Local\Temp\cchoDgth.s:30537  .debug_str:000000000001fa9c .LASF88
C:\Users\CYMR90~1\AppData\Local\Temp\cchoDgth.s:29315  .debug_str:000000000001ad94 .LASF89
C:\Users\CYMR90~1\AppData\Local\Temp\cchoDgth.s:30567  .debug_str:000000000001fc61 .LASF90
C:\Users\CYMR90~1\AppData\Local\Temp\cchoDgth.s:33387  .debug_str:000000000002adfc .LASF91
C:\Users\CYMR90~1\AppData\Local\Temp\cchoDgth.s:32199  .debug_str:0000000000026392 .LASF92
C:\Users\CYMR90~1\AppData\Local\Temp\cchoDgth.s:25172  .debug_str:000000000000a1ef .LASF93
C:\Users\CYMR90~1\AppData\Local\Temp\cchoDgth.s:29979  .debug_str:000000000001d82d .LASF94
C:\Users\CYMR90~1\AppData\Local\Temp\cchoDgth.s:27564  .debug_str:0000000000013b88 .LASF95
C:\Users\CYMR90~1\AppData\Local\Temp\cchoDgth.s:27548  .debug_str:0000000000013a98 .LASF96
C:\Users\CYMR90~1\AppData\Local\Temp\cchoDgth.s:33687  .debug_str:000000000002c033 .LASF97
C:\Users\CYMR90~1\AppData\Local\Temp\cchoDgth.s:27192  .debug_str:00000000000122f5 .LASF98
C:\Users\CYMR90~1\AppData\Local\Temp\cchoDgth.s:31157  .debug_str:00000000000220c5 .LASF99
C:\Users\CYMR90~1\AppData\Local\Temp\cchoDgth.s:24532  .debug_str:000000000000780c .LASF100
C:\Users\CYMR90~1\AppData\Local\Temp\cchoDgth.s:26674  .debug_str:0000000000010254 .LASF101
C:\Users\CYMR90~1\AppData\Local\Temp\cchoDgth.s:28058  .debug_str:00000000000159fd .LASF102
C:\Users\CYMR90~1\AppData\Local\Temp\cchoDgth.s:26956  .debug_str:0000000000011314 .LASF103
C:\Users\CYMR90~1\AppData\Local\Temp\cchoDgth.s:25960  .debug_str:000000000000d59e .LASF104
C:\Users\CYMR90~1\AppData\Local\Temp\cchoDgth.s:27130  .debug_str:0000000000011ee9 .LASF105
C:\Users\CYMR90~1\AppData\Local\Temp\cchoDgth.s:29791  .debug_str:000000000001cad5 .LASF106
C:\Users\CYMR90~1\AppData\Local\Temp\cchoDgth.s:26950  .debug_str:00000000000112af .LASF107
C:\Users\CYMR90~1\AppData\Local\Temp\cchoDgth.s:25956  .debug_str:000000000000d57a .LASF108
C:\Users\CYMR90~1\AppData\Local\Temp\cchoDgth.s:27392  .debug_str:0000000000012ffa .LASF109
C:\Users\CYMR90~1\AppData\Local\Temp\cchoDgth.s:26332  .debug_str:000000000000ed61 .LASF110
C:\Users\CYMR90~1\AppData\Local\Temp\cchoDgth.s:28825  .debug_str:0000000000018c13 .LASF111
C:\Users\CYMR90~1\AppData\Local\Temp\cchoDgth.s:25438  .debug_str:000000000000b3c2 .LASF112
C:\Users\CYMR90~1\AppData\Local\Temp\cchoDgth.s:25168  .debug_str:000000000000a192 .LASF113
C:\Users\CYMR90~1\AppData\Local\Temp\cchoDgth.s:28090  .debug_str:0000000000015bef .LASF114
C:\Users\CYMR90~1\AppData\Local\Temp\cchoDgth.s:33077  .debug_str:0000000000029b98 .LASF115
C:\Users\CYMR90~1\AppData\Local\Temp\cchoDgth.s:31697  .debug_str:0000000000024115 .LASF116
C:\Users\CYMR90~1\AppData\Local\Temp\cchoDgth.s:24920  .debug_str:000000000000928f .LASF117
C:\Users\CYMR90~1\AppData\Local\Temp\cchoDgth.s:29557  .debug_str:000000000001bd18 .LASF118
C:\Users\CYMR90~1\AppData\Local\Temp\cchoDgth.s:33797  .debug_str:000000000002c7a7 .LASF119
C:\Users\CYMR90~1\AppData\Local\Temp\cchoDgth.s:26248  .debug_str:000000000000e7d9 .LASF120
C:\Users\CYMR90~1\AppData\Local\Temp\cchoDgth.s:31797  .debug_str:0000000000024699 .LASF121
C:\Users\CYMR90~1\AppData\Local\Temp\cchoDgth.s:25738  .debug_str:000000000000c773 .LASF122
C:\Users\CYMR90~1\AppData\Local\Temp\cchoDgth.s:25846  .debug_str:000000000000ce64 .LASF123
C:\Users\CYMR90~1\AppData\Local\Temp\cchoDgth.s:23492  .debug_str:00000000000035a8 .LASF124
C:\Users\CYMR90~1\AppData\Local\Temp\cchoDgth.s:33925  .debug_str:000000000002d00d .LASF125
C:\Users\CYMR90~1\AppData\Local\Temp\cchoDgth.s:32747  .debug_str:00000000000285ea .LASF126
C:\Users\CYMR90~1\AppData\Local\Temp\cchoDgth.s:27136  .debug_str:0000000000011f27 .LASF127
C:\Users\CYMR90~1\AppData\Local\Temp\cchoDgth.s:29955  .debug_str:000000000001d6c8 .LASF128
C:\Users\CYMR90~1\AppData\Local\Temp\cchoDgth.s:24994  .debug_str:00000000000096aa .LASF129
C:\Users\CYMR90~1\AppData\Local\Temp\cchoDgth.s:32317  .debug_str:0000000000026ac6 .LASF130
C:\Users\CYMR90~1\AppData\Local\Temp\cchoDgth.s:32623  .debug_str:0000000000027e1a .LASF131
C:\Users\CYMR90~1\AppData\Local\Temp\cchoDgth.s:32435  .debug_str:0000000000027217 .LASF132
C:\Users\CYMR90~1\AppData\Local\Temp\cchoDgth.s:26224  .debug_str:000000000000e65a .LASF133
C:\Users\CYMR90~1\AppData\Local\Temp\cchoDgth.s:31713  .debug_str:00000000000241fc .LASF134
C:\Users\CYMR90~1\AppData\Local\Temp\cchoDgth.s:23756  .debug_str:00000000000046f6 .LASF135
C:\Users\CYMR90~1\AppData\Local\Temp\cchoDgth.s:24634  .debug_str:0000000000007ec8 .LASF136
C:\Users\CYMR90~1\AppData\Local\Temp\cchoDgth.s:33473  .debug_str:000000000002b2de .LASF137
C:\Users\CYMR90~1\AppData\Local\Temp\cchoDgth.s:27386  .debug_str:0000000000012fae .LASF138
C:\Users\CYMR90~1\AppData\Local\Temp\cchoDgth.s:32959  .debug_str:000000000002941a .LASF139
C:\Users\CYMR90~1\AppData\Local\Temp\cchoDgth.s:32083  .debug_str:0000000000025b2f .LASF140
C:\Users\CYMR90~1\AppData\Local\Temp\cchoDgth.s:29647  .debug_str:000000000001c25c .LASF141
C:\Users\CYMR90~1\AppData\Local\Temp\cchoDgth.s:25042  .debug_str:00000000000099c8 .LASF142
C:\Users\CYMR90~1\AppData\Local\Temp\cchoDgth.s:33545  .debug_str:000000000002b6f7 .LASF143
C:\Users\CYMR90~1\AppData\Local\Temp\cchoDgth.s:28795  .debug_str:0000000000018a42 .LASF144
C:\Users\CYMR90~1\AppData\Local\Temp\cchoDgth.s:27846  .debug_str:0000000000014d0b .LASF145
C:\Users\CYMR90~1\AppData\Local\Temp\cchoDgth.s:25812  .debug_str:000000000000cc93 .LASF146
C:\Users\CYMR90~1\AppData\Local\Temp\cchoDgth.s:23802  .debug_str:0000000000004add .LASF147
C:\Users\CYMR90~1\AppData\Local\Temp\cchoDgth.s:26374  .debug_str:000000000000efdb .LASF148
C:\Users\CYMR90~1\AppData\Local\Temp\cchoDgth.s:28773  .debug_str:00000000000188f3 .LASF149
C:\Users\CYMR90~1\AppData\Local\Temp\cchoDgth.s:22726  .debug_str:00000000000005f9 .LASF150
C:\Users\CYMR90~1\AppData\Local\Temp\cchoDgth.s:34025  .debug_str:000000000002d666 .LASF151
C:\Users\CYMR90~1\AppData\Local\Temp\cchoDgth.s:27380  .debug_str:0000000000012f2c .LASF152
C:\Users\CYMR90~1\AppData\Local\Temp\cchoDgth.s:32089  .debug_str:0000000000025b82 .LASF153
C:\Users\CYMR90~1\AppData\Local\Temp\cchoDgth.s:29857  .debug_str:000000000001cf5c .LASF154
C:\Users\CYMR90~1\AppData\Local\Temp\cchoDgth.s:26782  .debug_str:00000000000108d3 .LASF155
C:\Users\CYMR90~1\AppData\Local\Temp\cchoDgth.s:29871  .debug_str:000000000001d05b .LASF156
C:\Users\CYMR90~1\AppData\Local\Temp\cchoDgth.s:29983  .debug_str:000000000001d874 .LASF157
C:\Users\CYMR90~1\AppData\Local\Temp\cchoDgth.s:25666  .debug_str:000000000000c2f2 .LASF158
C:\Users\CYMR90~1\AppData\Local\Temp\cchoDgth.s:24730  .debug_str:000000000000863b .LASF159
C:\Users\CYMR90~1\AppData\Local\Temp\cchoDgth.s:29507  .debug_str:000000000001ba0c .LASF160
C:\Users\CYMR90~1\AppData\Local\Temp\cchoDgth.s:30961  .debug_str:0000000000021462 .LASF161
C:\Users\CYMR90~1\AppData\Local\Temp\cchoDgth.s:29099  .debug_str:0000000000019f1b .LASF162
C:\Users\CYMR90~1\AppData\Local\Temp\cchoDgth.s:31705  .debug_str:0000000000024187 .LASF163
C:\Users\CYMR90~1\AppData\Local\Temp\cchoDgth.s:33371  .debug_str:000000000002ad16 .LASF164
C:\Users\CYMR90~1\AppData\Local\Temp\cchoDgth.s:24486  .debug_str:0000000000007577 .LASF165
C:\Users\CYMR90~1\AppData\Local\Temp\cchoDgth.s:33065  .debug_str:0000000000029a69 .LASF166
C:\Users\CYMR90~1\AppData\Local\Temp\cchoDgth.s:32881  .debug_str:0000000000028f8f .LASF167
C:\Users\CYMR90~1\AppData\Local\Temp\cchoDgth.s:30425  .debug_str:000000000001f3ab .LASF168
C:\Users\CYMR90~1\AppData\Local\Temp\cchoDgth.s:28561  .debug_str:0000000000017bf9 .LASF169
C:\Users\CYMR90~1\AppData\Local\Temp\cchoDgth.s:32497  .debug_str:00000000000275b8 .LASF170
C:\Users\CYMR90~1\AppData\Local\Temp\cchoDgth.s:28176  .debug_str:0000000000016189 .LASF171
C:\Users\CYMR90~1\AppData\Local\Temp\cchoDgth.s:29773  .debug_str:000000000001c992 .LASF172
C:\Users\CYMR90~1\AppData\Local\Temp\cchoDgth.s:25124  .debug_str:0000000000009eee .LASF173
C:\Users\CYMR90~1\AppData\Local\Temp\cchoDgth.s:31513  .debug_str:0000000000023629 .LASF174
C:\Users\CYMR90~1\AppData\Local\Temp\cchoDgth.s:24150  .debug_str:0000000000005ffd .LASF175
C:\Users\CYMR90~1\AppData\Local\Temp\cchoDgth.s:24962  .debug_str:00000000000094eb .LASF176
C:\Users\CYMR90~1\AppData\Local\Temp\cchoDgth.s:23630  .debug_str:0000000000003e92 .LASF177
C:\Users\CYMR90~1\AppData\Local\Temp\cchoDgth.s:28971  .debug_str:0000000000019682 .LASF178
C:\Users\CYMR90~1\AppData\Local\Temp\cchoDgth.s:25898  .debug_str:000000000000d1a2 .LASF179
C:\Users\CYMR90~1\AppData\Local\Temp\cchoDgth.s:23150  .debug_str:000000000000203c .LASF180
C:\Users\CYMR90~1\AppData\Local\Temp\cchoDgth.s:33683  .debug_str:000000000002c008 .LASF181
C:\Users\CYMR90~1\AppData\Local\Temp\cchoDgth.s:22922  .debug_str:0000000000001285 .LASF182
C:\Users\CYMR90~1\AppData\Local\Temp\cchoDgth.s:27504  .debug_str:00000000000137d0 .LASF183
C:\Users\CYMR90~1\AppData\Local\Temp\cchoDgth.s:27914  .debug_str:0000000000015176 .LASF184
C:\Users\CYMR90~1\AppData\Local\Temp\cchoDgth.s:32891  .debug_str:000000000002903e .LASF185
C:\Users\CYMR90~1\AppData\Local\Temp\cchoDgth.s:28471  .debug_str:000000000001764b .LASF186
C:\Users\CYMR90~1\AppData\Local\Temp\cchoDgth.s:24470  .debug_str:0000000000007416 .LASF187
C:\Users\CYMR90~1\AppData\Local\Temp\cchoDgth.s:30513  .debug_str:000000000001f957 .LASF188
C:\Users\CYMR90~1\AppData\Local\Temp\cchoDgth.s:26268  .debug_str:000000000000e96a .LASF189
C:\Users\CYMR90~1\AppData\Local\Temp\cchoDgth.s:27612  .debug_str:0000000000013e65 .LASF190
C:\Users\CYMR90~1\AppData\Local\Temp\cchoDgth.s:31023  .debug_str:000000000002181c .LASF191
C:\Users\CYMR90~1\AppData\Local\Temp\cchoDgth.s:28336  .debug_str:0000000000016c1e .LASF192
C:\Users\CYMR90~1\AppData\Local\Temp\cchoDgth.s:31255  .debug_str:000000000002269a .LASF193
C:\Users\CYMR90~1\AppData\Local\Temp\cchoDgth.s:24106  .debug_str:0000000000005d83 .LASF194
C:\Users\CYMR90~1\AppData\Local\Temp\cchoDgth.s:23458  .debug_str:000000000000335e .LASF195
C:\Users\CYMR90~1\AppData\Local\Temp\cchoDgth.s:26094  .debug_str:000000000000de43 .LASF196
C:\Users\CYMR90~1\AppData\Local\Temp\cchoDgth.s:27014  .debug_str:0000000000011691 .LASF197
C:\Users\CYMR90~1\AppData\Local\Temp\cchoDgth.s:23958  .debug_str:0000000000005434 .LASF198
C:\Users\CYMR90~1\AppData\Local\Temp\cchoDgth.s:32777  .debug_str:000000000002880b .LASF199
C:\Users\CYMR90~1\AppData\Local\Temp\cchoDgth.s:30893  .debug_str:000000000002103c .LASF200
C:\Users\CYMR90~1\AppData\Local\Temp\cchoDgth.s:29991  .debug_str:000000000001d8d2 .LASF201
C:\Users\CYMR90~1\AppData\Local\Temp\cchoDgth.s:25098  .debug_str:0000000000009d59 .LASF202
C:\Users\CYMR90~1\AppData\Local\Temp\cchoDgth.s:33235  .debug_str:000000000002a517 .LASF203
C:\Users\CYMR90~1\AppData\Local\Temp\cchoDgth.s:23472  .debug_str:0000000000003458 .LASF204
C:\Users\CYMR90~1\AppData\Local\Temp\cchoDgth.s:26506  .debug_str:000000000000f7b8 .LASF205
C:\Users\CYMR90~1\AppData\Local\Temp\cchoDgth.s:32969  .debug_str:000000000002948b .LASF206
C:\Users\CYMR90~1\AppData\Local\Temp\cchoDgth.s:27732  .debug_str:00000000000145ea .LASF207
C:\Users\CYMR90~1\AppData\Local\Temp\cchoDgth.s:30555  .debug_str:000000000001fbb3 .LASF208
C:\Users\CYMR90~1\AppData\Local\Temp\cchoDgth.s:25730  .debug_str:000000000000c70c .LASF209
C:\Users\CYMR90~1\AppData\Local\Temp\cchoDgth.s:33893  .debug_str:000000000002cdd1 .LASF210
C:\Users\CYMR90~1\AppData\Local\Temp\cchoDgth.s:27702  .debug_str:0000000000014425 .LASF211
C:\Users\CYMR90~1\AppData\Local\Temp\cchoDgth.s:30395  .debug_str:000000000001f1e5 .LASF212
C:\Users\CYMR90~1\AppData\Local\Temp\cchoDgth.s:28991  .debug_str:00000000000197b0 .LASF213
C:\Users\CYMR90~1\AppData\Local\Temp\cchoDgth.s:24190  .debug_str:000000000000626b .LASF214
C:\Users\CYMR90~1\AppData\Local\Temp\cchoDgth.s:27710  .debug_str:0000000000014495 .LASF215
C:\Users\CYMR90~1\AppData\Local\Temp\cchoDgth.s:29689  .debug_str:000000000001c4d0 .LASF216
C:\Users\CYMR90~1\AppData\Local\Temp\cchoDgth.s:30665  .debug_str:000000000002026e .LASF217
C:\Users\CYMR90~1\AppData\Local\Temp\cchoDgth.s:26580  .debug_str:000000000000fc7f .LASF218
C:\Users\CYMR90~1\AppData\Local\Temp\cchoDgth.s:32091  .debug_str:0000000000025bbe .LASF219
C:\Users\CYMR90~1\AppData\Local\Temp\cchoDgth.s:31893  .debug_str:0000000000024d76 .LASF220
C:\Users\CYMR90~1\AppData\Local\Temp\cchoDgth.s:31407  .debug_str:0000000000022f78 .LASF221
C:\Users\CYMR90~1\AppData\Local\Temp\cchoDgth.s:27980  .debug_str:00000000000155ac .LASF222
C:\Users\CYMR90~1\AppData\Local\Temp\cchoDgth.s:24160  .debug_str:000000000000607f .LASF223
C:\Users\CYMR90~1\AppData\Local\Temp\cchoDgth.s:24826  .debug_str:0000000000008c54 .LASF224
C:\Users\CYMR90~1\AppData\Local\Temp\cchoDgth.s:33555  .debug_str:000000000002b767 .LASF225
C:\Users\CYMR90~1\AppData\Local\Temp\cchoDgth.s:26164  .debug_str:000000000000e2ed .LASF226
C:\Users\CYMR90~1\AppData\Local\Temp\cchoDgth.s:29853  .debug_str:000000000001cf2e .LASF227
C:\Users\CYMR90~1\AppData\Local\Temp\cchoDgth.s:29699  .debug_str:000000000001c57c .LASF228
C:\Users\CYMR90~1\AppData\Local\Temp\cchoDgth.s:26106  .debug_str:000000000000defa .LASF229
C:\Users\CYMR90~1\AppData\Local\Temp\cchoDgth.s:30435  .debug_str:000000000001f464 .LASF230
C:\Users\CYMR90~1\AppData\Local\Temp\cchoDgth.s:24874  .debug_str:0000000000008fb3 .LASF231
C:\Users\CYMR90~1\AppData\Local\Temp\cchoDgth.s:24200  .debug_str:0000000000006328 .LASF232
C:\Users\CYMR90~1\AppData\Local\Temp\cchoDgth.s:24782  .debug_str:000000000000894d .LASF233
C:\Users\CYMR90~1\AppData\Local\Temp\cchoDgth.s:26774  .debug_str:0000000000010850 .LASF234
C:\Users\CYMR90~1\AppData\Local\Temp\cchoDgth.s:26502  .debug_str:000000000000f770 .LASF235
C:\Users\CYMR90~1\AppData\Local\Temp\cchoDgth.s:31633  .debug_str:0000000000023d13 .LASF236
C:\Users\CYMR90~1\AppData\Local\Temp\cchoDgth.s:26524  .debug_str:000000000000f8c1 .LASF237
C:\Users\CYMR90~1\AppData\Local\Temp\cchoDgth.s:32313  .debug_str:0000000000026a8a .LASF238
C:\Users\CYMR90~1\AppData\Local\Temp\cchoDgth.s:31617  .debug_str:0000000000023c12 .LASF239
C:\Users\CYMR90~1\AppData\Local\Temp\cchoDgth.s:31855  .debug_str:0000000000024b48 .LASF240
C:\Users\CYMR90~1\AppData\Local\Temp\cchoDgth.s:26110  .debug_str:000000000000df53 .LASF241
C:\Users\CYMR90~1\AppData\Local\Temp\cchoDgth.s:26186  .debug_str:000000000000e421 .LASF242
C:\Users\CYMR90~1\AppData\Local\Temp\cchoDgth.s:27174  .debug_str:0000000000012195 .LASF243
C:\Users\CYMR90~1\AppData\Local\Temp\cchoDgth.s:31645  .debug_str:0000000000023dbd .LASF244
C:\Users\CYMR90~1\AppData\Local\Temp\cchoDgth.s:27364  .debug_str:0000000000012e0c .LASF245
C:\Users\CYMR90~1\AppData\Local\Temp\cchoDgth.s:30445  .debug_str:000000000001f52c .LASF246
C:\Users\CYMR90~1\AppData\Local\Temp\cchoDgth.s:28757  .debug_str:00000000000187d2 .LASF247
C:\Users\CYMR90~1\AppData\Local\Temp\cchoDgth.s:28266  .debug_str:000000000001672c .LASF248
C:\Users\CYMR90~1\AppData\Local\Temp\cchoDgth.s:29787  .debug_str:000000000001caa5 .LASF249
C:\Users\CYMR90~1\AppData\Local\Temp\cchoDgth.s:29159  .debug_str:000000000001a29f .LASF250
C:\Users\CYMR90~1\AppData\Local\Temp\cchoDgth.s:29719  .debug_str:000000000001c6a4 .LASF251
C:\Users\CYMR90~1\AppData\Local\Temp\cchoDgth.s:31457  .debug_str:00000000000232fb .LASF252
C:\Users\CYMR90~1\AppData\Local\Temp\cchoDgth.s:26078  .debug_str:000000000000dd76 .LASF253
C:\Users\CYMR90~1\AppData\Local\Temp\cchoDgth.s:32163  .debug_str:000000000002616a .LASF254
C:\Users\CYMR90~1\AppData\Local\Temp\cchoDgth.s:25942  .debug_str:000000000000d470 .LASF255
C:\Users\CYMR90~1\AppData\Local\Temp\cchoDgth.s:29063  .debug_str:0000000000019cd4 .LASF256
C:\Users\CYMR90~1\AppData\Local\Temp\cchoDgth.s:26182  .debug_str:000000000000e3ef .LASF257
C:\Users\CYMR90~1\AppData\Local\Temp\cchoDgth.s:30383  .debug_str:000000000001f11c .LASF258
C:\Users\CYMR90~1\AppData\Local\Temp\cchoDgth.s:25394  .debug_str:000000000000b048 .LASF259
C:\Users\CYMR90~1\AppData\Local\Temp\cchoDgth.s:22804  .debug_str:0000000000000aa6 .LASF260
C:\Users\CYMR90~1\AppData\Local\Temp\cchoDgth.s:31451  .debug_str:0000000000023281 .LASF261
C:\Users\CYMR90~1\AppData\Local\Temp\cchoDgth.s:32759  .debug_str:0000000000028690 .LASF262
C:\Users\CYMR90~1\AppData\Local\Temp\cchoDgth.s:27682  .debug_str:00000000000142ac .LASF263
C:\Users\CYMR90~1\AppData\Local\Temp\cchoDgth.s:29671  .debug_str:000000000001c3ba .LASF264
C:\Users\CYMR90~1\AppData\Local\Temp\cchoDgth.s:26630  .debug_str:000000000000ff8b .LASF265
C:\Users\CYMR90~1\AppData\Local\Temp\cchoDgth.s:26108  .debug_str:000000000000df3b .LASF266
C:\Users\CYMR90~1\AppData\Local\Temp\cchoDgth.s:25450  .debug_str:000000000000b487 .LASF267
C:\Users\CYMR90~1\AppData\Local\Temp\cchoDgth.s:29775  .debug_str:000000000001c9a7 .LASF268
C:\Users\CYMR90~1\AppData\Local\Temp\cchoDgth.s:25760  .debug_str:000000000000c8d7 .LASF269
C:\Users\CYMR90~1\AppData\Local\Temp\cchoDgth.s:26696  .debug_str:00000000000103ca .LASF270
C:\Users\CYMR90~1\AppData\Local\Temp\cchoDgth.s:27956  .debug_str:0000000000015431 .LASF271
C:\Users\CYMR90~1\AppData\Local\Temp\cchoDgth.s:32417  .debug_str:000000000002711d .LASF272
C:\Users\CYMR90~1\AppData\Local\Temp\cchoDgth.s:24358  .debug_str:0000000000006cc8 .LASF273
C:\Users\CYMR90~1\AppData\Local\Temp\cchoDgth.s:23264  .debug_str:000000000000268d .LASF274
C:\Users\CYMR90~1\AppData\Local\Temp\cchoDgth.s:24454  .debug_str:00000000000072ff .LASF275
C:\Users\CYMR90~1\AppData\Local\Temp\cchoDgth.s:23526  .debug_str:00000000000037ad .LASF276
C:\Users\CYMR90~1\AppData\Local\Temp\cchoDgth.s:25650  .debug_str:000000000000c1e6 .LASF277
C:\Users\CYMR90~1\AppData\Local\Temp\cchoDgth.s:22946  .debug_str:00000000000013a4 .LASF278
C:\Users\CYMR90~1\AppData\Local\Temp\cchoDgth.s:26160  .debug_str:000000000000e2ac .LASF279
C:\Users\CYMR90~1\AppData\Local\Temp\cchoDgth.s:33089  .debug_str:0000000000029c45 .LASF280
C:\Users\CYMR90~1\AppData\Local\Temp\cchoDgth.s:25148  .debug_str:000000000000a03a .LASF281
C:\Users\CYMR90~1\AppData\Local\Temp\cchoDgth.s:24248  .debug_str:000000000000662a .LASF282
C:\Users\CYMR90~1\AppData\Local\Temp\cchoDgth.s:24154  .debug_str:000000000000602d .LASF283
C:\Users\CYMR90~1\AppData\Local\Temp\cchoDgth.s:23912  .debug_str:0000000000005186 .LASF284
C:\Users\CYMR90~1\AppData\Local\Temp\cchoDgth.s:31959  .debug_str:0000000000025207 .LASF285
C:\Users\CYMR90~1\AppData\Local\Temp\cchoDgth.s:32789  .debug_str:0000000000028909 .LASF286
C:\Users\CYMR90~1\AppData\Local\Temp\cchoDgth.s:33073  .debug_str:0000000000029ac6 .LASF287
C:\Users\CYMR90~1\AppData\Local\Temp\cchoDgth.s:32985  .debug_str:0000000000029574 .LASF288
C:\Users\CYMR90~1\AppData\Local\Temp\cchoDgth.s:33825  .debug_str:000000000002c985 .LASF289
C:\Users\CYMR90~1\AppData\Local\Temp\cchoDgth.s:28703  .debug_str:00000000000184ab .LASF290
C:\Users\CYMR90~1\AppData\Local\Temp\cchoDgth.s:27736  .debug_str:0000000000014610 .LASF291
C:\Users\CYMR90~1\AppData\Local\Temp\cchoDgth.s:31995  .debug_str:0000000000025472 .LASF292
C:\Users\CYMR90~1\AppData\Local\Temp\cchoDgth.s:23552  .debug_str:00000000000039a8 .LASF293
C:\Users\CYMR90~1\AppData\Local\Temp\cchoDgth.s:30905  .debug_str:0000000000021101 .LASF294
C:\Users\CYMR90~1\AppData\Local\Temp\cchoDgth.s:23828  .debug_str:0000000000004c4b .LASF295
C:\Users\CYMR90~1\AppData\Local\Temp\cchoDgth.s:33413  .debug_str:000000000002af83 .LASF296
C:\Users\CYMR90~1\AppData\Local\Temp\cchoDgth.s:33603  .debug_str:000000000002baa1 .LASF297
C:\Users\CYMR90~1\AppData\Local\Temp\cchoDgth.s:28579  .debug_str:0000000000017d41 .LASF298
C:\Users\CYMR90~1\AppData\Local\Temp\cchoDgth.s:22788  .debug_str:00000000000009b3 .LASF299
C:\Users\CYMR90~1\AppData\Local\Temp\cchoDgth.s:26600  .debug_str:000000000000fda3 .LASF300
C:\Users\CYMR90~1\AppData\Local\Temp\cchoDgth.s:29339  .debug_str:000000000001af0c .LASF301
C:\Users\CYMR90~1\AppData\Local\Temp\cchoDgth.s:27840  .debug_str:0000000000014c7d .LASF302
C:\Users\CYMR90~1\AppData\Local\Temp\cchoDgth.s:27314  .debug_str:0000000000012ae1 .LASF303
C:\Users\CYMR90~1\AppData\Local\Temp\cchoDgth.s:23188  .debug_str:0000000000002234 .LASF304
C:\Users\CYMR90~1\AppData\Local\Temp\cchoDgth.s:25768  .debug_str:000000000000c95b .LASF305
C:\Users\CYMR90~1\AppData\Local\Temp\cchoDgth.s:31123  .debug_str:0000000000021eda .LASF306
C:\Users\CYMR90~1\AppData\Local\Temp\cchoDgth.s:26616  .debug_str:000000000000feac .LASF307
C:\Users\CYMR90~1\AppData\Local\Temp\cchoDgth.s:31979  .debug_str:000000000002535d .LASF308
C:\Users\CYMR90~1\AppData\Local\Temp\cchoDgth.s:31585  .debug_str:0000000000023a17 .LASF309
C:\Users\CYMR90~1\AppData\Local\Temp\cchoDgth.s:26166  .debug_str:000000000000e306 .LASF310
C:\Users\CYMR90~1\AppData\Local\Temp\cchoDgth.s:32305  .debug_str:0000000000026a10 .LASF311
C:\Users\CYMR90~1\AppData\Local\Temp\cchoDgth.s:31809  .debug_str:000000000002483a .LASF312
C:\Users\CYMR90~1\AppData\Local\Temp\cchoDgth.s:25880  .debug_str:000000000000d02f .LASF313
C:\Users\CYMR90~1\AppData\Local\Temp\cchoDgth.s:28845  .debug_str:0000000000018d78 .LASF316
C:\Users\CYMR90~1\AppData\Local\Temp\cchoDgth.s:29213  .debug_str:000000000001a5a8 .LASF317
C:\Users\CYMR90~1\AppData\Local\Temp\cchoDgth.s:29563  .debug_str:000000000001bd56 .LASF318
C:\Users\CYMR90~1\AppData\Local\Temp\cchoDgth.s:26608  .debug_str:000000000000fe40 .LASF319
C:\Users\CYMR90~1\AppData\Local\Temp\cchoDgth.s:25518  .debug_str:000000000000b8c6 .LASF320
C:\Users\CYMR90~1\AppData\Local\Temp\cchoDgth.s:33035  .debug_str:00000000000298b0 .LASF321
C:\Users\CYMR90~1\AppData\Local\Temp\cchoDgth.s:26076  .debug_str:000000000000dd69 .LASF322
C:\Users\CYMR90~1\AppData\Local\Temp\cchoDgth.s:32255  .debug_str:00000000000266db .LASF323
C:\Users\CYMR90~1\AppData\Local\Temp\cchoDgth.s:22668  .debug_str:0000000000000259 .LASF324
C:\Users\CYMR90~1\AppData\Local\Temp\cchoDgth.s:33439  .debug_str:000000000002b0ec .LASF325
C:\Users\CYMR90~1\AppData\Local\Temp\cchoDgth.s:23602  .debug_str:0000000000003cb7 .LASF326
C:\Users\CYMR90~1\AppData\Local\Temp\cchoDgth.s:27670  .debug_str:00000000000141ef .LASF327
C:\Users\CYMR90~1\AppData\Local\Temp\cchoDgth.s:27316  .debug_str:0000000000012af6 .LASF328
C:\Users\CYMR90~1\AppData\Local\Temp\cchoDgth.s:30227  .debug_str:000000000001e803 .LASF329
C:\Users\CYMR90~1\AppData\Local\Temp\cchoDgth.s:30219  .debug_str:000000000001e7b2 .LASF330
C:\Users\CYMR90~1\AppData\Local\Temp\cchoDgth.s:32457  .debug_str:0000000000027384 .LASF331
C:\Users\CYMR90~1\AppData\Local\Temp\cchoDgth.s:33015  .debug_str:000000000002975e .LASF332
C:\Users\CYMR90~1\AppData\Local\Temp\cchoDgth.s:33201  .debug_str:000000000002a2fa .LASF333
C:\Users\CYMR90~1\AppData\Local\Temp\cchoDgth.s:29187  .debug_str:000000000001a42d .LASF334
C:\Users\CYMR90~1\AppData\Local\Temp\cchoDgth.s:28625  .debug_str:0000000000017ff5 .LASF335
C:\Users\CYMR90~1\AppData\Local\Temp\cchoDgth.s:33055  .debug_str:00000000000299da .LASF336
C:\Users\CYMR90~1\AppData\Local\Temp\cchoDgth.s:27240  .debug_str:00000000000125f2 .LASF337
C:\Users\CYMR90~1\AppData\Local\Temp\cchoDgth.s:30969  .debug_str:00000000000214ce .LASF338
C:\Users\CYMR90~1\AppData\Local\Temp\cchoDgth.s:25264  .debug_str:000000000000a76b .LASF339
C:\Users\CYMR90~1\AppData\Local\Temp\cchoDgth.s:27456  .debug_str:0000000000013451 .LASF340
C:\Users\CYMR90~1\AppData\Local\Temp\cchoDgth.s:29391  .debug_str:000000000001b26c .LASF341
C:\Users\CYMR90~1\AppData\Local\Temp\cchoDgth.s:25584  .debug_str:000000000000bd29 .LASF342
C:\Users\CYMR90~1\AppData\Local\Temp\cchoDgth.s:22928  .debug_str:00000000000012d0 .LASF343
C:\Users\CYMR90~1\AppData\Local\Temp\cchoDgth.s:33169  .debug_str:000000000002a119 .LASF344
C:\Users\CYMR90~1\AppData\Local\Temp\cchoDgth.s:33767  .debug_str:000000000002c561 .LASF345
C:\Users\CYMR90~1\AppData\Local\Temp\cchoDgth.s:26492  .debug_str:000000000000f6e8 .LASF346
C:\Users\CYMR90~1\AppData\Local\Temp\cchoDgth.s:22776  .debug_str:00000000000008fd .LASF347
C:\Users\CYMR90~1\AppData\Local\Temp\cchoDgth.s:30745  .debug_str:000000000002074e .LASF348
C:\Users\CYMR90~1\AppData\Local\Temp\cchoDgth.s:32769  .debug_str:000000000002875f .LASF349
C:\Users\CYMR90~1\AppData\Local\Temp\cchoDgth.s:30221  .debug_str:000000000001e7be .LASF350
C:\Users\CYMR90~1\AppData\Local\Temp\cchoDgth.s:22708  .debug_str:00000000000004f3 .LASF351
C:\Users\CYMR90~1\AppData\Local\Temp\cchoDgth.s:30517  .debug_str:000000000001f987 .LASF352
C:\Users\CYMR90~1\AppData\Local\Temp\cchoDgth.s:32247  .debug_str:0000000000026671 .LASF353
C:\Users\CYMR90~1\AppData\Local\Temp\cchoDgth.s:29837  .debug_str:000000000001ce65 .LASF354
C:\Users\CYMR90~1\AppData\Local\Temp\cchoDgth.s:30005  .debug_str:000000000001d9c8 .LASF355
C:\Users\CYMR90~1\AppData\Local\Temp\cchoDgth.s:25966  .debug_str:000000000000d694 .LASF356
C:\Users\CYMR90~1\AppData\Local\Temp\cchoDgth.s:29143  .debug_str:000000000001a1cd .LASF357
C:\Users\CYMR90~1\AppData\Local\Temp\cchoDgth.s:32679  .debug_str:000000000002815f .LASF358
C:\Users\CYMR90~1\AppData\Local\Temp\cchoDgth.s:27306  .debug_str:0000000000012a36 .LASF359
C:\Users\CYMR90~1\AppData\Local\Temp\cchoDgth.s:25362  .debug_str:000000000000ae58 .LASF360
C:\Users\CYMR90~1\AppData\Local\Temp\cchoDgth.s:30397  .debug_str:000000000001f1fd .LASF361
C:\Users\CYMR90~1\AppData\Local\Temp\cchoDgth.s:27040  .debug_str:0000000000011834 .LASF362
C:\Users\CYMR90~1\AppData\Local\Temp\cchoDgth.s:32949  .debug_str:000000000002937d .LASF363
C:\Users\CYMR90~1\AppData\Local\Temp\cchoDgth.s:24904  .debug_str:00000000000091bb .LASF364
C:\Users\CYMR90~1\AppData\Local\Temp\cchoDgth.s:32839  .debug_str:0000000000028cab .LASF365
C:\Users\CYMR90~1\AppData\Local\Temp\cchoDgth.s:24318  .debug_str:0000000000006a87 .LASF366
C:\Users\CYMR90~1\AppData\Local\Temp\cchoDgth.s:27448  .debug_str:00000000000133a1 .LASF367
C:\Users\CYMR90~1\AppData\Local\Temp\cchoDgth.s:24610  .debug_str:0000000000007d6f .LASF368
C:\Users\CYMR90~1\AppData\Local\Temp\cchoDgth.s:28669  .debug_str:0000000000018299 .LASF372
C:\Users\CYMR90~1\AppData\Local\Temp\cchoDgth.s:32499  .debug_str:00000000000275fd .LASF373
C:\Users\CYMR90~1\AppData\Local\Temp\cchoDgth.s:25342  .debug_str:000000000000acfd .LASF374
C:\Users\CYMR90~1\AppData\Local\Temp\cchoDgth.s:28459  .debug_str:00000000000175a4 .LASF375
C:\Users\CYMR90~1\AppData\Local\Temp\cchoDgth.s:28655  .debug_str:00000000000181d1 .LASF376
C:\Users\CYMR90~1\AppData\Local\Temp\cchoDgth.s:31219  .debug_str:0000000000022496 .LASF377
C:\Users\CYMR90~1\AppData\Local\Temp\cchoDgth.s:29855  .debug_str:000000000001cf47 .LASF378
C:\Users\CYMR90~1\AppData\Local\Temp\cchoDgth.s:33593  .debug_str:000000000002ba06 .LASF379
C:\Users\CYMR90~1\AppData\Local\Temp\cchoDgth.s:23278  .debug_str:00000000000027ae .LASF380
C:\Users\CYMR90~1\AppData\Local\Temp\cchoDgth.s:33537  .debug_str:000000000002b68f .LASF381
C:\Users\CYMR90~1\AppData\Local\Temp\cchoDgth.s:29571  .debug_str:000000000001bda7 .LASF382
C:\Users\CYMR90~1\AppData\Local\Temp\cchoDgth.s:24376  .debug_str:0000000000006def .LASF383
C:\Users\CYMR90~1\AppData\Local\Temp\cchoDgth.s:25732  .debug_str:000000000000c727 .LASF384
C:\Users\CYMR90~1\AppData\Local\Temp\cchoDgth.s:29081  .debug_str:0000000000019e08 .LASF385
C:\Users\CYMR90~1\AppData\Local\Temp\cchoDgth.s:26724  .debug_str:000000000001057b .LASF386
C:\Users\CYMR90~1\AppData\Local\Temp\cchoDgth.s:23214  .debug_str:00000000000023b7 .LASF387
C:\Users\CYMR90~1\AppData\Local\Temp\cchoDgth.s:26334  .debug_str:000000000000ed81 .LASF388
C:\Users\CYMR90~1\AppData\Local\Temp\cchoDgth.s:24872  .debug_str:0000000000008f9f .LASF389
C:\Users\CYMR90~1\AppData\Local\Temp\cchoDgth.s:23692  .debug_str:00000000000042f5 .LASF391
C:\Users\CYMR90~1\AppData\Local\Temp\cchoDgth.s:26732  .debug_str:00000000000105e7 .LASF392
C:\Users\CYMR90~1\AppData\Local\Temp\cchoDgth.s:30849  .debug_str:0000000000020dc6 .LASF393
C:\Users\CYMR90~1\AppData\Local\Temp\cchoDgth.s:32637  .debug_str:0000000000027ee0 .LASF394
C:\Users\CYMR90~1\AppData\Local\Temp\cchoDgth.s:23240  .debug_str:0000000000002515 .LASF395
C:\Users\CYMR90~1\AppData\Local\Temp\cchoDgth.s:25388  .debug_str:000000000000afe4 .LASF396
C:\Users\CYMR90~1\AppData\Local\Temp\cchoDgth.s:29193  .debug_str:000000000001a48d .LASF397
C:\Users\CYMR90~1\AppData\Local\Temp\cchoDgth.s:33411  .debug_str:000000000002af71 .LASF398
C:\Users\CYMR90~1\AppData\Local\Temp\cchoDgth.s:28006  .debug_str:0000000000015717 .LASF399
C:\Users\CYMR90~1\AppData\Local\Temp\cchoDgth.s:30477  .debug_str:000000000001f71e .LASF400
C:\Users\CYMR90~1\AppData\Local\Temp\cchoDgth.s:24862  .debug_str:0000000000008e85 .LASF401
C:\Users\CYMR90~1\AppData\Local\Temp\cchoDgth.s:28513  .debug_str:00000000000178f5 .LASF402
C:\Users\CYMR90~1\AppData\Local\Temp\cchoDgth.s:24216  .debug_str:0000000000006429 .LASF403
C:\Users\CYMR90~1\AppData\Local\Temp\cchoDgth.s:25318  .debug_str:000000000000ab75 .LASF404
C:\Users\CYMR90~1\AppData\Local\Temp\cchoDgth.s:26392  .debug_str:000000000000f0ca .LASF405
C:\Users\CYMR90~1\AppData\Local\Temp\cchoDgth.s:29759  .debug_str:000000000001c8e0 .LASF406
C:\Users\CYMR90~1\AppData\Local\Temp\cchoDgth.s:27938  .debug_str:0000000000015323 .LASF407
C:\Users\CYMR90~1\AppData\Local\Temp\cchoDgth.s:28921  .debug_str:00000000000192b4 .LASF408
C:\Users\CYMR90~1\AppData\Local\Temp\cchoDgth.s:31167  .debug_str:0000000000022183 .LASF409
C:\Users\CYMR90~1\AppData\Local\Temp\cchoDgth.s:24172  .debug_str:000000000000613a .LASF410
C:\Users\CYMR90~1\AppData\Local\Temp\cchoDgth.s:28116  .debug_str:0000000000015d7f .LASF411
C:\Users\CYMR90~1\AppData\Local\Temp\cchoDgth.s:31715  .debug_str:000000000002421c .LASF412
C:\Users\CYMR90~1\AppData\Local\Temp\cchoDgth.s:24350  .debug_str:0000000000006c68 .LASF413
C:\Users\CYMR90~1\AppData\Local\Temp\cchoDgth.s:33049  .debug_str:0000000000029973 .LASF414
C:\Users\CYMR90~1\AppData\Local\Temp\cchoDgth.s:26494  .debug_str:000000000000f6f6 .LASF415
C:\Users\CYMR90~1\AppData\Local\Temp\cchoDgth.s:32371  .debug_str:0000000000026e2a .LASF416
C:\Users\CYMR90~1\AppData\Local\Temp\cchoDgth.s:33891  .debug_str:000000000002cdc6 .LASF417
C:\Users\CYMR90~1\AppData\Local\Temp\cchoDgth.s:24800  .debug_str:0000000000008a76 .LASF418
C:\Users\CYMR90~1\AppData\Local\Temp\cchoDgth.s:33261  .debug_str:000000000002a694 .LASF419
C:\Users\CYMR90~1\AppData\Local\Temp\cchoDgth.s:24424  .debug_str:0000000000007106 .LASF420
C:\Users\CYMR90~1\AppData\Local\Temp\cchoDgth.s:33459  .debug_str:000000000002b201 .LASF421
C:\Users\CYMR90~1\AppData\Local\Temp\cchoDgth.s:25660  .debug_str:000000000000c2a2 .LASF422
C:\Users\CYMR90~1\AppData\Local\Temp\cchoDgth.s:25858  .debug_str:000000000000cf05 .LASF423
C:\Users\CYMR90~1\AppData\Local\Temp\cchoDgth.s:30377  .debug_str:000000000001f0dd .LASF424
C:\Users\CYMR90~1\AppData\Local\Temp\cchoDgth.s:28961  .debug_str:00000000000195f7 .LASF425
C:\Users\CYMR90~1\AppData\Local\Temp\cchoDgth.s:22680  .debug_str:0000000000000322 .LASF426
C:\Users\CYMR90~1\AppData\Local\Temp\cchoDgth.s:32957  .debug_str:00000000000293f7 .LASF427
C:\Users\CYMR90~1\AppData\Local\Temp\cchoDgth.s:28206  .debug_str:00000000000163c9 .LASF428
C:\Users\CYMR90~1\AppData\Local\Temp\cchoDgth.s:30147  .debug_str:000000000001e35d .LASF429
C:\Users\CYMR90~1\AppData\Local\Temp\cchoDgth.s:26672  .debug_str:000000000001024b .LASF430
C:\Users\CYMR90~1\AppData\Local\Temp\cchoDgth.s:28403  .debug_str:0000000000017288 .LASF431
C:\Users\CYMR90~1\AppData\Local\Temp\cchoDgth.s:31241  .debug_str:00000000000225c4 .LASF432
C:\Users\CYMR90~1\AppData\Local\Temp\cchoDgth.s:25842  .debug_str:000000000000ce2f .LASF434
C:\Users\CYMR90~1\AppData\Local\Temp\cchoDgth.s:23882  .debug_str:0000000000004fb6 .LASF435
C:\Users\CYMR90~1\AppData\Local\Temp\cchoDgth.s:28599  .debug_str:0000000000017e70 .LASF436
C:\Users\CYMR90~1\AppData\Local\Temp\cchoDgth.s:24442  .debug_str:0000000000007224 .LASF437
C:\Users\CYMR90~1\AppData\Local\Temp\cchoDgth.s:32975  .debug_str:00000000000294df .LASF438
C:\Users\CYMR90~1\AppData\Local\Temp\cchoDgth.s:22642  .debug_str:00000000000000c7 .LASF439
C:\Users\CYMR90~1\AppData\Local\Temp\cchoDgth.s:30413  .debug_str:000000000001f2f1 .LASF440
C:\Users\CYMR90~1\AppData\Local\Temp\cchoDgth.s:26084  .debug_str:000000000000ddd9 .LASF441
C:\Users\CYMR90~1\AppData\Local\Temp\cchoDgth.s:31489  .debug_str:00000000000234d6 .LASF442
C:\Users\CYMR90~1\AppData\Local\Temp\cchoDgth.s:30351  .debug_str:000000000001ef81 .LASF443
C:\Users\CYMR90~1\AppData\Local\Temp\cchoDgth.s:26804  .debug_str:0000000000010a27 .LASF444
C:\Users\CYMR90~1\AppData\Local\Temp\cchoDgth.s:33885  .debug_str:000000000002cd7a .LASF445
C:\Users\CYMR90~1\AppData\Local\Temp\cchoDgth.s:23006  .debug_str:000000000000172b .LASF446
C:\Users\CYMR90~1\AppData\Local\Temp\cchoDgth.s:33443  .debug_str:000000000002b116 .LASF447
C:\Users\CYMR90~1\AppData\Local\Temp\cchoDgth.s:31459  .debug_str:000000000002330d .LASF448
C:\Users\CYMR90~1\AppData\Local\Temp\cchoDgth.s:23702  .debug_str:0000000000004387 .LASF449
C:\Users\CYMR90~1\AppData\Local\Temp\cchoDgth.s:24462  .debug_str:000000000000738d .LASF450
C:\Users\CYMR90~1\AppData\Local\Temp\cchoDgth.s:25064  .debug_str:0000000000009b49 .LASF451
C:\Users\CYMR90~1\AppData\Local\Temp\cchoDgth.s:27848  .debug_str:0000000000014d1f .LASF452
C:\Users\CYMR90~1\AppData\Local\Temp\cchoDgth.s:23162  .debug_str:00000000000020f1 .LASF453
C:\Users\CYMR90~1\AppData\Local\Temp\cchoDgth.s:33829  .debug_str:000000000002c9b8 .LASF454
C:\Users\CYMR90~1\AppData\Local\Temp\cchoDgth.s:26254  .debug_str:000000000000e840 .LASF455
C:\Users\CYMR90~1\AppData\Local\Temp\cchoDgth.s:31069  .debug_str:0000000000021b78 .LASF456
C:\Users\CYMR90~1\AppData\Local\Temp\cchoDgth.s:25936  .debug_str:000000000000d42c .LASF457
C:\Users\CYMR90~1\AppData\Local\Temp\cchoDgth.s:24228  .debug_str:00000000000064d6 .LASF458
C:\Users\CYMR90~1\AppData\Local\Temp\cchoDgth.s:26874  .debug_str:0000000000010eac .LASF459
C:\Users\CYMR90~1\AppData\Local\Temp\cchoDgth.s:30801  .debug_str:0000000000020aea .LASF460
C:\Users\CYMR90~1\AppData\Local\Temp\cchoDgth.s:31983  .debug_str:0000000000025393 .LASF461
C:\Users\CYMR90~1\AppData\Local\Temp\cchoDgth.s:25068  .debug_str:0000000000009b75 .LASF462
C:\Users\CYMR90~1\AppData\Local\Temp\cchoDgth.s:29243  .debug_str:000000000001a904 .LASF463
C:\Users\CYMR90~1\AppData\Local\Temp\cchoDgth.s:26100  .debug_str:000000000000dea5 .LASF464
C:\Users\CYMR90~1\AppData\Local\Temp\cchoDgth.s:27252  .debug_str:00000000000126b5 .LASF465
C:\Users\CYMR90~1\AppData\Local\Temp\cchoDgth.s:24370  .debug_str:0000000000006da9 .LASF466
C:\Users\CYMR90~1\AppData\Local\Temp\cchoDgth.s:24922  .debug_str:000000000000929e .LASF467
C:\Users\CYMR90~1\AppData\Local\Temp\cchoDgth.s:27012  .debug_str:000000000001167a .LASF468
C:\Users\CYMR90~1\AppData\Local\Temp\cchoDgth.s:23506  .debug_str:0000000000003695 .LASF469
C:\Users\CYMR90~1\AppData\Local\Temp\cchoDgth.s:26766  .debug_str:00000000000107cb .LASF470
C:\Users\CYMR90~1\AppData\Local\Temp\cchoDgth.s:26648  .debug_str:00000000000100c0 .LASF471
C:\Users\CYMR90~1\AppData\Local\Temp\cchoDgth.s:26228  .debug_str:000000000000e6a6 .LASF472
C:\Users\CYMR90~1\AppData\Local\Temp\cchoDgth.s:22862  .debug_str:0000000000000e70 .LASF473
C:\Users\CYMR90~1\AppData\Local\Temp\cchoDgth.s:24488  .debug_str:000000000000758e .LASF474
C:\Users\CYMR90~1\AppData\Local\Temp\cchoDgth.s:22806  .debug_str:0000000000000ae4 .LASF475
C:\Users\CYMR90~1\AppData\Local\Temp\cchoDgth.s:23670  .debug_str:000000000000410b .LASF476
C:\Users\CYMR90~1\AppData\Local\Temp\cchoDgth.s:23038  .debug_str:00000000000019a4 .LASF477
C:\Users\CYMR90~1\AppData\Local\Temp\cchoDgth.s:28146  .debug_str:0000000000015faa .LASF478
C:\Users\CYMR90~1\AppData\Local\Temp\cchoDgth.s:25538  .debug_str:000000000000ba42 .LASF479
C:\Users\CYMR90~1\AppData\Local\Temp\cchoDgth.s:33455  .debug_str:000000000002b1d1 .LASF480
C:\Users\CYMR90~1\AppData\Local\Temp\cchoDgth.s:28753  .debug_str:000000000001879e .LASF481
C:\Users\CYMR90~1\AppData\Local\Temp\cchoDgth.s:25462  .debug_str:000000000000b525 .LASF482
C:\Users\CYMR90~1\AppData\Local\Temp\cchoDgth.s:24268  .debug_str:000000000000673a .LASF483
C:\Users\CYMR90~1\AppData\Local\Temp\cchoDgth.s:22772  .debug_str:00000000000008b6 .LASF484
C:\Users\CYMR90~1\AppData\Local\Temp\cchoDgth.s:28701  .debug_str:0000000000018488 .LASF485
C:\Users\CYMR90~1\AppData\Local\Temp\cchoDgth.s:23894  .debug_str:000000000000506e .LASF486
C:\Users\CYMR90~1\AppData\Local\Temp\cchoDgth.s:27610  .debug_str:0000000000013e4f .LASF487
C:\Users\CYMR90~1\AppData\Local\Temp\cchoDgth.s:26790  .debug_str:000000000001095d .LASF488
C:\Users\CYMR90~1\AppData\Local\Temp\cchoDgth.s:27368  .debug_str:0000000000012e6e .LASF489
C:\Users\CYMR90~1\AppData\Local\Temp\cchoDgth.s:25820  .debug_str:000000000000ccee .LASF490
C:\Users\CYMR90~1\AppData\Local\Temp\cchoDgth.s:24798  .debug_str:0000000000008a68 .LASF491
C:\Users\CYMR90~1\AppData\Local\Temp\cchoDgth.s:26452  .debug_str:000000000000f463 .LASF492
C:\Users\CYMR90~1\AppData\Local\Temp\cchoDgth.s:26756  .debug_str:000000000001074f .LASF493
C:\Users\CYMR90~1\AppData\Local\Temp\cchoDgth.s:26654  .debug_str:0000000000010134 .LASF494
C:\Users\CYMR90~1\AppData\Local\Temp\cchoDgth.s:28949  .debug_str:0000000000019549 .LASF495
C:\Users\CYMR90~1\AppData\Local\Temp\cchoDgth.s:33911  .debug_str:000000000002cef0 .LASF496
C:\Users\CYMR90~1\AppData\Local\Temp\cchoDgth.s:33847  .debug_str:000000000002cb1d .LASF497
C:\Users\CYMR90~1\AppData\Local\Temp\cchoDgth.s:26498  .debug_str:000000000000f73d .LASF498
C:\Users\CYMR90~1\AppData\Local\Temp\cchoDgth.s:33071  .debug_str:0000000000029aa1 .LASF499
C:\Users\CYMR90~1\AppData\Local\Temp\cchoDgth.s:33171  .debug_str:000000000002a122 .LASF500
C:\Users\CYMR90~1\AppData\Local\Temp\cchoDgth.s:27812  .debug_str:0000000000014ae5 .LASF501
C:\Users\CYMR90~1\AppData\Local\Temp\cchoDgth.s:33127  .debug_str:0000000000029ec5 .LASF502
C:\Users\CYMR90~1\AppData\Local\Temp\cchoDgth.s:27766  .debug_str:00000000000147b0 .LASF503
C:\Users\CYMR90~1\AppData\Local\Temp\cchoDgth.s:23368  .debug_str:0000000000002daa .LASF504
C:\Users\CYMR90~1\AppData\Local\Temp\cchoDgth.s:31745  .debug_str:0000000000024395 .LASF505
C:\Users\CYMR90~1\AppData\Local\Temp\cchoDgth.s:32633  .debug_str:0000000000027ea5 .LASF506
C:\Users\CYMR90~1\AppData\Local\Temp\cchoDgth.s:32205  .debug_str:00000000000263fc .LASF507
C:\Users\CYMR90~1\AppData\Local\Temp\cchoDgth.s:28867  .debug_str:0000000000018ed1 .LASF508
C:\Users\CYMR90~1\AppData\Local\Temp\cchoDgth.s:31155  .debug_str:0000000000022087 .LASF509
C:\Users\CYMR90~1\AppData\Local\Temp\cchoDgth.s:32859  .debug_str:0000000000028e0f .LASF510
C:\Users\CYMR90~1\AppData\Local\Temp\cchoDgth.s:28645  .debug_str:0000000000018109 .LASF511
C:\Users\CYMR90~1\AppData\Local\Temp\cchoDgth.s:32487  .debug_str:0000000000027508 .LASF512
C:\Users\CYMR90~1\AppData\Local\Temp\cchoDgth.s:32603  .debug_str:0000000000027cfe .LASF513
C:\Users\CYMR90~1\AppData\Local\Temp\cchoDgth.s:33053  .debug_str:000000000002999f .LASF514
C:\Users\CYMR90~1\AppData\Local\Temp\cchoDgth.s:27540  .debug_str:0000000000013a1b .LASF515
C:\Users\CYMR90~1\AppData\Local\Temp\cchoDgth.s:32923  .debug_str:00000000000291f1 .LASF516
C:\Users\CYMR90~1\AppData\Local\Temp\cchoDgth.s:29019  .debug_str:0000000000019964 .LASF517
C:\Users\CYMR90~1\AppData\Local\Temp\cchoDgth.s:32871  .debug_str:0000000000028ee9 .LASF518
C:\Users\CYMR90~1\AppData\Local\Temp\cchoDgth.s:29681  .debug_str:000000000001c44b .LASF519
C:\Users\CYMR90~1\AppData\Local\Temp\cchoDgth.s:33817  .debug_str:000000000002c8fc .LASF520
C:\Users\CYMR90~1\AppData\Local\Temp\cchoDgth.s:29951  .debug_str:000000000001d67f .LASF521
C:\Users\CYMR90~1\AppData\Local\Temp\cchoDgth.s:32113  .debug_str:0000000000025d2c .LASF522
C:\Users\CYMR90~1\AppData\Local\Temp\cchoDgth.s:27416  .debug_str:0000000000013175 .LASF523
C:\Users\CYMR90~1\AppData\Local\Temp\cchoDgth.s:31657  .debug_str:0000000000023eb3 .LASF524
C:\Users\CYMR90~1\AppData\Local\Temp\cchoDgth.s:25002  .debug_str:0000000000009716 .LASF525
C:\Users\CYMR90~1\AppData\Local\Temp\cchoDgth.s:33839  .debug_str:000000000002ca31 .LASF526
C:\Users\CYMR90~1\AppData\Local\Temp\cchoDgth.s:26262  .debug_str:000000000000e8be .LASF527
C:\Users\CYMR90~1\AppData\Local\Temp\cchoDgth.s:27278  .debug_str:0000000000012853 .LASF528
C:\Users\CYMR90~1\AppData\Local\Temp\cchoDgth.s:28124  .debug_str:0000000000015e02 .LASF529
C:\Users\CYMR90~1\AppData\Local\Temp\cchoDgth.s:28158  .debug_str:0000000000016059 .LASF530
C:\Users\CYMR90~1\AppData\Local\Temp\cchoDgth.s:27200  .debug_str:000000000001237a .LASF531
C:\Users\CYMR90~1\AppData\Local\Temp\cchoDgth.s:23432  .debug_str:0000000000003177 .LASF532
C:\Users\CYMR90~1\AppData\Local\Temp\cchoDgth.s:25944  .debug_str:000000000000d488 .LASF533
C:\Users\CYMR90~1\AppData\Local\Temp\cchoDgth.s:33677  .debug_str:000000000002bf4b .LASF534
C:\Users\CYMR90~1\AppData\Local\Temp\cchoDgth.s:26450  .debug_str:000000000000f417 .LASF535
C:\Users\CYMR90~1\AppData\Local\Temp\cchoDgth.s:31843  .debug_str:0000000000024a68 .LASF536
C:\Users\CYMR90~1\AppData\Local\Temp\cchoDgth.s:33327  .debug_str:000000000002aa5b .LASF537
C:\Users\CYMR90~1\AppData\Local\Temp\cchoDgth.s:27026  .debug_str:0000000000011743 .LASF538
C:\Users\CYMR90~1\AppData\Local\Temp\cchoDgth.s:32029  .debug_str:00000000000256b8 .LASF539
C:\Users\CYMR90~1\AppData\Local\Temp\cchoDgth.s:29739  .debug_str:000000000001c7ce .LASF540
C:\Users\CYMR90~1\AppData\Local\Temp\cchoDgth.s:31363  .debug_str:0000000000022cd2 .LASF541
C:\Users\CYMR90~1\AppData\Local\Temp\cchoDgth.s:30039  .debug_str:000000000001dbf9 .LASF542
C:\Users\CYMR90~1\AppData\Local\Temp\cchoDgth.s:23780  .debug_str:00000000000048d1 .LASF543
C:\Users\CYMR90~1\AppData\Local\Temp\cchoDgth.s:26194  .debug_str:000000000000e4a7 .LASF544
C:\Users\CYMR90~1\AppData\Local\Temp\cchoDgth.s:33113  .debug_str:0000000000029de1 .LASF545
C:\Users\CYMR90~1\AppData\Local\Temp\cchoDgth.s:27550  .debug_str:0000000000013aaa .LASF546
C:\Users\CYMR90~1\AppData\Local\Temp\cchoDgth.s:31345  .debug_str:0000000000022bad .LASF547
C:\Users\CYMR90~1\AppData\Local\Temp\cchoDgth.s:33589  .debug_str:000000000002b9d8 .LASF548
C:\Users\CYMR90~1\AppData\Local\Temp\cchoDgth.s:23480  .debug_str:00000000000034d3 .LASF549
C:\Users\CYMR90~1\AppData\Local\Temp\cchoDgth.s:24638  .debug_str:0000000000007f08 .LASF550
C:\Users\CYMR90~1\AppData\Local\Temp\cchoDgth.s:32379  .debug_str:0000000000026e8d .LASF551
C:\Users\CYMR90~1\AppData\Local\Temp\cchoDgth.s:24196  .debug_str:00000000000062df .LASF552
C:\Users\CYMR90~1\AppData\Local\Temp\cchoDgth.s:33345  .debug_str:000000000002ab57 .LASF553
C:\Users\CYMR90~1\AppData\Local\Temp\cchoDgth.s:25614  .debug_str:000000000000bf12 .LASF554
C:\Users\CYMR90~1\AppData\Local\Temp\cchoDgth.s:25798  .debug_str:000000000000cb74 .LASF555
C:\Users\CYMR90~1\AppData\Local\Temp\cchoDgth.s:24316  .debug_str:0000000000006a34 .LASF556
C:\Users\CYMR90~1\AppData\Local\Temp\cchoDgth.s:24032  .debug_str:00000000000058a7 .LASF557
C:\Users\CYMR90~1\AppData\Local\Temp\cchoDgth.s:27148  .debug_str:0000000000011ffb .LASF558
C:\Users\CYMR90~1\AppData\Local\Temp\cchoDgth.s:28895  .debug_str:0000000000019127 .LASF559
C:\Users\CYMR90~1\AppData\Local\Temp\cchoDgth.s:24602  .debug_str:0000000000007cc5 .LASF560
C:\Users\CYMR90~1\AppData\Local\Temp\cchoDgth.s:25610  .debug_str:000000000000beae .LASF561
C:\Users\CYMR90~1\AppData\Local\Temp\cchoDgth.s:26606  .debug_str:000000000000fdf5 .LASF562
C:\Users\CYMR90~1\AppData\Local\Temp\cchoDgth.s:25986  .debug_str:000000000000d7b6 .LASF563
C:\Users\CYMR90~1\AppData\Local\Temp\cchoDgth.s:25302  .debug_str:000000000000a97e .LASF564
C:\Users\CYMR90~1\AppData\Local\Temp\cchoDgth.s:31095  .debug_str:0000000000021ced .LASF565
C:\Users\CYMR90~1\AppData\Local\Temp\cchoDgth.s:30291  .debug_str:000000000001ebd5 .LASF566
C:\Users\CYMR90~1\AppData\Local\Temp\cchoDgth.s:27144  .debug_str:0000000000011fb3 .LASF567
C:\Users\CYMR90~1\AppData\Local\Temp\cchoDgth.s:24198  .debug_str:00000000000062f3 .LASF568
C:\Users\CYMR90~1\AppData\Local\Temp\cchoDgth.s:22830  .debug_str:0000000000000c7f .LASF570
C:\Users\CYMR90~1\AppData\Local\Temp\cchoDgth.s:28529  .debug_str:00000000000179e6 .LASF571
C:\Users\CYMR90~1\AppData\Local\Temp\cchoDgth.s:29675  .debug_str:000000000001c40f .LASF574
C:\Users\CYMR90~1\AppData\Local\Temp\cchoDgth.s:23744  .debug_str:0000000000004633 .LASF575
C:\Users\CYMR90~1\AppData\Local\Temp\cchoDgth.s:27772  .debug_str:000000000001483a .LASF576
C:\Users\CYMR90~1\AppData\Local\Temp\cchoDgth.s:24728  .debug_str:000000000000862d .LASF577
C:\Users\CYMR90~1\AppData\Local\Temp\cchoDgth.s:30995  .debug_str:0000000000021684 .LASF579
C:\Users\CYMR90~1\AppData\Local\Temp\cchoDgth.s:30159  .debug_str:000000000001e42d .LASF580
C:\Users\CYMR90~1\AppData\Local\Temp\cchoDgth.s:31743  .debug_str:000000000002438c .LASF581
C:\Users\CYMR90~1\AppData\Local\Temp\cchoDgth.s:24156  .debug_str:0000000000006044 .LASF582
C:\Users\CYMR90~1\AppData\Local\Temp\cchoDgth.s:26750  .debug_str:00000000000106ec .LASF583
C:\Users\CYMR90~1\AppData\Local\Temp\cchoDgth.s:23318  .debug_str:0000000000002a78 .LASF584
C:\Users\CYMR90~1\AppData\Local\Temp\cchoDgth.s:33207  .debug_str:000000000002a359 .LASF585
C:\Users\CYMR90~1\AppData\Local\Temp\cchoDgth.s:31397  .debug_str:0000000000022ef9 .LASF586
C:\Users\CYMR90~1\AppData\Local\Temp\cchoDgth.s:29559  .debug_str:000000000001bd34 .LASF587
C:\Users\CYMR90~1\AppData\Local\Temp\cchoDgth.s:24384  .debug_str:0000000000006e8a .LASF588
C:\Users\CYMR90~1\AppData\Local\Temp\cchoDgth.s:28805  .debug_str:0000000000018ad6 .LASF589
C:\Users\CYMR90~1\AppData\Local\Temp\cchoDgth.s:29189  .debug_str:000000000001a436 .LASF590
C:\Users\CYMR90~1\AppData\Local\Temp\cchoDgth.s:30031  .debug_str:000000000001db8d .LASF591
C:\Users\CYMR90~1\AppData\Local\Temp\cchoDgth.s:29817  .debug_str:000000000001cd38 .LASF592
C:\Users\CYMR90~1\AppData\Local\Temp\cchoDgth.s:31731  .debug_str:00000000000242e9 .LASF593
C:\Users\CYMR90~1\AppData\Local\Temp\cchoDgth.s:26714  .debug_str:00000000000104e1 .LASF594
C:\Users\CYMR90~1\AppData\Local\Temp\cchoDgth.s:27608  .debug_str:0000000000013e2f .LASF595
C:\Users\CYMR90~1\AppData\Local\Temp\cchoDgth.s:33227  .debug_str:000000000002a49a .LASF596
C:\Users\CYMR90~1\AppData\Local\Temp\cchoDgth.s:24490  .debug_str:00000000000075ad .LASF597
C:\Users\CYMR90~1\AppData\Local\Temp\cchoDgth.s:29455  .debug_str:000000000001b6ea .LASF598
C:\Users\CYMR90~1\AppData\Local\Temp\cchoDgth.s:27496  .debug_str:0000000000013754 .LASF599
C:\Users\CYMR90~1\AppData\Local\Temp\cchoDgth.s:30497  .debug_str:000000000001f84f .LASF600
C:\Users\CYMR90~1\AppData\Local\Temp\cchoDgth.s:29747  .debug_str:000000000001c83a .LASF601
C:\Users\CYMR90~1\AppData\Local\Temp\cchoDgth.s:32211  .debug_str:000000000002644f .LASF602
C:\Users\CYMR90~1\AppData\Local\Temp\cchoDgth.s:32929  .debug_str:0000000000029253 .LASF603
C:\Users\CYMR90~1\AppData\Local\Temp\cchoDgth.s:32815  .debug_str:0000000000028b30 .LASF604
C:\Users\CYMR90~1\AppData\Local\Temp\cchoDgth.s:27444  .debug_str:000000000001335d .LASF605
C:\Users\CYMR90~1\AppData\Local\Temp\cchoDgth.s:31541  .debug_str:000000000002378b .LASF606
C:\Users\CYMR90~1\AppData\Local\Temp\cchoDgth.s:25076  .debug_str:0000000000009bf8 .LASF607
C:\Users\CYMR90~1\AppData\Local\Temp\cchoDgth.s:24590  .debug_str:0000000000007bce .LASF608
C:\Users\CYMR90~1\AppData\Local\Temp\cchoDgth.s:25364  .debug_str:000000000000ae66 .LASF609
C:\Users\CYMR90~1\AppData\Local\Temp\cchoDgth.s:29597  .debug_str:000000000001bf0c .LASF610
C:\Users\CYMR90~1\AppData\Local\Temp\cchoDgth.s:24124  .debug_str:0000000000005e98 .LASF611
C:\Users\CYMR90~1\AppData\Local\Temp\cchoDgth.s:31315  .debug_str:0000000000022a1d .LASF612
C:\Users\CYMR90~1\AppData\Local\Temp\cchoDgth.s:27990  .debug_str:0000000000015620 .LASF613
C:\Users\CYMR90~1\AppData\Local\Temp\cchoDgth.s:24656  .debug_str:00000000000080dc .LASF614
C:\Users\CYMR90~1\AppData\Local\Temp\cchoDgth.s:22730  .debug_str:0000000000000626 .LASF615
C:\Users\CYMR90~1\AppData\Local\Temp\cchoDgth.s:28234  .debug_str:0000000000016542 .LASF616
C:\Users\CYMR90~1\AppData\Local\Temp\cchoDgth.s:29225  .debug_str:000000000001a664 .LASF617
C:\Users\CYMR90~1\AppData\Local\Temp\cchoDgth.s:28370  .debug_str:0000000000016eb4 .LASF618
C:\Users\CYMR90~1\AppData\Local\Temp\cchoDgth.s:31405  .debug_str:0000000000022f5e .LASF619
C:\Users\CYMR90~1\AppData\Local\Temp\cchoDgth.s:25628  .debug_str:000000000000c07f .LASF620
C:\Users\CYMR90~1\AppData\Local\Temp\cchoDgth.s:24400  .debug_str:0000000000006fb0 .LASF621
C:\Users\CYMR90~1\AppData\Local\Temp\cchoDgth.s:31605  .debug_str:0000000000023b3b .LASF622
C:\Users\CYMR90~1\AppData\Local\Temp\cchoDgth.s:30677  .debug_str:000000000002035f .LASF623
C:\Users\CYMR90~1\AppData\Local\Temp\cchoDgth.s:32687  .debug_str:00000000000281d4 .LASF624
C:\Users\CYMR90~1\AppData\Local\Temp\cchoDgth.s:33303  .debug_str:000000000002a91e .LASF625
C:\Users\CYMR90~1\AppData\Local\Temp\cchoDgth.s:27678  .debug_str:000000000001424b .LASF626
C:\Users\CYMR90~1\AppData\Local\Temp\cchoDgth.s:33557  .debug_str:000000000002b77e .LASF627
C:\Users\CYMR90~1\AppData\Local\Temp\cchoDgth.s:28078  .debug_str:0000000000015b34 .LASF628
C:\Users\CYMR90~1\AppData\Local\Temp\cchoDgth.s:33041  .debug_str:00000000000298ec .LASF629
C:\Users\CYMR90~1\AppData\Local\Temp\cchoDgth.s:24806  .debug_str:0000000000008aed .LASF630
C:\Users\CYMR90~1\AppData\Local\Temp\cchoDgth.s:26022  .debug_str:000000000000d9e9 .LASF631
C:\Users\CYMR90~1\AppData\Local\Temp\cchoDgth.s:31305  .debug_str:0000000000022981 .LASF632
C:\Users\CYMR90~1\AppData\Local\Temp\cchoDgth.s:25742  .debug_str:000000000000c7d0 .LASF633
C:\Users\CYMR90~1\AppData\Local\Temp\cchoDgth.s:23250  .debug_str:00000000000025cf .LASF634
C:\Users\CYMR90~1\AppData\Local\Temp\cchoDgth.s:29131  .debug_str:000000000001a112 .LASF635
C:\Users\CYMR90~1\AppData\Local\Temp\cchoDgth.s:28290  .debug_str:00000000000168f5 .LASF636
C:\Users\CYMR90~1\AppData\Local\Temp\cchoDgth.s:29919  .debug_str:000000000001d4a5 .LASF637
C:\Users\CYMR90~1\AppData\Local\Temp\cchoDgth.s:23544  .debug_str:0000000000003901 .LASF638
C:\Users\CYMR90~1\AppData\Local\Temp\cchoDgth.s:27096  .debug_str:0000000000011cc3 .LASF639
C:\Users\CYMR90~1\AppData\Local\Temp\cchoDgth.s:24668  .debug_str:0000000000008184 .LASF640
C:\Users\CYMR90~1\AppData\Local\Temp\cchoDgth.s:27312  .debug_str:0000000000012aa5 .LASF641
C:\Users\CYMR90~1\AppData\Local\Temp\cchoDgth.s:25526  .debug_str:000000000000b940 .LASF642
C:\Users\CYMR90~1\AppData\Local\Temp\cchoDgth.s:32671  .debug_str:00000000000280c4 .LASF643
C:\Users\CYMR90~1\AppData\Local\Temp\cchoDgth.s:25896  .debug_str:000000000000d160 .LASF644
C:\Users\CYMR90~1\AppData\Local\Temp\cchoDgth.s:23714  .debug_str:000000000000440a .LASF645
C:\Users\CYMR90~1\AppData\Local\Temp\cchoDgth.s:24550  .debug_str:0000000000007925 .LASF646
C:\Users\CYMR90~1\AppData\Local\Temp\cchoDgth.s:23468  .debug_str:00000000000033fb .LASF647
C:\Users\CYMR90~1\AppData\Local\Temp\cchoDgth.s:23836  .debug_str:0000000000004cbd .LASF648
C:\Users\CYMR90~1\AppData\Local\Temp\cchoDgth.s:33205  .debug_str:000000000002a31a .LASF649
C:\Users\CYMR90~1\AppData\Local\Temp\cchoDgth.s:27008  .debug_str:0000000000011607 .LASF650
C:\Users\CYMR90~1\AppData\Local\Temp\cchoDgth.s:33317  .debug_str:000000000002a9d3 .LASF651
C:\Users\CYMR90~1\AppData\Local\Temp\cchoDgth.s:26614  .debug_str:000000000000fe92 .LASF652
C:\Users\CYMR90~1\AppData\Local\Temp\cchoDgth.s:22712  .debug_str:0000000000000513 .LASF653
C:\Users\CYMR90~1\AppData\Local\Temp\cchoDgth.s:33541  .debug_str:000000000002b6ba .LASF654
C:\Users\CYMR90~1\AppData\Local\Temp\cchoDgth.s:24890  .debug_str:00000000000090e3 .LASF655
C:\Users\CYMR90~1\AppData\Local\Temp\cchoDgth.s:32745  .debug_str:00000000000285d2 .LASF656
C:\Users\CYMR90~1\AppData\Local\Temp\cchoDgth.s:22764  .debug_str:0000000000000843 .LASF657
C:\Users\CYMR90~1\AppData\Local\Temp\cchoDgth.s:33367  .debug_str:000000000002ac9e .LASF658
C:\Users\CYMR90~1\AppData\Local\Temp\cchoDgth.s:27408  .debug_str:0000000000013109 .LASF659
C:\Users\CYMR90~1\AppData\Local\Temp\cchoDgth.s:29851  .debug_str:000000000001cf1b .LASF660
C:\Users\CYMR90~1\AppData\Local\Temp\cchoDgth.s:26298  .debug_str:000000000000eb3c .LASF661
C:\Users\CYMR90~1\AppData\Local\Temp\cchoDgth.s:30523  .debug_str:000000000001f9d2 .LASF662
C:\Users\CYMR90~1\AppData\Local\Temp\cchoDgth.s:32529  .debug_str:00000000000277cc .LASF663
C:\Users\CYMR90~1\AppData\Local\Temp\cchoDgth.s:26986  .debug_str:00000000000114cf .LASF664
C:\Users\CYMR90~1\AppData\Local\Temp\cchoDgth.s:26978  .debug_str:0000000000011479 .LASF665
C:\Users\CYMR90~1\AppData\Local\Temp\cchoDgth.s:28903  .debug_str:00000000000191e0 .LASF666
C:\Users\CYMR90~1\AppData\Local\Temp\cchoDgth.s:24136  .debug_str:0000000000005f30 .LASF667
C:\Users\CYMR90~1\AppData\Local\Temp\cchoDgth.s:34041  .debug_str:000000000002d778 .LASF668
C:\Users\CYMR90~1\AppData\Local\Temp\cchoDgth.s:24514  .debug_str:0000000000007712 .LASF669
C:\Users\CYMR90~1\AppData\Local\Temp\cchoDgth.s:31189  .debug_str:00000000000222d1 .LASF670
C:\Users\CYMR90~1\AppData\Local\Temp\cchoDgth.s:27388  .debug_str:0000000000012fca .LASF671
C:\Users\CYMR90~1\AppData\Local\Temp\cchoDgth.s:30577  .debug_str:000000000001fce0 .LASF672
C:\Users\CYMR90~1\AppData\Local\Temp\cchoDgth.s:31319  .debug_str:0000000000022a4e .LASF673
C:\Users\CYMR90~1\AppData\Local\Temp\cchoDgth.s:23108  .debug_str:0000000000001dbf .LASF674
C:\Users\CYMR90~1\AppData\Local\Temp\cchoDgth.s:28064  .debug_str:0000000000015a55 .LASF676
C:\Users\CYMR90~1\AppData\Local\Temp\cchoDgth.s:31761  .debug_str:000000000002448a .LASF677
C:\Users\CYMR90~1\AppData\Local\Temp\cchoDgth.s:29145  .debug_str:000000000001a1d9 .LASF678
C:\Users\CYMR90~1\AppData\Local\Temp\cchoDgth.s:31863  .debug_str:0000000000024bd3 .LASF679
C:\Users\CYMR90~1\AppData\Local\Temp\cchoDgth.s:30287  .debug_str:000000000001eba9 .LASF680
C:\Users\CYMR90~1\AppData\Local\Temp\cchoDgth.s:33219  .debug_str:000000000002a417 .LASF681
C:\Users\CYMR90~1\AppData\Local\Temp\cchoDgth.s:23716  .debug_str:0000000000004448 .LASF682
C:\Users\CYMR90~1\AppData\Local\Temp\cchoDgth.s:23638  .debug_str:0000000000003f03 .LASF683
C:\Users\CYMR90~1\AppData\Local\Temp\cchoDgth.s:25030  .debug_str:0000000000009900 .LASF684
C:\Users\CYMR90~1\AppData\Local\Temp\cchoDgth.s:29601  .debug_str:000000000001bf39 .LASF685
C:\Users\CYMR90~1\AppData\Local\Temp\cchoDgth.s:31051  .debug_str:0000000000021a5e .LASF686
C:\Users\CYMR90~1\AppData\Local\Temp\cchoDgth.s:28348  .debug_str:0000000000016cd0 .LASF687
C:\Users\CYMR90~1\AppData\Local\Temp\cchoDgth.s:26910  .debug_str:0000000000011070 .LASF688
C:\Users\CYMR90~1\AppData\Local\Temp\cchoDgth.s:23524  .debug_str:0000000000003793 .LASF689
C:\Users\CYMR90~1\AppData\Local\Temp\cchoDgth.s:24406  .debug_str:000000000000702f .LASF690
C:\Users\CYMR90~1\AppData\Local\Temp\cchoDgth.s:27260  .debug_str:0000000000012729 .LASF691
C:\Users\CYMR90~1\AppData\Local\Temp\cchoDgth.s:28104  .debug_str:0000000000015cb7 .LASF692
C:\Users\CYMR90~1\AppData\Local\Temp\cchoDgth.s:24104  .debug_str:0000000000005d71 .LASF695
C:\Users\CYMR90~1\AppData\Local\Temp\cchoDgth.s:28527  .debug_str:00000000000179cf .LASF696
C:\Users\CYMR90~1\AppData\Local\Temp\cchoDgth.s:28415  .debug_str:0000000000017336 .LASF697
C:\Users\CYMR90~1\AppData\Local\Temp\cchoDgth.s:29569  .debug_str:000000000001bd95 .LASF698
C:\Users\CYMR90~1\AppData\Local\Temp\cchoDgth.s:31801  .debug_str:00000000000246cc .LASF699
C:\Users\CYMR90~1\AppData\Local\Temp\cchoDgth.s:27844  .debug_str:0000000000014c9c .LASF702
C:\Users\CYMR90~1\AppData\Local\Temp\cchoDgth.s:25052  .debug_str:0000000000009a5d .LASF703
C:\Users\CYMR90~1\AppData\Local\Temp\cchoDgth.s:30465  .debug_str:000000000001f666 .LASF704
C:\Users\CYMR90~1\AppData\Local\Temp\cchoDgth.s:23920  .debug_str:00000000000051e3 .LASF705
C:\Users\CYMR90~1\AppData\Local\Temp\cchoDgth.s:28172  .debug_str:0000000000016151 .LASF706
C:\Users\CYMR90~1\AppData\Local\Temp\cchoDgth.s:26496  .debug_str:000000000000f717 .LASF707
C:\Users\CYMR90~1\AppData\Local\Temp\cchoDgth.s:32945  .debug_str:0000000000029351 .LASF708
C:\Users\CYMR90~1\AppData\Local\Temp\cchoDgth.s:32181  .debug_str:000000000002626f .LASF709
C:\Users\CYMR90~1\AppData\Local\Temp\cchoDgth.s:26134  .debug_str:000000000000e117 .LASF710
C:\Users\CYMR90~1\AppData\Local\Temp\cchoDgth.s:26652  .debug_str:0000000000010101 .LASF711
C:\Users\CYMR90~1\AppData\Local\Temp\cchoDgth.s:28322  .debug_str:0000000000016ac4 .LASF712
C:\Users\CYMR90~1\AppData\Local\Temp\cchoDgth.s:25296  .debug_str:000000000000a90c .LASF713
C:\Users\CYMR90~1\AppData\Local\Temp\cchoDgth.s:33761  .debug_str:000000000002c4e2 .LASF714
C:\Users\CYMR90~1\AppData\Local\Temp\cchoDgth.s:24654  .debug_str:000000000000809d .LASF715
C:\Users\CYMR90~1\AppData\Local\Temp\cchoDgth.s:25566  .debug_str:000000000000bbc8 .LASF716
C:\Users\CYMR90~1\AppData\Local\Temp\cchoDgth.s:30693  .debug_str:000000000002047d .LASF717
C:\Users\CYMR90~1\AppData\Local\Temp\cchoDgth.s:33325  .debug_str:000000000002aa4f .LASF718
C:\Users\CYMR90~1\AppData\Local\Temp\cchoDgth.s:31909  .debug_str:0000000000024e73 .LASF719
C:\Users\CYMR90~1\AppData\Local\Temp\cchoDgth.s:28839  .debug_str:0000000000018d1b .LASF720
C:\Users\CYMR90~1\AppData\Local\Temp\cchoDgth.s:26398  .debug_str:000000000000f120 .LASF721
C:\Users\CYMR90~1\AppData\Local\Temp\cchoDgth.s:30805  .debug_str:0000000000020b1e .LASF722
C:\Users\CYMR90~1\AppData\Local\Temp\cchoDgth.s:29761  .debug_str:000000000001c8f0 .LASF723
C:\Users\CYMR90~1\AppData\Local\Temp\cchoDgth.s:30339  .debug_str:000000000001eef2 .LASF724
C:\Users\CYMR90~1\AppData\Local\Temp\cchoDgth.s:31297  .debug_str:000000000002292f .LASF725
C:\Users\CYMR90~1\AppData\Local\Temp\cchoDgth.s:27512  .debug_str:0000000000013860 .LASF726
C:\Users\CYMR90~1\AppData\Local\Temp\cchoDgth.s:25290  .debug_str:000000000000a8b2 .LASF727
C:\Users\CYMR90~1\AppData\Local\Temp\cchoDgth.s:32273  .debug_str:000000000002683f .LASF728
C:\Users\CYMR90~1\AppData\Local\Temp\cchoDgth.s:30583  .debug_str:000000000001fd5e .LASF729
C:\Users\CYMR90~1\AppData\Local\Temp\cchoDgth.s:29029  .debug_str:0000000000019a03 .LASF730
C:\Users\CYMR90~1\AppData\Local\Temp\cchoDgth.s:27484  .debug_str:000000000001368c .LASF731
C:\Users\CYMR90~1\AppData\Local\Temp\cchoDgth.s:32213  .debug_str:000000000002648a .LASF732
C:\Users\CYMR90~1\AppData\Local\Temp\cchoDgth.s:33965  .debug_str:000000000002d2ab .LASF733
C:\Users\CYMR90~1\AppData\Local\Temp\cchoDgth.s:26212  .debug_str:000000000000e5e5 .LASF734
C:\Users\CYMR90~1\AppData\Local\Temp\cchoDgth.s:26886  .debug_str:0000000000010f3a .LASF735
C:\Users\CYMR90~1\AppData\Local\Temp\cchoDgth.s:33895  .debug_str:000000000002cde7 .LASF736
C:\Users\CYMR90~1\AppData\Local\Temp\cchoDgth.s:25866  .debug_str:000000000000cf64 .LASF737
C:\Users\CYMR90~1\AppData\Local\Temp\cchoDgth.s:33827  .debug_str:000000000002c9a7 .LASF738
C:\Users\CYMR90~1\AppData\Local\Temp\cchoDgth.s:33643  .debug_str:000000000002bd36 .LASF739
C:\Users\CYMR90~1\AppData\Local\Temp\cchoDgth.s:23074  .debug_str:0000000000001bb0 .LASF740
C:\Users\CYMR90~1\AppData\Local\Temp\cchoDgth.s:25804  .debug_str:000000000000cbe4 .LASF741
C:\Users\CYMR90~1\AppData\Local\Temp\cchoDgth.s:23048  .debug_str:0000000000001a37 .LASF742
C:\Users\CYMR90~1\AppData\Local\Temp\cchoDgth.s:26922  .debug_str:0000000000011102 .LASF743
C:\Users\CYMR90~1\AppData\Local\Temp\cchoDgth.s:23510  .debug_str:00000000000036d2 .LASF744
C:\Users\CYMR90~1\AppData\Local\Temp\cchoDgth.s:24902  .debug_str:00000000000091a6 .LASF745
C:\Users\CYMR90~1\AppData\Local\Temp\cchoDgth.s:31309  .debug_str:00000000000229d0 .LASF746
C:\Users\CYMR90~1\AppData\Local\Temp\cchoDgth.s:22942  .debug_str:0000000000001375 .LASF747
C:\Users\CYMR90~1\AppData\Local\Temp\cchoDgth.s:22932  .debug_str:00000000000012f3 .LASF748
C:\Users\CYMR90~1\AppData\Local\Temp\cchoDgth.s:24084  .debug_str:0000000000005bf8 .LASF750
C:\Users\CYMR90~1\AppData\Local\Temp\cchoDgth.s:26836  .debug_str:0000000000010bd8 .LASF751
C:\Users\CYMR90~1\AppData\Local\Temp\cchoDgth.s:33109  .debug_str:0000000000029d9f .LASF752
C:\Users\CYMR90~1\AppData\Local\Temp\cchoDgth.s:26772  .debug_str:0000000000010845 .LASF753
C:\Users\CYMR90~1\AppData\Local\Temp\cchoDgth.s:23964  .debug_str:00000000000054b9 .LASF754
C:\Users\CYMR90~1\AppData\Local\Temp\cchoDgth.s:25550  .debug_str:000000000000bae2 .LASF755
C:\Users\CYMR90~1\AppData\Local\Temp\cchoDgth.s:29105  .debug_str:0000000000019f95 .LASF756
C:\Users\CYMR90~1\AppData\Local\Temp\cchoDgth.s:25040  .debug_str:00000000000099af .LASF757
C:\Users\CYMR90~1\AppData\Local\Temp\cchoDgth.s:32165  .debug_str:0000000000026187 .LASF758
C:\Users\CYMR90~1\AppData\Local\Temp\cchoDgth.s:34003  .debug_str:000000000002d544 .LASF759
C:\Users\CYMR90~1\AppData\Local\Temp\cchoDgth.s:29487  .debug_str:000000000001b8cc .LASF760
C:\Users\CYMR90~1\AppData\Local\Temp\cchoDgth.s:33743  .debug_str:000000000002c39c .LASF761
C:\Users\CYMR90~1\AppData\Local\Temp\cchoDgth.s:25480  .debug_str:000000000000b60e .LASF762
C:\Users\CYMR90~1\AppData\Local\Temp\cchoDgth.s:29495  .debug_str:000000000001b960 .LASF765
C:\Users\CYMR90~1\AppData\Local\Temp\cchoDgth.s:28140  .debug_str:0000000000015f0b .LASF766
C:\Users\CYMR90~1\AppData\Local\Temp\cchoDgth.s:31197  .debug_str:0000000000022330 .LASF767
C:\Users\CYMR90~1\AppData\Local\Temp\cchoDgth.s:28130  .debug_str:0000000000015e9b .LASF768
C:\Users\CYMR90~1\AppData\Local\Temp\cchoDgth.s:23306  .debug_str:00000000000029b7 .LASF769
C:\Users\CYMR90~1\AppData\Local\Temp\cchoDgth.s:29617  .debug_str:000000000001c07c .LASF770
C:\Users\CYMR90~1\AppData\Local\Temp\cchoDgth.s:28230  .debug_str:000000000001651c .LASF771
C:\Users\CYMR90~1\AppData\Local\Temp\cchoDgth.s:31873  .debug_str:0000000000024c5d .LASF772
C:\Users\CYMR90~1\AppData\Local\Temp\cchoDgth.s:31499  .debug_str:0000000000023551 .LASF773
C:\Users\CYMR90~1\AppData\Local\Temp\cchoDgth.s:26218  .debug_str:000000000000e61c .LASF774
C:\Users\CYMR90~1\AppData\Local\Temp\cchoDgth.s:32215  .debug_str:00000000000264a0 .LASF775
C:\Users\CYMR90~1\AppData\Local\Temp\cchoDgth.s:26214  .debug_str:000000000000e5f6 .LASF776
C:\Users\CYMR90~1\AppData\Local\Temp\cchoDgth.s:25206  .debug_str:000000000000a421 .LASF777
C:\Users\CYMR90~1\AppData\Local\Temp\cchoDgth.s:30273  .debug_str:000000000001eaca .LASF778
C:\Users\CYMR90~1\AppData\Local\Temp\cchoDgth.s:26716  .debug_str:0000000000010509 .LASF779
C:\Users\CYMR90~1\AppData\Local\Temp\cchoDgth.s:30533  .debug_str:000000000001fa72 .LASF780
C:\Users\CYMR90~1\AppData\Local\Temp\cchoDgth.s:31193  .debug_str:0000000000022317 .LASF781
C:\Users\CYMR90~1\AppData\Local\Temp\cchoDgth.s:27210  .debug_str:0000000000012421 .LASF782
C:\Users\CYMR90~1\AppData\Local\Temp\cchoDgth.s:28356  .debug_str:0000000000016df3 .LASF783
C:\Users\CYMR90~1\AppData\Local\Temp\cchoDgth.s:27112  .debug_str:0000000000011dc1 .LASF784
C:\Users\CYMR90~1\AppData\Local\Temp\cchoDgth.s:27534  .debug_str:00000000000139c6 .LASF785
C:\Users\CYMR90~1\AppData\Local\Temp\cchoDgth.s:31571  .debug_str:000000000002394a .LASF786
C:\Users\CYMR90~1\AppData\Local\Temp\cchoDgth.s:27858  .debug_str:0000000000014dc1 .LASF787
C:\Users\CYMR90~1\AppData\Local\Temp\cchoDgth.s:30207  .debug_str:000000000001e6f9 .LASF788
C:\Users\CYMR90~1\AppData\Local\Temp\cchoDgth.s:26574  .debug_str:000000000000fc3f .LASF789
C:\Users\CYMR90~1\AppData\Local\Temp\cchoDgth.s:24018  .debug_str:00000000000057f6 .LASF790
C:\Users\CYMR90~1\AppData\Local\Temp\cchoDgth.s:32573  .debug_str:0000000000027b1f .LASF791
C:\Users\CYMR90~1\AppData\Local\Temp\cchoDgth.s:24772  .debug_str:00000000000088bb .LASF792
C:\Users\CYMR90~1\AppData\Local\Temp\cchoDgth.s:33971  .debug_str:000000000002d2f9 .LASF793
C:\Users\CYMR90~1\AppData\Local\Temp\cchoDgth.s:24560  .debug_str:00000000000079f9 .LASF794
C:\Users\CYMR90~1\AppData\Local\Temp\cchoDgth.s:32821  .debug_str:0000000000028b8f .LASF795
C:\Users\CYMR90~1\AppData\Local\Temp\cchoDgth.s:30777  .debug_str:0000000000020912 .LASF796
C:\Users\CYMR90~1\AppData\Local\Temp\cchoDgth.s:33533  .debug_str:000000000002b669 .LASF797
C:\Users\CYMR90~1\AppData\Local\Temp\cchoDgth.s:24388  .debug_str:0000000000006ed4 .LASF798
C:\Users\CYMR90~1\AppData\Local\Temp\cchoDgth.s:32887  .debug_str:000000000002900e .LASF799
C:\Users\CYMR90~1\AppData\Local\Temp\cchoDgth.s:23980  .debug_str:00000000000055b0 .LASF800
C:\Users\CYMR90~1\AppData\Local\Temp\cchoDgth.s:29245  .debug_str:000000000001a911 .LASF801
C:\Users\CYMR90~1\AppData\Local\Temp\cchoDgth.s:29275  .debug_str:000000000001aab6 .LASF802
C:\Users\CYMR90~1\AppData\Local\Temp\cchoDgth.s:25110  .debug_str:0000000000009e2a .LASF803
C:\Users\CYMR90~1\AppData\Local\Temp\cchoDgth.s:27618  .debug_str:0000000000013ec2 .LASF804
C:\Users\CYMR90~1\AppData\Local\Temp\cchoDgth.s:24404  .debug_str:0000000000006fd4 .LASF805
C:\Users\CYMR90~1\AppData\Local\Temp\cchoDgth.s:27062  .debug_str:00000000000119fe .LASF806
C:\Users\CYMR90~1\AppData\Local\Temp\cchoDgth.s:30229  .debug_str:000000000001e80f .LASF807
C:\Users\CYMR90~1\AppData\Local\Temp\cchoDgth.s:29813  .debug_str:000000000001cce8 .LASF808
C:\Users\CYMR90~1\AppData\Local\Temp\cchoDgth.s:32283  .debug_str:00000000000268d6 .LASF809
C:\Users\CYMR90~1\AppData\Local\Temp\cchoDgth.s:33747  .debug_str:000000000002c3f1 .LASF810
C:\Users\CYMR90~1\AppData\Local\Temp\cchoDgth.s:24796  .debug_str:0000000000008a2f .LASF811
C:\Users\CYMR90~1\AppData\Local\Temp\cchoDgth.s:23700  .debug_str:000000000000436d .LASF812
C:\Users\CYMR90~1\AppData\Local\Temp\cchoDgth.s:33781  .debug_str:000000000002c6a5 .LASF813
C:\Users\CYMR90~1\AppData\Local\Temp\cchoDgth.s:24080  .debug_str:0000000000005bd1 .LASF814
C:\Users\CYMR90~1\AppData\Local\Temp\cchoDgth.s:24298  .debug_str:00000000000068f9 .LASF815
C:\Users\CYMR90~1\AppData\Local\Temp\cchoDgth.s:29585  .debug_str:000000000001be66 .LASF816
C:\Users\CYMR90~1\AppData\Local\Temp\cchoDgth.s:24964  .debug_str:00000000000094fb .LASF817
C:\Users\CYMR90~1\AppData\Local\Temp\cchoDgth.s:29727  .debug_str:000000000001c72a .LASF818
C:\Users\CYMR90~1\AppData\Local\Temp\cchoDgth.s:29621  .debug_str:000000000001c094 .LASF819
C:\Users\CYMR90~1\AppData\Local\Temp\cchoDgth.s:22808  .debug_str:0000000000000b1d .LASF820
C:\Users\CYMR90~1\AppData\Local\Temp\cchoDgth.s:33369  .debug_str:000000000002acae .LASF821
C:\Users\CYMR90~1\AppData\Local\Temp\cchoDgth.s:31867  .debug_str:0000000000024c11 .LASF822
C:\Users\CYMR90~1\AppData\Local\Temp\cchoDgth.s:24932  .debug_str:0000000000009321 .LASF823
C:\Users\CYMR90~1\AppData\Local\Temp\cchoDgth.s:28278  .debug_str:0000000000016852 .LASF824
C:\Users\CYMR90~1\AppData\Local\Temp\cchoDgth.s:29921  .debug_str:000000000001d4cf .LASF825
C:\Users\CYMR90~1\AppData\Local\Temp\cchoDgth.s:28062  .debug_str:0000000000015a34 .LASF826
C:\Users\CYMR90~1\AppData\Local\Temp\cchoDgth.s:23588  .debug_str:0000000000003be9 .LASF827
C:\Users\CYMR90~1\AppData\Local\Temp\cchoDgth.s:26380  .debug_str:000000000000f02e .LASF828
C:\Users\CYMR90~1\AppData\Local\Temp\cchoDgth.s:31977  .debug_str:0000000000025332 .LASF829
C:\Users\CYMR90~1\AppData\Local\Temp\cchoDgth.s:32155  .debug_str:00000000000260c7 .LASF830
C:\Users\CYMR90~1\AppData\Local\Temp\cchoDgth.s:25556  .debug_str:000000000000bb3d .LASF831
C:\Users\CYMR90~1\AppData\Local\Temp\cchoDgth.s:26324  .debug_str:000000000000ece8 .LASF832
C:\Users\CYMR90~1\AppData\Local\Temp\cchoDgth.s:24164  .debug_str:00000000000060b0 .LASF833
C:\Users\CYMR90~1\AppData\Local\Temp\cchoDgth.s:26966  .debug_str:000000000001139f .LASF834
C:\Users\CYMR90~1\AppData\Local\Temp\cchoDgth.s:28761  .debug_str:000000000001883e .LASF835
C:\Users\CYMR90~1\AppData\Local\Temp\cchoDgth.s:26868  .debug_str:0000000000010dc7 .LASF836
C:\Users\CYMR90~1\AppData\Local\Temp\cchoDgth.s:30685  .debug_str:0000000000020401 .LASF837
C:\Users\CYMR90~1\AppData\Local\Temp\cchoDgth.s:24836  .debug_str:0000000000008d05 .LASF838
C:\Users\CYMR90~1\AppData\Local\Temp\cchoDgth.s:24006  .debug_str:0000000000005755 .LASF839
C:\Users\CYMR90~1\AppData\Local\Temp\cchoDgth.s:26762  .debug_str:0000000000010794 .LASF840
C:\Users\CYMR90~1\AppData\Local\Temp\cchoDgth.s:25690  .debug_str:000000000000c4b4 .LASF841
C:\Users\CYMR90~1\AppData\Local\Temp\cchoDgth.s:29831  .debug_str:000000000001cdfe .LASF842
C:\Users\CYMR90~1\AppData\Local\Temp\cchoDgth.s:22882  .debug_str:0000000000001029 .LASF843
C:\Users\CYMR90~1\AppData\Local\Temp\cchoDgth.s:23248  .debug_str:00000000000025bf .LASF844
C:\Users\CYMR90~1\AppData\Local\Temp\cchoDgth.s:31723  .debug_str:0000000000024281 .LASF845
C:\Users\CYMR90~1\AppData\Local\Temp\cchoDgth.s:22638  .debug_str:0000000000000096 .LASF846
C:\Users\CYMR90~1\AppData\Local\Temp\cchoDgth.s:24644  .debug_str:0000000000008010 .LASF847
C:\Users\CYMR90~1\AppData\Local\Temp\cchoDgth.s:30541  .debug_str:000000000001fad7 .LASF848
C:\Users\CYMR90~1\AppData\Local\Temp\cchoDgth.s:24612  .debug_str:0000000000007d81 .LASF849
C:\Users\CYMR90~1\AppData\Local\Temp\cchoDgth.s:25982  .debug_str:000000000000d788 .LASF852
C:\Users\CYMR90~1\AppData\Local\Temp\cchoDgth.s:32939  .debug_str:00000000000292f9 .LASF853
C:\Users\CYMR90~1\AppData\Local\Temp\cchoDgth.s:27920  .debug_str:0000000000015204 .LASF854
C:\Users\CYMR90~1\AppData\Local\Temp\cchoDgth.s:31203  .debug_str:00000000000223c5 .LASF856
C:\Users\CYMR90~1\AppData\Local\Temp\cchoDgth.s:30059  .debug_str:000000000001dd60 .LASF857
C:\Users\CYMR90~1\AppData\Local\Temp\cchoDgth.s:32757  .debug_str:0000000000028686 .LASF858
C:\Users\CYMR90~1\AppData\Local\Temp\cchoDgth.s:25970  .debug_str:000000000000d6bd .LASF859
C:\Users\CYMR90~1\AppData\Local\Temp\cchoDgth.s:26920  .debug_str:00000000000110f8 .LASF860
C:\Users\CYMR90~1\AppData\Local\Temp\cchoDgth.s:31135  .debug_str:0000000000021f73 .LASF861
C:\Users\CYMR90~1\AppData\Local\Temp\cchoDgth.s:30265  .debug_str:000000000001ea7a .LASF862
C:\Users\CYMR90~1\AppData\Local\Temp\cchoDgth.s:22984  .debug_str:00000000000015e1 .LASF863
C:\Users\CYMR90~1\AppData\Local\Temp\cchoDgth.s:23644  .debug_str:0000000000003f3c .LASF864
C:\Users\CYMR90~1\AppData\Local\Temp\cchoDgth.s:24052  .debug_str:0000000000005a2a .LASF865
C:\Users\CYMR90~1\AppData\Local\Temp\cchoDgth.s:25238  .debug_str:000000000000a606 .LASF866
C:\Users\CYMR90~1\AppData\Local\Temp\cchoDgth.s:24712  .debug_str:0000000000008530 .LASF867
C:\Users\CYMR90~1\AppData\Local\Temp\cchoDgth.s:29987  .debug_str:000000000001d8a4 .LASF868
C:\Users\CYMR90~1\AppData\Local\Temp\cchoDgth.s:30625  .debug_str:0000000000020024 .LASF869
C:\Users\CYMR90~1\AppData\Local\Temp\cchoDgth.s:31737  .debug_str:0000000000024345 .LASF870
C:\Users\CYMR90~1\AppData\Local\Temp\cchoDgth.s:24870  .debug_str:0000000000008f93 .LASF871
C:\Users\CYMR90~1\AppData\Local\Temp\cchoDgth.s:25314  .debug_str:000000000000ab53 .LASF872
C:\Users\CYMR90~1\AppData\Local\Temp\cchoDgth.s:29823  .debug_str:000000000001cd8c .LASF873
C:\Users\CYMR90~1\AppData\Local\Temp\cchoDgth.s:32459  .debug_str:000000000002738d .LASF874
C:\Users\CYMR90~1\AppData\Local\Temp\cchoDgth.s:27132  .debug_str:0000000000011ef7 .LASF875
C:\Users\CYMR90~1\AppData\Local\Temp\cchoDgth.s:27822  .debug_str:0000000000014b9f .LASF876
C:\Users\CYMR90~1\AppData\Local\Temp\cchoDgth.s:25116  .debug_str:0000000000009e7f .LASF877
C:\Users\CYMR90~1\AppData\Local\Temp\cchoDgth.s:29525  .debug_str:000000000001bb33 .LASF878
C:\Users\CYMR90~1\AppData\Local\Temp\cchoDgth.s:28012  .debug_str:0000000000015782 .LASF879
C:\Users\CYMR90~1\AppData\Local\Temp\cchoDgth.s:28475  .debug_str:00000000000176ac .LASF880
C:\Users\CYMR90~1\AppData\Local\Temp\cchoDgth.s:23982  .debug_str:00000000000055c9 .LASF881
C:\Users\CYMR90~1\AppData\Local\Temp\cchoDgth.s:27348  .debug_str:0000000000012d2f .LASF882
C:\Users\CYMR90~1\AppData\Local\Temp\cchoDgth.s:30509  .debug_str:000000000001f919 .LASF883
C:\Users\CYMR90~1\AppData\Local\Temp\cchoDgth.s:30697  .debug_str:00000000000204aa .LASF884
C:\Users\CYMR90~1\AppData\Local\Temp\cchoDgth.s:34027  .debug_str:000000000002d67c .LASF885
C:\Users\CYMR90~1\AppData\Local\Temp\cchoDgth.s:29531  .debug_str:000000000001bb8b .LASF886
C:\Users\CYMR90~1\AppData\Local\Temp\cchoDgth.s:24976  .debug_str:00000000000095a6 .LASF887
C:\Users\CYMR90~1\AppData\Local\Temp\cchoDgth.s:31687  .debug_str:0000000000024095 .LASF888
C:\Users\CYMR90~1\AppData\Local\Temp\cchoDgth.s:27290  .debug_str:000000000001293b .LASF889
C:\Users\CYMR90~1\AppData\Local\Temp\cchoDgth.s:31621  .debug_str:0000000000023c49 .LASF890
C:\Users\CYMR90~1\AppData\Local\Temp\cchoDgth.s:23796  .debug_str:0000000000004a7c .LASF891
C:\Users\CYMR90~1\AppData\Local\Temp\cchoDgth.s:24632  .debug_str:0000000000007eaa .LASF892
C:\Users\CYMR90~1\AppData\Local\Temp\cchoDgth.s:32405  .debug_str:0000000000027069 .LASF893
C:\Users\CYMR90~1\AppData\Local\Temp\cchoDgth.s:31781  .debug_str:00000000000245c2 .LASF894
C:\Users\CYMR90~1\AppData\Local\Temp\cchoDgth.s:22954  .debug_str:000000000000141f .LASF895
C:\Users\CYMR90~1\AppData\Local\Temp\cchoDgth.s:27680  .debug_str:0000000000014283 .LASF896
C:\Users\CYMR90~1\AppData\Local\Temp\cchoDgth.s:23886  .debug_str:0000000000004fe1 .LASF897
C:\Users\CYMR90~1\AppData\Local\Temp\cchoDgth.s:25106  .debug_str:0000000000009deb .LASF898
C:\Users\CYMR90~1\AppData\Local\Temp\cchoDgth.s:32699  .debug_str:00000000000282e4 .LASF899
C:\Users\CYMR90~1\AppData\Local\Temp\cchoDgth.s:25436  .debug_str:000000000000b3a8 .LASF900
C:\Users\CYMR90~1\AppData\Local\Temp\cchoDgth.s:29575  .debug_str:000000000001bdcb .LASF901
C:\Users\CYMR90~1\AppData\Local\Temp\cchoDgth.s:33241  .debug_str:000000000002a57d .LASF902
C:\Users\CYMR90~1\AppData\Local\Temp\cchoDgth.s:31975  .debug_str:000000000002530c .LASF903
C:\Users\CYMR90~1\AppData\Local\Temp\cchoDgth.s:32843  .debug_str:0000000000028cf8 .LASF904
C:\Users\CYMR90~1\AppData\Local\Temp\cchoDgth.s:27332  .debug_str:0000000000012c21 .LASF905
C:\Users\CYMR90~1\AppData\Local\Temp\cchoDgth.s:24760  .debug_str:0000000000008821 .LASF906
C:\Users\CYMR90~1\AppData\Local\Temp\cchoDgth.s:29917  .debug_str:000000000001d489 .LASF907
C:\Users\CYMR90~1\AppData\Local\Temp\cchoDgth.s:26266  .debug_str:000000000000e93f .LASF908
C:\Users\CYMR90~1\AppData\Local\Temp\cchoDgth.s:32675  .debug_str:0000000000028124 .LASF909
C:\Users\CYMR90~1\AppData\Local\Temp\cchoDgth.s:26888  .debug_str:0000000000010f4b .LASF910
C:\Users\CYMR90~1\AppData\Local\Temp\cchoDgth.s:23340  .debug_str:0000000000002bec .LASF911
C:\Users\CYMR90~1\AppData\Local\Temp\cchoDgth.s:22926  .debug_str:00000000000012b6 .LASF912
C:\Users\CYMR90~1\AppData\Local\Temp\cchoDgth.s:31053  .debug_str:0000000000021a82 .LASF913
C:\Users\CYMR90~1\AppData\Local\Temp\cchoDgth.s:31957  .debug_str:00000000000251dc .LASF914
C:\Users\CYMR90~1\AppData\Local\Temp\cchoDgth.s:25816  .debug_str:000000000000ccb6 .LASF915
C:\Users\CYMR90~1\AppData\Local\Temp\cchoDgth.s:26124  .debug_str:000000000000e058 .LASF916
C:\Users\CYMR90~1\AppData\Local\Temp\cchoDgth.s:26700  .debug_str:00000000000103f4 .LASF917
C:\Users\CYMR90~1\AppData\Local\Temp\cchoDgth.s:33485  .debug_str:000000000002b371 .LASF918
C:\Users\CYMR90~1\AppData\Local\Temp\cchoDgth.s:22912  .debug_str:00000000000011c2 .LASF919
C:\Users\CYMR90~1\AppData\Local\Temp\cchoDgth.s:25422  .debug_str:000000000000b2bd .LASF920
C:\Users\CYMR90~1\AppData\Local\Temp\cchoDgth.s:31911  .debug_str:0000000000024e88 .LASF921
C:\Users\CYMR90~1\AppData\Local\Temp\cchoDgth.s:29269  .debug_str:000000000001aa44 .LASF922
C:\Users\CYMR90~1\AppData\Local\Temp\cchoDgth.s:32439  .debug_str:000000000002725e .LASF923
C:\Users\CYMR90~1\AppData\Local\Temp\cchoDgth.s:28395  .debug_str:0000000000017204 .LASF924
C:\Users\CYMR90~1\AppData\Local\Temp\cchoDgth.s:23298  .debug_str:0000000000002924 .LASF925
C:\Users\CYMR90~1\AppData\Local\Temp\cchoDgth.s:29489  .debug_str:000000000001b906 .LASF926
C:\Users\CYMR90~1\AppData\Local\Temp\cchoDgth.s:23028  .debug_str:00000000000018ed .LASF927
C:\Users\CYMR90~1\AppData\Local\Temp\cchoDgth.s:27850  .debug_str:0000000000014d3b .LASF928
C:\Users\CYMR90~1\AppData\Local\Temp\cchoDgth.s:30573  .debug_str:000000000001fca7 .LASF929
C:\Users\CYMR90~1\AppData\Local\Temp\cchoDgth.s:33745  .debug_str:000000000002c3d4 .LASF930
C:\Users\CYMR90~1\AppData\Local\Temp\cchoDgth.s:33963  .debug_str:000000000002d28d .LASF931
C:\Users\CYMR90~1\AppData\Local\Temp\cchoDgth.s:30467  .debug_str:000000000001f67a .LASF932
C:\Users\CYMR90~1\AppData\Local\Temp\cchoDgth.s:33221  .debug_str:000000000002a427 .LASF933
C:\Users\CYMR90~1\AppData\Local\Temp\cchoDgth.s:28194  .debug_str:0000000000016303 .LASF934
C:\Users\CYMR90~1\AppData\Local\Temp\cchoDgth.s:29037  .debug_str:0000000000019a7d .LASF935
C:\Users\CYMR90~1\AppData\Local\Temp\cchoDgth.s:28066  .debug_str:0000000000015a69 .LASF936
C:\Users\CYMR90~1\AppData\Local\Temp\cchoDgth.s:32055  .debug_str:00000000000258e0 .LASF937
C:\Users\CYMR90~1\AppData\Local\Temp\cchoDgth.s:22824  .debug_str:0000000000000c25 .LASF938
C:\Users\CYMR90~1\AppData\Local\Temp\cchoDgth.s:30845  .debug_str:0000000000020d97 .LASF939
C:\Users\CYMR90~1\AppData\Local\Temp\cchoDgth.s:32141  .debug_str:0000000000025f61 .LASF940
C:\Users\CYMR90~1\AppData\Local\Temp\cchoDgth.s:25558  .debug_str:000000000000bb5b .LASF941
C:\Users\CYMR90~1\AppData\Local\Temp\cchoDgth.s:29257  .debug_str:000000000001a99c .LASF942
C:\Users\CYMR90~1\AppData\Local\Temp\cchoDgth.s:26310  .debug_str:000000000000ebde .LASF943
C:\Users\CYMR90~1\AppData\Local\Temp\cchoDgth.s:32261  .debug_str:000000000002676e .LASF944
C:\Users\CYMR90~1\AppData\Local\Temp\cchoDgth.s:29669  .debug_str:000000000001c3a2 .LASF945
C:\Users\CYMR90~1\AppData\Local\Temp\cchoDgth.s:26518  .debug_str:000000000000f865 .LASF946
C:\Users\CYMR90~1\AppData\Local\Temp\cchoDgth.s:28553  .debug_str:0000000000017b77 .LASF947
C:\Users\CYMR90~1\AppData\Local\Temp\cchoDgth.s:30191  .debug_str:000000000001e613 .LASF948
C:\Users\CYMR90~1\AppData\Local\Temp\cchoDgth.s:26864  .debug_str:0000000000010d89 .LASF949
C:\Users\CYMR90~1\AppData\Local\Temp\cchoDgth.s:25872  .debug_str:000000000000cfba .LASF950
C:\Users\CYMR90~1\AppData\Local\Temp\cchoDgth.s:24466  .debug_str:00000000000073ea .LASF952
C:\Users\CYMR90~1\AppData\Local\Temp\cchoDgth.s:27984  .debug_str:00000000000155c8 .LASF953
C:\Users\CYMR90~1\AppData\Local\Temp\cchoDgth.s:25908  .debug_str:000000000000d237 .LASF954
C:\Users\CYMR90~1\AppData\Local\Temp\cchoDgth.s:33955  .debug_str:000000000002d218 .LASF955
C:\Users\CYMR90~1\AppData\Local\Temp\cchoDgth.s:33123  .debug_str:0000000000029e48 .LASF956
C:\Users\CYMR90~1\AppData\Local\Temp\cchoDgth.s:33211  .debug_str:000000000002a391 .LASF960
C:\Users\CYMR90~1\AppData\Local\Temp\cchoDgth.s:25004  .debug_str:00000000000097a2 .LASF961
C:\Users\CYMR90~1\AppData\Local\Temp\cchoDgth.s:32469  .debug_str:0000000000027418 .LASF962
C:\Users\CYMR90~1\AppData\Local\Temp\cchoDgth.s:27104  .debug_str:0000000000011d45 .LASF963
C:\Users\CYMR90~1\AppData\Local\Temp\cchoDgth.s:24492  .debug_str:00000000000075d1 .LASF964
C:\Users\CYMR90~1\AppData\Local\Temp\cchoDgth.s:31235  .debug_str:000000000002257a .LASF965
C:\Users\CYMR90~1\AppData\Local\Temp\cchoDgth.s:29481  .debug_str:000000000001b86c .LASF966
C:\Users\CYMR90~1\AppData\Local\Temp\cchoDgth.s:32411  .debug_str:00000000000270c5 .LASF967
C:\Users\CYMR90~1\AppData\Local\Temp\cchoDgth.s:33527  .debug_str:000000000002b5fb .LASF968
C:\Users\CYMR90~1\AppData\Local\Temp\cchoDgth.s:24220  .debug_str:0000000000006458 .LASF969
C:\Users\CYMR90~1\AppData\Local\Temp\cchoDgth.s:27720  .debug_str:0000000000014530 .LASF970
C:\Users\CYMR90~1\AppData\Local\Temp\cchoDgth.s:33615  .debug_str:000000000002bb7d .LASF971
C:\Users\CYMR90~1\AppData\Local\Temp\cchoDgth.s:26320  .debug_str:000000000000ecaa .LASF972
C:\Users\CYMR90~1\AppData\Local\Temp\cchoDgth.s:26288  .debug_str:000000000000eaa5 .LASF973
C:\Users\CYMR90~1\AppData\Local\Temp\cchoDgth.s:25932  .debug_str:000000000000d3bd .LASF974
C:\Users\CYMR90~1\AppData\Local\Temp\cchoDgth.s:28328  .debug_str:0000000000016b3e .LASF975
C:\Users\CYMR90~1\AppData\Local\Temp\cchoDgth.s:33989  .debug_str:000000000002d3cc .LASF976
C:\Users\CYMR90~1\AppData\Local\Temp\cchoDgth.s:25868  .debug_str:000000000000cf75 .LASF977
C:\Users\CYMR90~1\AppData\Local\Temp\cchoDgth.s:34015  .debug_str:000000000002d5f9 .LASF978
C:\Users\CYMR90~1\AppData\Local\Temp\cchoDgth.s:32243  .debug_str:0000000000026635 .LASF979
C:\Users\CYMR90~1\AppData\Local\Temp\cchoDgth.s:32303  .debug_str:00000000000269fa .LASF980
C:\Users\CYMR90~1\AppData\Local\Temp\cchoDgth.s:26378  .debug_str:000000000000f014 .LASF981
C:\Users\CYMR90~1\AppData\Local\Temp\cchoDgth.s:23930  .debug_str:000000000000528d .LASF982
C:\Users\CYMR90~1\AppData\Local\Temp\cchoDgth.s:27128  .debug_str:0000000000011eda .LASF983
C:\Users\CYMR90~1\AppData\Local\Temp\cchoDgth.s:29899  .debug_str:000000000001d2db .LASF984
C:\Users\CYMR90~1\AppData\Local\Temp\cchoDgth.s:29913  .debug_str:000000000001d3c2 .LASF985
C:\Users\CYMR90~1\AppData\Local\Temp\cchoDgth.s:31533  .debug_str:0000000000023739 .LASF986
C:\Users\CYMR90~1\AppData\Local\Temp\cchoDgth.s:28136  .debug_str:0000000000015ee7 .LASF987
C:\Users\CYMR90~1\AppData\Local\Temp\cchoDgth.s:23360  .debug_str:0000000000002d1b .LASF988
C:\Users\CYMR90~1\AppData\Local\Temp\cchoDgth.s:31443  .debug_str:000000000002321a .LASF989
C:\Users\CYMR90~1\AppData\Local\Temp\cchoDgth.s:28853  .debug_str:0000000000018de7 .LASF990
C:\Users\CYMR90~1\AppData\Local\Temp\cchoDgth.s:25864  .debug_str:000000000000cf4d .LASF991
C:\Users\CYMR90~1\AppData\Local\Temp\cchoDgth.s:32413  .debug_str:00000000000270ed .LASF992
C:\Users\CYMR90~1\AppData\Local\Temp\cchoDgth.s:24512  .debug_str:00000000000076fa .LASF993
C:\Users\CYMR90~1\AppData\Local\Temp\cchoDgth.s:32225  .debug_str:000000000002650a .LASF994
C:\Users\CYMR90~1\AppData\Local\Temp\cchoDgth.s:28935  .debug_str:0000000000019474 .LASF995
C:\Users\CYMR90~1\AppData\Local\Temp\cchoDgth.s:33029  .debug_str:000000000002985b .LASF996
C:\Users\CYMR90~1\AppData\Local\Temp\cchoDgth.s:30101  .debug_str:000000000001dfc3 .LASF997
C:\Users\CYMR90~1\AppData\Local\Temp\cchoDgth.s:30171  .debug_str:000000000001e4ca .LASF998
C:\Users\CYMR90~1\AppData\Local\Temp\cchoDgth.s:23260  .debug_str:000000000000265d .LASF999
C:\Users\CYMR90~1\AppData\Local\Temp\cchoDgth.s:23594  .debug_str:0000000000003c41 .LASF1000
C:\Users\CYMR90~1\AppData\Local\Temp\cchoDgth.s:31887  .debug_str:0000000000024d1d .LASF1001
C:\Users\CYMR90~1\AppData\Local\Temp\cchoDgth.s:26708  .debug_str:000000000001047c .LASF1002
C:\Users\CYMR90~1\AppData\Local\Temp\cchoDgth.s:23878  .debug_str:0000000000004f88 .LASF1003
C:\Users\CYMR90~1\AppData\Local\Temp\cchoDgth.s:29711  .debug_str:000000000001c643 .LASF1004
C:\Users\CYMR90~1\AppData\Local\Temp\cchoDgth.s:27076  .debug_str:0000000000011b13 .LASF1005
C:\Users\CYMR90~1\AppData\Local\Temp\cchoDgth.s:25830  .debug_str:000000000000cd90 .LASF1006
C:\Users\CYMR90~1\AppData\Local\Temp\cchoDgth.s:24194  .debug_str:00000000000062c1 .LASF1007
C:\Users\CYMR90~1\AppData\Local\Temp\cchoDgth.s:31231  .debug_str:0000000000022542 .LASF1008
C:\Users\CYMR90~1\AppData\Local\Temp\cchoDgth.s:28631  .debug_str:0000000000018039 .LASF1009
C:\Users\CYMR90~1\AppData\Local\Temp\cchoDgth.s:28785  .debug_str:0000000000018993 .LASF1010
C:\Users\CYMR90~1\AppData\Local\Temp\cchoDgth.s:26140  .debug_str:000000000000e165 .LASF1011
C:\Users\CYMR90~1\AppData\Local\Temp\cchoDgth.s:29959  .debug_str:000000000001d6fd .LASF1012
C:\Users\CYMR90~1\AppData\Local\Temp\cchoDgth.s:26338  .debug_str:000000000000edb5 .LASF1013
C:\Users\CYMR90~1\AppData\Local\Temp\cchoDgth.s:29055  .debug_str:0000000000019c01 .LASF1014
C:\Users\CYMR90~1\AppData\Local\Temp\cchoDgth.s:23592  .debug_str:0000000000003c2b .LASF1015
C:\Users\CYMR90~1\AppData\Local\Temp\cchoDgth.s:24088  .debug_str:0000000000005c2e .LASF1016
C:\Users\CYMR90~1\AppData\Local\Temp\cchoDgth.s:24042  .debug_str:000000000000597f .LASF1017
C:\Users\CYMR90~1\AppData\Local\Temp\cchoDgth.s:32563  .debug_str:00000000000279e7 .LASF1018
C:\Users\CYMR90~1\AppData\Local\Temp\cchoDgth.s:26388  .debug_str:000000000000f096 .LASF1019
C:\Users\CYMR90~1\AppData\Local\Temp\cchoDgth.s:23254  .debug_str:0000000000002614 .LASF1020
C:\Users\CYMR90~1\AppData\Local\Temp\cchoDgth.s:28667  .debug_str:000000000001827c .LASF1021
C:\Users\CYMR90~1\AppData\Local\Temp\cchoDgth.s:25688  .debug_str:000000000000c49c .LASF1022
C:\Users\CYMR90~1\AppData\Local\Temp\cchoDgth.s:32489  .debug_str:0000000000027533 .LASF1023
C:\Users\CYMR90~1\AppData\Local\Temp\cchoDgth.s:24914  .debug_str:0000000000009249 .LASF1024
C:\Users\CYMR90~1\AppData\Local\Temp\cchoDgth.s:27402  .debug_str:00000000000130a3 .LASF1025
C:\Users\CYMR90~1\AppData\Local\Temp\cchoDgth.s:26892  .debug_str:0000000000010f8c .LASF1026
C:\Users\CYMR90~1\AppData\Local\Temp\cchoDgth.s:27842  .debug_str:0000000000014c87 .LASF1027
C:\Users\CYMR90~1\AppData\Local\Temp\cchoDgth.s:30037  .debug_str:000000000001dbe4 .LASF1028
C:\Users\CYMR90~1\AppData\Local\Temp\cchoDgth.s:30427  .debug_str:000000000001f3f2 .LASF1029
C:\Users\CYMR90~1\AppData\Local\Temp\cchoDgth.s:31755  .debug_str:0000000000024438 .LASF1030
C:\Users\CYMR90~1\AppData\Local\Temp\cchoDgth.s:30799  .debug_str:0000000000020ad8 .LASF1031
C:\Users\CYMR90~1\AppData\Local\Temp\cchoDgth.s:33125  .debug_str:0000000000029eb0 .LASF1032
C:\Users\CYMR90~1\AppData\Local\Temp\cchoDgth.s:25062  .debug_str:0000000000009b38 .LASF1033
C:\Users\CYMR90~1\AppData\Local\Temp\cchoDgth.s:23938  .debug_str:000000000000530f .LASF1034
C:\Users\CYMR90~1\AppData\Local\Temp\cchoDgth.s:28983  .debug_str:000000000001973a .LASF1035
C:\Users\CYMR90~1\AppData\Local\Temp\cchoDgth.s:29247  .debug_str:000000000001a92b .LASF1036
C:\Users\CYMR90~1\AppData\Local\Temp\cchoDgth.s:31547  .debug_str:00000000000237d0 .LASF1037
C:\Users\CYMR90~1\AppData\Local\Temp\cchoDgth.s:26558  .debug_str:000000000000fb7a .LASF1038
C:\Users\CYMR90~1\AppData\Local\Temp\cchoDgth.s:30143  .debug_str:000000000001e30d .LASF1039
C:\Users\CYMR90~1\AppData\Local\Temp\cchoDgth.s:28004  .debug_str:0000000000015705 .LASF1040
C:\Users\CYMR90~1\AppData\Local\Temp\cchoDgth.s:26468  .debug_str:000000000000f568 .LASF1041
C:\Users\CYMR90~1\AppData\Local\Temp\cchoDgth.s:32293  .debug_str:0000000000026961 .LASF1042
C:\Users\CYMR90~1\AppData\Local\Temp\cchoDgth.s:26710  .debug_str:0000000000010493 .LASF1043
C:\Users\CYMR90~1\AppData\Local\Temp\cchoDgth.s:22658  .debug_str:00000000000001c3 .LASF1044
C:\Users\CYMR90~1\AppData\Local\Temp\cchoDgth.s:24926  .debug_str:00000000000092d0 .LASF1045
C:\Users\CYMR90~1\AppData\Local\Temp\cchoDgth.s:29179  .debug_str:000000000001a3bf .LASF1046
C:\Users\CYMR90~1\AppData\Local\Temp\cchoDgth.s:32657  .debug_str:0000000000027ff2 .LASF1047
C:\Users\CYMR90~1\AppData\Local\Temp\cchoDgth.s:31595  .debug_str:0000000000023a9e .LASF1048
C:\Users\CYMR90~1\AppData\Local\Temp\cchoDgth.s:30393  .debug_str:000000000001f1cd .LASF1049
C:\Users\CYMR90~1\AppData\Local\Temp\cchoDgth.s:23438  .debug_str:0000000000003229 .LASF1050
C:\Users\CYMR90~1\AppData\Local\Temp\cchoDgth.s:30403  .debug_str:000000000001f258 .LASF1051
C:\Users\CYMR90~1\AppData\Local\Temp\cchoDgth.s:30607  .debug_str:000000000001feff .LASF1052
C:\Users\CYMR90~1\AppData\Local\Temp\cchoDgth.s:25434  .debug_str:000000000000b396 .LASF1053
C:\Users\CYMR90~1\AppData\Local\Temp\cchoDgth.s:31491  .debug_str:00000000000234f0 .LASF1054
C:\Users\CYMR90~1\AppData\Local\Temp\cchoDgth.s:27374  .debug_str:0000000000012ed7 .LASF1055
C:\Users\CYMR90~1\AppData\Local\Temp\cchoDgth.s:26316  .debug_str:000000000000ec58 .LASF1056
C:\Users\CYMR90~1\AppData\Local\Temp\cchoDgth.s:32735  .debug_str:0000000000028539 .LASF1057
C:\Users\CYMR90~1\AppData\Local\Temp\cchoDgth.s:33331  .debug_str:000000000002aa80 .LASF1058
C:\Users\CYMR90~1\AppData\Local\Temp\cchoDgth.s:32053  .debug_str:00000000000258be .LASF1059
C:\Users\CYMR90~1\AppData\Local\Temp\cchoDgth.s:31625  .debug_str:0000000000023c91 .LASF1060
C:\Users\CYMR90~1\AppData\Local\Temp\cchoDgth.s:24740  .debug_str:00000000000086d9 .LASF1061
C:\Users\CYMR90~1\AppData\Local\Temp\cchoDgth.s:22790  .debug_str:00000000000009c8 .LASF1062
C:\Users\CYMR90~1\AppData\Local\Temp\cchoDgth.s:27758  .debug_str:0000000000014747 .LASF1063
C:\Users\CYMR90~1\AppData\Local\Temp\cchoDgth.s:23640  .debug_str:0000000000003f1a .LASF1064
C:\Users\CYMR90~1\AppData\Local\Temp\cchoDgth.s:22728  .debug_str:000000000000060f .LASF1065
C:\Users\CYMR90~1\AppData\Local\Temp\cchoDgth.s:34021  .debug_str:000000000002d642 .LASF1066
C:\Users\CYMR90~1\AppData\Local\Temp\cchoDgth.s:31889  .debug_str:0000000000024d35 .LASF1067
C:\Users\CYMR90~1\AppData\Local\Temp\cchoDgth.s:28326  .debug_str:0000000000016b24 .LASF1068
C:\Users\CYMR90~1\AppData\Local\Temp\cchoDgth.s:29929  .debug_str:000000000001d528 .LASF1069
C:\Users\CYMR90~1\AppData\Local\Temp\cchoDgth.s:22844  .debug_str:0000000000000d42 .LASF1070
C:\Users\CYMR90~1\AppData\Local\Temp\cchoDgth.s:25196  .debug_str:000000000000a371 .LASF1071
C:\Users\CYMR90~1\AppData\Local\Temp\cchoDgth.s:31391  .debug_str:0000000000022e9b .LASF1072
C:\Users\CYMR90~1\AppData\Local\Temp\cchoDgth.s:29895  .debug_str:000000000001d299 .LASF1073
C:\Users\CYMR90~1\AppData\Local\Temp\cchoDgth.s:32993  .debug_str:0000000000029600 .LASF1074
C:\Users\CYMR90~1\AppData\Local\Temp\cchoDgth.s:28481  .debug_str:00000000000176f5 .LASF1075
C:\Users\CYMR90~1\AppData\Local\Temp\cchoDgth.s:23292  .debug_str:00000000000028d4 .LASF1076
C:\Users\CYMR90~1\AppData\Local\Temp\cchoDgth.s:33415  .debug_str:000000000002afa4 .LASF1077
C:\Users\CYMR90~1\AppData\Local\Temp\cchoDgth.s:24256  .debug_str:0000000000006691 .LASF1078
C:\Users\CYMR90~1\AppData\Local\Temp\cchoDgth.s:30843  .debug_str:0000000000020d85 .LASF1079
C:\Users\CYMR90~1\AppData\Local\Temp\cchoDgth.s:30945  .debug_str:0000000000021390 .LASF1080
C:\Users\CYMR90~1\AppData\Local\Temp\cchoDgth.s:29691  .debug_str:000000000001c50e .LASF1081
C:\Users\CYMR90~1\AppData\Local\Temp\cchoDgth.s:32593  .debug_str:0000000000027c68 .LASF1082
C:\Users\CYMR90~1\AppData\Local\Temp\cchoDgth.s:27952  .debug_str:0000000000015409 .LASF1083
C:\Users\CYMR90~1\AppData\Local\Temp\cchoDgth.s:31077  .debug_str:0000000000021bf9 .LASF1084
C:\Users\CYMR90~1\AppData\Local\Temp\cchoDgth.s:27638  .debug_str:0000000000013ffc .LASF1085
C:\Users\CYMR90~1\AppData\Local\Temp\cchoDgth.s:23060  .debug_str:0000000000001aeb .LASF1086
C:\Users\CYMR90~1\AppData\Local\Temp\cchoDgth.s:26190  .debug_str:000000000000e45e .LASF1087
C:\Users\CYMR90~1\AppData\Local\Temp\cchoDgth.s:32301  .debug_str:00000000000269eb .LASF1088
C:\Users\CYMR90~1\AppData\Local\Temp\cchoDgth.s:31383  .debug_str:0000000000022e26 .LASF1089
C:\Users\CYMR90~1\AppData\Local\Temp\cchoDgth.s:22904  .debug_str:0000000000001146 .LASF1090
C:\Users\CYMR90~1\AppData\Local\Temp\cchoDgth.s:33951  .debug_str:000000000002d1c0 .LASF1091
C:\Users\CYMR90~1\AppData\Local\Temp\cchoDgth.s:32697  .debug_str:00000000000282cc .LASF1092
C:\Users\CYMR90~1\AppData\Local\Temp\cchoDgth.s:26538  .debug_str:000000000000f984 .LASF1093
C:\Users\CYMR90~1\AppData\Local\Temp\cchoDgth.s:32347  .debug_str:0000000000026c78 .LASF1094
C:\Users\CYMR90~1\AppData\Local\Temp\cchoDgth.s:28020  .debug_str:00000000000157dd .LASF1095
C:\Users\CYMR90~1\AppData\Local\Temp\cchoDgth.s:29505  .debug_str:000000000001b9ec .LASF1096
C:\Users\CYMR90~1\AppData\Local\Temp\cchoDgth.s:30041  .debug_str:000000000001dc36 .LASF1097
C:\Users\CYMR90~1\AppData\Local\Temp\cchoDgth.s:24244  .debug_str:00000000000065ec .LASF1098
C:\Users\CYMR90~1\AppData\Local\Temp\cchoDgth.s:27396  .debug_str:000000000001302a .LASF1099
C:\Users\CYMR90~1\AppData\Local\Temp\cchoDgth.s:26704  .debug_str:000000000001044b .LASF1100
C:\Users\CYMR90~1\AppData\Local\Temp\cchoDgth.s:31671  .debug_str:0000000000023f99 .LASF1101
C:\Users\CYMR90~1\AppData\Local\Temp\cchoDgth.s:25878  .debug_str:000000000000d014 .LASF1102
C:\Users\CYMR90~1\AppData\Local\Temp\cchoDgth.s:31325  .debug_str:0000000000022a8f .LASF1103
C:\Users\CYMR90~1\AppData\Local\Temp\cchoDgth.s:32933  .debug_str:00000000000292a1 .LASF1104
C:\Users\CYMR90~1\AppData\Local\Temp\cchoDgth.s:30731  .debug_str:000000000002068e .LASF1105
C:\Users\CYMR90~1\AppData\Local\Temp\cchoDgth.s:27584  .debug_str:0000000000013ca2 .LASF1106
C:\Users\CYMR90~1\AppData\Local\Temp\cchoDgth.s:31591  .debug_str:0000000000023a68 .LASF1107
C:\Users\CYMR90~1\AppData\Local\Temp\cchoDgth.s:29417  .debug_str:000000000001b46b .LASF1108
C:\Users\CYMR90~1\AppData\Local\Temp\cchoDgth.s:24260  .debug_str:00000000000066cd .LASF1109
C:\Users\CYMR90~1\AppData\Local\Temp\cchoDgth.s:25226  .debug_str:000000000000a54a .LASF1110
C:\Users\CYMR90~1\AppData\Local\Temp\cchoDgth.s:23128  .debug_str:0000000000001edf .LASF1111
C:\Users\CYMR90~1\AppData\Local\Temp\cchoDgth.s:24344  .debug_str:0000000000006c11 .LASF1112
C:\Users\CYMR90~1\AppData\Local\Temp\cchoDgth.s:25460  .debug_str:000000000000b504 .LASF1113
C:\Users\CYMR90~1\AppData\Local\Temp\cchoDgth.s:28689  .debug_str:00000000000183a9 .LASF1114
C:\Users\CYMR90~1\AppData\Local\Temp\cchoDgth.s:25008  .debug_str:00000000000097c5 .LASF1115
C:\Users\CYMR90~1\AppData\Local\Temp\cchoDgth.s:32775  .debug_str:00000000000287f2 .LASF1116
C:\Users\CYMR90~1\AppData\Local\Temp\cchoDgth.s:33283  .debug_str:000000000002a7cf .LASF1117
C:\Users\CYMR90~1\AppData\Local\Temp\cchoDgth.s:24166  .debug_str:00000000000060da .LASF1118
C:\Users\CYMR90~1\AppData\Local\Temp\cchoDgth.s:28647  .debug_str:0000000000018135 .LASF1119
C:\Users\CYMR90~1\AppData\Local\Temp\cchoDgth.s:24710  .debug_str:0000000000008513 .LASF1120
C:\Users\CYMR90~1\AppData\Local\Temp\cchoDgth.s:24908  .debug_str:00000000000091e8 .LASF1121
C:\Users\CYMR90~1\AppData\Local\Temp\cchoDgth.s:27518  .debug_str:00000000000138b2 .LASF1122
C:\Users\CYMR90~1\AppData\Local\Temp\cchoDgth.s:27154  .debug_str:0000000000012065 .LASF1123
C:\Users\CYMR90~1\AppData\Local\Temp\cchoDgth.s:26168  .debug_str:000000000000e31e .LASF1124
C:\Users\CYMR90~1\AppData\Local\Temp\cchoDgth.s:27954  .debug_str:000000000001541b .LASF1125
C:\Users\CYMR90~1\AppData\Local\Temp\cchoDgth.s:28040  .debug_str:0000000000015916 .LASF1126
C:\Users\CYMR90~1\AppData\Local\Temp\cchoDgth.s:31479  .debug_str:0000000000023430 .LASF1127
C:\Users\CYMR90~1\AppData\Local\Temp\cchoDgth.s:32591  .debug_str:0000000000027c53 .LASF1128
C:\Users\CYMR90~1\AppData\Local\Temp\cchoDgth.s:24054  .debug_str:0000000000005a37 .LASF1129
C:\Users\CYMR90~1\AppData\Local\Temp\cchoDgth.s:28038  .debug_str:0000000000015901 .LASF1130
C:\Users\CYMR90~1\AppData\Local\Temp\cchoDgth.s:33121  .debug_str:0000000000029e33 .LASF1131
C:\Users\CYMR90~1\AppData\Local\Temp\cchoDgth.s:33519  .debug_str:000000000002b59c .LASF1132
C:\Users\CYMR90~1\AppData\Local\Temp\cchoDgth.s:28755  .debug_str:00000000000187b9 .LASF1133
C:\Users\CYMR90~1\AppData\Local\Temp\cchoDgth.s:31643  .debug_str:0000000000023da7 .LASF1134
C:\Users\CYMR90~1\AppData\Local\Temp\cchoDgth.s:24600  .debug_str:0000000000007caf .LASF1135
C:\Users\CYMR90~1\AppData\Local\Temp\cchoDgth.s:23820  .debug_str:0000000000004be1 .LASF1136
C:\Users\CYMR90~1\AppData\Local\Temp\cchoDgth.s:23646  .debug_str:0000000000003f47 .LASF1137
C:\Users\CYMR90~1\AppData\Local\Temp\cchoDgth.s:33131  .debug_str:0000000000029f0f .LASF1138
C:\Users\CYMR90~1\AppData\Local\Temp\cchoDgth.s:30175  .debug_str:000000000001e503 .LASF1139
C:\Users\CYMR90~1\AppData\Local\Temp\cchoDgth.s:33117  .debug_str:0000000000029e06 .LASF1140
C:\Users\CYMR90~1\AppData\Local\Temp\cchoDgth.s:22704  .debug_str:00000000000004af .LASF1141
C:\Users\CYMR90~1\AppData\Local\Temp\cchoDgth.s:27184  .debug_str:0000000000012259 .LASF1142
C:\Users\CYMR90~1\AppData\Local\Temp\cchoDgth.s:26196  .debug_str:000000000000e4ef .LASF1143
C:\Users\CYMR90~1\AppData\Local\Temp\cchoDgth.s:32645  .debug_str:0000000000027f3e .LASF1144
C:\Users\CYMR90~1\AppData\Local\Temp\cchoDgth.s:30775  .debug_str:00000000000208f8 .LASF1145
C:\Users\CYMR90~1\AppData\Local\Temp\cchoDgth.s:25720  .debug_str:000000000000c676 .LASF1146
C:\Users\CYMR90~1\AppData\Local\Temp\cchoDgth.s:33947  .debug_str:000000000002d17e .LASF1147
C:\Users\CYMR90~1\AppData\Local\Temp\cchoDgth.s:28507  .debug_str:000000000001787d .LASF1148
C:\Users\CYMR90~1\AppData\Local\Temp\cchoDgth.s:28763  .debug_str:0000000000018866 .LASF1149
C:\Users\CYMR90~1\AppData\Local\Temp\cchoDgth.s:29523  .debug_str:000000000001baf8 .LASF1150
C:\Users\CYMR90~1\AppData\Local\Temp\cchoDgth.s:23130  .debug_str:0000000000001efd .LASF1151
C:\Users\CYMR90~1\AppData\Local\Temp\cchoDgth.s:29949  .debug_str:000000000001d668 .LASF1152
C:\Users\CYMR90~1\AppData\Local\Temp\cchoDgth.s:25034  .debug_str:0000000000009921 .LASF1153
C:\Users\CYMR90~1\AppData\Local\Temp\cchoDgth.s:31091  .debug_str:0000000000021cab .LASF1154
C:\Users\CYMR90~1\AppData\Local\Temp\cchoDgth.s:30307  .debug_str:000000000001ed20 .LASF1155
C:\Users\CYMR90~1\AppData\Local\Temp\cchoDgth.s:23942  .debug_str:000000000000533b .LASF1156
C:\Users\CYMR90~1\AppData\Local\Temp\cchoDgth.s:30137  .debug_str:000000000001e292 .LASF1157
C:\Users\CYMR90~1\AppData\Local\Temp\cchoDgth.s:25478  .debug_str:000000000000b5fc .LASF1158
C:\Users\CYMR90~1\AppData\Local\Temp\cchoDgth.s:33301  .debug_str:000000000002a90c .LASF1159
C:\Users\CYMR90~1\AppData\Local\Temp\cchoDgth.s:23012  .debug_str:000000000000176b .LASF1160
C:\Users\CYMR90~1\AppData\Local\Temp\cchoDgth.s:33379  .debug_str:000000000002ad8d .LASF1161
C:\Users\CYMR90~1\AppData\Local\Temp\cchoDgth.s:33069  .debug_str:0000000000029a99 .LASF1162
C:\Users\CYMR90~1\AppData\Local\Temp\cchoDgth.s:30027  .debug_str:000000000001db61 .LASF1163
C:\Users\CYMR90~1\AppData\Local\Temp\cchoDgth.s:29147  .debug_str:000000000001a1ea .LASF1164
C:\Users\CYMR90~1\AppData\Local\Temp\cchoDgth.s:26012  .debug_str:000000000000d973 .LASF1165
C:\Users\CYMR90~1\AppData\Local\Temp\cchoDgth.s:30701  .debug_str:00000000000204e6 .LASF1166
C:\Users\CYMR90~1\AppData\Local\Temp\cchoDgth.s:26900  .debug_str:0000000000010ff5 .LASF1167
C:\Users\CYMR90~1\AppData\Local\Temp\cchoDgth.s:25032  .debug_str:0000000000009917 .LASF1168
C:\Users\CYMR90~1\AppData\Local\Temp\cchoDgth.s:27982  .debug_str:00000000000155bd .LASF1169
C:\Users\CYMR90~1\AppData\Local\Temp\cchoDgth.s:29359  .debug_str:000000000001b078 .LASF1170
C:\Users\CYMR90~1\AppData\Local\Temp\cchoDgth.s:29057  .debug_str:0000000000019c18 .LASF1171
C:\Users\CYMR90~1\AppData\Local\Temp\cchoDgth.s:22752  .debug_str:0000000000000783 .LASF1172
C:\Users\CYMR90~1\AppData\Local\Temp\cchoDgth.s:28272  .debug_str:000000000001676f .LASF1173
C:\Users\CYMR90~1\AppData\Local\Temp\cchoDgth.s:22822  .debug_str:0000000000000c17 .LASF1174
C:\Users\CYMR90~1\AppData\Local\Temp\cchoDgth.s:23234  .debug_str:00000000000024cb .LASF1175
C:\Users\CYMR90~1\AppData\Local\Temp\cchoDgth.s:27488  .debug_str:00000000000136df .LASF1176
C:\Users\CYMR90~1\AppData\Local\Temp\cchoDgth.s:25826  .debug_str:000000000000cd60 .LASF1177
C:\Users\CYMR90~1\AppData\Local\Temp\cchoDgth.s:30087  .debug_str:000000000001df1c .LASF1178
C:\Users\CYMR90~1\AppData\Local\Temp\cchoDgth.s:26430  .debug_str:000000000000f302 .LASF1179
C:\Users\CYMR90~1\AppData\Local\Temp\cchoDgth.s:26000  .debug_str:000000000000d8e1 .LASF1180
C:\Users\CYMR90~1\AppData\Local\Temp\cchoDgth.s:31847  .debug_str:0000000000024acf .LASF1181
C:\Users\CYMR90~1\AppData\Local\Temp\cchoDgth.s:24844  .debug_str:0000000000008d9b .LASF1182
C:\Users\CYMR90~1\AppData\Local\Temp\cchoDgth.s:23400  .debug_str:0000000000002fa3 .LASF1183
C:\Users\CYMR90~1\AppData\Local\Temp\cchoDgth.s:30415  .debug_str:000000000001f306 .LASF1184
C:\Users\CYMR90~1\AppData\Local\Temp\cchoDgth.s:30877  .debug_str:0000000000020f2d .LASF1185
C:\Users\CYMR90~1\AppData\Local\Temp\cchoDgth.s:32093  .debug_str:0000000000025bd7 .LASF1186
C:\Users\CYMR90~1\AppData\Local\Temp\cchoDgth.s:25930  .debug_str:000000000000d3a9 .LASF1187
C:\Users\CYMR90~1\AppData\Local\Temp\cchoDgth.s:24064  .debug_str:0000000000005ac7 .LASF1188
C:\Users\CYMR90~1\AppData\Local\Temp\cchoDgth.s:31441  .debug_str:0000000000023206 .LASF1189
C:\Users\CYMR90~1\AppData\Local\Temp\cchoDgth.s:24604  .debug_str:0000000000007d0c .LASF1190
C:\Users\CYMR90~1\AppData\Local\Temp\cchoDgth.s:31421  .debug_str:0000000000023072 .LASF1191
C:\Users\CYMR90~1\AppData\Local\Temp\cchoDgth.s:25802  .debug_str:000000000000cbd2 .LASF1192
C:\Users\CYMR90~1\AppData\Local\Temp\cchoDgth.s:31079  .debug_str:0000000000021c0b .LASF1193
C:\Users\CYMR90~1\AppData\Local\Temp\cchoDgth.s:26044  .debug_str:000000000000db3a .LASF1194
C:\Users\CYMR90~1\AppData\Local\Temp\cchoDgth.s:29619  .debug_str:000000000001c089 .LASF1195
C:\Users\CYMR90~1\AppData\Local\Temp\cchoDgth.s:26984  .debug_str:00000000000114c4 .LASF1196
C:\Users\CYMR90~1\AppData\Local\Temp\cchoDgth.s:31113  .debug_str:0000000000021e38 .LASF1197
C:\Users\CYMR90~1\AppData\Local\Temp\cchoDgth.s:33323  .debug_str:000000000002aa40 .LASF1198
C:\Users\CYMR90~1\AppData\Local\Temp\cchoDgth.s:28294  .debug_str:000000000001693f .LASF1199
C:\Users\CYMR90~1\AppData\Local\Temp\cchoDgth.s:33329  .debug_str:000000000002aa75 .LASF1200
C:\Users\CYMR90~1\AppData\Local\Temp\cchoDgth.s:25288  .debug_str:000000000000a8a6 .LASF1201
C:\Users\CYMR90~1\AppData\Local\Temp\cchoDgth.s:24942  .debug_str:00000000000093bd .LASF1202
C:\Users\CYMR90~1\AppData\Local\Temp\cchoDgth.s:28495  .debug_str:00000000000177dc .LASF1203
C:\Users\CYMR90~1\AppData\Local\Temp\cchoDgth.s:32425  .debug_str:0000000000027196 .LASF1204
C:\Users\CYMR90~1\AppData\Local\Temp\cchoDgth.s:27544  .debug_str:0000000000013a68 .LASF1205
C:\Users\CYMR90~1\AppData\Local\Temp\cchoDgth.s:26598  .debug_str:000000000000fd97 .LASF1206
C:\Users\CYMR90~1\AppData\Local\Temp\cchoDgth.s:33297  .debug_str:000000000002a8da .LASF1207
C:\Users\CYMR90~1\AppData\Local\Temp\cchoDgth.s:31939  .debug_str:00000000000250d9 .LASF1208
C:\Users\CYMR90~1\AppData\Local\Temp\cchoDgth.s:26530  .debug_str:000000000000f927 .LASF1209
C:\Users\CYMR90~1\AppData\Local\Temp\cchoDgth.s:24934  .debug_str:0000000000009334 .LASF1210
C:\Users\CYMR90~1\AppData\Local\Temp\cchoDgth.s:24056  .debug_str:0000000000005a4d .LASF1211
C:\Users\CYMR90~1\AppData\Local\Temp\cchoDgth.s:24744  .debug_str:000000000000871d .LASF1212
C:\Users\CYMR90~1\AppData\Local\Temp\cchoDgth.s:24338  .debug_str:0000000000006b91 .LASF1213
C:\Users\CYMR90~1\AppData\Local\Temp\cchoDgth.s:23244  .debug_str:0000000000002587 .LASF1214
C:\Users\CYMR90~1\AppData\Local\Temp\cchoDgth.s:25080  .debug_str:0000000000009c3a .LASF1215
C:\Users\CYMR90~1\AppData\Local\Temp\cchoDgth.s:23186  .debug_str:000000000000221e .LASF1216
C:\Users\CYMR90~1\AppData\Local\Temp\cchoDgth.s:31543  .debug_str:00000000000237a3 .LASF1217
C:\Users\CYMR90~1\AppData\Local\Temp\cchoDgth.s:31557  .debug_str:0000000000023857 .LASF1218
C:\Users\CYMR90~1\AppData\Local\Temp\cchoDgth.s:31993  .debug_str:0000000000025462 .LASF1219
C:\Users\CYMR90~1\AppData\Local\Temp\cchoDgth.s:29509  .debug_str:000000000001ba20 .LASF1220
C:\Users\CYMR90~1\AppData\Local\Temp\cchoDgth.s:26086  .debug_str:000000000000ddee .LASF1221
C:\Users\CYMR90~1\AppData\Local\Temp\cchoDgth.s:27806  .debug_str:0000000000014a93 .LASF1222
C:\Users\CYMR90~1\AppData\Local\Temp\cchoDgth.s:23420  .debug_str:00000000000030db .LASF1223
C:\Users\CYMR90~1\AppData\Local\Temp\cchoDgth.s:29241  .debug_str:000000000001a8f5 .LASF1224
C:\Users\CYMR90~1\AppData\Local\Temp\cchoDgth.s:32607  .debug_str:0000000000027d40 .LASF1225
C:\Users\CYMR90~1\AppData\Local\Temp\cchoDgth.s:25562  .debug_str:000000000000bb95 .LASF1226
C:\Users\CYMR90~1\AppData\Local\Temp\cchoDgth.s:24482  .debug_str:0000000000007527 .LASF1227
C:\Users\CYMR90~1\AppData\Local\Temp\cchoDgth.s:23518  .debug_str:0000000000003743 .LASF1228
C:\Users\CYMR90~1\AppData\Local\Temp\cchoDgth.s:34005  .debug_str:000000000002d55e .LASF1229
C:\Users\CYMR90~1\AppData\Local\Temp\cchoDgth.s:33051  .debug_str:0000000000029989 .LASF1230
C:\Users\CYMR90~1\AppData\Local\Temp\cchoDgth.s:33549  .debug_str:000000000002b725 .LASF1231
C:\Users\CYMR90~1\AppData\Local\Temp\cchoDgth.s:31067  .debug_str:0000000000021b62 .LASF1232
C:\Users\CYMR90~1\AppData\Local\Temp\cchoDgth.s:30943  .debug_str:0000000000021379 .LASF1233
C:\Users\CYMR90~1\AppData\Local\Temp\cchoDgth.s:29967  .debug_str:000000000001d767 .LASF1234
C:\Users\CYMR90~1\AppData\Local\Temp\cchoDgth.s:29013  .debug_str:0000000000019923 .LASF1235
C:\Users\CYMR90~1\AppData\Local\Temp\cchoDgth.s:27704  .debug_str:000000000001443d .LASF1236
C:\Users\CYMR90~1\AppData\Local\Temp\cchoDgth.s:27068  .debug_str:0000000000011aab .LASF1237
C:\Users\CYMR90~1\AppData\Local\Temp\cchoDgth.s:28387  .debug_str:000000000001718a .LASF1238
C:\Users\CYMR90~1\AppData\Local\Temp\cchoDgth.s:25154  .debug_str:000000000000a08e .LASF1239
C:\Users\CYMR90~1\AppData\Local\Temp\cchoDgth.s:24162  .debug_str:0000000000006099 .LASF1240
C:\Users\CYMR90~1\AppData\Local\Temp\cchoDgth.s:23202  .debug_str:000000000000230a .LASF1241
C:\Users\CYMR90~1\AppData\Local\Temp\cchoDgth.s:33717  .debug_str:000000000002c243 .LASF1242
C:\Users\CYMR90~1\AppData\Local\Temp\cchoDgth.s:22718  .debug_str:0000000000000563 .LASF1243
C:\Users\CYMR90~1\AppData\Local\Temp\cchoDgth.s:33193  .debug_str:000000000002a28a .LASF1244
C:\Users\CYMR90~1\AppData\Local\Temp\cchoDgth.s:32207  .debug_str:0000000000026426 .LASF1245
C:\Users\CYMR90~1\AppData\Local\Temp\cchoDgth.s:31221  .debug_str:00000000000224ad .LASF1246
C:\Users\CYMR90~1\AppData\Local\Temp\cchoDgth.s:30213  .debug_str:000000000001e741 .LASF1247
C:\Users\CYMR90~1\AppData\Local\Temp\cchoDgth.s:29301  .debug_str:000000000001acae .LASF1248
C:\Users\CYMR90~1\AppData\Local\Temp\cchoDgth.s:28340  .debug_str:0000000000016c45 .LASF1249
C:\Users\CYMR90~1\AppData\Local\Temp\cchoDgth.s:28511  .debug_str:00000000000178de .LASF1250
C:\Users\CYMR90~1\AppData\Local\Temp\cchoDgth.s:26440  .debug_str:000000000000f376 .LASF1251
C:\Users\CYMR90~1\AppData\Local\Temp\cchoDgth.s:28609  .debug_str:0000000000017f12 .LASF1252
C:\Users\CYMR90~1\AppData\Local\Temp\cchoDgth.s:25940  .debug_str:000000000000d459 .LASF1253
C:\Users\CYMR90~1\AppData\Local\Temp\cchoDgth.s:24956  .debug_str:000000000000948c .LASF1254
C:\Users\CYMR90~1\AppData\Local\Temp\cchoDgth.s:22968  .debug_str:0000000000001511 .LASF1255
C:\Users\CYMR90~1\AppData\Local\Temp\cchoDgth.s:25856  .debug_str:000000000000cef7 .LASF1256
C:\Users\CYMR90~1\AppData\Local\Temp\cchoDgth.s:24118  .debug_str:0000000000005e4d .LASF1257
C:\Users\CYMR90~1\AppData\Local\Temp\cchoDgth.s:28881  .debug_str:0000000000019066 .LASF1258
C:\Users\CYMR90~1\AppData\Local\Temp\cchoDgth.s:28883  .debug_str:0000000000019079 .LASF1259
C:\Users\CYMR90~1\AppData\Local\Temp\cchoDgth.s:31425  .debug_str:00000000000230a2 .LASF1260
C:\Users\CYMR90~1\AppData\Local\Temp\cchoDgth.s:29503  .debug_str:000000000001b9d9 .LASF1261
C:\Users\CYMR90~1\AppData\Local\Temp\cchoDgth.s:26870  .debug_str:0000000000010e8d .LASF1262
C:\Users\CYMR90~1\AppData\Local\Temp\cchoDgth.s:24014  .debug_str:00000000000057c2 .LASF1263
C:\Users\CYMR90~1\AppData\Local\Temp\cchoDgth.s:26172  .debug_str:000000000000e350 .LASF1264
C:\Users\CYMR90~1\AppData\Local\Temp\cchoDgth.s:28364  .debug_str:0000000000016e6c .LASF1265
C:\Users\CYMR90~1\AppData\Local\Temp\cchoDgth.s:26222  .debug_str:000000000000e648 .LASF1266
C:\Users\CYMR90~1\AppData\Local\Temp\cchoDgth.s:31453  .debug_str:00000000000232c2 .LASF1267
C:\Users\CYMR90~1\AppData\Local\Temp\cchoDgth.s:31637  .debug_str:0000000000023d5d .LASF1268
C:\Users\CYMR90~1\AppData\Local\Temp\cchoDgth.s:27004  .debug_str:00000000000115e1 .LASF1269
C:\Users\CYMR90~1\AppData\Local\Temp\cchoDgth.s:33769  .debug_str:000000000002c56b .LASF1270
C:\Users\CYMR90~1\AppData\Local\Temp\cchoDgth.s:28611  .debug_str:0000000000017f29 .LASF1271
C:\Users\CYMR90~1\AppData\Local\Temp\cchoDgth.s:33157  .debug_str:000000000002a078 .LASF1272
C:\Users\CYMR90~1\AppData\Local\Temp\cchoDgth.s:30089  .debug_str:000000000001df29 .LASF1273
C:\Users\CYMR90~1\AppData\Local\Temp\cchoDgth.s:22780  .debug_str:000000000000093b .LASF1274
C:\Users\CYMR90~1\AppData\Local\Temp\cchoDgth.s:28891  .debug_str:00000000000190fc .LASF1275
C:\Users\CYMR90~1\AppData\Local\Temp\cchoDgth.s:22892  .debug_str:00000000000010a0 .LASF1276
C:\Users\CYMR90~1\AppData\Local\Temp\cchoDgth.s:25178  .debug_str:000000000000a24a .LASF1277
C:\Users\CYMR90~1\AppData\Local\Temp\cchoDgth.s:24180  .debug_str:00000000000061d6 .LASF1278
C:\Users\CYMR90~1\AppData\Local\Temp\cchoDgth.s:23232  .debug_str:00000000000024b9 .LASF1279
C:\Users\CYMR90~1\AppData\Local\Temp\cchoDgth.s:33737  .debug_str:000000000002c34d .LASF1280
C:\Users\CYMR90~1\AppData\Local\Temp\cchoDgth.s:24076  .debug_str:0000000000005b92 .LASF1281
C:\Users\CYMR90~1\AppData\Local\Temp\cchoDgth.s:23120  .debug_str:0000000000001e74 .LASF1282
C:\Users\CYMR90~1\AppData\Local\Temp\cchoDgth.s:30255  .debug_str:000000000001e9d4 .LASF1283
C:\Users\CYMR90~1\AppData\Local\Temp\cchoDgth.s:32641  .debug_str:0000000000027f05 .LASF1284
C:\Users\CYMR90~1\AppData\Local\Temp\cchoDgth.s:31661  .debug_str:0000000000023f13 .LASF1285
C:\Users\CYMR90~1\AppData\Local\Temp\cchoDgth.s:30649  .debug_str:000000000002017d .LASF1286
C:\Users\CYMR90~1\AppData\Local\Temp\cchoDgth.s:29685  .debug_str:000000000001c48f .LASF1287
C:\Users\CYMR90~1\AppData\Local\Temp\cchoDgth.s:28719  .debug_str:00000000000185a5 .LASF1288
C:\Users\CYMR90~1\AppData\Local\Temp\cchoDgth.s:27746  .debug_str:00000000000146b9 .LASF1289
C:\Users\CYMR90~1\AppData\Local\Temp\cchoDgth.s:26794  .debug_str:000000000001098e .LASF1290
C:\Users\CYMR90~1\AppData\Local\Temp\cchoDgth.s:31171  .debug_str:00000000000221c0 .LASF1291
C:\Users\CYMR90~1\AppData\Local\Temp\cchoDgth.s:30161  .debug_str:000000000001e43d .LASF1292
C:\Users\CYMR90~1\AppData\Local\Temp\cchoDgth.s:29239  .debug_str:000000000001a8e1 .LASF1293
C:\Users\CYMR90~1\AppData\Local\Temp\cchoDgth.s:28226  .debug_str:00000000000164f0 .LASF1294
C:\Users\CYMR90~1\AppData\Local\Temp\cchoDgth.s:27298  .debug_str:00000000000129bf .LASF1295
C:\Users\CYMR90~1\AppData\Local\Temp\cchoDgth.s:26330  .debug_str:000000000000ed4d .LASF1296
C:\Users\CYMR90~1\AppData\Local\Temp\cchoDgth.s:25700  .debug_str:000000000000c55a .LASF1297
C:\Users\CYMR90~1\AppData\Local\Temp\cchoDgth.s:30617  .debug_str:000000000001ff8a .LASF1298
C:\Users\CYMR90~1\AppData\Local\Temp\cchoDgth.s:29657  .debug_str:000000000001c2d9 .LASF1299
C:\Users\CYMR90~1\AppData\Local\Temp\cchoDgth.s:22976  .debug_str:0000000000001580 .LASF1300
C:\Users\CYMR90~1\AppData\Local\Temp\cchoDgth.s:29631  .debug_str:000000000001c15d .LASF1301
C:\Users\CYMR90~1\AppData\Local\Temp\cchoDgth.s:30873  .debug_str:0000000000020f0a .LASF1302
C:\Users\CYMR90~1\AppData\Local\Temp\cchoDgth.s:28270  .debug_str:000000000001675c .LASF1303
C:\Users\CYMR90~1\AppData\Local\Temp\cchoDgth.s:29157  .debug_str:000000000001a28e .LASF1304
C:\Users\CYMR90~1\AppData\Local\Temp\cchoDgth.s:29127  .debug_str:000000000001a0e3 .LASF1305
C:\Users\CYMR90~1\AppData\Local\Temp\cchoDgth.s:24848  .debug_str:0000000000008dcf .LASF1306
C:\Users\CYMR90~1\AppData\Local\Temp\cchoDgth.s:23850  .debug_str:0000000000004dce .LASF1307
C:\Users\CYMR90~1\AppData\Local\Temp\cchoDgth.s:22906  .debug_str:0000000000001158 .LASF1308
C:\Users\CYMR90~1\AppData\Local\Temp\cchoDgth.s:33397  .debug_str:000000000002aea4 .LASF1309
C:\Users\CYMR90~1\AppData\Local\Temp\cchoDgth.s:32421  .debug_str:000000000002715b .LASF1310
C:\Users\CYMR90~1\AppData\Local\Temp\cchoDgth.s:31429  .debug_str:00000000000230d0 .LASF1311
C:\Users\CYMR90~1\AppData\Local\Temp\cchoDgth.s:27616  .debug_str:0000000000013eab .LASF1312
C:\Users\CYMR90~1\AppData\Local\Temp\cchoDgth.s:26184  .debug_str:000000000000e409 .LASF1313
C:\Users\CYMR90~1\AppData\Local\Temp\cchoDgth.s:27460  .debug_str:0000000000013480 .LASF1314
C:\Users\CYMR90~1\AppData\Local\Temp\cchoDgth.s:33613  .debug_str:000000000002bb65 .LASF1315
C:\Users\CYMR90~1\AppData\Local\Temp\cchoDgth.s:32135  .debug_str:0000000000025efa .LASF1316
C:\Users\CYMR90~1\AppData\Local\Temp\cchoDgth.s:31653  .debug_str:0000000000023e77 .LASF1317
C:\Users\CYMR90~1\AppData\Local\Temp\cchoDgth.s:30641  .debug_str:0000000000020110 .LASF1318
C:\Users\CYMR90~1\AppData\Local\Temp\cchoDgth.s:29463  .debug_str:000000000001b76f .LASF1319
C:\Users\CYMR90~1\AppData\Local\Temp\cchoDgth.s:28729  .debug_str:0000000000018653 .LASF1320
C:\Users\CYMR90~1\AppData\Local\Temp\cchoDgth.s:27756  .debug_str:000000000001472f .LASF1321
C:\Users\CYMR90~1\AppData\Local\Temp\cchoDgth.s:26802  .debug_str:0000000000010a0f .LASF1322
C:\Users\CYMR90~1\AppData\Local\Temp\cchoDgth.s:27270  .debug_str:00000000000127e6 .LASF1323
C:\Users\CYMR90~1\AppData\Local\Temp\cchoDgth.s:25704  .debug_str:000000000000c57f .LASF1324
C:\Users\CYMR90~1\AppData\Local\Temp\cchoDgth.s:25338  .debug_str:000000000000acb0 .LASF1325
C:\Users\CYMR90~1\AppData\Local\Temp\cchoDgth.s:24346  .debug_str:0000000000006c2d .LASF1326
C:\Users\CYMR90~1\AppData\Local\Temp\cchoDgth.s:23378  .debug_str:0000000000002e4e .LASF1327
C:\Users\CYMR90~1\AppData\Local\Temp\cchoDgth.s:33887  .debug_str:000000000002cd95 .LASF1328
C:\Users\CYMR90~1\AppData\Local\Temp\cchoDgth.s:32965  .debug_str:0000000000029459 .LASF1329
C:\Users\CYMR90~1\AppData\Local\Temp\cchoDgth.s:31973  .debug_str:00000000000252f4 .LASF1330
C:\Users\CYMR90~1\AppData\Local\Temp\cchoDgth.s:30989  .debug_str:000000000002162e .LASF1331
C:\Users\CYMR90~1\AppData\Local\Temp\cchoDgth.s:29997  .debug_str:000000000001d950 .LASF1332
C:\Users\CYMR90~1\AppData\Local\Temp\cchoDgth.s:30437  .debug_str:000000000001f4a0 .LASF1333
C:\Users\CYMR90~1\AppData\Local\Temp\cchoDgth.s:29517  .debug_str:000000000001ba9c .LASF1334
C:\Users\CYMR90~1\AppData\Local\Temp\cchoDgth.s:28188  .debug_str:0000000000016299 .LASF1335
C:\Users\CYMR90~1\AppData\Local\Temp\cchoDgth.s:25852  .debug_str:000000000000cecc .LASF1336
C:\Users\CYMR90~1\AppData\Local\Temp\cchoDgth.s:30657  .debug_str:00000000000201dc .LASF1337
C:\Users\CYMR90~1\AppData\Local\Temp\cchoDgth.s:27152  .debug_str:0000000000012050 .LASF1338
C:\Users\CYMR90~1\AppData\Local\Temp\cchoDgth.s:23016  .debug_str:00000000000017a3 .LASF1339
C:\Users\CYMR90~1\AppData\Local\Temp\cchoDgth.s:31063  .debug_str:0000000000021b1d .LASF1340
C:\Users\CYMR90~1\AppData\Local\Temp\cchoDgth.s:24134  .debug_str:0000000000005f1b .LASF1341
C:\Users\CYMR90~1\AppData\Local\Temp\cchoDgth.s:23172  .debug_str:0000000000002167 .LASF1342
C:\Users\CYMR90~1\AppData\Local\Temp\cchoDgth.s:33693  .debug_str:000000000002c089 .LASF1343
C:\Users\CYMR90~1\AppData\Local\Temp\cchoDgth.s:33483  .debug_str:000000000002b35b .LASF1344
C:\Users\CYMR90~1\AppData\Local\Temp\cchoDgth.s:32505  .debug_str:0000000000027661 .LASF1345
C:\Users\CYMR90~1\AppData\Local\Temp\cchoDgth.s:31521  .debug_str:0000000000023696 .LASF1346
C:\Users\CYMR90~1\AppData\Local\Temp\cchoDgth.s:32917  .debug_str:00000000000291ac .LASF1347
C:\Users\CYMR90~1\AppData\Local\Temp\cchoDgth.s:29561  .debug_str:000000000001bd40 .LASF1348
C:\Users\CYMR90~1\AppData\Local\Temp\cchoDgth.s:30079  .debug_str:000000000001de9b .LASF1349
C:\Users\CYMR90~1\AppData\Local\Temp\cchoDgth.s:27630  .debug_str:0000000000013f8e .LASF1350
C:\Users\CYMR90~1\AppData\Local\Temp\cchoDgth.s:30803  .debug_str:0000000000020b08 .LASF1351
C:\Users\CYMR90~1\AppData\Local\Temp\cchoDgth.s:25716  .debug_str:000000000000c64b .LASF1352
C:\Users\CYMR90~1\AppData\Local\Temp\cchoDgth.s:24646  .debug_str:0000000000008022 .LASF1353
C:\Users\CYMR90~1\AppData\Local\Temp\cchoDgth.s:25210  .debug_str:000000000000a456 .LASF1354
C:\Users\CYMR90~1\AppData\Local\Temp\cchoDgth.s:24210  .debug_str:00000000000063dc .LASF1355
C:\Users\CYMR90~1\AppData\Local\Temp\cchoDgth.s:23256  .debug_str:0000000000002631 .LASF1356
C:\Users\CYMR90~1\AppData\Local\Temp\cchoDgth.s:33765  .debug_str:000000000002c54b .LASF1357
C:\Users\CYMR90~1\AppData\Local\Temp\cchoDgth.s:27716  .debug_str:0000000000014505 .LASF1358
C:\Users\CYMR90~1\AppData\Local\Temp\cchoDgth.s:24340  .debug_str:0000000000006bd5 .LASF1359
C:\Users\CYMR90~1\AppData\Local\Temp\cchoDgth.s:30851  .debug_str:0000000000020dee .LASF1360
C:\Users\CYMR90~1\AppData\Local\Temp\cchoDgth.s:29789  .debug_str:000000000001cabf .LASF1361
C:\Users\CYMR90~1\AppData\Local\Temp\cchoDgth.s:28823  .debug_str:0000000000018bfd .LASF1362
C:\Users\CYMR90~1\AppData\Local\Temp\cchoDgth.s:32927  .debug_str:000000000002923d .LASF1363
C:\Users\CYMR90~1\AppData\Local\Temp\cchoDgth.s:28106  .debug_str:0000000000015cd1 .LASF1364
C:\Users\CYMR90~1\AppData\Local\Temp\cchoDgth.s:24762  .debug_str:000000000000883b .LASF1365
C:\Users\CYMR90~1\AppData\Local\Temp\cchoDgth.s:32533  .debug_str:000000000002780d .LASF1366
C:\Users\CYMR90~1\AppData\Local\Temp\cchoDgth.s:25836  .debug_str:000000000000cde2 .LASF1367
C:\Users\CYMR90~1\AppData\Local\Temp\cchoDgth.s:30739  .debug_str:00000000000206fd .LASF1368
C:\Users\CYMR90~1\AppData\Local\Temp\cchoDgth.s:28987  .debug_str:0000000000019766 .LASF1369
C:\Users\CYMR90~1\AppData\Local\Temp\cchoDgth.s:33651  .debug_str:000000000002bdac .LASF1370
C:\Users\CYMR90~1\AppData\Local\Temp\cchoDgth.s:30007  .debug_str:000000000001d9db .LASF1371
C:\Users\CYMR90~1\AppData\Local\Temp\cchoDgth.s:23296  .debug_str:0000000000002911 .LASF1372
C:\Users\CYMR90~1\AppData\Local\Temp\cchoDgth.s:25894  .debug_str:000000000000d149 .LASF1373
C:\Users\CYMR90~1\AppData\Local\Temp\cchoDgth.s:29033  .debug_str:0000000000019a3c .LASF1374
C:\Users\CYMR90~1\AppData\Local\Temp\cchoDgth.s:32197  .debug_str:000000000002637b .LASF1375
C:\Users\CYMR90~1\AppData\Local\Temp\cchoDgth.s:23880  .debug_str:0000000000004f9f .LASF1376
C:\Users\CYMR90~1\AppData\Local\Temp\cchoDgth.s:27054  .debug_str:0000000000011913 .LASF1377
C:\Users\CYMR90~1\AppData\Local\Temp\cchoDgth.s:30169  .debug_str:000000000001e4b3 .LASF1378
C:\Users\CYMR90~1\AppData\Local\Temp\cchoDgth.s:33393  .debug_str:000000000002ae67 .LASF1379
C:\Users\CYMR90~1\AppData\Local\Temp\cchoDgth.s:33357  .debug_str:000000000002ac1f .LASF1380
C:\Users\CYMR90~1\AppData\Local\Temp\cchoDgth.s:24966  .debug_str:000000000000951b .LASF1381
C:\Users\CYMR90~1\AppData\Local\Temp\cchoDgth.s:28076  .debug_str:0000000000015b1c .LASF1382
C:\Users\CYMR90~1\AppData\Local\Temp\cchoDgth.s:31267  .debug_str:0000000000022759 .LASF1383
C:\Users\CYMR90~1\AppData\Local\Temp\cchoDgth.s:22986  .debug_str:00000000000015ea .LASF1384
C:\Users\CYMR90~1\AppData\Local\Temp\cchoDgth.s:26154  .debug_str:000000000000e24e .LASF1385
C:\Users\CYMR90~1\AppData\Local\Temp\cchoDgth.s:29335  .debug_str:000000000001aed8 .LASF1386
C:\Users\CYMR90~1\AppData\Local\Temp\cchoDgth.s:32495  .debug_str:00000000000275a0 .LASF1387
C:\Users\CYMR90~1\AppData\Local\Temp\cchoDgth.s:24168  .debug_str:00000000000060fc .LASF1388
C:\Users\CYMR90~1\AppData\Local\Temp\cchoDgth.s:27254  .debug_str:00000000000126d8 .LASF1389
C:\Users\CYMR90~1\AppData\Local\Temp\cchoDgth.s:26604  .debug_str:000000000000fddd .LASF1390
C:\Users\CYMR90~1\AppData\Local\Temp\cchoDgth.s:29639  .debug_str:000000000001c1ed .LASF1391
C:\Users\CYMR90~1\AppData\Local\Temp\cchoDgth.s:32829  .debug_str:0000000000028c14 .LASF1392
C:\Users\CYMR90~1\AppData\Local\Temp\cchoDgth.s:24520  .debug_str:0000000000007768 .LASF1393
C:\Users\CYMR90~1\AppData\Local\Temp\cchoDgth.s:27656  .debug_str:000000000001410a .LASF1394
C:\Users\CYMR90~1\AppData\Local\Temp\cchoDgth.s:30817  .debug_str:0000000000020be6 .LASF1395
C:\Users\CYMR90~1\AppData\Local\Temp\cchoDgth.s:34063  .debug_str:000000000002d8c3 .LASF1396
C:\Users\CYMR90~1\AppData\Local\Temp\cchoDgth.s:31507  .debug_str:00000000000235bd .LASF1397
C:\Users\CYMR90~1\AppData\Local\Temp\cchoDgth.s:28907  .debug_str:00000000000191ff .LASF1398
C:\Users\CYMR90~1\AppData\Local\Temp\cchoDgth.s:26958  .debug_str:0000000000011339 .LASF1399
C:\Users\CYMR90~1\AppData\Local\Temp\cchoDgth.s:28252  .debug_str:000000000001666e .LASF1400
C:\Users\CYMR90~1\AppData\Local\Temp\cchoDgth.s:22940  .debug_str:000000000000135d .LASF1401
C:\Users\CYMR90~1\AppData\Local\Temp\cchoDgth.s:30723  .debug_str:0000000000020637 .LASF1402
C:\Users\CYMR90~1\AppData\Local\Temp\cchoDgth.s:25604  .debug_str:000000000000be60 .LASF1403
C:\Users\CYMR90~1\AppData\Local\Temp\cchoDgth.s:30487  .debug_str:000000000001f7c7 .LASF1404
C:\Users\CYMR90~1\AppData\Local\Temp\cchoDgth.s:23660  .debug_str:000000000000409d .LASF1405
C:\Users\CYMR90~1\AppData\Local\Temp\cchoDgth.s:33319  .debug_str:000000000002a9f0 .LASF1406
C:\Users\CYMR90~1\AppData\Local\Temp\cchoDgth.s:31475  .debug_str:00000000000233ed .LASF1407
C:\Users\CYMR90~1\AppData\Local\Temp\cchoDgth.s:31641  .debug_str:0000000000023d8f .LASF1408
C:\Users\CYMR90~1\AppData\Local\Temp\cchoDgth.s:23328  .debug_str:0000000000002b0c .LASF1409
C:\Users\CYMR90~1\AppData\Local\Temp\cchoDgth.s:26512  .debug_str:000000000000f813 .LASF1410
C:\Users\CYMR90~1\AppData\Local\Temp\cchoDgth.s:33067  .debug_str:0000000000029a80 .LASF1411
C:\Users\CYMR90~1\AppData\Local\Temp\cchoDgth.s:26814  .debug_str:0000000000010ab2 .LASF1412
C:\Users\CYMR90~1\AppData\Local\Temp\cchoDgth.s:27874  .debug_str:0000000000014ea9 .LASF1413
C:\Users\CYMR90~1\AppData\Local\Temp\cchoDgth.s:31047  .debug_str:0000000000021a27 .LASF1414
C:\Users\CYMR90~1\AppData\Local\Temp\cchoDgth.s:22782  .debug_str:000000000000094e .LASF1415
C:\Users\CYMR90~1\AppData\Local\Temp\cchoDgth.s:25862  .debug_str:000000000000cf34 .LASF1416
C:\Users\CYMR90~1\AppData\Local\Temp\cchoDgth.s:29011  .debug_str:000000000001990a .LASF1417
C:\Users\CYMR90~1\AppData\Local\Temp\cchoDgth.s:30551  .debug_str:000000000001fb74 .LASF1418
C:\Users\CYMR90~1\AppData\Local\Temp\cchoDgth.s:23858  .debug_str:0000000000004e38 .LASF1419
C:\Users\CYMR90~1\AppData\Local\Temp\cchoDgth.s:26944  .debug_str:000000000001125a .LASF1420
C:\Users\CYMR90~1\AppData\Local\Temp\cchoDgth.s:26284  .debug_str:000000000000ea64 .LASF1421
C:\Users\CYMR90~1\AppData\Local\Temp\cchoDgth.s:29449  .debug_str:000000000001b69b .LASF1422
C:\Users\CYMR90~1\AppData\Local\Temp\cchoDgth.s:32605  .debug_str:0000000000027d27 .LASF1423
C:\Users\CYMR90~1\AppData\Local\Temp\cchoDgth.s:23404  .debug_str:0000000000002fdc .LASF1424
C:\Users\CYMR90~1\AppData\Local\Temp\cchoDgth.s:27464  .debug_str:00000000000134ae .LASF1425
C:\Users\CYMR90~1\AppData\Local\Temp\cchoDgth.s:30479  .debug_str:000000000001f72e .LASF1426
C:\Users\CYMR90~1\AppData\Local\Temp\cchoDgth.s:33775  .debug_str:000000000002c63e .LASF1427
C:\Users\CYMR90~1\AppData\Local\Temp\cchoDgth.s:25476  .debug_str:000000000000b5e3 .LASF1428
C:\Users\CYMR90~1\AppData\Local\Temp\cchoDgth.s:28587  .debug_str:0000000000017dcd .LASF1429
C:\Users\CYMR90~1\AppData\Local\Temp\cchoDgth.s:31773  .debug_str:0000000000024551 .LASF1430
C:\Users\CYMR90~1\AppData\Local\Temp\cchoDgth.s:30489  .debug_str:000000000001f7df .LASF1431
C:\Users\CYMR90~1\AppData\Local\Temp\cchoDgth.s:22740  .debug_str:00000000000006c7 .LASF1432
C:\Users\CYMR90~1\AppData\Local\Temp\cchoDgth.s:31727  .debug_str:00000000000242bd .LASF1433
C:\Users\CYMR90~1\AppData\Local\Temp\cchoDgth.s:30727  .debug_str:0000000000020661 .LASF1434
C:\Users\CYMR90~1\AppData\Local\Temp\cchoDgth.s:29755  .debug_str:000000000001c8ac .LASF1435
C:\Users\CYMR90~1\AppData\Local\Temp\cchoDgth.s:28791  .debug_str:0000000000018a09 .LASF1436
C:\Users\CYMR90~1\AppData\Local\Temp\cchoDgth.s:28210  .debug_str:000000000001640f .LASF1437
C:\Users\CYMR90~1\AppData\Local\Temp\cchoDgth.s:32639  .debug_str:0000000000027ef1 .LASF1438
C:\Users\CYMR90~1\AppData\Local\Temp\cchoDgth.s:31659  .debug_str:0000000000023eff .LASF1439
C:\Users\CYMR90~1\AppData\Local\Temp\cchoDgth.s:30647  .debug_str:0000000000020169 .LASF1440
C:\Users\CYMR90~1\AppData\Local\Temp\cchoDgth.s:29683  .debug_str:000000000001c47b .LASF1441
C:\Users\CYMR90~1\AppData\Local\Temp\cchoDgth.s:28717  .debug_str:0000000000018591 .LASF1442
C:\Users\CYMR90~1\AppData\Local\Temp\cchoDgth.s:27744  .debug_str:00000000000146a5 .LASF1443
C:\Users\CYMR90~1\AppData\Local\Temp\cchoDgth.s:26792  .debug_str:000000000001097a .LASF1444
C:\Users\CYMR90~1\AppData\Local\Temp\cchoDgth.s:33733  .debug_str:000000000002c315 .LASF1445
C:\Users\CYMR90~1\AppData\Local\Temp\cchoDgth.s:24856  .debug_str:0000000000008e3d .LASF1446
C:\Users\CYMR90~1\AppData\Local\Temp\cchoDgth.s:26420  .debug_str:000000000000f26a .LASF1447
C:\Users\CYMR90~1\AppData\Local\Temp\cchoDgth.s:32009  .debug_str:000000000002555b .LASF1448
C:\Users\CYMR90~1\AppData\Local\Temp\cchoDgth.s:31025  .debug_str:0000000000021832 .LASF1449
C:\Users\CYMR90~1\AppData\Local\Temp\cchoDgth.s:30019  .debug_str:000000000001daf8 .LASF1450
C:\Users\CYMR90~1\AppData\Local\Temp\cchoDgth.s:29079  .debug_str:0000000000019df3 .LASF1451
C:\Users\CYMR90~1\AppData\Local\Temp\cchoDgth.s:28074  .debug_str:0000000000015b07 .LASF1452
C:\Users\CYMR90~1\AppData\Local\Temp\cchoDgth.s:25474  .debug_str:000000000000b5d0 .LASF1453
C:\Users\CYMR90~1\AppData\Local\Temp\cchoDgth.s:24082  .debug_str:0000000000005be8 .LASF1454
C:\Users\CYMR90~1\AppData\Local\Temp\cchoDgth.s:25270  .debug_str:000000000000a7bb .LASF1455
C:\Users\CYMR90~1\AppData\Local\Temp\cchoDgth.s:30391  .debug_str:000000000001f1ba .LASF1456
C:\Users\CYMR90~1\AppData\Local\Temp\cchoDgth.s:32069  .debug_str:00000000000259bc .LASF1457
C:\Users\CYMR90~1\AppData\Local\Temp\cchoDgth.s:23824  .debug_str:0000000000004c23 .LASF1458
C:\Users\CYMR90~1\AppData\Local\Temp\cchoDgth.s:30473  .debug_str:000000000001f6e0 .LASF1459
C:\Users\CYMR90~1\AppData\Local\Temp\cchoDgth.s:27276  .debug_str:000000000001283d .LASF1460
C:\Users\CYMR90~1\AppData\Local\Temp\cchoDgth.s:25376  .debug_str:000000000000af27 .LASF1461
C:\Users\CYMR90~1\AppData\Local\Temp\cchoDgth.s:26564  .debug_str:000000000000fbc2 .LASF1462
C:\Users\CYMR90~1\AppData\Local\Temp\cchoDgth.s:27060  .debug_str:00000000000119ee .LASF1463
C:\Users\CYMR90~1\AppData\Local\Temp\cchoDgth.s:28138  .debug_str:0000000000015ef3 .LASF1464
C:\Users\CYMR90~1\AppData\Local\Temp\cchoDgth.s:33509  .debug_str:000000000002b506 .LASF1465
C:\Users\CYMR90~1\AppData\Local\Temp\cchoDgth.s:29349  .debug_str:000000000001afee .LASF1466
C:\Users\CYMR90~1\AppData\Local\Temp\cchoDgth.s:27748  .debug_str:00000000000146cc .LASF1467
C:\Users\CYMR90~1\AppData\Local\Temp\cchoDgth.s:32525  .debug_str:0000000000027796 .LASF1468
C:\Users\CYMR90~1\AppData\Local\Temp\cchoDgth.s:26736  .debug_str:000000000001061b .LASF1469
C:\Users\CYMR90~1\AppData\Local\Temp\cchoDgth.s:25818  .debug_str:000000000000ccdc .LASF1470
C:\Users\CYMR90~1\AppData\Local\Temp\cchoDgth.s:27030  .debug_str:000000000001179b .LASF1471
C:\Users\CYMR90~1\AppData\Local\Temp\cchoDgth.s:28613  .debug_str:0000000000017f3c .LASF1472
C:\Users\CYMR90~1\AppData\Local\Temp\cchoDgth.s:31963  .debug_str:0000000000025252 .LASF1473
C:\Users\CYMR90~1\AppData\Local\Temp\cchoDgth.s:32611  .debug_str:0000000000027d78 .LASF1474
C:\Users\CYMR90~1\AppData\Local\Temp\cchoDgth.s:22832  .debug_str:0000000000000c90 .LASF1475
C:\Users\CYMR90~1\AppData\Local\Temp\cchoDgth.s:24752  .debug_str:00000000000087ac .LASF1476
C:\Users\CYMR90~1\AppData\Local\Temp\cchoDgth.s:23356  .debug_str:0000000000002ceb .LASF1477
C:\Users\CYMR90~1\AppData\Local\Temp\cchoDgth.s:32795  .debug_str:000000000002895d .LASF1478
C:\Users\CYMR90~1\AppData\Local\Temp\cchoDgth.s:31811  .debug_str:000000000002484b .LASF1479
C:\Users\CYMR90~1\AppData\Local\Temp\cchoDgth.s:23484  .debug_str:0000000000003518 .LASF1480
C:\Users\CYMR90~1\AppData\Local\Temp\cchoDgth.s:25724  .debug_str:000000000000c6a7 .LASF1481
C:\Users\CYMR90~1\AppData\Local\Temp\cchoDgth.s:31931  .debug_str:0000000000025070 .LASF1482
C:\Users\CYMR90~1\AppData\Local\Temp\cchoDgth.s:25054  .debug_str:0000000000009acc .LASF1483
C:\Users\CYMR90~1\AppData\Local\Temp\cchoDgth.s:23864  .debug_str:0000000000004e91 .LASF1484
C:\Users\CYMR90~1\AppData\Local\Temp\cchoDgth.s:26294  .debug_str:000000000000eb06 .LASF1485
C:\Users\CYMR90~1\AppData\Local\Temp\cchoDgth.s:27714  .debug_str:00000000000144f2 .LASF1486
C:\Users\CYMR90~1\AppData\Local\Temp\cchoDgth.s:29331  .debug_str:000000000001aea9 .LASF1487
C:\Users\CYMR90~1\AppData\Local\Temp\cchoDgth.s:22666  .debug_str:0000000000000246 .LASF1488
C:\Users\CYMR90~1\AppData\Local\Temp\cchoDgth.s:28092  .debug_str:0000000000015c04 .LASF1489
C:\Users\CYMR90~1\AppData\Local\Temp\cchoDgth.s:26092  .debug_str:000000000000de2c .LASF1490
C:\Users\CYMR90~1\AppData\Local\Temp\cchoDgth.s:33033  .debug_str:0000000000029899 .LASF1491
C:\Users\CYMR90~1\AppData\Local\Temp\cchoDgth.s:23322  .debug_str:0000000000002aa5 .LASF1492
C:\Users\CYMR90~1\AppData\Local\Temp\cchoDgth.s:30975  .debug_str:000000000002152a .LASF1493
C:\Users\CYMR90~1\AppData\Local\Temp\cchoDgth.s:33249  .debug_str:000000000002a5f4 .LASF1494
C:\Users\CYMR90~1\AppData\Local\Temp\cchoDgth.s:24508  .debug_str:00000000000076cf .LASF1495
C:\Users\CYMR90~1\AppData\Local\Temp\cchoDgth.s:32289  .debug_str:0000000000026931 .LASF1496
C:\Users\CYMR90~1\AppData\Local\Temp\cchoDgth.s:33005  .debug_str:00000000000296df .LASF1497
C:\Users\CYMR90~1\AppData\Local\Temp\cchoDgth.s:24300  .debug_str:0000000000006914 .LASF1498
C:\Users\CYMR90~1\AppData\Local\Temp\cchoDgth.s:25152  .debug_str:000000000000a075 .LASF1499
C:\Users\CYMR90~1\AppData\Local\Temp\cchoDgth.s:33937  .debug_str:000000000002d0d0 .LASF1500
C:\Users\CYMR90~1\AppData\Local\Temp\cchoDgth.s:33167  .debug_str:000000000002a105 .LASF1501
C:\Users\CYMR90~1\AppData\Local\Temp\cchoDgth.s:30861  .debug_str:0000000000020e6f .LASF1502
C:\Users\CYMR90~1\AppData\Local\Temp\cchoDgth.s:24280  .debug_str:00000000000067e1 .LASF1503
C:\Users\CYMR90~1\AppData\Local\Temp\cchoDgth.s:33251  .debug_str:000000000002a602 .LASF1504
C:\Users\CYMR90~1\AppData\Local\Temp\cchoDgth.s:30225  .debug_str:000000000001e7ef .LASF1505
C:\Users\CYMR90~1\AppData\Local\Temp\cchoDgth.s:29539  .debug_str:000000000001bc01 .LASF1506
C:\Users\CYMR90~1\AppData\Local\Temp\cchoDgth.s:25530  .debug_str:000000000000b9aa .LASF1507
C:\Users\CYMR90~1\AppData\Local\Temp\cchoDgth.s:31081  .debug_str:0000000000021c16 .LASF1508
C:\Users\CYMR90~1\AppData\Local\Temp\cchoDgth.s:27218  .debug_str:0000000000012477 .LASF1509
C:\Users\CYMR90~1\AppData\Local\Temp\cchoDgth.s:32903  .debug_str:0000000000029100 .LASF1510
C:\Users\CYMR90~1\AppData\Local\Temp\cchoDgth.s:31673  .debug_str:0000000000023fb9 .LASF1511
C:\Users\CYMR90~1\AppData\Local\Temp\cchoDgth.s:23528  .debug_str:00000000000037ee .LASF1512
C:\Users\CYMR90~1\AppData\Local\Temp\cchoDgth.s:28160  .debug_str:00000000000160bc .LASF1513
C:\Users\CYMR90~1\AppData\Local\Temp\cchoDgth.s:32095  .debug_str:0000000000025beb .LASF1514
C:\Users\CYMR90~1\AppData\Local\Temp\cchoDgth.s:30447  .debug_str:000000000001f56d .LASF1515
C:\Users\CYMR90~1\AppData\Local\Temp\cchoDgth.s:33671  .debug_str:000000000002bef1 .LASF1516
C:\Users\CYMR90~1\AppData\Local\Temp\cchoDgth.s:30275  .debug_str:000000000001ead8 .LASF1517
C:\Users\CYMR90~1\AppData\Local\Temp\cchoDgth.s:32329  .debug_str:0000000000026b79 .LASF1518
C:\Users\CYMR90~1\AppData\Local\Temp\cchoDgth.s:27208  .debug_str:0000000000012406 .LASF1519
C:\Users\CYMR90~1\AppData\Local\Temp\cchoDgth.s:30675  .debug_str:0000000000020344 .LASF1520
C:\Users\CYMR90~1\AppData\Local\Temp\cchoDgth.s:29713  .debug_str:000000000001c659 .LASF1521
C:\Users\CYMR90~1\AppData\Local\Temp\cchoDgth.s:31017  .debug_str:00000000000217c3 .LASF1522
C:\Users\CYMR90~1\AppData\Local\Temp\cchoDgth.s:28985  .debug_str:000000000001974a .LASF1523
C:\Users\CYMR90~1\AppData\Local\Temp\cchoDgth.s:31675  .debug_str:0000000000023fcf .LASF1524
C:\Users\CYMR90~1\AppData\Local\Temp\cchoDgth.s:23944  .debug_str:0000000000005352 .LASF1525
C:\Users\CYMR90~1\AppData\Local\Temp\cchoDgth.s:29653  .debug_str:000000000001c2ad .LASF1526
C:\Users\CYMR90~1\AppData\Local\Temp\cchoDgth.s:25752  .debug_str:000000000000c872 .LASF1527
C:\Users\CYMR90~1\AppData\Local\Temp\cchoDgth.s:31423  .debug_str:0000000000023086 .LASF1528
C:\Users\CYMR90~1\AppData\Local\Temp\cchoDgth.s:32693  .debug_str:000000000002823c .LASF1529
C:\Users\CYMR90~1\AppData\Local\Temp\cchoDgth.s:31923  .debug_str:0000000000024f4e .LASF1530
C:\Users\CYMR90~1\AppData\Local\Temp\cchoDgth.s:31987  .debug_str:00000000000253d6 .LASF1531
C:\Users\CYMR90~1\AppData\Local\Temp\cchoDgth.s:23682  .debug_str:00000000000041c2 .LASF1532
C:\Users\CYMR90~1\AppData\Local\Temp\cchoDgth.s:28931  .debug_str:0000000000019360 .LASF1533
C:\Users\CYMR90~1\AppData\Local\Temp\cchoDgth.s:31805  .debug_str:000000000002470b .LASF1534
C:\Users\CYMR90~1\AppData\Local\Temp\cchoDgth.s:25308  .debug_str:000000000000aa0d .LASF1535
C:\Users\CYMR90~1\AppData\Local\Temp\cchoDgth.s:31991  .debug_str:0000000000025456 .LASF1536
C:\Users\CYMR90~1\AppData\Local\Temp\cchoDgth.s:31323  .debug_str:0000000000022a7f .LASF1537
C:\Users\CYMR90~1\AppData\Local\Temp\cchoDgth.s:32569  .debug_str:0000000000027a41 .LASF1538
C:\Users\CYMR90~1\AppData\Local\Temp\cchoDgth.s:32461  .debug_str:0000000000027396 .LASF1539
C:\Users\CYMR90~1\AppData\Local\Temp\cchoDgth.s:27086  .debug_str:0000000000011c28 .LASF1540
C:\Users\CYMR90~1\AppData\Local\Temp\cchoDgth.s:33191  .debug_str:000000000002a26d .LASF1541
C:\Users\CYMR90~1\AppData\Local\Temp\cchoDgth.s:26070  .debug_str:000000000000dd0b .LASF1542
C:\Users\CYMR90~1\AppData\Local\Temp\cchoDgth.s:23448  .debug_str:000000000000329b .LASF1543
C:\Users\CYMR90~1\AppData\Local\Temp\cchoDgth.s:26646  .debug_str:0000000000010093 .LASF1544
C:\Users\CYMR90~1\AppData\Local\Temp\cchoDgth.s:24688  .debug_str:000000000000837d .LASF1545
C:\Users\CYMR90~1\AppData\Local\Temp\cchoDgth.s:25158  .debug_str:000000000000a0c8 .LASF1546
C:\Users\CYMR90~1\AppData\Local\Temp\cchoDgth.s:25806  .debug_str:000000000000cbf7 .LASF1547
C:\Users\CYMR90~1\AppData\Local\Temp\cchoDgth.s:32773  .debug_str:000000000002879a .LASF1548
C:\Users\CYMR90~1\AppData\Local\Temp\cchoDgth.s:32259  .debug_str:000000000002670c .LASF1549
C:\Users\CYMR90~1\AppData\Local\Temp\cchoDgth.s:29605  .debug_str:000000000001bf76 .LASF1550
C:\Users\CYMR90~1\AppData\Local\Temp\cchoDgth.s:26954  .debug_str:00000000000112eb .LASF1551
C:\Users\CYMR90~1\AppData\Local\Temp\cchoDgth.s:29573  .debug_str:000000000001bdb5 .LASF1552
C:\Users\CYMR90~1\AppData\Local\Temp\cchoDgth.s:22908  .debug_str:000000000000116f .LASF1553
C:\Users\CYMR90~1\AppData\Local\Temp\cchoDgth.s:23226  .debug_str:000000000000244e .LASF1554
C:\Users\CYMR90~1\AppData\Local\Temp\cchoDgth.s:30313  .debug_str:000000000001ed6a .LASF1555
C:\Users\CYMR90~1\AppData\Local\Temp\cchoDgth.s:28885  .debug_str:0000000000019088 .LASF1556
C:\Users\CYMR90~1\AppData\Local\Temp\cchoDgth.s:28909  .debug_str:0000000000019217 .LASF1557
C:\Users\CYMR90~1\AppData\Local\Temp\cchoDgth.s:33277  .debug_str:000000000002a780 .LASF1558
C:\Users\CYMR90~1\AppData\Local\Temp\cchoDgth.s:26788  .debug_str:000000000001094e .LASF1559
C:\Users\CYMR90~1\AppData\Local\Temp\cchoDgth.s:31685  .debug_str:0000000000024048 .LASF1560
C:\Users\CYMR90~1\AppData\Local\Temp\cchoDgth.s:32123  .debug_str:0000000000025dff .LASF1561
C:\Users\CYMR90~1\AppData\Local\Temp\cchoDgth.s:26904  .debug_str:0000000000011023 .LASF1562
C:\Users\CYMR90~1\AppData\Local\Temp\cchoDgth.s:24128  .debug_str:0000000000005ecb .LASF1563
C:\Users\CYMR90~1\AppData\Local\Temp\cchoDgth.s:33773  .debug_str:000000000002c598 .LASF1564
C:\Users\CYMR90~1\AppData\Local\Temp\cchoDgth.s:24308  .debug_str:000000000000697d .LASF1565
C:\Users\CYMR90~1\AppData\Local\Temp\cchoDgth.s:30017  .debug_str:000000000001da6a .LASF1566
C:\Users\CYMR90~1\AppData\Local\Temp\cchoDgth.s:29285  .debug_str:000000000001ab59 .LASF1567
C:\Users\CYMR90~1\AppData\Local\Temp\cchoDgth.s:30795  .debug_str:0000000000020a33 .LASF1568
C:\Users\CYMR90~1\AppData\Local\Temp\cchoDgth.s:27084  .debug_str:0000000000011b81 .LASF1569
C:\Users\CYMR90~1\AppData\Local\Temp\cchoDgth.s:32149  .debug_str:0000000000025ff4 .LASF1570
C:\Users\CYMR90~1\AppData\Local\Temp\cchoDgth.s:27486  .debug_str:000000000001369f .LASF1571
C:\Users\CYMR90~1\AppData\Local\Temp\cchoDgth.s:23998  .debug_str:00000000000056d2 .LASF1572
C:\Users\CYMR90~1\AppData\Local\Temp\cchoDgth.s:27906  .debug_str:0000000000015102 .LASF1573
C:\Users\CYMR90~1\AppData\Local\Temp\cchoDgth.s:32889  .debug_str:0000000000029027 .LASF1574
C:\Users\CYMR90~1\AppData\Local\Temp\cchoDgth.s:28377  .debug_str:00000000000170de .LASF1575
C:\Users\CYMR90~1\AppData\Local\Temp\cchoDgth.s:26454  .debug_str:000000000000f473 .LASF1576
C:\Users\CYMR90~1\AppData\Local\Temp\cchoDgth.s:26058  .debug_str:000000000000dc42 .LASF1577
C:\Users\CYMR90~1\AppData\Local\Temp\cchoDgth.s:33385  .debug_str:000000000002adcb .LASF1578
C:\Users\CYMR90~1\AppData\Local\Temp\cchoDgth.s:23236  .debug_str:00000000000024d9 .LASF1579
C:\Users\CYMR90~1\AppData\Local\Temp\cchoDgth.s:29863  .debug_str:000000000001cfe3 .LASF1580
C:\Users\CYMR90~1\AppData\Local\Temp\cchoDgth.s:25276  .debug_str:000000000000a7fb .LASF1581
C:\Users\CYMR90~1\AppData\Local\Temp\cchoDgth.s:25988  .debug_str:000000000000d7fc .LASF1582
C:\Users\CYMR90~1\AppData\Local\Temp\cchoDgth.s:24678  .debug_str:0000000000008251 .LASF1583
C:\Users\CYMR90~1\AppData\Local\Temp\cchoDgth.s:32571  .debug_str:0000000000027a5f .LASF1584
C:\Users\CYMR90~1\AppData\Local\Temp\cchoDgth.s:30119  .debug_str:000000000001e0eb .LASF1585
C:\Users\CYMR90~1\AppData\Local\Temp\cchoDgth.s:33991  .debug_str:000000000002d3de .LASF1586
C:\Users\CYMR90~1\AppData\Local\Temp\cchoDgth.s:25962  .debug_str:000000000000d5b6 .LASF1587
C:\Users\CYMR90~1\AppData\Local\Temp\cchoDgth.s:24640  .debug_str:0000000000007f37 .LASF1588
C:\Users\CYMR90~1\AppData\Local\Temp\cchoDgth.s:28352  .debug_str:0000000000016d1a .LASF1589
C:\Users\CYMR90~1\AppData\Local\Temp\cchoDgth.s:25500  .debug_str:000000000000b735 .LASF1590
C:\Users\CYMR90~1\AppData\Local\Temp\cchoDgth.s:28276  .debug_str:000000000001679e .LASF1591
C:\Users\CYMR90~1\AppData\Local\Temp\cchoDgth.s:24866  .debug_str:0000000000008eb7 .LASF1592
C:\Users\CYMR90~1\AppData\Local\Temp\cchoDgth.s:27476  .debug_str:00000000000135af .LASF1593
C:\Users\CYMR90~1\AppData\Local\Temp\cchoDgth.s:33075  .debug_str:0000000000029ae4 .LASF1594
C:\Users\CYMR90~1\AppData\Local\Temp\cchoDgth.s:32803  .debug_str:00000000000289db .LASF1595
C:\Users\CYMR90~1\AppData\Local\Temp\cchoDgth.s:22872  .debug_str:0000000000000f07 .LASF1596
C:\Users\CYMR90~1\AppData\Local\Temp\cchoDgth.s:29891  .debug_str:000000000001d1c6 .LASF1597
C:\Users\CYMR90~1\AppData\Local\Temp\cchoDgth.s:23794  .debug_str:00000000000049c8 .LASF1598
C:\Users\CYMR90~1\AppData\Local\Temp\cchoDgth.s:32071  .debug_str:00000000000259cb .LASF1599
C:\Users\CYMR90~1\AppData\Local\Temp\cchoDgth.s:23022  .debug_str:00000000000017fc .LASF1600
C:\Users\CYMR90~1\AppData\Local\Temp\cchoDgth.s:26540  .debug_str:000000000000f99c .LASF1601
C:\Users\CYMR90~1\AppData\Local\Temp\cchoDgth.s:31041  .debug_str:000000000002192a .LASF1602
C:\Users\CYMR90~1\AppData\Local\Temp\cchoDgth.s:29915  .debug_str:000000000001d3d1 .LASF1603
C:\Users\CYMR90~1\AppData\Local\Temp\cchoDgth.s:29801  .debug_str:000000000001cb76 .LASF1604
C:\Users\CYMR90~1\AppData\Local\Temp\cchoDgth.s:32051  .debug_str:0000000000025812 .LASF1605
C:\Users\CYMR90~1\AppData\Local\Temp\cchoDgth.s:31965  .debug_str:0000000000025268 .LASF1606
C:\Users\CYMR90~1\AppData\Local\Temp\cchoDgth.s:31917  .debug_str:0000000000024efa .LASF1607
C:\Users\CYMR90~1\AppData\Local\Temp\cchoDgth.s:28829  .debug_str:0000000000018c4f .LASF1608
C:\Users\CYMR90~1\AppData\Local\Temp\cchoDgth.s:23770  .debug_str:00000000000047ec .LASF1609
C:\Users\CYMR90~1\AppData\Local\Temp\cchoDgth.s:31251  .debug_str:000000000002265e .LASF1610
C:\Users\CYMR90~1\AppData\Local\Temp\cchoDgth.s:33897  .debug_str:000000000002cdf8 .LASF1611
C:\Users\CYMR90~1\AppData\Local\Temp\cchoDgth.s:29751  .debug_str:000000000001c870 .LASF1612
C:\Users\CYMR90~1\AppData\Local\Temp\cchoDgth.s:27792  .debug_str:00000000000149c3 .LASF1613
C:\Users\CYMR90~1\AppData\Local\Temp\cchoDgth.s:25146  .debug_str:000000000000a017 .LASF1614
C:\Users\CYMR90~1\AppData\Local\Temp\cchoDgth.s:29433  .debug_str:000000000001b570 .LASF1615
C:\Users\CYMR90~1\AppData\Local\Temp\cchoDgth.s:31137  .debug_str:0000000000021f7f .LASF1616
C:\Users\CYMR90~1\AppData\Local\Temp\cchoDgth.s:27880  .debug_str:0000000000014f09 .LASF1617
C:\Users\CYMR90~1\AppData\Local\Temp\cchoDgth.s:29815  .debug_str:000000000001cd17 .LASF1618
C:\Users\CYMR90~1\AppData\Local\Temp\cchoDgth.s:23818  .debug_str:0000000000004bc3 .LASF1619
C:\Users\CYMR90~1\AppData\Local\Temp\cchoDgth.s:25536  .debug_str:000000000000b9fc .LASF1620
C:\Users\CYMR90~1\AppData\Local\Temp\cchoDgth.s:26370  .debug_str:000000000000efa4 .LASF1621
C:\Users\CYMR90~1\AppData\Local\Temp\cchoDgth.s:23384  .debug_str:0000000000002ead .LASF1622
C:\Users\CYMR90~1\AppData\Local\Temp\cchoDgth.s:30825  .debug_str:0000000000020c4a .LASF1623
C:\Users\CYMR90~1\AppData\Local\Temp\cchoDgth.s:27480  .debug_str:0000000000013655 .LASF1624
C:\Users\CYMR90~1\AppData\Local\Temp\cchoDgth.s:25634  .debug_str:000000000000c0dc .LASF1625
C:\Users\CYMR90~1\AppData\Local\Temp\cchoDgth.s:31551  .debug_str:00000000000237ff .LASF1626
C:\Users\CYMR90~1\AppData\Local\Temp\cchoDgth.s:24304  .debug_str:000000000000694f .LASF1627
C:\Users\CYMR90~1\AppData\Local\Temp\cchoDgth.s:30569  .debug_str:000000000001fc87 .LASF1628
C:\Users\CYMR90~1\AppData\Local\Temp\cchoDgth.s:25390  .debug_str:000000000000b011 .LASF1629
C:\Users\CYMR90~1\AppData\Local\Temp\cchoDgth.s:31333  .debug_str:0000000000022aeb .LASF1630
C:\Users\CYMR90~1\AppData\Local\Temp\cchoDgth.s:24850  .debug_str:0000000000008de6 .LASF1631
C:\Users\CYMR90~1\AppData\Local\Temp\cchoDgth.s:22974  .debug_str:000000000000156d .LASF1632
C:\Users\CYMR90~1\AppData\Local\Temp\cchoDgth.s:29551  .debug_str:000000000001bccd .LASF1633
C:\Users\CYMR90~1\AppData\Local\Temp\cchoDgth.s:28523  .debug_str:0000000000017994 .LASF1634
C:\Users\CYMR90~1\AppData\Local\Temp\cchoDgth.s:25618  .debug_str:000000000000bf8c .LASF1635
C:\Users\CYMR90~1\AppData\Local\Temp\cchoDgth.s:25718  .debug_str:000000000000c661 .LASF1636
C:\Users\CYMR90~1\AppData\Local\Temp\cchoDgth.s:29405  .debug_str:000000000001b3bf .LASF1637
C:\Users\CYMR90~1\AppData\Local\Temp\cchoDgth.s:25790  .debug_str:000000000000caf3 .LASF1638
C:\Users\CYMR90~1\AppData\Local\Temp\cchoDgth.s:25510  .debug_str:000000000000b85a .LASF1639
C:\Users\CYMR90~1\AppData\Local\Temp\cchoDgth.s:28733  .debug_str:0000000000018684 .LASF1640
C:\Users\CYMR90~1\AppData\Local\Temp\cchoDgth.s:26742  .debug_str:0000000000010677 .LASF1641
C:\Users\CYMR90~1\AppData\Local\Temp\cchoDgth.s:31907  .debug_str:0000000000024e5e .LASF1642
C:\Users\CYMR90~1\AppData\Local\Temp\cchoDgth.s:27098  .debug_str:0000000000011cfd .LASF1643
C:\Users\CYMR90~1\AppData\Local\Temp\cchoDgth.s:30711  .debug_str:0000000000020579 .LASF1644
C:\Users\CYMR90~1\AppData\Local\Temp\cchoDgth.s:33865  .debug_str:000000000002cc59 .LASF1645
C:\Users\CYMR90~1\AppData\Local\Temp\cchoDgth.s:23374  .debug_str:0000000000002e25 .LASF1646
C:\Users\CYMR90~1\AppData\Local\Temp\cchoDgth.s:28314  .debug_str:0000000000016a56 .LASF1647
C:\Users\CYMR90~1\AppData\Local\Temp\cchoDgth.s:28427  .debug_str:00000000000173dd .LASF1648
C:\Users\CYMR90~1\AppData\Local\Temp\cchoDgth.s:23176  .debug_str:000000000000219b .LASF1649
C:\Users\CYMR90~1\AppData\Local\Temp\cchoDgth.s:24704  .debug_str:00000000000084b4 .LASF1650
C:\Users\CYMR90~1\AppData\Local\Temp\cchoDgth.s:31569  .debug_str:0000000000023934 .LASF1651
C:\Users\CYMR90~1\AppData\Local\Temp\cchoDgth.s:26048  .debug_str:000000000000db5c .LASF1652
C:\Users\CYMR90~1\AppData\Local\Temp\cchoDgth.s:24598  .debug_str:0000000000007c3a .LASF1653
C:\Users\CYMR90~1\AppData\Local\Temp\cchoDgth.s:22914  .debug_str:00000000000011e6 .LASF1654
C:\Users\CYMR90~1\AppData\Local\Temp\cchoDgth.s:28627  .debug_str:0000000000017fff .LASF1657
C:\Users\CYMR90~1\AppData\Local\Temp\cchoDgth.s:33433  .debug_str:000000000002b09c .LASF1658
C:\Users\CYMR90~1\AppData\Local\Temp\cchoDgth.s:26872  .debug_str:0000000000010e9b .LASF1659
C:\Users\CYMR90~1\AppData\Local\Temp\cchoDgth.s:28959  .debug_str:00000000000195e6 .LASF1660
C:\Users\CYMR90~1\AppData\Local\Temp\cchoDgth.s:33667  .debug_str:000000000002beb4 .LASF1661
C:\Users\CYMR90~1\AppData\Local\Temp\cchoDgth.s:33703  .debug_str:000000000002c153 .LASF1662
C:\Users\CYMR90~1\AppData\Local\Temp\cchoDgth.s:30919  .debug_str:0000000000021200 .LASF1663
C:\Users\CYMR90~1\AppData\Local\Temp\cchoDgth.s:27838  .debug_str:0000000000014c59 .LASF1664
C:\Users\CYMR90~1\AppData\Local\Temp\cchoDgth.s:30065  .debug_str:000000000001ddb0 .LASF1665
C:\Users\CYMR90~1\AppData\Local\Temp\cchoDgth.s:31019  .debug_str:00000000000217de .LASF1666
C:\Users\CYMR90~1\AppData\Local\Temp\cchoDgth.s:32147  .debug_str:0000000000025fc7 .LASF1667
C:\Users\CYMR90~1\AppData\Local\Temp\cchoDgth.s:26278  .debug_str:000000000000e9ee .LASF1668
C:\Users\CYMR90~1\AppData\Local\Temp\cchoDgth.s:23608  .debug_str:0000000000003d04 .LASF1669
C:\Users\CYMR90~1\AppData\Local\Temp\cchoDgth.s:24886  .debug_str:000000000000909c .LASF1670
C:\Users\CYMR90~1\AppData\Local\Temp\cchoDgth.s:23760  .debug_str:0000000000004746 .LASF1671
C:\Users\CYMR90~1\AppData\Local\Temp\cchoDgth.s:22716  .debug_str:0000000000000549 .LASF1672
C:\Users\CYMR90~1\AppData\Local\Temp\cchoDgth.s:27770  .debug_str:0000000000014801 .LASF1673
C:\Users\CYMR90~1\AppData\Local\Temp\cchoDgth.s:27168  .debug_str:0000000000012138 .LASF1674
C:\Users\CYMR90~1\AppData\Local\Temp\cchoDgth.s:26318  .debug_str:000000000000ec6d .LASF1675
C:\Users\CYMR90~1\AppData\Local\Temp\cchoDgth.s:31929  .debug_str:0000000000025056 .LASF1676
C:\Users\CYMR90~1\AppData\Local\Temp\cchoDgth.s:27302  .debug_str:00000000000129e8 .LASF1677
C:\Users\CYMR90~1\AppData\Local\Temp\cchoDgth.s:33867  .debug_str:000000000002cc6e .LASF1678
C:\Users\CYMR90~1\AppData\Local\Temp\cchoDgth.s:23280  .debug_str:00000000000027c5 .LASF1679
C:\Users\CYMR90~1\AppData\Local\Temp\cchoDgth.s:26820  .debug_str:0000000000010b0f .LASF1680
C:\Users\CYMR90~1\AppData\Local\Temp\cchoDgth.s:28002  .debug_str:00000000000156d6 .LASF1681
C:\Users\CYMR90~1\AppData\Local\Temp\cchoDgth.s:26666  .debug_str:00000000000101f8 .LASF1682
C:\Users\CYMR90~1\AppData\Local\Temp\cchoDgth.s:29389  .debug_str:000000000001b23d .LASF1683
C:\Users\CYMR90~1\AppData\Local\Temp\cchoDgth.s:31515  .debug_str:0000000000023641 .LASF1684
C:\Users\CYMR90~1\AppData\Local\Temp\cchoDgth.s:32453  .debug_str:000000000002733b .LASF1685
C:\Users\CYMR90~1\AppData\Local\Temp\cchoDgth.s:26818  .debug_str:0000000000010af7 .LASF1686
C:\Users\CYMR90~1\AppData\Local\Temp\cchoDgth.s:30807  .debug_str:0000000000020b31 .LASF1687
C:\Users\CYMR90~1\AppData\Local\Temp\cchoDgth.s:33181  .debug_str:000000000002a1c2 .LASF1688
C:\Users\CYMR90~1\AppData\Local\Temp\cchoDgth.s:31701  .debug_str:0000000000024152 .LASF1689
C:\Users\CYMR90~1\AppData\Local\Temp\cchoDgth.s:29513  .debug_str:000000000001ba4e .LASF1690
C:\Users\CYMR90~1\AppData\Local\Temp\cchoDgth.s:27568  .debug_str:0000000000013bcf .LASF1691
C:\Users\CYMR90~1\AppData\Local\Temp\cchoDgth.s:31233  .debug_str:000000000002255e .LASF1692
C:\Users\CYMR90~1\AppData\Local\Temp\cchoDgth.s:28817  .debug_str:0000000000018b96 .LASF1693
C:\Users\CYMR90~1\AppData\Local\Temp\cchoDgth.s:24698  .debug_str:0000000000008440 .LASF1694
C:\Users\CYMR90~1\AppData\Local\Temp\cchoDgth.s:26738  .debug_str:000000000001062b .LASF1695
C:\Users\CYMR90~1\AppData\Local\Temp\cchoDgth.s:28597  .debug_str:0000000000017e4c .LASF1696
C:\Users\CYMR90~1\AppData\Local\Temp\cchoDgth.s:27888  .debug_str:0000000000014f9c .LASF1697
C:\Users\CYMR90~1\AppData\Local\Temp\cchoDgth.s:30461  .debug_str:000000000001f625 .LASF1698
C:\Users\CYMR90~1\AppData\Local\Temp\cchoDgth.s:28995  .debug_str:0000000000019811 .LASF1699
C:\Users\CYMR90~1\AppData\Local\Temp\cchoDgth.s:30935  .debug_str:000000000002130b .LASF1700
C:\Users\CYMR90~1\AppData\Local\Temp\cchoDgth.s:30457  .debug_str:000000000001f5e8 .LASF1701
C:\Users\CYMR90~1\AppData\Local\Temp\cchoDgth.s:31747  .debug_str:00000000000243d2 .LASF1702
C:\Users\CYMR90~1\AppData\Local\Temp\cchoDgth.s:25978  .debug_str:000000000000d74d .LASF1703
C:\Users\CYMR90~1\AppData\Local\Temp\cchoDgth.s:31223  .debug_str:00000000000224c4 .LASF1704
C:\Users\CYMR90~1\AppData\Local\Temp\cchoDgth.s:29635  .debug_str:000000000001c192 .LASF1705
C:\Users\CYMR90~1\AppData\Local\Temp\cchoDgth.s:31083  .debug_str:0000000000021c2a .LASF1706
C:\Users\CYMR90~1\AppData\Local\Temp\cchoDgth.s:28505  .debug_str:0000000000017859 .LASF1707
C:\Users\CYMR90~1\AppData\Local\Temp\cchoDgth.s:27482  .debug_str:0000000000013668 .LASF1708
C:\Users\CYMR90~1\AppData\Local\Temp\cchoDgth.s:30205  .debug_str:000000000001e6d7 .LASF1709
C:\Users\CYMR90~1\AppData\Local\Temp\cchoDgth.s:28735  .debug_str:0000000000018699 .LASF1710
C:\Users\CYMR90~1\AppData\Local\Temp\cchoDgth.s:32647  .debug_str:0000000000027f55 .LASF1711
C:\Users\CYMR90~1\AppData\Local\Temp\cchoDgth.s:27118  .debug_str:0000000000011e2e .LASF1712
C:\Users\CYMR90~1\AppData\Local\Temp\cchoDgth.s:24232  .debug_str:000000000000650a .LASF1713
C:\Users\CYMR90~1\AppData\Local\Temp\cchoDgth.s:26582  .debug_str:000000000000fc96 .LASF1714
C:\Users\CYMR90~1\AppData\Local\Temp\cchoDgth.s:23504  .debug_str:0000000000003669 .LASF1715
C:\Users\CYMR90~1\AppData\Local\Temp\cchoDgth.s:26816  .debug_str:0000000000010acb .LASF1716
C:\Users\CYMR90~1\AppData\Local\Temp\cchoDgth.s:30173  .debug_str:000000000001e4e1 .LASF1717
C:\Users\CYMR90~1\AppData\Local\Temp\cchoDgth.s:28699  .debug_str:0000000000018466 .LASF1718
C:\Users\CYMR90~1\AppData\Local\Temp\cchoDgth.s:27058  .debug_str:0000000000011940 .LASF1719
C:\Users\CYMR90~1\AppData\Local\Temp\cchoDgth.s:29059  .debug_str:0000000000019c25 .LASF1720
C:\Users\CYMR90~1\AppData\Local\Temp\cchoDgth.s:27560  .debug_str:0000000000013b4c .LASF1721
C:\Users\CYMR90~1\AppData\Local\Temp\cchoDgth.s:23212  .debug_str:0000000000002395 .LASF1722
C:\Users\CYMR90~1\AppData\Local\Temp\cchoDgth.s:29397  .debug_str:000000000001b2dc .LASF1723
C:\Users\CYMR90~1\AppData\Local\Temp\cchoDgth.s:23272  .debug_str:000000000000274f .LASF1724
C:\Users\CYMR90~1\AppData\Local\Temp\cchoDgth.s:28070  .debug_str:0000000000015aaa .LASF1725
C:\Users\CYMR90~1\AppData\Local\Temp\cchoDgth.s:32979  .debug_str:0000000000029519 .LASF1726
C:\Users\CYMR90~1\AppData\Local\Temp\cchoDgth.s:31371  .debug_str:0000000000022d40 .LASF1727
C:\Users\CYMR90~1\AppData\Local\Temp\cchoDgth.s:32613  .debug_str:0000000000027d8c .LASF1728
C:\Users\CYMR90~1\AppData\Local\Temp\cchoDgth.s:29861  .debug_str:000000000001cfac .LASF1729
C:\Users\CYMR90~1\AppData\Local\Temp\cchoDgth.s:33777  .debug_str:000000000002c657 .LASF1730
C:\Users\CYMR90~1\AppData\Local\Temp\cchoDgth.s:32443  .debug_str:00000000000272a0 .LASF1731
C:\Users\CYMR90~1\AppData\Local\Temp\cchoDgth.s:26990  .debug_str:00000000000114fe .LASF1732
C:\Users\CYMR90~1\AppData\Local\Temp\cchoDgth.s:24998  .debug_str:00000000000096d1 .LASF1733
C:\Users\CYMR90~1\AppData\Local\Temp\cchoDgth.s:22978  .debug_str:0000000000001591 .LASF1734
C:\Users\CYMR90~1\AppData\Local\Temp\cchoDgth.s:28461  .debug_str:00000000000175b7 .LASF1735
C:\Users\CYMR90~1\AppData\Local\Temp\cchoDgth.s:30637  .debug_str:00000000000200d6 .LASF1736
C:\Users\CYMR90~1\AppData\Local\Temp\cchoDgth.s:24990  .debug_str:000000000000965b .LASF1737
C:\Users\CYMR90~1\AppData\Local\Temp\cchoDgth.s:24716  .debug_str:000000000000856a .LASF1738
C:\Users\CYMR90~1\AppData\Local\Temp\cchoDgth.s:32449  .debug_str:000000000002730c .LASF1739
C:\Users\CYMR90~1\AppData\Local\Temp\cchoDgth.s:26344  .debug_str:000000000000ee13 .LASF1740
C:\Users\CYMR90~1\AppData\Local\Temp\cchoDgth.s:25340  .debug_str:000000000000acc8 .LASF1741
C:\Users\CYMR90~1\AppData\Local\Temp\cchoDgth.s:30485  .debug_str:000000000001f794 .LASF1742
C:\Users\CYMR90~1\AppData\Local\Temp\cchoDgth.s:30127  .debug_str:000000000001e1db .LASF1743
C:\Users\CYMR90~1\AppData\Local\Temp\cchoDgth.s:32727  .debug_str:00000000000284aa .LASF1744
C:\Users\CYMR90~1\AppData\Local\Temp\cchoDgth.s:24722  .debug_str:00000000000085b5 .LASF1745
C:\Users\CYMR90~1\AppData\Local\Temp\cchoDgth.s:26638  .debug_str:000000000001000f .LASF1746
C:\Users\CYMR90~1\AppData\Local\Temp\cchoDgth.s:22898  .debug_str:00000000000010eb .LASF1747
C:\Users\CYMR90~1\AppData\Local\Temp\cchoDgth.s:31341  .debug_str:0000000000022b68 .LASF1748
C:\Users\CYMR90~1\AppData\Local\Temp\cchoDgth.s:26812  .debug_str:0000000000010a8f .LASF1749
C:\Users\CYMR90~1\AppData\Local\Temp\cchoDgth.s:25506  .debug_str:000000000000b811 .LASF1750
C:\Users\CYMR90~1\AppData\Local\Temp\cchoDgth.s:28633  .debug_str:0000000000018055 .LASF1751
C:\Users\CYMR90~1\AppData\Local\Temp\cchoDgth.s:23866  .debug_str:0000000000004ea5 .LASF1752
C:\Users\CYMR90~1\AppData\Local\Temp\cchoDgth.s:29373  .debug_str:000000000001b14e .LASF1753
C:\Users\CYMR90~1\AppData\Local\Temp\cchoDgth.s:29267  .debug_str:000000000001aa1e .LASF1754
C:\Users\CYMR90~1\AppData\Local\Temp\cchoDgth.s:25782  .debug_str:000000000000ca33 .LASF1755
C:\Users\CYMR90~1\AppData\Local\Temp\cchoDgth.s:27366  .debug_str:0000000000012e4b .LASF1756
C:\Users\CYMR90~1\AppData\Local\Temp\cchoDgth.s:29467  .debug_str:000000000001b7a5 .LASF1757
C:\Users\CYMR90~1\AppData\Local\Temp\cchoDgth.s:26442  .debug_str:000000000000f38d .LASF1758
C:\Users\CYMR90~1\AppData\Local\Temp\cchoDgth.s:24538  .debug_str:0000000000007873 .LASF1759
C:\Users\CYMR90~1\AppData\Local\Temp\cchoDgth.s:29209  .debug_str:000000000001a562 .LASF1760
C:\Users\CYMR90~1\AppData\Local\Temp\cchoDgth.s:24822  .debug_str:0000000000008c16 .LASF1761
C:\Users\CYMR90~1\AppData\Local\Temp\cchoDgth.s:23042  .debug_str:00000000000019de .LASF1762
C:\Users\CYMR90~1\AppData\Local\Temp\cchoDgth.s:31945  .debug_str:0000000000025124 .LASF1763
C:\Users\CYMR90~1\AppData\Local\Temp\cchoDgth.s:24566  .debug_str:0000000000007a4e .LASF1764
C:\Users\CYMR90~1\AppData\Local\Temp\cchoDgth.s:24246  .debug_str:0000000000006603 .LASF1765
C:\Users\CYMR90~1\AppData\Local\Temp\cchoDgth.s:23024  .debug_str:00000000000018b2 .LASF1766
C:\Users\CYMR90~1\AppData\Local\Temp\cchoDgth.s:29579  .debug_str:000000000001be0e .LASF1767
C:\Users\CYMR90~1\AppData\Local\Temp\cchoDgth.s:26142  .debug_str:000000000000e17c .LASF1768
C:\Users\CYMR90~1\AppData\Local\Temp\cchoDgth.s:32151  .debug_str:0000000000026082 .LASF1769
C:\Users\CYMR90~1\AppData\Local\Temp\cchoDgth.s:33851  .debug_str:000000000002cb68 .LASF1770
C:\Users\CYMR90~1\AppData\Local\Temp\cchoDgth.s:25668  .debug_str:000000000000c309 .LASF1771
C:\Users\CYMR90~1\AppData\Local\Temp\cchoDgth.s:25248  .debug_str:000000000000a677 .LASF1772
C:\Users\CYMR90~1\AppData\Local\Temp\cchoDgth.s:22746  .debug_str:0000000000000712 .LASF1773
C:\Users\CYMR90~1\AppData\Local\Temp\cchoDgth.s:22798  .debug_str:0000000000000a24 .LASF1774
C:\Users\CYMR90~1\AppData\Local\Temp\cchoDgth.s:32879  .debug_str:0000000000028f68 .LASF1775
C:\Users\CYMR90~1\AppData\Local\Temp\cchoDgth.s:27784  .debug_str:000000000001492f .LASF1776
C:\Users\CYMR90~1\AppData\Local\Temp\cchoDgth.s:26522  .debug_str:000000000000f89a .LASF1777
C:\Users\CYMR90~1\AppData\Local\Temp\cchoDgth.s:28623  .debug_str:0000000000017fce .LASF1778
C:\Users\CYMR90~1\AppData\Local\Temp\cchoDgth.s:23970  .debug_str:0000000000005515 .LASF1779
C:\Users\CYMR90~1\AppData\Local\Temp\cchoDgth.s:32189  .debug_str:00000000000262f1 .LASF1780
C:\Users\CYMR90~1\AppData\Local\Temp\cchoDgth.s:31377  .debug_str:0000000000022dc3 .LASF1781
C:\Users\CYMR90~1\AppData\Local\Temp\cchoDgth.s:29869  .debug_str:000000000001d04e .LASF1784
C:\Users\CYMR90~1\AppData\Local\Temp\cchoDgth.s:29007  .debug_str:00000000000198c4 .LASF1785
C:\Users\CYMR90~1\AppData\Local\Temp\cchoDgth.s:28851  .debug_str:0000000000018dc5 .LASF1786
C:\Users\CYMR90~1\AppData\Local\Temp\cchoDgth.s:27824  .debug_str:0000000000014ba9 .LASF1787
C:\Users\CYMR90~1\AppData\Local\Temp\cchoDgth.s:33313  .debug_str:000000000002a996 .LASF1788
C:\Users\CYMR90~1\AppData\Local\Temp\cchoDgth.s:29407  .debug_str:000000000001b3d4 .LASF1789
C:\Users\CYMR90~1\AppData\Local\Temp\cchoDgth.s:23550  .debug_str:0000000000003985 .LASF1790
C:\Users\CYMR90~1\AppData\Local\Temp\cchoDgth.s:22662  .debug_str:0000000000000210 .LASF1791
C:\Users\CYMR90~1\AppData\Local\Temp\cchoDgth.s:32535  .debug_str:0000000000027821 .LASF1792
C:\Users\CYMR90~1\AppData\Local\Temp\cchoDgth.s:31601  .debug_str:0000000000023af4 .LASF1793
C:\Users\CYMR90~1\AppData\Local\Temp\cchoDgth.s:33501  .debug_str:000000000002b45d .LASF1794
C:\Users\CYMR90~1\AppData\Local\Temp\cchoDgth.s:32807  .debug_str:0000000000028aac .LASF1795
C:\Users\CYMR90~1\AppData\Local\Temp\cchoDgth.s:27494  .debug_str:0000000000013732 .LASF1796
C:\Users\CYMR90~1\AppData\Local\Temp\cchoDgth.s:27774  .debug_str:0000000000014843 .LASF1797
C:\Users\CYMR90~1\AppData\Local\Temp\cchoDgth.s:26876  .debug_str:0000000000010eb8 .LASF1798
C:\Users\CYMR90~1\AppData\Local\Temp\cchoDgth.s:25696  .debug_str:000000000000c51d .LASF1799
C:\Users\CYMR90~1\AppData\Local\Temp\cchoDgth.s:28539  .debug_str:0000000000017a93 .LASF1800
C:\Users\CYMR90~1\AppData\Local\Temp\cchoDgth.s:28843  .debug_str:0000000000018d54 .LASF1801
C:\Users\CYMR90~1\AppData\Local\Temp\cchoDgth.s:27910  .debug_str:000000000001513c .LASF1802
C:\Users\CYMR90~1\AppData\Local\Temp\cchoDgth.s:26938  .debug_str:000000000001120a .LASF1803
C:\Users\CYMR90~1\AppData\Local\Temp\cchoDgth.s:26416  .debug_str:000000000000f232 .LASF1804
C:\Users\CYMR90~1\AppData\Local\Temp\cchoDgth.s:31169  .debug_str:0000000000022199 .LASF1805
C:\Users\CYMR90~1\AppData\Local\Temp\cchoDgth.s:27794  .debug_str:00000000000149e7 .LASF1806
C:\Users\CYMR90~1\AppData\Local\Temp\cchoDgth.s:30749  .debug_str:0000000000020775 .LASF1807
C:\Users\CYMR90~1\AppData\Local\Temp\cchoDgth.s:27934  .debug_str:00000000000152d2 .LASF1808
C:\Users\CYMR90~1\AppData\Local\Temp\cchoDgth.s:32799  .debug_str:000000000002899a .LASF1809
C:\Users\CYMR90~1\AppData\Local\Temp\cchoDgth.s:29963  .debug_str:000000000001d736 .LASF1810
C:\Users\CYMR90~1\AppData\Local\Temp\cchoDgth.s:28639  .debug_str:00000000000180ca .LASF1811
C:\Users\CYMR90~1\AppData\Local\Temp\cchoDgth.s:23000  .debug_str:00000000000016c5 .LASF1812
C:\Users\CYMR90~1\AppData\Local\Temp\cchoDgth.s:26826  .debug_str:0000000000010b55 .LASF1813
C:\Users\CYMR90~1\AppData\Local\Temp\cchoDgth.s:27102  .debug_str:0000000000011d2f .LASF1814
C:\Users\CYMR90~1\AppData\Local\Temp\cchoDgth.s:29945  .debug_str:000000000001d637 .LASF1815
C:\Users\CYMR90~1\AppData\Local\Temp\cchoDgth.s:28603  .debug_str:0000000000017ebe .LASF1816
C:\Users\CYMR90~1\AppData\Local\Temp\cchoDgth.s:29953  .debug_str:000000000001d6b5 .LASF1817
C:\Users\CYMR90~1\AppData\Local\Temp\cchoDgth.s:30407  .debug_str:000000000001f299 .LASF1818
C:\Users\CYMR90~1\AppData\Local\Temp\cchoDgth.s:26636  .debug_str:000000000000fffa .LASF1819
C:\Users\CYMR90~1\AppData\Local\Temp\cchoDgth.s:30899  .debug_str:00000000000210ae .LASF1820
C:\Users\CYMR90~1\AppData\Local\Temp\cchoDgth.s:24272  .debug_str:0000000000006775 .LASF1821
C:\Users\CYMR90~1\AppData\Local\Temp\cchoDgth.s:24658  .debug_str:00000000000080f2 .LASF1822
C:\Users\CYMR90~1\AppData\Local\Temp\cchoDgth.s:30337  .debug_str:000000000001eedb .LASF1823
C:\Users\CYMR90~1\AppData\Local\Temp\cchoDgth.s:33093  .debug_str:0000000000029c86 .LASF1824
C:\Users\CYMR90~1\AppData\Local\Temp\cchoDgth.s:25572  .debug_str:000000000000bc9b .LASF1825
C:\Users\CYMR90~1\AppData\Local\Temp\cchoDgth.s:31007  .debug_str:0000000000021728 .LASF1826
C:\Users\CYMR90~1\AppData\Local\Temp\cchoDgth.s:33441  .debug_str:000000000002b100 .LASF1827
C:\Users\CYMR90~1\AppData\Local\Temp\cchoDgth.s:26390  .debug_str:000000000000f0b6 .LASF1828
C:\Users\CYMR90~1\AppData\Local\Temp\cchoDgth.s:26462  .debug_str:000000000000f502 .LASF1829
C:\Users\CYMR90~1\AppData\Local\Temp\cchoDgth.s:27246  .debug_str:000000000001264d .LASF1830
C:\Users\CYMR90~1\AppData\Local\Temp\cchoDgth.s:25018  .debug_str:0000000000009864 .LASF1831
C:\Users\CYMR90~1\AppData\Local\Temp\cchoDgth.s:32479  .debug_str:000000000002748a .LASF1832
C:\Users\CYMR90~1\AppData\Local\Temp\cchoDgth.s:25834  .debug_str:000000000000cdc7 .LASF1833
C:\Users\CYMR90~1\AppData\Local\Temp\cchoDgth.s:24478  .debug_str:00000000000074e8 .LASF1834
C:\Users\CYMR90~1\AppData\Local\Temp\cchoDgth.s:28228  .debug_str:0000000000016504 .LASF1835
C:\Users\CYMR90~1\AppData\Local\Temp\cchoDgth.s:32341  .debug_str:0000000000026c22 .LASF1836
C:\Users\CYMR90~1\AppData\Local\Temp\cchoDgth.s:28198  .debug_str:0000000000016350 .LASF1837
C:\Users\CYMR90~1\AppData\Local\Temp\cchoDgth.s:28929  .debug_str:0000000000019348 .LASF1838
C:\Users\CYMR90~1\AppData\Local\Temp\cchoDgth.s:26880  .debug_str:0000000000010ef0 .LASF1839
C:\Users\CYMR90~1\AppData\Local\Temp\cchoDgth.s:29901  .debug_str:000000000001d2ec .LASF1840
C:\Users\CYMR90~1\AppData\Local\Temp\cchoDgth.s:29171  .debug_str:000000000001a35b .LASF1841
C:\Users\CYMR90~1\AppData\Local\Temp\cchoDgth.s:32027  .debug_str:000000000002569f .LASF1842
C:\Users\CYMR90~1\AppData\Local\Temp\cchoDgth.s:32433  .debug_str:00000000000271ff .LASF1843
C:\Users\CYMR90~1\AppData\Local\Temp\cchoDgth.s:33635  .debug_str:000000000002bcd9 .LASF1844
C:\Users\CYMR90~1\AppData\Local\Temp\cchoDgth.s:33495  .debug_str:000000000002b402 .LASF1845
C:\Users\CYMR90~1\AppData\Local\Temp\cchoDgth.s:24758  .debug_str:000000000000880a .LASF1846
C:\Users\CYMR90~1\AppData\Local\Temp\cchoDgth.s:30103  .debug_str:000000000001dfda .LASF1847
C:\Users\CYMR90~1\AppData\Local\Temp\cchoDgth.s:31277  .debug_str:00000000000227f5 .LASF1848
C:\Users\CYMR90~1\AppData\Local\Temp\cchoDgth.s:31293  .debug_str:00000000000228e9 .LASF1849
C:\Users\CYMR90~1\AppData\Local\Temp\cchoDgth.s:30495  .debug_str:000000000001f832 .LASF1850
C:\Users\CYMR90~1\AppData\Local\Temp\cchoDgth.s:24816  .debug_str:0000000000008ba5 .LASF1851
C:\Users\CYMR90~1\AppData\Local\Temp\cchoDgth.s:32387  .debug_str:0000000000026f34 .LASF1852
C:\Users\CYMR90~1\AppData\Local\Temp\cchoDgth.s:26072  .debug_str:000000000000dd28 .LASF1853
C:\Users\CYMR90~1\AppData\Local\Temp\cchoDgth.s:23452  .debug_str:00000000000032f7 .LASF1854
C:\Users\CYMR90~1\AppData\Local\Temp\cchoDgth.s:29981  .debug_str:000000000001d85a .LASF1855
C:\Users\CYMR90~1\AppData\Local\Temp\cchoDgth.s:32653  .debug_str:0000000000027fc3 .LASF1856
C:\Users\CYMR90~1\AppData\Local\Temp\cchoDgth.s:24894  .debug_str:000000000000912b .LASF1857
C:\Users\CYMR90~1\AppData\Local\Temp\cchoDgth.s:25764  .debug_str:000000000000c91b .LASF1858
C:\Users\CYMR90~1\AppData\Local\Temp\cchoDgth.s:32749  .debug_str:0000000000028608 .LASF1859
C:\Users\CYMR90~1\AppData\Local\Temp\cchoDgth.s:27940  .debug_str:0000000000015333 .LASF1860
C:\Users\CYMR90~1\AppData\Local\Temp\cchoDgth.s:28873  .debug_str:0000000000018fb9 .LASF1861
C:\Users\CYMR90~1\AppData\Local\Temp\cchoDgth.s:26686  .debug_str:000000000001030f .LASF1862
C:\Users\CYMR90~1\AppData\Local\Temp\cchoDgth.s:24432  .debug_str:0000000000007168 .LASF1863
C:\Users\CYMR90~1\AppData\Local\Temp\cchoDgth.s:28783  .debug_str:0000000000018972 .LASF1864
C:\Users\CYMR90~1\AppData\Local\Temp\cchoDgth.s:24078  .debug_str:0000000000005ba5 .LASF1865
C:\Users\CYMR90~1\AppData\Local\Temp\cchoDgth.s:31487  .debug_str:00000000000234b6 .LASF1866
C:\Users\CYMR90~1\AppData\Local\Temp\cchoDgth.s:30681  .debug_str:00000000000203aa .LASF1867
C:\Users\CYMR90~1\AppData\Local\Temp\cchoDgth.s:25694  .debug_str:000000000000c4ed .LASF1868
C:\Users\CYMR90~1\AppData\Local\Temp\cchoDgth.s:22778  .debug_str:000000000000090a .LASF1869
C:\Users\CYMR90~1\AppData\Local\Temp\cchoDgth.s:23154  .debug_str:0000000000002070 .LASF1870
C:\Users\CYMR90~1\AppData\Local\Temp\cchoDgth.s:22858  .debug_str:0000000000000e1e .LASF1871
C:\Users\CYMR90~1\AppData\Local\Temp\cchoDgth.s:32129  .debug_str:0000000000025e7e .LASF1872
C:\Users\CYMR90~1\AppData\Local\Temp\cchoDgth.s:28393  .debug_str:00000000000171db .LASF1873
C:\Users\CYMR90~1\AppData\Local\Temp\cchoDgth.s:24606  .debug_str:0000000000007d20 .LASF1874
C:\Users\CYMR90~1\AppData\Local\Temp\cchoDgth.s:25486  .debug_str:000000000000b666 .LASF1875
C:\Users\CYMR90~1\AppData\Local\Temp\cchoDgth.s:33217  .debug_str:000000000002a3ee .LASF1876
C:\Users\CYMR90~1\AppData\Local\Temp\cchoDgth.s:23470  .debug_str:000000000000342f .LASF1877
C:\Users\CYMR90~1\AppData\Local\Temp\cchoDgth.s:30163  .debug_str:000000000001e451 .LASF1878
C:\Users\CYMR90~1\AppData\Local\Temp\cchoDgth.s:26526  .debug_str:000000000000f8d3 .LASF1879
C:\Users\CYMR90~1\AppData\Local\Temp\cchoDgth.s:24852  .debug_str:0000000000008dfd .LASF1880
C:\Users\CYMR90~1\AppData\Local\Temp\cchoDgth.s:30475  .debug_str:000000000001f6f5 .LASF1881
C:\Users\CYMR90~1\AppData\Local\Temp\cchoDgth.s:22894  .debug_str:00000000000010ae .LASF1882
C:\Users\CYMR90~1\AppData\Local\Temp\cchoDgth.s:30889  .debug_str:0000000000020fec .LASF1883
C:\Users\CYMR90~1\AppData\Local\Temp\cchoDgth.s:33631  .debug_str:000000000002bc91 .LASF1884
C:\Users\CYMR90~1\AppData\Local\Temp\cchoDgth.s:30587  .debug_str:000000000001fd97 .LASF1885
C:\Users\CYMR90~1\AppData\Local\Temp\cchoDgth.s:32765  .debug_str:0000000000028708 .LASF1886
C:\Users\CYMR90~1\AppData\Local\Temp\cchoDgth.s:25078  .debug_str:0000000000009c10 .LASF1887
C:\Users\CYMR90~1\AppData\Local\Temp\cchoDgth.s:24882  .debug_str:000000000000905e .LASF1888
C:\Users\CYMR90~1\AppData\Local\Temp\cchoDgth.s:33663  .debug_str:000000000002be72 .LASF1889
C:\Users\CYMR90~1\AppData\Local\Temp\cchoDgth.s:29023  .debug_str:0000000000019987 .LASF1890
C:\Users\CYMR90~1\AppData\Local\Temp\cchoDgth.s:26464  .debug_str:000000000000f516 .LASF1891
C:\Users\CYMR90~1\AppData\Local\Temp\cchoDgth.s:25164  .debug_str:000000000000a14c .LASF1892
C:\Users\CYMR90~1\AppData\Local\Temp\cchoDgth.s:29783  .debug_str:000000000001ca49 .LASF1893
C:\Users\CYMR90~1\AppData\Local\Temp\cchoDgth.s:24876  .debug_str:0000000000008ff2 .LASF1894
C:\Users\CYMR90~1\AppData\Local\Temp\cchoDgth.s:26136  .debug_str:000000000000e12b .LASF1895
C:\Users\CYMR90~1\AppData\Local\Temp\cchoDgth.s:28473  .debug_str:0000000000017687 .LASF1896
C:\Users\CYMR90~1\AppData\Local\Temp\cchoDgth.s:23104  .debug_str:0000000000001d73 .LASF1897
C:\Users\CYMR90~1\AppData\Local\Temp\cchoDgth.s:32503  .debug_str:000000000002763b .LASF1898
C:\Users\CYMR90~1\AppData\Local\Temp\cchoDgth.s:29273  .debug_str:000000000001aa90 .LASF1899
C:\Users\CYMR90~1\AppData\Local\Temp\cchoDgth.s:25964  .debug_str:000000000000d66e .LASF1900
C:\Users\CYMR90~1\AppData\Local\Temp\cchoDgth.s:22698  .debug_str:0000000000000438 .LASF1901
C:\Users\CYMR90~1\AppData\Local\Temp\cchoDgth.s:23534  .debug_str:000000000000385d .LASF1902
C:\Users\CYMR90~1\AppData\Local\Temp\cchoDgth.s:25598  .debug_str:000000000000bde1 .LASF1903
C:\Users\CYMR90~1\AppData\Local\Temp\cchoDgth.s:33915  .debug_str:000000000002cf33 .LASF1904
C:\Users\CYMR90~1\AppData\Local\Temp\cchoDgth.s:28332  .debug_str:0000000000016bbf .LASF1905
C:\Users\CYMR90~1\AppData\Local\Temp\cchoDgth.s:25036  .debug_str:000000000000993c .LASF1906
C:\Users\CYMR90~1\AppData\Local\Temp\cchoDgth.s:32841  .debug_str:0000000000028cbc .LASF1907
C:\Users\CYMR90~1\AppData\Local\Temp\cchoDgth.s:29825  .debug_str:000000000001cd99 .LASF1908
C:\Users\CYMR90~1\AppData\Local\Temp\cchoDgth.s:24066  .debug_str:0000000000005adb .LASF1909
C:\Users\CYMR90~1\AppData\Local\Temp\cchoDgth.s:33209  .debug_str:000000000002a371 .LASF1910
C:\Users\CYMR90~1\AppData\Local\Temp\cchoDgth.s:29453  .debug_str:000000000001b6ca .LASF1911
C:\Users\CYMR90~1\AppData\Local\Temp\cchoDgth.s:29125  .debug_str:000000000001a0c4 .LASF1912
C:\Users\CYMR90~1\AppData\Local\Temp\cchoDgth.s:25504  .debug_str:000000000000b7f2 .LASF1913
C:\Users\CYMR90~1\AppData\Local\Temp\cchoDgth.s:25336  .debug_str:000000000000ac70 .LASF1914
C:\Users\CYMR90~1\AppData\Local\Temp\cchoDgth.s:30785  .debug_str:000000000002097a .LASF1915
C:\Users\CYMR90~1\AppData\Local\Temp\cchoDgth.s:32105  .debug_str:0000000000025cad .LASF1916
C:\Users\CYMR90~1\AppData\Local\Temp\cchoDgth.s:28637  .debug_str:000000000001809e .LASF1917
C:\Users\CYMR90~1\AppData\Local\Temp\cchoDgth.s:25240  .debug_str:000000000000a60d .LASF1918
C:\Users\CYMR90~1\AppData\Local\Temp\cchoDgth.s:33263  .debug_str:000000000002a69e .LASF1919
C:\Users\CYMR90~1\AppData\Local\Temp\cchoDgth.s:29793  .debug_str:000000000001caec .LASF1920
C:\Users\CYMR90~1\AppData\Local\Temp\cchoDgth.s:25926  .debug_str:000000000000d358 .LASF1921
C:\Users\CYMR90~1\AppData\Local\Temp\cchoDgth.s:24452  .debug_str:00000000000072d3 .LASF1922
C:\Users\CYMR90~1\AppData\Local\Temp\cchoDgth.s:30855  .debug_str:0000000000020e1a .LASF1923
C:\Users\CYMR90~1\AppData\Local\Temp\cchoDgth.s:32995  .debug_str:000000000002961c .LASF1924
C:\Users\CYMR90~1\AppData\Local\Temp\cchoDgth.s:25358  .debug_str:000000000000ae04 .LASF1925
C:\Users\CYMR90~1\AppData\Local\Temp\cchoDgth.s:30679  .debug_str:000000000002037c .LASF1926
C:\Users\CYMR90~1\AppData\Local\Temp\cchoDgth.s:29687  .debug_str:000000000001c4a2 .LASF1927
C:\Users\CYMR90~1\AppData\Local\Temp\cchoDgth.s:30405  .debug_str:000000000001f26a .LASF1928
C:\Users\CYMR90~1\AppData\Local\Temp\cchoDgth.s:24504  .debug_str:0000000000007673 .LASF1929
C:\Users\CYMR90~1\AppData\Local\Temp\cchoDgth.s:30605  .debug_str:000000000001fed0 .LASF1930
C:\Users\CYMR90~1\AppData\Local\Temp\cchoDgth.s:33943  .debug_str:000000000002d127 .LASF1931
C:\Users\CYMR90~1\AppData\Local\Temp\cchoDgth.s:33623  .debug_str:000000000002bbf7 .LASF1932
C:\Users\CYMR90~1\AppData\Local\Temp\cchoDgth.s:24618  .debug_str:0000000000007dca .LASF1933
C:\Users\CYMR90~1\AppData\Local\Temp\cchoDgth.s:25672  .debug_str:000000000000c364 .LASF1934
C:\Users\CYMR90~1\AppData\Local\Temp\cchoDgth.s:29765  .debug_str:000000000001c927 .LASF1935
C:\Users\CYMR90~1\AppData\Local\Temp\cchoDgth.s:24108  .debug_str:0000000000005d9d .LASF1936
C:\Users\CYMR90~1\AppData\Local\Temp\cchoDgth.s:29623  .debug_str:000000000001c0bb .LASF1937
C:\Users\CYMR90~1\AppData\Local\Temp\cchoDgth.s:28585  .debug_str:0000000000017da1 .LASF1938
C:\Users\CYMR90~1\AppData\Local\Temp\cchoDgth.s:27890  .debug_str:0000000000014fc8 .LASF1939
C:\Users\CYMR90~1\AppData\Local\Temp\cchoDgth.s:24802  .debug_str:0000000000008a8c .LASF1940
C:\Users\CYMR90~1\AppData\Local\Temp\cchoDgth.s:33059  .debug_str:0000000000029a0a .LASF1941
C:\Users\CYMR90~1\AppData\Local\Temp\cchoDgth.s:29883  .debug_str:000000000001d12f .LASF1942
C:\Users\CYMR90~1\AppData\Local\Temp\cchoDgth.s:25728  .debug_str:000000000000c6ed .LASF1943
C:\Users\CYMR90~1\AppData\Local\Temp\cchoDgth.s:26862  .debug_str:0000000000010d6a .LASF1944
C:\Users\CYMR90~1\AppData\Local\Temp\cchoDgth.s:30715  .debug_str:00000000000205b5 .LASF1945
C:\Users\CYMR90~1\AppData\Local\Temp\cchoDgth.s:27604  .debug_str:0000000000013de7 .LASF1946
C:\Users\CYMR90~1\AppData\Local\Temp\cchoDgth.s:24394  .debug_str:0000000000006f32 .LASF1947
C:\Users\CYMR90~1\AppData\Local\Temp\cchoDgth.s:23302  .debug_str:000000000000296e .LASF1948
C:\Users\CYMR90~1\AppData\Local\Temp\cchoDgth.s:29511  .debug_str:000000000001ba2f .LASF1949
C:\Users\CYMR90~1\AppData\Local\Temp\cchoDgth.s:26406  .debug_str:000000000000f187 .LASF1950
C:\Users\CYMR90~1\AppData\Local\Temp\cchoDgth.s:23174  .debug_str:000000000000217c .LASF1951
C:\Users\CYMR90~1\AppData\Local\Temp\cchoDgth.s:31501  .debug_str:000000000002355f .LASF1952
C:\Users\CYMR90~1\AppData\Local\Temp\cchoDgth.s:32235  .debug_str:00000000000265ab .LASF1953
C:\Users\CYMR90~1\AppData\Local\Temp\cchoDgth.s:27730  .debug_str:00000000000145cf .LASF1954
C:\Users\CYMR90~1\AppData\Local\Temp\cchoDgth.s:31021  .debug_str:0000000000021801 .LASF1955
C:\Users\CYMR90~1\AppData\Local\Temp\cchoDgth.s:31703  .debug_str:000000000002416a .LASF1956
C:\Users\CYMR90~1\AppData\Local\Temp\cchoDgth.s:23228  .debug_str:0000000000002478 .LASF1957
C:\Users\CYMR90~1\AppData\Local\Temp\cchoDgth.s:33467  .debug_str:000000000002b286 .LASF1958
C:\Users\CYMR90~1\AppData\Local\Temp\cchoDgth.s:24624  .debug_str:0000000000007e3b .LASF1959
C:\Users\CYMR90~1\AppData\Local\Temp\cchoDgth.s:33043  .debug_str:0000000000029924 .LASF1960
C:\Users\CYMR90~1\AppData\Local\Temp\cchoDgth.s:29833  .debug_str:000000000001ce1f .LASF1961
C:\Users\CYMR90~1\AppData\Local\Temp\cchoDgth.s:22738  .debug_str:0000000000000688 .LASF1962
C:\Users\CYMR90~1\AppData\Local\Temp\cchoDgth.s:28108  .debug_str:0000000000015ce7 .LASF1963
C:\Users\CYMR90~1\AppData\Local\Temp\cchoDgth.s:32085  .debug_str:0000000000025b47 .LASF1964
C:\Users\CYMR90~1\AppData\Local\Temp\cchoDgth.s:24456  .debug_str:000000000000733e .LASF1965
C:\Users\CYMR90~1\AppData\Local\Temp\cchoDgth.s:29973  .debug_str:000000000001d7bf .LASF1966
C:\Users\CYMR90~1\AppData\Local\Temp\cchoDgth.s:33045  .debug_str:0000000000029944 .LASF1967
C:\Users\CYMR90~1\AppData\Local\Temp\cchoDgth.s:29807  .debug_str:000000000001cc7b .LASF1968
C:\Users\CYMR90~1\AppData\Local\Temp\cchoDgth.s:31381  .debug_str:0000000000022e03 .LASF1969
C:\Users\CYMR90~1\AppData\Local\Temp\cchoDgth.s:25778  .debug_str:000000000000c9e4 .LASF1970
C:\Users\CYMR90~1\AppData\Local\Temp\cchoDgth.s:31387  .debug_str:0000000000022e51 .LASF1971
C:\Users\CYMR90~1\AppData\Local\Temp\cchoDgth.s:32121  .debug_str:0000000000025dd7 .LASF1972
C:\Users\CYMR90~1\AppData\Local\Temp\cchoDgth.s:29111  .debug_str:0000000000019fe6 .LASF1973
C:\Users\CYMR90~1\AppData\Local\Temp\cchoDgth.s:28915  .debug_str:0000000000019279 .LASF1974
C:\Users\CYMR90~1\AppData\Local\Temp\cchoDgth.s:33515  .debug_str:000000000002b555 .LASF1975
C:\Users\CYMR90~1\AppData\Local\Temp\cchoDgth.s:24642  .debug_str:0000000000007fed .LASF1976
C:\Users\CYMR90~1\AppData\Local\Temp\cchoDgth.s:24982  .debug_str:0000000000009602 .LASF1977
C:\Users\CYMR90~1\AppData\Local\Temp\cchoDgth.s:33285  .debug_str:000000000002a7ec .LASF1978
C:\Users\CYMR90~1\AppData\Local\Temp\cchoDgth.s:23926  .debug_str:0000000000005241 .LASF1979
C:\Users\CYMR90~1\AppData\Local\Temp\cchoDgth.s:32017  .debug_str:00000000000255f8 .LASF1980
C:\Users\CYMR90~1\AppData\Local\Temp\cchoDgth.s:31871  .debug_str:0000000000024c3a .LASF1981
C:\Users\CYMR90~1\AppData\Local\Temp\cchoDgth.s:31709  .debug_str:00000000000241c8 .LASF1982
C:\Users\CYMR90~1\AppData\Local\Temp\cchoDgth.s:32551  .debug_str:00000000000278fa .LASF1983
C:\Users\CYMR90~1\AppData\Local\Temp\cchoDgth.s:33469  .debug_str:000000000002b2a4 .LASF1984
C:\Users\CYMR90~1\AppData\Local\Temp\cchoDgth.s:30369  .debug_str:000000000001f062 .LASF1985
C:\Users\CYMR90~1\AppData\Local\Temp\cchoDgth.s:29541  .debug_str:000000000001bc1a .LASF1986
C:\Users\CYMR90~1\AppData\Local\Temp\cchoDgth.s:27804  .debug_str:0000000000014a70 .LASF1987
C:\Users\CYMR90~1\AppData\Local\Temp\cchoDgth.s:28813  .debug_str:0000000000018b5d .LASF1988
C:\Users\CYMR90~1\AppData\Local\Temp\cchoDgth.s:25828  .debug_str:000000000000cd6d .LASF1989
C:\Users\CYMR90~1\AppData\Local\Temp\cchoDgth.s:23664  .debug_str:00000000000040c9 .LASF1990
C:\Users\CYMR90~1\AppData\Local\Temp\cchoDgth.s:25886  .debug_str:000000000000d096 .LASF1991
C:\Users\CYMR90~1\AppData\Local\Temp\cchoDgth.s:26780  .debug_str:00000000000108b1 .LASF1992
C:\Users\CYMR90~1\AppData\Local\Temp\cchoDgth.s:29545  .debug_str:000000000001bc61 .LASF1993
C:\Users\CYMR90~1\AppData\Local\Temp\cchoDgth.s:22890  .debug_str:000000000000107e .LASF1994
C:\Users\CYMR90~1\AppData\Local\Temp\cchoDgth.s:32137  .debug_str:0000000000025f12 .LASF1995
C:\Users\CYMR90~1\AppData\Local\Temp\cchoDgth.s:23532  .debug_str:0000000000003829 .LASF1996
C:\Users\CYMR90~1\AppData\Local\Temp\cchoDgth.s:32601  .debug_str:0000000000027ce8 .LASF1997
C:\Users\CYMR90~1\AppData\Local\Temp\cchoDgth.s:24774  .debug_str:00000000000088d1 .LASF1998
C:\Users\CYMR90~1\AppData\Local\Temp\cchoDgth.s:28741  .debug_str:0000000000018703 .LASF1999
C:\Users\CYMR90~1\AppData\Local\Temp\cchoDgth.s:28216  .debug_str:0000000000016459 .LASF2000
C:\Users\CYMR90~1\AppData\Local\Temp\cchoDgth.s:27024  .debug_str:000000000001172c .LASF2001
C:\Users\CYMR90~1\AppData\Local\Temp\cchoDgth.s:31395  .debug_str:0000000000022ee3 .LASF2002
C:\Users\CYMR90~1\AppData\Local\Temp\cchoDgth.s:32819  .debug_str:0000000000028b71 .LASF2003
C:\Users\CYMR90~1\AppData\Local\Temp\cchoDgth.s:26576  .debug_str:000000000000fc4b .LASF2004
C:\Users\CYMR90~1\AppData\Local\Temp\cchoDgth.s:31279  .debug_str:0000000000022810 .LASF2005
C:\Users\CYMR90~1\AppData\Local\Temp\cchoDgth.s:28429  .debug_str:00000000000173f1 .LASF2006
C:\Users\CYMR90~1\AppData\Local\Temp\cchoDgth.s:33719  .debug_str:000000000002c25a .LASF2007
C:\Users\CYMR90~1\AppData\Local\Temp\cchoDgth.s:23972  .debug_str:000000000000553d .LASF2008
C:\Users\CYMR90~1\AppData\Local\Temp\cchoDgth.s:27530  .debug_str:000000000001399b .LASF2009
C:\Users\CYMR90~1\AppData\Local\Temp\cchoDgth.s:30257  .debug_str:000000000001e9e7 .LASF2010
C:\Users\CYMR90~1\AppData\Local\Temp\cchoDgth.s:25854  .debug_str:000000000000cee2 .LASF2011
C:\Users\CYMR90~1\AppData\Local\Temp\cchoDgth.s:23084  .debug_str:0000000000001c62 .LASF2012
C:\Users\CYMR90~1\AppData\Local\Temp\cchoDgth.s:31587  .debug_str:0000000000023a30 .LASF2013
C:\Users\CYMR90~1\AppData\Local\Temp\cchoDgth.s:31331  .debug_str:0000000000022ad3 .LASF2014
C:\Users\CYMR90~1\AppData\Local\Temp\cchoDgth.s:29251  .debug_str:000000000001a949 .LASF2015
C:\Users\CYMR90~1\AppData\Local\Temp\cchoDgth.s:33195  .debug_str:000000000002a2a1 .LASF2016
C:\Users\CYMR90~1\AppData\Local\Temp\cchoDgth.s:31493  .debug_str:0000000000023508 .LASF2017
C:\Users\CYMR90~1\AppData\Local\Temp\cchoDgth.s:33625  .debug_str:000000000002bc27 .LASF2018
C:\Users\CYMR90~1\AppData\Local\Temp\cchoDgth.s:30011  .debug_str:000000000001da16 .LASF2019
C:\Users\CYMR90~1\AppData\Local\Temp\cchoDgth.s:24332  .debug_str:0000000000006b45 .LASF2020
C:\Users\CYMR90~1\AppData\Local\Temp\cchoDgth.s:31537  .debug_str:000000000002375b .LASF2021
C:\Users\CYMR90~1\AppData\Local\Temp\cchoDgth.s:32541  .debug_str:000000000002787c .LASF2022
C:\Users\CYMR90~1\AppData\Local\Temp\cchoDgth.s:26906  .debug_str:000000000001103a .LASF2023
C:\Users\CYMR90~1\AppData\Local\Temp\cchoDgth.s:32481  .debug_str:000000000002749f .LASF2024
C:\Users\CYMR90~1\AppData\Local\Temp\cchoDgth.s:25570  .debug_str:000000000000bc80 .LASF2025
C:\Users\CYMR90~1\AppData\Local\Temp\cchoDgth.s:33575  .debug_str:000000000002b893 .LASF2026
C:\Users\CYMR90~1\AppData\Local\Temp\cchoDgth.s:23496  .debug_str:00000000000035e7 .LASF2027
C:\Users\CYMR90~1\AppData\Local\Temp\cchoDgth.s:31599  .debug_str:0000000000023ad6 .LASF2028
C:\Users\CYMR90~1\AppData\Local\Temp\cchoDgth.s:30575  .debug_str:000000000001fcc3 .LASF2029
C:\Users\CYMR90~1\AppData\Local\Temp\cchoDgth.s:33155  .debug_str:000000000002a05b .LASF2030
C:\Users\CYMR90~1\AppData\Local\Temp\cchoDgth.s:28641  .debug_str:00000000000180df .LASF2031
C:\Users\CYMR90~1\AppData\Local\Temp\cchoDgth.s:25328  .debug_str:000000000000ac0d .LASF2032
C:\Users\CYMR90~1\AppData\Local\Temp\cchoDgth.s:26544  .debug_str:000000000000fa88 .LASF2033
C:\Users\CYMR90~1\AppData\Local\Temp\cchoDgth.s:25548  .debug_str:000000000000bac5 .LASF2034
C:\Users\CYMR90~1\AppData\Local\Temp\cchoDgth.s:27100  .debug_str:0000000000011d12 .LASF2035
C:\Users\CYMR90~1\AppData\Local\Temp\cchoDgth.s:31055  .debug_str:0000000000021a9e .LASF2036
C:\Users\CYMR90~1\AppData\Local\Temp\cchoDgth.s:31469  .debug_str:000000000002339c .LASF2037
C:\Users\CYMR90~1\AppData\Local\Temp\cchoDgth.s:32065  .debug_str:0000000000025961 .LASF2038
C:\Users\CYMR90~1\AppData\Local\Temp\cchoDgth.s:27194  .debug_str:000000000001230f .LASF2039
C:\Users\CYMR90~1\AppData\Local\Temp\cchoDgth.s:29191  .debug_str:000000000001a46d .LASF2040
C:\Users\CYMR90~1\AppData\Local\Temp\cchoDgth.s:25882  .debug_str:000000000000d046 .LASF2041
C:\Users\CYMR90~1\AppData\Local\Temp\cchoDgth.s:23310  .debug_str:00000000000029e1 .LASF2042
C:\Users\CYMR90~1\AppData\Local\Temp\cchoDgth.s:24068  .debug_str:0000000000005b19 .LASF2043
C:\Users\CYMR90~1\AppData\Local\Temp\cchoDgth.s:24750  .debug_str:0000000000008772 .LASF2044
C:\Users\CYMR90~1\AppData\Local\Temp\cchoDgth.s:27500  .debug_str:000000000001378b .LASF2045
C:\Users\CYMR90~1\AppData\Local\Temp\cchoDgth.s:31347  .debug_str:0000000000022bc0 .LASF2046
C:\Users\CYMR90~1\AppData\Local\Temp\cchoDgth.s:33007  .debug_str:00000000000296f3 .LASF2047
C:\Users\CYMR90~1\AppData\Local\Temp\cchoDgth.s:29667  .debug_str:000000000001c360 .LASF2048
C:\Users\CYMR90~1\AppData\Local\Temp\cchoDgth.s:30215  .debug_str:000000000001e758 .LASF2049
C:\Users\CYMR90~1\AppData\Local\Temp\cchoDgth.s:24130  .debug_str:0000000000005ee5 .LASF2050
C:\Users\CYMR90~1\AppData\Local\Temp\cchoDgth.s:23482  .debug_str:00000000000034ed .LASF2051
C:\Users\CYMR90~1\AppData\Local\Temp\cchoDgth.s:25454  .debug_str:000000000000b4b7 .LASF2052
C:\Users\CYMR90~1\AppData\Local\Temp\cchoDgth.s:32103  .debug_str:0000000000025c66 .LASF2053
C:\Users\CYMR90~1\AppData\Local\Temp\cchoDgth.s:33421  .debug_str:000000000002aff2 .LASF2054
C:\Users\CYMR90~1\AppData\Local\Temp\cchoDgth.s:23936  .debug_str:00000000000052e9 .LASF2055
C:\Users\CYMR90~1\AppData\Local\Temp\cchoDgth.s:32437  .debug_str:0000000000027236 .LASF2056
C:\Users\CYMR90~1\AppData\Local\Temp\cchoDgth.s:30387  .debug_str:000000000001f170 .LASF2057
C:\Users\CYMR90~1\AppData\Local\Temp\cchoDgth.s:28491  .debug_str:00000000000177a1 .LASF2058
C:\Users\CYMR90~1\AppData\Local\Temp\cchoDgth.s:25320  .debug_str:000000000000ab86 .LASF2059
C:\Users\CYMR90~1\AppData\Local\Temp\cchoDgth.s:26128  .debug_str:000000000000e0ab .LASF2060
C:\Users\CYMR90~1\AppData\Local\Temp\cchoDgth.s:30841  .debug_str:0000000000020d65 .LASF2061
C:\Users\CYMR90~1\AppData\Local\Temp\cchoDgth.s:27636  .debug_str:0000000000013fdb .LASF2062
C:\Users\CYMR90~1\AppData\Local\Temp\cchoDgth.s:23282  .debug_str:00000000000027fe .LASF2063
C:\Users\CYMR90~1\AppData\Local\Temp\cchoDgth.s:29395  .debug_str:000000000001b2b0 .LASF2064
C:\Users\CYMR90~1\AppData\Local\Temp\cchoDgth.s:28246  .debug_str:0000000000016624 .LASF2065
C:\Users\CYMR90~1\AppData\Local\Temp\cchoDgth.s:25000  .debug_str:00000000000096f2 .LASF2066
C:\Users\CYMR90~1\AppData\Local\Temp\cchoDgth.s:25482  .debug_str:000000000000b62a .LASF2067
C:\Users\CYMR90~1\AppData\Local\Temp\cchoDgth.s:28591  .debug_str:0000000000017e02 .LASF2068
C:\Users\CYMR90~1\AppData\Local\Temp\cchoDgth.s:28190  .debug_str:00000000000162af .LASF2069
C:\Users\CYMR90~1\AppData\Local\Temp\cchoDgth.s:26018  .debug_str:000000000000d9a6 .LASF2070
C:\Users\CYMR90~1\AppData\Local\Temp\cchoDgth.s:24102  .debug_str:0000000000005d56 .LASF2071
C:\Users\CYMR90~1\AppData\Local\Temp\cchoDgth.s:27350  .debug_str:0000000000012d48 .LASF2072
C:\Users\CYMR90~1\AppData\Local\Temp\cchoDgth.s:26366  .debug_str:000000000000ef77 .LASF2073
C:\Users\CYMR90~1\AppData\Local\Temp\cchoDgth.s:25612  .debug_str:000000000000beff .LASF2074
C:\Users\CYMR90~1\AppData\Local\Temp\cchoDgth.s:33799  .debug_str:000000000002c7b7 .LASF2075
C:\Users\CYMR90~1\AppData\Local\Temp\cchoDgth.s:25578  .debug_str:000000000000bce6 .LASF2076
C:\Users\CYMR90~1\AppData\Local\Temp\cchoDgth.s:33085  .debug_str:0000000000029c0b .LASF2077
C:\Users\CYMR90~1\AppData\Local\Temp\cchoDgth.s:23950  .debug_str:00000000000053c0 .LASF2078
C:\Users\CYMR90~1\AppData\Local\Temp\cchoDgth.s:23052  .debug_str:0000000000001a60 .LASF2079
C:\Users\CYMR90~1\AppData\Local\Temp\cchoDgth.s:31627  .debug_str:0000000000023cae .LASF2080
C:\Users\CYMR90~1\AppData\Local\Temp\cchoDgth.s:32967  .debug_str:0000000000029471 .LASF2081
C:\Users\CYMR90~1\AppData\Local\Temp\cchoDgth.s:33061  .debug_str:0000000000029a32 .LASF2082
C:\Users\CYMR90~1\AppData\Local\Temp\cchoDgth.s:27220  .debug_str:000000000001248b .LASF2083
C:\Users\CYMR90~1\AppData\Local\Temp\cchoDgth.s:24662  .debug_str:0000000000008132 .LASF2084
C:\Users\CYMR90~1\AppData\Local\Temp\cchoDgth.s:30167  .debug_str:000000000001e497 .LASF2085
C:\Users\CYMR90~1\AppData\Local\Temp\cchoDgth.s:22944  .debug_str:0000000000001388 .LASF2086
C:\Users\CYMR90~1\AppData\Local\Temp\cchoDgth.s:29093  .debug_str:0000000000019eba .LASF2087
C:\Users\CYMR90~1\AppData\Local\Temp\cchoDgth.s:29459  .debug_str:000000000001b73e .LASF2088
C:\Users\CYMR90~1\AppData\Local\Temp\cchoDgth.s:30545  .debug_str:000000000001fb1c .LASF2089
C:\Users\CYMR90~1\AppData\Local\Temp\cchoDgth.s:28411  .debug_str:0000000000017304 .LASF2090
C:\Users\CYMR90~1\AppData\Local\Temp\cchoDgth.s:27156  .debug_str:000000000001207a .LASF2091
C:\Users\CYMR90~1\AppData\Local\Temp\cchoDgth.s:28519  .debug_str:0000000000017955 .LASF2092
C:\Users\CYMR90~1\AppData\Local\Temp\cchoDgth.s:27664  .debug_str:000000000001418f .LASF2093
C:\Users\CYMR90~1\AppData\Local\Temp\cchoDgth.s:33793  .debug_str:000000000002c763 .LASF2094
C:\Users\CYMR90~1\AppData\Local\Temp\cchoDgth.s:23690  .debug_str:00000000000042d7 .LASF2095
C:\Users\CYMR90~1\AppData\Local\Temp\cchoDgth.s:25120  .debug_str:0000000000009ea2 .LASF2096
C:\Users\CYMR90~1\AppData\Local\Temp\cchoDgth.s:23450  .debug_str:00000000000032cc .LASF2097
C:\Users\CYMR90~1\AppData\Local\Temp\cchoDgth.s:32245  .debug_str:0000000000026649 .LASF2098
C:\Users\CYMR90~1\AppData\Local\Temp\cchoDgth.s:26698  .debug_str:00000000000103e3 .LASF2099
C:\Users\CYMR90~1\AppData\Local\Temp\cchoDgth.s:25488  .debug_str:000000000000b68f .LASF2100
C:\Users\CYMR90~1\AppData\Local\Temp\cchoDgth.s:24270  .debug_str:0000000000006752 .LASF2101
C:\Users\CYMR90~1\AppData\Local\Temp\cchoDgth.s:23362  .debug_str:0000000000002d31 .LASF2102
C:\Users\CYMR90~1\AppData\Local\Temp\cchoDgth.s:25156  .debug_str:000000000000a0a5 .LASF2103
C:\Users\CYMR90~1\AppData\Local\Temp\cchoDgth.s:33749  .debug_str:000000000002c423 .LASF2104
C:\Users\CYMR90~1\AppData\Local\Temp\cchoDgth.s:28517  .debug_str:0000000000017931 .LASF2105
C:\Users\CYMR90~1\AppData\Local\Temp\cchoDgth.s:23466  .debug_str:00000000000033d7 .LASF2106
C:\Users\CYMR90~1\AppData\Local\Temp\cchoDgth.s:33031  .debug_str:0000000000029873 .LASF2107
C:\Users\CYMR90~1\AppData\Local\Temp\cchoDgth.s:27188  .debug_str:0000000000012295 .LASF2108
C:\Users\CYMR90~1\AppData\Local\Temp\cchoDgth.s:23486  .debug_str:000000000000352b .LASF2109
C:\Users\CYMR90~1\AppData\Local\Temp\cchoDgth.s:25928  .debug_str:000000000000d384 .LASF2110
C:\Users\CYMR90~1\AppData\Local\Temp\cchoDgth.s:28465  .debug_str:00000000000175ef .LASF2111
C:\Users\CYMR90~1\AppData\Local\Temp\cchoDgth.s:30565  .debug_str:000000000001fc3d .LASF2112
C:\Users\CYMR90~1\AppData\Local\Temp\cchoDgth.s:33189  .debug_str:000000000002a247 .LASF2113
C:\Users\CYMR90~1\AppData\Local\Temp\cchoDgth.s:32585  .debug_str:0000000000027be0 .LASF2114
C:\Users\CYMR90~1\AppData\Local\Temp\cchoDgth.s:27554  .debug_str:0000000000013adc .LASF2115
C:\Users\CYMR90~1\AppData\Local\Temp\cchoDgth.s:29385  .debug_str:000000000001b1eb .LASF2116
C:\Users\CYMR90~1\AppData\Local\Temp\cchoDgth.s:27742  .debug_str:0000000000014681 .LASF2117
C:\Users\CYMR90~1\AppData\Local\Temp\cchoDgth.s:31861  .debug_str:0000000000024baf .LASF2118
C:\Users\CYMR90~1\AppData\Local\Temp\cchoDgth.s:30505  .debug_str:000000000001f8d1 .LASF2119
C:\Users\CYMR90~1\AppData\Local\Temp\cchoDgth.s:23314  .debug_str:0000000000002a18 .LASF2120
C:\Users\CYMR90~1\AppData\Local\Temp\cchoDgth.s:30957  .debug_str:000000000002142c .LASF2121
C:\Users\CYMR90~1\AppData\Local\Temp\cchoDgth.s:24732  .debug_str:0000000000008653 .LASF2122
C:\Users\CYMR90~1\AppData\Local\Temp\cchoDgth.s:27602  .debug_str:0000000000013dc3 .LASF2123
C:\Users\CYMR90~1\AppData\Local\Temp\cchoDgth.s:30241  .debug_str:000000000001e8ea .LASF2124
C:\Users\CYMR90~1\AppData\Local\Temp\cchoDgth.s:27452  .debug_str:0000000000013407 .LASF2125
C:\Users\CYMR90~1\AppData\Local\Temp\cchoDgth.s:28583  .debug_str:0000000000017d7a .LASF2126
C:\Users\CYMR90~1\AppData\Local\Temp\cchoDgth.s:33823  .debug_str:000000000002c95e .LASF2127
C:\Users\CYMR90~1\AppData\Local\Temp\cchoDgth.s:31071  .debug_str:0000000000021b86 .LASF2128
C:\Users\CYMR90~1\AppData\Local\Temp\cchoDgth.s:26902  .debug_str:0000000000010fff .LASF2129
C:\Users\CYMR90~1\AppData\Local\Temp\cchoDgth.s:30973  .debug_str:0000000000021506 .LASF2130
C:\Users\CYMR90~1\AppData\Local\Temp\cchoDgth.s:28803  .debug_str:0000000000018ab0 .LASF2131
C:\Users\CYMR90~1\AppData\Local\Temp\cchoDgth.s:30779  .debug_str:000000000002091d .LASF2132
C:\Users\CYMR90~1\AppData\Local\Temp\cchoDgth.s:27092  .debug_str:0000000000011c88 .LASF2133
C:\Users\CYMR90~1\AppData\Local\Temp\cchoDgth.s:23456  .debug_str:0000000000003339 .LASF2134
C:\Users\CYMR90~1\AppData\Local\Temp\cchoDgth.s:23198  .debug_str:00000000000022cb .LASF2135
C:\Users\CYMR90~1\AppData\Local\Temp\cchoDgth.s:28965  .debug_str:0000000000019623 .LASF2136
C:\Users\CYMR90~1\AppData\Local\Temp\cchoDgth.s:33293  .debug_str:000000000002a87b .LASF2137
C:\Users\CYMR90~1\AppData\Local\Temp\cchoDgth.s:24734  .debug_str:0000000000008678 .LASF2138
C:\Users\CYMR90~1\AppData\Local\Temp\cchoDgth.s:31163  .debug_str:000000000002213b .LASF2139
C:\Users\CYMR90~1\AppData\Local\Temp\cchoDgth.s:27000  .debug_str:00000000000115a1 .LASF2140
C:\Users\CYMR90~1\AppData\Local\Temp\cchoDgth.s:26486  .debug_str:000000000000f690 .LASF2141
C:\Users\CYMR90~1\AppData\Local\Temp\cchoDgth.s:30521  .debug_str:000000000001f9ae .LASF2142
C:\Users\CYMR90~1\AppData\Local\Temp\cchoDgth.s:31093  .debug_str:0000000000021cc7 .LASF2143
C:\Users\CYMR90~1\AppData\Local\Temp\cchoDgth.s:27288  .debug_str:0000000000012914 .LASF2144
C:\Users\CYMR90~1\AppData\Local\Temp\cchoDgth.s:23488  .debug_str:0000000000003552 .LASF2145
C:\Users\CYMR90~1\AppData\Local\Temp\cchoDgth.s:22654  .debug_str:000000000000017c .LASF2146
C:\Users\CYMR90~1\AppData\Local\Temp\cchoDgth.s:23078  .debug_str:0000000000001bf1 .LASF2147
C:\Users\CYMR90~1\AppData\Local\Temp\cchoDgth.s:28525  .debug_str:00000000000179ab .LASF2148
C:\Users\CYMR90~1\AppData\Local\Temp\cchoDgth.s:27970  .debug_str:000000000001551e .LASF2149
C:\Users\CYMR90~1\AppData\Local\Temp\cchoDgth.s:32587  .debug_str:0000000000027c07 .LASF2150
C:\Users\CYMR90~1\AppData\Local\Temp\cchoDgth.s:27556  .debug_str:0000000000013b03 .LASF2151
C:\Users\CYMR90~1\AppData\Local\Temp\cchoDgth.s:26098  .debug_str:000000000000de80 .LASF2152
C:\Users\CYMR90~1\AppData\Local\Temp\cchoDgth.s:33147  .debug_str:0000000000029ffd .LASF2153
C:\Users\CYMR90~1\AppData\Local\Temp\cchoDgth.s:28292  .debug_str:0000000000016929 .LASF2154
C:\Users\CYMR90~1\AppData\Local\Temp\cchoDgth.s:23004  .debug_str:0000000000001715 .LASF2155
C:\Users\CYMR90~1\AppData\Local\Temp\cchoDgth.s:23560  .debug_str:0000000000003a29 .LASF2156
C:\Users\CYMR90~1\AppData\Local\Temp\cchoDgth.s:32553  .debug_str:000000000002791d .LASF2157
C:\Users\CYMR90~1\AppData\Local\Temp\cchoDgth.s:26940  .debug_str:000000000001122e .LASF2158
C:\Users\CYMR90~1\AppData\Local\Temp\cchoDgth.s:28865  .debug_str:0000000000018eba .LASF2159
C:\Users\CYMR90~1\AppData\Local\Temp\cchoDgth.s:32351  .debug_str:0000000000026cd3 .LASF2160
C:\Users\CYMR90~1\AppData\Local\Temp\cchoDgth.s:24898  .debug_str:000000000000916d .LASF2161
C:\Users\CYMR90~1\AppData\Local\Temp\cchoDgth.s:33271  .debug_str:000000000002a722 .LASF2162
C:\Users\CYMR90~1\AppData\Local\Temp\cchoDgth.s:33981  .debug_str:000000000002d372 .LASF2163
C:\Users\CYMR90~1\AppData\Local\Temp\cchoDgth.s:23590  .debug_str:0000000000003c13 .LASF2164
C:\Users\CYMR90~1\AppData\Local\Temp\cchoDgth.s:31607  .debug_str:0000000000023b5a .LASF2165
C:\Users\CYMR90~1\AppData\Local\Temp\cchoDgth.s:28945  .debug_str:000000000001951d .LASF2166
C:\Users\CYMR90~1\AppData\Local\Temp\cchoDgth.s:26480  .debug_str:000000000000f639 .LASF2167
C:\Users\CYMR90~1\AppData\Local\Temp\cchoDgth.s:24766  .debug_str:0000000000008865 .LASF2168
C:\Users\CYMR90~1\AppData\Local\Temp\cchoDgth.s:30067  .debug_str:000000000001ddd4 .LASF2169
C:\Users\CYMR90~1\AppData\Local\Temp\cchoDgth.s:28238  .debug_str:00000000000165a6 .LASF2170
C:\Users\CYMR90~1\AppData\Local\Temp\cchoDgth.s:26252  .debug_str:000000000000e828 .LASF2171
C:\Users\CYMR90~1\AppData\Local\Temp\cchoDgth.s:26394  .debug_str:000000000000f0dd .LASF2172
C:\Users\CYMR90~1\AppData\Local\Temp\cchoDgth.s:30527  .debug_str:000000000001fa10 .LASF2173
C:\Users\CYMR90~1\AppData\Local\Temp\cchoDgth.s:28178  .debug_str:00000000000161d2 .LASF2174
C:\Users\CYMR90~1\AppData\Local\Temp\cchoDgth.s:27150  .debug_str:0000000000012038 .LASF2175
C:\Users\CYMR90~1\AppData\Local\Temp\cchoDgth.s:30311  .debug_str:000000000001ed4e .LASF2176
C:\Users\CYMR90~1\AppData\Local\Temp\cchoDgth.s:25490  .debug_str:000000000000b69e .LASF2177
C:\Users\CYMR90~1\AppData\Local\Temp\cchoDgth.s:31239  .debug_str:00000000000225ad .LASF2178
C:\Users\CYMR90~1\AppData\Local\Temp\cchoDgth.s:26112  .debug_str:000000000000df6e .LASF2179
C:\Users\CYMR90~1\AppData\Local\Temp\cchoDgth.s:24614  .debug_str:0000000000007d94 .LASF2180
C:\Users\CYMR90~1\AppData\Local\Temp\cchoDgth.s:32265  .debug_str:00000000000267b1 .LASF2181
C:\Users\CYMR90~1\AppData\Local\Temp\cchoDgth.s:26282  .debug_str:000000000000ea4a .LASF2182
C:\Users\CYMR90~1\AppData\Local\Temp\cchoDgth.s:28212  .debug_str:0000000000016423 .LASF2183
C:\Users\CYMR90~1\AppData\Local\Temp\cchoDgth.s:23708  .debug_str:00000000000043bc .LASF2184
C:\Users\CYMR90~1\AppData\Local\Temp\cchoDgth.s:26568  .debug_str:000000000000fbef .LASF2185
C:\Users\CYMR90~1\AppData\Local\Temp\cchoDgth.s:33535  .debug_str:000000000002b674 .LASF2186
C:\Users\CYMR90~1\AppData\Local\Temp\cchoDgth.s:30323  .debug_str:000000000001edfe .LASF2187
C:\Users\CYMR90~1\AppData\Local\Temp\cchoDgth.s:25104  .debug_str:0000000000009dd0 .LASF2188
C:\Users\CYMR90~1\AppData\Local\Temp\cchoDgth.s:29289  .debug_str:000000000001ac13 .LASF2189
C:\Users\CYMR90~1\AppData\Local\Temp\cchoDgth.s:23648  .debug_str:0000000000003f5e .LASF2190
C:\Users\CYMR90~1\AppData\Local\Temp\cchoDgth.s:25204  .debug_str:000000000000a3e5 .LASF2191
C:\Users\CYMR90~1\AppData\Local\Temp\cchoDgth.s:32015  .debug_str:00000000000255bc .LASF2192
C:\Users\CYMR90~1\AppData\Local\Temp\cchoDgth.s:23574  .debug_str:0000000000003af5 .LASF2193
C:\Users\CYMR90~1\AppData\Local\Temp\cchoDgth.s:27028  .debug_str:000000000001175c .LASF2194
C:\Users\CYMR90~1\AppData\Local\Temp\cchoDgth.s:23338  .debug_str:0000000000002bad .LASF2195
C:\Users\CYMR90~1\AppData\Local\Temp\cchoDgth.s:24558  .debug_str:00000000000079bc .LASF2196
C:\Users\CYMR90~1\AppData\Local\Temp\cchoDgth.s:27904  .debug_str:00000000000150c1 .LASF2197
C:\Users\CYMR90~1\AppData\Local\Temp\cchoDgth.s:24828  .debug_str:0000000000008c70 .LASF2198
C:\Users\CYMR90~1\AppData\Local\Temp\cchoDgth.s:30773  .debug_str:00000000000208d4 .LASF2199
C:\Users\CYMR90~1\AppData\Local\Temp\cchoDgth.s:25344  .debug_str:000000000000ad0a .LASF2200
C:\Users\CYMR90~1\AppData\Local\Temp\cchoDgth.s:31307  .debug_str:00000000000229ac .LASF2201
C:\Users\CYMR90~1\AppData\Local\Temp\cchoDgth.s:30609  .debug_str:000000000001ff11 .LASF2202
C:\Users\CYMR90~1\AppData\Local\Temp\cchoDgth.s:31829  .debug_str:000000000002496a .LASF2203
C:\Users\CYMR90~1\AppData\Local\Temp\cchoDgth.s:32423  .debug_str:0000000000027172 .LASF2204
C:\Users\CYMR90~1\AppData\Local\Temp\cchoDgth.s:32249  .debug_str:000000000002667c .LASF2205
C:\Users\CYMR90~1\AppData\Local\Temp\cchoDgth.s:31881  .debug_str:0000000000024cb8 .LASF2206
C:\Users\CYMR90~1\AppData\Local\Temp\cchoDgth.s:30915  .debug_str:00000000000211bf .LASF2207
C:\Users\CYMR90~1\AppData\Local\Temp\cchoDgth.s:26744  .debug_str:000000000001068c .LASF2208
C:\Users\CYMR90~1\AppData\Local\Temp\cchoDgth.s:28911  .debug_str:000000000001922b .LASF2209
C:\Users\CYMR90~1\AppData\Local\Temp\cchoDgth.s:30751  .debug_str:0000000000020789 .LASF2210
C:\Users\CYMR90~1\AppData\Local\Temp\cchoDgth.s:25622  .debug_str:000000000000bfdb .LASF2211
C:\Users\CYMR90~1\AppData\Local\Temp\cchoDgth.s:24330  .debug_str:0000000000006b1d .LASF2212
C:\Users\CYMR90~1\AppData\Local\Temp\cchoDgth.s:26928  .debug_str:0000000000011157 .LASF2213
C:\Users\CYMR90~1\AppData\Local\Temp\cchoDgth.s:33801  .debug_str:000000000002c7c8 .LASF2214
C:\Users\CYMR90~1\AppData\Local\Temp\cchoDgth.s:27652  .debug_str:00000000000140bd .LASF2215
C:\Users\CYMR90~1\AppData\Local\Temp\cchoDgth.s:25304  .debug_str:000000000000a9bc .LASF2216
C:\Users\CYMR90~1\AppData\Local\Temp\cchoDgth.s:29537  .debug_str:000000000001bbe2 .LASF2217
C:\Users\CYMR90~1\AppData\Local\Temp\cchoDgth.s:28837  .debug_str:0000000000018cf9 .LASF2218
C:\Users\CYMR90~1\AppData\Local\Temp\cchoDgth.s:33567  .debug_str:000000000002b81b .LASF2219
C:\Users\CYMR90~1\AppData\Local\Temp\cchoDgth.s:30093  .debug_str:000000000001df5c .LASF2220
C:\Users\CYMR90~1\AppData\Local\Temp\cchoDgth.s:28923  .debug_str:00000000000192c9 .LASF2221
C:\Users\CYMR90~1\AppData\Local\Temp\cchoDgth.s:27322  .debug_str:0000000000012b57 .LASF2222
C:\Users\CYMR90~1\AppData\Local\Temp\cchoDgth.s:29577  .debug_str:000000000001bde7 .LASF2223
C:\Users\CYMR90~1\AppData\Local\Temp\cchoDgth.s:32241  .debug_str:000000000002660e .LASF2224
C:\Users\CYMR90~1\AppData\Local\Temp\cchoDgth.s:22676  .debug_str:00000000000002c6 .LASF2225
C:\Users\CYMR90~1\AppData\Local\Temp\cchoDgth.s:23788  .debug_str:0000000000004967 .LASF2226
C:\Users\CYMR90~1\AppData\Local\Temp\cchoDgth.s:29113  .debug_str:0000000000019ff7 .LASF2227
C:\Users\CYMR90~1\AppData\Local\Temp\cchoDgth.s:28383  .debug_str:000000000001713f .LASF2228
C:\Users\CYMR90~1\AppData\Local\Temp\cchoDgth.s:30145  .debug_str:000000000001e323 .LASF2229
C:\Users\CYMR90~1\AppData\Local\Temp\cchoDgth.s:23754  .debug_str:00000000000046d5 .LASF2230
C:\Users\CYMR90~1\AppData\Local\Temp\cchoDgth.s:30379  .debug_str:000000000001f0e7 .LASF2231
C:\Users\CYMR90~1\AppData\Local\Temp\cchoDgth.s:23062  .debug_str:0000000000001afd .LASF2232
C:\Users\CYMR90~1\AppData\Local\Temp\cchoDgth.s:29101  .debug_str:0000000000019f33 .LASF2233
C:\Users\CYMR90~1\AppData\Local\Temp\cchoDgth.s:25794  .debug_str:000000000000cb28 .LASF2234
C:\Users\CYMR90~1\AppData\Local\Temp\cchoDgth.s:24004  .debug_str:0000000000005736 .LASF2235
C:\Users\CYMR90~1\AppData\Local\Temp\cchoDgth.s:33755  .debug_str:000000000002c480 .LASF2236
C:\Users\CYMR90~1\AppData\Local\Temp\cchoDgth.s:26256  .debug_str:000000000000e863 .LASF2237
C:\Users\CYMR90~1\AppData\Local\Temp\cchoDgth.s:31045  .debug_str:0000000000021a02 .LASF2238
C:\Users\CYMR90~1\AppData\Local\Temp\cchoDgth.s:30047  .debug_str:000000000001dc89 .LASF2239
C:\Users\CYMR90~1\AppData\Local\Temp\cchoDgth.s:29977  .debug_str:000000000001d7fc .LASF2240
C:\Users\CYMR90~1\AppData\Local\Temp\cchoDgth.s:23126  .debug_str:0000000000001ead .LASF2241
C:\Users\CYMR90~1\AppData\Local\Temp\cchoDgth.s:31065  .debug_str:0000000000021b32 .LASF2242
C:\Users\CYMR90~1\AppData\Local\Temp\cchoDgth.s:32629  .debug_str:0000000000027e5f .LASF2243
C:\Users\CYMR90~1\AppData\Local\Temp\cchoDgth.s:25998  .debug_str:000000000000d8ae .LASF2244
C:\Users\CYMR90~1\AppData\Local\Temp\cchoDgth.s:25170  .debug_str:000000000000a1bb .LASF2245
C:\Users\CYMR90~1\AppData\Local\Temp\cchoDgth.s:25294  .debug_str:000000000000a8d9 .LASF2246
C:\Users\CYMR90~1\AppData\Local\Temp\cchoDgth.s:27966  .debug_str:00000000000154d2 .LASF2247
C:\Users\CYMR90~1\AppData\Local\Temp\cchoDgth.s:23490  .debug_str:0000000000003579 .LASF2248
C:\Users\CYMR90~1\AppData\Local\Temp\cchoDgth.s:30399  .debug_str:000000000001f210 .LASF2249
C:\Users\CYMR90~1\AppData\Local\Temp\cchoDgth.s:29515  .debug_str:000000000001ba6d .LASF2250
C:\Users\CYMR90~1\AppData\Local\Temp\cchoDgth.s:28559  .debug_str:0000000000017bca .LASF2251
C:\Users\CYMR90~1\AppData\Local\Temp\cchoDgth.s:31835  .debug_str:00000000000249d3 .LASF2252
C:\Users\CYMR90~1\AppData\Local\Temp\cchoDgth.s:27328  .debug_str:0000000000012bb4 .LASF2253
C:\Users\CYMR90~1\AppData\Local\Temp\cchoDgth.s:26062  .debug_str:000000000000dc82 .LASF2254
C:\Users\CYMR90~1\AppData\Local\Temp\cchoDgth.s:24818  .debug_str:0000000000008bc2 .LASF2255
C:\Users\CYMR90~1\AppData\Local\Temp\cchoDgth.s:26722  .debug_str:000000000001054b .LASF2256
C:\Users\CYMR90~1\AppData\Local\Temp\cchoDgth.s:29785  .debug_str:000000000001ca75 .LASF2257
C:\Users\CYMR90~1\AppData\Local\Temp\cchoDgth.s:27020  .debug_str:00000000000116e0 .LASF2258
C:\Users\CYMR90~1\AppData\Local\Temp\cchoDgth.s:27248  .debug_str:0000000000012661 .LASF2259
C:\Users\CYMR90~1\AppData\Local\Temp\cchoDgth.s:26924  .debug_str:0000000000011115 .LASF2260
C:\Users\CYMR90~1\AppData\Local\Temp\cchoDgth.s:28010  .debug_str:0000000000015766 .LASF2261
C:\Users\CYMR90~1\AppData\Local\Temp\cchoDgth.s:23182  .debug_str:00000000000021ed .LASF2262
C:\Users\CYMR90~1\AppData\Local\Temp\cchoDgth.s:26304  .debug_str:000000000000eb89 .LASF2263
C:\Users\CYMR90~1\AppData\Local\Temp\cchoDgth.s:30165  .debug_str:000000000001e47b .LASF2264
C:\Users\CYMR90~1\AppData\Local\Temp\cchoDgth.s:29205  .debug_str:000000000001a526 .LASF2265
C:\Users\CYMR90~1\AppData\Local\Temp\cchoDgth.s:26144  .debug_str:000000000000e1a7 .LASF2266
C:\Users\CYMR90~1\AppData\Local\Temp\cchoDgth.s:25502  .debug_str:000000000000b7d2 .LASF2267
C:\Users\CYMR90~1\AppData\Local\Temp\cchoDgth.s:28567  .debug_str:0000000000017c84 .LASF2268
C:\Users\CYMR90~1\AppData\Local\Temp\cchoDgth.s:24892  .debug_str:000000000000910b .LASF2269
C:\Users\CYMR90~1\AppData\Local\Temp\cchoDgth.s:23810  .debug_str:0000000000004b3d .LASF2270
C:\Users\CYMR90~1\AppData\Local\Temp\cchoDgth.s:29663  .debug_str:000000000001c320 .LASF2271
C:\Users\CYMR90~1\AppData\Local\Temp\cchoDgth.s:30069  .debug_str:000000000001ddec .LASF2272
C:\Users\CYMR90~1\AppData\Local\Temp\cchoDgth.s:27856  .debug_str:0000000000014da4 .LASF2273
C:\Users\CYMR90~1\AppData\Local\Temp\cchoDgth.s:32835  .debug_str:0000000000028c6c .LASF2274
C:\Users\CYMR90~1\AppData\Local\Temp\cchoDgth.s:29413  .debug_str:000000000001b432 .LASF2275
C:\Users\CYMR90~1\AppData\Local\Temp\cchoDgth.s:26068  .debug_str:000000000000dced .LASF2276
C:\Users\CYMR90~1\AppData\Local\Temp\cchoDgth.s:24010  .debug_str:000000000000577d .LASF2277
C:\Users\CYMR90~1\AppData\Local\Temp\cchoDgth.s:22848  .debug_str:0000000000000d7d .LASF2278
C:\Users\CYMR90~1\AppData\Local\Temp\cchoDgth.s:32691  .debug_str:000000000002821e .LASF2279
C:\Users\CYMR90~1\AppData\Local\Temp\cchoDgth.s:31049  .debug_str:0000000000021a40 .LASF2280
C:\Users\CYMR90~1\AppData\Local\Temp\cchoDgth.s:24008  .debug_str:000000000000576a .LASF2281
C:\Users\CYMR90~1\AppData\Local\Temp\cchoDgth.s:29137  .debug_str:000000000001a185 .LASF2282
C:\Users\CYMR90~1\AppData\Local\Temp\cchoDgth.s:28451  .debug_str:000000000001751f .LASF2283
C:\Users\CYMR90~1\AppData\Local\Temp\cchoDgth.s:29845  .debug_str:000000000001cebe .LASF2284
C:\Users\CYMR90~1\AppData\Local\Temp\cchoDgth.s:29371  .debug_str:000000000001b128 .LASF2285
C:\Users\CYMR90~1\AppData\Local\Temp\cchoDgth.s:32609  .debug_str:0000000000027d52 .LASF2286
C:\Users\CYMR90~1\AppData\Local\Temp\cchoDgth.s:26930  .debug_str:000000000001117f .LASF2287
C:\Users\CYMR90~1\AppData\Local\Temp\cchoDgth.s:31201  .debug_str:000000000002239c .LASF2288
C:\Users\CYMR90~1\AppData\Local\Temp\cchoDgth.s:33159  .debug_str:000000000002a087 .LASF2289
C:\Users\CYMR90~1\AppData\Local\Temp\cchoDgth.s:27142  .debug_str:0000000000011f8d .LASF2290
C:\Users\CYMR90~1\AppData\Local\Temp\cchoDgth.s:33619  .debug_str:000000000002bbba .LASF2291
C:\Users\CYMR90~1\AppData\Local\Temp\cchoDgth.s:30261  .debug_str:000000000001ea34 .LASF2292
C:\Users\CYMR90~1\AppData\Local\Temp\cchoDgth.s:23896  .debug_str:0000000000005081 .LASF2293
C:\Users\CYMR90~1\AppData\Local\Temp\cchoDgth.s:33021  .debug_str:00000000000297b1 .LASF2294
C:\Users\CYMR90~1\AppData\Local\Temp\cchoDgth.s:33581  .debug_str:000000000002b92a .LASF2295
C:\Users\CYMR90~1\AppData\Local\Temp\cchoDgth.s:26126  .debug_str:000000000000e080 .LASF2296
C:\Users\CYMR90~1\AppData\Local\Temp\cchoDgth.s:26102  .debug_str:000000000000deb6 .LASF2297
C:\Users\CYMR90~1\AppData\Local\Temp\cchoDgth.s:25484  .debug_str:000000000000b63b .LASF2298
C:\Users\CYMR90~1\AppData\Local\Temp\cchoDgth.s:27662  .debug_str:0000000000014164 .LASF2299
C:\Users\CYMR90~1\AppData\Local\Temp\cchoDgth.s:32849  .debug_str:0000000000028d61 .LASF2300
C:\Users\CYMR90~1\AppData\Local\Temp\cchoDgth.s:26458  .debug_str:000000000000f4af .LASF2301
C:\Users\CYMR90~1\AppData\Local\Temp\cchoDgth.s:29611  .debug_str:000000000001c016 .LASF2302
C:\Users\CYMR90~1\AppData\Local\Temp\cchoDgth.s:31969  .debug_str:00000000000252ac .LASF2303
C:\Users\CYMR90~1\AppData\Local\Temp\cchoDgth.s:26060  .debug_str:000000000000dc5b .LASF2304
C:\Users\CYMR90~1\AppData\Local\Temp\cchoDgth.s:31291  .debug_str:00000000000228c2 .LASF2305
C:\Users\CYMR90~1\AppData\Local\Temp\cchoDgth.s:22934  .debug_str:0000000000001309 .LASF2306
C:\Users\CYMR90~1\AppData\Local\Temp\cchoDgth.s:29313  .debug_str:000000000001ad6d .LASF2307
C:\Users\CYMR90~1\AppData\Local\Temp\cchoDgth.s:29805  .debug_str:000000000001cc52 .LASF2308
C:\Users\CYMR90~1\AppData\Local\Temp\cchoDgth.s:23436  .debug_str:0000000000003200 .LASF2309
C:\Users\CYMR90~1\AppData\Local\Temp\cchoDgth.s:32263  .debug_str:0000000000026788 .LASF2310
C:\Users\CYMR90~1\AppData\Local\Temp\cchoDgth.s:33097  .debug_str:0000000000029cbe .LASF2311
C:\Users\CYMR90~1\AppData\Local\Temp\cchoDgth.s:27698  .debug_str:00000000000143ca .LASF2312
C:\Users\CYMR90~1\AppData\Local\Temp\cchoDgth.s:32801  .debug_str:00000000000289af .LASF2313
C:\Users\CYMR90~1\AppData\Local\Temp\cchoDgth.s:24516  .debug_str:0000000000007726 .LASF2314
C:\Users\CYMR90~1\AppData\Local\Temp\cchoDgth.s:32937  .debug_str:00000000000292cd .LASF2315
C:\Users\CYMR90~1\AppData\Local\Temp\cchoDgth.s:24578  .debug_str:0000000000007af9 .LASF2316
C:\Users\CYMR90~1\AppData\Local\Temp\cchoDgth.s:29629  .debug_str:000000000001c131 .LASF2317
C:\Users\CYMR90~1\AppData\Local\Temp\cchoDgth.s:32845  .debug_str:0000000000028d20 .LASF2318
C:\Users\CYMR90~1\AppData\Local\Temp\cchoDgth.s:26342  .debug_str:000000000000ede7 .LASF2319
C:\Users\CYMR90~1\AppData\Local\Temp\cchoDgth.s:23822  .debug_str:0000000000004bf9 .LASF2320
C:\Users\CYMR90~1\AppData\Local\Temp\cchoDgth.s:23354  .debug_str:0000000000002cd5 .LASF2321
C:\Users\CYMR90~1\AppData\Local\Temp\cchoDgth.s:34065  .debug_str:000000000002d8db .LASF2322
C:\Users\CYMR90~1\AppData\Local\Temp\cchoDgth.s:24192  .debug_str:00000000000062ab .LASF2323
C:\Users\CYMR90~1\AppData\Local\Temp\cchoDgth.s:27818  .debug_str:0000000000014b63 .LASF2324
C:\Users\CYMR90~1\AppData\Local\Temp\cchoDgth.s:33645  .debug_str:000000000002bd47 .LASF2325
C:\Users\CYMR90~1\AppData\Local\Temp\cchoDgth.s:25272  .debug_str:000000000000a7d0 .LASF2326
C:\Users\CYMR90~1\AppData\Local\Temp\cchoDgth.s:28797  .debug_str:0000000000018a52 .LASF2327
C:\Users\CYMR90~1\AppData\Local\Temp\cchoDgth.s:23216  .debug_str:00000000000023cd .LASF2328
C:\Users\CYMR90~1\AppData\Local\Temp\cchoDgth.s:27734  .debug_str:00000000000145fa .LASF2329
C:\Users\CYMR90~1\AppData\Local\Temp\cchoDgth.s:24572  .debug_str:0000000000007aac .LASF2330
C:\Users\CYMR90~1\AppData\Local\Temp\cchoDgth.s:25722  .debug_str:000000000000c68e .LASF2331
C:\Users\CYMR90~1\AppData\Local\Temp\cchoDgth.s:26764  .debug_str:00000000000107af .LASF2332
C:\Users\CYMR90~1\AppData\Local\Temp\cchoDgth.s:31005  .debug_str:000000000002170b .LASF2333
C:\Users\CYMR90~1\AppData\Local\Temp\cchoDgth.s:32447  .debug_str:00000000000272f5 .LASF2334
C:\Users\CYMR90~1\AppData\Local\Temp\cchoDgth.s:26776  .debug_str:0000000000010869 .LASF2335
C:\Users\CYMR90~1\AppData\Local\Temp\cchoDgth.s:27180  .debug_str:0000000000012216 .LASF2336
C:\Users\CYMR90~1\AppData\Local\Temp\cchoDgth.s:26232  .debug_str:000000000000e6e7 .LASF2337
C:\Users\CYMR90~1\AppData\Local\Temp\cchoDgth.s:24204  .debug_str:000000000000638e .LASF2338
C:\Users\CYMR90~1\AppData\Local\Temp\cchoDgth.s:23262  .debug_str:0000000000002673 .LASF2339
C:\Users\CYMR90~1\AppData\Local\Temp\cchoDgth.s:30033  .debug_str:000000000001dbaa .LASF2340
C:\Users\CYMR90~1\AppData\Local\Temp\cchoDgth.s:32327  .debug_str:0000000000026b61 .LASF2341
C:\Users\CYMR90~1\AppData\Local\Temp\cchoDgth.s:30639  .debug_str:00000000000200f8 .LASF2342
C:\Users\CYMR90~1\AppData\Local\Temp\cchoDgth.s:30653  .debug_str:00000000000201ae .LASF2343
C:\Users\CYMR90~1\AppData\Local\Temp\cchoDgth.s:31729  .debug_str:00000000000242d0 .LASF2344
C:\Users\CYMR90~1\AppData\Local\Temp\cchoDgth.s:32555  .debug_str:0000000000027933 .LASF2345
C:\Users\CYMR90~1\AppData\Local\Temp\cchoDgth.s:29729  .debug_str:000000000001c74e .LASF2346
C:\Users\CYMR90~1\AppData\Local\Temp\cchoDgth.s:29905  .debug_str:000000000001d32a .LASF2347
C:\Users\CYMR90~1\AppData\Local\Temp\cchoDgth.s:24788  .debug_str:00000000000089b2 .LASF2348
C:\Users\CYMR90~1\AppData\Local\Temp\cchoDgth.s:27542  .debug_str:0000000000013a4e .LASF2349
C:\Users\CYMR90~1\AppData\Local\Temp\cchoDgth.s:31147  .debug_str:000000000002200a .LASF2350
C:\Users\CYMR90~1\AppData\Local\Temp\cchoDgth.s:33453  .debug_str:000000000002b1b2 .LASF2351
C:\Users\CYMR90~1\AppData\Local\Temp\cchoDgth.s:31955  .debug_str:00000000000251bd .LASF2352
C:\Users\CYMR90~1\AppData\Local\Temp\cchoDgth.s:24356  .debug_str:0000000000006cae .LASF2353
C:\Users\CYMR90~1\AppData\Local\Temp\cchoDgth.s:26676  .debug_str:000000000001026a .LASF2354
C:\Users\CYMR90~1\AppData\Local\Temp\cchoDgth.s:24302  .debug_str:000000000000692b .LASF2355
C:\Users\CYMR90~1\AppData\Local\Temp\cchoDgth.s:33859  .debug_str:000000000002cbe6 .LASF2356
C:\Users\CYMR90~1\AppData\Local\Temp\cchoDgth.s:33279  .debug_str:000000000002a78e .LASF2357
C:\Users\CYMR90~1\AppData\Local\Temp\cchoDgth.s:27944  .debug_str:0000000000015375 .LASF2358
C:\Users\CYMR90~1\AppData\Local\Temp\cchoDgth.s:25010  .debug_str:00000000000097e1 .LASF2359
C:\Users\CYMR90~1\AppData\Local\Temp\cchoDgth.s:23580  .debug_str:0000000000003b7e .LASF2360
C:\Users\CYMR90~1\AppData\Local\Temp\cchoDgth.s:26690  .debug_str:000000000001034c .LASF2361
C:\Users\CYMR90~1\AppData\Local\Temp\cchoDgth.s:25464  .debug_str:000000000000b53e .LASF2362
C:\Users\CYMR90~1\AppData\Local\Temp\cchoDgth.s:24234  .debug_str:0000000000006530 .LASF2363
C:\Users\CYMR90~1\AppData\Local\Temp\cchoDgth.s:31735  .debug_str:0000000000024320 .LASF2364
C:\Users\CYMR90~1\AppData\Local\Temp\cchoDgth.s:30871  .debug_str:0000000000020ee9 .LASF2365
C:\Users\CYMR90~1\AppData\Local\Temp\cchoDgth.s:27242  .debug_str:0000000000012600 .LASF2366
C:\Users\CYMR90~1\AppData\Local\Temp\cchoDgth.s:31989  .debug_str:0000000000025435 .LASF2367
C:\Users\CYMR90~1\AppData\Local\Temp\cchoDgth.s:32625  .debug_str:0000000000027e32 .LASF2368
C:\Users\CYMR90~1\AppData\Local\Temp\cchoDgth.s:24996  .debug_str:00000000000096c2 .LASF2369
C:\Users\CYMR90~1\AppData\Local\Temp\cchoDgth.s:26336  .debug_str:000000000000ed90 .LASF2370
C:\Users\CYMR90~1\AppData\Local\Temp\cchoDgth.s:24368  .debug_str:0000000000006d85 .LASF2371
C:\Users\CYMR90~1\AppData\Local\Temp\cchoDgth.s:26740  .debug_str:0000000000010653 .LASF2372
C:\Users\CYMR90~1\AppData\Local\Temp\cchoDgth.s:33735  .debug_str:000000000002c329 .LASF2373
C:\Users\CYMR90~1\AppData\Local\Temp\cchoDgth.s:32399  .debug_str:000000000002700e .LASF2374
C:\Users\CYMR90~1\AppData\Local\Temp\cchoDgth.s:22786  .debug_str:0000000000000991 .LASF2375
C:\Users\CYMR90~1\AppData\Local\Temp\cchoDgth.s:27146  .debug_str:0000000000011fe2 .LASF2376
C:\Users\CYMR90~1\AppData\Local\Temp\cchoDgth.s:30343  .debug_str:000000000001ef1a .LASF2377
C:\Users\CYMR90~1\AppData\Local\Temp\cchoDgth.s:33679  .debug_str:000000000002bfc2 .LASF2378
C:\Users\CYMR90~1\AppData\Local\Temp\cchoDgth.s:25466  .debug_str:000000000000b563 .LASF2379
C:\Users\CYMR90~1\AppData\Local\Temp\cchoDgth.s:24412  .debug_str:000000000000707e .LASF2380
C:\Users\CYMR90~1\AppData\Local\Temp\cchoDgth.s:31947  .debug_str:000000000002514b .LASF2381
C:\Users\CYMR90~1\AppData\Local\Temp\cchoDgth.s:31691  .debug_str:00000000000240c9 .LASF2382
C:\Users\CYMR90~1\AppData\Local\Temp\cchoDgth.s:26912  .debug_str:0000000000011094 .LASF2383
C:\Users\CYMR90~1\AppData\Local\Temp\cchoDgth.s:30113  .debug_str:000000000001e09b .LASF2384
C:\Users\CYMR90~1\AppData\Local\Temp\cchoDgth.s:33419  .debug_str:000000000002afd9 .LASF2385
C:\Users\CYMR90~1\AppData\Local\Temp\cchoDgth.s:23098  .debug_str:0000000000001d2d .LASF2386
C:\Users\CYMR90~1\AppData\Local\Temp\cchoDgth.s:27826  .debug_str:0000000000014bcb .LASF2387
C:\Users\CYMR90~1\AppData\Local\Temp\cchoDgth.s:32627  .debug_str:0000000000027e44 .LASF2388
C:\Users\CYMR90~1\AppData\Local\Temp\cchoDgth.s:29473  .debug_str:000000000001b7fc .LASF2389
C:\Users\CYMR90~1\AppData\Local\Temp\cchoDgth.s:30645  .debug_str:000000000002014e .LASF2390
C:\Users\CYMR90~1\AppData\Local\Temp\cchoDgth.s:23976  .debug_str:0000000000005579 .LASF2391
C:\Users\CYMR90~1\AppData\Local\Temp\cchoDgth.s:28723  .debug_str:00000000000185d9 .LASF2392
C:\Users\CYMR90~1\AppData\Local\Temp\cchoDgth.s:33523  .debug_str:000000000002b5bf .LASF2393
C:\Users\CYMR90~1\AppData\Local\Temp\cchoDgth.s:29587  .debug_str:000000000001be82 .LASF2394
C:\Users\CYMR90~1\AppData\Local\Temp\cchoDgth.s:32685  .debug_str:00000000000281b9 .LASF2395
C:\Users\CYMR90~1\AppData\Local\Temp\cchoDgth.s:25990  .debug_str:000000000000d812 .LASF2396
C:\Users\CYMR90~1\AppData\Local\Temp\cchoDgth.s:30703  .debug_str:00000000000204f1 .LASF2397
C:\Users\CYMR90~1\AppData\Local\Temp\cchoDgth.s:24028  .debug_str:0000000000005866 .LASF2398
C:\Users\CYMR90~1\AppData\Local\Temp\cchoDgth.s:28775  .debug_str:0000000000018907 .LASF2399
C:\Users\CYMR90~1\AppData\Local\Temp\cchoDgth.s:33577  .debug_str:000000000002b8f9 .LASF2400
C:\Users\CYMR90~1\AppData\Local\Temp\cchoDgth.s:33457  .debug_str:000000000002b1ea .LASF2401
C:\Users\CYMR90~1\AppData\Local\Temp\cchoDgth.s:25246  .debug_str:000000000000a660 .LASF2402
C:\Users\CYMR90~1\AppData\Local\Temp\cchoDgth.s:28469  .debug_str:0000000000017634 .LASF2403
C:\Users\CYMR90~1\AppData\Local\Temp\cchoDgth.s:31739  .debug_str:0000000000024351 .LASF2404
C:\Users\CYMR90~1\AppData\Local\Temp\cchoDgth.s:23606  .debug_str:0000000000003ced .LASF2405
C:\Users\CYMR90~1\AppData\Local\Temp\cchoDgth.s:26784  .debug_str:000000000001090d .LASF2406
C:\Users\CYMR90~1\AppData\Local\Temp\cchoDgth.s:30003  .debug_str:000000000001d9b1 .LASF2407
C:\Users\CYMR90~1\AppData\Local\Temp\cchoDgth.s:33305  .debug_str:000000000002a93c .LASF2408
C:\Users\CYMR90~1\AppData\Local\Temp\cchoDgth.s:27590  .debug_str:0000000000013cfa .LASF2409
C:\Users\CYMR90~1\AppData\Local\Temp\cchoDgth.s:25968  .debug_str:000000000000d6a6 .LASF2410
C:\Users\CYMR90~1\AppData\Local\Temp\cchoDgth.s:29361  .debug_str:000000000001b085 .LASF2411
C:\Users\CYMR90~1\AppData\Local\Temp\cchoDgth.s:22670  .debug_str:000000000000026a .LASF2412
C:\Users\CYMR90~1\AppData\Local\Temp\cchoDgth.s:22684  .debug_str:0000000000000370 .LASF2413
C:\Users\CYMR90~1\AppData\Local\Temp\cchoDgth.s:32167  .debug_str:00000000000261a1 .LASF2414
C:\Users\CYMR90~1\AppData\Local\Temp\cchoDgth.s:25498  .debug_str:000000000000b71c .LASF2415
C:\Users\CYMR90~1\AppData\Local\Temp\cchoDgth.s:30183  .debug_str:000000000001e58a .LASF2416
C:\Users\CYMR90~1\AppData\Local\Temp\cchoDgth.s:25822  .debug_str:000000000000cd07 .LASF2417
C:\Users\CYMR90~1\AppData\Local\Temp\cchoDgth.s:28256  .debug_str:0000000000016694 .LASF2418
C:\Users\CYMR90~1\AppData\Local\Temp\cchoDgth.s:30401  .debug_str:000000000001f23f .LASF2419
C:\Users\CYMR90~1\AppData\Local\Temp\cchoDgth.s:27458  .debug_str:0000000000013467 .LASF2420
C:\Users\CYMR90~1\AppData\Local\Temp\cchoDgth.s:32219  .debug_str:00000000000264c4 .LASF2421
C:\Users\CYMR90~1\AppData\Local\Temp\cchoDgth.s:25540  .debug_str:000000000000ba59 .LASF2422
C:\Users\CYMR90~1\AppData\Local\Temp\cchoDgth.s:30233  .debug_str:000000000001e881 .LASF2423
C:\Users\CYMR90~1\AppData\Local\Temp\cchoDgth.s:23576  .debug_str:0000000000003b33 .LASF2424
C:\Users\CYMR90~1\AppData\Local\Temp\cchoDgth.s:28316  .debug_str:0000000000016a6b .LASF2425
C:\Users\CYMR90~1\AppData\Local\Temp\cchoDgth.s:25372  .debug_str:000000000000aeee .LASF2426
C:\Users\CYMR90~1\AppData\Local\Temp\cchoDgth.s:28497  .debug_str:00000000000177e8 .LASF2427
C:\Users\CYMR90~1\AppData\Local\Temp\cchoDgth.s:31777  .debug_str:000000000002459c .LASF2428
C:\Users\CYMR90~1\AppData\Local\Temp\cchoDgth.s:23562  .debug_str:0000000000003a3f .LASF2429
C:\Users\CYMR90~1\AppData\Local\Temp\cchoDgth.s:26822  .debug_str:0000000000010b24 .LASF2430
C:\Users\CYMR90~1\AppData\Local\Temp\cchoDgth.s:27072  .debug_str:0000000000011ad6 .LASF2431
C:\Users\CYMR90~1\AppData\Local\Temp\cchoDgth.s:33343  .debug_str:000000000002ab40 .LASF2432
C:\Users\CYMR90~1\AppData\Local\Temp\cchoDgth.s:25132  .debug_str:0000000000009f59 .LASF2433
C:\Users\CYMR90~1\AppData\Local\Temp\cchoDgth.s:33617  .debug_str:000000000002bba3 .LASF2434
C:\Users\CYMR90~1\AppData\Local\Temp\cchoDgth.s:31535  .debug_str:0000000000023744 .LASF2435
C:\Users\CYMR90~1\AppData\Local\Temp\cchoDgth.s:32911  .debug_str:0000000000029158 .LASF2436
C:\Users\CYMR90~1\AppData\Local\Temp\cchoDgth.s:26204  .debug_str:000000000000e55b .LASF2437
C:\Users\CYMR90~1\AppData\Local\Temp\cchoDgth.s:30939  .debug_str:000000000002133a .LASF2438
C:\Users\CYMR90~1\AppData\Local\Temp\cchoDgth.s:24254  .debug_str:0000000000006678 .LASF2439
C:\Users\CYMR90~1\AppData\Local\Temp\cchoDgth.s:29017  .debug_str:000000000001994b .LASF2440
C:\Users\CYMR90~1\AppData\Local\Temp\cchoDgth.s:33803  .debug_str:000000000002c7f0 .LASF2441
C:\Users\CYMR90~1\AppData\Local\Temp\cchoDgth.s:27078  .debug_str:0000000000011b2b .LASF2442
C:\Users\CYMR90~1\AppData\Local\Temp\cchoDgth.s:31845  .debug_str:0000000000024ab6 .LASF2443
C:\Users\CYMR90~1\AppData\Local\Temp\cchoDgth.s:29881  .debug_str:000000000001d116 .LASF2444
C:\Users\CYMR90~1\AppData\Local\Temp\cchoDgth.s:30999  .debug_str:00000000000216a0 .LASF2445
C:\Users\CYMR90~1\AppData\Local\Temp\cchoDgth.s:24306  .debug_str:0000000000006964 .LASF2446
C:\Users\CYMR90~1\AppData\Local\Temp\cchoDgth.s:29065  .debug_str:0000000000019cee .LASF2447
C:\Users\CYMR90~1\AppData\Local\Temp\cchoDgth.s:33855  .debug_str:000000000002cba7 .LASF2448
C:\Users\CYMR90~1\AppData\Local\Temp\cchoDgth.s:27138  .debug_str:0000000000011f3f .LASF2449
C:\Users\CYMR90~1\AppData\Local\Temp\cchoDgth.s:27052  .debug_str:00000000000118fa .LASF2450
C:\Users\CYMR90~1\AppData\Local\Temp\cchoDgth.s:30669  .debug_str:00000000000202d7 .LASF2451
C:\Users\CYMR90~1\AppData\Local\Temp\cchoDgth.s:32007  .debug_str:0000000000025544 .LASF2452
C:\Users\CYMR90~1\AppData\Local\Temp\cchoDgth.s:30309  .debug_str:000000000001ed37 .LASF2453
C:\Users\CYMR90~1\AppData\Local\Temp\cchoDgth.s:28685  .debug_str:000000000001836c .LASF2454
C:\Users\CYMR90~1\AppData\Local\Temp\cchoDgth.s:32169  .debug_str:00000000000261ba .LASF2455
C:\Users\CYMR90~1\AppData\Local\Temp\cchoDgth.s:25442  .debug_str:000000000000b41d .LASF2456
C:\Users\CYMR90~1\AppData\Local\Temp\cchoDgth.s:27214  .debug_str:0000000000012448 .LASF2457
C:\Users\CYMR90~1\AppData\Local\Temp\cchoDgth.s:30409  .debug_str:000000000001f2ae .LASF2458
C:\Users\CYMR90~1\AppData\Local\Temp\cchoDgth.s:31937  .debug_str:00000000000250c2 .LASF2459
C:\Users\CYMR90~1\AppData\Local\Temp\cchoDgth.s:25446  .debug_str:000000000000b45a .LASF2460
C:\Users\CYMR90~1\AppData\Local\Temp\cchoDgth.s:31573  .debug_str:0000000000023953 .LASF2461
C:\Users\CYMR90~1\AppData\Local\Temp\cchoDgth.s:33675  .debug_str:000000000002bf32 .LASF2462
C:\Users\CYMR90~1\AppData\Local\Temp\cchoDgth.s:29893  .debug_str:000000000001d280 .LASF2463
C:\Users\CYMR90~1\AppData\Local\Temp\cchoDgth.s:23222  .debug_str:0000000000002419 .LASF2464
C:\Users\CYMR90~1\AppData\Local\Temp\cchoDgth.s:27948  .debug_str:00000000000153b4 .LASF2465
C:\Users\CYMR90~1\AppData\Local\Temp\cchoDgth.s:32753  .debug_str:000000000002864e .LASF2466
C:\Users\CYMR90~1\AppData\Local\Temp\cchoDgth.s:26052  .debug_str:000000000000dbf1 .LASF2467
C:\Users\CYMR90~1\AppData\Local\Temp\cchoDgth.s:30769  .debug_str:000000000002088c .LASF2468
C:\Users\CYMR90~1\AppData\Local\Temp\cchoDgth.s:28849  .debug_str:0000000000018dac .LASF2469
C:\Users\CYMR90~1\AppData\Local\Temp\cchoDgth.s:23634  .debug_str:0000000000003ec6 .LASF2470
C:\Users\CYMR90~1\AppData\Local\Temp\cchoDgth.s:23274  .debug_str:0000000000002771 .LASF2471
C:\Users\CYMR90~1\AppData\Local\Temp\cchoDgth.s:27510  .debug_str:0000000000013847 .LASF2472
C:\Users\CYMR90~1\AppData\Local\Temp\cchoDgth.s:32805  .debug_str:0000000000028a93 .LASF2473
C:\Users\CYMR90~1\AppData\Local\Temp\cchoDgth.s:26104  .debug_str:000000000000dee1 .LASF2474
C:\Users\CYMR90~1\AppData\Local\Temp\cchoDgth.s:30827  .debug_str:0000000000020c61 .LASF2475
C:\Users\CYMR90~1\AppData\Local\Temp\cchoDgth.s:33039  .debug_str:00000000000298d3 .LASF2476
C:\Users\CYMR90~1\AppData\Local\Temp\cchoDgth.s:23418  .debug_str:00000000000030c2 .LASF2477
C:\Users\CYMR90~1\AppData\Local\Temp\cchoDgth.s:28022  .debug_str:00000000000157f7 .LASF2478
C:\Users\CYMR90~1\AppData\Local\Temp\cchoDgth.s:32791  .debug_str:0000000000028927 .LASF2479
C:\Users\CYMR90~1\AppData\Local\Temp\cchoDgth.s:31115  .debug_str:0000000000021e47 .LASF2480
C:\Users\CYMR90~1\AppData\Local\Temp\cchoDgth.s:29479  .debug_str:000000000001b853 .LASF2481
C:\Users\CYMR90~1\AppData\Local\Temp\cchoDgth.s:29593  .debug_str:000000000001becd .LASF2482
C:\Users\CYMR90~1\AppData\Local\Temp\cchoDgth.s:32883  .debug_str:0000000000028fd1 .LASF2483
C:\Users\CYMR90~1\AppData\Local\Temp\cchoDgth.s:24666  .debug_str:000000000000816b .LASF2484
C:\Users\CYMR90~1\AppData\Local\Temp\cchoDgth.s:27800  .debug_str:0000000000014a40 .LASF2485
C:\Users\CYMR90~1\AppData\Local\Temp\cchoDgth.s:27514  .debug_str:0000000000013874 .LASF2486
C:\Users\CYMR90~1\AppData\Local\Temp\cchoDgth.s:32277  .debug_str:0000000000026876 .LASF2487
C:\Users\CYMR90~1\AppData\Local\Temp\cchoDgth.s:25594  .debug_str:000000000000bdaf .LASF2488
C:\Users\CYMR90~1\AppData\Local\Temp\cchoDgth.s:30289  .debug_str:000000000001ebba .LASF2489
C:\Users\CYMR90~1\AppData\Local\Temp\cchoDgth.s:23624  .debug_str:0000000000003e33 .LASF2490
C:\Users\CYMR90~1\AppData\Local\Temp\cchoDgth.s:28379  .debug_str:00000000000170fa .LASF2491
C:\Users\CYMR90~1\AppData\Local\Temp\cchoDgth.s:33175  .debug_str:000000000002a175 .LASF2492
C:\Users\CYMR90~1\AppData\Local\Temp\cchoDgth.s:26472  .debug_str:000000000000f58f .LASF2493
C:\Users\CYMR90~1\AppData\Local\Temp\cchoDgth.s:24524  .debug_str:000000000000778d .LASF2494
C:\Users\CYMR90~1\AppData\Local\Temp\cchoDgth.s:25644  .debug_str:000000000000c182 .LASF2495
C:\Users\CYMR90~1\AppData\Local\Temp\cchoDgth.s:30333  .debug_str:000000000001eea5 .LASF2496
C:\Users\CYMR90~1\AppData\Local\Temp\cchoDgth.s:23674  .debug_str:0000000000004144 .LASF2497
C:\Users\CYMR90~1\AppData\Local\Temp\cchoDgth.s:28433  .debug_str:000000000001741e .LASF2498
C:\Users\CYMR90~1\AppData\Local\Temp\cchoDgth.s:33229  .debug_str:000000000002a4c4 .LASF2499
C:\Users\CYMR90~1\AppData\Local\Temp\cchoDgth.s:26532  .debug_str:000000000000f933 .LASF2500
C:\Users\CYMR90~1\AppData\Local\Temp\cchoDgth.s:26246  .debug_str:000000000000e7c6 .LASF2501
C:\Users\CYMR90~1\AppData\Local\Temp\cchoDgth.s:29491  .debug_str:000000000001b92f .LASF2502
C:\Users\CYMR90~1\AppData\Local\Temp\cchoDgth.s:32763  .debug_str:00000000000286f5 .LASF2503
C:\Users\CYMR90~1\AppData\Local\Temp\cchoDgth.s:24542  .debug_str:00000000000078c2 .LASF2504
C:\Users\CYMR90~1\AppData\Local\Temp\cchoDgth.s:27684  .debug_str:00000000000142c4 .LASF2505
C:\Users\CYMR90~1\AppData\Local\Temp\cchoDgth.s:30937  .debug_str:0000000000021327 .LASF2506
C:\Users\CYMR90~1\AppData\Local\Temp\cchoDgth.s:33163  .debug_str:000000000002a0cc .LASF2507
C:\Users\CYMR90~1\AppData\Local\Temp\cchoDgth.s:26016  .debug_str:000000000000d993 .LASF2508
C:\Users\CYMR90~1\AppData\Local\Temp\cchoDgth.s:29263  .debug_str:000000000001a9e5 .LASF2509
C:\Users\CYMR90~1\AppData\Local\Temp\cchoDgth.s:28166  .debug_str:00000000000160fb .LASF2510
C:\Users\CYMR90~1\AppData\Local\Temp\cchoDgth.s:32847  .debug_str:0000000000028d4c .LASF2511
C:\Users\CYMR90~1\AppData\Local\Temp\cchoDgth.s:26146  .debug_str:000000000000e1c7 .LASF2512
C:\Users\CYMR90~1\AppData\Local\Temp\cchoDgth.s:30875  .debug_str:0000000000020f18 .LASF2513
C:\Users\CYMR90~1\AppData\Local\Temp\cchoDgth.s:24184  .debug_str:0000000000006214 .LASF2514
C:\Users\CYMR90~1\AppData\Local\Temp\cchoDgth.s:28955  .debug_str:00000000000195c3 .LASF2515
C:\Users\CYMR90~1\AppData\Local\Temp\cchoDgth.s:29733  .debug_str:000000000001c78a .LASF2516
C:\Users\CYMR90~1\AppData\Local\Temp\cchoDgth.s:27018  .debug_str:00000000000116cb .LASF2517
C:\Users\CYMR90~1\AppData\Local\Temp\cchoDgth.s:31787  .debug_str:000000000002460c .LASF2518
C:\Users\CYMR90~1\AppData\Local\Temp\cchoDgth.s:29827  .debug_str:000000000001cdd4 .LASF2519
C:\Users\CYMR90~1\AppData\Local\Temp\cchoDgth.s:31033  .debug_str:00000000000218a7 .LASF2520
C:\Users\CYMR90~1\AppData\Local\Temp\cchoDgth.s:24336  .debug_str:0000000000006b7c .LASF2521
C:\Users\CYMR90~1\AppData\Local\Temp\cchoDgth.s:29091  .debug_str:0000000000019ea5 .LASF2522
C:\Users\CYMR90~1\AppData\Local\Temp\cchoDgth.s:33883  .debug_str:000000000002cd65 .LASF2523
C:\Users\CYMR90~1\AppData\Local\Temp\cchoDgth.s:27162  .debug_str:00000000000120da .LASF2524
C:\Users\CYMR90~1\AppData\Local\Temp\cchoDgth.s:31919  .debug_str:0000000000024f1c .LASF2525
C:\Users\CYMR90~1\AppData\Local\Temp\cchoDgth.s:27360  .debug_str:0000000000012dd5 .LASF2526
C:\Users\CYMR90~1\AppData\Local\Temp\cchoDgth.s:23514  .debug_str:0000000000003710 .LASF2527
C:\Users\CYMR90~1\AppData\Local\Temp\cchoDgth.s:28747  .debug_str:0000000000018747 .LASF2528
C:\Users\CYMR90~1\AppData\Local\Temp\cchoDgth.s:25074  .debug_str:0000000000009bd5 .LASF2529
C:\Users\CYMR90~1\AppData\Local\Temp\cchoDgth.s:23846  .debug_str:0000000000004d80 .LASF2530
C:\Users\CYMR90~1\AppData\Local\Temp\cchoDgth.s:32237  .debug_str:00000000000265cb .LASF2531
C:\Users\CYMR90~1\AppData\Local\Temp\cchoDgth.s:28150  .debug_str:0000000000015fdd .LASF2532
C:\Users\CYMR90~1\AppData\Local\Temp\cchoDgth.s:27918  .debug_str:00000000000151e0 .LASF2533
C:\Users\CYMR90~1\AppData\Local\Temp\cchoDgth.s:28298  .debug_str:000000000001696c .LASF2534
C:\Users\CYMR90~1\AppData\Local\Temp\cchoDgth.s:25140  .debug_str:0000000000009fcc .LASF2535
C:\Users\CYMR90~1\AppData\Local\Temp\cchoDgth.s:31897  .debug_str:0000000000024db6 .LASF2536
C:\Users\CYMR90~1\AppData\Local\Temp\cchoDgth.s:32987  .debug_str:0000000000029596 .LASF2537
C:\Users\CYMR90~1\AppData\Local\Temp\cchoDgth.s:22748  .debug_str:0000000000000739 .LASF2538
C:\Users\CYMR90~1\AppData\Local\Temp\cchoDgth.s:24562  .debug_str:0000000000007a04 .LASF2539
C:\Users\CYMR90~1\AppData\Local\Temp\cchoDgth.s:23556  .debug_str:00000000000039ec .LASF2540
C:\Users\CYMR90~1\AppData\Local\Temp\cchoDgth.s:32133  .debug_str:0000000000025ed6 .LASF2541
C:\Users\CYMR90~1\AppData\Local\Temp\cchoDgth.s:27164  .debug_str:00000000000120ef .LASF2542
C:\Users\CYMR90~1\AppData\Local\Temp\cchoDgth.s:25938  .debug_str:000000000000d437 .LASF2543
C:\Users\CYMR90~1\AppData\Local\Temp\cchoDgth.s:30601  .debug_str:000000000001fe88 .LASF2544
C:\Users\CYMR90~1\AppData\Local\Temp\cchoDgth.s:29701  .debug_str:000000000001c5b8 .LASF2545
C:\Users\CYMR90~1\AppData\Local\Temp\cchoDgth.s:23598  .debug_str:0000000000003c6e .LASF2546
C:\Users\CYMR90~1\AppData\Local\Temp\cchoDgth.s:32285  .debug_str:0000000000026906 .LASF2547
C:\Users\CYMR90~1\AppData\Local\Temp\cchoDgth.s:25904  .debug_str:000000000000d1ef .LASF2548
C:\Users\CYMR90~1\AppData\Local\Temp\cchoDgth.s:24972  .debug_str:000000000000956a .LASF2549
C:\Users\CYMR90~1\AppData\Local\Temp\cchoDgth.s:23946  .debug_str:000000000000536d .LASF2550
C:\Users\CYMR90~1\AppData\Local\Temp\cchoDgth.s:32635  .debug_str:0000000000027ebe .LASF2551
C:\Users\CYMR90~1\AppData\Local\Temp\cchoDgth.s:30507  .debug_str:000000000001f8f7 .LASF2552
C:\Users\CYMR90~1\AppData\Local\Temp\cchoDgth.s:27016  .debug_str:00000000000116a9 .LASF2553
C:\Users\CYMR90~1\AppData\Local\Temp\cchoDgth.s:30981  .debug_str:0000000000021581 .LASF2554
C:\Users\CYMR90~1\AppData\Local\Temp\cchoDgth.s:28068  .debug_str:0000000000015a88 .LASF2555
C:\Users\CYMR90~1\AppData\Local\Temp\cchoDgth.s:28649  .debug_str:0000000000018152 .LASF2556
C:\Users\CYMR90~1\AppData\Local\Temp\cchoDgth.s:27492  .debug_str:0000000000013710 .LASF2557
C:\Users\CYMR90~1\AppData\Local\Temp\cchoDgth.s:27972  .debug_str:0000000000015544 .LASF2558
C:\Users\CYMR90~1\AppData\Local\Temp\cchoDgth.s:26680  .debug_str:00000000000102a9 .LASF2559
C:\Users\CYMR90~1\AppData\Local\Temp\cchoDgth.s:26968  .debug_str:00000000000113c9 .LASF2560
C:\Users\CYMR90~1\AppData\Local\Temp\cchoDgth.s:26056  .debug_str:000000000000dc1f .LASF2561
C:\Users\CYMR90~1\AppData\Local\Temp\cchoDgth.s:25050  .debug_str:0000000000009a3a .LASF2562
C:\Users\CYMR90~1\AppData\Local\Temp\cchoDgth.s:33639  .debug_str:000000000002bcfd .LASF2563
C:\Users\CYMR90~1\AppData\Local\Temp\cchoDgth.s:26706  .debug_str:0000000000010465 .LASF2564
C:\Users\CYMR90~1\AppData\Local\Temp\cchoDgth.s:32981  .debug_str:0000000000029539 .LASF2565
C:\Users\CYMR90~1\AppData\Local\Temp\cchoDgth.s:31679  .debug_str:0000000000024002 .LASF2566
C:\Users\CYMR90~1\AppData\Local\Temp\cchoDgth.s:28479  .debug_str:00000000000176df .LASF2567
C:\Users\CYMR90~1\AppData\Local\Temp\cchoDgth.s:28086  .debug_str:0000000000015bbe .LASF2568
C:\Users\CYMR90~1\AppData\Local\Temp\cchoDgth.s:28224  .debug_str:00000000000164de .LASF2569
C:\Users\CYMR90~1\AppData\Local\Temp\cchoDgth.s:29581  .debug_str:000000000001be38 .LASF2570
C:\Users\CYMR90~1\AppData\Local\Temp\cchoDgth.s:25920  .debug_str:000000000000d2f3 .LASF2571
C:\Users\CYMR90~1\AppData\Local\Temp\cchoDgth.s:30381  .debug_str:000000000001f108 .LASF2572
C:\Users\CYMR90~1\AppData\Local\Temp\cchoDgth.s:24460  .debug_str:0000000000007378 .LASF2573
C:\Users\CYMR90~1\AppData\Local\Temp\cchoDgth.s:22896  .debug_str:00000000000010d9 .LASF2574
C:\Users\CYMR90~1\AppData\Local\Temp\cchoDgth.s:29351  .debug_str:000000000001b001 .LASF2575
C:\Users\CYMR90~1\AppData\Local\Temp\cchoDgth.s:25316  .debug_str:000000000000ab5f .LASF2576
C:\Users\CYMR90~1\AppData\Local\Temp\cchoDgth.s:28204  .debug_str:00000000000163b3 .LASF2577
C:\Users\CYMR90~1\AppData\Local\Temp\cchoDgth.s:25642  .debug_str:000000000000c16a .LASF2578
C:\Users\CYMR90~1\AppData\Local\Temp\cchoDgth.s:25774  .debug_str:000000000000c9a8 .LASF2579
C:\Users\CYMR90~1\AppData\Local\Temp\cchoDgth.s:29743  .debug_str:000000000001c803 .LASF2580
C:\Users\CYMR90~1\AppData\Local\Temp\cchoDgth.s:23884  .debug_str:0000000000004fcb .LASF2581
C:\Users\CYMR90~1\AppData\Local\Temp\cchoDgth.s:29599  .debug_str:000000000001bf24 .LASF2582
C:\Users\CYMR90~1\AppData\Local\Temp\cchoDgth.s:28072  .debug_str:0000000000015af1 .LASF2583
C:\Users\CYMR90~1\AppData\Local\Temp\cchoDgth.s:33129  .debug_str:0000000000029ef8 .LASF2584
C:\Users\CYMR90~1\AppData\Local\Temp\cchoDgth.s:31269  .debug_str:0000000000022771 .LASF2585
C:\Users\CYMR90~1\AppData\Local\Temp\cchoDgth.s:23852  .debug_str:0000000000004de5 .LASF2586
C:\Users\CYMR90~1\AppData\Local\Temp\cchoDgth.s:31009  .debug_str:0000000000021740 .LASF2587
C:\Users\CYMR90~1\AppData\Local\Temp\cchoDgth.s:32523  .debug_str:000000000002777b .LASF2588
C:\Users\CYMR90~1\AppData\Local\Temp\cchoDgth.s:22846  .debug_str:0000000000000d5d .LASF2589
C:\Users\CYMR90~1\AppData\Local\Temp\cchoDgth.s:24584  .debug_str:0000000000007b63 .LASF2590
C:\Users\CYMR90~1\AppData\Local\Temp\cchoDgth.s:25048  .debug_str:0000000000009a1a .LASF2591
C:\Users\CYMR90~1\AppData\Local\Temp\cchoDgth.s:27340  .debug_str:0000000000012ca1 .LASF2592
C:\Users\CYMR90~1\AppData\Local\Temp\cchoDgth.s:25112  .debug_str:0000000000009e46 .LASF2593
C:\Users\CYMR90~1\AppData\Local\Temp\cchoDgth.s:23636  .debug_str:0000000000003edf .LASF2594
C:\Users\CYMR90~1\AppData\Local\Temp\cchoDgth.s:29609  .debug_str:000000000001bff4 .LASF2595
C:\Users\CYMR90~1\AppData\Local\Temp\cchoDgth.s:28739  .debug_str:00000000000186df .LASF2596
C:\Users\CYMR90~1\AppData\Local\Temp\cchoDgth.s:25174  .debug_str:000000000000a20d .LASF2597
C:\Users\CYMR90~1\AppData\Local\Temp\cchoDgth.s:33973  .debug_str:000000000002d309 .LASF2598
C:\Users\CYMR90~1\AppData\Local\Temp\cchoDgth.s:23094  .debug_str:0000000000001cf3 .LASF2599
C:\Users\CYMR90~1\AppData\Local\Temp\cchoDgth.s:27600  .debug_str:0000000000013d9f .LASF2600
C:\Users\CYMR90~1\AppData\Local\Temp\cchoDgth.s:27764  .debug_str:0000000000014793 .LASF2601
C:\Users\CYMR90~1\AppData\Local\Temp\cchoDgth.s:33753  .debug_str:000000000002c462 .LASF2602
C:\Users\CYMR90~1\AppData\Local\Temp\cchoDgth.s:27022  .debug_str:000000000001170f .LASF2603
C:\Users\CYMR90~1\AppData\Local\Temp\cchoDgth.s:26358  .debug_str:000000000000ef11 .LASF2604
C:\Users\CYMR90~1\AppData\Local\Temp\cchoDgth.s:29875  .debug_str:000000000001d0c0 .LASF2605
C:\Users\CYMR90~1\AppData\Local\Temp\cchoDgth.s:29129  .debug_str:000000000001a0f6 .LASF2606
C:\Users\CYMR90~1\AppData\Local\Temp\cchoDgth.s:23904  .debug_str:0000000000005102 .LASF2607
C:\Users\CYMR90~1\AppData\Local\Temp\cchoDgth.s:23816  .debug_str:0000000000004ba8 .LASF2608
C:\Users\CYMR90~1\AppData\Local\Temp\cchoDgth.s:34007  .debug_str:000000000002d574 .LASF2609
C:\Users\CYMR90~1\AppData\Local\Temp\cchoDgth.s:30503  .debug_str:000000000001f8b3 .LASF2610
C:\Users\CYMR90~1\AppData\Local\Temp\cchoDgth.s:24736  .debug_str:000000000000869f .LASF2611
C:\Users\CYMR90~1\AppData\Local\Temp\cchoDgth.s:24724  .debug_str:00000000000085fe .LASF2612
C:\Users\CYMR90~1\AppData\Local\Temp\cchoDgth.s:32175  .debug_str:0000000000026214 .LASF2613
C:\Users\CYMR90~1\AppData\Local\Temp\cchoDgth.s:26980  .debug_str:000000000001148c .LASF2614
C:\Users\CYMR90~1\AppData\Local\Temp\cchoDgth.s:28222  .debug_str:00000000000164ba .LASF2615
C:\Users\CYMR90~1\AppData\Local\Temp\cchoDgth.s:29555  .debug_str:000000000001bcfe .LASF2616
C:\Users\CYMR90~1\AppData\Local\Temp\cchoDgth.s:31217  .debug_str:000000000002247a .LASF2617
C:\Users\CYMR90~1\AppData\Local\Temp\cchoDgth.s:31121  .debug_str:0000000000021eb5 .LASF2618
C:\Users\CYMR90~1\AppData\Local\Temp\cchoDgth.s:30117  .debug_str:000000000001e0c6 .LASF2619
C:\Users\CYMR90~1\AppData\Local\Temp\cchoDgth.s:29103  .debug_str:0000000000019f70 .LASF2620
C:\Users\CYMR90~1\AppData\Local\Temp\cchoDgth.s:28180  .debug_str:00000000000161f0 .LASF2621
C:\Users\CYMR90~1\AppData\Local\Temp\cchoDgth.s:27250  .debug_str:0000000000012690 .LASF2622
C:\Users\CYMR90~1\AppData\Local\Temp\cchoDgth.s:31519  .debug_str:0000000000023671 .LASF2623
C:\Users\CYMR90~1\AppData\Local\Temp\cchoDgth.s:28000  .debug_str:00000000000156b1 .LASF2624
C:\Users\CYMR90~1\AppData\Local\Temp\cchoDgth.s:23736  .debug_str:000000000000459b .LASF2625
C:\Users\CYMR90~1\AppData\Local\Temp\cchoDgth.s:23446  .debug_str:0000000000003281 .LASF2626
C:\Users\CYMR90~1\AppData\Local\Temp\cchoDgth.s:24974  .debug_str:000000000000958c .LASF2627
C:\Users\CYMR90~1\AppData\Local\Temp\cchoDgth.s:22842  .debug_str:0000000000000d26 .LASF2628
C:\Users\CYMR90~1\AppData\Local\Temp\cchoDgth.s:33499  .debug_str:000000000002b43f .LASF2629
C:\Users\CYMR90~1\AppData\Local\Temp\cchoDgth.s:24794  .debug_str:0000000000008a14 .LASF2630
C:\Users\CYMR90~1\AppData\Local\Temp\cchoDgth.s:23144  .debug_str:0000000000001ff7 .LASF2631
C:\Users\CYMR90~1\AppData\Local\Temp\cchoDgth.s:25608  .debug_str:000000000000be8f .LASF2632
C:\Users\CYMR90~1\AppData\Local\Temp\cchoDgth.s:22950  .debug_str:00000000000013da .LASF2633
C:\Users\CYMR90~1\AppData\Local\Temp\cchoDgth.s:29233  .debug_str:000000000001a88c .LASF2634
C:\Users\CYMR90~1\AppData\Local\Temp\cchoDgth.s:29015  .debug_str:000000000001993a .LASF2635
C:\Users\CYMR90~1\AppData\Local\Temp\cchoDgth.s:27522  .debug_str:0000000000013909 .LASF2636
C:\Users\CYMR90~1\AppData\Local\Temp\cchoDgth.s:32813  .debug_str:0000000000028b09 .LASF2637
C:\Users\CYMR90~1\AppData\Local\Temp\cchoDgth.s:25182  .debug_str:000000000000a28e .LASF2638
C:\Users\CYMR90~1\AppData\Local\Temp\cchoDgth.s:29277  .debug_str:000000000001aad2 .LASF2639
C:\Users\CYMR90~1\AppData\Local\Temp\cchoDgth.s:29923  .debug_str:000000000001d4dd .LASF2640
C:\Users\CYMR90~1\AppData\Local\Temp\cchoDgth.s:28405  .debug_str:0000000000017297 .LASF2641
C:\Users\CYMR90~1\AppData\Local\Temp\cchoDgth.s:32409  .debug_str:00000000000270ac .LASF2642
C:\Users\CYMR90~1\AppData\Local\Temp\cchoDgth.s:27462  .debug_str:0000000000013498 .LASF2643
C:\Users\CYMR90~1\AppData\Local\Temp\cchoDgth.s:22710  .debug_str:00000000000004fd .LASF2644
C:\Users\CYMR90~1\AppData\Local\Temp\cchoDgth.s:33295  .debug_str:000000000002a8a1 .LASF2645
C:\Users\CYMR90~1\AppData\Local\Temp\cchoDgth.s:28030  .debug_str:0000000000015867 .LASF2646
C:\Users\CYMR90~1\AppData\Local\Temp\cchoDgth.s:22828  .debug_str:0000000000000c5a .LASF2647
C:\Users\CYMR90~1\AppData\Local\Temp\cchoDgth.s:30021  .debug_str:000000000001db0d .LASF2648
C:\Users\CYMR90~1\AppData\Local\Temp\cchoDgth.s:30603  .debug_str:000000000001feaa .LASF2649
C:\Users\CYMR90~1\AppData\Local\Temp\cchoDgth.s:31967  .debug_str:0000000000025286 .LASF2650
C:\Users\CYMR90~1\AppData\Local\Temp\cchoDgth.s:24012  .debug_str:000000000000579b .LASF2651
C:\Users\CYMR90~1\AppData\Local\Temp\cchoDgth.s:23600  .debug_str:0000000000003c90 .LASF2652
C:\Users\CYMR90~1\AppData\Local\Temp\cchoDgth.s:27728  .debug_str:00000000000145a2 .LASF2653
C:\Users\CYMR90~1\AppData\Local\Temp\cchoDgth.s:25678  .debug_str:000000000000c3d4 .LASF2654
C:\Users\CYMR90~1\AppData\Local\Temp\cchoDgth.s:30491  .debug_str:000000000001f7f8 .LASF2655
C:\Users\CYMR90~1\AppData\Local\Temp\cchoDgth.s:26230  .debug_str:000000000000e6c2 .LASF2656
C:\Users\CYMR90~1\AppData\Local\Temp\cchoDgth.s:31419  .debug_str:0000000000023048 .LASF2657
C:\Users\CYMR90~1\AppData\Local\Temp\cchoDgth.s:33957  .debug_str:000000000002d233 .LASF2658
C:\Users\CYMR90~1\AppData\Local\Temp\cchoDgth.s:24126  .debug_str:0000000000005ead .LASF2659
C:\Users\CYMR90~1\AppData\Local\Temp\cchoDgth.s:29261  .debug_str:000000000001a9c7 .LASF2660
C:\Users\CYMR90~1\AppData\Local\Temp\cchoDgth.s:25396  .debug_str:000000000000b08b .LASF2661
C:\Users\CYMR90~1\AppData\Local\Temp\cchoDgth.s:32111  .debug_str:0000000000025d1a .LASF2662
C:\Users\CYMR90~1\AppData\Local\Temp\cchoDgth.s:23392  .debug_str:0000000000002f16 .LASF2663
C:\Users\CYMR90~1\AppData\Local\Temp\cchoDgth.s:33841  .debug_str:000000000002ca90 .LASF2664
C:\Users\CYMR90~1\AppData\Local\Temp\cchoDgth.s:22988  .debug_str:0000000000001602 .LASF2665
C:\Users\CYMR90~1\AppData\Local\Temp\cchoDgth.s:31275  .debug_str:00000000000227c8 .LASF2666
C:\Users\CYMR90~1\AppData\Local\Temp\cchoDgth.s:31285  .debug_str:000000000002286e .LASF2667
C:\Users\CYMR90~1\AppData\Local\Temp\cchoDgth.s:27624  .debug_str:0000000000013f32 .LASF2668
C:\Users\CYMR90~1\AppData\Local\Temp\cchoDgth.s:27406  .debug_str:00000000000130dc .LASF2669
C:\Users\CYMR90~1\AppData\Local\Temp\cchoDgth.s:30295  .debug_str:000000000001ec30 .LASF2670
C:\Users\CYMR90~1\AppData\Local\Temp\cchoDgth.s:25528  .debug_str:000000000000b97c .LASF2671
C:\Users\CYMR90~1\AppData\Local\Temp\cchoDgth.s:24392  .debug_str:0000000000006f05 .LASF2672
C:\Users\CYMR90~1\AppData\Local\Temp\cchoDgth.s:30599  .debug_str:000000000001fe5a .LASF2673
C:\Users\CYMR90~1\AppData\Local\Temp\cchoDgth.s:33183  .debug_str:000000000002a1d6 .LASF2674
C:\Users\CYMR90~1\AppData\Local\Temp\cchoDgth.s:28565  .debug_str:0000000000017c54 .LASF2675
C:\Users\CYMR90~1\AppData\Local\Temp\cchoDgth.s:29939  .debug_str:000000000001d5c6 .LASF2676
C:\Users\CYMR90~1\AppData\Local\Temp\cchoDgth.s:27788  .debug_str:000000000001497e .LASF2677
C:\Users\CYMR90~1\AppData\Local\Temp\cchoDgth.s:32139  .debug_str:0000000000025f49 .LASF2678
C:\Users\CYMR90~1\AppData\Local\Temp\cchoDgth.s:29441  .debug_str:000000000001b5fe .LASF2679
C:\Users\CYMR90~1\AppData\Local\Temp\cchoDgth.s:33559  .debug_str:000000000002b7b4 .LASF2680
C:\Users\CYMR90~1\AppData\Local\Temp\cchoDgth.s:23918  .debug_str:00000000000051cb .LASF2681
C:\Users\CYMR90~1\AppData\Local\Temp\cchoDgth.s:24554  .debug_str:000000000000797e .LASF2682
C:\Users\CYMR90~1\AppData\Local\Temp\cchoDgth.s:32999  .debug_str:0000000000029686 .LASF2683
C:\Users\CYMR90~1\AppData\Local\Temp\cchoDgth.s:28937  .debug_str:000000000001948c .LASF2684
C:\Users\CYMR90~1\AppData\Local\Temp\cchoDgth.s:32049  .debug_str:00000000000257f8 .LASF2685
C:\Users\CYMR90~1\AppData\Local\Temp\cchoDgth.s:25912  .debug_str:000000000000d265 .LASF2686
C:\Users\CYMR90~1\AppData\Local\Temp\cchoDgth.s:31179  .debug_str:000000000002222b .LASF2687
C:\Users\CYMR90~1\AppData\Local\Temp\cchoDgth.s:31437  .debug_str:000000000002314d .LASF2688
C:\Users\CYMR90~1\AppData\Local\Temp\cchoDgth.s:27010  .debug_str:000000000001165f .LASF2689
C:\Users\CYMR90~1\AppData\Local\Temp\cchoDgth.s:23584  .debug_str:0000000000003bb0 .LASF2690
C:\Users\CYMR90~1\AppData\Local\Temp\cchoDgth.s:28893  .debug_str:000000000001910c .LASF2691
C:\Users\CYMR90~1\AppData\Local\Temp\cchoDgth.s:22760  .debug_str:00000000000007ef .LASF2692
C:\Users\CYMR90~1\AppData\Local\Temp\cchoDgth.s:30695  .debug_str:000000000002048f .LASF2693
C:\Users\CYMR90~1\AppData\Local\Temp\cchoDgth.s:32905  .debug_str:000000000002911b .LASF2694
C:\Users\CYMR90~1\AppData\Local\Temp\cchoDgth.s:24694  .debug_str:0000000000008404 .LASF2695
C:\Users\CYMR90~1\AppData\Local\Temp\cchoDgth.s:25326  .debug_str:000000000000abf7 .LASF2696
C:\Users\CYMR90~1\AppData\Local\Temp\cchoDgth.s:31175  .debug_str:00000000000221ef .LASF2697
C:\Users\CYMR90~1\AppData\Local\Temp\cchoDgth.s:22900  .debug_str:000000000000110d .LASF2698
C:\Users\CYMR90~1\AppData\Local\Temp\cchoDgth.s:26156  .debug_str:000000000000e266 .LASF2699
C:\Users\CYMR90~1\AppData\Local\Temp\cchoDgth.s:29409  .debug_str:000000000001b3f8 .LASF2700
C:\Users\CYMR90~1\AppData\Local\Temp\cchoDgth.s:32661  .debug_str:000000000002803f .LASF2701
C:\Users\CYMR90~1\AppData\Local\Temp\cchoDgth.s:24438  .debug_str:00000000000071f5 .LASF2702
C:\Users\CYMR90~1\AppData\Local\Temp\cchoDgth.s:27676  .debug_str:0000000000014235 .LASF2703
C:\Users\CYMR90~1\AppData\Local\Temp\cchoDgth.s:24120  .debug_str:0000000000005e5d .LASF2704
C:\Users\CYMR90~1\AppData\Local\Temp\cchoDgth.s:28887  .debug_str:00000000000190af .LASF2705
C:\Users\CYMR90~1\AppData\Local\Temp\cchoDgth.s:33685  .debug_str:000000000002c01b .LASF2706
C:\Users\CYMR90~1\AppData\Local\Temp\cchoDgth.s:26960  .debug_str:0000000000011351 .LASF2707
C:\Users\CYMR90~1\AppData\Local\Temp\cchoDgth.s:31717  .debug_str:000000000002422d .LASF2708
C:\Users\CYMR90~1\AppData\Local\Temp\cchoDgth.s:25026  .debug_str:00000000000098d5 .LASF2709
C:\Users\CYMR90~1\AppData\Local\Temp\cchoDgth.s:25412  .debug_str:000000000000b245 .LASF2710
C:\Users\CYMR90~1\AppData\Local\Temp\cchoDgth.s:26066  .debug_str:000000000000dcd3 .LASF2711
C:\Users\CYMR90~1\AppData\Local\Temp\cchoDgth.s:31431  .debug_str:00000000000230e7 .LASF2712
C:\Users\CYMR90~1\AppData\Local\Temp\cchoDgth.s:28617  .debug_str:0000000000017f73 .LASF2713
C:\Users\CYMR90~1\AppData\Local\Temp\cchoDgth.s:23832  .debug_str:0000000000004c8d .LASF2714
C:\Users\CYMR90~1\AppData\Local\Temp\cchoDgth.s:25278  .debug_str:000000000000a812 .LASF2715
C:\Users\CYMR90~1\AppData\Local\Temp\cchoDgth.s:30519  .debug_str:000000000001f992 .LASF2716
C:\Users\CYMR90~1\AppData\Local\Temp\cchoDgth.s:24408  .debug_str:0000000000007049 .LASF2717
C:\Users\CYMR90~1\AppData\Local\Temp\cchoDgth.s:29613  .debug_str:000000000001c041 .LASF2718
C:\Users\CYMR90~1\AppData\Local\Temp\cchoDgth.s:25772  .debug_str:000000000000c98c .LASF2719
C:\Users\CYMR90~1\AppData\Local\Temp\cchoDgth.s:25512  .debug_str:000000000000b86d .LASF2720
C:\Users\CYMR90~1\AppData\Local\Temp\cchoDgth.s:30765  .debug_str:000000000002084e .LASF2721
C:\Users\CYMR90~1\AppData\Local\Temp\cchoDgth.s:24650  .debug_str:000000000000805c .LASF2722
C:\Users\CYMR90~1\AppData\Local\Temp\cchoDgth.s:29839  .debug_str:000000000001ce74 .LASF2723
C:\Users\CYMR90~1\AppData\Local\Temp\cchoDgth.s:23696  .debug_str:0000000000004337 .LASF2724
C:\Users\CYMR90~1\AppData\Local\Temp\cchoDgth.s:31693  .debug_str:00000000000240e2 .LASF2725
C:\Users\CYMR90~1\AppData\Local\Temp\cchoDgth.s:28919  .debug_str:000000000001929c .LASF2726
C:\Users\CYMR90~1\AppData\Local\Temp\cchoDgth.s:23168  .debug_str:000000000000213a .LASF2727
C:\Users\CYMR90~1\AppData\Local\Temp\cchoDgth.s:23520  .debug_str:0000000000003759 .LASF2728
C:\Users\CYMR90~1\AppData\Local\Temp\cchoDgth.s:32179  .debug_str:0000000000026257 .LASF2729
C:\Users\CYMR90~1\AppData\Local\Temp\cchoDgth.s:29471  .debug_str:000000000001b7e4 .LASF2730
C:\Users\CYMR90~1\AppData\Local\Temp\cchoDgth.s:28605  .debug_str:0000000000017ed5 .LASF2731
C:\Users\CYMR90~1\AppData\Local\Temp\cchoDgth.s:33869  .debug_str:000000000002cc87 .LASF2732
C:\Users\CYMR90~1\AppData\Local\Temp\cchoDgth.s:27674  .debug_str:000000000001421b .LASF2733
C:\Users\CYMR90~1\AppData\Local\Temp\cchoDgth.s:33023  .debug_str:00000000000297da .LASF2734
C:\Users\CYMR90~1\AppData\Local\Temp\cchoDgth.s:26760  .debug_str:000000000001077a .LASF2735
C:\Users\CYMR90~1\AppData\Local\Temp\cchoDgth.s:29367  .debug_str:000000000001b0f0 .LASF2736
C:\Users\CYMR90~1\AppData\Local\Temp\cchoDgth.s:23200  .debug_str:00000000000022ef .LASF2737
C:\Users\CYMR90~1\AppData\Local\Temp\cchoDgth.s:28397  .debug_str:0000000000017228 .LASF2738
C:\Users\CYMR90~1\AppData\Local\Temp\cchoDgth.s:27708  .debug_str:000000000001447a .LASF2739
C:\Users\CYMR90~1\AppData\Local\Temp\cchoDgth.s:27474  .debug_str:0000000000013594 .LASF2740
C:\Users\CYMR90~1\AppData\Local\Temp\cchoDgth.s:26362  .debug_str:000000000000ef42 .LASF2741
C:\Users\CYMR90~1\AppData\Local\Temp\cchoDgth.s:33561  .debug_str:000000000002b7cc .LASF2742
C:\Users\CYMR90~1\AppData\Local\Temp\cchoDgth.s:25346  .debug_str:000000000000ad2e .LASF2743
C:\Users\CYMR90~1\AppData\Local\Temp\cchoDgth.s:28563  .debug_str:0000000000017c3b .LASF2744
C:\Users\CYMR90~1\AppData\Local\Temp\cchoDgth.s:31841  .debug_str:0000000000024a4f .LASF2745
C:\Users\CYMR90~1\AppData\Local\Temp\cchoDgth.s:23622  .debug_str:0000000000003e1a .LASF2746
C:\Users\CYMR90~1\AppData\Local\Temp\cchoDgth.s:26890  .debug_str:0000000000010f73 .LASF2747
C:\Users\CYMR90~1\AppData\Local\Temp\cchoDgth.s:30095  .debug_str:000000000001df82 .LASF2748
C:\Users\CYMR90~1\AppData\Local\Temp\cchoDgth.s:33315  .debug_str:000000000002a9ba .LASF2749
C:\Users\CYMR90~1\AppData\Local\Temp\cchoDgth.s:25108  .debug_str:0000000000009e11 .LASF2750
C:\Users\CYMR90~1\AppData\Local\Temp\cchoDgth.s:28318  .debug_str:0000000000016a84 .LASF2751
C:\Users\CYMR90~1\AppData\Local\Temp\cchoDgth.s:30335  .debug_str:000000000001eec0 .LASF2752
C:\Users\CYMR90~1\AppData\Local\Temp\cchoDgth.s:23676  .debug_str:000000000000415f .LASF2753
C:\Users\CYMR90~1\AppData\Local\Temp\cchoDgth.s:28435  .debug_str:0000000000017439 .LASF2754
C:\Users\CYMR90~1\AppData\Local\Temp\cchoDgth.s:27520  .debug_str:00000000000138ee .LASF2755
C:\Users\CYMR90~1\AppData\Local\Temp\cchoDgth.s:26534  .debug_str:000000000000f94e .LASF2756
C:\Users\CYMR90~1\AppData\Local\Temp\cchoDgth.s:31263  .debug_str:0000000000022727 .LASF2757
C:\Users\CYMR90~1\AppData\Local\Temp\cchoDgth.s:24568  .debug_str:0000000000007a75 .LASF2758
C:\Users\CYMR90~1\AppData\Local\Temp\cchoDgth.s:27802  .debug_str:0000000000014a59 .LASF2759
C:\Users\CYMR90~1\AppData\Local\Temp\cchoDgth.s:30967  .debug_str:00000000000214b7 .LASF2760
C:\Users\CYMR90~1\AppData\Local\Temp\cchoDgth.s:22794  .debug_str:00000000000009ee .LASF2761
C:\Users\CYMR90~1\AppData\Local\Temp\cchoDgth.s:26046  .debug_str:000000000000db45 .LASF2762
C:\Users\CYMR90~1\AppData\Local\Temp\cchoDgth.s:29295  .debug_str:000000000001ac64 .LASF2763
C:\Users\CYMR90~1\AppData\Local\Temp\cchoDgth.s:32547  .debug_str:00000000000278cf .LASF2764
C:\Users\CYMR90~1\AppData\Local\Temp\cchoDgth.s:24324  .debug_str:0000000000006ac9 .LASF2765
C:\Users\CYMR90~1\AppData\Local\Temp\cchoDgth.s:27578  .debug_str:0000000000013c54 .LASF2766
C:\Users\CYMR90~1\AppData\Local\Temp\cchoDgth.s:30813  .debug_str:0000000000020bab .LASF2767
C:\Users\CYMR90~1\AppData\Local\Temp\cchoDgth.s:28102  .debug_str:0000000000015c9e .LASF2768
C:\Users\CYMR90~1\AppData\Local\Temp\cchoDgth.s:32919  .debug_str:00000000000291c2 .LASF2769
C:\Users\CYMR90~1\AppData\Local\Temp\cchoDgth.s:28487  .debug_str:0000000000017762 .LASF2770
C:\Users\CYMR90~1\AppData\Local\Temp\cchoDgth.s:24262  .debug_str:00000000000066e2 .LASF2771
C:\Users\CYMR90~1\AppData\Local\Temp\cchoDgth.s:29027  .debug_str:00000000000199ea .LASF2772
C:\Users\CYMR90~1\AppData\Local\Temp\cchoDgth.s:27532  .debug_str:00000000000139b1 .LASF2773
C:\Users\CYMR90~1\AppData\Local\Temp\cchoDgth.s:30753  .debug_str:00000000000207b2 .LASF2774
C:\Users\CYMR90~1\AppData\Local\Temp\cchoDgth.s:34049  .debug_str:000000000002d7ee .LASF2775
C:\Users\CYMR90~1\AppData\Local\Temp\cchoDgth.s:29703  .debug_str:000000000001c5da .LASF2776
C:\Users\CYMR90~1\AppData\Local\Temp\cchoDgth.s:31825  .debug_str:0000000000024933 .LASF2777
C:\Users\CYMR90~1\AppData\Local\Temp\cchoDgth.s:32251  .debug_str:00000000000266a0 .LASF2778
C:\Users\CYMR90~1\AppData\Local\Temp\cchoDgth.s:26054  .debug_str:000000000000dc0a .LASF2779
C:\Users\CYMR90~1\AppData\Local\Temp\cchoDgth.s:27300  .debug_str:00000000000129d3 .LASF2780
C:\Users\CYMR90~1\AppData\Local\Temp\cchoDgth.s:30493  .debug_str:000000000001f81d .LASF2781
C:\Users\CYMR90~1\AppData\Local\Temp\cchoDgth.s:33819  .debug_str:000000000002c92a .LASF2782
C:\Users\CYMR90~1\AppData\Local\Temp\cchoDgth.s:31265  .debug_str:0000000000022742 .LASF2783
C:\Users\CYMR90~1\AppData\Local\Temp\cchoDgth.s:33289  .debug_str:000000000002a83e .LASF2784
C:\Users\CYMR90~1\AppData\Local\Temp\cchoDgth.s:23596  .debug_str:0000000000003c57 .LASF2785
C:\Users\CYMR90~1\AppData\Local\Temp\cchoDgth.s:28342  .debug_str:0000000000016c5c .LASF2786
C:\Users\CYMR90~1\AppData\Local\Temp\cchoDgth.s:33151  .debug_str:000000000002a02a .LASF2787
C:\Users\CYMR90~1\AppData\Local\Temp\cchoDgth.s:26448  .debug_str:000000000000f400 .LASF2788
C:\Users\CYMR90~1\AppData\Local\Temp\cchoDgth.s:28308  .debug_str:00000000000169ff .LASF2789
C:\Users\CYMR90~1\AppData\Local\Temp\cchoDgth.s:33119  .debug_str:0000000000029e1e .LASF2790
C:\Users\CYMR90~1\AppData\Local\Temp\cchoDgth.s:26418  .debug_str:000000000000f255 .LASF2791
C:\Users\CYMR90~1\AppData\Local\Temp\cchoDgth.s:31151  .debug_str:000000000002204b .LASF2792
C:\Users\CYMR90~1\AppData\Local\Temp\cchoDgth.s:27588  .debug_str:0000000000013ce5 .LASF2793
C:\Users\CYMR90~1\AppData\Local\Temp\cchoDgth.s:23110  .debug_str:0000000000001dd4 .LASF2794
C:\Users\CYMR90~1\AppData\Local\Temp\cchoDgth.s:27836  .debug_str:0000000000014c44 .LASF2795
C:\Users\CYMR90~1\AppData\Local\Temp\cchoDgth.s:27642  .debug_str:000000000001402a .LASF2796
C:\Users\CYMR90~1\AppData\Local\Temp\cchoDgth.s:25950  .debug_str:000000000000d531 .LASF2797
C:\Users\CYMR90~1\AppData\Local\Temp\cchoDgth.s:30655  .debug_str:00000000000201c7 .LASF2798
C:\Users\CYMR90~1\AppData\Local\Temp\cchoDgth.s:29451  .debug_str:000000000001b6b4 .LASF2799
C:\Users\CYMR90~1\AppData\Local\Temp\cchoDgth.s:30277  .debug_str:000000000001eaee .LASF2800
C:\Users\CYMR90~1\AppData\Local\Temp\cchoDgth.s:23612  .debug_str:0000000000003d4f .LASF2801
C:\Users\CYMR90~1\AppData\Local\Temp\cchoDgth.s:28358  .debug_str:0000000000016e01 .LASF2802
C:\Users\CYMR90~1\AppData\Local\Temp\cchoDgth.s:24944  .debug_str:00000000000093ca .LASF2803
C:\Users\CYMR90~1\AppData\Local\Temp\cchoDgth.s:31795  .debug_str:0000000000024683 .LASF2804
C:\Users\CYMR90~1\AppData\Local\Temp\cchoDgth.s:23122  .debug_str:0000000000001e87 .LASF2805
C:\Users\CYMR90~1\AppData\Local\Temp\cchoDgth.s:26386  .debug_str:000000000000f081 .LASF2806
C:\Users\CYMR90~1\AppData\Local\Temp\cchoDgth.s:32599  .debug_str:0000000000027cd3 .LASF2807
C:\Users\CYMR90~1\AppData\Local\Temp\cchoDgth.s:32893  .debug_str:0000000000029078 .LASF2808
C:\Users\CYMR90~1\AppData\Local\Temp\cchoDgth.s:24576  .debug_str:0000000000007ae4 .LASF2809
C:\Users\CYMR90~1\AppData\Local\Temp\cchoDgth.s:27808  .debug_str:0000000000014aa0 .LASF2810
C:\Users\CYMR90~1\AppData\Local\Temp\cchoDgth.s:25118  .debug_str:0000000000009e8d .LASF2811
C:\Users\CYMR90~1\AppData\Local\Temp\cchoDgth.s:22884  .debug_str:0000000000001039 .LASF2812
C:\Users\CYMR90~1\AppData\Local\Temp\cchoDgth.s:26138  .debug_str:000000000000e150 .LASF2813
C:\Users\CYMR90~1\AppData\Local\Temp\cchoDgth.s:24672  .debug_str:00000000000081e6 .LASF2814
C:\Users\CYMR90~1\AppData\Local\Temp\cchoDgth.s:28663  .debug_str:0000000000018253 .LASF2815
C:\Users\CYMR90~1\AppData\Local\Temp\cchoDgth.s:33471  .debug_str:000000000002b2c7 .LASF2816
C:\Users\CYMR90~1\AppData\Local\Temp\cchoDgth.s:26758  .debug_str:0000000000010763 .LASF2817
C:\Users\CYMR90~1\AppData\Local\Temp\cchoDgth.s:31517  .debug_str:000000000002365a .LASF2818
C:\Users\CYMR90~1\AppData\Local\Temp\cchoDgth.s:32145  .debug_str:0000000000025fb0 .LASF2819
C:\Users\CYMR90~1\AppData\Local\Temp\cchoDgth.s:29565  .debug_str:000000000001bd66 .LASF2820
C:\Users\CYMR90~1\AppData\Local\Temp\cchoDgth.s:26946  .debug_str:0000000000011273 .LASF2821
C:\Users\CYMR90~1\AppData\Local\Temp\cchoDgth.s:33337  .debug_str:000000000002aad4 .LASF2822
C:\Users\CYMR90~1\AppData\Local\Temp\cchoDgth.s:24352  .debug_str:0000000000006c78 .LASF2823
C:\Users\CYMR90~1\AppData\Local\Temp\cchoDgth.s:24768  .debug_str:000000000000887c .LASF2824
C:\Users\CYMR90~1\AppData\Local\Temp\cchoDgth.s:25746  .debug_str:000000000000c816 .LASF2825
C:\Users\CYMR90~1\AppData\Local\Temp\cchoDgth.s:23206  .debug_str:000000000000233a .LASF2826
C:\Users\CYMR90~1\AppData\Local\Temp\cchoDgth.s:23530  .debug_str:000000000000380c .LASF2827
C:\Users\CYMR90~1\AppData\Local\Temp\cchoDgth.s:28503  .debug_str:000000000001783c .LASF2828
C:\Users\CYMR90~1\AppData\Local\Temp\cchoDgth.s:23892  .debug_str:0000000000005051 .LASF2829
C:\Users\CYMR90~1\AppData\Local\Temp\cchoDgth.s:27294  .debug_str:0000000000012970 .LASF2830
C:\Users\CYMR90~1\AppData\Local\Temp\cchoDgth.s:23940  .debug_str:0000000000005320 .LASF2831
C:\Users\CYMR90~1\AppData\Local\Temp\cchoDgth.s:30823  .debug_str:0000000000020c2d .LASF2832
C:\Users\CYMR90~1\AppData\Local\Temp\cchoDgth.s:27574  .debug_str:0000000000013c18 .LASF2833
C:\Users\CYMR90~1\AppData\Local\Temp\cchoDgth.s:26352  .debug_str:000000000000eea6 .LASF2834
C:\Users\CYMR90~1\AppData\Local\Temp\cchoDgth.s:25400  .debug_str:000000000000b0e0 .LASF2835
C:\Users\CYMR90~1\AppData\Local\Temp\cchoDgth.s:22948  .debug_str:00000000000013bc .LASF2836
C:\Users\CYMR90~1\AppData\Local\Temp\cchoDgth.s:25784  .debug_str:000000000000ca59 .LASF2837
C:\Users\CYMR90~1\AppData\Local\Temp\cchoDgth.s:27582  .debug_str:0000000000013c8f .LASF2838
C:\Users\CYMR90~1\AppData\Local\Temp\cchoDgth.s:30819  .debug_str:0000000000020bfe .LASF2839
C:\Users\CYMR90~1\AppData\Local\Temp\cchoDgth.s:22664  .debug_str:0000000000000233 .LASF2840
C:\Users\CYMR90~1\AppData\Local\Temp\cchoDgth.s:25910  .debug_str:000000000000d252 .LASF2841
C:\Users\CYMR90~1\AppData\Local\Temp\cchoDgth.s:29133  .debug_str:000000000001a14c .LASF2842
C:\Users\CYMR90~1\AppData\Local\Temp\cchoDgth.s:22860  .debug_str:0000000000000e5d .LASF2843
C:\Users\CYMR90~1\AppData\Local\Temp\cchoDgth.s:32667  .debug_str:0000000000028097 .LASF2844
C:\Users\CYMR90~1\AppData\Local\Temp\cchoDgth.s:30997  .debug_str:000000000002168d .LASF2845
C:\Users\CYMR90~1\AppData\Local\Temp\cchoDgth.s:29375  .debug_str:000000000001b174 .LASF2846
C:\Users\CYMR90~1\AppData\Local\Temp\cchoDgth.s:33877  .debug_str:000000000002cd0a .LASF2847
C:\Users\CYMR90~1\AppData\Local\Temp\cchoDgth.s:22982  .debug_str:00000000000015cc .LASF2848
C:\Users\CYMR90~1\AppData\Local\Temp\cchoDgth.s:27718  .debug_str:000000000001451b .LASF2849
C:\Users\CYMR90~1\AppData\Local\Temp\cchoDgth.s:32515  .debug_str:00000000000276fb .LASF2850
C:\Users\CYMR90~1\AppData\Local\Temp\cchoDgth.s:33553  .debug_str:000000000002b752 .LASF2851
C:\Users\CYMR90~1\AppData\Local\Temp\cchoDgth.s:29707  .debug_str:000000000001c608 .LASF2852
C:\Users\CYMR90~1\AppData\Local\Temp\cchoDgth.s:25958  .debug_str:000000000000d589 .LASF2853
C:\Users\CYMR90~1\AppData\Local\Temp\cchoDgth.s:31301  .debug_str:0000000000022957 .LASF2854
C:\Users\CYMR90~1\AppData\Local\Temp\cchoDgth.s:23102  .debug_str:0000000000001d60 .LASF2855
C:\Users\CYMR90~1\AppData\Local\Temp\cchoDgth.s:26368  .debug_str:000000000000ef91 .LASF2856
C:\Users\CYMR90~1\AppData\Local\Temp\cchoDgth.s:29589  .debug_str:000000000001be9d .LASF2857
C:\Users\CYMR90~1\AppData\Local\Temp\cchoDgth.s:32783  .debug_str:000000000002889f .LASF2858
C:\Users\CYMR90~1\AppData\Local\Temp\cchoDgth.s:26290  .debug_str:000000000000eacd .LASF2859
C:\Users\CYMR90~1\AppData\Local\Temp\cchoDgth.s:27796  .debug_str:0000000000014a09 .LASF2860
C:\Users\CYMR90~1\AppData\Local\Temp\cchoDgth.s:27830  .debug_str:0000000000014bff .LASF2861
C:\Users\CYMR90~1\AppData\Local\Temp\cchoDgth.s:22876  .debug_str:0000000000000fda .LASF2862
C:\Users\CYMR90~1\AppData\Local\Temp\cchoDgth.s:23026  .debug_str:00000000000018da .LASF2863
C:\Users\CYMR90~1\AppData\Local\Temp\cchoDgth.s:28366  .debug_str:0000000000016e7b .LASF2864
C:\Users\CYMR90~1\AppData\Local\Temp\cchoDgth.s:31299  .debug_str:0000000000022942 .LASF2865
C:\Users\CYMR90~1\AppData\Local\Temp\cchoDgth.s:26470  .debug_str:000000000000f57a .LASF2866
C:\Users\CYMR90~1\AppData\Local\Temp\cchoDgth.s:31199  .debug_str:0000000000022387 .LASF2867
C:\Users\CYMR90~1\AppData\Local\Temp\cchoDgth.s:31369  .debug_str:0000000000022d2b .LASF2868
C:\Users\CYMR90~1\AppData\Local\Temp\cchoDgth.s:29287  .debug_str:000000000001abfe .LASF2869
C:\Users\CYMR90~1\AppData\Local\Temp\cchoDgth.s:28533  .debug_str:0000000000017a18 .LASF2870
C:\Users\CYMR90~1\AppData\Local\Temp\cchoDgth.s:26234  .debug_str:000000000000e701 .LASF2871
C:\Users\CYMR90~1\AppData\Local\Temp\cchoDgth.s:27418  .debug_str:00000000000131a2 .LASF2872
C:\Users\CYMR90~1\AppData\Local\Temp\cchoDgth.s:27378  .debug_str:0000000000012f13 .LASF2873
C:\Users\CYMR90~1\AppData\Local\Temp\cchoDgth.s:23440  .debug_str:000000000000323b .LASF2874
C:\Users\CYMR90~1\AppData\Local\Temp\cchoDgth.s:23316  .debug_str:0000000000002a3f .LASF2875
C:\Users\CYMR90~1\AppData\Local\Temp\cchoDgth.s:30953  .debug_str:00000000000213fd .LASF2876
C:\Users\CYMR90~1\AppData\Local\Temp\cchoDgth.s:31971  .debug_str:00000000000252d7 .LASF2877
C:\Users\CYMR90~1\AppData\Local\Temp\cchoDgth.s:31647  .debug_str:0000000000023e01 .LASF2878
C:\Users\CYMR90~1\AppData\Local\Temp\cchoDgth.s:25468  .debug_str:000000000000b57c .LASF2879
C:\Users\CYMR90~1\AppData\Local\Temp\cchoDgth.s:28665  .debug_str:000000000001826a .LASF2880
C:\Users\CYMR90~1\AppData\Local\Temp\cchoDgth.s:31949  .debug_str:0000000000025164 .LASF2881
C:\Users\CYMR90~1\AppData\Local\Temp\cchoDgth.s:23726  .debug_str:00000000000044f5 .LASF2882
C:\Users\CYMR90~1\AppData\Local\Temp\cchoDgth.s:26914  .debug_str:00000000000110ad .LASF2883
C:\Users\CYMR90~1\AppData\Local\Temp\cchoDgth.s:30115  .debug_str:000000000001e0b4 .LASF2884
C:\Users\CYMR90~1\AppData\Local\Temp\cchoDgth.s:33977  .debug_str:000000000002d353 .LASF2885
C:\Users\CYMR90~1\AppData\Local\Temp\cchoDgth.s:25220  .debug_str:000000000000a4f0 .LASF2886
C:\Users\CYMR90~1\AppData\Local\Temp\cchoDgth.s:28441  .debug_str:0000000000017496 .LASF2887
C:\Users\CYMR90~1\AppData\Local\Temp\cchoDgth.s:31711  .debug_str:00000000000241ea .LASF2888
C:\Users\CYMR90~1\AppData\Local\Temp\cchoDgth.s:29843  .debug_str:000000000001ceaa .LASF2889
C:\Users\CYMR90~1\AppData\Local\Temp\cchoDgth.s:23166  .debug_str:0000000000002126 .LASF2890
C:\Users\CYMR90~1\AppData\Local\Temp\cchoDgth.s:27896  .debug_str:000000000001503f .LASF2891
C:\Users\CYMR90~1\AppData\Local\Temp\cchoDgth.s:32701  .debug_str:0000000000028303 .LASF2892
C:\Users\CYMR90~1\AppData\Local\Temp\cchoDgth.s:26006  .debug_str:000000000000d92c .LASF2893
C:\Users\CYMR90~1\AppData\Local\Temp\cchoDgth.s:30721  .debug_str:0000000000020623 .LASF2894
C:\Users\CYMR90~1\AppData\Local\Temp\cchoDgth.s:33377  .debug_str:000000000002ad75 .LASF2895
C:\Users\CYMR90~1\AppData\Local\Temp\cchoDgth.s:33587  .debug_str:000000000002b995 .LASF2896
C:\Users\CYMR90~1\AppData\Local\Temp\cchoDgth.s:29323  .debug_str:000000000001adfd .LASF2897
C:\Users\CYMR90~1\AppData\Local\Temp\cchoDgth.s:24472  .debug_str:0000000000007457 .LASF2898
C:\Users\CYMR90~1\AppData\Local\Temp\cchoDgth.s:24776  .debug_str:00000000000088f4 .LASF2899
C:\Users\CYMR90~1\AppData\Local\Temp\cchoDgth.s:28727  .debug_str:000000000001860c .LASF2900
C:\Users\CYMR90~1\AppData\Local\Temp\cchoDgth.s:33689  .debug_str:000000000002c048 .LASF2901
C:\Users\CYMR90~1\AppData\Local\Temp\cchoDgth.s:27160  .debug_str:00000000000120b9 .LASF2902
C:\Users\CYMR90~1\AppData\Local\Temp\cchoDgth.s:27988  .debug_str:00000000000155ff .LASF2903
C:\Users\CYMR90~1\AppData\Local\Temp\cchoDgth.s:24174  .debug_str:000000000000614b .LASF2904
C:\Users\CYMR90~1\AppData\Local\Temp\cchoDgth.s:30983  .debug_str:00000000000215a3 .LASF2905
C:\Users\CYMR90~1\AppData\Local\Temp\cchoDgth.s:32397  .debug_str:0000000000026fee .LASF2906
C:\Users\CYMR90~1\AppData\Local\Temp\cchoDgth.s:33791  .debug_str:000000000002c743 .LASF2907
C:\Users\CYMR90~1\AppData\Local\Temp\cchoDgth.s:23686  .debug_str:0000000000004291 .LASF2908
C:\Users\CYMR90~1\AppData\Local\Temp\cchoDgth.s:27428  .debug_str:0000000000013248 .LASF2909
C:\Users\CYMR90~1\AppData\Local\Temp\cchoDgth.s:32897  .debug_str:00000000000290aa .LASF2910
C:\Users\CYMR90~1\AppData\Local\Temp\cchoDgth.s:30787  .debug_str:00000000000209a8 .LASF2911
C:\Users\CYMR90~1\AppData\Local\Temp\cchoDgth.s:29665  .debug_str:000000000001c33d .LASF2912
C:\Users\CYMR90~1\AppData\Local\Temp\cchoDgth.s:29231  .debug_str:000000000001a84e .LASF2913
C:\Users\CYMR90~1\AppData\Local\Temp\cchoDgth.s:29153  .debug_str:000000000001a242 .LASF2914
C:\Users\CYMR90~1\AppData\Local\Temp\cchoDgth.s:31413  .debug_str:0000000000022fd4 .LASF2915
C:\Users\CYMR90~1\AppData\Local\Temp\cchoDgth.s:29659  .debug_str:000000000001c2ea .LASF2916
C:\Users\CYMR90~1\AppData\Local\Temp\cchoDgth.s:28789  .debug_str:00000000000189f9 .LASF2917
C:\Users\CYMR90~1\AppData\Local\Temp\cchoDgth.s:30195  .debug_str:000000000001e653 .LASF2918
C:\Users\CYMR90~1\AppData\Local\Temp\cchoDgth.s:26964  .debug_str:000000000001138f .LASF2919
C:\Users\CYMR90~1\AppData\Local\Temp\cchoDgth.s:26090  .debug_str:000000000000de1c .LASF2920
C:\Users\CYMR90~1\AppData\Local\Temp\cchoDgth.s:25214  .debug_str:000000000000a48d .LASF2921
C:\Users\CYMR90~1\AppData\Local\Temp\cchoDgth.s:24310  .debug_str:00000000000069f7 .LASF2922
C:\Users\CYMR90~1\AppData\Local\Temp\cchoDgth.s:23444  .debug_str:0000000000003271 .LASF2923
C:\Users\CYMR90~1\AppData\Local\Temp\cchoDgth.s:34023  .debug_str:000000000002d656 .LASF2924
C:\Users\CYMR90~1\AppData\Local\Temp\cchoDgth.s:28248  .debug_str:0000000000016647 .LASF2925
C:\Users\CYMR90~1\AppData\Local\Temp\cchoDgth.s:31879  .debug_str:0000000000024ca6 .LASF2926
C:\Users\CYMR90~1\AppData\Local\Temp\cchoDgth.s:23650  .debug_str:0000000000003ffb .LASF2927
C:\Users\CYMR90~1\AppData\Local\Temp\cchoDgth.s:26932  .debug_str:00000000000111a6 .LASF2928
C:\Users\CYMR90~1\AppData\Local\Temp\cchoDgth.s:30133  .debug_str:000000000001e25e .LASF2929
C:\Users\CYMR90~1\AppData\Local\Temp\cchoDgth.s:25144  .debug_str:000000000000a005 .LASF2930
C:\Users\CYMR90~1\AppData\Local\Temp\cchoDgth.s:25232  .debug_str:000000000000a5a7 .LASF2931
C:\Users\CYMR90~1\AppData\Local\Temp\cchoDgth.s:31497  .debug_str:0000000000023540 .LASF2932
C:\Users\CYMR90~1\AppData\Local\Temp\cchoDgth.s:33979  .debug_str:000000000002d365 .LASF2933
C:\Users\CYMR90~1\AppData\Local\Temp\cchoDgth.s:31953  .debug_str:000000000002519c .LASF2934
C:\Users\CYMR90~1\AppData\Local\Temp\cchoDgth.s:28044  .debug_str:0000000000015941 .LASF2935
C:\Users\CYMR90~1\AppData\Local\Temp\cchoDgth.s:30767  .debug_str:000000000002086b .LASF2936
C:\Users\CYMR90~1\AppData\Local\Temp\cchoDgth.s:29255  .debug_str:000000000001a97b .LASF2937
C:\Users\CYMR90~1\AppData\Local\Temp\cchoDgth.s:29291  .debug_str:000000000001ac2c .LASF2938
C:\Users\CYMR90~1\AppData\Local\Temp\cchoDgth.s:29329  .debug_str:000000000001ae88 .LASF2939
C:\Users\CYMR90~1\AppData\Local\Temp\cchoDgth.s:28274  .debug_str:000000000001677d .LASF2940
C:\Users\CYMR90~1\AppData\Local\Temp\cchoDgth.s:27282  .debug_str:00000000000128a1 .LASF2941
C:\Users\CYMR90~1\AppData\Local\Temp\cchoDgth.s:27668  .debug_str:00000000000141ce .LASF2942
C:\Users\CYMR90~1\AppData\Local\Temp\cchoDgth.s:32307  .debug_str:0000000000026a1a .LASF2943
C:\Users\CYMR90~1\AppData\Local\Temp\cchoDgth.s:29497  .debug_str:000000000001b971 .LASF2944
C:\Users\CYMR90~1\AppData\Local\Temp\cchoDgth.s:24158  .debug_str:000000000000605c .LASF2945
C:\Users\CYMR90~1\AppData\Local\Temp\cchoDgth.s:26088  .debug_str:000000000000ddfa .LASF2946
C:\Users\CYMR90~1\AppData\Local\Temp\cchoDgth.s:31109  .debug_str:0000000000021ddc .LASF2947
C:\Users\CYMR90~1\AppData\Local\Temp\cchoDgth.s:32677  .debug_str:000000000002814a .LASF2948
C:\Users\CYMR90~1\AppData\Local\Temp\cchoDgth.s:25658  .debug_str:000000000000c28e .LASF2949
C:\Users\CYMR90~1\AppData\Local\Temp\cchoDgth.s:26216  .debug_str:000000000000e604 .LASF2950
C:\Users\CYMR90~1\AppData\Local\Temp\cchoDgth.s:30239  .debug_str:000000000001e8d7 .LASF2951
C:\Users\CYMR90~1\AppData\Local\Temp\cchoDgth.s:23916  .debug_str:00000000000051b5 .LASF2952
C:\Users\CYMR90~1\AppData\Local\Temp\cchoDgth.s:33547  .debug_str:000000000002b70d .LASF2953
C:\Users\CYMR90~1\AppData\Local\Temp\cchoDgth.s:30593  .debug_str:000000000001fe10 .LASF2954
C:\Users\CYMR90~1\AppData\Local\Temp\cchoDgth.s:32549  .debug_str:00000000000278e6 .LASF2955
C:\Users\CYMR90~1\AppData\Local\Temp\cchoDgth.s:33403  .debug_str:000000000002aef7 .LASF2956
C:\Users\CYMR90~1\AppData\Local\Temp\cchoDgth.s:34053  .debug_str:000000000002d822 .LASF2957
C:\Users\CYMR90~1\AppData\Local\Temp\cchoDgth.s:23414  .debug_str:0000000000003087 .LASF2958
C:\Users\CYMR90~1\AppData\Local\Temp\cchoDgth.s:23146  .debug_str:0000000000002019 .LASF2959
C:\Users\CYMR90~1\AppData\Local\Temp\cchoDgth.s:30267  .debug_str:000000000001ea82 .LASF2960
C:\Users\CYMR90~1\AppData\Local\Temp\cchoDgth.s:23390  .debug_str:0000000000002eff .LASF2961
C:\Users\CYMR90~1\AppData\Local\Temp\cchoDgth.s:27570  .debug_str:0000000000013bea .LASF2962
C:\Users\CYMR90~1\AppData\Local\Temp\cchoDgth.s:33837  .debug_str:000000000002ca1b .LASF2963
C:\Users\CYMR90~1\AppData\Local\Temp\cchoDgth.s:32451  .debug_str:0000000000027327 .LASF2964
C:\Users\CYMR90~1\AppData\Local\Temp\cchoDgth.s:24144  .debug_str:0000000000005f97 .LASF2965
C:\Users\CYMR90~1\AppData\Local\Temp\cchoDgth.s:32655  .debug_str:0000000000027fdd .LASF2966
C:\Users\CYMR90~1\AppData\Local\Temp\cchoDgth.s:29829  .debug_str:000000000001cde9 .LASF2967
C:\Users\CYMR90~1\AppData\Local\Temp\cchoDgth.s:30839  .debug_str:0000000000020d3f .LASF2968
C:\Users\CYMR90~1\AppData\Local\Temp\cchoDgth.s:26588  .debug_str:000000000000fd04 .LASF2969
C:\Users\CYMR90~1\AppData\Local\Temp\cchoDgth.s:25726  .debug_str:000000000000c6bb .LASF2970
C:\Users\CYMR90~1\AppData\Local\Temp\cchoDgth.s:29553  .debug_str:000000000001bce2 .LASF2971
C:\Users\CYMR90~1\AppData\Local\Temp\cchoDgth.s:32853  .debug_str:0000000000028dac .LASF2972
C:\Users\CYMR90~1\AppData\Local\Temp\cchoDgth.s:31257  .debug_str:00000000000226b2 .LASF2973
C:\Users\CYMR90~1\AppData\Local\Temp\cchoDgth.s:32203  .debug_str:00000000000263bf .LASF2974
C:\Users\CYMR90~1\AppData\Local\Temp\cchoDgth.s:23738  .debug_str:00000000000045b7 .LASF2975
C:\Users\CYMR90~1\AppData\Local\Temp\cchoDgth.s:28629  .debug_str:0000000000018017 .LASF2976
C:\Users\CYMR90~1\AppData\Local\Temp\cchoDgth.s:31165  .debug_str:0000000000022162 .LASF2977
C:\Users\CYMR90~1\AppData\Local\Temp\cchoDgth.s:24630  .debug_str:0000000000007e89 .LASF2978
C:\Users\CYMR90~1\AppData\Local\Temp\cchoDgth.s:30009  .debug_str:000000000001d9eb .LASF2979
C:\Users\CYMR90~1\AppData\Local\Temp\cchoDgth.s:26030  .debug_str:000000000000da76 .LASF2980
C:\Users\CYMR90~1\AppData\Local\Temp\cchoDgth.s:33611  .debug_str:000000000002bb38 .LASF2981
C:\Users\CYMR90~1\AppData\Local\Temp\cchoDgth.s:28659  .debug_str:0000000000018201 .LASF2982
C:\Users\CYMR90~1\AppData\Local\Temp\cchoDgth.s:23610  .debug_str:0000000000003d2c .LASF2983
C:\Users\CYMR90~1\AppData\Local\Temp\cchoDgth.s:28889  .debug_str:00000000000190c7 .LASF2984
C:\Users\CYMR90~1\AppData\Local\Temp\cchoDgth.s:22656  .debug_str:00000000000001a1 .LASF2985
C:\Users\CYMR90~1\AppData\Local\Temp\cchoDgth.s:26410  .debug_str:000000000000f1be .LASF2986
C:\Users\CYMR90~1\AppData\Local\Temp\cchoDgth.s:27878  .debug_str:0000000000014ee8 .LASF2987
C:\Users\CYMR90~1\AppData\Local\Temp\cchoDgth.s:27782  .debug_str:0000000000014904 .LASF2988
C:\Users\CYMR90~1\AppData\Local\Temp\cchoDgth.s:26436  .debug_str:000000000000f342 .LASF2989
C:\Users\CYMR90~1\AppData\Local\Temp\cchoDgth.s:26114  .debug_str:000000000000df8c .LASF2990
C:\Users\CYMR90~1\AppData\Local\Temp\cchoDgth.s:31663  .debug_str:0000000000023f26 .LASF2991
C:\Users\CYMR90~1\AppData\Local\Temp\cchoDgth.s:28477  .debug_str:00000000000176ba .LASF2992
C:\Users\CYMR90~1\AppData\Local\Temp\cchoDgth.s:27566  .debug_str:0000000000013ba0 .LASF2993
C:\Users\CYMR90~1\AppData\Local\Temp\cchoDgth.s:29083  .debug_str:0000000000019e2b .LASF2994
C:\Users\CYMR90~1\AppData\Local\Temp\cchoDgth.s:32475  .debug_str:000000000002745a .LASF2995
C:\Users\CYMR90~1\AppData\Local\Temp\cchoDgth.s:26032  .debug_str:000000000000da95 .LASF2996
C:\Users\CYMR90~1\AppData\Local\Temp\cchoDgth.s:28489  .debug_str:000000000001777b .LASF2997
C:\Users\CYMR90~1\AppData\Local\Temp\cchoDgth.s:25638  .debug_str:000000000000c119 .LASF2998
C:\Users\CYMR90~1\AppData\Local\Temp\cchoDgth.s:24410  .debug_str:0000000000007065 .LASF2999
C:\Users\CYMR90~1\AppData\Local\Temp\cchoDgth.s:26328  .debug_str:000000000000ed36 .LASF3000
C:\Users\CYMR90~1\AppData\Local\Temp\cchoDgth.s:22874  .debug_str:0000000000000fbd .LASF3001
C:\Users\CYMR90~1\AppData\Local\Temp\cchoDgth.s:33665  .debug_str:000000000002be9c .LASF3002
C:\Users\CYMR90~1\AppData\Local\Temp\cchoDgth.s:33265  .debug_str:000000000002a6ca .LASF3003
C:\Users\CYMR90~1\AppData\Local\Temp\cchoDgth.s:30635  .debug_str:00000000000200ba .LASF3004
C:\Users\CYMR90~1\AppData\Local\Temp\cchoDgth.s:31783  .debug_str:00000000000245da .LASF3005
C:\Users\CYMR90~1\AppData\Local\Temp\cchoDgth.s:30199  .debug_str:000000000001e689 .LASF3006
C:\Users\CYMR90~1\AppData\Local\Temp\cchoDgth.s:30595  .debug_str:000000000001fe25 .LASF3007
C:\Users\CYMR90~1\AppData\Local\Temp\cchoDgth.s:32617  .debug_str:0000000000027dbf .LASF3008
C:\Users\CYMR90~1\AppData\Local\Temp\cchoDgth.s:27750  .debug_str:00000000000146e0 .LASF3009
C:\Users\CYMR90~1\AppData\Local\Temp\cchoDgth.s:28310  .debug_str:0000000000016a14 .LASF3010
C:\Users\CYMR90~1\AppData\Local\Temp\cchoDgth.s:23136  .debug_str:0000000000001f59 .LASF3011
C:\Users\CYMR90~1\AppData\Local\Temp\cchoDgth.s:30581  .debug_str:000000000001fd24 .LASF3012
C:\Users\CYMR90~1\AppData\Local\Temp\cchoDgth.s:30529  .debug_str:000000000001fa2e .LASF3013
C:\Users\CYMR90~1\AppData\Local\Temp\cchoDgth.s:29627  .debug_str:000000000001c10f .LASF3014
C:\Users\CYMR90~1\AppData\Local\Temp\cchoDgth.s:23300  .debug_str:000000000000294a .LASF3015
C:\Users\CYMR90~1\AppData\Local\Temp\cchoDgth.s:32109  .debug_str:0000000000025cfb .LASF3016
C:\Users\CYMR90~1\AppData\Local\Temp\cchoDgth.s:25922  .debug_str:000000000000d306 .LASF3017
C:\Users\CYMR90~1\AppData\Local\Temp\cchoDgth.s:23656  .debug_str:0000000000004057 .LASF3018
C:\Users\CYMR90~1\AppData\Local\Temp\cchoDgth.s:23394  .debug_str:0000000000002f36 .LASF3019
C:\Users\CYMR90~1\AppData\Local\Temp\cchoDgth.s:24808  .debug_str:0000000000008b23 .LASF3020
C:\Users\CYMR90~1\AppData\Local\Temp\cchoDgth.s:30189  .debug_str:000000000001e5eb .LASF3021
C:\Users\CYMR90~1\AppData\Local\Temp\cchoDgth.s:31361  .debug_str:0000000000022cac .LASF3022
C:\Users\CYMR90~1\AppData\Local\Temp\cchoDgth.s:25184  .debug_str:000000000000a2b5 .LASF3023
C:\Users\CYMR90~1\AppData\Local\Temp\cchoDgth.s:26860  .debug_str:0000000000010d4a .LASF3024
C:\Users\CYMR90~1\AppData\Local\Temp\cchoDgth.s:28096  .debug_str:0000000000015c4d .LASF3025
C:\Users\CYMR90~1\AppData\Local\Temp\cchoDgth.s:26162  .debug_str:000000000000e2c6 .LASF3026
C:\Users\CYMR90~1\AppData\Local\Temp\cchoDgth.s:29403  .debug_str:000000000001b393 .LASF3027
C:\Users\CYMR90~1\AppData\Local\Temp\cchoDgth.s:29041  .debug_str:0000000000019ad7 .LASF3028
C:\Users\CYMR90~1\AppData\Local\Temp\cchoDgth.s:25646  .debug_str:000000000000c19d .LASF3029
C:\Users\CYMR90~1\AppData\Local\Temp\cchoDgth.s:30793  .debug_str:0000000000020a0f .LASF3030
C:\Users\CYMR90~1\AppData\Local\Temp\cchoDgth.s:28593  .debug_str:0000000000017e0f .LASF3031
C:\Users\CYMR90~1\AppData\Local\Temp\cchoDgth.s:32857  .debug_str:0000000000028deb .LASF3032
C:\Users\CYMR90~1\AppData\Local\Temp\cchoDgth.s:30297  .debug_str:000000000001ec5f .LASF3033
C:\Users\CYMR90~1\AppData\Local\Temp\cchoDgth.s:29603  .debug_str:000000000001bf50 .LASF3034
C:\Users\CYMR90~1\AppData\Local\Temp\cchoDgth.s:32737  .debug_str:000000000002854e .LASF3035
C:\Users\CYMR90~1\AppData\Local\Temp\cchoDgth.s:23164  .debug_str:0000000000002107 .LASF3036
C:\Users\CYMR90~1\AppData\Local\Temp\cchoDgth.s:26354  .debug_str:000000000000eec4 .LASF3037
C:\Users\CYMR90~1\AppData\Local\Temp\cchoDgth.s:26396  .debug_str:000000000000f0f6 .LASF3038
C:\Users\CYMR90~1\AppData\Local\Temp\cchoDgth.s:32385  .debug_str:0000000000026f0c .LASF3039
C:\Users\CYMR90~1\AppData\Local\Temp\cchoDgth.s:32743  .debug_str:00000000000285ae .LASF3040
C:\Users\CYMR90~1\AppData\Local\Temp\cchoDgth.s:28683  .debug_str:000000000001835b .LASF3041
C:\Users\CYMR90~1\AppData\Local\Temp\cchoDgth.s:31473  .debug_str:00000000000233e0 .LASF3042
C:\Users\CYMR90~1\AppData\Local\Temp\cchoDgth.s:22996  .debug_str:0000000000001670 .LASF3043
C:\Users\CYMR90~1\AppData\Local\Temp\cchoDgth.s:23294  .debug_str:00000000000028ee .LASF3044
C:\Users\CYMR90~1\AppData\Local\Temp\cchoDgth.s:33339  .debug_str:000000000002aaef .LASF3045
C:\Users\CYMR90~1\AppData\Local\Temp\cchoDgth.s:24202  .debug_str:000000000000636b .LASF3046
C:\Users\CYMR90~1\AppData\Local\Temp\cchoDgth.s:27454  .debug_str:000000000001342d .LASF3047
C:\Users\CYMR90~1\AppData\Local\Temp\cchoDgth.s:25994  .debug_str:000000000000d85f .LASF3048
C:\Users\CYMR90~1\AppData\Local\Temp\cchoDgth.s:31035  .debug_str:00000000000218bc .LASF3049
C:\Users\CYMR90~1\AppData\Local\Temp\cchoDgth.s:29051  .debug_str:0000000000019bb6 .LASF3050
C:\Users\CYMR90~1\AppData\Local\Temp\cchoDgth.s:25160  .debug_str:000000000000a101 .LASF3051
C:\Users\CYMR90~1\AppData\Local\Temp\cchoDgth.s:24910  .debug_str:00000000000091fd .LASF3052
C:\Users\CYMR90~1\AppData\Local\Temp\cchoDgth.s:25514  .debug_str:000000000000b88a .LASF3053
C:\Users\CYMR90~1\AppData\Local\Temp\cchoDgth.s:23732  .debug_str:0000000000004551 .LASF3054
C:\Users\CYMR90~1\AppData\Local\Temp\cchoDgth.s:26878  .debug_str:0000000000010eda .LASF3055
C:\Users\CYMR90~1\AppData\Local\Temp\cchoDgth.s:28575  .debug_str:0000000000017d06 .LASF3056
C:\Users\CYMR90~1\AppData\Local\Temp\cchoDgth.s:24784  .debug_str:0000000000008964 .LASF3057
C:\Users\CYMR90~1\AppData\Local\Temp\cchoDgth.s:25596  .debug_str:000000000000bdca .LASF3058
C:\Users\CYMR90~1\AppData\Local\Temp\cchoDgth.s:25542  .debug_str:000000000000ba72 .LASF3059
C:\Users\CYMR90~1\AppData\Local\Temp\cchoDgth.s:26408  .debug_str:000000000000f1a6 .LASF3060
C:\Users\CYMR90~1\AppData\Local\Temp\cchoDgth.s:32471  .debug_str:0000000000027421 .LASF3061
C:\Users\CYMR90~1\AppData\Local\Temp\cchoDgth.s:25262  .debug_str:000000000000a755 .LASF3062
C:\Users\CYMR90~1\AppData\Local\Temp\cchoDgth.s:32021  .debug_str:0000000000025641 .LASF3063
C:\Users\CYMR90~1\AppData\Local\Temp\cchoDgth.s:30325  .debug_str:000000000001ee17 .LASF3064
C:\Users\CYMR90~1\AppData\Local\Temp\cchoDgth.s:22960  .debug_str:00000000000014a3 .LASF3065
C:\Users\CYMR90~1\AppData\Local\Temp\cchoDgth.s:28863  .debug_str:0000000000018ea6 .LASF3066
C:\Users\CYMR90~1\AppData\Local\Temp\cchoDgth.s:23068  .debug_str:0000000000001b5d .LASF3067
C:\Users\CYMR90~1\AppData\Local\Temp\cchoDgth.s:33935  .debug_str:000000000002d0ba .LASF3068
C:\Users\CYMR90~1\AppData\Local\Temp\cchoDgth.s:28014  .debug_str:0000000000015790 .LASF3069
C:\Users\CYMR90~1\AppData\Local\Temp\cchoDgth.s:31885  .debug_str:0000000000024d06 .LASF3070
C:\Users\CYMR90~1\AppData\Local\Temp\cchoDgth.s:25198  .debug_str:000000000000a38c .LASF3071
C:\Users\CYMR90~1\AppData\Local\Temp\cchoDgth.s:23096  .debug_str:0000000000001d15 .LASF3072
C:\Users\CYMR90~1\AppData\Local\Temp\cchoDgth.s:24224  .debug_str:00000000000064a6 .LASF3073
C:\Users\CYMR90~1\AppData\Local\Temp\cchoDgth.s:29485  .debug_str:000000000001b8b7 .LASF3074
C:\Users\CYMR90~1\AppData\Local\Temp\cchoDgth.s:27572  .debug_str:0000000000013c00 .LASF3075
C:\Users\CYMR90~1\AppData\Local\Temp\cchoDgth.s:24916  .debug_str:0000000000009260 .LASF3076
C:\Users\CYMR90~1\AppData\Local\Temp\cchoDgth.s:23978  .debug_str:0000000000005594 .LASF3077
C:\Users\CYMR90~1\AppData\Local\Temp\cchoDgth.s:33429  .debug_str:000000000002b05b .LASF3078
C:\Users\CYMR90~1\AppData\Local\Temp\cchoDgth.s:25664  .debug_str:000000000000c2d6 .LASF3079
C:\Users\CYMR90~1\AppData\Local\Temp\cchoDgth.s:23308  .debug_str:00000000000029c5 .LASF3080
C:\Users\CYMR90~1\AppData\Local\Temp\cchoDgth.s:31321  .debug_str:0000000000022a62 .LASF3081
C:\Users\CYMR90~1\AppData\Local\Temp\cchoDgth.s:27930  .debug_str:0000000000015292 .LASF3082
C:\Users\CYMR90~1\AppData\Local\Temp\cchoDgth.s:24502  .debug_str:000000000000765b .LASF3083
C:\Users\CYMR90~1\AppData\Local\Temp\cchoDgth.s:23992  .debug_str:0000000000005669 .LASF3084
C:\Users\CYMR90~1\AppData\Local\Temp\cchoDgth.s:24114  .debug_str:0000000000005e08 .LASF3085
C:\Users\CYMR90~1\AppData\Local\Temp\cchoDgth.s:23994  .debug_str:0000000000005687 .LASF3086
C:\Users\CYMR90~1\AppData\Local\Temp\cchoDgth.s:27292  .debug_str:0000000000012954 .LASF3087
C:\Users\CYMR90~1\AppData\Local\Temp\cchoDgth.s:31339  .debug_str:0000000000022b4a .LASF3088
C:\Users\CYMR90~1\AppData\Local\Temp\cchoDgth.s:32723  .debug_str:0000000000028464 .LASF3089
C:\Users\CYMR90~1\AppData\Local\Temp\cchoDgth.s:28673  .debug_str:00000000000182cf .LASF3090
C:\Users\CYMR90~1\AppData\Local\Temp\cchoDgth.s:26514  .debug_str:000000000000f82b .LASF3091
C:\Users\CYMR90~1\AppData\Local\Temp\cchoDgth.s:31337  .debug_str:0000000000022b31 .LASF3092
C:\Users\CYMR90~1\AppData\Local\Temp\cchoDgth.s:23040  .debug_str:00000000000019c4 .LASF3093
C:\Users\CYMR90~1\AppData\Local\Temp\cchoDgth.s:29317  .debug_str:000000000001adaa .LASF3094
C:\Users\CYMR90~1\AppData\Local\Temp\cchoDgth.s:24364  .debug_str:0000000000006d4e .LASF3095
C:\Users\CYMR90~1\AppData\Local\Temp\cchoDgth.s:23984  .debug_str:00000000000055d8 .LASF3096
C:\Users\CYMR90~1\AppData\Local\Temp\cchoDgth.s:30237  .debug_str:000000000001e8ba .LASF3097
C:\Users\CYMR90~1\AppData\Local\Temp\cchoDgth.s:26220  .debug_str:000000000000e62a .LASF3098
C:\Users\CYMR90~1\AppData\Local\Temp\cchoDgth.s:31549  .debug_str:00000000000237e2 .LASF3099
C:\Users\CYMR90~1\AppData\Local\Temp\cchoDgth.s:28535  .debug_str:0000000000017a51 .LASF3100
C:\Users\CYMR90~1\AppData\Local\Temp\cchoDgth.s:31999  .debug_str:00000000000254ab .LASF3101
C:\Users\CYMR90~1\AppData\Local\Temp\cchoDgth.s:31379  .debug_str:0000000000022de4 .LASF3102
C:\Users\CYMR90~1\AppData\Local\Temp\cchoDgth.s:28589  .debug_str:0000000000017de6 .LASF3103
C:\Users\CYMR90~1\AppData\Local\Temp\cchoDgth.s:33601  .debug_str:000000000002ba84 .LASF3104
C:\Users\CYMR90~1\AppData\Local\Temp\cchoDgth.s:33905  .debug_str:000000000002ce96 .LASF3105
C:\Users\CYMR90~1\AppData\Local\Temp\cchoDgth.s:32315  .debug_str:0000000000026aa6 .LASF3106
C:\Users\CYMR90~1\AppData\Local\Temp\cchoDgth.s:23616  .debug_str:0000000000003d9f .LASF3107
C:\Users\CYMR90~1\AppData\Local\Temp\cchoDgth.s:26446  .debug_str:000000000000f3e3 .LASF3108
C:\Users\CYMR90~1\AppData\Local\Temp\cchoDgth.s:23586  .debug_str:0000000000003bcb .LASF3109
C:\Users\CYMR90~1\AppData\Local\Temp\cchoDgth.s:26994  .debug_str:0000000000011548 .LASF3110
C:\Users\CYMR90~1\AppData\Local\Temp\cchoDgth.s:26810  .debug_str:0000000000010a73 .LASF3111
C:\Users\CYMR90~1\AppData\Local\Temp\cchoDgth.s:24334  .debug_str:0000000000006b60 .LASF3112
C:\Users\CYMR90~1\AppData\Local\Temp\cchoDgth.s:27206  .debug_str:00000000000123ea .LASF3113
C:\Users\CYMR90~1\AppData\Local\Temp\cchoDgth.s:26858  .debug_str:0000000000010d2d .LASF3114
C:\Users\CYMR90~1\AppData\Local\Temp\cchoDgth.s:24588  .debug_str:0000000000007bb2 .LASF3115
C:\Users\CYMR90~1\AppData\Local\Temp\cchoDgth.s:25268  .debug_str:000000000000a79f .LASF3116
C:\Users\CYMR90~1\AppData\Local\Temp\cchoDgth.s:27692  .debug_str:0000000000014359 .LASF3117
C:\Users\CYMR90~1\AppData\Local\Temp\cchoDgth.s:30245  .debug_str:000000000001e929 .LASF3118
C:\Users\CYMR90~1\AppData\Local\Temp\cchoDgth.s:23774  .debug_str:0000000000004842 .LASF3119
C:\Users\CYMR90~1\AppData\Local\Temp\cchoDgth.s:30791  .debug_str:00000000000209f9 .LASF3120
C:\Users\CYMR90~1\AppData\Local\Temp\cchoDgth.s:31173  .debug_str:00000000000221d4 .LASF3121
C:\Users\CYMR90~1\AppData\Local\Temp\cchoDgth.s:25066  .debug_str:0000000000009b58 .LASF3122
C:\Users\CYMR90~1\AppData\Local\Temp\cchoDgth.s:24414  .debug_str:0000000000007097 .LASF3123
C:\Users\CYMR90~1\AppData\Local\Temp\cchoDgth.s:24928  .debug_str:00000000000092e8 .LASF3124
C:\Users\CYMR90~1\AppData\Local\Temp\cchoDgth.s:23658  .debug_str:000000000000407d .LASF3125
C:\Users\CYMR90~1\AppData\Local\Temp\cchoDgth.s:33757  .debug_str:000000000002c49f .LASF3126
C:\Users\CYMR90~1\AppData\Local\Temp\cchoDgth.s:24208  .debug_str:00000000000063be .LASF3127
C:\Users\CYMR90~1\AppData\Local\Temp\cchoDgth.s:22756  .debug_str:00000000000007aa .LASF3128
C:\Users\CYMR90~1\AppData\Local\Temp\cchoDgth.s:23782  .debug_str:0000000000004914 .LASF3129
C:\Users\CYMR90~1\AppData\Local\Temp\cchoDgth.s:23564  .debug_str:0000000000003a56 .LASF3130
C:\Users\CYMR90~1\AppData\Local\Temp\cchoDgth.s:29045  .debug_str:0000000000019b37 .LASF3131
C:\Users\CYMR90~1\AppData\Local\Temp\cchoDgth.s:30881  .debug_str:0000000000020f5a .LASF3132
C:\Users\CYMR90~1\AppData\Local\Temp\cchoDgth.s:22694  .debug_str:0000000000000405 .LASF3133
C:\Users\CYMR90~1\AppData\Local\Temp\cchoDgth.s:30463  .debug_str:000000000001f649 .LASF3134
C:\Users\CYMR90~1\AppData\Local\Temp\cchoDgth.s:29305  .debug_str:000000000001ace8 .LASF3135
C:\Users\CYMR90~1\AppData\Local\Temp\cchoDgth.s:30235  .debug_str:000000000001e89a .LASF3136
C:\Users\CYMR90~1\AppData\Local\Temp\cchoDgth.s:29809  .debug_str:000000000001cc9d .LASF3137
C:\Users\CYMR90~1\AppData\Local\Temp\cchoDgth.s:26308  .debug_str:000000000000ebc0 .LASF3138
C:\Users\CYMR90~1\AppData\Local\Temp\cchoDgth.s:27166  .debug_str:0000000000012111 .LASF3139
C:\Users\CYMR90~1\AppData\Local\Temp\cchoDgth.s:32579  .debug_str:0000000000027b83 .LASF3140
C:\Users\CYMR90~1\AppData\Local\Temp\cchoDgth.s:30105  .debug_str:000000000001dff7 .LASF3141
C:\Users\CYMR90~1\AppData\Local\Temp\cchoDgth.s:33853  .debug_str:000000000002cb8f .LASF3142
C:\Users\CYMR90~1\AppData\Local\Temp\cchoDgth.s:29061  .debug_str:0000000000019cbc .LASF3143
C:\Users\CYMR90~1\AppData\Local\Temp\cchoDgth.s:29377  .debug_str:000000000001b187 .LASF3144
C:\Users\CYMR90~1\AppData\Local\Temp\cchoDgth.s:31927  .debug_str:000000000002503e .LASF3145
C:\Users\CYMR90~1\AppData\Local\Temp\cchoDgth.s:33335  .debug_str:000000000002aabc .LASF3146
C:\Users\CYMR90~1\AppData\Local\Temp\cchoDgth.s:27042  .debug_str:0000000000011842 .LASF3147
C:\Users\CYMR90~1\AppData\Local\Temp\cchoDgth.s:30055  .debug_str:000000000001dd31 .LASF3148
C:\Users\CYMR90~1\AppData\Local\Temp\cchoDgth.s:26118  .debug_str:000000000000dfc5 .LASF3149
C:\Users\CYMR90~1\AppData\Local\Temp\cchoDgth.s:33111  .debug_str:0000000000029dac .LASF3150
C:\Users\CYMR90~1\AppData\Local\Temp\cchoDgth.s:23056  .debug_str:0000000000001aa1 .LASF3151
C:\Users\CYMR90~1\AppData\Local\Temp\cchoDgth.s:33381  .debug_str:000000000002ad95 .LASF3152
C:\Users\CYMR90~1\AppData\Local\Temp\cchoDgth.s:32157  .debug_str:00000000000260e6 .LASF3153
C:\Users\CYMR90~1\AppData\Local\Temp\cchoDgth.s:23548  .debug_str:0000000000003961 .LASF3154
C:\Users\CYMR90~1\AppData\Local\Temp\cchoDgth.s:26748  .debug_str:00000000000106cb .LASF3155
C:\Users\CYMR90~1\AppData\Local\Temp\cchoDgth.s:32827  .debug_str:0000000000028be6 .LASF3156
C:\Users\CYMR90~1\AppData\Local\Temp\cchoDgth.s:27230  .debug_str:0000000000012556 .LASF3157
C:\Users\CYMR90~1\AppData\Local\Temp\cchoDgth.s:25324  .debug_str:000000000000abd8 .LASF3158
C:\Users\CYMR90~1\AppData\Local\Temp\cchoDgth.s:33657  .debug_str:000000000002be08 .LASF3159
C:\Users\CYMR90~1\AppData\Local\Temp\cchoDgth.s:25418  .debug_str:000000000000b291 .LASF3160
C:\Users\CYMR90~1\AppData\Local\Temp\cchoDgth.s:29115  .debug_str:000000000001a01e .LASF3161
C:\Users\CYMR90~1\AppData\Local\Temp\cchoDgth.s:25680  .debug_str:000000000000c402 .LASF3162
C:\Users\CYMR90~1\AppData\Local\Temp\cchoDgth.s:28857  .debug_str:0000000000018e1d .LASF3163
C:\Users\CYMR90~1\AppData\Local\Temp\cchoDgth.s:33451  .debug_str:000000000002b193 .LASF3164
C:\Users\CYMR90~1\AppData\Local\Temp\cchoDgth.s:31001  .debug_str:00000000000216b9 .LASF3165
C:\Users\CYMR90~1\AppData\Local\Temp\cchoDgth.s:32403  .debug_str:000000000002704b .LASF3166
C:\Users\CYMR90~1\AppData\Local\Temp\cchoDgth.s:25972  .debug_str:000000000000d6c2 .LASF3167
C:\Users\CYMR90~1\AppData\Local\Temp\cchoDgth.s:31771  .debug_str:000000000002452e .LASF3168
C:\Users\CYMR90~1\AppData\Local\Temp\cchoDgth.s:27814  .debug_str:0000000000014b12 .LASF3169
C:\Users\CYMR90~1\AppData\Local\Temp\cchoDgth.s:26642  .debug_str:0000000000010051 .LASF3170
C:\Users\CYMR90~1\AppData\Local\Temp\cchoDgth.s:29797  .debug_str:000000000001cb33 .LASF3171
C:\Users\CYMR90~1\AppData\Local\Temp\cchoDgth.s:32663  .debug_str:0000000000028055 .LASF3172
C:\Users\CYMR90~1\AppData\Local\Temp\cchoDgth.s:23568  .debug_str:0000000000003a99 .LASF3173
C:\Users\CYMR90~1\AppData\Local\Temp\cchoDgth.s:30035  .debug_str:000000000001dbc1 .LASF3174
C:\Users\CYMR90~1\AppData\Local\Temp\cchoDgth.s:32837  .debug_str:0000000000028c8a .LASF3175
C:\Users\CYMR90~1\AppData\Local\Temp\cchoDgth.s:32565  .debug_str:00000000000279ff .LASF3176
C:\Users\CYMR90~1\AppData\Local\Temp\cchoDgth.s:31247  .debug_str:000000000002260e .LASF3177
C:\Users\CYMR90~1\AppData\Local\Temp\cchoDgth.s:27994  .debug_str:000000000001563f .LASF3178
C:\Users\CYMR90~1\AppData\Local\Temp\cchoDgth.s:24912  .debug_str:0000000000009221 .LASF3179
C:\Users\CYMR90~1\AppData\Local\Temp\cchoDgth.s:29943  .debug_str:000000000001d616 .LASF3180
C:\Users\CYMR90~1\AppData\Local\Temp\cchoDgth.s:27372  .debug_str:0000000000012eb6 .LASF3181
C:\Users\CYMR90~1\AppData\Local\Temp\cchoDgth.s:25392  .debug_str:000000000000b026 .LASF3182
C:\Users\CYMR90~1\AppData\Local\Temp\cchoDgth.s:29873  .debug_str:000000000001d099 .LASF3183
C:\Users\CYMR90~1\AppData\Local\Temp\cchoDgth.s:32025  .debug_str:0000000000025675 .LASF3184
C:\Users\CYMR90~1\AppData\Local\Temp\cchoDgth.s:23860  .debug_str:0000000000004e51 .LASF3185
C:\Users\CYMR90~1\AppData\Local\Temp\cchoDgth.s:33351  .debug_str:000000000002abc1 .LASF3186
C:\Users\CYMR90~1\AppData\Local\Temp\cchoDgth.s:32223  .debug_str:00000000000264f0 .LASF3187
C:\Users\CYMR90~1\AppData\Local\Temp\cchoDgth.s:29161  .debug_str:000000000001a2ba .LASF3188
C:\Users\CYMR90~1\AppData\Local\Temp\cchoDgth.s:29169  .debug_str:000000000001a340 .LASF3189
C:\Users\CYMR90~1\AppData\Local\Temp\cchoDgth.s:32517  .debug_str:0000000000027710 .LASF3190
C:\Users\CYMR90~1\AppData\Local\Temp\cchoDgth.s:27262  .debug_str:0000000000012743 .LASF3191
C:\Users\CYMR90~1\AppData\Local\Temp\cchoDgth.s:33321  .debug_str:000000000002aa08 .LASF3192
C:\Users\CYMR90~1\AppData\Local\Temp\cchoDgth.s:28821  .debug_str:0000000000018bc6 .LASF3193
C:\Users\CYMR90~1\AppData\Local\Temp\cchoDgth.s:32595  .debug_str:0000000000027c7a .LASF3194
C:\Users\CYMR90~1\AppData\Local\Temp\cchoDgth.s:23752  .debug_str:000000000000469e .LASF3195
C:\Users\CYMR90~1\AppData\Local\Temp\cchoDgth.s:26848  .debug_str:0000000000010c55 .LASF3196
C:\Users\CYMR90~1\AppData\Local\Temp\cchoDgth.s:30217  .debug_str:000000000001e77b .LASF3197
C:\Users\CYMR90~1\AppData\Local\Temp\cchoDgth.s:27190  .debug_str:00000000000122bc .LASF3198
C:\Users\CYMR90~1\AppData\Local\Temp\cchoDgth.s:26192  .debug_str:000000000000e470 .LASF3199
C:\Users\CYMR90~1\AppData\Local\Temp\cchoDgth.s:27370  .debug_str:0000000000012e7d .LASF3200
C:\Users\CYMR90~1\AppData\Local\Temp\cchoDgth.s:31483  .debug_str:0000000000023461 .LASF3201
C:\Users\CYMR90~1\AppData\Local\Temp\cchoDgth.s:28186  .debug_str:0000000000016264 .LASF3202
C:\Users\CYMR90~1\AppData\Local\Temp\cchoDgth.s:29779  .debug_str:000000000001c9e9 .LASF3203
C:\Users\CYMR90~1\AppData\Local\Temp\cchoDgth.s:25620  .debug_str:000000000000bfa1 .LASF3204
C:\Users\CYMR90~1\AppData\Local\Temp\cchoDgth.s:24622  .debug_str:0000000000007e16 .LASF3205
C:\Users\CYMR90~1\AppData\Local\Temp\cchoDgth.s:23922  .debug_str:00000000000051f6 .LASF3206
C:\Users\CYMR90~1\AppData\Local\Temp\cchoDgth.s:27324  .debug_str:0000000000012b7d .LASF3207
C:\Users\CYMR90~1\AppData\Local\Temp\cchoDgth.s:22918  .debug_str:0000000000001237 .LASF3208
C:\Users\CYMR90~1\AppData\Local\Temp\cchoDgth.s:23014  .debug_str:0000000000001773 .LASF3209
C:\Users\CYMR90~1\AppData\Local\Temp\cchoDgth.s:32787  .debug_str:00000000000288d7 .LASF3210
C:\Users\CYMR90~1\AppData\Local\Temp\cchoDgth.s:29443  .debug_str:000000000001b616 .LASF3211
C:\Users\CYMR90~1\AppData\Local\Temp\cchoDgth.s:25888  .debug_str:000000000000d0b8 .LASF3212
C:\Users\CYMR90~1\AppData\Local\Temp\cchoDgth.s:27780  .debug_str:00000000000148cb .LASF3213
C:\Users\CYMR90~1\AppData\Local\Temp\cchoDgth.s:23064  .debug_str:0000000000001b1e .LASF3214
C:\Users\CYMR90~1\AppData\Local\Temp\cchoDgth.s:26594  .debug_str:000000000000fd64 .LASF3215
C:\Users\CYMR90~1\AppData\Local\Temp\cchoDgth.s:30271  .debug_str:000000000001eab8 .LASF3216
C:\Users\CYMR90~1\AppData\Local\Temp\cchoDgth.s:25702  .debug_str:000000000000c56c .LASF3217
C:\Users\CYMR90~1\AppData\Local\Temp\cchoDgth.s:25266  .debug_str:000000000000a77c .LASF3218
C:\Users\CYMR90~1\AppData\Local\Temp\cchoDgth.s:28244  .debug_str:0000000000016600 .LASF3219
C:\Users\CYMR90~1\AppData\Local\Temp\cchoDgth.s:29219  .debug_str:000000000001a5f9 .LASF3220
C:\Users\CYMR90~1\AppData\Local\Temp\cchoDgth.s:30531  .debug_str:000000000001fa4d .LASF3221
C:\Users\CYMR90~1\AppData\Local\Temp\cchoDgth.s:26670  .debug_str:0000000000010226 .LASF3222
C:\Users\CYMR90~1\AppData\Local\Temp\cchoDgth.s:33929  .debug_str:000000000002d04a .LASF3223
C:\Users\CYMR90~1\AppData\Local\Temp\cchoDgth.s:28577  .debug_str:0000000000017d1d .LASF3224
C:\Users\CYMR90~1\AppData\Local\Temp\cchoDgth.s:31273  .debug_str:00000000000227a4 .LASF3225
C:\Users\CYMR90~1\AppData\Local\Temp\cchoDgth.s:25582  .debug_str:000000000000bd05 .LASF3226
C:\Users\CYMR90~1\AppData\Local\Temp\cchoDgth.s:31563  .debug_str:00000000000238cb .LASF3227
C:\Users\CYMR90~1\AppData\Local\Temp\cchoDgth.s:27658  .debug_str:0000000000014122 .LASF3228
C:\Users\CYMR90~1\AppData\Local\Temp\cchoDgth.s:30421  .debug_str:000000000001f357 .LASF3229
C:\Users\CYMR90~1\AppData\Local\Temp\cchoDgth.s:26426  .debug_str:000000000000f2c7 .LASF3230
C:\Users\CYMR90~1\AppData\Local\Temp\cchoDgth.s:25744  .debug_str:000000000000c7f1 .LASF3231
C:\Users\CYMR90~1\AppData\Local\Temp\cchoDgth.s:26746  .debug_str:00000000000106b4 .LASF3232
C:\Users\CYMR90~1\AppData\Local\Temp\cchoDgth.s:32921  .debug_str:00000000000291db .LASF3233
C:\Users\CYMR90~1\AppData\Local\Temp\cchoDgth.s:31529  .debug_str:0000000000023703 .LASF3234
C:\Users\CYMR90~1\AppData\Local\Temp\cchoDgth.s:29819  .debug_str:000000000001cd5f .LASF3235
C:\Users\CYMR90~1\AppData\Local\Temp\cchoDgth.s:24952  .debug_str:000000000000944b .LASF3236
C:\Users\CYMR90~1\AppData\Local\Temp\cchoDgth.s:24544  .debug_str:00000000000078d5 .LASF3237
C:\Users\CYMR90~1\AppData\Local\Temp\cchoDgth.s:34047  .debug_str:000000000002d7d6 .LASF3238
C:\Users\CYMR90~1\AppData\Local\Temp\cchoDgth.s:23704  .debug_str:0000000000004390 .LASF3239
C:\Users\CYMR90~1\AppData\Local\Temp\cchoDgth.s:33573  .debug_str:000000000002b87b .LASF3240
C:\Users\CYMR90~1\AppData\Local\Temp\cchoDgth.s:26040  .debug_str:000000000000db02 .LASF3241
C:\Users\CYMR90~1\AppData\Local\Temp\cchoDgth.s:28745  .debug_str:0000000000018731 .LASF3242
C:\Users\CYMR90~1\AppData\Local\Temp\cchoDgth.s:28184  .debug_str:000000000001624c .LASF3243
C:\Users\CYMR90~1\AppData\Local\Temp\cchoDgth.s:31577  .debug_str:000000000002398c .LASF3244
C:\Users\CYMR90~1\AppData\Local\Temp\cchoDgth.s:22930  .debug_str:00000000000012dd .LASF3245
C:\Users\CYMR90~1\AppData\Local\Temp\cchoDgth.s:23876  .debug_str:0000000000004f72 .LASF3246
C:\Users\CYMR90~1\AppData\Local\Temp\cchoDgth.s:31433  .debug_str:0000000000023101 .LASF3247
C:\Users\CYMR90~1\AppData\Local\Temp\cchoDgth.s:24132  .debug_str:0000000000005f04 .LASF3248
C:\Users\CYMR90~1\AppData\Local\Temp\cchoDgth.s:31757  .debug_str:000000000002444d .LASF3249
C:\Users\CYMR90~1\AppData\Local\Temp\cchoDgth.s:32185  .debug_str:00000000000262bf .LASF3250
C:\Users\CYMR90~1\AppData\Local\Temp\cchoDgth.s:30865  .debug_str:0000000000020ea8 .LASF3251
C:\Users\CYMR90~1\AppData\Local\Temp\cchoDgth.s:28080  .debug_str:0000000000015b6c .LASF3252
C:\Users\CYMR90~1\AppData\Local\Temp\cchoDgth.s:27832  .debug_str:0000000000014c12 .LASF3253
C:\Users\CYMR90~1\AppData\Local\Temp\cchoDgth.s:28569  .debug_str:0000000000017ca4 .LASF3254
C:\Users\CYMR90~1\AppData\Local\Temp\cchoDgth.s:30755  .debug_str:00000000000207c7 .LASF3255
C:\Users\CYMR90~1\AppData\Local\Temp\cchoDgth.s:24510  .debug_str:00000000000076e4 .LASF3256
C:\Users\CYMR90~1\AppData\Local\Temp\cchoDgth.s:22688  .debug_str:00000000000003ac .LASF3257
C:\Users\CYMR90~1\AppData\Local\Temp\cchoDgth.s:32943  .debug_str:0000000000029339 .LASF3258
C:\Users\CYMR90~1\AppData\Local\Temp\cchoDgth.s:22820  .debug_str:0000000000000c01 .LASF3259
C:\Users\CYMR90~1\AppData\Local\Temp\cchoDgth.s:31253  .debug_str:0000000000022682 .LASF3260
C:\Users\CYMR90~1\AppData\Local\Temp\cchoDgth.s:24440  .debug_str:000000000000720b .LASF3261
C:\Users\CYMR90~1\AppData\Local\Temp\cchoDgth.s:27640  .debug_str:000000000001400e .LASF3262
C:\Users\CYMR90~1\AppData\Local\Temp\cchoDgth.s:25914  .debug_str:000000000000d27f .LASF3263
C:\Users\CYMR90~1\AppData\Local\Temp\cchoDgth.s:31565  .debug_str:00000000000238f1 .LASF3264
C:\Users\CYMR90~1\AppData\Local\Temp\cchoDgth.s:29493  .debug_str:000000000001b942 .LASF3265
C:\Users\CYMR90~1\AppData\Local\Temp\cchoDgth.s:28242  .debug_str:00000000000165e3 .LASF3266
C:\Users\CYMR90~1\AppData\Local\Temp\cchoDgth.s:32023  .debug_str:0000000000025657 .LASF3267
C:\Users\CYMR90~1\AppData\Local\Temp\cchoDgth.s:26562  .debug_str:000000000000fba5 .LASF3268
C:\Users\CYMR90~1\AppData\Local\Temp\cchoDgth.s:31481  .debug_str:0000000000023445 .LASF3269
C:\Users\CYMR90~1\AppData\Local\Temp\cchoDgth.s:27472  .debug_str:0000000000013576 .LASF3270
C:\Users\CYMR90~1\AppData\Local\Temp\cchoDgth.s:29985  .debug_str:000000000001d889 .LASF3271
C:\Users\CYMR90~1\AppData\Local\Temp\cchoDgth.s:32705  .debug_str:000000000002833b .LASF3272
C:\Users\CYMR90~1\AppData\Local\Temp\cchoDgth.s:33967  .debug_str:000000000002d2bb .LASF3273
C:\Users\CYMR90~1\AppData\Local\Temp\cchoDgth.s:24530  .debug_str:00000000000077f2 .LASF3274
C:\Users\CYMR90~1\AppData\Local\Temp\cchoDgth.s:23632  .debug_str:0000000000003eac .LASF3275
C:\Users\CYMR90~1\AppData\Local\Temp\cchoDgth.s:33647  .debug_str:000000000002bd60 .LASF3276
C:\Users\CYMR90~1\AppData\Local\Temp\cchoDgth.s:25426  .debug_str:000000000000b2ff .LASF3277
C:\Users\CYMR90~1\AppData\Local\Temp\cchoDgth.s:27634  .debug_str:0000000000013fb9 .LASF3278
C:\Users\CYMR90~1\AppData\Local\Temp\cchoDgth.s:23914  .debug_str:0000000000005196 .LASF3279
C:\Users\CYMR90~1\AppData\Local\Temp\cchoDgth.s:25300  .debug_str:000000000000a966 .LASF3280
C:\Users\CYMR90~1\AppData\Local\Temp\cchoDgth.s:24112  .debug_str:0000000000005dde .LASF3281
C:\Users\CYMR90~1\AppData\Local\Temp\cchoDgth.s:25522  .debug_str:000000000000b8f8 .LASF3282
C:\Users\CYMR90~1\AppData\Local\Temp\cchoDgth.s:24048  .debug_str:00000000000059ca .LASF3283
C:\Users\CYMR90~1\AppData\Local\Temp\cchoDgth.s:27182  .debug_str:0000000000012230 .LASF3284
C:\Users\CYMR90~1\AppData\Local\Temp\cchoDgth.s:32695  .debug_str:000000000002829e .LASF3285
C:\Users\CYMR90~1\AppData\Local\Temp\cchoDgth.s:29003  .debug_str:000000000001987f .LASF3286
C:\Users\CYMR90~1\AppData\Local\Temp\cchoDgth.s:27778  .debug_str:0000000000014890 .LASF3287
C:\Users\CYMR90~1\AppData\Local\Temp\cchoDgth.s:33999  .debug_str:000000000002d4fb .LASF3288
C:\Users\CYMR90~1\AppData\Local\Temp\cchoDgth.s:30499  .debug_str:000000000001f879 .LASF3289
C:\Users\CYMR90~1\AppData\Local\Temp\cchoDgth.s:27116  .debug_str:0000000000011e07 .LASF3290
C:\Users\CYMR90~1\AppData\Local\Temp\cchoDgth.s:24230  .debug_str:00000000000064e3 .LASF3291
C:\Users\CYMR90~1\AppData\Local\Temp\cchoDgth.s:31623  .debug_str:0000000000023c6a .LASF3292
C:\Users\CYMR90~1\AppData\Local\Temp\cchoDgth.s:28134  .debug_str:0000000000015ec0 .LASF3293
C:\Users\CYMR90~1\AppData\Local\Temp\cchoDgth.s:24746  .debug_str:000000000000872e .LASF3294
C:\Users\CYMR90~1\AppData\Local\Temp\cchoDgth.s:28691  .debug_str:00000000000183c5 .LASF3295
C:\Users\CYMR90~1\AppData\Local\Temp\cchoDgth.s:33713  .debug_str:000000000002c1e2 .LASF3296
C:\Users\CYMR90~1\AppData\Local\Temp\cchoDgth.s:32257  .debug_str:00000000000266e8 .LASF3297
C:\Users\CYMR90~1\AppData\Local\Temp\cchoDgth.s:23034  .debug_str:0000000000001958 .LASF3298
C:\Users\CYMR90~1\AppData\Local\Temp\cchoDgth.s:24086  .debug_str:0000000000005c07 .LASF3299
C:\Users\CYMR90~1\AppData\Local\Temp\cchoDgth.s:30283  .debug_str:000000000001eb42 .LASF3300
C:\Users\CYMR90~1\AppData\Local\Temp\cchoDgth.s:24178  .debug_str:0000000000006196 .LASF3301
C:\Users\CYMR90~1\AppData\Local\Temp\cchoDgth.s:31669  .debug_str:0000000000023f7a .LASF3302
C:\Users\CYMR90~1\AppData\Local\Temp\cchoDgth.s:23030  .debug_str:0000000000001911 .LASF3303
C:\Users\CYMR90~1\AppData\Local\Temp\cchoDgth.s:28801  .debug_str:0000000000018a8e .LASF3304
C:\Users\CYMR90~1\AppData\Local\Temp\cchoDgth.s:33949  .debug_str:000000000002d19e .LASF3305
C:\Users\CYMR90~1\AppData\Local\Temp\cchoDgth.s:25496  .debug_str:000000000000b6dd .LASF3306
C:\Users\CYMR90~1\AppData\Local\Temp\cchoDgth.s:28671  .debug_str:00000000000182af .LASF3307
C:\Users\CYMR90~1\AppData\Local\Temp\cchoDgth.s:22962  .debug_str:00000000000014b6 .LASF3308
C:\Users\CYMR90~1\AppData\Local\Temp\cchoDgth.s:29757  .debug_str:000000000001c8bf .LASF3309
C:\Users\CYMR90~1\AppData\Local\Temp\cchoDgth.s:25710  .debug_str:000000000000c5e2 .LASF3310
C:\Users\CYMR90~1\AppData\Local\Temp\cchoDgth.s:25976  .debug_str:000000000000d70d .LASF3311
C:\Users\CYMR90~1\AppData\Local\Temp\cchoDgth.s:33707  .debug_str:000000000002c186 .LASF3312
C:\Users\CYMR90~1\AppData\Local\Temp\cchoDgth.s:30707  .debug_str:0000000000020533 .LASF3313
C:\Users\CYMR90~1\AppData\Local\Temp\cchoDgth.s:26460  .debug_str:000000000000f4da .LASF3314
C:\Users\CYMR90~1\AppData\Local\Temp\cchoDgth.s:32183  .debug_str:0000000000026297 .LASF3315
C:\Users\CYMR90~1\AppData\Local\Temp\cchoDgth.s:31105  .debug_str:0000000000021d7e .LASF3316
C:\Users\CYMR90~1\AppData\Local\Temp\cchoDgth.s:26712  .debug_str:00000000000104bb .LASF3317
C:\Users\CYMR90~1\AppData\Local\Temp\cchoDgth.s:30705  .debug_str:000000000002050c .LASF3318
C:\Users\CYMR90~1\AppData\Local\Temp\cchoDgth.s:27786  .debug_str:0000000000014957 .LASF3319
C:\Users\CYMR90~1\AppData\Local\Temp\cchoDgth.s:33583  .debug_str:000000000002b953 .LASF3320
C:\Users\CYMR90~1\AppData\Local\Temp\cchoDgth.s:22702  .debug_str:000000000000046f .LASF3321
C:\Users\CYMR90~1\AppData\Local\Temp\cchoDgth.s:30735  .debug_str:00000000000206b8 .LASF3322
C:\Users\CYMR90~1\AppData\Local\Temp\cchoDgth.s:32321  .debug_str:0000000000026b05 .LASF3323
C:\Users\CYMR90~1\AppData\Local\Temp\cchoDgth.s:34001  .debug_str:000000000002d522 .LASF3324
C:\Users\CYMR90~1\AppData\Local\Temp\cchoDgth.s:25134  .debug_str:0000000000009f70 .LASF3325
C:\Users\CYMR90~1\AppData\Local\Temp\cchoDgth.s:29043  .debug_str:0000000000019afa .LASF3326
C:\Users\CYMR90~1\AppData\Local\Temp\cchoDgth.s:26432  .debug_str:000000000000f30d .LASF3327
C:\Users\CYMR90~1\AppData\Local\Temp\cchoDgth.s:30419  .debug_str:000000000001f339 .LASF3328
C:\Users\CYMR90~1\AppData\Local\Temp\cchoDgth.s:28855  .debug_str:0000000000018dfe .LASF3329
C:\Users\CYMR90~1\AppData\Local\Temp\cchoDgth.s:33513  .debug_str:000000000002b535 .LASF3330
C:\Users\CYMR90~1\AppData\Local\Temp\cchoDgth.s:29637  .debug_str:000000000001c1bc .LASF3331
C:\Users\CYMR90~1\AppData\Local\Temp\cchoDgth.s:23620  .debug_str:0000000000003ded .LASF3332
C:\Users\CYMR90~1\AppData\Local\Temp\cchoDgth.s:25406  .debug_str:000000000000b138 .LASF3333
C:\Users\CYMR90~1\AppData\Local\Temp\cchoDgth.s:26456  .debug_str:000000000000f48c .LASF3334
C:\Users\CYMR90~1\AppData\Local\Temp\cchoDgth.s:31183  .debug_str:0000000000022269 .LASF3335
C:\Users\CYMR90~1\AppData\Local\Temp\cchoDgth.s:28354  .debug_str:0000000000016dd2 .LASF3336
C:\Users\CYMR90~1\AppData\Local\Temp\cchoDgth.s:30177  .debug_str:000000000001e51d .LASF3337
C:\Users\CYMR90~1\AppData\Local\Temp\cchoDgth.s:30071  .debug_str:000000000001de09 .LASF3338
C:\Users\CYMR90~1\AppData\Local\Temp\cchoDgth.s:31205  .debug_str:00000000000223cb .LASF3339
C:\Users\CYMR90~1\AppData\Local\Temp\cchoDgth.s:25368  .debug_str:000000000000aeb0 .LASF3340
C:\Users\CYMR90~1\AppData\Local\Temp\cchoDgth.s:27752  .debug_str:00000000000146fa .LASF3341
C:\Users\CYMR90~1\AppData\Local\Temp\cchoDgth.s:29117  .debug_str:000000000001a03d .LASF3342
C:\Users\CYMR90~1\AppData\Local\Temp\cchoDgth.s:30933  .debug_str:00000000000212eb .LASF3343
C:\Users\CYMR90~1\AppData\Local\Temp\cchoDgth.s:27358  .debug_str:0000000000012db7 .LASF3344
C:\Users\CYMR90~1\AppData\Local\Temp\cchoDgth.s:29465  .debug_str:000000000001b787 .LASF3345
C:\Users\CYMR90~1\AppData\Local\Temp\cchoDgth.s:29333  .debug_str:000000000001aebe .LASF3346
C:\Users\CYMR90~1\AppData\Local\Temp\cchoDgth.s:23934  .debug_str:00000000000052cf .LASF3347
C:\Users\CYMR90~1\AppData\Local\Temp\cchoDgth.s:30783  .debug_str:000000000002095c .LASF3348
C:\Users\CYMR90~1\AppData\Local\Temp\cchoDgth.s:27438  .debug_str:00000000000132f8 .LASF3349
C:\Users\CYMR90~1\AppData\Local\Temp\cchoDgth.s:25242  .debug_str:000000000000a639 .LASF3350
C:\Users\CYMR90~1\AppData\Local\Temp\cchoDgth.s:29799  .debug_str:000000000001cb58 .LASF3351
C:\Users\CYMR90~1\AppData\Local\Temp\cchoDgth.s:24446  .debug_str:0000000000007258 .LASF3352
C:\Users\CYMR90~1\AppData\Local\Temp\cchoDgth.s:32511  .debug_str:00000000000276b3 .LASF3353
C:\Users\CYMR90~1\AppData\Local\Temp\cchoDgth.s:23840  .debug_str:0000000000004d0f .LASF3354
C:\Users\CYMR90~1\AppData\Local\Temp\cchoDgth.s:24176  .debug_str:0000000000006185 .LASF3355
C:\Users\CYMR90~1\AppData\Local\Temp\cchoDgth.s:23148  .debug_str:000000000000202f .LASF3356
C:\Users\CYMR90~1\AppData\Local\Temp\cchoDgth.s:28749  .debug_str:0000000000018768 .LASF3357
C:\Users\CYMR90~1\AppData\Local\Temp\cchoDgth.s:28467  .debug_str:0000000000017613 .LASF3358
C:\Users\CYMR90~1\AppData\Local\Temp\cchoDgth.s:29519  .debug_str:000000000001bab4 .LASF3359
C:\Users\CYMR90~1\AppData\Local\Temp\cchoDgth.s:26130  .debug_str:000000000000e0cc .LASF3360
C:\Users\CYMR90~1\AppData\Local\Temp\cchoDgth.s:30925  .debug_str:0000000000021269 .LASF3361
C:\Users\CYMR90~1\AppData\Local\Temp\cchoDgth.s:31823  .debug_str:000000000002490e .LASF3362
C:\Users\CYMR90~1\AppData\Local\Temp\cchoDgth.s:32707  .debug_str:0000000000028352 .LASF3363
C:\Users\CYMR90~1\AppData\Local\Temp\cchoDgth.s:31057  .debug_str:0000000000021abb .LASF3364
C:\Users\CYMR90~1\AppData\Local\Temp\cchoDgth.s:32779  .debug_str:000000000002884a .LASF3365
C:\Users\CYMR90~1\AppData\Local\Temp\cchoDgth.s:24464  .debug_str:00000000000073c6 .LASF3366
C:\Users\CYMR90~1\AppData\Local\Temp\cchoDgth.s:29527  .debug_str:000000000001bb41 .LASF3367
C:\Users\CYMR90~1\AppData\Local\Temp\cchoDgth.s:23238  .debug_str:00000000000024f1 .LASF3368
C:\Users\CYMR90~1\AppData\Local\Temp\cchoDgth.s:32101  .debug_str:0000000000025c42 .LASF3369
C:\Users\CYMR90~1\AppData\Local\Temp\cchoDgth.s:25714  .debug_str:000000000000c627 .LASF3370
C:\Users\CYMR90~1\AppData\Local\Temp\cchoDgth.s:28218  .debug_str:0000000000016470 .LASF3371
C:\Users\CYMR90~1\AppData\Local\Temp\cchoDgth.s:32545  .debug_str:00000000000278ac .LASF3372
C:\Users\CYMR90~1\AppData\Local\Temp\cchoDgth.s:25356  .debug_str:000000000000ade0 .LASF3373
C:\Users\CYMR90~1\AppData\Local\Temp\cchoDgth.s:26208  .debug_str:000000000000e59b .LASF3374
C:\Users\CYMR90~1\AppData\Local\Temp\cchoDgth.s:23844  .debug_str:0000000000004d5e .LASF3375
C:\Users\CYMR90~1\AppData\Local\Temp\cchoDgth.s:22814  .debug_str:0000000000000b87 .LASF3376
C:\Users\CYMR90~1\AppData\Local\Temp\cchoDgth.s:26152  .debug_str:000000000000e226 .LASF3377
C:\Users\CYMR90~1\AppData\Local\Temp\cchoDgth.s:25374  .debug_str:000000000000af05 .LASF3378
C:\Users\CYMR90~1\AppData\Local\Temp\cchoDgth.s:23540  .debug_str:00000000000038c1 .LASF3379
C:\Users\CYMR90~1\AppData\Local\Temp\cchoDgth.s:22992  .debug_str:0000000000001636 .LASF3380
C:\Users\CYMR90~1\AppData\Local\Temp\cchoDgth.s:28767  .debug_str:00000000000188ac .LASF3381
C:\Users\CYMR90~1\AppData\Local\Temp\cchoDgth.s:26364  .debug_str:000000000000ef5d .LASF3382
C:\Users\CYMR90~1\AppData\Local\Temp\cchoDgth.s:27426  .debug_str:000000000001322c .LASF3383
C:\Users\CYMR90~1\AppData\Local\Temp\cchoDgth.s:29123  .debug_str:000000000001a0a5 .LASF3384
C:\Users\CYMR90~1\AppData\Local\Temp\cchoDgth.s:33475  .debug_str:000000000002b2f2 .LASF3385
C:\Users\CYMR90~1\AppData\Local\Temp\cchoDgth.s:28306  .debug_str:00000000000169e6 .LASF3386
C:\Users\CYMR90~1\AppData\Local\Temp\cchoDgth.s:27338  .debug_str:0000000000012c88 .LASF3387
C:\Users\CYMR90~1\AppData\Local\Temp\cchoDgth.s:29419  .debug_str:000000000001b485 .LASF3388
C:\Users\CYMR90~1\AppData\Local\Temp\cchoDgth.s:32377  .debug_str:0000000000026e74 .LASF3389
C:\Users\CYMR90~1\AppData\Local\Temp\cchoDgth.s:24684  .debug_str:0000000000008348 .LASF3390
C:\Users\CYMR90~1\AppData\Local\Temp\cchoDgth.s:23358  .debug_str:0000000000002d01 .LASF3391
C:\Users\CYMR90~1\AppData\Local\Temp\cchoDgth.s:31143  .debug_str:0000000000021fce .LASF3392
C:\Users\CYMR90~1\AppData\Local\Temp\cchoDgth.s:30453  .debug_str:000000000001f5b6 .LASF3393
C:\Users\CYMR90~1\AppData\Local\Temp\cchoDgth.s:30747  .debug_str:000000000002075b .LASF3394
C:\Users\CYMR90~1\AppData\Local\Temp\cchoDgth.s:31303  .debug_str:000000000002296a .LASF3395
C:\Users\CYMR90~1\AppData\Local\Temp\cchoDgth.s:26846  .debug_str:0000000000010c3d .LASF3396
C:\Users\CYMR90~1\AppData\Local\Temp\cchoDgth.s:24390  .debug_str:0000000000006eeb .LASF3397
C:\Users\CYMR90~1\AppData\Local\Temp\cchoDgth.s:33633  .debug_str:000000000002bcbc .LASF3398
C:\Users\CYMR90~1\AppData\Local\Temp\cchoDgth.s:33465  .debug_str:000000000002b269 .LASF3399
C:\Users\CYMR90~1\AppData\Local\Temp\cchoDgth.s:23008  .debug_str:0000000000001731 .LASF3400
C:\Users\CYMR90~1\AppData\Local\Temp\cchoDgth.s:22796  .debug_str:0000000000000a05 .LASF3401
C:\Users\CYMR90~1\AppData\Local\Temp\cchoDgth.s:32477  .debug_str:000000000002746b .LASF3402
C:\Users\CYMR90~1\AppData\Local\Temp\cchoDgth.s:26628  .debug_str:000000000000ff6c .LASF3403
C:\Users\CYMR90~1\AppData\Local\Temp\cchoDgth.s:33939  .debug_str:000000000002d0e7 .LASF3404
C:\Users\CYMR90~1\AppData\Local\Temp\cchoDgth.s:28933  .debug_str:0000000000019459 .LASF3405
C:\Users\CYMR90~1\AppData\Local\Temp\cchoDgth.s:33571  .debug_str:000000000002b861 .LASF3406
C:\Users\CYMR90~1\AppData\Local\Temp\cchoDgth.s:28979  .debug_str:00000000000196f9 .LASF3407
C:\Users\CYMR90~1\AppData\Local\Temp\cchoDgth.s:31289  .debug_str:00000000000228a8 .LASF3408
C:\Users\CYMR90~1\AppData\Local\Temp\cchoDgth.s:27686  .debug_str:00000000000142d7 .LASF3409
C:\Users\CYMR90~1\AppData\Local\Temp\cchoDgth.s:25814  .debug_str:000000000000cca1 .LASF3410
C:\Users\CYMR90~1\AppData\Local\Temp\cchoDgth.s:23424  .debug_str:0000000000003111 .LASF3411
C:\Users\CYMR90~1\AppData\Local\Temp\cchoDgth.s:29299  .debug_str:000000000001ac94 .LASF3412
C:\Users\CYMR90~1\AppData\Local\Temp\cchoDgth.s:30535  .debug_str:000000000001fa80 .LASF3413
C:\Users\CYMR90~1\AppData\Local\Temp\cchoDgth.s:33269  .debug_str:000000000002a707 .LASF3414
C:\Users\CYMR90~1\AppData\Local\Temp\cchoDgth.s:32463  .debug_str:00000000000273d8 .LASF3415
C:\Users\CYMR90~1\AppData\Local\Temp\cchoDgth.s:31351  .debug_str:0000000000022c04 .LASF3416
C:\Users\CYMR90~1\AppData\Local\Temp\cchoDgth.s:32043  .debug_str:0000000000025799 .LASF3417
C:\Users\CYMR90~1\AppData\Local\Temp\cchoDgth.s:30125  .debug_str:000000000001e1bf .LASF3418
C:\Users\CYMR90~1\AppData\Local\Temp\cchoDgth.s:30187  .debug_str:000000000001e5d0 .LASF3419
C:\Users\CYMR90~1\AppData\Local\Temp\cchoDgth.s:29207  .debug_str:000000000001a546 .LASF3420
C:\Users\CYMR90~1\AppData\Local\Temp\cchoDgth.s:22696  .debug_str:0000000000000422 .LASF3421
C:\Users\CYMR90~1\AppData\Local\Temp\cchoDgth.s:28557  .debug_str:0000000000017bb1 .LASF3422
C:\Users\CYMR90~1\AppData\Local\Temp\cchoDgth.s:32229  .debug_str:0000000000026546 .LASF3423
C:\Users\CYMR90~1\AppData\Local\Temp\cchoDgth.s:23966  .debug_str:00000000000054d1 .LASF3424
C:\Users\CYMR90~1\AppData\Local\Temp\cchoDgth.s:23044  .debug_str:0000000000001a05 .LASF3425
C:\Users\CYMR90~1\AppData\Local\Temp\cchoDgth.s:28088  .debug_str:0000000000015bd3 .LASF3426
C:\Users\CYMR90~1\AppData\Local\Temp\cchoDgth.s:26536  .debug_str:000000000000f969 .LASF3427
C:\Users\CYMR90~1\AppData\Local\Temp\cchoDgth.s:32127  .debug_str:0000000000025e63 .LASF3428
C:\Users\CYMR90~1\AppData\Local\Temp\cchoDgth.s:30203  .debug_str:000000000001e6bb .LASF3429
C:\Users\CYMR90~1\AppData\Local\Temp\cchoDgth.s:23138  .debug_str:0000000000001f76 .LASF3430
C:\Users\CYMR90~1\AppData\Local\Temp\cchoDgth.s:30515  .debug_str:000000000001f96d .LASF3431
C:\Users\CYMR90~1\AppData\Local\Temp\cchoDgth.s:25016  .debug_str:0000000000009849 .LASF3432
C:\Users\CYMR90~1\AppData\Local\Temp\cchoDgth.s:28679  .debug_str:0000000000018331 .LASF3433
C:\Users\CYMR90~1\AppData\Local\Temp\cchoDgth.s:32333  .debug_str:0000000000026bab .LASF3434
C:\Users\CYMR90~1\AppData\Local\Temp\cchoDgth.s:26170  .debug_str:000000000000e333 .LASF3435
C:\Users\CYMR90~1\AppData\Local\Temp\cchoDgth.s:30263  .debug_str:000000000001ea5d .LASF3436
C:\Users\CYMR90~1\AppData\Local\Temp\cchoDgth.s:33835  .debug_str:000000000002c9fe .LASF3437
C:\Users\CYMR90~1\AppData\Local\Temp\cchoDgth.s:26484  .debug_str:000000000000f675 .LASF3438
C:\Users\CYMR90~1\AppData\Local\Temp\cchoDgth.s:28208  .debug_str:00000000000163f2 .LASF3439
C:\Users\CYMR90~1\AppData\Local\Temp\cchoDgth.s:23830  .debug_str:0000000000004c6f .LASF3440
C:\Users\CYMR90~1\AppData\Local\Temp\cchoDgth.s:30449  .debug_str:000000000001f582 .LASF3441
C:\Users\CYMR90~1\AppData\Local\Temp\cchoDgth.s:26180  .debug_str:000000000000e3d3 .LASF3442
C:\Users\CYMR90~1\AppData\Local\Temp\cchoDgth.s:33585  .debug_str:000000000002b97a .LASF3443
C:\Users\CYMR90~1\AppData\Local\Temp\cchoDgth.s:31133  .debug_str:0000000000021f56 .LASF3444
C:\Users\CYMR90~1\AppData\Local\Temp\cchoDgth.s:28447  .debug_str:00000000000174dd .LASF3445
C:\Users\CYMR90~1\AppData\Local\Temp\cchoDgth.s:29995  .debug_str:000000000001d936 .LASF3446
C:\Users\CYMR90~1\AppData\Local\Temp\cchoDgth.s:28499  .debug_str:00000000000177ff .LASF3447
C:\Users\CYMR90~1\AppData\Local\Temp\cchoDgth.s:32063  .debug_str:0000000000025943 .LASF3448
C:\Users\CYMR90~1\AppData\Local\Temp\cchoDgth.s:24002  .debug_str:0000000000005717 .LASF3449
C:\Users\CYMR90~1\AppData\Local\Temp\cchoDgth.s:31107  .debug_str:0000000000021dbd .LASF3450
C:\Users\CYMR90~1\AppData\Local\Temp\cchoDgth.s:26734  .debug_str:0000000000010601 .LASF3451
C:\Users\CYMR90~1\AppData\Local\Temp\cchoDgth.s:27884  .debug_str:0000000000014f4f .LASF3452
C:\Users\CYMR90~1\AppData\Local\Temp\cchoDgth.s:33959  .debug_str:000000000002d25d .LASF3453
C:\Users\CYMR90~1\AppData\Local\Temp\cchoDgth.s:25900  .debug_str:000000000000d1b9 .LASF3454
C:\Users\CYMR90~1\AppData\Local\Temp\cchoDgth.s:28731  .debug_str:000000000001866b .LASF3455
C:\Users\CYMR90~1\AppData\Local\Temp\cchoDgth.s:25046  .debug_str:0000000000009a00 .LASF3456
C:\Users\CYMR90~1\AppData\Local\Temp\cchoDgth.s:32331  .debug_str:0000000000026b8e .LASF3457
C:\Users\CYMR90~1\AppData\Local\Temp\cchoDgth.s:33405  .debug_str:000000000002af0b .LASF3458
C:\Users\CYMR90~1\AppData\Local\Temp\cchoDgth.s:25606  .debug_str:000000000000be74 .LASF3459
C:\Users\CYMR90~1\AppData\Local\Temp\cchoDgth.s:25254  .debug_str:000000000000a6fd .LASF3460
C:\Users\CYMR90~1\AppData\Local\Temp\cchoDgth.s:29643  .debug_str:000000000001c214 .LASF3461
C:\Users\CYMR90~1\AppData\Local\Temp\cchoDgth.s:33281  .debug_str:000000000002a7b6 .LASF3462
C:\Users\CYMR90~1\AppData\Local\Temp\cchoDgth.s:23210  .debug_str:000000000000237c .LASF3463
C:\Users\CYMR90~1\AppData\Local\Temp\cchoDgth.s:32391  .debug_str:0000000000026f88 .LASF3464
C:\Users\CYMR90~1\AppData\Local\Temp\cchoDgth.s:29073  .debug_str:0000000000019d98 .LASF3465
C:\Users\CYMR90~1\AppData\Local\Temp\cchoDgth.s:28997  .debug_str:000000000001982d .LASF3466
C:\Users\CYMR90~1\AppData\Local\Temp\cchoDgth.s:29423  .debug_str:000000000001b4c5 .LASF3467
C:\Users\CYMR90~1\AppData\Local\Temp\cchoDgth.s:23218  .debug_str:00000000000023e6 .LASF3468
C:\Users\CYMR90~1\AppData\Local\Temp\cchoDgth.s:32733  .debug_str:000000000002851e .LASF3469
C:\Users\CYMR90~1\AppData\Local\Temp\cchoDgth.s:30085  .debug_str:000000000001df01 .LASF3470
C:\Users\CYMR90~1\AppData\Local\Temp\cchoDgth.s:32081  .debug_str:0000000000025b14 .LASF3471
C:\Users\CYMR90~1\AppData\Local\Temp\cchoDgth.s:31353  .debug_str:0000000000022c20 .LASF3472
C:\Users\CYMR90~1\AppData\Local\Temp\cchoDgth.s:30879  .debug_str:0000000000020f41 .LASF3473
C:\Users\CYMR90~1\AppData\Local\Temp\cchoDgth.s:33789  .debug_str:000000000002c728 .LASF3474
C:\Users\CYMR90~1\AppData\Local\Temp\cchoDgth.s:33529  .debug_str:000000000002b625 .LASF3475
C:\Users\CYMR90~1\AppData\Local\Temp\cchoDgth.s:22754  .debug_str:0000000000000790 .LASF3476
C:\Users\CYMR90~1\AppData\Local\Temp\cchoDgth.s:26400  .debug_str:000000000000f132 .LASF3477
C:\Users\CYMR90~1\AppData\Local\Temp\cchoDgth.s:27790  .debug_str:00000000000149aa .LASF3478
C:\Users\CYMR90~1\AppData\Local\Temp\cchoDgth.s:31681  .debug_str:0000000000024017 .LASF3479
C:\Users\CYMR90~1\AppData\Local\Temp\cchoDgth.s:29253  .debug_str:000000000001a961 .LASF3480
C:\Users\CYMR90~1\AppData\Local\Temp\cchoDgth.s:28389  .debug_str:00000000000171a1 .LASF3481
C:\Users\CYMR90~1\AppData\Local\Temp\cchoDgth.s:32467  .debug_str:00000000000273ff .LASF3482
C:\Users\CYMR90~1\AppData\Local\Temp\cchoDgth.s:33353  .debug_str:000000000002abdf .LASF3483
C:\Users\CYMR90~1\AppData\Local\Temp\cchoDgth.s:25952  .debug_str:000000000000d546 .LASF3484
C:\Users\CYMR90~1\AppData\Local\Temp\cchoDgth.s:28443  .debug_str:00000000000174a8 .LASF3485
C:\Users\CYMR90~1\AppData\Local\Temp\cchoDgth.s:27768  .debug_str:00000000000147e9 .LASF3486
C:\Users\CYMR90~1\AppData\Local\Temp\cchoDgth.s:27854  .debug_str:0000000000014d87 .LASF3487
C:\Users\CYMR90~1\AppData\Local\Temp\cchoDgth.s:30231  .debug_str:000000000001e868 .LASF3488
C:\Users\CYMR90~1\AppData\Local\Temp\cchoDgth.s:33153  .debug_str:000000000002a041 .LASF3489
C:\Users\CYMR90~1\AppData\Local\Temp\cchoDgth.s:23352  .debug_str:0000000000002cbb .LASF3490
C:\Users\CYMR90~1\AppData\Local\Temp\cchoDgth.s:30433  .debug_str:000000000001f447 .LASF3491
C:\Users\CYMR90~1\AppData\Local\Temp\cchoDgth.s:25176  .debug_str:000000000000a22f .LASF3492
C:\Users\CYMR90~1\AppData\Local\Temp\cchoDgth.s:23478  .debug_str:00000000000034bb .LASF3493
C:\Users\CYMR90~1\AppData\Local\Temp\cchoDgth.s:25424  .debug_str:000000000000b2e6 .LASF3494
C:\Users\CYMR90~1\AppData\Local\Temp\cchoDgth.s:24354  .debug_str:0000000000006c93 .LASF3495
C:\Users\CYMR90~1\AppData\Local\Temp\cchoDgth.s:31997  .debug_str:000000000002548f .LASF3496
C:\Users\CYMR90~1\AppData\Local\Temp\cchoDgth.s:29319  .debug_str:000000000001adc9 .LASF3497
C:\Users\CYMR90~1\AppData\Local\Temp\cchoDgth.s:29177  .debug_str:000000000001a3a5 .LASF3498
C:\Users\CYMR90~1\AppData\Local\Temp\cchoDgth.s:24312  .debug_str:0000000000006a07 .LASF3499
C:\Users\CYMR90~1\AppData\Local\Temp\cchoDgth.s:26276  .debug_str:000000000000e9d4 .LASF3500
C:\Users\CYMR90~1\AppData\Local\Temp\cchoDgth.s:26116  .debug_str:000000000000dfa8 .LASF3501
C:\Users\CYMR90~1\AppData\Local\Temp\cchoDgth.s:24748  .debug_str:0000000000008755 .LASF3502
C:\Users\CYMR90~1\AppData\Local\Temp\cchoDgth.s:24930  .debug_str:0000000000009307 .LASF3503
C:\Users\CYMR90~1\AppData\Local\Temp\cchoDgth.s:25524  .debug_str:000000000000b91a .LASF3504
C:\Users\CYMR90~1\AppData\Local\Temp\cchoDgth.s:23502  .debug_str:0000000000003640 .LASF3505
C:\Users\CYMR90~1\AppData\Local\Temp\cchoDgth.s:24858  .debug_str:0000000000008e51 .LASF3506
C:\Users\CYMR90~1\AppData\Local\Temp\cchoDgth.s:22678  .debug_str:0000000000000307 .LASF3507
C:\Users\CYMR90~1\AppData\Local\Temp\cchoDgth.s:28439  .debug_str:000000000001747a .LASF3508
C:\Users\CYMR90~1\AppData\Local\Temp\cchoDgth.s:25676  .debug_str:000000000000c3b9 .LASF3509
C:\Users\CYMR90~1\AppData\Local\Temp\cchoDgth.s:31619  .debug_str:0000000000023c30 .LASF3510
C:\Users\CYMR90~1\AppData\Local\Temp\cchoDgth.s:33705  .debug_str:000000000002c16c .LASF3511
C:\Users\CYMR90~1\AppData\Local\Temp\cchoDgth.s:27236  .debug_str:00000000000125b2 .LASF3512
C:\Users\CYMR90~1\AppData\Local\Temp\cchoDgth.s:27088  .debug_str:0000000000011c52 .LASF3513
C:\Users\CYMR90~1\AppData\Local\Temp\cchoDgth.s:29437  .debug_str:000000000001b5d7 .LASF3514
C:\Users\CYMR90~1\AppData\Local\Temp\cchoDgth.s:31631  .debug_str:0000000000023cf6 .LASF3515
C:\Users\CYMR90~1\AppData\Local\Temp\cchoDgth.s:33087  .debug_str:0000000000029c2b .LASF3516
C:\Users\CYMR90~1\AppData\Local\Temp\cchoDgth.s:29089  .debug_str:0000000000019e88 .LASF3517
C:\Users\CYMR90~1\AppData\Local\Temp\cchoDgth.s:30417  .debug_str:000000000001f31a .LASF3518
C:\Users\CYMR90~1\AppData\Local\Temp\cchoDgth.s:31553  .debug_str:0000000000023814 .LASF3519
C:\Users\CYMR90~1\AppData\Local\Temp\cchoDgth.s:32419  .debug_str:0000000000027137 .LASF3520
C:\Users\CYMR90~1\AppData\Local\Temp\cchoDgth.s:22856  .debug_str:0000000000000dfa .LASF3521
C:\Users\CYMR90~1\AppData\Local\Temp\cchoDgth.s:26346  .debug_str:000000000000ee48 .LASF3522
C:\Users\CYMR90~1\AppData\Local\Temp\cchoDgth.s:33785  .debug_str:000000000002c6f7 .LASF3523
C:\Users\CYMR90~1\AppData\Local\Temp\cchoDgth.s:32559  .debug_str:0000000000027971 .LASF3524
C:\Users\CYMR90~1\AppData\Local\Temp\cchoDgth.s:23336  .debug_str:0000000000002b6f .LASF3525
C:\Users\CYMR90~1\AppData\Local\Temp\cchoDgth.s:23018  .debug_str:00000000000017b8 .LASF3526
C:\Users\CYMR90~1\AppData\Local\Temp\cchoDgth.s:24474  .debug_str:000000000000749a .LASF3527
C:\Users\CYMR90~1\AppData\Local\Temp\cchoDgth.s:25874  .debug_str:000000000000cfd6 .LASF3528
C:\Users\CYMR90~1\AppData\Local\Temp\cchoDgth.s:24214  .debug_str:0000000000006411 .LASF3529
C:\Users\CYMR90~1\AppData\Local\Temp\cchoDgth.s:30993  .debug_str:000000000002166c .LASF3530
C:\Users\CYMR90~1\AppData\Local\Temp\cchoDgth.s:31259  .debug_str:00000000000226cc .LASF3531
C:\Users\CYMR90~1\AppData\Local\Temp\cchoDgth.s:25024  .debug_str:00000000000098bd .LASF3532
C:\Users\CYMR90~1\AppData\Local\Temp\cchoDgth.s:31677  .debug_str:0000000000023fe9 .LASF3533
C:\Users\CYMR90~1\AppData\Local\Temp\cchoDgth.s:33909  .debug_str:000000000002ced7 .LASF3534
C:\Users\CYMR90~1\AppData\Local\Temp\cchoDgth.s:26668  .debug_str:000000000001020d .LASF3535
C:\Users\CYMR90~1\AppData\Local\Temp\cchoDgth.s:28100  .debug_str:0000000000015c85 .LASF3536
C:\Users\CYMR90~1\AppData\Local\Temp\cchoDgth.s:30361  .debug_str:000000000001f008 .LASF3537
C:\Users\CYMR90~1\AppData\Local\Temp\cchoDgth.s:23792  .debug_str:00000000000049b0 .LASF3538
C:\Users\CYMR90~1\AppData\Local\Temp\cchoDgth.s:23088  .debug_str:0000000000001c9e .LASF3539
C:\Users\CYMR90~1\AppData\Local\Temp\cchoDgth.s:25114  .debug_str:0000000000009e68 .LASF3540
C:\Users\CYMR90~1\AppData\Local\Temp\cchoDgth.s:31527  .debug_str:00000000000236eb .LASF3541
C:\Users\CYMR90~1\AppData\Local\Temp\cchoDgth.s:27124  .debug_str:0000000000011ea1 .LASF3542
C:\Users\CYMR90~1\AppData\Local\Temp\cchoDgth.s:32343  .debug_str:0000000000026c3d .LASF3543
C:\Users\CYMR90~1\AppData\Local\Temp\cchoDgth.s:24986  .debug_str:0000000000009635 .LASF3544
C:\Users\CYMR90~1\AppData\Local\Temp\cchoDgth.s:29337  .debug_str:000000000001aef0 .LASF3545
C:\Users\CYMR90~1\AppData\Local\Temp\cchoDgth.s:28917  .debug_str:0000000000019286 .LASF3546
C:\Users\CYMR90~1\AppData\Local\Temp\cchoDgth.s:30821  .debug_str:0000000000020c11 .LASF3547
C:\Users\CYMR90~1\AppData\Local\Temp\cchoDgth.s:28601  .debug_str:0000000000017e84 .LASF3548
C:\Users\CYMR90~1\AppData\Local\Temp\cchoDgth.s:32851  .debug_str:0000000000028d8c .LASF3549
C:\Users\CYMR90~1\AppData\Local\Temp\cchoDgth.s:26178  .debug_str:000000000000e3b4 .LASF3550
C:\Users\CYMR90~1\AppData\Local\Temp\cchoDgth.s:24664  .debug_str:000000000000814b .LASF3551
C:\Users\CYMR90~1\AppData\Local\Temp\cchoDgth.s:33843  .debug_str:000000000002cab0 .LASF3552
C:\Users\CYMR90~1\AppData\Local\Temp\cchoDgth.s:27978  .debug_str:000000000001558f .LASF3553
C:\Users\CYMR90~1\AppData\Local\Temp\cchoDgth.s:29721  .debug_str:000000000001c6bb .LASF3554
C:\Users\CYMR90~1\AppData\Local\Temp\cchoDgth.s:29151  .debug_str:000000000001a225 .LASF3555
C:\Users\CYMR90~1\AppData\Local\Temp\cchoDgth.s:31821  .debug_str:00000000000248d1 .LASF3556
C:\Users\CYMR90~1\AppData\Local\Temp\cchoDgth.s:31043  .debug_str:00000000000219e0 .LASF3557
C:\Users\CYMR90~1\AppData\Local\Temp\cchoDgth.s:25554  .debug_str:000000000000bb1b .LASF3558
C:\Users\CYMR90~1\AppData\Local\Temp\cchoDgth.s:29199  .debug_str:000000000001a4d6 .LASF3559
C:\Users\CYMR90~1\AppData\Local\Temp\cchoDgth.s:22644  .debug_str:00000000000000dc .LASF3560
C:\Users\CYMR90~1\AppData\Local\Temp\cchoDgth.s:27080  .debug_str:0000000000011b44 .LASF3561
C:\Users\CYMR90~1\AppData\Local\Temp\cchoDgth.s:31085  .debug_str:0000000000021c58 .LASF3562
C:\Users\CYMR90~1\AppData\Local\Temp\cchoDgth.s:31349  .debug_str:0000000000022bdf .LASF3563
C:\Users\CYMR90~1\AppData\Local\Temp\cchoDgth.s:28170  .debug_str:000000000001612c .LASF3564
C:\Users\CYMR90~1\AppData\Local\Temp\cchoDgth.s:33215  .debug_str:000000000002a3c9 .LASF3565
C:\Users\CYMR90~1\AppData\Local\Temp\cchoDgth.s:28008  .debug_str:0000000000015725 .LASF3566
C:\Users\CYMR90~1\AppData\Local\Temp\cchoDgth.s:27266  .debug_str:00000000000127a9 .LASF3567
C:\Users\CYMR90~1\AppData\Local\Temp\cchoDgth.s:31655  .debug_str:0000000000023e8f .LASF3568
C:\Users\CYMR90~1\AppData\Local\Temp\cchoDgth.s:32097  .debug_str:0000000000025c05 .LASF3569
C:\Users\CYMR90~1\AppData\Local\Temp\cchoDgth.s:27126  .debug_str:0000000000011eb6 .LASF3570
C:\Users\CYMR90~1\AppData\Local\Temp\cchoDgth.s:27490  .debug_str:00000000000136eb .LASF3571
C:\Users\CYMR90~1\AppData\Local\Temp\cchoDgth.s:23116  .debug_str:0000000000001e15 .LASF3572
C:\Users\CYMR90~1\AppData\Local\Temp\cchoDgth.s:24444  .debug_str:0000000000007234 .LASF3573
C:\Users\CYMR90~1\AppData\Local\Temp\cchoDgth.s:33659  .debug_str:000000000002be27 .LASF3574
C:\Users\CYMR90~1\AppData\Local\Temp\cchoDgth.s:28202  .debug_str:000000000001638f .LASF3575
C:\Users\CYMR90~1\AppData\Local\Temp\cchoDgth.s:29009  .debug_str:00000000000198e6 .LASF3576
C:\Users\CYMR90~1\AppData\Local\Temp\cchoDgth.s:25674  .debug_str:000000000000c394 .LASF3577
C:\Users\CYMR90~1\AppData\Local\Temp\cchoDgth.s:27330  .debug_str:0000000000012be1 .LASF3578
C:\Users\CYMR90~1\AppData\Local\Temp\cchoDgth.s:22880  .debug_str:0000000000001007 .LASF3579
C:\Users\CYMR90~1\AppData\Local\Temp\cchoDgth.s:29283  .debug_str:000000000001ab37 .LASF3580
C:\Users\CYMR90~1\AppData\Local\Temp\cchoDgth.s:31311  .debug_str:00000000000229e3 .LASF3581
C:\Users\CYMR90~1\AppData\Local\Temp\cchoDgth.s:29533  .debug_str:000000000001bba3 .LASF3582
C:\Users\CYMR90~1\AppData\Local\Temp\cchoDgth.s:23988  .debug_str:0000000000005619 .LASF3583
C:\Users\CYMR90~1\AppData\Local\Temp\cchoDgth.s:25792  .debug_str:000000000000cb06 .LASF3584
C:\Users\CYMR90~1\AppData\Local\Temp\cchoDgth.s:24258  .debug_str:00000000000066ab .LASF3585
C:\Users\CYMR90~1\AppData\Local\Temp\cchoDgth.s:30045  .debug_str:000000000001dc67 .LASF3586
C:\Users\CYMR90~1\AppData\Local\Temp\cchoDgth.s:32583  .debug_str:0000000000027bbe .LASF3587
C:\Users\CYMR90~1\AppData\Local\Temp\cchoDgth.s:31281  .debug_str:0000000000022825 .LASF3588
C:\Users\CYMR90~1\AppData\Local\Temp\cchoDgth.s:24296  .debug_str:00000000000068d5 .LASF3589
C:\Users\CYMR90~1\AppData\Local\Temp\cchoDgth.s:33225  .debug_str:000000000002a476 .LASF3590
C:\Users\CYMR90~1\AppData\Local\Temp\cchoDgth.s:30511  .debug_str:000000000001f933 .LASF3591
C:\Users\CYMR90~1\AppData\Local\Temp\cchoDgth.s:26372  .debug_str:000000000000efb7 .LASF3592
C:\Users\CYMR90~1\AppData\Local\Temp\cchoDgth.s:25370  .debug_str:000000000000aeca .LASF3593
C:\Users\CYMR90~1\AppData\Local\Temp\cchoDgth.s:22736  .debug_str:0000000000000664 .LASF3594
C:\Users\CYMR90~1\AppData\Local\Temp\cchoDgth.s:26612  .debug_str:000000000000fe6e .LASF3595
C:\Users\CYMR90~1\AppData\Local\Temp\cchoDgth.s:25560  .debug_str:000000000000bb71 .LASF3596
C:\Users\CYMR90~1\AppData\Local\Temp\cchoDgth.s:26326  .debug_str:000000000000ed12 .LASF3597
C:\Users\CYMR90~1\AppData\Local\Temp\cchoDgth.s:24480  .debug_str:0000000000007503 .LASF3598
C:\Users\CYMR90~1\AppData\Local\Temp\cchoDgth.s:32649  .debug_str:0000000000027f79 .LASF3599
C:\Users\CYMR90~1\AppData\Local\Temp\cchoDgth.s:29969  .debug_str:000000000001d77e .LASF3600
C:\Users\CYMR90~1\AppData\Local\Temp\cchoDgth.s:27432  .debug_str:000000000001328c .LASF3601
C:\Users\CYMR90~1\AppData\Local\Temp\cchoDgth.s:29547  .debug_str:000000000001bc83 .LASF3602
C:\Users\CYMR90~1\AppData\Local\Temp\cchoDgth.s:27688  .debug_str:00000000000142f2 .LASF3603
C:\Users\CYMR90~1\AppData\Local\Temp\cchoDgth.s:26752  .debug_str:0000000000010705 .LASF3604
C:\Users\CYMR90~1\AppData\Local\Temp\cchoDgth.s:32885  .debug_str:0000000000028fea .LASF3605
C:\Users\CYMR90~1\AppData\Local\Temp\cchoDgth.s:25766  .debug_str:000000000000c937 .LASF3606
C:\Users\CYMR90~1\AppData\Local\Temp\cchoDgth.s:23194  .debug_str:0000000000002285 .LASF3607
C:\Users\CYMR90~1\AppData\Local\Temp\cchoDgth.s:26730  .debug_str:00000000000105c3 .LASF3608
C:\Users\CYMR90~1\AppData\Local\Temp\cchoDgth.s:26650  .debug_str:00000000000100dd .LASF3609
C:\Users\CYMR90~1\AppData\Local\Temp\cchoDgth.s:26866  .debug_str:0000000000010da3 .LASF3610
C:\Users\CYMR90~1\AppData\Local\Temp\cchoDgth.s:31261  .debug_str:00000000000226e4 .LASF3611
C:\Users\CYMR90~1\AppData\Local\Temp\cchoDgth.s:27552  .debug_str:0000000000013ab5 .LASF3612
C:\Users\CYMR90~1\AppData\Local\Temp\cchoDgth.s:26754  .debug_str:0000000000010729 .LASF3613
C:\Users\CYMR90~1\AppData\Local\Temp\cchoDgth.s:31503  .debug_str:000000000002357e .LASF3614
C:\Users\CYMR90~1\AppData\Local\Temp\cchoDgth.s:33661  .debug_str:000000000002be4b .LASF3615
C:\Users\CYMR90~1\AppData\Local\Temp\cchoDgth.s:33197  .debug_str:000000000002a2b7 .LASF3616
C:\Users\CYMR90~1\AppData\Local\Temp\cchoDgth.s:29633  .debug_str:000000000001c16c .LASF3617
C:\Users\CYMR90~1\AppData\Local\Temp\cchoDgth.s:24448  .debug_str:0000000000007276 .LASF3618
C:\Users\CYMR90~1\AppData\Local\Temp\cchoDgth.s:24038  .debug_str:0000000000005937 .LASF3619
C:\Users\CYMR90~1\AppData\Local\Temp\cchoDgth.s:24536  .debug_str:0000000000007851 .LASF3620
C:\Users\CYMR90~1\AppData\Local\Temp\cchoDgth.s:23494  .debug_str:00000000000035c5 .LASF3621
C:\Users\CYMR90~1\AppData\Local\Temp\cchoDgth.s:31903  .debug_str:0000000000024e16 .LASF3622
C:\Users\CYMR90~1\AppData\Local\Temp\cchoDgth.s:26678  .debug_str:0000000000010287 .LASF3623
C:\Users\CYMR90~1\AppData\Local\Temp\cchoDgth.s:24834  .debug_str:0000000000008cc2 .LASF3624
C:\Users\CYMR90~1\AppData\Local\Temp\cchoDgth.s:24940  .debug_str:0000000000009397 .LASF3625
C:\Users\CYMR90~1\AppData\Local\Temp\cchoDgth.s:31153  .debug_str:0000000000022060 .LASF3626
C:\Users\CYMR90~1\AppData\Local\Temp\cchoDgth.s:33135  .debug_str:0000000000029f50 .LASF3627
C:\Users\CYMR90~1\AppData\Local\Temp\cchoDgth.s:31411  .debug_str:0000000000022fad .LASF3628
C:\Users\CYMR90~1\AppData\Local\Temp\cchoDgth.s:33027  .debug_str:0000000000029818 .LASF3629
C:\Users\CYMR90~1\AppData\Local\Temp\cchoDgth.s:22770  .debug_str:0000000000000894 .LASF3630
C:\Users\CYMR90~1\AppData\Local\Temp\cchoDgth.s:31447  .debug_str:0000000000023245 .LASF3631
C:\Users\CYMR90~1\AppData\Local\Temp\cchoDgth.s:28391  .debug_str:00000000000171b9 .LASF3632
C:\Users\CYMR90~1\AppData\Local\Temp\cchoDgth.s:25380  .debug_str:000000000000af66 .LASF3633
C:\Users\CYMR90~1\AppData\Local\Temp\cchoDgth.s:25934  .debug_str:000000000000d40a .LASF3634
C:\Users\CYMR90~1\AppData\Local\Temp\cchoDgth.s:24434  .debug_str:000000000000718f .LASF3635
C:\Users\CYMR90~1\AppData\Local\Temp\cchoDgth.s:27996  .debug_str:0000000000015665 .LASF3636
C:\Users\CYMR90~1\AppData\Local\Temp\cchoDgth.s:25810  .debug_str:000000000000cc71 .LASF3637
C:\Users\CYMR90~1\AppData\Local\Temp\cchoDgth.s:31523  .debug_str:00000000000236ac .LASF3638
C:\Users\CYMR90~1\AppData\Local\Temp\cchoDgth.s:29435  .debug_str:000000000001b594 .LASF3639
C:\Users\CYMR90~1\AppData\Local\Temp\cchoDgth.s:31455  .debug_str:00000000000232d4 .LASF3640
C:\Users\CYMR90~1\AppData\Local\Temp\cchoDgth.s:28543  .debug_str:0000000000017ad5 .LASF3641
C:\Users\CYMR90~1\AppData\Local\Temp\cchoDgth.s:26242  .debug_str:000000000000e787 .LASF3642
C:\Users\CYMR90~1\AppData\Local\Temp\cchoDgth.s:30481  .debug_str:000000000001f747 .LASF3643
C:\Users\CYMR90~1\AppData\Local\Temp\cchoDgth.s:25440  .debug_str:000000000000b3db .LASF3644
C:\Users\CYMR90~1\AppData\Local\Temp\cchoDgth.s:27712  .debug_str:00000000000144d0 .LASF3645
C:\Users\CYMR90~1\AppData\Local\Temp\cchoDgth.s:28677  .debug_str:000000000001830f .LASF3646
C:\Users\CYMR90~1\AppData\Local\Temp\cchoDgth.s:32473  .debug_str:0000000000027438 .LASF3647
C:\Users\CYMR90~1\AppData\Local\Temp\cchoDgth.s:25222  .debug_str:000000000000a502 .LASF3648
C:\Users\CYMR90~1\AppData\Local\Temp\cchoDgth.s:23956  .debug_str:0000000000005412 .LASF3649
C:\Users\CYMR90~1\AppData\Local\Temp\cchoDgth.s:28977  .debug_str:00000000000196d7 .LASF3650
C:\Users\CYMR90~1\AppData\Local\Temp\cchoDgth.s:31343  .debug_str:0000000000022b8b .LASF3651
C:\Users\CYMR90~1\AppData\Local\Temp\cchoDgth.s:26210  .debug_str:000000000000e5c3 .LASF3652
C:\Users\CYMR90~1\AppData\Local\Temp\cchoDgth.s:33763  .debug_str:000000000002c529 .LASF3653
C:\Users\CYMR90~1\AppData\Local\Temp\cchoDgth.s:33607  .debug_str:000000000002baef .LASF3654
C:\Users\CYMR90~1\AppData\Local\Temp\cchoDgth.s:26240  .debug_str:000000000000e763 .LASF3655
C:\Users\CYMR90~1\AppData\Local\Temp\cchoDgth.s:24046  .debug_str:00000000000059a6 .LASF3656
C:\Users\CYMR90~1\AppData\Local\Temp\cchoDgth.s:33253  .debug_str:000000000002a619 .LASF3657
C:\Users\CYMR90~1\AppData\Local\Temp\cchoDgth.s:30949  .debug_str:00000000000213bb .LASF3658
C:\Users\CYMR90~1\AppData\Local\Temp\cchoDgth.s:24050  .debug_str:0000000000005a06 .LASF3659
C:\Users\CYMR90~1\AppData\Local\Temp\cchoDgth.s:28114  .debug_str:0000000000015d5b .LASF3660
C:\Users\CYMR90~1\AppData\Local\Temp\cchoDgth.s:24142  .debug_str:0000000000005f73 .LASF3661
C:\Users\CYMR90~1\AppData\Local\Temp\cchoDgth.s:27598  .debug_str:0000000000013d7b .LASF3662
C:\Users\CYMR90~1\AppData\Local\Temp\cchoDgth.s:31145  .debug_str:0000000000021fe6 .LASF3663
C:\Users\CYMR90~1\AppData\Local\Temp\cchoDgth.s:32275  .debug_str:0000000000026852 .LASF3664
C:\Users\CYMR90~1\AppData\Local\Temp\cchoDgth.s:23862  .debug_str:0000000000004e6d .LASF3665
C:\Users\CYMR90~1\AppData\Local\Temp\cchoDgth.s:31741  .debug_str:0000000000024368 .LASF3666
C:\Users\CYMR90~1\AppData\Local\Temp\cchoDgth.s:30857  .debug_str:0000000000020e46 .LASF3667
C:\Users\CYMR90~1\AppData\Local\Temp\cchoDgth.s:30987  .debug_str:000000000002160a .LASF3668
C:\Users\CYMR90~1\AppData\Local\Temp\cchoDgth.s:26348  .debug_str:000000000000ee60 .LASF3669
C:\Users\CYMR90~1\AppData\Local\Temp\cchoDgth.s:24058  .debug_str:0000000000005a5c .LASF3670
C:\Users\CYMR90~1\AppData\Local\Temp\cchoDgth.s:25712  .debug_str:000000000000c603 .LASF3671
C:\Users\CYMR90~1\AppData\Local\Temp\cchoDgth.s:30963  .debug_str:0000000000021471 .LASF3672
C:\Users\CYMR90~1\AppData\Local\Temp\cchoDgth.s:28779  .debug_str:000000000001893a .LASF3673
C:\Users\CYMR90~1\AppData\Local\Temp\cchoDgth.s:29887  .debug_str:000000000001d177 .LASF3674
C:\Users\CYMR90~1\AppData\Local\Temp\cchoDgth.s:33001  .debug_str:00000000000296a0 .LASF3675
C:\Users\CYMR90~1\AppData\Local\Temp\cchoDgth.s:27870  .debug_str:0000000000014e56 .LASF3676
C:\Users\CYMR90~1\AppData\Local\Temp\cchoDgth.s:33933  .debug_str:000000000002d094 .LASF3677
C:\Users\CYMR90~1\AppData\Local\Temp\cchoDgth.s:23536  .debug_str:0000000000003884 .LASF3678
C:\Users\CYMR90~1\AppData\Local\Temp\cchoDgth.s:32079  .debug_str:0000000000025aea .LASF3679
C:\Users\CYMR90~1\AppData\Local\Temp\cchoDgth.s:22902  .debug_str:0000000000001123 .LASF3680
C:\Users\CYMR90~1\AppData\Local\Temp\cchoDgth.s:30049  .debug_str:000000000001dcae .LASF3681
C:\Users\CYMR90~1\AppData\Local\Temp\cchoDgth.s:27466  .debug_str:00000000000134c7 .LASF3682
C:\Users\CYMR90~1\AppData\Local\Temp\cchoDgth.s:34019  .debug_str:000000000002d618 .LASF3683
C:\Users\CYMR90~1\AppData\Local\Temp\cchoDgth.s:23324  .debug_str:0000000000002aba .LASF3684
C:\Users\CYMR90~1\AppData\Local\Temp\cchoDgth.s:32531  .debug_str:00000000000277e0 .LASF3685
C:\Users\CYMR90~1\AppData\Local\Temp\cchoDgth.s:27318  .debug_str:0000000000012b07 .LASF3686
C:\Users\CYMR90~1\AppData\Local\Temp\cchoDgth.s:30757  .debug_str:00000000000207de .LASF3687
C:\Users\CYMR90~1\AppData\Local\Temp\cchoDgth.s:30907  .debug_str:0000000000021120 .LASF3688
C:\Users\CYMR90~1\AppData\Local\Temp\cchoDgth.s:22854  .debug_str:0000000000000dd8 .LASF3689
C:\Users\CYMR90~1\AppData\Local\Temp\cchoDgth.s:30111  .debug_str:000000000001e06f .LASF3690
C:\Users\CYMR90~1\AppData\Local\Temp\cchoDgth.s:22958  .debug_str:0000000000001456 .LASF3691
C:\Users\CYMR90~1\AppData\Local\Temp\cchoDgth.s:32781  .debug_str:000000000002886f .LASF3692
C:\Users\CYMR90~1\AppData\Local\Temp\cchoDgth.s:27222  .debug_str:00000000000124a5 .LASF3693
C:\Users\CYMR90~1\AppData\Local\Temp\cchoDgth.s:30251  .debug_str:000000000001e97e .LASF3694
C:\Users\CYMR90~1\AppData\Local\Temp\cchoDgth.s:29149  .debug_str:000000000001a1f5 .LASF3695
C:\Users\CYMR90~1\AppData\Local\Temp\cchoDgth.s:27892  .debug_str:0000000000014ff0 .LASF3696
C:\Users\CYMR90~1\AppData\Local\Temp\cchoDgth.s:26702  .debug_str:000000000001041b .LASF3697
C:\Users\CYMR90~1\AppData\Local\Temp\cchoDgth.s:33649  .debug_str:000000000002bd7c .LASF3698
C:\Users\CYMR90~1\AppData\Local\Temp\cchoDgth.s:31985  .debug_str:00000000000253a6 .LASF3699
C:\Users\CYMR90~1\AppData\Local\Temp\cchoDgth.s:23076  .debug_str:0000000000001bc1 .LASF3700
C:\Users\CYMR90~1\AppData\Local\Temp\cchoDgth.s:32771  .debug_str:0000000000028769 .LASF3701
C:\Users\CYMR90~1\AppData\Local\Temp\cchoDgth.s:33019  .debug_str:000000000002977f .LASF3702
C:\Users\CYMR90~1\AppData\Local\Temp\cchoDgth.s:25890  .debug_str:000000000000d0f1 .LASF3703
C:\Users\CYMR90~1\AppData\Local\Temp\cchoDgth.s:33881  .debug_str:000000000002cd33 .LASF3704
C:\Users\CYMR90~1\AppData\Local\Temp\cchoDgth.s:25322  .debug_str:000000000000aba6 .LASF3705
C:\Users\CYMR90~1\AppData\Local\Temp\cchoDgth.s:32001  .debug_str:00000000000254c9 .LASF3706
C:\Users\CYMR90~1\AppData\Local\Temp\cchoDgth.s:25180  .debug_str:000000000000a25c .LASF3707
C:\Users\CYMR90~1\AppData\Local\Temp\cchoDgth.s:31027  .debug_str:0000000000021847 .LASF3708
C:\Users\CYMR90~1\AppData\Local\Temp\cchoDgth.s:23364  .debug_str:0000000000002d54 .LASF3709
C:\Users\CYMR90~1\AppData\Local\Temp\cchoDgth.s:29167  .debug_str:000000000001a30e .LASF3710
C:\Users\CYMR90~1\AppData\Local\Temp\cchoDgth.s:25992  .debug_str:000000000000d82d .LASF3711
C:\Users\CYMR90~1\AppData\Local\Temp\cchoDgth.s:24096  .debug_str:0000000000005cc2 .LASF3712
C:\Users\CYMR90~1\AppData\Local\Temp\cchoDgth.s:32689  .debug_str:00000000000281ec .LASF3713
C:\Users\CYMR90~1\AppData\Local\Temp\cchoDgth.s:26478  .debug_str:000000000000f607 .LASF3714
C:\Users\CYMR90~1\AppData\Local\Temp\cchoDgth.s:25670  .debug_str:000000000000c332 .LASF3715
C:\Users\CYMR90~1\AppData\Local\Temp\cchoDgth.s:31635  .debug_str:0000000000023d2b .LASF3716
C:\Users\CYMR90~1\AppData\Local\Temp\cchoDgth.s:22800  .debug_str:0000000000000a50 .LASF3717
C:\Users\CYMR90~1\AppData\Local\Temp\cchoDgth.s:27122  .debug_str:0000000000011e6f .LASF3718
C:\Users\CYMR90~1\AppData\Local\Temp\cchoDgth.s:32659  .debug_str:000000000002800d .LASF3719
C:\Users\CYMR90~1\AppData\Local\Temp\cchoDgth.s:24240  .debug_str:0000000000006583 .LASF3720
C:\Users\CYMR90~1\AppData\Local\Temp\cchoDgth.s:25602  .debug_str:000000000000be2e .LASF3721
C:\Users\CYMR90~1\AppData\Local\Temp\cchoDgth.s:26692  .debug_str:0000000000010372 .LASF3722
C:\Users\CYMR90~1\AppData\Local\Temp\cchoDgth.s:31003  .debug_str:00000000000216d9 .LASF3723
C:\Users\CYMR90~1\AppData\Local\Temp\cchoDgth.s:23874  .debug_str:0000000000004f40 .LASF3724
C:\Users\CYMR90~1\AppData\Local\Temp\cchoDgth.s:28094  .debug_str:0000000000015c1b .LASF3725
C:\Users\CYMR90~1\AppData\Local\Temp\cchoDgth.s:32491  .debug_str:0000000000027548 .LASF3726
C:\Users\CYMR90~1\AppData\Local\Temp\cchoDgth.s:25366  .debug_str:000000000000ae7e .LASF3727
C:\Users\CYMR90~1\AppData\Local\Temp\cchoDgth.s:25740  .debug_str:000000000000c79e .LASF3728
C:\Users\CYMR90~1\AppData\Local\Temp\cchoDgth.s:30139  .debug_str:000000000001e2b0 .LASF3729
C:\Users\CYMR90~1\AppData\Local\Temp\cchoDgth.s:25870  .debug_str:000000000000cf88 .LASF3730
C:\Users\CYMR90~1\AppData\Local\Temp\cchoDgth.s:31191  .debug_str:00000000000222e5 .LASF3731
C:\Users\CYMR90~1\AppData\Local\Temp\cchoDgth.s:24092  .debug_str:0000000000005c6a .LASF3732
C:\Users\CYMR90~1\AppData\Local\Temp\cchoDgth.s:33605  .debug_str:000000000002babd .LASF3733
C:\Users\CYMR90~1\AppData\Local\Temp\cchoDgth.s:26474  .debug_str:000000000000f5aa .LASF3734
C:\Users\CYMR90~1\AppData\Local\Temp\cchoDgth.s:30671  .debug_str:00000000000202ee .LASF3735
C:\Users\CYMR90~1\AppData\Local\Temp\cchoDgth.s:23578  .debug_str:0000000000003b4c .LASF3736
C:\Users\CYMR90~1\AppData\Local\Temp\cchoDgth.s:26548  .debug_str:000000000000fac9 .LASF3737
C:\Users\CYMR90~1\AppData\Local\Temp\cchoDgth.s:31775  .debug_str:000000000002456a .LASF3738
C:\Users\CYMR90~1\AppData\Local\Temp\cchoDgth.s:24676  .debug_str:000000000000821f .LASF3739
C:\Users\CYMR90~1\AppData\Local\Temp\cchoDgth.s:29393  .debug_str:000000000001b27e .LASF3740
C:\Users\CYMR90~1\AppData\Local\Temp\cchoDgth.s:23678  .debug_str:000000000000417a .LASF3741
C:\Users\CYMR90~1\AppData\Local\Temp\cchoDgth.s:31819  .debug_str:000000000002489f .LASF3742
C:\Users\CYMR90~1\AppData\Local\Temp\cchoDgth.s:24708  .debug_str:00000000000084e1 .LASF3743
C:\Users\CYMR90~1\AppData\Local\Temp\cchoDgth.s:26314  .debug_str:000000000000ec26 .LASF3744
C:\Users\CYMR90~1\AppData\Local\Temp\cchoDgth.s:33287  .debug_str:000000000002a80c .LASF3745
C:\Users\CYMR90~1\AppData\Local\Temp\cchoDgth.s:24534  .debug_str:000000000000781f .LASF3746
C:\Users\CYMR90~1\AppData\Local\Temp\cchoDgth.s:30543  .debug_str:000000000001faea .LASF3747
C:\Users\CYMR90~1\AppData\Local\Temp\cchoDgth.s:23284  .debug_str:0000000000002829 .LASF3748
C:\Users\CYMR90~1\AppData\Local\Temp\cchoDgth.s:28713  .debug_str:0000000000018540 .LASF3749
C:\Users\CYMR90~1\AppData\Local\Temp\cchoDgth.s:33995  .debug_str:000000000002d4b8 .LASF3750
C:\Users\CYMR90~1\AppData\Local\Temp\cchoDgth.s:24714  .debug_str:0000000000008538 .LASF3751
C:\Users\CYMR90~1\AppData\Local\Temp\cchoDgth.s:32231  .debug_str:000000000002655f .LASF3752
C:\Users\CYMR90~1\AppData\Local\Temp\cchoDgth.s:27264  .debug_str:0000000000012777 .LASF3753
C:\Users\CYMR90~1\AppData\Local\Temp\cchoDgth.s:31509  .debug_str:00000000000235d5 .LASF3754
C:\Users\CYMR90~1\AppData\Local\Temp\cchoDgth.s:24382  .debug_str:0000000000006e58 .LASF3755
C:\Users\CYMR90~1\AppData\Local\Temp\cchoDgth.s:27308  .debug_str:0000000000012a47 .LASF3756
C:\Users\CYMR90~1\AppData\Local\Temp\cchoDgth.s:30673  .debug_str:0000000000020320 .LASF3757
C:\Users\CYMR90~1\AppData\Local\Temp\cchoDgth.s:27228  .debug_str:0000000000012532 .LASF3758
C:\Users\CYMR90~1\AppData\Local\Temp\cchoDgth.s:32267  .debug_str:00000000000267cf .LASF3759
C:\Users\CYMR90~1\AppData\Local\Temp\cchoDgth.s:23566  .debug_str:0000000000003a75 .LASF3760
C:\Users\CYMR90~1\AppData\Local\Temp\cchoDgth.s:25824  .debug_str:000000000000cd20 .LASF3761
C:\Users\CYMR90~1\AppData\Local\Temp\cchoDgth.s:26260  .debug_str:000000000000e89c .LASF3762
C:\Users\CYMR90~1\AppData\Local\Temp\cchoDgth.s:31827  .debug_str:0000000000024948 .LASF3763
C:\Users\CYMR90~1\AppData\Local\Temp\cchoDgth.s:28110  .debug_str:0000000000015d0a .LASF3764
C:\Users\CYMR90~1\AppData\Local\Temp\cchoDgth.s:28555  .debug_str:0000000000017b8f .LASF3765
C:\Users\CYMR90~1\AppData\Local\Temp\cchoDgth.s:25552  .debug_str:000000000000baf9 .LASF3766
C:\Users\CYMR90~1\AppData\Local\Temp\cchoDgth.s:27900  .debug_str:0000000000015079 .LASF3767
C:\Users\CYMR90~1\AppData\Local\Temp\cchoDgth.s:30887  .debug_str:0000000000020fca .LASF3768
C:\Users\CYMR90~1\AppData\Local\Temp\cchoDgth.s:27924  .debug_str:000000000001522e .LASF3769
C:\Users\CYMR90~1\AppData\Local\Temp\cchoDgth.s:32299  .debug_str:00000000000269c9 .LASF3770
C:\Users\CYMR90~1\AppData\Local\Temp\cchoDgth.s:29001  .debug_str:000000000001985c .LASF3771
C:\Users\CYMR90~1\AppData\Local\Temp\cchoDgth.s:26970  .debug_str:00000000000113ec .LASF3772
C:\Users\CYMR90~1\AppData\Local\Temp\cchoDgth.s:23728  .debug_str:0000000000004507 .LASF3773
C:\Users\CYMR90~1\AppData\Local\Temp\cchoDgth.s:22970  .debug_str:0000000000001523 .LASF3774
C:\Users\CYMR90~1\AppData\Local\Temp\cchoDgth.s:22646  .debug_str:00000000000000ff .LASF3775
C:\Users\CYMR90~1\AppData\Local\Temp\cchoDgth.s:27546  .debug_str:0000000000013a74 .LASF3776
C:\Users\CYMR90~1\AppData\Local\Temp\cchoDgth.s:24016  .debug_str:00000000000057d2 .LASF3777
C:\Users\CYMR90~1\AppData\Local\Temp\cchoDgth.s:28811  .debug_str:0000000000018b39 .LASF3778
C:\Users\CYMR90~1\AppData\Local\Temp\cchoDgth.s:26150  .debug_str:000000000000e202 .LASF3779
C:\Users\CYMR90~1\AppData\Local\Temp\cchoDgth.s:25188  .debug_str:000000000000a2f6 .LASF3780
C:\Users\CYMR90~1\AppData\Local\Temp\cchoDgth.s:26830  .debug_str:0000000000010b89 .LASF3781
C:\Users\CYMR90~1\AppData\Local\Temp\cchoDgth.s:28521  .debug_str:0000000000017970 .LASF3782
C:\Users\CYMR90~1\AppData\Local\Temp\cchoDgth.s:28368  .debug_str:0000000000016e90 .LASF3783
C:\Users\CYMR90~1\AppData\Local\Temp\cchoDgth.s:27344  .debug_str:0000000000012cec .LASF3784
C:\Users\CYMR90~1\AppData\Local\Temp\cchoDgth.s:29715  .debug_str:000000000001c671 .LASF3785
C:\Users\CYMR90~1\AppData\Local\Temp\cchoDgth.s:26264  .debug_str:000000000000e91b .LASF3786
C:\Users\CYMR90~1\AppData\Local\Temp\cchoDgth.s:22838  .debug_str:0000000000000ce9 .LASF3787
C:\Users\CYMR90~1\AppData\Local\Temp\cchoDgth.s:33025  .debug_str:00000000000297f4 .LASF3788
C:\Users\CYMR90~1\AppData\Local\Temp\cchoDgth.s:27410  .debug_str:000000000001311b .LASF3789
C:\Users\CYMR90~1\AppData\Local\Temp\cchoDgth.s:30061  .debug_str:000000000001dd68 .LASF3790
C:\Users\CYMR90~1\AppData\Local\Temp\cchoDgth.s:23230  .debug_str:0000000000002495 .LASF3791
C:\Users\CYMR90~1\AppData\Local\Temp\cchoDgth.s:28302  .debug_str:00000000000169ac .LASF3792
C:\Users\CYMR90~1\AppData\Local\Temp\cchoDgth.s:32073  .debug_str:0000000000025a83 .LASF3793
C:\Users\CYMR90~1\AppData\Local\Temp\cchoDgth.s:31839  .debug_str:0000000000024a2b .LASF3794
C:\Users\CYMR90~1\AppData\Local\Temp\cchoDgth.s:28385  .debug_str:0000000000017166 .LASF3795
C:\Users\CYMR90~1\AppData\Local\Temp\cchoDgth.s:24970  .debug_str:0000000000009546 .LASF3796
C:\Users\CYMR90~1\AppData\Local\Temp\cchoDgth.s:33013  .debug_str:000000000002973a .LASF3797
C:\Users\CYMR90~1\AppData\Local\Temp\cchoDgth.s:29543  .debug_str:000000000001bc3d .LASF3798
C:\Users\CYMR90~1\AppData\Local\Temp\cchoDgth.s:23366  .debug_str:0000000000002d86 .LASF3799
C:\Users\CYMR90~1\AppData\Local\Temp\cchoDgth.s:33389  .debug_str:000000000002ae14 .LASF3800
C:\Users\CYMR90~1\AppData\Local\Temp\cchoDgth.s:33695  .debug_str:000000000002c09e .LASF3801
C:\Users\CYMR90~1\AppData\Local\Temp\cchoDgth.s:25350  .debug_str:000000000000ad70 .LASF3802
C:\Users\CYMR90~1\AppData\Local\Temp\cchoDgth.s:33993  .debug_str:000000000002d494 .LASF3803
C:\Users\CYMR90~1\AppData\Local\Temp\cchoDgth.s:33917  .debug_str:000000000002cf70 .LASF3804
C:\Users\CYMR90~1\AppData\Local\Temp\cchoDgth.s:27106  .debug_str:0000000000011d4d .LASF3805
C:\Users\CYMR90~1\AppData\Local\Temp\cchoDgth.s:23652  .debug_str:000000000000400d .LASF3806
C:\Users\CYMR90~1\AppData\Local\Temp\cchoDgth.s:31699  .debug_str:000000000002412e .LASF3807
C:\Users\CYMR90~1\AppData\Local\Temp\cchoDgth.s:28220  .debug_str:0000000000016496 .LASF3808
C:\Users\CYMR90~1\AppData\Local\Temp\cchoDgth.s:26658  .debug_str:0000000000010182 .LASF3809
C:\Users\CYMR90~1\AppData\Local\Temp\cchoDgth.s:32861  .debug_str:0000000000028e39 .LASF3810
C:\Users\CYMR90~1\AppData\Local\Temp\cchoDgth.s:30815  .debug_str:0000000000020bc2 .LASF3811
C:\Users\CYMR90~1\AppData\Local\Temp\cchoDgth.s:24674  .debug_str:00000000000081fb .LASF3812
C:\Users\CYMR90~1\AppData\Local\Temp\cchoDgth.s:32703  .debug_str:0000000000028317 .LASF3813
C:\Users\CYMR90~1\AppData\Local\Temp\cchoDgth.s:33669  .debug_str:000000000002becd .LASF3814
C:\Users\CYMR90~1\AppData\Local\Temp\cchoDgth.s:25840  .debug_str:000000000000ce0b .LASF3815
C:\Users\CYMR90~1\AppData\Local\Temp\cchoDgth.s:33861  .debug_str:000000000002cc0d .LASF3816
C:\Users\CYMR90~1\AppData\Local\Temp\cchoDgth.s:23768  .debug_str:00000000000047c8 .LASF3817
C:\Users\CYMR90~1\AppData\Local\Temp\cchoDgth.s:26974  .debug_str:0000000000011427 .LASF3818
C:\Users\CYMR90~1\AppData\Local\Temp\cchoDgth.s:29903  .debug_str:000000000001d306 .LASF3819
C:\Users\CYMR90~1\AppData\Local\Temp\cchoDgth.s:31555  .debug_str:0000000000023833 .LASF3820
C:\Users\CYMR90~1\AppData\Local\Temp\cchoDgth.s:32941  .debug_str:0000000000029315 .LASF3821
C:\Users\CYMR90~1\AppData\Local\Temp\cchoDgth.s:23370  .debug_str:0000000000002ddf .LASF3822
C:\Users\CYMR90~1\AppData\Local\Temp\cchoDgth.s:28515  .debug_str:000000000001790d .LASF3823
C:\Users\CYMR90~1\AppData\Local\Temp\cchoDgth.s:27932  .debug_str:00000000000152ae .LASF3824
C:\Users\CYMR90~1\AppData\Local\Temp\cchoDgth.s:24526  .debug_str:00000000000077a8 .LASF3825
C:\Users\CYMR90~1\AppData\Local\Temp\cchoDgth.s:24652  .debug_str:0000000000008079 .LASF3826
C:\Users\CYMR90~1\AppData\Local\Temp\cchoDgth.s:24648  .debug_str:0000000000008038 .LASF3827
C:\Users\CYMR90~1\AppData\Local\Temp\cchoDgth.s:25692  .debug_str:000000000000c4c9 .LASF3828
C:\Users\CYMR90~1\AppData\Local\Temp\cchoDgth.s:33725  .debug_str:000000000002c2a0 .LASF3829
C:\Users\CYMR90~1\AppData\Local\Temp\cchoDgth.s:23276  .debug_str:000000000000278a .LASF3830
C:\Users\CYMR90~1\AppData\Local\Temp\cchoDgth.s:31721  .debug_str:000000000002425d .LASF3831
C:\Users\CYMR90~1\AppData\Local\Temp\cchoDgth.s:33655  .debug_str:000000000002bde4 .LASF3832
C:\Users\CYMR90~1\AppData\Local\Temp\cchoDgth.s:30063  .debug_str:000000000001dd8c .LASF3833
C:\Users\CYMR90~1\AppData\Local\Temp\cchoDgth.s:26682  .debug_str:00000000000102cc .LASF3834
C:\Users\CYMR90~1\AppData\Local\Temp\cchoDgth.s:23080  .debug_str:0000000000001c15 .LASF3835
C:\Users\CYMR90~1\AppData\Local\Temp\cchoDgth.s:31243  .debug_str:00000000000225d1 .LASF3836
C:\Users\CYMR90~1\AppData\Local\Temp\cchoDgth.s:27798  .debug_str:0000000000014a1c .LASF3837
C:\Users\CYMR90~1\AppData\Local\Temp\cchoDgth.s:26482  .debug_str:000000000000f651 .LASF3838
C:\Users\CYMR90~1\AppData\Local\Temp\cchoDgth.s:29085  .debug_str:0000000000019e3e .LASF3839
C:\Users\CYMR90~1\AppData\Local\Temp\cchoDgth.s:28967  .debug_str:0000000000019647 .LASF3840
C:\Users\CYMR90~1\AppData\Local\Temp\cchoDgth.s:30373  .debug_str:000000000001f09d .LASF3841
C:\Users\CYMR90~1\AppData\Local\Temp\cchoDgth.s:32349  .debug_str:0000000000026caf .LASF3842
C:\Users\CYMR90~1\AppData\Local\Temp\cchoDgth.s:30439  .debug_str:000000000001f4b8 .LASF3843
C:\Users\CYMR90~1\AppData\Local\Temp\cchoDgth.s:24992  .debug_str:0000000000009686 .LASF3844
C:\Users\CYMR90~1\AppData\Local\Temp\cchoDgth.s:33507  .debug_str:000000000002b4e2 .LASF3845
C:\Users\CYMR90~1\AppData\Local\Temp\cchoDgth.s:29941  .debug_str:000000000001d5f2 .LASF3846
C:\Users\CYMR90~1\AppData\Local\Temp\cchoDgth.s:31181  .debug_str:0000000000022245 .LASF3847
C:\Users\CYMR90~1\AppData\Local\Temp\cchoDgth.s:23086  .debug_str:0000000000001c7a .LASF3848
C:\Users\CYMR90~1\AppData\Local\Temp\cchoDgth.s:31099  .debug_str:0000000000021d14 .LASF3849
C:\Users\CYMR90~1\AppData\Local\Temp\cchoDgth.s:27654  .debug_str:00000000000140e6 .LASF3850
C:\Users\CYMR90~1\AppData\Local\Temp\cchoDgth.s:33401  .debug_str:000000000002aed3 .LASF3851
C:\Users\CYMR90~1\AppData\Local\Temp\cchoDgth.s:31037  .debug_str:00000000000218e0 .LASF3852
C:\Users\CYMR90~1\AppData\Local\Temp\cchoDgth.s:27594  .debug_str:0000000000013d40 .LASF3853
C:\Users\CYMR90~1\AppData\Local\Temp\cchoDgth.s:32369  .debug_str:0000000000026e06 .LASF3854
C:\Users\CYMR90~1\AppData\Local\Temp\cchoDgth.s:32195  .debug_str:0000000000026357 .LASF3855
C:\Users\CYMR90~1\AppData\Local\Temp\cchoDgth.s:28737  .debug_str:00000000000186bb .LASF3856
C:\Users\CYMR90~1\AppData\Local\Temp\cchoDgth.s:33969  .debug_str:000000000002d2d5 .LASF3857
C:\Users\CYMR90~1\AppData\Local\Temp\cchoDgth.s:33355  .debug_str:000000000002abfb .LASF3858
C:\Users\CYMR90~1\AppData\Local\Temp\cchoDgth.s:31249  .debug_str:000000000002263a .LASF3859
C:\Users\CYMR90~1\AppData\Local\Temp\cchoDgth.s:30081  .debug_str:000000000001deb1 .LASF3860
C:\Users\CYMR90~1\AppData\Local\Temp\cchoDgth.s:24436  .debug_str:00000000000071d0 .LASF3861
C:\Users\CYMR90~1\AppData\Local\Temp\cchoDgth.s:24580  .debug_str:0000000000007b25 .LASF3862
C:\Users\CYMR90~1\AppData\Local\Temp\cchoDgth.s:28621  .debug_str:0000000000017fa8 .LASF3863
C:\Users\CYMR90~1\AppData\Local\Temp\cchoDgth.s:32643  .debug_str:0000000000027f18 .LASF3864
C:\Users\CYMR90~1\AppData\Local\Temp\cchoDgth.s:25162  .debug_str:000000000000a126 .LASF3865
C:\Users\CYMR90~1\AppData\Local\Temp\cchoDgth.s:33795  .debug_str:000000000002c781 .LASF3866
C:\Users\CYMR90~1\AppData\Local\Temp\cchoDgth.s:24690  .debug_str:00000000000083b8 .LASF3867
C:\Users\CYMR90~1\AppData\Local\Temp\cchoDgth.s:27034  .debug_str:00000000000117d6 .LASF3868
C:\Users\CYMR90~1\AppData\Local\Temp\cchoDgth.s:29595  .debug_str:000000000001bee6 .LASF3869
C:\Users\CYMR90~1\AppData\Local\Temp\cchoDgth.s:33715  .debug_str:000000000002c21d .LASF3870
C:\Users\CYMR90~1\AppData\Local\Temp\cchoDgth.s:30589  .debug_str:000000000001fdc2 .LASF3871
C:\Users\CYMR90~1\AppData\Local\Temp\cchoDgth.s:30197  .debug_str:000000000001e663 .LASF3872
C:\Users\CYMR90~1\AppData\Local\Temp\cchoDgth.s:32575  .debug_str:0000000000027b31 .LASF3873
C:\Users\CYMR90~1\AppData\Local\Temp\cchoDgth.s:23516  .debug_str:000000000000371d .LASF3874
C:\Users\CYMR90~1\AppData\Local\Temp\cchoDgth.s:30923  .debug_str:0000000000021243 .LASF3875
C:\Users\CYMR90~1\AppData\Local\Temp\cchoDgth.s:23426  .debug_str:000000000000312c .LASF3876
C:\Users\CYMR90~1\AppData\Local\Temp\cchoDgth.s:30549  .debug_str:000000000001fb4e .LASF3877
C:\Users\CYMR90~1\AppData\Local\Temp\cchoDgth.s:32977  .debug_str:00000000000294f3 .LASF3878
C:\Users\CYMR90~1\AppData\Local\Temp\cchoDgth.s:27362  .debug_str:0000000000012de6 .LASF3879
C:\Users\CYMR90~1\AppData\Local\Temp\cchoDgth.s:26148  .debug_str:000000000000e1dc .LASF3880
C:\Users\CYMR90~1\AppData\Local\Temp\cchoDgth.s:23178  .debug_str:00000000000021ae .LASF3881
C:\Users\CYMR90~1\AppData\Local\Temp\cchoDgth.s:32513  .debug_str:00000000000276d5 .LASF3882
C:\Users\CYMR90~1\AppData\Local\Temp\cchoDgth.s:27064  .debug_str:0000000000011a59 .LASF3883
C:\Users\CYMR90~1\AppData\Local\Temp\cchoDgth.s:28993  .debug_str:00000000000197eb .LASF3884
C:\Users\CYMR90~1\AppData\Local\Temp\cchoDgth.s:30553  .debug_str:000000000001fb8d .LASF3885
C:\Users\CYMR90~1\AppData\Local\Temp\cchoDgth.s:22722  .debug_str:00000000000005a4 .LASF3886
C:\Users\CYMR90~1\AppData\Local\Temp\cchoDgth.s:29477  .debug_str:000000000001b82d .LASF3887
C:\Users\CYMR90~1\AppData\Local\Temp\cchoDgth.s:33569  .debug_str:000000000002b83b .LASF3888
C:\Users\CYMR90~1\AppData\Local\Temp\cchoDgth.s:26082  .debug_str:000000000000ddb3 .LASF3889
C:\Users\CYMR90~1\AppData\Local\Temp\cchoDgth.s:25092  .debug_str:0000000000009cfc .LASF3890
C:\Users\CYMR90~1\AppData\Local\Temp\cchoDgth.s:29031  .debug_str:0000000000019a16 .LASF3891
C:\Users\CYMR90~1\AppData\Local\Temp\cchoDgth.s:24960  .debug_str:00000000000094c5 .LASF3892
C:\Users\CYMR90~1\AppData\Local\Temp\cchoDgth.s:28925  .debug_str:000000000001930a .LASF3893
C:\Users\CYMR90~1\AppData\Local\Temp\cchoDgth.s:32931  .debug_str:000000000002927b .LASF3894
C:\Users\CYMR90~1\AppData\Local\Temp\cchoDgth.s:27862  .debug_str:0000000000014de2 .LASF3895
C:\Users\CYMR90~1\AppData\Local\Temp\cchoDgth.s:29427  .debug_str:000000000001b504 .LASF3896
C:\Users\CYMR90~1\AppData\Local\Temp\cchoDgth.s:33505  .debug_str:000000000002b4bc .LASF3897
C:\Users\CYMR90~1\AppData\Local\Temp\cchoDgth.s:26020  .debug_str:000000000000d9c3 .LASF3898
C:\Users\CYMR90~1\AppData\Local\Temp\cchoDgth.s:25150  .debug_str:000000000000a04f .LASF3899
C:\Users\CYMR90~1\AppData\Local\Temp\cchoDgth.s:27502  .debug_str:00000000000137aa .LASF3900
C:\Users\CYMR90~1\AppData\Local\Temp\cchoDgth.s:30991  .debug_str:0000000000021646 .LASF3901
C:\Users\CYMR90~1\AppData\Local\Temp\cchoDgth.s:25096  .debug_str:0000000000009d33 .LASF3902
C:\Users\CYMR90~1\AppData\Local\Temp\cchoDgth.s:32863  .debug_str:0000000000028e5d .LASF3903
C:\Users\CYMR90~1\AppData\Local\Temp\cchoDgth.s:25386  .debug_str:000000000000afbe .LASF3904
C:\Users\CYMR90~1\AppData\Local\Temp\cchoDgth.s:29365  .debug_str:000000000001b0ca .LASF3905
C:\Users\CYMR90~1\AppData\Local\Temp\cchoDgth.s:33431  .debug_str:000000000002b076 .LASF3906
C:\Users\CYMR90~1\AppData\Local\Temp\cchoDgth.s:28675  .debug_str:00000000000182e9 .LASF3907
C:\Users\CYMR90~1\AppData\Local\Temp\cchoDgth.s:27470  .debug_str:0000000000013550 .LASF3908
C:\Users\CYMR90~1\AppData\Local\Temp\cchoDgth.s:33919  .debug_str:000000000002cf94 .LASF3909
C:\Users\CYMR90~1\AppData\Local\Temp\cchoDgth.s:27032  .debug_str:00000000000117b0 .LASF3910
C:\Users\CYMR90~1\AppData\Local\Temp\cchoDgth.s:23460  .debug_str:0000000000003373 .LASF3911
C:\Users\CYMR90~1\AppData\Local\Temp\cchoDgth.s:32797  .debug_str:0000000000028974 .LASF3912
C:\Users\CYMR90~1\AppData\Local\Temp\cchoDgth.s:33375  .debug_str:000000000002ad4f .LASF3913
C:\Users\CYMR90~1\AppData\Local\Temp\cchoDgth.s:24264  .debug_str:00000000000066fb .LASF3914
C:\Users\CYMR90~1\AppData\Local\Temp\cchoDgth.s:33365  .debug_str:000000000002ac78 .LASF3915
C:\Users\CYMR90~1\AppData\Local\Temp\cchoDgth.s:25892  .debug_str:000000000000d123 .LASF3916
C:\Users\CYMR90~1\AppData\Local\Temp\cchoDgth.s:29835  .debug_str:000000000001ce3f .LASF3917
C:\Users\CYMR90~1\AppData\Local\Temp\cchoDgth.s:33857  .debug_str:000000000002cbc0 .LASF3918
C:\Users\CYMR90~1\AppData\Local\Temp\cchoDgth.s:24692  .debug_str:00000000000083de .LASF3919
C:\Users\CYMR90~1\AppData\Local\Temp\cchoDgth.s:27852  .debug_str:0000000000014d61 .LASF3920
C:\Users\CYMR90~1\AppData\Local\Temp\cchoDgth.s:27376  .debug_str:0000000000012eed .LASF3921
C:\Users\CYMR90~1\AppData\Local\Temp\cchoDgth.s:25252  .debug_str:000000000000a6d7 .LASF3922
C:\Users\CYMR90~1\AppData\Local\Temp\cchoDgth.s:29217  .debug_str:000000000001a5d3 .LASF3923
C:\Users\CYMR90~1\AppData\Local\Temp\cchoDgth.s:26694  .debug_str:00000000000103a4 .LASF3924
C:\Users\CYMR90~1\AppData\Local\Temp\cchoDgth.s:29607  .debug_str:000000000001bfce .LASF3925
C:\Users\CYMR90~1\AppData\Local\Temp\cchoDgth.s:29763  .debug_str:000000000001c901 .LASF3926
C:\Users\CYMR90~1\AppData\Local\Temp\cchoDgth.s:31101  .debug_str:0000000000021d38 .LASF3927
C:\Users\CYMR90~1\AppData\Local\Temp\cchoDgth.s:26296  .debug_str:000000000000eb16 .LASF3928
C:\Users\CYMR90~1\AppData\Local\Temp\cchoDgth.s:30223  .debug_str:000000000001e7c9 .LASF3929
C:\Users\CYMR90~1\AppData\Local\Temp\cchoDgth.s:22812  .debug_str:0000000000000b61 .LASF3930
C:\Users\CYMR90~1\AppData\Local\Temp\cchoDgth.s:26800  .debug_str:00000000000109e9 .LASF3931
C:\Users\CYMR90~1\AppData\Local\Temp\cchoDgth.s:31375  .debug_str:0000000000022d9d .LASF3932
C:\Users\CYMR90~1\AppData\Local\Temp\cchoDgth.s:33237  .debug_str:000000000002a52e .LASF3933
C:\Users\CYMR90~1\AppData\Local\Temp\cchoDgth.s:25762  .debug_str:000000000000c8f5 .LASF3934
C:\Users\CYMR90~1\AppData\Local\Temp\cchoDgth.s:27876  .debug_str:0000000000014ec2 .LASF3935
C:\Users\CYMR90~1\AppData\Local\Temp\cchoDgth.s:33729  .debug_str:000000000002c2dc .LASF3936
C:\Users\CYMR90~1\AppData\Local\Temp\cchoDgth.s:30249  .debug_str:000000000001e958 .LASF3937
C:\Users\CYMR90~1\AppData\Local\Temp\cchoDgth.s:30155  .debug_str:000000000001e3e3 .LASF3938
C:\Users\CYMR90~1\AppData\Local\Temp\cchoDgth.s:22750  .debug_str:000000000000075d .LASF3939
C:\Users\CYMR90~1\AppData\Local\Temp\cchoDgth.s:33907  .debug_str:000000000002ceb1 .LASF3940
C:\Users\CYMR90~1\AppData\Local\Temp\cchoDgth.s:23730  .debug_str:000000000000452b .LASF3941
C:\Users\CYMR90~1\AppData\Local\Temp\cchoDgth.s:33173  .debug_str:000000000002a14f .LASF3942
C:\Users\CYMR90~1\AppData\Local\Temp\cchoDgth.s:32539  .debug_str:0000000000027856 .LASF3943
C:\Users\CYMR90~1\AppData\Local\Temp\cchoDgth.s:31463  .debug_str:0000000000023332 .LASF3944
C:\Users\CYMR90~1\AppData\Local\Temp\cchoDgth.s:33849  .debug_str:000000000002cb42 .LASF3945
C:\Users\CYMR90~1\AppData\Local\Temp\cchoDgth.s:26174  .debug_str:000000000000e362 .LASF3946
C:\Users\CYMR90~1\AppData\Local\Temp\cchoDgth.s:24040  .debug_str:0000000000005959 .LASF3947
C:\Users\CYMR90~1\AppData\Local\Temp\cchoDgth.s:22682  .debug_str:000000000000034a .LASF3948
C:\Users\CYMR90~1\AppData\Local\Temp\cchoDgth.s:27244  .debug_str:0000000000012627 .LASF3949
C:\Users\CYMR90~1\AppData\Local\Temp\cchoDgth.s:23604  .debug_str:0000000000003cc7 .LASF3950
C:\Users\CYMR90~1\AppData\Local\Temp\cchoDgth.s:27726  .debug_str:000000000001457c .LASF3951
C:\Users\CYMR90~1\AppData\Local\Temp\cchoDgth.s:25630  .debug_str:000000000000c095 .LASF3952
C:\Users\CYMR90~1\AppData\Local\Temp\cchoDgth.s:22972  .debug_str:0000000000001547 .LASF3953
C:\Users\CYMR90~1\AppData\Local\Temp\cchoDgth.s:25946  .debug_str:000000000000d4e0 .LASF3954
C:\Users\CYMR90~1\AppData\Local\Temp\cchoDgth.s:23422  .debug_str:00000000000030eb .LASF3955
C:\Users\CYMR90~1\AppData\Local\Temp\cchoDgth.s:30611  .debug_str:000000000001ff35 .LASF3956
C:\Users\CYMR90~1\AppData\Local\Temp\cchoDgth.s:34061  .debug_str:000000000002d89d .LASF3957
C:\Users\CYMR90~1\AppData\Local\Temp\cchoDgth.s:22966  .debug_str:00000000000014eb .LASF3958
C:\Users\CYMR90~1\AppData\Local\Temp\cchoDgth.s:27172  .debug_str:000000000001216f .LASF3959
C:\Users\CYMR90~1\AppData\Local\Temp\cchoDgth.s:29529  .debug_str:000000000001bb65 .LASF3960
C:\Users\CYMR90~1\AppData\Local\Temp\cchoDgth.s:32253  .debug_str:00000000000266b5 .LASF3961
C:\Users\CYMR90~1\AppData\Local\Temp\cchoDgth.s:27902  .debug_str:000000000001509b .LASF3962
C:\Users\CYMR90~1\AppData\Local\Temp\cchoDgth.s:31177  .debug_str:0000000000022205 .LASF3963
C:\Users\CYMR90~1\AppData\Local\Temp\cchoDgth.s:23416  .debug_str:000000000000309c .LASF3964
C:\Users\CYMR90~1\AppData\Local\Temp\cchoDgth.s:24754  .debug_str:00000000000087c0 .LASF3965
C:\Users\CYMR90~1\AppData\Local\Temp\cchoDgth.s:28707  .debug_str:00000000000184e3 .LASF3966
C:\Users\CYMR90~1\AppData\Local\Temp\cchoDgth.s:32721  .debug_str:000000000002843e .LASF3967
C:\Users\CYMR90~1\AppData\Local\Temp\cchoDgth.s:32713  .debug_str:00000000000283bf .LASF3968
C:\Users\CYMR90~1\AppData\Local\Temp\cchoDgth.s:33921  .debug_str:000000000002cfba .LASF3969
C:\Users\CYMR90~1\AppData\Local\Temp\cchoDgth.s:33291  .debug_str:000000000002a855 .LASF3970
C:\Users\CYMR90~1\AppData\Local\Temp\cchoDgth.s:24868  .debug_str:0000000000008f6d .LASF3971
C:\Users\CYMR90~1\AppData\Local\Temp\cchoDgth.s:23290  .debug_str:00000000000028ae .LASF3972
C:\Users\CYMR90~1\AppData\Local\Temp\cchoDgth.s:32161  .debug_str:0000000000026144 .LASF3973
C:\Users\CYMR90~1\AppData\Local\Temp\cchoDgth.s:24696  .debug_str:000000000000841a .LASF3974
C:\Users\CYMR90~1\AppData\Local\Temp\cchoDgth.s:28635  .debug_str:0000000000018078 .LASF3975
C:\Users\CYMR90~1\AppData\Local\Temp\cchoDgth.s:33497  .debug_str:000000000002b419 .LASF3976
C:\Users\CYMR90~1\AppData\Local\Temp\cchoDgth.s:23626  .debug_str:0000000000003e4e .LASF3977
C:\Users\CYMR90~1\AppData\Local\Temp\cchoDgth.s:29135  .debug_str:000000000001a15f .LASF3978
C:\Users\CYMR90~1\AppData\Local\Temp\cchoDgth.s:33233  .debug_str:000000000002a4f1 .LASF3979
C:\Users\CYMR90~1\AppData\Local\Temp\cchoDgth.s:31629  .debug_str:0000000000023cd0 .LASF3980
C:\Users\CYMR90~1\AppData\Local\Temp\cchoDgth.s:30643  .debug_str:0000000000020128 .LASF3981
C:\Users\CYMR90~1\AppData\Local\Temp\cchoDgth.s:31981  .debug_str:000000000002536d .LASF3982
C:\Users\CYMR90~1\AppData\Local\Temp\cchoDgth.s:34011  .debug_str:000000000002d5bc .LASF3983
C:\Users\CYMR90~1\AppData\Local\Temp\cchoDgth.s:28573  .debug_str:0000000000017ce0 .LASF3984
C:\Users\CYMR90~1\AppData\Local\Temp\cchoDgth.s:32269  .debug_str:00000000000267f3 .LASF3985
C:\Users\CYMR90~1\AppData\Local\Temp\cchoDgth.s:29307  .debug_str:000000000001ad08 .LASF3986
C:\Users\CYMR90~1\AppData\Local\Temp\cchoDgth.s:29549  .debug_str:000000000001bca7 .LASF3987
C:\Users\CYMR90~1\AppData\Local\Temp\cchoDgth.s:33165  .debug_str:000000000002a0df .LASF3988
C:\Users\CYMR90~1\AppData\Local\Temp\cchoDgth.s:25686  .debug_str:000000000000c476 .LASF3989
C:\Users\CYMR90~1\AppData\Local\Temp\cchoDgth.s:26096  .debug_str:000000000000de5a .LASF3990
C:\Users\CYMR90~1\AppData\Local\Temp\cchoDgth.s:28913  .debug_str:0000000000019253 .LASF3991
C:\Users\CYMR90~1\AppData\Local\Temp\cchoDgth.s:24556  .debug_str:0000000000007996 .LASF3992
C:\Users\CYMR90~1\AppData\Local\Temp\cchoDgth.s:28509  .debug_str:00000000000178b8 .LASF3993
C:\Users\CYMR90~1\AppData\Local\Temp\cchoDgth.s:31609  .debug_str:0000000000023b72 .LASF3994
C:\Users\CYMR90~1\AppData\Local\Temp\cchoDgth.s:25022  .debug_str:0000000000009897 .LASF3995
C:\Users\CYMR90~1\AppData\Local\Temp\cchoDgth.s:33975  .debug_str:000000000002d32d .LASF3996
C:\Users\CYMR90~1\AppData\Local\Temp\cchoDgth.s:33105  .debug_str:0000000000029d59 .LASF3997
C:\Users\CYMR90~1\AppData\Local\Temp\cchoDgth.s:25624  .debug_str:000000000000c01c .LASF3998
C:\Users\CYMR90~1\AppData\Local\Temp\cchoDgth.s:29625  .debug_str:000000000001c0e9 .LASF3999
C:\Users\CYMR90~1\AppData\Local\Temp\cchoDgth.s:32003  .debug_str:00000000000254fb .LASF4000
C:\Users\CYMR90~1\AppData\Local\Temp\cchoDgth.s:27960  .debug_str:0000000000015468 .LASF4001
C:\Users\CYMR90~1\AppData\Local\Temp\cchoDgth.s:28449  .debug_str:00000000000174f9 .LASF4002
C:\Users\CYMR90~1\AppData\Local\Temp\cchoDgth.s:30389  .debug_str:000000000001f194 .LASF4003
C:\Users\CYMR90~1\AppData\Local\Temp\cchoDgth.s:22868  .debug_str:0000000000000ecb .LASF4004
C:\Users\CYMR90~1\AppData\Local\Temp\cchoDgth.s:28941  .debug_str:00000000000194d3 .LASF4005
C:\Users\CYMR90~1\AppData\Local\Temp\cchoDgth.s:28455  .debug_str:0000000000017565 .LASF4006
C:\Users\CYMR90~1\AppData\Local\Temp\cchoDgth.s:30811  .debug_str:0000000000020b85 .LASF4007
C:\Users\CYMR90~1\AppData\Local\Temp\cchoDgth.s:33213  .debug_str:000000000002a3a3 .LASF4008
C:\Users\CYMR90~1\AppData\Local\Temp\cchoDgth.s:33517  .debug_str:000000000002b576 .LASF4009
C:\Users\CYMR90~1\AppData\Local\Temp\cchoDgth.s:26034  .debug_str:000000000000daba .LASF4010
C:\Users\CYMR90~1\AppData\Local\Temp\cchoDgth.s:33927  .debug_str:000000000002d024 .LASF4011
C:\Users\CYMR90~1\AppData\Local\Temp\cchoDgth.s:32393  .debug_str:0000000000026fa2 .LASF4012
C:\Users\CYMR90~1\AppData\Local\Temp\cchoDgth.s:26422  .debug_str:000000000000f27f .LASF4013
C:\Users\CYMR90~1\AppData\Local\Temp\cchoDgth.s:28875  .debug_str:0000000000018ff9 .LASF4014
C:\Users\CYMR90~1\AppData\Local\Temp\cchoDgth.s:32031  .debug_str:00000000000256d8 .LASF4015
C:\Users\CYMR90~1\AppData\Local\Temp\cchoDgth.s:31853  .debug_str:0000000000024b22 .LASF4016
C:\Users\CYMR90~1\AppData\Local\Temp\cchoDgth.s:29457  .debug_str:000000000001b718 .LASF4017
C:\Users\CYMR90~1\AppData\Local\Temp\cchoDgth.s:33447  .debug_str:000000000002b14d .LASF4018
C:\Users\CYMR90~1\AppData\Local\Temp\cchoDgth.s:25974  .debug_str:000000000000d6e7 .LASF4019
C:\Users\CYMR90~1\AppData\Local\Temp\cchoDgth.s:32395  .debug_str:0000000000026fc8 .LASF4020
C:\Users\CYMR90~1\AppData\Local\Temp\cchoDgth.s:28346  .debug_str:0000000000016caa .LASF4021
C:\Users\CYMR90~1\AppData\Local\Temp\cchoDgth.s:24842  .debug_str:0000000000008d75 .LASF4022
C:\Users\CYMR90~1\AppData\Local\Temp\cchoDgth.s:28799  .debug_str:0000000000018a68 .LASF4023
C:\Users\CYMR90~1\AppData\Local\Temp\cchoDgth.s:24116  .debug_str:0000000000005e27 .LASF4024
C:\Users\CYMR90~1\AppData\Local\Temp\cchoDgth.s:25430  .debug_str:000000000000b345 .LASF4025
C:\Users\CYMR90~1\AppData\Local\Temp\cchoDgth.s:28835  .debug_str:0000000000018cd3 .LASF4026
C:\Users\CYMR90~1\AppData\Local\Temp\cchoDgth.s:29053  .debug_str:0000000000019bdb .LASF4027
C:\Users\CYMR90~1\AppData\Local\Temp\cchoDgth.s:33597  .debug_str:000000000002ba36 .LASF4028
C:\Users\CYMR90~1\AppData\Local\Temp\cchoDgth.s:24476  .debug_str:00000000000074c2 .LASF4029
C:\Users\CYMR90~1\AppData\Local\Temp\cchoDgth.s:33871  .debug_str:000000000002cca1 .LASF4030
C:\Users\CYMR90~1\AppData\Local\Temp\cchoDgth.s:30863  .debug_str:0000000000020e82 .LASF4031
C:\Users\CYMR90~1\AppData\Local\Temp\cchoDgth.s:24420  .debug_str:00000000000070ba .LASF4032
C:\Users\CYMR90~1\AppData\Local\Temp\cchoDgth.s:32833  .debug_str:0000000000028c46 .LASF4033
C:\Users\CYMR90~1\AppData\Local\Temp\cchoDgth.s:25354  .debug_str:000000000000adba .LASF4034
C:\Users\CYMR90~1\AppData\Local\Temp\cchoDgth.s:24030  .debug_str:0000000000005881 .LASF4035
C:\Users\CYMR90~1\AppData\Local\Temp\cchoDgth.s:24792  .debug_str:00000000000089ee .LASF4036
C:\Users\CYMR90~1\AppData\Local\Temp\cchoDgth.s:25848  .debug_str:000000000000ce7b .LASF4037
C:\Users\CYMR90~1\AppData\Local\Temp\cchoDgth.s:29781  .debug_str:000000000001ca23 .LASF4038
C:\Users\CYMR90~1\AppData\Local\Temp\cchoDgth.s:33805  .debug_str:000000000002c809 .LASF4039
C:\Users\CYMR90~1\AppData\Local\Temp\cchoDgth.s:26412  .debug_str:000000000000f1ea .LASF4040
C:\Users\CYMR90~1\AppData\Local\Temp\cchoDgth.s:30585  .debug_str:000000000001fd71 .LASF4041
C:\Users\CYMR90~1\AppData\Local\Temp\cchoDgth.s:31229  .debug_str:000000000002251c .LASF4042
C:\Users\CYMR90~1\AppData\Local\Temp\cchoDgth.s:33627  .debug_str:000000000002bc3d .LASF4043
C:\Users\CYMR90~1\AppData\Local\Temp\cchoDgth.s:29265  .debug_str:000000000001a9f8 .LASF4044
C:\Users\CYMR90~1\AppData\Local\Temp\cchoDgth.s:31961  .debug_str:000000000002522c .LASF4045
C:\Users\CYMR90~1\AppData\Local\Temp\cchoDgth.s:29235  .debug_str:000000000001a89f .LASF4046
C:\Users\CYMR90~1\AppData\Local\Temp\cchoDgth.s:29709  .debug_str:000000000001c61d .LASF4047
C:\Users\CYMR90~1\AppData\Local\Temp\cchoDgth.s:22758  .debug_str:00000000000007c9 .LASF4048
C:\Users\CYMR90~1\AppData\Local\Temp\cchoDgth.s:25776  .debug_str:000000000000c9be .LASF4049
C:\Users\CYMR90~1\AppData\Local\Temp\cchoDgth.s:23718  .debug_str:0000000000004465 .LASF4050
C:\Users\CYMR90~1\AppData\Local\Temp\cchoDgth.s:24100  .debug_str:0000000000005d30 .LASF4051
C:\Users\CYMR90~1\AppData\Local\Temp\cchoDgth.s:25224  .debug_str:000000000000a524 .LASF4052
C:\Users\CYMR90~1\AppData\Local\Temp\cchoDgth.s:29181  .debug_str:000000000001a3d7 .LASF4053
C:\Users\CYMR90~1\AppData\Local\Temp\cchoDgth.s:33185  .debug_str:000000000002a206 .LASF4054
C:\Users\CYMR90~1\AppData\Local\Temp\cchoDgth.s:25708  .debug_str:000000000000c5bc .LASF4055
C:\Users\CYMR90~1\AppData\Local\Temp\cchoDgth.s:29649  .debug_str:000000000001c272 .LASF4056
C:\Users\CYMR90~1\AppData\Local\Temp\cchoDgth.s:29897  .debug_str:000000000001d2b5 .LASF4057
C:\Users\CYMR90~1\AppData\Local\Temp\cchoDgth.s:29327  .debug_str:000000000001ae62 .LASF4058
C:\Users\CYMR90~1\AppData\Local\Temp\cchoDgth.s:30193  .debug_str:000000000001e62d .LASF4059
C:\Users\CYMR90~1\AppData\Local\Temp\cchoDgth.s:33873  .debug_str:000000000002ccc7 .LASF4060
C:\Users\CYMR90~1\AppData\Local\Temp\cchoDgth.s:25310  .debug_str:000000000000ab07 .LASF4061
C:\Users\CYMR90~1\AppData\Local\Temp\cchoDgth.s:23758  .debug_str:0000000000004720 .LASF4062
C:\Users\CYMR90~1\AppData\Local\Temp\cchoDgth.s:27820  .debug_str:0000000000014b79 .LASF4063
C:\Users\CYMR90~1\AppData\Local\Temp\cchoDgth.s:31831  .debug_str:000000000002498e .LASF4064
C:\Users\CYMR90~1\AppData\Local\Temp\cchoDgth.s:24342  .debug_str:0000000000006beb .LASF4065
C:\Users\CYMR90~1\AppData\Local\Temp\cchoDgth.s:22864  .debug_str:0000000000000e8d .LASF4066
C:\Users\CYMR90~1\AppData\Local\Temp\cchoDgth.s:33711  .debug_str:000000000002c1bc .LASF4067
C:\Users\CYMR90~1\AppData\Local\Temp\cchoDgth.s:24326  .debug_str:0000000000006ae0 .LASF4068
C:\Users\CYMR90~1\AppData\Local\Temp\cchoDgth.s:28793  .debug_str:0000000000018a1c .LASF4069
C:\Users\CYMR90~1\AppData\Local\Temp\cchoDgth.s:32899  .debug_str:00000000000290cf .LASF4070
C:\Users\CYMR90~1\AppData\Local\Temp\cchoDgth.s:25312  .debug_str:000000000000ab2d .LASF4071
C:\Users\CYMR90~1\AppData\Local\Temp\cchoDgth.s:27762  .debug_str:000000000001476d .LASF4072
C:\Users\CYMR90~1\AppData\Local\Temp\cchoDgth.s:31763  .debug_str:000000000002449b .LASF4073
C:\Users\CYMR90~1\AppData\Local\Temp\cchoDgth.s:32527  .debug_str:00000000000277a6 .LASF4074
C:\Users\CYMR90~1\AppData\Local\Temp\cchoDgth.s:29993  .debug_str:000000000001d910 .LASF4075
C:\Users\CYMR90~1\AppData\Local\Temp\cchoDgth.s:30737  .debug_str:00000000000206d7 .LASF4076
C:\Users\CYMR90~1\AppData\Local\Temp\cchoDgth.s:26808  .debug_str:0000000000010a4d .LASF4077
C:\Users\CYMR90~1\AppData\Local\Temp\cchoDgth.s:30441  .debug_str:000000000001f4dc .LASF4078
C:\Users\CYMR90~1\AppData\Local\Temp\cchoDgth.s:32823  .debug_str:0000000000028b9a .LASF4079
C:\Users\CYMR90~1\AppData\Local\Temp\cchoDgth.s:24670  .debug_str:00000000000081c0 .LASF4080
C:\Users\CYMR90~1\AppData\Local\Temp\cchoDgth.s:32119  .debug_str:0000000000025db1 .LASF4081
C:\Users\CYMR90~1\AppData\Local\Temp\cchoDgth.s:32309  .debug_str:0000000000026a3b .LASF4082
C:\Users\CYMR90~1\AppData\Local\Temp\cchoDgth.s:25012  .debug_str:0000000000009801 .LASF4083
C:\Users\CYMR90~1\AppData\Local\Temp\cchoDgth.s:28154  .debug_str:0000000000016017 .LASF4084
C:\Users\CYMR90~1\AppData\Local\Temp\cchoDgth.s:32177  .debug_str:0000000000026231 .LASF4085
C:\Users\CYMR90~1\AppData\Local\Temp\cchoDgth.s:27238  .debug_str:00000000000125cc .LASF4086
C:\Users\CYMR90~1\AppData\Local\Temp\cchoDgth.s:27284  .debug_str:00000000000128c2 .LASF4087
C:\Users\CYMR90~1\AppData\Local\Temp\cchoDgth.s:25876  .debug_str:000000000000cfee .LASF4088
C:\Users\CYMR90~1\AppData\Local\Temp\cchoDgth.s:25282  .debug_str:000000000000a846 .LASF4089
C:\Users\CYMR90~1\AppData\Local\Temp\cchoDgth.s:31915  .debug_str:0000000000024ed4 .LASF4090
C:\Users\CYMR90~1\AppData\Local\Temp\cchoDgth.s:26292  .debug_str:000000000000eae0 .LASF4091
C:\Users\CYMR90~1\AppData\Local\Temp\cchoDgth.s:28122  .debug_str:0000000000015ddc .LASF4092
C:\Users\CYMR90~1\AppData\Local\Temp\cchoDgth.s:30471  .debug_str:000000000001f6ba .LASF4093
C:\Users\CYMR90~1\AppData\Local\Temp\cchoDgth.s:32115  .debug_str:0000000000025d5f .LASF4094
C:\Users\CYMR90~1\AppData\Local\Temp\cchoDgth.s:31895  .debug_str:0000000000024d90 .LASF4095
C:\Users\CYMR90~1\AppData\Local\Temp\cchoDgth.s:23688  .debug_str:00000000000042b1 .LASF4096
C:\Users\CYMR90~1\AppData\Local\Temp\cchoDgth.s:29425  .debug_str:000000000001b4de .LASF4097
C:\Users\CYMR90~1\AppData\Local\Temp\cchoDgth.s:26896  .debug_str:0000000000010fb6 .LASF4098
C:\Users\CYMR90~1\AppData\Local\Temp\cchoDgth.s:27620  .debug_str:0000000000013eda .LASF4099
C:\Users\CYMR90~1\AppData\Local\Temp\cchoDgth.s:25056  .debug_str:0000000000009ae0 .LASF4100
C:\Users\CYMR90~1\AppData\Local\Temp\cchoDgth.s:32509  .debug_str:000000000002768d .LASF4101
C:\Users\CYMR90~1\AppData\Local\Temp\cchoDgth.s:28026  .debug_str:0000000000015829 .LASF4102
C:\Users\CYMR90~1\AppData\Local\Temp\cchoDgth.s:33815  .debug_str:000000000002c8d6 .LASF4103
C:\Users\CYMR90~1\AppData\Local\Temp\cchoDgth.s:24564  .debug_str:0000000000007a28 .LASF4104
C:\Users\CYMR90~1\AppData\Local\Temp\cchoDgth.s:32059  .debug_str:000000000002590f .LASF4105
C:\Users\CYMR90~1\AppData\Local\Temp\cchoDgth.s:34055  .debug_str:000000000002d839 .LASF4106
C:\Users\CYMR90~1\AppData\Local\Temp\cchoDgth.s:23856  .debug_str:0000000000004e12 .LASF4107
C:\Users\CYMR90~1\AppData\Local\Temp\cchoDgth.s:29109  .debug_str:0000000000019fc0 .LASF4108
C:\Users\CYMR90~1\AppData\Local\Temp\cchoDgth.s:24094  .debug_str:0000000000005c9c .LASF4109
C:\Users\CYMR90~1\AppData\Local\Temp\cchoDgth.s:25636  .debug_str:000000000000c0f3 .LASF4110
C:\Users\CYMR90~1\AppData\Local\Temp\cchoDgth.s:26962  .debug_str:0000000000011369 .LASF4111
C:\Users\CYMR90~1\AppData\Local\Temp\cchoDgth.s:25122  .debug_str:0000000000009ec8 .LASF4112
C:\Users\CYMR90~1\AppData\Local\Temp\cchoDgth.s:32271  .debug_str:0000000000026819 .LASF4113
C:\Users\CYMR90~1\AppData\Local\Temp\cchoDgth.s:28547  .debug_str:0000000000017b14 .LASF4114
C:\Users\CYMR90~1\AppData\Local\Temp\cchoDgth.s:32561  .debug_str:00000000000279c1 .LASF4115
C:\Users\CYMR90~1\AppData\Local\Temp\cchoDgth.s:29771  .debug_str:000000000001c96c .LASF4116
C:\Users\CYMR90~1\AppData\Local\Temp\cchoDgth.s:29049  .debug_str:0000000000019b90 .LASF4117
C:\Users\CYMR90~1\AppData\Local\Temp\cchoDgth.s:33057  .debug_str:00000000000299e4 .LASF4118
C:\Users\CYMR90~1\AppData\Local\Temp\cchoDgth.s:23066  .debug_str:0000000000001b37 .LASF4119
C:\Users\CYMR90~1\AppData\Local\Temp\cchoDgth.s:25444  .debug_str:000000000000b434 .LASF4120
C:\Users\CYMR90~1\AppData\Local\Temp\cchoDgth.s:26586  .debug_str:000000000000fcde .LASF4121
C:\Users\CYMR90~1\AppData\Local\Temp\cchoDgth.s:24430  .debug_str:0000000000007142 .LASF4122
C:\Users\CYMR90~1\AppData\Local\Temp\cchoDgth.s:28485  .debug_str:000000000001773c .LASF4123
C:\Users\CYMR90~1\AppData\Local\Temp\cchoDgth.s:32501  .debug_str:0000000000027615 .LASF4124
C:\Users\CYMR90~1\AppData\Local\Temp\cchoDgth.s:30971  .debug_str:00000000000214e0 .LASF4125
C:\Users\CYMR90~1\AppData\Local\Temp\cchoDgth.s:28981  .debug_str:0000000000019714 .LASF4126
C:\Users\CYMR90~1\AppData\Local\Temp\cchoDgth.s:24250  .debug_str:0000000000006641 .LASF4127
C:\Users\CYMR90~1\AppData\Local\Temp\cchoDgth.s:25508  .debug_str:000000000000b834 .LASF4128
C:\Users\CYMR90~1\AppData\Local\Temp\cchoDgth.s:28973  .debug_str:000000000001969e .LASF4129
C:\Users\CYMR90~1\AppData\Local\Temp\cchoDgth.s:27134  .debug_str:0000000000011f01 .LASF4130
C:\Users\CYMR90~1\AppData\Local\Temp\cchoDgth.s:24170  .debug_str:0000000000006114 .LASF4131
C:\Users\CYMR90~1\AppData\Local\Temp\cchoDgth.s:28421  .debug_str:000000000001736c .LASF4132
C:\Users\CYMR90~1\AppData\Local\Temp\cchoDgth.s:32429  .debug_str:00000000000271c4 .LASF4133
C:\Users\CYMR90~1\AppData\Local\Temp\cchoDgth.s:24946  .debug_str:00000000000093e0 .LASF4134
C:\Users\CYMR90~1\AppData\Local\Temp\cchoDgth.s:23032  .debug_str:0000000000001932 .LASF4135
C:\Users\CYMR90~1\AppData\Local\Temp\cchoDgth.s:29087  .debug_str:0000000000019e62 .LASF4136
C:\Users\CYMR90~1\AppData\Local\Temp\cchoDgth.s:30131  .debug_str:000000000001e238 .LASF4137
C:\Users\CYMR90~1\AppData\Local\Temp\cchoDgth.s:29415  .debug_str:000000000001b445 .LASF4138
C:\Users\CYMR90~1\AppData\Local\Temp\cchoDgth.s:33395  .debug_str:000000000002ae7e .LASF4139
C:\Users\CYMR90~1\AppData\Local\Temp\cchoDgth.s:26010  .debug_str:000000000000d94d .LASF4140
C:\Users\CYMR90~1\AppData\Local\Temp\cchoDgth.s:23036  .debug_str:000000000000197e .LASF4141
C:\Users\CYMR90~1\AppData\Local\Temp\cchoDgth.s:32367  .debug_str:0000000000026de0 .LASF4142
C:\Users\CYMR90~1\AppData\Local\Temp\cchoDgth.s:26656  .debug_str:000000000001015c .LASF4143
C:\Users\CYMR90~1\AppData\Local\Temp\cchoDgth.s:29155  .debug_str:000000000001a268 .LASF4144
C:\Users\CYMR90~1\AppData\Local\Temp\cchoDgth.s:31367  .debug_str:0000000000022d05 .LASF4145
C:\Users\CYMR90~1\AppData\Local\Temp\cchoDgth.s:33759  .debug_str:000000000002c4bc .LASF4146
C:\Users\CYMR90~1\AppData\Local\Temp\cchoDgth.s:29355  .debug_str:000000000001b02c .LASF4147
C:\Users\CYMR90~1\AppData\Local\Temp\cchoDgth.s:33333  .debug_str:000000000002aa96 .LASF4148
C:\Users\CYMR90~1\AppData\Local\Temp\cchoDgth.s:30209  .debug_str:000000000001e702 .LASF4149
C:\Users\CYMR90~1\AppData\Local\Temp\cchoDgth.s:26602  .debug_str:000000000000fdb7 .LASF4150
C:\Users\CYMR90~1\AppData\Local\Temp\cchoDgth.s:26948  .debug_str:0000000000011289 .LASF4151
C:\Users\CYMR90~1\AppData\Local\Temp\cchoDgth.s:24820  .debug_str:0000000000008bf0 .LASF4152
C:\Users\CYMR90~1\AppData\Local\Temp\cchoDgth.s:28765  .debug_str:0000000000018886 .LASF4153
C:\Users\CYMR90~1\AppData\Local\Temp\cchoDgth.s:29927  .debug_str:000000000001d502 .LASF4154
C:\Users\CYMR90~1\AppData\Local\Temp\cchoDgth.s:26926  .debug_str:0000000000011131 .LASF4155
C:\Users\CYMR90~1\AppData\Local\Temp\cchoDgth.s:29279  .debug_str:000000000001aafa .LASF4156
C:\Users\CYMR90~1\AppData\Local\Temp\cchoDgth.s:27648  .debug_str:0000000000014082 .LASF4157
C:\Users\CYMR90~1\AppData\Local\Temp\cchoDgth.s:30253  .debug_str:000000000001e9ae .LASF4158
C:\Users\CYMR90~1\AppData\Local\Temp\cchoDgth.s:31039  .debug_str:0000000000021904 .LASF4159
C:\Users\CYMR90~1\AppData\Local\Temp\cchoDgth.s:27074  .debug_str:0000000000011aed .LASF4160
C:\Users\CYMR90~1\AppData\Local\Temp\cchoDgth.s:25352  .debug_str:000000000000ad94 .LASF4161
C:\Users\CYMR90~1\AppData\Local\Temp\cchoDgth.s:23464  .debug_str:00000000000033b1 .LASF4162
C:\Users\CYMR90~1\AppData\Local\Temp\cchoDgth.s:27442  .debug_str:0000000000013337 .LASF4163
C:\Users\CYMR90~1\AppData\Local\Temp\cchoDgth.s:31073  .debug_str:0000000000021bab .LASF4164
C:\Users\CYMR90~1\AppData\Local\Temp\cchoDgth.s:23932  .debug_str:00000000000052a9 .LASF4165
C:\Users\CYMR90~1\AppData\Local\Temp\cchoDgth.s:27898  .debug_str:0000000000015053 .LASF4166
C:\Users\CYMR90~1\AppData\Local\Temp\cchoDgth.s:31905  .debug_str:0000000000024e38 .LASF4167
C:\Users\CYMR90~1\AppData\Local\Temp\cchoDgth.s:24422  .debug_str:00000000000070e0 .LASF4168
C:\Users\CYMR90~1\AppData\Local\Temp\cchoDgth.s:26074  .debug_str:000000000000dd43 .LASF4169
C:\Users\CYMR90~1\AppData\Local\Temp\cchoDgth.s:32493  .debug_str:000000000002757a .LASF4170
C:\Users\CYMR90~1\AppData\Local\Temp\cchoDgth.s:30663  .debug_str:0000000000020248 .LASF4171
C:\Users\CYMR90~1\AppData\Local\Temp\cchoDgth.s:27384  .debug_str:0000000000012f88 .LASF4172
C:\Users\CYMR90~1\AppData\Local\Temp\cchoDgth.s:31357  .debug_str:0000000000022c53 .LASF4173
C:\Users\CYMR90~1\AppData\Local\Temp\cchoDgth.s:27224  .debug_str:00000000000124d5 .LASF4174
C:\Users\CYMR90~1\AppData\Local\Temp\cchoDgth.s:27942  .debug_str:000000000001534f .LASF4175
C:\Users\CYMR90~1\AppData\Local\Temp\cchoDgth.s:32353  .debug_str:0000000000026cea .LASF4176
C:\Users\CYMR90~1\AppData\Local\Temp\cchoDgth.s:32651  .debug_str:0000000000027f9d .LASF4177
C:\Users\CYMR90~1\AppData\Local\Temp\cchoDgth.s:28312  .debug_str:0000000000016a30 .LASF4178
C:\Users\CYMR90~1\AppData\Local\Temp\cchoDgth.s:26798  .debug_str:00000000000109c3 .LASF4179
C:\Users\CYMR90~1\AppData\Local\Temp\cchoDgth.s:24938  .debug_str:0000000000009371 .LASF4180
C:\Users\CYMR90~1\AppData\Local\Temp\cchoDgth.s:33445  .debug_str:000000000002b127 .LASF4181
C:\Users\CYMR90~1\AppData\Local\Temp\cchoDgth.s:31283  .debug_str:0000000000022848 .LASF4182
C:\Users\CYMR90~1\AppData\Local\Temp\cchoDgth.s:28196  .debug_str:000000000001632a .LASF4183
C:\Users\CYMR90~1\AppData\Local\Temp\cchoDgth.s:31471  .debug_str:00000000000233ba .LASF4184
C:\Users\CYMR90~1\AppData\Local\Temp\cchoDgth.s:26510  .debug_str:000000000000f7ed .LASF4185
C:\Users\CYMR90~1\AppData\Local\Temp\cchoDgth.s:24288  .debug_str:000000000000684f .LASF4186
C:\Users\CYMR90~1\AppData\Local\Temp\cchoDgth.s:28240  .debug_str:00000000000165bd .LASF4187
C:\Users\CYMR90~1\AppData\Local\Temp\cchoDgth.s:32357  .debug_str:0000000000026d41 .LASF4188
C:\Users\CYMR90~1\AppData\Local\Temp\cchoDgth.s:24878  .debug_str:000000000000902e .LASF4189
C:\Users\CYMR90~1\AppData\Local\Temp\cchoDgth.s:28831  .debug_str:0000000000018c73 .LASF4190
C:\Users\CYMR90~1\AppData\Local\Temp\cchoDgth.s:25906  .debug_str:000000000000d211 .LASF4191
C:\Users\CYMR90~1\AppData\Local\Temp\cchoDgth.s:23734  .debug_str:0000000000004575 .LASF4192
C:\Users\CYMR90~1\AppData\Local\Temp\cchoDgth.s:27706  .debug_str:0000000000014454 .LASF4193
C:\Users\CYMR90~1\AppData\Local\Temp\cchoDgth.s:25756  .debug_str:000000000000c89b .LASF4194
C:\Users\CYMR90~1\AppData\Local\Temp\cchoDgth.s:24222  .debug_str:0000000000006480 .LASF4195
C:\Users\CYMR90~1\AppData\Local\Temp\cchoDgth.s:23344  .debug_str:0000000000002c3e .LASF4196
C:\Users\CYMR90~1\AppData\Local\Temp\cchoDgth.s:33931  .debug_str:000000000002d06e .LASF4197
C:\Users\CYMR90~1\AppData\Local\Temp\cchoDgth.s:24812  .debug_str:0000000000008b5d .LASF4198
C:\Users\CYMR90~1\AppData\Local\Temp\cchoDgth.s:28759  .debug_str:0000000000018818 .LASF4199
C:\Users\CYMR90~1\AppData\Local\Temp\cchoDgth.s:23106  .debug_str:0000000000001d99 .LASF4200
C:\Users\CYMR90~1\AppData\Local\Temp\cchoDgth.s:29777  .debug_str:000000000001c9c3 .LASF4201
C:\Users\CYMR90~1\AppData\Local\Temp\cchoDgth.s:27644  .debug_str:000000000001403f .LASF4202
C:\Users\CYMR90~1\AppData\Local\Temp\cchoDgth.s:31649  .debug_str:0000000000023e20 .LASF4203
C:\Users\CYMR90~1\AppData\Local\Temp\cchoDgth.s:28036  .debug_str:00000000000158db .LASF4204
C:\Users\CYMR90~1\AppData\Local\Temp\cchoDgth.s:32825  .debug_str:0000000000028bc0 .LASF4205
C:\Users\CYMR90~1\AppData\Local\Temp\cchoDgth.s:26026  .debug_str:000000000000da2f .LASF4206
C:\Users\CYMR90~1\AppData\Local\Temp\cchoDgth.s:24742  .debug_str:00000000000086f7 .LASF4207
C:\Users\CYMR90~1\AppData\Local\Temp\cchoDgth.s:28687  .debug_str:0000000000018383 .LASF4208
C:\Users\CYMR90~1\AppData\Local\Temp\cchoDgth.s:32709  .debug_str:0000000000028377 .LASF4209
C:\Users\CYMR90~1\AppData\Local\Temp\cchoDgth.s:25228  .debug_str:000000000000a562 .LASF4210
C:\Users\CYMR90~1\AppData\Local\Temp\cchoDgth.s:33741  .debug_str:000000000002c376 .LASF4211
C:\Users\CYMR90~1\AppData\Local\Temp\cchoDgth.s:24528  .debug_str:00000000000077cc .LASF4212
C:\Users\CYMR90~1\AppData\Local\Temp\cchoDgth.s:24090  .debug_str:0000000000005c44 .LASF4213
C:\Users\CYMR90~1\AppData\Local\Temp\cchoDgth.s:27204  .debug_str:00000000000123c4 .LASF4214
C:\Users\CYMR90~1\AppData\Local\Temp\cchoDgth.s:28084  .debug_str:0000000000015b98 .LASF4215
C:\Users\CYMR90~1\AppData\Local\Temp\cchoDgth.s:24682  .debug_str:0000000000008322 .LASF4216
C:\Users\CYMR90~1\AppData\Local\Temp\cchoDgth.s:28280  .debug_str:000000000001685f .LASF4217
C:\Users\CYMR90~1\AppData\Local\Temp\cchoDgth.s:25216  .debug_str:000000000000a49d .LASF4218
C:\Users\CYMR90~1\AppData\Local\Temp\cchoDgth.s:23326  .debug_str:0000000000002ae6 .LASF4219
C:\Users\CYMR90~1\AppData\Local\Temp\cchoDgth.s:30683  .debug_str:00000000000203db .LASF4220
C:\Users\CYMR90~1\AppData\Local\Temp\cchoDgth.s:25428  .debug_str:000000000000b31f .LASF4221
C:\Users\CYMR90~1\AppData\Local\Temp\cchoDgth.s:24024  .debug_str:0000000000005835 .LASF4222
C:\Users\CYMR90~1\AppData\Local\Temp\cchoDgth.s:24636  .debug_str:0000000000007ee2 .LASF4223
C:\Users\CYMR90~1\AppData\Local\Temp\cchoDgth.s:33145  .debug_str:0000000000029fd7 .LASF4224
C:\Users\CYMR90~1\AppData\Local\Temp\cchoDgth.s:24608  .debug_str:0000000000007d49 .LASF4225
C:\Users\CYMR90~1\AppData\Local\Temp\cchoDgth.s:24186  .debug_str:0000000000006229 .LASF4226
C:\Users\CYMR90~1\AppData\Local\Temp\cchoDgth.s:24954  .debug_str:0000000000009466 .LASF4227
C:\Users\CYMR90~1\AppData\Local\Temp\cchoDgth.s:31725  .debug_str:0000000000024297 .LASF4228
C:\Users\CYMR90~1\AppData\Local\Temp\cchoDgth.s:23786  .debug_str:0000000000004941 .LASF4229
C:\Users\CYMR90~1\AppData\Local\Temp\cchoDgth.s:24378  .debug_str:0000000000006e05 .LASF4230
C:\Users\CYMR90~1\AppData\Local\Temp\cchoDgth.s:33609  .debug_str:000000000002bb12 .LASF4231
C:\Users\CYMR90~1\AppData\Local\Temp\cchoDgth.s:23962  .debug_str:0000000000005493 .LASF4232
C:\Users\CYMR90~1\AppData\Local\Temp\cchoDgth.s:25236  .debug_str:000000000000a5e0 .LASF4233
C:\Users\CYMR90~1\AppData\Local\Temp\cchoDgth.s:24540  .debug_str:000000000000789c .LASF4234
C:\Users\CYMR90~1\AppData\Local\Temp\cchoDgth.s:29933  .debug_str:000000000001d567 .LASF4235
C:\Users\CYMR90~1\AppData\Local\Temp\cchoDgth.s:32323  .debug_str:0000000000026b26 .LASF4236
C:\Users\CYMR90~1\AppData\Local\Temp\cchoDgth.s:29271  .debug_str:000000000001aa6a .LASF4237
C:\Users\CYMR90~1\AppData\Local\Temp\cchoDgth.s:25600  .debug_str:000000000000be08 .LASF4238
C:\Users\CYMR90~1\AppData\Local\Temp\cchoDgth.s:33091  .debug_str:0000000000029c60 .LASF4239
C:\Users\CYMR90~1\AppData\Local\Temp\cchoDgth.s:25360  .debug_str:000000000000ae32 .LASF4240
C:\Users\CYMR90~1\AppData\Local\Temp\cchoDgth.s:27186  .debug_str:000000000001226f .LASF4241
C:\Users\CYMR90~1\AppData\Local\Temp\cchoDgth.s:31951  .debug_str:0000000000025176 .LASF4242
C:\Users\CYMR90~1\AppData\Local\Temp\cchoDgth.s:31129  .debug_str:0000000000021f1f .LASF4243
C:\Users\CYMR90~1\AppData\Local\Temp\cchoDgth.s:28437  .debug_str:0000000000017454 .LASF4244
C:\Users\CYMR90~1\AppData\Local\Temp\cchoDgth.s:32445  .debug_str:00000000000272cf .LASF4245
C:\Users\CYMR90~1\AppData\Local\Temp\cchoDgth.s:28571  .debug_str:0000000000017cba .LASF4246
C:\Users\CYMR90~1\AppData\Local\Temp\cchoDgth.s:29357  .debug_str:000000000001b052 .LASF4247
C:\Users\CYMR90~1\AppData\Local\Temp\cchoDgth.s:32407  .debug_str:0000000000027086 .LASF4248
C:\Users\CYMR90~1\AppData\Local\Temp\cchoDgth.s:25544  .debug_str:000000000000ba88 .LASF4249
C:\Users\CYMR90~1\AppData\Local\Temp\cchoDgth.s:29499  .debug_str:000000000001b992 .LASF4250
C:\Users\CYMR90~1\AppData\Local\Temp\cchoDgth.s:31581  .debug_str:00000000000239dd .LASF4251
C:\Users\CYMR90~1\AppData\Local\Temp\cchoDgth.s:24398  .debug_str:0000000000006f8a .LASF4252
C:\Users\CYMR90~1\AppData\Local\Temp\cchoDgth.s:28360  .debug_str:0000000000016e17 .LASF4253
C:\Users\CYMR90~1\AppData\Local\Temp\cchoDgth.s:32381  .debug_str:0000000000026ead .LASF4254
C:\Users\CYMR90~1\AppData\Local\Temp\cchoDgth.s:23722  .debug_str:00000000000044b1 .LASF4255
C:\Users\CYMR90~1\AppData\Local\Temp\cchoDgth.s:28877  .debug_str:000000000001901f .LASF4256
C:\Users\CYMR90~1\AppData\Local\Temp\cchoDgth.s:27506  .debug_str:000000000001380a .LASF4257
C:\Users\CYMR90~1\AppData\Local\Temp\cchoDgth.s:26856  .debug_str:0000000000010d07 .LASF4258
C:\Users\CYMR90~1\AppData\Local\Temp\cchoDgth.s:29445  .debug_str:000000000001b648 .LASF4259
C:\Users\CYMR90~1\AppData\Local\Temp\cchoDgth.s:27866  .debug_str:0000000000014e1c .LASF4260
C:\Users\CYMR90~1\AppData\Local\Temp\cchoDgth.s:22852  .debug_str:0000000000000db2 .LASF4261
C:\Users\CYMR90~1\AppData\Local\Temp\cchoDgth.s:32345  .debug_str:0000000000026c52 .LASF4262
C:\Users\CYMR90~1\AppData\Local\Temp\cchoDgth.s:27038  .debug_str:000000000001180e .LASF4263
C:\Users\CYMR90~1\AppData\Local\Temp\cchoDgth.s:31015  .debug_str:000000000002179d .LASF4264
C:\Users\CYMR90~1\AppData\Local\Temp\cchoDgth.s:23546  .debug_str:000000000000393b .LASF4265
C:\Users\CYMR90~1\AppData\Local\Temp\cchoDgth.s:27526  .debug_str:000000000001395d .LASF4266
C:\Users\CYMR90~1\AppData\Local\Temp\cchoDgth.s:30911  .debug_str:000000000002116e .LASF4267
C:\Users\CYMR90~1\AppData\Local\Temp\cchoDgth.s:29749  .debug_str:000000000001c84a .LASF4268
C:\Users\CYMR90~1\AppData\Local\Temp\cchoDgth.s:28897  .debug_str:0000000000019174 .LASF4269
C:\Users\CYMR90~1\AppData\Local\Temp\cchoDgth.s:30483  .debug_str:000000000001f76e .LASF4270
C:\Users\CYMR90~1\AppData\Local\Temp\cchoDgth.s:23720  .debug_str:000000000000448b .LASF4271
C:\Users\CYMR90~1\AppData\Local\Temp\cchoDgth.s:23654  .debug_str:0000000000004031 .LASF4272
C:\Users\CYMR90~1\AppData\Local\Temp\cchoDgth.s:30941  .debug_str:0000000000021353 .LASF4273
C:\Users\CYMR90~1\AppData\Local\Temp\cchoDgth.s:28859  .debug_str:0000000000018e39 .LASF4274
C:\Users\CYMR90~1\AppData\Local\Temp\cchoDgth.s:27558  .debug_str:0000000000013b2a .LASF4275
C:\Users\CYMR90~1\AppData\Local\Temp\cchoDgth.s:31465  .debug_str:0000000000023358 .LASF4276
C:\Users\CYMR90~1\AppData\Local\Temp\cchoDgth.s:34033  .debug_str:000000000002d6dc .LASF4277
C:\Users\CYMR90~1\AppData\Local\Temp\cchoDgth.s:25332  .debug_str:000000000000ac41 .LASF4278
C:\Users\CYMR90~1\AppData\Local\Temp\cchoDgth.s:26008  .debug_str:000000000000d940 .LASF4279
C:\Users\CYMR90~1\AppData\Local\Temp\cchoDgth.s:31603  .debug_str:0000000000023b17 .LASF4280
C:\Users\CYMR90~1\AppData\Local\Temp\cchoDgth.s:30107  .debug_str:000000000001e02d .LASF4281
C:\Users\CYMR90~1\AppData\Local\Temp\cchoDgth.s:22714  .debug_str:0000000000000526 .LASF4282
C:\Users\CYMR90~1\AppData\Local\Temp\cchoDgth.s:23776  .debug_str:0000000000004858 .LASF4283
C:\Users\CYMR90~1\AppData\Local\Temp\cchoDgth.s:26188  .debug_str:000000000000e43b .LASF4284
C:\Users\CYMR90~1\AppData\Local\Temp\cchoDgth.s:24348  .debug_str:0000000000006c45 .LASF4285
C:\Users\CYMR90~1\AppData\Local\Temp\cchoDgth.s:27580  .debug_str:0000000000013c6b .LASF4286
C:\Users\CYMR90~1\AppData\Local\Temp\cchoDgth.s:27202  .debug_str:000000000001239d .LASF4287
C:\Users\CYMR90~1\AppData\Local\Temp\cchoDgth.s:23406  .debug_str:0000000000002ff5 .LASF4288
C:\Users\CYMR90~1\AppData\Local\Temp\cchoDgth.s:23986  .debug_str:00000000000055f6 .LASF4289
C:\Users\CYMR90~1\AppData\Local\Temp\cchoDgth.s:23498  .debug_str:0000000000003605 .LASF4290
C:\Users\CYMR90~1\AppData\Local\Temp\cchoDgth.s:22674  .debug_str:000000000000029e .LASF4291
C:\Users\CYMR90~1\AppData\Local\Temp\cchoDgth.s:24948  .debug_str:0000000000009406 .LASF4292
C:\Users\CYMR90~1\AppData\Local\Temp\cchoDgth.s:28334  .debug_str:0000000000016bfb .LASF4293
C:\Users\CYMR90~1\AppData\Local\Temp\cchoDgth.s:23396  .debug_str:0000000000002f5d .LASF4294
C:\Users\CYMR90~1\AppData\Local\Temp\cchoDgth.s:24756  .debug_str:00000000000087e6 .LASF4295
C:\Users\CYMR90~1\AppData\Local\Temp\cchoDgth.s:28200  .debug_str:000000000001636b .LASF4296
C:\Users\CYMR90~1\AppData\Local\Temp\cchoDgth.s:28871  .debug_str:0000000000018f92 .LASF4297
C:\Users\CYMR90~1\AppData\Local\Temp\cchoDgth.s:31613  .debug_str:0000000000023bcf .LASF4298
C:\Users\CYMR90~1\AppData\Local\Temp\cchoDgth.s:31389  .debug_str:0000000000022e77 .LASF4299
C:\Users\CYMR90~1\AppData\Local\Temp\cchoDgth.s:27404  .debug_str:00000000000130b8 .LASF4300
C:\Users\CYMR90~1\AppData\Local\Temp\cchoDgth.s:30029  .debug_str:000000000001db69 .LASF4301
C:\Users\CYMR90~1\AppData\Local\Temp\cchoDgth.s:33359  .debug_str:000000000002ac37 .LASF4302
C:\Users\CYMR90~1\AppData\Local\Temp\cchoDgth.s:30001  .debug_str:000000000001d98d .LASF4303
C:\Users\CYMR90~1\AppData\Local\Temp\cchoDgth.s:32227  .debug_str:0000000000026522 .LASF4304
C:\Users\CYMR90~1\AppData\Local\Temp\cchoDgth.s:26934  .debug_str:00000000000111b8 .LASF4305
C:\Users\CYMR90~1\AppData\Local\Temp\cchoDgth.s:30157  .debug_str:000000000001e409 .LASF4306
C:\Users\CYMR90~1\AppData\Local\Temp\cchoDgth.s:25126  .debug_str:0000000000009f05 .LASF4307
C:\Users\CYMR90~1\AppData\Local\Temp\cchoDgth.s:29411  .debug_str:000000000001b40e .LASF4308
C:\Users\CYMR90~1\AppData\Local\Temp\cchoDgth.s:29999  .debug_str:000000000001d968 .LASF4309
C:\Users\CYMR90~1\AppData\Local\Temp\cchoDgth.s:25520  .debug_str:000000000000b8d3 .LASF4310
C:\Users\CYMR90~1\AppData\Local\Temp\cchoDgth.s:28551  .debug_str:0000000000017b52 .LASF4311
C:\Users\CYMR90~1\AppData\Local\Temp\cchoDgth.s:29697  .debug_str:000000000001c557 .LASF4312
C:\Users\CYMR90~1\AppData\Local\Temp\cchoDgth.s:27334  .debug_str:0000000000012c40 .LASF4313
C:\Users\CYMR90~1\AppData\Local\Temp\cchoDgth.s:30891  .debug_str:0000000000021017 .LASF4314
C:\Users\CYMR90~1\AppData\Local\Temp\cchoDgth.s:32365  .debug_str:0000000000026dbb .LASF4315
C:\Users\CYMR90~1\AppData\Local\Temp\cchoDgth.s:23070  .debug_str:0000000000001b71 .LASF4316
C:\Users\CYMR90~1\AppData\Local\Temp\cchoDgth.s:28034  .debug_str:00000000000158b6 .LASF4317
C:\Users\CYMR90~1\AppData\Local\Temp\cchoDgth.s:27382  .debug_str:0000000000012f63 .LASF4318
C:\Users\CYMR90~1\AppData\Local\Temp\cchoDgth.s:33739  .debug_str:000000000002c35f .LASF4319
C:\Users\CYMR90~1\AppData\Local\Temp\cchoDgth.s:28999  .debug_str:0000000000019845 .LASF4320
C:\Users\CYMR90~1\AppData\Local\Temp\cchoDgth.s:28549  .debug_str:0000000000017b3a .LASF4321
C:\Users\CYMR90~1\AppData\Local\Temp\cchoDgth.s:30025  .debug_str:000000000001db48 .LASF4322
C:\Users\CYMR90~1\AppData\Local\Temp\cchoDgth.s:31733  .debug_str:0000000000024307 .LASF4323
C:\Users\CYMR90~1\AppData\Local\Temp\cchoDgth.s:24022  .debug_str:000000000000581c .LASF4324
C:\Users\CYMR90~1\AppData\Local\Temp\cchoDgth.s:22964  .debug_str:00000000000014d7 .LASF4325
C:\Users\CYMR90~1\AppData\Local\Temp\cchoDgth.s:30349  .debug_str:000000000001ef69 .LASF4326
C:\Users\CYMR90~1\AppData\Local\Temp\cchoDgth.s:31089  .debug_str:0000000000021c93 .LASF4327
C:\Users\CYMR90~1\AppData\Local\Temp\cchoDgth.s:33309  .debug_str:000000000002a96a .LASF4328
C:\Users\CYMR90~1\AppData\Local\Temp\cchoDgth.s:27056  .debug_str:000000000001192a .LASF4329
C:\Users\CYMR90~1\AppData\Local\Temp\cchoDgth.s:32963  .debug_str:0000000000029440 .LASF4330
C:\Users\CYMR90~1\AppData\Local\Temp\cchoDgth.s:27828  .debug_str:0000000000014be6 .LASF4331
C:\Users\CYMR90~1\AppData\Local\Temp\cchoDgth.s:25414  .debug_str:000000000000b25f .LASF4332
C:\Users\CYMR90~1\AppData\Local\Temp\cchoDgth.s:30847  .debug_str:0000000000020daf .LASF4333
C:\Users\CYMR90~1\AppData\Local\Temp\cchoDgth.s:33361  .debug_str:000000000002ac5b .LASF4334
C:\Users\CYMR90~1\AppData\Local\Temp\cchoDgth.s:28463  .debug_str:00000000000175da .LASF4335
C:\Users\CYMR90~1\AppData\Local\Temp\cchoDgth.s:31695  .debug_str:00000000000240ff .LASF4336
C:\Users\CYMR90~1\AppData\Local\Temp\cchoDgth.s:32537  .debug_str:0000000000027844 .LASF4337
C:\Users\CYMR90~1\AppData\Local\Temp\cchoDgth.s:27864  .debug_str:0000000000014e08 .LASF4338
C:\Users\CYMR90~1\AppData\Local\Temp\cchoDgth.s:30247  .debug_str:000000000001e941 .LASF4339
C:\Users\CYMR90~1\AppData\Local\Temp\cchoDgth.s:25832  .debug_str:000000000000cdb0 .LASF4340
C:\Users\CYMR90~1\AppData\Local\Temp\cchoDgth.s:27650  .debug_str:00000000000140a8 .LASF4341
C:\Users\CYMR90~1\AppData\Local\Temp\cchoDgth.s:30075  .debug_str:000000000001de59 .LASF4342
C:\Users\CYMR90~1\AppData\Local\Temp\cchoDgth.s:27414  .debug_str:000000000001315d .LASF4343
C:\Users\CYMR90~1\AppData\Local\Temp\cchoDgth.s:30927  .debug_str:000000000002128e .LASF4344
C:\Users\CYMR90~1\AppData\Local\Temp\cchoDgth.s:26384  .debug_str:000000000000f06c .LASF4345
C:\Users\CYMR90~1\AppData\Local\Temp\cchoDgth.s:30023  .debug_str:000000000001db33 .LASF4346
C:\Users\CYMR90~1\AppData\Local\Temp\cchoDgth.s:23376  .debug_str:0000000000002e3a .LASF4347
C:\Users\CYMR90~1\AppData\Local\Temp\cchoDgth.s:23158  .debug_str:00000000000020c7 .LASF4348
C:\Users\CYMR90~1\AppData\Local\Temp\cchoDgth.s:29737  .debug_str:000000000001c7ba .LASF4349
C:\Users\CYMR90~1\AppData\Local\Temp\cchoDgth.s:24764  .debug_str:0000000000008851 .LASF4350
C:\Users\CYMR90~1\AppData\Local\Temp\cchoDgth.s:33437  .debug_str:000000000002b0d7 .LASF4351
C:\Users\CYMR90~1\AppData\Local\Temp\cchoDgth.s:24620  .debug_str:0000000000007dff .LASF4352
C:\Users\CYMR90~1\AppData\Local\Temp\cchoDgth.s:29651  .debug_str:000000000001c298 .LASF4353
C:\Users\CYMR90~1\AppData\Local\Temp\cchoDgth.s:31943  .debug_str:000000000002510d .LASF4354
C:\Users\CYMR90~1\AppData\Local\Temp\cchoDgth.s:28777  .debug_str:0000000000018922 .LASF4355
C:\Users\CYMR90~1\AppData\Local\Temp\cchoDgth.s:26490  .debug_str:000000000000f6d0 .LASF4356
C:\Users\CYMR90~1\AppData\Local\Temp\cchoDgth.s:31539  .debug_str:0000000000023776 .LASF4357
C:\Users\CYMR90~1\AppData\Local\Temp\cchoDgth.s:33259  .debug_str:000000000002a67f .LASF4358
C:\Users\CYMR90~1\AppData\Local\Temp\cchoDgth.s:25682  .debug_str:000000000000c43a .LASF4359
C:\Users\CYMR90~1\AppData\Local\Temp\cchoDgth.s:24206  .debug_str:00000000000063a8 .LASF4360
C:\Users\CYMR90~1\AppData\Local\Temp\cchoDgth.s:23834  .debug_str:0000000000004ca7 .LASF4361
C:\Users\CYMR90~1\AppData\Local\Temp\cchoDgth.s:32297  .debug_str:00000000000269b3 .LASF4362
C:\Users\CYMR90~1\AppData\Local\Temp\cchoDgth.s:24594  .debug_str:0000000000007c05 .LASF4363
C:\Users\CYMR90~1\AppData\Local\Temp\cchoDgth.s:27498  .debug_str:0000000000013774 .LASF4364
C:\Users\CYMR90~1\AppData\Local\Temp\cchoDgth.s:24824  .debug_str:0000000000008c3f .LASF4365
C:\Users\CYMR90~1\AppData\Local\Temp\cchoDgth.s:28042  .debug_str:000000000001592c .LASF4366
C:\Users\CYMR90~1\AppData\Local\Temp\cchoDgth.s:32087  .debug_str:0000000000025b6a .LASF4367
C:\Users\CYMR90~1\AppData\Local\Temp\cchoDgth.s:23258  .debug_str:0000000000002647 .LASF4368
C:\Users\CYMR90~1\AppData\Local\Temp\cchoDgth.s:26428  .debug_str:000000000000f2ec .LASF4369
C:\Users\CYMR90~1\AppData\Local\Temp\cchoDgth.s:22870  .debug_str:0000000000000ef1 .LASF4370
C:\Users\CYMR90~1\AppData\Local\Temp\cchoDgth.s:26884  .debug_str:0000000000010f1e .LASF4371
C:\Users\CYMR90~1\AppData\Local\Temp\cchoDgth.s:25564  .debug_str:000000000000bbab .LASF4372
C:\Users\CYMR90~1\AppData\Local\Temp\cchoDgth.s:30613  .debug_str:000000000001ff5b .LASF4373
C:\Users\CYMR90~1\AppData\Local\Temp\cchoDgth.s:29567  .debug_str:000000000001bd7d .LASF4374
C:\Users\CYMR90~1\AppData\Local\Temp\cchoDgth.s:27304  .debug_str:0000000000012a21 .LASF4375
C:\Users\CYMR90~1\AppData\Local\Temp\cchoDgth.s:23252  .debug_str:00000000000025fa .LASF4376
C:\Users\CYMR90~1\AppData\Local\Temp\cchoDgth.s:29975  .debug_str:000000000001d7e2 .LASF4377
C:\Users\CYMR90~1\AppData\Local\Temp\cchoDgth.s:25808  .debug_str:000000000000cc59 .LASF4378
C:\Users\CYMR90~1\AppData\Local\Temp\cchoDgth.s:33417  .debug_str:000000000002afbe .LASF4379
C:\Users\CYMR90~1\AppData\Local\Temp\cchoDgth.s:29237  .debug_str:000000000001a8c5 .LASF4380
C:\Users\CYMR90~1\AppData\Local\Temp\cchoDgth.s:31505  .debug_str:00000000000235a4 .LASF4381
C:\Users\CYMR90~1\AppData\Local\Temp\cchoDgth.s:33099  .debug_str:0000000000029ce7 .LASF4382
C:\Users\CYMR90~1\AppData\Local\Temp\cchoDgth.s:28296  .debug_str:0000000000016950 .LASF4383
C:\Users\CYMR90~1\AppData\Local\Temp\cchoDgth.s:28969  .debug_str:000000000001966b .LASF4384
C:\Users\CYMR90~1\AppData\Local\Temp\cchoDgth.s:24020  .debug_str:0000000000005803 .LASF4385
C:\Users\CYMR90~1\AppData\Local\Temp\cchoDgth.s:27722  .debug_str:0000000000014552 .LASF4386
C:\Users\CYMR90~1\AppData\Local\Temp\cchoDgth.s:26664  .debug_str:00000000000101db .LASF4387
C:\Users\CYMR90~1\AppData\Local\Temp\cchoDgth.s:29879  .debug_str:000000000001d0fd .LASF4388
C:\Users\CYMR90~1\AppData\Local\Temp\cchoDgth.s:31207  .debug_str:00000000000223e5 .LASF4389
C:\Users\CYMR90~1\AppData\Local\Temp\cchoDgth.s:26038  .debug_str:000000000000daec .LASF4390
C:\Users\CYMR90~1\AppData\Local\Temp\cchoDgth.s:33579  .debug_str:000000000002b914 .LASF4391
C:\Users\CYMR90~1\AppData\Local\Temp\cchoDgth.s:25586  .debug_str:000000000000bd3a .LASF4392
C:\Users\CYMR90~1\AppData\Local\Temp\cchoDgth.s:30797  .debug_str:0000000000020abf .LASF4393
C:\Users\CYMR90~1\AppData\Local\Temp\cchoDgth.s:32869  .debug_str:0000000000028ed3 .LASF4394
C:\Users\CYMR90~1\AppData\Local\Temp\cchoDgth.s:31683  .debug_str:0000000000024032 .LASF4395
C:\Users\CYMR90~1\AppData\Local\Temp\cchoDgth.s:33551  .debug_str:000000000002b73b .LASF4396
C:\Users\CYMR90~1\AppData\Local\Temp\cchoDgth.s:31011  .debug_str:000000000002175a .LASF4397
C:\Users\CYMR90~1\AppData\Local\Temp\cchoDgth.s:31355  .debug_str:0000000000022c3b .LASF4398
C:\Users\CYMR90~1\AppData\Local\Temp\cchoDgth.s:28284  .debug_str:00000000000168a3 .LASF4399
C:\Users\CYMR90~1\AppData\Local\Temp\cchoDgth.s:24810  .debug_str:0000000000008b4a .LASF4400
C:\Users\CYMR90~1\AppData\Local\Temp\cchoDgth.s:32125  .debug_str:0000000000025e4c .LASF4401
C:\Users\CYMR90~1\AppData\Local\Temp\cchoDgth.s:29293  .debug_str:000000000001ac4d .LASF4402
C:\Users\CYMR90~1\AppData\Local\Temp\cchoDgth.s:22866  .debug_str:0000000000000eb3 .LASF4403
C:\Users\CYMR90~1\AppData\Local\Temp\cchoDgth.s:31329  .debug_str:0000000000022abe .LASF4404
C:\Users\CYMR90~1\AppData\Local\Temp\cchoDgth.s:33081  .debug_str:0000000000029bda .LASF4405
C:\Users\CYMR90~1\AppData\Local\Temp\cchoDgth.s:23334  .debug_str:0000000000002b57 .LASF4406
C:\Users\CYMR90~1\AppData\Local\Temp\cchoDgth.s:26360  .debug_str:000000000000ef2a .LASF4407
C:\Users\CYMR90~1\AppData\Local\Temp\cchoDgth.s:24428  .debug_str:000000000000712a .LASF4408
C:\Users\CYMR90~1\AppData\Local\Temp\cchoDgth.s:23872  .debug_str:0000000000004f29 .LASF4409
C:\Users\CYMR90~1\AppData\Local\Temp\cchoDgth.s:27626  .debug_str:0000000000013f60 .LASF4410
C:\Users\CYMR90~1\AppData\Local\Temp\cchoDgth.s:32035  .debug_str:0000000000025716 .LASF4411
C:\Users\CYMR90~1\AppData\Local\Temp\cchoDgth.s:26618  .debug_str:000000000000febd .LASF4412
C:\Users\CYMR90~1\AppData\Local\Temp\cchoDgth.s:27632  .debug_str:0000000000013fa4 .LASF4413
C:\Users\CYMR90~1\AppData\Local\Temp\cchoDgth.s:24138  .debug_str:0000000000005f44 .LASF4414
C:\Users\CYMR90~1\AppData\Local\Temp\cchoDgth.s:23712  .debug_str:00000000000043f4 .LASF4415
C:\Users\CYMR90~1\AppData\Local\Temp\cchoDgth.s:31125  .debug_str:0000000000021ee8 .LASF4416
C:\Users\CYMR90~1\AppData\Local\Temp\cchoDgth.s:23570  .debug_str:0000000000003abe .LASF4417
C:\Users\CYMR90~1\AppData\Local\Temp\cchoDgth.s:23808  .debug_str:0000000000004b24 .LASF4418
C:\Users\CYMR90~1\AppData\Local\Temp\cchoDgth.s:30903  .debug_str:00000000000210e7 .LASF4419
C:\Users\CYMR90~1\AppData\Local\Temp\cchoDgth.s:30455  .debug_str:000000000001f5d1 .LASF4420
C:\Users\CYMR90~1\AppData\Local\Temp\cchoDgth.s:33539  .debug_str:000000000002b6a5 .LASF4421
C:\Users\CYMR90~1\AppData\Local\Temp\cchoDgth.s:32855  .debug_str:0000000000028dd2 .LASF4422
C:\Users\CYMR90~1\AppData\Local\Temp\cchoDgth.s:23020  .debug_str:00000000000017e3 .LASF4423
C:\Users\CYMR90~1\AppData\Local\Temp\cchoDgth.s:30211  .debug_str:000000000001e728 .LASF4424
C:\Users\CYMR90~1\AppData\Local\Temp\cchoDgth.s:32581  .debug_str:0000000000027ba3 .LASF4425
C:\Users\CYMR90~1\AppData\Local\Temp\cchoDgth.s:25258  .debug_str:000000000000a723 .LASF4426
C:\Users\CYMR90~1\AppData\Local\Temp\cchoDgth.s:33889  .debug_str:000000000002cdad .LASF4427
C:\Users\CYMR90~1\AppData\Local\Temp\cchoDgth.s:33247  .debug_str:000000000002a5db .LASF4428
C:\Users\CYMR90~1\AppData\Local\Temp\cchoDgth.s:24626  .debug_str:0000000000007e59 .LASF4429
C:\Users\CYMR90~1\AppData\Local\Temp\cchoDgth.s:23698  .debug_str:0000000000004354 .LASF4430
C:\Users\CYMR90~1\AppData\Local\Temp\cchoDgth.s:32441  .debug_str:0000000000027287 .LASF4431
C:\Users\CYMR90~1\AppData\Local\Temp\cchoDgth.s:29753  .debug_str:000000000001c893 .LASF4432
C:\Users\CYMR90~1\AppData\Local\Temp\cchoDgth.s:32415  .debug_str:0000000000027104 .LASF4433
C:\Users\CYMR90~1\AppData\Local\Temp\cchoDgth.s:27660  .debug_str:000000000001414b .LASF4434
C:\Users\CYMR90~1\AppData\Local\Temp\cchoDgth.s:26560  .debug_str:000000000000fb8c .LASF4435
C:\Users\CYMR90~1\AppData\Local\Temp\cchoDgth.s:30315  .debug_str:000000000001ed93 .LASF4436
C:\Users\CYMR90~1\AppData\Local\Temp\cchoDgth.s:24074  .debug_str:0000000000005b78 .LASF4437
C:\Users\CYMR90~1\AppData\Local\Temp\cchoDgth.s:31559  .debug_str:0000000000023879 .LASF4438
C:\Users\CYMR90~1\AppData\Local\Temp\cchoDgth.s:28899  .debug_str:000000000001919a .LASF4439
C:\Users\CYMR90~1\AppData\Local\Temp\cchoDgth.s:23220  .debug_str:00000000000023ff .LASF4440
C:\Users\CYMR90~1\AppData\Local\Temp\cchoDgth.s:23428  .debug_str:0000000000003152 .LASF4441
C:\Users\CYMR90~1\AppData\Local\Temp\cchoDgth.s:32233  .debug_str:0000000000026591 .LASF4442
C:\Users\CYMR90~1\AppData\Local\Temp\cchoDgth.s:28050  .debug_str:0000000000015998 .LASF4443
C:\Users\CYMR90~1\AppData\Local\Temp\cchoDgth.s:34039  .debug_str:000000000002d75e .LASF4444
C:\Users\CYMR90~1\AppData\Local\Temp\cchoDgth.s:24924  .debug_str:00000000000092b6 .LASF4445
C:\Users\CYMR90~1\AppData\Local\Temp\cchoDgth.s:32831  .debug_str:0000000000028c2c .LASF4446
C:\Users\CYMR90~1\AppData\Local\Temp\cchoDgth.s:34037  .debug_str:000000000002d725 .LASF4447
C:\Users\CYMR90~1\AppData\Local\Temp\cchoDgth.s:30141  .debug_str:000000000001e2e2 .LASF4448
C:\Users\CYMR90~1\AppData\Local\Temp\cchoDgth.s:24386  .debug_str:0000000000006e9a .LASF4449
C:\Users\CYMR90~1\AppData\Local\Temp\cchoDgth.s:23848  .debug_str:0000000000004da2 .LASF4450
C:\Users\CYMR90~1\AppData\Local\Temp\cchoDgth.s:28407  .debug_str:00000000000172af .LASF4451
C:\Users\CYMR90~1\AppData\Local\Temp\cchoDgth.s:33681  .debug_str:000000000002bfdb .LASF4452
C:\Users\CYMR90~1\AppData\Local\Temp\cchoDgth.s:27440  .debug_str:0000000000013318 .LASF4453
C:\Users\CYMR90~1\AppData\Local\Temp\cchoDgth.s:33311  .debug_str:000000000002a983 .LASF4454
C:\Users\CYMR90~1\AppData\Local\Temp\cchoDgth.s:32389  .debug_str:0000000000026f4e .LASF4455
C:\Users\CYMR90~1\AppData\Local\Temp\cchoDgth.s:26632  .debug_str:000000000000ffa6 .LASF4456
C:\Users\CYMR90~1\AppData\Local\Temp\cchoDgth.s:27738  .debug_str:000000000001462f .LASF4457
C:\Users\CYMR90~1\AppData\Local\Temp\cchoDgth.s:23142  .debug_str:0000000000001fca .LASF4458
C:\Users\CYMR90~1\AppData\Local\Temp\cchoDgth.s:29119  .debug_str:000000000001a05b .LASF4459
C:\Users\CYMR90~1\AppData\Local\Temp\cchoDgth.s:24680  .debug_str:0000000000008309 .LASF4460
C:\Users\CYMR90~1\AppData\Local\Temp\cchoDgth.s:29841  .debug_str:000000000001ce91 .LASF4461
C:\Users\CYMR90~1\AppData\Local\Temp\cchoDgth.s:29429  .debug_str:000000000001b52a .LASF4462
C:\Users\CYMR90~1\AppData\Local\Temp\cchoDgth.s:31401  .debug_str:0000000000022f1f .LASF4463
C:\Users\CYMR90~1\AppData\Local\Temp\cchoDgth.s:32339  .debug_str:0000000000026c09 .LASF4464
C:\Users\CYMR90~1\AppData\Local\Temp\cchoDgth.s:23132  .debug_str:0000000000001f16 .LASF4465
C:\Users\CYMR90~1\AppData\Local\Temp\cchoDgth.s:28232  .debug_str:0000000000016529 .LASF4466
C:\Users\CYMR90~1\AppData\Local\Temp\cchoDgth.s:23442  .debug_str:0000000000003258 .LASF4467
C:\Users\CYMR90~1\AppData\Local\Temp\cchoDgth.s:30629  .debug_str:000000000002004a .LASF4468
C:\Users\CYMR90~1\AppData\Local\Temp\cchoDgth.s:30327  .debug_str:000000000001ee31 .LASF4469
C:\Users\CYMR90~1\AppData\Local\Temp\cchoDgth.s:22924  .debug_str:000000000000129d .LASF4470
C:\Users\CYMR90~1\AppData\Local\Temp\cchoDgth.s:32067  .debug_str:000000000002597f .LASF4471
C:\Users\CYMR90~1\AppData\Local\Temp\cchoDgth.s:24786  .debug_str:000000000000897a .LASF4472
C:\Users\CYMR90~1\AppData\Local\Temp\cchoDgth.s:29947  .debug_str:000000000001d64d .LASF4473
C:\Users\CYMR90~1\AppData\Local\Temp\cchoDgth.s:29965  .debug_str:000000000001d74b .LASF4474
C:\Users\CYMR90~1\AppData\Local\Temp\cchoDgth.s:30951  .debug_str:00000000000213df .LASF4475
C:\Users\CYMR90~1\AppData\Local\Temp\cchoDgth.s:29369  .debug_str:000000000001b10b .LASF4476
C:\Users\CYMR90~1\AppData\Local\Temp\cchoDgth.s:24110  .debug_str:0000000000005dc3 .LASF4477
C:\Users\CYMR90~1\AppData\Local\Temp\cchoDgth.s:32793  .debug_str:0000000000028940 .LASF4478
C:\Users\CYMR90~1\AppData\Local\Temp\cchoDgth.s:31689  .debug_str:00000000000240ae .LASF4479
C:\Users\CYMR90~1\AppData\Local\Temp\cchoDgth.s:27950  .debug_str:00000000000153cd .LASF4480
C:\Users\CYMR90~1\AppData\Local\Temp\cchoDgth.s:30077  .debug_str:000000000001de6e .LASF4481
C:\Users\CYMR90~1\AppData\Local\Temp\cchoDgth.s:23402  .debug_str:0000000000002fb7 .LASF4482
C:\Users\CYMR90~1\AppData\Local\Temp\cchoDgth.s:22660  .debug_str:00000000000001f1 .LASF4483
C:\Users\CYMR90~1\AppData\Local\Temp\cchoDgth.s:29069  .debug_str:0000000000019d22 .LASF4484
C:\Users\CYMR90~1\AppData\Local\Temp\cchoDgth.s:26828  .debug_str:0000000000010b70 .LASF4485
C:\Users\CYMR90~1\AppData\Local\Temp\cchoDgth.s:23710  .debug_str:00000000000043dc .LASF4486
C:\Users\CYMR90~1\AppData\Local\Temp\cchoDgth.s:29005  .debug_str:00000000000198ac .LASF4487
C:\Users\CYMR90~1\AppData\Local\Temp\cchoDgth.s:32401  .debug_str:0000000000027033 .LASF4488
C:\Users\CYMR90~1\AppData\Local\Temp\cchoDgth.s:22686  .debug_str:0000000000000389 .LASF4489
C:\Users\CYMR90~1\AppData\Local\Temp\cchoDgth.s:23948  .debug_str:000000000000538f .LASF4490
C:\Users\CYMR90~1\AppData\Local\Temp\cchoDgth.s:33063  .debug_str:0000000000029a4b .LASF4491
C:\Users\CYMR90~1\AppData\Local\Temp\cchoDgth.s:23742  .debug_str:0000000000004605 .LASF4492
C:\Users\CYMR90~1\AppData\Local\Temp\cchoDgth.s:25404  .debug_str:000000000000b11a .LASF4493
C:\Users\CYMR90~1\AppData\Local\Temp\cchoDgth.s:22706  .debug_str:00000000000004c5 .LASF4494
C:\Users\CYMR90~1\AppData\Local\Temp\cchoDgth.s:30303  .debug_str:000000000001ecd1 .LASF4495
C:\Users\CYMR90~1\AppData\Local\Temp\cchoDgth.s:28423  .debug_str:0000000000017392 .LASF4496
C:\Users\CYMR90~1\AppData\Local\Temp\cchoDgth.s:23268  .debug_str:00000000000026f3 .LASF4497
C:\Users\CYMR90~1\AppData\Local\Temp\cchoDgth.s:32507  .debug_str:0000000000027677 .LASF4498
C:\Users\CYMR90~1\AppData\Local\Temp\cchoDgth.s:33845  .debug_str:000000000002caeb .LASF4499
C:\Users\CYMR90~1\AppData\Local\Temp\cchoDgth.s:30759  .debug_str:00000000000207fe .LASF4500
C:\Users\CYMR90~1\AppData\Local\Temp\cchoDgth.s:25750  .debug_str:000000000000c843 .LASF4501
C:\Users\CYMR90~1\AppData\Local\Temp\cchoDgth.s:31409  .debug_str:0000000000022f8e .LASF4502
C:\Users\CYMR90~1\AppData\Local\Temp\cchoDgth.s:25648  .debug_str:000000000000c1c8 .LASF4503
C:\Users\CYMR90~1\AppData\Local\Temp\cchoDgth.s:31399  .debug_str:0000000000022f01 .LASF4504
C:\Users\CYMR90~1\AppData\Local\Temp\cchoDgth.s:32953  .debug_str:00000000000293a9 .LASF4505
C:\Users\CYMR90~1\AppData\Local\Temp\cchoDgth.s:24152  .debug_str:0000000000006013 .LASF4506
C:\Users\CYMR90~1\AppData\Local\Temp\cchoDgth.s:26952  .debug_str:00000000000112ca .LASF4507
C:\Users\CYMR90~1\AppData\Local\Temp\cchoDgth.s:26122  .debug_str:000000000000e019 .LASF4508
C:\Users\CYMR90~1\AppData\Local\Temp\cchoDgth.s:23798  .debug_str:0000000000004a98 .LASF4509
C:\Users\CYMR90~1\AppData\Local\Temp\cchoDgth.s:25072  .debug_str:0000000000009b94 .LASF4510
C:\Users\CYMR90~1\AppData\Local\Temp\cchoDgth.s:27622  .debug_str:0000000000013f00 .LASF4511
C:\Users\CYMR90~1\AppData\Local\Temp\cchoDgth.s:23614  .debug_str:0000000000003d65 .LASF4512
C:\Users\CYMR90~1\AppData\Local\Temp\cchoDgth.s:24380  .debug_str:0000000000006e2b .LASF4513
C:\Users\CYMR90~1\AppData\Local\Temp\cchoDgth.s:22634  .debug_str:000000000000002e .LASF4514
C:\Users\CYMR90~1\AppData\Local\Temp\cchoDgth.s:26936  .debug_str:00000000000111dc .LASF4515
C:\Users\CYMR90~1\AppData\Local\Temp\cchoDgth.s:29325  .debug_str:000000000001ae24 .LASF4516
C:\Users\CYMR90~1\AppData\Local\Temp\cchoDgth.s:28362  .debug_str:0000000000016e3d .LASF4517
C:\Users\CYMR90~1\AppData\Local\Temp\cchoDgth.s:33783  .debug_str:000000000002c6b8 .LASF4518
C:\Users\CYMR90~1\AppData\Local\Temp\cchoDgth.s:31925  .debug_str:000000000002500e .LASF4519
C:\Users\CYMR90~1\AppData\Local\Temp\cchoDgth.s:26226  .debug_str:000000000000e67a .LASF4520
C:\Users\CYMR90~1\AppData\Local\Temp\cchoDgth.s:30429  .debug_str:000000000001f409 .LASF4521
C:\Users\CYMR90~1\AppData\Local\Temp\cchoDgth.s:27882  .debug_str:0000000000014f2a .LASF4522
C:\Users\CYMR90~1\AppData\Local\Temp\cchoDgth.s:33133  .debug_str:0000000000029f29 .LASF4523
C:\Users\CYMR90~1\AppData\Local\Temp\cchoDgth.s:31707  .debug_str:00000000000241a1 .LASF4524
C:\Users\CYMR90~1\AppData\Local\Temp\cchoDgth.s:27468  .debug_str:00000000000134f7 .LASF4525
C:\Users\CYMR90~1\AppData\Local\Temp\cchoDgth.s:23412  .debug_str:0000000000003057 .LASF4526
C:\Users\CYMR90~1\AppData\Local\Temp\cchoDgth.s:30411  .debug_str:000000000001f2c5 .LASF4527
C:\Users\CYMR90~1\AppData\Local\Temp\cchoDgth.s:25250  .debug_str:000000000000a69e .LASF4528
C:\Users\CYMR90~1\AppData\Local\Temp\cchoDgth.s:22762  .debug_str:000000000000080a .LASF4529
C:\Users\CYMR90~1\AppData\Local\Temp\cchoDgth.s:29341  .debug_str:000000000001af23 .LASF4530
C:\Users\CYMR90~1\AppData\Local\Temp\cchoDgth.s:27450  .debug_str:00000000000133d9 .LASF4531
C:\Users\CYMR90~1\AppData\Local\Temp\cchoDgth.s:28018  .debug_str:00000000000157b8 .LASF4532
C:\Users\CYMR90~1\AppData\Local\Temp\cchoDgth.s:28989  .debug_str:0000000000019778 .LASF4533
C:\Users\CYMR90~1\AppData\Local\Temp\cchoDgth.s:25640  .debug_str:000000000000c140 .LASF4534
C:\Users\CYMR90~1\AppData\Local\Temp\cchoDgth.s:29047  .debug_str:0000000000019b57 .LASF4535
C:\Users\CYMR90~1\AppData\Local\Temp\cchoDgth.s:31013  .debug_str:0000000000021772 .LASF4536
C:\Users\CYMR90~1\AppData\Local\Temp\cchoDgth.s:29071  .debug_str:0000000000019d5d .LASF4537
C:\Users\CYMR90~1\AppData\Local\Temp\cchoDgth.s:23694  .debug_str:000000000000430b .LASF4538
C:\Users\CYMR90~1\AppData\Local\Temp\cchoDgth.s:25298  .debug_str:000000000000a92d .LASF4539
C:\Users\CYMR90~1\AppData\Local\Temp\cchoDgth.s:25996  .debug_str:000000000000d883 .LASF4540
C:\Users\CYMR90~1\AppData\Local\Temp\cchoDgth.s:30833  .debug_str:0000000000020cd6 .LASF4541
C:\Users\CYMR90~1\AppData\Local\Temp\cchoDgth.s:30423  .debug_str:000000000001f37f .LASF4542
C:\Users\CYMR90~1\AppData\Local\Temp\cchoDgth.s:26120  .debug_str:000000000000dfdd .LASF4543
C:\Users\CYMR90~1\AppData\Local\Temp\cchoDgth.s:29447  .debug_str:000000000001b66e .LASF4544
C:\Users\CYMR90~1\AppData\Local\Temp\cchoDgth.s:29673  .debug_str:000000000001c3d4 .LASF4545
C:\Users\CYMR90~1\AppData\Local\Temp\cchoDgth.s:26852  .debug_str:0000000000010cb4 .LASF4546
C:\Users\CYMR90~1\AppData\Local\Temp\cchoDgth.s:23342  .debug_str:0000000000002c0b .LASF4547
C:\Users\CYMR90~1\AppData\Local\Temp\cchoDgth.s:31295  .debug_str:0000000000022904 .LASF4548
C:\Users\CYMR90~1\AppData\Local\Temp\cchoDgth.s:33463  .debug_str:000000000002b240 .LASF4549
C:\Users\CYMR90~1\AppData\Local\Temp\cchoDgth.s:26634  .debug_str:000000000000ffd2 .LASF4550
C:\Users\CYMR90~1\AppData\Local\Temp\cchoDgth.s:31359  .debug_str:0000000000022c79 .LASF4551
C:\Users\CYMR90~1\AppData\Local\Temp\cchoDgth.s:33697  .debug_str:000000000002c0c2 .LASF4552
C:\Users\CYMR90~1\AppData\Local\Temp\cchoDgth.s:31875  .debug_str:0000000000024c6a .LASF4553
C:\Users\CYMR90~1\AppData\Local\Temp\cchoDgth.s:29877  .debug_str:000000000001d0d9 .LASF4554
C:\Users\CYMR90~1\AppData\Local\Temp\cchoDgth.s:29803  .debug_str:000000000001cc2e .LASF4555
C:\Users\CYMR90~1\AppData\Local\Temp\cchoDgth.s:29097  .debug_str:0000000000019ef3 .LASF4556
C:\Users\CYMR90~1\AppData\Local\Temp\cchoDgth.s:26768  .debug_str:00000000000107eb .LASF4557
C:\Users\CYMR90~1\AppData\Local\Temp\cchoDgth.s:27212  .debug_str:000000000001242f .LASF4558
C:\Users\CYMR90~1\AppData\Local\Temp\cchoDgth.s:23500  .debug_str:0000000000003627 .LASF4559
C:\Users\CYMR90~1\AppData\Local\Temp\cchoDgth.s:24372  .debug_str:0000000000006dbf .LASF4560
C:\Users\CYMR90~1\AppData\Local\Temp\cchoDgth.s:27268  .debug_str:00000000000127cd .LASF4561
C:\Users\CYMR90~1\AppData\Local\Temp\cchoDgth.s:33503  .debug_str:000000000002b47f .LASF4562
C:\Users\CYMR90~1\AppData\Local\Temp\cchoDgth.s:26244  .debug_str:000000000000e7ad .LASF4563
C:\Users\CYMR90~1\AppData\Local\Temp\cchoDgth.s:29201  .debug_str:000000000001a4f8 .LASF4564
C:\Users\CYMR90~1\AppData\Local\Temp\cchoDgth.s:22850  .debug_str:0000000000000d9b .LASF4565
C:\Users\CYMR90~1\AppData\Local\Temp\cchoDgth.s:32719  .debug_str:0000000000028427 .LASF4566
C:\Users\CYMR90~1\AppData\Local\Temp\cchoDgth.s:33953  .debug_str:000000000002d1dc .LASF4567
C:\Users\CYMR90~1\AppData\Local\Temp\cchoDgth.s:26024  .debug_str:000000000000da10 .LASF4568
C:\Users\CYMR90~1\AppData\Local\Temp\cchoDgth.s:28715  .debug_str:0000000000018572 .LASF4569
C:\Users\CYMR90~1\AppData\Local\Temp\cchoDgth.s:23010  .debug_str:000000000000174d .LASF4570
C:\Users\CYMR90~1\AppData\Local\Temp\cchoDgth.s:23724  .debug_str:00000000000044d7 .LASF4571
C:\Users\CYMR90~1\AppData\Local\Temp\cchoDgth.s:28168  .debug_str:000000000001610e .LASF4572
C:\Users\CYMR90~1\AppData\Local\Temp\cchoDgth.s:33423  .debug_str:000000000002b016 .LASF4573
C:\Users\CYMR90~1\AppData\Local\Temp\cchoDgth.s:32373  .debug_str:0000000000026e3c .LASF4574
C:\Users\CYMR90~1\AppData\Local\Temp\cchoDgth.s:33427  .debug_str:000000000002b03e .LASF4575
C:\Users\CYMR90~1\AppData\Local\Temp\cchoDgth.s:29741  .debug_str:000000000001c7e8 .LASF4576
C:\Users\CYMR90~1\AppData\Local\Temp\cchoDgth.s:22952  .debug_str:0000000000001404 .LASF4577
C:\Users\CYMR90~1\AppData\Local\Temp\cchoDgth.s:32143  .debug_str:0000000000025f79 .LASF4578
C:\Users\CYMR90~1\AppData\Local\Temp\cchoDgth.s:25654  .debug_str:000000000000c244 .LASF4579
C:\Users\CYMR90~1\AppData\Local\Temp\cchoDgth.s:24146  .debug_str:0000000000005fab .LASF4580
C:\Users\CYMR90~1\AppData\Local\Temp\cchoDgth.s:26250  .debug_str:000000000000e7fb .LASF4581
C:\Users\CYMR90~1\AppData\Local\Temp\cchoDgth.s:30771  .debug_str:00000000000208a5 .LASF4582
C:\Users\CYMR90~1\AppData\Local\Temp\cchoDgth.s:27400  .debug_str:0000000000013077 .LASF4583
C:\Users\CYMR90~1\AppData\Local\Temp\cchoDgth.s:32519  .debug_str:0000000000027742 .LASF4584
C:\Users\CYMR90~1\AppData\Local\Temp\cchoDgth.s:27936  .debug_str:00000000000152e6 .LASF4585
C:\Users\CYMR90~1\AppData\Local\Temp\cchoDgth.s:27690  .debug_str:0000000000014316 .LASF4586
C:\Users\CYMR90~1\AppData\Local\Temp\cchoDgth.s:25736  .debug_str:000000000000c751 .LASF4587
C:\Users\CYMR90~1\AppData\Local\Temp\cchoDgth.s:23398  .debug_str:0000000000002f81 .LASF4588
C:\Users\CYMR90~1\AppData\Local\Temp\cchoDgth.s:26350  .debug_str:000000000000ee84 .LASF4589
C:\Users\CYMR90~1\AppData\Local\Temp\cchoDgth.s:24060  .debug_str:0000000000005a80 .LASF4590
C:\Users\CYMR90~1\AppData\Local\Temp\cchoDgth.s:33267  .debug_str:000000000002a6e5 .LASF4591
C:\Users\CYMR90~1\AppData\Local\Temp\cchoDgth.s:30965  .debug_str:0000000000021495 .LASF4592
C:\Users\CYMR90~1\AppData\Local\Temp\cchoDgth.s:33779  .debug_str:000000000002c683 .LASF4593
C:\Users\CYMR90~1\AppData\Local\Temp\cchoDgth.s:26554  .debug_str:000000000000fb3d .LASF4594
C:\Users\CYMR90~1\AppData\Local\Temp\cchoDgth.s:24958  .debug_str:00000000000094a3 .LASF4595
C:\Users\CYMR90~1\AppData\Local\Temp\cchoDgth.s:33461  .debug_str:000000000002b21e .LASF4596
C:\Users\CYMR90~1\AppData\Local\Temp\cchoDgth.s:31061  .debug_str:0000000000021af9 .LASF4597
C:\Users\CYMR90~1\AppData\Local\Temp\cchoDgth.s:32925  .debug_str:0000000000029219 .LASF4598
C:\Users\CYMR90~1\AppData\Local\Temp\cchoDgth.s:24360  .debug_str:0000000000006d07 .LASF4599
C:\Users\CYMR90~1\AppData\Local\Temp\cchoDgth.s:31211  .debug_str:0000000000022409 .LASF4600
C:\Users\CYMR90~1\AppData\Local\Temp\cchoDgth.s:33095  .debug_str:0000000000029c9d .LASF4601
C:\Users\CYMR90~1\AppData\Local\Temp\cchoDgth.s:32817  .debug_str:0000000000028b4e .LASF4602
C:\Users\CYMR90~1\AppData\Local\Temp\cchoDgth.s:25230  .debug_str:000000000000a588 .LASF4603
C:\Users\CYMR90~1\AppData\Local\Temp\cchoDgth.s:29175  .debug_str:000000000001a386 .LASF4604
C:\Users\CYMR90~1\AppData\Local\Temp\cchoDgth.s:25136  .debug_str:0000000000009f92 .LASF4605
C:\Users\CYMR90~1\AppData\Local\Temp\cchoDgth.s:26556  .debug_str:000000000000fb5f .LASF4606
C:\Users\CYMR90~1\AppData\Local\Temp\cchoDgth.s:23224  .debug_str:0000000000002432 .LASF4607
C:\Users\CYMR90~1\AppData\Local\Temp\cchoDgth.s:25284  .debug_str:000000000000a86c .LASF4608
C:\Users\CYMR90~1\AppData\Local\Temp\cchoDgth.s:30269  .debug_str:000000000001ea97 .LASF4609
C:\Users\CYMR90~1\AppData\Local\Temp\cchoDgth.s:28493  .debug_str:00000000000177be .LASF4610
C:\Users\CYMR90~1\AppData\Local\Temp\cchoDgth.s:25948  .debug_str:000000000000d506 .LASF4611
C:\Users\CYMR90~1\AppData\Local\Temp\cchoDgth.s:33833  .debug_str:000000000002c9d7 .LASF4612
C:\Users\CYMR90~1\AppData\Local\Temp\cchoDgth.s:28320  .debug_str:0000000000016a9d .LASF4613
C:\Users\CYMR90~1\AppData\Local\Temp\cchoDgth.s:33491  .debug_str:000000000002b3b9 .LASF4614
C:\Users\CYMR90~1\AppData\Local\Temp\cchoDgth.s:23434  .debug_str:00000000000031da .LASF4615
C:\Users\CYMR90~1\AppData\Local\Temp\cchoDgth.s:31849  .debug_str:0000000000024ae3 .LASF4616
C:\Users\CYMR90~1\AppData\Local\Temp\cchoDgth.s:28330  .debug_str:0000000000016ba3 .LASF4617
C:\Users\CYMR90~1\AppData\Local\Temp\cchoDgth.s:24846  .debug_str:0000000000008daf .LASF4618
C:\Users\CYMR90~1\AppData\Local\Temp\cchoDgth.s:32597  .debug_str:0000000000027cb3 .LASF4619
C:\Users\CYMR90~1\AppData\Local\Temp\cchoDgth.s:31511  .debug_str:0000000000023607 .LASF4620
C:\Users\CYMR90~1\AppData\Local\Temp\cchoDgth.s:23196  .debug_str:00000000000022a9 .LASF4621
C:\Users\CYMR90~1\AppData\Local\Temp\cchoDgth.s:24320  .debug_str:0000000000006a93 .LASF4622
C:\Users\CYMR90~1\AppData\Local\Temp\cchoDgth.s:32739  .debug_str:0000000000028572 .LASF4623
C:\Users\CYMR90~1\AppData\Local\Temp\cchoDgth.s:30201  .debug_str:000000000001e6a1 .LASF4624
C:\Users\CYMR90~1\AppData\Local\Temp\cchoDgth.s:24686  .debug_str:0000000000008360 .LASF4625
C:\Users\CYMR90~1\AppData\Local\Temp\cchoDgth.s:28162  .debug_str:00000000000160d1 .LASF4626
C:\Users\CYMR90~1\AppData\Local\Temp\cchoDgth.s:28060  .debug_str:0000000000015a19 .LASF4627
C:\Users\CYMR90~1\AppData\Local\Temp\cchoDgth.s:29885  .debug_str:000000000001d157 .LASF4628
C:\Users\CYMR90~1\AppData\Local\Temp\cchoDgth.s:30013  .debug_str:000000000001da2c .LASF4629
C:\Users\CYMR90~1\AppData\Local\Temp\cchoDgth.s:23180  .debug_str:00000000000021d4 .LASF4630
C:\Users\CYMR90~1\AppData\Local\Temp\cchoDgth.s:26578  .debug_str:000000000000fc66 .LASF4631
C:\Users\CYMR90~1\AppData\Local\Temp\cchoDgth.s:33245  .debug_str:000000000002a5bc .LASF4632
C:\Users\CYMR90~1\AppData\Local\Temp\cchoDgth.s:25656  .debug_str:000000000000c273 .LASF4633
C:\Users\CYMR90~1\AppData\Local\Temp\cchoDgth.s:29795  .debug_str:000000000001cb18 .LASF4634
C:\Users\CYMR90~1\AppData\Local\Temp\cchoDgth.s:30763  .debug_str:000000000002083d .LASF4635
C:\Users\CYMR90~1\AppData\Local\Temp\cchoDgth.s:28643  .debug_str:00000000000180fc .LASF4636
C:\Users\CYMR90~1\AppData\Local\Temp\cchoDgth.s:26796  .debug_str:00000000000109a1 .LASF4637
C:\Users\CYMR90~1\AppData\Local\Temp\cchoDgth.s:23266  .debug_str:00000000000026d1 .LASF4638
C:\Users\CYMR90~1\AppData\Local\Temp\cchoDgth.s:31495  .debug_str:000000000002351e .LASF4639
C:\Users\CYMR90~1\AppData\Local\Temp\cchoDgth.s:22994  .debug_str:000000000000164e .LASF4640
C:\Users\CYMR90~1\AppData\Local\Temp\cchoDgth.s:22818  .debug_str:0000000000000bdc .LASF4641
C:\Users\CYMR90~1\AppData\Local\Temp\cchoDgth.s:23902  .debug_str:00000000000050e0 .LASF4642
C:\Users\CYMR90~1\AppData\Local\Temp\cchoDgth.s:24546  .debug_str:00000000000078ec .LASF4643
C:\Users\CYMR90~1\AppData\Local\Temp\cchoDgth.s:32325  .debug_str:0000000000026b4c .LASF4644
C:\Users\CYMR90~1\AppData\Local\Temp\cchoDgth.s:23184  .debug_str:0000000000002209 .LASF4645
C:\Users\CYMR90~1\AppData\Local\Temp\cchoDgth.s:31029  .debug_str:0000000000021879 .LASF4646
C:\Users\CYMR90~1\AppData\Local\Temp\cchoDgth.s:25546  .debug_str:000000000000baae .LASF4647
C:\Users\CYMR90~1\AppData\Local\Temp\cchoDgth.s:31749  .debug_str:00000000000243fa .LASF4648
C:\Users\CYMR90~1\AppData\Local\Temp\cchoDgth.s:24884  .debug_str:0000000000009089 .LASF4649
C:\Users\CYMR90~1\AppData\Local\Temp\cchoDgth.s:30627  .debug_str:0000000000020034 .LASF4650
C:\Users\CYMR90~1\AppData\Local\Temp\cchoDgth.s:31271  .debug_str:000000000002278c .LASF4651
C:\Users\CYMR90~1\AppData\Local\Temp\cchoDgth.s:28781  .debug_str:000000000001895e .LASF4652
C:\Users\CYMR90~1\AppData\Local\Temp\cchoDgth.s:31365  .debug_str:0000000000022cef .LASF4653
C:\Users\CYMR90~1\AppData\Local\Temp\cchoDgth.s:28250  .debug_str:0000000000016657 .LASF4654
C:\Users\CYMR90~1\AppData\Local\Temp\cchoDgth.s:28148  .debug_str:0000000000015fc6 .LASF4655
C:\Users\CYMR90~1\AppData\Local\Temp\cchoDgth.s:27740  .debug_str:000000000001466a .LASF4656
C:\Users\CYMR90~1\AppData\Local\Temp\cchoDgth.s:30341  .debug_str:000000000001ef04 .LASF4657
C:\Users\CYMR90~1\AppData\Local\Temp\cchoDgth.s:26972  .debug_str:0000000000011410 .LASF4658
C:\Users\CYMR90~1\AppData\Local\Temp\cchoDgth.s:30057  .debug_str:000000000001dd49 .LASF4659
C:\Users\CYMR90~1\AppData\Local\Temp\cchoDgth.s:34013  .debug_str:000000000002d5e2 .LASF4660
C:\Users\CYMR90~1\AppData\Local\Temp\cchoDgth.s:26236  .debug_str:000000000000e71d .LASF4661
C:\Users\CYMR90~1\AppData\Local\Temp\cchoDgth.s:28743  .debug_str:000000000001871b .LASF4662
C:\Users\CYMR90~1\AppData\Local\Temp\cchoDgth.s:23046  .debug_str:0000000000001a20 .LASF4663
C:\Users\CYMR90~1\AppData\Local\Temp\cchoDgth.s:23680  .debug_str:00000000000041ac .LASF4664
C:\Users\CYMR90~1\AppData\Local\Temp\cchoDgth.s:23684  .debug_str:000000000000427c .LASF4665
C:\Users\CYMR90~1\AppData\Local\Temp\cchoDgth.s:26882  .debug_str:0000000000010f0a .LASF4666
C:\Users\CYMR90~1\AppData\Local\Temp\cchoDgth.s:31769  .debug_str:0000000000024517 .LASF4667
C:\Users\CYMR90~1\AppData\Local\Temp\cchoDgth.s:25574  .debug_str:000000000000bcb5 .LASF4668
C:\Users\CYMR90~1\AppData\Local\Temp\cchoDgth.s:25280  .debug_str:000000000000a82e .LASF4669
C:\Users\CYMR90~1\AppData\Local\Temp\cchoDgth.s:30895  .debug_str:0000000000021076 .LASF4670
C:\Users\CYMR90~1\AppData\Local\Temp\cchoDgth.s:26942  .debug_str:0000000000011245 .LASF4671
C:\Users\CYMR90~1\AppData\Local\Temp\cchoDgth.s:32201  .debug_str:00000000000263a6 .LASF4672
C:\Users\CYMR90~1\AppData\Local\Temp\cchoDgth.s:31833  .debug_str:00000000000249b4 .LASF4673
C:\Users\CYMR90~1\AppData\Local\Temp\cchoDgth.s:25006  .debug_str:00000000000097ac .LASF4674
C:\Users\CYMR90~1\AppData\Local\Temp\cchoDgth.s:28024  .debug_str:0000000000015810 .LASF4675
C:\Users\CYMR90~1\AppData\Local\Temp\cchoDgth.s:33629  .debug_str:000000000002bc63 .LASF4676
C:\Users\CYMR90~1\AppData\Local\Temp\cchoDgth.s:26918  .debug_str:00000000000110d6 .LASF4677
C:\Users\CYMR90~1\AppData\Local\Temp\cchoDgth.s:29035  .debug_str:0000000000019a53 .LASF4678
C:\Users\CYMR90~1\AppData\Local\Temp\cchoDgth.s:30083  .debug_str:000000000001ded5 .LASF4679
C:\Users\CYMR90~1\AppData\Local\Temp\cchoDgth.s:28236  .debug_str:0000000000016575 .LASF4680
C:\Users\CYMR90~1\AppData\Local\Temp\cchoDgth.s:24896  .debug_str:0000000000009147 .LASF4681
C:\Users\CYMR90~1\AppData\Local\Temp\cchoDgth.s:26850  .debug_str:0000000000010c8e .LASF4682
C:\Users\CYMR90~1\AppData\Local\Temp\cchoDgth.s:28833  .debug_str:0000000000018c99 .LASF4683
C:\Users\CYMR90~1\AppData\Local\Temp\cchoDgth.s:28501  .debug_str:000000000001781a .LASF4684
C:\Users\CYMR90~1\AppData\Local\Temp\cchoDgth.s:28264  .debug_str:0000000000016701 .LASF4685
C:\Users\CYMR90~1\AppData\Local\Temp\cchoDgth.s:23628  .debug_str:0000000000003e74 .LASF4686
C:\Users\CYMR90~1\AppData\Local\Temp\cchoDgth.s:32619  .debug_str:0000000000027dda .LASF4687
C:\Users\CYMR90~1\AppData\Local\Temp\cchoDgth.s:26206  .debug_str:000000000000e574 .LASF4688
C:\Users\CYMR90~1\AppData\Local\Temp\cchoDgth.s:23672  .debug_str:0000000000004129 .LASF4689
C:\Users\CYMR90~1\AppData\Local\Temp\cchoDgth.s:27872  .debug_str:0000000000014e7a .LASF4690
C:\Users\CYMR90~1\AppData\Local\Temp\cchoDgth.s:26202  .debug_str:000000000000e535 .LASF4691
C:\Users\CYMR90~1\AppData\Local\Temp\cchoDgth.s:23208  .debug_str:0000000000002357 .LASF4692
C:\Users\CYMR90~1\AppData\Local\Temp\cchoDgth.s:27114  .debug_str:0000000000011dcf .LASF4693
C:\Users\CYMR90~1\AppData\Local\Temp\cchoDgth.s:24804  .debug_str:0000000000008ab4 .LASF4694
C:\Users\CYMR90~1\AppData\Local\Temp\cchoDgth.s:30837  .debug_str:0000000000020d29 .LASF4695
C:\Users\CYMR90~1\AppData\Local\Temp\cchoDgth.s:27398  .debug_str:0000000000013061 .LASF4696
C:\Users\CYMR90~1\AppData\Local\Temp\cchoDgth.s:33203  .debug_str:000000000002a304 .LASF4697
C:\Users\CYMR90~1\AppData\Local\Temp\cchoDgth.s:29165  .debug_str:000000000001a2f7 .LASF4698
C:\Users\CYMR90~1\AppData\Local\Temp\cchoDgth.s:29203  .debug_str:000000000001a50f .LASF4699
C:\Users\CYMR90~1\AppData\Local\Temp\cchoDgth.s:29677  .debug_str:000000000001c41e .LASF4700
C:\Users\CYMR90~1\AppData\Local\Temp\cchoDgth.s:27968  .debug_str:0000000000015506 .LASF4701
C:\Users\CYMR90~1\AppData\Local\Temp\cchoDgth.s:33985  .debug_str:000000000002d3a6 .LASF4702
C:\Users\CYMR90~1\AppData\Local\Temp\cchoDgth.s:32873  .debug_str:0000000000028f18 .LASF4703
C:\Users\CYMR90~1\AppData\Local\Temp\cchoDgth.s:31597  .debug_str:0000000000023ab5 .LASF4704
C:\Users\CYMR90~1\AppData\Local\Temp\cchoDgth.s:30375  .debug_str:000000000001f0c1 .LASF4705
C:\Users\CYMR90~1\AppData\Local\Temp\cchoDgth.s:26770  .debug_str:0000000000010829 .LASF4706
C:\Users\CYMR90~1\AppData\Local\Temp\cchoDgth.s:33875  .debug_str:000000000002cced .LASF4707
C:\Users\CYMR90~1\AppData\Local\Temp\cchoDgth.s:32013  .debug_str:000000000002559e .LASF4708
C:\Users\CYMR90~1\AppData\Local\Temp\cchoDgth.s:31921  .debug_str:0000000000024f31 .LASF4709
C:\Users\CYMR90~1\AppData\Local\Temp\cchoDgth.s:25532  .debug_str:000000000000b9c1 .LASF4710
C:\Users\CYMR90~1\AppData\Local\Temp\cchoDgth.s:28288  .debug_str:00000000000168d2 .LASF4711
C:\Users\CYMR90~1\AppData\Local\Temp\cchoDgth.s:32683  .debug_str:0000000000028193 .LASF4712
C:\Users\CYMR90~1\AppData\Local\Temp\cchoDgth.s:29865  .debug_str:000000000001cff7 .LASF4713
C:\Users\CYMR90~1\AppData\Local\Temp\cchoDgth.s:32483  .debug_str:00000000000274c3 .LASF4714
C:\Users\CYMR90~1\AppData\Local\Temp\cchoDgth.s:28607  .debug_str:0000000000017eef .LASF4715
C:\Users\CYMR90~1\AppData\Local\Temp\cchoDgth.s:31615  .debug_str:0000000000023bf6 .LASF4716
C:\Users\CYMR90~1\AppData\Local\Temp\cchoDgth.s:24706  .debug_str:00000000000084c7 .LASF4717
C:\Users\CYMR90~1\AppData\Local\Temp\cchoDgth.s:29847  .debug_str:000000000001cee4 .LASF4718
C:\Users\CYMR90~1\AppData\Local\Temp\cchoDgth.s:23372  .debug_str:0000000000002e03 .LASF4719
C:\Users\CYMR90~1\AppData\Local\Temp\cchoDgth.s:24290  .debug_str:0000000000006875 .LASF4720
C:\Users\CYMR90~1\AppData\Local\Temp\cchoDgth.s:28282  .debug_str:0000000000016885 .LASF4721
C:\Users\CYMR90~1\AppData\Local\Temp\cchoDgth.s:27390  .debug_str:0000000000012fde .LASF4722
C:\Users\CYMR90~1\AppData\Local\Temp\cchoDgth.s:23662  .debug_str:00000000000040b5 .LASF4723
C:\Users\CYMR90~1\AppData\Local\Temp\cchoDgth.s:32221  .debug_str:00000000000264dd .LASF4724
C:\Users\CYMR90~1\AppData\Local\Temp\cchoDgth.s:26286  .debug_str:000000000000ea7d .LASF4725
C:\Users\CYMR90~1\AppData\Local\Temp\cchoDgth.s:29937  .debug_str:000000000001d59b .LASF4726
C:\Users\CYMR90~1\AppData\Local\Temp\cchoDgth.s:27776  .debug_str:0000000000014865 .LASF4727
C:\Users\CYMR90~1\AppData\Local\Temp\cchoDgth.s:25432  .debug_str:000000000000b36b .LASF4728
C:\Users\CYMR90~1\AppData\Local\Temp\cchoDgth.s:30913  .debug_str:0000000000021194 .LASF4729
C:\Users\CYMR90~1\AppData\Local\Temp\cchoDgth.s:32337  .debug_str:0000000000026bdf .LASF4730
C:\Users\CYMR90~1\AppData\Local\Temp\cchoDgth.s:30591  .debug_str:000000000001fde8 .LASF4731
C:\Users\CYMR90~1\AppData\Local\Temp\cchoDgth.s:31213  .debug_str:000000000002242d .LASF4732
C:\Users\CYMR90~1\AppData\Local\Temp\cchoDgth.s:29431  .debug_str:000000000001b543 .LASF4733
C:\Users\CYMR90~1\AppData\Local\Temp\cchoDgth.s:30741  .debug_str:000000000002070e .LASF4734
C:\Users\CYMR90~1\AppData\Local\Temp\cchoDgth.s:32281  .debug_str:00000000000268a9 .LASF4735
C:\Users\CYMR90~1\AppData\Local\Temp\cchoDgth.s:31753  .debug_str:0000000000024418 .LASF4736
C:\Users\CYMR90~1\AppData\Local\Temp\cchoDgth.s:24864  .debug_str:0000000000008e95 .LASF4737
C:\Users\CYMR90~1\AppData\Local\Temp\cchoDgth.s:31127  .debug_str:0000000000021efd .LASF4738
C:\Users\CYMR90~1\AppData\Local\Temp\cchoDgth.s:24284  .debug_str:0000000000006816 .LASF4739
C:\Users\CYMR90~1\AppData\Local\Temp\cchoDgth.s:23924  .debug_str:000000000000521d .LASF4740
C:\Users\CYMR90~1\AppData\Local\Temp\cchoDgth.s:31467  .debug_str:000000000002337a .LASF4741
C:\Users\CYMR90~1\AppData\Local\Temp\cchoDgth.s:31417  .debug_str:0000000000023026 .LASF4742
C:\Users\CYMR90~1\AppData\Local\Temp\cchoDgth.s:30687  .debug_str:0000000000020413 .LASF4743
C:\Users\CYMR90~1\AppData\Local\Temp\cchoDgth.s:22802  .debug_str:0000000000000a82 .LASF4744
C:\Users\CYMR90~1\AppData\Local\Temp\cchoDgth.s:27562  .debug_str:0000000000013b66 .LASF4745
C:\Users\CYMR90~1\AppData\Local\Temp\cchoDgth.s:31485  .debug_str:0000000000023494 .LASF4746
C:\Users\CYMR90~1\AppData\Local\Temp\cchoDgth.s:26272  .debug_str:000000000000e99d .LASF4747
C:\Users\CYMR90~1\AppData\Local\Temp\cchoDgth.s:29911  .debug_str:000000000001d39d .LASF4748
C:\Users\CYMR90~1\AppData\Local\Temp\cchoDgth.s:27908  .debug_str:0000000000015119 .LASF4749
C:\Users\CYMR90~1\AppData\Local\Temp\cchoDgth.s:23192  .debug_str:0000000000002262 .LASF4750
C:\Users\CYMR90~1\AppData\Local\Temp\cchoDgth.s:24660  .debug_str:000000000000810e .LASF4751
C:\Users\CYMR90~1\AppData\Local\Temp\cchoDgth.s:25706  .debug_str:000000000000c597 .LASF4752
C:\Users\CYMR90~1\AppData\Local\Temp\cchoDgth.s:28046  .debug_str:0000000000015961 .LASF4753
C:\Users\CYMR90~1\AppData\Local\Temp\cchoDgth.s:29591  .debug_str:000000000001beb0 .LASF4754
C:\Users\CYMR90~1\AppData\Local\Temp\cchoDgth.s:23748  .debug_str:000000000000465a .LASF4755
C:\Users\CYMR90~1\AppData\Local\Temp\cchoDgth.s:24780  .debug_str:0000000000008932 .LASF4756
C:\Users\CYMR90~1\AppData\Local\Temp\cchoDgth.s:26414  .debug_str:000000000000f210 .LASF4757
C:\Users\CYMR90~1\AppData\Local\Temp\cchoDgth.s:30179  .debug_str:000000000001e54f .LASF4758
C:\Users\CYMR90~1\AppData\Local\Temp\cchoDgth.s:31851  .debug_str:0000000000024aff .LASF4759
C:\Users\CYMR90~1\AppData\Local\Temp\cchoDgth.s:33373  .debug_str:000000000002ad2b .LASF4760
C:\Users\CYMR90~1\AppData\Local\Temp\cchoDgth.s:26622  .debug_str:000000000000feed .LASF4761
C:\Users\CYMR90~1\AppData\Local\Temp\cchoDgth.s:31237  .debug_str:0000000000022589 .LASF4762
C:\Users\CYMR90~1\AppData\Local\Temp\cchoDgth.s:32809  .debug_str:0000000000028ace .LASF4763
C:\Users\CYMR90~1\AppData\Local\Temp\cchoDgth.s:31639  .debug_str:0000000000023d6b .LASF4764
C:\Users\CYMR90~1\AppData\Local\Temp\cchoDgth.s:27928  .debug_str:0000000000015269 .LASF4765
C:\Users\CYMR90~1\AppData\Local\Temp\cchoDgth.s:30717  .debug_str:00000000000205d4 .LASF4766
C:\Users\CYMR90~1\AppData\Local\Temp\cchoDgth.s:25470  .debug_str:000000000000b58e .LASF4767
C:\Users\CYMR90~1\AppData\Local\Temp\cchoDgth.s:33079  .debug_str:0000000000029bb1 .LASF4768
C:\Users\CYMR90~1\AppData\Local\Temp\cchoDgth.s:27998  .debug_str:0000000000015688 .LASF4769
C:\Users\CYMR90~1\AppData\Local\Temp\cchoDgth.s:31117  .debug_str:0000000000021e60 .LASF4770
C:\Users\CYMR90~1\AppData\Local\Temp\cchoDgth.s:33477  .debug_str:000000000002b30a .LASF4771
C:\Users\CYMR90~1\AppData\Local\Temp\cchoDgth.s:22774  .debug_str:00000000000008d2 .LASF4772
C:\Users\CYMR90~1\AppData\Local\Temp\cchoDgth.s:22720  .debug_str:000000000000057a .LASF4773
C:\Users\CYMR90~1\AppData\Local\Temp\cchoDgth.s:22784  .debug_str:0000000000000967 .LASF4774
C:\Users\CYMR90~1\AppData\Local\Temp\cchoDgth.s:25202  .debug_str:000000000000a3bb .LASF4775
C:\Users\CYMR90~1\AppData\Local\Temp\cchoDgth.s:24036  .debug_str:000000000000590d .LASF4776
C:\Users\CYMR90~1\AppData\Local\Temp\cchoDgth.s:26552  .debug_str:000000000000fb13 .LASF4777
C:\Users\CYMR90~1\AppData\Local\Temp\cchoDgth.s:28827  .debug_str:0000000000018c27 .LASF4778
C:\Users\CYMR90~1\AppData\Local\Temp\cchoDgth.s:23286  .debug_str:000000000000285b .LASF4779
C:\Users\CYMR90~1\AppData\Local\Temp\cchoDgth.s:29075  .debug_str:0000000000019db0 .LASF4780
C:\Users\CYMR90~1\AppData\Local\Temp\cchoDgth.s:30443  .debug_str:000000000001f502 .LASF4781
C:\Users\CYMR90~1\AppData\Local\Temp\cchoDgth.s:22810  .debug_str:0000000000000b48 .LASF4782
C:\Users\CYMR90~1\AppData\Local\Temp\cchoDgth.s:24266  .debug_str:0000000000006721 .LASF4783
C:\Users\CYMR90~1\AppData\Local\Temp\cchoDgth.s:27310  .debug_str:0000000000012a8c .LASF4784
C:\Users\CYMR90~1\AppData\Local\Temp\cchoDgth.s:29705  .debug_str:000000000001c5ef .LASF4785
C:\Users\CYMR90~1\AppData\Local\Temp\cchoDgth.s:29077  .debug_str:0000000000019ddc .LASF4786
C:\Users\CYMR90~1\AppData\Local\Temp\cchoDgth.s:33525  .debug_str:000000000002b5da .LASF4787
C:\Users\CYMR90~1\AppData\Local\Temp\cchoDgth.s:25626  .debug_str:000000000000c042 .LASF4788
C:\Users\CYMR90~1\AppData\Local\Temp\cchoDgth.s:28661  .debug_str:0000000000018230 .LASF4789
C:\Users\CYMR90~1\AppData\Local\Temp\cchoDgth.s:27666  .debug_str:00000000000141ab .LASF4790
C:\Users\CYMR90~1\AppData\Local\Temp\cchoDgth.s:30331  .debug_str:000000000001ee82 .LASF4791
C:\Users\CYMR90~1\AppData\Local\Temp\cchoDgth.s:30897  .debug_str:000000000002108c .LASF4792
C:\Users\CYMR90~1\AppData\Local\Temp\cchoDgth.s:30901  .debug_str:00000000000210c5 .LASF4793
C:\Users\CYMR90~1\AppData\Local\Temp\cchoDgth.s:23410  .debug_str:0000000000003035 .LASF4794
C:\Users\CYMR90~1\AppData\Local\Temp\cchoDgth.s:26718  .debug_str:0000000000010517 .LASF4795
C:\Users\CYMR90~1\AppData\Local\Temp\cchoDgth.s:27356  .debug_str:0000000000012d95 .LASF4796
C:\Users\CYMR90~1\AppData\Local\Temp\cchoDgth.s:24814  .debug_str:0000000000008b83 .LASF4797
C:\Users\CYMR90~1\AppData\Local\Temp\cchoDgth.s:26584  .debug_str:000000000000fcbc .LASF4798
C:\Users\CYMR90~1\AppData\Local\Temp\cchoDgth.s:24900  .debug_str:0000000000009184 .LASF4799
C:\Users\CYMR90~1\AppData\Local\Temp\cchoDgth.s:26610  .debug_str:000000000000fe4c .LASF4800
C:\Users\CYMR90~1\AppData\Local\Temp\cchoDgth.s:28453  .debug_str:0000000000017543 .LASF4801
C:\Users\CYMR90~1\AppData\Local\Temp\cchoDgth.s:26064  .debug_str:000000000000dcb0 .LASF4802
C:\Users\CYMR90~1\AppData\Local\Temp\cchoDgth.s:28537  .debug_str:0000000000017a70 .LASF4803
C:\Users\CYMR90~1\AppData\Local\Temp\cchoDgth.s:25084  .debug_str:0000000000009c73 .LASF4804
C:\Users\CYMR90~1\AppData\Local\Temp\cchoDgth.s:27922  .debug_str:000000000001520b .LASF4805
C:\Users\CYMR90~1\AppData\Local\Temp\cchoDgth.s:24830  .debug_str:0000000000008c94 .LASF4806
C:\Users\CYMR90~1\AppData\Local\Temp\cchoDgth.s:24770  .debug_str:0000000000008898 .LASF4807
C:\Users\CYMR90~1\AppData\Local\Temp\cchoDgth.s:23960  .debug_str:000000000000546e .LASF4808
C:\Users\CYMR90~1\AppData\Local\Temp\cchoDgth.s:31807  .debug_str:0000000000024803 .LASF4809
C:\Users\CYMR90~1\AppData\Local\Temp\cchoDgth.s:33511  .debug_str:000000000002b519 .LASF4810
C:\Users\CYMR90~1\AppData\Local\Temp\cchoDgth.s:28725  .debug_str:00000000000185f4 .LASF4811
C:\Users\CYMR90~1\AppData\Local\Temp\cchoDgth.s:33009  .debug_str:0000000000029712 .LASF4812
C:\Users\CYMR90~1\AppData\Local\Temp\cchoDgth.s:32681  .debug_str:0000000000028171 .LASF4813
C:\Users\CYMR90~1\AppData\Local\Temp\cchoDgth.s:25058  .debug_str:0000000000009b06 .LASF4814
C:\Users\CYMR90~1\AppData\Local\Temp\cchoDgth.s:32427  .debug_str:00000000000271a2 .LASF4815
C:\Users\CYMR90~1\AppData\Local\Temp\cchoDgth.s:28709  .debug_str:0000000000018509 .LASF4816
C:\Users\CYMR90~1\AppData\Local\Temp\cchoDgth.s:28615  .debug_str:0000000000017f50 .LASF4817
C:\Users\CYMR90~1\AppData\Local\Temp\cchoDgth.s:32557  .debug_str:000000000002794e .LASF4818
C:\Users\CYMR90~1\AppData\Local\Temp\cchoDgth.s:26476  .debug_str:000000000000f5dc .LASF4819
C:\Users\CYMR90~1\AppData\Local\Temp\cchoDgth.s:29889  .debug_str:000000000001d19b .LASF4820
C:\Users\CYMR90~1\AppData\Local\Temp\cchoDgth.s:28901  .debug_str:00000000000191b4 .LASF4821
C:\Users\CYMR90~1\AppData\Local\Temp\cchoDgth.s:25788  .debug_str:000000000000cac4 .LASF4822
C:\Users\CYMR90~1\AppData\Local\Temp\cchoDgth.s:32075  .debug_str:0000000000025aa7 .LASF4823
C:\Users\CYMR90~1\AppData\Local\Temp\cchoDgth.s:25194  .debug_str:000000000000a345 .LASF4824
C:\Users\CYMR90~1\AppData\Local\Temp\cchoDgth.s:31891  .debug_str:0000000000024d49 .LASF4825
C:\Users\CYMR90~1\AppData\Local\Temp\cchoDgth.s:29645  .debug_str:000000000001c22f .LASF4826
C:\Users\CYMR90~1\AppData\Local\Temp\cchoDgth.s:25924  .debug_str:000000000000d32b .LASF4827
C:\Users\CYMR90~1\AppData\Local\Temp\cchoDgth.s:26786  .debug_str:0000000000010924 .LASF4828
C:\Users\CYMR90~1\AppData\Local\Temp\cchoDgth.s:23134  .debug_str:0000000000001f2f .LASF4829
C:\Users\CYMR90~1\AppData\Local\Temp\cchoDgth.s:28399  .debug_str:0000000000017243 .LASF4830
C:\Users\CYMR90~1\AppData\Local\Temp\cchoDgth.s:29725  .debug_str:000000000001c6ff .LASF4831
C:\Users\CYMR90~1\AppData\Local\Temp\cchoDgth.s:27816  .debug_str:0000000000014b37 .LASF4832
C:\Users\CYMR90~1\AppData\Local\Temp\cchoDgth.s:23740  .debug_str:00000000000045d9 .LASF4833
C:\Users\CYMR90~1\AppData\Local\Temp\cchoDgth.s:29363  .debug_str:000000000001b09e .LASF4834
C:\Users\CYMR90~1\AppData\Local\Temp\cchoDgth.s:32171  .debug_str:00000000000261d1 .LASF4835
C:\Users\CYMR90~1\AppData\Local\Temp\cchoDgth.s:26528  .debug_str:000000000000f8fc .LASF4836
C:\Users\CYMR90~1\AppData\Local\Temp\cchoDgth.s:27586  .debug_str:0000000000013cb8 .LASF4837
C:\Users\CYMR90~1\AppData\Local\Temp\cchoDgth.s:22636  .debug_str:000000000000006a .LASF4838
C:\Users\CYMR90~1\AppData\Local\Temp\cchoDgth.s:32997  .debug_str:000000000002965c .LASF4839
C:\Users\CYMR90~1\AppData\Local\Temp\cchoDgth.s:24286  .debug_str:0000000000006839 .LASF4840
C:\Users\CYMR90~1\AppData\Local\Temp\cchoDgth.s:33723  .debug_str:000000000002c288 .LASF4841
C:\Users\CYMR90~1\AppData\Local\Temp\cchoDgth.s:28052  .debug_str:00000000000159b2 .LASF4842
C:\Users\CYMR90~1\AppData\Local\Temp\cchoDgth.s:25734  .debug_str:000000000000c73b .LASF4843
C:\Users\CYMR90~1\AppData\Local\Temp\cchoDgth.s:27912  .debug_str:0000000000015160 .LASF4844
C:\Users\CYMR90~1\AppData\Local\Temp\cchoDgth.s:25534  .debug_str:000000000000b9e3 .LASF4845
C:\Users\CYMR90~1\AppData\Local\Temp\cchoDgth.s:28098  .debug_str:0000000000015c6e .LASF4846
C:\Users\CYMR90~1\AppData\Local\Temp\cchoDgth.s:26988  .debug_str:00000000000114e3 .LASF4847
C:\Users\CYMR90~1\AppData\Local\Temp\cchoDgth.s:26916  .debug_str:00000000000110bf .LASF4848
C:\Users\CYMR90~1\AppData\Local\Temp\cchoDgth.s:27234  .debug_str:000000000001259b .LASF4849
C:\Users\CYMR90~1\AppData\Local\Temp\cchoDgth.s:27976  .debug_str:0000000000015578 .LASF4850
C:\Users\CYMR90~1\AppData\Local\Temp\cchoDgth.s:26898  .debug_str:0000000000010fdc .LASF4851
C:\Users\CYMR90~1\AppData\Local\Temp\cchoDgth.s:32875  .debug_str:0000000000028f3a .LASF4852
C:\Users\CYMR90~1\AppData\Local\Temp\cchoDgth.s:24548  .debug_str:000000000000790e .LASF4853
C:\Users\CYMR90~1\AppData\Local\Temp\cchoDgth.s:33771  .debug_str:000000000002c580 .LASF4854
C:\Users\CYMR90~1\AppData\Local\Temp\cchoDgth.s:33787  .debug_str:000000000002c710 .LASF4855
C:\Users\CYMR90~1\AppData\Local\Temp\cchoDgth.s:30929  .debug_str:00000000000212a6 .LASF4856
C:\Users\CYMR90~1\AppData\Local\Temp\cchoDgth.s:22834  .debug_str:0000000000000ca6 .LASF4857
C:\Users\CYMR90~1\AppData\Local\Temp\cchoDgth.s:25576  .debug_str:000000000000bccd .LASF4858
C:\Users\CYMR90~1\AppData\Local\Temp\cchoDgth.s:30371  .debug_str:000000000001f085 .LASF4859
C:\Users\CYMR90~1\AppData\Local\Temp\cchoDgth.s:24274  .debug_str:000000000000678c .LASF4860
C:\Users\CYMR90~1\AppData\Local\Temp\cchoDgth.s:24738  .debug_str:00000000000086bd .LASF4861
C:\Users\CYMR90~1\AppData\Local\Temp\cchoDgth.s:27424  .debug_str:000000000001320e .LASF4862
C:\Users\CYMR90~1\AppData\Local\Temp\cchoDgth.s:26832  .debug_str:0000000000010bad .LASF4863
C:\Users\CYMR90~1\AppData\Local\Temp\cchoDgth.s:31225  .debug_str:00000000000224ee .LASF4864
C:\Users\CYMR90~1\AppData\Local\Temp\cchoDgth.s:30243  .debug_str:000000000001e90e .LASF4865
C:\Users\CYMR90~1\AppData\Local\Temp\cchoDgth.s:23952  .debug_str:00000000000053e2 .LASF4866
C:\Users\CYMR90~1\AppData\Local\Temp\cchoDgth.s:27958  .debug_str:000000000001544c .LASF4867
C:\Users\CYMR90~1\AppData\Local\Temp\cchoDgth.s:28156  .debug_str:000000000001603d .LASF4868
C:\Users\CYMR90~1\AppData\Local\Temp\cchoDgth.s:24188  .debug_str:000000000000624f .LASF4869
C:\Users\CYMR90~1\AppData\Local\Temp\cchoDgth.s:29163  .debug_str:000000000001a2db .LASF4870
C:\Users\CYMR90~1\AppData\Local\Temp\cchoDgth.s:27986  .debug_str:00000000000155e3 .LASF4871
C:\Users\CYMR90~1\AppData\Local\Temp\cchoDgth.s:30691  .debug_str:0000000000020461 .LASF4872
C:\Users\CYMR90~1\AppData\Local\Temp\cchoDgth.s:32907  .debug_str:0000000000029131 .LASF4873
C:\Users\CYMR90~1\AppData\Local\Temp\cchoDgth.s:27646  .debug_str:0000000000014065 .LASF4874
C:\Users\CYMR90~1\AppData\Local\Temp\cchoDgth.s:27576  .debug_str:0000000000013c36 .LASF4875
C:\Users\CYMR90~1\AppData\Local\Temp\cchoDgth.s:23242  .debug_str:0000000000002569 .LASF4876
C:\Users\CYMR90~1\AppData\Local\Temp\cchoDgth.s:30299  .debug_str:000000000001ec7d .LASF4877
C:\Users\CYMR90~1\AppData\Local\Temp\cchoDgth.s:29745  .debug_str:000000000001c81c .LASF4878
C:\Users\CYMR90~1\AppData\Local\Temp\cchoDgth.s:25452  .debug_str:000000000000b499 .LASF4879
C:\Users\CYMR90~1\AppData\Local\Temp\cchoDgth.s:24328  .debug_str:0000000000006b06 .LASF4880
C:\Users\CYMR90~1\AppData\Local\Temp\cchoDgth.s:23100  .debug_str:0000000000001d48 .LASF4881
C:\Users\CYMR90~1\AppData\Local\Temp\cchoDgth.s:24918  .debug_str:0000000000009277 .LASF4882
C:\Users\CYMR90~1\AppData\Local\Temp\cchoDgth.s:25088  .debug_str:0000000000009cc3 .LASF4883
C:\Users\CYMR90~1\AppData\Local\Temp\cchoDgth.s:23112  .debug_str:0000000000001de9 .LASF4884
C:\Users\CYMR90~1\AppData\Local\Temp\cchoDgth.s:33811  .debug_str:000000000002c880 .LASF4885
C:\Users\CYMR90~1\AppData\Local\Temp\cchoDgth.s:27860  .debug_str:0000000000014dca .LASF4886
C:\Users\CYMR90~1\AppData\Local\Temp\cchoDgth.s:28268  .debug_str:0000000000016744 .LASF4887
C:\Users\CYMR90~1\AppData\Local\Temp\cchoDgth.s:27354  .debug_str:0000000000012d7d .LASF4888
C:\Users\CYMR90~1\AppData\Local\Temp\cchoDgth.s:25416  .debug_str:000000000000b278 .LASF4889
C:\Users\CYMR90~1\AppData\Local\Temp\cchoDgth.s:27926  .debug_str:0000000000015250 .LASF4890
C:\Users\CYMR90~1\AppData\Local\Temp\cchoDgth.s:24468  .debug_str:00000000000073fd .LASF4891
C:\Users\CYMR90~1\AppData\Local\Temp\cchoDgth.s:28705  .debug_str:00000000000184cc .LASF4892
C:\Users\CYMR90~1\AppData\Local\Temp\cchoDgth.s:26572  .debug_str:000000000000fc27 .LASF4893
C:\Users\CYMR90~1\AppData\Local\Temp\cchoDgth.s:28082  .debug_str:0000000000015b80 .LASF4894
C:\Users\CYMR90~1\AppData\Local\Temp\cchoDgth.s:24616  .debug_str:0000000000007db2 .LASF4895
C:\Users\CYMR90~1\AppData\Local\Temp\cchoDgth.s:29383  .debug_str:000000000001b1d3 .LASF4896
C:\Users\CYMR90~1\AppData\Local\Temp\cchoDgth.s:34059  .debug_str:000000000002d885 .LASF4897
C:\Users\CYMR90~1\AppData\Local\Temp\cchoDgth.s:23538  .debug_str:00000000000038a9 .LASF4898
C:\Users\CYMR90~1\AppData\Local\Temp\cchoDgth.s:27216  .debug_str:000000000001245f .LASF4899
C:\Users\CYMR90~1\AppData\Local\Temp\cchoDgth.s:31427  .debug_str:00000000000230b3 .LASF4900
C:\Users\CYMR90~1\AppData\Local\Temp\cchoDgth.s:23906  .debug_str:000000000000511e .LASF4901
C:\Users\CYMR90~1\AppData\Local\Temp\cchoDgth.s:23118  .debug_str:0000000000001e56 .LASF4902
C:\Users\CYMR90~1\AppData\Local\Temp\cchoDgth.s:25082  .debug_str:0000000000009c52 .LASF4903
C:\Users\CYMR90~1\AppData\Local\Temp\cchoDgth.s:25984  .debug_str:000000000000d798 .LASF4904
C:\Users\CYMR90~1\AppData\Local\Temp\cchoDgth.s:23190  .debug_str:0000000000002245 .LASF4905
C:\Users\CYMR90~1\AppData\Local\Temp\cchoDgth.s:30709  .debug_str:000000000002055a .LASF4906
C:\Users\CYMR90~1\AppData\Local\Temp\cchoDgth.s:30809  .debug_str:0000000000020b66 .LASF4907
C:\Users\CYMR90~1\AppData\Local\Temp\cchoDgth.s:32567  .debug_str:0000000000027a1e .LASF4908
C:\Users\CYMR90~1\AppData\Local\Temp\cchoDgth.s:23054  .debug_str:0000000000001a82 .LASF4909
C:\Users\CYMR90~1\AppData\Local\Temp\cchoDgth.s:26592  .debug_str:000000000000fd43 .LASF4910
C:\Users\CYMR90~1\AppData\Local\Temp\cchoDgth.s:26028  .debug_str:000000000000da55 .LASF4911
C:\Users\CYMR90~1\AppData\Local\Temp\cchoDgth.s:32005  .debug_str:0000000000025521 .LASF4912
C:\Users\CYMR90~1\AppData\Local\Temp\cchoDgth.s:33493  .debug_str:000000000002b3df .LASF4913
C:\Users\CYMR90~1\AppData\Local\Temp\cchoDgth.s:28425  .debug_str:00000000000173c0 .LASF4914
C:\Users\CYMR90~1\AppData\Local\Temp\cchoDgth.s:28541  .debug_str:0000000000017ab7 .LASF4915
C:\Users\CYMR90~1\AppData\Local\Temp\cchoDgth.s:30109  .debug_str:000000000001e051 .LASF4916
C:\Users\CYMR90~1\AppData\Local\Temp\cchoDgth.s:25212  .debug_str:000000000000a46c .LASF4917
C:\Users\CYMR90~1\AppData\Local\Temp\cchoDgth.s:30557  .debug_str:000000000001fbcc .LASF4918
C:\Users\CYMR90~1\AppData\Local\Temp\cchoDgth.s:32895  .debug_str:000000000002908d .LASF4919
C:\Users\CYMR90~1\AppData\Local\Temp\cchoDgth.s:27346  .debug_str:0000000000012d10 .LASF4920
C:\Users\CYMR90~1\AppData\Local\Temp\cchoDgth.s:23542  .debug_str:00000000000038e2 .LASF4921
C:\Users\CYMR90~1\AppData\Local\Temp\cchoDgth.s:27516  .debug_str:000000000001388f .LASF4922
C:\Users\CYMR90~1\AppData\Local\Temp\cchoDgth.s:32717  .debug_str:0000000000028408 .LASF4923
C:\Users\CYMR90~1\AppData\Local\Temp\cchoDgth.s:25090  .debug_str:0000000000009cdb .LASF4924
C:\Users\CYMR90~1\AppData\Local\Temp\cchoDgth.s:25588  .debug_str:000000000000bd56 .LASF4925
C:\Users\CYMR90~1\AppData\Local\Temp\cchoDgth.s:31759  .debug_str:0000000000024467 .LASF4926
C:\Users\CYMR90~1\AppData\Local\Temp\cchoDgth.s:31865  .debug_str:0000000000024bee .LASF4927
C:\Users\CYMR90~1\AppData\Local\Temp\cchoDgth.s:28054  .debug_str:00000000000159c8 .LASF4928
C:\Users\CYMR90~1\AppData\Local\Temp\cchoDgth.s:30623  .debug_str:000000000002000b .LASF4929
C:\Users\CYMR90~1\AppData\Local\Temp\cchoDgth.s:28401  .debug_str:000000000001726d .LASF4930
C:\Users\CYMR90~1\AppData\Local\Temp\cchoDgth.s:23508  .debug_str:00000000000036b8 .LASF4931
C:\Users\CYMR90~1\AppData\Local\Temp\cchoDgth.s:23838  .debug_str:0000000000004cf5 .LASF4932
C:\Users\CYMR90~1\AppData\Local\Temp\cchoDgth.s:24238  .debug_str:000000000000656a .LASF4933
C:\Users\CYMR90~1\AppData\Local\Temp\cchoDgth.s:32359  .debug_str:0000000000026d67 .LASF4934
C:\Users\CYMR90~1\AppData\Local\Temp\cchoDgth.s:33275  .debug_str:000000000002a766 .LASF4935
C:\Users\CYMR90~1\AppData\Local\Temp\cchoDgth.s:22744  .debug_str:00000000000006f8 .LASF4936
C:\Users\CYMR90~1\AppData\Local\Temp\cchoDgth.s:29297  .debug_str:000000000001ac7b .LASF4937
C:\Users\CYMR90~1\AppData\Local\Temp\cchoDgth.s:33751  .debug_str:000000000002c446 .LASF4938
C:\Users\CYMR90~1\AppData\Local\Temp\cchoDgth.s:25398  .debug_str:000000000000b0c5 .LASF4939
C:\Users\CYMR90~1\AppData\Local\Temp\cchoDgth.s:24322  .debug_str:0000000000006aae .LASF4940
C:\Users\CYMR90~1\AppData\Local\Temp\cchoDgth.s:32669  .debug_str:00000000000280aa .LASF4941
C:\Users\CYMR90~1\AppData\Local\Temp\cchoDgth.s:29321  .debug_str:000000000001ade2 .LASF4942
C:\Users\CYMR90~1\AppData\Local\Temp\cchoDgth.s:30459  .debug_str:000000000001f60a .LASF4943
C:\Users\CYMR90~1\AppData\Local\Temp\cchoDgth.s:29583  .debug_str:000000000001be4b .LASF4944
C:\Users\CYMR90~1\AppData\Local\Temp\cchoDgth.s:24034  .debug_str:00000000000058f4 .LASF4945
C:\Users\CYMR90~1\AppData\Local\Temp\cchoDgth.s:31525  .debug_str:00000000000236cf .LASF4946
C:\Users\CYMR90~1\AppData\Local\Temp\cchoDgth.s:31545  .debug_str:00000000000237b4 .LASF4947
C:\Users\CYMR90~1\AppData\Local\Temp\cchoDgth.s:32045  .debug_str:00000000000257b4 .LASF4948
C:\Users\CYMR90~1\AppData\Local\Temp\cchoDgth.s:32983  .debug_str:0000000000029554 .LASF4949
C:\Users\CYMR90~1\AppData\Local\Temp\cchoDgth.s:31589  .debug_str:0000000000023a48 .LASF4950
C:\Users\CYMR90~1\AppData\Local\Temp\cchoDgth.s:33107  .debug_str:0000000000029d7f .LASF4951
C:\Users\CYMR90~1\AppData\Local\Temp\cchoDgth.s:27430  .debug_str:000000000001326c .LASF4952
C:\Users\CYMR90~1\AppData\Local\Temp\cchoDgth.s:27256  .debug_str:00000000000126f0 .LASF4953
C:\Users\CYMR90~1\AppData\Local\Temp\cchoDgth.s:31103  .debug_str:0000000000021d5e .LASF4954
C:\Users\CYMR90~1\AppData\Local\Temp\cchoDgth.s:34031  .debug_str:000000000002d6bc .LASF4955
C:\Users\CYMR90~1\AppData\Local\Temp\cchoDgth.s:27434  .debug_str:00000000000132b0 .LASF4956
C:\Users\CYMR90~1\AppData\Local\Temp\cchoDgth.s:28619  .debug_str:0000000000017f8d .LASF4957
C:\Users\CYMR90~1\AppData\Local\Temp\cchoDgth.s:23898  .debug_str:00000000000050aa .LASF4958
C:\Users\CYMR90~1\AppData\Local\Temp\cchoDgth.s:31087  .debug_str:0000000000021c7c .LASF4959
C:\Users\CYMR90~1\AppData\Local\Temp\cchoDgth.s:28338  .debug_str:0000000000016c2e .LASF4960
C:\Users\CYMR90~1\AppData\Local\Temp\cchoDgth.s:23408  .debug_str:000000000000301c .LASF4961
C:\Users\CYMR90~1\AppData\Local\Temp\cchoDgth.s:30365  .debug_str:000000000001f037 .LASF4962
C:\Users\CYMR90~1\AppData\Local\Temp\cchoDgth.s:31327  .debug_str:0000000000022aa6 .LASF4963
C:\Users\CYMR90~1\AppData\Local\Temp\cchoDgth.s:32767  .debug_str:0000000000028747 .LASF4964
C:\Users\CYMR90~1\AppData\Local\Temp\cchoDgth.s:31799  .debug_str:00000000000246af .LASF4965
C:\Users\CYMR90~1\AppData\Local\Temp\cchoDgth.s:29989  .debug_str:000000000001d8b4 .LASF4966
C:\Users\CYMR90~1\AppData\Local\Temp\cchoDgth.s:29971  .debug_str:000000000001d7a2 .LASF4967
C:\Users\CYMR90~1\AppData\Local\Temp\cchoDgth.s:22888  .debug_str:0000000000001066 .LASF4968
C:\Users\CYMR90~1\AppData\Local\Temp\cchoDgth.s:25652  .debug_str:000000000000c22c .LASF4969
C:\Users\CYMR90~1\AppData\Local\Temp\cchoDgth.s:28721  .debug_str:00000000000185b8 .LASF4970
C:\Users\CYMR90~1\AppData\Local\Temp\cchoDgth.s:24494  .debug_str:00000000000075d8 .LASF4971
C:\Users\CYMR90~1\AppData\Local\Temp\cchoDgth.s:29303  .debug_str:000000000001acc5 .LASF4972
C:\Users\CYMR90~1\AppData\Local\Temp\cchoDgth.s:33223  .debug_str:000000000002a453 .LASF4973
C:\Users\CYMR90~1\AppData\Local\Temp\cchoDgth.s:25770  .debug_str:000000000000c969 .LASF4974
C:\Users\CYMR90~1\AppData\Local\Temp\cchoDgth.s:25382  .debug_str:000000000000af88 .LASF4975
C:\Users\CYMR90~1\AppData\Local\Temp\cchoDgth.s:26402  .debug_str:000000000000f14c .LASF4976
C:\Users\CYMR90~1\AppData\Local\Temp\cchoDgth.s:24362  .debug_str:0000000000006d2b .LASF4977
C:\Users\CYMR90~1\AppData\Local\Temp\cchoDgth.s:34043  .debug_str:000000000002d78b .LASF4978
C:\Users\CYMR90~1\AppData\Local\Temp\cchoDgth.s:23246  .debug_str:000000000000259f .LASF4979
C:\Users\CYMR90~1\AppData\Local\Temp\cchoDgth.s:31575  .debug_str:000000000002396c .LASF4980
C:\Users\CYMR90~1\AppData\Local\Temp\cchoDgth.s:28324  .debug_str:0000000000016b04 .LASF4981
C:\Users\CYMR90~1\AppData\Local\Temp\cchoDgth.s:33449  .debug_str:000000000002b173 .LASF4982
C:\Users\CYMR90~1\AppData\Local\Temp\cchoDgth.s:26590  .debug_str:000000000000fd23 .LASF4983
C:\Users\CYMR90~1\AppData\Local\Temp\cchoDgth.s:32761  .debug_str:00000000000286d5 .LASF4984
C:\Users\CYMR90~1\AppData\Local\Temp\cchoDgth.s:24570  .debug_str:0000000000007a8c .LASF4985
C:\Users\CYMR90~1\AppData\Local\Temp\cchoDgth.s:26002  .debug_str:000000000000d8ed .LASF4986
C:\Users\CYMR90~1\AppData\Local\Temp\cchoDgth.s:33941  .debug_str:000000000002d106 .LASF4987
C:\Users\CYMR90~1\AppData\Local\Temp\cchoDgth.s:25632  .debug_str:000000000000c0bb .LASF4988
C:\Users\CYMR90~1\AppData\Local\Temp\cchoDgth.s:25186  .debug_str:000000000000a2d5 .LASF4989
C:\Users\CYMR90~1\AppData\Local\Temp\cchoDgth.s:32673  .debug_str:0000000000028102 .LASF4990
C:\Users\CYMR90~1\AppData\Local\Temp\cchoDgth.s:27044  .debug_str:000000000001185a .LASF4991
C:\Users\CYMR90~1\AppData\Local\Temp\cchoDgth.s:23814  .debug_str:0000000000004b84 .LASF4992
C:\Users\CYMR90~1\AppData\Local\Temp\cchoDgth.s:25130  .debug_str:0000000000009f35 .LASF4993
C:\Users\CYMR90~1\AppData\Local\Temp\cchoDgth.s:28943  .debug_str:00000000000194f9 .LASF4994
C:\Users\CYMR90~1\AppData\Local\Temp\cchoDgth.s:29931  .debug_str:000000000001d543 .LASF4995
C:\Users\CYMR90~1\AppData\Local\Temp\cchoDgth.s:30151  .debug_str:000000000001e3b5 .LASF4996
C:\Users\CYMR90~1\AppData\Local\Temp\cchoDgth.s:27158  .debug_str:0000000000012095 .LASF4997
C:\Users\CYMR90~1\AppData\Local\Temp\cchoDgth.s:28112  .debug_str:0000000000015d2c .LASF4998
C:\Users\CYMR90~1\AppData\Local\Temp\cchoDgth.s:26238  .debug_str:000000000000e732 .LASF4999
C:\Users\CYMR90~1\AppData\Local\Temp\cchoDgth.s:29121  .debug_str:000000000001a074 .LASF5000
C:\Users\CYMR90~1\AppData\Local\Temp\cchoDgth.s:28861  .debug_str:0000000000018e75 .LASF5001
C:\Users\CYMR90~1\AppData\Local\Temp\cchoDgth.s:31651  .debug_str:0000000000023e46 .LASF5002
C:\Users\CYMR90~1\AppData\Local\Temp\cchoDgth.s:23772  .debug_str:0000000000004811 .LASF5003
C:\Users\CYMR90~1\AppData\Local\Temp\cchoDgth.s:22816  .debug_str:0000000000000bab .LASF5004
C:\Users\CYMR90~1\AppData\Local\Temp\cchoDgth.s:27140  .debug_str:0000000000011f58 .LASF5005
C:\Users\CYMR90~1\AppData\Local\Temp\cchoDgth.s:27886  .debug_str:0000000000014f66 .LASF5006
C:\Users\CYMR90~1\AppData\Local\Temp\cchoDgth.s:33813  .debug_str:000000000002c898 .LASF5007
C:\Users\CYMR90~1\AppData\Local\Temp\cchoDgth.s:24718  .debug_str:000000000000857e .LASF5008
C:\Users\CYMR90~1\AppData\Local\Temp\cchoDgth.s:25378  .debug_str:000000000000af3e .LASF5009
C:\Users\CYMR90~1\AppData\Local\Temp\cchoDgth.s:28953  .debug_str:000000000001959a .LASF5010
C:\Users\CYMR90~1\AppData\Local\Temp\cchoDgth.s:26176  .debug_str:000000000000e388 .LASF5011
C:\Users\CYMR90~1\AppData\Local\Temp\cchoDgth.s:33863  .debug_str:000000000002cc31 .LASF5012
C:\Users\CYMR90~1\AppData\Local\Temp\cchoDgth.s:23058  .debug_str:0000000000001ac2 .LASF5013
C:\Users\CYMR90~1\AppData\Local\Temp\cchoDgth.s:32751  .debug_str:0000000000028624 .LASF5014
C:\Users\CYMR90~1\AppData\Local\Temp\cchoDgth.s:30051  .debug_str:000000000001dcee .LASF5015
C:\Users\CYMR90~1\AppData\Local\Temp\cchoDgth.s:28381  .debug_str:0000000000017115 .LASF5016
C:\Users\CYMR90~1\AppData\Local\Temp\cchoDgth.s:25234  .debug_str:000000000000a5b9 .LASF5017
C:\Users\CYMR90~1\AppData\Local\Temp\cchoDgth.s:31149  .debug_str:0000000000022023 .LASF5018
C:\Users\CYMR90~1\AppData\Local\Temp\cchoDgth.s:27436  .debug_str:00000000000132d0 .LASF5019
C:\Users\CYMR90~1\AppData\Local\Temp\cchoDgth.s:28847  .debug_str:0000000000018d83 .LASF5020
C:\Users\CYMR90~1\AppData\Local\Temp\cchoDgth.s:27538  .debug_str:00000000000139f1 .LASF5021
C:\Users\CYMR90~1\AppData\Local\Temp\cchoDgth.s:31837  .debug_str:0000000000024a01 .LASF5022
C:\Users\CYMR90~1\AppData\Local\Temp\cchoDgth.s:24888  .debug_str:00000000000090b9 .LASF5023
C:\Users\CYMR90~1\AppData\Local\Temp\cchoDgth.s:23304  .debug_str:000000000000298d .LASF5024
C:\Users\CYMR90~1\AppData\Local\Temp\cchoDgth.s:27110  .debug_str:0000000000011d98 .LASF5025
C:\Users\CYMR90~1\AppData\Local\Temp\cchoDgth.s:30689  .debug_str:0000000000020436 .LASF5026
C:\Users\CYMR90~1\AppData\Local\Temp\cchoDgth.s:23454  .debug_str:000000000000330f .LASF5027
C:\Users\CYMR90~1\AppData\Local\Temp\cchoDgth.s:30621  .debug_str:000000000001ffcc .LASF5028
C:\Users\CYMR90~1\AppData\Local\Temp\cchoDgth.s:27524  .debug_str:0000000000013930 .LASF5029
C:\Users\CYMR90~1\AppData\Local\Temp\cchoDgth.s:33101  .debug_str:0000000000029d03 .LASF5030
C:\Users\CYMR90~1\AppData\Local\Temp\cchoDgth.s:25218  .debug_str:000000000000a4c3 .LASF5031
C:\Users\CYMR90~1\AppData\Local\Temp\cchoDgth.s:28939  .debug_str:00000000000194a6 .LASF5032
C:\Users\CYMR90~1\AppData\Local\Temp\cchoDgth.s:33347  .debug_str:000000000002ab7c .LASF5033
C:\Users\CYMR90~1\AppData\Local\Temp\cchoDgth.s:24276  .debug_str:00000000000067a3 .LASF5034
C:\Users\CYMR90~1\AppData\Local\Temp\cchoDgth.s:33341  .debug_str:000000000002ab13 .LASF5035
C:\Users\CYMR90~1\AppData\Local\Temp\cchoDgth.s:23386  .debug_str:0000000000002ec2 .LASF5036
C:\Users\CYMR90~1\AppData\Local\Temp\cchoDgth.s:29387  .debug_str:000000000001b210 .LASF5037
C:\Users\CYMR90~1\AppData\Local\Temp\cchoDgth.s:26504  .debug_str:000000000000f78a .LASF5038
C:\Users\CYMR90~1\AppData\Local\Temp\cchoDgth.s:27700  .debug_str:00000000000143f6 .LASF5039
C:\Users\CYMR90~1\AppData\Local\Temp\cchoDgth.s:32991  .debug_str:00000000000295d1 .LASF5040
C:\Users\CYMR90~1\AppData\Local\Temp\cchoDgth.s:22724  .debug_str:00000000000005ca .LASF5041
C:\Users\CYMR90~1\AppData\Local\Temp\cchoDgth.s:29907  .debug_str:000000000001d346 .LASF5042
C:\Users\CYMR90~1\AppData\Local\Temp\cchoDgth.s:33391  .debug_str:000000000002ae38 .LASF5043
C:\Users\CYMR90~1\AppData\Local\Temp\cchoDgth.s:23764  .debug_str:0000000000004781 .LASF5044
C:\Users\CYMR90~1\AppData\Local\Temp\cchoDgth.s:32131  .debug_str:0000000000025ea7 .LASF5045
C:\Users\CYMR90~1\AppData\Local\Temp\cchoDgth.s:30579  .debug_str:000000000001fcf5 .LASF5046
C:\Users\CYMR90~1\AppData\Local\Temp\cchoDgth.s:29723  .debug_str:000000000001c6d7 .LASF5047
C:\Users\CYMR90~1\AppData\Local\Temp\cchoDgth.s:30713  .debug_str:000000000002058c .LASF5048
C:\Users\CYMR90~1\AppData\Local\Temp\cchoDgth.s:34009  .debug_str:000000000002d593 .LASF5049
C:\Users\CYMR90~1\AppData\Local\Temp\cchoDgth.s:23512  .debug_str:00000000000036e7 .LASF5050
C:\Users\CYMR90~1\AppData\Local\Temp\cchoDgth.s:30321  .debug_str:000000000001edd5 .LASF5051
C:\Users\CYMR90~1\AppData\Local\Temp\cchoDgth.s:31119  .debug_str:0000000000021e8c .LASF5052
C:\Users\CYMR90~1\AppData\Local\Temp\cchoDgth.s:23082  .debug_str:0000000000001c39 .LASF5053
C:\Users\CYMR90~1\AppData\Local\Temp\cchoDgth.s:27342  .debug_str:0000000000012cc3 .LASF5054
C:\Users\CYMR90~1\AppData\Local\Temp\cchoDgth.s:28651  .debug_str:0000000000018174 .LASF5055
C:\Users\CYMR90~1\AppData\Local\Temp\cchoDgth.s:26840  .debug_str:0000000000010bf1 .LASF5056
C:\Users\CYMR90~1\AppData\Local\Temp\cchoDgth.s:34029  .debug_str:000000000002d696 .LASF5057
C:\Users\CYMR90~1\AppData\Local\Temp\cchoDgth.s:29345  .debug_str:000000000001afb3 .LASF5058
C:\Users\CYMR90~1\AppData\Local\Temp\cchoDgth.s:30719  .debug_str:00000000000205fd .LASF5059
C:\Users\CYMR90~1\AppData\Local\Temp\cchoDgth.s:34045  .debug_str:000000000002d7a9 .LASF5060
C:\Users\CYMR90~1\AppData\Local\Temp\cchoDgth.s:27810  .debug_str:0000000000014ab5 .LASF5061
C:\Users\CYMR90~1\AppData\Local\Temp\cchoDgth.s:29195  .debug_str:000000000001a49d .LASF5062
C:\Users\CYMR90~1\AppData\Local\Temp\cchoDgth.s:23996  .debug_str:00000000000056a4 .LASF5063
C:\Users\CYMR90~1\AppData\Local\Temp\cchoDgth.s:31859  .debug_str:0000000000024b67 .LASF5064
C:\Users\CYMR90~1\AppData\Local\Temp\cchoDgth.s:32755  .debug_str:0000000000028667 .LASF5065
C:\Users\CYMR90~1\AppData\Local\Temp\cchoDgth.s:24592  .debug_str:0000000000007be6 .LASF5066
C:\Users\CYMR90~1\AppData\Local\Temp\cchoDgth.s:33821  .debug_str:000000000002c93f .LASF5067
C:\Users\CYMR90~1\AppData\Local\Temp\cchoDgth.s:26356  .debug_str:000000000000eee4 .LASF5068
C:\Users\CYMR90~1\AppData\Local\Temp\cchoDgth.s:32355  .debug_str:0000000000026d10 .LASF5069
C:\Users\CYMR90~1\AppData\Local\Temp\cchoDgth.s:24700  .debug_str:0000000000008468 .LASF5070
C:\Users\CYMR90~1\AppData\Local\Temp\cchoDgth.s:24292  .debug_str:0000000000006897 .LASF5071
C:\Users\CYMR90~1\AppData\Local\Temp\cchoDgth.s:23888  .debug_str:0000000000005005 .LASF5072
C:\Users\CYMR90~1\AppData\Local\Temp\cchoDgth.s:32577  .debug_str:0000000000027b57 .LASF5073
C:\Users\CYMR90~1\AppData\Local\Temp\cchoDgth.s:28697  .debug_str:0000000000018434 .LASF5074
C:\Users\CYMR90~1\AppData\Local\Temp\cchoDgth.s:27286  .debug_str:00000000000128e8 .LASF5075
C:\Users\CYMR90~1\AppData\Local\Temp\cchoDgth.s:25796  .debug_str:000000000000cb47 .LASF5076
C:\Users\CYMR90~1\AppData\Local\Temp\cchoDgth.s:30301  .debug_str:000000000001ec9b .LASF5077
C:\Users\CYMR90~1\AppData\Local\Temp\cchoDgth.s:24936  .debug_str:0000000000009340 .LASF5078
C:\Users\CYMR90~1\AppData\Local\Temp\cchoDgth.s:33435  .debug_str:000000000002b0ad .LASF5079
C:\Users\CYMR90~1\AppData\Local\Temp\cchoDgth.s:30293  .debug_str:000000000001ebe9 .LASF5080
C:\Users\CYMR90~1\AppData\Local\Temp\cchoDgth.s:24790  .debug_str:00000000000089cd .LASF5081
C:\Users\CYMR90~1\AppData\Local\Temp\cchoDgth.s:32665  .debug_str:0000000000028078 .LASF5082
C:\Users\CYMR90~1\AppData\Local\Temp\cchoDgth.s:34051  .debug_str:000000000002d803 .LASF5083
C:\Users\CYMR90~1\AppData\Local\Temp\cchoDgth.s:30631  .debug_str:0000000000020063 .LASF5084
C:\Users\CYMR90~1\AppData\Local\Temp\cchoDgth.s:32955  .debug_str:00000000000293c7 .LASF5085
C:\Users\CYMR90~1\AppData\Local\Temp\cchoDgth.s:31075  .debug_str:0000000000021bd1 .LASF5086
C:\Users\CYMR90~1\AppData\Local\Temp\cchoDgth.s:24212  .debug_str:00000000000063f2 .LASF5087
C:\Users\CYMR90~1\AppData\Local\Temp\cchoDgth.s:29215  .debug_str:000000000001a5b4 .LASF5088
C:\Users\CYMR90~1\AppData\Local\Temp\cchoDgth.s:27894  .debug_str:0000000000015020 .LASF5089
C:\Users\CYMR90~1\AppData\Local\Temp\cchoDgth.s:26640  .debug_str:0000000000010032 .LASF5090
C:\Users\CYMR90~1\AppData\Local\Temp\cchoDgth.s:33407  .debug_str:000000000002af26 .LASF5091
C:\Users\CYMR90~1\AppData\Local\Temp\cchoDgth.s:29661  .debug_str:000000000001c2fa .LASF5092
C:\Users\CYMR90~1\AppData\Local\Temp\cchoDgth.s:31185  .debug_str:0000000000022295 .LASF5093
C:\Users\CYMR90~1\AppData\Local\Temp\cchoDgth.s:29421  .debug_str:000000000001b49e .LASF5094
C:\Users\CYMR90~1\AppData\Local\Temp\cchoDgth.s:24980  .debug_str:00000000000095d7 .LASF5095
C:\Users\CYMR90~1\AppData\Local\Temp\cchoDgth.s:22690  .debug_str:00000000000003c4 .LASF5096
C:\Users\CYMR90~1\AppData\Local\Temp\cchoDgth.s:27066  .debug_str:0000000000011a7f .LASF5097
C:\Users\CYMR90~1\AppData\Local\Temp\cchoDgth.s:23288  .debug_str:0000000000002883 .LASF5098
C:\Users\CYMR90~1\AppData\Local\Temp\cchoDgth.s:30353  .debug_str:000000000001ef9c .LASF5099
C:\Users\CYMR90~1\AppData\Local\Temp\cchoDgth.s:27916  .debug_str:00000000000151b5 .LASF5100
C:\Users\CYMR90~1\AppData\Local\Temp\cchoDgth.s:22632  .debug_str:0000000000000000 .LASF5101
C:\Users\CYMR90~1\AppData\Local\Temp\cchoDgth.s:23092  .debug_str:0000000000001cc6 .LASF5102
C:\Users\CYMR90~1\AppData\Local\Temp\cchoDgth.s:33103  .debug_str:0000000000029d30 .LASF5103
C:\Users\CYMR90~1\AppData\Local\Temp\cchoDgth.s:30559  .debug_str:000000000001fbea .LASF5104
C:\Users\CYMR90~1\AppData\Local\Temp\cchoDgth.s:32725  .debug_str:000000000002847f .LASF5105
C:\Users\CYMR90~1\AppData\Local\Temp\cchoDgth.s:24000  .debug_str:00000000000056ee .LASF5106
C:\Users\CYMR90~1\AppData\Local\Temp\cchoDgth.s:28350  .debug_str:0000000000016cf4 .LASF5107
C:\Users\CYMR90~1\AppData\Local\Temp\cchoDgth.s:30667  .debug_str:00000000000202b0 .LASF5108
C:\Users\CYMR90~1\AppData\Local\Temp\cchoDgth.s:29309  .debug_str:000000000001ad2e .LASF5109
C:\Users\CYMR90~1\AppData\Local\Temp\cchoDgth.s:34035  .debug_str:000000000002d6fe .LASF5110
C:\Users\CYMR90~1\AppData\Local\Temp\cchoDgth.s:28483  .debug_str:0000000000017711 .LASF5111
C:\Users\CYMR90~1\AppData\Local\Temp\cchoDgth.s:24182  .debug_str:00000000000061e8 .LASF5112
C:\Users\CYMR90~1\AppData\Local\Temp\cchoDgth.s:26466  .debug_str:000000000000f540 .LASF5113
C:\Users\CYMR90~1\AppData\Local\Temp\cchoDgth.s:27176  .debug_str:00000000000121d4 .LASF5114
C:\Users\CYMR90~1\AppData\Local\Temp\cchoDgth.s:28809  .debug_str:0000000000018b0f .LASF5115
C:\Users\CYMR90~1\AppData\Local\Temp\cchoDgth.s:23968  .debug_str:00000000000054ea .LASF5116
C:\Users\CYMR90~1\AppData\Local\Temp\cchoDgth.s:32117  .debug_str:0000000000025d85 .LASF5117
C:\Users\CYMR90~1\AppData\Local\Temp\cchoDgth.s:32913  .debug_str:0000000000029171 .LASF5118
C:\Users\CYMR90~1\AppData\Local\Temp\cchoDgth.s:32363  .debug_str:0000000000026d8e .LASF5119
C:\Users\CYMR90~1\AppData\Local\Temp\cchoDgth.s:26976  .debug_str:000000000001144b .LASF5120
C:\Users\CYMR90~1\AppData\Local\Temp\cchoDgth.s:25884  .debug_str:000000000000d066 .LASF5121
C:\Users\CYMR90~1\AppData\Local\Temp\cchoDgth.s:30829  .debug_str:0000000000020c7a .LASF5122
C:\Users\CYMR90~1\AppData\Local\Temp\cchoDgth.s:26542  .debug_str:000000000000fa56 .LASF5123
C:\Users\CYMR90~1\AppData\Local\Temp\cchoDgth.s:25850  .debug_str:000000000000cea1 .LASF5124
C:\Users\CYMR90~1\AppData\Local\Temp\cchoDgth.s:30869  .debug_str:0000000000020ec3 .LASF5125
C:\Users\CYMR90~1\AppData\Local\Temp\cchoDgth.s:33409  .debug_str:000000000002af4b .LASF5126
C:\Users\CYMR90~1\AppData\Local\Temp\cchoDgth.s:25662  .debug_str:000000000000c2b0 .LASF5127
C:\Users\CYMR90~1\AppData\Local\Temp\cchoDgth.s:23554  .debug_str:00000000000039c6 .LASF5128
C:\Users\CYMR90~1\AppData\Local\Temp\cchoDgth.s:24484  .debug_str:000000000000753d .LASF5129
C:\Users\CYMR90~1\AppData\Local\Temp\cchoDgth.s:26546  .debug_str:000000000000faa5 .LASF5130
C:\Users\CYMR90~1\AppData\Local\Temp\cchoDgth.s:24062  .debug_str:0000000000005aa2 .LASF5131
C:\Users\CYMR90~1\AppData\Local\Temp\cchoDgth.s:32785  .debug_str:00000000000288b2 .LASF5132
C:\Users\CYMR90~1\AppData\Local\Temp\cchoDgth.s:27232  .debug_str:0000000000012579 .LASF5133
C:\Users\CYMR90~1\AppData\Local\Temp\cchoDgth.s:23380  .debug_str:0000000000002e66 .LASF5134
C:\Users\CYMR90~1\AppData\Local\Temp\cchoDgth.s:32193  .debug_str:0000000000026332 .LASF5135
C:\Users\CYMR90~1\AppData\Local\Temp\cchoDgth.s:32589  .debug_str:0000000000027c2e .LASF5136
C:\Users\CYMR90~1\AppData\Local\Temp\cchoDgth.s:26992  .debug_str:0000000000011523 .LASF5137
C:\Users\CYMR90~1\AppData\Local\Temp\cchoDgth.s:28182  .debug_str:0000000000016215 .LASF5138
C:\Users\CYMR90~1\AppData\Local\Temp\cchoDgth.s:31579  .debug_str:00000000000239a5 .LASF5139
C:\Users\CYMR90~1\AppData\Local\Temp\cchoDgth.s:30285  .debug_str:000000000001eb69 .LASF5140
C:\Users\CYMR90~1\AppData\Local\Temp\cchoDgth.s:31215  .debug_str:0000000000022455 .LASF5141
C:\Users\CYMR90~1\AppData\Local\Temp\cchoDgth.s:34057  .debug_str:000000000002d85f .LASF5142
C:\Users\CYMR90~1\AppData\Local\Temp\cchoDgth.s:31403  .debug_str:0000000000022f38 .LASF5143
C:\Users\CYMR90~1\AppData\Local\Temp\cchoDgth.s:32019  .debug_str:000000000002561b .LASF5144
C:\Users\CYMR90~1\AppData\Local\Temp\cchoDgth.s:24574  .debug_str:0000000000007ac2 .LASF5145
C:\Users\CYMR90~1\AppData\Local\Temp\cchoDgth.s:23928  .debug_str:0000000000005264 .LASF5146
C:\Users\CYMR90~1\AppData\Local\Temp\cchoDgth.s:31435  .debug_str:000000000002311a .LASF5147
C:\Users\CYMR90~1\AppData\Local\Temp\cchoDgth.s:27296  .debug_str:000000000001298b .LASF5148
C:\Users\CYMR90~1\AppData\Local\Temp\cchoDgth.s:31913  .debug_str:0000000000024eac .LASF5149
C:\Users\CYMR90~1\AppData\Local\Temp\cchoDgth.s:33239  .debug_str:000000000002a554 .LASF5150
C:\Users\CYMR90~1\AppData\Local\Temp\cchoDgth.s:29909  .debug_str:000000000001d375 .LASF5151
C:\Users\CYMR90~1\AppData\Local\Temp\cchoDgth.s:32159  .debug_str:000000000002611b .LASF5152
C:\Users\CYMR90~1\AppData\Local\Temp\cchoDgth.s:32209  .debug_str:000000000002643d .LASF5153
C:\Users\CYMR90~1\AppData\Local\Temp\cchoDgth.s:30959  .debug_str:0000000000021453 .LASF5154
C:\Users\CYMR90~1\AppData\Local\Temp\cchoDgth.s:32715  .debug_str:00000000000283e5 .LASF5155
C:\Users\CYMR90~1\AppData\Local\Temp\cchoDgth.s:27046  .debug_str:000000000001187e .LASF5156
C:\Users\CYMR90~1\AppData\Local\Temp\cchoDgth.s:32039  .debug_str:0000000000025749 .LASF5157
C:\Users\CYMR90~1\AppData\Local\Temp\cchoDgth.s:25330  .debug_str:000000000000ac2a .LASF5158
C:\Users\CYMR90~1\AppData\Local\Temp\cchoDgth.s:26844  .debug_str:0000000000010c2a .LASF5159
C:\Users\CYMR90~1\AppData\Local\Temp\cchoDgth.s:28304  .debug_str:00000000000169d0 .LASF5160
C:\Users\CYMR90~1\AppData\Local\Temp\cchoDgth.s:24854  .debug_str:0000000000008e27 .LASF5161
C:\Users\CYMR90~1\AppData\Local\Temp\cchoDgth.s:25448  .debug_str:000000000000b471 .LASF5162
C:\Users\CYMR90~1\AppData\Local\Temp\cchoDgth.s:32217  .debug_str:00000000000264ae .LASF5163
C:\Users\CYMR90~1\AppData\Local\Temp\cchoDgth.s:22916  .debug_str:0000000000001221 .LASF5164
C:\Users\CYMR90~1\AppData\Local\Temp\cchoDgth.s:28260  .debug_str:00000000000166ca .LASF5165
C:\Users\CYMR90~1\AppData\Local\Temp\cchoDgth.s:30367  .debug_str:000000000001f04f .LASF5166
C:\Users\CYMR90~1\AppData\Local\Temp\cchoDgth.s:32711  .debug_str:000000000002839d .LASF5167
C:\Users\CYMR90~1\AppData\Local\Temp\cchoDgth.s:26302  .debug_str:000000000000eb78 .LASF5168
C:\Users\CYMR90~1\AppData\Local\Temp\cchoDgth.s:32741  .debug_str:000000000002858d .LASF5169
C:\Users\CYMR90~1\AppData\Local\Temp\cchoDgth.s:30305  .debug_str:000000000001ecef .LASF5170
C:\Users\CYMR90~1\AppData\Local\Temp\cchoDgth.s:27050  .debug_str:00000000000118c9 .LASF5171
C:\Users\CYMR90~1\AppData\Local\Temp\cchoDgth.s:30619  .debug_str:000000000001ff9b .LASF5172
C:\Users\CYMR90~1\AppData\Local\Temp\cchoDgth.s:23908  .debug_str:000000000000513c .LASF5173
C:\Users\CYMR90~1\AppData\Local\Temp\cchoDgth.s:27592  .debug_str:0000000000013d11 .LASF5174
C:\Users\CYMR90~1\AppData\Local\Temp\cchoDgth.s:30659  .debug_str:00000000000201f1 .LASF5175
C:\Users\CYMR90~1\AppData\Local\Temp\cchoDgth.s:26158  .debug_str:000000000000e27c .LASF5176
C:\Users\CYMR90~1\AppData\Local\Temp\cchoDgth.s:29867  .debug_str:000000000001d01d .LASF5177
C:\Users\CYMR90~1\AppData\Local\Temp\cchoDgth.s:26280  .debug_str:000000000000ea19 .LASF5178
C:\Users\CYMR90~1\AppData\Local\Temp\cchoDgth.s:33137  .debug_str:0000000000029f76 .LASF5179
C:\Users\CYMR90~1\AppData\Local\Temp\cchoDgth.s:33901  .debug_str:000000000002ce47 .LASF5180
C:\Users\CYMR90~1\AppData\Local\Temp\cchoDgth.s:26312  .debug_str:000000000000ebf6 .LASF5181
C:\Users\CYMR90~1\AppData\Local\Temp\cchoDgth.s:22998  .debug_str:0000000000001694 .LASF5182
C:\Users\CYMR90~1\AppData\Local\Temp\cchoDgth.s:29469  .debug_str:000000000001b7ce .LASF5183
C:\Users\CYMR90~1\AppData\Local\Temp\cchoDgth.s:32543  .debug_str:0000000000027895 .LASF5184
C:\Users\CYMR90~1\AppData\Local\Temp\cchoDgth.s:29353  .debug_str:000000000001b016 .LASF5185
C:\Users\CYMR90~1\AppData\Local\Temp\cchoDgth.s:30363  .debug_str:000000000001f021 .LASF5186
C:\Users\CYMR90~1\AppData\Local\Temp\cchoDgth.s:22840  .debug_str:0000000000000d0d .LASF5187
C:\Users\CYMR90~1\AppData\Local\Temp\cchoDgth.s:30979  .debug_str:0000000000021568 .LASF5188
C:\Users\CYMR90~1\AppData\Local\Temp\cchoDgth.s:25800  .debug_str:000000000000cbbb .LASF5189
C:\Users\CYMR90~1\AppData\Local\Temp\cchoDgth.s:28120  .debug_str:0000000000015dc4 .LASF5190
C:\Users\CYMR90~1\AppData\Local\Temp\cchoDgth.s:26566  .debug_str:000000000000fbd6 .LASF5191
C:\Users\CYMR90~1\AppData\Local\Temp\cchoDgth.s:28751  .debug_str:0000000000018789 .LASF5192
C:\Users\CYMR90~1\AppData\Local\Temp\cchoDgth.s:33399  .debug_str:000000000002aebb .LASF5193
C:\Users\CYMR90~1\AppData\Local\Temp\cchoDgth.s:26434  .debug_str:000000000000f32c .LASF5194
C:\Users\CYMR90~1\AppData\Local\Temp\cchoDgth.s:30547  .debug_str:000000000001fb38 .LASF5195
C:\Users\CYMR90~1\AppData\Local\Temp\cchoDgth.s:24552  .debug_str:0000000000007967 .LASF5196
C:\Users\CYMR90~1\AppData\Local\Temp\cchoDgth.s:32077  .debug_str:0000000000025ad2 .LASF5197
C:\Users\CYMR90~1\AppData\Local\Temp\cchoDgth.s:24426  .debug_str:0000000000007110 .LASF5198
C:\Users\CYMR90~1\AppData\Local\Temp\cchoDgth.s:32621  .debug_str:0000000000027dff .LASF5199
C:\Users\CYMR90~1\AppData\Local\Temp\cchoDgth.s:33115  .debug_str:0000000000029deb .LASF5200
C:\Users\CYMR90~1\AppData\Local\Temp\cchoDgth.s:31313  .debug_str:0000000000022a05 .LASF5201
C:\Users\CYMR90~1\AppData\Local\Temp\cchoDgth.s:28028  .debug_str:000000000001584f .LASF5202
C:\Users\CYMR90~1\AppData\Local\Temp\cchoDgth.s:24860  .debug_str:0000000000008e6e .LASF5203
C:\Users\CYMR90~1\AppData\Local\Temp\cchoDgth.s:23462  .debug_str:0000000000003399 .LASF5204
C:\Users\CYMR90~1\AppData\Local\Temp\cchoDgth.s:33809  .debug_str:000000000002c868 .LASF5205
C:\Users\CYMR90~1\AppData\Local\Temp\cchoDgth.s:25044  .debug_str:00000000000099e9 .LASF5206
C:\Users\CYMR90~1\AppData\Local\Temp\cchoDgth.s:25758  .debug_str:000000000000c8c1 .LASF5207
C:\Users\CYMR90~1\AppData\Local\Temp\cchoDgth.s:33307  .debug_str:000000000002a953 .LASF5208
C:\Users\CYMR90~1\AppData\Local\Temp\cchoDgth.s:26404  .debug_str:000000000000f16f .LASF5209
C:\Users\CYMR90~1\AppData\Local\Temp\cchoDgth.s:33003  .debug_str:00000000000296c4 .LASF5210
C:\Users\CYMR90~1\AppData\Local\Temp\cchoDgth.s:24978  .debug_str:00000000000095bf .LASF5211
C:\Users\CYMR90~1\AppData\Local\Temp\cchoDgth.s:33701  .debug_str:000000000002c13b .LASF5212
C:\Users\CYMR90~1\AppData\Local\Temp\cchoDgth.s:32279  .debug_str:0000000000026891 .LASF5213
C:\Users\CYMR90~1\AppData\Local\Temp\cchoDgth.s:26550  .debug_str:000000000000fafb .LASF5214
C:\Users\CYMR90~1\AppData\Local\Temp\cchoDgth.s:23746  .debug_str:0000000000004642 .LASF5215
C:\Users\CYMR90~1\AppData\Local\Temp\cchoDgth.s:29311  .debug_str:000000000001ad55 .LASF5216
C:\Users\CYMR90~1\AppData\Local\Temp\cchoDgth.s:32033  .debug_str:00000000000256fe .LASF5217
C:\Users\CYMR90~1\AppData\Local\Temp\cchoDgth.s:26488  .debug_str:000000000000f6b4 .LASF5218
C:\Users\CYMR90~1\AppData\Local\Temp\cchoDgth.s:22742  .debug_str:00000000000006e0 .LASF5219
C:\Users\CYMR90~1\AppData\Local\Temp\cchoDgth.s:22692  .debug_str:00000000000003ee .LASF5220
C:\Users\CYMR90~1\AppData\Local\Temp\cchoDgth.s:23050  .debug_str:0000000000001a49 .LASF5221
C:\Users\CYMR90~1\AppData\Local\Temp\cchoDgth.s:31665  .debug_str:0000000000023f4c .LASF5222
C:\Users\CYMR90~1\AppData\Local\Temp\cchoDgth.s:32335  .debug_str:0000000000026bc8 .LASF5223
C:\Users\CYMR90~1\AppData\Local\Temp\cchoDgth.s:27394  .debug_str:0000000000013013 .LASF5224
C:\Users\CYMR90~1\AppData\Local\Temp\cchoDgth.s:29347  .debug_str:000000000001afd7 .LASF5225
C:\Users\CYMR90~1\AppData\Local\Temp\cchoDgth.s:23332  .debug_str:0000000000002b40 .LASF5226
C:\Users\CYMR90~1\AppData\Local\Temp\cchoDgth.s:28128  .debug_str:0000000000015e83 .LASF5227
C:\Users\CYMR90~1\AppData\Local\Temp\cchoDgth.s:23766  .debug_str:00000000000047b0 .LASF5228
C:\Users\CYMR90~1\AppData\Local\Temp\cchoDgth.s:30053  .debug_str:000000000001dd18 .LASF5229
C:\Users\CYMR90~1\AppData\Local\Temp\cchoDgth.s:24778  .debug_str:000000000000891b .LASF5230
C:\Users\CYMR90~1\AppData\Local\Temp\cchoDgth.s:31461  .debug_str:000000000002331a .LASF5231
C:\Users\CYMR90~1\AppData\Local\Temp\cchoDgth.s:30725  .debug_str:0000000000020649 .LASF5232
C:\Users\CYMR90~1\AppData\Local\Temp\cchoDgth.s:23806  .debug_str:0000000000004b0d .LASF5233
C:\Users\CYMR90~1\AppData\Local\Temp\cchoDgth.s:24236  .debug_str:0000000000006553 .LASF5234
C:\Users\CYMR90~1\AppData\Local\Temp\cchoDgth.s:31415  .debug_str:0000000000023007 .LASF5235
C:\Users\CYMR90~1\AppData\Local\Temp\cchoDgth.s:33187  .debug_str:000000000002a22c .LASF5236
C:\Users\CYMR90~1\AppData\Local\Temp\cchoDgth.s:28927  .debug_str:0000000000019330 .LASF5237
C:\Users\CYMR90~1\AppData\Local\Temp\cchoDgth.s:25698  .debug_str:000000000000c53e .LASF5238
C:\Users\CYMR90~1\AppData\Local\Temp\cchoDgth.s:26908  .debug_str:0000000000011053 .LASF5239
C:\Users\CYMR90~1\AppData\Local\Temp\cchoDgth.s:25516  .debug_str:000000000000b8af .LASF5240
C:\Users\CYMR90~1\AppData\Local\Temp\cchoDgth.s:30835  .debug_str:0000000000020d10 .LASF5241
C:\Users\CYMR90~1\AppData\Local\Temp\cchoDgth.s:27596  .debug_str:0000000000013d64 .LASF5242
C:\Users\CYMR90~1\AppData\Local\Temp\cchoDgth.s:33141  .debug_str:0000000000029fba .LASF5243
C:\Users\CYMR90~1\AppData\Local\Temp\cchoDgth.s:26726  .debug_str:0000000000010592 .LASF5244
C:\Users\CYMR90~1\AppData\Local\Temp\cchoDgth.s:25954  .debug_str:000000000000d563 .LASF5245
C:\Users\CYMR90~1\AppData\Local\Temp\cchoDgth.s:30451  .debug_str:000000000001f59e .LASF5246
C:\Users\CYMR90~1\AppData\Local\Temp\cchoDgth.s:33727  .debug_str:000000000002c2c4 .LASF5247
C:\Users\CYMR90~1\AppData\Local\Temp\cchoDgth.s:26198  .debug_str:000000000000e507 .LASF5248
C:\Users\CYMR90~1\AppData\Local\Temp\cchoDgth.s:31593  .debug_str:0000000000023a87 .LASF5249
C:\Users\CYMR90~1\AppData\Local\Temp\cchoDgth.s:25492  .debug_str:000000000000b6b7 .LASF5250
C:\Users\CYMR90~1\AppData\Local\Temp\cchoDgth.s:31719  .debug_str:0000000000024245 .LASF5251
C:\Users\CYMR90~1\AppData\Local\Temp\cchoDgth.s:31317  .debug_str:0000000000022a36 .LASF5252
C:\Users\CYMR90~1\AppData\Local\Temp\cchoDgth.s:29183  .debug_str:000000000001a3fd .LASF5253
C:\Users\CYMR90~1\AppData\Local\Temp\cchoDgth.s:28711  .debug_str:000000000001852b .LASF5254
C:\Users\CYMR90~1\AppData\Local\Temp\cchoDgth.s:31187  .debug_str:00000000000222bb .LASF5255
C:\Users\CYMR90~1\AppData\Local\Temp\cchoDgth.s:30761  .debug_str:0000000000020826 .LASF5256
C:\Users\CYMR90~1\AppData\Local\Temp\cchoDgth.s:24628  .debug_str:0000000000007e72 .LASF5257
C:\Users\CYMR90~1\AppData\Local\Temp\cchoDgth.s:24072  .debug_str:0000000000005b61 .LASF5258
C:\Users\CYMR90~1\AppData\Local\Temp\cchoDgth.s:24374  .debug_str:0000000000006dd8 .LASF5259
C:\Users\CYMR90~1\AppData\Local\Temp\cchoDgth.s:25838  .debug_str:000000000000cdf4 .LASF5260
C:\Users\CYMR90~1\AppData\Local\Temp\cchoDgth.s:27198  .debug_str:0000000000012363 .LASF5261
C:\Users\CYMR90~1\AppData\Local\Temp\cchoDgth.s:25590  .debug_str:000000000000bd77 .LASF5262
C:\Users\CYMR90~1\AppData\Local\Temp\cchoDgth.s:32731  .debug_str:0000000000028507 .LASF5263
C:\Users\CYMR90~1\AppData\Local\Temp\cchoDgth.s:32319  .debug_str:0000000000026aee .LASF5264
C:\Users\CYMR90~1\AppData\Local\Temp\cchoDgth.s:27946  .debug_str:000000000001539d .LASF5265
C:\Users\CYMR90~1\AppData\Local\Temp\cchoDgth.s:30615  .debug_str:000000000001ff73 .LASF5266
C:\Users\CYMR90~1\AppData\Local\Temp\cchoDgth.s:27508  .debug_str:0000000000013830 .LASF5267
C:\Users\CYMR90~1\AppData\Local\Temp\cchoDgth.s:33879  .debug_str:000000000002cd1d .LASF5268
C:\Users\CYMR90~1\AppData\Local\Temp\cchoDgth.s:30097  .debug_str:000000000001df9b .LASF5269
C:\Users\CYMR90~1\AppData\Local\Temp\cchoDgth.s:30853  .debug_str:0000000000020e04 .LASF5270
C:\Users\CYMR90~1\AppData\Local\Temp\cchoDgth.s:31031  .debug_str:0000000000021890 .LASF5271
C:\Users\CYMR90~1\AppData\Local\Temp\cchoDgth.s:25916  .debug_str:000000000000d29f .LASF5272
C:\Users\CYMR90~1\AppData\Local\Temp\cchoDgth.s:30043  .debug_str:000000000001dc51 .LASF5273
C:\Users\CYMR90~1\AppData\Local\Temp\cchoDgth.s:28595  .debug_str:0000000000017e35 .LASF5274
C:\Users\CYMR90~1\AppData\Local\Temp\cchoDgth.s:27754  .debug_str:0000000000014718 .LASF5275
C:\Users\CYMR90~1\AppData\Local\Temp\cchoDgth.s:28653  .debug_str:00000000000181ba .LASF5276
C:\Users\CYMR90~1\AppData\Local\Temp\cchoDgth.s:32877  .debug_str:0000000000028f51 .LASF5277
C:\Users\CYMR90~1\AppData\Local\Temp\cchoDgth.s:25980  .debug_str:000000000000d771 .LASF5278
C:\Users\CYMR90~1\AppData\Local\Temp\cchoDgth.s:27628  .debug_str:0000000000013f77 .LASF5279
C:\Users\CYMR90~1\AppData\Local\Temp\cchoDgth.s:23330  .debug_str:0000000000002b24 .LASF5280
C:\Users\CYMR90~1\AppData\Local\Temp\cchoDgth.s:25166  .debug_str:000000000000a176 .LASF5281
C:\Users\CYMR90~1\AppData\Local\Temp\cchoDgth.s:32057  .debug_str:00000000000258fa .LASF5282
C:\Users\CYMR90~1\AppData\Local\Temp\cchoDgth.s:29957  .debug_str:000000000001d6e6 .LASF5283
C:\Users\CYMR90~1\AppData\Local\Temp\cchoDgth.s:33961  .debug_str:000000000002d274 .LASF5284
C:\Users\CYMR90~1\AppData\Local\Temp\cchoDgth.s:28132  .debug_str:0000000000015ea9 .LASF5285
C:\Users\CYMR90~1\AppData\Local\Temp\cchoDgth.s:25200  .debug_str:000000000000a3a3 .LASF5286
C:\Users\CYMR90~1\AppData\Local\Temp\cchoDgth.s:26014  .debug_str:000000000000d97c .LASF5287
C:\Users\CYMR90~1\AppData\Local\Temp\cchoDgth.s:30733  .debug_str:00000000000206a1 .LASF5288
C:\Users\CYMR90~1\AppData\Local\Temp\cchoDgth.s:32153  .debug_str:00000000000260aa .LASF5289
C:\Users\CYMR90~1\AppData\Local\Temp\cchoDgth.s:22732  .debug_str:0000000000000632 .LASF5290
C:\Users\CYMR90~1\AppData\Local\Temp\cchoDgth.s:29343  .debug_str:000000000001af62 .LASF5291
C:\Users\CYMR90~1\AppData\Local\Temp\cchoDgth.s:29401  .debug_str:000000000001b338 .LASF5292
C:\Users\CYMR90~1\AppData\Local\Temp\cchoDgth.s:26624  .debug_str:000000000000ff11 .LASF5293
C:\Users\CYMR90~1\AppData\Local\Temp\cchoDgth.s:28869  .debug_str:0000000000018ef2 .LASF5294
C:\Users\CYMR90~1\AppData\Local\Temp\cchoDgth.s:25786  .debug_str:000000000000ca77 .LASF5295
C:\Users\CYMR90~1\AppData\Local\Temp\cchoDgth.s:25918  .debug_str:000000000000d2b7 .LASF5296
C:\Users\CYMR90~1\AppData\Local\Temp\cchoDgth.s:26996  .debug_str:0000000000011567 .LASF5297
C:\Users\CYMR90~1\AppData\Local\Temp\cchoDgth.s:30091  .debug_str:000000000001df3a .LASF5298
C:\Users\CYMR90~1\AppData\Local\Temp\cchoDgth.s:24950  .debug_str:0000000000009429 .LASF5299
C:\Users\CYMR90~1\AppData\Local\Temp\cchoDgth.s:25014  .debug_str:0000000000009827 .LASF5300
C:\Users\CYMR90~1\AppData\Local\Temp\cchoDgth.s:29961  .debug_str:000000000001d715 .LASF5301
C:\Users\CYMR90~1\AppData\Local\Temp\cchoDgth.s:28531  .debug_str:00000000000179f6 .LASF5302
C:\Users\CYMR90~1\AppData\Local\Temp\cchoDgth.s:23868  .debug_str:0000000000004ecb .LASF5303
C:\Users\CYMR90~1\AppData\Local\Temp\cchoDgth.s:22640  .debug_str:00000000000000a6 .LASF5304
C:\Users\CYMR90~1\AppData\Local\Temp\cchoDgth.s:30699  .debug_str:00000000000204c4 .LASF5305
C:\Users\CYMR90~1\AppData\Local\Temp\cchoDgth.s:30149  .debug_str:000000000001e37f .LASF5306
C:\Users\CYMR90~1\AppData\Local\Temp\cchoDgth.s:30121  .debug_str:000000000001e186 .LASF5307
C:\Users\CYMR90~1\AppData\Local\Temp\cchoDgth.s:24122  .debug_str:0000000000005e75 .LASF5308
C:\Users\CYMR90~1\AppData\Local\Temp\cchoDgth.s:23270  .debug_str:0000000000002716 .LASF5309
C:\Users\CYMR90~1\AppData\Local\Temp\cchoDgth.s:30947  .debug_str:00000000000213a2 .LASF5310
C:\Users\CYMR90~1\AppData\Local\Temp\cchoDgth.s:29185  .debug_str:000000000001a414 .LASF5311
C:\Users\CYMR90~1\AppData\Local\Temp\cchoDgth.s:22734  .debug_str:000000000000064c .LASF5312
C:\Users\CYMR90~1\AppData\Local\Temp\cchoDgth.s:27226  .debug_str:00000000000124fb .LASF5313
C:\Users\CYMR90~1\AppData\Local\Temp\cchoDgth.s:30181  .debug_str:000000000001e571 .LASF5314
C:\Users\CYMR90~1\AppData\Local\Temp\cchoDgth.s:27196  .debug_str:000000000001234a .LASF5315
C:\Users\CYMR90~1\AppData\Local\Temp\cchoDgth.s:24242  .debug_str:00000000000065b5 .LASF5316
C:\Users\CYMR90~1\AppData\Local\Temp\cchoDgth.s:30431  .debug_str:000000000001f42e .LASF5317
C:\Users\CYMR90~1\AppData\Local\Temp\cchoDgth.s:28545  .debug_str:0000000000017afb .LASF5318
C:\Users\CYMR90~1\AppData\Local\Temp\cchoDgth.s:23002  .debug_str:00000000000016da .LASF5319
C:\Users\CYMR90~1\AppData\Local\Temp\cchoDgth.s:30651  .debug_str:0000000000020190 .LASF5320
C:\Users\CYMR90~1\AppData\Local\Temp\cchoDgth.s:23346  .debug_str:0000000000002c64 .LASF5321
C:\Users\CYMR90~1\AppData\Local\Temp\cchoDgth.s:31611  .debug_str:0000000000023b98 .LASF5322
C:\Users\CYMR90~1\AppData\Local\Temp\cchoDgth.s:22956  .debug_str:0000000000001439 .LASF5323
C:\Users\CYMR90~1\AppData\Local\Temp\cchoDgth.s:32485  .debug_str:00000000000274e8 .LASF5324
C:\Users\CYMR90~1\AppData\Local\Temp\cchoDgth.s:28192  .debug_str:00000000000162cb .LASF5325
C:\Users\CYMR90~1\AppData\Local\Temp\cchoDgth.s:23572  .debug_str:0000000000003ad7 .LASF5326
C:\Users\CYMR90~1\AppData\Local\Temp\cchoDgth.s:25458  .debug_str:000000000000b4e6 .LASF5327
C:\Users\CYMR90~1\AppData\Local\Temp\cchoDgth.s:31765  .debug_str:00000000000244c1 .LASF5328
C:\Users\CYMR90~1\AppData\Local\Temp\cchoDgth.s:24148  .debug_str:0000000000005fe0 .LASF5329
C:\Users\CYMR90~1\AppData\Local\Temp\cchoDgth.s:27002  .debug_str:00000000000115c6 .LASF5330
C:\Users\CYMR90~1\AppData\Local\Temp\cchoDgth.s:33699  .debug_str:000000000002c105 .LASF5331
C:\Users\CYMR90~1\AppData\Local\Temp\cchoDgth.s:33595  .debug_str:000000000002ba1c .LASF5332
C:\Users\CYMR90~1\AppData\Local\Temp\cchoDgth.s:30729  .debug_str:0000000000020674 .LASF5333
C:\Users\CYMR90~1\AppData\Local\Temp\cchoDgth.s:29025  .debug_str:00000000000199b2 .LASF5334
C:\Users\CYMR90~1\AppData\Local\Temp\cchoDgth.s:22878  .debug_str:0000000000000fed .LASF5335
C:\Users\CYMR90~1\AppData\Local\Temp\cchoDgth.s:30561  .debug_str:000000000001fc13 .LASF5336
C:\Users\CYMR90~1\AppData\Local\Temp\cchoDgth.s:24098  .debug_str:0000000000005cf4 .LASF5337
C:\Users\CYMR90~1\AppData\Local\Temp\cchoDgth.s:33565  .debug_str:000000000002b800 .LASF5338
C:\Users\CYMR90~1\AppData\Local\Temp\cchoDgth.s:28258  .debug_str:00000000000166ad .LASF5339
C:\Users\CYMR90~1\AppData\Local\Temp\cchoDgth.s:28048  .debug_str:000000000001597d .LASF5340
C:\Users\CYMR90~1\AppData\Local\Temp\cchoDgth.s:29095  .debug_str:0000000000019ed6 .LASF5341
C:\Users\CYMR90~1\AppData\Local\Temp\cchoDgth.s:32383  .debug_str:0000000000026ed3 .LASF5342
C:\Users\CYMR90~1\AppData\Local\Temp\cchoDgth.s:31933  .debug_str:0000000000025084 .LASF5343
C:\Users\CYMR90~1\AppData\Local\Temp\cchoDgth.s:33543  .debug_str:000000000002b6db .LASF5344
C:\Users\CYMR90~1\AppData\Local\Temp\cchoDgth.s:23618  .debug_str:0000000000003db6 .LASF5345
C:\Users\CYMR90~1\AppData\Local\Temp\cchoDgth.s:30355  .debug_str:000000000001efc8 .LASF5346
C:\Users\CYMR90~1\AppData\Local\Temp\cchoDgth.s:29615  .debug_str:000000000001c05d .LASF5347
C:\Users\CYMR90~1\AppData\Local\Temp\cchoDgth.s:27422  .debug_str:00000000000131d7 .LASF5348
C:\Users\CYMR90~1\AppData\Local\Temp\cchoDgth.s:33299  .debug_str:000000000002a8e6 .LASF5349
C:\Users\CYMR90~1\AppData\Local\Temp\cchoDgth.s:31159  .debug_str:00000000000220e8 .LASF5350
C:\Users\CYMR90~1\AppData\Local\Temp\cchoDgth.s:25038  .debug_str:0000000000009978 .LASF5351
C:\Users\CYMR90~1\AppData\Local\Temp\cchoDgth.s:33945  .debug_str:000000000002d157 .LASF5352
C:\Users\CYMR90~1\AppData\Local\Temp\cchoDgth.s:30469  .debug_str:000000000001f692 .LASF5353
C:\Users\CYMR90~1\AppData\Local\Temp\cchoDgth.s:31561  .debug_str:0000000000023893 .LASF5354
C:\Users\CYMR90~1\AppData\Local\Temp\cchoDgth.s:31111  .debug_str:0000000000021e19 .LASF5355
C:\Users\CYMR90~1\AppData\Local\Temp\cchoDgth.s:33913  .debug_str:000000000002cf13 .LASF5356
C:\Users\CYMR90~1\AppData\Local\Temp\cchoDgth.s:30329  .debug_str:000000000001ee4a .LASF5357
C:\Users\CYMR90~1\AppData\Local\Temp\cchoDgth.s:33257  .debug_str:000000000002a660 .LASF5358
C:\Users\CYMR90~1\AppData\Local\Temp\cchoDgth.s:28126  .debug_str:0000000000015e63 .LASF5359
C:\Users\CYMR90~1\AppData\Local\Temp\cchoDgth.s:30259  .debug_str:000000000001e9fc .LASF5360
C:\Users\CYMR90~1\AppData\Local\Temp\cchoDgth.s:26520  .debug_str:000000000000f87f .LASF5361
C:\Users\CYMR90~1\AppData\Local\Temp\cchoDgth.s:26508  .debug_str:000000000000f7d2 .LASF5362
C:\Users\CYMR90~1\AppData\Local\Temp\cchoDgth.s:30633  .debug_str:0000000000020082 .LASF5363
C:\Users\CYMR90~1\AppData\Local\Temp\cchoDgth.s:32375  .debug_str:0000000000026e59 .LASF5364
C:\Users\CYMR90~1\AppData\Local\Temp\cchoDgth.s:26596  .debug_str:000000000000fd7d .LASF5365
C:\Users\CYMR90~1\AppData\Local\Temp\cchoDgth.s:29039  .debug_str:0000000000019a9b .LASF5366
C:\Users\CYMR90~1\AppData\Local\Temp\cchoDgth.s:22826  .debug_str:0000000000000c3f .LASF5367
C:\Users\CYMR90~1\AppData\Local\Temp\cchoDgth.s:28581  .debug_str:0000000000017d5d .LASF5368
C:\Users\CYMR90~1\AppData\Local\Temp\cchoDgth.s:23152  .debug_str:0000000000002055 .LASF5369
C:\Users\CYMR90~1\AppData\Local\Temp\cchoDgth.s:23476  .debug_str:0000000000003486 .LASF5370
C:\Users\CYMR90~1\AppData\Local\Temp\cchoDgth.s:26258  .debug_str:000000000000e882 .LASF5371
C:\Users\CYMR90~1\AppData\Local\Temp\cchoDgth.s:26998  .debug_str:0000000000011589 .LASF5372
C:\Users\CYMR90~1\AppData\Local\Temp\cchoDgth.s:25384  .debug_str:000000000000afab .LASF5373
C:\Users\CYMR90~1\AppData\Local\Temp\cchoDgth.s:23666  .debug_str:00000000000040ec .LASF5374
C:\Users\CYMR90~1\AppData\Local\Temp\cchoDgth.s:33653  .debug_str:000000000002bdbd .LASF5375
C:\Users\CYMR90~1\AppData\Local\Temp\cchoDgth.s:25208  .debug_str:000000000000a42f .LASF5376
C:\Users\CYMR90~1\AppData\Local\Temp\cchoDgth.s:30885  .debug_str:0000000000020fa2 .LASF5377
C:\Users\CYMR90~1\AppData\Local\Temp\cchoDgth.s:30317  .debug_str:000000000001edac .LASF5378
C:\Users\CYMR90~1\AppData\Local\Temp\cchoDgth.s:33691  .debug_str:000000000002c071 .LASF5379
C:\Users\CYMR90~1\AppData\Local\Temp\cchoDgth.s:22938  .debug_str:0000000000001345 .LASF5380
C:\Users\CYMR90~1\AppData\Local\Temp\cchoDgth.s:28419  .debug_str:0000000000017354 .LASF5381
C:\Users\CYMR90~1\AppData\Local\Temp\cchoDgth.s:31227  .debug_str:0000000000022506 .LASF5382
C:\Users\CYMR90~1\AppData\Local\Temp\cchoDgth.s:30123  .debug_str:000000000001e1a8 .LASF5383
C:\Users\CYMR90~1\AppData\Local\Temp\cchoDgth.s:24396  .debug_str:0000000000006f51 .LASF5384
C:\Users\CYMR90~1\AppData\Local\Temp\cchoDgth.s:31567  .debug_str:000000000002390a .LASF5385
C:\Users\CYMR90~1\AppData\Local\Temp\cchoDgth.s:29381  .debug_str:000000000001b1a9 .LASF5386
C:\Users\CYMR90~1\AppData\Local\Temp\cchoDgth.s:26132  .debug_str:000000000000e0ed .LASF5387
C:\Users\CYMR90~1\AppData\Local\Temp\cchoDgth.s:27696  .debug_str:00000000000143a0 .LASF5388
C:\Users\CYMR90~1\AppData\Local\Temp\cchoDgth.s:32865  .debug_str:0000000000028e83 .LASF5389
C:\Users\CYMR90~1\AppData\Local\Temp\cchoDgth.s:33807  .debug_str:000000000002c82f .LASF5390
C:\Users\CYMR90~1\AppData\Local\Temp\cchoDgth.s:29935  .debug_str:000000000001d58d .LASF5391
C:\Users\CYMR90~1\AppData\Local\Temp\cchoDgth.s:33489  .debug_str:000000000002b39b .LASF5392
C:\Users\CYMR90~1\AppData\Local\Temp\cchoDgth.s:27962  .debug_str:000000000001548e .LASF5393
C:\Users\CYMR90~1\AppData\Local\Temp\cchoDgth.s:22836  .debug_str:0000000000000cbe .LASF5394
C:\Users\CYMR90~1\AppData\Local\Temp\cchoDgth.s:28142  .debug_str:0000000000015f60 .LASF5395
C:\Users\CYMR90~1\AppData\Local\Temp\cchoDgth.s:31393  .debug_str:0000000000022eb6 .LASF5396
C:\Users\CYMR90~1\AppData\Local\Temp\cchoDgth.s:26778  .debug_str:0000000000010884 .LASF5397
C:\Users\CYMR90~1\AppData\Local\Temp\cchoDgth.s:28118  .debug_str:0000000000015d96 .LASF5398
C:\Users\CYMR90~1\AppData\Local\Temp\cchoDgth.s:31477  .debug_str:0000000000023405 .LASF5399
C:\Users\CYMR90~1\AppData\Local\Temp\cchoDgth.s:30831  .debug_str:0000000000020caa .LASF5400
C:\Users\CYMR90~1\AppData\Local\Temp\cchoDgth.s:33899  .debug_str:000000000002ce1d .LASF5401
C:\Users\CYMR90~1\AppData\Local\Temp\cchoDgth.s:31789  .debug_str:0000000000024621 .LASF5402
C:\Users\CYMR90~1\AppData\Local\Temp\cchoDgth.s:31161  .debug_str:000000000002210f .LASF5403
C:\Users\CYMR90~1\AppData\Local\Temp\cchoDgth.s:30921  .debug_str:0000000000021218 .LASF5404
C:\Users\CYMR90~1\AppData\Local\Temp\cchoDgth.s:27006  .debug_str:00000000000115f1 .LASF5405
C:\Users\CYMR90~1\AppData\Local\Temp\cchoDgth.s:28947  .debug_str:0000000000019535 .LASF5406
C:\Users\CYMR90~1\AppData\Local\Temp\cchoDgth.s:31791  .debug_str:000000000002464d .LASF5407
C:\Users\CYMR90~1\AppData\Local\Temp\cchoDgth.s:22980  .debug_str:00000000000015b5 .LASF5408
C:\Users\CYMR90~1\AppData\Local\Temp\cchoDgth.s:30539  .debug_str:000000000001fac0 .LASF5409
C:\Users\CYMR90~1\AppData\Local\Temp\cchoDgth.s:31059  .debug_str:0000000000021ae0 .LASF5410
C:\Users\CYMR90~1\AppData\Local\Temp\cchoDgth.s:23170  .debug_str:0000000000002152 .LASF5411
C:\Users\CYMR90~1\AppData\Local\Temp\cchoDgth.s:30385  .debug_str:000000000001f15a .LASF5412
C:\Users\CYMR90~1\AppData\Local\Temp\cchoDgth.s:27420  .debug_str:00000000000131bf .LASF5413
C:\Users\CYMR90~1\AppData\Local\Temp\cchoDgth.s:24458  .debug_str:0000000000007361 .LASF5414
C:\Users\CYMR90~1\AppData\Local\Temp\cchoDgth.s:28815  .debug_str:0000000000018b80 .LASF5415
C:\Users\CYMR90~1\AppData\Local\Temp\cchoDgth.s:29679  .debug_str:000000000001c435 .LASF5416
C:\Users\CYMR90~1\AppData\Local\Temp\cchoDgth.s:32867  .debug_str:0000000000028ebc .LASF5417
C:\Users\CYMR90~1\AppData\Local\Temp\cchoDgth.s:23800  .debug_str:0000000000004ac9 .LASF5418
C:\Users\CYMR90~1\AppData\Local\Temp\cchoDgth.s:30279  .debug_str:000000000001eb04 .LASF5419
C:\Users\CYMR90~1\AppData\Local\Temp\cchoDgth.s:33641  .debug_str:000000000002bd20 .LASF5420
C:\Users\CYMR90~1\AppData\Local\Temp\cchoDgth.s:28457  .debug_str:000000000001758b .LASF5421
C:\Users\CYMR90~1\AppData\Local\Temp\cchoDgth.s:32615  .debug_str:0000000000027da6 .LASF5422
C:\Users\CYMR90~1\AppData\Local\Temp\cchoDgth.s:26620  .debug_str:000000000000fed3 .LASF5423
C:\Users\CYMR90~1\AppData\Local\Temp\cchoDgth.s:32811  .debug_str:0000000000028af2 .LASF5424
C:\Users\CYMR90~1\AppData\Local\Temp\cchoDgth.s:23900  .debug_str:00000000000050c4 .LASF5425
C:\Users\CYMR90~1\AppData\Local\Temp\cchoDgth.s:31877  .debug_str:0000000000024c8f .LASF5426
C:\Users\CYMR90~1\AppData\Local\Temp\cchoDgth.s:29859  .debug_str:000000000001cf93 .LASF5427
C:\Users\CYMR90~1\AppData\Local\Temp\cchoDgth.s:25286  .debug_str:000000000000a88d .LASF5428
C:\Users\CYMR90~1\AppData\Local\Temp\cchoDgth.s:29139  .debug_str:000000000001a198 .LASF5429
C:\Users\CYMR90~1\AppData\Local\Temp\cchoDgth.s:24518  .debug_str:0000000000007752 .LASF5430
C:\Users\CYMR90~1\AppData\Local\Temp\cchoDgth.s:23826  .debug_str:0000000000004c33 .LASF5431
C:\Users\CYMR90~1\AppData\Local\Temp\cchoDgth.s:31385  .debug_str:0000000000022e34 .LASF5432
C:\Users\CYMR90~1\AppData\Local\Temp\cchoDgth.s:33383  .debug_str:000000000002adb3 .LASF5433
C:\Users\CYMR90~1\AppData\Local\Temp\cchoDgth.s:33721  .debug_str:000000000002c26f .LASF5434
C:\Users\CYMR90~1\AppData\Local\Temp\cchoDgth.s:26842  .debug_str:0000000000010c10 .LASF5435
C:\Users\CYMR90~1\AppData\Local\Temp\cchoDgth.s:22672  .debug_str:0000000000000283 .LASF5436
C:\Users\CYMR90~1\AppData\Local\Temp\cchoDgth.s:33903  .debug_str:000000000002ce79 .LASF5437
C:\Users\CYMR90~1\AppData\Local\Temp\cchoDgth.s:29731  .debug_str:000000000001c76b .LASF5438
C:\Users\CYMR90~1\AppData\Local\Temp\cchoDgth.s:29535  .debug_str:000000000001bbc5 .LASF5439
C:\Users\CYMR90~1\AppData\Local\Temp\cchoDgth.s:32037  .debug_str:000000000002572c .LASF5440
C:\Users\CYMR90~1\AppData\Local\Temp\cchoDgth.s:27412  .debug_str:000000000001313f .LASF5441
C:\Users\CYMR90~1\AppData\Local\Temp\cchoDgth.s:29141  .debug_str:000000000001a1af .LASF5442
C:\Users\CYMR90~1\AppData\Local\Temp\cchoDgth.s:22920  .debug_str:0000000000001267 .LASF5443
C:\Users\CYMR90~1\AppData\Local\Temp\cchoDgth.s:24366  .debug_str:0000000000006d6b .LASF5444
C:\Users\CYMR90~1\AppData\Local\Temp\cchoDgth.s:29735  .debug_str:000000000001c79f .LASF5445
C:\Users\CYMR90~1\AppData\Local\Temp\cchoDgth.s:33161  .debug_str:000000000002a0ad .LASF5446
C:\Users\CYMR90~1\AppData\Local\Temp\cchoDgth.s:25902  .debug_str:000000000000d1d0 .LASF5447
C:\Users\CYMR90~1\AppData\Local\Temp\cchoDgth.s:25138  .debug_str:0000000000009fb1 .LASF5448
C:\Users\CYMR90~1\AppData\Local\Temp\cchoDgth.s:24596  .debug_str:0000000000007c1c .LASF5449
C:\Users\CYMR90~1\AppData\Local\Temp\cchoDgth.s:24702  .debug_str:0000000000008499 .LASF5450
C:\Users\CYMR90~1\AppData\Local\Temp\cchoDgth.s:30347  .debug_str:000000000001ef50 .LASF5451
C:\Users\CYMR90~1\AppData\Local\Temp\cchoDgth.s:31793  .debug_str:0000000000024664 .LASF5452
C:\Users\CYMR90~1\AppData\Local\Temp\cchoDgth.s:29067  .debug_str:0000000000019d07 .LASF5453
C:\Users\CYMR90~1\AppData\Local\Temp\cchoDgth.s:30955  .debug_str:0000000000021418 .LASF5454
C:\Users\CYMR90~1\AppData\Local\Temp\cchoDgth.s:30501  .debug_str:000000000001f8a0 .LASF5455
C:\Users\CYMR90~1\AppData\Local\Temp\cchoDgth.s:29821  .debug_str:000000000001cd77 .LASF5456
C:\Users\CYMR90~1\AppData\Local\Temp\cchoDgth.s:28445  .debug_str:00000000000174c5 .LASF5457
C:\Users\CYMR90~1\AppData\Local\Temp\cchoDgth.s:32431  .debug_str:00000000000271ea .LASF5458
C:\Users\CYMR90~1\AppData\Local\Temp\cchoDgth.s:29849  .debug_str:000000000001cf04 .LASF5459
C:\Users\CYMR90~1\AppData\Local\Temp\cchoDgth.s:23090  .debug_str:0000000000001cb3 .LASF5460
C:\Users\CYMR90~1\AppData\Local\Temp\cchoDgth.s:31583  .debug_str:0000000000023a03 .LASF5461
C:\Users\CYMR90~1\AppData\Local\Temp\cchoDgth.s:26894  .debug_str:0000000000010fa1 .LASF5462
C:\Users\CYMR90~1\AppData\Local\Temp\cchoDgth.s:32521  .debug_str:0000000000027763 .LASF5463
C:\Users\CYMR90~1\AppData\Local\Temp\cchoDgth.s:31667  .debug_str:0000000000023f63 .LASF5464
C:\Users\CYMR90~1\AppData\Local\Temp\cchoDgth.s:28431  .debug_str:0000000000017406 .LASF5465
C:\Users\CYMR90~1\AppData\Local\Temp\cchoDgth.s:33083  .debug_str:0000000000029bf2 .LASF5466
C:\Users\CYMR90~1\AppData\Local\Temp\cchoDgth.s:24582  .debug_str:0000000000007b4b .LASF5467
C:\Users\CYMR90~1\AppData\Local\Temp\cchoDgth.s:26854  .debug_str:0000000000010cef .LASF5468
C:\Users\CYMR90~1\AppData\Local\Temp\cchoDgth.s:26982  .debug_str:00000000000114b0 .LASF5469
C:\Users\CYMR90~1\AppData\Local\Temp\cchoDgth.s:26382  .debug_str:000000000000f050 .LASF5470
C:\Users\CYMR90~1\AppData\Local\Temp\cchoDgth.s:26516  .debug_str:000000000000f84b .LASF5471
C:\Users\CYMR90~1\AppData\Local\Temp\cchoDgth.s:32989  .debug_str:00000000000295ba .LASF5472
C:\Users\CYMR90~1\AppData\Local\Temp\cchoDgth.s:32099  .debug_str:0000000000025c29 .LASF5473
C:\Users\CYMR90~1\AppData\Local\Temp\cchoDgth.s:28286  .debug_str:00000000000168bb .LASF5474
C:\Users\CYMR90~1\AppData\Local\Temp\cchoDgth.s:31785  .debug_str:00000000000245f2 .LASF5475
C:\Users\CYMR90~1\AppData\Local\Temp\cchoDgth.s:23204  .debug_str:0000000000002321 .LASF5476
C:\Users\CYMR90~1\AppData\Local\Temp\cchoDgth.s:24450  .debug_str:00000000000072b9 .LASF5477
C:\Users\CYMR90~1\AppData\Local\Temp\cchoDgth.s:32947  .debug_str:0000000000029362 .LASF5478
C:\Users\CYMR90~1\AppData\Local\Temp\cchoDgth.s:25192  .debug_str:000000000000a32b .LASF5479
C:\Users\CYMR90~1\AppData\Local\Temp\cchoDgth.s:27672  .debug_str:0000000000014204 .LASF5480
C:\Users\CYMR90~1\AppData\Local\Temp\cchoDgth.s:26340  .debug_str:000000000000edcd .LASF5481
C:\Users\CYMR90~1\AppData\Local\Temp\cchoDgth.s:23072  .debug_str:0000000000001b96 .LASF5482
C:\Users\CYMR90~1\AppData\Local\Temp\cchoDgth.s:30917  .debug_str:00000000000211e7 .LASF5483
C:\Users\CYMR90~1\AppData\Local\Temp\cchoDgth.s:28787  .debug_str:00000000000189aa .LASF5484
C:\Users\CYMR90~1\AppData\Local\Temp\cchoDgth.s:23778  .debug_str:000000000000487c .LASF5485
C:\Users\CYMR90~1\AppData\Local\Temp\cchoDgth.s:32973  .debug_str:00000000000294ae .LASF5486
C:\Users\CYMR90~1\AppData\Local\Temp\cchoDgth.s:31439  .debug_str:0000000000023168 .LASF5487
C:\Users\CYMR90~1\AppData\Local\Temp\cchoDgth.s:30985  .debug_str:00000000000215c3 .LASF5488
C:\Users\CYMR90~1\AppData\Local\Temp\cchoDgth.s:23140  .debug_str:0000000000001f90 .LASF5489
C:\Users\CYMR90~1\AppData\Local\Temp\cchoDgth.s:32041  .debug_str:000000000002576d .LASF5490
C:\Users\CYMR90~1\AppData\Local\Temp\cchoDgth.s:24498  .debug_str:0000000000007623 .LASF5491
C:\Users\CYMR90~1\AppData\Local\Temp\cchoDgth.s:32295  .debug_str:000000000002698a .LASF5492
C:\Users\CYMR90~1\AppData\Local\Temp\cchoDgth.s:23348  .debug_str:0000000000002c83 .LASF5493
C:\Users\CYMR90~1\AppData\Local\Temp\cchoDgth.s:28056  .debug_str:00000000000159e2 .LASF5494
C:\Users\CYMR90~1\AppData\Local\Temp\cchoDgth.s:27964  .debug_str:00000000000154b9 .LASF5495
C:\Users\CYMR90~1\AppData\Local\Temp\cchoDgth.s:28879  .debug_str:0000000000019045 .LASF5496
C:\Users\CYMR90~1\AppData\Local\Temp\cchoDgth.s:25020  .debug_str:000000000000987a .LASF5497
C:\Users\CYMR90~1\AppData\Local\Temp\cchoDgth.s:30345  .debug_str:000000000001ef33 .LASF5498
C:\Users\CYMR90~1\AppData\Local\Temp\cchoDgth.s:33983  .debug_str:000000000002d389 .LASF5499
C:\Users\CYMR90~1\AppData\Local\Temp\cchoDgth.s:26570  .debug_str:000000000000fc0f .LASF5500
C:\Users\CYMR90~1\AppData\Local\Temp\cchoDgth.s:27446  .debug_str:0000000000013375 .LASF5501
C:\Users\CYMR90~1\AppData\Local\Temp\cchoDgth.s:26424  .debug_str:000000000000f2a5 .LASF5502
C:\Users\CYMR90~1\AppData\Local\Temp\cchoDgth.s:30789  .debug_str:00000000000209cd .LASF5503
C:\Users\CYMR90~1\AppData\Local\Temp\cchoDgth.s:28032  .debug_str:000000000001588c .LASF5504
C:\Users\CYMR90~1\AppData\Local\Temp\cchoDgth.s:27048  .debug_str:00000000000118a2 .LASF5505
C:\Users\CYMR90~1\AppData\Local\Temp\cchoDgth.s:31941  .debug_str:00000000000250e5 .LASF5506
C:\Users\CYMR90~1\AppData\Local\Temp\cchoDgth.s:28695  .debug_str:000000000001840c .LASF5507
C:\Users\CYMR90~1\AppData\Local\Temp\cchoDgth.s:33599  .debug_str:000000000002ba5c .LASF5508
C:\Users\CYMR90~1\AppData\Local\Temp\cchoDgth.s:30281  .debug_str:000000000001eb1a .LASF5509
C:\Users\CYMR90~1\AppData\Local\Temp\cchoDgth.s:23750  .debug_str:0000000000004676 .LASF5510
C:\Users\CYMR90~1\AppData\Local\Temp\cchoDgth.s:24906  .debug_str:00000000000091c0 .LASF5511
C:\Users\CYMR90~1\AppData\Local\Temp\cchoDgth.s:30661  .debug_str:0000000000020220 .LASF5512
C:\Users\CYMR90~1\AppData\Local\Temp\cchoDgth.s:23870  .debug_str:0000000000004f01 .LASF5513
C:\Users\CYMR90~1\AppData\Local\Temp\cchoDgth.s:33531  .debug_str:000000000002b641 .LASF5514
C:\Users\CYMR90~1\AppData\Local\Temp\cchoDgth.s:25348  .debug_str:000000000000ad47 .LASF5515
C:\Users\CYMR90~1\AppData\Local\Temp\cchoDgth.s:30073  .debug_str:000000000001de30 .LASF5516
C:\Users\CYMR90~1\AppData\Local\Temp\cchoDgth.s:29223  .debug_str:000000000001a63b .LASF5517
C:\Users\CYMR90~1\AppData\Local\Temp\cchoDgth.s:30883  .debug_str:0000000000020f79 .LASF5518
C:\Users\CYMR90~1\AppData\Local\Temp\cchoDgth.s:27272  .debug_str:00000000000127fe .LASF5519
C:\Users\CYMR90~1\AppData\Local\Temp\cchoDgth.s:26300  .debug_str:000000000000eb4f .LASF5520
C:\Users\CYMR90~1\AppData\Local\Temp\cchoDgth.s:26444  .debug_str:000000000000f3b4 .LASF5521
C:\Users\CYMR90~1\AppData\Local\Temp\cchoDgth.s:29811  .debug_str:000000000001ccbb .LASF5522
C:\Users\CYMR90~1\AppData\Local\Temp\cchoDgth.s:30909  .debug_str:0000000000021141 .LASF5523
C:\Users\CYMR90~1\AppData\Local\Temp\cchoDgth.s:22650  .debug_str:0000000000000131 .LASF5524
C:\Users\CYMR90~1\AppData\Local\Temp\cchoDgth.s:25616  .debug_str:000000000000bf5f .LASF5525
C:\Users\CYMR90~1\AppData\Local\Temp\cchoDgth.s:24506  .debug_str:00000000000076a2 .LASF5526
C:\Users\CYMR90~1\AppData\Local\Temp\cchoDgth.s:30185  .debug_str:000000000001e5a3 .LASF5527
C:\Users\CYMR90~1\AppData\Local\Temp\cchoDgth.s:33273  .debug_str:000000000002a739 .LASF5528
C:\Users\CYMR90~1\AppData\Local\Temp\cchoDgth.s:22766  .debug_str:0000000000000851 .LASF5529
C:\Users\CYMR90~1\AppData\Local\Temp\cchoDgth.s:24070  .debug_str:0000000000005b38 .LASF5530
C:\Users\CYMR90~1\AppData\Local\Temp\cchoDgth.s:23842  .debug_str:0000000000004d33 .LASF5531
C:\Users\CYMR90~1\AppData\Local\Temp\cchoDgth.s:27614  .debug_str:0000000000013e7e .LASF5532
C:\Users\CYMR90~1\AppData\Local\Temp\cchoDgth.s:25086  .debug_str:0000000000009c96 .LASF5533
C:\Users\CYMR90~1\AppData\Local\Temp\cchoDgth.s:27694  .debug_str:0000000000014373 .LASF5534
C:\Users\CYMR90~1\AppData\Local\Temp\cchoDgth.s:33923  .debug_str:000000000002cfe0 .LASF5535
C:\Users\CYMR90~1\AppData\Local\Temp\cchoDgth.s:31335  .debug_str:0000000000022b04 .LASF5536
C:\Users\CYMR90~1\AppData\Local\Temp\cchoDgth.s:23812  .debug_str:0000000000004b5a .LASF5537
C:\Users\CYMR90~1\AppData\Local\Temp\cchoDgth.s:32011  .debug_str:0000000000025570 .LASF5538
C:\Users\CYMR90~1\AppData\Local\Temp\cchoDgth.s:33673  .debug_str:000000000002bf0c .LASF5539
C:\Users\CYMR90~1\AppData\Local\Temp\cchoDgth.s:23890  .debug_str:0000000000005037 .LASF5540
C:\Users\CYMR90~1\AppData\Local\Temp\cchoDgth.s:32935  .debug_str:00000000000292b5 .LASF5541
C:\Users\CYMR90~1\AppData\Local\Temp\cchoDgth.s:25102  .debug_str:0000000000009db4 .LASF5542
C:\Users\CYMR90~1\AppData\Local\Temp\cchoDgth.s:32239  .debug_str:00000000000265ec .LASF5543
C:\Users\CYMR90~1\AppData\Local\Temp\cchoDgth.s:27352  .debug_str:0000000000012d61 .LASF5544
C:\Users\CYMR90~1\AppData\Local\Temp\cchoDgth.s:24218  .debug_str:0000000000006438 .LASF5545
C:\Users\CYMR90~1\AppData\Local\Temp\cchoDgth.s:28657  .debug_str:00000000000181e9 .LASF5546
C:\Users\CYMR90~1\AppData\Local\Temp\cchoDgth.s:31373  .debug_str:0000000000022d83 .LASF5547
C:\Users\CYMR90~1\AppData\Local\Temp\cchoDgth.s:31869  .debug_str:0000000000024c1e .LASF5548
C:\Users\CYMR90~1\AppData\Local\Temp\cchoDgth.s:29521  .debug_str:000000000001bad6 .LASF5549
C:\Users\CYMR90~1\AppData\Local\Temp\cchoDgth.s:26004  .debug_str:000000000000d90e .LASF5550
C:\Users\CYMR90~1\AppData\Local\Temp\cchoDgth.s:22910  .debug_str:00000000000011a2 .LASF5551
C:\Users\CYMR90~1\AppData\Local\Temp\cchoDgth.s:31935  .debug_str:00000000000250a0 .LASF5552
C:\Users\CYMR90~1\AppData\Local\Temp\cchoDgth.s:27090  .debug_str:0000000000011c68 .LASF5553
C:\Users\CYMR90~1\AppData\Local\Temp\cchoDgth.s:31531  .debug_str:0000000000023719 .LASF5554
C:\Users\CYMR90~1\AppData\Local\Temp\cchoDgth.s:30781  .debug_str:0000000000020944 .LASF5555
                           .group:0000000000000000 wm4.0.10abbef32179bc1260444192115bdf5e
                           .group:0000000000000000 wm4.stddef.h.39.144cf5ddcd53cbfdac30259dc1a6c87f
                           .group:0000000000000000 wm4._newlib_version.h.4.bfdf54b0af045d4a71376ae00f63a22c
                           .group:0000000000000000 wm4.newlib.h.18.08a2ecba46890ca2aa56bbe21686e6c3
                           .group:0000000000000000 wm4.ieeefp.h.202.4f2759f5758fd82153cfbf98692f2ced
                           .group:0000000000000000 wm4.features.h.22.fad1cec3bc7ff06488171438dbdcfd02
                           .group:0000000000000000 wm4.config.h.83.13bbc8852bfac55b724c9822481355b5
                           .group:0000000000000000 wm4._ansi.h.31.de524f58584151836e90d8620a16f8e8
                           .group:0000000000000000 wm4.stdio.h.31.7c0e28c411445f3f9c5b11accf882760
                           .group:0000000000000000 wm4._default_types.h.6.959254cf5f09734ea7516c89e8bb21bd
                           .group:0000000000000000 wm4.stddef.h.155.ba788add86a0e365f264484f110c3c29
                           .group:0000000000000000 wm4.cdefs.h.49.39045112216f6a021dbdffe3bf5accce
                           .group:0000000000000000 wm4.stdarg.h.34.3a23a216c0c293b3d2ea2e89281481e6
                           .group:0000000000000000 wm4._types.h.20.dd0d04dca3800a0d2a6129b87f3adbb2
                           .group:0000000000000000 wm4.stddef.h.155.3588ebfdd1e8c7ede80509bb9c3b8009
                           .group:0000000000000000 wm4._types.h.127.34941de1b2539d59d5cac00e0dd27a45
                           .group:0000000000000000 wm4.reent.h.17.e292bf8b0bec6c96e131a54347145a30
                           .group:0000000000000000 wm4.lock.h.2.c0958401bd0ce484d507ee19aacab817
                           .group:0000000000000000 wm4.reent.h.77.dcd6129ff07fe81bd5636db29abe53b2
                           .group:0000000000000000 wm4.types.h.40.8b6acba56cefbb11746718204edc8f5e
                           .group:0000000000000000 wm4._stdint.h.10.c24fa3af3bc1706662bb5593a907e841
                           .group:0000000000000000 wm4._endian.h.18.1bf9649e8e5bbc91042012680270b9ed
                           .group:0000000000000000 wm4.endian.h.9.49f3a4695c1b61e8a0808de3c4a106cb
                           .group:0000000000000000 wm4._timeval.h.32.bec3221fa7a9bb0bdde696c9c57e47d2
                           .group:0000000000000000 wm4.timespec.h.41.d855182eb0e690443ab8651bcedca6e1
                           .group:0000000000000000 wm4.select.h.19.40cd3f2bfc456b193b790c2754690ebf
                           .group:0000000000000000 wm4.types.h.51.5571ec98f267d17d3c670b7a3ba33afa
                           .group:0000000000000000 wm4.sched.h.22.c60982713a5c428609783c78f9c78d95
                           .group:0000000000000000 wm4._pthreadtypes.h.36.fcee9961c35163dde6267ef772ad1972
                           .group:0000000000000000 wm4.stdio.h.2.4aa87247282eca6c8f36f9de33d8df1a
                           .group:0000000000000000 wm4.stdio.h.81.932d0c162786b883f622b8d05c120c78
                           .group:0000000000000000 wm4.gd32vw55x.h.47.379378190858578060a317909b2c8d8a
                           .group:0000000000000000 wm4._intsup.h.10.48bafbb683905c4daa4565a85aeeb264
                           .group:0000000000000000 wm4.stdint.h.23.d53047a68f4a85177f80b422d52785ed
                           .group:0000000000000000 wm4.nmsis_version.h.19.ffa173da8efb17b1050904994d6f500e
                           .group:0000000000000000 wm4.riscv_bits.h.19.ee94eb3d39937793d4cd0a62363e5d00
                           .group:0000000000000000 wm4.riscv_encoding.h.35.f5d37fad7abbab8278b4bb6f1e32fa65
                           .group:0000000000000000 wm4.nmsis_gcc.h.61.5d70d7598ffc79c3c991d847a574cf23
                           .group:0000000000000000 wm4.core_feature_base.h.20.e99d3e75c26a8f3341d35bf20d0e1d20
                           .group:0000000000000000 wm4.core_feature_fpu.h.19.695f2200274659b530cb97cda749ff4f
                           .group:0000000000000000 wm4.core_feature_dsp.h.19.e8f8d7aa42f197807aefedb6584486cd
                           .group:0000000000000000 wm4.core_compatiable.h.19.5b8282d61b1f6889a82895616b730084
                           .group:0000000000000000 wm4.core_feature_eclic.h.19.e0c091d0cbda79e8b3b031b979ebd5a1
                           .group:0000000000000000 wm4.core_feature_timer.h.19.21a5151282de34c37dfa6d84e262aa54
                           .group:0000000000000000 wm4.system_gd32vw55x.h.32.f1fcb1212d387c35ac955b0e96ada468
                           .group:0000000000000000 wm4.gd32vw55x.h.231.3529c650aff38c9372f7e03177fd2c8a
                           .group:0000000000000000 wm4.gd32vw55x_adc.h.42.ae73acec1704ef509ccecb41a875b50e
                           .group:0000000000000000 wm4.gd32vw55x_cau.h.36.c98428fe1eae7edb4721da5c8078c974
                           .group:0000000000000000 wm4.gd32vw55x_crc.h.37.c58f296814c2300a4b067c08bd88d54e
                           .group:0000000000000000 wm4.gd32vw55x_dbg.h.36.311650c8545549d482ceca8befc5a232
                           .group:0000000000000000 wm4.gd32vw55x_dma.h.36.f4adc751172b2a7b1533dda72e948737
                           .group:0000000000000000 wm4.gd32vw55x_eclic.h.36.0411499f2b2493c67246e32ccae096c1
                           .group:0000000000000000 wm4.gd32vw55x_efuse.h.36.091404cecbab70359dfd93faec5fdb62
                           .group:0000000000000000 wm4.gd32vw55x_exti.h.36.de7508334dd12f1a6a673521a1a835f5
                           .group:0000000000000000 wm4.gd32vw55x_fmc.h.36.a4b0b94c47ffe23a2fa09260c5ed4850
                           .group:0000000000000000 wm4.gd32vw55x_fwdgt.h.36.4846b6900fd24b5bfce4986c9a8ce677
                           .group:0000000000000000 wm4.gd32vw55x_gpio.h.36.adfee1371bb58d3d9043c47bdb25a90f
                           .group:0000000000000000 wm4.gd32vw55x_hau.h.36.f3cbcbd7b67c9e5bdc7a1100b1bf3458
                           .group:0000000000000000 wm4.gd32vw55x_pkcau.h.36.bb2235f4cf4967063a51bfa9aca5ef27
                           .group:0000000000000000 wm4.gd32vw55x_pmu.h.36.4c76091f1415551526d489ccf2c42052
                           .group:0000000000000000 wm4.gd32vw55x_qspi.h.36.2d2c181cfe19b935a9641008fc786613
                           .group:0000000000000000 wm4.gd32vw55x_rcu.h.36.780a8a45c00d563711cceb445027ef47
                           .group:0000000000000000 wm4.gd32vw55x_rtc.h.36.3172855e8715659e080e0eab46fdf175
                           .group:0000000000000000 wm4.gd32vw55x_spi.h.36.9fa1be2b09fb73e4b5886e97f0e96d58
                           .group:0000000000000000 wm4.gd32vw55x_syscfg.h.36.010551f05591f5e34051d2e15df0352b
                           .group:0000000000000000 wm4.gd32vw55x_timer.h.38.2cbee78ea60d47145be361b2d2c55070
                           .group:0000000000000000 wm4.gd32vw55x_trng.h.36.c9e7807af1b1ab68d3bbb54f4ed5cd73
                           .group:0000000000000000 wm4.gd32vw55x_usart.h.36.f5c497cca17945a34f154b0e17017d02
                           .group:0000000000000000 wm4.gd32vw55x_wwdgt.h.36.f7a443b7302efc0e5c335888582ee197
                           .group:0000000000000000 wm4.gd32vw55x_i2c.h.41.9d203fda3f7aced3f4a9ccb1424bbb6a

UNDEFINED SYMBOLS
rcu_periph_reset_enable
rcu_periph_reset_disable
