   1              		.file	"gd32vw55x_hau_sha_md5.c"
   2              		.option nopic
   3              		.attribute arch, "rv32i2p0_m2p0_a2p0_c2p0"
   4              		.attribute unaligned_access, 0
   5              		.attribute stack_align, 16
   6              		.text
   7              	.Ltext0:
   8              		.cfi_sections	.debug_frame
   9              		.section	.text.hau_hash_sha_1,"ax",@progbits
  10              		.align	1
  11              		.globl	hau_hash_sha_1
  13              	hau_hash_sha_1:
  14              	.LFB347:
  15              		.file 1 "../Firmware/GD32VW55x_standard_peripheral/Source/gd32vw55x_hau_sha_md5.c"
   1:../Firmware/GD32VW55x_standard_peripheral/Source/gd32vw55x_hau_sha_md5.c **** /*!
   2:../Firmware/GD32VW55x_standard_peripheral/Source/gd32vw55x_hau_sha_md5.c ****     \file    gd32vw55x_hau_sha_md5.c
   3:../Firmware/GD32VW55x_standard_peripheral/Source/gd32vw55x_hau_sha_md5.c ****     \brief   HAU_SHA_MD5 driver
   4:../Firmware/GD32VW55x_standard_peripheral/Source/gd32vw55x_hau_sha_md5.c **** 
   5:../Firmware/GD32VW55x_standard_peripheral/Source/gd32vw55x_hau_sha_md5.c ****     \version 2025-01-16, V1.4.0, firmware for GD32VW55x
   6:../Firmware/GD32VW55x_standard_peripheral/Source/gd32vw55x_hau_sha_md5.c **** */
   7:../Firmware/GD32VW55x_standard_peripheral/Source/gd32vw55x_hau_sha_md5.c **** 
   8:../Firmware/GD32VW55x_standard_peripheral/Source/gd32vw55x_hau_sha_md5.c **** /*
   9:../Firmware/GD32VW55x_standard_peripheral/Source/gd32vw55x_hau_sha_md5.c ****     Copyright (c) 2025, GigaDevice Semiconductor Inc.
  10:../Firmware/GD32VW55x_standard_peripheral/Source/gd32vw55x_hau_sha_md5.c **** 
  11:../Firmware/GD32VW55x_standard_peripheral/Source/gd32vw55x_hau_sha_md5.c ****     Redistribution and use in source and binary forms, with or without modification,
  12:../Firmware/GD32VW55x_standard_peripheral/Source/gd32vw55x_hau_sha_md5.c **** are permitted provided that the following conditions are met:
  13:../Firmware/GD32VW55x_standard_peripheral/Source/gd32vw55x_hau_sha_md5.c **** 
  14:../Firmware/GD32VW55x_standard_peripheral/Source/gd32vw55x_hau_sha_md5.c ****     1. Redistributions of source code must retain the above copyright notice, this
  15:../Firmware/GD32VW55x_standard_peripheral/Source/gd32vw55x_hau_sha_md5.c ****        list of conditions and the following disclaimer.
  16:../Firmware/GD32VW55x_standard_peripheral/Source/gd32vw55x_hau_sha_md5.c ****     2. Redistributions in binary form must reproduce the above copyright notice,
  17:../Firmware/GD32VW55x_standard_peripheral/Source/gd32vw55x_hau_sha_md5.c ****        this list of conditions and the following disclaimer in the documentation
  18:../Firmware/GD32VW55x_standard_peripheral/Source/gd32vw55x_hau_sha_md5.c ****        and/or other materials provided with the distribution.
  19:../Firmware/GD32VW55x_standard_peripheral/Source/gd32vw55x_hau_sha_md5.c ****     3. Neither the name of the copyright holder nor the names of its contributors
  20:../Firmware/GD32VW55x_standard_peripheral/Source/gd32vw55x_hau_sha_md5.c ****        may be used to endorse or promote products derived from this software without
  21:../Firmware/GD32VW55x_standard_peripheral/Source/gd32vw55x_hau_sha_md5.c ****        specific prior written permission.
  22:../Firmware/GD32VW55x_standard_peripheral/Source/gd32vw55x_hau_sha_md5.c **** 
  23:../Firmware/GD32VW55x_standard_peripheral/Source/gd32vw55x_hau_sha_md5.c ****     THIS SOFTWARE IS PROVIDED BY THE COPYRIGHT HOLDERS AND CONTRIBUTORS "AS IS"
  24:../Firmware/GD32VW55x_standard_peripheral/Source/gd32vw55x_hau_sha_md5.c **** AND ANY EXPRESS OR IMPLIED WARRANTIES, INCLUDING, BUT NOT LIMITED TO, THE IMPLIED
  25:../Firmware/GD32VW55x_standard_peripheral/Source/gd32vw55x_hau_sha_md5.c **** WARRANTIES OF MERCHANTABILITY AND FITNESS FOR A PARTICULAR PURPOSE ARE DISCLAIMED.
  26:../Firmware/GD32VW55x_standard_peripheral/Source/gd32vw55x_hau_sha_md5.c **** IN NO EVENT SHALL THE COPYRIGHT HOLDER OR CONTRIBUTORS BE LIABLE FOR ANY DIRECT,
  27:../Firmware/GD32VW55x_standard_peripheral/Source/gd32vw55x_hau_sha_md5.c **** INDIRECT, INCIDENTAL, SPECIAL, EXEMPLARY, OR CONSEQUENTIAL DAMAGES (INCLUDING, BUT
  28:../Firmware/GD32VW55x_standard_peripheral/Source/gd32vw55x_hau_sha_md5.c **** NOT LIMITED TO, PROCUREMENT OF SUBSTITUTE GOODS OR SERVICES; LOSS OF USE, DATA, OR
  29:../Firmware/GD32VW55x_standard_peripheral/Source/gd32vw55x_hau_sha_md5.c **** PROFITS; OR BUSINESS INTERRUPTION) HOWEVER CAUSED AND ON ANY THEORY OF LIABILITY,
  30:../Firmware/GD32VW55x_standard_peripheral/Source/gd32vw55x_hau_sha_md5.c **** WHETHER IN CONTRACT, STRICT LIABILITY, OR TORT (INCLUDING NEGLIGENCE OR OTHERWISE)
  31:../Firmware/GD32VW55x_standard_peripheral/Source/gd32vw55x_hau_sha_md5.c **** ARISING IN ANY WAY OUT OF THE USE OF THIS SOFTWARE, EVEN IF ADVISED OF THE POSSIBILITY
  32:../Firmware/GD32VW55x_standard_peripheral/Source/gd32vw55x_hau_sha_md5.c **** OF SUCH DAMAGE.
  33:../Firmware/GD32VW55x_standard_peripheral/Source/gd32vw55x_hau_sha_md5.c **** */
  34:../Firmware/GD32VW55x_standard_peripheral/Source/gd32vw55x_hau_sha_md5.c **** 
  35:../Firmware/GD32VW55x_standard_peripheral/Source/gd32vw55x_hau_sha_md5.c **** #include "gd32vw55x_hau.h"
  36:../Firmware/GD32VW55x_standard_peripheral/Source/gd32vw55x_hau_sha_md5.c **** 
  37:../Firmware/GD32VW55x_standard_peripheral/Source/gd32vw55x_hau_sha_md5.c **** #define SHAMD5_BSY_TIMEOUT    ((uint32_t)0x00010000U)
  38:../Firmware/GD32VW55x_standard_peripheral/Source/gd32vw55x_hau_sha_md5.c **** 
  39:../Firmware/GD32VW55x_standard_peripheral/Source/gd32vw55x_hau_sha_md5.c **** /* HAU SHA/MD5 digest read in HASH mode */
  40:../Firmware/GD32VW55x_standard_peripheral/Source/gd32vw55x_hau_sha_md5.c **** static void hau_sha_md5_digest_read(uint32_t algo, uint8_t *output);
  41:../Firmware/GD32VW55x_standard_peripheral/Source/gd32vw55x_hau_sha_md5.c **** /* HAU digest calculate process in HASH mode */
  42:../Firmware/GD32VW55x_standard_peripheral/Source/gd32vw55x_hau_sha_md5.c **** static ErrStatus hau_hash_calculate(uint32_t algo, uint8_t *input, uint32_t in_length, uint8_t *out
  43:../Firmware/GD32VW55x_standard_peripheral/Source/gd32vw55x_hau_sha_md5.c **** /* HAU digest calculate process in HMAC mode */
  44:../Firmware/GD32VW55x_standard_peripheral/Source/gd32vw55x_hau_sha_md5.c **** static ErrStatus hau_hmac_calculate(uint32_t algo, uint8_t *key, uint32_t keysize, uint8_t *input, 
  45:../Firmware/GD32VW55x_standard_peripheral/Source/gd32vw55x_hau_sha_md5.c **** 
  46:../Firmware/GD32VW55x_standard_peripheral/Source/gd32vw55x_hau_sha_md5.c **** /*!
  47:../Firmware/GD32VW55x_standard_peripheral/Source/gd32vw55x_hau_sha_md5.c ****     \brief      calculate digest using SHA1 in HASH mode
  48:../Firmware/GD32VW55x_standard_peripheral/Source/gd32vw55x_hau_sha_md5.c ****     \param[in]  input: pointer to the input buffer
  49:../Firmware/GD32VW55x_standard_peripheral/Source/gd32vw55x_hau_sha_md5.c ****     \param[in]  in_length: length of the input buffer
  50:../Firmware/GD32VW55x_standard_peripheral/Source/gd32vw55x_hau_sha_md5.c ****     \param[in]  output: the result digest
  51:../Firmware/GD32VW55x_standard_peripheral/Source/gd32vw55x_hau_sha_md5.c ****     \param[out] none
  52:../Firmware/GD32VW55x_standard_peripheral/Source/gd32vw55x_hau_sha_md5.c ****     \retval     ErrStatus: SUCCESS or ERROR
  53:../Firmware/GD32VW55x_standard_peripheral/Source/gd32vw55x_hau_sha_md5.c **** */
  54:../Firmware/GD32VW55x_standard_peripheral/Source/gd32vw55x_hau_sha_md5.c **** ErrStatus hau_hash_sha_1(uint8_t *input, uint32_t in_length, uint8_t output[20])
  55:../Firmware/GD32VW55x_standard_peripheral/Source/gd32vw55x_hau_sha_md5.c **** {
  16              		.loc 1 55 1
  17              		.cfi_startproc
  18 0000 7971     		addi	sp,sp,-48
  19              		.cfi_def_cfa_offset 48
  20 0002 06D6     		sw	ra,44(sp)
  21 0004 22D4     		sw	s0,40(sp)
  22              		.cfi_offset 1, -4
  23              		.cfi_offset 8, -8
  24 0006 0018     		addi	s0,sp,48
  25              		.cfi_def_cfa 8, 0
  26 0008 232EA4FC 		sw	a0,-36(s0)
  27 000c 232CB4FC 		sw	a1,-40(s0)
  28 0010 232AC4FC 		sw	a2,-44(s0)
  56:../Firmware/GD32VW55x_standard_peripheral/Source/gd32vw55x_hau_sha_md5.c ****     ErrStatus ret = ERROR;
  29              		.loc 1 56 15
  30 0014 232604FE 		sw	zero,-20(s0)
  57:../Firmware/GD32VW55x_standard_peripheral/Source/gd32vw55x_hau_sha_md5.c ****     ret = hau_hash_calculate(HAU_ALGO_SHA1, input, in_length, output);
  31              		.loc 1 57 11
  32 0018 832644FD 		lw	a3,-44(s0)
  33 001c 032684FD 		lw	a2,-40(s0)
  34 0020 8325C4FD 		lw	a1,-36(s0)
  35 0024 0145     		li	a0,0
  36 0026 97000000 		call	hau_hash_calculate
  36      E7800000 
  37 002e 2326A4FE 		sw	a0,-20(s0)
  58:../Firmware/GD32VW55x_standard_peripheral/Source/gd32vw55x_hau_sha_md5.c ****     return ret;
  38              		.loc 1 58 12
  39 0032 8327C4FE 		lw	a5,-20(s0)
  59:../Firmware/GD32VW55x_standard_peripheral/Source/gd32vw55x_hau_sha_md5.c **** }
  40              		.loc 1 59 1
  41 0036 3E85     		mv	a0,a5
  42 0038 B250     		lw	ra,44(sp)
  43              		.cfi_restore 1
  44 003a 2254     		lw	s0,40(sp)
  45              		.cfi_restore 8
  46              		.cfi_def_cfa 2, 48
  47 003c 4561     		addi	sp,sp,48
  48              		.cfi_def_cfa_offset 0
  49 003e 8280     		jr	ra
  50              		.cfi_endproc
  51              	.LFE347:
  53              		.section	.text.hau_hmac_sha_1,"ax",@progbits
  54              		.align	1
  55              		.globl	hau_hmac_sha_1
  57              	hau_hmac_sha_1:
  58              	.LFB348:
  60:../Firmware/GD32VW55x_standard_peripheral/Source/gd32vw55x_hau_sha_md5.c **** 
  61:../Firmware/GD32VW55x_standard_peripheral/Source/gd32vw55x_hau_sha_md5.c **** /*!
  62:../Firmware/GD32VW55x_standard_peripheral/Source/gd32vw55x_hau_sha_md5.c ****     \brief      calculate digest using SHA1 in HMAC mode
  63:../Firmware/GD32VW55x_standard_peripheral/Source/gd32vw55x_hau_sha_md5.c ****     \param[in]  key: pointer to the key used for HMAC
  64:../Firmware/GD32VW55x_standard_peripheral/Source/gd32vw55x_hau_sha_md5.c ****     \param[in]  keysize: length of the key used for HMAC
  65:../Firmware/GD32VW55x_standard_peripheral/Source/gd32vw55x_hau_sha_md5.c ****     \param[in]  input: pointer to the input buffer
  66:../Firmware/GD32VW55x_standard_peripheral/Source/gd32vw55x_hau_sha_md5.c ****     \param[in]  in_length: length of the input buffer
  67:../Firmware/GD32VW55x_standard_peripheral/Source/gd32vw55x_hau_sha_md5.c ****     \param[in]  output: the result digest
  68:../Firmware/GD32VW55x_standard_peripheral/Source/gd32vw55x_hau_sha_md5.c ****     \param[out] none
  69:../Firmware/GD32VW55x_standard_peripheral/Source/gd32vw55x_hau_sha_md5.c ****     \retval     ErrStatus: SUCCESS or ERROR
  70:../Firmware/GD32VW55x_standard_peripheral/Source/gd32vw55x_hau_sha_md5.c **** */
  71:../Firmware/GD32VW55x_standard_peripheral/Source/gd32vw55x_hau_sha_md5.c **** ErrStatus hau_hmac_sha_1(uint8_t *key, uint32_t keysize, uint8_t *input, uint32_t in_length, uint8_
  72:../Firmware/GD32VW55x_standard_peripheral/Source/gd32vw55x_hau_sha_md5.c **** {
  59              		.loc 1 72 1
  60              		.cfi_startproc
  61 0000 3971     		addi	sp,sp,-64
  62              		.cfi_def_cfa_offset 64
  63 0002 06DE     		sw	ra,60(sp)
  64 0004 22DC     		sw	s0,56(sp)
  65              		.cfi_offset 1, -4
  66              		.cfi_offset 8, -8
  67 0006 8000     		addi	s0,sp,64
  68              		.cfi_def_cfa 8, 0
  69 0008 232EA4FC 		sw	a0,-36(s0)
  70 000c 232CB4FC 		sw	a1,-40(s0)
  71 0010 232AC4FC 		sw	a2,-44(s0)
  72 0014 2328D4FC 		sw	a3,-48(s0)
  73 0018 2326E4FC 		sw	a4,-52(s0)
  73:../Firmware/GD32VW55x_standard_peripheral/Source/gd32vw55x_hau_sha_md5.c ****     ErrStatus ret = ERROR;
  74              		.loc 1 73 15
  75 001c 232604FE 		sw	zero,-20(s0)
  74:../Firmware/GD32VW55x_standard_peripheral/Source/gd32vw55x_hau_sha_md5.c ****     ret = hau_hmac_calculate(HAU_ALGO_SHA1, key, keysize, input, in_length, output);
  76              		.loc 1 74 11
  77 0020 8327C4FC 		lw	a5,-52(s0)
  78 0024 032704FD 		lw	a4,-48(s0)
  79 0028 832644FD 		lw	a3,-44(s0)
  80 002c 032684FD 		lw	a2,-40(s0)
  81 0030 8325C4FD 		lw	a1,-36(s0)
  82 0034 0145     		li	a0,0
  83 0036 97000000 		call	hau_hmac_calculate
  83      E7800000 
  84 003e 2326A4FE 		sw	a0,-20(s0)
  75:../Firmware/GD32VW55x_standard_peripheral/Source/gd32vw55x_hau_sha_md5.c ****     return ret;
  85              		.loc 1 75 12
  86 0042 8327C4FE 		lw	a5,-20(s0)
  76:../Firmware/GD32VW55x_standard_peripheral/Source/gd32vw55x_hau_sha_md5.c **** }
  87              		.loc 1 76 1
  88 0046 3E85     		mv	a0,a5
  89 0048 F250     		lw	ra,60(sp)
  90              		.cfi_restore 1
  91 004a 6254     		lw	s0,56(sp)
  92              		.cfi_restore 8
  93              		.cfi_def_cfa 2, 64
  94 004c 2161     		addi	sp,sp,64
  95              		.cfi_def_cfa_offset 0
  96 004e 8280     		jr	ra
  97              		.cfi_endproc
  98              	.LFE348:
 100              		.section	.text.hau_hash_sha_224,"ax",@progbits
 101              		.align	1
 102              		.globl	hau_hash_sha_224
 104              	hau_hash_sha_224:
 105              	.LFB349:
  77:../Firmware/GD32VW55x_standard_peripheral/Source/gd32vw55x_hau_sha_md5.c **** 
  78:../Firmware/GD32VW55x_standard_peripheral/Source/gd32vw55x_hau_sha_md5.c **** /*!
  79:../Firmware/GD32VW55x_standard_peripheral/Source/gd32vw55x_hau_sha_md5.c ****     \brief      calculate digest using SHA224 in HASH mode
  80:../Firmware/GD32VW55x_standard_peripheral/Source/gd32vw55x_hau_sha_md5.c ****     \param[in]  input: pointer to the input buffer
  81:../Firmware/GD32VW55x_standard_peripheral/Source/gd32vw55x_hau_sha_md5.c ****     \param[in]  in_length: length of the input buffer
  82:../Firmware/GD32VW55x_standard_peripheral/Source/gd32vw55x_hau_sha_md5.c ****     \param[in]  output: the result digest
  83:../Firmware/GD32VW55x_standard_peripheral/Source/gd32vw55x_hau_sha_md5.c ****     \param[out] none
  84:../Firmware/GD32VW55x_standard_peripheral/Source/gd32vw55x_hau_sha_md5.c ****     \retval     ErrStatus: SUCCESS or ERROR
  85:../Firmware/GD32VW55x_standard_peripheral/Source/gd32vw55x_hau_sha_md5.c **** */
  86:../Firmware/GD32VW55x_standard_peripheral/Source/gd32vw55x_hau_sha_md5.c **** ErrStatus hau_hash_sha_224(uint8_t *input, uint32_t in_length, uint8_t output[28])
  87:../Firmware/GD32VW55x_standard_peripheral/Source/gd32vw55x_hau_sha_md5.c **** {
 106              		.loc 1 87 1
 107              		.cfi_startproc
 108 0000 7971     		addi	sp,sp,-48
 109              		.cfi_def_cfa_offset 48
 110 0002 06D6     		sw	ra,44(sp)
 111 0004 22D4     		sw	s0,40(sp)
 112              		.cfi_offset 1, -4
 113              		.cfi_offset 8, -8
 114 0006 0018     		addi	s0,sp,48
 115              		.cfi_def_cfa 8, 0
 116 0008 232EA4FC 		sw	a0,-36(s0)
 117 000c 232CB4FC 		sw	a1,-40(s0)
 118 0010 232AC4FC 		sw	a2,-44(s0)
  88:../Firmware/GD32VW55x_standard_peripheral/Source/gd32vw55x_hau_sha_md5.c ****     ErrStatus ret = ERROR;
 119              		.loc 1 88 15
 120 0014 232604FE 		sw	zero,-20(s0)
  89:../Firmware/GD32VW55x_standard_peripheral/Source/gd32vw55x_hau_sha_md5.c ****     ret = hau_hash_calculate(HAU_ALGO_SHA224, input, in_length, output);
 121              		.loc 1 89 11
 122 0018 832644FD 		lw	a3,-44(s0)
 123 001c 032684FD 		lw	a2,-40(s0)
 124 0020 8325C4FD 		lw	a1,-36(s0)
 125 0024 37050400 		li	a0,262144
 126 0028 97000000 		call	hau_hash_calculate
 126      E7800000 
 127 0030 2326A4FE 		sw	a0,-20(s0)
  90:../Firmware/GD32VW55x_standard_peripheral/Source/gd32vw55x_hau_sha_md5.c ****     return ret;
 128              		.loc 1 90 12
 129 0034 8327C4FE 		lw	a5,-20(s0)
  91:../Firmware/GD32VW55x_standard_peripheral/Source/gd32vw55x_hau_sha_md5.c **** }
 130              		.loc 1 91 1
 131 0038 3E85     		mv	a0,a5
 132 003a B250     		lw	ra,44(sp)
 133              		.cfi_restore 1
 134 003c 2254     		lw	s0,40(sp)
 135              		.cfi_restore 8
 136              		.cfi_def_cfa 2, 48
 137 003e 4561     		addi	sp,sp,48
 138              		.cfi_def_cfa_offset 0
 139 0040 8280     		jr	ra
 140              		.cfi_endproc
 141              	.LFE349:
 143              		.section	.text.hau_hmac_sha_224,"ax",@progbits
 144              		.align	1
 145              		.globl	hau_hmac_sha_224
 147              	hau_hmac_sha_224:
 148              	.LFB350:
  92:../Firmware/GD32VW55x_standard_peripheral/Source/gd32vw55x_hau_sha_md5.c **** 
  93:../Firmware/GD32VW55x_standard_peripheral/Source/gd32vw55x_hau_sha_md5.c **** /*!
  94:../Firmware/GD32VW55x_standard_peripheral/Source/gd32vw55x_hau_sha_md5.c ****     \brief      calculate digest using SHA224 in HMAC mode
  95:../Firmware/GD32VW55x_standard_peripheral/Source/gd32vw55x_hau_sha_md5.c ****     \param[in]  key: pointer to the key used for HMAC
  96:../Firmware/GD32VW55x_standard_peripheral/Source/gd32vw55x_hau_sha_md5.c ****     \param[in]  keysize: length of the key used for HMAC
  97:../Firmware/GD32VW55x_standard_peripheral/Source/gd32vw55x_hau_sha_md5.c ****     \param[in]  input: pointer to the input buffer
  98:../Firmware/GD32VW55x_standard_peripheral/Source/gd32vw55x_hau_sha_md5.c ****     \param[in]  in_length: length of the input buffer
  99:../Firmware/GD32VW55x_standard_peripheral/Source/gd32vw55x_hau_sha_md5.c ****     \param[in]  output: the result digest
 100:../Firmware/GD32VW55x_standard_peripheral/Source/gd32vw55x_hau_sha_md5.c ****     \param[out] none
 101:../Firmware/GD32VW55x_standard_peripheral/Source/gd32vw55x_hau_sha_md5.c ****     \retval     ErrStatus: SUCCESS or ERROR
 102:../Firmware/GD32VW55x_standard_peripheral/Source/gd32vw55x_hau_sha_md5.c **** */
 103:../Firmware/GD32VW55x_standard_peripheral/Source/gd32vw55x_hau_sha_md5.c **** ErrStatus hau_hmac_sha_224(uint8_t *key, uint32_t keysize, uint8_t *input, uint32_t in_length, uint
 104:../Firmware/GD32VW55x_standard_peripheral/Source/gd32vw55x_hau_sha_md5.c **** {
 149              		.loc 1 104 1
 150              		.cfi_startproc
 151 0000 3971     		addi	sp,sp,-64
 152              		.cfi_def_cfa_offset 64
 153 0002 06DE     		sw	ra,60(sp)
 154 0004 22DC     		sw	s0,56(sp)
 155              		.cfi_offset 1, -4
 156              		.cfi_offset 8, -8
 157 0006 8000     		addi	s0,sp,64
 158              		.cfi_def_cfa 8, 0
 159 0008 232EA4FC 		sw	a0,-36(s0)
 160 000c 232CB4FC 		sw	a1,-40(s0)
 161 0010 232AC4FC 		sw	a2,-44(s0)
 162 0014 2328D4FC 		sw	a3,-48(s0)
 163 0018 2326E4FC 		sw	a4,-52(s0)
 105:../Firmware/GD32VW55x_standard_peripheral/Source/gd32vw55x_hau_sha_md5.c ****     ErrStatus ret = ERROR;
 164              		.loc 1 105 15
 165 001c 232604FE 		sw	zero,-20(s0)
 106:../Firmware/GD32VW55x_standard_peripheral/Source/gd32vw55x_hau_sha_md5.c ****     ret = hau_hmac_calculate(HAU_ALGO_SHA224, key, keysize, input, in_length, output);
 166              		.loc 1 106 11
 167 0020 8327C4FC 		lw	a5,-52(s0)
 168 0024 032704FD 		lw	a4,-48(s0)
 169 0028 832644FD 		lw	a3,-44(s0)
 170 002c 032684FD 		lw	a2,-40(s0)
 171 0030 8325C4FD 		lw	a1,-36(s0)
 172 0034 37050400 		li	a0,262144
 173 0038 97000000 		call	hau_hmac_calculate
 173      E7800000 
 174 0040 2326A4FE 		sw	a0,-20(s0)
 107:../Firmware/GD32VW55x_standard_peripheral/Source/gd32vw55x_hau_sha_md5.c ****     return ret;
 175              		.loc 1 107 12
 176 0044 8327C4FE 		lw	a5,-20(s0)
 108:../Firmware/GD32VW55x_standard_peripheral/Source/gd32vw55x_hau_sha_md5.c **** }
 177              		.loc 1 108 1
 178 0048 3E85     		mv	a0,a5
 179 004a F250     		lw	ra,60(sp)
 180              		.cfi_restore 1
 181 004c 6254     		lw	s0,56(sp)
 182              		.cfi_restore 8
 183              		.cfi_def_cfa 2, 64
 184 004e 2161     		addi	sp,sp,64
 185              		.cfi_def_cfa_offset 0
 186 0050 8280     		jr	ra
 187              		.cfi_endproc
 188              	.LFE350:
 190              		.section	.text.hau_hash_sha_256,"ax",@progbits
 191              		.align	1
 192              		.globl	hau_hash_sha_256
 194              	hau_hash_sha_256:
 195              	.LFB351:
 109:../Firmware/GD32VW55x_standard_peripheral/Source/gd32vw55x_hau_sha_md5.c **** 
 110:../Firmware/GD32VW55x_standard_peripheral/Source/gd32vw55x_hau_sha_md5.c **** /*!
 111:../Firmware/GD32VW55x_standard_peripheral/Source/gd32vw55x_hau_sha_md5.c ****     \brief      calculate digest using SHA256 in HASH mode
 112:../Firmware/GD32VW55x_standard_peripheral/Source/gd32vw55x_hau_sha_md5.c ****     \param[in]  input: pointer to the input buffer
 113:../Firmware/GD32VW55x_standard_peripheral/Source/gd32vw55x_hau_sha_md5.c ****     \param[in]  in_length: length of the input buffer
 114:../Firmware/GD32VW55x_standard_peripheral/Source/gd32vw55x_hau_sha_md5.c ****     \param[in]  output: the result digest
 115:../Firmware/GD32VW55x_standard_peripheral/Source/gd32vw55x_hau_sha_md5.c ****     \param[out] none
 116:../Firmware/GD32VW55x_standard_peripheral/Source/gd32vw55x_hau_sha_md5.c ****     \retval     ErrStatus: SUCCESS or ERROR
 117:../Firmware/GD32VW55x_standard_peripheral/Source/gd32vw55x_hau_sha_md5.c **** */
 118:../Firmware/GD32VW55x_standard_peripheral/Source/gd32vw55x_hau_sha_md5.c **** ErrStatus hau_hash_sha_256(uint8_t *input, uint32_t in_length, uint8_t output[32])
 119:../Firmware/GD32VW55x_standard_peripheral/Source/gd32vw55x_hau_sha_md5.c **** {
 196              		.loc 1 119 1
 197              		.cfi_startproc
 198 0000 7971     		addi	sp,sp,-48
 199              		.cfi_def_cfa_offset 48
 200 0002 06D6     		sw	ra,44(sp)
 201 0004 22D4     		sw	s0,40(sp)
 202              		.cfi_offset 1, -4
 203              		.cfi_offset 8, -8
 204 0006 0018     		addi	s0,sp,48
 205              		.cfi_def_cfa 8, 0
 206 0008 232EA4FC 		sw	a0,-36(s0)
 207 000c 232CB4FC 		sw	a1,-40(s0)
 208 0010 232AC4FC 		sw	a2,-44(s0)
 120:../Firmware/GD32VW55x_standard_peripheral/Source/gd32vw55x_hau_sha_md5.c ****     ErrStatus ret = ERROR;
 209              		.loc 1 120 15
 210 0014 232604FE 		sw	zero,-20(s0)
 121:../Firmware/GD32VW55x_standard_peripheral/Source/gd32vw55x_hau_sha_md5.c ****     ret = hau_hash_calculate(HAU_ALGO_SHA256, input, in_length, output);
 211              		.loc 1 121 11
 212 0018 832644FD 		lw	a3,-44(s0)
 213 001c 032684FD 		lw	a2,-40(s0)
 214 0020 8325C4FD 		lw	a1,-36(s0)
 215 0024 B7070400 		li	a5,262144
 216 0028 13850708 		addi	a0,a5,128
 217 002c 97000000 		call	hau_hash_calculate
 217      E7800000 
 218 0034 2326A4FE 		sw	a0,-20(s0)
 122:../Firmware/GD32VW55x_standard_peripheral/Source/gd32vw55x_hau_sha_md5.c ****     return ret;
 219              		.loc 1 122 12
 220 0038 8327C4FE 		lw	a5,-20(s0)
 123:../Firmware/GD32VW55x_standard_peripheral/Source/gd32vw55x_hau_sha_md5.c **** }
 221              		.loc 1 123 1
 222 003c 3E85     		mv	a0,a5
 223 003e B250     		lw	ra,44(sp)
 224              		.cfi_restore 1
 225 0040 2254     		lw	s0,40(sp)
 226              		.cfi_restore 8
 227              		.cfi_def_cfa 2, 48
 228 0042 4561     		addi	sp,sp,48
 229              		.cfi_def_cfa_offset 0
 230 0044 8280     		jr	ra
 231              		.cfi_endproc
 232              	.LFE351:
 234              		.section	.text.hau_hmac_sha_256,"ax",@progbits
 235              		.align	1
 236              		.globl	hau_hmac_sha_256
 238              	hau_hmac_sha_256:
 239              	.LFB352:
 124:../Firmware/GD32VW55x_standard_peripheral/Source/gd32vw55x_hau_sha_md5.c **** 
 125:../Firmware/GD32VW55x_standard_peripheral/Source/gd32vw55x_hau_sha_md5.c **** /*!
 126:../Firmware/GD32VW55x_standard_peripheral/Source/gd32vw55x_hau_sha_md5.c ****     \brief      calculate digest using SHA256 in HMAC mode
 127:../Firmware/GD32VW55x_standard_peripheral/Source/gd32vw55x_hau_sha_md5.c ****     \param[in]  key: pointer to the key used for HMAC
 128:../Firmware/GD32VW55x_standard_peripheral/Source/gd32vw55x_hau_sha_md5.c ****     \param[in]  keysize: length of the key used for HMAC
 129:../Firmware/GD32VW55x_standard_peripheral/Source/gd32vw55x_hau_sha_md5.c ****     \param[in]  input: pointer to the input buffer
 130:../Firmware/GD32VW55x_standard_peripheral/Source/gd32vw55x_hau_sha_md5.c ****     \param[in]  in_length: length of the input buffer
 131:../Firmware/GD32VW55x_standard_peripheral/Source/gd32vw55x_hau_sha_md5.c ****     \param[in]  output: the result digest
 132:../Firmware/GD32VW55x_standard_peripheral/Source/gd32vw55x_hau_sha_md5.c ****     \param[out] none
 133:../Firmware/GD32VW55x_standard_peripheral/Source/gd32vw55x_hau_sha_md5.c ****     \retval     ErrStatus: SUCCESS or ERROR
 134:../Firmware/GD32VW55x_standard_peripheral/Source/gd32vw55x_hau_sha_md5.c **** */
 135:../Firmware/GD32VW55x_standard_peripheral/Source/gd32vw55x_hau_sha_md5.c **** ErrStatus hau_hmac_sha_256(uint8_t *key, uint32_t keysize, uint8_t *input, uint32_t in_length, uint
 136:../Firmware/GD32VW55x_standard_peripheral/Source/gd32vw55x_hau_sha_md5.c **** {
 240              		.loc 1 136 1
 241              		.cfi_startproc
 242 0000 3971     		addi	sp,sp,-64
 243              		.cfi_def_cfa_offset 64
 244 0002 06DE     		sw	ra,60(sp)
 245 0004 22DC     		sw	s0,56(sp)
 246              		.cfi_offset 1, -4
 247              		.cfi_offset 8, -8
 248 0006 8000     		addi	s0,sp,64
 249              		.cfi_def_cfa 8, 0
 250 0008 232EA4FC 		sw	a0,-36(s0)
 251 000c 232CB4FC 		sw	a1,-40(s0)
 252 0010 232AC4FC 		sw	a2,-44(s0)
 253 0014 2328D4FC 		sw	a3,-48(s0)
 254 0018 2326E4FC 		sw	a4,-52(s0)
 137:../Firmware/GD32VW55x_standard_peripheral/Source/gd32vw55x_hau_sha_md5.c ****     ErrStatus ret = ERROR;
 255              		.loc 1 137 15
 256 001c 232604FE 		sw	zero,-20(s0)
 138:../Firmware/GD32VW55x_standard_peripheral/Source/gd32vw55x_hau_sha_md5.c ****     ret = hau_hmac_calculate(HAU_ALGO_SHA256, key, keysize, input, in_length, output);
 257              		.loc 1 138 11
 258 0020 8327C4FC 		lw	a5,-52(s0)
 259 0024 032704FD 		lw	a4,-48(s0)
 260 0028 832644FD 		lw	a3,-44(s0)
 261 002c 032684FD 		lw	a2,-40(s0)
 262 0030 8325C4FD 		lw	a1,-36(s0)
 263 0034 37050400 		li	a0,262144
 264 0038 13050508 		addi	a0,a0,128
 265 003c 97000000 		call	hau_hmac_calculate
 265      E7800000 
 266 0044 2326A4FE 		sw	a0,-20(s0)
 139:../Firmware/GD32VW55x_standard_peripheral/Source/gd32vw55x_hau_sha_md5.c ****     return ret;
 267              		.loc 1 139 12
 268 0048 8327C4FE 		lw	a5,-20(s0)
 140:../Firmware/GD32VW55x_standard_peripheral/Source/gd32vw55x_hau_sha_md5.c **** }
 269              		.loc 1 140 1
 270 004c 3E85     		mv	a0,a5
 271 004e F250     		lw	ra,60(sp)
 272              		.cfi_restore 1
 273 0050 6254     		lw	s0,56(sp)
 274              		.cfi_restore 8
 275              		.cfi_def_cfa 2, 64
 276 0052 2161     		addi	sp,sp,64
 277              		.cfi_def_cfa_offset 0
 278 0054 8280     		jr	ra
 279              		.cfi_endproc
 280              	.LFE352:
 282              		.section	.text.hau_hash_md5,"ax",@progbits
 283              		.align	1
 284              		.globl	hau_hash_md5
 286              	hau_hash_md5:
 287              	.LFB353:
 141:../Firmware/GD32VW55x_standard_peripheral/Source/gd32vw55x_hau_sha_md5.c **** 
 142:../Firmware/GD32VW55x_standard_peripheral/Source/gd32vw55x_hau_sha_md5.c **** /*!
 143:../Firmware/GD32VW55x_standard_peripheral/Source/gd32vw55x_hau_sha_md5.c ****     \brief      calculate digest using MD5 in HASH mode
 144:../Firmware/GD32VW55x_standard_peripheral/Source/gd32vw55x_hau_sha_md5.c ****     \param[in]  input: pointer to the input buffer
 145:../Firmware/GD32VW55x_standard_peripheral/Source/gd32vw55x_hau_sha_md5.c ****     \param[in]  in_length: length of the input buffer
 146:../Firmware/GD32VW55x_standard_peripheral/Source/gd32vw55x_hau_sha_md5.c ****     \param[in]  output: the result digest
 147:../Firmware/GD32VW55x_standard_peripheral/Source/gd32vw55x_hau_sha_md5.c ****     \param[out] none
 148:../Firmware/GD32VW55x_standard_peripheral/Source/gd32vw55x_hau_sha_md5.c ****     \retval     ErrStatus: SUCCESS or ERROR
 149:../Firmware/GD32VW55x_standard_peripheral/Source/gd32vw55x_hau_sha_md5.c **** */
 150:../Firmware/GD32VW55x_standard_peripheral/Source/gd32vw55x_hau_sha_md5.c **** ErrStatus hau_hash_md5(uint8_t *input, uint32_t in_length, uint8_t output[16])
 151:../Firmware/GD32VW55x_standard_peripheral/Source/gd32vw55x_hau_sha_md5.c **** {
 288              		.loc 1 151 1
 289              		.cfi_startproc
 290 0000 7971     		addi	sp,sp,-48
 291              		.cfi_def_cfa_offset 48
 292 0002 06D6     		sw	ra,44(sp)
 293 0004 22D4     		sw	s0,40(sp)
 294              		.cfi_offset 1, -4
 295              		.cfi_offset 8, -8
 296 0006 0018     		addi	s0,sp,48
 297              		.cfi_def_cfa 8, 0
 298 0008 232EA4FC 		sw	a0,-36(s0)
 299 000c 232CB4FC 		sw	a1,-40(s0)
 300 0010 232AC4FC 		sw	a2,-44(s0)
 152:../Firmware/GD32VW55x_standard_peripheral/Source/gd32vw55x_hau_sha_md5.c ****     ErrStatus ret = ERROR;
 301              		.loc 1 152 15
 302 0014 232604FE 		sw	zero,-20(s0)
 153:../Firmware/GD32VW55x_standard_peripheral/Source/gd32vw55x_hau_sha_md5.c ****     ret = hau_hash_calculate(HAU_ALGO_MD5, input, in_length, output);
 303              		.loc 1 153 11
 304 0018 832644FD 		lw	a3,-44(s0)
 305 001c 032684FD 		lw	a2,-40(s0)
 306 0020 8325C4FD 		lw	a1,-36(s0)
 307 0024 13050008 		li	a0,128
 308 0028 97000000 		call	hau_hash_calculate
 308      E7800000 
 309 0030 2326A4FE 		sw	a0,-20(s0)
 154:../Firmware/GD32VW55x_standard_peripheral/Source/gd32vw55x_hau_sha_md5.c ****     return ret;
 310              		.loc 1 154 12
 311 0034 8327C4FE 		lw	a5,-20(s0)
 155:../Firmware/GD32VW55x_standard_peripheral/Source/gd32vw55x_hau_sha_md5.c **** }
 312              		.loc 1 155 1
 313 0038 3E85     		mv	a0,a5
 314 003a B250     		lw	ra,44(sp)
 315              		.cfi_restore 1
 316 003c 2254     		lw	s0,40(sp)
 317              		.cfi_restore 8
 318              		.cfi_def_cfa 2, 48
 319 003e 4561     		addi	sp,sp,48
 320              		.cfi_def_cfa_offset 0
 321 0040 8280     		jr	ra
 322              		.cfi_endproc
 323              	.LFE353:
 325              		.section	.text.hau_hmac_md5,"ax",@progbits
 326              		.align	1
 327              		.globl	hau_hmac_md5
 329              	hau_hmac_md5:
 330              	.LFB354:
 156:../Firmware/GD32VW55x_standard_peripheral/Source/gd32vw55x_hau_sha_md5.c **** 
 157:../Firmware/GD32VW55x_standard_peripheral/Source/gd32vw55x_hau_sha_md5.c **** /*!
 158:../Firmware/GD32VW55x_standard_peripheral/Source/gd32vw55x_hau_sha_md5.c ****     \brief      calculate digest using MD5 in HMAC mode
 159:../Firmware/GD32VW55x_standard_peripheral/Source/gd32vw55x_hau_sha_md5.c ****     \param[in]  key: pointer to the key used for HMAC
 160:../Firmware/GD32VW55x_standard_peripheral/Source/gd32vw55x_hau_sha_md5.c ****     \param[in]  keysize: length of the key used for HMAC
 161:../Firmware/GD32VW55x_standard_peripheral/Source/gd32vw55x_hau_sha_md5.c ****     \param[in]  input: pointer to the input buffer
 162:../Firmware/GD32VW55x_standard_peripheral/Source/gd32vw55x_hau_sha_md5.c ****     \param[in]  in_length: length of the input buffer
 163:../Firmware/GD32VW55x_standard_peripheral/Source/gd32vw55x_hau_sha_md5.c ****     \param[in]  output: the result digest
 164:../Firmware/GD32VW55x_standard_peripheral/Source/gd32vw55x_hau_sha_md5.c ****     \param[out] none
 165:../Firmware/GD32VW55x_standard_peripheral/Source/gd32vw55x_hau_sha_md5.c ****     \retval     ErrStatus: SUCCESS or ERROR
 166:../Firmware/GD32VW55x_standard_peripheral/Source/gd32vw55x_hau_sha_md5.c **** */
 167:../Firmware/GD32VW55x_standard_peripheral/Source/gd32vw55x_hau_sha_md5.c **** ErrStatus hau_hmac_md5(uint8_t *key, uint32_t keysize, uint8_t *input, uint32_t in_length, uint8_t 
 168:../Firmware/GD32VW55x_standard_peripheral/Source/gd32vw55x_hau_sha_md5.c **** {
 331              		.loc 1 168 1
 332              		.cfi_startproc
 333 0000 3971     		addi	sp,sp,-64
 334              		.cfi_def_cfa_offset 64
 335 0002 06DE     		sw	ra,60(sp)
 336 0004 22DC     		sw	s0,56(sp)
 337              		.cfi_offset 1, -4
 338              		.cfi_offset 8, -8
 339 0006 8000     		addi	s0,sp,64
 340              		.cfi_def_cfa 8, 0
 341 0008 232EA4FC 		sw	a0,-36(s0)
 342 000c 232CB4FC 		sw	a1,-40(s0)
 343 0010 232AC4FC 		sw	a2,-44(s0)
 344 0014 2328D4FC 		sw	a3,-48(s0)
 345 0018 2326E4FC 		sw	a4,-52(s0)
 169:../Firmware/GD32VW55x_standard_peripheral/Source/gd32vw55x_hau_sha_md5.c ****     ErrStatus ret = ERROR;
 346              		.loc 1 169 15
 347 001c 232604FE 		sw	zero,-20(s0)
 170:../Firmware/GD32VW55x_standard_peripheral/Source/gd32vw55x_hau_sha_md5.c ****     ret = hau_hmac_calculate(HAU_ALGO_MD5, key, keysize, input, in_length, output);
 348              		.loc 1 170 11
 349 0020 8327C4FC 		lw	a5,-52(s0)
 350 0024 032704FD 		lw	a4,-48(s0)
 351 0028 832644FD 		lw	a3,-44(s0)
 352 002c 032684FD 		lw	a2,-40(s0)
 353 0030 8325C4FD 		lw	a1,-36(s0)
 354 0034 13050008 		li	a0,128
 355 0038 97000000 		call	hau_hmac_calculate
 355      E7800000 
 356 0040 2326A4FE 		sw	a0,-20(s0)
 171:../Firmware/GD32VW55x_standard_peripheral/Source/gd32vw55x_hau_sha_md5.c ****     return ret;
 357              		.loc 1 171 12
 358 0044 8327C4FE 		lw	a5,-20(s0)
 172:../Firmware/GD32VW55x_standard_peripheral/Source/gd32vw55x_hau_sha_md5.c **** }
 359              		.loc 1 172 1
 360 0048 3E85     		mv	a0,a5
 361 004a F250     		lw	ra,60(sp)
 362              		.cfi_restore 1
 363 004c 6254     		lw	s0,56(sp)
 364              		.cfi_restore 8
 365              		.cfi_def_cfa 2, 64
 366 004e 2161     		addi	sp,sp,64
 367              		.cfi_def_cfa_offset 0
 368 0050 8280     		jr	ra
 369              		.cfi_endproc
 370              	.LFE354:
 372              		.section	.text.hau_sha_md5_digest_read,"ax",@progbits
 373              		.align	1
 375              	hau_sha_md5_digest_read:
 376              	.LFB355:
 173:../Firmware/GD32VW55x_standard_peripheral/Source/gd32vw55x_hau_sha_md5.c **** 
 174:../Firmware/GD32VW55x_standard_peripheral/Source/gd32vw55x_hau_sha_md5.c **** /*!
 175:../Firmware/GD32VW55x_standard_peripheral/Source/gd32vw55x_hau_sha_md5.c ****     \brief      HAU SHA/MD5 digest read
 176:../Firmware/GD32VW55x_standard_peripheral/Source/gd32vw55x_hau_sha_md5.c ****     \param[in]  algo: algorithm selection
 177:../Firmware/GD32VW55x_standard_peripheral/Source/gd32vw55x_hau_sha_md5.c ****     \param[out] output: the result digest
 178:../Firmware/GD32VW55x_standard_peripheral/Source/gd32vw55x_hau_sha_md5.c ****     \retval     none
 179:../Firmware/GD32VW55x_standard_peripheral/Source/gd32vw55x_hau_sha_md5.c **** */
 180:../Firmware/GD32VW55x_standard_peripheral/Source/gd32vw55x_hau_sha_md5.c **** static void hau_sha_md5_digest_read(uint32_t algo, uint8_t *output)
 181:../Firmware/GD32VW55x_standard_peripheral/Source/gd32vw55x_hau_sha_md5.c **** {
 377              		.loc 1 181 1
 378              		.cfi_startproc
 379 0000 6D71     		addi	sp,sp,-272
 380              		.cfi_def_cfa_offset 272
 381 0002 23261110 		sw	ra,268(sp)
 382 0006 23248110 		sw	s0,264(sp)
 383              		.cfi_offset 1, -4
 384              		.cfi_offset 8, -8
 385 000a 000A     		addi	s0,sp,272
 386              		.cfi_def_cfa 8, 0
 387 000c 232EA4EE 		sw	a0,-260(s0)
 388 0010 232CB4EE 		sw	a1,-264(s0)
 182:../Firmware/GD32VW55x_standard_peripheral/Source/gd32vw55x_hau_sha_md5.c ****     hau_digest_parameter_struct digest_para;
 183:../Firmware/GD32VW55x_standard_peripheral/Source/gd32vw55x_hau_sha_md5.c ****     uint32_t outputaddr = (uint32_t)output;
 389              		.loc 1 183 14
 390 0014 832784EF 		lw	a5,-264(s0)
 391 0018 2326F4FE 		sw	a5,-20(s0)
 184:../Firmware/GD32VW55x_standard_peripheral/Source/gd32vw55x_hau_sha_md5.c **** 
 185:../Firmware/GD32VW55x_standard_peripheral/Source/gd32vw55x_hau_sha_md5.c ****     switch(algo){
 392              		.loc 1 185 5
 393 001c 0327C4EF 		lw	a4,-260(s0)
 394 0020 B7070400 		li	a5,262144
 395 0024 93870708 		addi	a5,a5,128
 396 0028 6302F742 		beq	a4,a5,.L18
 397 002c 0327C4EF 		lw	a4,-260(s0)
 398 0030 B7070400 		li	a5,262144
 399 0034 93870708 		addi	a5,a5,128
 400 0038 63ECE77E 		bgtu	a4,a5,.L48
 401 003c 0327C4EF 		lw	a4,-260(s0)
 402 0040 B7070400 		li	a5,262144
 403 0044 6302F71C 		beq	a4,a5,.L20
 404 0048 0327C4EF 		lw	a4,-260(s0)
 405 004c B7070400 		li	a5,262144
 406 0050 63E0E77E 		bgtu	a4,a5,.L48
 407 0054 8327C4EF 		lw	a5,-260(s0)
 408 0058 81CB     		beq	a5,zero,.L21
 409 005a 0327C4EF 		lw	a4,-260(s0)
 410 005e 93070008 		li	a5,128
 411 0062 6300F768 		beq	a4,a5,.L22
 186:../Firmware/GD32VW55x_standard_peripheral/Source/gd32vw55x_hau_sha_md5.c ****     case HAU_ALGO_SHA1:
 187:../Firmware/GD32VW55x_standard_peripheral/Source/gd32vw55x_hau_sha_md5.c ****         hau_digest_read(&digest_para);
 188:../Firmware/GD32VW55x_standard_peripheral/Source/gd32vw55x_hau_sha_md5.c ****         *(uint32_t*)(outputaddr)  = __REV(digest_para.out[0]);
 189:../Firmware/GD32VW55x_standard_peripheral/Source/gd32vw55x_hau_sha_md5.c ****         outputaddr += 4U;
 190:../Firmware/GD32VW55x_standard_peripheral/Source/gd32vw55x_hau_sha_md5.c ****         *(uint32_t*)(outputaddr)  = __REV(digest_para.out[1]);
 191:../Firmware/GD32VW55x_standard_peripheral/Source/gd32vw55x_hau_sha_md5.c ****         outputaddr += 4U;
 192:../Firmware/GD32VW55x_standard_peripheral/Source/gd32vw55x_hau_sha_md5.c ****         *(uint32_t*)(outputaddr)  = __REV(digest_para.out[2]);
 193:../Firmware/GD32VW55x_standard_peripheral/Source/gd32vw55x_hau_sha_md5.c ****         outputaddr += 4U;
 194:../Firmware/GD32VW55x_standard_peripheral/Source/gd32vw55x_hau_sha_md5.c ****         *(uint32_t*)(outputaddr)  = __REV(digest_para.out[3]);
 195:../Firmware/GD32VW55x_standard_peripheral/Source/gd32vw55x_hau_sha_md5.c ****         outputaddr += 4U;
 196:../Firmware/GD32VW55x_standard_peripheral/Source/gd32vw55x_hau_sha_md5.c ****         *(uint32_t*)(outputaddr)  = __REV(digest_para.out[4]);
 197:../Firmware/GD32VW55x_standard_peripheral/Source/gd32vw55x_hau_sha_md5.c ****         break;
 198:../Firmware/GD32VW55x_standard_peripheral/Source/gd32vw55x_hau_sha_md5.c ****     case HAU_ALGO_SHA224:
 199:../Firmware/GD32VW55x_standard_peripheral/Source/gd32vw55x_hau_sha_md5.c ****         hau_digest_read(&digest_para);
 200:../Firmware/GD32VW55x_standard_peripheral/Source/gd32vw55x_hau_sha_md5.c ****         *(uint32_t*)(outputaddr)  = __REV(digest_para.out[0]);
 201:../Firmware/GD32VW55x_standard_peripheral/Source/gd32vw55x_hau_sha_md5.c ****         outputaddr += 4U;
 202:../Firmware/GD32VW55x_standard_peripheral/Source/gd32vw55x_hau_sha_md5.c ****         *(uint32_t*)(outputaddr)  = __REV(digest_para.out[1]);
 203:../Firmware/GD32VW55x_standard_peripheral/Source/gd32vw55x_hau_sha_md5.c ****         outputaddr += 4U;
 204:../Firmware/GD32VW55x_standard_peripheral/Source/gd32vw55x_hau_sha_md5.c ****         *(uint32_t*)(outputaddr)  = __REV(digest_para.out[2]);
 205:../Firmware/GD32VW55x_standard_peripheral/Source/gd32vw55x_hau_sha_md5.c ****         outputaddr += 4U;
 206:../Firmware/GD32VW55x_standard_peripheral/Source/gd32vw55x_hau_sha_md5.c ****         *(uint32_t*)(outputaddr)  = __REV(digest_para.out[3]);
 207:../Firmware/GD32VW55x_standard_peripheral/Source/gd32vw55x_hau_sha_md5.c ****         outputaddr += 4U;
 208:../Firmware/GD32VW55x_standard_peripheral/Source/gd32vw55x_hau_sha_md5.c ****         *(uint32_t*)(outputaddr)  = __REV(digest_para.out[4]);
 209:../Firmware/GD32VW55x_standard_peripheral/Source/gd32vw55x_hau_sha_md5.c ****         outputaddr += 4U;
 210:../Firmware/GD32VW55x_standard_peripheral/Source/gd32vw55x_hau_sha_md5.c ****         *(uint32_t*)(outputaddr)  = __REV(digest_para.out[5]);
 211:../Firmware/GD32VW55x_standard_peripheral/Source/gd32vw55x_hau_sha_md5.c ****         outputaddr += 4U;
 212:../Firmware/GD32VW55x_standard_peripheral/Source/gd32vw55x_hau_sha_md5.c ****         *(uint32_t*)(outputaddr)  = __REV(digest_para.out[6]);
 213:../Firmware/GD32VW55x_standard_peripheral/Source/gd32vw55x_hau_sha_md5.c ****         break;
 214:../Firmware/GD32VW55x_standard_peripheral/Source/gd32vw55x_hau_sha_md5.c ****     case HAU_ALGO_SHA256:
 215:../Firmware/GD32VW55x_standard_peripheral/Source/gd32vw55x_hau_sha_md5.c ****         hau_digest_read(&digest_para);
 216:../Firmware/GD32VW55x_standard_peripheral/Source/gd32vw55x_hau_sha_md5.c ****         *(uint32_t*)(outputaddr)  = __REV(digest_para.out[0]);
 217:../Firmware/GD32VW55x_standard_peripheral/Source/gd32vw55x_hau_sha_md5.c ****         outputaddr += 4U;
 218:../Firmware/GD32VW55x_standard_peripheral/Source/gd32vw55x_hau_sha_md5.c ****         *(uint32_t*)(outputaddr)  = __REV(digest_para.out[1]);
 219:../Firmware/GD32VW55x_standard_peripheral/Source/gd32vw55x_hau_sha_md5.c ****         outputaddr += 4U;
 220:../Firmware/GD32VW55x_standard_peripheral/Source/gd32vw55x_hau_sha_md5.c ****         *(uint32_t*)(outputaddr)  = __REV(digest_para.out[2]);
 221:../Firmware/GD32VW55x_standard_peripheral/Source/gd32vw55x_hau_sha_md5.c ****         outputaddr += 4U;
 222:../Firmware/GD32VW55x_standard_peripheral/Source/gd32vw55x_hau_sha_md5.c ****         *(uint32_t*)(outputaddr)  = __REV(digest_para.out[3]);
 223:../Firmware/GD32VW55x_standard_peripheral/Source/gd32vw55x_hau_sha_md5.c ****         outputaddr += 4U;
 224:../Firmware/GD32VW55x_standard_peripheral/Source/gd32vw55x_hau_sha_md5.c ****         *(uint32_t*)(outputaddr)  = __REV(digest_para.out[4]);
 225:../Firmware/GD32VW55x_standard_peripheral/Source/gd32vw55x_hau_sha_md5.c ****         outputaddr += 4U;
 226:../Firmware/GD32VW55x_standard_peripheral/Source/gd32vw55x_hau_sha_md5.c ****         *(uint32_t*)(outputaddr)  = __REV(digest_para.out[5]);
 227:../Firmware/GD32VW55x_standard_peripheral/Source/gd32vw55x_hau_sha_md5.c ****         outputaddr += 4U;
 228:../Firmware/GD32VW55x_standard_peripheral/Source/gd32vw55x_hau_sha_md5.c ****         *(uint32_t*)(outputaddr)  = __REV(digest_para.out[6]);
 229:../Firmware/GD32VW55x_standard_peripheral/Source/gd32vw55x_hau_sha_md5.c ****         outputaddr += 4U;
 230:../Firmware/GD32VW55x_standard_peripheral/Source/gd32vw55x_hau_sha_md5.c ****         *(uint32_t*)(outputaddr)  = __REV(digest_para.out[7]);
 231:../Firmware/GD32VW55x_standard_peripheral/Source/gd32vw55x_hau_sha_md5.c ****         break;
 232:../Firmware/GD32VW55x_standard_peripheral/Source/gd32vw55x_hau_sha_md5.c ****     case HAU_ALGO_MD5:
 233:../Firmware/GD32VW55x_standard_peripheral/Source/gd32vw55x_hau_sha_md5.c ****         hau_digest_read(&digest_para);
 234:../Firmware/GD32VW55x_standard_peripheral/Source/gd32vw55x_hau_sha_md5.c ****         *(uint32_t*)(outputaddr)  = __REV(digest_para.out[0]);
 235:../Firmware/GD32VW55x_standard_peripheral/Source/gd32vw55x_hau_sha_md5.c ****         outputaddr += 4U;
 236:../Firmware/GD32VW55x_standard_peripheral/Source/gd32vw55x_hau_sha_md5.c ****         *(uint32_t*)(outputaddr)  = __REV(digest_para.out[1]);
 237:../Firmware/GD32VW55x_standard_peripheral/Source/gd32vw55x_hau_sha_md5.c ****         outputaddr += 4U;
 238:../Firmware/GD32VW55x_standard_peripheral/Source/gd32vw55x_hau_sha_md5.c ****         *(uint32_t*)(outputaddr)  = __REV(digest_para.out[2]);
 239:../Firmware/GD32VW55x_standard_peripheral/Source/gd32vw55x_hau_sha_md5.c ****         outputaddr += 4U;
 240:../Firmware/GD32VW55x_standard_peripheral/Source/gd32vw55x_hau_sha_md5.c ****         *(uint32_t*)(outputaddr)  = __REV(digest_para.out[3]);
 241:../Firmware/GD32VW55x_standard_peripheral/Source/gd32vw55x_hau_sha_md5.c ****         break;
 242:../Firmware/GD32VW55x_standard_peripheral/Source/gd32vw55x_hau_sha_md5.c ****     default:
 243:../Firmware/GD32VW55x_standard_peripheral/Source/gd32vw55x_hau_sha_md5.c ****         break;
 412              		.loc 1 243 9
 413 0066 E9A7     		j	.L48
 414              	.L21:
 187:../Firmware/GD32VW55x_standard_peripheral/Source/gd32vw55x_hau_sha_md5.c ****         *(uint32_t*)(outputaddr)  = __REV(digest_para.out[0]);
 415              		.loc 1 187 9
 416 0068 9307C4F0 		addi	a5,s0,-244
 417 006c 3E85     		mv	a0,a5
 418 006e 97000000 		call	hau_digest_read
 418      E7800000 
 188:../Firmware/GD32VW55x_standard_peripheral/Source/gd32vw55x_hau_sha_md5.c ****         outputaddr += 4U;
 419              		.loc 1 188 37
 420 0076 0327C4F0 		lw	a4,-244(s0)
 188:../Firmware/GD32VW55x_standard_peripheral/Source/gd32vw55x_hau_sha_md5.c ****         outputaddr += 4U;
 421              		.loc 1 188 10
 422 007a 8327C4FE 		lw	a5,-20(s0)
 423 007e 2324E4FC 		sw	a4,-56(s0)
 424              	.LBB50:
 425              	.LBB51:
 426              		.file 2 "../Firmware/RISCV/drivers/core_compatiable.h"
   1:../Firmware/RISCV/drivers/core_compatiable.h **** /*
   2:../Firmware/RISCV/drivers/core_compatiable.h ****  * Copyright (c) 2019 Nuclei Limited. All rights reserved.
   3:../Firmware/RISCV/drivers/core_compatiable.h ****  *
   4:../Firmware/RISCV/drivers/core_compatiable.h ****  * SPDX-License-Identifier: Apache-2.0
   5:../Firmware/RISCV/drivers/core_compatiable.h ****  *
   6:../Firmware/RISCV/drivers/core_compatiable.h ****  * Licensed under the Apache License, Version 2.0 (the License); you may
   7:../Firmware/RISCV/drivers/core_compatiable.h ****  * not use this file except in compliance with the License.
   8:../Firmware/RISCV/drivers/core_compatiable.h ****  * You may obtain a copy of the License at
   9:../Firmware/RISCV/drivers/core_compatiable.h ****  *
  10:../Firmware/RISCV/drivers/core_compatiable.h ****  * www.apache.org/licenses/LICENSE-2.0
  11:../Firmware/RISCV/drivers/core_compatiable.h ****  *
  12:../Firmware/RISCV/drivers/core_compatiable.h ****  * Unless required by applicable law or agreed to in writing, software
  13:../Firmware/RISCV/drivers/core_compatiable.h ****  * distributed under the License is distributed on an AS IS BASIS, WITHOUT
  14:../Firmware/RISCV/drivers/core_compatiable.h ****  * WARRANTIES OR CONDITIONS OF ANY KIND, either express or implied.
  15:../Firmware/RISCV/drivers/core_compatiable.h ****  * See the License for the specific language governing permissions and
  16:../Firmware/RISCV/drivers/core_compatiable.h ****  * limitations under the License.
  17:../Firmware/RISCV/drivers/core_compatiable.h ****  */
  18:../Firmware/RISCV/drivers/core_compatiable.h **** #ifndef __CORE_COMPATIABLE_H__
  19:../Firmware/RISCV/drivers/core_compatiable.h **** #define __CORE_COMPATIABLE_H__
  20:../Firmware/RISCV/drivers/core_compatiable.h **** /*!
  21:../Firmware/RISCV/drivers/core_compatiable.h ****  * @file     core_compatiable.h
  22:../Firmware/RISCV/drivers/core_compatiable.h ****  * @brief    ARM compatiable function definitions header file
  23:../Firmware/RISCV/drivers/core_compatiable.h ****  */
  24:../Firmware/RISCV/drivers/core_compatiable.h **** #ifdef __cplusplus
  25:../Firmware/RISCV/drivers/core_compatiable.h ****  extern "C" {
  26:../Firmware/RISCV/drivers/core_compatiable.h **** #endif
  27:../Firmware/RISCV/drivers/core_compatiable.h **** 
  28:../Firmware/RISCV/drivers/core_compatiable.h **** /* ===== ARM Compatiable Functions ===== */
  29:../Firmware/RISCV/drivers/core_compatiable.h **** /**
  30:../Firmware/RISCV/drivers/core_compatiable.h ****  * \defgroup NMSIS_Core_ARMCompatiable_Functions   ARM Compatiable Functions
  31:../Firmware/RISCV/drivers/core_compatiable.h ****  * \ingroup  NMSIS_Core
  32:../Firmware/RISCV/drivers/core_compatiable.h ****  * \brief    A few functions that compatiable with ARM CMSIS-Core.
  33:../Firmware/RISCV/drivers/core_compatiable.h ****  * \details
  34:../Firmware/RISCV/drivers/core_compatiable.h ****  *
  35:../Firmware/RISCV/drivers/core_compatiable.h ****  * Here we provided a few functions that compatiable with ARM CMSIS-Core,
  36:../Firmware/RISCV/drivers/core_compatiable.h ****  * mostly used in the DSP and NN library.
  37:../Firmware/RISCV/drivers/core_compatiable.h ****  * @{
  38:../Firmware/RISCV/drivers/core_compatiable.h ****  */
  39:../Firmware/RISCV/drivers/core_compatiable.h **** /** \brief Instruction Synchronization Barrier, compatiable with ARM */
  40:../Firmware/RISCV/drivers/core_compatiable.h **** #define __ISB()                             __RWMB()
  41:../Firmware/RISCV/drivers/core_compatiable.h **** 
  42:../Firmware/RISCV/drivers/core_compatiable.h **** /** \brief Data Synchronization Barrier, compatiable with ARM */
  43:../Firmware/RISCV/drivers/core_compatiable.h **** #define __DSB()                             __RWMB()
  44:../Firmware/RISCV/drivers/core_compatiable.h **** 
  45:../Firmware/RISCV/drivers/core_compatiable.h **** /** \brief Data Memory Barrier, compatiable with ARM */
  46:../Firmware/RISCV/drivers/core_compatiable.h **** #define __DMB()                             __RWMB()
  47:../Firmware/RISCV/drivers/core_compatiable.h **** 
  48:../Firmware/RISCV/drivers/core_compatiable.h **** /** \brief LDRT Unprivileged (8 bit), ARM Compatiable */
  49:../Firmware/RISCV/drivers/core_compatiable.h **** #define __LDRBT(ptr)                        __LB((ptr))
  50:../Firmware/RISCV/drivers/core_compatiable.h **** /** \brief LDRT Unprivileged (16 bit), ARM Compatiable */
  51:../Firmware/RISCV/drivers/core_compatiable.h **** #define __LDRHT(ptr)                        __LH((ptr))
  52:../Firmware/RISCV/drivers/core_compatiable.h **** /** \brief LDRT Unprivileged (32 bit), ARM Compatiable */
  53:../Firmware/RISCV/drivers/core_compatiable.h **** #define __LDRT(ptr)                         __LW((ptr))
  54:../Firmware/RISCV/drivers/core_compatiable.h **** 
  55:../Firmware/RISCV/drivers/core_compatiable.h **** /** \brief STRT Unprivileged (8 bit), ARM Compatiable */
  56:../Firmware/RISCV/drivers/core_compatiable.h **** #define __STRBT(val, ptr)                   __SB((ptr), (val))
  57:../Firmware/RISCV/drivers/core_compatiable.h **** /** \brief STRT Unprivileged (16 bit), ARM Compatiable */
  58:../Firmware/RISCV/drivers/core_compatiable.h **** #define __STRHT(val, ptr)                   __SH((ptr), (val))
  59:../Firmware/RISCV/drivers/core_compatiable.h **** /** \brief STRT Unprivileged (32 bit), ARM Compatiable */
  60:../Firmware/RISCV/drivers/core_compatiable.h **** #define __STRT(val, ptr)                    __SW((ptr), (val))
  61:../Firmware/RISCV/drivers/core_compatiable.h **** 
  62:../Firmware/RISCV/drivers/core_compatiable.h **** /* ===== Saturation Operations ===== */
  63:../Firmware/RISCV/drivers/core_compatiable.h **** /**
  64:../Firmware/RISCV/drivers/core_compatiable.h ****  * \brief   Signed Saturate
  65:../Firmware/RISCV/drivers/core_compatiable.h ****  * \details Saturates a signed value.
  66:../Firmware/RISCV/drivers/core_compatiable.h ****  * \param [in]  value  Value to be saturated
  67:../Firmware/RISCV/drivers/core_compatiable.h ****  * \param [in]    sat  Bit position to saturate to (1..32)
  68:../Firmware/RISCV/drivers/core_compatiable.h ****  * \return             Saturated value
  69:../Firmware/RISCV/drivers/core_compatiable.h ****  */
  70:../Firmware/RISCV/drivers/core_compatiable.h **** #if defined(__DSP_PRESENT) && (__DSP_PRESENT == 1)
  71:../Firmware/RISCV/drivers/core_compatiable.h **** #define __SSAT(val, sat)          __RV_SCLIP32((val), (sat-1))
  72:../Firmware/RISCV/drivers/core_compatiable.h **** #else
  73:../Firmware/RISCV/drivers/core_compatiable.h **** __STATIC_FORCEINLINE int32_t __SSAT(int32_t val, uint32_t sat)
  74:../Firmware/RISCV/drivers/core_compatiable.h **** {
  75:../Firmware/RISCV/drivers/core_compatiable.h ****     if ((sat >= 1U) && (sat <= 32U)) {
  76:../Firmware/RISCV/drivers/core_compatiable.h ****         const int32_t max = (int32_t)((1U << (sat - 1U)) - 1U);
  77:../Firmware/RISCV/drivers/core_compatiable.h ****         const int32_t min = -1 - max ;
  78:../Firmware/RISCV/drivers/core_compatiable.h ****         if (val > max) {
  79:../Firmware/RISCV/drivers/core_compatiable.h ****             return max;
  80:../Firmware/RISCV/drivers/core_compatiable.h ****         } else if (val < min) {
  81:../Firmware/RISCV/drivers/core_compatiable.h ****             return min;
  82:../Firmware/RISCV/drivers/core_compatiable.h ****         }
  83:../Firmware/RISCV/drivers/core_compatiable.h ****     }
  84:../Firmware/RISCV/drivers/core_compatiable.h ****     return val;
  85:../Firmware/RISCV/drivers/core_compatiable.h **** }
  86:../Firmware/RISCV/drivers/core_compatiable.h **** #endif
  87:../Firmware/RISCV/drivers/core_compatiable.h **** 
  88:../Firmware/RISCV/drivers/core_compatiable.h **** /**
  89:../Firmware/RISCV/drivers/core_compatiable.h ****  * \brief   Unsigned Saturate
  90:../Firmware/RISCV/drivers/core_compatiable.h ****  * \details Saturates an unsigned value.
  91:../Firmware/RISCV/drivers/core_compatiable.h ****  * \param [in]  value  Value to be saturated
  92:../Firmware/RISCV/drivers/core_compatiable.h ****  * \param [in]    sat  Bit position to saturate to (0..31)
  93:../Firmware/RISCV/drivers/core_compatiable.h ****  * \return             Saturated value
  94:../Firmware/RISCV/drivers/core_compatiable.h ****  */
  95:../Firmware/RISCV/drivers/core_compatiable.h **** #if defined(__DSP_PRESENT) && (__DSP_PRESENT == 1)
  96:../Firmware/RISCV/drivers/core_compatiable.h **** #define __USAT(val, sat)        __RV_UCLIP32((val), (sat))
  97:../Firmware/RISCV/drivers/core_compatiable.h **** #else
  98:../Firmware/RISCV/drivers/core_compatiable.h **** __STATIC_FORCEINLINE uint32_t __USAT(int32_t val, uint32_t sat)
  99:../Firmware/RISCV/drivers/core_compatiable.h **** {
 100:../Firmware/RISCV/drivers/core_compatiable.h ****     if (sat <= 31U) {
 101:../Firmware/RISCV/drivers/core_compatiable.h ****         const uint32_t max = ((1U << sat) - 1U);
 102:../Firmware/RISCV/drivers/core_compatiable.h ****         if (val > (int32_t)max) {
 103:../Firmware/RISCV/drivers/core_compatiable.h ****             return max;
 104:../Firmware/RISCV/drivers/core_compatiable.h ****         } else if (val < 0) {
 105:../Firmware/RISCV/drivers/core_compatiable.h ****             return 0U;
 106:../Firmware/RISCV/drivers/core_compatiable.h ****         }
 107:../Firmware/RISCV/drivers/core_compatiable.h ****     }
 108:../Firmware/RISCV/drivers/core_compatiable.h ****     return (uint32_t)val;
 109:../Firmware/RISCV/drivers/core_compatiable.h **** }
 110:../Firmware/RISCV/drivers/core_compatiable.h **** #endif
 111:../Firmware/RISCV/drivers/core_compatiable.h **** 
 112:../Firmware/RISCV/drivers/core_compatiable.h **** /* ===== Data Processing Operations ===== */
 113:../Firmware/RISCV/drivers/core_compatiable.h **** /**
 114:../Firmware/RISCV/drivers/core_compatiable.h ****  * \brief   Reverse byte order (32 bit)
 115:../Firmware/RISCV/drivers/core_compatiable.h ****  * \details Reverses the byte order in unsigned integer value.
 116:../Firmware/RISCV/drivers/core_compatiable.h ****  * For example, 0x12345678 becomes 0x78563412.
 117:../Firmware/RISCV/drivers/core_compatiable.h ****  * \param [in]    value  Value to reverse
 118:../Firmware/RISCV/drivers/core_compatiable.h ****  * \return               Reversed value
 119:../Firmware/RISCV/drivers/core_compatiable.h ****  */
 120:../Firmware/RISCV/drivers/core_compatiable.h **** __STATIC_FORCEINLINE uint32_t __REV(uint32_t value)
 121:../Firmware/RISCV/drivers/core_compatiable.h **** {
 122:../Firmware/RISCV/drivers/core_compatiable.h ****     uint32_t result;
 123:../Firmware/RISCV/drivers/core_compatiable.h **** 
 124:../Firmware/RISCV/drivers/core_compatiable.h ****     result =  ((value & 0xff000000) >> 24)
 427              		.loc 2 124 37
 428 0082 032784FC 		lw	a4,-56(s0)
 429 0086 93568701 		srli	a3,a4,24
 125:../Firmware/RISCV/drivers/core_compatiable.h ****         | ((value & 0x00ff0000) >> 8 )
 430              		.loc 2 125 33
 431 008a 032784FC 		lw	a4,-56(s0)
 432 008e 13568700 		srli	a2,a4,8
 433 0092 4167     		li	a4,65536
 434 0094 130707F0 		addi	a4,a4,-256
 435 0098 718F     		and	a4,a2,a4
 436              		.loc 2 125 9
 437 009a D98E     		or	a3,a3,a4
 126:../Firmware/RISCV/drivers/core_compatiable.h ****         | ((value & 0x0000ff00) << 8 )
 438              		.loc 2 126 33
 439 009c 032784FC 		lw	a4,-56(s0)
 440 00a0 13168700 		slli	a2,a4,8
 441 00a4 3707FF00 		li	a4,16711680
 442 00a8 718F     		and	a4,a2,a4
 443              		.loc 2 126 9
 444 00aa D98E     		or	a3,a3,a4
 127:../Firmware/RISCV/drivers/core_compatiable.h ****         | ((value & 0x000000ff) << 24);
 445              		.loc 2 127 33
 446 00ac 032784FC 		lw	a4,-56(s0)
 447 00b0 6207     		slli	a4,a4,24
 124:../Firmware/RISCV/drivers/core_compatiable.h ****         | ((value & 0x00ff0000) >> 8 )
 448              		.loc 2 124 12
 449 00b2 558F     		or	a4,a3,a4
 450 00b4 2322E4FC 		sw	a4,-60(s0)
 128:../Firmware/RISCV/drivers/core_compatiable.h ****     return result;
 451              		.loc 2 128 12
 452 00b8 032744FC 		lw	a4,-60(s0)
 453              	.LBE51:
 454              	.LBE50:
 188:../Firmware/GD32VW55x_standard_peripheral/Source/gd32vw55x_hau_sha_md5.c ****         outputaddr += 4U;
 455              		.loc 1 188 35
 456 00bc 98C3     		sw	a4,0(a5)
 189:../Firmware/GD32VW55x_standard_peripheral/Source/gd32vw55x_hau_sha_md5.c ****         *(uint32_t*)(outputaddr)  = __REV(digest_para.out[1]);
 457              		.loc 1 189 20
 458 00be 8327C4FE 		lw	a5,-20(s0)
 459 00c2 9107     		addi	a5,a5,4
 460 00c4 2326F4FE 		sw	a5,-20(s0)
 190:../Firmware/GD32VW55x_standard_peripheral/Source/gd32vw55x_hau_sha_md5.c ****         outputaddr += 4U;
 461              		.loc 1 190 37
 462 00c8 032704F1 		lw	a4,-240(s0)
 190:../Firmware/GD32VW55x_standard_peripheral/Source/gd32vw55x_hau_sha_md5.c ****         outputaddr += 4U;
 463              		.loc 1 190 10
 464 00cc 8327C4FE 		lw	a5,-20(s0)
 465 00d0 2328E4FC 		sw	a4,-48(s0)
 466              	.LBB52:
 467              	.LBB53:
 124:../Firmware/RISCV/drivers/core_compatiable.h ****         | ((value & 0x00ff0000) >> 8 )
 468              		.loc 2 124 37
 469 00d4 032704FD 		lw	a4,-48(s0)
 470 00d8 93568701 		srli	a3,a4,24
 125:../Firmware/RISCV/drivers/core_compatiable.h ****         | ((value & 0x0000ff00) << 8 )
 471              		.loc 2 125 33
 472 00dc 032704FD 		lw	a4,-48(s0)
 473 00e0 13568700 		srli	a2,a4,8
 474 00e4 4167     		li	a4,65536
 475 00e6 130707F0 		addi	a4,a4,-256
 476 00ea 718F     		and	a4,a2,a4
 125:../Firmware/RISCV/drivers/core_compatiable.h ****         | ((value & 0x0000ff00) << 8 )
 477              		.loc 2 125 9
 478 00ec D98E     		or	a3,a3,a4
 126:../Firmware/RISCV/drivers/core_compatiable.h ****         | ((value & 0x000000ff) << 24);
 479              		.loc 2 126 33
 480 00ee 032704FD 		lw	a4,-48(s0)
 481 00f2 13168700 		slli	a2,a4,8
 482 00f6 3707FF00 		li	a4,16711680
 483 00fa 718F     		and	a4,a2,a4
 126:../Firmware/RISCV/drivers/core_compatiable.h ****         | ((value & 0x000000ff) << 24);
 484              		.loc 2 126 9
 485 00fc D98E     		or	a3,a3,a4
 127:../Firmware/RISCV/drivers/core_compatiable.h ****     return result;
 486              		.loc 2 127 33
 487 00fe 032704FD 		lw	a4,-48(s0)
 488 0102 6207     		slli	a4,a4,24
 124:../Firmware/RISCV/drivers/core_compatiable.h ****         | ((value & 0x00ff0000) >> 8 )
 489              		.loc 2 124 12
 490 0104 558F     		or	a4,a3,a4
 491 0106 2326E4FC 		sw	a4,-52(s0)
 492              		.loc 2 128 12
 493 010a 0327C4FC 		lw	a4,-52(s0)
 494              	.LBE53:
 495              	.LBE52:
 190:../Firmware/GD32VW55x_standard_peripheral/Source/gd32vw55x_hau_sha_md5.c ****         outputaddr += 4U;
 496              		.loc 1 190 35
 497 010e 98C3     		sw	a4,0(a5)
 191:../Firmware/GD32VW55x_standard_peripheral/Source/gd32vw55x_hau_sha_md5.c ****         *(uint32_t*)(outputaddr)  = __REV(digest_para.out[2]);
 498              		.loc 1 191 20
 499 0110 8327C4FE 		lw	a5,-20(s0)
 500 0114 9107     		addi	a5,a5,4
 501 0116 2326F4FE 		sw	a5,-20(s0)
 192:../Firmware/GD32VW55x_standard_peripheral/Source/gd32vw55x_hau_sha_md5.c ****         outputaddr += 4U;
 502              		.loc 1 192 37
 503 011a 032744F1 		lw	a4,-236(s0)
 192:../Firmware/GD32VW55x_standard_peripheral/Source/gd32vw55x_hau_sha_md5.c ****         outputaddr += 4U;
 504              		.loc 1 192 10
 505 011e 8327C4FE 		lw	a5,-20(s0)
 506 0122 232CE4FC 		sw	a4,-40(s0)
 507              	.LBB54:
 508              	.LBB55:
 124:../Firmware/RISCV/drivers/core_compatiable.h ****         | ((value & 0x00ff0000) >> 8 )
 509              		.loc 2 124 37
 510 0126 032784FD 		lw	a4,-40(s0)
 511 012a 93568701 		srli	a3,a4,24
 125:../Firmware/RISCV/drivers/core_compatiable.h ****         | ((value & 0x0000ff00) << 8 )
 512              		.loc 2 125 33
 513 012e 032784FD 		lw	a4,-40(s0)
 514 0132 13568700 		srli	a2,a4,8
 515 0136 4167     		li	a4,65536
 516 0138 130707F0 		addi	a4,a4,-256
 517 013c 718F     		and	a4,a2,a4
 125:../Firmware/RISCV/drivers/core_compatiable.h ****         | ((value & 0x0000ff00) << 8 )
 518              		.loc 2 125 9
 519 013e D98E     		or	a3,a3,a4
 126:../Firmware/RISCV/drivers/core_compatiable.h ****         | ((value & 0x000000ff) << 24);
 520              		.loc 2 126 33
 521 0140 032784FD 		lw	a4,-40(s0)
 522 0144 13168700 		slli	a2,a4,8
 523 0148 3707FF00 		li	a4,16711680
 524 014c 718F     		and	a4,a2,a4
 126:../Firmware/RISCV/drivers/core_compatiable.h ****         | ((value & 0x000000ff) << 24);
 525              		.loc 2 126 9
 526 014e D98E     		or	a3,a3,a4
 127:../Firmware/RISCV/drivers/core_compatiable.h ****     return result;
 527              		.loc 2 127 33
 528 0150 032784FD 		lw	a4,-40(s0)
 529 0154 6207     		slli	a4,a4,24
 124:../Firmware/RISCV/drivers/core_compatiable.h ****         | ((value & 0x00ff0000) >> 8 )
 530              		.loc 2 124 12
 531 0156 558F     		or	a4,a3,a4
 532 0158 232AE4FC 		sw	a4,-44(s0)
 533              		.loc 2 128 12
 534 015c 032744FD 		lw	a4,-44(s0)
 535              	.LBE55:
 536              	.LBE54:
 192:../Firmware/GD32VW55x_standard_peripheral/Source/gd32vw55x_hau_sha_md5.c ****         outputaddr += 4U;
 537              		.loc 1 192 35
 538 0160 98C3     		sw	a4,0(a5)
 193:../Firmware/GD32VW55x_standard_peripheral/Source/gd32vw55x_hau_sha_md5.c ****         *(uint32_t*)(outputaddr)  = __REV(digest_para.out[3]);
 539              		.loc 1 193 20
 540 0162 8327C4FE 		lw	a5,-20(s0)
 541 0166 9107     		addi	a5,a5,4
 542 0168 2326F4FE 		sw	a5,-20(s0)
 194:../Firmware/GD32VW55x_standard_peripheral/Source/gd32vw55x_hau_sha_md5.c ****         outputaddr += 4U;
 543              		.loc 1 194 37
 544 016c 032784F1 		lw	a4,-232(s0)
 194:../Firmware/GD32VW55x_standard_peripheral/Source/gd32vw55x_hau_sha_md5.c ****         outputaddr += 4U;
 545              		.loc 1 194 10
 546 0170 8327C4FE 		lw	a5,-20(s0)
 547 0174 2320E4FE 		sw	a4,-32(s0)
 548              	.LBB56:
 549              	.LBB57:
 124:../Firmware/RISCV/drivers/core_compatiable.h ****         | ((value & 0x00ff0000) >> 8 )
 550              		.loc 2 124 37
 551 0178 032704FE 		lw	a4,-32(s0)
 552 017c 93568701 		srli	a3,a4,24
 125:../Firmware/RISCV/drivers/core_compatiable.h ****         | ((value & 0x0000ff00) << 8 )
 553              		.loc 2 125 33
 554 0180 032704FE 		lw	a4,-32(s0)
 555 0184 13568700 		srli	a2,a4,8
 556 0188 4167     		li	a4,65536
 557 018a 130707F0 		addi	a4,a4,-256
 558 018e 718F     		and	a4,a2,a4
 125:../Firmware/RISCV/drivers/core_compatiable.h ****         | ((value & 0x0000ff00) << 8 )
 559              		.loc 2 125 9
 560 0190 D98E     		or	a3,a3,a4
 126:../Firmware/RISCV/drivers/core_compatiable.h ****         | ((value & 0x000000ff) << 24);
 561              		.loc 2 126 33
 562 0192 032704FE 		lw	a4,-32(s0)
 563 0196 13168700 		slli	a2,a4,8
 564 019a 3707FF00 		li	a4,16711680
 565 019e 718F     		and	a4,a2,a4
 126:../Firmware/RISCV/drivers/core_compatiable.h ****         | ((value & 0x000000ff) << 24);
 566              		.loc 2 126 9
 567 01a0 D98E     		or	a3,a3,a4
 127:../Firmware/RISCV/drivers/core_compatiable.h ****     return result;
 568              		.loc 2 127 33
 569 01a2 032704FE 		lw	a4,-32(s0)
 570 01a6 6207     		slli	a4,a4,24
 124:../Firmware/RISCV/drivers/core_compatiable.h ****         | ((value & 0x00ff0000) >> 8 )
 571              		.loc 2 124 12
 572 01a8 558F     		or	a4,a3,a4
 573 01aa 232EE4FC 		sw	a4,-36(s0)
 574              		.loc 2 128 12
 575 01ae 0327C4FD 		lw	a4,-36(s0)
 576              	.LBE57:
 577              	.LBE56:
 194:../Firmware/GD32VW55x_standard_peripheral/Source/gd32vw55x_hau_sha_md5.c ****         outputaddr += 4U;
 578              		.loc 1 194 35
 579 01b2 98C3     		sw	a4,0(a5)
 195:../Firmware/GD32VW55x_standard_peripheral/Source/gd32vw55x_hau_sha_md5.c ****         *(uint32_t*)(outputaddr)  = __REV(digest_para.out[4]);
 580              		.loc 1 195 20
 581 01b4 8327C4FE 		lw	a5,-20(s0)
 582 01b8 9107     		addi	a5,a5,4
 583 01ba 2326F4FE 		sw	a5,-20(s0)
 196:../Firmware/GD32VW55x_standard_peripheral/Source/gd32vw55x_hau_sha_md5.c ****         break;
 584              		.loc 1 196 37
 585 01be 0327C4F1 		lw	a4,-228(s0)
 196:../Firmware/GD32VW55x_standard_peripheral/Source/gd32vw55x_hau_sha_md5.c ****         break;
 586              		.loc 1 196 10
 587 01c2 8327C4FE 		lw	a5,-20(s0)
 588 01c6 2324E4FE 		sw	a4,-24(s0)
 589              	.LBB58:
 590              	.LBB59:
 124:../Firmware/RISCV/drivers/core_compatiable.h ****         | ((value & 0x00ff0000) >> 8 )
 591              		.loc 2 124 37
 592 01ca 032784FE 		lw	a4,-24(s0)
 593 01ce 93568701 		srli	a3,a4,24
 125:../Firmware/RISCV/drivers/core_compatiable.h ****         | ((value & 0x0000ff00) << 8 )
 594              		.loc 2 125 33
 595 01d2 032784FE 		lw	a4,-24(s0)
 596 01d6 13568700 		srli	a2,a4,8
 597 01da 4167     		li	a4,65536
 598 01dc 130707F0 		addi	a4,a4,-256
 599 01e0 718F     		and	a4,a2,a4
 125:../Firmware/RISCV/drivers/core_compatiable.h ****         | ((value & 0x0000ff00) << 8 )
 600              		.loc 2 125 9
 601 01e2 D98E     		or	a3,a3,a4
 126:../Firmware/RISCV/drivers/core_compatiable.h ****         | ((value & 0x000000ff) << 24);
 602              		.loc 2 126 33
 603 01e4 032784FE 		lw	a4,-24(s0)
 604 01e8 13168700 		slli	a2,a4,8
 605 01ec 3707FF00 		li	a4,16711680
 606 01f0 718F     		and	a4,a2,a4
 126:../Firmware/RISCV/drivers/core_compatiable.h ****         | ((value & 0x000000ff) << 24);
 607              		.loc 2 126 9
 608 01f2 D98E     		or	a3,a3,a4
 127:../Firmware/RISCV/drivers/core_compatiable.h ****     return result;
 609              		.loc 2 127 33
 610 01f4 032784FE 		lw	a4,-24(s0)
 611 01f8 6207     		slli	a4,a4,24
 124:../Firmware/RISCV/drivers/core_compatiable.h ****         | ((value & 0x00ff0000) >> 8 )
 612              		.loc 2 124 12
 613 01fa 558F     		or	a4,a3,a4
 614 01fc 2322E4FE 		sw	a4,-28(s0)
 615              		.loc 2 128 12
 616 0200 032744FE 		lw	a4,-28(s0)
 617              	.LBE59:
 618              	.LBE58:
 196:../Firmware/GD32VW55x_standard_peripheral/Source/gd32vw55x_hau_sha_md5.c ****         break;
 619              		.loc 1 196 35
 620 0204 98C3     		sw	a4,0(a5)
 197:../Firmware/GD32VW55x_standard_peripheral/Source/gd32vw55x_hau_sha_md5.c ****     case HAU_ALGO_SHA224:
 621              		.loc 1 197 9
 622 0206 35A5     		j	.L28
 623              	.L20:
 199:../Firmware/GD32VW55x_standard_peripheral/Source/gd32vw55x_hau_sha_md5.c ****         *(uint32_t*)(outputaddr)  = __REV(digest_para.out[0]);
 624              		.loc 1 199 9
 625 0208 9307C4F0 		addi	a5,s0,-244
 626 020c 3E85     		mv	a0,a5
 627 020e 97000000 		call	hau_digest_read
 627      E7800000 
 200:../Firmware/GD32VW55x_standard_peripheral/Source/gd32vw55x_hau_sha_md5.c ****         outputaddr += 4U;
 628              		.loc 1 200 37
 629 0216 0327C4F0 		lw	a4,-244(s0)
 200:../Firmware/GD32VW55x_standard_peripheral/Source/gd32vw55x_hau_sha_md5.c ****         outputaddr += 4U;
 630              		.loc 1 200 10
 631 021a 8327C4FE 		lw	a5,-20(s0)
 632 021e 2328E4F8 		sw	a4,-112(s0)
 633              	.LBB60:
 634              	.LBB61:
 124:../Firmware/RISCV/drivers/core_compatiable.h ****         | ((value & 0x00ff0000) >> 8 )
 635              		.loc 2 124 37
 636 0222 032704F9 		lw	a4,-112(s0)
 637 0226 93568701 		srli	a3,a4,24
 125:../Firmware/RISCV/drivers/core_compatiable.h ****         | ((value & 0x0000ff00) << 8 )
 638              		.loc 2 125 33
 639 022a 032704F9 		lw	a4,-112(s0)
 640 022e 13568700 		srli	a2,a4,8
 641 0232 4167     		li	a4,65536
 642 0234 130707F0 		addi	a4,a4,-256
 643 0238 718F     		and	a4,a2,a4
 125:../Firmware/RISCV/drivers/core_compatiable.h ****         | ((value & 0x0000ff00) << 8 )
 644              		.loc 2 125 9
 645 023a D98E     		or	a3,a3,a4
 126:../Firmware/RISCV/drivers/core_compatiable.h ****         | ((value & 0x000000ff) << 24);
 646              		.loc 2 126 33
 647 023c 032704F9 		lw	a4,-112(s0)
 648 0240 13168700 		slli	a2,a4,8
 649 0244 3707FF00 		li	a4,16711680
 650 0248 718F     		and	a4,a2,a4
 126:../Firmware/RISCV/drivers/core_compatiable.h ****         | ((value & 0x000000ff) << 24);
 651              		.loc 2 126 9
 652 024a D98E     		or	a3,a3,a4
 127:../Firmware/RISCV/drivers/core_compatiable.h ****     return result;
 653              		.loc 2 127 33
 654 024c 032704F9 		lw	a4,-112(s0)
 655 0250 6207     		slli	a4,a4,24
 124:../Firmware/RISCV/drivers/core_compatiable.h ****         | ((value & 0x00ff0000) >> 8 )
 656              		.loc 2 124 12
 657 0252 558F     		or	a4,a3,a4
 658 0254 2326E4F8 		sw	a4,-116(s0)
 659              		.loc 2 128 12
 660 0258 0327C4F8 		lw	a4,-116(s0)
 661              	.LBE61:
 662              	.LBE60:
 200:../Firmware/GD32VW55x_standard_peripheral/Source/gd32vw55x_hau_sha_md5.c ****         outputaddr += 4U;
 663              		.loc 1 200 35
 664 025c 98C3     		sw	a4,0(a5)
 201:../Firmware/GD32VW55x_standard_peripheral/Source/gd32vw55x_hau_sha_md5.c ****         *(uint32_t*)(outputaddr)  = __REV(digest_para.out[1]);
 665              		.loc 1 201 20
 666 025e 8327C4FE 		lw	a5,-20(s0)
 667 0262 9107     		addi	a5,a5,4
 668 0264 2326F4FE 		sw	a5,-20(s0)
 202:../Firmware/GD32VW55x_standard_peripheral/Source/gd32vw55x_hau_sha_md5.c ****         outputaddr += 4U;
 669              		.loc 1 202 37
 670 0268 032704F1 		lw	a4,-240(s0)
 202:../Firmware/GD32VW55x_standard_peripheral/Source/gd32vw55x_hau_sha_md5.c ****         outputaddr += 4U;
 671              		.loc 1 202 10
 672 026c 8327C4FE 		lw	a5,-20(s0)
 673 0270 232CE4F8 		sw	a4,-104(s0)
 674              	.LBB62:
 675              	.LBB63:
 124:../Firmware/RISCV/drivers/core_compatiable.h ****         | ((value & 0x00ff0000) >> 8 )
 676              		.loc 2 124 37
 677 0274 032784F9 		lw	a4,-104(s0)
 678 0278 93568701 		srli	a3,a4,24
 125:../Firmware/RISCV/drivers/core_compatiable.h ****         | ((value & 0x0000ff00) << 8 )
 679              		.loc 2 125 33
 680 027c 032784F9 		lw	a4,-104(s0)
 681 0280 13568700 		srli	a2,a4,8
 682 0284 4167     		li	a4,65536
 683 0286 130707F0 		addi	a4,a4,-256
 684 028a 718F     		and	a4,a2,a4
 125:../Firmware/RISCV/drivers/core_compatiable.h ****         | ((value & 0x0000ff00) << 8 )
 685              		.loc 2 125 9
 686 028c D98E     		or	a3,a3,a4
 126:../Firmware/RISCV/drivers/core_compatiable.h ****         | ((value & 0x000000ff) << 24);
 687              		.loc 2 126 33
 688 028e 032784F9 		lw	a4,-104(s0)
 689 0292 13168700 		slli	a2,a4,8
 690 0296 3707FF00 		li	a4,16711680
 691 029a 718F     		and	a4,a2,a4
 126:../Firmware/RISCV/drivers/core_compatiable.h ****         | ((value & 0x000000ff) << 24);
 692              		.loc 2 126 9
 693 029c D98E     		or	a3,a3,a4
 127:../Firmware/RISCV/drivers/core_compatiable.h ****     return result;
 694              		.loc 2 127 33
 695 029e 032784F9 		lw	a4,-104(s0)
 696 02a2 6207     		slli	a4,a4,24
 124:../Firmware/RISCV/drivers/core_compatiable.h ****         | ((value & 0x00ff0000) >> 8 )
 697              		.loc 2 124 12
 698 02a4 558F     		or	a4,a3,a4
 699 02a6 232AE4F8 		sw	a4,-108(s0)
 700              		.loc 2 128 12
 701 02aa 032744F9 		lw	a4,-108(s0)
 702              	.LBE63:
 703              	.LBE62:
 202:../Firmware/GD32VW55x_standard_peripheral/Source/gd32vw55x_hau_sha_md5.c ****         outputaddr += 4U;
 704              		.loc 1 202 35
 705 02ae 98C3     		sw	a4,0(a5)
 203:../Firmware/GD32VW55x_standard_peripheral/Source/gd32vw55x_hau_sha_md5.c ****         *(uint32_t*)(outputaddr)  = __REV(digest_para.out[2]);
 706              		.loc 1 203 20
 707 02b0 8327C4FE 		lw	a5,-20(s0)
 708 02b4 9107     		addi	a5,a5,4
 709 02b6 2326F4FE 		sw	a5,-20(s0)
 204:../Firmware/GD32VW55x_standard_peripheral/Source/gd32vw55x_hau_sha_md5.c ****         outputaddr += 4U;
 710              		.loc 1 204 37
 711 02ba 032744F1 		lw	a4,-236(s0)
 204:../Firmware/GD32VW55x_standard_peripheral/Source/gd32vw55x_hau_sha_md5.c ****         outputaddr += 4U;
 712              		.loc 1 204 10
 713 02be 8327C4FE 		lw	a5,-20(s0)
 714 02c2 2320E4FA 		sw	a4,-96(s0)
 715              	.LBB64:
 716              	.LBB65:
 124:../Firmware/RISCV/drivers/core_compatiable.h ****         | ((value & 0x00ff0000) >> 8 )
 717              		.loc 2 124 37
 718 02c6 032704FA 		lw	a4,-96(s0)
 719 02ca 93568701 		srli	a3,a4,24
 125:../Firmware/RISCV/drivers/core_compatiable.h ****         | ((value & 0x0000ff00) << 8 )
 720              		.loc 2 125 33
 721 02ce 032704FA 		lw	a4,-96(s0)
 722 02d2 13568700 		srli	a2,a4,8
 723 02d6 4167     		li	a4,65536
 724 02d8 130707F0 		addi	a4,a4,-256
 725 02dc 718F     		and	a4,a2,a4
 125:../Firmware/RISCV/drivers/core_compatiable.h ****         | ((value & 0x0000ff00) << 8 )
 726              		.loc 2 125 9
 727 02de D98E     		or	a3,a3,a4
 126:../Firmware/RISCV/drivers/core_compatiable.h ****         | ((value & 0x000000ff) << 24);
 728              		.loc 2 126 33
 729 02e0 032704FA 		lw	a4,-96(s0)
 730 02e4 13168700 		slli	a2,a4,8
 731 02e8 3707FF00 		li	a4,16711680
 732 02ec 718F     		and	a4,a2,a4
 126:../Firmware/RISCV/drivers/core_compatiable.h ****         | ((value & 0x000000ff) << 24);
 733              		.loc 2 126 9
 734 02ee D98E     		or	a3,a3,a4
 127:../Firmware/RISCV/drivers/core_compatiable.h ****     return result;
 735              		.loc 2 127 33
 736 02f0 032704FA 		lw	a4,-96(s0)
 737 02f4 6207     		slli	a4,a4,24
 124:../Firmware/RISCV/drivers/core_compatiable.h ****         | ((value & 0x00ff0000) >> 8 )
 738              		.loc 2 124 12
 739 02f6 558F     		or	a4,a3,a4
 740 02f8 232EE4F8 		sw	a4,-100(s0)
 741              		.loc 2 128 12
 742 02fc 0327C4F9 		lw	a4,-100(s0)
 743              	.LBE65:
 744              	.LBE64:
 204:../Firmware/GD32VW55x_standard_peripheral/Source/gd32vw55x_hau_sha_md5.c ****         outputaddr += 4U;
 745              		.loc 1 204 35
 746 0300 98C3     		sw	a4,0(a5)
 205:../Firmware/GD32VW55x_standard_peripheral/Source/gd32vw55x_hau_sha_md5.c ****         *(uint32_t*)(outputaddr)  = __REV(digest_para.out[3]);
 747              		.loc 1 205 20
 748 0302 8327C4FE 		lw	a5,-20(s0)
 749 0306 9107     		addi	a5,a5,4
 750 0308 2326F4FE 		sw	a5,-20(s0)
 206:../Firmware/GD32VW55x_standard_peripheral/Source/gd32vw55x_hau_sha_md5.c ****         outputaddr += 4U;
 751              		.loc 1 206 37
 752 030c 032784F1 		lw	a4,-232(s0)
 206:../Firmware/GD32VW55x_standard_peripheral/Source/gd32vw55x_hau_sha_md5.c ****         outputaddr += 4U;
 753              		.loc 1 206 10
 754 0310 8327C4FE 		lw	a5,-20(s0)
 755 0314 2324E4FA 		sw	a4,-88(s0)
 756              	.LBB66:
 757              	.LBB67:
 124:../Firmware/RISCV/drivers/core_compatiable.h ****         | ((value & 0x00ff0000) >> 8 )
 758              		.loc 2 124 37
 759 0318 032784FA 		lw	a4,-88(s0)
 760 031c 93568701 		srli	a3,a4,24
 125:../Firmware/RISCV/drivers/core_compatiable.h ****         | ((value & 0x0000ff00) << 8 )
 761              		.loc 2 125 33
 762 0320 032784FA 		lw	a4,-88(s0)
 763 0324 13568700 		srli	a2,a4,8
 764 0328 4167     		li	a4,65536
 765 032a 130707F0 		addi	a4,a4,-256
 766 032e 718F     		and	a4,a2,a4
 125:../Firmware/RISCV/drivers/core_compatiable.h ****         | ((value & 0x0000ff00) << 8 )
 767              		.loc 2 125 9
 768 0330 D98E     		or	a3,a3,a4
 126:../Firmware/RISCV/drivers/core_compatiable.h ****         | ((value & 0x000000ff) << 24);
 769              		.loc 2 126 33
 770 0332 032784FA 		lw	a4,-88(s0)
 771 0336 13168700 		slli	a2,a4,8
 772 033a 3707FF00 		li	a4,16711680
 773 033e 718F     		and	a4,a2,a4
 126:../Firmware/RISCV/drivers/core_compatiable.h ****         | ((value & 0x000000ff) << 24);
 774              		.loc 2 126 9
 775 0340 D98E     		or	a3,a3,a4
 127:../Firmware/RISCV/drivers/core_compatiable.h ****     return result;
 776              		.loc 2 127 33
 777 0342 032784FA 		lw	a4,-88(s0)
 778 0346 6207     		slli	a4,a4,24
 124:../Firmware/RISCV/drivers/core_compatiable.h ****         | ((value & 0x00ff0000) >> 8 )
 779              		.loc 2 124 12
 780 0348 558F     		or	a4,a3,a4
 781 034a 2322E4FA 		sw	a4,-92(s0)
 782              		.loc 2 128 12
 783 034e 032744FA 		lw	a4,-92(s0)
 784              	.LBE67:
 785              	.LBE66:
 206:../Firmware/GD32VW55x_standard_peripheral/Source/gd32vw55x_hau_sha_md5.c ****         outputaddr += 4U;
 786              		.loc 1 206 35
 787 0352 98C3     		sw	a4,0(a5)
 207:../Firmware/GD32VW55x_standard_peripheral/Source/gd32vw55x_hau_sha_md5.c ****         *(uint32_t*)(outputaddr)  = __REV(digest_para.out[4]);
 788              		.loc 1 207 20
 789 0354 8327C4FE 		lw	a5,-20(s0)
 790 0358 9107     		addi	a5,a5,4
 791 035a 2326F4FE 		sw	a5,-20(s0)
 208:../Firmware/GD32VW55x_standard_peripheral/Source/gd32vw55x_hau_sha_md5.c ****         outputaddr += 4U;
 792              		.loc 1 208 37
 793 035e 0327C4F1 		lw	a4,-228(s0)
 208:../Firmware/GD32VW55x_standard_peripheral/Source/gd32vw55x_hau_sha_md5.c ****         outputaddr += 4U;
 794              		.loc 1 208 10
 795 0362 8327C4FE 		lw	a5,-20(s0)
 796 0366 2328E4FA 		sw	a4,-80(s0)
 797              	.LBB68:
 798              	.LBB69:
 124:../Firmware/RISCV/drivers/core_compatiable.h ****         | ((value & 0x00ff0000) >> 8 )
 799              		.loc 2 124 37
 800 036a 032704FB 		lw	a4,-80(s0)
 801 036e 93568701 		srli	a3,a4,24
 125:../Firmware/RISCV/drivers/core_compatiable.h ****         | ((value & 0x0000ff00) << 8 )
 802              		.loc 2 125 33
 803 0372 032704FB 		lw	a4,-80(s0)
 804 0376 13568700 		srli	a2,a4,8
 805 037a 4167     		li	a4,65536
 806 037c 130707F0 		addi	a4,a4,-256
 807 0380 718F     		and	a4,a2,a4
 125:../Firmware/RISCV/drivers/core_compatiable.h ****         | ((value & 0x0000ff00) << 8 )
 808              		.loc 2 125 9
 809 0382 D98E     		or	a3,a3,a4
 126:../Firmware/RISCV/drivers/core_compatiable.h ****         | ((value & 0x000000ff) << 24);
 810              		.loc 2 126 33
 811 0384 032704FB 		lw	a4,-80(s0)
 812 0388 13168700 		slli	a2,a4,8
 813 038c 3707FF00 		li	a4,16711680
 814 0390 718F     		and	a4,a2,a4
 126:../Firmware/RISCV/drivers/core_compatiable.h ****         | ((value & 0x000000ff) << 24);
 815              		.loc 2 126 9
 816 0392 D98E     		or	a3,a3,a4
 127:../Firmware/RISCV/drivers/core_compatiable.h ****     return result;
 817              		.loc 2 127 33
 818 0394 032704FB 		lw	a4,-80(s0)
 819 0398 6207     		slli	a4,a4,24
 124:../Firmware/RISCV/drivers/core_compatiable.h ****         | ((value & 0x00ff0000) >> 8 )
 820              		.loc 2 124 12
 821 039a 558F     		or	a4,a3,a4
 822 039c 2326E4FA 		sw	a4,-84(s0)
 823              		.loc 2 128 12
 824 03a0 0327C4FA 		lw	a4,-84(s0)
 825              	.LBE69:
 826              	.LBE68:
 208:../Firmware/GD32VW55x_standard_peripheral/Source/gd32vw55x_hau_sha_md5.c ****         outputaddr += 4U;
 827              		.loc 1 208 35
 828 03a4 98C3     		sw	a4,0(a5)
 209:../Firmware/GD32VW55x_standard_peripheral/Source/gd32vw55x_hau_sha_md5.c ****         *(uint32_t*)(outputaddr)  = __REV(digest_para.out[5]);
 829              		.loc 1 209 20
 830 03a6 8327C4FE 		lw	a5,-20(s0)
 831 03aa 9107     		addi	a5,a5,4
 832 03ac 2326F4FE 		sw	a5,-20(s0)
 210:../Firmware/GD32VW55x_standard_peripheral/Source/gd32vw55x_hau_sha_md5.c ****         outputaddr += 4U;
 833              		.loc 1 210 37
 834 03b0 032704F2 		lw	a4,-224(s0)
 210:../Firmware/GD32VW55x_standard_peripheral/Source/gd32vw55x_hau_sha_md5.c ****         outputaddr += 4U;
 835              		.loc 1 210 10
 836 03b4 8327C4FE 		lw	a5,-20(s0)
 837 03b8 232CE4FA 		sw	a4,-72(s0)
 838              	.LBB70:
 839              	.LBB71:
 124:../Firmware/RISCV/drivers/core_compatiable.h ****         | ((value & 0x00ff0000) >> 8 )
 840              		.loc 2 124 37
 841 03bc 032784FB 		lw	a4,-72(s0)
 842 03c0 93568701 		srli	a3,a4,24
 125:../Firmware/RISCV/drivers/core_compatiable.h ****         | ((value & 0x0000ff00) << 8 )
 843              		.loc 2 125 33
 844 03c4 032784FB 		lw	a4,-72(s0)
 845 03c8 13568700 		srli	a2,a4,8
 846 03cc 4167     		li	a4,65536
 847 03ce 130707F0 		addi	a4,a4,-256
 848 03d2 718F     		and	a4,a2,a4
 125:../Firmware/RISCV/drivers/core_compatiable.h ****         | ((value & 0x0000ff00) << 8 )
 849              		.loc 2 125 9
 850 03d4 D98E     		or	a3,a3,a4
 126:../Firmware/RISCV/drivers/core_compatiable.h ****         | ((value & 0x000000ff) << 24);
 851              		.loc 2 126 33
 852 03d6 032784FB 		lw	a4,-72(s0)
 853 03da 13168700 		slli	a2,a4,8
 854 03de 3707FF00 		li	a4,16711680
 855 03e2 718F     		and	a4,a2,a4
 126:../Firmware/RISCV/drivers/core_compatiable.h ****         | ((value & 0x000000ff) << 24);
 856              		.loc 2 126 9
 857 03e4 D98E     		or	a3,a3,a4
 127:../Firmware/RISCV/drivers/core_compatiable.h ****     return result;
 858              		.loc 2 127 33
 859 03e6 032784FB 		lw	a4,-72(s0)
 860 03ea 6207     		slli	a4,a4,24
 124:../Firmware/RISCV/drivers/core_compatiable.h ****         | ((value & 0x00ff0000) >> 8 )
 861              		.loc 2 124 12
 862 03ec 558F     		or	a4,a3,a4
 863 03ee 232AE4FA 		sw	a4,-76(s0)
 864              		.loc 2 128 12
 865 03f2 032744FB 		lw	a4,-76(s0)
 866              	.LBE71:
 867              	.LBE70:
 210:../Firmware/GD32VW55x_standard_peripheral/Source/gd32vw55x_hau_sha_md5.c ****         outputaddr += 4U;
 868              		.loc 1 210 35
 869 03f6 98C3     		sw	a4,0(a5)
 211:../Firmware/GD32VW55x_standard_peripheral/Source/gd32vw55x_hau_sha_md5.c ****         *(uint32_t*)(outputaddr)  = __REV(digest_para.out[6]);
 870              		.loc 1 211 20
 871 03f8 8327C4FE 		lw	a5,-20(s0)
 872 03fc 9107     		addi	a5,a5,4
 873 03fe 2326F4FE 		sw	a5,-20(s0)
 212:../Firmware/GD32VW55x_standard_peripheral/Source/gd32vw55x_hau_sha_md5.c ****         break;
 874              		.loc 1 212 37
 875 0402 032744F2 		lw	a4,-220(s0)
 212:../Firmware/GD32VW55x_standard_peripheral/Source/gd32vw55x_hau_sha_md5.c ****         break;
 876              		.loc 1 212 10
 877 0406 8327C4FE 		lw	a5,-20(s0)
 878 040a 2320E4FC 		sw	a4,-64(s0)
 879              	.LBB72:
 880              	.LBB73:
 124:../Firmware/RISCV/drivers/core_compatiable.h ****         | ((value & 0x00ff0000) >> 8 )
 881              		.loc 2 124 37
 882 040e 032704FC 		lw	a4,-64(s0)
 883 0412 93568701 		srli	a3,a4,24
 125:../Firmware/RISCV/drivers/core_compatiable.h ****         | ((value & 0x0000ff00) << 8 )
 884              		.loc 2 125 33
 885 0416 032704FC 		lw	a4,-64(s0)
 886 041a 13568700 		srli	a2,a4,8
 887 041e 4167     		li	a4,65536
 888 0420 130707F0 		addi	a4,a4,-256
 889 0424 718F     		and	a4,a2,a4
 125:../Firmware/RISCV/drivers/core_compatiable.h ****         | ((value & 0x0000ff00) << 8 )
 890              		.loc 2 125 9
 891 0426 D98E     		or	a3,a3,a4
 126:../Firmware/RISCV/drivers/core_compatiable.h ****         | ((value & 0x000000ff) << 24);
 892              		.loc 2 126 33
 893 0428 032704FC 		lw	a4,-64(s0)
 894 042c 13168700 		slli	a2,a4,8
 895 0430 3707FF00 		li	a4,16711680
 896 0434 718F     		and	a4,a2,a4
 126:../Firmware/RISCV/drivers/core_compatiable.h ****         | ((value & 0x000000ff) << 24);
 897              		.loc 2 126 9
 898 0436 D98E     		or	a3,a3,a4
 127:../Firmware/RISCV/drivers/core_compatiable.h ****     return result;
 899              		.loc 2 127 33
 900 0438 032704FC 		lw	a4,-64(s0)
 901 043c 6207     		slli	a4,a4,24
 124:../Firmware/RISCV/drivers/core_compatiable.h ****         | ((value & 0x00ff0000) >> 8 )
 902              		.loc 2 124 12
 903 043e 558F     		or	a4,a3,a4
 904 0440 232EE4FA 		sw	a4,-68(s0)
 905              		.loc 2 128 12
 906 0444 0327C4FB 		lw	a4,-68(s0)
 907              	.LBE73:
 908              	.LBE72:
 212:../Firmware/GD32VW55x_standard_peripheral/Source/gd32vw55x_hau_sha_md5.c ****         break;
 909              		.loc 1 212 35
 910 0448 98C3     		sw	a4,0(a5)
 213:../Firmware/GD32VW55x_standard_peripheral/Source/gd32vw55x_hau_sha_md5.c ****     case HAU_ALGO_SHA256:
 911              		.loc 1 213 9
 912 044a E5A6     		j	.L28
 913              	.L18:
 215:../Firmware/GD32VW55x_standard_peripheral/Source/gd32vw55x_hau_sha_md5.c ****         *(uint32_t*)(outputaddr)  = __REV(digest_para.out[0]);
 914              		.loc 1 215 9
 915 044c 9307C4F0 		addi	a5,s0,-244
 916 0450 3E85     		mv	a0,a5
 917 0452 97000000 		call	hau_digest_read
 917      E7800000 
 216:../Firmware/GD32VW55x_standard_peripheral/Source/gd32vw55x_hau_sha_md5.c ****         outputaddr += 4U;
 918              		.loc 1 216 37
 919 045a 0327C4F0 		lw	a4,-244(s0)
 216:../Firmware/GD32VW55x_standard_peripheral/Source/gd32vw55x_hau_sha_md5.c ****         outputaddr += 4U;
 920              		.loc 1 216 10
 921 045e 8327C4FE 		lw	a5,-20(s0)
 922 0462 2328E4F4 		sw	a4,-176(s0)
 923              	.LBB74:
 924              	.LBB75:
 124:../Firmware/RISCV/drivers/core_compatiable.h ****         | ((value & 0x00ff0000) >> 8 )
 925              		.loc 2 124 37
 926 0466 032704F5 		lw	a4,-176(s0)
 927 046a 93568701 		srli	a3,a4,24
 125:../Firmware/RISCV/drivers/core_compatiable.h ****         | ((value & 0x0000ff00) << 8 )
 928              		.loc 2 125 33
 929 046e 032704F5 		lw	a4,-176(s0)
 930 0472 13568700 		srli	a2,a4,8
 931 0476 4167     		li	a4,65536
 932 0478 130707F0 		addi	a4,a4,-256
 933 047c 718F     		and	a4,a2,a4
 125:../Firmware/RISCV/drivers/core_compatiable.h ****         | ((value & 0x0000ff00) << 8 )
 934              		.loc 2 125 9
 935 047e D98E     		or	a3,a3,a4
 126:../Firmware/RISCV/drivers/core_compatiable.h ****         | ((value & 0x000000ff) << 24);
 936              		.loc 2 126 33
 937 0480 032704F5 		lw	a4,-176(s0)
 938 0484 13168700 		slli	a2,a4,8
 939 0488 3707FF00 		li	a4,16711680
 940 048c 718F     		and	a4,a2,a4
 126:../Firmware/RISCV/drivers/core_compatiable.h ****         | ((value & 0x000000ff) << 24);
 941              		.loc 2 126 9
 942 048e D98E     		or	a3,a3,a4
 127:../Firmware/RISCV/drivers/core_compatiable.h ****     return result;
 943              		.loc 2 127 33
 944 0490 032704F5 		lw	a4,-176(s0)
 945 0494 6207     		slli	a4,a4,24
 124:../Firmware/RISCV/drivers/core_compatiable.h ****         | ((value & 0x00ff0000) >> 8 )
 946              		.loc 2 124 12
 947 0496 558F     		or	a4,a3,a4
 948 0498 2326E4F4 		sw	a4,-180(s0)
 949              		.loc 2 128 12
 950 049c 0327C4F4 		lw	a4,-180(s0)
 951              	.LBE75:
 952              	.LBE74:
 216:../Firmware/GD32VW55x_standard_peripheral/Source/gd32vw55x_hau_sha_md5.c ****         outputaddr += 4U;
 953              		.loc 1 216 35
 954 04a0 98C3     		sw	a4,0(a5)
 217:../Firmware/GD32VW55x_standard_peripheral/Source/gd32vw55x_hau_sha_md5.c ****         *(uint32_t*)(outputaddr)  = __REV(digest_para.out[1]);
 955              		.loc 1 217 20
 956 04a2 8327C4FE 		lw	a5,-20(s0)
 957 04a6 9107     		addi	a5,a5,4
 958 04a8 2326F4FE 		sw	a5,-20(s0)
 218:../Firmware/GD32VW55x_standard_peripheral/Source/gd32vw55x_hau_sha_md5.c ****         outputaddr += 4U;
 959              		.loc 1 218 37
 960 04ac 032704F1 		lw	a4,-240(s0)
 218:../Firmware/GD32VW55x_standard_peripheral/Source/gd32vw55x_hau_sha_md5.c ****         outputaddr += 4U;
 961              		.loc 1 218 10
 962 04b0 8327C4FE 		lw	a5,-20(s0)
 963 04b4 232CE4F4 		sw	a4,-168(s0)
 964              	.LBB76:
 965              	.LBB77:
 124:../Firmware/RISCV/drivers/core_compatiable.h ****         | ((value & 0x00ff0000) >> 8 )
 966              		.loc 2 124 37
 967 04b8 032784F5 		lw	a4,-168(s0)
 968 04bc 93568701 		srli	a3,a4,24
 125:../Firmware/RISCV/drivers/core_compatiable.h ****         | ((value & 0x0000ff00) << 8 )
 969              		.loc 2 125 33
 970 04c0 032784F5 		lw	a4,-168(s0)
 971 04c4 13568700 		srli	a2,a4,8
 972 04c8 4167     		li	a4,65536
 973 04ca 130707F0 		addi	a4,a4,-256
 974 04ce 718F     		and	a4,a2,a4
 125:../Firmware/RISCV/drivers/core_compatiable.h ****         | ((value & 0x0000ff00) << 8 )
 975              		.loc 2 125 9
 976 04d0 D98E     		or	a3,a3,a4
 126:../Firmware/RISCV/drivers/core_compatiable.h ****         | ((value & 0x000000ff) << 24);
 977              		.loc 2 126 33
 978 04d2 032784F5 		lw	a4,-168(s0)
 979 04d6 13168700 		slli	a2,a4,8
 980 04da 3707FF00 		li	a4,16711680
 981 04de 718F     		and	a4,a2,a4
 126:../Firmware/RISCV/drivers/core_compatiable.h ****         | ((value & 0x000000ff) << 24);
 982              		.loc 2 126 9
 983 04e0 D98E     		or	a3,a3,a4
 127:../Firmware/RISCV/drivers/core_compatiable.h ****     return result;
 984              		.loc 2 127 33
 985 04e2 032784F5 		lw	a4,-168(s0)
 986 04e6 6207     		slli	a4,a4,24
 124:../Firmware/RISCV/drivers/core_compatiable.h ****         | ((value & 0x00ff0000) >> 8 )
 987              		.loc 2 124 12
 988 04e8 558F     		or	a4,a3,a4
 989 04ea 232AE4F4 		sw	a4,-172(s0)
 990              		.loc 2 128 12
 991 04ee 032744F5 		lw	a4,-172(s0)
 992              	.LBE77:
 993              	.LBE76:
 218:../Firmware/GD32VW55x_standard_peripheral/Source/gd32vw55x_hau_sha_md5.c ****         outputaddr += 4U;
 994              		.loc 1 218 35
 995 04f2 98C3     		sw	a4,0(a5)
 219:../Firmware/GD32VW55x_standard_peripheral/Source/gd32vw55x_hau_sha_md5.c ****         *(uint32_t*)(outputaddr)  = __REV(digest_para.out[2]);
 996              		.loc 1 219 20
 997 04f4 8327C4FE 		lw	a5,-20(s0)
 998 04f8 9107     		addi	a5,a5,4
 999 04fa 2326F4FE 		sw	a5,-20(s0)
 220:../Firmware/GD32VW55x_standard_peripheral/Source/gd32vw55x_hau_sha_md5.c ****         outputaddr += 4U;
 1000              		.loc 1 220 37
 1001 04fe 032744F1 		lw	a4,-236(s0)
 220:../Firmware/GD32VW55x_standard_peripheral/Source/gd32vw55x_hau_sha_md5.c ****         outputaddr += 4U;
 1002              		.loc 1 220 10
 1003 0502 8327C4FE 		lw	a5,-20(s0)
 1004 0506 2320E4F6 		sw	a4,-160(s0)
 1005              	.LBB78:
 1006              	.LBB79:
 124:../Firmware/RISCV/drivers/core_compatiable.h ****         | ((value & 0x00ff0000) >> 8 )
 1007              		.loc 2 124 37
 1008 050a 032704F6 		lw	a4,-160(s0)
 1009 050e 93568701 		srli	a3,a4,24
 125:../Firmware/RISCV/drivers/core_compatiable.h ****         | ((value & 0x0000ff00) << 8 )
 1010              		.loc 2 125 33
 1011 0512 032704F6 		lw	a4,-160(s0)
 1012 0516 13568700 		srli	a2,a4,8
 1013 051a 4167     		li	a4,65536
 1014 051c 130707F0 		addi	a4,a4,-256
 1015 0520 718F     		and	a4,a2,a4
 125:../Firmware/RISCV/drivers/core_compatiable.h ****         | ((value & 0x0000ff00) << 8 )
 1016              		.loc 2 125 9
 1017 0522 D98E     		or	a3,a3,a4
 126:../Firmware/RISCV/drivers/core_compatiable.h ****         | ((value & 0x000000ff) << 24);
 1018              		.loc 2 126 33
 1019 0524 032704F6 		lw	a4,-160(s0)
 1020 0528 13168700 		slli	a2,a4,8
 1021 052c 3707FF00 		li	a4,16711680
 1022 0530 718F     		and	a4,a2,a4
 126:../Firmware/RISCV/drivers/core_compatiable.h ****         | ((value & 0x000000ff) << 24);
 1023              		.loc 2 126 9
 1024 0532 D98E     		or	a3,a3,a4
 127:../Firmware/RISCV/drivers/core_compatiable.h ****     return result;
 1025              		.loc 2 127 33
 1026 0534 032704F6 		lw	a4,-160(s0)
 1027 0538 6207     		slli	a4,a4,24
 124:../Firmware/RISCV/drivers/core_compatiable.h ****         | ((value & 0x00ff0000) >> 8 )
 1028              		.loc 2 124 12
 1029 053a 558F     		or	a4,a3,a4
 1030 053c 232EE4F4 		sw	a4,-164(s0)
 1031              		.loc 2 128 12
 1032 0540 0327C4F5 		lw	a4,-164(s0)
 1033              	.LBE79:
 1034              	.LBE78:
 220:../Firmware/GD32VW55x_standard_peripheral/Source/gd32vw55x_hau_sha_md5.c ****         outputaddr += 4U;
 1035              		.loc 1 220 35
 1036 0544 98C3     		sw	a4,0(a5)
 221:../Firmware/GD32VW55x_standard_peripheral/Source/gd32vw55x_hau_sha_md5.c ****         *(uint32_t*)(outputaddr)  = __REV(digest_para.out[3]);
 1037              		.loc 1 221 20
 1038 0546 8327C4FE 		lw	a5,-20(s0)
 1039 054a 9107     		addi	a5,a5,4
 1040 054c 2326F4FE 		sw	a5,-20(s0)
 222:../Firmware/GD32VW55x_standard_peripheral/Source/gd32vw55x_hau_sha_md5.c ****         outputaddr += 4U;
 1041              		.loc 1 222 37
 1042 0550 032784F1 		lw	a4,-232(s0)
 222:../Firmware/GD32VW55x_standard_peripheral/Source/gd32vw55x_hau_sha_md5.c ****         outputaddr += 4U;
 1043              		.loc 1 222 10
 1044 0554 8327C4FE 		lw	a5,-20(s0)
 1045 0558 2324E4F6 		sw	a4,-152(s0)
 1046              	.LBB80:
 1047              	.LBB81:
 124:../Firmware/RISCV/drivers/core_compatiable.h ****         | ((value & 0x00ff0000) >> 8 )
 1048              		.loc 2 124 37
 1049 055c 032784F6 		lw	a4,-152(s0)
 1050 0560 93568701 		srli	a3,a4,24
 125:../Firmware/RISCV/drivers/core_compatiable.h ****         | ((value & 0x0000ff00) << 8 )
 1051              		.loc 2 125 33
 1052 0564 032784F6 		lw	a4,-152(s0)
 1053 0568 13568700 		srli	a2,a4,8
 1054 056c 4167     		li	a4,65536
 1055 056e 130707F0 		addi	a4,a4,-256
 1056 0572 718F     		and	a4,a2,a4
 125:../Firmware/RISCV/drivers/core_compatiable.h ****         | ((value & 0x0000ff00) << 8 )
 1057              		.loc 2 125 9
 1058 0574 D98E     		or	a3,a3,a4
 126:../Firmware/RISCV/drivers/core_compatiable.h ****         | ((value & 0x000000ff) << 24);
 1059              		.loc 2 126 33
 1060 0576 032784F6 		lw	a4,-152(s0)
 1061 057a 13168700 		slli	a2,a4,8
 1062 057e 3707FF00 		li	a4,16711680
 1063 0582 718F     		and	a4,a2,a4
 126:../Firmware/RISCV/drivers/core_compatiable.h ****         | ((value & 0x000000ff) << 24);
 1064              		.loc 2 126 9
 1065 0584 D98E     		or	a3,a3,a4
 127:../Firmware/RISCV/drivers/core_compatiable.h ****     return result;
 1066              		.loc 2 127 33
 1067 0586 032784F6 		lw	a4,-152(s0)
 1068 058a 6207     		slli	a4,a4,24
 124:../Firmware/RISCV/drivers/core_compatiable.h ****         | ((value & 0x00ff0000) >> 8 )
 1069              		.loc 2 124 12
 1070 058c 558F     		or	a4,a3,a4
 1071 058e 2322E4F6 		sw	a4,-156(s0)
 1072              		.loc 2 128 12
 1073 0592 032744F6 		lw	a4,-156(s0)
 1074              	.LBE81:
 1075              	.LBE80:
 222:../Firmware/GD32VW55x_standard_peripheral/Source/gd32vw55x_hau_sha_md5.c ****         outputaddr += 4U;
 1076              		.loc 1 222 35
 1077 0596 98C3     		sw	a4,0(a5)
 223:../Firmware/GD32VW55x_standard_peripheral/Source/gd32vw55x_hau_sha_md5.c ****         *(uint32_t*)(outputaddr)  = __REV(digest_para.out[4]);
 1078              		.loc 1 223 20
 1079 0598 8327C4FE 		lw	a5,-20(s0)
 1080 059c 9107     		addi	a5,a5,4
 1081 059e 2326F4FE 		sw	a5,-20(s0)
 224:../Firmware/GD32VW55x_standard_peripheral/Source/gd32vw55x_hau_sha_md5.c ****         outputaddr += 4U;
 1082              		.loc 1 224 37
 1083 05a2 0327C4F1 		lw	a4,-228(s0)
 224:../Firmware/GD32VW55x_standard_peripheral/Source/gd32vw55x_hau_sha_md5.c ****         outputaddr += 4U;
 1084              		.loc 1 224 10
 1085 05a6 8327C4FE 		lw	a5,-20(s0)
 1086 05aa 2328E4F6 		sw	a4,-144(s0)
 1087              	.LBB82:
 1088              	.LBB83:
 124:../Firmware/RISCV/drivers/core_compatiable.h ****         | ((value & 0x00ff0000) >> 8 )
 1089              		.loc 2 124 37
 1090 05ae 032704F7 		lw	a4,-144(s0)
 1091 05b2 93568701 		srli	a3,a4,24
 125:../Firmware/RISCV/drivers/core_compatiable.h ****         | ((value & 0x0000ff00) << 8 )
 1092              		.loc 2 125 33
 1093 05b6 032704F7 		lw	a4,-144(s0)
 1094 05ba 13568700 		srli	a2,a4,8
 1095 05be 4167     		li	a4,65536
 1096 05c0 130707F0 		addi	a4,a4,-256
 1097 05c4 718F     		and	a4,a2,a4
 125:../Firmware/RISCV/drivers/core_compatiable.h ****         | ((value & 0x0000ff00) << 8 )
 1098              		.loc 2 125 9
 1099 05c6 D98E     		or	a3,a3,a4
 126:../Firmware/RISCV/drivers/core_compatiable.h ****         | ((value & 0x000000ff) << 24);
 1100              		.loc 2 126 33
 1101 05c8 032704F7 		lw	a4,-144(s0)
 1102 05cc 13168700 		slli	a2,a4,8
 1103 05d0 3707FF00 		li	a4,16711680
 1104 05d4 718F     		and	a4,a2,a4
 126:../Firmware/RISCV/drivers/core_compatiable.h ****         | ((value & 0x000000ff) << 24);
 1105              		.loc 2 126 9
 1106 05d6 D98E     		or	a3,a3,a4
 127:../Firmware/RISCV/drivers/core_compatiable.h ****     return result;
 1107              		.loc 2 127 33
 1108 05d8 032704F7 		lw	a4,-144(s0)
 1109 05dc 6207     		slli	a4,a4,24
 124:../Firmware/RISCV/drivers/core_compatiable.h ****         | ((value & 0x00ff0000) >> 8 )
 1110              		.loc 2 124 12
 1111 05de 558F     		or	a4,a3,a4
 1112 05e0 2326E4F6 		sw	a4,-148(s0)
 1113              		.loc 2 128 12
 1114 05e4 0327C4F6 		lw	a4,-148(s0)
 1115              	.LBE83:
 1116              	.LBE82:
 224:../Firmware/GD32VW55x_standard_peripheral/Source/gd32vw55x_hau_sha_md5.c ****         outputaddr += 4U;
 1117              		.loc 1 224 35
 1118 05e8 98C3     		sw	a4,0(a5)
 225:../Firmware/GD32VW55x_standard_peripheral/Source/gd32vw55x_hau_sha_md5.c ****         *(uint32_t*)(outputaddr)  = __REV(digest_para.out[5]);
 1119              		.loc 1 225 20
 1120 05ea 8327C4FE 		lw	a5,-20(s0)
 1121 05ee 9107     		addi	a5,a5,4
 1122 05f0 2326F4FE 		sw	a5,-20(s0)
 226:../Firmware/GD32VW55x_standard_peripheral/Source/gd32vw55x_hau_sha_md5.c ****         outputaddr += 4U;
 1123              		.loc 1 226 37
 1124 05f4 032704F2 		lw	a4,-224(s0)
 226:../Firmware/GD32VW55x_standard_peripheral/Source/gd32vw55x_hau_sha_md5.c ****         outputaddr += 4U;
 1125              		.loc 1 226 10
 1126 05f8 8327C4FE 		lw	a5,-20(s0)
 1127 05fc 232CE4F6 		sw	a4,-136(s0)
 1128              	.LBB84:
 1129              	.LBB85:
 124:../Firmware/RISCV/drivers/core_compatiable.h ****         | ((value & 0x00ff0000) >> 8 )
 1130              		.loc 2 124 37
 1131 0600 032784F7 		lw	a4,-136(s0)
 1132 0604 93568701 		srli	a3,a4,24
 125:../Firmware/RISCV/drivers/core_compatiable.h ****         | ((value & 0x0000ff00) << 8 )
 1133              		.loc 2 125 33
 1134 0608 032784F7 		lw	a4,-136(s0)
 1135 060c 13568700 		srli	a2,a4,8
 1136 0610 4167     		li	a4,65536
 1137 0612 130707F0 		addi	a4,a4,-256
 1138 0616 718F     		and	a4,a2,a4
 125:../Firmware/RISCV/drivers/core_compatiable.h ****         | ((value & 0x0000ff00) << 8 )
 1139              		.loc 2 125 9
 1140 0618 D98E     		or	a3,a3,a4
 126:../Firmware/RISCV/drivers/core_compatiable.h ****         | ((value & 0x000000ff) << 24);
 1141              		.loc 2 126 33
 1142 061a 032784F7 		lw	a4,-136(s0)
 1143 061e 13168700 		slli	a2,a4,8
 1144 0622 3707FF00 		li	a4,16711680
 1145 0626 718F     		and	a4,a2,a4
 126:../Firmware/RISCV/drivers/core_compatiable.h ****         | ((value & 0x000000ff) << 24);
 1146              		.loc 2 126 9
 1147 0628 D98E     		or	a3,a3,a4
 127:../Firmware/RISCV/drivers/core_compatiable.h ****     return result;
 1148              		.loc 2 127 33
 1149 062a 032784F7 		lw	a4,-136(s0)
 1150 062e 6207     		slli	a4,a4,24
 124:../Firmware/RISCV/drivers/core_compatiable.h ****         | ((value & 0x00ff0000) >> 8 )
 1151              		.loc 2 124 12
 1152 0630 558F     		or	a4,a3,a4
 1153 0632 232AE4F6 		sw	a4,-140(s0)
 1154              		.loc 2 128 12
 1155 0636 032744F7 		lw	a4,-140(s0)
 1156              	.LBE85:
 1157              	.LBE84:
 226:../Firmware/GD32VW55x_standard_peripheral/Source/gd32vw55x_hau_sha_md5.c ****         outputaddr += 4U;
 1158              		.loc 1 226 35
 1159 063a 98C3     		sw	a4,0(a5)
 227:../Firmware/GD32VW55x_standard_peripheral/Source/gd32vw55x_hau_sha_md5.c ****         *(uint32_t*)(outputaddr)  = __REV(digest_para.out[6]);
 1160              		.loc 1 227 20
 1161 063c 8327C4FE 		lw	a5,-20(s0)
 1162 0640 9107     		addi	a5,a5,4
 1163 0642 2326F4FE 		sw	a5,-20(s0)
 228:../Firmware/GD32VW55x_standard_peripheral/Source/gd32vw55x_hau_sha_md5.c ****         outputaddr += 4U;
 1164              		.loc 1 228 37
 1165 0646 032744F2 		lw	a4,-220(s0)
 228:../Firmware/GD32VW55x_standard_peripheral/Source/gd32vw55x_hau_sha_md5.c ****         outputaddr += 4U;
 1166              		.loc 1 228 10
 1167 064a 8327C4FE 		lw	a5,-20(s0)
 1168 064e 2320E4F8 		sw	a4,-128(s0)
 1169              	.LBB86:
 1170              	.LBB87:
 124:../Firmware/RISCV/drivers/core_compatiable.h ****         | ((value & 0x00ff0000) >> 8 )
 1171              		.loc 2 124 37
 1172 0652 032704F8 		lw	a4,-128(s0)
 1173 0656 93568701 		srli	a3,a4,24
 125:../Firmware/RISCV/drivers/core_compatiable.h ****         | ((value & 0x0000ff00) << 8 )
 1174              		.loc 2 125 33
 1175 065a 032704F8 		lw	a4,-128(s0)
 1176 065e 13568700 		srli	a2,a4,8
 1177 0662 4167     		li	a4,65536
 1178 0664 130707F0 		addi	a4,a4,-256
 1179 0668 718F     		and	a4,a2,a4
 125:../Firmware/RISCV/drivers/core_compatiable.h ****         | ((value & 0x0000ff00) << 8 )
 1180              		.loc 2 125 9
 1181 066a D98E     		or	a3,a3,a4
 126:../Firmware/RISCV/drivers/core_compatiable.h ****         | ((value & 0x000000ff) << 24);
 1182              		.loc 2 126 33
 1183 066c 032704F8 		lw	a4,-128(s0)
 1184 0670 13168700 		slli	a2,a4,8
 1185 0674 3707FF00 		li	a4,16711680
 1186 0678 718F     		and	a4,a2,a4
 126:../Firmware/RISCV/drivers/core_compatiable.h ****         | ((value & 0x000000ff) << 24);
 1187              		.loc 2 126 9
 1188 067a D98E     		or	a3,a3,a4
 127:../Firmware/RISCV/drivers/core_compatiable.h ****     return result;
 1189              		.loc 2 127 33
 1190 067c 032704F8 		lw	a4,-128(s0)
 1191 0680 6207     		slli	a4,a4,24
 124:../Firmware/RISCV/drivers/core_compatiable.h ****         | ((value & 0x00ff0000) >> 8 )
 1192              		.loc 2 124 12
 1193 0682 558F     		or	a4,a3,a4
 1194 0684 232EE4F6 		sw	a4,-132(s0)
 1195              		.loc 2 128 12
 1196 0688 0327C4F7 		lw	a4,-132(s0)
 1197              	.LBE87:
 1198              	.LBE86:
 228:../Firmware/GD32VW55x_standard_peripheral/Source/gd32vw55x_hau_sha_md5.c ****         outputaddr += 4U;
 1199              		.loc 1 228 35
 1200 068c 98C3     		sw	a4,0(a5)
 229:../Firmware/GD32VW55x_standard_peripheral/Source/gd32vw55x_hau_sha_md5.c ****         *(uint32_t*)(outputaddr)  = __REV(digest_para.out[7]);
 1201              		.loc 1 229 20
 1202 068e 8327C4FE 		lw	a5,-20(s0)
 1203 0692 9107     		addi	a5,a5,4
 1204 0694 2326F4FE 		sw	a5,-20(s0)
 230:../Firmware/GD32VW55x_standard_peripheral/Source/gd32vw55x_hau_sha_md5.c ****         break;
 1205              		.loc 1 230 37
 1206 0698 032784F2 		lw	a4,-216(s0)
 230:../Firmware/GD32VW55x_standard_peripheral/Source/gd32vw55x_hau_sha_md5.c ****         break;
 1207              		.loc 1 230 10
 1208 069c 8327C4FE 		lw	a5,-20(s0)
 1209 06a0 2324E4F8 		sw	a4,-120(s0)
 1210              	.LBB88:
 1211              	.LBB89:
 124:../Firmware/RISCV/drivers/core_compatiable.h ****         | ((value & 0x00ff0000) >> 8 )
 1212              		.loc 2 124 37
 1213 06a4 032784F8 		lw	a4,-120(s0)
 1214 06a8 93568701 		srli	a3,a4,24
 125:../Firmware/RISCV/drivers/core_compatiable.h ****         | ((value & 0x0000ff00) << 8 )
 1215              		.loc 2 125 33
 1216 06ac 032784F8 		lw	a4,-120(s0)
 1217 06b0 13568700 		srli	a2,a4,8
 1218 06b4 4167     		li	a4,65536
 1219 06b6 130707F0 		addi	a4,a4,-256
 1220 06ba 718F     		and	a4,a2,a4
 125:../Firmware/RISCV/drivers/core_compatiable.h ****         | ((value & 0x0000ff00) << 8 )
 1221              		.loc 2 125 9
 1222 06bc D98E     		or	a3,a3,a4
 126:../Firmware/RISCV/drivers/core_compatiable.h ****         | ((value & 0x000000ff) << 24);
 1223              		.loc 2 126 33
 1224 06be 032784F8 		lw	a4,-120(s0)
 1225 06c2 13168700 		slli	a2,a4,8
 1226 06c6 3707FF00 		li	a4,16711680
 1227 06ca 718F     		and	a4,a2,a4
 126:../Firmware/RISCV/drivers/core_compatiable.h ****         | ((value & 0x000000ff) << 24);
 1228              		.loc 2 126 9
 1229 06cc D98E     		or	a3,a3,a4
 127:../Firmware/RISCV/drivers/core_compatiable.h ****     return result;
 1230              		.loc 2 127 33
 1231 06ce 032784F8 		lw	a4,-120(s0)
 1232 06d2 6207     		slli	a4,a4,24
 124:../Firmware/RISCV/drivers/core_compatiable.h ****         | ((value & 0x00ff0000) >> 8 )
 1233              		.loc 2 124 12
 1234 06d4 558F     		or	a4,a3,a4
 1235 06d6 2322E4F8 		sw	a4,-124(s0)
 1236              		.loc 2 128 12
 1237 06da 032744F8 		lw	a4,-124(s0)
 1238              	.LBE89:
 1239              	.LBE88:
 230:../Firmware/GD32VW55x_standard_peripheral/Source/gd32vw55x_hau_sha_md5.c ****         break;
 1240              		.loc 1 230 35
 1241 06de 98C3     		sw	a4,0(a5)
 231:../Firmware/GD32VW55x_standard_peripheral/Source/gd32vw55x_hau_sha_md5.c ****     case HAU_ALGO_MD5:
 1242              		.loc 1 231 9
 1243 06e0 89AA     		j	.L28
 1244              	.L22:
 233:../Firmware/GD32VW55x_standard_peripheral/Source/gd32vw55x_hau_sha_md5.c ****         *(uint32_t*)(outputaddr)  = __REV(digest_para.out[0]);
 1245              		.loc 1 233 9
 1246 06e2 9307C4F0 		addi	a5,s0,-244
 1247 06e6 3E85     		mv	a0,a5
 1248 06e8 97000000 		call	hau_digest_read
 1248      E7800000 
 234:../Firmware/GD32VW55x_standard_peripheral/Source/gd32vw55x_hau_sha_md5.c ****         outputaddr += 4U;
 1249              		.loc 1 234 37
 1250 06f0 0327C4F0 		lw	a4,-244(s0)
 234:../Firmware/GD32VW55x_standard_peripheral/Source/gd32vw55x_hau_sha_md5.c ****         outputaddr += 4U;
 1251              		.loc 1 234 10
 1252 06f4 8327C4FE 		lw	a5,-20(s0)
 1253 06f8 2328E4F2 		sw	a4,-208(s0)
 1254              	.LBB90:
 1255              	.LBB91:
 124:../Firmware/RISCV/drivers/core_compatiable.h ****         | ((value & 0x00ff0000) >> 8 )
 1256              		.loc 2 124 37
 1257 06fc 032704F3 		lw	a4,-208(s0)
 1258 0700 93568701 		srli	a3,a4,24
 125:../Firmware/RISCV/drivers/core_compatiable.h ****         | ((value & 0x0000ff00) << 8 )
 1259              		.loc 2 125 33
 1260 0704 032704F3 		lw	a4,-208(s0)
 1261 0708 13568700 		srli	a2,a4,8
 1262 070c 4167     		li	a4,65536
 1263 070e 130707F0 		addi	a4,a4,-256
 1264 0712 718F     		and	a4,a2,a4
 125:../Firmware/RISCV/drivers/core_compatiable.h ****         | ((value & 0x0000ff00) << 8 )
 1265              		.loc 2 125 9
 1266 0714 D98E     		or	a3,a3,a4
 126:../Firmware/RISCV/drivers/core_compatiable.h ****         | ((value & 0x000000ff) << 24);
 1267              		.loc 2 126 33
 1268 0716 032704F3 		lw	a4,-208(s0)
 1269 071a 13168700 		slli	a2,a4,8
 1270 071e 3707FF00 		li	a4,16711680
 1271 0722 718F     		and	a4,a2,a4
 126:../Firmware/RISCV/drivers/core_compatiable.h ****         | ((value & 0x000000ff) << 24);
 1272              		.loc 2 126 9
 1273 0724 D98E     		or	a3,a3,a4
 127:../Firmware/RISCV/drivers/core_compatiable.h ****     return result;
 1274              		.loc 2 127 33
 1275 0726 032704F3 		lw	a4,-208(s0)
 1276 072a 6207     		slli	a4,a4,24
 124:../Firmware/RISCV/drivers/core_compatiable.h ****         | ((value & 0x00ff0000) >> 8 )
 1277              		.loc 2 124 12
 1278 072c 558F     		or	a4,a3,a4
 1279 072e 2326E4F2 		sw	a4,-212(s0)
 1280              		.loc 2 128 12
 1281 0732 0327C4F2 		lw	a4,-212(s0)
 1282              	.LBE91:
 1283              	.LBE90:
 234:../Firmware/GD32VW55x_standard_peripheral/Source/gd32vw55x_hau_sha_md5.c ****         outputaddr += 4U;
 1284              		.loc 1 234 35
 1285 0736 98C3     		sw	a4,0(a5)
 235:../Firmware/GD32VW55x_standard_peripheral/Source/gd32vw55x_hau_sha_md5.c ****         *(uint32_t*)(outputaddr)  = __REV(digest_para.out[1]);
 1286              		.loc 1 235 20
 1287 0738 8327C4FE 		lw	a5,-20(s0)
 1288 073c 9107     		addi	a5,a5,4
 1289 073e 2326F4FE 		sw	a5,-20(s0)
 236:../Firmware/GD32VW55x_standard_peripheral/Source/gd32vw55x_hau_sha_md5.c ****         outputaddr += 4U;
 1290              		.loc 1 236 37
 1291 0742 032704F1 		lw	a4,-240(s0)
 236:../Firmware/GD32VW55x_standard_peripheral/Source/gd32vw55x_hau_sha_md5.c ****         outputaddr += 4U;
 1292              		.loc 1 236 10
 1293 0746 8327C4FE 		lw	a5,-20(s0)
 1294 074a 232CE4F2 		sw	a4,-200(s0)
 1295              	.LBB92:
 1296              	.LBB93:
 124:../Firmware/RISCV/drivers/core_compatiable.h ****         | ((value & 0x00ff0000) >> 8 )
 1297              		.loc 2 124 37
 1298 074e 032784F3 		lw	a4,-200(s0)
 1299 0752 93568701 		srli	a3,a4,24
 125:../Firmware/RISCV/drivers/core_compatiable.h ****         | ((value & 0x0000ff00) << 8 )
 1300              		.loc 2 125 33
 1301 0756 032784F3 		lw	a4,-200(s0)
 1302 075a 13568700 		srli	a2,a4,8
 1303 075e 4167     		li	a4,65536
 1304 0760 130707F0 		addi	a4,a4,-256
 1305 0764 718F     		and	a4,a2,a4
 125:../Firmware/RISCV/drivers/core_compatiable.h ****         | ((value & 0x0000ff00) << 8 )
 1306              		.loc 2 125 9
 1307 0766 D98E     		or	a3,a3,a4
 126:../Firmware/RISCV/drivers/core_compatiable.h ****         | ((value & 0x000000ff) << 24);
 1308              		.loc 2 126 33
 1309 0768 032784F3 		lw	a4,-200(s0)
 1310 076c 13168700 		slli	a2,a4,8
 1311 0770 3707FF00 		li	a4,16711680
 1312 0774 718F     		and	a4,a2,a4
 126:../Firmware/RISCV/drivers/core_compatiable.h ****         | ((value & 0x000000ff) << 24);
 1313              		.loc 2 126 9
 1314 0776 D98E     		or	a3,a3,a4
 127:../Firmware/RISCV/drivers/core_compatiable.h ****     return result;
 1315              		.loc 2 127 33
 1316 0778 032784F3 		lw	a4,-200(s0)
 1317 077c 6207     		slli	a4,a4,24
 124:../Firmware/RISCV/drivers/core_compatiable.h ****         | ((value & 0x00ff0000) >> 8 )
 1318              		.loc 2 124 12
 1319 077e 558F     		or	a4,a3,a4
 1320 0780 232AE4F2 		sw	a4,-204(s0)
 1321              		.loc 2 128 12
 1322 0784 032744F3 		lw	a4,-204(s0)
 1323              	.LBE93:
 1324              	.LBE92:
 236:../Firmware/GD32VW55x_standard_peripheral/Source/gd32vw55x_hau_sha_md5.c ****         outputaddr += 4U;
 1325              		.loc 1 236 35
 1326 0788 98C3     		sw	a4,0(a5)
 237:../Firmware/GD32VW55x_standard_peripheral/Source/gd32vw55x_hau_sha_md5.c ****         *(uint32_t*)(outputaddr)  = __REV(digest_para.out[2]);
 1327              		.loc 1 237 20
 1328 078a 8327C4FE 		lw	a5,-20(s0)
 1329 078e 9107     		addi	a5,a5,4
 1330 0790 2326F4FE 		sw	a5,-20(s0)
 238:../Firmware/GD32VW55x_standard_peripheral/Source/gd32vw55x_hau_sha_md5.c ****         outputaddr += 4U;
 1331              		.loc 1 238 37
 1332 0794 032744F1 		lw	a4,-236(s0)
 238:../Firmware/GD32VW55x_standard_peripheral/Source/gd32vw55x_hau_sha_md5.c ****         outputaddr += 4U;
 1333              		.loc 1 238 10
 1334 0798 8327C4FE 		lw	a5,-20(s0)
 1335 079c 2320E4F4 		sw	a4,-192(s0)
 1336              	.LBB94:
 1337              	.LBB95:
 124:../Firmware/RISCV/drivers/core_compatiable.h ****         | ((value & 0x00ff0000) >> 8 )
 1338              		.loc 2 124 37
 1339 07a0 032704F4 		lw	a4,-192(s0)
 1340 07a4 93568701 		srli	a3,a4,24
 125:../Firmware/RISCV/drivers/core_compatiable.h ****         | ((value & 0x0000ff00) << 8 )
 1341              		.loc 2 125 33
 1342 07a8 032704F4 		lw	a4,-192(s0)
 1343 07ac 13568700 		srli	a2,a4,8
 1344 07b0 4167     		li	a4,65536
 1345 07b2 130707F0 		addi	a4,a4,-256
 1346 07b6 718F     		and	a4,a2,a4
 125:../Firmware/RISCV/drivers/core_compatiable.h ****         | ((value & 0x0000ff00) << 8 )
 1347              		.loc 2 125 9
 1348 07b8 D98E     		or	a3,a3,a4
 126:../Firmware/RISCV/drivers/core_compatiable.h ****         | ((value & 0x000000ff) << 24);
 1349              		.loc 2 126 33
 1350 07ba 032704F4 		lw	a4,-192(s0)
 1351 07be 13168700 		slli	a2,a4,8
 1352 07c2 3707FF00 		li	a4,16711680
 1353 07c6 718F     		and	a4,a2,a4
 126:../Firmware/RISCV/drivers/core_compatiable.h ****         | ((value & 0x000000ff) << 24);
 1354              		.loc 2 126 9
 1355 07c8 D98E     		or	a3,a3,a4
 127:../Firmware/RISCV/drivers/core_compatiable.h ****     return result;
 1356              		.loc 2 127 33
 1357 07ca 032704F4 		lw	a4,-192(s0)
 1358 07ce 6207     		slli	a4,a4,24
 124:../Firmware/RISCV/drivers/core_compatiable.h ****         | ((value & 0x00ff0000) >> 8 )
 1359              		.loc 2 124 12
 1360 07d0 558F     		or	a4,a3,a4
 1361 07d2 232EE4F2 		sw	a4,-196(s0)
 1362              		.loc 2 128 12
 1363 07d6 0327C4F3 		lw	a4,-196(s0)
 1364              	.LBE95:
 1365              	.LBE94:
 238:../Firmware/GD32VW55x_standard_peripheral/Source/gd32vw55x_hau_sha_md5.c ****         outputaddr += 4U;
 1366              		.loc 1 238 35
 1367 07da 98C3     		sw	a4,0(a5)
 239:../Firmware/GD32VW55x_standard_peripheral/Source/gd32vw55x_hau_sha_md5.c ****         *(uint32_t*)(outputaddr)  = __REV(digest_para.out[3]);
 1368              		.loc 1 239 20
 1369 07dc 8327C4FE 		lw	a5,-20(s0)
 1370 07e0 9107     		addi	a5,a5,4
 1371 07e2 2326F4FE 		sw	a5,-20(s0)
 240:../Firmware/GD32VW55x_standard_peripheral/Source/gd32vw55x_hau_sha_md5.c ****         break;
 1372              		.loc 1 240 37
 1373 07e6 032784F1 		lw	a4,-232(s0)
 240:../Firmware/GD32VW55x_standard_peripheral/Source/gd32vw55x_hau_sha_md5.c ****         break;
 1374              		.loc 1 240 10
 1375 07ea 8327C4FE 		lw	a5,-20(s0)
 1376 07ee 2324E4F4 		sw	a4,-184(s0)
 1377              	.LBB96:
 1378              	.LBB97:
 124:../Firmware/RISCV/drivers/core_compatiable.h ****         | ((value & 0x00ff0000) >> 8 )
 1379              		.loc 2 124 37
 1380 07f2 032784F4 		lw	a4,-184(s0)
 1381 07f6 93568701 		srli	a3,a4,24
 125:../Firmware/RISCV/drivers/core_compatiable.h ****         | ((value & 0x0000ff00) << 8 )
 1382              		.loc 2 125 33
 1383 07fa 032784F4 		lw	a4,-184(s0)
 1384 07fe 13568700 		srli	a2,a4,8
 1385 0802 4167     		li	a4,65536
 1386 0804 130707F0 		addi	a4,a4,-256
 1387 0808 718F     		and	a4,a2,a4
 125:../Firmware/RISCV/drivers/core_compatiable.h ****         | ((value & 0x0000ff00) << 8 )
 1388              		.loc 2 125 9
 1389 080a D98E     		or	a3,a3,a4
 126:../Firmware/RISCV/drivers/core_compatiable.h ****         | ((value & 0x000000ff) << 24);
 1390              		.loc 2 126 33
 1391 080c 032784F4 		lw	a4,-184(s0)
 1392 0810 13168700 		slli	a2,a4,8
 1393 0814 3707FF00 		li	a4,16711680
 1394 0818 718F     		and	a4,a2,a4
 126:../Firmware/RISCV/drivers/core_compatiable.h ****         | ((value & 0x000000ff) << 24);
 1395              		.loc 2 126 9
 1396 081a D98E     		or	a3,a3,a4
 127:../Firmware/RISCV/drivers/core_compatiable.h ****     return result;
 1397              		.loc 2 127 33
 1398 081c 032784F4 		lw	a4,-184(s0)
 1399 0820 6207     		slli	a4,a4,24
 124:../Firmware/RISCV/drivers/core_compatiable.h ****         | ((value & 0x00ff0000) >> 8 )
 1400              		.loc 2 124 12
 1401 0822 558F     		or	a4,a3,a4
 1402 0824 2322E4F4 		sw	a4,-188(s0)
 1403              		.loc 2 128 12
 1404 0828 032744F4 		lw	a4,-188(s0)
 1405              	.LBE97:
 1406              	.LBE96:
 240:../Firmware/GD32VW55x_standard_peripheral/Source/gd32vw55x_hau_sha_md5.c ****         break;
 1407              		.loc 1 240 35
 1408 082c 98C3     		sw	a4,0(a5)
 241:../Firmware/GD32VW55x_standard_peripheral/Source/gd32vw55x_hau_sha_md5.c ****     default:
 1409              		.loc 1 241 9
 1410 082e 11A0     		j	.L28
 1411              	.L48:
 1412              		.loc 1 243 9
 1413 0830 0100     		nop
 1414              	.L28:
 244:../Firmware/GD32VW55x_standard_peripheral/Source/gd32vw55x_hau_sha_md5.c ****     }
 245:../Firmware/GD32VW55x_standard_peripheral/Source/gd32vw55x_hau_sha_md5.c **** }
 1415              		.loc 1 245 1
 1416 0832 0100     		nop
 1417 0834 8320C110 		lw	ra,268(sp)
 1418              		.cfi_restore 1
 1419 0838 03248110 		lw	s0,264(sp)
 1420              		.cfi_restore 8
 1421              		.cfi_def_cfa 2, 272
 1422 083c 5161     		addi	sp,sp,272
 1423              		.cfi_def_cfa_offset 0
 1424 083e 8280     		jr	ra
 1425              		.cfi_endproc
 1426              	.LFE355:
 1428              		.section	.text.hau_hash_calculate,"ax",@progbits
 1429              		.align	1
 1431              	hau_hash_calculate:
 1432              	.LFB356:
 246:../Firmware/GD32VW55x_standard_peripheral/Source/gd32vw55x_hau_sha_md5.c **** 
 247:../Firmware/GD32VW55x_standard_peripheral/Source/gd32vw55x_hau_sha_md5.c **** /*!
 248:../Firmware/GD32VW55x_standard_peripheral/Source/gd32vw55x_hau_sha_md5.c ****     \brief      HAU digest calculate process in HASH mode
 249:../Firmware/GD32VW55x_standard_peripheral/Source/gd32vw55x_hau_sha_md5.c ****     \param[in]  algo: algorithm selection
 250:../Firmware/GD32VW55x_standard_peripheral/Source/gd32vw55x_hau_sha_md5.c ****     \param[in]  input: pointer to the input buffer
 251:../Firmware/GD32VW55x_standard_peripheral/Source/gd32vw55x_hau_sha_md5.c ****     \param[in]  in_length: length of the input buffer
 252:../Firmware/GD32VW55x_standard_peripheral/Source/gd32vw55x_hau_sha_md5.c ****     \param[in]  output: the result digest
 253:../Firmware/GD32VW55x_standard_peripheral/Source/gd32vw55x_hau_sha_md5.c ****     \param[out] none
 254:../Firmware/GD32VW55x_standard_peripheral/Source/gd32vw55x_hau_sha_md5.c ****     \retval     ErrStatus: SUCCESS or ERROR
 255:../Firmware/GD32VW55x_standard_peripheral/Source/gd32vw55x_hau_sha_md5.c **** */
 256:../Firmware/GD32VW55x_standard_peripheral/Source/gd32vw55x_hau_sha_md5.c **** static ErrStatus hau_hash_calculate(uint32_t algo, uint8_t *input, uint32_t in_length, uint8_t *out
 257:../Firmware/GD32VW55x_standard_peripheral/Source/gd32vw55x_hau_sha_md5.c **** {
 1433              		.loc 1 257 1
 1434              		.cfi_startproc
 1435 0000 5D71     		addi	sp,sp,-80
 1436              		.cfi_def_cfa_offset 80
 1437 0002 86C6     		sw	ra,76(sp)
 1438 0004 A2C4     		sw	s0,72(sp)
 1439              		.cfi_offset 1, -4
 1440              		.cfi_offset 8, -8
 1441 0006 8008     		addi	s0,sp,80
 1442              		.cfi_def_cfa 8, 0
 1443 0008 232EA4FA 		sw	a0,-68(s0)
 1444 000c 232CB4FA 		sw	a1,-72(s0)
 1445 0010 232AC4FA 		sw	a2,-76(s0)
 1446 0014 2328D4FA 		sw	a3,-80(s0)
 258:../Firmware/GD32VW55x_standard_peripheral/Source/gd32vw55x_hau_sha_md5.c ****     hau_init_parameter_struct init_para;
 259:../Firmware/GD32VW55x_standard_peripheral/Source/gd32vw55x_hau_sha_md5.c **** 
 260:../Firmware/GD32VW55x_standard_peripheral/Source/gd32vw55x_hau_sha_md5.c ****     __IO uint32_t num_last_valid = 0U;
 1447              		.loc 1 260 19
 1448 0018 232804FC 		sw	zero,-48(s0)
 261:../Firmware/GD32VW55x_standard_peripheral/Source/gd32vw55x_hau_sha_md5.c ****     uint32_t i = 0U;
 1449              		.loc 1 261 14
 1450 001c 232604FE 		sw	zero,-20(s0)
 262:../Firmware/GD32VW55x_standard_peripheral/Source/gd32vw55x_hau_sha_md5.c ****     __IO uint32_t counter = 0U;
 1451              		.loc 1 262 19
 1452 0020 232604FC 		sw	zero,-52(s0)
 263:../Firmware/GD32VW55x_standard_peripheral/Source/gd32vw55x_hau_sha_md5.c ****     uint32_t busystatus = 0U;
 1453              		.loc 1 263 14
 1454 0024 232204FE 		sw	zero,-28(s0)
 264:../Firmware/GD32VW55x_standard_peripheral/Source/gd32vw55x_hau_sha_md5.c ****     uint32_t inputaddr  = (uint32_t)input;
 1455              		.loc 1 264 14
 1456 0028 832784FB 		lw	a5,-72(s0)
 1457 002c 2324F4FE 		sw	a5,-24(s0)
 265:../Firmware/GD32VW55x_standard_peripheral/Source/gd32vw55x_hau_sha_md5.c **** 
 266:../Firmware/GD32VW55x_standard_peripheral/Source/gd32vw55x_hau_sha_md5.c ****     /* number of valid bits in last word */
 267:../Firmware/GD32VW55x_standard_peripheral/Source/gd32vw55x_hau_sha_md5.c ****     num_last_valid = 8U * (in_length % 4U);
 1458              		.loc 1 267 38
 1459 0030 832744FB 		lw	a5,-76(s0)
 1460 0034 8D8B     		andi	a5,a5,3
 1461              		.loc 1 267 25
 1462 0036 8E07     		slli	a5,a5,3
 1463              		.loc 1 267 20
 1464 0038 2328F4FC 		sw	a5,-48(s0)
 268:../Firmware/GD32VW55x_standard_peripheral/Source/gd32vw55x_hau_sha_md5.c **** 
 269:../Firmware/GD32VW55x_standard_peripheral/Source/gd32vw55x_hau_sha_md5.c ****     /* HAU peripheral initialization */
 270:../Firmware/GD32VW55x_standard_peripheral/Source/gd32vw55x_hau_sha_md5.c ****     hau_deinit();
 1465              		.loc 1 270 5
 1466 003c 97000000 		call	hau_deinit
 1466      E7800000 
 271:../Firmware/GD32VW55x_standard_peripheral/Source/gd32vw55x_hau_sha_md5.c **** 
 272:../Firmware/GD32VW55x_standard_peripheral/Source/gd32vw55x_hau_sha_md5.c ****     /* HAU configuration */
 273:../Firmware/GD32VW55x_standard_peripheral/Source/gd32vw55x_hau_sha_md5.c ****     init_para.algo = algo;
 1467              		.loc 1 273 20
 1468 0044 8327C4FB 		lw	a5,-68(s0)
 1469 0048 232AF4FC 		sw	a5,-44(s0)
 274:../Firmware/GD32VW55x_standard_peripheral/Source/gd32vw55x_hau_sha_md5.c ****     init_para.mode = HAU_MODE_HASH;
 1470              		.loc 1 274 20
 1471 004c 232C04FC 		sw	zero,-40(s0)
 275:../Firmware/GD32VW55x_standard_peripheral/Source/gd32vw55x_hau_sha_md5.c ****     init_para.datatype = HAU_SWAPPING_8BIT;
 1472              		.loc 1 275 24
 1473 0050 93070002 		li	a5,32
 1474 0054 232EF4FC 		sw	a5,-36(s0)
 276:../Firmware/GD32VW55x_standard_peripheral/Source/gd32vw55x_hau_sha_md5.c ****     hau_init(&init_para);
 1475              		.loc 1 276 5
 1476 0058 930744FD 		addi	a5,s0,-44
 1477 005c 3E85     		mv	a0,a5
 1478 005e 97000000 		call	hau_init
 1478      E7800000 
 277:../Firmware/GD32VW55x_standard_peripheral/Source/gd32vw55x_hau_sha_md5.c **** 
 278:../Firmware/GD32VW55x_standard_peripheral/Source/gd32vw55x_hau_sha_md5.c ****     /* configure the number of valid bits in last word of the message */
 279:../Firmware/GD32VW55x_standard_peripheral/Source/gd32vw55x_hau_sha_md5.c ****     hau_last_word_validbits_num_config(num_last_valid);
 1479              		.loc 1 279 5
 1480 0066 832704FD 		lw	a5,-48(s0)
 1481 006a 3E85     		mv	a0,a5
 1482 006c 97000000 		call	hau_last_word_validbits_num_config
 1482      E7800000 
 280:../Firmware/GD32VW55x_standard_peripheral/Source/gd32vw55x_hau_sha_md5.c **** 
 281:../Firmware/GD32VW55x_standard_peripheral/Source/gd32vw55x_hau_sha_md5.c ****     /* write data to the IN FIFO */
 282:../Firmware/GD32VW55x_standard_peripheral/Source/gd32vw55x_hau_sha_md5.c ****     for(i = 0U; i < in_length; i += 4U){
 1483              		.loc 1 282 11
 1484 0074 232604FE 		sw	zero,-20(s0)
 1485              		.loc 1 282 5
 1486 0078 1DA0     		j	.L50
 1487              	.L51:
 283:../Firmware/GD32VW55x_standard_peripheral/Source/gd32vw55x_hau_sha_md5.c ****         hau_data_write(*(uint32_t*)inputaddr);
 1488              		.loc 1 283 25 discriminator 3
 1489 007a 832784FE 		lw	a5,-24(s0)
 1490              		.loc 1 283 9 discriminator 3
 1491 007e 9C43     		lw	a5,0(a5)
 1492 0080 3E85     		mv	a0,a5
 1493 0082 97000000 		call	hau_data_write
 1493      E7800000 
 284:../Firmware/GD32VW55x_standard_peripheral/Source/gd32vw55x_hau_sha_md5.c ****         inputaddr += 4U;
 1494              		.loc 1 284 19 discriminator 3
 1495 008a 832784FE 		lw	a5,-24(s0)
 1496 008e 9107     		addi	a5,a5,4
 1497 0090 2324F4FE 		sw	a5,-24(s0)
 282:../Firmware/GD32VW55x_standard_peripheral/Source/gd32vw55x_hau_sha_md5.c ****         hau_data_write(*(uint32_t*)inputaddr);
 1498              		.loc 1 282 34 discriminator 3
 1499 0094 8327C4FE 		lw	a5,-20(s0)
 1500 0098 9107     		addi	a5,a5,4
 1501 009a 2326F4FE 		sw	a5,-20(s0)
 1502              	.L50:
 282:../Firmware/GD32VW55x_standard_peripheral/Source/gd32vw55x_hau_sha_md5.c ****         hau_data_write(*(uint32_t*)inputaddr);
 1503              		.loc 1 282 5 discriminator 1
 1504 009e 0327C4FE 		lw	a4,-20(s0)
 1505 00a2 832744FB 		lw	a5,-76(s0)
 1506 00a6 E36AF7FC 		bltu	a4,a5,.L51
 285:../Firmware/GD32VW55x_standard_peripheral/Source/gd32vw55x_hau_sha_md5.c ****     }
 286:../Firmware/GD32VW55x_standard_peripheral/Source/gd32vw55x_hau_sha_md5.c **** 
 287:../Firmware/GD32VW55x_standard_peripheral/Source/gd32vw55x_hau_sha_md5.c ****     /* enable digest calculation */
 288:../Firmware/GD32VW55x_standard_peripheral/Source/gd32vw55x_hau_sha_md5.c ****     hau_digest_calculation_enable();
 1507              		.loc 1 288 5
 1508 00aa 97000000 		call	hau_digest_calculation_enable
 1508      E7800000 
 1509              	.L53:
 289:../Firmware/GD32VW55x_standard_peripheral/Source/gd32vw55x_hau_sha_md5.c **** 
 290:../Firmware/GD32VW55x_standard_peripheral/Source/gd32vw55x_hau_sha_md5.c ****     /* wait until the busy flag is reset */
 291:../Firmware/GD32VW55x_standard_peripheral/Source/gd32vw55x_hau_sha_md5.c ****     do{
 292:../Firmware/GD32VW55x_standard_peripheral/Source/gd32vw55x_hau_sha_md5.c ****         busystatus = hau_flag_get(HAU_FLAG_BUSY);
 1510              		.loc 1 292 22 discriminator 2
 1511 00b2 2145     		li	a0,8
 1512 00b4 97000000 		call	hau_flag_get
 1512      E7800000 
 1513 00bc 2322A4FE 		sw	a0,-28(s0)
 293:../Firmware/GD32VW55x_standard_peripheral/Source/gd32vw55x_hau_sha_md5.c ****         counter++;
 1514              		.loc 1 293 16 discriminator 2
 1515 00c0 8327C4FC 		lw	a5,-52(s0)
 1516 00c4 8507     		addi	a5,a5,1
 1517 00c6 2326F4FC 		sw	a5,-52(s0)
 294:../Firmware/GD32VW55x_standard_peripheral/Source/gd32vw55x_hau_sha_md5.c ****     }while((SHAMD5_BSY_TIMEOUT != counter) && (RESET != busystatus));
 1518              		.loc 1 294 32 discriminator 2
 1519 00ca 0327C4FC 		lw	a4,-52(s0)
 1520              		.loc 1 294 5 discriminator 2
 1521 00ce C167     		li	a5,65536
 1522 00d0 6305F700 		beq	a4,a5,.L52
 1523              		.loc 1 294 44 discriminator 1
 1524 00d4 832744FE 		lw	a5,-28(s0)
 1525 00d8 E9FF     		bne	a5,zero,.L53
 1526              	.L52:
 295:../Firmware/GD32VW55x_standard_peripheral/Source/gd32vw55x_hau_sha_md5.c **** 
 296:../Firmware/GD32VW55x_standard_peripheral/Source/gd32vw55x_hau_sha_md5.c ****     if(RESET != busystatus){
 1527              		.loc 1 296 7
 1528 00da 832744FE 		lw	a5,-28(s0)
 1529 00de 99C3     		beq	a5,zero,.L54
 297:../Firmware/GD32VW55x_standard_peripheral/Source/gd32vw55x_hau_sha_md5.c ****         return ERROR;
 1530              		.loc 1 297 16
 1531 00e0 8147     		li	a5,0
 1532 00e2 11A8     		j	.L56
 1533              	.L54:
 298:../Firmware/GD32VW55x_standard_peripheral/Source/gd32vw55x_hau_sha_md5.c ****     }else{
 299:../Firmware/GD32VW55x_standard_peripheral/Source/gd32vw55x_hau_sha_md5.c ****         /* read the message digest */
 300:../Firmware/GD32VW55x_standard_peripheral/Source/gd32vw55x_hau_sha_md5.c ****         hau_sha_md5_digest_read(algo, output);
 1534              		.loc 1 300 9
 1535 00e4 832504FB 		lw	a1,-80(s0)
 1536 00e8 0325C4FB 		lw	a0,-68(s0)
 1537 00ec 97000000 		call	hau_sha_md5_digest_read
 1537      E7800000 
 301:../Firmware/GD32VW55x_standard_peripheral/Source/gd32vw55x_hau_sha_md5.c ****     }
 302:../Firmware/GD32VW55x_standard_peripheral/Source/gd32vw55x_hau_sha_md5.c ****     return SUCCESS;
 1538              		.loc 1 302 12
 1539 00f4 8547     		li	a5,1
 1540              	.L56:
 303:../Firmware/GD32VW55x_standard_peripheral/Source/gd32vw55x_hau_sha_md5.c **** }
 1541              		.loc 1 303 1 discriminator 1
 1542 00f6 3E85     		mv	a0,a5
 1543 00f8 B640     		lw	ra,76(sp)
 1544              		.cfi_restore 1
 1545 00fa 2644     		lw	s0,72(sp)
 1546              		.cfi_restore 8
 1547              		.cfi_def_cfa 2, 80
 1548 00fc 6161     		addi	sp,sp,80
 1549              		.cfi_def_cfa_offset 0
 1550 00fe 8280     		jr	ra
 1551              		.cfi_endproc
 1552              	.LFE356:
 1554              		.section	.text.hau_hmac_calculate,"ax",@progbits
 1555              		.align	1
 1557              	hau_hmac_calculate:
 1558              	.LFB357:
 304:../Firmware/GD32VW55x_standard_peripheral/Source/gd32vw55x_hau_sha_md5.c **** 
 305:../Firmware/GD32VW55x_standard_peripheral/Source/gd32vw55x_hau_sha_md5.c **** /*!
 306:../Firmware/GD32VW55x_standard_peripheral/Source/gd32vw55x_hau_sha_md5.c ****     \brief      HAU digest calculate process in HMAC mode
 307:../Firmware/GD32VW55x_standard_peripheral/Source/gd32vw55x_hau_sha_md5.c ****     \param[in]  algo: algorithm selection
 308:../Firmware/GD32VW55x_standard_peripheral/Source/gd32vw55x_hau_sha_md5.c ****     \param[in]  key: pointer to the key used for HMAC
 309:../Firmware/GD32VW55x_standard_peripheral/Source/gd32vw55x_hau_sha_md5.c ****     \param[in]  keysize: length of the key used for HMAC
 310:../Firmware/GD32VW55x_standard_peripheral/Source/gd32vw55x_hau_sha_md5.c ****     \param[in]  input: pointer to the input buffer
 311:../Firmware/GD32VW55x_standard_peripheral/Source/gd32vw55x_hau_sha_md5.c ****     \param[in]  in_length: length of the input buffer
 312:../Firmware/GD32VW55x_standard_peripheral/Source/gd32vw55x_hau_sha_md5.c ****     \param[in]  output: the result digest
 313:../Firmware/GD32VW55x_standard_peripheral/Source/gd32vw55x_hau_sha_md5.c ****     \param[out] none
 314:../Firmware/GD32VW55x_standard_peripheral/Source/gd32vw55x_hau_sha_md5.c ****     \retval     ErrStatus: SUCCESS or ERROR
 315:../Firmware/GD32VW55x_standard_peripheral/Source/gd32vw55x_hau_sha_md5.c **** */
 316:../Firmware/GD32VW55x_standard_peripheral/Source/gd32vw55x_hau_sha_md5.c **** static ErrStatus hau_hmac_calculate(uint32_t algo, uint8_t *key, uint32_t keysize, uint8_t *input, 
 317:../Firmware/GD32VW55x_standard_peripheral/Source/gd32vw55x_hau_sha_md5.c **** {
 1559              		.loc 1 317 1
 1560              		.cfi_startproc
 1561 0000 1D71     		addi	sp,sp,-96
 1562              		.cfi_def_cfa_offset 96
 1563 0002 86CE     		sw	ra,92(sp)
 1564 0004 A2CC     		sw	s0,88(sp)
 1565              		.cfi_offset 1, -4
 1566              		.cfi_offset 8, -8
 1567 0006 8010     		addi	s0,sp,96
 1568              		.cfi_def_cfa 8, 0
 1569 0008 232EA4FA 		sw	a0,-68(s0)
 1570 000c 232CB4FA 		sw	a1,-72(s0)
 1571 0010 232AC4FA 		sw	a2,-76(s0)
 1572 0014 2328D4FA 		sw	a3,-80(s0)
 1573 0018 2326E4FA 		sw	a4,-84(s0)
 1574 001c 2324F4FA 		sw	a5,-88(s0)
 318:../Firmware/GD32VW55x_standard_peripheral/Source/gd32vw55x_hau_sha_md5.c ****     hau_init_parameter_struct init_para;
 319:../Firmware/GD32VW55x_standard_peripheral/Source/gd32vw55x_hau_sha_md5.c **** 
 320:../Firmware/GD32VW55x_standard_peripheral/Source/gd32vw55x_hau_sha_md5.c ****     __IO uint16_t num_last_valid = 0U;
 1575              		.loc 1 320 19
 1576 0020 231704FC 		sh	zero,-50(s0)
 321:../Firmware/GD32VW55x_standard_peripheral/Source/gd32vw55x_hau_sha_md5.c ****     __IO uint16_t num_key_valid = 0U;
 1577              		.loc 1 321 19
 1578 0024 231604FC 		sh	zero,-52(s0)
 322:../Firmware/GD32VW55x_standard_peripheral/Source/gd32vw55x_hau_sha_md5.c ****     uint32_t i = 0U;
 1579              		.loc 1 322 14
 1580 0028 232604FE 		sw	zero,-20(s0)
 323:../Firmware/GD32VW55x_standard_peripheral/Source/gd32vw55x_hau_sha_md5.c ****     __IO uint32_t counter = 0U;
 1581              		.loc 1 323 19
 1582 002c 232404FC 		sw	zero,-56(s0)
 324:../Firmware/GD32VW55x_standard_peripheral/Source/gd32vw55x_hau_sha_md5.c ****     uint32_t busystatus = 0U;
 1583              		.loc 1 324 14
 1584 0030 232004FE 		sw	zero,-32(s0)
 325:../Firmware/GD32VW55x_standard_peripheral/Source/gd32vw55x_hau_sha_md5.c ****     uint32_t keyaddr    = (uint32_t)key;
 1585              		.loc 1 325 14
 1586 0034 832784FB 		lw	a5,-72(s0)
 1587 0038 2324F4FE 		sw	a5,-24(s0)
 326:../Firmware/GD32VW55x_standard_peripheral/Source/gd32vw55x_hau_sha_md5.c ****     uint32_t inputaddr  = (uint32_t)input;
 1588              		.loc 1 326 14
 1589 003c 832704FB 		lw	a5,-80(s0)
 1590 0040 2322F4FE 		sw	a5,-28(s0)
 327:../Firmware/GD32VW55x_standard_peripheral/Source/gd32vw55x_hau_sha_md5.c **** 
 328:../Firmware/GD32VW55x_standard_peripheral/Source/gd32vw55x_hau_sha_md5.c ****     /* number of valid bits in last word of the message */
 329:../Firmware/GD32VW55x_standard_peripheral/Source/gd32vw55x_hau_sha_md5.c ****     num_last_valid = 8U * (uint16_t)(in_length % 4U);
 1591              		.loc 1 329 20
 1592 0044 8327C4FA 		lw	a5,-84(s0)
 1593 0048 C207     		slli	a5,a5,16
 1594 004a C183     		srli	a5,a5,16
 1595 004c 8D8B     		andi	a5,a5,3
 1596 004e C207     		slli	a5,a5,16
 1597 0050 C183     		srli	a5,a5,16
 1598 0052 8E07     		slli	a5,a5,3
 1599 0054 C207     		slli	a5,a5,16
 1600 0056 C183     		srli	a5,a5,16
 1601 0058 2317F4FC 		sh	a5,-50(s0)
 330:../Firmware/GD32VW55x_standard_peripheral/Source/gd32vw55x_hau_sha_md5.c ****     /* number of valid bits in last word of the key */
 331:../Firmware/GD32VW55x_standard_peripheral/Source/gd32vw55x_hau_sha_md5.c ****     num_key_valid = 8U * (uint16_t)(keysize % 4U);
 1602              		.loc 1 331 19
 1603 005c 832744FB 		lw	a5,-76(s0)
 1604 0060 C207     		slli	a5,a5,16
 1605 0062 C183     		srli	a5,a5,16
 1606 0064 8D8B     		andi	a5,a5,3
 1607 0066 C207     		slli	a5,a5,16
 1608 0068 C183     		srli	a5,a5,16
 1609 006a 8E07     		slli	a5,a5,3
 1610 006c C207     		slli	a5,a5,16
 1611 006e C183     		srli	a5,a5,16
 1612 0070 2316F4FC 		sh	a5,-52(s0)
 332:../Firmware/GD32VW55x_standard_peripheral/Source/gd32vw55x_hau_sha_md5.c **** 
 333:../Firmware/GD32VW55x_standard_peripheral/Source/gd32vw55x_hau_sha_md5.c ****     /* HAU peripheral initialization */
 334:../Firmware/GD32VW55x_standard_peripheral/Source/gd32vw55x_hau_sha_md5.c ****     hau_deinit();
 1613              		.loc 1 334 5
 1614 0074 97000000 		call	hau_deinit
 1614      E7800000 
 335:../Firmware/GD32VW55x_standard_peripheral/Source/gd32vw55x_hau_sha_md5.c **** 
 336:../Firmware/GD32VW55x_standard_peripheral/Source/gd32vw55x_hau_sha_md5.c ****     /* HAU configuration */
 337:../Firmware/GD32VW55x_standard_peripheral/Source/gd32vw55x_hau_sha_md5.c ****     init_para.algo = algo;
 1615              		.loc 1 337 20
 1616 007c 8327C4FB 		lw	a5,-68(s0)
 1617 0080 2328F4FC 		sw	a5,-48(s0)
 338:../Firmware/GD32VW55x_standard_peripheral/Source/gd32vw55x_hau_sha_md5.c ****     init_para.mode = HAU_MODE_HMAC;
 1618              		.loc 1 338 20
 1619 0084 93070004 		li	a5,64
 1620 0088 232AF4FC 		sw	a5,-44(s0)
 339:../Firmware/GD32VW55x_standard_peripheral/Source/gd32vw55x_hau_sha_md5.c ****     init_para.datatype = HAU_SWAPPING_8BIT;
 1621              		.loc 1 339 24
 1622 008c 93070002 		li	a5,32
 1623 0090 232CF4FC 		sw	a5,-40(s0)
 340:../Firmware/GD32VW55x_standard_peripheral/Source/gd32vw55x_hau_sha_md5.c ****     if(keysize > 64U){
 1624              		.loc 1 340 7
 1625 0094 032744FB 		lw	a4,-76(s0)
 1626 0098 93070004 		li	a5,64
 1627 009c 63F6E700 		bleu	a4,a5,.L58
 341:../Firmware/GD32VW55x_standard_peripheral/Source/gd32vw55x_hau_sha_md5.c ****         init_para.keytype = HAU_KEY_LONGGER_64;
 1628              		.loc 1 341 27
 1629 00a0 C167     		li	a5,65536
 1630 00a2 232EF4FC 		sw	a5,-36(s0)
 1631 00a6 19A0     		j	.L59
 1632              	.L58:
 342:../Firmware/GD32VW55x_standard_peripheral/Source/gd32vw55x_hau_sha_md5.c ****     }else{
 343:../Firmware/GD32VW55x_standard_peripheral/Source/gd32vw55x_hau_sha_md5.c ****         init_para.keytype = HAU_KEY_SHORTER_64;
 1633              		.loc 1 343 27
 1634 00a8 232E04FC 		sw	zero,-36(s0)
 1635              	.L59:
 344:../Firmware/GD32VW55x_standard_peripheral/Source/gd32vw55x_hau_sha_md5.c ****     }
 345:../Firmware/GD32VW55x_standard_peripheral/Source/gd32vw55x_hau_sha_md5.c ****     hau_init(&init_para);
 1636              		.loc 1 345 5
 1637 00ac 930704FD 		addi	a5,s0,-48
 1638 00b0 3E85     		mv	a0,a5
 1639 00b2 97000000 		call	hau_init
 1639      E7800000 
 346:../Firmware/GD32VW55x_standard_peripheral/Source/gd32vw55x_hau_sha_md5.c **** 
 347:../Firmware/GD32VW55x_standard_peripheral/Source/gd32vw55x_hau_sha_md5.c ****     /* configure the number of valid bits in last word of the key */
 348:../Firmware/GD32VW55x_standard_peripheral/Source/gd32vw55x_hau_sha_md5.c ****     hau_last_word_validbits_num_config((uint32_t)num_key_valid);
 1640              		.loc 1 348 5
 1641 00ba 8357C4FC 		lhu	a5,-52(s0)
 1642 00be C207     		slli	a5,a5,16
 1643 00c0 C183     		srli	a5,a5,16
 1644 00c2 3E85     		mv	a0,a5
 1645 00c4 97000000 		call	hau_last_word_validbits_num_config
 1645      E7800000 
 349:../Firmware/GD32VW55x_standard_peripheral/Source/gd32vw55x_hau_sha_md5.c **** 
 350:../Firmware/GD32VW55x_standard_peripheral/Source/gd32vw55x_hau_sha_md5.c ****     /* write the key */
 351:../Firmware/GD32VW55x_standard_peripheral/Source/gd32vw55x_hau_sha_md5.c ****     for(i = 0U; i < keysize; i += 4U){
 1646              		.loc 1 351 11
 1647 00cc 232604FE 		sw	zero,-20(s0)
 1648              		.loc 1 351 5
 1649 00d0 1DA0     		j	.L60
 1650              	.L61:
 352:../Firmware/GD32VW55x_standard_peripheral/Source/gd32vw55x_hau_sha_md5.c ****         hau_data_write(*(uint32_t*)keyaddr);
 1651              		.loc 1 352 25 discriminator 3
 1652 00d2 832784FE 		lw	a5,-24(s0)
 1653              		.loc 1 352 9 discriminator 3
 1654 00d6 9C43     		lw	a5,0(a5)
 1655 00d8 3E85     		mv	a0,a5
 1656 00da 97000000 		call	hau_data_write
 1656      E7800000 
 353:../Firmware/GD32VW55x_standard_peripheral/Source/gd32vw55x_hau_sha_md5.c ****         keyaddr += 4U;
 1657              		.loc 1 353 17 discriminator 3
 1658 00e2 832784FE 		lw	a5,-24(s0)
 1659 00e6 9107     		addi	a5,a5,4
 1660 00e8 2324F4FE 		sw	a5,-24(s0)
 351:../Firmware/GD32VW55x_standard_peripheral/Source/gd32vw55x_hau_sha_md5.c ****         hau_data_write(*(uint32_t*)keyaddr);
 1661              		.loc 1 351 32 discriminator 3
 1662 00ec 8327C4FE 		lw	a5,-20(s0)
 1663 00f0 9107     		addi	a5,a5,4
 1664 00f2 2326F4FE 		sw	a5,-20(s0)
 1665              	.L60:
 351:../Firmware/GD32VW55x_standard_peripheral/Source/gd32vw55x_hau_sha_md5.c ****         hau_data_write(*(uint32_t*)keyaddr);
 1666              		.loc 1 351 5 discriminator 1
 1667 00f6 0327C4FE 		lw	a4,-20(s0)
 1668 00fa 832744FB 		lw	a5,-76(s0)
 1669 00fe E36AF7FC 		bltu	a4,a5,.L61
 354:../Firmware/GD32VW55x_standard_peripheral/Source/gd32vw55x_hau_sha_md5.c ****     }
 355:../Firmware/GD32VW55x_standard_peripheral/Source/gd32vw55x_hau_sha_md5.c **** 
 356:../Firmware/GD32VW55x_standard_peripheral/Source/gd32vw55x_hau_sha_md5.c ****     /* enable digest calculation */
 357:../Firmware/GD32VW55x_standard_peripheral/Source/gd32vw55x_hau_sha_md5.c ****     hau_digest_calculation_enable();
 1670              		.loc 1 357 5
 1671 0102 97000000 		call	hau_digest_calculation_enable
 1671      E7800000 
 1672              	.L63:
 358:../Firmware/GD32VW55x_standard_peripheral/Source/gd32vw55x_hau_sha_md5.c **** 
 359:../Firmware/GD32VW55x_standard_peripheral/Source/gd32vw55x_hau_sha_md5.c ****     /* wait until the busy flag is reset */
 360:../Firmware/GD32VW55x_standard_peripheral/Source/gd32vw55x_hau_sha_md5.c ****     do{
 361:../Firmware/GD32VW55x_standard_peripheral/Source/gd32vw55x_hau_sha_md5.c ****         busystatus = hau_flag_get(HAU_FLAG_BUSY);
 1673              		.loc 1 361 22 discriminator 2
 1674 010a 2145     		li	a0,8
 1675 010c 97000000 		call	hau_flag_get
 1675      E7800000 
 1676 0114 2320A4FE 		sw	a0,-32(s0)
 362:../Firmware/GD32VW55x_standard_peripheral/Source/gd32vw55x_hau_sha_md5.c ****         counter++;
 1677              		.loc 1 362 16 discriminator 2
 1678 0118 832784FC 		lw	a5,-56(s0)
 1679 011c 8507     		addi	a5,a5,1
 1680 011e 2324F4FC 		sw	a5,-56(s0)
 363:../Firmware/GD32VW55x_standard_peripheral/Source/gd32vw55x_hau_sha_md5.c ****     }while((SHAMD5_BSY_TIMEOUT != counter) && (RESET != busystatus));
 1681              		.loc 1 363 32 discriminator 2
 1682 0122 032784FC 		lw	a4,-56(s0)
 1683              		.loc 1 363 5 discriminator 2
 1684 0126 C167     		li	a5,65536
 1685 0128 6305F700 		beq	a4,a5,.L62
 1686              		.loc 1 363 44 discriminator 1
 1687 012c 832704FE 		lw	a5,-32(s0)
 1688 0130 E9FF     		bne	a5,zero,.L63
 1689              	.L62:
 364:../Firmware/GD32VW55x_standard_peripheral/Source/gd32vw55x_hau_sha_md5.c **** 
 365:../Firmware/GD32VW55x_standard_peripheral/Source/gd32vw55x_hau_sha_md5.c ****     if(RESET != busystatus){
 1690              		.loc 1 365 7
 1691 0132 832704FE 		lw	a5,-32(s0)
 1692 0136 99C3     		beq	a5,zero,.L64
 366:../Firmware/GD32VW55x_standard_peripheral/Source/gd32vw55x_hau_sha_md5.c ****         return ERROR;
 1693              		.loc 1 366 16
 1694 0138 8147     		li	a5,0
 1695 013a 25A2     		j	.L76
 1696              	.L64:
 367:../Firmware/GD32VW55x_standard_peripheral/Source/gd32vw55x_hau_sha_md5.c ****     }else{
 368:../Firmware/GD32VW55x_standard_peripheral/Source/gd32vw55x_hau_sha_md5.c ****         /* configure the number of valid bits in last word of the message */
 369:../Firmware/GD32VW55x_standard_peripheral/Source/gd32vw55x_hau_sha_md5.c ****         hau_last_word_validbits_num_config((uint32_t)num_last_valid);
 1697              		.loc 1 369 9
 1698 013c 8357E4FC 		lhu	a5,-50(s0)
 1699 0140 C207     		slli	a5,a5,16
 1700 0142 C183     		srli	a5,a5,16
 1701 0144 3E85     		mv	a0,a5
 1702 0146 97000000 		call	hau_last_word_validbits_num_config
 1702      E7800000 
 370:../Firmware/GD32VW55x_standard_peripheral/Source/gd32vw55x_hau_sha_md5.c **** 
 371:../Firmware/GD32VW55x_standard_peripheral/Source/gd32vw55x_hau_sha_md5.c ****         /* write data to the IN FIFO */
 372:../Firmware/GD32VW55x_standard_peripheral/Source/gd32vw55x_hau_sha_md5.c ****         for(i = 0U; i < in_length; i += 4U){
 1703              		.loc 1 372 15
 1704 014e 232604FE 		sw	zero,-20(s0)
 1705              		.loc 1 372 9
 1706 0152 1DA0     		j	.L66
 1707              	.L67:
 373:../Firmware/GD32VW55x_standard_peripheral/Source/gd32vw55x_hau_sha_md5.c ****             hau_data_write(*(uint32_t*)inputaddr);
 1708              		.loc 1 373 29 discriminator 3
 1709 0154 832744FE 		lw	a5,-28(s0)
 1710              		.loc 1 373 13 discriminator 3
 1711 0158 9C43     		lw	a5,0(a5)
 1712 015a 3E85     		mv	a0,a5
 1713 015c 97000000 		call	hau_data_write
 1713      E7800000 
 374:../Firmware/GD32VW55x_standard_peripheral/Source/gd32vw55x_hau_sha_md5.c ****             inputaddr += 4U;
 1714              		.loc 1 374 23 discriminator 3
 1715 0164 832744FE 		lw	a5,-28(s0)
 1716 0168 9107     		addi	a5,a5,4
 1717 016a 2322F4FE 		sw	a5,-28(s0)
 372:../Firmware/GD32VW55x_standard_peripheral/Source/gd32vw55x_hau_sha_md5.c ****             hau_data_write(*(uint32_t*)inputaddr);
 1718              		.loc 1 372 38 discriminator 3
 1719 016e 8327C4FE 		lw	a5,-20(s0)
 1720 0172 9107     		addi	a5,a5,4
 1721 0174 2326F4FE 		sw	a5,-20(s0)
 1722              	.L66:
 372:../Firmware/GD32VW55x_standard_peripheral/Source/gd32vw55x_hau_sha_md5.c ****             hau_data_write(*(uint32_t*)inputaddr);
 1723              		.loc 1 372 9 discriminator 1
 1724 0178 0327C4FE 		lw	a4,-20(s0)
 1725 017c 8327C4FA 		lw	a5,-84(s0)
 1726 0180 E36AF7FC 		bltu	a4,a5,.L67
 375:../Firmware/GD32VW55x_standard_peripheral/Source/gd32vw55x_hau_sha_md5.c ****         }
 376:../Firmware/GD32VW55x_standard_peripheral/Source/gd32vw55x_hau_sha_md5.c **** 
 377:../Firmware/GD32VW55x_standard_peripheral/Source/gd32vw55x_hau_sha_md5.c ****         /* enable digest calculation */
 378:../Firmware/GD32VW55x_standard_peripheral/Source/gd32vw55x_hau_sha_md5.c ****         hau_digest_calculation_enable();
 1727              		.loc 1 378 9
 1728 0184 97000000 		call	hau_digest_calculation_enable
 1728      E7800000 
 379:../Firmware/GD32VW55x_standard_peripheral/Source/gd32vw55x_hau_sha_md5.c **** 
 380:../Firmware/GD32VW55x_standard_peripheral/Source/gd32vw55x_hau_sha_md5.c ****         /* wait until the busy flag is reset */
 381:../Firmware/GD32VW55x_standard_peripheral/Source/gd32vw55x_hau_sha_md5.c ****         counter = 0U;
 1729              		.loc 1 381 17
 1730 018c 232404FC 		sw	zero,-56(s0)
 1731              	.L69:
 382:../Firmware/GD32VW55x_standard_peripheral/Source/gd32vw55x_hau_sha_md5.c ****         do{
 383:../Firmware/GD32VW55x_standard_peripheral/Source/gd32vw55x_hau_sha_md5.c ****             busystatus = hau_flag_get(HAU_FLAG_BUSY);
 1732              		.loc 1 383 26 discriminator 2
 1733 0190 2145     		li	a0,8
 1734 0192 97000000 		call	hau_flag_get
 1734      E7800000 
 1735 019a 2320A4FE 		sw	a0,-32(s0)
 384:../Firmware/GD32VW55x_standard_peripheral/Source/gd32vw55x_hau_sha_md5.c ****             counter++;
 1736              		.loc 1 384 20 discriminator 2
 1737 019e 832784FC 		lw	a5,-56(s0)
 1738 01a2 8507     		addi	a5,a5,1
 1739 01a4 2324F4FC 		sw	a5,-56(s0)
 385:../Firmware/GD32VW55x_standard_peripheral/Source/gd32vw55x_hau_sha_md5.c ****         }while((SHAMD5_BSY_TIMEOUT != counter) && (RESET != busystatus));
 1740              		.loc 1 385 36 discriminator 2
 1741 01a8 032784FC 		lw	a4,-56(s0)
 1742              		.loc 1 385 9 discriminator 2
 1743 01ac C167     		li	a5,65536
 1744 01ae 6305F700 		beq	a4,a5,.L68
 1745              		.loc 1 385 48 discriminator 1
 1746 01b2 832704FE 		lw	a5,-32(s0)
 1747 01b6 E9FF     		bne	a5,zero,.L69
 1748              	.L68:
 386:../Firmware/GD32VW55x_standard_peripheral/Source/gd32vw55x_hau_sha_md5.c **** 
 387:../Firmware/GD32VW55x_standard_peripheral/Source/gd32vw55x_hau_sha_md5.c ****         if(RESET != busystatus){
 1749              		.loc 1 387 11
 1750 01b8 832704FE 		lw	a5,-32(s0)
 1751 01bc 99C3     		beq	a5,zero,.L70
 388:../Firmware/GD32VW55x_standard_peripheral/Source/gd32vw55x_hau_sha_md5.c ****             return ERROR;
 1752              		.loc 1 388 20
 1753 01be 8147     		li	a5,0
 1754 01c0 4DA0     		j	.L76
 1755              	.L70:
 389:../Firmware/GD32VW55x_standard_peripheral/Source/gd32vw55x_hau_sha_md5.c ****         }else{
 390:../Firmware/GD32VW55x_standard_peripheral/Source/gd32vw55x_hau_sha_md5.c ****             /* configure the number of valid bits in last word of the key */
 391:../Firmware/GD32VW55x_standard_peripheral/Source/gd32vw55x_hau_sha_md5.c ****             hau_last_word_validbits_num_config((uint32_t)num_key_valid);
 1756              		.loc 1 391 13
 1757 01c2 8357C4FC 		lhu	a5,-52(s0)
 1758 01c6 C207     		slli	a5,a5,16
 1759 01c8 C183     		srli	a5,a5,16
 1760 01ca 3E85     		mv	a0,a5
 1761 01cc 97000000 		call	hau_last_word_validbits_num_config
 1761      E7800000 
 392:../Firmware/GD32VW55x_standard_peripheral/Source/gd32vw55x_hau_sha_md5.c **** 
 393:../Firmware/GD32VW55x_standard_peripheral/Source/gd32vw55x_hau_sha_md5.c ****             /* write the key */
 394:../Firmware/GD32VW55x_standard_peripheral/Source/gd32vw55x_hau_sha_md5.c ****             keyaddr = (uint32_t)key;
 1762              		.loc 1 394 21
 1763 01d4 832784FB 		lw	a5,-72(s0)
 1764 01d8 2324F4FE 		sw	a5,-24(s0)
 395:../Firmware/GD32VW55x_standard_peripheral/Source/gd32vw55x_hau_sha_md5.c ****             for(i = 0U; i < keysize; i += 4U){
 1765              		.loc 1 395 19
 1766 01dc 232604FE 		sw	zero,-20(s0)
 1767              		.loc 1 395 13
 1768 01e0 1DA0     		j	.L71
 1769              	.L72:
 396:../Firmware/GD32VW55x_standard_peripheral/Source/gd32vw55x_hau_sha_md5.c ****                 hau_data_write(*(uint32_t*)keyaddr);
 1770              		.loc 1 396 33 discriminator 3
 1771 01e2 832784FE 		lw	a5,-24(s0)
 1772              		.loc 1 396 17 discriminator 3
 1773 01e6 9C43     		lw	a5,0(a5)
 1774 01e8 3E85     		mv	a0,a5
 1775 01ea 97000000 		call	hau_data_write
 1775      E7800000 
 397:../Firmware/GD32VW55x_standard_peripheral/Source/gd32vw55x_hau_sha_md5.c ****                 keyaddr += 4U;
 1776              		.loc 1 397 25 discriminator 3
 1777 01f2 832784FE 		lw	a5,-24(s0)
 1778 01f6 9107     		addi	a5,a5,4
 1779 01f8 2324F4FE 		sw	a5,-24(s0)
 395:../Firmware/GD32VW55x_standard_peripheral/Source/gd32vw55x_hau_sha_md5.c ****             for(i = 0U; i < keysize; i += 4U){
 1780              		.loc 1 395 40 discriminator 3
 1781 01fc 8327C4FE 		lw	a5,-20(s0)
 1782 0200 9107     		addi	a5,a5,4
 1783 0202 2326F4FE 		sw	a5,-20(s0)
 1784              	.L71:
 395:../Firmware/GD32VW55x_standard_peripheral/Source/gd32vw55x_hau_sha_md5.c ****             for(i = 0U; i < keysize; i += 4U){
 1785              		.loc 1 395 13 discriminator 1
 1786 0206 0327C4FE 		lw	a4,-20(s0)
 1787 020a 832744FB 		lw	a5,-76(s0)
 1788 020e E36AF7FC 		bltu	a4,a5,.L72
 398:../Firmware/GD32VW55x_standard_peripheral/Source/gd32vw55x_hau_sha_md5.c ****             }
 399:../Firmware/GD32VW55x_standard_peripheral/Source/gd32vw55x_hau_sha_md5.c **** 
 400:../Firmware/GD32VW55x_standard_peripheral/Source/gd32vw55x_hau_sha_md5.c ****             /* enable digest calculation */
 401:../Firmware/GD32VW55x_standard_peripheral/Source/gd32vw55x_hau_sha_md5.c ****             hau_digest_calculation_enable();
 1789              		.loc 1 401 13
 1790 0212 97000000 		call	hau_digest_calculation_enable
 1790      E7800000 
 402:../Firmware/GD32VW55x_standard_peripheral/Source/gd32vw55x_hau_sha_md5.c **** 
 403:../Firmware/GD32VW55x_standard_peripheral/Source/gd32vw55x_hau_sha_md5.c ****             /* wait until the busy flag is reset */
 404:../Firmware/GD32VW55x_standard_peripheral/Source/gd32vw55x_hau_sha_md5.c ****             counter = 0U;
 1791              		.loc 1 404 21
 1792 021a 232404FC 		sw	zero,-56(s0)
 1793              	.L74:
 405:../Firmware/GD32VW55x_standard_peripheral/Source/gd32vw55x_hau_sha_md5.c ****             do{
 406:../Firmware/GD32VW55x_standard_peripheral/Source/gd32vw55x_hau_sha_md5.c ****                 busystatus = hau_flag_get(HAU_FLAG_BUSY);
 1794              		.loc 1 406 30 discriminator 2
 1795 021e 2145     		li	a0,8
 1796 0220 97000000 		call	hau_flag_get
 1796      E7800000 
 1797 0228 2320A4FE 		sw	a0,-32(s0)
 407:../Firmware/GD32VW55x_standard_peripheral/Source/gd32vw55x_hau_sha_md5.c ****                 counter++;
 1798              		.loc 1 407 24 discriminator 2
 1799 022c 832784FC 		lw	a5,-56(s0)
 1800 0230 8507     		addi	a5,a5,1
 1801 0232 2324F4FC 		sw	a5,-56(s0)
 408:../Firmware/GD32VW55x_standard_peripheral/Source/gd32vw55x_hau_sha_md5.c ****             }while((SHAMD5_BSY_TIMEOUT != counter) && (RESET != busystatus));
 1802              		.loc 1 408 40 discriminator 2
 1803 0236 032784FC 		lw	a4,-56(s0)
 1804              		.loc 1 408 13 discriminator 2
 1805 023a C167     		li	a5,65536
 1806 023c 6305F700 		beq	a4,a5,.L73
 1807              		.loc 1 408 52 discriminator 1
 1808 0240 832704FE 		lw	a5,-32(s0)
 1809 0244 E9FF     		bne	a5,zero,.L74
 1810              	.L73:
 409:../Firmware/GD32VW55x_standard_peripheral/Source/gd32vw55x_hau_sha_md5.c **** 
 410:../Firmware/GD32VW55x_standard_peripheral/Source/gd32vw55x_hau_sha_md5.c ****             if(RESET != busystatus){
 1811              		.loc 1 410 15
 1812 0246 832704FE 		lw	a5,-32(s0)
 1813 024a 99C3     		beq	a5,zero,.L75
 411:../Firmware/GD32VW55x_standard_peripheral/Source/gd32vw55x_hau_sha_md5.c ****                 return ERROR;
 1814              		.loc 1 411 24
 1815 024c 8147     		li	a5,0
 1816 024e 11A8     		j	.L76
 1817              	.L75:
 412:../Firmware/GD32VW55x_standard_peripheral/Source/gd32vw55x_hau_sha_md5.c ****             }else{
 413:../Firmware/GD32VW55x_standard_peripheral/Source/gd32vw55x_hau_sha_md5.c ****                 /* read the message digest */
 414:../Firmware/GD32VW55x_standard_peripheral/Source/gd32vw55x_hau_sha_md5.c ****                 hau_sha_md5_digest_read(algo, output);
 1818              		.loc 1 414 17
 1819 0250 832584FA 		lw	a1,-88(s0)
 1820 0254 0325C4FB 		lw	a0,-68(s0)
 1821 0258 97000000 		call	hau_sha_md5_digest_read
 1821      E7800000 
 415:../Firmware/GD32VW55x_standard_peripheral/Source/gd32vw55x_hau_sha_md5.c ****             }
 416:../Firmware/GD32VW55x_standard_peripheral/Source/gd32vw55x_hau_sha_md5.c ****         }
 417:../Firmware/GD32VW55x_standard_peripheral/Source/gd32vw55x_hau_sha_md5.c ****     }
 418:../Firmware/GD32VW55x_standard_peripheral/Source/gd32vw55x_hau_sha_md5.c ****     return SUCCESS;
 1822              		.loc 1 418 12
 1823 0260 8547     		li	a5,1
 1824              	.L76:
 419:../Firmware/GD32VW55x_standard_peripheral/Source/gd32vw55x_hau_sha_md5.c **** }
 1825              		.loc 1 419 1 discriminator 1
 1826 0262 3E85     		mv	a0,a5
 1827 0264 F640     		lw	ra,92(sp)
 1828              		.cfi_restore 1
 1829 0266 6644     		lw	s0,88(sp)
 1830              		.cfi_restore 8
 1831              		.cfi_def_cfa 2, 96
 1832 0268 2561     		addi	sp,sp,96
 1833              		.cfi_def_cfa_offset 0
 1834 026a 8280     		jr	ra
 1835              		.cfi_endproc
 1836              	.LFE357:
 1838              		.text
 1839              	.Letext0:
 1840              		.file 3 "e:\\gd32\\gd32embeddedbuilder_v1.5.2.30854\\tools\\nuclei_riscv_newlibc_prebuilt_win32_20
 1841              		.file 4 "e:\\gd32\\gd32embeddedbuilder_v1.5.2.30854\\tools\\nuclei_riscv_newlibc_prebuilt_win32_20
 1842              		.file 5 "../Firmware/GD32VW55x_standard_peripheral/gd32vw55x.h"
 1843              		.file 6 "../Firmware/GD32VW55x_standard_peripheral/Include/gd32vw55x_hau.h"