   1              		.file	"gd32vw55x_pmu.c"
   2              		.option nopic
   3              		.attribute arch, "rv32i2p0_m2p0_a2p0_c2p0"
   4              		.attribute unaligned_access, 0
   5              		.attribute stack_align, 16
   6              		.text
   7              	.Ltext0:
   8              		.cfi_sections	.debug_frame
   9              		.section	.text.pmu_deinit,"ax",@progbits
  10              		.align	1
  11              		.globl	pmu_deinit
  13              	pmu_deinit:
  14              	.LFB347:
  15              		.file 1 "../Firmware/GD32VW55x_standard_peripheral/Source/gd32vw55x_pmu.c"
   1:../Firmware/GD32VW55x_standard_peripheral/Source/gd32vw55x_pmu.c **** /*!
   2:../Firmware/GD32VW55x_standard_peripheral/Source/gd32vw55x_pmu.c ****     \file    gd32vw55x_pmu.c
   3:../Firmware/GD32VW55x_standard_peripheral/Source/gd32vw55x_pmu.c ****     \brief   PMU driver
   4:../Firmware/GD32VW55x_standard_peripheral/Source/gd32vw55x_pmu.c **** 
   5:../Firmware/GD32VW55x_standard_peripheral/Source/gd32vw55x_pmu.c ****     \version 2025-01-16, V1.4.0, firmware for GD32VW55x
   6:../Firmware/GD32VW55x_standard_peripheral/Source/gd32vw55x_pmu.c **** */
   7:../Firmware/GD32VW55x_standard_peripheral/Source/gd32vw55x_pmu.c **** 
   8:../Firmware/GD32VW55x_standard_peripheral/Source/gd32vw55x_pmu.c **** /*
   9:../Firmware/GD32VW55x_standard_peripheral/Source/gd32vw55x_pmu.c ****     Copyright (c) 2025, GigaDevice Semiconductor Inc.
  10:../Firmware/GD32VW55x_standard_peripheral/Source/gd32vw55x_pmu.c **** 
  11:../Firmware/GD32VW55x_standard_peripheral/Source/gd32vw55x_pmu.c ****     Redistribution and use in source and binary forms, with or without modification,
  12:../Firmware/GD32VW55x_standard_peripheral/Source/gd32vw55x_pmu.c **** are permitted provided that the following conditions are met:
  13:../Firmware/GD32VW55x_standard_peripheral/Source/gd32vw55x_pmu.c **** 
  14:../Firmware/GD32VW55x_standard_peripheral/Source/gd32vw55x_pmu.c ****     1. Redistributions of source code must retain the above copyright notice, this
  15:../Firmware/GD32VW55x_standard_peripheral/Source/gd32vw55x_pmu.c ****        list of conditions and the following disclaimer.
  16:../Firmware/GD32VW55x_standard_peripheral/Source/gd32vw55x_pmu.c ****     2. Redistributions in binary form must reproduce the above copyright notice,
  17:../Firmware/GD32VW55x_standard_peripheral/Source/gd32vw55x_pmu.c ****        this list of conditions and the following disclaimer in the documentation
  18:../Firmware/GD32VW55x_standard_peripheral/Source/gd32vw55x_pmu.c ****        and/or other materials provided with the distribution.
  19:../Firmware/GD32VW55x_standard_peripheral/Source/gd32vw55x_pmu.c ****     3. Neither the name of the copyright holder nor the names of its contributors
  20:../Firmware/GD32VW55x_standard_peripheral/Source/gd32vw55x_pmu.c ****        may be used to endorse or promote products derived from this software without
  21:../Firmware/GD32VW55x_standard_peripheral/Source/gd32vw55x_pmu.c ****        specific prior written permission.
  22:../Firmware/GD32VW55x_standard_peripheral/Source/gd32vw55x_pmu.c **** 
  23:../Firmware/GD32VW55x_standard_peripheral/Source/gd32vw55x_pmu.c ****     THIS SOFTWARE IS PROVIDED BY THE COPYRIGHT HOLDERS AND CONTRIBUTORS "AS IS"
  24:../Firmware/GD32VW55x_standard_peripheral/Source/gd32vw55x_pmu.c **** AND ANY EXPRESS OR IMPLIED WARRANTIES, INCLUDING, BUT NOT LIMITED TO, THE IMPLIED
  25:../Firmware/GD32VW55x_standard_peripheral/Source/gd32vw55x_pmu.c **** WARRANTIES OF MERCHANTABILITY AND FITNESS FOR A PARTICULAR PURPOSE ARE DISCLAIMED.
  26:../Firmware/GD32VW55x_standard_peripheral/Source/gd32vw55x_pmu.c **** IN NO EVENT SHALL THE COPYRIGHT HOLDER OR CONTRIBUTORS BE LIABLE FOR ANY DIRECT,
  27:../Firmware/GD32VW55x_standard_peripheral/Source/gd32vw55x_pmu.c **** INDIRECT, INCIDENTAL, SPECIAL, EXEMPLARY, OR CONSEQUENTIAL DAMAGES (INCLUDING, BUT
  28:../Firmware/GD32VW55x_standard_peripheral/Source/gd32vw55x_pmu.c **** NOT LIMITED TO, PROCUREMENT OF SUBSTITUTE GOODS OR SERVICES; LOSS OF USE, DATA, OR
  29:../Firmware/GD32VW55x_standard_peripheral/Source/gd32vw55x_pmu.c **** PROFITS; OR BUSINESS INTERRUPTION) HOWEVER CAUSED AND ON ANY THEORY OF LIABILITY,
  30:../Firmware/GD32VW55x_standard_peripheral/Source/gd32vw55x_pmu.c **** WHETHER IN CONTRACT, STRICT LIABILITY, OR TORT (INCLUDING NEGLIGENCE OR OTHERWISE)
  31:../Firmware/GD32VW55x_standard_peripheral/Source/gd32vw55x_pmu.c **** ARISING IN ANY WAY OUT OF THE USE OF THIS SOFTWARE, EVEN IF ADVISED OF THE POSSIBILITY
  32:../Firmware/GD32VW55x_standard_peripheral/Source/gd32vw55x_pmu.c **** OF SUCH DAMAGE.
  33:../Firmware/GD32VW55x_standard_peripheral/Source/gd32vw55x_pmu.c **** */
  34:../Firmware/GD32VW55x_standard_peripheral/Source/gd32vw55x_pmu.c **** 
  35:../Firmware/GD32VW55x_standard_peripheral/Source/gd32vw55x_pmu.c **** #include "gd32vw55x_pmu.h"
  36:../Firmware/GD32VW55x_standard_peripheral/Source/gd32vw55x_pmu.c **** 
  37:../Firmware/GD32VW55x_standard_peripheral/Source/gd32vw55x_pmu.c **** /*!
  38:../Firmware/GD32VW55x_standard_peripheral/Source/gd32vw55x_pmu.c ****     \brief      reset PMU register
  39:../Firmware/GD32VW55x_standard_peripheral/Source/gd32vw55x_pmu.c ****     \param[in]  none
  40:../Firmware/GD32VW55x_standard_peripheral/Source/gd32vw55x_pmu.c ****     \param[out] none
  41:../Firmware/GD32VW55x_standard_peripheral/Source/gd32vw55x_pmu.c ****     \retval     none
  42:../Firmware/GD32VW55x_standard_peripheral/Source/gd32vw55x_pmu.c **** */
  43:../Firmware/GD32VW55x_standard_peripheral/Source/gd32vw55x_pmu.c **** void pmu_deinit(void)
  44:../Firmware/GD32VW55x_standard_peripheral/Source/gd32vw55x_pmu.c **** {
  16              		.loc 1 44 1
  17              		.cfi_startproc
  18 0000 4111     		addi	sp,sp,-16
  19              		.cfi_def_cfa_offset 16
  20 0002 06C6     		sw	ra,12(sp)
  21 0004 22C4     		sw	s0,8(sp)
  22              		.cfi_offset 1, -4
  23              		.cfi_offset 8, -8
  24 0006 0008     		addi	s0,sp,16
  25              		.cfi_def_cfa 8, 0
  45:../Firmware/GD32VW55x_standard_peripheral/Source/gd32vw55x_pmu.c ****     /* reset PMU */
  46:../Firmware/GD32VW55x_standard_peripheral/Source/gd32vw55x_pmu.c ****     rcu_periph_reset_enable(RCU_PMURST);
  26              		.loc 1 46 5
  27 0008 8567     		li	a5,4096
  28 000a 1385C781 		addi	a0,a5,-2020
  29 000e 97000000 		call	rcu_periph_reset_enable
  29      E7800000 
  47:../Firmware/GD32VW55x_standard_peripheral/Source/gd32vw55x_pmu.c ****     rcu_periph_reset_disable(RCU_PMURST);
  30              		.loc 1 47 5
  31 0016 8567     		li	a5,4096
  32 0018 1385C781 		addi	a0,a5,-2020
  33 001c 97000000 		call	rcu_periph_reset_disable
  33      E7800000 
  48:../Firmware/GD32VW55x_standard_peripheral/Source/gd32vw55x_pmu.c **** }
  34              		.loc 1 48 1
  35 0024 0100     		nop
  36 0026 B240     		lw	ra,12(sp)
  37              		.cfi_restore 1
  38 0028 2244     		lw	s0,8(sp)
  39              		.cfi_restore 8
  40              		.cfi_def_cfa 2, 16
  41 002a 4101     		addi	sp,sp,16
  42              		.cfi_def_cfa_offset 0
  43 002c 8280     		jr	ra
  44              		.cfi_endproc
  45              	.LFE347:
  47              		.section	.text.pmu_lvd_select,"ax",@progbits
  48              		.align	1
  49              		.globl	pmu_lvd_select
  51              	pmu_lvd_select:
  52              	.LFB348:
  49:../Firmware/GD32VW55x_standard_peripheral/Source/gd32vw55x_pmu.c **** 
  50:../Firmware/GD32VW55x_standard_peripheral/Source/gd32vw55x_pmu.c **** /*!
  51:../Firmware/GD32VW55x_standard_peripheral/Source/gd32vw55x_pmu.c ****     \brief      select low voltage detector threshold
  52:../Firmware/GD32VW55x_standard_peripheral/Source/gd32vw55x_pmu.c ****     \param[in]  lvdt_n:
  53:../Firmware/GD32VW55x_standard_peripheral/Source/gd32vw55x_pmu.c ****                 only one parameter can be selected which is shown as below:
  54:../Firmware/GD32VW55x_standard_peripheral/Source/gd32vw55x_pmu.c ****       \arg        PMU_LVDT_0: voltage threshold is 2.1V
  55:../Firmware/GD32VW55x_standard_peripheral/Source/gd32vw55x_pmu.c ****       \arg        PMU_LVDT_1: voltage threshold is 2.3V
  56:../Firmware/GD32VW55x_standard_peripheral/Source/gd32vw55x_pmu.c ****       \arg        PMU_LVDT_2: voltage threshold is 2.4V
  57:../Firmware/GD32VW55x_standard_peripheral/Source/gd32vw55x_pmu.c ****       \arg        PMU_LVDT_3: voltage threshold is 2.6V
  58:../Firmware/GD32VW55x_standard_peripheral/Source/gd32vw55x_pmu.c ****       \arg        PMU_LVDT_4: voltage threshold is 2.7V
  59:../Firmware/GD32VW55x_standard_peripheral/Source/gd32vw55x_pmu.c ****       \arg        PMU_LVDT_5: voltage threshold is 2.9V
  60:../Firmware/GD32VW55x_standard_peripheral/Source/gd32vw55x_pmu.c ****       \arg        PMU_LVDT_6: voltage threshold is 3.0V
  61:../Firmware/GD32VW55x_standard_peripheral/Source/gd32vw55x_pmu.c ****       \arg        PMU_LVDT_7: voltage threshold is 3.1V
  62:../Firmware/GD32VW55x_standard_peripheral/Source/gd32vw55x_pmu.c ****     \param[out] none
  63:../Firmware/GD32VW55x_standard_peripheral/Source/gd32vw55x_pmu.c ****     \retval     none
  64:../Firmware/GD32VW55x_standard_peripheral/Source/gd32vw55x_pmu.c **** */
  65:../Firmware/GD32VW55x_standard_peripheral/Source/gd32vw55x_pmu.c **** void pmu_lvd_select(uint32_t lvdt_n)
  66:../Firmware/GD32VW55x_standard_peripheral/Source/gd32vw55x_pmu.c **** {
  53              		.loc 1 66 1
  54              		.cfi_startproc
  55 0000 0111     		addi	sp,sp,-32
  56              		.cfi_def_cfa_offset 32
  57 0002 22CE     		sw	s0,28(sp)
  58              		.cfi_offset 8, -4
  59 0004 0010     		addi	s0,sp,32
  60              		.cfi_def_cfa 8, 0
  61 0006 2326A4FE 		sw	a0,-20(s0)
  67:../Firmware/GD32VW55x_standard_peripheral/Source/gd32vw55x_pmu.c ****     /* disable LVD */
  68:../Firmware/GD32VW55x_standard_peripheral/Source/gd32vw55x_pmu.c ****     PMU_CTL0 &= ~PMU_CTL0_LVDEN;
  62              		.loc 1 68 14
  63 000a B7770040 		li	a5,1073770496
  64 000e 9843     		lw	a4,0(a5)
  65 0010 B7770040 		li	a5,1073770496
  66 0014 3D9B     		andi	a4,a4,-17
  67 0016 98C3     		sw	a4,0(a5)
  69:../Firmware/GD32VW55x_standard_peripheral/Source/gd32vw55x_pmu.c ****     /* clear LVDT bits */
  70:../Firmware/GD32VW55x_standard_peripheral/Source/gd32vw55x_pmu.c ****     PMU_CTL0 &= ~PMU_CTL0_LVDT;
  68              		.loc 1 70 14
  69 0018 B7770040 		li	a5,1073770496
  70 001c 9843     		lw	a4,0(a5)
  71 001e B7770040 		li	a5,1073770496
  72 0022 1377F7F1 		andi	a4,a4,-225
  73 0026 98C3     		sw	a4,0(a5)
  71:../Firmware/GD32VW55x_standard_peripheral/Source/gd32vw55x_pmu.c ****     /* set LVDT bits according to lvdt_n */
  72:../Firmware/GD32VW55x_standard_peripheral/Source/gd32vw55x_pmu.c ****     PMU_CTL0 |= lvdt_n;
  74              		.loc 1 72 14
  75 0028 B7770040 		li	a5,1073770496
  76 002c 9443     		lw	a3,0(a5)
  77 002e B7770040 		li	a5,1073770496
  78 0032 0327C4FE 		lw	a4,-20(s0)
  79 0036 558F     		or	a4,a3,a4
  80 0038 98C3     		sw	a4,0(a5)
  73:../Firmware/GD32VW55x_standard_peripheral/Source/gd32vw55x_pmu.c ****     /* enable LVD */
  74:../Firmware/GD32VW55x_standard_peripheral/Source/gd32vw55x_pmu.c ****     PMU_CTL0 |= PMU_CTL0_LVDEN;
  81              		.loc 1 74 14
  82 003a B7770040 		li	a5,1073770496
  83 003e 9843     		lw	a4,0(a5)
  84 0040 B7770040 		li	a5,1073770496
  85 0044 13670701 		ori	a4,a4,16
  86 0048 98C3     		sw	a4,0(a5)
  75:../Firmware/GD32VW55x_standard_peripheral/Source/gd32vw55x_pmu.c **** }
  87              		.loc 1 75 1
  88 004a 0100     		nop
  89 004c 7244     		lw	s0,28(sp)
  90              		.cfi_restore 8
  91              		.cfi_def_cfa 2, 32
  92 004e 0561     		addi	sp,sp,32
  93              		.cfi_def_cfa_offset 0
  94 0050 8280     		jr	ra
  95              		.cfi_endproc
  96              	.LFE348:
  98              		.section	.text.pmu_lvd_enable,"ax",@progbits
  99              		.align	1
 100              		.globl	pmu_lvd_enable
 102              	pmu_lvd_enable:
 103              	.LFB349:
  76:../Firmware/GD32VW55x_standard_peripheral/Source/gd32vw55x_pmu.c **** 
  77:../Firmware/GD32VW55x_standard_peripheral/Source/gd32vw55x_pmu.c **** /*!
  78:../Firmware/GD32VW55x_standard_peripheral/Source/gd32vw55x_pmu.c ****     \brief      enable PMU LVD
  79:../Firmware/GD32VW55x_standard_peripheral/Source/gd32vw55x_pmu.c ****     \param[in]  none
  80:../Firmware/GD32VW55x_standard_peripheral/Source/gd32vw55x_pmu.c ****     \param[out] none
  81:../Firmware/GD32VW55x_standard_peripheral/Source/gd32vw55x_pmu.c ****     \retval     none
  82:../Firmware/GD32VW55x_standard_peripheral/Source/gd32vw55x_pmu.c **** */
  83:../Firmware/GD32VW55x_standard_peripheral/Source/gd32vw55x_pmu.c **** void pmu_lvd_enable(void)
  84:../Firmware/GD32VW55x_standard_peripheral/Source/gd32vw55x_pmu.c **** {
 104              		.loc 1 84 1
 105              		.cfi_startproc
 106 0000 4111     		addi	sp,sp,-16
 107              		.cfi_def_cfa_offset 16
 108 0002 22C6     		sw	s0,12(sp)
 109              		.cfi_offset 8, -4
 110 0004 0008     		addi	s0,sp,16
 111              		.cfi_def_cfa 8, 0
  85:../Firmware/GD32VW55x_standard_peripheral/Source/gd32vw55x_pmu.c ****     PMU_CTL0 |= PMU_CTL0_LVDEN;
 112              		.loc 1 85 14
 113 0006 B7770040 		li	a5,1073770496
 114 000a 9843     		lw	a4,0(a5)
 115 000c B7770040 		li	a5,1073770496
 116 0010 13670701 		ori	a4,a4,16
 117 0014 98C3     		sw	a4,0(a5)
  86:../Firmware/GD32VW55x_standard_peripheral/Source/gd32vw55x_pmu.c **** }
 118              		.loc 1 86 1
 119 0016 0100     		nop
 120 0018 3244     		lw	s0,12(sp)
 121              		.cfi_restore 8
 122              		.cfi_def_cfa 2, 16
 123 001a 4101     		addi	sp,sp,16
 124              		.cfi_def_cfa_offset 0
 125 001c 8280     		jr	ra
 126              		.cfi_endproc
 127              	.LFE349:
 129              		.section	.text.pmu_lvd_disable,"ax",@progbits
 130              		.align	1
 131              		.globl	pmu_lvd_disable
 133              	pmu_lvd_disable:
 134              	.LFB350:
  87:../Firmware/GD32VW55x_standard_peripheral/Source/gd32vw55x_pmu.c **** 
  88:../Firmware/GD32VW55x_standard_peripheral/Source/gd32vw55x_pmu.c **** /*!
  89:../Firmware/GD32VW55x_standard_peripheral/Source/gd32vw55x_pmu.c ****     \brief      disable PMU LVD
  90:../Firmware/GD32VW55x_standard_peripheral/Source/gd32vw55x_pmu.c ****     \param[in]  none
  91:../Firmware/GD32VW55x_standard_peripheral/Source/gd32vw55x_pmu.c ****     \param[out] none
  92:../Firmware/GD32VW55x_standard_peripheral/Source/gd32vw55x_pmu.c ****     \retval     none
  93:../Firmware/GD32VW55x_standard_peripheral/Source/gd32vw55x_pmu.c **** */
  94:../Firmware/GD32VW55x_standard_peripheral/Source/gd32vw55x_pmu.c **** void pmu_lvd_disable(void)
  95:../Firmware/GD32VW55x_standard_peripheral/Source/gd32vw55x_pmu.c **** {
 135              		.loc 1 95 1
 136              		.cfi_startproc
 137 0000 4111     		addi	sp,sp,-16
 138              		.cfi_def_cfa_offset 16
 139 0002 22C6     		sw	s0,12(sp)
 140              		.cfi_offset 8, -4
 141 0004 0008     		addi	s0,sp,16
 142              		.cfi_def_cfa 8, 0
  96:../Firmware/GD32VW55x_standard_peripheral/Source/gd32vw55x_pmu.c ****     PMU_CTL0 &= ~PMU_CTL0_LVDEN;
 143              		.loc 1 96 14
 144 0006 B7770040 		li	a5,1073770496
 145 000a 9843     		lw	a4,0(a5)
 146 000c B7770040 		li	a5,1073770496
 147 0010 3D9B     		andi	a4,a4,-17
 148 0012 98C3     		sw	a4,0(a5)
  97:../Firmware/GD32VW55x_standard_peripheral/Source/gd32vw55x_pmu.c **** }
 149              		.loc 1 97 1
 150 0014 0100     		nop
 151 0016 3244     		lw	s0,12(sp)
 152              		.cfi_restore 8
 153              		.cfi_def_cfa 2, 16
 154 0018 4101     		addi	sp,sp,16
 155              		.cfi_def_cfa_offset 0
 156 001a 8280     		jr	ra
 157              		.cfi_endproc
 158              	.LFE350:
 160              		.section	.text.pmu_backup_write_enable,"ax",@progbits
 161              		.align	1
 162              		.globl	pmu_backup_write_enable
 164              	pmu_backup_write_enable:
 165              	.LFB351:
  98:../Firmware/GD32VW55x_standard_peripheral/Source/gd32vw55x_pmu.c **** 
  99:../Firmware/GD32VW55x_standard_peripheral/Source/gd32vw55x_pmu.c **** /*!
 100:../Firmware/GD32VW55x_standard_peripheral/Source/gd32vw55x_pmu.c ****     \brief      enable write access to the registers in backup domain
 101:../Firmware/GD32VW55x_standard_peripheral/Source/gd32vw55x_pmu.c ****     \param[in]  none
 102:../Firmware/GD32VW55x_standard_peripheral/Source/gd32vw55x_pmu.c ****     \param[out] none
 103:../Firmware/GD32VW55x_standard_peripheral/Source/gd32vw55x_pmu.c ****     \retval     none
 104:../Firmware/GD32VW55x_standard_peripheral/Source/gd32vw55x_pmu.c **** */
 105:../Firmware/GD32VW55x_standard_peripheral/Source/gd32vw55x_pmu.c **** void pmu_backup_write_enable(void)
 106:../Firmware/GD32VW55x_standard_peripheral/Source/gd32vw55x_pmu.c **** {
 166              		.loc 1 106 1
 167              		.cfi_startproc
 168 0000 4111     		addi	sp,sp,-16
 169              		.cfi_def_cfa_offset 16
 170 0002 22C6     		sw	s0,12(sp)
 171              		.cfi_offset 8, -4
 172 0004 0008     		addi	s0,sp,16
 173              		.cfi_def_cfa 8, 0
 107:../Firmware/GD32VW55x_standard_peripheral/Source/gd32vw55x_pmu.c ****     PMU_CTL0 |= PMU_CTL0_BKPWEN;
 174              		.loc 1 107 14
 175 0006 B7770040 		li	a5,1073770496
 176 000a 9843     		lw	a4,0(a5)
 177 000c B7770040 		li	a5,1073770496
 178 0010 13670710 		ori	a4,a4,256
 179 0014 98C3     		sw	a4,0(a5)
 108:../Firmware/GD32VW55x_standard_peripheral/Source/gd32vw55x_pmu.c **** }
 180              		.loc 1 108 1
 181 0016 0100     		nop
 182 0018 3244     		lw	s0,12(sp)
 183              		.cfi_restore 8
 184              		.cfi_def_cfa 2, 16
 185 001a 4101     		addi	sp,sp,16
 186              		.cfi_def_cfa_offset 0
 187 001c 8280     		jr	ra
 188              		.cfi_endproc
 189              	.LFE351:
 191              		.section	.text.pmu_backup_write_disable,"ax",@progbits
 192              		.align	1
 193              		.globl	pmu_backup_write_disable
 195              	pmu_backup_write_disable:
 196              	.LFB352:
 109:../Firmware/GD32VW55x_standard_peripheral/Source/gd32vw55x_pmu.c **** 
 110:../Firmware/GD32VW55x_standard_peripheral/Source/gd32vw55x_pmu.c **** /*!
 111:../Firmware/GD32VW55x_standard_peripheral/Source/gd32vw55x_pmu.c ****     \brief      disable write access to the registers in backup domain
 112:../Firmware/GD32VW55x_standard_peripheral/Source/gd32vw55x_pmu.c ****     \param[in]  none
 113:../Firmware/GD32VW55x_standard_peripheral/Source/gd32vw55x_pmu.c ****     \param[out] none
 114:../Firmware/GD32VW55x_standard_peripheral/Source/gd32vw55x_pmu.c ****     \retval     none
 115:../Firmware/GD32VW55x_standard_peripheral/Source/gd32vw55x_pmu.c **** */
 116:../Firmware/GD32VW55x_standard_peripheral/Source/gd32vw55x_pmu.c **** void pmu_backup_write_disable(void)
 117:../Firmware/GD32VW55x_standard_peripheral/Source/gd32vw55x_pmu.c **** {
 197              		.loc 1 117 1
 198              		.cfi_startproc
 199 0000 4111     		addi	sp,sp,-16
 200              		.cfi_def_cfa_offset 16
 201 0002 22C6     		sw	s0,12(sp)
 202              		.cfi_offset 8, -4
 203 0004 0008     		addi	s0,sp,16
 204              		.cfi_def_cfa 8, 0
 118:../Firmware/GD32VW55x_standard_peripheral/Source/gd32vw55x_pmu.c ****     PMU_CTL0 &= ~PMU_CTL0_BKPWEN;
 205              		.loc 1 118 14
 206 0006 B7770040 		li	a5,1073770496
 207 000a 9843     		lw	a4,0(a5)
 208 000c B7770040 		li	a5,1073770496
 209 0010 1377F7EF 		andi	a4,a4,-257
 210 0014 98C3     		sw	a4,0(a5)
 119:../Firmware/GD32VW55x_standard_peripheral/Source/gd32vw55x_pmu.c **** }
 211              		.loc 1 119 1
 212 0016 0100     		nop
 213 0018 3244     		lw	s0,12(sp)
 214              		.cfi_restore 8
 215              		.cfi_def_cfa 2, 16
 216 001a 4101     		addi	sp,sp,16
 217              		.cfi_def_cfa_offset 0
 218 001c 8280     		jr	ra
 219              		.cfi_endproc
 220              	.LFE352:
 222              		.section	.text.pmu_to_sleepmode,"ax",@progbits
 223              		.align	1
 224              		.globl	pmu_to_sleepmode
 226              	pmu_to_sleepmode:
 227              	.LFB353:
 120:../Firmware/GD32VW55x_standard_peripheral/Source/gd32vw55x_pmu.c **** 
 121:../Firmware/GD32VW55x_standard_peripheral/Source/gd32vw55x_pmu.c **** 
 122:../Firmware/GD32VW55x_standard_peripheral/Source/gd32vw55x_pmu.c **** /*!
 123:../Firmware/GD32VW55x_standard_peripheral/Source/gd32vw55x_pmu.c ****     \brief      PMU work in sleep mode
 124:../Firmware/GD32VW55x_standard_peripheral/Source/gd32vw55x_pmu.c ****     \param[in]  sleepmodecmd:
 125:../Firmware/GD32VW55x_standard_peripheral/Source/gd32vw55x_pmu.c ****                 only one parameter can be selected which is shown as below:
 126:../Firmware/GD32VW55x_standard_peripheral/Source/gd32vw55x_pmu.c ****       \arg        WFI_CMD: use WFI command
 127:../Firmware/GD32VW55x_standard_peripheral/Source/gd32vw55x_pmu.c ****       \arg        WFE_CMD: use WFE command
 128:../Firmware/GD32VW55x_standard_peripheral/Source/gd32vw55x_pmu.c ****     \param[out] none
 129:../Firmware/GD32VW55x_standard_peripheral/Source/gd32vw55x_pmu.c ****     \retval     none
 130:../Firmware/GD32VW55x_standard_peripheral/Source/gd32vw55x_pmu.c **** */
 131:../Firmware/GD32VW55x_standard_peripheral/Source/gd32vw55x_pmu.c **** void pmu_to_sleepmode(uint8_t sleepmodecmd)
 132:../Firmware/GD32VW55x_standard_peripheral/Source/gd32vw55x_pmu.c **** {
 228              		.loc 1 132 1
 229              		.cfi_startproc
 230 0000 7971     		addi	sp,sp,-48
 231              		.cfi_def_cfa_offset 48
 232 0002 22D6     		sw	s0,44(sp)
 233 0004 26D4     		sw	s1,40(sp)
 234              		.cfi_offset 8, -4
 235              		.cfi_offset 9, -8
 236 0006 0018     		addi	s0,sp,48
 237              		.cfi_def_cfa 8, 0
 238 0008 AA87     		mv	a5,a0
 239 000a A30FF4FC 		sb	a5,-33(s0)
 240 000e 232604FE 		sw	zero,-20(s0)
 241              	.LBB53:
 242              	.LBB54:
 243              	.LBB55:
 244              		.file 2 "../Firmware/RISCV/drivers/core_feature_base.h"
   1:../Firmware/RISCV/drivers/core_feature_base.h **** /*
   2:../Firmware/RISCV/drivers/core_feature_base.h ****  * Copyright (c) 2019 Nuclei Limited. All rights reserved.
   3:../Firmware/RISCV/drivers/core_feature_base.h ****  *
   4:../Firmware/RISCV/drivers/core_feature_base.h ****  * SPDX-License-Identifier: Apache-2.0
   5:../Firmware/RISCV/drivers/core_feature_base.h ****  *
   6:../Firmware/RISCV/drivers/core_feature_base.h ****  * Licensed under the Apache License, Version 2.0 (the License); you may
   7:../Firmware/RISCV/drivers/core_feature_base.h ****  * not use this file except in compliance with the License.
   8:../Firmware/RISCV/drivers/core_feature_base.h ****  * You may obtain a copy of the License at
   9:../Firmware/RISCV/drivers/core_feature_base.h ****  *
  10:../Firmware/RISCV/drivers/core_feature_base.h ****  * www.apache.org/licenses/LICENSE-2.0
  11:../Firmware/RISCV/drivers/core_feature_base.h ****  *
  12:../Firmware/RISCV/drivers/core_feature_base.h ****  * Unless required by applicable law or agreed to in writing, software
  13:../Firmware/RISCV/drivers/core_feature_base.h ****  * distributed under the License is distributed on an AS IS BASIS, WITHOUT
  14:../Firmware/RISCV/drivers/core_feature_base.h ****  * WARRANTIES OR CONDITIONS OF ANY KIND, either express or implied.
  15:../Firmware/RISCV/drivers/core_feature_base.h ****  * See the License for the specific language governing permissions and
  16:../Firmware/RISCV/drivers/core_feature_base.h ****  * limitations under the License.
  17:../Firmware/RISCV/drivers/core_feature_base.h ****  */
  18:../Firmware/RISCV/drivers/core_feature_base.h **** 
  19:../Firmware/RISCV/drivers/core_feature_base.h **** #ifndef __CORE_FEATURE_BASE__
  20:../Firmware/RISCV/drivers/core_feature_base.h **** #define __CORE_FEATURE_BASE__
  21:../Firmware/RISCV/drivers/core_feature_base.h **** /*!
  22:../Firmware/RISCV/drivers/core_feature_base.h ****  * @file     core_feature_base.h
  23:../Firmware/RISCV/drivers/core_feature_base.h ****  * @brief    Base core feature API for Nuclei N/NX Core
  24:../Firmware/RISCV/drivers/core_feature_base.h ****  */
  25:../Firmware/RISCV/drivers/core_feature_base.h **** #include <stdint.h>
  26:../Firmware/RISCV/drivers/core_feature_base.h **** #include "riscv_encoding.h"
  27:../Firmware/RISCV/drivers/core_feature_base.h **** 
  28:../Firmware/RISCV/drivers/core_feature_base.h **** #ifdef __cplusplus
  29:../Firmware/RISCV/drivers/core_feature_base.h ****  extern "C" {
  30:../Firmware/RISCV/drivers/core_feature_base.h **** #endif
  31:../Firmware/RISCV/drivers/core_feature_base.h **** 
  32:../Firmware/RISCV/drivers/core_feature_base.h **** /**
  33:../Firmware/RISCV/drivers/core_feature_base.h ****  * \defgroup NMSIS_Core_Registers     Register Define and Type Definitions
  34:../Firmware/RISCV/drivers/core_feature_base.h ****  * \brief   Type definitions and defines for core registers.
  35:../Firmware/RISCV/drivers/core_feature_base.h ****  *
  36:../Firmware/RISCV/drivers/core_feature_base.h ****  * @{
  37:../Firmware/RISCV/drivers/core_feature_base.h ****  */
  38:../Firmware/RISCV/drivers/core_feature_base.h **** #ifndef __RISCV_XLEN
  39:../Firmware/RISCV/drivers/core_feature_base.h ****   /** \brief Refer to the width of an integer register in bits(either 32 or 64) */
  40:../Firmware/RISCV/drivers/core_feature_base.h ****   #ifndef __riscv_xlen
  41:../Firmware/RISCV/drivers/core_feature_base.h ****     #define __RISCV_XLEN    32
  42:../Firmware/RISCV/drivers/core_feature_base.h ****   #else
  43:../Firmware/RISCV/drivers/core_feature_base.h ****     #define __RISCV_XLEN    __riscv_xlen
  44:../Firmware/RISCV/drivers/core_feature_base.h ****   #endif
  45:../Firmware/RISCV/drivers/core_feature_base.h **** #endif /* __RISCV_XLEN */
  46:../Firmware/RISCV/drivers/core_feature_base.h **** 
  47:../Firmware/RISCV/drivers/core_feature_base.h **** /** \brief Type of Control and Status Register(CSR), depends on the XLEN defined in RISC-V */
  48:../Firmware/RISCV/drivers/core_feature_base.h **** #if __RISCV_XLEN == 32
  49:../Firmware/RISCV/drivers/core_feature_base.h ****   typedef uint32_t rv_csr_t;
  50:../Firmware/RISCV/drivers/core_feature_base.h **** #elif __RISCV_XLEN == 64
  51:../Firmware/RISCV/drivers/core_feature_base.h ****   typedef uint64_t rv_csr_t;
  52:../Firmware/RISCV/drivers/core_feature_base.h **** #else
  53:../Firmware/RISCV/drivers/core_feature_base.h ****   typedef uint32_t rv_csr_t;
  54:../Firmware/RISCV/drivers/core_feature_base.h **** #endif
  55:../Firmware/RISCV/drivers/core_feature_base.h **** /** @} */ /* End of Doxygen Group NMSIS_Core_Registers */
  56:../Firmware/RISCV/drivers/core_feature_base.h **** /**
  57:../Firmware/RISCV/drivers/core_feature_base.h ****  * \defgroup NMSIS_Core_Base_Registers     Base Register Define and Type Definitions
  58:../Firmware/RISCV/drivers/core_feature_base.h ****  * \ingroup NMSIS_Core_Registers
  59:../Firmware/RISCV/drivers/core_feature_base.h ****  * \brief   Type definitions and defines for base core registers.
  60:../Firmware/RISCV/drivers/core_feature_base.h ****  *
  61:../Firmware/RISCV/drivers/core_feature_base.h ****  * @{
  62:../Firmware/RISCV/drivers/core_feature_base.h ****  */
  63:../Firmware/RISCV/drivers/core_feature_base.h **** /**
  64:../Firmware/RISCV/drivers/core_feature_base.h ****  * \brief  Union type to access MISA CSR register.
  65:../Firmware/RISCV/drivers/core_feature_base.h ****  */
  66:../Firmware/RISCV/drivers/core_feature_base.h **** typedef union {
  67:../Firmware/RISCV/drivers/core_feature_base.h ****     struct {
  68:../Firmware/RISCV/drivers/core_feature_base.h ****         rv_csr_t a:1;                           /*!< bit:     0  Atomic extension */
  69:../Firmware/RISCV/drivers/core_feature_base.h ****         rv_csr_t b:1;                           /*!< bit:     1  Tentatively reserved for Bit-Manip
  70:../Firmware/RISCV/drivers/core_feature_base.h ****         rv_csr_t c:1;                           /*!< bit:     2  Compressed extension */
  71:../Firmware/RISCV/drivers/core_feature_base.h ****         rv_csr_t d:1;                           /*!< bit:     3  Double-precision floating-point ex
  72:../Firmware/RISCV/drivers/core_feature_base.h ****         rv_csr_t e:1;                           /*!< bit:     4  RV32E base ISA */
  73:../Firmware/RISCV/drivers/core_feature_base.h ****         rv_csr_t f:1;                           /*!< bit:     5  Single-precision floating-point ex
  74:../Firmware/RISCV/drivers/core_feature_base.h ****         rv_csr_t g:1;                           /*!< bit:     6  Additional standard extensions pre
  75:../Firmware/RISCV/drivers/core_feature_base.h ****         rv_csr_t h:1;                           /*!< bit:     7  Hypervisor extension */
  76:../Firmware/RISCV/drivers/core_feature_base.h ****         rv_csr_t i:1;                           /*!< bit:     8  RV32I/64I/128I base ISA */
  77:../Firmware/RISCV/drivers/core_feature_base.h ****         rv_csr_t j:1;                           /*!< bit:     9  Tentatively reserved for Dynamical
  78:../Firmware/RISCV/drivers/core_feature_base.h ****         rv_csr_t _reserved1:1;                  /*!< bit:     10 Reserved  */
  79:../Firmware/RISCV/drivers/core_feature_base.h ****         rv_csr_t l:1;                           /*!< bit:     11 Tentatively reserved for Decimal F
  80:../Firmware/RISCV/drivers/core_feature_base.h ****         rv_csr_t m:1;                           /*!< bit:     12 Integer Multiply/Divide extension 
  81:../Firmware/RISCV/drivers/core_feature_base.h ****         rv_csr_t n:1;                           /*!< bit:     13 User-level interrupts supported  *
  82:../Firmware/RISCV/drivers/core_feature_base.h ****         rv_csr_t _reserved2:1;                  /*!< bit:     14 Reserved  */
  83:../Firmware/RISCV/drivers/core_feature_base.h ****         rv_csr_t p:1;                           /*!< bit:     15 Tentatively reserved for Packed-SI
  84:../Firmware/RISCV/drivers/core_feature_base.h ****         rv_csr_t q:1;                           /*!< bit:     16 Quad-precision floating-point exte
  85:../Firmware/RISCV/drivers/core_feature_base.h ****         rv_csr_t _resreved3:1;                  /*!< bit:     17 Reserved  */
  86:../Firmware/RISCV/drivers/core_feature_base.h ****         rv_csr_t s:1;                           /*!< bit:     18 Supervisor mode implemented  */
  87:../Firmware/RISCV/drivers/core_feature_base.h ****         rv_csr_t t:1;                           /*!< bit:     19 Tentatively reserved for Transacti
  88:../Firmware/RISCV/drivers/core_feature_base.h ****         rv_csr_t u:1;                           /*!< bit:     20 User mode implemented  */
  89:../Firmware/RISCV/drivers/core_feature_base.h ****         rv_csr_t v:1;                           /*!< bit:     21 Tentatively reserved for Vector ex
  90:../Firmware/RISCV/drivers/core_feature_base.h ****         rv_csr_t _reserved4:1;                  /*!< bit:     22 Reserved  */
  91:../Firmware/RISCV/drivers/core_feature_base.h ****         rv_csr_t x:1;                           /*!< bit:     23 Non-standard extensions present  *
  92:../Firmware/RISCV/drivers/core_feature_base.h **** #if defined(__RISCV_XLEN) && __RISCV_XLEN == 64
  93:../Firmware/RISCV/drivers/core_feature_base.h ****         rv_csr_t _reserved5:38;                 /*!< bit:     24..61 Reserved  */
  94:../Firmware/RISCV/drivers/core_feature_base.h ****         rv_csr_t mxl:2;                         /*!< bit:     62..63 Machine XLEN  */
  95:../Firmware/RISCV/drivers/core_feature_base.h **** #else
  96:../Firmware/RISCV/drivers/core_feature_base.h ****         rv_csr_t _reserved5:6;                  /*!< bit:     24..29 Reserved  */
  97:../Firmware/RISCV/drivers/core_feature_base.h ****         rv_csr_t mxl:2;                         /*!< bit:     30..31 Machine XLEN  */
  98:../Firmware/RISCV/drivers/core_feature_base.h **** #endif
  99:../Firmware/RISCV/drivers/core_feature_base.h ****     } b;                                        /*!< Structure used for bit  access */
 100:../Firmware/RISCV/drivers/core_feature_base.h ****     rv_csr_t d;                                 /*!< Type      used for csr data access */
 101:../Firmware/RISCV/drivers/core_feature_base.h **** } CSR_MISA_Type;
 102:../Firmware/RISCV/drivers/core_feature_base.h **** 
 103:../Firmware/RISCV/drivers/core_feature_base.h **** /**
 104:../Firmware/RISCV/drivers/core_feature_base.h ****  * \brief  Union type to access MSTATUS CSR register.
 105:../Firmware/RISCV/drivers/core_feature_base.h ****  */
 106:../Firmware/RISCV/drivers/core_feature_base.h **** typedef union {
 107:../Firmware/RISCV/drivers/core_feature_base.h ****     struct {
 108:../Firmware/RISCV/drivers/core_feature_base.h **** #if defined(__RISCV_XLEN) && __RISCV_XLEN == 64
 109:../Firmware/RISCV/drivers/core_feature_base.h ****         rv_csr_t _reserved0:3;                  /*!< bit:     0..2  Reserved */
 110:../Firmware/RISCV/drivers/core_feature_base.h ****         rv_csr_t mie:1;                         /*!< bit:     3  Machine mode interrupt enable flag
 111:../Firmware/RISCV/drivers/core_feature_base.h ****         rv_csr_t _reserved1:3;                  /*!< bit:     4..6  Reserved */
 112:../Firmware/RISCV/drivers/core_feature_base.h ****         rv_csr_t mpie:1;                        /*!< bit:     7  mirror of MIE flag */
 113:../Firmware/RISCV/drivers/core_feature_base.h ****         rv_csr_t _reserved2:3;                  /*!< bit:     8..10  Reserved */
 114:../Firmware/RISCV/drivers/core_feature_base.h ****         rv_csr_t mpp:2;                         /*!< bit:     11..12 mirror of Privilege Mode */
 115:../Firmware/RISCV/drivers/core_feature_base.h ****         rv_csr_t fs:2;                          /*!< bit:     13..14 FS status flag */
 116:../Firmware/RISCV/drivers/core_feature_base.h ****         rv_csr_t xs:2;                          /*!< bit:     15..16 XS status flag */
 117:../Firmware/RISCV/drivers/core_feature_base.h ****         rv_csr_t mprv:1;                        /*!< bit:     Machine mode PMP */
 118:../Firmware/RISCV/drivers/core_feature_base.h ****         rv_csr_t _reserved3:14;                 /*!< bit:     18..31 Reserved */
 119:../Firmware/RISCV/drivers/core_feature_base.h ****         rv_csr_t uxl:2;                         /*!< bit:     32..33 user mode xlen */
 120:../Firmware/RISCV/drivers/core_feature_base.h ****         rv_csr_t _reserved6:29;                 /*!< bit:     34..62 Reserved  */
 121:../Firmware/RISCV/drivers/core_feature_base.h ****         rv_csr_t sd:1;                          /*!< bit:     Dirty status for XS or FS */
 122:../Firmware/RISCV/drivers/core_feature_base.h **** #else
 123:../Firmware/RISCV/drivers/core_feature_base.h ****         rv_csr_t _reserved0:1;                  /*!< bit:     0  Reserved */
 124:../Firmware/RISCV/drivers/core_feature_base.h ****         rv_csr_t sie:1;                         /*!< bit:     1  supervisor interrupt enable flag *
 125:../Firmware/RISCV/drivers/core_feature_base.h ****         rv_csr_t _reserved1:1;                  /*!< bit:     2  Reserved */
 126:../Firmware/RISCV/drivers/core_feature_base.h ****         rv_csr_t mie:1;                         /*!< bit:     3  Machine mode interrupt enable flag
 127:../Firmware/RISCV/drivers/core_feature_base.h ****         rv_csr_t _reserved2:1;                  /*!< bit:     4  Reserved */
 128:../Firmware/RISCV/drivers/core_feature_base.h ****         rv_csr_t spie:1;                        /*!< bit:     3  Supervisor Privilede mode interrup
 129:../Firmware/RISCV/drivers/core_feature_base.h ****         rv_csr_t _reserved3:1;                  /*!< bit:     Reserved */
 130:../Firmware/RISCV/drivers/core_feature_base.h ****         rv_csr_t mpie:1;                        /*!< bit:     mirror of MIE flag */
 131:../Firmware/RISCV/drivers/core_feature_base.h ****         rv_csr_t _reserved4:3;                  /*!< bit:     Reserved */
 132:../Firmware/RISCV/drivers/core_feature_base.h ****         rv_csr_t mpp:2;                         /*!< bit:     mirror of Privilege Mode */
 133:../Firmware/RISCV/drivers/core_feature_base.h ****         rv_csr_t fs:2;                          /*!< bit:     FS status flag */
 134:../Firmware/RISCV/drivers/core_feature_base.h ****         rv_csr_t xs:2;                          /*!< bit:     XS status flag */
 135:../Firmware/RISCV/drivers/core_feature_base.h ****         rv_csr_t mprv:1;                        /*!< bit:     Machine mode PMP */
 136:../Firmware/RISCV/drivers/core_feature_base.h ****         rv_csr_t sum:1;                         /*!< bit:     Supervisor Mode load and store protec
 137:../Firmware/RISCV/drivers/core_feature_base.h ****         rv_csr_t _reserved6:12;                 /*!< bit:     19..30 Reserved  */
 138:../Firmware/RISCV/drivers/core_feature_base.h ****         rv_csr_t sd:1;                          /*!< bit:     Dirty status for XS or FS */
 139:../Firmware/RISCV/drivers/core_feature_base.h **** #endif
 140:../Firmware/RISCV/drivers/core_feature_base.h ****     } b;                                        /*!< Structure used for bit  access */
 141:../Firmware/RISCV/drivers/core_feature_base.h ****     rv_csr_t d;                                 /*!< Type      used for csr data access */
 142:../Firmware/RISCV/drivers/core_feature_base.h **** } CSR_MSTATUS_Type;
 143:../Firmware/RISCV/drivers/core_feature_base.h **** 
 144:../Firmware/RISCV/drivers/core_feature_base.h **** /**
 145:../Firmware/RISCV/drivers/core_feature_base.h ****  * \brief  Union type to access MTVEC CSR register.
 146:../Firmware/RISCV/drivers/core_feature_base.h ****  */
 147:../Firmware/RISCV/drivers/core_feature_base.h **** typedef union {
 148:../Firmware/RISCV/drivers/core_feature_base.h ****     struct {
 149:../Firmware/RISCV/drivers/core_feature_base.h ****         rv_csr_t mode:6;                        /*!< bit:     0..5   interrupt mode control */
 150:../Firmware/RISCV/drivers/core_feature_base.h **** #if defined(__RISCV_XLEN) && __RISCV_XLEN == 64
 151:../Firmware/RISCV/drivers/core_feature_base.h ****         rv_csr_t addr:58;                       /*!< bit:     6..63  mtvec address */
 152:../Firmware/RISCV/drivers/core_feature_base.h **** #else
 153:../Firmware/RISCV/drivers/core_feature_base.h ****         rv_csr_t addr:26;                       /*!< bit:     6..31  mtvec address */
 154:../Firmware/RISCV/drivers/core_feature_base.h **** #endif
 155:../Firmware/RISCV/drivers/core_feature_base.h ****     } b;                                        /*!< Structure used for bit  access */
 156:../Firmware/RISCV/drivers/core_feature_base.h ****     rv_csr_t d;                                 /*!< Type      used for csr data access */
 157:../Firmware/RISCV/drivers/core_feature_base.h **** } CSR_MTVEC_Type;
 158:../Firmware/RISCV/drivers/core_feature_base.h **** 
 159:../Firmware/RISCV/drivers/core_feature_base.h **** /**
 160:../Firmware/RISCV/drivers/core_feature_base.h ****  * \brief  Union type to access MCAUSE CSR register.
 161:../Firmware/RISCV/drivers/core_feature_base.h ****  */
 162:../Firmware/RISCV/drivers/core_feature_base.h **** typedef union {
 163:../Firmware/RISCV/drivers/core_feature_base.h ****     struct {
 164:../Firmware/RISCV/drivers/core_feature_base.h ****         rv_csr_t exccode:12;                    /*!< bit:     11..0  exception or interrupt code */
 165:../Firmware/RISCV/drivers/core_feature_base.h ****         rv_csr_t _reserved0:4;                  /*!< bit:     15..12  Reserved */
 166:../Firmware/RISCV/drivers/core_feature_base.h ****         rv_csr_t mpil:8;                        /*!< bit:     23..16  Previous interrupt level */
 167:../Firmware/RISCV/drivers/core_feature_base.h ****         rv_csr_t _reserved1:3;                  /*!< bit:     26..24  Reserved */
 168:../Firmware/RISCV/drivers/core_feature_base.h ****         rv_csr_t mpie:1;                        /*!< bit:     27  Interrupt enable flag before ente
 169:../Firmware/RISCV/drivers/core_feature_base.h ****         rv_csr_t mpp:2;                         /*!< bit:     29..28  Privilede mode flag before en
 170:../Firmware/RISCV/drivers/core_feature_base.h ****         rv_csr_t minhv:1;                       /*!< bit:     30  Machine interrupt vector table */
 171:../Firmware/RISCV/drivers/core_feature_base.h **** #if defined(__RISCV_XLEN) && __RISCV_XLEN == 64
 172:../Firmware/RISCV/drivers/core_feature_base.h ****         rv_csr_t _reserved2:32;                 /*!< bit:     31..62  Reserved */
 173:../Firmware/RISCV/drivers/core_feature_base.h ****         rv_csr_t interrupt:1;                   /*!< bit:     63  trap type. 0 means exception and 
 174:../Firmware/RISCV/drivers/core_feature_base.h **** #else
 175:../Firmware/RISCV/drivers/core_feature_base.h ****         rv_csr_t interrupt:1;                   /*!< bit:     31  trap type. 0 means exception and 
 176:../Firmware/RISCV/drivers/core_feature_base.h **** #endif
 177:../Firmware/RISCV/drivers/core_feature_base.h ****     } b;                                        /*!< Structure used for bit  access */
 178:../Firmware/RISCV/drivers/core_feature_base.h ****     rv_csr_t d;                                 /*!< Type      used for csr data access */
 179:../Firmware/RISCV/drivers/core_feature_base.h **** } CSR_MCAUSE_Type;
 180:../Firmware/RISCV/drivers/core_feature_base.h **** 
 181:../Firmware/RISCV/drivers/core_feature_base.h **** /**
 182:../Firmware/RISCV/drivers/core_feature_base.h ****  * \brief  Union type to access MCOUNTINHIBIT CSR register.
 183:../Firmware/RISCV/drivers/core_feature_base.h ****  */
 184:../Firmware/RISCV/drivers/core_feature_base.h **** typedef union {
 185:../Firmware/RISCV/drivers/core_feature_base.h ****     struct {
 186:../Firmware/RISCV/drivers/core_feature_base.h ****         rv_csr_t cy:1;                          /*!< bit:     0     1 means disable mcycle counter 
 187:../Firmware/RISCV/drivers/core_feature_base.h ****         rv_csr_t _reserved0:1;                  /*!< bit:     1     Reserved */
 188:../Firmware/RISCV/drivers/core_feature_base.h ****         rv_csr_t ir:1;                          /*!< bit:     2     1 means disable minstret counte
 189:../Firmware/RISCV/drivers/core_feature_base.h **** #if defined(__RISCV_XLEN) && __RISCV_XLEN == 64
 190:../Firmware/RISCV/drivers/core_feature_base.h ****         rv_csr_t _reserved1:61;                 /*!< bit:     3..63 Reserved */
 191:../Firmware/RISCV/drivers/core_feature_base.h **** #else
 192:../Firmware/RISCV/drivers/core_feature_base.h ****         rv_csr_t _reserved1:29;                 /*!< bit:     3..31 Reserved */
 193:../Firmware/RISCV/drivers/core_feature_base.h **** #endif
 194:../Firmware/RISCV/drivers/core_feature_base.h ****     } b;                                        /*!< Structure used for bit  access */
 195:../Firmware/RISCV/drivers/core_feature_base.h ****     rv_csr_t d;                                 /*!< Type      used for csr data access */
 196:../Firmware/RISCV/drivers/core_feature_base.h **** } CSR_MCOUNTINHIBIT_Type;
 197:../Firmware/RISCV/drivers/core_feature_base.h **** 
 198:../Firmware/RISCV/drivers/core_feature_base.h **** /**
 199:../Firmware/RISCV/drivers/core_feature_base.h ****  * \brief  Union type to access MSUBM CSR register.
 200:../Firmware/RISCV/drivers/core_feature_base.h ****  */
 201:../Firmware/RISCV/drivers/core_feature_base.h **** typedef union {
 202:../Firmware/RISCV/drivers/core_feature_base.h ****     struct {
 203:../Firmware/RISCV/drivers/core_feature_base.h ****         rv_csr_t _reserved0:6;                  /*!< bit:     0..5   Reserved */
 204:../Firmware/RISCV/drivers/core_feature_base.h ****         rv_csr_t typ:2;                         /*!< bit:     6..7   current trap type */
 205:../Firmware/RISCV/drivers/core_feature_base.h ****         rv_csr_t ptyp:2;                        /*!< bit:     8..9   previous trap type */
 206:../Firmware/RISCV/drivers/core_feature_base.h **** #if defined(__RISCV_XLEN) && __RISCV_XLEN == 64
 207:../Firmware/RISCV/drivers/core_feature_base.h ****         rv_csr_t _reserved1:54;                 /*!< bit:     10..63 Reserved */
 208:../Firmware/RISCV/drivers/core_feature_base.h **** #else
 209:../Firmware/RISCV/drivers/core_feature_base.h ****         rv_csr_t _reserved1:22;                 /*!< bit:     10..31 Reserved */
 210:../Firmware/RISCV/drivers/core_feature_base.h **** #endif
 211:../Firmware/RISCV/drivers/core_feature_base.h ****     } b;                                        /*!< Structure used for bit  access */
 212:../Firmware/RISCV/drivers/core_feature_base.h ****     rv_csr_t d;                                 /*!< Type      used for csr data access */
 213:../Firmware/RISCV/drivers/core_feature_base.h **** } CSR_MSUBM_Type;
 214:../Firmware/RISCV/drivers/core_feature_base.h **** 
 215:../Firmware/RISCV/drivers/core_feature_base.h **** /**
 216:../Firmware/RISCV/drivers/core_feature_base.h ****  * \brief  Union type to access MDCAUSE CSR register.
 217:../Firmware/RISCV/drivers/core_feature_base.h ****  */
 218:../Firmware/RISCV/drivers/core_feature_base.h **** typedef union {
 219:../Firmware/RISCV/drivers/core_feature_base.h ****     struct {
 220:../Firmware/RISCV/drivers/core_feature_base.h ****         rv_csr_t mdcause:2;                     /*!< bit:     0..1   More detailed exception inform
 221:../Firmware/RISCV/drivers/core_feature_base.h ****         rv_csr_t _reserved0:__RISCV_XLEN-2;     /*!< bit:     2..XLEN-1 Reserved */
 222:../Firmware/RISCV/drivers/core_feature_base.h ****     } b;                                        /*!< Structure used for bit  access */
 223:../Firmware/RISCV/drivers/core_feature_base.h ****     rv_csr_t d;                                 /*!< Type      used for csr data access */
 224:../Firmware/RISCV/drivers/core_feature_base.h **** } CSR_MDCAUSE_Type;
 225:../Firmware/RISCV/drivers/core_feature_base.h **** 
 226:../Firmware/RISCV/drivers/core_feature_base.h **** /**
 227:../Firmware/RISCV/drivers/core_feature_base.h ****  * \brief  Union type to access MMISC_CTRL CSR register.
 228:../Firmware/RISCV/drivers/core_feature_base.h ****  */
 229:../Firmware/RISCV/drivers/core_feature_base.h **** typedef union {
 230:../Firmware/RISCV/drivers/core_feature_base.h ****     struct {
 231:../Firmware/RISCV/drivers/core_feature_base.h ****         rv_csr_t _reserved0:3;                  /*!< bit:     0..2  Reserved */
 232:../Firmware/RISCV/drivers/core_feature_base.h ****         rv_csr_t bpu:1;                         /*!< bit:     3     dynamic prediction enable flag 
 233:../Firmware/RISCV/drivers/core_feature_base.h ****         rv_csr_t _reserved1:2;                  /*!< bit:     4..5  Reserved */
 234:../Firmware/RISCV/drivers/core_feature_base.h ****         rv_csr_t misalign:1;                    /*!< bit:     6     misaligned access support flag 
 235:../Firmware/RISCV/drivers/core_feature_base.h ****         rv_csr_t _reserved2:2;                  /*!< bit:     7..8  Reserved */
 236:../Firmware/RISCV/drivers/core_feature_base.h ****         rv_csr_t nmi_cause:1;                   /*!< bit:     9     mnvec control and nmi mcase exc
 237:../Firmware/RISCV/drivers/core_feature_base.h **** #if defined(__RISCV_XLEN) && __RISCV_XLEN == 64
 238:../Firmware/RISCV/drivers/core_feature_base.h ****         rv_csr_t _reserved3:54;                 /*!< bit:     10..63 Reserved */
 239:../Firmware/RISCV/drivers/core_feature_base.h **** #else
 240:../Firmware/RISCV/drivers/core_feature_base.h ****         rv_csr_t _reserved3:22;                 /*!< bit:     10..31 Reserved */
 241:../Firmware/RISCV/drivers/core_feature_base.h **** #endif
 242:../Firmware/RISCV/drivers/core_feature_base.h ****     } b;                                        /*!< Structure used for bit  access */
 243:../Firmware/RISCV/drivers/core_feature_base.h ****     rv_csr_t d;                                 /*!< Type      used for csr data access */
 244:../Firmware/RISCV/drivers/core_feature_base.h **** } CSR_MMISCCTRL_Type;
 245:../Firmware/RISCV/drivers/core_feature_base.h **** 
 246:../Firmware/RISCV/drivers/core_feature_base.h **** typedef CSR_MMISCCTRL_Type CSR_MMISCCTL_Type;
 247:../Firmware/RISCV/drivers/core_feature_base.h **** 
 248:../Firmware/RISCV/drivers/core_feature_base.h **** /**
 249:../Firmware/RISCV/drivers/core_feature_base.h ****  * \brief  Union type to access MCACHE_CTL CSR register.
 250:../Firmware/RISCV/drivers/core_feature_base.h ****  */
 251:../Firmware/RISCV/drivers/core_feature_base.h **** typedef union {
 252:../Firmware/RISCV/drivers/core_feature_base.h ****     struct {
 253:../Firmware/RISCV/drivers/core_feature_base.h ****         rv_csr_t ic_en:1;                       /*!< I-Cache enable */
 254:../Firmware/RISCV/drivers/core_feature_base.h ****         rv_csr_t ic_scpd_mod:1;                 /*!< Scratchpad mode, 0: Scratchpad as ICache Data 
 255:../Firmware/RISCV/drivers/core_feature_base.h ****         rv_csr_t ic_ecc_en:1;                   /*!< I-Cache ECC enable */
 256:../Firmware/RISCV/drivers/core_feature_base.h ****         rv_csr_t ic_ecc_excp_en:1;              /*!< I-Cache 2bit ECC error exception enable */
 257:../Firmware/RISCV/drivers/core_feature_base.h ****         rv_csr_t ic_rwtecc:1;                   /*!< Control I-Cache Tag Ram ECC code injection */
 258:../Firmware/RISCV/drivers/core_feature_base.h ****         rv_csr_t ic_rwdecc:1;                   /*!< Control I-Cache Data Ram ECC code injection */
 259:../Firmware/RISCV/drivers/core_feature_base.h ****         rv_csr_t _reserved0:10;
 260:../Firmware/RISCV/drivers/core_feature_base.h ****         rv_csr_t dc_en:1;                       /*!< DCache enable */
 261:../Firmware/RISCV/drivers/core_feature_base.h ****         rv_csr_t dc_ecc_en:1;                   /*!< D-Cache ECC enable */
 262:../Firmware/RISCV/drivers/core_feature_base.h ****         rv_csr_t dc_ecc_excp_en:1;              /*!< D-Cache 2bit ECC error exception enable */
 263:../Firmware/RISCV/drivers/core_feature_base.h ****         rv_csr_t dc_rwtecc:1;                   /*!< Control D-Cache Tag Ram ECC code injection */
 264:../Firmware/RISCV/drivers/core_feature_base.h ****         rv_csr_t dc_rwdecc:1;                   /*!< Control D-Cache Data Ram ECC code injection */
 265:../Firmware/RISCV/drivers/core_feature_base.h ****         rv_csr_t _reserved1:__RISCV_XLEN-21;
 266:../Firmware/RISCV/drivers/core_feature_base.h ****     } b;                                        /*!< Structure used for bit  access */
 267:../Firmware/RISCV/drivers/core_feature_base.h ****     rv_csr_t d;                                 /*!< Type      used for csr data access */
 268:../Firmware/RISCV/drivers/core_feature_base.h **** } CSR_MCACHECTL_Type;
 269:../Firmware/RISCV/drivers/core_feature_base.h **** 
 270:../Firmware/RISCV/drivers/core_feature_base.h **** /**
 271:../Firmware/RISCV/drivers/core_feature_base.h ****  * \brief  Union type to access MSAVESTATUS CSR register.
 272:../Firmware/RISCV/drivers/core_feature_base.h ****  */
 273:../Firmware/RISCV/drivers/core_feature_base.h **** typedef union {
 274:../Firmware/RISCV/drivers/core_feature_base.h ****     struct {
 275:../Firmware/RISCV/drivers/core_feature_base.h ****         rv_csr_t mpie1:1;                       /*!< bit:     0     interrupt enable flag of fisrt 
 276:../Firmware/RISCV/drivers/core_feature_base.h ****         rv_csr_t mpp1:2;                        /*!< bit:     1..2  privilede mode of fisrt level N
 277:../Firmware/RISCV/drivers/core_feature_base.h ****         rv_csr_t _reserved0:3;                  /*!< bit:     3..5  Reserved */
 278:../Firmware/RISCV/drivers/core_feature_base.h ****         rv_csr_t ptyp1:2;                       /*!< bit:     6..7  NMI/exception type of before fi
 279:../Firmware/RISCV/drivers/core_feature_base.h ****         rv_csr_t mpie2:1;                       /*!< bit:     8     interrupt enable flag of second
 280:../Firmware/RISCV/drivers/core_feature_base.h ****         rv_csr_t mpp2:2;                        /*!< bit:     9..10 privilede mode of second level 
 281:../Firmware/RISCV/drivers/core_feature_base.h ****         rv_csr_t _reserved1:3;                  /*!< bit:     11..13     Reserved */
 282:../Firmware/RISCV/drivers/core_feature_base.h ****         rv_csr_t ptyp2:2;                       /*!< bit:     14..15     NMI/exception type of befo
 283:../Firmware/RISCV/drivers/core_feature_base.h **** #if defined(__RISCV_XLEN) && __RISCV_XLEN == 64
 284:../Firmware/RISCV/drivers/core_feature_base.h ****         rv_csr_t _reserved2:48;                 /*!< bit:     16..63 Reserved*/
 285:../Firmware/RISCV/drivers/core_feature_base.h **** #else
 286:../Firmware/RISCV/drivers/core_feature_base.h ****         rv_csr_t _reserved2:16;                 /*!< bit:     16..31 Reserved*/
 287:../Firmware/RISCV/drivers/core_feature_base.h **** #endif
 288:../Firmware/RISCV/drivers/core_feature_base.h ****     } b;                                        /*!< Structure used for bit  access */
 289:../Firmware/RISCV/drivers/core_feature_base.h ****     rv_csr_t w;                                 /*!< Type      used for csr data access */
 290:../Firmware/RISCV/drivers/core_feature_base.h **** } CSR_MSAVESTATUS_Type;
 291:../Firmware/RISCV/drivers/core_feature_base.h **** 
 292:../Firmware/RISCV/drivers/core_feature_base.h **** /**
 293:../Firmware/RISCV/drivers/core_feature_base.h ****  * \brief  Union type to access MILM_CTL CSR register.
 294:../Firmware/RISCV/drivers/core_feature_base.h ****  */
 295:../Firmware/RISCV/drivers/core_feature_base.h **** typedef union {
 296:../Firmware/RISCV/drivers/core_feature_base.h ****     struct {
 297:../Firmware/RISCV/drivers/core_feature_base.h ****         rv_csr_t ilm_en:1;                      /*!< ILM enable */
 298:../Firmware/RISCV/drivers/core_feature_base.h ****         rv_csr_t ilm_ecc_en:1;                  /*!< ILM ECC eanble */
 299:../Firmware/RISCV/drivers/core_feature_base.h ****         rv_csr_t ilm_ecc_excp_en:1;             /*!< ILM ECC exception enable */
 300:../Firmware/RISCV/drivers/core_feature_base.h ****         rv_csr_t ilm_rwecc:1;                   /*!< Control mecc_code write to ilm, simulate error
 301:../Firmware/RISCV/drivers/core_feature_base.h ****         rv_csr_t _reserved0:6;                  /*!< Reserved */
 302:../Firmware/RISCV/drivers/core_feature_base.h ****         rv_csr_t ilm_bpa:__RISCV_XLEN-10;       /*!< ILM base address */
 303:../Firmware/RISCV/drivers/core_feature_base.h ****     } b;                                        /*!< Structure used for bit  access */
 304:../Firmware/RISCV/drivers/core_feature_base.h ****     rv_csr_t d;                                 /*!< Type      used for csr data access */
 305:../Firmware/RISCV/drivers/core_feature_base.h **** } CSR_MILMCTL_Type;
 306:../Firmware/RISCV/drivers/core_feature_base.h **** 
 307:../Firmware/RISCV/drivers/core_feature_base.h **** /**
 308:../Firmware/RISCV/drivers/core_feature_base.h ****  * \brief  Union type to access MDLM_CTL CSR register.
 309:../Firmware/RISCV/drivers/core_feature_base.h ****  */
 310:../Firmware/RISCV/drivers/core_feature_base.h **** typedef union {
 311:../Firmware/RISCV/drivers/core_feature_base.h ****     struct {
 312:../Firmware/RISCV/drivers/core_feature_base.h ****         rv_csr_t dlm_en:1;                      /*!< DLM enable */
 313:../Firmware/RISCV/drivers/core_feature_base.h ****         rv_csr_t dlm_ecc_en:1;                  /*!< DLM ECC eanble */
 314:../Firmware/RISCV/drivers/core_feature_base.h ****         rv_csr_t dlm_ecc_excp_en:1;             /*!< DLM ECC exception enable */
 315:../Firmware/RISCV/drivers/core_feature_base.h ****         rv_csr_t dlm_rwecc:1;                   /*!< Control mecc_code write to dlm, simulate error
 316:../Firmware/RISCV/drivers/core_feature_base.h ****         rv_csr_t _reserved0:6;                  /*!< Reserved */
 317:../Firmware/RISCV/drivers/core_feature_base.h ****         rv_csr_t dlm_bpa:__RISCV_XLEN-10;       /*!< DLM base address */
 318:../Firmware/RISCV/drivers/core_feature_base.h ****     } b;                                        /*!< Structure used for bit  access */
 319:../Firmware/RISCV/drivers/core_feature_base.h ****     rv_csr_t d;                                 /*!< Type      used for csr data access */
 320:../Firmware/RISCV/drivers/core_feature_base.h **** } CSR_MDLMCTL_Type;
 321:../Firmware/RISCV/drivers/core_feature_base.h **** 
 322:../Firmware/RISCV/drivers/core_feature_base.h **** /**
 323:../Firmware/RISCV/drivers/core_feature_base.h ****  * \brief  Union type to access MCFG_INFO CSR register.
 324:../Firmware/RISCV/drivers/core_feature_base.h ****  */
 325:../Firmware/RISCV/drivers/core_feature_base.h **** typedef union {
 326:../Firmware/RISCV/drivers/core_feature_base.h ****     struct {
 327:../Firmware/RISCV/drivers/core_feature_base.h ****         rv_csr_t tee:1;                         /*!< TEE present */
 328:../Firmware/RISCV/drivers/core_feature_base.h ****         rv_csr_t ecc:1;                         /*!< ECC present */
 329:../Firmware/RISCV/drivers/core_feature_base.h ****         rv_csr_t clic:1;                        /*!< CLIC present */
 330:../Firmware/RISCV/drivers/core_feature_base.h ****         rv_csr_t plic:1;                        /*!< PLIC present */
 331:../Firmware/RISCV/drivers/core_feature_base.h ****         rv_csr_t fio:1;                         /*!< FIO present */
 332:../Firmware/RISCV/drivers/core_feature_base.h ****         rv_csr_t ppi:1;                         /*!< PPI present */
 333:../Firmware/RISCV/drivers/core_feature_base.h ****         rv_csr_t nice:1;                        /*!< NICE present */
 334:../Firmware/RISCV/drivers/core_feature_base.h ****         rv_csr_t ilm:1;                         /*!< ILM present */
 335:../Firmware/RISCV/drivers/core_feature_base.h ****         rv_csr_t dlm:1;                         /*!< DLM present */
 336:../Firmware/RISCV/drivers/core_feature_base.h ****         rv_csr_t icache:1;                      /*!< ICache present */
 337:../Firmware/RISCV/drivers/core_feature_base.h ****         rv_csr_t dcache:1;                      /*!< DCache present */
 338:../Firmware/RISCV/drivers/core_feature_base.h ****         rv_csr_t _reserved0:__RISCV_XLEN-11;
 339:../Firmware/RISCV/drivers/core_feature_base.h ****     } b;                                        /*!< Structure used for bit  access */
 340:../Firmware/RISCV/drivers/core_feature_base.h ****     rv_csr_t d;                                 /*!< Type      used for csr data access */
 341:../Firmware/RISCV/drivers/core_feature_base.h **** } CSR_MCFGINFO_Type;
 342:../Firmware/RISCV/drivers/core_feature_base.h **** 
 343:../Firmware/RISCV/drivers/core_feature_base.h **** /**
 344:../Firmware/RISCV/drivers/core_feature_base.h ****  * \brief  Union type to access MICFG_INFO CSR register.
 345:../Firmware/RISCV/drivers/core_feature_base.h ****  */
 346:../Firmware/RISCV/drivers/core_feature_base.h **** typedef union {
 347:../Firmware/RISCV/drivers/core_feature_base.h ****     struct {
 348:../Firmware/RISCV/drivers/core_feature_base.h ****         rv_csr_t set:4;                         /*!< I-Cache sets per way */
 349:../Firmware/RISCV/drivers/core_feature_base.h ****         rv_csr_t way:3;                         /*!< I-Cache way */
 350:../Firmware/RISCV/drivers/core_feature_base.h ****         rv_csr_t lsize:3;                       /*!< I-Cache line size */
 351:../Firmware/RISCV/drivers/core_feature_base.h ****         rv_csr_t cache_ecc:1;                   /*!< I-Cache ECC present */
 352:../Firmware/RISCV/drivers/core_feature_base.h ****         rv_csr_t _reserved0:5;
 353:../Firmware/RISCV/drivers/core_feature_base.h ****         rv_csr_t lm_size:5;                     /*!< ILM size, need to be 2^n size */
 354:../Firmware/RISCV/drivers/core_feature_base.h ****         rv_csr_t lm_xonly:1;                    /*!< ILM Execute only permission */
 355:../Firmware/RISCV/drivers/core_feature_base.h ****         rv_csr_t lm_ecc:1;                      /*!< ILM ECC present */
 356:../Firmware/RISCV/drivers/core_feature_base.h ****         rv_csr_t _reserved1:__RISCV_XLEN-23;
 357:../Firmware/RISCV/drivers/core_feature_base.h ****     } b;                                        /*!< Structure used for bit  access */
 358:../Firmware/RISCV/drivers/core_feature_base.h ****     rv_csr_t d;                                 /*!< Type      used for csr data access */
 359:../Firmware/RISCV/drivers/core_feature_base.h **** } CSR_MICFGINFO_Type;
 360:../Firmware/RISCV/drivers/core_feature_base.h **** 
 361:../Firmware/RISCV/drivers/core_feature_base.h **** /**
 362:../Firmware/RISCV/drivers/core_feature_base.h ****  * \brief  Union type to access MDCFG_INFO CSR register.
 363:../Firmware/RISCV/drivers/core_feature_base.h ****  */
 364:../Firmware/RISCV/drivers/core_feature_base.h **** typedef union {
 365:../Firmware/RISCV/drivers/core_feature_base.h ****     struct {
 366:../Firmware/RISCV/drivers/core_feature_base.h ****         rv_csr_t set:4;                         /*!< D-Cache sets per way */
 367:../Firmware/RISCV/drivers/core_feature_base.h ****         rv_csr_t way:3;                         /*!< D-Cache way */
 368:../Firmware/RISCV/drivers/core_feature_base.h ****         rv_csr_t lsize:3;                       /*!< D-Cache line size */
 369:../Firmware/RISCV/drivers/core_feature_base.h ****         rv_csr_t cache_ecc:1;                   /*!< D-Cache ECC present */
 370:../Firmware/RISCV/drivers/core_feature_base.h ****         rv_csr_t _reserved0:5;
 371:../Firmware/RISCV/drivers/core_feature_base.h ****         rv_csr_t lm_size:5;                     /*!< DLM size, need to be 2^n size */
 372:../Firmware/RISCV/drivers/core_feature_base.h ****         rv_csr_t lm_xonly:1;                    /*!< DLM Execute only permission */
 373:../Firmware/RISCV/drivers/core_feature_base.h ****         rv_csr_t lm_ecc:1;                      /*!< DLM ECC present */
 374:../Firmware/RISCV/drivers/core_feature_base.h ****         rv_csr_t _reserved1:__RISCV_XLEN-23;
 375:../Firmware/RISCV/drivers/core_feature_base.h ****     } b;                                        /*!< Structure used for bit  access */
 376:../Firmware/RISCV/drivers/core_feature_base.h ****     rv_csr_t d;                                 /*!< Type      used for csr data access */
 377:../Firmware/RISCV/drivers/core_feature_base.h **** } CSR_MDCFGINFO_Type;
 378:../Firmware/RISCV/drivers/core_feature_base.h **** 
 379:../Firmware/RISCV/drivers/core_feature_base.h **** /**
 380:../Firmware/RISCV/drivers/core_feature_base.h ****  * \brief  Union type to access MPPICFG_INFO CSR register.
 381:../Firmware/RISCV/drivers/core_feature_base.h ****  */
 382:../Firmware/RISCV/drivers/core_feature_base.h **** typedef union {
 383:../Firmware/RISCV/drivers/core_feature_base.h ****     struct {
 384:../Firmware/RISCV/drivers/core_feature_base.h ****         rv_csr_t _reserved0:1;                  /*!< Reserved */
 385:../Firmware/RISCV/drivers/core_feature_base.h ****         rv_csr_t ppi_size:5;                    /*!< PPI size, need to be 2^n size */
 386:../Firmware/RISCV/drivers/core_feature_base.h ****         rv_csr_t _reserved1:4;                  /*!< Reserved */
 387:../Firmware/RISCV/drivers/core_feature_base.h ****         rv_csr_t ppi_bpa:__RISCV_XLEN-10;       /*!< PPI base address */
 388:../Firmware/RISCV/drivers/core_feature_base.h ****     } b;                                        /*!< Structure used for bit  access */
 389:../Firmware/RISCV/drivers/core_feature_base.h ****     rv_csr_t d;                                 /*!< Type      used for csr data access */
 390:../Firmware/RISCV/drivers/core_feature_base.h **** } CSR_MPPICFGINFO_Type;
 391:../Firmware/RISCV/drivers/core_feature_base.h **** 
 392:../Firmware/RISCV/drivers/core_feature_base.h **** /**
 393:../Firmware/RISCV/drivers/core_feature_base.h ****  * \brief  Union type to access MFIOCFG_INFO CSR register.
 394:../Firmware/RISCV/drivers/core_feature_base.h ****  */
 395:../Firmware/RISCV/drivers/core_feature_base.h **** typedef union {
 396:../Firmware/RISCV/drivers/core_feature_base.h ****     struct {
 397:../Firmware/RISCV/drivers/core_feature_base.h ****         rv_csr_t _reserved0:1;                  /*!< Reserved */
 398:../Firmware/RISCV/drivers/core_feature_base.h ****         rv_csr_t fio_size:5;                    /*!< FIO size, need to be 2^n size */
 399:../Firmware/RISCV/drivers/core_feature_base.h ****         rv_csr_t _reserved1:4;                  /*!< Reserved */
 400:../Firmware/RISCV/drivers/core_feature_base.h ****         rv_csr_t fio_bpa:__RISCV_XLEN-10;       /*!< FIO base address */
 401:../Firmware/RISCV/drivers/core_feature_base.h ****     } b;                                        /*!< Structure used for bit  access */
 402:../Firmware/RISCV/drivers/core_feature_base.h ****     rv_csr_t d;                                 /*!< Type      used for csr data access */
 403:../Firmware/RISCV/drivers/core_feature_base.h **** } CSR_MFIOCFGINFO_Type;
 404:../Firmware/RISCV/drivers/core_feature_base.h **** 
 405:../Firmware/RISCV/drivers/core_feature_base.h **** /**
 406:../Firmware/RISCV/drivers/core_feature_base.h ****  * \brief  Union type to access MECC_LOCK CSR register.
 407:../Firmware/RISCV/drivers/core_feature_base.h ****  */
 408:../Firmware/RISCV/drivers/core_feature_base.h **** typedef union {
 409:../Firmware/RISCV/drivers/core_feature_base.h ****     struct {
 410:../Firmware/RISCV/drivers/core_feature_base.h ****         rv_csr_t ecc_lock:1;                    /*!< RW permission, ECC Lock configure */
 411:../Firmware/RISCV/drivers/core_feature_base.h ****         rv_csr_t _reserved0:__RISCV_XLEN-1;     /*!< Reserved */
 412:../Firmware/RISCV/drivers/core_feature_base.h ****     } b;                                        /*!< Structure used for bit  access */
 413:../Firmware/RISCV/drivers/core_feature_base.h ****     rv_csr_t d;                                 /*!< Type      used for csr data access */
 414:../Firmware/RISCV/drivers/core_feature_base.h **** } CSR_MECCLOCK_Type;
 415:../Firmware/RISCV/drivers/core_feature_base.h **** 
 416:../Firmware/RISCV/drivers/core_feature_base.h **** /**
 417:../Firmware/RISCV/drivers/core_feature_base.h ****  * \brief  Union type to access MECC_CODE CSR register.
 418:../Firmware/RISCV/drivers/core_feature_base.h ****  */
 419:../Firmware/RISCV/drivers/core_feature_base.h **** typedef union {
 420:../Firmware/RISCV/drivers/core_feature_base.h ****     struct {
 421:../Firmware/RISCV/drivers/core_feature_base.h ****         rv_csr_t code:9;                        /*!< Used to inject ECC check code */
 422:../Firmware/RISCV/drivers/core_feature_base.h ****         rv_csr_t _reserved0:7;                  /*!< Reserved */
 423:../Firmware/RISCV/drivers/core_feature_base.h ****         rv_csr_t ramid:5;                       /*!< Indicate 2bit ECC error, software can clear th
 424:../Firmware/RISCV/drivers/core_feature_base.h ****         rv_csr_t _reserved1:3;                  /*!< Reserved */
 425:../Firmware/RISCV/drivers/core_feature_base.h ****         rv_csr_t sramid:5;                      /*!< Indicate 1bit ECC error, software can clear th
 426:../Firmware/RISCV/drivers/core_feature_base.h ****         rv_csr_t _reserved2:__RISCV_XLEN-29;    /*!< Reserved */
 427:../Firmware/RISCV/drivers/core_feature_base.h ****     } b;                                        /*!< Structure used for bit  access */
 428:../Firmware/RISCV/drivers/core_feature_base.h ****     rv_csr_t d;                                 /*!< Type      used for csr data access */
 429:../Firmware/RISCV/drivers/core_feature_base.h **** } CSR_MECCCODE_Type;
 430:../Firmware/RISCV/drivers/core_feature_base.h **** 
 431:../Firmware/RISCV/drivers/core_feature_base.h **** /** @} */ /* End of Doxygen Group NMSIS_Core_Base_Registers */
 432:../Firmware/RISCV/drivers/core_feature_base.h **** 
 433:../Firmware/RISCV/drivers/core_feature_base.h **** /* ###########################  Core Function Access  ########################### */
 434:../Firmware/RISCV/drivers/core_feature_base.h **** /**
 435:../Firmware/RISCV/drivers/core_feature_base.h ****  * \defgroup NMSIS_Core_CSR_Register_Access    Core CSR Register Access
 436:../Firmware/RISCV/drivers/core_feature_base.h ****  * \ingroup  NMSIS_Core
 437:../Firmware/RISCV/drivers/core_feature_base.h ****  * \brief    Functions to access the Core CSR Registers
 438:../Firmware/RISCV/drivers/core_feature_base.h ****  * \details
 439:../Firmware/RISCV/drivers/core_feature_base.h ****  *
 440:../Firmware/RISCV/drivers/core_feature_base.h ****  * The following functions or macros provide access to Core CSR registers.
 441:../Firmware/RISCV/drivers/core_feature_base.h ****  * - \ref NMSIS_Core_CSR_Encoding
 442:../Firmware/RISCV/drivers/core_feature_base.h ****  * - \ref NMSIS_Core_CSR_Registers
 443:../Firmware/RISCV/drivers/core_feature_base.h ****  *   @{
 444:../Firmware/RISCV/drivers/core_feature_base.h ****  */
 445:../Firmware/RISCV/drivers/core_feature_base.h **** 
 446:../Firmware/RISCV/drivers/core_feature_base.h **** 
 447:../Firmware/RISCV/drivers/core_feature_base.h **** #ifndef __ASSEMBLY__
 448:../Firmware/RISCV/drivers/core_feature_base.h **** 
 449:../Firmware/RISCV/drivers/core_feature_base.h **** /**
 450:../Firmware/RISCV/drivers/core_feature_base.h ****  * \brief CSR operation Macro for csrrw instruction.
 451:../Firmware/RISCV/drivers/core_feature_base.h ****  * \details
 452:../Firmware/RISCV/drivers/core_feature_base.h ****  * Read the content of csr register to __v,
 453:../Firmware/RISCV/drivers/core_feature_base.h ****  * then write content of val into csr register, then return __v
 454:../Firmware/RISCV/drivers/core_feature_base.h ****  * \param csr   CSR macro definition defined in
 455:../Firmware/RISCV/drivers/core_feature_base.h ****  *              \ref NMSIS_Core_CSR_Registers, eg. \ref CSR_MSTATUS
 456:../Firmware/RISCV/drivers/core_feature_base.h ****  * \param val   value to store into the CSR register
 457:../Firmware/RISCV/drivers/core_feature_base.h ****  * \return the CSR register value before written
 458:../Firmware/RISCV/drivers/core_feature_base.h ****  */
 459:../Firmware/RISCV/drivers/core_feature_base.h **** #define __RV_CSR_SWAP(csr, val)                                 \
 460:../Firmware/RISCV/drivers/core_feature_base.h ****     ({                                                          \
 461:../Firmware/RISCV/drivers/core_feature_base.h ****         register rv_csr_t __v = (unsigned long)(val);           \
 462:../Firmware/RISCV/drivers/core_feature_base.h ****         __ASM volatile("csrrw %0, " STRINGIFY(csr) ", %1"       \
 463:../Firmware/RISCV/drivers/core_feature_base.h ****                      : "=r"(__v)                                \
 464:../Firmware/RISCV/drivers/core_feature_base.h ****                      : "r"(__v)                                \
 465:../Firmware/RISCV/drivers/core_feature_base.h ****                      : "memory");                               \
 466:../Firmware/RISCV/drivers/core_feature_base.h ****         __v;                                                    \
 467:../Firmware/RISCV/drivers/core_feature_base.h ****     })
 468:../Firmware/RISCV/drivers/core_feature_base.h **** 
 469:../Firmware/RISCV/drivers/core_feature_base.h **** /**
 470:../Firmware/RISCV/drivers/core_feature_base.h ****  * \brief CSR operation Macro for csrr instruction.
 471:../Firmware/RISCV/drivers/core_feature_base.h ****  * \details
 472:../Firmware/RISCV/drivers/core_feature_base.h ****  * Read the content of csr register to __v and return it
 473:../Firmware/RISCV/drivers/core_feature_base.h ****  * \param csr   CSR macro definition defined in
 474:../Firmware/RISCV/drivers/core_feature_base.h ****  *              \ref NMSIS_Core_CSR_Registers, eg. \ref CSR_MSTATUS
 475:../Firmware/RISCV/drivers/core_feature_base.h ****  * \return the CSR register value
 476:../Firmware/RISCV/drivers/core_feature_base.h ****  */
 477:../Firmware/RISCV/drivers/core_feature_base.h **** #define __RV_CSR_READ(csr)                                      \
 478:../Firmware/RISCV/drivers/core_feature_base.h ****     ({                                                          \
 479:../Firmware/RISCV/drivers/core_feature_base.h ****         register rv_csr_t __v;                                  \
 480:../Firmware/RISCV/drivers/core_feature_base.h ****         __ASM volatile("csrr %0, " STRINGIFY(csr)               \
 481:../Firmware/RISCV/drivers/core_feature_base.h ****                      : "=r"(__v)                                \
 482:../Firmware/RISCV/drivers/core_feature_base.h ****                      :                                          \
 483:../Firmware/RISCV/drivers/core_feature_base.h ****                      : "memory");                               \
 484:../Firmware/RISCV/drivers/core_feature_base.h ****         __v;                                                    \
 485:../Firmware/RISCV/drivers/core_feature_base.h ****     })
 486:../Firmware/RISCV/drivers/core_feature_base.h **** 
 487:../Firmware/RISCV/drivers/core_feature_base.h **** /**
 488:../Firmware/RISCV/drivers/core_feature_base.h ****  * \brief CSR operation Macro for csrw instruction.
 489:../Firmware/RISCV/drivers/core_feature_base.h ****  * \details
 490:../Firmware/RISCV/drivers/core_feature_base.h ****  * Write the content of val to csr register
 491:../Firmware/RISCV/drivers/core_feature_base.h ****  * \param csr   CSR macro definition defined in
 492:../Firmware/RISCV/drivers/core_feature_base.h ****  *              \ref NMSIS_Core_CSR_Registers, eg. \ref CSR_MSTATUS
 493:../Firmware/RISCV/drivers/core_feature_base.h ****  * \param val   value to store into the CSR register
 494:../Firmware/RISCV/drivers/core_feature_base.h ****  */
 495:../Firmware/RISCV/drivers/core_feature_base.h **** #define __RV_CSR_WRITE(csr, val)                                \
 496:../Firmware/RISCV/drivers/core_feature_base.h ****     ({                                                          \
 497:../Firmware/RISCV/drivers/core_feature_base.h ****         register rv_csr_t __v = (rv_csr_t)(val);                \
 498:../Firmware/RISCV/drivers/core_feature_base.h ****         __ASM volatile("csrw " STRINGIFY(csr) ", %0"            \
 499:../Firmware/RISCV/drivers/core_feature_base.h ****                      :                                          \
 500:../Firmware/RISCV/drivers/core_feature_base.h ****                      : "r"(__v)                                \
 501:../Firmware/RISCV/drivers/core_feature_base.h ****                      : "memory");                               \
 502:../Firmware/RISCV/drivers/core_feature_base.h ****     })
 503:../Firmware/RISCV/drivers/core_feature_base.h **** 
 504:../Firmware/RISCV/drivers/core_feature_base.h **** /**
 505:../Firmware/RISCV/drivers/core_feature_base.h ****  * \brief CSR operation Macro for csrrs instruction.
 506:../Firmware/RISCV/drivers/core_feature_base.h ****  * \details
 507:../Firmware/RISCV/drivers/core_feature_base.h ****  * Read the content of csr register to __v,
 508:../Firmware/RISCV/drivers/core_feature_base.h ****  * then set csr register to be __v | val, then return __v
 509:../Firmware/RISCV/drivers/core_feature_base.h ****  * \param csr   CSR macro definition defined in
 510:../Firmware/RISCV/drivers/core_feature_base.h ****  *              \ref NMSIS_Core_CSR_Registers, eg. \ref CSR_MSTATUS
 511:../Firmware/RISCV/drivers/core_feature_base.h ****  * \param val   Mask value to be used wih csrrs instruction
 512:../Firmware/RISCV/drivers/core_feature_base.h ****  * \return the CSR register value before written
 513:../Firmware/RISCV/drivers/core_feature_base.h ****  */
 514:../Firmware/RISCV/drivers/core_feature_base.h **** #define __RV_CSR_READ_SET(csr, val)                             \
 515:../Firmware/RISCV/drivers/core_feature_base.h ****     ({                                                          \
 516:../Firmware/RISCV/drivers/core_feature_base.h ****         register rv_csr_t __v = (rv_csr_t)(val);                \
 517:../Firmware/RISCV/drivers/core_feature_base.h ****         __ASM volatile("csrrs %0, " STRINGIFY(csr) ", %1"       \
 518:../Firmware/RISCV/drivers/core_feature_base.h ****                      : "=r"(__v)                                \
 519:../Firmware/RISCV/drivers/core_feature_base.h ****                      : "r"(__v)                                \
 520:../Firmware/RISCV/drivers/core_feature_base.h ****                      : "memory");                               \
 521:../Firmware/RISCV/drivers/core_feature_base.h ****         __v;                                                    \
 522:../Firmware/RISCV/drivers/core_feature_base.h ****     })
 523:../Firmware/RISCV/drivers/core_feature_base.h **** 
 524:../Firmware/RISCV/drivers/core_feature_base.h **** /**
 525:../Firmware/RISCV/drivers/core_feature_base.h ****  * \brief CSR operation Macro for csrs instruction.
 526:../Firmware/RISCV/drivers/core_feature_base.h ****  * \details
 527:../Firmware/RISCV/drivers/core_feature_base.h ****  * Set csr register to be csr_content | val
 528:../Firmware/RISCV/drivers/core_feature_base.h ****  * \param csr   CSR macro definition defined in
 529:../Firmware/RISCV/drivers/core_feature_base.h ****  *              \ref NMSIS_Core_CSR_Registers, eg. \ref CSR_MSTATUS
 530:../Firmware/RISCV/drivers/core_feature_base.h ****  * \param val   Mask value to be used wih csrs instruction
 531:../Firmware/RISCV/drivers/core_feature_base.h ****  */
 532:../Firmware/RISCV/drivers/core_feature_base.h **** #define __RV_CSR_SET(csr, val)                                  \
 533:../Firmware/RISCV/drivers/core_feature_base.h ****     ({                                                          \
 534:../Firmware/RISCV/drivers/core_feature_base.h ****         register rv_csr_t __v = (rv_csr_t)(val);                \
 535:../Firmware/RISCV/drivers/core_feature_base.h ****         __ASM volatile("csrs " STRINGIFY(csr) ", %0"            \
 536:../Firmware/RISCV/drivers/core_feature_base.h ****                      :                                          \
 537:../Firmware/RISCV/drivers/core_feature_base.h ****                      : "r"(__v)                                \
 538:../Firmware/RISCV/drivers/core_feature_base.h ****                      : "memory");                               \
 539:../Firmware/RISCV/drivers/core_feature_base.h ****     })
 540:../Firmware/RISCV/drivers/core_feature_base.h **** 
 541:../Firmware/RISCV/drivers/core_feature_base.h **** /**
 542:../Firmware/RISCV/drivers/core_feature_base.h ****  * \brief CSR operation Macro for csrrc instruction.
 543:../Firmware/RISCV/drivers/core_feature_base.h ****  * \details
 544:../Firmware/RISCV/drivers/core_feature_base.h ****  * Read the content of csr register to __v,
 545:../Firmware/RISCV/drivers/core_feature_base.h ****  * then set csr register to be __v & ~val, then return __v
 546:../Firmware/RISCV/drivers/core_feature_base.h ****  * \param csr   CSR macro definition defined in
 547:../Firmware/RISCV/drivers/core_feature_base.h ****  *              \ref NMSIS_Core_CSR_Registers, eg. \ref CSR_MSTATUS
 548:../Firmware/RISCV/drivers/core_feature_base.h ****  * \param val   Mask value to be used wih csrrc instruction
 549:../Firmware/RISCV/drivers/core_feature_base.h ****  * \return the CSR register value before written
 550:../Firmware/RISCV/drivers/core_feature_base.h ****  */
 551:../Firmware/RISCV/drivers/core_feature_base.h **** #define __RV_CSR_READ_CLEAR(csr, val)                           \
 552:../Firmware/RISCV/drivers/core_feature_base.h ****     ({                                                          \
 553:../Firmware/RISCV/drivers/core_feature_base.h ****         register rv_csr_t __v = (rv_csr_t)(val);                \
 554:../Firmware/RISCV/drivers/core_feature_base.h ****         __ASM volatile("csrrc %0, " STRINGIFY(csr) ", %1"       \
 555:../Firmware/RISCV/drivers/core_feature_base.h ****                      : "=r"(__v)                                \
 556:../Firmware/RISCV/drivers/core_feature_base.h ****                      : "r"(__v)                                \
 557:../Firmware/RISCV/drivers/core_feature_base.h ****                      : "memory");                               \
 558:../Firmware/RISCV/drivers/core_feature_base.h ****         __v;                                                    \
 559:../Firmware/RISCV/drivers/core_feature_base.h ****     })
 560:../Firmware/RISCV/drivers/core_feature_base.h **** 
 561:../Firmware/RISCV/drivers/core_feature_base.h **** /**
 562:../Firmware/RISCV/drivers/core_feature_base.h ****  * \brief CSR operation Macro for csrc instruction.
 563:../Firmware/RISCV/drivers/core_feature_base.h ****  * \details
 564:../Firmware/RISCV/drivers/core_feature_base.h ****  * Set csr register to be csr_content & ~val
 565:../Firmware/RISCV/drivers/core_feature_base.h ****  * \param csr   CSR macro definition defined in
 566:../Firmware/RISCV/drivers/core_feature_base.h ****  *              \ref NMSIS_Core_CSR_Registers, eg. \ref CSR_MSTATUS
 567:../Firmware/RISCV/drivers/core_feature_base.h ****  * \param val   Mask value to be used wih csrc instruction
 568:../Firmware/RISCV/drivers/core_feature_base.h ****  */
 569:../Firmware/RISCV/drivers/core_feature_base.h **** #define __RV_CSR_CLEAR(csr, val)                                \
 570:../Firmware/RISCV/drivers/core_feature_base.h ****     ({                                                          \
 571:../Firmware/RISCV/drivers/core_feature_base.h ****         register rv_csr_t __v = (rv_csr_t)(val);                \
 572:../Firmware/RISCV/drivers/core_feature_base.h ****         __ASM volatile("csrc " STRINGIFY(csr) ", %0"            \
 573:../Firmware/RISCV/drivers/core_feature_base.h ****                      :                                          \
 574:../Firmware/RISCV/drivers/core_feature_base.h ****                      : "r"(__v)                                \
 575:../Firmware/RISCV/drivers/core_feature_base.h ****                      : "memory");                               \
 576:../Firmware/RISCV/drivers/core_feature_base.h ****     })
 577:../Firmware/RISCV/drivers/core_feature_base.h **** #endif /* __ASSEMBLY__ */
 578:../Firmware/RISCV/drivers/core_feature_base.h **** 
 579:../Firmware/RISCV/drivers/core_feature_base.h **** /**
 580:../Firmware/RISCV/drivers/core_feature_base.h ****  * \brief   Enable IRQ Interrupts
 581:../Firmware/RISCV/drivers/core_feature_base.h ****  * \details Enables IRQ interrupts by setting the MIE-bit in the MSTATUS Register.
 582:../Firmware/RISCV/drivers/core_feature_base.h ****  * \remarks
 583:../Firmware/RISCV/drivers/core_feature_base.h ****  *          Can only be executed in Privileged modes.
 584:../Firmware/RISCV/drivers/core_feature_base.h ****  */
 585:../Firmware/RISCV/drivers/core_feature_base.h **** __STATIC_FORCEINLINE void __enable_irq(void)
 586:../Firmware/RISCV/drivers/core_feature_base.h **** {
 587:../Firmware/RISCV/drivers/core_feature_base.h ****     __RV_CSR_SET(CSR_MSTATUS, MSTATUS_MIE);
 588:../Firmware/RISCV/drivers/core_feature_base.h **** }
 589:../Firmware/RISCV/drivers/core_feature_base.h **** 
 590:../Firmware/RISCV/drivers/core_feature_base.h **** /**
 591:../Firmware/RISCV/drivers/core_feature_base.h ****  * \brief   Disable IRQ Interrupts
 592:../Firmware/RISCV/drivers/core_feature_base.h ****  * \details Disables IRQ interrupts by clearing the MIE-bit in the MSTATUS Register.
 593:../Firmware/RISCV/drivers/core_feature_base.h ****  * \remarks
 594:../Firmware/RISCV/drivers/core_feature_base.h ****  *          Can only be executed in Privileged modes.
 595:../Firmware/RISCV/drivers/core_feature_base.h ****  */
 596:../Firmware/RISCV/drivers/core_feature_base.h **** __STATIC_FORCEINLINE void __disable_irq(void)
 597:../Firmware/RISCV/drivers/core_feature_base.h **** {
 598:../Firmware/RISCV/drivers/core_feature_base.h ****     __RV_CSR_CLEAR(CSR_MSTATUS, MSTATUS_MIE);
 599:../Firmware/RISCV/drivers/core_feature_base.h **** }
 600:../Firmware/RISCV/drivers/core_feature_base.h **** 
 601:../Firmware/RISCV/drivers/core_feature_base.h **** /**
 602:../Firmware/RISCV/drivers/core_feature_base.h ****  * \brief   Read whole 64 bits value of mcycle counter
 603:../Firmware/RISCV/drivers/core_feature_base.h ****  * \details This function will read the whole 64 bits of MCYCLE register
 604:../Firmware/RISCV/drivers/core_feature_base.h ****  * \return  The whole 64 bits value of MCYCLE
 605:../Firmware/RISCV/drivers/core_feature_base.h ****  * \remarks It will work for both RV32 and RV64 to get full 64bits value of MCYCLE
 606:../Firmware/RISCV/drivers/core_feature_base.h ****  */
 607:../Firmware/RISCV/drivers/core_feature_base.h **** __STATIC_FORCEINLINE uint64_t __get_rv_cycle(void)
 608:../Firmware/RISCV/drivers/core_feature_base.h **** {
 609:../Firmware/RISCV/drivers/core_feature_base.h **** #if __RISCV_XLEN == 32
 610:../Firmware/RISCV/drivers/core_feature_base.h ****     volatile uint32_t high0, low, high;
 611:../Firmware/RISCV/drivers/core_feature_base.h ****     uint64_t full;
 612:../Firmware/RISCV/drivers/core_feature_base.h **** 
 613:../Firmware/RISCV/drivers/core_feature_base.h ****     high0 = __RV_CSR_READ(CSR_MCYCLEH);
 614:../Firmware/RISCV/drivers/core_feature_base.h ****     low = __RV_CSR_READ(CSR_MCYCLE);
 615:../Firmware/RISCV/drivers/core_feature_base.h ****     high = __RV_CSR_READ(CSR_MCYCLEH);
 616:../Firmware/RISCV/drivers/core_feature_base.h ****     if (high0 != high) {
 617:../Firmware/RISCV/drivers/core_feature_base.h ****         low = __RV_CSR_READ(CSR_MCYCLE);
 618:../Firmware/RISCV/drivers/core_feature_base.h ****     }
 619:../Firmware/RISCV/drivers/core_feature_base.h ****     full = (((uint64_t)high) << 32) | low;
 620:../Firmware/RISCV/drivers/core_feature_base.h ****     return full;
 621:../Firmware/RISCV/drivers/core_feature_base.h **** #elif __RISCV_XLEN == 64
 622:../Firmware/RISCV/drivers/core_feature_base.h ****     return (uint64_t)__RV_CSR_READ(CSR_MCYCLE);
 623:../Firmware/RISCV/drivers/core_feature_base.h **** #else // TODO Need cover for XLEN=128 case in future
 624:../Firmware/RISCV/drivers/core_feature_base.h ****     return (uint64_t)__RV_CSR_READ(CSR_MCYCLE);
 625:../Firmware/RISCV/drivers/core_feature_base.h **** #endif
 626:../Firmware/RISCV/drivers/core_feature_base.h **** }
 627:../Firmware/RISCV/drivers/core_feature_base.h **** 
 628:../Firmware/RISCV/drivers/core_feature_base.h **** /**
 629:../Firmware/RISCV/drivers/core_feature_base.h ****  * \brief   Read whole 64 bits value of machine instruction-retired counter
 630:../Firmware/RISCV/drivers/core_feature_base.h ****  * \details This function will read the whole 64 bits of MINSTRET register
 631:../Firmware/RISCV/drivers/core_feature_base.h ****  * \return  The whole 64 bits value of MINSTRET
 632:../Firmware/RISCV/drivers/core_feature_base.h ****  * \remarks It will work for both RV32 and RV64 to get full 64bits value of MINSTRET
 633:../Firmware/RISCV/drivers/core_feature_base.h ****  */
 634:../Firmware/RISCV/drivers/core_feature_base.h **** __STATIC_FORCEINLINE uint64_t __get_rv_instret(void)
 635:../Firmware/RISCV/drivers/core_feature_base.h **** {
 636:../Firmware/RISCV/drivers/core_feature_base.h **** #if __RISCV_XLEN == 32
 637:../Firmware/RISCV/drivers/core_feature_base.h ****     volatile uint32_t high0, low, high;
 638:../Firmware/RISCV/drivers/core_feature_base.h ****     uint64_t full;
 639:../Firmware/RISCV/drivers/core_feature_base.h **** 
 640:../Firmware/RISCV/drivers/core_feature_base.h ****     high0 = __RV_CSR_READ(CSR_MINSTRETH);
 641:../Firmware/RISCV/drivers/core_feature_base.h ****     low = __RV_CSR_READ(CSR_MINSTRET);
 642:../Firmware/RISCV/drivers/core_feature_base.h ****     high = __RV_CSR_READ(CSR_MINSTRETH);
 643:../Firmware/RISCV/drivers/core_feature_base.h ****     if (high0 != high) {
 644:../Firmware/RISCV/drivers/core_feature_base.h ****         low = __RV_CSR_READ(CSR_MINSTRET);
 645:../Firmware/RISCV/drivers/core_feature_base.h ****     }
 646:../Firmware/RISCV/drivers/core_feature_base.h ****     full = (((uint64_t)high) << 32) | low;
 647:../Firmware/RISCV/drivers/core_feature_base.h ****     return full;
 648:../Firmware/RISCV/drivers/core_feature_base.h **** #elif __RISCV_XLEN == 64
 649:../Firmware/RISCV/drivers/core_feature_base.h ****     return (uint64_t)__RV_CSR_READ(CSR_MINSTRET);
 650:../Firmware/RISCV/drivers/core_feature_base.h **** #else // TODO Need cover for XLEN=128 case in future
 651:../Firmware/RISCV/drivers/core_feature_base.h ****     return (uint64_t)__RV_CSR_READ(CSR_MINSTRET);
 652:../Firmware/RISCV/drivers/core_feature_base.h **** #endif
 653:../Firmware/RISCV/drivers/core_feature_base.h **** }
 654:../Firmware/RISCV/drivers/core_feature_base.h **** 
 655:../Firmware/RISCV/drivers/core_feature_base.h **** /**
 656:../Firmware/RISCV/drivers/core_feature_base.h ****  * \brief   Read whole 64 bits value of real-time clock
 657:../Firmware/RISCV/drivers/core_feature_base.h ****  * \details This function will read the whole 64 bits of TIME register
 658:../Firmware/RISCV/drivers/core_feature_base.h ****  * \return  The whole 64 bits value of TIME CSR
 659:../Firmware/RISCV/drivers/core_feature_base.h ****  * \remarks It will work for both RV32 and RV64 to get full 64bits value of TIME
 660:../Firmware/RISCV/drivers/core_feature_base.h ****  * \attention only available when user mode available
 661:../Firmware/RISCV/drivers/core_feature_base.h ****  */
 662:../Firmware/RISCV/drivers/core_feature_base.h **** __STATIC_FORCEINLINE uint64_t __get_rv_time(void)
 663:../Firmware/RISCV/drivers/core_feature_base.h **** {
 664:../Firmware/RISCV/drivers/core_feature_base.h **** #if __RISCV_XLEN == 32
 665:../Firmware/RISCV/drivers/core_feature_base.h ****     volatile uint32_t high0, low, high;
 666:../Firmware/RISCV/drivers/core_feature_base.h ****     uint64_t full;
 667:../Firmware/RISCV/drivers/core_feature_base.h **** 
 668:../Firmware/RISCV/drivers/core_feature_base.h ****     high0 = __RV_CSR_READ(CSR_TIMEH);
 669:../Firmware/RISCV/drivers/core_feature_base.h ****     low = __RV_CSR_READ(CSR_TIME);
 670:../Firmware/RISCV/drivers/core_feature_base.h ****     high = __RV_CSR_READ(CSR_TIMEH);
 671:../Firmware/RISCV/drivers/core_feature_base.h ****     if (high0 != high) {
 672:../Firmware/RISCV/drivers/core_feature_base.h ****         low = __RV_CSR_READ(CSR_TIME);
 673:../Firmware/RISCV/drivers/core_feature_base.h ****     }
 674:../Firmware/RISCV/drivers/core_feature_base.h ****     full = (((uint64_t)high) << 32) | low;
 675:../Firmware/RISCV/drivers/core_feature_base.h ****     return full;
 676:../Firmware/RISCV/drivers/core_feature_base.h **** #elif __RISCV_XLEN == 64
 677:../Firmware/RISCV/drivers/core_feature_base.h ****     return (uint64_t)__RV_CSR_READ(CSR_TIME);
 678:../Firmware/RISCV/drivers/core_feature_base.h **** #else // TODO Need cover for XLEN=128 case in future
 679:../Firmware/RISCV/drivers/core_feature_base.h ****     return (uint64_t)__RV_CSR_READ(CSR_TIME);
 680:../Firmware/RISCV/drivers/core_feature_base.h **** #endif
 681:../Firmware/RISCV/drivers/core_feature_base.h **** }
 682:../Firmware/RISCV/drivers/core_feature_base.h **** 
 683:../Firmware/RISCV/drivers/core_feature_base.h **** /** @} */ /* End of Doxygen Group NMSIS_Core_CSR_Register_Access */
 684:../Firmware/RISCV/drivers/core_feature_base.h **** 
 685:../Firmware/RISCV/drivers/core_feature_base.h **** /* ###########################  CPU Intrinsic Functions ########################### */
 686:../Firmware/RISCV/drivers/core_feature_base.h **** /**
 687:../Firmware/RISCV/drivers/core_feature_base.h ****  * \defgroup NMSIS_Core_CPU_Intrinsic   Intrinsic Functions for CPU Intructions
 688:../Firmware/RISCV/drivers/core_feature_base.h ****  * \ingroup  NMSIS_Core
 689:../Firmware/RISCV/drivers/core_feature_base.h ****  * \brief    Functions that generate RISC-V CPU instructions.
 690:../Firmware/RISCV/drivers/core_feature_base.h ****  * \details
 691:../Firmware/RISCV/drivers/core_feature_base.h ****  *
 692:../Firmware/RISCV/drivers/core_feature_base.h ****  * The following functions generate specified RISC-V instructions that cannot be directly accessed 
 693:../Firmware/RISCV/drivers/core_feature_base.h ****  *   @{
 694:../Firmware/RISCV/drivers/core_feature_base.h ****  */
 695:../Firmware/RISCV/drivers/core_feature_base.h **** 
 696:../Firmware/RISCV/drivers/core_feature_base.h **** /**
 697:../Firmware/RISCV/drivers/core_feature_base.h ****  * \brief   NOP Instruction
 698:../Firmware/RISCV/drivers/core_feature_base.h ****  * \details
 699:../Firmware/RISCV/drivers/core_feature_base.h ****  * No Operation does nothing.
 700:../Firmware/RISCV/drivers/core_feature_base.h ****  * This instruction can be used for code alignment purposes.
 701:../Firmware/RISCV/drivers/core_feature_base.h ****  */
 702:../Firmware/RISCV/drivers/core_feature_base.h **** __STATIC_FORCEINLINE void __NOP(void)
 703:../Firmware/RISCV/drivers/core_feature_base.h **** {
 704:../Firmware/RISCV/drivers/core_feature_base.h ****     __ASM volatile("nop");
 705:../Firmware/RISCV/drivers/core_feature_base.h **** }
 706:../Firmware/RISCV/drivers/core_feature_base.h **** 
 707:../Firmware/RISCV/drivers/core_feature_base.h **** /**
 708:../Firmware/RISCV/drivers/core_feature_base.h ****  * \brief   Wait For Interrupt
 709:../Firmware/RISCV/drivers/core_feature_base.h ****  * \details
 710:../Firmware/RISCV/drivers/core_feature_base.h ****  * Wait For Interrupt is is executed using CSR_WFE.WFE=0 and WFI instruction.
 711:../Firmware/RISCV/drivers/core_feature_base.h ****  * It will suspends execution until interrupt, NMI or Debug happened.
 712:../Firmware/RISCV/drivers/core_feature_base.h ****  * When Core is waked up by interrupt, if
 713:../Firmware/RISCV/drivers/core_feature_base.h ****  * 1. mstatus.MIE == 1(interrupt enabled), Core will enter ISR code
 714:../Firmware/RISCV/drivers/core_feature_base.h ****  * 2. mstatus.MIE == 0(interrupt disabled), Core will resume previous execution
 715:../Firmware/RISCV/drivers/core_feature_base.h ****  */
 716:../Firmware/RISCV/drivers/core_feature_base.h **** __STATIC_FORCEINLINE void __WFI(void)
 717:../Firmware/RISCV/drivers/core_feature_base.h **** {
 718:../Firmware/RISCV/drivers/core_feature_base.h ****     __RV_CSR_CLEAR(CSR_WFE, WFE_WFE);
 719:../Firmware/RISCV/drivers/core_feature_base.h ****     __ASM volatile("wfi");
 720:../Firmware/RISCV/drivers/core_feature_base.h **** }
 721:../Firmware/RISCV/drivers/core_feature_base.h **** 
 722:../Firmware/RISCV/drivers/core_feature_base.h **** /**
 723:../Firmware/RISCV/drivers/core_feature_base.h ****  * \brief   Wait For Event
 724:../Firmware/RISCV/drivers/core_feature_base.h ****  * \details
 725:../Firmware/RISCV/drivers/core_feature_base.h ****  * Wait For Event is executed using CSR_WFE.WFE=1 and WFI instruction.
 726:../Firmware/RISCV/drivers/core_feature_base.h ****  * It will suspends execution until event, NMI or Debug happened.
 727:../Firmware/RISCV/drivers/core_feature_base.h ****  * When Core is waked up, Core will resume previous execution
 728:../Firmware/RISCV/drivers/core_feature_base.h ****  */
 729:../Firmware/RISCV/drivers/core_feature_base.h **** __STATIC_FORCEINLINE void __WFE(void)
 730:../Firmware/RISCV/drivers/core_feature_base.h **** {
 731:../Firmware/RISCV/drivers/core_feature_base.h ****     __RV_CSR_SET(CSR_WFE, WFE_WFE);
 732:../Firmware/RISCV/drivers/core_feature_base.h ****     __ASM volatile("wfi");
 733:../Firmware/RISCV/drivers/core_feature_base.h ****     __RV_CSR_CLEAR(CSR_WFE, WFE_WFE);
 734:../Firmware/RISCV/drivers/core_feature_base.h **** }
 735:../Firmware/RISCV/drivers/core_feature_base.h **** 
 736:../Firmware/RISCV/drivers/core_feature_base.h **** /**
 737:../Firmware/RISCV/drivers/core_feature_base.h ****  * \brief   Breakpoint Instruction
 738:../Firmware/RISCV/drivers/core_feature_base.h ****  * \details
 739:../Firmware/RISCV/drivers/core_feature_base.h ****  * Causes the processor to enter Debug state.
 740:../Firmware/RISCV/drivers/core_feature_base.h ****  * Debug tools can use this to investigate system state
 741:../Firmware/RISCV/drivers/core_feature_base.h ****  * when the instruction at a particular address is reached.
 742:../Firmware/RISCV/drivers/core_feature_base.h ****  */
 743:../Firmware/RISCV/drivers/core_feature_base.h **** __STATIC_FORCEINLINE void __EBREAK(void)
 744:../Firmware/RISCV/drivers/core_feature_base.h **** {
 745:../Firmware/RISCV/drivers/core_feature_base.h ****     __ASM volatile("ebreak");
 746:../Firmware/RISCV/drivers/core_feature_base.h **** }
 747:../Firmware/RISCV/drivers/core_feature_base.h **** 
 748:../Firmware/RISCV/drivers/core_feature_base.h **** /**
 749:../Firmware/RISCV/drivers/core_feature_base.h ****  * \brief   Environment Call Instruction
 750:../Firmware/RISCV/drivers/core_feature_base.h ****  * \details
 751:../Firmware/RISCV/drivers/core_feature_base.h ****  * The ECALL instruction is used to make a service request to
 752:../Firmware/RISCV/drivers/core_feature_base.h ****  * the execution environment.
 753:../Firmware/RISCV/drivers/core_feature_base.h ****  */
 754:../Firmware/RISCV/drivers/core_feature_base.h **** __STATIC_FORCEINLINE void __ECALL(void)
 755:../Firmware/RISCV/drivers/core_feature_base.h **** {
 756:../Firmware/RISCV/drivers/core_feature_base.h ****     __ASM volatile("ecall");
 757:../Firmware/RISCV/drivers/core_feature_base.h **** }
 758:../Firmware/RISCV/drivers/core_feature_base.h **** 
 759:../Firmware/RISCV/drivers/core_feature_base.h **** /**
 760:../Firmware/RISCV/drivers/core_feature_base.h ****  * \brief WFI Sleep Mode enumeration
 761:../Firmware/RISCV/drivers/core_feature_base.h ****  */
 762:../Firmware/RISCV/drivers/core_feature_base.h **** typedef enum WFI_SleepMode {
 763:../Firmware/RISCV/drivers/core_feature_base.h ****     WFI_SHALLOW_SLEEP = 0,      /*!< Shallow sleep mode, the core_clk will poweroff */
 764:../Firmware/RISCV/drivers/core_feature_base.h ****     WFI_DEEP_SLEEP = 1          /*!< Deep sleep mode, the core_clk and core_ano_clk will poweroff *
 765:../Firmware/RISCV/drivers/core_feature_base.h **** } WFI_SleepMode_Type;
 766:../Firmware/RISCV/drivers/core_feature_base.h **** 
 767:../Firmware/RISCV/drivers/core_feature_base.h **** /**
 768:../Firmware/RISCV/drivers/core_feature_base.h ****  * \brief   Set Sleep mode of WFI
 769:../Firmware/RISCV/drivers/core_feature_base.h ****  * \details
 770:../Firmware/RISCV/drivers/core_feature_base.h ****  * Set the SLEEPVALUE CSR register to control the
 771:../Firmware/RISCV/drivers/core_feature_base.h ****  * WFI Sleep mode.
 772:../Firmware/RISCV/drivers/core_feature_base.h ****  * \param[in] mode      The sleep mode to be set
 773:../Firmware/RISCV/drivers/core_feature_base.h ****  */
 774:../Firmware/RISCV/drivers/core_feature_base.h **** __STATIC_FORCEINLINE void __set_wfi_sleepmode(WFI_SleepMode_Type mode)
 775:../Firmware/RISCV/drivers/core_feature_base.h **** {
 776:../Firmware/RISCV/drivers/core_feature_base.h ****     __RV_CSR_WRITE(CSR_SLEEPVALUE, mode);
 245              		.loc 2 776 5
 246 0012 8324C4FE 		lw	s1,-20(s0)
 247              	 #APP
 248              	# 776 "../Firmware/RISCV/drivers/core_feature_base.h" 1
 777              	}
 249              		csrw 0x811, s1
 250              	# 0 "" 2
 251              	 #NO_APP
 252              	.LBE55:
 253              		.loc 2 777 1
 254 001a 0100     		nop
 255              	.LBE54:
 256              	.LBE53:
 133:../Firmware/GD32VW55x_standard_peripheral/Source/gd32vw55x_pmu.c ****     /* clear sleepdeep bit of RISC-V system control register */
 134:../Firmware/GD32VW55x_standard_peripheral/Source/gd32vw55x_pmu.c ****     __set_wfi_sleepmode(WFI_SHALLOW_SLEEP);
 135:../Firmware/GD32VW55x_standard_peripheral/Source/gd32vw55x_pmu.c **** 
 136:../Firmware/GD32VW55x_standard_peripheral/Source/gd32vw55x_pmu.c ****     /* select WFI or WFE command to enter sleep mode */
 137:../Firmware/GD32VW55x_standard_peripheral/Source/gd32vw55x_pmu.c ****     if(WFI_CMD == sleepmodecmd){
 257              		.loc 1 137 7
 258 001c 8347F4FD 		lbu	a5,-33(s0)
 259 0020 99E7     		bne	a5,zero,.L8
 260              	.LBB56:
 261              	.LBB57:
 262              	.LBB58:
 718:../Firmware/RISCV/drivers/core_feature_base.h ****     __ASM volatile("wfi");
 263              		.loc 2 718 5
 264 0022 8544     		li	s1,1
 265              	 #APP
 266              	# 718 "../Firmware/RISCV/drivers/core_feature_base.h" 1
 267              		csrc 0x810, s1
 268              	# 0 "" 2
 269              	 #NO_APP
 270              	.LBE58:
 719:../Firmware/RISCV/drivers/core_feature_base.h **** }
 271              		.loc 2 719 5
 272              	 #APP
 273              	# 719 "../Firmware/RISCV/drivers/core_feature_base.h" 1
 720:../Firmware/RISCV/drivers/core_feature_base.h **** 
 274              		wfi
 275              	# 0 "" 2
 276              		.loc 2 720 1
 277              	 #NO_APP
 278 002c 15A0     		j	.L9
 279              	.L8:
 280              	.LBE57:
 281              	.LBE56:
 282              	.LBB59:
 283              	.LBB60:
 284              	.LBB61:
 598:../Firmware/RISCV/drivers/core_feature_base.h **** }
 285              		.loc 2 598 5
 286 002e A144     		li	s1,8
 287              	 #APP
 288              	# 598 "../Firmware/RISCV/drivers/core_feature_base.h" 1
 289              		csrc 0x300, s1
 290              	# 0 "" 2
 291              	 #NO_APP
 292              	.LBE61:
 599:../Firmware/RISCV/drivers/core_feature_base.h **** 
 293              		.loc 2 599 1
 294 0034 0100     		nop
 295              	.LBE60:
 296              	.LBE59:
 297              	.LBB62:
 298              	.LBB63:
 299              	.LBB64:
 731:../Firmware/RISCV/drivers/core_feature_base.h ****     __ASM volatile("wfi");
 300              		.loc 2 731 5
 301 0036 8544     		li	s1,1
 302              	 #APP
 303              	# 731 "../Firmware/RISCV/drivers/core_feature_base.h" 1
 304              		csrs 0x810, s1
 305              	# 0 "" 2
 306              	 #NO_APP
 307              	.LBE64:
 732:../Firmware/RISCV/drivers/core_feature_base.h ****     __RV_CSR_CLEAR(CSR_WFE, WFE_WFE);
 308              		.loc 2 732 5
 309              	 #APP
 310              	# 732 "../Firmware/RISCV/drivers/core_feature_base.h" 1
 311              		wfi
 312              	# 0 "" 2
 313              	 #NO_APP
 314              	.LBB65:
 733:../Firmware/RISCV/drivers/core_feature_base.h **** }
 315              		.loc 2 733 5
 316 0040 8544     		li	s1,1
 317              	 #APP
 318              	# 733 "../Firmware/RISCV/drivers/core_feature_base.h" 1
 319              		csrc 0x810, s1
 320              	# 0 "" 2
 321              	 #NO_APP
 322              	.LBE65:
 734:../Firmware/RISCV/drivers/core_feature_base.h **** 
 323              		.loc 2 734 1
 324 0046 0100     		nop
 325              	.LBE63:
 326              	.LBE62:
 327              	.LBB66:
 328              	.LBB67:
 329              	.LBB68:
 587:../Firmware/RISCV/drivers/core_feature_base.h **** }
 330              		.loc 2 587 5
 331 0048 A144     		li	s1,8
 332              	 #APP
 333              	# 587 "../Firmware/RISCV/drivers/core_feature_base.h" 1
 334              		csrs 0x300, s1
 335              	# 0 "" 2
 336              	 #NO_APP
 337              	.LBE68:
 588:../Firmware/RISCV/drivers/core_feature_base.h **** 
 338              		.loc 2 588 1
 339 004e 0100     		nop
 340              	.L9:
 341              	.LBE67:
 342              	.LBE66:
 138:../Firmware/GD32VW55x_standard_peripheral/Source/gd32vw55x_pmu.c ****         __WFI();
 139:../Firmware/GD32VW55x_standard_peripheral/Source/gd32vw55x_pmu.c ****     }else{
 140:../Firmware/GD32VW55x_standard_peripheral/Source/gd32vw55x_pmu.c ****         __disable_irq();
 141:../Firmware/GD32VW55x_standard_peripheral/Source/gd32vw55x_pmu.c ****         __WFE();
 142:../Firmware/GD32VW55x_standard_peripheral/Source/gd32vw55x_pmu.c ****         __enable_irq();
 143:../Firmware/GD32VW55x_standard_peripheral/Source/gd32vw55x_pmu.c ****     }
 144:../Firmware/GD32VW55x_standard_peripheral/Source/gd32vw55x_pmu.c **** }
 343              		.loc 1 144 1
 344 0050 0100     		nop
 345 0052 3254     		lw	s0,44(sp)
 346              		.cfi_restore 8
 347              		.cfi_def_cfa 2, 48
 348 0054 A254     		lw	s1,40(sp)
 349              		.cfi_restore 9
 350 0056 4561     		addi	sp,sp,48
 351              		.cfi_def_cfa_offset 0
 352 0058 8280     		jr	ra
 353              		.cfi_endproc
 354              	.LFE353:
 356              		.section	.text.pmu_to_deepsleepmode,"ax",@progbits
 357              		.align	1
 358              		.globl	pmu_to_deepsleepmode
 360              	pmu_to_deepsleepmode:
 361              	.LFB354:
 145:../Firmware/GD32VW55x_standard_peripheral/Source/gd32vw55x_pmu.c **** 
 146:../Firmware/GD32VW55x_standard_peripheral/Source/gd32vw55x_pmu.c **** /*!
 147:../Firmware/GD32VW55x_standard_peripheral/Source/gd32vw55x_pmu.c ****     \brief      PMU work in deep-sleep mode
 148:../Firmware/GD32VW55x_standard_peripheral/Source/gd32vw55x_pmu.c ****     \param[in]  ldo:
 149:../Firmware/GD32VW55x_standard_peripheral/Source/gd32vw55x_pmu.c ****                 only one parameter can be selected which is shown as below:
 150:../Firmware/GD32VW55x_standard_peripheral/Source/gd32vw55x_pmu.c ****       \arg        PMU_LDO_NORMAL: LDO normal work when PMU enter deepsleep mode
 151:../Firmware/GD32VW55x_standard_peripheral/Source/gd32vw55x_pmu.c ****       \arg        PMU_LDO_LOWPOWER: LDO work at low power mode when PMU enter deepsleep mode
 152:../Firmware/GD32VW55x_standard_peripheral/Source/gd32vw55x_pmu.c ****     \param[in]  lowdrive:
 153:../Firmware/GD32VW55x_standard_peripheral/Source/gd32vw55x_pmu.c ****                 only one parameter can be selected which is shown as below:
 154:../Firmware/GD32VW55x_standard_peripheral/Source/gd32vw55x_pmu.c ****       \arg        PMU_LOWDRIVER_DISABLE: Low-driver mode disable in deep-sleep mode
 155:../Firmware/GD32VW55x_standard_peripheral/Source/gd32vw55x_pmu.c ****       \arg        PMU_LOWDRIVER_ENABLE: Low-driver mode enable in deep-sleep mode
 156:../Firmware/GD32VW55x_standard_peripheral/Source/gd32vw55x_pmu.c ****     \param[in]  deepsleepmodecmd:
 157:../Firmware/GD32VW55x_standard_peripheral/Source/gd32vw55x_pmu.c ****                 only one parameter can be selected which is shown as below:
 158:../Firmware/GD32VW55x_standard_peripheral/Source/gd32vw55x_pmu.c ****       \arg        WFI_CMD: use WFI command
 159:../Firmware/GD32VW55x_standard_peripheral/Source/gd32vw55x_pmu.c ****       \arg        WFE_CMD: use WFE command
 160:../Firmware/GD32VW55x_standard_peripheral/Source/gd32vw55x_pmu.c ****     \param[out] none
 161:../Firmware/GD32VW55x_standard_peripheral/Source/gd32vw55x_pmu.c ****     \retval     none
 162:../Firmware/GD32VW55x_standard_peripheral/Source/gd32vw55x_pmu.c **** */
 163:../Firmware/GD32VW55x_standard_peripheral/Source/gd32vw55x_pmu.c **** void pmu_to_deepsleepmode(uint32_t ldo, uint32_t lowdrive, uint8_t deepsleepmodecmd)
 164:../Firmware/GD32VW55x_standard_peripheral/Source/gd32vw55x_pmu.c **** {
 362              		.loc 1 164 1
 363              		.cfi_startproc
 364 0000 7971     		addi	sp,sp,-48
 365              		.cfi_def_cfa_offset 48
 366 0002 22D6     		sw	s0,44(sp)
 367 0004 26D4     		sw	s1,40(sp)
 368              		.cfi_offset 8, -4
 369              		.cfi_offset 9, -8
 370 0006 0018     		addi	s0,sp,48
 371              		.cfi_def_cfa 8, 0
 372 0008 232EA4FC 		sw	a0,-36(s0)
 373 000c 232CB4FC 		sw	a1,-40(s0)
 374 0010 B287     		mv	a5,a2
 375 0012 A30BF4FC 		sb	a5,-41(s0)
 165:../Firmware/GD32VW55x_standard_peripheral/Source/gd32vw55x_pmu.c ****     /* clear stbmod and ldolp bits and low drive bits */
 166:../Firmware/GD32VW55x_standard_peripheral/Source/gd32vw55x_pmu.c ****     PMU_CTL0 &= ~((uint32_t)(PMU_CTL0_STBMOD | PMU_CTL0_LDOLP | PMU_CTL0_LDEN | PMU_CTL0_LDNP | PMU
 376              		.loc 1 166 14
 377 0016 B7770040 		li	a5,1073770496
 378 001a 9443     		lw	a3,0(a5)
 379 001c B7770040 		li	a5,1073770496
 380 0020 37F7F3FF 		li	a4,-790528
 381 0024 1307C73F 		addi	a4,a4,1020
 382 0028 758F     		and	a4,a3,a4
 383 002a 98C3     		sw	a4,0(a5)
 167:../Firmware/GD32VW55x_standard_peripheral/Source/gd32vw55x_pmu.c **** 
 168:../Firmware/GD32VW55x_standard_peripheral/Source/gd32vw55x_pmu.c ****     /* set ldolp bit according to pmu_ldo */
 169:../Firmware/GD32VW55x_standard_peripheral/Source/gd32vw55x_pmu.c ****     PMU_CTL0 |= ldo;
 384              		.loc 1 169 14
 385 002c B7770040 		li	a5,1073770496
 386 0030 9443     		lw	a3,0(a5)
 387 0032 B7770040 		li	a5,1073770496
 388 0036 0327C4FD 		lw	a4,-36(s0)
 389 003a 558F     		or	a4,a3,a4
 390 003c 98C3     		sw	a4,0(a5)
 170:../Firmware/GD32VW55x_standard_peripheral/Source/gd32vw55x_pmu.c **** 
 171:../Firmware/GD32VW55x_standard_peripheral/Source/gd32vw55x_pmu.c ****     /* low drive mode config in deep-sleep mode */
 172:../Firmware/GD32VW55x_standard_peripheral/Source/gd32vw55x_pmu.c ****     if(PMU_LOWDRIVER_ENABLE == lowdrive){
 391              		.loc 1 172 7
 392 003e 032784FD 		lw	a4,-40(s0)
 393 0042 B7070C00 		li	a5,786432
 394 0046 631CF702 		bne	a4,a5,.L11
 173:../Firmware/GD32VW55x_standard_peripheral/Source/gd32vw55x_pmu.c ****         if(PMU_LDO_NORMAL == ldo){
 395              		.loc 1 173 11
 396 004a 8327C4FD 		lw	a5,-36(s0)
 397 004e 89EF     		bne	a5,zero,.L12
 174:../Firmware/GD32VW55x_standard_peripheral/Source/gd32vw55x_pmu.c ****             PMU_CTL0 |= (uint32_t)(PMU_CTL0_LDEN | PMU_CTL0_LDNP);
 398              		.loc 1 174 22
 399 0050 B7770040 		li	a5,1073770496
 400 0054 9443     		lw	a3,0(a5)
 401 0056 B7770040 		li	a5,1073770496
 402 005a 37170C00 		li	a4,790528
 403 005e 13070780 		addi	a4,a4,-2048
 404 0062 558F     		or	a4,a3,a4
 405 0064 98C3     		sw	a4,0(a5)
 406 0066 21A8     		j	.L11
 407              	.L12:
 175:../Firmware/GD32VW55x_standard_peripheral/Source/gd32vw55x_pmu.c ****         }else{
 176:../Firmware/GD32VW55x_standard_peripheral/Source/gd32vw55x_pmu.c ****             PMU_CTL0 |= (uint32_t)(PMU_CTL0_LDEN | PMU_CTL0_LDLP);
 408              		.loc 1 176 22
 409 0068 B7770040 		li	a5,1073770496
 410 006c 9443     		lw	a3,0(a5)
 411 006e B7770040 		li	a5,1073770496
 412 0072 37070C00 		li	a4,786432
 413 0076 13070740 		addi	a4,a4,1024
 414 007a 558F     		or	a4,a3,a4
 415 007c 98C3     		sw	a4,0(a5)
 416              	.L11:
 417 007e 8547     		li	a5,1
 418 0080 2326F4FE 		sw	a5,-20(s0)
 419              	.LBB69:
 420              	.LBB70:
 421              	.LBB71:
 776:../Firmware/RISCV/drivers/core_feature_base.h **** }
 422              		.loc 2 776 5
 423 0084 8324C4FE 		lw	s1,-20(s0)
 424              	 #APP
 425              	# 776 "../Firmware/RISCV/drivers/core_feature_base.h" 1
 426              		csrw 0x811, s1
 427              	# 0 "" 2
 428              	 #NO_APP
 429              	.LBE71:
 430              		.loc 2 777 1
 431 008c 0100     		nop
 432              	.LBE70:
 433              	.LBE69:
 177:../Firmware/GD32VW55x_standard_peripheral/Source/gd32vw55x_pmu.c ****         }
 178:../Firmware/GD32VW55x_standard_peripheral/Source/gd32vw55x_pmu.c ****     }
 179:../Firmware/GD32VW55x_standard_peripheral/Source/gd32vw55x_pmu.c **** 
 180:../Firmware/GD32VW55x_standard_peripheral/Source/gd32vw55x_pmu.c ****     /* set CSR_SLEEPVALUE bit of RISC-V system control register */
 181:../Firmware/GD32VW55x_standard_peripheral/Source/gd32vw55x_pmu.c ****     __set_wfi_sleepmode(WFI_DEEP_SLEEP);
 182:../Firmware/GD32VW55x_standard_peripheral/Source/gd32vw55x_pmu.c **** 
 183:../Firmware/GD32VW55x_standard_peripheral/Source/gd32vw55x_pmu.c ****     /* select WFI or WFE command to enter deepsleep mode */
 184:../Firmware/GD32VW55x_standard_peripheral/Source/gd32vw55x_pmu.c ****     if(WFI_CMD == deepsleepmodecmd){
 434              		.loc 1 184 7
 435 008e 834774FD 		lbu	a5,-41(s0)
 436 0092 99E7     		bne	a5,zero,.L13
 437              	.LBB72:
 438              	.LBB73:
 439              	.LBB74:
 718:../Firmware/RISCV/drivers/core_feature_base.h ****     __ASM volatile("wfi");
 440              		.loc 2 718 5
 441 0094 8544     		li	s1,1
 442              	 #APP
 443              	# 718 "../Firmware/RISCV/drivers/core_feature_base.h" 1
 444              		csrc 0x810, s1
 445              	# 0 "" 2
 446              	 #NO_APP
 447              	.LBE74:
 719:../Firmware/RISCV/drivers/core_feature_base.h **** }
 448              		.loc 2 719 5
 449              	 #APP
 450              	# 719 "../Firmware/RISCV/drivers/core_feature_base.h" 1
 720:../Firmware/RISCV/drivers/core_feature_base.h **** 
 451              		wfi
 452              	# 0 "" 2
 453              		.loc 2 720 1
 454              	 #NO_APP
 455 009e 15A0     		j	.L14
 456              	.L13:
 457              	.LBE73:
 458              	.LBE72:
 459              	.LBB75:
 460              	.LBB76:
 461              	.LBB77:
 598:../Firmware/RISCV/drivers/core_feature_base.h **** }
 462              		.loc 2 598 5
 463 00a0 A144     		li	s1,8
 464              	 #APP
 465              	# 598 "../Firmware/RISCV/drivers/core_feature_base.h" 1
 466              		csrc 0x300, s1
 467              	# 0 "" 2
 468              	 #NO_APP
 469              	.LBE77:
 599:../Firmware/RISCV/drivers/core_feature_base.h **** 
 470              		.loc 2 599 1
 471 00a6 0100     		nop
 472              	.LBE76:
 473              	.LBE75:
 474              	.LBB78:
 475              	.LBB79:
 476              	.LBB80:
 731:../Firmware/RISCV/drivers/core_feature_base.h ****     __ASM volatile("wfi");
 477              		.loc 2 731 5
 478 00a8 8544     		li	s1,1
 479              	 #APP
 480              	# 731 "../Firmware/RISCV/drivers/core_feature_base.h" 1
 481              		csrs 0x810, s1
 482              	# 0 "" 2
 483              	 #NO_APP
 484              	.LBE80:
 732:../Firmware/RISCV/drivers/core_feature_base.h ****     __RV_CSR_CLEAR(CSR_WFE, WFE_WFE);
 485              		.loc 2 732 5
 486              	 #APP
 487              	# 732 "../Firmware/RISCV/drivers/core_feature_base.h" 1
 488              		wfi
 489              	# 0 "" 2
 490              	 #NO_APP
 491              	.LBB81:
 733:../Firmware/RISCV/drivers/core_feature_base.h **** }
 492              		.loc 2 733 5
 493 00b2 8544     		li	s1,1
 494              	 #APP
 495              	# 733 "../Firmware/RISCV/drivers/core_feature_base.h" 1
 496              		csrc 0x810, s1
 497              	# 0 "" 2
 498              	 #NO_APP
 499              	.LBE81:
 734:../Firmware/RISCV/drivers/core_feature_base.h **** 
 500              		.loc 2 734 1
 501 00b8 0100     		nop
 502              	.LBE79:
 503              	.LBE78:
 504              	.LBB82:
 505              	.LBB83:
 506              	.LBB84:
 587:../Firmware/RISCV/drivers/core_feature_base.h **** }
 507              		.loc 2 587 5
 508 00ba A144     		li	s1,8
 509              	 #APP
 510              	# 587 "../Firmware/RISCV/drivers/core_feature_base.h" 1
 511              		csrs 0x300, s1
 512              	# 0 "" 2
 513              	 #NO_APP
 514              	.LBE84:
 588:../Firmware/RISCV/drivers/core_feature_base.h **** 
 515              		.loc 2 588 1
 516 00c0 0100     		nop
 517              	.L14:
 518 00c2 232404FE 		sw	zero,-24(s0)
 519              	.LBE83:
 520              	.LBE82:
 521              	.LBB85:
 522              	.LBB86:
 523              	.LBB87:
 776:../Firmware/RISCV/drivers/core_feature_base.h **** }
 524              		.loc 2 776 5
 525 00c6 832484FE 		lw	s1,-24(s0)
 526              	 #APP
 527              	# 776 "../Firmware/RISCV/drivers/core_feature_base.h" 1
 528              		csrw 0x811, s1
 529              	# 0 "" 2
 530              	 #NO_APP
 531              	.LBE87:
 532              		.loc 2 777 1
 533 00ce 0100     		nop
 534              	.LBE86:
 535              	.LBE85:
 185:../Firmware/GD32VW55x_standard_peripheral/Source/gd32vw55x_pmu.c ****         __WFI();
 186:../Firmware/GD32VW55x_standard_peripheral/Source/gd32vw55x_pmu.c ****     }else{
 187:../Firmware/GD32VW55x_standard_peripheral/Source/gd32vw55x_pmu.c ****         __disable_irq();
 188:../Firmware/GD32VW55x_standard_peripheral/Source/gd32vw55x_pmu.c ****         __WFE();
 189:../Firmware/GD32VW55x_standard_peripheral/Source/gd32vw55x_pmu.c ****         __enable_irq();
 190:../Firmware/GD32VW55x_standard_peripheral/Source/gd32vw55x_pmu.c ****     }
 191:../Firmware/GD32VW55x_standard_peripheral/Source/gd32vw55x_pmu.c ****     /* reset sleepdeep bit of RISC-V system control register */
 192:../Firmware/GD32VW55x_standard_peripheral/Source/gd32vw55x_pmu.c ****     __set_wfi_sleepmode(WFI_SHALLOW_SLEEP);
 193:../Firmware/GD32VW55x_standard_peripheral/Source/gd32vw55x_pmu.c **** }
 536              		.loc 1 193 1
 537 00d0 0100     		nop
 538 00d2 3254     		lw	s0,44(sp)
 539              		.cfi_restore 8
 540              		.cfi_def_cfa 2, 48
 541 00d4 A254     		lw	s1,40(sp)
 542              		.cfi_restore 9
 543 00d6 4561     		addi	sp,sp,48
 544              		.cfi_def_cfa_offset 0
 545 00d8 8280     		jr	ra
 546              		.cfi_endproc
 547              	.LFE354:
 549              		.section	.text.pmu_to_standbymode,"ax",@progbits
 550              		.align	1
 551              		.globl	pmu_to_standbymode
 553              	pmu_to_standbymode:
 554              	.LFB355:
 194:../Firmware/GD32VW55x_standard_peripheral/Source/gd32vw55x_pmu.c **** 
 195:../Firmware/GD32VW55x_standard_peripheral/Source/gd32vw55x_pmu.c **** /*!
 196:../Firmware/GD32VW55x_standard_peripheral/Source/gd32vw55x_pmu.c ****     \brief      PMU work in standby mode
 197:../Firmware/GD32VW55x_standard_peripheral/Source/gd32vw55x_pmu.c ****     \param[in]  standbymodecmd:
 198:../Firmware/GD32VW55x_standard_peripheral/Source/gd32vw55x_pmu.c ****                 only one parameter can be selected which is shown as below:
 199:../Firmware/GD32VW55x_standard_peripheral/Source/gd32vw55x_pmu.c ****       \arg        WFI_CMD: use WFI command
 200:../Firmware/GD32VW55x_standard_peripheral/Source/gd32vw55x_pmu.c ****       \arg        WFE_CMD: use WFE command
 201:../Firmware/GD32VW55x_standard_peripheral/Source/gd32vw55x_pmu.c ****     \param[out] none
 202:../Firmware/GD32VW55x_standard_peripheral/Source/gd32vw55x_pmu.c ****     \retval     none
 203:../Firmware/GD32VW55x_standard_peripheral/Source/gd32vw55x_pmu.c **** */
 204:../Firmware/GD32VW55x_standard_peripheral/Source/gd32vw55x_pmu.c **** void pmu_to_standbymode(uint8_t standbymodecmd)
 205:../Firmware/GD32VW55x_standard_peripheral/Source/gd32vw55x_pmu.c **** {
 555              		.loc 1 205 1
 556              		.cfi_startproc
 557 0000 7971     		addi	sp,sp,-48
 558              		.cfi_def_cfa_offset 48
 559 0002 22D6     		sw	s0,44(sp)
 560 0004 26D4     		sw	s1,40(sp)
 561              		.cfi_offset 8, -4
 562              		.cfi_offset 9, -8
 563 0006 0018     		addi	s0,sp,48
 564              		.cfi_def_cfa 8, 0
 565 0008 AA87     		mv	a5,a0
 566 000a A30FF4FC 		sb	a5,-33(s0)
 567 000e 8547     		li	a5,1
 568 0010 2326F4FE 		sw	a5,-20(s0)
 569              	.LBB88:
 570              	.LBB89:
 571              	.LBB90:
 776:../Firmware/RISCV/drivers/core_feature_base.h **** }
 572              		.loc 2 776 5
 573 0014 8324C4FE 		lw	s1,-20(s0)
 574              	 #APP
 575              	# 776 "../Firmware/RISCV/drivers/core_feature_base.h" 1
 576              		csrw 0x811, s1
 577              	# 0 "" 2
 578              	 #NO_APP
 579              	.LBE90:
 580              		.loc 2 777 1
 581 001c 0100     		nop
 582              	.LBE89:
 583              	.LBE88:
 206:../Firmware/GD32VW55x_standard_peripheral/Source/gd32vw55x_pmu.c ****     /* set CSR_SLEEPVALUE bit of RISC-V system control register */
 207:../Firmware/GD32VW55x_standard_peripheral/Source/gd32vw55x_pmu.c ****     __set_wfi_sleepmode(WFI_DEEP_SLEEP);
 208:../Firmware/GD32VW55x_standard_peripheral/Source/gd32vw55x_pmu.c **** 
 209:../Firmware/GD32VW55x_standard_peripheral/Source/gd32vw55x_pmu.c ****     /* set stbmod bit */
 210:../Firmware/GD32VW55x_standard_peripheral/Source/gd32vw55x_pmu.c ****     PMU_CTL0 |= PMU_CTL0_STBMOD;
 584              		.loc 1 210 14
 585 001e B7770040 		li	a5,1073770496
 586 0022 9843     		lw	a4,0(a5)
 587 0024 B7770040 		li	a5,1073770496
 588 0028 13672700 		ori	a4,a4,2
 589 002c 98C3     		sw	a4,0(a5)
 211:../Firmware/GD32VW55x_standard_peripheral/Source/gd32vw55x_pmu.c **** 
 212:../Firmware/GD32VW55x_standard_peripheral/Source/gd32vw55x_pmu.c ****     /* reset wakeup flag */
 213:../Firmware/GD32VW55x_standard_peripheral/Source/gd32vw55x_pmu.c ****     PMU_CTL0 |= PMU_CTL0_WURST;
 590              		.loc 1 213 14
 591 002e B7770040 		li	a5,1073770496
 592 0032 9843     		lw	a4,0(a5)
 593 0034 B7770040 		li	a5,1073770496
 594 0038 13674700 		ori	a4,a4,4
 595 003c 98C3     		sw	a4,0(a5)
 214:../Firmware/GD32VW55x_standard_peripheral/Source/gd32vw55x_pmu.c **** 
 215:../Firmware/GD32VW55x_standard_peripheral/Source/gd32vw55x_pmu.c ****     /* select WFI or WFE command to enter standby mode */
 216:../Firmware/GD32VW55x_standard_peripheral/Source/gd32vw55x_pmu.c ****     if(WFI_CMD == standbymodecmd){
 596              		.loc 1 216 7
 597 003e 8347F4FD 		lbu	a5,-33(s0)
 598 0042 99E7     		bne	a5,zero,.L16
 599              	.LBB91:
 600              	.LBB92:
 601              	.LBB93:
 718:../Firmware/RISCV/drivers/core_feature_base.h ****     __ASM volatile("wfi");
 602              		.loc 2 718 5
 603 0044 8544     		li	s1,1
 604              	 #APP
 605              	# 718 "../Firmware/RISCV/drivers/core_feature_base.h" 1
 606              		csrc 0x810, s1
 607              	# 0 "" 2
 608              	 #NO_APP
 609              	.LBE93:
 719:../Firmware/RISCV/drivers/core_feature_base.h **** }
 610              		.loc 2 719 5
 611              	 #APP
 612              	# 719 "../Firmware/RISCV/drivers/core_feature_base.h" 1
 720:../Firmware/RISCV/drivers/core_feature_base.h **** 
 613              		wfi
 614              	# 0 "" 2
 615              		.loc 2 720 1
 616              	 #NO_APP
 617 004e 15A0     		j	.L17
 618              	.L16:
 619              	.LBE92:
 620              	.LBE91:
 621              	.LBB94:
 622              	.LBB95:
 623              	.LBB96:
 598:../Firmware/RISCV/drivers/core_feature_base.h **** }
 624              		.loc 2 598 5
 625 0050 A144     		li	s1,8
 626              	 #APP
 627              	# 598 "../Firmware/RISCV/drivers/core_feature_base.h" 1
 628              		csrc 0x300, s1
 629              	# 0 "" 2
 630              	 #NO_APP
 631              	.LBE96:
 599:../Firmware/RISCV/drivers/core_feature_base.h **** 
 632              		.loc 2 599 1
 633 0056 0100     		nop
 634              	.LBE95:
 635              	.LBE94:
 636              	.LBB97:
 637              	.LBB98:
 638              	.LBB99:
 731:../Firmware/RISCV/drivers/core_feature_base.h ****     __ASM volatile("wfi");
 639              		.loc 2 731 5
 640 0058 8544     		li	s1,1
 641              	 #APP
 642              	# 731 "../Firmware/RISCV/drivers/core_feature_base.h" 1
 643              		csrs 0x810, s1
 644              	# 0 "" 2
 645              	 #NO_APP
 646              	.LBE99:
 732:../Firmware/RISCV/drivers/core_feature_base.h ****     __RV_CSR_CLEAR(CSR_WFE, WFE_WFE);
 647              		.loc 2 732 5
 648              	 #APP
 649              	# 732 "../Firmware/RISCV/drivers/core_feature_base.h" 1
 650              		wfi
 651              	# 0 "" 2
 652              	 #NO_APP
 653              	.LBB100:
 733:../Firmware/RISCV/drivers/core_feature_base.h **** }
 654              		.loc 2 733 5
 655 0062 8544     		li	s1,1
 656              	 #APP
 657              	# 733 "../Firmware/RISCV/drivers/core_feature_base.h" 1
 658              		csrc 0x810, s1
 659              	# 0 "" 2
 660              	 #NO_APP
 661              	.LBE100:
 734:../Firmware/RISCV/drivers/core_feature_base.h **** 
 662              		.loc 2 734 1
 663 0068 0100     		nop
 664              	.LBE98:
 665              	.LBE97:
 666              	.LBB101:
 667              	.LBB102:
 668              	.LBB103:
 587:../Firmware/RISCV/drivers/core_feature_base.h **** }
 669              		.loc 2 587 5
 670 006a A144     		li	s1,8
 671              	 #APP
 672              	# 587 "../Firmware/RISCV/drivers/core_feature_base.h" 1
 673              		csrs 0x300, s1
 674              	# 0 "" 2
 675              	 #NO_APP
 676              	.LBE103:
 588:../Firmware/RISCV/drivers/core_feature_base.h **** 
 677              		.loc 2 588 1
 678 0070 0100     		nop
 679              	.L17:
 680              	.LBE102:
 681              	.LBE101:
 217:../Firmware/GD32VW55x_standard_peripheral/Source/gd32vw55x_pmu.c ****         __WFI();
 218:../Firmware/GD32VW55x_standard_peripheral/Source/gd32vw55x_pmu.c ****     }else{
 219:../Firmware/GD32VW55x_standard_peripheral/Source/gd32vw55x_pmu.c ****         __disable_irq();
 220:../Firmware/GD32VW55x_standard_peripheral/Source/gd32vw55x_pmu.c ****         __WFE();
 221:../Firmware/GD32VW55x_standard_peripheral/Source/gd32vw55x_pmu.c ****         __enable_irq();
 222:../Firmware/GD32VW55x_standard_peripheral/Source/gd32vw55x_pmu.c ****     }
 223:../Firmware/GD32VW55x_standard_peripheral/Source/gd32vw55x_pmu.c **** }
 682              		.loc 1 223 1
 683 0072 0100     		nop
 684 0074 3254     		lw	s0,44(sp)
 685              		.cfi_restore 8
 686              		.cfi_def_cfa 2, 48
 687 0076 A254     		lw	s1,40(sp)
 688              		.cfi_restore 9
 689 0078 4561     		addi	sp,sp,48
 690              		.cfi_def_cfa_offset 0
 691 007a 8280     		jr	ra
 692              		.cfi_endproc
 693              	.LFE355:
 695              		.section	.text.pmu_wakeup_pin_enable,"ax",@progbits
 696              		.align	1
 697              		.globl	pmu_wakeup_pin_enable
 699              	pmu_wakeup_pin_enable:
 700              	.LFB356:
 224:../Firmware/GD32VW55x_standard_peripheral/Source/gd32vw55x_pmu.c **** 
 225:../Firmware/GD32VW55x_standard_peripheral/Source/gd32vw55x_pmu.c **** /*!
 226:../Firmware/GD32VW55x_standard_peripheral/Source/gd32vw55x_pmu.c ****     \brief      enable wakeup pin
 227:../Firmware/GD32VW55x_standard_peripheral/Source/gd32vw55x_pmu.c ****     \param[in]  wakeup_pin:
 228:../Firmware/GD32VW55x_standard_peripheral/Source/gd32vw55x_pmu.c ****                 one or more parameters can be selected which are shown as below:
 229:../Firmware/GD32VW55x_standard_peripheral/Source/gd32vw55x_pmu.c ****       \arg        PMU_WAKEUP_PIN0: WKUP Pin 0 (PA0)
 230:../Firmware/GD32VW55x_standard_peripheral/Source/gd32vw55x_pmu.c ****       \arg        PMU_WAKEUP_PIN1: WKUP Pin 1 (PA15)
 231:../Firmware/GD32VW55x_standard_peripheral/Source/gd32vw55x_pmu.c ****       \arg        PMU_WAKEUP_PIN2: WKUP Pin 2 (PA7)
 232:../Firmware/GD32VW55x_standard_peripheral/Source/gd32vw55x_pmu.c ****       \arg        PMU_WAKEUP_PIN3: WKUP Pin 3 (PA12)
 233:../Firmware/GD32VW55x_standard_peripheral/Source/gd32vw55x_pmu.c ****     \param[out] none
 234:../Firmware/GD32VW55x_standard_peripheral/Source/gd32vw55x_pmu.c ****     \retval     none
 235:../Firmware/GD32VW55x_standard_peripheral/Source/gd32vw55x_pmu.c **** */
 236:../Firmware/GD32VW55x_standard_peripheral/Source/gd32vw55x_pmu.c **** void pmu_wakeup_pin_enable(uint32_t wakeup_pin)
 237:../Firmware/GD32VW55x_standard_peripheral/Source/gd32vw55x_pmu.c **** {
 701              		.loc 1 237 1
 702              		.cfi_startproc
 703 0000 0111     		addi	sp,sp,-32
 704              		.cfi_def_cfa_offset 32
 705 0002 22CE     		sw	s0,28(sp)
 706              		.cfi_offset 8, -4
 707 0004 0010     		addi	s0,sp,32
 708              		.cfi_def_cfa 8, 0
 709 0006 2326A4FE 		sw	a0,-20(s0)
 238:../Firmware/GD32VW55x_standard_peripheral/Source/gd32vw55x_pmu.c ****     PMU_CS0 |= wakeup_pin;
 710              		.loc 1 238 13
 711 000a B7770040 		li	a5,1073770496
 712 000e 9107     		addi	a5,a5,4
 713 0010 9443     		lw	a3,0(a5)
 714 0012 B7770040 		li	a5,1073770496
 715 0016 9107     		addi	a5,a5,4
 716 0018 0327C4FE 		lw	a4,-20(s0)
 717 001c 558F     		or	a4,a3,a4
 718 001e 98C3     		sw	a4,0(a5)
 239:../Firmware/GD32VW55x_standard_peripheral/Source/gd32vw55x_pmu.c **** }
 719              		.loc 1 239 1
 720 0020 0100     		nop
 721 0022 7244     		lw	s0,28(sp)
 722              		.cfi_restore 8
 723              		.cfi_def_cfa 2, 32
 724 0024 0561     		addi	sp,sp,32
 725              		.cfi_def_cfa_offset 0
 726 0026 8280     		jr	ra
 727              		.cfi_endproc
 728              	.LFE356:
 730              		.section	.text.pmu_wakeup_pin_disable,"ax",@progbits
 731              		.align	1
 732              		.globl	pmu_wakeup_pin_disable
 734              	pmu_wakeup_pin_disable:
 735              	.LFB357:
 240:../Firmware/GD32VW55x_standard_peripheral/Source/gd32vw55x_pmu.c **** 
 241:../Firmware/GD32VW55x_standard_peripheral/Source/gd32vw55x_pmu.c **** /*!
 242:../Firmware/GD32VW55x_standard_peripheral/Source/gd32vw55x_pmu.c ****     \brief      disable wakeup pin
 243:../Firmware/GD32VW55x_standard_peripheral/Source/gd32vw55x_pmu.c ****     \param[in]  wakeup_pin:
 244:../Firmware/GD32VW55x_standard_peripheral/Source/gd32vw55x_pmu.c ****                 one or more parameters can be selected which are shown as below:
 245:../Firmware/GD32VW55x_standard_peripheral/Source/gd32vw55x_pmu.c ****       \arg        PMU_WAKEUP_PIN0: WKUP Pin 0 (PA0)
 246:../Firmware/GD32VW55x_standard_peripheral/Source/gd32vw55x_pmu.c ****       \arg        PMU_WAKEUP_PIN1: WKUP Pin 1 (PA15)
 247:../Firmware/GD32VW55x_standard_peripheral/Source/gd32vw55x_pmu.c ****       \arg        PMU_WAKEUP_PIN2: WKUP Pin 2 (PA7)
 248:../Firmware/GD32VW55x_standard_peripheral/Source/gd32vw55x_pmu.c ****       \arg        PMU_WAKEUP_PIN3: WKUP Pin 3 (PA12)
 249:../Firmware/GD32VW55x_standard_peripheral/Source/gd32vw55x_pmu.c ****     \param[out] none
 250:../Firmware/GD32VW55x_standard_peripheral/Source/gd32vw55x_pmu.c ****     \retval     none
 251:../Firmware/GD32VW55x_standard_peripheral/Source/gd32vw55x_pmu.c **** */
 252:../Firmware/GD32VW55x_standard_peripheral/Source/gd32vw55x_pmu.c **** void pmu_wakeup_pin_disable(uint32_t wakeup_pin)
 253:../Firmware/GD32VW55x_standard_peripheral/Source/gd32vw55x_pmu.c **** {
 736              		.loc 1 253 1
 737              		.cfi_startproc
 738 0000 0111     		addi	sp,sp,-32
 739              		.cfi_def_cfa_offset 32
 740 0002 22CE     		sw	s0,28(sp)
 741              		.cfi_offset 8, -4
 742 0004 0010     		addi	s0,sp,32
 743              		.cfi_def_cfa 8, 0
 744 0006 2326A4FE 		sw	a0,-20(s0)
 254:../Firmware/GD32VW55x_standard_peripheral/Source/gd32vw55x_pmu.c ****     PMU_CS0 &= ~(wakeup_pin);
 745              		.loc 1 254 13
 746 000a B7770040 		li	a5,1073770496
 747 000e 9107     		addi	a5,a5,4
 748 0010 9443     		lw	a3,0(a5)
 749              		.loc 1 254 16
 750 0012 8327C4FE 		lw	a5,-20(s0)
 751 0016 13C7F7FF 		not	a4,a5
 752              		.loc 1 254 13
 753 001a B7770040 		li	a5,1073770496
 754 001e 9107     		addi	a5,a5,4
 755 0020 758F     		and	a4,a3,a4
 756 0022 98C3     		sw	a4,0(a5)
 255:../Firmware/GD32VW55x_standard_peripheral/Source/gd32vw55x_pmu.c **** }
 757              		.loc 1 255 1
 758 0024 0100     		nop
 759 0026 7244     		lw	s0,28(sp)
 760              		.cfi_restore 8
 761              		.cfi_def_cfa 2, 32
 762 0028 0561     		addi	sp,sp,32
 763              		.cfi_def_cfa_offset 0
 764 002a 8280     		jr	ra
 765              		.cfi_endproc
 766              	.LFE357:
 768              		.section	.text.pmu_wifi_power_enable,"ax",@progbits
 769              		.align	1
 770              		.globl	pmu_wifi_power_enable
 772              	pmu_wifi_power_enable:
 773              	.LFB358:
 256:../Firmware/GD32VW55x_standard_peripheral/Source/gd32vw55x_pmu.c **** 
 257:../Firmware/GD32VW55x_standard_peripheral/Source/gd32vw55x_pmu.c **** /*!
 258:../Firmware/GD32VW55x_standard_peripheral/Source/gd32vw55x_pmu.c ****     \brief      enable WIFI power
 259:../Firmware/GD32VW55x_standard_peripheral/Source/gd32vw55x_pmu.c ****     \param[in]  none
 260:../Firmware/GD32VW55x_standard_peripheral/Source/gd32vw55x_pmu.c ****     \param[out] none
 261:../Firmware/GD32VW55x_standard_peripheral/Source/gd32vw55x_pmu.c ****     \retval     none
 262:../Firmware/GD32VW55x_standard_peripheral/Source/gd32vw55x_pmu.c **** */
 263:../Firmware/GD32VW55x_standard_peripheral/Source/gd32vw55x_pmu.c **** void pmu_wifi_power_enable(void)
 264:../Firmware/GD32VW55x_standard_peripheral/Source/gd32vw55x_pmu.c **** {
 774              		.loc 1 264 1
 775              		.cfi_startproc
 776 0000 4111     		addi	sp,sp,-16
 777              		.cfi_def_cfa_offset 16
 778 0002 22C6     		sw	s0,12(sp)
 779              		.cfi_offset 8, -4
 780 0004 0008     		addi	s0,sp,16
 781              		.cfi_def_cfa 8, 0
 265:../Firmware/GD32VW55x_standard_peripheral/Source/gd32vw55x_pmu.c ****     PMU_CTL1 |= PMU_CTL1_WPEN;
 782              		.loc 1 265 14
 783 0006 B7770040 		li	a5,1073770496
 784 000a A107     		addi	a5,a5,8
 785 000c 9843     		lw	a4,0(a5)
 786 000e B7770040 		li	a5,1073770496
 787 0012 A107     		addi	a5,a5,8
 788 0014 13672700 		ori	a4,a4,2
 789 0018 98C3     		sw	a4,0(a5)
 266:../Firmware/GD32VW55x_standard_peripheral/Source/gd32vw55x_pmu.c **** }
 790              		.loc 1 266 1
 791 001a 0100     		nop
 792 001c 3244     		lw	s0,12(sp)
 793              		.cfi_restore 8
 794              		.cfi_def_cfa 2, 16
 795 001e 4101     		addi	sp,sp,16
 796              		.cfi_def_cfa_offset 0
 797 0020 8280     		jr	ra
 798              		.cfi_endproc
 799              	.LFE358:
 801              		.section	.text.pmu_wifi_power_disable,"ax",@progbits
 802              		.align	1
 803              		.globl	pmu_wifi_power_disable
 805              	pmu_wifi_power_disable:
 806              	.LFB359:
 267:../Firmware/GD32VW55x_standard_peripheral/Source/gd32vw55x_pmu.c **** 
 268:../Firmware/GD32VW55x_standard_peripheral/Source/gd32vw55x_pmu.c **** /*!
 269:../Firmware/GD32VW55x_standard_peripheral/Source/gd32vw55x_pmu.c ****     \brief      disable WIFI power
 270:../Firmware/GD32VW55x_standard_peripheral/Source/gd32vw55x_pmu.c ****     \param[in]  none
 271:../Firmware/GD32VW55x_standard_peripheral/Source/gd32vw55x_pmu.c ****     \param[out] none
 272:../Firmware/GD32VW55x_standard_peripheral/Source/gd32vw55x_pmu.c ****     \retval     none
 273:../Firmware/GD32VW55x_standard_peripheral/Source/gd32vw55x_pmu.c **** */
 274:../Firmware/GD32VW55x_standard_peripheral/Source/gd32vw55x_pmu.c **** void pmu_wifi_power_disable(void)
 275:../Firmware/GD32VW55x_standard_peripheral/Source/gd32vw55x_pmu.c **** {
 807              		.loc 1 275 1
 808              		.cfi_startproc
 809 0000 4111     		addi	sp,sp,-16
 810              		.cfi_def_cfa_offset 16
 811 0002 22C6     		sw	s0,12(sp)
 812              		.cfi_offset 8, -4
 813 0004 0008     		addi	s0,sp,16
 814              		.cfi_def_cfa 8, 0
 276:../Firmware/GD32VW55x_standard_peripheral/Source/gd32vw55x_pmu.c ****     PMU_CTL1 &= ~PMU_CTL1_WPEN;
 815              		.loc 1 276 14
 816 0006 B7770040 		li	a5,1073770496
 817 000a A107     		addi	a5,a5,8
 818 000c 9843     		lw	a4,0(a5)
 819 000e B7770040 		li	a5,1073770496
 820 0012 A107     		addi	a5,a5,8
 821 0014 759B     		andi	a4,a4,-3
 822 0016 98C3     		sw	a4,0(a5)
 277:../Firmware/GD32VW55x_standard_peripheral/Source/gd32vw55x_pmu.c **** }
 823              		.loc 1 277 1
 824 0018 0100     		nop
 825 001a 3244     		lw	s0,12(sp)
 826              		.cfi_restore 8
 827              		.cfi_def_cfa 2, 16
 828 001c 4101     		addi	sp,sp,16
 829              		.cfi_def_cfa_offset 0
 830 001e 8280     		jr	ra
 831              		.cfi_endproc
 832              	.LFE359:
 834              		.section	.text.pmu_wifi_sram_control,"ax",@progbits
 835              		.align	1
 836              		.globl	pmu_wifi_sram_control
 838              	pmu_wifi_sram_control:
 839              	.LFB360:
 278:../Firmware/GD32VW55x_standard_peripheral/Source/gd32vw55x_pmu.c **** 
 279:../Firmware/GD32VW55x_standard_peripheral/Source/gd32vw55x_pmu.c **** /*!
 280:../Firmware/GD32VW55x_standard_peripheral/Source/gd32vw55x_pmu.c ****     \brief      WIFI & SRAM low power control
 281:../Firmware/GD32VW55x_standard_peripheral/Source/gd32vw55x_pmu.c ****     \param[in]  wifi_sram:
 282:../Firmware/GD32VW55x_standard_peripheral/Source/gd32vw55x_pmu.c ****                 one or more parameters can be selected which are shown as below:
 283:../Firmware/GD32VW55x_standard_peripheral/Source/gd32vw55x_pmu.c ****       \arg        PMU_WIFI_SLEEP: WIFI go to sleep
 284:../Firmware/GD32VW55x_standard_peripheral/Source/gd32vw55x_pmu.c ****       \arg        PMU_WIFI_WAKE: WIFI wakeup
 285:../Firmware/GD32VW55x_standard_peripheral/Source/gd32vw55x_pmu.c ****       \arg        PMU_SRAM1_SLEEP: SRAM1 go to sleep
 286:../Firmware/GD32VW55x_standard_peripheral/Source/gd32vw55x_pmu.c ****       \arg        PMU_SRAM1_WAKE: SRAM1 wakeup
 287:../Firmware/GD32VW55x_standard_peripheral/Source/gd32vw55x_pmu.c ****       \arg        PMU_SRAM2_SLEEP: SRAM2 go to sleep
 288:../Firmware/GD32VW55x_standard_peripheral/Source/gd32vw55x_pmu.c ****       \arg        PMU_SRAM2_WAKE: SRAM2 wakeup
 289:../Firmware/GD32VW55x_standard_peripheral/Source/gd32vw55x_pmu.c ****       \arg        PMU_SRAM3_SLEEP: SRAM3 go to sleep
 290:../Firmware/GD32VW55x_standard_peripheral/Source/gd32vw55x_pmu.c ****       \arg        PMU_SRAM3_WAKE: SRAM3 wakeup
 291:../Firmware/GD32VW55x_standard_peripheral/Source/gd32vw55x_pmu.c ****       \arg        PMU_SRAM0_SLEEP: SRAM0 go to sleep
 292:../Firmware/GD32VW55x_standard_peripheral/Source/gd32vw55x_pmu.c ****       \arg        PMU_SRAM0_WAKE: SRAM0 wakeup
 293:../Firmware/GD32VW55x_standard_peripheral/Source/gd32vw55x_pmu.c ****     \param[out] none
 294:../Firmware/GD32VW55x_standard_peripheral/Source/gd32vw55x_pmu.c ****     \retval     none
 295:../Firmware/GD32VW55x_standard_peripheral/Source/gd32vw55x_pmu.c **** */
 296:../Firmware/GD32VW55x_standard_peripheral/Source/gd32vw55x_pmu.c **** void pmu_wifi_sram_control(uint32_t wifi_sram)
 297:../Firmware/GD32VW55x_standard_peripheral/Source/gd32vw55x_pmu.c **** {
 840              		.loc 1 297 1
 841              		.cfi_startproc
 842 0000 0111     		addi	sp,sp,-32
 843              		.cfi_def_cfa_offset 32
 844 0002 22CE     		sw	s0,28(sp)
 845              		.cfi_offset 8, -4
 846 0004 0010     		addi	s0,sp,32
 847              		.cfi_def_cfa 8, 0
 848 0006 2326A4FE 		sw	a0,-20(s0)
 298:../Firmware/GD32VW55x_standard_peripheral/Source/gd32vw55x_pmu.c ****     PMU_CTL1 |= wifi_sram;
 849              		.loc 1 298 14
 850 000a B7770040 		li	a5,1073770496
 851 000e A107     		addi	a5,a5,8
 852 0010 9443     		lw	a3,0(a5)
 853 0012 B7770040 		li	a5,1073770496
 854 0016 A107     		addi	a5,a5,8
 855 0018 0327C4FE 		lw	a4,-20(s0)
 856 001c 558F     		or	a4,a3,a4
 857 001e 98C3     		sw	a4,0(a5)
 299:../Firmware/GD32VW55x_standard_peripheral/Source/gd32vw55x_pmu.c **** }
 858              		.loc 1 299 1
 859 0020 0100     		nop
 860 0022 7244     		lw	s0,28(sp)
 861              		.cfi_restore 8
 862              		.cfi_def_cfa 2, 32
 863 0024 0561     		addi	sp,sp,32
 864              		.cfi_def_cfa_offset 0
 865 0026 8280     		jr	ra
 866              		.cfi_endproc
 867              	.LFE360:
 869              		.section	.text.pmu_ble_control,"ax",@progbits
 870              		.align	1
 871              		.globl	pmu_ble_control
 873              	pmu_ble_control:
 874              	.LFB361:
 300:../Firmware/GD32VW55x_standard_peripheral/Source/gd32vw55x_pmu.c **** 
 301:../Firmware/GD32VW55x_standard_peripheral/Source/gd32vw55x_pmu.c **** /*!
 302:../Firmware/GD32VW55x_standard_peripheral/Source/gd32vw55x_pmu.c ****     \brief      BLE low power control
 303:../Firmware/GD32VW55x_standard_peripheral/Source/gd32vw55x_pmu.c ****     \param[in]  ble:
 304:../Firmware/GD32VW55x_standard_peripheral/Source/gd32vw55x_pmu.c ****                 one or more parameters can be selected which are shown as below:
 305:../Firmware/GD32VW55x_standard_peripheral/Source/gd32vw55x_pmu.c ****       \arg        PMU_BLE_SLEEP: BLE go to sleep
 306:../Firmware/GD32VW55x_standard_peripheral/Source/gd32vw55x_pmu.c ****       \arg        PMU_BLE_WAKE: BLE wakeup
 307:../Firmware/GD32VW55x_standard_peripheral/Source/gd32vw55x_pmu.c ****     \param[out] none
 308:../Firmware/GD32VW55x_standard_peripheral/Source/gd32vw55x_pmu.c ****     \retval     none
 309:../Firmware/GD32VW55x_standard_peripheral/Source/gd32vw55x_pmu.c **** */
 310:../Firmware/GD32VW55x_standard_peripheral/Source/gd32vw55x_pmu.c **** void pmu_ble_control(uint32_t ble)
 311:../Firmware/GD32VW55x_standard_peripheral/Source/gd32vw55x_pmu.c **** {
 875              		.loc 1 311 1
 876              		.cfi_startproc
 877 0000 0111     		addi	sp,sp,-32
 878              		.cfi_def_cfa_offset 32
 879 0002 22CE     		sw	s0,28(sp)
 880              		.cfi_offset 8, -4
 881 0004 0010     		addi	s0,sp,32
 882              		.cfi_def_cfa 8, 0
 883 0006 2326A4FE 		sw	a0,-20(s0)
 312:../Firmware/GD32VW55x_standard_peripheral/Source/gd32vw55x_pmu.c ****     PMU_CTL1 |= ble;
 884              		.loc 1 312 14
 885 000a B7770040 		li	a5,1073770496
 886 000e A107     		addi	a5,a5,8
 887 0010 9443     		lw	a3,0(a5)
 888 0012 B7770040 		li	a5,1073770496
 889 0016 A107     		addi	a5,a5,8
 890 0018 0327C4FE 		lw	a4,-20(s0)
 891 001c 558F     		or	a4,a3,a4
 892 001e 98C3     		sw	a4,0(a5)
 313:../Firmware/GD32VW55x_standard_peripheral/Source/gd32vw55x_pmu.c **** }
 893              		.loc 1 313 1
 894 0020 0100     		nop
 895 0022 7244     		lw	s0,28(sp)
 896              		.cfi_restore 8
 897              		.cfi_def_cfa 2, 32
 898 0024 0561     		addi	sp,sp,32
 899              		.cfi_def_cfa_offset 0
 900 0026 8280     		jr	ra
 901              		.cfi_endproc
 902              	.LFE361:
 904              		.section	.text.pmu_ble_wakeup_request_enable,"ax",@progbits
 905              		.align	1
 906              		.globl	pmu_ble_wakeup_request_enable
 908              	pmu_ble_wakeup_request_enable:
 909              	.LFB362:
 314:../Firmware/GD32VW55x_standard_peripheral/Source/gd32vw55x_pmu.c **** 
 315:../Firmware/GD32VW55x_standard_peripheral/Source/gd32vw55x_pmu.c **** /*!
 316:../Firmware/GD32VW55x_standard_peripheral/Source/gd32vw55x_pmu.c ****     \brief      enable BLE wakeup request
 317:../Firmware/GD32VW55x_standard_peripheral/Source/gd32vw55x_pmu.c ****     \param[in]  none
 318:../Firmware/GD32VW55x_standard_peripheral/Source/gd32vw55x_pmu.c ****     \param[out] none
 319:../Firmware/GD32VW55x_standard_peripheral/Source/gd32vw55x_pmu.c ****     \retval     none
 320:../Firmware/GD32VW55x_standard_peripheral/Source/gd32vw55x_pmu.c **** */
 321:../Firmware/GD32VW55x_standard_peripheral/Source/gd32vw55x_pmu.c **** void pmu_ble_wakeup_request_enable(void)
 322:../Firmware/GD32VW55x_standard_peripheral/Source/gd32vw55x_pmu.c **** {
 910              		.loc 1 322 1
 911              		.cfi_startproc
 912 0000 4111     		addi	sp,sp,-16
 913              		.cfi_def_cfa_offset 16
 914 0002 22C6     		sw	s0,12(sp)
 915              		.cfi_offset 8, -4
 916 0004 0008     		addi	s0,sp,16
 917              		.cfi_def_cfa 8, 0
 323:../Firmware/GD32VW55x_standard_peripheral/Source/gd32vw55x_pmu.c ****     PMU_CTL1 |= PMU_CTL1_BLE_WAKEUP_REQ;
 918              		.loc 1 323 14
 919 0006 B7770040 		li	a5,1073770496
 920 000a A107     		addi	a5,a5,8
 921 000c 9443     		lw	a3,0(a5)
 922 000e B7770040 		li	a5,1073770496
 923 0012 A107     		addi	a5,a5,8
 924 0014 37070002 		li	a4,33554432
 925 0018 558F     		or	a4,a3,a4
 926 001a 98C3     		sw	a4,0(a5)
 324:../Firmware/GD32VW55x_standard_peripheral/Source/gd32vw55x_pmu.c **** }
 927              		.loc 1 324 1
 928 001c 0100     		nop
 929 001e 3244     		lw	s0,12(sp)
 930              		.cfi_restore 8
 931              		.cfi_def_cfa 2, 16
 932 0020 4101     		addi	sp,sp,16
 933              		.cfi_def_cfa_offset 0
 934 0022 8280     		jr	ra
 935              		.cfi_endproc
 936              	.LFE362:
 938              		.section	.text.pmu_ble_wakeup_request_disable,"ax",@progbits
 939              		.align	1
 940              		.globl	pmu_ble_wakeup_request_disable
 942              	pmu_ble_wakeup_request_disable:
 943              	.LFB363:
 325:../Firmware/GD32VW55x_standard_peripheral/Source/gd32vw55x_pmu.c **** 
 326:../Firmware/GD32VW55x_standard_peripheral/Source/gd32vw55x_pmu.c **** /*!
 327:../Firmware/GD32VW55x_standard_peripheral/Source/gd32vw55x_pmu.c ****     \brief      disable ble wakeup request
 328:../Firmware/GD32VW55x_standard_peripheral/Source/gd32vw55x_pmu.c ****     \param[in]  none
 329:../Firmware/GD32VW55x_standard_peripheral/Source/gd32vw55x_pmu.c ****     \param[out] none
 330:../Firmware/GD32VW55x_standard_peripheral/Source/gd32vw55x_pmu.c ****     \retval     none
 331:../Firmware/GD32VW55x_standard_peripheral/Source/gd32vw55x_pmu.c **** */
 332:../Firmware/GD32VW55x_standard_peripheral/Source/gd32vw55x_pmu.c **** void pmu_ble_wakeup_request_disable(void)
 333:../Firmware/GD32VW55x_standard_peripheral/Source/gd32vw55x_pmu.c **** {
 944              		.loc 1 333 1
 945              		.cfi_startproc
 946 0000 4111     		addi	sp,sp,-16
 947              		.cfi_def_cfa_offset 16
 948 0002 22C6     		sw	s0,12(sp)
 949              		.cfi_offset 8, -4
 950 0004 0008     		addi	s0,sp,16
 951              		.cfi_def_cfa 8, 0
 334:../Firmware/GD32VW55x_standard_peripheral/Source/gd32vw55x_pmu.c ****     PMU_CTL1 &= ~PMU_CTL1_BLE_WAKEUP_REQ;
 952              		.loc 1 334 14
 953 0006 B7770040 		li	a5,1073770496
 954 000a A107     		addi	a5,a5,8
 955 000c 9443     		lw	a3,0(a5)
 956 000e B7770040 		li	a5,1073770496
 957 0012 A107     		addi	a5,a5,8
 958 0014 370700FE 		li	a4,-33554432
 959 0018 7D17     		addi	a4,a4,-1
 960 001a 758F     		and	a4,a3,a4
 961 001c 98C3     		sw	a4,0(a5)
 335:../Firmware/GD32VW55x_standard_peripheral/Source/gd32vw55x_pmu.c **** }
 962              		.loc 1 335 1
 963 001e 0100     		nop
 964 0020 3244     		lw	s0,12(sp)
 965              		.cfi_restore 8
 966              		.cfi_def_cfa 2, 16
 967 0022 4101     		addi	sp,sp,16
 968              		.cfi_def_cfa_offset 0
 969 0024 8280     		jr	ra
 970              		.cfi_endproc
 971              	.LFE363:
 973              		.section	.text.pmu_pll_force_enable,"ax",@progbits
 974              		.align	1
 975              		.globl	pmu_pll_force_enable
 977              	pmu_pll_force_enable:
 978              	.LFB364:
 336:../Firmware/GD32VW55x_standard_peripheral/Source/gd32vw55x_pmu.c **** 
 337:../Firmware/GD32VW55x_standard_peripheral/Source/gd32vw55x_pmu.c **** /*!
 338:../Firmware/GD32VW55x_standard_peripheral/Source/gd32vw55x_pmu.c ****     \brief      enable MCU PLL power force open/close
 339:../Firmware/GD32VW55x_standard_peripheral/Source/gd32vw55x_pmu.c ****     \param[in]  force:
 340:../Firmware/GD32VW55x_standard_peripheral/Source/gd32vw55x_pmu.c ****                 only one parameter can be selected which is shown as below:
 341:../Firmware/GD32VW55x_standard_peripheral/Source/gd32vw55x_pmu.c ****       \arg        PMU_PLL_FORCE_OPEN: Software force open, open MCU PLL power
 342:../Firmware/GD32VW55x_standard_peripheral/Source/gd32vw55x_pmu.c ****       \arg        PMU_PLL_FORCE_CLOSE: Software force close, close MCU PLL power
 343:../Firmware/GD32VW55x_standard_peripheral/Source/gd32vw55x_pmu.c ****     \param[out] none
 344:../Firmware/GD32VW55x_standard_peripheral/Source/gd32vw55x_pmu.c ****     \retval     none
 345:../Firmware/GD32VW55x_standard_peripheral/Source/gd32vw55x_pmu.c **** */
 346:../Firmware/GD32VW55x_standard_peripheral/Source/gd32vw55x_pmu.c **** void pmu_pll_force_enable(uint32_t force)
 347:../Firmware/GD32VW55x_standard_peripheral/Source/gd32vw55x_pmu.c **** {
 979              		.loc 1 347 1
 980              		.cfi_startproc
 981 0000 0111     		addi	sp,sp,-32
 982              		.cfi_def_cfa_offset 32
 983 0002 22CE     		sw	s0,28(sp)
 984              		.cfi_offset 8, -4
 985 0004 0010     		addi	s0,sp,32
 986              		.cfi_def_cfa 8, 0
 987 0006 2326A4FE 		sw	a0,-20(s0)
 348:../Firmware/GD32VW55x_standard_peripheral/Source/gd32vw55x_pmu.c ****     PMU_RFCTL |= force;
 988              		.loc 1 348 15
 989 000a B7770040 		li	a5,1073770496
 990 000e 93870702 		addi	a5,a5,32
 991 0012 9443     		lw	a3,0(a5)
 992 0014 B7770040 		li	a5,1073770496
 993 0018 93870702 		addi	a5,a5,32
 994 001c 0327C4FE 		lw	a4,-20(s0)
 995 0020 558F     		or	a4,a3,a4
 996 0022 98C3     		sw	a4,0(a5)
 349:../Firmware/GD32VW55x_standard_peripheral/Source/gd32vw55x_pmu.c **** }
 997              		.loc 1 349 1
 998 0024 0100     		nop
 999 0026 7244     		lw	s0,28(sp)
 1000              		.cfi_restore 8
 1001              		.cfi_def_cfa 2, 32
 1002 0028 0561     		addi	sp,sp,32
 1003              		.cfi_def_cfa_offset 0
 1004 002a 8280     		jr	ra
 1005              		.cfi_endproc
 1006              	.LFE364:
 1008              		.section	.text.pmu_pll_force_disable,"ax",@progbits
 1009              		.align	1
 1010              		.globl	pmu_pll_force_disable
 1012              	pmu_pll_force_disable:
 1013              	.LFB365:
 350:../Firmware/GD32VW55x_standard_peripheral/Source/gd32vw55x_pmu.c **** 
 351:../Firmware/GD32VW55x_standard_peripheral/Source/gd32vw55x_pmu.c **** /*!
 352:../Firmware/GD32VW55x_standard_peripheral/Source/gd32vw55x_pmu.c ****     \brief      disable MCU PLL power open/close force
 353:../Firmware/GD32VW55x_standard_peripheral/Source/gd32vw55x_pmu.c ****     \param[in]  force:
 354:../Firmware/GD32VW55x_standard_peripheral/Source/gd32vw55x_pmu.c ****                 only one parameter can be selected which is shown as below:
 355:../Firmware/GD32VW55x_standard_peripheral/Source/gd32vw55x_pmu.c ****       \arg        PMU_PLL_FORCE_OPEN: Software force open, open MCU PLL power
 356:../Firmware/GD32VW55x_standard_peripheral/Source/gd32vw55x_pmu.c ****       \arg        PMU_PLL_FORCE_CLOSE: Software force close, close MCU PLL power
 357:../Firmware/GD32VW55x_standard_peripheral/Source/gd32vw55x_pmu.c ****     \param[out] none
 358:../Firmware/GD32VW55x_standard_peripheral/Source/gd32vw55x_pmu.c ****     \retval     none
 359:../Firmware/GD32VW55x_standard_peripheral/Source/gd32vw55x_pmu.c **** */
 360:../Firmware/GD32VW55x_standard_peripheral/Source/gd32vw55x_pmu.c **** void pmu_pll_force_disable(uint32_t force)
 361:../Firmware/GD32VW55x_standard_peripheral/Source/gd32vw55x_pmu.c **** {
 1014              		.loc 1 361 1
 1015              		.cfi_startproc
 1016 0000 0111     		addi	sp,sp,-32
 1017              		.cfi_def_cfa_offset 32
 1018 0002 22CE     		sw	s0,28(sp)
 1019              		.cfi_offset 8, -4
 1020 0004 0010     		addi	s0,sp,32
 1021              		.cfi_def_cfa 8, 0
 1022 0006 2326A4FE 		sw	a0,-20(s0)
 362:../Firmware/GD32VW55x_standard_peripheral/Source/gd32vw55x_pmu.c ****     PMU_RFCTL &= ~force;
 1023              		.loc 1 362 15
 1024 000a B7770040 		li	a5,1073770496
 1025 000e 93870702 		addi	a5,a5,32
 1026 0012 9443     		lw	a3,0(a5)
 1027              		.loc 1 362 18
 1028 0014 8327C4FE 		lw	a5,-20(s0)
 1029 0018 13C7F7FF 		not	a4,a5
 1030              		.loc 1 362 15
 1031 001c B7770040 		li	a5,1073770496
 1032 0020 93870702 		addi	a5,a5,32
 1033 0024 758F     		and	a4,a3,a4
 1034 0026 98C3     		sw	a4,0(a5)
 363:../Firmware/GD32VW55x_standard_peripheral/Source/gd32vw55x_pmu.c **** }
 1035              		.loc 1 363 1
 1036 0028 0100     		nop
 1037 002a 7244     		lw	s0,28(sp)
 1038              		.cfi_restore 8
 1039              		.cfi_def_cfa 2, 32
 1040 002c 0561     		addi	sp,sp,32
 1041              		.cfi_def_cfa_offset 0
 1042 002e 8280     		jr	ra
 1043              		.cfi_endproc
 1044              	.LFE365:
 1046              		.section	.text.pmu_ble_rf_config,"ax",@progbits
 1047              		.align	1
 1048              		.globl	pmu_ble_rf_config
 1050              	pmu_ble_rf_config:
 1051              	.LFB366:
 364:../Firmware/GD32VW55x_standard_peripheral/Source/gd32vw55x_pmu.c **** 
 365:../Firmware/GD32VW55x_standard_peripheral/Source/gd32vw55x_pmu.c **** /*!
 366:../Firmware/GD32VW55x_standard_peripheral/Source/gd32vw55x_pmu.c ****     \brief      configure BLE RF sequence
 367:../Firmware/GD32VW55x_standard_peripheral/Source/gd32vw55x_pmu.c ****     \param[in]  mode:
 368:../Firmware/GD32VW55x_standard_peripheral/Source/gd32vw55x_pmu.c ****                 only one parameter can be selected which is shown as below:
 369:../Firmware/GD32VW55x_standard_peripheral/Source/gd32vw55x_pmu.c ****       \arg        PMU_BLE_RF_SOFTWARE: enable RF by software
 370:../Firmware/GD32VW55x_standard_peripheral/Source/gd32vw55x_pmu.c ****       \arg        PMU_BLE_RF_HARDWARE: enable RF BLE hardware
 371:../Firmware/GD32VW55x_standard_peripheral/Source/gd32vw55x_pmu.c ****     \param[out] none
 372:../Firmware/GD32VW55x_standard_peripheral/Source/gd32vw55x_pmu.c ****     \retval     none
 373:../Firmware/GD32VW55x_standard_peripheral/Source/gd32vw55x_pmu.c **** */
 374:../Firmware/GD32VW55x_standard_peripheral/Source/gd32vw55x_pmu.c **** void pmu_ble_rf_config(uint32_t mode)
 375:../Firmware/GD32VW55x_standard_peripheral/Source/gd32vw55x_pmu.c **** {
 1052              		.loc 1 375 1
 1053              		.cfi_startproc
 1054 0000 0111     		addi	sp,sp,-32
 1055              		.cfi_def_cfa_offset 32
 1056 0002 22CE     		sw	s0,28(sp)
 1057              		.cfi_offset 8, -4
 1058 0004 0010     		addi	s0,sp,32
 1059              		.cfi_def_cfa 8, 0
 1060 0006 2326A4FE 		sw	a0,-20(s0)
 376:../Firmware/GD32VW55x_standard_peripheral/Source/gd32vw55x_pmu.c ****     PMU_RFCTL &= ~PMU_RFCTL_BLESWEN;
 1061              		.loc 1 376 15
 1062 000a B7770040 		li	a5,1073770496
 1063 000e 93870702 		addi	a5,a5,32
 1064 0012 9843     		lw	a4,0(a5)
 1065 0014 B7770040 		li	a5,1073770496
 1066 0018 93870702 		addi	a5,a5,32
 1067 001c 1377F7FD 		andi	a4,a4,-33
 1068 0020 98C3     		sw	a4,0(a5)
 377:../Firmware/GD32VW55x_standard_peripheral/Source/gd32vw55x_pmu.c ****     PMU_RFCTL |= mode;
 1069              		.loc 1 377 15
 1070 0022 B7770040 		li	a5,1073770496
 1071 0026 93870702 		addi	a5,a5,32
 1072 002a 9443     		lw	a3,0(a5)
 1073 002c B7770040 		li	a5,1073770496
 1074 0030 93870702 		addi	a5,a5,32
 1075 0034 0327C4FE 		lw	a4,-20(s0)
 1076 0038 558F     		or	a4,a3,a4
 1077 003a 98C3     		sw	a4,0(a5)
 378:../Firmware/GD32VW55x_standard_peripheral/Source/gd32vw55x_pmu.c **** }
 1078              		.loc 1 378 1
 1079 003c 0100     		nop
 1080 003e 7244     		lw	s0,28(sp)
 1081              		.cfi_restore 8
 1082              		.cfi_def_cfa 2, 32
 1083 0040 0561     		addi	sp,sp,32
 1084              		.cfi_def_cfa_offset 0
 1085 0042 8280     		jr	ra
 1086              		.cfi_endproc
 1087              	.LFE366:
 1089              		.section	.text.pmu_rf_force_enable,"ax",@progbits
 1090              		.align	1
 1091              		.globl	pmu_rf_force_enable
 1093              	pmu_rf_force_enable:
 1094              	.LFB367:
 379:../Firmware/GD32VW55x_standard_peripheral/Source/gd32vw55x_pmu.c **** 
 380:../Firmware/GD32VW55x_standard_peripheral/Source/gd32vw55x_pmu.c **** /*!
 381:../Firmware/GD32VW55x_standard_peripheral/Source/gd32vw55x_pmu.c ****     \brief      enable RF sequence force open/close
 382:../Firmware/GD32VW55x_standard_peripheral/Source/gd32vw55x_pmu.c ****     \param[in]  force:
 383:../Firmware/GD32VW55x_standard_peripheral/Source/gd32vw55x_pmu.c ****                 only one parameter can be selected which is shown as below:
 384:../Firmware/GD32VW55x_standard_peripheral/Source/gd32vw55x_pmu.c ****       \arg        PMU_RF_FORCE_OPEN: Software force start, open RF power
 385:../Firmware/GD32VW55x_standard_peripheral/Source/gd32vw55x_pmu.c ****       \arg        PMU_RF_FORCE_CLOSE: Software force close, close RF power
 386:../Firmware/GD32VW55x_standard_peripheral/Source/gd32vw55x_pmu.c ****     \param[out] none
 387:../Firmware/GD32VW55x_standard_peripheral/Source/gd32vw55x_pmu.c ****     \retval     none
 388:../Firmware/GD32VW55x_standard_peripheral/Source/gd32vw55x_pmu.c **** */
 389:../Firmware/GD32VW55x_standard_peripheral/Source/gd32vw55x_pmu.c **** void pmu_rf_force_enable(uint32_t force)
 390:../Firmware/GD32VW55x_standard_peripheral/Source/gd32vw55x_pmu.c **** {
 1095              		.loc 1 390 1
 1096              		.cfi_startproc
 1097 0000 0111     		addi	sp,sp,-32
 1098              		.cfi_def_cfa_offset 32
 1099 0002 22CE     		sw	s0,28(sp)
 1100              		.cfi_offset 8, -4
 1101 0004 0010     		addi	s0,sp,32
 1102              		.cfi_def_cfa 8, 0
 1103 0006 2326A4FE 		sw	a0,-20(s0)
 391:../Firmware/GD32VW55x_standard_peripheral/Source/gd32vw55x_pmu.c ****     PMU_RFCTL |= force;
 1104              		.loc 1 391 15
 1105 000a B7770040 		li	a5,1073770496
 1106 000e 93870702 		addi	a5,a5,32
 1107 0012 9443     		lw	a3,0(a5)
 1108 0014 B7770040 		li	a5,1073770496
 1109 0018 93870702 		addi	a5,a5,32
 1110 001c 0327C4FE 		lw	a4,-20(s0)
 1111 0020 558F     		or	a4,a3,a4
 1112 0022 98C3     		sw	a4,0(a5)
 392:../Firmware/GD32VW55x_standard_peripheral/Source/gd32vw55x_pmu.c **** }
 1113              		.loc 1 392 1
 1114 0024 0100     		nop
 1115 0026 7244     		lw	s0,28(sp)
 1116              		.cfi_restore 8
 1117              		.cfi_def_cfa 2, 32
 1118 0028 0561     		addi	sp,sp,32
 1119              		.cfi_def_cfa_offset 0
 1120 002a 8280     		jr	ra
 1121              		.cfi_endproc
 1122              	.LFE367:
 1124              		.section	.text.pmu_rf_force_disable,"ax",@progbits
 1125              		.align	1
 1126              		.globl	pmu_rf_force_disable
 1128              	pmu_rf_force_disable:
 1129              	.LFB368:
 393:../Firmware/GD32VW55x_standard_peripheral/Source/gd32vw55x_pmu.c **** 
 394:../Firmware/GD32VW55x_standard_peripheral/Source/gd32vw55x_pmu.c **** /*!
 395:../Firmware/GD32VW55x_standard_peripheral/Source/gd32vw55x_pmu.c ****     \brief      disable RF sequence open/close force
 396:../Firmware/GD32VW55x_standard_peripheral/Source/gd32vw55x_pmu.c ****     \param[in]  force:
 397:../Firmware/GD32VW55x_standard_peripheral/Source/gd32vw55x_pmu.c ****                 only one parameter can be selected which is shown as below:
 398:../Firmware/GD32VW55x_standard_peripheral/Source/gd32vw55x_pmu.c ****       \arg        PMU_RF_FORCE_OPEN: Software force start, open RF power
 399:../Firmware/GD32VW55x_standard_peripheral/Source/gd32vw55x_pmu.c ****       \arg        PMU_RF_FORCE_CLOSE: Software force close, close RF power
 400:../Firmware/GD32VW55x_standard_peripheral/Source/gd32vw55x_pmu.c ****     \param[out] none
 401:../Firmware/GD32VW55x_standard_peripheral/Source/gd32vw55x_pmu.c ****     \retval     none
 402:../Firmware/GD32VW55x_standard_peripheral/Source/gd32vw55x_pmu.c **** */
 403:../Firmware/GD32VW55x_standard_peripheral/Source/gd32vw55x_pmu.c **** void pmu_rf_force_disable(uint32_t force)
 404:../Firmware/GD32VW55x_standard_peripheral/Source/gd32vw55x_pmu.c **** {
 1130              		.loc 1 404 1
 1131              		.cfi_startproc
 1132 0000 0111     		addi	sp,sp,-32
 1133              		.cfi_def_cfa_offset 32
 1134 0002 22CE     		sw	s0,28(sp)
 1135              		.cfi_offset 8, -4
 1136 0004 0010     		addi	s0,sp,32
 1137              		.cfi_def_cfa 8, 0
 1138 0006 2326A4FE 		sw	a0,-20(s0)
 405:../Firmware/GD32VW55x_standard_peripheral/Source/gd32vw55x_pmu.c ****     PMU_RFCTL &= ~force;
 1139              		.loc 1 405 15
 1140 000a B7770040 		li	a5,1073770496
 1141 000e 93870702 		addi	a5,a5,32
 1142 0012 9443     		lw	a3,0(a5)
 1143              		.loc 1 405 18
 1144 0014 8327C4FE 		lw	a5,-20(s0)
 1145 0018 13C7F7FF 		not	a4,a5
 1146              		.loc 1 405 15
 1147 001c B7770040 		li	a5,1073770496
 1148 0020 93870702 		addi	a5,a5,32
 1149 0024 758F     		and	a4,a3,a4
 1150 0026 98C3     		sw	a4,0(a5)
 406:../Firmware/GD32VW55x_standard_peripheral/Source/gd32vw55x_pmu.c **** }
 1151              		.loc 1 406 1
 1152 0028 0100     		nop
 1153 002a 7244     		lw	s0,28(sp)
 1154              		.cfi_restore 8
 1155              		.cfi_def_cfa 2, 32
 1156 002c 0561     		addi	sp,sp,32
 1157              		.cfi_def_cfa_offset 0
 1158 002e 8280     		jr	ra
 1159              		.cfi_endproc
 1160              	.LFE368:
 1162              		.section	.text.pmu_rf_sequence_config,"ax",@progbits
 1163              		.align	1
 1164              		.globl	pmu_rf_sequence_config
 1166              	pmu_rf_sequence_config:
 1167              	.LFB369:
 407:../Firmware/GD32VW55x_standard_peripheral/Source/gd32vw55x_pmu.c **** 
 408:../Firmware/GD32VW55x_standard_peripheral/Source/gd32vw55x_pmu.c **** /*!
 409:../Firmware/GD32VW55x_standard_peripheral/Source/gd32vw55x_pmu.c ****     \brief      configure RF sequence
 410:../Firmware/GD32VW55x_standard_peripheral/Source/gd32vw55x_pmu.c ****     \param[in]  mode:
 411:../Firmware/GD32VW55x_standard_peripheral/Source/gd32vw55x_pmu.c ****                 only one parameter can be selected which is shown as below:
 412:../Firmware/GD32VW55x_standard_peripheral/Source/gd32vw55x_pmu.c ****       \arg        PMU_RF_SOFTWARE: RF software sequence enable
 413:../Firmware/GD32VW55x_standard_peripheral/Source/gd32vw55x_pmu.c ****       \arg        PMU_RF_HARDWARE: RF hardware sequence enable
 414:../Firmware/GD32VW55x_standard_peripheral/Source/gd32vw55x_pmu.c ****     \param[out] none
 415:../Firmware/GD32VW55x_standard_peripheral/Source/gd32vw55x_pmu.c ****     \retval     none
 416:../Firmware/GD32VW55x_standard_peripheral/Source/gd32vw55x_pmu.c **** */
 417:../Firmware/GD32VW55x_standard_peripheral/Source/gd32vw55x_pmu.c **** void pmu_rf_sequence_config(uint32_t mode)
 418:../Firmware/GD32VW55x_standard_peripheral/Source/gd32vw55x_pmu.c **** {
 1168              		.loc 1 418 1
 1169              		.cfi_startproc
 1170 0000 0111     		addi	sp,sp,-32
 1171              		.cfi_def_cfa_offset 32
 1172 0002 22CE     		sw	s0,28(sp)
 1173              		.cfi_offset 8, -4
 1174 0004 0010     		addi	s0,sp,32
 1175              		.cfi_def_cfa 8, 0
 1176 0006 2326A4FE 		sw	a0,-20(s0)
 419:../Firmware/GD32VW55x_standard_peripheral/Source/gd32vw55x_pmu.c ****     PMU_RFCTL &= ~PMU_RFCTL_RFSWEN;
 1177              		.loc 1 419 15
 1178 000a B7770040 		li	a5,1073770496
 1179 000e 93870702 		addi	a5,a5,32
 1180 0012 9843     		lw	a4,0(a5)
 1181 0014 B7770040 		li	a5,1073770496
 1182 0018 93870702 		addi	a5,a5,32
 1183 001c 799B     		andi	a4,a4,-2
 1184 001e 98C3     		sw	a4,0(a5)
 420:../Firmware/GD32VW55x_standard_peripheral/Source/gd32vw55x_pmu.c ****     PMU_RFCTL |= mode;
 1185              		.loc 1 420 15
 1186 0020 B7770040 		li	a5,1073770496
 1187 0024 93870702 		addi	a5,a5,32
 1188 0028 9443     		lw	a3,0(a5)
 1189 002a B7770040 		li	a5,1073770496
 1190 002e 93870702 		addi	a5,a5,32
 1191 0032 0327C4FE 		lw	a4,-20(s0)
 1192 0036 558F     		or	a4,a3,a4
 1193 0038 98C3     		sw	a4,0(a5)
 421:../Firmware/GD32VW55x_standard_peripheral/Source/gd32vw55x_pmu.c **** }
 1194              		.loc 1 421 1
 1195 003a 0100     		nop
 1196 003c 7244     		lw	s0,28(sp)
 1197              		.cfi_restore 8
 1198              		.cfi_def_cfa 2, 32
 1199 003e 0561     		addi	sp,sp,32
 1200              		.cfi_def_cfa_offset 0
 1201 0040 8280     		jr	ra
 1202              		.cfi_endproc
 1203              	.LFE369:
 1205              		.section	.text.pmu_flag_get,"ax",@progbits
 1206              		.align	1
 1207              		.globl	pmu_flag_get
 1209              	pmu_flag_get:
 1210              	.LFB370:
 422:../Firmware/GD32VW55x_standard_peripheral/Source/gd32vw55x_pmu.c **** 
 423:../Firmware/GD32VW55x_standard_peripheral/Source/gd32vw55x_pmu.c **** /*!
 424:../Firmware/GD32VW55x_standard_peripheral/Source/gd32vw55x_pmu.c ****     \brief      get flag state
 425:../Firmware/GD32VW55x_standard_peripheral/Source/gd32vw55x_pmu.c ****     \param[in]  flag:
 426:../Firmware/GD32VW55x_standard_peripheral/Source/gd32vw55x_pmu.c ****                 only one parameter can be selected which is shown as below:
 427:../Firmware/GD32VW55x_standard_peripheral/Source/gd32vw55x_pmu.c ****       \arg        PMU_FLAG_WAKEUP: wakeup flag
 428:../Firmware/GD32VW55x_standard_peripheral/Source/gd32vw55x_pmu.c ****       \arg        PMU_FLAG_STANDBY: standby flag
 429:../Firmware/GD32VW55x_standard_peripheral/Source/gd32vw55x_pmu.c ****       \arg        PMU_FLAG_LVD: VDD low voltage flag
 430:../Firmware/GD32VW55x_standard_peripheral/Source/gd32vw55x_pmu.c ****       \arg        PMU_FLAG_LDOVSRF: LDO voltage select ready flag
 431:../Firmware/GD32VW55x_standard_peripheral/Source/gd32vw55x_pmu.c ****       \arg        PMU_FLAG_LDRF: low-driver mode ready flag
 432:../Firmware/GD32VW55x_standard_peripheral/Source/gd32vw55x_pmu.c ****       \arg        PMU_FLAG_WIFI_SLEEP: WIFI is in sleep state
 433:../Firmware/GD32VW55x_standard_peripheral/Source/gd32vw55x_pmu.c ****       \arg        PMU_FLAG_WIFI_ACTIVE: WIFI is in active state
 434:../Firmware/GD32VW55x_standard_peripheral/Source/gd32vw55x_pmu.c ****       \arg        PMU_FLAG_BLE_POWER: BLE power status
 435:../Firmware/GD32VW55x_standard_peripheral/Source/gd32vw55x_pmu.c ****       \arg        PMU_FLAG_SRAM1_SLEEP: SRAM1 is in sleep state
 436:../Firmware/GD32VW55x_standard_peripheral/Source/gd32vw55x_pmu.c ****       \arg        PMU_FLAG_SRAM1_ACTIVE: SRAM1 is in active state
 437:../Firmware/GD32VW55x_standard_peripheral/Source/gd32vw55x_pmu.c ****       \arg        PMU_FLAG_SRAM0_SLEEP: SRAM0 is in sleep state
 438:../Firmware/GD32VW55x_standard_peripheral/Source/gd32vw55x_pmu.c ****       \arg        PMU_FLAG_SRAM0_ACTIVE: SRAM0 is in active state
 439:../Firmware/GD32VW55x_standard_peripheral/Source/gd32vw55x_pmu.c ****       \arg        PMU_FLAG_SRAM2_SLEEP: SRAM2 is in sleep state
 440:../Firmware/GD32VW55x_standard_peripheral/Source/gd32vw55x_pmu.c ****       \arg        PMU_FLAG_SRAM2_ACTIVE: SRAM2 is in active state
 441:../Firmware/GD32VW55x_standard_peripheral/Source/gd32vw55x_pmu.c ****       \arg        PMU_FLAG_SRAM3_SLEEP: SRAM3 is in sleep state
 442:../Firmware/GD32VW55x_standard_peripheral/Source/gd32vw55x_pmu.c ****       \arg        PMU_FLAG_SRAM3_ACTIVE: SRAM3 is in active state
 443:../Firmware/GD32VW55x_standard_peripheral/Source/gd32vw55x_pmu.c ****       \arg        PMU_FLAG_BLE_SLEEP: BLE is in sleep state
 444:../Firmware/GD32VW55x_standard_peripheral/Source/gd32vw55x_pmu.c ****       \arg        PMU_FLAG_BLE_ACTIVE: BLE is in active state
 445:../Firmware/GD32VW55x_standard_peripheral/Source/gd32vw55x_pmu.c ****       \arg        PMU_FLAG_BLE_POWER_FALL: BLE power status falling edge flag
 446:../Firmware/GD32VW55x_standard_peripheral/Source/gd32vw55x_pmu.c ****       \arg        PMU_FLAG_BLE_POWER_RISE: BLE power status rising edge flag
 447:../Firmware/GD32VW55x_standard_peripheral/Source/gd32vw55x_pmu.c ****     \param[out] none
 448:../Firmware/GD32VW55x_standard_peripheral/Source/gd32vw55x_pmu.c ****     \retval     FlagStatus: SET or RESET
 449:../Firmware/GD32VW55x_standard_peripheral/Source/gd32vw55x_pmu.c **** */
 450:../Firmware/GD32VW55x_standard_peripheral/Source/gd32vw55x_pmu.c **** FlagStatus pmu_flag_get(uint32_t flag)
 451:../Firmware/GD32VW55x_standard_peripheral/Source/gd32vw55x_pmu.c **** {
 1211              		.loc 1 451 1
 1212              		.cfi_startproc
 1213 0000 0111     		addi	sp,sp,-32
 1214              		.cfi_def_cfa_offset 32
 1215 0002 22CE     		sw	s0,28(sp)
 1216              		.cfi_offset 8, -4
 1217 0004 0010     		addi	s0,sp,32
 1218              		.cfi_def_cfa 8, 0
 1219 0006 2326A4FE 		sw	a0,-20(s0)
 452:../Firmware/GD32VW55x_standard_peripheral/Source/gd32vw55x_pmu.c ****     if(flag & BIT(31)) {
 1220              		.loc 1 452 8
 1221 000a 8327C4FE 		lw	a5,-20(s0)
 1222              		.loc 1 452 7
 1223 000e 63D70702 		bge	a5,zero,.L33
 453:../Firmware/GD32VW55x_standard_peripheral/Source/gd32vw55x_pmu.c ****         flag &= ~BIT(31);
 1224              		.loc 1 453 14
 1225 0012 0327C4FE 		lw	a4,-20(s0)
 1226 0016 B7070080 		li	a5,-2147483648
 1227 001a 93C7F7FF 		xori	a5,a5,-1
 1228 001e F98F     		and	a5,a4,a5
 1229 0020 2326F4FE 		sw	a5,-20(s0)
 454:../Firmware/GD32VW55x_standard_peripheral/Source/gd32vw55x_pmu.c ****         /* get WIFI SRAM status */
 455:../Firmware/GD32VW55x_standard_peripheral/Source/gd32vw55x_pmu.c ****         if(PMU_CS1 & flag) {
 1230              		.loc 1 455 12
 1231 0024 B7770040 		li	a5,1073770496
 1232 0028 B107     		addi	a5,a5,12
 1233 002a 9843     		lw	a4,0(a5)
 1234              		.loc 1 455 20
 1235 002c 8327C4FE 		lw	a5,-20(s0)
 1236 0030 F98F     		and	a5,a4,a5
 1237              		.loc 1 455 11
 1238 0032 99C3     		beq	a5,zero,.L34
 456:../Firmware/GD32VW55x_standard_peripheral/Source/gd32vw55x_pmu.c ****             return SET;
 1239              		.loc 1 456 20
 1240 0034 8547     		li	a5,1
 1241 0036 89A8     		j	.L35
 1242              	.L34:
 457:../Firmware/GD32VW55x_standard_peripheral/Source/gd32vw55x_pmu.c ****         }else {
 458:../Firmware/GD32VW55x_standard_peripheral/Source/gd32vw55x_pmu.c ****             return RESET;
 1243              		.loc 1 458 20
 1244 0038 8147     		li	a5,0
 1245 003a B9A0     		j	.L35
 1246              	.L33:
 459:../Firmware/GD32VW55x_standard_peripheral/Source/gd32vw55x_pmu.c ****         }
 460:../Firmware/GD32VW55x_standard_peripheral/Source/gd32vw55x_pmu.c ****     }else if(flag & BIT(30)) {
 1247              		.loc 1 460 19
 1248 003c 0327C4FE 		lw	a4,-20(s0)
 1249 0040 B7070040 		li	a5,1073741824
 1250 0044 F98F     		and	a5,a4,a5
 1251              		.loc 1 460 13
 1252 0046 95C7     		beq	a5,zero,.L36
 461:../Firmware/GD32VW55x_standard_peripheral/Source/gd32vw55x_pmu.c ****         flag &= ~BIT(30);
 1253              		.loc 1 461 14
 1254 0048 0327C4FE 		lw	a4,-20(s0)
 1255 004c B70700C0 		li	a5,-1073741824
 1256 0050 FD17     		addi	a5,a5,-1
 1257 0052 F98F     		and	a5,a4,a5
 1258 0054 2326F4FE 		sw	a5,-20(s0)
 462:../Firmware/GD32VW55x_standard_peripheral/Source/gd32vw55x_pmu.c ****         /* get BLE power status change flag*/
 463:../Firmware/GD32VW55x_standard_peripheral/Source/gd32vw55x_pmu.c ****         if(PMU_INTF & flag) {
 1259              		.loc 1 463 12
 1260 0058 B7770040 		li	a5,1073770496
 1261 005c 9387C702 		addi	a5,a5,44
 1262 0060 9843     		lw	a4,0(a5)
 1263              		.loc 1 463 21
 1264 0062 8327C4FE 		lw	a5,-20(s0)
 1265 0066 F98F     		and	a5,a4,a5
 1266              		.loc 1 463 11
 1267 0068 99C3     		beq	a5,zero,.L37
 464:../Firmware/GD32VW55x_standard_peripheral/Source/gd32vw55x_pmu.c ****             return SET;
 1268              		.loc 1 464 20
 1269 006a 8547     		li	a5,1
 1270 006c 31A8     		j	.L35
 1271              	.L37:
 465:../Firmware/GD32VW55x_standard_peripheral/Source/gd32vw55x_pmu.c ****         }else {
 466:../Firmware/GD32VW55x_standard_peripheral/Source/gd32vw55x_pmu.c ****             return RESET;
 1272              		.loc 1 466 20
 1273 006e 8147     		li	a5,0
 1274 0070 21A8     		j	.L35
 1275              	.L36:
 467:../Firmware/GD32VW55x_standard_peripheral/Source/gd32vw55x_pmu.c ****         }
 468:../Firmware/GD32VW55x_standard_peripheral/Source/gd32vw55x_pmu.c ****     }else {
 469:../Firmware/GD32VW55x_standard_peripheral/Source/gd32vw55x_pmu.c ****         /* get flag status in PMU_CS0 */
 470:../Firmware/GD32VW55x_standard_peripheral/Source/gd32vw55x_pmu.c ****         if(PMU_CS0 & flag) {
 1276              		.loc 1 470 12
 1277 0072 B7770040 		li	a5,1073770496
 1278 0076 9107     		addi	a5,a5,4
 1279 0078 9843     		lw	a4,0(a5)
 1280              		.loc 1 470 20
 1281 007a 8327C4FE 		lw	a5,-20(s0)
 1282 007e F98F     		and	a5,a4,a5
 1283              		.loc 1 470 11
 1284 0080 99C3     		beq	a5,zero,.L38
 471:../Firmware/GD32VW55x_standard_peripheral/Source/gd32vw55x_pmu.c ****             return SET;
 1285              		.loc 1 471 20
 1286 0082 8547     		li	a5,1
 1287 0084 11A0     		j	.L35
 1288              	.L38:
 472:../Firmware/GD32VW55x_standard_peripheral/Source/gd32vw55x_pmu.c ****         }else {
 473:../Firmware/GD32VW55x_standard_peripheral/Source/gd32vw55x_pmu.c ****             return RESET;
 1289              		.loc 1 473 20
 1290 0086 8147     		li	a5,0
 1291              	.L35:
 474:../Firmware/GD32VW55x_standard_peripheral/Source/gd32vw55x_pmu.c ****         }
 475:../Firmware/GD32VW55x_standard_peripheral/Source/gd32vw55x_pmu.c ****     }
 476:../Firmware/GD32VW55x_standard_peripheral/Source/gd32vw55x_pmu.c **** }
 1292              		.loc 1 476 1
 1293 0088 3E85     		mv	a0,a5
 1294 008a 7244     		lw	s0,28(sp)
 1295              		.cfi_restore 8
 1296              		.cfi_def_cfa 2, 32
 1297 008c 0561     		addi	sp,sp,32
 1298              		.cfi_def_cfa_offset 0
 1299 008e 8280     		jr	ra
 1300              		.cfi_endproc
 1301              	.LFE370:
 1303              		.section	.text.pmu_flag_clear,"ax",@progbits
 1304              		.align	1
 1305              		.globl	pmu_flag_clear
 1307              	pmu_flag_clear:
 1308              	.LFB371:
 477:../Firmware/GD32VW55x_standard_peripheral/Source/gd32vw55x_pmu.c **** 
 478:../Firmware/GD32VW55x_standard_peripheral/Source/gd32vw55x_pmu.c **** /*!
 479:../Firmware/GD32VW55x_standard_peripheral/Source/gd32vw55x_pmu.c ****     \brief      clear flag bit
 480:../Firmware/GD32VW55x_standard_peripheral/Source/gd32vw55x_pmu.c ****     \param[in]  flag:
 481:../Firmware/GD32VW55x_standard_peripheral/Source/gd32vw55x_pmu.c ****                 only one parameter can be selected which is shown as below:
 482:../Firmware/GD32VW55x_standard_peripheral/Source/gd32vw55x_pmu.c ****       \arg        PMU_FLAG_RESET_WAKEUP: reset wakeup flag
 483:../Firmware/GD32VW55x_standard_peripheral/Source/gd32vw55x_pmu.c ****       \arg        PMU_FLAG_RESET_STANDBY: reset standby flag
 484:../Firmware/GD32VW55x_standard_peripheral/Source/gd32vw55x_pmu.c ****       \arg        PMU_FLAG_RESET_LDRF: reset Low-driver mode ready flag
 485:../Firmware/GD32VW55x_standard_peripheral/Source/gd32vw55x_pmu.c ****     \param[out] none
 486:../Firmware/GD32VW55x_standard_peripheral/Source/gd32vw55x_pmu.c ****     \retval     none
 487:../Firmware/GD32VW55x_standard_peripheral/Source/gd32vw55x_pmu.c **** */
 488:../Firmware/GD32VW55x_standard_peripheral/Source/gd32vw55x_pmu.c **** void pmu_flag_clear(uint32_t flag)
 489:../Firmware/GD32VW55x_standard_peripheral/Source/gd32vw55x_pmu.c **** {
 1309              		.loc 1 489 1
 1310              		.cfi_startproc
 1311 0000 0111     		addi	sp,sp,-32
 1312              		.cfi_def_cfa_offset 32
 1313 0002 22CE     		sw	s0,28(sp)
 1314              		.cfi_offset 8, -4
 1315 0004 0010     		addi	s0,sp,32
 1316              		.cfi_def_cfa 8, 0
 1317 0006 2326A4FE 		sw	a0,-20(s0)
 490:../Firmware/GD32VW55x_standard_peripheral/Source/gd32vw55x_pmu.c ****     if(PMU_FLAG_RESET_LDRF == flag) {
 1318              		.loc 1 490 7
 1319 000a 0327C4FE 		lw	a4,-20(s0)
 1320 000e B7070C00 		li	a5,786432
 1321 0012 631EF700 		bne	a4,a5,.L40
 491:../Firmware/GD32VW55x_standard_peripheral/Source/gd32vw55x_pmu.c ****         PMU_CS0 |= flag;
 1322              		.loc 1 491 17
 1323 0016 B7770040 		li	a5,1073770496
 1324 001a 9107     		addi	a5,a5,4
 1325 001c 9443     		lw	a3,0(a5)
 1326 001e B7770040 		li	a5,1073770496
 1327 0022 9107     		addi	a5,a5,4
 1328 0024 0327C4FE 		lw	a4,-20(s0)
 1329 0028 558F     		or	a4,a3,a4
 1330 002a 98C3     		sw	a4,0(a5)
 492:../Firmware/GD32VW55x_standard_peripheral/Source/gd32vw55x_pmu.c ****     }else {
 493:../Firmware/GD32VW55x_standard_peripheral/Source/gd32vw55x_pmu.c ****         PMU_CTL0 |= flag;
 494:../Firmware/GD32VW55x_standard_peripheral/Source/gd32vw55x_pmu.c ****     }
 495:../Firmware/GD32VW55x_standard_peripheral/Source/gd32vw55x_pmu.c **** }
 1331              		.loc 1 495 1
 1332 002c 11A8     		j	.L42
 1333              	.L40:
 493:../Firmware/GD32VW55x_standard_peripheral/Source/gd32vw55x_pmu.c ****     }
 1334              		.loc 1 493 18
 1335 002e B7770040 		li	a5,1073770496
 1336 0032 9443     		lw	a3,0(a5)
 1337 0034 B7770040 		li	a5,1073770496
 1338 0038 0327C4FE 		lw	a4,-20(s0)
 1339 003c 558F     		or	a4,a3,a4
 1340 003e 98C3     		sw	a4,0(a5)
 1341              	.L42:
 1342              		.loc 1 495 1
 1343 0040 0100     		nop
 1344 0042 7244     		lw	s0,28(sp)
 1345              		.cfi_restore 8
 1346              		.cfi_def_cfa 2, 32
 1347 0044 0561     		addi	sp,sp,32
 1348              		.cfi_def_cfa_offset 0
 1349 0046 8280     		jr	ra
 1350              		.cfi_endproc
 1351              	.LFE371:
 1353              		.section	.text.pmu_interrupt_enable,"ax",@progbits
 1354              		.align	1
 1355              		.globl	pmu_interrupt_enable
 1357              	pmu_interrupt_enable:
 1358              	.LFB372:
 496:../Firmware/GD32VW55x_standard_peripheral/Source/gd32vw55x_pmu.c **** 
 497:../Firmware/GD32VW55x_standard_peripheral/Source/gd32vw55x_pmu.c **** /*!
 498:../Firmware/GD32VW55x_standard_peripheral/Source/gd32vw55x_pmu.c ****     \brief      enable PMU interrupt
 499:../Firmware/GD32VW55x_standard_peripheral/Source/gd32vw55x_pmu.c ****     \param[in]  interrupt: the PMU interrupt
 500:../Firmware/GD32VW55x_standard_peripheral/Source/gd32vw55x_pmu.c ****                 only one parameter can be selected which is shown as below:
 501:../Firmware/GD32VW55x_standard_peripheral/Source/gd32vw55x_pmu.c ****       \arg        PMU_INT_BLE_POWER_FALL: BLE power status falling edge interrupt
 502:../Firmware/GD32VW55x_standard_peripheral/Source/gd32vw55x_pmu.c ****       \arg        PMU_INT_BLE_POWER_RISE: BLE power status rising edge interrupt
 503:../Firmware/GD32VW55x_standard_peripheral/Source/gd32vw55x_pmu.c ****     \param[out] none
 504:../Firmware/GD32VW55x_standard_peripheral/Source/gd32vw55x_pmu.c ****     \retval     none
 505:../Firmware/GD32VW55x_standard_peripheral/Source/gd32vw55x_pmu.c **** */
 506:../Firmware/GD32VW55x_standard_peripheral/Source/gd32vw55x_pmu.c **** void pmu_interrupt_enable(uint32_t interrupt)
 507:../Firmware/GD32VW55x_standard_peripheral/Source/gd32vw55x_pmu.c **** {
 1359              		.loc 1 507 1
 1360              		.cfi_startproc
 1361 0000 0111     		addi	sp,sp,-32
 1362              		.cfi_def_cfa_offset 32
 1363 0002 22CE     		sw	s0,28(sp)
 1364              		.cfi_offset 8, -4
 1365 0004 0010     		addi	s0,sp,32
 1366              		.cfi_def_cfa 8, 0
 1367 0006 2326A4FE 		sw	a0,-20(s0)
 508:../Firmware/GD32VW55x_standard_peripheral/Source/gd32vw55x_pmu.c ****     PMU_INTEN |= (uint32_t)interrupt;
 1368              		.loc 1 508 15
 1369 000a B7770040 		li	a5,1073770496
 1370 000e 93870703 		addi	a5,a5,48
 1371 0012 9443     		lw	a3,0(a5)
 1372 0014 B7770040 		li	a5,1073770496
 1373 0018 93870703 		addi	a5,a5,48
 1374 001c 0327C4FE 		lw	a4,-20(s0)
 1375 0020 558F     		or	a4,a3,a4
 1376 0022 98C3     		sw	a4,0(a5)
 509:../Firmware/GD32VW55x_standard_peripheral/Source/gd32vw55x_pmu.c **** }
 1377              		.loc 1 509 1
 1378 0024 0100     		nop
 1379 0026 7244     		lw	s0,28(sp)
 1380              		.cfi_restore 8
 1381              		.cfi_def_cfa 2, 32
 1382 0028 0561     		addi	sp,sp,32
 1383              		.cfi_def_cfa_offset 0
 1384 002a 8280     		jr	ra
 1385              		.cfi_endproc
 1386              	.LFE372:
 1388              		.section	.text.pmu_interrupt_disable,"ax",@progbits
 1389              		.align	1
 1390              		.globl	pmu_interrupt_disable
 1392              	pmu_interrupt_disable:
 1393              	.LFB373:
 510:../Firmware/GD32VW55x_standard_peripheral/Source/gd32vw55x_pmu.c **** 
 511:../Firmware/GD32VW55x_standard_peripheral/Source/gd32vw55x_pmu.c **** /*!
 512:../Firmware/GD32VW55x_standard_peripheral/Source/gd32vw55x_pmu.c ****     \brief      disable PMU interrupt
 513:../Firmware/GD32VW55x_standard_peripheral/Source/gd32vw55x_pmu.c ****     \param[in]  interrupt: the PMU interrupt
 514:../Firmware/GD32VW55x_standard_peripheral/Source/gd32vw55x_pmu.c ****                 only one parameter can be selected which is shown as below:
 515:../Firmware/GD32VW55x_standard_peripheral/Source/gd32vw55x_pmu.c ****       \arg        PMU_INT_BLE_POWER_FALL: BLE power status falling edge interrupt
 516:../Firmware/GD32VW55x_standard_peripheral/Source/gd32vw55x_pmu.c ****       \arg        PMU_INT_BLE_POWER_RISE: BLE power status rising edge interrupt
 517:../Firmware/GD32VW55x_standard_peripheral/Source/gd32vw55x_pmu.c ****     \param[out] none
 518:../Firmware/GD32VW55x_standard_peripheral/Source/gd32vw55x_pmu.c ****     \retval     none
 519:../Firmware/GD32VW55x_standard_peripheral/Source/gd32vw55x_pmu.c **** */
 520:../Firmware/GD32VW55x_standard_peripheral/Source/gd32vw55x_pmu.c **** void pmu_interrupt_disable(uint32_t interrupt)
 521:../Firmware/GD32VW55x_standard_peripheral/Source/gd32vw55x_pmu.c **** {
 1394              		.loc 1 521 1
 1395              		.cfi_startproc
 1396 0000 0111     		addi	sp,sp,-32
 1397              		.cfi_def_cfa_offset 32
 1398 0002 22CE     		sw	s0,28(sp)
 1399              		.cfi_offset 8, -4
 1400 0004 0010     		addi	s0,sp,32
 1401              		.cfi_def_cfa 8, 0
 1402 0006 2326A4FE 		sw	a0,-20(s0)
 522:../Firmware/GD32VW55x_standard_peripheral/Source/gd32vw55x_pmu.c ****     PMU_INTEN &= ~((uint32_t)interrupt);
 1403              		.loc 1 522 15
 1404 000a B7770040 		li	a5,1073770496
 1405 000e 93870703 		addi	a5,a5,48
 1406 0012 9443     		lw	a3,0(a5)
 1407              		.loc 1 522 18
 1408 0014 8327C4FE 		lw	a5,-20(s0)
 1409 0018 13C7F7FF 		not	a4,a5
 1410              		.loc 1 522 15
 1411 001c B7770040 		li	a5,1073770496
 1412 0020 93870703 		addi	a5,a5,48
 1413 0024 758F     		and	a4,a3,a4
 1414 0026 98C3     		sw	a4,0(a5)
 523:../Firmware/GD32VW55x_standard_peripheral/Source/gd32vw55x_pmu.c **** }
 1415              		.loc 1 523 1
 1416 0028 0100     		nop
 1417 002a 7244     		lw	s0,28(sp)
 1418              		.cfi_restore 8
 1419              		.cfi_def_cfa 2, 32
 1420 002c 0561     		addi	sp,sp,32
 1421              		.cfi_def_cfa_offset 0
 1422 002e 8280     		jr	ra
 1423              		.cfi_endproc
 1424              	.LFE373:
 1426              		.section	.text.pmu_interrupt_flag_get,"ax",@progbits
 1427              		.align	1
 1428              		.globl	pmu_interrupt_flag_get
 1430              	pmu_interrupt_flag_get:
 1431              	.LFB374:
 524:../Firmware/GD32VW55x_standard_peripheral/Source/gd32vw55x_pmu.c **** 
 525:../Firmware/GD32VW55x_standard_peripheral/Source/gd32vw55x_pmu.c **** /*!
 526:../Firmware/GD32VW55x_standard_peripheral/Source/gd32vw55x_pmu.c ****     \brief      get PMU interrupt flag
 527:../Firmware/GD32VW55x_standard_peripheral/Source/gd32vw55x_pmu.c ****     \param[in]  int_flag: the PMU interrupt flag
 528:../Firmware/GD32VW55x_standard_peripheral/Source/gd32vw55x_pmu.c ****                 only one parameter can be selected which is shown as below:
 529:../Firmware/GD32VW55x_standard_peripheral/Source/gd32vw55x_pmu.c ****       \arg        PMU_INT_FLAG_BLE_POWER_FALL: BLE power status falling edge interrupt
 530:../Firmware/GD32VW55x_standard_peripheral/Source/gd32vw55x_pmu.c ****       \arg        PMU_INT_FLAG_BLE_POWER_RISE: BLE power status rising edge interrupt
 531:../Firmware/GD32VW55x_standard_peripheral/Source/gd32vw55x_pmu.c ****     \param[out] none
 532:../Firmware/GD32VW55x_standard_peripheral/Source/gd32vw55x_pmu.c ****     \retval     FlagStatus: SET or RESET
 533:../Firmware/GD32VW55x_standard_peripheral/Source/gd32vw55x_pmu.c **** */
 534:../Firmware/GD32VW55x_standard_peripheral/Source/gd32vw55x_pmu.c **** FlagStatus pmu_interrupt_flag_get(uint32_t int_flag)
 535:../Firmware/GD32VW55x_standard_peripheral/Source/gd32vw55x_pmu.c **** {
 1432              		.loc 1 535 1
 1433              		.cfi_startproc
 1434 0000 7971     		addi	sp,sp,-48
 1435              		.cfi_def_cfa_offset 48
 1436 0002 22D6     		sw	s0,44(sp)
 1437              		.cfi_offset 8, -4
 1438 0004 0018     		addi	s0,sp,48
 1439              		.cfi_def_cfa 8, 0
 1440 0006 232EA4FC 		sw	a0,-36(s0)
 536:../Firmware/GD32VW55x_standard_peripheral/Source/gd32vw55x_pmu.c ****     FlagStatus interrupt_flag = RESET;
 1441              		.loc 1 536 16
 1442 000a 232604FE 		sw	zero,-20(s0)
 537:../Firmware/GD32VW55x_standard_peripheral/Source/gd32vw55x_pmu.c ****     uint32_t state;
 538:../Firmware/GD32VW55x_standard_peripheral/Source/gd32vw55x_pmu.c ****     /* check the interrupt bits */
 539:../Firmware/GD32VW55x_standard_peripheral/Source/gd32vw55x_pmu.c ****     switch(int_flag){
 1443              		.loc 1 539 5
 1444 000e 0327C4FD 		lw	a4,-36(s0)
 1445 0012 8547     		li	a5,1
 1446 0014 6308F700 		beq	a4,a5,.L46
 1447 0018 0327C4FD 		lw	a4,-36(s0)
 1448 001c 8947     		li	a5,2
 1449 001e 6309F702 		beq	a4,a5,.L47
 540:../Firmware/GD32VW55x_standard_peripheral/Source/gd32vw55x_pmu.c ****     case PMU_INT_FLAG_BLE_POWER_FALL:
 541:../Firmware/GD32VW55x_standard_peripheral/Source/gd32vw55x_pmu.c ****         /* get BLE power status rising edge interrupt bits */
 542:../Firmware/GD32VW55x_standard_peripheral/Source/gd32vw55x_pmu.c ****         state = PMU_INTF & PMU_INTF_BLE_PS_FALLF;
 543:../Firmware/GD32VW55x_standard_peripheral/Source/gd32vw55x_pmu.c ****         if((PMU_INTEN & PMU_INTEN_BLE_PS_FALL_EN) && state){
 544:../Firmware/GD32VW55x_standard_peripheral/Source/gd32vw55x_pmu.c ****           interrupt_flag = SET;
 545:../Firmware/GD32VW55x_standard_peripheral/Source/gd32vw55x_pmu.c ****         }
 546:../Firmware/GD32VW55x_standard_peripheral/Source/gd32vw55x_pmu.c ****         break;
 547:../Firmware/GD32VW55x_standard_peripheral/Source/gd32vw55x_pmu.c ****     case PMU_INT_FLAG_BLE_POWER_RISE:
 548:../Firmware/GD32VW55x_standard_peripheral/Source/gd32vw55x_pmu.c ****          /* get BLE power status rising edge interrupt bits */
 549:../Firmware/GD32VW55x_standard_peripheral/Source/gd32vw55x_pmu.c ****         state = PMU_INTF & PMU_INTF_BLE_PS_RISEF;
 550:../Firmware/GD32VW55x_standard_peripheral/Source/gd32vw55x_pmu.c ****           if((PMU_INTEN & PMU_INTEN_BLE_PS_RISE_EN) && state){
 551:../Firmware/GD32VW55x_standard_peripheral/Source/gd32vw55x_pmu.c ****             interrupt_flag = SET;
 552:../Firmware/GD32VW55x_standard_peripheral/Source/gd32vw55x_pmu.c ****           }
 553:../Firmware/GD32VW55x_standard_peripheral/Source/gd32vw55x_pmu.c ****         break;
 554:../Firmware/GD32VW55x_standard_peripheral/Source/gd32vw55x_pmu.c ****     default:
 555:../Firmware/GD32VW55x_standard_peripheral/Source/gd32vw55x_pmu.c ****         break;
 1450              		.loc 1 555 9
 1451 0022 85A0     		j	.L50
 1452              	.L46:
 542:../Firmware/GD32VW55x_standard_peripheral/Source/gd32vw55x_pmu.c ****         if((PMU_INTEN & PMU_INTEN_BLE_PS_FALL_EN) && state){
 1453              		.loc 1 542 17
 1454 0024 B7770040 		li	a5,1073770496
 1455 0028 9387C702 		addi	a5,a5,44
 1456 002c 9C43     		lw	a5,0(a5)
 542:../Firmware/GD32VW55x_standard_peripheral/Source/gd32vw55x_pmu.c ****         if((PMU_INTEN & PMU_INTEN_BLE_PS_FALL_EN) && state){
 1457              		.loc 1 542 15
 1458 002e 858B     		andi	a5,a5,1
 1459 0030 2324F4FE 		sw	a5,-24(s0)
 543:../Firmware/GD32VW55x_standard_peripheral/Source/gd32vw55x_pmu.c ****           interrupt_flag = SET;
 1460              		.loc 1 543 13
 1461 0034 B7770040 		li	a5,1073770496
 1462 0038 93870703 		addi	a5,a5,48
 1463 003c 9C43     		lw	a5,0(a5)
 543:../Firmware/GD32VW55x_standard_peripheral/Source/gd32vw55x_pmu.c ****           interrupt_flag = SET;
 1464              		.loc 1 543 23
 1465 003e 858B     		andi	a5,a5,1
 543:../Firmware/GD32VW55x_standard_peripheral/Source/gd32vw55x_pmu.c ****           interrupt_flag = SET;
 1466              		.loc 1 543 11
 1467 0040 95CF     		beq	a5,zero,.L53
 543:../Firmware/GD32VW55x_standard_peripheral/Source/gd32vw55x_pmu.c ****           interrupt_flag = SET;
 1468              		.loc 1 543 51 discriminator 1
 1469 0042 832784FE 		lw	a5,-24(s0)
 1470 0046 9DCB     		beq	a5,zero,.L53
 544:../Firmware/GD32VW55x_standard_peripheral/Source/gd32vw55x_pmu.c ****         }
 1471              		.loc 1 544 26
 1472 0048 8547     		li	a5,1
 1473 004a 2326F4FE 		sw	a5,-20(s0)
 546:../Firmware/GD32VW55x_standard_peripheral/Source/gd32vw55x_pmu.c ****     case PMU_INT_FLAG_BLE_POWER_RISE:
 1474              		.loc 1 546 9
 1475 004e 3DA0     		j	.L53
 1476              	.L47:
 549:../Firmware/GD32VW55x_standard_peripheral/Source/gd32vw55x_pmu.c ****           if((PMU_INTEN & PMU_INTEN_BLE_PS_RISE_EN) && state){
 1477              		.loc 1 549 17
 1478 0050 B7770040 		li	a5,1073770496
 1479 0054 9387C702 		addi	a5,a5,44
 1480 0058 9C43     		lw	a5,0(a5)
 549:../Firmware/GD32VW55x_standard_peripheral/Source/gd32vw55x_pmu.c ****           if((PMU_INTEN & PMU_INTEN_BLE_PS_RISE_EN) && state){
 1481              		.loc 1 549 15
 1482 005a 898B     		andi	a5,a5,2
 1483 005c 2324F4FE 		sw	a5,-24(s0)
 550:../Firmware/GD32VW55x_standard_peripheral/Source/gd32vw55x_pmu.c ****             interrupt_flag = SET;
 1484              		.loc 1 550 15
 1485 0060 B7770040 		li	a5,1073770496
 1486 0064 93870703 		addi	a5,a5,48
 1487 0068 9C43     		lw	a5,0(a5)
 550:../Firmware/GD32VW55x_standard_peripheral/Source/gd32vw55x_pmu.c ****             interrupt_flag = SET;
 1488              		.loc 1 550 25
 1489 006a 898B     		andi	a5,a5,2
 550:../Firmware/GD32VW55x_standard_peripheral/Source/gd32vw55x_pmu.c ****             interrupt_flag = SET;
 1490              		.loc 1 550 13
 1491 006c 91CB     		beq	a5,zero,.L54
 550:../Firmware/GD32VW55x_standard_peripheral/Source/gd32vw55x_pmu.c ****             interrupt_flag = SET;
 1492              		.loc 1 550 53 discriminator 1
 1493 006e 832784FE 		lw	a5,-24(s0)
 1494 0072 99C7     		beq	a5,zero,.L54
 551:../Firmware/GD32VW55x_standard_peripheral/Source/gd32vw55x_pmu.c ****           }
 1495              		.loc 1 551 28
 1496 0074 8547     		li	a5,1
 1497 0076 2326F4FE 		sw	a5,-20(s0)
 553:../Firmware/GD32VW55x_standard_peripheral/Source/gd32vw55x_pmu.c ****     default:
 1498              		.loc 1 553 9
 1499 007a 19A0     		j	.L54
 1500              	.L53:
 546:../Firmware/GD32VW55x_standard_peripheral/Source/gd32vw55x_pmu.c ****     case PMU_INT_FLAG_BLE_POWER_RISE:
 1501              		.loc 1 546 9
 1502 007c 0100     		nop
 1503 007e 11A0     		j	.L50
 1504              	.L54:
 553:../Firmware/GD32VW55x_standard_peripheral/Source/gd32vw55x_pmu.c ****     default:
 1505              		.loc 1 553 9
 1506 0080 0100     		nop
 1507              	.L50:
 556:../Firmware/GD32VW55x_standard_peripheral/Source/gd32vw55x_pmu.c ****     }
 557:../Firmware/GD32VW55x_standard_peripheral/Source/gd32vw55x_pmu.c ****     return interrupt_flag;
 1508              		.loc 1 557 12
 1509 0082 8327C4FE 		lw	a5,-20(s0)
 558:../Firmware/GD32VW55x_standard_peripheral/Source/gd32vw55x_pmu.c **** }
 1510              		.loc 1 558 1
 1511 0086 3E85     		mv	a0,a5
 1512 0088 3254     		lw	s0,44(sp)
 1513              		.cfi_restore 8
 1514              		.cfi_def_cfa 2, 48
 1515 008a 4561     		addi	sp,sp,48
 1516              		.cfi_def_cfa_offset 0
 1517 008c 8280     		jr	ra
 1518              		.cfi_endproc
 1519              	.LFE374:
 1521              		.section	.text.pmu_interrupt_flag_clear,"ax",@progbits
 1522              		.align	1
 1523              		.globl	pmu_interrupt_flag_clear
 1525              	pmu_interrupt_flag_clear:
 1526              	.LFB375:
 559:../Firmware/GD32VW55x_standard_peripheral/Source/gd32vw55x_pmu.c **** 
 560:../Firmware/GD32VW55x_standard_peripheral/Source/gd32vw55x_pmu.c **** /*!
 561:../Firmware/GD32VW55x_standard_peripheral/Source/gd32vw55x_pmu.c ****     \brief      clear PMU interrupt flag
 562:../Firmware/GD32VW55x_standard_peripheral/Source/gd32vw55x_pmu.c ****     \param[in]  int_flag: the PMU interrupt flag
 563:../Firmware/GD32VW55x_standard_peripheral/Source/gd32vw55x_pmu.c ****                 only one parameter can be selected which is shown as below:
 564:../Firmware/GD32VW55x_standard_peripheral/Source/gd32vw55x_pmu.c ****       \arg        PMU_INT_FLAG_RESET_BLE_POWER_FALL: BLE power status falling edge interrupt
 565:../Firmware/GD32VW55x_standard_peripheral/Source/gd32vw55x_pmu.c ****       \arg        PMU_INT_FLAG_RESET_BLE_POWER_RISE: BLE power status rising edge interrupt
 566:../Firmware/GD32VW55x_standard_peripheral/Source/gd32vw55x_pmu.c ****     \param[out] none
 567:../Firmware/GD32VW55x_standard_peripheral/Source/gd32vw55x_pmu.c ****     \retval     none
 568:../Firmware/GD32VW55x_standard_peripheral/Source/gd32vw55x_pmu.c **** */
 569:../Firmware/GD32VW55x_standard_peripheral/Source/gd32vw55x_pmu.c **** void pmu_interrupt_flag_clear(uint32_t int_flag)
 570:../Firmware/GD32VW55x_standard_peripheral/Source/gd32vw55x_pmu.c **** {
 1527              		.loc 1 570 1
 1528              		.cfi_startproc
 1529 0000 0111     		addi	sp,sp,-32
 1530              		.cfi_def_cfa_offset 32
 1531 0002 22CE     		sw	s0,28(sp)
 1532              		.cfi_offset 8, -4
 1533 0004 0010     		addi	s0,sp,32
 1534              		.cfi_def_cfa 8, 0
 1535 0006 2326A4FE 		sw	a0,-20(s0)
 571:../Firmware/GD32VW55x_standard_peripheral/Source/gd32vw55x_pmu.c ****     PMU_INTC |= (uint32_t)int_flag;
 1536              		.loc 1 571 14
 1537 000a B7770040 		li	a5,1073770496
 1538 000e 93874703 		addi	a5,a5,52
 1539 0012 9443     		lw	a3,0(a5)
 1540 0014 B7770040 		li	a5,1073770496
 1541 0018 93874703 		addi	a5,a5,52
 1542 001c 0327C4FE 		lw	a4,-20(s0)
 1543 0020 558F     		or	a4,a3,a4
 1544 0022 98C3     		sw	a4,0(a5)
 572:../Firmware/GD32VW55x_standard_peripheral/Source/gd32vw55x_pmu.c **** }
 1545              		.loc 1 572 1
 1546 0024 0100     		nop
 1547 0026 7244     		lw	s0,28(sp)
 1548              		.cfi_restore 8
 1549              		.cfi_def_cfa 2, 32
 1550 0028 0561     		addi	sp,sp,32
 1551              		.cfi_def_cfa_offset 0
 1552 002a 8280     		jr	ra
 1553              		.cfi_endproc
 1554              	.LFE375:
 1556              		.text
 1557              	.Letext0:
 1558              		.file 3 "e:\\gd32\\gd32embeddedbuilder_v1.5.2.30854\\tools\\nuclei_riscv_newlibc_prebuilt_win32_20
 1559              		.file 4 "e:\\gd32\\gd32embeddedbuilder_v1.5.2.30854\\tools\\nuclei_riscv_newlibc_prebuilt_win32_20
 1560              		.file 5 "../Firmware/GD32VW55x_standard_peripheral/gd32vw55x.h"
 1561              		.file 6 "../Firmware/GD32VW55x_standard_peripheral/Include/gd32vw55x_rcu.h"