   1              		.file	"gd32vw55x_fmc.c"
   2              		.option nopic
   3              		.attribute arch, "rv32i2p0_m2p0_a2p0_c2p0"
   4              		.attribute unaligned_access, 0
   5              		.attribute stack_align, 16
   6              		.text
   7              	.Ltext0:
   8              		.cfi_sections	.debug_frame
   9              		.section	.text.fmc_unlock,"ax",@progbits
  10              		.align	1
  11              		.globl	fmc_unlock
  13              	fmc_unlock:
  14              	.LFB347:
  15              		.file 1 "../Firmware/GD32VW55x_standard_peripheral/Source/gd32vw55x_fmc.c"
   1:../Firmware/GD32VW55x_standard_peripheral/Source/gd32vw55x_fmc.c **** /*!
   2:../Firmware/GD32VW55x_standard_peripheral/Source/gd32vw55x_fmc.c ****     \file    gd32vw55x_fmc.h
   3:../Firmware/GD32VW55x_standard_peripheral/Source/gd32vw55x_fmc.c ****     \brief   definitions for the FMC
   4:../Firmware/GD32VW55x_standard_peripheral/Source/gd32vw55x_fmc.c **** 
   5:../Firmware/GD32VW55x_standard_peripheral/Source/gd32vw55x_fmc.c ****     \version 2025-01-16, V1.4.0, firmware for GD32VW55x
   6:../Firmware/GD32VW55x_standard_peripheral/Source/gd32vw55x_fmc.c **** */
   7:../Firmware/GD32VW55x_standard_peripheral/Source/gd32vw55x_fmc.c **** 
   8:../Firmware/GD32VW55x_standard_peripheral/Source/gd32vw55x_fmc.c **** /*
   9:../Firmware/GD32VW55x_standard_peripheral/Source/gd32vw55x_fmc.c ****     Copyright (c) 2025, GigaDevice Semiconductor Inc.
  10:../Firmware/GD32VW55x_standard_peripheral/Source/gd32vw55x_fmc.c **** 
  11:../Firmware/GD32VW55x_standard_peripheral/Source/gd32vw55x_fmc.c ****     Redistribution and use in source and binary forms, with or without modification,
  12:../Firmware/GD32VW55x_standard_peripheral/Source/gd32vw55x_fmc.c **** are permitted provided that the following conditions are met:
  13:../Firmware/GD32VW55x_standard_peripheral/Source/gd32vw55x_fmc.c **** 
  14:../Firmware/GD32VW55x_standard_peripheral/Source/gd32vw55x_fmc.c ****     1. Redistributions of source code must retain the above copyright notice, this
  15:../Firmware/GD32VW55x_standard_peripheral/Source/gd32vw55x_fmc.c ****        list of conditions and the following disclaimer.
  16:../Firmware/GD32VW55x_standard_peripheral/Source/gd32vw55x_fmc.c ****     2. Redistributions in binary form must reproduce the above copyright notice,
  17:../Firmware/GD32VW55x_standard_peripheral/Source/gd32vw55x_fmc.c ****        this list of conditions and the following disclaimer in the documentation
  18:../Firmware/GD32VW55x_standard_peripheral/Source/gd32vw55x_fmc.c ****        and/or other materials provided with the distribution.
  19:../Firmware/GD32VW55x_standard_peripheral/Source/gd32vw55x_fmc.c ****     3. Neither the name of the copyright holder nor the names of its contributors
  20:../Firmware/GD32VW55x_standard_peripheral/Source/gd32vw55x_fmc.c ****        may be used to endorse or promote products derived from this software without
  21:../Firmware/GD32VW55x_standard_peripheral/Source/gd32vw55x_fmc.c ****        specific prior written permission.
  22:../Firmware/GD32VW55x_standard_peripheral/Source/gd32vw55x_fmc.c **** 
  23:../Firmware/GD32VW55x_standard_peripheral/Source/gd32vw55x_fmc.c ****     THIS SOFTWARE IS PROVIDED BY THE COPYRIGHT HOLDERS AND CONTRIBUTORS "AS IS"
  24:../Firmware/GD32VW55x_standard_peripheral/Source/gd32vw55x_fmc.c **** AND ANY EXPRESS OR IMPLIED WARRANTIES, INCLUDING, BUT NOT LIMITED TO, THE IMPLIED
  25:../Firmware/GD32VW55x_standard_peripheral/Source/gd32vw55x_fmc.c **** WARRANTIES OF MERCHANTABILITY AND FITNESS FOR A PARTICULAR PURPOSE ARE DISCLAIMED.
  26:../Firmware/GD32VW55x_standard_peripheral/Source/gd32vw55x_fmc.c **** IN NO EVENT SHALL THE COPYRIGHT HOLDER OR CONTRIBUTORS BE LIABLE FOR ANY DIRECT,
  27:../Firmware/GD32VW55x_standard_peripheral/Source/gd32vw55x_fmc.c **** INDIRECT, INCIDENTAL, SPECIAL, EXEMPLARY, OR CONSEQUENTIAL DAMAGES (INCLUDING, BUT
  28:../Firmware/GD32VW55x_standard_peripheral/Source/gd32vw55x_fmc.c **** NOT LIMITED TO, PROCUREMENT OF SUBSTITUTE GOODS OR SERVICES; LOSS OF USE, DATA, OR
  29:../Firmware/GD32VW55x_standard_peripheral/Source/gd32vw55x_fmc.c **** PROFITS; OR BUSINESS INTERRUPTION) HOWEVER CAUSED AND ON ANY THEORY OF LIABILITY,
  30:../Firmware/GD32VW55x_standard_peripheral/Source/gd32vw55x_fmc.c **** WHETHER IN CONTRACT, STRICT LIABILITY, OR TORT (INCLUDING NEGLIGENCE OR OTHERWISE)
  31:../Firmware/GD32VW55x_standard_peripheral/Source/gd32vw55x_fmc.c **** ARISING IN ANY WAY OUT OF THE USE OF THIS SOFTWARE, EVEN IF ADVISED OF THE POSSIBILITY
  32:../Firmware/GD32VW55x_standard_peripheral/Source/gd32vw55x_fmc.c **** OF SUCH DAMAGE.
  33:../Firmware/GD32VW55x_standard_peripheral/Source/gd32vw55x_fmc.c ****  */
  34:../Firmware/GD32VW55x_standard_peripheral/Source/gd32vw55x_fmc.c **** 
  35:../Firmware/GD32VW55x_standard_peripheral/Source/gd32vw55x_fmc.c **** #include "gd32vw55x_fmc.h"
  36:../Firmware/GD32VW55x_standard_peripheral/Source/gd32vw55x_fmc.c **** 
  37:../Firmware/GD32VW55x_standard_peripheral/Source/gd32vw55x_fmc.c **** /* FMC mask */
  38:../Firmware/GD32VW55x_standard_peripheral/Source/gd32vw55x_fmc.c **** /* FMC_OBR_SPC mask */
  39:../Firmware/GD32VW55x_standard_peripheral/Source/gd32vw55x_fmc.c **** #define FMC_OBR_SPC_MASK                  ((uint32_t)0xFFFFFF00U)
  40:../Firmware/GD32VW55x_standard_peripheral/Source/gd32vw55x_fmc.c **** /* FMC_OBUSER mask */
  41:../Firmware/GD32VW55x_standard_peripheral/Source/gd32vw55x_fmc.c **** #define FMC_OBUSER_MASK                   ((uint32_t)0x00000000U)
  42:../Firmware/GD32VW55x_standard_peripheral/Source/gd32vw55x_fmc.c **** /* FMC_OBSTAT security protection mask */
  43:../Firmware/GD32VW55x_standard_peripheral/Source/gd32vw55x_fmc.c **** #define FMC_OBSTAT_SPCSTAT_MASK           ((uint32_t)0x00000002U)
  44:../Firmware/GD32VW55x_standard_peripheral/Source/gd32vw55x_fmc.c **** /* FMC_OBWRPx/FMC_OFRG end page of region offset */
  45:../Firmware/GD32VW55x_standard_peripheral/Source/gd32vw55x_fmc.c **** #define FMC_EPAGE_OFFSET                  ((uint32_t)16U)
  46:../Firmware/GD32VW55x_standard_peripheral/Source/gd32vw55x_fmc.c **** 
  47:../Firmware/GD32VW55x_standard_peripheral/Source/gd32vw55x_fmc.c **** /* return the FMC state */
  48:../Firmware/GD32VW55x_standard_peripheral/Source/gd32vw55x_fmc.c **** static fmc_state_enum fmc_state_get(void);
  49:../Firmware/GD32VW55x_standard_peripheral/Source/gd32vw55x_fmc.c **** /* check FMC ready or not */
  50:../Firmware/GD32VW55x_standard_peripheral/Source/gd32vw55x_fmc.c **** static fmc_state_enum fmc_ready_wait(uint32_t timeout);
  51:../Firmware/GD32VW55x_standard_peripheral/Source/gd32vw55x_fmc.c **** 
  52:../Firmware/GD32VW55x_standard_peripheral/Source/gd32vw55x_fmc.c **** /*!
  53:../Firmware/GD32VW55x_standard_peripheral/Source/gd32vw55x_fmc.c ****     \brief      unlock the main FMC operation
  54:../Firmware/GD32VW55x_standard_peripheral/Source/gd32vw55x_fmc.c ****                 it is better to used in pairs with fmc_lock
  55:../Firmware/GD32VW55x_standard_peripheral/Source/gd32vw55x_fmc.c ****     \param[in]  none
  56:../Firmware/GD32VW55x_standard_peripheral/Source/gd32vw55x_fmc.c ****     \param[out] none
  57:../Firmware/GD32VW55x_standard_peripheral/Source/gd32vw55x_fmc.c ****     \retval     none
  58:../Firmware/GD32VW55x_standard_peripheral/Source/gd32vw55x_fmc.c **** */
  59:../Firmware/GD32VW55x_standard_peripheral/Source/gd32vw55x_fmc.c **** void fmc_unlock(void)
  60:../Firmware/GD32VW55x_standard_peripheral/Source/gd32vw55x_fmc.c **** {
  16              		.loc 1 60 1
  17              		.cfi_startproc
  18 0000 4111     		addi	sp,sp,-16
  19              		.cfi_def_cfa_offset 16
  20 0002 22C6     		sw	s0,12(sp)
  21              		.cfi_offset 8, -4
  22 0004 0008     		addi	s0,sp,16
  23              		.cfi_def_cfa 8, 0
  61:../Firmware/GD32VW55x_standard_peripheral/Source/gd32vw55x_fmc.c ****     if(RESET != (FMC_CTL & FMC_CTL_LK)){
  24              		.loc 1 61 18
  25 0006 B7270240 		li	a5,1073881088
  26 000a C107     		addi	a5,a5,16
  27 000c 9C43     		lw	a5,0(a5)
  28              		.loc 1 61 26
  29 000e 93F70708 		andi	a5,a5,128
  30              		.loc 1 61 7
  31 0012 8DC3     		beq	a5,zero,.L3
  62:../Firmware/GD32VW55x_standard_peripheral/Source/gd32vw55x_fmc.c ****         /* write the FMC unlock key */
  63:../Firmware/GD32VW55x_standard_peripheral/Source/gd32vw55x_fmc.c ****         FMC_KEY = UNLOCK_KEY0;
  32              		.loc 1 63 9
  33 0014 B7270240 		li	a5,1073881088
  34 0018 9107     		addi	a5,a5,4
  35              		.loc 1 63 17
  36 001a 37076745 		li	a4,1164378112
  37 001e 13073712 		addi	a4,a4,291
  38 0022 98C3     		sw	a4,0(a5)
  64:../Firmware/GD32VW55x_standard_peripheral/Source/gd32vw55x_fmc.c ****         FMC_KEY = UNLOCK_KEY1;
  39              		.loc 1 64 9
  40 0024 B7270240 		li	a5,1073881088
  41 0028 9107     		addi	a5,a5,4
  42              		.loc 1 64 17
  43 002a 3797EFCD 		li	a4,-839938048
  44 002e 1307B79A 		addi	a4,a4,-1621
  45 0032 98C3     		sw	a4,0(a5)
  46              	.L3:
  65:../Firmware/GD32VW55x_standard_peripheral/Source/gd32vw55x_fmc.c ****     }
  66:../Firmware/GD32VW55x_standard_peripheral/Source/gd32vw55x_fmc.c **** }
  47              		.loc 1 66 1
  48 0034 0100     		nop
  49 0036 3244     		lw	s0,12(sp)
  50              		.cfi_restore 8
  51              		.cfi_def_cfa 2, 16
  52 0038 4101     		addi	sp,sp,16
  53              		.cfi_def_cfa_offset 0
  54 003a 8280     		jr	ra
  55              		.cfi_endproc
  56              	.LFE347:
  58              		.section	.text.fmc_lock,"ax",@progbits
  59              		.align	1
  60              		.globl	fmc_lock
  62              	fmc_lock:
  63              	.LFB348:
  67:../Firmware/GD32VW55x_standard_peripheral/Source/gd32vw55x_fmc.c **** 
  68:../Firmware/GD32VW55x_standard_peripheral/Source/gd32vw55x_fmc.c **** /*!
  69:../Firmware/GD32VW55x_standard_peripheral/Source/gd32vw55x_fmc.c ****     \brief      lock the main FMC operation
  70:../Firmware/GD32VW55x_standard_peripheral/Source/gd32vw55x_fmc.c ****                 it is better to used in pairs with fmc_unlock after an operation
  71:../Firmware/GD32VW55x_standard_peripheral/Source/gd32vw55x_fmc.c ****     \param[in]  none
  72:../Firmware/GD32VW55x_standard_peripheral/Source/gd32vw55x_fmc.c ****     \param[out] none
  73:../Firmware/GD32VW55x_standard_peripheral/Source/gd32vw55x_fmc.c ****     \retval     none
  74:../Firmware/GD32VW55x_standard_peripheral/Source/gd32vw55x_fmc.c **** */
  75:../Firmware/GD32VW55x_standard_peripheral/Source/gd32vw55x_fmc.c **** void fmc_lock(void)
  76:../Firmware/GD32VW55x_standard_peripheral/Source/gd32vw55x_fmc.c **** {
  64              		.loc 1 76 1
  65              		.cfi_startproc
  66 0000 4111     		addi	sp,sp,-16
  67              		.cfi_def_cfa_offset 16
  68 0002 22C6     		sw	s0,12(sp)
  69              		.cfi_offset 8, -4
  70 0004 0008     		addi	s0,sp,16
  71              		.cfi_def_cfa 8, 0
  77:../Firmware/GD32VW55x_standard_peripheral/Source/gd32vw55x_fmc.c ****     /* set the LK bit */
  78:../Firmware/GD32VW55x_standard_peripheral/Source/gd32vw55x_fmc.c ****     FMC_CTL |= FMC_CTL_LK;
  72              		.loc 1 78 13
  73 0006 B7270240 		li	a5,1073881088
  74 000a C107     		addi	a5,a5,16
  75 000c 9843     		lw	a4,0(a5)
  76 000e B7270240 		li	a5,1073881088
  77 0012 C107     		addi	a5,a5,16
  78 0014 13670708 		ori	a4,a4,128
  79 0018 98C3     		sw	a4,0(a5)
  79:../Firmware/GD32VW55x_standard_peripheral/Source/gd32vw55x_fmc.c **** }
  80              		.loc 1 79 1
  81 001a 0100     		nop
  82 001c 3244     		lw	s0,12(sp)
  83              		.cfi_restore 8
  84              		.cfi_def_cfa 2, 16
  85 001e 4101     		addi	sp,sp,16
  86              		.cfi_def_cfa_offset 0
  87 0020 8280     		jr	ra
  88              		.cfi_endproc
  89              	.LFE348:
  91              		.section	.text.fmc_page_erase,"ax",@progbits
  92              		.align	1
  93              		.globl	fmc_page_erase
  95              	fmc_page_erase:
  96              	.LFB349:
  80:../Firmware/GD32VW55x_standard_peripheral/Source/gd32vw55x_fmc.c **** 
  81:../Firmware/GD32VW55x_standard_peripheral/Source/gd32vw55x_fmc.c **** /*!
  82:../Firmware/GD32VW55x_standard_peripheral/Source/gd32vw55x_fmc.c ****     \brief      FMC erase page
  83:../Firmware/GD32VW55x_standard_peripheral/Source/gd32vw55x_fmc.c ****     \param[in]  page_address: target page address
  84:../Firmware/GD32VW55x_standard_peripheral/Source/gd32vw55x_fmc.c ****     \param[out] none
  85:../Firmware/GD32VW55x_standard_peripheral/Source/gd32vw55x_fmc.c ****     \retval     state of FMC
  86:../Firmware/GD32VW55x_standard_peripheral/Source/gd32vw55x_fmc.c ****       \arg        FMC_READY: the operation has been completed
  87:../Firmware/GD32VW55x_standard_peripheral/Source/gd32vw55x_fmc.c ****       \arg        FMC_WPERR: erase/program protection error
  88:../Firmware/GD32VW55x_standard_peripheral/Source/gd32vw55x_fmc.c ****       \arg        FMC_TOERR: timeout error
  89:../Firmware/GD32VW55x_standard_peripheral/Source/gd32vw55x_fmc.c **** */
  90:../Firmware/GD32VW55x_standard_peripheral/Source/gd32vw55x_fmc.c **** fmc_state_enum fmc_page_erase(uint32_t page_address)
  91:../Firmware/GD32VW55x_standard_peripheral/Source/gd32vw55x_fmc.c **** {
  97              		.loc 1 91 1
  98              		.cfi_startproc
  99 0000 7971     		addi	sp,sp,-48
 100              		.cfi_def_cfa_offset 48
 101 0002 06D6     		sw	ra,44(sp)
 102 0004 22D4     		sw	s0,40(sp)
 103              		.cfi_offset 1, -4
 104              		.cfi_offset 8, -8
 105 0006 0018     		addi	s0,sp,48
 106              		.cfi_def_cfa 8, 0
 107 0008 232EA4FC 		sw	a0,-36(s0)
  92:../Firmware/GD32VW55x_standard_peripheral/Source/gd32vw55x_fmc.c ****     fmc_state_enum fmc_state = FMC_READY;
 108              		.loc 1 92 20
 109 000c 232604FE 		sw	zero,-20(s0)
  93:../Firmware/GD32VW55x_standard_peripheral/Source/gd32vw55x_fmc.c **** 
  94:../Firmware/GD32VW55x_standard_peripheral/Source/gd32vw55x_fmc.c ****     /* wait for the FMC ready */
  95:../Firmware/GD32VW55x_standard_peripheral/Source/gd32vw55x_fmc.c ****     fmc_state = fmc_ready_wait(FMC_TIMEOUT_COUNT);
 110              		.loc 1 95 17
 111 0010 37050001 		li	a0,16777216
 112 0014 97000000 		call	fmc_ready_wait
 112      E7800000 
 113 001c 2326A4FE 		sw	a0,-20(s0)
  96:../Firmware/GD32VW55x_standard_peripheral/Source/gd32vw55x_fmc.c **** 
  97:../Firmware/GD32VW55x_standard_peripheral/Source/gd32vw55x_fmc.c ****     if(FMC_READY == fmc_state){
 114              		.loc 1 97 7
 115 0020 8327C4FE 		lw	a5,-20(s0)
 116 0024 A1EF     		bne	a5,zero,.L6
  98:../Firmware/GD32VW55x_standard_peripheral/Source/gd32vw55x_fmc.c ****         /* start page erase */
  99:../Firmware/GD32VW55x_standard_peripheral/Source/gd32vw55x_fmc.c ****         FMC_CTL |= FMC_CTL_PER;
 117              		.loc 1 99 17
 118 0026 B7270240 		li	a5,1073881088
 119 002a C107     		addi	a5,a5,16
 120 002c 9843     		lw	a4,0(a5)
 121 002e B7270240 		li	a5,1073881088
 122 0032 C107     		addi	a5,a5,16
 123 0034 13672700 		ori	a4,a4,2
 124 0038 98C3     		sw	a4,0(a5)
 100:../Firmware/GD32VW55x_standard_peripheral/Source/gd32vw55x_fmc.c ****         FMC_ADDR = page_address;
 125              		.loc 1 100 9
 126 003a B7270240 		li	a5,1073881088
 127 003e D107     		addi	a5,a5,20
 128              		.loc 1 100 18
 129 0040 0327C4FD 		lw	a4,-36(s0)
 130 0044 98C3     		sw	a4,0(a5)
 101:../Firmware/GD32VW55x_standard_peripheral/Source/gd32vw55x_fmc.c ****         FMC_CTL |= FMC_CTL_START;
 131              		.loc 1 101 17
 132 0046 B7270240 		li	a5,1073881088
 133 004a C107     		addi	a5,a5,16
 134 004c 9843     		lw	a4,0(a5)
 135 004e B7270240 		li	a5,1073881088
 136 0052 C107     		addi	a5,a5,16
 137 0054 13670704 		ori	a4,a4,64
 138 0058 98C3     		sw	a4,0(a5)
 102:../Firmware/GD32VW55x_standard_peripheral/Source/gd32vw55x_fmc.c ****         /* wait for the FMC ready */
 103:../Firmware/GD32VW55x_standard_peripheral/Source/gd32vw55x_fmc.c ****         fmc_state = fmc_ready_wait(FMC_TIMEOUT_COUNT);
 139              		.loc 1 103 21
 140 005a 37050001 		li	a0,16777216
 141 005e 97000000 		call	fmc_ready_wait
 141      E7800000 
 142 0066 2326A4FE 		sw	a0,-20(s0)
 104:../Firmware/GD32VW55x_standard_peripheral/Source/gd32vw55x_fmc.c ****         /* reset the PER bit */
 105:../Firmware/GD32VW55x_standard_peripheral/Source/gd32vw55x_fmc.c ****         FMC_CTL &= ~FMC_CTL_PER;
 143              		.loc 1 105 17
 144 006a B7270240 		li	a5,1073881088
 145 006e C107     		addi	a5,a5,16
 146 0070 9843     		lw	a4,0(a5)
 147 0072 B7270240 		li	a5,1073881088
 148 0076 C107     		addi	a5,a5,16
 149 0078 759B     		andi	a4,a4,-3
 150 007a 98C3     		sw	a4,0(a5)
 151              	.L6:
 106:../Firmware/GD32VW55x_standard_peripheral/Source/gd32vw55x_fmc.c ****     }
 107:../Firmware/GD32VW55x_standard_peripheral/Source/gd32vw55x_fmc.c **** 
 108:../Firmware/GD32VW55x_standard_peripheral/Source/gd32vw55x_fmc.c ****     /* return the FMC state */
 109:../Firmware/GD32VW55x_standard_peripheral/Source/gd32vw55x_fmc.c ****     return fmc_state;
 152              		.loc 1 109 12
 153 007c 8327C4FE 		lw	a5,-20(s0)
 110:../Firmware/GD32VW55x_standard_peripheral/Source/gd32vw55x_fmc.c **** }
 154              		.loc 1 110 1
 155 0080 3E85     		mv	a0,a5
 156 0082 B250     		lw	ra,44(sp)
 157              		.cfi_restore 1
 158 0084 2254     		lw	s0,40(sp)
 159              		.cfi_restore 8
 160              		.cfi_def_cfa 2, 48
 161 0086 4561     		addi	sp,sp,48
 162              		.cfi_def_cfa_offset 0
 163 0088 8280     		jr	ra
 164              		.cfi_endproc
 165              	.LFE349:
 167              		.section	.text.fmc_mass_erase,"ax",@progbits
 168              		.align	1
 169              		.globl	fmc_mass_erase
 171              	fmc_mass_erase:
 172              	.LFB350:
 111:../Firmware/GD32VW55x_standard_peripheral/Source/gd32vw55x_fmc.c **** 
 112:../Firmware/GD32VW55x_standard_peripheral/Source/gd32vw55x_fmc.c **** /*!
 113:../Firmware/GD32VW55x_standard_peripheral/Source/gd32vw55x_fmc.c ****     \brief      FMC erase whole chip
 114:../Firmware/GD32VW55x_standard_peripheral/Source/gd32vw55x_fmc.c ****     \param[in]  none
 115:../Firmware/GD32VW55x_standard_peripheral/Source/gd32vw55x_fmc.c ****     \param[out] none
 116:../Firmware/GD32VW55x_standard_peripheral/Source/gd32vw55x_fmc.c ****     \retval     state of FMC
 117:../Firmware/GD32VW55x_standard_peripheral/Source/gd32vw55x_fmc.c ****       \arg        FMC_READY: the operation has been completed
 118:../Firmware/GD32VW55x_standard_peripheral/Source/gd32vw55x_fmc.c ****       \arg        FMC_WPERR: erase/program protection error
 119:../Firmware/GD32VW55x_standard_peripheral/Source/gd32vw55x_fmc.c ****       \arg        FMC_TOERR: timeout error
 120:../Firmware/GD32VW55x_standard_peripheral/Source/gd32vw55x_fmc.c **** */
 121:../Firmware/GD32VW55x_standard_peripheral/Source/gd32vw55x_fmc.c **** fmc_state_enum fmc_mass_erase(void)
 122:../Firmware/GD32VW55x_standard_peripheral/Source/gd32vw55x_fmc.c **** {
 173              		.loc 1 122 1
 174              		.cfi_startproc
 175 0000 0111     		addi	sp,sp,-32
 176              		.cfi_def_cfa_offset 32
 177 0002 06CE     		sw	ra,28(sp)
 178 0004 22CC     		sw	s0,24(sp)
 179              		.cfi_offset 1, -4
 180              		.cfi_offset 8, -8
 181 0006 0010     		addi	s0,sp,32
 182              		.cfi_def_cfa 8, 0
 123:../Firmware/GD32VW55x_standard_peripheral/Source/gd32vw55x_fmc.c ****     fmc_state_enum fmc_state = FMC_READY;
 183              		.loc 1 123 20
 184 0008 232604FE 		sw	zero,-20(s0)
 124:../Firmware/GD32VW55x_standard_peripheral/Source/gd32vw55x_fmc.c **** 
 125:../Firmware/GD32VW55x_standard_peripheral/Source/gd32vw55x_fmc.c ****     /* wait for the FMC ready */
 126:../Firmware/GD32VW55x_standard_peripheral/Source/gd32vw55x_fmc.c ****     fmc_state = fmc_ready_wait(FMC_TIMEOUT_COUNT);
 185              		.loc 1 126 17
 186 000c 37050001 		li	a0,16777216
 187 0010 97000000 		call	fmc_ready_wait
 187      E7800000 
 188 0018 2326A4FE 		sw	a0,-20(s0)
 127:../Firmware/GD32VW55x_standard_peripheral/Source/gd32vw55x_fmc.c **** 
 128:../Firmware/GD32VW55x_standard_peripheral/Source/gd32vw55x_fmc.c ****     if(FMC_READY == fmc_state){
 189              		.loc 1 128 7
 190 001c 8327C4FE 		lw	a5,-20(s0)
 191 0020 B1E7     		bne	a5,zero,.L9
 129:../Firmware/GD32VW55x_standard_peripheral/Source/gd32vw55x_fmc.c ****         /* start chip erase */
 130:../Firmware/GD32VW55x_standard_peripheral/Source/gd32vw55x_fmc.c ****         FMC_CTL |= FMC_CTL_MER;
 192              		.loc 1 130 17
 193 0022 B7270240 		li	a5,1073881088
 194 0026 C107     		addi	a5,a5,16
 195 0028 9843     		lw	a4,0(a5)
 196 002a B7270240 		li	a5,1073881088
 197 002e C107     		addi	a5,a5,16
 198 0030 13674700 		ori	a4,a4,4
 199 0034 98C3     		sw	a4,0(a5)
 131:../Firmware/GD32VW55x_standard_peripheral/Source/gd32vw55x_fmc.c ****         FMC_CTL |= FMC_CTL_START;
 200              		.loc 1 131 17
 201 0036 B7270240 		li	a5,1073881088
 202 003a C107     		addi	a5,a5,16
 203 003c 9843     		lw	a4,0(a5)
 204 003e B7270240 		li	a5,1073881088
 205 0042 C107     		addi	a5,a5,16
 206 0044 13670704 		ori	a4,a4,64
 207 0048 98C3     		sw	a4,0(a5)
 132:../Firmware/GD32VW55x_standard_peripheral/Source/gd32vw55x_fmc.c ****         /* wait for the FMC ready */
 133:../Firmware/GD32VW55x_standard_peripheral/Source/gd32vw55x_fmc.c ****         fmc_state = fmc_ready_wait(FMC_TIMEOUT_COUNT);
 208              		.loc 1 133 21
 209 004a 37050001 		li	a0,16777216
 210 004e 97000000 		call	fmc_ready_wait
 210      E7800000 
 211 0056 2326A4FE 		sw	a0,-20(s0)
 134:../Firmware/GD32VW55x_standard_peripheral/Source/gd32vw55x_fmc.c ****         /* reset the MER bit */
 135:../Firmware/GD32VW55x_standard_peripheral/Source/gd32vw55x_fmc.c ****         FMC_CTL &= ~FMC_CTL_MER;
 212              		.loc 1 135 17
 213 005a B7270240 		li	a5,1073881088
 214 005e C107     		addi	a5,a5,16
 215 0060 9843     		lw	a4,0(a5)
 216 0062 B7270240 		li	a5,1073881088
 217 0066 C107     		addi	a5,a5,16
 218 0068 6D9B     		andi	a4,a4,-5
 219 006a 98C3     		sw	a4,0(a5)
 220              	.L9:
 136:../Firmware/GD32VW55x_standard_peripheral/Source/gd32vw55x_fmc.c ****     }
 137:../Firmware/GD32VW55x_standard_peripheral/Source/gd32vw55x_fmc.c **** 
 138:../Firmware/GD32VW55x_standard_peripheral/Source/gd32vw55x_fmc.c ****     /* return the FMC state  */
 139:../Firmware/GD32VW55x_standard_peripheral/Source/gd32vw55x_fmc.c ****     return fmc_state;
 221              		.loc 1 139 12
 222 006c 8327C4FE 		lw	a5,-20(s0)
 140:../Firmware/GD32VW55x_standard_peripheral/Source/gd32vw55x_fmc.c **** }
 223              		.loc 1 140 1
 224 0070 3E85     		mv	a0,a5
 225 0072 F240     		lw	ra,28(sp)
 226              		.cfi_restore 1
 227 0074 6244     		lw	s0,24(sp)
 228              		.cfi_restore 8
 229              		.cfi_def_cfa 2, 32
 230 0076 0561     		addi	sp,sp,32
 231              		.cfi_def_cfa_offset 0
 232 0078 8280     		jr	ra
 233              		.cfi_endproc
 234              	.LFE350:
 236              		.section	.text.fmc_word_program,"ax",@progbits
 237              		.align	1
 238              		.globl	fmc_word_program
 240              	fmc_word_program:
 241              	.LFB351:
 141:../Firmware/GD32VW55x_standard_peripheral/Source/gd32vw55x_fmc.c **** 
 142:../Firmware/GD32VW55x_standard_peripheral/Source/gd32vw55x_fmc.c **** /*!
 143:../Firmware/GD32VW55x_standard_peripheral/Source/gd32vw55x_fmc.c ****     \brief      FMC program a word at the corresponding address
 144:../Firmware/GD32VW55x_standard_peripheral/Source/gd32vw55x_fmc.c ****     \param[in]  address: address to program
 145:../Firmware/GD32VW55x_standard_peripheral/Source/gd32vw55x_fmc.c ****     \param[in]  data: word to program
 146:../Firmware/GD32VW55x_standard_peripheral/Source/gd32vw55x_fmc.c ****     \param[out] none
 147:../Firmware/GD32VW55x_standard_peripheral/Source/gd32vw55x_fmc.c ****     \retval     state of FMC
 148:../Firmware/GD32VW55x_standard_peripheral/Source/gd32vw55x_fmc.c ****       \arg        FMC_READY: the operation has been completed
 149:../Firmware/GD32VW55x_standard_peripheral/Source/gd32vw55x_fmc.c ****       \arg        FMC_WPERR: erase/program protection error
 150:../Firmware/GD32VW55x_standard_peripheral/Source/gd32vw55x_fmc.c ****       \arg        FMC_TOERR: timeout error
 151:../Firmware/GD32VW55x_standard_peripheral/Source/gd32vw55x_fmc.c **** */
 152:../Firmware/GD32VW55x_standard_peripheral/Source/gd32vw55x_fmc.c **** fmc_state_enum fmc_word_program(uint32_t address, uint32_t data)
 153:../Firmware/GD32VW55x_standard_peripheral/Source/gd32vw55x_fmc.c **** {
 242              		.loc 1 153 1
 243              		.cfi_startproc
 244 0000 7971     		addi	sp,sp,-48
 245              		.cfi_def_cfa_offset 48
 246 0002 06D6     		sw	ra,44(sp)
 247 0004 22D4     		sw	s0,40(sp)
 248              		.cfi_offset 1, -4
 249              		.cfi_offset 8, -8
 250 0006 0018     		addi	s0,sp,48
 251              		.cfi_def_cfa 8, 0
 252 0008 232EA4FC 		sw	a0,-36(s0)
 253 000c 232CB4FC 		sw	a1,-40(s0)
 154:../Firmware/GD32VW55x_standard_peripheral/Source/gd32vw55x_fmc.c ****     fmc_state_enum fmc_state = FMC_READY;
 254              		.loc 1 154 20
 255 0010 232604FE 		sw	zero,-20(s0)
 155:../Firmware/GD32VW55x_standard_peripheral/Source/gd32vw55x_fmc.c **** 
 156:../Firmware/GD32VW55x_standard_peripheral/Source/gd32vw55x_fmc.c ****     /* wait for the FMC ready */
 157:../Firmware/GD32VW55x_standard_peripheral/Source/gd32vw55x_fmc.c ****     fmc_state = fmc_ready_wait(FMC_TIMEOUT_COUNT);
 256              		.loc 1 157 17
 257 0014 37050001 		li	a0,16777216
 258 0018 97000000 		call	fmc_ready_wait
 258      E7800000 
 259 0020 2326A4FE 		sw	a0,-20(s0)
 158:../Firmware/GD32VW55x_standard_peripheral/Source/gd32vw55x_fmc.c **** 
 159:../Firmware/GD32VW55x_standard_peripheral/Source/gd32vw55x_fmc.c ****     if(FMC_READY == fmc_state){
 260              		.loc 1 159 7
 261 0024 8327C4FE 		lw	a5,-20(s0)
 262 0028 A9E3     		bne	a5,zero,.L12
 160:../Firmware/GD32VW55x_standard_peripheral/Source/gd32vw55x_fmc.c ****         /* set the PG bit to start program */
 161:../Firmware/GD32VW55x_standard_peripheral/Source/gd32vw55x_fmc.c ****         FMC_CTL |= FMC_CTL_PG;
 263              		.loc 1 161 17
 264 002a B7270240 		li	a5,1073881088
 265 002e C107     		addi	a5,a5,16
 266 0030 9843     		lw	a4,0(a5)
 267 0032 B7270240 		li	a5,1073881088
 268 0036 C107     		addi	a5,a5,16
 269 0038 13671700 		ori	a4,a4,1
 270 003c 98C3     		sw	a4,0(a5)
 162:../Firmware/GD32VW55x_standard_peripheral/Source/gd32vw55x_fmc.c ****         REG32(address) = data;
 271              		.loc 1 162 9
 272 003e 8327C4FD 		lw	a5,-36(s0)
 273              		.loc 1 162 24
 274 0042 032784FD 		lw	a4,-40(s0)
 275 0046 98C3     		sw	a4,0(a5)
 163:../Firmware/GD32VW55x_standard_peripheral/Source/gd32vw55x_fmc.c ****         /* wait for the FMC ready */
 164:../Firmware/GD32VW55x_standard_peripheral/Source/gd32vw55x_fmc.c ****         fmc_state = fmc_ready_wait(FMC_TIMEOUT_COUNT);
 276              		.loc 1 164 21
 277 0048 37050001 		li	a0,16777216
 278 004c 97000000 		call	fmc_ready_wait
 278      E7800000 
 279 0054 2326A4FE 		sw	a0,-20(s0)
 165:../Firmware/GD32VW55x_standard_peripheral/Source/gd32vw55x_fmc.c ****         /* reset the PG bit */
 166:../Firmware/GD32VW55x_standard_peripheral/Source/gd32vw55x_fmc.c ****         FMC_CTL &= ~FMC_CTL_PG;
 280              		.loc 1 166 17
 281 0058 B7270240 		li	a5,1073881088
 282 005c C107     		addi	a5,a5,16
 283 005e 9843     		lw	a4,0(a5)
 284 0060 B7270240 		li	a5,1073881088
 285 0064 C107     		addi	a5,a5,16
 286 0066 799B     		andi	a4,a4,-2
 287 0068 98C3     		sw	a4,0(a5)
 288              	.L12:
 167:../Firmware/GD32VW55x_standard_peripheral/Source/gd32vw55x_fmc.c ****     }
 168:../Firmware/GD32VW55x_standard_peripheral/Source/gd32vw55x_fmc.c **** 
 169:../Firmware/GD32VW55x_standard_peripheral/Source/gd32vw55x_fmc.c ****     /* return the FMC state */
 170:../Firmware/GD32VW55x_standard_peripheral/Source/gd32vw55x_fmc.c ****     return fmc_state;
 289              		.loc 1 170 12
 290 006a 8327C4FE 		lw	a5,-20(s0)
 171:../Firmware/GD32VW55x_standard_peripheral/Source/gd32vw55x_fmc.c **** }
 291              		.loc 1 171 1
 292 006e 3E85     		mv	a0,a5
 293 0070 B250     		lw	ra,44(sp)
 294              		.cfi_restore 1
 295 0072 2254     		lw	s0,40(sp)
 296              		.cfi_restore 8
 297              		.cfi_def_cfa 2, 48
 298 0074 4561     		addi	sp,sp,48
 299              		.cfi_def_cfa_offset 0
 300 0076 8280     		jr	ra
 301              		.cfi_endproc
 302              	.LFE351:
 304              		.section	.text.fmc_continuous_program,"ax",@progbits
 305              		.align	1
 306              		.globl	fmc_continuous_program
 308              	fmc_continuous_program:
 309              	.LFB352:
 172:../Firmware/GD32VW55x_standard_peripheral/Source/gd32vw55x_fmc.c **** 
 173:../Firmware/GD32VW55x_standard_peripheral/Source/gd32vw55x_fmc.c **** /*!
 174:../Firmware/GD32VW55x_standard_peripheral/Source/gd32vw55x_fmc.c ****     \brief      FMC program data continuously at the corresponding address
 175:../Firmware/GD32VW55x_standard_peripheral/Source/gd32vw55x_fmc.c ****     \param[in]  address: address to program, must be 4-byte aligned
 176:../Firmware/GD32VW55x_standard_peripheral/Source/gd32vw55x_fmc.c ****     \param[in]  data: data buffer to program
 177:../Firmware/GD32VW55x_standard_peripheral/Source/gd32vw55x_fmc.c ****     \param[in]  size: data buffer size in bytes, must be 4-byte aligned
 178:../Firmware/GD32VW55x_standard_peripheral/Source/gd32vw55x_fmc.c ****     \param[out] none
 179:../Firmware/GD32VW55x_standard_peripheral/Source/gd32vw55x_fmc.c ****     \retval     state of FMC
 180:../Firmware/GD32VW55x_standard_peripheral/Source/gd32vw55x_fmc.c ****       \arg        FMC_READY: the operation has been completed
 181:../Firmware/GD32VW55x_standard_peripheral/Source/gd32vw55x_fmc.c ****       \arg        FMC_WPERR: erase/program protection error
 182:../Firmware/GD32VW55x_standard_peripheral/Source/gd32vw55x_fmc.c ****       \arg        FMC_TOERR: timeout error
 183:../Firmware/GD32VW55x_standard_peripheral/Source/gd32vw55x_fmc.c **** */
 184:../Firmware/GD32VW55x_standard_peripheral/Source/gd32vw55x_fmc.c **** fmc_state_enum fmc_continuous_program(uint32_t address, uint32_t data[], uint32_t size)
 185:../Firmware/GD32VW55x_standard_peripheral/Source/gd32vw55x_fmc.c **** {
 310              		.loc 1 185 1
 311              		.cfi_startproc
 312 0000 7971     		addi	sp,sp,-48
 313              		.cfi_def_cfa_offset 48
 314 0002 06D6     		sw	ra,44(sp)
 315 0004 22D4     		sw	s0,40(sp)
 316              		.cfi_offset 1, -4
 317              		.cfi_offset 8, -8
 318 0006 0018     		addi	s0,sp,48
 319              		.cfi_def_cfa 8, 0
 320 0008 232EA4FC 		sw	a0,-36(s0)
 321 000c 232CB4FC 		sw	a1,-40(s0)
 322 0010 232AC4FC 		sw	a2,-44(s0)
 186:../Firmware/GD32VW55x_standard_peripheral/Source/gd32vw55x_fmc.c ****     fmc_state_enum fmc_state = FMC_READY;
 323              		.loc 1 186 20
 324 0014 232404FE 		sw	zero,-24(s0)
 187:../Firmware/GD32VW55x_standard_peripheral/Source/gd32vw55x_fmc.c **** 
 188:../Firmware/GD32VW55x_standard_peripheral/Source/gd32vw55x_fmc.c ****     /* wait for the FMC ready */
 189:../Firmware/GD32VW55x_standard_peripheral/Source/gd32vw55x_fmc.c ****     fmc_state = fmc_ready_wait(FMC_TIMEOUT_COUNT);
 325              		.loc 1 189 17
 326 0018 37050001 		li	a0,16777216
 327 001c 97000000 		call	fmc_ready_wait
 327      E7800000 
 328 0024 2324A4FE 		sw	a0,-24(s0)
 190:../Firmware/GD32VW55x_standard_peripheral/Source/gd32vw55x_fmc.c **** 
 191:../Firmware/GD32VW55x_standard_peripheral/Source/gd32vw55x_fmc.c ****     if(FMC_READY == fmc_state){
 329              		.loc 1 191 7
 330 0028 832784FE 		lw	a5,-24(s0)
 331 002c ADE3     		bne	a5,zero,.L15
 192:../Firmware/GD32VW55x_standard_peripheral/Source/gd32vw55x_fmc.c ****         /* set the PG bit to start program */
 193:../Firmware/GD32VW55x_standard_peripheral/Source/gd32vw55x_fmc.c ****         FMC_CTL |= FMC_CTL_PG;
 332              		.loc 1 193 17
 333 002e B7270240 		li	a5,1073881088
 334 0032 C107     		addi	a5,a5,16
 335 0034 9843     		lw	a4,0(a5)
 336 0036 B7270240 		li	a5,1073881088
 337 003a C107     		addi	a5,a5,16
 338 003c 13671700 		ori	a4,a4,1
 339 0040 98C3     		sw	a4,0(a5)
 340              	.LBB2:
 194:../Firmware/GD32VW55x_standard_peripheral/Source/gd32vw55x_fmc.c **** 
 195:../Firmware/GD32VW55x_standard_peripheral/Source/gd32vw55x_fmc.c ****         for(uint32_t i = 0U; i < size; i++){
 341              		.loc 1 195 22
 342 0042 232604FE 		sw	zero,-20(s0)
 343              		.loc 1 195 9
 344 0046 2DA0     		j	.L16
 345              	.L17:
 196:../Firmware/GD32VW55x_standard_peripheral/Source/gd32vw55x_fmc.c ****             REG32(address) = data[i];
 346              		.loc 1 196 34 discriminator 3
 347 0048 8327C4FE 		lw	a5,-20(s0)
 348 004c 8A07     		slli	a5,a5,2
 349 004e 032784FD 		lw	a4,-40(s0)
 350 0052 3E97     		add	a4,a4,a5
 351              		.loc 1 196 13 discriminator 3
 352 0054 8327C4FD 		lw	a5,-36(s0)
 353              		.loc 1 196 34 discriminator 3
 354 0058 1843     		lw	a4,0(a4)
 355              		.loc 1 196 28 discriminator 3
 356 005a 98C3     		sw	a4,0(a5)
 197:../Firmware/GD32VW55x_standard_peripheral/Source/gd32vw55x_fmc.c ****             address += 4U;
 357              		.loc 1 197 21 discriminator 3
 358 005c 8327C4FD 		lw	a5,-36(s0)
 359 0060 9107     		addi	a5,a5,4
 360 0062 232EF4FC 		sw	a5,-36(s0)
 195:../Firmware/GD32VW55x_standard_peripheral/Source/gd32vw55x_fmc.c ****             REG32(address) = data[i];
 361              		.loc 1 195 41 discriminator 3
 362 0066 8327C4FE 		lw	a5,-20(s0)
 363 006a 8507     		addi	a5,a5,1
 364 006c 2326F4FE 		sw	a5,-20(s0)
 365              	.L16:
 195:../Firmware/GD32VW55x_standard_peripheral/Source/gd32vw55x_fmc.c ****             REG32(address) = data[i];
 366              		.loc 1 195 9 discriminator 1
 367 0070 0327C4FE 		lw	a4,-20(s0)
 368 0074 832744FD 		lw	a5,-44(s0)
 369 0078 E368F7FC 		bltu	a4,a5,.L17
 370              	.LBE2:
 198:../Firmware/GD32VW55x_standard_peripheral/Source/gd32vw55x_fmc.c ****         }
 199:../Firmware/GD32VW55x_standard_peripheral/Source/gd32vw55x_fmc.c **** 
 200:../Firmware/GD32VW55x_standard_peripheral/Source/gd32vw55x_fmc.c ****         /* reset the PG bit */
 201:../Firmware/GD32VW55x_standard_peripheral/Source/gd32vw55x_fmc.c ****         FMC_CTL &= ~FMC_CTL_PG;
 371              		.loc 1 201 17
 372 007c B7270240 		li	a5,1073881088
 373 0080 C107     		addi	a5,a5,16
 374 0082 9843     		lw	a4,0(a5)
 375 0084 B7270240 		li	a5,1073881088
 376 0088 C107     		addi	a5,a5,16
 377 008a 799B     		andi	a4,a4,-2
 378 008c 98C3     		sw	a4,0(a5)
 379              	.L15:
 202:../Firmware/GD32VW55x_standard_peripheral/Source/gd32vw55x_fmc.c ****     }
 203:../Firmware/GD32VW55x_standard_peripheral/Source/gd32vw55x_fmc.c **** 
 204:../Firmware/GD32VW55x_standard_peripheral/Source/gd32vw55x_fmc.c ****     /* return the FMC state */
 205:../Firmware/GD32VW55x_standard_peripheral/Source/gd32vw55x_fmc.c ****     return fmc_state;
 380              		.loc 1 205 12
 381 008e 832784FE 		lw	a5,-24(s0)
 206:../Firmware/GD32VW55x_standard_peripheral/Source/gd32vw55x_fmc.c **** }
 382              		.loc 1 206 1
 383 0092 3E85     		mv	a0,a5
 384 0094 B250     		lw	ra,44(sp)
 385              		.cfi_restore 1
 386 0096 2254     		lw	s0,40(sp)
 387              		.cfi_restore 8
 388              		.cfi_def_cfa 2, 48
 389 0098 4561     		addi	sp,sp,48
 390              		.cfi_def_cfa_offset 0
 391 009a 8280     		jr	ra
 392              		.cfi_endproc
 393              	.LFE352:
 395              		.section	.text.fmc_obr_function_enable,"ax",@progbits
 396              		.align	1
 397              		.globl	fmc_obr_function_enable
 399              	fmc_obr_function_enable:
 400              	.LFB353:
 207:../Firmware/GD32VW55x_standard_peripheral/Source/gd32vw55x_fmc.c **** 
 208:../Firmware/GD32VW55x_standard_peripheral/Source/gd32vw55x_fmc.c **** /*!
 209:../Firmware/GD32VW55x_standard_peripheral/Source/gd32vw55x_fmc.c ****     \brief      enable FMC OBR function
 210:../Firmware/GD32VW55x_standard_peripheral/Source/gd32vw55x_fmc.c ****     \param[in]  obr_function: the OBR function
 211:../Firmware/GD32VW55x_standard_peripheral/Source/gd32vw55x_fmc.c ****                 one or more parameters can be selected which are shown as below:
 212:../Firmware/GD32VW55x_standard_peripheral/Source/gd32vw55x_fmc.c ****       \arg        FMC_OBR_NWDG_HW: watchdog status function
 213:../Firmware/GD32VW55x_standard_peripheral/Source/gd32vw55x_fmc.c ****       \arg        FMC_OBR_NRST_STDBY: no reset generated when entering Standby mode function
 214:../Firmware/GD32VW55x_standard_peripheral/Source/gd32vw55x_fmc.c ****       \arg        FMC_OBR_NSRT_DPSLP: no reset generated when entering DeepSleep mode function
 215:../Firmware/GD32VW55x_standard_peripheral/Source/gd32vw55x_fmc.c ****       \arg        FMC_OBR_SRAM1_RST: SRAM1 reset automatically function
 216:../Firmware/GD32VW55x_standard_peripheral/Source/gd32vw55x_fmc.c ****     \param[out] none
 217:../Firmware/GD32VW55x_standard_peripheral/Source/gd32vw55x_fmc.c ****     \retval     none
 218:../Firmware/GD32VW55x_standard_peripheral/Source/gd32vw55x_fmc.c **** */
 219:../Firmware/GD32VW55x_standard_peripheral/Source/gd32vw55x_fmc.c **** void fmc_obr_function_enable(uint32_t obr_function)
 220:../Firmware/GD32VW55x_standard_peripheral/Source/gd32vw55x_fmc.c **** {
 401              		.loc 1 220 1
 402              		.cfi_startproc
 403 0000 0111     		addi	sp,sp,-32
 404              		.cfi_def_cfa_offset 32
 405 0002 22CE     		sw	s0,28(sp)
 406              		.cfi_offset 8, -4
 407 0004 0010     		addi	s0,sp,32
 408              		.cfi_def_cfa 8, 0
 409 0006 2326A4FE 		sw	a0,-20(s0)
 221:../Firmware/GD32VW55x_standard_peripheral/Source/gd32vw55x_fmc.c ****     FMC_OBR |= obr_function;
 410              		.loc 1 221 13
 411 000a B7270240 		li	a5,1073881088
 412 000e 93870704 		addi	a5,a5,64
 413 0012 9443     		lw	a3,0(a5)
 414 0014 B7270240 		li	a5,1073881088
 415 0018 93870704 		addi	a5,a5,64
 416 001c 0327C4FE 		lw	a4,-20(s0)
 417 0020 558F     		or	a4,a3,a4
 418 0022 98C3     		sw	a4,0(a5)
 222:../Firmware/GD32VW55x_standard_peripheral/Source/gd32vw55x_fmc.c **** }
 419              		.loc 1 222 1
 420 0024 0100     		nop
 421 0026 7244     		lw	s0,28(sp)
 422              		.cfi_restore 8
 423              		.cfi_def_cfa 2, 32
 424 0028 0561     		addi	sp,sp,32
 425              		.cfi_def_cfa_offset 0
 426 002a 8280     		jr	ra
 427              		.cfi_endproc
 428              	.LFE353:
 430              		.section	.text.fmc_obr_function_disable,"ax",@progbits
 431              		.align	1
 432              		.globl	fmc_obr_function_disable
 434              	fmc_obr_function_disable:
 435              	.LFB354:
 223:../Firmware/GD32VW55x_standard_peripheral/Source/gd32vw55x_fmc.c **** 
 224:../Firmware/GD32VW55x_standard_peripheral/Source/gd32vw55x_fmc.c **** /*!
 225:../Firmware/GD32VW55x_standard_peripheral/Source/gd32vw55x_fmc.c ****     \brief      disable FMC OBR function
 226:../Firmware/GD32VW55x_standard_peripheral/Source/gd32vw55x_fmc.c ****     \param[in]  obr_function: the OBR function
 227:../Firmware/GD32VW55x_standard_peripheral/Source/gd32vw55x_fmc.c ****                 one or more parameters can be selected which are shown as below:
 228:../Firmware/GD32VW55x_standard_peripheral/Source/gd32vw55x_fmc.c ****       \arg        FMC_OBR_NWDG_HW: watchdog status function
 229:../Firmware/GD32VW55x_standard_peripheral/Source/gd32vw55x_fmc.c ****       \arg        FMC_OBR_NRST_STDBY: no reset generated when entering Standby mode function
 230:../Firmware/GD32VW55x_standard_peripheral/Source/gd32vw55x_fmc.c ****       \arg        FMC_OBR_NSRT_DPSLP: no reset generated when entering DeepSleep mode function
 231:../Firmware/GD32VW55x_standard_peripheral/Source/gd32vw55x_fmc.c ****       \arg        FMC_OBR_SRAM1_RST: SRAM1 reset automatically function
 232:../Firmware/GD32VW55x_standard_peripheral/Source/gd32vw55x_fmc.c ****     \param[out] none
 233:../Firmware/GD32VW55x_standard_peripheral/Source/gd32vw55x_fmc.c ****     \retval     none
 234:../Firmware/GD32VW55x_standard_peripheral/Source/gd32vw55x_fmc.c **** */
 235:../Firmware/GD32VW55x_standard_peripheral/Source/gd32vw55x_fmc.c **** void fmc_obr_function_disable(uint32_t obr_function)
 236:../Firmware/GD32VW55x_standard_peripheral/Source/gd32vw55x_fmc.c **** {
 436              		.loc 1 236 1
 437              		.cfi_startproc
 438 0000 0111     		addi	sp,sp,-32
 439              		.cfi_def_cfa_offset 32
 440 0002 22CE     		sw	s0,28(sp)
 441              		.cfi_offset 8, -4
 442 0004 0010     		addi	s0,sp,32
 443              		.cfi_def_cfa 8, 0
 444 0006 2326A4FE 		sw	a0,-20(s0)
 237:../Firmware/GD32VW55x_standard_peripheral/Source/gd32vw55x_fmc.c ****     FMC_OBR &= ~(uint32_t) obr_function;
 445              		.loc 1 237 13
 446 000a B7270240 		li	a5,1073881088
 447 000e 93870704 		addi	a5,a5,64
 448 0012 9443     		lw	a3,0(a5)
 449              		.loc 1 237 16
 450 0014 8327C4FE 		lw	a5,-20(s0)
 451 0018 13C7F7FF 		not	a4,a5
 452              		.loc 1 237 13
 453 001c B7270240 		li	a5,1073881088
 454 0020 93870704 		addi	a5,a5,64
 455 0024 758F     		and	a4,a3,a4
 456 0026 98C3     		sw	a4,0(a5)
 238:../Firmware/GD32VW55x_standard_peripheral/Source/gd32vw55x_fmc.c **** }
 457              		.loc 1 238 1
 458 0028 0100     		nop
 459 002a 7244     		lw	s0,28(sp)
 460              		.cfi_restore 8
 461              		.cfi_def_cfa 2, 32
 462 002c 0561     		addi	sp,sp,32
 463              		.cfi_def_cfa_offset 0
 464 002e 8280     		jr	ra
 465              		.cfi_endproc
 466              	.LFE354:
 468              		.section	.text.ob_unlock,"ax",@progbits
 469              		.align	1
 470              		.globl	ob_unlock
 472              	ob_unlock:
 473              	.LFB355:
 239:../Firmware/GD32VW55x_standard_peripheral/Source/gd32vw55x_fmc.c **** 
 240:../Firmware/GD32VW55x_standard_peripheral/Source/gd32vw55x_fmc.c **** /*!
 241:../Firmware/GD32VW55x_standard_peripheral/Source/gd32vw55x_fmc.c ****     \brief      unlock the option bytes operation
 242:../Firmware/GD32VW55x_standard_peripheral/Source/gd32vw55x_fmc.c ****     it is better to used in pairs with ob_lock
 243:../Firmware/GD32VW55x_standard_peripheral/Source/gd32vw55x_fmc.c ****     \param[in]  none
 244:../Firmware/GD32VW55x_standard_peripheral/Source/gd32vw55x_fmc.c ****     \param[out] none
 245:../Firmware/GD32VW55x_standard_peripheral/Source/gd32vw55x_fmc.c ****     \retval     none
 246:../Firmware/GD32VW55x_standard_peripheral/Source/gd32vw55x_fmc.c **** */
 247:../Firmware/GD32VW55x_standard_peripheral/Source/gd32vw55x_fmc.c **** void ob_unlock(void)
 248:../Firmware/GD32VW55x_standard_peripheral/Source/gd32vw55x_fmc.c **** {
 474              		.loc 1 248 1
 475              		.cfi_startproc
 476 0000 4111     		addi	sp,sp,-16
 477              		.cfi_def_cfa_offset 16
 478 0002 22C6     		sw	s0,12(sp)
 479              		.cfi_offset 8, -4
 480 0004 0008     		addi	s0,sp,16
 481              		.cfi_def_cfa 8, 0
 249:../Firmware/GD32VW55x_standard_peripheral/Source/gd32vw55x_fmc.c ****     if (RESET == (FMC_CTL & FMC_CTL_OBWEN)){
 482              		.loc 1 249 19
 483 0006 B7270240 		li	a5,1073881088
 484 000a C107     		addi	a5,a5,16
 485 000c 9C43     		lw	a5,0(a5)
 486              		.loc 1 249 27
 487 000e 93F70720 		andi	a5,a5,512
 488              		.loc 1 249 8
 489 0012 8DE3     		bne	a5,zero,.L23
 250:../Firmware/GD32VW55x_standard_peripheral/Source/gd32vw55x_fmc.c ****         /* write the FMC ob unlock key */
 251:../Firmware/GD32VW55x_standard_peripheral/Source/gd32vw55x_fmc.c ****         FMC_OBKEY = UNLOCK_KEY0;
 490              		.loc 1 251 9
 491 0014 B7270240 		li	a5,1073881088
 492 0018 A107     		addi	a5,a5,8
 493              		.loc 1 251 19
 494 001a 37076745 		li	a4,1164378112
 495 001e 13073712 		addi	a4,a4,291
 496 0022 98C3     		sw	a4,0(a5)
 252:../Firmware/GD32VW55x_standard_peripheral/Source/gd32vw55x_fmc.c ****         FMC_OBKEY = UNLOCK_KEY1;
 497              		.loc 1 252 9
 498 0024 B7270240 		li	a5,1073881088
 499 0028 A107     		addi	a5,a5,8
 500              		.loc 1 252 19
 501 002a 3797EFCD 		li	a4,-839938048
 502 002e 1307B79A 		addi	a4,a4,-1621
 503 0032 98C3     		sw	a4,0(a5)
 504              	.L23:
 253:../Firmware/GD32VW55x_standard_peripheral/Source/gd32vw55x_fmc.c ****     }
 254:../Firmware/GD32VW55x_standard_peripheral/Source/gd32vw55x_fmc.c **** }
 505              		.loc 1 254 1
 506 0034 0100     		nop
 507 0036 3244     		lw	s0,12(sp)
 508              		.cfi_restore 8
 509              		.cfi_def_cfa 2, 16
 510 0038 4101     		addi	sp,sp,16
 511              		.cfi_def_cfa_offset 0
 512 003a 8280     		jr	ra
 513              		.cfi_endproc
 514              	.LFE355:
 516              		.section	.text.ob_lock,"ax",@progbits
 517              		.align	1
 518              		.globl	ob_lock
 520              	ob_lock:
 521              	.LFB356:
 255:../Firmware/GD32VW55x_standard_peripheral/Source/gd32vw55x_fmc.c **** 
 256:../Firmware/GD32VW55x_standard_peripheral/Source/gd32vw55x_fmc.c **** /*!
 257:../Firmware/GD32VW55x_standard_peripheral/Source/gd32vw55x_fmc.c ****     \brief      lock the option bytes operation
 258:../Firmware/GD32VW55x_standard_peripheral/Source/gd32vw55x_fmc.c ****                 it is better to used in pairs with ob_unlock after an operation
 259:../Firmware/GD32VW55x_standard_peripheral/Source/gd32vw55x_fmc.c ****     \param[in]  none
 260:../Firmware/GD32VW55x_standard_peripheral/Source/gd32vw55x_fmc.c ****     \param[out] none
 261:../Firmware/GD32VW55x_standard_peripheral/Source/gd32vw55x_fmc.c ****     \retval     none
 262:../Firmware/GD32VW55x_standard_peripheral/Source/gd32vw55x_fmc.c **** */
 263:../Firmware/GD32VW55x_standard_peripheral/Source/gd32vw55x_fmc.c **** void ob_lock(void)
 264:../Firmware/GD32VW55x_standard_peripheral/Source/gd32vw55x_fmc.c **** {
 522              		.loc 1 264 1
 523              		.cfi_startproc
 524 0000 4111     		addi	sp,sp,-16
 525              		.cfi_def_cfa_offset 16
 526 0002 22C6     		sw	s0,12(sp)
 527              		.cfi_offset 8, -4
 528 0004 0008     		addi	s0,sp,16
 529              		.cfi_def_cfa 8, 0
 265:../Firmware/GD32VW55x_standard_peripheral/Source/gd32vw55x_fmc.c ****     /* reset the OBWEN bit */
 266:../Firmware/GD32VW55x_standard_peripheral/Source/gd32vw55x_fmc.c ****     FMC_CTL &= ~FMC_CTL_OBWEN;
 530              		.loc 1 266 13
 531 0006 B7270240 		li	a5,1073881088
 532 000a C107     		addi	a5,a5,16
 533 000c 9843     		lw	a4,0(a5)
 534 000e B7270240 		li	a5,1073881088
 535 0012 C107     		addi	a5,a5,16
 536 0014 1377F7DF 		andi	a4,a4,-513
 537 0018 98C3     		sw	a4,0(a5)
 267:../Firmware/GD32VW55x_standard_peripheral/Source/gd32vw55x_fmc.c **** }
 538              		.loc 1 267 1
 539 001a 0100     		nop
 540 001c 3244     		lw	s0,12(sp)
 541              		.cfi_restore 8
 542              		.cfi_def_cfa 2, 16
 543 001e 4101     		addi	sp,sp,16
 544              		.cfi_def_cfa_offset 0
 545 0020 8280     		jr	ra
 546              		.cfi_endproc
 547              	.LFE356:
 549              		.section	.text.ob_start,"ax",@progbits
 550              		.align	1
 551              		.globl	ob_start
 553              	ob_start:
 554              	.LFB357:
 268:../Firmware/GD32VW55x_standard_peripheral/Source/gd32vw55x_fmc.c **** 
 269:../Firmware/GD32VW55x_standard_peripheral/Source/gd32vw55x_fmc.c **** /*!
 270:../Firmware/GD32VW55x_standard_peripheral/Source/gd32vw55x_fmc.c ****     \brief      send option bytes modification start command
 271:../Firmware/GD32VW55x_standard_peripheral/Source/gd32vw55x_fmc.c ****     \param[in]  none
 272:../Firmware/GD32VW55x_standard_peripheral/Source/gd32vw55x_fmc.c ****     \param[out] none
 273:../Firmware/GD32VW55x_standard_peripheral/Source/gd32vw55x_fmc.c ****     \retval     none
 274:../Firmware/GD32VW55x_standard_peripheral/Source/gd32vw55x_fmc.c **** */
 275:../Firmware/GD32VW55x_standard_peripheral/Source/gd32vw55x_fmc.c **** void ob_start(void)
 276:../Firmware/GD32VW55x_standard_peripheral/Source/gd32vw55x_fmc.c **** {
 555              		.loc 1 276 1
 556              		.cfi_startproc
 557 0000 4111     		addi	sp,sp,-16
 558              		.cfi_def_cfa_offset 16
 559 0002 22C6     		sw	s0,12(sp)
 560              		.cfi_offset 8, -4
 561 0004 0008     		addi	s0,sp,16
 562              		.cfi_def_cfa 8, 0
 277:../Firmware/GD32VW55x_standard_peripheral/Source/gd32vw55x_fmc.c ****     /* set the OB_START bit in FMC_CTL register to start option bytes modification */
 278:../Firmware/GD32VW55x_standard_peripheral/Source/gd32vw55x_fmc.c ****     FMC_CTL |= (FMC_CTL_OBSTART | FMC_CTL_OBWEN);
 563              		.loc 1 278 13
 564 0006 B7270240 		li	a5,1073881088
 565 000a C107     		addi	a5,a5,16
 566 000c 9443     		lw	a3,0(a5)
 567 000e B7270240 		li	a5,1073881088
 568 0012 C107     		addi	a5,a5,16
 569 0014 1167     		li	a4,16384
 570 0016 13070720 		addi	a4,a4,512
 571 001a 558F     		or	a4,a3,a4
 572 001c 98C3     		sw	a4,0(a5)
 279:../Firmware/GD32VW55x_standard_peripheral/Source/gd32vw55x_fmc.c **** }
 573              		.loc 1 279 1
 574 001e 0100     		nop
 575 0020 3244     		lw	s0,12(sp)
 576              		.cfi_restore 8
 577              		.cfi_def_cfa 2, 16
 578 0022 4101     		addi	sp,sp,16
 579              		.cfi_def_cfa_offset 0
 580 0024 8280     		jr	ra
 581              		.cfi_endproc
 582              	.LFE357:
 584              		.section	.text.ob_reload,"ax",@progbits
 585              		.align	1
 586              		.globl	ob_reload
 588              	ob_reload:
 589              	.LFB358:
 280:../Firmware/GD32VW55x_standard_peripheral/Source/gd32vw55x_fmc.c **** 
 281:../Firmware/GD32VW55x_standard_peripheral/Source/gd32vw55x_fmc.c **** /*!
 282:../Firmware/GD32VW55x_standard_peripheral/Source/gd32vw55x_fmc.c ****     \brief      reload option bytes
 283:../Firmware/GD32VW55x_standard_peripheral/Source/gd32vw55x_fmc.c ****     \param[in]  none
 284:../Firmware/GD32VW55x_standard_peripheral/Source/gd32vw55x_fmc.c ****     \param[out] none
 285:../Firmware/GD32VW55x_standard_peripheral/Source/gd32vw55x_fmc.c ****     \retval     none
 286:../Firmware/GD32VW55x_standard_peripheral/Source/gd32vw55x_fmc.c **** */
 287:../Firmware/GD32VW55x_standard_peripheral/Source/gd32vw55x_fmc.c **** void ob_reload(void)
 288:../Firmware/GD32VW55x_standard_peripheral/Source/gd32vw55x_fmc.c **** {
 590              		.loc 1 288 1
 591              		.cfi_startproc
 592 0000 4111     		addi	sp,sp,-16
 593              		.cfi_def_cfa_offset 16
 594 0002 22C6     		sw	s0,12(sp)
 595              		.cfi_offset 8, -4
 596 0004 0008     		addi	s0,sp,16
 597              		.cfi_def_cfa 8, 0
 289:../Firmware/GD32VW55x_standard_peripheral/Source/gd32vw55x_fmc.c ****     /* set the FMC_CTL_OBRLD bit in FMC_CTL register to reload option bytes */
 290:../Firmware/GD32VW55x_standard_peripheral/Source/gd32vw55x_fmc.c ****     FMC_CTL |= FMC_CTL_OBRLD;
 598              		.loc 1 290 13
 599 0006 B7270240 		li	a5,1073881088
 600 000a C107     		addi	a5,a5,16
 601 000c 9443     		lw	a3,0(a5)
 602 000e B7270240 		li	a5,1073881088
 603 0012 C107     		addi	a5,a5,16
 604 0014 2167     		li	a4,32768
 605 0016 558F     		or	a4,a3,a4
 606 0018 98C3     		sw	a4,0(a5)
 291:../Firmware/GD32VW55x_standard_peripheral/Source/gd32vw55x_fmc.c **** }
 607              		.loc 1 291 1
 608 001a 0100     		nop
 609 001c 3244     		lw	s0,12(sp)
 610              		.cfi_restore 8
 611              		.cfi_def_cfa 2, 16
 612 001e 4101     		addi	sp,sp,16
 613              		.cfi_def_cfa_offset 0
 614 0020 8280     		jr	ra
 615              		.cfi_endproc
 616              	.LFE358:
 618              		.section	.text.ob_security_protection_config,"ax",@progbits
 619              		.align	1
 620              		.globl	ob_security_protection_config
 622              	ob_security_protection_config:
 623              	.LFB359:
 292:../Firmware/GD32VW55x_standard_peripheral/Source/gd32vw55x_fmc.c **** 
 293:../Firmware/GD32VW55x_standard_peripheral/Source/gd32vw55x_fmc.c **** /*!
 294:../Firmware/GD32VW55x_standard_peripheral/Source/gd32vw55x_fmc.c ****     \brief      configure security protection
 295:../Firmware/GD32VW55x_standard_peripheral/Source/gd32vw55x_fmc.c ****                 programmer must ensure FMC & option bytes are both unlocked before calling this fun
 296:../Firmware/GD32VW55x_standard_peripheral/Source/gd32vw55x_fmc.c ****     \param[in]  ob_spc: specify security protection
 297:../Firmware/GD32VW55x_standard_peripheral/Source/gd32vw55x_fmc.c ****                 only one parameter can be selected which is shown as below:
 298:../Firmware/GD32VW55x_standard_peripheral/Source/gd32vw55x_fmc.c ****       \arg        FMC_NSPC: no security protection
 299:../Firmware/GD32VW55x_standard_peripheral/Source/gd32vw55x_fmc.c ****       \arg        FMC_SPC_P1: security protection level 1
 300:../Firmware/GD32VW55x_standard_peripheral/Source/gd32vw55x_fmc.c ****     \param[out] none
 301:../Firmware/GD32VW55x_standard_peripheral/Source/gd32vw55x_fmc.c ****     \retval     state of FMC
 302:../Firmware/GD32VW55x_standard_peripheral/Source/gd32vw55x_fmc.c ****       \arg        FMC_READY: the operation has been completed
 303:../Firmware/GD32VW55x_standard_peripheral/Source/gd32vw55x_fmc.c ****       \arg        FMC_WPERR: erase/program protection error
 304:../Firmware/GD32VW55x_standard_peripheral/Source/gd32vw55x_fmc.c ****       \arg        FMC_TOERR: timeout error
 305:../Firmware/GD32VW55x_standard_peripheral/Source/gd32vw55x_fmc.c **** */
 306:../Firmware/GD32VW55x_standard_peripheral/Source/gd32vw55x_fmc.c **** fmc_state_enum ob_security_protection_config(uint8_t ob_spc)
 307:../Firmware/GD32VW55x_standard_peripheral/Source/gd32vw55x_fmc.c **** {
 624              		.loc 1 307 1
 625              		.cfi_startproc
 626 0000 7971     		addi	sp,sp,-48
 627              		.cfi_def_cfa_offset 48
 628 0002 06D6     		sw	ra,44(sp)
 629 0004 22D4     		sw	s0,40(sp)
 630              		.cfi_offset 1, -4
 631              		.cfi_offset 8, -8
 632 0006 0018     		addi	s0,sp,48
 633              		.cfi_def_cfa 8, 0
 634 0008 AA87     		mv	a5,a0
 635 000a A30FF4FC 		sb	a5,-33(s0)
 308:../Firmware/GD32VW55x_standard_peripheral/Source/gd32vw55x_fmc.c ****     fmc_state_enum fmc_state = fmc_ready_wait(FMC_TIMEOUT_COUNT);
 636              		.loc 1 308 32
 637 000e 37050001 		li	a0,16777216
 638 0012 97000000 		call	fmc_ready_wait
 638      E7800000 
 639 001a 2326A4FE 		sw	a0,-20(s0)
 309:../Firmware/GD32VW55x_standard_peripheral/Source/gd32vw55x_fmc.c **** 
 310:../Firmware/GD32VW55x_standard_peripheral/Source/gd32vw55x_fmc.c ****     if(FMC_READY == fmc_state){
 640              		.loc 1 310 7
 641 001e 8327C4FE 		lw	a5,-20(s0)
 642 0022 A1EF     		bne	a5,zero,.L28
 311:../Firmware/GD32VW55x_standard_peripheral/Source/gd32vw55x_fmc.c ****         FMC_OBR &= FMC_OBR_SPC_MASK;
 643              		.loc 1 311 17
 644 0024 B7270240 		li	a5,1073881088
 645 0028 93870704 		addi	a5,a5,64
 646 002c 9843     		lw	a4,0(a5)
 647 002e B7270240 		li	a5,1073881088
 648 0032 93870704 		addi	a5,a5,64
 649 0036 137707F0 		andi	a4,a4,-256
 650 003a 98C3     		sw	a4,0(a5)
 312:../Firmware/GD32VW55x_standard_peripheral/Source/gd32vw55x_fmc.c ****         FMC_OBR |= ob_spc;
 651              		.loc 1 312 17
 652 003c B7270240 		li	a5,1073881088
 653 0040 93870704 		addi	a5,a5,64
 654 0044 9443     		lw	a3,0(a5)
 655 0046 0347F4FD 		lbu	a4,-33(s0)
 656 004a B7270240 		li	a5,1073881088
 657 004e 93870704 		addi	a5,a5,64
 658 0052 558F     		or	a4,a3,a4
 659 0054 98C3     		sw	a4,0(a5)
 313:../Firmware/GD32VW55x_standard_peripheral/Source/gd32vw55x_fmc.c ****         /* start option bytes modification */
 314:../Firmware/GD32VW55x_standard_peripheral/Source/gd32vw55x_fmc.c ****         FMC_CTL |= FMC_CTL_OBSTART;
 660              		.loc 1 314 17
 661 0056 B7270240 		li	a5,1073881088
 662 005a C107     		addi	a5,a5,16
 663 005c 9443     		lw	a3,0(a5)
 664 005e B7270240 		li	a5,1073881088
 665 0062 C107     		addi	a5,a5,16
 666 0064 1167     		li	a4,16384
 667 0066 558F     		or	a4,a3,a4
 668 0068 98C3     		sw	a4,0(a5)
 315:../Firmware/GD32VW55x_standard_peripheral/Source/gd32vw55x_fmc.c ****         /* wait for the FMC ready */
 316:../Firmware/GD32VW55x_standard_peripheral/Source/gd32vw55x_fmc.c ****         fmc_state = fmc_ready_wait(FMC_TIMEOUT_COUNT);
 669              		.loc 1 316 21
 670 006a 37050001 		li	a0,16777216
 671 006e 97000000 		call	fmc_ready_wait
 671      E7800000 
 672 0076 2326A4FE 		sw	a0,-20(s0)
 673              	.L28:
 317:../Firmware/GD32VW55x_standard_peripheral/Source/gd32vw55x_fmc.c ****     }
 318:../Firmware/GD32VW55x_standard_peripheral/Source/gd32vw55x_fmc.c **** 
 319:../Firmware/GD32VW55x_standard_peripheral/Source/gd32vw55x_fmc.c ****     /* return the FMC state */
 320:../Firmware/GD32VW55x_standard_peripheral/Source/gd32vw55x_fmc.c ****     return fmc_state;
 674              		.loc 1 320 12
 675 007a 8327C4FE 		lw	a5,-20(s0)
 321:../Firmware/GD32VW55x_standard_peripheral/Source/gd32vw55x_fmc.c **** }
 676              		.loc 1 321 1
 677 007e 3E85     		mv	a0,a5
 678 0080 B250     		lw	ra,44(sp)
 679              		.cfi_restore 1
 680 0082 2254     		lw	s0,40(sp)
 681              		.cfi_restore 8
 682              		.cfi_def_cfa 2, 48
 683 0084 4561     		addi	sp,sp,48
 684              		.cfi_def_cfa_offset 0
 685 0086 8280     		jr	ra
 686              		.cfi_endproc
 687              	.LFE359:
 689              		.section	.text.ob_user_write,"ax",@progbits
 690              		.align	1
 691              		.globl	ob_user_write
 693              	ob_user_write:
 694              	.LFB360:
 322:../Firmware/GD32VW55x_standard_peripheral/Source/gd32vw55x_fmc.c **** 
 323:../Firmware/GD32VW55x_standard_peripheral/Source/gd32vw55x_fmc.c **** /*!
 324:../Firmware/GD32VW55x_standard_peripheral/Source/gd32vw55x_fmc.c ****     \brief      program option bytes USER
 325:../Firmware/GD32VW55x_standard_peripheral/Source/gd32vw55x_fmc.c ****                 programmer must ensure FMC & option bytes are both unlocked before calling this fun
 326:../Firmware/GD32VW55x_standard_peripheral/Source/gd32vw55x_fmc.c ****     \param[in]  ob_user: option bytes user value
 327:../Firmware/GD32VW55x_standard_peripheral/Source/gd32vw55x_fmc.c ****     \param[out] none
 328:../Firmware/GD32VW55x_standard_peripheral/Source/gd32vw55x_fmc.c ****     \retval     state of FMC
 329:../Firmware/GD32VW55x_standard_peripheral/Source/gd32vw55x_fmc.c ****       \arg        FMC_READY: the operation has been completed
 330:../Firmware/GD32VW55x_standard_peripheral/Source/gd32vw55x_fmc.c ****       \arg        FMC_WPERR: erase/program protection error
 331:../Firmware/GD32VW55x_standard_peripheral/Source/gd32vw55x_fmc.c ****       \arg        FMC_TOERR: timeout error
 332:../Firmware/GD32VW55x_standard_peripheral/Source/gd32vw55x_fmc.c **** */
 333:../Firmware/GD32VW55x_standard_peripheral/Source/gd32vw55x_fmc.c **** fmc_state_enum ob_user_write(uint32_t ob_user)
 334:../Firmware/GD32VW55x_standard_peripheral/Source/gd32vw55x_fmc.c **** {
 695              		.loc 1 334 1
 696              		.cfi_startproc
 697 0000 7971     		addi	sp,sp,-48
 698              		.cfi_def_cfa_offset 48
 699 0002 06D6     		sw	ra,44(sp)
 700 0004 22D4     		sw	s0,40(sp)
 701              		.cfi_offset 1, -4
 702              		.cfi_offset 8, -8
 703 0006 0018     		addi	s0,sp,48
 704              		.cfi_def_cfa 8, 0
 705 0008 232EA4FC 		sw	a0,-36(s0)
 335:../Firmware/GD32VW55x_standard_peripheral/Source/gd32vw55x_fmc.c ****     fmc_state_enum fmc_state = fmc_ready_wait(FMC_TIMEOUT_COUNT);
 706              		.loc 1 335 32
 707 000c 37050001 		li	a0,16777216
 708 0010 97000000 		call	fmc_ready_wait
 708      E7800000 
 709 0018 2326A4FE 		sw	a0,-20(s0)
 336:../Firmware/GD32VW55x_standard_peripheral/Source/gd32vw55x_fmc.c **** 
 337:../Firmware/GD32VW55x_standard_peripheral/Source/gd32vw55x_fmc.c ****     if(FMC_READY == fmc_state){
 710              		.loc 1 337 7
 711 001c 8327C4FE 		lw	a5,-20(s0)
 712 0020 B9EB     		bne	a5,zero,.L31
 338:../Firmware/GD32VW55x_standard_peripheral/Source/gd32vw55x_fmc.c ****         FMC_OBUSER &= FMC_OBUSER_MASK;
 713              		.loc 1 338 20
 714 0022 B7270240 		li	a5,1073881088
 715 0026 93874704 		addi	a5,a5,68
 716 002a 9C43     		lw	a5,0(a5)
 717 002c B7270240 		li	a5,1073881088
 718 0030 93874704 		addi	a5,a5,68
 719 0034 23A00700 		sw	zero,0(a5)
 339:../Firmware/GD32VW55x_standard_peripheral/Source/gd32vw55x_fmc.c ****         FMC_OBUSER |= ob_user;
 720              		.loc 1 339 20
 721 0038 B7270240 		li	a5,1073881088
 722 003c 93874704 		addi	a5,a5,68
 723 0040 9443     		lw	a3,0(a5)
 724 0042 B7270240 		li	a5,1073881088
 725 0046 93874704 		addi	a5,a5,68
 726 004a 0327C4FD 		lw	a4,-36(s0)
 727 004e 558F     		or	a4,a3,a4
 728 0050 98C3     		sw	a4,0(a5)
 340:../Firmware/GD32VW55x_standard_peripheral/Source/gd32vw55x_fmc.c ****         /* start option bytes modification */
 341:../Firmware/GD32VW55x_standard_peripheral/Source/gd32vw55x_fmc.c ****         FMC_CTL |= FMC_CTL_OBSTART;
 729              		.loc 1 341 17
 730 0052 B7270240 		li	a5,1073881088
 731 0056 C107     		addi	a5,a5,16
 732 0058 9443     		lw	a3,0(a5)
 733 005a B7270240 		li	a5,1073881088
 734 005e C107     		addi	a5,a5,16
 735 0060 1167     		li	a4,16384
 736 0062 558F     		or	a4,a3,a4
 737 0064 98C3     		sw	a4,0(a5)
 342:../Firmware/GD32VW55x_standard_peripheral/Source/gd32vw55x_fmc.c ****         /* wait for the FMC ready */
 343:../Firmware/GD32VW55x_standard_peripheral/Source/gd32vw55x_fmc.c ****         fmc_state = fmc_ready_wait(FMC_TIMEOUT_COUNT);
 738              		.loc 1 343 21
 739 0066 37050001 		li	a0,16777216
 740 006a 97000000 		call	fmc_ready_wait
 740      E7800000 
 741 0072 2326A4FE 		sw	a0,-20(s0)
 742              	.L31:
 344:../Firmware/GD32VW55x_standard_peripheral/Source/gd32vw55x_fmc.c ****     }
 345:../Firmware/GD32VW55x_standard_peripheral/Source/gd32vw55x_fmc.c **** 
 346:../Firmware/GD32VW55x_standard_peripheral/Source/gd32vw55x_fmc.c ****     /* return the FMC state */
 347:../Firmware/GD32VW55x_standard_peripheral/Source/gd32vw55x_fmc.c ****     return fmc_state;
 743              		.loc 1 347 12
 744 0076 8327C4FE 		lw	a5,-20(s0)
 348:../Firmware/GD32VW55x_standard_peripheral/Source/gd32vw55x_fmc.c **** }
 745              		.loc 1 348 1
 746 007a 3E85     		mv	a0,a5
 747 007c B250     		lw	ra,44(sp)
 748              		.cfi_restore 1
 749 007e 2254     		lw	s0,40(sp)
 750              		.cfi_restore 8
 751              		.cfi_def_cfa 2, 48
 752 0080 4561     		addi	sp,sp,48
 753              		.cfi_def_cfa_offset 0
 754 0082 8280     		jr	ra
 755              		.cfi_endproc
 756              	.LFE360:
 758              		.section	.text.ob_write_protection_config,"ax",@progbits
 759              		.align	1
 760              		.globl	ob_write_protection_config
 762              	ob_write_protection_config:
 763              	.LFB361:
 349:../Firmware/GD32VW55x_standard_peripheral/Source/gd32vw55x_fmc.c **** 
 350:../Firmware/GD32VW55x_standard_peripheral/Source/gd32vw55x_fmc.c **** /*!
 351:../Firmware/GD32VW55x_standard_peripheral/Source/gd32vw55x_fmc.c ****     \brief      configure write protection pages
 352:../Firmware/GD32VW55x_standard_peripheral/Source/gd32vw55x_fmc.c ****     \param[in]  wrp_spage: start page of write protection area, 0~0x3FF
 353:../Firmware/GD32VW55x_standard_peripheral/Source/gd32vw55x_fmc.c ****     \param[in]  wrp_epage: end page of write protection area, 0~0x3FF
 354:../Firmware/GD32VW55x_standard_peripheral/Source/gd32vw55x_fmc.c ****     \param[in]  wrp_register_index
 355:../Firmware/GD32VW55x_standard_peripheral/Source/gd32vw55x_fmc.c ****                 only one parameter can be selected which are shown as below:
 356:../Firmware/GD32VW55x_standard_peripheral/Source/gd32vw55x_fmc.c ****       \arg        OBWRP_INDEX0: option byte write protection area register 0
 357:../Firmware/GD32VW55x_standard_peripheral/Source/gd32vw55x_fmc.c ****       \arg        OBWRP_INDEX1: option byte write protection area register 1
 358:../Firmware/GD32VW55x_standard_peripheral/Source/gd32vw55x_fmc.c ****     \param[out] none
 359:../Firmware/GD32VW55x_standard_peripheral/Source/gd32vw55x_fmc.c ****     \retval     state of FMC
 360:../Firmware/GD32VW55x_standard_peripheral/Source/gd32vw55x_fmc.c ****       \arg        FMC_READY: the operation has been completed
 361:../Firmware/GD32VW55x_standard_peripheral/Source/gd32vw55x_fmc.c ****       \arg        FMC_WPERR: erase/program protection error
 362:../Firmware/GD32VW55x_standard_peripheral/Source/gd32vw55x_fmc.c ****       \arg        FMC_TOERR: timeout error
 363:../Firmware/GD32VW55x_standard_peripheral/Source/gd32vw55x_fmc.c **** */
 364:../Firmware/GD32VW55x_standard_peripheral/Source/gd32vw55x_fmc.c **** fmc_state_enum ob_write_protection_config(uint32_t wrp_spage, uint32_t wrp_epage, uint32_t wrp_regi
 365:../Firmware/GD32VW55x_standard_peripheral/Source/gd32vw55x_fmc.c **** {
 764              		.loc 1 365 1
 765              		.cfi_startproc
 766 0000 7971     		addi	sp,sp,-48
 767              		.cfi_def_cfa_offset 48
 768 0002 06D6     		sw	ra,44(sp)
 769 0004 22D4     		sw	s0,40(sp)
 770              		.cfi_offset 1, -4
 771              		.cfi_offset 8, -8
 772 0006 0018     		addi	s0,sp,48
 773              		.cfi_def_cfa 8, 0
 774 0008 232EA4FC 		sw	a0,-36(s0)
 775 000c 232CB4FC 		sw	a1,-40(s0)
 776 0010 232AC4FC 		sw	a2,-44(s0)
 366:../Firmware/GD32VW55x_standard_peripheral/Source/gd32vw55x_fmc.c ****     fmc_state_enum fmc_state = fmc_ready_wait(FMC_TIMEOUT_COUNT);
 777              		.loc 1 366 32
 778 0014 37050001 		li	a0,16777216
 779 0018 97000000 		call	fmc_ready_wait
 779      E7800000 
 780 0020 2326A4FE 		sw	a0,-20(s0)
 367:../Firmware/GD32VW55x_standard_peripheral/Source/gd32vw55x_fmc.c **** 
 368:../Firmware/GD32VW55x_standard_peripheral/Source/gd32vw55x_fmc.c ****     if(FMC_READY == fmc_state){
 781              		.loc 1 368 7
 782 0024 8327C4FE 		lw	a5,-20(s0)
 783 0028 F1E3     		bne	a5,zero,.L34
 369:../Firmware/GD32VW55x_standard_peripheral/Source/gd32vw55x_fmc.c ****         switch(wrp_register_index){
 784              		.loc 1 369 9
 785 002a 832744FD 		lw	a5,-44(s0)
 786 002e 99C7     		beq	a5,zero,.L35
 787 0030 032744FD 		lw	a4,-44(s0)
 788 0034 8547     		li	a5,1
 789 0036 6306F704 		beq	a4,a5,.L36
 370:../Firmware/GD32VW55x_standard_peripheral/Source/gd32vw55x_fmc.c ****         case OBWRP_INDEX0:
 371:../Firmware/GD32VW55x_standard_peripheral/Source/gd32vw55x_fmc.c ****             FMC_OBWRP0 = 0U;
 372:../Firmware/GD32VW55x_standard_peripheral/Source/gd32vw55x_fmc.c ****             FMC_OBWRP0 |= wrp_spage;
 373:../Firmware/GD32VW55x_standard_peripheral/Source/gd32vw55x_fmc.c ****             FMC_OBWRP0 |= wrp_epage << FMC_EPAGE_OFFSET;
 374:../Firmware/GD32VW55x_standard_peripheral/Source/gd32vw55x_fmc.c ****             break;
 375:../Firmware/GD32VW55x_standard_peripheral/Source/gd32vw55x_fmc.c ****         case OBWRP_INDEX1:
 376:../Firmware/GD32VW55x_standard_peripheral/Source/gd32vw55x_fmc.c ****             FMC_OBWRP1 = 0U;
 377:../Firmware/GD32VW55x_standard_peripheral/Source/gd32vw55x_fmc.c ****             FMC_OBWRP1 |= wrp_spage;
 378:../Firmware/GD32VW55x_standard_peripheral/Source/gd32vw55x_fmc.c ****             FMC_OBWRP1 |= wrp_epage << FMC_EPAGE_OFFSET;
 379:../Firmware/GD32VW55x_standard_peripheral/Source/gd32vw55x_fmc.c ****             break;
 380:../Firmware/GD32VW55x_standard_peripheral/Source/gd32vw55x_fmc.c ****         default:
 381:../Firmware/GD32VW55x_standard_peripheral/Source/gd32vw55x_fmc.c ****             break;
 790              		.loc 1 381 13
 791 003a 79A0     		j	.L38
 792              	.L35:
 371:../Firmware/GD32VW55x_standard_peripheral/Source/gd32vw55x_fmc.c ****             FMC_OBWRP0 |= wrp_spage;
 793              		.loc 1 371 13
 794 003c B7270240 		li	a5,1073881088
 795 0040 93878704 		addi	a5,a5,72
 371:../Firmware/GD32VW55x_standard_peripheral/Source/gd32vw55x_fmc.c ****             FMC_OBWRP0 |= wrp_spage;
 796              		.loc 1 371 24
 797 0044 23A00700 		sw	zero,0(a5)
 372:../Firmware/GD32VW55x_standard_peripheral/Source/gd32vw55x_fmc.c ****             FMC_OBWRP0 |= wrp_epage << FMC_EPAGE_OFFSET;
 798              		.loc 1 372 24
 799 0048 B7270240 		li	a5,1073881088
 800 004c 93878704 		addi	a5,a5,72
 801 0050 9443     		lw	a3,0(a5)
 802 0052 B7270240 		li	a5,1073881088
 803 0056 93878704 		addi	a5,a5,72
 804 005a 0327C4FD 		lw	a4,-36(s0)
 805 005e 558F     		or	a4,a3,a4
 806 0060 98C3     		sw	a4,0(a5)
 373:../Firmware/GD32VW55x_standard_peripheral/Source/gd32vw55x_fmc.c ****             break;
 807              		.loc 1 373 24
 808 0062 B7270240 		li	a5,1073881088
 809 0066 93878704 		addi	a5,a5,72
 810 006a 9443     		lw	a3,0(a5)
 373:../Firmware/GD32VW55x_standard_peripheral/Source/gd32vw55x_fmc.c ****             break;
 811              		.loc 1 373 37
 812 006c 832784FD 		lw	a5,-40(s0)
 813 0070 13970701 		slli	a4,a5,16
 373:../Firmware/GD32VW55x_standard_peripheral/Source/gd32vw55x_fmc.c ****             break;
 814              		.loc 1 373 24
 815 0074 B7270240 		li	a5,1073881088
 816 0078 93878704 		addi	a5,a5,72
 817 007c 558F     		or	a4,a3,a4
 818 007e 98C3     		sw	a4,0(a5)
 374:../Firmware/GD32VW55x_standard_peripheral/Source/gd32vw55x_fmc.c ****         case OBWRP_INDEX1:
 819              		.loc 1 374 13
 820 0080 A1A0     		j	.L38
 821              	.L36:
 376:../Firmware/GD32VW55x_standard_peripheral/Source/gd32vw55x_fmc.c ****             FMC_OBWRP1 |= wrp_spage;
 822              		.loc 1 376 13
 823 0082 B7270240 		li	a5,1073881088
 824 0086 9387C704 		addi	a5,a5,76
 376:../Firmware/GD32VW55x_standard_peripheral/Source/gd32vw55x_fmc.c ****             FMC_OBWRP1 |= wrp_spage;
 825              		.loc 1 376 24
 826 008a 23A00700 		sw	zero,0(a5)
 377:../Firmware/GD32VW55x_standard_peripheral/Source/gd32vw55x_fmc.c ****             FMC_OBWRP1 |= wrp_epage << FMC_EPAGE_OFFSET;
 827              		.loc 1 377 24
 828 008e B7270240 		li	a5,1073881088
 829 0092 9387C704 		addi	a5,a5,76
 830 0096 9443     		lw	a3,0(a5)
 831 0098 B7270240 		li	a5,1073881088
 832 009c 9387C704 		addi	a5,a5,76
 833 00a0 0327C4FD 		lw	a4,-36(s0)
 834 00a4 558F     		or	a4,a3,a4
 835 00a6 98C3     		sw	a4,0(a5)
 378:../Firmware/GD32VW55x_standard_peripheral/Source/gd32vw55x_fmc.c ****             break;
 836              		.loc 1 378 24
 837 00a8 B7270240 		li	a5,1073881088
 838 00ac 9387C704 		addi	a5,a5,76
 839 00b0 9443     		lw	a3,0(a5)
 378:../Firmware/GD32VW55x_standard_peripheral/Source/gd32vw55x_fmc.c ****             break;
 840              		.loc 1 378 37
 841 00b2 832784FD 		lw	a5,-40(s0)
 842 00b6 13970701 		slli	a4,a5,16
 378:../Firmware/GD32VW55x_standard_peripheral/Source/gd32vw55x_fmc.c ****             break;
 843              		.loc 1 378 24
 844 00ba B7270240 		li	a5,1073881088
 845 00be 9387C704 		addi	a5,a5,76
 846 00c2 558F     		or	a4,a3,a4
 847 00c4 98C3     		sw	a4,0(a5)
 379:../Firmware/GD32VW55x_standard_peripheral/Source/gd32vw55x_fmc.c ****         default:
 848              		.loc 1 379 13
 849 00c6 0100     		nop
 850              	.L38:
 382:../Firmware/GD32VW55x_standard_peripheral/Source/gd32vw55x_fmc.c ****         }
 383:../Firmware/GD32VW55x_standard_peripheral/Source/gd32vw55x_fmc.c ****         /* start option bytes modification */
 384:../Firmware/GD32VW55x_standard_peripheral/Source/gd32vw55x_fmc.c ****         FMC_CTL |= FMC_CTL_OBSTART;
 851              		.loc 1 384 17
 852 00c8 B7270240 		li	a5,1073881088
 853 00cc C107     		addi	a5,a5,16
 854 00ce 9443     		lw	a3,0(a5)
 855 00d0 B7270240 		li	a5,1073881088
 856 00d4 C107     		addi	a5,a5,16
 857 00d6 1167     		li	a4,16384
 858 00d8 558F     		or	a4,a3,a4
 859 00da 98C3     		sw	a4,0(a5)
 385:../Firmware/GD32VW55x_standard_peripheral/Source/gd32vw55x_fmc.c ****         /* wait for the FMC ready */
 386:../Firmware/GD32VW55x_standard_peripheral/Source/gd32vw55x_fmc.c ****         fmc_state = fmc_ready_wait(FMC_TIMEOUT_COUNT);
 860              		.loc 1 386 21
 861 00dc 37050001 		li	a0,16777216
 862 00e0 97000000 		call	fmc_ready_wait
 862      E7800000 
 863 00e8 2326A4FE 		sw	a0,-20(s0)
 864              	.L34:
 387:../Firmware/GD32VW55x_standard_peripheral/Source/gd32vw55x_fmc.c ****     }
 388:../Firmware/GD32VW55x_standard_peripheral/Source/gd32vw55x_fmc.c ****     /* return the FMC state */
 389:../Firmware/GD32VW55x_standard_peripheral/Source/gd32vw55x_fmc.c ****     return fmc_state;
 865              		.loc 1 389 12
 866 00ec 8327C4FE 		lw	a5,-20(s0)
 390:../Firmware/GD32VW55x_standard_peripheral/Source/gd32vw55x_fmc.c **** }
 867              		.loc 1 390 1
 868 00f0 3E85     		mv	a0,a5
 869 00f2 B250     		lw	ra,44(sp)
 870              		.cfi_restore 1
 871 00f4 2254     		lw	s0,40(sp)
 872              		.cfi_restore 8
 873              		.cfi_def_cfa 2, 48
 874 00f6 4561     		addi	sp,sp,48
 875              		.cfi_def_cfa_offset 0
 876 00f8 8280     		jr	ra
 877              		.cfi_endproc
 878              	.LFE361:
 880              		.section	.text.fmc_no_rtdec_config,"ax",@progbits
 881              		.align	1
 882              		.globl	fmc_no_rtdec_config
 884              	fmc_no_rtdec_config:
 885              	.LFB362:
 391:../Firmware/GD32VW55x_standard_peripheral/Source/gd32vw55x_fmc.c **** 
 392:../Firmware/GD32VW55x_standard_peripheral/Source/gd32vw55x_fmc.c **** /*!
 393:../Firmware/GD32VW55x_standard_peripheral/Source/gd32vw55x_fmc.c ****     \brief      configure NO-RTDEC pages
 394:../Firmware/GD32VW55x_standard_peripheral/Source/gd32vw55x_fmc.c ****     \param[in]  nodec_spage: start page of NO-RTDEC area, 0~0x03FF
 395:../Firmware/GD32VW55x_standard_peripheral/Source/gd32vw55x_fmc.c ****     \param[in]  nodec_epage: end page of NO-RTDEC area, 0~0x03FF
 396:../Firmware/GD32VW55x_standard_peripheral/Source/gd32vw55x_fmc.c ****     \param[in]  nodec_register_index
 397:../Firmware/GD32VW55x_standard_peripheral/Source/gd32vw55x_fmc.c ****                 only one parameter can be selected which are shown as below:
 398:../Firmware/GD32VW55x_standard_peripheral/Source/gd32vw55x_fmc.c ****       \arg        NODEC_INDEX0: NO-RTDEC region register 0
 399:../Firmware/GD32VW55x_standard_peripheral/Source/gd32vw55x_fmc.c ****       \arg        NODEC_INDEX1: NO-RTDEC region register 1
 400:../Firmware/GD32VW55x_standard_peripheral/Source/gd32vw55x_fmc.c ****       \arg        NODEC_INDEX2: NO-RTDEC region register 2
 401:../Firmware/GD32VW55x_standard_peripheral/Source/gd32vw55x_fmc.c ****       \arg        NODEC_INDEX3: NO-RTDEC region register 3
 402:../Firmware/GD32VW55x_standard_peripheral/Source/gd32vw55x_fmc.c ****     \param[out] none
 403:../Firmware/GD32VW55x_standard_peripheral/Source/gd32vw55x_fmc.c ****     \retval     none
 404:../Firmware/GD32VW55x_standard_peripheral/Source/gd32vw55x_fmc.c **** */
 405:../Firmware/GD32VW55x_standard_peripheral/Source/gd32vw55x_fmc.c **** void fmc_no_rtdec_config(uint32_t nodec_spage, uint32_t nodec_epage, uint32_t nodec_register_index)
 406:../Firmware/GD32VW55x_standard_peripheral/Source/gd32vw55x_fmc.c **** {
 886              		.loc 1 406 1
 887              		.cfi_startproc
 888 0000 0111     		addi	sp,sp,-32
 889              		.cfi_def_cfa_offset 32
 890 0002 22CE     		sw	s0,28(sp)
 891              		.cfi_offset 8, -4
 892 0004 0010     		addi	s0,sp,32
 893              		.cfi_def_cfa 8, 0
 894 0006 2326A4FE 		sw	a0,-20(s0)
 895 000a 2324B4FE 		sw	a1,-24(s0)
 896 000e 2322C4FE 		sw	a2,-28(s0)
 407:../Firmware/GD32VW55x_standard_peripheral/Source/gd32vw55x_fmc.c ****     switch(nodec_register_index){
 897              		.loc 1 407 5
 898 0012 032744FE 		lw	a4,-28(s0)
 899 0016 8D47     		li	a5,3
 900 0018 6303F710 		beq	a4,a5,.L41
 901 001c 032744FE 		lw	a4,-28(s0)
 902 0020 8D47     		li	a5,3
 903 0022 63E1E714 		bgtu	a4,a5,.L47
 904 0026 032744FE 		lw	a4,-28(s0)
 905 002a 8947     		li	a5,2
 906 002c 6306F70A 		beq	a4,a5,.L43
 907 0030 032744FE 		lw	a4,-28(s0)
 908 0034 8947     		li	a5,2
 909 0036 63E7E712 		bgtu	a4,a5,.L47
 910 003a 832744FE 		lw	a5,-28(s0)
 911 003e 99C7     		beq	a5,zero,.L44
 912 0040 032744FE 		lw	a4,-28(s0)
 913 0044 8547     		li	a5,1
 914 0046 6306F704 		beq	a4,a5,.L45
 408:../Firmware/GD32VW55x_standard_peripheral/Source/gd32vw55x_fmc.c ****     case NODEC_INDEX0:
 409:../Firmware/GD32VW55x_standard_peripheral/Source/gd32vw55x_fmc.c ****         FMC_NODEC0 = 0U;
 410:../Firmware/GD32VW55x_standard_peripheral/Source/gd32vw55x_fmc.c ****         FMC_NODEC0 |= nodec_spage;
 411:../Firmware/GD32VW55x_standard_peripheral/Source/gd32vw55x_fmc.c ****         FMC_NODEC0 |= nodec_epage << FMC_EPAGE_OFFSET;
 412:../Firmware/GD32VW55x_standard_peripheral/Source/gd32vw55x_fmc.c ****         break;
 413:../Firmware/GD32VW55x_standard_peripheral/Source/gd32vw55x_fmc.c ****     case NODEC_INDEX1:
 414:../Firmware/GD32VW55x_standard_peripheral/Source/gd32vw55x_fmc.c ****         FMC_NODEC1 = 0U;
 415:../Firmware/GD32VW55x_standard_peripheral/Source/gd32vw55x_fmc.c ****         FMC_NODEC1 |= nodec_spage;
 416:../Firmware/GD32VW55x_standard_peripheral/Source/gd32vw55x_fmc.c ****         FMC_NODEC1 |= nodec_epage << FMC_EPAGE_OFFSET;
 417:../Firmware/GD32VW55x_standard_peripheral/Source/gd32vw55x_fmc.c ****         break;
 418:../Firmware/GD32VW55x_standard_peripheral/Source/gd32vw55x_fmc.c ****     case NODEC_INDEX2:
 419:../Firmware/GD32VW55x_standard_peripheral/Source/gd32vw55x_fmc.c ****         FMC_NODEC2 = 0U;
 420:../Firmware/GD32VW55x_standard_peripheral/Source/gd32vw55x_fmc.c ****         FMC_NODEC2 |= nodec_spage;
 421:../Firmware/GD32VW55x_standard_peripheral/Source/gd32vw55x_fmc.c ****         FMC_NODEC2 |= nodec_epage << FMC_EPAGE_OFFSET;
 422:../Firmware/GD32VW55x_standard_peripheral/Source/gd32vw55x_fmc.c ****         break;
 423:../Firmware/GD32VW55x_standard_peripheral/Source/gd32vw55x_fmc.c ****     case NODEC_INDEX3:
 424:../Firmware/GD32VW55x_standard_peripheral/Source/gd32vw55x_fmc.c ****         FMC_NODEC3 = 0U;
 425:../Firmware/GD32VW55x_standard_peripheral/Source/gd32vw55x_fmc.c ****         FMC_NODEC3 |= nodec_spage;
 426:../Firmware/GD32VW55x_standard_peripheral/Source/gd32vw55x_fmc.c ****         FMC_NODEC3 |= nodec_epage << FMC_EPAGE_OFFSET;
 427:../Firmware/GD32VW55x_standard_peripheral/Source/gd32vw55x_fmc.c ****         break;
 428:../Firmware/GD32VW55x_standard_peripheral/Source/gd32vw55x_fmc.c ****     default:
 429:../Firmware/GD32VW55x_standard_peripheral/Source/gd32vw55x_fmc.c ****         break;
 915              		.loc 1 429 9
 916 004a 29AA     		j	.L47
 917              	.L44:
 409:../Firmware/GD32VW55x_standard_peripheral/Source/gd32vw55x_fmc.c ****         FMC_NODEC0 |= nodec_spage;
 918              		.loc 1 409 9
 919 004c B7270240 		li	a5,1073881088
 920 0050 93870707 		addi	a5,a5,112
 409:../Firmware/GD32VW55x_standard_peripheral/Source/gd32vw55x_fmc.c ****         FMC_NODEC0 |= nodec_spage;
 921              		.loc 1 409 20
 922 0054 23A00700 		sw	zero,0(a5)
 410:../Firmware/GD32VW55x_standard_peripheral/Source/gd32vw55x_fmc.c ****         FMC_NODEC0 |= nodec_epage << FMC_EPAGE_OFFSET;
 923              		.loc 1 410 20
 924 0058 B7270240 		li	a5,1073881088
 925 005c 93870707 		addi	a5,a5,112
 926 0060 9443     		lw	a3,0(a5)
 927 0062 B7270240 		li	a5,1073881088
 928 0066 93870707 		addi	a5,a5,112
 929 006a 0327C4FE 		lw	a4,-20(s0)
 930 006e 558F     		or	a4,a3,a4
 931 0070 98C3     		sw	a4,0(a5)
 411:../Firmware/GD32VW55x_standard_peripheral/Source/gd32vw55x_fmc.c ****         break;
 932              		.loc 1 411 20
 933 0072 B7270240 		li	a5,1073881088
 934 0076 93870707 		addi	a5,a5,112
 935 007a 9443     		lw	a3,0(a5)
 411:../Firmware/GD32VW55x_standard_peripheral/Source/gd32vw55x_fmc.c ****         break;
 936              		.loc 1 411 35
 937 007c 832784FE 		lw	a5,-24(s0)
 938 0080 13970701 		slli	a4,a5,16
 411:../Firmware/GD32VW55x_standard_peripheral/Source/gd32vw55x_fmc.c ****         break;
 939              		.loc 1 411 20
 940 0084 B7270240 		li	a5,1073881088
 941 0088 93870707 		addi	a5,a5,112
 942 008c 558F     		or	a4,a3,a4
 943 008e 98C3     		sw	a4,0(a5)
 412:../Firmware/GD32VW55x_standard_peripheral/Source/gd32vw55x_fmc.c ****     case NODEC_INDEX1:
 944              		.loc 1 412 9
 945 0090 D9A8     		j	.L46
 946              	.L45:
 414:../Firmware/GD32VW55x_standard_peripheral/Source/gd32vw55x_fmc.c ****         FMC_NODEC1 |= nodec_spage;
 947              		.loc 1 414 9
 948 0092 B7270240 		li	a5,1073881088
 949 0096 93874707 		addi	a5,a5,116
 414:../Firmware/GD32VW55x_standard_peripheral/Source/gd32vw55x_fmc.c ****         FMC_NODEC1 |= nodec_spage;
 950              		.loc 1 414 20
 951 009a 23A00700 		sw	zero,0(a5)
 415:../Firmware/GD32VW55x_standard_peripheral/Source/gd32vw55x_fmc.c ****         FMC_NODEC1 |= nodec_epage << FMC_EPAGE_OFFSET;
 952              		.loc 1 415 20
 953 009e B7270240 		li	a5,1073881088
 954 00a2 93874707 		addi	a5,a5,116
 955 00a6 9443     		lw	a3,0(a5)
 956 00a8 B7270240 		li	a5,1073881088
 957 00ac 93874707 		addi	a5,a5,116
 958 00b0 0327C4FE 		lw	a4,-20(s0)
 959 00b4 558F     		or	a4,a3,a4
 960 00b6 98C3     		sw	a4,0(a5)
 416:../Firmware/GD32VW55x_standard_peripheral/Source/gd32vw55x_fmc.c ****         break;
 961              		.loc 1 416 20
 962 00b8 B7270240 		li	a5,1073881088
 963 00bc 93874707 		addi	a5,a5,116
 964 00c0 9443     		lw	a3,0(a5)
 416:../Firmware/GD32VW55x_standard_peripheral/Source/gd32vw55x_fmc.c ****         break;
 965              		.loc 1 416 35
 966 00c2 832784FE 		lw	a5,-24(s0)
 967 00c6 13970701 		slli	a4,a5,16
 416:../Firmware/GD32VW55x_standard_peripheral/Source/gd32vw55x_fmc.c ****         break;
 968              		.loc 1 416 20
 969 00ca B7270240 		li	a5,1073881088
 970 00ce 93874707 		addi	a5,a5,116
 971 00d2 558F     		or	a4,a3,a4
 972 00d4 98C3     		sw	a4,0(a5)
 417:../Firmware/GD32VW55x_standard_peripheral/Source/gd32vw55x_fmc.c ****     case NODEC_INDEX2:
 973              		.loc 1 417 9
 974 00d6 41A8     		j	.L46
 975              	.L43:
 419:../Firmware/GD32VW55x_standard_peripheral/Source/gd32vw55x_fmc.c ****         FMC_NODEC2 |= nodec_spage;
 976              		.loc 1 419 9
 977 00d8 B7270240 		li	a5,1073881088
 978 00dc 93878707 		addi	a5,a5,120
 419:../Firmware/GD32VW55x_standard_peripheral/Source/gd32vw55x_fmc.c ****         FMC_NODEC2 |= nodec_spage;
 979              		.loc 1 419 20
 980 00e0 23A00700 		sw	zero,0(a5)
 420:../Firmware/GD32VW55x_standard_peripheral/Source/gd32vw55x_fmc.c ****         FMC_NODEC2 |= nodec_epage << FMC_EPAGE_OFFSET;
 981              		.loc 1 420 20
 982 00e4 B7270240 		li	a5,1073881088
 983 00e8 93878707 		addi	a5,a5,120
 984 00ec 9443     		lw	a3,0(a5)
 985 00ee B7270240 		li	a5,1073881088
 986 00f2 93878707 		addi	a5,a5,120
 987 00f6 0327C4FE 		lw	a4,-20(s0)
 988 00fa 558F     		or	a4,a3,a4
 989 00fc 98C3     		sw	a4,0(a5)
 421:../Firmware/GD32VW55x_standard_peripheral/Source/gd32vw55x_fmc.c ****         break;
 990              		.loc 1 421 20
 991 00fe B7270240 		li	a5,1073881088
 992 0102 93878707 		addi	a5,a5,120
 993 0106 9443     		lw	a3,0(a5)
 421:../Firmware/GD32VW55x_standard_peripheral/Source/gd32vw55x_fmc.c ****         break;
 994              		.loc 1 421 35
 995 0108 832784FE 		lw	a5,-24(s0)
 996 010c 13970701 		slli	a4,a5,16
 421:../Firmware/GD32VW55x_standard_peripheral/Source/gd32vw55x_fmc.c ****         break;
 997              		.loc 1 421 20
 998 0110 B7270240 		li	a5,1073881088
 999 0114 93878707 		addi	a5,a5,120
 1000 0118 558F     		or	a4,a3,a4
 1001 011a 98C3     		sw	a4,0(a5)
 422:../Firmware/GD32VW55x_standard_peripheral/Source/gd32vw55x_fmc.c ****     case NODEC_INDEX3:
 1002              		.loc 1 422 9
 1003 011c A9A0     		j	.L46
 1004              	.L41:
 424:../Firmware/GD32VW55x_standard_peripheral/Source/gd32vw55x_fmc.c ****         FMC_NODEC3 |= nodec_spage;
 1005              		.loc 1 424 9
 1006 011e B7270240 		li	a5,1073881088
 1007 0122 9387C707 		addi	a5,a5,124
 424:../Firmware/GD32VW55x_standard_peripheral/Source/gd32vw55x_fmc.c ****         FMC_NODEC3 |= nodec_spage;
 1008              		.loc 1 424 20
 1009 0126 23A00700 		sw	zero,0(a5)
 425:../Firmware/GD32VW55x_standard_peripheral/Source/gd32vw55x_fmc.c ****         FMC_NODEC3 |= nodec_epage << FMC_EPAGE_OFFSET;
 1010              		.loc 1 425 20
 1011 012a B7270240 		li	a5,1073881088
 1012 012e 9387C707 		addi	a5,a5,124
 1013 0132 9443     		lw	a3,0(a5)
 1014 0134 B7270240 		li	a5,1073881088
 1015 0138 9387C707 		addi	a5,a5,124
 1016 013c 0327C4FE 		lw	a4,-20(s0)
 1017 0140 558F     		or	a4,a3,a4
 1018 0142 98C3     		sw	a4,0(a5)
 426:../Firmware/GD32VW55x_standard_peripheral/Source/gd32vw55x_fmc.c ****         break;
 1019              		.loc 1 426 20
 1020 0144 B7270240 		li	a5,1073881088
 1021 0148 9387C707 		addi	a5,a5,124
 1022 014c 9443     		lw	a3,0(a5)
 426:../Firmware/GD32VW55x_standard_peripheral/Source/gd32vw55x_fmc.c ****         break;
 1023              		.loc 1 426 35
 1024 014e 832784FE 		lw	a5,-24(s0)
 1025 0152 13970701 		slli	a4,a5,16
 426:../Firmware/GD32VW55x_standard_peripheral/Source/gd32vw55x_fmc.c ****         break;
 1026              		.loc 1 426 20
 1027 0156 B7270240 		li	a5,1073881088
 1028 015a 9387C707 		addi	a5,a5,124
 1029 015e 558F     		or	a4,a3,a4
 1030 0160 98C3     		sw	a4,0(a5)
 427:../Firmware/GD32VW55x_standard_peripheral/Source/gd32vw55x_fmc.c ****     default:
 1031              		.loc 1 427 9
 1032 0162 11A0     		j	.L46
 1033              	.L47:
 1034              		.loc 1 429 9
 1035 0164 0100     		nop
 1036              	.L46:
 430:../Firmware/GD32VW55x_standard_peripheral/Source/gd32vw55x_fmc.c ****     }
 431:../Firmware/GD32VW55x_standard_peripheral/Source/gd32vw55x_fmc.c **** }
 1037              		.loc 1 431 1
 1038 0166 0100     		nop
 1039 0168 7244     		lw	s0,28(sp)
 1040              		.cfi_restore 8
 1041              		.cfi_def_cfa 2, 32
 1042 016a 0561     		addi	sp,sp,32
 1043              		.cfi_def_cfa_offset 0
 1044 016c 8280     		jr	ra
 1045              		.cfi_endproc
 1046              	.LFE362:
 1048              		.section	.text.fmc_offset_region_config,"ax",@progbits
 1049              		.align	1
 1050              		.globl	fmc_offset_region_config
 1052              	fmc_offset_region_config:
 1053              	.LFB363:
 432:../Firmware/GD32VW55x_standard_peripheral/Source/gd32vw55x_fmc.c **** 
 433:../Firmware/GD32VW55x_standard_peripheral/Source/gd32vw55x_fmc.c **** /*!
 434:../Firmware/GD32VW55x_standard_peripheral/Source/gd32vw55x_fmc.c ****     \brief      configure offset region
 435:../Firmware/GD32VW55x_standard_peripheral/Source/gd32vw55x_fmc.c ****     \param[in]  of_spage: start page of offset region, 0~0x1FFF
 436:../Firmware/GD32VW55x_standard_peripheral/Source/gd32vw55x_fmc.c ****     \param[in]  of_epage: end page of offset region, 0~0x1FFF
 437:../Firmware/GD32VW55x_standard_peripheral/Source/gd32vw55x_fmc.c ****     \param[out] none
 438:../Firmware/GD32VW55x_standard_peripheral/Source/gd32vw55x_fmc.c ****     \retval     none
 439:../Firmware/GD32VW55x_standard_peripheral/Source/gd32vw55x_fmc.c **** */
 440:../Firmware/GD32VW55x_standard_peripheral/Source/gd32vw55x_fmc.c **** void fmc_offset_region_config(uint32_t of_spage, uint32_t of_epage)
 441:../Firmware/GD32VW55x_standard_peripheral/Source/gd32vw55x_fmc.c **** {
 1054              		.loc 1 441 1
 1055              		.cfi_startproc
 1056 0000 0111     		addi	sp,sp,-32
 1057              		.cfi_def_cfa_offset 32
 1058 0002 22CE     		sw	s0,28(sp)
 1059              		.cfi_offset 8, -4
 1060 0004 0010     		addi	s0,sp,32
 1061              		.cfi_def_cfa 8, 0
 1062 0006 2326A4FE 		sw	a0,-20(s0)
 1063 000a 2324B4FE 		sw	a1,-24(s0)
 442:../Firmware/GD32VW55x_standard_peripheral/Source/gd32vw55x_fmc.c ****     FMC_OFRG = 0U;
 1064              		.loc 1 442 5
 1065 000e B7270240 		li	a5,1073881088
 1066 0012 93870708 		addi	a5,a5,128
 1067              		.loc 1 442 14
 1068 0016 23A00700 		sw	zero,0(a5)
 443:../Firmware/GD32VW55x_standard_peripheral/Source/gd32vw55x_fmc.c ****     FMC_OFRG |= (uint32_t) (of_spage);
 1069              		.loc 1 443 14
 1070 001a B7270240 		li	a5,1073881088
 1071 001e 93870708 		addi	a5,a5,128
 1072 0022 9443     		lw	a3,0(a5)
 1073 0024 B7270240 		li	a5,1073881088
 1074 0028 93870708 		addi	a5,a5,128
 1075 002c 0327C4FE 		lw	a4,-20(s0)
 1076 0030 558F     		or	a4,a3,a4
 1077 0032 98C3     		sw	a4,0(a5)
 444:../Firmware/GD32VW55x_standard_peripheral/Source/gd32vw55x_fmc.c ****     FMC_OFRG |= (uint32_t) (of_epage << FMC_EPAGE_OFFSET);
 1078              		.loc 1 444 14
 1079 0034 B7270240 		li	a5,1073881088
 1080 0038 93870708 		addi	a5,a5,128
 1081 003c 9443     		lw	a3,0(a5)
 1082              		.loc 1 444 38
 1083 003e 832784FE 		lw	a5,-24(s0)
 1084 0042 13970701 		slli	a4,a5,16
 1085              		.loc 1 444 14
 1086 0046 B7270240 		li	a5,1073881088
 1087 004a 93870708 		addi	a5,a5,128
 1088 004e 558F     		or	a4,a3,a4
 1089 0050 98C3     		sw	a4,0(a5)
 445:../Firmware/GD32VW55x_standard_peripheral/Source/gd32vw55x_fmc.c **** }
 1090              		.loc 1 445 1
 1091 0052 0100     		nop
 1092 0054 7244     		lw	s0,28(sp)
 1093              		.cfi_restore 8
 1094              		.cfi_def_cfa 2, 32
 1095 0056 0561     		addi	sp,sp,32
 1096              		.cfi_def_cfa_offset 0
 1097 0058 8280     		jr	ra
 1098              		.cfi_endproc
 1099              	.LFE363:
 1101              		.section	.text.fmc_offset_value_config,"ax",@progbits
 1102              		.align	1
 1103              		.globl	fmc_offset_value_config
 1105              	fmc_offset_value_config:
 1106              	.LFB364:
 446:../Firmware/GD32VW55x_standard_peripheral/Source/gd32vw55x_fmc.c **** 
 447:../Firmware/GD32VW55x_standard_peripheral/Source/gd32vw55x_fmc.c **** /*!
 448:../Firmware/GD32VW55x_standard_peripheral/Source/gd32vw55x_fmc.c ****     \brief      configure offset value
 449:../Firmware/GD32VW55x_standard_peripheral/Source/gd32vw55x_fmc.c ****     \param[in]  of_value: offset value, 0~0x1FFF
 450:../Firmware/GD32VW55x_standard_peripheral/Source/gd32vw55x_fmc.c ****     \param[out] none
 451:../Firmware/GD32VW55x_standard_peripheral/Source/gd32vw55x_fmc.c ****     \retval     none
 452:../Firmware/GD32VW55x_standard_peripheral/Source/gd32vw55x_fmc.c **** */
 453:../Firmware/GD32VW55x_standard_peripheral/Source/gd32vw55x_fmc.c **** void fmc_offset_value_config(uint32_t of_value)
 454:../Firmware/GD32VW55x_standard_peripheral/Source/gd32vw55x_fmc.c **** {
 1107              		.loc 1 454 1
 1108              		.cfi_startproc
 1109 0000 0111     		addi	sp,sp,-32
 1110              		.cfi_def_cfa_offset 32
 1111 0002 22CE     		sw	s0,28(sp)
 1112              		.cfi_offset 8, -4
 1113 0004 0010     		addi	s0,sp,32
 1114              		.cfi_def_cfa 8, 0
 1115 0006 2326A4FE 		sw	a0,-20(s0)
 455:../Firmware/GD32VW55x_standard_peripheral/Source/gd32vw55x_fmc.c ****     FMC_OFVR = 0U;
 1116              		.loc 1 455 5
 1117 000a B7270240 		li	a5,1073881088
 1118 000e 93874708 		addi	a5,a5,132
 1119              		.loc 1 455 14
 1120 0012 23A00700 		sw	zero,0(a5)
 456:../Firmware/GD32VW55x_standard_peripheral/Source/gd32vw55x_fmc.c ****     FMC_OFVR |= (uint32_t) (of_value);
 1121              		.loc 1 456 14
 1122 0016 B7270240 		li	a5,1073881088
 1123 001a 93874708 		addi	a5,a5,132
 1124 001e 9443     		lw	a3,0(a5)
 1125 0020 B7270240 		li	a5,1073881088
 1126 0024 93874708 		addi	a5,a5,132
 1127 0028 0327C4FE 		lw	a4,-20(s0)
 1128 002c 558F     		or	a4,a3,a4
 1129 002e 98C3     		sw	a4,0(a5)
 457:../Firmware/GD32VW55x_standard_peripheral/Source/gd32vw55x_fmc.c **** }
 1130              		.loc 1 457 1
 1131 0030 0100     		nop
 1132 0032 7244     		lw	s0,28(sp)
 1133              		.cfi_restore 8
 1134              		.cfi_def_cfa 2, 32
 1135 0034 0561     		addi	sp,sp,32
 1136              		.cfi_def_cfa_offset 0
 1137 0036 8280     		jr	ra
 1138              		.cfi_endproc
 1139              	.LFE364:
 1141              		.section	.text.fmc_wifi_trim_cal_get,"ax",@progbits
 1142              		.align	1
 1143              		.globl	fmc_wifi_trim_cal_get
 1145              	fmc_wifi_trim_cal_get:
 1146              	.LFB365:
 458:../Firmware/GD32VW55x_standard_peripheral/Source/gd32vw55x_fmc.c **** 
 459:../Firmware/GD32VW55x_standard_peripheral/Source/gd32vw55x_fmc.c **** /*!
 460:../Firmware/GD32VW55x_standard_peripheral/Source/gd32vw55x_fmc.c ****     \brief      get calibration value
 461:../Firmware/GD32VW55x_standard_peripheral/Source/gd32vw55x_fmc.c ****     \param[in]  none
 462:../Firmware/GD32VW55x_standard_peripheral/Source/gd32vw55x_fmc.c ****     \param[out] rft0_bletxcal: BLE transmit power calibration value
 463:../Firmware/GD32VW55x_standard_peripheral/Source/gd32vw55x_fmc.c ****     \param[out] rft0_wftxcal: WIFI transmit power calibration value
 464:../Firmware/GD32VW55x_standard_peripheral/Source/gd32vw55x_fmc.c ****     \param[out] rft0_thecal: thermal meter calibration value
 465:../Firmware/GD32VW55x_standard_peripheral/Source/gd32vw55x_fmc.c ****     \param[out] rft1_wfrxcal: WIFI receive gain calibration value
 466:../Firmware/GD32VW55x_standard_peripheral/Source/gd32vw55x_fmc.c ****     \retval     none
 467:../Firmware/GD32VW55x_standard_peripheral/Source/gd32vw55x_fmc.c **** */
 468:../Firmware/GD32VW55x_standard_peripheral/Source/gd32vw55x_fmc.c **** void fmc_wifi_trim_cal_get(uint32_t *rft0_bletxcal, uint32_t *rft0_wftxcal, uint32_t *rft0_thecal, 
 469:../Firmware/GD32VW55x_standard_peripheral/Source/gd32vw55x_fmc.c **** {
 1147              		.loc 1 469 1
 1148              		.cfi_startproc
 1149 0000 7971     		addi	sp,sp,-48
 1150              		.cfi_def_cfa_offset 48
 1151 0002 22D6     		sw	s0,44(sp)
 1152              		.cfi_offset 8, -4
 1153 0004 0018     		addi	s0,sp,48
 1154              		.cfi_def_cfa 8, 0
 1155 0006 232EA4FC 		sw	a0,-36(s0)
 1156 000a 232CB4FC 		sw	a1,-40(s0)
 1157 000e 232AC4FC 		sw	a2,-44(s0)
 1158 0012 2328D4FC 		sw	a3,-48(s0)
 470:../Firmware/GD32VW55x_standard_peripheral/Source/gd32vw55x_fmc.c ****     uint32_t rft0_reg;
 471:../Firmware/GD32VW55x_standard_peripheral/Source/gd32vw55x_fmc.c ****     uint32_t rft1_reg;
 472:../Firmware/GD32VW55x_standard_peripheral/Source/gd32vw55x_fmc.c **** 
 473:../Firmware/GD32VW55x_standard_peripheral/Source/gd32vw55x_fmc.c ****     rft0_reg = FMC_RFT0;
 1159              		.loc 1 473 16
 1160 0016 B7270240 		li	a5,1073881088
 1161 001a 93878710 		addi	a5,a5,264
 1162              		.loc 1 473 14
 1163 001e 9C43     		lw	a5,0(a5)
 1164 0020 2326F4FE 		sw	a5,-20(s0)
 474:../Firmware/GD32VW55x_standard_peripheral/Source/gd32vw55x_fmc.c ****     rft1_reg = FMC_RFT1;
 1165              		.loc 1 474 16
 1166 0024 B7270240 		li	a5,1073881088
 1167 0028 9387C710 		addi	a5,a5,268
 1168              		.loc 1 474 14
 1169 002c 9C43     		lw	a5,0(a5)
 1170 002e 2324F4FE 		sw	a5,-24(s0)
 475:../Firmware/GD32VW55x_standard_peripheral/Source/gd32vw55x_fmc.c ****     *rft0_bletxcal = (uint32_t)(rft0_reg & FMC_RFT0_BLETXCAL);
 1171              		.loc 1 475 22
 1172 0032 0327C4FE 		lw	a4,-20(s0)
 1173 0036 B70700FF 		li	a5,-16777216
 1174 003a 7D8F     		and	a4,a4,a5
 1175              		.loc 1 475 20
 1176 003c 8327C4FD 		lw	a5,-36(s0)
 1177 0040 98C3     		sw	a4,0(a5)
 476:../Firmware/GD32VW55x_standard_peripheral/Source/gd32vw55x_fmc.c ****     *rft0_wftxcal = (uint32_t)(rft0_reg & FMC_RFT0_WIFITXCAL);
 1178              		.loc 1 476 21
 1179 0042 0327C4FE 		lw	a4,-20(s0)
 1180 0046 B707FF00 		li	a5,16711680
 1181 004a 7D8F     		and	a4,a4,a5
 1182              		.loc 1 476 19
 1183 004c 832784FD 		lw	a5,-40(s0)
 1184 0050 98C3     		sw	a4,0(a5)
 477:../Firmware/GD32VW55x_standard_peripheral/Source/gd32vw55x_fmc.c ****     *rft0_thecal = (uint32_t)(rft0_reg & FMC_RFT0_THECAL);
 1185              		.loc 1 477 20
 1186 0052 0327C4FE 		lw	a4,-20(s0)
 1187 0056 C167     		li	a5,65536
 1188 0058 938707F0 		addi	a5,a5,-256
 1189 005c 7D8F     		and	a4,a4,a5
 1190              		.loc 1 477 18
 1191 005e 832744FD 		lw	a5,-44(s0)
 1192 0062 98C3     		sw	a4,0(a5)
 478:../Firmware/GD32VW55x_standard_peripheral/Source/gd32vw55x_fmc.c ****     *rft1_wfrxcal = (uint32_t)(rft1_reg & FMC_RFT1_WIFIRXGCAL);
 1193              		.loc 1 478 21
 1194 0064 832784FE 		lw	a5,-24(s0)
 1195 0068 13F7F700 		andi	a4,a5,15
 1196              		.loc 1 478 19
 1197 006c 832704FD 		lw	a5,-48(s0)
 1198 0070 98C3     		sw	a4,0(a5)
 479:../Firmware/GD32VW55x_standard_peripheral/Source/gd32vw55x_fmc.c **** }
 1199              		.loc 1 479 1
 1200 0072 0100     		nop
 1201 0074 3254     		lw	s0,44(sp)
 1202              		.cfi_restore 8
 1203              		.cfi_def_cfa 2, 48
 1204 0076 4561     		addi	sp,sp,48
 1205              		.cfi_def_cfa_offset 0
 1206 0078 8280     		jr	ra
 1207              		.cfi_endproc
 1208              	.LFE365:
 1210              		.section	.text.fmc_wifi_trim_pa_get,"ax",@progbits
 1211              		.align	1
 1212              		.globl	fmc_wifi_trim_pa_get
 1214              	fmc_wifi_trim_pa_get:
 1215              	.LFB366:
 480:../Firmware/GD32VW55x_standard_peripheral/Source/gd32vw55x_fmc.c **** 
 481:../Firmware/GD32VW55x_standard_peripheral/Source/gd32vw55x_fmc.c **** /*!
 482:../Firmware/GD32VW55x_standard_peripheral/Source/gd32vw55x_fmc.c ****     \brief      get Power Amplifier bias tune value
 483:../Firmware/GD32VW55x_standard_peripheral/Source/gd32vw55x_fmc.c ****     \param[in]  none
 484:../Firmware/GD32VW55x_standard_peripheral/Source/gd32vw55x_fmc.c ****     \param[out] rft0_pa_tune0: Power Amplifier bias coarse tune value
 485:../Firmware/GD32VW55x_standard_peripheral/Source/gd32vw55x_fmc.c ****     \param[out] rft0_pa_tune1: Power Amplifier bias fine tune value
 486:../Firmware/GD32VW55x_standard_peripheral/Source/gd32vw55x_fmc.c ****     \retval     none
 487:../Firmware/GD32VW55x_standard_peripheral/Source/gd32vw55x_fmc.c **** */
 488:../Firmware/GD32VW55x_standard_peripheral/Source/gd32vw55x_fmc.c **** void fmc_wifi_trim_pa_get(uint32_t *rft0_pa_tune0, uint32_t *rft0_pa_tune1)
 489:../Firmware/GD32VW55x_standard_peripheral/Source/gd32vw55x_fmc.c **** {
 1216              		.loc 1 489 1
 1217              		.cfi_startproc
 1218 0000 7971     		addi	sp,sp,-48
 1219              		.cfi_def_cfa_offset 48
 1220 0002 22D6     		sw	s0,44(sp)
 1221              		.cfi_offset 8, -4
 1222 0004 0018     		addi	s0,sp,48
 1223              		.cfi_def_cfa 8, 0
 1224 0006 232EA4FC 		sw	a0,-36(s0)
 1225 000a 232CB4FC 		sw	a1,-40(s0)
 490:../Firmware/GD32VW55x_standard_peripheral/Source/gd32vw55x_fmc.c ****     uint32_t rft0_reg;
 491:../Firmware/GD32VW55x_standard_peripheral/Source/gd32vw55x_fmc.c **** 
 492:../Firmware/GD32VW55x_standard_peripheral/Source/gd32vw55x_fmc.c ****     rft0_reg = FMC_RFT0;
 1226              		.loc 1 492 16
 1227 000e B7270240 		li	a5,1073881088
 1228 0012 93878710 		addi	a5,a5,264
 1229              		.loc 1 492 14
 1230 0016 9C43     		lw	a5,0(a5)
 1231 0018 2326F4FE 		sw	a5,-20(s0)
 493:../Firmware/GD32VW55x_standard_peripheral/Source/gd32vw55x_fmc.c ****     *rft0_pa_tune0 = (uint32_t)(rft0_reg & FMC_RFT0_PABIAST0);
 1232              		.loc 1 493 22
 1233 001c 8327C4FE 		lw	a5,-20(s0)
 1234 0020 13F7F700 		andi	a4,a5,15
 1235              		.loc 1 493 20
 1236 0024 8327C4FD 		lw	a5,-36(s0)
 1237 0028 98C3     		sw	a4,0(a5)
 494:../Firmware/GD32VW55x_standard_peripheral/Source/gd32vw55x_fmc.c ****     *rft0_pa_tune1 = (uint32_t)(rft0_reg & FMC_RFT0_PABIAST1);
 1238              		.loc 1 494 22
 1239 002a 8327C4FE 		lw	a5,-20(s0)
 1240 002e 13F7070F 		andi	a4,a5,240
 1241              		.loc 1 494 20
 1242 0032 832784FD 		lw	a5,-40(s0)
 1243 0036 98C3     		sw	a4,0(a5)
 495:../Firmware/GD32VW55x_standard_peripheral/Source/gd32vw55x_fmc.c **** }
 1244              		.loc 1 495 1
 1245 0038 0100     		nop
 1246 003a 3254     		lw	s0,44(sp)
 1247              		.cfi_restore 8
 1248              		.cfi_def_cfa 2, 48
 1249 003c 4561     		addi	sp,sp,48
 1250              		.cfi_def_cfa_offset 0
 1251 003e 8280     		jr	ra
 1252              		.cfi_endproc
 1253              	.LFE366:
 1255              		.section	.text.fmc_wifi_trim_get,"ax",@progbits
 1256              		.align	1
 1257              		.globl	fmc_wifi_trim_get
 1259              	fmc_wifi_trim_get:
 1260              	.LFB367:
 496:../Firmware/GD32VW55x_standard_peripheral/Source/gd32vw55x_fmc.c **** 
 497:../Firmware/GD32VW55x_standard_peripheral/Source/gd32vw55x_fmc.c **** /*!
 498:../Firmware/GD32VW55x_standard_peripheral/Source/gd32vw55x_fmc.c ****     \brief      get wifi trim
 499:../Firmware/GD32VW55x_standard_peripheral/Source/gd32vw55x_fmc.c ****     \param[in]  size: the size of data written to wifi trim, must be 16U
 500:../Firmware/GD32VW55x_standard_peripheral/Source/gd32vw55x_fmc.c ****     \param[in]  buf: the buffer of data read from wifi trim
 501:../Firmware/GD32VW55x_standard_peripheral/Source/gd32vw55x_fmc.c ****     \param[out] none
 502:../Firmware/GD32VW55x_standard_peripheral/Source/gd32vw55x_fmc.c ****     \retval     state of FMC
 503:../Firmware/GD32VW55x_standard_peripheral/Source/gd32vw55x_fmc.c **** */
 504:../Firmware/GD32VW55x_standard_peripheral/Source/gd32vw55x_fmc.c **** fmc_state_enum fmc_wifi_trim_get(uint32_t size, uint32_t buf[])
 505:../Firmware/GD32VW55x_standard_peripheral/Source/gd32vw55x_fmc.c **** {
 1261              		.loc 1 505 1
 1262              		.cfi_startproc
 1263 0000 7971     		addi	sp,sp,-48
 1264              		.cfi_def_cfa_offset 48
 1265 0002 22D6     		sw	s0,44(sp)
 1266              		.cfi_offset 8, -4
 1267 0004 0018     		addi	s0,sp,48
 1268              		.cfi_def_cfa 8, 0
 1269 0006 232EA4FC 		sw	a0,-36(s0)
 1270 000a 232CB4FC 		sw	a1,-40(s0)
 506:../Firmware/GD32VW55x_standard_peripheral/Source/gd32vw55x_fmc.c ****     uint32_t i;
 507:../Firmware/GD32VW55x_standard_peripheral/Source/gd32vw55x_fmc.c **** 
 508:../Firmware/GD32VW55x_standard_peripheral/Source/gd32vw55x_fmc.c ****     if(size != 16U){
 1271              		.loc 1 508 7
 1272 000e 0327C4FD 		lw	a4,-36(s0)
 1273 0012 C147     		li	a5,16
 1274 0014 6304F700 		beq	a4,a5,.L53
 509:../Firmware/GD32VW55x_standard_peripheral/Source/gd32vw55x_fmc.c ****         return FMC_ERR;
 1275              		.loc 1 509 16
 1276 0018 9147     		li	a5,4
 1277 001a 89A0     		j	.L54
 1278              	.L53:
 510:../Firmware/GD32VW55x_standard_peripheral/Source/gd32vw55x_fmc.c ****     }
 511:../Firmware/GD32VW55x_standard_peripheral/Source/gd32vw55x_fmc.c ****     for(i = 0; i < size; i++){
 1279              		.loc 1 511 11
 1280 001c 232604FE 		sw	zero,-20(s0)
 1281              		.loc 1 511 5
 1282 0020 3DA0     		j	.L55
 1283              	.L56:
 512:../Firmware/GD32VW55x_standard_peripheral/Source/gd32vw55x_fmc.c ****         buf[i] = REG32(FMC + 0x00000200U + i*4);
 1284              		.loc 1 512 18 discriminator 3
 1285 0022 0327C4FE 		lw	a4,-20(s0)
 1286 0026 B7970010 		li	a5,268472320
 1287 002a 93870788 		addi	a5,a5,-1920
 1288 002e BA97     		add	a5,a4,a5
 1289 0030 8A07     		slli	a5,a5,2
 1290 0032 BE86     		mv	a3,a5
 1291              		.loc 1 512 12 discriminator 3
 1292 0034 8327C4FE 		lw	a5,-20(s0)
 1293 0038 8A07     		slli	a5,a5,2
 1294 003a 032784FD 		lw	a4,-40(s0)
 1295 003e BA97     		add	a5,a4,a5
 1296              		.loc 1 512 18 discriminator 3
 1297 0040 9842     		lw	a4,0(a3)
 1298              		.loc 1 512 16 discriminator 3
 1299 0042 98C3     		sw	a4,0(a5)
 511:../Firmware/GD32VW55x_standard_peripheral/Source/gd32vw55x_fmc.c ****         buf[i] = REG32(FMC + 0x00000200U + i*4);
 1300              		.loc 1 511 27 discriminator 3
 1301 0044 8327C4FE 		lw	a5,-20(s0)
 1302 0048 8507     		addi	a5,a5,1
 1303 004a 2326F4FE 		sw	a5,-20(s0)
 1304              	.L55:
 511:../Firmware/GD32VW55x_standard_peripheral/Source/gd32vw55x_fmc.c ****         buf[i] = REG32(FMC + 0x00000200U + i*4);
 1305              		.loc 1 511 5 discriminator 1
 1306 004e 0327C4FE 		lw	a4,-20(s0)
 1307 0052 8327C4FD 		lw	a5,-36(s0)
 1308 0056 E366F7FC 		bltu	a4,a5,.L56
 513:../Firmware/GD32VW55x_standard_peripheral/Source/gd32vw55x_fmc.c ****     }
 514:../Firmware/GD32VW55x_standard_peripheral/Source/gd32vw55x_fmc.c ****     /* return the FMC state */
 515:../Firmware/GD32VW55x_standard_peripheral/Source/gd32vw55x_fmc.c ****     return FMC_READY;
 1309              		.loc 1 515 12
 1310 005a 8147     		li	a5,0
 1311              	.L54:
 516:../Firmware/GD32VW55x_standard_peripheral/Source/gd32vw55x_fmc.c **** }
 1312              		.loc 1 516 1
 1313 005c 3E85     		mv	a0,a5
 1314 005e 3254     		lw	s0,44(sp)
 1315              		.cfi_restore 8
 1316              		.cfi_def_cfa 2, 48
 1317 0060 4561     		addi	sp,sp,48
 1318              		.cfi_def_cfa_offset 0
 1319 0062 8280     		jr	ra
 1320              		.cfi_endproc
 1321              	.LFE367:
 1323              		.section	.text.fmc_pid_get,"ax",@progbits
 1324              		.align	1
 1325              		.globl	fmc_pid_get
 1327              	fmc_pid_get:
 1328              	.LFB368:
 517:../Firmware/GD32VW55x_standard_peripheral/Source/gd32vw55x_fmc.c **** 
 518:../Firmware/GD32VW55x_standard_peripheral/Source/gd32vw55x_fmc.c **** /*!
 519:../Firmware/GD32VW55x_standard_peripheral/Source/gd32vw55x_fmc.c ****     \brief      get product ID
 520:../Firmware/GD32VW55x_standard_peripheral/Source/gd32vw55x_fmc.c ****     \param[in]  none
 521:../Firmware/GD32VW55x_standard_peripheral/Source/gd32vw55x_fmc.c ****     \param[out] pid: product ID
 522:../Firmware/GD32VW55x_standard_peripheral/Source/gd32vw55x_fmc.c ****     \retval     none
 523:../Firmware/GD32VW55x_standard_peripheral/Source/gd32vw55x_fmc.c **** */
 524:../Firmware/GD32VW55x_standard_peripheral/Source/gd32vw55x_fmc.c **** void fmc_pid_get(uint32_t *pid)
 525:../Firmware/GD32VW55x_standard_peripheral/Source/gd32vw55x_fmc.c **** {
 1329              		.loc 1 525 1
 1330              		.cfi_startproc
 1331 0000 7971     		addi	sp,sp,-48
 1332              		.cfi_def_cfa_offset 48
 1333 0002 22D6     		sw	s0,44(sp)
 1334              		.cfi_offset 8, -4
 1335 0004 0018     		addi	s0,sp,48
 1336              		.cfi_def_cfa 8, 0
 1337 0006 232EA4FC 		sw	a0,-36(s0)
 526:../Firmware/GD32VW55x_standard_peripheral/Source/gd32vw55x_fmc.c ****     uint32_t pid_addr = (uint32_t)pid;
 1338              		.loc 1 526 14
 1339 000a 8327C4FD 		lw	a5,-36(s0)
 1340 000e 2326F4FE 		sw	a5,-20(s0)
 527:../Firmware/GD32VW55x_standard_peripheral/Source/gd32vw55x_fmc.c ****     *(uint32_t *)pid_addr = (uint32_t)(FMC_PID0);
 1341              		.loc 1 527 29
 1342 0012 B7270240 		li	a5,1073881088
 1343 0016 13870710 		addi	a4,a5,256
 1344              		.loc 1 527 6
 1345 001a 8327C4FE 		lw	a5,-20(s0)
 1346              		.loc 1 527 29
 1347 001e 1843     		lw	a4,0(a4)
 1348              		.loc 1 527 27
 1349 0020 98C3     		sw	a4,0(a5)
 528:../Firmware/GD32VW55x_standard_peripheral/Source/gd32vw55x_fmc.c ****     pid_addr += 4U;
 1350              		.loc 1 528 14
 1351 0022 8327C4FE 		lw	a5,-20(s0)
 1352 0026 9107     		addi	a5,a5,4
 1353 0028 2326F4FE 		sw	a5,-20(s0)
 529:../Firmware/GD32VW55x_standard_peripheral/Source/gd32vw55x_fmc.c ****     *(uint32_t *)pid_addr = (uint32_t)(FMC_PID1);
 1354              		.loc 1 529 29
 1355 002c B7270240 		li	a5,1073881088
 1356 0030 13874710 		addi	a4,a5,260
 1357              		.loc 1 529 6
 1358 0034 8327C4FE 		lw	a5,-20(s0)
 1359              		.loc 1 529 29
 1360 0038 1843     		lw	a4,0(a4)
 1361              		.loc 1 529 27
 1362 003a 98C3     		sw	a4,0(a5)
 530:../Firmware/GD32VW55x_standard_peripheral/Source/gd32vw55x_fmc.c **** }
 1363              		.loc 1 530 1
 1364 003c 0100     		nop
 1365 003e 3254     		lw	s0,44(sp)
 1366              		.cfi_restore 8
 1367              		.cfi_def_cfa 2, 48
 1368 0040 4561     		addi	sp,sp,48
 1369              		.cfi_def_cfa_offset 0
 1370 0042 8280     		jr	ra
 1371              		.cfi_endproc
 1372              	.LFE368:
 1374              		.section	.text.ob_write_protection_get,"ax",@progbits
 1375              		.align	1
 1376              		.globl	ob_write_protection_get
 1378              	ob_write_protection_get:
 1379              	.LFB369:
 531:../Firmware/GD32VW55x_standard_peripheral/Source/gd32vw55x_fmc.c **** 
 532:../Firmware/GD32VW55x_standard_peripheral/Source/gd32vw55x_fmc.c **** /*!
 533:../Firmware/GD32VW55x_standard_peripheral/Source/gd32vw55x_fmc.c ****     \brief      get option bytes write protection state, only applies to get the status of write/er
 534:../Firmware/GD32VW55x_standard_peripheral/Source/gd32vw55x_fmc.c ****     \param[in]  none
 535:../Firmware/GD32VW55x_standard_peripheral/Source/gd32vw55x_fmc.c ****     \param[out] none
 536:../Firmware/GD32VW55x_standard_peripheral/Source/gd32vw55x_fmc.c ****     \retval     FlagStatus: SET or RESET
 537:../Firmware/GD32VW55x_standard_peripheral/Source/gd32vw55x_fmc.c **** */
 538:../Firmware/GD32VW55x_standard_peripheral/Source/gd32vw55x_fmc.c **** FlagStatus ob_write_protection_get(void)
 539:../Firmware/GD32VW55x_standard_peripheral/Source/gd32vw55x_fmc.c **** {
 1380              		.loc 1 539 1
 1381              		.cfi_startproc
 1382 0000 0111     		addi	sp,sp,-32
 1383              		.cfi_def_cfa_offset 32
 1384 0002 22CE     		sw	s0,28(sp)
 1385              		.cfi_offset 8, -4
 1386 0004 0010     		addi	s0,sp,32
 1387              		.cfi_def_cfa 8, 0
 540:../Firmware/GD32VW55x_standard_peripheral/Source/gd32vw55x_fmc.c ****     FlagStatus status = RESET;
 1388              		.loc 1 540 16
 1389 0006 232604FE 		sw	zero,-20(s0)
 541:../Firmware/GD32VW55x_standard_peripheral/Source/gd32vw55x_fmc.c **** 
 542:../Firmware/GD32VW55x_standard_peripheral/Source/gd32vw55x_fmc.c ****     if(FMC_OBSTAT & FMC_OBSTAT_WP) {
 1390              		.loc 1 542 8
 1391 000a B7270240 		li	a5,1073881088
 1392 000e F107     		addi	a5,a5,28
 1393 0010 9C43     		lw	a5,0(a5)
 1394              		.loc 1 542 19
 1395 0012 918B     		andi	a5,a5,4
 1396              		.loc 1 542 7
 1397 0014 89C7     		beq	a5,zero,.L59
 543:../Firmware/GD32VW55x_standard_peripheral/Source/gd32vw55x_fmc.c ****         status = SET;
 1398              		.loc 1 543 16
 1399 0016 8547     		li	a5,1
 1400 0018 2326F4FE 		sw	a5,-20(s0)
 1401 001c 19A0     		j	.L60
 1402              	.L59:
 544:../Firmware/GD32VW55x_standard_peripheral/Source/gd32vw55x_fmc.c ****     } else {
 545:../Firmware/GD32VW55x_standard_peripheral/Source/gd32vw55x_fmc.c ****         status = RESET;
 1403              		.loc 1 545 16
 1404 001e 232604FE 		sw	zero,-20(s0)
 1405              	.L60:
 546:../Firmware/GD32VW55x_standard_peripheral/Source/gd32vw55x_fmc.c ****     }
 547:../Firmware/GD32VW55x_standard_peripheral/Source/gd32vw55x_fmc.c **** 
 548:../Firmware/GD32VW55x_standard_peripheral/Source/gd32vw55x_fmc.c ****     /* return the state of corresponding FMC flag */
 549:../Firmware/GD32VW55x_standard_peripheral/Source/gd32vw55x_fmc.c ****     return status;
 1406              		.loc 1 549 12
 1407 0022 8327C4FE 		lw	a5,-20(s0)
 550:../Firmware/GD32VW55x_standard_peripheral/Source/gd32vw55x_fmc.c **** }
 1408              		.loc 1 550 1
 1409 0026 3E85     		mv	a0,a5
 1410 0028 7244     		lw	s0,28(sp)
 1411              		.cfi_restore 8
 1412              		.cfi_def_cfa 2, 32
 1413 002a 0561     		addi	sp,sp,32
 1414              		.cfi_def_cfa_offset 0
 1415 002c 8280     		jr	ra
 1416              		.cfi_endproc
 1417              	.LFE369:
 1419              		.section	.text.ob_user_get,"ax",@progbits
 1420              		.align	1
 1421              		.globl	ob_user_get
 1423              	ob_user_get:
 1424              	.LFB370:
 551:../Firmware/GD32VW55x_standard_peripheral/Source/gd32vw55x_fmc.c **** 
 552:../Firmware/GD32VW55x_standard_peripheral/Source/gd32vw55x_fmc.c **** /*!
 553:../Firmware/GD32VW55x_standard_peripheral/Source/gd32vw55x_fmc.c ****     \brief      get the value of option bytes USER
 554:../Firmware/GD32VW55x_standard_peripheral/Source/gd32vw55x_fmc.c ****     \param[in]  none
 555:../Firmware/GD32VW55x_standard_peripheral/Source/gd32vw55x_fmc.c ****     \param[out] none
 556:../Firmware/GD32VW55x_standard_peripheral/Source/gd32vw55x_fmc.c ****     \retval     the option bytes USER value
 557:../Firmware/GD32VW55x_standard_peripheral/Source/gd32vw55x_fmc.c **** */
 558:../Firmware/GD32VW55x_standard_peripheral/Source/gd32vw55x_fmc.c **** uint32_t ob_user_get(void)
 559:../Firmware/GD32VW55x_standard_peripheral/Source/gd32vw55x_fmc.c **** {
 1425              		.loc 1 559 1
 1426              		.cfi_startproc
 1427 0000 4111     		addi	sp,sp,-16
 1428              		.cfi_def_cfa_offset 16
 1429 0002 22C6     		sw	s0,12(sp)
 1430              		.cfi_offset 8, -4
 1431 0004 0008     		addi	s0,sp,16
 1432              		.cfi_def_cfa 8, 0
 560:../Firmware/GD32VW55x_standard_peripheral/Source/gd32vw55x_fmc.c ****     /* return the FMC user option bytes value */
 561:../Firmware/GD32VW55x_standard_peripheral/Source/gd32vw55x_fmc.c ****     return (uint32_t) FMC_OBUSER;
 1433              		.loc 1 561 12
 1434 0006 B7270240 		li	a5,1073881088
 1435 000a 93874704 		addi	a5,a5,68
 1436 000e 9C43     		lw	a5,0(a5)
 562:../Firmware/GD32VW55x_standard_peripheral/Source/gd32vw55x_fmc.c **** }
 1437              		.loc 1 562 1
 1438 0010 3E85     		mv	a0,a5
 1439 0012 3244     		lw	s0,12(sp)
 1440              		.cfi_restore 8
 1441              		.cfi_def_cfa 2, 16
 1442 0014 4101     		addi	sp,sp,16
 1443              		.cfi_def_cfa_offset 0
 1444 0016 8280     		jr	ra
 1445              		.cfi_endproc
 1446              	.LFE370:
 1448              		.section	.text.ob_security_protection_flag_get,"ax",@progbits
 1449              		.align	1
 1450              		.globl	ob_security_protection_flag_get
 1452              	ob_security_protection_flag_get:
 1453              	.LFB371:
 563:../Firmware/GD32VW55x_standard_peripheral/Source/gd32vw55x_fmc.c **** 
 564:../Firmware/GD32VW55x_standard_peripheral/Source/gd32vw55x_fmc.c **** /*!
 565:../Firmware/GD32VW55x_standard_peripheral/Source/gd32vw55x_fmc.c ****     \brief      get the FMC option bytes security protection state
 566:../Firmware/GD32VW55x_standard_peripheral/Source/gd32vw55x_fmc.c ****     \param[in]  none
 567:../Firmware/GD32VW55x_standard_peripheral/Source/gd32vw55x_fmc.c ****     \param[out] none
 568:../Firmware/GD32VW55x_standard_peripheral/Source/gd32vw55x_fmc.c ****     \retval     FlagStatus: SET or RESET
 569:../Firmware/GD32VW55x_standard_peripheral/Source/gd32vw55x_fmc.c **** */
 570:../Firmware/GD32VW55x_standard_peripheral/Source/gd32vw55x_fmc.c **** FlagStatus ob_security_protection_flag_get(void)
 571:../Firmware/GD32VW55x_standard_peripheral/Source/gd32vw55x_fmc.c **** {
 1454              		.loc 1 571 1
 1455              		.cfi_startproc
 1456 0000 0111     		addi	sp,sp,-32
 1457              		.cfi_def_cfa_offset 32
 1458 0002 22CE     		sw	s0,28(sp)
 1459              		.cfi_offset 8, -4
 1460 0004 0010     		addi	s0,sp,32
 1461              		.cfi_def_cfa 8, 0
 572:../Firmware/GD32VW55x_standard_peripheral/Source/gd32vw55x_fmc.c ****     FlagStatus state = RESET;
 1462              		.loc 1 572 16
 1463 0006 232604FE 		sw	zero,-20(s0)
 573:../Firmware/GD32VW55x_standard_peripheral/Source/gd32vw55x_fmc.c **** 
 574:../Firmware/GD32VW55x_standard_peripheral/Source/gd32vw55x_fmc.c ****     if (FMC_OBSTAT & FMC_OBSTAT_SPCSTAT_MASK){
 1464              		.loc 1 574 9
 1465 000a B7270240 		li	a5,1073881088
 1466 000e F107     		addi	a5,a5,28
 1467 0010 9C43     		lw	a5,0(a5)
 1468              		.loc 1 574 20
 1469 0012 898B     		andi	a5,a5,2
 1470              		.loc 1 574 8
 1471 0014 89C7     		beq	a5,zero,.L65
 575:../Firmware/GD32VW55x_standard_peripheral/Source/gd32vw55x_fmc.c ****         state = SET;
 1472              		.loc 1 575 15
 1473 0016 8547     		li	a5,1
 1474 0018 2326F4FE 		sw	a5,-20(s0)
 1475 001c 19A0     		j	.L66
 1476              	.L65:
 576:../Firmware/GD32VW55x_standard_peripheral/Source/gd32vw55x_fmc.c ****     }else{
 577:../Firmware/GD32VW55x_standard_peripheral/Source/gd32vw55x_fmc.c ****         state = RESET;
 1477              		.loc 1 577 15
 1478 001e 232604FE 		sw	zero,-20(s0)
 1479              	.L66:
 578:../Firmware/GD32VW55x_standard_peripheral/Source/gd32vw55x_fmc.c ****     }
 579:../Firmware/GD32VW55x_standard_peripheral/Source/gd32vw55x_fmc.c **** 
 580:../Firmware/GD32VW55x_standard_peripheral/Source/gd32vw55x_fmc.c ****     /* return the state of corresponding FMC flag */
 581:../Firmware/GD32VW55x_standard_peripheral/Source/gd32vw55x_fmc.c ****     return state;
 1480              		.loc 1 581 12
 1481 0022 8327C4FE 		lw	a5,-20(s0)
 582:../Firmware/GD32VW55x_standard_peripheral/Source/gd32vw55x_fmc.c **** }
 1482              		.loc 1 582 1
 1483 0026 3E85     		mv	a0,a5
 1484 0028 7244     		lw	s0,28(sp)
 1485              		.cfi_restore 8
 1486              		.cfi_def_cfa 2, 32
 1487 002a 0561     		addi	sp,sp,32
 1488              		.cfi_def_cfa_offset 0
 1489 002c 8280     		jr	ra
 1490              		.cfi_endproc
 1491              	.LFE371:
 1493              		.section	.text.fmc_flag_get,"ax",@progbits
 1494              		.align	1
 1495              		.globl	fmc_flag_get
 1497              	fmc_flag_get:
 1498              	.LFB372:
 583:../Firmware/GD32VW55x_standard_peripheral/Source/gd32vw55x_fmc.c **** 
 584:../Firmware/GD32VW55x_standard_peripheral/Source/gd32vw55x_fmc.c **** /*!
 585:../Firmware/GD32VW55x_standard_peripheral/Source/gd32vw55x_fmc.c ****     \brief      get FMC flag status
 586:../Firmware/GD32VW55x_standard_peripheral/Source/gd32vw55x_fmc.c ****     \param[in]  flag: FMC flag
 587:../Firmware/GD32VW55x_standard_peripheral/Source/gd32vw55x_fmc.c ****                 only one parameter can be selected which is shown as below:
 588:../Firmware/GD32VW55x_standard_peripheral/Source/gd32vw55x_fmc.c ****       \arg        FMC_FLAG_BUSY: FMC busy flag
 589:../Firmware/GD32VW55x_standard_peripheral/Source/gd32vw55x_fmc.c ****       \arg        FMC_FLAG_WPERR: FMC erase/program protection error flag
 590:../Firmware/GD32VW55x_standard_peripheral/Source/gd32vw55x_fmc.c ****       \arg        FMC_FLAG_END: FMC end of operation flag
 591:../Firmware/GD32VW55x_standard_peripheral/Source/gd32vw55x_fmc.c ****     \param[out] none
 592:../Firmware/GD32VW55x_standard_peripheral/Source/gd32vw55x_fmc.c ****     \retval     FlagStatus: SET or RESET
 593:../Firmware/GD32VW55x_standard_peripheral/Source/gd32vw55x_fmc.c **** */
 594:../Firmware/GD32VW55x_standard_peripheral/Source/gd32vw55x_fmc.c **** FlagStatus fmc_flag_get(uint32_t flag)
 595:../Firmware/GD32VW55x_standard_peripheral/Source/gd32vw55x_fmc.c **** {
 1499              		.loc 1 595 1
 1500              		.cfi_startproc
 1501 0000 7971     		addi	sp,sp,-48
 1502              		.cfi_def_cfa_offset 48
 1503 0002 22D6     		sw	s0,44(sp)
 1504              		.cfi_offset 8, -4
 1505 0004 0018     		addi	s0,sp,48
 1506              		.cfi_def_cfa 8, 0
 1507 0006 232EA4FC 		sw	a0,-36(s0)
 596:../Firmware/GD32VW55x_standard_peripheral/Source/gd32vw55x_fmc.c ****     FlagStatus status = RESET;
 1508              		.loc 1 596 16
 1509 000a 232604FE 		sw	zero,-20(s0)
 597:../Firmware/GD32VW55x_standard_peripheral/Source/gd32vw55x_fmc.c **** 
 598:../Firmware/GD32VW55x_standard_peripheral/Source/gd32vw55x_fmc.c ****     if (FMC_STAT & flag){
 1510              		.loc 1 598 9
 1511 000e B7270240 		li	a5,1073881088
 1512 0012 B107     		addi	a5,a5,12
 1513 0014 9843     		lw	a4,0(a5)
 1514              		.loc 1 598 18
 1515 0016 8327C4FD 		lw	a5,-36(s0)
 1516 001a F98F     		and	a5,a4,a5
 1517              		.loc 1 598 8
 1518 001c 81C7     		beq	a5,zero,.L69
 599:../Firmware/GD32VW55x_standard_peripheral/Source/gd32vw55x_fmc.c ****         status = SET;
 1519              		.loc 1 599 16
 1520 001e 8547     		li	a5,1
 1521 0020 2326F4FE 		sw	a5,-20(s0)
 1522              	.L69:
 600:../Firmware/GD32VW55x_standard_peripheral/Source/gd32vw55x_fmc.c ****     }
 601:../Firmware/GD32VW55x_standard_peripheral/Source/gd32vw55x_fmc.c ****     /* return the state of corresponding FMC flag */
 602:../Firmware/GD32VW55x_standard_peripheral/Source/gd32vw55x_fmc.c ****     return status;
 1523              		.loc 1 602 12
 1524 0024 8327C4FE 		lw	a5,-20(s0)
 603:../Firmware/GD32VW55x_standard_peripheral/Source/gd32vw55x_fmc.c **** }
 1525              		.loc 1 603 1
 1526 0028 3E85     		mv	a0,a5
 1527 002a 3254     		lw	s0,44(sp)
 1528              		.cfi_restore 8
 1529              		.cfi_def_cfa 2, 48
 1530 002c 4561     		addi	sp,sp,48
 1531              		.cfi_def_cfa_offset 0
 1532 002e 8280     		jr	ra
 1533              		.cfi_endproc
 1534              	.LFE372:
 1536              		.section	.text.fmc_flag_clear,"ax",@progbits
 1537              		.align	1
 1538              		.globl	fmc_flag_clear
 1540              	fmc_flag_clear:
 1541              	.LFB373:
 604:../Firmware/GD32VW55x_standard_peripheral/Source/gd32vw55x_fmc.c **** 
 605:../Firmware/GD32VW55x_standard_peripheral/Source/gd32vw55x_fmc.c **** /*!
 606:../Firmware/GD32VW55x_standard_peripheral/Source/gd32vw55x_fmc.c ****     \brief      clear the FMC flag
 607:../Firmware/GD32VW55x_standard_peripheral/Source/gd32vw55x_fmc.c ****     \param[in]  flag: FMC flag
 608:../Firmware/GD32VW55x_standard_peripheral/Source/gd32vw55x_fmc.c ****                 only one parameter can be selected which is shown as below:
 609:../Firmware/GD32VW55x_standard_peripheral/Source/gd32vw55x_fmc.c ****       \arg        FMC_FLAG_WPERR: FMC erase/program protection error flag
 610:../Firmware/GD32VW55x_standard_peripheral/Source/gd32vw55x_fmc.c ****       \arg        FMC_FLAG_END: FMC end of operation flag
 611:../Firmware/GD32VW55x_standard_peripheral/Source/gd32vw55x_fmc.c ****     \param[out] none
 612:../Firmware/GD32VW55x_standard_peripheral/Source/gd32vw55x_fmc.c ****     \retval     none
 613:../Firmware/GD32VW55x_standard_peripheral/Source/gd32vw55x_fmc.c **** */
 614:../Firmware/GD32VW55x_standard_peripheral/Source/gd32vw55x_fmc.c **** void fmc_flag_clear(uint32_t flag)
 615:../Firmware/GD32VW55x_standard_peripheral/Source/gd32vw55x_fmc.c **** {
 1542              		.loc 1 615 1
 1543              		.cfi_startproc
 1544 0000 0111     		addi	sp,sp,-32
 1545              		.cfi_def_cfa_offset 32
 1546 0002 22CE     		sw	s0,28(sp)
 1547              		.cfi_offset 8, -4
 1548 0004 0010     		addi	s0,sp,32
 1549              		.cfi_def_cfa 8, 0
 1550 0006 2326A4FE 		sw	a0,-20(s0)
 616:../Firmware/GD32VW55x_standard_peripheral/Source/gd32vw55x_fmc.c ****     /* clear the flags */
 617:../Firmware/GD32VW55x_standard_peripheral/Source/gd32vw55x_fmc.c ****     FMC_STAT = flag;
 1551              		.loc 1 617 5
 1552 000a B7270240 		li	a5,1073881088
 1553 000e B107     		addi	a5,a5,12
 1554              		.loc 1 617 14
 1555 0010 0327C4FE 		lw	a4,-20(s0)
 1556 0014 98C3     		sw	a4,0(a5)
 618:../Firmware/GD32VW55x_standard_peripheral/Source/gd32vw55x_fmc.c **** }
 1557              		.loc 1 618 1
 1558 0016 0100     		nop
 1559 0018 7244     		lw	s0,28(sp)
 1560              		.cfi_restore 8
 1561              		.cfi_def_cfa 2, 32
 1562 001a 0561     		addi	sp,sp,32
 1563              		.cfi_def_cfa_offset 0
 1564 001c 8280     		jr	ra
 1565              		.cfi_endproc
 1566              	.LFE373:
 1568              		.section	.text.fmc_interrupt_enable,"ax",@progbits
 1569              		.align	1
 1570              		.globl	fmc_interrupt_enable
 1572              	fmc_interrupt_enable:
 1573              	.LFB374:
 619:../Firmware/GD32VW55x_standard_peripheral/Source/gd32vw55x_fmc.c **** 
 620:../Firmware/GD32VW55x_standard_peripheral/Source/gd32vw55x_fmc.c **** /*!
 621:../Firmware/GD32VW55x_standard_peripheral/Source/gd32vw55x_fmc.c ****     \brief      enable FMC interrupt
 622:../Firmware/GD32VW55x_standard_peripheral/Source/gd32vw55x_fmc.c ****     \param[in]  interrupt: the FMC interrupt
 623:../Firmware/GD32VW55x_standard_peripheral/Source/gd32vw55x_fmc.c ****                 only one parameter can be selected which is shown as below:
 624:../Firmware/GD32VW55x_standard_peripheral/Source/gd32vw55x_fmc.c ****       \arg        FMC_INT_END: FMC end of operation interrupt
 625:../Firmware/GD32VW55x_standard_peripheral/Source/gd32vw55x_fmc.c ****       \arg        FMC_INT_ERR: FMC error interrupt
 626:../Firmware/GD32VW55x_standard_peripheral/Source/gd32vw55x_fmc.c ****     \param[out] none
 627:../Firmware/GD32VW55x_standard_peripheral/Source/gd32vw55x_fmc.c ****     \retval     none
 628:../Firmware/GD32VW55x_standard_peripheral/Source/gd32vw55x_fmc.c **** */
 629:../Firmware/GD32VW55x_standard_peripheral/Source/gd32vw55x_fmc.c **** void fmc_interrupt_enable(uint32_t interrupt)
 630:../Firmware/GD32VW55x_standard_peripheral/Source/gd32vw55x_fmc.c **** {
 1574              		.loc 1 630 1
 1575              		.cfi_startproc
 1576 0000 0111     		addi	sp,sp,-32
 1577              		.cfi_def_cfa_offset 32
 1578 0002 22CE     		sw	s0,28(sp)
 1579              		.cfi_offset 8, -4
 1580 0004 0010     		addi	s0,sp,32
 1581              		.cfi_def_cfa 8, 0
 1582 0006 2326A4FE 		sw	a0,-20(s0)
 631:../Firmware/GD32VW55x_standard_peripheral/Source/gd32vw55x_fmc.c ****     FMC_CTL |= interrupt;
 1583              		.loc 1 631 13
 1584 000a B7270240 		li	a5,1073881088
 1585 000e C107     		addi	a5,a5,16
 1586 0010 9443     		lw	a3,0(a5)
 1587 0012 B7270240 		li	a5,1073881088
 1588 0016 C107     		addi	a5,a5,16
 1589 0018 0327C4FE 		lw	a4,-20(s0)
 1590 001c 558F     		or	a4,a3,a4
 1591 001e 98C3     		sw	a4,0(a5)
 632:../Firmware/GD32VW55x_standard_peripheral/Source/gd32vw55x_fmc.c **** }
 1592              		.loc 1 632 1
 1593 0020 0100     		nop
 1594 0022 7244     		lw	s0,28(sp)
 1595              		.cfi_restore 8
 1596              		.cfi_def_cfa 2, 32
 1597 0024 0561     		addi	sp,sp,32
 1598              		.cfi_def_cfa_offset 0
 1599 0026 8280     		jr	ra
 1600              		.cfi_endproc
 1601              	.LFE374:
 1603              		.section	.text.fmc_interrupt_disable,"ax",@progbits
 1604              		.align	1
 1605              		.globl	fmc_interrupt_disable
 1607              	fmc_interrupt_disable:
 1608              	.LFB375:
 633:../Firmware/GD32VW55x_standard_peripheral/Source/gd32vw55x_fmc.c **** 
 634:../Firmware/GD32VW55x_standard_peripheral/Source/gd32vw55x_fmc.c **** /*!
 635:../Firmware/GD32VW55x_standard_peripheral/Source/gd32vw55x_fmc.c ****     \brief      disable FMC interrupt
 636:../Firmware/GD32VW55x_standard_peripheral/Source/gd32vw55x_fmc.c ****     \param[in]  interrupt: the FMC interrupt
 637:../Firmware/GD32VW55x_standard_peripheral/Source/gd32vw55x_fmc.c ****                 only one parameter can be selected which is shown as below:
 638:../Firmware/GD32VW55x_standard_peripheral/Source/gd32vw55x_fmc.c ****       \arg        FMC_INT_END: FMC end of operation interrupt
 639:../Firmware/GD32VW55x_standard_peripheral/Source/gd32vw55x_fmc.c ****       \arg        FMC_INT_ERR: FMC error interrupt
 640:../Firmware/GD32VW55x_standard_peripheral/Source/gd32vw55x_fmc.c ****     \param[out] none
 641:../Firmware/GD32VW55x_standard_peripheral/Source/gd32vw55x_fmc.c ****     \retval     none
 642:../Firmware/GD32VW55x_standard_peripheral/Source/gd32vw55x_fmc.c **** */
 643:../Firmware/GD32VW55x_standard_peripheral/Source/gd32vw55x_fmc.c **** void fmc_interrupt_disable(uint32_t interrupt)
 644:../Firmware/GD32VW55x_standard_peripheral/Source/gd32vw55x_fmc.c **** {
 1609              		.loc 1 644 1
 1610              		.cfi_startproc
 1611 0000 0111     		addi	sp,sp,-32
 1612              		.cfi_def_cfa_offset 32
 1613 0002 22CE     		sw	s0,28(sp)
 1614              		.cfi_offset 8, -4
 1615 0004 0010     		addi	s0,sp,32
 1616              		.cfi_def_cfa 8, 0
 1617 0006 2326A4FE 		sw	a0,-20(s0)
 645:../Firmware/GD32VW55x_standard_peripheral/Source/gd32vw55x_fmc.c ****     FMC_CTL &= ~(uint32_t) interrupt;
 1618              		.loc 1 645 13
 1619 000a B7270240 		li	a5,1073881088
 1620 000e C107     		addi	a5,a5,16
 1621 0010 9443     		lw	a3,0(a5)
 1622              		.loc 1 645 16
 1623 0012 8327C4FE 		lw	a5,-20(s0)
 1624 0016 13C7F7FF 		not	a4,a5
 1625              		.loc 1 645 13
 1626 001a B7270240 		li	a5,1073881088
 1627 001e C107     		addi	a5,a5,16
 1628 0020 758F     		and	a4,a3,a4
 1629 0022 98C3     		sw	a4,0(a5)
 646:../Firmware/GD32VW55x_standard_peripheral/Source/gd32vw55x_fmc.c **** }
 1630              		.loc 1 646 1
 1631 0024 0100     		nop
 1632 0026 7244     		lw	s0,28(sp)
 1633              		.cfi_restore 8
 1634              		.cfi_def_cfa 2, 32
 1635 0028 0561     		addi	sp,sp,32
 1636              		.cfi_def_cfa_offset 0
 1637 002a 8280     		jr	ra
 1638              		.cfi_endproc
 1639              	.LFE375:
 1641              		.section	.text.fmc_interrupt_flag_get,"ax",@progbits
 1642              		.align	1
 1643              		.globl	fmc_interrupt_flag_get
 1645              	fmc_interrupt_flag_get:
 1646              	.LFB376:
 647:../Firmware/GD32VW55x_standard_peripheral/Source/gd32vw55x_fmc.c **** 
 648:../Firmware/GD32VW55x_standard_peripheral/Source/gd32vw55x_fmc.c **** /*!
 649:../Firmware/GD32VW55x_standard_peripheral/Source/gd32vw55x_fmc.c ****     \brief      get FMC interrupt flag
 650:../Firmware/GD32VW55x_standard_peripheral/Source/gd32vw55x_fmc.c ****     \param[in]  flag: FMC interrupt flag
 651:../Firmware/GD32VW55x_standard_peripheral/Source/gd32vw55x_fmc.c ****                 only one parameter can be selected which is shown as below:
 652:../Firmware/GD32VW55x_standard_peripheral/Source/gd32vw55x_fmc.c ****       \arg        FMC_INT_FLAG_WPERR: FMC erase/program protection error interrupt flag
 653:../Firmware/GD32VW55x_standard_peripheral/Source/gd32vw55x_fmc.c ****       \arg        FMC_INT_FLAG_END: FMC end of operation interrupt flag
 654:../Firmware/GD32VW55x_standard_peripheral/Source/gd32vw55x_fmc.c ****     \param[out] none
 655:../Firmware/GD32VW55x_standard_peripheral/Source/gd32vw55x_fmc.c ****     \retval     FlagStatus: SET or RESET
 656:../Firmware/GD32VW55x_standard_peripheral/Source/gd32vw55x_fmc.c **** */
 657:../Firmware/GD32VW55x_standard_peripheral/Source/gd32vw55x_fmc.c **** FlagStatus fmc_interrupt_flag_get(uint32_t flag)
 658:../Firmware/GD32VW55x_standard_peripheral/Source/gd32vw55x_fmc.c **** {
 1647              		.loc 1 658 1
 1648              		.cfi_startproc
 1649 0000 7971     		addi	sp,sp,-48
 1650              		.cfi_def_cfa_offset 48
 1651 0002 22D6     		sw	s0,44(sp)
 1652              		.cfi_offset 8, -4
 1653 0004 0018     		addi	s0,sp,48
 1654              		.cfi_def_cfa 8, 0
 1655 0006 232EA4FC 		sw	a0,-36(s0)
 659:../Firmware/GD32VW55x_standard_peripheral/Source/gd32vw55x_fmc.c ****     FlagStatus status = RESET;
 1656              		.loc 1 659 16
 1657 000a 232604FE 		sw	zero,-20(s0)
 660:../Firmware/GD32VW55x_standard_peripheral/Source/gd32vw55x_fmc.c **** 
 661:../Firmware/GD32VW55x_standard_peripheral/Source/gd32vw55x_fmc.c ****     if(FMC_STAT & flag){
 1658              		.loc 1 661 8
 1659 000e B7270240 		li	a5,1073881088
 1660 0012 B107     		addi	a5,a5,12
 1661 0014 9843     		lw	a4,0(a5)
 1662              		.loc 1 661 17
 1663 0016 8327C4FD 		lw	a5,-36(s0)
 1664 001a F98F     		and	a5,a4,a5
 1665              		.loc 1 661 7
 1666 001c 81C7     		beq	a5,zero,.L75
 662:../Firmware/GD32VW55x_standard_peripheral/Source/gd32vw55x_fmc.c ****         status = SET;
 1667              		.loc 1 662 16
 1668 001e 8547     		li	a5,1
 1669 0020 2326F4FE 		sw	a5,-20(s0)
 1670              	.L75:
 663:../Firmware/GD32VW55x_standard_peripheral/Source/gd32vw55x_fmc.c ****     }
 664:../Firmware/GD32VW55x_standard_peripheral/Source/gd32vw55x_fmc.c ****     /* return the state of corresponding FMC flag */
 665:../Firmware/GD32VW55x_standard_peripheral/Source/gd32vw55x_fmc.c ****     return status;
 1671              		.loc 1 665 12
 1672 0024 8327C4FE 		lw	a5,-20(s0)
 666:../Firmware/GD32VW55x_standard_peripheral/Source/gd32vw55x_fmc.c **** }
 1673              		.loc 1 666 1
 1674 0028 3E85     		mv	a0,a5
 1675 002a 3254     		lw	s0,44(sp)
 1676              		.cfi_restore 8
 1677              		.cfi_def_cfa 2, 48
 1678 002c 4561     		addi	sp,sp,48
 1679              		.cfi_def_cfa_offset 0
 1680 002e 8280     		jr	ra
 1681              		.cfi_endproc
 1682              	.LFE376:
 1684              		.section	.text.fmc_interrupt_flag_clear,"ax",@progbits
 1685              		.align	1
 1686              		.globl	fmc_interrupt_flag_clear
 1688              	fmc_interrupt_flag_clear:
 1689              	.LFB377:
 667:../Firmware/GD32VW55x_standard_peripheral/Source/gd32vw55x_fmc.c **** 
 668:../Firmware/GD32VW55x_standard_peripheral/Source/gd32vw55x_fmc.c **** /*!
 669:../Firmware/GD32VW55x_standard_peripheral/Source/gd32vw55x_fmc.c ****     \brief      clear FMC interrupt flag
 670:../Firmware/GD32VW55x_standard_peripheral/Source/gd32vw55x_fmc.c ****     \param[in]  flag: FMC interrupt flag
 671:../Firmware/GD32VW55x_standard_peripheral/Source/gd32vw55x_fmc.c ****                 only one parameter can be selected which is shown as below:
 672:../Firmware/GD32VW55x_standard_peripheral/Source/gd32vw55x_fmc.c ****       \arg        FMC_INT_FLAG_WPERR: FMC erase/program protection error interrupt flag
 673:../Firmware/GD32VW55x_standard_peripheral/Source/gd32vw55x_fmc.c ****       \arg        FMC_INT_FLAG_END: FMC end of operation interrupt flag
 674:../Firmware/GD32VW55x_standard_peripheral/Source/gd32vw55x_fmc.c ****     \param[out] none
 675:../Firmware/GD32VW55x_standard_peripheral/Source/gd32vw55x_fmc.c ****     \retval     none
 676:../Firmware/GD32VW55x_standard_peripheral/Source/gd32vw55x_fmc.c **** */
 677:../Firmware/GD32VW55x_standard_peripheral/Source/gd32vw55x_fmc.c **** void fmc_interrupt_flag_clear(uint32_t flag)
 678:../Firmware/GD32VW55x_standard_peripheral/Source/gd32vw55x_fmc.c **** {
 1690              		.loc 1 678 1
 1691              		.cfi_startproc
 1692 0000 0111     		addi	sp,sp,-32
 1693              		.cfi_def_cfa_offset 32
 1694 0002 22CE     		sw	s0,28(sp)
 1695              		.cfi_offset 8, -4
 1696 0004 0010     		addi	s0,sp,32
 1697              		.cfi_def_cfa 8, 0
 1698 0006 2326A4FE 		sw	a0,-20(s0)
 679:../Firmware/GD32VW55x_standard_peripheral/Source/gd32vw55x_fmc.c ****     /* clear the flag */
 680:../Firmware/GD32VW55x_standard_peripheral/Source/gd32vw55x_fmc.c ****     FMC_STAT = flag;
 1699              		.loc 1 680 5
 1700 000a B7270240 		li	a5,1073881088
 1701 000e B107     		addi	a5,a5,12
 1702              		.loc 1 680 14
 1703 0010 0327C4FE 		lw	a4,-20(s0)
 1704 0014 98C3     		sw	a4,0(a5)
 681:../Firmware/GD32VW55x_standard_peripheral/Source/gd32vw55x_fmc.c **** }
 1705              		.loc 1 681 1
 1706 0016 0100     		nop
 1707 0018 7244     		lw	s0,28(sp)
 1708              		.cfi_restore 8
 1709              		.cfi_def_cfa 2, 32
 1710 001a 0561     		addi	sp,sp,32
 1711              		.cfi_def_cfa_offset 0
 1712 001c 8280     		jr	ra
 1713              		.cfi_endproc
 1714              	.LFE377:
 1716              		.section	.text.fmc_state_get,"ax",@progbits
 1717              		.align	1
 1719              	fmc_state_get:
 1720              	.LFB378:
 682:../Firmware/GD32VW55x_standard_peripheral/Source/gd32vw55x_fmc.c **** 
 683:../Firmware/GD32VW55x_standard_peripheral/Source/gd32vw55x_fmc.c **** /*!
 684:../Firmware/GD32VW55x_standard_peripheral/Source/gd32vw55x_fmc.c ****     \brief      get the FMC state
 685:../Firmware/GD32VW55x_standard_peripheral/Source/gd32vw55x_fmc.c ****     \param[in]  none
 686:../Firmware/GD32VW55x_standard_peripheral/Source/gd32vw55x_fmc.c ****     \param[out] none
 687:../Firmware/GD32VW55x_standard_peripheral/Source/gd32vw55x_fmc.c ****     \retval     state of FMC
 688:../Firmware/GD32VW55x_standard_peripheral/Source/gd32vw55x_fmc.c ****       \arg        FMC_READY: the operation has been completed
 689:../Firmware/GD32VW55x_standard_peripheral/Source/gd32vw55x_fmc.c ****       \arg        FMC_BUSY: the operation is in progress
 690:../Firmware/GD32VW55x_standard_peripheral/Source/gd32vw55x_fmc.c ****       \arg        FMC_WPERR: erase/program protection error
 691:../Firmware/GD32VW55x_standard_peripheral/Source/gd32vw55x_fmc.c **** */
 692:../Firmware/GD32VW55x_standard_peripheral/Source/gd32vw55x_fmc.c **** static fmc_state_enum fmc_state_get(void)
 693:../Firmware/GD32VW55x_standard_peripheral/Source/gd32vw55x_fmc.c **** {
 1721              		.loc 1 693 1
 1722              		.cfi_startproc
 1723 0000 0111     		addi	sp,sp,-32
 1724              		.cfi_def_cfa_offset 32
 1725 0002 22CE     		sw	s0,28(sp)
 1726              		.cfi_offset 8, -4
 1727 0004 0010     		addi	s0,sp,32
 1728              		.cfi_def_cfa 8, 0
 694:../Firmware/GD32VW55x_standard_peripheral/Source/gd32vw55x_fmc.c ****     fmc_state_enum fmc_state = FMC_READY;
 1729              		.loc 1 694 20
 1730 0006 232604FE 		sw	zero,-20(s0)
 695:../Firmware/GD32VW55x_standard_peripheral/Source/gd32vw55x_fmc.c **** 
 696:../Firmware/GD32VW55x_standard_peripheral/Source/gd32vw55x_fmc.c ****     if((uint32_t) 0x00U != (FMC_STAT & FMC_STAT_BUSY)){
 1731              		.loc 1 696 29
 1732 000a B7270240 		li	a5,1073881088
 1733 000e B107     		addi	a5,a5,12
 1734 0010 9C43     		lw	a5,0(a5)
 1735              		.loc 1 696 38
 1736 0012 858B     		andi	a5,a5,1
 1737              		.loc 1 696 7
 1738 0014 89C7     		beq	a5,zero,.L79
 697:../Firmware/GD32VW55x_standard_peripheral/Source/gd32vw55x_fmc.c ****         fmc_state = FMC_BUSY;
 1739              		.loc 1 697 19
 1740 0016 8547     		li	a5,1
 1741 0018 2326F4FE 		sw	a5,-20(s0)
 1742 001c 11A8     		j	.L80
 1743              	.L79:
 698:../Firmware/GD32VW55x_standard_peripheral/Source/gd32vw55x_fmc.c ****     }else{
 699:../Firmware/GD32VW55x_standard_peripheral/Source/gd32vw55x_fmc.c ****         if((uint32_t) 0x00U != (FMC_STAT & FMC_STAT_WPERR)){
 1744              		.loc 1 699 33
 1745 001e B7270240 		li	a5,1073881088
 1746 0022 B107     		addi	a5,a5,12
 1747 0024 9C43     		lw	a5,0(a5)
 1748              		.loc 1 699 42
 1749 0026 C18B     		andi	a5,a5,16
 1750              		.loc 1 699 11
 1751 0028 81C7     		beq	a5,zero,.L80
 700:../Firmware/GD32VW55x_standard_peripheral/Source/gd32vw55x_fmc.c ****             fmc_state = FMC_WPERR;
 1752              		.loc 1 700 23
 1753 002a 8947     		li	a5,2
 1754 002c 2326F4FE 		sw	a5,-20(s0)
 1755              	.L80:
 701:../Firmware/GD32VW55x_standard_peripheral/Source/gd32vw55x_fmc.c ****         }
 702:../Firmware/GD32VW55x_standard_peripheral/Source/gd32vw55x_fmc.c ****     }
 703:../Firmware/GD32VW55x_standard_peripheral/Source/gd32vw55x_fmc.c ****     /* return the FMC state */
 704:../Firmware/GD32VW55x_standard_peripheral/Source/gd32vw55x_fmc.c ****     return fmc_state;
 1756              		.loc 1 704 12
 1757 0030 8327C4FE 		lw	a5,-20(s0)
 705:../Firmware/GD32VW55x_standard_peripheral/Source/gd32vw55x_fmc.c **** }
 1758              		.loc 1 705 1
 1759 0034 3E85     		mv	a0,a5
 1760 0036 7244     		lw	s0,28(sp)
 1761              		.cfi_restore 8
 1762              		.cfi_def_cfa 2, 32
 1763 0038 0561     		addi	sp,sp,32
 1764              		.cfi_def_cfa_offset 0
 1765 003a 8280     		jr	ra
 1766              		.cfi_endproc
 1767              	.LFE378:
 1769              		.section	.text.fmc_ready_wait,"ax",@progbits
 1770              		.align	1
 1772              	fmc_ready_wait:
 1773              	.LFB379:
 706:../Firmware/GD32VW55x_standard_peripheral/Source/gd32vw55x_fmc.c **** 
 707:../Firmware/GD32VW55x_standard_peripheral/Source/gd32vw55x_fmc.c **** /*!
 708:../Firmware/GD32VW55x_standard_peripheral/Source/gd32vw55x_fmc.c ****     \brief      check whether FMC is ready or not
 709:../Firmware/GD32VW55x_standard_peripheral/Source/gd32vw55x_fmc.c ****     \param[in]  timeout: timeout count
 710:../Firmware/GD32VW55x_standard_peripheral/Source/gd32vw55x_fmc.c ****     \param[out] none
 711:../Firmware/GD32VW55x_standard_peripheral/Source/gd32vw55x_fmc.c ****     \retval     state of FMC
 712:../Firmware/GD32VW55x_standard_peripheral/Source/gd32vw55x_fmc.c ****       \arg        FMC_READY: the operation has been completed
 713:../Firmware/GD32VW55x_standard_peripheral/Source/gd32vw55x_fmc.c ****       \arg        FMC_WPERR: erase/program protection error
 714:../Firmware/GD32VW55x_standard_peripheral/Source/gd32vw55x_fmc.c ****       \arg        FMC_TOERR: timeout error
 715:../Firmware/GD32VW55x_standard_peripheral/Source/gd32vw55x_fmc.c **** */
 716:../Firmware/GD32VW55x_standard_peripheral/Source/gd32vw55x_fmc.c **** static fmc_state_enum fmc_ready_wait(uint32_t timeout)
 717:../Firmware/GD32VW55x_standard_peripheral/Source/gd32vw55x_fmc.c **** {
 1774              		.loc 1 717 1
 1775              		.cfi_startproc
 1776 0000 7971     		addi	sp,sp,-48
 1777              		.cfi_def_cfa_offset 48
 1778 0002 06D6     		sw	ra,44(sp)
 1779 0004 22D4     		sw	s0,40(sp)
 1780              		.cfi_offset 1, -4
 1781              		.cfi_offset 8, -8
 1782 0006 0018     		addi	s0,sp,48
 1783              		.cfi_def_cfa 8, 0
 1784 0008 232EA4FC 		sw	a0,-36(s0)
 718:../Firmware/GD32VW55x_standard_peripheral/Source/gd32vw55x_fmc.c ****     fmc_state_enum fmc_state = FMC_BUSY;
 1785              		.loc 1 718 20
 1786 000c 8547     		li	a5,1
 1787 000e 2326F4FE 		sw	a5,-20(s0)
 1788              	.L84:
 719:../Firmware/GD32VW55x_standard_peripheral/Source/gd32vw55x_fmc.c **** 
 720:../Firmware/GD32VW55x_standard_peripheral/Source/gd32vw55x_fmc.c ****     /* wait for FMC ready */
 721:../Firmware/GD32VW55x_standard_peripheral/Source/gd32vw55x_fmc.c ****     do{
 722:../Firmware/GD32VW55x_standard_peripheral/Source/gd32vw55x_fmc.c ****         /* get FMC state */
 723:../Firmware/GD32VW55x_standard_peripheral/Source/gd32vw55x_fmc.c ****         fmc_state = fmc_state_get();
 1789              		.loc 1 723 21 discriminator 2
 1790 0012 97000000 		call	fmc_state_get
 1790      E7800000 
 1791 001a 2326A4FE 		sw	a0,-20(s0)
 724:../Firmware/GD32VW55x_standard_peripheral/Source/gd32vw55x_fmc.c ****         timeout--;
 1792              		.loc 1 724 16 discriminator 2
 1793 001e 8327C4FD 		lw	a5,-36(s0)
 1794 0022 FD17     		addi	a5,a5,-1
 1795 0024 232EF4FC 		sw	a5,-36(s0)
 725:../Firmware/GD32VW55x_standard_peripheral/Source/gd32vw55x_fmc.c ****     }while((FMC_BUSY == fmc_state) && (0x00U != timeout));
 1796              		.loc 1 725 5 discriminator 2
 1797 0028 0327C4FE 		lw	a4,-20(s0)
 1798 002c 8547     		li	a5,1
 1799 002e 6315F700 		bne	a4,a5,.L83
 1800              		.loc 1 725 36 discriminator 1
 1801 0032 8327C4FD 		lw	a5,-36(s0)
 1802 0036 F1FF     		bne	a5,zero,.L84
 1803              	.L83:
 726:../Firmware/GD32VW55x_standard_peripheral/Source/gd32vw55x_fmc.c **** 
 727:../Firmware/GD32VW55x_standard_peripheral/Source/gd32vw55x_fmc.c ****     if (FMC_BUSY == fmc_state){
 1804              		.loc 1 727 8
 1805 0038 0327C4FE 		lw	a4,-20(s0)
 1806 003c 8547     		li	a5,1
 1807 003e 6315F700 		bne	a4,a5,.L85
 728:../Firmware/GD32VW55x_standard_peripheral/Source/gd32vw55x_fmc.c ****         fmc_state = FMC_TOERR;
 1808              		.loc 1 728 19
 1809 0042 8D47     		li	a5,3
 1810 0044 2326F4FE 		sw	a5,-20(s0)
 1811              	.L85:
 729:../Firmware/GD32VW55x_standard_peripheral/Source/gd32vw55x_fmc.c ****     }
 730:../Firmware/GD32VW55x_standard_peripheral/Source/gd32vw55x_fmc.c **** 
 731:../Firmware/GD32VW55x_standard_peripheral/Source/gd32vw55x_fmc.c ****     /* return the FMC state */
 732:../Firmware/GD32VW55x_standard_peripheral/Source/gd32vw55x_fmc.c ****     return fmc_state;
 1812              		.loc 1 732 12
 1813 0048 8327C4FE 		lw	a5,-20(s0)
 733:../Firmware/GD32VW55x_standard_peripheral/Source/gd32vw55x_fmc.c **** }
 1814              		.loc 1 733 1
 1815 004c 3E85     		mv	a0,a5
 1816 004e B250     		lw	ra,44(sp)
 1817              		.cfi_restore 1
 1818 0050 2254     		lw	s0,40(sp)
 1819              		.cfi_restore 8
 1820              		.cfi_def_cfa 2, 48
 1821 0052 4561     		addi	sp,sp,48
 1822              		.cfi_def_cfa_offset 0
 1823 0054 8280     		jr	ra
 1824              		.cfi_endproc
 1825              	.LFE379:
 1827              		.text
 1828              	.Letext0:
 1829              		.file 2 "e:\\gd32\\gd32embeddedbuilder_v1.5.2.30854\\tools\\nuclei_riscv_newlibc_prebuilt_win32_20
 1830              		.file 3 "e:\\gd32\\gd32embeddedbuilder_v1.5.2.30854\\tools\\nuclei_riscv_newlibc_prebuilt_win32_20
 1831              		.file 4 "../Firmware/GD32VW55x_standard_peripheral/gd32vw55x.h"
 1832              		.file 5 "../Firmware/GD32VW55x_standard_peripheral/Include/gd32vw55x_fmc.h"