   1              		.file	"gd32vw55x_eclic.c"
   2              		.option nopic
   3              		.attribute arch, "rv32i2p0_m2p0_a2p0_c2p0"
   4              		.attribute unaligned_access, 0
   5              		.attribute stack_align, 16
   6              		.text
   7              	.Ltext0:
   8              		.cfi_sections	.debug_frame
   9              		.section	.text.eclic_global_interrupt_enable,"ax",@progbits
  10              		.align	1
  11              		.globl	eclic_global_interrupt_enable
  13              	eclic_global_interrupt_enable:
  14              	.LFB347:
  15              		.file 1 "../Firmware/GD32VW55x_standard_peripheral/Source/gd32vw55x_eclic.c"
   1:../Firmware/GD32VW55x_standard_peripheral/Source/gd32vw55x_eclic.c **** /*!
   2:../Firmware/GD32VW55x_standard_peripheral/Source/gd32vw55x_eclic.c ****     \file    gd32vw55x_eclic.c
   3:../Firmware/GD32VW55x_standard_peripheral/Source/gd32vw55x_eclic.c ****     \brief   ECLIC(Enhancement Core-Local Interrupt Controller) driver
   4:../Firmware/GD32VW55x_standard_peripheral/Source/gd32vw55x_eclic.c **** 
   5:../Firmware/GD32VW55x_standard_peripheral/Source/gd32vw55x_eclic.c ****     \version 2025-01-16, V1.4.0, firmware for GD32VW55x
   6:../Firmware/GD32VW55x_standard_peripheral/Source/gd32vw55x_eclic.c **** */
   7:../Firmware/GD32VW55x_standard_peripheral/Source/gd32vw55x_eclic.c **** 
   8:../Firmware/GD32VW55x_standard_peripheral/Source/gd32vw55x_eclic.c **** /*
   9:../Firmware/GD32VW55x_standard_peripheral/Source/gd32vw55x_eclic.c ****     Copyright (c) 2025, GigaDevice Semiconductor Inc.
  10:../Firmware/GD32VW55x_standard_peripheral/Source/gd32vw55x_eclic.c **** 
  11:../Firmware/GD32VW55x_standard_peripheral/Source/gd32vw55x_eclic.c ****     Redistribution and use in source and binary forms, with or without modification,
  12:../Firmware/GD32VW55x_standard_peripheral/Source/gd32vw55x_eclic.c **** are permitted provided that the following conditions are met:
  13:../Firmware/GD32VW55x_standard_peripheral/Source/gd32vw55x_eclic.c **** 
  14:../Firmware/GD32VW55x_standard_peripheral/Source/gd32vw55x_eclic.c ****     1. Redistributions of source code must retain the above copyright notice, this
  15:../Firmware/GD32VW55x_standard_peripheral/Source/gd32vw55x_eclic.c ****        list of conditions and the following disclaimer.
  16:../Firmware/GD32VW55x_standard_peripheral/Source/gd32vw55x_eclic.c ****     2. Redistributions in binary form must reproduce the above copyright notice,
  17:../Firmware/GD32VW55x_standard_peripheral/Source/gd32vw55x_eclic.c ****        this list of conditions and the following disclaimer in the documentation
  18:../Firmware/GD32VW55x_standard_peripheral/Source/gd32vw55x_eclic.c ****        and/or other materials provided with the distribution.
  19:../Firmware/GD32VW55x_standard_peripheral/Source/gd32vw55x_eclic.c ****     3. Neither the name of the copyright holder nor the names of its contributors
  20:../Firmware/GD32VW55x_standard_peripheral/Source/gd32vw55x_eclic.c ****        may be used to endorse or promote products derived from this software without
  21:../Firmware/GD32VW55x_standard_peripheral/Source/gd32vw55x_eclic.c ****        specific prior written permission.
  22:../Firmware/GD32VW55x_standard_peripheral/Source/gd32vw55x_eclic.c **** 
  23:../Firmware/GD32VW55x_standard_peripheral/Source/gd32vw55x_eclic.c ****     THIS SOFTWARE IS PROVIDED BY THE COPYRIGHT HOLDERS AND CONTRIBUTORS "AS IS"
  24:../Firmware/GD32VW55x_standard_peripheral/Source/gd32vw55x_eclic.c **** AND ANY EXPRESS OR IMPLIED WARRANTIES, INCLUDING, BUT NOT LIMITED TO, THE IMPLIED
  25:../Firmware/GD32VW55x_standard_peripheral/Source/gd32vw55x_eclic.c **** WARRANTIES OF MERCHANTABILITY AND FITNESS FOR A PARTICULAR PURPOSE ARE DISCLAIMED.
  26:../Firmware/GD32VW55x_standard_peripheral/Source/gd32vw55x_eclic.c **** IN NO EVENT SHALL THE COPYRIGHT HOLDER OR CONTRIBUTORS BE LIABLE FOR ANY DIRECT,
  27:../Firmware/GD32VW55x_standard_peripheral/Source/gd32vw55x_eclic.c **** INDIRECT, INCIDENTAL, SPECIAL, EXEMPLARY, OR CONSEQUENTIAL DAMAGES (INCLUDING, BUT
  28:../Firmware/GD32VW55x_standard_peripheral/Source/gd32vw55x_eclic.c **** NOT LIMITED TO, PROCUREMENT OF SUBSTITUTE GOODS OR SERVICES; LOSS OF USE, DATA, OR
  29:../Firmware/GD32VW55x_standard_peripheral/Source/gd32vw55x_eclic.c **** PROFITS; OR BUSINESS INTERRUPTION) HOWEVER CAUSED AND ON ANY THEORY OF LIABILITY,
  30:../Firmware/GD32VW55x_standard_peripheral/Source/gd32vw55x_eclic.c **** WHETHER IN CONTRACT, STRICT LIABILITY, OR TORT (INCLUDING NEGLIGENCE OR OTHERWISE)
  31:../Firmware/GD32VW55x_standard_peripheral/Source/gd32vw55x_eclic.c **** ARISING IN ANY WAY OUT OF THE USE OF THIS SOFTWARE, EVEN IF ADVISED OF THE POSSIBILITY
  32:../Firmware/GD32VW55x_standard_peripheral/Source/gd32vw55x_eclic.c **** OF SUCH DAMAGE.
  33:../Firmware/GD32VW55x_standard_peripheral/Source/gd32vw55x_eclic.c **** */
  34:../Firmware/GD32VW55x_standard_peripheral/Source/gd32vw55x_eclic.c **** 
  35:../Firmware/GD32VW55x_standard_peripheral/Source/gd32vw55x_eclic.c **** #include "gd32vw55x_eclic.h"
  36:../Firmware/GD32VW55x_standard_peripheral/Source/gd32vw55x_eclic.c **** #include "riscv_encoding.h"
  37:../Firmware/GD32VW55x_standard_peripheral/Source/gd32vw55x_eclic.c **** 
  38:../Firmware/GD32VW55x_standard_peripheral/Source/gd32vw55x_eclic.c **** /*!
  39:../Firmware/GD32VW55x_standard_peripheral/Source/gd32vw55x_eclic.c ****     \brief      enable the global interrupt
  40:../Firmware/GD32VW55x_standard_peripheral/Source/gd32vw55x_eclic.c ****     \param[in]  none
  41:../Firmware/GD32VW55x_standard_peripheral/Source/gd32vw55x_eclic.c ****     \param[out] none
  42:../Firmware/GD32VW55x_standard_peripheral/Source/gd32vw55x_eclic.c ****     \retval     none
  43:../Firmware/GD32VW55x_standard_peripheral/Source/gd32vw55x_eclic.c **** */
  44:../Firmware/GD32VW55x_standard_peripheral/Source/gd32vw55x_eclic.c **** void eclic_global_interrupt_enable(void)
  45:../Firmware/GD32VW55x_standard_peripheral/Source/gd32vw55x_eclic.c **** {
  16              		.loc 1 45 1
  17              		.cfi_startproc
  18 0000 4111     		addi	sp,sp,-16
  19              		.cfi_def_cfa_offset 16
  20 0002 22C6     		sw	s0,12(sp)
  21 0004 26C4     		sw	s1,8(sp)
  22              		.cfi_offset 8, -4
  23              		.cfi_offset 9, -8
  24 0006 0008     		addi	s0,sp,16
  25              		.cfi_def_cfa 8, 0
  26              	.LBB48:
  27              	.LBB49:
  28              	.LBB50:
  29              		.file 2 "../Firmware/RISCV/drivers/core_feature_base.h"
   1:../Firmware/RISCV/drivers/core_feature_base.h **** /*
   2:../Firmware/RISCV/drivers/core_feature_base.h ****  * Copyright (c) 2019 Nuclei Limited. All rights reserved.
   3:../Firmware/RISCV/drivers/core_feature_base.h ****  *
   4:../Firmware/RISCV/drivers/core_feature_base.h ****  * SPDX-License-Identifier: Apache-2.0
   5:../Firmware/RISCV/drivers/core_feature_base.h ****  *
   6:../Firmware/RISCV/drivers/core_feature_base.h ****  * Licensed under the Apache License, Version 2.0 (the License); you may
   7:../Firmware/RISCV/drivers/core_feature_base.h ****  * not use this file except in compliance with the License.
   8:../Firmware/RISCV/drivers/core_feature_base.h ****  * You may obtain a copy of the License at
   9:../Firmware/RISCV/drivers/core_feature_base.h ****  *
  10:../Firmware/RISCV/drivers/core_feature_base.h ****  * www.apache.org/licenses/LICENSE-2.0
  11:../Firmware/RISCV/drivers/core_feature_base.h ****  *
  12:../Firmware/RISCV/drivers/core_feature_base.h ****  * Unless required by applicable law or agreed to in writing, software
  13:../Firmware/RISCV/drivers/core_feature_base.h ****  * distributed under the License is distributed on an AS IS BASIS, WITHOUT
  14:../Firmware/RISCV/drivers/core_feature_base.h ****  * WARRANTIES OR CONDITIONS OF ANY KIND, either express or implied.
  15:../Firmware/RISCV/drivers/core_feature_base.h ****  * See the License for the specific language governing permissions and
  16:../Firmware/RISCV/drivers/core_feature_base.h ****  * limitations under the License.
  17:../Firmware/RISCV/drivers/core_feature_base.h ****  */
  18:../Firmware/RISCV/drivers/core_feature_base.h **** 
  19:../Firmware/RISCV/drivers/core_feature_base.h **** #ifndef __CORE_FEATURE_BASE__
  20:../Firmware/RISCV/drivers/core_feature_base.h **** #define __CORE_FEATURE_BASE__
  21:../Firmware/RISCV/drivers/core_feature_base.h **** /*!
  22:../Firmware/RISCV/drivers/core_feature_base.h ****  * @file     core_feature_base.h
  23:../Firmware/RISCV/drivers/core_feature_base.h ****  * @brief    Base core feature API for Nuclei N/NX Core
  24:../Firmware/RISCV/drivers/core_feature_base.h ****  */
  25:../Firmware/RISCV/drivers/core_feature_base.h **** #include <stdint.h>
  26:../Firmware/RISCV/drivers/core_feature_base.h **** #include "riscv_encoding.h"
  27:../Firmware/RISCV/drivers/core_feature_base.h **** 
  28:../Firmware/RISCV/drivers/core_feature_base.h **** #ifdef __cplusplus
  29:../Firmware/RISCV/drivers/core_feature_base.h ****  extern "C" {
  30:../Firmware/RISCV/drivers/core_feature_base.h **** #endif
  31:../Firmware/RISCV/drivers/core_feature_base.h **** 
  32:../Firmware/RISCV/drivers/core_feature_base.h **** /**
  33:../Firmware/RISCV/drivers/core_feature_base.h ****  * \defgroup NMSIS_Core_Registers     Register Define and Type Definitions
  34:../Firmware/RISCV/drivers/core_feature_base.h ****  * \brief   Type definitions and defines for core registers.
  35:../Firmware/RISCV/drivers/core_feature_base.h ****  *
  36:../Firmware/RISCV/drivers/core_feature_base.h ****  * @{
  37:../Firmware/RISCV/drivers/core_feature_base.h ****  */
  38:../Firmware/RISCV/drivers/core_feature_base.h **** #ifndef __RISCV_XLEN
  39:../Firmware/RISCV/drivers/core_feature_base.h ****   /** \brief Refer to the width of an integer register in bits(either 32 or 64) */
  40:../Firmware/RISCV/drivers/core_feature_base.h ****   #ifndef __riscv_xlen
  41:../Firmware/RISCV/drivers/core_feature_base.h ****     #define __RISCV_XLEN    32
  42:../Firmware/RISCV/drivers/core_feature_base.h ****   #else
  43:../Firmware/RISCV/drivers/core_feature_base.h ****     #define __RISCV_XLEN    __riscv_xlen
  44:../Firmware/RISCV/drivers/core_feature_base.h ****   #endif
  45:../Firmware/RISCV/drivers/core_feature_base.h **** #endif /* __RISCV_XLEN */
  46:../Firmware/RISCV/drivers/core_feature_base.h **** 
  47:../Firmware/RISCV/drivers/core_feature_base.h **** /** \brief Type of Control and Status Register(CSR), depends on the XLEN defined in RISC-V */
  48:../Firmware/RISCV/drivers/core_feature_base.h **** #if __RISCV_XLEN == 32
  49:../Firmware/RISCV/drivers/core_feature_base.h ****   typedef uint32_t rv_csr_t;
  50:../Firmware/RISCV/drivers/core_feature_base.h **** #elif __RISCV_XLEN == 64
  51:../Firmware/RISCV/drivers/core_feature_base.h ****   typedef uint64_t rv_csr_t;
  52:../Firmware/RISCV/drivers/core_feature_base.h **** #else
  53:../Firmware/RISCV/drivers/core_feature_base.h ****   typedef uint32_t rv_csr_t;
  54:../Firmware/RISCV/drivers/core_feature_base.h **** #endif
  55:../Firmware/RISCV/drivers/core_feature_base.h **** /** @} */ /* End of Doxygen Group NMSIS_Core_Registers */
  56:../Firmware/RISCV/drivers/core_feature_base.h **** /**
  57:../Firmware/RISCV/drivers/core_feature_base.h ****  * \defgroup NMSIS_Core_Base_Registers     Base Register Define and Type Definitions
  58:../Firmware/RISCV/drivers/core_feature_base.h ****  * \ingroup NMSIS_Core_Registers
  59:../Firmware/RISCV/drivers/core_feature_base.h ****  * \brief   Type definitions and defines for base core registers.
  60:../Firmware/RISCV/drivers/core_feature_base.h ****  *
  61:../Firmware/RISCV/drivers/core_feature_base.h ****  * @{
  62:../Firmware/RISCV/drivers/core_feature_base.h ****  */
  63:../Firmware/RISCV/drivers/core_feature_base.h **** /**
  64:../Firmware/RISCV/drivers/core_feature_base.h ****  * \brief  Union type to access MISA CSR register.
  65:../Firmware/RISCV/drivers/core_feature_base.h ****  */
  66:../Firmware/RISCV/drivers/core_feature_base.h **** typedef union {
  67:../Firmware/RISCV/drivers/core_feature_base.h ****     struct {
  68:../Firmware/RISCV/drivers/core_feature_base.h ****         rv_csr_t a:1;                           /*!< bit:     0  Atomic extension */
  69:../Firmware/RISCV/drivers/core_feature_base.h ****         rv_csr_t b:1;                           /*!< bit:     1  Tentatively reserved for Bit-Manip
  70:../Firmware/RISCV/drivers/core_feature_base.h ****         rv_csr_t c:1;                           /*!< bit:     2  Compressed extension */
  71:../Firmware/RISCV/drivers/core_feature_base.h ****         rv_csr_t d:1;                           /*!< bit:     3  Double-precision floating-point ex
  72:../Firmware/RISCV/drivers/core_feature_base.h ****         rv_csr_t e:1;                           /*!< bit:     4  RV32E base ISA */
  73:../Firmware/RISCV/drivers/core_feature_base.h ****         rv_csr_t f:1;                           /*!< bit:     5  Single-precision floating-point ex
  74:../Firmware/RISCV/drivers/core_feature_base.h ****         rv_csr_t g:1;                           /*!< bit:     6  Additional standard extensions pre
  75:../Firmware/RISCV/drivers/core_feature_base.h ****         rv_csr_t h:1;                           /*!< bit:     7  Hypervisor extension */
  76:../Firmware/RISCV/drivers/core_feature_base.h ****         rv_csr_t i:1;                           /*!< bit:     8  RV32I/64I/128I base ISA */
  77:../Firmware/RISCV/drivers/core_feature_base.h ****         rv_csr_t j:1;                           /*!< bit:     9  Tentatively reserved for Dynamical
  78:../Firmware/RISCV/drivers/core_feature_base.h ****         rv_csr_t _reserved1:1;                  /*!< bit:     10 Reserved  */
  79:../Firmware/RISCV/drivers/core_feature_base.h ****         rv_csr_t l:1;                           /*!< bit:     11 Tentatively reserved for Decimal F
  80:../Firmware/RISCV/drivers/core_feature_base.h ****         rv_csr_t m:1;                           /*!< bit:     12 Integer Multiply/Divide extension 
  81:../Firmware/RISCV/drivers/core_feature_base.h ****         rv_csr_t n:1;                           /*!< bit:     13 User-level interrupts supported  *
  82:../Firmware/RISCV/drivers/core_feature_base.h ****         rv_csr_t _reserved2:1;                  /*!< bit:     14 Reserved  */
  83:../Firmware/RISCV/drivers/core_feature_base.h ****         rv_csr_t p:1;                           /*!< bit:     15 Tentatively reserved for Packed-SI
  84:../Firmware/RISCV/drivers/core_feature_base.h ****         rv_csr_t q:1;                           /*!< bit:     16 Quad-precision floating-point exte
  85:../Firmware/RISCV/drivers/core_feature_base.h ****         rv_csr_t _resreved3:1;                  /*!< bit:     17 Reserved  */
  86:../Firmware/RISCV/drivers/core_feature_base.h ****         rv_csr_t s:1;                           /*!< bit:     18 Supervisor mode implemented  */
  87:../Firmware/RISCV/drivers/core_feature_base.h ****         rv_csr_t t:1;                           /*!< bit:     19 Tentatively reserved for Transacti
  88:../Firmware/RISCV/drivers/core_feature_base.h ****         rv_csr_t u:1;                           /*!< bit:     20 User mode implemented  */
  89:../Firmware/RISCV/drivers/core_feature_base.h ****         rv_csr_t v:1;                           /*!< bit:     21 Tentatively reserved for Vector ex
  90:../Firmware/RISCV/drivers/core_feature_base.h ****         rv_csr_t _reserved4:1;                  /*!< bit:     22 Reserved  */
  91:../Firmware/RISCV/drivers/core_feature_base.h ****         rv_csr_t x:1;                           /*!< bit:     23 Non-standard extensions present  *
  92:../Firmware/RISCV/drivers/core_feature_base.h **** #if defined(__RISCV_XLEN) && __RISCV_XLEN == 64
  93:../Firmware/RISCV/drivers/core_feature_base.h ****         rv_csr_t _reserved5:38;                 /*!< bit:     24..61 Reserved  */
  94:../Firmware/RISCV/drivers/core_feature_base.h ****         rv_csr_t mxl:2;                         /*!< bit:     62..63 Machine XLEN  */
  95:../Firmware/RISCV/drivers/core_feature_base.h **** #else
  96:../Firmware/RISCV/drivers/core_feature_base.h ****         rv_csr_t _reserved5:6;                  /*!< bit:     24..29 Reserved  */
  97:../Firmware/RISCV/drivers/core_feature_base.h ****         rv_csr_t mxl:2;                         /*!< bit:     30..31 Machine XLEN  */
  98:../Firmware/RISCV/drivers/core_feature_base.h **** #endif
  99:../Firmware/RISCV/drivers/core_feature_base.h ****     } b;                                        /*!< Structure used for bit  access */
 100:../Firmware/RISCV/drivers/core_feature_base.h ****     rv_csr_t d;                                 /*!< Type      used for csr data access */
 101:../Firmware/RISCV/drivers/core_feature_base.h **** } CSR_MISA_Type;
 102:../Firmware/RISCV/drivers/core_feature_base.h **** 
 103:../Firmware/RISCV/drivers/core_feature_base.h **** /**
 104:../Firmware/RISCV/drivers/core_feature_base.h ****  * \brief  Union type to access MSTATUS CSR register.
 105:../Firmware/RISCV/drivers/core_feature_base.h ****  */
 106:../Firmware/RISCV/drivers/core_feature_base.h **** typedef union {
 107:../Firmware/RISCV/drivers/core_feature_base.h ****     struct {
 108:../Firmware/RISCV/drivers/core_feature_base.h **** #if defined(__RISCV_XLEN) && __RISCV_XLEN == 64
 109:../Firmware/RISCV/drivers/core_feature_base.h ****         rv_csr_t _reserved0:3;                  /*!< bit:     0..2  Reserved */
 110:../Firmware/RISCV/drivers/core_feature_base.h ****         rv_csr_t mie:1;                         /*!< bit:     3  Machine mode interrupt enable flag
 111:../Firmware/RISCV/drivers/core_feature_base.h ****         rv_csr_t _reserved1:3;                  /*!< bit:     4..6  Reserved */
 112:../Firmware/RISCV/drivers/core_feature_base.h ****         rv_csr_t mpie:1;                        /*!< bit:     7  mirror of MIE flag */
 113:../Firmware/RISCV/drivers/core_feature_base.h ****         rv_csr_t _reserved2:3;                  /*!< bit:     8..10  Reserved */
 114:../Firmware/RISCV/drivers/core_feature_base.h ****         rv_csr_t mpp:2;                         /*!< bit:     11..12 mirror of Privilege Mode */
 115:../Firmware/RISCV/drivers/core_feature_base.h ****         rv_csr_t fs:2;                          /*!< bit:     13..14 FS status flag */
 116:../Firmware/RISCV/drivers/core_feature_base.h ****         rv_csr_t xs:2;                          /*!< bit:     15..16 XS status flag */
 117:../Firmware/RISCV/drivers/core_feature_base.h ****         rv_csr_t mprv:1;                        /*!< bit:     Machine mode PMP */
 118:../Firmware/RISCV/drivers/core_feature_base.h ****         rv_csr_t _reserved3:14;                 /*!< bit:     18..31 Reserved */
 119:../Firmware/RISCV/drivers/core_feature_base.h ****         rv_csr_t uxl:2;                         /*!< bit:     32..33 user mode xlen */
 120:../Firmware/RISCV/drivers/core_feature_base.h ****         rv_csr_t _reserved6:29;                 /*!< bit:     34..62 Reserved  */
 121:../Firmware/RISCV/drivers/core_feature_base.h ****         rv_csr_t sd:1;                          /*!< bit:     Dirty status for XS or FS */
 122:../Firmware/RISCV/drivers/core_feature_base.h **** #else
 123:../Firmware/RISCV/drivers/core_feature_base.h ****         rv_csr_t _reserved0:1;                  /*!< bit:     0  Reserved */
 124:../Firmware/RISCV/drivers/core_feature_base.h ****         rv_csr_t sie:1;                         /*!< bit:     1  supervisor interrupt enable flag *
 125:../Firmware/RISCV/drivers/core_feature_base.h ****         rv_csr_t _reserved1:1;                  /*!< bit:     2  Reserved */
 126:../Firmware/RISCV/drivers/core_feature_base.h ****         rv_csr_t mie:1;                         /*!< bit:     3  Machine mode interrupt enable flag
 127:../Firmware/RISCV/drivers/core_feature_base.h ****         rv_csr_t _reserved2:1;                  /*!< bit:     4  Reserved */
 128:../Firmware/RISCV/drivers/core_feature_base.h ****         rv_csr_t spie:1;                        /*!< bit:     3  Supervisor Privilede mode interrup
 129:../Firmware/RISCV/drivers/core_feature_base.h ****         rv_csr_t _reserved3:1;                  /*!< bit:     Reserved */
 130:../Firmware/RISCV/drivers/core_feature_base.h ****         rv_csr_t mpie:1;                        /*!< bit:     mirror of MIE flag */
 131:../Firmware/RISCV/drivers/core_feature_base.h ****         rv_csr_t _reserved4:3;                  /*!< bit:     Reserved */
 132:../Firmware/RISCV/drivers/core_feature_base.h ****         rv_csr_t mpp:2;                         /*!< bit:     mirror of Privilege Mode */
 133:../Firmware/RISCV/drivers/core_feature_base.h ****         rv_csr_t fs:2;                          /*!< bit:     FS status flag */
 134:../Firmware/RISCV/drivers/core_feature_base.h ****         rv_csr_t xs:2;                          /*!< bit:     XS status flag */
 135:../Firmware/RISCV/drivers/core_feature_base.h ****         rv_csr_t mprv:1;                        /*!< bit:     Machine mode PMP */
 136:../Firmware/RISCV/drivers/core_feature_base.h ****         rv_csr_t sum:1;                         /*!< bit:     Supervisor Mode load and store protec
 137:../Firmware/RISCV/drivers/core_feature_base.h ****         rv_csr_t _reserved6:12;                 /*!< bit:     19..30 Reserved  */
 138:../Firmware/RISCV/drivers/core_feature_base.h ****         rv_csr_t sd:1;                          /*!< bit:     Dirty status for XS or FS */
 139:../Firmware/RISCV/drivers/core_feature_base.h **** #endif
 140:../Firmware/RISCV/drivers/core_feature_base.h ****     } b;                                        /*!< Structure used for bit  access */
 141:../Firmware/RISCV/drivers/core_feature_base.h ****     rv_csr_t d;                                 /*!< Type      used for csr data access */
 142:../Firmware/RISCV/drivers/core_feature_base.h **** } CSR_MSTATUS_Type;
 143:../Firmware/RISCV/drivers/core_feature_base.h **** 
 144:../Firmware/RISCV/drivers/core_feature_base.h **** /**
 145:../Firmware/RISCV/drivers/core_feature_base.h ****  * \brief  Union type to access MTVEC CSR register.
 146:../Firmware/RISCV/drivers/core_feature_base.h ****  */
 147:../Firmware/RISCV/drivers/core_feature_base.h **** typedef union {
 148:../Firmware/RISCV/drivers/core_feature_base.h ****     struct {
 149:../Firmware/RISCV/drivers/core_feature_base.h ****         rv_csr_t mode:6;                        /*!< bit:     0..5   interrupt mode control */
 150:../Firmware/RISCV/drivers/core_feature_base.h **** #if defined(__RISCV_XLEN) && __RISCV_XLEN == 64
 151:../Firmware/RISCV/drivers/core_feature_base.h ****         rv_csr_t addr:58;                       /*!< bit:     6..63  mtvec address */
 152:../Firmware/RISCV/drivers/core_feature_base.h **** #else
 153:../Firmware/RISCV/drivers/core_feature_base.h ****         rv_csr_t addr:26;                       /*!< bit:     6..31  mtvec address */
 154:../Firmware/RISCV/drivers/core_feature_base.h **** #endif
 155:../Firmware/RISCV/drivers/core_feature_base.h ****     } b;                                        /*!< Structure used for bit  access */
 156:../Firmware/RISCV/drivers/core_feature_base.h ****     rv_csr_t d;                                 /*!< Type      used for csr data access */
 157:../Firmware/RISCV/drivers/core_feature_base.h **** } CSR_MTVEC_Type;
 158:../Firmware/RISCV/drivers/core_feature_base.h **** 
 159:../Firmware/RISCV/drivers/core_feature_base.h **** /**
 160:../Firmware/RISCV/drivers/core_feature_base.h ****  * \brief  Union type to access MCAUSE CSR register.
 161:../Firmware/RISCV/drivers/core_feature_base.h ****  */
 162:../Firmware/RISCV/drivers/core_feature_base.h **** typedef union {
 163:../Firmware/RISCV/drivers/core_feature_base.h ****     struct {
 164:../Firmware/RISCV/drivers/core_feature_base.h ****         rv_csr_t exccode:12;                    /*!< bit:     11..0  exception or interrupt code */
 165:../Firmware/RISCV/drivers/core_feature_base.h ****         rv_csr_t _reserved0:4;                  /*!< bit:     15..12  Reserved */
 166:../Firmware/RISCV/drivers/core_feature_base.h ****         rv_csr_t mpil:8;                        /*!< bit:     23..16  Previous interrupt level */
 167:../Firmware/RISCV/drivers/core_feature_base.h ****         rv_csr_t _reserved1:3;                  /*!< bit:     26..24  Reserved */
 168:../Firmware/RISCV/drivers/core_feature_base.h ****         rv_csr_t mpie:1;                        /*!< bit:     27  Interrupt enable flag before ente
 169:../Firmware/RISCV/drivers/core_feature_base.h ****         rv_csr_t mpp:2;                         /*!< bit:     29..28  Privilede mode flag before en
 170:../Firmware/RISCV/drivers/core_feature_base.h ****         rv_csr_t minhv:1;                       /*!< bit:     30  Machine interrupt vector table */
 171:../Firmware/RISCV/drivers/core_feature_base.h **** #if defined(__RISCV_XLEN) && __RISCV_XLEN == 64
 172:../Firmware/RISCV/drivers/core_feature_base.h ****         rv_csr_t _reserved2:32;                 /*!< bit:     31..62  Reserved */
 173:../Firmware/RISCV/drivers/core_feature_base.h ****         rv_csr_t interrupt:1;                   /*!< bit:     63  trap type. 0 means exception and 
 174:../Firmware/RISCV/drivers/core_feature_base.h **** #else
 175:../Firmware/RISCV/drivers/core_feature_base.h ****         rv_csr_t interrupt:1;                   /*!< bit:     31  trap type. 0 means exception and 
 176:../Firmware/RISCV/drivers/core_feature_base.h **** #endif
 177:../Firmware/RISCV/drivers/core_feature_base.h ****     } b;                                        /*!< Structure used for bit  access */
 178:../Firmware/RISCV/drivers/core_feature_base.h ****     rv_csr_t d;                                 /*!< Type      used for csr data access */
 179:../Firmware/RISCV/drivers/core_feature_base.h **** } CSR_MCAUSE_Type;
 180:../Firmware/RISCV/drivers/core_feature_base.h **** 
 181:../Firmware/RISCV/drivers/core_feature_base.h **** /**
 182:../Firmware/RISCV/drivers/core_feature_base.h ****  * \brief  Union type to access MCOUNTINHIBIT CSR register.
 183:../Firmware/RISCV/drivers/core_feature_base.h ****  */
 184:../Firmware/RISCV/drivers/core_feature_base.h **** typedef union {
 185:../Firmware/RISCV/drivers/core_feature_base.h ****     struct {
 186:../Firmware/RISCV/drivers/core_feature_base.h ****         rv_csr_t cy:1;                          /*!< bit:     0     1 means disable mcycle counter 
 187:../Firmware/RISCV/drivers/core_feature_base.h ****         rv_csr_t _reserved0:1;                  /*!< bit:     1     Reserved */
 188:../Firmware/RISCV/drivers/core_feature_base.h ****         rv_csr_t ir:1;                          /*!< bit:     2     1 means disable minstret counte
 189:../Firmware/RISCV/drivers/core_feature_base.h **** #if defined(__RISCV_XLEN) && __RISCV_XLEN == 64
 190:../Firmware/RISCV/drivers/core_feature_base.h ****         rv_csr_t _reserved1:61;                 /*!< bit:     3..63 Reserved */
 191:../Firmware/RISCV/drivers/core_feature_base.h **** #else
 192:../Firmware/RISCV/drivers/core_feature_base.h ****         rv_csr_t _reserved1:29;                 /*!< bit:     3..31 Reserved */
 193:../Firmware/RISCV/drivers/core_feature_base.h **** #endif
 194:../Firmware/RISCV/drivers/core_feature_base.h ****     } b;                                        /*!< Structure used for bit  access */
 195:../Firmware/RISCV/drivers/core_feature_base.h ****     rv_csr_t d;                                 /*!< Type      used for csr data access */
 196:../Firmware/RISCV/drivers/core_feature_base.h **** } CSR_MCOUNTINHIBIT_Type;
 197:../Firmware/RISCV/drivers/core_feature_base.h **** 
 198:../Firmware/RISCV/drivers/core_feature_base.h **** /**
 199:../Firmware/RISCV/drivers/core_feature_base.h ****  * \brief  Union type to access MSUBM CSR register.
 200:../Firmware/RISCV/drivers/core_feature_base.h ****  */
 201:../Firmware/RISCV/drivers/core_feature_base.h **** typedef union {
 202:../Firmware/RISCV/drivers/core_feature_base.h ****     struct {
 203:../Firmware/RISCV/drivers/core_feature_base.h ****         rv_csr_t _reserved0:6;                  /*!< bit:     0..5   Reserved */
 204:../Firmware/RISCV/drivers/core_feature_base.h ****         rv_csr_t typ:2;                         /*!< bit:     6..7   current trap type */
 205:../Firmware/RISCV/drivers/core_feature_base.h ****         rv_csr_t ptyp:2;                        /*!< bit:     8..9   previous trap type */
 206:../Firmware/RISCV/drivers/core_feature_base.h **** #if defined(__RISCV_XLEN) && __RISCV_XLEN == 64
 207:../Firmware/RISCV/drivers/core_feature_base.h ****         rv_csr_t _reserved1:54;                 /*!< bit:     10..63 Reserved */
 208:../Firmware/RISCV/drivers/core_feature_base.h **** #else
 209:../Firmware/RISCV/drivers/core_feature_base.h ****         rv_csr_t _reserved1:22;                 /*!< bit:     10..31 Reserved */
 210:../Firmware/RISCV/drivers/core_feature_base.h **** #endif
 211:../Firmware/RISCV/drivers/core_feature_base.h ****     } b;                                        /*!< Structure used for bit  access */
 212:../Firmware/RISCV/drivers/core_feature_base.h ****     rv_csr_t d;                                 /*!< Type      used for csr data access */
 213:../Firmware/RISCV/drivers/core_feature_base.h **** } CSR_MSUBM_Type;
 214:../Firmware/RISCV/drivers/core_feature_base.h **** 
 215:../Firmware/RISCV/drivers/core_feature_base.h **** /**
 216:../Firmware/RISCV/drivers/core_feature_base.h ****  * \brief  Union type to access MDCAUSE CSR register.
 217:../Firmware/RISCV/drivers/core_feature_base.h ****  */
 218:../Firmware/RISCV/drivers/core_feature_base.h **** typedef union {
 219:../Firmware/RISCV/drivers/core_feature_base.h ****     struct {
 220:../Firmware/RISCV/drivers/core_feature_base.h ****         rv_csr_t mdcause:2;                     /*!< bit:     0..1   More detailed exception inform
 221:../Firmware/RISCV/drivers/core_feature_base.h ****         rv_csr_t _reserved0:__RISCV_XLEN-2;     /*!< bit:     2..XLEN-1 Reserved */
 222:../Firmware/RISCV/drivers/core_feature_base.h ****     } b;                                        /*!< Structure used for bit  access */
 223:../Firmware/RISCV/drivers/core_feature_base.h ****     rv_csr_t d;                                 /*!< Type      used for csr data access */
 224:../Firmware/RISCV/drivers/core_feature_base.h **** } CSR_MDCAUSE_Type;
 225:../Firmware/RISCV/drivers/core_feature_base.h **** 
 226:../Firmware/RISCV/drivers/core_feature_base.h **** /**
 227:../Firmware/RISCV/drivers/core_feature_base.h ****  * \brief  Union type to access MMISC_CTRL CSR register.
 228:../Firmware/RISCV/drivers/core_feature_base.h ****  */
 229:../Firmware/RISCV/drivers/core_feature_base.h **** typedef union {
 230:../Firmware/RISCV/drivers/core_feature_base.h ****     struct {
 231:../Firmware/RISCV/drivers/core_feature_base.h ****         rv_csr_t _reserved0:3;                  /*!< bit:     0..2  Reserved */
 232:../Firmware/RISCV/drivers/core_feature_base.h ****         rv_csr_t bpu:1;                         /*!< bit:     3     dynamic prediction enable flag 
 233:../Firmware/RISCV/drivers/core_feature_base.h ****         rv_csr_t _reserved1:2;                  /*!< bit:     4..5  Reserved */
 234:../Firmware/RISCV/drivers/core_feature_base.h ****         rv_csr_t misalign:1;                    /*!< bit:     6     misaligned access support flag 
 235:../Firmware/RISCV/drivers/core_feature_base.h ****         rv_csr_t _reserved2:2;                  /*!< bit:     7..8  Reserved */
 236:../Firmware/RISCV/drivers/core_feature_base.h ****         rv_csr_t nmi_cause:1;                   /*!< bit:     9     mnvec control and nmi mcase exc
 237:../Firmware/RISCV/drivers/core_feature_base.h **** #if defined(__RISCV_XLEN) && __RISCV_XLEN == 64
 238:../Firmware/RISCV/drivers/core_feature_base.h ****         rv_csr_t _reserved3:54;                 /*!< bit:     10..63 Reserved */
 239:../Firmware/RISCV/drivers/core_feature_base.h **** #else
 240:../Firmware/RISCV/drivers/core_feature_base.h ****         rv_csr_t _reserved3:22;                 /*!< bit:     10..31 Reserved */
 241:../Firmware/RISCV/drivers/core_feature_base.h **** #endif
 242:../Firmware/RISCV/drivers/core_feature_base.h ****     } b;                                        /*!< Structure used for bit  access */
 243:../Firmware/RISCV/drivers/core_feature_base.h ****     rv_csr_t d;                                 /*!< Type      used for csr data access */
 244:../Firmware/RISCV/drivers/core_feature_base.h **** } CSR_MMISCCTRL_Type;
 245:../Firmware/RISCV/drivers/core_feature_base.h **** 
 246:../Firmware/RISCV/drivers/core_feature_base.h **** typedef CSR_MMISCCTRL_Type CSR_MMISCCTL_Type;
 247:../Firmware/RISCV/drivers/core_feature_base.h **** 
 248:../Firmware/RISCV/drivers/core_feature_base.h **** /**
 249:../Firmware/RISCV/drivers/core_feature_base.h ****  * \brief  Union type to access MCACHE_CTL CSR register.
 250:../Firmware/RISCV/drivers/core_feature_base.h ****  */
 251:../Firmware/RISCV/drivers/core_feature_base.h **** typedef union {
 252:../Firmware/RISCV/drivers/core_feature_base.h ****     struct {
 253:../Firmware/RISCV/drivers/core_feature_base.h ****         rv_csr_t ic_en:1;                       /*!< I-Cache enable */
 254:../Firmware/RISCV/drivers/core_feature_base.h ****         rv_csr_t ic_scpd_mod:1;                 /*!< Scratchpad mode, 0: Scratchpad as ICache Data 
 255:../Firmware/RISCV/drivers/core_feature_base.h ****         rv_csr_t ic_ecc_en:1;                   /*!< I-Cache ECC enable */
 256:../Firmware/RISCV/drivers/core_feature_base.h ****         rv_csr_t ic_ecc_excp_en:1;              /*!< I-Cache 2bit ECC error exception enable */
 257:../Firmware/RISCV/drivers/core_feature_base.h ****         rv_csr_t ic_rwtecc:1;                   /*!< Control I-Cache Tag Ram ECC code injection */
 258:../Firmware/RISCV/drivers/core_feature_base.h ****         rv_csr_t ic_rwdecc:1;                   /*!< Control I-Cache Data Ram ECC code injection */
 259:../Firmware/RISCV/drivers/core_feature_base.h ****         rv_csr_t _reserved0:10;
 260:../Firmware/RISCV/drivers/core_feature_base.h ****         rv_csr_t dc_en:1;                       /*!< DCache enable */
 261:../Firmware/RISCV/drivers/core_feature_base.h ****         rv_csr_t dc_ecc_en:1;                   /*!< D-Cache ECC enable */
 262:../Firmware/RISCV/drivers/core_feature_base.h ****         rv_csr_t dc_ecc_excp_en:1;              /*!< D-Cache 2bit ECC error exception enable */
 263:../Firmware/RISCV/drivers/core_feature_base.h ****         rv_csr_t dc_rwtecc:1;                   /*!< Control D-Cache Tag Ram ECC code injection */
 264:../Firmware/RISCV/drivers/core_feature_base.h ****         rv_csr_t dc_rwdecc:1;                   /*!< Control D-Cache Data Ram ECC code injection */
 265:../Firmware/RISCV/drivers/core_feature_base.h ****         rv_csr_t _reserved1:__RISCV_XLEN-21;
 266:../Firmware/RISCV/drivers/core_feature_base.h ****     } b;                                        /*!< Structure used for bit  access */
 267:../Firmware/RISCV/drivers/core_feature_base.h ****     rv_csr_t d;                                 /*!< Type      used for csr data access */
 268:../Firmware/RISCV/drivers/core_feature_base.h **** } CSR_MCACHECTL_Type;
 269:../Firmware/RISCV/drivers/core_feature_base.h **** 
 270:../Firmware/RISCV/drivers/core_feature_base.h **** /**
 271:../Firmware/RISCV/drivers/core_feature_base.h ****  * \brief  Union type to access MSAVESTATUS CSR register.
 272:../Firmware/RISCV/drivers/core_feature_base.h ****  */
 273:../Firmware/RISCV/drivers/core_feature_base.h **** typedef union {
 274:../Firmware/RISCV/drivers/core_feature_base.h ****     struct {
 275:../Firmware/RISCV/drivers/core_feature_base.h ****         rv_csr_t mpie1:1;                       /*!< bit:     0     interrupt enable flag of fisrt 
 276:../Firmware/RISCV/drivers/core_feature_base.h ****         rv_csr_t mpp1:2;                        /*!< bit:     1..2  privilede mode of fisrt level N
 277:../Firmware/RISCV/drivers/core_feature_base.h ****         rv_csr_t _reserved0:3;                  /*!< bit:     3..5  Reserved */
 278:../Firmware/RISCV/drivers/core_feature_base.h ****         rv_csr_t ptyp1:2;                       /*!< bit:     6..7  NMI/exception type of before fi
 279:../Firmware/RISCV/drivers/core_feature_base.h ****         rv_csr_t mpie2:1;                       /*!< bit:     8     interrupt enable flag of second
 280:../Firmware/RISCV/drivers/core_feature_base.h ****         rv_csr_t mpp2:2;                        /*!< bit:     9..10 privilede mode of second level 
 281:../Firmware/RISCV/drivers/core_feature_base.h ****         rv_csr_t _reserved1:3;                  /*!< bit:     11..13     Reserved */
 282:../Firmware/RISCV/drivers/core_feature_base.h ****         rv_csr_t ptyp2:2;                       /*!< bit:     14..15     NMI/exception type of befo
 283:../Firmware/RISCV/drivers/core_feature_base.h **** #if defined(__RISCV_XLEN) && __RISCV_XLEN == 64
 284:../Firmware/RISCV/drivers/core_feature_base.h ****         rv_csr_t _reserved2:48;                 /*!< bit:     16..63 Reserved*/
 285:../Firmware/RISCV/drivers/core_feature_base.h **** #else
 286:../Firmware/RISCV/drivers/core_feature_base.h ****         rv_csr_t _reserved2:16;                 /*!< bit:     16..31 Reserved*/
 287:../Firmware/RISCV/drivers/core_feature_base.h **** #endif
 288:../Firmware/RISCV/drivers/core_feature_base.h ****     } b;                                        /*!< Structure used for bit  access */
 289:../Firmware/RISCV/drivers/core_feature_base.h ****     rv_csr_t w;                                 /*!< Type      used for csr data access */
 290:../Firmware/RISCV/drivers/core_feature_base.h **** } CSR_MSAVESTATUS_Type;
 291:../Firmware/RISCV/drivers/core_feature_base.h **** 
 292:../Firmware/RISCV/drivers/core_feature_base.h **** /**
 293:../Firmware/RISCV/drivers/core_feature_base.h ****  * \brief  Union type to access MILM_CTL CSR register.
 294:../Firmware/RISCV/drivers/core_feature_base.h ****  */
 295:../Firmware/RISCV/drivers/core_feature_base.h **** typedef union {
 296:../Firmware/RISCV/drivers/core_feature_base.h ****     struct {
 297:../Firmware/RISCV/drivers/core_feature_base.h ****         rv_csr_t ilm_en:1;                      /*!< ILM enable */
 298:../Firmware/RISCV/drivers/core_feature_base.h ****         rv_csr_t ilm_ecc_en:1;                  /*!< ILM ECC eanble */
 299:../Firmware/RISCV/drivers/core_feature_base.h ****         rv_csr_t ilm_ecc_excp_en:1;             /*!< ILM ECC exception enable */
 300:../Firmware/RISCV/drivers/core_feature_base.h ****         rv_csr_t ilm_rwecc:1;                   /*!< Control mecc_code write to ilm, simulate error
 301:../Firmware/RISCV/drivers/core_feature_base.h ****         rv_csr_t _reserved0:6;                  /*!< Reserved */
 302:../Firmware/RISCV/drivers/core_feature_base.h ****         rv_csr_t ilm_bpa:__RISCV_XLEN-10;       /*!< ILM base address */
 303:../Firmware/RISCV/drivers/core_feature_base.h ****     } b;                                        /*!< Structure used for bit  access */
 304:../Firmware/RISCV/drivers/core_feature_base.h ****     rv_csr_t d;                                 /*!< Type      used for csr data access */
 305:../Firmware/RISCV/drivers/core_feature_base.h **** } CSR_MILMCTL_Type;
 306:../Firmware/RISCV/drivers/core_feature_base.h **** 
 307:../Firmware/RISCV/drivers/core_feature_base.h **** /**
 308:../Firmware/RISCV/drivers/core_feature_base.h ****  * \brief  Union type to access MDLM_CTL CSR register.
 309:../Firmware/RISCV/drivers/core_feature_base.h ****  */
 310:../Firmware/RISCV/drivers/core_feature_base.h **** typedef union {
 311:../Firmware/RISCV/drivers/core_feature_base.h ****     struct {
 312:../Firmware/RISCV/drivers/core_feature_base.h ****         rv_csr_t dlm_en:1;                      /*!< DLM enable */
 313:../Firmware/RISCV/drivers/core_feature_base.h ****         rv_csr_t dlm_ecc_en:1;                  /*!< DLM ECC eanble */
 314:../Firmware/RISCV/drivers/core_feature_base.h ****         rv_csr_t dlm_ecc_excp_en:1;             /*!< DLM ECC exception enable */
 315:../Firmware/RISCV/drivers/core_feature_base.h ****         rv_csr_t dlm_rwecc:1;                   /*!< Control mecc_code write to dlm, simulate error
 316:../Firmware/RISCV/drivers/core_feature_base.h ****         rv_csr_t _reserved0:6;                  /*!< Reserved */
 317:../Firmware/RISCV/drivers/core_feature_base.h ****         rv_csr_t dlm_bpa:__RISCV_XLEN-10;       /*!< DLM base address */
 318:../Firmware/RISCV/drivers/core_feature_base.h ****     } b;                                        /*!< Structure used for bit  access */
 319:../Firmware/RISCV/drivers/core_feature_base.h ****     rv_csr_t d;                                 /*!< Type      used for csr data access */
 320:../Firmware/RISCV/drivers/core_feature_base.h **** } CSR_MDLMCTL_Type;
 321:../Firmware/RISCV/drivers/core_feature_base.h **** 
 322:../Firmware/RISCV/drivers/core_feature_base.h **** /**
 323:../Firmware/RISCV/drivers/core_feature_base.h ****  * \brief  Union type to access MCFG_INFO CSR register.
 324:../Firmware/RISCV/drivers/core_feature_base.h ****  */
 325:../Firmware/RISCV/drivers/core_feature_base.h **** typedef union {
 326:../Firmware/RISCV/drivers/core_feature_base.h ****     struct {
 327:../Firmware/RISCV/drivers/core_feature_base.h ****         rv_csr_t tee:1;                         /*!< TEE present */
 328:../Firmware/RISCV/drivers/core_feature_base.h ****         rv_csr_t ecc:1;                         /*!< ECC present */
 329:../Firmware/RISCV/drivers/core_feature_base.h ****         rv_csr_t clic:1;                        /*!< CLIC present */
 330:../Firmware/RISCV/drivers/core_feature_base.h ****         rv_csr_t plic:1;                        /*!< PLIC present */
 331:../Firmware/RISCV/drivers/core_feature_base.h ****         rv_csr_t fio:1;                         /*!< FIO present */
 332:../Firmware/RISCV/drivers/core_feature_base.h ****         rv_csr_t ppi:1;                         /*!< PPI present */
 333:../Firmware/RISCV/drivers/core_feature_base.h ****         rv_csr_t nice:1;                        /*!< NICE present */
 334:../Firmware/RISCV/drivers/core_feature_base.h ****         rv_csr_t ilm:1;                         /*!< ILM present */
 335:../Firmware/RISCV/drivers/core_feature_base.h ****         rv_csr_t dlm:1;                         /*!< DLM present */
 336:../Firmware/RISCV/drivers/core_feature_base.h ****         rv_csr_t icache:1;                      /*!< ICache present */
 337:../Firmware/RISCV/drivers/core_feature_base.h ****         rv_csr_t dcache:1;                      /*!< DCache present */
 338:../Firmware/RISCV/drivers/core_feature_base.h ****         rv_csr_t _reserved0:__RISCV_XLEN-11;
 339:../Firmware/RISCV/drivers/core_feature_base.h ****     } b;                                        /*!< Structure used for bit  access */
 340:../Firmware/RISCV/drivers/core_feature_base.h ****     rv_csr_t d;                                 /*!< Type      used for csr data access */
 341:../Firmware/RISCV/drivers/core_feature_base.h **** } CSR_MCFGINFO_Type;
 342:../Firmware/RISCV/drivers/core_feature_base.h **** 
 343:../Firmware/RISCV/drivers/core_feature_base.h **** /**
 344:../Firmware/RISCV/drivers/core_feature_base.h ****  * \brief  Union type to access MICFG_INFO CSR register.
 345:../Firmware/RISCV/drivers/core_feature_base.h ****  */
 346:../Firmware/RISCV/drivers/core_feature_base.h **** typedef union {
 347:../Firmware/RISCV/drivers/core_feature_base.h ****     struct {
 348:../Firmware/RISCV/drivers/core_feature_base.h ****         rv_csr_t set:4;                         /*!< I-Cache sets per way */
 349:../Firmware/RISCV/drivers/core_feature_base.h ****         rv_csr_t way:3;                         /*!< I-Cache way */
 350:../Firmware/RISCV/drivers/core_feature_base.h ****         rv_csr_t lsize:3;                       /*!< I-Cache line size */
 351:../Firmware/RISCV/drivers/core_feature_base.h ****         rv_csr_t cache_ecc:1;                   /*!< I-Cache ECC present */
 352:../Firmware/RISCV/drivers/core_feature_base.h ****         rv_csr_t _reserved0:5;
 353:../Firmware/RISCV/drivers/core_feature_base.h ****         rv_csr_t lm_size:5;                     /*!< ILM size, need to be 2^n size */
 354:../Firmware/RISCV/drivers/core_feature_base.h ****         rv_csr_t lm_xonly:1;                    /*!< ILM Execute only permission */
 355:../Firmware/RISCV/drivers/core_feature_base.h ****         rv_csr_t lm_ecc:1;                      /*!< ILM ECC present */
 356:../Firmware/RISCV/drivers/core_feature_base.h ****         rv_csr_t _reserved1:__RISCV_XLEN-23;
 357:../Firmware/RISCV/drivers/core_feature_base.h ****     } b;                                        /*!< Structure used for bit  access */
 358:../Firmware/RISCV/drivers/core_feature_base.h ****     rv_csr_t d;                                 /*!< Type      used for csr data access */
 359:../Firmware/RISCV/drivers/core_feature_base.h **** } CSR_MICFGINFO_Type;
 360:../Firmware/RISCV/drivers/core_feature_base.h **** 
 361:../Firmware/RISCV/drivers/core_feature_base.h **** /**
 362:../Firmware/RISCV/drivers/core_feature_base.h ****  * \brief  Union type to access MDCFG_INFO CSR register.
 363:../Firmware/RISCV/drivers/core_feature_base.h ****  */
 364:../Firmware/RISCV/drivers/core_feature_base.h **** typedef union {
 365:../Firmware/RISCV/drivers/core_feature_base.h ****     struct {
 366:../Firmware/RISCV/drivers/core_feature_base.h ****         rv_csr_t set:4;                         /*!< D-Cache sets per way */
 367:../Firmware/RISCV/drivers/core_feature_base.h ****         rv_csr_t way:3;                         /*!< D-Cache way */
 368:../Firmware/RISCV/drivers/core_feature_base.h ****         rv_csr_t lsize:3;                       /*!< D-Cache line size */
 369:../Firmware/RISCV/drivers/core_feature_base.h ****         rv_csr_t cache_ecc:1;                   /*!< D-Cache ECC present */
 370:../Firmware/RISCV/drivers/core_feature_base.h ****         rv_csr_t _reserved0:5;
 371:../Firmware/RISCV/drivers/core_feature_base.h ****         rv_csr_t lm_size:5;                     /*!< DLM size, need to be 2^n size */
 372:../Firmware/RISCV/drivers/core_feature_base.h ****         rv_csr_t lm_xonly:1;                    /*!< DLM Execute only permission */
 373:../Firmware/RISCV/drivers/core_feature_base.h ****         rv_csr_t lm_ecc:1;                      /*!< DLM ECC present */
 374:../Firmware/RISCV/drivers/core_feature_base.h ****         rv_csr_t _reserved1:__RISCV_XLEN-23;
 375:../Firmware/RISCV/drivers/core_feature_base.h ****     } b;                                        /*!< Structure used for bit  access */
 376:../Firmware/RISCV/drivers/core_feature_base.h ****     rv_csr_t d;                                 /*!< Type      used for csr data access */
 377:../Firmware/RISCV/drivers/core_feature_base.h **** } CSR_MDCFGINFO_Type;
 378:../Firmware/RISCV/drivers/core_feature_base.h **** 
 379:../Firmware/RISCV/drivers/core_feature_base.h **** /**
 380:../Firmware/RISCV/drivers/core_feature_base.h ****  * \brief  Union type to access MPPICFG_INFO CSR register.
 381:../Firmware/RISCV/drivers/core_feature_base.h ****  */
 382:../Firmware/RISCV/drivers/core_feature_base.h **** typedef union {
 383:../Firmware/RISCV/drivers/core_feature_base.h ****     struct {
 384:../Firmware/RISCV/drivers/core_feature_base.h ****         rv_csr_t _reserved0:1;                  /*!< Reserved */
 385:../Firmware/RISCV/drivers/core_feature_base.h ****         rv_csr_t ppi_size:5;                    /*!< PPI size, need to be 2^n size */
 386:../Firmware/RISCV/drivers/core_feature_base.h ****         rv_csr_t _reserved1:4;                  /*!< Reserved */
 387:../Firmware/RISCV/drivers/core_feature_base.h ****         rv_csr_t ppi_bpa:__RISCV_XLEN-10;       /*!< PPI base address */
 388:../Firmware/RISCV/drivers/core_feature_base.h ****     } b;                                        /*!< Structure used for bit  access */
 389:../Firmware/RISCV/drivers/core_feature_base.h ****     rv_csr_t d;                                 /*!< Type      used for csr data access */
 390:../Firmware/RISCV/drivers/core_feature_base.h **** } CSR_MPPICFGINFO_Type;
 391:../Firmware/RISCV/drivers/core_feature_base.h **** 
 392:../Firmware/RISCV/drivers/core_feature_base.h **** /**
 393:../Firmware/RISCV/drivers/core_feature_base.h ****  * \brief  Union type to access MFIOCFG_INFO CSR register.
 394:../Firmware/RISCV/drivers/core_feature_base.h ****  */
 395:../Firmware/RISCV/drivers/core_feature_base.h **** typedef union {
 396:../Firmware/RISCV/drivers/core_feature_base.h ****     struct {
 397:../Firmware/RISCV/drivers/core_feature_base.h ****         rv_csr_t _reserved0:1;                  /*!< Reserved */
 398:../Firmware/RISCV/drivers/core_feature_base.h ****         rv_csr_t fio_size:5;                    /*!< FIO size, need to be 2^n size */
 399:../Firmware/RISCV/drivers/core_feature_base.h ****         rv_csr_t _reserved1:4;                  /*!< Reserved */
 400:../Firmware/RISCV/drivers/core_feature_base.h ****         rv_csr_t fio_bpa:__RISCV_XLEN-10;       /*!< FIO base address */
 401:../Firmware/RISCV/drivers/core_feature_base.h ****     } b;                                        /*!< Structure used for bit  access */
 402:../Firmware/RISCV/drivers/core_feature_base.h ****     rv_csr_t d;                                 /*!< Type      used for csr data access */
 403:../Firmware/RISCV/drivers/core_feature_base.h **** } CSR_MFIOCFGINFO_Type;
 404:../Firmware/RISCV/drivers/core_feature_base.h **** 
 405:../Firmware/RISCV/drivers/core_feature_base.h **** /**
 406:../Firmware/RISCV/drivers/core_feature_base.h ****  * \brief  Union type to access MECC_LOCK CSR register.
 407:../Firmware/RISCV/drivers/core_feature_base.h ****  */
 408:../Firmware/RISCV/drivers/core_feature_base.h **** typedef union {
 409:../Firmware/RISCV/drivers/core_feature_base.h ****     struct {
 410:../Firmware/RISCV/drivers/core_feature_base.h ****         rv_csr_t ecc_lock:1;                    /*!< RW permission, ECC Lock configure */
 411:../Firmware/RISCV/drivers/core_feature_base.h ****         rv_csr_t _reserved0:__RISCV_XLEN-1;     /*!< Reserved */
 412:../Firmware/RISCV/drivers/core_feature_base.h ****     } b;                                        /*!< Structure used for bit  access */
 413:../Firmware/RISCV/drivers/core_feature_base.h ****     rv_csr_t d;                                 /*!< Type      used for csr data access */
 414:../Firmware/RISCV/drivers/core_feature_base.h **** } CSR_MECCLOCK_Type;
 415:../Firmware/RISCV/drivers/core_feature_base.h **** 
 416:../Firmware/RISCV/drivers/core_feature_base.h **** /**
 417:../Firmware/RISCV/drivers/core_feature_base.h ****  * \brief  Union type to access MECC_CODE CSR register.
 418:../Firmware/RISCV/drivers/core_feature_base.h ****  */
 419:../Firmware/RISCV/drivers/core_feature_base.h **** typedef union {
 420:../Firmware/RISCV/drivers/core_feature_base.h ****     struct {
 421:../Firmware/RISCV/drivers/core_feature_base.h ****         rv_csr_t code:9;                        /*!< Used to inject ECC check code */
 422:../Firmware/RISCV/drivers/core_feature_base.h ****         rv_csr_t _reserved0:7;                  /*!< Reserved */
 423:../Firmware/RISCV/drivers/core_feature_base.h ****         rv_csr_t ramid:5;                       /*!< Indicate 2bit ECC error, software can clear th
 424:../Firmware/RISCV/drivers/core_feature_base.h ****         rv_csr_t _reserved1:3;                  /*!< Reserved */
 425:../Firmware/RISCV/drivers/core_feature_base.h ****         rv_csr_t sramid:5;                      /*!< Indicate 1bit ECC error, software can clear th
 426:../Firmware/RISCV/drivers/core_feature_base.h ****         rv_csr_t _reserved2:__RISCV_XLEN-29;    /*!< Reserved */
 427:../Firmware/RISCV/drivers/core_feature_base.h ****     } b;                                        /*!< Structure used for bit  access */
 428:../Firmware/RISCV/drivers/core_feature_base.h ****     rv_csr_t d;                                 /*!< Type      used for csr data access */
 429:../Firmware/RISCV/drivers/core_feature_base.h **** } CSR_MECCCODE_Type;
 430:../Firmware/RISCV/drivers/core_feature_base.h **** 
 431:../Firmware/RISCV/drivers/core_feature_base.h **** /** @} */ /* End of Doxygen Group NMSIS_Core_Base_Registers */
 432:../Firmware/RISCV/drivers/core_feature_base.h **** 
 433:../Firmware/RISCV/drivers/core_feature_base.h **** /* ###########################  Core Function Access  ########################### */
 434:../Firmware/RISCV/drivers/core_feature_base.h **** /**
 435:../Firmware/RISCV/drivers/core_feature_base.h ****  * \defgroup NMSIS_Core_CSR_Register_Access    Core CSR Register Access
 436:../Firmware/RISCV/drivers/core_feature_base.h ****  * \ingroup  NMSIS_Core
 437:../Firmware/RISCV/drivers/core_feature_base.h ****  * \brief    Functions to access the Core CSR Registers
 438:../Firmware/RISCV/drivers/core_feature_base.h ****  * \details
 439:../Firmware/RISCV/drivers/core_feature_base.h ****  *
 440:../Firmware/RISCV/drivers/core_feature_base.h ****  * The following functions or macros provide access to Core CSR registers.
 441:../Firmware/RISCV/drivers/core_feature_base.h ****  * - \ref NMSIS_Core_CSR_Encoding
 442:../Firmware/RISCV/drivers/core_feature_base.h ****  * - \ref NMSIS_Core_CSR_Registers
 443:../Firmware/RISCV/drivers/core_feature_base.h ****  *   @{
 444:../Firmware/RISCV/drivers/core_feature_base.h ****  */
 445:../Firmware/RISCV/drivers/core_feature_base.h **** 
 446:../Firmware/RISCV/drivers/core_feature_base.h **** 
 447:../Firmware/RISCV/drivers/core_feature_base.h **** #ifndef __ASSEMBLY__
 448:../Firmware/RISCV/drivers/core_feature_base.h **** 
 449:../Firmware/RISCV/drivers/core_feature_base.h **** /**
 450:../Firmware/RISCV/drivers/core_feature_base.h ****  * \brief CSR operation Macro for csrrw instruction.
 451:../Firmware/RISCV/drivers/core_feature_base.h ****  * \details
 452:../Firmware/RISCV/drivers/core_feature_base.h ****  * Read the content of csr register to __v,
 453:../Firmware/RISCV/drivers/core_feature_base.h ****  * then write content of val into csr register, then return __v
 454:../Firmware/RISCV/drivers/core_feature_base.h ****  * \param csr   CSR macro definition defined in
 455:../Firmware/RISCV/drivers/core_feature_base.h ****  *              \ref NMSIS_Core_CSR_Registers, eg. \ref CSR_MSTATUS
 456:../Firmware/RISCV/drivers/core_feature_base.h ****  * \param val   value to store into the CSR register
 457:../Firmware/RISCV/drivers/core_feature_base.h ****  * \return the CSR register value before written
 458:../Firmware/RISCV/drivers/core_feature_base.h ****  */
 459:../Firmware/RISCV/drivers/core_feature_base.h **** #define __RV_CSR_SWAP(csr, val)                                 \
 460:../Firmware/RISCV/drivers/core_feature_base.h ****     ({                                                          \
 461:../Firmware/RISCV/drivers/core_feature_base.h ****         register rv_csr_t __v = (unsigned long)(val);           \
 462:../Firmware/RISCV/drivers/core_feature_base.h ****         __ASM volatile("csrrw %0, " STRINGIFY(csr) ", %1"       \
 463:../Firmware/RISCV/drivers/core_feature_base.h ****                      : "=r"(__v)                                \
 464:../Firmware/RISCV/drivers/core_feature_base.h ****                      : "r"(__v)                                \
 465:../Firmware/RISCV/drivers/core_feature_base.h ****                      : "memory");                               \
 466:../Firmware/RISCV/drivers/core_feature_base.h ****         __v;                                                    \
 467:../Firmware/RISCV/drivers/core_feature_base.h ****     })
 468:../Firmware/RISCV/drivers/core_feature_base.h **** 
 469:../Firmware/RISCV/drivers/core_feature_base.h **** /**
 470:../Firmware/RISCV/drivers/core_feature_base.h ****  * \brief CSR operation Macro for csrr instruction.
 471:../Firmware/RISCV/drivers/core_feature_base.h ****  * \details
 472:../Firmware/RISCV/drivers/core_feature_base.h ****  * Read the content of csr register to __v and return it
 473:../Firmware/RISCV/drivers/core_feature_base.h ****  * \param csr   CSR macro definition defined in
 474:../Firmware/RISCV/drivers/core_feature_base.h ****  *              \ref NMSIS_Core_CSR_Registers, eg. \ref CSR_MSTATUS
 475:../Firmware/RISCV/drivers/core_feature_base.h ****  * \return the CSR register value
 476:../Firmware/RISCV/drivers/core_feature_base.h ****  */
 477:../Firmware/RISCV/drivers/core_feature_base.h **** #define __RV_CSR_READ(csr)                                      \
 478:../Firmware/RISCV/drivers/core_feature_base.h ****     ({                                                          \
 479:../Firmware/RISCV/drivers/core_feature_base.h ****         register rv_csr_t __v;                                  \
 480:../Firmware/RISCV/drivers/core_feature_base.h ****         __ASM volatile("csrr %0, " STRINGIFY(csr)               \
 481:../Firmware/RISCV/drivers/core_feature_base.h ****                      : "=r"(__v)                                \
 482:../Firmware/RISCV/drivers/core_feature_base.h ****                      :                                          \
 483:../Firmware/RISCV/drivers/core_feature_base.h ****                      : "memory");                               \
 484:../Firmware/RISCV/drivers/core_feature_base.h ****         __v;                                                    \
 485:../Firmware/RISCV/drivers/core_feature_base.h ****     })
 486:../Firmware/RISCV/drivers/core_feature_base.h **** 
 487:../Firmware/RISCV/drivers/core_feature_base.h **** /**
 488:../Firmware/RISCV/drivers/core_feature_base.h ****  * \brief CSR operation Macro for csrw instruction.
 489:../Firmware/RISCV/drivers/core_feature_base.h ****  * \details
 490:../Firmware/RISCV/drivers/core_feature_base.h ****  * Write the content of val to csr register
 491:../Firmware/RISCV/drivers/core_feature_base.h ****  * \param csr   CSR macro definition defined in
 492:../Firmware/RISCV/drivers/core_feature_base.h ****  *              \ref NMSIS_Core_CSR_Registers, eg. \ref CSR_MSTATUS
 493:../Firmware/RISCV/drivers/core_feature_base.h ****  * \param val   value to store into the CSR register
 494:../Firmware/RISCV/drivers/core_feature_base.h ****  */
 495:../Firmware/RISCV/drivers/core_feature_base.h **** #define __RV_CSR_WRITE(csr, val)                                \
 496:../Firmware/RISCV/drivers/core_feature_base.h ****     ({                                                          \
 497:../Firmware/RISCV/drivers/core_feature_base.h ****         register rv_csr_t __v = (rv_csr_t)(val);                \
 498:../Firmware/RISCV/drivers/core_feature_base.h ****         __ASM volatile("csrw " STRINGIFY(csr) ", %0"            \
 499:../Firmware/RISCV/drivers/core_feature_base.h ****                      :                                          \
 500:../Firmware/RISCV/drivers/core_feature_base.h ****                      : "r"(__v)                                \
 501:../Firmware/RISCV/drivers/core_feature_base.h ****                      : "memory");                               \
 502:../Firmware/RISCV/drivers/core_feature_base.h ****     })
 503:../Firmware/RISCV/drivers/core_feature_base.h **** 
 504:../Firmware/RISCV/drivers/core_feature_base.h **** /**
 505:../Firmware/RISCV/drivers/core_feature_base.h ****  * \brief CSR operation Macro for csrrs instruction.
 506:../Firmware/RISCV/drivers/core_feature_base.h ****  * \details
 507:../Firmware/RISCV/drivers/core_feature_base.h ****  * Read the content of csr register to __v,
 508:../Firmware/RISCV/drivers/core_feature_base.h ****  * then set csr register to be __v | val, then return __v
 509:../Firmware/RISCV/drivers/core_feature_base.h ****  * \param csr   CSR macro definition defined in
 510:../Firmware/RISCV/drivers/core_feature_base.h ****  *              \ref NMSIS_Core_CSR_Registers, eg. \ref CSR_MSTATUS
 511:../Firmware/RISCV/drivers/core_feature_base.h ****  * \param val   Mask value to be used wih csrrs instruction
 512:../Firmware/RISCV/drivers/core_feature_base.h ****  * \return the CSR register value before written
 513:../Firmware/RISCV/drivers/core_feature_base.h ****  */
 514:../Firmware/RISCV/drivers/core_feature_base.h **** #define __RV_CSR_READ_SET(csr, val)                             \
 515:../Firmware/RISCV/drivers/core_feature_base.h ****     ({                                                          \
 516:../Firmware/RISCV/drivers/core_feature_base.h ****         register rv_csr_t __v = (rv_csr_t)(val);                \
 517:../Firmware/RISCV/drivers/core_feature_base.h ****         __ASM volatile("csrrs %0, " STRINGIFY(csr) ", %1"       \
 518:../Firmware/RISCV/drivers/core_feature_base.h ****                      : "=r"(__v)                                \
 519:../Firmware/RISCV/drivers/core_feature_base.h ****                      : "r"(__v)                                \
 520:../Firmware/RISCV/drivers/core_feature_base.h ****                      : "memory");                               \
 521:../Firmware/RISCV/drivers/core_feature_base.h ****         __v;                                                    \
 522:../Firmware/RISCV/drivers/core_feature_base.h ****     })
 523:../Firmware/RISCV/drivers/core_feature_base.h **** 
 524:../Firmware/RISCV/drivers/core_feature_base.h **** /**
 525:../Firmware/RISCV/drivers/core_feature_base.h ****  * \brief CSR operation Macro for csrs instruction.
 526:../Firmware/RISCV/drivers/core_feature_base.h ****  * \details
 527:../Firmware/RISCV/drivers/core_feature_base.h ****  * Set csr register to be csr_content | val
 528:../Firmware/RISCV/drivers/core_feature_base.h ****  * \param csr   CSR macro definition defined in
 529:../Firmware/RISCV/drivers/core_feature_base.h ****  *              \ref NMSIS_Core_CSR_Registers, eg. \ref CSR_MSTATUS
 530:../Firmware/RISCV/drivers/core_feature_base.h ****  * \param val   Mask value to be used wih csrs instruction
 531:../Firmware/RISCV/drivers/core_feature_base.h ****  */
 532:../Firmware/RISCV/drivers/core_feature_base.h **** #define __RV_CSR_SET(csr, val)                                  \
 533:../Firmware/RISCV/drivers/core_feature_base.h ****     ({                                                          \
 534:../Firmware/RISCV/drivers/core_feature_base.h ****         register rv_csr_t __v = (rv_csr_t)(val);                \
 535:../Firmware/RISCV/drivers/core_feature_base.h ****         __ASM volatile("csrs " STRINGIFY(csr) ", %0"            \
 536:../Firmware/RISCV/drivers/core_feature_base.h ****                      :                                          \
 537:../Firmware/RISCV/drivers/core_feature_base.h ****                      : "r"(__v)                                \
 538:../Firmware/RISCV/drivers/core_feature_base.h ****                      : "memory");                               \
 539:../Firmware/RISCV/drivers/core_feature_base.h ****     })
 540:../Firmware/RISCV/drivers/core_feature_base.h **** 
 541:../Firmware/RISCV/drivers/core_feature_base.h **** /**
 542:../Firmware/RISCV/drivers/core_feature_base.h ****  * \brief CSR operation Macro for csrrc instruction.
 543:../Firmware/RISCV/drivers/core_feature_base.h ****  * \details
 544:../Firmware/RISCV/drivers/core_feature_base.h ****  * Read the content of csr register to __v,
 545:../Firmware/RISCV/drivers/core_feature_base.h ****  * then set csr register to be __v & ~val, then return __v
 546:../Firmware/RISCV/drivers/core_feature_base.h ****  * \param csr   CSR macro definition defined in
 547:../Firmware/RISCV/drivers/core_feature_base.h ****  *              \ref NMSIS_Core_CSR_Registers, eg. \ref CSR_MSTATUS
 548:../Firmware/RISCV/drivers/core_feature_base.h ****  * \param val   Mask value to be used wih csrrc instruction
 549:../Firmware/RISCV/drivers/core_feature_base.h ****  * \return the CSR register value before written
 550:../Firmware/RISCV/drivers/core_feature_base.h ****  */
 551:../Firmware/RISCV/drivers/core_feature_base.h **** #define __RV_CSR_READ_CLEAR(csr, val)                           \
 552:../Firmware/RISCV/drivers/core_feature_base.h ****     ({                                                          \
 553:../Firmware/RISCV/drivers/core_feature_base.h ****         register rv_csr_t __v = (rv_csr_t)(val);                \
 554:../Firmware/RISCV/drivers/core_feature_base.h ****         __ASM volatile("csrrc %0, " STRINGIFY(csr) ", %1"       \
 555:../Firmware/RISCV/drivers/core_feature_base.h ****                      : "=r"(__v)                                \
 556:../Firmware/RISCV/drivers/core_feature_base.h ****                      : "r"(__v)                                \
 557:../Firmware/RISCV/drivers/core_feature_base.h ****                      : "memory");                               \
 558:../Firmware/RISCV/drivers/core_feature_base.h ****         __v;                                                    \
 559:../Firmware/RISCV/drivers/core_feature_base.h ****     })
 560:../Firmware/RISCV/drivers/core_feature_base.h **** 
 561:../Firmware/RISCV/drivers/core_feature_base.h **** /**
 562:../Firmware/RISCV/drivers/core_feature_base.h ****  * \brief CSR operation Macro for csrc instruction.
 563:../Firmware/RISCV/drivers/core_feature_base.h ****  * \details
 564:../Firmware/RISCV/drivers/core_feature_base.h ****  * Set csr register to be csr_content & ~val
 565:../Firmware/RISCV/drivers/core_feature_base.h ****  * \param csr   CSR macro definition defined in
 566:../Firmware/RISCV/drivers/core_feature_base.h ****  *              \ref NMSIS_Core_CSR_Registers, eg. \ref CSR_MSTATUS
 567:../Firmware/RISCV/drivers/core_feature_base.h ****  * \param val   Mask value to be used wih csrc instruction
 568:../Firmware/RISCV/drivers/core_feature_base.h ****  */
 569:../Firmware/RISCV/drivers/core_feature_base.h **** #define __RV_CSR_CLEAR(csr, val)                                \
 570:../Firmware/RISCV/drivers/core_feature_base.h ****     ({                                                          \
 571:../Firmware/RISCV/drivers/core_feature_base.h ****         register rv_csr_t __v = (rv_csr_t)(val);                \
 572:../Firmware/RISCV/drivers/core_feature_base.h ****         __ASM volatile("csrc " STRINGIFY(csr) ", %0"            \
 573:../Firmware/RISCV/drivers/core_feature_base.h ****                      :                                          \
 574:../Firmware/RISCV/drivers/core_feature_base.h ****                      : "r"(__v)                                \
 575:../Firmware/RISCV/drivers/core_feature_base.h ****                      : "memory");                               \
 576:../Firmware/RISCV/drivers/core_feature_base.h ****     })
 577:../Firmware/RISCV/drivers/core_feature_base.h **** #endif /* __ASSEMBLY__ */
 578:../Firmware/RISCV/drivers/core_feature_base.h **** 
 579:../Firmware/RISCV/drivers/core_feature_base.h **** /**
 580:../Firmware/RISCV/drivers/core_feature_base.h ****  * \brief   Enable IRQ Interrupts
 581:../Firmware/RISCV/drivers/core_feature_base.h ****  * \details Enables IRQ interrupts by setting the MIE-bit in the MSTATUS Register.
 582:../Firmware/RISCV/drivers/core_feature_base.h ****  * \remarks
 583:../Firmware/RISCV/drivers/core_feature_base.h ****  *          Can only be executed in Privileged modes.
 584:../Firmware/RISCV/drivers/core_feature_base.h ****  */
 585:../Firmware/RISCV/drivers/core_feature_base.h **** __STATIC_FORCEINLINE void __enable_irq(void)
 586:../Firmware/RISCV/drivers/core_feature_base.h **** {
 587:../Firmware/RISCV/drivers/core_feature_base.h ****     __RV_CSR_SET(CSR_MSTATUS, MSTATUS_MIE);
  30              		.loc 2 587 5
  31 0008 A144     		li	s1,8
  32              	 #APP
  33              	# 587 "../Firmware/RISCV/drivers/core_feature_base.h" 1
 588              	}
  34              		csrs 0x300, s1
  35              	# 0 "" 2
  36              	 #NO_APP
  37              	.LBE50:
  38              		.loc 2 588 1
  39 000e 0100     		nop
  40              	.LBE49:
  41              	.LBE48:
  46:../Firmware/GD32VW55x_standard_peripheral/Source/gd32vw55x_eclic.c ****     __enable_irq();
  47:../Firmware/GD32VW55x_standard_peripheral/Source/gd32vw55x_eclic.c **** }
  42              		.loc 1 47 1
  43 0010 0100     		nop
  44 0012 3244     		lw	s0,12(sp)
  45              		.cfi_restore 8
  46              		.cfi_def_cfa 2, 16
  47 0014 A244     		lw	s1,8(sp)
  48              		.cfi_restore 9
  49 0016 4101     		addi	sp,sp,16
  50              		.cfi_def_cfa_offset 0
  51 0018 8280     		jr	ra
  52              		.cfi_endproc
  53              	.LFE347:
  55              		.section	.text.eclic_global_interrupt_disable,"ax",@progbits
  56              		.align	1
  57              		.globl	eclic_global_interrupt_disable
  59              	eclic_global_interrupt_disable:
  60              	.LFB348:
  48:../Firmware/GD32VW55x_standard_peripheral/Source/gd32vw55x_eclic.c **** 
  49:../Firmware/GD32VW55x_standard_peripheral/Source/gd32vw55x_eclic.c **** /*!
  50:../Firmware/GD32VW55x_standard_peripheral/Source/gd32vw55x_eclic.c ****     \brief      disable the global interrupt
  51:../Firmware/GD32VW55x_standard_peripheral/Source/gd32vw55x_eclic.c ****     \param[in]  none
  52:../Firmware/GD32VW55x_standard_peripheral/Source/gd32vw55x_eclic.c ****     \param[out] none
  53:../Firmware/GD32VW55x_standard_peripheral/Source/gd32vw55x_eclic.c ****     \retval     none
  54:../Firmware/GD32VW55x_standard_peripheral/Source/gd32vw55x_eclic.c **** */
  55:../Firmware/GD32VW55x_standard_peripheral/Source/gd32vw55x_eclic.c **** void eclic_global_interrupt_disable(void)
  56:../Firmware/GD32VW55x_standard_peripheral/Source/gd32vw55x_eclic.c **** {
  61              		.loc 1 56 1
  62              		.cfi_startproc
  63 0000 4111     		addi	sp,sp,-16
  64              		.cfi_def_cfa_offset 16
  65 0002 22C6     		sw	s0,12(sp)
  66 0004 26C4     		sw	s1,8(sp)
  67              		.cfi_offset 8, -4
  68              		.cfi_offset 9, -8
  69 0006 0008     		addi	s0,sp,16
  70              		.cfi_def_cfa 8, 0
  71              	.LBB51:
  72              	.LBB52:
  73              	.LBB53:
 589:../Firmware/RISCV/drivers/core_feature_base.h **** 
 590:../Firmware/RISCV/drivers/core_feature_base.h **** /**
 591:../Firmware/RISCV/drivers/core_feature_base.h ****  * \brief   Disable IRQ Interrupts
 592:../Firmware/RISCV/drivers/core_feature_base.h ****  * \details Disables IRQ interrupts by clearing the MIE-bit in the MSTATUS Register.
 593:../Firmware/RISCV/drivers/core_feature_base.h ****  * \remarks
 594:../Firmware/RISCV/drivers/core_feature_base.h ****  *          Can only be executed in Privileged modes.
 595:../Firmware/RISCV/drivers/core_feature_base.h ****  */
 596:../Firmware/RISCV/drivers/core_feature_base.h **** __STATIC_FORCEINLINE void __disable_irq(void)
 597:../Firmware/RISCV/drivers/core_feature_base.h **** {
 598:../Firmware/RISCV/drivers/core_feature_base.h ****     __RV_CSR_CLEAR(CSR_MSTATUS, MSTATUS_MIE);
  74              		.loc 2 598 5
  75 0008 A144     		li	s1,8
  76              	 #APP
  77              	# 598 "../Firmware/RISCV/drivers/core_feature_base.h" 1
 599              	}
  78              		csrc 0x300, s1
  79              	# 0 "" 2
  80              	 #NO_APP
  81              	.LBE53:
  82              		.loc 2 599 1
  83 000e 0100     		nop
  84              	.LBE52:
  85              	.LBE51:
  57:../Firmware/GD32VW55x_standard_peripheral/Source/gd32vw55x_eclic.c ****     __disable_irq();
  58:../Firmware/GD32VW55x_standard_peripheral/Source/gd32vw55x_eclic.c **** }
  86              		.loc 1 58 1
  87 0010 0100     		nop
  88 0012 3244     		lw	s0,12(sp)
  89              		.cfi_restore 8
  90              		.cfi_def_cfa 2, 16
  91 0014 A244     		lw	s1,8(sp)
  92              		.cfi_restore 9
  93 0016 4101     		addi	sp,sp,16
  94              		.cfi_def_cfa_offset 0
  95 0018 8280     		jr	ra
  96              		.cfi_endproc
  97              	.LFE348:
  99              		.section	.text.eclic_level_threshold_set,"ax",@progbits
 100              		.align	1
 101              		.globl	eclic_level_threshold_set
 103              	eclic_level_threshold_set:
 104              	.LFB349:
  59:../Firmware/GD32VW55x_standard_peripheral/Source/gd32vw55x_eclic.c **** 
  60:../Firmware/GD32VW55x_standard_peripheral/Source/gd32vw55x_eclic.c **** /*!
  61:../Firmware/GD32VW55x_standard_peripheral/Source/gd32vw55x_eclic.c ****     \brief      set machine mode interrupt level threshold
  62:../Firmware/GD32VW55x_standard_peripheral/Source/gd32vw55x_eclic.c ****     \param[in]  threshold: the level threshold needed to set (0 ~ 15)
  63:../Firmware/GD32VW55x_standard_peripheral/Source/gd32vw55x_eclic.c ****     \param[out] none
  64:../Firmware/GD32VW55x_standard_peripheral/Source/gd32vw55x_eclic.c ****     \retval     none
  65:../Firmware/GD32VW55x_standard_peripheral/Source/gd32vw55x_eclic.c **** */
  66:../Firmware/GD32VW55x_standard_peripheral/Source/gd32vw55x_eclic.c **** void eclic_level_threshold_set(uint8_t threshold)
  67:../Firmware/GD32VW55x_standard_peripheral/Source/gd32vw55x_eclic.c **** {
 105              		.loc 1 67 1
 106              		.cfi_startproc
 107 0000 7971     		addi	sp,sp,-48
 108              		.cfi_def_cfa_offset 48
 109 0002 22D6     		sw	s0,44(sp)
 110              		.cfi_offset 8, -4
 111 0004 0018     		addi	s0,sp,48
 112              		.cfi_def_cfa 8, 0
 113 0006 AA87     		mv	a5,a0
 114 0008 A30FF4FC 		sb	a5,-33(s0)
 115 000c 8347F4FD 		lbu	a5,-33(s0)
 116 0010 A307F4FE 		sb	a5,-17(s0)
 117              	.LBB54:
 118              	.LBB55:
 119              		.file 3 "../Firmware/RISCV/drivers/core_feature_eclic.h"
   1:../Firmware/RISCV/drivers/core_feature_eclic.h **** /*
   2:../Firmware/RISCV/drivers/core_feature_eclic.h ****  * Copyright (c) 2019 Nuclei Limited. All rights reserved.
   3:../Firmware/RISCV/drivers/core_feature_eclic.h ****  *
   4:../Firmware/RISCV/drivers/core_feature_eclic.h ****  * SPDX-License-Identifier: Apache-2.0
   5:../Firmware/RISCV/drivers/core_feature_eclic.h ****  *
   6:../Firmware/RISCV/drivers/core_feature_eclic.h ****  * Licensed under the Apache License, Version 2.0 (the License); you may
   7:../Firmware/RISCV/drivers/core_feature_eclic.h ****  * not use this file except in compliance with the License.
   8:../Firmware/RISCV/drivers/core_feature_eclic.h ****  * You may obtain a copy of the License at
   9:../Firmware/RISCV/drivers/core_feature_eclic.h ****  *
  10:../Firmware/RISCV/drivers/core_feature_eclic.h ****  * www.apache.org/licenses/LICENSE-2.0
  11:../Firmware/RISCV/drivers/core_feature_eclic.h ****  *
  12:../Firmware/RISCV/drivers/core_feature_eclic.h ****  * Unless required by applicable law or agreed to in writing, software
  13:../Firmware/RISCV/drivers/core_feature_eclic.h ****  * distributed under the License is distributed on an AS IS BASIS, WITHOUT
  14:../Firmware/RISCV/drivers/core_feature_eclic.h ****  * WARRANTIES OR CONDITIONS OF ANY KIND, either express or implied.
  15:../Firmware/RISCV/drivers/core_feature_eclic.h ****  * See the License for the specific language governing permissions and
  16:../Firmware/RISCV/drivers/core_feature_eclic.h ****  * limitations under the License.
  17:../Firmware/RISCV/drivers/core_feature_eclic.h ****  */
  18:../Firmware/RISCV/drivers/core_feature_eclic.h **** #ifndef __CORE_FEATURE_ECLIC__
  19:../Firmware/RISCV/drivers/core_feature_eclic.h **** #define __CORE_FEATURE_ECLIC__
  20:../Firmware/RISCV/drivers/core_feature_eclic.h **** /*!
  21:../Firmware/RISCV/drivers/core_feature_eclic.h ****  * @file     core_feature_eclic.h
  22:../Firmware/RISCV/drivers/core_feature_eclic.h ****  * @brief    ECLIC feature API header file for Nuclei N/NX Core
  23:../Firmware/RISCV/drivers/core_feature_eclic.h ****  */
  24:../Firmware/RISCV/drivers/core_feature_eclic.h **** /*
  25:../Firmware/RISCV/drivers/core_feature_eclic.h ****  * ECLIC Feature Configuration Macro:
  26:../Firmware/RISCV/drivers/core_feature_eclic.h ****  * 1. __ECLIC_PRESENT:  Define whether Enhanced Core Local Interrupt Controller (ECLIC) Unit is pre
  27:../Firmware/RISCV/drivers/core_feature_eclic.h ****  *   * 0: Not present
  28:../Firmware/RISCV/drivers/core_feature_eclic.h ****  *   * 1: Present
  29:../Firmware/RISCV/drivers/core_feature_eclic.h ****  * 2. __ECLIC_BASEADDR:  Base address of the ECLIC unit.
  30:../Firmware/RISCV/drivers/core_feature_eclic.h ****  * 3. ECLIC_GetInfoCtlbits():  Define the number of hardware bits are actually implemented in the c
  31:../Firmware/RISCV/drivers/core_feature_eclic.h ****  *   Valid number is 1 - 8.
  32:../Firmware/RISCV/drivers/core_feature_eclic.h ****  * 4. __ECLIC_INTNUM  : Define the external interrupt number of ECLIC Unit
  33:../Firmware/RISCV/drivers/core_feature_eclic.h ****  *
  34:../Firmware/RISCV/drivers/core_feature_eclic.h ****  */
  35:../Firmware/RISCV/drivers/core_feature_eclic.h **** #ifdef __cplusplus
  36:../Firmware/RISCV/drivers/core_feature_eclic.h ****  extern "C" {
  37:../Firmware/RISCV/drivers/core_feature_eclic.h **** #endif
  38:../Firmware/RISCV/drivers/core_feature_eclic.h **** 
  39:../Firmware/RISCV/drivers/core_feature_eclic.h **** #if defined(__ECLIC_PRESENT) && (__ECLIC_PRESENT == 1)
  40:../Firmware/RISCV/drivers/core_feature_eclic.h **** /**
  41:../Firmware/RISCV/drivers/core_feature_eclic.h ****  * \defgroup NMSIS_Core_ECLIC_Registers     Register Define and Type Definitions Of ECLIC
  42:../Firmware/RISCV/drivers/core_feature_eclic.h ****  * \ingroup NMSIS_Core_Registers
  43:../Firmware/RISCV/drivers/core_feature_eclic.h ****  * \brief   Type definitions and defines for eclic registers.
  44:../Firmware/RISCV/drivers/core_feature_eclic.h ****  *
  45:../Firmware/RISCV/drivers/core_feature_eclic.h ****  * @{
  46:../Firmware/RISCV/drivers/core_feature_eclic.h ****  */
  47:../Firmware/RISCV/drivers/core_feature_eclic.h **** 
  48:../Firmware/RISCV/drivers/core_feature_eclic.h **** /**
  49:../Firmware/RISCV/drivers/core_feature_eclic.h ****  * \brief  Union type to access CLICFG configure register.
  50:../Firmware/RISCV/drivers/core_feature_eclic.h ****  */
  51:../Firmware/RISCV/drivers/core_feature_eclic.h **** typedef union
  52:../Firmware/RISCV/drivers/core_feature_eclic.h **** {
  53:../Firmware/RISCV/drivers/core_feature_eclic.h ****     struct {
  54:../Firmware/RISCV/drivers/core_feature_eclic.h ****         uint8_t _reserved0:1;                   /*!< bit:     0   Overflow condition code flag */
  55:../Firmware/RISCV/drivers/core_feature_eclic.h ****         uint8_t nlbits:4;                       /*!< bit:     29  Carry condition code flag */
  56:../Firmware/RISCV/drivers/core_feature_eclic.h ****         uint8_t _reserved1:2;                   /*!< bit:     30  Zero condition code flag */
  57:../Firmware/RISCV/drivers/core_feature_eclic.h ****         uint8_t _reserved2:1;                   /*!< bit:     31  Negative condition code flag */
  58:../Firmware/RISCV/drivers/core_feature_eclic.h ****     } b;                                        /*!< Structure used for bit  access */
  59:../Firmware/RISCV/drivers/core_feature_eclic.h ****     uint8_t w;                                  /*!< Type      used for byte access */
  60:../Firmware/RISCV/drivers/core_feature_eclic.h **** } CLICCFG_Type;
  61:../Firmware/RISCV/drivers/core_feature_eclic.h **** 
  62:../Firmware/RISCV/drivers/core_feature_eclic.h **** /**
  63:../Firmware/RISCV/drivers/core_feature_eclic.h ****  * \brief  Union type to access CLICINFO information register.
  64:../Firmware/RISCV/drivers/core_feature_eclic.h ****  */
  65:../Firmware/RISCV/drivers/core_feature_eclic.h **** typedef union {
  66:../Firmware/RISCV/drivers/core_feature_eclic.h ****     struct {
  67:../Firmware/RISCV/drivers/core_feature_eclic.h ****         uint32_t numint:13;                     /*!< bit:  0..12   number of maximum interrupt inpu
  68:../Firmware/RISCV/drivers/core_feature_eclic.h ****         uint32_t version:8;                     /*!< bit:  13..20  20:17 for architecture version,1
  69:../Firmware/RISCV/drivers/core_feature_eclic.h ****         uint32_t intctlbits:4;                  /*!< bit:  21..24  specifies how many hardware bits
  70:../Firmware/RISCV/drivers/core_feature_eclic.h ****         uint32_t _reserved0:7;                  /*!< bit:  25..31  Reserved */
  71:../Firmware/RISCV/drivers/core_feature_eclic.h ****     } b;                                        /*!< Structure used for bit  access */
  72:../Firmware/RISCV/drivers/core_feature_eclic.h ****     uint32_t w;                                 /*!< Type      used for word access */
  73:../Firmware/RISCV/drivers/core_feature_eclic.h **** } CLICINFO_Type;
  74:../Firmware/RISCV/drivers/core_feature_eclic.h **** 
  75:../Firmware/RISCV/drivers/core_feature_eclic.h **** /**
  76:../Firmware/RISCV/drivers/core_feature_eclic.h ****  * \brief Access to the structure of a vector interrupt controller.
  77:../Firmware/RISCV/drivers/core_feature_eclic.h ****  */
  78:../Firmware/RISCV/drivers/core_feature_eclic.h **** typedef struct {
  79:../Firmware/RISCV/drivers/core_feature_eclic.h ****     __IOM uint8_t  INTIP;                       /*!< Offset: 0x000 (R/W)  Interrupt set pending reg
  80:../Firmware/RISCV/drivers/core_feature_eclic.h ****     __IOM uint8_t  INTIE;                       /*!< Offset: 0x001 (R/W)  Interrupt set enable regi
  81:../Firmware/RISCV/drivers/core_feature_eclic.h ****     __IOM uint8_t  INTATTR;                     /*!< Offset: 0x002 (R/W)  Interrupt set attributes 
  82:../Firmware/RISCV/drivers/core_feature_eclic.h ****     __IOM uint8_t  INTCTRL;                     /*!< Offset: 0x003 (R/W)  Interrupt configure regis
  83:../Firmware/RISCV/drivers/core_feature_eclic.h **** } CLIC_CTRL_Type;
  84:../Firmware/RISCV/drivers/core_feature_eclic.h **** 
  85:../Firmware/RISCV/drivers/core_feature_eclic.h **** typedef struct {
  86:../Firmware/RISCV/drivers/core_feature_eclic.h ****     __IOM uint8_t   CFG;                        /*!< Offset: 0x000 (R/W)  CLIC configuration regist
  87:../Firmware/RISCV/drivers/core_feature_eclic.h ****     uint8_t RESERVED0[3];
  88:../Firmware/RISCV/drivers/core_feature_eclic.h ****     __IM uint32_t  INFO;                        /*!< Offset: 0x004 (R/ )  CLIC information register
  89:../Firmware/RISCV/drivers/core_feature_eclic.h ****     uint8_t RESERVED1[3];
  90:../Firmware/RISCV/drivers/core_feature_eclic.h ****     __IOM uint8_t  MTH;                         /*!< Offset: 0x00B (R/W)  CLIC machine mode thresho
  91:../Firmware/RISCV/drivers/core_feature_eclic.h ****     uint32_t RESERVED2[0x3FD];
  92:../Firmware/RISCV/drivers/core_feature_eclic.h ****     CLIC_CTRL_Type CTRL[4096];                  /*!< Offset: 0x1000 (R/W) CLIC register structure f
  93:../Firmware/RISCV/drivers/core_feature_eclic.h **** } CLIC_Type;
  94:../Firmware/RISCV/drivers/core_feature_eclic.h **** 
  95:../Firmware/RISCV/drivers/core_feature_eclic.h **** #define CLIC_CLICCFG_NLBIT_Pos                 1U                                       /*!< CLIC C
  96:../Firmware/RISCV/drivers/core_feature_eclic.h **** #define CLIC_CLICCFG_NLBIT_Msk                 (0xFUL << CLIC_CLICCFG_NLBIT_Pos)        /*!< CLIC C
  97:../Firmware/RISCV/drivers/core_feature_eclic.h **** 
  98:../Firmware/RISCV/drivers/core_feature_eclic.h **** #define CLIC_CLICINFO_CTLBIT_Pos                21U                                     /*!< CLIC I
  99:../Firmware/RISCV/drivers/core_feature_eclic.h **** #define CLIC_CLICINFO_CTLBIT_Msk                (0xFUL << CLIC_CLICINFO_CTLBIT_Pos)     /*!< CLIC I
 100:../Firmware/RISCV/drivers/core_feature_eclic.h **** 
 101:../Firmware/RISCV/drivers/core_feature_eclic.h **** #define CLIC_CLICINFO_VER_Pos                  13U                                      /*!< CLIC C
 102:../Firmware/RISCV/drivers/core_feature_eclic.h **** #define CLIC_CLICINFO_VER_Msk                  (0xFFUL << CLIC_CLICCFG_NLBIT_Pos)       /*!< CLIC C
 103:../Firmware/RISCV/drivers/core_feature_eclic.h **** 
 104:../Firmware/RISCV/drivers/core_feature_eclic.h **** #define CLIC_CLICINFO_NUM_Pos                  0U                                       /*!< CLIC C
 105:../Firmware/RISCV/drivers/core_feature_eclic.h **** #define CLIC_CLICINFO_NUM_Msk                  (0xFFFUL << CLIC_CLICINFO_NUM_Pos)       /*!< CLIC C
 106:../Firmware/RISCV/drivers/core_feature_eclic.h **** 
 107:../Firmware/RISCV/drivers/core_feature_eclic.h **** #define CLIC_INTIP_IP_Pos                      0U                                       /*!< CLIC I
 108:../Firmware/RISCV/drivers/core_feature_eclic.h **** #define CLIC_INTIP_IP_Msk                      (0x1UL << CLIC_INTIP_IP_Pos)             /*!< CLIC I
 109:../Firmware/RISCV/drivers/core_feature_eclic.h **** 
 110:../Firmware/RISCV/drivers/core_feature_eclic.h **** #define CLIC_INTIE_IE_Pos                      0U                                       /*!< CLIC I
 111:../Firmware/RISCV/drivers/core_feature_eclic.h **** #define CLIC_INTIE_IE_Msk                      (0x1UL << CLIC_INTIE_IE_Pos)             /*!< CLIC I
 112:../Firmware/RISCV/drivers/core_feature_eclic.h **** 
 113:../Firmware/RISCV/drivers/core_feature_eclic.h **** #define CLIC_INTATTR_TRIG_Pos                  1U                                       /*!< CLIC I
 114:../Firmware/RISCV/drivers/core_feature_eclic.h **** #define CLIC_INTATTR_TRIG_Msk                  (0x3UL << CLIC_INTATTR_TRIG_Pos)         /*!< CLIC I
 115:../Firmware/RISCV/drivers/core_feature_eclic.h **** 
 116:../Firmware/RISCV/drivers/core_feature_eclic.h **** #define CLIC_INTATTR_SHV_Pos                   0U                                       /*!< CLIC I
 117:../Firmware/RISCV/drivers/core_feature_eclic.h **** #define CLIC_INTATTR_SHV_Msk                   (0x1UL << CLIC_INTATTR_SHV_Pos)          /*!< CLIC I
 118:../Firmware/RISCV/drivers/core_feature_eclic.h **** 
 119:../Firmware/RISCV/drivers/core_feature_eclic.h **** #define ECLIC_MAX_NLBITS                       8U                                       /*!< Max nl
 120:../Firmware/RISCV/drivers/core_feature_eclic.h **** #define ECLIC_MODE_MTVEC_Msk                   3U                                       /*!< ECLIC 
 121:../Firmware/RISCV/drivers/core_feature_eclic.h **** 
 122:../Firmware/RISCV/drivers/core_feature_eclic.h **** #define ECLIC_NON_VECTOR_INTERRUPT             0x0                                      /*!< Non-Ve
 123:../Firmware/RISCV/drivers/core_feature_eclic.h **** #define ECLIC_VECTOR_INTERRUPT                 0x1                                      /*!< Vector
 124:../Firmware/RISCV/drivers/core_feature_eclic.h **** 
 125:../Firmware/RISCV/drivers/core_feature_eclic.h **** /**\brief ECLIC Trigger Enum for different Trigger Type */
 126:../Firmware/RISCV/drivers/core_feature_eclic.h **** typedef enum ECLIC_TRIGGER {
 127:../Firmware/RISCV/drivers/core_feature_eclic.h ****     ECLIC_LEVEL_TRIGGER = 0x0,          /*!< Level Triggerred, trig[0] = 0 */
 128:../Firmware/RISCV/drivers/core_feature_eclic.h ****     ECLIC_POSTIVE_EDGE_TRIGGER = 0x1,   /*!< Postive/Rising Edge Triggered, trig[0] = 1, trig[1] = 
 129:../Firmware/RISCV/drivers/core_feature_eclic.h ****     ECLIC_NEGTIVE_EDGE_TRIGGER = 0x3,   /*!< Negtive/Falling Edge Triggered, trig[0] = 1, trig[1] =
 130:../Firmware/RISCV/drivers/core_feature_eclic.h ****     ECLIC_MAX_TRIGGER = 0x3             /*!< MAX Supported Trigger Mode */
 131:../Firmware/RISCV/drivers/core_feature_eclic.h **** } ECLIC_TRIGGER_Type;
 132:../Firmware/RISCV/drivers/core_feature_eclic.h **** 
 133:../Firmware/RISCV/drivers/core_feature_eclic.h **** #ifndef __ECLIC_BASEADDR
 134:../Firmware/RISCV/drivers/core_feature_eclic.h **** /* Base address of ECLIC(__ECLIC_BASEADDR) should be defined in <Device.h> */
 135:../Firmware/RISCV/drivers/core_feature_eclic.h **** #error "__ECLIC_BASEADDR is not defined, please check!"
 136:../Firmware/RISCV/drivers/core_feature_eclic.h **** #endif
 137:../Firmware/RISCV/drivers/core_feature_eclic.h **** 
 138:../Firmware/RISCV/drivers/core_feature_eclic.h **** #ifndef __ECLIC_INTCTLBITS
 139:../Firmware/RISCV/drivers/core_feature_eclic.h **** /* Define __ECLIC_INTCTLBITS to get via ECLIC->INFO if not defined */
 140:../Firmware/RISCV/drivers/core_feature_eclic.h **** #define __ECLIC_INTCTLBITS                  (__ECLIC_GetInfoCtlbits())
 141:../Firmware/RISCV/drivers/core_feature_eclic.h **** #endif
 142:../Firmware/RISCV/drivers/core_feature_eclic.h **** 
 143:../Firmware/RISCV/drivers/core_feature_eclic.h **** /* ECLIC Memory mapping of Device */
 144:../Firmware/RISCV/drivers/core_feature_eclic.h **** #define ECLIC_BASE                          __ECLIC_BASEADDR                            /*!< ECLIC 
 145:../Firmware/RISCV/drivers/core_feature_eclic.h **** #define ECLIC                               ((CLIC_Type *) ECLIC_BASE)                  /*!< CLIC c
 146:../Firmware/RISCV/drivers/core_feature_eclic.h **** 
 147:../Firmware/RISCV/drivers/core_feature_eclic.h **** /** @} */ /* end of group NMSIS_Core_ECLIC_Registers */
 148:../Firmware/RISCV/drivers/core_feature_eclic.h **** 
 149:../Firmware/RISCV/drivers/core_feature_eclic.h **** /* ##########################   ECLIC functions  #################################### */
 150:../Firmware/RISCV/drivers/core_feature_eclic.h **** /**
 151:../Firmware/RISCV/drivers/core_feature_eclic.h ****  * \defgroup   NMSIS_Core_IntExc        Interrupts and Exceptions
 152:../Firmware/RISCV/drivers/core_feature_eclic.h ****  * \brief Functions that manage interrupts and exceptions via the ECLIC.
 153:../Firmware/RISCV/drivers/core_feature_eclic.h ****  *
 154:../Firmware/RISCV/drivers/core_feature_eclic.h ****  * @{
 155:../Firmware/RISCV/drivers/core_feature_eclic.h ****  */
 156:../Firmware/RISCV/drivers/core_feature_eclic.h **** 
 157:../Firmware/RISCV/drivers/core_feature_eclic.h **** /**
 158:../Firmware/RISCV/drivers/core_feature_eclic.h ****  * \brief  Definition of IRQn numbers
 159:../Firmware/RISCV/drivers/core_feature_eclic.h ****  * \details
 160:../Firmware/RISCV/drivers/core_feature_eclic.h ****  * The core interrupt enumeration names for IRQn values are defined in the file <b><Device>.h</b>.
 161:../Firmware/RISCV/drivers/core_feature_eclic.h ****  * - Interrupt ID(IRQn) from 0 to 18 are reserved for core internal interrupts.
 162:../Firmware/RISCV/drivers/core_feature_eclic.h ****  * - Interrupt ID(IRQn) start from 19 represent device-specific external interrupts.
 163:../Firmware/RISCV/drivers/core_feature_eclic.h ****  * - The first device-specific interrupt has the IRQn value 19.
 164:../Firmware/RISCV/drivers/core_feature_eclic.h ****  *
 165:../Firmware/RISCV/drivers/core_feature_eclic.h ****  * The table below describes the core interrupt names and their availability in various Nuclei Core
 166:../Firmware/RISCV/drivers/core_feature_eclic.h ****  */
 167:../Firmware/RISCV/drivers/core_feature_eclic.h **** /* The following enum IRQn definition in this file
 168:../Firmware/RISCV/drivers/core_feature_eclic.h ****  * is only used for doxygen documentation generation,
 169:../Firmware/RISCV/drivers/core_feature_eclic.h ****  * The <Device>.h is the real file to define it by vendor
 170:../Firmware/RISCV/drivers/core_feature_eclic.h ****  */
 171:../Firmware/RISCV/drivers/core_feature_eclic.h **** #if defined(__ONLY_FOR_DOXYGEN_DOCUMENT_GENERATION__)
 172:../Firmware/RISCV/drivers/core_feature_eclic.h **** typedef enum IRQn {
 173:../Firmware/RISCV/drivers/core_feature_eclic.h ****     /* ========= Nuclei N/NX Core Specific Interrupt Numbers  =========== */
 174:../Firmware/RISCV/drivers/core_feature_eclic.h ****     /* Core Internal Interrupt IRQn definitions */
 175:../Firmware/RISCV/drivers/core_feature_eclic.h ****     Reserved0_IRQn            =   0,              /*!<  Internal reserved */
 176:../Firmware/RISCV/drivers/core_feature_eclic.h ****     Reserved1_IRQn            =   1,              /*!<  Internal reserved */
 177:../Firmware/RISCV/drivers/core_feature_eclic.h ****     Reserved2_IRQn            =   2,              /*!<  Internal reserved */
 178:../Firmware/RISCV/drivers/core_feature_eclic.h ****     SysTimerSW_IRQn           =   3,              /*!<  System Timer SW interrupt */
 179:../Firmware/RISCV/drivers/core_feature_eclic.h ****     Reserved3_IRQn            =   4,              /*!<  Internal reserved */
 180:../Firmware/RISCV/drivers/core_feature_eclic.h ****     Reserved4_IRQn            =   5,              /*!<  Internal reserved */
 181:../Firmware/RISCV/drivers/core_feature_eclic.h ****     Reserved5_IRQn            =   6,              /*!<  Internal reserved */
 182:../Firmware/RISCV/drivers/core_feature_eclic.h ****     SysTimer_IRQn             =   7,              /*!<  System Timer Interrupt */
 183:../Firmware/RISCV/drivers/core_feature_eclic.h ****     Reserved6_IRQn            =   8,              /*!<  Internal reserved */
 184:../Firmware/RISCV/drivers/core_feature_eclic.h ****     Reserved7_IRQn            =   9,              /*!<  Internal reserved */
 185:../Firmware/RISCV/drivers/core_feature_eclic.h ****     Reserved8_IRQn            =  10,              /*!<  Internal reserved */
 186:../Firmware/RISCV/drivers/core_feature_eclic.h ****     Reserved9_IRQn            =  11,              /*!<  Internal reserved */
 187:../Firmware/RISCV/drivers/core_feature_eclic.h ****     Reserved10_IRQn           =  12,              /*!<  Internal reserved */
 188:../Firmware/RISCV/drivers/core_feature_eclic.h ****     Reserved11_IRQn           =  13,              /*!<  Internal reserved */
 189:../Firmware/RISCV/drivers/core_feature_eclic.h ****     Reserved12_IRQn           =  14,              /*!<  Internal reserved */
 190:../Firmware/RISCV/drivers/core_feature_eclic.h ****     Reserved13_IRQn           =  15,              /*!<  Internal reserved */
 191:../Firmware/RISCV/drivers/core_feature_eclic.h ****     Reserved14_IRQn           =  16,              /*!<  Internal reserved */
 192:../Firmware/RISCV/drivers/core_feature_eclic.h ****     Reserved15_IRQn           =  17,              /*!<  Internal reserved */
 193:../Firmware/RISCV/drivers/core_feature_eclic.h ****     Reserved16_IRQn           =  18,              /*!<  Internal reserved */
 194:../Firmware/RISCV/drivers/core_feature_eclic.h **** 
 195:../Firmware/RISCV/drivers/core_feature_eclic.h ****     /* ========= Device Specific Interrupt Numbers  =================== */
 196:../Firmware/RISCV/drivers/core_feature_eclic.h ****     /* ToDo: add here your device specific external interrupt numbers.
 197:../Firmware/RISCV/drivers/core_feature_eclic.h ****      * 19~max(NUM_INTERRUPT, 1023) is reserved number for user.
 198:../Firmware/RISCV/drivers/core_feature_eclic.h ****      * Maxmum interrupt supported could get from clicinfo.NUM_INTERRUPT.
 199:../Firmware/RISCV/drivers/core_feature_eclic.h ****      * According the interrupt handlers defined in startup_Device.S
 200:../Firmware/RISCV/drivers/core_feature_eclic.h ****      * eg.: Interrupt for Timer#1       eclic_tim1_handler   ->   TIM1_IRQn */
 201:../Firmware/RISCV/drivers/core_feature_eclic.h ****     FirstDeviceSpecificInterrupt_IRQn    = 19,    /*!< First Device Specific Interrupt */
 202:../Firmware/RISCV/drivers/core_feature_eclic.h ****     SOC_INT_MAX,                                  /*!< Number of total interrupts */
 203:../Firmware/RISCV/drivers/core_feature_eclic.h **** } IRQn_Type;
 204:../Firmware/RISCV/drivers/core_feature_eclic.h **** #endif /* __ONLY_FOR_DOXYGEN_DOCUMENT_GENERATION__ */
 205:../Firmware/RISCV/drivers/core_feature_eclic.h **** 
 206:../Firmware/RISCV/drivers/core_feature_eclic.h **** #ifdef NMSIS_ECLIC_VIRTUAL
 207:../Firmware/RISCV/drivers/core_feature_eclic.h ****     #ifndef NMSIS_ECLIC_VIRTUAL_HEADER_FILE
 208:../Firmware/RISCV/drivers/core_feature_eclic.h ****         #define NMSIS_ECLIC_VIRTUAL_HEADER_FILE "nmsis_eclic_virtual.h"
 209:../Firmware/RISCV/drivers/core_feature_eclic.h ****     #endif
 210:../Firmware/RISCV/drivers/core_feature_eclic.h ****     #include NMSIS_ECLIC_VIRTUAL_HEADER_FILE
 211:../Firmware/RISCV/drivers/core_feature_eclic.h **** #else
 212:../Firmware/RISCV/drivers/core_feature_eclic.h ****     #define ECLIC_SetCfgNlbits            __ECLIC_SetCfgNlbits
 213:../Firmware/RISCV/drivers/core_feature_eclic.h ****     #define ECLIC_GetCfgNlbits            __ECLIC_GetCfgNlbits
 214:../Firmware/RISCV/drivers/core_feature_eclic.h ****     #define ECLIC_GetInfoVer              __ECLIC_GetInfoVer
 215:../Firmware/RISCV/drivers/core_feature_eclic.h ****     #define ECLIC_GetInfoCtlbits          __ECLIC_GetInfoCtlbits
 216:../Firmware/RISCV/drivers/core_feature_eclic.h ****     #define ECLIC_GetInfoNum              __ECLIC_GetInfoNum
 217:../Firmware/RISCV/drivers/core_feature_eclic.h ****     #define ECLIC_SetMth                  __ECLIC_SetMth
 218:../Firmware/RISCV/drivers/core_feature_eclic.h ****     #define ECLIC_GetMth                  __ECLIC_GetMth
 219:../Firmware/RISCV/drivers/core_feature_eclic.h ****     #define ECLIC_EnableIRQ               __ECLIC_EnableIRQ
 220:../Firmware/RISCV/drivers/core_feature_eclic.h ****     #define ECLIC_GetEnableIRQ            __ECLIC_GetEnableIRQ
 221:../Firmware/RISCV/drivers/core_feature_eclic.h ****     #define ECLIC_DisableIRQ              __ECLIC_DisableIRQ
 222:../Firmware/RISCV/drivers/core_feature_eclic.h ****     #define ECLIC_SetPendingIRQ           __ECLIC_SetPendingIRQ
 223:../Firmware/RISCV/drivers/core_feature_eclic.h ****     #define ECLIC_GetPendingIRQ           __ECLIC_GetPendingIRQ
 224:../Firmware/RISCV/drivers/core_feature_eclic.h ****     #define ECLIC_ClearPendingIRQ         __ECLIC_ClearPendingIRQ
 225:../Firmware/RISCV/drivers/core_feature_eclic.h ****     #define ECLIC_SetTrigIRQ              __ECLIC_SetTrigIRQ
 226:../Firmware/RISCV/drivers/core_feature_eclic.h ****     #define ECLIC_GetTrigIRQ              __ECLIC_GetTrigIRQ
 227:../Firmware/RISCV/drivers/core_feature_eclic.h ****     #define ECLIC_SetShvIRQ               __ECLIC_SetShvIRQ
 228:../Firmware/RISCV/drivers/core_feature_eclic.h ****     #define ECLIC_GetShvIRQ               __ECLIC_GetShvIRQ
 229:../Firmware/RISCV/drivers/core_feature_eclic.h ****     #define ECLIC_SetCtrlIRQ              __ECLIC_SetCtrlIRQ
 230:../Firmware/RISCV/drivers/core_feature_eclic.h ****     #define ECLIC_GetCtrlIRQ              __ECLIC_GetCtrlIRQ
 231:../Firmware/RISCV/drivers/core_feature_eclic.h ****     #define ECLIC_SetLevelIRQ             __ECLIC_SetLevelIRQ
 232:../Firmware/RISCV/drivers/core_feature_eclic.h ****     #define ECLIC_GetLevelIRQ             __ECLIC_GetLevelIRQ
 233:../Firmware/RISCV/drivers/core_feature_eclic.h ****     #define ECLIC_SetPriorityIRQ          __ECLIC_SetPriorityIRQ
 234:../Firmware/RISCV/drivers/core_feature_eclic.h ****     #define ECLIC_GetPriorityIRQ          __ECLIC_GetPriorityIRQ
 235:../Firmware/RISCV/drivers/core_feature_eclic.h **** 
 236:../Firmware/RISCV/drivers/core_feature_eclic.h **** #endif /* NMSIS_ECLIC_VIRTUAL */
 237:../Firmware/RISCV/drivers/core_feature_eclic.h **** 
 238:../Firmware/RISCV/drivers/core_feature_eclic.h **** #ifdef NMSIS_VECTAB_VIRTUAL
 239:../Firmware/RISCV/drivers/core_feature_eclic.h ****     #ifndef NMSIS_VECTAB_VIRTUAL_HEADER_FILE
 240:../Firmware/RISCV/drivers/core_feature_eclic.h ****         #define NMSIS_VECTAB_VIRTUAL_HEADER_FILE "nmsis_vectab_virtual.h"
 241:../Firmware/RISCV/drivers/core_feature_eclic.h ****     #endif
 242:../Firmware/RISCV/drivers/core_feature_eclic.h ****     #include NMSIS_VECTAB_VIRTUAL_HEADER_FILE
 243:../Firmware/RISCV/drivers/core_feature_eclic.h **** #else
 244:../Firmware/RISCV/drivers/core_feature_eclic.h ****     #define ECLIC_SetVector              __ECLIC_SetVector
 245:../Firmware/RISCV/drivers/core_feature_eclic.h ****     #define ECLIC_GetVector              __ECLIC_GetVector
 246:../Firmware/RISCV/drivers/core_feature_eclic.h **** #endif  /* (NMSIS_VECTAB_VIRTUAL) */
 247:../Firmware/RISCV/drivers/core_feature_eclic.h **** 
 248:../Firmware/RISCV/drivers/core_feature_eclic.h **** /**
 249:../Firmware/RISCV/drivers/core_feature_eclic.h ****  * \brief  Set nlbits value
 250:../Firmware/RISCV/drivers/core_feature_eclic.h ****  * \details
 251:../Firmware/RISCV/drivers/core_feature_eclic.h ****  * This function set the nlbits value of CLICCFG register.
 252:../Firmware/RISCV/drivers/core_feature_eclic.h ****  * \param [in]    nlbits    nlbits value
 253:../Firmware/RISCV/drivers/core_feature_eclic.h ****  * \remarks
 254:../Firmware/RISCV/drivers/core_feature_eclic.h ****  * - nlbits is used to set the width of level in the CLICINTCTL[i].
 255:../Firmware/RISCV/drivers/core_feature_eclic.h ****  * \sa
 256:../Firmware/RISCV/drivers/core_feature_eclic.h ****  * - \ref ECLIC_GetCfgNlbits
 257:../Firmware/RISCV/drivers/core_feature_eclic.h ****  */
 258:../Firmware/RISCV/drivers/core_feature_eclic.h **** __STATIC_FORCEINLINE void __ECLIC_SetCfgNlbits(uint32_t nlbits)
 259:../Firmware/RISCV/drivers/core_feature_eclic.h **** {
 260:../Firmware/RISCV/drivers/core_feature_eclic.h ****     ECLIC->CFG &= ~CLIC_CLICCFG_NLBIT_Msk;
 261:../Firmware/RISCV/drivers/core_feature_eclic.h ****     ECLIC->CFG |= (uint8_t)((nlbits <<CLIC_CLICCFG_NLBIT_Pos) & CLIC_CLICCFG_NLBIT_Msk);
 262:../Firmware/RISCV/drivers/core_feature_eclic.h **** }
 263:../Firmware/RISCV/drivers/core_feature_eclic.h **** 
 264:../Firmware/RISCV/drivers/core_feature_eclic.h **** /**
 265:../Firmware/RISCV/drivers/core_feature_eclic.h ****  * \brief  Get nlbits value
 266:../Firmware/RISCV/drivers/core_feature_eclic.h ****  * \details
 267:../Firmware/RISCV/drivers/core_feature_eclic.h ****  * This function get the nlbits value of CLICCFG register.
 268:../Firmware/RISCV/drivers/core_feature_eclic.h ****  * \return   nlbits value of CLICCFG register
 269:../Firmware/RISCV/drivers/core_feature_eclic.h ****  * \remarks
 270:../Firmware/RISCV/drivers/core_feature_eclic.h ****  * - nlbits is used to set the width of level in the CLICINTCTL[i].
 271:../Firmware/RISCV/drivers/core_feature_eclic.h ****  * \sa
 272:../Firmware/RISCV/drivers/core_feature_eclic.h ****  * - \ref ECLIC_SetCfgNlbits
 273:../Firmware/RISCV/drivers/core_feature_eclic.h ****  */
 274:../Firmware/RISCV/drivers/core_feature_eclic.h **** __STATIC_FORCEINLINE uint32_t __ECLIC_GetCfgNlbits(void)
 275:../Firmware/RISCV/drivers/core_feature_eclic.h **** {
 276:../Firmware/RISCV/drivers/core_feature_eclic.h ****     return ((uint32_t)((ECLIC->CFG & CLIC_CLICCFG_NLBIT_Msk) >> CLIC_CLICCFG_NLBIT_Pos));
 277:../Firmware/RISCV/drivers/core_feature_eclic.h **** }
 278:../Firmware/RISCV/drivers/core_feature_eclic.h **** 
 279:../Firmware/RISCV/drivers/core_feature_eclic.h **** /**
 280:../Firmware/RISCV/drivers/core_feature_eclic.h ****  * \brief  Get the ECLIC version number
 281:../Firmware/RISCV/drivers/core_feature_eclic.h ****  * \details
 282:../Firmware/RISCV/drivers/core_feature_eclic.h ****  * This function gets the hardware version information from CLICINFO register.
 283:../Firmware/RISCV/drivers/core_feature_eclic.h ****  * \return   hardware version number in CLICINFO register.
 284:../Firmware/RISCV/drivers/core_feature_eclic.h ****  * \remarks
 285:../Firmware/RISCV/drivers/core_feature_eclic.h ****  * - This function gets harware version information from CLICINFO register.
 286:../Firmware/RISCV/drivers/core_feature_eclic.h ****  * - Bit 20:17 for architecture version, bit 16:13 for implementation version.
 287:../Firmware/RISCV/drivers/core_feature_eclic.h ****  * \sa
 288:../Firmware/RISCV/drivers/core_feature_eclic.h ****  * - \ref ECLIC_GetInfoNum
 289:../Firmware/RISCV/drivers/core_feature_eclic.h **** */
 290:../Firmware/RISCV/drivers/core_feature_eclic.h **** __STATIC_FORCEINLINE uint32_t __ECLIC_GetInfoVer(void)
 291:../Firmware/RISCV/drivers/core_feature_eclic.h **** {
 292:../Firmware/RISCV/drivers/core_feature_eclic.h ****     return ((uint32_t)((ECLIC->INFO & CLIC_CLICINFO_VER_Msk) >> CLIC_CLICINFO_VER_Pos));
 293:../Firmware/RISCV/drivers/core_feature_eclic.h **** }
 294:../Firmware/RISCV/drivers/core_feature_eclic.h **** 
 295:../Firmware/RISCV/drivers/core_feature_eclic.h **** /**
 296:../Firmware/RISCV/drivers/core_feature_eclic.h ****  * \brief  Get CLICINTCTLBITS
 297:../Firmware/RISCV/drivers/core_feature_eclic.h ****  * \details
 298:../Firmware/RISCV/drivers/core_feature_eclic.h ****  * This function gets CLICINTCTLBITS from CLICINFO register.
 299:../Firmware/RISCV/drivers/core_feature_eclic.h ****  * \return  CLICINTCTLBITS from CLICINFO register.
 300:../Firmware/RISCV/drivers/core_feature_eclic.h ****  * \remarks
 301:../Firmware/RISCV/drivers/core_feature_eclic.h ****  * - In the CLICINTCTL[i] registers, with 2 <= CLICINTCTLBITS <= 8.
 302:../Firmware/RISCV/drivers/core_feature_eclic.h ****  * - The implemented bits are kept left-justified in the most-significant bits of each 8-bit
 303:../Firmware/RISCV/drivers/core_feature_eclic.h ****  *   CLICINTCTL[I] register, with the lower unimplemented bits treated as hardwired to 1.
 304:../Firmware/RISCV/drivers/core_feature_eclic.h ****  * \sa
 305:../Firmware/RISCV/drivers/core_feature_eclic.h ****  * - \ref ECLIC_GetInfoNum
 306:../Firmware/RISCV/drivers/core_feature_eclic.h ****  */
 307:../Firmware/RISCV/drivers/core_feature_eclic.h **** __STATIC_FORCEINLINE uint32_t __ECLIC_GetInfoCtlbits(void)
 308:../Firmware/RISCV/drivers/core_feature_eclic.h **** {
 309:../Firmware/RISCV/drivers/core_feature_eclic.h ****     return ((uint32_t)((ECLIC->INFO & CLIC_CLICINFO_CTLBIT_Msk) >> CLIC_CLICINFO_CTLBIT_Pos));
 310:../Firmware/RISCV/drivers/core_feature_eclic.h **** }
 311:../Firmware/RISCV/drivers/core_feature_eclic.h **** 
 312:../Firmware/RISCV/drivers/core_feature_eclic.h **** /**
 313:../Firmware/RISCV/drivers/core_feature_eclic.h ****  * \brief  Get number of maximum interrupt inputs supported
 314:../Firmware/RISCV/drivers/core_feature_eclic.h ****  * \details
 315:../Firmware/RISCV/drivers/core_feature_eclic.h ****  * This function gets number of maximum interrupt inputs supported from CLICINFO register.
 316:../Firmware/RISCV/drivers/core_feature_eclic.h ****  * \return  number of maximum interrupt inputs supported from CLICINFO register.
 317:../Firmware/RISCV/drivers/core_feature_eclic.h ****  * \remarks
 318:../Firmware/RISCV/drivers/core_feature_eclic.h ****  * - This function gets number of maximum interrupt inputs supported from CLICINFO register.
 319:../Firmware/RISCV/drivers/core_feature_eclic.h ****  * - The num_interrupt field specifies the actual number of maximum interrupt inputs supported in t
 320:../Firmware/RISCV/drivers/core_feature_eclic.h ****  * \sa
 321:../Firmware/RISCV/drivers/core_feature_eclic.h ****  * - \ref ECLIC_GetInfoCtlbits
 322:../Firmware/RISCV/drivers/core_feature_eclic.h ****  */
 323:../Firmware/RISCV/drivers/core_feature_eclic.h **** __STATIC_FORCEINLINE uint32_t __ECLIC_GetInfoNum(void)
 324:../Firmware/RISCV/drivers/core_feature_eclic.h **** {
 325:../Firmware/RISCV/drivers/core_feature_eclic.h ****     return ((uint32_t)((ECLIC->INFO & CLIC_CLICINFO_NUM_Msk) >> CLIC_CLICINFO_NUM_Pos));
 326:../Firmware/RISCV/drivers/core_feature_eclic.h **** }
 327:../Firmware/RISCV/drivers/core_feature_eclic.h **** 
 328:../Firmware/RISCV/drivers/core_feature_eclic.h **** /**
 329:../Firmware/RISCV/drivers/core_feature_eclic.h ****  * \brief  Set Machine Mode Interrupt Level Threshold
 330:../Firmware/RISCV/drivers/core_feature_eclic.h ****  * \details
 331:../Firmware/RISCV/drivers/core_feature_eclic.h ****  * This function sets machine mode interrupt level threshold.
 332:../Firmware/RISCV/drivers/core_feature_eclic.h ****  * \param [in]  mth       Interrupt Level Threshold.
 333:../Firmware/RISCV/drivers/core_feature_eclic.h ****  * \sa
 334:../Firmware/RISCV/drivers/core_feature_eclic.h ****  * - \ref ECLIC_GetMth
 335:../Firmware/RISCV/drivers/core_feature_eclic.h ****  */
 336:../Firmware/RISCV/drivers/core_feature_eclic.h **** __STATIC_FORCEINLINE void __ECLIC_SetMth(uint8_t mth)
 337:../Firmware/RISCV/drivers/core_feature_eclic.h **** {
 338:../Firmware/RISCV/drivers/core_feature_eclic.h ****     ECLIC->MTH = mth;
 120              		.loc 3 338 10
 121 0014 B70700D2 		li	a5,-771751936
 122              		.loc 3 338 16
 123 0018 0347F4FE 		lbu	a4,-17(s0)
 124 001c A385E700 		sb	a4,11(a5)
 339:../Firmware/RISCV/drivers/core_feature_eclic.h **** }
 125              		.loc 3 339 1
 126 0020 0100     		nop
 127              	.LBE55:
 128              	.LBE54:
  68:../Firmware/GD32VW55x_standard_peripheral/Source/gd32vw55x_eclic.c ****     ECLIC_SetMth(threshold);
  69:../Firmware/GD32VW55x_standard_peripheral/Source/gd32vw55x_eclic.c **** }
 129              		.loc 1 69 1
 130 0022 0100     		nop
 131 0024 3254     		lw	s0,44(sp)
 132              		.cfi_restore 8
 133              		.cfi_def_cfa 2, 48
 134 0026 4561     		addi	sp,sp,48
 135              		.cfi_def_cfa_offset 0
 136 0028 8280     		jr	ra
 137              		.cfi_endproc
 138              	.LFE349:
 140              		.section	.text.eclic_priority_group_set,"ax",@progbits
 141              		.align	1
 142              		.globl	eclic_priority_group_set
 144              	eclic_priority_group_set:
 145              	.LFB350:
  70:../Firmware/GD32VW55x_standard_peripheral/Source/gd32vw55x_eclic.c **** 
  71:../Firmware/GD32VW55x_standard_peripheral/Source/gd32vw55x_eclic.c **** /*!
  72:../Firmware/GD32VW55x_standard_peripheral/Source/gd32vw55x_eclic.c ****     \brief      set the priority group
  73:../Firmware/GD32VW55x_standard_peripheral/Source/gd32vw55x_eclic.c ****     \param[in]  prigroup: specify the priority group
  74:../Firmware/GD32VW55x_standard_peripheral/Source/gd32vw55x_eclic.c ****       \arg        ECLIC_PRIGROUP_LEVEL0_PRIO4
  75:../Firmware/GD32VW55x_standard_peripheral/Source/gd32vw55x_eclic.c ****       \arg        ECLIC_PRIGROUP_LEVEL1_PRIO3
  76:../Firmware/GD32VW55x_standard_peripheral/Source/gd32vw55x_eclic.c ****       \arg        ECLIC_PRIGROUP_LEVEL2_PRIO2
  77:../Firmware/GD32VW55x_standard_peripheral/Source/gd32vw55x_eclic.c ****       \arg        ECLIC_PRIGROUP_LEVEL3_PRIO1
  78:../Firmware/GD32VW55x_standard_peripheral/Source/gd32vw55x_eclic.c ****       \arg        ECLIC_PRIGROUP_LEVEL4_PRIO0
  79:../Firmware/GD32VW55x_standard_peripheral/Source/gd32vw55x_eclic.c ****     \param[out] none
  80:../Firmware/GD32VW55x_standard_peripheral/Source/gd32vw55x_eclic.c ****     \retval     none
  81:../Firmware/GD32VW55x_standard_peripheral/Source/gd32vw55x_eclic.c **** */
  82:../Firmware/GD32VW55x_standard_peripheral/Source/gd32vw55x_eclic.c **** void eclic_priority_group_set(uint8_t prigroup)
  83:../Firmware/GD32VW55x_standard_peripheral/Source/gd32vw55x_eclic.c **** {
 146              		.loc 1 83 1
 147              		.cfi_startproc
 148 0000 7971     		addi	sp,sp,-48
 149              		.cfi_def_cfa_offset 48
 150 0002 22D6     		sw	s0,44(sp)
 151              		.cfi_offset 8, -4
 152 0004 0018     		addi	s0,sp,48
 153              		.cfi_def_cfa 8, 0
 154 0006 AA87     		mv	a5,a0
 155 0008 A30FF4FC 		sb	a5,-33(s0)
  84:../Firmware/GD32VW55x_standard_peripheral/Source/gd32vw55x_eclic.c ****     ECLIC_SetCfgNlbits(prigroup);
 156              		.loc 1 84 5
 157 000c 8347F4FD 		lbu	a5,-33(s0)
 158 0010 2326F4FE 		sw	a5,-20(s0)
 159              	.LBB56:
 160              	.LBB57:
 260:../Firmware/RISCV/drivers/core_feature_eclic.h ****     ECLIC->CFG |= (uint8_t)((nlbits <<CLIC_CLICCFG_NLBIT_Pos) & CLIC_CLICCFG_NLBIT_Msk);
 161              		.loc 3 260 16
 162 0014 B70700D2 		li	a5,-771751936
 163 0018 83C70700 		lbu	a5,0(a5)
 164 001c 13F7F70F 		andi	a4,a5,0xff
 165 0020 B70700D2 		li	a5,-771751936
 166 0024 059B     		andi	a4,a4,-31
 167 0026 1377F70F 		andi	a4,a4,0xff
 168 002a 2380E700 		sb	a4,0(a5)
 261:../Firmware/RISCV/drivers/core_feature_eclic.h **** }
 169              		.loc 3 261 16
 170 002e B70700D2 		li	a5,-771751936
 171 0032 83C70700 		lbu	a5,0(a5)
 172 0036 93F7F70F 		andi	a5,a5,0xff
 173 003a 13978701 		slli	a4,a5,24
 174 003e 6187     		srai	a4,a4,24
 261:../Firmware/RISCV/drivers/core_feature_eclic.h **** }
 175              		.loc 3 261 37
 176 0040 8327C4FE 		lw	a5,-20(s0)
 177 0044 93F7F70F 		andi	a5,a5,0xff
 178 0048 8607     		slli	a5,a5,1
 179 004a 93F7F70F 		andi	a5,a5,0xff
 180 004e E207     		slli	a5,a5,24
 181 0050 E187     		srai	a5,a5,24
 261:../Firmware/RISCV/drivers/core_feature_eclic.h **** }
 182              		.loc 3 261 19
 183 0052 F98B     		andi	a5,a5,30
 184 0054 E207     		slli	a5,a5,24
 185 0056 E187     		srai	a5,a5,24
 261:../Firmware/RISCV/drivers/core_feature_eclic.h **** }
 186              		.loc 3 261 16
 187 0058 D98F     		or	a5,a4,a5
 188 005a 13978701 		slli	a4,a5,24
 189 005e 6187     		srai	a4,a4,24
 190 0060 B70700D2 		li	a5,-771751936
 191 0064 1377F70F 		andi	a4,a4,0xff
 192 0068 2380E700 		sb	a4,0(a5)
 262:../Firmware/RISCV/drivers/core_feature_eclic.h **** 
 193              		.loc 3 262 1
 194 006c 0100     		nop
 195              	.LBE57:
 196              	.LBE56:
  85:../Firmware/GD32VW55x_standard_peripheral/Source/gd32vw55x_eclic.c **** }
 197              		.loc 1 85 1
 198 006e 0100     		nop
 199 0070 3254     		lw	s0,44(sp)
 200              		.cfi_restore 8
 201              		.cfi_def_cfa 2, 48
 202 0072 4561     		addi	sp,sp,48
 203              		.cfi_def_cfa_offset 0
 204 0074 8280     		jr	ra
 205              		.cfi_endproc
 206              	.LFE350:
 208              		.section	.text.eclic_irq_enable,"ax",@progbits
 209              		.align	1
 210              		.globl	eclic_irq_enable
 212              	eclic_irq_enable:
 213              	.LFB351:
  86:../Firmware/GD32VW55x_standard_peripheral/Source/gd32vw55x_eclic.c **** 
  87:../Firmware/GD32VW55x_standard_peripheral/Source/gd32vw55x_eclic.c **** /*!
  88:../Firmware/GD32VW55x_standard_peripheral/Source/gd32vw55x_eclic.c ****     \brief      enable the interrupt request
  89:../Firmware/GD32VW55x_standard_peripheral/Source/gd32vw55x_eclic.c ****     \param[in]  source: interrupt request, detailed in IRQn_Type
  90:../Firmware/GD32VW55x_standard_peripheral/Source/gd32vw55x_eclic.c ****     \param[in]  level: the level needed to set (maximum is 15, refer to the priority group)
  91:../Firmware/GD32VW55x_standard_peripheral/Source/gd32vw55x_eclic.c ****     \param[in]  priority: the priority needed to set (maximum is 15, refer to the priority group)
  92:../Firmware/GD32VW55x_standard_peripheral/Source/gd32vw55x_eclic.c ****     \param[out] none
  93:../Firmware/GD32VW55x_standard_peripheral/Source/gd32vw55x_eclic.c ****     \retval     none
  94:../Firmware/GD32VW55x_standard_peripheral/Source/gd32vw55x_eclic.c **** */
  95:../Firmware/GD32VW55x_standard_peripheral/Source/gd32vw55x_eclic.c **** void eclic_irq_enable(IRQn_Type source, uint8_t level, uint8_t priority)
  96:../Firmware/GD32VW55x_standard_peripheral/Source/gd32vw55x_eclic.c **** {
 214              		.loc 1 96 1
 215              		.cfi_startproc
 216 0000 1D71     		addi	sp,sp,-96
 217              		.cfi_def_cfa_offset 96
 218 0002 A2CE     		sw	s0,92(sp)
 219              		.cfi_offset 8, -4
 220 0004 8010     		addi	s0,sp,96
 221              		.cfi_def_cfa 8, 0
 222 0006 2326A4FA 		sw	a0,-84(s0)
 223 000a AE87     		mv	a5,a1
 224 000c 3287     		mv	a4,a2
 225 000e A305F4FA 		sb	a5,-85(s0)
 226 0012 BA87     		mv	a5,a4
 227 0014 2305F4FA 		sb	a5,-86(s0)
 228 0018 8327C4FA 		lw	a5,-84(s0)
 229 001c 2326F4FC 		sw	a5,-52(s0)
 230 0020 8347B4FA 		lbu	a5,-85(s0)
 231 0024 A305F4FC 		sb	a5,-53(s0)
 232              	.LBB58:
 233              	.LBB59:
 234              	.LBB60:
 235              	.LBB61:
 276:../Firmware/RISCV/drivers/core_feature_eclic.h **** }
 236              		.loc 3 276 30
 237 0028 B70700D2 		li	a5,-771751936
 238 002c 83C70700 		lbu	a5,0(a5)
 239 0030 93F7F70F 		andi	a5,a5,0xff
 276:../Firmware/RISCV/drivers/core_feature_eclic.h **** }
 240              		.loc 3 276 13
 241 0034 8583     		srli	a5,a5,1
 242 0036 BD8B     		andi	a5,a5,15
 243              	.LBE61:
 244              	.LBE60:
 340:../Firmware/RISCV/drivers/core_feature_eclic.h **** 
 341:../Firmware/RISCV/drivers/core_feature_eclic.h **** /**
 342:../Firmware/RISCV/drivers/core_feature_eclic.h ****  * \brief  Get Machine Mode Interrupt Level Threshold
 343:../Firmware/RISCV/drivers/core_feature_eclic.h ****  * \details
 344:../Firmware/RISCV/drivers/core_feature_eclic.h ****  * This function gets machine mode interrupt level threshold.
 345:../Firmware/RISCV/drivers/core_feature_eclic.h ****  * \return       Interrupt Level Threshold.
 346:../Firmware/RISCV/drivers/core_feature_eclic.h ****  * \sa
 347:../Firmware/RISCV/drivers/core_feature_eclic.h ****  * - \ref ECLIC_SetMth
 348:../Firmware/RISCV/drivers/core_feature_eclic.h ****  */
 349:../Firmware/RISCV/drivers/core_feature_eclic.h **** __STATIC_FORCEINLINE uint8_t __ECLIC_GetMth(void)
 350:../Firmware/RISCV/drivers/core_feature_eclic.h **** {
 351:../Firmware/RISCV/drivers/core_feature_eclic.h ****     return (ECLIC->MTH);
 352:../Firmware/RISCV/drivers/core_feature_eclic.h **** }
 353:../Firmware/RISCV/drivers/core_feature_eclic.h **** 
 354:../Firmware/RISCV/drivers/core_feature_eclic.h **** 
 355:../Firmware/RISCV/drivers/core_feature_eclic.h **** /**
 356:../Firmware/RISCV/drivers/core_feature_eclic.h ****  * \brief  Enable a specific interrupt
 357:../Firmware/RISCV/drivers/core_feature_eclic.h ****  * \details
 358:../Firmware/RISCV/drivers/core_feature_eclic.h ****  * This function enables the specific interrupt \em IRQn.
 359:../Firmware/RISCV/drivers/core_feature_eclic.h ****  * \param [in]  IRQn  Interrupt number
 360:../Firmware/RISCV/drivers/core_feature_eclic.h ****  * \remarks
 361:../Firmware/RISCV/drivers/core_feature_eclic.h ****  * - IRQn must not be negative.
 362:../Firmware/RISCV/drivers/core_feature_eclic.h ****  * \sa
 363:../Firmware/RISCV/drivers/core_feature_eclic.h ****  * - \ref ECLIC_DisableIRQ
 364:../Firmware/RISCV/drivers/core_feature_eclic.h ****  */
 365:../Firmware/RISCV/drivers/core_feature_eclic.h **** __STATIC_FORCEINLINE void __ECLIC_EnableIRQ(IRQn_Type IRQn)
 366:../Firmware/RISCV/drivers/core_feature_eclic.h **** {
 367:../Firmware/RISCV/drivers/core_feature_eclic.h ****     ECLIC->CTRL[IRQn].INTIE |= CLIC_INTIE_IE_Msk;
 368:../Firmware/RISCV/drivers/core_feature_eclic.h **** }
 369:../Firmware/RISCV/drivers/core_feature_eclic.h **** 
 370:../Firmware/RISCV/drivers/core_feature_eclic.h **** /**
 371:../Firmware/RISCV/drivers/core_feature_eclic.h ****  * \brief  Get a specific interrupt enable status
 372:../Firmware/RISCV/drivers/core_feature_eclic.h ****  * \details
 373:../Firmware/RISCV/drivers/core_feature_eclic.h ****  * This function returns the interrupt enable status for the specific interrupt \em IRQn.
 374:../Firmware/RISCV/drivers/core_feature_eclic.h ****  * \param [in]  IRQn  Interrupt number
 375:../Firmware/RISCV/drivers/core_feature_eclic.h ****  * \returns
 376:../Firmware/RISCV/drivers/core_feature_eclic.h ****  * - 0  Interrupt is not enabled
 377:../Firmware/RISCV/drivers/core_feature_eclic.h ****  * - 1  Interrupt is pending
 378:../Firmware/RISCV/drivers/core_feature_eclic.h ****  * \remarks
 379:../Firmware/RISCV/drivers/core_feature_eclic.h ****  * - IRQn must not be negative.
 380:../Firmware/RISCV/drivers/core_feature_eclic.h ****  * \sa
 381:../Firmware/RISCV/drivers/core_feature_eclic.h ****  * - \ref ECLIC_EnableIRQ
 382:../Firmware/RISCV/drivers/core_feature_eclic.h ****  * - \ref ECLIC_DisableIRQ
 383:../Firmware/RISCV/drivers/core_feature_eclic.h ****  */
 384:../Firmware/RISCV/drivers/core_feature_eclic.h **** __STATIC_FORCEINLINE uint32_t __ECLIC_GetEnableIRQ(IRQn_Type IRQn)
 385:../Firmware/RISCV/drivers/core_feature_eclic.h **** {
 386:../Firmware/RISCV/drivers/core_feature_eclic.h ****     return((uint32_t) (ECLIC->CTRL[IRQn].INTIE) & CLIC_INTIE_IE_Msk);
 387:../Firmware/RISCV/drivers/core_feature_eclic.h **** }
 388:../Firmware/RISCV/drivers/core_feature_eclic.h **** 
 389:../Firmware/RISCV/drivers/core_feature_eclic.h **** /**
 390:../Firmware/RISCV/drivers/core_feature_eclic.h ****  * \brief  Disable a specific interrupt
 391:../Firmware/RISCV/drivers/core_feature_eclic.h ****  * \details
 392:../Firmware/RISCV/drivers/core_feature_eclic.h ****  * This function disables the specific interrupt \em IRQn.
 393:../Firmware/RISCV/drivers/core_feature_eclic.h ****  * \param [in]  IRQn  Number of the external interrupt to disable
 394:../Firmware/RISCV/drivers/core_feature_eclic.h ****  * \remarks
 395:../Firmware/RISCV/drivers/core_feature_eclic.h ****  * - IRQn must not be negative.
 396:../Firmware/RISCV/drivers/core_feature_eclic.h ****  * \sa
 397:../Firmware/RISCV/drivers/core_feature_eclic.h ****  * - \ref ECLIC_EnableIRQ
 398:../Firmware/RISCV/drivers/core_feature_eclic.h ****  */
 399:../Firmware/RISCV/drivers/core_feature_eclic.h **** __STATIC_FORCEINLINE void __ECLIC_DisableIRQ(IRQn_Type IRQn)
 400:../Firmware/RISCV/drivers/core_feature_eclic.h **** {
 401:../Firmware/RISCV/drivers/core_feature_eclic.h ****     ECLIC->CTRL[IRQn].INTIE &= ~CLIC_INTIE_IE_Msk;
 402:../Firmware/RISCV/drivers/core_feature_eclic.h **** }
 403:../Firmware/RISCV/drivers/core_feature_eclic.h **** 
 404:../Firmware/RISCV/drivers/core_feature_eclic.h **** /**
 405:../Firmware/RISCV/drivers/core_feature_eclic.h ****  * \brief  Get the pending specific interrupt
 406:../Firmware/RISCV/drivers/core_feature_eclic.h ****  * \details
 407:../Firmware/RISCV/drivers/core_feature_eclic.h ****  * This function returns the pending status of the specific interrupt \em IRQn.
 408:../Firmware/RISCV/drivers/core_feature_eclic.h ****  * \param [in]      IRQn  Interrupt number
 409:../Firmware/RISCV/drivers/core_feature_eclic.h ****  * \returns
 410:../Firmware/RISCV/drivers/core_feature_eclic.h ****  * - 0  Interrupt is not pending
 411:../Firmware/RISCV/drivers/core_feature_eclic.h ****  * - 1  Interrupt is pending
 412:../Firmware/RISCV/drivers/core_feature_eclic.h ****  * \remarks
 413:../Firmware/RISCV/drivers/core_feature_eclic.h ****  * - IRQn must not be negative.
 414:../Firmware/RISCV/drivers/core_feature_eclic.h ****  * \sa
 415:../Firmware/RISCV/drivers/core_feature_eclic.h ****  * - \ref ECLIC_SetPendingIRQ
 416:../Firmware/RISCV/drivers/core_feature_eclic.h ****  * - \ref ECLIC_ClearPendingIRQ
 417:../Firmware/RISCV/drivers/core_feature_eclic.h ****  */
 418:../Firmware/RISCV/drivers/core_feature_eclic.h **** __STATIC_FORCEINLINE int32_t __ECLIC_GetPendingIRQ(IRQn_Type IRQn)
 419:../Firmware/RISCV/drivers/core_feature_eclic.h **** {
 420:../Firmware/RISCV/drivers/core_feature_eclic.h ****     return((uint32_t)(ECLIC->CTRL[IRQn].INTIP) & CLIC_INTIP_IP_Msk);
 421:../Firmware/RISCV/drivers/core_feature_eclic.h **** }
 422:../Firmware/RISCV/drivers/core_feature_eclic.h **** 
 423:../Firmware/RISCV/drivers/core_feature_eclic.h **** /**
 424:../Firmware/RISCV/drivers/core_feature_eclic.h ****  * \brief  Set a specific interrupt to pending
 425:../Firmware/RISCV/drivers/core_feature_eclic.h ****  * \details
 426:../Firmware/RISCV/drivers/core_feature_eclic.h ****  * This function sets the pending bit for the specific interrupt \em IRQn.
 427:../Firmware/RISCV/drivers/core_feature_eclic.h ****  * \param [in]      IRQn  Interrupt number
 428:../Firmware/RISCV/drivers/core_feature_eclic.h ****  * \remarks
 429:../Firmware/RISCV/drivers/core_feature_eclic.h ****  * - IRQn must not be negative.
 430:../Firmware/RISCV/drivers/core_feature_eclic.h ****  * \sa
 431:../Firmware/RISCV/drivers/core_feature_eclic.h ****  * - \ref ECLIC_GetPendingIRQ
 432:../Firmware/RISCV/drivers/core_feature_eclic.h ****  * - \ref ECLIC_ClearPendingIRQ
 433:../Firmware/RISCV/drivers/core_feature_eclic.h ****  */
 434:../Firmware/RISCV/drivers/core_feature_eclic.h **** __STATIC_FORCEINLINE void __ECLIC_SetPendingIRQ(IRQn_Type IRQn)
 435:../Firmware/RISCV/drivers/core_feature_eclic.h **** {
 436:../Firmware/RISCV/drivers/core_feature_eclic.h ****     ECLIC->CTRL[IRQn].INTIP |= CLIC_INTIP_IP_Msk;
 437:../Firmware/RISCV/drivers/core_feature_eclic.h **** }
 438:../Firmware/RISCV/drivers/core_feature_eclic.h **** 
 439:../Firmware/RISCV/drivers/core_feature_eclic.h **** /**
 440:../Firmware/RISCV/drivers/core_feature_eclic.h ****  * \brief  Clear a specific interrupt from pending
 441:../Firmware/RISCV/drivers/core_feature_eclic.h ****  * \details
 442:../Firmware/RISCV/drivers/core_feature_eclic.h ****  * This function removes the pending state of the specific interrupt \em IRQn.
 443:../Firmware/RISCV/drivers/core_feature_eclic.h ****  * \em IRQn cannot be a negative number.
 444:../Firmware/RISCV/drivers/core_feature_eclic.h ****  * \param [in]      IRQn  Interrupt number
 445:../Firmware/RISCV/drivers/core_feature_eclic.h ****  * \remarks
 446:../Firmware/RISCV/drivers/core_feature_eclic.h ****  * - IRQn must not be negative.
 447:../Firmware/RISCV/drivers/core_feature_eclic.h ****  * \sa
 448:../Firmware/RISCV/drivers/core_feature_eclic.h ****  * - \ref ECLIC_SetPendingIRQ
 449:../Firmware/RISCV/drivers/core_feature_eclic.h ****  * - \ref ECLIC_GetPendingIRQ
 450:../Firmware/RISCV/drivers/core_feature_eclic.h ****  */
 451:../Firmware/RISCV/drivers/core_feature_eclic.h **** __STATIC_FORCEINLINE void __ECLIC_ClearPendingIRQ(IRQn_Type IRQn)
 452:../Firmware/RISCV/drivers/core_feature_eclic.h **** {
 453:../Firmware/RISCV/drivers/core_feature_eclic.h ****     ECLIC->CTRL[IRQn].INTIP &= ~ CLIC_INTIP_IP_Msk;
 454:../Firmware/RISCV/drivers/core_feature_eclic.h **** }
 455:../Firmware/RISCV/drivers/core_feature_eclic.h **** 
 456:../Firmware/RISCV/drivers/core_feature_eclic.h **** /**
 457:../Firmware/RISCV/drivers/core_feature_eclic.h ****  * \brief  Set trigger mode and polarity for a specific interrupt
 458:../Firmware/RISCV/drivers/core_feature_eclic.h ****  * \details
 459:../Firmware/RISCV/drivers/core_feature_eclic.h ****  * This function set trigger mode and polarity of the specific interrupt \em IRQn.
 460:../Firmware/RISCV/drivers/core_feature_eclic.h ****  * \param [in]      IRQn  Interrupt number
 461:../Firmware/RISCV/drivers/core_feature_eclic.h ****  * \param [in]      trig
 462:../Firmware/RISCV/drivers/core_feature_eclic.h ****  *                   - 00  level trigger, \ref ECLIC_LEVEL_TRIGGER
 463:../Firmware/RISCV/drivers/core_feature_eclic.h ****  *                   - 01  positive edge trigger, \ref ECLIC_POSTIVE_EDGE_TRIGGER
 464:../Firmware/RISCV/drivers/core_feature_eclic.h ****  *                   - 02  level trigger, \ref ECLIC_LEVEL_TRIGGER
 465:../Firmware/RISCV/drivers/core_feature_eclic.h ****  *                   - 03  negative edge trigger, \ref ECLIC_NEGTIVE_EDGE_TRIGGER
 466:../Firmware/RISCV/drivers/core_feature_eclic.h ****  * \remarks
 467:../Firmware/RISCV/drivers/core_feature_eclic.h ****  * - IRQn must not be negative.
 468:../Firmware/RISCV/drivers/core_feature_eclic.h ****  *
 469:../Firmware/RISCV/drivers/core_feature_eclic.h ****  * \sa
 470:../Firmware/RISCV/drivers/core_feature_eclic.h ****  * - \ref ECLIC_GetTrigIRQ
 471:../Firmware/RISCV/drivers/core_feature_eclic.h ****  */
 472:../Firmware/RISCV/drivers/core_feature_eclic.h **** __STATIC_FORCEINLINE void __ECLIC_SetTrigIRQ(IRQn_Type IRQn, uint32_t trig)
 473:../Firmware/RISCV/drivers/core_feature_eclic.h **** {
 474:../Firmware/RISCV/drivers/core_feature_eclic.h ****     ECLIC->CTRL[IRQn].INTATTR &= ~CLIC_INTATTR_TRIG_Msk;
 475:../Firmware/RISCV/drivers/core_feature_eclic.h ****     ECLIC->CTRL[IRQn].INTATTR |= (uint8_t)(trig<<CLIC_INTATTR_TRIG_Pos);
 476:../Firmware/RISCV/drivers/core_feature_eclic.h **** }
 477:../Firmware/RISCV/drivers/core_feature_eclic.h **** 
 478:../Firmware/RISCV/drivers/core_feature_eclic.h **** /**
 479:../Firmware/RISCV/drivers/core_feature_eclic.h ****  * \brief  Get trigger mode and polarity for a specific interrupt
 480:../Firmware/RISCV/drivers/core_feature_eclic.h ****  * \details
 481:../Firmware/RISCV/drivers/core_feature_eclic.h ****  * This function get trigger mode and polarity of the specific interrupt \em IRQn.
 482:../Firmware/RISCV/drivers/core_feature_eclic.h ****  * \param [in]      IRQn  Interrupt number
 483:../Firmware/RISCV/drivers/core_feature_eclic.h ****  * \return
 484:../Firmware/RISCV/drivers/core_feature_eclic.h ****  *                 - 00  level trigger, \ref ECLIC_LEVEL_TRIGGER
 485:../Firmware/RISCV/drivers/core_feature_eclic.h ****  *                 - 01  positive edge trigger, \ref ECLIC_POSTIVE_EDGE_TRIGGER
 486:../Firmware/RISCV/drivers/core_feature_eclic.h ****  *                 - 02  level trigger, \ref ECLIC_LEVEL_TRIGGER
 487:../Firmware/RISCV/drivers/core_feature_eclic.h ****  *                 - 03  negative edge trigger, \ref ECLIC_NEGTIVE_EDGE_TRIGGER
 488:../Firmware/RISCV/drivers/core_feature_eclic.h ****  * \remarks
 489:../Firmware/RISCV/drivers/core_feature_eclic.h ****  *     - IRQn must not be negative.
 490:../Firmware/RISCV/drivers/core_feature_eclic.h ****  * \sa
 491:../Firmware/RISCV/drivers/core_feature_eclic.h ****  *     - \ref ECLIC_SetTrigIRQ
 492:../Firmware/RISCV/drivers/core_feature_eclic.h ****  */
 493:../Firmware/RISCV/drivers/core_feature_eclic.h **** __STATIC_FORCEINLINE uint32_t __ECLIC_GetTrigIRQ(IRQn_Type IRQn)
 494:../Firmware/RISCV/drivers/core_feature_eclic.h **** {
 495:../Firmware/RISCV/drivers/core_feature_eclic.h ****     return ((int32_t)(((ECLIC->CTRL[IRQn].INTATTR) & CLIC_INTATTR_TRIG_Msk)>>CLIC_INTATTR_TRIG_Pos)
 496:../Firmware/RISCV/drivers/core_feature_eclic.h **** }
 497:../Firmware/RISCV/drivers/core_feature_eclic.h **** 
 498:../Firmware/RISCV/drivers/core_feature_eclic.h **** /**
 499:../Firmware/RISCV/drivers/core_feature_eclic.h ****  * \brief  Set interrupt working mode for a specific interrupt
 500:../Firmware/RISCV/drivers/core_feature_eclic.h ****  * \details
 501:../Firmware/RISCV/drivers/core_feature_eclic.h ****  * This function set selective hardware vector or non-vector working mode of the specific interrupt
 502:../Firmware/RISCV/drivers/core_feature_eclic.h ****  * \param [in]      IRQn  Interrupt number
 503:../Firmware/RISCV/drivers/core_feature_eclic.h ****  * \param [in]      shv
 504:../Firmware/RISCV/drivers/core_feature_eclic.h ****  *                        - 0  non-vector mode, \ref ECLIC_NON_VECTOR_INTERRUPT
 505:../Firmware/RISCV/drivers/core_feature_eclic.h ****  *                        - 1  vector mode, \ref ECLIC_VECTOR_INTERRUPT
 506:../Firmware/RISCV/drivers/core_feature_eclic.h ****  * \remarks
 507:../Firmware/RISCV/drivers/core_feature_eclic.h ****  * - IRQn must not be negative.
 508:../Firmware/RISCV/drivers/core_feature_eclic.h ****  * \sa
 509:../Firmware/RISCV/drivers/core_feature_eclic.h ****  * - \ref ECLIC_GetShvIRQ
 510:../Firmware/RISCV/drivers/core_feature_eclic.h ****  */
 511:../Firmware/RISCV/drivers/core_feature_eclic.h **** __STATIC_FORCEINLINE void __ECLIC_SetShvIRQ(IRQn_Type IRQn, uint32_t shv)
 512:../Firmware/RISCV/drivers/core_feature_eclic.h **** {
 513:../Firmware/RISCV/drivers/core_feature_eclic.h ****     ECLIC->CTRL[IRQn].INTATTR &= ~CLIC_INTATTR_SHV_Msk;
 514:../Firmware/RISCV/drivers/core_feature_eclic.h ****     ECLIC->CTRL[IRQn].INTATTR |= (uint8_t)(shv<<CLIC_INTATTR_SHV_Pos);
 515:../Firmware/RISCV/drivers/core_feature_eclic.h **** }
 516:../Firmware/RISCV/drivers/core_feature_eclic.h **** 
 517:../Firmware/RISCV/drivers/core_feature_eclic.h **** /**
 518:../Firmware/RISCV/drivers/core_feature_eclic.h ****  * \brief  Get interrupt working mode for a specific interrupt
 519:../Firmware/RISCV/drivers/core_feature_eclic.h ****  * \details
 520:../Firmware/RISCV/drivers/core_feature_eclic.h ****  * This function get selective hardware vector or non-vector working mode of the specific interrupt
 521:../Firmware/RISCV/drivers/core_feature_eclic.h ****  * \param [in]      IRQn  Interrupt number
 522:../Firmware/RISCV/drivers/core_feature_eclic.h ****  * \return       shv
 523:../Firmware/RISCV/drivers/core_feature_eclic.h ****  *                        - 0  non-vector mode, \ref ECLIC_NON_VECTOR_INTERRUPT
 524:../Firmware/RISCV/drivers/core_feature_eclic.h ****  *                        - 1  vector mode, \ref ECLIC_VECTOR_INTERRUPT
 525:../Firmware/RISCV/drivers/core_feature_eclic.h ****  * \remarks
 526:../Firmware/RISCV/drivers/core_feature_eclic.h ****  * - IRQn must not be negative.
 527:../Firmware/RISCV/drivers/core_feature_eclic.h ****  * \sa
 528:../Firmware/RISCV/drivers/core_feature_eclic.h ****  * - \ref ECLIC_SetShvIRQ
 529:../Firmware/RISCV/drivers/core_feature_eclic.h ****  */
 530:../Firmware/RISCV/drivers/core_feature_eclic.h **** __STATIC_FORCEINLINE uint32_t __ECLIC_GetShvIRQ(IRQn_Type IRQn)
 531:../Firmware/RISCV/drivers/core_feature_eclic.h **** {
 532:../Firmware/RISCV/drivers/core_feature_eclic.h ****     return ((int32_t)(((ECLIC->CTRL[IRQn].INTATTR) & CLIC_INTATTR_SHV_Msk)>>CLIC_INTATTR_SHV_Pos));
 533:../Firmware/RISCV/drivers/core_feature_eclic.h **** }
 534:../Firmware/RISCV/drivers/core_feature_eclic.h **** 
 535:../Firmware/RISCV/drivers/core_feature_eclic.h **** /**
 536:../Firmware/RISCV/drivers/core_feature_eclic.h ****  * \brief  Modify ECLIC Interrupt Input Control Register for a specific interrupt
 537:../Firmware/RISCV/drivers/core_feature_eclic.h ****  * \details
 538:../Firmware/RISCV/drivers/core_feature_eclic.h ****  * This function modify ECLIC Interrupt Input Control(CLICINTCTL[i]) register of the specific inter
 539:../Firmware/RISCV/drivers/core_feature_eclic.h ****  * \param [in]      IRQn  Interrupt number
 540:../Firmware/RISCV/drivers/core_feature_eclic.h ****  * \param [in]      intctrl  Set value for CLICINTCTL[i] register
 541:../Firmware/RISCV/drivers/core_feature_eclic.h ****  * \remarks
 542:../Firmware/RISCV/drivers/core_feature_eclic.h ****  * - IRQn must not be negative.
 543:../Firmware/RISCV/drivers/core_feature_eclic.h ****  * \sa
 544:../Firmware/RISCV/drivers/core_feature_eclic.h ****  * - \ref ECLIC_GetCtrlIRQ
 545:../Firmware/RISCV/drivers/core_feature_eclic.h ****  */
 546:../Firmware/RISCV/drivers/core_feature_eclic.h **** __STATIC_FORCEINLINE void __ECLIC_SetCtrlIRQ(IRQn_Type IRQn, uint8_t intctrl)
 547:../Firmware/RISCV/drivers/core_feature_eclic.h **** {
 548:../Firmware/RISCV/drivers/core_feature_eclic.h ****     ECLIC->CTRL[IRQn].INTCTRL = intctrl;
 549:../Firmware/RISCV/drivers/core_feature_eclic.h **** }
 550:../Firmware/RISCV/drivers/core_feature_eclic.h **** 
 551:../Firmware/RISCV/drivers/core_feature_eclic.h **** /**
 552:../Firmware/RISCV/drivers/core_feature_eclic.h ****  * \brief  Get ECLIC Interrupt Input Control Register value for a specific interrupt
 553:../Firmware/RISCV/drivers/core_feature_eclic.h ****  * \details
 554:../Firmware/RISCV/drivers/core_feature_eclic.h ****  * This function modify ECLIC Interrupt Input Control register of the specific interrupt \em IRQn.
 555:../Firmware/RISCV/drivers/core_feature_eclic.h ****  * \param [in]      IRQn  Interrupt number
 556:../Firmware/RISCV/drivers/core_feature_eclic.h ****  * \return       value of ECLIC Interrupt Input Control register
 557:../Firmware/RISCV/drivers/core_feature_eclic.h ****  * \remarks
 558:../Firmware/RISCV/drivers/core_feature_eclic.h ****  * - IRQn must not be negative.
 559:../Firmware/RISCV/drivers/core_feature_eclic.h ****  * \sa
 560:../Firmware/RISCV/drivers/core_feature_eclic.h ****  * - \ref ECLIC_SetCtrlIRQ
 561:../Firmware/RISCV/drivers/core_feature_eclic.h ****  */
 562:../Firmware/RISCV/drivers/core_feature_eclic.h **** __STATIC_FORCEINLINE uint8_t __ECLIC_GetCtrlIRQ(IRQn_Type IRQn)
 563:../Firmware/RISCV/drivers/core_feature_eclic.h **** {
 564:../Firmware/RISCV/drivers/core_feature_eclic.h ****     return (ECLIC->CTRL[IRQn].INTCTRL);
 565:../Firmware/RISCV/drivers/core_feature_eclic.h **** }
 566:../Firmware/RISCV/drivers/core_feature_eclic.h **** 
 567:../Firmware/RISCV/drivers/core_feature_eclic.h **** /**
 568:../Firmware/RISCV/drivers/core_feature_eclic.h ****  * \brief  Set ECLIC Interrupt level of a specific interrupt
 569:../Firmware/RISCV/drivers/core_feature_eclic.h ****  * \details
 570:../Firmware/RISCV/drivers/core_feature_eclic.h ****  * This function set interrupt level of the specific interrupt \em IRQn.
 571:../Firmware/RISCV/drivers/core_feature_eclic.h ****  * \param [in]      IRQn  Interrupt number
 572:../Firmware/RISCV/drivers/core_feature_eclic.h ****  * \param [in]      lvl_abs   Interrupt level
 573:../Firmware/RISCV/drivers/core_feature_eclic.h ****  * \remarks
 574:../Firmware/RISCV/drivers/core_feature_eclic.h ****  * - IRQn must not be negative.
 575:../Firmware/RISCV/drivers/core_feature_eclic.h ****  * - If lvl_abs to be set is larger than the max level allowed, it will be force to be max level.
 576:../Firmware/RISCV/drivers/core_feature_eclic.h ****  * - When you set level value you need use clciinfo.nlbits to get the width of level.
 577:../Firmware/RISCV/drivers/core_feature_eclic.h ****  *   Then we could know the maximum of level. CLICINTCTLBITS is how many total bits are
 578:../Firmware/RISCV/drivers/core_feature_eclic.h ****  *   present in the CLICINTCTL register.
 579:../Firmware/RISCV/drivers/core_feature_eclic.h ****  * \sa
 580:../Firmware/RISCV/drivers/core_feature_eclic.h ****  * - \ref ECLIC_GetLevelIRQ
 581:../Firmware/RISCV/drivers/core_feature_eclic.h ****  */
 582:../Firmware/RISCV/drivers/core_feature_eclic.h **** __STATIC_FORCEINLINE void __ECLIC_SetLevelIRQ(IRQn_Type IRQn, uint8_t lvl_abs)
 583:../Firmware/RISCV/drivers/core_feature_eclic.h **** {
 584:../Firmware/RISCV/drivers/core_feature_eclic.h ****     uint8_t nlbits = __ECLIC_GetCfgNlbits();
 245              		.loc 3 584 13
 246 0038 2305F4FC 		sb	a5,-54(s0)
 585:../Firmware/RISCV/drivers/core_feature_eclic.h ****     uint8_t intctlbits = (uint8_t)__ECLIC_INTCTLBITS;
 247              		.loc 3 585 13
 248 003c 9147     		li	a5,4
 249 003e A304F4FC 		sb	a5,-55(s0)
 586:../Firmware/RISCV/drivers/core_feature_eclic.h **** 
 587:../Firmware/RISCV/drivers/core_feature_eclic.h ****     if (nlbits == 0) {
 250              		.loc 3 587 8
 251 0042 8347A4FC 		lbu	a5,-54(s0)
 252 0046 F1C7     		beq	a5,zero,.L17
 588:../Firmware/RISCV/drivers/core_feature_eclic.h ****         return;
 589:../Firmware/RISCV/drivers/core_feature_eclic.h ****     }
 590:../Firmware/RISCV/drivers/core_feature_eclic.h **** 
 591:../Firmware/RISCV/drivers/core_feature_eclic.h ****     if (nlbits > intctlbits) {
 253              		.loc 3 591 8
 254 0048 0347A4FC 		lbu	a4,-54(s0)
 255 004c 834794FC 		lbu	a5,-55(s0)
 256 0050 63F6E700 		bleu	a4,a5,.L9
 592:../Firmware/RISCV/drivers/core_feature_eclic.h ****         nlbits = intctlbits;
 257              		.loc 3 592 16
 258 0054 834794FC 		lbu	a5,-55(s0)
 259 0058 2305F4FC 		sb	a5,-54(s0)
 260              	.L9:
 593:../Firmware/RISCV/drivers/core_feature_eclic.h ****     }
 594:../Firmware/RISCV/drivers/core_feature_eclic.h ****     uint8_t maxlvl = ((1 << nlbits) - 1);
 261              		.loc 3 594 26
 262 005c 8347A4FC 		lbu	a5,-54(s0)
 263 0060 0547     		li	a4,1
 264 0062 B317F700 		sll	a5,a4,a5
 265              		.loc 3 594 37
 266 0066 93F7F70F 		andi	a5,a5,0xff
 267              		.loc 3 594 13
 268 006a FD17     		addi	a5,a5,-1
 269 006c 2304F4FC 		sb	a5,-56(s0)
 595:../Firmware/RISCV/drivers/core_feature_eclic.h ****     if (lvl_abs > maxlvl) {
 270              		.loc 3 595 8
 271 0070 0347B4FC 		lbu	a4,-53(s0)
 272 0074 834784FC 		lbu	a5,-56(s0)
 273 0078 63F6E700 		bleu	a4,a5,.L10
 596:../Firmware/RISCV/drivers/core_feature_eclic.h ****         lvl_abs = maxlvl;
 274              		.loc 3 596 17
 275 007c 834784FC 		lbu	a5,-56(s0)
 276 0080 A305F4FC 		sb	a5,-53(s0)
 277              	.L10:
 597:../Firmware/RISCV/drivers/core_feature_eclic.h ****     }
 598:../Firmware/RISCV/drivers/core_feature_eclic.h ****     uint8_t lvl = lvl_abs << (ECLIC_MAX_NLBITS - nlbits);
 278              		.loc 3 598 27
 279 0084 0347B4FC 		lbu	a4,-53(s0)
 280              		.loc 3 598 48
 281 0088 8347A4FC 		lbu	a5,-54(s0)
 282 008c A146     		li	a3,8
 283 008e B387F640 		sub	a5,a3,a5
 284              		.loc 3 598 27
 285 0092 B317F700 		sll	a5,a4,a5
 286              		.loc 3 598 13
 287 0096 A303F4FC 		sb	a5,-57(s0)
 288 009a 8327C4FC 		lw	a5,-52(s0)
 289 009e 2320F4FC 		sw	a5,-64(s0)
 290              	.LBB62:
 291              	.LBB63:
 564:../Firmware/RISCV/drivers/core_feature_eclic.h **** }
 292              		.loc 3 564 18
 293 00a2 370700D2 		li	a4,-771751936
 564:../Firmware/RISCV/drivers/core_feature_eclic.h **** }
 294              		.loc 3 564 30
 295 00a6 832704FC 		lw	a5,-64(s0)
 296 00aa 93870740 		addi	a5,a5,1024
 297 00ae 8A07     		slli	a5,a5,2
 298 00b0 BA97     		add	a5,a4,a5
 299 00b2 83C73700 		lbu	a5,3(a5)
 300 00b6 93F7F70F 		andi	a5,a5,0xff
 301              	.LBE63:
 302              	.LBE62:
 599:../Firmware/RISCV/drivers/core_feature_eclic.h ****     uint8_t cur_ctrl = __ECLIC_GetCtrlIRQ(IRQn);
 303              		.loc 3 599 24
 304 00ba A30FF4FA 		sb	a5,-65(s0)
 600:../Firmware/RISCV/drivers/core_feature_eclic.h ****     cur_ctrl = cur_ctrl << nlbits;
 305              		.loc 3 600 25
 306 00be 0347F4FB 		lbu	a4,-65(s0)
 307 00c2 8347A4FC 		lbu	a5,-54(s0)
 308 00c6 B317F700 		sll	a5,a4,a5
 309              		.loc 3 600 14
 310 00ca A30FF4FA 		sb	a5,-65(s0)
 601:../Firmware/RISCV/drivers/core_feature_eclic.h ****     cur_ctrl = cur_ctrl >> nlbits;
 311              		.loc 3 601 25
 312 00ce 0347F4FB 		lbu	a4,-65(s0)
 313 00d2 8347A4FC 		lbu	a5,-54(s0)
 314 00d6 B357F740 		sra	a5,a4,a5
 315              		.loc 3 601 14
 316 00da A30FF4FA 		sb	a5,-65(s0)
 602:../Firmware/RISCV/drivers/core_feature_eclic.h ****     __ECLIC_SetCtrlIRQ(IRQn, (cur_ctrl | lvl));
 317              		.loc 3 602 5
 318 00de 034774FC 		lbu	a4,-57(s0)
 319 00e2 8347F4FB 		lbu	a5,-65(s0)
 320 00e6 D98F     		or	a5,a4,a5
 321 00e8 93F7F70F 		andi	a5,a5,0xff
 322 00ec 0327C4FC 		lw	a4,-52(s0)
 323 00f0 232CE4FA 		sw	a4,-72(s0)
 324 00f4 A30BF4FA 		sb	a5,-73(s0)
 325              	.LBB64:
 326              	.LBB65:
 548:../Firmware/RISCV/drivers/core_feature_eclic.h **** }
 327              		.loc 3 548 10
 328 00f8 370700D2 		li	a4,-771751936
 548:../Firmware/RISCV/drivers/core_feature_eclic.h **** }
 329              		.loc 3 548 31
 330 00fc 832784FB 		lw	a5,-72(s0)
 331 0100 93870740 		addi	a5,a5,1024
 332 0104 8A07     		slli	a5,a5,2
 333 0106 BA97     		add	a5,a4,a5
 334 0108 034774FB 		lbu	a4,-73(s0)
 335 010c A381E700 		sb	a4,3(a5)
 549:../Firmware/RISCV/drivers/core_feature_eclic.h **** 
 336              		.loc 3 549 1
 337 0110 11A0     		j	.L8
 338              	.L17:
 339              	.LBE65:
 340              	.LBE64:
 588:../Firmware/RISCV/drivers/core_feature_eclic.h ****     }
 341              		.loc 3 588 9
 342 0112 0100     		nop
 343              	.L8:
 344 0114 8327C4FA 		lw	a5,-84(s0)
 345 0118 2324F4FE 		sw	a5,-24(s0)
 346 011c 8347A4FA 		lbu	a5,-86(s0)
 347 0120 A303F4FE 		sb	a5,-25(s0)
 348              	.LBE59:
 349              	.LBE58:
 350              	.LBB66:
 351              	.LBB67:
 352              	.LBB68:
 353              	.LBB69:
 276:../Firmware/RISCV/drivers/core_feature_eclic.h **** }
 354              		.loc 3 276 30
 355 0124 B70700D2 		li	a5,-771751936
 356 0128 83C70700 		lbu	a5,0(a5)
 357 012c 93F7F70F 		andi	a5,a5,0xff
 276:../Firmware/RISCV/drivers/core_feature_eclic.h **** }
 358              		.loc 3 276 13
 359 0130 8583     		srli	a5,a5,1
 360 0132 BD8B     		andi	a5,a5,15
 361              	.LBE69:
 362              	.LBE68:
 603:../Firmware/RISCV/drivers/core_feature_eclic.h **** }
 604:../Firmware/RISCV/drivers/core_feature_eclic.h **** 
 605:../Firmware/RISCV/drivers/core_feature_eclic.h **** /**
 606:../Firmware/RISCV/drivers/core_feature_eclic.h ****  * \brief  Get ECLIC Interrupt level of a specific interrupt
 607:../Firmware/RISCV/drivers/core_feature_eclic.h ****  * \details
 608:../Firmware/RISCV/drivers/core_feature_eclic.h ****  * This function get interrupt level of the specific interrupt \em IRQn.
 609:../Firmware/RISCV/drivers/core_feature_eclic.h ****  * \param [in]      IRQn  Interrupt number
 610:../Firmware/RISCV/drivers/core_feature_eclic.h ****  * \return         Interrupt level
 611:../Firmware/RISCV/drivers/core_feature_eclic.h ****  * \remarks
 612:../Firmware/RISCV/drivers/core_feature_eclic.h ****  * - IRQn must not be negative.
 613:../Firmware/RISCV/drivers/core_feature_eclic.h ****  * \sa
 614:../Firmware/RISCV/drivers/core_feature_eclic.h ****  * - \ref ECLIC_SetLevelIRQ
 615:../Firmware/RISCV/drivers/core_feature_eclic.h ****  */
 616:../Firmware/RISCV/drivers/core_feature_eclic.h **** __STATIC_FORCEINLINE uint8_t __ECLIC_GetLevelIRQ(IRQn_Type IRQn)
 617:../Firmware/RISCV/drivers/core_feature_eclic.h **** {
 618:../Firmware/RISCV/drivers/core_feature_eclic.h ****     uint8_t nlbits = __ECLIC_GetCfgNlbits();
 619:../Firmware/RISCV/drivers/core_feature_eclic.h ****     uint8_t intctlbits = (uint8_t)__ECLIC_INTCTLBITS;
 620:../Firmware/RISCV/drivers/core_feature_eclic.h **** 
 621:../Firmware/RISCV/drivers/core_feature_eclic.h ****     if (nlbits == 0) {
 622:../Firmware/RISCV/drivers/core_feature_eclic.h ****         return 0;
 623:../Firmware/RISCV/drivers/core_feature_eclic.h ****     }
 624:../Firmware/RISCV/drivers/core_feature_eclic.h **** 
 625:../Firmware/RISCV/drivers/core_feature_eclic.h ****     if (nlbits > intctlbits) {
 626:../Firmware/RISCV/drivers/core_feature_eclic.h ****         nlbits = intctlbits;
 627:../Firmware/RISCV/drivers/core_feature_eclic.h ****     }
 628:../Firmware/RISCV/drivers/core_feature_eclic.h ****     uint8_t intctrl = __ECLIC_GetCtrlIRQ(IRQn);
 629:../Firmware/RISCV/drivers/core_feature_eclic.h ****     uint8_t lvl_abs = intctrl >> (ECLIC_MAX_NLBITS - nlbits);
 630:../Firmware/RISCV/drivers/core_feature_eclic.h ****     return lvl_abs;
 631:../Firmware/RISCV/drivers/core_feature_eclic.h **** }
 632:../Firmware/RISCV/drivers/core_feature_eclic.h **** 
 633:../Firmware/RISCV/drivers/core_feature_eclic.h **** /**
 634:../Firmware/RISCV/drivers/core_feature_eclic.h ****  * \brief  Get ECLIC Interrupt priority of a specific interrupt
 635:../Firmware/RISCV/drivers/core_feature_eclic.h ****  * \details
 636:../Firmware/RISCV/drivers/core_feature_eclic.h ****  * This function get interrupt priority of the specific interrupt \em IRQn.
 637:../Firmware/RISCV/drivers/core_feature_eclic.h ****  * \param [in]      IRQn  Interrupt number
 638:../Firmware/RISCV/drivers/core_feature_eclic.h ****  * \param [in]      pri   Interrupt priority
 639:../Firmware/RISCV/drivers/core_feature_eclic.h ****  * \remarks
 640:../Firmware/RISCV/drivers/core_feature_eclic.h ****  * - IRQn must not be negative.
 641:../Firmware/RISCV/drivers/core_feature_eclic.h ****  * - If pri to be set is larger than the max priority allowed, it will be force to be max priority.
 642:../Firmware/RISCV/drivers/core_feature_eclic.h ****  * - Priority width is CLICINTCTLBITS minus clciinfo.nlbits if clciinfo.nlbits
 643:../Firmware/RISCV/drivers/core_feature_eclic.h ****  *   is less than CLICINTCTLBITS. Otherwise priority width is 0.
 644:../Firmware/RISCV/drivers/core_feature_eclic.h ****  * \sa
 645:../Firmware/RISCV/drivers/core_feature_eclic.h ****  * - \ref ECLIC_GetPriorityIRQ
 646:../Firmware/RISCV/drivers/core_feature_eclic.h ****  */
 647:../Firmware/RISCV/drivers/core_feature_eclic.h **** __STATIC_FORCEINLINE void __ECLIC_SetPriorityIRQ(IRQn_Type IRQn, uint8_t pri)
 648:../Firmware/RISCV/drivers/core_feature_eclic.h **** {
 649:../Firmware/RISCV/drivers/core_feature_eclic.h ****     uint8_t nlbits = __ECLIC_GetCfgNlbits();
 363              		.loc 3 649 13
 364 0134 2303F4FE 		sb	a5,-26(s0)
 650:../Firmware/RISCV/drivers/core_feature_eclic.h ****     uint8_t intctlbits = (uint8_t)__ECLIC_INTCTLBITS;
 365              		.loc 3 650 13
 366 0138 9147     		li	a5,4
 367 013a A302F4FE 		sb	a5,-27(s0)
 651:../Firmware/RISCV/drivers/core_feature_eclic.h ****     if (nlbits < intctlbits) {
 368              		.loc 3 651 8
 369 013e 034764FE 		lbu	a4,-26(s0)
 370 0142 834754FE 		lbu	a5,-27(s0)
 371 0146 6376F70E 		bgeu	a4,a5,.L18
 372              	.LBB70:
 652:../Firmware/RISCV/drivers/core_feature_eclic.h ****         uint8_t maxpri = ((1 << (intctlbits - nlbits)) - 1);
 373              		.loc 3 652 45
 374 014a 034754FE 		lbu	a4,-27(s0)
 375 014e 834764FE 		lbu	a5,-26(s0)
 376 0152 B307F740 		sub	a5,a4,a5
 377              		.loc 3 652 30
 378 0156 0547     		li	a4,1
 379 0158 B317F700 		sll	a5,a4,a5
 380              		.loc 3 652 56
 381 015c 93F7F70F 		andi	a5,a5,0xff
 382              		.loc 3 652 17
 383 0160 FD17     		addi	a5,a5,-1
 384 0162 2302F4FE 		sb	a5,-28(s0)
 653:../Firmware/RISCV/drivers/core_feature_eclic.h ****         if (pri > maxpri) {
 385              		.loc 3 653 12
 386 0166 034774FE 		lbu	a4,-25(s0)
 387 016a 834744FE 		lbu	a5,-28(s0)
 388 016e 63F6E700 		bleu	a4,a5,.L14
 654:../Firmware/RISCV/drivers/core_feature_eclic.h ****             pri = maxpri;
 389              		.loc 3 654 17
 390 0172 834744FE 		lbu	a5,-28(s0)
 391 0176 A303F4FE 		sb	a5,-25(s0)
 392              	.L14:
 655:../Firmware/RISCV/drivers/core_feature_eclic.h ****         }
 656:../Firmware/RISCV/drivers/core_feature_eclic.h ****         pri = pri << (ECLIC_MAX_NLBITS - intctlbits);
 393              		.loc 3 656 19
 394 017a 034774FE 		lbu	a4,-25(s0)
 395              		.loc 3 656 40
 396 017e 834754FE 		lbu	a5,-27(s0)
 397 0182 A146     		li	a3,8
 398 0184 B387F640 		sub	a5,a3,a5
 399              		.loc 3 656 19
 400 0188 B317F700 		sll	a5,a4,a5
 401              		.loc 3 656 13
 402 018c A303F4FE 		sb	a5,-25(s0)
 657:../Firmware/RISCV/drivers/core_feature_eclic.h ****         uint8_t mask = ((uint8_t)(-1)) >> intctlbits;
 403              		.loc 3 657 40
 404 0190 834754FE 		lbu	a5,-27(s0)
 405 0194 1307F00F 		li	a4,255
 406 0198 B357F740 		sra	a5,a4,a5
 407              		.loc 3 657 17
 408 019c A301F4FE 		sb	a5,-29(s0)
 658:../Firmware/RISCV/drivers/core_feature_eclic.h ****         pri = pri | mask;
 409              		.loc 3 658 13
 410 01a0 034774FE 		lbu	a4,-25(s0)
 411 01a4 834734FE 		lbu	a5,-29(s0)
 412 01a8 D98F     		or	a5,a4,a5
 413 01aa A303F4FE 		sb	a5,-25(s0)
 414 01ae 832784FE 		lw	a5,-24(s0)
 415 01b2 232EF4FC 		sw	a5,-36(s0)
 416              	.LBB71:
 417              	.LBB72:
 564:../Firmware/RISCV/drivers/core_feature_eclic.h **** }
 418              		.loc 3 564 18
 419 01b6 370700D2 		li	a4,-771751936
 564:../Firmware/RISCV/drivers/core_feature_eclic.h **** }
 420              		.loc 3 564 30
 421 01ba 8327C4FD 		lw	a5,-36(s0)
 422 01be 93870740 		addi	a5,a5,1024
 423 01c2 8A07     		slli	a5,a5,2
 424 01c4 BA97     		add	a5,a4,a5
 425 01c6 83C73700 		lbu	a5,3(a5)
 426 01ca 93F7F70F 		andi	a5,a5,0xff
 427              	.LBE72:
 428              	.LBE71:
 659:../Firmware/RISCV/drivers/core_feature_eclic.h ****         uint8_t cur_ctrl = __ECLIC_GetCtrlIRQ(IRQn);
 429              		.loc 3 659 28
 430 01ce A30DF4FC 		sb	a5,-37(s0)
 660:../Firmware/RISCV/drivers/core_feature_eclic.h ****         cur_ctrl = cur_ctrl >> (ECLIC_MAX_NLBITS - nlbits);
 431              		.loc 3 660 29
 432 01d2 0347B4FD 		lbu	a4,-37(s0)
 433              		.loc 3 660 50
 434 01d6 834764FE 		lbu	a5,-26(s0)
 435 01da A146     		li	a3,8
 436 01dc B387F640 		sub	a5,a3,a5
 437              		.loc 3 660 29
 438 01e0 B357F740 		sra	a5,a4,a5
 439              		.loc 3 660 18
 440 01e4 A30DF4FC 		sb	a5,-37(s0)
 661:../Firmware/RISCV/drivers/core_feature_eclic.h ****         cur_ctrl = cur_ctrl << (ECLIC_MAX_NLBITS - nlbits);
 441              		.loc 3 661 29
 442 01e8 0347B4FD 		lbu	a4,-37(s0)
 443              		.loc 3 661 50
 444 01ec 834764FE 		lbu	a5,-26(s0)
 445 01f0 A146     		li	a3,8
 446 01f2 B387F640 		sub	a5,a3,a5
 447              		.loc 3 661 29
 448 01f6 B317F700 		sll	a5,a4,a5
 449              		.loc 3 661 18
 450 01fa A30DF4FC 		sb	a5,-37(s0)
 662:../Firmware/RISCV/drivers/core_feature_eclic.h ****         __ECLIC_SetCtrlIRQ(IRQn, (cur_ctrl | pri));
 451              		.loc 3 662 9
 452 01fe 034774FE 		lbu	a4,-25(s0)
 453 0202 8347B4FD 		lbu	a5,-37(s0)
 454 0206 D98F     		or	a5,a4,a5
 455 0208 93F7F70F 		andi	a5,a5,0xff
 456 020c 032784FE 		lw	a4,-24(s0)
 457 0210 232AE4FC 		sw	a4,-44(s0)
 458 0214 A309F4FC 		sb	a5,-45(s0)
 459              	.LBB73:
 460              	.LBB74:
 548:../Firmware/RISCV/drivers/core_feature_eclic.h **** }
 461              		.loc 3 548 10
 462 0218 370700D2 		li	a4,-771751936
 548:../Firmware/RISCV/drivers/core_feature_eclic.h **** }
 463              		.loc 3 548 31
 464 021c 832744FD 		lw	a5,-44(s0)
 465 0220 93870740 		addi	a5,a5,1024
 466 0224 8A07     		slli	a5,a5,2
 467 0226 BA97     		add	a5,a4,a5
 468 0228 034734FD 		lbu	a4,-45(s0)
 469 022c A381E700 		sb	a4,3(a5)
 549:../Firmware/RISCV/drivers/core_feature_eclic.h **** 
 470              		.loc 3 549 1
 471 0230 0100     		nop
 472              	.L18:
 473              	.LBE74:
 474              	.LBE73:
 475              	.LBE70:
 663:../Firmware/RISCV/drivers/core_feature_eclic.h ****     }
 664:../Firmware/RISCV/drivers/core_feature_eclic.h **** }
 476              		.loc 3 664 1
 477 0232 0100     		nop
 478 0234 8327C4FA 		lw	a5,-84(s0)
 479 0238 2326F4FE 		sw	a5,-20(s0)
 480              	.LBE67:
 481              	.LBE66:
 482              	.LBB75:
 483              	.LBB76:
 367:../Firmware/RISCV/drivers/core_feature_eclic.h **** }
 484              		.loc 3 367 29
 485 023c 370700D2 		li	a4,-771751936
 486 0240 8327C4FE 		lw	a5,-20(s0)
 487 0244 93870740 		addi	a5,a5,1024
 488 0248 8A07     		slli	a5,a5,2
 489 024a BA97     		add	a5,a4,a5
 490 024c 83C71700 		lbu	a5,1(a5)
 491 0250 93F7F70F 		andi	a5,a5,0xff
 492 0254 B70600D2 		li	a3,-771751936
 493 0258 93E71700 		ori	a5,a5,1
 494 025c 13F7F70F 		andi	a4,a5,0xff
 495 0260 8327C4FE 		lw	a5,-20(s0)
 496 0264 93870740 		addi	a5,a5,1024
 497 0268 8A07     		slli	a5,a5,2
 498 026a B697     		add	a5,a3,a5
 499 026c A380E700 		sb	a4,1(a5)
 368:../Firmware/RISCV/drivers/core_feature_eclic.h **** 
 500              		.loc 3 368 1
 501 0270 0100     		nop
 502              	.LBE76:
 503              	.LBE75:
  97:../Firmware/GD32VW55x_standard_peripheral/Source/gd32vw55x_eclic.c ****     /* level trigger, non-vector mode */
  98:../Firmware/GD32VW55x_standard_peripheral/Source/gd32vw55x_eclic.c ****     ECLIC_SetLevelIRQ(source, level);
  99:../Firmware/GD32VW55x_standard_peripheral/Source/gd32vw55x_eclic.c ****     ECLIC_SetPriorityIRQ(source, priority);
 100:../Firmware/GD32VW55x_standard_peripheral/Source/gd32vw55x_eclic.c ****     ECLIC_EnableIRQ(source);
 101:../Firmware/GD32VW55x_standard_peripheral/Source/gd32vw55x_eclic.c **** }
 504              		.loc 1 101 1
 505 0272 0100     		nop
 506 0274 7644     		lw	s0,92(sp)
 507              		.cfi_restore 8
 508              		.cfi_def_cfa 2, 96
 509 0276 2561     		addi	sp,sp,96
 510              		.cfi_def_cfa_offset 0
 511 0278 8280     		jr	ra
 512              		.cfi_endproc
 513              	.LFE351:
 515              		.section	.text.eclic_irq_disable,"ax",@progbits
 516              		.align	1
 517              		.globl	eclic_irq_disable
 519              	eclic_irq_disable:
 520              	.LFB352:
 102:../Firmware/GD32VW55x_standard_peripheral/Source/gd32vw55x_eclic.c **** 
 103:../Firmware/GD32VW55x_standard_peripheral/Source/gd32vw55x_eclic.c **** /*!
 104:../Firmware/GD32VW55x_standard_peripheral/Source/gd32vw55x_eclic.c ****     \brief      disable the interrupt request
 105:../Firmware/GD32VW55x_standard_peripheral/Source/gd32vw55x_eclic.c ****     \param[in]  source: interrupt request, detailed in IRQn_Type
 106:../Firmware/GD32VW55x_standard_peripheral/Source/gd32vw55x_eclic.c ****     \param[out] none
 107:../Firmware/GD32VW55x_standard_peripheral/Source/gd32vw55x_eclic.c ****     \retval     none
 108:../Firmware/GD32VW55x_standard_peripheral/Source/gd32vw55x_eclic.c **** */
 109:../Firmware/GD32VW55x_standard_peripheral/Source/gd32vw55x_eclic.c **** void eclic_irq_disable(IRQn_Type source)
 110:../Firmware/GD32VW55x_standard_peripheral/Source/gd32vw55x_eclic.c **** {
 521              		.loc 1 110 1
 522              		.cfi_startproc
 523 0000 7971     		addi	sp,sp,-48
 524              		.cfi_def_cfa_offset 48
 525 0002 22D6     		sw	s0,44(sp)
 526              		.cfi_offset 8, -4
 527 0004 0018     		addi	s0,sp,48
 528              		.cfi_def_cfa 8, 0
 529 0006 232EA4FC 		sw	a0,-36(s0)
 530 000a 8327C4FD 		lw	a5,-36(s0)
 531 000e 2326F4FE 		sw	a5,-20(s0)
 532              	.LBB77:
 533              	.LBB78:
 401:../Firmware/RISCV/drivers/core_feature_eclic.h **** }
 534              		.loc 3 401 29
 535 0012 370700D2 		li	a4,-771751936
 536 0016 8327C4FE 		lw	a5,-20(s0)
 537 001a 93870740 		addi	a5,a5,1024
 538 001e 8A07     		slli	a5,a5,2
 539 0020 BA97     		add	a5,a4,a5
 540 0022 83C71700 		lbu	a5,1(a5)
 541 0026 93F7F70F 		andi	a5,a5,0xff
 542 002a B70600D2 		li	a3,-771751936
 543 002e F99B     		andi	a5,a5,-2
 544 0030 13F7F70F 		andi	a4,a5,0xff
 545 0034 8327C4FE 		lw	a5,-20(s0)
 546 0038 93870740 		addi	a5,a5,1024
 547 003c 8A07     		slli	a5,a5,2
 548 003e B697     		add	a5,a3,a5
 549 0040 A380E700 		sb	a4,1(a5)
 402:../Firmware/RISCV/drivers/core_feature_eclic.h **** 
 550              		.loc 3 402 1
 551 0044 0100     		nop
 552              	.LBE78:
 553              	.LBE77:
 111:../Firmware/GD32VW55x_standard_peripheral/Source/gd32vw55x_eclic.c ****     ECLIC_DisableIRQ(source);
 112:../Firmware/GD32VW55x_standard_peripheral/Source/gd32vw55x_eclic.c **** }
 554              		.loc 1 112 1
 555 0046 0100     		nop
 556 0048 3254     		lw	s0,44(sp)
 557              		.cfi_restore 8
 558              		.cfi_def_cfa 2, 48
 559 004a 4561     		addi	sp,sp,48
 560              		.cfi_def_cfa_offset 0
 561 004c 8280     		jr	ra
 562              		.cfi_endproc
 563              	.LFE352:
 565              		.section	.text.eclic_system_reset,"ax",@progbits
 566              		.align	1
 567              		.globl	eclic_system_reset
 569              	eclic_system_reset:
 570              	.LFB353:
 113:../Firmware/GD32VW55x_standard_peripheral/Source/gd32vw55x_eclic.c **** 
 114:../Firmware/GD32VW55x_standard_peripheral/Source/gd32vw55x_eclic.c **** /*!
 115:../Firmware/GD32VW55x_standard_peripheral/Source/gd32vw55x_eclic.c ****     \brief      reset system
 116:../Firmware/GD32VW55x_standard_peripheral/Source/gd32vw55x_eclic.c ****     \param[in]  none
 117:../Firmware/GD32VW55x_standard_peripheral/Source/gd32vw55x_eclic.c ****     \param[out] none
 118:../Firmware/GD32VW55x_standard_peripheral/Source/gd32vw55x_eclic.c ****     \retval     none
 119:../Firmware/GD32VW55x_standard_peripheral/Source/gd32vw55x_eclic.c **** */
 120:../Firmware/GD32VW55x_standard_peripheral/Source/gd32vw55x_eclic.c **** void eclic_system_reset(void)
 121:../Firmware/GD32VW55x_standard_peripheral/Source/gd32vw55x_eclic.c **** {
 571              		.loc 1 121 1
 572              		.cfi_startproc
 573 0000 4111     		addi	sp,sp,-16
 574              		.cfi_def_cfa_offset 16
 575 0002 22C6     		sw	s0,12(sp)
 576              		.cfi_offset 8, -4
 577 0004 0008     		addi	s0,sp,16
 578              		.cfi_def_cfa 8, 0
 579              	.LBB79:
 580              	.LBB80:
 581              		.file 4 "../Firmware/RISCV/drivers/core_feature_timer.h"
   1:../Firmware/RISCV/drivers/core_feature_timer.h **** /*
   2:../Firmware/RISCV/drivers/core_feature_timer.h ****  * Copyright (c) 2019 Nuclei Limited. All rights reserved.
   3:../Firmware/RISCV/drivers/core_feature_timer.h ****  *
   4:../Firmware/RISCV/drivers/core_feature_timer.h ****  * SPDX-License-Identifier: Apache-2.0
   5:../Firmware/RISCV/drivers/core_feature_timer.h ****  *
   6:../Firmware/RISCV/drivers/core_feature_timer.h ****  * Licensed under the Apache License, Version 2.0 (the License); you may
   7:../Firmware/RISCV/drivers/core_feature_timer.h ****  * not use this file except in compliance with the License.
   8:../Firmware/RISCV/drivers/core_feature_timer.h ****  * You may obtain a copy of the License at
   9:../Firmware/RISCV/drivers/core_feature_timer.h ****  *
  10:../Firmware/RISCV/drivers/core_feature_timer.h ****  * www.apache.org/licenses/LICENSE-2.0
  11:../Firmware/RISCV/drivers/core_feature_timer.h ****  *
  12:../Firmware/RISCV/drivers/core_feature_timer.h ****  * Unless required by applicable law or agreed to in writing, software
  13:../Firmware/RISCV/drivers/core_feature_timer.h ****  * distributed under the License is distributed on an AS IS BASIS, WITHOUT
  14:../Firmware/RISCV/drivers/core_feature_timer.h ****  * WARRANTIES OR CONDITIONS OF ANY KIND, either express or implied.
  15:../Firmware/RISCV/drivers/core_feature_timer.h ****  * See the License for the specific language governing permissions and
  16:../Firmware/RISCV/drivers/core_feature_timer.h ****  * limitations under the License.
  17:../Firmware/RISCV/drivers/core_feature_timer.h ****  */
  18:../Firmware/RISCV/drivers/core_feature_timer.h **** #ifndef __CORE_FEATURE_TIMER_H__
  19:../Firmware/RISCV/drivers/core_feature_timer.h **** #define __CORE_FEATURE_TIMER_H__
  20:../Firmware/RISCV/drivers/core_feature_timer.h **** /*!
  21:../Firmware/RISCV/drivers/core_feature_timer.h ****  * @file     core_feature_timer.h
  22:../Firmware/RISCV/drivers/core_feature_timer.h ****  * @brief    System Timer feature API header file for Nuclei N/NX Core
  23:../Firmware/RISCV/drivers/core_feature_timer.h ****  */
  24:../Firmware/RISCV/drivers/core_feature_timer.h **** /*
  25:../Firmware/RISCV/drivers/core_feature_timer.h ****  * System Timer Feature Configuration Macro:
  26:../Firmware/RISCV/drivers/core_feature_timer.h ****  * 1. __SYSTIMER_PRESENT:  Define whether Private System Timer is present or not.
  27:../Firmware/RISCV/drivers/core_feature_timer.h ****  *   * 0: Not present
  28:../Firmware/RISCV/drivers/core_feature_timer.h ****  *   * 1: Present
  29:../Firmware/RISCV/drivers/core_feature_timer.h ****  * 2. __SYSTIMER_BASEADDR:  Define the base address of the System Timer.
  30:../Firmware/RISCV/drivers/core_feature_timer.h ****  */
  31:../Firmware/RISCV/drivers/core_feature_timer.h **** #ifdef __cplusplus
  32:../Firmware/RISCV/drivers/core_feature_timer.h ****  extern "C" {
  33:../Firmware/RISCV/drivers/core_feature_timer.h **** #endif
  34:../Firmware/RISCV/drivers/core_feature_timer.h **** 
  35:../Firmware/RISCV/drivers/core_feature_timer.h **** #if defined(__SYSTIMER_PRESENT) && (__SYSTIMER_PRESENT == 1)
  36:../Firmware/RISCV/drivers/core_feature_timer.h **** /**
  37:../Firmware/RISCV/drivers/core_feature_timer.h ****  * \defgroup NMSIS_Core_SysTimer_Registers     Register Define and Type Definitions Of System Timer
  38:../Firmware/RISCV/drivers/core_feature_timer.h ****  * \ingroup NMSIS_Core_Registers
  39:../Firmware/RISCV/drivers/core_feature_timer.h ****  * \brief   Type definitions and defines for system timer registers.
  40:../Firmware/RISCV/drivers/core_feature_timer.h ****  *
  41:../Firmware/RISCV/drivers/core_feature_timer.h ****  * @{
  42:../Firmware/RISCV/drivers/core_feature_timer.h ****  */
  43:../Firmware/RISCV/drivers/core_feature_timer.h **** /**
  44:../Firmware/RISCV/drivers/core_feature_timer.h ****  * \brief  Structure type to access the System Timer (SysTimer).
  45:../Firmware/RISCV/drivers/core_feature_timer.h ****  * \details
  46:../Firmware/RISCV/drivers/core_feature_timer.h ****  * Structure definition to access the system timer(SysTimer).
  47:../Firmware/RISCV/drivers/core_feature_timer.h ****  * \remarks
  48:../Firmware/RISCV/drivers/core_feature_timer.h ****  * - MSFTRST register is introduced in Nuclei N Core version 1.3(\ref __NUCLEI_N_REV >= 0x0103)
  49:../Firmware/RISCV/drivers/core_feature_timer.h ****  * - MSTOP register is renamed to MTIMECTL register in Nuclei N Core version 1.4(\ref __NUCLEI_N_RE
  50:../Firmware/RISCV/drivers/core_feature_timer.h ****  * - CMPCLREN and CLKSRC bit in MTIMECTL register is introduced in Nuclei N Core version 1.4(\ref _
  51:../Firmware/RISCV/drivers/core_feature_timer.h ****  */
  52:../Firmware/RISCV/drivers/core_feature_timer.h **** typedef struct {
  53:../Firmware/RISCV/drivers/core_feature_timer.h ****     __IOM uint64_t MTIMER;                  /*!< Offset: 0x000 (R/W)  System Timer current value 64
  54:../Firmware/RISCV/drivers/core_feature_timer.h ****     __IOM uint64_t MTIMERCMP;               /*!< Offset: 0x008 (R/W)  System Timer compare Value 64
  55:../Firmware/RISCV/drivers/core_feature_timer.h ****     __IOM uint32_t RESERVED0[0x3F8];        /*!< Offset: 0x010 - 0xFEC Reserved */
  56:../Firmware/RISCV/drivers/core_feature_timer.h ****     __IOM uint32_t MSFTRST;                 /*!< Offset: 0xFF0 (R/W)  System Timer Software Core Re
  57:../Firmware/RISCV/drivers/core_feature_timer.h ****     __IOM uint32_t RESERVED1;               /*!< Offset: 0xFF4 Reserved */
  58:../Firmware/RISCV/drivers/core_feature_timer.h ****     __IOM uint32_t MTIMECTL;                /*!< Offset: 0xFF8 (R/W)  System Timer Control Register
  59:../Firmware/RISCV/drivers/core_feature_timer.h ****     __IOM uint32_t MSIP;                    /*!< Offset: 0xFFC (R/W)  System Timer SW interrupt Reg
  60:../Firmware/RISCV/drivers/core_feature_timer.h **** } SysTimer_Type;
  61:../Firmware/RISCV/drivers/core_feature_timer.h **** 
  62:../Firmware/RISCV/drivers/core_feature_timer.h **** /* Timer Control / Status Register Definitions */
  63:../Firmware/RISCV/drivers/core_feature_timer.h **** #define SysTimer_MTIMECTL_TIMESTOP_Pos      0U                                          /*!< SysTic
  64:../Firmware/RISCV/drivers/core_feature_timer.h **** #define SysTimer_MTIMECTL_TIMESTOP_Msk      (1UL << SysTimer_MTIMECTL_TIMESTOP_Pos)     /*!< SysTic
  65:../Firmware/RISCV/drivers/core_feature_timer.h **** #define SysTimer_MTIMECTL_CMPCLREN_Pos      1U                                          /*!< SysTic
  66:../Firmware/RISCV/drivers/core_feature_timer.h **** #define SysTimer_MTIMECTL_CMPCLREN_Msk      (1UL << SysTimer_MTIMECTL_CMPCLREN_Pos)     /*!< SysTic
  67:../Firmware/RISCV/drivers/core_feature_timer.h **** #define SysTimer_MTIMECTL_CLKSRC_Pos        2U                                          /*!< SysTic
  68:../Firmware/RISCV/drivers/core_feature_timer.h **** #define SysTimer_MTIMECTL_CLKSRC_Msk        (1UL << SysTimer_MTIMECTL_CLKSRC_Pos)       /*!< SysTic
  69:../Firmware/RISCV/drivers/core_feature_timer.h **** 
  70:../Firmware/RISCV/drivers/core_feature_timer.h **** #define SysTimer_MSIP_MSIP_Pos              0U                                          /*!< SysTic
  71:../Firmware/RISCV/drivers/core_feature_timer.h **** #define SysTimer_MSIP_MSIP_Msk              (1UL << SysTimer_MSIP_MSIP_Pos)             /*!< SysTic
  72:../Firmware/RISCV/drivers/core_feature_timer.h **** 
  73:../Firmware/RISCV/drivers/core_feature_timer.h **** #define SysTimer_MTIMER_Msk                 (0xFFFFFFFFFFFFFFFFULL)                     /*!< SysTic
  74:../Firmware/RISCV/drivers/core_feature_timer.h **** #define SysTimer_MTIMERCMP_Msk              (0xFFFFFFFFFFFFFFFFULL)                     /*!< SysTic
  75:../Firmware/RISCV/drivers/core_feature_timer.h **** #define SysTimer_MTIMECTL_Msk               (0xFFFFFFFFUL)                              /*!< SysTic
  76:../Firmware/RISCV/drivers/core_feature_timer.h **** #define SysTimer_MSIP_Msk                   (0xFFFFFFFFUL)                              /*!< SysTic
  77:../Firmware/RISCV/drivers/core_feature_timer.h **** #define SysTimer_MSFTRST_Msk                (0xFFFFFFFFUL)                              /*!< SysTic
  78:../Firmware/RISCV/drivers/core_feature_timer.h **** 
  79:../Firmware/RISCV/drivers/core_feature_timer.h **** #define SysTimer_MSFRST_KEY                 (0x80000A5FUL)                              /*!< SysTic
  80:../Firmware/RISCV/drivers/core_feature_timer.h **** 
  81:../Firmware/RISCV/drivers/core_feature_timer.h **** #ifndef __SYSTIMER_BASEADDR
  82:../Firmware/RISCV/drivers/core_feature_timer.h **** /* Base address of SYSTIMER(__SYSTIMER_BASEADDR) should be defined in <Device.h> */
  83:../Firmware/RISCV/drivers/core_feature_timer.h **** #error "__SYSTIMER_BASEADDR is not defined, please check!"
  84:../Firmware/RISCV/drivers/core_feature_timer.h **** #endif
  85:../Firmware/RISCV/drivers/core_feature_timer.h **** /* System Timer Memory mapping of Device  */
  86:../Firmware/RISCV/drivers/core_feature_timer.h **** #define SysTimer_BASE                       __SYSTIMER_BASEADDR                         /*!< SysTic
  87:../Firmware/RISCV/drivers/core_feature_timer.h **** #define SysTimer                            ((SysTimer_Type *) SysTimer_BASE)           /*!< SysTic
  88:../Firmware/RISCV/drivers/core_feature_timer.h **** /** @} */ /* end of group NMSIS_Core_SysTimer_Registers */
  89:../Firmware/RISCV/drivers/core_feature_timer.h **** 
  90:../Firmware/RISCV/drivers/core_feature_timer.h **** /* ##################################    SysTimer function  #######################################
  91:../Firmware/RISCV/drivers/core_feature_timer.h **** /**
  92:../Firmware/RISCV/drivers/core_feature_timer.h ****  * \defgroup NMSIS_Core_SysTimer SysTimer Functions
  93:../Firmware/RISCV/drivers/core_feature_timer.h ****  * \brief    Functions that configure the Core System Timer.
  94:../Firmware/RISCV/drivers/core_feature_timer.h ****  * @{
  95:../Firmware/RISCV/drivers/core_feature_timer.h ****  */
  96:../Firmware/RISCV/drivers/core_feature_timer.h **** /**
  97:../Firmware/RISCV/drivers/core_feature_timer.h ****  * \brief  Set system timer load value
  98:../Firmware/RISCV/drivers/core_feature_timer.h ****  * \details
  99:../Firmware/RISCV/drivers/core_feature_timer.h ****  * This function set the system timer load value in MTIMER register.
 100:../Firmware/RISCV/drivers/core_feature_timer.h ****  * \param [in]  value   value to set system timer MTIMER register.
 101:../Firmware/RISCV/drivers/core_feature_timer.h ****  * \remarks
 102:../Firmware/RISCV/drivers/core_feature_timer.h ****  * - Load value is 64bits wide.
 103:../Firmware/RISCV/drivers/core_feature_timer.h ****  * - \ref SysTimer_GetLoadValue
 104:../Firmware/RISCV/drivers/core_feature_timer.h ****  */
 105:../Firmware/RISCV/drivers/core_feature_timer.h **** __STATIC_FORCEINLINE void SysTimer_SetLoadValue(uint64_t value)
 106:../Firmware/RISCV/drivers/core_feature_timer.h **** {
 107:../Firmware/RISCV/drivers/core_feature_timer.h ****     SysTimer->MTIMER = value;
 108:../Firmware/RISCV/drivers/core_feature_timer.h **** }
 109:../Firmware/RISCV/drivers/core_feature_timer.h **** 
 110:../Firmware/RISCV/drivers/core_feature_timer.h **** /**
 111:../Firmware/RISCV/drivers/core_feature_timer.h ****  * \brief  Get system timer load value
 112:../Firmware/RISCV/drivers/core_feature_timer.h ****  * \details
 113:../Firmware/RISCV/drivers/core_feature_timer.h ****  * This function get the system timer current value in MTIMER register.
 114:../Firmware/RISCV/drivers/core_feature_timer.h ****  * \return  current value(64bit) of system timer MTIMER register.
 115:../Firmware/RISCV/drivers/core_feature_timer.h ****  * \remarks
 116:../Firmware/RISCV/drivers/core_feature_timer.h ****  * - Load value is 64bits wide.
 117:../Firmware/RISCV/drivers/core_feature_timer.h ****  * - \ref SysTimer_SetLoadValue
 118:../Firmware/RISCV/drivers/core_feature_timer.h ****  */
 119:../Firmware/RISCV/drivers/core_feature_timer.h **** __STATIC_FORCEINLINE uint64_t SysTimer_GetLoadValue(void)
 120:../Firmware/RISCV/drivers/core_feature_timer.h **** {
 121:../Firmware/RISCV/drivers/core_feature_timer.h ****     return SysTimer->MTIMER;
 122:../Firmware/RISCV/drivers/core_feature_timer.h **** }
 123:../Firmware/RISCV/drivers/core_feature_timer.h **** 
 124:../Firmware/RISCV/drivers/core_feature_timer.h **** /**
 125:../Firmware/RISCV/drivers/core_feature_timer.h ****  * \brief  Set system timer compare value
 126:../Firmware/RISCV/drivers/core_feature_timer.h ****  * \details
 127:../Firmware/RISCV/drivers/core_feature_timer.h ****  * This function set the system Timer compare value in MTIMERCMP register.
 128:../Firmware/RISCV/drivers/core_feature_timer.h ****  * \param [in]  value   compare value to set system timer MTIMERCMP register.
 129:../Firmware/RISCV/drivers/core_feature_timer.h ****  * \remarks
 130:../Firmware/RISCV/drivers/core_feature_timer.h ****  * - Compare value is 64bits wide.
 131:../Firmware/RISCV/drivers/core_feature_timer.h ****  * - If compare value is larger than current value timer interrupt generate.
 132:../Firmware/RISCV/drivers/core_feature_timer.h ****  * - Modify the load value or compare value less to clear the interrupt.
 133:../Firmware/RISCV/drivers/core_feature_timer.h ****  * - \ref SysTimer_GetCompareValue
 134:../Firmware/RISCV/drivers/core_feature_timer.h ****  */
 135:../Firmware/RISCV/drivers/core_feature_timer.h **** __STATIC_FORCEINLINE void SysTimer_SetCompareValue(uint64_t value)
 136:../Firmware/RISCV/drivers/core_feature_timer.h **** {
 137:../Firmware/RISCV/drivers/core_feature_timer.h ****     SysTimer->MTIMERCMP = value;
 138:../Firmware/RISCV/drivers/core_feature_timer.h **** }
 139:../Firmware/RISCV/drivers/core_feature_timer.h **** 
 140:../Firmware/RISCV/drivers/core_feature_timer.h **** /**
 141:../Firmware/RISCV/drivers/core_feature_timer.h ****  * \brief  Get system timer compare value
 142:../Firmware/RISCV/drivers/core_feature_timer.h ****  * \details
 143:../Firmware/RISCV/drivers/core_feature_timer.h ****  * This function get the system timer compare value in MTIMERCMP register.
 144:../Firmware/RISCV/drivers/core_feature_timer.h ****  * \return  compare value of system timer MTIMERCMP register.
 145:../Firmware/RISCV/drivers/core_feature_timer.h ****  * \remarks
 146:../Firmware/RISCV/drivers/core_feature_timer.h ****  * - Compare value is 64bits wide.
 147:../Firmware/RISCV/drivers/core_feature_timer.h ****  * - \ref SysTimer_SetCompareValue
 148:../Firmware/RISCV/drivers/core_feature_timer.h ****  */
 149:../Firmware/RISCV/drivers/core_feature_timer.h **** __STATIC_FORCEINLINE uint64_t SysTimer_GetCompareValue(void)
 150:../Firmware/RISCV/drivers/core_feature_timer.h **** {
 151:../Firmware/RISCV/drivers/core_feature_timer.h ****     return SysTimer->MTIMERCMP;
 152:../Firmware/RISCV/drivers/core_feature_timer.h **** }
 153:../Firmware/RISCV/drivers/core_feature_timer.h **** 
 154:../Firmware/RISCV/drivers/core_feature_timer.h **** /**
 155:../Firmware/RISCV/drivers/core_feature_timer.h ****  * \brief  Enable system timer counter running
 156:../Firmware/RISCV/drivers/core_feature_timer.h ****  * \details
 157:../Firmware/RISCV/drivers/core_feature_timer.h ****  * Enable system timer counter running by clear
 158:../Firmware/RISCV/drivers/core_feature_timer.h ****  * TIMESTOP bit in MTIMECTL register.
 159:../Firmware/RISCV/drivers/core_feature_timer.h ****  */
 160:../Firmware/RISCV/drivers/core_feature_timer.h **** __STATIC_FORCEINLINE void SysTimer_Start(void)
 161:../Firmware/RISCV/drivers/core_feature_timer.h **** {
 162:../Firmware/RISCV/drivers/core_feature_timer.h ****     SysTimer->MTIMECTL &= ~(SysTimer_MTIMECTL_TIMESTOP_Msk);
 163:../Firmware/RISCV/drivers/core_feature_timer.h **** }
 164:../Firmware/RISCV/drivers/core_feature_timer.h **** 
 165:../Firmware/RISCV/drivers/core_feature_timer.h **** /**
 166:../Firmware/RISCV/drivers/core_feature_timer.h ****  * \brief  Stop system timer counter running
 167:../Firmware/RISCV/drivers/core_feature_timer.h ****  * \details
 168:../Firmware/RISCV/drivers/core_feature_timer.h ****  * Stop system timer counter running by set
 169:../Firmware/RISCV/drivers/core_feature_timer.h ****  * TIMESTOP bit in MTIMECTL register.
 170:../Firmware/RISCV/drivers/core_feature_timer.h ****  */
 171:../Firmware/RISCV/drivers/core_feature_timer.h **** __STATIC_FORCEINLINE void SysTimer_Stop(void)
 172:../Firmware/RISCV/drivers/core_feature_timer.h **** {
 173:../Firmware/RISCV/drivers/core_feature_timer.h ****     SysTimer->MTIMECTL |= SysTimer_MTIMECTL_TIMESTOP_Msk;
 174:../Firmware/RISCV/drivers/core_feature_timer.h **** }
 175:../Firmware/RISCV/drivers/core_feature_timer.h **** 
 176:../Firmware/RISCV/drivers/core_feature_timer.h **** /**
 177:../Firmware/RISCV/drivers/core_feature_timer.h ****  * \brief  Set system timer control value
 178:../Firmware/RISCV/drivers/core_feature_timer.h ****  * \details
 179:../Firmware/RISCV/drivers/core_feature_timer.h ****  * This function set the system timer MTIMECTL register value.
 180:../Firmware/RISCV/drivers/core_feature_timer.h ****  * \param [in]  mctl    value to set MTIMECTL register
 181:../Firmware/RISCV/drivers/core_feature_timer.h ****  * \remarks
 182:../Firmware/RISCV/drivers/core_feature_timer.h ****  * - Bit TIMESTOP is used to start and stop timer.
 183:../Firmware/RISCV/drivers/core_feature_timer.h ****  *   Clear TIMESTOP bit to 0 to start timer, otherwise to stop timer.
 184:../Firmware/RISCV/drivers/core_feature_timer.h ****  * - Bit CMPCLREN is used to enable auto MTIMER clear to zero when MTIMER >= MTIMERCMP.
 185:../Firmware/RISCV/drivers/core_feature_timer.h ****  *   Clear CMPCLREN bit to 0 to stop auto clear MTIMER feature, otherwise to enable it.
 186:../Firmware/RISCV/drivers/core_feature_timer.h ****  * - Bit CLKSRC is used to select timer clock source.
 187:../Firmware/RISCV/drivers/core_feature_timer.h ****  *   Clear CLKSRC bit to 0 to use *mtime_toggle_a*, otherwise use *core_clk_aon*
 188:../Firmware/RISCV/drivers/core_feature_timer.h ****  * - \ref SysTimer_GetControlValue
 189:../Firmware/RISCV/drivers/core_feature_timer.h ****  */
 190:../Firmware/RISCV/drivers/core_feature_timer.h **** __STATIC_FORCEINLINE void SysTimer_SetControlValue(uint32_t mctl)
 191:../Firmware/RISCV/drivers/core_feature_timer.h **** {
 192:../Firmware/RISCV/drivers/core_feature_timer.h ****     SysTimer->MTIMECTL = (mctl & SysTimer_MTIMECTL_Msk);
 193:../Firmware/RISCV/drivers/core_feature_timer.h **** }
 194:../Firmware/RISCV/drivers/core_feature_timer.h **** 
 195:../Firmware/RISCV/drivers/core_feature_timer.h **** /**
 196:../Firmware/RISCV/drivers/core_feature_timer.h ****  * \brief  Get system timer control value
 197:../Firmware/RISCV/drivers/core_feature_timer.h ****  * \details
 198:../Firmware/RISCV/drivers/core_feature_timer.h ****  * This function get the system timer MTIMECTL register value.
 199:../Firmware/RISCV/drivers/core_feature_timer.h ****  * \return  MTIMECTL register value
 200:../Firmware/RISCV/drivers/core_feature_timer.h ****  * \remarks
 201:../Firmware/RISCV/drivers/core_feature_timer.h ****  * - \ref SysTimer_SetControlValue
 202:../Firmware/RISCV/drivers/core_feature_timer.h ****  */
 203:../Firmware/RISCV/drivers/core_feature_timer.h **** __STATIC_FORCEINLINE uint32_t SysTimer_GetControlValue(void)
 204:../Firmware/RISCV/drivers/core_feature_timer.h **** {
 205:../Firmware/RISCV/drivers/core_feature_timer.h ****     return (SysTimer->MTIMECTL & SysTimer_MTIMECTL_Msk);
 206:../Firmware/RISCV/drivers/core_feature_timer.h **** }
 207:../Firmware/RISCV/drivers/core_feature_timer.h **** 
 208:../Firmware/RISCV/drivers/core_feature_timer.h **** /**
 209:../Firmware/RISCV/drivers/core_feature_timer.h ****  * \brief  Trigger or set software interrupt via system timer
 210:../Firmware/RISCV/drivers/core_feature_timer.h ****  * \details
 211:../Firmware/RISCV/drivers/core_feature_timer.h ****  * This function set the system timer MSIP bit in MSIP register.
 212:../Firmware/RISCV/drivers/core_feature_timer.h ****  * \remarks
 213:../Firmware/RISCV/drivers/core_feature_timer.h ****  * - Set system timer MSIP bit and generate a SW interrupt.
 214:../Firmware/RISCV/drivers/core_feature_timer.h ****  * - \ref SysTimer_ClearSWIRQ
 215:../Firmware/RISCV/drivers/core_feature_timer.h ****  * - \ref SysTimer_GetMsipValue
 216:../Firmware/RISCV/drivers/core_feature_timer.h ****  */
 217:../Firmware/RISCV/drivers/core_feature_timer.h **** __STATIC_FORCEINLINE void SysTimer_SetSWIRQ(void)
 218:../Firmware/RISCV/drivers/core_feature_timer.h **** {
 219:../Firmware/RISCV/drivers/core_feature_timer.h ****     SysTimer->MSIP |= SysTimer_MSIP_MSIP_Msk;
 220:../Firmware/RISCV/drivers/core_feature_timer.h **** }
 221:../Firmware/RISCV/drivers/core_feature_timer.h **** 
 222:../Firmware/RISCV/drivers/core_feature_timer.h **** /**
 223:../Firmware/RISCV/drivers/core_feature_timer.h ****  * \brief  Clear system timer software interrupt pending request
 224:../Firmware/RISCV/drivers/core_feature_timer.h ****  * \details
 225:../Firmware/RISCV/drivers/core_feature_timer.h ****  * This function clear the system timer MSIP bit in MSIP register.
 226:../Firmware/RISCV/drivers/core_feature_timer.h ****  * \remarks
 227:../Firmware/RISCV/drivers/core_feature_timer.h ****  * - Clear system timer MSIP bit in MSIP register to clear the software interrupt pending.
 228:../Firmware/RISCV/drivers/core_feature_timer.h ****  * - \ref SysTimer_SetSWIRQ
 229:../Firmware/RISCV/drivers/core_feature_timer.h ****  * - \ref SysTimer_GetMsipValue
 230:../Firmware/RISCV/drivers/core_feature_timer.h ****  */
 231:../Firmware/RISCV/drivers/core_feature_timer.h **** __STATIC_FORCEINLINE void SysTimer_ClearSWIRQ(void)
 232:../Firmware/RISCV/drivers/core_feature_timer.h **** {
 233:../Firmware/RISCV/drivers/core_feature_timer.h ****     SysTimer->MSIP &= ~SysTimer_MSIP_MSIP_Msk;
 234:../Firmware/RISCV/drivers/core_feature_timer.h **** }
 235:../Firmware/RISCV/drivers/core_feature_timer.h **** 
 236:../Firmware/RISCV/drivers/core_feature_timer.h **** /**
 237:../Firmware/RISCV/drivers/core_feature_timer.h ****  * \brief  Get system timer MSIP register value
 238:../Firmware/RISCV/drivers/core_feature_timer.h ****  * \details
 239:../Firmware/RISCV/drivers/core_feature_timer.h ****  * This function get the system timer MSIP register value.
 240:../Firmware/RISCV/drivers/core_feature_timer.h ****  * \return    Value of Timer MSIP register.
 241:../Firmware/RISCV/drivers/core_feature_timer.h ****  * \remarks
 242:../Firmware/RISCV/drivers/core_feature_timer.h ****  * - Bit0 is SW interrupt flag.
 243:../Firmware/RISCV/drivers/core_feature_timer.h ****  *   Bit0 is 1 then SW interrupt set. Bit0 is 0 then SW interrupt clear.
 244:../Firmware/RISCV/drivers/core_feature_timer.h ****  * - \ref SysTimer_SetSWIRQ
 245:../Firmware/RISCV/drivers/core_feature_timer.h ****  * - \ref SysTimer_ClearSWIRQ
 246:../Firmware/RISCV/drivers/core_feature_timer.h ****  */
 247:../Firmware/RISCV/drivers/core_feature_timer.h **** __STATIC_FORCEINLINE uint32_t SysTimer_GetMsipValue(void)
 248:../Firmware/RISCV/drivers/core_feature_timer.h **** {
 249:../Firmware/RISCV/drivers/core_feature_timer.h ****     return (uint32_t)(SysTimer->MSIP & SysTimer_MSIP_Msk);
 250:../Firmware/RISCV/drivers/core_feature_timer.h **** }
 251:../Firmware/RISCV/drivers/core_feature_timer.h **** 
 252:../Firmware/RISCV/drivers/core_feature_timer.h **** /**
 253:../Firmware/RISCV/drivers/core_feature_timer.h ****  * \brief  Set system timer MSIP register value
 254:../Firmware/RISCV/drivers/core_feature_timer.h ****  * \details
 255:../Firmware/RISCV/drivers/core_feature_timer.h ****  * This function set the system timer MSIP register value.
 256:../Firmware/RISCV/drivers/core_feature_timer.h ****  * \param [in]  msip   value to set MSIP register
 257:../Firmware/RISCV/drivers/core_feature_timer.h ****  */
 258:../Firmware/RISCV/drivers/core_feature_timer.h **** __STATIC_FORCEINLINE void SysTimer_SetMsipValue(uint32_t msip)
 259:../Firmware/RISCV/drivers/core_feature_timer.h **** {
 260:../Firmware/RISCV/drivers/core_feature_timer.h ****     SysTimer->MSIP = (msip & SysTimer_MSIP_Msk);
 261:../Firmware/RISCV/drivers/core_feature_timer.h **** }
 262:../Firmware/RISCV/drivers/core_feature_timer.h **** 
 263:../Firmware/RISCV/drivers/core_feature_timer.h **** /**
 264:../Firmware/RISCV/drivers/core_feature_timer.h ****  * \brief  Do software reset request
 265:../Firmware/RISCV/drivers/core_feature_timer.h ****  * \details
 266:../Firmware/RISCV/drivers/core_feature_timer.h ****  * This function will do software reset request through MTIMER
 267:../Firmware/RISCV/drivers/core_feature_timer.h ****  * - Software need to write \ref SysTimer_MSFRST_KEY to generate software reset request
 268:../Firmware/RISCV/drivers/core_feature_timer.h ****  * - The software request flag can be cleared by reset operation to clear
 269:../Firmware/RISCV/drivers/core_feature_timer.h ****  * \remarks
 270:../Firmware/RISCV/drivers/core_feature_timer.h ****  * - The software reset is sent to SoC, SoC need to generate reset signal and send back to Core
 271:../Firmware/RISCV/drivers/core_feature_timer.h ****  * - This function will not return, it will do while(1) to wait the Core reset happened
 272:../Firmware/RISCV/drivers/core_feature_timer.h ****  */
 273:../Firmware/RISCV/drivers/core_feature_timer.h **** __STATIC_FORCEINLINE void SysTimer_SoftwareReset(void)
 274:../Firmware/RISCV/drivers/core_feature_timer.h **** {
 275:../Firmware/RISCV/drivers/core_feature_timer.h ****     SysTimer->MSFTRST = SysTimer_MSFRST_KEY;
 582              		.loc 4 275 13
 583 0006 370700D1 		li	a4,-788529152
 584              		.loc 4 275 23
 585 000a 8567     		li	a5,4096
 586 000c BA97     		add	a5,a4,a5
 587 000e 37170080 		li	a4,-2147479552
 588 0012 1307F7A5 		addi	a4,a4,-1441
 589 0016 23A8E7FE 		sw	a4,-16(a5)
 590              	.L21:
 276:../Firmware/RISCV/drivers/core_feature_timer.h ****     while(1);
 591              		.loc 4 276 10
 592 001a 01A0     		j	.L21
 593              	.LBE80:
 594              	.LBE79:
 595              		.cfi_endproc
 596              	.LFE353:
 598              		.text
 599              	.Letext0:
 600              		.file 5 "e:\\gd32\\gd32embeddedbuilder_v1.5.2.30854\\tools\\nuclei_riscv_newlibc_prebuilt_win32_20
 601              		.file 6 "e:\\gd32\\gd32embeddedbuilder_v1.5.2.30854\\tools\\nuclei_riscv_newlibc_prebuilt_win32_20
 602              		.file 7 "../Firmware/GD32VW55x_standard_peripheral/gd32vw55x.h"
DEFINED SYMBOLS
                            *ABS*:0000000000000000 gd32vw55x_eclic.c
C:\Users\CYMR90~1\AppData\Local\Temp\ccLPYcmd.s:13     .text.eclic_global_interrupt_enable:0000000000000000 eclic_global_interrupt_enable
C:\Users\CYMR90~1\AppData\Local\Temp\ccLPYcmd.s:17     .text.eclic_global_interrupt_enable:0000000000000000 .L0 
C:\Users\CYMR90~1\AppData\Local\Temp\ccLPYcmd.s:18     .text.eclic_global_interrupt_enable:0000000000000000 .L0 
C:\Users\CYMR90~1\AppData\Local\Temp\ccLPYcmd.s:19     .text.eclic_global_interrupt_enable:0000000000000002 .L0 
C:\Users\CYMR90~1\AppData\Local\Temp\ccLPYcmd.s:22     .text.eclic_global_interrupt_enable:0000000000000006 .L0 
C:\Users\CYMR90~1\AppData\Local\Temp\ccLPYcmd.s:23     .text.eclic_global_interrupt_enable:0000000000000006 .L0 
C:\Users\CYMR90~1\AppData\Local\Temp\ccLPYcmd.s:25     .text.eclic_global_interrupt_enable:0000000000000008 .L0 
C:\Users\CYMR90~1\AppData\Local\Temp\ccLPYcmd.s:31     .text.eclic_global_interrupt_enable:0000000000000008 .L0 
C:\Users\CYMR90~1\AppData\Local\Temp\ccLPYcmd.s:39     .text.eclic_global_interrupt_enable:000000000000000e .L0 
C:\Users\CYMR90~1\AppData\Local\Temp\ccLPYcmd.s:43     .text.eclic_global_interrupt_enable:0000000000000010 .L0 
C:\Users\CYMR90~1\AppData\Local\Temp\ccLPYcmd.s:45     .text.eclic_global_interrupt_enable:0000000000000014 .L0 
C:\Users\CYMR90~1\AppData\Local\Temp\ccLPYcmd.s:46     .text.eclic_global_interrupt_enable:0000000000000014 .L0 
C:\Users\CYMR90~1\AppData\Local\Temp\ccLPYcmd.s:48     .text.eclic_global_interrupt_enable:0000000000000016 .L0 
C:\Users\CYMR90~1\AppData\Local\Temp\ccLPYcmd.s:50     .text.eclic_global_interrupt_enable:0000000000000018 .L0 
C:\Users\CYMR90~1\AppData\Local\Temp\ccLPYcmd.s:52     .text.eclic_global_interrupt_enable:000000000000001a .L0 
C:\Users\CYMR90~1\AppData\Local\Temp\ccLPYcmd.s:59     .text.eclic_global_interrupt_disable:0000000000000000 eclic_global_interrupt_disable
C:\Users\CYMR90~1\AppData\Local\Temp\ccLPYcmd.s:62     .text.eclic_global_interrupt_disable:0000000000000000 .L0 
C:\Users\CYMR90~1\AppData\Local\Temp\ccLPYcmd.s:63     .text.eclic_global_interrupt_disable:0000000000000000 .L0 
C:\Users\CYMR90~1\AppData\Local\Temp\ccLPYcmd.s:64     .text.eclic_global_interrupt_disable:0000000000000002 .L0 
C:\Users\CYMR90~1\AppData\Local\Temp\ccLPYcmd.s:67     .text.eclic_global_interrupt_disable:0000000000000006 .L0 
C:\Users\CYMR90~1\AppData\Local\Temp\ccLPYcmd.s:68     .text.eclic_global_interrupt_disable:0000000000000006 .L0 
C:\Users\CYMR90~1\AppData\Local\Temp\ccLPYcmd.s:70     .text.eclic_global_interrupt_disable:0000000000000008 .L0 
C:\Users\CYMR90~1\AppData\Local\Temp\ccLPYcmd.s:75     .text.eclic_global_interrupt_disable:0000000000000008 .L0 
C:\Users\CYMR90~1\AppData\Local\Temp\ccLPYcmd.s:83     .text.eclic_global_interrupt_disable:000000000000000e .L0 
C:\Users\CYMR90~1\AppData\Local\Temp\ccLPYcmd.s:87     .text.eclic_global_interrupt_disable:0000000000000010 .L0 
C:\Users\CYMR90~1\AppData\Local\Temp\ccLPYcmd.s:89     .text.eclic_global_interrupt_disable:0000000000000014 .L0 
C:\Users\CYMR90~1\AppData\Local\Temp\ccLPYcmd.s:90     .text.eclic_global_interrupt_disable:0000000000000014 .L0 
C:\Users\CYMR90~1\AppData\Local\Temp\ccLPYcmd.s:92     .text.eclic_global_interrupt_disable:0000000000000016 .L0 
C:\Users\CYMR90~1\AppData\Local\Temp\ccLPYcmd.s:94     .text.eclic_global_interrupt_disable:0000000000000018 .L0 
C:\Users\CYMR90~1\AppData\Local\Temp\ccLPYcmd.s:96     .text.eclic_global_interrupt_disable:000000000000001a .L0 
C:\Users\CYMR90~1\AppData\Local\Temp\ccLPYcmd.s:103    .text.eclic_level_threshold_set:0000000000000000 eclic_level_threshold_set
C:\Users\CYMR90~1\AppData\Local\Temp\ccLPYcmd.s:106    .text.eclic_level_threshold_set:0000000000000000 .L0 
C:\Users\CYMR90~1\AppData\Local\Temp\ccLPYcmd.s:107    .text.eclic_level_threshold_set:0000000000000000 .L0 
C:\Users\CYMR90~1\AppData\Local\Temp\ccLPYcmd.s:108    .text.eclic_level_threshold_set:0000000000000002 .L0 
C:\Users\CYMR90~1\AppData\Local\Temp\ccLPYcmd.s:110    .text.eclic_level_threshold_set:0000000000000004 .L0 
C:\Users\CYMR90~1\AppData\Local\Temp\ccLPYcmd.s:112    .text.eclic_level_threshold_set:0000000000000006 .L0 
C:\Users\CYMR90~1\AppData\Local\Temp\ccLPYcmd.s:121    .text.eclic_level_threshold_set:0000000000000014 .L0 
C:\Users\CYMR90~1\AppData\Local\Temp\ccLPYcmd.s:123    .text.eclic_level_threshold_set:0000000000000018 .L0 
C:\Users\CYMR90~1\AppData\Local\Temp\ccLPYcmd.s:126    .text.eclic_level_threshold_set:0000000000000020 .L0 
C:\Users\CYMR90~1\AppData\Local\Temp\ccLPYcmd.s:130    .text.eclic_level_threshold_set:0000000000000022 .L0 
C:\Users\CYMR90~1\AppData\Local\Temp\ccLPYcmd.s:132    .text.eclic_level_threshold_set:0000000000000026 .L0 
C:\Users\CYMR90~1\AppData\Local\Temp\ccLPYcmd.s:133    .text.eclic_level_threshold_set:0000000000000026 .L0 
C:\Users\CYMR90~1\AppData\Local\Temp\ccLPYcmd.s:135    .text.eclic_level_threshold_set:0000000000000028 .L0 
C:\Users\CYMR90~1\AppData\Local\Temp\ccLPYcmd.s:137    .text.eclic_level_threshold_set:000000000000002a .L0 
C:\Users\CYMR90~1\AppData\Local\Temp\ccLPYcmd.s:144    .text.eclic_priority_group_set:0000000000000000 eclic_priority_group_set
C:\Users\CYMR90~1\AppData\Local\Temp\ccLPYcmd.s:147    .text.eclic_priority_group_set:0000000000000000 .L0 
C:\Users\CYMR90~1\AppData\Local\Temp\ccLPYcmd.s:148    .text.eclic_priority_group_set:0000000000000000 .L0 
C:\Users\CYMR90~1\AppData\Local\Temp\ccLPYcmd.s:149    .text.eclic_priority_group_set:0000000000000002 .L0 
C:\Users\CYMR90~1\AppData\Local\Temp\ccLPYcmd.s:151    .text.eclic_priority_group_set:0000000000000004 .L0 
C:\Users\CYMR90~1\AppData\Local\Temp\ccLPYcmd.s:153    .text.eclic_priority_group_set:0000000000000006 .L0 
C:\Users\CYMR90~1\AppData\Local\Temp\ccLPYcmd.s:157    .text.eclic_priority_group_set:000000000000000c .L0 
C:\Users\CYMR90~1\AppData\Local\Temp\ccLPYcmd.s:162    .text.eclic_priority_group_set:0000000000000014 .L0 
C:\Users\CYMR90~1\AppData\Local\Temp\ccLPYcmd.s:170    .text.eclic_priority_group_set:000000000000002e .L0 
C:\Users\CYMR90~1\AppData\Local\Temp\ccLPYcmd.s:176    .text.eclic_priority_group_set:0000000000000040 .L0 
C:\Users\CYMR90~1\AppData\Local\Temp\ccLPYcmd.s:183    .text.eclic_priority_group_set:0000000000000052 .L0 
C:\Users\CYMR90~1\AppData\Local\Temp\ccLPYcmd.s:187    .text.eclic_priority_group_set:0000000000000058 .L0 
C:\Users\CYMR90~1\AppData\Local\Temp\ccLPYcmd.s:194    .text.eclic_priority_group_set:000000000000006c .L0 
C:\Users\CYMR90~1\AppData\Local\Temp\ccLPYcmd.s:198    .text.eclic_priority_group_set:000000000000006e .L0 
C:\Users\CYMR90~1\AppData\Local\Temp\ccLPYcmd.s:200    .text.eclic_priority_group_set:0000000000000072 .L0 
C:\Users\CYMR90~1\AppData\Local\Temp\ccLPYcmd.s:201    .text.eclic_priority_group_set:0000000000000072 .L0 
C:\Users\CYMR90~1\AppData\Local\Temp\ccLPYcmd.s:203    .text.eclic_priority_group_set:0000000000000074 .L0 
C:\Users\CYMR90~1\AppData\Local\Temp\ccLPYcmd.s:205    .text.eclic_priority_group_set:0000000000000076 .L0 
C:\Users\CYMR90~1\AppData\Local\Temp\ccLPYcmd.s:212    .text.eclic_irq_enable:0000000000000000 eclic_irq_enable
C:\Users\CYMR90~1\AppData\Local\Temp\ccLPYcmd.s:215    .text.eclic_irq_enable:0000000000000000 .L0 
C:\Users\CYMR90~1\AppData\Local\Temp\ccLPYcmd.s:216    .text.eclic_irq_enable:0000000000000000 .L0 
C:\Users\CYMR90~1\AppData\Local\Temp\ccLPYcmd.s:217    .text.eclic_irq_enable:0000000000000002 .L0 
C:\Users\CYMR90~1\AppData\Local\Temp\ccLPYcmd.s:219    .text.eclic_irq_enable:0000000000000004 .L0 
C:\Users\CYMR90~1\AppData\Local\Temp\ccLPYcmd.s:221    .text.eclic_irq_enable:0000000000000006 .L0 
C:\Users\CYMR90~1\AppData\Local\Temp\ccLPYcmd.s:237    .text.eclic_irq_enable:0000000000000028 .L0 
C:\Users\CYMR90~1\AppData\Local\Temp\ccLPYcmd.s:241    .text.eclic_irq_enable:0000000000000034 .L0 
C:\Users\CYMR90~1\AppData\Local\Temp\ccLPYcmd.s:246    .text.eclic_irq_enable:0000000000000038 .L0 
C:\Users\CYMR90~1\AppData\Local\Temp\ccLPYcmd.s:248    .text.eclic_irq_enable:000000000000003c .L0 
C:\Users\CYMR90~1\AppData\Local\Temp\ccLPYcmd.s:251    .text.eclic_irq_enable:0000000000000042 .L0 
C:\Users\CYMR90~1\AppData\Local\Temp\ccLPYcmd.s:254    .text.eclic_irq_enable:0000000000000048 .L0 
C:\Users\CYMR90~1\AppData\Local\Temp\ccLPYcmd.s:258    .text.eclic_irq_enable:0000000000000054 .L0 
C:\Users\CYMR90~1\AppData\Local\Temp\ccLPYcmd.s:262    .text.eclic_irq_enable:000000000000005c .L0 
C:\Users\CYMR90~1\AppData\Local\Temp\ccLPYcmd.s:266    .text.eclic_irq_enable:0000000000000066 .L0 
C:\Users\CYMR90~1\AppData\Local\Temp\ccLPYcmd.s:268    .text.eclic_irq_enable:000000000000006a .L0 
C:\Users\CYMR90~1\AppData\Local\Temp\ccLPYcmd.s:271    .text.eclic_irq_enable:0000000000000070 .L0 
C:\Users\CYMR90~1\AppData\Local\Temp\ccLPYcmd.s:275    .text.eclic_irq_enable:000000000000007c .L0 
C:\Users\CYMR90~1\AppData\Local\Temp\ccLPYcmd.s:279    .text.eclic_irq_enable:0000000000000084 .L0 
C:\Users\CYMR90~1\AppData\Local\Temp\ccLPYcmd.s:281    .text.eclic_irq_enable:0000000000000088 .L0 
C:\Users\CYMR90~1\AppData\Local\Temp\ccLPYcmd.s:285    .text.eclic_irq_enable:0000000000000092 .L0 
C:\Users\CYMR90~1\AppData\Local\Temp\ccLPYcmd.s:287    .text.eclic_irq_enable:0000000000000096 .L0 
C:\Users\CYMR90~1\AppData\Local\Temp\ccLPYcmd.s:293    .text.eclic_irq_enable:00000000000000a2 .L0 
C:\Users\CYMR90~1\AppData\Local\Temp\ccLPYcmd.s:295    .text.eclic_irq_enable:00000000000000a6 .L0 
C:\Users\CYMR90~1\AppData\Local\Temp\ccLPYcmd.s:304    .text.eclic_irq_enable:00000000000000ba .L0 
C:\Users\CYMR90~1\AppData\Local\Temp\ccLPYcmd.s:306    .text.eclic_irq_enable:00000000000000be .L0 
C:\Users\CYMR90~1\AppData\Local\Temp\ccLPYcmd.s:310    .text.eclic_irq_enable:00000000000000ca .L0 
C:\Users\CYMR90~1\AppData\Local\Temp\ccLPYcmd.s:312    .text.eclic_irq_enable:00000000000000ce .L0 
C:\Users\CYMR90~1\AppData\Local\Temp\ccLPYcmd.s:316    .text.eclic_irq_enable:00000000000000da .L0 
C:\Users\CYMR90~1\AppData\Local\Temp\ccLPYcmd.s:318    .text.eclic_irq_enable:00000000000000de .L0 
C:\Users\CYMR90~1\AppData\Local\Temp\ccLPYcmd.s:328    .text.eclic_irq_enable:00000000000000f8 .L0 
C:\Users\CYMR90~1\AppData\Local\Temp\ccLPYcmd.s:330    .text.eclic_irq_enable:00000000000000fc .L0 
C:\Users\CYMR90~1\AppData\Local\Temp\ccLPYcmd.s:337    .text.eclic_irq_enable:0000000000000110 .L0 
C:\Users\CYMR90~1\AppData\Local\Temp\ccLPYcmd.s:342    .text.eclic_irq_enable:0000000000000112 .L0 
C:\Users\CYMR90~1\AppData\Local\Temp\ccLPYcmd.s:355    .text.eclic_irq_enable:0000000000000124 .L0 
C:\Users\CYMR90~1\AppData\Local\Temp\ccLPYcmd.s:359    .text.eclic_irq_enable:0000000000000130 .L0 
C:\Users\CYMR90~1\AppData\Local\Temp\ccLPYcmd.s:364    .text.eclic_irq_enable:0000000000000134 .L0 
C:\Users\CYMR90~1\AppData\Local\Temp\ccLPYcmd.s:366    .text.eclic_irq_enable:0000000000000138 .L0 
C:\Users\CYMR90~1\AppData\Local\Temp\ccLPYcmd.s:369    .text.eclic_irq_enable:000000000000013e .L0 
C:\Users\CYMR90~1\AppData\Local\Temp\ccLPYcmd.s:374    .text.eclic_irq_enable:000000000000014a .L0 
C:\Users\CYMR90~1\AppData\Local\Temp\ccLPYcmd.s:378    .text.eclic_irq_enable:0000000000000156 .L0 
C:\Users\CYMR90~1\AppData\Local\Temp\ccLPYcmd.s:381    .text.eclic_irq_enable:000000000000015c .L0 
C:\Users\CYMR90~1\AppData\Local\Temp\ccLPYcmd.s:383    .text.eclic_irq_enable:0000000000000160 .L0 
C:\Users\CYMR90~1\AppData\Local\Temp\ccLPYcmd.s:386    .text.eclic_irq_enable:0000000000000166 .L0 
C:\Users\CYMR90~1\AppData\Local\Temp\ccLPYcmd.s:390    .text.eclic_irq_enable:0000000000000172 .L0 
C:\Users\CYMR90~1\AppData\Local\Temp\ccLPYcmd.s:394    .text.eclic_irq_enable:000000000000017a .L0 
C:\Users\CYMR90~1\AppData\Local\Temp\ccLPYcmd.s:396    .text.eclic_irq_enable:000000000000017e .L0 
C:\Users\CYMR90~1\AppData\Local\Temp\ccLPYcmd.s:400    .text.eclic_irq_enable:0000000000000188 .L0 
C:\Users\CYMR90~1\AppData\Local\Temp\ccLPYcmd.s:402    .text.eclic_irq_enable:000000000000018c .L0 
C:\Users\CYMR90~1\AppData\Local\Temp\ccLPYcmd.s:404    .text.eclic_irq_enable:0000000000000190 .L0 
C:\Users\CYMR90~1\AppData\Local\Temp\ccLPYcmd.s:408    .text.eclic_irq_enable:000000000000019c .L0 
C:\Users\CYMR90~1\AppData\Local\Temp\ccLPYcmd.s:410    .text.eclic_irq_enable:00000000000001a0 .L0 
C:\Users\CYMR90~1\AppData\Local\Temp\ccLPYcmd.s:419    .text.eclic_irq_enable:00000000000001b6 .L0 
C:\Users\CYMR90~1\AppData\Local\Temp\ccLPYcmd.s:421    .text.eclic_irq_enable:00000000000001ba .L0 
C:\Users\CYMR90~1\AppData\Local\Temp\ccLPYcmd.s:430    .text.eclic_irq_enable:00000000000001ce .L0 
C:\Users\CYMR90~1\AppData\Local\Temp\ccLPYcmd.s:432    .text.eclic_irq_enable:00000000000001d2 .L0 
C:\Users\CYMR90~1\AppData\Local\Temp\ccLPYcmd.s:434    .text.eclic_irq_enable:00000000000001d6 .L0 
C:\Users\CYMR90~1\AppData\Local\Temp\ccLPYcmd.s:438    .text.eclic_irq_enable:00000000000001e0 .L0 
C:\Users\CYMR90~1\AppData\Local\Temp\ccLPYcmd.s:440    .text.eclic_irq_enable:00000000000001e4 .L0 
C:\Users\CYMR90~1\AppData\Local\Temp\ccLPYcmd.s:442    .text.eclic_irq_enable:00000000000001e8 .L0 
C:\Users\CYMR90~1\AppData\Local\Temp\ccLPYcmd.s:444    .text.eclic_irq_enable:00000000000001ec .L0 
C:\Users\CYMR90~1\AppData\Local\Temp\ccLPYcmd.s:448    .text.eclic_irq_enable:00000000000001f6 .L0 
C:\Users\CYMR90~1\AppData\Local\Temp\ccLPYcmd.s:450    .text.eclic_irq_enable:00000000000001fa .L0 
C:\Users\CYMR90~1\AppData\Local\Temp\ccLPYcmd.s:452    .text.eclic_irq_enable:00000000000001fe .L0 
C:\Users\CYMR90~1\AppData\Local\Temp\ccLPYcmd.s:462    .text.eclic_irq_enable:0000000000000218 .L0 
C:\Users\CYMR90~1\AppData\Local\Temp\ccLPYcmd.s:464    .text.eclic_irq_enable:000000000000021c .L0 
C:\Users\CYMR90~1\AppData\Local\Temp\ccLPYcmd.s:471    .text.eclic_irq_enable:0000000000000230 .L0 
C:\Users\CYMR90~1\AppData\Local\Temp\ccLPYcmd.s:477    .text.eclic_irq_enable:0000000000000232 .L0 
C:\Users\CYMR90~1\AppData\Local\Temp\ccLPYcmd.s:485    .text.eclic_irq_enable:000000000000023c .L0 
C:\Users\CYMR90~1\AppData\Local\Temp\ccLPYcmd.s:501    .text.eclic_irq_enable:0000000000000270 .L0 
C:\Users\CYMR90~1\AppData\Local\Temp\ccLPYcmd.s:505    .text.eclic_irq_enable:0000000000000272 .L0 
C:\Users\CYMR90~1\AppData\Local\Temp\ccLPYcmd.s:507    .text.eclic_irq_enable:0000000000000276 .L0 
C:\Users\CYMR90~1\AppData\Local\Temp\ccLPYcmd.s:508    .text.eclic_irq_enable:0000000000000276 .L0 
C:\Users\CYMR90~1\AppData\Local\Temp\ccLPYcmd.s:510    .text.eclic_irq_enable:0000000000000278 .L0 
C:\Users\CYMR90~1\AppData\Local\Temp\ccLPYcmd.s:512    .text.eclic_irq_enable:000000000000027a .L0 
C:\Users\CYMR90~1\AppData\Local\Temp\ccLPYcmd.s:519    .text.eclic_irq_disable:0000000000000000 eclic_irq_disable
C:\Users\CYMR90~1\AppData\Local\Temp\ccLPYcmd.s:522    .text.eclic_irq_disable:0000000000000000 .L0 
C:\Users\CYMR90~1\AppData\Local\Temp\ccLPYcmd.s:523    .text.eclic_irq_disable:0000000000000000 .L0 
C:\Users\CYMR90~1\AppData\Local\Temp\ccLPYcmd.s:524    .text.eclic_irq_disable:0000000000000002 .L0 
C:\Users\CYMR90~1\AppData\Local\Temp\ccLPYcmd.s:526    .text.eclic_irq_disable:0000000000000004 .L0 
C:\Users\CYMR90~1\AppData\Local\Temp\ccLPYcmd.s:528    .text.eclic_irq_disable:0000000000000006 .L0 
C:\Users\CYMR90~1\AppData\Local\Temp\ccLPYcmd.s:535    .text.eclic_irq_disable:0000000000000012 .L0 
C:\Users\CYMR90~1\AppData\Local\Temp\ccLPYcmd.s:551    .text.eclic_irq_disable:0000000000000044 .L0 
C:\Users\CYMR90~1\AppData\Local\Temp\ccLPYcmd.s:555    .text.eclic_irq_disable:0000000000000046 .L0 
C:\Users\CYMR90~1\AppData\Local\Temp\ccLPYcmd.s:557    .text.eclic_irq_disable:000000000000004a .L0 
C:\Users\CYMR90~1\AppData\Local\Temp\ccLPYcmd.s:558    .text.eclic_irq_disable:000000000000004a .L0 
C:\Users\CYMR90~1\AppData\Local\Temp\ccLPYcmd.s:560    .text.eclic_irq_disable:000000000000004c .L0 
C:\Users\CYMR90~1\AppData\Local\Temp\ccLPYcmd.s:562    .text.eclic_irq_disable:000000000000004e .L0 
C:\Users\CYMR90~1\AppData\Local\Temp\ccLPYcmd.s:569    .text.eclic_system_reset:0000000000000000 eclic_system_reset
C:\Users\CYMR90~1\AppData\Local\Temp\ccLPYcmd.s:572    .text.eclic_system_reset:0000000000000000 .L0 
C:\Users\CYMR90~1\AppData\Local\Temp\ccLPYcmd.s:573    .text.eclic_system_reset:0000000000000000 .L0 
C:\Users\CYMR90~1\AppData\Local\Temp\ccLPYcmd.s:574    .text.eclic_system_reset:0000000000000002 .L0 
C:\Users\CYMR90~1\AppData\Local\Temp\ccLPYcmd.s:576    .text.eclic_system_reset:0000000000000004 .L0 
C:\Users\CYMR90~1\AppData\Local\Temp\ccLPYcmd.s:578    .text.eclic_system_reset:0000000000000006 .L0 
C:\Users\CYMR90~1\AppData\Local\Temp\ccLPYcmd.s:583    .text.eclic_system_reset:0000000000000006 .L0 
C:\Users\CYMR90~1\AppData\Local\Temp\ccLPYcmd.s:585    .text.eclic_system_reset:000000000000000a .L0 
C:\Users\CYMR90~1\AppData\Local\Temp\ccLPYcmd.s:592    .text.eclic_system_reset:000000000000001a .L0 
C:\Users\CYMR90~1\AppData\Local\Temp\ccLPYcmd.s:595    .text.eclic_system_reset:000000000000001c .L0 
C:\Users\CYMR90~1\AppData\Local\Temp\ccLPYcmd.s:55     .text.eclic_global_interrupt_enable:000000000000001a .L0 
C:\Users\CYMR90~1\AppData\Local\Temp\ccLPYcmd.s:99     .text.eclic_global_interrupt_disable:000000000000001a .L0 
C:\Users\CYMR90~1\AppData\Local\Temp\ccLPYcmd.s:140    .text.eclic_level_threshold_set:000000000000002a .L0 
C:\Users\CYMR90~1\AppData\Local\Temp\ccLPYcmd.s:208    .text.eclic_priority_group_set:0000000000000076 .L0 
C:\Users\CYMR90~1\AppData\Local\Temp\ccLPYcmd.s:515    .text.eclic_irq_enable:000000000000027a .L0 
C:\Users\CYMR90~1\AppData\Local\Temp\ccLPYcmd.s:565    .text.eclic_irq_disable:000000000000004e .L0 
C:\Users\CYMR90~1\AppData\Local\Temp\ccLPYcmd.s:598    .text.eclic_system_reset:000000000000001c .L0 
                     .debug_frame:0000000000000000 .L0 
C:\Users\CYMR90~1\AppData\Local\Temp\ccLPYcmd.s:338    .text.eclic_irq_enable:0000000000000112 .L17
C:\Users\CYMR90~1\AppData\Local\Temp\ccLPYcmd.s:260    .text.eclic_irq_enable:000000000000005c .L9
C:\Users\CYMR90~1\AppData\Local\Temp\ccLPYcmd.s:277    .text.eclic_irq_enable:0000000000000084 .L10
C:\Users\CYMR90~1\AppData\Local\Temp\ccLPYcmd.s:343    .text.eclic_irq_enable:0000000000000114 .L8
C:\Users\CYMR90~1\AppData\Local\Temp\ccLPYcmd.s:472    .text.eclic_irq_enable:0000000000000232 .L18
C:\Users\CYMR90~1\AppData\Local\Temp\ccLPYcmd.s:392    .text.eclic_irq_enable:000000000000017a .L14
C:\Users\CYMR90~1\AppData\Local\Temp\ccLPYcmd.s:590    .text.eclic_system_reset:000000000000001a .L21
C:\Users\CYMR90~1\AppData\Local\Temp\ccLPYcmd.s:1801   .debug_abbrev:0000000000000000 .Ldebug_abbrev0
C:\Users\CYMR90~1\AppData\Local\Temp\ccLPYcmd.s:22813  .debug_str:000000000000b01d .LASF5700
C:\Users\CYMR90~1\AppData\Local\Temp\ccLPYcmd.s:26958  .debug_str:000000000001b8f8 .LASF5701
C:\Users\CYMR90~1\AppData\Local\Temp\ccLPYcmd.s:25755  .debug_str:000000000001696e .LASF5702
C:\Users\CYMR90~1\AppData\Local\Temp\ccLPYcmd.s:2375   .debug_ranges:0000000000000000 .Ldebug_ranges0
C:\Users\CYMR90~1\AppData\Local\Temp\ccLPYcmd.s:20031  .debug_line:0000000000000000 .Ldebug_line0
C:\Users\CYMR90~1\AppData\Local\Temp\ccLPYcmd.s:2393   .debug_macro:0000000000000000 .Ldebug_macro0
C:\Users\CYMR90~1\AppData\Local\Temp\ccLPYcmd.s:31404  .debug_str:000000000002d23a .LASF5556
C:\Users\CYMR90~1\AppData\Local\Temp\ccLPYcmd.s:20051  .debug_str:0000000000000131 .LASF5557
C:\Users\CYMR90~1\AppData\Local\Temp\ccLPYcmd.s:20987  .debug_str:0000000000003b96 .LASF5558
C:\Users\CYMR90~1\AppData\Local\Temp\ccLPYcmd.s:26218  .debug_str:000000000001872e .LASF5559
C:\Users\CYMR90~1\AppData\Local\Temp\ccLPYcmd.s:22297  .debug_str:0000000000008f44 .LASF5564
C:\Users\CYMR90~1\AppData\Local\Temp\ccLPYcmd.s:25665  .debug_str:0000000000016362 .LASF5560
C:\Users\CYMR90~1\AppData\Local\Temp\ccLPYcmd.s:27562  .debug_str:000000000001e037 .LASF5561
C:\Users\CYMR90~1\AppData\Local\Temp\ccLPYcmd.s:25127  .debug_str:0000000000014330 .LASF5562
C:\Users\CYMR90~1\AppData\Local\Temp\ccLPYcmd.s:27968  .debug_str:000000000001f884 .LASF5563
C:\Users\CYMR90~1\AppData\Local\Temp\ccLPYcmd.s:26428  .debug_str:0000000000019572 .LASF5565
C:\Users\CYMR90~1\AppData\Local\Temp\ccLPYcmd.s:20177  .debug_str:00000000000008ad .LASF5566
C:\Users\CYMR90~1\AppData\Local\Temp\ccLPYcmd.s:30998  .debug_str:000000000002b725 .LASF5567
C:\Users\CYMR90~1\AppData\Local\Temp\ccLPYcmd.s:29556  .debug_str:0000000000025c83 .LASF5568
C:\Users\CYMR90~1\AppData\Local\Temp\ccLPYcmd.s:25932  .debug_str:0000000000017602 .LASF855
C:\Users\CYMR90~1\AppData\Local\Temp\ccLPYcmd.s:25429  .debug_str:00000000000154fe .LASF5569
C:\Users\CYMR90~1\AppData\Local\Temp\ccLPYcmd.s:29670  .debug_str:0000000000026393 .LASF5570
C:\Users\CYMR90~1\AppData\Local\Temp\ccLPYcmd.s:23761  .debug_str:000000000000ed46 .LASF5571
C:\Users\CYMR90~1\AppData\Local\Temp\ccLPYcmd.s:28170  .debug_str:00000000000204d1 .LASF5683
C:\Users\CYMR90~1\AppData\Local\Temp\ccLPYcmd.s:25329  .debug_str:0000000000014f76 .LASF5572
C:\Users\CYMR90~1\AppData\Local\Temp\ccLPYcmd.s:20829  .debug_str:0000000000003125 .LASF5573
C:\Users\CYMR90~1\AppData\Local\Temp\ccLPYcmd.s:23699  .debug_str:000000000000e979 .LASF5574
C:\Users\CYMR90~1\AppData\Local\Temp\ccLPYcmd.s:23803  .debug_str:000000000000ef34 .LASF5575
C:\Users\CYMR90~1\AppData\Local\Temp\ccLPYcmd.s:28924  .debug_str:000000000002327b .LASF5576
C:\Users\CYMR90~1\AppData\Local\Temp\ccLPYcmd.s:30690  .debug_str:000000000002a4aa .LASF5577
C:\Users\CYMR90~1\AppData\Local\Temp\ccLPYcmd.s:21521  .debug_str:0000000000005d96 .LASF5578
C:\Users\CYMR90~1\AppData\Local\Temp\ccLPYcmd.s:30402  .debug_str:0000000000029301 .LASF5579
C:\Users\CYMR90~1\AppData\Local\Temp\ccLPYcmd.s:26062  .debug_str:0000000000017e1b .LASF5580
C:\Users\CYMR90~1\AppData\Local\Temp\ccLPYcmd.s:29680  .debug_str:0000000000026430 .LASF5581
C:\Users\CYMR90~1\AppData\Local\Temp\ccLPYcmd.s:21829  .debug_str:0000000000007006 .LASF5582
C:\Users\CYMR90~1\AppData\Local\Temp\ccLPYcmd.s:25335  .debug_str:0000000000014fad .LASF5583
C:\Users\CYMR90~1\AppData\Local\Temp\ccLPYcmd.s:30570  .debug_str:0000000000029dab .LASF5584
C:\Users\CYMR90~1\AppData\Local\Temp\ccLPYcmd.s:29420  .debug_str:00000000000251ac .LASF5585
C:\Users\CYMR90~1\AppData\Local\Temp\ccLPYcmd.s:21563  .debug_str:0000000000005fb6 .LASF5586
C:\Users\CYMR90~1\AppData\Local\Temp\ccLPYcmd.s:29640  .debug_str:0000000000026172 .LASF5587
C:\Users\CYMR90~1\AppData\Local\Temp\ccLPYcmd.s:28684  .debug_str:0000000000022467 .LASF5588
C:\Users\CYMR90~1\AppData\Local\Temp\ccLPYcmd.s:20853  .debug_str:00000000000032b1 .LASF5589
C:\Users\CYMR90~1\AppData\Local\Temp\ccLPYcmd.s:24451  .debug_str:0000000000011756 .LASF5590
C:\Users\CYMR90~1\AppData\Local\Temp\ccLPYcmd.s:27918  .debug_str:000000000001f5ae .LASF5591
C:\Users\CYMR90~1\AppData\Local\Temp\ccLPYcmd.s:24923  .debug_str:00000000000136f8 .LASF5592
C:\Users\CYMR90~1\AppData\Local\Temp\ccLPYcmd.s:26128  .debug_str:00000000000181d8 .LASF5593
C:\Users\CYMR90~1\AppData\Local\Temp\ccLPYcmd.s:25185  .debug_str:00000000000146d4 .LASF5594
C:\Users\CYMR90~1\AppData\Local\Temp\ccLPYcmd.s:28686  .debug_str:0000000000022479 .LASF5595
C:\Users\CYMR90~1\AppData\Local\Temp\ccLPYcmd.s:26590  .debug_str:000000000001a010 .LASF5596
C:\Users\CYMR90~1\AppData\Local\Temp\ccLPYcmd.s:23091  .debug_str:000000000000c30d .LASF5597
C:\Users\CYMR90~1\AppData\Local\Temp\ccLPYcmd.s:22421  .debug_str:000000000000969d .LASF5598
C:\Users\CYMR90~1\AppData\Local\Temp\ccLPYcmd.s:27990  .debug_str:000000000001f9ed .LASF5599
C:\Users\CYMR90~1\AppData\Local\Temp\ccLPYcmd.s:20205  .debug_str:0000000000000a2a .LASF5600
C:\Users\CYMR90~1\AppData\Local\Temp\ccLPYcmd.s:30836  .debug_str:000000000002ad70 .LASF5601
C:\Users\CYMR90~1\AppData\Local\Temp\ccLPYcmd.s:28010  .debug_str:000000000001fb1e .LASF5602
C:\Users\CYMR90~1\AppData\Local\Temp\ccLPYcmd.s:24057  .debug_str:000000000000ff4f .LASF5603
C:\Users\CYMR90~1\AppData\Local\Temp\ccLPYcmd.s:21247  .debug_str:0000000000004d1d .LASF5604
C:\Users\CYMR90~1\AppData\Local\Temp\ccLPYcmd.s:23763  .debug_str:000000000000ed4f .LASF5605
C:\Users\CYMR90~1\AppData\Local\Temp\ccLPYcmd.s:21115  .debug_str:00000000000043fa .LASF5606
C:\Users\CYMR90~1\AppData\Local\Temp\ccLPYcmd.s:26876  .debug_str:000000000001b3e5 .LASF5607
C:\Users\CYMR90~1\AppData\Local\Temp\ccLPYcmd.s:30390  .debug_str:000000000002924b .LASF5608
C:\Users\CYMR90~1\AppData\Local\Temp\ccLPYcmd.s:26436  .debug_str:00000000000195f9 .LASF5609
C:\Users\CYMR90~1\AppData\Local\Temp\ccLPYcmd.s:24181  .debug_str:00000000000106b8 .LASF5610
C:\Users\CYMR90~1\AppData\Local\Temp\ccLPYcmd.s:24471  .debug_str:0000000000011935 .LASF5611
C:\Users\CYMR90~1\AppData\Local\Temp\ccLPYcmd.s:20527  .debug_str:0000000000001eb5 .LASF5612
C:\Users\CYMR90~1\AppData\Local\Temp\ccLPYcmd.s:24137  .debug_str:0000000000010435 .LASF5613
C:\Users\CYMR90~1\AppData\Local\Temp\ccLPYcmd.s:28270  .debug_str:0000000000020b00 .LASF5614
C:\Users\CYMR90~1\AppData\Local\Temp\ccLPYcmd.s:26388  .debug_str:0000000000019315 .LASF5615
C:\Users\CYMR90~1\AppData\Local\Temp\ccLPYcmd.s:30916  .debug_str:000000000002b21f .LASF5616
C:\Users\CYMR90~1\AppData\Local\Temp\ccLPYcmd.s:22335  .debug_str:0000000000009148 .LASF5617
C:\Users\CYMR90~1\AppData\Local\Temp\ccLPYcmd.s:30304  .debug_str:0000000000028d2e .LASF5618
C:\Users\CYMR90~1\AppData\Local\Temp\ccLPYcmd.s:20161  .debug_str:00000000000007c7 .LASF5619
C:\Users\CYMR90~1\AppData\Local\Temp\ccLPYcmd.s:22087  .debug_str:0000000000008200 .LASF5620
C:\Users\CYMR90~1\AppData\Local\Temp\ccLPYcmd.s:24735  .debug_str:0000000000012a55 .LASF5621
C:\Users\CYMR90~1\AppData\Local\Temp\ccLPYcmd.s:31286  .debug_str:000000000002ca3d .LASF5622
C:\Users\CYMR90~1\AppData\Local\Temp\ccLPYcmd.s:25215  .debug_str:0000000000014871 .LASF5623
C:\Users\CYMR90~1\AppData\Local\Temp\ccLPYcmd.s:27312  .debug_str:000000000001cfa5 .LASF5624
C:\Users\CYMR90~1\AppData\Local\Temp\ccLPYcmd.s:24145  .debug_str:0000000000010497 .LASF5625
C:\Users\CYMR90~1\AppData\Local\Temp\ccLPYcmd.s:27612  .debug_str:000000000001e31c .LASF5626
C:\Users\CYMR90~1\AppData\Local\Temp\ccLPYcmd.s:31270  .debug_str:000000000002c96e .LASF5627
C:\Users\CYMR90~1\AppData\Local\Temp\ccLPYcmd.s:23429  .debug_str:000000000000d909 .LASF5628
C:\Users\CYMR90~1\AppData\Local\Temp\ccLPYcmd.s:21423  .debug_str:0000000000005784 .LASF5629
C:\Users\CYMR90~1\AppData\Local\Temp\ccLPYcmd.s:30516  .debug_str:0000000000029a8a .LASF5630
C:\Users\CYMR90~1\AppData\Local\Temp\ccLPYcmd.s:22687  .debug_str:000000000000a725 .LASF5631
C:\Users\CYMR90~1\AppData\Local\Temp\ccLPYcmd.s:26170  .debug_str:0000000000018458 .LASF5632
C:\Users\CYMR90~1\AppData\Local\Temp\ccLPYcmd.s:25800  .debug_str:0000000000016e88 .LASF5633
C:\Users\CYMR90~1\AppData\Local\Temp\ccLPYcmd.s:25327  .debug_str:0000000000014f6d .LASF5634
C:\Users\CYMR90~1\AppData\Local\Temp\ccLPYcmd.s:30762  .debug_str:000000000002a91f .LASF5635
C:\Users\CYMR90~1\AppData\Local\Temp\ccLPYcmd.s:20049  .debug_str:0000000000000123 .LASF5636
C:\Users\CYMR90~1\AppData\Local\Temp\ccLPYcmd.s:21543  .debug_str:0000000000005eaa .LASF5637
C:\Users\CYMR90~1\AppData\Local\Temp\ccLPYcmd.s:24711  .debug_str:00000000000128bc .LASF5638
C:\Users\CYMR90~1\AppData\Local\Temp\ccLPYcmd.s:28382  .debug_str:0000000000021154 .LASF5639
C:\Users\CYMR90~1\AppData\Local\Temp\ccLPYcmd.s:20559  .debug_str:0000000000002078 .LASF5640
C:\Users\CYMR90~1\AppData\Local\Temp\ccLPYcmd.s:24087  .debug_str:00000000000100fb .LASF5641
C:\Users\CYMR90~1\AppData\Local\Temp\ccLPYcmd.s:21891  .debug_str:0000000000007459 .LASF5642
C:\Users\CYMR90~1\AppData\Local\Temp\ccLPYcmd.s:25910  .debug_str:00000000000174d5 .LASF5643
C:\Users\CYMR90~1\AppData\Local\Temp\ccLPYcmd.s:25605  .debug_str:0000000000015fe9 .LASF5644
C:\Users\CYMR90~1\AppData\Local\Temp\ccLPYcmd.s:20561  .debug_str:0000000000002090 .LASF5645
C:\Users\CYMR90~1\AppData\Local\Temp\ccLPYcmd.s:29736  .debug_str:000000000002675a .LASF5646
C:\Users\CYMR90~1\AppData\Local\Temp\ccLPYcmd.s:29508  .debug_str:00000000000258cf .LASF5647
C:\Users\CYMR90~1\AppData\Local\Temp\ccLPYcmd.s:22045  .debug_str:0000000000007ed4 .LASF5648
C:\Users\CYMR90~1\AppData\Local\Temp\ccLPYcmd.s:23401  .debug_str:000000000000d766 .LASF5649
C:\Users\CYMR90~1\AppData\Local\Temp\ccLPYcmd.s:23987  .debug_str:000000000000fad5 .LASF5650
C:\Users\CYMR90~1\AppData\Local\Temp\ccLPYcmd.s:23061  .debug_str:000000000000c149 .LASF5651
C:\Users\CYMR90~1\AppData\Local\Temp\ccLPYcmd.s:27114  .debug_str:000000000001c2a8 .LASF5652
C:\Users\CYMR90~1\AppData\Local\Temp\ccLPYcmd.s:30514  .debug_str:0000000000029a81 .LASF5653
C:\Users\CYMR90~1\AppData\Local\Temp\ccLPYcmd.s:25371  .debug_str:00000000000151b9 .LASF5654
C:\Users\CYMR90~1\AppData\Local\Temp\ccLPYcmd.s:27410  .debug_str:000000000001d62a .LASF5655
C:\Users\CYMR90~1\AppData\Local\Temp\ccLPYcmd.s:30192  .debug_str:00000000000285c1 .LASF5656
C:\Users\CYMR90~1\AppData\Local\Temp\ccLPYcmd.s:29388  .debug_str:0000000000024fd0 .LASF5657
C:\Users\CYMR90~1\AppData\Local\Temp\ccLPYcmd.s:31120  .debug_str:000000000002bf1b .LASF5658
C:\Users\CYMR90~1\AppData\Local\Temp\ccLPYcmd.s:22845  .debug_str:000000000000b2cc .LASF5659
C:\Users\CYMR90~1\AppData\Local\Temp\ccLPYcmd.s:28252  .debug_str:00000000000209f6 .LASF5660
C:\Users\CYMR90~1\AppData\Local\Temp\ccLPYcmd.s:22849  .debug_str:000000000000b2ed .LASF5661
C:\Users\CYMR90~1\AppData\Local\Temp\ccLPYcmd.s:25207  .debug_str:0000000000014822 .LASF5662
C:\Users\CYMR90~1\AppData\Local\Temp\ccLPYcmd.s:29106  .debug_str:0000000000023d31 .LASF5663
C:\Users\CYMR90~1\AppData\Local\Temp\ccLPYcmd.s:30598  .debug_str:0000000000029f41 .LASF5664
C:\Users\CYMR90~1\AppData\Local\Temp\ccLPYcmd.s:25273  .debug_str:0000000000014bc4 .LASF5665
C:\Users\CYMR90~1\AppData\Local\Temp\ccLPYcmd.s:27778  .debug_str:000000000001ecf0 .LASF5666
C:\Users\CYMR90~1\AppData\Local\Temp\ccLPYcmd.s:20179  .debug_str:00000000000008bf .LASF5667
C:\Users\CYMR90~1\AppData\Local\Temp\ccLPYcmd.s:25547  .debug_str:0000000000015beb .LASF5668
C:\Users\CYMR90~1\AppData\Local\Temp\ccLPYcmd.s:24155  .debug_str:0000000000010522 .LASF5669
C:\Users\CYMR90~1\AppData\Local\Temp\ccLPYcmd.s:29580  .debug_str:0000000000025e01 .LASF5670
C:\Users\CYMR90~1\AppData\Local\Temp\ccLPYcmd.s:28782  .debug_str:0000000000022a10 .LASF5671
C:\Users\CYMR90~1\AppData\Local\Temp\ccLPYcmd.s:570    .text.eclic_system_reset:0000000000000000 .LFB353
C:\Users\CYMR90~1\AppData\Local\Temp\ccLPYcmd.s:596    .text.eclic_system_reset:000000000000001c .LFE353
C:\Users\CYMR90~1\AppData\Local\Temp\ccLPYcmd.s:579    .text.eclic_system_reset:0000000000000006 .LBB79
C:\Users\CYMR90~1\AppData\Local\Temp\ccLPYcmd.s:594    .text.eclic_system_reset:000000000000001c .LBE79
C:\Users\CYMR90~1\AppData\Local\Temp\ccLPYcmd.s:27222  .debug_str:000000000001c977 .LASF5672
C:\Users\CYMR90~1\AppData\Local\Temp\ccLPYcmd.s:520    .text.eclic_irq_disable:0000000000000000 .LFB352
C:\Users\CYMR90~1\AppData\Local\Temp\ccLPYcmd.s:563    .text.eclic_irq_disable:000000000000004e .LFE352
C:\Users\CYMR90~1\AppData\Local\Temp\ccLPYcmd.s:27188  .debug_str:000000000001c68d .LASF5674
C:\Users\CYMR90~1\AppData\Local\Temp\ccLPYcmd.s:532    .text.eclic_irq_disable:0000000000000012 .LBB77
C:\Users\CYMR90~1\AppData\Local\Temp\ccLPYcmd.s:553    .text.eclic_irq_disable:0000000000000046 .LBE77
C:\Users\CYMR90~1\AppData\Local\Temp\ccLPYcmd.s:26144  .debug_str:00000000000182c3 .LASF5673
C:\Users\CYMR90~1\AppData\Local\Temp\ccLPYcmd.s:213    .text.eclic_irq_enable:0000000000000000 .LFB351
C:\Users\CYMR90~1\AppData\Local\Temp\ccLPYcmd.s:513    .text.eclic_irq_enable:000000000000027a .LFE351
C:\Users\CYMR90~1\AppData\Local\Temp\ccLPYcmd.s:25271  .debug_str:0000000000014bbe .LASF5675
C:\Users\CYMR90~1\AppData\Local\Temp\ccLPYcmd.s:22295  .debug_str:0000000000008f3b .LASF5676
C:\Users\CYMR90~1\AppData\Local\Temp\ccLPYcmd.s:232    .text.eclic_irq_enable:0000000000000028 .LBB58
C:\Users\CYMR90~1\AppData\Local\Temp\ccLPYcmd.s:349    .text.eclic_irq_enable:0000000000000124 .LBE58
C:\Users\CYMR90~1\AppData\Local\Temp\ccLPYcmd.s:234    .text.eclic_irq_enable:0000000000000028 .LBB60
C:\Users\CYMR90~1\AppData\Local\Temp\ccLPYcmd.s:244    .text.eclic_irq_enable:0000000000000038 .LBE60
C:\Users\CYMR90~1\AppData\Local\Temp\ccLPYcmd.s:290    .text.eclic_irq_enable:00000000000000a2 .LBB62
C:\Users\CYMR90~1\AppData\Local\Temp\ccLPYcmd.s:302    .text.eclic_irq_enable:00000000000000ba .LBE62
C:\Users\CYMR90~1\AppData\Local\Temp\ccLPYcmd.s:325    .text.eclic_irq_enable:00000000000000f8 .LBB64
C:\Users\CYMR90~1\AppData\Local\Temp\ccLPYcmd.s:340    .text.eclic_irq_enable:0000000000000112 .LBE64
C:\Users\CYMR90~1\AppData\Local\Temp\ccLPYcmd.s:350    .text.eclic_irq_enable:0000000000000124 .LBB66
C:\Users\CYMR90~1\AppData\Local\Temp\ccLPYcmd.s:481    .text.eclic_irq_enable:000000000000023c .LBE66
C:\Users\CYMR90~1\AppData\Local\Temp\ccLPYcmd.s:352    .text.eclic_irq_enable:0000000000000124 .LBB68
C:\Users\CYMR90~1\AppData\Local\Temp\ccLPYcmd.s:362    .text.eclic_irq_enable:0000000000000134 .LBE68
C:\Users\CYMR90~1\AppData\Local\Temp\ccLPYcmd.s:372    .text.eclic_irq_enable:000000000000014a .LBB70
C:\Users\CYMR90~1\AppData\Local\Temp\ccLPYcmd.s:475    .text.eclic_irq_enable:0000000000000232 .LBE70
C:\Users\CYMR90~1\AppData\Local\Temp\ccLPYcmd.s:416    .text.eclic_irq_enable:00000000000001b6 .LBB71
C:\Users\CYMR90~1\AppData\Local\Temp\ccLPYcmd.s:428    .text.eclic_irq_enable:00000000000001ce .LBE71
C:\Users\CYMR90~1\AppData\Local\Temp\ccLPYcmd.s:459    .text.eclic_irq_enable:0000000000000218 .LBB73
C:\Users\CYMR90~1\AppData\Local\Temp\ccLPYcmd.s:474    .text.eclic_irq_enable:0000000000000232 .LBE73
C:\Users\CYMR90~1\AppData\Local\Temp\ccLPYcmd.s:482    .text.eclic_irq_enable:000000000000023c .LBB75
C:\Users\CYMR90~1\AppData\Local\Temp\ccLPYcmd.s:503    .text.eclic_irq_enable:0000000000000272 .LBE75
C:\Users\CYMR90~1\AppData\Local\Temp\ccLPYcmd.s:29586  .debug_str:0000000000025e3a .LASF5677
C:\Users\CYMR90~1\AppData\Local\Temp\ccLPYcmd.s:145    .text.eclic_priority_group_set:0000000000000000 .LFB350
C:\Users\CYMR90~1\AppData\Local\Temp\ccLPYcmd.s:206    .text.eclic_priority_group_set:0000000000000076 .LFE350
C:\Users\CYMR90~1\AppData\Local\Temp\ccLPYcmd.s:23023  .debug_str:000000000000be8d .LASF5678
C:\Users\CYMR90~1\AppData\Local\Temp\ccLPYcmd.s:159    .text.eclic_priority_group_set:0000000000000014 .LBB56
C:\Users\CYMR90~1\AppData\Local\Temp\ccLPYcmd.s:196    .text.eclic_priority_group_set:000000000000006e .LBE56
C:\Users\CYMR90~1\AppData\Local\Temp\ccLPYcmd.s:31410  .debug_str:000000000002d285 .LASF5679
C:\Users\CYMR90~1\AppData\Local\Temp\ccLPYcmd.s:104    .text.eclic_level_threshold_set:0000000000000000 .LFB349
C:\Users\CYMR90~1\AppData\Local\Temp\ccLPYcmd.s:138    .text.eclic_level_threshold_set:000000000000002a .LFE349
C:\Users\CYMR90~1\AppData\Local\Temp\ccLPYcmd.s:27092  .debug_str:000000000001c144 .LASF5680
C:\Users\CYMR90~1\AppData\Local\Temp\ccLPYcmd.s:117    .text.eclic_level_threshold_set:0000000000000014 .LBB54
C:\Users\CYMR90~1\AppData\Local\Temp\ccLPYcmd.s:128    .text.eclic_level_threshold_set:0000000000000022 .LBE54
C:\Users\CYMR90~1\AppData\Local\Temp\ccLPYcmd.s:30086  .debug_str:0000000000027de1 .LASF5681
C:\Users\CYMR90~1\AppData\Local\Temp\ccLPYcmd.s:60     .text.eclic_global_interrupt_disable:0000000000000000 .LFB348
C:\Users\CYMR90~1\AppData\Local\Temp\ccLPYcmd.s:97     .text.eclic_global_interrupt_disable:000000000000001a .LFE348
C:\Users\CYMR90~1\AppData\Local\Temp\ccLPYcmd.s:71     .text.eclic_global_interrupt_disable:0000000000000008 .LBB51
C:\Users\CYMR90~1\AppData\Local\Temp\ccLPYcmd.s:85     .text.eclic_global_interrupt_disable:0000000000000010 .LBE51
C:\Users\CYMR90~1\AppData\Local\Temp\ccLPYcmd.s:73     .text.eclic_global_interrupt_disable:0000000000000008 .LBB53
C:\Users\CYMR90~1\AppData\Local\Temp\ccLPYcmd.s:81     .text.eclic_global_interrupt_disable:000000000000000e .LBE53
C:\Users\CYMR90~1\AppData\Local\Temp\ccLPYcmd.s:25477  .debug_str:000000000001579d .LASF5682
C:\Users\CYMR90~1\AppData\Local\Temp\ccLPYcmd.s:14     .text.eclic_global_interrupt_enable:0000000000000000 .LFB347
C:\Users\CYMR90~1\AppData\Local\Temp\ccLPYcmd.s:53     .text.eclic_global_interrupt_enable:000000000000001a .LFE347
C:\Users\CYMR90~1\AppData\Local\Temp\ccLPYcmd.s:26     .text.eclic_global_interrupt_enable:0000000000000008 .LBB48
C:\Users\CYMR90~1\AppData\Local\Temp\ccLPYcmd.s:41     .text.eclic_global_interrupt_enable:0000000000000010 .LBE48
C:\Users\CYMR90~1\AppData\Local\Temp\ccLPYcmd.s:28     .text.eclic_global_interrupt_enable:0000000000000008 .LBB50
C:\Users\CYMR90~1\AppData\Local\Temp\ccLPYcmd.s:37     .text.eclic_global_interrupt_enable:000000000000000e .LBE50
C:\Users\CYMR90~1\AppData\Local\Temp\ccLPYcmd.s:23329  .debug_str:000000000000d212 .LASF5703
C:\Users\CYMR90~1\AppData\Local\Temp\ccLPYcmd.s:21147  .debug_str:0000000000004604 .LASF5689
C:\Users\CYMR90~1\AppData\Local\Temp\ccLPYcmd.s:21761  .debug_str:0000000000006be0 .LASF5684
C:\Users\CYMR90~1\AppData\Local\Temp\ccLPYcmd.s:25948  .debug_str:00000000000176fe .LASF5685
C:\Users\CYMR90~1\AppData\Local\Temp\ccLPYcmd.s:28976  .debug_str:0000000000023568 .LASF5686
C:\Users\CYMR90~1\AppData\Local\Temp\ccLPYcmd.s:24365  .debug_str:0000000000011223 .LASF5687
C:\Users\CYMR90~1\AppData\Local\Temp\ccLPYcmd.s:30892  .debug_str:000000000002b0b1 .LASF5688
C:\Users\CYMR90~1\AppData\Local\Temp\ccLPYcmd.s:28240  .debug_str:000000000002095b .LASF5690
C:\Users\CYMR90~1\AppData\Local\Temp\ccLPYcmd.s:24497  .debug_str:0000000000011b28 .LASF5691
C:\Users\CYMR90~1\AppData\Local\Temp\ccLPYcmd.s:27148  .debug_str:000000000001c478 .LASF5692
C:\Users\CYMR90~1\AppData\Local\Temp\ccLPYcmd.s:20085  .debug_str:000000000000035d .LASF5704
C:\Users\CYMR90~1\AppData\Local\Temp\ccLPYcmd.s:25287  .debug_str:0000000000014c8d .LASF5693
C:\Users\CYMR90~1\AppData\Local\Temp\ccLPYcmd.s:29190  .debug_str:00000000000242a4 .LASF5694
C:\Users\CYMR90~1\AppData\Local\Temp\ccLPYcmd.s:24141  .debug_str:000000000001045c .LASF5695
C:\Users\CYMR90~1\AppData\Local\Temp\ccLPYcmd.s:21453  .debug_str:000000000000595e .LASF5696
C:\Users\CYMR90~1\AppData\Local\Temp\ccLPYcmd.s:22269  .debug_str:0000000000008d5f .LASF5697
C:\Users\CYMR90~1\AppData\Local\Temp\ccLPYcmd.s:24113  .debug_str:00000000000102da .LASF5705
C:\Users\CYMR90~1\AppData\Local\Temp\ccLPYcmd.s:20095  .debug_str:00000000000003ea .LASF5698
C:\Users\CYMR90~1\AppData\Local\Temp\ccLPYcmd.s:22047  .debug_str:0000000000007edf .LASF5699
C:\Users\CYMR90~1\AppData\Local\Temp\ccLPYcmd.s:30320  .debug_str:0000000000028e22 .LASF5706
C:\Users\CYMR90~1\AppData\Local\Temp\ccLPYcmd.s:604    .debug_info:0000000000000000 .Ldebug_info0
C:\Users\CYMR90~1\AppData\Local\Temp\ccLPYcmd.s:3016   .debug_macro:0000000000000000 .Ldebug_macro2
C:\Users\CYMR90~1\AppData\Local\Temp\ccLPYcmd.s:26812  .debug_str:000000000001afc9 .LASF314
C:\Users\CYMR90~1\AppData\Local\Temp\ccLPYcmd.s:25840  .debug_str:00000000000170e4 .LASF315
C:\Users\CYMR90~1\AppData\Local\Temp\ccLPYcmd.s:3963   .debug_macro:0000000000000000 .Ldebug_macro3
C:\Users\CYMR90~1\AppData\Local\Temp\ccLPYcmd.s:22245  .debug_str:0000000000008bf4 .LASF369
C:\Users\CYMR90~1\AppData\Local\Temp\ccLPYcmd.s:21801  .debug_str:0000000000006e4d .LASF370
C:\Users\CYMR90~1\AppData\Local\Temp\ccLPYcmd.s:26090  .debug_str:0000000000017fa1 .LASF371
C:\Users\CYMR90~1\AppData\Local\Temp\ccLPYcmd.s:4127   .debug_macro:0000000000000000 .Ldebug_macro4
C:\Users\CYMR90~1\AppData\Local\Temp\ccLPYcmd.s:4147   .debug_macro:0000000000000000 .Ldebug_macro5
C:\Users\CYMR90~1\AppData\Local\Temp\ccLPYcmd.s:24729  .debug_str:00000000000129fc .LASF390
C:\Users\CYMR90~1\AppData\Local\Temp\ccLPYcmd.s:4191   .debug_macro:0000000000000000 .Ldebug_macro6
C:\Users\CYMR90~1\AppData\Local\Temp\ccLPYcmd.s:4205   .debug_macro:0000000000000000 .Ldebug_macro7
C:\Users\CYMR90~1\AppData\Local\Temp\ccLPYcmd.s:4273   .debug_macro:0000000000000000 .Ldebug_macro8
C:\Users\CYMR90~1\AppData\Local\Temp\ccLPYcmd.s:4299   .debug_macro:0000000000000000 .Ldebug_macro9
C:\Users\CYMR90~1\AppData\Local\Temp\ccLPYcmd.s:4328   .debug_macro:0000000000000000 .Ldebug_macro10
C:\Users\CYMR90~1\AppData\Local\Temp\ccLPYcmd.s:26230  .debug_str:00000000000187e2 .LASF433
C:\Users\CYMR90~1\AppData\Local\Temp\ccLPYcmd.s:4342   .debug_macro:0000000000000000 .Ldebug_macro11
C:\Users\CYMR90~1\AppData\Local\Temp\ccLPYcmd.s:4386   .debug_macro:0000000000000000 .Ldebug_macro12
C:\Users\CYMR90~1\AppData\Local\Temp\ccLPYcmd.s:4412   .debug_macro:0000000000000000 .Ldebug_macro13
C:\Users\CYMR90~1\AppData\Local\Temp\ccLPYcmd.s:29836  .debug_str:0000000000026dc0 .LASF569
C:\Users\CYMR90~1\AppData\Local\Temp\ccLPYcmd.s:4783   .debug_macro:0000000000000000 .Ldebug_macro14
C:\Users\CYMR90~1\AppData\Local\Temp\ccLPYcmd.s:24241  .debug_str:0000000000010a30 .LASF572
C:\Users\CYMR90~1\AppData\Local\Temp\ccLPYcmd.s:29166  .debug_str:0000000000024098 .LASF573
C:\Users\CYMR90~1\AppData\Local\Temp\ccLPYcmd.s:4794   .debug_macro:0000000000000000 .Ldebug_macro15
C:\Users\CYMR90~1\AppData\Local\Temp\ccLPYcmd.s:4808   .debug_macro:0000000000000000 .Ldebug_macro16
C:\Users\CYMR90~1\AppData\Local\Temp\ccLPYcmd.s:21977  .debug_str:00000000000079c5 .LASF578
C:\Users\CYMR90~1\AppData\Local\Temp\ccLPYcmd.s:4840   .debug_macro:0000000000000000 .Ldebug_macro17
C:\Users\CYMR90~1\AppData\Local\Temp\ccLPYcmd.s:4866   .debug_macro:0000000000000000 .Ldebug_macro18
C:\Users\CYMR90~1\AppData\Local\Temp\ccLPYcmd.s:4877   .debug_macro:0000000000000000 .Ldebug_macro19
C:\Users\CYMR90~1\AppData\Local\Temp\ccLPYcmd.s:4921   .debug_macro:0000000000000000 .Ldebug_macro20
C:\Users\CYMR90~1\AppData\Local\Temp\ccLPYcmd.s:5091   .debug_macro:0000000000000000 .Ldebug_macro21
C:\Users\CYMR90~1\AppData\Local\Temp\ccLPYcmd.s:5102   .debug_macro:0000000000000000 .Ldebug_macro22
C:\Users\CYMR90~1\AppData\Local\Temp\ccLPYcmd.s:24469  .debug_str:000000000001191f .LASF675
C:\Users\CYMR90~1\AppData\Local\Temp\ccLPYcmd.s:5158   .debug_macro:0000000000000000 .Ldebug_macro23
C:\Users\CYMR90~1\AppData\Local\Temp\ccLPYcmd.s:5175   .debug_macro:0000000000000000 .Ldebug_macro24
C:\Users\CYMR90~1\AppData\Local\Temp\ccLPYcmd.s:27960  .debug_str:000000000001f814 .LASF693
C:\Users\CYMR90~1\AppData\Local\Temp\ccLPYcmd.s:26096  .debug_str:0000000000017fd2 .LASF694
C:\Users\CYMR90~1\AppData\Local\Temp\ccLPYcmd.s:5219   .debug_macro:0000000000000000 .Ldebug_macro25
C:\Users\CYMR90~1\AppData\Local\Temp\ccLPYcmd.s:21261  .debug_str:0000000000004dec .LASF700
C:\Users\CYMR90~1\AppData\Local\Temp\ccLPYcmd.s:22385  .debug_str:0000000000009438 .LASF701
C:\Users\CYMR90~1\AppData\Local\Temp\ccLPYcmd.s:5239   .debug_macro:0000000000000000 .Ldebug_macro26
C:\Users\CYMR90~1\AppData\Local\Temp\ccLPYcmd.s:5250   .debug_macro:0000000000000000 .Ldebug_macro27
C:\Users\CYMR90~1\AppData\Local\Temp\ccLPYcmd.s:5294   .debug_macro:0000000000000000 .Ldebug_macro28
C:\Users\CYMR90~1\AppData\Local\Temp\ccLPYcmd.s:21625  .debug_str:0000000000006381 .LASF749
C:\Users\CYMR90~1\AppData\Local\Temp\ccLPYcmd.s:5395   .debug_macro:0000000000000000 .Ldebug_macro29
C:\Users\CYMR90~1\AppData\Local\Temp\ccLPYcmd.s:5412   .debug_macro:0000000000000000 .Ldebug_macro30
C:\Users\CYMR90~1\AppData\Local\Temp\ccLPYcmd.s:20105  .debug_str:0000000000000470 .LASF763
C:\Users\CYMR90~1\AppData\Local\Temp\ccLPYcmd.s:21437  .debug_str:0000000000005886 .LASF764
C:\Users\CYMR90~1\AppData\Local\Temp\ccLPYcmd.s:5444   .debug_macro:0000000000000000 .Ldebug_macro31
C:\Users\CYMR90~1\AppData\Local\Temp\ccLPYcmd.s:5458   .debug_macro:0000000000000000 .Ldebug_macro32
C:\Users\CYMR90~1\AppData\Local\Temp\ccLPYcmd.s:5628   .debug_macro:0000000000000000 .Ldebug_macro33
C:\Users\CYMR90~1\AppData\Local\Temp\ccLPYcmd.s:23901  .debug_str:000000000000f52b .LASF850
C:\Users\CYMR90~1\AppData\Local\Temp\ccLPYcmd.s:26316  .debug_str:0000000000018e11 .LASF851
C:\Users\CYMR90~1\AppData\Local\Temp\ccLPYcmd.s:5714   .debug_macro:0000000000000000 .Ldebug_macro34
C:\Users\CYMR90~1\AppData\Local\Temp\ccLPYcmd.s:5839   .debug_macro:0000000000000000 .Ldebug_macro35
C:\Users\CYMR90~1\AppData\Local\Temp\ccLPYcmd.s:20397  .debug_str:0000000000001616 .LASF951
C:\Users\CYMR90~1\AppData\Local\Temp\ccLPYcmd.s:6051   .debug_macro:0000000000000000 .Ldebug_macro36
C:\Users\CYMR90~1\AppData\Local\Temp\ccLPYcmd.s:22131  .debug_str:0000000000008513 .LASF957
C:\Users\CYMR90~1\AppData\Local\Temp\ccLPYcmd.s:21677  .debug_str:000000000000668b .LASF958
C:\Users\CYMR90~1\AppData\Local\Temp\ccLPYcmd.s:24719  .debug_str:0000000000012946 .LASF959
C:\Users\CYMR90~1\AppData\Local\Temp\ccLPYcmd.s:6071   .debug_macro:0000000000000000 .Ldebug_macro37
C:\Users\CYMR90~1\AppData\Local\Temp\ccLPYcmd.s:6163   .debug_macro:0000000000000000 .Ldebug_macro38
C:\Users\CYMR90~1\AppData\Local\Temp\ccLPYcmd.s:7809   .debug_macro:0000000000000000 .Ldebug_macro39
C:\Users\CYMR90~1\AppData\Local\Temp\ccLPYcmd.s:7901   .debug_macro:0000000000000000 .Ldebug_macro40
C:\Users\CYMR90~1\AppData\Local\Temp\ccLPYcmd.s:7957   .debug_macro:0000000000000000 .Ldebug_macro41
C:\Users\CYMR90~1\AppData\Local\Temp\ccLPYcmd.s:7971   .debug_macro:0000000000000000 .Ldebug_macro42
C:\Users\CYMR90~1\AppData\Local\Temp\ccLPYcmd.s:25625  .debug_str:0000000000016120 .LASF1655
C:\Users\CYMR90~1\AppData\Local\Temp\ccLPYcmd.s:22507  .debug_str:0000000000009c2c .LASF1656
C:\Users\CYMR90~1\AppData\Local\Temp\ccLPYcmd.s:8195   .debug_macro:0000000000000000 .Ldebug_macro43
C:\Users\CYMR90~1\AppData\Local\Temp\ccLPYcmd.s:8242   .debug_macro:0000000000000000 .Ldebug_macro44
C:\Users\CYMR90~1\AppData\Local\Temp\ccLPYcmd.s:8397   .debug_macro:0000000000000000 .Ldebug_macro45
C:\Users\CYMR90~1\AppData\Local\Temp\ccLPYcmd.s:8453   .debug_macro:0000000000000000 .Ldebug_macro46
C:\Users\CYMR90~1\AppData\Local\Temp\ccLPYcmd.s:8464   .debug_macro:0000000000000000 .Ldebug_macro47
C:\Users\CYMR90~1\AppData\Local\Temp\ccLPYcmd.s:30626  .debug_str:000000000002a0f2 .LASF1782
C:\Users\CYMR90~1\AppData\Local\Temp\ccLPYcmd.s:25389  .debug_str:00000000000152e2 .LASF1783
C:\Users\CYMR90~1\AppData\Local\Temp\ccLPYcmd.s:8595   .debug_macro:0000000000000000 .Ldebug_macro48
C:\Users\CYMR90~1\AppData\Local\Temp\ccLPYcmd.s:9167   .debug_macro:0000000000000000 .Ldebug_macro49
C:\Users\CYMR90~1\AppData\Local\Temp\ccLPYcmd.s:9454   .debug_macro:0000000000000000 .Ldebug_macro50
C:\Users\CYMR90~1\AppData\Local\Temp\ccLPYcmd.s:9483   .debug_macro:0000000000000000 .Ldebug_macro51
C:\Users\CYMR90~1\AppData\Local\Temp\ccLPYcmd.s:9560   .debug_macro:0000000000000000 .Ldebug_macro52
C:\Users\CYMR90~1\AppData\Local\Temp\ccLPYcmd.s:10093  .debug_macro:0000000000000000 .Ldebug_macro53
C:\Users\CYMR90~1\AppData\Local\Temp\ccLPYcmd.s:10359  .debug_macro:0000000000000000 .Ldebug_macro54
C:\Users\CYMR90~1\AppData\Local\Temp\ccLPYcmd.s:10838  .debug_macro:0000000000000000 .Ldebug_macro55
C:\Users\CYMR90~1\AppData\Local\Temp\ccLPYcmd.s:11167  .debug_macro:0000000000000000 .Ldebug_macro56
C:\Users\CYMR90~1\AppData\Local\Temp\ccLPYcmd.s:11256  .debug_macro:0000000000000000 .Ldebug_macro57
C:\Users\CYMR90~1\AppData\Local\Temp\ccLPYcmd.s:12071  .debug_macro:0000000000000000 .Ldebug_macro58
C:\Users\CYMR90~1\AppData\Local\Temp\ccLPYcmd.s:12262  .debug_macro:0000000000000000 .Ldebug_macro59
C:\Users\CYMR90~1\AppData\Local\Temp\ccLPYcmd.s:12765  .debug_macro:0000000000000000 .Ldebug_macro60
C:\Users\CYMR90~1\AppData\Local\Temp\ccLPYcmd.s:12911  .debug_macro:0000000000000000 .Ldebug_macro61
C:\Users\CYMR90~1\AppData\Local\Temp\ccLPYcmd.s:13441  .debug_macro:0000000000000000 .Ldebug_macro62
C:\Users\CYMR90~1\AppData\Local\Temp\ccLPYcmd.s:13863  .debug_macro:0000000000000000 .Ldebug_macro63
C:\Users\CYMR90~1\AppData\Local\Temp\ccLPYcmd.s:16637  .debug_macro:0000000000000000 .Ldebug_macro64
C:\Users\CYMR90~1\AppData\Local\Temp\ccLPYcmd.s:17713  .debug_macro:0000000000000000 .Ldebug_macro65
C:\Users\CYMR90~1\AppData\Local\Temp\ccLPYcmd.s:17982  .debug_macro:0000000000000000 .Ldebug_macro66
C:\Users\CYMR90~1\AppData\Local\Temp\ccLPYcmd.s:18254  .debug_macro:0000000000000000 .Ldebug_macro67
C:\Users\CYMR90~1\AppData\Local\Temp\ccLPYcmd.s:19282  .debug_macro:0000000000000000 .Ldebug_macro68
C:\Users\CYMR90~1\AppData\Local\Temp\ccLPYcmd.s:19326  .debug_macro:0000000000000000 .Ldebug_macro69
C:\Users\CYMR90~1\AppData\Local\Temp\ccLPYcmd.s:19952  .debug_macro:0000000000000000 .Ldebug_macro70
C:\Users\CYMR90~1\AppData\Local\Temp\ccLPYcmd.s:20011  .debug_macro:0000000000000000 .Ldebug_macro71
C:\Users\CYMR90~1\AppData\Local\Temp\ccLPYcmd.s:21419  .debug_str:000000000000575e .LASF0
C:\Users\CYMR90~1\AppData\Local\Temp\ccLPYcmd.s:25822  .debug_str:0000000000016fe4 .LASF1
C:\Users\CYMR90~1\AppData\Local\Temp\ccLPYcmd.s:24067  .debug_str:000000000000fff1 .LASF2
C:\Users\CYMR90~1\AppData\Local\Temp\ccLPYcmd.s:24123  .debug_str:000000000001036d .LASF3
C:\Users\CYMR90~1\AppData\Local\Temp\ccLPYcmd.s:25433  .debug_str:000000000001551c .LASF4
C:\Users\CYMR90~1\AppData\Local\Temp\ccLPYcmd.s:31036  .debug_str:000000000002b9aa .LASF5
C:\Users\CYMR90~1\AppData\Local\Temp\ccLPYcmd.s:21651  .debug_str:0000000000006529 .LASF6
C:\Users\CYMR90~1\AppData\Local\Temp\ccLPYcmd.s:24911  .debug_str:0000000000013621 .LASF7
C:\Users\CYMR90~1\AppData\Local\Temp\ccLPYcmd.s:29284  .debug_str:00000000000248ef .LASF8
C:\Users\CYMR90~1\AppData\Local\Temp\ccLPYcmd.s:27178  .debug_str:000000000001c5fd .LASF9
C:\Users\CYMR90~1\AppData\Local\Temp\ccLPYcmd.s:26516  .debug_str:0000000000019bbc .LASF10
C:\Users\CYMR90~1\AppData\Local\Temp\ccLPYcmd.s:26372  .debug_str:000000000001922c .LASF11
C:\Users\CYMR90~1\AppData\Local\Temp\ccLPYcmd.s:30868  .debug_str:000000000002af57 .LASF12
C:\Users\CYMR90~1\AppData\Local\Temp\ccLPYcmd.s:26384  .debug_str:00000000000192e0 .LASF13
C:\Users\CYMR90~1\AppData\Local\Temp\ccLPYcmd.s:22665  .debug_str:000000000000a60e .LASF14
C:\Users\CYMR90~1\AppData\Local\Temp\ccLPYcmd.s:27758  .debug_str:000000000001ebf4 .LASF15
C:\Users\CYMR90~1\AppData\Local\Temp\ccLPYcmd.s:28524  .debug_str:0000000000021aad .LASF16
C:\Users\CYMR90~1\AppData\Local\Temp\ccLPYcmd.s:22713  .debug_str:000000000000a8ed .LASF17
C:\Users\CYMR90~1\AppData\Local\Temp\ccLPYcmd.s:29570  .debug_str:0000000000025d60 .LASF18
C:\Users\CYMR90~1\AppData\Local\Temp\ccLPYcmd.s:23683  .debug_str:000000000000e86d .LASF19
C:\Users\CYMR90~1\AppData\Local\Temp\ccLPYcmd.s:29378  .debug_str:0000000000024f68 .LASF20
C:\Users\CYMR90~1\AppData\Local\Temp\ccLPYcmd.s:26182  .debug_str:00000000000184ff .LASF21
C:\Users\CYMR90~1\AppData\Local\Temp\ccLPYcmd.s:26180  .debug_str:00000000000184e5 .LASF22
C:\Users\CYMR90~1\AppData\Local\Temp\ccLPYcmd.s:28836  .debug_str:0000000000022d9c .LASF23
C:\Users\CYMR90~1\AppData\Local\Temp\ccLPYcmd.s:27126  .debug_str:000000000001c33f .LASF24
C:\Users\CYMR90~1\AppData\Local\Temp\ccLPYcmd.s:20961  .debug_str:00000000000039d3 .LASF25
C:\Users\CYMR90~1\AppData\Local\Temp\ccLPYcmd.s:25557  .debug_str:0000000000015c9a .LASF26
C:\Users\CYMR90~1\AppData\Local\Temp\ccLPYcmd.s:28840  .debug_str:0000000000022dd2 .LASF27
C:\Users\CYMR90~1\AppData\Local\Temp\ccLPYcmd.s:28532  .debug_str:0000000000021b0a .LASF28
C:\Users\CYMR90~1\AppData\Local\Temp\ccLPYcmd.s:21371  .debug_str:000000000000548c .LASF29
C:\Users\CYMR90~1\AppData\Local\Temp\ccLPYcmd.s:27536  .debug_str:000000000001de5f .LASF30
C:\Users\CYMR90~1\AppData\Local\Temp\ccLPYcmd.s:20343  .debug_str:0000000000001308 .LASF31
C:\Users\CYMR90~1\AppData\Local\Temp\ccLPYcmd.s:27996  .debug_str:000000000001fa28 .LASF32
C:\Users\CYMR90~1\AppData\Local\Temp\ccLPYcmd.s:22547  .debug_str:0000000000009e79 .LASF33
C:\Users\CYMR90~1\AppData\Local\Temp\ccLPYcmd.s:22401  .debug_str:0000000000009523 .LASF34
C:\Users\CYMR90~1\AppData\Local\Temp\ccLPYcmd.s:23715  .debug_str:000000000000ea49 .LASF35
C:\Users\CYMR90~1\AppData\Local\Temp\ccLPYcmd.s:26626  .debug_str:000000000001a20f .LASF36
C:\Users\CYMR90~1\AppData\Local\Temp\ccLPYcmd.s:21895  .debug_str:0000000000007498 .LASF37
C:\Users\CYMR90~1\AppData\Local\Temp\ccLPYcmd.s:24065  .debug_str:000000000000ffce .LASF38
C:\Users\CYMR90~1\AppData\Local\Temp\ccLPYcmd.s:29790  .debug_str:0000000000026aee .LASF39
C:\Users\CYMR90~1\AppData\Local\Temp\ccLPYcmd.s:20721  .debug_str:0000000000002a58 .LASF40
C:\Users\CYMR90~1\AppData\Local\Temp\ccLPYcmd.s:24231  .debug_str:00000000000109a3 .LASF41
C:\Users\CYMR90~1\AppData\Local\Temp\ccLPYcmd.s:24663  .debug_str:000000000001257b .LASF42
C:\Users\CYMR90~1\AppData\Local\Temp\ccLPYcmd.s:24925  .debug_str:000000000001370a .LASF43
C:\Users\CYMR90~1\AppData\Local\Temp\ccLPYcmd.s:26616  .debug_str:000000000001a17d .LASF44
C:\Users\CYMR90~1\AppData\Local\Temp\ccLPYcmd.s:24523  .debug_str:0000000000011ca1 .LASF45
C:\Users\CYMR90~1\AppData\Local\Temp\ccLPYcmd.s:21197  .debug_str:000000000000497b .LASF46
C:\Users\CYMR90~1\AppData\Local\Temp\ccLPYcmd.s:27542  .debug_str:000000000001dec4 .LASF47
C:\Users\CYMR90~1\AppData\Local\Temp\ccLPYcmd.s:29286  .debug_str:0000000000024904 .LASF48
C:\Users\CYMR90~1\AppData\Local\Temp\ccLPYcmd.s:23463  .debug_str:000000000000dae5 .LASF49
C:\Users\CYMR90~1\AppData\Local\Temp\ccLPYcmd.s:20557  .debug_str:0000000000002059 .LASF50
C:\Users\CYMR90~1\AppData\Local\Temp\ccLPYcmd.s:20053  .debug_str:000000000000013f .LASF51
C:\Users\CYMR90~1\AppData\Local\Temp\ccLPYcmd.s:30638  .debug_str:000000000002a187 .LASF52
C:\Users\CYMR90~1\AppData\Local\Temp\ccLPYcmd.s:28912  .debug_str:00000000000231d6 .LASF53
C:\Users\CYMR90~1\AppData\Local\Temp\ccLPYcmd.s:25009  .debug_str:0000000000013be5 .LASF54
C:\Users\CYMR90~1\AppData\Local\Temp\ccLPYcmd.s:24027  .debug_str:000000000000fd4d .LASF55
C:\Users\CYMR90~1\AppData\Local\Temp\ccLPYcmd.s:21989  .debug_str:0000000000007a83 .LASF56
C:\Users\CYMR90~1\AppData\Local\Temp\ccLPYcmd.s:25411  .debug_str:00000000000153f1 .LASF57
C:\Users\CYMR90~1\AppData\Local\Temp\ccLPYcmd.s:20297  .debug_str:0000000000001061 .LASF58
C:\Users\CYMR90~1\AppData\Local\Temp\ccLPYcmd.s:29574  .debug_str:0000000000025da0 .LASF59
C:\Users\CYMR90~1\AppData\Local\Temp\ccLPYcmd.s:24933  .debug_str:0000000000013756 .LASF60
C:\Users\CYMR90~1\AppData\Local\Temp\ccLPYcmd.s:26904  .debug_str:000000000001b58c .LASF61
C:\Users\CYMR90~1\AppData\Local\Temp\ccLPYcmd.s:20787  .debug_str:0000000000002eaa .LASF62
C:\Users\CYMR90~1\AppData\Local\Temp\ccLPYcmd.s:23455  .debug_str:000000000000da7b .LASF63
C:\Users\CYMR90~1\AppData\Local\Temp\ccLPYcmd.s:23185  .debug_str:000000000000c895 .LASF64
C:\Users\CYMR90~1\AppData\Local\Temp\ccLPYcmd.s:26602  .debug_str:000000000001a0b4 .LASF65
C:\Users\CYMR90~1\AppData\Local\Temp\ccLPYcmd.s:25243  .debug_str:0000000000014a03 .LASF66
C:\Users\CYMR90~1\AppData\Local\Temp\ccLPYcmd.s:30412  .debug_str:000000000002936b .LASF67
C:\Users\CYMR90~1\AppData\Local\Temp\ccLPYcmd.s:30870  .debug_str:000000000002af6a .LASF68
C:\Users\CYMR90~1\AppData\Local\Temp\ccLPYcmd.s:24477  .debug_str:0000000000011983 .LASF69
C:\Users\CYMR90~1\AppData\Local\Temp\ccLPYcmd.s:23611  .debug_str:000000000000e3e5 .LASF70
C:\Users\CYMR90~1\AppData\Local\Temp\ccLPYcmd.s:21209  .debug_str:0000000000004ace .LASF71
C:\Users\CYMR90~1\AppData\Local\Temp\ccLPYcmd.s:24511  .debug_str:0000000000011bde .LASF72
C:\Users\CYMR90~1\AppData\Local\Temp\ccLPYcmd.s:24131  .debug_str:00000000000103de .LASF73
C:\Users\CYMR90~1\AppData\Local\Temp\ccLPYcmd.s:24747  .debug_str:0000000000012b38 .LASF74
C:\Users\CYMR90~1\AppData\Local\Temp\ccLPYcmd.s:24583  .debug_str:0000000000012068 .LASF75
C:\Users\CYMR90~1\AppData\Local\Temp\ccLPYcmd.s:24683  .debug_str:00000000000126e6 .LASF76
C:\Users\CYMR90~1\AppData\Local\Temp\ccLPYcmd.s:29202  .debug_str:0000000000024370 .LASF77
C:\Users\CYMR90~1\AppData\Local\Temp\ccLPYcmd.s:27102  .debug_str:000000000001c1df .LASF78
C:\Users\CYMR90~1\AppData\Local\Temp\ccLPYcmd.s:27504  .debug_str:000000000001dc02 .LASF79
C:\Users\CYMR90~1\AppData\Local\Temp\ccLPYcmd.s:30392  .debug_str:0000000000029256 .LASF80
C:\Users\CYMR90~1\AppData\Local\Temp\ccLPYcmd.s:22501  .debug_str:0000000000009bb8 .LASF81
C:\Users\CYMR90~1\AppData\Local\Temp\ccLPYcmd.s:22699  .debug_str:000000000000a7b9 .LASF82
C:\Users\CYMR90~1\AppData\Local\Temp\ccLPYcmd.s:30524  .debug_str:0000000000029b14 .LASF83
C:\Users\CYMR90~1\AppData\Local\Temp\ccLPYcmd.s:22441  .debug_str:00000000000097bc .LASF84
C:\Users\CYMR90~1\AppData\Local\Temp\ccLPYcmd.s:21715  .debug_str:00000000000068ff .LASF85
C:\Users\CYMR90~1\AppData\Local\Temp\ccLPYcmd.s:26796  .debug_str:000000000001ae93 .LASF86
C:\Users\CYMR90~1\AppData\Local\Temp\ccLPYcmd.s:30554  .debug_str:0000000000029cab .LASF87
C:\Users\CYMR90~1\AppData\Local\Temp\ccLPYcmd.s:27936  .debug_str:000000000001f69f .LASF88
C:\Users\CYMR90~1\AppData\Local\Temp\ccLPYcmd.s:26718  .debug_str:000000000001a98e .LASF89
C:\Users\CYMR90~1\AppData\Local\Temp\ccLPYcmd.s:27964  .debug_str:000000000001f847 .LASF90
C:\Users\CYMR90~1\AppData\Local\Temp\ccLPYcmd.s:30774  .debug_str:000000000002a9c2 .LASF91
C:\Users\CYMR90~1\AppData\Local\Temp\ccLPYcmd.s:29584  .debug_str:0000000000025e26 .LASF92
C:\Users\CYMR90~1\AppData\Local\Temp\ccLPYcmd.s:22579  .debug_str:000000000000a078 .LASF93
C:\Users\CYMR90~1\AppData\Local\Temp\ccLPYcmd.s:27382  .debug_str:000000000001d46e .LASF94
C:\Users\CYMR90~1\AppData\Local\Temp\ccLPYcmd.s:24965  .debug_str:000000000001395a .LASF95
C:\Users\CYMR90~1\AppData\Local\Temp\ccLPYcmd.s:24947  .debug_str:0000000000013841 .LASF96
C:\Users\CYMR90~1\AppData\Local\Temp\ccLPYcmd.s:31086  .debug_str:000000000002bcf0 .LASF97
C:\Users\CYMR90~1\AppData\Local\Temp\ccLPYcmd.s:24597  .debug_str:0000000000012160 .LASF98
C:\Users\CYMR90~1\AppData\Local\Temp\ccLPYcmd.s:28550  .debug_str:0000000000021c2e .LASF99
C:\Users\CYMR90~1\AppData\Local\Temp\ccLPYcmd.s:21933  .debug_str:00000000000076dd .LASF100
C:\Users\CYMR90~1\AppData\Local\Temp\ccLPYcmd.s:24077  .debug_str:000000000001005f .LASF101
C:\Users\CYMR90~1\AppData\Local\Temp\ccLPYcmd.s:25475  .debug_str:0000000000015781 .LASF102
C:\Users\CYMR90~1\AppData\Local\Temp\ccLPYcmd.s:24359  .debug_str:00000000000111ce .LASF103
C:\Users\CYMR90~1\AppData\Local\Temp\ccLPYcmd.s:23371  .debug_str:000000000000d4e2 .LASF104
C:\Users\CYMR90~1\AppData\Local\Temp\ccLPYcmd.s:24533  .debug_str:0000000000011d38 .LASF105
C:\Users\CYMR90~1\AppData\Local\Temp\ccLPYcmd.s:21253  .debug_str:0000000000004d77 .LASF106
C:\Users\CYMR90~1\AppData\Local\Temp\ccLPYcmd.s:24353  .debug_str:0000000000011169 .LASF107
C:\Users\CYMR90~1\AppData\Local\Temp\ccLPYcmd.s:23367  .debug_str:000000000000d4be .LASF108
C:\Users\CYMR90~1\AppData\Local\Temp\ccLPYcmd.s:24801  .debug_str:0000000000012e9f .LASF109
C:\Users\CYMR90~1\AppData\Local\Temp\ccLPYcmd.s:23739  .debug_str:000000000000ebe3 .LASF110
C:\Users\CYMR90~1\AppData\Local\Temp\ccLPYcmd.s:26236  .debug_str:000000000001883e .LASF111
C:\Users\CYMR90~1\AppData\Local\Temp\ccLPYcmd.s:22839  .debug_str:000000000000b25a .LASF112
C:\Users\CYMR90~1\AppData\Local\Temp\ccLPYcmd.s:22577  .debug_str:000000000000a04f .LASF113
C:\Users\CYMR90~1\AppData\Local\Temp\ccLPYcmd.s:25507  .debug_str:0000000000015976 .LASF114
C:\Users\CYMR90~1\AppData\Local\Temp\ccLPYcmd.s:28034  .debug_str:000000000001fc99 .LASF115
C:\Users\CYMR90~1\AppData\Local\Temp\ccLPYcmd.s:29084  .debug_str:0000000000023c04 .LASF116
C:\Users\CYMR90~1\AppData\Local\Temp\ccLPYcmd.s:22333  .debug_str:0000000000009139 .LASF117
C:\Users\CYMR90~1\AppData\Local\Temp\ccLPYcmd.s:26966  .debug_str:000000000001b986 .LASF118
C:\Users\CYMR90~1\AppData\Local\Temp\ccLPYcmd.s:31192  .debug_str:000000000002c423 .LASF119
C:\Users\CYMR90~1\AppData\Local\Temp\ccLPYcmd.s:23657  .debug_str:000000000000e68c .LASF120
C:\Users\CYMR90~1\AppData\Local\Temp\ccLPYcmd.s:29182  .debug_str:0000000000024167 .LASF121
C:\Users\CYMR90~1\AppData\Local\Temp\ccLPYcmd.s:23147  .debug_str:000000000000c633 .LASF122
C:\Users\CYMR90~1\AppData\Local\Temp\ccLPYcmd.s:23257  .debug_str:000000000000cdca .LASF123
C:\Users\CYMR90~1\AppData\Local\Temp\ccLPYcmd.s:20899  .debug_str:00000000000035ce .LASF124
C:\Users\CYMR90~1\AppData\Local\Temp\ccLPYcmd.s:21173  .debug_str:00000000000047bf .LASF125
C:\Users\CYMR90~1\AppData\Local\Temp\ccLPYcmd.s:30130  .debug_str:00000000000280e0 .LASF126
C:\Users\CYMR90~1\AppData\Local\Temp\ccLPYcmd.s:24539  .debug_str:0000000000011d76 .LASF127
C:\Users\CYMR90~1\AppData\Local\Temp\ccLPYcmd.s:27358  .debug_str:000000000001d310 .LASF128
C:\Users\CYMR90~1\AppData\Local\Temp\ccLPYcmd.s:22409  .debug_str:000000000000959b .LASF129
C:\Users\CYMR90~1\AppData\Local\Temp\ccLPYcmd.s:29696  .debug_str:00000000000264e9 .LASF130
C:\Users\CYMR90~1\AppData\Local\Temp\ccLPYcmd.s:30004  .debug_str:00000000000278b0 .LASF131
C:\Users\CYMR90~1\AppData\Local\Temp\ccLPYcmd.s:29816  .debug_str:0000000000026c65 .LASF132
C:\Users\CYMR90~1\AppData\Local\Temp\ccLPYcmd.s:23633  .debug_str:000000000000e51b .LASF133
C:\Users\CYMR90~1\AppData\Local\Temp\ccLPYcmd.s:29100  .debug_str:0000000000023ce8 .LASF134
C:\Users\CYMR90~1\AppData\Local\Temp\ccLPYcmd.s:21165  .debug_str:000000000000472d .LASF135
C:\Users\CYMR90~1\AppData\Local\Temp\ccLPYcmd.s:22033  .debug_str:0000000000007d7a .LASF136
C:\Users\CYMR90~1\AppData\Local\Temp\ccLPYcmd.s:30862  .debug_str:000000000002af00 .LASF137
C:\Users\CYMR90~1\AppData\Local\Temp\ccLPYcmd.s:24797  .debug_str:0000000000012e6f .LASF138
C:\Users\CYMR90~1\AppData\Local\Temp\ccLPYcmd.s:30340  .debug_str:0000000000028f39 .LASF139
C:\Users\CYMR90~1\AppData\Local\Temp\ccLPYcmd.s:29464  .debug_str:0000000000025599 .LASF140
C:\Users\CYMR90~1\AppData\Local\Temp\ccLPYcmd.s:27056  .debug_str:000000000001befd .LASF141
C:\Users\CYMR90~1\AppData\Local\Temp\ccLPYcmd.s:22537  .debug_str:0000000000009dd8 .LASF142
C:\Users\CYMR90~1\AppData\Local\Temp\ccLPYcmd.s:30942  .debug_str:000000000002b385 .LASF143
C:\Users\CYMR90~1\AppData\Local\Temp\ccLPYcmd.s:26206  .debug_str:000000000001866d .LASF144
C:\Users\CYMR90~1\AppData\Local\Temp\ccLPYcmd.s:25257  .debug_str:0000000000014aff .LASF145
C:\Users\CYMR90~1\AppData\Local\Temp\ccLPYcmd.s:23219  .debug_str:000000000000cb71 .LASF146
C:\Users\CYMR90~1\AppData\Local\Temp\ccLPYcmd.s:21207  .debug_str:0000000000004ab7 .LASF147
C:\Users\CYMR90~1\AppData\Local\Temp\ccLPYcmd.s:23781  .debug_str:000000000000ee1e .LASF148
C:\Users\CYMR90~1\AppData\Local\Temp\ccLPYcmd.s:26184  .debug_str:0000000000018513 .LASF149
C:\Users\CYMR90~1\AppData\Local\Temp\ccLPYcmd.s:20135  .debug_str:0000000000000626 .LASF150
C:\Users\CYMR90~1\AppData\Local\Temp\ccLPYcmd.s:31412  .debug_str:000000000002d29f .LASF151
C:\Users\CYMR90~1\AppData\Local\Temp\ccLPYcmd.s:24791  .debug_str:0000000000012ded .LASF152
C:\Users\CYMR90~1\AppData\Local\Temp\ccLPYcmd.s:29470  .debug_str:00000000000255ec .LASF153
C:\Users\CYMR90~1\AppData\Local\Temp\ccLPYcmd.s:27264  .debug_str:000000000001cbda .LASF154
C:\Users\CYMR90~1\AppData\Local\Temp\ccLPYcmd.s:24191  .debug_str:000000000001074a .LASF155
C:\Users\CYMR90~1\AppData\Local\Temp\ccLPYcmd.s:27276  .debug_str:000000000001ccb3 .LASF156
C:\Users\CYMR90~1\AppData\Local\Temp\ccLPYcmd.s:27388  .debug_str:000000000001d4d6 .LASF157
C:\Users\CYMR90~1\AppData\Local\Temp\ccLPYcmd.s:23071  .debug_str:000000000000c1b9 .LASF158
C:\Users\CYMR90~1\AppData\Local\Temp\ccLPYcmd.s:22135  .debug_str:0000000000008535 .LASF159
C:\Users\CYMR90~1\AppData\Local\Temp\ccLPYcmd.s:26910  .debug_str:000000000001b5e0 .LASF160
C:\Users\CYMR90~1\AppData\Local\Temp\ccLPYcmd.s:28350  .debug_str:0000000000020fae .LASF161
C:\Users\CYMR90~1\AppData\Local\Temp\ccLPYcmd.s:26508  .debug_str:0000000000019b2a .LASF162
C:\Users\CYMR90~1\AppData\Local\Temp\ccLPYcmd.s:29092  .debug_str:0000000000023c76 .LASF163
C:\Users\CYMR90~1\AppData\Local\Temp\ccLPYcmd.s:30760  .debug_str:000000000002a90a .LASF164
C:\Users\CYMR90~1\AppData\Local\Temp\ccLPYcmd.s:21885  .debug_str:00000000000073ff .LASF165
C:\Users\CYMR90~1\AppData\Local\Temp\ccLPYcmd.s:30442  .debug_str:000000000002955e .LASF166
C:\Users\CYMR90~1\AppData\Local\Temp\ccLPYcmd.s:30264  .debug_str:0000000000028a8f .LASF167
C:\Users\CYMR90~1\AppData\Local\Temp\ccLPYcmd.s:27824  .debug_str:000000000001efb3 .LASF168
C:\Users\CYMR90~1\AppData\Local\Temp\ccLPYcmd.s:25966  .debug_str:0000000000017807 .LASF169
C:\Users\CYMR90~1\AppData\Local\Temp\ccLPYcmd.s:29876  .debug_str:0000000000027006 .LASF170
C:\Users\CYMR90~1\AppData\Local\Temp\ccLPYcmd.s:25585  .debug_str:0000000000015e59 .LASF171
C:\Users\CYMR90~1\AppData\Local\Temp\ccLPYcmd.s:27184  .debug_str:000000000001c65c .LASF172
C:\Users\CYMR90~1\AppData\Local\Temp\ccLPYcmd.s:22529  .debug_str:0000000000009d64 .LASF173
C:\Users\CYMR90~1\AppData\Local\Temp\ccLPYcmd.s:28904  .debug_str:0000000000023169 .LASF174
C:\Users\CYMR90~1\AppData\Local\Temp\ccLPYcmd.s:21547  .debug_str:0000000000005ed9 .LASF175
C:\Users\CYMR90~1\AppData\Local\Temp\ccLPYcmd.s:22377  .debug_str:00000000000093cf .LASF176
C:\Users\CYMR90~1\AppData\Local\Temp\ccLPYcmd.s:21037  .debug_str:0000000000003ea2 .LASF177
C:\Users\CYMR90~1\AppData\Local\Temp\ccLPYcmd.s:26380  .debug_str:000000000001929e .LASF178
C:\Users\CYMR90~1\AppData\Local\Temp\ccLPYcmd.s:23313  .debug_str:000000000000d134 .LASF179
C:\Users\CYMR90~1\AppData\Local\Temp\ccLPYcmd.s:21711  .debug_str:00000000000068cb .LASF180
C:\Users\CYMR90~1\AppData\Local\Temp\ccLPYcmd.s:31082  .debug_str:000000000002bcc5 .LASF181
C:\Users\CYMR90~1\AppData\Local\Temp\ccLPYcmd.s:20329  .debug_str:0000000000001241 .LASF182
C:\Users\CYMR90~1\AppData\Local\Temp\ccLPYcmd.s:24903  .debug_str:0000000000013591 .LASF183
C:\Users\CYMR90~1\AppData\Local\Temp\ccLPYcmd.s:25325  .debug_str:0000000000014f2e .LASF184
C:\Users\CYMR90~1\AppData\Local\Temp\ccLPYcmd.s:30274  .debug_str:0000000000028b3e .LASF185
C:\Users\CYMR90~1\AppData\Local\Temp\ccLPYcmd.s:23411  .debug_str:000000000000d80c .LASF186
C:\Users\CYMR90~1\AppData\Local\Temp\ccLPYcmd.s:21869  .debug_str:000000000000729e .LASF187
C:\Users\CYMR90~1\AppData\Local\Temp\ccLPYcmd.s:27912  .debug_str:000000000001f573 .LASF188
C:\Users\CYMR90~1\AppData\Local\Temp\ccLPYcmd.s:23677  .debug_str:000000000000e81d .LASF189
C:\Users\CYMR90~1\AppData\Local\Temp\ccLPYcmd.s:25015  .debug_str:0000000000013c44 .LASF190
C:\Users\CYMR90~1\AppData\Local\Temp\ccLPYcmd.s:28412  .debug_str:0000000000021329 .LASF191
C:\Users\CYMR90~1\AppData\Local\Temp\ccLPYcmd.s:25747  .debug_str:0000000000016919 .LASF192
C:\Users\CYMR90~1\AppData\Local\Temp\ccLPYcmd.s:28650  .debug_str:0000000000022250 .LASF193
C:\Users\CYMR90~1\AppData\Local\Temp\ccLPYcmd.s:21501  .debug_str:0000000000005c6c .LASF194
C:\Users\CYMR90~1\AppData\Local\Temp\ccLPYcmd.s:20867  .debug_str:00000000000033af .LASF195
C:\Users\CYMR90~1\AppData\Local\Temp\ccLPYcmd.s:23507  .debug_str:000000000000dd49 .LASF196
C:\Users\CYMR90~1\AppData\Local\Temp\ccLPYcmd.s:24421  .debug_str:000000000001157b .LASF197
C:\Users\CYMR90~1\AppData\Local\Temp\ccLPYcmd.s:21357  .debug_str:00000000000053ac .LASF198
C:\Users\CYMR90~1\AppData\Local\Temp\ccLPYcmd.s:30162  .debug_str:0000000000028327 .LASF199
C:\Users\CYMR90~1\AppData\Local\Temp\ccLPYcmd.s:28292  .debug_str:0000000000020c39 .LASF200
C:\Users\CYMR90~1\AppData\Local\Temp\ccLPYcmd.s:27396  .debug_str:000000000001d534 .LASF201
C:\Users\CYMR90~1\AppData\Local\Temp\ccLPYcmd.s:22505  .debug_str:0000000000009beb .LASF202
C:\Users\CYMR90~1\AppData\Local\Temp\ccLPYcmd.s:30618  .debug_str:000000000002a061 .LASF203
C:\Users\CYMR90~1\AppData\Local\Temp\ccLPYcmd.s:20881  .debug_str:0000000000003491 .LASF204
C:\Users\CYMR90~1\AppData\Local\Temp\ccLPYcmd.s:23907  .debug_str:000000000000f585 .LASF205
C:\Users\CYMR90~1\AppData\Local\Temp\ccLPYcmd.s:30348  .debug_str:0000000000028f94 .LASF206
C:\Users\CYMR90~1\AppData\Local\Temp\ccLPYcmd.s:25135  .debug_str:00000000000143b1 .LASF207
C:\Users\CYMR90~1\AppData\Local\Temp\ccLPYcmd.s:27952  .debug_str:000000000001f7a5 .LASF208
C:\Users\CYMR90~1\AppData\Local\Temp\ccLPYcmd.s:23141  .debug_str:000000000000c5e2 .LASF209
C:\Users\CYMR90~1\AppData\Local\Temp\ccLPYcmd.s:31288  .debug_str:000000000002ca4c .LASF210
C:\Users\CYMR90~1\AppData\Local\Temp\ccLPYcmd.s:25105  .debug_str:00000000000141e6 .LASF211
C:\Users\CYMR90~1\AppData\Local\Temp\ccLPYcmd.s:27796  .debug_str:000000000001edf3 .LASF212
C:\Users\CYMR90~1\AppData\Local\Temp\ccLPYcmd.s:26400  .debug_str:00000000000193c2 .LASF213
C:\Users\CYMR90~1\AppData\Local\Temp\ccLPYcmd.s:21587  .debug_str:0000000000006115 .LASF214
C:\Users\CYMR90~1\AppData\Local\Temp\ccLPYcmd.s:25113  .debug_str:0000000000014256 .LASF215
C:\Users\CYMR90~1\AppData\Local\Temp\ccLPYcmd.s:27098  .debug_str:000000000001c18f .LASF216
C:\Users\CYMR90~1\AppData\Local\Temp\ccLPYcmd.s:28064  .debug_str:000000000001fe44 .LASF217
C:\Users\CYMR90~1\AppData\Local\Temp\ccLPYcmd.s:23983  .debug_str:000000000000fa98 .LASF218
C:\Users\CYMR90~1\AppData\Local\Temp\ccLPYcmd.s:29472  .debug_str:0000000000025628 .LASF219
C:\Users\CYMR90~1\AppData\Local\Temp\ccLPYcmd.s:29278  .debug_str:000000000002488b .LASF220
C:\Users\CYMR90~1\AppData\Local\Temp\ccLPYcmd.s:28800  .debug_str:0000000000022b00 .LASF221
C:\Users\CYMR90~1\AppData\Local\Temp\ccLPYcmd.s:25397  .debug_str:0000000000015340 .LASF222
C:\Users\CYMR90~1\AppData\Local\Temp\ccLPYcmd.s:21557  .debug_str:0000000000005f5b .LASF223
C:\Users\CYMR90~1\AppData\Local\Temp\ccLPYcmd.s:22237  .debug_str:0000000000008b6b .LASF224
C:\Users\CYMR90~1\AppData\Local\Temp\ccLPYcmd.s:30952  .debug_str:000000000002b409 .LASF225
C:\Users\CYMR90~1\AppData\Local\Temp\ccLPYcmd.s:23575  .debug_str:000000000000e1bb .LASF226
C:\Users\CYMR90~1\AppData\Local\Temp\ccLPYcmd.s:27260  .debug_str:000000000001cbac .LASF227
C:\Users\CYMR90~1\AppData\Local\Temp\ccLPYcmd.s:27108  .debug_str:000000000001c235 .LASF228
C:\Users\CYMR90~1\AppData\Local\Temp\ccLPYcmd.s:23521  .debug_str:000000000000de26 .LASF229
C:\Users\CYMR90~1\AppData\Local\Temp\ccLPYcmd.s:27834  .debug_str:000000000001f06c .LASF230
C:\Users\CYMR90~1\AppData\Local\Temp\ccLPYcmd.s:23009  .debug_str:000000000000bd37 .LASF231
C:\Users\CYMR90~1\AppData\Local\Temp\ccLPYcmd.s:21599  .debug_str:00000000000061ea .LASF232
C:\Users\CYMR90~1\AppData\Local\Temp\ccLPYcmd.s:22185  .debug_str:0000000000008802 .LASF233
C:\Users\CYMR90~1\AppData\Local\Temp\ccLPYcmd.s:24183  .debug_str:00000000000106c7 .LASF234
C:\Users\CYMR90~1\AppData\Local\Temp\ccLPYcmd.s:23903  .debug_str:000000000000f53d .LASF235
C:\Users\CYMR90~1\AppData\Local\Temp\ccLPYcmd.s:29020  .debug_str:0000000000023816 .LASF236
C:\Users\CYMR90~1\AppData\Local\Temp\ccLPYcmd.s:23925  .debug_str:000000000000f68e .LASF237
C:\Users\CYMR90~1\AppData\Local\Temp\ccLPYcmd.s:29692  .debug_str:00000000000264ad .LASF238
C:\Users\CYMR90~1\AppData\Local\Temp\ccLPYcmd.s:29004  .debug_str:0000000000023715 .LASF239
C:\Users\CYMR90~1\AppData\Local\Temp\ccLPYcmd.s:29242  .debug_str:000000000002465d .LASF240
C:\Users\CYMR90~1\AppData\Local\Temp\ccLPYcmd.s:22001  .debug_str:0000000000007b8e .LASF241
C:\Users\CYMR90~1\AppData\Local\Temp\ccLPYcmd.s:23597  .debug_str:000000000000e304 .LASF242
C:\Users\CYMR90~1\AppData\Local\Temp\ccLPYcmd.s:24579  .debug_str:0000000000012000 .LASF243
C:\Users\CYMR90~1\AppData\Local\Temp\ccLPYcmd.s:29030  .debug_str:000000000002388e .LASF244
C:\Users\CYMR90~1\AppData\Local\Temp\ccLPYcmd.s:24775  .debug_str:0000000000012ccd .LASF245
C:\Users\CYMR90~1\AppData\Local\Temp\ccLPYcmd.s:27846  .debug_str:000000000001f151 .LASF246
C:\Users\CYMR90~1\AppData\Local\Temp\ccLPYcmd.s:26166  .debug_str:00000000000183ec .LASF247
C:\Users\CYMR90~1\AppData\Local\Temp\ccLPYcmd.s:25677  .debug_str:0000000000016409 .LASF248
C:\Users\CYMR90~1\AppData\Local\Temp\ccLPYcmd.s:27200  .debug_str:000000000001c776 .LASF249
C:\Users\CYMR90~1\AppData\Local\Temp\ccLPYcmd.s:26564  .debug_str:0000000000019e74 .LASF250
C:\Users\CYMR90~1\AppData\Local\Temp\ccLPYcmd.s:27128  .debug_str:000000000001c34e .LASF251
C:\Users\CYMR90~1\AppData\Local\Temp\ccLPYcmd.s:28848  .debug_str:0000000000022e57 .LASF252
C:\Users\CYMR90~1\AppData\Local\Temp\ccLPYcmd.s:23491  .debug_str:000000000000dc87 .LASF253
C:\Users\CYMR90~1\AppData\Local\Temp\ccLPYcmd.s:29546  .debug_str:0000000000025bf0 .LASF254
C:\Users\CYMR90~1\AppData\Local\Temp\ccLPYcmd.s:23353  .debug_str:000000000000d3b4 .LASF255
C:\Users\CYMR90~1\AppData\Local\Temp\ccLPYcmd.s:26472  .debug_str:00000000000198d9 .LASF256
C:\Users\CYMR90~1\AppData\Local\Temp\ccLPYcmd.s:23593  .debug_str:000000000000e2bd .LASF257
C:\Users\CYMR90~1\AppData\Local\Temp\ccLPYcmd.s:27782  .debug_str:000000000001ed0e .LASF258
C:\Users\CYMR90~1\AppData\Local\Temp\ccLPYcmd.s:22799  .debug_str:000000000000aeff .LASF259
C:\Users\CYMR90~1\AppData\Local\Temp\ccLPYcmd.s:20213  .debug_str:0000000000000ab8 .LASF260
C:\Users\CYMR90~1\AppData\Local\Temp\ccLPYcmd.s:30678  .debug_str:000000000002a3d9 .LASF261
C:\Users\CYMR90~1\AppData\Local\Temp\ccLPYcmd.s:30142  .debug_str:0000000000028186 .LASF262
C:\Users\CYMR90~1\AppData\Local\Temp\ccLPYcmd.s:25083  .debug_str:000000000001404a .LASF263
C:\Users\CYMR90~1\AppData\Local\Temp\ccLPYcmd.s:27080  .debug_str:000000000001c08e .LASF264
C:\Users\CYMR90~1\AppData\Local\Temp\ccLPYcmd.s:24031  .debug_str:000000000000fd94 .LASF265
C:\Users\CYMR90~1\AppData\Local\Temp\ccLPYcmd.s:23523  .debug_str:000000000000de67 .LASF266
C:\Users\CYMR90~1\AppData\Local\Temp\ccLPYcmd.s:22851  .debug_str:000000000000b2f7 .LASF267
C:\Users\CYMR90~1\AppData\Local\Temp\ccLPYcmd.s:27186  .debug_str:000000000001c671 .LASF268
C:\Users\CYMR90~1\AppData\Local\Temp\ccLPYcmd.s:23165  .debug_str:000000000000c771 .LASF269
C:\Users\CYMR90~1\AppData\Local\Temp\ccLPYcmd.s:24097  .debug_str:00000000000101ca .LASF270
C:\Users\CYMR90~1\AppData\Local\Temp\ccLPYcmd.s:25369  .debug_str:000000000001519e .LASF271
C:\Users\CYMR90~1\AppData\Local\Temp\ccLPYcmd.s:29796  .debug_str:0000000000026b40 .LASF272
C:\Users\CYMR90~1\AppData\Local\Temp\ccLPYcmd.s:21759  .debug_str:0000000000006ba1 .LASF273
C:\Users\CYMR90~1\AppData\Local\Temp\ccLPYcmd.s:20671  .debug_str:00000000000026cf .LASF274
C:\Users\CYMR90~1\AppData\Local\Temp\ccLPYcmd.s:21853  .debug_str:0000000000007187 .LASF275
C:\Users\CYMR90~1\AppData\Local\Temp\ccLPYcmd.s:23227  .debug_str:000000000000cbd4 .LASF276
C:\Users\CYMR90~1\AppData\Local\Temp\ccLPYcmd.s:23055  .debug_str:000000000000c0ce .LASF277
C:\Users\CYMR90~1\AppData\Local\Temp\ccLPYcmd.s:20355  .debug_str:00000000000013a9 .LASF278
C:\Users\CYMR90~1\AppData\Local\Temp\ccLPYcmd.s:21681  .debug_str:00000000000066b5 .LASF279
C:\Users\CYMR90~1\AppData\Local\Temp\ccLPYcmd.s:30464  .debug_str:000000000002971e .LASF280
C:\Users\CYMR90~1\AppData\Local\Temp\ccLPYcmd.s:22553  .debug_str:0000000000009ec3 .LASF281
C:\Users\CYMR90~1\AppData\Local\Temp\ccLPYcmd.s:21647  .debug_str:00000000000064ec .LASF282
C:\Users\CYMR90~1\AppData\Local\Temp\ccLPYcmd.s:21551  .debug_str:0000000000005f09 .LASF283
C:\Users\CYMR90~1\AppData\Local\Temp\ccLPYcmd.s:21313  .debug_str:0000000000005128 .LASF284
C:\Users\CYMR90~1\AppData\Local\Temp\ccLPYcmd.s:29348  .debug_str:0000000000024d3a .LASF285
C:\Users\CYMR90~1\AppData\Local\Temp\ccLPYcmd.s:30174  .debug_str:000000000002841e .LASF286
C:\Users\CYMR90~1\AppData\Local\Temp\ccLPYcmd.s:30450  .debug_str:00000000000295bb .LASF287
C:\Users\CYMR90~1\AppData\Local\Temp\ccLPYcmd.s:30362  .debug_str:0000000000029065 .LASF288
C:\Users\CYMR90~1\AppData\Local\Temp\ccLPYcmd.s:31220  .debug_str:000000000002c5e0 .LASF289
C:\Users\CYMR90~1\AppData\Local\Temp\ccLPYcmd.s:26110  .debug_str:00000000000180cb .LASF290
C:\Users\CYMR90~1\AppData\Local\Temp\ccLPYcmd.s:25139  .debug_str:00000000000143d7 .LASF291
C:\Users\CYMR90~1\AppData\Local\Temp\ccLPYcmd.s:29384  .debug_str:0000000000024f97 .LASF292
C:\Users\CYMR90~1\AppData\Local\Temp\ccLPYcmd.s:20955  .debug_str:000000000000396b .LASF293
C:\Users\CYMR90~1\AppData\Local\Temp\ccLPYcmd.s:28304  .debug_str:0000000000020cfe .LASF294
C:\Users\CYMR90~1\AppData\Local\Temp\ccLPYcmd.s:21233  .debug_str:0000000000004c41 .LASF295
C:\Users\CYMR90~1\AppData\Local\Temp\ccLPYcmd.s:30804  .debug_str:000000000002aba5 .LASF296
C:\Users\CYMR90~1\AppData\Local\Temp\ccLPYcmd.s:31002  .debug_str:000000000002b74d .LASF297
C:\Users\CYMR90~1\AppData\Local\Temp\ccLPYcmd.s:25986  .debug_str:0000000000017980 .LASF298
C:\Users\CYMR90~1\AppData\Local\Temp\ccLPYcmd.s:20197  .debug_str:00000000000009c5 .LASF299
C:\Users\CYMR90~1\AppData\Local\Temp\ccLPYcmd.s:24003  .debug_str:000000000000fbc2 .LASF300
C:\Users\CYMR90~1\AppData\Local\Temp\ccLPYcmd.s:26742  .debug_str:000000000001ab06 .LASF301
C:\Users\CYMR90~1\AppData\Local\Temp\ccLPYcmd.s:25251  .debug_str:0000000000014a71 .LASF302
C:\Users\CYMR90~1\AppData\Local\Temp\ccLPYcmd.s:24723  .debug_str:0000000000012998 .LASF303
C:\Users\CYMR90~1\AppData\Local\Temp\ccLPYcmd.s:20591  .debug_str:00000000000021fd .LASF304
C:\Users\CYMR90~1\AppData\Local\Temp\ccLPYcmd.s:23173  .debug_str:000000000000c7f5 .LASF305
C:\Users\CYMR90~1\AppData\Local\Temp\ccLPYcmd.s:28516  .debug_str:0000000000021a47 .LASF306
C:\Users\CYMR90~1\AppData\Local\Temp\ccLPYcmd.s:24019  .debug_str:000000000000fccb .LASF307
C:\Users\CYMR90~1\AppData\Local\Temp\ccLPYcmd.s:29368  .debug_str:0000000000024e90 .LASF308
C:\Users\CYMR90~1\AppData\Local\Temp\ccLPYcmd.s:28970  .debug_str:0000000000023517 .LASF309
C:\Users\CYMR90~1\AppData\Local\Temp\ccLPYcmd.s:23577  .debug_str:000000000000e1d4 .LASF310
C:\Users\CYMR90~1\AppData\Local\Temp\ccLPYcmd.s:29688  .debug_str:0000000000026482 .LASF311
C:\Users\CYMR90~1\AppData\Local\Temp\ccLPYcmd.s:29194  .debug_str:00000000000242e3 .LASF312
C:\Users\CYMR90~1\AppData\Local\Temp\ccLPYcmd.s:23293  .debug_str:000000000000cfbe .LASF313
C:\Users\CYMR90~1\AppData\Local\Temp\ccLPYcmd.s:26256  .debug_str:0000000000018998 .LASF316
C:\Users\CYMR90~1\AppData\Local\Temp\ccLPYcmd.s:26618  .debug_str:000000000001a19a .LASF317
C:\Users\CYMR90~1\AppData\Local\Temp\ccLPYcmd.s:26972  .debug_str:000000000001b9c4 .LASF318
C:\Users\CYMR90~1\AppData\Local\Temp\ccLPYcmd.s:24011  .debug_str:000000000000fc5f .LASF319
C:\Users\CYMR90~1\AppData\Local\Temp\ccLPYcmd.s:22921  .debug_str:000000000000b7a5 .LASF320
C:\Users\CYMR90~1\AppData\Local\Temp\ccLPYcmd.s:30410  .debug_str:000000000002935f .LASF321
C:\Users\CYMR90~1\AppData\Local\Temp\ccLPYcmd.s:23489  .debug_str:000000000000dc7a .LASF322
C:\Users\CYMR90~1\AppData\Local\Temp\ccLPYcmd.s:29638  .debug_str:0000000000026165 .LASF323
C:\Users\CYMR90~1\AppData\Local\Temp\ccLPYcmd.s:20071  .debug_str:000000000000026c .LASF324
C:\Users\CYMR90~1\AppData\Local\Temp\ccLPYcmd.s:30826  .debug_str:000000000002ace9 .LASF325
C:\Users\CYMR90~1\AppData\Local\Temp\ccLPYcmd.s:21009  .debug_str:0000000000003cc7 .LASF326
C:\Users\CYMR90~1\AppData\Local\Temp\ccLPYcmd.s:25071  .debug_str:0000000000013f8d .LASF327
C:\Users\CYMR90~1\AppData\Local\Temp\ccLPYcmd.s:24725  .debug_str:00000000000129ad .LASF328
C:\Users\CYMR90~1\AppData\Local\Temp\ccLPYcmd.s:27636  .debug_str:000000000001e45b .LASF329
C:\Users\CYMR90~1\AppData\Local\Temp\ccLPYcmd.s:27628  .debug_str:000000000001e40a .LASF330
C:\Users\CYMR90~1\AppData\Local\Temp\ccLPYcmd.s:29838  .debug_str:0000000000026dd2 .LASF331
C:\Users\CYMR90~1\AppData\Local\Temp\ccLPYcmd.s:28556  .debug_str:0000000000021ca4 .LASF332
C:\Users\CYMR90~1\AppData\Local\Temp\ccLPYcmd.s:30578  .debug_str:0000000000029e0a .LASF333
C:\Users\CYMR90~1\AppData\Local\Temp\ccLPYcmd.s:26592  .debug_str:000000000001a01f .LASF334
C:\Users\CYMR90~1\AppData\Local\Temp\ccLPYcmd.s:26032  .debug_str:0000000000017c3d .LASF335
C:\Users\CYMR90~1\AppData\Local\Temp\ccLPYcmd.s:30432  .debug_str:00000000000294cf .LASF336
C:\Users\CYMR90~1\AppData\Local\Temp\ccLPYcmd.s:24645  .debug_str:000000000001245d .LASF337
C:\Users\CYMR90~1\AppData\Local\Temp\ccLPYcmd.s:28358  .debug_str:000000000002101a .LASF338
C:\Users\CYMR90~1\AppData\Local\Temp\ccLPYcmd.s:22669  .debug_str:000000000000a637 .LASF339
C:\Users\CYMR90~1\AppData\Local\Temp\ccLPYcmd.s:24857  .debug_str:000000000001325f .LASF340
C:\Users\CYMR90~1\AppData\Local\Temp\ccLPYcmd.s:26788  .debug_str:000000000001ade1 .LASF341
C:\Users\CYMR90~1\AppData\Local\Temp\ccLPYcmd.s:22987  .debug_str:000000000000bbf2 .LASF342
C:\Users\CYMR90~1\AppData\Local\Temp\ccLPYcmd.s:20335  .debug_str:000000000000128c .LASF343
C:\Users\CYMR90~1\AppData\Local\Temp\ccLPYcmd.s:30544  .debug_str:0000000000029c1a .LASF344
C:\Users\CYMR90~1\AppData\Local\Temp\ccLPYcmd.s:31162  .debug_str:000000000002c1dd .LASF345
C:\Users\CYMR90~1\AppData\Local\Temp\ccLPYcmd.s:23893  .debug_str:000000000000f4b5 .LASF346
C:\Users\CYMR90~1\AppData\Local\Temp\ccLPYcmd.s:20185  .debug_str:000000000000090e .LASF347
C:\Users\CYMR90~1\AppData\Local\Temp\ccLPYcmd.s:28150  .debug_str:000000000002036e .LASF348
C:\Users\CYMR90~1\AppData\Local\Temp\ccLPYcmd.s:30152  .debug_str:0000000000028255 .LASF349
C:\Users\CYMR90~1\AppData\Local\Temp\ccLPYcmd.s:27630  .debug_str:000000000001e416 .LASF350
C:\Users\CYMR90~1\AppData\Local\Temp\ccLPYcmd.s:20113  .debug_str:0000000000000504 .LASF351
C:\Users\CYMR90~1\AppData\Local\Temp\ccLPYcmd.s:27916  .debug_str:000000000001f5a3 .LASF352
C:\Users\CYMR90~1\AppData\Local\Temp\ccLPYcmd.s:29630  .debug_str:00000000000260fb .LASF353
C:\Users\CYMR90~1\AppData\Local\Temp\ccLPYcmd.s:27246  .debug_str:000000000001cafa .LASF354
C:\Users\CYMR90~1\AppData\Local\Temp\ccLPYcmd.s:27412  .debug_str:000000000001d630 .LASF355
C:\Users\CYMR90~1\AppData\Local\Temp\ccLPYcmd.s:23377  .debug_str:000000000000d5d8 .LASF356
C:\Users\CYMR90~1\AppData\Local\Temp\ccLPYcmd.s:26548  .debug_str:0000000000019da2 .LASF357
C:\Users\CYMR90~1\AppData\Local\Temp\ccLPYcmd.s:30060  .debug_str:0000000000027c07 .LASF358
C:\Users\CYMR90~1\AppData\Local\Temp\ccLPYcmd.s:24715  .debug_str:00000000000128f0 .LASF359
C:\Users\CYMR90~1\AppData\Local\Temp\ccLPYcmd.s:22769  .debug_str:000000000000ad37 .LASF360
C:\Users\CYMR90~1\AppData\Local\Temp\ccLPYcmd.s:25906  .debug_str:0000000000017487 .LASF361
C:\Users\CYMR90~1\AppData\Local\Temp\ccLPYcmd.s:24445  .debug_str:000000000001170c .LASF362
C:\Users\CYMR90~1\AppData\Local\Temp\ccLPYcmd.s:30330  .debug_str:0000000000028e97 .LASF363
C:\Users\CYMR90~1\AppData\Local\Temp\ccLPYcmd.s:22317  .debug_str:0000000000009065 .LASF364
C:\Users\CYMR90~1\AppData\Local\Temp\ccLPYcmd.s:30226  .debug_str:00000000000287ce .LASF365
C:\Users\CYMR90~1\AppData\Local\Temp\ccLPYcmd.s:21719  .debug_str:0000000000006964 .LASF366
C:\Users\CYMR90~1\AppData\Local\Temp\ccLPYcmd.s:24849  .debug_str:00000000000131c1 .LASF367
C:\Users\CYMR90~1\AppData\Local\Temp\ccLPYcmd.s:22009  .debug_str:0000000000007c0c .LASF368
C:\Users\CYMR90~1\AppData\Local\Temp\ccLPYcmd.s:26078  .debug_str:0000000000017eee .LASF372
C:\Users\CYMR90~1\AppData\Local\Temp\ccLPYcmd.s:29878  .debug_str:000000000002704b .LASF373
C:\Users\CYMR90~1\AppData\Local\Temp\ccLPYcmd.s:22751  .debug_str:000000000000ac05 .LASF374
C:\Users\CYMR90~1\AppData\Local\Temp\ccLPYcmd.s:25862  .debug_str:000000000001722b .LASF375
C:\Users\CYMR90~1\AppData\Local\Temp\ccLPYcmd.s:26064  .debug_str:0000000000017e26 .LASF376
C:\Users\CYMR90~1\AppData\Local\Temp\ccLPYcmd.s:28614  .debug_str:0000000000022035 .LASF377
C:\Users\CYMR90~1\AppData\Local\Temp\ccLPYcmd.s:27262  .debug_str:000000000001cbc5 .LASF378
C:\Users\CYMR90~1\AppData\Local\Temp\ccLPYcmd.s:30994  .debug_str:000000000002b6f5 .LASF379
C:\Users\CYMR90~1\AppData\Local\Temp\ccLPYcmd.s:20687  .debug_str:0000000000002806 .LASF380
C:\Users\CYMR90~1\AppData\Local\Temp\ccLPYcmd.s:30932  .debug_str:000000000002b305 .LASF381
C:\Users\CYMR90~1\AppData\Local\Temp\ccLPYcmd.s:26980  .debug_str:000000000001ba15 .LASF382
C:\Users\CYMR90~1\AppData\Local\Temp\ccLPYcmd.s:21777  .debug_str:0000000000006caf .LASF383
C:\Users\CYMR90~1\AppData\Local\Temp\ccLPYcmd.s:23143  .debug_str:000000000000c5fd .LASF384
C:\Users\CYMR90~1\AppData\Local\Temp\ccLPYcmd.s:26490  .debug_str:0000000000019a0d .LASF385
C:\Users\CYMR90~1\AppData\Local\Temp\ccLPYcmd.s:24127  .debug_str:00000000000103af .LASF386
C:\Users\CYMR90~1\AppData\Local\Temp\ccLPYcmd.s:20619  .debug_str:00000000000023c9 .LASF387
C:\Users\CYMR90~1\AppData\Local\Temp\ccLPYcmd.s:23741  .debug_str:000000000000ec03 .LASF388
C:\Users\CYMR90~1\AppData\Local\Temp\ccLPYcmd.s:22287  .debug_str:0000000000008eb4 .LASF389
C:\Users\CYMR90~1\AppData\Local\Temp\ccLPYcmd.s:21095  .debug_str:00000000000042dd .LASF391
C:\Users\CYMR90~1\AppData\Local\Temp\ccLPYcmd.s:24135  .debug_str:000000000001041b .LASF392
C:\Users\CYMR90~1\AppData\Local\Temp\ccLPYcmd.s:21281  .debug_str:0000000000004f35 .LASF393
C:\Users\CYMR90~1\AppData\Local\Temp\ccLPYcmd.s:30018  .debug_str:000000000002797c .LASF394
C:\Users\CYMR90~1\AppData\Local\Temp\ccLPYcmd.s:20645  .debug_str:0000000000002527 .LASF395
C:\Users\CYMR90~1\AppData\Local\Temp\ccLPYcmd.s:22793  .debug_str:000000000000ae9b .LASF396
C:\Users\CYMR90~1\AppData\Local\Temp\ccLPYcmd.s:26598  .debug_str:000000000001a07f .LASF397
C:\Users\CYMR90~1\AppData\Local\Temp\ccLPYcmd.s:30802  .debug_str:000000000002ab93 .LASF398
C:\Users\CYMR90~1\AppData\Local\Temp\ccLPYcmd.s:25423  .debug_str:00000000000154ba .LASF399
C:\Users\CYMR90~1\AppData\Local\Temp\ccLPYcmd.s:27876  .debug_str:000000000001f31c .LASF400
C:\Users\CYMR90~1\AppData\Local\Temp\ccLPYcmd.s:22279  .debug_str:0000000000008dcc .LASF401
C:\Users\CYMR90~1\AppData\Local\Temp\ccLPYcmd.s:25914  .debug_str:0000000000017501 .LASF402
C:\Users\CYMR90~1\AppData\Local\Temp\ccLPYcmd.s:21615  .debug_str:00000000000062eb .LASF403
C:\Users\CYMR90~1\AppData\Local\Temp\ccLPYcmd.s:22725  .debug_str:000000000000aa59 .LASF404
C:\Users\CYMR90~1\AppData\Local\Temp\ccLPYcmd.s:23797  .debug_str:000000000000eeed .LASF405
C:\Users\CYMR90~1\AppData\Local\Temp\ccLPYcmd.s:27170  .debug_str:000000000001c591 .LASF406
C:\Users\CYMR90~1\AppData\Local\Temp\ccLPYcmd.s:25349  .debug_str:000000000001508b .LASF407
C:\Users\CYMR90~1\AppData\Local\Temp\ccLPYcmd.s:26332  .debug_str:0000000000018ed0 .LASF408
C:\Users\CYMR90~1\AppData\Local\Temp\ccLPYcmd.s:28562  .debug_str:0000000000021cfb .LASF409
C:\Users\CYMR90~1\AppData\Local\Temp\ccLPYcmd.s:21569  .debug_str:0000000000006006 .LASF410
C:\Users\CYMR90~1\AppData\Local\Temp\ccLPYcmd.s:25531  .debug_str:0000000000015ad7 .LASF411
C:\Users\CYMR90~1\AppData\Local\Temp\ccLPYcmd.s:29102  .debug_str:0000000000023d08 .LASF412
C:\Users\CYMR90~1\AppData\Local\Temp\ccLPYcmd.s:21751  .debug_str:0000000000006b41 .LASF413
C:\Users\CYMR90~1\AppData\Local\Temp\ccLPYcmd.s:30424  .debug_str:0000000000029441 .LASF414
C:\Users\CYMR90~1\AppData\Local\Temp\ccLPYcmd.s:23895  .debug_str:000000000000f4c3 .LASF415
C:\Users\CYMR90~1\AppData\Local\Temp\ccLPYcmd.s:29748  .debug_str:0000000000026826 .LASF416
C:\Users\CYMR90~1\AppData\Local\Temp\ccLPYcmd.s:29252  .debug_str:0000000000024716 .LASF417
C:\Users\CYMR90~1\AppData\Local\Temp\ccLPYcmd.s:22203  .debug_str:000000000000892b .LASF418
C:\Users\CYMR90~1\AppData\Local\Temp\ccLPYcmd.s:30644  .debug_str:000000000002a1de .LASF419
C:\Users\CYMR90~1\AppData\Local\Temp\ccLPYcmd.s:21823  .debug_str:0000000000006fc9 .LASF420
C:\Users\CYMR90~1\AppData\Local\Temp\ccLPYcmd.s:30846  .debug_str:000000000002adeb .LASF421
C:\Users\CYMR90~1\AppData\Local\Temp\ccLPYcmd.s:23065  .debug_str:000000000000c169 .LASF422
C:\Users\CYMR90~1\AppData\Local\Temp\ccLPYcmd.s:23269  .debug_str:000000000000ce6b .LASF423
C:\Users\CYMR90~1\AppData\Local\Temp\ccLPYcmd.s:27776  .debug_str:000000000001ece6 .LASF424
C:\Users\CYMR90~1\AppData\Local\Temp\ccLPYcmd.s:26370  .debug_str:0000000000019213 .LASF425
C:\Users\CYMR90~1\AppData\Local\Temp\ccLPYcmd.s:20083  .debug_str:0000000000000335 .LASF426
C:\Users\CYMR90~1\AppData\Local\Temp\ccLPYcmd.s:30338  .debug_str:0000000000028f16 .LASF427
C:\Users\CYMR90~1\AppData\Local\Temp\ccLPYcmd.s:25617  .debug_str:000000000001609c .LASF428
C:\Users\CYMR90~1\AppData\Local\Temp\ccLPYcmd.s:27554  .debug_str:000000000001dfb1 .LASF429
C:\Users\CYMR90~1\AppData\Local\Temp\ccLPYcmd.s:24075  .debug_str:0000000000010056 .LASF430
C:\Users\CYMR90~1\AppData\Local\Temp\ccLPYcmd.s:25816  .debug_str:0000000000016f81 .LASF431
C:\Users\CYMR90~1\AppData\Local\Temp\ccLPYcmd.s:30730  .debug_str:000000000002a6ca .LASF432
C:\Users\CYMR90~1\AppData\Local\Temp\ccLPYcmd.s:23253  .debug_str:000000000000cd8b .LASF434
C:\Users\CYMR90~1\AppData\Local\Temp\ccLPYcmd.s:21287  .debug_str:0000000000004f8b .LASF435
C:\Users\CYMR90~1\AppData\Local\Temp\ccLPYcmd.s:26006  .debug_str:0000000000017aaf .LASF436
C:\Users\CYMR90~1\AppData\Local\Temp\ccLPYcmd.s:21841  .debug_str:00000000000070ac .LASF437
C:\Users\CYMR90~1\AppData\Local\Temp\ccLPYcmd.s:30352  .debug_str:0000000000028fd0 .LASF438
C:\Users\CYMR90~1\AppData\Local\Temp\ccLPYcmd.s:20043  .debug_str:00000000000000c7 .LASF439
C:\Users\CYMR90~1\AppData\Local\Temp\ccLPYcmd.s:27812  .debug_str:000000000001eef9 .LASF440
C:\Users\CYMR90~1\AppData\Local\Temp\ccLPYcmd.s:23497  .debug_str:000000000000dcdf .LASF441
C:\Users\CYMR90~1\AppData\Local\Temp\ccLPYcmd.s:28876  .debug_str:0000000000022fe5 .LASF442
C:\Users\CYMR90~1\AppData\Local\Temp\ccLPYcmd.s:24375  .debug_str:000000000001129c .LASF443
C:\Users\CYMR90~1\AppData\Local\Temp\ccLPYcmd.s:24213  .debug_str:000000000001088e .LASF444
C:\Users\CYMR90~1\AppData\Local\Temp\ccLPYcmd.s:31280  .debug_str:000000000002c9f1 .LASF445
C:\Users\CYMR90~1\AppData\Local\Temp\ccLPYcmd.s:31218  .debug_str:000000000002c5da .LASF446
C:\Users\CYMR90~1\AppData\Local\Temp\ccLPYcmd.s:30830  .debug_str:000000000002ad13 .LASF447
C:\Users\CYMR90~1\AppData\Local\Temp\ccLPYcmd.s:28850  .debug_str:0000000000022e69 .LASF448
C:\Users\CYMR90~1\AppData\Local\Temp\ccLPYcmd.s:21107  .debug_str:0000000000004395 .LASF449
C:\Users\CYMR90~1\AppData\Local\Temp\ccLPYcmd.s:21861  .debug_str:0000000000007215 .LASF450
C:\Users\CYMR90~1\AppData\Local\Temp\ccLPYcmd.s:22475  .debug_str:0000000000009a0e .LASF451
C:\Users\CYMR90~1\AppData\Local\Temp\ccLPYcmd.s:25259  .debug_str:0000000000014b13 .LASF452
C:\Users\CYMR90~1\AppData\Local\Temp\ccLPYcmd.s:20563  .debug_str:00000000000020a8 .LASF453
C:\Users\CYMR90~1\AppData\Local\Temp\ccLPYcmd.s:31224  .debug_str:000000000002c613 .LASF454
C:\Users\CYMR90~1\AppData\Local\Temp\ccLPYcmd.s:23663  .debug_str:000000000000e6f3 .LASF455
C:\Users\CYMR90~1\AppData\Local\Temp\ccLPYcmd.s:28458  .debug_str:000000000002169a .LASF456
C:\Users\CYMR90~1\AppData\Local\Temp\ccLPYcmd.s:23349  .debug_str:000000000000d392 .LASF457
C:\Users\CYMR90~1\AppData\Local\Temp\ccLPYcmd.s:21627  .debug_str:0000000000006398 .LASF458
C:\Users\CYMR90~1\AppData\Local\Temp\ccLPYcmd.s:24279  .debug_str:0000000000010d6e .LASF459
C:\Users\CYMR90~1\AppData\Local\Temp\ccLPYcmd.s:28204  .debug_str:000000000002073d .LASF460
C:\Users\CYMR90~1\AppData\Local\Temp\ccLPYcmd.s:29372  .debug_str:0000000000024ec6 .LASF461
C:\Users\CYMR90~1\AppData\Local\Temp\ccLPYcmd.s:25779  .debug_str:0000000000016b8b .LASF462
C:\Users\CYMR90~1\AppData\Local\Temp\ccLPYcmd.s:26648  .debug_str:000000000001a4f6 .LASF463
C:\Users\CYMR90~1\AppData\Local\Temp\ccLPYcmd.s:23513  .debug_str:000000000000ddab .LASF464
C:\Users\CYMR90~1\AppData\Local\Temp\ccLPYcmd.s:24657  .debug_str:0000000000012520 .LASF465
C:\Users\CYMR90~1\AppData\Local\Temp\ccLPYcmd.s:21769  .debug_str:0000000000006c4b .LASF466
C:\Users\CYMR90~1\AppData\Local\Temp\ccLPYcmd.s:28606  .debug_str:0000000000021fa8 .LASF467
C:\Users\CYMR90~1\AppData\Local\Temp\ccLPYcmd.s:24419  .debug_str:0000000000011564 .LASF468
C:\Users\CYMR90~1\AppData\Local\Temp\ccLPYcmd.s:20913  .debug_str:00000000000036bb .LASF469
C:\Users\CYMR90~1\AppData\Local\Temp\ccLPYcmd.s:24175  .debug_str:000000000001063e .LASF470
C:\Users\CYMR90~1\AppData\Local\Temp\ccLPYcmd.s:24051  .debug_str:000000000000fedb .LASF471
C:\Users\CYMR90~1\AppData\Local\Temp\ccLPYcmd.s:23637  .debug_str:000000000000e567 .LASF472
C:\Users\CYMR90~1\AppData\Local\Temp\ccLPYcmd.s:20269  .debug_str:0000000000000e2e .LASF473
C:\Users\CYMR90~1\AppData\Local\Temp\ccLPYcmd.s:21887  .debug_str:0000000000007416 .LASF474
C:\Users\CYMR90~1\AppData\Local\Temp\ccLPYcmd.s:20215  .debug_str:0000000000000af6 .LASF475
C:\Users\CYMR90~1\AppData\Local\Temp\ccLPYcmd.s:21071  .debug_str:00000000000040d9 .LASF476
C:\Users\CYMR90~1\AppData\Local\Temp\ccLPYcmd.s:20443  .debug_str:000000000000199f .LASF477
C:\Users\CYMR90~1\AppData\Local\Temp\ccLPYcmd.s:25559  .debug_str:0000000000015cb7 .LASF478
C:\Users\CYMR90~1\AppData\Local\Temp\ccLPYcmd.s:22939  .debug_str:000000000000b8ff .LASF479
C:\Users\CYMR90~1\AppData\Local\Temp\ccLPYcmd.s:30842  .debug_str:000000000002adbb .LASF480
C:\Users\CYMR90~1\AppData\Local\Temp\ccLPYcmd.s:26160  .debug_str:0000000000018392 .LASF481
C:\Users\CYMR90~1\AppData\Local\Temp\ccLPYcmd.s:22861  .debug_str:000000000000b38c .LASF482
C:\Users\CYMR90~1\AppData\Local\Temp\ccLPYcmd.s:21669  .debug_str:0000000000006622 .LASF483
C:\Users\CYMR90~1\AppData\Local\Temp\ccLPYcmd.s:20181  .debug_str:00000000000008c7 .LASF484
C:\Users\CYMR90~1\AppData\Local\Temp\ccLPYcmd.s:26108  .debug_str:00000000000180a8 .LASF485
C:\Users\CYMR90~1\AppData\Local\Temp\ccLPYcmd.s:21297  .debug_str:0000000000005029 .LASF486
C:\Users\CYMR90~1\AppData\Local\Temp\ccLPYcmd.s:25013  .debug_str:0000000000013c2e .LASF487
C:\Users\CYMR90~1\AppData\Local\Temp\ccLPYcmd.s:24199  .debug_str:00000000000107d4 .LASF488
C:\Users\CYMR90~1\AppData\Local\Temp\ccLPYcmd.s:24779  .debug_str:0000000000012d2f .LASF489
C:\Users\CYMR90~1\AppData\Local\Temp\ccLPYcmd.s:23229  .debug_str:000000000000cc15 .LASF490
C:\Users\CYMR90~1\AppData\Local\Temp\ccLPYcmd.s:22201  .debug_str:000000000000891d .LASF491
C:\Users\CYMR90~1\AppData\Local\Temp\ccLPYcmd.s:23853  .debug_str:000000000000f234 .LASF492
C:\Users\CYMR90~1\AppData\Local\Temp\ccLPYcmd.s:22209  .debug_str:00000000000089a2 .LASF493
C:\Users\CYMR90~1\AppData\Local\Temp\ccLPYcmd.s:24059  .debug_str:000000000000ff5c .LASF494
C:\Users\CYMR90~1\AppData\Local\Temp\ccLPYcmd.s:26360  .debug_str:0000000000019178 .LASF495
C:\Users\CYMR90~1\AppData\Local\Temp\ccLPYcmd.s:31304  .debug_str:000000000002cb4e .LASF496
C:\Users\CYMR90~1\AppData\Local\Temp\ccLPYcmd.s:31240  .debug_str:000000000002c76d .LASF497
C:\Users\CYMR90~1\AppData\Local\Temp\ccLPYcmd.s:23899  .debug_str:000000000000f50a .LASF498
C:\Users\CYMR90~1\AppData\Local\Temp\ccLPYcmd.s:30448  .debug_str:0000000000029596 .LASF499
C:\Users\CYMR90~1\AppData\Local\Temp\ccLPYcmd.s:30548  .debug_str:0000000000029c3d .LASF500
C:\Users\CYMR90~1\AppData\Local\Temp\ccLPYcmd.s:25221  .debug_str:00000000000148c2 .LASF501
C:\Users\CYMR90~1\AppData\Local\Temp\ccLPYcmd.s:30502  .debug_str:000000000002999e .LASF502
C:\Users\CYMR90~1\AppData\Local\Temp\ccLPYcmd.s:25167  .debug_str:0000000000014557 .LASF503
C:\Users\CYMR90~1\AppData\Local\Temp\ccLPYcmd.s:20773  .debug_str:0000000000002dc3 .LASF504
C:\Users\CYMR90~1\AppData\Local\Temp\ccLPYcmd.s:29132  .debug_str:0000000000023e6e .LASF505
C:\Users\CYMR90~1\AppData\Local\Temp\ccLPYcmd.s:30014  .debug_str:0000000000027941 .LASF506
C:\Users\CYMR90~1\AppData\Local\Temp\ccLPYcmd.s:29588  .debug_str:0000000000025e53 .LASF507
C:\Users\CYMR90~1\AppData\Local\Temp\ccLPYcmd.s:26278  .debug_str:0000000000018aee .LASF508
C:\Users\CYMR90~1\AppData\Local\Temp\ccLPYcmd.s:28548  .debug_str:0000000000021bf0 .LASF509
C:\Users\CYMR90~1\AppData\Local\Temp\ccLPYcmd.s:30246  .debug_str:0000000000028932 .LASF510
C:\Users\CYMR90~1\AppData\Local\Temp\ccLPYcmd.s:26052  .debug_str:0000000000017d51 .LASF511
C:\Users\CYMR90~1\AppData\Local\Temp\ccLPYcmd.s:29866  .debug_str:0000000000026f56 .LASF512
C:\Users\CYMR90~1\AppData\Local\Temp\ccLPYcmd.s:29986  .debug_str:00000000000277bd .LASF513
C:\Users\CYMR90~1\AppData\Local\Temp\ccLPYcmd.s:30430  .debug_str:0000000000029494 .LASF514
C:\Users\CYMR90~1\AppData\Local\Temp\ccLPYcmd.s:24937  .debug_str:00000000000137a2 .LASF515
C:\Users\CYMR90~1\AppData\Local\Temp\ccLPYcmd.s:30306  .debug_str:0000000000028d3c .LASF516
C:\Users\CYMR90~1\AppData\Local\Temp\ccLPYcmd.s:26426  .debug_str:000000000001955e .LASF517
C:\Users\CYMR90~1\AppData\Local\Temp\ccLPYcmd.s:30254  .debug_str:00000000000289e6 .LASF518
C:\Users\CYMR90~1\AppData\Local\Temp\ccLPYcmd.s:27090  .debug_str:000000000001c114 .LASF519
C:\Users\CYMR90~1\AppData\Local\Temp\ccLPYcmd.s:31212  .debug_str:000000000002c578 .LASF520
C:\Users\CYMR90~1\AppData\Local\Temp\ccLPYcmd.s:27354  .debug_str:000000000001d2c7 .LASF521
C:\Users\CYMR90~1\AppData\Local\Temp\ccLPYcmd.s:29492  .debug_str:000000000002577a .LASF522
C:\Users\CYMR90~1\AppData\Local\Temp\ccLPYcmd.s:24821  .debug_str:0000000000012fe6 .LASF523
C:\Users\CYMR90~1\AppData\Local\Temp\ccLPYcmd.s:29042  .debug_str:0000000000023984 .LASF524
C:\Users\CYMR90~1\AppData\Local\Temp\ccLPYcmd.s:22417  .debug_str:0000000000009607 .LASF525
C:\Users\CYMR90~1\AppData\Local\Temp\ccLPYcmd.s:31232  .debug_str:000000000002c681 .LASF526
C:\Users\CYMR90~1\AppData\Local\Temp\ccLPYcmd.s:23671  .debug_str:000000000000e771 .LASF527
C:\Users\CYMR90~1\AppData\Local\Temp\ccLPYcmd.s:24681  .debug_str:00000000000126a8 .LASF528
C:\Users\CYMR90~1\AppData\Local\Temp\ccLPYcmd.s:25535  .debug_str:0000000000015b06 .LASF529
C:\Users\CYMR90~1\AppData\Local\Temp\ccLPYcmd.s:25571  .debug_str:0000000000015d64 .LASF530
C:\Users\CYMR90~1\AppData\Local\Temp\ccLPYcmd.s:24605  .debug_str:00000000000121e5 .LASF531
C:\Users\CYMR90~1\AppData\Local\Temp\ccLPYcmd.s:20837  .debug_str:000000000000318d .LASF532
C:\Users\CYMR90~1\AppData\Local\Temp\ccLPYcmd.s:23355  .debug_str:000000000000d3cc .LASF533
C:\Users\CYMR90~1\AppData\Local\Temp\ccLPYcmd.s:31076  .debug_str:000000000002bc08 .LASF534
C:\Users\CYMR90~1\AppData\Local\Temp\ccLPYcmd.s:23851  .debug_str:000000000000f1e8 .LASF535
C:\Users\CYMR90~1\AppData\Local\Temp\ccLPYcmd.s:29230  .debug_str:000000000002457d .LASF536
C:\Users\CYMR90~1\AppData\Local\Temp\ccLPYcmd.s:30712  .debug_str:000000000002a5ce .LASF537
C:\Users\CYMR90~1\AppData\Local\Temp\ccLPYcmd.s:24435  .debug_str:0000000000011653 .LASF538
C:\Users\CYMR90~1\AppData\Local\Temp\ccLPYcmd.s:29414  .debug_str:000000000002515e .LASF539
C:\Users\CYMR90~1\AppData\Local\Temp\ccLPYcmd.s:27150  .debug_str:000000000001c47f .LASF540
C:\Users\CYMR90~1\AppData\Local\Temp\ccLPYcmd.s:23449  .debug_str:000000000000da32 .LASF541
C:\Users\CYMR90~1\AppData\Local\Temp\ccLPYcmd.s:27444  .debug_str:000000000001d845 .LASF542
C:\Users\CYMR90~1\AppData\Local\Temp\ccLPYcmd.s:21187  .debug_str:00000000000048b9 .LASF543
C:\Users\CYMR90~1\AppData\Local\Temp\ccLPYcmd.s:23605  .debug_str:000000000000e36c .LASF544
C:\Users\CYMR90~1\AppData\Local\Temp\ccLPYcmd.s:30488  .debug_str:00000000000298ba .LASF545
C:\Users\CYMR90~1\AppData\Local\Temp\ccLPYcmd.s:24949  .debug_str:0000000000013853 .LASF546
C:\Users\CYMR90~1\AppData\Local\Temp\ccLPYcmd.s:28740  .debug_str:0000000000022752 .LASF547
C:\Users\CYMR90~1\AppData\Local\Temp\ccLPYcmd.s:30990  .debug_str:000000000002b6b4 .LASF548
C:\Users\CYMR90~1\AppData\Local\Temp\ccLPYcmd.s:26700  .debug_str:000000000001a874 .LASF549
C:\Users\CYMR90~1\AppData\Local\Temp\ccLPYcmd.s:22037  .debug_str:0000000000007dba .LASF550
C:\Users\CYMR90~1\AppData\Local\Temp\ccLPYcmd.s:29756  .debug_str:0000000000026889 .LASF551
C:\Users\CYMR90~1\AppData\Local\Temp\ccLPYcmd.s:21595  .debug_str:00000000000061a1 .LASF552
C:\Users\CYMR90~1\AppData\Local\Temp\ccLPYcmd.s:30732  .debug_str:000000000002a6d7 .LASF553
C:\Users\CYMR90~1\AppData\Local\Temp\ccLPYcmd.s:23015  .debug_str:000000000000bdda .LASF554
C:\Users\CYMR90~1\AppData\Local\Temp\ccLPYcmd.s:23205  .debug_str:000000000000ca52 .LASF555
C:\Users\CYMR90~1\AppData\Local\Temp\ccLPYcmd.s:21717  .debug_str:0000000000006911 .LASF556
C:\Users\CYMR90~1\AppData\Local\Temp\ccLPYcmd.s:21425  .debug_str:0000000000005797 .LASF557
C:\Users\CYMR90~1\AppData\Local\Temp\ccLPYcmd.s:24551  .debug_str:0000000000011e3b .LASF558
C:\Users\CYMR90~1\AppData\Local\Temp\ccLPYcmd.s:26306  .debug_str:0000000000018d44 .LASF559
C:\Users\CYMR90~1\AppData\Local\Temp\ccLPYcmd.s:30296  .debug_str:0000000000028c9c .LASF560
C:\Users\CYMR90~1\AppData\Local\Temp\ccLPYcmd.s:23011  .debug_str:000000000000bd76 .LASF561
C:\Users\CYMR90~1\AppData\Local\Temp\ccLPYcmd.s:24009  .debug_str:000000000000fc14 .LASF562
C:\Users\CYMR90~1\AppData\Local\Temp\ccLPYcmd.s:23399  .debug_str:000000000000d720 .LASF563
C:\Users\CYMR90~1\AppData\Local\Temp\ccLPYcmd.s:22709  .debug_str:000000000000a870 .LASF564
C:\Users\CYMR90~1\AppData\Local\Temp\ccLPYcmd.s:28486  .debug_str:0000000000021832 .LASF565
C:\Users\CYMR90~1\AppData\Local\Temp\ccLPYcmd.s:27696  .debug_str:000000000001e7ef .LASF566
C:\Users\CYMR90~1\AppData\Local\Temp\ccLPYcmd.s:24547  .debug_str:0000000000011df3 .LASF567
C:\Users\CYMR90~1\AppData\Local\Temp\ccLPYcmd.s:21597  .debug_str:00000000000061b5 .LASF568
C:\Users\CYMR90~1\AppData\Local\Temp\ccLPYcmd.s:20239  .debug_str:0000000000000c91 .LASF570
C:\Users\CYMR90~1\AppData\Local\Temp\ccLPYcmd.s:25930  .debug_str:00000000000175f2 .LASF571
C:\Users\CYMR90~1\AppData\Local\Temp\ccLPYcmd.s:27084  .debug_str:000000000001c0d0 .LASF574
C:\Users\CYMR90~1\AppData\Local\Temp\ccLPYcmd.s:21155  .debug_str:0000000000004692 .LASF575
C:\Users\CYMR90~1\AppData\Local\Temp\ccLPYcmd.s:25173  .debug_str:00000000000145e1 .LASF576
C:\Users\CYMR90~1\AppData\Local\Temp\ccLPYcmd.s:22133  .debug_str:0000000000008527 .LASF577
C:\Users\CYMR90~1\AppData\Local\Temp\ccLPYcmd.s:28380  .debug_str:000000000002114b .LASF579
C:\Users\CYMR90~1\AppData\Local\Temp\ccLPYcmd.s:27568  .debug_str:000000000001e08b .LASF580
C:\Users\CYMR90~1\AppData\Local\Temp\ccLPYcmd.s:29130  .debug_str:0000000000023e65 .LASF581
C:\Users\CYMR90~1\AppData\Local\Temp\ccLPYcmd.s:21553  .debug_str:0000000000005f20 .LASF582
C:\Users\CYMR90~1\AppData\Local\Temp\ccLPYcmd.s:24159  .debug_str:0000000000010548 .LASF583
C:\Users\CYMR90~1\AppData\Local\Temp\ccLPYcmd.s:20727  .debug_str:0000000000002ad0 .LASF584
C:\Users\CYMR90~1\AppData\Local\Temp\ccLPYcmd.s:30584  .debug_str:0000000000029e69 .LASF585
C:\Users\CYMR90~1\AppData\Local\Temp\ccLPYcmd.s:28790  .debug_str:0000000000022a81 .LASF586
C:\Users\CYMR90~1\AppData\Local\Temp\ccLPYcmd.s:26968  .debug_str:000000000001b9a2 .LASF587
C:\Users\CYMR90~1\AppData\Local\Temp\ccLPYcmd.s:21785  .debug_str:0000000000006d4a .LASF588
C:\Users\CYMR90~1\AppData\Local\Temp\ccLPYcmd.s:26216  .debug_str:0000000000018701 .LASF589
C:\Users\CYMR90~1\AppData\Local\Temp\ccLPYcmd.s:26594  .debug_str:000000000001a028 .LASF590
C:\Users\CYMR90~1\AppData\Local\Temp\ccLPYcmd.s:27436  .debug_str:000000000001d7d9 .LASF591
C:\Users\CYMR90~1\AppData\Local\Temp\ccLPYcmd.s:29894  .debug_str:0000000000027150 .LASF592
C:\Users\CYMR90~1\AppData\Local\Temp\ccLPYcmd.s:29118  .debug_str:0000000000023dc2 .LASF593
C:\Users\CYMR90~1\AppData\Local\Temp\ccLPYcmd.s:24117  .debug_str:0000000000010315 .LASF594
C:\Users\CYMR90~1\AppData\Local\Temp\ccLPYcmd.s:25011  .debug_str:0000000000013c0e .LASF595
C:\Users\CYMR90~1\AppData\Local\Temp\ccLPYcmd.s:24739  .debug_str:0000000000012a8a .LASF596
C:\Users\CYMR90~1\AppData\Local\Temp\ccLPYcmd.s:21889  .debug_str:0000000000007435 .LASF597
C:\Users\CYMR90~1\AppData\Local\Temp\ccLPYcmd.s:30112  .debug_str:0000000000027fcf .LASF598
C:\Users\CYMR90~1\AppData\Local\Temp\ccLPYcmd.s:24895  .debug_str:0000000000013515 .LASF599
C:\Users\CYMR90~1\AppData\Local\Temp\ccLPYcmd.s:27896  .debug_str:000000000001f44d .LASF600
C:\Users\CYMR90~1\AppData\Local\Temp\ccLPYcmd.s:27158  .debug_str:000000000001c4eb .LASF601
C:\Users\CYMR90~1\AppData\Local\Temp\ccLPYcmd.s:29594  .debug_str:0000000000025ea6 .LASF602
C:\Users\CYMR90~1\AppData\Local\Temp\ccLPYcmd.s:30312  .debug_str:0000000000028d9e .LASF603
C:\Users\CYMR90~1\AppData\Local\Temp\ccLPYcmd.s:30202  .debug_str:0000000000028651 .LASF604
C:\Users\CYMR90~1\AppData\Local\Temp\ccLPYcmd.s:24847  .debug_str:00000000000131a9 .LASF605
C:\Users\CYMR90~1\AppData\Local\Temp\ccLPYcmd.s:25872  .debug_str:00000000000172bb .LASF606
C:\Users\CYMR90~1\AppData\Local\Temp\ccLPYcmd.s:22485  .debug_str:0000000000009ac8 .LASF607
C:\Users\CYMR90~1\AppData\Local\Temp\ccLPYcmd.s:21993  .debug_str:0000000000007acc .LASF608
C:\Users\CYMR90~1\AppData\Local\Temp\ccLPYcmd.s:22771  .debug_str:000000000000ad45 .LASF609
C:\Users\CYMR90~1\AppData\Local\Temp\ccLPYcmd.s:27004  .debug_str:000000000001bb67 .LASF610
C:\Users\CYMR90~1\AppData\Local\Temp\ccLPYcmd.s:21519  .debug_str:0000000000005d81 .LASF611
C:\Users\CYMR90~1\AppData\Local\Temp\ccLPYcmd.s:28710  .debug_str:00000000000225bd .LASF612
C:\Users\CYMR90~1\AppData\Local\Temp\ccLPYcmd.s:25405  .debug_str:0000000000015399 .LASF613
C:\Users\CYMR90~1\AppData\Local\Temp\ccLPYcmd.s:22057  .debug_str:0000000000007f8d .LASF614
C:\Users\CYMR90~1\AppData\Local\Temp\ccLPYcmd.s:20139  .debug_str:0000000000000653 .LASF615
C:\Users\CYMR90~1\AppData\Local\Temp\ccLPYcmd.s:25645  .debug_str:0000000000016227 .LASF616
C:\Users\CYMR90~1\AppData\Local\Temp\ccLPYcmd.s:26630  .debug_str:000000000001a256 .LASF617
C:\Users\CYMR90~1\AppData\Local\Temp\ccLPYcmd.s:25781  .debug_str:0000000000016b9a .LASF618
C:\Users\CYMR90~1\AppData\Local\Temp\ccLPYcmd.s:28798  .debug_str:0000000000022ae6 .LASF619
C:\Users\CYMR90~1\AppData\Local\Temp\ccLPYcmd.s:23033  .debug_str:000000000000bf67 .LASF620
C:\Users\CYMR90~1\AppData\Local\Temp\ccLPYcmd.s:21799  .debug_str:0000000000006e37 .LASF621
C:\Users\CYMR90~1\AppData\Local\Temp\ccLPYcmd.s:28992  .debug_str:0000000000023642 .LASF622
C:\Users\CYMR90~1\AppData\Local\Temp\ccLPYcmd.s:28076  .debug_str:000000000001ff35 .LASF623
C:\Users\CYMR90~1\AppData\Local\Temp\ccLPYcmd.s:30068  .debug_str:0000000000027c7c .LASF624
C:\Users\CYMR90~1\AppData\Local\Temp\ccLPYcmd.s:30686  .debug_str:000000000002a475 .LASF625
C:\Users\CYMR90~1\AppData\Local\Temp\ccLPYcmd.s:25079  .debug_str:0000000000013fe9 .LASF626
C:\Users\CYMR90~1\AppData\Local\Temp\ccLPYcmd.s:30954  .debug_str:000000000002b420 .LASF627
C:\Users\CYMR90~1\AppData\Local\Temp\ccLPYcmd.s:25495  .debug_str:00000000000158bb .LASF628
C:\Users\CYMR90~1\AppData\Local\Temp\ccLPYcmd.s:28738  .debug_str:000000000002271a .LASF629
C:\Users\CYMR90~1\AppData\Local\Temp\ccLPYcmd.s:24107  .debug_str:0000000000010265 .LASF630
C:\Users\CYMR90~1\AppData\Local\Temp\ccLPYcmd.s:27220  .debug_str:000000000001c950 .LASF631
C:\Users\CYMR90~1\AppData\Local\Temp\ccLPYcmd.s:28700  .debug_str:0000000000022521 .LASF632
C:\Users\CYMR90~1\AppData\Local\Temp\ccLPYcmd.s:23149  .debug_str:000000000000c65e .LASF633
C:\Users\CYMR90~1\AppData\Local\Temp\ccLPYcmd.s:20655  .debug_str:00000000000025e1 .LASF634
C:\Users\CYMR90~1\AppData\Local\Temp\ccLPYcmd.s:26538  .debug_str:0000000000019cfe .LASF635
C:\Users\CYMR90~1\AppData\Local\Temp\ccLPYcmd.s:25703  .debug_str:00000000000165f8 .LASF636
C:\Users\CYMR90~1\AppData\Local\Temp\ccLPYcmd.s:27324  .debug_str:000000000001d0ed .LASF637
C:\Users\CYMR90~1\AppData\Local\Temp\ccLPYcmd.s:20947  .debug_str:00000000000038c4 .LASF638
C:\Users\CYMR90~1\AppData\Local\Temp\ccLPYcmd.s:24499  .debug_str:0000000000011b30 .LASF639
C:\Users\CYMR90~1\AppData\Local\Temp\ccLPYcmd.s:22069  .debug_str:0000000000008035 .LASF640
C:\Users\CYMR90~1\AppData\Local\Temp\ccLPYcmd.s:24721  .debug_str:000000000001295c .LASF641
C:\Users\CYMR90~1\AppData\Local\Temp\ccLPYcmd.s:22929  .debug_str:000000000000b81f .LASF642
C:\Users\CYMR90~1\AppData\Local\Temp\ccLPYcmd.s:30050  .debug_str:0000000000027b32 .LASF643
C:\Users\CYMR90~1\AppData\Local\Temp\ccLPYcmd.s:23311  .debug_str:000000000000d0f2 .LASF644
C:\Users\CYMR90~1\AppData\Local\Temp\ccLPYcmd.s:21123  .debug_str:0000000000004454 .LASF645
C:\Users\CYMR90~1\AppData\Local\Temp\ccLPYcmd.s:21953  .debug_str:000000000000781a .LASF646
C:\Users\CYMR90~1\AppData\Local\Temp\ccLPYcmd.s:20879  .debug_str:000000000000345d .LASF647
C:\Users\CYMR90~1\AppData\Local\Temp\ccLPYcmd.s:21243  .debug_str:0000000000004ccb .LASF648
C:\Users\CYMR90~1\AppData\Local\Temp\ccLPYcmd.s:30582  .debug_str:0000000000029e2a .LASF649
C:\Users\CYMR90~1\AppData\Local\Temp\ccLPYcmd.s:24415  .debug_str:00000000000114f4 .LASF650
C:\Users\CYMR90~1\AppData\Local\Temp\ccLPYcmd.s:30704  .debug_str:000000000002a55d .LASF651
C:\Users\CYMR90~1\AppData\Local\Temp\ccLPYcmd.s:24017  .debug_str:000000000000fcb1 .LASF652
C:\Users\CYMR90~1\AppData\Local\Temp\ccLPYcmd.s:20117  .debug_str:0000000000000524 .LASF653
C:\Users\CYMR90~1\AppData\Local\Temp\ccLPYcmd.s:30936  .debug_str:000000000002b330 .LASF654
C:\Users\CYMR90~1\AppData\Local\Temp\ccLPYcmd.s:22307  .debug_str:0000000000008fcf .LASF655
C:\Users\CYMR90~1\AppData\Local\Temp\ccLPYcmd.s:30128  .debug_str:00000000000280c8 .LASF656
C:\Users\CYMR90~1\AppData\Local\Temp\ccLPYcmd.s:20175  .debug_str:000000000000089f .LASF657
C:\Users\CYMR90~1\AppData\Local\Temp\ccLPYcmd.s:30756  .debug_str:000000000002a892 .LASF658
C:\Users\CYMR90~1\AppData\Local\Temp\ccLPYcmd.s:24815  .debug_str:0000000000012f98 .LASF659
C:\Users\CYMR90~1\AppData\Local\Temp\ccLPYcmd.s:27258  .debug_str:000000000001cb99 .LASF660
C:\Users\CYMR90~1\AppData\Local\Temp\ccLPYcmd.s:23707  .debug_str:000000000000e9e0 .LASF661
C:\Users\CYMR90~1\AppData\Local\Temp\ccLPYcmd.s:27924  .debug_str:000000000001f600 .LASF662
C:\Users\CYMR90~1\AppData\Local\Temp\ccLPYcmd.s:29908  .debug_str:0000000000027233 .LASF663
C:\Users\CYMR90~1\AppData\Local\Temp\ccLPYcmd.s:24393  .debug_str:00000000000113b5 .LASF664
C:\Users\CYMR90~1\AppData\Local\Temp\ccLPYcmd.s:24385  .debug_str:0000000000011344 .LASF665
C:\Users\CYMR90~1\AppData\Local\Temp\ccLPYcmd.s:26314  .debug_str:0000000000018dfd .LASF666
C:\Users\CYMR90~1\AppData\Local\Temp\ccLPYcmd.s:21533  .debug_str:0000000000005e22 .LASF667
C:\Users\CYMR90~1\AppData\Local\Temp\ccLPYcmd.s:31428  .debug_str:000000000002d3bd .LASF668
C:\Users\CYMR90~1\AppData\Local\Temp\ccLPYcmd.s:21915  .debug_str:00000000000075c4 .LASF669
C:\Users\CYMR90~1\AppData\Local\Temp\ccLPYcmd.s:28584  .debug_str:0000000000021e47 .LASF670
C:\Users\CYMR90~1\AppData\Local\Temp\ccLPYcmd.s:24799  .debug_str:0000000000012e8b .LASF671
C:\Users\CYMR90~1\AppData\Local\Temp\ccLPYcmd.s:27974  .debug_str:000000000001f8c6 .LASF672
C:\Users\CYMR90~1\AppData\Local\Temp\ccLPYcmd.s:28714  .debug_str:00000000000225ee .LASF673
C:\Users\CYMR90~1\AppData\Local\Temp\ccLPYcmd.s:20511  .debug_str:0000000000001dc2 .LASF674
C:\Users\CYMR90~1\AppData\Local\Temp\ccLPYcmd.s:25481  .debug_str:00000000000157dc .LASF676
C:\Users\CYMR90~1\AppData\Local\Temp\ccLPYcmd.s:29148  .debug_str:0000000000023f85 .LASF677
C:\Users\CYMR90~1\AppData\Local\Temp\ccLPYcmd.s:26550  .debug_str:0000000000019dae .LASF678
C:\Users\CYMR90~1\AppData\Local\Temp\ccLPYcmd.s:29250  .debug_str:00000000000246fb .LASF679
C:\Users\CYMR90~1\AppData\Local\Temp\ccLPYcmd.s:27692  .debug_str:000000000001e7c3 .LASF680
C:\Users\CYMR90~1\AppData\Local\Temp\ccLPYcmd.s:30602  .debug_str:0000000000029f74 .LASF681
C:\Users\CYMR90~1\AppData\Local\Temp\ccLPYcmd.s:21125  .debug_str:0000000000004492 .LASF682
C:\Users\CYMR90~1\AppData\Local\Temp\ccLPYcmd.s:21045  .debug_str:0000000000003f13 .LASF683
C:\Users\CYMR90~1\AppData\Local\Temp\ccLPYcmd.s:22443  .debug_str:00000000000097cf .LASF684
C:\Users\CYMR90~1\AppData\Local\Temp\ccLPYcmd.s:27008  .debug_str:000000000001bb94 .LASF685
C:\Users\CYMR90~1\AppData\Local\Temp\ccLPYcmd.s:28442  .debug_str:0000000000021592 .LASF686
C:\Users\CYMR90~1\AppData\Local\Temp\ccLPYcmd.s:25759  .debug_str:00000000000169cb .LASF687
C:\Users\CYMR90~1\AppData\Local\Temp\ccLPYcmd.s:24315  .debug_str:0000000000010f3f .LASF688
C:\Users\CYMR90~1\AppData\Local\Temp\ccLPYcmd.s:20929  .debug_str:0000000000003797 .LASF689
C:\Users\CYMR90~1\AppData\Local\Temp\ccLPYcmd.s:21807  .debug_str:0000000000006eda .LASF690
C:\Users\CYMR90~1\AppData\Local\Temp\ccLPYcmd.s:24665  .debug_str:0000000000012594 .LASF691
C:\Users\CYMR90~1\AppData\Local\Temp\ccLPYcmd.s:25521  .debug_str:0000000000015a3e .LASF692
C:\Users\CYMR90~1\AppData\Local\Temp\ccLPYcmd.s:21499  .debug_str:0000000000005c5a .LASF695
C:\Users\CYMR90~1\AppData\Local\Temp\ccLPYcmd.s:25928  .debug_str:00000000000175db .LASF696
C:\Users\CYMR90~1\AppData\Local\Temp\ccLPYcmd.s:23339  .debug_str:000000000000d2ca .LASF697
C:\Users\CYMR90~1\AppData\Local\Temp\ccLPYcmd.s:26978  .debug_str:000000000001ba03 .LASF698
C:\Users\CYMR90~1\AppData\Local\Temp\ccLPYcmd.s:29186  .debug_str:000000000002419a .LASF699
C:\Users\CYMR90~1\AppData\Local\Temp\ccLPYcmd.s:25255  .debug_str:0000000000014a90 .LASF702
C:\Users\CYMR90~1\AppData\Local\Temp\ccLPYcmd.s:22465  .debug_str:0000000000009926 .LASF703
C:\Users\CYMR90~1\AppData\Local\Temp\ccLPYcmd.s:27866  .debug_str:000000000001f28c .LASF704
C:\Users\CYMR90~1\AppData\Local\Temp\ccLPYcmd.s:21321  .debug_str:0000000000005185 .LASF705
C:\Users\CYMR90~1\AppData\Local\Temp\ccLPYcmd.s:25583  .debug_str:0000000000015e4b .LASF706
C:\Users\CYMR90~1\AppData\Local\Temp\ccLPYcmd.s:23897  .debug_str:000000000000f4e4 .LASF707
C:\Users\CYMR90~1\AppData\Local\Temp\ccLPYcmd.s:30326  .debug_str:0000000000028e6b .LASF708
C:\Users\CYMR90~1\AppData\Local\Temp\ccLPYcmd.s:29564  .debug_str:0000000000025cf5 .LASF709
C:\Users\CYMR90~1\AppData\Local\Temp\ccLPYcmd.s:28588  .debug_str:0000000000021e8d .LASF710
C:\Users\CYMR90~1\AppData\Local\Temp\ccLPYcmd.s:24055  .debug_str:000000000000ff1c .LASF711
C:\Users\CYMR90~1\AppData\Local\Temp\ccLPYcmd.s:25733  .debug_str:00000000000167bf .LASF712
C:\Users\CYMR90~1\AppData\Local\Temp\ccLPYcmd.s:22703  .debug_str:000000000000a7fe .LASF713
C:\Users\CYMR90~1\AppData\Local\Temp\ccLPYcmd.s:31156  .debug_str:000000000002c15e .LASF714
C:\Users\CYMR90~1\AppData\Local\Temp\ccLPYcmd.s:22053  .debug_str:0000000000007f28 .LASF715
C:\Users\CYMR90~1\AppData\Local\Temp\ccLPYcmd.s:22971  .debug_str:000000000000bab8 .LASF716
C:\Users\CYMR90~1\AppData\Local\Temp\ccLPYcmd.s:28094  .debug_str:0000000000020059 .LASF717
C:\Users\CYMR90~1\AppData\Local\Temp\ccLPYcmd.s:29520  .debug_str:00000000000259b0 .LASF718
C:\Users\CYMR90~1\AppData\Local\Temp\ccLPYcmd.s:29294  .debug_str:0000000000024988 .LASF719
C:\Users\CYMR90~1\AppData\Local\Temp\ccLPYcmd.s:26250  .debug_str:0000000000018946 .LASF720
C:\Users\CYMR90~1\AppData\Local\Temp\ccLPYcmd.s:20567  .debug_str:00000000000020dd .LASF721
C:\Users\CYMR90~1\AppData\Local\Temp\ccLPYcmd.s:28208  .debug_str:0000000000020771 .LASF722
C:\Users\CYMR90~1\AppData\Local\Temp\ccLPYcmd.s:27172  .debug_str:000000000001c5a1 .LASF723
C:\Users\CYMR90~1\AppData\Local\Temp\ccLPYcmd.s:27744  .debug_str:000000000001eb20 .LASF724
C:\Users\CYMR90~1\AppData\Local\Temp\ccLPYcmd.s:28692  .debug_str:00000000000224cf .LASF725
C:\Users\CYMR90~1\AppData\Local\Temp\ccLPYcmd.s:25902  .debug_str:0000000000017456 .LASF726
C:\Users\CYMR90~1\AppData\Local\Temp\ccLPYcmd.s:22697  .debug_str:000000000000a7a4 .LASF727
C:\Users\CYMR90~1\AppData\Local\Temp\ccLPYcmd.s:29656  .debug_str:00000000000262aa .LASF728
C:\Users\CYMR90~1\AppData\Local\Temp\ccLPYcmd.s:27980  .debug_str:000000000001f944 .LASF729
C:\Users\CYMR90~1\AppData\Local\Temp\ccLPYcmd.s:26438  .debug_str:0000000000019608 .LASF730
C:\Users\CYMR90~1\AppData\Local\Temp\ccLPYcmd.s:24883  .debug_str:000000000001344d .LASF731
C:\Users\CYMR90~1\AppData\Local\Temp\ccLPYcmd.s:29596  .debug_str:0000000000025ee1 .LASF732
C:\Users\CYMR90~1\AppData\Local\Temp\ccLPYcmd.s:31358  .debug_str:000000000002cf02 .LASF733
C:\Users\CYMR90~1\AppData\Local\Temp\ccLPYcmd.s:24369  .debug_str:000000000001124e .LASF734
C:\Users\CYMR90~1\AppData\Local\Temp\ccLPYcmd.s:24291  .debug_str:0000000000010dfc .LASF735
C:\Users\CYMR90~1\AppData\Local\Temp\ccLPYcmd.s:31290  .debug_str:000000000002ca62 .LASF736
C:\Users\CYMR90~1\AppData\Local\Temp\ccLPYcmd.s:23277  .debug_str:000000000000cecd .LASF737
C:\Users\CYMR90~1\AppData\Local\Temp\ccLPYcmd.s:31222  .debug_str:000000000002c602 .LASF738
C:\Users\CYMR90~1\AppData\Local\Temp\ccLPYcmd.s:31044  .debug_str:000000000002ba11 .LASF739
C:\Users\CYMR90~1\AppData\Local\Temp\ccLPYcmd.s:20477  .debug_str:0000000000001b9b .LASF740
C:\Users\CYMR90~1\AppData\Local\Temp\ccLPYcmd.s:23211  .debug_str:000000000000cac2 .LASF741
C:\Users\CYMR90~1\AppData\Local\Temp\ccLPYcmd.s:20453  .debug_str:0000000000001a40 .LASF742
C:\Users\CYMR90~1\AppData\Local\Temp\ccLPYcmd.s:24325  .debug_str:0000000000010fbc .LASF743
C:\Users\CYMR90~1\AppData\Local\Temp\ccLPYcmd.s:20917  .debug_str:00000000000036f8 .LASF744
C:\Users\CYMR90~1\AppData\Local\Temp\ccLPYcmd.s:22315  .debug_str:0000000000009050 .LASF745
C:\Users\CYMR90~1\AppData\Local\Temp\ccLPYcmd.s:28704  .debug_str:0000000000022570 .LASF746
C:\Users\CYMR90~1\AppData\Local\Temp\ccLPYcmd.s:20349  .debug_str:000000000000134d .LASF747
C:\Users\CYMR90~1\AppData\Local\Temp\ccLPYcmd.s:30454  .debug_str:000000000002968d .LASF748
C:\Users\CYMR90~1\AppData\Local\Temp\ccLPYcmd.s:21479  .debug_str:0000000000005ae1 .LASF750
C:\Users\CYMR90~1\AppData\Local\Temp\ccLPYcmd.s:24243  .debug_str:0000000000010a42 .LASF751
C:\Users\CYMR90~1\AppData\Local\Temp\ccLPYcmd.s:30484  .debug_str:0000000000029878 .LASF752
C:\Users\CYMR90~1\AppData\Local\Temp\ccLPYcmd.s:28902  .debug_str:000000000002315e .LASF753
C:\Users\CYMR90~1\AppData\Local\Temp\ccLPYcmd.s:21363  .debug_str:000000000000541e .LASF754
C:\Users\CYMR90~1\AppData\Local\Temp\ccLPYcmd.s:22953  .debug_str:000000000000b9b1 .LASF755
C:\Users\CYMR90~1\AppData\Local\Temp\ccLPYcmd.s:26514  .debug_str:0000000000019ba4 .LASF756
C:\Users\CYMR90~1\AppData\Local\Temp\ccLPYcmd.s:22453  .debug_str:000000000000987e .LASF757
C:\Users\CYMR90~1\AppData\Local\Temp\ccLPYcmd.s:29548  .debug_str:0000000000025c0d .LASF758
C:\Users\CYMR90~1\AppData\Local\Temp\ccLPYcmd.s:31392  .debug_str:000000000002d192 .LASF759
C:\Users\CYMR90~1\AppData\Local\Temp\ccLPYcmd.s:26888  .debug_str:000000000001b476 .LASF760
C:\Users\CYMR90~1\AppData\Local\Temp\ccLPYcmd.s:31138  .debug_str:000000000002c018 .LASF761
C:\Users\CYMR90~1\AppData\Local\Temp\ccLPYcmd.s:22879  .debug_str:000000000000b46d .LASF762
C:\Users\CYMR90~1\AppData\Local\Temp\ccLPYcmd.s:26898  .debug_str:000000000001b534 .LASF765
C:\Users\CYMR90~1\AppData\Local\Temp\ccLPYcmd.s:25553  .debug_str:0000000000015c18 .LASF766
C:\Users\CYMR90~1\AppData\Local\Temp\ccLPYcmd.s:28594  .debug_str:0000000000021eda .LASF767
C:\Users\CYMR90~1\AppData\Local\Temp\ccLPYcmd.s:25541  .debug_str:0000000000015b9f .LASF768
C:\Users\CYMR90~1\AppData\Local\Temp\ccLPYcmd.s:20715  .debug_str:0000000000002a0f .LASF769
C:\Users\CYMR90~1\AppData\Local\Temp\ccLPYcmd.s:27024  .debug_str:000000000001bcd7 .LASF770
C:\Users\CYMR90~1\AppData\Local\Temp\ccLPYcmd.s:25641  .debug_str:0000000000016201 .LASF771
C:\Users\CYMR90~1\AppData\Local\Temp\ccLPYcmd.s:29260  .debug_str:0000000000024774 .LASF772
C:\Users\CYMR90~1\AppData\Local\Temp\ccLPYcmd.s:28888  .debug_str:0000000000023088 .LASF773
C:\Users\CYMR90~1\AppData\Local\Temp\ccLPYcmd.s:23627  .debug_str:000000000000e4dd .LASF774
C:\Users\CYMR90~1\AppData\Local\Temp\ccLPYcmd.s:29598  .debug_str:0000000000025ef7 .LASF775
C:\Users\CYMR90~1\AppData\Local\Temp\ccLPYcmd.s:22597  .debug_str:000000000000a1a3 .LASF776
C:\Users\CYMR90~1\AppData\Local\Temp\ccLPYcmd.s:22613  .debug_str:000000000000a2a7 .LASF777
C:\Users\CYMR90~1\AppData\Local\Temp\ccLPYcmd.s:27682  .debug_str:000000000001e722 .LASF778
C:\Users\CYMR90~1\AppData\Local\Temp\ccLPYcmd.s:24119  .debug_str:000000000001033d .LASF779
C:\Users\CYMR90~1\AppData\Local\Temp\ccLPYcmd.s:27932  .debug_str:000000000001f675 .LASF780
C:\Users\CYMR90~1\AppData\Local\Temp\ccLPYcmd.s:28590  .debug_str:0000000000021ea1 .LASF781
C:\Users\CYMR90~1\AppData\Local\Temp\ccLPYcmd.s:24615  .debug_str:000000000001228c .LASF782
C:\Users\CYMR90~1\AppData\Local\Temp\ccLPYcmd.s:25767  .debug_str:0000000000016aee .LASF783
C:\Users\CYMR90~1\AppData\Local\Temp\ccLPYcmd.s:24515  .debug_str:0000000000011c2e .LASF784
C:\Users\CYMR90~1\AppData\Local\Temp\ccLPYcmd.s:24931  .debug_str:000000000001374d .LASF785
C:\Users\CYMR90~1\AppData\Local\Temp\ccLPYcmd.s:28958  .debug_str:0000000000023455 .LASF786
C:\Users\CYMR90~1\AppData\Local\Temp\ccLPYcmd.s:25269  .debug_str:0000000000014bb5 .LASF787
C:\Users\CYMR90~1\AppData\Local\Temp\ccLPYcmd.s:27616  .debug_str:000000000001e351 .LASF788
C:\Users\CYMR90~1\AppData\Local\Temp\ccLPYcmd.s:23977  .debug_str:000000000000fa46 .LASF789
C:\Users\CYMR90~1\AppData\Local\Temp\ccLPYcmd.s:21411  .debug_str:00000000000056f9 .LASF790
C:\Users\CYMR90~1\AppData\Local\Temp\ccLPYcmd.s:29954  .debug_str:00000000000275ab .LASF791
C:\Users\CYMR90~1\AppData\Local\Temp\ccLPYcmd.s:22175  .debug_str:0000000000008770 .LASF792
C:\Users\CYMR90~1\AppData\Local\Temp\ccLPYcmd.s:31364  .debug_str:000000000002cf50 .LASF793
C:\Users\CYMR90~1\AppData\Local\Temp\ccLPYcmd.s:21965  .debug_str:0000000000007912 .LASF794
C:\Users\CYMR90~1\AppData\Local\Temp\ccLPYcmd.s:30208  .debug_str:00000000000286b0 .LASF795
C:\Users\CYMR90~1\AppData\Local\Temp\ccLPYcmd.s:28182  .debug_str:000000000002057d .LASF796
C:\Users\CYMR90~1\AppData\Local\Temp\ccLPYcmd.s:30928  .debug_str:000000000002b2df .LASF797
C:\Users\CYMR90~1\AppData\Local\Temp\ccLPYcmd.s:21789  .debug_str:0000000000006d94 .LASF798
C:\Users\CYMR90~1\AppData\Local\Temp\ccLPYcmd.s:30270  .debug_str:0000000000028b0e .LASF799
C:\Users\CYMR90~1\AppData\Local\Temp\ccLPYcmd.s:21377  .debug_str:00000000000054ea .LASF800
C:\Users\CYMR90~1\AppData\Local\Temp\ccLPYcmd.s:26650  .debug_str:000000000001a503 .LASF801
C:\Users\CYMR90~1\AppData\Local\Temp\ccLPYcmd.s:26678  .debug_str:000000000001a6ad .LASF802
C:\Users\CYMR90~1\AppData\Local\Temp\ccLPYcmd.s:22515  .debug_str:0000000000009ca0 .LASF803
C:\Users\CYMR90~1\AppData\Local\Temp\ccLPYcmd.s:25019  .debug_str:0000000000013c74 .LASF804
C:\Users\CYMR90~1\AppData\Local\Temp\ccLPYcmd.s:21803  .debug_str:0000000000006e5b .LASF805
C:\Users\CYMR90~1\AppData\Local\Temp\ccLPYcmd.s:24467  .debug_str:00000000000118c4 .LASF806
C:\Users\CYMR90~1\AppData\Local\Temp\ccLPYcmd.s:27638  .debug_str:000000000001e467 .LASF807
C:\Users\CYMR90~1\AppData\Local\Temp\ccLPYcmd.s:27224  .debug_str:000000000001c989 .LASF808
C:\Users\CYMR90~1\AppData\Local\Temp\ccLPYcmd.s:29666  .debug_str:0000000000026341 .LASF809
C:\Users\CYMR90~1\AppData\Local\Temp\ccLPYcmd.s:31142  .debug_str:000000000002c06d .LASF810
C:\Users\CYMR90~1\AppData\Local\Temp\ccLPYcmd.s:22199  .debug_str:00000000000088e4 .LASF811
C:\Users\CYMR90~1\AppData\Local\Temp\ccLPYcmd.s:21103  .debug_str:0000000000004355 .LASF812
C:\Users\CYMR90~1\AppData\Local\Temp\ccLPYcmd.s:31176  .debug_str:000000000002c321 .LASF813
C:\Users\CYMR90~1\AppData\Local\Temp\ccLPYcmd.s:21475  .debug_str:0000000000005aba .LASF814
C:\Users\CYMR90~1\AppData\Local\Temp\ccLPYcmd.s:21697  .debug_str:00000000000067bd .LASF815
C:\Users\CYMR90~1\AppData\Local\Temp\ccLPYcmd.s:26992  .debug_str:000000000001bac1 .LASF816
C:\Users\CYMR90~1\AppData\Local\Temp\ccLPYcmd.s:22381  .debug_str:0000000000009400 .LASF817
C:\Users\CYMR90~1\AppData\Local\Temp\ccLPYcmd.s:27136  .debug_str:000000000001c3d4 .LASF818
C:\Users\CYMR90~1\AppData\Local\Temp\ccLPYcmd.s:27028  .debug_str:000000000001bcef .LASF819
C:\Users\CYMR90~1\AppData\Local\Temp\ccLPYcmd.s:20217  .debug_str:0000000000000b2f .LASF820
C:\Users\CYMR90~1\AppData\Local\Temp\ccLPYcmd.s:30758  .debug_str:000000000002a8a2 .LASF821
C:\Users\CYMR90~1\AppData\Local\Temp\ccLPYcmd.s:29256  .debug_str:0000000000024744 .LASF822
C:\Users\CYMR90~1\AppData\Local\Temp\ccLPYcmd.s:22345  .debug_str:00000000000091c5 .LASF823
C:\Users\CYMR90~1\AppData\Local\Temp\ccLPYcmd.s:25689  .debug_str:000000000001652f .LASF824
C:\Users\CYMR90~1\AppData\Local\Temp\ccLPYcmd.s:27326  .debug_str:000000000001d117 .LASF825
C:\Users\CYMR90~1\AppData\Local\Temp\ccLPYcmd.s:25479  .debug_str:00000000000157bb .LASF826
C:\Users\CYMR90~1\AppData\Local\Temp\ccLPYcmd.s:20995  .debug_str:0000000000003bf9 .LASF827
C:\Users\CYMR90~1\AppData\Local\Temp\ccLPYcmd.s:23785  .debug_str:000000000000ee51 .LASF828
C:\Users\CYMR90~1\AppData\Local\Temp\ccLPYcmd.s:29366  .debug_str:0000000000024e65 .LASF829
C:\Users\CYMR90~1\AppData\Local\Temp\ccLPYcmd.s:29538  .debug_str:0000000000025b4d .LASF830
C:\Users\CYMR90~1\AppData\Local\Temp\ccLPYcmd.s:22959  .debug_str:000000000000ba0c .LASF831
C:\Users\CYMR90~1\AppData\Local\Temp\ccLPYcmd.s:23731  .debug_str:000000000000eb6a .LASF832
C:\Users\CYMR90~1\AppData\Local\Temp\ccLPYcmd.s:21561  .debug_str:0000000000005f8c .LASF833
C:\Users\CYMR90~1\AppData\Local\Temp\ccLPYcmd.s:26588  .debug_str:0000000000019fe6 .LASF834
C:\Users\CYMR90~1\AppData\Local\Temp\ccLPYcmd.s:26172  .debug_str:000000000001846b .LASF835
C:\Users\CYMR90~1\AppData\Local\Temp\ccLPYcmd.s:24273  .debug_str:0000000000010c89 .LASF836
C:\Users\CYMR90~1\AppData\Local\Temp\ccLPYcmd.s:28086  .debug_str:000000000001fff4 .LASF837
C:\Users\CYMR90~1\AppData\Local\Temp\ccLPYcmd.s:22249  .debug_str:0000000000008c42 .LASF838
C:\Users\CYMR90~1\AppData\Local\Temp\ccLPYcmd.s:21399  .debug_str:000000000000565a .LASF839
C:\Users\CYMR90~1\AppData\Local\Temp\ccLPYcmd.s:24171  .debug_str:0000000000010607 .LASF840
C:\Users\CYMR90~1\AppData\Local\Temp\ccLPYcmd.s:23095  .debug_str:000000000000c335 .LASF841
C:\Users\CYMR90~1\AppData\Local\Temp\ccLPYcmd.s:27240  .debug_str:000000000001ca93 .LASF842
C:\Users\CYMR90~1\AppData\Local\Temp\ccLPYcmd.s:20293  .debug_str:000000000000103c .LASF843
C:\Users\CYMR90~1\AppData\Local\Temp\ccLPYcmd.s:20653  .debug_str:00000000000025d1 .LASF844
C:\Users\CYMR90~1\AppData\Local\Temp\ccLPYcmd.s:29110  .debug_str:0000000000023d5a .LASF845
C:\Users\CYMR90~1\AppData\Local\Temp\ccLPYcmd.s:20039  .debug_str:0000000000000096 .LASF846
C:\Users\CYMR90~1\AppData\Local\Temp\ccLPYcmd.s:22043  .debug_str:0000000000007ec2 .LASF847
C:\Users\CYMR90~1\AppData\Local\Temp\ccLPYcmd.s:27938  .debug_str:000000000001f6c3 .LASF848
C:\Users\CYMR90~1\AppData\Local\Temp\ccLPYcmd.s:22011  .debug_str:0000000000007c1e .LASF849
C:\Users\CYMR90~1\AppData\Local\Temp\ccLPYcmd.s:23395  .debug_str:000000000000d6f2 .LASF852
C:\Users\CYMR90~1\AppData\Local\Temp\ccLPYcmd.s:28890  .debug_str:0000000000023096 .LASF853
C:\Users\CYMR90~1\AppData\Local\Temp\ccLPYcmd.s:25331  .debug_str:0000000000014f83 .LASF854
C:\Users\CYMR90~1\AppData\Local\Temp\ccLPYcmd.s:28600  .debug_str:0000000000021f6f .LASF856
C:\Users\CYMR90~1\AppData\Local\Temp\ccLPYcmd.s:27464  .debug_str:000000000001d9b7 .LASF857
C:\Users\CYMR90~1\AppData\Local\Temp\ccLPYcmd.s:30140  .debug_str:000000000002817c .LASF858
C:\Users\CYMR90~1\AppData\Local\Temp\ccLPYcmd.s:23381  .debug_str:000000000000d601 .LASF859
C:\Users\CYMR90~1\AppData\Local\Temp\ccLPYcmd.s:25277  .debug_str:0000000000014bf1 .LASF860
C:\Users\CYMR90~1\AppData\Local\Temp\ccLPYcmd.s:28528  .debug_str:0000000000021adb .LASF861
C:\Users\CYMR90~1\AppData\Local\Temp\ccLPYcmd.s:27674  .debug_str:000000000001e6d2 .LASF862
C:\Users\CYMR90~1\AppData\Local\Temp\ccLPYcmd.s:20391  .debug_str:00000000000015d5 .LASF863
C:\Users\CYMR90~1\AppData\Local\Temp\ccLPYcmd.s:21049  .debug_str:0000000000003f41 .LASF864
C:\Users\CYMR90~1\AppData\Local\Temp\ccLPYcmd.s:21447  .debug_str:000000000000592c .LASF865
C:\Users\CYMR90~1\AppData\Local\Temp\ccLPYcmd.s:22647  .debug_str:000000000000a4e6 .LASF866
C:\Users\CYMR90~1\AppData\Local\Temp\ccLPYcmd.s:22115  .debug_str:00000000000083dd .LASF867
C:\Users\CYMR90~1\AppData\Local\Temp\ccLPYcmd.s:27392  .debug_str:000000000001d506 .LASF868
C:\Users\CYMR90~1\AppData\Local\Temp\ccLPYcmd.s:28024  .debug_str:000000000001fc03 .LASF869
C:\Users\CYMR90~1\AppData\Local\Temp\ccLPYcmd.s:29124  .debug_str:0000000000023e1e .LASF870
C:\Users\CYMR90~1\AppData\Local\Temp\ccLPYcmd.s:22285  .debug_str:0000000000008ea8 .LASF871
C:\Users\CYMR90~1\AppData\Local\Temp\ccLPYcmd.s:22721  .debug_str:000000000000aa37 .LASF872
C:\Users\CYMR90~1\AppData\Local\Temp\ccLPYcmd.s:27232  .debug_str:000000000001ca21 .LASF873
C:\Users\CYMR90~1\AppData\Local\Temp\ccLPYcmd.s:29840  .debug_str:0000000000026ddb .LASF874
C:\Users\CYMR90~1\AppData\Local\Temp\ccLPYcmd.s:24535  .debug_str:0000000000011d46 .LASF875
C:\Users\CYMR90~1\AppData\Local\Temp\ccLPYcmd.s:25231  .debug_str:000000000001497c .LASF876
C:\Users\CYMR90~1\AppData\Local\Temp\ccLPYcmd.s:22521  .debug_str:0000000000009cf5 .LASF877
C:\Users\CYMR90~1\AppData\Local\Temp\ccLPYcmd.s:26930  .debug_str:000000000001b72d .LASF878
C:\Users\CYMR90~1\AppData\Local\Temp\ccLPYcmd.s:30610  .debug_str:0000000000029ff7 .LASF879
C:\Users\CYMR90~1\AppData\Local\Temp\ccLPYcmd.s:25876  .debug_str:00000000000172f8 .LASF880
C:\Users\CYMR90~1\AppData\Local\Temp\ccLPYcmd.s:21379  .debug_str:0000000000005503 .LASF881
C:\Users\CYMR90~1\AppData\Local\Temp\ccLPYcmd.s:24759  .debug_str:0000000000012c02 .LASF882
C:\Users\CYMR90~1\AppData\Local\Temp\ccLPYcmd.s:27908  .debug_str:000000000001f535 .LASF883
C:\Users\CYMR90~1\AppData\Local\Temp\ccLPYcmd.s:24371  .debug_str:000000000001125f .LASF884
C:\Users\CYMR90~1\AppData\Local\Temp\ccLPYcmd.s:23679  .debug_str:000000000000e835 .LASF885
C:\Users\CYMR90~1\AppData\Local\Temp\ccLPYcmd.s:26936  .debug_str:000000000001b785 .LASF886
C:\Users\CYMR90~1\AppData\Local\Temp\ccLPYcmd.s:22393  .debug_str:00000000000094a7 .LASF887
C:\Users\CYMR90~1\AppData\Local\Temp\ccLPYcmd.s:29074  .debug_str:0000000000023b84 .LASF888
C:\Users\CYMR90~1\AppData\Local\Temp\ccLPYcmd.s:24695  .debug_str:00000000000127c1 .LASF889
C:\Users\CYMR90~1\AppData\Local\Temp\ccLPYcmd.s:29008  .debug_str:000000000002374c .LASF890
C:\Users\CYMR90~1\AppData\Local\Temp\ccLPYcmd.s:21203  .debug_str:0000000000004a6a .LASF891
C:\Users\CYMR90~1\AppData\Local\Temp\ccLPYcmd.s:23681  .debug_str:000000000000e84f .LASF892
C:\Users\CYMR90~1\AppData\Local\Temp\ccLPYcmd.s:29782  .debug_str:0000000000026a74 .LASF893
C:\Users\CYMR90~1\AppData\Local\Temp\ccLPYcmd.s:29168  .debug_str:00000000000240a7 .LASF894
C:\Users\CYMR90~1\AppData\Local\Temp\ccLPYcmd.s:20363  .debug_str:0000000000001424 .LASF895
C:\Users\CYMR90~1\AppData\Local\Temp\ccLPYcmd.s:25081  .debug_str:0000000000014021 .LASF896
C:\Users\CYMR90~1\AppData\Local\Temp\ccLPYcmd.s:21291  .debug_str:0000000000004fb6 .LASF897
C:\Users\CYMR90~1\AppData\Local\Temp\ccLPYcmd.s:22511  .debug_str:0000000000009c61 .LASF898
C:\Users\CYMR90~1\AppData\Local\Temp\ccLPYcmd.s:30080  .debug_str:0000000000027d8a .LASF899
C:\Users\CYMR90~1\AppData\Local\Temp\ccLPYcmd.s:22837  .debug_str:000000000000b240 .LASF900
C:\Users\CYMR90~1\AppData\Local\Temp\ccLPYcmd.s:26984  .debug_str:000000000001ba39 .LASF901
C:\Users\CYMR90~1\AppData\Local\Temp\ccLPYcmd.s:30624  .debug_str:000000000002a0c7 .LASF902
C:\Users\CYMR90~1\AppData\Local\Temp\ccLPYcmd.s:29364  .debug_str:0000000000024e3f .LASF903
C:\Users\CYMR90~1\AppData\Local\Temp\ccLPYcmd.s:30230  .debug_str:000000000002881b .LASF904
C:\Users\CYMR90~1\AppData\Local\Temp\ccLPYcmd.s:24743  .debug_str:0000000000012af4 .LASF905
C:\Users\CYMR90~1\AppData\Local\Temp\ccLPYcmd.s:22163  .debug_str:00000000000086d6 .LASF906
C:\Users\CYMR90~1\AppData\Local\Temp\ccLPYcmd.s:27322  .debug_str:000000000001d0d1 .LASF907
C:\Users\CYMR90~1\AppData\Local\Temp\ccLPYcmd.s:23675  .debug_str:000000000000e7f2 .LASF908
C:\Users\CYMR90~1\AppData\Local\Temp\ccLPYcmd.s:30054  .debug_str:0000000000027b92 .LASF909
C:\Users\CYMR90~1\AppData\Local\Temp\ccLPYcmd.s:24293  .debug_str:0000000000010e0d .LASF910
C:\Users\CYMR90~1\AppData\Local\Temp\ccLPYcmd.s:20747  .debug_str:0000000000002c21 .LASF911
C:\Users\CYMR90~1\AppData\Local\Temp\ccLPYcmd.s:20333  .debug_str:0000000000001272 .LASF912
C:\Users\CYMR90~1\AppData\Local\Temp\ccLPYcmd.s:28444  .debug_str:00000000000215b6 .LASF913
C:\Users\CYMR90~1\AppData\Local\Temp\ccLPYcmd.s:29346  .debug_str:0000000000024d0f .LASF914
C:\Users\CYMR90~1\AppData\Local\Temp\ccLPYcmd.s:23223  .debug_str:000000000000cb94 .LASF915
C:\Users\CYMR90~1\AppData\Local\Temp\ccLPYcmd.s:23539  .debug_str:000000000000df82 .LASF916
C:\Users\CYMR90~1\AppData\Local\Temp\ccLPYcmd.s:24101  .debug_str:00000000000101f4 .LASF917
C:\Users\CYMR90~1\AppData\Local\Temp\ccLPYcmd.s:30874  .debug_str:000000000002af93 .LASF918
C:\Users\CYMR90~1\AppData\Local\Temp\ccLPYcmd.s:20319  .debug_str:0000000000001193 .LASF919
C:\Users\CYMR90~1\AppData\Local\Temp\ccLPYcmd.s:22823  .debug_str:000000000000b155 .LASF920
C:\Users\CYMR90~1\AppData\Local\Temp\ccLPYcmd.s:29296  .debug_str:000000000002499d .LASF921
C:\Users\CYMR90~1\AppData\Local\Temp\ccLPYcmd.s:26672  .debug_str:000000000001a63b .LASF922
C:\Users\CYMR90~1\AppData\Local\Temp\ccLPYcmd.s:29820  .debug_str:0000000000026cac .LASF923
C:\Users\CYMR90~1\AppData\Local\Temp\ccLPYcmd.s:25806  .debug_str:0000000000016ee7 .LASF924
C:\Users\CYMR90~1\AppData\Local\Temp\ccLPYcmd.s:20707  .debug_str:000000000000297c .LASF925
C:\Users\CYMR90~1\AppData\Local\Temp\ccLPYcmd.s:26890  .debug_str:000000000001b4b0 .LASF926
C:\Users\CYMR90~1\AppData\Local\Temp\ccLPYcmd.s:20431  .debug_str:00000000000018ce .LASF927
C:\Users\CYMR90~1\AppData\Local\Temp\ccLPYcmd.s:25261  .debug_str:0000000000014b2f .LASF928
C:\Users\CYMR90~1\AppData\Local\Temp\ccLPYcmd.s:27970  .debug_str:000000000001f88d .LASF929
C:\Users\CYMR90~1\AppData\Local\Temp\ccLPYcmd.s:31140  .debug_str:000000000002c050 .LASF930
C:\Users\CYMR90~1\AppData\Local\Temp\ccLPYcmd.s:31356  .debug_str:000000000002cee4 .LASF931
C:\Users\CYMR90~1\AppData\Local\Temp\ccLPYcmd.s:27868  .debug_str:000000000001f2a0 .LASF932
C:\Users\CYMR90~1\AppData\Local\Temp\ccLPYcmd.s:30604  .debug_str:0000000000029f84 .LASF933
C:\Users\CYMR90~1\AppData\Local\Temp\ccLPYcmd.s:25603  .debug_str:0000000000015fc2 .LASF934
C:\Users\CYMR90~1\AppData\Local\Temp\ccLPYcmd.s:26446  .debug_str:0000000000019682 .LASF935
C:\Users\CYMR90~1\AppData\Local\Temp\ccLPYcmd.s:25483  .debug_str:00000000000157f0 .LASF936
C:\Users\CYMR90~1\AppData\Local\Temp\ccLPYcmd.s:29434  .debug_str:00000000000252ff .LASF937
C:\Users\CYMR90~1\AppData\Local\Temp\ccLPYcmd.s:20233  .debug_str:0000000000000c37 .LASF938
C:\Users\CYMR90~1\AppData\Local\Temp\ccLPYcmd.s:28248  .debug_str:00000000000209c7 .LASF939
C:\Users\CYMR90~1\AppData\Local\Temp\ccLPYcmd.s:29522  .debug_str:00000000000259bc .LASF940
C:\Users\CYMR90~1\AppData\Local\Temp\ccLPYcmd.s:22961  .debug_str:000000000000ba2a .LASF941
C:\Users\CYMR90~1\AppData\Local\Temp\ccLPYcmd.s:26660  .debug_str:000000000001a582 .LASF942
C:\Users\CYMR90~1\AppData\Local\Temp\ccLPYcmd.s:23719  .debug_str:000000000000ea78 .LASF943
C:\Users\CYMR90~1\AppData\Local\Temp\ccLPYcmd.s:29644  .debug_str:00000000000261e6 .LASF944
C:\Users\CYMR90~1\AppData\Local\Temp\ccLPYcmd.s:27078  .debug_str:000000000001c076 .LASF945
C:\Users\CYMR90~1\AppData\Local\Temp\ccLPYcmd.s:23919  .debug_str:000000000000f632 .LASF946
C:\Users\CYMR90~1\AppData\Local\Temp\ccLPYcmd.s:25958  .debug_str:0000000000017785 .LASF947
C:\Users\CYMR90~1\AppData\Local\Temp\ccLPYcmd.s:27600  .debug_str:000000000001e274 .LASF948
C:\Users\CYMR90~1\AppData\Local\Temp\ccLPYcmd.s:24269  .debug_str:0000000000010c4b .LASF949
C:\Users\CYMR90~1\AppData\Local\Temp\ccLPYcmd.s:23285  .debug_str:000000000000cf49 .LASF950
C:\Users\CYMR90~1\AppData\Local\Temp\ccLPYcmd.s:21865  .debug_str:0000000000007272 .LASF952
C:\Users\CYMR90~1\AppData\Local\Temp\ccLPYcmd.s:25407  .debug_str:00000000000153b0 .LASF953
C:\Users\CYMR90~1\AppData\Local\Temp\ccLPYcmd.s:23321  .debug_str:000000000000d1aa .LASF954
C:\Users\CYMR90~1\AppData\Local\Temp\ccLPYcmd.s:31348  .debug_str:000000000002ce6f .LASF955
C:\Users\CYMR90~1\AppData\Local\Temp\ccLPYcmd.s:30498  .debug_str:0000000000029921 .LASF956
C:\Users\CYMR90~1\AppData\Local\Temp\ccLPYcmd.s:30588  .debug_str:0000000000029ea1 .LASF960
C:\Users\CYMR90~1\AppData\Local\Temp\ccLPYcmd.s:22419  .debug_str:0000000000009693 .LASF961
C:\Users\CYMR90~1\AppData\Local\Temp\ccLPYcmd.s:29848  .debug_str:0000000000026e66 .LASF962
C:\Users\CYMR90~1\AppData\Local\Temp\ccLPYcmd.s:24507  .debug_str:0000000000011bb2 .LASF963
C:\Users\CYMR90~1\AppData\Local\Temp\ccLPYcmd.s:24983  .debug_str:0000000000013a61 .LASF964
C:\Users\CYMR90~1\AppData\Local\Temp\ccLPYcmd.s:28630  .debug_str:0000000000022119 .LASF965
C:\Users\CYMR90~1\AppData\Local\Temp\ccLPYcmd.s:26884  .debug_str:000000000001b444 .LASF966
C:\Users\CYMR90~1\AppData\Local\Temp\ccLPYcmd.s:22025  .debug_str:0000000000007cf6 .LASF967
C:\Users\CYMR90~1\AppData\Local\Temp\ccLPYcmd.s:30922  .debug_str:000000000002b271 .LASF968
C:\Users\CYMR90~1\AppData\Local\Temp\ccLPYcmd.s:21619  .debug_str:000000000000631a .LASF969
C:\Users\CYMR90~1\AppData\Local\Temp\ccLPYcmd.s:25123  .debug_str:00000000000142f1 .LASF970
C:\Users\CYMR90~1\AppData\Local\Temp\ccLPYcmd.s:31014  .debug_str:000000000002b829 .LASF971
C:\Users\CYMR90~1\AppData\Local\Temp\ccLPYcmd.s:23729  .debug_str:000000000000eb44 .LASF972
C:\Users\CYMR90~1\AppData\Local\Temp\ccLPYcmd.s:23697  .debug_str:000000000000e951 .LASF973
C:\Users\CYMR90~1\AppData\Local\Temp\ccLPYcmd.s:23345  .debug_str:000000000000d323 .LASF974
C:\Users\CYMR90~1\AppData\Local\Temp\ccLPYcmd.s:25739  .debug_str:0000000000016839 .LASF975
C:\Users\CYMR90~1\AppData\Local\Temp\ccLPYcmd.s:31380  .debug_str:000000000002d015 .LASF976
C:\Users\CYMR90~1\AppData\Local\Temp\ccLPYcmd.s:23279  .debug_str:000000000000cede .LASF977
C:\Users\CYMR90~1\AppData\Local\Temp\ccLPYcmd.s:31402  .debug_str:000000000002d228 .LASF978
C:\Users\CYMR90~1\AppData\Local\Temp\ccLPYcmd.s:29626  .debug_str:00000000000260bf .LASF979
C:\Users\CYMR90~1\AppData\Local\Temp\ccLPYcmd.s:29686  .debug_str:000000000002646c .LASF980
C:\Users\CYMR90~1\AppData\Local\Temp\ccLPYcmd.s:23783  .debug_str:000000000000ee37 .LASF981
C:\Users\CYMR90~1\AppData\Local\Temp\ccLPYcmd.s:30072  .debug_str:0000000000027cc6 .LASF982
C:\Users\CYMR90~1\AppData\Local\Temp\ccLPYcmd.s:24531  .debug_str:0000000000011d29 .LASF983
C:\Users\CYMR90~1\AppData\Local\Temp\ccLPYcmd.s:22289  .debug_str:0000000000008ec8 .LASF984
C:\Users\CYMR90~1\AppData\Local\Temp\ccLPYcmd.s:27318  .debug_str:000000000001d00a .LASF985
C:\Users\CYMR90~1\AppData\Local\Temp\ccLPYcmd.s:28922  .debug_str:0000000000023270 .LASF986
C:\Users\CYMR90~1\AppData\Local\Temp\ccLPYcmd.s:25549  .debug_str:0000000000015bf4 .LASF987
C:\Users\CYMR90~1\AppData\Local\Temp\ccLPYcmd.s:20765  .debug_str:0000000000002d34 .LASF988
C:\Users\CYMR90~1\AppData\Local\Temp\ccLPYcmd.s:28834  .debug_str:0000000000022d85 .LASF989
C:\Users\CYMR90~1\AppData\Local\Temp\ccLPYcmd.s:26264  .debug_str:0000000000018a04 .LASF990
C:\Users\CYMR90~1\AppData\Local\Temp\ccLPYcmd.s:23275  .debug_str:000000000000ceb6 .LASF991
C:\Users\CYMR90~1\AppData\Local\Temp\ccLPYcmd.s:29792  .debug_str:0000000000026b10 .LASF992
C:\Users\CYMR90~1\AppData\Local\Temp\ccLPYcmd.s:21911  .debug_str:000000000000758b .LASF993
C:\Users\CYMR90~1\AppData\Local\Temp\ccLPYcmd.s:29606  .debug_str:0000000000025f47 .LASF994
C:\Users\CYMR90~1\AppData\Local\Temp\ccLPYcmd.s:26348  .debug_str:00000000000190b7 .LASF995
C:\Users\CYMR90~1\AppData\Local\Temp\ccLPYcmd.s:30404  .debug_str:000000000002930a .LASF996
C:\Users\CYMR90~1\AppData\Local\Temp\ccLPYcmd.s:27506  .debug_str:000000000001dc14 .LASF997
C:\Users\CYMR90~1\AppData\Local\Temp\ccLPYcmd.s:27580  .debug_str:000000000001e132 .LASF998
C:\Users\CYMR90~1\AppData\Local\Temp\ccLPYcmd.s:20665  .debug_str:000000000000266f .LASF999
C:\Users\CYMR90~1\AppData\Local\Temp\ccLPYcmd.s:21001  .debug_str:0000000000003c51 .LASF1000
C:\Users\CYMR90~1\AppData\Local\Temp\ccLPYcmd.s:29272  .debug_str:0000000000024832 .LASF1001
C:\Users\CYMR90~1\AppData\Local\Temp\ccLPYcmd.s:24109  .debug_str:000000000001029b .LASF1002
C:\Users\CYMR90~1\AppData\Local\Temp\ccLPYcmd.s:21283  .debug_str:0000000000004f5d .LASF1003
C:\Users\CYMR90~1\AppData\Local\Temp\ccLPYcmd.s:27120  .debug_str:000000000001c2ed .LASF1004
C:\Users\CYMR90~1\AppData\Local\Temp\ccLPYcmd.s:24485  .debug_str:00000000000119ec .LASF1005
C:\Users\CYMR90~1\AppData\Local\Temp\ccLPYcmd.s:23239  .debug_str:000000000000ccb7 .LASF1006
C:\Users\CYMR90~1\AppData\Local\Temp\ccLPYcmd.s:21593  .debug_str:0000000000006183 .LASF1007
C:\Users\CYMR90~1\AppData\Local\Temp\ccLPYcmd.s:28626  .debug_str:00000000000220e1 .LASF1008
C:\Users\CYMR90~1\AppData\Local\Temp\ccLPYcmd.s:26038  .debug_str:0000000000017c81 .LASF1009
C:\Users\CYMR90~1\AppData\Local\Temp\ccLPYcmd.s:26196  .debug_str:00000000000185be .LASF1010
C:\Users\CYMR90~1\AppData\Local\Temp\ccLPYcmd.s:23555  .debug_str:000000000000e091 .LASF1011
C:\Users\CYMR90~1\AppData\Local\Temp\ccLPYcmd.s:27362  .debug_str:000000000001d345 .LASF1012
C:\Users\CYMR90~1\AppData\Local\Temp\ccLPYcmd.s:23745  .debug_str:000000000000ec37 .LASF1013
C:\Users\CYMR90~1\AppData\Local\Temp\ccLPYcmd.s:26464  .debug_str:0000000000019806 .LASF1014
C:\Users\CYMR90~1\AppData\Local\Temp\ccLPYcmd.s:20999  .debug_str:0000000000003c3b .LASF1015
C:\Users\CYMR90~1\AppData\Local\Temp\ccLPYcmd.s:21483  .debug_str:0000000000005b17 .LASF1016
C:\Users\CYMR90~1\AppData\Local\Temp\ccLPYcmd.s:21435  .debug_str:000000000000586f .LASF1017
C:\Users\CYMR90~1\AppData\Local\Temp\ccLPYcmd.s:29944  .debug_str:000000000002746b .LASF1018
C:\Users\CYMR90~1\AppData\Local\Temp\ccLPYcmd.s:23793  .debug_str:000000000000eeb9 .LASF1019
C:\Users\CYMR90~1\AppData\Local\Temp\ccLPYcmd.s:20659  .debug_str:0000000000002626 .LASF1020
C:\Users\CYMR90~1\AppData\Local\Temp\ccLPYcmd.s:26076  .debug_str:0000000000017ed1 .LASF1021
C:\Users\CYMR90~1\AppData\Local\Temp\ccLPYcmd.s:23093  .debug_str:000000000000c31d .LASF1022
C:\Users\CYMR90~1\AppData\Local\Temp\ccLPYcmd.s:29868  .debug_str:0000000000026f81 .LASF1023
C:\Users\CYMR90~1\AppData\Local\Temp\ccLPYcmd.s:22327  .debug_str:00000000000090f3 .LASF1024
C:\Users\CYMR90~1\AppData\Local\Temp\ccLPYcmd.s:24809  .debug_str:0000000000012f32 .LASF1025
C:\Users\CYMR90~1\AppData\Local\Temp\ccLPYcmd.s:24297  .debug_str:0000000000010e4e .LASF1026
C:\Users\CYMR90~1\AppData\Local\Temp\ccLPYcmd.s:25253  .debug_str:0000000000014a7b .LASF1027
C:\Users\CYMR90~1\AppData\Local\Temp\ccLPYcmd.s:27442  .debug_str:000000000001d830 .LASF1028
C:\Users\CYMR90~1\AppData\Local\Temp\ccLPYcmd.s:27826  .debug_str:000000000001effa .LASF1029
C:\Users\CYMR90~1\AppData\Local\Temp\ccLPYcmd.s:29142  .debug_str:0000000000023f33 .LASF1030
C:\Users\CYMR90~1\AppData\Local\Temp\ccLPYcmd.s:28202  .debug_str:000000000002072b .LASF1031
C:\Users\CYMR90~1\AppData\Local\Temp\ccLPYcmd.s:30500  .debug_str:0000000000029989 .LASF1032
C:\Users\CYMR90~1\AppData\Local\Temp\ccLPYcmd.s:22473  .debug_str:00000000000099fd .LASF1033
C:\Users\CYMR90~1\AppData\Local\Temp\ccLPYcmd.s:21337  .debug_str:0000000000005295 .LASF1034
C:\Users\CYMR90~1\AppData\Local\Temp\ccLPYcmd.s:26392  .debug_str:000000000001934c .LASF1035
C:\Users\CYMR90~1\AppData\Local\Temp\ccLPYcmd.s:26652  .debug_str:000000000001a51d .LASF1036
C:\Users\CYMR90~1\AppData\Local\Temp\ccLPYcmd.s:28936  .debug_str:0000000000023310 .LASF1037
C:\Users\CYMR90~1\AppData\Local\Temp\ccLPYcmd.s:23961  .debug_str:000000000000f981 .LASF1038
C:\Users\CYMR90~1\AppData\Local\Temp\ccLPYcmd.s:27550  .debug_str:000000000001df61 .LASF1039
C:\Users\CYMR90~1\AppData\Local\Temp\ccLPYcmd.s:25421  .debug_str:00000000000154a8 .LASF1040
C:\Users\CYMR90~1\AppData\Local\Temp\ccLPYcmd.s:23867  .debug_str:000000000000f30f .LASF1041
C:\Users\CYMR90~1\AppData\Local\Temp\ccLPYcmd.s:29676  .debug_str:00000000000263de .LASF1042
C:\Users\CYMR90~1\AppData\Local\Temp\ccLPYcmd.s:24111  .debug_str:00000000000102b2 .LASF1043
C:\Users\CYMR90~1\AppData\Local\Temp\ccLPYcmd.s:20061  .debug_str:00000000000001d6 .LASF1044
C:\Users\CYMR90~1\AppData\Local\Temp\ccLPYcmd.s:22339  .debug_str:0000000000009174 .LASF1045
C:\Users\CYMR90~1\AppData\Local\Temp\ccLPYcmd.s:26584  .debug_str:0000000000019fa8 .LASF1046
C:\Users\CYMR90~1\AppData\Local\Temp\ccLPYcmd.s:25673  .debug_str:00000000000163c3 .LASF1047
C:\Users\CYMR90~1\AppData\Local\Temp\ccLPYcmd.s:28982  .debug_str:00000000000235a5 .LASF1048
C:\Users\CYMR90~1\AppData\Local\Temp\ccLPYcmd.s:27794  .debug_str:000000000001eddb .LASF1049
C:\Users\CYMR90~1\AppData\Local\Temp\ccLPYcmd.s:20843  .debug_str:000000000000323f .LASF1050
C:\Users\CYMR90~1\AppData\Local\Temp\ccLPYcmd.s:27802  .debug_str:000000000001ee53 .LASF1051
C:\Users\CYMR90~1\AppData\Local\Temp\ccLPYcmd.s:28006  .debug_str:000000000001fae8 .LASF1052
C:\Users\CYMR90~1\AppData\Local\Temp\ccLPYcmd.s:22835  .debug_str:000000000000b22e .LASF1053
C:\Users\CYMR90~1\AppData\Local\Temp\ccLPYcmd.s:28878  .debug_str:0000000000022fff .LASF1054
C:\Users\CYMR90~1\AppData\Local\Temp\ccLPYcmd.s:24785  .debug_str:0000000000012d98 .LASF1055
C:\Users\CYMR90~1\AppData\Local\Temp\ccLPYcmd.s:23725  .debug_str:000000000000eaf2 .LASF1056
C:\Users\CYMR90~1\AppData\Local\Temp\ccLPYcmd.s:30118  .debug_str:000000000002802f .LASF1057
C:\Users\CYMR90~1\AppData\Local\Temp\ccLPYcmd.s:30716  .debug_str:000000000002a5f3 .LASF1058
C:\Users\CYMR90~1\AppData\Local\Temp\ccLPYcmd.s:29432  .debug_str:00000000000252dd .LASF1059
C:\Users\CYMR90~1\AppData\Local\Temp\ccLPYcmd.s:29012  .debug_str:0000000000023794 .LASF1060
C:\Users\CYMR90~1\AppData\Local\Temp\ccLPYcmd.s:22145  .debug_str:00000000000085d3 .LASF1061
C:\Users\CYMR90~1\AppData\Local\Temp\ccLPYcmd.s:20199  .debug_str:00000000000009da .LASF1062
C:\Users\CYMR90~1\AppData\Local\Temp\ccLPYcmd.s:25161  .debug_str:00000000000144f9 .LASF1063
C:\Users\CYMR90~1\AppData\Local\Temp\ccLPYcmd.s:21047  .debug_str:0000000000003f2a .LASF1064
C:\Users\CYMR90~1\AppData\Local\Temp\ccLPYcmd.s:20137  .debug_str:000000000000063c .LASF1065
C:\Users\CYMR90~1\AppData\Local\Temp\ccLPYcmd.s:31408  .debug_str:000000000002d271 .LASF1066
C:\Users\CYMR90~1\AppData\Local\Temp\ccLPYcmd.s:29274  .debug_str:000000000002484a .LASF1067
C:\Users\CYMR90~1\AppData\Local\Temp\ccLPYcmd.s:25737  .debug_str:000000000001681f .LASF1068
C:\Users\CYMR90~1\AppData\Local\Temp\ccLPYcmd.s:27334  .debug_str:000000000001d18a .LASF1069
C:\Users\CYMR90~1\AppData\Local\Temp\ccLPYcmd.s:20251  .debug_str:0000000000000d29 .LASF1070
C:\Users\CYMR90~1\AppData\Local\Temp\ccLPYcmd.s:22603  .debug_str:000000000000a1f7 .LASF1071
C:\Users\CYMR90~1\AppData\Local\Temp\ccLPYcmd.s:28784  .debug_str:0000000000022a23 .LASF1072
C:\Users\CYMR90~1\AppData\Local\Temp\ccLPYcmd.s:27300  .debug_str:000000000001cee3 .LASF1073
C:\Users\CYMR90~1\AppData\Local\Temp\ccLPYcmd.s:30368  .debug_str:00000000000290da .LASF1074
C:\Users\CYMR90~1\AppData\Local\Temp\ccLPYcmd.s:25884  .debug_str:0000000000017359 .LASF1075
C:\Users\CYMR90~1\AppData\Local\Temp\ccLPYcmd.s:20701  .debug_str:000000000000292c .LASF1076
C:\Users\CYMR90~1\AppData\Local\Temp\ccLPYcmd.s:30806  .debug_str:000000000002abc6 .LASF1077
C:\Users\CYMR90~1\AppData\Local\Temp\ccLPYcmd.s:21655  .debug_str:0000000000006553 .LASF1078
C:\Users\CYMR90~1\AppData\Local\Temp\ccLPYcmd.s:28246  .debug_str:00000000000209b5 .LASF1079
C:\Users\CYMR90~1\AppData\Local\Temp\ccLPYcmd.s:28336  .debug_str:0000000000020ef0 .LASF1080
C:\Users\CYMR90~1\AppData\Local\Temp\ccLPYcmd.s:27100  .debug_str:000000000001c1cd .LASF1081
C:\Users\CYMR90~1\AppData\Local\Temp\ccLPYcmd.s:29974  .debug_str:00000000000276fb .LASF1082
C:\Users\CYMR90~1\AppData\Local\Temp\ccLPYcmd.s:25363  .debug_str:000000000001515f .LASF1083
C:\Users\CYMR90~1\AppData\Local\Temp\ccLPYcmd.s:28468  .debug_str:000000000002173e .LASF1084
C:\Users\CYMR90~1\AppData\Local\Temp\ccLPYcmd.s:21359  .debug_str:00000000000053e6 .LASF1085
C:\Users\CYMR90~1\AppData\Local\Temp\ccLPYcmd.s:20465  .debug_str:0000000000001af2 .LASF1086
C:\Users\CYMR90~1\AppData\Local\Temp\ccLPYcmd.s:23601  .debug_str:000000000000e341 .LASF1087
C:\Users\CYMR90~1\AppData\Local\Temp\ccLPYcmd.s:29684  .debug_str:000000000002645d .LASF1088
C:\Users\CYMR90~1\AppData\Local\Temp\ccLPYcmd.s:28778  .debug_str:00000000000229dc .LASF1089
C:\Users\CYMR90~1\AppData\Local\Temp\ccLPYcmd.s:20313  .debug_str:0000000000001137 .LASF1090
C:\Users\CYMR90~1\AppData\Local\Temp\ccLPYcmd.s:31344  .debug_str:000000000002ce17 .LASF1091
C:\Users\CYMR90~1\AppData\Local\Temp\ccLPYcmd.s:30078  .debug_str:0000000000027d72 .LASF1092
C:\Users\CYMR90~1\AppData\Local\Temp\ccLPYcmd.s:23939  .debug_str:000000000000f751 .LASF1093
C:\Users\CYMR90~1\AppData\Local\Temp\ccLPYcmd.s:29728  .debug_str:00000000000266d1 .LASF1094
C:\Users\CYMR90~1\AppData\Local\Temp\ccLPYcmd.s:25437  .debug_str:0000000000015553 .LASF1095
C:\Users\CYMR90~1\AppData\Local\Temp\ccLPYcmd.s:26908  .debug_str:000000000001b5c0 .LASF1096
C:\Users\CYMR90~1\AppData\Local\Temp\ccLPYcmd.s:27446  .debug_str:000000000001d882 .LASF1097
C:\Users\CYMR90~1\AppData\Local\Temp\ccLPYcmd.s:21643  .debug_str:00000000000064ae .LASF1098
C:\Users\CYMR90~1\AppData\Local\Temp\ccLPYcmd.s:24805  .debug_str:0000000000012ecf .LASF1099
C:\Users\CYMR90~1\AppData\Local\Temp\ccLPYcmd.s:24105  .debug_str:000000000001024b .LASF1100
C:\Users\CYMR90~1\AppData\Local\Temp\ccLPYcmd.s:29056  .debug_str:0000000000023a6a .LASF1101
C:\Users\CYMR90~1\AppData\Local\Temp\ccLPYcmd.s:23291  .debug_str:000000000000cfa3 .LASF1102
C:\Users\CYMR90~1\AppData\Local\Temp\ccLPYcmd.s:28720  .debug_str:000000000002262f .LASF1103
C:\Users\CYMR90~1\AppData\Local\Temp\ccLPYcmd.s:30316  .debug_str:0000000000028dec .LASF1104
C:\Users\CYMR90~1\AppData\Local\Temp\ccLPYcmd.s:28132  .debug_str:000000000002026f .LASF1105
C:\Users\CYMR90~1\AppData\Local\Temp\ccLPYcmd.s:24987  .debug_str:0000000000013a7b .LASF1106
C:\Users\CYMR90~1\AppData\Local\Temp\ccLPYcmd.s:28978  .debug_str:000000000002356f .LASF1107
C:\Users\CYMR90~1\AppData\Local\Temp\ccLPYcmd.s:26816  .debug_str:000000000001b002 .LASF1108
C:\Users\CYMR90~1\AppData\Local\Temp\ccLPYcmd.s:21659  .debug_str:000000000000658f .LASF1109
C:\Users\CYMR90~1\AppData\Local\Temp\ccLPYcmd.s:22633  .debug_str:000000000000a3cd .LASF1110
C:\Users\CYMR90~1\AppData\Local\Temp\ccLPYcmd.s:20529  .debug_str:0000000000001ec2 .LASF1111
C:\Users\CYMR90~1\AppData\Local\Temp\ccLPYcmd.s:21745  .debug_str:0000000000006aea .LASF1112
C:\Users\CYMR90~1\AppData\Local\Temp\ccLPYcmd.s:22859  .debug_str:000000000000b36b .LASF1113
C:\Users\CYMR90~1\AppData\Local\Temp\ccLPYcmd.s:21403  .debug_str:0000000000005682 .LASF1114
C:\Users\CYMR90~1\AppData\Local\Temp\ccLPYcmd.s:22423  .debug_str:00000000000096b1 .LASF1115
C:\Users\CYMR90~1\AppData\Local\Temp\ccLPYcmd.s:30160  .debug_str:000000000002830e .LASF1116
C:\Users\CYMR90~1\AppData\Local\Temp\ccLPYcmd.s:30668  .debug_str:000000000002a327 .LASF1117
C:\Users\CYMR90~1\AppData\Local\Temp\ccLPYcmd.s:20865  .debug_str:000000000000338d .LASF1118
C:\Users\CYMR90~1\AppData\Local\Temp\ccLPYcmd.s:26054  .debug_str:0000000000017d7d .LASF1119
C:\Users\CYMR90~1\AppData\Local\Temp\ccLPYcmd.s:22113  .debug_str:00000000000083c0 .LASF1120
C:\Users\CYMR90~1\AppData\Local\Temp\ccLPYcmd.s:22321  .debug_str:0000000000009092 .LASF1121
C:\Users\CYMR90~1\AppData\Local\Temp\ccLPYcmd.s:24915  .debug_str:0000000000013652 .LASF1122
C:\Users\CYMR90~1\AppData\Local\Temp\ccLPYcmd.s:24557  .debug_str:0000000000011ea5 .LASF1123
C:\Users\CYMR90~1\AppData\Local\Temp\ccLPYcmd.s:23579  .debug_str:000000000000e1ec .LASF1124
C:\Users\CYMR90~1\AppData\Local\Temp\ccLPYcmd.s:25367  .debug_str:0000000000015188 .LASF1125
C:\Users\CYMR90~1\AppData\Local\Temp\ccLPYcmd.s:25457  .debug_str:000000000001568c .LASF1126
C:\Users\CYMR90~1\AppData\Local\Temp\ccLPYcmd.s:28868  .debug_str:0000000000022f61 .LASF1127
C:\Users\CYMR90~1\AppData\Local\Temp\ccLPYcmd.s:29972  .debug_str:00000000000276e6 .LASF1128
C:\Users\CYMR90~1\AppData\Local\Temp\ccLPYcmd.s:21449  .debug_str:0000000000005939 .LASF1129
C:\Users\CYMR90~1\AppData\Local\Temp\ccLPYcmd.s:25455  .debug_str:0000000000015677 .LASF1130
C:\Users\CYMR90~1\AppData\Local\Temp\ccLPYcmd.s:30496  .debug_str:000000000002990c .LASF1131
C:\Users\CYMR90~1\AppData\Local\Temp\ccLPYcmd.s:30910  .debug_str:000000000002b1d7 .LASF1132
C:\Users\CYMR90~1\AppData\Local\Temp\ccLPYcmd.s:26164  .debug_str:00000000000183d3 .LASF1133
C:\Users\CYMR90~1\AppData\Local\Temp\ccLPYcmd.s:29028  .debug_str:0000000000023878 .LASF1134
C:\Users\CYMR90~1\AppData\Local\Temp\ccLPYcmd.s:21999  .debug_str:0000000000007b78 .LASF1135
C:\Users\CYMR90~1\AppData\Local\Temp\ccLPYcmd.s:21227  .debug_str:0000000000004bdd .LASF1136
C:\Users\CYMR90~1\AppData\Local\Temp\ccLPYcmd.s:21051  .debug_str:0000000000003f4c .LASF1137
C:\Users\CYMR90~1\AppData\Local\Temp\ccLPYcmd.s:30506  .debug_str:00000000000299e8 .LASF1138
C:\Users\CYMR90~1\AppData\Local\Temp\ccLPYcmd.s:27584  .debug_str:000000000001e16b .LASF1139
C:\Users\CYMR90~1\AppData\Local\Temp\ccLPYcmd.s:30492  .debug_str:00000000000298df .LASF1140
C:\Users\CYMR90~1\AppData\Local\Temp\ccLPYcmd.s:20109  .debug_str:00000000000004c0 .LASF1141
C:\Users\CYMR90~1\AppData\Local\Temp\ccLPYcmd.s:24589  .debug_str:00000000000120c4 .LASF1142
C:\Users\CYMR90~1\AppData\Local\Temp\ccLPYcmd.s:23607  .debug_str:000000000000e3b4 .LASF1143
C:\Users\CYMR90~1\AppData\Local\Temp\ccLPYcmd.s:30026  .debug_str:00000000000279dc .LASF1144
C:\Users\CYMR90~1\AppData\Local\Temp\ccLPYcmd.s:28180  .debug_str:0000000000020563 .LASF1145
C:\Users\CYMR90~1\AppData\Local\Temp\ccLPYcmd.s:23129  .debug_str:000000000000c533 .LASF1146
C:\Users\CYMR90~1\AppData\Local\Temp\ccLPYcmd.s:31340  .debug_str:000000000002cdd5 .LASF1147
C:\Users\CYMR90~1\AppData\Local\Temp\ccLPYcmd.s:25908  .debug_str:000000000001749a .LASF1148
C:\Users\CYMR90~1\AppData\Local\Temp\ccLPYcmd.s:26174  .debug_str:0000000000018493 .LASF1149
C:\Users\CYMR90~1\AppData\Local\Temp\ccLPYcmd.s:26928  .debug_str:000000000001b6f2 .LASF1150
C:\Users\CYMR90~1\AppData\Local\Temp\ccLPYcmd.s:20531  .debug_str:0000000000001ee0 .LASF1151
C:\Users\CYMR90~1\AppData\Local\Temp\ccLPYcmd.s:27352  .debug_str:000000000001d2b0 .LASF1152
C:\Users\CYMR90~1\AppData\Local\Temp\ccLPYcmd.s:22447  .debug_str:00000000000097f0 .LASF1153
C:\Users\CYMR90~1\AppData\Local\Temp\ccLPYcmd.s:28482  .debug_str:00000000000217f0 .LASF1154
C:\Users\CYMR90~1\AppData\Local\Temp\ccLPYcmd.s:31128  .debug_str:000000000002bf8e .LASF1155
C:\Users\CYMR90~1\AppData\Local\Temp\ccLPYcmd.s:21341  .debug_str:00000000000052c1 .LASF1156
C:\Users\CYMR90~1\AppData\Local\Temp\ccLPYcmd.s:27544  .debug_str:000000000001dee6 .LASF1157
C:\Users\CYMR90~1\AppData\Local\Temp\ccLPYcmd.s:22877  .debug_str:000000000000b45b .LASF1158
C:\Users\CYMR90~1\AppData\Local\Temp\ccLPYcmd.s:30684  .debug_str:000000000002a463 .LASF1159
C:\Users\CYMR90~1\AppData\Local\Temp\ccLPYcmd.s:20417  .debug_str:0000000000001765 .LASF1160
C:\Users\CYMR90~1\AppData\Local\Temp\ccLPYcmd.s:30768  .debug_str:000000000002a96b .LASF1161
C:\Users\CYMR90~1\AppData\Local\Temp\ccLPYcmd.s:30446  .debug_str:000000000002958e .LASF1162
C:\Users\CYMR90~1\AppData\Local\Temp\ccLPYcmd.s:27432  .debug_str:000000000001d7ab .LASF1163
C:\Users\CYMR90~1\AppData\Local\Temp\ccLPYcmd.s:26552  .debug_str:0000000000019dbf .LASF1164
C:\Users\CYMR90~1\AppData\Local\Temp\ccLPYcmd.s:23427  .debug_str:000000000000d900 .LASF1165
C:\Users\CYMR90~1\AppData\Local\Temp\ccLPYcmd.s:28102  .debug_str:00000000000200d0 .LASF1166
C:\Users\CYMR90~1\AppData\Local\Temp\ccLPYcmd.s:24305  .debug_str:0000000000010eb7 .LASF1167
C:\Users\CYMR90~1\AppData\Local\Temp\ccLPYcmd.s:22445  .debug_str:00000000000097e6 .LASF1168
C:\Users\CYMR90~1\AppData\Local\Temp\ccLPYcmd.s:25399  .debug_str:0000000000015351 .LASF1169
C:\Users\CYMR90~1\AppData\Local\Temp\ccLPYcmd.s:26760  .debug_str:000000000001ac21 .LASF1170
C:\Users\CYMR90~1\AppData\Local\Temp\ccLPYcmd.s:26466  .debug_str:000000000001981d .LASF1171
C:\Users\CYMR90~1\AppData\Local\Temp\ccLPYcmd.s:30710  .debug_str:000000000002a5c1 .LASF1172
C:\Users\CYMR90~1\AppData\Local\Temp\ccLPYcmd.s:25683  .debug_str:000000000001644c .LASF1173
C:\Users\CYMR90~1\AppData\Local\Temp\ccLPYcmd.s:20231  .debug_str:0000000000000c29 .LASF1174
C:\Users\CYMR90~1\AppData\Local\Temp\ccLPYcmd.s:20639  .debug_str:00000000000024dd .LASF1175
C:\Users\CYMR90~1\AppData\Local\Temp\ccLPYcmd.s:24887  .debug_str:00000000000134a0 .LASF1176
C:\Users\CYMR90~1\AppData\Local\Temp\ccLPYcmd.s:23235  .debug_str:000000000000cc87 .LASF1177
C:\Users\CYMR90~1\AppData\Local\Temp\ccLPYcmd.s:27492  .debug_str:000000000001db65 .LASF1178
C:\Users\CYMR90~1\AppData\Local\Temp\ccLPYcmd.s:23835  .debug_str:000000000000f103 .LASF1179
C:\Users\CYMR90~1\AppData\Local\Temp\ccLPYcmd.s:23413  .debug_str:000000000000d848 .LASF1180
C:\Users\CYMR90~1\AppData\Local\Temp\ccLPYcmd.s:29234  .debug_str:00000000000245e4 .LASF1181
C:\Users\CYMR90~1\AppData\Local\Temp\ccLPYcmd.s:22259  .debug_str:0000000000008cd3 .LASF1182
C:\Users\CYMR90~1\AppData\Local\Temp\ccLPYcmd.s:20805  .debug_str:0000000000002fbd .LASF1183
C:\Users\CYMR90~1\AppData\Local\Temp\ccLPYcmd.s:27814  .debug_str:000000000001ef0e .LASF1184
C:\Users\CYMR90~1\AppData\Local\Temp\ccLPYcmd.s:28278  .debug_str:0000000000020b53 .LASF1185
C:\Users\CYMR90~1\AppData\Local\Temp\ccLPYcmd.s:29474  .debug_str:0000000000025641 .LASF1186
C:\Users\CYMR90~1\AppData\Local\Temp\ccLPYcmd.s:20533  .debug_str:0000000000001ef9 .LASF1187
C:\Users\CYMR90~1\AppData\Local\Temp\ccLPYcmd.s:21459  .debug_str:00000000000059b7 .LASF1188
C:\Users\CYMR90~1\AppData\Local\Temp\ccLPYcmd.s:28832  .debug_str:0000000000022d71 .LASF1189
C:\Users\CYMR90~1\AppData\Local\Temp\ccLPYcmd.s:22003  .debug_str:0000000000007ba9 .LASF1190
C:\Users\CYMR90~1\AppData\Local\Temp\ccLPYcmd.s:28814  .debug_str:0000000000022bfa .LASF1191
C:\Users\CYMR90~1\AppData\Local\Temp\ccLPYcmd.s:23209  .debug_str:000000000000cab0 .LASF1192
C:\Users\CYMR90~1\AppData\Local\Temp\ccLPYcmd.s:28470  .debug_str:0000000000021750 .LASF1193
C:\Users\CYMR90~1\AppData\Local\Temp\ccLPYcmd.s:23459  .debug_str:000000000000dac3 .LASF1194
C:\Users\CYMR90~1\AppData\Local\Temp\ccLPYcmd.s:27026  .debug_str:000000000001bce4 .LASF1195
C:\Users\CYMR90~1\AppData\Local\Temp\ccLPYcmd.s:25037  .debug_str:0000000000013d88 .LASF1196
C:\Users\CYMR90~1\AppData\Local\Temp\ccLPYcmd.s:28506  .debug_str:00000000000219bd .LASF1197
C:\Users\CYMR90~1\AppData\Local\Temp\ccLPYcmd.s:30708  .debug_str:000000000002a5b2 .LASF1198
C:\Users\CYMR90~1\AppData\Local\Temp\ccLPYcmd.s:25707  .debug_str:0000000000016642 .LASF1199
C:\Users\CYMR90~1\AppData\Local\Temp\ccLPYcmd.s:30714  .debug_str:000000000002a5e8 .LASF1200
C:\Users\CYMR90~1\AppData\Local\Temp\ccLPYcmd.s:22695  .debug_str:000000000000a798 .LASF1201
C:\Users\CYMR90~1\AppData\Local\Temp\ccLPYcmd.s:22357  .debug_str:00000000000092a1 .LASF1202
C:\Users\CYMR90~1\AppData\Local\Temp\ccLPYcmd.s:25896  .debug_str:0000000000017418 .LASF1203
C:\Users\CYMR90~1\AppData\Local\Temp\ccLPYcmd.s:29806  .debug_str:0000000000026be4 .LASF1204
C:\Users\CYMR90~1\AppData\Local\Temp\ccLPYcmd.s:24943  .debug_str:0000000000013811 .LASF1205
C:\Users\CYMR90~1\AppData\Local\Temp\ccLPYcmd.s:24001  .debug_str:000000000000fbb6 .LASF1206
C:\Users\CYMR90~1\AppData\Local\Temp\ccLPYcmd.s:22947  .debug_str:000000000000b971 .LASF1207
C:\Users\CYMR90~1\AppData\Local\Temp\ccLPYcmd.s:29328  .debug_str:0000000000024c0b .LASF1208
C:\Users\CYMR90~1\AppData\Local\Temp\ccLPYcmd.s:23931  .debug_str:000000000000f6f4 .LASF1209
C:\Users\CYMR90~1\AppData\Local\Temp\ccLPYcmd.s:21353  .debug_str:000000000000537e .LASF1210
C:\Users\CYMR90~1\AppData\Local\Temp\ccLPYcmd.s:21451  .debug_str:000000000000594f .LASF1211
C:\Users\CYMR90~1\AppData\Local\Temp\ccLPYcmd.s:22149  .debug_str:0000000000008617 .LASF1212
C:\Users\CYMR90~1\AppData\Local\Temp\ccLPYcmd.s:21739  .debug_str:0000000000006a6a .LASF1213
C:\Users\CYMR90~1\AppData\Local\Temp\ccLPYcmd.s:20649  .debug_str:0000000000002599 .LASF1214
C:\Users\CYMR90~1\AppData\Local\Temp\ccLPYcmd.s:22489  .debug_str:0000000000009b0a .LASF1215
C:\Users\CYMR90~1\AppData\Local\Temp\ccLPYcmd.s:20589  .debug_str:00000000000021e7 .LASF1216
C:\Users\CYMR90~1\AppData\Local\Temp\ccLPYcmd.s:28932  .debug_str:00000000000232e3 .LASF1217
C:\Users\CYMR90~1\AppData\Local\Temp\ccLPYcmd.s:28946  .debug_str:0000000000023397 .LASF1218
C:\Users\CYMR90~1\AppData\Local\Temp\ccLPYcmd.s:29382  .debug_str:0000000000024f87 .LASF1219
C:\Users\CYMR90~1\AppData\Local\Temp\ccLPYcmd.s:26912  .debug_str:000000000001b5f4 .LASF1220
C:\Users\CYMR90~1\AppData\Local\Temp\ccLPYcmd.s:23499  .debug_str:000000000000dcf4 .LASF1221
C:\Users\CYMR90~1\AppData\Local\Temp\ccLPYcmd.s:25211  .debug_str:000000000001484f .LASF1222
C:\Users\CYMR90~1\AppData\Local\Temp\ccLPYcmd.s:20825  .debug_str:00000000000030ef .LASF1223
C:\Users\CYMR90~1\AppData\Local\Temp\ccLPYcmd.s:26646  .debug_str:000000000001a4e7 .LASF1224
C:\Users\CYMR90~1\AppData\Local\Temp\ccLPYcmd.s:29990  .debug_str:00000000000277ff .LASF1225
C:\Users\CYMR90~1\AppData\Local\Temp\ccLPYcmd.s:22967  .debug_str:000000000000ba85 .LASF1226
C:\Users\CYMR90~1\AppData\Local\Temp\ccLPYcmd.s:21881  .debug_str:00000000000073af .LASF1227
C:\Users\CYMR90~1\AppData\Local\Temp\ccLPYcmd.s:20925  .debug_str:0000000000003769 .LASF1228
C:\Users\CYMR90~1\AppData\Local\Temp\ccLPYcmd.s:31394  .debug_str:000000000002d1ac .LASF1229
C:\Users\CYMR90~1\AppData\Local\Temp\ccLPYcmd.s:30428  .debug_str:000000000002947e .LASF1230
C:\Users\CYMR90~1\AppData\Local\Temp\ccLPYcmd.s:29442  .debug_str:0000000000025378 .LASF1231
C:\Users\CYMR90~1\AppData\Local\Temp\ccLPYcmd.s:28456  .debug_str:0000000000021684 .LASF1232
C:\Users\CYMR90~1\AppData\Local\Temp\ccLPYcmd.s:28334  .debug_str:0000000000020ed9 .LASF1233
C:\Users\CYMR90~1\AppData\Local\Temp\ccLPYcmd.s:27370  .debug_str:000000000001d3a8 .LASF1234
C:\Users\CYMR90~1\AppData\Local\Temp\ccLPYcmd.s:26420  .debug_str:000000000001951d .LASF1235
C:\Users\CYMR90~1\AppData\Local\Temp\ccLPYcmd.s:25107  .debug_str:00000000000141fe .LASF1236
C:\Users\CYMR90~1\AppData\Local\Temp\ccLPYcmd.s:24475  .debug_str:000000000001196c .LASF1237
C:\Users\CYMR90~1\AppData\Local\Temp\ccLPYcmd.s:23525  .debug_str:000000000000de7f .LASF1238
C:\Users\CYMR90~1\AppData\Local\Temp\ccLPYcmd.s:22561  .debug_str:0000000000009f37 .LASF1239
C:\Users\CYMR90~1\AppData\Local\Temp\ccLPYcmd.s:21559  .debug_str:0000000000005f75 .LASF1240
C:\Users\CYMR90~1\AppData\Local\Temp\ccLPYcmd.s:20607  .debug_str:0000000000002300 .LASF1241
C:\Users\CYMR90~1\AppData\Local\Temp\ccLPYcmd.s:31114  .debug_str:000000000002bed0 .LASF1242
C:\Users\CYMR90~1\AppData\Local\Temp\ccLPYcmd.s:20123  .debug_str:0000000000000574 .LASF1243
C:\Users\CYMR90~1\AppData\Local\Temp\ccLPYcmd.s:30572  .debug_str:0000000000029db6 .LASF1244
C:\Users\CYMR90~1\AppData\Local\Temp\ccLPYcmd.s:29590  .debug_str:0000000000025e7d .LASF1245
C:\Users\CYMR90~1\AppData\Local\Temp\ccLPYcmd.s:28616  .debug_str:000000000002204c .LASF1246
C:\Users\CYMR90~1\AppData\Local\Temp\ccLPYcmd.s:27622  .debug_str:000000000001e399 .LASF1247
C:\Users\CYMR90~1\AppData\Local\Temp\ccLPYcmd.s:26704  .debug_str:000000000001a8a8 .LASF1248
C:\Users\CYMR90~1\AppData\Local\Temp\ccLPYcmd.s:25751  .debug_str:0000000000016940 .LASF1249
C:\Users\CYMR90~1\AppData\Local\Temp\ccLPYcmd.s:25912  .debug_str:00000000000174ea .LASF1250
C:\Users\CYMR90~1\AppData\Local\Temp\ccLPYcmd.s:23841  .debug_str:000000000000f148 .LASF1251
C:\Users\CYMR90~1\AppData\Local\Temp\ccLPYcmd.s:26016  .debug_str:0000000000017b51 .LASF1252
C:\Users\CYMR90~1\AppData\Local\Temp\ccLPYcmd.s:23351  .debug_str:000000000000d39d .LASF1253
C:\Users\CYMR90~1\AppData\Local\Temp\ccLPYcmd.s:22371  .debug_str:0000000000009370 .LASF1254
C:\Users\CYMR90~1\AppData\Local\Temp\ccLPYcmd.s:20377  .debug_str:0000000000001516 .LASF1255
C:\Users\CYMR90~1\AppData\Local\Temp\ccLPYcmd.s:23267  .debug_str:000000000000ce5d .LASF1256
C:\Users\CYMR90~1\AppData\Local\Temp\ccLPYcmd.s:21513  .debug_str:0000000000005d36 .LASF1257
C:\Users\CYMR90~1\AppData\Local\Temp\ccLPYcmd.s:26292  .debug_str:0000000000018c83 .LASF1258
C:\Users\CYMR90~1\AppData\Local\Temp\ccLPYcmd.s:26294  .debug_str:0000000000018c96 .LASF1259
C:\Users\CYMR90~1\AppData\Local\Temp\ccLPYcmd.s:28818  .debug_str:0000000000022c2a .LASF1260
C:\Users\CYMR90~1\AppData\Local\Temp\ccLPYcmd.s:26906  .debug_str:000000000001b5ad .LASF1261
C:\Users\CYMR90~1\AppData\Local\Temp\ccLPYcmd.s:24275  .debug_str:0000000000010d4f .LASF1262
C:\Users\CYMR90~1\AppData\Local\Temp\ccLPYcmd.s:21407  .debug_str:00000000000056c5 .LASF1263
C:\Users\CYMR90~1\AppData\Local\Temp\ccLPYcmd.s:23583  .debug_str:000000000000e21e .LASF1264
C:\Users\CYMR90~1\AppData\Local\Temp\ccLPYcmd.s:25775  .debug_str:0000000000016b67 .LASF1265
C:\Users\CYMR90~1\AppData\Local\Temp\ccLPYcmd.s:23631  .debug_str:000000000000e509 .LASF1266
C:\Users\CYMR90~1\AppData\Local\Temp\ccLPYcmd.s:28844  .debug_str:0000000000022e1e .LASF1267
C:\Users\CYMR90~1\AppData\Local\Temp\ccLPYcmd.s:29022  .debug_str:000000000002382e .LASF1268
C:\Users\CYMR90~1\AppData\Local\Temp\ccLPYcmd.s:24409  .debug_str:00000000000114ac .LASF1269
C:\Users\CYMR90~1\AppData\Local\Temp\ccLPYcmd.s:31164  .debug_str:000000000002c1e7 .LASF1270
C:\Users\CYMR90~1\AppData\Local\Temp\ccLPYcmd.s:26018  .debug_str:0000000000017b68 .LASF1271
C:\Users\CYMR90~1\AppData\Local\Temp\ccLPYcmd.s:30532  .debug_str:0000000000029b79 .LASF1272
C:\Users\CYMR90~1\AppData\Local\Temp\ccLPYcmd.s:20875  .debug_str:0000000000003428 .LASF1273
C:\Users\CYMR90~1\AppData\Local\Temp\ccLPYcmd.s:20189  .debug_str:000000000000094c .LASF1274
C:\Users\CYMR90~1\AppData\Local\Temp\ccLPYcmd.s:26302  .debug_str:0000000000018d19 .LASF1275
C:\Users\CYMR90~1\AppData\Local\Temp\ccLPYcmd.s:20303  .debug_str:00000000000010b3 .LASF1276
C:\Users\CYMR90~1\AppData\Local\Temp\ccLPYcmd.s:22585  .debug_str:000000000000a0d3 .LASF1277
C:\Users\CYMR90~1\AppData\Local\Temp\ccLPYcmd.s:21577  .debug_str:0000000000006080 .LASF1278
C:\Users\CYMR90~1\AppData\Local\Temp\ccLPYcmd.s:20637  .debug_str:00000000000024cb .LASF1279
C:\Users\CYMR90~1\AppData\Local\Temp\ccLPYcmd.s:31132  .debug_str:000000000002bfc9 .LASF1280
C:\Users\CYMR90~1\AppData\Local\Temp\ccLPYcmd.s:21471  .debug_str:0000000000005a7b .LASF1281
C:\Users\CYMR90~1\AppData\Local\Temp\ccLPYcmd.s:20521  .debug_str:0000000000001e63 .LASF1282
C:\Users\CYMR90~1\AppData\Local\Temp\ccLPYcmd.s:27664  .debug_str:000000000001e62c .LASF1283
C:\Users\CYMR90~1\AppData\Local\Temp\ccLPYcmd.s:20259  .debug_str:0000000000000da1 .LASF1284
C:\Users\CYMR90~1\AppData\Local\Temp\ccLPYcmd.s:29046  .debug_str:00000000000239e4 .LASF1285
C:\Users\CYMR90~1\AppData\Local\Temp\ccLPYcmd.s:28050  .debug_str:000000000001fd7b .LASF1286
C:\Users\CYMR90~1\AppData\Local\Temp\ccLPYcmd.s:27094  .debug_str:000000000001c14e .LASF1287
C:\Users\CYMR90~1\AppData\Local\Temp\ccLPYcmd.s:26126  .debug_str:00000000000181c5 .LASF1288
C:\Users\CYMR90~1\AppData\Local\Temp\ccLPYcmd.s:25149  .debug_str:000000000001446b .LASF1289
C:\Users\CYMR90~1\AppData\Local\Temp\ccLPYcmd.s:24203  .debug_str:0000000000010805 .LASF1290
C:\Users\CYMR90~1\AppData\Local\Temp\ccLPYcmd.s:28566  .debug_str:0000000000021d38 .LASF1291
C:\Users\CYMR90~1\AppData\Local\Temp\ccLPYcmd.s:27570  .debug_str:000000000001e09b .LASF1292
C:\Users\CYMR90~1\AppData\Local\Temp\ccLPYcmd.s:26644  .debug_str:000000000001a4d3 .LASF1293
C:\Users\CYMR90~1\AppData\Local\Temp\ccLPYcmd.s:25637  .debug_str:00000000000161d5 .LASF1294
C:\Users\CYMR90~1\AppData\Local\Temp\ccLPYcmd.s:24703  .debug_str:0000000000012845 .LASF1295
C:\Users\CYMR90~1\AppData\Local\Temp\ccLPYcmd.s:23737  .debug_str:000000000000ebcf .LASF1296
C:\Users\CYMR90~1\AppData\Local\Temp\ccLPYcmd.s:23105  .debug_str:000000000000c3db .LASF1297
C:\Users\CYMR90~1\AppData\Local\Temp\ccLPYcmd.s:28016  .debug_str:000000000001fb5a .LASF1298
C:\Users\CYMR90~1\AppData\Local\Temp\ccLPYcmd.s:27066  .debug_str:000000000001bfa6 .LASF1299
C:\Users\CYMR90~1\AppData\Local\Temp\ccLPYcmd.s:26094  .debug_str:0000000000017fc1 .LASF1300
C:\Users\CYMR90~1\AppData\Local\Temp\ccLPYcmd.s:27038  .debug_str:000000000001bdb8 .LASF1301
C:\Users\CYMR90~1\AppData\Local\Temp\ccLPYcmd.s:28274  .debug_str:0000000000020b30 .LASF1302
C:\Users\CYMR90~1\AppData\Local\Temp\ccLPYcmd.s:25681  .debug_str:0000000000016439 .LASF1303
C:\Users\CYMR90~1\AppData\Local\Temp\ccLPYcmd.s:26562  .debug_str:0000000000019e63 .LASF1304
C:\Users\CYMR90~1\AppData\Local\Temp\ccLPYcmd.s:26534  .debug_str:0000000000019ccf .LASF1305
C:\Users\CYMR90~1\AppData\Local\Temp\ccLPYcmd.s:22263  .debug_str:0000000000008d07 .LASF1306
C:\Users\CYMR90~1\AppData\Local\Temp\ccLPYcmd.s:21257  .debug_str:0000000000004dba .LASF1307
C:\Users\CYMR90~1\AppData\Local\Temp\ccLPYcmd.s:20315  .debug_str:0000000000001149 .LASF1308
C:\Users\CYMR90~1\AppData\Local\Temp\ccLPYcmd.s:30784  .debug_str:000000000002aa6a .LASF1309
C:\Users\CYMR90~1\AppData\Local\Temp\ccLPYcmd.s:29802  .debug_str:0000000000026ba9 .LASF1310
C:\Users\CYMR90~1\AppData\Local\Temp\ccLPYcmd.s:28820  .debug_str:0000000000022c3b .LASF1311
C:\Users\CYMR90~1\AppData\Local\Temp\ccLPYcmd.s:25017  .debug_str:0000000000013c5d .LASF1312
C:\Users\CYMR90~1\AppData\Local\Temp\ccLPYcmd.s:21463  .debug_str:0000000000005a09 .LASF1313
C:\Users\CYMR90~1\AppData\Local\Temp\ccLPYcmd.s:24861  .debug_str:000000000001328e .LASF1314
C:\Users\CYMR90~1\AppData\Local\Temp\ccLPYcmd.s:31012  .debug_str:000000000002b811 .LASF1315
C:\Users\CYMR90~1\AppData\Local\Temp\ccLPYcmd.s:29516  .debug_str:0000000000025961 .LASF1316
C:\Users\CYMR90~1\AppData\Local\Temp\ccLPYcmd.s:29038  .debug_str:0000000000023948 .LASF1317
C:\Users\CYMR90~1\AppData\Local\Temp\ccLPYcmd.s:28042  .debug_str:000000000001fd0e .LASF1318
C:\Users\CYMR90~1\AppData\Local\Temp\ccLPYcmd.s:27104  .debug_str:000000000001c1f8 .LASF1319
C:\Users\CYMR90~1\AppData\Local\Temp\ccLPYcmd.s:26136  .debug_str:000000000001825b .LASF1320
C:\Users\CYMR90~1\AppData\Local\Temp\ccLPYcmd.s:25159  .debug_str:00000000000144e1 .LASF1321
C:\Users\CYMR90~1\AppData\Local\Temp\ccLPYcmd.s:24211  .debug_str:0000000000010876 .LASF1322
C:\Users\CYMR90~1\AppData\Local\Temp\ccLPYcmd.s:24675  .debug_str:0000000000012651 .LASF1323
C:\Users\CYMR90~1\AppData\Local\Temp\ccLPYcmd.s:23109  .debug_str:000000000000c400 .LASF1324
C:\Users\CYMR90~1\AppData\Local\Temp\ccLPYcmd.s:22747  .debug_str:000000000000abb8 .LASF1325
C:\Users\CYMR90~1\AppData\Local\Temp\ccLPYcmd.s:21747  .debug_str:0000000000006b06 .LASF1326
C:\Users\CYMR90~1\AppData\Local\Temp\ccLPYcmd.s:20783  .debug_str:0000000000002e6d .LASF1327
C:\Users\CYMR90~1\AppData\Local\Temp\ccLPYcmd.s:31282  .debug_str:000000000002ca0c .LASF1328
C:\Users\CYMR90~1\AppData\Local\Temp\ccLPYcmd.s:30344  .debug_str:0000000000028f62 .LASF1329
C:\Users\CYMR90~1\AppData\Local\Temp\ccLPYcmd.s:29362  .debug_str:0000000000024e27 .LASF1330
C:\Users\CYMR90~1\AppData\Local\Temp\ccLPYcmd.s:28374  .debug_str:00000000000210f5 .LASF1331
C:\Users\CYMR90~1\AppData\Local\Temp\ccLPYcmd.s:27402  .debug_str:000000000001d5b2 .LASF1332
C:\Users\CYMR90~1\AppData\Local\Temp\ccLPYcmd.s:27836  .debug_str:000000000001f0a8 .LASF1333
C:\Users\CYMR90~1\AppData\Local\Temp\ccLPYcmd.s:26920  .debug_str:000000000001b670 .LASF1334
C:\Users\CYMR90~1\AppData\Local\Temp\ccLPYcmd.s:25597  .debug_str:0000000000015f58 .LASF1335
C:\Users\CYMR90~1\AppData\Local\Temp\ccLPYcmd.s:23263  .debug_str:000000000000ce32 .LASF1336
C:\Users\CYMR90~1\AppData\Local\Temp\ccLPYcmd.s:28058  .debug_str:000000000001fdda .LASF1337
C:\Users\CYMR90~1\AppData\Local\Temp\ccLPYcmd.s:24555  .debug_str:0000000000011e90 .LASF1338
C:\Users\CYMR90~1\AppData\Local\Temp\ccLPYcmd.s:20421  .debug_str:000000000000179d .LASF1339
C:\Users\CYMR90~1\AppData\Local\Temp\ccLPYcmd.s:22533  .debug_str:0000000000009d9f .LASF1340
C:\Users\CYMR90~1\AppData\Local\Temp\ccLPYcmd.s:21531  .debug_str:0000000000005e0d .LASF1341
C:\Users\CYMR90~1\AppData\Local\Temp\ccLPYcmd.s:20575  .debug_str:0000000000002130 .LASF1342
C:\Users\CYMR90~1\AppData\Local\Temp\ccLPYcmd.s:31092  .debug_str:000000000002bd46 .LASF1343
C:\Users\CYMR90~1\AppData\Local\Temp\ccLPYcmd.s:30872  .debug_str:000000000002af7d .LASF1344
C:\Users\CYMR90~1\AppData\Local\Temp\ccLPYcmd.s:29884  .debug_str:00000000000270af .LASF1345
C:\Users\CYMR90~1\AppData\Local\Temp\ccLPYcmd.s:22255  .debug_str:0000000000008c97 .LASF1346
C:\Users\CYMR90~1\AppData\Local\Temp\ccLPYcmd.s:30300  .debug_str:0000000000028cff .LASF1347
C:\Users\CYMR90~1\AppData\Local\Temp\ccLPYcmd.s:26970  .debug_str:000000000001b9ae .LASF1348
C:\Users\CYMR90~1\AppData\Local\Temp\ccLPYcmd.s:27484  .debug_str:000000000001dae4 .LASF1349
C:\Users\CYMR90~1\AppData\Local\Temp\ccLPYcmd.s:25029  .debug_str:0000000000013d1a .LASF1350
C:\Users\CYMR90~1\AppData\Local\Temp\ccLPYcmd.s:28206  .debug_str:000000000002075b .LASF1351
C:\Users\CYMR90~1\AppData\Local\Temp\ccLPYcmd.s:23123  .debug_str:000000000000c4f2 .LASF1352
C:\Users\CYMR90~1\AppData\Local\Temp\ccLPYcmd.s:20551  .debug_str:0000000000001ff0 .LASF1353
C:\Users\CYMR90~1\AppData\Local\Temp\ccLPYcmd.s:22617  .debug_str:000000000000a2d9 .LASF1354
C:\Users\CYMR90~1\AppData\Local\Temp\ccLPYcmd.s:21609  .debug_str:000000000000629e .LASF1355
C:\Users\CYMR90~1\AppData\Local\Temp\ccLPYcmd.s:20661  .debug_str:0000000000002643 .LASF1356
C:\Users\CYMR90~1\AppData\Local\Temp\ccLPYcmd.s:31160  .debug_str:000000000002c1c7 .LASF1357
C:\Users\CYMR90~1\AppData\Local\Temp\ccLPYcmd.s:25119  .debug_str:00000000000142c6 .LASF1358
C:\Users\CYMR90~1\AppData\Local\Temp\ccLPYcmd.s:21741  .debug_str:0000000000006aae .LASF1359
C:\Users\CYMR90~1\AppData\Local\Temp\ccLPYcmd.s:28254  .debug_str:00000000000209fb .LASF1360
C:\Users\CYMR90~1\AppData\Local\Temp\ccLPYcmd.s:27202  .debug_str:000000000001c790 .LASF1361
C:\Users\CYMR90~1\AppData\Local\Temp\ccLPYcmd.s:26234  .debug_str:0000000000018828 .LASF1362
C:\Users\CYMR90~1\AppData\Local\Temp\ccLPYcmd.s:30310  .debug_str:0000000000028d88 .LASF1363
C:\Users\CYMR90~1\AppData\Local\Temp\ccLPYcmd.s:25523  .debug_str:0000000000015a58 .LASF1364
C:\Users\CYMR90~1\AppData\Local\Temp\ccLPYcmd.s:22165  .debug_str:00000000000086f0 .LASF1365
C:\Users\CYMR90~1\AppData\Local\Temp\ccLPYcmd.s:29912  .debug_str:0000000000027274 .LASF1366
C:\Users\CYMR90~1\AppData\Local\Temp\ccLPYcmd.s:29150  .debug_str:0000000000023f96 .LASF1367
C:\Users\CYMR90~1\AppData\Local\Temp\ccLPYcmd.s:28144  .debug_str:0000000000020318 .LASF1368
C:\Users\CYMR90~1\AppData\Local\Temp\ccLPYcmd.s:26396  .debug_str:0000000000019378 .LASF1369
C:\Users\CYMR90~1\AppData\Local\Temp\ccLPYcmd.s:31052  .debug_str:000000000002ba87 .LASF1370
C:\Users\CYMR90~1\AppData\Local\Temp\ccLPYcmd.s:27414  .debug_str:000000000001d643 .LASF1371
C:\Users\CYMR90~1\AppData\Local\Temp\ccLPYcmd.s:20705  .debug_str:0000000000002969 .LASF1372
C:\Users\CYMR90~1\AppData\Local\Temp\ccLPYcmd.s:23309  .debug_str:000000000000d0db .LASF1373
C:\Users\CYMR90~1\AppData\Local\Temp\ccLPYcmd.s:26442  .debug_str:0000000000019641 .LASF1374
C:\Users\CYMR90~1\AppData\Local\Temp\ccLPYcmd.s:29582  .debug_str:0000000000025e0f .LASF1375
C:\Users\CYMR90~1\AppData\Local\Temp\ccLPYcmd.s:21285  .debug_str:0000000000004f74 .LASF1376
C:\Users\CYMR90~1\AppData\Local\Temp\ccLPYcmd.s:24459  .debug_str:00000000000117d9 .LASF1377
C:\Users\CYMR90~1\AppData\Local\Temp\ccLPYcmd.s:27578  .debug_str:000000000001e11b .LASF1378
C:\Users\CYMR90~1\AppData\Local\Temp\ccLPYcmd.s:30780  .debug_str:000000000002aa2d .LASF1379
C:\Users\CYMR90~1\AppData\Local\Temp\ccLPYcmd.s:30748  .debug_str:000000000002a822 .LASF1380
C:\Users\CYMR90~1\AppData\Local\Temp\ccLPYcmd.s:22383  .debug_str:0000000000009420 .LASF1381
C:\Users\CYMR90~1\AppData\Local\Temp\ccLPYcmd.s:25493  .debug_str:00000000000158a3 .LASF1382
C:\Users\CYMR90~1\AppData\Local\Temp\ccLPYcmd.s:28662  .debug_str:000000000002230f .LASF1383
C:\Users\CYMR90~1\AppData\Local\Temp\ccLPYcmd.s:20393  .debug_str:00000000000015de .LASF1384
C:\Users\CYMR90~1\AppData\Local\Temp\ccLPYcmd.s:23567  .debug_str:000000000000e145 .LASF1385
C:\Users\CYMR90~1\AppData\Local\Temp\ccLPYcmd.s:26738  .debug_str:000000000001aad2 .LASF1386
C:\Users\CYMR90~1\AppData\Local\Temp\ccLPYcmd.s:29874  .debug_str:0000000000026fee .LASF1387
C:\Users\CYMR90~1\AppData\Local\Temp\ccLPYcmd.s:21565  .debug_str:0000000000005fc8 .LASF1388
C:\Users\CYMR90~1\AppData\Local\Temp\ccLPYcmd.s:24659  .debug_str:0000000000012543 .LASF1389
C:\Users\CYMR90~1\AppData\Local\Temp\ccLPYcmd.s:24007  .debug_str:000000000000fbfc .LASF1390
C:\Users\CYMR90~1\AppData\Local\Temp\ccLPYcmd.s:27048  .debug_str:000000000001be6e .LASF1391
C:\Users\CYMR90~1\AppData\Local\Temp\ccLPYcmd.s:30216  .debug_str:0000000000028737 .LASF1392
C:\Users\CYMR90~1\AppData\Local\Temp\ccLPYcmd.s:21921  .debug_str:000000000000762b .LASF1393
C:\Users\CYMR90~1\AppData\Local\Temp\ccLPYcmd.s:25055  .debug_str:0000000000013e93 .LASF1394
C:\Users\CYMR90~1\AppData\Local\Temp\ccLPYcmd.s:28220  .debug_str:0000000000020839 .LASF1395
C:\Users\CYMR90~1\AppData\Local\Temp\ccLPYcmd.s:31452  .debug_str:000000000002d515 .LASF1396
C:\Users\CYMR90~1\AppData\Local\Temp\ccLPYcmd.s:23183  .debug_str:000000000000c87d .LASF1397
C:\Users\CYMR90~1\AppData\Local\Temp\ccLPYcmd.s:27788  .debug_str:000000000001ed86 .LASF1398
C:\Users\CYMR90~1\AppData\Local\Temp\ccLPYcmd.s:24361  .debug_str:00000000000111f3 .LASF1399
C:\Users\CYMR90~1\AppData\Local\Temp\ccLPYcmd.s:25663  .debug_str:000000000001634a .LASF1400
C:\Users\CYMR90~1\AppData\Local\Temp\ccLPYcmd.s:20347  .debug_str:0000000000001335 .LASF1401
C:\Users\CYMR90~1\AppData\Local\Temp\ccLPYcmd.s:28124  .debug_str:0000000000020218 .LASF1402
C:\Users\CYMR90~1\AppData\Local\Temp\ccLPYcmd.s:23005  .debug_str:000000000000bd08 .LASF1403
C:\Users\CYMR90~1\AppData\Local\Temp\ccLPYcmd.s:27886  .debug_str:000000000001f3c5 .LASF1404
C:\Users\CYMR90~1\AppData\Local\Temp\ccLPYcmd.s:21063  .debug_str:0000000000004079 .LASF1405
C:\Users\CYMR90~1\AppData\Local\Temp\ccLPYcmd.s:22737  .debug_str:000000000000ab1b .LASF1406
C:\Users\CYMR90~1\AppData\Local\Temp\ccLPYcmd.s:28866  .debug_str:0000000000022f49 .LASF1407
C:\Users\CYMR90~1\AppData\Local\Temp\ccLPYcmd.s:29026  .debug_str:0000000000023860 .LASF1408
C:\Users\CYMR90~1\AppData\Local\Temp\ccLPYcmd.s:20735  .debug_str:0000000000002b51 .LASF1409
C:\Users\CYMR90~1\AppData\Local\Temp\ccLPYcmd.s:23913  .debug_str:000000000000f5e0 .LASF1410
C:\Users\CYMR90~1\AppData\Local\Temp\ccLPYcmd.s:30444  .debug_str:0000000000029575 .LASF1411
C:\Users\CYMR90~1\AppData\Local\Temp\ccLPYcmd.s:22155  .debug_str:000000000000866c .LASF1412
C:\Users\CYMR90~1\AppData\Local\Temp\ccLPYcmd.s:25285  .debug_str:0000000000014c74 .LASF1413
C:\Users\CYMR90~1\AppData\Local\Temp\ccLPYcmd.s:28438  .debug_str:000000000002154f .LASF1414
C:\Users\CYMR90~1\AppData\Local\Temp\ccLPYcmd.s:20191  .debug_str:000000000000095f .LASF1415
C:\Users\CYMR90~1\AppData\Local\Temp\ccLPYcmd.s:23273  .debug_str:000000000000ce9d .LASF1416
C:\Users\CYMR90~1\AppData\Local\Temp\ccLPYcmd.s:26418  .debug_str:0000000000019504 .LASF1417
C:\Users\CYMR90~1\AppData\Local\Temp\ccLPYcmd.s:27948  .debug_str:000000000001f760 .LASF1418
C:\Users\CYMR90~1\AppData\Local\Temp\ccLPYcmd.s:21265  .debug_str:0000000000004e24 .LASF1419
C:\Users\CYMR90~1\AppData\Local\Temp\ccLPYcmd.s:24347  .debug_str:0000000000011114 .LASF1420
C:\Users\CYMR90~1\AppData\Local\Temp\ccLPYcmd.s:23693  .debug_str:000000000000e910 .LASF1421
C:\Users\CYMR90~1\AppData\Local\Temp\ccLPYcmd.s:26850  .debug_str:000000000001b266 .LASF1422
C:\Users\CYMR90~1\AppData\Local\Temp\ccLPYcmd.s:29988  .debug_str:00000000000277e6 .LASF1423
C:\Users\CYMR90~1\AppData\Local\Temp\ccLPYcmd.s:21693  .debug_str:0000000000006780 .LASF1424
C:\Users\CYMR90~1\AppData\Local\Temp\ccLPYcmd.s:24865  .debug_str:00000000000132bc .LASF1425
C:\Users\CYMR90~1\AppData\Local\Temp\ccLPYcmd.s:27878  .debug_str:000000000001f32c .LASF1426
C:\Users\CYMR90~1\AppData\Local\Temp\ccLPYcmd.s:31170  .debug_str:000000000002c2ba .LASF1427
C:\Users\CYMR90~1\AppData\Local\Temp\ccLPYcmd.s:22875  .debug_str:000000000000b442 .LASF1428
C:\Users\CYMR90~1\AppData\Local\Temp\ccLPYcmd.s:25994  .debug_str:0000000000017a0c .LASF1429
C:\Users\CYMR90~1\AppData\Local\Temp\ccLPYcmd.s:29160  .debug_str:0000000000024036 .LASF1430
C:\Users\CYMR90~1\AppData\Local\Temp\ccLPYcmd.s:27888  .debug_str:000000000001f3dd .LASF1431
C:\Users\CYMR90~1\AppData\Local\Temp\ccLPYcmd.s:20149  .debug_str:000000000000070b .LASF1432
C:\Users\CYMR90~1\AppData\Local\Temp\ccLPYcmd.s:29114  .debug_str:0000000000023d96 .LASF1433
C:\Users\CYMR90~1\AppData\Local\Temp\ccLPYcmd.s:28128  .debug_str:0000000000020242 .LASF1434
C:\Users\CYMR90~1\AppData\Local\Temp\ccLPYcmd.s:27166  .debug_str:000000000001c55d .LASF1435
C:\Users\CYMR90~1\AppData\Local\Temp\ccLPYcmd.s:26202  .debug_str:0000000000018634 .LASF1436
C:\Users\CYMR90~1\AppData\Local\Temp\ccLPYcmd.s:25621  .debug_str:00000000000160ee .LASF1437
C:\Users\CYMR90~1\AppData\Local\Temp\ccLPYcmd.s:30020  .debug_str:000000000002798d .LASF1438
C:\Users\CYMR90~1\AppData\Local\Temp\ccLPYcmd.s:29044  .debug_str:00000000000239d0 .LASF1439
C:\Users\CYMR90~1\AppData\Local\Temp\ccLPYcmd.s:28048  .debug_str:000000000001fd67 .LASF1440
C:\Users\CYMR90~1\AppData\Local\Temp\ccLPYcmd.s:31432  .debug_str:000000000002d3f2 .LASF1441
C:\Users\CYMR90~1\AppData\Local\Temp\ccLPYcmd.s:26124  .debug_str:00000000000181b1 .LASF1442
C:\Users\CYMR90~1\AppData\Local\Temp\ccLPYcmd.s:25147  .debug_str:0000000000014457 .LASF1443
C:\Users\CYMR90~1\AppData\Local\Temp\ccLPYcmd.s:24201  .debug_str:00000000000107f1 .LASF1444
C:\Users\CYMR90~1\AppData\Local\Temp\ccLPYcmd.s:27494  .debug_str:000000000001db72 .LASF1445
C:\Users\CYMR90~1\AppData\Local\Temp\ccLPYcmd.s:22273  .debug_str:0000000000008d84 .LASF1446
C:\Users\CYMR90~1\AppData\Local\Temp\ccLPYcmd.s:23825  .debug_str:000000000000f06b .LASF1447
C:\Users\CYMR90~1\AppData\Local\Temp\ccLPYcmd.s:29398  .debug_str:000000000002506a .LASF1448
C:\Users\CYMR90~1\AppData\Local\Temp\ccLPYcmd.s:28414  .debug_str:000000000002133f .LASF1449
C:\Users\CYMR90~1\AppData\Local\Temp\ccLPYcmd.s:27424  .debug_str:000000000001d742 .LASF1450
C:\Users\CYMR90~1\AppData\Local\Temp\ccLPYcmd.s:26488  .debug_str:00000000000199f8 .LASF1451
C:\Users\CYMR90~1\AppData\Local\Temp\ccLPYcmd.s:25491  .debug_str:000000000001588e .LASF1452
C:\Users\CYMR90~1\AppData\Local\Temp\ccLPYcmd.s:22873  .debug_str:000000000000b42f .LASF1453
C:\Users\CYMR90~1\AppData\Local\Temp\ccLPYcmd.s:21477  .debug_str:0000000000005ad1 .LASF1454
C:\Users\CYMR90~1\AppData\Local\Temp\ccLPYcmd.s:22675  .debug_str:000000000000a687 .LASF1455
C:\Users\CYMR90~1\AppData\Local\Temp\ccLPYcmd.s:27792  .debug_str:000000000001edc8 .LASF1456
C:\Users\CYMR90~1\AppData\Local\Temp\ccLPYcmd.s:29450  .debug_str:0000000000025407 .LASF1457
C:\Users\CYMR90~1\AppData\Local\Temp\ccLPYcmd.s:21443  .debug_str:00000000000058f6 .LASF1458
C:\Users\CYMR90~1\AppData\Local\Temp\ccLPYcmd.s:27872  .debug_str:000000000001f2de .LASF1459
C:\Users\CYMR90~1\AppData\Local\Temp\ccLPYcmd.s:24679  .debug_str:0000000000012692 .LASF1460
C:\Users\CYMR90~1\AppData\Local\Temp\ccLPYcmd.s:22783  .debug_str:000000000000ae06 .LASF1461
C:\Users\CYMR90~1\AppData\Local\Temp\ccLPYcmd.s:23967  .debug_str:000000000000f9c9 .LASF1462
C:\Users\CYMR90~1\AppData\Local\Temp\ccLPYcmd.s:24465  .debug_str:00000000000118b4 .LASF1463
C:\Users\CYMR90~1\AppData\Local\Temp\ccLPYcmd.s:25551  .debug_str:0000000000015c00 .LASF1464
C:\Users\CYMR90~1\AppData\Local\Temp\ccLPYcmd.s:30900  .debug_str:000000000002b141 .LASF1465
C:\Users\CYMR90~1\AppData\Local\Temp\ccLPYcmd.s:26750  .debug_str:000000000001ab97 .LASF1466
C:\Users\CYMR90~1\AppData\Local\Temp\ccLPYcmd.s:25151  .debug_str:000000000001447e .LASF1467
C:\Users\CYMR90~1\AppData\Local\Temp\ccLPYcmd.s:29904  .debug_str:00000000000271fd .LASF1468
C:\Users\CYMR90~1\AppData\Local\Temp\ccLPYcmd.s:22663  .debug_str:000000000000a5fe .LASF1469
C:\Users\CYMR90~1\AppData\Local\Temp\ccLPYcmd.s:22229  .debug_str:0000000000008afc .LASF1470
C:\Users\CYMR90~1\AppData\Local\Temp\ccLPYcmd.s:24439  .debug_str:00000000000116ab .LASF1471
C:\Users\CYMR90~1\AppData\Local\Temp\ccLPYcmd.s:26020  .debug_str:0000000000017b7b .LASF1472
C:\Users\CYMR90~1\AppData\Local\Temp\ccLPYcmd.s:29352  .debug_str:0000000000024d85 .LASF1473
C:\Users\CYMR90~1\AppData\Local\Temp\ccLPYcmd.s:29994  .debug_str:0000000000027827 .LASF1474
C:\Users\CYMR90~1\AppData\Local\Temp\ccLPYcmd.s:20241  .debug_str:0000000000000ca2 .LASF1475
C:\Users\CYMR90~1\AppData\Local\Temp\ccLPYcmd.s:22157  .debug_str:0000000000008685 .LASF1476
C:\Users\CYMR90~1\AppData\Local\Temp\ccLPYcmd.s:20761  .debug_str:0000000000002d04 .LASF1477
C:\Users\CYMR90~1\AppData\Local\Temp\ccLPYcmd.s:30180  .debug_str:0000000000028472 .LASF1478
C:\Users\CYMR90~1\AppData\Local\Temp\ccLPYcmd.s:29196  .debug_str:00000000000242f4 .LASF1479
C:\Users\CYMR90~1\AppData\Local\Temp\ccLPYcmd.s:20891  .debug_str:000000000000353e .LASF1480
C:\Users\CYMR90~1\AppData\Local\Temp\ccLPYcmd.s:23133  .debug_str:000000000000c564 .LASF1481
C:\Users\CYMR90~1\AppData\Local\Temp\ccLPYcmd.s:29320  .debug_str:0000000000024ba2 .LASF1482
C:\Users\CYMR90~1\AppData\Local\Temp\ccLPYcmd.s:22467  .debug_str:0000000000009995 .LASF1483
C:\Users\CYMR90~1\AppData\Local\Temp\ccLPYcmd.s:21271  .debug_str:0000000000004e7d .LASF1484
C:\Users\CYMR90~1\AppData\Local\Temp\ccLPYcmd.s:23703  .debug_str:000000000000e9aa .LASF1485
C:\Users\CYMR90~1\AppData\Local\Temp\ccLPYcmd.s:25117  .debug_str:00000000000142b3 .LASF1486
C:\Users\CYMR90~1\AppData\Local\Temp\ccLPYcmd.s:26734  .debug_str:000000000001aaa3 .LASF1487
C:\Users\CYMR90~1\AppData\Local\Temp\ccLPYcmd.s:20069  .debug_str:0000000000000259 .LASF1488
C:\Users\CYMR90~1\AppData\Local\Temp\ccLPYcmd.s:25509  .debug_str:000000000001598b .LASF1489
C:\Users\CYMR90~1\AppData\Local\Temp\ccLPYcmd.s:23505  .debug_str:000000000000dd32 .LASF1490
C:\Users\CYMR90~1\AppData\Local\Temp\ccLPYcmd.s:30408  .debug_str:0000000000029348 .LASF1491
C:\Users\CYMR90~1\AppData\Local\Temp\ccLPYcmd.s:20729  .debug_str:0000000000002aea .LASF1492
C:\Users\CYMR90~1\AppData\Local\Temp\ccLPYcmd.s:28364  .debug_str:0000000000021076 .LASF1493
C:\Users\CYMR90~1\AppData\Local\Temp\ccLPYcmd.s:30632  .debug_str:000000000002a13e .LASF1494
C:\Users\CYMR90~1\AppData\Local\Temp\ccLPYcmd.s:21905  .debug_str:000000000000754c .LASF1495
C:\Users\CYMR90~1\AppData\Local\Temp\ccLPYcmd.s:29672  .debug_str:000000000002639c .LASF1496
C:\Users\CYMR90~1\AppData\Local\Temp\ccLPYcmd.s:30380  .debug_str:00000000000291b9 .LASF1497
C:\Users\CYMR90~1\AppData\Local\Temp\ccLPYcmd.s:21699  .debug_str:00000000000067d8 .LASF1498
C:\Users\CYMR90~1\AppData\Local\Temp\ccLPYcmd.s:22557  .debug_str:0000000000009efe .LASF1499
C:\Users\CYMR90~1\AppData\Local\Temp\ccLPYcmd.s:31330  .debug_str:000000000002cd27 .LASF1500
C:\Users\CYMR90~1\AppData\Local\Temp\ccLPYcmd.s:30542  .debug_str:0000000000029c06 .LASF1501
C:\Users\CYMR90~1\AppData\Local\Temp\ccLPYcmd.s:28264  .debug_str:0000000000020ab1 .LASF1502
C:\Users\CYMR90~1\AppData\Local\Temp\ccLPYcmd.s:21679  .debug_str:000000000000669c .LASF1503
C:\Users\CYMR90~1\AppData\Local\Temp\ccLPYcmd.s:30634  .debug_str:000000000002a14c .LASF1504
C:\Users\CYMR90~1\AppData\Local\Temp\ccLPYcmd.s:27634  .debug_str:000000000001e447 .LASF1505
C:\Users\CYMR90~1\AppData\Local\Temp\ccLPYcmd.s:26944  .debug_str:000000000001b7fb .LASF1506
C:\Users\CYMR90~1\AppData\Local\Temp\ccLPYcmd.s:22933  .debug_str:000000000000b889 .LASF1507
C:\Users\CYMR90~1\AppData\Local\Temp\ccLPYcmd.s:28472  .debug_str:000000000002175b .LASF1508
C:\Users\CYMR90~1\AppData\Local\Temp\ccLPYcmd.s:24623  .debug_str:00000000000122e2 .LASF1509
C:\Users\CYMR90~1\AppData\Local\Temp\ccLPYcmd.s:30284  .debug_str:0000000000028bf1 .LASF1510
C:\Users\CYMR90~1\AppData\Local\Temp\ccLPYcmd.s:29058  .debug_str:0000000000023a8a .LASF1511
C:\Users\CYMR90~1\AppData\Local\Temp\ccLPYcmd.s:20931  .debug_str:00000000000037b1 .LASF1512
C:\Users\CYMR90~1\AppData\Local\Temp\ccLPYcmd.s:25573  .debug_str:0000000000015dc7 .LASF1513
C:\Users\CYMR90~1\AppData\Local\Temp\ccLPYcmd.s:29476  .debug_str:0000000000025655 .LASF1514
C:\Users\CYMR90~1\AppData\Local\Temp\ccLPYcmd.s:27848  .debug_str:000000000001f192 .LASF1515
C:\Users\CYMR90~1\AppData\Local\Temp\ccLPYcmd.s:31072  .debug_str:000000000002bbce .LASF1516
C:\Users\CYMR90~1\AppData\Local\Temp\ccLPYcmd.s:27684  .debug_str:000000000001e730 .LASF1517
C:\Users\CYMR90~1\AppData\Local\Temp\ccLPYcmd.s:29708  .debug_str:000000000002659c .LASF1518
C:\Users\CYMR90~1\AppData\Local\Temp\ccLPYcmd.s:24613  .debug_str:0000000000012271 .LASF1519
C:\Users\CYMR90~1\AppData\Local\Temp\ccLPYcmd.s:28074  .debug_str:000000000001ff1a .LASF1520
C:\Users\CYMR90~1\AppData\Local\Temp\ccLPYcmd.s:27122  .debug_str:000000000001c303 .LASF1521
C:\Users\CYMR90~1\AppData\Local\Temp\ccLPYcmd.s:28404  .debug_str:00000000000212b9 .LASF1522
C:\Users\CYMR90~1\AppData\Local\Temp\ccLPYcmd.s:26394  .debug_str:000000000001935c .LASF1523
C:\Users\CYMR90~1\AppData\Local\Temp\ccLPYcmd.s:29060  .debug_str:0000000000023aa0 .LASF1524
C:\Users\CYMR90~1\AppData\Local\Temp\ccLPYcmd.s:21343  .debug_str:00000000000052d8 .LASF1525
C:\Users\CYMR90~1\AppData\Local\Temp\ccLPYcmd.s:27064  .debug_str:000000000001bf8b .LASF1526
C:\Users\CYMR90~1\AppData\Local\Temp\ccLPYcmd.s:23157  .debug_str:000000000000c6df .LASF1527
C:\Users\CYMR90~1\AppData\Local\Temp\ccLPYcmd.s:28816  .debug_str:0000000000022c0e .LASF1528
C:\Users\CYMR90~1\AppData\Local\Temp\ccLPYcmd.s:30074  .debug_str:0000000000027ce2 .LASF1529
C:\Users\CYMR90~1\AppData\Local\Temp\ccLPYcmd.s:29312  .debug_str:0000000000024a9d .LASF1530
C:\Users\CYMR90~1\AppData\Local\Temp\ccLPYcmd.s:29376  .debug_str:0000000000024f09 .LASF1531
C:\Users\CYMR90~1\AppData\Local\Temp\ccLPYcmd.s:21083  .debug_str:0000000000004190 .LASF1532
C:\Users\CYMR90~1\AppData\Local\Temp\ccLPYcmd.s:26344  .debug_str:0000000000018fa3 .LASF1533
C:\Users\CYMR90~1\AppData\Local\Temp\ccLPYcmd.s:29188  .debug_str:00000000000241ac .LASF1534
C:\Users\CYMR90~1\AppData\Local\Temp\ccLPYcmd.s:22715  .debug_str:000000000000a8ff .LASF1535
C:\Users\CYMR90~1\AppData\Local\Temp\ccLPYcmd.s:29380  .debug_str:0000000000024f7b .LASF1536
C:\Users\CYMR90~1\AppData\Local\Temp\ccLPYcmd.s:28718  .debug_str:000000000002261f .LASF1537
C:\Users\CYMR90~1\AppData\Local\Temp\ccLPYcmd.s:29950  .debug_str:00000000000274cd .LASF1538
C:\Users\CYMR90~1\AppData\Local\Temp\ccLPYcmd.s:29842  .debug_str:0000000000026de4 .LASF1539
C:\Users\CYMR90~1\AppData\Local\Temp\ccLPYcmd.s:24493  .debug_str:0000000000011ae8 .LASF1540
C:\Users\CYMR90~1\AppData\Local\Temp\ccLPYcmd.s:30568  .debug_str:0000000000029d8e .LASF1541
C:\Users\CYMR90~1\AppData\Local\Temp\ccLPYcmd.s:23483  .debug_str:000000000000dc1e .LASF1542
C:\Users\CYMR90~1\AppData\Local\Temp\ccLPYcmd.s:30680  .debug_str:000000000002a41a .LASF1543
C:\Users\CYMR90~1\AppData\Local\Temp\ccLPYcmd.s:24049  .debug_str:000000000000feae .LASF1544
C:\Users\CYMR90~1\AppData\Local\Temp\ccLPYcmd.s:22091  .debug_str:000000000000822a .LASF1545
C:\Users\CYMR90~1\AppData\Local\Temp\ccLPYcmd.s:22567  .debug_str:0000000000009f96 .LASF1546
C:\Users\CYMR90~1\AppData\Local\Temp\ccLPYcmd.s:23213  .debug_str:000000000000cad5 .LASF1547
C:\Users\CYMR90~1\AppData\Local\Temp\ccLPYcmd.s:30156  .debug_str:0000000000028290 .LASF1548
C:\Users\CYMR90~1\AppData\Local\Temp\ccLPYcmd.s:29642  .debug_str:0000000000026184 .LASF1549
C:\Users\CYMR90~1\AppData\Local\Temp\ccLPYcmd.s:27012  .debug_str:000000000001bbd1 .LASF1550
C:\Users\CYMR90~1\AppData\Local\Temp\ccLPYcmd.s:24357  .debug_str:00000000000111a5 .LASF1551
C:\Users\CYMR90~1\AppData\Local\Temp\ccLPYcmd.s:26982  .debug_str:000000000001ba23 .LASF1552
C:\Users\CYMR90~1\AppData\Local\Temp\ccLPYcmd.s:20317  .debug_str:0000000000001160 .LASF1553
C:\Users\CYMR90~1\AppData\Local\Temp\ccLPYcmd.s:20631  .debug_str:0000000000002460 .LASF1554
C:\Users\CYMR90~1\AppData\Local\Temp\ccLPYcmd.s:27720  .debug_str:000000000001e9a9 .LASF1555
C:\Users\CYMR90~1\AppData\Local\Temp\ccLPYcmd.s:26296  .debug_str:0000000000018ca5 .LASF1556
C:\Users\CYMR90~1\AppData\Local\Temp\ccLPYcmd.s:26320  .debug_str:0000000000018e33 .LASF1557
C:\Users\CYMR90~1\AppData\Local\Temp\ccLPYcmd.s:30662  .debug_str:000000000002a2d8 .LASF1558
C:\Users\CYMR90~1\AppData\Local\Temp\ccLPYcmd.s:24197  .debug_str:00000000000107c5 .LASF1559
C:\Users\CYMR90~1\AppData\Local\Temp\ccLPYcmd.s:29070  .debug_str:0000000000023b19 .LASF1560
C:\Users\CYMR90~1\AppData\Local\Temp\ccLPYcmd.s:29502  .debug_str:000000000002584d .LASF1561
C:\Users\CYMR90~1\AppData\Local\Temp\ccLPYcmd.s:24309  .debug_str:0000000000010ee5 .LASF1562
C:\Users\CYMR90~1\AppData\Local\Temp\ccLPYcmd.s:21525  .debug_str:0000000000005dbd .LASF1563
C:\Users\CYMR90~1\AppData\Local\Temp\ccLPYcmd.s:31168  .debug_str:000000000002c214 .LASF1564
C:\Users\CYMR90~1\AppData\Local\Temp\ccLPYcmd.s:21707  .debug_str:0000000000006841 .LASF1565
C:\Users\CYMR90~1\AppData\Local\Temp\ccLPYcmd.s:27422  .debug_str:000000000001d6b4 .LASF1566
C:\Users\CYMR90~1\AppData\Local\Temp\ccLPYcmd.s:26686  .debug_str:000000000001a739 .LASF1567
C:\Users\CYMR90~1\AppData\Local\Temp\ccLPYcmd.s:28198  .debug_str:0000000000020686 .LASF1568
C:\Users\CYMR90~1\AppData\Local\Temp\ccLPYcmd.s:24491  .debug_str:0000000000011a41 .LASF1569
C:\Users\CYMR90~1\AppData\Local\Temp\ccLPYcmd.s:29532  .debug_str:0000000000025a7a .LASF1570
C:\Users\CYMR90~1\AppData\Local\Temp\ccLPYcmd.s:24885  .debug_str:0000000000013460 .LASF1571
C:\Users\CYMR90~1\AppData\Local\Temp\ccLPYcmd.s:21391  .debug_str:00000000000055ce .LASF1572
C:\Users\CYMR90~1\AppData\Local\Temp\ccLPYcmd.s:25317  .debug_str:0000000000014eba .LASF1573
C:\Users\CYMR90~1\AppData\Local\Temp\ccLPYcmd.s:30272  .debug_str:0000000000028b27 .LASF1574
C:\Users\CYMR90~1\AppData\Local\Temp\ccLPYcmd.s:25788  .debug_str:0000000000016dc4 .LASF1575
C:\Users\CYMR90~1\AppData\Local\Temp\ccLPYcmd.s:23855  .debug_str:000000000000f244 .LASF1576
C:\Users\CYMR90~1\AppData\Local\Temp\ccLPYcmd.s:26838  .debug_str:000000000001b18b .LASF1577
C:\Users\CYMR90~1\AppData\Local\Temp\ccLPYcmd.s:30772  .debug_str:000000000002a991 .LASF1578
C:\Users\CYMR90~1\AppData\Local\Temp\ccLPYcmd.s:20641  .debug_str:00000000000024eb .LASF1579
C:\Users\CYMR90~1\AppData\Local\Temp\ccLPYcmd.s:27268  .debug_str:000000000001cc48 .LASF1580
C:\Users\CYMR90~1\AppData\Local\Temp\ccLPYcmd.s:22681  .debug_str:000000000000a6da .LASF1581
C:\Users\CYMR90~1\AppData\Local\Temp\ccLPYcmd.s:21833  .debug_str:0000000000007038 .LASF1582
C:\Users\CYMR90~1\AppData\Local\Temp\ccLPYcmd.s:22079  .debug_str:00000000000080f1 .LASF1583
C:\Users\CYMR90~1\AppData\Local\Temp\ccLPYcmd.s:29952  .debug_str:00000000000274eb .LASF1584
C:\Users\CYMR90~1\AppData\Local\Temp\ccLPYcmd.s:27524  .debug_str:000000000001dd3c .LASF1585
C:\Users\CYMR90~1\AppData\Local\Temp\ccLPYcmd.s:31382  .debug_str:000000000002d027 .LASF1586
C:\Users\CYMR90~1\AppData\Local\Temp\ccLPYcmd.s:23373  .debug_str:000000000000d4fa .LASF1587
C:\Users\CYMR90~1\AppData\Local\Temp\ccLPYcmd.s:22039  .debug_str:0000000000007de9 .LASF1588
C:\Users\CYMR90~1\AppData\Local\Temp\ccLPYcmd.s:25763  .debug_str:0000000000016a15 .LASF1589
C:\Users\CYMR90~1\AppData\Local\Temp\ccLPYcmd.s:22901  .debug_str:000000000000b5d9 .LASF1590
C:\Users\CYMR90~1\AppData\Local\Temp\ccLPYcmd.s:25687  .debug_str:000000000001647b .LASF1591
C:\Users\CYMR90~1\AppData\Local\Temp\ccLPYcmd.s:22283  .debug_str:0000000000008df2 .LASF1592
C:\Users\CYMR90~1\AppData\Local\Temp\ccLPYcmd.s:24877  .debug_str:000000000001337b .LASF1593
C:\Users\CYMR90~1\AppData\Local\Temp\ccLPYcmd.s:30452  .debug_str:00000000000295d9 .LASF1594
C:\Users\CYMR90~1\AppData\Local\Temp\ccLPYcmd.s:30188  .debug_str:00000000000284f0 .LASF1595
C:\Users\CYMR90~1\AppData\Local\Temp\ccLPYcmd.s:20279  .debug_str:0000000000000ec5 .LASF1596
C:\Users\CYMR90~1\AppData\Local\Temp\ccLPYcmd.s:27294  .debug_str:000000000001cdfa .LASF1597
C:\Users\CYMR90~1\AppData\Local\Temp\ccLPYcmd.s:21201  .debug_str:00000000000049b6 .LASF1598
C:\Users\CYMR90~1\AppData\Local\Temp\ccLPYcmd.s:29452  .debug_str:0000000000025416 .LASF1599
C:\Users\CYMR90~1\AppData\Local\Temp\ccLPYcmd.s:20425  .debug_str:00000000000017dd .LASF1600
C:\Users\CYMR90~1\AppData\Local\Temp\ccLPYcmd.s:23941  .debug_str:000000000000f769 .LASF1601
C:\Users\CYMR90~1\AppData\Local\Temp\ccLPYcmd.s:28432  .debug_str:0000000000021452 .LASF1602
C:\Users\CYMR90~1\AppData\Local\Temp\ccLPYcmd.s:27320  .debug_str:000000000001d019 .LASF1603
C:\Users\CYMR90~1\AppData\Local\Temp\ccLPYcmd.s:27214  .debug_str:000000000001c84b .LASF1604
C:\Users\CYMR90~1\AppData\Local\Temp\ccLPYcmd.s:29430  .debug_str:0000000000025231 .LASF1605
C:\Users\CYMR90~1\AppData\Local\Temp\ccLPYcmd.s:29354  .debug_str:0000000000024d9b .LASF1606
C:\Users\CYMR90~1\AppData\Local\Temp\ccLPYcmd.s:29304  .debug_str:0000000000024a35 .LASF1607
C:\Users\CYMR90~1\AppData\Local\Temp\ccLPYcmd.s:26240  .debug_str:000000000001887a .LASF1608
C:\Users\CYMR90~1\AppData\Local\Temp\ccLPYcmd.s:21179  .debug_str:0000000000004829 .LASF1609
C:\Users\CYMR90~1\AppData\Local\Temp\ccLPYcmd.s:28646  .debug_str:0000000000022214 .LASF1610
C:\Users\CYMR90~1\AppData\Local\Temp\ccLPYcmd.s:31292  .debug_str:000000000002ca73 .LASF1611
C:\Users\CYMR90~1\AppData\Local\Temp\ccLPYcmd.s:27162  .debug_str:000000000001c521 .LASF1612
C:\Users\CYMR90~1\AppData\Local\Temp\ccLPYcmd.s:25195  .debug_str:0000000000014775 .LASF1613
C:\Users\CYMR90~1\AppData\Local\Temp\ccLPYcmd.s:22551  .debug_str:0000000000009ea0 .LASF1614
C:\Users\CYMR90~1\AppData\Local\Temp\ccLPYcmd.s:26832  .debug_str:000000000001b107 .LASF1615
C:\Users\CYMR90~1\AppData\Local\Temp\ccLPYcmd.s:28530  .debug_str:0000000000021ae7 .LASF1616
C:\Users\CYMR90~1\AppData\Local\Temp\ccLPYcmd.s:25291  .debug_str:0000000000014cc1 .LASF1617
C:\Users\CYMR90~1\AppData\Local\Temp\ccLPYcmd.s:27226  .debug_str:000000000001c9b8 .LASF1618
C:\Users\CYMR90~1\AppData\Local\Temp\ccLPYcmd.s:21225  .debug_str:0000000000004bbf .LASF1619
C:\Users\CYMR90~1\AppData\Local\Temp\ccLPYcmd.s:22937  .debug_str:000000000000b8b9 .LASF1620
C:\Users\CYMR90~1\AppData\Local\Temp\ccLPYcmd.s:23777  .debug_str:000000000000ede7 .LASF1621
C:\Users\CYMR90~1\AppData\Local\Temp\ccLPYcmd.s:20789  .debug_str:0000000000002ecc .LASF1622
C:\Users\CYMR90~1\AppData\Local\Temp\ccLPYcmd.s:28228  .debug_str:000000000002089d .LASF1623
C:\Users\CYMR90~1\AppData\Local\Temp\ccLPYcmd.s:24879  .debug_str:0000000000013416 .LASF1624
C:\Users\CYMR90~1\AppData\Local\Temp\ccLPYcmd.s:23039  .debug_str:000000000000bfc4 .LASF1625
C:\Users\CYMR90~1\AppData\Local\Temp\ccLPYcmd.s:28940  .debug_str:000000000002333f .LASF1626
C:\Users\CYMR90~1\AppData\Local\Temp\ccLPYcmd.s:21703  .debug_str:0000000000006813 .LASF1627
C:\Users\CYMR90~1\AppData\Local\Temp\ccLPYcmd.s:27966  .debug_str:000000000001f86d .LASF1628
C:\Users\CYMR90~1\AppData\Local\Temp\ccLPYcmd.s:22795  .debug_str:000000000000aec8 .LASF1629
C:\Users\CYMR90~1\AppData\Local\Temp\ccLPYcmd.s:28728  .debug_str:000000000002268b .LASF1630
C:\Users\CYMR90~1\AppData\Local\Temp\ccLPYcmd.s:22265  .debug_str:0000000000008d1e .LASF1631
C:\Users\CYMR90~1\AppData\Local\Temp\ccLPYcmd.s:20383  .debug_str:0000000000001572 .LASF1632
C:\Users\CYMR90~1\AppData\Local\Temp\ccLPYcmd.s:26960  .debug_str:000000000001b93b .LASF1633
C:\Users\CYMR90~1\AppData\Local\Temp\ccLPYcmd.s:25924  .debug_str:00000000000175a0 .LASF1634
C:\Users\CYMR90~1\AppData\Local\Temp\ccLPYcmd.s:23019  .debug_str:000000000000be54 .LASF1635
C:\Users\CYMR90~1\AppData\Local\Temp\ccLPYcmd.s:23127  .debug_str:000000000000c51e .LASF1636
C:\Users\CYMR90~1\AppData\Local\Temp\ccLPYcmd.s:26802  .debug_str:000000000001af2f .LASF1637
C:\Users\CYMR90~1\AppData\Local\Temp\ccLPYcmd.s:23197  .debug_str:000000000000c9c2 .LASF1638
C:\Users\CYMR90~1\AppData\Local\Temp\ccLPYcmd.s:22911  .debug_str:000000000000b6fe .LASF1639
C:\Users\CYMR90~1\AppData\Local\Temp\ccLPYcmd.s:26140  .debug_str:000000000001828c .LASF1640
C:\Users\CYMR90~1\AppData\Local\Temp\ccLPYcmd.s:24149  .debug_str:00000000000104ce .LASF1641
C:\Users\CYMR90~1\AppData\Local\Temp\ccLPYcmd.s:29292  .debug_str:0000000000024973 .LASF1642
C:\Users\CYMR90~1\AppData\Local\Temp\ccLPYcmd.s:24501  .debug_str:0000000000011b6a .LASF1643
C:\Users\CYMR90~1\AppData\Local\Temp\ccLPYcmd.s:28112  .debug_str:000000000002016a .LASF1644
C:\Users\CYMR90~1\AppData\Local\Temp\ccLPYcmd.s:31258  .debug_str:000000000002c8bd .LASF1645
C:\Users\CYMR90~1\AppData\Local\Temp\ccLPYcmd.s:20779  .debug_str:0000000000002e3c .LASF1646
C:\Users\CYMR90~1\AppData\Local\Temp\ccLPYcmd.s:25725  .debug_str:0000000000016751 .LASF1647
C:\Users\CYMR90~1\AppData\Local\Temp\ccLPYcmd.s:25834  .debug_str:00000000000170a3 .LASF1648
C:\Users\CYMR90~1\AppData\Local\Temp\ccLPYcmd.s:20579  .debug_str:0000000000002164 .LASF1649
C:\Users\CYMR90~1\AppData\Local\Temp\ccLPYcmd.s:22107  .debug_str:0000000000008361 .LASF1650
C:\Users\CYMR90~1\AppData\Local\Temp\ccLPYcmd.s:28956  .debug_str:000000000002343f .LASF1651
C:\Users\CYMR90~1\AppData\Local\Temp\ccLPYcmd.s:24245  .debug_str:0000000000010a50 .LASF1652
C:\Users\CYMR90~1\AppData\Local\Temp\ccLPYcmd.s:21997  .debug_str:0000000000007b03 .LASF1653
C:\Users\CYMR90~1\AppData\Local\Temp\ccLPYcmd.s:20321  .debug_str:00000000000011b7 .LASF1654
C:\Users\CYMR90~1\AppData\Local\Temp\ccLPYcmd.s:26034  .debug_str:0000000000017c47 .LASF1657
C:\Users\CYMR90~1\AppData\Local\Temp\ccLPYcmd.s:30822  .debug_str:000000000002acb4 .LASF1658
C:\Users\CYMR90~1\AppData\Local\Temp\ccLPYcmd.s:24277  .debug_str:0000000000010d5d .LASF1659
C:\Users\CYMR90~1\AppData\Local\Temp\ccLPYcmd.s:26368  .debug_str:0000000000019202 .LASF1660
C:\Users\CYMR90~1\AppData\Local\Temp\ccLPYcmd.s:31068  .debug_str:000000000002bb8f .LASF1661
C:\Users\CYMR90~1\AppData\Local\Temp\ccLPYcmd.s:31102  .debug_str:000000000002bdf1 .LASF1662
C:\Users\CYMR90~1\AppData\Local\Temp\ccLPYcmd.s:28316  .debug_str:0000000000020dd0 .LASF1663
C:\Users\CYMR90~1\AppData\Local\Temp\ccLPYcmd.s:25249  .debug_str:0000000000014a4d .LASF1664
C:\Users\CYMR90~1\AppData\Local\Temp\ccLPYcmd.s:27470  .debug_str:000000000001da07 .LASF1665
C:\Users\CYMR90~1\AppData\Local\Temp\ccLPYcmd.s:28406  .debug_str:00000000000212d4 .LASF1666
C:\Users\CYMR90~1\AppData\Local\Temp\ccLPYcmd.s:23979  .debug_str:000000000000fa52 .LASF1667
C:\Users\CYMR90~1\AppData\Local\Temp\ccLPYcmd.s:23687  .debug_str:000000000000e89a .LASF1668
C:\Users\CYMR90~1\AppData\Local\Temp\ccLPYcmd.s:21015  .debug_str:0000000000003d14 .LASF1669
C:\Users\CYMR90~1\AppData\Local\Temp\ccLPYcmd.s:22303  .debug_str:0000000000008f8c .LASF1670
C:\Users\CYMR90~1\AppData\Local\Temp\ccLPYcmd.s:21239  .debug_str:0000000000004c9d .LASF1671
C:\Users\CYMR90~1\AppData\Local\Temp\ccLPYcmd.s:20121  .debug_str:000000000000055a .LASF1672
C:\Users\CYMR90~1\AppData\Local\Temp\ccLPYcmd.s:25171  .debug_str:00000000000145a8 .LASF1673
C:\Users\CYMR90~1\AppData\Local\Temp\ccLPYcmd.s:24573  .debug_str:0000000000011f8c .LASF1674
C:\Users\CYMR90~1\AppData\Local\Temp\ccLPYcmd.s:23727  .debug_str:000000000000eb07 .LASF1675
C:\Users\CYMR90~1\AppData\Local\Temp\ccLPYcmd.s:29318  .debug_str:0000000000024b88 .LASF1676
C:\Users\CYMR90~1\AppData\Local\Temp\ccLPYcmd.s:24707  .debug_str:000000000001286e .LASF1677
C:\Users\CYMR90~1\AppData\Local\Temp\ccLPYcmd.s:31260  .debug_str:000000000002c8d2 .LASF1678
C:\Users\CYMR90~1\AppData\Local\Temp\ccLPYcmd.s:20689  .debug_str:000000000000281d .LASF1679
C:\Users\CYMR90~1\AppData\Local\Temp\ccLPYcmd.s:28672  .debug_str:00000000000223ab .LASF1680
C:\Users\CYMR90~1\AppData\Local\Temp\ccLPYcmd.s:25419  .debug_str:0000000000015479 .LASF1681
C:\Users\CYMR90~1\AppData\Local\Temp\ccLPYcmd.s:24069  .debug_str:0000000000010003 .LASF1682
C:\Users\CYMR90~1\AppData\Local\Temp\ccLPYcmd.s:26786  .debug_str:000000000001adb2 .LASF1683
C:\Users\CYMR90~1\AppData\Local\Temp\ccLPYcmd.s:28906  .debug_str:0000000000023181 .LASF1684
C:\Users\CYMR90~1\AppData\Local\Temp\ccLPYcmd.s:29834  .debug_str:0000000000026d89 .LASF1685
C:\Users\CYMR90~1\AppData\Local\Temp\ccLPYcmd.s:24225  .debug_str:000000000001095e .LASF1686
C:\Users\CYMR90~1\AppData\Local\Temp\ccLPYcmd.s:28210  .debug_str:0000000000020784 .LASF1687
C:\Users\CYMR90~1\AppData\Local\Temp\ccLPYcmd.s:30558  .debug_str:0000000000029ce3 .LASF1688
C:\Users\CYMR90~1\AppData\Local\Temp\ccLPYcmd.s:29088  .debug_str:0000000000023c41 .LASF1689
C:\Users\CYMR90~1\AppData\Local\Temp\ccLPYcmd.s:26916  .debug_str:000000000001b622 .LASF1690
C:\Users\CYMR90~1\AppData\Local\Temp\ccLPYcmd.s:24969  .debug_str:00000000000139a1 .LASF1691
C:\Users\CYMR90~1\AppData\Local\Temp\ccLPYcmd.s:28628  .debug_str:00000000000220fd .LASF1692
C:\Users\CYMR90~1\AppData\Local\Temp\ccLPYcmd.s:26228  .debug_str:00000000000187c1 .LASF1693
C:\Users\CYMR90~1\AppData\Local\Temp\ccLPYcmd.s:22101  .debug_str:00000000000082ed .LASF1694
C:\Users\CYMR90~1\AppData\Local\Temp\ccLPYcmd.s:24143  .debug_str:000000000001046f .LASF1695
C:\Users\CYMR90~1\AppData\Local\Temp\ccLPYcmd.s:26004  .debug_str:0000000000017a8b .LASF1696
C:\Users\CYMR90~1\AppData\Local\Temp\ccLPYcmd.s:25299  .debug_str:0000000000014d54 .LASF1697
C:\Users\CYMR90~1\AppData\Local\Temp\ccLPYcmd.s:27862  .debug_str:000000000001f24b .LASF1698
C:\Users\CYMR90~1\AppData\Local\Temp\ccLPYcmd.s:26404  .debug_str:0000000000019423 .LASF1699
C:\Users\CYMR90~1\AppData\Local\Temp\ccLPYcmd.s:28326  .debug_str:0000000000020e6b .LASF1700
C:\Users\CYMR90~1\AppData\Local\Temp\ccLPYcmd.s:27858  .debug_str:000000000001f20e .LASF1701
C:\Users\CYMR90~1\AppData\Local\Temp\ccLPYcmd.s:29134  .debug_str:0000000000023eab .LASF1702
C:\Users\CYMR90~1\AppData\Local\Temp\ccLPYcmd.s:29094  .debug_str:0000000000023c90 .LASF1703
C:\Users\CYMR90~1\AppData\Local\Temp\ccLPYcmd.s:28618  .debug_str:0000000000022063 .LASF1704
C:\Users\CYMR90~1\AppData\Local\Temp\ccLPYcmd.s:27044  .debug_str:000000000001be13 .LASF1705
C:\Users\CYMR90~1\AppData\Local\Temp\ccLPYcmd.s:28474  .debug_str:000000000002176f .LASF1706
C:\Users\CYMR90~1\AppData\Local\Temp\ccLPYcmd.s:24577  .debug_str:0000000000011fdc .LASF1707
C:\Users\CYMR90~1\AppData\Local\Temp\ccLPYcmd.s:24881  .debug_str:0000000000013429 .LASF1708
C:\Users\CYMR90~1\AppData\Local\Temp\ccLPYcmd.s:27614  .debug_str:000000000001e32f .LASF1709
C:\Users\CYMR90~1\AppData\Local\Temp\ccLPYcmd.s:26142  .debug_str:00000000000182a1 .LASF1710
C:\Users\CYMR90~1\AppData\Local\Temp\ccLPYcmd.s:23021  .debug_str:000000000000be69 .LASF1711
C:\Users\CYMR90~1\AppData\Local\Temp\ccLPYcmd.s:24521  .debug_str:0000000000011c7d .LASF1712
C:\Users\CYMR90~1\AppData\Local\Temp\ccLPYcmd.s:21631  .debug_str:00000000000063cc .LASF1713
C:\Users\CYMR90~1\AppData\Local\Temp\ccLPYcmd.s:23985  .debug_str:000000000000faaf .LASF1714
C:\Users\CYMR90~1\AppData\Local\Temp\ccLPYcmd.s:20911  .debug_str:000000000000368f .LASF1715
C:\Users\CYMR90~1\AppData\Local\Temp\ccLPYcmd.s:24223  .debug_str:0000000000010932 .LASF1716
C:\Users\CYMR90~1\AppData\Local\Temp\ccLPYcmd.s:27582  .debug_str:000000000001e149 .LASF1717
C:\Users\CYMR90~1\AppData\Local\Temp\ccLPYcmd.s:26106  .debug_str:0000000000018086 .LASF1718
C:\Users\CYMR90~1\AppData\Local\Temp\ccLPYcmd.s:24463  .debug_str:0000000000011806 .LASF1719
C:\Users\CYMR90~1\AppData\Local\Temp\ccLPYcmd.s:26468  .debug_str:000000000001982a .LASF1720
C:\Users\CYMR90~1\AppData\Local\Temp\ccLPYcmd.s:24961  .debug_str:000000000001391e .LASF1721
C:\Users\CYMR90~1\AppData\Local\Temp\ccLPYcmd.s:20617  .debug_str:00000000000023a7 .LASF1722
C:\Users\CYMR90~1\AppData\Local\Temp\ccLPYcmd.s:26794  .debug_str:000000000001ae4c .LASF1723
C:\Users\CYMR90~1\AppData\Local\Temp\ccLPYcmd.s:20681  .debug_str:00000000000027a7 .LASF1724
C:\Users\CYMR90~1\AppData\Local\Temp\ccLPYcmd.s:25487  .debug_str:0000000000015831 .LASF1725
C:\Users\CYMR90~1\AppData\Local\Temp\ccLPYcmd.s:30356  .debug_str:000000000002900a .LASF1726
C:\Users\CYMR90~1\AppData\Local\Temp\ccLPYcmd.s:28766  .debug_str:00000000000228ee .LASF1727
C:\Users\CYMR90~1\AppData\Local\Temp\ccLPYcmd.s:29996  .debug_str:000000000002783b .LASF1728
C:\Users\CYMR90~1\AppData\Local\Temp\ccLPYcmd.s:27266  .debug_str:000000000001cc11 .LASF1729
C:\Users\CYMR90~1\AppData\Local\Temp\ccLPYcmd.s:31172  .debug_str:000000000002c2d3 .LASF1730
C:\Users\CYMR90~1\AppData\Local\Temp\ccLPYcmd.s:29824  .debug_str:0000000000026cee .LASF1731
C:\Users\CYMR90~1\AppData\Local\Temp\ccLPYcmd.s:24397  .debug_str:00000000000113e4 .LASF1732
C:\Users\CYMR90~1\AppData\Local\Temp\ccLPYcmd.s:22413  .debug_str:00000000000095c2 .LASF1733
C:\Users\CYMR90~1\AppData\Local\Temp\ccLPYcmd.s:20385  .debug_str:0000000000001585 .LASF1734
C:\Users\CYMR90~1\AppData\Local\Temp\ccLPYcmd.s:25864  .debug_str:000000000001723e .LASF1735
C:\Users\CYMR90~1\AppData\Local\Temp\ccLPYcmd.s:28036  .debug_str:000000000001fcb2 .LASF1736
C:\Users\CYMR90~1\AppData\Local\Temp\ccLPYcmd.s:22405  .debug_str:000000000000954c .LASF1737
C:\Users\CYMR90~1\AppData\Local\Temp\ccLPYcmd.s:22121  .debug_str:000000000000843d .LASF1738
C:\Users\CYMR90~1\AppData\Local\Temp\ccLPYcmd.s:29830  .debug_str:0000000000026d5a .LASF1739
C:\Users\CYMR90~1\AppData\Local\Temp\ccLPYcmd.s:23751  .debug_str:000000000000ec95 .LASF1740
C:\Users\CYMR90~1\AppData\Local\Temp\ccLPYcmd.s:22749  .debug_str:000000000000abd0 .LASF1741
C:\Users\CYMR90~1\AppData\Local\Temp\ccLPYcmd.s:27884  .debug_str:000000000001f392 .LASF1742
C:\Users\CYMR90~1\AppData\Local\Temp\ccLPYcmd.s:23245  .debug_str:000000000000cd09 .LASF1743
C:\Users\CYMR90~1\AppData\Local\Temp\ccLPYcmd.s:30110  .debug_str:0000000000027f77 .LASF1744
C:\Users\CYMR90~1\AppData\Local\Temp\ccLPYcmd.s:22127  .debug_str:00000000000084af .LASF1745
C:\Users\CYMR90~1\AppData\Local\Temp\ccLPYcmd.s:24041  .debug_str:000000000000fe25 .LASF1746
C:\Users\CYMR90~1\AppData\Local\Temp\ccLPYcmd.s:29138  .debug_str:0000000000023ef1 .LASF1747
C:\Users\CYMR90~1\AppData\Local\Temp\ccLPYcmd.s:28736  .debug_str:00000000000226f7 .LASF1748
C:\Users\CYMR90~1\AppData\Local\Temp\ccLPYcmd.s:24221  .debug_str:000000000001090f .LASF1749
C:\Users\CYMR90~1\AppData\Local\Temp\ccLPYcmd.s:22907  .debug_str:000000000000b6b5 .LASF1750
C:\Users\CYMR90~1\AppData\Local\Temp\ccLPYcmd.s:26040  .debug_str:0000000000017c9d .LASF1751
C:\Users\CYMR90~1\AppData\Local\Temp\ccLPYcmd.s:21273  .debug_str:0000000000004e91 .LASF1752
C:\Users\CYMR90~1\AppData\Local\Temp\ccLPYcmd.s:26774  .debug_str:000000000001acf7 .LASF1753
C:\Users\CYMR90~1\AppData\Local\Temp\ccLPYcmd.s:26670  .debug_str:000000000001a615 .LASF1754
C:\Users\CYMR90~1\AppData\Local\Temp\ccLPYcmd.s:23187  .debug_str:000000000000c8c1 .LASF1755
C:\Users\CYMR90~1\AppData\Local\Temp\ccLPYcmd.s:24777  .debug_str:0000000000012d0c .LASF1756
C:\Users\CYMR90~1\AppData\Local\Temp\ccLPYcmd.s:26868  .debug_str:000000000001b373 .LASF1757
C:\Users\CYMR90~1\AppData\Local\Temp\ccLPYcmd.s:23843  .debug_str:000000000000f15f .LASF1758
C:\Users\CYMR90~1\AppData\Local\Temp\ccLPYcmd.s:21939  .debug_str:0000000000007744 .LASF1759
C:\Users\CYMR90~1\AppData\Local\Temp\ccLPYcmd.s:26614  .debug_str:000000000001a154 .LASF1760
C:\Users\CYMR90~1\AppData\Local\Temp\ccLPYcmd.s:22231  .debug_str:0000000000008b0e .LASF1761
C:\Users\CYMR90~1\AppData\Local\Temp\ccLPYcmd.s:20447  .debug_str:00000000000019e7 .LASF1762
C:\Users\CYMR90~1\AppData\Local\Temp\ccLPYcmd.s:29334  .debug_str:0000000000024c57 .LASF1763
C:\Users\CYMR90~1\AppData\Local\Temp\ccLPYcmd.s:21971  .debug_str:0000000000007967 .LASF1764
C:\Users\CYMR90~1\AppData\Local\Temp\ccLPYcmd.s:21645  .debug_str:00000000000064c5 .LASF1765
C:\Users\CYMR90~1\AppData\Local\Temp\ccLPYcmd.s:20427  .debug_str:0000000000001893 .LASF1766
C:\Users\CYMR90~1\AppData\Local\Temp\ccLPYcmd.s:26988  .debug_str:000000000001ba7c .LASF1767
C:\Users\CYMR90~1\AppData\Local\Temp\ccLPYcmd.s:20487  .debug_str:0000000000001c4d .LASF1768
C:\Users\CYMR90~1\AppData\Local\Temp\ccLPYcmd.s:29534  .debug_str:0000000000025b08 .LASF1769
C:\Users\CYMR90~1\AppData\Local\Temp\ccLPYcmd.s:31244  .debug_str:000000000002c7cc .LASF1770
C:\Users\CYMR90~1\AppData\Local\Temp\ccLPYcmd.s:23073  .debug_str:000000000000c1d0 .LASF1771
C:\Users\CYMR90~1\AppData\Local\Temp\ccLPYcmd.s:22655  .debug_str:000000000000a552 .LASF1772
C:\Users\CYMR90~1\AppData\Local\Temp\ccLPYcmd.s:20155  .debug_str:0000000000000756 .LASF1773
C:\Users\CYMR90~1\AppData\Local\Temp\ccLPYcmd.s:20207  .debug_str:0000000000000a36 .LASF1774
C:\Users\CYMR90~1\AppData\Local\Temp\ccLPYcmd.s:30262  .debug_str:0000000000028a68 .LASF1775
C:\Users\CYMR90~1\AppData\Local\Temp\ccLPYcmd.s:25187  .debug_str:00000000000146e1 .LASF1776
C:\Users\CYMR90~1\AppData\Local\Temp\ccLPYcmd.s:23923  .debug_str:000000000000f667 .LASF1777
C:\Users\CYMR90~1\AppData\Local\Temp\ccLPYcmd.s:26030  .debug_str:0000000000017c16 .LASF1778
C:\Users\CYMR90~1\AppData\Local\Temp\ccLPYcmd.s:21367  .debug_str:000000000000544f .LASF1779
C:\Users\CYMR90~1\AppData\Local\Temp\ccLPYcmd.s:29572  .debug_str:0000000000025d77 .LASF1780
C:\Users\CYMR90~1\AppData\Local\Temp\ccLPYcmd.s:28770  .debug_str:0000000000022957 .LASF1781
C:\Users\CYMR90~1\AppData\Local\Temp\ccLPYcmd.s:27274  .debug_str:000000000001cca6 .LASF1784
C:\Users\CYMR90~1\AppData\Local\Temp\ccLPYcmd.s:26414  .debug_str:00000000000194be .LASF1785
C:\Users\CYMR90~1\AppData\Local\Temp\ccLPYcmd.s:26262  .debug_str:00000000000189e2 .LASF1786
C:\Users\CYMR90~1\AppData\Local\Temp\ccLPYcmd.s:25233  .debug_str:0000000000014986 .LASF1787
C:\Users\CYMR90~1\AppData\Local\Temp\ccLPYcmd.s:30698  .debug_str:000000000002a4fb .LASF1788
C:\Users\CYMR90~1\AppData\Local\Temp\ccLPYcmd.s:22615  .debug_str:000000000000a2b5 .LASF1789
C:\Users\CYMR90~1\AppData\Local\Temp\ccLPYcmd.s:20953  .debug_str:0000000000003948 .LASF1790
C:\Users\CYMR90~1\AppData\Local\Temp\ccLPYcmd.s:20065  .debug_str:0000000000000223 .LASF1791
C:\Users\CYMR90~1\AppData\Local\Temp\ccLPYcmd.s:29914  .debug_str:0000000000027288 .LASF1792
C:\Users\CYMR90~1\AppData\Local\Temp\ccLPYcmd.s:28988  .debug_str:00000000000235fb .LASF1793
C:\Users\CYMR90~1\AppData\Local\Temp\ccLPYcmd.s:30890  .debug_str:000000000002b08f .LASF1794
C:\Users\CYMR90~1\AppData\Local\Temp\ccLPYcmd.s:30194  .debug_str:00000000000285c9 .LASF1795
C:\Users\CYMR90~1\AppData\Local\Temp\ccLPYcmd.s:24893  .debug_str:00000000000134f3 .LASF1796
C:\Users\CYMR90~1\AppData\Local\Temp\ccLPYcmd.s:25175  .debug_str:00000000000145ea .LASF1797
C:\Users\CYMR90~1\AppData\Local\Temp\ccLPYcmd.s:24281  .debug_str:0000000000010d7a .LASF1798
C:\Users\CYMR90~1\AppData\Local\Temp\ccLPYcmd.s:23101  .debug_str:000000000000c39e .LASF1799
C:\Users\CYMR90~1\AppData\Local\Temp\ccLPYcmd.s:21805  .debug_str:0000000000006eb6 .LASF1800
C:\Users\CYMR90~1\AppData\Local\Temp\ccLPYcmd.s:26254  .debug_str:0000000000018974 .LASF1801
C:\Users\CYMR90~1\AppData\Local\Temp\ccLPYcmd.s:25321  .debug_str:0000000000014ef4 .LASF1802
C:\Users\CYMR90~1\AppData\Local\Temp\ccLPYcmd.s:24341  .debug_str:00000000000110c4 .LASF1803
C:\Users\CYMR90~1\AppData\Local\Temp\ccLPYcmd.s:23821  .debug_str:000000000000f033 .LASF1804
C:\Users\CYMR90~1\AppData\Local\Temp\ccLPYcmd.s:28564  .debug_str:0000000000021d11 .LASF1805
C:\Users\CYMR90~1\AppData\Local\Temp\ccLPYcmd.s:25197  .debug_str:0000000000014799 .LASF1806
C:\Users\CYMR90~1\AppData\Local\Temp\ccLPYcmd.s:28154  .debug_str:0000000000020395 .LASF1807
C:\Users\CYMR90~1\AppData\Local\Temp\ccLPYcmd.s:25345  .debug_str:000000000001503a .LASF1808
C:\Users\CYMR90~1\AppData\Local\Temp\ccLPYcmd.s:30184  .debug_str:00000000000284af .LASF1809
C:\Users\CYMR90~1\AppData\Local\Temp\ccLPYcmd.s:27366  .debug_str:000000000001d377 .LASF1810
C:\Users\CYMR90~1\AppData\Local\Temp\ccLPYcmd.s:26046  .debug_str:0000000000017d12 .LASF1811
C:\Users\CYMR90~1\AppData\Local\Temp\ccLPYcmd.s:20407  .debug_str:00000000000016b9 .LASF1812
C:\Users\CYMR90~1\AppData\Local\Temp\ccLPYcmd.s:24233  .debug_str:00000000000109bd .LASF1813
C:\Users\CYMR90~1\AppData\Local\Temp\ccLPYcmd.s:24505  .debug_str:0000000000011b9c .LASF1814
C:\Users\CYMR90~1\AppData\Local\Temp\ccLPYcmd.s:27348  .debug_str:000000000001d27f .LASF1815
C:\Users\CYMR90~1\AppData\Local\Temp\ccLPYcmd.s:26010  .debug_str:0000000000017afd .LASF1816
C:\Users\CYMR90~1\AppData\Local\Temp\ccLPYcmd.s:27356  .debug_str:000000000001d2fd .LASF1817
C:\Users\CYMR90~1\AppData\Local\Temp\ccLPYcmd.s:27806  .debug_str:000000000001eea1 .LASF1818
C:\Users\CYMR90~1\AppData\Local\Temp\ccLPYcmd.s:24037  .debug_str:000000000000fded .LASF1819
C:\Users\CYMR90~1\AppData\Local\Temp\ccLPYcmd.s:28298  .debug_str:0000000000020cab .LASF1820
C:\Users\CYMR90~1\AppData\Local\Temp\ccLPYcmd.s:21673  .debug_str:000000000000665d .LASF1821
C:\Users\CYMR90~1\AppData\Local\Temp\ccLPYcmd.s:22059  .debug_str:0000000000007fa3 .LASF1822
C:\Users\CYMR90~1\AppData\Local\Temp\ccLPYcmd.s:27742  .debug_str:000000000001eb09 .LASF1823
C:\Users\CYMR90~1\AppData\Local\Temp\ccLPYcmd.s:30468  .debug_str:000000000002975f .LASF1824
C:\Users\CYMR90~1\AppData\Local\Temp\ccLPYcmd.s:22975  .debug_str:000000000000bb60 .LASF1825
C:\Users\CYMR90~1\AppData\Local\Temp\ccLPYcmd.s:28392  .debug_str:00000000000211f4 .LASF1826
C:\Users\CYMR90~1\AppData\Local\Temp\ccLPYcmd.s:30828  .debug_str:000000000002acfd .LASF1827
C:\Users\CYMR90~1\AppData\Local\Temp\ccLPYcmd.s:23795  .debug_str:000000000000eed9 .LASF1828
C:\Users\CYMR90~1\AppData\Local\Temp\ccLPYcmd.s:23863  .debug_str:000000000000f2d3 .LASF1829
C:\Users\CYMR90~1\AppData\Local\Temp\ccLPYcmd.s:24651  .debug_str:00000000000124b8 .LASF1830
C:\Users\CYMR90~1\AppData\Local\Temp\ccLPYcmd.s:22433  .debug_str:0000000000009750 .LASF1831
C:\Users\CYMR90~1\AppData\Local\Temp\ccLPYcmd.s:29858  .debug_str:0000000000026ed8 .LASF1832
C:\Users\CYMR90~1\AppData\Local\Temp\ccLPYcmd.s:23243  .debug_str:000000000000ccee .LASF1833
C:\Users\CYMR90~1\AppData\Local\Temp\ccLPYcmd.s:21877  .debug_str:0000000000007370 .LASF1834
C:\Users\CYMR90~1\AppData\Local\Temp\ccLPYcmd.s:25639  .debug_str:00000000000161e9 .LASF1835
C:\Users\CYMR90~1\AppData\Local\Temp\ccLPYcmd.s:29722  .debug_str:000000000002666b .LASF1836
C:\Users\CYMR90~1\AppData\Local\Temp\ccLPYcmd.s:25609  .debug_str:0000000000016023 .LASF1837
C:\Users\CYMR90~1\AppData\Local\Temp\ccLPYcmd.s:26342  .debug_str:0000000000018f8b .LASF1838
C:\Users\CYMR90~1\AppData\Local\Temp\ccLPYcmd.s:24285  .debug_str:0000000000010db2 .LASF1839
C:\Users\CYMR90~1\AppData\Local\Temp\ccLPYcmd.s:27306  .debug_str:000000000001cf4b .LASF1840
C:\Users\CYMR90~1\AppData\Local\Temp\ccLPYcmd.s:26576  .debug_str:0000000000019f30 .LASF1841
C:\Users\CYMR90~1\AppData\Local\Temp\ccLPYcmd.s:29412  .debug_str:0000000000025145 .LASF1842
C:\Users\CYMR90~1\AppData\Local\Temp\ccLPYcmd.s:29814  .debug_str:0000000000026c4d .LASF1843
C:\Users\CYMR90~1\AppData\Local\Temp\ccLPYcmd.s:31034  .debug_str:000000000002b992 .LASF1844
C:\Users\CYMR90~1\AppData\Local\Temp\ccLPYcmd.s:30884  .debug_str:000000000002b03c .LASF1845
C:\Users\CYMR90~1\AppData\Local\Temp\ccLPYcmd.s:22161  .debug_str:00000000000086bf .LASF1846
C:\Users\CYMR90~1\AppData\Local\Temp\ccLPYcmd.s:27508  .debug_str:000000000001dc2b .LASF1847
C:\Users\CYMR90~1\AppData\Local\Temp\ccLPYcmd.s:20325  .debug_str:0000000000001208 .LASF1848
C:\Users\CYMR90~1\AppData\Local\Temp\ccLPYcmd.s:28688  .debug_str:0000000000022489 .LASF1849
C:\Users\CYMR90~1\AppData\Local\Temp\ccLPYcmd.s:27894  .debug_str:000000000001f430 .LASF1850
C:\Users\CYMR90~1\AppData\Local\Temp\ccLPYcmd.s:22223  .debug_str:0000000000008a8b .LASF1851
C:\Users\CYMR90~1\AppData\Local\Temp\ccLPYcmd.s:29764  .debug_str:0000000000026930 .LASF1852
C:\Users\CYMR90~1\AppData\Local\Temp\ccLPYcmd.s:23485  .debug_str:000000000000dc3b .LASF1853
C:\Users\CYMR90~1\AppData\Local\Temp\ccLPYcmd.s:20859  .debug_str:0000000000003326 .LASF1854
C:\Users\CYMR90~1\AppData\Local\Temp\ccLPYcmd.s:27386  .debug_str:000000000001d4bc .LASF1855
C:\Users\CYMR90~1\AppData\Local\Temp\ccLPYcmd.s:30034  .debug_str:0000000000027a63 .LASF1856
C:\Users\CYMR90~1\AppData\Local\Temp\ccLPYcmd.s:22309  .debug_str:0000000000008ff7 .LASF1857
C:\Users\CYMR90~1\AppData\Local\Temp\ccLPYcmd.s:23169  .debug_str:000000000000c7b5 .LASF1858
C:\Users\CYMR90~1\AppData\Local\Temp\ccLPYcmd.s:30132  .debug_str:00000000000280fe .LASF1859
C:\Users\CYMR90~1\AppData\Local\Temp\ccLPYcmd.s:25351  .debug_str:000000000001509b .LASF1860
C:\Users\CYMR90~1\AppData\Local\Temp\ccLPYcmd.s:26284  .debug_str:0000000000018bd6 .LASF1861
C:\Users\CYMR90~1\AppData\Local\Temp\ccLPYcmd.s:21093  .debug_str:00000000000042c3 .LASF1862
C:\Users\CYMR90~1\AppData\Local\Temp\ccLPYcmd.s:21831  .debug_str:0000000000007011 .LASF1863
C:\Users\CYMR90~1\AppData\Local\Temp\ccLPYcmd.s:26194  .debug_str:000000000001859d .LASF1864
C:\Users\CYMR90~1\AppData\Local\Temp\ccLPYcmd.s:21473  .debug_str:0000000000005a8e .LASF1865
C:\Users\CYMR90~1\AppData\Local\Temp\ccLPYcmd.s:28874  .debug_str:0000000000022fc5 .LASF1866
C:\Users\CYMR90~1\AppData\Local\Temp\ccLPYcmd.s:28082  .debug_str:000000000001ff9d .LASF1867
C:\Users\CYMR90~1\AppData\Local\Temp\ccLPYcmd.s:23099  .debug_str:000000000000c36e .LASF1868
C:\Users\CYMR90~1\AppData\Local\Temp\ccLPYcmd.s:20187  .debug_str:000000000000091b .LASF1869
C:\Users\CYMR90~1\AppData\Local\Temp\ccLPYcmd.s:20555  .debug_str:0000000000002021 .LASF1870
C:\Users\CYMR90~1\AppData\Local\Temp\ccLPYcmd.s:30416  .debug_str:000000000002939b .LASF1871
C:\Users\CYMR90~1\AppData\Local\Temp\ccLPYcmd.s:29510  .debug_str:00000000000258e5 .LASF1872
C:\Users\CYMR90~1\AppData\Local\Temp\ccLPYcmd.s:25179  .debug_str:0000000000014637 .LASF1873
C:\Users\CYMR90~1\AppData\Local\Temp\ccLPYcmd.s:22005  .debug_str:0000000000007bbd .LASF1874
C:\Users\CYMR90~1\AppData\Local\Temp\ccLPYcmd.s:22887  .debug_str:000000000000b4e7 .LASF1875
C:\Users\CYMR90~1\AppData\Local\Temp\ccLPYcmd.s:30600  .debug_str:0000000000029f4b .LASF1876
C:\Users\CYMR90~1\AppData\Local\Temp\ccLPYcmd.s:26804  .debug_str:000000000001af44 .LASF1877
C:\Users\CYMR90~1\AppData\Local\Temp\ccLPYcmd.s:27572  .debug_str:000000000001e0af .LASF1878
C:\Users\CYMR90~1\AppData\Local\Temp\ccLPYcmd.s:23927  .debug_str:000000000000f6a0 .LASF1879
C:\Users\CYMR90~1\AppData\Local\Temp\ccLPYcmd.s:22267  .debug_str:0000000000008d35 .LASF1880
C:\Users\CYMR90~1\AppData\Local\Temp\ccLPYcmd.s:27874  .debug_str:000000000001f2f3 .LASF1881
C:\Users\CYMR90~1\AppData\Local\Temp\ccLPYcmd.s:20305  .debug_str:00000000000010c1 .LASF1882
C:\Users\CYMR90~1\AppData\Local\Temp\ccLPYcmd.s:28288  .debug_str:0000000000020be9 .LASF1883
C:\Users\CYMR90~1\AppData\Local\Temp\ccLPYcmd.s:31030  .debug_str:000000000002b94a .LASF1884
C:\Users\CYMR90~1\AppData\Local\Temp\ccLPYcmd.s:27984  .debug_str:000000000001f97d .LASF1885
C:\Users\CYMR90~1\AppData\Local\Temp\ccLPYcmd.s:30148  .debug_str:00000000000281fe .LASF1886
C:\Users\CYMR90~1\AppData\Local\Temp\ccLPYcmd.s:22487  .debug_str:0000000000009ae0 .LASF1887
C:\Users\CYMR90~1\AppData\Local\Temp\ccLPYcmd.s:22299  .debug_str:0000000000008f4e .LASF1888
C:\Users\CYMR90~1\AppData\Local\Temp\ccLPYcmd.s:31064  .debug_str:000000000002bb4d .LASF1889
C:\Users\CYMR90~1\AppData\Local\Temp\ccLPYcmd.s:26430  .debug_str:000000000001957d .LASF1890
C:\Users\CYMR90~1\AppData\Local\Temp\ccLPYcmd.s:22479  .debug_str:0000000000009a3a .LASF1891
C:\Users\CYMR90~1\AppData\Local\Temp\ccLPYcmd.s:28428  .debug_str:0000000000021411 .LASF1892
C:\Users\CYMR90~1\AppData\Local\Temp\ccLPYcmd.s:27196  .debug_str:000000000001c71a .LASF1893
C:\Users\CYMR90~1\AppData\Local\Temp\ccLPYcmd.s:22291  .debug_str:0000000000008ed9 .LASF1894
C:\Users\CYMR90~1\AppData\Local\Temp\ccLPYcmd.s:23551  .debug_str:000000000000e057 .LASF1895
C:\Users\CYMR90~1\AppData\Local\Temp\ccLPYcmd.s:25874  .debug_str:00000000000172d3 .LASF1896
C:\Users\CYMR90~1\AppData\Local\Temp\ccLPYcmd.s:20507  .debug_str:0000000000001d76 .LASF1897
C:\Users\CYMR90~1\AppData\Local\Temp\ccLPYcmd.s:29882  .debug_str:0000000000027089 .LASF1898
C:\Users\CYMR90~1\AppData\Local\Temp\ccLPYcmd.s:26676  .debug_str:000000000001a687 .LASF1899
C:\Users\CYMR90~1\AppData\Local\Temp\ccLPYcmd.s:23375  .debug_str:000000000000d5b2 .LASF1900
C:\Users\CYMR90~1\AppData\Local\Temp\ccLPYcmd.s:20103  .debug_str:0000000000000449 .LASF1901
C:\Users\CYMR90~1\AppData\Local\Temp\ccLPYcmd.s:20937  .debug_str:0000000000003820 .LASF1902
C:\Users\CYMR90~1\AppData\Local\Temp\ccLPYcmd.s:22999  .debug_str:000000000000bc89 .LASF1903
C:\Users\CYMR90~1\AppData\Local\Temp\ccLPYcmd.s:31308  .debug_str:000000000002cb91 .LASF1904
C:\Users\CYMR90~1\AppData\Local\Temp\ccLPYcmd.s:25743  .debug_str:00000000000168ba .LASF1905
C:\Users\CYMR90~1\AppData\Local\Temp\ccLPYcmd.s:22449  .debug_str:000000000000980b .LASF1906
C:\Users\CYMR90~1\AppData\Local\Temp\ccLPYcmd.s:30228  .debug_str:00000000000287df .LASF1907
C:\Users\CYMR90~1\AppData\Local\Temp\ccLPYcmd.s:27234  .debug_str:000000000001ca2e .LASF1908
C:\Users\CYMR90~1\AppData\Local\Temp\ccLPYcmd.s:21461  .debug_str:00000000000059cb .LASF1909
C:\Users\CYMR90~1\AppData\Local\Temp\ccLPYcmd.s:30586  .debug_str:0000000000029e81 .LASF1910
C:\Users\CYMR90~1\AppData\Local\Temp\ccLPYcmd.s:26854  .debug_str:000000000001b295 .LASF1911
C:\Users\CYMR90~1\AppData\Local\Temp\ccLPYcmd.s:26532  .debug_str:0000000000019cb0 .LASF1912
C:\Users\CYMR90~1\AppData\Local\Temp\ccLPYcmd.s:22905  .debug_str:000000000000b696 .LASF1913
C:\Users\CYMR90~1\AppData\Local\Temp\ccLPYcmd.s:22745  .debug_str:000000000000ab78 .LASF1914
C:\Users\CYMR90~1\AppData\Local\Temp\ccLPYcmd.s:28188  .debug_str:00000000000205cd .LASF1915
C:\Users\CYMR90~1\AppData\Local\Temp\ccLPYcmd.s:29484  .debug_str:00000000000256fe .LASF1916
C:\Users\CYMR90~1\AppData\Local\Temp\ccLPYcmd.s:26044  .debug_str:0000000000017ce6 .LASF1917
C:\Users\CYMR90~1\AppData\Local\Temp\ccLPYcmd.s:22649  .debug_str:000000000000a4ed .LASF1918
C:\Users\CYMR90~1\AppData\Local\Temp\ccLPYcmd.s:30646  .debug_str:000000000002a1e8 .LASF1919
C:\Users\CYMR90~1\AppData\Local\Temp\ccLPYcmd.s:27206  .debug_str:000000000001c7c1 .LASF1920
C:\Users\CYMR90~1\AppData\Local\Temp\ccLPYcmd.s:22945  .debug_str:000000000000b945 .LASF1921
C:\Users\CYMR90~1\AppData\Local\Temp\ccLPYcmd.s:21851  .debug_str:000000000000715b .LASF1922
C:\Users\CYMR90~1\AppData\Local\Temp\ccLPYcmd.s:28258  .debug_str:0000000000020a35 .LASF1923
C:\Users\CYMR90~1\AppData\Local\Temp\ccLPYcmd.s:30370  .debug_str:00000000000290f6 .LASF1924
C:\Users\CYMR90~1\AppData\Local\Temp\ccLPYcmd.s:22765  .debug_str:000000000000ace3 .LASF1925
C:\Users\CYMR90~1\AppData\Local\Temp\ccLPYcmd.s:28078  .debug_str:000000000001ff52 .LASF1926
C:\Users\CYMR90~1\AppData\Local\Temp\ccLPYcmd.s:27096  .debug_str:000000000001c161 .LASF1927
C:\Users\CYMR90~1\AppData\Local\Temp\ccLPYcmd.s:20975  .debug_str:0000000000003a9a .LASF1928
C:\Users\CYMR90~1\AppData\Local\Temp\ccLPYcmd.s:21901  .debug_str:00000000000074f0 .LASF1929
C:\Users\CYMR90~1\AppData\Local\Temp\ccLPYcmd.s:28004  .debug_str:000000000001fab9 .LASF1930
C:\Users\CYMR90~1\AppData\Local\Temp\ccLPYcmd.s:31336  .debug_str:000000000002cd7e .LASF1931
C:\Users\CYMR90~1\AppData\Local\Temp\ccLPYcmd.s:31022  .debug_str:000000000002b8b0 .LASF1932
C:\Users\CYMR90~1\AppData\Local\Temp\ccLPYcmd.s:22017  .debug_str:0000000000007c67 .LASF1933
C:\Users\CYMR90~1\AppData\Local\Temp\ccLPYcmd.s:23079  .debug_str:000000000000c243 .LASF1934
C:\Users\CYMR90~1\AppData\Local\Temp\ccLPYcmd.s:27176  .debug_str:000000000001c5d8 .LASF1935
C:\Users\CYMR90~1\AppData\Local\Temp\ccLPYcmd.s:21503  .debug_str:0000000000005c86 .LASF1936
C:\Users\CYMR90~1\AppData\Local\Temp\ccLPYcmd.s:27030  .debug_str:000000000001bd16 .LASF1937
C:\Users\CYMR90~1\AppData\Local\Temp\ccLPYcmd.s:25992  .debug_str:00000000000179e0 .LASF1938
C:\Users\CYMR90~1\AppData\Local\Temp\ccLPYcmd.s:25301  .debug_str:0000000000014d80 .LASF1939
C:\Users\CYMR90~1\AppData\Local\Temp\ccLPYcmd.s:22205  .debug_str:0000000000008941 .LASF1940
C:\Users\CYMR90~1\AppData\Local\Temp\ccLPYcmd.s:30436  .debug_str:00000000000294ff .LASF1941
C:\Users\CYMR90~1\AppData\Local\Temp\ccLPYcmd.s:27286  .debug_str:000000000001cd63 .LASF1942
C:\Users\CYMR90~1\AppData\Local\Temp\ccLPYcmd.s:23139  .debug_str:000000000000c5c3 .LASF1943
C:\Users\CYMR90~1\AppData\Local\Temp\ccLPYcmd.s:24267  .debug_str:0000000000010c2c .LASF1944
C:\Users\CYMR90~1\AppData\Local\Temp\ccLPYcmd.s:28116  .debug_str:00000000000201a6 .LASF1945
C:\Users\CYMR90~1\AppData\Local\Temp\ccLPYcmd.s:25007  .debug_str:0000000000013bc6 .LASF1946
C:\Users\CYMR90~1\AppData\Local\Temp\ccLPYcmd.s:21795  .debug_str:0000000000006df2 .LASF1947
C:\Users\CYMR90~1\AppData\Local\Temp\ccLPYcmd.s:20711  .debug_str:00000000000029c6 .LASF1948
C:\Users\CYMR90~1\AppData\Local\Temp\ccLPYcmd.s:26914  .debug_str:000000000001b603 .LASF1949
C:\Users\CYMR90~1\AppData\Local\Temp\ccLPYcmd.s:23811  .debug_str:000000000000ef8d .LASF1950
C:\Users\CYMR90~1\AppData\Local\Temp\ccLPYcmd.s:20577  .debug_str:0000000000002145 .LASF1951
C:\Users\CYMR90~1\AppData\Local\Temp\ccLPYcmd.s:28892  .debug_str:00000000000230b2 .LASF1952
C:\Users\CYMR90~1\AppData\Local\Temp\ccLPYcmd.s:29618  .debug_str:0000000000026035 .LASF1953
C:\Users\CYMR90~1\AppData\Local\Temp\ccLPYcmd.s:25133  .debug_str:0000000000014396 .LASF1954
C:\Users\CYMR90~1\AppData\Local\Temp\ccLPYcmd.s:28410  .debug_str:000000000002130e .LASF1955
C:\Users\CYMR90~1\AppData\Local\Temp\ccLPYcmd.s:29090  .debug_str:0000000000023c59 .LASF1956
C:\Users\CYMR90~1\AppData\Local\Temp\ccLPYcmd.s:20633  .debug_str:000000000000248a .LASF1957
C:\Users\CYMR90~1\AppData\Local\Temp\ccLPYcmd.s:30854  .debug_str:000000000002ae70 .LASF1958
C:\Users\CYMR90~1\AppData\Local\Temp\ccLPYcmd.s:22023  .debug_str:0000000000007cd8 .LASF1959
C:\Users\CYMR90~1\AppData\Local\Temp\ccLPYcmd.s:30418  .debug_str:00000000000293da .LASF1960
C:\Users\CYMR90~1\AppData\Local\Temp\ccLPYcmd.s:27242  .debug_str:000000000001cab4 .LASF1961
C:\Users\CYMR90~1\AppData\Local\Temp\ccLPYcmd.s:20147  .debug_str:00000000000006cc .LASF1962
C:\Users\CYMR90~1\AppData\Local\Temp\ccLPYcmd.s:25525  .debug_str:0000000000015a6e .LASF1963
C:\Users\CYMR90~1\AppData\Local\Temp\ccLPYcmd.s:29466  .debug_str:00000000000255b1 .LASF1964
C:\Users\CYMR90~1\AppData\Local\Temp\ccLPYcmd.s:21855  .debug_str:00000000000071c6 .LASF1965
C:\Users\CYMR90~1\AppData\Local\Temp\ccLPYcmd.s:27376  .debug_str:000000000001d400 .LASF1966
C:\Users\CYMR90~1\AppData\Local\Temp\ccLPYcmd.s:30960  .debug_str:000000000002b487 .LASF1967
C:\Users\CYMR90~1\AppData\Local\Temp\ccLPYcmd.s:28466  .debug_str:000000000002171c .LASF1968
C:\Users\CYMR90~1\AppData\Local\Temp\ccLPYcmd.s:28776  .debug_str:00000000000229b9 .LASF1969
C:\Users\CYMR90~1\AppData\Local\Temp\ccLPYcmd.s:21839  .debug_str:0000000000007089 .LASF1970
C:\Users\CYMR90~1\AppData\Local\Temp\ccLPYcmd.s:28780  .debug_str:00000000000229ea .LASF1971
C:\Users\CYMR90~1\AppData\Local\Temp\ccLPYcmd.s:29500  .debug_str:0000000000025825 .LASF1972
C:\Users\CYMR90~1\AppData\Local\Temp\ccLPYcmd.s:26520  .debug_str:0000000000019bf5 .LASF1973
C:\Users\CYMR90~1\AppData\Local\Temp\ccLPYcmd.s:26326  .debug_str:0000000000018e95 .LASF1974
C:\Users\CYMR90~1\AppData\Local\Temp\ccLPYcmd.s:30906  .debug_str:000000000002b190 .LASF1975
C:\Users\CYMR90~1\AppData\Local\Temp\ccLPYcmd.s:22041  .debug_str:0000000000007e9f .LASF1976
C:\Users\CYMR90~1\AppData\Local\Temp\ccLPYcmd.s:22399  .debug_str:0000000000009503 .LASF1977
C:\Users\CYMR90~1\AppData\Local\Temp\ccLPYcmd.s:28636  .debug_str:0000000000022163 .LASF1978
C:\Users\CYMR90~1\AppData\Local\Temp\ccLPYcmd.s:21327  .debug_str:00000000000051e3 .LASF1979
C:\Users\CYMR90~1\AppData\Local\Temp\ccLPYcmd.s:29402  .debug_str:000000000002509d .LASF1980
C:\Users\CYMR90~1\AppData\Local\Temp\ccLPYcmd.s:29258  .debug_str:0000000000024751 .LASF1981
C:\Users\CYMR90~1\AppData\Local\Temp\ccLPYcmd.s:29096  .debug_str:0000000000023cb4 .LASF1982
C:\Users\CYMR90~1\AppData\Local\Temp\ccLPYcmd.s:29932  .debug_str:0000000000027378 .LASF1983
C:\Users\CYMR90~1\AppData\Local\Temp\ccLPYcmd.s:30858  .debug_str:000000000002aec6 .LASF1984
C:\Users\CYMR90~1\AppData\Local\Temp\ccLPYcmd.s:27768  .debug_str:000000000001ec6b .LASF1985
C:\Users\CYMR90~1\AppData\Local\Temp\ccLPYcmd.s:26946  .debug_str:000000000001b814 .LASF1986
C:\Users\CYMR90~1\AppData\Local\Temp\ccLPYcmd.s:25209  .debug_str:000000000001482c .LASF1987
C:\Users\CYMR90~1\AppData\Local\Temp\ccLPYcmd.s:26224  .debug_str:0000000000018788 .LASF1988
C:\Users\CYMR90~1\AppData\Local\Temp\ccLPYcmd.s:23237  .debug_str:000000000000cc94 .LASF1989
C:\Users\CYMR90~1\AppData\Local\Temp\ccLPYcmd.s:21067  .debug_str:00000000000040a5 .LASF1990
C:\Users\CYMR90~1\AppData\Local\Temp\ccLPYcmd.s:23301  .debug_str:000000000000d045 .LASF1991
C:\Users\CYMR90~1\AppData\Local\Temp\ccLPYcmd.s:24189  .debug_str:0000000000010728 .LASF1992
C:\Users\CYMR90~1\AppData\Local\Temp\ccLPYcmd.s:21231  .debug_str:0000000000004c1f .LASF1993
C:\Users\CYMR90~1\AppData\Local\Temp\ccLPYcmd.s:20301  .debug_str:0000000000001091 .LASF1994
C:\Users\CYMR90~1\AppData\Local\Temp\ccLPYcmd.s:29518  .debug_str:0000000000025979 .LASF1995
C:\Users\CYMR90~1\AppData\Local\Temp\ccLPYcmd.s:20935  .debug_str:00000000000037ec .LASF1996
C:\Users\CYMR90~1\AppData\Local\Temp\ccLPYcmd.s:29982  .debug_str:000000000002777b .LASF1997
C:\Users\CYMR90~1\AppData\Local\Temp\ccLPYcmd.s:22177  .debug_str:0000000000008786 .LASF1998
C:\Users\CYMR90~1\AppData\Local\Temp\ccLPYcmd.s:26148  .debug_str:00000000000182f8 .LASF1999
C:\Users\CYMR90~1\AppData\Local\Temp\ccLPYcmd.s:25627  .debug_str:0000000000016138 .LASF2000
C:\Users\CYMR90~1\AppData\Local\Temp\ccLPYcmd.s:24431  .debug_str:0000000000011616 .LASF2001
C:\Users\CYMR90~1\AppData\Local\Temp\ccLPYcmd.s:28788  .debug_str:0000000000022a6b .LASF2002
C:\Users\CYMR90~1\AppData\Local\Temp\ccLPYcmd.s:30206  .debug_str:0000000000028692 .LASF2003
C:\Users\CYMR90~1\AppData\Local\Temp\ccLPYcmd.s:25163  .debug_str:0000000000014516 .LASF2004
C:\Users\CYMR90~1\AppData\Local\Temp\ccLPYcmd.s:28674  .debug_str:00000000000223c0 .LASF2005
C:\Users\CYMR90~1\AppData\Local\Temp\ccLPYcmd.s:25836  .debug_str:00000000000170b7 .LASF2006
C:\Users\CYMR90~1\AppData\Local\Temp\ccLPYcmd.s:31116  .debug_str:000000000002bee7 .LASF2007
C:\Users\CYMR90~1\AppData\Local\Temp\ccLPYcmd.s:21369  .debug_str:0000000000005477 .LASF2008
C:\Users\CYMR90~1\AppData\Local\Temp\ccLPYcmd.s:24927  .debug_str:0000000000013722 .LASF2009
C:\Users\CYMR90~1\AppData\Local\Temp\ccLPYcmd.s:27666  .debug_str:000000000001e63f .LASF2010
C:\Users\CYMR90~1\AppData\Local\Temp\ccLPYcmd.s:23265  .debug_str:000000000000ce48 .LASF2011
C:\Users\CYMR90~1\AppData\Local\Temp\ccLPYcmd.s:20489  .debug_str:0000000000001c78 .LASF2012
C:\Users\CYMR90~1\AppData\Local\Temp\ccLPYcmd.s:28972  .debug_str:0000000000023530 .LASF2013
C:\Users\CYMR90~1\AppData\Local\Temp\ccLPYcmd.s:28726  .debug_str:0000000000022673 .LASF2014
C:\Users\CYMR90~1\AppData\Local\Temp\ccLPYcmd.s:26654  .debug_str:000000000001a52f .LASF2015
C:\Users\CYMR90~1\AppData\Local\Temp\ccLPYcmd.s:30574  .debug_str:0000000000029dcd .LASF2016
C:\Users\CYMR90~1\AppData\Local\Temp\ccLPYcmd.s:28882  .debug_str:000000000002303f .LASF2017
C:\Users\CYMR90~1\AppData\Local\Temp\ccLPYcmd.s:31024  .debug_str:000000000002b8e0 .LASF2018
C:\Users\CYMR90~1\AppData\Local\Temp\ccLPYcmd.s:27418  .debug_str:000000000001d67e .LASF2019
C:\Users\CYMR90~1\AppData\Local\Temp\ccLPYcmd.s:27204  .debug_str:000000000001c7a6 .LASF2020
C:\Users\CYMR90~1\AppData\Local\Temp\ccLPYcmd.s:28926  .debug_str:000000000002328d .LASF2021
C:\Users\CYMR90~1\AppData\Local\Temp\ccLPYcmd.s:29922  .debug_str:00000000000272fa .LASF2022
C:\Users\CYMR90~1\AppData\Local\Temp\ccLPYcmd.s:26060  .debug_str:0000000000017e02 .LASF2023
C:\Users\CYMR90~1\AppData\Local\Temp\ccLPYcmd.s:29860  .debug_str:0000000000026eed .LASF2024
C:\Users\CYMR90~1\AppData\Local\Temp\ccLPYcmd.s:22973  .debug_str:000000000000bb45 .LASF2025
C:\Users\CYMR90~1\AppData\Local\Temp\ccLPYcmd.s:30974  .debug_str:000000000002b556 .LASF2026
C:\Users\CYMR90~1\AppData\Local\Temp\ccLPYcmd.s:20903  .debug_str:000000000000360d .LASF2027
C:\Users\CYMR90~1\AppData\Local\Temp\ccLPYcmd.s:28986  .debug_str:00000000000235dd .LASF2028
C:\Users\CYMR90~1\AppData\Local\Temp\ccLPYcmd.s:27972  .debug_str:000000000001f8a9 .LASF2029
C:\Users\CYMR90~1\AppData\Local\Temp\ccLPYcmd.s:30530  .debug_str:0000000000029b5c .LASF2030
C:\Users\CYMR90~1\AppData\Local\Temp\ccLPYcmd.s:26048  .debug_str:0000000000017d27 .LASF2031
C:\Users\CYMR90~1\AppData\Local\Temp\ccLPYcmd.s:22739  .debug_str:000000000000ab33 .LASF2032
C:\Users\CYMR90~1\AppData\Local\Temp\ccLPYcmd.s:23945  .debug_str:000000000000f855 .LASF2033
C:\Users\CYMR90~1\AppData\Local\Temp\ccLPYcmd.s:22951  .debug_str:000000000000b994 .LASF2034
C:\Users\CYMR90~1\AppData\Local\Temp\ccLPYcmd.s:24503  .debug_str:0000000000011b7f .LASF2035
C:\Users\CYMR90~1\AppData\Local\Temp\ccLPYcmd.s:28446  .debug_str:00000000000215d2 .LASF2036
C:\Users\CYMR90~1\AppData\Local\Temp\ccLPYcmd.s:28860  .debug_str:0000000000022ef8 .LASF2037
C:\Users\CYMR90~1\AppData\Local\Temp\ccLPYcmd.s:29446  .debug_str:00000000000253ac .LASF2038
C:\Users\CYMR90~1\AppData\Local\Temp\ccLPYcmd.s:24599  .debug_str:000000000001217a .LASF2039
C:\Users\CYMR90~1\AppData\Local\Temp\ccLPYcmd.s:26596  .debug_str:000000000001a05f .LASF2040
C:\Users\CYMR90~1\AppData\Local\Temp\ccLPYcmd.s:23295  .debug_str:000000000000cfd5 .LASF2041
C:\Users\CYMR90~1\AppData\Local\Temp\ccLPYcmd.s:20719  .debug_str:0000000000002a39 .LASF2042
C:\Users\CYMR90~1\AppData\Local\Temp\ccLPYcmd.s:31118  .debug_str:000000000002befc .LASF2043
C:\Users\CYMR90~1\AppData\Local\Temp\ccLPYcmd.s:31384  .debug_str:000000000002d0dd .LASF2044
C:\Users\CYMR90~1\AppData\Local\Temp\ccLPYcmd.s:24899  .debug_str:000000000001354c .LASF2045
C:\Users\CYMR90~1\AppData\Local\Temp\ccLPYcmd.s:28742  .debug_str:0000000000022765 .LASF2046
C:\Users\CYMR90~1\AppData\Local\Temp\ccLPYcmd.s:30382  .debug_str:00000000000291cd .LASF2047
C:\Users\CYMR90~1\AppData\Local\Temp\ccLPYcmd.s:27076  .debug_str:000000000001c034 .LASF2048
C:\Users\CYMR90~1\AppData\Local\Temp\ccLPYcmd.s:27624  .debug_str:000000000001e3b0 .LASF2049
C:\Users\CYMR90~1\AppData\Local\Temp\ccLPYcmd.s:21527  .debug_str:0000000000005dd7 .LASF2050
C:\Users\CYMR90~1\AppData\Local\Temp\ccLPYcmd.s:20889  .debug_str:0000000000003513 .LASF2051
C:\Users\CYMR90~1\AppData\Local\Temp\ccLPYcmd.s:22853  .debug_str:000000000000b309 .LASF2052
C:\Users\CYMR90~1\AppData\Local\Temp\ccLPYcmd.s:29482  .debug_str:00000000000256b7 .LASF2053
C:\Users\CYMR90~1\AppData\Local\Temp\ccLPYcmd.s:30812  .debug_str:000000000002ac14 .LASF2054
C:\Users\CYMR90~1\AppData\Local\Temp\ccLPYcmd.s:21335  .debug_str:000000000000526f .LASF2055
C:\Users\CYMR90~1\AppData\Local\Temp\ccLPYcmd.s:29818  .debug_str:0000000000026c84 .LASF2056
C:\Users\CYMR90~1\AppData\Local\Temp\ccLPYcmd.s:27786  .debug_str:000000000001ed62 .LASF2057
C:\Users\CYMR90~1\AppData\Local\Temp\ccLPYcmd.s:25892  .debug_str:00000000000173dd .LASF2058
C:\Users\CYMR90~1\AppData\Local\Temp\ccLPYcmd.s:22727  .debug_str:000000000000aa6a .LASF2059
C:\Users\CYMR90~1\AppData\Local\Temp\ccLPYcmd.s:23543  .debug_str:000000000000dfd5 .LASF2060
C:\Users\CYMR90~1\AppData\Local\Temp\ccLPYcmd.s:28244  .debug_str:0000000000020995 .LASF2061
C:\Users\CYMR90~1\AppData\Local\Temp\ccLPYcmd.s:25035  .debug_str:0000000000013d67 .LASF2062
C:\Users\CYMR90~1\AppData\Local\Temp\ccLPYcmd.s:20691  .debug_str:0000000000002856 .LASF2063
C:\Users\CYMR90~1\AppData\Local\Temp\ccLPYcmd.s:24311  .debug_str:0000000000010efc .LASF2064
C:\Users\CYMR90~1\AppData\Local\Temp\ccLPYcmd.s:27752  .debug_str:000000000001eb89 .LASF2065
C:\Users\CYMR90~1\AppData\Local\Temp\ccLPYcmd.s:22415  .debug_str:00000000000095e3 .LASF2066
C:\Users\CYMR90~1\AppData\Local\Temp\ccLPYcmd.s:22881  .debug_str:000000000000b489 .LASF2067
C:\Users\CYMR90~1\AppData\Local\Temp\ccLPYcmd.s:25998  .debug_str:0000000000017a41 .LASF2068
C:\Users\CYMR90~1\AppData\Local\Temp\ccLPYcmd.s:25599  .debug_str:0000000000015f6e .LASF2069
C:\Users\CYMR90~1\AppData\Local\Temp\ccLPYcmd.s:23433  .debug_str:000000000000d92f .LASF2070
C:\Users\CYMR90~1\AppData\Local\Temp\ccLPYcmd.s:21497  .debug_str:0000000000005c3f .LASF2071
C:\Users\CYMR90~1\AppData\Local\Temp\ccLPYcmd.s:24761  .debug_str:0000000000012c1b .LASF2072
C:\Users\CYMR90~1\AppData\Local\Temp\ccLPYcmd.s:23773  .debug_str:000000000000edba .LASF2073
C:\Users\CYMR90~1\AppData\Local\Temp\ccLPYcmd.s:23013  .debug_str:000000000000bdc7 .LASF2074
C:\Users\CYMR90~1\AppData\Local\Temp\ccLPYcmd.s:31194  .debug_str:000000000002c433 .LASF2075
C:\Users\CYMR90~1\AppData\Local\Temp\ccLPYcmd.s:22981  .debug_str:000000000000bbab .LASF2076
C:\Users\CYMR90~1\AppData\Local\Temp\ccLPYcmd.s:30460  .debug_str:00000000000296e4 .LASF2077
C:\Users\CYMR90~1\AppData\Local\Temp\ccLPYcmd.s:21349  .debug_str:0000000000005340 .LASF2078
C:\Users\CYMR90~1\AppData\Local\Temp\ccLPYcmd.s:20457  .debug_str:0000000000001a69 .LASF2079
C:\Users\CYMR90~1\AppData\Local\Temp\ccLPYcmd.s:29014  .debug_str:00000000000237b1 .LASF2080
C:\Users\CYMR90~1\AppData\Local\Temp\ccLPYcmd.s:30346  .debug_str:0000000000028f7a .LASF2081
C:\Users\CYMR90~1\AppData\Local\Temp\ccLPYcmd.s:30438  .debug_str:0000000000029527 .LASF2082
C:\Users\CYMR90~1\AppData\Local\Temp\ccLPYcmd.s:24625  .debug_str:00000000000122f6 .LASF2083
C:\Users\CYMR90~1\AppData\Local\Temp\ccLPYcmd.s:22063  .debug_str:0000000000007fe3 .LASF2084
C:\Users\CYMR90~1\AppData\Local\Temp\ccLPYcmd.s:28898  .debug_str:0000000000023110 .LASF2085
C:\Users\CYMR90~1\AppData\Local\Temp\ccLPYcmd.s:20353  .debug_str:000000000000138d .LASF2086
C:\Users\CYMR90~1\AppData\Local\Temp\ccLPYcmd.s:20201  .debug_str:00000000000009f7 .LASF2087
C:\Users\CYMR90~1\AppData\Local\Temp\ccLPYcmd.s:26860  .debug_str:000000000001b301 .LASF2088
C:\Users\CYMR90~1\AppData\Local\Temp\ccLPYcmd.s:27942  .debug_str:000000000001f708 .LASF2089
C:\Users\CYMR90~1\AppData\Local\Temp\ccLPYcmd.s:25824  .debug_str:0000000000016ffd .LASF2090
C:\Users\CYMR90~1\AppData\Local\Temp\ccLPYcmd.s:24559  .debug_str:0000000000011eba .LASF2091
C:\Users\CYMR90~1\AppData\Local\Temp\ccLPYcmd.s:25920  .debug_str:0000000000017561 .LASF2092
C:\Users\CYMR90~1\AppData\Local\Temp\ccLPYcmd.s:25063  .debug_str:0000000000013f18 .LASF2093
C:\Users\CYMR90~1\AppData\Local\Temp\ccLPYcmd.s:31188  .debug_str:000000000002c3df .LASF2094
C:\Users\CYMR90~1\AppData\Local\Temp\ccLPYcmd.s:21091  .debug_str:00000000000042a5 .LASF2095
C:\Users\CYMR90~1\AppData\Local\Temp\ccLPYcmd.s:22525  .debug_str:0000000000009d18 .LASF2096
C:\Users\CYMR90~1\AppData\Local\Temp\ccLPYcmd.s:20855  .debug_str:00000000000032c3 .LASF2097
C:\Users\CYMR90~1\AppData\Local\Temp\ccLPYcmd.s:29628  .debug_str:00000000000260d3 .LASF2098
C:\Users\CYMR90~1\AppData\Local\Temp\ccLPYcmd.s:24099  .debug_str:00000000000101e3 .LASF2099
C:\Users\CYMR90~1\AppData\Local\Temp\ccLPYcmd.s:22889  .debug_str:000000000000b510 .LASF2100
C:\Users\CYMR90~1\AppData\Local\Temp\ccLPYcmd.s:21671  .debug_str:000000000000663a .LASF2101
C:\Users\CYMR90~1\AppData\Local\Temp\ccLPYcmd.s:20767  .debug_str:0000000000002d4a .LASF2102
C:\Users\CYMR90~1\AppData\Local\Temp\ccLPYcmd.s:22563  .debug_str:0000000000009f4e .LASF2103
C:\Users\CYMR90~1\AppData\Local\Temp\ccLPYcmd.s:31144  .debug_str:000000000002c09f .LASF2104
C:\Users\CYMR90~1\AppData\Local\Temp\ccLPYcmd.s:25918  .debug_str:000000000001753d .LASF2105
C:\Users\CYMR90~1\AppData\Local\Temp\ccLPYcmd.s:20877  .debug_str:0000000000003439 .LASF2106
C:\Users\CYMR90~1\AppData\Local\Temp\ccLPYcmd.s:30406  .debug_str:0000000000029322 .LASF2107
C:\Users\CYMR90~1\AppData\Local\Temp\ccLPYcmd.s:24593  .debug_str:0000000000012100 .LASF2108
C:\Users\CYMR90~1\AppData\Local\Temp\ccLPYcmd.s:20893  .debug_str:0000000000003551 .LASF2109
C:\Users\CYMR90~1\AppData\Local\Temp\ccLPYcmd.s:23341  .debug_str:000000000000d2dc .LASF2110
C:\Users\CYMR90~1\AppData\Local\Temp\ccLPYcmd.s:25868  .debug_str:0000000000017276 .LASF2111
C:\Users\CYMR90~1\AppData\Local\Temp\ccLPYcmd.s:27962  .debug_str:000000000001f823 .LASF2112
C:\Users\CYMR90~1\AppData\Local\Temp\ccLPYcmd.s:30566  .debug_str:0000000000029d68 .LASF2113
C:\Users\CYMR90~1\AppData\Local\Temp\ccLPYcmd.s:29966  .debug_str:0000000000027673 .LASF2114
C:\Users\CYMR90~1\AppData\Local\Temp\ccLPYcmd.s:24953  .debug_str:0000000000013885 .LASF2115
C:\Users\CYMR90~1\AppData\Local\Temp\ccLPYcmd.s:26840  .debug_str:000000000001b1a4 .LASF2116
C:\Users\CYMR90~1\AppData\Local\Temp\ccLPYcmd.s:25145  .debug_str:0000000000014433 .LASF2117
C:\Users\CYMR90~1\AppData\Local\Temp\ccLPYcmd.s:29248  .debug_str:00000000000246d7 .LASF2118
C:\Users\CYMR90~1\AppData\Local\Temp\ccLPYcmd.s:27904  .debug_str:000000000001f4cf .LASF2119
C:\Users\CYMR90~1\AppData\Local\Temp\ccLPYcmd.s:20723  .debug_str:0000000000002a70 .LASF2120
C:\Users\CYMR90~1\AppData\Local\Temp\ccLPYcmd.s:28346  .debug_str:0000000000020f78 .LASF2121
C:\Users\CYMR90~1\AppData\Local\Temp\ccLPYcmd.s:22137  .debug_str:000000000000854d .LASF2122
C:\Users\CYMR90~1\AppData\Local\Temp\ccLPYcmd.s:25005  .debug_str:0000000000013ba2 .LASF2123
C:\Users\CYMR90~1\AppData\Local\Temp\ccLPYcmd.s:27650  .debug_str:000000000001e542 .LASF2124
C:\Users\CYMR90~1\AppData\Local\Temp\ccLPYcmd.s:24853  .debug_str:0000000000013215 .LASF2125
C:\Users\CYMR90~1\AppData\Local\Temp\ccLPYcmd.s:25990  .debug_str:00000000000179b9 .LASF2126
C:\Users\CYMR90~1\AppData\Local\Temp\ccLPYcmd.s:29946  .debug_str:0000000000027483 .LASF2127
C:\Users\CYMR90~1\AppData\Local\Temp\ccLPYcmd.s:28460  .debug_str:00000000000216a8 .LASF2128
C:\Users\CYMR90~1\AppData\Local\Temp\ccLPYcmd.s:24307  .debug_str:0000000000010ec1 .LASF2129
C:\Users\CYMR90~1\AppData\Local\Temp\ccLPYcmd.s:28362  .debug_str:0000000000021052 .LASF2130
C:\Users\CYMR90~1\AppData\Local\Temp\ccLPYcmd.s:26214  .debug_str:00000000000186db .LASF2131
C:\Users\CYMR90~1\AppData\Local\Temp\ccLPYcmd.s:28184  .debug_str:0000000000020588 .LASF2132
C:\Users\CYMR90~1\AppData\Local\Temp\ccLPYcmd.s:29778  .debug_str:0000000000026a2f .LASF2133
C:\Users\CYMR90~1\AppData\Local\Temp\ccLPYcmd.s:20863  .debug_str:0000000000003368 .LASF2134
C:\Users\CYMR90~1\AppData\Local\Temp\ccLPYcmd.s:20603  .debug_str:00000000000022c1 .LASF2135
C:\Users\CYMR90~1\AppData\Local\Temp\ccLPYcmd.s:26374  .debug_str:000000000001923f .LASF2136
C:\Users\CYMR90~1\AppData\Local\Temp\ccLPYcmd.s:30676  .debug_str:000000000002a3b3 .LASF2137
C:\Users\CYMR90~1\AppData\Local\Temp\ccLPYcmd.s:22139  .debug_str:0000000000008572 .LASF2138
C:\Users\CYMR90~1\AppData\Local\Temp\ccLPYcmd.s:28558  .debug_str:0000000000021cb3 .LASF2139
C:\Users\CYMR90~1\AppData\Local\Temp\ccLPYcmd.s:24407  .debug_str:0000000000011487 .LASF2140
C:\Users\CYMR90~1\AppData\Local\Temp\ccLPYcmd.s:23887  .debug_str:000000000000f45d .LASF2141
C:\Users\CYMR90~1\AppData\Local\Temp\ccLPYcmd.s:27922  .debug_str:000000000001f5dc .LASF2142
C:\Users\CYMR90~1\AppData\Local\Temp\ccLPYcmd.s:28484  .debug_str:000000000002180c .LASF2143
C:\Users\CYMR90~1\AppData\Local\Temp\ccLPYcmd.s:24693  .debug_str:000000000001279a .LASF2144
C:\Users\CYMR90~1\AppData\Local\Temp\ccLPYcmd.s:20895  .debug_str:0000000000003578 .LASF2145
C:\Users\CYMR90~1\AppData\Local\Temp\ccLPYcmd.s:20055  .debug_str:000000000000015d .LASF2146
C:\Users\CYMR90~1\AppData\Local\Temp\ccLPYcmd.s:20481  .debug_str:0000000000001bdc .LASF2147
C:\Users\CYMR90~1\AppData\Local\Temp\ccLPYcmd.s:25926  .debug_str:00000000000175b7 .LASF2148
C:\Users\CYMR90~1\AppData\Local\Temp\ccLPYcmd.s:25385  .debug_str:0000000000015299 .LASF2149
C:\Users\CYMR90~1\AppData\Local\Temp\ccLPYcmd.s:29968  .debug_str:000000000002769a .LASF2150
C:\Users\CYMR90~1\AppData\Local\Temp\ccLPYcmd.s:24955  .debug_str:00000000000138ac .LASF2151
C:\Users\CYMR90~1\AppData\Local\Temp\ccLPYcmd.s:23511  .debug_str:000000000000dd86 .LASF2152
C:\Users\CYMR90~1\AppData\Local\Temp\ccLPYcmd.s:30522  .debug_str:0000000000029afe .LASF2153
C:\Users\CYMR90~1\AppData\Local\Temp\ccLPYcmd.s:25705  .debug_str:000000000001662c .LASF2154
C:\Users\CYMR90~1\AppData\Local\Temp\ccLPYcmd.s:23549  .debug_str:000000000000e041 .LASF2155
C:\Users\CYMR90~1\AppData\Local\Temp\ccLPYcmd.s:20963  .debug_str:00000000000039ec .LASF2156
C:\Users\CYMR90~1\AppData\Local\Temp\ccLPYcmd.s:29934  .debug_str:000000000002739b .LASF2157
C:\Users\CYMR90~1\AppData\Local\Temp\ccLPYcmd.s:24343  .debug_str:00000000000110e8 .LASF2158
C:\Users\CYMR90~1\AppData\Local\Temp\ccLPYcmd.s:26276  .debug_str:0000000000018ad7 .LASF2159
C:\Users\CYMR90~1\AppData\Local\Temp\ccLPYcmd.s:29732  .debug_str:000000000002672c .LASF2160
C:\Users\CYMR90~1\AppData\Local\Temp\ccLPYcmd.s:22313  .debug_str:0000000000009039 .LASF2161
C:\Users\CYMR90~1\AppData\Local\Temp\ccLPYcmd.s:30658  .debug_str:000000000002a2a7 .LASF2162
C:\Users\CYMR90~1\AppData\Local\Temp\ccLPYcmd.s:31374  .debug_str:000000000002cfc9 .LASF2163
C:\Users\CYMR90~1\AppData\Local\Temp\ccLPYcmd.s:20997  .debug_str:0000000000003c23 .LASF2164
C:\Users\CYMR90~1\AppData\Local\Temp\ccLPYcmd.s:28996  .debug_str:0000000000023679 .LASF2165
C:\Users\CYMR90~1\AppData\Local\Temp\ccLPYcmd.s:26358  .debug_str:0000000000019160 .LASF2166
C:\Users\CYMR90~1\AppData\Local\Temp\ccLPYcmd.s:23881  .debug_str:000000000000f406 .LASF2167
C:\Users\CYMR90~1\AppData\Local\Temp\ccLPYcmd.s:22169  .debug_str:000000000000871a .LASF2168
C:\Users\CYMR90~1\AppData\Local\Temp\ccLPYcmd.s:27472  .debug_str:000000000001da2b .LASF2169
C:\Users\CYMR90~1\AppData\Local\Temp\ccLPYcmd.s:25649  .debug_str:000000000001628b .LASF2170
C:\Users\CYMR90~1\AppData\Local\Temp\ccLPYcmd.s:23661  .debug_str:000000000000e6db .LASF2171
C:\Users\CYMR90~1\AppData\Local\Temp\ccLPYcmd.s:23801  .debug_str:000000000000ef1b .LASF2172
C:\Users\CYMR90~1\AppData\Local\Temp\ccLPYcmd.s:27926  .debug_str:000000000001f613 .LASF2173
C:\Users\CYMR90~1\AppData\Local\Temp\ccLPYcmd.s:25587  .debug_str:0000000000015ea2 .LASF2174
C:\Users\CYMR90~1\AppData\Local\Temp\ccLPYcmd.s:24553  .debug_str:0000000000011e78 .LASF2175
C:\Users\CYMR90~1\AppData\Local\Temp\ccLPYcmd.s:27718  .debug_str:000000000001e98d .LASF2176
C:\Users\CYMR90~1\AppData\Local\Temp\ccLPYcmd.s:22891  .debug_str:000000000000b51f .LASF2177
C:\Users\CYMR90~1\AppData\Local\Temp\ccLPYcmd.s:28634  .debug_str:000000000002214c .LASF2178
C:\Users\CYMR90~1\AppData\Local\Temp\ccLPYcmd.s:22659  .debug_str:000000000000a5b2 .LASF2179
C:\Users\CYMR90~1\AppData\Local\Temp\ccLPYcmd.s:22013  .debug_str:0000000000007c31 .LASF2180
C:\Users\CYMR90~1\AppData\Local\Temp\ccLPYcmd.s:29648  .debug_str:0000000000026229 .LASF2181
C:\Users\CYMR90~1\AppData\Local\Temp\ccLPYcmd.s:23691  .debug_str:000000000000e8f6 .LASF2182
C:\Users\CYMR90~1\AppData\Local\Temp\ccLPYcmd.s:25623  .debug_str:0000000000016102 .LASF2183
C:\Users\CYMR90~1\AppData\Local\Temp\ccLPYcmd.s:21117  .debug_str:0000000000004406 .LASF2184
C:\Users\CYMR90~1\AppData\Local\Temp\ccLPYcmd.s:23971  .debug_str:000000000000f9f6 .LASF2185
C:\Users\CYMR90~1\AppData\Local\Temp\ccLPYcmd.s:30930  .debug_str:000000000002b2ea .LASF2186
C:\Users\CYMR90~1\AppData\Local\Temp\ccLPYcmd.s:27726  .debug_str:000000000001ea14 .LASF2187
C:\Users\CYMR90~1\AppData\Local\Temp\ccLPYcmd.s:22509  .debug_str:0000000000009c46 .LASF2188
C:\Users\CYMR90~1\AppData\Local\Temp\ccLPYcmd.s:26690  .debug_str:000000000001a7f3 .LASF2189
C:\Users\CYMR90~1\AppData\Local\Temp\ccLPYcmd.s:21053  .debug_str:0000000000003f63 .LASF2190
C:\Users\CYMR90~1\AppData\Local\Temp\ccLPYcmd.s:22611  .debug_str:000000000000a26b .LASF2191
C:\Users\CYMR90~1\AppData\Local\Temp\ccLPYcmd.s:27804  .debug_str:000000000001ee65 .LASF2192
C:\Users\CYMR90~1\AppData\Local\Temp\ccLPYcmd.s:20979  .debug_str:0000000000003ae7 .LASF2193
C:\Users\CYMR90~1\AppData\Local\Temp\ccLPYcmd.s:24437  .debug_str:000000000001166c .LASF2194
C:\Users\CYMR90~1\AppData\Local\Temp\ccLPYcmd.s:29198  .debug_str:000000000002430b .LASF2195
C:\Users\CYMR90~1\AppData\Local\Temp\ccLPYcmd.s:21961  .debug_str:00000000000078b1 .LASF2196
C:\Users\CYMR90~1\AppData\Local\Temp\ccLPYcmd.s:25315  .debug_str:0000000000014e79 .LASF2197
C:\Users\CYMR90~1\AppData\Local\Temp\ccLPYcmd.s:22239  .debug_str:0000000000008b87 .LASF2198
C:\Users\CYMR90~1\AppData\Local\Temp\ccLPYcmd.s:28178  .debug_str:000000000002053f .LASF2199
C:\Users\CYMR90~1\AppData\Local\Temp\ccLPYcmd.s:22753  .debug_str:000000000000ac12 .LASF2200
C:\Users\CYMR90~1\AppData\Local\Temp\ccLPYcmd.s:28702  .debug_str:000000000002254c .LASF2201
C:\Users\CYMR90~1\AppData\Local\Temp\ccLPYcmd.s:28008  .debug_str:000000000001fafa .LASF2202
C:\Users\CYMR90~1\AppData\Local\Temp\ccLPYcmd.s:29214  .debug_str:0000000000024456 .LASF2203
C:\Users\CYMR90~1\AppData\Local\Temp\ccLPYcmd.s:29804  .debug_str:0000000000026bc0 .LASF2204
C:\Users\CYMR90~1\AppData\Local\Temp\ccLPYcmd.s:29632  .debug_str:0000000000026106 .LASF2205
C:\Users\CYMR90~1\AppData\Local\Temp\ccLPYcmd.s:29266  .debug_str:00000000000247b8 .LASF2206
C:\Users\CYMR90~1\AppData\Local\Temp\ccLPYcmd.s:28312  .debug_str:0000000000020d8f .LASF2207
C:\Users\CYMR90~1\AppData\Local\Temp\ccLPYcmd.s:24151  .debug_str:00000000000104e3 .LASF2208
C:\Users\CYMR90~1\AppData\Local\Temp\ccLPYcmd.s:26322  .debug_str:0000000000018e47 .LASF2209
C:\Users\CYMR90~1\AppData\Local\Temp\ccLPYcmd.s:28156  .debug_str:00000000000203a9 .LASF2210
C:\Users\CYMR90~1\AppData\Local\Temp\ccLPYcmd.s:23027  .debug_str:000000000000bec3 .LASF2211
C:\Users\CYMR90~1\AppData\Local\Temp\ccLPYcmd.s:21731  .debug_str:00000000000069fa .LASF2212
C:\Users\CYMR90~1\AppData\Local\Temp\ccLPYcmd.s:24331  .debug_str:0000000000011011 .LASF2213
C:\Users\CYMR90~1\AppData\Local\Temp\ccLPYcmd.s:31196  .debug_str:000000000002c444 .LASF2214
C:\Users\CYMR90~1\AppData\Local\Temp\ccLPYcmd.s:25049  .debug_str:0000000000013e2d .LASF2215
C:\Users\CYMR90~1\AppData\Local\Temp\ccLPYcmd.s:22711  .debug_str:000000000000a8ae .LASF2216
C:\Users\CYMR90~1\AppData\Local\Temp\ccLPYcmd.s:26942  .debug_str:000000000001b7dc .LASF2217
C:\Users\CYMR90~1\AppData\Local\Temp\ccLPYcmd.s:26248  .debug_str:0000000000018924 .LASF2218
C:\Users\CYMR90~1\AppData\Local\Temp\ccLPYcmd.s:30964  .debug_str:000000000002b4c4 .LASF2219
C:\Users\CYMR90~1\AppData\Local\Temp\ccLPYcmd.s:27498  .debug_str:000000000001dba8 .LASF2220
C:\Users\CYMR90~1\AppData\Local\Temp\ccLPYcmd.s:26336  .debug_str:0000000000018f0c .LASF2221
C:\Users\CYMR90~1\AppData\Local\Temp\ccLPYcmd.s:24731  .debug_str:0000000000012a0e .LASF2222
C:\Users\CYMR90~1\AppData\Local\Temp\ccLPYcmd.s:26986  .debug_str:000000000001ba55 .LASF2223
C:\Users\CYMR90~1\AppData\Local\Temp\ccLPYcmd.s:29624  .debug_str:0000000000026098 .LASF2224
C:\Users\CYMR90~1\AppData\Local\Temp\ccLPYcmd.s:20079  .debug_str:00000000000002d9 .LASF2225
C:\Users\CYMR90~1\AppData\Local\Temp\ccLPYcmd.s:21195  .debug_str:0000000000004955 .LASF2226
C:\Users\CYMR90~1\AppData\Local\Temp\ccLPYcmd.s:26522  .debug_str:0000000000019c06 .LASF2227
C:\Users\CYMR90~1\AppData\Local\Temp\ccLPYcmd.s:25794  .debug_str:0000000000016e25 .LASF2228
C:\Users\CYMR90~1\AppData\Local\Temp\ccLPYcmd.s:27552  .debug_str:000000000001df77 .LASF2229
C:\Users\CYMR90~1\AppData\Local\Temp\ccLPYcmd.s:21163  .debug_str:000000000000470c .LASF2230
C:\Users\CYMR90~1\AppData\Local\Temp\ccLPYcmd.s:20265  .debug_str:0000000000000dfa .LASF2231
C:\Users\CYMR90~1\AppData\Local\Temp\ccLPYcmd.s:20467  .debug_str:0000000000001b04 .LASF2232
C:\Users\CYMR90~1\AppData\Local\Temp\ccLPYcmd.s:26510  .debug_str:0000000000019b42 .LASF2233
C:\Users\CYMR90~1\AppData\Local\Temp\ccLPYcmd.s:23201  .debug_str:000000000000ca06 .LASF2234
C:\Users\CYMR90~1\AppData\Local\Temp\ccLPYcmd.s:21397  .debug_str:000000000000563b .LASF2235
C:\Users\CYMR90~1\AppData\Local\Temp\ccLPYcmd.s:31150  .debug_str:000000000002c0fc .LASF2236
C:\Users\CYMR90~1\AppData\Local\Temp\ccLPYcmd.s:23665  .debug_str:000000000000e716 .LASF2237
C:\Users\CYMR90~1\AppData\Local\Temp\ccLPYcmd.s:28436  .debug_str:000000000002152a .LASF2238
C:\Users\CYMR90~1\AppData\Local\Temp\ccLPYcmd.s:27452  .debug_str:000000000001d8d5 .LASF2239
C:\Users\CYMR90~1\AppData\Local\Temp\ccLPYcmd.s:27380  .debug_str:000000000001d43d .LASF2240
C:\Users\CYMR90~1\AppData\Local\Temp\ccLPYcmd.s:20129  .debug_str:00000000000005c7 .LASF2241
C:\Users\CYMR90~1\AppData\Local\Temp\ccLPYcmd.s:28454  .debug_str:0000000000021654 .LASF2242
C:\Users\CYMR90~1\AppData\Local\Temp\ccLPYcmd.s:30010  .debug_str:00000000000278f5 .LASF2243
C:\Users\CYMR90~1\AppData\Local\Temp\ccLPYcmd.s:24575  .debug_str:0000000000011fa9 .LASF2244
C:\Users\CYMR90~1\AppData\Local\Temp\ccLPYcmd.s:25804  .debug_str:0000000000016eb3 .LASF2245
C:\Users\CYMR90~1\AppData\Local\Temp\ccLPYcmd.s:22701  .debug_str:000000000000a7cb .LASF2246
C:\Users\CYMR90~1\AppData\Local\Temp\ccLPYcmd.s:25381  .debug_str:000000000001524d .LASF2247
C:\Users\CYMR90~1\AppData\Local\Temp\ccLPYcmd.s:20897  .debug_str:000000000000359f .LASF2248
C:\Users\CYMR90~1\AppData\Local\Temp\ccLPYcmd.s:27798  .debug_str:000000000001ee0b .LASF2249
C:\Users\CYMR90~1\AppData\Local\Temp\ccLPYcmd.s:26918  .debug_str:000000000001b641 .LASF2250
C:\Users\CYMR90~1\AppData\Local\Temp\ccLPYcmd.s:25964  .debug_str:00000000000177d8 .LASF2251
C:\Users\CYMR90~1\AppData\Local\Temp\ccLPYcmd.s:29222  .debug_str:00000000000244ef .LASF2252
C:\Users\CYMR90~1\AppData\Local\Temp\ccLPYcmd.s:24737  .debug_str:0000000000012a5d .LASF2253
C:\Users\CYMR90~1\AppData\Local\Temp\ccLPYcmd.s:23475  .debug_str:000000000000db95 .LASF2254
C:\Users\CYMR90~1\AppData\Local\Temp\ccLPYcmd.s:22225  .debug_str:0000000000008aa8 .LASF2255
C:\Users\CYMR90~1\AppData\Local\Temp\ccLPYcmd.s:24125  .debug_str:000000000001037f .LASF2256
C:\Users\CYMR90~1\AppData\Local\Temp\ccLPYcmd.s:27198  .debug_str:000000000001c746 .LASF2257
C:\Users\CYMR90~1\AppData\Local\Temp\ccLPYcmd.s:24427  .debug_str:00000000000115ca .LASF2258
C:\Users\CYMR90~1\AppData\Local\Temp\ccLPYcmd.s:24653  .debug_str:00000000000124cc .LASF2259
C:\Users\CYMR90~1\AppData\Local\Temp\ccLPYcmd.s:24327  .debug_str:0000000000010fcf .LASF2260
C:\Users\CYMR90~1\AppData\Local\Temp\ccLPYcmd.s:25427  .debug_str:00000000000154e2 .LASF2261
C:\Users\CYMR90~1\AppData\Local\Temp\ccLPYcmd.s:20585  .debug_str:00000000000021b6 .LASF2262
C:\Users\CYMR90~1\AppData\Local\Temp\ccLPYcmd.s:23713  .debug_str:000000000000ea2d .LASF2263
C:\Users\CYMR90~1\AppData\Local\Temp\ccLPYcmd.s:27574  .debug_str:000000000001e0d9 .LASF2264
C:\Users\CYMR90~1\AppData\Local\Temp\ccLPYcmd.s:26610  .debug_str:000000000001a118 .LASF2265
C:\Users\CYMR90~1\AppData\Local\Temp\ccLPYcmd.s:23559  .debug_str:000000000000e0c6 .LASF2266
C:\Users\CYMR90~1\AppData\Local\Temp\ccLPYcmd.s:22903  .debug_str:000000000000b676 .LASF2267
C:\Users\CYMR90~1\AppData\Local\Temp\ccLPYcmd.s:25972  .debug_str:0000000000017892 .LASF2268
C:\Users\CYMR90~1\AppData\Local\Temp\ccLPYcmd.s:30876  .debug_str:000000000002afb5 .LASF2269
C:\Users\CYMR90~1\AppData\Local\Temp\ccLPYcmd.s:21217  .debug_str:0000000000004b39 .LASF2270
C:\Users\CYMR90~1\AppData\Local\Temp\ccLPYcmd.s:27072  .debug_str:000000000001bff4 .LASF2271
C:\Users\CYMR90~1\AppData\Local\Temp\ccLPYcmd.s:27474  .debug_str:000000000001da43 .LASF2272
C:\Users\CYMR90~1\AppData\Local\Temp\ccLPYcmd.s:25267  .debug_str:0000000000014b98 .LASF2273
C:\Users\CYMR90~1\AppData\Local\Temp\ccLPYcmd.s:30222  .debug_str:000000000002878f .LASF2274
C:\Users\CYMR90~1\AppData\Local\Temp\ccLPYcmd.s:21401  .debug_str:000000000000566f .LASF2275
C:\Users\CYMR90~1\AppData\Local\Temp\ccLPYcmd.s:26544  .debug_str:0000000000019d71 .LASF2276
C:\Users\CYMR90~1\AppData\Local\Temp\ccLPYcmd.s:25856  .debug_str:00000000000171bf .LASF2277
C:\Users\CYMR90~1\AppData\Local\Temp\ccLPYcmd.s:27254  .debug_str:000000000001cb53 .LASF2278
C:\Users\CYMR90~1\AppData\Local\Temp\ccLPYcmd.s:26772  .debug_str:000000000001acd1 .LASF2279
C:\Users\CYMR90~1\AppData\Local\Temp\ccLPYcmd.s:30028  .debug_str:00000000000279f3 .LASF2280
C:\Users\CYMR90~1\AppData\Local\Temp\ccLPYcmd.s:24333  .debug_str:0000000000011039 .LASF2281
C:\Users\CYMR90~1\AppData\Local\Temp\ccLPYcmd.s:28598  .debug_str:0000000000021f46 .LASF2282
C:\Users\CYMR90~1\AppData\Local\Temp\ccLPYcmd.s:30534  .debug_str:0000000000029b88 .LASF2283
C:\Users\CYMR90~1\AppData\Local\Temp\ccLPYcmd.s:24545  .debug_str:0000000000011dcd .LASF2284
C:\Users\CYMR90~1\AppData\Local\Temp\ccLPYcmd.s:31018  .debug_str:000000000002b866 .LASF2285
C:\Users\CYMR90~1\AppData\Local\Temp\ccLPYcmd.s:27670  .debug_str:000000000001e68c .LASF2286
C:\Users\CYMR90~1\AppData\Local\Temp\ccLPYcmd.s:21299  .debug_str:000000000000503c .LASF2287
C:\Users\CYMR90~1\AppData\Local\Temp\ccLPYcmd.s:30396  .debug_str:000000000002929a .LASF2288
C:\Users\CYMR90~1\AppData\Local\Temp\ccLPYcmd.s:30980  .debug_str:000000000002b5ed .LASF2289
C:\Users\CYMR90~1\AppData\Local\Temp\ccLPYcmd.s:23541  .debug_str:000000000000dfaa .LASF2290
C:\Users\CYMR90~1\AppData\Local\Temp\ccLPYcmd.s:23515  .debug_str:000000000000ddbc .LASF2291
C:\Users\CYMR90~1\AppData\Local\Temp\ccLPYcmd.s:22883  .debug_str:000000000000b49a .LASF2292
C:\Users\CYMR90~1\AppData\Local\Temp\ccLPYcmd.s:25061  .debug_str:0000000000013eed .LASF2293
C:\Users\CYMR90~1\AppData\Local\Temp\ccLPYcmd.s:30236  .debug_str:0000000000028884 .LASF2294
C:\Users\CYMR90~1\AppData\Local\Temp\ccLPYcmd.s:23859  .debug_str:000000000000f280 .LASF2295
C:\Users\CYMR90~1\AppData\Local\Temp\ccLPYcmd.s:27018  .debug_str:000000000001bc71 .LASF2296
C:\Users\CYMR90~1\AppData\Local\Temp\ccLPYcmd.s:29358  .debug_str:0000000000024ddf .LASF2297
C:\Users\CYMR90~1\AppData\Local\Temp\ccLPYcmd.s:23473  .debug_str:000000000000db6e .LASF2298
C:\Users\CYMR90~1\AppData\Local\Temp\ccLPYcmd.s:28488  .debug_str:0000000000021847 .LASF2299
C:\Users\CYMR90~1\AppData\Local\Temp\ccLPYcmd.s:20341  .debug_str:00000000000012e1 .LASF2300
C:\Users\CYMR90~1\AppData\Local\Temp\ccLPYcmd.s:26716  .debug_str:000000000001a967 .LASF2301
C:\Users\CYMR90~1\AppData\Local\Temp\ccLPYcmd.s:27218  .debug_str:000000000001c927 .LASF2302
C:\Users\CYMR90~1\AppData\Local\Temp\ccLPYcmd.s:20841  .debug_str:0000000000003216 .LASF2303
C:\Users\CYMR90~1\AppData\Local\Temp\ccLPYcmd.s:29646  .debug_str:0000000000026200 .LASF2304
C:\Users\CYMR90~1\AppData\Local\Temp\ccLPYcmd.s:30472  .debug_str:0000000000029797 .LASF2305
C:\Users\CYMR90~1\AppData\Local\Temp\ccLPYcmd.s:25101  .debug_str:000000000001418b .LASF2306
C:\Users\CYMR90~1\AppData\Local\Temp\ccLPYcmd.s:30186  .debug_str:00000000000284c4 .LASF2307
C:\Users\CYMR90~1\AppData\Local\Temp\ccLPYcmd.s:21919  .debug_str:00000000000075ff .LASF2308
C:\Users\CYMR90~1\AppData\Local\Temp\ccLPYcmd.s:28262  .debug_str:0000000000020a85 .LASF2309
C:\Users\CYMR90~1\AppData\Local\Temp\ccLPYcmd.s:21983  .debug_str:0000000000007a0f .LASF2310
C:\Users\CYMR90~1\AppData\Local\Temp\ccLPYcmd.s:27036  .debug_str:000000000001bd8c .LASF2311
C:\Users\CYMR90~1\AppData\Local\Temp\ccLPYcmd.s:30232  .debug_str:0000000000028843 .LASF2312
C:\Users\CYMR90~1\AppData\Local\Temp\ccLPYcmd.s:23749  .debug_str:000000000000ec69 .LASF2313
C:\Users\CYMR90~1\AppData\Local\Temp\ccLPYcmd.s:21229  .debug_str:0000000000004bf5 .LASF2314
C:\Users\CYMR90~1\AppData\Local\Temp\ccLPYcmd.s:20759  .debug_str:0000000000002cee .LASF2315
C:\Users\CYMR90~1\AppData\Local\Temp\ccLPYcmd.s:31454  .debug_str:000000000002d52d .LASF2316
C:\Users\CYMR90~1\AppData\Local\Temp\ccLPYcmd.s:21589  .debug_str:0000000000006155 .LASF2317
C:\Users\CYMR90~1\AppData\Local\Temp\ccLPYcmd.s:25227  .debug_str:0000000000014940 .LASF2318
C:\Users\CYMR90~1\AppData\Local\Temp\ccLPYcmd.s:31046  .debug_str:000000000002ba22 .LASF2319
C:\Users\CYMR90~1\AppData\Local\Temp\ccLPYcmd.s:22677  .debug_str:000000000000a69c .LASF2320
C:\Users\CYMR90~1\AppData\Local\Temp\ccLPYcmd.s:26208  .debug_str:000000000001867d .LASF2321
C:\Users\CYMR90~1\AppData\Local\Temp\ccLPYcmd.s:20621  .debug_str:00000000000023df .LASF2322
C:\Users\CYMR90~1\AppData\Local\Temp\ccLPYcmd.s:25137  .debug_str:00000000000143c1 .LASF2323
C:\Users\CYMR90~1\AppData\Local\Temp\ccLPYcmd.s:24227  .debug_str:0000000000010976 .LASF2324
C:\Users\CYMR90~1\AppData\Local\Temp\ccLPYcmd.s:23131  .debug_str:000000000000c54b .LASF2325
C:\Users\CYMR90~1\AppData\Local\Temp\ccLPYcmd.s:24173  .debug_str:0000000000010622 .LASF2326
C:\Users\CYMR90~1\AppData\Local\Temp\ccLPYcmd.s:28390  .debug_str:00000000000211d7 .LASF2327
C:\Users\CYMR90~1\AppData\Local\Temp\ccLPYcmd.s:29828  .debug_str:0000000000026d43 .LASF2328
C:\Users\CYMR90~1\AppData\Local\Temp\ccLPYcmd.s:24185  .debug_str:00000000000106e0 .LASF2329
C:\Users\CYMR90~1\AppData\Local\Temp\ccLPYcmd.s:24585  .debug_str:0000000000012081 .LASF2330
C:\Users\CYMR90~1\AppData\Local\Temp\ccLPYcmd.s:23641  .debug_str:000000000000e5a8 .LASF2331
C:\Users\CYMR90~1\AppData\Local\Temp\ccLPYcmd.s:21603  .debug_str:0000000000006250 .LASF2332
C:\Users\CYMR90~1\AppData\Local\Temp\ccLPYcmd.s:20667  .debug_str:0000000000002685 .LASF2333
C:\Users\CYMR90~1\AppData\Local\Temp\ccLPYcmd.s:27438  .debug_str:000000000001d7f6 .LASF2334
C:\Users\CYMR90~1\AppData\Local\Temp\ccLPYcmd.s:29706  .debug_str:0000000000026584 .LASF2335
C:\Users\CYMR90~1\AppData\Local\Temp\ccLPYcmd.s:28038  .debug_str:000000000001fcd4 .LASF2336
C:\Users\CYMR90~1\AppData\Local\Temp\ccLPYcmd.s:28054  .debug_str:000000000001fdac .LASF2337
C:\Users\CYMR90~1\AppData\Local\Temp\ccLPYcmd.s:29116  .debug_str:0000000000023da9 .LASF2338
C:\Users\CYMR90~1\AppData\Local\Temp\ccLPYcmd.s:29936  .debug_str:00000000000273b1 .LASF2339
C:\Users\CYMR90~1\AppData\Local\Temp\ccLPYcmd.s:27138  .debug_str:000000000001c3f8 .LASF2340
C:\Users\CYMR90~1\AppData\Local\Temp\ccLPYcmd.s:27310  .debug_str:000000000001cf89 .LASF2341
C:\Users\CYMR90~1\AppData\Local\Temp\ccLPYcmd.s:22191  .debug_str:0000000000008867 .LASF2342
C:\Users\CYMR90~1\AppData\Local\Temp\ccLPYcmd.s:24939  .debug_str:00000000000137d5 .LASF2343
C:\Users\CYMR90~1\AppData\Local\Temp\ccLPYcmd.s:28540  .debug_str:0000000000021b73 .LASF2344
C:\Users\CYMR90~1\AppData\Local\Temp\ccLPYcmd.s:30840  .debug_str:000000000002ad9c .LASF2345
C:\Users\CYMR90~1\AppData\Local\Temp\ccLPYcmd.s:29344  .debug_str:0000000000024cf0 .LASF2346
C:\Users\CYMR90~1\AppData\Local\Temp\ccLPYcmd.s:21757  .debug_str:0000000000006b87 .LASF2347
C:\Users\CYMR90~1\AppData\Local\Temp\ccLPYcmd.s:24079  .debug_str:0000000000010075 .LASF2348
C:\Users\CYMR90~1\AppData\Local\Temp\ccLPYcmd.s:21701  .debug_str:00000000000067ef .LASF2349
C:\Users\CYMR90~1\AppData\Local\Temp\ccLPYcmd.s:31252  .debug_str:000000000002c84a .LASF2350
C:\Users\CYMR90~1\AppData\Local\Temp\ccLPYcmd.s:30664  .debug_str:000000000002a2e6 .LASF2351
C:\Users\CYMR90~1\AppData\Local\Temp\ccLPYcmd.s:23389  .debug_str:000000000000d691 .LASF2352
C:\Users\CYMR90~1\AppData\Local\Temp\ccLPYcmd.s:22425  .debug_str:00000000000096cd .LASF2353
C:\Users\CYMR90~1\AppData\Local\Temp\ccLPYcmd.s:20985  .debug_str:0000000000003b70 .LASF2354
C:\Users\CYMR90~1\AppData\Local\Temp\ccLPYcmd.s:24091  .debug_str:000000000001014c .LASF2355
C:\Users\CYMR90~1\AppData\Local\Temp\ccLPYcmd.s:22863  .debug_str:000000000000b3a5 .LASF2356
C:\Users\CYMR90~1\AppData\Local\Temp\ccLPYcmd.s:21633  .debug_str:00000000000063f2 .LASF2357
C:\Users\CYMR90~1\AppData\Local\Temp\ccLPYcmd.s:29122  .debug_str:0000000000023df9 .LASF2358
C:\Users\CYMR90~1\AppData\Local\Temp\ccLPYcmd.s:28272  .debug_str:0000000000020b0f .LASF2359
C:\Users\CYMR90~1\AppData\Local\Temp\ccLPYcmd.s:24647  .debug_str:000000000001246b .LASF2360
C:\Users\CYMR90~1\AppData\Local\Temp\ccLPYcmd.s:22963  .debug_str:000000000000ba40 .LASF2361
C:\Users\CYMR90~1\AppData\Local\Temp\ccLPYcmd.s:30006  .debug_str:00000000000278c8 .LASF2362
C:\Users\CYMR90~1\AppData\Local\Temp\ccLPYcmd.s:22411  .debug_str:00000000000095b3 .LASF2363
C:\Users\CYMR90~1\AppData\Local\Temp\ccLPYcmd.s:23743  .debug_str:000000000000ec12 .LASF2364
C:\Users\CYMR90~1\AppData\Local\Temp\ccLPYcmd.s:21767  .debug_str:0000000000006c27 .LASF2365
C:\Users\CYMR90~1\AppData\Local\Temp\ccLPYcmd.s:24147  .debug_str:00000000000104aa .LASF2366
C:\Users\CYMR90~1\AppData\Local\Temp\ccLPYcmd.s:31130  .debug_str:000000000002bfa5 .LASF2367
C:\Users\CYMR90~1\AppData\Local\Temp\ccLPYcmd.s:29776  .debug_str:0000000000026a0a .LASF2368
C:\Users\CYMR90~1\AppData\Local\Temp\ccLPYcmd.s:20195  .debug_str:00000000000009a3 .LASF2369
C:\Users\CYMR90~1\AppData\Local\Temp\ccLPYcmd.s:24549  .debug_str:0000000000011e22 .LASF2370
C:\Users\CYMR90~1\AppData\Local\Temp\ccLPYcmd.s:27748  .debug_str:000000000001eb58 .LASF2371
C:\Users\CYMR90~1\AppData\Local\Temp\ccLPYcmd.s:31078  .debug_str:000000000002bc7f .LASF2372
C:\Users\CYMR90~1\AppData\Local\Temp\ccLPYcmd.s:22865  .debug_str:000000000000b3ca .LASF2373
C:\Users\CYMR90~1\AppData\Local\Temp\ccLPYcmd.s:21813  .debug_str:0000000000006f29 .LASF2374
C:\Users\CYMR90~1\AppData\Local\Temp\ccLPYcmd.s:29336  .debug_str:0000000000024c7e .LASF2375
C:\Users\CYMR90~1\AppData\Local\Temp\ccLPYcmd.s:29078  .debug_str:0000000000023bb8 .LASF2376
C:\Users\CYMR90~1\AppData\Local\Temp\ccLPYcmd.s:24317  .debug_str:0000000000010f63 .LASF2377
C:\Users\CYMR90~1\AppData\Local\Temp\ccLPYcmd.s:27518  .debug_str:000000000001dcec .LASF2378
C:\Users\CYMR90~1\AppData\Local\Temp\ccLPYcmd.s:30810  .debug_str:000000000002abfb .LASF2379
C:\Users\CYMR90~1\AppData\Local\Temp\ccLPYcmd.s:20501  .debug_str:0000000000001d30 .LASF2380
C:\Users\CYMR90~1\AppData\Local\Temp\ccLPYcmd.s:25235  .debug_str:00000000000149a8 .LASF2381
C:\Users\CYMR90~1\AppData\Local\Temp\ccLPYcmd.s:30008  .debug_str:00000000000278da .LASF2382
C:\Users\CYMR90~1\AppData\Local\Temp\ccLPYcmd.s:26874  .debug_str:000000000001b3ca .LASF2383
C:\Users\CYMR90~1\AppData\Local\Temp\ccLPYcmd.s:28046  .debug_str:000000000001fd4c .LASF2384
C:\Users\CYMR90~1\AppData\Local\Temp\ccLPYcmd.s:21373  .debug_str:00000000000054b3 .LASF2385
C:\Users\CYMR90~1\AppData\Local\Temp\ccLPYcmd.s:26130  .debug_str:00000000000181e1 .LASF2386
C:\Users\CYMR90~1\AppData\Local\Temp\ccLPYcmd.s:30914  .debug_str:000000000002b204 .LASF2387
C:\Users\CYMR90~1\AppData\Local\Temp\ccLPYcmd.s:26994  .debug_str:000000000001badd .LASF2388
C:\Users\CYMR90~1\AppData\Local\Temp\ccLPYcmd.s:30066  .debug_str:0000000000027c61 .LASF2389
C:\Users\CYMR90~1\AppData\Local\Temp\ccLPYcmd.s:23403  .debug_str:000000000000d770 .LASF2390
C:\Users\CYMR90~1\AppData\Local\Temp\ccLPYcmd.s:28104  .debug_str:00000000000200db .LASF2391
C:\Users\CYMR90~1\AppData\Local\Temp\ccLPYcmd.s:21421  .debug_str:0000000000005769 .LASF2392
C:\Users\CYMR90~1\AppData\Local\Temp\ccLPYcmd.s:26186  .debug_str:0000000000018527 .LASF2393
C:\Users\CYMR90~1\AppData\Local\Temp\ccLPYcmd.s:30976  .debug_str:000000000002b5bc .LASF2394
C:\Users\CYMR90~1\AppData\Local\Temp\ccLPYcmd.s:30844  .debug_str:000000000002add4 .LASF2395
C:\Users\CYMR90~1\AppData\Local\Temp\ccLPYcmd.s:22653  .debug_str:000000000000a53b .LASF2396
C:\Users\CYMR90~1\AppData\Local\Temp\ccLPYcmd.s:24323  .debug_str:0000000000010fa5 .LASF2397
C:\Users\CYMR90~1\AppData\Local\Temp\ccLPYcmd.s:29126  .debug_str:0000000000023e2a .LASF2398
C:\Users\CYMR90~1\AppData\Local\Temp\ccLPYcmd.s:21013  .debug_str:0000000000003cfd .LASF2399
C:\Users\CYMR90~1\AppData\Local\Temp\ccLPYcmd.s:24193  .debug_str:0000000000010784 .LASF2400
C:\Users\CYMR90~1\AppData\Local\Temp\ccLPYcmd.s:27408  .debug_str:000000000001d613 .LASF2401
C:\Users\CYMR90~1\AppData\Local\Temp\ccLPYcmd.s:30688  .debug_str:000000000002a493 .LASF2402
C:\Users\CYMR90~1\AppData\Local\Temp\ccLPYcmd.s:24993  .debug_str:0000000000013ad9 .LASF2403
C:\Users\CYMR90~1\AppData\Local\Temp\ccLPYcmd.s:23379  .debug_str:000000000000d5ea .LASF2404
C:\Users\CYMR90~1\AppData\Local\Temp\ccLPYcmd.s:26762  .debug_str:000000000001ac2e .LASF2405
C:\Users\CYMR90~1\AppData\Local\Temp\ccLPYcmd.s:20073  .debug_str:000000000000027d .LASF2406
C:\Users\CYMR90~1\AppData\Local\Temp\ccLPYcmd.s:20087  .debug_str:0000000000000370 .LASF2407
C:\Users\CYMR90~1\AppData\Local\Temp\ccLPYcmd.s:29550  .debug_str:0000000000025c27 .LASF2408
C:\Users\CYMR90~1\AppData\Local\Temp\ccLPYcmd.s:22899  .debug_str:000000000000b5c0 .LASF2409
C:\Users\CYMR90~1\AppData\Local\Temp\ccLPYcmd.s:27594  .debug_str:000000000001e218 .LASF2410
C:\Users\CYMR90~1\AppData\Local\Temp\ccLPYcmd.s:23231  .debug_str:000000000000cc2e .LASF2411
C:\Users\CYMR90~1\AppData\Local\Temp\ccLPYcmd.s:25667  .debug_str:0000000000016370 .LASF2412
C:\Users\CYMR90~1\AppData\Local\Temp\ccLPYcmd.s:27800  .debug_str:000000000001ee3a .LASF2413
C:\Users\CYMR90~1\AppData\Local\Temp\ccLPYcmd.s:24859  .debug_str:0000000000013275 .LASF2414
C:\Users\CYMR90~1\AppData\Local\Temp\ccLPYcmd.s:29602  .debug_str:0000000000025f1b .LASF2415
C:\Users\CYMR90~1\AppData\Local\Temp\ccLPYcmd.s:22941  .debug_str:000000000000b916 .LASF2416
C:\Users\CYMR90~1\AppData\Local\Temp\ccLPYcmd.s:27642  .debug_str:000000000001e4d9 .LASF2417
C:\Users\CYMR90~1\AppData\Local\Temp\ccLPYcmd.s:20981  .debug_str:0000000000003b25 .LASF2418
C:\Users\CYMR90~1\AppData\Local\Temp\ccLPYcmd.s:25727  .debug_str:0000000000016766 .LASF2419
C:\Users\CYMR90~1\AppData\Local\Temp\ccLPYcmd.s:22779  .debug_str:000000000000adcd .LASF2420
C:\Users\CYMR90~1\AppData\Local\Temp\ccLPYcmd.s:25898  .debug_str:0000000000017424 .LASF2421
C:\Users\CYMR90~1\AppData\Local\Temp\ccLPYcmd.s:29164  .debug_str:0000000000024081 .LASF2422
C:\Users\CYMR90~1\AppData\Local\Temp\ccLPYcmd.s:20965  .debug_str:0000000000003a02 .LASF2423
C:\Users\CYMR90~1\AppData\Local\Temp\ccLPYcmd.s:24229  .debug_str:000000000001098c .LASF2424
C:\Users\CYMR90~1\AppData\Local\Temp\ccLPYcmd.s:24479  .debug_str:0000000000011997 .LASF2425
C:\Users\CYMR90~1\AppData\Local\Temp\ccLPYcmd.s:30728  .debug_str:000000000002a6b3 .LASF2426
C:\Users\CYMR90~1\AppData\Local\Temp\ccLPYcmd.s:21171  .debug_str:00000000000047a8 .LASF2427
C:\Users\CYMR90~1\AppData\Local\Temp\ccLPYcmd.s:31016  .debug_str:000000000002b84f .LASF2428
C:\Users\CYMR90~1\AppData\Local\Temp\ccLPYcmd.s:28430  .debug_str:000000000002143b .LASF2429
C:\Users\CYMR90~1\AppData\Local\Temp\ccLPYcmd.s:30292  .debug_str:0000000000028c54 .LASF2430
C:\Users\CYMR90~1\AppData\Local\Temp\ccLPYcmd.s:23615  .debug_str:000000000000e422 .LASF2431
C:\Users\CYMR90~1\AppData\Local\Temp\ccLPYcmd.s:28330  .debug_str:0000000000020e9a .LASF2432
C:\Users\CYMR90~1\AppData\Local\Temp\ccLPYcmd.s:21653  .debug_str:000000000000653a .LASF2433
C:\Users\CYMR90~1\AppData\Local\Temp\ccLPYcmd.s:26424  .debug_str:0000000000019545 .LASF2434
C:\Users\CYMR90~1\AppData\Local\Temp\ccLPYcmd.s:31198  .debug_str:000000000002c46c .LASF2435
C:\Users\CYMR90~1\AppData\Local\Temp\ccLPYcmd.s:24487  .debug_str:0000000000011a04 .LASF2436
C:\Users\CYMR90~1\AppData\Local\Temp\ccLPYcmd.s:29232  .debug_str:00000000000245cb .LASF2437
C:\Users\CYMR90~1\AppData\Local\Temp\ccLPYcmd.s:27284  .debug_str:000000000001cd4a .LASF2438
C:\Users\CYMR90~1\AppData\Local\Temp\ccLPYcmd.s:28384  .debug_str:000000000002116c .LASF2439
C:\Users\CYMR90~1\AppData\Local\Temp\ccLPYcmd.s:21705  .debug_str:0000000000006828 .LASF2440
C:\Users\CYMR90~1\AppData\Local\Temp\ccLPYcmd.s:26474  .debug_str:00000000000198f3 .LASF2441
C:\Users\CYMR90~1\AppData\Local\Temp\ccLPYcmd.s:31248  .debug_str:000000000002c80b .LASF2442
C:\Users\CYMR90~1\AppData\Local\Temp\ccLPYcmd.s:24541  .debug_str:0000000000011d8e .LASF2443
C:\Users\CYMR90~1\AppData\Local\Temp\ccLPYcmd.s:24457  .debug_str:00000000000117c0 .LASF2444
C:\Users\CYMR90~1\AppData\Local\Temp\ccLPYcmd.s:28068  .debug_str:000000000001fead .LASF2445
C:\Users\CYMR90~1\AppData\Local\Temp\ccLPYcmd.s:29396  .debug_str:0000000000025053 .LASF2446
C:\Users\CYMR90~1\AppData\Local\Temp\ccLPYcmd.s:27716  .debug_str:000000000001e976 .LASF2447
C:\Users\CYMR90~1\AppData\Local\Temp\ccLPYcmd.s:26318  .debug_str:0000000000018e1c .LASF2448
C:\Users\CYMR90~1\AppData\Local\Temp\ccLPYcmd.s:29552  .debug_str:0000000000025c40 .LASF2449
C:\Users\CYMR90~1\AppData\Local\Temp\ccLPYcmd.s:22843  .debug_str:000000000000b2b5 .LASF2450
C:\Users\CYMR90~1\AppData\Local\Temp\ccLPYcmd.s:24619  .debug_str:00000000000122b3 .LASF2451
C:\Users\CYMR90~1\AppData\Local\Temp\ccLPYcmd.s:27808  .debug_str:000000000001eeb6 .LASF2452
C:\Users\CYMR90~1\AppData\Local\Temp\ccLPYcmd.s:29326  .debug_str:0000000000024bf4 .LASF2453
C:\Users\CYMR90~1\AppData\Local\Temp\ccLPYcmd.s:22847  .debug_str:000000000000b2d6 .LASF2454
C:\Users\CYMR90~1\AppData\Local\Temp\ccLPYcmd.s:29244  .debug_str:0000000000024676 .LASF2455
C:\Users\CYMR90~1\AppData\Local\Temp\ccLPYcmd.s:22573  .debug_str:000000000000a01a .LASF2456
C:\Users\CYMR90~1\AppData\Local\Temp\ccLPYcmd.s:27296  .debug_str:000000000001ceb4 .LASF2457
C:\Users\CYMR90~1\AppData\Local\Temp\ccLPYcmd.s:20627  .debug_str:000000000000242b .LASF2458
C:\Users\CYMR90~1\AppData\Local\Temp\ccLPYcmd.s:25359  .debug_str:000000000001510a .LASF2459
C:\Users\CYMR90~1\AppData\Local\Temp\ccLPYcmd.s:30136  .debug_str:0000000000028144 .LASF2460
C:\Users\CYMR90~1\AppData\Local\Temp\ccLPYcmd.s:23465  .debug_str:000000000000db05 .LASF2461
C:\Users\CYMR90~1\AppData\Local\Temp\ccLPYcmd.s:28174  .debug_str:00000000000204f7 .LASF2462
C:\Users\CYMR90~1\AppData\Local\Temp\ccLPYcmd.s:26260  .debug_str:00000000000189c9 .LASF2463
C:\Users\CYMR90~1\AppData\Local\Temp\ccLPYcmd.s:21041  .debug_str:0000000000003ed6 .LASF2464
C:\Users\CYMR90~1\AppData\Local\Temp\ccLPYcmd.s:20683  .debug_str:00000000000027c9 .LASF2465
C:\Users\CYMR90~1\AppData\Local\Temp\ccLPYcmd.s:24909  .debug_str:0000000000013608 .LASF2466
C:\Users\CYMR90~1\AppData\Local\Temp\ccLPYcmd.s:30190  .debug_str:00000000000285a8 .LASF2467
C:\Users\CYMR90~1\AppData\Local\Temp\ccLPYcmd.s:23519  .debug_str:000000000000de0d .LASF2468
C:\Users\CYMR90~1\AppData\Local\Temp\ccLPYcmd.s:28230  .debug_str:00000000000208b4 .LASF2469
C:\Users\CYMR90~1\AppData\Local\Temp\ccLPYcmd.s:30414  .debug_str:0000000000029382 .LASF2470
C:\Users\CYMR90~1\AppData\Local\Temp\ccLPYcmd.s:20823  .debug_str:00000000000030d6 .LASF2471
C:\Users\CYMR90~1\AppData\Local\Temp\ccLPYcmd.s:25439  .debug_str:000000000001556d .LASF2472
C:\Users\CYMR90~1\AppData\Local\Temp\ccLPYcmd.s:30176  .debug_str:000000000002843c .LASF2473
C:\Users\CYMR90~1\AppData\Local\Temp\ccLPYcmd.s:28508  .debug_str:00000000000219cc .LASF2474
C:\Users\CYMR90~1\AppData\Local\Temp\ccLPYcmd.s:26882  .debug_str:000000000001b42b .LASF2475
C:\Users\CYMR90~1\AppData\Local\Temp\ccLPYcmd.s:27000  .debug_str:000000000001bb28 .LASF2476
C:\Users\CYMR90~1\AppData\Local\Temp\ccLPYcmd.s:30266  .debug_str:0000000000028ad1 .LASF2477
C:\Users\CYMR90~1\AppData\Local\Temp\ccLPYcmd.s:22067  .debug_str:000000000000801c .LASF2478
C:\Users\CYMR90~1\AppData\Local\Temp\ccLPYcmd.s:25203  .debug_str:00000000000147f2 .LASF2479
C:\Users\CYMR90~1\AppData\Local\Temp\ccLPYcmd.s:24913  .debug_str:0000000000013637 .LASF2480
C:\Users\CYMR90~1\AppData\Local\Temp\ccLPYcmd.s:29660  .debug_str:00000000000262e1 .LASF2481
C:\Users\CYMR90~1\AppData\Local\Temp\ccLPYcmd.s:22995  .debug_str:000000000000bc57 .LASF2482
C:\Users\CYMR90~1\AppData\Local\Temp\ccLPYcmd.s:27694  .debug_str:000000000001e7d4 .LASF2483
C:\Users\CYMR90~1\AppData\Local\Temp\ccLPYcmd.s:21031  .debug_str:0000000000003e43 .LASF2484
C:\Users\CYMR90~1\AppData\Local\Temp\ccLPYcmd.s:25790  .debug_str:0000000000016de0 .LASF2485
C:\Users\CYMR90~1\AppData\Local\Temp\ccLPYcmd.s:30552  .debug_str:0000000000029c90 .LASF2486
C:\Users\CYMR90~1\AppData\Local\Temp\ccLPYcmd.s:23871  .debug_str:000000000000f336 .LASF2487
C:\Users\CYMR90~1\AppData\Local\Temp\ccLPYcmd.s:21925  .debug_str:0000000000007660 .LASF2488
C:\Users\CYMR90~1\AppData\Local\Temp\ccLPYcmd.s:23049  .debug_str:000000000000c06a .LASF2489
C:\Users\CYMR90~1\AppData\Local\Temp\ccLPYcmd.s:27738  .debug_str:000000000001ead3 .LASF2490
C:\Users\CYMR90~1\AppData\Local\Temp\ccLPYcmd.s:21075  .debug_str:0000000000004112 .LASF2491
C:\Users\CYMR90~1\AppData\Local\Temp\ccLPYcmd.s:20469  .debug_str:0000000000001b25 .LASF2492
C:\Users\CYMR90~1\AppData\Local\Temp\ccLPYcmd.s:30612  .debug_str:000000000002a005 .LASF2493
C:\Users\CYMR90~1\AppData\Local\Temp\ccLPYcmd.s:23933  .debug_str:000000000000f700 .LASF2494
C:\Users\CYMR90~1\AppData\Local\Temp\ccLPYcmd.s:23655  .debug_str:000000000000e679 .LASF2495
C:\Users\CYMR90~1\AppData\Local\Temp\ccLPYcmd.s:26892  .debug_str:000000000001b4d9 .LASF2496
C:\Users\CYMR90~1\AppData\Local\Temp\ccLPYcmd.s:30146  .debug_str:00000000000281eb .LASF2497
C:\Users\CYMR90~1\AppData\Local\Temp\ccLPYcmd.s:21945  .debug_str:00000000000077b7 .LASF2498
C:\Users\CYMR90~1\AppData\Local\Temp\ccLPYcmd.s:25085  .debug_str:0000000000014062 .LASF2499
C:\Users\CYMR90~1\AppData\Local\Temp\ccLPYcmd.s:28328  .debug_str:0000000000020e87 .LASF2500
C:\Users\CYMR90~1\AppData\Local\Temp\ccLPYcmd.s:30538  .debug_str:0000000000029bcd .LASF2501
C:\Users\CYMR90~1\AppData\Local\Temp\ccLPYcmd.s:23431  .debug_str:000000000000d91c .LASF2502
C:\Users\CYMR90~1\AppData\Local\Temp\ccLPYcmd.s:26666  .debug_str:000000000001a5dc .LASF2503
C:\Users\CYMR90~1\AppData\Local\Temp\ccLPYcmd.s:25577  .debug_str:0000000000015df5 .LASF2504
C:\Users\CYMR90~1\AppData\Local\Temp\ccLPYcmd.s:30234  .debug_str:000000000002886f .LASF2505
C:\Users\CYMR90~1\AppData\Local\Temp\ccLPYcmd.s:23561  .debug_str:000000000000e0e6 .LASF2506
C:\Users\CYMR90~1\AppData\Local\Temp\ccLPYcmd.s:28276  .debug_str:0000000000020b3e .LASF2507
C:\Users\CYMR90~1\AppData\Local\Temp\ccLPYcmd.s:21581  .debug_str:00000000000060be .LASF2508
C:\Users\CYMR90~1\AppData\Local\Temp\ccLPYcmd.s:26364  .debug_str:00000000000191c7 .LASF2509
C:\Users\CYMR90~1\AppData\Local\Temp\ccLPYcmd.s:27142  .debug_str:000000000001c434 .LASF2510
C:\Users\CYMR90~1\AppData\Local\Temp\ccLPYcmd.s:24425  .debug_str:00000000000115b5 .LASF2511
C:\Users\CYMR90~1\AppData\Local\Temp\ccLPYcmd.s:29174  .debug_str:00000000000240f1 .LASF2512
C:\Users\CYMR90~1\AppData\Local\Temp\ccLPYcmd.s:27236  .debug_str:000000000001ca69 .LASF2513
C:\Users\CYMR90~1\AppData\Local\Temp\ccLPYcmd.s:28422  .debug_str:00000000000213b4 .LASF2514
C:\Users\CYMR90~1\AppData\Local\Temp\ccLPYcmd.s:21737  .debug_str:0000000000006a55 .LASF2515
C:\Users\CYMR90~1\AppData\Local\Temp\ccLPYcmd.s:26500  .debug_str:0000000000019aaa .LASF2516
C:\Users\CYMR90~1\AppData\Local\Temp\ccLPYcmd.s:31278  .debug_str:000000000002c9dc .LASF2517
C:\Users\CYMR90~1\AppData\Local\Temp\ccLPYcmd.s:24567  .debug_str:0000000000011f2e .LASF2518
C:\Users\CYMR90~1\AppData\Local\Temp\ccLPYcmd.s:29308  .debug_str:0000000000024a6b .LASF2519
C:\Users\CYMR90~1\AppData\Local\Temp\ccLPYcmd.s:24771  .debug_str:0000000000012c96 .LASF2520
C:\Users\CYMR90~1\AppData\Local\Temp\ccLPYcmd.s:20921  .debug_str:0000000000003736 .LASF2521
C:\Users\CYMR90~1\AppData\Local\Temp\ccLPYcmd.s:26154  .debug_str:000000000001833c .LASF2522
C:\Users\CYMR90~1\AppData\Local\Temp\ccLPYcmd.s:22483  .debug_str:0000000000009aa5 .LASF2523
C:\Users\CYMR90~1\AppData\Local\Temp\ccLPYcmd.s:31040  .debug_str:000000000002b9d9 .LASF2524
C:\Users\CYMR90~1\AppData\Local\Temp\ccLPYcmd.s:29620  .debug_str:0000000000026055 .LASF2525
C:\Users\CYMR90~1\AppData\Local\Temp\ccLPYcmd.s:25563  .debug_str:0000000000015cea .LASF2526
C:\Users\CYMR90~1\AppData\Local\Temp\ccLPYcmd.s:27458  .debug_str:000000000001d964 .LASF2527
C:\Users\CYMR90~1\AppData\Local\Temp\ccLPYcmd.s:25711  .debug_str:000000000001666f .LASF2528
C:\Users\CYMR90~1\AppData\Local\Temp\ccLPYcmd.s:22545  .debug_str:0000000000009e55 .LASF2529
C:\Users\CYMR90~1\AppData\Local\Temp\ccLPYcmd.s:29282  .debug_str:00000000000248cb .LASF2530
C:\Users\CYMR90~1\AppData\Local\Temp\ccLPYcmd.s:30364  .debug_str:0000000000029087 .LASF2531
C:\Users\CYMR90~1\AppData\Local\Temp\ccLPYcmd.s:20157  .debug_str:000000000000077d .LASF2532
C:\Users\CYMR90~1\AppData\Local\Temp\ccLPYcmd.s:21967  .debug_str:000000000000791d .LASF2533
C:\Users\CYMR90~1\AppData\Local\Temp\ccLPYcmd.s:20959  .debug_str:00000000000039af .LASF2534
C:\Users\CYMR90~1\AppData\Local\Temp\ccLPYcmd.s:29514  .debug_str:000000000002593d .LASF2535
C:\Users\CYMR90~1\AppData\Local\Temp\ccLPYcmd.s:24569  .debug_str:0000000000011f43 .LASF2536
C:\Users\CYMR90~1\AppData\Local\Temp\ccLPYcmd.s:23343  .debug_str:000000000000d301 .LASF2537
C:\Users\CYMR90~1\AppData\Local\Temp\ccLPYcmd.s:28000  .debug_str:000000000001fa71 .LASF2538
C:\Users\CYMR90~1\AppData\Local\Temp\ccLPYcmd.s:27110  .debug_str:000000000001c271 .LASF2539
C:\Users\CYMR90~1\AppData\Local\Temp\ccLPYcmd.s:21005  .debug_str:0000000000003c7e .LASF2540
C:\Users\CYMR90~1\AppData\Local\Temp\ccLPYcmd.s:29668  .debug_str:0000000000026371 .LASF2541
C:\Users\CYMR90~1\AppData\Local\Temp\ccLPYcmd.s:23317  .debug_str:000000000000d162 .LASF2542
C:\Users\CYMR90~1\AppData\Local\Temp\ccLPYcmd.s:22389  .debug_str:000000000000946b .LASF2543
C:\Users\CYMR90~1\AppData\Local\Temp\ccLPYcmd.s:21345  .debug_str:00000000000052f3 .LASF2544
C:\Users\CYMR90~1\AppData\Local\Temp\ccLPYcmd.s:30016  .debug_str:000000000002795a .LASF2545
C:\Users\CYMR90~1\AppData\Local\Temp\ccLPYcmd.s:30318  .debug_str:0000000000028e00 .LASF2546
C:\Users\CYMR90~1\AppData\Local\Temp\ccLPYcmd.s:24423  .debug_str:0000000000011593 .LASF2547
C:\Users\CYMR90~1\AppData\Local\Temp\ccLPYcmd.s:28368  .debug_str:000000000002109f .LASF2548
C:\Users\CYMR90~1\AppData\Local\Temp\ccLPYcmd.s:25485  .debug_str:000000000001580f .LASF2549
C:\Users\CYMR90~1\AppData\Local\Temp\ccLPYcmd.s:26056  .debug_str:0000000000017d9a .LASF2550
C:\Users\CYMR90~1\AppData\Local\Temp\ccLPYcmd.s:24891  .debug_str:00000000000134d1 .LASF2551
C:\Users\CYMR90~1\AppData\Local\Temp\ccLPYcmd.s:25387  .debug_str:00000000000152bf .LASF2552
C:\Users\CYMR90~1\AppData\Local\Temp\ccLPYcmd.s:24083  .debug_str:00000000000100b4 .LASF2553
C:\Users\CYMR90~1\AppData\Local\Temp\ccLPYcmd.s:24373  .debug_str:0000000000011279 .LASF2554
C:\Users\CYMR90~1\AppData\Local\Temp\ccLPYcmd.s:23469  .debug_str:000000000000db33 .LASF2555
C:\Users\CYMR90~1\AppData\Local\Temp\ccLPYcmd.s:22463  .debug_str:0000000000009903 .LASF2556
C:\Users\CYMR90~1\AppData\Local\Temp\ccLPYcmd.s:31038  .debug_str:000000000002b9b6 .LASF2557
C:\Users\CYMR90~1\AppData\Local\Temp\ccLPYcmd.s:25245  .debug_str:0000000000014a21 .LASF2558
C:\Users\CYMR90~1\AppData\Local\Temp\ccLPYcmd.s:30358  .debug_str:000000000002902a .LASF2559
C:\Users\CYMR90~1\AppData\Local\Temp\ccLPYcmd.s:29064  .debug_str:0000000000023ad3 .LASF2560
C:\Users\CYMR90~1\AppData\Local\Temp\ccLPYcmd.s:25880  .debug_str:000000000001732b .LASF2561
C:\Users\CYMR90~1\AppData\Local\Temp\ccLPYcmd.s:25503  .debug_str:0000000000015945 .LASF2562
C:\Users\CYMR90~1\AppData\Local\Temp\ccLPYcmd.s:25635  .debug_str:00000000000161c3 .LASF2563
C:\Users\CYMR90~1\AppData\Local\Temp\ccLPYcmd.s:30038  .debug_str:0000000000027a9a .LASF2564
C:\Users\CYMR90~1\AppData\Local\Temp\ccLPYcmd.s:23333  .debug_str:000000000000d265 .LASF2565
C:\Users\CYMR90~1\AppData\Local\Temp\ccLPYcmd.s:27780  .debug_str:000000000001ecfa .LASF2566
C:\Users\CYMR90~1\AppData\Local\Temp\ccLPYcmd.s:21859  .debug_str:0000000000007200 .LASF2567
C:\Users\CYMR90~1\AppData\Local\Temp\ccLPYcmd.s:20307  .debug_str:00000000000010ec .LASF2568
C:\Users\CYMR90~1\AppData\Local\Temp\ccLPYcmd.s:26752  .debug_str:000000000001abaa .LASF2569
C:\Users\CYMR90~1\AppData\Local\Temp\ccLPYcmd.s:22723  .debug_str:000000000000aa43 .LASF2570
C:\Users\CYMR90~1\AppData\Local\Temp\ccLPYcmd.s:25615  .debug_str:0000000000016086 .LASF2571
C:\Users\CYMR90~1\AppData\Local\Temp\ccLPYcmd.s:23047  .debug_str:000000000000c052 .LASF2572
C:\Users\CYMR90~1\AppData\Local\Temp\ccLPYcmd.s:23179  .debug_str:000000000000c841 .LASF2573
C:\Users\CYMR90~1\AppData\Local\Temp\ccLPYcmd.s:27154  .debug_str:000000000001c4b4 .LASF2574
C:\Users\CYMR90~1\AppData\Local\Temp\ccLPYcmd.s:21289  .debug_str:0000000000004fa0 .LASF2575
C:\Users\CYMR90~1\AppData\Local\Temp\ccLPYcmd.s:27006  .debug_str:000000000001bb7f .LASF2576
C:\Users\CYMR90~1\AppData\Local\Temp\ccLPYcmd.s:25489  .debug_str:0000000000015878 .LASF2577
C:\Users\CYMR90~1\AppData\Local\Temp\ccLPYcmd.s:30504  .debug_str:00000000000299d1 .LASF2578
C:\Users\CYMR90~1\AppData\Local\Temp\ccLPYcmd.s:28664  .debug_str:0000000000022327 .LASF2579
C:\Users\CYMR90~1\AppData\Local\Temp\ccLPYcmd.s:21259  .debug_str:0000000000004dd1 .LASF2580
C:\Users\CYMR90~1\AppData\Local\Temp\ccLPYcmd.s:28394  .debug_str:000000000002120c .LASF2581
C:\Users\CYMR90~1\AppData\Local\Temp\ccLPYcmd.s:29902  .debug_str:00000000000271e2 .LASF2582
C:\Users\CYMR90~1\AppData\Local\Temp\ccLPYcmd.s:20253  .debug_str:0000000000000d44 .LASF2583
C:\Users\CYMR90~1\AppData\Local\Temp\ccLPYcmd.s:21987  .debug_str:0000000000007a61 .LASF2584
C:\Users\CYMR90~1\AppData\Local\Temp\ccLPYcmd.s:22461  .debug_str:00000000000098e3 .LASF2585
C:\Users\CYMR90~1\AppData\Local\Temp\ccLPYcmd.s:24751  .debug_str:0000000000012b74 .LASF2586
C:\Users\CYMR90~1\AppData\Local\Temp\ccLPYcmd.s:22517  .debug_str:0000000000009cbc .LASF2587
C:\Users\CYMR90~1\AppData\Local\Temp\ccLPYcmd.s:21043  .debug_str:0000000000003eef .LASF2588
C:\Users\CYMR90~1\AppData\Local\Temp\ccLPYcmd.s:27016  .debug_str:000000000001bc4f .LASF2589
C:\Users\CYMR90~1\AppData\Local\Temp\ccLPYcmd.s:26146  .debug_str:00000000000182d4 .LASF2590
C:\Users\CYMR90~1\AppData\Local\Temp\ccLPYcmd.s:22581  .debug_str:000000000000a096 .LASF2591
C:\Users\CYMR90~1\AppData\Local\Temp\ccLPYcmd.s:31366  .debug_str:000000000002cf60 .LASF2592
C:\Users\CYMR90~1\AppData\Local\Temp\ccLPYcmd.s:20497  .debug_str:0000000000001cf6 .LASF2593
C:\Users\CYMR90~1\AppData\Local\Temp\ccLPYcmd.s:25003  .debug_str:0000000000013b7e .LASF2594
C:\Users\CYMR90~1\AppData\Local\Temp\ccLPYcmd.s:28640  .debug_str:00000000000221a7 .LASF2595
C:\Users\CYMR90~1\AppData\Local\Temp\ccLPYcmd.s:31148  .debug_str:000000000002c0de .LASF2596
C:\Users\CYMR90~1\AppData\Local\Temp\ccLPYcmd.s:24429  .debug_str:00000000000115f9 .LASF2597
C:\Users\CYMR90~1\AppData\Local\Temp\ccLPYcmd.s:23765  .debug_str:000000000000ed58 .LASF2598
C:\Users\CYMR90~1\AppData\Local\Temp\ccLPYcmd.s:27280  .debug_str:000000000001cd18 .LASF2599
C:\Users\CYMR90~1\AppData\Local\Temp\ccLPYcmd.s:26536  .debug_str:0000000000019ce2 .LASF2600
C:\Users\CYMR90~1\AppData\Local\Temp\ccLPYcmd.s:21307  .debug_str:00000000000050bd .LASF2601
C:\Users\CYMR90~1\AppData\Local\Temp\ccLPYcmd.s:21223  .debug_str:0000000000004ba4 .LASF2602
C:\Users\CYMR90~1\AppData\Local\Temp\ccLPYcmd.s:25940  .debug_str:0000000000017682 .LASF2603
C:\Users\CYMR90~1\AppData\Local\Temp\ccLPYcmd.s:27902  .debug_str:000000000001f4b1 .LASF2604
C:\Users\CYMR90~1\AppData\Local\Temp\ccLPYcmd.s:22141  .debug_str:0000000000008599 .LASF2605
C:\Users\CYMR90~1\AppData\Local\Temp\ccLPYcmd.s:22129  .debug_str:00000000000084f8 .LASF2606
C:\Users\CYMR90~1\AppData\Local\Temp\ccLPYcmd.s:29558  .debug_str:0000000000025c9a .LASF2607
C:\Users\CYMR90~1\AppData\Local\Temp\ccLPYcmd.s:24387  .debug_str:0000000000011357 .LASF2608
C:\Users\CYMR90~1\AppData\Local\Temp\ccLPYcmd.s:25633  .debug_str:000000000001619f .LASF2609
C:\Users\CYMR90~1\AppData\Local\Temp\ccLPYcmd.s:26964  .debug_str:000000000001b96c .LASF2610
C:\Users\CYMR90~1\AppData\Local\Temp\ccLPYcmd.s:30298  .debug_str:0000000000028ce3 .LASF2611
C:\Users\CYMR90~1\AppData\Local\Temp\ccLPYcmd.s:28514  .debug_str:0000000000021a22 .LASF2612
C:\Users\CYMR90~1\AppData\Local\Temp\ccLPYcmd.s:27522  .debug_str:000000000001dd17 .LASF2613
C:\Users\CYMR90~1\AppData\Local\Temp\ccLPYcmd.s:26512  .debug_str:0000000000019b7f .LASF2614
C:\Users\CYMR90~1\AppData\Local\Temp\ccLPYcmd.s:25589  .debug_str:0000000000015ec0 .LASF2615
C:\Users\CYMR90~1\AppData\Local\Temp\ccLPYcmd.s:24655  .debug_str:00000000000124fb .LASF2616
C:\Users\CYMR90~1\AppData\Local\Temp\ccLPYcmd.s:28910  .debug_str:00000000000231b1 .LASF2617
C:\Users\CYMR90~1\AppData\Local\Temp\ccLPYcmd.s:25417  .debug_str:0000000000015454 .LASF2618
C:\Users\CYMR90~1\AppData\Local\Temp\ccLPYcmd.s:21143  .debug_str:00000000000045c6 .LASF2619
C:\Users\CYMR90~1\AppData\Local\Temp\ccLPYcmd.s:20851  .debug_str:0000000000003297 .LASF2620
C:\Users\CYMR90~1\AppData\Local\Temp\ccLPYcmd.s:22391  .debug_str:000000000000948d .LASF2621
C:\Users\CYMR90~1\AppData\Local\Temp\ccLPYcmd.s:20249  .debug_str:0000000000000d0d .LASF2622
C:\Users\CYMR90~1\AppData\Local\Temp\ccLPYcmd.s:23557  .debug_str:000000000000e0a8 .LASF2623
C:\Users\CYMR90~1\AppData\Local\Temp\ccLPYcmd.s:22197  .debug_str:00000000000088c9 .LASF2624
C:\Users\CYMR90~1\AppData\Local\Temp\ccLPYcmd.s:20545  .debug_str:0000000000001fab .LASF2625
C:\Users\CYMR90~1\AppData\Local\Temp\ccLPYcmd.s:26192  .debug_str:000000000001857e .LASF2626
C:\Users\CYMR90~1\AppData\Local\Temp\ccLPYcmd.s:20359  .debug_str:00000000000013df .LASF2627
C:\Users\CYMR90~1\AppData\Local\Temp\ccLPYcmd.s:26638  .debug_str:000000000001a47e .LASF2628
C:\Users\CYMR90~1\AppData\Local\Temp\ccLPYcmd.s:26422  .debug_str:0000000000019534 .LASF2629
C:\Users\CYMR90~1\AppData\Local\Temp\ccLPYcmd.s:24919  .debug_str:00000000000136a4 .LASF2630
C:\Users\CYMR90~1\AppData\Local\Temp\ccLPYcmd.s:30200  .debug_str:000000000002862a .LASF2631
C:\Users\CYMR90~1\AppData\Local\Temp\ccLPYcmd.s:22589  .debug_str:000000000000a117 .LASF2632
C:\Users\CYMR90~1\AppData\Local\Temp\ccLPYcmd.s:26680  .debug_str:000000000001a6c9 .LASF2633
C:\Users\CYMR90~1\AppData\Local\Temp\ccLPYcmd.s:27328  .debug_str:000000000001d125 .LASF2634
C:\Users\CYMR90~1\AppData\Local\Temp\ccLPYcmd.s:25818  .debug_str:0000000000016f90 .LASF2635
C:\Users\CYMR90~1\AppData\Local\Temp\ccLPYcmd.s:29786  .debug_str:0000000000026ab7 .LASF2636
C:\Users\CYMR90~1\AppData\Local\Temp\ccLPYcmd.s:24863  .debug_str:00000000000132a6 .LASF2637
C:\Users\CYMR90~1\AppData\Local\Temp\ccLPYcmd.s:20115  .debug_str:000000000000050e .LASF2638
C:\Users\CYMR90~1\AppData\Local\Temp\ccLPYcmd.s:20611  .debug_str:0000000000002330 .LASF2639
C:\Users\CYMR90~1\AppData\Local\Temp\ccLPYcmd.s:25447  .debug_str:00000000000155dd .LASF2640
C:\Users\CYMR90~1\AppData\Local\Temp\ccLPYcmd.s:20237  .debug_str:0000000000000c6c .LASF2641
C:\Users\CYMR90~1\AppData\Local\Temp\ccLPYcmd.s:27426  .debug_str:000000000001d757 .LASF2642
C:\Users\CYMR90~1\AppData\Local\Temp\ccLPYcmd.s:28002  .debug_str:000000000001fa93 .LASF2643
C:\Users\CYMR90~1\AppData\Local\Temp\ccLPYcmd.s:29356  .debug_str:0000000000024db9 .LASF2644
C:\Users\CYMR90~1\AppData\Local\Temp\ccLPYcmd.s:21405  .debug_str:000000000000569e .LASF2645
C:\Users\CYMR90~1\AppData\Local\Temp\ccLPYcmd.s:21007  .debug_str:0000000000003ca0 .LASF2646
C:\Users\CYMR90~1\AppData\Local\Temp\ccLPYcmd.s:25131  .debug_str:0000000000014369 .LASF2647
C:\Users\CYMR90~1\AppData\Local\Temp\ccLPYcmd.s:23085  .debug_str:000000000000c2b3 .LASF2648
C:\Users\CYMR90~1\AppData\Local\Temp\ccLPYcmd.s:27890  .debug_str:000000000001f3f6 .LASF2649
C:\Users\CYMR90~1\AppData\Local\Temp\ccLPYcmd.s:23639  .debug_str:000000000000e583 .LASF2650
C:\Users\CYMR90~1\AppData\Local\Temp\ccLPYcmd.s:28812  .debug_str:0000000000022bd0 .LASF2651
C:\Users\CYMR90~1\AppData\Local\Temp\ccLPYcmd.s:31350  .debug_str:000000000002ce8a .LASF2652
C:\Users\CYMR90~1\AppData\Local\Temp\ccLPYcmd.s:21523  .debug_str:0000000000005d9f .LASF2653
C:\Users\CYMR90~1\AppData\Local\Temp\ccLPYcmd.s:26664  .debug_str:000000000001a5be .LASF2654
C:\Users\CYMR90~1\AppData\Local\Temp\ccLPYcmd.s:22801  .debug_str:000000000000af42 .LASF2655
C:\Users\CYMR90~1\AppData\Local\Temp\ccLPYcmd.s:29490  .debug_str:0000000000025768 .LASF2656
C:\Users\CYMR90~1\AppData\Local\Temp\ccLPYcmd.s:20797  .debug_str:0000000000002f3b .LASF2657
C:\Users\CYMR90~1\AppData\Local\Temp\ccLPYcmd.s:31234  .debug_str:000000000002c6e0 .LASF2658
C:\Users\CYMR90~1\AppData\Local\Temp\ccLPYcmd.s:20395  .debug_str:00000000000015f6 .LASF2659
C:\Users\CYMR90~1\AppData\Local\Temp\ccLPYcmd.s:28670  .debug_str:000000000002237e .LASF2660
C:\Users\CYMR90~1\AppData\Local\Temp\ccLPYcmd.s:28680  .debug_str:000000000002241e .LASF2661
C:\Users\CYMR90~1\AppData\Local\Temp\ccLPYcmd.s:25023  .debug_str:0000000000013cbe .LASF2662
C:\Users\CYMR90~1\AppData\Local\Temp\ccLPYcmd.s:24813  .debug_str:0000000000012f6b .LASF2663
C:\Users\CYMR90~1\AppData\Local\Temp\ccLPYcmd.s:27700  .debug_str:000000000001e84a .LASF2664
C:\Users\CYMR90~1\AppData\Local\Temp\ccLPYcmd.s:22931  .debug_str:000000000000b85b .LASF2665
C:\Users\CYMR90~1\AppData\Local\Temp\ccLPYcmd.s:21793  .debug_str:0000000000006dc5 .LASF2666
C:\Users\CYMR90~1\AppData\Local\Temp\ccLPYcmd.s:27998  .debug_str:000000000001fa43 .LASF2667
C:\Users\CYMR90~1\AppData\Local\Temp\ccLPYcmd.s:30560  .debug_str:0000000000029cf7 .LASF2668
C:\Users\CYMR90~1\AppData\Local\Temp\ccLPYcmd.s:25970  .debug_str:0000000000017862 .LASF2669
C:\Users\CYMR90~1\AppData\Local\Temp\ccLPYcmd.s:27342  .debug_str:000000000001d20e .LASF2670
C:\Users\CYMR90~1\AppData\Local\Temp\ccLPYcmd.s:25191  .debug_str:0000000000014730 .LASF2671
C:\Users\CYMR90~1\AppData\Local\Temp\ccLPYcmd.s:23471  .debug_str:000000000000db56 .LASF2672
C:\Users\CYMR90~1\AppData\Local\Temp\ccLPYcmd.s:26842  .debug_str:000000000001b1c9 .LASF2673
C:\Users\CYMR90~1\AppData\Local\Temp\ccLPYcmd.s:30956  .debug_str:000000000002b456 .LASF2674
C:\Users\CYMR90~1\AppData\Local\Temp\ccLPYcmd.s:21319  .debug_str:000000000000516d .LASF2675
C:\Users\CYMR90~1\AppData\Local\Temp\ccLPYcmd.s:21957  .debug_str:0000000000007873 .LASF2676
C:\Users\CYMR90~1\AppData\Local\Temp\ccLPYcmd.s:30374  .debug_str:0000000000029160 .LASF2677
C:\Users\CYMR90~1\AppData\Local\Temp\ccLPYcmd.s:26350  .debug_str:00000000000190cf .LASF2678
C:\Users\CYMR90~1\AppData\Local\Temp\ccLPYcmd.s:29428  .debug_str:0000000000025217 .LASF2679
C:\Users\CYMR90~1\AppData\Local\Temp\ccLPYcmd.s:23325  .debug_str:000000000000d1d8 .LASF2680
C:\Users\CYMR90~1\AppData\Local\Temp\ccLPYcmd.s:28574  .debug_str:0000000000021da1 .LASF2681
C:\Users\CYMR90~1\AppData\Local\Temp\ccLPYcmd.s:28828  .debug_str:0000000000022cb8 .LASF2682
C:\Users\CYMR90~1\AppData\Local\Temp\ccLPYcmd.s:27228  .debug_str:000000000001c9d9 .LASF2683
C:\Users\CYMR90~1\AppData\Local\Temp\ccLPYcmd.s:20989  .debug_str:0000000000003ba2 .LASF2684
C:\Users\CYMR90~1\AppData\Local\Temp\ccLPYcmd.s:26304  .debug_str:0000000000018d29 .LASF2685
C:\Users\CYMR90~1\AppData\Local\Temp\ccLPYcmd.s:20171  .debug_str:000000000000084b .LASF2686
C:\Users\CYMR90~1\AppData\Local\Temp\ccLPYcmd.s:28098  .debug_str:0000000000020093 .LASF2687
C:\Users\CYMR90~1\AppData\Local\Temp\ccLPYcmd.s:30286  .debug_str:0000000000028c0c .LASF2688
C:\Users\CYMR90~1\AppData\Local\Temp\ccLPYcmd.s:22097  .debug_str:00000000000082b1 .LASF2689
C:\Users\CYMR90~1\AppData\Local\Temp\ccLPYcmd.s:20125  .debug_str:000000000000058b .LASF2690
C:\Users\CYMR90~1\AppData\Local\Temp\ccLPYcmd.s:28570  .debug_str:0000000000021d67 .LASF2691
C:\Users\CYMR90~1\AppData\Local\Temp\ccLPYcmd.s:20309  .debug_str:00000000000010fe .LASF2692
C:\Users\CYMR90~1\AppData\Local\Temp\ccLPYcmd.s:23569  .debug_str:000000000000e15d .LASF2693
C:\Users\CYMR90~1\AppData\Local\Temp\ccLPYcmd.s:26806  .debug_str:000000000001af6d .LASF2694
C:\Users\CYMR90~1\AppData\Local\Temp\ccLPYcmd.s:30040  .debug_str:0000000000027aad .LASF2695
C:\Users\CYMR90~1\AppData\Local\Temp\ccLPYcmd.s:21837  .debug_str:0000000000007073 .LASF2696
C:\Users\CYMR90~1\AppData\Local\Temp\ccLPYcmd.s:25077  .debug_str:0000000000013fd3 .LASF2697
C:\Users\CYMR90~1\AppData\Local\Temp\ccLPYcmd.s:21515  .debug_str:0000000000005d46 .LASF2698
C:\Users\CYMR90~1\AppData\Local\Temp\ccLPYcmd.s:26298  .debug_str:0000000000018ccc .LASF2699
C:\Users\CYMR90~1\AppData\Local\Temp\ccLPYcmd.s:31084  .debug_str:000000000002bcd8 .LASF2700
C:\Users\CYMR90~1\AppData\Local\Temp\ccLPYcmd.s:24363  .debug_str:000000000001120b .LASF2701
C:\Users\CYMR90~1\AppData\Local\Temp\ccLPYcmd.s:29104  .debug_str:0000000000023d19 .LASF2702
C:\Users\CYMR90~1\AppData\Local\Temp\ccLPYcmd.s:22439  .debug_str:00000000000097a4 .LASF2703
C:\Users\CYMR90~1\AppData\Local\Temp\ccLPYcmd.s:22815  .debug_str:000000000000b0ea .LASF2704
C:\Users\CYMR90~1\AppData\Local\Temp\ccLPYcmd.s:23479  .debug_str:000000000000dbe6 .LASF2705
C:\Users\CYMR90~1\AppData\Local\Temp\ccLPYcmd.s:28822  .debug_str:0000000000022c52 .LASF2706
C:\Users\CYMR90~1\AppData\Local\Temp\ccLPYcmd.s:26024  .debug_str:0000000000017bb2 .LASF2707
C:\Users\CYMR90~1\AppData\Local\Temp\ccLPYcmd.s:21237  .debug_str:0000000000004c83 .LASF2708
C:\Users\CYMR90~1\AppData\Local\Temp\ccLPYcmd.s:22683  .debug_str:000000000000a6f1 .LASF2709
C:\Users\CYMR90~1\AppData\Local\Temp\ccLPYcmd.s:27920  .debug_str:000000000001f5c0 .LASF2710
C:\Users\CYMR90~1\AppData\Local\Temp\ccLPYcmd.s:21809  .debug_str:0000000000006ef4 .LASF2711
C:\Users\CYMR90~1\AppData\Local\Temp\ccLPYcmd.s:27020  .debug_str:000000000001bc9c .LASF2712
C:\Users\CYMR90~1\AppData\Local\Temp\ccLPYcmd.s:20887  .debug_str:00000000000034f7 .LASF2713
C:\Users\CYMR90~1\AppData\Local\Temp\ccLPYcmd.s:22913  .debug_str:000000000000b711 .LASF2714
C:\Users\CYMR90~1\AppData\Local\Temp\ccLPYcmd.s:28080  .debug_str:000000000001ff80 .LASF2715
C:\Users\CYMR90~1\AppData\Local\Temp\ccLPYcmd.s:22049  .debug_str:0000000000007eed .LASF2716
C:\Users\CYMR90~1\AppData\Local\Temp\ccLPYcmd.s:27248  .debug_str:000000000001cb09 .LASF2717
C:\Users\CYMR90~1\AppData\Local\Temp\ccLPYcmd.s:21099  .debug_str:000000000000431f .LASF2718
C:\Users\CYMR90~1\AppData\Local\Temp\ccLPYcmd.s:29080  .debug_str:0000000000023bd1 .LASF2719
C:\Users\CYMR90~1\AppData\Local\Temp\ccLPYcmd.s:26330  .debug_str:0000000000018eb8 .LASF2720
C:\Users\CYMR90~1\AppData\Local\Temp\ccLPYcmd.s:20571  .debug_str:0000000000002103 .LASF2721
C:\Users\CYMR90~1\AppData\Local\Temp\ccLPYcmd.s:20927  .debug_str:000000000000377f .LASF2722
C:\Users\CYMR90~1\AppData\Local\Temp\ccLPYcmd.s:29562  .debug_str:0000000000025cdd .LASF2723
C:\Users\CYMR90~1\AppData\Local\Temp\ccLPYcmd.s:26872  .debug_str:000000000001b3b2 .LASF2724
C:\Users\CYMR90~1\AppData\Local\Temp\ccLPYcmd.s:26012  .debug_str:0000000000017b14 .LASF2725
C:\Users\CYMR90~1\AppData\Local\Temp\ccLPYcmd.s:31262  .debug_str:000000000002c8eb .LASF2726
C:\Users\CYMR90~1\AppData\Local\Temp\ccLPYcmd.s:25075  .debug_str:0000000000013fb9 .LASF2727
C:\Users\CYMR90~1\AppData\Local\Temp\ccLPYcmd.s:30398  .debug_str:00000000000292c3 .LASF2728
C:\Users\CYMR90~1\AppData\Local\Temp\ccLPYcmd.s:24169  .debug_str:00000000000105ed .LASF2729
C:\Users\CYMR90~1\AppData\Local\Temp\ccLPYcmd.s:26768  .debug_str:000000000001ac99 .LASF2730
C:\Users\CYMR90~1\AppData\Local\Temp\ccLPYcmd.s:20605  .debug_str:00000000000022e5 .LASF2731
C:\Users\CYMR90~1\AppData\Local\Temp\ccLPYcmd.s:25808  .debug_str:0000000000016f0b .LASF2732
C:\Users\CYMR90~1\AppData\Local\Temp\ccLPYcmd.s:25111  .debug_str:000000000001423b .LASF2733
C:\Users\CYMR90~1\AppData\Local\Temp\ccLPYcmd.s:24875  .debug_str:0000000000013360 .LASF2734
C:\Users\CYMR90~1\AppData\Local\Temp\ccLPYcmd.s:23769  .debug_str:000000000000ed89 .LASF2735
C:\Users\CYMR90~1\AppData\Local\Temp\ccLPYcmd.s:30958  .debug_str:000000000002b46e .LASF2736
C:\Users\CYMR90~1\AppData\Local\Temp\ccLPYcmd.s:22755  .debug_str:000000000000ac36 .LASF2737
C:\Users\CYMR90~1\AppData\Local\Temp\ccLPYcmd.s:25968  .debug_str:0000000000017849 .LASF2738
C:\Users\CYMR90~1\AppData\Local\Temp\ccLPYcmd.s:29228  .debug_str:0000000000024564 .LASF2739
C:\Users\CYMR90~1\AppData\Local\Temp\ccLPYcmd.s:21029  .debug_str:0000000000003e2a .LASF2740
C:\Users\CYMR90~1\AppData\Local\Temp\ccLPYcmd.s:24295  .debug_str:0000000000010e35 .LASF2741
C:\Users\CYMR90~1\AppData\Local\Temp\ccLPYcmd.s:27500  .debug_str:000000000001dbce .LASF2742
C:\Users\CYMR90~1\AppData\Local\Temp\ccLPYcmd.s:30700  .debug_str:000000000002a51f .LASF2743
C:\Users\CYMR90~1\AppData\Local\Temp\ccLPYcmd.s:22513  .debug_str:0000000000009c87 .LASF2744
C:\Users\CYMR90~1\AppData\Local\Temp\ccLPYcmd.s:25729  .debug_str:000000000001677f .LASF2745
C:\Users\CYMR90~1\AppData\Local\Temp\ccLPYcmd.s:27740  .debug_str:000000000001eaee .LASF2746
C:\Users\CYMR90~1\AppData\Local\Temp\ccLPYcmd.s:21077  .debug_str:000000000000412d .LASF2747
C:\Users\CYMR90~1\AppData\Local\Temp\ccLPYcmd.s:25842  .debug_str:00000000000170f1 .LASF2748
C:\Users\CYMR90~1\AppData\Local\Temp\ccLPYcmd.s:30614  .debug_str:000000000002a020 .LASF2749
C:\Users\CYMR90~1\AppData\Local\Temp\ccLPYcmd.s:23935  .debug_str:000000000000f71b .LASF2750
C:\Users\CYMR90~1\AppData\Local\Temp\ccLPYcmd.s:28658  .debug_str:00000000000222dd .LASF2751
C:\Users\CYMR90~1\AppData\Local\Temp\ccLPYcmd.s:21973  .debug_str:000000000000798e .LASF2752
C:\Users\CYMR90~1\AppData\Local\Temp\ccLPYcmd.s:25205  .debug_str:000000000001480b .LASF2753
C:\Users\CYMR90~1\AppData\Local\Temp\ccLPYcmd.s:28356  .debug_str:0000000000021003 .LASF2754
C:\Users\CYMR90~1\AppData\Local\Temp\ccLPYcmd.s:20203  .debug_str:0000000000000a13 .LASF2755
C:\Users\CYMR90~1\AppData\Local\Temp\ccLPYcmd.s:23461  .debug_str:000000000000dace .LASF2756
C:\Users\CYMR90~1\AppData\Local\Temp\ccLPYcmd.s:26696  .debug_str:000000000001a844 .LASF2757
C:\Users\CYMR90~1\AppData\Local\Temp\ccLPYcmd.s:29928  .debug_str:000000000002734d .LASF2758
C:\Users\CYMR90~1\AppData\Local\Temp\ccLPYcmd.s:21725  .debug_str:00000000000069a6 .LASF2759
C:\Users\CYMR90~1\AppData\Local\Temp\ccLPYcmd.s:24979  .debug_str:0000000000013a26 .LASF2760
C:\Users\CYMR90~1\AppData\Local\Temp\ccLPYcmd.s:28216  .debug_str:00000000000207fe .LASF2761
C:\Users\CYMR90~1\AppData\Local\Temp\ccLPYcmd.s:25519  .debug_str:0000000000015a25 .LASF2762
C:\Users\CYMR90~1\AppData\Local\Temp\ccLPYcmd.s:30302  .debug_str:0000000000028d15 .LASF2763
C:\Users\CYMR90~1\AppData\Local\Temp\ccLPYcmd.s:23623  .debug_str:000000000000e4ac .LASF2764
C:\Users\CYMR90~1\AppData\Local\Temp\ccLPYcmd.s:21661  .debug_str:00000000000065a4 .LASF2765
C:\Users\CYMR90~1\AppData\Local\Temp\ccLPYcmd.s:26434  .debug_str:00000000000195e0 .LASF2766
C:\Users\CYMR90~1\AppData\Local\Temp\ccLPYcmd.s:24929  .debug_str:0000000000013738 .LASF2767
C:\Users\CYMR90~1\AppData\Local\Temp\ccLPYcmd.s:28158  .debug_str:00000000000203d2 .LASF2768
C:\Users\CYMR90~1\AppData\Local\Temp\ccLPYcmd.s:31436  .debug_str:000000000002d41e .LASF2769
C:\Users\CYMR90~1\AppData\Local\Temp\ccLPYcmd.s:27112  .debug_str:000000000001c293 .LASF2770
C:\Users\CYMR90~1\AppData\Local\Temp\ccLPYcmd.s:29210  .debug_str:000000000002441f .LASF2771
C:\Users\CYMR90~1\AppData\Local\Temp\ccLPYcmd.s:29634  .debug_str:000000000002612a .LASF2772
C:\Users\CYMR90~1\AppData\Local\Temp\ccLPYcmd.s:23467  .debug_str:000000000000db1e .LASF2773
C:\Users\CYMR90~1\AppData\Local\Temp\ccLPYcmd.s:24705  .debug_str:0000000000012859 .LASF2774
C:\Users\CYMR90~1\AppData\Local\Temp\ccLPYcmd.s:27892  .debug_str:000000000001f41b .LASF2775
C:\Users\CYMR90~1\AppData\Local\Temp\ccLPYcmd.s:31214  .debug_str:000000000002c5a6 .LASF2776
C:\Users\CYMR90~1\AppData\Local\Temp\ccLPYcmd.s:28660  .debug_str:00000000000222f8 .LASF2777
C:\Users\CYMR90~1\AppData\Local\Temp\ccLPYcmd.s:30672  .debug_str:000000000002a376 .LASF2778
C:\Users\CYMR90~1\AppData\Local\Temp\ccLPYcmd.s:21003  .debug_str:0000000000003c67 .LASF2779
C:\Users\CYMR90~1\AppData\Local\Temp\ccLPYcmd.s:25753  .debug_str:0000000000016957 .LASF2780
C:\Users\CYMR90~1\AppData\Local\Temp\ccLPYcmd.s:30526  .debug_str:0000000000029b2b .LASF2781
C:\Users\CYMR90~1\AppData\Local\Temp\ccLPYcmd.s:23849  .debug_str:000000000000f1d1 .LASF2782
C:\Users\CYMR90~1\AppData\Local\Temp\ccLPYcmd.s:25719  .debug_str:00000000000166fa .LASF2783
C:\Users\CYMR90~1\AppData\Local\Temp\ccLPYcmd.s:30494  .debug_str:00000000000298f7 .LASF2784
C:\Users\CYMR90~1\AppData\Local\Temp\ccLPYcmd.s:23823  .debug_str:000000000000f056 .LASF2785
C:\Users\CYMR90~1\AppData\Local\Temp\ccLPYcmd.s:28544  .debug_str:0000000000021bb4 .LASF2786
C:\Users\CYMR90~1\AppData\Local\Temp\ccLPYcmd.s:24991  .debug_str:0000000000013ac4 .LASF2787
C:\Users\CYMR90~1\AppData\Local\Temp\ccLPYcmd.s:20513  .debug_str:0000000000001dd7 .LASF2788
C:\Users\CYMR90~1\AppData\Local\Temp\ccLPYcmd.s:25247  .debug_str:0000000000014a38 .LASF2789
C:\Users\CYMR90~1\AppData\Local\Temp\ccLPYcmd.s:30022  .debug_str:00000000000279a1 .LASF2790
C:\Users\CYMR90~1\AppData\Local\Temp\ccLPYcmd.s:23361  .debug_str:000000000000d475 .LASF2791
C:\Users\CYMR90~1\AppData\Local\Temp\ccLPYcmd.s:28056  .debug_str:000000000001fdc5 .LASF2792
C:\Users\CYMR90~1\AppData\Local\Temp\ccLPYcmd.s:26852  .debug_str:000000000001b27f .LASF2793
C:\Users\CYMR90~1\AppData\Local\Temp\ccLPYcmd.s:27686  .debug_str:000000000001e746 .LASF2794
C:\Users\CYMR90~1\AppData\Local\Temp\ccLPYcmd.s:21019  .debug_str:0000000000003d5f .LASF2795
C:\Users\CYMR90~1\AppData\Local\Temp\ccLPYcmd.s:25769  .debug_str:0000000000016afc .LASF2796
C:\Users\CYMR90~1\AppData\Local\Temp\ccLPYcmd.s:22359  .debug_str:00000000000092ae .LASF2797
C:\Users\CYMR90~1\AppData\Local\Temp\ccLPYcmd.s:29180  .debug_str:0000000000024151 .LASF2798
C:\Users\CYMR90~1\AppData\Local\Temp\ccLPYcmd.s:20523  .debug_str:0000000000001e76 .LASF2799
C:\Users\CYMR90~1\AppData\Local\Temp\ccLPYcmd.s:23791  .debug_str:000000000000eea4 .LASF2800
C:\Users\CYMR90~1\AppData\Local\Temp\ccLPYcmd.s:29980  .debug_str:0000000000027766 .LASF2801
C:\Users\CYMR90~1\AppData\Local\Temp\ccLPYcmd.s:30276  .debug_str:0000000000028b78 .LASF2802
C:\Users\CYMR90~1\AppData\Local\Temp\ccLPYcmd.s:21981  .debug_str:00000000000079fa .LASF2803
C:\Users\CYMR90~1\AppData\Local\Temp\ccLPYcmd.s:25213  .debug_str:000000000001485c .LASF2804
C:\Users\CYMR90~1\AppData\Local\Temp\ccLPYcmd.s:22523  .debug_str:0000000000009d03 .LASF2805
C:\Users\CYMR90~1\AppData\Local\Temp\ccLPYcmd.s:20295  .debug_str:000000000000104c .LASF2806
C:\Users\CYMR90~1\AppData\Local\Temp\ccLPYcmd.s:23553  .debug_str:000000000000e07c .LASF2807
C:\Users\CYMR90~1\AppData\Local\Temp\ccLPYcmd.s:22073  .debug_str:0000000000008097 .LASF2808
C:\Users\CYMR90~1\AppData\Local\Temp\ccLPYcmd.s:26072  .debug_str:0000000000017ea8 .LASF2809
C:\Users\CYMR90~1\AppData\Local\Temp\ccLPYcmd.s:30860  .debug_str:000000000002aee9 .LASF2810
C:\Users\CYMR90~1\AppData\Local\Temp\ccLPYcmd.s:24167  .debug_str:00000000000105d6 .LASF2811
C:\Users\CYMR90~1\AppData\Local\Temp\ccLPYcmd.s:28908  .debug_str:000000000002319a .LASF2812
C:\Users\CYMR90~1\AppData\Local\Temp\ccLPYcmd.s:29526  .debug_str:0000000000025a0b .LASF2813
C:\Users\CYMR90~1\AppData\Local\Temp\ccLPYcmd.s:26974  .debug_str:000000000001b9d4 .LASF2814
C:\Users\CYMR90~1\AppData\Local\Temp\ccLPYcmd.s:24349  .debug_str:000000000001112d .LASF2815
C:\Users\CYMR90~1\AppData\Local\Temp\ccLPYcmd.s:30722  .debug_str:000000000002a647 .LASF2816
C:\Users\CYMR90~1\AppData\Local\Temp\ccLPYcmd.s:21753  .debug_str:0000000000006b51 .LASF2817
C:\Users\CYMR90~1\AppData\Local\Temp\ccLPYcmd.s:22171  .debug_str:0000000000008731 .LASF2818
C:\Users\CYMR90~1\AppData\Local\Temp\ccLPYcmd.s:23153  .debug_str:000000000000c693 .LASF2819
C:\Users\CYMR90~1\AppData\Local\Temp\ccLPYcmd.s:30742  .debug_str:000000000002a7a6 .LASF2820
C:\Users\CYMR90~1\AppData\Local\Temp\ccLPYcmd.s:20933  .debug_str:00000000000037cf .LASF2821
C:\Users\CYMR90~1\AppData\Local\Temp\ccLPYcmd.s:25904  .debug_str:000000000001746a .LASF2822
C:\Users\CYMR90~1\AppData\Local\Temp\ccLPYcmd.s:21295  .debug_str:000000000000500c .LASF2823
C:\Users\CYMR90~1\AppData\Local\Temp\ccLPYcmd.s:24699  .debug_str:00000000000127f6 .LASF2824
C:\Users\CYMR90~1\AppData\Local\Temp\ccLPYcmd.s:21339  .debug_str:00000000000052a6 .LASF2825
C:\Users\CYMR90~1\AppData\Local\Temp\ccLPYcmd.s:28226  .debug_str:0000000000020880 .LASF2826
C:\Users\CYMR90~1\AppData\Local\Temp\ccLPYcmd.s:24975  .debug_str:00000000000139ea .LASF2827
C:\Users\CYMR90~1\AppData\Local\Temp\ccLPYcmd.s:23759  .debug_str:000000000000ed28 .LASF2828
C:\Users\CYMR90~1\AppData\Local\Temp\ccLPYcmd.s:22805  .debug_str:000000000000af97 .LASF2829
C:\Users\CYMR90~1\AppData\Local\Temp\ccLPYcmd.s:20357  .debug_str:00000000000013c1 .LASF2830
C:\Users\CYMR90~1\AppData\Local\Temp\ccLPYcmd.s:23189  .debug_str:000000000000c8e7 .LASF2831
C:\Users\CYMR90~1\AppData\Local\Temp\ccLPYcmd.s:24985  .debug_str:0000000000013a68 .LASF2832
C:\Users\CYMR90~1\AppData\Local\Temp\ccLPYcmd.s:28222  .debug_str:0000000000020851 .LASF2833
C:\Users\CYMR90~1\AppData\Local\Temp\ccLPYcmd.s:20067  .debug_str:0000000000000246 .LASF2834
C:\Users\CYMR90~1\AppData\Local\Temp\ccLPYcmd.s:23323  .debug_str:000000000000d1c5 .LASF2835
C:\Users\CYMR90~1\AppData\Local\Temp\ccLPYcmd.s:26540  .debug_str:0000000000019d38 .LASF2836
C:\Users\CYMR90~1\AppData\Local\Temp\ccLPYcmd.s:20267  .debug_str:0000000000000e1b .LASF2837
C:\Users\CYMR90~1\AppData\Local\Temp\ccLPYcmd.s:30046  .debug_str:0000000000027b05 .LASF2838
C:\Users\CYMR90~1\AppData\Local\Temp\ccLPYcmd.s:23805  .debug_str:000000000000ef3d .LASF2839
C:\Users\CYMR90~1\AppData\Local\Temp\ccLPYcmd.s:26776  .debug_str:000000000001ad1d .LASF2840
C:\Users\CYMR90~1\AppData\Local\Temp\ccLPYcmd.s:31272  .debug_str:000000000002c981 .LASF2841
C:\Users\CYMR90~1\AppData\Local\Temp\ccLPYcmd.s:20389  .debug_str:00000000000015c0 .LASF2842
C:\Users\CYMR90~1\AppData\Local\Temp\ccLPYcmd.s:25121  .debug_str:00000000000142dc .LASF2843
C:\Users\CYMR90~1\AppData\Local\Temp\ccLPYcmd.s:23305  .debug_str:000000000000d0a0 .LASF2844
C:\Users\CYMR90~1\AppData\Local\Temp\ccLPYcmd.s:30950  .debug_str:000000000002b3f4 .LASF2845
C:\Users\CYMR90~1\AppData\Local\Temp\ccLPYcmd.s:27116  .debug_str:000000000001c2b2 .LASF2846
C:\Users\CYMR90~1\AppData\Local\Temp\ccLPYcmd.s:23369  .debug_str:000000000000d4cd .LASF2847
C:\Users\CYMR90~1\AppData\Local\Temp\ccLPYcmd.s:28696  .debug_str:00000000000224f7 .LASF2848
C:\Users\CYMR90~1\AppData\Local\Temp\ccLPYcmd.s:20505  .debug_str:0000000000001d63 .LASF2849
C:\Users\CYMR90~1\AppData\Local\Temp\ccLPYcmd.s:23775  .debug_str:000000000000edd4 .LASF2850
C:\Users\CYMR90~1\AppData\Local\Temp\ccLPYcmd.s:26996  .debug_str:000000000001baf8 .LASF2851
C:\Users\CYMR90~1\AppData\Local\Temp\ccLPYcmd.s:30168  .debug_str:00000000000283b3 .LASF2852
C:\Users\CYMR90~1\AppData\Local\Temp\ccLPYcmd.s:28534  .debug_str:0000000000021b24 .LASF2853
C:\Users\CYMR90~1\AppData\Local\Temp\ccLPYcmd.s:25199  .debug_str:00000000000147bb .LASF2854
C:\Users\CYMR90~1\AppData\Local\Temp\ccLPYcmd.s:25239  .debug_str:00000000000149dc .LASF2855
C:\Users\CYMR90~1\AppData\Local\Temp\ccLPYcmd.s:20283  .debug_str:0000000000000f98 .LASF2856
C:\Users\CYMR90~1\AppData\Local\Temp\ccLPYcmd.s:20429  .debug_str:00000000000018bb .LASF2857
C:\Users\CYMR90~1\AppData\Local\Temp\ccLPYcmd.s:25777  .debug_str:0000000000016b76 .LASF2858
C:\Users\CYMR90~1\AppData\Local\Temp\ccLPYcmd.s:28694  .debug_str:00000000000224e2 .LASF2859
C:\Users\CYMR90~1\AppData\Local\Temp\ccLPYcmd.s:23869  .debug_str:000000000000f321 .LASF2860
C:\Users\CYMR90~1\AppData\Local\Temp\ccLPYcmd.s:28596  .debug_str:0000000000021f31 .LASF2861
C:\Users\CYMR90~1\AppData\Local\Temp\ccLPYcmd.s:28764  .debug_str:00000000000228d9 .LASF2862
C:\Users\CYMR90~1\AppData\Local\Temp\ccLPYcmd.s:26688  .debug_str:000000000001a7de .LASF2863
C:\Users\CYMR90~1\AppData\Local\Temp\ccLPYcmd.s:25934  .debug_str:0000000000017607 .LASF2864
C:\Users\CYMR90~1\AppData\Local\Temp\ccLPYcmd.s:23643  .debug_str:000000000000e5c2 .LASF2865
C:\Users\CYMR90~1\AppData\Local\Temp\ccLPYcmd.s:24823  .debug_str:0000000000013013 .LASF2866
C:\Users\CYMR90~1\AppData\Local\Temp\ccLPYcmd.s:24789  .debug_str:0000000000012dd4 .LASF2867
C:\Users\CYMR90~1\AppData\Local\Temp\ccLPYcmd.s:20845  .debug_str:0000000000003251 .LASF2868
C:\Users\CYMR90~1\AppData\Local\Temp\ccLPYcmd.s:20725  .debug_str:0000000000002a97 .LASF2869
C:\Users\CYMR90~1\AppData\Local\Temp\ccLPYcmd.s:28344  .debug_str:0000000000020f5d .LASF2870
C:\Users\CYMR90~1\AppData\Local\Temp\ccLPYcmd.s:29360  .debug_str:0000000000024e0a .LASF2871
C:\Users\CYMR90~1\AppData\Local\Temp\ccLPYcmd.s:29032  .debug_str:00000000000238d2 .LASF2872
C:\Users\CYMR90~1\AppData\Local\Temp\ccLPYcmd.s:22867  .debug_str:000000000000b3e3 .LASF2873
C:\Users\CYMR90~1\AppData\Local\Temp\ccLPYcmd.s:26074  .debug_str:0000000000017ebf .LASF2874
C:\Users\CYMR90~1\AppData\Local\Temp\ccLPYcmd.s:29338  .debug_str:0000000000024c97 .LASF2875
C:\Users\CYMR90~1\AppData\Local\Temp\ccLPYcmd.s:21135  .debug_str:0000000000004544 .LASF2876
C:\Users\CYMR90~1\AppData\Local\Temp\ccLPYcmd.s:24319  .debug_str:0000000000010f7c .LASF2877
C:\Users\CYMR90~1\AppData\Local\Temp\ccLPYcmd.s:27520  .debug_str:000000000001dd05 .LASF2878
C:\Users\CYMR90~1\AppData\Local\Temp\ccLPYcmd.s:31370  .debug_str:000000000002cfaa .LASF2879
C:\Users\CYMR90~1\AppData\Local\Temp\ccLPYcmd.s:22627  .debug_str:000000000000a373 .LASF2880
C:\Users\CYMR90~1\AppData\Local\Temp\ccLPYcmd.s:25848  .debug_str:000000000001714e .LASF2881
C:\Users\CYMR90~1\AppData\Local\Temp\ccLPYcmd.s:29098  .debug_str:0000000000023cd6 .LASF2882
C:\Users\CYMR90~1\AppData\Local\Temp\ccLPYcmd.s:27252  .debug_str:000000000001cb3f .LASF2883
C:\Users\CYMR90~1\AppData\Local\Temp\ccLPYcmd.s:20569  .debug_str:00000000000020ef .LASF2884
C:\Users\CYMR90~1\AppData\Local\Temp\ccLPYcmd.s:25307  .debug_str:0000000000014df7 .LASF2885
C:\Users\CYMR90~1\AppData\Local\Temp\ccLPYcmd.s:30082  .debug_str:0000000000027da9 .LASF2886
C:\Users\CYMR90~1\AppData\Local\Temp\ccLPYcmd.s:23419  .debug_str:000000000000d893 .LASF2887
C:\Users\CYMR90~1\AppData\Local\Temp\ccLPYcmd.s:28122  .debug_str:0000000000020204 .LASF2888
C:\Users\CYMR90~1\AppData\Local\Temp\ccLPYcmd.s:30766  .debug_str:000000000002a953 .LASF2889
C:\Users\CYMR90~1\AppData\Local\Temp\ccLPYcmd.s:30988  .debug_str:000000000002b671 .LASF2890
C:\Users\CYMR90~1\AppData\Local\Temp\ccLPYcmd.s:26726  .debug_str:000000000001a9f7 .LASF2891
C:\Users\CYMR90~1\AppData\Local\Temp\ccLPYcmd.s:21871  .debug_str:00000000000072df .LASF2892
C:\Users\CYMR90~1\AppData\Local\Temp\ccLPYcmd.s:22179  .debug_str:00000000000087a9 .LASF2893
C:\Users\CYMR90~1\AppData\Local\Temp\ccLPYcmd.s:26134  .debug_str:0000000000018214 .LASF2894
C:\Users\CYMR90~1\AppData\Local\Temp\ccLPYcmd.s:31088  .debug_str:000000000002bd05 .LASF2895
C:\Users\CYMR90~1\AppData\Local\Temp\ccLPYcmd.s:24565  .debug_str:0000000000011f0d .LASF2896
C:\Users\CYMR90~1\AppData\Local\Temp\ccLPYcmd.s:25403  .debug_str:0000000000015378 .LASF2897
C:\Users\CYMR90~1\AppData\Local\Temp\ccLPYcmd.s:21571  .debug_str:0000000000006017 .LASF2898
C:\Users\CYMR90~1\AppData\Local\Temp\ccLPYcmd.s:28370  .debug_str:00000000000210c1 .LASF2899
C:\Users\CYMR90~1\AppData\Local\Temp\ccLPYcmd.s:29774  .debug_str:00000000000269ea .LASF2900
C:\Users\CYMR90~1\AppData\Local\Temp\ccLPYcmd.s:31186  .debug_str:000000000002c3bf .LASF2901
C:\Users\CYMR90~1\AppData\Local\Temp\ccLPYcmd.s:21087  .debug_str:000000000000425f .LASF2902
C:\Users\CYMR90~1\AppData\Local\Temp\ccLPYcmd.s:24831  .debug_str:00000000000130a1 .LASF2903
C:\Users\CYMR90~1\AppData\Local\Temp\ccLPYcmd.s:30280  .debug_str:0000000000028ba6 .LASF2904
C:\Users\CYMR90~1\AppData\Local\Temp\ccLPYcmd.s:28190  .debug_str:00000000000205fb .LASF2905
C:\Users\CYMR90~1\AppData\Local\Temp\ccLPYcmd.s:27074  .debug_str:000000000001c011 .LASF2906
C:\Users\CYMR90~1\AppData\Local\Temp\ccLPYcmd.s:26636  .debug_str:000000000001a440 .LASF2907
C:\Users\CYMR90~1\AppData\Local\Temp\ccLPYcmd.s:26558  .debug_str:0000000000019e17 .LASF2908
C:\Users\CYMR90~1\AppData\Local\Temp\ccLPYcmd.s:28806  .debug_str:0000000000022b5c .LASF2909
C:\Users\CYMR90~1\AppData\Local\Temp\ccLPYcmd.s:27070  .debug_str:000000000001bfe4 .LASF2910
C:\Users\CYMR90~1\AppData\Local\Temp\ccLPYcmd.s:26200  .debug_str:0000000000018624 .LASF2911
C:\Users\CYMR90~1\AppData\Local\Temp\ccLPYcmd.s:27604  .debug_str:000000000001e2b4 .LASF2912
C:\Users\CYMR90~1\AppData\Local\Temp\ccLPYcmd.s:24767  .debug_str:0000000000012c68 .LASF2913
C:\Users\CYMR90~1\AppData\Local\Temp\ccLPYcmd.s:23503  .debug_str:000000000000dd22 .LASF2914
C:\Users\CYMR90~1\AppData\Local\Temp\ccLPYcmd.s:22621  .debug_str:000000000000a310 .LASF2915
C:\Users\CYMR90~1\AppData\Local\Temp\ccLPYcmd.s:21709  .debug_str:00000000000068bb .LASF2916
C:\Users\CYMR90~1\AppData\Local\Temp\ccLPYcmd.s:20849  .debug_str:0000000000003287 .LASF2917
C:\Users\CYMR90~1\AppData\Local\Temp\ccLPYcmd.s:31326  .debug_str:000000000002cd01 .LASF2918
C:\Users\CYMR90~1\AppData\Local\Temp\ccLPYcmd.s:25659  .debug_str:0000000000016323 .LASF2919
C:\Users\CYMR90~1\AppData\Local\Temp\ccLPYcmd.s:29264  .debug_str:00000000000247a6 .LASF2920
C:\Users\CYMR90~1\AppData\Local\Temp\ccLPYcmd.s:21055  .debug_str:0000000000004000 .LASF2921
C:\Users\CYMR90~1\AppData\Local\Temp\ccLPYcmd.s:24335  .debug_str:0000000000011060 .LASF2922
C:\Users\CYMR90~1\AppData\Local\Temp\ccLPYcmd.s:27540  .debug_str:000000000001deb2 .LASF2923
C:\Users\CYMR90~1\AppData\Local\Temp\ccLPYcmd.s:22549  .debug_str:0000000000009e8e .LASF2924
C:\Users\CYMR90~1\AppData\Local\Temp\ccLPYcmd.s:22641  .debug_str:000000000000a487 .LASF2925
C:\Users\CYMR90~1\AppData\Local\Temp\ccLPYcmd.s:28886  .debug_str:0000000000023077 .LASF2926
C:\Users\CYMR90~1\AppData\Local\Temp\ccLPYcmd.s:31372  .debug_str:000000000002cfbc .LASF2927
C:\Users\CYMR90~1\AppData\Local\Temp\ccLPYcmd.s:29342  .debug_str:0000000000024ccf .LASF2928
C:\Users\CYMR90~1\AppData\Local\Temp\ccLPYcmd.s:25461  .debug_str:00000000000156b7 .LASF2929
C:\Users\CYMR90~1\AppData\Local\Temp\ccLPYcmd.s:28172  .debug_str:00000000000204d6 .LASF2930
C:\Users\CYMR90~1\AppData\Local\Temp\ccLPYcmd.s:26658  .debug_str:000000000001a561 .LASF2931
C:\Users\CYMR90~1\AppData\Local\Temp\ccLPYcmd.s:26692  .debug_str:000000000001a80c .LASF2932
C:\Users\CYMR90~1\AppData\Local\Temp\ccLPYcmd.s:26732  .debug_str:000000000001aa82 .LASF2933
C:\Users\CYMR90~1\AppData\Local\Temp\ccLPYcmd.s:25685  .debug_str:000000000001645a .LASF2934
C:\Users\CYMR90~1\AppData\Local\Temp\ccLPYcmd.s:24687  .debug_str:0000000000012727 .LASF2935
C:\Users\CYMR90~1\AppData\Local\Temp\ccLPYcmd.s:25069  .debug_str:0000000000013f6c .LASF2936
C:\Users\CYMR90~1\AppData\Local\Temp\ccLPYcmd.s:29690  .debug_str:000000000002648c .LASF2937
C:\Users\CYMR90~1\AppData\Local\Temp\ccLPYcmd.s:26900  .debug_str:000000000001b545 .LASF2938
C:\Users\CYMR90~1\AppData\Local\Temp\ccLPYcmd.s:21555  .debug_str:0000000000005f38 .LASF2939
C:\Users\CYMR90~1\AppData\Local\Temp\ccLPYcmd.s:23501  .debug_str:000000000000dd00 .LASF2940
C:\Users\CYMR90~1\AppData\Local\Temp\ccLPYcmd.s:28502  .debug_str:0000000000021961 .LASF2941
C:\Users\CYMR90~1\AppData\Local\Temp\ccLPYcmd.s:30056  .debug_str:0000000000027bb8 .LASF2942
C:\Users\CYMR90~1\AppData\Local\Temp\ccLPYcmd.s:23063  .debug_str:000000000000c155 .LASF2943
C:\Users\CYMR90~1\AppData\Local\Temp\ccLPYcmd.s:23625  .debug_str:000000000000e4c5 .LASF2944
C:\Users\CYMR90~1\AppData\Local\Temp\ccLPYcmd.s:27648  .debug_str:000000000001e52f .LASF2945
C:\Users\CYMR90~1\AppData\Local\Temp\ccLPYcmd.s:21317  .debug_str:0000000000005157 .LASF2946
C:\Users\CYMR90~1\AppData\Local\Temp\ccLPYcmd.s:30944  .debug_str:000000000002b39b .LASF2947
C:\Users\CYMR90~1\AppData\Local\Temp\ccLPYcmd.s:27992  .debug_str:000000000001f9f9 .LASF2948
C:\Users\CYMR90~1\AppData\Local\Temp\ccLPYcmd.s:29930  .debug_str:0000000000027364 .LASF2949
C:\Users\CYMR90~1\AppData\Local\Temp\ccLPYcmd.s:30790  .debug_str:000000000002aabd .LASF2950
C:\Users\CYMR90~1\AppData\Local\Temp\ccLPYcmd.s:31440  .debug_str:000000000002d452 .LASF2951
C:\Users\CYMR90~1\AppData\Local\Temp\ccLPYcmd.s:20819  .debug_str:000000000000309b .LASF2952
C:\Users\CYMR90~1\AppData\Local\Temp\ccLPYcmd.s:20547  .debug_str:0000000000001fcd .LASF2953
C:\Users\CYMR90~1\AppData\Local\Temp\ccLPYcmd.s:27676  .debug_str:000000000001e6da .LASF2954
C:\Users\CYMR90~1\AppData\Local\Temp\ccLPYcmd.s:20795  .debug_str:0000000000002f24 .LASF2955
C:\Users\CYMR90~1\AppData\Local\Temp\ccLPYcmd.s:24971  .debug_str:00000000000139bc .LASF2956
C:\Users\CYMR90~1\AppData\Local\Temp\ccLPYcmd.s:31230  .debug_str:000000000002c66b .LASF2957
C:\Users\CYMR90~1\AppData\Local\Temp\ccLPYcmd.s:29832  .debug_str:0000000000026d75 .LASF2958
C:\Users\CYMR90~1\AppData\Local\Temp\ccLPYcmd.s:21541  .debug_str:0000000000005e96 .LASF2959
C:\Users\CYMR90~1\AppData\Local\Temp\ccLPYcmd.s:30912  .debug_str:000000000002b1ef .LASF2960
C:\Users\CYMR90~1\AppData\Local\Temp\ccLPYcmd.s:27238  .debug_str:000000000001ca7e .LASF2961
C:\Users\CYMR90~1\AppData\Local\Temp\ccLPYcmd.s:28242  .debug_str:000000000002096f .LASF2962
C:\Users\CYMR90~1\AppData\Local\Temp\ccLPYcmd.s:23991  .debug_str:000000000000fb06 .LASF2963
C:\Users\CYMR90~1\AppData\Local\Temp\ccLPYcmd.s:23137  .debug_str:000000000000c591 .LASF2964
C:\Users\CYMR90~1\AppData\Local\Temp\ccLPYcmd.s:26962  .debug_str:000000000001b950 .LASF2965
C:\Users\CYMR90~1\AppData\Local\Temp\ccLPYcmd.s:30240  .debug_str:00000000000288cf .LASF2966
C:\Users\CYMR90~1\AppData\Local\Temp\ccLPYcmd.s:28652  .debug_str:0000000000022268 .LASF2967
C:\Users\CYMR90~1\AppData\Local\Temp\ccLPYcmd.s:26950  .debug_str:000000000001b85b .LASF2968
C:\Users\CYMR90~1\AppData\Local\Temp\ccLPYcmd.s:21145  .debug_str:00000000000045e2 .LASF2969
C:\Users\CYMR90~1\AppData\Local\Temp\ccLPYcmd.s:26036  .debug_str:0000000000017c5f .LASF2970
C:\Users\CYMR90~1\AppData\Local\Temp\ccLPYcmd.s:28560  .debug_str:0000000000021cda .LASF2971
C:\Users\CYMR90~1\AppData\Local\Temp\ccLPYcmd.s:22029  .debug_str:0000000000007d35 .LASF2972
C:\Users\CYMR90~1\AppData\Local\Temp\ccLPYcmd.s:27416  .debug_str:000000000001d653 .LASF2973
C:\Users\CYMR90~1\AppData\Local\Temp\ccLPYcmd.s:23443  .debug_str:000000000000d9d0 .LASF2974
C:\Users\CYMR90~1\AppData\Local\Temp\ccLPYcmd.s:31010  .debug_str:000000000002b7e4 .LASF2975
C:\Users\CYMR90~1\AppData\Local\Temp\ccLPYcmd.s:26068  .debug_str:0000000000017e56 .LASF2976
C:\Users\CYMR90~1\AppData\Local\Temp\ccLPYcmd.s:21017  .debug_str:0000000000003d3c .LASF2977
C:\Users\CYMR90~1\AppData\Local\Temp\ccLPYcmd.s:26300  .debug_str:0000000000018ce4 .LASF2978
C:\Users\CYMR90~1\AppData\Local\Temp\ccLPYcmd.s:20059  .debug_str:00000000000001b4 .LASF2979
C:\Users\CYMR90~1\AppData\Local\Temp\ccLPYcmd.s:23815  .debug_str:000000000000efc6 .LASF2980
C:\Users\CYMR90~1\AppData\Local\Temp\ccLPYcmd.s:25289  .debug_str:0000000000014ca0 .LASF2981
C:\Users\CYMR90~1\AppData\Local\Temp\ccLPYcmd.s:21169  .debug_str:000000000000477d .LASF2982
C:\Users\CYMR90~1\AppData\Local\Temp\ccLPYcmd.s:23839  .debug_str:000000000000f12d .LASF2983
C:\Users\CYMR90~1\AppData\Local\Temp\ccLPYcmd.s:23527  .debug_str:000000000000de96 .LASF2984
C:\Users\CYMR90~1\AppData\Local\Temp\ccLPYcmd.s:29048  .debug_str:00000000000239f7 .LASF2985
C:\Users\CYMR90~1\AppData\Local\Temp\ccLPYcmd.s:25878  .debug_str:0000000000017306 .LASF2986
C:\Users\CYMR90~1\AppData\Local\Temp\ccLPYcmd.s:24967  .debug_str:0000000000013972 .LASF2987
C:\Users\CYMR90~1\AppData\Local\Temp\ccLPYcmd.s:22251  .debug_str:0000000000008c60 .LASF2988
C:\Users\CYMR90~1\AppData\Local\Temp\ccLPYcmd.s:30752  .debug_str:000000000002a85e .LASF2989
C:\Users\CYMR90~1\AppData\Local\Temp\ccLPYcmd.s:30878  .debug_str:000000000002afd5 .LASF2990
C:\Users\CYMR90~1\AppData\Local\Temp\ccLPYcmd.s:25377  .debug_str:0000000000015209 .LASF2991
C:\Users\CYMR90~1\AppData\Local\Temp\ccLPYcmd.s:21387  .debug_str:0000000000005575 .LASF2992
C:\Users\CYMR90~1\AppData\Local\Temp\ccLPYcmd.s:25555  .debug_str:0000000000015c6d .LASF2993
C:\Users\CYMR90~1\AppData\Local\Temp\ccLPYcmd.s:28786  .debug_str:0000000000022a3e .LASF2994
C:\Users\CYMR90~1\AppData\Local\Temp\ccLPYcmd.s:24187  .debug_str:00000000000106fb .LASF2995
C:\Users\CYMR90~1\AppData\Local\Temp\ccLPYcmd.s:22661  .debug_str:000000000000a5d0 .LASF2996
C:\Users\CYMR90~1\AppData\Local\Temp\ccLPYcmd.s:20193  .debug_str:0000000000000978 .LASF2997
C:\Users\CYMR90~1\AppData\Local\Temp\ccLPYcmd.s:28234  .debug_str:00000000000208fd .LASF2998
C:\Users\CYMR90~1\AppData\Local\Temp\ccLPYcmd.s:31294  .debug_str:000000000002ca98 .LASF2999
C:\Users\CYMR90~1\AppData\Local\Temp\ccLPYcmd.s:29176  .debug_str:0000000000024106 .LASF3000
C:\Users\CYMR90~1\AppData\Local\Temp\ccLPYcmd.s:28554  .debug_str:0000000000021c78 .LASF3001
C:\Users\CYMR90~1\AppData\Local\Temp\ccLPYcmd.s:21347  .debug_str:0000000000005315 .LASF3002
C:\Users\CYMR90~1\AppData\Local\Temp\ccLPYcmd.s:31414  .debug_str:000000000002d2b5 .LASF3003
C:\Users\CYMR90~1\AppData\Local\Temp\ccLPYcmd.s:23717  .debug_str:000000000000ea64 .LASF3004
C:\Users\CYMR90~1\AppData\Local\Temp\ccLPYcmd.s:27086  .debug_str:000000000001c0df .LASF3005
C:\Users\CYMR90~1\AppData\Local\Temp\ccLPYcmd.s:20387  .debug_str:00000000000015a9 .LASF3006
C:\Users\CYMR90~1\AppData\Local\Temp\ccLPYcmd.s:24313  .debug_str:0000000000010f28 .LASF3007
C:\Users\CYMR90~1\AppData\Local\Temp\ccLPYcmd.s:23441  .debug_str:000000000000d9b7 .LASF3008
C:\Users\CYMR90~1\AppData\Local\Temp\ccLPYcmd.s:20573  .debug_str:000000000000211b .LASF3009
C:\Users\CYMR90~1\AppData\Local\Temp\ccLPYcmd.s:27784  .debug_str:000000000001ed4c .LASF3010
C:\Users\CYMR90~1\AppData\Local\Temp\ccLPYcmd.s:23087  .debug_str:000000000000c2e1 .LASF3011
C:\Users\CYMR90~1\AppData\Local\Temp\ccLPYcmd.s:21857  .debug_str:00000000000071e9 .LASF3012
C:\Users\CYMR90~1\AppData\Local\Temp\ccLPYcmd.s:26226  .debug_str:00000000000187ab .LASF3013
C:\Users\CYMR90~1\AppData\Local\Temp\ccLPYcmd.s:24033  .debug_str:000000000000fdaf .LASF3014
C:\Users\CYMR90~1\AppData\Local\Temp\ccLPYcmd.s:20803  .debug_str:0000000000002fa6 .LASF3015
C:\Users\CYMR90~1\AppData\Local\Temp\ccLPYcmd.s:23151  .debug_str:000000000000c67f .LASF3016
C:\Users\CYMR90~1\AppData\Local\Temp\ccLPYcmd.s:23649  .debug_str:000000000000e624 .LASF3017
C:\Users\CYMR90~1\AppData\Local\Temp\ccLPYcmd.s:31042  .debug_str:000000000002b9fb .LASF3018
C:\Users\CYMR90~1\AppData\Local\Temp\ccLPYcmd.s:21827  .debug_str:0000000000006fed .LASF3019
C:\Users\CYMR90~1\AppData\Local\Temp\ccLPYcmd.s:28118  .debug_str:00000000000201c5 .LASF3020
C:\Users\CYMR90~1\AppData\Local\Temp\ccLPYcmd.s:24021  .debug_str:000000000000fcdc .LASF3021
C:\Users\CYMR90~1\AppData\Local\Temp\ccLPYcmd.s:25890  .debug_str:00000000000173c6 .LASF3022
C:\Users\CYMR90~1\AppData\Local\Temp\ccLPYcmd.s:21303  .debug_str:000000000000507f .LASF3023
C:\Users\CYMR90~1\AppData\Local\Temp\ccLPYcmd.s:30966  .debug_str:000000000002b4e4 .LASF3024
C:\Users\CYMR90~1\AppData\Local\Temp\ccLPYcmd.s:23603  .debug_str:000000000000e353 .LASF3025
C:\Users\CYMR90~1\AppData\Local\Temp\ccLPYcmd.s:22693  .debug_str:000000000000a77f .LASF3026
C:\Users\CYMR90~1\AppData\Local\Temp\ccLPYcmd.s:29406  .debug_str:00000000000250e6 .LASF3027
C:\Users\CYMR90~1\AppData\Local\Temp\ccLPYcmd.s:23771  .debug_str:000000000000eda4 .LASF3028
C:\Users\CYMR90~1\AppData\Local\Temp\ccLPYcmd.s:23573  .debug_str:000000000000e1a3 .LASF3029
C:\Users\CYMR90~1\AppData\Local\Temp\ccLPYcmd.s:30164  .debug_str:0000000000028366 .LASF3030
C:\Users\CYMR90~1\AppData\Local\Temp\ccLPYcmd.s:22217  .debug_str:0000000000008a1c .LASF3031
C:\Users\CYMR90~1\AppData\Local\Temp\ccLPYcmd.s:25956  .debug_str:000000000001776c .LASF3032
C:\Users\CYMR90~1\AppData\Local\Temp\ccLPYcmd.s:30260  .debug_str:0000000000028a4e .LASF3033
C:\Users\CYMR90~1\AppData\Local\Temp\ccLPYcmd.s:20075  .debug_str:0000000000000296 .LASF3034
C:\Users\CYMR90~1\AppData\Local\Temp\ccLPYcmd.s:21061  .debug_str:000000000000405c .LASF3035
C:\Users\CYMR90~1\AppData\Local\Temp\ccLPYcmd.s:27140  .debug_str:000000000001c415 .LASF3036
C:\Users\CYMR90~1\AppData\Local\Temp\ccLPYcmd.s:26940  .debug_str:000000000001b7bf .LASF3037
C:\Users\CYMR90~1\AppData\Local\Temp\ccLPYcmd.s:21153  .debug_str:0000000000004675 .LASF3038
C:\Users\CYMR90~1\AppData\Local\Temp\ccLPYcmd.s:23447  .debug_str:000000000000da14 .LASF3039
C:\Users\CYMR90~1\AppData\Local\Temp\ccLPYcmd.s:26546  .debug_str:0000000000019d84 .LASF3040
C:\Users\CYMR90~1\AppData\Local\Temp\ccLPYcmd.s:20327  .debug_str:0000000000001223 .LASF3041
C:\Users\CYMR90~1\AppData\Local\Temp\ccLPYcmd.s:23813  .debug_str:000000000000efac .LASF3042
C:\Users\CYMR90~1\AppData\Local\Temp\ccLPYcmd.s:27144  .debug_str:000000000001c449 .LASF3043
C:\Users\CYMR90~1\AppData\Local\Temp\ccLPYcmd.s:30536  .debug_str:0000000000029bae .LASF3044
C:\Users\CYMR90~1\AppData\Local\Temp\ccLPYcmd.s:20461  .debug_str:0000000000001aaa .LASF3045
C:\Users\CYMR90~1\AppData\Local\Temp\ccLPYcmd.s:22543  .debug_str:0000000000009e3a .LASF3046
C:\Users\CYMR90~1\AppData\Local\Temp\ccLPYcmd.s:29960  .debug_str:000000000002760f .LASF3047
C:\Users\CYMR90~1\AppData\Local\Temp\ccLPYcmd.s:22105  .debug_str:0000000000008346 .LASF3048
C:\Users\CYMR90~1\AppData\Local\Temp\ccLPYcmd.s:23609  .debug_str:000000000000e3cc .LASF3049
C:\Users\CYMR90~1\AppData\Local\Temp\ccLPYcmd.s:29178  .debug_str:0000000000024132 .LASF3050
C:\Users\CYMR90~1\AppData\Local\Temp\ccLPYcmd.s:26476  .debug_str:000000000001990c .LASF3051
C:\Users\CYMR90~1\AppData\Local\Temp\ccLPYcmd.s:22497  .debug_str:0000000000009b7e .LASF3052
C:\Users\CYMR90~1\AppData\Local\Temp\ccLPYcmd.s:27900  .debug_str:000000000001f49e .LASF3053
C:\Users\CYMR90~1\AppData\Local\Temp\ccLPYcmd.s:22077  .debug_str:00000000000080dc .LASF3054
C:\Users\CYMR90~1\AppData\Local\Temp\ccLPYcmd.s:30150  .debug_str:000000000002823d .LASF3055
C:\Users\CYMR90~1\AppData\Local\Temp\ccLPYcmd.s:29812  .debug_str:0000000000026c38 .LASF3056
C:\Users\CYMR90~1\AppData\Local\Temp\ccLPYcmd.s:24413  .debug_str:00000000000114dd .LASF3057
C:\Users\CYMR90~1\AppData\Local\Temp\ccLPYcmd.s:29314  .debug_str:0000000000024b5d .LASF3058
C:\Users\CYMR90~1\AppData\Local\Temp\ccLPYcmd.s:28372  .debug_str:00000000000210e1 .LASF3059
C:\Users\CYMR90~1\AppData\Local\Temp\ccLPYcmd.s:24299  .debug_str:0000000000010e63 .LASF3060
C:\Users\CYMR90~1\AppData\Local\Temp\ccLPYcmd.s:29900  .debug_str:00000000000271ca .LASF3061
C:\Users\CYMR90~1\AppData\Local\Temp\ccLPYcmd.s:29052  .debug_str:0000000000023a34 .LASF3062
C:\Users\CYMR90~1\AppData\Local\Temp\ccLPYcmd.s:25838  .debug_str:00000000000170cc .LASF3063
C:\Users\CYMR90~1\AppData\Local\Temp\ccLPYcmd.s:25575  .debug_str:0000000000015ddc .LASF3064
C:\Users\CYMR90~1\AppData\Local\Temp\ccLPYcmd.s:27856  .debug_str:000000000001f1f6 .LASF3065
C:\Users\CYMR90~1\AppData\Local\Temp\ccLPYcmd.s:24259  .debug_str:0000000000010ba9 .LASF3066
C:\Users\CYMR90~1\AppData\Local\Temp\ccLPYcmd.s:24389  .debug_str:000000000001137b .LASF3067
C:\Users\CYMR90~1\AppData\Local\Temp\ccLPYcmd.s:23787  .debug_str:000000000000ee73 .LASF3068
C:\Users\CYMR90~1\AppData\Local\Temp\ccLPYcmd.s:23917  .debug_str:000000000000f618 .LASF3069
C:\Users\CYMR90~1\AppData\Local\Temp\ccLPYcmd.s:27592  .debug_str:000000000001e201 .LASF3070
C:\Users\CYMR90~1\AppData\Local\Temp\ccLPYcmd.s:30278  .debug_str:0000000000028b8d .LASF3071
C:\Users\CYMR90~1\AppData\Local\Temp\ccLPYcmd.s:25699  .debug_str:00000000000165be .LASF3072
C:\Users\CYMR90~1\AppData\Local\Temp\ccLPYcmd.s:29172  .debug_str:00000000000240d7 .LASF3073
C:\Users\CYMR90~1\AppData\Local\Temp\ccLPYcmd.s:20609  .debug_str:0000000000002317 .LASF3074
C:\Users\CYMR90~1\AppData\Local\Temp\ccLPYcmd.s:21849  .debug_str:0000000000007141 .LASF3075
C:\Users\CYMR90~1\AppData\Local\Temp\ccLPYcmd.s:30328  .debug_str:0000000000028e7c .LASF3076
C:\Users\CYMR90~1\AppData\Local\Temp\ccLPYcmd.s:22599  .debug_str:000000000000a1b1 .LASF3077
C:\Users\CYMR90~1\AppData\Local\Temp\ccLPYcmd.s:25073  .debug_str:0000000000013fa2 .LASF3078
C:\Users\CYMR90~1\AppData\Local\Temp\ccLPYcmd.s:23747  .debug_str:000000000000ec4f .LASF3079
C:\Users\CYMR90~1\AppData\Local\Temp\ccLPYcmd.s:25425  .debug_str:00000000000154c8 .LASF3080
C:\Users\CYMR90~1\AppData\Local\Temp\ccLPYcmd.s:28314  .debug_str:0000000000020db7 .LASF3081
C:\Users\CYMR90~1\AppData\Local\Temp\ccLPYcmd.s:26198  .debug_str:00000000000185d5 .LASF3082
C:\Users\CYMR90~1\AppData\Local\Temp\ccLPYcmd.s:28168  .debug_str:000000000002047c .LASF3083
C:\Users\CYMR90~1\AppData\Local\Temp\ccLPYcmd.s:30420  .debug_str:00000000000293fa .LASF3084
C:\Users\CYMR90~1\AppData\Local\Temp\ccLPYcmd.s:28830  .debug_str:0000000000022cd3 .LASF3085
C:\Users\CYMR90~1\AppData\Local\Temp\ccLPYcmd.s:23163  .debug_str:000000000000c72a .LASF3086
C:\Users\CYMR90~1\AppData\Local\Temp\ccLPYcmd.s:31242  .debug_str:000000000002c792 .LASF3087
C:\Users\CYMR90~1\AppData\Local\Temp\ccLPYcmd.s:27950  .debug_str:000000000001f779 .LASF3088
C:\Users\CYMR90~1\AppData\Local\Temp\ccLPYcmd.s:29942  .debug_str:000000000002743f .LASF3089
C:\Users\CYMR90~1\AppData\Local\Temp\ccLPYcmd.s:29678  .debug_str:0000000000026407 .LASF3090
C:\Users\CYMR90~1\AppData\Local\Temp\ccLPYcmd.s:27590  .debug_str:000000000001e1d9 .LASF3091
C:\Users\CYMR90~1\AppData\Local\Temp\ccLPYcmd.s:25473  .debug_str:0000000000015766 .LASF3092
C:\Users\CYMR90~1\AppData\Local\Temp\ccLPYcmd.s:25379  .debug_str:0000000000015234 .LASF3093
C:\Users\CYMR90~1\AppData\Local\Temp\ccLPYcmd.s:26290  .debug_str:0000000000018c62 .LASF3094
C:\Users\CYMR90~1\AppData\Local\Temp\ccLPYcmd.s:27986  .debug_str:000000000001f9a8 .LASF3095
C:\Users\CYMR90~1\AppData\Local\Temp\ccLPYcmd.s:28520  .debug_str:0000000000021a6a .LASF3096
C:\Users\CYMR90~1\AppData\Local\Temp\ccLPYcmd.s:31376  .debug_str:000000000002cfe0 .LASF3097
C:\Users\CYMR90~1\AppData\Local\Temp\ccLPYcmd.s:23973  .debug_str:000000000000fa16 .LASF3098
C:\Users\CYMR90~1\AppData\Local\Temp\ccLPYcmd.s:20817  .debug_str:000000000000306f .LASF3099
C:\Users\CYMR90~1\AppData\Local\Temp\ccLPYcmd.s:23829  .debug_str:000000000000f0a6 .LASF3100
C:\Users\CYMR90~1\AppData\Local\Temp\ccLPYcmd.s:28192  .debug_str:0000000000020620 .LASF3101
C:\Users\CYMR90~1\AppData\Local\Temp\ccLPYcmd.s:25449  .debug_str:0000000000015602 .LASF3102
C:\Users\CYMR90~1\AppData\Local\Temp\ccLPYcmd.s:24453  .debug_str:0000000000011768 .LASF3103
C:\Users\CYMR90~1\AppData\Local\Temp\ccLPYcmd.s:27082  .debug_str:000000000001c0a8 .LASF3104
C:\Users\CYMR90~1\AppData\Local\Temp\ccLPYcmd.s:26102  .debug_str:000000000001802c .LASF3105
C:\Users\CYMR90~1\AppData\Local\Temp\ccLPYcmd.s:28022  .debug_str:000000000001fbdb .LASF3106
C:\Users\CYMR90~1\AppData\Local\Temp\ccLPYcmd.s:24261  .debug_str:0000000000010bc1 .LASF3107
C:\Users\CYMR90~1\AppData\Local\Temp\ccLPYcmd.s:30210  .debug_str:00000000000286bb .LASF3108
C:\Users\CYMR90~1\AppData\Local\Temp\ccLPYcmd.s:22319  .debug_str:000000000000906a .LASF3109
C:\Users\CYMR90~1\AppData\Local\Temp\ccLPYcmd.s:21395  .debug_str:0000000000005613 .LASF3110
C:\Users\CYMR90~1\AppData\Local\Temp\ccLPYcmd.s:20445  .debug_str:00000000000019bf .LASF3111
C:\Users\CYMR90~1\AppData\Local\Temp\ccLPYcmd.s:30926  .debug_str:000000000002b2b7 .LASF3112
C:\Users\CYMR90~1\AppData\Local\Temp\ccLPYcmd.s:28464  .debug_str:00000000000216f3 .LASF3113
C:\Users\CYMR90~1\AppData\Local\Temp\ccLPYcmd.s:27478  .debug_str:000000000001da79 .LASF3114
C:\Users\CYMR90~1\AppData\Local\Temp\ccLPYcmd.s:26628  .debug_str:000000000001a22d .LASF3115
C:\Users\CYMR90~1\AppData\Local\Temp\ccLPYcmd.s:25619  .debug_str:00000000000160c5 .LASF3116
C:\Users\CYMR90~1\AppData\Local\Temp\ccLPYcmd.s:24677  .debug_str:0000000000012669 .LASF3117
C:\Users\CYMR90~1\AppData\Local\Temp\ccLPYcmd.s:23709  .debug_str:000000000000e9f3 .LASF3118
C:\Users\CYMR90~1\AppData\Local\Temp\ccLPYcmd.s:23845  .debug_str:000000000000f186 .LASF3119
C:\Users\CYMR90~1\AppData\Local\Temp\ccLPYcmd.s:29892  .debug_str:0000000000027123 .LASF3120
C:\Users\CYMR90~1\AppData\Local\Temp\ccLPYcmd.s:29674  .debug_str:00000000000263b1 .LASF3121
C:\Users\CYMR90~1\AppData\Local\Temp\ccLPYcmd.s:24163  .debug_str:0000000000010585 .LASF3122
C:\Users\CYMR90~1\AppData\Local\Temp\ccLPYcmd.s:23017  .debug_str:000000000000be27 .LASF3123
C:\Users\CYMR90~1\AppData\Local\Temp\ccLPYcmd.s:21903  .debug_str:000000000000751f .LASF3124
C:\Users\CYMR90~1\AppData\Local\Temp\ccLPYcmd.s:27314  .debug_str:000000000001cfb8 .LASF3125
C:\Users\CYMR90~1\AppData\Local\Temp\ccLPYcmd.s:28950  .debug_str:00000000000233d3 .LASF3126
C:\Users\CYMR90~1\AppData\Local\Temp\ccLPYcmd.s:23199  .debug_str:000000000000c9d5 .LASF3127
C:\Users\CYMR90~1\AppData\Local\Temp\ccLPYcmd.s:21465  .debug_str:0000000000005a21 .LASF3128
C:\Users\CYMR90~1\AppData\Local\Temp\ccLPYcmd.s:21249  .debug_str:0000000000004d2a .LASF3129
C:\Users\CYMR90~1\AppData\Local\Temp\ccLPYcmd.s:27230  .debug_str:000000000001c9f4 .LASF3130
C:\Users\CYMR90~1\AppData\Local\Temp\ccLPYcmd.s:25715  .debug_str:00000000000166b4 .LASF3131
C:\Users\CYMR90~1\AppData\Local\Temp\ccLPYcmd.s:20749  .debug_str:0000000000002c40 .LASF3132
C:\Users\CYMR90~1\AppData\Local\Temp\ccLPYcmd.s:31316  .debug_str:000000000002cc3e .LASF3133
C:\Users\CYMR90~1\AppData\Local\Temp\ccLPYcmd.s:30250  .debug_str:0000000000028980 .LASF3134
C:\Users\CYMR90~1\AppData\Local\Temp\ccLPYcmd.s:21219  .debug_str:0000000000004b56 .LASF3135
C:\Users\CYMR90~1\AppData\Local\Temp\ccLPYcmd.s:27060  .debug_str:000000000001bf39 .LASF3136
C:\Users\CYMR90~1\AppData\Local\Temp\ccLPYcmd.s:24265  .debug_str:0000000000010c06 .LASF3137
C:\Users\CYMR90~1\AppData\Local\Temp\ccLPYcmd.s:27364  .debug_str:000000000001d35d .LASF3138
C:\Users\CYMR90~1\AppData\Local\Temp\ccLPYcmd.s:20131  .debug_str:00000000000005f9 .LASF3139
C:\Users\CYMR90~1\AppData\Local\Temp\ccLPYcmd.s:24851  .debug_str:00000000000131f9 .LASF3140
C:\Users\CYMR90~1\AppData\Local\Temp\ccLPYcmd.s:29622  .debug_str:0000000000026076 .LASF3141
C:\Users\CYMR90~1\AppData\Local\Temp\ccLPYcmd.s:24763  .debug_str:0000000000012c34 .LASF3142
C:\Users\CYMR90~1\AppData\Local\Temp\ccLPYcmd.s:21617  .debug_str:00000000000062fa .LASF3143
C:\Users\CYMR90~1\AppData\Local\Temp\ccLPYcmd.s:26066  .debug_str:0000000000017e3e .LASF3144
C:\Users\CYMR90~1\AppData\Local\Temp\ccLPYcmd.s:24517  .debug_str:0000000000011c3c .LASF3145
C:\Users\CYMR90~1\AppData\Local\Temp\ccLPYcmd.s:23059  .debug_str:000000000000c12d .LASF3146
C:\Users\CYMR90~1\AppData\Local\Temp\ccLPYcmd.s:26926  .debug_str:000000000001b6d0 .LASF3147
C:\Users\CYMR90~1\AppData\Local\Temp\ccLPYcmd.s:23417  .debug_str:000000000000d875 .LASF3148
C:\Users\CYMR90~1\AppData\Local\Temp\ccLPYcmd.s:22387  .debug_str:000000000000944b .LASF3149
C:\Users\CYMR90~1\AppData\Local\Temp\ccLPYcmd.s:29324  .debug_str:0000000000024bd2 .LASF3150
C:\Users\CYMR90~1\AppData\Local\Temp\ccLPYcmd.s:24561  .debug_str:0000000000011ed5 .LASF3151
C:\Users\CYMR90~1\AppData\Local\Temp\ccLPYcmd.s:28920  .debug_str:0000000000023250 .LASF3152
C:\Users\CYMR90~1\AppData\Local\Temp\ccLPYcmd.s:22719  .debug_str:000000000000aa1f .LASF3153
C:\Users\CYMR90~1\AppData\Local\Temp\ccLPYcmd.s:26492  .debug_str:0000000000019a30 .LASF3154
C:\Users\CYMR90~1\AppData\Local\Temp\ccLPYcmd.s:29854  .debug_str:0000000000026ea8 .LASF3155
C:\Users\CYMR90~1\AppData\Local\Temp\ccLPYcmd.s:23445  .debug_str:000000000000d9ef .LASF3156
C:\Users\CYMR90~1\AppData\Local\Temp\ccLPYcmd.s:21511  .debug_str:0000000000005d10 .LASF3157
C:\Users\CYMR90~1\AppData\Local\Temp\ccLPYcmd.s:23043  .debug_str:000000000000c001 .LASF3158
C:\Users\CYMR90~1\AppData\Local\Temp\ccLPYcmd.s:21811  .debug_str:0000000000006f10 .LASF3159
C:\Users\CYMR90~1\AppData\Local\Temp\ccLPYcmd.s:23735  .debug_str:000000000000ebb8 .LASF3160
C:\Users\CYMR90~1\AppData\Local\Temp\ccLPYcmd.s:20281  .debug_str:0000000000000f7b .LASF3161
C:\Users\CYMR90~1\AppData\Local\Temp\ccLPYcmd.s:31066  .debug_str:000000000002bb77 .LASF3162
C:\Users\CYMR90~1\AppData\Local\Temp\ccLPYcmd.s:30648  .debug_str:000000000002a214 .LASF3163
C:\Users\CYMR90~1\AppData\Local\Temp\ccLPYcmd.s:23847  .debug_str:000000000000f1b5 .LASF3164
C:\Users\CYMR90~1\AppData\Local\Temp\ccLPYcmd.s:29170  .debug_str:00000000000240bf .LASF3165
C:\Users\CYMR90~1\AppData\Local\Temp\ccLPYcmd.s:27608  .debug_str:000000000001e2ea .LASF3166
C:\Users\CYMR90~1\AppData\Local\Temp\ccLPYcmd.s:27994  .debug_str:000000000001fa0e .LASF3167
C:\Users\CYMR90~1\AppData\Local\Temp\ccLPYcmd.s:29998  .debug_str:0000000000027855 .LASF3168
C:\Users\CYMR90~1\AppData\Local\Temp\ccLPYcmd.s:25153  .debug_str:0000000000014492 .LASF3169
C:\Users\CYMR90~1\AppData\Local\Temp\ccLPYcmd.s:25721  .debug_str:000000000001670f .LASF3170
C:\Users\CYMR90~1\AppData\Local\Temp\ccLPYcmd.s:20539  .debug_str:0000000000001f50 .LASF3171
C:\Users\CYMR90~1\AppData\Local\Temp\ccLPYcmd.s:27978  .debug_str:000000000001f90a .LASF3172
C:\Users\CYMR90~1\AppData\Local\Temp\ccLPYcmd.s:27928  .debug_str:000000000001f631 .LASF3173
C:\Users\CYMR90~1\AppData\Local\Temp\ccLPYcmd.s:27034  .debug_str:000000000001bd6a .LASF3174
C:\Users\CYMR90~1\AppData\Local\Temp\ccLPYcmd.s:20709  .debug_str:00000000000029a2 .LASF3175
C:\Users\CYMR90~1\AppData\Local\Temp\ccLPYcmd.s:29488  .debug_str:0000000000025749 .LASF3176
C:\Users\CYMR90~1\AppData\Local\Temp\ccLPYcmd.s:23335  .debug_str:000000000000d278 .LASF3177
C:\Users\CYMR90~1\AppData\Local\Temp\ccLPYcmd.s:21059  .debug_str:0000000000004036 .LASF3178
C:\Users\CYMR90~1\AppData\Local\Temp\ccLPYcmd.s:20799  .debug_str:0000000000002f5b .LASF3179
C:\Users\CYMR90~1\AppData\Local\Temp\ccLPYcmd.s:22213  .debug_str:00000000000089e2 .LASF3180
C:\Users\CYMR90~1\AppData\Local\Temp\ccLPYcmd.s:27598  .debug_str:000000000001e24c .LASF3181
C:\Users\CYMR90~1\AppData\Local\Temp\ccLPYcmd.s:28756  .debug_str:0000000000022851 .LASF3182
C:\Users\CYMR90~1\AppData\Local\Temp\ccLPYcmd.s:22591  .debug_str:000000000000a13e .LASF3183
C:\Users\CYMR90~1\AppData\Local\Temp\ccLPYcmd.s:23533  .debug_str:000000000000dee7 .LASF3184
C:\Users\CYMR90~1\AppData\Local\Temp\ccLPYcmd.s:25513  .debug_str:00000000000159d4 .LASF3185
C:\Users\CYMR90~1\AppData\Local\Temp\ccLPYcmd.s:21629  .debug_str:00000000000063a5 .LASF3186
C:\Users\CYMR90~1\AppData\Local\Temp\ccLPYcmd.s:26800  .debug_str:000000000001af03 .LASF3187
C:\Users\CYMR90~1\AppData\Local\Temp\ccLPYcmd.s:26450  .debug_str:00000000000196dc .LASF3188
C:\Users\CYMR90~1\AppData\Local\Temp\ccLPYcmd.s:23051  .debug_str:000000000000c085 .LASF3189
C:\Users\CYMR90~1\AppData\Local\Temp\ccLPYcmd.s:28196  .debug_str:0000000000020662 .LASF3190
C:\Users\CYMR90~1\AppData\Local\Temp\ccLPYcmd.s:26000  .debug_str:0000000000017a4e .LASF3191
C:\Users\CYMR90~1\AppData\Local\Temp\ccLPYcmd.s:30244  .debug_str:000000000002890e .LASF3192
C:\Users\CYMR90~1\AppData\Local\Temp\ccLPYcmd.s:27702  .debug_str:000000000001e879 .LASF3193
C:\Users\CYMR90~1\AppData\Local\Temp\ccLPYcmd.s:27010  .debug_str:000000000001bbab .LASF3194
C:\Users\CYMR90~1\AppData\Local\Temp\ccLPYcmd.s:30120  .debug_str:0000000000028044 .LASF3195
C:\Users\CYMR90~1\AppData\Local\Temp\ccLPYcmd.s:20565  .debug_str:00000000000020be .LASF3196
C:\Users\CYMR90~1\AppData\Local\Temp\ccLPYcmd.s:26156  .debug_str:000000000001835d .LASF3197
C:\Users\CYMR90~1\AppData\Local\Temp\ccLPYcmd.s:25631  .debug_str:0000000000016175 .LASF3198
C:\Users\CYMR90~1\AppData\Local\Temp\ccLPYcmd.s:29762  .debug_str:0000000000026908 .LASF3199
C:\Users\CYMR90~1\AppData\Local\Temp\ccLPYcmd.s:30126  .debug_str:00000000000280a4 .LASF3200
C:\Users\CYMR90~1\AppData\Local\Temp\ccLPYcmd.s:26092  .debug_str:0000000000017fb0 .LASF3201
C:\Users\CYMR90~1\AppData\Local\Temp\ccLPYcmd.s:28864  .debug_str:0000000000022f3c .LASF3202
C:\Users\CYMR90~1\AppData\Local\Temp\ccLPYcmd.s:20403  .debug_str:0000000000001664 .LASF3203
C:\Users\CYMR90~1\AppData\Local\Temp\ccLPYcmd.s:20703  .debug_str:0000000000002946 .LASF3204
C:\Users\CYMR90~1\AppData\Local\Temp\ccLPYcmd.s:30724  .debug_str:000000000002a662 .LASF3205
C:\Users\CYMR90~1\AppData\Local\Temp\ccLPYcmd.s:21601  .debug_str:000000000000622d .LASF3206
C:\Users\CYMR90~1\AppData\Local\Temp\ccLPYcmd.s:24855  .debug_str:000000000001323b .LASF3207
C:\Users\CYMR90~1\AppData\Local\Temp\ccLPYcmd.s:23407  .debug_str:000000000000d7bd .LASF3208
C:\Users\CYMR90~1\AppData\Local\Temp\ccLPYcmd.s:28424  .debug_str:00000000000213c9 .LASF3209
C:\Users\CYMR90~1\AppData\Local\Temp\ccLPYcmd.s:26460  .debug_str:00000000000197bb .LASF3210
C:\Users\CYMR90~1\AppData\Local\Temp\ccLPYcmd.s:22569  .debug_str:0000000000009fcf .LASF3211
C:\Users\CYMR90~1\AppData\Local\Temp\ccLPYcmd.s:22323  .debug_str:00000000000090a7 .LASF3212
C:\Users\CYMR90~1\AppData\Local\Temp\ccLPYcmd.s:22915  .debug_str:000000000000b72e .LASF3213
C:\Users\CYMR90~1\AppData\Local\Temp\ccLPYcmd.s:21139  .debug_str:000000000000457c .LASF3214
C:\Users\CYMR90~1\AppData\Local\Temp\ccLPYcmd.s:24283  .debug_str:0000000000010d9c .LASF3215
C:\Users\CYMR90~1\AppData\Local\Temp\ccLPYcmd.s:25982  .debug_str:0000000000017945 .LASF3216
C:\Users\CYMR90~1\AppData\Local\Temp\ccLPYcmd.s:22187  .debug_str:0000000000008819 .LASF3217
C:\Users\CYMR90~1\AppData\Local\Temp\ccLPYcmd.s:22997  .debug_str:000000000000bc72 .LASF3218
C:\Users\CYMR90~1\AppData\Local\Temp\ccLPYcmd.s:22943  .debug_str:000000000000b92f .LASF3219
C:\Users\CYMR90~1\AppData\Local\Temp\ccLPYcmd.s:25882  .debug_str:0000000000017341 .LASF3220
C:\Users\CYMR90~1\AppData\Local\Temp\ccLPYcmd.s:29850  .debug_str:0000000000026e6f .LASF3221
C:\Users\CYMR90~1\AppData\Local\Temp\ccLPYcmd.s:22667  .debug_str:000000000000a621 .LASF3222
C:\Users\CYMR90~1\AppData\Local\Temp\ccLPYcmd.s:20679  .debug_str:0000000000002791 .LASF3223
C:\Users\CYMR90~1\AppData\Local\Temp\ccLPYcmd.s:27730  .debug_str:000000000001ea45 .LASF3224
C:\Users\CYMR90~1\AppData\Local\Temp\ccLPYcmd.s:20369  .debug_str:00000000000014a8 .LASF3225
C:\Users\CYMR90~1\AppData\Local\Temp\ccLPYcmd.s:26274  .debug_str:0000000000018ac3 .LASF3226
C:\Users\CYMR90~1\AppData\Local\Temp\ccLPYcmd.s:20473  .debug_str:0000000000001b66 .LASF3227
C:\Users\CYMR90~1\AppData\Local\Temp\ccLPYcmd.s:31328  .debug_str:000000000002cd11 .LASF3228
C:\Users\CYMR90~1\AppData\Local\Temp\ccLPYcmd.s:25431  .debug_str:0000000000015506 .LASF3229
C:\Users\CYMR90~1\AppData\Local\Temp\ccLPYcmd.s:29270  .debug_str:000000000002481b .LASF3230
C:\Users\CYMR90~1\AppData\Local\Temp\ccLPYcmd.s:22605  .debug_str:000000000000a212 .LASF3231
C:\Users\CYMR90~1\AppData\Local\Temp\ccLPYcmd.s:20499  .debug_str:0000000000001d18 .LASF3232
C:\Users\CYMR90~1\AppData\Local\Temp\ccLPYcmd.s:21623  .debug_str:0000000000006368 .LASF3233
C:\Users\CYMR90~1\AppData\Local\Temp\ccLPYcmd.s:26886  .debug_str:000000000001b461 .LASF3234
C:\Users\CYMR90~1\AppData\Local\Temp\ccLPYcmd.s:24973  .debug_str:00000000000139d2 .LASF3235
C:\Users\CYMR90~1\AppData\Local\Temp\ccLPYcmd.s:22329  .debug_str:000000000000910a .LASF3236
C:\Users\CYMR90~1\AppData\Local\Temp\ccLPYcmd.s:21375  .debug_str:00000000000054ce .LASF3237
C:\Users\CYMR90~1\AppData\Local\Temp\ccLPYcmd.s:30818  .debug_str:000000000002ac73 .LASF3238
C:\Users\CYMR90~1\AppData\Local\Temp\ccLPYcmd.s:23069  .debug_str:000000000000c19d .LASF3239
C:\Users\CYMR90~1\AppData\Local\Temp\ccLPYcmd.s:20717  .debug_str:0000000000002a1d .LASF3240
C:\Users\CYMR90~1\AppData\Local\Temp\ccLPYcmd.s:28716  .debug_str:0000000000022602 .LASF3241
C:\Users\CYMR90~1\AppData\Local\Temp\ccLPYcmd.s:25341  .debug_str:0000000000014ffa .LASF3242
C:\Users\CYMR90~1\AppData\Local\Temp\ccLPYcmd.s:21899  .debug_str:00000000000074d8 .LASF3243
C:\Users\CYMR90~1\AppData\Local\Temp\ccLPYcmd.s:26862  .debug_str:000000000001b31b .LASF3244
C:\Users\CYMR90~1\AppData\Local\Temp\ccLPYcmd.s:21509  .debug_str:0000000000005cf1 .LASF3245
C:\Users\CYMR90~1\AppData\Local\Temp\ccLPYcmd.s:22919  .debug_str:000000000000b788 .LASF3246
C:\Users\CYMR90~1\AppData\Local\Temp\ccLPYcmd.s:24697  .debug_str:00000000000127da .LASF3247
C:\Users\CYMR90~1\AppData\Local\Temp\ccLPYcmd.s:28734  .debug_str:00000000000226d9 .LASF3248
C:\Users\CYMR90~1\AppData\Local\Temp\ccLPYcmd.s:30106  .debug_str:0000000000027f31 .LASF3249
C:\Users\CYMR90~1\AppData\Local\Temp\ccLPYcmd.s:26082  .debug_str:0000000000017f24 .LASF3250
C:\Users\CYMR90~1\AppData\Local\Temp\ccLPYcmd.s:23915  .debug_str:000000000000f5f8 .LASF3251
C:\Users\CYMR90~1\AppData\Local\Temp\ccLPYcmd.s:28732  .debug_str:00000000000226c0 .LASF3252
C:\Users\CYMR90~1\AppData\Local\Temp\ccLPYcmd.s:30546  .debug_str:0000000000029c23 .LASF3253
C:\Users\CYMR90~1\AppData\Local\Temp\ccLPYcmd.s:26720  .debug_str:000000000001a9a4 .LASF3254
C:\Users\CYMR90~1\AppData\Local\Temp\ccLPYcmd.s:21765  .debug_str:0000000000006c0a .LASF3255
C:\Users\CYMR90~1\AppData\Local\Temp\ccLPYcmd.s:21381  .debug_str:0000000000005512 .LASF3256
C:\Users\CYMR90~1\AppData\Local\Temp\ccLPYcmd.s:27646  .debug_str:000000000001e512 .LASF3257
C:\Users\CYMR90~1\AppData\Local\Temp\ccLPYcmd.s:23629  .debug_str:000000000000e4eb .LASF3258
C:\Users\CYMR90~1\AppData\Local\Temp\ccLPYcmd.s:28938  .debug_str:0000000000023322 .LASF3259
C:\Users\CYMR90~1\AppData\Local\Temp\ccLPYcmd.s:25936  .debug_str:0000000000017640 .LASF3260
C:\Users\CYMR90~1\AppData\Local\Temp\ccLPYcmd.s:25095  .debug_str:000000000001411f .LASF3261
C:\Users\CYMR90~1\AppData\Local\Temp\ccLPYcmd.s:28772  .debug_str:0000000000022978 .LASF3262
C:\Users\CYMR90~1\AppData\Local\Temp\ccLPYcmd.s:25996  .debug_str:0000000000017a25 .LASF3263
C:\Users\CYMR90~1\AppData\Local\Temp\ccLPYcmd.s:31000  .debug_str:000000000002b730 .LASF3264
C:\Users\CYMR90~1\AppData\Local\Temp\ccLPYcmd.s:31298  .debug_str:000000000002caf4 .LASF3265
C:\Users\CYMR90~1\AppData\Local\Temp\ccLPYcmd.s:29694  .debug_str:00000000000264c9 .LASF3266
C:\Users\CYMR90~1\AppData\Local\Temp\ccLPYcmd.s:21023  .debug_str:0000000000003daf .LASF3267
C:\Users\CYMR90~1\AppData\Local\Temp\ccLPYcmd.s:29226  .debug_str:0000000000024547 .LASF3268
C:\Users\CYMR90~1\AppData\Local\Temp\ccLPYcmd.s:20993  .debug_str:0000000000003bdb .LASF3269
C:\Users\CYMR90~1\AppData\Local\Temp\ccLPYcmd.s:24401  .debug_str:000000000001142e .LASF3270
C:\Users\CYMR90~1\AppData\Local\Temp\ccLPYcmd.s:24219  .debug_str:00000000000108f3 .LASF3271
C:\Users\CYMR90~1\AppData\Local\Temp\ccLPYcmd.s:21735  .debug_str:0000000000006a39 .LASF3272
C:\Users\CYMR90~1\AppData\Local\Temp\ccLPYcmd.s:24611  .debug_str:0000000000012255 .LASF3273
C:\Users\CYMR90~1\AppData\Local\Temp\ccLPYcmd.s:24263  .debug_str:0000000000010be9 .LASF3274
C:\Users\CYMR90~1\AppData\Local\Temp\ccLPYcmd.s:21991  .debug_str:0000000000007ab0 .LASF3275
C:\Users\CYMR90~1\AppData\Local\Temp\ccLPYcmd.s:22673  .debug_str:000000000000a66b .LASF3276
C:\Users\CYMR90~1\AppData\Local\Temp\ccLPYcmd.s:25093  .debug_str:0000000000014105 .LASF3277
C:\Users\CYMR90~1\AppData\Local\Temp\ccLPYcmd.s:27654  .debug_str:000000000001e581 .LASF3278
C:\Users\CYMR90~1\AppData\Local\Temp\ccLPYcmd.s:21183  .debug_str:000000000000487f .LASF3279
C:\Users\CYMR90~1\AppData\Local\Temp\ccLPYcmd.s:28194  .debug_str:000000000002064c .LASF3280
C:\Users\CYMR90~1\AppData\Local\Temp\ccLPYcmd.s:28568  .debug_str:0000000000021d4c .LASF3281
C:\Users\CYMR90~1\AppData\Local\Temp\ccLPYcmd.s:22477  .debug_str:0000000000009a1d .LASF3282
C:\Users\CYMR90~1\AppData\Local\Temp\ccLPYcmd.s:21815  .debug_str:0000000000006f42 .LASF3283
C:\Users\CYMR90~1\AppData\Local\Temp\ccLPYcmd.s:22341  .debug_str:000000000000918c .LASF3284
C:\Users\CYMR90~1\AppData\Local\Temp\ccLPYcmd.s:20777  .debug_str:0000000000002e1c .LASF3285
C:\Users\CYMR90~1\AppData\Local\Temp\ccLPYcmd.s:31152  .debug_str:000000000002c11b .LASF3286
C:\Users\CYMR90~1\AppData\Local\Temp\ccLPYcmd.s:21607  .debug_str:0000000000006280 .LASF3287
C:\Users\CYMR90~1\AppData\Local\Temp\ccLPYcmd.s:20167  .debug_str:0000000000000806 .LASF3288
C:\Users\CYMR90~1\AppData\Local\Temp\ccLPYcmd.s:21189  .debug_str:00000000000048fc .LASF3289
C:\Users\CYMR90~1\AppData\Local\Temp\ccLPYcmd.s:20967  .debug_str:0000000000003a19 .LASF3290
C:\Users\CYMR90~1\AppData\Local\Temp\ccLPYcmd.s:26454  .debug_str:000000000001973c .LASF3291
C:\Users\CYMR90~1\AppData\Local\Temp\ccLPYcmd.s:28282  .debug_str:0000000000020b80 .LASF3292
C:\Users\CYMR90~1\AppData\Local\Temp\ccLPYcmd.s:20099  .debug_str:0000000000000416 .LASF3293
C:\Users\CYMR90~1\AppData\Local\Temp\ccLPYcmd.s:27864  .debug_str:000000000001f26f .LASF3294
C:\Users\CYMR90~1\AppData\Local\Temp\ccLPYcmd.s:26708  .debug_str:000000000001a8e2 .LASF3295
C:\Users\CYMR90~1\AppData\Local\Temp\ccLPYcmd.s:27644  .debug_str:000000000001e4f2 .LASF3296
C:\Users\CYMR90~1\AppData\Local\Temp\ccLPYcmd.s:22051  .debug_str:0000000000007f0a .LASF3297
C:\Users\CYMR90~1\AppData\Local\Temp\ccLPYcmd.s:21775  .debug_str:0000000000006c91 .LASF3298
C:\Users\CYMR90~1\AppData\Local\Temp\ccLPYcmd.s:24571  .debug_str:0000000000011f65 .LASF3299
C:\Users\CYMR90~1\AppData\Local\Temp\ccLPYcmd.s:22559  .debug_str:0000000000009f17 .LASF3300
C:\Users\CYMR90~1\AppData\Local\Temp\ccLPYcmd.s:27510  .debug_str:000000000001dc48 .LASF3301
C:\Users\CYMR90~1\AppData\Local\Temp\ccLPYcmd.s:31246  .debug_str:000000000002c7f3 .LASF3302
C:\Users\CYMR90~1\AppData\Local\Temp\ccLPYcmd.s:26470  .debug_str:00000000000198c1 .LASF3303
C:\Users\CYMR90~1\AppData\Local\Temp\ccLPYcmd.s:26778  .debug_str:000000000001ad30 .LASF3304
C:\Users\CYMR90~1\AppData\Local\Temp\ccLPYcmd.s:29316  .debug_str:0000000000024b70 .LASF3305
C:\Users\CYMR90~1\AppData\Local\Temp\ccLPYcmd.s:30720  .debug_str:000000000002a62f .LASF3306
C:\Users\CYMR90~1\AppData\Local\Temp\ccLPYcmd.s:24447  .debug_str:000000000001171a .LASF3307
C:\Users\CYMR90~1\AppData\Local\Temp\ccLPYcmd.s:27460  .debug_str:000000000001d988 .LASF3308
C:\Users\CYMR90~1\AppData\Local\Temp\ccLPYcmd.s:23531  .debug_str:000000000000decf .LASF3309
C:\Users\CYMR90~1\AppData\Local\Temp\ccLPYcmd.s:30486  .debug_str:0000000000029885 .LASF3310
C:\Users\CYMR90~1\AppData\Local\Temp\ccLPYcmd.s:21913  .debug_str:00000000000075a3 .LASF3311
C:\Users\CYMR90~1\AppData\Local\Temp\ccLPYcmd.s:30770  .debug_str:000000000002a973 .LASF3312
C:\Users\CYMR90~1\AppData\Local\Temp\ccLPYcmd.s:29540  .debug_str:0000000000025b6c .LASF3313
C:\Users\CYMR90~1\AppData\Local\Temp\ccLPYcmd.s:20951  .debug_str:0000000000003924 .LASF3314
C:\Users\CYMR90~1\AppData\Local\Temp\ccLPYcmd.s:24157  .debug_str:0000000000010527 .LASF3315
C:\Users\CYMR90~1\AppData\Local\Temp\ccLPYcmd.s:30214  .debug_str:0000000000028709 .LASF3316
C:\Users\CYMR90~1\AppData\Local\Temp\ccLPYcmd.s:24635  .debug_str:00000000000123c1 .LASF3317
C:\Users\CYMR90~1\AppData\Local\Temp\ccLPYcmd.s:22735  .debug_str:000000000000aafc .LASF3318
C:\Users\CYMR90~1\AppData\Local\Temp\ccLPYcmd.s:31058  .debug_str:000000000002bae3 .LASF3319
C:\Users\CYMR90~1\AppData\Local\Temp\ccLPYcmd.s:22821  .debug_str:000000000000b136 .LASF3320
C:\Users\CYMR90~1\AppData\Local\Temp\ccLPYcmd.s:31074  .debug_str:000000000002bbe9 .LASF3321
C:\Users\CYMR90~1\AppData\Local\Temp\ccLPYcmd.s:30798  .debug_str:000000000002ab35 .LASF3322
C:\Users\CYMR90~1\AppData\Local\Temp\ccLPYcmd.s:26268  .debug_str:0000000000018a3a .LASF3323
C:\Users\CYMR90~1\AppData\Local\Temp\ccLPYcmd.s:30838  .debug_str:000000000002ad7d .LASF3324
C:\Users\CYMR90~1\AppData\Local\Temp\ccLPYcmd.s:28386  .debug_str:0000000000021185 .LASF3325
C:\Users\CYMR90~1\AppData\Local\Temp\ccLPYcmd.s:29780  .debug_str:0000000000026a56 .LASF3326
C:\Users\CYMR90~1\AppData\Local\Temp\ccLPYcmd.s:23383  .debug_str:000000000000d606 .LASF3327
C:\Users\CYMR90~1\AppData\Local\Temp\ccLPYcmd.s:29158  .debug_str:0000000000024013 .LASF3328
C:\Users\CYMR90~1\AppData\Local\Temp\ccLPYcmd.s:25223  .debug_str:00000000000148ef .LASF3329
C:\Users\CYMR90~1\AppData\Local\Temp\ccLPYcmd.s:24045  .debug_str:000000000000fe67 .LASF3330
C:\Users\CYMR90~1\AppData\Local\Temp\ccLPYcmd.s:27210  .debug_str:000000000001c808 .LASF3331
C:\Users\CYMR90~1\AppData\Local\Temp\ccLPYcmd.s:30042  .debug_str:0000000000027ac3 .LASF3332
C:\Users\CYMR90~1\AppData\Local\Temp\ccLPYcmd.s:20973  .debug_str:0000000000003a75 .LASF3333
C:\Users\CYMR90~1\AppData\Local\Temp\ccLPYcmd.s:27440  .debug_str:000000000001d80d .LASF3334
C:\Users\CYMR90~1\AppData\Local\Temp\ccLPYcmd.s:30224  .debug_str:00000000000287ad .LASF3335
C:\Users\CYMR90~1\AppData\Local\Temp\ccLPYcmd.s:22235  .debug_str:0000000000008b4c .LASF3336
C:\Users\CYMR90~1\AppData\Local\Temp\ccLPYcmd.s:28642  .debug_str:00000000000221c4 .LASF3337
C:\Users\CYMR90~1\AppData\Local\Temp\ccLPYcmd.s:25409  .debug_str:00000000000153cb .LASF3338
C:\Users\CYMR90~1\AppData\Local\Temp\ccLPYcmd.s:22325  .debug_str:00000000000090cb .LASF3339
C:\Users\CYMR90~1\AppData\Local\Temp\ccLPYcmd.s:27346  .debug_str:000000000001d25e .LASF3340
C:\Users\CYMR90~1\AppData\Local\Temp\ccLPYcmd.s:24783  .debug_str:0000000000012d77 .LASF3341
C:\Users\CYMR90~1\AppData\Local\Temp\ccLPYcmd.s:22797  .debug_str:000000000000aedd .LASF3342
C:\Users\CYMR90~1\AppData\Local\Temp\ccLPYcmd.s:27278  .debug_str:000000000001ccf1 .LASF3343
C:\Users\CYMR90~1\AppData\Local\Temp\ccLPYcmd.s:29410  .debug_str:000000000002511b .LASF3344
C:\Users\CYMR90~1\AppData\Local\Temp\ccLPYcmd.s:21267  .debug_str:0000000000004e3d .LASF3345
C:\Users\CYMR90~1\AppData\Local\Temp\ccLPYcmd.s:30738  .debug_str:000000000002a76c .LASF3346
C:\Users\CYMR90~1\AppData\Local\Temp\ccLPYcmd.s:26524  .debug_str:0000000000019c2d .LASF3347
C:\Users\CYMR90~1\AppData\Local\Temp\ccLPYcmd.s:26566  .debug_str:0000000000019e8f .LASF3348
C:\Users\CYMR90~1\AppData\Local\Temp\ccLPYcmd.s:26574  .debug_str:0000000000019f15 .LASF3349
C:\Users\CYMR90~1\AppData\Local\Temp\ccLPYcmd.s:29896  .debug_str:0000000000027177 .LASF3350
C:\Users\CYMR90~1\AppData\Local\Temp\ccLPYcmd.s:24667  .debug_str:00000000000125ae .LASF3351
C:\Users\CYMR90~1\AppData\Local\Temp\ccLPYcmd.s:30706  .debug_str:000000000002a57a .LASF3352
C:\Users\CYMR90~1\AppData\Local\Temp\ccLPYcmd.s:26232  .debug_str:00000000000187f1 .LASF3353
C:\Users\CYMR90~1\AppData\Local\Temp\ccLPYcmd.s:29976  .debug_str:000000000002770d .LASF3354
C:\Users\CYMR90~1\AppData\Local\Temp\ccLPYcmd.s:21161  .debug_str:00000000000046d5 .LASF3355
C:\Users\CYMR90~1\AppData\Local\Temp\ccLPYcmd.s:24253  .debug_str:0000000000010b0f .LASF3356
C:\Users\CYMR90~1\AppData\Local\Temp\ccLPYcmd.s:27626  .debug_str:000000000001e3d3 .LASF3357
C:\Users\CYMR90~1\AppData\Local\Temp\ccLPYcmd.s:24595  .debug_str:0000000000012127 .LASF3358
C:\Users\CYMR90~1\AppData\Local\Temp\ccLPYcmd.s:23999  .debug_str:000000000000fb7f .LASF3359
C:\Users\CYMR90~1\AppData\Local\Temp\ccLPYcmd.s:24781  .debug_str:0000000000012d3e .LASF3360
C:\Users\CYMR90~1\AppData\Local\Temp\ccLPYcmd.s:28872  .debug_str:0000000000022f92 .LASF3361
C:\Users\CYMR90~1\AppData\Local\Temp\ccLPYcmd.s:25595  .debug_str:0000000000015f23 .LASF3362
C:\Users\CYMR90~1\AppData\Local\Temp\ccLPYcmd.s:27190  .debug_str:000000000001c694 .LASF3363
C:\Users\CYMR90~1\AppData\Local\Temp\ccLPYcmd.s:30058  .debug_str:0000000000027bcd .LASF3364
C:\Users\CYMR90~1\AppData\Local\Temp\ccLPYcmd.s:22021  .debug_str:0000000000007cb3 .LASF3365
C:\Users\CYMR90~1\AppData\Local\Temp\ccLPYcmd.s:21323  .debug_str:0000000000005198 .LASF3366
C:\Users\CYMR90~1\AppData\Local\Temp\ccLPYcmd.s:24733  .debug_str:0000000000012a34 .LASF3367
C:\Users\CYMR90~1\AppData\Local\Temp\ccLPYcmd.s:22075  .debug_str:00000000000080ac .LASF3368
C:\Users\CYMR90~1\AppData\Local\Temp\ccLPYcmd.s:20419  .debug_str:000000000000176d .LASF3369
C:\Users\CYMR90~1\AppData\Local\Temp\ccLPYcmd.s:30172  .debug_str:00000000000283ec .LASF3370
C:\Users\CYMR90~1\AppData\Local\Temp\ccLPYcmd.s:26844  .debug_str:000000000001b1e1 .LASF3371
C:\Users\CYMR90~1\AppData\Local\Temp\ccLPYcmd.s:23303  .debug_str:000000000000d067 .LASF3372
C:\Users\CYMR90~1\AppData\Local\Temp\ccLPYcmd.s:25183  .debug_str:000000000001469b .LASF3373
C:\Users\CYMR90~1\AppData\Local\Temp\ccLPYcmd.s:26176  .debug_str:00000000000184b3 .LASF3374
C:\Users\CYMR90~1\AppData\Local\Temp\ccLPYcmd.s:23997  .debug_str:000000000000fb66 .LASF3375
C:\Users\CYMR90~1\AppData\Local\Temp\ccLPYcmd.s:27680  .debug_str:000000000001e710 .LASF3376
C:\Users\CYMR90~1\AppData\Local\Temp\ccLPYcmd.s:23107  .debug_str:000000000000c3ed .LASF3377
C:\Users\CYMR90~1\AppData\Local\Temp\ccLPYcmd.s:22671  .debug_str:000000000000a648 .LASF3378
C:\Users\CYMR90~1\AppData\Local\Temp\ccLPYcmd.s:25657  .debug_str:00000000000162ff .LASF3379
C:\Users\CYMR90~1\AppData\Local\Temp\ccLPYcmd.s:26624  .debug_str:000000000001a1eb .LASF3380
C:\Users\CYMR90~1\AppData\Local\Temp\ccLPYcmd.s:27930  .debug_str:000000000001f650 .LASF3381
C:\Users\CYMR90~1\AppData\Local\Temp\ccLPYcmd.s:24073  .debug_str:0000000000010031 .LASF3382
C:\Users\CYMR90~1\AppData\Local\Temp\ccLPYcmd.s:31322  .debug_str:000000000002ccb7 .LASF3383
C:\Users\CYMR90~1\AppData\Local\Temp\ccLPYcmd.s:25984  .debug_str:000000000001795c .LASF3384
C:\Users\CYMR90~1\AppData\Local\Temp\ccLPYcmd.s:28668  .debug_str:000000000002235a .LASF3385
C:\Users\CYMR90~1\AppData\Local\Temp\ccLPYcmd.s:22985  .debug_str:000000000000bbce .LASF3386
C:\Users\CYMR90~1\AppData\Local\Temp\ccLPYcmd.s:28952  .debug_str:0000000000023400 .LASF3387
C:\Users\CYMR90~1\AppData\Local\Temp\ccLPYcmd.s:25057  .debug_str:0000000000013eab .LASF3388
C:\Users\CYMR90~1\AppData\Local\Temp\ccLPYcmd.s:27820  .debug_str:000000000001ef5f .LASF3389
C:\Users\CYMR90~1\AppData\Local\Temp\ccLPYcmd.s:23831  .debug_str:000000000000f0c8 .LASF3390
C:\Users\CYMR90~1\AppData\Local\Temp\ccLPYcmd.s:30702  .debug_str:000000000002a538 .LASF3391
C:\Users\CYMR90~1\AppData\Local\Temp\ccLPYcmd.s:24153  .debug_str:000000000001050b .LASF3392
C:\Users\CYMR90~1\AppData\Local\Temp\ccLPYcmd.s:28140  .debug_str:00000000000202dc .LASF3393
C:\Users\CYMR90~1\AppData\Local\Temp\ccLPYcmd.s:25355  .debug_str:00000000000150dd .LASF3394
C:\Users\CYMR90~1\AppData\Local\Temp\ccLPYcmd.s:24481  .debug_str:00000000000119ae .LASF3395
C:\Users\CYMR90~1\AppData\Local\Temp\ccLPYcmd.s:22367  .debug_str:000000000000932f .LASF3396
C:\Users\CYMR90~1\AppData\Local\Temp\ccLPYcmd.s:21947  .debug_str:00000000000077ca .LASF3397
C:\Users\CYMR90~1\AppData\Local\Temp\ccLPYcmd.s:31434  .debug_str:000000000002d406 .LASF3398
C:\Users\CYMR90~1\AppData\Local\Temp\ccLPYcmd.s:21111  .debug_str:00000000000043c4 .LASF3399
C:\Users\CYMR90~1\AppData\Local\Temp\ccLPYcmd.s:30972  .debug_str:000000000002b53e .LASF3400
C:\Users\CYMR90~1\AppData\Local\Temp\ccLPYcmd.s:23453  .debug_str:000000000000da65 .LASF3401
C:\Users\CYMR90~1\AppData\Local\Temp\ccLPYcmd.s:26152  .debug_str:0000000000018326 .LASF3402
C:\Users\CYMR90~1\AppData\Local\Temp\ccLPYcmd.s:25593  .debug_str:0000000000015f0b .LASF3403
C:\Users\CYMR90~1\AppData\Local\Temp\ccLPYcmd.s:28964  .debug_str:00000000000234a0 .LASF3404
C:\Users\CYMR90~1\AppData\Local\Temp\ccLPYcmd.s:20337  .debug_str:0000000000001299 .LASF3405
C:\Users\CYMR90~1\AppData\Local\Temp\ccLPYcmd.s:29992  .debug_str:0000000000027811 .LASF3406
C:\Users\CYMR90~1\AppData\Local\Temp\ccLPYcmd.s:28824  .debug_str:0000000000022c6c .LASF3407
C:\Users\CYMR90~1\AppData\Local\Temp\ccLPYcmd.s:21529  .debug_str:0000000000005df6 .LASF3408
C:\Users\CYMR90~1\AppData\Local\Temp\ccLPYcmd.s:29144  .debug_str:0000000000023f48 .LASF3409
C:\Users\CYMR90~1\AppData\Local\Temp\ccLPYcmd.s:29568  .debug_str:0000000000025d45 .LASF3410
C:\Users\CYMR90~1\AppData\Local\Temp\ccLPYcmd.s:28268  .debug_str:0000000000020aea .LASF3411
C:\Users\CYMR90~1\AppData\Local\Temp\ccLPYcmd.s:25497  .debug_str:00000000000158f3 .LASF3412
C:\Users\CYMR90~1\AppData\Local\Temp\ccLPYcmd.s:25241  .debug_str:00000000000149ef .LASF3413
C:\Users\CYMR90~1\AppData\Local\Temp\ccLPYcmd.s:25974  .debug_str:00000000000178b2 .LASF3414
C:\Users\CYMR90~1\AppData\Local\Temp\ccLPYcmd.s:28160  .debug_str:00000000000203e7 .LASF3415
C:\Users\CYMR90~1\AppData\Local\Temp\ccLPYcmd.s:21907  .debug_str:0000000000007561 .LASF3416
C:\Users\CYMR90~1\AppData\Local\Temp\ccLPYcmd.s:20091  .debug_str:00000000000003ac .LASF3417
C:\Users\CYMR90~1\AppData\Local\Temp\ccLPYcmd.s:30324  .debug_str:0000000000028e53 .LASF3418
C:\Users\CYMR90~1\AppData\Local\Temp\ccLPYcmd.s:20229  .debug_str:0000000000000c13 .LASF3419
C:\Users\CYMR90~1\AppData\Local\Temp\ccLPYcmd.s:28648  .debug_str:0000000000022238 .LASF3420
C:\Users\CYMR90~1\AppData\Local\Temp\ccLPYcmd.s:25393  .debug_str:000000000001530a .LASF3421
C:\Users\CYMR90~1\AppData\Local\Temp\ccLPYcmd.s:25039  .debug_str:0000000000013d93 .LASF3422
C:\Users\CYMR90~1\AppData\Local\Temp\ccLPYcmd.s:23327  .debug_str:000000000000d1f2 .LASF3423
C:\Users\CYMR90~1\AppData\Local\Temp\ccLPYcmd.s:28954  .debug_str:0000000000023426 .LASF3424
C:\Users\CYMR90~1\AppData\Local\Temp\ccLPYcmd.s:26896  .debug_str:000000000001b516 .LASF3425
C:\Users\CYMR90~1\AppData\Local\Temp\ccLPYcmd.s:25655  .debug_str:00000000000162e2 .LASF3426
C:\Users\CYMR90~1\AppData\Local\Temp\ccLPYcmd.s:29408  .debug_str:00000000000250fd .LASF3427
C:\Users\CYMR90~1\AppData\Local\Temp\ccLPYcmd.s:23965  .debug_str:000000000000f9ac .LASF3428
C:\Users\CYMR90~1\AppData\Local\Temp\ccLPYcmd.s:28870  .debug_str:0000000000022f76 .LASF3429
C:\Users\CYMR90~1\AppData\Local\Temp\ccLPYcmd.s:24873  .debug_str:0000000000013342 .LASF3430
C:\Users\CYMR90~1\AppData\Local\Temp\ccLPYcmd.s:27390  .debug_str:000000000001d4eb .LASF3431
C:\Users\CYMR90~1\AppData\Local\Temp\ccLPYcmd.s:21733  .debug_str:0000000000006a22 .LASF3432
C:\Users\CYMR90~1\AppData\Local\Temp\ccLPYcmd.s:31360  .debug_str:000000000002cf12 .LASF3433
C:\Users\CYMR90~1\AppData\Local\Temp\ccLPYcmd.s:21931  .debug_str:00000000000076c3 .LASF3434
C:\Users\CYMR90~1\AppData\Local\Temp\ccLPYcmd.s:21039  .debug_str:0000000000003ebc .LASF3435
C:\Users\CYMR90~1\AppData\Local\Temp\ccLPYcmd.s:31048  .debug_str:000000000002ba3b .LASF3436
C:\Users\CYMR90~1\AppData\Local\Temp\ccLPYcmd.s:22827  .debug_str:000000000000b197 .LASF3437
C:\Users\CYMR90~1\AppData\Local\Temp\ccLPYcmd.s:25033  .debug_str:0000000000013d45 .LASF3438
C:\Users\CYMR90~1\AppData\Local\Temp\ccLPYcmd.s:21315  .debug_str:0000000000005138 .LASF3439
C:\Users\CYMR90~1\AppData\Local\Temp\ccLPYcmd.s:22707  .debug_str:000000000000a858 .LASF3440
C:\Users\CYMR90~1\AppData\Local\Temp\ccLPYcmd.s:21507  .debug_str:0000000000005cc7 .LASF3441
C:\Users\CYMR90~1\AppData\Local\Temp\ccLPYcmd.s:22925  .debug_str:000000000000b7d7 .LASF3442
C:\Users\CYMR90~1\AppData\Local\Temp\ccLPYcmd.s:21441  .debug_str:00000000000058ba .LASF3443
C:\Users\CYMR90~1\AppData\Local\Temp\ccLPYcmd.s:24587  .debug_str:000000000001209b .LASF3444
C:\Users\CYMR90~1\AppData\Local\Temp\ccLPYcmd.s:30076  .debug_str:0000000000027d44 .LASF3445
C:\Users\CYMR90~1\AppData\Local\Temp\ccLPYcmd.s:26412  .debug_str:0000000000019491 .LASF3446
C:\Users\CYMR90~1\AppData\Local\Temp\ccLPYcmd.s:25181  .debug_str:0000000000014660 .LASF3447
C:\Users\CYMR90~1\AppData\Local\Temp\ccLPYcmd.s:31388  .debug_str:000000000002d149 .LASF3448
C:\Users\CYMR90~1\AppData\Local\Temp\ccLPYcmd.s:27898  .debug_str:000000000001f477 .LASF3449
C:\Users\CYMR90~1\AppData\Local\Temp\ccLPYcmd.s:24519  .debug_str:0000000000011c56 .LASF3450
C:\Users\CYMR90~1\AppData\Local\Temp\ccLPYcmd.s:21917  .debug_str:00000000000075d8 .LASF3451
C:\Users\CYMR90~1\AppData\Local\Temp\ccLPYcmd.s:29010  .debug_str:000000000002376d .LASF3452
C:\Users\CYMR90~1\AppData\Local\Temp\ccLPYcmd.s:25545  .debug_str:0000000000015bc4 .LASF3453
C:\Users\CYMR90~1\AppData\Local\Temp\ccLPYcmd.s:22151  .debug_str:0000000000008628 .LASF3454
C:\Users\CYMR90~1\AppData\Local\Temp\ccLPYcmd.s:26098  .debug_str:0000000000017fe3 .LASF3455
C:\Users\CYMR90~1\AppData\Local\Temp\ccLPYcmd.s:31110  .debug_str:000000000002be6f .LASF3456
C:\Users\CYMR90~1\AppData\Local\Temp\ccLPYcmd.s:29440  .debug_str:0000000000025354 .LASF3457
C:\Users\CYMR90~1\AppData\Local\Temp\ccLPYcmd.s:20437  .debug_str:0000000000001939 .LASF3458
C:\Users\CYMR90~1\AppData\Local\Temp\ccLPYcmd.s:21481  .debug_str:0000000000005af0 .LASF3459
C:\Users\CYMR90~1\AppData\Local\Temp\ccLPYcmd.s:27688  .debug_str:000000000001e75c .LASF3460
C:\Users\CYMR90~1\AppData\Local\Temp\ccLPYcmd.s:27906  .debug_str:000000000001f4f5 .LASF3461
C:\Users\CYMR90~1\AppData\Local\Temp\ccLPYcmd.s:29054  .debug_str:0000000000023a4b .LASF3462
C:\Users\CYMR90~1\AppData\Local\Temp\ccLPYcmd.s:20433  .debug_str:00000000000018f2 .LASF3463
C:\Users\CYMR90~1\AppData\Local\Temp\ccLPYcmd.s:26212  .debug_str:00000000000186b9 .LASF3464
C:\Users\CYMR90~1\AppData\Local\Temp\ccLPYcmd.s:31342  .debug_str:000000000002cdf5 .LASF3465
C:\Users\CYMR90~1\AppData\Local\Temp\ccLPYcmd.s:22897  .debug_str:000000000000b581 .LASF3466
C:\Users\CYMR90~1\AppData\Local\Temp\ccLPYcmd.s:26080  .debug_str:0000000000017f04 .LASF3467
C:\Users\CYMR90~1\AppData\Local\Temp\ccLPYcmd.s:20371  .debug_str:00000000000014bb .LASF3468
C:\Users\CYMR90~1\AppData\Local\Temp\ccLPYcmd.s:27168  .debug_str:000000000001c570 .LASF3469
C:\Users\CYMR90~1\AppData\Local\Temp\ccLPYcmd.s:23117  .debug_str:000000000000c489 .LASF3470
C:\Users\CYMR90~1\AppData\Local\Temp\ccLPYcmd.s:23387  .debug_str:000000000000d651 .LASF3471
C:\Users\CYMR90~1\AppData\Local\Temp\ccLPYcmd.s:31106  .debug_str:000000000002be24 .LASF3472
C:\Users\CYMR90~1\AppData\Local\Temp\ccLPYcmd.s:28108  .debug_str:000000000002011d .LASF3473
C:\Users\CYMR90~1\AppData\Local\Temp\ccLPYcmd.s:23861  .debug_str:000000000000f2ab .LASF3474
C:\Users\CYMR90~1\AppData\Local\Temp\ccLPYcmd.s:29566  .debug_str:0000000000025d1d .LASF3475
C:\Users\CYMR90~1\AppData\Local\Temp\ccLPYcmd.s:28496  .debug_str:00000000000218d8 .LASF3476
C:\Users\CYMR90~1\AppData\Local\Temp\ccLPYcmd.s:24115  .debug_str:00000000000102ef .LASF3477
C:\Users\CYMR90~1\AppData\Local\Temp\ccLPYcmd.s:28106  .debug_str:00000000000200f6 .LASF3478
C:\Users\CYMR90~1\AppData\Local\Temp\ccLPYcmd.s:25189  .debug_str:0000000000014709 .LASF3479
C:\Users\CYMR90~1\AppData\Local\Temp\ccLPYcmd.s:30984  .debug_str:000000000002b62f .LASF3480
C:\Users\CYMR90~1\AppData\Local\Temp\ccLPYcmd.s:20107  .debug_str:0000000000000480 .LASF3481
C:\Users\CYMR90~1\AppData\Local\Temp\ccLPYcmd.s:28138  .debug_str:00000000000202bd .LASF3482
C:\Users\CYMR90~1\AppData\Local\Temp\ccLPYcmd.s:29700  .debug_str:0000000000026528 .LASF3483
C:\Users\CYMR90~1\AppData\Local\Temp\ccLPYcmd.s:31390  .debug_str:000000000002d170 .LASF3484
C:\Users\CYMR90~1\AppData\Local\Temp\ccLPYcmd.s:22539  .debug_str:0000000000009df9 .LASF3485
C:\Users\CYMR90~1\AppData\Local\Temp\ccLPYcmd.s:26452  .debug_str:00000000000196ff .LASF3486
C:\Users\CYMR90~1\AppData\Local\Temp\ccLPYcmd.s:23837  .debug_str:000000000000f10e .LASF3487
C:\Users\CYMR90~1\AppData\Local\Temp\ccLPYcmd.s:27818  .debug_str:000000000001ef41 .LASF3488
C:\Users\CYMR90~1\AppData\Local\Temp\ccLPYcmd.s:26266  .debug_str:0000000000018a1b .LASF3489
C:\Users\CYMR90~1\AppData\Local\Temp\ccLPYcmd.s:30904  .debug_str:000000000002b170 .LASF3490
C:\Users\CYMR90~1\AppData\Local\Temp\ccLPYcmd.s:27046  .debug_str:000000000001be3d .LASF3491
C:\Users\CYMR90~1\AppData\Local\Temp\ccLPYcmd.s:21027  .debug_str:0000000000003dfd .LASF3492
C:\Users\CYMR90~1\AppData\Local\Temp\ccLPYcmd.s:22811  .debug_str:000000000000aff2 .LASF3493
C:\Users\CYMR90~1\AppData\Local\Temp\ccLPYcmd.s:23857  .debug_str:000000000000f25d .LASF3494
C:\Users\CYMR90~1\AppData\Local\Temp\ccLPYcmd.s:28578  .debug_str:0000000000021ddf .LASF3495
C:\Users\CYMR90~1\AppData\Local\Temp\ccLPYcmd.s:25765  .debug_str:0000000000016acd .LASF3496
C:\Users\CYMR90~1\AppData\Local\Temp\ccLPYcmd.s:27588  .debug_str:000000000001e1a7 .LASF3497
C:\Users\CYMR90~1\AppData\Local\Temp\ccLPYcmd.s:26792  .debug_str:000000000001ae25 .LASF3498
C:\Users\CYMR90~1\AppData\Local\Temp\ccLPYcmd.s:28602  .debug_str:0000000000021f75 .LASF3499
C:\Users\CYMR90~1\AppData\Local\Temp\ccLPYcmd.s:22775  .debug_str:000000000000ad8f .LASF3500
C:\Users\CYMR90~1\AppData\Local\Temp\ccLPYcmd.s:25155  .debug_str:00000000000144ac .LASF3501
C:\Users\CYMR90~1\AppData\Local\Temp\ccLPYcmd.s:21575  .debug_str:0000000000006062 .LASF3502
C:\Users\CYMR90~1\AppData\Local\Temp\ccLPYcmd.s:28324  .debug_str:0000000000020e4b .LASF3503
C:\Users\CYMR90~1\AppData\Local\Temp\ccLPYcmd.s:24769  .debug_str:0000000000012c78 .LASF3504
C:\Users\CYMR90~1\AppData\Local\Temp\ccLPYcmd.s:26866  .debug_str:000000000001b355 .LASF3505
C:\Users\CYMR90~1\AppData\Local\Temp\ccLPYcmd.s:26736  .debug_str:000000000001aab8 .LASF3506
C:\Users\CYMR90~1\AppData\Local\Temp\ccLPYcmd.s:21333  .debug_str:0000000000005255 .LASF3507
C:\Users\CYMR90~1\AppData\Local\Temp\ccLPYcmd.s:28186  .debug_str:00000000000205af .LASF3508
C:\Users\CYMR90~1\AppData\Local\Temp\ccLPYcmd.s:24841  .debug_str:0000000000013144 .LASF3509
C:\Users\CYMR90~1\AppData\Local\Temp\ccLPYcmd.s:22651  .debug_str:000000000000a519 .LASF3510
C:\Users\CYMR90~1\AppData\Local\Temp\ccLPYcmd.s:27212  .debug_str:000000000001c82d .LASF3511
C:\Users\CYMR90~1\AppData\Local\Temp\ccLPYcmd.s:21845  .debug_str:00000000000070e0 .LASF3512
C:\Users\CYMR90~1\AppData\Local\Temp\ccLPYcmd.s:29890  .debug_str:0000000000027101 .LASF3513
C:\Users\CYMR90~1\AppData\Local\Temp\ccLPYcmd.s:28134  .debug_str:0000000000020282 .LASF3514
C:\Users\CYMR90~1\AppData\Local\Temp\ccLPYcmd.s:21573  .debug_str:0000000000006051 .LASF3515
C:\Users\CYMR90~1\AppData\Local\Temp\ccLPYcmd.s:20549  .debug_str:0000000000001fe3 .LASF3516
C:\Users\CYMR90~1\AppData\Local\Temp\ccLPYcmd.s:27560  .debug_str:000000000001e016 .LASF3517
C:\Users\CYMR90~1\AppData\Local\Temp\ccLPYcmd.s:25870  .debug_str:000000000001729a .LASF3518
C:\Users\CYMR90~1\AppData\Local\Temp\ccLPYcmd.s:26922  .debug_str:000000000001b688 .LASF3519
C:\Users\CYMR90~1\AppData\Local\Temp\ccLPYcmd.s:23545  .debug_str:000000000000dff6 .LASF3520
C:\Users\CYMR90~1\AppData\Local\Temp\ccLPYcmd.s:28320  .debug_str:0000000000020e0e .LASF3521
C:\Users\CYMR90~1\AppData\Local\Temp\ccLPYcmd.s:29208  .debug_str:00000000000243fa .LASF3522
C:\Users\CYMR90~1\AppData\Local\Temp\ccLPYcmd.s:30090  .debug_str:0000000000027e16 .LASF3523
C:\Users\CYMR90~1\AppData\Local\Temp\ccLPYcmd.s:28448  .debug_str:00000000000215ef .LASF3524
C:\Users\CYMR90~1\AppData\Local\Temp\ccLPYcmd.s:29724  .debug_str:0000000000026686 .LASF3525
C:\Users\CYMR90~1\AppData\Local\Temp\ccLPYcmd.s:21863  .debug_str:000000000000724e .LASF3526
C:\Users\CYMR90~1\AppData\Local\Temp\ccLPYcmd.s:26932  .debug_str:000000000001b73b .LASF3527
C:\Users\CYMR90~1\AppData\Local\Temp\ccLPYcmd.s:20643  .debug_str:0000000000002503 .LASF3528
C:\Users\CYMR90~1\AppData\Local\Temp\ccLPYcmd.s:29480  .debug_str:0000000000025693 .LASF3529
C:\Users\CYMR90~1\AppData\Local\Temp\ccLPYcmd.s:23121  .debug_str:000000000000c4ce .LASF3530
C:\Users\CYMR90~1\AppData\Local\Temp\ccLPYcmd.s:25629  .debug_str:000000000001614f .LASF3531
C:\Users\CYMR90~1\AppData\Local\Temp\ccLPYcmd.s:29926  .debug_str:000000000002732a .LASF3532
C:\Users\CYMR90~1\AppData\Local\Temp\ccLPYcmd.s:22763  .debug_str:000000000000acbf .LASF3533
C:\Users\CYMR90~1\AppData\Local\Temp\ccLPYcmd.s:23619  .debug_str:000000000000e462 .LASF3534
C:\Users\CYMR90~1\AppData\Local\Temp\ccLPYcmd.s:21251  .debug_str:0000000000004d55 .LASF3535
C:\Users\CYMR90~1\AppData\Local\Temp\ccLPYcmd.s:20223  .debug_str:0000000000000b99 .LASF3536
C:\Users\CYMR90~1\AppData\Local\Temp\ccLPYcmd.s:28612  .debug_str:000000000002200d .LASF3537
C:\Users\CYMR90~1\AppData\Local\Temp\ccLPYcmd.s:22781  .debug_str:000000000000ade4 .LASF3538
C:\Users\CYMR90~1\AppData\Local\Temp\ccLPYcmd.s:20943  .debug_str:0000000000003884 .LASF3539
C:\Users\CYMR90~1\AppData\Local\Temp\ccLPYcmd.s:20399  .debug_str:000000000000162a .LASF3540
C:\Users\CYMR90~1\AppData\Local\Temp\ccLPYcmd.s:26178  .debug_str:00000000000184cc .LASF3541
C:\Users\CYMR90~1\AppData\Local\Temp\ccLPYcmd.s:25651  .debug_str:00000000000162a2 .LASF3542
C:\Users\CYMR90~1\AppData\Local\Temp\ccLPYcmd.s:24829  .debug_str:0000000000013085 .LASF3543
C:\Users\CYMR90~1\AppData\Local\Temp\ccLPYcmd.s:26530  .debug_str:0000000000019c91 .LASF3544
C:\Users\CYMR90~1\AppData\Local\Temp\ccLPYcmd.s:30864  .debug_str:000000000002af14 .LASF3545
C:\Users\CYMR90~1\AppData\Local\Temp\ccLPYcmd.s:25717  .debug_str:00000000000166e1 .LASF3546
C:\Users\CYMR90~1\AppData\Local\Temp\ccLPYcmd.s:24749  .debug_str:0000000000012b5b .LASF3547
C:\Users\CYMR90~1\AppData\Local\Temp\ccLPYcmd.s:26818  .debug_str:000000000001b01c .LASF3548
C:\Users\CYMR90~1\AppData\Local\Temp\ccLPYcmd.s:29754  .debug_str:0000000000026870 .LASF3549
C:\Users\CYMR90~1\AppData\Local\Temp\ccLPYcmd.s:22085  .debug_str:00000000000081e8 .LASF3550
C:\Users\CYMR90~1\AppData\Local\Temp\ccLPYcmd.s:20763  .debug_str:0000000000002d1a .LASF3551
C:\Users\CYMR90~1\AppData\Local\Temp\ccLPYcmd.s:28536  .debug_str:0000000000021b37 .LASF3552
C:\Users\CYMR90~1\AppData\Local\Temp\ccLPYcmd.s:27854  .debug_str:000000000001f1db .LASF3553
C:\Users\CYMR90~1\AppData\Local\Temp\ccLPYcmd.s:28152  .debug_str:000000000002037b .LASF3554
C:\Users\CYMR90~1\AppData\Local\Temp\ccLPYcmd.s:28698  .debug_str:000000000002250a .LASF3555
C:\Users\CYMR90~1\AppData\Local\Temp\ccLPYcmd.s:24251  .debug_str:0000000000010af7 .LASF3556
C:\Users\CYMR90~1\AppData\Local\Temp\ccLPYcmd.s:21791  .debug_str:0000000000006dab .LASF3557
C:\Users\CYMR90~1\AppData\Local\Temp\ccLPYcmd.s:31032  .debug_str:000000000002b975 .LASF3558
C:\Users\CYMR90~1\AppData\Local\Temp\ccLPYcmd.s:30852  .debug_str:000000000002ae53 .LASF3559
C:\Users\CYMR90~1\AppData\Local\Temp\ccLPYcmd.s:27534  .debug_str:000000000001de43 .LASF3560
C:\Users\CYMR90~1\AppData\Local\Temp\ccLPYcmd.s:22809  .debug_str:000000000000afd3 .LASF3561
C:\Users\CYMR90~1\AppData\Local\Temp\ccLPYcmd.s:29856  .debug_str:0000000000026eb9 .LASF3562
C:\Users\CYMR90~1\AppData\Local\Temp\ccLPYcmd.s:24029  .debug_str:000000000000fd75 .LASF3563
C:\Users\CYMR90~1\AppData\Local\Temp\ccLPYcmd.s:31332  .debug_str:000000000002cd3e .LASF3564
C:\Users\CYMR90~1\AppData\Local\Temp\ccLPYcmd.s:26346  .debug_str:000000000001909c .LASF3565
C:\Users\CYMR90~1\AppData\Local\Temp\ccLPYcmd.s:30968  .debug_str:000000000002b4fb .LASF3566
C:\Users\CYMR90~1\AppData\Local\Temp\ccLPYcmd.s:24839  .debug_str:0000000000013129 .LASF3567
C:\Users\CYMR90~1\AppData\Local\Temp\ccLPYcmd.s:28682  .debug_str:000000000002244d .LASF3568
C:\Users\CYMR90~1\AppData\Local\Temp\ccLPYcmd.s:25087  .debug_str:0000000000014075 .LASF3569
C:\Users\CYMR90~1\AppData\Local\Temp\ccLPYcmd.s:23221  .debug_str:000000000000cb7f .LASF3570
C:\Users\CYMR90~1\AppData\Local\Temp\ccLPYcmd.s:20831  .debug_str:0000000000003132 .LASF3571
C:\Users\CYMR90~1\AppData\Local\Temp\ccLPYcmd.s:26702  .debug_str:000000000001a88e .LASF3572
C:\Users\CYMR90~1\AppData\Local\Temp\ccLPYcmd.s:27934  .debug_str:000000000001f683 .LASF3573
C:\Users\CYMR90~1\AppData\Local\Temp\ccLPYcmd.s:30652  .debug_str:000000000002a251 .LASF3574
C:\Users\CYMR90~1\AppData\Local\Temp\ccLPYcmd.s:29844  .debug_str:0000000000026e26 .LASF3575
C:\Users\CYMR90~1\AppData\Local\Temp\ccLPYcmd.s:28746  .debug_str:00000000000227a9 .LASF3576
C:\Users\CYMR90~1\AppData\Local\Temp\ccLPYcmd.s:29424  .debug_str:00000000000251e2 .LASF3577
C:\Users\CYMR90~1\AppData\Local\Temp\ccLPYcmd.s:27532  .debug_str:000000000001de27 .LASF3578
C:\Users\CYMR90~1\AppData\Local\Temp\ccLPYcmd.s:27596  .debug_str:000000000001e231 .LASF3579
C:\Users\CYMR90~1\AppData\Local\Temp\ccLPYcmd.s:26612  .debug_str:000000000001a138 .LASF3580
C:\Users\CYMR90~1\AppData\Local\Temp\ccLPYcmd.s:20101  .debug_str:0000000000000433 .LASF3581
C:\Users\CYMR90~1\AppData\Local\Temp\ccLPYcmd.s:25962  .debug_str:00000000000177bf .LASF3582
C:\Users\CYMR90~1\AppData\Local\Temp\ccLPYcmd.s:29610  .debug_str:0000000000025f83 .LASF3583
C:\Users\CYMR90~1\AppData\Local\Temp\ccLPYcmd.s:21365  .debug_str:0000000000005436 .LASF3584
C:\Users\CYMR90~1\AppData\Local\Temp\ccLPYcmd.s:20449  .debug_str:0000000000001a0e .LASF3585
C:\Users\CYMR90~1\AppData\Local\Temp\ccLPYcmd.s:25505  .debug_str:000000000001595a .LASF3586
C:\Users\CYMR90~1\AppData\Local\Temp\ccLPYcmd.s:23937  .debug_str:000000000000f736 .LASF3587
C:\Users\CYMR90~1\AppData\Local\Temp\ccLPYcmd.s:22455  .debug_str:0000000000009897 .LASF3588
C:\Users\CYMR90~1\AppData\Local\Temp\ccLPYcmd.s:28730  .debug_str:00000000000226a4 .LASF3589
C:\Users\CYMR90~1\AppData\Local\Temp\ccLPYcmd.s:20541  .debug_str:0000000000001f6d .LASF3590
C:\Users\CYMR90~1\AppData\Local\Temp\ccLPYcmd.s:27914  .debug_str:000000000001f589 .LASF3591
C:\Users\CYMR90~1\AppData\Local\Temp\ccLPYcmd.s:22431  .debug_str:0000000000009735 .LASF3592
C:\Users\CYMR90~1\AppData\Local\Temp\ccLPYcmd.s:26088  .debug_str:0000000000017f86 .LASF3593
C:\Users\CYMR90~1\AppData\Local\Temp\ccLPYcmd.s:29712  .debug_str:00000000000265ce .LASF3594
C:\Users\CYMR90~1\AppData\Local\Temp\ccLPYcmd.s:23581  .debug_str:000000000000e201 .LASF3595
C:\Users\CYMR90~1\AppData\Local\Temp\ccLPYcmd.s:27672  .debug_str:000000000001e6b5 .LASF3596
C:\Users\CYMR90~1\AppData\Local\Temp\ccLPYcmd.s:31228  .debug_str:000000000002c64e .LASF3597
C:\Users\CYMR90~1\AppData\Local\Temp\ccLPYcmd.s:23885  .debug_str:000000000000f442 .LASF3598
C:\Users\CYMR90~1\AppData\Local\Temp\ccLPYcmd.s:27956  .debug_str:000000000001f7dc .LASF3599
C:\Users\CYMR90~1\AppData\Local\Temp\ccLPYcmd.s:21235  .debug_str:0000000000004c65 .LASF3600
C:\Users\CYMR90~1\AppData\Local\Temp\ccLPYcmd.s:27850  .debug_str:000000000001f1a7 .LASF3601
C:\Users\CYMR90~1\AppData\Local\Temp\ccLPYcmd.s:23591  .debug_str:000000000000e2a1 .LASF3602
C:\Users\CYMR90~1\AppData\Local\Temp\ccLPYcmd.s:30986  .debug_str:000000000002b656 .LASF3603
C:\Users\CYMR90~1\AppData\Local\Temp\ccLPYcmd.s:28526  .debug_str:0000000000021abe .LASF3604
C:\Users\CYMR90~1\AppData\Local\Temp\ccLPYcmd.s:25852  .debug_str:000000000001717d .LASF3605
C:\Users\CYMR90~1\AppData\Local\Temp\ccLPYcmd.s:27400  .debug_str:000000000001d598 .LASF3606
C:\Users\CYMR90~1\AppData\Local\Temp\ccLPYcmd.s:25900  .debug_str:000000000001743b .LASF3607
C:\Users\CYMR90~1\AppData\Local\Temp\ccLPYcmd.s:29444  .debug_str:000000000002538e .LASF3608
C:\Users\CYMR90~1\AppData\Local\Temp\ccLPYcmd.s:27556  .debug_str:000000000001dfd3 .LASF3609
C:\Users\CYMR90~1\AppData\Local\Temp\ccLPYcmd.s:28498  .debug_str:0000000000021917 .LASF3610
C:\Users\CYMR90~1\AppData\Local\Temp\ccLPYcmd.s:24139  .debug_str:0000000000010442 .LASF3611
C:\Users\CYMR90~1\AppData\Local\Temp\ccLPYcmd.s:25295  .debug_str:0000000000014d07 .LASF3612
C:\Users\CYMR90~1\AppData\Local\Temp\ccLPYcmd.s:31352  .debug_str:000000000002ceb4 .LASF3613
C:\Users\CYMR90~1\AppData\Local\Temp\ccLPYcmd.s:23315  .debug_str:000000000000d14b .LASF3614
C:\Users\CYMR90~1\AppData\Local\Temp\ccLPYcmd.s:26138  .debug_str:0000000000018273 .LASF3615
C:\Users\CYMR90~1\AppData\Local\Temp\ccLPYcmd.s:22459  .debug_str:00000000000098c9 .LASF3616
C:\Users\CYMR90~1\AppData\Local\Temp\ccLPYcmd.s:29710  .debug_str:00000000000265b1 .LASF3617
C:\Users\CYMR90~1\AppData\Local\Temp\ccLPYcmd.s:30794  .debug_str:000000000002aaf5 .LASF3618
C:\Users\CYMR90~1\AppData\Local\Temp\ccLPYcmd.s:23007  .debug_str:000000000000bd1c .LASF3619
C:\Users\CYMR90~1\AppData\Local\Temp\ccLPYcmd.s:30198  .debug_str:000000000002860f .LASF3620
C:\Users\CYMR90~1\AppData\Local\Temp\ccLPYcmd.s:27052  .debug_str:000000000001beb5 .LASF3621
C:\Users\CYMR90~1\AppData\Local\Temp\ccLPYcmd.s:30666  .debug_str:000000000002a30e .LASF3622
C:\Users\CYMR90~1\AppData\Local\Temp\ccLPYcmd.s:20615  .debug_str:000000000000238e .LASF3623
C:\Users\CYMR90~1\AppData\Local\Temp\ccLPYcmd.s:29768  .debug_str:0000000000026984 .LASF3624
C:\Users\CYMR90~1\AppData\Local\Temp\ccLPYcmd.s:26482  .debug_str:000000000001999d .LASF3625
C:\Users\CYMR90~1\AppData\Local\Temp\ccLPYcmd.s:26406  .debug_str:000000000001943f .LASF3626
C:\Users\CYMR90~1\AppData\Local\Temp\ccLPYcmd.s:26822  .debug_str:000000000001b05c .LASF3627
C:\Users\CYMR90~1\AppData\Local\Temp\ccLPYcmd.s:20623  .debug_str:00000000000023f8 .LASF3628
C:\Users\CYMR90~1\AppData\Local\Temp\ccLPYcmd.s:30116  .debug_str:0000000000028014 .LASF3629
C:\Users\CYMR90~1\AppData\Local\Temp\ccLPYcmd.s:27490  .debug_str:000000000001db4a .LASF3630
C:\Users\CYMR90~1\AppData\Local\Temp\ccLPYcmd.s:29462  .debug_str:000000000002557e .LASF3631
C:\Users\CYMR90~1\AppData\Local\Temp\ccLPYcmd.s:28748  .debug_str:00000000000227c5 .LASF3632
C:\Users\CYMR90~1\AppData\Local\Temp\ccLPYcmd.s:28280  .debug_str:0000000000020b67 .LASF3633
C:\Users\CYMR90~1\AppData\Local\Temp\ccLPYcmd.s:31184  .debug_str:000000000002c3a4 .LASF3634
C:\Users\CYMR90~1\AppData\Local\Temp\ccLPYcmd.s:30924  .debug_str:000000000002b29b .LASF3635
C:\Users\CYMR90~1\AppData\Local\Temp\ccLPYcmd.s:20165  .debug_str:00000000000007ec .LASF3636
C:\Users\CYMR90~1\AppData\Local\Temp\ccLPYcmd.s:23807  .debug_str:000000000000ef50 .LASF3637
C:\Users\CYMR90~1\AppData\Local\Temp\ccLPYcmd.s:25193  .debug_str:000000000001475c .LASF3638
C:\Users\CYMR90~1\AppData\Local\Temp\ccLPYcmd.s:29066  .debug_str:0000000000023ae8 .LASF3639
C:\Users\CYMR90~1\AppData\Local\Temp\ccLPYcmd.s:26656  .debug_str:000000000001a547 .LASF3640
C:\Users\CYMR90~1\AppData\Local\Temp\ccLPYcmd.s:25798  .debug_str:0000000000016e70 .LASF3641
C:\Users\CYMR90~1\AppData\Local\Temp\ccLPYcmd.s:26252  .debug_str:000000000001895b .LASF3642
C:\Users\CYMR90~1\AppData\Local\Temp\ccLPYcmd.s:30740  .debug_str:000000000002a78a .LASF3643
C:\Users\CYMR90~1\AppData\Local\Temp\ccLPYcmd.s:23363  .debug_str:000000000000d48a .LASF3644
C:\Users\CYMR90~1\AppData\Local\Temp\ccLPYcmd.s:25850  .debug_str:0000000000017160 .LASF3645
C:\Users\CYMR90~1\AppData\Local\Temp\ccLPYcmd.s:25169  .debug_str:0000000000014590 .LASF3646
C:\Users\CYMR90~1\AppData\Local\Temp\ccLPYcmd.s:25265  .debug_str:0000000000014b7b .LASF3647
C:\Users\CYMR90~1\AppData\Local\Temp\ccLPYcmd.s:27640  .debug_str:000000000001e4c0 .LASF3648
C:\Users\CYMR90~1\AppData\Local\Temp\ccLPYcmd.s:30528  .debug_str:0000000000029b42 .LASF3649
C:\Users\CYMR90~1\AppData\Local\Temp\ccLPYcmd.s:20757  .debug_str:0000000000002cd4 .LASF3650
C:\Users\CYMR90~1\AppData\Local\Temp\ccLPYcmd.s:27832  .debug_str:000000000001f04f .LASF3651
C:\Users\CYMR90~1\AppData\Local\Temp\ccLPYcmd.s:22583  .debug_str:000000000000a0b8 .LASF3652
C:\Users\CYMR90~1\AppData\Local\Temp\ccLPYcmd.s:20885  .debug_str:00000000000034df .LASF3653
C:\Users\CYMR90~1\AppData\Local\Temp\ccLPYcmd.s:22825  .debug_str:000000000000b17e .LASF3654
C:\Users\CYMR90~1\AppData\Local\Temp\ccLPYcmd.s:21755  .debug_str:0000000000006b6c .LASF3655
C:\Users\CYMR90~1\AppData\Local\Temp\ccLPYcmd.s:29386  .debug_str:0000000000024fb4 .LASF3656
C:\Users\CYMR90~1\AppData\Local\Temp\ccLPYcmd.s:26722  .debug_str:000000000001a9c3 .LASF3657
C:\Users\CYMR90~1\AppData\Local\Temp\ccLPYcmd.s:26582  .debug_str:0000000000019f8e .LASF3658
C:\Users\CYMR90~1\AppData\Local\Temp\ccLPYcmd.s:21713  .debug_str:00000000000068e4 .LASF3659
C:\Users\CYMR90~1\AppData\Local\Temp\ccLPYcmd.s:23685  .debug_str:000000000000e880 .LASF3660
C:\Users\CYMR90~1\AppData\Local\Temp\ccLPYcmd.s:23529  .debug_str:000000000000deb2 .LASF3661
C:\Users\CYMR90~1\AppData\Local\Temp\ccLPYcmd.s:22153  .debug_str:000000000000864f .LASF3662
C:\Users\CYMR90~1\AppData\Local\Temp\ccLPYcmd.s:22343  .debug_str:00000000000091ab .LASF3663
C:\Users\CYMR90~1\AppData\Local\Temp\ccLPYcmd.s:22927  .debug_str:000000000000b7f9 .LASF3664
C:\Users\CYMR90~1\AppData\Local\Temp\ccLPYcmd.s:20909  .debug_str:0000000000003666 .LASF3665
C:\Users\CYMR90~1\AppData\Local\Temp\ccLPYcmd.s:22275  .debug_str:0000000000008d98 .LASF3666
C:\Users\CYMR90~1\AppData\Local\Temp\ccLPYcmd.s:20081  .debug_str:000000000000031a .LASF3667
C:\Users\CYMR90~1\AppData\Local\Temp\ccLPYcmd.s:25846  .debug_str:0000000000017132 .LASF3668
C:\Users\CYMR90~1\AppData\Local\Temp\ccLPYcmd.s:23083  .debug_str:000000000000c298 .LASF3669
C:\Users\CYMR90~1\AppData\Local\Temp\ccLPYcmd.s:29006  .debug_str:0000000000023733 .LASF3670
C:\Users\CYMR90~1\AppData\Local\Temp\ccLPYcmd.s:31104  .debug_str:000000000002be0a .LASF3671
C:\Users\CYMR90~1\AppData\Local\Temp\ccLPYcmd.s:24641  .debug_str:000000000001241d .LASF3672
C:\Users\CYMR90~1\AppData\Local\Temp\ccLPYcmd.s:24495  .debug_str:0000000000011b12 .LASF3673
C:\Users\CYMR90~1\AppData\Local\Temp\ccLPYcmd.s:26836  .debug_str:000000000001b16e .LASF3674
C:\Users\CYMR90~1\AppData\Local\Temp\ccLPYcmd.s:29018  .debug_str:00000000000237f9 .LASF3675
C:\Users\CYMR90~1\AppData\Local\Temp\ccLPYcmd.s:30462  .debug_str:0000000000029704 .LASF3676
C:\Users\CYMR90~1\AppData\Local\Temp\ccLPYcmd.s:26498  .debug_str:0000000000019a8d .LASF3677
C:\Users\CYMR90~1\AppData\Local\Temp\ccLPYcmd.s:27816  .debug_str:000000000001ef22 .LASF3678
C:\Users\CYMR90~1\AppData\Local\Temp\ccLPYcmd.s:28942  .debug_str:0000000000023354 .LASF3679
C:\Users\CYMR90~1\AppData\Local\Temp\ccLPYcmd.s:29800  .debug_str:0000000000026b85 .LASF3680
C:\Users\CYMR90~1\AppData\Local\Temp\ccLPYcmd.s:20263  .debug_str:0000000000000dd6 .LASF3681
C:\Users\CYMR90~1\AppData\Local\Temp\ccLPYcmd.s:23753  .debug_str:000000000000ecca .LASF3682
C:\Users\CYMR90~1\AppData\Local\Temp\ccLPYcmd.s:31180  .debug_str:000000000002c373 .LASF3683
C:\Users\CYMR90~1\AppData\Local\Temp\ccLPYcmd.s:29940  .debug_str:00000000000273ef .LASF3684
C:\Users\CYMR90~1\AppData\Local\Temp\ccLPYcmd.s:20743  .debug_str:0000000000002bb4 .LASF3685
C:\Users\CYMR90~1\AppData\Local\Temp\ccLPYcmd.s:20423  .debug_str:00000000000017b2 .LASF3686
C:\Users\CYMR90~1\AppData\Local\Temp\ccLPYcmd.s:21873  .debug_str:0000000000007322 .LASF3687
C:\Users\CYMR90~1\AppData\Local\Temp\ccLPYcmd.s:23287  .debug_str:000000000000cf65 .LASF3688
C:\Users\CYMR90~1\AppData\Local\Temp\ccLPYcmd.s:21613  .debug_str:00000000000062d3 .LASF3689
C:\Users\CYMR90~1\AppData\Local\Temp\ccLPYcmd.s:28378  .debug_str:0000000000021133 .LASF3690
C:\Users\CYMR90~1\AppData\Local\Temp\ccLPYcmd.s:28654  .debug_str:0000000000022282 .LASF3691
C:\Users\CYMR90~1\AppData\Local\Temp\ccLPYcmd.s:22437  .debug_str:000000000000978c .LASF3692
C:\Users\CYMR90~1\AppData\Local\Temp\ccLPYcmd.s:29062  .debug_str:0000000000023aba .LASF3693
C:\Users\CYMR90~1\AppData\Local\Temp\ccLPYcmd.s:31302  .debug_str:000000000002cb35 .LASF3694
C:\Users\CYMR90~1\AppData\Local\Temp\ccLPYcmd.s:24071  .debug_str:0000000000010018 .LASF3695
C:\Users\CYMR90~1\AppData\Local\Temp\ccLPYcmd.s:25517  .debug_str:0000000000015a0c .LASF3696
C:\Users\CYMR90~1\AppData\Local\Temp\ccLPYcmd.s:27760  .debug_str:000000000001ec0b .LASF3697
C:\Users\CYMR90~1\AppData\Local\Temp\ccLPYcmd.s:21199  .debug_str:000000000000499e .LASF3698
C:\Users\CYMR90~1\AppData\Local\Temp\ccLPYcmd.s:20493  .debug_str:0000000000001cb4 .LASF3699
C:\Users\CYMR90~1\AppData\Local\Temp\ccLPYcmd.s:22519  .debug_str:0000000000009cde .LASF3700
C:\Users\CYMR90~1\AppData\Local\Temp\ccLPYcmd.s:28918  .debug_str:0000000000023238 .LASF3701
C:\Users\CYMR90~1\AppData\Local\Temp\ccLPYcmd.s:24527  .debug_str:0000000000011cf0 .LASF3702
C:\Users\CYMR90~1\AppData\Local\Temp\ccLPYcmd.s:25067  .debug_str:0000000000013f57 .LASF3703
C:\Users\CYMR90~1\AppData\Local\Temp\ccLPYcmd.s:22403  .debug_str:0000000000009536 .LASF3704
C:\Users\CYMR90~1\AppData\Local\Temp\ccLPYcmd.s:26740  .debug_str:000000000001aaea .LASF3705
C:\Users\CYMR90~1\AppData\Local\Temp\ccLPYcmd.s:26328  .debug_str:0000000000018ea2 .LASF3706
C:\Users\CYMR90~1\AppData\Local\Temp\ccLPYcmd.s:28224  .debug_str:0000000000020864 .LASF3707
C:\Users\CYMR90~1\AppData\Local\Temp\ccLPYcmd.s:26008  .debug_str:0000000000017ac3 .LASF3708
C:\Users\CYMR90~1\AppData\Local\Temp\ccLPYcmd.s:30238  .debug_str:00000000000288af .LASF3709
C:\Users\CYMR90~1\AppData\Local\Temp\ccLPYcmd.s:23589  .debug_str:000000000000e282 .LASF3710
C:\Users\CYMR90~1\AppData\Local\Temp\ccLPYcmd.s:22065  .debug_str:0000000000007ffc .LASF3711
C:\Users\CYMR90~1\AppData\Local\Temp\ccLPYcmd.s:31236  .debug_str:000000000002c700 .LASF3712
C:\Users\CYMR90~1\AppData\Local\Temp\ccLPYcmd.s:25395  .debug_str:0000000000015323 .LASF3713
C:\Users\CYMR90~1\AppData\Local\Temp\ccLPYcmd.s:27130  .debug_str:000000000001c365 .LASF3714
C:\Users\CYMR90~1\AppData\Local\Temp\ccLPYcmd.s:26556  .debug_str:0000000000019dfa .LASF3715
C:\Users\CYMR90~1\AppData\Local\Temp\ccLPYcmd.s:29206  .debug_str:00000000000243bd .LASF3716
C:\Users\CYMR90~1\AppData\Local\Temp\ccLPYcmd.s:28434  .debug_str:0000000000021508 .LASF3717
C:\Users\CYMR90~1\AppData\Local\Temp\ccLPYcmd.s:22957  .debug_str:000000000000b9ea .LASF3718
C:\Users\CYMR90~1\AppData\Local\Temp\ccLPYcmd.s:26604  .debug_str:000000000001a0c8 .LASF3719
C:\Users\CYMR90~1\AppData\Local\Temp\ccLPYcmd.s:20045  .debug_str:00000000000000dc .LASF3720
C:\Users\CYMR90~1\AppData\Local\Temp\ccLPYcmd.s:24489  .debug_str:0000000000011a1d .LASF3721
C:\Users\CYMR90~1\AppData\Local\Temp\ccLPYcmd.s:28476  .debug_str:000000000002179d .LASF3722
C:\Users\CYMR90~1\AppData\Local\Temp\ccLPYcmd.s:28744  .debug_str:0000000000022784 .LASF3723
C:\Users\CYMR90~1\AppData\Local\Temp\ccLPYcmd.s:25581  .debug_str:0000000000015e26 .LASF3724
C:\Users\CYMR90~1\AppData\Local\Temp\ccLPYcmd.s:30596  .debug_str:0000000000029f1c .LASF3725
C:\Users\CYMR90~1\AppData\Local\Temp\ccLPYcmd.s:23191  .debug_str:000000000000c905 .LASF3726
C:\Users\CYMR90~1\AppData\Local\Temp\ccLPYcmd.s:24671  .debug_str:0000000000012614 .LASF3727
C:\Users\CYMR90~1\AppData\Local\Temp\ccLPYcmd.s:29040  .debug_str:0000000000023960 .LASF3728
C:\Users\CYMR90~1\AppData\Local\Temp\ccLPYcmd.s:29478  .debug_str:000000000002566f .LASF3729
C:\Users\CYMR90~1\AppData\Local\Temp\ccLPYcmd.s:24529  .debug_str:0000000000011d05 .LASF3730
C:\Users\CYMR90~1\AppData\Local\Temp\ccLPYcmd.s:24889  .debug_str:00000000000134ac .LASF3731
C:\Users\CYMR90~1\AppData\Local\Temp\ccLPYcmd.s:20517  .debug_str:0000000000001e04 .LASF3732
C:\Users\CYMR90~1\AppData\Local\Temp\ccLPYcmd.s:21843  .debug_str:00000000000070bc .LASF3733
C:\Users\CYMR90~1\AppData\Local\Temp\ccLPYcmd.s:31060  .debug_str:000000000002bb02 .LASF3734
C:\Users\CYMR90~1\AppData\Local\Temp\ccLPYcmd.s:25613  .debug_str:0000000000016062 .LASF3735
C:\Users\CYMR90~1\AppData\Local\Temp\ccLPYcmd.s:26416  .debug_str:00000000000194e0 .LASF3736
C:\Users\CYMR90~1\AppData\Local\Temp\ccLPYcmd.s:23081  .debug_str:000000000000c273 .LASF3737
C:\Users\CYMR90~1\AppData\Local\Temp\ccLPYcmd.s:24741  .debug_str:0000000000012ab4 .LASF3738
C:\Users\CYMR90~1\AppData\Local\Temp\ccLPYcmd.s:20289  .debug_str:0000000000000ff4 .LASF3739
C:\Users\CYMR90~1\AppData\Local\Temp\ccLPYcmd.s:26684  .debug_str:000000000001a717 .LASF3740
C:\Users\CYMR90~1\AppData\Local\Temp\ccLPYcmd.s:28706  .debug_str:0000000000022583 .LASF3741
C:\Users\CYMR90~1\AppData\Local\Temp\ccLPYcmd.s:26938  .debug_str:000000000001b79d .LASF3742
C:\Users\CYMR90~1\AppData\Local\Temp\ccLPYcmd.s:21385  .debug_str:0000000000005553 .LASF3743
C:\Users\CYMR90~1\AppData\Local\Temp\ccLPYcmd.s:22503  .debug_str:0000000000009bc9 .LASF3744
C:\Users\CYMR90~1\AppData\Local\Temp\ccLPYcmd.s:21657  .debug_str:000000000000656d .LASF3745
C:\Users\CYMR90~1\AppData\Local\Temp\ccLPYcmd.s:27450  .debug_str:000000000001d8b3 .LASF3746
C:\Users\CYMR90~1\AppData\Local\Temp\ccLPYcmd.s:29964  .debug_str:0000000000027651 .LASF3747
C:\Users\CYMR90~1\AppData\Local\Temp\ccLPYcmd.s:28676  .debug_str:00000000000223d5 .LASF3748
C:\Users\CYMR90~1\AppData\Local\Temp\ccLPYcmd.s:21695  .debug_str:0000000000006799 .LASF3749
C:\Users\CYMR90~1\AppData\Local\Temp\ccLPYcmd.s:30608  .debug_str:0000000000029fd3 .LASF3750
C:\Users\CYMR90~1\AppData\Local\Temp\ccLPYcmd.s:27910  .debug_str:000000000001f54f .LASF3751
C:\Users\CYMR90~1\AppData\Local\Temp\ccLPYcmd.s:23779  .debug_str:000000000000edfa .LASF3752
C:\Users\CYMR90~1\AppData\Local\Temp\ccLPYcmd.s:22777  .debug_str:000000000000ada9 .LASF3753
C:\Users\CYMR90~1\AppData\Local\Temp\ccLPYcmd.s:20145  .debug_str:00000000000006a8 .LASF3754
C:\Users\CYMR90~1\AppData\Local\Temp\ccLPYcmd.s:24015  .debug_str:000000000000fc8d .LASF3755
C:\Users\CYMR90~1\AppData\Local\Temp\ccLPYcmd.s:22965  .debug_str:000000000000ba61 .LASF3756
C:\Users\CYMR90~1\AppData\Local\Temp\ccLPYcmd.s:23733  .debug_str:000000000000eb94 .LASF3757
C:\Users\CYMR90~1\AppData\Local\Temp\ccLPYcmd.s:21879  .debug_str:000000000000738b .LASF3758
C:\Users\CYMR90~1\AppData\Local\Temp\ccLPYcmd.s:30030  .debug_str:0000000000027a19 .LASF3759
C:\Users\CYMR90~1\AppData\Local\Temp\ccLPYcmd.s:27372  .debug_str:000000000001d3bf .LASF3760
C:\Users\CYMR90~1\AppData\Local\Temp\ccLPYcmd.s:24835  .debug_str:00000000000130e5 .LASF3761
C:\Users\CYMR90~1\AppData\Local\Temp\ccLPYcmd.s:26952  .debug_str:000000000001b898 .LASF3762
C:\Users\CYMR90~1\AppData\Local\Temp\ccLPYcmd.s:31020  .debug_str:000000000002b88c .LASF3763
C:\Users\CYMR90~1\AppData\Local\Temp\ccLPYcmd.s:24161  .debug_str:0000000000010561 .LASF3764
C:\Users\CYMR90~1\AppData\Local\Temp\ccLPYcmd.s:30268  .debug_str:0000000000028aea .LASF3765
C:\Users\CYMR90~1\AppData\Local\Temp\ccLPYcmd.s:23171  .debug_str:000000000000c7d1 .LASF3766
C:\Users\CYMR90~1\AppData\Local\Temp\ccLPYcmd.s:20597  .debug_str:000000000000224e .LASF3767
C:\Users\CYMR90~1\AppData\Local\Temp\ccLPYcmd.s:24133  .debug_str:00000000000103f7 .LASF3768
C:\Users\CYMR90~1\AppData\Local\Temp\ccLPYcmd.s:24053  .debug_str:000000000000fef8 .LASF3769
C:\Users\CYMR90~1\AppData\Local\Temp\ccLPYcmd.s:24271  .debug_str:0000000000010c65 .LASF3770
C:\Users\CYMR90~1\AppData\Local\Temp\ccLPYcmd.s:28656  .debug_str:000000000002229a .LASF3771
C:\Users\CYMR90~1\AppData\Local\Temp\ccLPYcmd.s:24951  .debug_str:000000000001385e .LASF3772
C:\Users\CYMR90~1\AppData\Local\Temp\ccLPYcmd.s:22055  .debug_str:0000000000007f67 .LASF3773
C:\Users\CYMR90~1\AppData\Local\Temp\ccLPYcmd.s:28894  .debug_str:00000000000230d1 .LASF3774
C:\Users\CYMR90~1\AppData\Local\Temp\ccLPYcmd.s:31062  .debug_str:000000000002bb26 .LASF3775
C:\Users\CYMR90~1\AppData\Local\Temp\ccLPYcmd.s:30576  .debug_str:0000000000029de3 .LASF3776
C:\Users\CYMR90~1\AppData\Local\Temp\ccLPYcmd.s:27042  .debug_str:000000000001bded .LASF3777
C:\Users\CYMR90~1\AppData\Local\Temp\ccLPYcmd.s:21847  .debug_str:00000000000070fe .LASF3778
C:\Users\CYMR90~1\AppData\Local\Temp\ccLPYcmd.s:21431  .debug_str:0000000000005827 .LASF3779
C:\Users\CYMR90~1\AppData\Local\Temp\ccLPYcmd.s:21937  .debug_str:0000000000007722 .LASF3780
C:\Users\CYMR90~1\AppData\Local\Temp\ccLPYcmd.s:20901  .debug_str:00000000000035eb .LASF3781
C:\Users\CYMR90~1\AppData\Local\Temp\ccLPYcmd.s:29288  .debug_str:000000000002492b .LASF3782
C:\Users\CYMR90~1\AppData\Local\Temp\ccLPYcmd.s:24081  .debug_str:0000000000010092 .LASF3783
C:\Users\CYMR90~1\AppData\Local\Temp\ccLPYcmd.s:22247  .debug_str:0000000000008bff .LASF3784
C:\Users\CYMR90~1\AppData\Local\Temp\ccLPYcmd.s:22355  .debug_str:000000000000927b .LASF3785
C:\Users\CYMR90~1\AppData\Local\Temp\ccLPYcmd.s:28546  .debug_str:0000000000021bc9 .LASF3786
C:\Users\CYMR90~1\AppData\Local\Temp\ccLPYcmd.s:30510  .debug_str:0000000000029a29 .LASF3787
C:\Users\CYMR90~1\AppData\Local\Temp\ccLPYcmd.s:28804  .debug_str:0000000000022b35 .LASF3788
C:\Users\CYMR90~1\AppData\Local\Temp\ccLPYcmd.s:30736  .debug_str:000000000002a729 .LASF3789
C:\Users\CYMR90~1\AppData\Local\Temp\ccLPYcmd.s:28774  .debug_str:0000000000022997 .LASF3790
C:\Users\CYMR90~1\AppData\Local\Temp\ccLPYcmd.s:28838  .debug_str:0000000000022db0 .LASF3791
C:\Users\CYMR90~1\AppData\Local\Temp\ccLPYcmd.s:25802  .debug_str:0000000000016e91 .LASF3792
C:\Users\CYMR90~1\AppData\Local\Temp\ccLPYcmd.s:22785  .debug_str:000000000000ae1d .LASF3793
C:\Users\CYMR90~1\AppData\Local\Temp\ccLPYcmd.s:23347  .debug_str:000000000000d370 .LASF3794
C:\Users\CYMR90~1\AppData\Local\Temp\ccLPYcmd.s:29528  .debug_str:0000000000025a22 .LASF3795
C:\Users\CYMR90~1\AppData\Local\Temp\ccLPYcmd.s:25413  .debug_str:0000000000015408 .LASF3796
C:\Users\CYMR90~1\AppData\Local\Temp\ccLPYcmd.s:23217  .debug_str:000000000000cb4f .LASF3797
C:\Users\CYMR90~1\AppData\Local\Temp\ccLPYcmd.s:28914  .debug_str:00000000000231f9 .LASF3798
C:\Users\CYMR90~1\AppData\Local\Temp\ccLPYcmd.s:26834  .debug_str:000000000001b12b .LASF3799
C:\Users\CYMR90~1\AppData\Local\Temp\ccLPYcmd.s:28846  .debug_str:0000000000022e30 .LASF3800
C:\Users\CYMR90~1\AppData\Local\Temp\ccLPYcmd.s:25944  .debug_str:00000000000176bf .LASF3801
C:\Users\CYMR90~1\AppData\Local\Temp\ccLPYcmd.s:23651  .debug_str:000000000000e63a .LASF3802
C:\Users\CYMR90~1\AppData\Local\Temp\ccLPYcmd.s:27880  .debug_str:000000000001f345 .LASF3803
C:\Users\CYMR90~1\AppData\Local\Temp\ccLPYcmd.s:22841  .debug_str:000000000000b273 .LASF3804
C:\Users\CYMR90~1\AppData\Local\Temp\ccLPYcmd.s:25115  .debug_str:0000000000014291 .LASF3805
C:\Users\CYMR90~1\AppData\Local\Temp\ccLPYcmd.s:26086  .debug_str:0000000000017f64 .LASF3806
C:\Users\CYMR90~1\AppData\Local\Temp\ccLPYcmd.s:29852  .debug_str:0000000000026e86 .LASF3807
C:\Users\CYMR90~1\AppData\Local\Temp\ccLPYcmd.s:22629  .debug_str:000000000000a385 .LASF3808
C:\Users\CYMR90~1\AppData\Local\Temp\ccLPYcmd.s:21355  .debug_str:000000000000538a .LASF3809
C:\Users\CYMR90~1\AppData\Local\Temp\ccLPYcmd.s:26386  .debug_str:00000000000192f3 .LASF3810
C:\Users\CYMR90~1\AppData\Local\Temp\ccLPYcmd.s:22885  .debug_str:000000000000b4c5 .LASF3811
C:\Users\CYMR90~1\AppData\Local\Temp\ccLPYcmd.s:23621  .debug_str:000000000000e48a .LASF3812
C:\Users\CYMR90~1\AppData\Local\Temp\ccLPYcmd.s:31158  .debug_str:000000000002c1a5 .LASF3813
C:\Users\CYMR90~1\AppData\Local\Temp\ccLPYcmd.s:31006  .debug_str:000000000002b79b .LASF3814
C:\Users\CYMR90~1\AppData\Local\Temp\ccLPYcmd.s:23487  .debug_str:000000000000dc56 .LASF3815
C:\Users\CYMR90~1\AppData\Local\Temp\ccLPYcmd.s:21439  .debug_str:0000000000005896 .LASF3816
C:\Users\CYMR90~1\AppData\Local\Temp\ccLPYcmd.s:30636  .debug_str:000000000002a163 .LASF3817
C:\Users\CYMR90~1\AppData\Local\Temp\ccLPYcmd.s:28340  .debug_str:0000000000020f1b .LASF3818
C:\Users\CYMR90~1\AppData\Local\Temp\ccLPYcmd.s:28256  .debug_str:0000000000020a11 .LASF3819
C:\Users\CYMR90~1\AppData\Local\Temp\ccLPYcmd.s:25529  .debug_str:0000000000015ab3 .LASF3820
C:\Users\CYMR90~1\AppData\Local\Temp\ccLPYcmd.s:21539  .debug_str:0000000000005e72 .LASF3821
C:\Users\CYMR90~1\AppData\Local\Temp\ccLPYcmd.s:25001  .debug_str:0000000000013b5a .LASF3822
C:\Users\CYMR90~1\AppData\Local\Temp\ccLPYcmd.s:28538  .debug_str:0000000000021b4f .LASF3823
C:\Users\CYMR90~1\AppData\Local\Temp\ccLPYcmd.s:29658  .debug_str:00000000000262bd .LASF3824
C:\Users\CYMR90~1\AppData\Local\Temp\ccLPYcmd.s:21269  .debug_str:0000000000004e59 .LASF3825
C:\Users\CYMR90~1\AppData\Local\Temp\ccLPYcmd.s:29128  .debug_str:0000000000023e41 .LASF3826
C:\Users\CYMR90~1\AppData\Local\Temp\ccLPYcmd.s:28260  .debug_str:0000000000020a61 .LASF3827
C:\Users\CYMR90~1\AppData\Local\Temp\ccLPYcmd.s:30792  .debug_str:000000000002aad1 .LASF3828
C:\Users\CYMR90~1\AppData\Local\Temp\ccLPYcmd.s:23755  .debug_str:000000000000ece2 .LASF3829
C:\Users\CYMR90~1\AppData\Local\Temp\ccLPYcmd.s:20971  .debug_str:0000000000003a51 .LASF3830
C:\Users\CYMR90~1\AppData\Local\Temp\ccLPYcmd.s:23119  .debug_str:000000000000c4aa .LASF3831
C:\Users\CYMR90~1\AppData\Local\Temp\ccLPYcmd.s:28352  .debug_str:0000000000020fbd .LASF3832
C:\Users\CYMR90~1\AppData\Local\Temp\ccLPYcmd.s:26190  .debug_str:000000000001855a .LASF3833
C:\Users\CYMR90~1\AppData\Local\Temp\ccLPYcmd.s:27290  .debug_str:000000000001cdab .LASF3834
C:\Users\CYMR90~1\AppData\Local\Temp\ccLPYcmd.s:30376  .debug_str:000000000002917a .LASF3835
C:\Users\CYMR90~1\AppData\Local\Temp\ccLPYcmd.s:25281  .debug_str:0000000000014c21 .LASF3836
C:\Users\CYMR90~1\AppData\Local\Temp\ccLPYcmd.s:28758  .debug_str:0000000000022877 .LASF3837
C:\Users\CYMR90~1\AppData\Local\Temp\ccLPYcmd.s:20939  .debug_str:0000000000003847 .LASF3838
C:\Users\CYMR90~1\AppData\Local\Temp\ccLPYcmd.s:29460  .debug_str:0000000000025554 .LASF3839
C:\Users\CYMR90~1\AppData\Local\Temp\ccLPYcmd.s:20311  .debug_str:0000000000001114 .LASF3840
C:\Users\CYMR90~1\AppData\Local\Temp\ccLPYcmd.s:27454  .debug_str:000000000001d8fa .LASF3841
C:\Users\CYMR90~1\AppData\Local\Temp\ccLPYcmd.s:24867  .debug_str:00000000000132d5 .LASF3842
C:\Users\CYMR90~1\AppData\Local\Temp\ccLPYcmd.s:31406  .debug_str:000000000002d247 .LASF3843
C:\Users\CYMR90~1\AppData\Local\Temp\ccLPYcmd.s:20731  .debug_str:0000000000002aff .LASF3844
C:\Users\CYMR90~1\AppData\Local\Temp\ccLPYcmd.s:29910  .debug_str:0000000000027247 .LASF3845
C:\Users\CYMR90~1\AppData\Local\Temp\ccLPYcmd.s:24727  .debug_str:00000000000129be .LASF3846
C:\Users\CYMR90~1\AppData\Local\Temp\ccLPYcmd.s:28162  .debug_str:00000000000203fe .LASF3847
C:\Users\CYMR90~1\AppData\Local\Temp\ccLPYcmd.s:28306  .debug_str:0000000000020d1d .LASF3848
C:\Users\CYMR90~1\AppData\Local\Temp\ccLPYcmd.s:20261  .debug_str:0000000000000db4 .LASF3849
C:\Users\CYMR90~1\AppData\Local\Temp\ccLPYcmd.s:27516  .debug_str:000000000001dcc0 .LASF3850
C:\Users\CYMR90~1\AppData\Local\Temp\ccLPYcmd.s:20367  .debug_str:000000000000145b .LASF3851
C:\Users\CYMR90~1\AppData\Local\Temp\ccLPYcmd.s:30166  .debug_str:0000000000028383 .LASF3852
C:\Users\CYMR90~1\AppData\Local\Temp\ccLPYcmd.s:24627  .debug_str:0000000000012310 .LASF3853
C:\Users\CYMR90~1\AppData\Local\Temp\ccLPYcmd.s:27660  .debug_str:000000000001e5d6 .LASF3854
C:\Users\CYMR90~1\AppData\Local\Temp\ccLPYcmd.s:26554  .debug_str:0000000000019dca .LASF3855
C:\Users\CYMR90~1\AppData\Local\Temp\ccLPYcmd.s:25303  .debug_str:0000000000014da8 .LASF3856
C:\Users\CYMR90~1\AppData\Local\Temp\ccLPYcmd.s:24103  .debug_str:000000000001021b .LASF3857
C:\Users\CYMR90~1\AppData\Local\Temp\ccLPYcmd.s:31050  .debug_str:000000000002ba57 .LASF3858
C:\Users\CYMR90~1\AppData\Local\Temp\ccLPYcmd.s:29374  .debug_str:0000000000024ed9 .LASF3859
C:\Users\CYMR90~1\AppData\Local\Temp\ccLPYcmd.s:20479  .debug_str:0000000000001bac .LASF3860
C:\Users\CYMR90~1\AppData\Local\Temp\ccLPYcmd.s:30154  .debug_str:000000000002825f .LASF3861
C:\Users\CYMR90~1\AppData\Local\Temp\ccLPYcmd.s:30394  .debug_str:0000000000029268 .LASF3862
C:\Users\CYMR90~1\AppData\Local\Temp\ccLPYcmd.s:20057  .debug_str:0000000000000182 .LASF3863
C:\Users\CYMR90~1\AppData\Local\Temp\ccLPYcmd.s:31276  .debug_str:000000000002c9aa .LASF3864
C:\Users\CYMR90~1\AppData\Local\Temp\ccLPYcmd.s:22729  .debug_str:000000000000aa8a .LASF3865
C:\Users\CYMR90~1\AppData\Local\Temp\ccLPYcmd.s:29390  .debug_str:0000000000024fd8 .LASF3866
C:\Users\CYMR90~1\AppData\Local\Temp\ccLPYcmd.s:22587  .debug_str:000000000000a0e5 .LASF3867
C:\Users\CYMR90~1\AppData\Local\Temp\ccLPYcmd.s:28416  .debug_str:0000000000021354 .LASF3868
C:\Users\CYMR90~1\AppData\Local\Temp\ccLPYcmd.s:20769  .debug_str:0000000000002d6d .LASF3869
C:\Users\CYMR90~1\AppData\Local\Temp\ccLPYcmd.s:26572  .debug_str:0000000000019ee3 .LASF3870
C:\Users\CYMR90~1\AppData\Local\Temp\ccLPYcmd.s:23405  .debug_str:000000000000d78b .LASF3871
C:\Users\CYMR90~1\AppData\Local\Temp\ccLPYcmd.s:21491  .debug_str:0000000000005bab .LASF3872
C:\Users\CYMR90~1\AppData\Local\Temp\ccLPYcmd.s:30070  .debug_str:0000000000027c94 .LASF3873
C:\Users\CYMR90~1\AppData\Local\Temp\ccLPYcmd.s:23879  .debug_str:000000000000f3d4 .LASF3874
C:\Users\CYMR90~1\AppData\Local\Temp\ccLPYcmd.s:23077  .debug_str:000000000000c211 .LASF3875
C:\Users\CYMR90~1\AppData\Local\Temp\ccLPYcmd.s:22895  .debug_str:000000000000b54f .LASF3876
C:\Users\CYMR90~1\AppData\Local\Temp\ccLPYcmd.s:20209  .debug_str:0000000000000a62 .LASF3877
C:\Users\CYMR90~1\AppData\Local\Temp\ccLPYcmd.s:24525  .debug_str:0000000000011cbe .LASF3878
C:\Users\CYMR90~1\AppData\Local\Temp\ccLPYcmd.s:28842  .debug_str:0000000000022dec .LASF3879
C:\Users\CYMR90~1\AppData\Local\Temp\ccLPYcmd.s:21639  .debug_str:0000000000006445 .LASF3880
C:\Users\CYMR90~1\AppData\Local\Temp\ccLPYcmd.s:23003  .debug_str:000000000000bcd6 .LASF3881
C:\Users\CYMR90~1\AppData\Local\Temp\ccLPYcmd.s:24093  .debug_str:0000000000010172 .LASF3882
C:\Users\CYMR90~1\AppData\Local\Temp\ccLPYcmd.s:28388  .debug_str:00000000000211a5 .LASF3883
C:\Users\CYMR90~1\AppData\Local\Temp\ccLPYcmd.s:21279  .debug_str:0000000000004f03 .LASF3884
C:\Users\CYMR90~1\AppData\Local\Temp\ccLPYcmd.s:25511  .debug_str:00000000000159a2 .LASF3885
C:\Users\CYMR90~1\AppData\Local\Temp\ccLPYcmd.s:29870  .debug_str:0000000000026f96 .LASF3886
C:\Users\CYMR90~1\AppData\Local\Temp\ccLPYcmd.s:22773  .debug_str:000000000000ad5d .LASF3887
C:\Users\CYMR90~1\AppData\Local\Temp\ccLPYcmd.s:25089  .debug_str:0000000000014090 .LASF3888
C:\Users\CYMR90~1\AppData\Local\Temp\ccLPYcmd.s:27546  .debug_str:000000000001df04 .LASF3889
C:\Users\CYMR90~1\AppData\Local\Temp\ccLPYcmd.s:23281  .debug_str:000000000000cef1 .LASF3890
C:\Users\CYMR90~1\AppData\Local\Temp\ccLPYcmd.s:28586  .debug_str:0000000000021e5b .LASF3891
C:\Users\CYMR90~1\AppData\Local\Temp\ccLPYcmd.s:21487  .debug_str:0000000000005b53 .LASF3892
C:\Users\CYMR90~1\AppData\Local\Temp\ccLPYcmd.s:31004  .debug_str:000000000002b769 .LASF3893
C:\Users\CYMR90~1\AppData\Local\Temp\ccLPYcmd.s:23873  .debug_str:000000000000f351 .LASF3894
C:\Users\CYMR90~1\AppData\Local\Temp\ccLPYcmd.s:28070  .debug_str:000000000001fec4 .LASF3895
C:\Users\CYMR90~1\AppData\Local\Temp\ccLPYcmd.s:20983  .debug_str:0000000000003b3e .LASF3896
C:\Users\CYMR90~1\AppData\Local\Temp\ccLPYcmd.s:23949  .debug_str:000000000000f896 .LASF3897
C:\Users\CYMR90~1\AppData\Local\Temp\ccLPYcmd.s:29162  .debug_str:000000000002404f .LASF3898
C:\Users\CYMR90~1\AppData\Local\Temp\ccLPYcmd.s:22471  .debug_str:00000000000099cb .LASF3899
C:\Users\CYMR90~1\AppData\Local\Temp\ccLPYcmd.s:26790  .debug_str:000000000001adf3 .LASF3900
C:\Users\CYMR90~1\AppData\Local\Temp\ccLPYcmd.s:21079  .debug_str:0000000000004148 .LASF3901
C:\Users\CYMR90~1\AppData\Local\Temp\ccLPYcmd.s:29204  .debug_str:000000000002438b .LASF3902
C:\Users\CYMR90~1\AppData\Local\Temp\ccLPYcmd.s:22111  .debug_str:000000000000838e .LASF3903
C:\Users\CYMR90~1\AppData\Local\Temp\ccLPYcmd.s:23723  .debug_str:000000000000eac0 .LASF3904
C:\Users\CYMR90~1\AppData\Local\Temp\ccLPYcmd.s:30670  .debug_str:000000000002a344 .LASF3905
C:\Users\CYMR90~1\AppData\Local\Temp\ccLPYcmd.s:21935  .debug_str:00000000000076f0 .LASF3906
C:\Users\CYMR90~1\AppData\Local\Temp\ccLPYcmd.s:27940  .debug_str:000000000001f6d6 .LASF3907
C:\Users\CYMR90~1\AppData\Local\Temp\ccLPYcmd.s:20693  .debug_str:0000000000002881 .LASF3908
C:\Users\CYMR90~1\AppData\Local\Temp\ccLPYcmd.s:26120  .debug_str:0000000000018160 .LASF3909
C:\Users\CYMR90~1\AppData\Local\Temp\ccLPYcmd.s:31386  .debug_str:000000000002d117 .LASF3910
C:\Users\CYMR90~1\AppData\Local\Temp\ccLPYcmd.s:22119  .debug_str:000000000000840b .LASF3911
C:\Users\CYMR90~1\AppData\Local\Temp\ccLPYcmd.s:20339  .debug_str:00000000000012af .LASF3912
C:\Users\CYMR90~1\AppData\Local\Temp\ccLPYcmd.s:24669  .debug_str:00000000000125e2 .LASF3913
C:\Users\CYMR90~1\AppData\Local\Temp\ccLPYcmd.s:28900  .debug_str:000000000002312c .LASF3914
C:\Users\CYMR90~1\AppData\Local\Temp\ccLPYcmd.s:21783  .debug_str:0000000000006d18 .LASF3915
C:\Users\CYMR90~1\AppData\Local\Temp\ccLPYcmd.s:24717  .debug_str:0000000000012901 .LASF3916
C:\Users\CYMR90~1\AppData\Local\Temp\ccLPYcmd.s:28072  .debug_str:000000000001fef6 .LASF3917
C:\Users\CYMR90~1\AppData\Local\Temp\ccLPYcmd.s:24633  .debug_str:000000000001239d .LASF3918
C:\Users\CYMR90~1\AppData\Local\Temp\ccLPYcmd.s:29650  .debug_str:0000000000026247 .LASF3919
C:\Users\CYMR90~1\AppData\Local\Temp\ccLPYcmd.s:28572  .debug_str:0000000000021d7d .LASF3920
C:\Users\CYMR90~1\AppData\Local\Temp\ccLPYcmd.s:23233  .debug_str:000000000000cc47 .LASF3921
C:\Users\CYMR90~1\AppData\Local\Temp\ccLPYcmd.s:23669  .debug_str:000000000000e74f .LASF3922
C:\Users\CYMR90~1\AppData\Local\Temp\ccLPYcmd.s:29212  .debug_str:0000000000024434 .LASF3923
C:\Users\CYMR90~1\AppData\Local\Temp\ccLPYcmd.s:25527  .debug_str:0000000000015a91 .LASF3924
C:\Users\CYMR90~1\AppData\Local\Temp\ccLPYcmd.s:25960  .debug_str:000000000001779d .LASF3925
C:\Users\CYMR90~1\AppData\Local\Temp\ccLPYcmd.s:22955  .debug_str:000000000000b9c8 .LASF3926
C:\Users\CYMR90~1\AppData\Local\Temp\ccLPYcmd.s:25311  .debug_str:0000000000014e31 .LASF3927
C:\Users\CYMR90~1\AppData\Local\Temp\ccLPYcmd.s:28286  .debug_str:0000000000020bc7 .LASF3928
C:\Users\CYMR90~1\AppData\Local\Temp\ccLPYcmd.s:26810  .debug_str:000000000001afa7 .LASF3929
C:\Users\CYMR90~1\AppData\Local\Temp\ccLPYcmd.s:29682  .debug_str:000000000002643b .LASF3930
C:\Users\CYMR90~1\AppData\Local\Temp\ccLPYcmd.s:26410  .debug_str:000000000001946e .LASF3931
C:\Users\CYMR90~1\AppData\Local\Temp\ccLPYcmd.s:24377  .debug_str:00000000000112b7 .LASF3932
C:\Users\CYMR90~1\AppData\Local\Temp\ccLPYcmd.s:22031  .debug_str:0000000000007d56 .LASF3933
C:\Users\CYMR90~1\AppData\Local\Temp\ccLPYcmd.s:20379  .debug_str:0000000000001528 .LASF3934
C:\Users\CYMR90~1\AppData\Local\Temp\ccLPYcmd.s:20047  .debug_str:00000000000000ff .LASF3935
C:\Users\CYMR90~1\AppData\Local\Temp\ccLPYcmd.s:24945  .debug_str:000000000001381d .LASF3936
C:\Users\CYMR90~1\AppData\Local\Temp\ccLPYcmd.s:21409  .debug_str:00000000000056d5 .LASF3937
C:\Users\CYMR90~1\AppData\Local\Temp\ccLPYcmd.s:26222  .debug_str:0000000000018764 .LASF3938
C:\Users\CYMR90~1\AppData\Local\Temp\ccLPYcmd.s:23565  .debug_str:000000000000e121 .LASF3939
C:\Users\CYMR90~1\AppData\Local\Temp\ccLPYcmd.s:22595  .debug_str:000000000000a17f .LASF3940
C:\Users\CYMR90~1\AppData\Local\Temp\ccLPYcmd.s:24047  .debug_str:000000000000fe8a .LASF3941
C:\Users\CYMR90~1\AppData\Local\Temp\ccLPYcmd.s:25922  .debug_str:000000000001757c .LASF3942
C:\Users\CYMR90~1\AppData\Local\Temp\ccLPYcmd.s:25373  .debug_str:00000000000151bf .LASF3943
C:\Users\CYMR90~1\AppData\Local\Temp\ccLPYcmd.s:24755  .debug_str:0000000000012bbf .LASF3944
C:\Users\CYMR90~1\AppData\Local\Temp\ccLPYcmd.s:27124  .debug_str:000000000001c31b .LASF3945
C:\Users\CYMR90~1\AppData\Local\Temp\ccLPYcmd.s:23673  .debug_str:000000000000e7ce .LASF3946
C:\Users\CYMR90~1\AppData\Local\Temp\ccLPYcmd.s:20245  .debug_str:0000000000000cd0 .LASF3947
C:\Users\CYMR90~1\AppData\Local\Temp\ccLPYcmd.s:30400  .debug_str:00000000000292dd .LASF3948
C:\Users\CYMR90~1\AppData\Local\Temp\ccLPYcmd.s:24817  .debug_str:0000000000012faa .LASF3949
C:\Users\CYMR90~1\AppData\Local\Temp\ccLPYcmd.s:27466  .debug_str:000000000001d9bf .LASF3950
C:\Users\CYMR90~1\AppData\Local\Temp\ccLPYcmd.s:20635  .debug_str:00000000000024a7 .LASF3951
C:\Users\CYMR90~1\AppData\Local\Temp\ccLPYcmd.s:20543  .debug_str:0000000000001f87 .LASF3952
C:\Users\CYMR90~1\AppData\Local\Temp\ccLPYcmd.s:29454  .debug_str:00000000000254ce .LASF3953
C:\Users\CYMR90~1\AppData\Local\Temp\ccLPYcmd.s:21929  .debug_str:000000000000769f .LASF3954
C:\Users\CYMR90~1\AppData\Local\Temp\ccLPYcmd.s:25796  .debug_str:0000000000016e4c .LASF3955
C:\Users\CYMR90~1\AppData\Local\Temp\ccLPYcmd.s:25097  .debug_str:000000000001413d .LASF3956
C:\Users\CYMR90~1\AppData\Local\Temp\ccLPYcmd.s:30388  .debug_str:0000000000029227 .LASF3957
C:\Users\CYMR90~1\AppData\Local\Temp\ccLPYcmd.s:26948  .debug_str:000000000001b837 .LASF3958
C:\Users\CYMR90~1\AppData\Local\Temp\ccLPYcmd.s:20771  .debug_str:0000000000002d9f .LASF3959
C:\Users\CYMR90~1\AppData\Local\Temp\ccLPYcmd.s:30776  .debug_str:000000000002a9da .LASF3960
C:\Users\CYMR90~1\AppData\Local\Temp\ccLPYcmd.s:31094  .debug_str:000000000002bd5b .LASF3961
C:\Users\CYMR90~1\AppData\Local\Temp\ccLPYcmd.s:22757  .debug_str:000000000000ac4f .LASF3962
C:\Users\CYMR90~1\AppData\Local\Temp\ccLPYcmd.s:21277  .debug_str:0000000000004edf .LASF3963
C:\Users\CYMR90~1\AppData\Local\Temp\ccLPYcmd.s:31310  .debug_str:000000000002cbce .LASF3964
C:\Users\CYMR90~1\AppData\Local\Temp\ccLPYcmd.s:24509  .debug_str:0000000000011bba .LASF3965
C:\Users\CYMR90~1\AppData\Local\Temp\ccLPYcmd.s:21057  .debug_str:0000000000004012 .LASF3966
C:\Users\CYMR90~1\AppData\Local\Temp\ccLPYcmd.s:29086  .debug_str:0000000000023c1d .LASF3967
C:\Users\CYMR90~1\AppData\Local\Temp\ccLPYcmd.s:25469  .debug_str:0000000000015728 .LASF3968
C:\Users\CYMR90~1\AppData\Local\Temp\ccLPYcmd.s:24063  .debug_str:000000000000ffaa .LASF3969
C:\Users\CYMR90~1\AppData\Local\Temp\ccLPYcmd.s:30248  .debug_str:000000000002895c .LASF3970
C:\Users\CYMR90~1\AppData\Local\Temp\ccLPYcmd.s:28218  .debug_str:0000000000020815 .LASF3971
C:\Users\CYMR90~1\AppData\Local\Temp\ccLPYcmd.s:29962  .debug_str:000000000002762d .LASF3972
C:\Users\CYMR90~1\AppData\Local\Temp\ccLPYcmd.s:30084  .debug_str:0000000000027dbd .LASF3973
C:\Users\CYMR90~1\AppData\Local\Temp\ccLPYcmd.s:26662  .debug_str:000000000001a59a .LASF3974
C:\Users\CYMR90~1\AppData\Local\Temp\ccLPYcmd.s:23251  .debug_str:000000000000cd67 .LASF3975
C:\Users\CYMR90~1\AppData\Local\Temp\ccLPYcmd.s:31254  .debug_str:000000000002c871 .LASF3976
C:\Users\CYMR90~1\AppData\Local\Temp\ccLPYcmd.s:21177  .debug_str:0000000000004805 .LASF3977
C:\Users\CYMR90~1\AppData\Local\Temp\ccLPYcmd.s:24381  .debug_str:00000000000112f2 .LASF3978
C:\Users\CYMR90~1\AppData\Local\Temp\ccLPYcmd.s:27308  .debug_str:000000000001cf65 .LASF3979
C:\Users\CYMR90~1\AppData\Local\Temp\ccLPYcmd.s:28944  .debug_str:0000000000023373 .LASF3980
C:\Users\CYMR90~1\AppData\Local\Temp\ccLPYcmd.s:30322  .debug_str:0000000000028e2f .LASF3981
C:\Users\CYMR90~1\AppData\Local\Temp\ccLPYcmd.s:20775  .debug_str:0000000000002df8 .LASF3982
C:\Users\CYMR90~1\AppData\Local\Temp\ccLPYcmd.s:25916  .debug_str:0000000000017519 .LASF3983
C:\Users\CYMR90~1\AppData\Local\Temp\ccLPYcmd.s:25343  .debug_str:0000000000015016 .LASF3984
C:\Users\CYMR90~1\AppData\Local\Temp\ccLPYcmd.s:21927  .debug_str:000000000000767b .LASF3985
C:\Users\CYMR90~1\AppData\Local\Temp\ccLPYcmd.s:24165  .debug_str:00000000000105b2 .LASF3986
C:\Users\CYMR90~1\AppData\Local\Temp\ccLPYcmd.s:29024  .debug_str:000000000002383c .LASF3987
C:\Users\CYMR90~1\AppData\Local\Temp\ccLPYcmd.s:23097  .debug_str:000000000000c34a .LASF3988
C:\Users\CYMR90~1\AppData\Local\Temp\ccLPYcmd.s:30096  .debug_str:0000000000027e83 .LASF3989
C:\Users\CYMR90~1\AppData\Local\Temp\ccLPYcmd.s:20685  .debug_str:00000000000027e2 .LASF3990
C:\Users\CYMR90~1\AppData\Local\Temp\ccLPYcmd.s:29108  .debug_str:0000000000023d36 .LASF3991
C:\Users\CYMR90~1\AppData\Local\Temp\ccLPYcmd.s:31056  .debug_str:000000000002babf .LASF3992
C:\Users\CYMR90~1\AppData\Local\Temp\ccLPYcmd.s:27468  .debug_str:000000000001d9e3 .LASF3993
C:\Users\CYMR90~1\AppData\Local\Temp\ccLPYcmd.s:24085  .debug_str:00000000000100d7 .LASF3994
C:\Users\CYMR90~1\AppData\Local\Temp\ccLPYcmd.s:20483  .debug_str:0000000000001c00 .LASF3995
C:\Users\CYMR90~1\AppData\Local\Temp\ccLPYcmd.s:28638  .debug_str:0000000000022183 .LASF3996
C:\Users\CYMR90~1\AppData\Local\Temp\ccLPYcmd.s:25201  .debug_str:00000000000147ce .LASF3997
C:\Users\CYMR90~1\AppData\Local\Temp\ccLPYcmd.s:23883  .debug_str:000000000000f41e .LASF3998
C:\Users\CYMR90~1\AppData\Local\Temp\ccLPYcmd.s:26494  .debug_str:0000000000019a43 .LASF3999
C:\Users\CYMR90~1\AppData\Local\Temp\ccLPYcmd.s:26376  .debug_str:0000000000019263 .LASF4000
C:\Users\CYMR90~1\AppData\Local\Temp\ccLPYcmd.s:27772  .debug_str:000000000001eca6 .LASF4001
C:\Users\CYMR90~1\AppData\Local\Temp\ccLPYcmd.s:29730  .debug_str:0000000000026708 .LASF4002
C:\Users\CYMR90~1\AppData\Local\Temp\ccLPYcmd.s:27838  .debug_str:000000000001f0c0 .LASF4003
C:\Users\CYMR90~1\AppData\Local\Temp\ccLPYcmd.s:22407  .debug_str:0000000000009577 .LASF4004
C:\Users\CYMR90~1\AppData\Local\Temp\ccLPYcmd.s:30898  .debug_str:000000000002b11d .LASF4005
C:\Users\CYMR90~1\AppData\Local\Temp\ccLPYcmd.s:27344  .debug_str:000000000001d23a .LASF4006
C:\Users\CYMR90~1\AppData\Local\Temp\ccLPYcmd.s:28576  .debug_str:0000000000021dbb .LASF4007
C:\Users\CYMR90~1\AppData\Local\Temp\ccLPYcmd.s:20491  .debug_str:0000000000001c90 .LASF4008
C:\Users\CYMR90~1\AppData\Local\Temp\ccLPYcmd.s:28490  .debug_str:000000000002186e .LASF4009
C:\Users\CYMR90~1\AppData\Local\Temp\ccLPYcmd.s:25051  .debug_str:0000000000013e56 .LASF4010
C:\Users\CYMR90~1\AppData\Local\Temp\ccLPYcmd.s:30788  .debug_str:000000000002aa99 .LASF4011
C:\Users\CYMR90~1\AppData\Local\Temp\ccLPYcmd.s:28426  .debug_str:00000000000213ed .LASF4012
C:\Users\CYMR90~1\AppData\Local\Temp\ccLPYcmd.s:24997  .debug_str:0000000000013b1f .LASF4013
C:\Users\CYMR90~1\AppData\Local\Temp\ccLPYcmd.s:29746  .debug_str:0000000000026802 .LASF4014
C:\Users\CYMR90~1\AppData\Local\Temp\ccLPYcmd.s:29578  .debug_str:0000000000025ddd .LASF4015
C:\Users\CYMR90~1\AppData\Local\Temp\ccLPYcmd.s:30824  .debug_str:000000000002acc5 .LASF4016
C:\Users\CYMR90~1\AppData\Local\Temp\ccLPYcmd.s:31362  .debug_str:000000000002cf2c .LASF4017
C:\Users\CYMR90~1\AppData\Local\Temp\ccLPYcmd.s:30744  .debug_str:000000000002a7c3 .LASF4018
C:\Users\CYMR90~1\AppData\Local\Temp\ccLPYcmd.s:28644  .debug_str:00000000000221f0 .LASF4019
C:\Users\CYMR90~1\AppData\Local\Temp\ccLPYcmd.s:27486  .debug_str:000000000001dafa .LASF4020
C:\Users\CYMR90~1\AppData\Local\Temp\ccLPYcmd.s:21835  .debug_str:000000000000704e .LASF4021
C:\Users\CYMR90~1\AppData\Local\Temp\ccLPYcmd.s:21985  .debug_str:0000000000007a3b .LASF4022
C:\Users\CYMR90~1\AppData\Local\Temp\ccLPYcmd.s:26028  .debug_str:0000000000017bf0 .LASF4023
C:\Users\CYMR90~1\AppData\Local\Temp\ccLPYcmd.s:30024  .debug_str:00000000000279b6 .LASF4024
C:\Users\CYMR90~1\AppData\Local\Temp\ccLPYcmd.s:22571  .debug_str:0000000000009ff4 .LASF4025
C:\Users\CYMR90~1\AppData\Local\Temp\ccLPYcmd.s:31190  .debug_str:000000000002c3fd .LASF4026
C:\Users\CYMR90~1\AppData\Local\Temp\ccLPYcmd.s:22093  .debug_str:0000000000008265 .LASF4027
C:\Users\CYMR90~1\AppData\Local\Temp\ccLPYcmd.s:24441  .debug_str:00000000000116c0 .LASF4028
C:\Users\CYMR90~1\AppData\Local\Temp\ccLPYcmd.s:27002  .debug_str:000000000001bb41 .LASF4029
C:\Users\CYMR90~1\AppData\Local\Temp\ccLPYcmd.s:31112  .debug_str:000000000002beaa .LASF4030
C:\Users\CYMR90~1\AppData\Local\Temp\ccLPYcmd.s:25141  .debug_str:00000000000143f6 .LASF4031
C:\Users\CYMR90~1\AppData\Local\Temp\ccLPYcmd.s:27606  .debug_str:000000000001e2c4 .LASF4032
C:\Users\CYMR90~1\AppData\Local\Temp\ccLPYcmd.s:29956  .debug_str:00000000000275bd .LASF4033
C:\Users\CYMR90~1\AppData\Local\Temp\ccLPYcmd.s:20923  .debug_str:0000000000003743 .LASF4034
C:\Users\CYMR90~1\AppData\Local\Temp\ccLPYcmd.s:28318  .debug_str:0000000000020de8 .LASF4035
C:\Users\CYMR90~1\AppData\Local\Temp\ccLPYcmd.s:20833  .debug_str:000000000000314d .LASF4036
C:\Users\CYMR90~1\AppData\Local\Temp\ccLPYcmd.s:27946  .debug_str:000000000001f73a .LASF4037
C:\Users\CYMR90~1\AppData\Local\Temp\ccLPYcmd.s:30354  .debug_str:0000000000028fe4 .LASF4038
C:\Users\CYMR90~1\AppData\Local\Temp\ccLPYcmd.s:24773  .debug_str:0000000000012ca7 .LASF4039
C:\Users\CYMR90~1\AppData\Local\Temp\ccLPYcmd.s:23563  .debug_str:000000000000e0fb .LASF4040
C:\Users\CYMR90~1\AppData\Local\Temp\ccLPYcmd.s:20581  .debug_str:0000000000002177 .LASF4041
C:\Users\CYMR90~1\AppData\Local\Temp\ccLPYcmd.s:22117  .debug_str:00000000000083e5 .LASF4042
C:\Users\CYMR90~1\AppData\Local\Temp\ccLPYcmd.s:23283  .debug_str:000000000000cf23 .LASF4043
C:\Users\CYMR90~1\AppData\Local\Temp\ccLPYcmd.s:26402  .debug_str:00000000000193fd .LASF4044
C:\Users\CYMR90~1\AppData\Local\Temp\ccLPYcmd.s:24433  .debug_str:000000000001162d .LASF4045
C:\Users\CYMR90~1\AppData\Local\Temp\ccLPYcmd.s:20127  .debug_str:00000000000005a1 .LASF4046
C:\Users\CYMR90~1\AppData\Local\Temp\ccLPYcmd.s:26880  .debug_str:000000000001b405 .LASF4047
C:\Users\CYMR90~1\AppData\Local\Temp\ccLPYcmd.s:25695  .debug_str:0000000000016580 .LASF4048
C:\Users\CYMR90~1\AppData\Local\Temp\ccLPYcmd.s:23495  .debug_str:000000000000dcb9 .LASF4049
C:\Users\CYMR90~1\AppData\Local\Temp\ccLPYcmd.s:22499  .debug_str:0000000000009b92 .LASF4050
C:\Users\CYMR90~1\AppData\Local\Temp\ccLPYcmd.s:26440  .debug_str:000000000001961b .LASF4051
C:\Users\CYMR90~1\AppData\Local\Temp\ccLPYcmd.s:22375  .debug_str:00000000000093a9 .LASF4052
C:\Users\CYMR90~1\AppData\Local\Temp\ccLPYcmd.s:26338  .debug_str:0000000000018f4d .LASF4053
C:\Users\CYMR90~1\AppData\Local\Temp\ccLPYcmd.s:30314  .debug_str:0000000000028dc6 .LASF4054
C:\Users\CYMR90~1\AppData\Local\Temp\ccLPYcmd.s:25275  .debug_str:0000000000014bcb .LASF4055
C:\Users\CYMR90~1\AppData\Local\Temp\ccLPYcmd.s:26826  .debug_str:000000000001b09b .LASF4056
C:\Users\CYMR90~1\AppData\Local\Temp\ccLPYcmd.s:30896  .debug_str:000000000002b0f7 .LASF4057
C:\Users\CYMR90~1\AppData\Local\Temp\ccLPYcmd.s:23435  .debug_str:000000000000d94c .LASF4058
C:\Users\CYMR90~1\AppData\Local\Temp\ccLPYcmd.s:22555  .debug_str:0000000000009ed8 .LASF4059
C:\Users\CYMR90~1\AppData\Local\Temp\ccLPYcmd.s:24901  .debug_str:000000000001356b .LASF4060
C:\Users\CYMR90~1\AppData\Local\Temp\ccLPYcmd.s:28376  .debug_str:000000000002110d .LASF4061
C:\Users\CYMR90~1\AppData\Local\Temp\ccLPYcmd.s:30158  .debug_str:00000000000282e8 .LASF4062
C:\Users\CYMR90~1\AppData\Local\Temp\ccLPYcmd.s:27434  .debug_str:000000000001d7b3 .LASF4063
C:\Users\CYMR90~1\AppData\Local\Temp\ccLPYcmd.s:22791  .debug_str:000000000000ae75 .LASF4064
C:\Users\CYMR90~1\AppData\Local\Temp\ccLPYcmd.s:26766  .debug_str:000000000001ac73 .LASF4065
C:\Users\CYMR90~1\AppData\Local\Temp\ccLPYcmd.s:30820  .debug_str:000000000002ac8e .LASF4066
C:\Users\CYMR90~1\AppData\Local\Temp\ccLPYcmd.s:26084  .debug_str:0000000000017f3e .LASF4067
C:\Users\CYMR90~1\AppData\Local\Temp\ccLPYcmd.s:27304  .debug_str:000000000001cf25 .LASF4068
C:\Users\CYMR90~1\AppData\Local\Temp\ccLPYcmd.s:31312  .debug_str:000000000002cbf2 .LASF4069
C:\Users\CYMR90~1\AppData\Local\Temp\ccLPYcmd.s:26366  .debug_str:00000000000191dc .LASF4070
C:\Users\CYMR90~1\AppData\Local\Temp\ccLPYcmd.s:20869  .debug_str:00000000000033c4 .LASF4071
C:\Users\CYMR90~1\AppData\Local\Temp\ccLPYcmd.s:30182  .debug_str:0000000000028489 .LASF4072
C:\Users\CYMR90~1\AppData\Local\Temp\ccLPYcmd.s:30764  .debug_str:000000000002a92d .LASF4073
C:\Users\CYMR90~1\AppData\Local\Temp\ccLPYcmd.s:21663  .debug_str:00000000000065bd .LASF4074
C:\Users\CYMR90~1\AppData\Local\Temp\ccLPYcmd.s:30754  .debug_str:000000000002a86c .LASF4075
C:\Users\CYMR90~1\AppData\Local\Temp\ccLPYcmd.s:23307  .debug_str:000000000000d0b5 .LASF4076
C:\Users\CYMR90~1\AppData\Local\Temp\ccLPYcmd.s:27244  .debug_str:000000000001cad4 .LASF4077
C:\Users\CYMR90~1\AppData\Local\Temp\ccLPYcmd.s:31250  .debug_str:000000000002c824 .LASF4078
C:\Users\CYMR90~1\AppData\Local\Temp\ccLPYcmd.s:22095  .debug_str:000000000000828b .LASF4079
C:\Users\CYMR90~1\AppData\Local\Temp\ccLPYcmd.s:25263  .debug_str:0000000000014b55 .LASF4080
C:\Users\CYMR90~1\AppData\Local\Temp\ccLPYcmd.s:24787  .debug_str:0000000000012dae .LASF4081
C:\Users\CYMR90~1\AppData\Local\Temp\ccLPYcmd.s:23115  .debug_str:000000000000c463 .LASF4082
C:\Users\CYMR90~1\AppData\Local\Temp\ccLPYcmd.s:26622  .debug_str:000000000001a1c5 .LASF4083
C:\Users\CYMR90~1\AppData\Local\Temp\ccLPYcmd.s:24095  .debug_str:00000000000101a4 .LASF4084
C:\Users\CYMR90~1\AppData\Local\Temp\ccLPYcmd.s:27014  .debug_str:000000000001bc29 .LASF4085
C:\Users\CYMR90~1\AppData\Local\Temp\ccLPYcmd.s:27174  .debug_str:000000000001c5b2 .LASF4086
C:\Users\CYMR90~1\AppData\Local\Temp\ccLPYcmd.s:28492  .debug_str:0000000000021892 .LASF4087
C:\Users\CYMR90~1\AppData\Local\Temp\ccLPYcmd.s:23705  .debug_str:000000000000e9ba .LASF4088
C:\Users\CYMR90~1\AppData\Local\Temp\ccLPYcmd.s:27632  .debug_str:000000000001e421 .LASF4089
C:\Users\CYMR90~1\AppData\Local\Temp\ccLPYcmd.s:20221  .debug_str:0000000000000b73 .LASF4090
C:\Users\CYMR90~1\AppData\Local\Temp\ccLPYcmd.s:27180  .debug_str:000000000001c610 .LASF4091
C:\Users\CYMR90~1\AppData\Local\Temp\ccLPYcmd.s:28768  .debug_str:0000000000022931 .LASF4092
C:\Users\CYMR90~1\AppData\Local\Temp\ccLPYcmd.s:30620  .debug_str:000000000002a078 .LASF4093
C:\Users\CYMR90~1\AppData\Local\Temp\ccLPYcmd.s:23167  .debug_str:000000000000c78f .LASF4094
C:\Users\CYMR90~1\AppData\Local\Temp\ccLPYcmd.s:21667  .debug_str:00000000000065fc .LASF4095
C:\Users\CYMR90~1\AppData\Local\Temp\ccLPYcmd.s:31124  .debug_str:000000000002bf42 .LASF4096
C:\Users\CYMR90~1\AppData\Local\Temp\ccLPYcmd.s:27658  .debug_str:000000000001e5b0 .LASF4097
C:\Users\CYMR90~1\AppData\Local\Temp\ccLPYcmd.s:27564  .debug_str:000000000001e041 .LASF4098
C:\Users\CYMR90~1\AppData\Local\Temp\ccLPYcmd.s:20159  .debug_str:00000000000007a1 .LASF4099
C:\Users\CYMR90~1\AppData\Local\Temp\ccLPYcmd.s:31300  .debug_str:000000000002cb0f .LASF4100
C:\Users\CYMR90~1\AppData\Local\Temp\ccLPYcmd.s:21137  .debug_str:0000000000004556 .LASF4101
C:\Users\CYMR90~1\AppData\Local\Temp\ccLPYcmd.s:30550  .debug_str:0000000000029c6a .LASF4102
C:\Users\CYMR90~1\AppData\Local\Temp\ccLPYcmd.s:26502  .debug_str:0000000000019abf .LASF4103
C:\Users\CYMR90~1\AppData\Local\Temp\ccLPYcmd.s:28854  .debug_str:0000000000022e8e .LASF4104
C:\Users\CYMR90~1\AppData\Local\Temp\ccLPYcmd.s:31070  .debug_str:000000000002bba8 .LASF4105
C:\Users\CYMR90~1\AppData\Local\Temp\ccLPYcmd.s:23585  .debug_str:000000000000e230 .LASF4106
C:\Users\CYMR90~1\AppData\Local\Temp\ccLPYcmd.s:21433  .debug_str:0000000000005849 .LASF4107
C:\Users\CYMR90~1\AppData\Local\Temp\ccLPYcmd.s:26858  .debug_str:000000000001b2db .LASF4108
C:\Users\CYMR90~1\AppData\Local\Temp\ccLPYcmd.s:24649  .debug_str:0000000000012492 .LASF4109
C:\Users\CYMR90~1\AppData\Local\Temp\ccLPYcmd.s:21011  .debug_str:0000000000003cd7 .LASF4110
C:\Users\CYMR90~1\AppData\Local\Temp\ccLPYcmd.s:25129  .debug_str:0000000000014343 .LASF4111
C:\Users\CYMR90~1\AppData\Local\Temp\ccLPYcmd.s:23035  .debug_str:000000000000bf7d .LASF4112
C:\Users\CYMR90~1\AppData\Local\Temp\ccLPYcmd.s:20381  .debug_str:000000000000154c .LASF4113
C:\Users\CYMR90~1\AppData\Local\Temp\ccLPYcmd.s:30992  .debug_str:000000000002b6cf .LASF4114
C:\Users\CYMR90~1\AppData\Local\Temp\ccLPYcmd.s:20827  .debug_str:00000000000030ff .LASF4115
C:\Users\CYMR90~1\AppData\Local\Temp\ccLPYcmd.s:29200  .debug_str:000000000002434a .LASF4116
C:\Users\CYMR90~1\AppData\Local\Temp\ccLPYcmd.s:31450  .debug_str:000000000002d4ef .LASF4117
C:\Users\CYMR90~1\AppData\Local\Temp\ccLPYcmd.s:20375  .debug_str:00000000000014f0 .LASF4118
C:\Users\CYMR90~1\AppData\Local\Temp\ccLPYcmd.s:25591  .debug_str:0000000000015ee5 .LASF4119
C:\Users\CYMR90~1\AppData\Local\Temp\ccLPYcmd.s:26934  .debug_str:000000000001b75f .LASF4120
C:\Users\CYMR90~1\AppData\Local\Temp\ccLPYcmd.s:29636  .debug_str:000000000002613f .LASF4121
C:\Users\CYMR90~1\AppData\Local\Temp\ccLPYcmd.s:25313  .debug_str:0000000000014e53 .LASF4122
C:\Users\CYMR90~1\AppData\Local\Temp\ccLPYcmd.s:20093  .debug_str:00000000000003c4 .LASF4123
C:\Users\CYMR90~1\AppData\Local\Temp\ccLPYcmd.s:20821  .debug_str:00000000000030b0 .LASF4124
C:\Users\CYMR90~1\AppData\Local\Temp\ccLPYcmd.s:22159  .debug_str:0000000000008699 .LASF4125
C:\Users\CYMR90~1\AppData\Local\Temp\ccLPYcmd.s:26114  .debug_str:0000000000018103 .LASF4126
C:\Users\CYMR90~1\AppData\Local\Temp\ccLPYcmd.s:30104  .debug_str:0000000000027f0b .LASF4127
C:\Users\CYMR90~1\AppData\Local\Temp\ccLPYcmd.s:28930  .debug_str:00000000000232bd .LASF4128
C:\Users\CYMR90~1\AppData\Local\Temp\ccLPYcmd.s:31314  .debug_str:000000000002cc18 .LASF4129
C:\Users\CYMR90~1\AppData\Local\Temp\ccLPYcmd.s:30674  .debug_str:000000000002a38d .LASF4130
C:\Users\CYMR90~1\AppData\Local\Temp\ccLPYcmd.s:20255  .debug_str:0000000000000d64 .LASF4131
C:\Users\CYMR90~1\AppData\Local\Temp\ccLPYcmd.s:20699  .debug_str:0000000000002906 .LASF4132
C:\Users\CYMR90~1\AppData\Local\Temp\ccLPYcmd.s:29544  .debug_str:0000000000025bca .LASF4133
C:\Users\CYMR90~1\AppData\Local\Temp\ccLPYcmd.s:22099  .debug_str:00000000000082c7 .LASF4134
C:\Users\CYMR90~1\AppData\Local\Temp\ccLPYcmd.s:26042  .debug_str:0000000000017cc0 .LASF4135
C:\Users\CYMR90~1\AppData\Local\Temp\ccLPYcmd.s:30886  .debug_str:000000000002b053 .LASF4136
C:\Users\CYMR90~1\AppData\Local\Temp\ccLPYcmd.s:21033  .debug_str:0000000000003e5e .LASF4137
C:\Users\CYMR90~1\AppData\Local\Temp\ccLPYcmd.s:26542  .debug_str:0000000000019d4b .LASF4138
C:\Users\CYMR90~1\AppData\Local\Temp\ccLPYcmd.s:30616  .debug_str:000000000002a03b .LASF4139
C:\Users\CYMR90~1\AppData\Local\Temp\ccLPYcmd.s:29016  .debug_str:00000000000237d3 .LASF4140
C:\Users\CYMR90~1\AppData\Local\Temp\ccLPYcmd.s:28044  .debug_str:000000000001fd26 .LASF4141
C:\Users\CYMR90~1\AppData\Local\Temp\ccLPYcmd.s:29370  .debug_str:0000000000024ea0 .LASF4142
C:\Users\CYMR90~1\AppData\Local\Temp\ccLPYcmd.s:31398  .debug_str:000000000002d1eb .LASF4143
C:\Users\CYMR90~1\AppData\Local\Temp\ccLPYcmd.s:25980  .debug_str:000000000001791f .LASF4144
C:\Users\CYMR90~1\AppData\Local\Temp\ccLPYcmd.s:22253  .debug_str:0000000000008c71 .LASF4145
C:\Users\CYMR90~1\AppData\Local\Temp\ccLPYcmd.s:26710  .debug_str:000000000001a902 .LASF4146
C:\Users\CYMR90~1\AppData\Local\Temp\ccLPYcmd.s:26954  .debug_str:000000000001b8bc .LASF4147
C:\Users\CYMR90~1\AppData\Local\Temp\ccLPYcmd.s:30540  .debug_str:0000000000029be0 .LASF4148
C:\Users\CYMR90~1\AppData\Local\Temp\ccLPYcmd.s:21109  .debug_str:000000000000439e .LASF4149
C:\Users\CYMR90~1\AppData\Local\Temp\ccLPYcmd.s:23509  .debug_str:000000000000dd60 .LASF4150
C:\Users\CYMR90~1\AppData\Local\Temp\ccLPYcmd.s:26324  .debug_str:0000000000018e6f .LASF4151
C:\Users\CYMR90~1\AppData\Local\Temp\ccLPYcmd.s:21959  .debug_str:000000000000788b .LASF4152
C:\Users\CYMR90~1\AppData\Local\Temp\ccLPYcmd.s:23457  .debug_str:000000000000da9d .LASF4153
C:\Users\CYMR90~1\AppData\Local\Temp\ccLPYcmd.s:28998  .debug_str:0000000000023691 .LASF4154
C:\Users\CYMR90~1\AppData\Local\Temp\ccLPYcmd.s:22435  .debug_str:0000000000009766 .LASF4155
C:\Users\CYMR90~1\AppData\Local\Temp\ccLPYcmd.s:31368  .debug_str:000000000002cf84 .LASF4156
C:\Users\CYMR90~1\AppData\Local\Temp\ccLPYcmd.s:30480  .debug_str:0000000000029832 .LASF4157
C:\Users\CYMR90~1\AppData\Local\Temp\ccLPYcmd.s:23029  .debug_str:000000000000bf04 .LASF4158
C:\Users\CYMR90~1\AppData\Local\Temp\ccLPYcmd.s:27032  .debug_str:000000000001bd44 .LASF4159
C:\Users\CYMR90~1\AppData\Local\Temp\ccLPYcmd.s:29392  .debug_str:000000000002500a .LASF4160
C:\Users\CYMR90~1\AppData\Local\Temp\ccLPYcmd.s:25375  .debug_str:00000000000151e3 .LASF4161
C:\Users\CYMR90~1\AppData\Local\Temp\ccLPYcmd.s:25854  .debug_str:0000000000017199 .LASF4162
C:\Users\CYMR90~1\AppData\Local\Temp\ccLPYcmd.s:27330  .debug_str:000000000001d13e .LASF4163
C:\Users\CYMR90~1\AppData\Local\Temp\ccLPYcmd.s:20275  .debug_str:0000000000000e89 .LASF4164
C:\Users\CYMR90~1\AppData\Local\Temp\ccLPYcmd.s:26354  .debug_str:0000000000019116 .LASF4165
C:\Users\CYMR90~1\AppData\Local\Temp\ccLPYcmd.s:25860  .debug_str:0000000000017205 .LASF4166
C:\Users\CYMR90~1\AppData\Local\Temp\ccLPYcmd.s:28214  .debug_str:00000000000207d8 .LASF4167
C:\Users\CYMR90~1\AppData\Local\Temp\ccLPYcmd.s:30594  .debug_str:0000000000029ef6 .LASF4168
C:\Users\CYMR90~1\AppData\Local\Temp\ccLPYcmd.s:30908  .debug_str:000000000002b1b1 .LASF4169
C:\Users\CYMR90~1\AppData\Local\Temp\ccLPYcmd.s:23877  .debug_str:000000000000f3ae .LASF4170
C:\Users\CYMR90~1\AppData\Local\Temp\ccLPYcmd.s:31320  .debug_str:000000000002cc91 .LASF4171
C:\Users\CYMR90~1\AppData\Local\Temp\ccLPYcmd.s:29770  .debug_str:000000000002699e .LASF4172
C:\Users\CYMR90~1\AppData\Local\Temp\ccLPYcmd.s:23827  .debug_str:000000000000f080 .LASF4173
C:\Users\CYMR90~1\AppData\Local\Temp\ccLPYcmd.s:26286  .debug_str:0000000000018c16 .LASF4174
C:\Users\CYMR90~1\AppData\Local\Temp\ccLPYcmd.s:30350  .debug_str:0000000000028faa .LASF4175
C:\Users\CYMR90~1\AppData\Local\Temp\ccLPYcmd.s:29240  .debug_str:0000000000024637 .LASF4176
C:\Users\CYMR90~1\AppData\Local\Temp\ccLPYcmd.s:26856  .debug_str:000000000001b2b5 .LASF4177
C:\Users\CYMR90~1\AppData\Local\Temp\ccLPYcmd.s:30834  .debug_str:000000000002ad4a .LASF4178
C:\Users\CYMR90~1\AppData\Local\Temp\ccLPYcmd.s:23385  .debug_str:000000000000d62b .LASF4179
C:\Users\CYMR90~1\AppData\Local\Temp\ccLPYcmd.s:29772  .debug_str:00000000000269c4 .LASF4180
C:\Users\CYMR90~1\AppData\Local\Temp\ccLPYcmd.s:25757  .debug_str:00000000000169a5 .LASF4181
C:\Users\CYMR90~1\AppData\Local\Temp\ccLPYcmd.s:22257  .debug_str:0000000000008cad .LASF4182
C:\Users\CYMR90~1\AppData\Local\Temp\ccLPYcmd.s:26210  .debug_str:0000000000018693 .LASF4183
C:\Users\CYMR90~1\AppData\Local\Temp\ccLPYcmd.s:24235  .debug_str:00000000000109d8 .LASF4184
C:\Users\CYMR90~1\AppData\Local\Temp\ccLPYcmd.s:22831  .debug_str:000000000000b1dd .LASF4185
C:\Users\CYMR90~1\AppData\Local\Temp\ccLPYcmd.s:26246  .debug_str:00000000000188fe .LASF4186
C:\Users\CYMR90~1\AppData\Local\Temp\ccLPYcmd.s:26462  .debug_str:00000000000197e0 .LASF4187
C:\Users\CYMR90~1\AppData\Local\Temp\ccLPYcmd.s:27194  .debug_str:000000000001c6f4 .LASF4188
C:\Users\CYMR90~1\AppData\Local\Temp\ccLPYcmd.s:21875  .debug_str:000000000000734a .LASF4189
C:\Users\CYMR90~1\AppData\Local\Temp\ccLPYcmd.s:31264  .debug_str:000000000002c905 .LASF4190
C:\Users\CYMR90~1\AppData\Local\Temp\ccLPYcmd.s:28266  .debug_str:0000000000020ac4 .LASF4191
C:\Users\CYMR90~1\AppData\Local\Temp\ccLPYcmd.s:21819  .debug_str:0000000000006f7d .LASF4192
C:\Users\CYMR90~1\AppData\Local\Temp\ccLPYcmd.s:30220  .debug_str:0000000000028769 .LASF4193
C:\Users\CYMR90~1\AppData\Local\Temp\ccLPYcmd.s:22761  .debug_str:000000000000ac99 .LASF4194
C:\Users\CYMR90~1\AppData\Local\Temp\ccLPYcmd.s:27576  .debug_str:000000000001e0f5 .LASF4195
C:\Users\CYMR90~1\AppData\Local\Temp\ccLPYcmd.s:22195  .debug_str:00000000000088a3 .LASF4196
C:\Users\CYMR90~1\AppData\Local\Temp\ccLPYcmd.s:23259  .debug_str:000000000000cde1 .LASF4197
C:\Users\CYMR90~1\AppData\Local\Temp\ccLPYcmd.s:27192  .debug_str:000000000001c6ce .LASF4198
C:\Users\CYMR90~1\AppData\Local\Temp\ccLPYcmd.s:31200  .debug_str:000000000002c485 .LASF4199
C:\Users\CYMR90~1\AppData\Local\Temp\ccLPYcmd.s:23817  .debug_str:000000000000eff2 .LASF4200
C:\Users\CYMR90~1\AppData\Local\Temp\ccLPYcmd.s:27982  .debug_str:000000000001f957 .LASF4201
C:\Users\CYMR90~1\AppData\Local\Temp\ccLPYcmd.s:28624  .debug_str:00000000000220bb .LASF4202
C:\Users\CYMR90~1\AppData\Local\Temp\ccLPYcmd.s:31026  .debug_str:000000000002b8f6 .LASF4203
C:\Users\CYMR90~1\AppData\Local\Temp\ccLPYcmd.s:26668  .debug_str:000000000001a5ef .LASF4204
C:\Users\CYMR90~1\AppData\Local\Temp\ccLPYcmd.s:29350  .debug_str:0000000000024d5f .LASF4205
C:\Users\CYMR90~1\AppData\Local\Temp\ccLPYcmd.s:26640  .debug_str:000000000001a491 .LASF4206
C:\Users\CYMR90~1\AppData\Local\Temp\ccLPYcmd.s:27118  .debug_str:000000000001c2c7 .LASF4207
C:\Users\CYMR90~1\AppData\Local\Temp\ccLPYcmd.s:20169  .debug_str:0000000000000825 .LASF4208
C:\Users\CYMR90~1\AppData\Local\Temp\ccLPYcmd.s:23181  .debug_str:000000000000c857 .LASF4209
C:\Users\CYMR90~1\AppData\Local\Temp\ccLPYcmd.s:23357  .debug_str:000000000000d424 .LASF4210
C:\Users\CYMR90~1\AppData\Local\Temp\ccLPYcmd.s:21495  .debug_str:0000000000005c19 .LASF4211
C:\Users\CYMR90~1\AppData\Local\Temp\ccLPYcmd.s:22631  .debug_str:000000000000a3a7 .LASF4212
C:\Users\CYMR90~1\AppData\Local\Temp\ccLPYcmd.s:26586  .debug_str:0000000000019fc0 .LASF4213
C:\Users\CYMR90~1\AppData\Local\Temp\ccLPYcmd.s:30562  .debug_str:0000000000029d27 .LASF4214
C:\Users\CYMR90~1\AppData\Local\Temp\ccLPYcmd.s:23113  .debug_str:000000000000c43d .LASF4215
C:\Users\CYMR90~1\AppData\Local\Temp\ccLPYcmd.s:27058  .debug_str:000000000001bf13 .LASF4216
C:\Users\CYMR90~1\AppData\Local\Temp\ccLPYcmd.s:27302  .debug_str:000000000001ceff .LASF4217
C:\Users\CYMR90~1\AppData\Local\Temp\ccLPYcmd.s:26730  .debug_str:000000000001aa5c .LASF4218
C:\Users\CYMR90~1\AppData\Local\Temp\ccLPYcmd.s:27602  .debug_str:000000000001e28e .LASF4219
C:\Users\CYMR90~1\AppData\Local\Temp\ccLPYcmd.s:31266  .debug_str:000000000002c92b .LASF4220
C:\Users\CYMR90~1\AppData\Local\Temp\ccLPYcmd.s:22717  .debug_str:000000000000a9f9 .LASF4221
C:\Users\CYMR90~1\AppData\Local\Temp\ccLPYcmd.s:21167  .debug_str:0000000000004757 .LASF4222
C:\Users\CYMR90~1\AppData\Local\Temp\ccLPYcmd.s:25229  .debug_str:0000000000014956 .LASF4223
C:\Users\CYMR90~1\AppData\Local\Temp\ccLPYcmd.s:29216  .debug_str:000000000002447a .LASF4224
C:\Users\CYMR90~1\AppData\Local\Temp\ccLPYcmd.s:21743  .debug_str:0000000000006ac4 .LASF4225
C:\Users\CYMR90~1\AppData\Local\Temp\ccLPYcmd.s:20271  .debug_str:0000000000000e4b .LASF4226
C:\Users\CYMR90~1\AppData\Local\Temp\ccLPYcmd.s:31108  .debug_str:000000000002be49 .LASF4227
C:\Users\CYMR90~1\AppData\Local\Temp\ccLPYcmd.s:21727  .debug_str:00000000000069bd .LASF4228
C:\Users\CYMR90~1\AppData\Local\Temp\ccLPYcmd.s:26204  .debug_str:0000000000018647 .LASF4229
C:\Users\CYMR90~1\AppData\Local\Temp\ccLPYcmd.s:30282  .debug_str:0000000000028bcb .LASF4230
C:\Users\CYMR90~1\AppData\Local\Temp\ccLPYcmd.s:29612  .debug_str:0000000000025f9c .LASF4231
C:\Users\CYMR90~1\AppData\Local\Temp\ccLPYcmd.s:25165  .debug_str:0000000000014531 .LASF4232
C:\Users\CYMR90~1\AppData\Local\Temp\ccLPYcmd.s:29302  .debug_str:0000000000024a0f .LASF4233
C:\Users\CYMR90~1\AppData\Local\Temp\ccLPYcmd.s:29906  .debug_str:000000000002720d .LASF4234
C:\Users\CYMR90~1\AppData\Local\Temp\ccLPYcmd.s:27398  .debug_str:000000000001d572 .LASF4235
C:\Users\CYMR90~1\AppData\Local\Temp\ccLPYcmd.s:28142  .debug_str:00000000000202f2 .LASF4236
C:\Users\CYMR90~1\AppData\Local\Temp\ccLPYcmd.s:24217  .debug_str:00000000000108cd .LASF4237
C:\Users\CYMR90~1\AppData\Local\Temp\ccLPYcmd.s:27840  .debug_str:000000000001f0e4 .LASF4238
C:\Users\CYMR90~1\AppData\Local\Temp\ccLPYcmd.s:23517  .debug_str:000000000000dde7 .LASF4239
C:\Users\CYMR90~1\AppData\Local\Temp\ccLPYcmd.s:22071  .debug_str:0000000000008071 .LASF4240
C:\Users\CYMR90~1\AppData\Local\Temp\ccLPYcmd.s:29498  .debug_str:00000000000257ff .LASF4241
C:\Users\CYMR90~1\AppData\Local\Temp\ccLPYcmd.s:31126  .debug_str:000000000002bf68 .LASF4242
C:\Users\CYMR90~1\AppData\Local\Temp\ccLPYcmd.s:22427  .debug_str:00000000000096ed .LASF4243
C:\Users\CYMR90~1\AppData\Local\Temp\ccLPYcmd.s:25567  .debug_str:0000000000015d22 .LASF4244
C:\Users\CYMR90~1\AppData\Local\Temp\ccLPYcmd.s:29560  .debug_str:0000000000025cb7 .LASF4245
C:\Users\CYMR90~1\AppData\Local\Temp\ccLPYcmd.s:24643  .debug_str:0000000000012437 .LASF4246
C:\Users\CYMR90~1\AppData\Local\Temp\ccLPYcmd.s:24689  .debug_str:0000000000012748 .LASF4247
C:\Users\CYMR90~1\AppData\Local\Temp\ccLPYcmd.s:23289  .debug_str:000000000000cf7d .LASF4248
C:\Users\CYMR90~1\AppData\Local\Temp\ccLPYcmd.s:22689  .debug_str:000000000000a738 .LASF4249
C:\Users\CYMR90~1\AppData\Local\Temp\ccLPYcmd.s:29300  .debug_str:00000000000249e9 .LASF4250
C:\Users\CYMR90~1\AppData\Local\Temp\ccLPYcmd.s:23701  .debug_str:000000000000e984 .LASF4251
C:\Users\CYMR90~1\AppData\Local\Temp\ccLPYcmd.s:21537  .debug_str:0000000000005e4c .LASF4252
C:\Users\CYMR90~1\AppData\Local\Temp\ccLPYcmd.s:27870  .debug_str:000000000001f2b8 .LASF4253
C:\Users\CYMR90~1\AppData\Local\Temp\ccLPYcmd.s:29494  .debug_str:00000000000257ad .LASF4254
C:\Users\CYMR90~1\AppData\Local\Temp\ccLPYcmd.s:29280  .debug_str:00000000000248a5 .LASF4255
C:\Users\CYMR90~1\AppData\Local\Temp\ccLPYcmd.s:21089  .debug_str:000000000000427f .LASF4256
C:\Users\CYMR90~1\AppData\Local\Temp\ccLPYcmd.s:26824  .debug_str:000000000001b075 .LASF4257
C:\Users\CYMR90~1\AppData\Local\Temp\ccLPYcmd.s:24301  .debug_str:0000000000010e78 .LASF4258
C:\Users\CYMR90~1\AppData\Local\Temp\ccLPYcmd.s:26578  .debug_str:0000000000019f49 .LASF4259
C:\Users\CYMR90~1\AppData\Local\Temp\ccLPYcmd.s:30556  .debug_str:0000000000029cbd .LASF4260
C:\Users\CYMR90~1\AppData\Local\Temp\ccLPYcmd.s:29888  .debug_str:00000000000270db .LASF4261
C:\Users\CYMR90~1\AppData\Local\Temp\ccLPYcmd.s:25443  .debug_str:000000000001559f .LASF4262
C:\Users\CYMR90~1\AppData\Local\Temp\ccLPYcmd.s:31210  .debug_str:000000000002c552 .LASF4263
C:\Users\CYMR90~1\AppData\Local\Temp\ccLPYcmd.s:21969  .debug_str:0000000000007941 .LASF4264
C:\Users\CYMR90~1\AppData\Local\Temp\ccLPYcmd.s:29438  .debug_str:000000000002532e .LASF4265
C:\Users\CYMR90~1\AppData\Local\Temp\ccLPYcmd.s:31442  .debug_str:000000000002d469 .LASF4266
C:\Users\CYMR90~1\AppData\Local\Temp\ccLPYcmd.s:21263  .debug_str:0000000000004dfe .LASF4267
C:\Users\CYMR90~1\AppData\Local\Temp\ccLPYcmd.s:26518  .debug_str:0000000000019bcf .LASF4268
C:\Users\CYMR90~1\AppData\Local\Temp\ccLPYcmd.s:21489  .debug_str:0000000000005b85 .LASF4269
C:\Users\CYMR90~1\AppData\Local\Temp\ccLPYcmd.s:23041  .debug_str:000000000000bfdb .LASF4270
C:\Users\CYMR90~1\AppData\Local\Temp\ccLPYcmd.s:24367  .debug_str:0000000000011228 .LASF4271
C:\Users\CYMR90~1\AppData\Local\Temp\ccLPYcmd.s:22527  .debug_str:0000000000009d3e .LASF4272
C:\Users\CYMR90~1\AppData\Local\Temp\ccLPYcmd.s:29654  .debug_str:0000000000026284 .LASF4273
C:\Users\CYMR90~1\AppData\Local\Temp\ccLPYcmd.s:25950  .debug_str:0000000000017709 .LASF4274
C:\Users\CYMR90~1\AppData\Local\Temp\ccLPYcmd.s:26924  .debug_str:000000000001b6aa .LASF4275
C:\Users\CYMR90~1\AppData\Local\Temp\ccLPYcmd.s:27182  .debug_str:000000000001c636 .LASF4276
C:\Users\CYMR90~1\AppData\Local\Temp\ccLPYcmd.s:26458  .debug_str:0000000000019795 .LASF4277
C:\Users\CYMR90~1\AppData\Local\Temp\ccLPYcmd.s:30434  .debug_str:00000000000294d9 .LASF4278
C:\Users\CYMR90~1\AppData\Local\Temp\ccLPYcmd.s:20471  .debug_str:0000000000001b40 .LASF4279
C:\Users\CYMR90~1\AppData\Local\Temp\ccLPYcmd.s:30170  .debug_str:00000000000283c6 .LASF4280
C:\Users\CYMR90~1\AppData\Local\Temp\ccLPYcmd.s:23989  .debug_str:000000000000fae0 .LASF4281
C:\Users\CYMR90~1\AppData\Local\Temp\ccLPYcmd.s:20413  .debug_str:0000000000001721 .LASF4282
C:\Users\CYMR90~1\AppData\Local\Temp\ccLPYcmd.s:25888  .debug_str:00000000000173a0 .LASF4283
C:\Users\CYMR90~1\AppData\Local\Temp\ccLPYcmd.s:29880  .debug_str:0000000000027063 .LASF4284
C:\Users\CYMR90~1\AppData\Local\Temp\ccLPYcmd.s:28360  .debug_str:000000000002102c .LASF4285
C:\Users\CYMR90~1\AppData\Local\Temp\ccLPYcmd.s:26390  .debug_str:0000000000019326 .LASF4286
C:\Users\CYMR90~1\AppData\Local\Temp\ccLPYcmd.s:21649  .debug_str:0000000000006503 .LASF4287
C:\Users\CYMR90~1\AppData\Local\Temp\ccLPYcmd.s:22909  .debug_str:000000000000b6d8 .LASF4288
C:\Users\CYMR90~1\AppData\Local\Temp\ccLPYcmd.s:26382  .debug_str:00000000000192ba .LASF4289
C:\Users\CYMR90~1\AppData\Local\Temp\ccLPYcmd.s:24537  .debug_str:0000000000011d50 .LASF4290
C:\Users\CYMR90~1\AppData\Local\Temp\ccLPYcmd.s:21567  .debug_str:0000000000005fe0 .LASF4291
C:\Users\CYMR90~1\AppData\Local\Temp\ccLPYcmd.s:25828  .debug_str:0000000000017032 .LASF4292
C:\Users\CYMR90~1\AppData\Local\Temp\ccLPYcmd.s:29810  .debug_str:0000000000026c12 .LASF4293
C:\Users\CYMR90~1\AppData\Local\Temp\ccLPYcmd.s:22361  .debug_str:00000000000092c4 .LASF4294
C:\Users\CYMR90~1\AppData\Local\Temp\ccLPYcmd.s:20435  .debug_str:0000000000001913 .LASF4295
C:\Users\CYMR90~1\AppData\Local\Temp\ccLPYcmd.s:26496  .debug_str:0000000000019a67 .LASF4296
C:\Users\CYMR90~1\AppData\Local\Temp\ccLPYcmd.s:27538  .debug_str:000000000001de8c .LASF4297
C:\Users\CYMR90~1\AppData\Local\Temp\ccLPYcmd.s:26814  .debug_str:000000000001afdc .LASF4298
C:\Users\CYMR90~1\AppData\Local\Temp\ccLPYcmd.s:30782  .debug_str:000000000002aa44 .LASF4299
C:\Users\CYMR90~1\AppData\Local\Temp\ccLPYcmd.s:23423  .debug_str:000000000000d8b4 .LASF4300
C:\Users\CYMR90~1\AppData\Local\Temp\ccLPYcmd.s:20441  .debug_str:0000000000001979 .LASF4301
C:\Users\CYMR90~1\AppData\Local\Temp\ccLPYcmd.s:29744  .debug_str:00000000000267dc .LASF4302
C:\Users\CYMR90~1\AppData\Local\Temp\ccLPYcmd.s:24061  .debug_str:000000000000ff84 .LASF4303
C:\Users\CYMR90~1\AppData\Local\Temp\ccLPYcmd.s:26560  .debug_str:0000000000019e3d .LASF4304
C:\Users\CYMR90~1\AppData\Local\Temp\ccLPYcmd.s:28762  .debug_str:00000000000228b3 .LASF4305
C:\Users\CYMR90~1\AppData\Local\Temp\ccLPYcmd.s:31154  .debug_str:000000000002c138 .LASF4306
C:\Users\CYMR90~1\AppData\Local\Temp\ccLPYcmd.s:26756  .debug_str:000000000001abd5 .LASF4307
C:\Users\CYMR90~1\AppData\Local\Temp\ccLPYcmd.s:30718  .debug_str:000000000002a609 .LASF4308
C:\Users\CYMR90~1\AppData\Local\Temp\ccLPYcmd.s:27618  .debug_str:000000000001e35a .LASF4309
C:\Users\CYMR90~1\AppData\Local\Temp\ccLPYcmd.s:24005  .debug_str:000000000000fbd6 .LASF4310
C:\Users\CYMR90~1\AppData\Local\Temp\ccLPYcmd.s:24351  .debug_str:0000000000011143 .LASF4311
C:\Users\CYMR90~1\AppData\Local\Temp\ccLPYcmd.s:22227  .debug_str:0000000000008ad6 .LASF4312
C:\Users\CYMR90~1\AppData\Local\Temp\ccLPYcmd.s:22305  .debug_str:0000000000008fa9 .LASF4313
C:\Users\CYMR90~1\AppData\Local\Temp\ccLPYcmd.s:27332  .debug_str:000000000001d164 .LASF4314
C:\Users\CYMR90~1\AppData\Local\Temp\ccLPYcmd.s:24329  .debug_str:0000000000010feb .LASF4315
C:\Users\CYMR90~1\AppData\Local\Temp\ccLPYcmd.s:26682  .debug_str:000000000001a6f1 .LASF4316
C:\Users\CYMR90~1\AppData\Local\Temp\ccLPYcmd.s:25045  .debug_str:0000000000013df2 .LASF4317
C:\Users\CYMR90~1\AppData\Local\Temp\ccLPYcmd.s:27662  .debug_str:000000000001e606 .LASF4318
C:\Users\CYMR90~1\AppData\Local\Temp\ccLPYcmd.s:24543  .debug_str:0000000000011da7 .LASF4319
C:\Users\CYMR90~1\AppData\Local\Temp\ccLPYcmd.s:24483  .debug_str:00000000000119c6 .LASF4320
C:\Users\CYMR90~1\AppData\Local\Temp\ccLPYcmd.s:22759  .debug_str:000000000000ac73 .LASF4321
C:\Users\CYMR90~1\AppData\Local\Temp\ccLPYcmd.s:20873  .debug_str:0000000000003402 .LASF4322
C:\Users\CYMR90~1\AppData\Local\Temp\ccLPYcmd.s:24845  .debug_str:0000000000013183 .LASF4323
C:\Users\CYMR90~1\AppData\Local\Temp\ccLPYcmd.s:28462  .debug_str:00000000000216cd .LASF4324
C:\Users\CYMR90~1\AppData\Local\Temp\ccLPYcmd.s:21331  .debug_str:000000000000522f .LASF4325
C:\Users\CYMR90~1\AppData\Local\Temp\ccLPYcmd.s:25309  .debug_str:0000000000014e0b .LASF4326
C:\Users\CYMR90~1\AppData\Local\Temp\ccLPYcmd.s:29290  .debug_str:000000000002494d .LASF4327
C:\Users\CYMR90~1\AppData\Local\Temp\ccLPYcmd.s:21821  .debug_str:0000000000006fa3 .LASF4328
C:\Users\CYMR90~1\AppData\Local\Temp\ccLPYcmd.s:21105  .debug_str:000000000000436f .LASF4329
C:\Users\CYMR90~1\AppData\Local\Temp\ccLPYcmd.s:29872  .debug_str:0000000000026fc8 .LASF4330
C:\Users\CYMR90~1\AppData\Local\Temp\ccLPYcmd.s:28062  .debug_str:000000000001fe1e .LASF4331
C:\Users\CYMR90~1\AppData\Local\Temp\ccLPYcmd.s:24795  .debug_str:0000000000012e49 .LASF4332
C:\Users\CYMR90~1\AppData\Local\Temp\ccLPYcmd.s:28752  .debug_str:00000000000227f8 .LASF4333
C:\Users\CYMR90~1\AppData\Local\Temp\ccLPYcmd.s:24629  .debug_str:0000000000012340 .LASF4334
C:\Users\CYMR90~1\AppData\Local\Temp\ccLPYcmd.s:25353  .debug_str:00000000000150b7 .LASF4335
C:\Users\CYMR90~1\AppData\Local\Temp\ccLPYcmd.s:31318  .debug_str:000000000002cc6b .LASF4336
C:\Users\CYMR90~1\AppData\Local\Temp\ccLPYcmd.s:30032  .debug_str:0000000000027a3d .LASF4337
C:\Users\CYMR90~1\AppData\Local\Temp\ccLPYcmd.s:25723  .debug_str:000000000001672b .LASF4338
C:\Users\CYMR90~1\AppData\Local\Temp\ccLPYcmd.s:24209  .debug_str:0000000000010850 .LASF4339
C:\Users\CYMR90~1\AppData\Local\Temp\ccLPYcmd.s:22353  .debug_str:0000000000009255 .LASF4340
C:\Users\CYMR90~1\AppData\Local\Temp\ccLPYcmd.s:30832  .debug_str:000000000002ad24 .LASF4341
C:\Users\CYMR90~1\AppData\Local\Temp\ccLPYcmd.s:28678  .debug_str:00000000000223f8 .LASF4342
C:\Users\CYMR90~1\AppData\Local\Temp\ccLPYcmd.s:25607  .debug_str:0000000000015ffd .LASF4343
C:\Users\CYMR90~1\AppData\Local\Temp\ccLPYcmd.s:28862  .debug_str:0000000000022f16 .LASF4344
C:\Users\CYMR90~1\AppData\Local\Temp\ccLPYcmd.s:23911  .debug_str:000000000000f5ba .LASF4345
C:\Users\CYMR90~1\AppData\Local\Temp\ccLPYcmd.s:21687  .debug_str:0000000000006708 .LASF4346
C:\Users\CYMR90~1\AppData\Local\Temp\ccLPYcmd.s:25653  .debug_str:00000000000162bc .LASF4347
C:\Users\CYMR90~1\AppData\Local\Temp\ccLPYcmd.s:27714  .debug_str:000000000001e950 .LASF4348
C:\Users\CYMR90~1\AppData\Local\Temp\ccLPYcmd.s:22293  .debug_str:0000000000008f15 .LASF4349
C:\Users\CYMR90~1\AppData\Local\Temp\ccLPYcmd.s:26242  .debug_str:000000000001889e .LASF4350
C:\Users\CYMR90~1\AppData\Local\Temp\ccLPYcmd.s:23319  .debug_str:000000000000d184 .LASF4351
C:\Users\CYMR90~1\AppData\Local\Temp\ccLPYcmd.s:21141  .debug_str:00000000000045a0 .LASF4352
C:\Users\CYMR90~1\AppData\Local\Temp\ccLPYcmd.s:25109  .debug_str:0000000000014215 .LASF4353
C:\Users\CYMR90~1\AppData\Local\Temp\ccLPYcmd.s:23271  .debug_str:000000000000ce77 .LASF4354
C:\Users\CYMR90~1\AppData\Local\Temp\ccLPYcmd.s:21621  .debug_str:0000000000006342 .LASF4355
C:\Users\CYMR90~1\AppData\Local\Temp\ccLPYcmd.s:20751  .debug_str:0000000000002c6d .LASF4356
C:\Users\CYMR90~1\AppData\Local\Temp\ccLPYcmd.s:31324  .debug_str:000000000002ccdb .LASF4357
C:\Users\CYMR90~1\AppData\Local\Temp\ccLPYcmd.s:22241  .debug_str:0000000000008bab .LASF4358
C:\Users\CYMR90~1\AppData\Local\Temp\ccLPYcmd.s:26168  .debug_str:0000000000018432 .LASF4359
C:\Users\CYMR90~1\AppData\Local\Temp\ccLPYcmd.s:20509  .debug_str:0000000000001d9c .LASF4360
C:\Users\CYMR90~1\AppData\Local\Temp\ccLPYcmd.s:20291  .debug_str:0000000000001016 .LASF4361
C:\Users\CYMR90~1\AppData\Local\Temp\ccLPYcmd.s:25041  .debug_str:0000000000013daf .LASF4362
C:\Users\CYMR90~1\AppData\Local\Temp\ccLPYcmd.s:29034  .debug_str:00000000000238f1 .LASF4363
C:\Users\CYMR90~1\AppData\Local\Temp\ccLPYcmd.s:25453  .debug_str:0000000000015651 .LASF4364
C:\Users\CYMR90~1\AppData\Local\Temp\ccLPYcmd.s:30212  .debug_str:00000000000286e3 .LASF4365
C:\Users\CYMR90~1\AppData\Local\Temp\ccLPYcmd.s:23439  .debug_str:000000000000d991 .LASF4366
C:\Users\CYMR90~1\AppData\Local\Temp\ccLPYcmd.s:22147  .debug_str:00000000000085f1 .LASF4367
C:\Users\CYMR90~1\AppData\Local\Temp\ccLPYcmd.s:28110  .debug_str:0000000000020144 .LASF4368
C:\Users\CYMR90~1\AppData\Local\Temp\ccLPYcmd.s:30092  .debug_str:0000000000027e3b .LASF4369
C:\Users\CYMR90~1\AppData\Local\Temp\ccLPYcmd.s:22637  .debug_str:000000000000a410 .LASF4370
C:\Users\CYMR90~1\AppData\Local\Temp\ccLPYcmd.s:31136  .debug_str:000000000002bff2 .LASF4371
C:\Users\CYMR90~1\AppData\Local\Temp\ccLPYcmd.s:23425  .debug_str:000000000000d8da .LASF4372
C:\Users\CYMR90~1\AppData\Local\Temp\ccLPYcmd.s:21485  .debug_str:0000000000005b2d .LASF4373
C:\Users\CYMR90~1\AppData\Local\Temp\ccLPYcmd.s:24609  .debug_str:000000000001222f .LASF4374
C:\Users\CYMR90~1\AppData\Local\Temp\ccLPYcmd.s:25501  .debug_str:000000000001591f .LASF4375
C:\Users\CYMR90~1\AppData\Local\Temp\ccLPYcmd.s:22083  .debug_str:00000000000081c2 .LASF4376
C:\Users\CYMR90~1\AppData\Local\Temp\ccLPYcmd.s:25691  .debug_str:000000000001653c .LASF4377
C:\Users\CYMR90~1\AppData\Local\Temp\ccLPYcmd.s:22623  .debug_str:000000000000a320 .LASF4378
C:\Users\CYMR90~1\AppData\Local\Temp\ccLPYcmd.s:20733  .debug_str:0000000000002b2b .LASF4379
C:\Users\CYMR90~1\AppData\Local\Temp\ccLPYcmd.s:28084  .debug_str:000000000001ffce .LASF4380
C:\Users\CYMR90~1\AppData\Local\Temp\ccLPYcmd.s:22829  .debug_str:000000000000b1b7 .LASF4381
C:\Users\CYMR90~1\AppData\Local\Temp\ccLPYcmd.s:21417  .debug_str:0000000000005738 .LASF4382
C:\Users\CYMR90~1\AppData\Local\Temp\ccLPYcmd.s:22035  .debug_str:0000000000007d94 .LASF4383
C:\Users\CYMR90~1\AppData\Local\Temp\ccLPYcmd.s:30520  .debug_str:0000000000029ad8 .LASF4384
C:\Users\CYMR90~1\AppData\Local\Temp\ccLPYcmd.s:22007  .debug_str:0000000000007be6 .LASF4385
C:\Users\CYMR90~1\AppData\Local\Temp\ccLPYcmd.s:21583  .debug_str:00000000000060d3 .LASF4386
C:\Users\CYMR90~1\AppData\Local\Temp\ccLPYcmd.s:22369  .debug_str:000000000000934a .LASF4387
C:\Users\CYMR90~1\AppData\Local\Temp\ccLPYcmd.s:29112  .debug_str:0000000000023d70 .LASF4388
C:\Users\CYMR90~1\AppData\Local\Temp\ccLPYcmd.s:21193  .debug_str:000000000000492f .LASF4389
C:\Users\CYMR90~1\AppData\Local\Temp\ccLPYcmd.s:21779  .debug_str:0000000000006cc5 .LASF4390
C:\Users\CYMR90~1\AppData\Local\Temp\ccLPYcmd.s:31008  .debug_str:000000000002b7be .LASF4391
C:\Users\CYMR90~1\AppData\Local\Temp\ccLPYcmd.s:21361  .debug_str:00000000000053f8 .LASF4392
C:\Users\CYMR90~1\AppData\Local\Temp\ccLPYcmd.s:22645  .debug_str:000000000000a4c0 .LASF4393
C:\Users\CYMR90~1\AppData\Local\Temp\ccLPYcmd.s:21943  .debug_str:0000000000007791 .LASF4394
C:\Users\CYMR90~1\AppData\Local\Temp\ccLPYcmd.s:27338  .debug_str:000000000001d1c9 .LASF4395
C:\Users\CYMR90~1\AppData\Local\Temp\ccLPYcmd.s:29702  .debug_str:0000000000026549 .LASF4396
C:\Users\CYMR90~1\AppData\Local\Temp\ccLPYcmd.s:26674  .debug_str:000000000001a661 .LASF4397
C:\Users\CYMR90~1\AppData\Local\Temp\ccLPYcmd.s:23001  .debug_str:000000000000bcb0 .LASF4398
C:\Users\CYMR90~1\AppData\Local\Temp\ccLPYcmd.s:30466  .debug_str:0000000000029739 .LASF4399
C:\Users\CYMR90~1\AppData\Local\Temp\ccLPYcmd.s:22767  .debug_str:000000000000ad11 .LASF4400
C:\Users\CYMR90~1\AppData\Local\Temp\ccLPYcmd.s:24591  .debug_str:00000000000120da .LASF4401
C:\Users\CYMR90~1\AppData\Local\Temp\ccLPYcmd.s:29340  .debug_str:0000000000024ca9 .LASF4402
C:\Users\CYMR90~1\AppData\Local\Temp\ccLPYcmd.s:28522  .debug_str:0000000000021a87 .LASF4403
C:\Users\CYMR90~1\AppData\Local\Temp\ccLPYcmd.s:25844  .debug_str:000000000001710c .LASF4404
C:\Users\CYMR90~1\AppData\Local\Temp\ccLPYcmd.s:29826  .debug_str:0000000000026d1d .LASF4405
C:\Users\CYMR90~1\AppData\Local\Temp\ccLPYcmd.s:25976  .debug_str:00000000000178c8 .LASF4406
C:\Users\CYMR90~1\AppData\Local\Temp\ccLPYcmd.s:26758  .debug_str:000000000001abfb .LASF4407
C:\Users\CYMR90~1\AppData\Local\Temp\ccLPYcmd.s:29784  .debug_str:0000000000026a91 .LASF4408
C:\Users\CYMR90~1\AppData\Local\Temp\ccLPYcmd.s:29918  .debug_str:00000000000272bd .LASF4409
C:\Users\CYMR90~1\AppData\Local\Temp\ccLPYcmd.s:26902  .debug_str:000000000001b566 .LASF4410
C:\Users\CYMR90~1\AppData\Local\Temp\ccLPYcmd.s:28968  .debug_str:00000000000234f1 .LASF4411
C:\Users\CYMR90~1\AppData\Local\Temp\ccLPYcmd.s:21797  .debug_str:0000000000006e11 .LASF4412
C:\Users\CYMR90~1\AppData\Local\Temp\ccLPYcmd.s:25771  .debug_str:0000000000016b12 .LASF4413
C:\Users\CYMR90~1\AppData\Local\Temp\ccLPYcmd.s:29758  .debug_str:00000000000268a9 .LASF4414
C:\Users\CYMR90~1\AppData\Local\Temp\ccLPYcmd.s:21131  .debug_str:00000000000044f8 .LASF4415
C:\Users\CYMR90~1\AppData\Local\Temp\ccLPYcmd.s:26288  .debug_str:0000000000018c3c .LASF4416
C:\Users\CYMR90~1\AppData\Local\Temp\ccLPYcmd.s:24905  .debug_str:00000000000135cb .LASF4417
C:\Users\CYMR90~1\AppData\Local\Temp\ccLPYcmd.s:27040  .debug_str:000000000001bdc7 .LASF4418
C:\Users\CYMR90~1\AppData\Local\Temp\ccLPYcmd.s:26846  .debug_str:000000000001b213 .LASF4419
C:\Users\CYMR90~1\AppData\Local\Temp\ccLPYcmd.s:25279  .debug_str:0000000000014bfb .LASF4420
C:\Users\CYMR90~1\AppData\Local\Temp\ccLPYcmd.s:21133  .debug_str:000000000000451e .LASF4421
C:\Users\CYMR90~1\AppData\Local\Temp\ccLPYcmd.s:29726  .debug_str:00000000000266ab .LASF4422
C:\Users\CYMR90~1\AppData\Local\Temp\ccLPYcmd.s:24443  .debug_str:00000000000116e6 .LASF4423
C:\Users\CYMR90~1\AppData\Local\Temp\ccLPYcmd.s:28402  .debug_str:0000000000021293 .LASF4424
C:\Users\CYMR90~1\AppData\Local\Temp\ccLPYcmd.s:20949  .debug_str:00000000000038fe .LASF4425
C:\Users\CYMR90~1\AppData\Local\Temp\ccLPYcmd.s:26258  .debug_str:00000000000189a3 .LASF4426
C:\Users\CYMR90~1\AppData\Local\Temp\ccLPYcmd.s:28308  .debug_str:0000000000020d3e .LASF4427
C:\Users\CYMR90~1\AppData\Local\Temp\ccLPYcmd.s:27160  .debug_str:000000000001c4fb .LASF4428
C:\Users\CYMR90~1\AppData\Local\Temp\ccLPYcmd.s:26308  .debug_str:0000000000018d91 .LASF4429
C:\Users\CYMR90~1\AppData\Local\Temp\ccLPYcmd.s:27882  .debug_str:000000000001f36c .LASF4430
C:\Users\CYMR90~1\AppData\Local\Temp\ccLPYcmd.s:21129  .debug_str:00000000000044d2 .LASF4431
C:\Users\CYMR90~1\AppData\Local\Temp\ccLPYcmd.s:24391  .debug_str:000000000001138f .LASF4432
C:\Users\CYMR90~1\AppData\Local\Temp\ccLPYcmd.s:28332  .debug_str:0000000000020eb3 .LASF4433
C:\Users\CYMR90~1\AppData\Local\Temp\ccLPYcmd.s:26270  .debug_str:0000000000018a56 .LASF4434
C:\Users\CYMR90~1\AppData\Local\Temp\ccLPYcmd.s:24957  .debug_str:00000000000138d3 .LASF4435
C:\Users\CYMR90~1\AppData\Local\Temp\ccLPYcmd.s:28856  .debug_str:0000000000022eb4 .LASF4436
C:\Users\CYMR90~1\AppData\Local\Temp\ccLPYcmd.s:31418  .debug_str:000000000002d2eb .LASF4437
C:\Users\CYMR90~1\AppData\Local\Temp\ccLPYcmd.s:22743  .debug_str:000000000000ab67 .LASF4438
C:\Users\CYMR90~1\AppData\Local\Temp\ccLPYcmd.s:23421  .debug_str:000000000000d8a7 .LASF4439
C:\Users\CYMR90~1\AppData\Local\Temp\ccLPYcmd.s:28990  .debug_str:000000000002361e .LASF4440
C:\Users\CYMR90~1\AppData\Local\Temp\ccLPYcmd.s:27512  .debug_str:000000000001dc7e .LASF4441
C:\Users\CYMR90~1\AppData\Local\Temp\ccLPYcmd.s:20119  .debug_str:0000000000000537 .LASF4442
C:\Users\CYMR90~1\AppData\Local\Temp\ccLPYcmd.s:21185  .debug_str:0000000000004895 .LASF4443
C:\Users\CYMR90~1\AppData\Local\Temp\ccLPYcmd.s:23599  .debug_str:000000000000e31e .LASF4444
C:\Users\CYMR90~1\AppData\Local\Temp\ccLPYcmd.s:21749  .debug_str:0000000000006b1e .LASF4445
C:\Users\CYMR90~1\AppData\Local\Temp\ccLPYcmd.s:24981  .debug_str:0000000000013a3d .LASF4446
C:\Users\CYMR90~1\AppData\Local\Temp\ccLPYcmd.s:24607  .debug_str:0000000000012208 .LASF4447
C:\Users\CYMR90~1\AppData\Local\Temp\ccLPYcmd.s:20811  .debug_str:000000000000300d .LASF4448
C:\Users\CYMR90~1\AppData\Local\Temp\ccLPYcmd.s:21383  .debug_str:0000000000005530 .LASF4449
C:\Users\CYMR90~1\AppData\Local\Temp\ccLPYcmd.s:20905  .debug_str:000000000000362b .LASF4450
C:\Users\CYMR90~1\AppData\Local\Temp\ccLPYcmd.s:20077  .debug_str:00000000000002b1 .LASF4451
C:\Users\CYMR90~1\AppData\Local\Temp\ccLPYcmd.s:22363  .debug_str:00000000000092ea .LASF4452
C:\Users\CYMR90~1\AppData\Local\Temp\ccLPYcmd.s:25745  .debug_str:00000000000168f6 .LASF4453
C:\Users\CYMR90~1\AppData\Local\Temp\ccLPYcmd.s:20801  .debug_str:0000000000002f82 .LASF4454
C:\Users\CYMR90~1\AppData\Local\Temp\ccLPYcmd.s:29846  .debug_str:0000000000026e42 .LASF4455
C:\Users\CYMR90~1\AppData\Local\Temp\ccLPYcmd.s:25611  .debug_str:000000000001603e .LASF4456
C:\Users\CYMR90~1\AppData\Local\Temp\ccLPYcmd.s:26282  .debug_str:0000000000018baf .LASF4457
C:\Users\CYMR90~1\AppData\Local\Temp\ccLPYcmd.s:29002  .debug_str:00000000000236ee .LASF4458
C:\Users\CYMR90~1\AppData\Local\Temp\ccLPYcmd.s:27272  .debug_str:000000000001cc82 .LASF4459
C:\Users\CYMR90~1\AppData\Local\Temp\ccLPYcmd.s:24811  .debug_str:0000000000012f47 .LASF4460
C:\Users\CYMR90~1\AppData\Local\Temp\ccLPYcmd.s:21963  .debug_str:00000000000078ee .LASF4461
C:\Users\CYMR90~1\AppData\Local\Temp\ccLPYcmd.s:30750  .debug_str:000000000002a83a .LASF4462
C:\Users\CYMR90~1\AppData\Local\Temp\ccLPYcmd.s:27406  .debug_str:000000000001d5ef .LASF4463
C:\Users\CYMR90~1\AppData\Local\Temp\ccLPYcmd.s:29608  .debug_str:0000000000025f5f .LASF4464
C:\Users\CYMR90~1\AppData\Local\Temp\ccLPYcmd.s:24337  .debug_str:0000000000011072 .LASF4465
C:\Users\CYMR90~1\AppData\Local\Temp\ccLPYcmd.s:27566  .debug_str:000000000001e067 .LASF4466
C:\Users\CYMR90~1\AppData\Local\Temp\ccLPYcmd.s:22531  .debug_str:0000000000009d7b .LASF4467
C:\Users\CYMR90~1\AppData\Local\Temp\ccLPYcmd.s:26808  .debug_str:000000000001af83 .LASF4468
C:\Users\CYMR90~1\AppData\Local\Temp\ccLPYcmd.s:27404  .debug_str:000000000001d5ca .LASF4469
C:\Users\CYMR90~1\AppData\Local\Temp\ccLPYcmd.s:22923  .debug_str:000000000000b7b2 .LASF4470
C:\Users\CYMR90~1\AppData\Local\Temp\ccLPYcmd.s:25954  .debug_str:0000000000017747 .LASF4471
C:\Users\CYMR90~1\AppData\Local\Temp\ccLPYcmd.s:27106  .debug_str:000000000001c210 .LASF4472
C:\Users\CYMR90~1\AppData\Local\Temp\ccLPYcmd.s:24745  .debug_str:0000000000012b13 .LASF4473
C:\Users\CYMR90~1\AppData\Local\Temp\ccLPYcmd.s:28290  .debug_str:0000000000020c14 .LASF4474
C:\Users\CYMR90~1\AppData\Local\Temp\ccLPYcmd.s:22855  .debug_str:000000000000b328 .LASF4475
C:\Users\CYMR90~1\AppData\Local\Temp\ccLPYcmd.s:26780  .debug_str:000000000001ad48 .LASF4476
C:\Users\CYMR90~1\AppData\Local\Temp\ccLPYcmd.s:25451  .debug_str:000000000001562c .LASF4477
C:\Users\CYMR90~1\AppData\Local\Temp\ccLPYcmd.s:24793  .debug_str:0000000000012e24 .LASF4478
C:\Users\CYMR90~1\AppData\Local\Temp\ccLPYcmd.s:31134  .debug_str:000000000002bfdb .LASF4479
C:\Users\CYMR90~1\AppData\Local\Temp\ccLPYcmd.s:26408  .debug_str:0000000000019457 .LASF4480
C:\Users\CYMR90~1\AppData\Local\Temp\ccLPYcmd.s:25952  .debug_str:000000000001772f .LASF4481
C:\Users\CYMR90~1\AppData\Local\Temp\ccLPYcmd.s:27430  .debug_str:000000000001d792 .LASF4482
C:\Users\CYMR90~1\AppData\Local\Temp\ccLPYcmd.s:29120  .debug_str:0000000000023de0 .LASF4483
C:\Users\CYMR90~1\AppData\Local\Temp\ccLPYcmd.s:21415  .debug_str:000000000000571f .LASF4484
C:\Users\CYMR90~1\AppData\Local\Temp\ccLPYcmd.s:20373  .debug_str:00000000000014dc .LASF4485
C:\Users\CYMR90~1\AppData\Local\Temp\ccLPYcmd.s:27750  .debug_str:000000000001eb71 .LASF4486
C:\Users\CYMR90~1\AppData\Local\Temp\ccLPYcmd.s:28480  .debug_str:00000000000217d8 .LASF4487
C:\Users\CYMR90~1\AppData\Local\Temp\ccLPYcmd.s:30694  .debug_str:000000000002a4cf .LASF4488
C:\Users\CYMR90~1\AppData\Local\Temp\ccLPYcmd.s:24461  .debug_str:00000000000117f0 .LASF4489
C:\Users\CYMR90~1\AppData\Local\Temp\ccLPYcmd.s:30342  .debug_str:0000000000028f49 .LASF4490
C:\Users\CYMR90~1\AppData\Local\Temp\ccLPYcmd.s:25237  .debug_str:00000000000149c3 .LASF4491
C:\Users\CYMR90~1\AppData\Local\Temp\ccLPYcmd.s:22817  .debug_str:000000000000b104 .LASF4492
C:\Users\CYMR90~1\AppData\Local\Temp\ccLPYcmd.s:28250  .debug_str:00000000000209df .LASF4493
C:\Users\CYMR90~1\AppData\Local\Temp\ccLPYcmd.s:28090  .debug_str:0000000000020029 .LASF4494
C:\Users\CYMR90~1\AppData\Local\Temp\ccLPYcmd.s:25866  .debug_str:0000000000017261 .LASF4495
C:\Users\CYMR90~1\AppData\Local\Temp\ccLPYcmd.s:29082  .debug_str:0000000000023bee .LASF4496
C:\Users\CYMR90~1\AppData\Local\Temp\ccLPYcmd.s:29916  .debug_str:00000000000272ab .LASF4497
C:\Users\CYMR90~1\AppData\Local\Temp\ccLPYcmd.s:21909  .debug_str:0000000000007577 .LASF4498
C:\Users\CYMR90~1\AppData\Local\Temp\ccLPYcmd.s:27656  .debug_str:000000000001e599 .LASF4499
C:\Users\CYMR90~1\AppData\Local\Temp\ccLPYcmd.s:23241  .debug_str:000000000000ccd7 .LASF4500
C:\Users\CYMR90~1\AppData\Local\Temp\ccLPYcmd.s:25047  .debug_str:0000000000013e18 .LASF4501
C:\Users\CYMR90~1\AppData\Local\Temp\ccLPYcmd.s:27480  .debug_str:000000000001daa2 .LASF4502
C:\Users\CYMR90~1\AppData\Local\Temp\ccLPYcmd.s:24819  .debug_str:0000000000012fce .LASF4503
C:\Users\CYMR90~1\AppData\Local\Temp\ccLPYcmd.s:28322  .debug_str:0000000000020e33 .LASF4504
C:\Users\CYMR90~1\AppData\Local\Temp\ccLPYcmd.s:23789  .debug_str:000000000000ee8f .LASF4505
C:\Users\CYMR90~1\AppData\Local\Temp\ccLPYcmd.s:27428  .debug_str:000000000001d77d .LASF4506
C:\Users\CYMR90~1\AppData\Local\Temp\ccLPYcmd.s:21191  .debug_str:000000000000491b .LASF4507
C:\Users\CYMR90~1\AppData\Local\Temp\ccLPYcmd.s:28510  .debug_str:00000000000219e5 .LASF4508
C:\Users\CYMR90~1\AppData\Local\Temp\ccLPYcmd.s:27146  .debug_str:000000000001c464 .LASF4509
C:\Users\CYMR90~1\AppData\Local\Temp\ccLPYcmd.s:22167  .debug_str:0000000000008706 .LASF4510
C:\Users\CYMR90~1\AppData\Local\Temp\ccLPYcmd.s:26878  .debug_str:000000000001b3f0 .LASF4511
C:\Users\CYMR90~1\AppData\Local\Temp\ccLPYcmd.s:22019  .debug_str:0000000000007c9c .LASF4512
C:\Users\CYMR90~1\AppData\Local\Temp\ccLPYcmd.s:20133  .debug_str:0000000000000611 .LASF4513
C:\Users\CYMR90~1\AppData\Local\Temp\ccLPYcmd.s:29332  .debug_str:0000000000024c40 .LASF4514
C:\Users\CYMR90~1\AppData\Local\Temp\ccLPYcmd.s:26188  .debug_str:0000000000018542 .LASF4515
C:\Users\CYMR90~1\AppData\Local\Temp\ccLPYcmd.s:23891  .debug_str:000000000000f49d .LASF4516
C:\Users\CYMR90~1\AppData\Local\Temp\ccLPYcmd.s:28928  .debug_str:00000000000232a8 .LASF4517
C:\Users\CYMR90~1\AppData\Local\Temp\ccLPYcmd.s:30642  .debug_str:000000000002a1c9 .LASF4518
C:\Users\CYMR90~1\AppData\Local\Temp\ccLPYcmd.s:23089  .debug_str:000000000000c2f9 .LASF4519
C:\Users\CYMR90~1\AppData\Local\Temp\ccLPYcmd.s:21605  .debug_str:000000000000626a .LASF4520
C:\Users\CYMR90~1\AppData\Local\Temp\ccLPYcmd.s:21241  .debug_str:0000000000004cb5 .LASF4521
C:\Users\CYMR90~1\AppData\Local\Temp\ccLPYcmd.s:26956  .debug_str:000000000001b8e2 .LASF4522
C:\Users\CYMR90~1\AppData\Local\Temp\ccLPYcmd.s:23493  .debug_str:000000000000dca2 .LASF4523
C:\Users\CYMR90~1\AppData\Local\Temp\ccLPYcmd.s:24897  .debug_str:0000000000013535 .LASF4524
C:\Users\CYMR90~1\AppData\Local\Temp\ccLPYcmd.s:22233  .debug_str:0000000000008b37 .LASF4525
C:\Users\CYMR90~1\AppData\Local\Temp\ccLPYcmd.s:25459  .debug_str:00000000000156a2 .LASF4526
C:\Users\CYMR90~1\AppData\Local\Temp\ccLPYcmd.s:29468  .debug_str:00000000000255d4 .LASF4527
C:\Users\CYMR90~1\AppData\Local\Temp\ccLPYcmd.s:20663  .debug_str:0000000000002659 .LASF4528
C:\Users\CYMR90~1\AppData\Local\Temp\ccLPYcmd.s:23833  .debug_str:000000000000f0ed .LASF4529
C:\Users\CYMR90~1\AppData\Local\Temp\ccLPYcmd.s:20277  .debug_str:0000000000000eaf .LASF4530
C:\Users\CYMR90~1\AppData\Local\Temp\ccLPYcmd.s:24289  .debug_str:0000000000010de0 .LASF4531
C:\Users\CYMR90~1\AppData\Local\Temp\ccLPYcmd.s:22969  .debug_str:000000000000ba9b .LASF4532
C:\Users\CYMR90~1\AppData\Local\Temp\ccLPYcmd.s:28012  .debug_str:000000000001fb2b .LASF4533
C:\Users\CYMR90~1\AppData\Local\Temp\ccLPYcmd.s:26976  .debug_str:000000000001b9eb .LASF4534
C:\Users\CYMR90~1\AppData\Local\Temp\ccLPYcmd.s:24709  .debug_str:00000000000128a7 .LASF4535
C:\Users\CYMR90~1\AppData\Local\Temp\ccLPYcmd.s:20657  .debug_str:000000000000260c .LASF4536
C:\Users\CYMR90~1\AppData\Local\Temp\ccLPYcmd.s:27378  .debug_str:000000000001d423 .LASF4537
C:\Users\CYMR90~1\AppData\Local\Temp\ccLPYcmd.s:23215  .debug_str:000000000000cb37 .LASF4538
C:\Users\CYMR90~1\AppData\Local\Temp\ccLPYcmd.s:30808  .debug_str:000000000002abe0 .LASF4539
C:\Users\CYMR90~1\AppData\Local\Temp\ccLPYcmd.s:26642  .debug_str:000000000001a4b7 .LASF4540
C:\Users\CYMR90~1\AppData\Local\Temp\ccLPYcmd.s:28896  .debug_str:00000000000230f7 .LASF4541
C:\Users\CYMR90~1\AppData\Local\Temp\ccLPYcmd.s:30474  .debug_str:00000000000297c0 .LASF4542
C:\Users\CYMR90~1\AppData\Local\Temp\ccLPYcmd.s:25709  .debug_str:0000000000016653 .LASF4543
C:\Users\CYMR90~1\AppData\Local\Temp\ccLPYcmd.s:26378  .debug_str:0000000000019287 .LASF4544
C:\Users\CYMR90~1\AppData\Local\Temp\ccLPYcmd.s:21413  .debug_str:0000000000005706 .LASF4545
C:\Users\CYMR90~1\AppData\Local\Temp\ccLPYcmd.s:25125  .debug_str:0000000000014313 .LASF4546
C:\Users\CYMR90~1\AppData\Local\Temp\ccLPYcmd.s:22347  .debug_str:00000000000091d8 .LASF4547
C:\Users\CYMR90~1\AppData\Local\Temp\ccLPYcmd.s:27282  .debug_str:000000000001cd31 .LASF4548
C:\Users\CYMR90~1\AppData\Local\Temp\ccLPYcmd.s:28604  .debug_str:0000000000021f8f .LASF4549
C:\Users\CYMR90~1\AppData\Local\Temp\ccLPYcmd.s:23451  .debug_str:000000000000da4f .LASF4550
C:\Users\CYMR90~1\AppData\Local\Temp\ccLPYcmd.s:30978  .debug_str:000000000002b5d7 .LASF4551
C:\Users\CYMR90~1\AppData\Local\Temp\ccLPYcmd.s:22989  .debug_str:000000000000bc03 .LASF4552
C:\Users\CYMR90~1\AppData\Local\Temp\ccLPYcmd.s:28200  .debug_str:0000000000020712 .LASF4553
C:\Users\CYMR90~1\AppData\Local\Temp\ccLPYcmd.s:25565  .debug_str:0000000000015d0c .LASF4554
C:\Users\CYMR90~1\AppData\Local\Temp\ccLPYcmd.s:29068  .debug_str:0000000000023b03 .LASF4555
C:\Users\CYMR90~1\AppData\Local\Temp\ccLPYcmd.s:30948  .debug_str:000000000002b3dd .LASF4556
C:\Users\CYMR90~1\AppData\Local\Temp\ccLPYcmd.s:28398  .debug_str:0000000000021250 .LASF4557
C:\Users\CYMR90~1\AppData\Local\Temp\ccLPYcmd.s:28750  .debug_str:00000000000227e0 .LASF4558
C:\Users\CYMR90~1\AppData\Local\Temp\ccLPYcmd.s:25697  .debug_str:00000000000165a6 .LASF4559
C:\Users\CYMR90~1\AppData\Local\Temp\ccLPYcmd.s:22215  .debug_str:0000000000008a09 .LASF4560
C:\Users\CYMR90~1\AppData\Local\Temp\ccLPYcmd.s:29504  .debug_str:000000000002589a .LASF4561
C:\Users\CYMR90~1\AppData\Local\Temp\ccLPYcmd.s:26694  .debug_str:000000000001a82d .LASF4562
C:\Users\CYMR90~1\AppData\Local\Temp\ccLPYcmd.s:20273  .debug_str:0000000000000e71 .LASF4563
C:\Users\CYMR90~1\AppData\Local\Temp\ccLPYcmd.s:28724  .debug_str:000000000002265e .LASF4564
C:\Users\CYMR90~1\AppData\Local\Temp\ccLPYcmd.s:30458  .debug_str:00000000000296cc .LASF4565
C:\Users\CYMR90~1\AppData\Local\Temp\ccLPYcmd.s:20741  .debug_str:0000000000002b9c .LASF4566
C:\Users\CYMR90~1\AppData\Local\Temp\ccLPYcmd.s:23767  .debug_str:000000000000ed71 .LASF4567
C:\Users\CYMR90~1\AppData\Local\Temp\ccLPYcmd.s:27728  .debug_str:000000000001ea2d .LASF4568
C:\Users\CYMR90~1\AppData\Local\Temp\ccLPYcmd.s:23247  .debug_str:000000000000cd39 .LASF4569
C:\Users\CYMR90~1\AppData\Local\Temp\ccLPYcmd.s:25025  .debug_str:0000000000013cec .LASF4570
C:\Users\CYMR90~1\AppData\Local\Temp\ccLPYcmd.s:29418  .debug_str:0000000000025196 .LASF4571
C:\Users\CYMR90~1\AppData\Local\Temp\ccLPYcmd.s:30422  .debug_str:000000000002942b .LASF4572
C:\Users\CYMR90~1\AppData\Local\Temp\ccLPYcmd.s:25031  .debug_str:0000000000013d30 .LASF4573
C:\Users\CYMR90~1\AppData\Local\Temp\ccLPYcmd.s:21535  .debug_str:0000000000005e36 .LASF4574
C:\Users\CYMR90~1\AppData\Local\Temp\ccLPYcmd.s:21121  .debug_str:000000000000443e .LASF4575
C:\Users\CYMR90~1\AppData\Local\Temp\ccLPYcmd.s:28518  .debug_str:0000000000021a55 .LASF4576
C:\Users\CYMR90~1\AppData\Local\Temp\ccLPYcmd.s:28028  .debug_str:000000000001fc29 .LASF4577
C:\Users\CYMR90~1\AppData\Local\Temp\ccLPYcmd.s:21215  .debug_str:0000000000004b20 .LASF4578
C:\Users\CYMR90~1\AppData\Local\Temp\ccLPYcmd.s:28302  .debug_str:0000000000020ce4 .LASF4579
C:\Users\CYMR90~1\AppData\Local\Temp\ccLPYcmd.s:29734  .debug_str:0000000000026743 .LASF4580
C:\Users\CYMR90~1\AppData\Local\Temp\ccLPYcmd.s:30934  .debug_str:000000000002b31b .LASF4581
C:\Users\CYMR90~1\AppData\Local\Temp\ccLPYcmd.s:29652  .debug_str:000000000002626b .LASF4582
C:\Users\CYMR90~1\AppData\Local\Temp\ccLPYcmd.s:23135  .debug_str:000000000000c578 .LASF4583
C:\Users\CYMR90~1\AppData\Local\Temp\ccLPYcmd.s:27620  .debug_str:000000000001e380 .LASF4584
C:\Users\CYMR90~1\AppData\Local\Temp\ccLPYcmd.s:23177  .debug_str:000000000000c826 .LASF4585
C:\Users\CYMR90~1\AppData\Local\Temp\ccLPYcmd.s:27340  .debug_str:000000000001d1ef .LASF4586
C:\Users\CYMR90~1\AppData\Local\Temp\ccLPYcmd.s:31284  .debug_str:000000000002ca24 .LASF4587
C:\Users\CYMR90~1\AppData\Local\Temp\ccLPYcmd.s:30630  .debug_str:000000000002a125 .LASF4588
C:\Users\CYMR90~1\AppData\Local\Temp\ccLPYcmd.s:28236  .debug_str:0000000000020929 .LASF4589
C:\Users\CYMR90~1\AppData\Local\Temp\ccLPYcmd.s:21101  .debug_str:000000000000433c .LASF4590
C:\Users\CYMR90~1\AppData\Local\Temp\ccLPYcmd.s:29822  .debug_str:0000000000026cd5 .LASF4591
C:\Users\CYMR90~1\AppData\Local\Temp\ccLPYcmd.s:27164  .debug_str:000000000001c544 .LASF4592
C:\Users\CYMR90~1\AppData\Local\Temp\ccLPYcmd.s:29794  .debug_str:0000000000026b27 .LASF4593
C:\Users\CYMR90~1\AppData\Local\Temp\ccLPYcmd.s:25059  .debug_str:0000000000013ed4 .LASF4594
C:\Users\CYMR90~1\AppData\Local\Temp\ccLPYcmd.s:23963  .debug_str:000000000000f993 .LASF4595
C:\Users\CYMR90~1\AppData\Local\Temp\ccLPYcmd.s:27722  .debug_str:000000000001e9d2 .LASF4596
C:\Users\CYMR90~1\AppData\Local\Temp\ccLPYcmd.s:21469  .debug_str:0000000000005a61 .LASF4597
C:\Users\CYMR90~1\AppData\Local\Temp\ccLPYcmd.s:28948  .debug_str:00000000000233b9 .LASF4598
C:\Users\CYMR90~1\AppData\Local\Temp\ccLPYcmd.s:26310  .debug_str:0000000000018db7 .LASF4599
C:\Users\CYMR90~1\AppData\Local\Temp\ccLPYcmd.s:20625  .debug_str:0000000000002411 .LASF4600
C:\Users\CYMR90~1\AppData\Local\Temp\ccLPYcmd.s:20835  .debug_str:0000000000003173 .LASF4601
C:\Users\CYMR90~1\AppData\Local\Temp\ccLPYcmd.s:29616  .debug_str:000000000002601b .LASF4602
C:\Users\CYMR90~1\AppData\Local\Temp\ccLPYcmd.s:25467  .debug_str:000000000001570e .LASF4603
C:\Users\CYMR90~1\AppData\Local\Temp\ccLPYcmd.s:31426  .debug_str:000000000002d3a3 .LASF4604
C:\Users\CYMR90~1\AppData\Local\Temp\ccLPYcmd.s:22337  .debug_str:000000000000915a .LASF4605
C:\Users\CYMR90~1\AppData\Local\Temp\ccLPYcmd.s:30218  .debug_str:000000000002874f .LASF4606
C:\Users\CYMR90~1\AppData\Local\Temp\ccLPYcmd.s:31424  .debug_str:000000000002d36a .LASF4607
C:\Users\CYMR90~1\AppData\Local\Temp\ccLPYcmd.s:27548  .debug_str:000000000001df36 .LASF4608
C:\Users\CYMR90~1\AppData\Local\Temp\ccLPYcmd.s:21787  .debug_str:0000000000006d5a .LASF4609
C:\Users\CYMR90~1\AppData\Local\Temp\ccLPYcmd.s:21255  .debug_str:0000000000004d8e .LASF4610
C:\Users\CYMR90~1\AppData\Local\Temp\ccLPYcmd.s:25820  .debug_str:0000000000016fa8 .LASF4611
C:\Users\CYMR90~1\AppData\Local\Temp\ccLPYcmd.s:31080  .debug_str:000000000002bc98 .LASF4612
C:\Users\CYMR90~1\AppData\Local\Temp\ccLPYcmd.s:24843  .debug_str:0000000000013164 .LASF4613
C:\Users\CYMR90~1\AppData\Local\Temp\ccLPYcmd.s:30696  .debug_str:000000000002a4e8 .LASF4614
C:\Users\CYMR90~1\AppData\Local\Temp\ccLPYcmd.s:29766  .debug_str:000000000002694a .LASF4615
C:\Users\CYMR90~1\AppData\Local\Temp\ccLPYcmd.s:29984  .debug_str:0000000000027791 .LASF4616
C:\Users\CYMR90~1\AppData\Local\Temp\ccLPYcmd.s:30518  .debug_str:0000000000029a9d .LASF4617
C:\Users\CYMR90~1\AppData\Local\Temp\ccLPYcmd.s:27068  .debug_str:000000000001bfb7 .LASF4618
C:\Users\CYMR90~1\AppData\Local\Temp\ccLPYcmd.s:26526  .debug_str:0000000000019c47 .LASF4619
C:\Users\CYMR90~1\AppData\Local\Temp\ccLPYcmd.s:22081  .debug_str:00000000000081a9 .LASF4620
C:\Users\CYMR90~1\AppData\Local\Temp\ccLPYcmd.s:27250  .debug_str:000000000001cb26 .LASF4621
C:\Users\CYMR90~1\AppData\Local\Temp\ccLPYcmd.s:26828  .debug_str:000000000001b0c1 .LASF4622
C:\Users\CYMR90~1\AppData\Local\Temp\ccLPYcmd.s:28794  .debug_str:0000000000022aa7 .LASF4623
C:\Users\CYMR90~1\AppData\Local\Temp\ccLPYcmd.s:29720  .debug_str:0000000000026652 .LASF4624
C:\Users\CYMR90~1\AppData\Local\Temp\ccLPYcmd.s:20535  .debug_str:0000000000001f0d .LASF4625
C:\Users\CYMR90~1\AppData\Local\Temp\ccLPYcmd.s:25643  .debug_str:000000000001620e .LASF4626
C:\Users\CYMR90~1\AppData\Local\Temp\ccLPYcmd.s:20847  .debug_str:000000000000326e .LASF4627
C:\Users\CYMR90~1\AppData\Local\Temp\ccLPYcmd.s:23057  .debug_str:000000000000c114 .LASF4628
C:\Users\CYMR90~1\AppData\Local\Temp\ccLPYcmd.s:27732  .debug_str:000000000001ea5f .LASF4629
C:\Users\CYMR90~1\AppData\Local\Temp\ccLPYcmd.s:20331  .debug_str:0000000000001259 .LASF4630
C:\Users\CYMR90~1\AppData\Local\Temp\ccLPYcmd.s:29448  .debug_str:00000000000253ca .LASF4631
C:\Users\CYMR90~1\AppData\Local\Temp\ccLPYcmd.s:22189  .debug_str:000000000000882f .LASF4632
C:\Users\CYMR90~1\AppData\Local\Temp\ccLPYcmd.s:27350  .debug_str:000000000001d295 .LASF4633
C:\Users\CYMR90~1\AppData\Local\Temp\ccLPYcmd.s:27368  .debug_str:000000000001d38c .LASF4634
C:\Users\CYMR90~1\AppData\Local\Temp\ccLPYcmd.s:28342  .debug_str:0000000000020f3f .LASF4635
C:\Users\CYMR90~1\AppData\Local\Temp\ccLPYcmd.s:26770  .debug_str:000000000001acb4 .LASF4636
C:\Users\CYMR90~1\AppData\Local\Temp\ccLPYcmd.s:21505  .debug_str:0000000000005cac .LASF4637
C:\Users\CYMR90~1\AppData\Local\Temp\ccLPYcmd.s:30178  .debug_str:0000000000028455 .LASF4638
C:\Users\CYMR90~1\AppData\Local\Temp\ccLPYcmd.s:29076  .debug_str:0000000000023b9d .LASF4639
C:\Users\CYMR90~1\AppData\Local\Temp\ccLPYcmd.s:25361  .debug_str:0000000000015123 .LASF4640
C:\Users\CYMR90~1\AppData\Local\Temp\ccLPYcmd.s:27482  .debug_str:000000000001dab7 .LASF4641
C:\Users\CYMR90~1\AppData\Local\Temp\ccLPYcmd.s:20807  .debug_str:0000000000002fd1 .LASF4642
C:\Users\CYMR90~1\AppData\Local\Temp\ccLPYcmd.s:20063  .debug_str:0000000000000204 .LASF4643
C:\Users\CYMR90~1\AppData\Local\Temp\ccLPYcmd.s:26478  .debug_str:0000000000019927 .LASF4644
C:\Users\CYMR90~1\AppData\Local\Temp\ccLPYcmd.s:24237  .debug_str:00000000000109fe .LASF4645
C:\Users\CYMR90~1\AppData\Local\Temp\ccLPYcmd.s:21119  .debug_str:0000000000004426 .LASF4646
C:\Users\CYMR90~1\AppData\Local\Temp\ccLPYcmd.s:23159  .debug_str:000000000000c6fa .LASF4647
C:\Users\CYMR90~1\AppData\Local\Temp\ccLPYcmd.s:23075  .debug_str:000000000000c1f9 .LASF4648
C:\Users\CYMR90~1\AppData\Local\Temp\ccLPYcmd.s:20089  .debug_str:0000000000000389 .LASF4649
C:\Users\CYMR90~1\AppData\Local\Temp\ccLPYcmd.s:20141  .debug_str:000000000000065f .LASF4650
C:\Users\CYMR90~1\AppData\Local\Temp\ccLPYcmd.s:30440  .debug_str:0000000000029540 .LASF4651
C:\Users\CYMR90~1\AppData\Local\Temp\ccLPYcmd.s:21151  .debug_str:0000000000004647 .LASF4652
C:\Users\CYMR90~1\AppData\Local\Temp\ccLPYcmd.s:22807  .debug_str:000000000000afb5 .LASF4653
C:\Users\CYMR90~1\AppData\Local\Temp\ccLPYcmd.s:20111  .debug_str:00000000000004d6 .LASF4654
C:\Users\CYMR90~1\AppData\Local\Temp\ccLPYcmd.s:27708  .debug_str:000000000001e8eb .LASF4655
C:\Users\CYMR90~1\AppData\Local\Temp\ccLPYcmd.s:25830  .debug_str:0000000000017058 .LASF4656
C:\Users\CYMR90~1\AppData\Local\Temp\ccLPYcmd.s:20675  .debug_str:0000000000002735 .LASF4657
C:\Users\CYMR90~1\AppData\Local\Temp\ccLPYcmd.s:29886  .debug_str:00000000000270c5 .LASF4658
C:\Users\CYMR90~1\AppData\Local\Temp\ccLPYcmd.s:31238  .debug_str:000000000002c73b .LASF4659
C:\Users\CYMR90~1\AppData\Local\Temp\ccLPYcmd.s:28164  .debug_str:000000000002041e .LASF4660
C:\Users\CYMR90~1\AppData\Local\Temp\ccLPYcmd.s:23155  .debug_str:000000000000c6b0 .LASF4661
C:\Users\CYMR90~1\AppData\Local\Temp\ccLPYcmd.s:28802  .debug_str:0000000000022b16 .LASF4662
C:\Users\CYMR90~1\AppData\Local\Temp\ccLPYcmd.s:23053  .debug_str:000000000000c0b0 .LASF4663
C:\Users\CYMR90~1\AppData\Local\Temp\ccLPYcmd.s:28792  .debug_str:0000000000022a89 .LASF4664
C:\Users\CYMR90~1\AppData\Local\Temp\ccLPYcmd.s:30334  .debug_str:0000000000028ec8 .LASF4665
C:\Users\CYMR90~1\AppData\Local\Temp\ccLPYcmd.s:21549  .debug_str:0000000000005eef .LASF4666
C:\Users\CYMR90~1\AppData\Local\Temp\ccLPYcmd.s:24355  .debug_str:0000000000011184 .LASF4667
C:\Users\CYMR90~1\AppData\Local\Temp\ccLPYcmd.s:23537  .debug_str:000000000000df43 .LASF4668
C:\Users\CYMR90~1\AppData\Local\Temp\ccLPYcmd.s:21205  .debug_str:0000000000004a86 .LASF4669
C:\Users\CYMR90~1\AppData\Local\Temp\ccLPYcmd.s:22481  .debug_str:0000000000009a64 .LASF4670
C:\Users\CYMR90~1\AppData\Local\Temp\ccLPYcmd.s:25021  .debug_str:0000000000013c8c .LASF4671
C:\Users\CYMR90~1\AppData\Local\Temp\ccLPYcmd.s:21021  .debug_str:0000000000003d75 .LASF4672
C:\Users\CYMR90~1\AppData\Local\Temp\ccLPYcmd.s:21781  .debug_str:0000000000006ceb .LASF4673
C:\Users\CYMR90~1\AppData\Local\Temp\ccLPYcmd.s:20035  .debug_str:000000000000002e .LASF4674
C:\Users\CYMR90~1\AppData\Local\Temp\ccLPYcmd.s:24339  .debug_str:0000000000011096 .LASF4675
C:\Users\CYMR90~1\AppData\Local\Temp\ccLPYcmd.s:26728  .debug_str:000000000001aa1e .LASF4676
C:\Users\CYMR90~1\AppData\Local\Temp\ccLPYcmd.s:25773  .debug_str:0000000000016b38 .LASF4677
C:\Users\CYMR90~1\AppData\Local\Temp\ccLPYcmd.s:31178  .debug_str:000000000002c334 .LASF4678
C:\Users\CYMR90~1\AppData\Local\Temp\ccLPYcmd.s:29218  .debug_str:00000000000244a0 .LASF4679
C:\Users\CYMR90~1\AppData\Local\Temp\ccLPYcmd.s:23635  .debug_str:000000000000e53b .LASF4680
C:\Users\CYMR90~1\AppData\Local\Temp\ccLPYcmd.s:27828  .debug_str:000000000001f011 .LASF4681
C:\Users\CYMR90~1\AppData\Local\Temp\ccLPYcmd.s:25293  .debug_str:0000000000014ce2 .LASF4682
C:\Users\CYMR90~1\AppData\Local\Temp\ccLPYcmd.s:30508  .debug_str:0000000000029a02 .LASF4683
C:\Users\CYMR90~1\AppData\Local\Temp\ccLPYcmd.s:26334  .debug_str:0000000000018ee5 .LASF4684
C:\Users\CYMR90~1\AppData\Local\Temp\ccLPYcmd.s:29614  .debug_str:0000000000025fc2 .LASF4685
C:\Users\CYMR90~1\AppData\Local\Temp\ccLPYcmd.s:20669  .debug_str:000000000000269f .LASF4686
C:\Users\CYMR90~1\AppData\Local\Temp\ccLPYcmd.s:27810  .debug_str:000000000001eecd .LASF4687
C:\Users\CYMR90~1\AppData\Local\Temp\ccLPYcmd.s:22657  .debug_str:000000000000a579 .LASF4688
C:\Users\CYMR90~1\AppData\Local\Temp\ccLPYcmd.s:20173  .debug_str:0000000000000866 .LASF4689
C:\Users\CYMR90~1\AppData\Local\Temp\ccLPYcmd.s:26744  .debug_str:000000000001ab1d .LASF4690
C:\Users\CYMR90~1\AppData\Local\Temp\ccLPYcmd.s:30098  .debug_str:0000000000027ea7 .LASF4691
C:\Users\CYMR90~1\AppData\Local\Temp\ccLPYcmd.s:25435  .debug_str:000000000001552e .LASF4692
C:\Users\CYMR90~1\AppData\Local\Temp\ccLPYcmd.s:26398  .debug_str:000000000001938a .LASF4693
C:\Users\CYMR90~1\AppData\Local\Temp\ccLPYcmd.s:23045  .debug_str:000000000000c028 .LASF4694
C:\Users\CYMR90~1\AppData\Local\Temp\ccLPYcmd.s:26456  .debug_str:000000000001975c .LASF4695
C:\Users\CYMR90~1\AppData\Local\Temp\ccLPYcmd.s:28400  .debug_str:0000000000021268 .LASF4696
C:\Users\CYMR90~1\AppData\Local\Temp\ccLPYcmd.s:26480  .debug_str:0000000000019962 .LASF4697
C:\Users\CYMR90~1\AppData\Local\Temp\ccLPYcmd.s:21097  .debug_str:00000000000042f3 .LASF4698
C:\Users\CYMR90~1\AppData\Local\Temp\ccLPYcmd.s:22705  .debug_str:000000000000a81f .LASF4699
C:\Users\CYMR90~1\AppData\Local\Temp\ccLPYcmd.s:23409  .debug_str:000000000000d7e1 .LASF4700
C:\Users\CYMR90~1\AppData\Local\Temp\ccLPYcmd.s:23959  .debug_str:000000000000f947 .LASF4701
C:\Users\CYMR90~1\AppData\Local\Temp\ccLPYcmd.s:27822  .debug_str:000000000001ef87 .LASF4702
C:\Users\CYMR90~1\AppData\Local\Temp\ccLPYcmd.s:23535  .debug_str:000000000000df07 .LASF4703
C:\Users\CYMR90~1\AppData\Local\Temp\ccLPYcmd.s:26848  .debug_str:000000000001b239 .LASF4704
C:\Users\CYMR90~1\AppData\Local\Temp\ccLPYcmd.s:30746  .debug_str:000000000002a7e7 .LASF4705
C:\Users\CYMR90~1\AppData\Local\Temp\ccLPYcmd.s:24257  .debug_str:0000000000010b6e .LASF4706
C:\Users\CYMR90~1\AppData\Local\Temp\ccLPYcmd.s:24989  .debug_str:0000000000013a91 .LASF4707
C:\Users\CYMR90~1\AppData\Local\Temp\ccLPYcmd.s:28690  .debug_str:00000000000224a4 .LASF4708
C:\Users\CYMR90~1\AppData\Local\Temp\ccLPYcmd.s:30850  .debug_str:000000000002ae2a .LASF4709
C:\Users\CYMR90~1\AppData\Local\Temp\ccLPYcmd.s:24035  .debug_str:000000000000fdc5 .LASF4710
C:\Users\CYMR90~1\AppData\Local\Temp\ccLPYcmd.s:28754  .debug_str:000000000002281e .LASF4711
C:\Users\CYMR90~1\AppData\Local\Temp\ccLPYcmd.s:31098  .debug_str:000000000002bd96 .LASF4712
C:\Users\CYMR90~1\AppData\Local\Temp\ccLPYcmd.s:29262  .debug_str:0000000000024781 .LASF4713
C:\Users\CYMR90~1\AppData\Local\Temp\ccLPYcmd.s:25713  .debug_str:0000000000016690 .LASF4714
C:\Users\CYMR90~1\AppData\Local\Temp\ccLPYcmd.s:27216  .debug_str:000000000001c903 .LASF4715
C:\Users\CYMR90~1\AppData\Local\Temp\ccLPYcmd.s:26506  .debug_str:0000000000019b02 .LASF4716
C:\Users\CYMR90~1\AppData\Local\Temp\ccLPYcmd.s:24177  .debug_str:000000000001065e .LASF4717
C:\Users\CYMR90~1\AppData\Local\Temp\ccLPYcmd.s:24617  .debug_str:000000000001229a .LASF4718
C:\Users\CYMR90~1\AppData\Local\Temp\ccLPYcmd.s:20907  .debug_str:000000000000364d .LASF4719
C:\Users\CYMR90~1\AppData\Local\Temp\ccLPYcmd.s:21771  .debug_str:0000000000006c61 .LASF4720
C:\Users\CYMR90~1\AppData\Local\Temp\ccLPYcmd.s:24673  .debug_str:0000000000012638 .LASF4721
C:\Users\CYMR90~1\AppData\Local\Temp\ccLPYcmd.s:30894  .debug_str:000000000002b0ba .LASF4722
C:\Users\CYMR90~1\AppData\Local\Temp\ccLPYcmd.s:23653  .debug_str:000000000000e660 .LASF4723
C:\Users\CYMR90~1\AppData\Local\Temp\ccLPYcmd.s:26606  .debug_str:000000000001a0ea .LASF4724
C:\Users\CYMR90~1\AppData\Local\Temp\ccLPYcmd.s:20257  .debug_str:0000000000000d8a .LASF4725
C:\Users\CYMR90~1\AppData\Local\Temp\ccLPYcmd.s:30102  .debug_str:0000000000027ef4 .LASF4726
C:\Users\CYMR90~1\AppData\Local\Temp\ccLPYcmd.s:31346  .debug_str:000000000002ce33 .LASF4727
C:\Users\CYMR90~1\AppData\Local\Temp\ccLPYcmd.s:23437  .debug_str:000000000000d972 .LASF4728
C:\Users\CYMR90~1\AppData\Local\Temp\ccLPYcmd.s:26122  .debug_str:0000000000018192 .LASF4729
C:\Users\CYMR90~1\AppData\Local\Temp\ccLPYcmd.s:20415  .debug_str:0000000000001747 .LASF4730
C:\Users\CYMR90~1\AppData\Local\Temp\ccLPYcmd.s:29136  .debug_str:0000000000023ed3 .LASF4731
C:\Users\CYMR90~1\AppData\Local\Temp\ccLPYcmd.s:25579  .debug_str:0000000000015e08 .LASF4732
C:\Users\CYMR90~1\AppData\Local\Temp\ccLPYcmd.s:30814  .debug_str:000000000002ac38 .LASF4733
C:\Users\CYMR90~1\AppData\Local\Temp\ccLPYcmd.s:29750  .debug_str:0000000000026838 .LASF4734
C:\Users\CYMR90~1\AppData\Local\Temp\ccLPYcmd.s:30816  .debug_str:000000000002ac56 .LASF4735
C:\Users\CYMR90~1\AppData\Local\Temp\ccLPYcmd.s:27152  .debug_str:000000000001c499 .LASF4736
C:\Users\CYMR90~1\AppData\Local\Temp\ccLPYcmd.s:20361  .debug_str:0000000000001409 .LASF4737
C:\Users\CYMR90~1\AppData\Local\Temp\ccLPYcmd.s:29524  .debug_str:00000000000259d4 .LASF4738
C:\Users\CYMR90~1\AppData\Local\Temp\ccLPYcmd.s:27050  .debug_str:000000000001be86 .LASF4739
C:\Users\CYMR90~1\AppData\Local\Temp\ccLPYcmd.s:22917  .debug_str:000000000000b753 .LASF4740
C:\Users\CYMR90~1\AppData\Local\Temp\ccLPYcmd.s:23659  .debug_str:000000000000e6ae .LASF4741
C:\Users\CYMR90~1\AppData\Local\Temp\ccLPYcmd.s:28176  .debug_str:0000000000020510 .LASF4742
C:\Users\CYMR90~1\AppData\Local\Temp\ccLPYcmd.s:24807  .debug_str:0000000000012f06 .LASF4743
C:\Users\CYMR90~1\AppData\Local\Temp\ccLPYcmd.s:29898  .debug_str:00000000000271a9 .LASF4744
C:\Users\CYMR90~1\AppData\Local\Temp\ccLPYcmd.s:25347  .debug_str:000000000001504e .LASF4745
C:\Users\CYMR90~1\AppData\Local\Temp\ccLPYcmd.s:25091  .debug_str:00000000000140c2 .LASF4746
C:\Users\CYMR90~1\AppData\Local\Temp\ccLPYcmd.s:23145  .debug_str:000000000000c611 .LASF4747
C:\Users\CYMR90~1\AppData\Local\Temp\ccLPYcmd.s:28040  .debug_str:000000000001fcec .LASF4748
C:\Users\CYMR90~1\AppData\Local\Temp\ccLPYcmd.s:23757  .debug_str:000000000000ed06 .LASF4749
C:\Users\CYMR90~1\AppData\Local\Temp\ccLPYcmd.s:21455  .debug_str:0000000000005970 .LASF4750
C:\Users\CYMR90~1\AppData\Local\Temp\ccLPYcmd.s:30650  .debug_str:000000000002a22f .LASF4751
C:\Users\CYMR90~1\AppData\Local\Temp\ccLPYcmd.s:28354  .debug_str:0000000000020fe1 .LASF4752
C:\Users\CYMR90~1\AppData\Local\Temp\ccLPYcmd.s:31174  .debug_str:000000000002c2ff .LASF4753
C:\Users\CYMR90~1\AppData\Local\Temp\ccLPYcmd.s:23955  .debug_str:000000000000f90a .LASF4754
C:\Users\CYMR90~1\AppData\Local\Temp\ccLPYcmd.s:22373  .debug_str:0000000000009387 .LASF4755
C:\Users\CYMR90~1\AppData\Local\Temp\ccLPYcmd.s:30848  .debug_str:000000000002ae08 .LASF4756
C:\Users\CYMR90~1\AppData\Local\Temp\ccLPYcmd.s:28450  .debug_str:0000000000021614 .LASF4757
C:\Users\CYMR90~1\AppData\Local\Temp\ccLPYcmd.s:30308  .debug_str:0000000000028d64 .LASF4758
C:\Users\CYMR90~1\AppData\Local\Temp\ccLPYcmd.s:27062  .debug_str:000000000001bf67 .LASF4759
C:\Users\CYMR90~1\AppData\Local\Temp\ccLPYcmd.s:30590  .debug_str:0000000000029eb3 .LASF4760
C:\Users\CYMR90~1\AppData\Local\Temp\ccLPYcmd.s:30470  .debug_str:0000000000029776 .LASF4761
C:\Users\CYMR90~1\AppData\Local\Temp\ccLPYcmd.s:30204  .debug_str:000000000002866f .LASF4762
C:\Users\CYMR90~1\AppData\Local\Temp\ccLPYcmd.s:29486  .debug_str:000000000002572a .LASF4763
C:\Users\CYMR90~1\AppData\Local\Temp\ccLPYcmd.s:26580  .debug_str:0000000000019f6f .LASF4764
C:\Users\CYMR90~1\AppData\Local\Temp\ccLPYcmd.s:22541  .debug_str:0000000000009e1b .LASF4765
C:\Users\CYMR90~1\AppData\Local\Temp\ccLPYcmd.s:23957  .debug_str:000000000000f92c .LASF4766
C:\Users\CYMR90~1\AppData\Local\Temp\ccLPYcmd.s:20629  .debug_str:0000000000002444 .LASF4767
C:\Users\CYMR90~1\AppData\Local\Temp\ccLPYcmd.s:22691  .debug_str:000000000000a75e .LASF4768
C:\Users\CYMR90~1\AppData\Local\Temp\ccLPYcmd.s:27678  .debug_str:000000000001e6ef .LASF4769
C:\Users\CYMR90~1\AppData\Local\Temp\ccLPYcmd.s:25894  .debug_str:00000000000173fa .LASF4770
C:\Users\CYMR90~1\AppData\Local\Temp\ccLPYcmd.s:23359  .debug_str:000000000000d44a .LASF4771
C:\Users\CYMR90~1\AppData\Local\Temp\ccLPYcmd.s:31226  .debug_str:000000000002c627 .LASF4772
C:\Users\CYMR90~1\AppData\Local\Temp\ccLPYcmd.s:25731  .debug_str:0000000000016798 .LASF4773
C:\Users\CYMR90~1\AppData\Local\Temp\ccLPYcmd.s:30880  .debug_str:000000000002aff3 .LASF4774
C:\Users\CYMR90~1\AppData\Local\Temp\ccLPYcmd.s:20839  .debug_str:00000000000031f0 .LASF4775
C:\Users\CYMR90~1\AppData\Local\Temp\ccLPYcmd.s:29236  .debug_str:00000000000245f8 .LASF4776
C:\Users\CYMR90~1\AppData\Local\Temp\ccLPYcmd.s:25741  .debug_str:000000000001689e .LASF4777
C:\Users\CYMR90~1\AppData\Local\Temp\ccLPYcmd.s:22261  .debug_str:0000000000008ce7 .LASF4778
C:\Users\CYMR90~1\AppData\Local\Temp\ccLPYcmd.s:29978  .debug_str:0000000000027746 .LASF4779
C:\Users\CYMR90~1\AppData\Local\Temp\ccLPYcmd.s:27586  .debug_str:000000000001e185 .LASF4780
C:\Users\CYMR90~1\AppData\Local\Temp\ccLPYcmd.s:20601  .debug_str:000000000000229f .LASF4781
C:\Users\CYMR90~1\AppData\Local\Temp\ccLPYcmd.s:21721  .debug_str:0000000000006970 .LASF4782
C:\Users\CYMR90~1\AppData\Local\Temp\ccLPYcmd.s:30122  .debug_str:0000000000028068 .LASF4783
C:\Users\CYMR90~1\AppData\Local\Temp\ccLPYcmd.s:27610  .debug_str:000000000001e302 .LASF4784
C:\Users\CYMR90~1\AppData\Local\Temp\ccLPYcmd.s:22089  .debug_str:000000000000820d .LASF4785
C:\Users\CYMR90~1\AppData\Local\Temp\ccLPYcmd.s:30036  .debug_str:0000000000027a7d .LASF4786
C:\Users\CYMR90~1\AppData\Local\Temp\ccLPYcmd.s:23819  .debug_str:000000000000f018 .LASF4787
C:\Users\CYMR90~1\AppData\Local\Temp\ccLPYcmd.s:27288  .debug_str:000000000001cd8b .LASF4788
C:\Users\CYMR90~1\AppData\Local\Temp\ccLPYcmd.s:27420  .debug_str:000000000001d694 .LASF4789
C:\Users\CYMR90~1\AppData\Local\Temp\ccLPYcmd.s:20583  .debug_str:000000000000219d .LASF4790
C:\Users\CYMR90~1\AppData\Local\Temp\ccLPYcmd.s:23981  .debug_str:000000000000fa7f .LASF4791
C:\Users\CYMR90~1\AppData\Local\Temp\ccLPYcmd.s:30628  .debug_str:000000000002a106 .LASF4792
C:\Users\CYMR90~1\AppData\Local\Temp\ccLPYcmd.s:23799  .debug_str:000000000000ef00 .LASF4793
C:\Users\CYMR90~1\AppData\Local\Temp\ccLPYcmd.s:27208  .debug_str:000000000001c7ed .LASF4794
C:\Users\CYMR90~1\AppData\Local\Temp\ccLPYcmd.s:22871  .debug_str:000000000000b41e .LASF4795
C:\Users\CYMR90~1\AppData\Local\Temp\ccLPYcmd.s:26050  .debug_str:0000000000017d44 .LASF4796
C:\Users\CYMR90~1\AppData\Local\Temp\ccLPYcmd.s:24205  .debug_str:0000000000010818 .LASF4797
C:\Users\CYMR90~1\AppData\Local\Temp\ccLPYcmd.s:20673  .debug_str:0000000000002713 .LASF4798
C:\Users\CYMR90~1\AppData\Local\Temp\ccLPYcmd.s:28884  .debug_str:0000000000023055 .LASF4799
C:\Users\CYMR90~1\AppData\Local\Temp\ccLPYcmd.s:20401  .debug_str:0000000000001642 .LASF4800
C:\Users\CYMR90~1\AppData\Local\Temp\ccLPYcmd.s:20227  .debug_str:0000000000000bee .LASF4801
C:\Users\CYMR90~1\AppData\Local\Temp\ccLPYcmd.s:21305  .debug_str:000000000000509b .LASF4802
C:\Users\CYMR90~1\AppData\Local\Temp\ccLPYcmd.s:21949  .debug_str:00000000000077e1 .LASF4803
C:\Users\CYMR90~1\AppData\Local\Temp\ccLPYcmd.s:29704  .debug_str:000000000002656f .LASF4804
C:\Users\CYMR90~1\AppData\Local\Temp\ccLPYcmd.s:20587  .debug_str:00000000000021d2 .LASF4805
C:\Users\CYMR90~1\AppData\Local\Temp\ccLPYcmd.s:28418  .debug_str:0000000000021386 .LASF4806
C:\Users\CYMR90~1\AppData\Local\Temp\ccLPYcmd.s:22949  .debug_str:000000000000b97d .LASF4807
C:\Users\CYMR90~1\AppData\Local\Temp\ccLPYcmd.s:25814  .debug_str:0000000000016f6b .LASF4808
C:\Users\CYMR90~1\AppData\Local\Temp\ccLPYcmd.s:22301  .debug_str:0000000000008f79 .LASF4809
C:\Users\CYMR90~1\AppData\Local\Temp\ccLPYcmd.s:28026  .debug_str:000000000001fc13 .LASF4810
C:\Users\CYMR90~1\AppData\Local\Temp\ccLPYcmd.s:28666  .debug_str:0000000000022342 .LASF4811
C:\Users\CYMR90~1\AppData\Local\Temp\ccLPYcmd.s:29306  .debug_str:0000000000024a57 .LASF4812
C:\Users\CYMR90~1\AppData\Local\Temp\ccLPYcmd.s:28760  .debug_str:000000000002289d .LASF4813
C:\Users\CYMR90~1\AppData\Local\Temp\ccLPYcmd.s:25661  .debug_str:0000000000016333 .LASF4814
C:\Users\CYMR90~1\AppData\Local\Temp\ccLPYcmd.s:25561  .debug_str:0000000000015cd3 .LASF4815
C:\Users\CYMR90~1\AppData\Local\Temp\ccLPYcmd.s:25143  .debug_str:000000000001441c .LASF4816
C:\Users\CYMR90~1\AppData\Local\Temp\ccLPYcmd.s:27712  .debug_str:000000000001e93a .LASF4817
C:\Users\CYMR90~1\AppData\Local\Temp\ccLPYcmd.s:24379  .debug_str:00000000000112db .LASF4818
C:\Users\CYMR90~1\AppData\Local\Temp\ccLPYcmd.s:27462  .debug_str:000000000001d9a0 .LASF4819
C:\Users\CYMR90~1\AppData\Local\Temp\ccLPYcmd.s:31400  .debug_str:000000000002d211 .LASF4820
C:\Users\CYMR90~1\AppData\Local\Temp\ccLPYcmd.s:23645  .debug_str:000000000000e5de .LASF4821
C:\Users\CYMR90~1\AppData\Local\Temp\ccLPYcmd.s:26150  .debug_str:0000000000018310 .LASF4822
C:\Users\CYMR90~1\AppData\Local\Temp\ccLPYcmd.s:20451  .debug_str:0000000000001a29 .LASF4823
C:\Users\CYMR90~1\AppData\Local\Temp\ccLPYcmd.s:21081  .debug_str:000000000000417a .LASF4824
C:\Users\CYMR90~1\AppData\Local\Temp\ccLPYcmd.s:21085  .debug_str:000000000000424a .LASF4825
C:\Users\CYMR90~1\AppData\Local\Temp\ccLPYcmd.s:24287  .debug_str:0000000000010dcc .LASF4826
C:\Users\CYMR90~1\AppData\Local\Temp\ccLPYcmd.s:29156  .debug_str:0000000000023ffc .LASF4827
C:\Users\CYMR90~1\AppData\Local\Temp\ccLPYcmd.s:22977  .debug_str:000000000000bb7a .LASF4828
C:\Users\CYMR90~1\AppData\Local\Temp\ccLPYcmd.s:22685  .debug_str:000000000000a70d .LASF4829
C:\Users\CYMR90~1\AppData\Local\Temp\ccLPYcmd.s:28294  .debug_str:0000000000020c73 .LASF4830
C:\Users\CYMR90~1\AppData\Local\Temp\ccLPYcmd.s:24345  .debug_str:00000000000110ff .LASF4831
C:\Users\CYMR90~1\AppData\Local\Temp\ccLPYcmd.s:25826  .debug_str:0000000000017019 .LASF4832
C:\Users\CYMR90~1\AppData\Local\Temp\ccLPYcmd.s:29220  .debug_str:00000000000244d0 .LASF4833
C:\Users\CYMR90~1\AppData\Local\Temp\ccLPYcmd.s:27476  .debug_str:000000000001da60 .LASF4834
C:\Users\CYMR90~1\AppData\Local\Temp\ccLPYcmd.s:25441  .debug_str:0000000000015586 .LASF4835
C:\Users\CYMR90~1\AppData\Local\Temp\ccLPYcmd.s:31028  .debug_str:000000000002b91c .LASF4836
C:\Users\CYMR90~1\AppData\Local\Temp\ccLPYcmd.s:29268  .debug_str:00000000000247f9 .LASF4837
C:\Users\CYMR90~1\AppData\Local\Temp\ccLPYcmd.s:26444  .debug_str:0000000000019658 .LASF4838
C:\Users\CYMR90~1\AppData\Local\Temp\ccLPYcmd.s:27488  .debug_str:000000000001db1e .LASF4839
C:\Users\CYMR90~1\AppData\Local\Temp\ccLPYcmd.s:25647  .debug_str:000000000001625a .LASF4840
C:\Users\CYMR90~1\AppData\Local\Temp\ccLPYcmd.s:22311  .debug_str:0000000000009013 .LASF4841
C:\Users\CYMR90~1\AppData\Local\Temp\ccLPYcmd.s:24255  .debug_str:0000000000010b48 .LASF4842
C:\Users\CYMR90~1\AppData\Local\Temp\ccLPYcmd.s:26244  .debug_str:00000000000188c4 .LASF4843
C:\Users\CYMR90~1\AppData\Local\Temp\ccLPYcmd.s:23393  .debug_str:000000000000d6d0 .LASF4844
C:\Users\CYMR90~1\AppData\Local\Temp\ccLPYcmd.s:25675  .debug_str:00000000000163de .LASF4845
C:\Users\CYMR90~1\AppData\Local\Temp\ccLPYcmd.s:21035  .debug_str:0000000000003e84 .LASF4846
C:\Users\CYMR90~1\AppData\Local\Temp\ccLPYcmd.s:30000  .debug_str:0000000000027870 .LASF4847
C:\Users\CYMR90~1\AppData\Local\Temp\ccLPYcmd.s:23617  .debug_str:000000000000e43b .LASF4848
C:\Users\CYMR90~1\AppData\Local\Temp\ccLPYcmd.s:21073  .debug_str:00000000000040f7 .LASF4849
C:\Users\CYMR90~1\AppData\Local\Temp\ccLPYcmd.s:25283  .debug_str:0000000000014c45 .LASF4850
C:\Users\CYMR90~1\AppData\Local\Temp\ccLPYcmd.s:23613  .debug_str:000000000000e3fc .LASF4851
C:\Users\CYMR90~1\AppData\Local\Temp\ccLPYcmd.s:20613  .debug_str:0000000000002369 .LASF4852
C:\Users\CYMR90~1\AppData\Local\Temp\ccLPYcmd.s:30856  .debug_str:000000000002ae8e .LASF4853
C:\Users\CYMR90~1\AppData\Local\Temp\ccLPYcmd.s:22207  .debug_str:0000000000008969 .LASF4854
C:\Users\CYMR90~1\AppData\Local\Temp\ccLPYcmd.s:20793  .debug_str:0000000000002f0e .LASF4855
C:\Users\CYMR90~1\AppData\Local\Temp\ccLPYcmd.s:30088  .debug_str:0000000000027e00 .LASF4856
C:\Users\CYMR90~1\AppData\Local\Temp\ccLPYcmd.s:30580  .debug_str:0000000000029e14 .LASF4857
C:\Users\CYMR90~1\AppData\Local\Temp\ccLPYcmd.s:26570  .debug_str:0000000000019ecc .LASF4858
C:\Users\CYMR90~1\AppData\Local\Temp\ccLPYcmd.s:26608  .debug_str:000000000001a101 .LASF4859
C:\Users\CYMR90~1\AppData\Local\Temp\ccLPYcmd.s:29530  .debug_str:0000000000025a63 .LASF4860
C:\Users\CYMR90~1\AppData\Local\Temp\ccLPYcmd.s:25383  .debug_str:0000000000015281 .LASF4861
C:\Users\CYMR90~1\AppData\Local\Temp\ccLPYcmd.s:31378  .debug_str:000000000002cffd .LASF4862
C:\Users\CYMR90~1\AppData\Local\Temp\ccLPYcmd.s:30256  .debug_str:0000000000028a15 .LASF4863
C:\Users\CYMR90~1\AppData\Local\Temp\ccLPYcmd.s:28984  .debug_str:00000000000235bc .LASF4864
C:\Users\CYMR90~1\AppData\Local\Temp\ccLPYcmd.s:27774  .debug_str:000000000001ecca .LASF4865
C:\Users\CYMR90~1\AppData\Local\Temp\ccLPYcmd.s:24179  .debug_str:000000000001069c .LASF4866
C:\Users\CYMR90~1\AppData\Local\Temp\ccLPYcmd.s:31268  .debug_str:000000000002c951 .LASF4867
C:\Users\CYMR90~1\AppData\Local\Temp\ccLPYcmd.s:29400  .debug_str:000000000002507f .LASF4868
C:\Users\CYMR90~1\AppData\Local\Temp\ccLPYcmd.s:29310  .debug_str:0000000000024a80 .LASF4869
C:\Users\CYMR90~1\AppData\Local\Temp\ccLPYcmd.s:21817  .debug_str:0000000000006f5b .LASF4870
C:\Users\CYMR90~1\AppData\Local\Temp\ccLPYcmd.s:25701  .debug_str:00000000000165d5 .LASF4871
C:\Users\CYMR90~1\AppData\Local\Temp\ccLPYcmd.s:30064  .debug_str:0000000000027c3b .LASF4872
C:\Users\CYMR90~1\AppData\Local\Temp\ccLPYcmd.s:27270  .debug_str:000000000001cc5c .LASF4873
C:\Users\CYMR90~1\AppData\Local\Temp\ccLPYcmd.s:29862  .debug_str:0000000000026f11 .LASF4874
C:\Users\CYMR90~1\AppData\Local\Temp\ccLPYcmd.s:26014  .debug_str:0000000000017b2e .LASF4875
C:\Users\CYMR90~1\AppData\Local\Temp\ccLPYcmd.s:20781  .debug_str:0000000000002e51 .LASF4876
C:\Users\CYMR90~1\AppData\Local\Temp\ccLPYcmd.s:22109  .debug_str:0000000000008374 .LASF4877
C:\Users\CYMR90~1\AppData\Local\Temp\ccLPYcmd.s:27256  .debug_str:000000000001cb79 .LASF4878
C:\Users\CYMR90~1\AppData\Local\Temp\ccLPYcmd.s:22733  .debug_str:000000000000aada .LASF4879
C:\Users\CYMR90~1\AppData\Local\Temp\ccLPYcmd.s:21689  .debug_str:000000000000672e .LASF4880
C:\Users\CYMR90~1\AppData\Local\Temp\ccLPYcmd.s:25693  .debug_str:0000000000016562 .LASF4881
C:\Users\CYMR90~1\AppData\Local\Temp\ccLPYcmd.s:26864  .debug_str:000000000001b339 .LASF4882
C:\Users\CYMR90~1\AppData\Local\Temp\ccLPYcmd.s:21065  .debug_str:0000000000004091 .LASF4883
C:\Users\CYMR90~1\AppData\Local\Temp\ccLPYcmd.s:29604  .debug_str:0000000000025f34 .LASF4884
C:\Users\CYMR90~1\AppData\Local\Temp\ccLPYcmd.s:23695  .debug_str:000000000000e929 .LASF4885
C:\Users\CYMR90~1\AppData\Local\Temp\ccLPYcmd.s:28500  .debug_str:0000000000021936 .LASF4886
C:\Users\CYMR90~1\AppData\Local\Temp\ccLPYcmd.s:25177  .debug_str:000000000001460c .LASF4887
C:\Users\CYMR90~1\AppData\Local\Temp\ccLPYcmd.s:22833  .debug_str:000000000000b203 .LASF4888
C:\Users\CYMR90~1\AppData\Local\Temp\ccLPYcmd.s:28310  .debug_str:0000000000020d64 .LASF4889
C:\Users\CYMR90~1\AppData\Local\Temp\ccLPYcmd.s:29716  .debug_str:0000000000026602 .LASF4890
C:\Users\CYMR90~1\AppData\Local\Temp\ccLPYcmd.s:27988  .debug_str:000000000001f9c5 .LASF4891
C:\Users\CYMR90~1\AppData\Local\Temp\ccLPYcmd.s:28608  .debug_str:0000000000021fc0 .LASF4892
C:\Users\CYMR90~1\AppData\Local\Temp\ccLPYcmd.s:26830  .debug_str:000000000001b0da .LASF4893
C:\Users\CYMR90~1\AppData\Local\Temp\ccLPYcmd.s:28146  .debug_str:0000000000020329 .LASF4894
C:\Users\CYMR90~1\AppData\Local\Temp\ccLPYcmd.s:29664  .debug_str:0000000000026314 .LASF4895
C:\Users\CYMR90~1\AppData\Local\Temp\ccLPYcmd.s:29140  .debug_str:0000000000023f13 .LASF4896
C:\Users\CYMR90~1\AppData\Local\Temp\ccLPYcmd.s:28960  .debug_str:000000000002345e .LASF4897
C:\Users\CYMR90~1\AppData\Local\Temp\ccLPYcmd.s:31430  .debug_str:000000000002d3d0 .LASF4898
C:\Users\CYMR90~1\AppData\Local\Temp\ccLPYcmd.s:21683  .debug_str:00000000000066cf .LASF4899
C:\Users\CYMR90~1\AppData\Local\Temp\ccLPYcmd.s:21325  .debug_str:00000000000051bf .LASF4900
C:\Users\CYMR90~1\AppData\Local\Temp\ccLPYcmd.s:28858  .debug_str:0000000000022ed6 .LASF4901
C:\Users\CYMR90~1\AppData\Local\Temp\ccLPYcmd.s:28810  .debug_str:0000000000022bae .LASF4902
C:\Users\CYMR90~1\AppData\Local\Temp\ccLPYcmd.s:28088  .debug_str:0000000000020006 .LASF4903
C:\Users\CYMR90~1\AppData\Local\Temp\ccLPYcmd.s:20211  .debug_str:0000000000000a94 .LASF4904
C:\Users\CYMR90~1\AppData\Local\Temp\ccLPYcmd.s:24963  .debug_str:0000000000013938 .LASF4905
C:\Users\CYMR90~1\AppData\Local\Temp\ccLPYcmd.s:26100  .debug_str:000000000001800a .LASF4906
C:\Users\CYMR90~1\AppData\Local\Temp\ccLPYcmd.s:24869  .debug_str:0000000000013305 .LASF4907
C:\Users\CYMR90~1\AppData\Local\Temp\ccLPYcmd.s:27316  .debug_str:000000000001cfe5 .LASF4908
C:\Users\CYMR90~1\AppData\Local\Temp\ccLPYcmd.s:25319  .debug_str:0000000000014ed1 .LASF4909
C:\Users\CYMR90~1\AppData\Local\Temp\ccLPYcmd.s:20595  .debug_str:000000000000222b .LASF4910
C:\Users\CYMR90~1\AppData\Local\Temp\ccLPYcmd.s:22061  .debug_str:0000000000007fbf .LASF4911
C:\Users\CYMR90~1\AppData\Local\Temp\ccLPYcmd.s:23111  .debug_str:000000000000c418 .LASF4912
C:\Users\CYMR90~1\AppData\Local\Temp\ccLPYcmd.s:25463  .debug_str:00000000000156d7 .LASF4913
C:\Users\CYMR90~1\AppData\Local\Temp\ccLPYcmd.s:26998  .debug_str:000000000001bb0b .LASF4914
C:\Users\CYMR90~1\AppData\Local\Temp\ccLPYcmd.s:21159  .debug_str:00000000000046b9 .LASF4915
C:\Users\CYMR90~1\AppData\Local\Temp\ccLPYcmd.s:22183  .debug_str:00000000000087e7 .LASF4916
C:\Users\CYMR90~1\AppData\Local\Temp\ccLPYcmd.s:21211  .debug_str:0000000000004ae7 .LASF4917
C:\Users\CYMR90~1\AppData\Local\Temp\ccLPYcmd.s:24941  .debug_str:00000000000137ef .LASF4918
C:\Users\CYMR90~1\AppData\Local\Temp\ccLPYcmd.s:29238  .debug_str:0000000000024614 .LASF4919
C:\Users\CYMR90~1\AppData\Local\Temp\ccLPYcmd.s:21941  .debug_str:000000000000776d .LASF4920
C:\Users\CYMR90~1\AppData\Local\Temp\ccLPYcmd.s:24023  .debug_str:000000000000fcf6 .LASF4921
C:\Users\CYMR90~1\AppData\Local\Temp\ccLPYcmd.s:28632  .debug_str:0000000000022128 .LASF4922
C:\Users\CYMR90~1\AppData\Local\Temp\ccLPYcmd.s:30196  .debug_str:00000000000285eb .LASF4923
C:\Users\CYMR90~1\AppData\Local\Temp\ccLPYcmd.s:26026  .debug_str:0000000000017bcc .LASF4924
C:\Users\CYMR90~1\AppData\Local\Temp\ccLPYcmd.s:25339  .debug_str:0000000000014fd1 .LASF4925
C:\Users\CYMR90~1\AppData\Local\Temp\ccLPYcmd.s:30970  .debug_str:000000000002b515 .LASF4926
C:\Users\CYMR90~1\AppData\Local\Temp\ccLPYcmd.s:22869  .debug_str:000000000000b3f5 .LASF4927
C:\Users\CYMR90~1\AppData\Local\Temp\ccLPYcmd.s:30456  .debug_str:00000000000296a3 .LASF4928
C:\Users\CYMR90~1\AppData\Local\Temp\ccLPYcmd.s:25415  .debug_str:000000000001542b .LASF4929
C:\Users\CYMR90~1\AppData\Local\Temp\ccLPYcmd.s:22211  .debug_str:00000000000089b6 .LASF4930
C:\Users\CYMR90~1\AppData\Local\Temp\ccLPYcmd.s:30866  .debug_str:000000000002af2c .LASF4931
C:\Users\CYMR90~1\AppData\Local\Temp\ccLPYcmd.s:20183  .debug_str:00000000000008e3 .LASF4932
C:\Users\CYMR90~1\AppData\Local\Temp\ccLPYcmd.s:26894  .debug_str:000000000001b4ec .LASF4933
C:\Users\CYMR90~1\AppData\Local\Temp\ccLPYcmd.s:27790  .debug_str:000000000001ed9e .LASF4934
C:\Users\CYMR90~1\AppData\Local\Temp\ccLPYcmd.s:22609  .debug_str:000000000000a241 .LASF4935
C:\Users\CYMR90~1\AppData\Local\Temp\ccLPYcmd.s:21429  .debug_str:00000000000057fd .LASF4936
C:\Users\CYMR90~1\AppData\Local\Temp\ccLPYcmd.s:23953  .debug_str:000000000000f8e0 .LASF4937
C:\Users\CYMR90~1\AppData\Local\Temp\ccLPYcmd.s:26238  .debug_str:0000000000018852 .LASF4938
C:\Users\CYMR90~1\AppData\Local\Temp\ccLPYcmd.s:20695  .debug_str:00000000000028b3 .LASF4939
C:\Users\CYMR90~1\AppData\Local\Temp\ccLPYcmd.s:26484  .debug_str:00000000000199b5 .LASF4940
C:\Users\CYMR90~1\AppData\Local\Temp\ccLPYcmd.s:27844  .debug_str:000000000001f127 .LASF4941
C:\Users\CYMR90~1\AppData\Local\Temp\ccLPYcmd.s:20219  .debug_str:0000000000000b5a .LASF4942
C:\Users\CYMR90~1\AppData\Local\Temp\ccLPYcmd.s:21665  .debug_str:00000000000065e3 .LASF4943
C:\Users\CYMR90~1\AppData\Local\Temp\ccLPYcmd.s:30982  .debug_str:000000000002b616 .LASF4944
C:\Users\CYMR90~1\AppData\Local\Temp\ccLPYcmd.s:27766  .debug_str:000000000001ec52 .LASF4945
C:\Users\CYMR90~1\AppData\Local\Temp\ccLPYcmd.s:26486  .debug_str:00000000000199e1 .LASF4946
C:\Users\CYMR90~1\AppData\Local\Temp\ccLPYcmd.s:30920  .debug_str:000000000002b250 .LASF4947
C:\Users\CYMR90~1\AppData\Local\Temp\ccLPYcmd.s:23031  .debug_str:000000000000bf2a .LASF4948
C:\Users\CYMR90~1\AppData\Local\Temp\ccLPYcmd.s:26070  .debug_str:0000000000017e85 .LASF4949
C:\Users\CYMR90~1\AppData\Local\Temp\ccLPYcmd.s:25065  .debug_str:0000000000013f34 .LASF4950
C:\Users\CYMR90~1\AppData\Local\Temp\ccLPYcmd.s:27736  .debug_str:000000000001eab0 .LASF4951
C:\Users\CYMR90~1\AppData\Local\Temp\ccLPYcmd.s:28296  .debug_str:0000000000020c89 .LASF4952
C:\Users\CYMR90~1\AppData\Local\Temp\ccLPYcmd.s:28300  .debug_str:0000000000020cc2 .LASF4953
C:\Users\CYMR90~1\AppData\Local\Temp\ccLPYcmd.s:20815  .debug_str:000000000000304d .LASF4954
C:\Users\CYMR90~1\AppData\Local\Temp\ccLPYcmd.s:24121  .debug_str:000000000001034b .LASF4955
C:\Users\CYMR90~1\AppData\Local\Temp\ccLPYcmd.s:30654  .debug_str:000000000002a26c .LASF4956
C:\Users\CYMR90~1\AppData\Local\Temp\ccLPYcmd.s:22219  .debug_str:0000000000008a34 .LASF4957
C:\Users\CYMR90~1\AppData\Local\Temp\ccLPYcmd.s:31448  .debug_str:000000000002d4cd .LASF4958
C:\Users\CYMR90~1\AppData\Local\Temp\ccLPYcmd.s:20755  .debug_str:0000000000002cb2 .LASF4959
C:\Users\CYMR90~1\AppData\Local\Temp\ccLPYcmd.s:24013  .debug_str:000000000000fc6b .LASF4960
C:\Users\CYMR90~1\AppData\Local\Temp\ccLPYcmd.s:25858  .debug_str:00000000000171e3 .LASF4961
C:\Users\CYMR90~1\AppData\Local\Temp\ccLPYcmd.s:23477  .debug_str:000000000000dbc3 .LASF4962
C:\Users\CYMR90~1\AppData\Local\Temp\ccLPYcmd.s:25938  .debug_str:000000000001765f .LASF4963
C:\Users\CYMR90~1\AppData\Local\Temp\ccLPYcmd.s:22493  .debug_str:0000000000009b43 .LASF4964
C:\Users\CYMR90~1\AppData\Local\Temp\ccLPYcmd.s:25333  .debug_str:0000000000014f8a .LASF4965
C:\Users\CYMR90~1\AppData\Local\Temp\ccLPYcmd.s:22243  .debug_str:0000000000008bd1 .LASF4966
C:\Users\CYMR90~1\AppData\Local\Temp\ccLPYcmd.s:22173  .debug_str:000000000000874d .LASF4967
C:\Users\CYMR90~1\AppData\Local\Temp\ccLPYcmd.s:30918  .debug_str:000000000002b22b .LASF4968
C:\Users\CYMR90~1\AppData\Local\Temp\ccLPYcmd.s:29192  .debug_str:00000000000242ac .LASF4969
C:\Users\CYMR90~1\AppData\Local\Temp\ccLPYcmd.s:30902  .debug_str:000000000002b154 .LASF4970
C:\Users\CYMR90~1\AppData\Local\Temp\ccLPYcmd.s:26132  .debug_str:00000000000181fc .LASF4971
C:\Users\CYMR90~1\AppData\Local\Temp\ccLPYcmd.s:30384  .debug_str:00000000000291ec .LASF4972
C:\Users\CYMR90~1\AppData\Local\Temp\ccLPYcmd.s:30062  .debug_str:0000000000027c19 .LASF4973
C:\Users\CYMR90~1\AppData\Local\Temp\ccLPYcmd.s:22469  .debug_str:00000000000099a9 .LASF4974
C:\Users\CYMR90~1\AppData\Local\Temp\ccLPYcmd.s:29808  .debug_str:0000000000026bf0 .LASF4975
C:\Users\CYMR90~1\AppData\Local\Temp\ccLPYcmd.s:26116  .debug_str:0000000000018129 .LASF4976
C:\Users\CYMR90~1\AppData\Local\Temp\ccLPYcmd.s:26022  .debug_str:0000000000017b8f .LASF4977
C:\Users\CYMR90~1\AppData\Local\Temp\ccLPYcmd.s:29938  .debug_str:00000000000273cc .LASF4978
C:\Users\CYMR90~1\AppData\Local\Temp\ccLPYcmd.s:23875  .debug_str:000000000000f383 .LASF4979
C:\Users\CYMR90~1\AppData\Local\Temp\ccLPYcmd.s:27292  .debug_str:000000000001cdcf .LASF4980
C:\Users\CYMR90~1\AppData\Local\Temp\ccLPYcmd.s:26312  .debug_str:0000000000018dd1 .LASF4981
C:\Users\CYMR90~1\AppData\Local\Temp\ccLPYcmd.s:23195  .debug_str:000000000000c993 .LASF4982
C:\Users\CYMR90~1\AppData\Local\Temp\ccLPYcmd.s:29456  .debug_str:00000000000254f2 .LASF4983
C:\Users\CYMR90~1\AppData\Local\Temp\ccLPYcmd.s:22601  .debug_str:000000000000a1cb .LASF4984
C:\Users\CYMR90~1\AppData\Local\Temp\ccLPYcmd.s:29276  .debug_str:000000000002485e .LASF4985
C:\Users\CYMR90~1\AppData\Local\Temp\ccLPYcmd.s:27054  .debug_str:000000000001bed0 .LASF4986
C:\Users\CYMR90~1\AppData\Local\Temp\ccLPYcmd.s:23337  .debug_str:000000000000d29d .LASF4987
C:\Users\CYMR90~1\AppData\Local\Temp\ccLPYcmd.s:24195  .debug_str:000000000001079b .LASF4988
C:\Users\CYMR90~1\AppData\Local\Temp\ccLPYcmd.s:20537  .debug_str:0000000000001f26 .LASF4989
C:\Users\CYMR90~1\AppData\Local\Temp\ccLPYcmd.s:25810  .debug_str:0000000000016f26 .LASF4990
C:\Users\CYMR90~1\AppData\Local\Temp\ccLPYcmd.s:27134  .debug_str:000000000001c3a9 .LASF4991
C:\Users\CYMR90~1\AppData\Local\Temp\ccLPYcmd.s:25225  .debug_str:0000000000014914 .LASF4992
C:\Users\CYMR90~1\AppData\Local\Temp\ccLPYcmd.s:21149  .debug_str:000000000000461b .LASF4993
C:\Users\CYMR90~1\AppData\Local\Temp\ccLPYcmd.s:26764  .debug_str:000000000001ac47 .LASF4994
C:\Users\CYMR90~1\AppData\Local\Temp\ccLPYcmd.s:29554  .debug_str:0000000000025c57 .LASF4995
C:\Users\CYMR90~1\AppData\Local\Temp\ccLPYcmd.s:23929  .debug_str:000000000000f6c9 .LASF4996
C:\Users\CYMR90~1\AppData\Local\Temp\ccLPYcmd.s:23025  .debug_str:000000000000be96 .LASF4997
C:\Users\CYMR90~1\AppData\Local\Temp\ccLPYcmd.s:20037  .debug_str:000000000000006a .LASF4998
C:\Users\CYMR90~1\AppData\Local\Temp\ccLPYcmd.s:30372  .debug_str:0000000000029136 .LASF4999
C:\Users\CYMR90~1\AppData\Local\Temp\ccLPYcmd.s:21685  .debug_str:00000000000066f2 .LASF5000
C:\Users\CYMR90~1\AppData\Local\Temp\ccLPYcmd.s:21897  .debug_str:00000000000074c0 .LASF5001
C:\Users\CYMR90~1\AppData\Local\Temp\ccLPYcmd.s:30290  .debug_str:0000000000028c3e .LASF5002
C:\Users\CYMR90~1\AppData\Local\Temp\ccLPYcmd.s:22983  .debug_str:000000000000bbb8 .LASF5003
C:\Users\CYMR90~1\AppData\Local\Temp\ccLPYcmd.s:25323  .debug_str:0000000000014f18 .LASF5004
C:\Users\CYMR90~1\AppData\Local\Temp\ccLPYcmd.s:22935  .debug_str:000000000000b8a0 .LASF5005
C:\Users\CYMR90~1\AppData\Local\Temp\ccLPYcmd.s:25515  .debug_str:00000000000159f5 .LASF5006
C:\Users\CYMR90~1\AppData\Local\Temp\ccLPYcmd.s:24395  .debug_str:00000000000113c9 .LASF5007
C:\Users\CYMR90~1\AppData\Local\Temp\ccLPYcmd.s:24321  .debug_str:0000000000010f8e .LASF5008
C:\Users\CYMR90~1\AppData\Local\Temp\ccLPYcmd.s:24639  .debug_str:0000000000012406 .LASF5009
C:\Users\CYMR90~1\AppData\Local\Temp\ccLPYcmd.s:25391  .debug_str:00000000000152f3 .LASF5010
C:\Users\CYMR90~1\AppData\Local\Temp\ccLPYcmd.s:24303  .debug_str:0000000000010e9e .LASF5011
C:\Users\CYMR90~1\AppData\Local\Temp\ccLPYcmd.s:30258  .debug_str:0000000000028a37 .LASF5012
C:\Users\CYMR90~1\AppData\Local\Temp\ccLPYcmd.s:21951  .debug_str:0000000000007803 .LASF5013
C:\Users\CYMR90~1\AppData\Local\Temp\ccLPYcmd.s:31166  .debug_str:000000000002c1fc .LASF5014
C:\Users\CYMR90~1\AppData\Local\Temp\ccLPYcmd.s:31182  .debug_str:000000000002c38c .LASF5015
C:\Users\CYMR90~1\AppData\Local\Temp\ccLPYcmd.s:24871  .debug_str:0000000000013329 .LASF5016
C:\Users\CYMR90~1\AppData\Local\Temp\ccLPYcmd.s:20243  .debug_str:0000000000000cb8 .LASF5017
C:\Users\CYMR90~1\AppData\Local\Temp\ccLPYcmd.s:22979  .debug_str:000000000000bb92 .LASF5018
C:\Users\CYMR90~1\AppData\Local\Temp\ccLPYcmd.s:27770  .debug_str:000000000001ec8e .LASF5019
C:\Users\CYMR90~1\AppData\Local\Temp\ccLPYcmd.s:21675  .debug_str:0000000000006674 .LASF5020
C:\Users\CYMR90~1\AppData\Local\Temp\ccLPYcmd.s:22143  .debug_str:00000000000085b7 .LASF5021
C:\Users\CYMR90~1\AppData\Local\Temp\ccLPYcmd.s:24827  .debug_str:0000000000013067 .LASF5022
C:\Users\CYMR90~1\AppData\Local\Temp\ccLPYcmd.s:24239  .debug_str:0000000000010a17 .LASF5023
C:\Users\CYMR90~1\AppData\Local\Temp\ccLPYcmd.s:28620  .debug_str:000000000002208d .LASF5024
C:\Users\CYMR90~1\AppData\Local\Temp\ccLPYcmd.s:27652  .debug_str:000000000001e566 .LASF5025
C:\Users\CYMR90~1\AppData\Local\Temp\ccLPYcmd.s:21351  .debug_str:0000000000005362 .LASF5026
C:\Users\CYMR90~1\AppData\Local\Temp\ccLPYcmd.s:28452  .debug_str:0000000000021638 .LASF5027
C:\Users\CYMR90~1\AppData\Local\Temp\ccLPYcmd.s:25569  .debug_str:0000000000015d48 .LASF5028
C:\Users\CYMR90~1\AppData\Local\Temp\ccLPYcmd.s:21585  .debug_str:00000000000060f9 .LASF5029
C:\Users\CYMR90~1\AppData\Local\Temp\ccLPYcmd.s:26568  .debug_str:0000000000019eb0 .LASF5030
C:\Users\CYMR90~1\AppData\Local\Temp\ccLPYcmd.s:25401  .debug_str:000000000001535c .LASF5031
C:\Users\CYMR90~1\AppData\Local\Temp\ccLPYcmd.s:28092  .debug_str:000000000002003d .LASF5032
C:\Users\CYMR90~1\AppData\Local\Temp\ccLPYcmd.s:30288  .debug_str:0000000000028c22 .LASF5033
C:\Users\CYMR90~1\AppData\Local\Temp\ccLPYcmd.s:25043  .debug_str:0000000000013dd5 .LASF5034
C:\Users\CYMR90~1\AppData\Local\Temp\ccLPYcmd.s:24977  .debug_str:0000000000013a08 .LASF5035
C:\Users\CYMR90~1\AppData\Local\Temp\ccLPYcmd.s:20647  .debug_str:000000000000257b .LASF5036
C:\Users\CYMR90~1\AppData\Local\Temp\ccLPYcmd.s:27704  .debug_str:000000000001e897 .LASF5037
C:\Users\CYMR90~1\AppData\Local\Temp\ccLPYcmd.s:27156  .debug_str:000000000001c4cd .LASF5038
C:\Users\CYMR90~1\AppData\Local\Temp\ccLPYcmd.s:29506  .debug_str:00000000000258b1 .LASF5039
C:\Users\CYMR90~1\AppData\Local\Temp\ccLPYcmd.s:21729  .debug_str:00000000000069e3 .LASF5040
C:\Users\CYMR90~1\AppData\Local\Temp\ccLPYcmd.s:20503  .debug_str:0000000000001d4b .LASF5041
C:\Users\CYMR90~1\AppData\Local\Temp\ccLPYcmd.s:22331  .debug_str:0000000000009121 .LASF5042
C:\Users\CYMR90~1\AppData\Local\Temp\ccLPYcmd.s:22495  .debug_str:0000000000009b66 .LASF5043
C:\Users\CYMR90~1\AppData\Local\Temp\ccLPYcmd.s:20515  .debug_str:0000000000001dec .LASF5044
C:\Users\CYMR90~1\AppData\Local\Temp\ccLPYcmd.s:31206  .debug_str:000000000002c4fc .LASF5045
C:\Users\CYMR90~1\AppData\Local\Temp\ccLPYcmd.s:23161  .debug_str:000000000000c712 .LASF5046
C:\Users\CYMR90~1\AppData\Local\Temp\ccLPYcmd.s:25679  .debug_str:0000000000016421 .LASF5047
C:\Users\CYMR90~1\AppData\Local\Temp\ccLPYcmd.s:24765  .debug_str:0000000000012c50 .LASF5048
C:\Users\CYMR90~1\AppData\Local\Temp\ccLPYcmd.s:22819  .debug_str:000000000000b11d .LASF5049
C:\Users\CYMR90~1\AppData\Local\Temp\ccLPYcmd.s:25337  .debug_str:0000000000014fb8 .LASF5050
C:\Users\CYMR90~1\AppData\Local\Temp\ccLPYcmd.s:21867  .debug_str:0000000000007285 .LASF5051
C:\Users\CYMR90~1\AppData\Local\Temp\ccLPYcmd.s:26112  .debug_str:00000000000180ec .LASF5052
C:\Users\CYMR90~1\AppData\Local\Temp\ccLPYcmd.s:23975  .debug_str:000000000000fa2e .LASF5053
C:\Users\CYMR90~1\AppData\Local\Temp\ccLPYcmd.s:25499  .debug_str:0000000000015907 .LASF5054
C:\Users\CYMR90~1\AppData\Local\Temp\ccLPYcmd.s:22015  .debug_str:0000000000007c4f .LASF5055
C:\Users\CYMR90~1\AppData\Local\Temp\ccLPYcmd.s:26782  .debug_str:000000000001ad6d .LASF5056
C:\Users\CYMR90~1\AppData\Local\Temp\ccLPYcmd.s:31446  .debug_str:000000000002d4b5 .LASF5057
C:\Users\CYMR90~1\AppData\Local\Temp\ccLPYcmd.s:20941  .debug_str:000000000000386c .LASF5058
C:\Users\CYMR90~1\AppData\Local\Temp\ccLPYcmd.s:24621  .debug_str:00000000000122ca .LASF5059
C:\Users\CYMR90~1\AppData\Local\Temp\ccLPYcmd.s:21923  .debug_str:0000000000007643 .LASF5060
C:\Users\CYMR90~1\AppData\Local\Temp\ccLPYcmd.s:21309  .debug_str:00000000000050d9 .LASF5061
C:\Users\CYMR90~1\AppData\Local\Temp\ccLPYcmd.s:20519  .debug_str:0000000000001e45 .LASF5062
C:\Users\CYMR90~1\AppData\Local\Temp\ccLPYcmd.s:22491  .debug_str:0000000000009b22 .LASF5063
C:\Users\CYMR90~1\AppData\Local\Temp\ccLPYcmd.s:23397  .debug_str:000000000000d702 .LASF5064
C:\Users\CYMR90~1\AppData\Local\Temp\ccLPYcmd.s:20593  .debug_str:000000000000220e .LASF5065
C:\Users\CYMR90~1\AppData\Local\Temp\ccLPYcmd.s:30592  .debug_str:0000000000029ed7 .LASF5066
C:\Users\CYMR90~1\AppData\Local\Temp\ccLPYcmd.s:28212  .debug_str:00000000000207b9 .LASF5067
C:\Users\CYMR90~1\AppData\Local\Temp\ccLPYcmd.s:29948  .debug_str:00000000000274aa .LASF5068
C:\Users\CYMR90~1\AppData\Local\Temp\ccLPYcmd.s:20459  .debug_str:0000000000001a8b .LASF5069
C:\Users\CYMR90~1\AppData\Local\Temp\ccLPYcmd.s:23995  .debug_str:000000000000fb45 .LASF5070
C:\Users\CYMR90~1\AppData\Local\Temp\ccLPYcmd.s:22379  .debug_str:00000000000093df .LASF5071
C:\Users\CYMR90~1\AppData\Local\Temp\ccLPYcmd.s:29394  .debug_str:0000000000025030 .LASF5072
C:\Users\CYMR90~1\AppData\Local\Temp\ccLPYcmd.s:30882  .debug_str:000000000002b019 .LASF5073
C:\Users\CYMR90~1\AppData\Local\Temp\ccLPYcmd.s:25832  .debug_str:0000000000017086 .LASF5074
C:\Users\CYMR90~1\AppData\Local\Temp\ccLPYcmd.s:25942  .debug_str:00000000000176a1 .LASF5075
C:\Users\CYMR90~1\AppData\Local\Temp\ccLPYcmd.s:27514  .debug_str:000000000001dca2 .LASF5076
C:\Users\CYMR90~1\AppData\Local\Temp\ccLPYcmd.s:22619  .debug_str:000000000000a2ef .LASF5077
C:\Users\CYMR90~1\AppData\Local\Temp\ccLPYcmd.s:27954  .debug_str:000000000001f7be .LASF5078
C:\Users\CYMR90~1\AppData\Local\Temp\ccLPYcmd.s:29154  .debug_str:0000000000023fdf .LASF5079
C:\Users\CYMR90~1\AppData\Local\Temp\ccLPYcmd.s:24757  .debug_str:0000000000012be3 .LASF5080
C:\Users\CYMR90~1\AppData\Local\Temp\ccLPYcmd.s:20945  .debug_str:00000000000038a5 .LASF5081
C:\Users\CYMR90~1\AppData\Local\Temp\ccLPYcmd.s:21127  .debug_str:00000000000044af .LASF5082
C:\Users\CYMR90~1\AppData\Local\Temp\ccLPYcmd.s:30100  .debug_str:0000000000027ed5 .LASF5083
C:\Users\CYMR90~1\AppData\Local\Temp\ccLPYcmd.s:24411  .debug_str:00000000000114bc .LASF5084
C:\Users\CYMR90~1\AppData\Local\Temp\ccLPYcmd.s:22991  .debug_str:000000000000bc1f .LASF5085
C:\Users\CYMR90~1\AppData\Local\Temp\ccLPYcmd.s:29146  .debug_str:0000000000023f62 .LASF5086
C:\Users\CYMR90~1\AppData\Local\Temp\ccLPYcmd.s:29254  .debug_str:0000000000024721 .LASF5087
C:\Users\CYMR90~1\AppData\Local\Temp\ccLPYcmd.s:25471  .debug_str:000000000001574c .LASF5088
C:\Users\CYMR90~1\AppData\Local\Temp\ccLPYcmd.s:20969  .debug_str:0000000000003a38 .LASF5089
C:\Users\CYMR90~1\AppData\Local\Temp\ccLPYcmd.s:25812  .debug_str:0000000000016f50 .LASF5090
C:\Users\CYMR90~1\AppData\Local\Temp\ccLPYcmd.s:20915  .debug_str:00000000000036de .LASF5091
C:\Users\CYMR90~1\AppData\Local\Temp\ccLPYcmd.s:21245  .debug_str:0000000000004d03 .LASF5092
C:\Users\CYMR90~1\AppData\Local\Temp\ccLPYcmd.s:21637  .debug_str:000000000000642c .LASF5093
C:\Users\CYMR90~1\AppData\Local\Temp\ccLPYcmd.s:29738  .debug_str:000000000002676a .LASF5094
C:\Users\CYMR90~1\AppData\Local\Temp\ccLPYcmd.s:30660  .debug_str:000000000002a2be .LASF5095
C:\Users\CYMR90~1\AppData\Local\Temp\ccLPYcmd.s:20153  .debug_str:000000000000073c .LASF5096
C:\Users\CYMR90~1\AppData\Local\Temp\ccLPYcmd.s:26698  .debug_str:000000000001a85b .LASF5097
C:\Users\CYMR90~1\AppData\Local\Temp\ccLPYcmd.s:31146  .debug_str:000000000002c0c2 .LASF5098
C:\Users\CYMR90~1\AppData\Local\Temp\ccLPYcmd.s:22803  .debug_str:000000000000af7c .LASF5099
C:\Users\CYMR90~1\AppData\Local\Temp\ccLPYcmd.s:21723  .debug_str:000000000000698b .LASF5100
C:\Users\CYMR90~1\AppData\Local\Temp\ccLPYcmd.s:30048  .debug_str:0000000000027b18 .LASF5101
C:\Users\CYMR90~1\AppData\Local\Temp\ccLPYcmd.s:26724  .debug_str:000000000001a9dc .LASF5102
C:\Users\CYMR90~1\AppData\Local\Temp\ccLPYcmd.s:27860  .debug_str:000000000001f230 .LASF5103
C:\Users\CYMR90~1\AppData\Local\Temp\ccLPYcmd.s:26990  .debug_str:000000000001baa6 .LASF5104
C:\Users\CYMR90~1\AppData\Local\Temp\ccLPYcmd.s:21427  .debug_str:00000000000057e4 .LASF5105
C:\Users\CYMR90~1\AppData\Local\Temp\ccLPYcmd.s:28916  .debug_str:000000000002321c .LASF5106
C:\Users\CYMR90~1\AppData\Local\Temp\ccLPYcmd.s:28934  .debug_str:00000000000232f4 .LASF5107
C:\Users\CYMR90~1\AppData\Local\Temp\ccLPYcmd.s:29426  .debug_str:00000000000251fd .LASF5108
C:\Users\CYMR90~1\AppData\Local\Temp\ccLPYcmd.s:30360  .debug_str:0000000000029045 .LASF5109
C:\Users\CYMR90~1\AppData\Local\Temp\ccLPYcmd.s:28974  .debug_str:0000000000023548 .LASF5110
C:\Users\CYMR90~1\AppData\Local\Temp\ccLPYcmd.s:30482  .debug_str:0000000000029858 .LASF5111
C:\Users\CYMR90~1\AppData\Local\Temp\ccLPYcmd.s:24833  .debug_str:00000000000130c5 .LASF5112
C:\Users\CYMR90~1\AppData\Local\Temp\ccLPYcmd.s:24661  .debug_str:000000000001255b .LASF5113
C:\Users\CYMR90~1\AppData\Local\Temp\ccLPYcmd.s:28494  .debug_str:00000000000218b8 .LASF5114
C:\Users\CYMR90~1\AppData\Local\Temp\ccLPYcmd.s:31416  .debug_str:000000000002d2cb .LASF5115
C:\Users\CYMR90~1\AppData\Local\Temp\ccLPYcmd.s:24837  .debug_str:0000000000013109 .LASF5116
C:\Users\CYMR90~1\AppData\Local\Temp\ccLPYcmd.s:27502  .debug_str:000000000001dbe7 .LASF5117
C:\Users\CYMR90~1\AppData\Local\Temp\ccLPYcmd.s:21301  .debug_str:0000000000005065 .LASF5118
C:\Users\CYMR90~1\AppData\Local\Temp\ccLPYcmd.s:28478  .debug_str:00000000000217c1 .LASF5119
C:\Users\CYMR90~1\AppData\Local\Temp\ccLPYcmd.s:25749  .debug_str:0000000000016929 .LASF5120
C:\Users\CYMR90~1\AppData\Local\Temp\ccLPYcmd.s:20813  .debug_str:0000000000003034 .LASF5121
C:\Users\CYMR90~1\AppData\Local\Temp\ccLPYcmd.s:27764  .debug_str:000000000001ec3a .LASF5122
C:\Users\CYMR90~1\AppData\Local\Temp\ccLPYcmd.s:28722  .debug_str:0000000000022646 .LASF5123
C:\Users\CYMR90~1\AppData\Local\Temp\ccLPYcmd.s:21591  .debug_str:000000000000616b .LASF5124
C:\Users\CYMR90~1\AppData\Local\Temp\ccLPYcmd.s:29184  .debug_str:000000000002417d .LASF5125
C:\Users\CYMR90~1\AppData\Local\Temp\ccLPYcmd.s:27394  .debug_str:000000000001d516 .LASF5126
C:\Users\CYMR90~1\AppData\Local\Temp\ccLPYcmd.s:27374  .debug_str:000000000001d3e3 .LASF5127
C:\Users\CYMR90~1\AppData\Local\Temp\ccLPYcmd.s:20299  .debug_str:0000000000001079 .LASF5128
C:\Users\CYMR90~1\AppData\Local\Temp\ccLPYcmd.s:24713  .debug_str:00000000000128d8 .LASF5129
C:\Users\CYMR90~1\AppData\Local\Temp\ccLPYcmd.s:20475  .debug_str:0000000000001b7a .LASF5130
C:\Users\CYMR90~1\AppData\Local\Temp\ccLPYcmd.s:21893  .debug_str:0000000000007475 .LASF5131
C:\Users\CYMR90~1\AppData\Local\Temp\ccLPYcmd.s:26706  .debug_str:000000000001a8bf .LASF5132
C:\Users\CYMR90~1\AppData\Local\Temp\ccLPYcmd.s:30606  .debug_str:0000000000029fb0 .LASF5133
C:\Users\CYMR90~1\AppData\Local\Temp\ccLPYcmd.s:23175  .debug_str:000000000000c803 .LASF5134
C:\Users\CYMR90~1\AppData\Local\Temp\ccLPYcmd.s:22787  .debug_str:000000000000ae3f .LASF5135
C:\Users\CYMR90~1\AppData\Local\Temp\ccLPYcmd.s:23809  .debug_str:000000000000ef6a .LASF5136
C:\Users\CYMR90~1\AppData\Local\Temp\ccLPYcmd.s:21763  .debug_str:0000000000006be7 .LASF5137
C:\Users\CYMR90~1\AppData\Local\Temp\ccLPYcmd.s:29788  .debug_str:0000000000026ad0 .LASF5138
C:\Users\CYMR90~1\AppData\Local\Temp\ccLPYcmd.s:20651  .debug_str:00000000000025b1 .LASF5139
C:\Users\CYMR90~1\AppData\Local\Temp\ccLPYcmd.s:28962  .debug_str:0000000000023480 .LASF5140
C:\Users\CYMR90~1\AppData\Local\Temp\ccLPYcmd.s:25735  .debug_str:00000000000167ff .LASF5141
C:\Users\CYMR90~1\AppData\Local\Temp\ccLPYcmd.s:23299  .debug_str:000000000000d025 .LASF5142
C:\Users\CYMR90~1\AppData\Local\Temp\ccLPYcmd.s:23993  .debug_str:000000000000fb25 .LASF5143
C:\Users\CYMR90~1\AppData\Local\Temp\ccLPYcmd.s:30144  .debug_str:00000000000281cb .LASF5144
C:\Users\CYMR90~1\AppData\Local\Temp\ccLPYcmd.s:21975  .debug_str:00000000000079a5 .LASF5145
C:\Users\CYMR90~1\AppData\Local\Temp\ccLPYcmd.s:23415  .debug_str:000000000000d854 .LASF5146
C:\Users\CYMR90~1\AppData\Local\Temp\ccLPYcmd.s:31334  .debug_str:000000000002cd5d .LASF5147
C:\Users\CYMR90~1\AppData\Local\Temp\ccLPYcmd.s:23037  .debug_str:000000000000bfa3 .LASF5148
C:\Users\CYMR90~1\AppData\Local\Temp\ccLPYcmd.s:22593  .debug_str:000000000000a15e .LASF5149
C:\Users\CYMR90~1\AppData\Local\Temp\ccLPYcmd.s:30052  .debug_str:0000000000027b70 .LASF5150
C:\Users\CYMR90~1\AppData\Local\Temp\ccLPYcmd.s:24449  .debug_str:0000000000011732 .LASF5151
C:\Users\CYMR90~1\AppData\Local\Temp\ccLPYcmd.s:21221  .debug_str:0000000000004b80 .LASF5152
C:\Users\CYMR90~1\AppData\Local\Temp\ccLPYcmd.s:22535  .debug_str:0000000000009db4 .LASF5153
C:\Users\CYMR90~1\AppData\Local\Temp\ccLPYcmd.s:26356  .debug_str:000000000001913c .LASF5154
C:\Users\CYMR90~1\AppData\Local\Temp\ccLPYcmd.s:27336  .debug_str:000000000001d1a5 .LASF5155
C:\Users\CYMR90~1\AppData\Local\Temp\ccLPYcmd.s:27558  .debug_str:000000000001dff2 .LASF5156
C:\Users\CYMR90~1\AppData\Local\Temp\ccLPYcmd.s:23255  .debug_str:000000000000cda6 .LASF5157
C:\Users\CYMR90~1\AppData\Local\Temp\ccLPYcmd.s:20745  .debug_str:0000000000002bf2 .LASF5158
C:\Users\CYMR90~1\AppData\Local\Temp\ccLPYcmd.s:23647  .debug_str:000000000000e5f3 .LASF5159
C:\Users\CYMR90~1\AppData\Local\Temp\ccLPYcmd.s:26528  .debug_str:0000000000019c60 .LASF5160
C:\Users\CYMR90~1\AppData\Local\Temp\ccLPYcmd.s:26272  .debug_str:0000000000018a92 .LASF5161
C:\Users\CYMR90~1\AppData\Local\Temp\ccLPYcmd.s:29036  .debug_str:0000000000023917 .LASF5162
C:\Users\CYMR90~1\AppData\Local\Temp\ccLPYcmd.s:21181  .debug_str:000000000000484e .LASF5163
C:\Users\CYMR90~1\AppData\Local\Temp\ccLPYcmd.s:20225  .debug_str:0000000000000bbd .LASF5164
C:\Users\CYMR90~1\AppData\Local\Temp\ccLPYcmd.s:22221  .debug_str:0000000000008a56 .LASF5165
C:\Users\CYMR90~1\AppData\Local\Temp\ccLPYcmd.s:25297  .debug_str:0000000000014d1e .LASF5166
C:\Users\CYMR90~1\AppData\Local\Temp\ccLPYcmd.s:31208  .debug_str:000000000002c514 .LASF5167
C:\Users\CYMR90~1\AppData\Local\Temp\ccLPYcmd.s:22123  .debug_str:0000000000008451 .LASF5168
C:\Users\CYMR90~1\AppData\Local\Temp\ccLPYcmd.s:22679  .debug_str:000000000000a6b2 .LASF5169
C:\Users\CYMR90~1\AppData\Local\Temp\ccLPYcmd.s:26362  .debug_str:000000000001919e .LASF5170
C:\Users\CYMR90~1\AppData\Local\Temp\ccLPYcmd.s:23587  .debug_str:000000000000e256 .LASF5171
C:\Users\CYMR90~1\AppData\Local\Temp\ccLPYcmd.s:31256  .debug_str:000000000002c895 .LASF5172
C:\Users\CYMR90~1\AppData\Local\Temp\ccLPYcmd.s:20463  .debug_str:0000000000001ac9 .LASF5173
C:\Users\CYMR90~1\AppData\Local\Temp\ccLPYcmd.s:30134  .debug_str:000000000002811a .LASF5174
C:\Users\CYMR90~1\AppData\Local\Temp\ccLPYcmd.s:27456  .debug_str:000000000001d93a .LASF5175
C:\Users\CYMR90~1\AppData\Local\Temp\ccLPYcmd.s:25792  .debug_str:0000000000016dfb .LASF5176
C:\Users\CYMR90~1\AppData\Local\Temp\ccLPYcmd.s:22643  .debug_str:000000000000a499 .LASF5177
C:\Users\CYMR90~1\AppData\Local\Temp\ccLPYcmd.s:28542  .debug_str:0000000000021b8c .LASF5178
C:\Users\CYMR90~1\AppData\Local\Temp\ccLPYcmd.s:28096  .debug_str:000000000002006b .LASF5179
C:\Users\CYMR90~1\AppData\Local\Temp\ccLPYcmd.s:24959  .debug_str:00000000000138f5 .LASF5180
C:\Users\CYMR90~1\AppData\Local\Temp\ccLPYcmd.s:24935  .debug_str:0000000000013778 .LASF5181
C:\Users\CYMR90~1\AppData\Local\Temp\ccLPYcmd.s:29224  .debug_str:000000000002451d .LASF5182
C:\Users\CYMR90~1\AppData\Local\Temp\ccLPYcmd.s:29740  .debug_str:0000000000026785 .LASF5183
C:\Users\CYMR90~1\AppData\Local\Temp\ccLPYcmd.s:20713  .debug_str:00000000000029e5 .LASF5184
C:\Users\CYMR90~1\AppData\Local\Temp\ccLPYcmd.s:24513  .debug_str:0000000000011c05 .LASF5185
C:\Users\CYMR90~1\AppData\Local\Temp\ccLPYcmd.s:29798  .debug_str:0000000000026b5a .LASF5186
C:\Users\CYMR90~1\AppData\Local\Temp\ccLPYcmd.s:20861  .debug_str:000000000000333e .LASF5187
C:\Users\CYMR90~1\AppData\Local\Temp\ccLPYcmd.s:28020  .debug_str:000000000001fb9c .LASF5188
C:\Users\CYMR90~1\AppData\Local\Temp\ccLPYcmd.s:24921  .debug_str:00000000000136cb .LASF5189
C:\Users\CYMR90~1\AppData\Local\Temp\ccLPYcmd.s:30476  .debug_str:00000000000297dc .LASF5190
C:\Users\CYMR90~1\AppData\Local\Temp\ccLPYcmd.s:22625  .debug_str:000000000000a346 .LASF5191
C:\Users\CYMR90~1\AppData\Local\Temp\ccLPYcmd.s:26352  .debug_str:00000000000190e9 .LASF5192
C:\Users\CYMR90~1\AppData\Local\Temp\ccLPYcmd.s:30734  .debug_str:000000000002a6fc .LASF5193
C:\Users\CYMR90~1\AppData\Local\Temp\ccLPYcmd.s:23595  .debug_str:000000000000e2d7 .LASF5194
C:\Users\CYMR90~1\AppData\Local\Temp\ccLPYcmd.s:30726  .debug_str:000000000002a686 .LASF5195
C:\Users\CYMR90~1\AppData\Local\Temp\ccLPYcmd.s:20791  .debug_str:0000000000002ee1 .LASF5196
C:\Users\CYMR90~1\AppData\Local\Temp\ccLPYcmd.s:26784  .debug_str:000000000001ad85 .LASF5197
C:\Users\CYMR90~1\AppData\Local\Temp\ccLPYcmd.s:23905  .debug_str:000000000000f557 .LASF5198
C:\Users\CYMR90~1\AppData\Local\Temp\ccLPYcmd.s:25103  .debug_str:00000000000141b7 .LASF5199
C:\Users\CYMR90~1\AppData\Local\Temp\ccLPYcmd.s:30366  .debug_str:00000000000290ab .LASF5200
C:\Users\CYMR90~1\AppData\Local\Temp\ccLPYcmd.s:22351  .debug_str:0000000000009226 .LASF5201
C:\Users\CYMR90~1\AppData\Local\Temp\ccLPYcmd.s:20285  .debug_str:0000000000000fab .LASF5202
C:\Users\CYMR90~1\AppData\Local\Temp\ccLPYcmd.s:30778  .debug_str:000000000002a9fe .LASF5203
C:\Users\CYMR90~1\AppData\Local\Temp\ccLPYcmd.s:21175  .debug_str:00000000000047d6 .LASF5204
C:\Users\CYMR90~1\AppData\Local\Temp\ccLPYcmd.s:29512  .debug_str:000000000002590e .LASF5205
C:\Users\CYMR90~1\AppData\Local\Temp\ccLPYcmd.s:27976  .debug_str:000000000001f8db .LASF5206
C:\Users\CYMR90~1\AppData\Local\Temp\ccLPYcmd.s:27132  .debug_str:000000000001c381 .LASF5207
C:\Users\CYMR90~1\AppData\Local\Temp\ccLPYcmd.s:28114  .debug_str:000000000002017d .LASF5208
C:\Users\CYMR90~1\AppData\Local\Temp\ccLPYcmd.s:31396  .debug_str:000000000002d1c2 .LASF5209
C:\Users\CYMR90~1\AppData\Local\Temp\ccLPYcmd.s:20919  .debug_str:000000000000370d .LASF5210
C:\Users\CYMR90~1\AppData\Local\Temp\ccLPYcmd.s:27724  .debug_str:000000000001e9eb .LASF5211
C:\Users\CYMR90~1\AppData\Local\Temp\ccLPYcmd.s:28512  .debug_str:00000000000219f9 .LASF5212
C:\Users\CYMR90~1\AppData\Local\Temp\ccLPYcmd.s:20485  .debug_str:0000000000001c24 .LASF5213
C:\Users\CYMR90~1\AppData\Local\Temp\ccLPYcmd.s:24753  .debug_str:0000000000012b96 .LASF5214
C:\Users\CYMR90~1\AppData\Local\Temp\ccLPYcmd.s:26058  .debug_str:0000000000017dbc .LASF5215
C:\Users\CYMR90~1\AppData\Local\Temp\ccLPYcmd.s:24247  .debug_str:0000000000010ac5 .LASF5216
C:\Users\CYMR90~1\AppData\Local\Temp\ccLPYcmd.s:26162  .debug_str:00000000000183ad .LASF5217
C:\Users\CYMR90~1\AppData\Local\Temp\ccLPYcmd.s:26746  .debug_str:000000000001ab5c .LASF5218
C:\Users\CYMR90~1\AppData\Local\Temp\ccLPYcmd.s:28120  .debug_str:00000000000201de .LASF5219
C:\Users\CYMR90~1\AppData\Local\Temp\ccLPYcmd.s:20351  .debug_str:0000000000001360 .LASF5220
C:\Users\CYMR90~1\AppData\Local\Temp\ccLPYcmd.s:25217  .debug_str:000000000001487f .LASF5221
C:\Users\CYMR90~1\AppData\Local\Temp\ccLPYcmd.s:26600  .debug_str:000000000001a08f .LASF5222
C:\Users\CYMR90~1\AppData\Local\Temp\ccLPYcmd.s:21389  .debug_str:00000000000055a0 .LASF5223
C:\Users\CYMR90~1\AppData\Local\Temp\ccLPYcmd.s:29246  .debug_str:000000000002468f .LASF5224
C:\Users\CYMR90~1\AppData\Local\Temp\ccLPYcmd.s:30138  .debug_str:000000000002815d .LASF5225
C:\Users\CYMR90~1\AppData\Local\Temp\ccLPYcmd.s:21995  .debug_str:0000000000007ae4 .LASF5226
C:\Users\CYMR90~1\AppData\Local\Temp\ccLPYcmd.s:31216  .debug_str:000000000002c5bb .LASF5227
C:\Users\CYMR90~1\AppData\Local\Temp\ccLPYcmd.s:20599  .debug_str:0000000000002272 .LASF5228
C:\Users\CYMR90~1\AppData\Local\Temp\ccLPYcmd.s:25978  .debug_str:00000000000178ee .LASF5229
C:\Users\CYMR90~1\AppData\Local\Temp\ccLPYcmd.s:22103  .debug_str:0000000000008315 .LASF5230
C:\Users\CYMR90~1\AppData\Local\Temp\ccLPYcmd.s:21691  .debug_str:0000000000006750 .LASF5231
C:\Users\CYMR90~1\AppData\Local\Temp\ccLPYcmd.s:21293  .debug_str:0000000000004fda .LASF5232
C:\Users\CYMR90~1\AppData\Local\Temp\ccLPYcmd.s:29958  .debug_str:00000000000275e3 .LASF5233
C:\Users\CYMR90~1\AppData\Local\Temp\ccLPYcmd.s:26104  .debug_str:0000000000018054 .LASF5234
C:\Users\CYMR90~1\AppData\Local\Temp\ccLPYcmd.s:24691  .debug_str:000000000001276e .LASF5235
C:\Users\CYMR90~1\AppData\Local\Temp\ccLPYcmd.s:23203  .debug_str:000000000000ca25 .LASF5236
C:\Users\CYMR90~1\AppData\Local\Temp\ccLPYcmd.s:27706  .debug_str:000000000001e8b5 .LASF5237
C:\Users\CYMR90~1\AppData\Local\Temp\ccLPYcmd.s:22349  .debug_str:00000000000091f5 .LASF5238
C:\Users\CYMR90~1\AppData\Local\Temp\ccLPYcmd.s:30946  .debug_str:000000000002b3b3 .LASF5239
C:\Users\CYMR90~1\AppData\Local\Temp\ccLPYcmd.s:27698  .debug_str:000000000001e803 .LASF5240
C:\Users\CYMR90~1\AppData\Local\Temp\ccLPYcmd.s:22193  .debug_str:0000000000008882 .LASF5241
C:\Users\CYMR90~1\AppData\Local\Temp\ccLPYcmd.s:30044  .debug_str:0000000000027ae6 .LASF5242
C:\Users\CYMR90~1\AppData\Local\Temp\ccLPYcmd.s:31438  .debug_str:000000000002d433 .LASF5243
C:\Users\CYMR90~1\AppData\Local\Temp\ccLPYcmd.s:28030  .debug_str:000000000001fc42 .LASF5244
C:\Users\CYMR90~1\AppData\Local\Temp\ccLPYcmd.s:30336  .debug_str:0000000000028ee6 .LASF5245
C:\Users\CYMR90~1\AppData\Local\Temp\ccLPYcmd.s:21275  .debug_str:0000000000004eb7 .LASF5246
C:\Users\CYMR90~1\AppData\Local\Temp\ccLPYcmd.s:21611  .debug_str:00000000000062b4 .LASF5247
C:\Users\CYMR90~1\AppData\Local\Temp\ccLPYcmd.s:26620  .debug_str:000000000001a1a6 .LASF5248
C:\Users\CYMR90~1\AppData\Local\Temp\ccLPYcmd.s:25305  .debug_str:0000000000014dd8 .LASF5249
C:\Users\CYMR90~1\AppData\Local\Temp\ccLPYcmd.s:24043  .debug_str:000000000000fe48 .LASF5250
C:\Users\CYMR90~1\AppData\Local\Temp\ccLPYcmd.s:30796  .debug_str:000000000002ab10 .LASF5251
C:\Users\CYMR90~1\AppData\Local\Temp\ccLPYcmd.s:27746  .debug_str:000000000001eb32 .LASF5252
C:\Users\CYMR90~1\AppData\Local\Temp\ccLPYcmd.s:28580  .debug_str:0000000000021e0b .LASF5253
C:\Users\CYMR90~1\AppData\Local\Temp\ccLPYcmd.s:26820  .debug_str:000000000001b035 .LASF5254
C:\Users\CYMR90~1\AppData\Local\Temp\ccLPYcmd.s:22397  .debug_str:00000000000094d8 .LASF5255
C:\Users\CYMR90~1\AppData\Local\Temp\ccLPYcmd.s:28396  .debug_str:0000000000021226 .LASF5256
C:\Users\CYMR90~1\AppData\Local\Temp\ccLPYcmd.s:24473  .debug_str:0000000000011940 .LASF5257
C:\Users\CYMR90~1\AppData\Local\Temp\ccLPYcmd.s:20697  .debug_str:00000000000028db .LASF5258
C:\Users\CYMR90~1\AppData\Local\Temp\ccLPYcmd.s:27754  .debug_str:000000000001ebac .LASF5259
C:\Users\CYMR90~1\AppData\Local\Temp\ccLPYcmd.s:22635  .debug_str:000000000000a3e5 .LASF5260
C:\Users\CYMR90~1\AppData\Local\Temp\ccLPYcmd.s:20033  .debug_str:0000000000000000 .LASF5261
C:\Users\CYMR90~1\AppData\Local\Temp\ccLPYcmd.s:20495  .debug_str:0000000000001cc9 .LASF5262
C:\Users\CYMR90~1\AppData\Local\Temp\ccLPYcmd.s:30478  .debug_str:0000000000029809 .LASF5263
C:\Users\CYMR90~1\AppData\Local\Temp\ccLPYcmd.s:29330  .debug_str:0000000000024c17 .LASF5264
C:\Users\CYMR90~1\AppData\Local\Temp\ccLPYcmd.s:30108  .debug_str:0000000000027f4c .LASF5265
C:\Users\CYMR90~1\AppData\Local\Temp\ccLPYcmd.s:21393  .debug_str:00000000000055ea .LASF5266
C:\Users\CYMR90~1\AppData\Local\Temp\ccLPYcmd.s:25761  .debug_str:00000000000169ef .LASF5267
C:\Users\CYMR90~1\AppData\Local\Temp\ccLPYcmd.s:28066  .debug_str:000000000001fe86 .LASF5268
C:\Users\CYMR90~1\AppData\Local\Temp\ccLPYcmd.s:26712  .debug_str:000000000001a928 .LASF5269
C:\Users\CYMR90~1\AppData\Local\Temp\ccLPYcmd.s:31420  .debug_str:000000000002d30d .LASF5270
C:\Users\CYMR90~1\AppData\Local\Temp\ccLPYcmd.s:25886  .debug_str:0000000000017375 .LASF5271
C:\Users\CYMR90~1\AppData\Local\Temp\ccLPYcmd.s:21579  .debug_str:0000000000006092 .LASF5272
C:\Users\CYMR90~1\AppData\Local\Temp\ccLPYcmd.s:23865  .debug_str:000000000000f2e7 .LASF5273
C:\Users\CYMR90~1\AppData\Local\Temp\ccLPYcmd.s:24581  .debug_str:000000000001203f .LASF5274
C:\Users\CYMR90~1\AppData\Local\Temp\ccLPYcmd.s:26220  .debug_str:000000000001873a .LASF5275
C:\Users\CYMR90~1\AppData\Local\Temp\ccLPYcmd.s:28592  .debug_str:0000000000021eaf .LASF5276
C:\Users\CYMR90~1\AppData\Local\Temp\ccLPYcmd.s:29496  .debug_str:00000000000257d3 .LASF5277
C:\Users\CYMR90~1\AppData\Local\Temp\ccLPYcmd.s:30294  .debug_str:0000000000028c6d .LASF5278
C:\Users\CYMR90~1\AppData\Local\Temp\ccLPYcmd.s:29742  .debug_str:00000000000267af .LASF5279
C:\Users\CYMR90~1\AppData\Local\Temp\ccLPYcmd.s:24383  .debug_str:0000000000011316 .LASF5280
C:\Users\CYMR90~1\AppData\Local\Temp\ccLPYcmd.s:23297  .debug_str:000000000000cff5 .LASF5281
C:\Users\CYMR90~1\AppData\Local\Temp\ccLPYcmd.s:28232  .debug_str:00000000000208cd .LASF5282
C:\Users\CYMR90~1\AppData\Local\Temp\ccLPYcmd.s:23943  .debug_str:000000000000f823 .LASF5283
C:\Users\CYMR90~1\AppData\Local\Temp\ccLPYcmd.s:23261  .debug_str:000000000000ce07 .LASF5284
C:\Users\CYMR90~1\AppData\Local\Temp\ccLPYcmd.s:29718  .debug_str:000000000002662c .LASF5285
C:\Users\CYMR90~1\AppData\Local\Temp\ccLPYcmd.s:30800  .debug_str:000000000002ab6d .LASF5286
C:\Users\CYMR90~1\AppData\Local\Temp\ccLPYcmd.s:23067  .debug_str:000000000000c177 .LASF5287
C:\Users\CYMR90~1\AppData\Local\Temp\ccLPYcmd.s:20957  .debug_str:0000000000003989 .LASF5288
C:\Users\CYMR90~1\AppData\Local\Temp\ccLPYcmd.s:21883  .debug_str:00000000000073c5 .LASF5289
C:\Users\CYMR90~1\AppData\Local\Temp\ccLPYcmd.s:23947  .debug_str:000000000000f872 .LASF5290
C:\Users\CYMR90~1\AppData\Local\Temp\ccLPYcmd.s:21457  .debug_str:0000000000005992 .LASF5291
C:\Users\CYMR90~1\AppData\Local\Temp\ccLPYcmd.s:22565  .debug_str:0000000000009f71 .LASF5292
C:\Users\CYMR90~1\AppData\Local\Temp\ccLPYcmd.s:24637  .debug_str:00000000000123e4 .LASF5293
C:\Users\CYMR90~1\AppData\Local\Temp\ccLPYcmd.s:20785  .debug_str:0000000000002e85 .LASF5294
C:\Users\CYMR90~1\AppData\Local\Temp\ccLPYcmd.s:29576  .debug_str:0000000000025db8 .LASF5295
C:\Users\CYMR90~1\AppData\Local\Temp\ccLPYcmd.s:29970  .debug_str:00000000000276c1 .LASF5296
C:\Users\CYMR90~1\AppData\Local\Temp\ccLPYcmd.s:24399  .debug_str:0000000000011409 .LASF5297
C:\Users\CYMR90~1\AppData\Local\Temp\ccLPYcmd.s:29458  .debug_str:000000000002551d .LASF5298
C:\Users\CYMR90~1\AppData\Local\Temp\ccLPYcmd.s:28966  .debug_str:00000000000234b9 .LASF5299
C:\Users\CYMR90~1\AppData\Local\Temp\ccLPYcmd.s:27690  .debug_str:000000000001e783 .LASF5300
C:\Users\CYMR90~1\AppData\Local\Temp\ccLPYcmd.s:28610  .debug_str:0000000000021fe8 .LASF5301
C:\Users\CYMR90~1\AppData\Local\Temp\ccLPYcmd.s:31444  .debug_str:000000000002d48f .LASF5302
C:\Users\CYMR90~1\AppData\Local\Temp\ccLPYcmd.s:28796  .debug_str:0000000000022ac0 .LASF5303
C:\Users\CYMR90~1\AppData\Local\Temp\ccLPYcmd.s:29404  .debug_str:00000000000250c0 .LASF5304
C:\Users\CYMR90~1\AppData\Local\Temp\ccLPYcmd.s:21979  .debug_str:00000000000079d8 .LASF5305
C:\Users\CYMR90~1\AppData\Local\Temp\ccLPYcmd.s:21329  .debug_str:0000000000005206 .LASF5306
C:\Users\CYMR90~1\AppData\Local\Temp\ccLPYcmd.s:28826  .debug_str:0000000000022c85 .LASF5307
C:\Users\CYMR90~1\AppData\Local\Temp\ccLPYcmd.s:24701  .debug_str:0000000000012811 .LASF5308
C:\Users\CYMR90~1\AppData\Local\Temp\ccLPYcmd.s:29298  .debug_str:00000000000249c1 .LASF5309
C:\Users\CYMR90~1\AppData\Local\Temp\ccLPYcmd.s:30622  .debug_str:000000000002a09e .LASF5310
C:\Users\CYMR90~1\AppData\Local\Temp\ccLPYcmd.s:28880  .debug_str:0000000000023017 .LASF5311
C:\Users\CYMR90~1\AppData\Local\Temp\ccLPYcmd.s:29542  .debug_str:0000000000025ba1 .LASF5312
C:\Users\CYMR90~1\AppData\Local\Temp\ccLPYcmd.s:29592  .debug_str:0000000000025e94 .LASF5313
C:\Users\CYMR90~1\AppData\Local\Temp\ccLPYcmd.s:28348  .debug_str:0000000000020f9f .LASF5314
C:\Users\CYMR90~1\AppData\Local\Temp\ccLPYcmd.s:24039  .debug_str:000000000000fe02 .LASF5315
C:\Users\CYMR90~1\AppData\Local\Temp\ccLPYcmd.s:24215  .debug_str:00000000000108a9 .LASF5316
C:\Users\CYMR90~1\AppData\Local\Temp\ccLPYcmd.s:29422  .debug_str:00000000000251be .LASF5317
C:\Users\CYMR90~1\AppData\Local\Temp\ccLPYcmd.s:22741  .debug_str:000000000000ab50 .LASF5318
C:\Users\CYMR90~1\AppData\Local\Temp\ccLPYcmd.s:24249  .debug_str:0000000000010ae4 .LASF5319
C:\Users\CYMR90~1\AppData\Local\Temp\ccLPYcmd.s:30888  .debug_str:000000000002b079 .LASF5320
C:\Users\CYMR90~1\AppData\Local\Temp\ccLPYcmd.s:22271  .debug_str:0000000000008d6e .LASF5321
C:\Users\CYMR90~1\AppData\Local\Temp\ccLPYcmd.s:24207  .debug_str:000000000001083a .LASF5322
C:\Users\CYMR90~1\AppData\Local\Temp\ccLPYcmd.s:29600  .debug_str:0000000000025f05 .LASF5323
C:\Users\CYMR90~1\AppData\Local\Temp\ccLPYcmd.s:20323  .debug_str:00000000000011f2 .LASF5324
C:\Users\CYMR90~1\AppData\Local\Temp\ccLPYcmd.s:25671  .debug_str:00000000000163a6 .LASF5325
C:\Users\CYMR90~1\AppData\Local\Temp\ccLPYcmd.s:25219  .debug_str:00000000000148af .LASF5326
C:\Users\CYMR90~1\AppData\Local\Temp\ccLPYcmd.s:30094  .debug_str:0000000000027e61 .LASF5327
C:\Users\CYMR90~1\AppData\Local\Temp\ccLPYcmd.s:23711  .debug_str:000000000000ea1c .LASF5328
C:\Users\CYMR90~1\AppData\Local\Temp\ccLPYcmd.s:30124  .debug_str:0000000000028083 .LASF5329
C:\Users\CYMR90~1\AppData\Local\Temp\ccLPYcmd.s:27710  .debug_str:000000000001e909 .LASF5330
C:\Users\CYMR90~1\AppData\Local\Temp\ccLPYcmd.s:24455  .debug_str:000000000001178f .LASF5331
C:\Users\CYMR90~1\AppData\Local\Temp\ccLPYcmd.s:28018  .debug_str:000000000001fb6b .LASF5332
C:\Users\CYMR90~1\AppData\Local\Temp\ccLPYcmd.s:21311  .debug_str:00000000000050f7 .LASF5333
C:\Users\CYMR90~1\AppData\Local\Temp\ccLPYcmd.s:24995  .debug_str:0000000000013af0 .LASF5334
C:\Users\CYMR90~1\AppData\Local\Temp\ccLPYcmd.s:28060  .debug_str:000000000001fdef .LASF5335
C:\Users\CYMR90~1\AppData\Local\Temp\ccLPYcmd.s:23571  .debug_str:000000000000e173 .LASF5336
C:\Users\CYMR90~1\AppData\Local\Temp\ccLPYcmd.s:24685  .debug_str:00000000000126f6 .LASF5337
C:\Users\CYMR90~1\AppData\Local\Temp\ccLPYcmd.s:23689  .debug_str:000000000000e8c5 .LASF5338
C:\Users\CYMR90~1\AppData\Local\Temp\ccLPYcmd.s:30512  .debug_str:0000000000029a4f .LASF5339
C:\Users\CYMR90~1\AppData\Local\Temp\ccLPYcmd.s:31296  .debug_str:000000000002cac2 .LASF5340
C:\Users\CYMR90~1\AppData\Local\Temp\ccLPYcmd.s:23721  .debug_str:000000000000ea90 .LASF5341
C:\Users\CYMR90~1\AppData\Local\Temp\ccLPYcmd.s:20405  .debug_str:0000000000001688 .LASF5342
C:\Users\CYMR90~1\AppData\Local\Temp\ccLPYcmd.s:26870  .debug_str:000000000001b39c .LASF5343
C:\Users\CYMR90~1\AppData\Local\Temp\ccLPYcmd.s:29924  .debug_str:0000000000027313 .LASF5344
C:\Users\CYMR90~1\AppData\Local\Temp\ccLPYcmd.s:26754  .debug_str:000000000001abbf .LASF5345
C:\Users\CYMR90~1\AppData\Local\Temp\ccLPYcmd.s:27762  .debug_str:000000000001ec24 .LASF5346
C:\Users\CYMR90~1\AppData\Local\Temp\ccLPYcmd.s:20247  .debug_str:0000000000000cf4 .LASF5347
C:\Users\CYMR90~1\AppData\Local\Temp\ccLPYcmd.s:28366  .debug_str:0000000000021086 .LASF5348
C:\Users\CYMR90~1\AppData\Local\Temp\ccLPYcmd.s:23207  .debug_str:000000000000ca99 .LASF5349
C:\Users\CYMR90~1\AppData\Local\Temp\ccLPYcmd.s:25533  .debug_str:0000000000015aee .LASF5350
C:\Users\CYMR90~1\AppData\Local\Temp\ccLPYcmd.s:23969  .debug_str:000000000000f9dd .LASF5351
C:\Users\CYMR90~1\AppData\Local\Temp\ccLPYcmd.s:26158  .debug_str:000000000001837d .LASF5352
C:\Users\CYMR90~1\AppData\Local\Temp\ccLPYcmd.s:30786  .debug_str:000000000002aa81 .LASF5353
C:\Users\CYMR90~1\AppData\Local\Temp\ccLPYcmd.s:24917  .debug_str:000000000001368e .LASF5354
C:\Users\CYMR90~1\AppData\Local\Temp\ccLPYcmd.s:27944  .debug_str:000000000001f724 .LASF5355
C:\Users\CYMR90~1\AppData\Local\Temp\ccLPYcmd.s:21955  .debug_str:000000000000785c .LASF5356
C:\Users\CYMR90~1\AppData\Local\Temp\ccLPYcmd.s:30682  .debug_str:000000000002a44b .LASF5357
C:\Users\CYMR90~1\AppData\Local\Temp\ccLPYcmd.s:21825  .debug_str:0000000000006fd3 .LASF5358
C:\Users\CYMR90~1\AppData\Local\Temp\ccLPYcmd.s:30002  .debug_str:0000000000027895 .LASF5359
C:\Users\CYMR90~1\AppData\Local\Temp\ccLPYcmd.s:30490  .debug_str:00000000000298c4 .LASF5360
C:\Users\CYMR90~1\AppData\Local\Temp\ccLPYcmd.s:28708  .debug_str:00000000000225a5 .LASF5361
C:\Users\CYMR90~1\AppData\Local\Temp\ccLPYcmd.s:25445  .debug_str:00000000000155c5 .LASF5362
C:\Users\CYMR90~1\AppData\Local\Temp\ccLPYcmd.s:22277  .debug_str:0000000000008db5 .LASF5363
C:\Users\CYMR90~1\AppData\Local\Temp\ccLPYcmd.s:20871  .debug_str:00000000000033ea .LASF5364
C:\Users\CYMR90~1\AppData\Local\Temp\ccLPYcmd.s:31204  .debug_str:000000000002c4e4 .LASF5365
C:\Users\CYMR90~1\AppData\Local\Temp\ccLPYcmd.s:22457  .debug_str:00000000000098b2 .LASF5366
C:\Users\CYMR90~1\AppData\Local\Temp\ccLPYcmd.s:22281  .debug_str:0000000000008ddc .LASF5367
C:\Users\CYMR90~1\AppData\Local\Temp\ccLPYcmd.s:30692  .debug_str:000000000002a4b8 .LASF5368
C:\Users\CYMR90~1\AppData\Local\Temp\ccLPYcmd.s:20411  .debug_str:0000000000001709 .LASF5369
C:\Users\CYMR90~1\AppData\Local\Temp\ccLPYcmd.s:30378  .debug_str:000000000002919e .LASF5370
C:\Users\CYMR90~1\AppData\Local\Temp\ccLPYcmd.s:22395  .debug_str:00000000000094c0 .LASF5371
C:\Users\CYMR90~1\AppData\Local\Temp\ccLPYcmd.s:31100  .debug_str:000000000002bdd9 .LASF5372
C:\Users\CYMR90~1\AppData\Local\Temp\ccLPYcmd.s:29662  .debug_str:00000000000262fc .LASF5373
C:\Users\CYMR90~1\AppData\Local\Temp\ccLPYcmd.s:23951  .debug_str:000000000000f8c8 .LASF5374
C:\Users\CYMR90~1\AppData\Local\Temp\ccLPYcmd.s:21157  .debug_str:00000000000046a1 .LASF5375
C:\Users\CYMR90~1\AppData\Local\Temp\ccLPYcmd.s:26714  .debug_str:000000000001a94f .LASF5376
C:\Users\CYMR90~1\AppData\Local\Temp\ccLPYcmd.s:29416  .debug_str:000000000002517e .LASF5377
C:\Users\CYMR90~1\AppData\Local\Temp\ccLPYcmd.s:23889  .debug_str:000000000000f481 .LASF5378
C:\Users\CYMR90~1\AppData\Local\Temp\ccLPYcmd.s:20151  .debug_str:0000000000000724 .LASF5379
C:\Users\CYMR90~1\AppData\Local\Temp\ccLPYcmd.s:20097  .debug_str:00000000000003ff .LASF5380
C:\Users\CYMR90~1\AppData\Local\Temp\ccLPYcmd.s:20455  .debug_str:0000000000001a52 .LASF5381
C:\Users\CYMR90~1\AppData\Local\Temp\ccLPYcmd.s:29050  .debug_str:0000000000023a1d .LASF5382
C:\Users\CYMR90~1\AppData\Local\Temp\ccLPYcmd.s:29714  .debug_str:00000000000265eb .LASF5383
C:\Users\CYMR90~1\AppData\Local\Temp\ccLPYcmd.s:24803  .debug_str:0000000000012eb8 .LASF5384
C:\Users\CYMR90~1\AppData\Local\Temp\ccLPYcmd.s:26748  .debug_str:000000000001ab80 .LASF5385
C:\Users\CYMR90~1\AppData\Local\Temp\ccLPYcmd.s:20739  .debug_str:0000000000002b85 .LASF5386
C:\Users\CYMR90~1\AppData\Local\Temp\ccLPYcmd.s:25539  .debug_str:0000000000015b87 .LASF5387
C:\Users\CYMR90~1\AppData\Local\Temp\ccLPYcmd.s:28148  .debug_str:0000000000020356 .LASF5388
C:\Users\CYMR90~1\AppData\Local\Temp\ccLPYcmd.s:30656  .debug_str:000000000002a28e .LASF5389
C:\Users\CYMR90~1\AppData\Local\Temp\ccLPYcmd.s:22181  .debug_str:00000000000087d0 .LASF5390
C:\Users\CYMR90~1\AppData\Local\Temp\ccLPYcmd.s:28852  .debug_str:0000000000022e76 .LASF5391
C:\Users\CYMR90~1\AppData\Local\Temp\ccLPYcmd.s:28126  .debug_str:000000000002022a .LASF5392
C:\Users\CYMR90~1\AppData\Local\Temp\ccLPYcmd.s:21213  .debug_str:0000000000004b09 .LASF5393
C:\Users\CYMR90~1\AppData\Local\Temp\ccLPYcmd.s:21635  .debug_str:0000000000006415 .LASF5394
C:\Users\CYMR90~1\AppData\Local\Temp\ccLPYcmd.s:28808  .debug_str:0000000000022b8f .LASF5395
C:\Users\CYMR90~1\AppData\Local\Temp\ccLPYcmd.s:30564  .debug_str:0000000000029d4d .LASF5396
C:\Users\CYMR90~1\AppData\Local\Temp\ccLPYcmd.s:26340  .debug_str:0000000000018f73 .LASF5397
C:\Users\CYMR90~1\AppData\Local\Temp\ccLPYcmd.s:23103  .debug_str:000000000000c3bf .LASF5398
C:\Users\CYMR90~1\AppData\Local\Temp\ccLPYcmd.s:27842  .debug_str:000000000001f10a .LASF5399
C:\Users\CYMR90~1\AppData\Local\Temp\ccLPYcmd.s:21113  .debug_str:00000000000043e3 .LASF5400
C:\Users\CYMR90~1\AppData\Local\Temp\ccLPYcmd.s:28238  .debug_str:0000000000020942 .LASF5401
C:\Users\CYMR90~1\AppData\Local\Temp\ccLPYcmd.s:24999  .debug_str:0000000000013b43 .LASF5402
C:\Users\CYMR90~1\AppData\Local\Temp\ccLPYcmd.s:30938  .debug_str:000000000002b351 .LASF5403
C:\Users\CYMR90~1\AppData\Local\Temp\ccLPYcmd.s:24129  .debug_str:00000000000103c6 .LASF5404
C:\Users\CYMR90~1\AppData\Local\Temp\ccLPYcmd.s:23365  .debug_str:000000000000d4a7 .LASF5405
C:\Users\CYMR90~1\AppData\Local\Temp\ccLPYcmd.s:27852  .debug_str:000000000001f1c3 .LASF5406
C:\Users\CYMR90~1\AppData\Local\Temp\ccLPYcmd.s:31122  .debug_str:000000000002bf2a .LASF5407
C:\Users\CYMR90~1\AppData\Local\Temp\ccLPYcmd.s:29920  .debug_str:00000000000272e3 .LASF5408
C:\Users\CYMR90~1\AppData\Local\Temp\ccLPYcmd.s:28980  .debug_str:000000000002358e .LASF5409
C:\Users\CYMR90~1\AppData\Local\Temp\ccLPYcmd.s:22893  .debug_str:000000000000b538 .LASF5410
C:\Users\CYMR90~1\AppData\Local\Temp\ccLPYcmd.s:20163  .debug_str:00000000000007d4 .LASF5411
C:\Users\CYMR90~1\AppData\Local\Temp\ccLPYcmd.s:28712  .debug_str:00000000000225d6 .LASF5412
C:\Users\CYMR90~1\AppData\Local\Temp\ccLPYcmd.s:27530  .debug_str:000000000001de10 .LASF5413
C:\Users\CYMR90~1\AppData\Local\Temp\ccLPYcmd.s:26118  .debug_str:000000000001814b .LASF5414
C:\Users\CYMR90~1\AppData\Local\Temp\ccLPYcmd.s:28582  .debug_str:0000000000021e31 .LASF5415
C:\Users\CYMR90~1\AppData\Local\Temp\ccLPYcmd.s:31096  .debug_str:000000000002bd7f .LASF5416
C:\Users\CYMR90~1\AppData\Local\Temp\ccLPYcmd.s:22027  .debug_str:0000000000007d1e .LASF5417
C:\Users\CYMR90~1\AppData\Local\Temp\ccLPYcmd.s:21467  .debug_str:0000000000005a4a .LASF5418
C:\Users\CYMR90~1\AppData\Local\Temp\ccLPYcmd.s:21773  .debug_str:0000000000006c7a .LASF5419
C:\Users\CYMR90~1\AppData\Local\Temp\ccLPYcmd.s:23249  .debug_str:000000000000cd50 .LASF5420
C:\Users\CYMR90~1\AppData\Local\Temp\ccLPYcmd.s:24603  .debug_str:00000000000121ce .LASF5421
C:\Users\CYMR90~1\AppData\Local\Temp\ccLPYcmd.s:22993  .debug_str:000000000000bc40 .LASF5422
C:\Users\CYMR90~1\AppData\Local\Temp\ccLPYcmd.s:30114  .debug_str:0000000000027ffd .LASF5423
C:\Users\CYMR90~1\AppData\Local\Temp\ccLPYcmd.s:29698  .debug_str:0000000000026511 .LASF5424
C:\Users\CYMR90~1\AppData\Local\Temp\ccLPYcmd.s:25357  .debug_str:00000000000150f3 .LASF5425
C:\Users\CYMR90~1\AppData\Local\Temp\ccLPYcmd.s:28014  .debug_str:000000000001fb43 .LASF5426
C:\Users\CYMR90~1\AppData\Local\Temp\ccLPYcmd.s:24907  .debug_str:00000000000135f1 .LASF5427
C:\Users\CYMR90~1\AppData\Local\Temp\ccLPYcmd.s:31274  .debug_str:000000000002c994 .LASF5428
C:\Users\CYMR90~1\AppData\Local\Temp\ccLPYcmd.s:23125  .debug_str:000000000000c508 .LASF5429
C:\Users\CYMR90~1\AppData\Local\Temp\ccLPYcmd.s:27298  .debug_str:000000000001cecd .LASF5430
C:\Users\CYMR90~1\AppData\Local\Temp\ccLPYcmd.s:28420  .debug_str:000000000002139d .LASF5431
C:\Users\CYMR90~1\AppData\Local\Temp\ccLPYcmd.s:24417  .debug_str:000000000001154c .LASF5432
C:\Users\CYMR90~1\AppData\Local\Temp\ccLPYcmd.s:27448  .debug_str:000000000001d89d .LASF5433
C:\Users\CYMR90~1\AppData\Local\Temp\ccLPYcmd.s:26002  .debug_str:0000000000017a74 .LASF5434
C:\Users\CYMR90~1\AppData\Local\Temp\ccLPYcmd.s:25157  .debug_str:00000000000144ca .LASF5435
C:\Users\CYMR90~1\AppData\Local\Temp\ccLPYcmd.s:20809  .debug_str:0000000000002ff6 .LASF5436
C:\Users\CYMR90~1\AppData\Local\Temp\ccLPYcmd.s:25365  .debug_str:0000000000015171 .LASF5437
C:\Users\CYMR90~1\AppData\Local\Temp\ccLPYcmd.s:23391  .debug_str:000000000000d6b9 .LASF5438
C:\Users\CYMR90~1\AppData\Local\Temp\ccLPYcmd.s:25027  .debug_str:0000000000013d03 .LASF5439
C:\Users\CYMR90~1\AppData\Local\Temp\ccLPYcmd.s:20737  .debug_str:0000000000002b69 .LASF5440
C:\Users\CYMR90~1\AppData\Local\Temp\ccLPYcmd.s:22575  .debug_str:000000000000a033 .LASF5441
C:\Users\CYMR90~1\AppData\Local\Temp\ccLPYcmd.s:29436  .debug_str:0000000000025319 .LASF5442
C:\Users\CYMR90~1\AppData\Local\Temp\ccLPYcmd.s:27360  .debug_str:000000000001d32e .LASF5443
C:\Users\CYMR90~1\AppData\Local\Temp\ccLPYcmd.s:31354  .debug_str:000000000002cecb .LASF5444
C:\Users\CYMR90~1\AppData\Local\Temp\ccLPYcmd.s:25543  .debug_str:0000000000015bad .LASF5445
C:\Users\CYMR90~1\AppData\Local\Temp\ccLPYcmd.s:22607  .debug_str:000000000000a229 .LASF5446
C:\Users\CYMR90~1\AppData\Local\Temp\ccLPYcmd.s:28408  .debug_str:00000000000212f7 .LASF5447
C:\Users\CYMR90~1\AppData\Local\Temp\ccLPYcmd.s:28136  .debug_str:00000000000202a6 .LASF5448
C:\Users\CYMR90~1\AppData\Local\Temp\ccLPYcmd.s:29536  .debug_str:0000000000025b30 .LASF5449
C:\Users\CYMR90~1\AppData\Local\Temp\ccLPYcmd.s:23225  .debug_str:000000000000cbba .LASF5450
C:\Users\CYMR90~1\AppData\Local\Temp\ccLPYcmd.s:22639  .debug_str:000000000000a436 .LASF5451
C:\Users\CYMR90~1\AppData\Local\Temp\ccLPYcmd.s:26798  .debug_str:000000000001aea8 .LASF5452
C:\Users\CYMR90~1\AppData\Local\Temp\ccLPYcmd.s:24025  .debug_str:000000000000fd1a .LASF5453
C:\Users\CYMR90~1\AppData\Local\Temp\ccLPYcmd.s:26280  .debug_str:0000000000018b0f .LASF5454
C:\Users\CYMR90~1\AppData\Local\Temp\ccLPYcmd.s:23193  .debug_str:000000000000c946 .LASF5455
C:\Users\CYMR90~1\AppData\Local\Temp\ccLPYcmd.s:23331  .debug_str:000000000000d229 .LASF5456
C:\Users\CYMR90~1\AppData\Local\Temp\ccLPYcmd.s:24403  .debug_str:000000000001144d .LASF5457
C:\Users\CYMR90~1\AppData\Local\Temp\ccLPYcmd.s:27496  .debug_str:000000000001db86 .LASF5458
C:\Users\CYMR90~1\AppData\Local\Temp\ccLPYcmd.s:22365  .debug_str:000000000000930d .LASF5459
C:\Users\CYMR90~1\AppData\Local\Temp\ccLPYcmd.s:22429  .debug_str:0000000000009713 .LASF5460
C:\Users\CYMR90~1\AppData\Local\Temp\ccLPYcmd.s:27384  .debug_str:000000000001d49b .LASF5461
C:\Users\CYMR90~1\AppData\Local\Temp\ccLPYcmd.s:30332  .debug_str:0000000000028ea6 .LASF5462
C:\Users\CYMR90~1\AppData\Local\Temp\ccLPYcmd.s:28166  .debug_str:0000000000020446 .LASF5463
C:\Users\CYMR90~1\AppData\Local\Temp\ccLPYcmd.s:20041  .debug_str:00000000000000a6 .LASF5464
C:\Users\CYMR90~1\AppData\Local\Temp\ccLPYcmd.s:28100  .debug_str:00000000000200ae .LASF5465
C:\Users\CYMR90~1\AppData\Local\Temp\ccLPYcmd.s:31422  .debug_str:000000000002d334 .LASF5466
C:\Users\CYMR90~1\AppData\Local\Temp\ccLPYcmd.s:27526  .debug_str:000000000001ddd7 .LASF5467
C:\Users\CYMR90~1\AppData\Local\Temp\ccLPYcmd.s:21517  .debug_str:0000000000005d5e .LASF5468
C:\Users\CYMR90~1\AppData\Local\Temp\ccLPYcmd.s:20677  .debug_str:0000000000002758 .LASF5469
C:\Users\CYMR90~1\AppData\Local\Temp\ccLPYcmd.s:28338  .debug_str:0000000000020f02 .LASF5470
C:\Users\CYMR90~1\AppData\Local\Temp\ccLPYcmd.s:30242  .debug_str:00000000000288f5 .LASF5471
C:\Users\CYMR90~1\AppData\Local\Temp\ccLPYcmd.s:20143  .debug_str:0000000000000690 .LASF5472
C:\Users\CYMR90~1\AppData\Local\Temp\ccLPYcmd.s:24631  .debug_str:0000000000012366 .LASF5473
C:\Users\CYMR90~1\AppData\Local\Temp\ccLPYcmd.s:25053  .debug_str:0000000000013e7a .LASF5474
C:\Users\CYMR90~1\AppData\Local\Temp\ccLPYcmd.s:24601  .debug_str:00000000000121b5 .LASF5475
C:\Users\CYMR90~1\AppData\Local\Temp\ccLPYcmd.s:21641  .debug_str:0000000000006477 .LASF5476
C:\Users\CYMR90~1\AppData\Local\Temp\ccLPYcmd.s:27830  .debug_str:000000000001f036 .LASF5477
C:\Users\CYMR90~1\AppData\Local\Temp\ccLPYcmd.s:25946  .debug_str:00000000000176e5 .LASF5478
C:\Users\CYMR90~1\AppData\Local\Temp\ccLPYcmd.s:20409  .debug_str:00000000000016ce .LASF5479
C:\Users\CYMR90~1\AppData\Local\Temp\ccLPYcmd.s:28052  .debug_str:000000000001fd8e .LASF5480
C:\Users\CYMR90~1\AppData\Local\Temp\ccLPYcmd.s:20753  .debug_str:0000000000002c93 .LASF5481
C:\Users\CYMR90~1\AppData\Local\Temp\ccLPYcmd.s:29000  .debug_str:00000000000236b7 .LASF5482
C:\Users\CYMR90~1\AppData\Local\Temp\ccLPYcmd.s:20365  .debug_str:000000000000143e .LASF5483
C:\Users\CYMR90~1\AppData\Local\Temp\ccLPYcmd.s:29864  .debug_str:0000000000026f36 .LASF5484
C:\Users\CYMR90~1\AppData\Local\Temp\ccLPYcmd.s:25601  .debug_str:0000000000015f8a .LASF5485
C:\Users\CYMR90~1\AppData\Local\Temp\ccLPYcmd.s:20977  .debug_str:0000000000003ac9 .LASF5486
C:\Users\CYMR90~1\AppData\Local\Temp\ccLPYcmd.s:22857  .debug_str:000000000000b34d .LASF5487
C:\Users\CYMR90~1\AppData\Local\Temp\ccLPYcmd.s:29152  .debug_str:0000000000023fa8 .LASF5488
C:\Users\CYMR90~1\AppData\Local\Temp\ccLPYcmd.s:21545  .debug_str:0000000000005ebc .LASF5489
C:\Users\CYMR90~1\AppData\Local\Temp\ccLPYcmd.s:30012  .debug_str:0000000000027926 .LASF5490
C:\Users\CYMR90~1\AppData\Local\Temp\ccLPYcmd.s:22125  .debug_str:0000000000008479 .LASF5491
C:\Users\CYMR90~1\AppData\Local\Temp\ccLPYcmd.s:30996  .debug_str:000000000002b70b .LASF5492
C:\Users\CYMR90~1\AppData\Local\Temp\ccLPYcmd.s:28130  .debug_str:0000000000020255 .LASF5493
C:\Users\CYMR90~1\AppData\Local\Temp\ccLPYcmd.s:26432  .debug_str:00000000000195a8 .LASF5494
C:\Users\CYMR90~1\AppData\Local\Temp\ccLPYcmd.s:20287  .debug_str:0000000000000fda .LASF5495
C:\Users\CYMR90~1\AppData\Local\Temp\ccLPYcmd.s:27958  .debug_str:000000000001f7f9 .LASF5496
C:\Users\CYMR90~1\AppData\Local\Temp\ccLPYcmd.s:21493  .debug_str:0000000000005bdd .LASF5497
C:\Users\CYMR90~1\AppData\Local\Temp\ccLPYcmd.s:30962  .debug_str:000000000002b4a9 .LASF5498
C:\Users\CYMR90~1\AppData\Local\Temp\ccLPYcmd.s:25669  .debug_str:0000000000016389 .LASF5499
C:\Users\CYMR90~1\AppData\Local\Temp\ccLPYcmd.s:25465  .debug_str:00000000000156f3 .LASF5500
C:\Users\CYMR90~1\AppData\Local\Temp\ccLPYcmd.s:26504  .debug_str:0000000000019ae5 .LASF5501
C:\Users\CYMR90~1\AppData\Local\Temp\ccLPYcmd.s:29760  .debug_str:00000000000268cf .LASF5502
C:\Users\CYMR90~1\AppData\Local\Temp\ccLPYcmd.s:29322  .debug_str:0000000000024bb6 .LASF5503
C:\Users\CYMR90~1\AppData\Local\Temp\ccLPYcmd.s:30940  .debug_str:000000000002b369 .LASF5504
C:\Users\CYMR90~1\AppData\Local\Temp\ccLPYcmd.s:21025  .debug_str:0000000000003dc6 .LASF5505
C:\Users\CYMR90~1\AppData\Local\Temp\ccLPYcmd.s:27756  .debug_str:000000000001ebd8 .LASF5506
C:\Users\CYMR90~1\AppData\Local\Temp\ccLPYcmd.s:27022  .debug_str:000000000001bcb8 .LASF5507
C:\Users\CYMR90~1\AppData\Local\Temp\ccLPYcmd.s:24825  .debug_str:0000000000013030 .LASF5508
C:\Users\CYMR90~1\AppData\Local\Temp\ccLPYcmd.s:21445  .debug_str:0000000000005906 .LASF5509
C:\Users\CYMR90~1\AppData\Local\Temp\ccLPYcmd.s:28552  .debug_str:0000000000021c51 .LASF5510
C:\Users\CYMR90~1\AppData\Local\Temp\ccLPYcmd.s:22451  .debug_str:0000000000009847 .LASF5511
C:\Users\CYMR90~1\AppData\Local\Temp\ccLPYcmd.s:31338  .debug_str:000000000002cdae .LASF5512
C:\Users\CYMR90~1\AppData\Local\Temp\ccLPYcmd.s:30386  .debug_str:00000000000291ff .LASF5513
C:\Users\CYMR90~1\AppData\Local\Temp\ccLPYcmd.s:20857  .debug_str:00000000000032ee .LASF5514
C:\Users\CYMR90~1\AppData\Local\Temp\ccLPYcmd.s:28504  .debug_str:000000000002199e .LASF5515
C:\Users\CYMR90~1\AppData\Local\Temp\ccLPYcmd.s:31306  .debug_str:000000000002cb71 .LASF5516
C:\Users\CYMR90~1\AppData\Local\Temp\ccLPYcmd.s:27734  .debug_str:000000000001ea78 .LASF5517
C:\Users\CYMR90~1\AppData\Local\Temp\ccLPYcmd.s:30640  .debug_str:000000000002a1aa .LASF5518
C:\Users\CYMR90~1\AppData\Local\Temp\ccLPYcmd.s:25537  .debug_str:0000000000015b67 .LASF5519
C:\Users\CYMR90~1\AppData\Local\Temp\ccLPYcmd.s:27668  .debug_str:000000000001e654 .LASF5520
C:\Users\CYMR90~1\AppData\Local\Temp\ccLPYcmd.s:23921  .debug_str:000000000000f64c .LASF5521
C:\Users\CYMR90~1\AppData\Local\Temp\ccLPYcmd.s:23909  .debug_str:000000000000f59f .LASF5522
C:\Users\CYMR90~1\AppData\Local\Temp\ccLPYcmd.s:28032  .debug_str:000000000001fc61 .LASF5523
C:\Users\CYMR90~1\AppData\Local\Temp\ccLPYcmd.s:29752  .debug_str:0000000000026855 .LASF5524
C:\Users\CYMR90~1\AppData\Local\Temp\ccLPYcmd.s:20439  .debug_str:000000000000195f .LASF5525
C:\Users\CYMR90~1\AppData\Local\Temp\ccLPYcmd.s:26448  .debug_str:00000000000196a0 .LASF5526
C:\Users\CYMR90~1\AppData\Local\Temp\ccLPYcmd.s:20235  .debug_str:0000000000000c51 .LASF5527
C:\Users\CYMR90~1\AppData\Local\Temp\ccLPYcmd.s:25988  .debug_str:000000000001799c .LASF5528
C:\Users\CYMR90~1\AppData\Local\Temp\ccLPYcmd.s:20553  .debug_str:0000000000002006 .LASF5529
C:\Users\CYMR90~1\AppData\Local\Temp\ccLPYcmd.s:20883  .debug_str:00000000000034aa .LASF5530
C:\Users\CYMR90~1\AppData\Local\Temp\ccLPYcmd.s:23667  .debug_str:000000000000e735 .LASF5531
C:\Users\CYMR90~1\AppData\Local\Temp\ccLPYcmd.s:24405  .debug_str:000000000001146f .LASF5532
C:\Users\CYMR90~1\AppData\Local\Temp\ccLPYcmd.s:22789  .debug_str:000000000000ae62 .LASF5533
C:\Users\CYMR90~1\AppData\Local\Temp\ccLPYcmd.s:21069  .debug_str:00000000000040c8 .LASF5534
C:\Users\CYMR90~1\AppData\Local\Temp\ccLPYcmd.s:31054  .debug_str:000000000002ba98 .LASF5535
C:\Users\CYMR90~1\AppData\Local\Temp\ccLPYcmd.s:30426  .debug_str:0000000000029457 .LASF5536
C:\Users\CYMR90~1\AppData\Local\Temp\ccLPYcmd.s:28284  .debug_str:0000000000020b9f .LASF5537
C:\Users\CYMR90~1\AppData\Local\Temp\ccLPYcmd.s:28994  .debug_str:0000000000023661 .LASF5538
C:\Users\CYMR90~1\AppData\Local\Temp\ccLPYcmd.s:31090  .debug_str:000000000002bd2e .LASF5539
C:\Users\CYMR90~1\AppData\Local\Temp\ccLPYcmd.s:20345  .debug_str:000000000000131d .LASF5540
C:\Users\CYMR90~1\AppData\Local\Temp\ccLPYcmd.s:24563  .debug_str:0000000000011ef5 .LASF5541
C:\Users\CYMR90~1\AppData\Local\Temp\ccLPYcmd.s:28622  .debug_str:00000000000220a5 .LASF5542
C:\Users\CYMR90~1\AppData\Local\Temp\ccLPYcmd.s:27528  .debug_str:000000000001ddf9 .LASF5543
C:\Users\CYMR90~1\AppData\Local\Temp\ccLPYcmd.s:24089  .debug_str:0000000000010113 .LASF5544
C:\Users\CYMR90~1\AppData\Local\Temp\ccLPYcmd.s:20525  .debug_str:0000000000001e8b .LASF5545
C:\Users\CYMR90~1\AppData\Local\Temp\ccLPYcmd.s:28440  .debug_str:0000000000021568 .LASF5546
C:\Users\CYMR90~1\AppData\Local\Temp\ccLPYcmd.s:23547  .debug_str:000000000000e017 .LASF5547
C:\Users\CYMR90~1\AppData\Local\Temp\ccLPYcmd.s:25099  .debug_str:0000000000014161 .LASF5548
C:\Users\CYMR90~1\AppData\Local\Temp\ccLPYcmd.s:30252  .debug_str:00000000000289ad .LASF5549
C:\Users\CYMR90~1\AppData\Local\Temp\ccLPYcmd.s:31202  .debug_str:000000000002c4ab .LASF5550
C:\Users\CYMR90~1\AppData\Local\Temp\ccLPYcmd.s:23481  .debug_str:000000000000dc00 .LASF5551
C:\Users\CYMR90~1\AppData\Local\Temp\ccLPYcmd.s:20991  .debug_str:0000000000003bbd .LASF5552
C:\Users\CYMR90~1\AppData\Local\Temp\ccLPYcmd.s:27088  .debug_str:000000000001c0f6 .LASF5553
C:\Users\CYMR90~1\AppData\Local\Temp\ccLPYcmd.s:22731  .debug_str:000000000000aabc .LASF5554
C:\Users\CYMR90~1\AppData\Local\Temp\ccLPYcmd.s:29072  .debug_str:0000000000023b66 .LASF5555
                           .group:0000000000000000 wm4.0.10abbef32179bc1260444192115bdf5e
                           .group:0000000000000000 wm4.stddef.h.39.144cf5ddcd53cbfdac30259dc1a6c87f
                           .group:0000000000000000 wm4._newlib_version.h.4.bfdf54b0af045d4a71376ae00f63a22c
                           .group:0000000000000000 wm4.newlib.h.18.08a2ecba46890ca2aa56bbe21686e6c3
                           .group:0000000000000000 wm4.ieeefp.h.202.4f2759f5758fd82153cfbf98692f2ced
                           .group:0000000000000000 wm4.features.h.22.fad1cec3bc7ff06488171438dbdcfd02
                           .group:0000000000000000 wm4.config.h.83.13bbc8852bfac55b724c9822481355b5
                           .group:0000000000000000 wm4._ansi.h.31.de524f58584151836e90d8620a16f8e8
                           .group:0000000000000000 wm4.stdio.h.31.7c0e28c411445f3f9c5b11accf882760
                           .group:0000000000000000 wm4._default_types.h.6.959254cf5f09734ea7516c89e8bb21bd
                           .group:0000000000000000 wm4.stddef.h.155.ba788add86a0e365f264484f110c3c29
                           .group:0000000000000000 wm4.cdefs.h.49.39045112216f6a021dbdffe3bf5accce
                           .group:0000000000000000 wm4.stdarg.h.34.3a23a216c0c293b3d2ea2e89281481e6
                           .group:0000000000000000 wm4._types.h.20.dd0d04dca3800a0d2a6129b87f3adbb2
                           .group:0000000000000000 wm4.stddef.h.155.3588ebfdd1e8c7ede80509bb9c3b8009
                           .group:0000000000000000 wm4._types.h.127.34941de1b2539d59d5cac00e0dd27a45
                           .group:0000000000000000 wm4.reent.h.17.e292bf8b0bec6c96e131a54347145a30
                           .group:0000000000000000 wm4.lock.h.2.c0958401bd0ce484d507ee19aacab817
                           .group:0000000000000000 wm4.reent.h.77.dcd6129ff07fe81bd5636db29abe53b2
                           .group:0000000000000000 wm4.types.h.40.8b6acba56cefbb11746718204edc8f5e
                           .group:0000000000000000 wm4._stdint.h.10.c24fa3af3bc1706662bb5593a907e841
                           .group:0000000000000000 wm4._endian.h.18.1bf9649e8e5bbc91042012680270b9ed
                           .group:0000000000000000 wm4.endian.h.9.49f3a4695c1b61e8a0808de3c4a106cb
                           .group:0000000000000000 wm4._timeval.h.32.bec3221fa7a9bb0bdde696c9c57e47d2
                           .group:0000000000000000 wm4.timespec.h.41.d855182eb0e690443ab8651bcedca6e1
                           .group:0000000000000000 wm4.select.h.19.40cd3f2bfc456b193b790c2754690ebf
                           .group:0000000000000000 wm4.types.h.51.5571ec98f267d17d3c670b7a3ba33afa
                           .group:0000000000000000 wm4.sched.h.22.c60982713a5c428609783c78f9c78d95
                           .group:0000000000000000 wm4._pthreadtypes.h.36.fcee9961c35163dde6267ef772ad1972
                           .group:0000000000000000 wm4.stdio.h.2.4aa87247282eca6c8f36f9de33d8df1a
                           .group:0000000000000000 wm4.stdio.h.81.932d0c162786b883f622b8d05c120c78
                           .group:0000000000000000 wm4.gd32vw55x.h.47.379378190858578060a317909b2c8d8a
                           .group:0000000000000000 wm4._intsup.h.10.48bafbb683905c4daa4565a85aeeb264
                           .group:0000000000000000 wm4.stdint.h.23.d53047a68f4a85177f80b422d52785ed
                           .group:0000000000000000 wm4.nmsis_version.h.19.ffa173da8efb17b1050904994d6f500e
                           .group:0000000000000000 wm4.riscv_bits.h.19.ee94eb3d39937793d4cd0a62363e5d00
                           .group:0000000000000000 wm4.riscv_encoding.h.35.f5d37fad7abbab8278b4bb6f1e32fa65
                           .group:0000000000000000 wm4.nmsis_gcc.h.61.5d70d7598ffc79c3c991d847a574cf23
                           .group:0000000000000000 wm4.core_feature_base.h.20.e99d3e75c26a8f3341d35bf20d0e1d20
                           .group:0000000000000000 wm4.core_feature_fpu.h.19.695f2200274659b530cb97cda749ff4f
                           .group:0000000000000000 wm4.core_feature_dsp.h.19.e8f8d7aa42f197807aefedb6584486cd
                           .group:0000000000000000 wm4.core_compatiable.h.19.5b8282d61b1f6889a82895616b730084
                           .group:0000000000000000 wm4.core_feature_eclic.h.19.e0c091d0cbda79e8b3b031b979ebd5a1
                           .group:0000000000000000 wm4.core_feature_timer.h.19.21a5151282de34c37dfa6d84e262aa54
                           .group:0000000000000000 wm4.system_gd32vw55x.h.32.f1fcb1212d387c35ac955b0e96ada468
                           .group:0000000000000000 wm4.gd32vw55x.h.231.3529c650aff38c9372f7e03177fd2c8a
                           .group:0000000000000000 wm4.gd32vw55x_adc.h.42.ae73acec1704ef509ccecb41a875b50e
                           .group:0000000000000000 wm4.gd32vw55x_cau.h.36.c98428fe1eae7edb4721da5c8078c974
                           .group:0000000000000000 wm4.gd32vw55x_crc.h.37.c58f296814c2300a4b067c08bd88d54e
                           .group:0000000000000000 wm4.gd32vw55x_dbg.h.36.311650c8545549d482ceca8befc5a232
                           .group:0000000000000000 wm4.gd32vw55x_dma.h.36.f4adc751172b2a7b1533dda72e948737
                           .group:0000000000000000 wm4.gd32vw55x_efuse.h.36.091404cecbab70359dfd93faec5fdb62
                           .group:0000000000000000 wm4.gd32vw55x_exti.h.36.de7508334dd12f1a6a673521a1a835f5
                           .group:0000000000000000 wm4.gd32vw55x_fmc.h.36.a4b0b94c47ffe23a2fa09260c5ed4850
                           .group:0000000000000000 wm4.gd32vw55x_fwdgt.h.36.4846b6900fd24b5bfce4986c9a8ce677
                           .group:0000000000000000 wm4.gd32vw55x_gpio.h.36.adfee1371bb58d3d9043c47bdb25a90f
                           .group:0000000000000000 wm4.gd32vw55x_hau.h.36.f3cbcbd7b67c9e5bdc7a1100b1bf3458
                           .group:0000000000000000 wm4.gd32vw55x_i2c.h.36.3848990933925e084eb427083790c53f
                           .group:0000000000000000 wm4.gd32vw55x_pkcau.h.36.bb2235f4cf4967063a51bfa9aca5ef27
                           .group:0000000000000000 wm4.gd32vw55x_pmu.h.36.4c76091f1415551526d489ccf2c42052
                           .group:0000000000000000 wm4.gd32vw55x_qspi.h.36.2d2c181cfe19b935a9641008fc786613
                           .group:0000000000000000 wm4.gd32vw55x_rcu.h.36.780a8a45c00d563711cceb445027ef47
                           .group:0000000000000000 wm4.gd32vw55x_rtc.h.36.3172855e8715659e080e0eab46fdf175
                           .group:0000000000000000 wm4.gd32vw55x_spi.h.36.9fa1be2b09fb73e4b5886e97f0e96d58
                           .group:0000000000000000 wm4.gd32vw55x_syscfg.h.36.010551f05591f5e34051d2e15df0352b
                           .group:0000000000000000 wm4.gd32vw55x_timer.h.38.2cbee78ea60d47145be361b2d2c55070
                           .group:0000000000000000 wm4.gd32vw55x_trng.h.36.c9e7807af1b1ab68d3bbb54f4ed5cd73
                           .group:0000000000000000 wm4.gd32vw55x_usart.h.36.f5c497cca17945a34f154b0e17017d02
                           .group:0000000000000000 wm4.gd32vw55x_wwdgt.h.36.f7a443b7302efc0e5c335888582ee197
                           .group:0000000000000000 wm4.gd32vw55x_eclic.h.41.88157c6d2cf6a6f4fe2a56cc9a13df86

NO UNDEFINED SYMBOLS
