   1              		.file	"gd32vw55x_crc.c"
   2              		.option nopic
   3              		.attribute arch, "rv32i2p0_m2p0_a2p0_c2p0"
   4              		.attribute unaligned_access, 0
   5              		.attribute stack_align, 16
   6              		.text
   7              	.Ltext0:
   8              		.cfi_sections	.debug_frame
   9              		.section	.text.crc_deinit,"ax",@progbits
  10              		.align	1
  11              		.globl	crc_deinit
  13              	crc_deinit:
  14              	.LFB347:
  15              		.file 1 "../Firmware/GD32VW55x_standard_peripheral/Source/gd32vw55x_crc.c"
   1:../Firmware/GD32VW55x_standard_peripheral/Source/gd32vw55x_crc.c **** /*!
   2:../Firmware/GD32VW55x_standard_peripheral/Source/gd32vw55x_crc.c ****     \file    gd32vw55x_crc.c
   3:../Firmware/GD32VW55x_standard_peripheral/Source/gd32vw55x_crc.c ****     \brief   CRC driver
   4:../Firmware/GD32VW55x_standard_peripheral/Source/gd32vw55x_crc.c **** 
   5:../Firmware/GD32VW55x_standard_peripheral/Source/gd32vw55x_crc.c ****     \version 2025-01-16, V1.4.0, firmware for GD32VW55x
   6:../Firmware/GD32VW55x_standard_peripheral/Source/gd32vw55x_crc.c **** */
   7:../Firmware/GD32VW55x_standard_peripheral/Source/gd32vw55x_crc.c **** 
   8:../Firmware/GD32VW55x_standard_peripheral/Source/gd32vw55x_crc.c **** /*
   9:../Firmware/GD32VW55x_standard_peripheral/Source/gd32vw55x_crc.c ****     Copyright (c) 2025, GigaDevice Semiconductor Inc.
  10:../Firmware/GD32VW55x_standard_peripheral/Source/gd32vw55x_crc.c **** 
  11:../Firmware/GD32VW55x_standard_peripheral/Source/gd32vw55x_crc.c ****     Redistribution and use in source and binary forms, with or without modification,
  12:../Firmware/GD32VW55x_standard_peripheral/Source/gd32vw55x_crc.c **** are permitted provided that the following conditions are met:
  13:../Firmware/GD32VW55x_standard_peripheral/Source/gd32vw55x_crc.c **** 
  14:../Firmware/GD32VW55x_standard_peripheral/Source/gd32vw55x_crc.c ****     1. Redistributions of source code must retain the above copyright notice, this
  15:../Firmware/GD32VW55x_standard_peripheral/Source/gd32vw55x_crc.c ****        list of conditions and the following disclaimer.
  16:../Firmware/GD32VW55x_standard_peripheral/Source/gd32vw55x_crc.c ****     2. Redistributions in binary form must reproduce the above copyright notice,
  17:../Firmware/GD32VW55x_standard_peripheral/Source/gd32vw55x_crc.c ****        this list of conditions and the following disclaimer in the documentation
  18:../Firmware/GD32VW55x_standard_peripheral/Source/gd32vw55x_crc.c ****        and/or other materials provided with the distribution.
  19:../Firmware/GD32VW55x_standard_peripheral/Source/gd32vw55x_crc.c ****     3. Neither the name of the copyright holder nor the names of its contributors
  20:../Firmware/GD32VW55x_standard_peripheral/Source/gd32vw55x_crc.c ****        may be used to endorse or promote products derived from this software without
  21:../Firmware/GD32VW55x_standard_peripheral/Source/gd32vw55x_crc.c ****        specific prior written permission.
  22:../Firmware/GD32VW55x_standard_peripheral/Source/gd32vw55x_crc.c **** 
  23:../Firmware/GD32VW55x_standard_peripheral/Source/gd32vw55x_crc.c ****     THIS SOFTWARE IS PROVIDED BY THE COPYRIGHT HOLDERS AND CONTRIBUTORS "AS IS"
  24:../Firmware/GD32VW55x_standard_peripheral/Source/gd32vw55x_crc.c **** AND ANY EXPRESS OR IMPLIED WARRANTIES, INCLUDING, BUT NOT LIMITED TO, THE IMPLIED
  25:../Firmware/GD32VW55x_standard_peripheral/Source/gd32vw55x_crc.c **** WARRANTIES OF MERCHANTABILITY AND FITNESS FOR A PARTICULAR PURPOSE ARE DISCLAIMED.
  26:../Firmware/GD32VW55x_standard_peripheral/Source/gd32vw55x_crc.c **** IN NO EVENT SHALL THE COPYRIGHT HOLDER OR CONTRIBUTORS BE LIABLE FOR ANY DIRECT,
  27:../Firmware/GD32VW55x_standard_peripheral/Source/gd32vw55x_crc.c **** INDIRECT, INCIDENTAL, SPECIAL, EXEMPLARY, OR CONSEQUENTIAL DAMAGES (INCLUDING, BUT
  28:../Firmware/GD32VW55x_standard_peripheral/Source/gd32vw55x_crc.c **** NOT LIMITED TO, PROCUREMENT OF SUBSTITUTE GOODS OR SERVICES; LOSS OF USE, DATA, OR
  29:../Firmware/GD32VW55x_standard_peripheral/Source/gd32vw55x_crc.c **** PROFITS; OR BUSINESS INTERRUPTION) HOWEVER CAUSED AND ON ANY THEORY OF LIABILITY,
  30:../Firmware/GD32VW55x_standard_peripheral/Source/gd32vw55x_crc.c **** WHETHER IN CONTRACT, STRICT LIABILITY, OR TORT (INCLUDING NEGLIGENCE OR OTHERWISE)
  31:../Firmware/GD32VW55x_standard_peripheral/Source/gd32vw55x_crc.c **** ARISING IN ANY WAY OUT OF THE USE OF THIS SOFTWARE, EVEN IF ADVISED OF THE POSSIBILITY
  32:../Firmware/GD32VW55x_standard_peripheral/Source/gd32vw55x_crc.c **** OF SUCH DAMAGE.
  33:../Firmware/GD32VW55x_standard_peripheral/Source/gd32vw55x_crc.c **** */
  34:../Firmware/GD32VW55x_standard_peripheral/Source/gd32vw55x_crc.c **** 
  35:../Firmware/GD32VW55x_standard_peripheral/Source/gd32vw55x_crc.c **** #include "gd32vw55x_crc.h"
  36:../Firmware/GD32VW55x_standard_peripheral/Source/gd32vw55x_crc.c **** 
  37:../Firmware/GD32VW55x_standard_peripheral/Source/gd32vw55x_crc.c **** #define CRC_DATA_RESET_VALUE      ((uint32_t)0xFFFFFFFFU)
  38:../Firmware/GD32VW55x_standard_peripheral/Source/gd32vw55x_crc.c **** #define CRC_FDATA_RESET_VALUE     ((uint32_t)0x00000000U)
  39:../Firmware/GD32VW55x_standard_peripheral/Source/gd32vw55x_crc.c **** 
  40:../Firmware/GD32VW55x_standard_peripheral/Source/gd32vw55x_crc.c **** /*!
  41:../Firmware/GD32VW55x_standard_peripheral/Source/gd32vw55x_crc.c ****     \brief      deinit CRC calculation unit
  42:../Firmware/GD32VW55x_standard_peripheral/Source/gd32vw55x_crc.c ****     \param[in]  none
  43:../Firmware/GD32VW55x_standard_peripheral/Source/gd32vw55x_crc.c ****     \param[out] none
  44:../Firmware/GD32VW55x_standard_peripheral/Source/gd32vw55x_crc.c ****     \retval     none
  45:../Firmware/GD32VW55x_standard_peripheral/Source/gd32vw55x_crc.c **** */
  46:../Firmware/GD32VW55x_standard_peripheral/Source/gd32vw55x_crc.c **** void crc_deinit(void)
  47:../Firmware/GD32VW55x_standard_peripheral/Source/gd32vw55x_crc.c **** {
  16              		.loc 1 47 1
  17              		.cfi_startproc
  18 0000 4111     		addi	sp,sp,-16
  19              		.cfi_def_cfa_offset 16
  20 0002 22C6     		sw	s0,12(sp)
  21              		.cfi_offset 8, -4
  22 0004 0008     		addi	s0,sp,16
  23              		.cfi_def_cfa 8, 0
  48:../Firmware/GD32VW55x_standard_peripheral/Source/gd32vw55x_crc.c ****     CRC_DATA = CRC_DATA_RESET_VALUE;
  24              		.loc 1 48 5
  25 0006 B7370240 		li	a5,1073885184
  26              		.loc 1 48 14
  27 000a 7D57     		li	a4,-1
  28 000c 98C3     		sw	a4,0(a5)
  49:../Firmware/GD32VW55x_standard_peripheral/Source/gd32vw55x_crc.c ****     CRC_FDATA = CRC_FDATA_RESET_VALUE;
  29              		.loc 1 49 5
  30 000e B7370240 		li	a5,1073885184
  31 0012 9107     		addi	a5,a5,4
  32              		.loc 1 49 15
  33 0014 23A00700 		sw	zero,0(a5)
  50:../Firmware/GD32VW55x_standard_peripheral/Source/gd32vw55x_crc.c ****     CRC_CTL = CRC_CTL_RST;
  34              		.loc 1 50 5
  35 0018 B7370240 		li	a5,1073885184
  36 001c A107     		addi	a5,a5,8
  37              		.loc 1 50 13
  38 001e 0547     		li	a4,1
  39 0020 98C3     		sw	a4,0(a5)
  51:../Firmware/GD32VW55x_standard_peripheral/Source/gd32vw55x_crc.c **** }
  40              		.loc 1 51 1
  41 0022 0100     		nop
  42 0024 3244     		lw	s0,12(sp)
  43              		.cfi_restore 8
  44              		.cfi_def_cfa 2, 16
  45 0026 4101     		addi	sp,sp,16
  46              		.cfi_def_cfa_offset 0
  47 0028 8280     		jr	ra
  48              		.cfi_endproc
  49              	.LFE347:
  51              		.section	.text.crc_data_register_reset,"ax",@progbits
  52              		.align	1
  53              		.globl	crc_data_register_reset
  55              	crc_data_register_reset:
  56              	.LFB348:
  52:../Firmware/GD32VW55x_standard_peripheral/Source/gd32vw55x_crc.c **** 
  53:../Firmware/GD32VW55x_standard_peripheral/Source/gd32vw55x_crc.c **** /*!
  54:../Firmware/GD32VW55x_standard_peripheral/Source/gd32vw55x_crc.c ****     \brief      reset data register(CRC_DATA) to the value of 0xFFFFFFFF
  55:../Firmware/GD32VW55x_standard_peripheral/Source/gd32vw55x_crc.c ****     \param[in]  none
  56:../Firmware/GD32VW55x_standard_peripheral/Source/gd32vw55x_crc.c ****     \param[out] none
  57:../Firmware/GD32VW55x_standard_peripheral/Source/gd32vw55x_crc.c ****     \retval     none
  58:../Firmware/GD32VW55x_standard_peripheral/Source/gd32vw55x_crc.c **** */
  59:../Firmware/GD32VW55x_standard_peripheral/Source/gd32vw55x_crc.c **** void crc_data_register_reset(void)
  60:../Firmware/GD32VW55x_standard_peripheral/Source/gd32vw55x_crc.c **** {
  57              		.loc 1 60 1
  58              		.cfi_startproc
  59 0000 4111     		addi	sp,sp,-16
  60              		.cfi_def_cfa_offset 16
  61 0002 22C6     		sw	s0,12(sp)
  62              		.cfi_offset 8, -4
  63 0004 0008     		addi	s0,sp,16
  64              		.cfi_def_cfa 8, 0
  61:../Firmware/GD32VW55x_standard_peripheral/Source/gd32vw55x_crc.c ****     CRC_CTL |= CRC_CTL_RST;
  65              		.loc 1 61 13
  66 0006 B7370240 		li	a5,1073885184
  67 000a A107     		addi	a5,a5,8
  68 000c 9843     		lw	a4,0(a5)
  69 000e B7370240 		li	a5,1073885184
  70 0012 A107     		addi	a5,a5,8
  71 0014 13671700 		ori	a4,a4,1
  72 0018 98C3     		sw	a4,0(a5)
  62:../Firmware/GD32VW55x_standard_peripheral/Source/gd32vw55x_crc.c **** }
  73              		.loc 1 62 1
  74 001a 0100     		nop
  75 001c 3244     		lw	s0,12(sp)
  76              		.cfi_restore 8
  77              		.cfi_def_cfa 2, 16
  78 001e 4101     		addi	sp,sp,16
  79              		.cfi_def_cfa_offset 0
  80 0020 8280     		jr	ra
  81              		.cfi_endproc
  82              	.LFE348:
  84              		.section	.text.crc_data_register_read,"ax",@progbits
  85              		.align	1
  86              		.globl	crc_data_register_read
  88              	crc_data_register_read:
  89              	.LFB349:
  63:../Firmware/GD32VW55x_standard_peripheral/Source/gd32vw55x_crc.c **** 
  64:../Firmware/GD32VW55x_standard_peripheral/Source/gd32vw55x_crc.c **** /*!
  65:../Firmware/GD32VW55x_standard_peripheral/Source/gd32vw55x_crc.c ****     \brief      read the value of the data register
  66:../Firmware/GD32VW55x_standard_peripheral/Source/gd32vw55x_crc.c ****     \param[in]  none
  67:../Firmware/GD32VW55x_standard_peripheral/Source/gd32vw55x_crc.c ****     \param[out] none
  68:../Firmware/GD32VW55x_standard_peripheral/Source/gd32vw55x_crc.c ****     \retval     32-bit value of the data register:0x00000000-0xFFFFFFFF
  69:../Firmware/GD32VW55x_standard_peripheral/Source/gd32vw55x_crc.c **** */
  70:../Firmware/GD32VW55x_standard_peripheral/Source/gd32vw55x_crc.c **** uint32_t crc_data_register_read(void)
  71:../Firmware/GD32VW55x_standard_peripheral/Source/gd32vw55x_crc.c **** {
  90              		.loc 1 71 1
  91              		.cfi_startproc
  92 0000 0111     		addi	sp,sp,-32
  93              		.cfi_def_cfa_offset 32
  94 0002 22CE     		sw	s0,28(sp)
  95              		.cfi_offset 8, -4
  96 0004 0010     		addi	s0,sp,32
  97              		.cfi_def_cfa 8, 0
  72:../Firmware/GD32VW55x_standard_peripheral/Source/gd32vw55x_crc.c ****     uint32_t data;
  73:../Firmware/GD32VW55x_standard_peripheral/Source/gd32vw55x_crc.c ****     data = CRC_DATA;
  98              		.loc 1 73 12
  99 0006 B7370240 		li	a5,1073885184
 100              		.loc 1 73 10
 101 000a 9C43     		lw	a5,0(a5)
 102 000c 2326F4FE 		sw	a5,-20(s0)
  74:../Firmware/GD32VW55x_standard_peripheral/Source/gd32vw55x_crc.c ****     return (data);
 103              		.loc 1 74 12
 104 0010 8327C4FE 		lw	a5,-20(s0)
  75:../Firmware/GD32VW55x_standard_peripheral/Source/gd32vw55x_crc.c **** }
 105              		.loc 1 75 1
 106 0014 3E85     		mv	a0,a5
 107 0016 7244     		lw	s0,28(sp)
 108              		.cfi_restore 8
 109              		.cfi_def_cfa 2, 32
 110 0018 0561     		addi	sp,sp,32
 111              		.cfi_def_cfa_offset 0
 112 001a 8280     		jr	ra
 113              		.cfi_endproc
 114              	.LFE349:
 116              		.section	.text.crc_free_data_register_read,"ax",@progbits
 117              		.align	1
 118              		.globl	crc_free_data_register_read
 120              	crc_free_data_register_read:
 121              	.LFB350:
  76:../Firmware/GD32VW55x_standard_peripheral/Source/gd32vw55x_crc.c **** 
  77:../Firmware/GD32VW55x_standard_peripheral/Source/gd32vw55x_crc.c **** /*!
  78:../Firmware/GD32VW55x_standard_peripheral/Source/gd32vw55x_crc.c ****     \brief      read the value of the free data register
  79:../Firmware/GD32VW55x_standard_peripheral/Source/gd32vw55x_crc.c ****     \param[in]  none
  80:../Firmware/GD32VW55x_standard_peripheral/Source/gd32vw55x_crc.c ****     \param[out] none
  81:../Firmware/GD32VW55x_standard_peripheral/Source/gd32vw55x_crc.c ****     \retval     8-bit value of the free data register:0x00-0xFF
  82:../Firmware/GD32VW55x_standard_peripheral/Source/gd32vw55x_crc.c **** */
  83:../Firmware/GD32VW55x_standard_peripheral/Source/gd32vw55x_crc.c **** uint8_t crc_free_data_register_read(void)
  84:../Firmware/GD32VW55x_standard_peripheral/Source/gd32vw55x_crc.c **** {
 122              		.loc 1 84 1
 123              		.cfi_startproc
 124 0000 0111     		addi	sp,sp,-32
 125              		.cfi_def_cfa_offset 32
 126 0002 22CE     		sw	s0,28(sp)
 127              		.cfi_offset 8, -4
 128 0004 0010     		addi	s0,sp,32
 129              		.cfi_def_cfa 8, 0
  85:../Firmware/GD32VW55x_standard_peripheral/Source/gd32vw55x_crc.c ****     uint8_t fdata;
  86:../Firmware/GD32VW55x_standard_peripheral/Source/gd32vw55x_crc.c ****     fdata = (uint8_t)CRC_FDATA;
 130              		.loc 1 86 22
 131 0006 B7370240 		li	a5,1073885184
 132 000a 9107     		addi	a5,a5,4
 133 000c 9C43     		lw	a5,0(a5)
 134              		.loc 1 86 11
 135 000e A307F4FE 		sb	a5,-17(s0)
  87:../Firmware/GD32VW55x_standard_peripheral/Source/gd32vw55x_crc.c ****     return (fdata);
 136              		.loc 1 87 12
 137 0012 8347F4FE 		lbu	a5,-17(s0)
  88:../Firmware/GD32VW55x_standard_peripheral/Source/gd32vw55x_crc.c **** }
 138              		.loc 1 88 1
 139 0016 3E85     		mv	a0,a5
 140 0018 7244     		lw	s0,28(sp)
 141              		.cfi_restore 8
 142              		.cfi_def_cfa 2, 32
 143 001a 0561     		addi	sp,sp,32
 144              		.cfi_def_cfa_offset 0
 145 001c 8280     		jr	ra
 146              		.cfi_endproc
 147              	.LFE350:
 149              		.section	.text.crc_free_data_register_write,"ax",@progbits
 150              		.align	1
 151              		.globl	crc_free_data_register_write
 153              	crc_free_data_register_write:
 154              	.LFB351:
  89:../Firmware/GD32VW55x_standard_peripheral/Source/gd32vw55x_crc.c **** 
  90:../Firmware/GD32VW55x_standard_peripheral/Source/gd32vw55x_crc.c **** /*!
  91:../Firmware/GD32VW55x_standard_peripheral/Source/gd32vw55x_crc.c ****     \brief      write data to the free data register
  92:../Firmware/GD32VW55x_standard_peripheral/Source/gd32vw55x_crc.c ****     \param[in]  free_data: specified 8-bit data
  93:../Firmware/GD32VW55x_standard_peripheral/Source/gd32vw55x_crc.c ****     \param[out] none
  94:../Firmware/GD32VW55x_standard_peripheral/Source/gd32vw55x_crc.c ****     \retval     none
  95:../Firmware/GD32VW55x_standard_peripheral/Source/gd32vw55x_crc.c **** */
  96:../Firmware/GD32VW55x_standard_peripheral/Source/gd32vw55x_crc.c **** void crc_free_data_register_write(uint8_t free_data)
  97:../Firmware/GD32VW55x_standard_peripheral/Source/gd32vw55x_crc.c **** {
 155              		.loc 1 97 1
 156              		.cfi_startproc
 157 0000 0111     		addi	sp,sp,-32
 158              		.cfi_def_cfa_offset 32
 159 0002 22CE     		sw	s0,28(sp)
 160              		.cfi_offset 8, -4
 161 0004 0010     		addi	s0,sp,32
 162              		.cfi_def_cfa 8, 0
 163 0006 AA87     		mv	a5,a0
 164 0008 A307F4FE 		sb	a5,-17(s0)
  98:../Firmware/GD32VW55x_standard_peripheral/Source/gd32vw55x_crc.c ****     CRC_FDATA = (uint32_t)free_data;
 165              		.loc 1 98 5
 166 000c B7370240 		li	a5,1073885184
 167 0010 9107     		addi	a5,a5,4
 168              		.loc 1 98 17
 169 0012 0347F4FE 		lbu	a4,-17(s0)
 170              		.loc 1 98 15
 171 0016 98C3     		sw	a4,0(a5)
  99:../Firmware/GD32VW55x_standard_peripheral/Source/gd32vw55x_crc.c **** }
 172              		.loc 1 99 1
 173 0018 0100     		nop
 174 001a 7244     		lw	s0,28(sp)
 175              		.cfi_restore 8
 176              		.cfi_def_cfa 2, 32
 177 001c 0561     		addi	sp,sp,32
 178              		.cfi_def_cfa_offset 0
 179 001e 8280     		jr	ra
 180              		.cfi_endproc
 181              	.LFE351:
 183              		.section	.text.crc_single_data_calculate,"ax",@progbits
 184              		.align	1
 185              		.globl	crc_single_data_calculate
 187              	crc_single_data_calculate:
 188              	.LFB352:
 100:../Firmware/GD32VW55x_standard_peripheral/Source/gd32vw55x_crc.c **** 
 101:../Firmware/GD32VW55x_standard_peripheral/Source/gd32vw55x_crc.c **** /*!
 102:../Firmware/GD32VW55x_standard_peripheral/Source/gd32vw55x_crc.c ****     \brief      calculate the CRC value of a 32-bit data
 103:../Firmware/GD32VW55x_standard_peripheral/Source/gd32vw55x_crc.c ****     \param[in]  sdata: specified 32-bit data
 104:../Firmware/GD32VW55x_standard_peripheral/Source/gd32vw55x_crc.c ****     \param[out] none
 105:../Firmware/GD32VW55x_standard_peripheral/Source/gd32vw55x_crc.c ****     \retval     32-bit value calculated by CRC:0x00000000-0xFFFFFFFF
 106:../Firmware/GD32VW55x_standard_peripheral/Source/gd32vw55x_crc.c **** */
 107:../Firmware/GD32VW55x_standard_peripheral/Source/gd32vw55x_crc.c **** uint32_t crc_single_data_calculate(uint32_t sdata)
 108:../Firmware/GD32VW55x_standard_peripheral/Source/gd32vw55x_crc.c **** {
 189              		.loc 1 108 1
 190              		.cfi_startproc
 191 0000 0111     		addi	sp,sp,-32
 192              		.cfi_def_cfa_offset 32
 193 0002 22CE     		sw	s0,28(sp)
 194              		.cfi_offset 8, -4
 195 0004 0010     		addi	s0,sp,32
 196              		.cfi_def_cfa 8, 0
 197 0006 2326A4FE 		sw	a0,-20(s0)
 109:../Firmware/GD32VW55x_standard_peripheral/Source/gd32vw55x_crc.c ****     CRC_DATA = sdata;
 198              		.loc 1 109 5
 199 000a B7370240 		li	a5,1073885184
 200              		.loc 1 109 14
 201 000e 0327C4FE 		lw	a4,-20(s0)
 202 0012 98C3     		sw	a4,0(a5)
 110:../Firmware/GD32VW55x_standard_peripheral/Source/gd32vw55x_crc.c ****     return (CRC_DATA);
 203              		.loc 1 110 13
 204 0014 B7370240 		li	a5,1073885184
 205 0018 9C43     		lw	a5,0(a5)
 111:../Firmware/GD32VW55x_standard_peripheral/Source/gd32vw55x_crc.c **** }
 206              		.loc 1 111 1
 207 001a 3E85     		mv	a0,a5
 208 001c 7244     		lw	s0,28(sp)
 209              		.cfi_restore 8
 210              		.cfi_def_cfa 2, 32
 211 001e 0561     		addi	sp,sp,32
 212              		.cfi_def_cfa_offset 0
 213 0020 8280     		jr	ra
 214              		.cfi_endproc
 215              	.LFE352:
 217              		.section	.text.crc_block_data_calculate,"ax",@progbits
 218              		.align	1
 219              		.globl	crc_block_data_calculate
 221              	crc_block_data_calculate:
 222              	.LFB353:
 112:../Firmware/GD32VW55x_standard_peripheral/Source/gd32vw55x_crc.c **** 
 113:../Firmware/GD32VW55x_standard_peripheral/Source/gd32vw55x_crc.c **** /*!
 114:../Firmware/GD32VW55x_standard_peripheral/Source/gd32vw55x_crc.c ****     \brief      calculate the CRC value of an array of 32-bit values
 115:../Firmware/GD32VW55x_standard_peripheral/Source/gd32vw55x_crc.c ****     \param[in]  array: pointer to an array of 32-bit values
 116:../Firmware/GD32VW55x_standard_peripheral/Source/gd32vw55x_crc.c ****     \param[in]  size: size of the array
 117:../Firmware/GD32VW55x_standard_peripheral/Source/gd32vw55x_crc.c ****     \param[out] none
 118:../Firmware/GD32VW55x_standard_peripheral/Source/gd32vw55x_crc.c ****     \retval     32-bit value calculated by CRC:0x00000000-0xFFFFFFFF
 119:../Firmware/GD32VW55x_standard_peripheral/Source/gd32vw55x_crc.c **** */
 120:../Firmware/GD32VW55x_standard_peripheral/Source/gd32vw55x_crc.c **** uint32_t crc_block_data_calculate(uint32_t array[], uint32_t size)
 121:../Firmware/GD32VW55x_standard_peripheral/Source/gd32vw55x_crc.c **** {
 223              		.loc 1 121 1
 224              		.cfi_startproc
 225 0000 7971     		addi	sp,sp,-48
 226              		.cfi_def_cfa_offset 48
 227 0002 22D6     		sw	s0,44(sp)
 228              		.cfi_offset 8, -4
 229 0004 0018     		addi	s0,sp,48
 230              		.cfi_def_cfa 8, 0
 231 0006 232EA4FC 		sw	a0,-36(s0)
 232 000a 232CB4FC 		sw	a1,-40(s0)
 122:../Firmware/GD32VW55x_standard_peripheral/Source/gd32vw55x_crc.c ****     uint32_t index;
 123:../Firmware/GD32VW55x_standard_peripheral/Source/gd32vw55x_crc.c ****     for(index = 0U; index < size; index++){
 233              		.loc 1 123 15
 234 000e 232604FE 		sw	zero,-20(s0)
 235              		.loc 1 123 5
 236 0012 05A0     		j	.L11
 237              	.L12:
 124:../Firmware/GD32VW55x_standard_peripheral/Source/gd32vw55x_crc.c ****         CRC_DATA = array[index];
 238              		.loc 1 124 25 discriminator 3
 239 0014 8327C4FE 		lw	a5,-20(s0)
 240 0018 8A07     		slli	a5,a5,2
 241 001a 0327C4FD 		lw	a4,-36(s0)
 242 001e 3E97     		add	a4,a4,a5
 243              		.loc 1 124 9 discriminator 3
 244 0020 B7370240 		li	a5,1073885184
 245              		.loc 1 124 25 discriminator 3
 246 0024 1843     		lw	a4,0(a4)
 247              		.loc 1 124 18 discriminator 3
 248 0026 98C3     		sw	a4,0(a5)
 123:../Firmware/GD32VW55x_standard_peripheral/Source/gd32vw55x_crc.c ****         CRC_DATA = array[index];
 249              		.loc 1 123 40 discriminator 3
 250 0028 8327C4FE 		lw	a5,-20(s0)
 251 002c 8507     		addi	a5,a5,1
 252 002e 2326F4FE 		sw	a5,-20(s0)
 253              	.L11:
 123:../Firmware/GD32VW55x_standard_peripheral/Source/gd32vw55x_crc.c ****         CRC_DATA = array[index];
 254              		.loc 1 123 5 discriminator 1
 255 0032 0327C4FE 		lw	a4,-20(s0)
 256 0036 832784FD 		lw	a5,-40(s0)
 257 003a E36DF7FC 		bltu	a4,a5,.L12
 125:../Firmware/GD32VW55x_standard_peripheral/Source/gd32vw55x_crc.c ****     }
 126:../Firmware/GD32VW55x_standard_peripheral/Source/gd32vw55x_crc.c ****     return (CRC_DATA);
 258              		.loc 1 126 13
 259 003e B7370240 		li	a5,1073885184
 260 0042 9C43     		lw	a5,0(a5)
 127:../Firmware/GD32VW55x_standard_peripheral/Source/gd32vw55x_crc.c **** }
 261              		.loc 1 127 1
 262 0044 3E85     		mv	a0,a5
 263 0046 3254     		lw	s0,44(sp)
 264              		.cfi_restore 8
 265              		.cfi_def_cfa 2, 48
 266 0048 4561     		addi	sp,sp,48
 267              		.cfi_def_cfa_offset 0
 268 004a 8280     		jr	ra
 269              		.cfi_endproc
 270              	.LFE353:
 272              		.text
 273              	.Letext0:
 274              		.file 2 "e:\\gd32\\gd32embeddedbuilder_v1.5.2.30854\\tools\\nuclei_riscv_newlibc_prebuilt_win32_20
 275              		.file 3 "e:\\gd32\\gd32embeddedbuilder_v1.5.2.30854\\tools\\nuclei_riscv_newlibc_prebuilt_win32_20