   1              		.file	"gd32vw55x_cau.c"
   2              		.option nopic
   3              		.attribute arch, "rv32i2p0_m2p0_a2p0_c2p0"
   4              		.attribute unaligned_access, 0
   5              		.attribute stack_align, 16
   6              		.text
   7              	.Ltext0:
   8              		.cfi_sections	.debug_frame
   9              		.section	.text.cau_deinit,"ax",@progbits
  10              		.align	1
  11              		.globl	cau_deinit
  13              	cau_deinit:
  14              	.LFB347:
  15              		.file 1 "../Firmware/GD32VW55x_standard_peripheral/Source/gd32vw55x_cau.c"
   1:../Firmware/GD32VW55x_standard_peripheral/Source/gd32vw55x_cau.c **** /*!
   2:../Firmware/GD32VW55x_standard_peripheral/Source/gd32vw55x_cau.c ****     \file    gd32vw55x_cau.c
   3:../Firmware/GD32VW55x_standard_peripheral/Source/gd32vw55x_cau.c ****     \brief   CAU driver
   4:../Firmware/GD32VW55x_standard_peripheral/Source/gd32vw55x_cau.c **** 
   5:../Firmware/GD32VW55x_standard_peripheral/Source/gd32vw55x_cau.c ****     \version 2025-01-16, V1.4.0, firmware for GD32VW55x
   6:../Firmware/GD32VW55x_standard_peripheral/Source/gd32vw55x_cau.c **** */
   7:../Firmware/GD32VW55x_standard_peripheral/Source/gd32vw55x_cau.c **** 
   8:../Firmware/GD32VW55x_standard_peripheral/Source/gd32vw55x_cau.c **** /*
   9:../Firmware/GD32VW55x_standard_peripheral/Source/gd32vw55x_cau.c ****     Copyright (c) 2025, GigaDevice Semiconductor Inc.
  10:../Firmware/GD32VW55x_standard_peripheral/Source/gd32vw55x_cau.c **** 
  11:../Firmware/GD32VW55x_standard_peripheral/Source/gd32vw55x_cau.c ****     Redistribution and use in source and binary forms, with or without modification,
  12:../Firmware/GD32VW55x_standard_peripheral/Source/gd32vw55x_cau.c **** are permitted provided that the following conditions are met:
  13:../Firmware/GD32VW55x_standard_peripheral/Source/gd32vw55x_cau.c **** 
  14:../Firmware/GD32VW55x_standard_peripheral/Source/gd32vw55x_cau.c ****     1. Redistributions of source code must retain the above copyright notice, this
  15:../Firmware/GD32VW55x_standard_peripheral/Source/gd32vw55x_cau.c ****        list of conditions and the following disclaimer.
  16:../Firmware/GD32VW55x_standard_peripheral/Source/gd32vw55x_cau.c ****     2. Redistributions in binary form must reproduce the above copyright notice,
  17:../Firmware/GD32VW55x_standard_peripheral/Source/gd32vw55x_cau.c ****        this list of conditions and the following disclaimer in the documentation
  18:../Firmware/GD32VW55x_standard_peripheral/Source/gd32vw55x_cau.c ****        and/or other materials provided with the distribution.
  19:../Firmware/GD32VW55x_standard_peripheral/Source/gd32vw55x_cau.c ****     3. Neither the name of the copyright holder nor the names of its contributors
  20:../Firmware/GD32VW55x_standard_peripheral/Source/gd32vw55x_cau.c ****        may be used to endorse or promote products derived from this software without
  21:../Firmware/GD32VW55x_standard_peripheral/Source/gd32vw55x_cau.c ****        specific prior written permission.
  22:../Firmware/GD32VW55x_standard_peripheral/Source/gd32vw55x_cau.c **** 
  23:../Firmware/GD32VW55x_standard_peripheral/Source/gd32vw55x_cau.c ****     THIS SOFTWARE IS PROVIDED BY THE COPYRIGHT HOLDERS AND CONTRIBUTORS "AS IS"
  24:../Firmware/GD32VW55x_standard_peripheral/Source/gd32vw55x_cau.c **** AND ANY EXPRESS OR IMPLIED WARRANTIES, INCLUDING, BUT NOT LIMITED TO, THE IMPLIED
  25:../Firmware/GD32VW55x_standard_peripheral/Source/gd32vw55x_cau.c **** WARRANTIES OF MERCHANTABILITY AND FITNESS FOR A PARTICULAR PURPOSE ARE DISCLAIMED.
  26:../Firmware/GD32VW55x_standard_peripheral/Source/gd32vw55x_cau.c **** IN NO EVENT SHALL THE COPYRIGHT HOLDER OR CONTRIBUTORS BE LIABLE FOR ANY DIRECT,
  27:../Firmware/GD32VW55x_standard_peripheral/Source/gd32vw55x_cau.c **** INDIRECT, INCIDENTAL, SPECIAL, EXEMPLARY, OR CONSEQUENTIAL DAMAGES (INCLUDING, BUT
  28:../Firmware/GD32VW55x_standard_peripheral/Source/gd32vw55x_cau.c **** NOT LIMITED TO, PROCUREMENT OF SUBSTITUTE GOODS OR SERVICES; LOSS OF USE, DATA, OR
  29:../Firmware/GD32VW55x_standard_peripheral/Source/gd32vw55x_cau.c **** PROFITS; OR BUSINESS INTERRUPTION) HOWEVER CAUSED AND ON ANY THEORY OF LIABILITY,
  30:../Firmware/GD32VW55x_standard_peripheral/Source/gd32vw55x_cau.c **** WHETHER IN CONTRACT, STRICT LIABILITY, OR TORT (INCLUDING NEGLIGENCE OR OTHERWISE)
  31:../Firmware/GD32VW55x_standard_peripheral/Source/gd32vw55x_cau.c **** ARISING IN ANY WAY OUT OF THE USE OF THIS SOFTWARE, EVEN IF ADVISED OF THE POSSIBILITY
  32:../Firmware/GD32VW55x_standard_peripheral/Source/gd32vw55x_cau.c **** OF SUCH DAMAGE.
  33:../Firmware/GD32VW55x_standard_peripheral/Source/gd32vw55x_cau.c **** */
  34:../Firmware/GD32VW55x_standard_peripheral/Source/gd32vw55x_cau.c **** 
  35:../Firmware/GD32VW55x_standard_peripheral/Source/gd32vw55x_cau.c **** #include "gd32vw55x_cau.h"
  36:../Firmware/GD32VW55x_standard_peripheral/Source/gd32vw55x_cau.c **** #include "gd32vw55x_rcu.h"
  37:../Firmware/GD32VW55x_standard_peripheral/Source/gd32vw55x_cau.c **** 
  38:../Firmware/GD32VW55x_standard_peripheral/Source/gd32vw55x_cau.c **** #define STAT0_AESDES_MASK    ((uint32_t)0x00000015U)
  39:../Firmware/GD32VW55x_standard_peripheral/Source/gd32vw55x_cau.c **** #define STAT0_TDES_MASK      ((uint32_t)0x00000014U)
  40:../Firmware/GD32VW55x_standard_peripheral/Source/gd32vw55x_cau.c **** 
  41:../Firmware/GD32VW55x_standard_peripheral/Source/gd32vw55x_cau.c **** /*!
  42:../Firmware/GD32VW55x_standard_peripheral/Source/gd32vw55x_cau.c ****     \brief      reset the CAU peripheral
  43:../Firmware/GD32VW55x_standard_peripheral/Source/gd32vw55x_cau.c ****     \param[in]  none
  44:../Firmware/GD32VW55x_standard_peripheral/Source/gd32vw55x_cau.c ****     \param[out] none
  45:../Firmware/GD32VW55x_standard_peripheral/Source/gd32vw55x_cau.c ****     \retval     none
  46:../Firmware/GD32VW55x_standard_peripheral/Source/gd32vw55x_cau.c **** */
  47:../Firmware/GD32VW55x_standard_peripheral/Source/gd32vw55x_cau.c **** void cau_deinit(void)
  48:../Firmware/GD32VW55x_standard_peripheral/Source/gd32vw55x_cau.c **** {
  16              		.loc 1 48 1
  17              		.cfi_startproc
  18 0000 4111     		addi	sp,sp,-16
  19              		.cfi_def_cfa_offset 16
  20 0002 06C6     		sw	ra,12(sp)
  21 0004 22C4     		sw	s0,8(sp)
  22              		.cfi_offset 1, -4
  23              		.cfi_offset 8, -8
  24 0006 0008     		addi	s0,sp,16
  25              		.cfi_def_cfa 8, 0
  49:../Firmware/GD32VW55x_standard_peripheral/Source/gd32vw55x_cau.c ****     /* enable CAU reset state */
  50:../Firmware/GD32VW55x_standard_peripheral/Source/gd32vw55x_cau.c ****     rcu_periph_reset_enable(RCU_CAURST);
  26              		.loc 1 50 5
  27 0008 13054050 		li	a0,1284
  28 000c 97000000 		call	rcu_periph_reset_enable
  28      E7800000 
  51:../Firmware/GD32VW55x_standard_peripheral/Source/gd32vw55x_cau.c ****     /* release CAU from reset state */
  52:../Firmware/GD32VW55x_standard_peripheral/Source/gd32vw55x_cau.c ****     rcu_periph_reset_disable(RCU_CAURST);
  29              		.loc 1 52 5
  30 0014 13054050 		li	a0,1284
  31 0018 97000000 		call	rcu_periph_reset_disable
  31      E7800000 
  53:../Firmware/GD32VW55x_standard_peripheral/Source/gd32vw55x_cau.c **** }
  32              		.loc 1 53 1
  33 0020 0100     		nop
  34 0022 B240     		lw	ra,12(sp)
  35              		.cfi_restore 1
  36 0024 2244     		lw	s0,8(sp)
  37              		.cfi_restore 8
  38              		.cfi_def_cfa 2, 16
  39 0026 4101     		addi	sp,sp,16
  40              		.cfi_def_cfa_offset 0
  41 0028 8280     		jr	ra
  42              		.cfi_endproc
  43              	.LFE347:
  45              		.section	.text.cau_struct_para_init,"ax",@progbits
  46              		.align	1
  47              		.globl	cau_struct_para_init
  49              	cau_struct_para_init:
  50              	.LFB348:
  54:../Firmware/GD32VW55x_standard_peripheral/Source/gd32vw55x_cau.c **** 
  55:../Firmware/GD32VW55x_standard_peripheral/Source/gd32vw55x_cau.c **** /*!
  56:../Firmware/GD32VW55x_standard_peripheral/Source/gd32vw55x_cau.c ****     \brief      initialize the CAU encrypt and decrypt parameter struct with the default values
  57:../Firmware/GD32VW55x_standard_peripheral/Source/gd32vw55x_cau.c ****     \param[in]  none
  58:../Firmware/GD32VW55x_standard_peripheral/Source/gd32vw55x_cau.c ****     \param[out] cau_parameter:
  59:../Firmware/GD32VW55x_standard_peripheral/Source/gd32vw55x_cau.c ****                   alg_dir: algorithm direction
  60:../Firmware/GD32VW55x_standard_peripheral/Source/gd32vw55x_cau.c ****                     CAU_ENCRYPT, CAU_DECRYPT
  61:../Firmware/GD32VW55x_standard_peripheral/Source/gd32vw55x_cau.c ****                   key: key
  62:../Firmware/GD32VW55x_standard_peripheral/Source/gd32vw55x_cau.c ****                   key_size: key size in bytes
  63:../Firmware/GD32VW55x_standard_peripheral/Source/gd32vw55x_cau.c ****                   iv: initialization vector
  64:../Firmware/GD32VW55x_standard_peripheral/Source/gd32vw55x_cau.c ****                   iv_size: iv size in bytes
  65:../Firmware/GD32VW55x_standard_peripheral/Source/gd32vw55x_cau.c ****                   input: input data
  66:../Firmware/GD32VW55x_standard_peripheral/Source/gd32vw55x_cau.c ****                   in_length: input data length in bytes
  67:../Firmware/GD32VW55x_standard_peripheral/Source/gd32vw55x_cau.c ****                   aad: additional authentication data
  68:../Firmware/GD32VW55x_standard_peripheral/Source/gd32vw55x_cau.c ****                   aad_size: header size
  69:../Firmware/GD32VW55x_standard_peripheral/Source/gd32vw55x_cau.c ****     \retval     none
  70:../Firmware/GD32VW55x_standard_peripheral/Source/gd32vw55x_cau.c **** */
  71:../Firmware/GD32VW55x_standard_peripheral/Source/gd32vw55x_cau.c **** void cau_struct_para_init(cau_parameter_struct *cau_parameter)
  72:../Firmware/GD32VW55x_standard_peripheral/Source/gd32vw55x_cau.c **** {
  51              		.loc 1 72 1
  52              		.cfi_startproc
  53 0000 0111     		addi	sp,sp,-32
  54              		.cfi_def_cfa_offset 32
  55 0002 22CE     		sw	s0,28(sp)
  56              		.cfi_offset 8, -4
  57 0004 0010     		addi	s0,sp,32
  58              		.cfi_def_cfa 8, 0
  59 0006 2326A4FE 		sw	a0,-20(s0)
  73:../Firmware/GD32VW55x_standard_peripheral/Source/gd32vw55x_cau.c ****     /* set the CAU encrypt and decrypt parameters struct with the default values */
  74:../Firmware/GD32VW55x_standard_peripheral/Source/gd32vw55x_cau.c ****     cau_parameter->alg_dir     = CAU_ENCRYPT;
  60              		.loc 1 74 32
  61 000a 8327C4FE 		lw	a5,-20(s0)
  62 000e 23A00700 		sw	zero,0(a5)
  75:../Firmware/GD32VW55x_standard_peripheral/Source/gd32vw55x_cau.c ****     cau_parameter->key         = 0U;
  63              		.loc 1 75 32
  64 0012 8327C4FE 		lw	a5,-20(s0)
  65 0016 23A20700 		sw	zero,4(a5)
  76:../Firmware/GD32VW55x_standard_peripheral/Source/gd32vw55x_cau.c ****     cau_parameter->key_size    = 0U;
  66              		.loc 1 76 32
  67 001a 8327C4FE 		lw	a5,-20(s0)
  68 001e 23A40700 		sw	zero,8(a5)
  77:../Firmware/GD32VW55x_standard_peripheral/Source/gd32vw55x_cau.c ****     cau_parameter->iv          = 0U;
  69              		.loc 1 77 32
  70 0022 8327C4FE 		lw	a5,-20(s0)
  71 0026 23A60700 		sw	zero,12(a5)
  78:../Firmware/GD32VW55x_standard_peripheral/Source/gd32vw55x_cau.c ****     cau_parameter->iv_size     = 0U;
  72              		.loc 1 78 32
  73 002a 8327C4FE 		lw	a5,-20(s0)
  74 002e 23A80700 		sw	zero,16(a5)
  79:../Firmware/GD32VW55x_standard_peripheral/Source/gd32vw55x_cau.c ****     cau_parameter->input       = 0U;
  75              		.loc 1 79 32
  76 0032 8327C4FE 		lw	a5,-20(s0)
  77 0036 23AA0700 		sw	zero,20(a5)
  80:../Firmware/GD32VW55x_standard_peripheral/Source/gd32vw55x_cau.c ****     cau_parameter->in_length   = 0U;
  78              		.loc 1 80 32
  79 003a 8327C4FE 		lw	a5,-20(s0)
  80 003e 23AC0700 		sw	zero,24(a5)
  81:../Firmware/GD32VW55x_standard_peripheral/Source/gd32vw55x_cau.c ****     cau_parameter->aad         = 0U;
  81              		.loc 1 81 32
  82 0042 8327C4FE 		lw	a5,-20(s0)
  83 0046 23AE0700 		sw	zero,28(a5)
  82:../Firmware/GD32VW55x_standard_peripheral/Source/gd32vw55x_cau.c ****     cau_parameter->aad_size    = 0U;
  84              		.loc 1 82 32
  85 004a 8327C4FE 		lw	a5,-20(s0)
  86 004e 23A00702 		sw	zero,32(a5)
  83:../Firmware/GD32VW55x_standard_peripheral/Source/gd32vw55x_cau.c **** }
  87              		.loc 1 83 1
  88 0052 0100     		nop
  89 0054 7244     		lw	s0,28(sp)
  90              		.cfi_restore 8
  91              		.cfi_def_cfa 2, 32
  92 0056 0561     		addi	sp,sp,32
  93              		.cfi_def_cfa_offset 0
  94 0058 8280     		jr	ra
  95              		.cfi_endproc
  96              	.LFE348:
  98              		.section	.text.cau_key_struct_para_init,"ax",@progbits
  99              		.align	1
 100              		.globl	cau_key_struct_para_init
 102              	cau_key_struct_para_init:
 103              	.LFB349:
  84:../Firmware/GD32VW55x_standard_peripheral/Source/gd32vw55x_cau.c **** 
  85:../Firmware/GD32VW55x_standard_peripheral/Source/gd32vw55x_cau.c **** /*!
  86:../Firmware/GD32VW55x_standard_peripheral/Source/gd32vw55x_cau.c ****     \brief      initialize the key parameter struct with the default values
  87:../Firmware/GD32VW55x_standard_peripheral/Source/gd32vw55x_cau.c ****     \param[in]  none
  88:../Firmware/GD32VW55x_standard_peripheral/Source/gd32vw55x_cau.c ****     \param[out] key_initpara:
  89:../Firmware/GD32VW55x_standard_peripheral/Source/gd32vw55x_cau.c ****                   key_0_high: key 0 high
  90:../Firmware/GD32VW55x_standard_peripheral/Source/gd32vw55x_cau.c ****                   key_0_low:  key 0 low
  91:../Firmware/GD32VW55x_standard_peripheral/Source/gd32vw55x_cau.c ****                   key_1_high: key 1 high
  92:../Firmware/GD32VW55x_standard_peripheral/Source/gd32vw55x_cau.c ****                   key_1_low:  key 1 low
  93:../Firmware/GD32VW55x_standard_peripheral/Source/gd32vw55x_cau.c ****                   key_2_high: key 2 high
  94:../Firmware/GD32VW55x_standard_peripheral/Source/gd32vw55x_cau.c ****                   key_2_low:  key 2 low
  95:../Firmware/GD32VW55x_standard_peripheral/Source/gd32vw55x_cau.c ****                   key_3_high: key 3 high
  96:../Firmware/GD32VW55x_standard_peripheral/Source/gd32vw55x_cau.c ****                   key_3_low:  key 3 low
  97:../Firmware/GD32VW55x_standard_peripheral/Source/gd32vw55x_cau.c ****     \retval     none
  98:../Firmware/GD32VW55x_standard_peripheral/Source/gd32vw55x_cau.c **** */
  99:../Firmware/GD32VW55x_standard_peripheral/Source/gd32vw55x_cau.c **** void cau_key_struct_para_init(cau_key_parameter_struct *key_initpara)
 100:../Firmware/GD32VW55x_standard_peripheral/Source/gd32vw55x_cau.c **** {
 104              		.loc 1 100 1
 105              		.cfi_startproc
 106 0000 0111     		addi	sp,sp,-32
 107              		.cfi_def_cfa_offset 32
 108 0002 22CE     		sw	s0,28(sp)
 109              		.cfi_offset 8, -4
 110 0004 0010     		addi	s0,sp,32
 111              		.cfi_def_cfa 8, 0
 112 0006 2326A4FE 		sw	a0,-20(s0)
 101:../Firmware/GD32VW55x_standard_peripheral/Source/gd32vw55x_cau.c ****     /* set the key parameters struct with the default values */
 102:../Firmware/GD32VW55x_standard_peripheral/Source/gd32vw55x_cau.c ****     key_initpara->key_0_high   = 0U;
 113              		.loc 1 102 32
 114 000a 8327C4FE 		lw	a5,-20(s0)
 115 000e 23A00700 		sw	zero,0(a5)
 103:../Firmware/GD32VW55x_standard_peripheral/Source/gd32vw55x_cau.c ****     key_initpara->key_0_low    = 0U;
 116              		.loc 1 103 32
 117 0012 8327C4FE 		lw	a5,-20(s0)
 118 0016 23A20700 		sw	zero,4(a5)
 104:../Firmware/GD32VW55x_standard_peripheral/Source/gd32vw55x_cau.c ****     key_initpara->key_1_high   = 0U;
 119              		.loc 1 104 32
 120 001a 8327C4FE 		lw	a5,-20(s0)
 121 001e 23A40700 		sw	zero,8(a5)
 105:../Firmware/GD32VW55x_standard_peripheral/Source/gd32vw55x_cau.c ****     key_initpara->key_1_low    = 0U;
 122              		.loc 1 105 32
 123 0022 8327C4FE 		lw	a5,-20(s0)
 124 0026 23A60700 		sw	zero,12(a5)
 106:../Firmware/GD32VW55x_standard_peripheral/Source/gd32vw55x_cau.c ****     key_initpara->key_2_high   = 0U;
 125              		.loc 1 106 32
 126 002a 8327C4FE 		lw	a5,-20(s0)
 127 002e 23A80700 		sw	zero,16(a5)
 107:../Firmware/GD32VW55x_standard_peripheral/Source/gd32vw55x_cau.c ****     key_initpara->key_2_low    = 0U;
 128              		.loc 1 107 32
 129 0032 8327C4FE 		lw	a5,-20(s0)
 130 0036 23AA0700 		sw	zero,20(a5)
 108:../Firmware/GD32VW55x_standard_peripheral/Source/gd32vw55x_cau.c ****     key_initpara->key_3_high   = 0U;
 131              		.loc 1 108 32
 132 003a 8327C4FE 		lw	a5,-20(s0)
 133 003e 23AC0700 		sw	zero,24(a5)
 109:../Firmware/GD32VW55x_standard_peripheral/Source/gd32vw55x_cau.c ****     key_initpara->key_3_low    = 0U;
 134              		.loc 1 109 32
 135 0042 8327C4FE 		lw	a5,-20(s0)
 136 0046 23AE0700 		sw	zero,28(a5)
 110:../Firmware/GD32VW55x_standard_peripheral/Source/gd32vw55x_cau.c **** }
 137              		.loc 1 110 1
 138 004a 0100     		nop
 139 004c 7244     		lw	s0,28(sp)
 140              		.cfi_restore 8
 141              		.cfi_def_cfa 2, 32
 142 004e 0561     		addi	sp,sp,32
 143              		.cfi_def_cfa_offset 0
 144 0050 8280     		jr	ra
 145              		.cfi_endproc
 146              	.LFE349:
 148              		.section	.text.cau_iv_struct_para_init,"ax",@progbits
 149              		.align	1
 150              		.globl	cau_iv_struct_para_init
 152              	cau_iv_struct_para_init:
 153              	.LFB350:
 111:../Firmware/GD32VW55x_standard_peripheral/Source/gd32vw55x_cau.c **** 
 112:../Firmware/GD32VW55x_standard_peripheral/Source/gd32vw55x_cau.c **** /*!
 113:../Firmware/GD32VW55x_standard_peripheral/Source/gd32vw55x_cau.c ****     \brief      initialize the vectors parameter struct with the default values
 114:../Firmware/GD32VW55x_standard_peripheral/Source/gd32vw55x_cau.c ****     \param[in]  none
 115:../Firmware/GD32VW55x_standard_peripheral/Source/gd32vw55x_cau.c ****     \param[out] iv_initpara:
 116:../Firmware/GD32VW55x_standard_peripheral/Source/gd32vw55x_cau.c ****                   iv_0_high: init vector 0 high
 117:../Firmware/GD32VW55x_standard_peripheral/Source/gd32vw55x_cau.c ****                   iv_0_low:  init vector 0 low
 118:../Firmware/GD32VW55x_standard_peripheral/Source/gd32vw55x_cau.c ****                   iv_1_high: init vector 1 high
 119:../Firmware/GD32VW55x_standard_peripheral/Source/gd32vw55x_cau.c ****                   iv_1_low:  init vector 1 low
 120:../Firmware/GD32VW55x_standard_peripheral/Source/gd32vw55x_cau.c ****     \retval     none
 121:../Firmware/GD32VW55x_standard_peripheral/Source/gd32vw55x_cau.c **** */
 122:../Firmware/GD32VW55x_standard_peripheral/Source/gd32vw55x_cau.c **** void cau_iv_struct_para_init(cau_iv_parameter_struct *iv_initpara)
 123:../Firmware/GD32VW55x_standard_peripheral/Source/gd32vw55x_cau.c **** {
 154              		.loc 1 123 1
 155              		.cfi_startproc
 156 0000 0111     		addi	sp,sp,-32
 157              		.cfi_def_cfa_offset 32
 158 0002 22CE     		sw	s0,28(sp)
 159              		.cfi_offset 8, -4
 160 0004 0010     		addi	s0,sp,32
 161              		.cfi_def_cfa 8, 0
 162 0006 2326A4FE 		sw	a0,-20(s0)
 124:../Firmware/GD32VW55x_standard_peripheral/Source/gd32vw55x_cau.c ****     /* set the vectors parameters struct with the default values */
 125:../Firmware/GD32VW55x_standard_peripheral/Source/gd32vw55x_cau.c ****     iv_initpara->iv_0_high   = 0U;
 163              		.loc 1 125 30
 164 000a 8327C4FE 		lw	a5,-20(s0)
 165 000e 23A00700 		sw	zero,0(a5)
 126:../Firmware/GD32VW55x_standard_peripheral/Source/gd32vw55x_cau.c ****     iv_initpara->iv_0_low    = 0U;
 166              		.loc 1 126 30
 167 0012 8327C4FE 		lw	a5,-20(s0)
 168 0016 23A20700 		sw	zero,4(a5)
 127:../Firmware/GD32VW55x_standard_peripheral/Source/gd32vw55x_cau.c ****     iv_initpara->iv_1_high   = 0U;
 169              		.loc 1 127 30
 170 001a 8327C4FE 		lw	a5,-20(s0)
 171 001e 23A40700 		sw	zero,8(a5)
 128:../Firmware/GD32VW55x_standard_peripheral/Source/gd32vw55x_cau.c ****     iv_initpara->iv_1_low    = 0U;
 172              		.loc 1 128 30
 173 0022 8327C4FE 		lw	a5,-20(s0)
 174 0026 23A60700 		sw	zero,12(a5)
 129:../Firmware/GD32VW55x_standard_peripheral/Source/gd32vw55x_cau.c **** }
 175              		.loc 1 129 1
 176 002a 0100     		nop
 177 002c 7244     		lw	s0,28(sp)
 178              		.cfi_restore 8
 179              		.cfi_def_cfa 2, 32
 180 002e 0561     		addi	sp,sp,32
 181              		.cfi_def_cfa_offset 0
 182 0030 8280     		jr	ra
 183              		.cfi_endproc
 184              	.LFE350:
 186              		.section	.text.cau_context_struct_para_init,"ax",@progbits
 187              		.align	1
 188              		.globl	cau_context_struct_para_init
 190              	cau_context_struct_para_init:
 191              	.LFB351:
 130:../Firmware/GD32VW55x_standard_peripheral/Source/gd32vw55x_cau.c **** 
 131:../Firmware/GD32VW55x_standard_peripheral/Source/gd32vw55x_cau.c **** /*!
 132:../Firmware/GD32VW55x_standard_peripheral/Source/gd32vw55x_cau.c ****     \brief      initialize the context parameter struct with the default values
 133:../Firmware/GD32VW55x_standard_peripheral/Source/gd32vw55x_cau.c ****     \param[in]  none
 134:../Firmware/GD32VW55x_standard_peripheral/Source/gd32vw55x_cau.c ****     \param[out] cau_context:
 135:../Firmware/GD32VW55x_standard_peripheral/Source/gd32vw55x_cau.c ****                   ctl_config: current configuration
 136:../Firmware/GD32VW55x_standard_peripheral/Source/gd32vw55x_cau.c ****                   iv_0_high: init vector 0 high
 137:../Firmware/GD32VW55x_standard_peripheral/Source/gd32vw55x_cau.c ****                   iv_0_low:  init vector 0 low
 138:../Firmware/GD32VW55x_standard_peripheral/Source/gd32vw55x_cau.c ****                   iv_1_high: init vector 1 high
 139:../Firmware/GD32VW55x_standard_peripheral/Source/gd32vw55x_cau.c ****                   iv_1_low:  init vector 1 low
 140:../Firmware/GD32VW55x_standard_peripheral/Source/gd32vw55x_cau.c ****                   key_0_high: key 0 high
 141:../Firmware/GD32VW55x_standard_peripheral/Source/gd32vw55x_cau.c ****                   key_0_low:  key 0 low
 142:../Firmware/GD32VW55x_standard_peripheral/Source/gd32vw55x_cau.c ****                   key_1_high: key 1 high
 143:../Firmware/GD32VW55x_standard_peripheral/Source/gd32vw55x_cau.c ****                   key_1_low:  key 1 low
 144:../Firmware/GD32VW55x_standard_peripheral/Source/gd32vw55x_cau.c ****                   key_2_high: key 2 high
 145:../Firmware/GD32VW55x_standard_peripheral/Source/gd32vw55x_cau.c ****                   key_2_low:  key 2 low
 146:../Firmware/GD32VW55x_standard_peripheral/Source/gd32vw55x_cau.c ****                   key_3_high: key 3 high
 147:../Firmware/GD32VW55x_standard_peripheral/Source/gd32vw55x_cau.c ****                   key_3_low:  key 3 low
 148:../Firmware/GD32VW55x_standard_peripheral/Source/gd32vw55x_cau.c ****                   gcmccmctxs[8]: GCM or CCM mode context switch
 149:../Firmware/GD32VW55x_standard_peripheral/Source/gd32vw55x_cau.c ****                   gcmctxs[8]: GCM mode context switch
 150:../Firmware/GD32VW55x_standard_peripheral/Source/gd32vw55x_cau.c ****     \retval     none
 151:../Firmware/GD32VW55x_standard_peripheral/Source/gd32vw55x_cau.c **** */
 152:../Firmware/GD32VW55x_standard_peripheral/Source/gd32vw55x_cau.c **** void cau_context_struct_para_init(cau_context_parameter_struct *cau_context)
 153:../Firmware/GD32VW55x_standard_peripheral/Source/gd32vw55x_cau.c **** {
 192              		.loc 1 153 1
 193              		.cfi_startproc
 194 0000 0111     		addi	sp,sp,-32
 195              		.cfi_def_cfa_offset 32
 196 0002 22CE     		sw	s0,28(sp)
 197              		.cfi_offset 8, -4
 198 0004 0010     		addi	s0,sp,32
 199              		.cfi_def_cfa 8, 0
 200 0006 2326A4FE 		sw	a0,-20(s0)
 154:../Firmware/GD32VW55x_standard_peripheral/Source/gd32vw55x_cau.c ****     cau_context->ctl_config = 0U;
 201              		.loc 1 154 29
 202 000a 8327C4FE 		lw	a5,-20(s0)
 203 000e 23A00700 		sw	zero,0(a5)
 155:../Firmware/GD32VW55x_standard_peripheral/Source/gd32vw55x_cau.c **** 
 156:../Firmware/GD32VW55x_standard_peripheral/Source/gd32vw55x_cau.c ****     /* set the vectors parameters with the default values */
 157:../Firmware/GD32VW55x_standard_peripheral/Source/gd32vw55x_cau.c ****     cau_context->iv_0_high  = 0U;
 204              		.loc 1 157 29
 205 0012 8327C4FE 		lw	a5,-20(s0)
 206 0016 23A20700 		sw	zero,4(a5)
 158:../Firmware/GD32VW55x_standard_peripheral/Source/gd32vw55x_cau.c ****     cau_context->iv_0_low   = 0U;
 207              		.loc 1 158 29
 208 001a 8327C4FE 		lw	a5,-20(s0)
 209 001e 23A40700 		sw	zero,8(a5)
 159:../Firmware/GD32VW55x_standard_peripheral/Source/gd32vw55x_cau.c ****     cau_context->iv_1_high  = 0U;
 210              		.loc 1 159 29
 211 0022 8327C4FE 		lw	a5,-20(s0)
 212 0026 23A60700 		sw	zero,12(a5)
 160:../Firmware/GD32VW55x_standard_peripheral/Source/gd32vw55x_cau.c ****     cau_context->iv_1_low   = 0U;
 213              		.loc 1 160 29
 214 002a 8327C4FE 		lw	a5,-20(s0)
 215 002e 23A80700 		sw	zero,16(a5)
 161:../Firmware/GD32VW55x_standard_peripheral/Source/gd32vw55x_cau.c **** 
 162:../Firmware/GD32VW55x_standard_peripheral/Source/gd32vw55x_cau.c ****     /* set the key parameters with the default values */
 163:../Firmware/GD32VW55x_standard_peripheral/Source/gd32vw55x_cau.c ****     cau_context->key_0_high = 0U;
 216              		.loc 1 163 29
 217 0032 8327C4FE 		lw	a5,-20(s0)
 218 0036 23AA0700 		sw	zero,20(a5)
 164:../Firmware/GD32VW55x_standard_peripheral/Source/gd32vw55x_cau.c ****     cau_context->key_0_low  = 0U;
 219              		.loc 1 164 29
 220 003a 8327C4FE 		lw	a5,-20(s0)
 221 003e 23AC0700 		sw	zero,24(a5)
 165:../Firmware/GD32VW55x_standard_peripheral/Source/gd32vw55x_cau.c ****     cau_context->key_1_high = 0U;
 222              		.loc 1 165 29
 223 0042 8327C4FE 		lw	a5,-20(s0)
 224 0046 23AE0700 		sw	zero,28(a5)
 166:../Firmware/GD32VW55x_standard_peripheral/Source/gd32vw55x_cau.c ****     cau_context->key_1_low  = 0U;
 225              		.loc 1 166 29
 226 004a 8327C4FE 		lw	a5,-20(s0)
 227 004e 23A00702 		sw	zero,32(a5)
 167:../Firmware/GD32VW55x_standard_peripheral/Source/gd32vw55x_cau.c ****     cau_context->key_2_high = 0U;
 228              		.loc 1 167 29
 229 0052 8327C4FE 		lw	a5,-20(s0)
 230 0056 23A20702 		sw	zero,36(a5)
 168:../Firmware/GD32VW55x_standard_peripheral/Source/gd32vw55x_cau.c ****     cau_context->key_2_low  = 0U;
 231              		.loc 1 168 29
 232 005a 8327C4FE 		lw	a5,-20(s0)
 233 005e 23A40702 		sw	zero,40(a5)
 169:../Firmware/GD32VW55x_standard_peripheral/Source/gd32vw55x_cau.c ****     cau_context->key_3_high = 0U;
 234              		.loc 1 169 29
 235 0062 8327C4FE 		lw	a5,-20(s0)
 236 0066 23A60702 		sw	zero,44(a5)
 170:../Firmware/GD32VW55x_standard_peripheral/Source/gd32vw55x_cau.c ****     cau_context->key_3_low  = 0U;
 237              		.loc 1 170 29
 238 006a 8327C4FE 		lw	a5,-20(s0)
 239 006e 23A80702 		sw	zero,48(a5)
 171:../Firmware/GD32VW55x_standard_peripheral/Source/gd32vw55x_cau.c **** 
 172:../Firmware/GD32VW55x_standard_peripheral/Source/gd32vw55x_cau.c ****     /* set the context switch with the default values */
 173:../Firmware/GD32VW55x_standard_peripheral/Source/gd32vw55x_cau.c ****     cau_context->gcmccmctxs[0] = 0U;
 240              		.loc 1 173 32
 241 0072 8327C4FE 		lw	a5,-20(s0)
 242 0076 23AA0702 		sw	zero,52(a5)
 174:../Firmware/GD32VW55x_standard_peripheral/Source/gd32vw55x_cau.c ****     cau_context->gcmccmctxs[1] = 0U;
 243              		.loc 1 174 32
 244 007a 8327C4FE 		lw	a5,-20(s0)
 245 007e 23AC0702 		sw	zero,56(a5)
 175:../Firmware/GD32VW55x_standard_peripheral/Source/gd32vw55x_cau.c ****     cau_context->gcmccmctxs[2] = 0U;
 246              		.loc 1 175 32
 247 0082 8327C4FE 		lw	a5,-20(s0)
 248 0086 23AE0702 		sw	zero,60(a5)
 176:../Firmware/GD32VW55x_standard_peripheral/Source/gd32vw55x_cau.c ****     cau_context->gcmccmctxs[3] = 0U;
 249              		.loc 1 176 32
 250 008a 8327C4FE 		lw	a5,-20(s0)
 251 008e 23A00704 		sw	zero,64(a5)
 177:../Firmware/GD32VW55x_standard_peripheral/Source/gd32vw55x_cau.c ****     cau_context->gcmccmctxs[4] = 0U;
 252              		.loc 1 177 32
 253 0092 8327C4FE 		lw	a5,-20(s0)
 254 0096 23A20704 		sw	zero,68(a5)
 178:../Firmware/GD32VW55x_standard_peripheral/Source/gd32vw55x_cau.c ****     cau_context->gcmccmctxs[5] = 0U;
 255              		.loc 1 178 32
 256 009a 8327C4FE 		lw	a5,-20(s0)
 257 009e 23A40704 		sw	zero,72(a5)
 179:../Firmware/GD32VW55x_standard_peripheral/Source/gd32vw55x_cau.c ****     cau_context->gcmccmctxs[6] = 0U;
 258              		.loc 1 179 32
 259 00a2 8327C4FE 		lw	a5,-20(s0)
 260 00a6 23A60704 		sw	zero,76(a5)
 180:../Firmware/GD32VW55x_standard_peripheral/Source/gd32vw55x_cau.c ****     cau_context->gcmccmctxs[7] = 0U;
 261              		.loc 1 180 32
 262 00aa 8327C4FE 		lw	a5,-20(s0)
 263 00ae 23A80704 		sw	zero,80(a5)
 181:../Firmware/GD32VW55x_standard_peripheral/Source/gd32vw55x_cau.c **** 
 182:../Firmware/GD32VW55x_standard_peripheral/Source/gd32vw55x_cau.c ****     cau_context->gcmctxs[0] = 0U;
 264              		.loc 1 182 29
 265 00b2 8327C4FE 		lw	a5,-20(s0)
 266 00b6 23AA0704 		sw	zero,84(a5)
 183:../Firmware/GD32VW55x_standard_peripheral/Source/gd32vw55x_cau.c ****     cau_context->gcmctxs[1] = 0U;
 267              		.loc 1 183 29
 268 00ba 8327C4FE 		lw	a5,-20(s0)
 269 00be 23AC0704 		sw	zero,88(a5)
 184:../Firmware/GD32VW55x_standard_peripheral/Source/gd32vw55x_cau.c ****     cau_context->gcmctxs[2] = 0U;
 270              		.loc 1 184 29
 271 00c2 8327C4FE 		lw	a5,-20(s0)
 272 00c6 23AE0704 		sw	zero,92(a5)
 185:../Firmware/GD32VW55x_standard_peripheral/Source/gd32vw55x_cau.c ****     cau_context->gcmctxs[3] = 0U;
 273              		.loc 1 185 29
 274 00ca 8327C4FE 		lw	a5,-20(s0)
 275 00ce 23A00706 		sw	zero,96(a5)
 186:../Firmware/GD32VW55x_standard_peripheral/Source/gd32vw55x_cau.c ****     cau_context->gcmctxs[4] = 0U;
 276              		.loc 1 186 29
 277 00d2 8327C4FE 		lw	a5,-20(s0)
 278 00d6 23A20706 		sw	zero,100(a5)
 187:../Firmware/GD32VW55x_standard_peripheral/Source/gd32vw55x_cau.c ****     cau_context->gcmctxs[5] = 0U;
 279              		.loc 1 187 29
 280 00da 8327C4FE 		lw	a5,-20(s0)
 281 00de 23A40706 		sw	zero,104(a5)
 188:../Firmware/GD32VW55x_standard_peripheral/Source/gd32vw55x_cau.c ****     cau_context->gcmctxs[6] = 0U;
 282              		.loc 1 188 29
 283 00e2 8327C4FE 		lw	a5,-20(s0)
 284 00e6 23A60706 		sw	zero,108(a5)
 189:../Firmware/GD32VW55x_standard_peripheral/Source/gd32vw55x_cau.c ****     cau_context->gcmctxs[7] = 0U;
 285              		.loc 1 189 29
 286 00ea 8327C4FE 		lw	a5,-20(s0)
 287 00ee 23A80706 		sw	zero,112(a5)
 190:../Firmware/GD32VW55x_standard_peripheral/Source/gd32vw55x_cau.c **** }
 288              		.loc 1 190 1
 289 00f2 0100     		nop
 290 00f4 7244     		lw	s0,28(sp)
 291              		.cfi_restore 8
 292              		.cfi_def_cfa 2, 32
 293 00f6 0561     		addi	sp,sp,32
 294              		.cfi_def_cfa_offset 0
 295 00f8 8280     		jr	ra
 296              		.cfi_endproc
 297              	.LFE351:
 299              		.section	.text.cau_enable,"ax",@progbits
 300              		.align	1
 301              		.globl	cau_enable
 303              	cau_enable:
 304              	.LFB352:
 191:../Firmware/GD32VW55x_standard_peripheral/Source/gd32vw55x_cau.c **** 
 192:../Firmware/GD32VW55x_standard_peripheral/Source/gd32vw55x_cau.c **** /*!
 193:../Firmware/GD32VW55x_standard_peripheral/Source/gd32vw55x_cau.c ****     \brief      enable the CAU peripheral
 194:../Firmware/GD32VW55x_standard_peripheral/Source/gd32vw55x_cau.c ****     \param[in]  none
 195:../Firmware/GD32VW55x_standard_peripheral/Source/gd32vw55x_cau.c ****     \param[out] none
 196:../Firmware/GD32VW55x_standard_peripheral/Source/gd32vw55x_cau.c ****     \retval     none
 197:../Firmware/GD32VW55x_standard_peripheral/Source/gd32vw55x_cau.c **** */
 198:../Firmware/GD32VW55x_standard_peripheral/Source/gd32vw55x_cau.c **** void cau_enable(void)
 199:../Firmware/GD32VW55x_standard_peripheral/Source/gd32vw55x_cau.c **** {
 305              		.loc 1 199 1
 306              		.cfi_startproc
 307 0000 4111     		addi	sp,sp,-16
 308              		.cfi_def_cfa_offset 16
 309 0002 22C6     		sw	s0,12(sp)
 310              		.cfi_offset 8, -4
 311 0004 0008     		addi	s0,sp,16
 312              		.cfi_def_cfa 8, 0
 200:../Firmware/GD32VW55x_standard_peripheral/Source/gd32vw55x_cau.c ****     /* enable the CAU processor */
 201:../Firmware/GD32VW55x_standard_peripheral/Source/gd32vw55x_cau.c ****     CAU_CTL |= CAU_CTL_CAUEN;
 313              		.loc 1 201 13
 314 0006 B707064C 		li	a5,1275461632
 315 000a 9443     		lw	a3,0(a5)
 316 000c B707064C 		li	a5,1275461632
 317 0010 2167     		li	a4,32768
 318 0012 558F     		or	a4,a3,a4
 319 0014 98C3     		sw	a4,0(a5)
 202:../Firmware/GD32VW55x_standard_peripheral/Source/gd32vw55x_cau.c **** }
 320              		.loc 1 202 1
 321 0016 0100     		nop
 322 0018 3244     		lw	s0,12(sp)
 323              		.cfi_restore 8
 324              		.cfi_def_cfa 2, 16
 325 001a 4101     		addi	sp,sp,16
 326              		.cfi_def_cfa_offset 0
 327 001c 8280     		jr	ra
 328              		.cfi_endproc
 329              	.LFE352:
 331              		.section	.text.cau_disable,"ax",@progbits
 332              		.align	1
 333              		.globl	cau_disable
 335              	cau_disable:
 336              	.LFB353:
 203:../Firmware/GD32VW55x_standard_peripheral/Source/gd32vw55x_cau.c **** 
 204:../Firmware/GD32VW55x_standard_peripheral/Source/gd32vw55x_cau.c **** /*!
 205:../Firmware/GD32VW55x_standard_peripheral/Source/gd32vw55x_cau.c ****     \brief      disable the CAU peripheral
 206:../Firmware/GD32VW55x_standard_peripheral/Source/gd32vw55x_cau.c ****     \param[in]  none
 207:../Firmware/GD32VW55x_standard_peripheral/Source/gd32vw55x_cau.c ****     \param[out] none
 208:../Firmware/GD32VW55x_standard_peripheral/Source/gd32vw55x_cau.c ****     \retval     none
 209:../Firmware/GD32VW55x_standard_peripheral/Source/gd32vw55x_cau.c **** */
 210:../Firmware/GD32VW55x_standard_peripheral/Source/gd32vw55x_cau.c **** void cau_disable(void)
 211:../Firmware/GD32VW55x_standard_peripheral/Source/gd32vw55x_cau.c **** {
 337              		.loc 1 211 1
 338              		.cfi_startproc
 339 0000 4111     		addi	sp,sp,-16
 340              		.cfi_def_cfa_offset 16
 341 0002 22C6     		sw	s0,12(sp)
 342              		.cfi_offset 8, -4
 343 0004 0008     		addi	s0,sp,16
 344              		.cfi_def_cfa 8, 0
 212:../Firmware/GD32VW55x_standard_peripheral/Source/gd32vw55x_cau.c ****     /* disable the CAU processor */
 213:../Firmware/GD32VW55x_standard_peripheral/Source/gd32vw55x_cau.c ****     CAU_CTL &= ~CAU_CTL_CAUEN;
 345              		.loc 1 213 13
 346 0006 B707064C 		li	a5,1275461632
 347 000a 9443     		lw	a3,0(a5)
 348 000c B707064C 		li	a5,1275461632
 349 0010 6177     		li	a4,-32768
 350 0012 7D17     		addi	a4,a4,-1
 351 0014 758F     		and	a4,a3,a4
 352 0016 98C3     		sw	a4,0(a5)
 214:../Firmware/GD32VW55x_standard_peripheral/Source/gd32vw55x_cau.c **** }
 353              		.loc 1 214 1
 354 0018 0100     		nop
 355 001a 3244     		lw	s0,12(sp)
 356              		.cfi_restore 8
 357              		.cfi_def_cfa 2, 16
 358 001c 4101     		addi	sp,sp,16
 359              		.cfi_def_cfa_offset 0
 360 001e 8280     		jr	ra
 361              		.cfi_endproc
 362              	.LFE353:
 364              		.section	.text.cau_dma_enable,"ax",@progbits
 365              		.align	1
 366              		.globl	cau_dma_enable
 368              	cau_dma_enable:
 369              	.LFB354:
 215:../Firmware/GD32VW55x_standard_peripheral/Source/gd32vw55x_cau.c **** 
 216:../Firmware/GD32VW55x_standard_peripheral/Source/gd32vw55x_cau.c **** /*!
 217:../Firmware/GD32VW55x_standard_peripheral/Source/gd32vw55x_cau.c ****     \brief      enable the CAU DMA interface
 218:../Firmware/GD32VW55x_standard_peripheral/Source/gd32vw55x_cau.c ****     \param[in]  dma_req: specify the CAU DMA transfer request to be enabled
 219:../Firmware/GD32VW55x_standard_peripheral/Source/gd32vw55x_cau.c ****                 one or more parameters can be selected which are shown as below:
 220:../Firmware/GD32VW55x_standard_peripheral/Source/gd32vw55x_cau.c ****       \arg        CAU_DMA_INFIFO: DMA for incoming(Rx) data transfer
 221:../Firmware/GD32VW55x_standard_peripheral/Source/gd32vw55x_cau.c ****       \arg        CAU_DMA_OUTFIFO: DMA for outgoing(Tx) data transfer
 222:../Firmware/GD32VW55x_standard_peripheral/Source/gd32vw55x_cau.c ****     \param[out] none
 223:../Firmware/GD32VW55x_standard_peripheral/Source/gd32vw55x_cau.c ****     \retval     none
 224:../Firmware/GD32VW55x_standard_peripheral/Source/gd32vw55x_cau.c **** */
 225:../Firmware/GD32VW55x_standard_peripheral/Source/gd32vw55x_cau.c **** void cau_dma_enable(uint32_t dma_req)
 226:../Firmware/GD32VW55x_standard_peripheral/Source/gd32vw55x_cau.c **** {
 370              		.loc 1 226 1
 371              		.cfi_startproc
 372 0000 0111     		addi	sp,sp,-32
 373              		.cfi_def_cfa_offset 32
 374 0002 22CE     		sw	s0,28(sp)
 375              		.cfi_offset 8, -4
 376 0004 0010     		addi	s0,sp,32
 377              		.cfi_def_cfa 8, 0
 378 0006 2326A4FE 		sw	a0,-20(s0)
 227:../Firmware/GD32VW55x_standard_peripheral/Source/gd32vw55x_cau.c ****     /* enable the selected CAU DMA request */
 228:../Firmware/GD32VW55x_standard_peripheral/Source/gd32vw55x_cau.c ****     CAU_DMAEN |= dma_req;
 379              		.loc 1 228 15
 380 000a B707064C 		li	a5,1275461632
 381 000e C107     		addi	a5,a5,16
 382 0010 9443     		lw	a3,0(a5)
 383 0012 B707064C 		li	a5,1275461632
 384 0016 C107     		addi	a5,a5,16
 385 0018 0327C4FE 		lw	a4,-20(s0)
 386 001c 558F     		or	a4,a3,a4
 387 001e 98C3     		sw	a4,0(a5)
 229:../Firmware/GD32VW55x_standard_peripheral/Source/gd32vw55x_cau.c **** }
 388              		.loc 1 229 1
 389 0020 0100     		nop
 390 0022 7244     		lw	s0,28(sp)
 391              		.cfi_restore 8
 392              		.cfi_def_cfa 2, 32
 393 0024 0561     		addi	sp,sp,32
 394              		.cfi_def_cfa_offset 0
 395 0026 8280     		jr	ra
 396              		.cfi_endproc
 397              	.LFE354:
 399              		.section	.text.cau_dma_disable,"ax",@progbits
 400              		.align	1
 401              		.globl	cau_dma_disable
 403              	cau_dma_disable:
 404              	.LFB355:
 230:../Firmware/GD32VW55x_standard_peripheral/Source/gd32vw55x_cau.c **** 
 231:../Firmware/GD32VW55x_standard_peripheral/Source/gd32vw55x_cau.c **** /*!
 232:../Firmware/GD32VW55x_standard_peripheral/Source/gd32vw55x_cau.c ****     \brief      disable the CAU DMA interface
 233:../Firmware/GD32VW55x_standard_peripheral/Source/gd32vw55x_cau.c ****     \param[in]  dma_req: specify the CAU DMA transfer request to be disabled
 234:../Firmware/GD32VW55x_standard_peripheral/Source/gd32vw55x_cau.c ****                 one or more parameters can be selected which are shown as below:
 235:../Firmware/GD32VW55x_standard_peripheral/Source/gd32vw55x_cau.c ****       \arg        CAU_DMA_INFIFO: DMA for incoming(Rx) data transfer
 236:../Firmware/GD32VW55x_standard_peripheral/Source/gd32vw55x_cau.c ****       \arg        CAU_DMA_OUTFIFO: DMA for outgoing(Tx) data transfer
 237:../Firmware/GD32VW55x_standard_peripheral/Source/gd32vw55x_cau.c ****     \param[out] none
 238:../Firmware/GD32VW55x_standard_peripheral/Source/gd32vw55x_cau.c ****     \retval     none
 239:../Firmware/GD32VW55x_standard_peripheral/Source/gd32vw55x_cau.c **** */
 240:../Firmware/GD32VW55x_standard_peripheral/Source/gd32vw55x_cau.c **** void cau_dma_disable(uint32_t dma_req)
 241:../Firmware/GD32VW55x_standard_peripheral/Source/gd32vw55x_cau.c **** {
 405              		.loc 1 241 1
 406              		.cfi_startproc
 407 0000 0111     		addi	sp,sp,-32
 408              		.cfi_def_cfa_offset 32
 409 0002 22CE     		sw	s0,28(sp)
 410              		.cfi_offset 8, -4
 411 0004 0010     		addi	s0,sp,32
 412              		.cfi_def_cfa 8, 0
 413 0006 2326A4FE 		sw	a0,-20(s0)
 242:../Firmware/GD32VW55x_standard_peripheral/Source/gd32vw55x_cau.c ****     /* disable the selected CAU DMA request */
 243:../Firmware/GD32VW55x_standard_peripheral/Source/gd32vw55x_cau.c ****     CAU_DMAEN &= ~(dma_req);
 414              		.loc 1 243 15
 415 000a B707064C 		li	a5,1275461632
 416 000e C107     		addi	a5,a5,16
 417 0010 9443     		lw	a3,0(a5)
 418              		.loc 1 243 18
 419 0012 8327C4FE 		lw	a5,-20(s0)
 420 0016 13C7F7FF 		not	a4,a5
 421              		.loc 1 243 15
 422 001a B707064C 		li	a5,1275461632
 423 001e C107     		addi	a5,a5,16
 424 0020 758F     		and	a4,a3,a4
 425 0022 98C3     		sw	a4,0(a5)
 244:../Firmware/GD32VW55x_standard_peripheral/Source/gd32vw55x_cau.c **** }
 426              		.loc 1 244 1
 427 0024 0100     		nop
 428 0026 7244     		lw	s0,28(sp)
 429              		.cfi_restore 8
 430              		.cfi_def_cfa 2, 32
 431 0028 0561     		addi	sp,sp,32
 432              		.cfi_def_cfa_offset 0
 433 002a 8280     		jr	ra
 434              		.cfi_endproc
 435              	.LFE355:
 437              		.section	.text.cau_init,"ax",@progbits
 438              		.align	1
 439              		.globl	cau_init
 441              	cau_init:
 442              	.LFB356:
 245:../Firmware/GD32VW55x_standard_peripheral/Source/gd32vw55x_cau.c **** 
 246:../Firmware/GD32VW55x_standard_peripheral/Source/gd32vw55x_cau.c **** /*!
 247:../Firmware/GD32VW55x_standard_peripheral/Source/gd32vw55x_cau.c ****     \brief      initialize the CAU peripheral
 248:../Firmware/GD32VW55x_standard_peripheral/Source/gd32vw55x_cau.c ****     \param[in]  alg_dir: algorithm direction
 249:../Firmware/GD32VW55x_standard_peripheral/Source/gd32vw55x_cau.c ****                 only one parameter can be selected which is shown as below:
 250:../Firmware/GD32VW55x_standard_peripheral/Source/gd32vw55x_cau.c ****       \arg        CAU_ENCRYPT: encrypt
 251:../Firmware/GD32VW55x_standard_peripheral/Source/gd32vw55x_cau.c ****       \arg        CAU_DECRYPT: decrypt
 252:../Firmware/GD32VW55x_standard_peripheral/Source/gd32vw55x_cau.c ****     \param[in]  algo_mode: algorithm mode selection
 253:../Firmware/GD32VW55x_standard_peripheral/Source/gd32vw55x_cau.c ****                 only one parameter can be selected which is shown as below:
 254:../Firmware/GD32VW55x_standard_peripheral/Source/gd32vw55x_cau.c ****       \arg        CAU_MODE_TDES_ECB: TDES-ECB (3DES Electronic codebook)
 255:../Firmware/GD32VW55x_standard_peripheral/Source/gd32vw55x_cau.c ****       \arg        CAU_MODE_TDES_CBC: TDES-CBC (3DES Cipher block chaining)
 256:../Firmware/GD32VW55x_standard_peripheral/Source/gd32vw55x_cau.c ****       \arg        CAU_MODE_DES_ECB: DES-ECB (simple DES Electronic codebook)
 257:../Firmware/GD32VW55x_standard_peripheral/Source/gd32vw55x_cau.c ****       \arg        CAU_MODE_DES_CBC: DES-CBC (simple DES Cipher block chaining)
 258:../Firmware/GD32VW55x_standard_peripheral/Source/gd32vw55x_cau.c ****       \arg        CAU_MODE_AES_ECB: AES-ECB (AES Electronic codebook)
 259:../Firmware/GD32VW55x_standard_peripheral/Source/gd32vw55x_cau.c ****       \arg        CAU_MODE_AES_CBC: AES-CBC (AES Cipher block chaining)
 260:../Firmware/GD32VW55x_standard_peripheral/Source/gd32vw55x_cau.c ****       \arg        CAU_MODE_AES_CTR: AES-CTR (AES counter mode)
 261:../Firmware/GD32VW55x_standard_peripheral/Source/gd32vw55x_cau.c ****       \arg        CAU_MODE_AES_KEY: AES decryption key preparation mode
 262:../Firmware/GD32VW55x_standard_peripheral/Source/gd32vw55x_cau.c ****       \arg        CAU_MODE_AES_GCM: AES-GCM (AES Galois/counter mode)
 263:../Firmware/GD32VW55x_standard_peripheral/Source/gd32vw55x_cau.c ****       \arg        CAU_MODE_AES_CCM: AES-CCM (AES combined cipher machine mode)
 264:../Firmware/GD32VW55x_standard_peripheral/Source/gd32vw55x_cau.c ****       \arg        CAU_MODE_AES_CFB: AES-CFB (cipher feedback mode)
 265:../Firmware/GD32VW55x_standard_peripheral/Source/gd32vw55x_cau.c ****       \arg        CAU_MODE_AES_OFB: AES-OFB (output feedback mode)
 266:../Firmware/GD32VW55x_standard_peripheral/Source/gd32vw55x_cau.c ****     \param[in]  swapping: data swapping selection
 267:../Firmware/GD32VW55x_standard_peripheral/Source/gd32vw55x_cau.c ****                 only one parameter can be selected which is shown as below:
 268:../Firmware/GD32VW55x_standard_peripheral/Source/gd32vw55x_cau.c ****       \arg        CAU_SWAPPING_32BIT: no swapping
 269:../Firmware/GD32VW55x_standard_peripheral/Source/gd32vw55x_cau.c ****       \arg        CAU_SWAPPING_16BIT: half-word swapping
 270:../Firmware/GD32VW55x_standard_peripheral/Source/gd32vw55x_cau.c ****       \arg        CAU_SWAPPING_8BIT: bytes swapping
 271:../Firmware/GD32VW55x_standard_peripheral/Source/gd32vw55x_cau.c ****       \arg        CAU_SWAPPING_1BIT: bit swapping
 272:../Firmware/GD32VW55x_standard_peripheral/Source/gd32vw55x_cau.c ****     \param[out] none
 273:../Firmware/GD32VW55x_standard_peripheral/Source/gd32vw55x_cau.c ****     \retval     none
 274:../Firmware/GD32VW55x_standard_peripheral/Source/gd32vw55x_cau.c **** */
 275:../Firmware/GD32VW55x_standard_peripheral/Source/gd32vw55x_cau.c **** void cau_init(uint32_t alg_dir, uint32_t algo_mode, uint32_t swapping)
 276:../Firmware/GD32VW55x_standard_peripheral/Source/gd32vw55x_cau.c **** {
 443              		.loc 1 276 1
 444              		.cfi_startproc
 445 0000 0111     		addi	sp,sp,-32
 446              		.cfi_def_cfa_offset 32
 447 0002 22CE     		sw	s0,28(sp)
 448              		.cfi_offset 8, -4
 449 0004 0010     		addi	s0,sp,32
 450              		.cfi_def_cfa 8, 0
 451 0006 2326A4FE 		sw	a0,-20(s0)
 452 000a 2324B4FE 		sw	a1,-24(s0)
 453 000e 2322C4FE 		sw	a2,-28(s0)
 277:../Firmware/GD32VW55x_standard_peripheral/Source/gd32vw55x_cau.c ****     /* select algorithm mode */
 278:../Firmware/GD32VW55x_standard_peripheral/Source/gd32vw55x_cau.c ****     CAU_CTL &= ~CAU_CTL_ALGM;
 454              		.loc 1 278 13
 455 0012 B707064C 		li	a5,1275461632
 456 0016 9443     		lw	a3,0(a5)
 457 0018 B707064C 		li	a5,1275461632
 458 001c 3707F8FF 		li	a4,-524288
 459 0020 130777FC 		addi	a4,a4,-57
 460 0024 758F     		and	a4,a3,a4
 461 0026 98C3     		sw	a4,0(a5)
 279:../Firmware/GD32VW55x_standard_peripheral/Source/gd32vw55x_cau.c ****     CAU_CTL |= algo_mode;
 462              		.loc 1 279 13
 463 0028 B707064C 		li	a5,1275461632
 464 002c 9443     		lw	a3,0(a5)
 465 002e B707064C 		li	a5,1275461632
 466 0032 032784FE 		lw	a4,-24(s0)
 467 0036 558F     		or	a4,a3,a4
 468 0038 98C3     		sw	a4,0(a5)
 280:../Firmware/GD32VW55x_standard_peripheral/Source/gd32vw55x_cau.c **** 
 281:../Firmware/GD32VW55x_standard_peripheral/Source/gd32vw55x_cau.c ****     /* select data swapping */
 282:../Firmware/GD32VW55x_standard_peripheral/Source/gd32vw55x_cau.c ****     CAU_CTL &= ~CAU_CTL_DATAM;
 469              		.loc 1 282 13
 470 003a B707064C 		li	a5,1275461632
 471 003e 9843     		lw	a4,0(a5)
 472 0040 B707064C 		li	a5,1275461632
 473 0044 1377F7F3 		andi	a4,a4,-193
 474 0048 98C3     		sw	a4,0(a5)
 283:../Firmware/GD32VW55x_standard_peripheral/Source/gd32vw55x_cau.c ****     CAU_CTL |= swapping;
 475              		.loc 1 283 13
 476 004a B707064C 		li	a5,1275461632
 477 004e 9443     		lw	a3,0(a5)
 478 0050 B707064C 		li	a5,1275461632
 479 0054 032744FE 		lw	a4,-28(s0)
 480 0058 558F     		or	a4,a3,a4
 481 005a 98C3     		sw	a4,0(a5)
 284:../Firmware/GD32VW55x_standard_peripheral/Source/gd32vw55x_cau.c **** 
 285:../Firmware/GD32VW55x_standard_peripheral/Source/gd32vw55x_cau.c ****     /* select algorithm direction */
 286:../Firmware/GD32VW55x_standard_peripheral/Source/gd32vw55x_cau.c ****     CAU_CTL &= ~CAU_CTL_CAUDIR;
 482              		.loc 1 286 13
 483 005c B707064C 		li	a5,1275461632
 484 0060 9843     		lw	a4,0(a5)
 485 0062 B707064C 		li	a5,1275461632
 486 0066 6D9B     		andi	a4,a4,-5
 487 0068 98C3     		sw	a4,0(a5)
 287:../Firmware/GD32VW55x_standard_peripheral/Source/gd32vw55x_cau.c ****     CAU_CTL |= alg_dir;
 488              		.loc 1 287 13
 489 006a B707064C 		li	a5,1275461632
 490 006e 9443     		lw	a3,0(a5)
 491 0070 B707064C 		li	a5,1275461632
 492 0074 0327C4FE 		lw	a4,-20(s0)
 493 0078 558F     		or	a4,a3,a4
 494 007a 98C3     		sw	a4,0(a5)
 288:../Firmware/GD32VW55x_standard_peripheral/Source/gd32vw55x_cau.c **** }
 495              		.loc 1 288 1
 496 007c 0100     		nop
 497 007e 7244     		lw	s0,28(sp)
 498              		.cfi_restore 8
 499              		.cfi_def_cfa 2, 32
 500 0080 0561     		addi	sp,sp,32
 501              		.cfi_def_cfa_offset 0
 502 0082 8280     		jr	ra
 503              		.cfi_endproc
 504              	.LFE356:
 506              		.section	.text.cau_aes_keysize_config,"ax",@progbits
 507              		.align	1
 508              		.globl	cau_aes_keysize_config
 510              	cau_aes_keysize_config:
 511              	.LFB357:
 289:../Firmware/GD32VW55x_standard_peripheral/Source/gd32vw55x_cau.c **** 
 290:../Firmware/GD32VW55x_standard_peripheral/Source/gd32vw55x_cau.c **** /*!
 291:../Firmware/GD32VW55x_standard_peripheral/Source/gd32vw55x_cau.c ****     \brief      configure key size if use AES algorithm
 292:../Firmware/GD32VW55x_standard_peripheral/Source/gd32vw55x_cau.c ****     \param[in]  key_size: key length selection when aes mode
 293:../Firmware/GD32VW55x_standard_peripheral/Source/gd32vw55x_cau.c ****                 only one parameter can be selected which is shown as below:
 294:../Firmware/GD32VW55x_standard_peripheral/Source/gd32vw55x_cau.c ****       \arg        CAU_KEYSIZE_128BIT: 128 bit key length
 295:../Firmware/GD32VW55x_standard_peripheral/Source/gd32vw55x_cau.c ****       \arg        CAU_KEYSIZE_192BIT: 192 bit key length
 296:../Firmware/GD32VW55x_standard_peripheral/Source/gd32vw55x_cau.c ****       \arg        CAU_KEYSIZE_256BIT: 256 bit key length
 297:../Firmware/GD32VW55x_standard_peripheral/Source/gd32vw55x_cau.c ****     \param[out] none
 298:../Firmware/GD32VW55x_standard_peripheral/Source/gd32vw55x_cau.c ****     \retval     none
 299:../Firmware/GD32VW55x_standard_peripheral/Source/gd32vw55x_cau.c **** */
 300:../Firmware/GD32VW55x_standard_peripheral/Source/gd32vw55x_cau.c **** void cau_aes_keysize_config(uint32_t key_size)
 301:../Firmware/GD32VW55x_standard_peripheral/Source/gd32vw55x_cau.c **** {
 512              		.loc 1 301 1
 513              		.cfi_startproc
 514 0000 0111     		addi	sp,sp,-32
 515              		.cfi_def_cfa_offset 32
 516 0002 22CE     		sw	s0,28(sp)
 517              		.cfi_offset 8, -4
 518 0004 0010     		addi	s0,sp,32
 519              		.cfi_def_cfa 8, 0
 520 0006 2326A4FE 		sw	a0,-20(s0)
 302:../Firmware/GD32VW55x_standard_peripheral/Source/gd32vw55x_cau.c ****     CAU_CTL &= ~CAU_CTL_KEYM;
 521              		.loc 1 302 13
 522 000a B707064C 		li	a5,1275461632
 523 000e 9843     		lw	a4,0(a5)
 524 0010 B707064C 		li	a5,1275461632
 525 0014 1377F7CF 		andi	a4,a4,-769
 526 0018 98C3     		sw	a4,0(a5)
 303:../Firmware/GD32VW55x_standard_peripheral/Source/gd32vw55x_cau.c ****     CAU_CTL |= key_size;
 527              		.loc 1 303 13
 528 001a B707064C 		li	a5,1275461632
 529 001e 9443     		lw	a3,0(a5)
 530 0020 B707064C 		li	a5,1275461632
 531 0024 0327C4FE 		lw	a4,-20(s0)
 532 0028 558F     		or	a4,a3,a4
 533 002a 98C3     		sw	a4,0(a5)
 304:../Firmware/GD32VW55x_standard_peripheral/Source/gd32vw55x_cau.c **** }
 534              		.loc 1 304 1
 535 002c 0100     		nop
 536 002e 7244     		lw	s0,28(sp)
 537              		.cfi_restore 8
 538              		.cfi_def_cfa 2, 32
 539 0030 0561     		addi	sp,sp,32
 540              		.cfi_def_cfa_offset 0
 541 0032 8280     		jr	ra
 542              		.cfi_endproc
 543              	.LFE357:
 545              		.section	.text.cau_key_init,"ax",@progbits
 546              		.align	1
 547              		.globl	cau_key_init
 549              	cau_key_init:
 550              	.LFB358:
 305:../Firmware/GD32VW55x_standard_peripheral/Source/gd32vw55x_cau.c **** 
 306:../Firmware/GD32VW55x_standard_peripheral/Source/gd32vw55x_cau.c **** /*!
 307:../Firmware/GD32VW55x_standard_peripheral/Source/gd32vw55x_cau.c ****     \brief      initialize the key parameters
 308:../Firmware/GD32VW55x_standard_peripheral/Source/gd32vw55x_cau.c ****     \param[in]  key_initpara: key init parameter struct
 309:../Firmware/GD32VW55x_standard_peripheral/Source/gd32vw55x_cau.c ****                   key_0_high: key 0 high
 310:../Firmware/GD32VW55x_standard_peripheral/Source/gd32vw55x_cau.c ****                   key_0_low:  key 0 low
 311:../Firmware/GD32VW55x_standard_peripheral/Source/gd32vw55x_cau.c ****                   key_1_high: key 1 high
 312:../Firmware/GD32VW55x_standard_peripheral/Source/gd32vw55x_cau.c ****                   key_1_low:  key 1 low
 313:../Firmware/GD32VW55x_standard_peripheral/Source/gd32vw55x_cau.c ****                   key_2_high: key 2 high
 314:../Firmware/GD32VW55x_standard_peripheral/Source/gd32vw55x_cau.c ****                   key_2_low:  key 2 low
 315:../Firmware/GD32VW55x_standard_peripheral/Source/gd32vw55x_cau.c ****                   key_3_high: key 3 high
 316:../Firmware/GD32VW55x_standard_peripheral/Source/gd32vw55x_cau.c ****                   key_3_low:  key 3 low
 317:../Firmware/GD32VW55x_standard_peripheral/Source/gd32vw55x_cau.c ****     \param[out] none
 318:../Firmware/GD32VW55x_standard_peripheral/Source/gd32vw55x_cau.c ****     \retval     none
 319:../Firmware/GD32VW55x_standard_peripheral/Source/gd32vw55x_cau.c **** */
 320:../Firmware/GD32VW55x_standard_peripheral/Source/gd32vw55x_cau.c **** void cau_key_init(cau_key_parameter_struct *key_initpara)
 321:../Firmware/GD32VW55x_standard_peripheral/Source/gd32vw55x_cau.c **** {
 551              		.loc 1 321 1
 552              		.cfi_startproc
 553 0000 0111     		addi	sp,sp,-32
 554              		.cfi_def_cfa_offset 32
 555 0002 22CE     		sw	s0,28(sp)
 556              		.cfi_offset 8, -4
 557 0004 0010     		addi	s0,sp,32
 558              		.cfi_def_cfa 8, 0
 559 0006 2326A4FE 		sw	a0,-20(s0)
 322:../Firmware/GD32VW55x_standard_peripheral/Source/gd32vw55x_cau.c ****     CAU_KEY0H = key_initpara->key_0_high;
 560              		.loc 1 322 5
 561 000a B707064C 		li	a5,1275461632
 562 000e 93870702 		addi	a5,a5,32
 563              		.loc 1 322 29
 564 0012 0327C4FE 		lw	a4,-20(s0)
 565 0016 1843     		lw	a4,0(a4)
 566              		.loc 1 322 15
 567 0018 98C3     		sw	a4,0(a5)
 323:../Firmware/GD32VW55x_standard_peripheral/Source/gd32vw55x_cau.c ****     CAU_KEY0L = key_initpara->key_0_low;
 568              		.loc 1 323 5
 569 001a B707064C 		li	a5,1275461632
 570 001e 93874702 		addi	a5,a5,36
 571              		.loc 1 323 29
 572 0022 0327C4FE 		lw	a4,-20(s0)
 573 0026 5843     		lw	a4,4(a4)
 574              		.loc 1 323 15
 575 0028 98C3     		sw	a4,0(a5)
 324:../Firmware/GD32VW55x_standard_peripheral/Source/gd32vw55x_cau.c ****     CAU_KEY1H = key_initpara->key_1_high;
 576              		.loc 1 324 5
 577 002a B707064C 		li	a5,1275461632
 578 002e 93878702 		addi	a5,a5,40
 579              		.loc 1 324 29
 580 0032 0327C4FE 		lw	a4,-20(s0)
 581 0036 1847     		lw	a4,8(a4)
 582              		.loc 1 324 15
 583 0038 98C3     		sw	a4,0(a5)
 325:../Firmware/GD32VW55x_standard_peripheral/Source/gd32vw55x_cau.c ****     CAU_KEY1L = key_initpara->key_1_low;
 584              		.loc 1 325 5
 585 003a B707064C 		li	a5,1275461632
 586 003e 9387C702 		addi	a5,a5,44
 587              		.loc 1 325 29
 588 0042 0327C4FE 		lw	a4,-20(s0)
 589 0046 5847     		lw	a4,12(a4)
 590              		.loc 1 325 15
 591 0048 98C3     		sw	a4,0(a5)
 326:../Firmware/GD32VW55x_standard_peripheral/Source/gd32vw55x_cau.c ****     CAU_KEY2H = key_initpara->key_2_high;
 592              		.loc 1 326 5
 593 004a B707064C 		li	a5,1275461632
 594 004e 93870703 		addi	a5,a5,48
 595              		.loc 1 326 29
 596 0052 0327C4FE 		lw	a4,-20(s0)
 597 0056 184B     		lw	a4,16(a4)
 598              		.loc 1 326 15
 599 0058 98C3     		sw	a4,0(a5)
 327:../Firmware/GD32VW55x_standard_peripheral/Source/gd32vw55x_cau.c ****     CAU_KEY2L = key_initpara->key_2_low;
 600              		.loc 1 327 5
 601 005a B707064C 		li	a5,1275461632
 602 005e 93874703 		addi	a5,a5,52
 603              		.loc 1 327 29
 604 0062 0327C4FE 		lw	a4,-20(s0)
 605 0066 584B     		lw	a4,20(a4)
 606              		.loc 1 327 15
 607 0068 98C3     		sw	a4,0(a5)
 328:../Firmware/GD32VW55x_standard_peripheral/Source/gd32vw55x_cau.c ****     CAU_KEY3H = key_initpara->key_3_high;
 608              		.loc 1 328 5
 609 006a B707064C 		li	a5,1275461632
 610 006e 93878703 		addi	a5,a5,56
 611              		.loc 1 328 29
 612 0072 0327C4FE 		lw	a4,-20(s0)
 613 0076 184F     		lw	a4,24(a4)
 614              		.loc 1 328 15
 615 0078 98C3     		sw	a4,0(a5)
 329:../Firmware/GD32VW55x_standard_peripheral/Source/gd32vw55x_cau.c ****     CAU_KEY3L = key_initpara->key_3_low;
 616              		.loc 1 329 5
 617 007a B707064C 		li	a5,1275461632
 618 007e 9387C703 		addi	a5,a5,60
 619              		.loc 1 329 29
 620 0082 0327C4FE 		lw	a4,-20(s0)
 621 0086 584F     		lw	a4,28(a4)
 622              		.loc 1 329 15
 623 0088 98C3     		sw	a4,0(a5)
 330:../Firmware/GD32VW55x_standard_peripheral/Source/gd32vw55x_cau.c **** }
 624              		.loc 1 330 1
 625 008a 0100     		nop
 626 008c 7244     		lw	s0,28(sp)
 627              		.cfi_restore 8
 628              		.cfi_def_cfa 2, 32
 629 008e 0561     		addi	sp,sp,32
 630              		.cfi_def_cfa_offset 0
 631 0090 8280     		jr	ra
 632              		.cfi_endproc
 633              	.LFE358:
 635              		.section	.text.cau_iv_init,"ax",@progbits
 636              		.align	1
 637              		.globl	cau_iv_init
 639              	cau_iv_init:
 640              	.LFB359:
 331:../Firmware/GD32VW55x_standard_peripheral/Source/gd32vw55x_cau.c **** 
 332:../Firmware/GD32VW55x_standard_peripheral/Source/gd32vw55x_cau.c **** /*!
 333:../Firmware/GD32VW55x_standard_peripheral/Source/gd32vw55x_cau.c ****     \brief      initialize the vectors parameters
 334:../Firmware/GD32VW55x_standard_peripheral/Source/gd32vw55x_cau.c ****     \param[in]  iv_initpara: vectors init parameter struct
 335:../Firmware/GD32VW55x_standard_peripheral/Source/gd32vw55x_cau.c ****                   iv_0_high: init vector 0 high
 336:../Firmware/GD32VW55x_standard_peripheral/Source/gd32vw55x_cau.c ****                   iv_0_low:  init vector 0 low
 337:../Firmware/GD32VW55x_standard_peripheral/Source/gd32vw55x_cau.c ****                   iv_1_high: init vector 1 high
 338:../Firmware/GD32VW55x_standard_peripheral/Source/gd32vw55x_cau.c ****                   iv_1_low:  init vector 1 low
 339:../Firmware/GD32VW55x_standard_peripheral/Source/gd32vw55x_cau.c ****     \param[out] none
 340:../Firmware/GD32VW55x_standard_peripheral/Source/gd32vw55x_cau.c ****     \retval     none
 341:../Firmware/GD32VW55x_standard_peripheral/Source/gd32vw55x_cau.c **** */
 342:../Firmware/GD32VW55x_standard_peripheral/Source/gd32vw55x_cau.c **** void cau_iv_init(cau_iv_parameter_struct *iv_initpara)
 343:../Firmware/GD32VW55x_standard_peripheral/Source/gd32vw55x_cau.c **** {
 641              		.loc 1 343 1
 642              		.cfi_startproc
 643 0000 0111     		addi	sp,sp,-32
 644              		.cfi_def_cfa_offset 32
 645 0002 22CE     		sw	s0,28(sp)
 646              		.cfi_offset 8, -4
 647 0004 0010     		addi	s0,sp,32
 648              		.cfi_def_cfa 8, 0
 649 0006 2326A4FE 		sw	a0,-20(s0)
 344:../Firmware/GD32VW55x_standard_peripheral/Source/gd32vw55x_cau.c ****     CAU_IV0H = iv_initpara->iv_0_high;
 650              		.loc 1 344 5
 651 000a B707064C 		li	a5,1275461632
 652 000e 93870704 		addi	a5,a5,64
 653              		.loc 1 344 27
 654 0012 0327C4FE 		lw	a4,-20(s0)
 655 0016 1843     		lw	a4,0(a4)
 656              		.loc 1 344 14
 657 0018 98C3     		sw	a4,0(a5)
 345:../Firmware/GD32VW55x_standard_peripheral/Source/gd32vw55x_cau.c ****     CAU_IV0L = iv_initpara->iv_0_low;
 658              		.loc 1 345 5
 659 001a B707064C 		li	a5,1275461632
 660 001e 93874704 		addi	a5,a5,68
 661              		.loc 1 345 27
 662 0022 0327C4FE 		lw	a4,-20(s0)
 663 0026 5843     		lw	a4,4(a4)
 664              		.loc 1 345 14
 665 0028 98C3     		sw	a4,0(a5)
 346:../Firmware/GD32VW55x_standard_peripheral/Source/gd32vw55x_cau.c ****     CAU_IV1H = iv_initpara->iv_1_high;
 666              		.loc 1 346 5
 667 002a B707064C 		li	a5,1275461632
 668 002e 93878704 		addi	a5,a5,72
 669              		.loc 1 346 27
 670 0032 0327C4FE 		lw	a4,-20(s0)
 671 0036 1847     		lw	a4,8(a4)
 672              		.loc 1 346 14
 673 0038 98C3     		sw	a4,0(a5)
 347:../Firmware/GD32VW55x_standard_peripheral/Source/gd32vw55x_cau.c ****     CAU_IV1L = iv_initpara->iv_1_low;
 674              		.loc 1 347 5
 675 003a B707064C 		li	a5,1275461632
 676 003e 9387C704 		addi	a5,a5,76
 677              		.loc 1 347 27
 678 0042 0327C4FE 		lw	a4,-20(s0)
 679 0046 5847     		lw	a4,12(a4)
 680              		.loc 1 347 14
 681 0048 98C3     		sw	a4,0(a5)
 348:../Firmware/GD32VW55x_standard_peripheral/Source/gd32vw55x_cau.c **** }
 682              		.loc 1 348 1
 683 004a 0100     		nop
 684 004c 7244     		lw	s0,28(sp)
 685              		.cfi_restore 8
 686              		.cfi_def_cfa 2, 32
 687 004e 0561     		addi	sp,sp,32
 688              		.cfi_def_cfa_offset 0
 689 0050 8280     		jr	ra
 690              		.cfi_endproc
 691              	.LFE359:
 693              		.section	.text.cau_phase_config,"ax",@progbits
 694              		.align	1
 695              		.globl	cau_phase_config
 697              	cau_phase_config:
 698              	.LFB360:
 349:../Firmware/GD32VW55x_standard_peripheral/Source/gd32vw55x_cau.c **** 
 350:../Firmware/GD32VW55x_standard_peripheral/Source/gd32vw55x_cau.c **** /*!
 351:../Firmware/GD32VW55x_standard_peripheral/Source/gd32vw55x_cau.c ****     \brief      configure phase
 352:../Firmware/GD32VW55x_standard_peripheral/Source/gd32vw55x_cau.c ****     \param[in]  phase: gcm or ccm phase
 353:../Firmware/GD32VW55x_standard_peripheral/Source/gd32vw55x_cau.c ****                 only one parameter can be selected which is shown as below:
 354:../Firmware/GD32VW55x_standard_peripheral/Source/gd32vw55x_cau.c ****       \arg        CAU_PREPARE_PHASE: prepare phase
 355:../Firmware/GD32VW55x_standard_peripheral/Source/gd32vw55x_cau.c ****       \arg        CAU_AAD_PHASE: AAD phase
 356:../Firmware/GD32VW55x_standard_peripheral/Source/gd32vw55x_cau.c ****       \arg        CAU_ENCRYPT_DECRYPT_PHASE: encryption/decryption phase
 357:../Firmware/GD32VW55x_standard_peripheral/Source/gd32vw55x_cau.c ****       \arg        CAU_TAG_PHASE: tag phase
 358:../Firmware/GD32VW55x_standard_peripheral/Source/gd32vw55x_cau.c ****     \param[out] none
 359:../Firmware/GD32VW55x_standard_peripheral/Source/gd32vw55x_cau.c ****     \retval     none
 360:../Firmware/GD32VW55x_standard_peripheral/Source/gd32vw55x_cau.c **** */
 361:../Firmware/GD32VW55x_standard_peripheral/Source/gd32vw55x_cau.c **** void cau_phase_config(uint32_t phase)
 362:../Firmware/GD32VW55x_standard_peripheral/Source/gd32vw55x_cau.c **** {
 699              		.loc 1 362 1
 700              		.cfi_startproc
 701 0000 7971     		addi	sp,sp,-48
 702              		.cfi_def_cfa_offset 48
 703 0002 22D6     		sw	s0,44(sp)
 704              		.cfi_offset 8, -4
 705 0004 0018     		addi	s0,sp,48
 706              		.cfi_def_cfa 8, 0
 707 0006 232EA4FC 		sw	a0,-36(s0)
 363:../Firmware/GD32VW55x_standard_peripheral/Source/gd32vw55x_cau.c ****     uint32_t temp;
 364:../Firmware/GD32VW55x_standard_peripheral/Source/gd32vw55x_cau.c ****     /* Get the CTL register */
 365:../Firmware/GD32VW55x_standard_peripheral/Source/gd32vw55x_cau.c ****     temp = CAU_CTL;
 708              		.loc 1 365 12
 709 000a B707064C 		li	a5,1275461632
 710              		.loc 1 365 10
 711 000e 9C43     		lw	a5,0(a5)
 712 0010 2326F4FE 		sw	a5,-20(s0)
 366:../Firmware/GD32VW55x_standard_peripheral/Source/gd32vw55x_cau.c ****     /* Reset the phase configuration bits */
 367:../Firmware/GD32VW55x_standard_peripheral/Source/gd32vw55x_cau.c ****     temp &= ~CAU_CTL_GCM_CCMPH;
 713              		.loc 1 367 10
 714 0014 0327C4FE 		lw	a4,-20(s0)
 715 0018 B707FDFF 		li	a5,-196608
 716 001c FD17     		addi	a5,a5,-1
 717 001e F98F     		and	a5,a4,a5
 718 0020 2326F4FE 		sw	a5,-20(s0)
 368:../Firmware/GD32VW55x_standard_peripheral/Source/gd32vw55x_cau.c ****     /* Set the selected phase */
 369:../Firmware/GD32VW55x_standard_peripheral/Source/gd32vw55x_cau.c ****     temp |= phase;
 719              		.loc 1 369 10
 720 0024 0327C4FE 		lw	a4,-20(s0)
 721 0028 8327C4FD 		lw	a5,-36(s0)
 722 002c D98F     		or	a5,a4,a5
 723 002e 2326F4FE 		sw	a5,-20(s0)
 370:../Firmware/GD32VW55x_standard_peripheral/Source/gd32vw55x_cau.c ****     /* Set the CTL register */
 371:../Firmware/GD32VW55x_standard_peripheral/Source/gd32vw55x_cau.c ****     CAU_CTL = temp;
 724              		.loc 1 371 5
 725 0032 B707064C 		li	a5,1275461632
 726              		.loc 1 371 13
 727 0036 0327C4FE 		lw	a4,-20(s0)
 728 003a 98C3     		sw	a4,0(a5)
 372:../Firmware/GD32VW55x_standard_peripheral/Source/gd32vw55x_cau.c **** }
 729              		.loc 1 372 1
 730 003c 0100     		nop
 731 003e 3254     		lw	s0,44(sp)
 732              		.cfi_restore 8
 733              		.cfi_def_cfa 2, 48
 734 0040 4561     		addi	sp,sp,48
 735              		.cfi_def_cfa_offset 0
 736 0042 8280     		jr	ra
 737              		.cfi_endproc
 738              	.LFE360:
 740              		.section	.text.cau_fifo_flush,"ax",@progbits
 741              		.align	1
 742              		.globl	cau_fifo_flush
 744              	cau_fifo_flush:
 745              	.LFB361:
 373:../Firmware/GD32VW55x_standard_peripheral/Source/gd32vw55x_cau.c **** 
 374:../Firmware/GD32VW55x_standard_peripheral/Source/gd32vw55x_cau.c **** /*!
 375:../Firmware/GD32VW55x_standard_peripheral/Source/gd32vw55x_cau.c ****     \brief      flush the IN and OUT FIFOs
 376:../Firmware/GD32VW55x_standard_peripheral/Source/gd32vw55x_cau.c ****     \param[in]  none
 377:../Firmware/GD32VW55x_standard_peripheral/Source/gd32vw55x_cau.c ****     \param[out] none
 378:../Firmware/GD32VW55x_standard_peripheral/Source/gd32vw55x_cau.c ****     \retval     none
 379:../Firmware/GD32VW55x_standard_peripheral/Source/gd32vw55x_cau.c **** */
 380:../Firmware/GD32VW55x_standard_peripheral/Source/gd32vw55x_cau.c **** void cau_fifo_flush(void)
 381:../Firmware/GD32VW55x_standard_peripheral/Source/gd32vw55x_cau.c **** {
 746              		.loc 1 381 1
 747              		.cfi_startproc
 748 0000 4111     		addi	sp,sp,-16
 749              		.cfi_def_cfa_offset 16
 750 0002 22C6     		sw	s0,12(sp)
 751              		.cfi_offset 8, -4
 752 0004 0008     		addi	s0,sp,16
 753              		.cfi_def_cfa 8, 0
 382:../Firmware/GD32VW55x_standard_peripheral/Source/gd32vw55x_cau.c ****     /* reset the read and write pointers of the FIFOs */
 383:../Firmware/GD32VW55x_standard_peripheral/Source/gd32vw55x_cau.c ****     CAU_CTL |= CAU_CTL_FFLUSH;
 754              		.loc 1 383 13
 755 0006 B707064C 		li	a5,1275461632
 756 000a 9443     		lw	a3,0(a5)
 757 000c B707064C 		li	a5,1275461632
 758 0010 1167     		li	a4,16384
 759 0012 558F     		or	a4,a3,a4
 760 0014 98C3     		sw	a4,0(a5)
 384:../Firmware/GD32VW55x_standard_peripheral/Source/gd32vw55x_cau.c **** }
 761              		.loc 1 384 1
 762 0016 0100     		nop
 763 0018 3244     		lw	s0,12(sp)
 764              		.cfi_restore 8
 765              		.cfi_def_cfa 2, 16
 766 001a 4101     		addi	sp,sp,16
 767              		.cfi_def_cfa_offset 0
 768 001c 8280     		jr	ra
 769              		.cfi_endproc
 770              	.LFE361:
 772              		.section	.text.cau_enable_state_get,"ax",@progbits
 773              		.align	1
 774              		.globl	cau_enable_state_get
 776              	cau_enable_state_get:
 777              	.LFB362:
 385:../Firmware/GD32VW55x_standard_peripheral/Source/gd32vw55x_cau.c **** 
 386:../Firmware/GD32VW55x_standard_peripheral/Source/gd32vw55x_cau.c **** /*!
 387:../Firmware/GD32VW55x_standard_peripheral/Source/gd32vw55x_cau.c ****     \brief      return whether CAU peripheral is enabled or disabled
 388:../Firmware/GD32VW55x_standard_peripheral/Source/gd32vw55x_cau.c ****     \param[in]  none
 389:../Firmware/GD32VW55x_standard_peripheral/Source/gd32vw55x_cau.c ****     \param[out] none
 390:../Firmware/GD32VW55x_standard_peripheral/Source/gd32vw55x_cau.c ****     \retval     ControlStatus: ENABLE or DISABLE
 391:../Firmware/GD32VW55x_standard_peripheral/Source/gd32vw55x_cau.c **** */
 392:../Firmware/GD32VW55x_standard_peripheral/Source/gd32vw55x_cau.c **** ControlStatus cau_enable_state_get(void)
 393:../Firmware/GD32VW55x_standard_peripheral/Source/gd32vw55x_cau.c **** {
 778              		.loc 1 393 1
 779              		.cfi_startproc
 780 0000 0111     		addi	sp,sp,-32
 781              		.cfi_def_cfa_offset 32
 782 0002 22CE     		sw	s0,28(sp)
 783              		.cfi_offset 8, -4
 784 0004 0010     		addi	s0,sp,32
 785              		.cfi_def_cfa 8, 0
 394:../Firmware/GD32VW55x_standard_peripheral/Source/gd32vw55x_cau.c ****     ControlStatus ret = DISABLE;
 786              		.loc 1 394 19
 787 0006 232604FE 		sw	zero,-20(s0)
 395:../Firmware/GD32VW55x_standard_peripheral/Source/gd32vw55x_cau.c ****     if(RESET != (CAU_CTL & CAU_CTL_CAUEN)) {
 788              		.loc 1 395 18
 789 000a B707064C 		li	a5,1275461632
 790 000e 9843     		lw	a4,0(a5)
 791              		.loc 1 395 26
 792 0010 A167     		li	a5,32768
 793 0012 F98F     		and	a5,a4,a5
 794              		.loc 1 395 7
 795 0014 81C7     		beq	a5,zero,.L17
 396:../Firmware/GD32VW55x_standard_peripheral/Source/gd32vw55x_cau.c ****         ret = ENABLE;
 796              		.loc 1 396 13
 797 0016 8547     		li	a5,1
 798 0018 2326F4FE 		sw	a5,-20(s0)
 799              	.L17:
 397:../Firmware/GD32VW55x_standard_peripheral/Source/gd32vw55x_cau.c ****     }
 398:../Firmware/GD32VW55x_standard_peripheral/Source/gd32vw55x_cau.c ****     return ret;
 800              		.loc 1 398 12
 801 001c 8327C4FE 		lw	a5,-20(s0)
 399:../Firmware/GD32VW55x_standard_peripheral/Source/gd32vw55x_cau.c **** }
 802              		.loc 1 399 1
 803 0020 3E85     		mv	a0,a5
 804 0022 7244     		lw	s0,28(sp)
 805              		.cfi_restore 8
 806              		.cfi_def_cfa 2, 32
 807 0024 0561     		addi	sp,sp,32
 808              		.cfi_def_cfa_offset 0
 809 0026 8280     		jr	ra
 810              		.cfi_endproc
 811              	.LFE362:
 813              		.section	.text.cau_data_write,"ax",@progbits
 814              		.align	1
 815              		.globl	cau_data_write
 817              	cau_data_write:
 818              	.LFB363:
 400:../Firmware/GD32VW55x_standard_peripheral/Source/gd32vw55x_cau.c **** 
 401:../Firmware/GD32VW55x_standard_peripheral/Source/gd32vw55x_cau.c **** /*!
 402:../Firmware/GD32VW55x_standard_peripheral/Source/gd32vw55x_cau.c ****     \brief      write data to the IN FIFO
 403:../Firmware/GD32VW55x_standard_peripheral/Source/gd32vw55x_cau.c ****     \param[in]  data: data to write (0 - 0xFFFFFFFF)
 404:../Firmware/GD32VW55x_standard_peripheral/Source/gd32vw55x_cau.c ****     \param[out] none
 405:../Firmware/GD32VW55x_standard_peripheral/Source/gd32vw55x_cau.c ****     \retval     none
 406:../Firmware/GD32VW55x_standard_peripheral/Source/gd32vw55x_cau.c **** */
 407:../Firmware/GD32VW55x_standard_peripheral/Source/gd32vw55x_cau.c **** void cau_data_write(uint32_t data)
 408:../Firmware/GD32VW55x_standard_peripheral/Source/gd32vw55x_cau.c **** {
 819              		.loc 1 408 1
 820              		.cfi_startproc
 821 0000 0111     		addi	sp,sp,-32
 822              		.cfi_def_cfa_offset 32
 823 0002 22CE     		sw	s0,28(sp)
 824              		.cfi_offset 8, -4
 825 0004 0010     		addi	s0,sp,32
 826              		.cfi_def_cfa 8, 0
 827 0006 2326A4FE 		sw	a0,-20(s0)
 409:../Firmware/GD32VW55x_standard_peripheral/Source/gd32vw55x_cau.c ****     CAU_DI = data;
 828              		.loc 1 409 5
 829 000a B707064C 		li	a5,1275461632
 830 000e A107     		addi	a5,a5,8
 831              		.loc 1 409 12
 832 0010 0327C4FE 		lw	a4,-20(s0)
 833 0014 98C3     		sw	a4,0(a5)
 410:../Firmware/GD32VW55x_standard_peripheral/Source/gd32vw55x_cau.c **** }
 834              		.loc 1 410 1
 835 0016 0100     		nop
 836 0018 7244     		lw	s0,28(sp)
 837              		.cfi_restore 8
 838              		.cfi_def_cfa 2, 32
 839 001a 0561     		addi	sp,sp,32
 840              		.cfi_def_cfa_offset 0
 841 001c 8280     		jr	ra
 842              		.cfi_endproc
 843              	.LFE363:
 845              		.section	.text.cau_data_read,"ax",@progbits
 846              		.align	1
 847              		.globl	cau_data_read
 849              	cau_data_read:
 850              	.LFB364:
 411:../Firmware/GD32VW55x_standard_peripheral/Source/gd32vw55x_cau.c **** 
 412:../Firmware/GD32VW55x_standard_peripheral/Source/gd32vw55x_cau.c **** /*!
 413:../Firmware/GD32VW55x_standard_peripheral/Source/gd32vw55x_cau.c ****     \brief      return the last data entered into the output FIFO
 414:../Firmware/GD32VW55x_standard_peripheral/Source/gd32vw55x_cau.c ****     \param[in]  none
 415:../Firmware/GD32VW55x_standard_peripheral/Source/gd32vw55x_cau.c ****     \param[out] none
 416:../Firmware/GD32VW55x_standard_peripheral/Source/gd32vw55x_cau.c ****     \retval     last data entered into the output FIFO
 417:../Firmware/GD32VW55x_standard_peripheral/Source/gd32vw55x_cau.c **** */
 418:../Firmware/GD32VW55x_standard_peripheral/Source/gd32vw55x_cau.c **** uint32_t cau_data_read(void)
 419:../Firmware/GD32VW55x_standard_peripheral/Source/gd32vw55x_cau.c **** {
 851              		.loc 1 419 1
 852              		.cfi_startproc
 853 0000 4111     		addi	sp,sp,-16
 854              		.cfi_def_cfa_offset 16
 855 0002 22C6     		sw	s0,12(sp)
 856              		.cfi_offset 8, -4
 857 0004 0008     		addi	s0,sp,16
 858              		.cfi_def_cfa 8, 0
 420:../Firmware/GD32VW55x_standard_peripheral/Source/gd32vw55x_cau.c ****     return CAU_DO;
 859              		.loc 1 420 12
 860 0006 B707064C 		li	a5,1275461632
 861 000a B107     		addi	a5,a5,12
 862 000c 9C43     		lw	a5,0(a5)
 421:../Firmware/GD32VW55x_standard_peripheral/Source/gd32vw55x_cau.c **** }
 863              		.loc 1 421 1
 864 000e 3E85     		mv	a0,a5
 865 0010 3244     		lw	s0,12(sp)
 866              		.cfi_restore 8
 867              		.cfi_def_cfa 2, 16
 868 0012 4101     		addi	sp,sp,16
 869              		.cfi_def_cfa_offset 0
 870 0014 8280     		jr	ra
 871              		.cfi_endproc
 872              	.LFE364:
 874              		.section	.text.cau_context_save,"ax",@progbits
 875              		.align	1
 876              		.globl	cau_context_save
 878              	cau_context_save:
 879              	.LFB365:
 422:../Firmware/GD32VW55x_standard_peripheral/Source/gd32vw55x_cau.c **** 
 423:../Firmware/GD32VW55x_standard_peripheral/Source/gd32vw55x_cau.c **** /*!
 424:../Firmware/GD32VW55x_standard_peripheral/Source/gd32vw55x_cau.c ****     \brief      save context before context switching
 425:../Firmware/GD32VW55x_standard_peripheral/Source/gd32vw55x_cau.c ****     \param[in]  key_initpara: key init parameter struct
 426:../Firmware/GD32VW55x_standard_peripheral/Source/gd32vw55x_cau.c ****                   key_0_high: key 0 high
 427:../Firmware/GD32VW55x_standard_peripheral/Source/gd32vw55x_cau.c ****                   key_0_low:  key 0 low
 428:../Firmware/GD32VW55x_standard_peripheral/Source/gd32vw55x_cau.c ****                   key_1_high: key 1 high
 429:../Firmware/GD32VW55x_standard_peripheral/Source/gd32vw55x_cau.c ****                   key_1_low:  key 1 low
 430:../Firmware/GD32VW55x_standard_peripheral/Source/gd32vw55x_cau.c ****                   key_2_high: key 2 high
 431:../Firmware/GD32VW55x_standard_peripheral/Source/gd32vw55x_cau.c ****                   key_2_low:  key 2 low
 432:../Firmware/GD32VW55x_standard_peripheral/Source/gd32vw55x_cau.c ****                   key_3_high: key 3 high
 433:../Firmware/GD32VW55x_standard_peripheral/Source/gd32vw55x_cau.c ****                   key_3_low:  key 3 low
 434:../Firmware/GD32VW55x_standard_peripheral/Source/gd32vw55x_cau.c ****     \param[out] cau_context:
 435:../Firmware/GD32VW55x_standard_peripheral/Source/gd32vw55x_cau.c ****                   ctl_config: current configuration
 436:../Firmware/GD32VW55x_standard_peripheral/Source/gd32vw55x_cau.c ****                   iv_0_high: init vector 0 high
 437:../Firmware/GD32VW55x_standard_peripheral/Source/gd32vw55x_cau.c ****                   iv_0_low:  init vector 0 low
 438:../Firmware/GD32VW55x_standard_peripheral/Source/gd32vw55x_cau.c ****                   iv_1_high: init vector 1 high
 439:../Firmware/GD32VW55x_standard_peripheral/Source/gd32vw55x_cau.c ****                   iv_1_low:  init vector 1 low
 440:../Firmware/GD32VW55x_standard_peripheral/Source/gd32vw55x_cau.c ****                   key_0_high: key 0 high
 441:../Firmware/GD32VW55x_standard_peripheral/Source/gd32vw55x_cau.c ****                   key_0_low:  key 0 low
 442:../Firmware/GD32VW55x_standard_peripheral/Source/gd32vw55x_cau.c ****                   key_1_high: key 1 high
 443:../Firmware/GD32VW55x_standard_peripheral/Source/gd32vw55x_cau.c ****                   key_1_low:  key 1 low
 444:../Firmware/GD32VW55x_standard_peripheral/Source/gd32vw55x_cau.c ****                   key_2_high: key 2 high
 445:../Firmware/GD32VW55x_standard_peripheral/Source/gd32vw55x_cau.c ****                   key_2_low:  key 2 low
 446:../Firmware/GD32VW55x_standard_peripheral/Source/gd32vw55x_cau.c ****                   key_3_high: key 3 high
 447:../Firmware/GD32VW55x_standard_peripheral/Source/gd32vw55x_cau.c ****                   key_3_low:  key 3 low
 448:../Firmware/GD32VW55x_standard_peripheral/Source/gd32vw55x_cau.c ****                   gcmccmctxs[8]: GCM or CCM mode context switch
 449:../Firmware/GD32VW55x_standard_peripheral/Source/gd32vw55x_cau.c ****                   gcmctxs[8]: GCM mode context switch
 450:../Firmware/GD32VW55x_standard_peripheral/Source/gd32vw55x_cau.c ****     \retval     none
 451:../Firmware/GD32VW55x_standard_peripheral/Source/gd32vw55x_cau.c **** */
 452:../Firmware/GD32VW55x_standard_peripheral/Source/gd32vw55x_cau.c **** void cau_context_save(cau_context_parameter_struct *cau_context, cau_key_parameter_struct *key_init
 453:../Firmware/GD32VW55x_standard_peripheral/Source/gd32vw55x_cau.c **** {
 880              		.loc 1 453 1
 881              		.cfi_startproc
 882 0000 7971     		addi	sp,sp,-48
 883              		.cfi_def_cfa_offset 48
 884 0002 22D6     		sw	s0,44(sp)
 885              		.cfi_offset 8, -4
 886 0004 0018     		addi	s0,sp,48
 887              		.cfi_def_cfa 8, 0
 888 0006 232EA4FC 		sw	a0,-36(s0)
 889 000a 232CB4FC 		sw	a1,-40(s0)
 454:../Firmware/GD32VW55x_standard_peripheral/Source/gd32vw55x_cau.c ****     uint32_t checkmask = 0U;
 890              		.loc 1 454 14
 891 000e 232604FE 		sw	zero,-20(s0)
 455:../Firmware/GD32VW55x_standard_peripheral/Source/gd32vw55x_cau.c ****     uint32_t checkbits = 0U;
 892              		.loc 1 455 14
 893 0012 232404FE 		sw	zero,-24(s0)
 456:../Firmware/GD32VW55x_standard_peripheral/Source/gd32vw55x_cau.c ****     uint32_t algm_reg = 0U;
 894              		.loc 1 456 14
 895 0016 232204FE 		sw	zero,-28(s0)
 457:../Firmware/GD32VW55x_standard_peripheral/Source/gd32vw55x_cau.c **** 
 458:../Firmware/GD32VW55x_standard_peripheral/Source/gd32vw55x_cau.c ****     /* stop DMA transfers on the IN FIFO by clearing the DMAIEN bit in the CAU_DMAEN */
 459:../Firmware/GD32VW55x_standard_peripheral/Source/gd32vw55x_cau.c ****     CAU_DMAEN &= ~CAU_DMA_INFIFO;
 896              		.loc 1 459 15
 897 001a B707064C 		li	a5,1275461632
 898 001e C107     		addi	a5,a5,16
 899 0020 9843     		lw	a4,0(a5)
 900 0022 B707064C 		li	a5,1275461632
 901 0026 C107     		addi	a5,a5,16
 902 0028 799B     		andi	a4,a4,-2
 903 002a 98C3     		sw	a4,0(a5)
 460:../Firmware/GD32VW55x_standard_peripheral/Source/gd32vw55x_cau.c **** 
 461:../Firmware/GD32VW55x_standard_peripheral/Source/gd32vw55x_cau.c ****     algm_reg = CAU_CTL & CAU_CTL_ALGM;
 904              		.loc 1 461 16
 905 002c B707064C 		li	a5,1275461632
 906 0030 9843     		lw	a4,0(a5)
 907              		.loc 1 461 14
 908 0032 B7070800 		li	a5,524288
 909 0036 93878703 		addi	a5,a5,56
 910 003a F98F     		and	a5,a4,a5
 911 003c 2322F4FE 		sw	a5,-28(s0)
 462:../Firmware/GD32VW55x_standard_peripheral/Source/gd32vw55x_cau.c ****     /* AES or DES */
 463:../Firmware/GD32VW55x_standard_peripheral/Source/gd32vw55x_cau.c ****     if((uint32_t)0 != (algm_reg & (~CAU_MODE_TDES_CBC))) {
 912              		.loc 1 463 33
 913 0040 832744FE 		lw	a5,-28(s0)
 914 0044 DD9B     		andi	a5,a5,-9
 915              		.loc 1 463 7
 916 0046 81CB     		beq	a5,zero,.L23
 464:../Firmware/GD32VW55x_standard_peripheral/Source/gd32vw55x_cau.c ****         /* wait until both the IN and OUT FIFOs are empty (IEM=1 and ONE=0 in the CAU_STAT0 registe
 465:../Firmware/GD32VW55x_standard_peripheral/Source/gd32vw55x_cau.c ****         checkbits = CAU_STAT0_IEM;
 917              		.loc 1 465 19
 918 0048 8547     		li	a5,1
 919 004a 2324F4FE 		sw	a5,-24(s0)
 466:../Firmware/GD32VW55x_standard_peripheral/Source/gd32vw55x_cau.c ****         checkmask = STAT0_AESDES_MASK;
 920              		.loc 1 466 19
 921 004e D547     		li	a5,21
 922 0050 2326F4FE 		sw	a5,-20(s0)
 923 0054 31A0     		j	.L31
 924              	.L23:
 467:../Firmware/GD32VW55x_standard_peripheral/Source/gd32vw55x_cau.c ****         /* TDES */
 468:../Firmware/GD32VW55x_standard_peripheral/Source/gd32vw55x_cau.c ****     } else {
 469:../Firmware/GD32VW55x_standard_peripheral/Source/gd32vw55x_cau.c ****         /* wait until OUT FIFO is empty (ONE=0 in the CAU_STAT0 register) and BUSY=0 */
 470:../Firmware/GD32VW55x_standard_peripheral/Source/gd32vw55x_cau.c ****         checkbits = 0U;
 925              		.loc 1 470 19
 926 0056 232404FE 		sw	zero,-24(s0)
 471:../Firmware/GD32VW55x_standard_peripheral/Source/gd32vw55x_cau.c ****         checkmask = STAT0_TDES_MASK;
 927              		.loc 1 471 19
 928 005a D147     		li	a5,20
 929 005c 2326F4FE 		sw	a5,-20(s0)
 930              	.L31:
 472:../Firmware/GD32VW55x_standard_peripheral/Source/gd32vw55x_cau.c ****     }
 473:../Firmware/GD32VW55x_standard_peripheral/Source/gd32vw55x_cau.c **** 
 474:../Firmware/GD32VW55x_standard_peripheral/Source/gd32vw55x_cau.c ****     while((CAU_STAT0 & checkmask) != checkbits) {
 931              		.loc 1 474 10
 932 0060 0100     		nop
 933              	.L25:
 934              		.loc 1 474 12 discriminator 1
 935 0062 B707064C 		li	a5,1275461632
 936 0066 9107     		addi	a5,a5,4
 937 0068 9843     		lw	a4,0(a5)
 938              		.loc 1 474 22 discriminator 1
 939 006a 8327C4FE 		lw	a5,-20(s0)
 940 006e F98F     		and	a5,a4,a5
 941              		.loc 1 474 10 discriminator 1
 942 0070 032784FE 		lw	a4,-24(s0)
 943 0074 E317F7FE 		bne	a4,a5,.L25
 475:../Firmware/GD32VW55x_standard_peripheral/Source/gd32vw55x_cau.c ****     }
 476:../Firmware/GD32VW55x_standard_peripheral/Source/gd32vw55x_cau.c **** 
 477:../Firmware/GD32VW55x_standard_peripheral/Source/gd32vw55x_cau.c ****     /* stop DMA transfers on the OUT FIFO by clear CAU_DMAEN_DMAOEN=0 */
 478:../Firmware/GD32VW55x_standard_peripheral/Source/gd32vw55x_cau.c ****     CAU_DMAEN &= ~CAU_DMAEN_DMAOEN;
 944              		.loc 1 478 15
 945 0078 B707064C 		li	a5,1275461632
 946 007c C107     		addi	a5,a5,16
 947 007e 9843     		lw	a4,0(a5)
 948 0080 B707064C 		li	a5,1275461632
 949 0084 C107     		addi	a5,a5,16
 950 0086 759B     		andi	a4,a4,-3
 951 0088 98C3     		sw	a4,0(a5)
 479:../Firmware/GD32VW55x_standard_peripheral/Source/gd32vw55x_cau.c ****     /* disable CAU */
 480:../Firmware/GD32VW55x_standard_peripheral/Source/gd32vw55x_cau.c ****     CAU_CTL &= ~CAU_CTL_CAUEN;
 952              		.loc 1 480 13
 953 008a B707064C 		li	a5,1275461632
 954 008e 9443     		lw	a3,0(a5)
 955 0090 B707064C 		li	a5,1275461632
 956 0094 6177     		li	a4,-32768
 957 0096 7D17     		addi	a4,a4,-1
 958 0098 758F     		and	a4,a3,a4
 959 009a 98C3     		sw	a4,0(a5)
 481:../Firmware/GD32VW55x_standard_peripheral/Source/gd32vw55x_cau.c **** 
 482:../Firmware/GD32VW55x_standard_peripheral/Source/gd32vw55x_cau.c ****     /* save the current configuration (bit 19, bit[17:16] and bit[9:2] in the CAU_CTL register) */
 483:../Firmware/GD32VW55x_standard_peripheral/Source/gd32vw55x_cau.c ****     cau_context->ctl_config  = CAU_CTL & (CAU_CTL_GCM_CCMPH |
 960              		.loc 1 483 32
 961 009c B707064C 		li	a5,1275461632
 962 00a0 9843     		lw	a4,0(a5)
 963              		.loc 1 483 40
 964 00a2 B707FB00 		li	a5,16449536
 965 00a6 9387C73F 		addi	a5,a5,1020
 966 00aa 7D8F     		and	a4,a4,a5
 967              		.loc 1 483 30
 968 00ac 8327C4FD 		lw	a5,-36(s0)
 969 00b0 98C3     		sw	a4,0(a5)
 484:../Firmware/GD32VW55x_standard_peripheral/Source/gd32vw55x_cau.c ****                                           CAU_CTL_KEYM  |
 485:../Firmware/GD32VW55x_standard_peripheral/Source/gd32vw55x_cau.c ****                                           CAU_CTL_DATAM |
 486:../Firmware/GD32VW55x_standard_peripheral/Source/gd32vw55x_cau.c ****                                           CAU_CTL_ALGM  |
 487:../Firmware/GD32VW55x_standard_peripheral/Source/gd32vw55x_cau.c ****                                           CAU_CTL_CAUDIR |
 488:../Firmware/GD32VW55x_standard_peripheral/Source/gd32vw55x_cau.c ****                                           CAU_CTL_NBPILB);
 489:../Firmware/GD32VW55x_standard_peripheral/Source/gd32vw55x_cau.c **** 
 490:../Firmware/GD32VW55x_standard_peripheral/Source/gd32vw55x_cau.c ****     /* save the key value */
 491:../Firmware/GD32VW55x_standard_peripheral/Source/gd32vw55x_cau.c ****     cau_context->key_0_high = key_initpara->key_0_high;
 970              		.loc 1 491 43
 971 00b2 832784FD 		lw	a5,-40(s0)
 972 00b6 9843     		lw	a4,0(a5)
 973              		.loc 1 491 29
 974 00b8 8327C4FD 		lw	a5,-36(s0)
 975 00bc D8CB     		sw	a4,20(a5)
 492:../Firmware/GD32VW55x_standard_peripheral/Source/gd32vw55x_cau.c ****     cau_context->key_0_low  = key_initpara->key_0_low;
 976              		.loc 1 492 43
 977 00be 832784FD 		lw	a5,-40(s0)
 978 00c2 D843     		lw	a4,4(a5)
 979              		.loc 1 492 29
 980 00c4 8327C4FD 		lw	a5,-36(s0)
 981 00c8 98CF     		sw	a4,24(a5)
 493:../Firmware/GD32VW55x_standard_peripheral/Source/gd32vw55x_cau.c ****     cau_context->key_1_high = key_initpara->key_1_high;
 982              		.loc 1 493 43
 983 00ca 832784FD 		lw	a5,-40(s0)
 984 00ce 9847     		lw	a4,8(a5)
 985              		.loc 1 493 29
 986 00d0 8327C4FD 		lw	a5,-36(s0)
 987 00d4 D8CF     		sw	a4,28(a5)
 494:../Firmware/GD32VW55x_standard_peripheral/Source/gd32vw55x_cau.c ****     cau_context->key_1_low  = key_initpara->key_1_low;
 988              		.loc 1 494 43
 989 00d6 832784FD 		lw	a5,-40(s0)
 990 00da D847     		lw	a4,12(a5)
 991              		.loc 1 494 29
 992 00dc 8327C4FD 		lw	a5,-36(s0)
 993 00e0 98D3     		sw	a4,32(a5)
 495:../Firmware/GD32VW55x_standard_peripheral/Source/gd32vw55x_cau.c ****     cau_context->key_2_high = key_initpara->key_2_high;
 994              		.loc 1 495 43
 995 00e2 832784FD 		lw	a5,-40(s0)
 996 00e6 984B     		lw	a4,16(a5)
 997              		.loc 1 495 29
 998 00e8 8327C4FD 		lw	a5,-36(s0)
 999 00ec D8D3     		sw	a4,36(a5)
 496:../Firmware/GD32VW55x_standard_peripheral/Source/gd32vw55x_cau.c ****     cau_context->key_2_low  = key_initpara->key_2_low;
 1000              		.loc 1 496 43
 1001 00ee 832784FD 		lw	a5,-40(s0)
 1002 00f2 D84B     		lw	a4,20(a5)
 1003              		.loc 1 496 29
 1004 00f4 8327C4FD 		lw	a5,-36(s0)
 1005 00f8 98D7     		sw	a4,40(a5)
 497:../Firmware/GD32VW55x_standard_peripheral/Source/gd32vw55x_cau.c ****     cau_context->key_3_high = key_initpara->key_3_high;
 1006              		.loc 1 497 43
 1007 00fa 832784FD 		lw	a5,-40(s0)
 1008 00fe 984F     		lw	a4,24(a5)
 1009              		.loc 1 497 29
 1010 0100 8327C4FD 		lw	a5,-36(s0)
 1011 0104 D8D7     		sw	a4,44(a5)
 498:../Firmware/GD32VW55x_standard_peripheral/Source/gd32vw55x_cau.c ****     cau_context->key_3_low  = key_initpara->key_3_low;
 1012              		.loc 1 498 43
 1013 0106 832784FD 		lw	a5,-40(s0)
 1014 010a D84F     		lw	a4,28(a5)
 1015              		.loc 1 498 29
 1016 010c 8327C4FD 		lw	a5,-36(s0)
 1017 0110 98DB     		sw	a4,48(a5)
 499:../Firmware/GD32VW55x_standard_peripheral/Source/gd32vw55x_cau.c **** 
 500:../Firmware/GD32VW55x_standard_peripheral/Source/gd32vw55x_cau.c ****     if((CAU_MODE_TDES_ECB != algm_reg) && (CAU_MODE_DES_ECB != algm_reg) && (CAU_MODE_AES_ECB != al
 1018              		.loc 1 500 7
 1019 0112 832744FE 		lw	a5,-28(s0)
 1020 0116 A1CF     		beq	a5,zero,.L26
 1021              		.loc 1 500 40 discriminator 1
 1022 0118 032744FE 		lw	a4,-28(s0)
 1023 011c C147     		li	a5,16
 1024 011e 6308F704 		beq	a4,a5,.L26
 1025              		.loc 1 500 74 discriminator 2
 1026 0122 032744FE 		lw	a4,-28(s0)
 1027 0126 93070002 		li	a5,32
 1028 012a 6302F704 		beq	a4,a5,.L26
 501:../Firmware/GD32VW55x_standard_peripheral/Source/gd32vw55x_cau.c ****         /* if not in ECB mode, save the initialization vectors */
 502:../Firmware/GD32VW55x_standard_peripheral/Source/gd32vw55x_cau.c ****         cau_context->iv_0_high = CAU_IV0H;
 1029              		.loc 1 502 34
 1030 012e B707064C 		li	a5,1275461632
 1031 0132 93870704 		addi	a5,a5,64
 1032 0136 9843     		lw	a4,0(a5)
 1033              		.loc 1 502 32
 1034 0138 8327C4FD 		lw	a5,-36(s0)
 1035 013c D8C3     		sw	a4,4(a5)
 503:../Firmware/GD32VW55x_standard_peripheral/Source/gd32vw55x_cau.c ****         cau_context->iv_0_low = CAU_IV0L;
 1036              		.loc 1 503 33
 1037 013e B707064C 		li	a5,1275461632
 1038 0142 93874704 		addi	a5,a5,68
 1039 0146 9843     		lw	a4,0(a5)
 1040              		.loc 1 503 31
 1041 0148 8327C4FD 		lw	a5,-36(s0)
 1042 014c 98C7     		sw	a4,8(a5)
 504:../Firmware/GD32VW55x_standard_peripheral/Source/gd32vw55x_cau.c ****         cau_context->iv_1_high = CAU_IV1H;
 1043              		.loc 1 504 34
 1044 014e B707064C 		li	a5,1275461632
 1045 0152 93878704 		addi	a5,a5,72
 1046 0156 9843     		lw	a4,0(a5)
 1047              		.loc 1 504 32
 1048 0158 8327C4FD 		lw	a5,-36(s0)
 1049 015c D8C7     		sw	a4,12(a5)
 505:../Firmware/GD32VW55x_standard_peripheral/Source/gd32vw55x_cau.c ****         cau_context->iv_1_low = CAU_IV1L;
 1050              		.loc 1 505 33
 1051 015e B707064C 		li	a5,1275461632
 1052 0162 9387C704 		addi	a5,a5,76
 1053 0166 9843     		lw	a4,0(a5)
 1054              		.loc 1 505 31
 1055 0168 8327C4FD 		lw	a5,-36(s0)
 1056 016c 98CB     		sw	a4,16(a5)
 1057              	.L26:
 506:../Firmware/GD32VW55x_standard_peripheral/Source/gd32vw55x_cau.c ****     }
 507:../Firmware/GD32VW55x_standard_peripheral/Source/gd32vw55x_cau.c **** 
 508:../Firmware/GD32VW55x_standard_peripheral/Source/gd32vw55x_cau.c ****     /* if in GCM/CCM mode, save the context switch registers */
 509:../Firmware/GD32VW55x_standard_peripheral/Source/gd32vw55x_cau.c ****     if((CAU_MODE_AES_GCM == algm_reg) || (CAU_MODE_AES_CCM == algm_reg)) {
 1058              		.loc 1 509 7
 1059 016e 032744FE 		lw	a4,-28(s0)
 1060 0172 B7070800 		li	a5,524288
 1061 0176 6309F700 		beq	a4,a5,.L27
 1062              		.loc 1 509 39 discriminator 1
 1063 017a 032744FE 		lw	a4,-28(s0)
 1064 017e B7070800 		li	a5,524288
 1065 0182 A107     		addi	a5,a5,8
 1066 0184 6312F708 		bne	a4,a5,.L28
 1067              	.L27:
 510:../Firmware/GD32VW55x_standard_peripheral/Source/gd32vw55x_cau.c ****         cau_context->gcmccmctxs[0U] = CAU_GCMCCMCTXSx(0U);
 1068              		.loc 1 510 39
 1069 0188 B707064C 		li	a5,1275461632
 1070 018c 93870705 		addi	a5,a5,80
 1071 0190 9843     		lw	a4,0(a5)
 1072              		.loc 1 510 37
 1073 0192 8327C4FD 		lw	a5,-36(s0)
 1074 0196 D8DB     		sw	a4,52(a5)
 511:../Firmware/GD32VW55x_standard_peripheral/Source/gd32vw55x_cau.c ****         cau_context->gcmccmctxs[1U] = CAU_GCMCCMCTXSx(1U);
 1075              		.loc 1 511 39
 1076 0198 B707064C 		li	a5,1275461632
 1077 019c 93874705 		addi	a5,a5,84
 1078 01a0 9843     		lw	a4,0(a5)
 1079              		.loc 1 511 37
 1080 01a2 8327C4FD 		lw	a5,-36(s0)
 1081 01a6 98DF     		sw	a4,56(a5)
 512:../Firmware/GD32VW55x_standard_peripheral/Source/gd32vw55x_cau.c ****         cau_context->gcmccmctxs[2U] = CAU_GCMCCMCTXSx(2U);
 1082              		.loc 1 512 39
 1083 01a8 B707064C 		li	a5,1275461632
 1084 01ac 93878705 		addi	a5,a5,88
 1085 01b0 9843     		lw	a4,0(a5)
 1086              		.loc 1 512 37
 1087 01b2 8327C4FD 		lw	a5,-36(s0)
 1088 01b6 D8DF     		sw	a4,60(a5)
 513:../Firmware/GD32VW55x_standard_peripheral/Source/gd32vw55x_cau.c ****         cau_context->gcmccmctxs[3U] = CAU_GCMCCMCTXSx(3U);
 1089              		.loc 1 513 39
 1090 01b8 B707064C 		li	a5,1275461632
 1091 01bc 9387C705 		addi	a5,a5,92
 1092 01c0 9843     		lw	a4,0(a5)
 1093              		.loc 1 513 37
 1094 01c2 8327C4FD 		lw	a5,-36(s0)
 1095 01c6 B8C3     		sw	a4,64(a5)
 514:../Firmware/GD32VW55x_standard_peripheral/Source/gd32vw55x_cau.c ****         cau_context->gcmccmctxs[4U] = CAU_GCMCCMCTXSx(4U);
 1096              		.loc 1 514 39
 1097 01c8 B707064C 		li	a5,1275461632
 1098 01cc 93870706 		addi	a5,a5,96
 1099 01d0 9843     		lw	a4,0(a5)
 1100              		.loc 1 514 37
 1101 01d2 8327C4FD 		lw	a5,-36(s0)
 1102 01d6 F8C3     		sw	a4,68(a5)
 515:../Firmware/GD32VW55x_standard_peripheral/Source/gd32vw55x_cau.c ****         cau_context->gcmccmctxs[5U] = CAU_GCMCCMCTXSx(5U);
 1103              		.loc 1 515 39
 1104 01d8 B707064C 		li	a5,1275461632
 1105 01dc 93874706 		addi	a5,a5,100
 1106 01e0 9843     		lw	a4,0(a5)
 1107              		.loc 1 515 37
 1108 01e2 8327C4FD 		lw	a5,-36(s0)
 1109 01e6 B8C7     		sw	a4,72(a5)
 516:../Firmware/GD32VW55x_standard_peripheral/Source/gd32vw55x_cau.c ****         cau_context->gcmccmctxs[6U] = CAU_GCMCCMCTXSx(6U);
 1110              		.loc 1 516 39
 1111 01e8 B707064C 		li	a5,1275461632
 1112 01ec 93878706 		addi	a5,a5,104
 1113 01f0 9843     		lw	a4,0(a5)
 1114              		.loc 1 516 37
 1115 01f2 8327C4FD 		lw	a5,-36(s0)
 1116 01f6 F8C7     		sw	a4,76(a5)
 517:../Firmware/GD32VW55x_standard_peripheral/Source/gd32vw55x_cau.c ****         cau_context->gcmccmctxs[7U] = CAU_GCMCCMCTXSx(7U);
 1117              		.loc 1 517 39
 1118 01f8 B707064C 		li	a5,1275461632
 1119 01fc 9387C706 		addi	a5,a5,108
 1120 0200 9843     		lw	a4,0(a5)
 1121              		.loc 1 517 37
 1122 0202 8327C4FD 		lw	a5,-36(s0)
 1123 0206 B8CB     		sw	a4,80(a5)
 1124              	.L28:
 518:../Firmware/GD32VW55x_standard_peripheral/Source/gd32vw55x_cau.c ****     }
 519:../Firmware/GD32VW55x_standard_peripheral/Source/gd32vw55x_cau.c **** 
 520:../Firmware/GD32VW55x_standard_peripheral/Source/gd32vw55x_cau.c ****     /* if in GCM mode, save the context switch registers */
 521:../Firmware/GD32VW55x_standard_peripheral/Source/gd32vw55x_cau.c ****     if(CAU_MODE_AES_GCM == algm_reg) {
 1125              		.loc 1 521 7
 1126 0208 032744FE 		lw	a4,-28(s0)
 1127 020c B7070800 		li	a5,524288
 1128 0210 6312F708 		bne	a4,a5,.L30
 522:../Firmware/GD32VW55x_standard_peripheral/Source/gd32vw55x_cau.c ****         cau_context->gcmctxs[0U] = CAU_GCMCTXSx(0U);
 1129              		.loc 1 522 36
 1130 0214 B707064C 		li	a5,1275461632
 1131 0218 93870707 		addi	a5,a5,112
 1132 021c 9843     		lw	a4,0(a5)
 1133              		.loc 1 522 34
 1134 021e 8327C4FD 		lw	a5,-36(s0)
 1135 0222 F8CB     		sw	a4,84(a5)
 523:../Firmware/GD32VW55x_standard_peripheral/Source/gd32vw55x_cau.c ****         cau_context->gcmctxs[1U] = CAU_GCMCTXSx(1U);
 1136              		.loc 1 523 36
 1137 0224 B707064C 		li	a5,1275461632
 1138 0228 93874707 		addi	a5,a5,116
 1139 022c 9843     		lw	a4,0(a5)
 1140              		.loc 1 523 34
 1141 022e 8327C4FD 		lw	a5,-36(s0)
 1142 0232 B8CF     		sw	a4,88(a5)
 524:../Firmware/GD32VW55x_standard_peripheral/Source/gd32vw55x_cau.c ****         cau_context->gcmctxs[2U] = CAU_GCMCTXSx(2U);
 1143              		.loc 1 524 36
 1144 0234 B707064C 		li	a5,1275461632
 1145 0238 93878707 		addi	a5,a5,120
 1146 023c 9843     		lw	a4,0(a5)
 1147              		.loc 1 524 34
 1148 023e 8327C4FD 		lw	a5,-36(s0)
 1149 0242 F8CF     		sw	a4,92(a5)
 525:../Firmware/GD32VW55x_standard_peripheral/Source/gd32vw55x_cau.c ****         cau_context->gcmctxs[3U] = CAU_GCMCTXSx(3U);
 1150              		.loc 1 525 36
 1151 0244 B707064C 		li	a5,1275461632
 1152 0248 9387C707 		addi	a5,a5,124
 1153 024c 9843     		lw	a4,0(a5)
 1154              		.loc 1 525 34
 1155 024e 8327C4FD 		lw	a5,-36(s0)
 1156 0252 B8D3     		sw	a4,96(a5)
 526:../Firmware/GD32VW55x_standard_peripheral/Source/gd32vw55x_cau.c ****         cau_context->gcmctxs[4U] = CAU_GCMCTXSx(4U);
 1157              		.loc 1 526 36
 1158 0254 B707064C 		li	a5,1275461632
 1159 0258 93870708 		addi	a5,a5,128
 1160 025c 9843     		lw	a4,0(a5)
 1161              		.loc 1 526 34
 1162 025e 8327C4FD 		lw	a5,-36(s0)
 1163 0262 F8D3     		sw	a4,100(a5)
 527:../Firmware/GD32VW55x_standard_peripheral/Source/gd32vw55x_cau.c ****         cau_context->gcmctxs[5U] = CAU_GCMCTXSx(5U);
 1164              		.loc 1 527 36
 1165 0264 B707064C 		li	a5,1275461632
 1166 0268 93874708 		addi	a5,a5,132
 1167 026c 9843     		lw	a4,0(a5)
 1168              		.loc 1 527 34
 1169 026e 8327C4FD 		lw	a5,-36(s0)
 1170 0272 B8D7     		sw	a4,104(a5)
 528:../Firmware/GD32VW55x_standard_peripheral/Source/gd32vw55x_cau.c ****         cau_context->gcmctxs[6U] = CAU_GCMCTXSx(6U);
 1171              		.loc 1 528 36
 1172 0274 B707064C 		li	a5,1275461632
 1173 0278 93878708 		addi	a5,a5,136
 1174 027c 9843     		lw	a4,0(a5)
 1175              		.loc 1 528 34
 1176 027e 8327C4FD 		lw	a5,-36(s0)
 1177 0282 F8D7     		sw	a4,108(a5)
 529:../Firmware/GD32VW55x_standard_peripheral/Source/gd32vw55x_cau.c ****         cau_context->gcmctxs[7U] = CAU_GCMCTXSx(7U);
 1178              		.loc 1 529 36
 1179 0284 B707064C 		li	a5,1275461632
 1180 0288 9387C708 		addi	a5,a5,140
 1181 028c 9843     		lw	a4,0(a5)
 1182              		.loc 1 529 34
 1183 028e 8327C4FD 		lw	a5,-36(s0)
 1184 0292 B8DB     		sw	a4,112(a5)
 1185              	.L30:
 530:../Firmware/GD32VW55x_standard_peripheral/Source/gd32vw55x_cau.c ****     }
 531:../Firmware/GD32VW55x_standard_peripheral/Source/gd32vw55x_cau.c **** }
 1186              		.loc 1 531 1
 1187 0294 0100     		nop
 1188 0296 3254     		lw	s0,44(sp)
 1189              		.cfi_restore 8
 1190              		.cfi_def_cfa 2, 48
 1191 0298 4561     		addi	sp,sp,48
 1192              		.cfi_def_cfa_offset 0
 1193 029a 8280     		jr	ra
 1194              		.cfi_endproc
 1195              	.LFE365:
 1197              		.section	.text.cau_context_restore,"ax",@progbits
 1198              		.align	1
 1199              		.globl	cau_context_restore
 1201              	cau_context_restore:
 1202              	.LFB366:
 532:../Firmware/GD32VW55x_standard_peripheral/Source/gd32vw55x_cau.c **** 
 533:../Firmware/GD32VW55x_standard_peripheral/Source/gd32vw55x_cau.c **** /*!
 534:../Firmware/GD32VW55x_standard_peripheral/Source/gd32vw55x_cau.c ****     \brief      restore context after context switching
 535:../Firmware/GD32VW55x_standard_peripheral/Source/gd32vw55x_cau.c ****     \param[in]  cau_context:
 536:../Firmware/GD32VW55x_standard_peripheral/Source/gd32vw55x_cau.c ****                   ctl_config: current configuration
 537:../Firmware/GD32VW55x_standard_peripheral/Source/gd32vw55x_cau.c ****                   iv_0_high: init vector 0 high
 538:../Firmware/GD32VW55x_standard_peripheral/Source/gd32vw55x_cau.c ****                   iv_0_low:  init vector 0 low
 539:../Firmware/GD32VW55x_standard_peripheral/Source/gd32vw55x_cau.c ****                   iv_1_high: init vector 1 high
 540:../Firmware/GD32VW55x_standard_peripheral/Source/gd32vw55x_cau.c ****                   iv_1_low:  init vector 1 low
 541:../Firmware/GD32VW55x_standard_peripheral/Source/gd32vw55x_cau.c ****                   key_0_high: key 0 high
 542:../Firmware/GD32VW55x_standard_peripheral/Source/gd32vw55x_cau.c ****                   key_0_low:  key 0 low
 543:../Firmware/GD32VW55x_standard_peripheral/Source/gd32vw55x_cau.c ****                   key_1_high: key 1 high
 544:../Firmware/GD32VW55x_standard_peripheral/Source/gd32vw55x_cau.c ****                   key_1_low:  key 1 low
 545:../Firmware/GD32VW55x_standard_peripheral/Source/gd32vw55x_cau.c ****                   key_2_high: key 2 high
 546:../Firmware/GD32VW55x_standard_peripheral/Source/gd32vw55x_cau.c ****                   key_2_low:  key 2 low
 547:../Firmware/GD32VW55x_standard_peripheral/Source/gd32vw55x_cau.c ****                   key_3_high: key 3 high
 548:../Firmware/GD32VW55x_standard_peripheral/Source/gd32vw55x_cau.c ****                   key_3_low:  key 3 low
 549:../Firmware/GD32VW55x_standard_peripheral/Source/gd32vw55x_cau.c ****                   gcmccmctxs[8]: GCM or CCM mode context switch
 550:../Firmware/GD32VW55x_standard_peripheral/Source/gd32vw55x_cau.c ****                   gcmctxs[8]: GCM mode context switch
 551:../Firmware/GD32VW55x_standard_peripheral/Source/gd32vw55x_cau.c ****     \param[out] none
 552:../Firmware/GD32VW55x_standard_peripheral/Source/gd32vw55x_cau.c ****     \retval     none
 553:../Firmware/GD32VW55x_standard_peripheral/Source/gd32vw55x_cau.c **** */
 554:../Firmware/GD32VW55x_standard_peripheral/Source/gd32vw55x_cau.c **** void cau_context_restore(cau_context_parameter_struct *cau_context)
 555:../Firmware/GD32VW55x_standard_peripheral/Source/gd32vw55x_cau.c **** {
 1203              		.loc 1 555 1
 1204              		.cfi_startproc
 1205 0000 3971     		addi	sp,sp,-64
 1206              		.cfi_def_cfa_offset 64
 1207 0002 06DE     		sw	ra,60(sp)
 1208 0004 22DC     		sw	s0,56(sp)
 1209              		.cfi_offset 1, -4
 1210              		.cfi_offset 8, -8
 1211 0006 8000     		addi	s0,sp,64
 1212              		.cfi_def_cfa 8, 0
 1213 0008 2326A4FC 		sw	a0,-52(s0)
 556:../Firmware/GD32VW55x_standard_peripheral/Source/gd32vw55x_cau.c ****     uint32_t algm_reg, aes_decrypt;
 557:../Firmware/GD32VW55x_standard_peripheral/Source/gd32vw55x_cau.c **** 
 558:../Firmware/GD32VW55x_standard_peripheral/Source/gd32vw55x_cau.c ****     /* configure the processor with the saved configuration */
 559:../Firmware/GD32VW55x_standard_peripheral/Source/gd32vw55x_cau.c ****     CAU_CTL = cau_context->ctl_config;
 1214              		.loc 1 559 5
 1215 000c B707064C 		li	a5,1275461632
 1216              		.loc 1 559 26
 1217 0010 0327C4FC 		lw	a4,-52(s0)
 1218 0014 1843     		lw	a4,0(a4)
 1219              		.loc 1 559 13
 1220 0016 98C3     		sw	a4,0(a5)
 560:../Firmware/GD32VW55x_standard_peripheral/Source/gd32vw55x_cau.c **** 
 561:../Firmware/GD32VW55x_standard_peripheral/Source/gd32vw55x_cau.c ****     algm_reg = CAU_CTL & CAU_CTL_ALGM;
 1221              		.loc 1 561 16
 1222 0018 B707064C 		li	a5,1275461632
 1223 001c 9843     		lw	a4,0(a5)
 1224              		.loc 1 561 14
 1225 001e B7070800 		li	a5,524288
 1226 0022 93878703 		addi	a5,a5,56
 1227 0026 F98F     		and	a5,a4,a5
 1228 0028 2326F4FE 		sw	a5,-20(s0)
 562:../Firmware/GD32VW55x_standard_peripheral/Source/gd32vw55x_cau.c **** 
 563:../Firmware/GD32VW55x_standard_peripheral/Source/gd32vw55x_cau.c ****     /* restore the key value */
 564:../Firmware/GD32VW55x_standard_peripheral/Source/gd32vw55x_cau.c ****     CAU_KEY0H = cau_context->key_0_high;
 1229              		.loc 1 564 5
 1230 002c B707064C 		li	a5,1275461632
 1231 0030 93870702 		addi	a5,a5,32
 1232              		.loc 1 564 28
 1233 0034 0327C4FC 		lw	a4,-52(s0)
 1234 0038 584B     		lw	a4,20(a4)
 1235              		.loc 1 564 15
 1236 003a 98C3     		sw	a4,0(a5)
 565:../Firmware/GD32VW55x_standard_peripheral/Source/gd32vw55x_cau.c ****     CAU_KEY0L = cau_context->key_0_low;
 1237              		.loc 1 565 5
 1238 003c B707064C 		li	a5,1275461632
 1239 0040 93874702 		addi	a5,a5,36
 1240              		.loc 1 565 28
 1241 0044 0327C4FC 		lw	a4,-52(s0)
 1242 0048 184F     		lw	a4,24(a4)
 1243              		.loc 1 565 15
 1244 004a 98C3     		sw	a4,0(a5)
 566:../Firmware/GD32VW55x_standard_peripheral/Source/gd32vw55x_cau.c ****     CAU_KEY1H = cau_context->key_1_high;
 1245              		.loc 1 566 5
 1246 004c B707064C 		li	a5,1275461632
 1247 0050 93878702 		addi	a5,a5,40
 1248              		.loc 1 566 28
 1249 0054 0327C4FC 		lw	a4,-52(s0)
 1250 0058 584F     		lw	a4,28(a4)
 1251              		.loc 1 566 15
 1252 005a 98C3     		sw	a4,0(a5)
 567:../Firmware/GD32VW55x_standard_peripheral/Source/gd32vw55x_cau.c ****     CAU_KEY1L = cau_context->key_1_low;
 1253              		.loc 1 567 5
 1254 005c B707064C 		li	a5,1275461632
 1255 0060 9387C702 		addi	a5,a5,44
 1256              		.loc 1 567 28
 1257 0064 0327C4FC 		lw	a4,-52(s0)
 1258 0068 1853     		lw	a4,32(a4)
 1259              		.loc 1 567 15
 1260 006a 98C3     		sw	a4,0(a5)
 568:../Firmware/GD32VW55x_standard_peripheral/Source/gd32vw55x_cau.c ****     CAU_KEY2H = cau_context->key_2_high;
 1261              		.loc 1 568 5
 1262 006c B707064C 		li	a5,1275461632
 1263 0070 93870703 		addi	a5,a5,48
 1264              		.loc 1 568 28
 1265 0074 0327C4FC 		lw	a4,-52(s0)
 1266 0078 5853     		lw	a4,36(a4)
 1267              		.loc 1 568 15
 1268 007a 98C3     		sw	a4,0(a5)
 569:../Firmware/GD32VW55x_standard_peripheral/Source/gd32vw55x_cau.c ****     CAU_KEY2L = cau_context->key_2_low;
 1269              		.loc 1 569 5
 1270 007c B707064C 		li	a5,1275461632
 1271 0080 93874703 		addi	a5,a5,52
 1272              		.loc 1 569 28
 1273 0084 0327C4FC 		lw	a4,-52(s0)
 1274 0088 1857     		lw	a4,40(a4)
 1275              		.loc 1 569 15
 1276 008a 98C3     		sw	a4,0(a5)
 570:../Firmware/GD32VW55x_standard_peripheral/Source/gd32vw55x_cau.c ****     CAU_KEY3H = cau_context->key_3_high;
 1277              		.loc 1 570 5
 1278 008c B707064C 		li	a5,1275461632
 1279 0090 93878703 		addi	a5,a5,56
 1280              		.loc 1 570 28
 1281 0094 0327C4FC 		lw	a4,-52(s0)
 1282 0098 5857     		lw	a4,44(a4)
 1283              		.loc 1 570 15
 1284 009a 98C3     		sw	a4,0(a5)
 571:../Firmware/GD32VW55x_standard_peripheral/Source/gd32vw55x_cau.c ****     CAU_KEY3L = cau_context->key_3_low;
 1285              		.loc 1 571 5
 1286 009c B707064C 		li	a5,1275461632
 1287 00a0 9387C703 		addi	a5,a5,60
 1288              		.loc 1 571 28
 1289 00a4 0327C4FC 		lw	a4,-52(s0)
 1290 00a8 185B     		lw	a4,48(a4)
 1291              		.loc 1 571 15
 1292 00aa 98C3     		sw	a4,0(a5)
 572:../Firmware/GD32VW55x_standard_peripheral/Source/gd32vw55x_cau.c **** 
 573:../Firmware/GD32VW55x_standard_peripheral/Source/gd32vw55x_cau.c ****     if((CAU_MODE_TDES_ECB != algm_reg) && (CAU_MODE_DES_ECB != algm_reg) && (CAU_MODE_AES_ECB != al
 1293              		.loc 1 573 7
 1294 00ac 8327C4FE 		lw	a5,-20(s0)
 1295 00b0 A1CF     		beq	a5,zero,.L33
 1296              		.loc 1 573 40 discriminator 1
 1297 00b2 0327C4FE 		lw	a4,-20(s0)
 1298 00b6 C147     		li	a5,16
 1299 00b8 6308F704 		beq	a4,a5,.L33
 1300              		.loc 1 573 74 discriminator 2
 1301 00bc 0327C4FE 		lw	a4,-20(s0)
 1302 00c0 93070002 		li	a5,32
 1303 00c4 6302F704 		beq	a4,a5,.L33
 574:../Firmware/GD32VW55x_standard_peripheral/Source/gd32vw55x_cau.c ****         /* restore the initialization vectors */
 575:../Firmware/GD32VW55x_standard_peripheral/Source/gd32vw55x_cau.c ****         CAU_IV0H = cau_context->iv_0_high;
 1304              		.loc 1 575 9
 1305 00c8 B707064C 		li	a5,1275461632
 1306 00cc 93870704 		addi	a5,a5,64
 1307              		.loc 1 575 31
 1308 00d0 0327C4FC 		lw	a4,-52(s0)
 1309 00d4 5843     		lw	a4,4(a4)
 1310              		.loc 1 575 18
 1311 00d6 98C3     		sw	a4,0(a5)
 576:../Firmware/GD32VW55x_standard_peripheral/Source/gd32vw55x_cau.c ****         CAU_IV0L = cau_context->iv_0_low;
 1312              		.loc 1 576 9
 1313 00d8 B707064C 		li	a5,1275461632
 1314 00dc 93874704 		addi	a5,a5,68
 1315              		.loc 1 576 31
 1316 00e0 0327C4FC 		lw	a4,-52(s0)
 1317 00e4 1847     		lw	a4,8(a4)
 1318              		.loc 1 576 18
 1319 00e6 98C3     		sw	a4,0(a5)
 577:../Firmware/GD32VW55x_standard_peripheral/Source/gd32vw55x_cau.c ****         CAU_IV1H = cau_context->iv_1_high;
 1320              		.loc 1 577 9
 1321 00e8 B707064C 		li	a5,1275461632
 1322 00ec 93878704 		addi	a5,a5,72
 1323              		.loc 1 577 31
 1324 00f0 0327C4FC 		lw	a4,-52(s0)
 1325 00f4 5847     		lw	a4,12(a4)
 1326              		.loc 1 577 18
 1327 00f6 98C3     		sw	a4,0(a5)
 578:../Firmware/GD32VW55x_standard_peripheral/Source/gd32vw55x_cau.c ****         CAU_IV1L = cau_context->iv_1_low;
 1328              		.loc 1 578 9
 1329 00f8 B707064C 		li	a5,1275461632
 1330 00fc 9387C704 		addi	a5,a5,76
 1331              		.loc 1 578 31
 1332 0100 0327C4FC 		lw	a4,-52(s0)
 1333 0104 184B     		lw	a4,16(a4)
 1334              		.loc 1 578 18
 1335 0106 98C3     		sw	a4,0(a5)
 1336              	.L33:
 579:../Firmware/GD32VW55x_standard_peripheral/Source/gd32vw55x_cau.c ****     }
 580:../Firmware/GD32VW55x_standard_peripheral/Source/gd32vw55x_cau.c **** 
 581:../Firmware/GD32VW55x_standard_peripheral/Source/gd32vw55x_cau.c ****     /* if in GCM/CCM mode, restore the context switch registers */
 582:../Firmware/GD32VW55x_standard_peripheral/Source/gd32vw55x_cau.c ****     if((CAU_MODE_AES_GCM == algm_reg) || (CAU_MODE_AES_CCM == algm_reg)) {
 1337              		.loc 1 582 7
 1338 0108 0327C4FE 		lw	a4,-20(s0)
 1339 010c B7070800 		li	a5,524288
 1340 0110 6309F700 		beq	a4,a5,.L34
 1341              		.loc 1 582 39 discriminator 1
 1342 0114 0327C4FE 		lw	a4,-20(s0)
 1343 0118 B7070800 		li	a5,524288
 1344 011c A107     		addi	a5,a5,8
 1345 011e 6312F708 		bne	a4,a5,.L35
 1346              	.L34:
 583:../Firmware/GD32VW55x_standard_peripheral/Source/gd32vw55x_cau.c ****         CAU_GCMCCMCTXSx(0U) = cau_context->gcmccmctxs[0U];
 1347              		.loc 1 583 9
 1348 0122 B707064C 		li	a5,1275461632
 1349 0126 93870705 		addi	a5,a5,80
 1350              		.loc 1 583 54
 1351 012a 0327C4FC 		lw	a4,-52(s0)
 1352 012e 585B     		lw	a4,52(a4)
 1353              		.loc 1 583 29
 1354 0130 98C3     		sw	a4,0(a5)
 584:../Firmware/GD32VW55x_standard_peripheral/Source/gd32vw55x_cau.c ****         CAU_GCMCCMCTXSx(1U) = cau_context->gcmccmctxs[1U];
 1355              		.loc 1 584 9
 1356 0132 B707064C 		li	a5,1275461632
 1357 0136 93874705 		addi	a5,a5,84
 1358              		.loc 1 584 54
 1359 013a 0327C4FC 		lw	a4,-52(s0)
 1360 013e 185F     		lw	a4,56(a4)
 1361              		.loc 1 584 29
 1362 0140 98C3     		sw	a4,0(a5)
 585:../Firmware/GD32VW55x_standard_peripheral/Source/gd32vw55x_cau.c ****         CAU_GCMCCMCTXSx(2U) = cau_context->gcmccmctxs[2U];
 1363              		.loc 1 585 9
 1364 0142 B707064C 		li	a5,1275461632
 1365 0146 93878705 		addi	a5,a5,88
 1366              		.loc 1 585 54
 1367 014a 0327C4FC 		lw	a4,-52(s0)
 1368 014e 585F     		lw	a4,60(a4)
 1369              		.loc 1 585 29
 1370 0150 98C3     		sw	a4,0(a5)
 586:../Firmware/GD32VW55x_standard_peripheral/Source/gd32vw55x_cau.c ****         CAU_GCMCCMCTXSx(3U) = cau_context->gcmccmctxs[3U];
 1371              		.loc 1 586 9
 1372 0152 B707064C 		li	a5,1275461632
 1373 0156 9387C705 		addi	a5,a5,92
 1374              		.loc 1 586 54
 1375 015a 0327C4FC 		lw	a4,-52(s0)
 1376 015e 3843     		lw	a4,64(a4)
 1377              		.loc 1 586 29
 1378 0160 98C3     		sw	a4,0(a5)
 587:../Firmware/GD32VW55x_standard_peripheral/Source/gd32vw55x_cau.c ****         CAU_GCMCCMCTXSx(4U) = cau_context->gcmccmctxs[4U];
 1379              		.loc 1 587 9
 1380 0162 B707064C 		li	a5,1275461632
 1381 0166 93870706 		addi	a5,a5,96
 1382              		.loc 1 587 54
 1383 016a 0327C4FC 		lw	a4,-52(s0)
 1384 016e 7843     		lw	a4,68(a4)
 1385              		.loc 1 587 29
 1386 0170 98C3     		sw	a4,0(a5)
 588:../Firmware/GD32VW55x_standard_peripheral/Source/gd32vw55x_cau.c ****         CAU_GCMCCMCTXSx(5U) = cau_context->gcmccmctxs[5U];
 1387              		.loc 1 588 9
 1388 0172 B707064C 		li	a5,1275461632
 1389 0176 93874706 		addi	a5,a5,100
 1390              		.loc 1 588 54
 1391 017a 0327C4FC 		lw	a4,-52(s0)
 1392 017e 3847     		lw	a4,72(a4)
 1393              		.loc 1 588 29
 1394 0180 98C3     		sw	a4,0(a5)
 589:../Firmware/GD32VW55x_standard_peripheral/Source/gd32vw55x_cau.c ****         CAU_GCMCCMCTXSx(6U) = cau_context->gcmccmctxs[6U];
 1395              		.loc 1 589 9
 1396 0182 B707064C 		li	a5,1275461632
 1397 0186 93878706 		addi	a5,a5,104
 1398              		.loc 1 589 54
 1399 018a 0327C4FC 		lw	a4,-52(s0)
 1400 018e 7847     		lw	a4,76(a4)
 1401              		.loc 1 589 29
 1402 0190 98C3     		sw	a4,0(a5)
 590:../Firmware/GD32VW55x_standard_peripheral/Source/gd32vw55x_cau.c ****         CAU_GCMCCMCTXSx(7U) = cau_context->gcmccmctxs[7U];
 1403              		.loc 1 590 9
 1404 0192 B707064C 		li	a5,1275461632
 1405 0196 9387C706 		addi	a5,a5,108
 1406              		.loc 1 590 54
 1407 019a 0327C4FC 		lw	a4,-52(s0)
 1408 019e 384B     		lw	a4,80(a4)
 1409              		.loc 1 590 29
 1410 01a0 98C3     		sw	a4,0(a5)
 1411              	.L35:
 591:../Firmware/GD32VW55x_standard_peripheral/Source/gd32vw55x_cau.c ****     }
 592:../Firmware/GD32VW55x_standard_peripheral/Source/gd32vw55x_cau.c **** 
 593:../Firmware/GD32VW55x_standard_peripheral/Source/gd32vw55x_cau.c ****     /* if in GCM mode, restore the context switch registers */
 594:../Firmware/GD32VW55x_standard_peripheral/Source/gd32vw55x_cau.c ****     if(CAU_MODE_AES_GCM == algm_reg) {
 1412              		.loc 1 594 7
 1413 01a2 0327C4FE 		lw	a4,-20(s0)
 1414 01a6 B7070800 		li	a5,524288
 1415 01aa 6312F708 		bne	a4,a5,.L36
 595:../Firmware/GD32VW55x_standard_peripheral/Source/gd32vw55x_cau.c ****         CAU_GCMCTXSx(0U) = cau_context->gcmctxs[0U];
 1416              		.loc 1 595 9
 1417 01ae B707064C 		li	a5,1275461632
 1418 01b2 93870707 		addi	a5,a5,112
 1419              		.loc 1 595 48
 1420 01b6 0327C4FC 		lw	a4,-52(s0)
 1421 01ba 784B     		lw	a4,84(a4)
 1422              		.loc 1 595 26
 1423 01bc 98C3     		sw	a4,0(a5)
 596:../Firmware/GD32VW55x_standard_peripheral/Source/gd32vw55x_cau.c ****         CAU_GCMCTXSx(1U) = cau_context->gcmctxs[1U];
 1424              		.loc 1 596 9
 1425 01be B707064C 		li	a5,1275461632
 1426 01c2 93874707 		addi	a5,a5,116
 1427              		.loc 1 596 48
 1428 01c6 0327C4FC 		lw	a4,-52(s0)
 1429 01ca 384F     		lw	a4,88(a4)
 1430              		.loc 1 596 26
 1431 01cc 98C3     		sw	a4,0(a5)
 597:../Firmware/GD32VW55x_standard_peripheral/Source/gd32vw55x_cau.c ****         CAU_GCMCTXSx(2U) = cau_context->gcmctxs[2U];
 1432              		.loc 1 597 9
 1433 01ce B707064C 		li	a5,1275461632
 1434 01d2 93878707 		addi	a5,a5,120
 1435              		.loc 1 597 48
 1436 01d6 0327C4FC 		lw	a4,-52(s0)
 1437 01da 784F     		lw	a4,92(a4)
 1438              		.loc 1 597 26
 1439 01dc 98C3     		sw	a4,0(a5)
 598:../Firmware/GD32VW55x_standard_peripheral/Source/gd32vw55x_cau.c ****         CAU_GCMCTXSx(3U) = cau_context->gcmctxs[3U];
 1440              		.loc 1 598 9
 1441 01de B707064C 		li	a5,1275461632
 1442 01e2 9387C707 		addi	a5,a5,124
 1443              		.loc 1 598 48
 1444 01e6 0327C4FC 		lw	a4,-52(s0)
 1445 01ea 3853     		lw	a4,96(a4)
 1446              		.loc 1 598 26
 1447 01ec 98C3     		sw	a4,0(a5)
 599:../Firmware/GD32VW55x_standard_peripheral/Source/gd32vw55x_cau.c ****         CAU_GCMCTXSx(4U) = cau_context->gcmctxs[4U];
 1448              		.loc 1 599 9
 1449 01ee B707064C 		li	a5,1275461632
 1450 01f2 93870708 		addi	a5,a5,128
 1451              		.loc 1 599 48
 1452 01f6 0327C4FC 		lw	a4,-52(s0)
 1453 01fa 7853     		lw	a4,100(a4)
 1454              		.loc 1 599 26
 1455 01fc 98C3     		sw	a4,0(a5)
 600:../Firmware/GD32VW55x_standard_peripheral/Source/gd32vw55x_cau.c ****         CAU_GCMCTXSx(5U) = cau_context->gcmctxs[5U];
 1456              		.loc 1 600 9
 1457 01fe B707064C 		li	a5,1275461632
 1458 0202 93874708 		addi	a5,a5,132
 1459              		.loc 1 600 48
 1460 0206 0327C4FC 		lw	a4,-52(s0)
 1461 020a 3857     		lw	a4,104(a4)
 1462              		.loc 1 600 26
 1463 020c 98C3     		sw	a4,0(a5)
 601:../Firmware/GD32VW55x_standard_peripheral/Source/gd32vw55x_cau.c ****         CAU_GCMCTXSx(6U) = cau_context->gcmctxs[6U];
 1464              		.loc 1 601 9
 1465 020e B707064C 		li	a5,1275461632
 1466 0212 93878708 		addi	a5,a5,136
 1467              		.loc 1 601 48
 1468 0216 0327C4FC 		lw	a4,-52(s0)
 1469 021a 7857     		lw	a4,108(a4)
 1470              		.loc 1 601 26
 1471 021c 98C3     		sw	a4,0(a5)
 602:../Firmware/GD32VW55x_standard_peripheral/Source/gd32vw55x_cau.c ****         CAU_GCMCTXSx(7U) = cau_context->gcmctxs[7U];
 1472              		.loc 1 602 9
 1473 021e B707064C 		li	a5,1275461632
 1474 0222 9387C708 		addi	a5,a5,140
 1475              		.loc 1 602 48
 1476 0226 0327C4FC 		lw	a4,-52(s0)
 1477 022a 385B     		lw	a4,112(a4)
 1478              		.loc 1 602 26
 1479 022c 98C3     		sw	a4,0(a5)
 1480              	.L36:
 603:../Firmware/GD32VW55x_standard_peripheral/Source/gd32vw55x_cau.c ****     }
 604:../Firmware/GD32VW55x_standard_peripheral/Source/gd32vw55x_cau.c **** 
 605:../Firmware/GD32VW55x_standard_peripheral/Source/gd32vw55x_cau.c ****     /* if it is AES ECB/CBC decryption, then first prepare key */
 606:../Firmware/GD32VW55x_standard_peripheral/Source/gd32vw55x_cau.c ****     aes_decrypt = CAU_CTL & (CAU_CTL_ALGM | CAU_CTL_CAUDIR);
 1481              		.loc 1 606 19
 1482 022e B707064C 		li	a5,1275461632
 1483 0232 9843     		lw	a4,0(a5)
 1484              		.loc 1 606 17
 1485 0234 B7070800 		li	a5,524288
 1486 0238 9387C703 		addi	a5,a5,60
 1487 023c F98F     		and	a5,a4,a5
 1488 023e 2324F4FE 		sw	a5,-24(s0)
 607:../Firmware/GD32VW55x_standard_peripheral/Source/gd32vw55x_cau.c ****     if(((CAU_MODE_AES_ECB | CAU_DECRYPT) == aes_decrypt) || ((CAU_MODE_AES_CBC | CAU_DECRYPT) == ae
 1489              		.loc 1 607 7
 1490 0242 032784FE 		lw	a4,-24(s0)
 1491 0246 93074002 		li	a5,36
 1492 024a 6308F700 		beq	a4,a5,.L37
 1493              		.loc 1 607 58 discriminator 1
 1494 024e 032784FE 		lw	a4,-24(s0)
 1495 0252 9307C002 		li	a5,44
 1496 0256 631BF704 		bne	a4,a5,.L38
 1497              	.L37:
 1498              	.LBB2:
 608:../Firmware/GD32VW55x_standard_peripheral/Source/gd32vw55x_cau.c ****         uint32_t alg_dir, algo_mode, swapping;
 609:../Firmware/GD32VW55x_standard_peripheral/Source/gd32vw55x_cau.c **** 
 610:../Firmware/GD32VW55x_standard_peripheral/Source/gd32vw55x_cau.c ****         /* flush IN/OUT FIFOs */
 611:../Firmware/GD32VW55x_standard_peripheral/Source/gd32vw55x_cau.c ****         cau_fifo_flush();
 1499              		.loc 1 611 9
 1500 025a 97000000 		call	cau_fifo_flush
 1500      E7800000 
 612:../Firmware/GD32VW55x_standard_peripheral/Source/gd32vw55x_cau.c ****         /* parameters for key preparation for AES decryption */
 613:../Firmware/GD32VW55x_standard_peripheral/Source/gd32vw55x_cau.c ****         alg_dir = CAU_DECRYPT;
 1501              		.loc 1 613 17
 1502 0262 9147     		li	a5,4
 1503 0264 2322F4FE 		sw	a5,-28(s0)
 614:../Firmware/GD32VW55x_standard_peripheral/Source/gd32vw55x_cau.c ****         algo_mode = CAU_MODE_AES_KEY;
 1504              		.loc 1 614 19
 1505 0268 93078003 		li	a5,56
 1506 026c 2320F4FE 		sw	a5,-32(s0)
 615:../Firmware/GD32VW55x_standard_peripheral/Source/gd32vw55x_cau.c ****         swapping = CAU_SWAPPING_32BIT;
 1507              		.loc 1 615 18
 1508 0270 232E04FC 		sw	zero,-36(s0)
 616:../Firmware/GD32VW55x_standard_peripheral/Source/gd32vw55x_cau.c ****         cau_init(alg_dir, algo_mode, swapping);
 1509              		.loc 1 616 9
 1510 0274 0326C4FD 		lw	a2,-36(s0)
 1511 0278 832504FE 		lw	a1,-32(s0)
 1512 027c 032544FE 		lw	a0,-28(s0)
 1513 0280 97000000 		call	cau_init
 1513      E7800000 
 617:../Firmware/GD32VW55x_standard_peripheral/Source/gd32vw55x_cau.c **** 
 618:../Firmware/GD32VW55x_standard_peripheral/Source/gd32vw55x_cau.c ****         /* enable CAU */
 619:../Firmware/GD32VW55x_standard_peripheral/Source/gd32vw55x_cau.c ****         cau_enable();
 1514              		.loc 1 619 9
 1515 0288 97000000 		call	cau_enable
 1515      E7800000 
 620:../Firmware/GD32VW55x_standard_peripheral/Source/gd32vw55x_cau.c **** 
 621:../Firmware/GD32VW55x_standard_peripheral/Source/gd32vw55x_cau.c ****         /* wait until BUSY=0 */
 622:../Firmware/GD32VW55x_standard_peripheral/Source/gd32vw55x_cau.c ****         while((uint32_t)0U != cau_flag_get(CAU_FLAG_BUSY)) {
 1516              		.loc 1 622 14
 1517 0290 0100     		nop
 1518              	.L39:
 1519              		.loc 1 622 31 discriminator 1
 1520 0292 4145     		li	a0,16
 1521 0294 97000000 		call	cau_flag_get
 1521      E7800000 
 1522 029c AA87     		mv	a5,a0
 1523              		.loc 1 622 14 discriminator 1
 1524 029e F5FB     		bne	a5,zero,.L39
 623:../Firmware/GD32VW55x_standard_peripheral/Source/gd32vw55x_cau.c ****         }
 624:../Firmware/GD32VW55x_standard_peripheral/Source/gd32vw55x_cau.c **** 
 625:../Firmware/GD32VW55x_standard_peripheral/Source/gd32vw55x_cau.c ****         /* parameters for decryption */
 626:../Firmware/GD32VW55x_standard_peripheral/Source/gd32vw55x_cau.c ****         CAU_CTL = cau_context->ctl_config;
 1525              		.loc 1 626 9
 1526 02a0 B707064C 		li	a5,1275461632
 1527              		.loc 1 626 30
 1528 02a4 0327C4FC 		lw	a4,-52(s0)
 1529 02a8 1843     		lw	a4,0(a4)
 1530              		.loc 1 626 17
 1531 02aa 98C3     		sw	a4,0(a5)
 1532              	.L38:
 1533              	.LBE2:
 627:../Firmware/GD32VW55x_standard_peripheral/Source/gd32vw55x_cau.c ****     }
 628:../Firmware/GD32VW55x_standard_peripheral/Source/gd32vw55x_cau.c **** 
 629:../Firmware/GD32VW55x_standard_peripheral/Source/gd32vw55x_cau.c ****     /* enable CAU */
 630:../Firmware/GD32VW55x_standard_peripheral/Source/gd32vw55x_cau.c ****     cau_enable();
 1534              		.loc 1 630 5
 1535 02ac 97000000 		call	cau_enable
 1535      E7800000 
 631:../Firmware/GD32VW55x_standard_peripheral/Source/gd32vw55x_cau.c **** }
 1536              		.loc 1 631 1
 1537 02b4 0100     		nop
 1538 02b6 F250     		lw	ra,60(sp)
 1539              		.cfi_restore 1
 1540 02b8 6254     		lw	s0,56(sp)
 1541              		.cfi_restore 8
 1542              		.cfi_def_cfa 2, 64
 1543 02ba 2161     		addi	sp,sp,64
 1544              		.cfi_def_cfa_offset 0
 1545 02bc 8280     		jr	ra
 1546              		.cfi_endproc
 1547              	.LFE366:
 1549              		.section	.text.cau_flag_get,"ax",@progbits
 1550              		.align	1
 1551              		.globl	cau_flag_get
 1553              	cau_flag_get:
 1554              	.LFB367:
 632:../Firmware/GD32VW55x_standard_peripheral/Source/gd32vw55x_cau.c **** 
 633:../Firmware/GD32VW55x_standard_peripheral/Source/gd32vw55x_cau.c **** /*!
 634:../Firmware/GD32VW55x_standard_peripheral/Source/gd32vw55x_cau.c ****     \brief      get the CAU flag status
 635:../Firmware/GD32VW55x_standard_peripheral/Source/gd32vw55x_cau.c ****     \param[in]  flag: CAU flag status
 636:../Firmware/GD32VW55x_standard_peripheral/Source/gd32vw55x_cau.c ****                 only one parameter can be selected which is shown as below:
 637:../Firmware/GD32VW55x_standard_peripheral/Source/gd32vw55x_cau.c ****       \arg        CAU_FLAG_INFIFO_EMPTY: input FIFO empty
 638:../Firmware/GD32VW55x_standard_peripheral/Source/gd32vw55x_cau.c ****       \arg        CAU_FLAG_INFIFO_NO_FULL: input FIFO is not full
 639:../Firmware/GD32VW55x_standard_peripheral/Source/gd32vw55x_cau.c ****       \arg        CAU_FLAG_OUTFIFO_NO_EMPTY: output FIFO not empty
 640:../Firmware/GD32VW55x_standard_peripheral/Source/gd32vw55x_cau.c ****       \arg        CAU_FLAG_OUTFIFO_FULL: output FIFO is full
 641:../Firmware/GD32VW55x_standard_peripheral/Source/gd32vw55x_cau.c ****       \arg        CAU_FLAG_BUSY: the CAU core is busy
 642:../Firmware/GD32VW55x_standard_peripheral/Source/gd32vw55x_cau.c ****       \arg        CAU_FLAG_INFIFO: input FIFO flag status
 643:../Firmware/GD32VW55x_standard_peripheral/Source/gd32vw55x_cau.c ****       \arg        CAU_FLAG_OUTFIFO: output FIFO flag status
 644:../Firmware/GD32VW55x_standard_peripheral/Source/gd32vw55x_cau.c ****     \param[out] none
 645:../Firmware/GD32VW55x_standard_peripheral/Source/gd32vw55x_cau.c ****     \retval     FlagStatus: SET or RESET
 646:../Firmware/GD32VW55x_standard_peripheral/Source/gd32vw55x_cau.c **** */
 647:../Firmware/GD32VW55x_standard_peripheral/Source/gd32vw55x_cau.c **** FlagStatus cau_flag_get(uint32_t flag)
 648:../Firmware/GD32VW55x_standard_peripheral/Source/gd32vw55x_cau.c **** {
 1555              		.loc 1 648 1
 1556              		.cfi_startproc
 1557 0000 7971     		addi	sp,sp,-48
 1558              		.cfi_def_cfa_offset 48
 1559 0002 22D6     		sw	s0,44(sp)
 1560              		.cfi_offset 8, -4
 1561 0004 0018     		addi	s0,sp,48
 1562              		.cfi_def_cfa 8, 0
 1563 0006 232EA4FC 		sw	a0,-36(s0)
 649:../Firmware/GD32VW55x_standard_peripheral/Source/gd32vw55x_cau.c ****     uint32_t reg = 0U;
 1564              		.loc 1 649 14
 1565 000a 232604FE 		sw	zero,-20(s0)
 650:../Firmware/GD32VW55x_standard_peripheral/Source/gd32vw55x_cau.c ****     FlagStatus ret_flag = RESET;
 1566              		.loc 1 650 16
 1567 000e 232404FE 		sw	zero,-24(s0)
 651:../Firmware/GD32VW55x_standard_peripheral/Source/gd32vw55x_cau.c **** 
 652:../Firmware/GD32VW55x_standard_peripheral/Source/gd32vw55x_cau.c ****     /* check if the flag is in CAU_STAT1 register */
 653:../Firmware/GD32VW55x_standard_peripheral/Source/gd32vw55x_cau.c ****     if(SET == (flag >> 31U)){
 1568              		.loc 1 653 21
 1569 0012 8327C4FD 		lw	a5,-36(s0)
 1570 0016 13D7F701 		srli	a4,a5,31
 1571              		.loc 1 653 7
 1572 001a 8547     		li	a5,1
 1573 001c 6319F700 		bne	a4,a5,.L41
 654:../Firmware/GD32VW55x_standard_peripheral/Source/gd32vw55x_cau.c ****         reg = CAU_STAT1;
 1574              		.loc 1 654 15
 1575 0020 B707064C 		li	a5,1275461632
 1576 0024 E107     		addi	a5,a5,24
 1577              		.loc 1 654 13
 1578 0026 9C43     		lw	a5,0(a5)
 1579 0028 2326F4FE 		sw	a5,-20(s0)
 1580 002c 39A0     		j	.L42
 1581              	.L41:
 655:../Firmware/GD32VW55x_standard_peripheral/Source/gd32vw55x_cau.c ****     } else {
 656:../Firmware/GD32VW55x_standard_peripheral/Source/gd32vw55x_cau.c ****         /* the flag is in CAU_STAT0 register */
 657:../Firmware/GD32VW55x_standard_peripheral/Source/gd32vw55x_cau.c ****         reg = CAU_STAT0;
 1582              		.loc 1 657 15
 1583 002e B707064C 		li	a5,1275461632
 1584 0032 9107     		addi	a5,a5,4
 1585              		.loc 1 657 13
 1586 0034 9C43     		lw	a5,0(a5)
 1587 0036 2326F4FE 		sw	a5,-20(s0)
 1588              	.L42:
 658:../Firmware/GD32VW55x_standard_peripheral/Source/gd32vw55x_cau.c ****     }
 659:../Firmware/GD32VW55x_standard_peripheral/Source/gd32vw55x_cau.c **** 
 660:../Firmware/GD32VW55x_standard_peripheral/Source/gd32vw55x_cau.c ****     /* check the status of the specified CAU flag */
 661:../Firmware/GD32VW55x_standard_peripheral/Source/gd32vw55x_cau.c ****     if(RESET != (reg & flag)){
 1589              		.loc 1 661 22
 1590 003a 0327C4FE 		lw	a4,-20(s0)
 1591 003e 8327C4FD 		lw	a5,-36(s0)
 1592 0042 F98F     		and	a5,a4,a5
 1593              		.loc 1 661 7
 1594 0044 81C7     		beq	a5,zero,.L43
 662:../Firmware/GD32VW55x_standard_peripheral/Source/gd32vw55x_cau.c ****         ret_flag = SET;
 1595              		.loc 1 662 18
 1596 0046 8547     		li	a5,1
 1597 0048 2324F4FE 		sw	a5,-24(s0)
 1598              	.L43:
 663:../Firmware/GD32VW55x_standard_peripheral/Source/gd32vw55x_cau.c ****     }
 664:../Firmware/GD32VW55x_standard_peripheral/Source/gd32vw55x_cau.c **** 
 665:../Firmware/GD32VW55x_standard_peripheral/Source/gd32vw55x_cau.c ****     return ret_flag;
 1599              		.loc 1 665 12
 1600 004c 832784FE 		lw	a5,-24(s0)
 666:../Firmware/GD32VW55x_standard_peripheral/Source/gd32vw55x_cau.c **** }
 1601              		.loc 1 666 1
 1602 0050 3E85     		mv	a0,a5
 1603 0052 3254     		lw	s0,44(sp)
 1604              		.cfi_restore 8
 1605              		.cfi_def_cfa 2, 48
 1606 0054 4561     		addi	sp,sp,48
 1607              		.cfi_def_cfa_offset 0
 1608 0056 8280     		jr	ra
 1609              		.cfi_endproc
 1610              	.LFE367:
 1612              		.section	.text.cau_interrupt_enable,"ax",@progbits
 1613              		.align	1
 1614              		.globl	cau_interrupt_enable
 1616              	cau_interrupt_enable:
 1617              	.LFB368:
 667:../Firmware/GD32VW55x_standard_peripheral/Source/gd32vw55x_cau.c **** 
 668:../Firmware/GD32VW55x_standard_peripheral/Source/gd32vw55x_cau.c **** /*!
 669:../Firmware/GD32VW55x_standard_peripheral/Source/gd32vw55x_cau.c ****     \brief      enable the CAU interrupts
 670:../Firmware/GD32VW55x_standard_peripheral/Source/gd32vw55x_cau.c ****     \param[in]  interrupt: specify the CAU interrupt source to be enabled
 671:../Firmware/GD32VW55x_standard_peripheral/Source/gd32vw55x_cau.c ****                 one or more parameters can be selected which are shown as below:
 672:../Firmware/GD32VW55x_standard_peripheral/Source/gd32vw55x_cau.c ****       \arg        CAU_INT_INFIFO: input FIFO interrupt
 673:../Firmware/GD32VW55x_standard_peripheral/Source/gd32vw55x_cau.c ****       \arg        CAU_INT_OUTFIFO: output FIFO interrupt
 674:../Firmware/GD32VW55x_standard_peripheral/Source/gd32vw55x_cau.c ****     \param[out] none
 675:../Firmware/GD32VW55x_standard_peripheral/Source/gd32vw55x_cau.c ****     \retval     none
 676:../Firmware/GD32VW55x_standard_peripheral/Source/gd32vw55x_cau.c **** */
 677:../Firmware/GD32VW55x_standard_peripheral/Source/gd32vw55x_cau.c **** void cau_interrupt_enable(uint32_t interrupt)
 678:../Firmware/GD32VW55x_standard_peripheral/Source/gd32vw55x_cau.c **** {
 1618              		.loc 1 678 1
 1619              		.cfi_startproc
 1620 0000 0111     		addi	sp,sp,-32
 1621              		.cfi_def_cfa_offset 32
 1622 0002 22CE     		sw	s0,28(sp)
 1623              		.cfi_offset 8, -4
 1624 0004 0010     		addi	s0,sp,32
 1625              		.cfi_def_cfa 8, 0
 1626 0006 2326A4FE 		sw	a0,-20(s0)
 679:../Firmware/GD32VW55x_standard_peripheral/Source/gd32vw55x_cau.c ****     /* enable the selected CAU interrupt */
 680:../Firmware/GD32VW55x_standard_peripheral/Source/gd32vw55x_cau.c ****     CAU_INTEN |= interrupt;
 1627              		.loc 1 680 15
 1628 000a B707064C 		li	a5,1275461632
 1629 000e D107     		addi	a5,a5,20
 1630 0010 9443     		lw	a3,0(a5)
 1631 0012 B707064C 		li	a5,1275461632
 1632 0016 D107     		addi	a5,a5,20
 1633 0018 0327C4FE 		lw	a4,-20(s0)
 1634 001c 558F     		or	a4,a3,a4
 1635 001e 98C3     		sw	a4,0(a5)
 681:../Firmware/GD32VW55x_standard_peripheral/Source/gd32vw55x_cau.c **** }
 1636              		.loc 1 681 1
 1637 0020 0100     		nop
 1638 0022 7244     		lw	s0,28(sp)
 1639              		.cfi_restore 8
 1640              		.cfi_def_cfa 2, 32
 1641 0024 0561     		addi	sp,sp,32
 1642              		.cfi_def_cfa_offset 0
 1643 0026 8280     		jr	ra
 1644              		.cfi_endproc
 1645              	.LFE368:
 1647              		.section	.text.cau_interrupt_disable,"ax",@progbits
 1648              		.align	1
 1649              		.globl	cau_interrupt_disable
 1651              	cau_interrupt_disable:
 1652              	.LFB369:
 682:../Firmware/GD32VW55x_standard_peripheral/Source/gd32vw55x_cau.c **** 
 683:../Firmware/GD32VW55x_standard_peripheral/Source/gd32vw55x_cau.c **** /*!
 684:../Firmware/GD32VW55x_standard_peripheral/Source/gd32vw55x_cau.c ****     \brief      disable the CAU interrupts
 685:../Firmware/GD32VW55x_standard_peripheral/Source/gd32vw55x_cau.c ****     \param[in]  interrupt: specify the CAU interrupt source to be disabled
 686:../Firmware/GD32VW55x_standard_peripheral/Source/gd32vw55x_cau.c ****                 one or more parameters can be selected which are shown as below:
 687:../Firmware/GD32VW55x_standard_peripheral/Source/gd32vw55x_cau.c ****       \arg        CAU_INT_INFIFO: input FIFO interrupt
 688:../Firmware/GD32VW55x_standard_peripheral/Source/gd32vw55x_cau.c ****       \arg        CAU_INT_OUTFIFO: output FIFO interrupt
 689:../Firmware/GD32VW55x_standard_peripheral/Source/gd32vw55x_cau.c ****     \param[out] none
 690:../Firmware/GD32VW55x_standard_peripheral/Source/gd32vw55x_cau.c ****     \retval     none
 691:../Firmware/GD32VW55x_standard_peripheral/Source/gd32vw55x_cau.c **** */
 692:../Firmware/GD32VW55x_standard_peripheral/Source/gd32vw55x_cau.c **** void cau_interrupt_disable(uint32_t interrupt)
 693:../Firmware/GD32VW55x_standard_peripheral/Source/gd32vw55x_cau.c **** {
 1653              		.loc 1 693 1
 1654              		.cfi_startproc
 1655 0000 0111     		addi	sp,sp,-32
 1656              		.cfi_def_cfa_offset 32
 1657 0002 22CE     		sw	s0,28(sp)
 1658              		.cfi_offset 8, -4
 1659 0004 0010     		addi	s0,sp,32
 1660              		.cfi_def_cfa 8, 0
 1661 0006 2326A4FE 		sw	a0,-20(s0)
 694:../Firmware/GD32VW55x_standard_peripheral/Source/gd32vw55x_cau.c ****     /* disable the selected CAU interrupt */
 695:../Firmware/GD32VW55x_standard_peripheral/Source/gd32vw55x_cau.c ****     CAU_INTEN &= ~(interrupt);
 1662              		.loc 1 695 15
 1663 000a B707064C 		li	a5,1275461632
 1664 000e D107     		addi	a5,a5,20
 1665 0010 9443     		lw	a3,0(a5)
 1666              		.loc 1 695 18
 1667 0012 8327C4FE 		lw	a5,-20(s0)
 1668 0016 13C7F7FF 		not	a4,a5
 1669              		.loc 1 695 15
 1670 001a B707064C 		li	a5,1275461632
 1671 001e D107     		addi	a5,a5,20
 1672 0020 758F     		and	a4,a3,a4
 1673 0022 98C3     		sw	a4,0(a5)
 696:../Firmware/GD32VW55x_standard_peripheral/Source/gd32vw55x_cau.c **** }
 1674              		.loc 1 696 1
 1675 0024 0100     		nop
 1676 0026 7244     		lw	s0,28(sp)
 1677              		.cfi_restore 8
 1678              		.cfi_def_cfa 2, 32
 1679 0028 0561     		addi	sp,sp,32
 1680              		.cfi_def_cfa_offset 0
 1681 002a 8280     		jr	ra
 1682              		.cfi_endproc
 1683              	.LFE369:
 1685              		.section	.text.cau_interrupt_flag_get,"ax",@progbits
 1686              		.align	1
 1687              		.globl	cau_interrupt_flag_get
 1689              	cau_interrupt_flag_get:
 1690              	.LFB370:
 697:../Firmware/GD32VW55x_standard_peripheral/Source/gd32vw55x_cau.c **** 
 698:../Firmware/GD32VW55x_standard_peripheral/Source/gd32vw55x_cau.c **** /*!
 699:../Firmware/GD32VW55x_standard_peripheral/Source/gd32vw55x_cau.c ****     \brief      get the interrupt flag
 700:../Firmware/GD32VW55x_standard_peripheral/Source/gd32vw55x_cau.c ****     \param[in]  int_flag: CAU interrupt flag
 701:../Firmware/GD32VW55x_standard_peripheral/Source/gd32vw55x_cau.c ****                 only one parameter can be selected which is shown as below:
 702:../Firmware/GD32VW55x_standard_peripheral/Source/gd32vw55x_cau.c ****       \arg        CAU_INT_FLAG_INFIFO: input FIFO interrupt
 703:../Firmware/GD32VW55x_standard_peripheral/Source/gd32vw55x_cau.c ****       \arg        CAU_INT_FLAG_OUTFIFO: output FIFO interrupt
 704:../Firmware/GD32VW55x_standard_peripheral/Source/gd32vw55x_cau.c ****     \param[out] none
 705:../Firmware/GD32VW55x_standard_peripheral/Source/gd32vw55x_cau.c ****     \retval     FlagStatus: SET or RESET
 706:../Firmware/GD32VW55x_standard_peripheral/Source/gd32vw55x_cau.c **** */
 707:../Firmware/GD32VW55x_standard_peripheral/Source/gd32vw55x_cau.c **** FlagStatus cau_interrupt_flag_get(uint32_t int_flag)
 708:../Firmware/GD32VW55x_standard_peripheral/Source/gd32vw55x_cau.c **** {
 1691              		.loc 1 708 1
 1692              		.cfi_startproc
 1693 0000 7971     		addi	sp,sp,-48
 1694              		.cfi_def_cfa_offset 48
 1695 0002 22D6     		sw	s0,44(sp)
 1696              		.cfi_offset 8, -4
 1697 0004 0018     		addi	s0,sp,48
 1698              		.cfi_def_cfa 8, 0
 1699 0006 232EA4FC 		sw	a0,-36(s0)
 709:../Firmware/GD32VW55x_standard_peripheral/Source/gd32vw55x_cau.c ****     FlagStatus flag = RESET;
 1700              		.loc 1 709 16
 1701 000a 232604FE 		sw	zero,-20(s0)
 710:../Firmware/GD32VW55x_standard_peripheral/Source/gd32vw55x_cau.c **** 
 711:../Firmware/GD32VW55x_standard_peripheral/Source/gd32vw55x_cau.c ****     /* check the status of the specified CAU interrupt */
 712:../Firmware/GD32VW55x_standard_peripheral/Source/gd32vw55x_cau.c ****     if(RESET != (CAU_INTF & int_flag)){
 1702              		.loc 1 712 18
 1703 000e B707064C 		li	a5,1275461632
 1704 0012 F107     		addi	a5,a5,28
 1705 0014 9843     		lw	a4,0(a5)
 1706              		.loc 1 712 27
 1707 0016 8327C4FD 		lw	a5,-36(s0)
 1708 001a F98F     		and	a5,a4,a5
 1709              		.loc 1 712 7
 1710 001c 81C7     		beq	a5,zero,.L48
 713:../Firmware/GD32VW55x_standard_peripheral/Source/gd32vw55x_cau.c ****         flag = SET;
 1711              		.loc 1 713 14
 1712 001e 8547     		li	a5,1
 1713 0020 2326F4FE 		sw	a5,-20(s0)
 1714              	.L48:
 714:../Firmware/GD32VW55x_standard_peripheral/Source/gd32vw55x_cau.c ****     }
 715:../Firmware/GD32VW55x_standard_peripheral/Source/gd32vw55x_cau.c **** 
 716:../Firmware/GD32VW55x_standard_peripheral/Source/gd32vw55x_cau.c ****     return flag;
 1715              		.loc 1 716 12
 1716 0024 8327C4FE 		lw	a5,-20(s0)
 717:../Firmware/GD32VW55x_standard_peripheral/Source/gd32vw55x_cau.c **** }
 1717              		.loc 1 717 1
 1718 0028 3E85     		mv	a0,a5
 1719 002a 3254     		lw	s0,44(sp)
 1720              		.cfi_restore 8
 1721              		.cfi_def_cfa 2, 48
 1722 002c 4561     		addi	sp,sp,48
 1723              		.cfi_def_cfa_offset 0
 1724 002e 8280     		jr	ra
 1725              		.cfi_endproc
 1726              	.LFE370:
 1728              		.text
 1729              	.Letext0:
 1730              		.file 2 "e:\\gd32\\gd32embeddedbuilder_v1.5.2.30854\\tools\\nuclei_riscv_newlibc_prebuilt_win32_20
 1731              		.file 3 "e:\\gd32\\gd32embeddedbuilder_v1.5.2.30854\\tools\\nuclei_riscv_newlibc_prebuilt_win32_20
 1732              		.file 4 "../Firmware/GD32VW55x_standard_peripheral/gd32vw55x.h"
 1733              		.file 5 "../Firmware/GD32VW55x_standard_peripheral/Include/gd32vw55x_rcu.h"
 1734              		.file 6 "../Firmware/GD32VW55x_standard_peripheral/Include/gd32vw55x_cau.h"
DEFINED SYMBOLS
                            *ABS*:0000000000000000 gd32vw55x_cau.c
C:\Users\CYMR90~1\AppData\Local\Temp\ccNy8eXk.s:13     .text.cau_deinit:0000000000000000 cau_deinit
C:\Users\CYMR90~1\AppData\Local\Temp\ccNy8eXk.s:17     .text.cau_deinit:0000000000000000 .L0 
C:\Users\CYMR90~1\AppData\Local\Temp\ccNy8eXk.s:18     .text.cau_deinit:0000000000000000 .L0 
C:\Users\CYMR90~1\AppData\Local\Temp\ccNy8eXk.s:19     .text.cau_deinit:0000000000000002 .L0 
C:\Users\CYMR90~1\AppData\Local\Temp\ccNy8eXk.s:22     .text.cau_deinit:0000000000000006 .L0 
C:\Users\CYMR90~1\AppData\Local\Temp\ccNy8eXk.s:23     .text.cau_deinit:0000000000000006 .L0 
C:\Users\CYMR90~1\AppData\Local\Temp\ccNy8eXk.s:25     .text.cau_deinit:0000000000000008 .L0 
C:\Users\CYMR90~1\AppData\Local\Temp\ccNy8eXk.s:27     .text.cau_deinit:0000000000000008 .L0 
C:\Users\CYMR90~1\AppData\Local\Temp\ccNy8eXk.s:30     .text.cau_deinit:0000000000000014 .L0 
C:\Users\CYMR90~1\AppData\Local\Temp\ccNy8eXk.s:33     .text.cau_deinit:0000000000000020 .L0 
C:\Users\CYMR90~1\AppData\Local\Temp\ccNy8eXk.s:35     .text.cau_deinit:0000000000000024 .L0 
C:\Users\CYMR90~1\AppData\Local\Temp\ccNy8eXk.s:37     .text.cau_deinit:0000000000000026 .L0 
C:\Users\CYMR90~1\AppData\Local\Temp\ccNy8eXk.s:38     .text.cau_deinit:0000000000000026 .L0 
C:\Users\CYMR90~1\AppData\Local\Temp\ccNy8eXk.s:40     .text.cau_deinit:0000000000000028 .L0 
C:\Users\CYMR90~1\AppData\Local\Temp\ccNy8eXk.s:42     .text.cau_deinit:000000000000002a .L0 
C:\Users\CYMR90~1\AppData\Local\Temp\ccNy8eXk.s:49     .text.cau_struct_para_init:0000000000000000 cau_struct_para_init
C:\Users\CYMR90~1\AppData\Local\Temp\ccNy8eXk.s:52     .text.cau_struct_para_init:0000000000000000 .L0 
C:\Users\CYMR90~1\AppData\Local\Temp\ccNy8eXk.s:53     .text.cau_struct_para_init:0000000000000000 .L0 
C:\Users\CYMR90~1\AppData\Local\Temp\ccNy8eXk.s:54     .text.cau_struct_para_init:0000000000000002 .L0 
C:\Users\CYMR90~1\AppData\Local\Temp\ccNy8eXk.s:56     .text.cau_struct_para_init:0000000000000004 .L0 
C:\Users\CYMR90~1\AppData\Local\Temp\ccNy8eXk.s:58     .text.cau_struct_para_init:0000000000000006 .L0 
C:\Users\CYMR90~1\AppData\Local\Temp\ccNy8eXk.s:61     .text.cau_struct_para_init:000000000000000a .L0 
C:\Users\CYMR90~1\AppData\Local\Temp\ccNy8eXk.s:64     .text.cau_struct_para_init:0000000000000012 .L0 
C:\Users\CYMR90~1\AppData\Local\Temp\ccNy8eXk.s:67     .text.cau_struct_para_init:000000000000001a .L0 
C:\Users\CYMR90~1\AppData\Local\Temp\ccNy8eXk.s:70     .text.cau_struct_para_init:0000000000000022 .L0 
C:\Users\CYMR90~1\AppData\Local\Temp\ccNy8eXk.s:73     .text.cau_struct_para_init:000000000000002a .L0 
C:\Users\CYMR90~1\AppData\Local\Temp\ccNy8eXk.s:76     .text.cau_struct_para_init:0000000000000032 .L0 
C:\Users\CYMR90~1\AppData\Local\Temp\ccNy8eXk.s:79     .text.cau_struct_para_init:000000000000003a .L0 
C:\Users\CYMR90~1\AppData\Local\Temp\ccNy8eXk.s:82     .text.cau_struct_para_init:0000000000000042 .L0 
C:\Users\CYMR90~1\AppData\Local\Temp\ccNy8eXk.s:85     .text.cau_struct_para_init:000000000000004a .L0 
C:\Users\CYMR90~1\AppData\Local\Temp\ccNy8eXk.s:88     .text.cau_struct_para_init:0000000000000052 .L0 
C:\Users\CYMR90~1\AppData\Local\Temp\ccNy8eXk.s:90     .text.cau_struct_para_init:0000000000000056 .L0 
C:\Users\CYMR90~1\AppData\Local\Temp\ccNy8eXk.s:91     .text.cau_struct_para_init:0000000000000056 .L0 
C:\Users\CYMR90~1\AppData\Local\Temp\ccNy8eXk.s:93     .text.cau_struct_para_init:0000000000000058 .L0 
C:\Users\CYMR90~1\AppData\Local\Temp\ccNy8eXk.s:95     .text.cau_struct_para_init:000000000000005a .L0 
C:\Users\CYMR90~1\AppData\Local\Temp\ccNy8eXk.s:102    .text.cau_key_struct_para_init:0000000000000000 cau_key_struct_para_init
C:\Users\CYMR90~1\AppData\Local\Temp\ccNy8eXk.s:105    .text.cau_key_struct_para_init:0000000000000000 .L0 
C:\Users\CYMR90~1\AppData\Local\Temp\ccNy8eXk.s:106    .text.cau_key_struct_para_init:0000000000000000 .L0 
C:\Users\CYMR90~1\AppData\Local\Temp\ccNy8eXk.s:107    .text.cau_key_struct_para_init:0000000000000002 .L0 
C:\Users\CYMR90~1\AppData\Local\Temp\ccNy8eXk.s:109    .text.cau_key_struct_para_init:0000000000000004 .L0 
C:\Users\CYMR90~1\AppData\Local\Temp\ccNy8eXk.s:111    .text.cau_key_struct_para_init:0000000000000006 .L0 
C:\Users\CYMR90~1\AppData\Local\Temp\ccNy8eXk.s:114    .text.cau_key_struct_para_init:000000000000000a .L0 
C:\Users\CYMR90~1\AppData\Local\Temp\ccNy8eXk.s:117    .text.cau_key_struct_para_init:0000000000000012 .L0 
C:\Users\CYMR90~1\AppData\Local\Temp\ccNy8eXk.s:120    .text.cau_key_struct_para_init:000000000000001a .L0 
C:\Users\CYMR90~1\AppData\Local\Temp\ccNy8eXk.s:123    .text.cau_key_struct_para_init:0000000000000022 .L0 
C:\Users\CYMR90~1\AppData\Local\Temp\ccNy8eXk.s:126    .text.cau_key_struct_para_init:000000000000002a .L0 
C:\Users\CYMR90~1\AppData\Local\Temp\ccNy8eXk.s:129    .text.cau_key_struct_para_init:0000000000000032 .L0 
C:\Users\CYMR90~1\AppData\Local\Temp\ccNy8eXk.s:132    .text.cau_key_struct_para_init:000000000000003a .L0 
C:\Users\CYMR90~1\AppData\Local\Temp\ccNy8eXk.s:135    .text.cau_key_struct_para_init:0000000000000042 .L0 
C:\Users\CYMR90~1\AppData\Local\Temp\ccNy8eXk.s:138    .text.cau_key_struct_para_init:000000000000004a .L0 
C:\Users\CYMR90~1\AppData\Local\Temp\ccNy8eXk.s:140    .text.cau_key_struct_para_init:000000000000004e .L0 
C:\Users\CYMR90~1\AppData\Local\Temp\ccNy8eXk.s:141    .text.cau_key_struct_para_init:000000000000004e .L0 
C:\Users\CYMR90~1\AppData\Local\Temp\ccNy8eXk.s:143    .text.cau_key_struct_para_init:0000000000000050 .L0 
C:\Users\CYMR90~1\AppData\Local\Temp\ccNy8eXk.s:145    .text.cau_key_struct_para_init:0000000000000052 .L0 
C:\Users\CYMR90~1\AppData\Local\Temp\ccNy8eXk.s:152    .text.cau_iv_struct_para_init:0000000000000000 cau_iv_struct_para_init
C:\Users\CYMR90~1\AppData\Local\Temp\ccNy8eXk.s:155    .text.cau_iv_struct_para_init:0000000000000000 .L0 
C:\Users\CYMR90~1\AppData\Local\Temp\ccNy8eXk.s:156    .text.cau_iv_struct_para_init:0000000000000000 .L0 
C:\Users\CYMR90~1\AppData\Local\Temp\ccNy8eXk.s:157    .text.cau_iv_struct_para_init:0000000000000002 .L0 
C:\Users\CYMR90~1\AppData\Local\Temp\ccNy8eXk.s:159    .text.cau_iv_struct_para_init:0000000000000004 .L0 
C:\Users\CYMR90~1\AppData\Local\Temp\ccNy8eXk.s:161    .text.cau_iv_struct_para_init:0000000000000006 .L0 
C:\Users\CYMR90~1\AppData\Local\Temp\ccNy8eXk.s:164    .text.cau_iv_struct_para_init:000000000000000a .L0 
C:\Users\CYMR90~1\AppData\Local\Temp\ccNy8eXk.s:167    .text.cau_iv_struct_para_init:0000000000000012 .L0 
C:\Users\CYMR90~1\AppData\Local\Temp\ccNy8eXk.s:170    .text.cau_iv_struct_para_init:000000000000001a .L0 
C:\Users\CYMR90~1\AppData\Local\Temp\ccNy8eXk.s:173    .text.cau_iv_struct_para_init:0000000000000022 .L0 
C:\Users\CYMR90~1\AppData\Local\Temp\ccNy8eXk.s:176    .text.cau_iv_struct_para_init:000000000000002a .L0 
C:\Users\CYMR90~1\AppData\Local\Temp\ccNy8eXk.s:178    .text.cau_iv_struct_para_init:000000000000002e .L0 
C:\Users\CYMR90~1\AppData\Local\Temp\ccNy8eXk.s:179    .text.cau_iv_struct_para_init:000000000000002e .L0 
C:\Users\CYMR90~1\AppData\Local\Temp\ccNy8eXk.s:181    .text.cau_iv_struct_para_init:0000000000000030 .L0 
C:\Users\CYMR90~1\AppData\Local\Temp\ccNy8eXk.s:183    .text.cau_iv_struct_para_init:0000000000000032 .L0 
C:\Users\CYMR90~1\AppData\Local\Temp\ccNy8eXk.s:190    .text.cau_context_struct_para_init:0000000000000000 cau_context_struct_para_init
C:\Users\CYMR90~1\AppData\Local\Temp\ccNy8eXk.s:193    .text.cau_context_struct_para_init:0000000000000000 .L0 
C:\Users\CYMR90~1\AppData\Local\Temp\ccNy8eXk.s:194    .text.cau_context_struct_para_init:0000000000000000 .L0 
C:\Users\CYMR90~1\AppData\Local\Temp\ccNy8eXk.s:195    .text.cau_context_struct_para_init:0000000000000002 .L0 
C:\Users\CYMR90~1\AppData\Local\Temp\ccNy8eXk.s:197    .text.cau_context_struct_para_init:0000000000000004 .L0 
C:\Users\CYMR90~1\AppData\Local\Temp\ccNy8eXk.s:199    .text.cau_context_struct_para_init:0000000000000006 .L0 
C:\Users\CYMR90~1\AppData\Local\Temp\ccNy8eXk.s:202    .text.cau_context_struct_para_init:000000000000000a .L0 
C:\Users\CYMR90~1\AppData\Local\Temp\ccNy8eXk.s:205    .text.cau_context_struct_para_init:0000000000000012 .L0 
C:\Users\CYMR90~1\AppData\Local\Temp\ccNy8eXk.s:208    .text.cau_context_struct_para_init:000000000000001a .L0 
C:\Users\CYMR90~1\AppData\Local\Temp\ccNy8eXk.s:211    .text.cau_context_struct_para_init:0000000000000022 .L0 
C:\Users\CYMR90~1\AppData\Local\Temp\ccNy8eXk.s:214    .text.cau_context_struct_para_init:000000000000002a .L0 
C:\Users\CYMR90~1\AppData\Local\Temp\ccNy8eXk.s:217    .text.cau_context_struct_para_init:0000000000000032 .L0 
C:\Users\CYMR90~1\AppData\Local\Temp\ccNy8eXk.s:220    .text.cau_context_struct_para_init:000000000000003a .L0 
C:\Users\CYMR90~1\AppData\Local\Temp\ccNy8eXk.s:223    .text.cau_context_struct_para_init:0000000000000042 .L0 
C:\Users\CYMR90~1\AppData\Local\Temp\ccNy8eXk.s:226    .text.cau_context_struct_para_init:000000000000004a .L0 
C:\Users\CYMR90~1\AppData\Local\Temp\ccNy8eXk.s:229    .text.cau_context_struct_para_init:0000000000000052 .L0 
C:\Users\CYMR90~1\AppData\Local\Temp\ccNy8eXk.s:232    .text.cau_context_struct_para_init:000000000000005a .L0 
C:\Users\CYMR90~1\AppData\Local\Temp\ccNy8eXk.s:235    .text.cau_context_struct_para_init:0000000000000062 .L0 
C:\Users\CYMR90~1\AppData\Local\Temp\ccNy8eXk.s:238    .text.cau_context_struct_para_init:000000000000006a .L0 
C:\Users\CYMR90~1\AppData\Local\Temp\ccNy8eXk.s:241    .text.cau_context_struct_para_init:0000000000000072 .L0 
C:\Users\CYMR90~1\AppData\Local\Temp\ccNy8eXk.s:244    .text.cau_context_struct_para_init:000000000000007a .L0 
C:\Users\CYMR90~1\AppData\Local\Temp\ccNy8eXk.s:247    .text.cau_context_struct_para_init:0000000000000082 .L0 
C:\Users\CYMR90~1\AppData\Local\Temp\ccNy8eXk.s:250    .text.cau_context_struct_para_init:000000000000008a .L0 
C:\Users\CYMR90~1\AppData\Local\Temp\ccNy8eXk.s:253    .text.cau_context_struct_para_init:0000000000000092 .L0 
C:\Users\CYMR90~1\AppData\Local\Temp\ccNy8eXk.s:256    .text.cau_context_struct_para_init:000000000000009a .L0 
C:\Users\CYMR90~1\AppData\Local\Temp\ccNy8eXk.s:259    .text.cau_context_struct_para_init:00000000000000a2 .L0 
C:\Users\CYMR90~1\AppData\Local\Temp\ccNy8eXk.s:262    .text.cau_context_struct_para_init:00000000000000aa .L0 
C:\Users\CYMR90~1\AppData\Local\Temp\ccNy8eXk.s:265    .text.cau_context_struct_para_init:00000000000000b2 .L0 
C:\Users\CYMR90~1\AppData\Local\Temp\ccNy8eXk.s:268    .text.cau_context_struct_para_init:00000000000000ba .L0 
C:\Users\CYMR90~1\AppData\Local\Temp\ccNy8eXk.s:271    .text.cau_context_struct_para_init:00000000000000c2 .L0 
C:\Users\CYMR90~1\AppData\Local\Temp\ccNy8eXk.s:274    .text.cau_context_struct_para_init:00000000000000ca .L0 
C:\Users\CYMR90~1\AppData\Local\Temp\ccNy8eXk.s:277    .text.cau_context_struct_para_init:00000000000000d2 .L0 
C:\Users\CYMR90~1\AppData\Local\Temp\ccNy8eXk.s:280    .text.cau_context_struct_para_init:00000000000000da .L0 
C:\Users\CYMR90~1\AppData\Local\Temp\ccNy8eXk.s:283    .text.cau_context_struct_para_init:00000000000000e2 .L0 
C:\Users\CYMR90~1\AppData\Local\Temp\ccNy8eXk.s:286    .text.cau_context_struct_para_init:00000000000000ea .L0 
C:\Users\CYMR90~1\AppData\Local\Temp\ccNy8eXk.s:289    .text.cau_context_struct_para_init:00000000000000f2 .L0 
C:\Users\CYMR90~1\AppData\Local\Temp\ccNy8eXk.s:291    .text.cau_context_struct_para_init:00000000000000f6 .L0 
C:\Users\CYMR90~1\AppData\Local\Temp\ccNy8eXk.s:292    .text.cau_context_struct_para_init:00000000000000f6 .L0 
C:\Users\CYMR90~1\AppData\Local\Temp\ccNy8eXk.s:294    .text.cau_context_struct_para_init:00000000000000f8 .L0 
C:\Users\CYMR90~1\AppData\Local\Temp\ccNy8eXk.s:296    .text.cau_context_struct_para_init:00000000000000fa .L0 
C:\Users\CYMR90~1\AppData\Local\Temp\ccNy8eXk.s:303    .text.cau_enable:0000000000000000 cau_enable
C:\Users\CYMR90~1\AppData\Local\Temp\ccNy8eXk.s:306    .text.cau_enable:0000000000000000 .L0 
C:\Users\CYMR90~1\AppData\Local\Temp\ccNy8eXk.s:307    .text.cau_enable:0000000000000000 .L0 
C:\Users\CYMR90~1\AppData\Local\Temp\ccNy8eXk.s:308    .text.cau_enable:0000000000000002 .L0 
C:\Users\CYMR90~1\AppData\Local\Temp\ccNy8eXk.s:310    .text.cau_enable:0000000000000004 .L0 
C:\Users\CYMR90~1\AppData\Local\Temp\ccNy8eXk.s:312    .text.cau_enable:0000000000000006 .L0 
C:\Users\CYMR90~1\AppData\Local\Temp\ccNy8eXk.s:314    .text.cau_enable:0000000000000006 .L0 
C:\Users\CYMR90~1\AppData\Local\Temp\ccNy8eXk.s:321    .text.cau_enable:0000000000000016 .L0 
C:\Users\CYMR90~1\AppData\Local\Temp\ccNy8eXk.s:323    .text.cau_enable:000000000000001a .L0 
C:\Users\CYMR90~1\AppData\Local\Temp\ccNy8eXk.s:324    .text.cau_enable:000000000000001a .L0 
C:\Users\CYMR90~1\AppData\Local\Temp\ccNy8eXk.s:326    .text.cau_enable:000000000000001c .L0 
C:\Users\CYMR90~1\AppData\Local\Temp\ccNy8eXk.s:328    .text.cau_enable:000000000000001e .L0 
C:\Users\CYMR90~1\AppData\Local\Temp\ccNy8eXk.s:335    .text.cau_disable:0000000000000000 cau_disable
C:\Users\CYMR90~1\AppData\Local\Temp\ccNy8eXk.s:338    .text.cau_disable:0000000000000000 .L0 
C:\Users\CYMR90~1\AppData\Local\Temp\ccNy8eXk.s:339    .text.cau_disable:0000000000000000 .L0 
C:\Users\CYMR90~1\AppData\Local\Temp\ccNy8eXk.s:340    .text.cau_disable:0000000000000002 .L0 
C:\Users\CYMR90~1\AppData\Local\Temp\ccNy8eXk.s:342    .text.cau_disable:0000000000000004 .L0 
C:\Users\CYMR90~1\AppData\Local\Temp\ccNy8eXk.s:344    .text.cau_disable:0000000000000006 .L0 
C:\Users\CYMR90~1\AppData\Local\Temp\ccNy8eXk.s:346    .text.cau_disable:0000000000000006 .L0 
C:\Users\CYMR90~1\AppData\Local\Temp\ccNy8eXk.s:354    .text.cau_disable:0000000000000018 .L0 
C:\Users\CYMR90~1\AppData\Local\Temp\ccNy8eXk.s:356    .text.cau_disable:000000000000001c .L0 
C:\Users\CYMR90~1\AppData\Local\Temp\ccNy8eXk.s:357    .text.cau_disable:000000000000001c .L0 
C:\Users\CYMR90~1\AppData\Local\Temp\ccNy8eXk.s:359    .text.cau_disable:000000000000001e .L0 
C:\Users\CYMR90~1\AppData\Local\Temp\ccNy8eXk.s:361    .text.cau_disable:0000000000000020 .L0 
C:\Users\CYMR90~1\AppData\Local\Temp\ccNy8eXk.s:368    .text.cau_dma_enable:0000000000000000 cau_dma_enable
C:\Users\CYMR90~1\AppData\Local\Temp\ccNy8eXk.s:371    .text.cau_dma_enable:0000000000000000 .L0 
C:\Users\CYMR90~1\AppData\Local\Temp\ccNy8eXk.s:372    .text.cau_dma_enable:0000000000000000 .L0 
C:\Users\CYMR90~1\AppData\Local\Temp\ccNy8eXk.s:373    .text.cau_dma_enable:0000000000000002 .L0 
C:\Users\CYMR90~1\AppData\Local\Temp\ccNy8eXk.s:375    .text.cau_dma_enable:0000000000000004 .L0 
C:\Users\CYMR90~1\AppData\Local\Temp\ccNy8eXk.s:377    .text.cau_dma_enable:0000000000000006 .L0 
C:\Users\CYMR90~1\AppData\Local\Temp\ccNy8eXk.s:380    .text.cau_dma_enable:000000000000000a .L0 
C:\Users\CYMR90~1\AppData\Local\Temp\ccNy8eXk.s:389    .text.cau_dma_enable:0000000000000020 .L0 
C:\Users\CYMR90~1\AppData\Local\Temp\ccNy8eXk.s:391    .text.cau_dma_enable:0000000000000024 .L0 
C:\Users\CYMR90~1\AppData\Local\Temp\ccNy8eXk.s:392    .text.cau_dma_enable:0000000000000024 .L0 
C:\Users\CYMR90~1\AppData\Local\Temp\ccNy8eXk.s:394    .text.cau_dma_enable:0000000000000026 .L0 
C:\Users\CYMR90~1\AppData\Local\Temp\ccNy8eXk.s:396    .text.cau_dma_enable:0000000000000028 .L0 
C:\Users\CYMR90~1\AppData\Local\Temp\ccNy8eXk.s:403    .text.cau_dma_disable:0000000000000000 cau_dma_disable
C:\Users\CYMR90~1\AppData\Local\Temp\ccNy8eXk.s:406    .text.cau_dma_disable:0000000000000000 .L0 
C:\Users\CYMR90~1\AppData\Local\Temp\ccNy8eXk.s:407    .text.cau_dma_disable:0000000000000000 .L0 
C:\Users\CYMR90~1\AppData\Local\Temp\ccNy8eXk.s:408    .text.cau_dma_disable:0000000000000002 .L0 
C:\Users\CYMR90~1\AppData\Local\Temp\ccNy8eXk.s:410    .text.cau_dma_disable:0000000000000004 .L0 
C:\Users\CYMR90~1\AppData\Local\Temp\ccNy8eXk.s:412    .text.cau_dma_disable:0000000000000006 .L0 
C:\Users\CYMR90~1\AppData\Local\Temp\ccNy8eXk.s:415    .text.cau_dma_disable:000000000000000a .L0 
C:\Users\CYMR90~1\AppData\Local\Temp\ccNy8eXk.s:419    .text.cau_dma_disable:0000000000000012 .L0 
C:\Users\CYMR90~1\AppData\Local\Temp\ccNy8eXk.s:422    .text.cau_dma_disable:000000000000001a .L0 
C:\Users\CYMR90~1\AppData\Local\Temp\ccNy8eXk.s:427    .text.cau_dma_disable:0000000000000024 .L0 
C:\Users\CYMR90~1\AppData\Local\Temp\ccNy8eXk.s:429    .text.cau_dma_disable:0000000000000028 .L0 
C:\Users\CYMR90~1\AppData\Local\Temp\ccNy8eXk.s:430    .text.cau_dma_disable:0000000000000028 .L0 
C:\Users\CYMR90~1\AppData\Local\Temp\ccNy8eXk.s:432    .text.cau_dma_disable:000000000000002a .L0 
C:\Users\CYMR90~1\AppData\Local\Temp\ccNy8eXk.s:434    .text.cau_dma_disable:000000000000002c .L0 
C:\Users\CYMR90~1\AppData\Local\Temp\ccNy8eXk.s:441    .text.cau_init:0000000000000000 cau_init
C:\Users\CYMR90~1\AppData\Local\Temp\ccNy8eXk.s:444    .text.cau_init:0000000000000000 .L0 
C:\Users\CYMR90~1\AppData\Local\Temp\ccNy8eXk.s:445    .text.cau_init:0000000000000000 .L0 
C:\Users\CYMR90~1\AppData\Local\Temp\ccNy8eXk.s:446    .text.cau_init:0000000000000002 .L0 
C:\Users\CYMR90~1\AppData\Local\Temp\ccNy8eXk.s:448    .text.cau_init:0000000000000004 .L0 
C:\Users\CYMR90~1\AppData\Local\Temp\ccNy8eXk.s:450    .text.cau_init:0000000000000006 .L0 
C:\Users\CYMR90~1\AppData\Local\Temp\ccNy8eXk.s:455    .text.cau_init:0000000000000012 .L0 
C:\Users\CYMR90~1\AppData\Local\Temp\ccNy8eXk.s:463    .text.cau_init:0000000000000028 .L0 
C:\Users\CYMR90~1\AppData\Local\Temp\ccNy8eXk.s:470    .text.cau_init:000000000000003a .L0 
C:\Users\CYMR90~1\AppData\Local\Temp\ccNy8eXk.s:476    .text.cau_init:000000000000004a .L0 
C:\Users\CYMR90~1\AppData\Local\Temp\ccNy8eXk.s:483    .text.cau_init:000000000000005c .L0 
C:\Users\CYMR90~1\AppData\Local\Temp\ccNy8eXk.s:489    .text.cau_init:000000000000006a .L0 
C:\Users\CYMR90~1\AppData\Local\Temp\ccNy8eXk.s:496    .text.cau_init:000000000000007c .L0 
C:\Users\CYMR90~1\AppData\Local\Temp\ccNy8eXk.s:498    .text.cau_init:0000000000000080 .L0 
C:\Users\CYMR90~1\AppData\Local\Temp\ccNy8eXk.s:499    .text.cau_init:0000000000000080 .L0 
C:\Users\CYMR90~1\AppData\Local\Temp\ccNy8eXk.s:501    .text.cau_init:0000000000000082 .L0 
C:\Users\CYMR90~1\AppData\Local\Temp\ccNy8eXk.s:503    .text.cau_init:0000000000000084 .L0 
C:\Users\CYMR90~1\AppData\Local\Temp\ccNy8eXk.s:510    .text.cau_aes_keysize_config:0000000000000000 cau_aes_keysize_config
C:\Users\CYMR90~1\AppData\Local\Temp\ccNy8eXk.s:513    .text.cau_aes_keysize_config:0000000000000000 .L0 
C:\Users\CYMR90~1\AppData\Local\Temp\ccNy8eXk.s:514    .text.cau_aes_keysize_config:0000000000000000 .L0 
C:\Users\CYMR90~1\AppData\Local\Temp\ccNy8eXk.s:515    .text.cau_aes_keysize_config:0000000000000002 .L0 
C:\Users\CYMR90~1\AppData\Local\Temp\ccNy8eXk.s:517    .text.cau_aes_keysize_config:0000000000000004 .L0 
C:\Users\CYMR90~1\AppData\Local\Temp\ccNy8eXk.s:519    .text.cau_aes_keysize_config:0000000000000006 .L0 
C:\Users\CYMR90~1\AppData\Local\Temp\ccNy8eXk.s:522    .text.cau_aes_keysize_config:000000000000000a .L0 
C:\Users\CYMR90~1\AppData\Local\Temp\ccNy8eXk.s:528    .text.cau_aes_keysize_config:000000000000001a .L0 
C:\Users\CYMR90~1\AppData\Local\Temp\ccNy8eXk.s:535    .text.cau_aes_keysize_config:000000000000002c .L0 
C:\Users\CYMR90~1\AppData\Local\Temp\ccNy8eXk.s:537    .text.cau_aes_keysize_config:0000000000000030 .L0 
C:\Users\CYMR90~1\AppData\Local\Temp\ccNy8eXk.s:538    .text.cau_aes_keysize_config:0000000000000030 .L0 
C:\Users\CYMR90~1\AppData\Local\Temp\ccNy8eXk.s:540    .text.cau_aes_keysize_config:0000000000000032 .L0 
C:\Users\CYMR90~1\AppData\Local\Temp\ccNy8eXk.s:542    .text.cau_aes_keysize_config:0000000000000034 .L0 
C:\Users\CYMR90~1\AppData\Local\Temp\ccNy8eXk.s:549    .text.cau_key_init:0000000000000000 cau_key_init
C:\Users\CYMR90~1\AppData\Local\Temp\ccNy8eXk.s:552    .text.cau_key_init:0000000000000000 .L0 
C:\Users\CYMR90~1\AppData\Local\Temp\ccNy8eXk.s:553    .text.cau_key_init:0000000000000000 .L0 
C:\Users\CYMR90~1\AppData\Local\Temp\ccNy8eXk.s:554    .text.cau_key_init:0000000000000002 .L0 
C:\Users\CYMR90~1\AppData\Local\Temp\ccNy8eXk.s:556    .text.cau_key_init:0000000000000004 .L0 
C:\Users\CYMR90~1\AppData\Local\Temp\ccNy8eXk.s:558    .text.cau_key_init:0000000000000006 .L0 
C:\Users\CYMR90~1\AppData\Local\Temp\ccNy8eXk.s:561    .text.cau_key_init:000000000000000a .L0 
C:\Users\CYMR90~1\AppData\Local\Temp\ccNy8eXk.s:564    .text.cau_key_init:0000000000000012 .L0 
C:\Users\CYMR90~1\AppData\Local\Temp\ccNy8eXk.s:567    .text.cau_key_init:0000000000000018 .L0 
C:\Users\CYMR90~1\AppData\Local\Temp\ccNy8eXk.s:569    .text.cau_key_init:000000000000001a .L0 
C:\Users\CYMR90~1\AppData\Local\Temp\ccNy8eXk.s:572    .text.cau_key_init:0000000000000022 .L0 
C:\Users\CYMR90~1\AppData\Local\Temp\ccNy8eXk.s:575    .text.cau_key_init:0000000000000028 .L0 
C:\Users\CYMR90~1\AppData\Local\Temp\ccNy8eXk.s:577    .text.cau_key_init:000000000000002a .L0 
C:\Users\CYMR90~1\AppData\Local\Temp\ccNy8eXk.s:580    .text.cau_key_init:0000000000000032 .L0 
C:\Users\CYMR90~1\AppData\Local\Temp\ccNy8eXk.s:583    .text.cau_key_init:0000000000000038 .L0 
C:\Users\CYMR90~1\AppData\Local\Temp\ccNy8eXk.s:585    .text.cau_key_init:000000000000003a .L0 
C:\Users\CYMR90~1\AppData\Local\Temp\ccNy8eXk.s:588    .text.cau_key_init:0000000000000042 .L0 
C:\Users\CYMR90~1\AppData\Local\Temp\ccNy8eXk.s:591    .text.cau_key_init:0000000000000048 .L0 
C:\Users\CYMR90~1\AppData\Local\Temp\ccNy8eXk.s:593    .text.cau_key_init:000000000000004a .L0 
C:\Users\CYMR90~1\AppData\Local\Temp\ccNy8eXk.s:596    .text.cau_key_init:0000000000000052 .L0 
C:\Users\CYMR90~1\AppData\Local\Temp\ccNy8eXk.s:599    .text.cau_key_init:0000000000000058 .L0 
C:\Users\CYMR90~1\AppData\Local\Temp\ccNy8eXk.s:601    .text.cau_key_init:000000000000005a .L0 
C:\Users\CYMR90~1\AppData\Local\Temp\ccNy8eXk.s:604    .text.cau_key_init:0000000000000062 .L0 
C:\Users\CYMR90~1\AppData\Local\Temp\ccNy8eXk.s:607    .text.cau_key_init:0000000000000068 .L0 
C:\Users\CYMR90~1\AppData\Local\Temp\ccNy8eXk.s:609    .text.cau_key_init:000000000000006a .L0 
C:\Users\CYMR90~1\AppData\Local\Temp\ccNy8eXk.s:612    .text.cau_key_init:0000000000000072 .L0 
C:\Users\CYMR90~1\AppData\Local\Temp\ccNy8eXk.s:615    .text.cau_key_init:0000000000000078 .L0 
C:\Users\CYMR90~1\AppData\Local\Temp\ccNy8eXk.s:617    .text.cau_key_init:000000000000007a .L0 
C:\Users\CYMR90~1\AppData\Local\Temp\ccNy8eXk.s:620    .text.cau_key_init:0000000000000082 .L0 
C:\Users\CYMR90~1\AppData\Local\Temp\ccNy8eXk.s:623    .text.cau_key_init:0000000000000088 .L0 
C:\Users\CYMR90~1\AppData\Local\Temp\ccNy8eXk.s:625    .text.cau_key_init:000000000000008a .L0 
C:\Users\CYMR90~1\AppData\Local\Temp\ccNy8eXk.s:627    .text.cau_key_init:000000000000008e .L0 
C:\Users\CYMR90~1\AppData\Local\Temp\ccNy8eXk.s:628    .text.cau_key_init:000000000000008e .L0 
C:\Users\CYMR90~1\AppData\Local\Temp\ccNy8eXk.s:630    .text.cau_key_init:0000000000000090 .L0 
C:\Users\CYMR90~1\AppData\Local\Temp\ccNy8eXk.s:632    .text.cau_key_init:0000000000000092 .L0 
C:\Users\CYMR90~1\AppData\Local\Temp\ccNy8eXk.s:639    .text.cau_iv_init:0000000000000000 cau_iv_init
C:\Users\CYMR90~1\AppData\Local\Temp\ccNy8eXk.s:642    .text.cau_iv_init:0000000000000000 .L0 
C:\Users\CYMR90~1\AppData\Local\Temp\ccNy8eXk.s:643    .text.cau_iv_init:0000000000000000 .L0 
C:\Users\CYMR90~1\AppData\Local\Temp\ccNy8eXk.s:644    .text.cau_iv_init:0000000000000002 .L0 
C:\Users\CYMR90~1\AppData\Local\Temp\ccNy8eXk.s:646    .text.cau_iv_init:0000000000000004 .L0 
C:\Users\CYMR90~1\AppData\Local\Temp\ccNy8eXk.s:648    .text.cau_iv_init:0000000000000006 .L0 
C:\Users\CYMR90~1\AppData\Local\Temp\ccNy8eXk.s:651    .text.cau_iv_init:000000000000000a .L0 
C:\Users\CYMR90~1\AppData\Local\Temp\ccNy8eXk.s:654    .text.cau_iv_init:0000000000000012 .L0 
C:\Users\CYMR90~1\AppData\Local\Temp\ccNy8eXk.s:657    .text.cau_iv_init:0000000000000018 .L0 
C:\Users\CYMR90~1\AppData\Local\Temp\ccNy8eXk.s:659    .text.cau_iv_init:000000000000001a .L0 
C:\Users\CYMR90~1\AppData\Local\Temp\ccNy8eXk.s:662    .text.cau_iv_init:0000000000000022 .L0 
C:\Users\CYMR90~1\AppData\Local\Temp\ccNy8eXk.s:665    .text.cau_iv_init:0000000000000028 .L0 
C:\Users\CYMR90~1\AppData\Local\Temp\ccNy8eXk.s:667    .text.cau_iv_init:000000000000002a .L0 
C:\Users\CYMR90~1\AppData\Local\Temp\ccNy8eXk.s:670    .text.cau_iv_init:0000000000000032 .L0 
C:\Users\CYMR90~1\AppData\Local\Temp\ccNy8eXk.s:673    .text.cau_iv_init:0000000000000038 .L0 
C:\Users\CYMR90~1\AppData\Local\Temp\ccNy8eXk.s:675    .text.cau_iv_init:000000000000003a .L0 
C:\Users\CYMR90~1\AppData\Local\Temp\ccNy8eXk.s:678    .text.cau_iv_init:0000000000000042 .L0 
C:\Users\CYMR90~1\AppData\Local\Temp\ccNy8eXk.s:681    .text.cau_iv_init:0000000000000048 .L0 
C:\Users\CYMR90~1\AppData\Local\Temp\ccNy8eXk.s:683    .text.cau_iv_init:000000000000004a .L0 
C:\Users\CYMR90~1\AppData\Local\Temp\ccNy8eXk.s:685    .text.cau_iv_init:000000000000004e .L0 
C:\Users\CYMR90~1\AppData\Local\Temp\ccNy8eXk.s:686    .text.cau_iv_init:000000000000004e .L0 
C:\Users\CYMR90~1\AppData\Local\Temp\ccNy8eXk.s:688    .text.cau_iv_init:0000000000000050 .L0 
C:\Users\CYMR90~1\AppData\Local\Temp\ccNy8eXk.s:690    .text.cau_iv_init:0000000000000052 .L0 
C:\Users\CYMR90~1\AppData\Local\Temp\ccNy8eXk.s:697    .text.cau_phase_config:0000000000000000 cau_phase_config
C:\Users\CYMR90~1\AppData\Local\Temp\ccNy8eXk.s:700    .text.cau_phase_config:0000000000000000 .L0 
C:\Users\CYMR90~1\AppData\Local\Temp\ccNy8eXk.s:701    .text.cau_phase_config:0000000000000000 .L0 
C:\Users\CYMR90~1\AppData\Local\Temp\ccNy8eXk.s:702    .text.cau_phase_config:0000000000000002 .L0 
C:\Users\CYMR90~1\AppData\Local\Temp\ccNy8eXk.s:704    .text.cau_phase_config:0000000000000004 .L0 
C:\Users\CYMR90~1\AppData\Local\Temp\ccNy8eXk.s:706    .text.cau_phase_config:0000000000000006 .L0 
C:\Users\CYMR90~1\AppData\Local\Temp\ccNy8eXk.s:709    .text.cau_phase_config:000000000000000a .L0 
C:\Users\CYMR90~1\AppData\Local\Temp\ccNy8eXk.s:711    .text.cau_phase_config:000000000000000e .L0 
C:\Users\CYMR90~1\AppData\Local\Temp\ccNy8eXk.s:714    .text.cau_phase_config:0000000000000014 .L0 
C:\Users\CYMR90~1\AppData\Local\Temp\ccNy8eXk.s:720    .text.cau_phase_config:0000000000000024 .L0 
C:\Users\CYMR90~1\AppData\Local\Temp\ccNy8eXk.s:725    .text.cau_phase_config:0000000000000032 .L0 
C:\Users\CYMR90~1\AppData\Local\Temp\ccNy8eXk.s:727    .text.cau_phase_config:0000000000000036 .L0 
C:\Users\CYMR90~1\AppData\Local\Temp\ccNy8eXk.s:730    .text.cau_phase_config:000000000000003c .L0 
C:\Users\CYMR90~1\AppData\Local\Temp\ccNy8eXk.s:732    .text.cau_phase_config:0000000000000040 .L0 
C:\Users\CYMR90~1\AppData\Local\Temp\ccNy8eXk.s:733    .text.cau_phase_config:0000000000000040 .L0 
C:\Users\CYMR90~1\AppData\Local\Temp\ccNy8eXk.s:735    .text.cau_phase_config:0000000000000042 .L0 
C:\Users\CYMR90~1\AppData\Local\Temp\ccNy8eXk.s:737    .text.cau_phase_config:0000000000000044 .L0 
C:\Users\CYMR90~1\AppData\Local\Temp\ccNy8eXk.s:744    .text.cau_fifo_flush:0000000000000000 cau_fifo_flush
C:\Users\CYMR90~1\AppData\Local\Temp\ccNy8eXk.s:747    .text.cau_fifo_flush:0000000000000000 .L0 
C:\Users\CYMR90~1\AppData\Local\Temp\ccNy8eXk.s:748    .text.cau_fifo_flush:0000000000000000 .L0 
C:\Users\CYMR90~1\AppData\Local\Temp\ccNy8eXk.s:749    .text.cau_fifo_flush:0000000000000002 .L0 
C:\Users\CYMR90~1\AppData\Local\Temp\ccNy8eXk.s:751    .text.cau_fifo_flush:0000000000000004 .L0 
C:\Users\CYMR90~1\AppData\Local\Temp\ccNy8eXk.s:753    .text.cau_fifo_flush:0000000000000006 .L0 
C:\Users\CYMR90~1\AppData\Local\Temp\ccNy8eXk.s:755    .text.cau_fifo_flush:0000000000000006 .L0 
C:\Users\CYMR90~1\AppData\Local\Temp\ccNy8eXk.s:762    .text.cau_fifo_flush:0000000000000016 .L0 
C:\Users\CYMR90~1\AppData\Local\Temp\ccNy8eXk.s:764    .text.cau_fifo_flush:000000000000001a .L0 
C:\Users\CYMR90~1\AppData\Local\Temp\ccNy8eXk.s:765    .text.cau_fifo_flush:000000000000001a .L0 
C:\Users\CYMR90~1\AppData\Local\Temp\ccNy8eXk.s:767    .text.cau_fifo_flush:000000000000001c .L0 
C:\Users\CYMR90~1\AppData\Local\Temp\ccNy8eXk.s:769    .text.cau_fifo_flush:000000000000001e .L0 
C:\Users\CYMR90~1\AppData\Local\Temp\ccNy8eXk.s:776    .text.cau_enable_state_get:0000000000000000 cau_enable_state_get
C:\Users\CYMR90~1\AppData\Local\Temp\ccNy8eXk.s:779    .text.cau_enable_state_get:0000000000000000 .L0 
C:\Users\CYMR90~1\AppData\Local\Temp\ccNy8eXk.s:780    .text.cau_enable_state_get:0000000000000000 .L0 
C:\Users\CYMR90~1\AppData\Local\Temp\ccNy8eXk.s:781    .text.cau_enable_state_get:0000000000000002 .L0 
C:\Users\CYMR90~1\AppData\Local\Temp\ccNy8eXk.s:783    .text.cau_enable_state_get:0000000000000004 .L0 
C:\Users\CYMR90~1\AppData\Local\Temp\ccNy8eXk.s:785    .text.cau_enable_state_get:0000000000000006 .L0 
C:\Users\CYMR90~1\AppData\Local\Temp\ccNy8eXk.s:787    .text.cau_enable_state_get:0000000000000006 .L0 
C:\Users\CYMR90~1\AppData\Local\Temp\ccNy8eXk.s:789    .text.cau_enable_state_get:000000000000000a .L0 
C:\Users\CYMR90~1\AppData\Local\Temp\ccNy8eXk.s:792    .text.cau_enable_state_get:0000000000000010 .L0 
C:\Users\CYMR90~1\AppData\Local\Temp\ccNy8eXk.s:795    .text.cau_enable_state_get:0000000000000014 .L0 
C:\Users\CYMR90~1\AppData\Local\Temp\ccNy8eXk.s:797    .text.cau_enable_state_get:0000000000000016 .L0 
C:\Users\CYMR90~1\AppData\Local\Temp\ccNy8eXk.s:801    .text.cau_enable_state_get:000000000000001c .L0 
C:\Users\CYMR90~1\AppData\Local\Temp\ccNy8eXk.s:803    .text.cau_enable_state_get:0000000000000020 .L0 
C:\Users\CYMR90~1\AppData\Local\Temp\ccNy8eXk.s:805    .text.cau_enable_state_get:0000000000000024 .L0 
C:\Users\CYMR90~1\AppData\Local\Temp\ccNy8eXk.s:806    .text.cau_enable_state_get:0000000000000024 .L0 
C:\Users\CYMR90~1\AppData\Local\Temp\ccNy8eXk.s:808    .text.cau_enable_state_get:0000000000000026 .L0 
C:\Users\CYMR90~1\AppData\Local\Temp\ccNy8eXk.s:810    .text.cau_enable_state_get:0000000000000028 .L0 
C:\Users\CYMR90~1\AppData\Local\Temp\ccNy8eXk.s:817    .text.cau_data_write:0000000000000000 cau_data_write
C:\Users\CYMR90~1\AppData\Local\Temp\ccNy8eXk.s:820    .text.cau_data_write:0000000000000000 .L0 
C:\Users\CYMR90~1\AppData\Local\Temp\ccNy8eXk.s:821    .text.cau_data_write:0000000000000000 .L0 
C:\Users\CYMR90~1\AppData\Local\Temp\ccNy8eXk.s:822    .text.cau_data_write:0000000000000002 .L0 
C:\Users\CYMR90~1\AppData\Local\Temp\ccNy8eXk.s:824    .text.cau_data_write:0000000000000004 .L0 
C:\Users\CYMR90~1\AppData\Local\Temp\ccNy8eXk.s:826    .text.cau_data_write:0000000000000006 .L0 
C:\Users\CYMR90~1\AppData\Local\Temp\ccNy8eXk.s:829    .text.cau_data_write:000000000000000a .L0 
C:\Users\CYMR90~1\AppData\Local\Temp\ccNy8eXk.s:832    .text.cau_data_write:0000000000000010 .L0 
C:\Users\CYMR90~1\AppData\Local\Temp\ccNy8eXk.s:835    .text.cau_data_write:0000000000000016 .L0 
C:\Users\CYMR90~1\AppData\Local\Temp\ccNy8eXk.s:837    .text.cau_data_write:000000000000001a .L0 
C:\Users\CYMR90~1\AppData\Local\Temp\ccNy8eXk.s:838    .text.cau_data_write:000000000000001a .L0 
C:\Users\CYMR90~1\AppData\Local\Temp\ccNy8eXk.s:840    .text.cau_data_write:000000000000001c .L0 
C:\Users\CYMR90~1\AppData\Local\Temp\ccNy8eXk.s:842    .text.cau_data_write:000000000000001e .L0 
C:\Users\CYMR90~1\AppData\Local\Temp\ccNy8eXk.s:849    .text.cau_data_read:0000000000000000 cau_data_read
C:\Users\CYMR90~1\AppData\Local\Temp\ccNy8eXk.s:852    .text.cau_data_read:0000000000000000 .L0 
C:\Users\CYMR90~1\AppData\Local\Temp\ccNy8eXk.s:853    .text.cau_data_read:0000000000000000 .L0 
C:\Users\CYMR90~1\AppData\Local\Temp\ccNy8eXk.s:854    .text.cau_data_read:0000000000000002 .L0 
C:\Users\CYMR90~1\AppData\Local\Temp\ccNy8eXk.s:856    .text.cau_data_read:0000000000000004 .L0 
C:\Users\CYMR90~1\AppData\Local\Temp\ccNy8eXk.s:858    .text.cau_data_read:0000000000000006 .L0 
C:\Users\CYMR90~1\AppData\Local\Temp\ccNy8eXk.s:860    .text.cau_data_read:0000000000000006 .L0 
C:\Users\CYMR90~1\AppData\Local\Temp\ccNy8eXk.s:864    .text.cau_data_read:000000000000000e .L0 
C:\Users\CYMR90~1\AppData\Local\Temp\ccNy8eXk.s:866    .text.cau_data_read:0000000000000012 .L0 
C:\Users\CYMR90~1\AppData\Local\Temp\ccNy8eXk.s:867    .text.cau_data_read:0000000000000012 .L0 
C:\Users\CYMR90~1\AppData\Local\Temp\ccNy8eXk.s:869    .text.cau_data_read:0000000000000014 .L0 
C:\Users\CYMR90~1\AppData\Local\Temp\ccNy8eXk.s:871    .text.cau_data_read:0000000000000016 .L0 
C:\Users\CYMR90~1\AppData\Local\Temp\ccNy8eXk.s:878    .text.cau_context_save:0000000000000000 cau_context_save
C:\Users\CYMR90~1\AppData\Local\Temp\ccNy8eXk.s:881    .text.cau_context_save:0000000000000000 .L0 
C:\Users\CYMR90~1\AppData\Local\Temp\ccNy8eXk.s:882    .text.cau_context_save:0000000000000000 .L0 
C:\Users\CYMR90~1\AppData\Local\Temp\ccNy8eXk.s:883    .text.cau_context_save:0000000000000002 .L0 
C:\Users\CYMR90~1\AppData\Local\Temp\ccNy8eXk.s:885    .text.cau_context_save:0000000000000004 .L0 
C:\Users\CYMR90~1\AppData\Local\Temp\ccNy8eXk.s:887    .text.cau_context_save:0000000000000006 .L0 
C:\Users\CYMR90~1\AppData\Local\Temp\ccNy8eXk.s:891    .text.cau_context_save:000000000000000e .L0 
C:\Users\CYMR90~1\AppData\Local\Temp\ccNy8eXk.s:893    .text.cau_context_save:0000000000000012 .L0 
C:\Users\CYMR90~1\AppData\Local\Temp\ccNy8eXk.s:895    .text.cau_context_save:0000000000000016 .L0 
C:\Users\CYMR90~1\AppData\Local\Temp\ccNy8eXk.s:897    .text.cau_context_save:000000000000001a .L0 
C:\Users\CYMR90~1\AppData\Local\Temp\ccNy8eXk.s:905    .text.cau_context_save:000000000000002c .L0 
C:\Users\CYMR90~1\AppData\Local\Temp\ccNy8eXk.s:908    .text.cau_context_save:0000000000000032 .L0 
C:\Users\CYMR90~1\AppData\Local\Temp\ccNy8eXk.s:913    .text.cau_context_save:0000000000000040 .L0 
C:\Users\CYMR90~1\AppData\Local\Temp\ccNy8eXk.s:916    .text.cau_context_save:0000000000000046 .L0 
C:\Users\CYMR90~1\AppData\Local\Temp\ccNy8eXk.s:918    .text.cau_context_save:0000000000000048 .L0 
C:\Users\CYMR90~1\AppData\Local\Temp\ccNy8eXk.s:921    .text.cau_context_save:000000000000004e .L0 
C:\Users\CYMR90~1\AppData\Local\Temp\ccNy8eXk.s:926    .text.cau_context_save:0000000000000056 .L0 
C:\Users\CYMR90~1\AppData\Local\Temp\ccNy8eXk.s:928    .text.cau_context_save:000000000000005a .L0 
C:\Users\CYMR90~1\AppData\Local\Temp\ccNy8eXk.s:932    .text.cau_context_save:0000000000000060 .L0 
C:\Users\CYMR90~1\AppData\Local\Temp\ccNy8eXk.s:935    .text.cau_context_save:0000000000000062 .L0 
C:\Users\CYMR90~1\AppData\Local\Temp\ccNy8eXk.s:939    .text.cau_context_save:000000000000006a .L0 
C:\Users\CYMR90~1\AppData\Local\Temp\ccNy8eXk.s:942    .text.cau_context_save:0000000000000070 .L0 
C:\Users\CYMR90~1\AppData\Local\Temp\ccNy8eXk.s:945    .text.cau_context_save:0000000000000078 .L0 
C:\Users\CYMR90~1\AppData\Local\Temp\ccNy8eXk.s:953    .text.cau_context_save:000000000000008a .L0 
C:\Users\CYMR90~1\AppData\Local\Temp\ccNy8eXk.s:961    .text.cau_context_save:000000000000009c .L0 
C:\Users\CYMR90~1\AppData\Local\Temp\ccNy8eXk.s:964    .text.cau_context_save:00000000000000a2 .L0 
C:\Users\CYMR90~1\AppData\Local\Temp\ccNy8eXk.s:968    .text.cau_context_save:00000000000000ac .L0 
C:\Users\CYMR90~1\AppData\Local\Temp\ccNy8eXk.s:971    .text.cau_context_save:00000000000000b2 .L0 
C:\Users\CYMR90~1\AppData\Local\Temp\ccNy8eXk.s:974    .text.cau_context_save:00000000000000b8 .L0 
C:\Users\CYMR90~1\AppData\Local\Temp\ccNy8eXk.s:977    .text.cau_context_save:00000000000000be .L0 
C:\Users\CYMR90~1\AppData\Local\Temp\ccNy8eXk.s:980    .text.cau_context_save:00000000000000c4 .L0 
C:\Users\CYMR90~1\AppData\Local\Temp\ccNy8eXk.s:983    .text.cau_context_save:00000000000000ca .L0 
C:\Users\CYMR90~1\AppData\Local\Temp\ccNy8eXk.s:986    .text.cau_context_save:00000000000000d0 .L0 
C:\Users\CYMR90~1\AppData\Local\Temp\ccNy8eXk.s:989    .text.cau_context_save:00000000000000d6 .L0 
C:\Users\CYMR90~1\AppData\Local\Temp\ccNy8eXk.s:992    .text.cau_context_save:00000000000000dc .L0 
C:\Users\CYMR90~1\AppData\Local\Temp\ccNy8eXk.s:995    .text.cau_context_save:00000000000000e2 .L0 
C:\Users\CYMR90~1\AppData\Local\Temp\ccNy8eXk.s:998    .text.cau_context_save:00000000000000e8 .L0 
C:\Users\CYMR90~1\AppData\Local\Temp\ccNy8eXk.s:1001   .text.cau_context_save:00000000000000ee .L0 
C:\Users\CYMR90~1\AppData\Local\Temp\ccNy8eXk.s:1004   .text.cau_context_save:00000000000000f4 .L0 
C:\Users\CYMR90~1\AppData\Local\Temp\ccNy8eXk.s:1007   .text.cau_context_save:00000000000000fa .L0 
C:\Users\CYMR90~1\AppData\Local\Temp\ccNy8eXk.s:1010   .text.cau_context_save:0000000000000100 .L0 
C:\Users\CYMR90~1\AppData\Local\Temp\ccNy8eXk.s:1013   .text.cau_context_save:0000000000000106 .L0 
C:\Users\CYMR90~1\AppData\Local\Temp\ccNy8eXk.s:1016   .text.cau_context_save:000000000000010c .L0 
C:\Users\CYMR90~1\AppData\Local\Temp\ccNy8eXk.s:1019   .text.cau_context_save:0000000000000112 .L0 
C:\Users\CYMR90~1\AppData\Local\Temp\ccNy8eXk.s:1022   .text.cau_context_save:0000000000000118 .L0 
C:\Users\CYMR90~1\AppData\Local\Temp\ccNy8eXk.s:1026   .text.cau_context_save:0000000000000122 .L0 
C:\Users\CYMR90~1\AppData\Local\Temp\ccNy8eXk.s:1030   .text.cau_context_save:000000000000012e .L0 
C:\Users\CYMR90~1\AppData\Local\Temp\ccNy8eXk.s:1034   .text.cau_context_save:0000000000000138 .L0 
C:\Users\CYMR90~1\AppData\Local\Temp\ccNy8eXk.s:1037   .text.cau_context_save:000000000000013e .L0 
C:\Users\CYMR90~1\AppData\Local\Temp\ccNy8eXk.s:1041   .text.cau_context_save:0000000000000148 .L0 
C:\Users\CYMR90~1\AppData\Local\Temp\ccNy8eXk.s:1044   .text.cau_context_save:000000000000014e .L0 
C:\Users\CYMR90~1\AppData\Local\Temp\ccNy8eXk.s:1048   .text.cau_context_save:0000000000000158 .L0 
C:\Users\CYMR90~1\AppData\Local\Temp\ccNy8eXk.s:1051   .text.cau_context_save:000000000000015e .L0 
C:\Users\CYMR90~1\AppData\Local\Temp\ccNy8eXk.s:1055   .text.cau_context_save:0000000000000168 .L0 
C:\Users\CYMR90~1\AppData\Local\Temp\ccNy8eXk.s:1059   .text.cau_context_save:000000000000016e .L0 
C:\Users\CYMR90~1\AppData\Local\Temp\ccNy8eXk.s:1063   .text.cau_context_save:000000000000017a .L0 
C:\Users\CYMR90~1\AppData\Local\Temp\ccNy8eXk.s:1069   .text.cau_context_save:0000000000000188 .L0 
C:\Users\CYMR90~1\AppData\Local\Temp\ccNy8eXk.s:1073   .text.cau_context_save:0000000000000192 .L0 
C:\Users\CYMR90~1\AppData\Local\Temp\ccNy8eXk.s:1076   .text.cau_context_save:0000000000000198 .L0 
C:\Users\CYMR90~1\AppData\Local\Temp\ccNy8eXk.s:1080   .text.cau_context_save:00000000000001a2 .L0 
C:\Users\CYMR90~1\AppData\Local\Temp\ccNy8eXk.s:1083   .text.cau_context_save:00000000000001a8 .L0 
C:\Users\CYMR90~1\AppData\Local\Temp\ccNy8eXk.s:1087   .text.cau_context_save:00000000000001b2 .L0 
C:\Users\CYMR90~1\AppData\Local\Temp\ccNy8eXk.s:1090   .text.cau_context_save:00000000000001b8 .L0 
C:\Users\CYMR90~1\AppData\Local\Temp\ccNy8eXk.s:1094   .text.cau_context_save:00000000000001c2 .L0 
C:\Users\CYMR90~1\AppData\Local\Temp\ccNy8eXk.s:1097   .text.cau_context_save:00000000000001c8 .L0 
C:\Users\CYMR90~1\AppData\Local\Temp\ccNy8eXk.s:1101   .text.cau_context_save:00000000000001d2 .L0 
C:\Users\CYMR90~1\AppData\Local\Temp\ccNy8eXk.s:1104   .text.cau_context_save:00000000000001d8 .L0 
C:\Users\CYMR90~1\AppData\Local\Temp\ccNy8eXk.s:1108   .text.cau_context_save:00000000000001e2 .L0 
C:\Users\CYMR90~1\AppData\Local\Temp\ccNy8eXk.s:1111   .text.cau_context_save:00000000000001e8 .L0 
C:\Users\CYMR90~1\AppData\Local\Temp\ccNy8eXk.s:1115   .text.cau_context_save:00000000000001f2 .L0 
C:\Users\CYMR90~1\AppData\Local\Temp\ccNy8eXk.s:1118   .text.cau_context_save:00000000000001f8 .L0 
C:\Users\CYMR90~1\AppData\Local\Temp\ccNy8eXk.s:1122   .text.cau_context_save:0000000000000202 .L0 
C:\Users\CYMR90~1\AppData\Local\Temp\ccNy8eXk.s:1126   .text.cau_context_save:0000000000000208 .L0 
C:\Users\CYMR90~1\AppData\Local\Temp\ccNy8eXk.s:1130   .text.cau_context_save:0000000000000214 .L0 
C:\Users\CYMR90~1\AppData\Local\Temp\ccNy8eXk.s:1134   .text.cau_context_save:000000000000021e .L0 
C:\Users\CYMR90~1\AppData\Local\Temp\ccNy8eXk.s:1137   .text.cau_context_save:0000000000000224 .L0 
C:\Users\CYMR90~1\AppData\Local\Temp\ccNy8eXk.s:1141   .text.cau_context_save:000000000000022e .L0 
C:\Users\CYMR90~1\AppData\Local\Temp\ccNy8eXk.s:1144   .text.cau_context_save:0000000000000234 .L0 
C:\Users\CYMR90~1\AppData\Local\Temp\ccNy8eXk.s:1148   .text.cau_context_save:000000000000023e .L0 
C:\Users\CYMR90~1\AppData\Local\Temp\ccNy8eXk.s:1151   .text.cau_context_save:0000000000000244 .L0 
C:\Users\CYMR90~1\AppData\Local\Temp\ccNy8eXk.s:1155   .text.cau_context_save:000000000000024e .L0 
C:\Users\CYMR90~1\AppData\Local\Temp\ccNy8eXk.s:1158   .text.cau_context_save:0000000000000254 .L0 
C:\Users\CYMR90~1\AppData\Local\Temp\ccNy8eXk.s:1162   .text.cau_context_save:000000000000025e .L0 
C:\Users\CYMR90~1\AppData\Local\Temp\ccNy8eXk.s:1165   .text.cau_context_save:0000000000000264 .L0 
C:\Users\CYMR90~1\AppData\Local\Temp\ccNy8eXk.s:1169   .text.cau_context_save:000000000000026e .L0 
C:\Users\CYMR90~1\AppData\Local\Temp\ccNy8eXk.s:1172   .text.cau_context_save:0000000000000274 .L0 
C:\Users\CYMR90~1\AppData\Local\Temp\ccNy8eXk.s:1176   .text.cau_context_save:000000000000027e .L0 
C:\Users\CYMR90~1\AppData\Local\Temp\ccNy8eXk.s:1179   .text.cau_context_save:0000000000000284 .L0 
C:\Users\CYMR90~1\AppData\Local\Temp\ccNy8eXk.s:1183   .text.cau_context_save:000000000000028e .L0 
C:\Users\CYMR90~1\AppData\Local\Temp\ccNy8eXk.s:1187   .text.cau_context_save:0000000000000294 .L0 
C:\Users\CYMR90~1\AppData\Local\Temp\ccNy8eXk.s:1189   .text.cau_context_save:0000000000000298 .L0 
C:\Users\CYMR90~1\AppData\Local\Temp\ccNy8eXk.s:1190   .text.cau_context_save:0000000000000298 .L0 
C:\Users\CYMR90~1\AppData\Local\Temp\ccNy8eXk.s:1192   .text.cau_context_save:000000000000029a .L0 
C:\Users\CYMR90~1\AppData\Local\Temp\ccNy8eXk.s:1194   .text.cau_context_save:000000000000029c .L0 
C:\Users\CYMR90~1\AppData\Local\Temp\ccNy8eXk.s:1201   .text.cau_context_restore:0000000000000000 cau_context_restore
C:\Users\CYMR90~1\AppData\Local\Temp\ccNy8eXk.s:1204   .text.cau_context_restore:0000000000000000 .L0 
C:\Users\CYMR90~1\AppData\Local\Temp\ccNy8eXk.s:1205   .text.cau_context_restore:0000000000000000 .L0 
C:\Users\CYMR90~1\AppData\Local\Temp\ccNy8eXk.s:1206   .text.cau_context_restore:0000000000000002 .L0 
C:\Users\CYMR90~1\AppData\Local\Temp\ccNy8eXk.s:1209   .text.cau_context_restore:0000000000000006 .L0 
C:\Users\CYMR90~1\AppData\Local\Temp\ccNy8eXk.s:1210   .text.cau_context_restore:0000000000000006 .L0 
C:\Users\CYMR90~1\AppData\Local\Temp\ccNy8eXk.s:1212   .text.cau_context_restore:0000000000000008 .L0 
C:\Users\CYMR90~1\AppData\Local\Temp\ccNy8eXk.s:1215   .text.cau_context_restore:000000000000000c .L0 
C:\Users\CYMR90~1\AppData\Local\Temp\ccNy8eXk.s:1217   .text.cau_context_restore:0000000000000010 .L0 
C:\Users\CYMR90~1\AppData\Local\Temp\ccNy8eXk.s:1220   .text.cau_context_restore:0000000000000016 .L0 
C:\Users\CYMR90~1\AppData\Local\Temp\ccNy8eXk.s:1222   .text.cau_context_restore:0000000000000018 .L0 
C:\Users\CYMR90~1\AppData\Local\Temp\ccNy8eXk.s:1225   .text.cau_context_restore:000000000000001e .L0 
C:\Users\CYMR90~1\AppData\Local\Temp\ccNy8eXk.s:1230   .text.cau_context_restore:000000000000002c .L0 
C:\Users\CYMR90~1\AppData\Local\Temp\ccNy8eXk.s:1233   .text.cau_context_restore:0000000000000034 .L0 
C:\Users\CYMR90~1\AppData\Local\Temp\ccNy8eXk.s:1236   .text.cau_context_restore:000000000000003a .L0 
C:\Users\CYMR90~1\AppData\Local\Temp\ccNy8eXk.s:1238   .text.cau_context_restore:000000000000003c .L0 
C:\Users\CYMR90~1\AppData\Local\Temp\ccNy8eXk.s:1241   .text.cau_context_restore:0000000000000044 .L0 
C:\Users\CYMR90~1\AppData\Local\Temp\ccNy8eXk.s:1244   .text.cau_context_restore:000000000000004a .L0 
C:\Users\CYMR90~1\AppData\Local\Temp\ccNy8eXk.s:1246   .text.cau_context_restore:000000000000004c .L0 
C:\Users\CYMR90~1\AppData\Local\Temp\ccNy8eXk.s:1249   .text.cau_context_restore:0000000000000054 .L0 
C:\Users\CYMR90~1\AppData\Local\Temp\ccNy8eXk.s:1252   .text.cau_context_restore:000000000000005a .L0 
C:\Users\CYMR90~1\AppData\Local\Temp\ccNy8eXk.s:1254   .text.cau_context_restore:000000000000005c .L0 
C:\Users\CYMR90~1\AppData\Local\Temp\ccNy8eXk.s:1257   .text.cau_context_restore:0000000000000064 .L0 
C:\Users\CYMR90~1\AppData\Local\Temp\ccNy8eXk.s:1260   .text.cau_context_restore:000000000000006a .L0 
C:\Users\CYMR90~1\AppData\Local\Temp\ccNy8eXk.s:1262   .text.cau_context_restore:000000000000006c .L0 
C:\Users\CYMR90~1\AppData\Local\Temp\ccNy8eXk.s:1265   .text.cau_context_restore:0000000000000074 .L0 
C:\Users\CYMR90~1\AppData\Local\Temp\ccNy8eXk.s:1268   .text.cau_context_restore:000000000000007a .L0 
C:\Users\CYMR90~1\AppData\Local\Temp\ccNy8eXk.s:1270   .text.cau_context_restore:000000000000007c .L0 
C:\Users\CYMR90~1\AppData\Local\Temp\ccNy8eXk.s:1273   .text.cau_context_restore:0000000000000084 .L0 
C:\Users\CYMR90~1\AppData\Local\Temp\ccNy8eXk.s:1276   .text.cau_context_restore:000000000000008a .L0 
C:\Users\CYMR90~1\AppData\Local\Temp\ccNy8eXk.s:1278   .text.cau_context_restore:000000000000008c .L0 
C:\Users\CYMR90~1\AppData\Local\Temp\ccNy8eXk.s:1281   .text.cau_context_restore:0000000000000094 .L0 
C:\Users\CYMR90~1\AppData\Local\Temp\ccNy8eXk.s:1284   .text.cau_context_restore:000000000000009a .L0 
C:\Users\CYMR90~1\AppData\Local\Temp\ccNy8eXk.s:1286   .text.cau_context_restore:000000000000009c .L0 
C:\Users\CYMR90~1\AppData\Local\Temp\ccNy8eXk.s:1289   .text.cau_context_restore:00000000000000a4 .L0 
C:\Users\CYMR90~1\AppData\Local\Temp\ccNy8eXk.s:1292   .text.cau_context_restore:00000000000000aa .L0 
C:\Users\CYMR90~1\AppData\Local\Temp\ccNy8eXk.s:1294   .text.cau_context_restore:00000000000000ac .L0 
C:\Users\CYMR90~1\AppData\Local\Temp\ccNy8eXk.s:1297   .text.cau_context_restore:00000000000000b2 .L0 
C:\Users\CYMR90~1\AppData\Local\Temp\ccNy8eXk.s:1301   .text.cau_context_restore:00000000000000bc .L0 
C:\Users\CYMR90~1\AppData\Local\Temp\ccNy8eXk.s:1305   .text.cau_context_restore:00000000000000c8 .L0 
C:\Users\CYMR90~1\AppData\Local\Temp\ccNy8eXk.s:1308   .text.cau_context_restore:00000000000000d0 .L0 
C:\Users\CYMR90~1\AppData\Local\Temp\ccNy8eXk.s:1311   .text.cau_context_restore:00000000000000d6 .L0 
C:\Users\CYMR90~1\AppData\Local\Temp\ccNy8eXk.s:1313   .text.cau_context_restore:00000000000000d8 .L0 
C:\Users\CYMR90~1\AppData\Local\Temp\ccNy8eXk.s:1316   .text.cau_context_restore:00000000000000e0 .L0 
C:\Users\CYMR90~1\AppData\Local\Temp\ccNy8eXk.s:1319   .text.cau_context_restore:00000000000000e6 .L0 
C:\Users\CYMR90~1\AppData\Local\Temp\ccNy8eXk.s:1321   .text.cau_context_restore:00000000000000e8 .L0 
C:\Users\CYMR90~1\AppData\Local\Temp\ccNy8eXk.s:1324   .text.cau_context_restore:00000000000000f0 .L0 
C:\Users\CYMR90~1\AppData\Local\Temp\ccNy8eXk.s:1327   .text.cau_context_restore:00000000000000f6 .L0 
C:\Users\CYMR90~1\AppData\Local\Temp\ccNy8eXk.s:1329   .text.cau_context_restore:00000000000000f8 .L0 
C:\Users\CYMR90~1\AppData\Local\Temp\ccNy8eXk.s:1332   .text.cau_context_restore:0000000000000100 .L0 
C:\Users\CYMR90~1\AppData\Local\Temp\ccNy8eXk.s:1335   .text.cau_context_restore:0000000000000106 .L0 
C:\Users\CYMR90~1\AppData\Local\Temp\ccNy8eXk.s:1338   .text.cau_context_restore:0000000000000108 .L0 
C:\Users\CYMR90~1\AppData\Local\Temp\ccNy8eXk.s:1342   .text.cau_context_restore:0000000000000114 .L0 
C:\Users\CYMR90~1\AppData\Local\Temp\ccNy8eXk.s:1348   .text.cau_context_restore:0000000000000122 .L0 
C:\Users\CYMR90~1\AppData\Local\Temp\ccNy8eXk.s:1351   .text.cau_context_restore:000000000000012a .L0 
C:\Users\CYMR90~1\AppData\Local\Temp\ccNy8eXk.s:1354   .text.cau_context_restore:0000000000000130 .L0 
C:\Users\CYMR90~1\AppData\Local\Temp\ccNy8eXk.s:1356   .text.cau_context_restore:0000000000000132 .L0 
C:\Users\CYMR90~1\AppData\Local\Temp\ccNy8eXk.s:1359   .text.cau_context_restore:000000000000013a .L0 
C:\Users\CYMR90~1\AppData\Local\Temp\ccNy8eXk.s:1362   .text.cau_context_restore:0000000000000140 .L0 
C:\Users\CYMR90~1\AppData\Local\Temp\ccNy8eXk.s:1364   .text.cau_context_restore:0000000000000142 .L0 
C:\Users\CYMR90~1\AppData\Local\Temp\ccNy8eXk.s:1367   .text.cau_context_restore:000000000000014a .L0 
C:\Users\CYMR90~1\AppData\Local\Temp\ccNy8eXk.s:1370   .text.cau_context_restore:0000000000000150 .L0 
C:\Users\CYMR90~1\AppData\Local\Temp\ccNy8eXk.s:1372   .text.cau_context_restore:0000000000000152 .L0 
C:\Users\CYMR90~1\AppData\Local\Temp\ccNy8eXk.s:1375   .text.cau_context_restore:000000000000015a .L0 
C:\Users\CYMR90~1\AppData\Local\Temp\ccNy8eXk.s:1378   .text.cau_context_restore:0000000000000160 .L0 
C:\Users\CYMR90~1\AppData\Local\Temp\ccNy8eXk.s:1380   .text.cau_context_restore:0000000000000162 .L0 
C:\Users\CYMR90~1\AppData\Local\Temp\ccNy8eXk.s:1383   .text.cau_context_restore:000000000000016a .L0 
C:\Users\CYMR90~1\AppData\Local\Temp\ccNy8eXk.s:1386   .text.cau_context_restore:0000000000000170 .L0 
C:\Users\CYMR90~1\AppData\Local\Temp\ccNy8eXk.s:1388   .text.cau_context_restore:0000000000000172 .L0 
C:\Users\CYMR90~1\AppData\Local\Temp\ccNy8eXk.s:1391   .text.cau_context_restore:000000000000017a .L0 
C:\Users\CYMR90~1\AppData\Local\Temp\ccNy8eXk.s:1394   .text.cau_context_restore:0000000000000180 .L0 
C:\Users\CYMR90~1\AppData\Local\Temp\ccNy8eXk.s:1396   .text.cau_context_restore:0000000000000182 .L0 
C:\Users\CYMR90~1\AppData\Local\Temp\ccNy8eXk.s:1399   .text.cau_context_restore:000000000000018a .L0 
C:\Users\CYMR90~1\AppData\Local\Temp\ccNy8eXk.s:1402   .text.cau_context_restore:0000000000000190 .L0 
C:\Users\CYMR90~1\AppData\Local\Temp\ccNy8eXk.s:1404   .text.cau_context_restore:0000000000000192 .L0 
C:\Users\CYMR90~1\AppData\Local\Temp\ccNy8eXk.s:1407   .text.cau_context_restore:000000000000019a .L0 
C:\Users\CYMR90~1\AppData\Local\Temp\ccNy8eXk.s:1410   .text.cau_context_restore:00000000000001a0 .L0 
C:\Users\CYMR90~1\AppData\Local\Temp\ccNy8eXk.s:1413   .text.cau_context_restore:00000000000001a2 .L0 
C:\Users\CYMR90~1\AppData\Local\Temp\ccNy8eXk.s:1417   .text.cau_context_restore:00000000000001ae .L0 
C:\Users\CYMR90~1\AppData\Local\Temp\ccNy8eXk.s:1420   .text.cau_context_restore:00000000000001b6 .L0 
C:\Users\CYMR90~1\AppData\Local\Temp\ccNy8eXk.s:1423   .text.cau_context_restore:00000000000001bc .L0 
C:\Users\CYMR90~1\AppData\Local\Temp\ccNy8eXk.s:1425   .text.cau_context_restore:00000000000001be .L0 
C:\Users\CYMR90~1\AppData\Local\Temp\ccNy8eXk.s:1428   .text.cau_context_restore:00000000000001c6 .L0 
C:\Users\CYMR90~1\AppData\Local\Temp\ccNy8eXk.s:1431   .text.cau_context_restore:00000000000001cc .L0 
C:\Users\CYMR90~1\AppData\Local\Temp\ccNy8eXk.s:1433   .text.cau_context_restore:00000000000001ce .L0 
C:\Users\CYMR90~1\AppData\Local\Temp\ccNy8eXk.s:1436   .text.cau_context_restore:00000000000001d6 .L0 
C:\Users\CYMR90~1\AppData\Local\Temp\ccNy8eXk.s:1439   .text.cau_context_restore:00000000000001dc .L0 
C:\Users\CYMR90~1\AppData\Local\Temp\ccNy8eXk.s:1441   .text.cau_context_restore:00000000000001de .L0 
C:\Users\CYMR90~1\AppData\Local\Temp\ccNy8eXk.s:1444   .text.cau_context_restore:00000000000001e6 .L0 
C:\Users\CYMR90~1\AppData\Local\Temp\ccNy8eXk.s:1447   .text.cau_context_restore:00000000000001ec .L0 
C:\Users\CYMR90~1\AppData\Local\Temp\ccNy8eXk.s:1449   .text.cau_context_restore:00000000000001ee .L0 
C:\Users\CYMR90~1\AppData\Local\Temp\ccNy8eXk.s:1452   .text.cau_context_restore:00000000000001f6 .L0 
C:\Users\CYMR90~1\AppData\Local\Temp\ccNy8eXk.s:1455   .text.cau_context_restore:00000000000001fc .L0 
C:\Users\CYMR90~1\AppData\Local\Temp\ccNy8eXk.s:1457   .text.cau_context_restore:00000000000001fe .L0 
C:\Users\CYMR90~1\AppData\Local\Temp\ccNy8eXk.s:1460   .text.cau_context_restore:0000000000000206 .L0 
C:\Users\CYMR90~1\AppData\Local\Temp\ccNy8eXk.s:1463   .text.cau_context_restore:000000000000020c .L0 
C:\Users\CYMR90~1\AppData\Local\Temp\ccNy8eXk.s:1465   .text.cau_context_restore:000000000000020e .L0 
C:\Users\CYMR90~1\AppData\Local\Temp\ccNy8eXk.s:1468   .text.cau_context_restore:0000000000000216 .L0 
C:\Users\CYMR90~1\AppData\Local\Temp\ccNy8eXk.s:1471   .text.cau_context_restore:000000000000021c .L0 
C:\Users\CYMR90~1\AppData\Local\Temp\ccNy8eXk.s:1473   .text.cau_context_restore:000000000000021e .L0 
C:\Users\CYMR90~1\AppData\Local\Temp\ccNy8eXk.s:1476   .text.cau_context_restore:0000000000000226 .L0 
C:\Users\CYMR90~1\AppData\Local\Temp\ccNy8eXk.s:1479   .text.cau_context_restore:000000000000022c .L0 
C:\Users\CYMR90~1\AppData\Local\Temp\ccNy8eXk.s:1482   .text.cau_context_restore:000000000000022e .L0 
C:\Users\CYMR90~1\AppData\Local\Temp\ccNy8eXk.s:1485   .text.cau_context_restore:0000000000000234 .L0 
C:\Users\CYMR90~1\AppData\Local\Temp\ccNy8eXk.s:1490   .text.cau_context_restore:0000000000000242 .L0 
C:\Users\CYMR90~1\AppData\Local\Temp\ccNy8eXk.s:1494   .text.cau_context_restore:000000000000024e .L0 
C:\Users\CYMR90~1\AppData\Local\Temp\ccNy8eXk.s:1500   .text.cau_context_restore:000000000000025a .L0 
C:\Users\CYMR90~1\AppData\Local\Temp\ccNy8eXk.s:1502   .text.cau_context_restore:0000000000000262 .L0 
C:\Users\CYMR90~1\AppData\Local\Temp\ccNy8eXk.s:1505   .text.cau_context_restore:0000000000000268 .L0 
C:\Users\CYMR90~1\AppData\Local\Temp\ccNy8eXk.s:1508   .text.cau_context_restore:0000000000000270 .L0 
C:\Users\CYMR90~1\AppData\Local\Temp\ccNy8eXk.s:1510   .text.cau_context_restore:0000000000000274 .L0 
C:\Users\CYMR90~1\AppData\Local\Temp\ccNy8eXk.s:1515   .text.cau_context_restore:0000000000000288 .L0 
C:\Users\CYMR90~1\AppData\Local\Temp\ccNy8eXk.s:1517   .text.cau_context_restore:0000000000000290 .L0 
C:\Users\CYMR90~1\AppData\Local\Temp\ccNy8eXk.s:1520   .text.cau_context_restore:0000000000000292 .L0 
C:\Users\CYMR90~1\AppData\Local\Temp\ccNy8eXk.s:1553   .text.cau_flag_get:0000000000000000 cau_flag_get
C:\Users\CYMR90~1\AppData\Local\Temp\ccNy8eXk.s:1524   .text.cau_context_restore:000000000000029e .L0 
C:\Users\CYMR90~1\AppData\Local\Temp\ccNy8eXk.s:1526   .text.cau_context_restore:00000000000002a0 .L0 
C:\Users\CYMR90~1\AppData\Local\Temp\ccNy8eXk.s:1528   .text.cau_context_restore:00000000000002a4 .L0 
C:\Users\CYMR90~1\AppData\Local\Temp\ccNy8eXk.s:1531   .text.cau_context_restore:00000000000002aa .L0 
C:\Users\CYMR90~1\AppData\Local\Temp\ccNy8eXk.s:1535   .text.cau_context_restore:00000000000002ac .L0 
C:\Users\CYMR90~1\AppData\Local\Temp\ccNy8eXk.s:1537   .text.cau_context_restore:00000000000002b4 .L0 
C:\Users\CYMR90~1\AppData\Local\Temp\ccNy8eXk.s:1539   .text.cau_context_restore:00000000000002b8 .L0 
C:\Users\CYMR90~1\AppData\Local\Temp\ccNy8eXk.s:1541   .text.cau_context_restore:00000000000002ba .L0 
C:\Users\CYMR90~1\AppData\Local\Temp\ccNy8eXk.s:1542   .text.cau_context_restore:00000000000002ba .L0 
C:\Users\CYMR90~1\AppData\Local\Temp\ccNy8eXk.s:1544   .text.cau_context_restore:00000000000002bc .L0 
C:\Users\CYMR90~1\AppData\Local\Temp\ccNy8eXk.s:1546   .text.cau_context_restore:00000000000002be .L0 
C:\Users\CYMR90~1\AppData\Local\Temp\ccNy8eXk.s:1556   .text.cau_flag_get:0000000000000000 .L0 
C:\Users\CYMR90~1\AppData\Local\Temp\ccNy8eXk.s:1557   .text.cau_flag_get:0000000000000000 .L0 
C:\Users\CYMR90~1\AppData\Local\Temp\ccNy8eXk.s:1558   .text.cau_flag_get:0000000000000002 .L0 
C:\Users\CYMR90~1\AppData\Local\Temp\ccNy8eXk.s:1560   .text.cau_flag_get:0000000000000004 .L0 
C:\Users\CYMR90~1\AppData\Local\Temp\ccNy8eXk.s:1562   .text.cau_flag_get:0000000000000006 .L0 
C:\Users\CYMR90~1\AppData\Local\Temp\ccNy8eXk.s:1565   .text.cau_flag_get:000000000000000a .L0 
C:\Users\CYMR90~1\AppData\Local\Temp\ccNy8eXk.s:1567   .text.cau_flag_get:000000000000000e .L0 
C:\Users\CYMR90~1\AppData\Local\Temp\ccNy8eXk.s:1569   .text.cau_flag_get:0000000000000012 .L0 
C:\Users\CYMR90~1\AppData\Local\Temp\ccNy8eXk.s:1572   .text.cau_flag_get:000000000000001a .L0 
C:\Users\CYMR90~1\AppData\Local\Temp\ccNy8eXk.s:1575   .text.cau_flag_get:0000000000000020 .L0 
C:\Users\CYMR90~1\AppData\Local\Temp\ccNy8eXk.s:1578   .text.cau_flag_get:0000000000000026 .L0 
C:\Users\CYMR90~1\AppData\Local\Temp\ccNy8eXk.s:1583   .text.cau_flag_get:000000000000002e .L0 
C:\Users\CYMR90~1\AppData\Local\Temp\ccNy8eXk.s:1586   .text.cau_flag_get:0000000000000034 .L0 
C:\Users\CYMR90~1\AppData\Local\Temp\ccNy8eXk.s:1590   .text.cau_flag_get:000000000000003a .L0 
C:\Users\CYMR90~1\AppData\Local\Temp\ccNy8eXk.s:1594   .text.cau_flag_get:0000000000000044 .L0 
C:\Users\CYMR90~1\AppData\Local\Temp\ccNy8eXk.s:1596   .text.cau_flag_get:0000000000000046 .L0 
C:\Users\CYMR90~1\AppData\Local\Temp\ccNy8eXk.s:1600   .text.cau_flag_get:000000000000004c .L0 
C:\Users\CYMR90~1\AppData\Local\Temp\ccNy8eXk.s:1602   .text.cau_flag_get:0000000000000050 .L0 
C:\Users\CYMR90~1\AppData\Local\Temp\ccNy8eXk.s:1604   .text.cau_flag_get:0000000000000054 .L0 
C:\Users\CYMR90~1\AppData\Local\Temp\ccNy8eXk.s:1605   .text.cau_flag_get:0000000000000054 .L0 
C:\Users\CYMR90~1\AppData\Local\Temp\ccNy8eXk.s:1607   .text.cau_flag_get:0000000000000056 .L0 
C:\Users\CYMR90~1\AppData\Local\Temp\ccNy8eXk.s:1609   .text.cau_flag_get:0000000000000058 .L0 
C:\Users\CYMR90~1\AppData\Local\Temp\ccNy8eXk.s:1616   .text.cau_interrupt_enable:0000000000000000 cau_interrupt_enable
C:\Users\CYMR90~1\AppData\Local\Temp\ccNy8eXk.s:1619   .text.cau_interrupt_enable:0000000000000000 .L0 
C:\Users\CYMR90~1\AppData\Local\Temp\ccNy8eXk.s:1620   .text.cau_interrupt_enable:0000000000000000 .L0 
C:\Users\CYMR90~1\AppData\Local\Temp\ccNy8eXk.s:1621   .text.cau_interrupt_enable:0000000000000002 .L0 
C:\Users\CYMR90~1\AppData\Local\Temp\ccNy8eXk.s:1623   .text.cau_interrupt_enable:0000000000000004 .L0 
C:\Users\CYMR90~1\AppData\Local\Temp\ccNy8eXk.s:1625   .text.cau_interrupt_enable:0000000000000006 .L0 
C:\Users\CYMR90~1\AppData\Local\Temp\ccNy8eXk.s:1628   .text.cau_interrupt_enable:000000000000000a .L0 
C:\Users\CYMR90~1\AppData\Local\Temp\ccNy8eXk.s:1637   .text.cau_interrupt_enable:0000000000000020 .L0 
C:\Users\CYMR90~1\AppData\Local\Temp\ccNy8eXk.s:1639   .text.cau_interrupt_enable:0000000000000024 .L0 
C:\Users\CYMR90~1\AppData\Local\Temp\ccNy8eXk.s:1640   .text.cau_interrupt_enable:0000000000000024 .L0 
C:\Users\CYMR90~1\AppData\Local\Temp\ccNy8eXk.s:1642   .text.cau_interrupt_enable:0000000000000026 .L0 
C:\Users\CYMR90~1\AppData\Local\Temp\ccNy8eXk.s:1644   .text.cau_interrupt_enable:0000000000000028 .L0 
C:\Users\CYMR90~1\AppData\Local\Temp\ccNy8eXk.s:1651   .text.cau_interrupt_disable:0000000000000000 cau_interrupt_disable
C:\Users\CYMR90~1\AppData\Local\Temp\ccNy8eXk.s:1654   .text.cau_interrupt_disable:0000000000000000 .L0 
C:\Users\CYMR90~1\AppData\Local\Temp\ccNy8eXk.s:1655   .text.cau_interrupt_disable:0000000000000000 .L0 
C:\Users\CYMR90~1\AppData\Local\Temp\ccNy8eXk.s:1656   .text.cau_interrupt_disable:0000000000000002 .L0 
C:\Users\CYMR90~1\AppData\Local\Temp\ccNy8eXk.s:1658   .text.cau_interrupt_disable:0000000000000004 .L0 
C:\Users\CYMR90~1\AppData\Local\Temp\ccNy8eXk.s:1660   .text.cau_interrupt_disable:0000000000000006 .L0 
C:\Users\CYMR90~1\AppData\Local\Temp\ccNy8eXk.s:1663   .text.cau_interrupt_disable:000000000000000a .L0 
C:\Users\CYMR90~1\AppData\Local\Temp\ccNy8eXk.s:1667   .text.cau_interrupt_disable:0000000000000012 .L0 
C:\Users\CYMR90~1\AppData\Local\Temp\ccNy8eXk.s:1670   .text.cau_interrupt_disable:000000000000001a .L0 
C:\Users\CYMR90~1\AppData\Local\Temp\ccNy8eXk.s:1675   .text.cau_interrupt_disable:0000000000000024 .L0 
C:\Users\CYMR90~1\AppData\Local\Temp\ccNy8eXk.s:1677   .text.cau_interrupt_disable:0000000000000028 .L0 
C:\Users\CYMR90~1\AppData\Local\Temp\ccNy8eXk.s:1678   .text.cau_interrupt_disable:0000000000000028 .L0 
C:\Users\CYMR90~1\AppData\Local\Temp\ccNy8eXk.s:1680   .text.cau_interrupt_disable:000000000000002a .L0 
C:\Users\CYMR90~1\AppData\Local\Temp\ccNy8eXk.s:1682   .text.cau_interrupt_disable:000000000000002c .L0 
C:\Users\CYMR90~1\AppData\Local\Temp\ccNy8eXk.s:1689   .text.cau_interrupt_flag_get:0000000000000000 cau_interrupt_flag_get
C:\Users\CYMR90~1\AppData\Local\Temp\ccNy8eXk.s:1692   .text.cau_interrupt_flag_get:0000000000000000 .L0 
C:\Users\CYMR90~1\AppData\Local\Temp\ccNy8eXk.s:1693   .text.cau_interrupt_flag_get:0000000000000000 .L0 
C:\Users\CYMR90~1\AppData\Local\Temp\ccNy8eXk.s:1694   .text.cau_interrupt_flag_get:0000000000000002 .L0 
C:\Users\CYMR90~1\AppData\Local\Temp\ccNy8eXk.s:1696   .text.cau_interrupt_flag_get:0000000000000004 .L0 
C:\Users\CYMR90~1\AppData\Local\Temp\ccNy8eXk.s:1698   .text.cau_interrupt_flag_get:0000000000000006 .L0 
C:\Users\CYMR90~1\AppData\Local\Temp\ccNy8eXk.s:1701   .text.cau_interrupt_flag_get:000000000000000a .L0 
C:\Users\CYMR90~1\AppData\Local\Temp\ccNy8eXk.s:1703   .text.cau_interrupt_flag_get:000000000000000e .L0 
C:\Users\CYMR90~1\AppData\Local\Temp\ccNy8eXk.s:1707   .text.cau_interrupt_flag_get:0000000000000016 .L0 
C:\Users\CYMR90~1\AppData\Local\Temp\ccNy8eXk.s:1710   .text.cau_interrupt_flag_get:000000000000001c .L0 
C:\Users\CYMR90~1\AppData\Local\Temp\ccNy8eXk.s:1712   .text.cau_interrupt_flag_get:000000000000001e .L0 
C:\Users\CYMR90~1\AppData\Local\Temp\ccNy8eXk.s:1716   .text.cau_interrupt_flag_get:0000000000000024 .L0 
C:\Users\CYMR90~1\AppData\Local\Temp\ccNy8eXk.s:1718   .text.cau_interrupt_flag_get:0000000000000028 .L0 
C:\Users\CYMR90~1\AppData\Local\Temp\ccNy8eXk.s:1720   .text.cau_interrupt_flag_get:000000000000002c .L0 
C:\Users\CYMR90~1\AppData\Local\Temp\ccNy8eXk.s:1721   .text.cau_interrupt_flag_get:000000000000002c .L0 
C:\Users\CYMR90~1\AppData\Local\Temp\ccNy8eXk.s:1723   .text.cau_interrupt_flag_get:000000000000002e .L0 
C:\Users\CYMR90~1\AppData\Local\Temp\ccNy8eXk.s:1725   .text.cau_interrupt_flag_get:0000000000000030 .L0 
C:\Users\CYMR90~1\AppData\Local\Temp\ccNy8eXk.s:45     .text.cau_deinit:000000000000002a .L0 
C:\Users\CYMR90~1\AppData\Local\Temp\ccNy8eXk.s:98     .text.cau_struct_para_init:000000000000005a .L0 
C:\Users\CYMR90~1\AppData\Local\Temp\ccNy8eXk.s:148    .text.cau_key_struct_para_init:0000000000000052 .L0 
C:\Users\CYMR90~1\AppData\Local\Temp\ccNy8eXk.s:186    .text.cau_iv_struct_para_init:0000000000000032 .L0 
C:\Users\CYMR90~1\AppData\Local\Temp\ccNy8eXk.s:299    .text.cau_context_struct_para_init:00000000000000fa .L0 
C:\Users\CYMR90~1\AppData\Local\Temp\ccNy8eXk.s:331    .text.cau_enable:000000000000001e .L0 
C:\Users\CYMR90~1\AppData\Local\Temp\ccNy8eXk.s:364    .text.cau_disable:0000000000000020 .L0 
C:\Users\CYMR90~1\AppData\Local\Temp\ccNy8eXk.s:399    .text.cau_dma_enable:0000000000000028 .L0 
C:\Users\CYMR90~1\AppData\Local\Temp\ccNy8eXk.s:437    .text.cau_dma_disable:000000000000002c .L0 
C:\Users\CYMR90~1\AppData\Local\Temp\ccNy8eXk.s:506    .text.cau_init:0000000000000084 .L0 
C:\Users\CYMR90~1\AppData\Local\Temp\ccNy8eXk.s:545    .text.cau_aes_keysize_config:0000000000000034 .L0 
C:\Users\CYMR90~1\AppData\Local\Temp\ccNy8eXk.s:635    .text.cau_key_init:0000000000000092 .L0 
C:\Users\CYMR90~1\AppData\Local\Temp\ccNy8eXk.s:693    .text.cau_iv_init:0000000000000052 .L0 
C:\Users\CYMR90~1\AppData\Local\Temp\ccNy8eXk.s:740    .text.cau_phase_config:0000000000000044 .L0 
C:\Users\CYMR90~1\AppData\Local\Temp\ccNy8eXk.s:772    .text.cau_fifo_flush:000000000000001e .L0 
C:\Users\CYMR90~1\AppData\Local\Temp\ccNy8eXk.s:813    .text.cau_enable_state_get:0000000000000028 .L0 
C:\Users\CYMR90~1\AppData\Local\Temp\ccNy8eXk.s:845    .text.cau_data_write:000000000000001e .L0 
C:\Users\CYMR90~1\AppData\Local\Temp\ccNy8eXk.s:874    .text.cau_data_read:0000000000000016 .L0 
C:\Users\CYMR90~1\AppData\Local\Temp\ccNy8eXk.s:1197   .text.cau_context_save:000000000000029c .L0 
C:\Users\CYMR90~1\AppData\Local\Temp\ccNy8eXk.s:1549   .text.cau_context_restore:00000000000002be .L0 
C:\Users\CYMR90~1\AppData\Local\Temp\ccNy8eXk.s:1612   .text.cau_flag_get:0000000000000058 .L0 
C:\Users\CYMR90~1\AppData\Local\Temp\ccNy8eXk.s:1647   .text.cau_interrupt_enable:0000000000000028 .L0 
C:\Users\CYMR90~1\AppData\Local\Temp\ccNy8eXk.s:1685   .text.cau_interrupt_disable:000000000000002c .L0 
C:\Users\CYMR90~1\AppData\Local\Temp\ccNy8eXk.s:1728   .text.cau_interrupt_flag_get:0000000000000030 .L0 
                     .debug_frame:0000000000000000 .L0 
C:\Users\CYMR90~1\AppData\Local\Temp\ccNy8eXk.s:799    .text.cau_enable_state_get:000000000000001c .L17
C:\Users\CYMR90~1\AppData\Local\Temp\ccNy8eXk.s:924    .text.cau_context_save:0000000000000056 .L23
C:\Users\CYMR90~1\AppData\Local\Temp\ccNy8eXk.s:930    .text.cau_context_save:0000000000000060 .L31
C:\Users\CYMR90~1\AppData\Local\Temp\ccNy8eXk.s:933    .text.cau_context_save:0000000000000062 .L25
C:\Users\CYMR90~1\AppData\Local\Temp\ccNy8eXk.s:1057   .text.cau_context_save:000000000000016e .L26
C:\Users\CYMR90~1\AppData\Local\Temp\ccNy8eXk.s:1067   .text.cau_context_save:0000000000000188 .L27
C:\Users\CYMR90~1\AppData\Local\Temp\ccNy8eXk.s:1124   .text.cau_context_save:0000000000000208 .L28
C:\Users\CYMR90~1\AppData\Local\Temp\ccNy8eXk.s:1185   .text.cau_context_save:0000000000000294 .L30
C:\Users\CYMR90~1\AppData\Local\Temp\ccNy8eXk.s:1336   .text.cau_context_restore:0000000000000108 .L33
C:\Users\CYMR90~1\AppData\Local\Temp\ccNy8eXk.s:1346   .text.cau_context_restore:0000000000000122 .L34
C:\Users\CYMR90~1\AppData\Local\Temp\ccNy8eXk.s:1411   .text.cau_context_restore:00000000000001a2 .L35
C:\Users\CYMR90~1\AppData\Local\Temp\ccNy8eXk.s:1480   .text.cau_context_restore:000000000000022e .L36
C:\Users\CYMR90~1\AppData\Local\Temp\ccNy8eXk.s:1497   .text.cau_context_restore:000000000000025a .L37
C:\Users\CYMR90~1\AppData\Local\Temp\ccNy8eXk.s:1532   .text.cau_context_restore:00000000000002ac .L38
C:\Users\CYMR90~1\AppData\Local\Temp\ccNy8eXk.s:1518   .text.cau_context_restore:0000000000000292 .L39
C:\Users\CYMR90~1\AppData\Local\Temp\ccNy8eXk.s:1581   .text.cau_flag_get:000000000000002e .L41
C:\Users\CYMR90~1\AppData\Local\Temp\ccNy8eXk.s:1588   .text.cau_flag_get:000000000000003a .L42
C:\Users\CYMR90~1\AppData\Local\Temp\ccNy8eXk.s:1598   .text.cau_flag_get:000000000000004c .L43
C:\Users\CYMR90~1\AppData\Local\Temp\ccNy8eXk.s:1714   .text.cau_interrupt_flag_get:0000000000000024 .L48
C:\Users\CYMR90~1\AppData\Local\Temp\ccNy8eXk.s:2859   .debug_abbrev:0000000000000000 .Ldebug_abbrev0
C:\Users\CYMR90~1\AppData\Local\Temp\ccNy8eXk.s:23875  .debug_str:000000000000afd9 .LASF5673
C:\Users\CYMR90~1\AppData\Local\Temp\ccNy8eXk.s:30852  .debug_str:0000000000026c30 .LASF5674
C:\Users\CYMR90~1\AppData\Local\Temp\ccNy8eXk.s:26809  .debug_str:0000000000016a07 .LASF5675
C:\Users\CYMR90~1\AppData\Local\Temp\ccNy8eXk.s:3408   .debug_ranges:0000000000000000 .Ldebug_ranges0
C:\Users\CYMR90~1\AppData\Local\Temp\ccNy8eXk.s:21101  .debug_line:0000000000000000 .Ldebug_line0
C:\Users\CYMR90~1\AppData\Local\Temp\ccNy8eXk.s:3460   .debug_macro:0000000000000000 .Ldebug_macro0
C:\Users\CYMR90~1\AppData\Local\Temp\ccNy8eXk.s:32416  .debug_str:000000000002d042 .LASF5558
C:\Users\CYMR90~1\AppData\Local\Temp\ccNy8eXk.s:21119  .debug_str:0000000000000123 .LASF5559
C:\Users\CYMR90~1\AppData\Local\Temp\ccNy8eXk.s:22047  .debug_str:0000000000003aba .LASF5560
C:\Users\CYMR90~1\AppData\Local\Temp\ccNy8eXk.s:27262  .debug_str:0000000000018786 .LASF5561
C:\Users\CYMR90~1\AppData\Local\Temp\ccNy8eXk.s:23359  .debug_str:0000000000008f1e .LASF5566
C:\Users\CYMR90~1\AppData\Local\Temp\ccNy8eXk.s:26723  .debug_str:0000000000016416 .LASF5562
C:\Users\CYMR90~1\AppData\Local\Temp\ccNy8eXk.s:28584  .debug_str:000000000001df58 .LASF5563
C:\Users\CYMR90~1\AppData\Local\Temp\ccNy8eXk.s:30222  .debug_str:000000000002429c .LASF5564
C:\Users\CYMR90~1\AppData\Local\Temp\ccNy8eXk.s:28992  .debug_str:000000000001f792 .LASF5565
C:\Users\CYMR90~1\AppData\Local\Temp\ccNy8eXk.s:27474  .debug_str:0000000000019600 .LASF5567
C:\Users\CYMR90~1\AppData\Local\Temp\ccNy8eXk.s:21237  .debug_str:000000000000085e .LASF5568
C:\Users\CYMR90~1\AppData\Local\Temp\ccNy8eXk.s:30568  .debug_str:0000000000025b06 .LASF5569
C:\Users\CYMR90~1\AppData\Local\Temp\ccNy8eXk.s:29014  .debug_str:000000000001f8fb .LASF855
C:\Users\CYMR90~1\AppData\Local\Temp\ccNy8eXk.s:26487  .debug_str:0000000000015582 .LASF5570
C:\Users\CYMR90~1\AppData\Local\Temp\ccNy8eXk.s:30684  .debug_str:0000000000026248 .LASF5571
C:\Users\CYMR90~1\AppData\Local\Temp\ccNy8eXk.s:23161  .debug_str:000000000000827f .LASF5572
C:\Users\CYMR90~1\AppData\Local\Temp\ccNy8eXk.s:24677  .debug_str:000000000000e3b3 .LASF5573
C:\Users\CYMR90~1\AppData\Local\Temp\ccNy8eXk.s:21341  .debug_str:0000000000000f52 .LASF5574
C:\Users\CYMR90~1\AppData\Local\Temp\ccNy8eXk.s:28468  .debug_str:000000000001d7c3 .LASF5575
C:\Users\CYMR90~1\AppData\Local\Temp\ccNy8eXk.s:23723  .debug_str:000000000000a5c7 .LASF5576
C:\Users\CYMR90~1\AppData\Local\Temp\ccNy8eXk.s:23885  .debug_str:000000000000b111 .LASF5577
C:\Users\CYMR90~1\AppData\Local\Temp\ccNy8eXk.s:31428  .debug_str:000000000002920d .LASF5578
C:\Users\CYMR90~1\AppData\Local\Temp\ccNy8eXk.s:28782  .debug_str:000000000001eae9 .LASF5579
C:\Users\CYMR90~1\AppData\Local\Temp\ccNy8eXk.s:29618  .debug_str:0000000000021dea .LASF5580
C:\Users\CYMR90~1\AppData\Local\Temp\ccNy8eXk.s:32394  .debug_str:000000000002cf12 .LASF5581
C:\Users\CYMR90~1\AppData\Local\Temp\ccNy8eXk.s:30858  .debug_str:0000000000026ccf .LASF5582
C:\Users\CYMR90~1\AppData\Local\Temp\ccNy8eXk.s:23065  .debug_str:0000000000007b7c .LASF5583
C:\Users\CYMR90~1\AppData\Local\Temp\ccNy8eXk.s:26635  .debug_str:0000000000015ec4 .LASF5584
C:\Users\CYMR90~1\AppData\Local\Temp\ccNy8eXk.s:21897  .debug_str:0000000000003105 .LASF5585
C:\Users\CYMR90~1\AppData\Local\Temp\ccNy8eXk.s:28232  .debug_str:000000000001c709 .LASF5586
C:\Users\CYMR90~1\AppData\Local\Temp\ccNy8eXk.s:30754  .debug_str:0000000000026658 .LASF5587
C:\Users\CYMR90~1\AppData\Local\Temp\ccNy8eXk.s:22971  .debug_str:0000000000007566 .LASF5588
C:\Users\CYMR90~1\AppData\Local\Temp\ccNy8eXk.s:24213  .debug_str:000000000000c671 .LASF5589
C:\Users\CYMR90~1\AppData\Local\Temp\ccNy8eXk.s:32384  .debug_str:000000000002cdeb .LASF5590
C:\Users\CYMR90~1\AppData\Local\Temp\ccNy8eXk.s:22773  .debug_str:0000000000006858 .LASF5591
C:\Users\CYMR90~1\AppData\Local\Temp\ccNy8eXk.s:31358  .debug_str:0000000000028da3 .LASF5592
C:\Users\CYMR90~1\AppData\Local\Temp\ccNy8eXk.s:31292  .debug_str:00000000000289eb .LASF5593
C:\Users\CYMR90~1\AppData\Local\Temp\ccNy8eXk.s:26183  .debug_str:00000000000142e1 .LASF5594
C:\Users\CYMR90~1\AppData\Local\Temp\ccNy8eXk.s:22255  .debug_str:0000000000004899 .LASF5595
C:\Users\CYMR90~1\AppData\Local\Temp\ccNy8eXk.s:27698  .debug_str:000000000001a585 .LASF5596
C:\Users\CYMR90~1\AppData\Local\Temp\ccNy8eXk.s:24503  .debug_str:000000000000d985 .LASF5597
C:\Users\CYMR90~1\AppData\Local\Temp\ccNy8eXk.s:32224  .debug_str:000000000002c38d .LASF5598
C:\Users\CYMR90~1\AppData\Local\Temp\ccNy8eXk.s:27408  .debug_str:0000000000019243 .LASF5599
C:\Users\CYMR90~1\AppData\Local\Temp\ccNy8eXk.s:22993  .debug_str:00000000000076a2 .LASF5600
C:\Users\CYMR90~1\AppData\Local\Temp\ccNy8eXk.s:32196  .debug_str:000000000002c1b5 .LASF5601
C:\Users\CYMR90~1\AppData\Local\Temp\ccNy8eXk.s:29604  .debug_str:0000000000021d11 .LASF5602
C:\Users\CYMR90~1\AppData\Local\Temp\ccNy8eXk.s:22141  .debug_str:00000000000040c1 .LASF5603
C:\Users\CYMR90~1\AppData\Local\Temp\ccNy8eXk.s:30218  .debug_str:0000000000024272 .LASF5604
C:\Users\CYMR90~1\AppData\Local\Temp\ccNy8eXk.s:23959  .debug_str:000000000000b54f .LASF5605
C:\Users\CYMR90~1\AppData\Local\Temp\ccNy8eXk.s:27888  .debug_str:000000000001b248 .LASF5606
C:\Users\CYMR90~1\AppData\Local\Temp\ccNy8eXk.s:22545  .debug_str:0000000000005a9d .LASF5607
C:\Users\CYMR90~1\AppData\Local\Temp\ccNy8eXk.s:24075  .debug_str:000000000000bd47 .LASF5608
C:\Users\CYMR90~1\AppData\Local\Temp\ccNy8eXk.s:26051  .debug_str:0000000000013ad2 .LASF5609
C:\Users\CYMR90~1\AppData\Local\Temp\ccNy8eXk.s:25825  .debug_str:0000000000012bf9 .LASF5610
C:\Users\CYMR90~1\AppData\Local\Temp\ccNy8eXk.s:26481  .debug_str:000000000001554b .LASF5611
C:\Users\CYMR90~1\AppData\Local\Temp\ccNy8eXk.s:27562  .debug_str:0000000000019c44 .LASF5612
C:\Users\CYMR90~1\AppData\Local\Temp\ccNy8eXk.s:21823  .debug_str:0000000000002cc8 .LASF5613
C:\Users\CYMR90~1\AppData\Local\Temp\ccNy8eXk.s:29276  .debug_str:0000000000020968 .LASF5614
C:\Users\CYMR90~1\AppData\Local\Temp\ccNy8eXk.s:21589  .debug_str:0000000000001e84 .LASF5615
C:\Users\CYMR90~1\AppData\Local\Temp\ccNy8eXk.s:28600  .debug_str:000000000001e02d .LASF5616
C:\Users\CYMR90~1\AppData\Local\Temp\ccNy8eXk.s:21783  .debug_str:0000000000002a22 .LASF5617
C:\Users\CYMR90~1\AppData\Local\Temp\ccNy8eXk.s:32154  .debug_str:000000000002beef .LASF5618
C:\Users\CYMR90~1\AppData\Local\Temp\ccNy8eXk.s:23083  .debug_str:0000000000007c5e .LASF5619
C:\Users\CYMR90~1\AppData\Local\Temp\ccNy8eXk.s:25525  .debug_str:0000000000011884 .LASF5620
C:\Users\CYMR90~1\AppData\Local\Temp\ccNy8eXk.s:25911  .debug_str:0000000000013175 .LASF5621
C:\Users\CYMR90~1\AppData\Local\Temp\ccNy8eXk.s:23003  .debug_str:000000000000772e .LASF5622
C:\Users\CYMR90~1\AppData\Local\Temp\ccNy8eXk.s:26942  .debug_str:000000000001744d .LASF5623
C:\Users\CYMR90~1\AppData\Local\Temp\ccNy8eXk.s:27880  .debug_str:000000000001b1a7 .LASF5624
C:\Users\CYMR90~1\AppData\Local\Temp\ccNy8eXk.s:22721  .debug_str:0000000000006595 .LASF5625
C:\Users\CYMR90~1\AppData\Local\Temp\ccNy8eXk.s:23797  .debug_str:000000000000aad8 .LASF5626
C:\Users\CYMR90~1\AppData\Local\Temp\ccNy8eXk.s:27992  .debug_str:000000000001b8cb .LASF5627
C:\Users\CYMR90~1\AppData\Local\Temp\ccNy8eXk.s:22253  .debug_str:0000000000004893 .LASF5628
C:\Users\CYMR90~1\AppData\Local\Temp\ccNy8eXk.s:26099  .debug_str:0000000000013d98 .LASF5629
C:\Users\CYMR90~1\AppData\Local\Temp\ccNy8eXk.s:24753  .debug_str:000000000000e875 .LASF5630
C:\Users\CYMR90~1\AppData\Local\Temp\ccNy8eXk.s:32160  .debug_str:000000000002bf19 .LASF5631
C:\Users\CYMR90~1\AppData\Local\Temp\ccNy8eXk.s:24015  .debug_str:000000000000b985 .LASF5636
C:\Users\CYMR90~1\AppData\Local\Temp\ccNy8eXk.s:1690   .text.cau_interrupt_flag_get:0000000000000000 .LFB370
C:\Users\CYMR90~1\AppData\Local\Temp\ccNy8eXk.s:1726   .text.cau_interrupt_flag_get:0000000000000030 .LFE370
C:\Users\CYMR90~1\AppData\Local\Temp\ccNy8eXk.s:26219  .debug_str:00000000000144c1 .LASF5632
C:\Users\CYMR90~1\AppData\Local\Temp\ccNy8eXk.s:23711  .debug_str:000000000000a4f7 .LASF5638
C:\Users\CYMR90~1\AppData\Local\Temp\ccNy8eXk.s:21763  .debug_str:0000000000002901 .LASF5634
C:\Users\CYMR90~1\AppData\Local\Temp\ccNy8eXk.s:1652   .text.cau_interrupt_disable:0000000000000000 .LFB369
C:\Users\CYMR90~1\AppData\Local\Temp\ccNy8eXk.s:1683   .text.cau_interrupt_disable:000000000000002c .LFE369
C:\Users\CYMR90~1\AppData\Local\Temp\ccNy8eXk.s:27824  .debug_str:000000000001ade1 .LASF5633
C:\Users\CYMR90~1\AppData\Local\Temp\ccNy8eXk.s:25581  .debug_str:0000000000011c5f .LASF5635
C:\Users\CYMR90~1\AppData\Local\Temp\ccNy8eXk.s:1617   .text.cau_interrupt_enable:0000000000000000 .LFB368
C:\Users\CYMR90~1\AppData\Local\Temp\ccNy8eXk.s:1645   .text.cau_interrupt_enable:0000000000000028 .LFE368
C:\Users\CYMR90~1\AppData\Local\Temp\ccNy8eXk.s:28620  .debug_str:000000000001e13a .LASF5637
C:\Users\CYMR90~1\AppData\Local\Temp\ccNy8eXk.s:1554   .text.cau_flag_get:0000000000000000 .LFB367
C:\Users\CYMR90~1\AppData\Local\Temp\ccNy8eXk.s:1610   .text.cau_flag_get:0000000000000058 .LFE367
C:\Users\CYMR90~1\AppData\Local\Temp\ccNy8eXk.s:21515  .debug_str:00000000000019f4 .LASF5639
C:\Users\CYMR90~1\AppData\Local\Temp\ccNy8eXk.s:21829  .debug_str:0000000000002d03 .LASF5640
C:\Users\CYMR90~1\AppData\Local\Temp\ccNy8eXk.s:1202   .text.cau_context_restore:0000000000000000 .LFB366
C:\Users\CYMR90~1\AppData\Local\Temp\ccNy8eXk.s:1547   .text.cau_context_restore:00000000000002be .LFE366
C:\Users\CYMR90~1\AppData\Local\Temp\ccNy8eXk.s:26944  .debug_str:0000000000017455 .LASF5641
C:\Users\CYMR90~1\AppData\Local\Temp\ccNy8eXk.s:30300  .debug_str:00000000000247e7 .LASF5642
C:\Users\CYMR90~1\AppData\Local\Temp\ccNy8eXk.s:30126  .debug_str:0000000000023c5b .LASF5643
C:\Users\CYMR90~1\AppData\Local\Temp\ccNy8eXk.s:1498   .text.cau_context_restore:000000000000025a .LBB2
C:\Users\CYMR90~1\AppData\Local\Temp\ccNy8eXk.s:1533   .text.cau_context_restore:00000000000002ac .LBE2
C:\Users\CYMR90~1\AppData\Local\Temp\ccNy8eXk.s:26659  .debug_str:0000000000016064 .LASF5644
C:\Users\CYMR90~1\AppData\Local\Temp\ccNy8eXk.s:29760  .debug_str:0000000000022624 .LASF5645
C:\Users\CYMR90~1\AppData\Local\Temp\ccNy8eXk.s:26235  .debug_str:00000000000145de .LASF5646
C:\Users\CYMR90~1\AppData\Local\Temp\ccNy8eXk.s:879    .text.cau_context_save:0000000000000000 .LFB365
C:\Users\CYMR90~1\AppData\Local\Temp\ccNy8eXk.s:1195   .text.cau_context_save:000000000000029c .LFE365
C:\Users\CYMR90~1\AppData\Local\Temp\ccNy8eXk.s:22691  .debug_str:00000000000063c5 .LASF5647
C:\Users\CYMR90~1\AppData\Local\Temp\ccNy8eXk.s:31722  .debug_str:000000000002a3ba .LASF5648
C:\Users\CYMR90~1\AppData\Local\Temp\ccNy8eXk.s:25909  .debug_str:000000000001316b .LASF5649
C:\Users\CYMR90~1\AppData\Local\Temp\ccNy8eXk.s:28084  .debug_str:000000000001be19 .LASF5676
C:\Users\CYMR90~1\AppData\Local\Temp\ccNy8eXk.s:850    .text.cau_data_read:0000000000000000 .LFB364
C:\Users\CYMR90~1\AppData\Local\Temp\ccNy8eXk.s:872    .text.cau_data_read:0000000000000016 .LFE364
C:\Users\CYMR90~1\AppData\Local\Temp\ccNy8eXk.s:25027  .debug_str:000000000000f949 .LASF5650
C:\Users\CYMR90~1\AppData\Local\Temp\ccNy8eXk.s:818    .text.cau_data_write:0000000000000000 .LFB363
C:\Users\CYMR90~1\AppData\Local\Temp\ccNy8eXk.s:843    .text.cau_data_write:000000000000001e .LFE363
C:\Users\CYMR90~1\AppData\Local\Temp\ccNy8eXk.s:31522  .debug_str:0000000000029866 .LASF5651
C:\Users\CYMR90~1\AppData\Local\Temp\ccNy8eXk.s:25283  .debug_str:00000000000108dc .LASF5652
C:\Users\CYMR90~1\AppData\Local\Temp\ccNy8eXk.s:777    .text.cau_enable_state_get:0000000000000000 .LFB362
C:\Users\CYMR90~1\AppData\Local\Temp\ccNy8eXk.s:811    .text.cau_enable_state_get:0000000000000028 .LFE362
C:\Users\CYMR90~1\AppData\Local\Temp\ccNy8eXk.s:22729  .debug_str:00000000000065f2 .LASF5664
C:\Users\CYMR90~1\AppData\Local\Temp\ccNy8eXk.s:745    .text.cau_fifo_flush:0000000000000000 .LFB361
C:\Users\CYMR90~1\AppData\Local\Temp\ccNy8eXk.s:770    .text.cau_fifo_flush:000000000000001e .LFE361
C:\Users\CYMR90~1\AppData\Local\Temp\ccNy8eXk.s:26355  .debug_str:0000000000014d86 .LASF5653
C:\Users\CYMR90~1\AppData\Local\Temp\ccNy8eXk.s:698    .text.cau_phase_config:0000000000000000 .LFB360
C:\Users\CYMR90~1\AppData\Local\Temp\ccNy8eXk.s:738    .text.cau_phase_config:0000000000000044 .LFE360
C:\Users\CYMR90~1\AppData\Local\Temp\ccNy8eXk.s:28260  .debug_str:000000000001c97b .LASF5654
C:\Users\CYMR90~1\AppData\Local\Temp\ccNy8eXk.s:27308  .debug_str:0000000000018a70 .LASF5655
C:\Users\CYMR90~1\AppData\Local\Temp\ccNy8eXk.s:22399  .debug_str:00000000000051d4 .LASF5656
C:\Users\CYMR90~1\AppData\Local\Temp\ccNy8eXk.s:640    .text.cau_iv_init:0000000000000000 .LFB359
C:\Users\CYMR90~1\AppData\Local\Temp\ccNy8eXk.s:691    .text.cau_iv_init:0000000000000052 .LFE359
C:\Users\CYMR90~1\AppData\Local\Temp\ccNy8eXk.s:23307  .debug_str:0000000000008ba1 .LASF5657
C:\Users\CYMR90~1\AppData\Local\Temp\ccNy8eXk.s:31918  .debug_str:000000000002afba .LASF5658
C:\Users\CYMR90~1\AppData\Local\Temp\ccNy8eXk.s:550    .text.cau_key_init:0000000000000000 .LFB358
C:\Users\CYMR90~1\AppData\Local\Temp\ccNy8eXk.s:633    .text.cau_key_init:0000000000000092 .LFE358
C:\Users\CYMR90~1\AppData\Local\Temp\ccNy8eXk.s:22015  .debug_str:00000000000038b4 .LASF5659
C:\Users\CYMR90~1\AppData\Local\Temp\ccNy8eXk.s:511    .text.cau_aes_keysize_config:0000000000000000 .LFB357
C:\Users\CYMR90~1\AppData\Local\Temp\ccNy8eXk.s:543    .text.cau_aes_keysize_config:0000000000000034 .LFE357
C:\Users\CYMR90~1\AppData\Local\Temp\ccNy8eXk.s:27274  .debug_str:0000000000018871 .LASF5660
C:\Users\CYMR90~1\AppData\Local\Temp\ccNy8eXk.s:442    .text.cau_init:0000000000000000 .LFB356
C:\Users\CYMR90~1\AppData\Local\Temp\ccNy8eXk.s:504    .text.cau_init:0000000000000084 .LFE356
C:\Users\CYMR90~1\AppData\Local\Temp\ccNy8eXk.s:31452  .debug_str:0000000000029348 .LASF5661
C:\Users\CYMR90~1\AppData\Local\Temp\ccNy8eXk.s:404    .text.cau_dma_disable:0000000000000000 .LFB355
C:\Users\CYMR90~1\AppData\Local\Temp\ccNy8eXk.s:435    .text.cau_dma_disable:000000000000002c .LFE355
C:\Users\CYMR90~1\AppData\Local\Temp\ccNy8eXk.s:31536  .debug_str:000000000002993c .LASF5662
C:\Users\CYMR90~1\AppData\Local\Temp\ccNy8eXk.s:31740  .debug_str:000000000002a4e8 .LASF5663
C:\Users\CYMR90~1\AppData\Local\Temp\ccNy8eXk.s:369    .text.cau_dma_enable:0000000000000000 .LFB354
C:\Users\CYMR90~1\AppData\Local\Temp\ccNy8eXk.s:397    .text.cau_dma_enable:0000000000000028 .LFE354
C:\Users\CYMR90~1\AppData\Local\Temp\ccNy8eXk.s:31646  .debug_str:0000000000029f87 .LASF5665
C:\Users\CYMR90~1\AppData\Local\Temp\ccNy8eXk.s:336    .text.cau_disable:0000000000000000 .LFB353
C:\Users\CYMR90~1\AppData\Local\Temp\ccNy8eXk.s:362    .text.cau_disable:0000000000000020 .LFE353
C:\Users\CYMR90~1\AppData\Local\Temp\ccNy8eXk.s:29508  .debug_str:000000000002172b .LASF5666
C:\Users\CYMR90~1\AppData\Local\Temp\ccNy8eXk.s:304    .text.cau_enable:0000000000000000 .LFB352
C:\Users\CYMR90~1\AppData\Local\Temp\ccNy8eXk.s:329    .text.cau_enable:000000000000001e .LFE352
C:\Users\CYMR90~1\AppData\Local\Temp\ccNy8eXk.s:30708  .debug_str:0000000000026389 .LASF5667
C:\Users\CYMR90~1\AppData\Local\Temp\ccNy8eXk.s:191    .text.cau_context_struct_para_init:0000000000000000 .LFB351
C:\Users\CYMR90~1\AppData\Local\Temp\ccNy8eXk.s:297    .text.cau_context_struct_para_init:00000000000000fa .LFE351
C:\Users\CYMR90~1\AppData\Local\Temp\ccNy8eXk.s:29554  .debug_str:00000000000219e0 .LASF5668
C:\Users\CYMR90~1\AppData\Local\Temp\ccNy8eXk.s:153    .text.cau_iv_struct_para_init:0000000000000000 .LFB350
C:\Users\CYMR90~1\AppData\Local\Temp\ccNy8eXk.s:184    .text.cau_iv_struct_para_init:0000000000000032 .LFE350
C:\Users\CYMR90~1\AppData\Local\Temp\ccNy8eXk.s:25677  .debug_str:000000000001224b .LASF5669
C:\Users\CYMR90~1\AppData\Local\Temp\ccNy8eXk.s:103    .text.cau_key_struct_para_init:0000000000000000 .LFB349
C:\Users\CYMR90~1\AppData\Local\Temp\ccNy8eXk.s:146    .text.cau_key_struct_para_init:0000000000000052 .LFE349
C:\Users\CYMR90~1\AppData\Local\Temp\ccNy8eXk.s:24865  .debug_str:000000000000eede .LASF5670
C:\Users\CYMR90~1\AppData\Local\Temp\ccNy8eXk.s:50     .text.cau_struct_para_init:0000000000000000 .LFB348
C:\Users\CYMR90~1\AppData\Local\Temp\ccNy8eXk.s:96     .text.cau_struct_para_init:000000000000005a .LFE348
C:\Users\CYMR90~1\AppData\Local\Temp\ccNy8eXk.s:29466  .debug_str:00000000000214ce .LASF5671
C:\Users\CYMR90~1\AppData\Local\Temp\ccNy8eXk.s:29310  .debug_str:0000000000020b4f .LASF5672
C:\Users\CYMR90~1\AppData\Local\Temp\ccNy8eXk.s:14     .text.cau_deinit:0000000000000000 .LFB347
C:\Users\CYMR90~1\AppData\Local\Temp\ccNy8eXk.s:43     .text.cau_deinit:000000000000002a .LFE347
C:\Users\CYMR90~1\AppData\Local\Temp\ccNy8eXk.s:1736   .debug_info:0000000000000000 .Ldebug_info0
C:\Users\CYMR90~1\AppData\Local\Temp\ccNy8eXk.s:4086   .debug_macro:0000000000000000 .Ldebug_macro2
C:\Users\CYMR90~1\AppData\Local\Temp\ccNy8eXk.s:27564  .debug_str:0000000000019c4e .LASF314
C:\Users\CYMR90~1\AppData\Local\Temp\ccNy8eXk.s:26888  .debug_str:000000000001712d .LASF315
C:\Users\CYMR90~1\AppData\Local\Temp\ccNy8eXk.s:5033   .debug_macro:0000000000000000 .Ldebug_macro3
C:\Users\CYMR90~1\AppData\Local\Temp\ccNy8eXk.s:23309  .debug_str:0000000000008bad .LASF369
C:\Users\CYMR90~1\AppData\Local\Temp\ccNy8eXk.s:22877  .debug_str:0000000000006f00 .LASF370
C:\Users\CYMR90~1\AppData\Local\Temp\ccNy8eXk.s:27138  .debug_str:000000000001803e .LASF371
C:\Users\CYMR90~1\AppData\Local\Temp\ccNy8eXk.s:5197   .debug_macro:0000000000000000 .Ldebug_macro4
C:\Users\CYMR90~1\AppData\Local\Temp\ccNy8eXk.s:5217   .debug_macro:0000000000000000 .Ldebug_macro5
C:\Users\CYMR90~1\AppData\Local\Temp\ccNy8eXk.s:25789  .debug_str:0000000000012997 .LASF390
C:\Users\CYMR90~1\AppData\Local\Temp\ccNy8eXk.s:5261   .debug_macro:0000000000000000 .Ldebug_macro6
C:\Users\CYMR90~1\AppData\Local\Temp\ccNy8eXk.s:5275   .debug_macro:0000000000000000 .Ldebug_macro7
C:\Users\CYMR90~1\AppData\Local\Temp\ccNy8eXk.s:5343   .debug_macro:0000000000000000 .Ldebug_macro8
C:\Users\CYMR90~1\AppData\Local\Temp\ccNy8eXk.s:5369   .debug_macro:0000000000000000 .Ldebug_macro9
C:\Users\CYMR90~1\AppData\Local\Temp\ccNy8eXk.s:5398   .debug_macro:0000000000000000 .Ldebug_macro10
C:\Users\CYMR90~1\AppData\Local\Temp\ccNy8eXk.s:29802  .debug_str:00000000000228bf .LASF433
C:\Users\CYMR90~1\AppData\Local\Temp\ccNy8eXk.s:5412   .debug_macro:0000000000000000 .Ldebug_macro11
C:\Users\CYMR90~1\AppData\Local\Temp\ccNy8eXk.s:5456   .debug_macro:0000000000000000 .Ldebug_macro12
C:\Users\CYMR90~1\AppData\Local\Temp\ccNy8eXk.s:5482   .debug_macro:0000000000000000 .Ldebug_macro13
C:\Users\CYMR90~1\AppData\Local\Temp\ccNy8eXk.s:30848  .debug_str:0000000000026c15 .LASF569
C:\Users\CYMR90~1\AppData\Local\Temp\ccNy8eXk.s:5853   .debug_macro:0000000000000000 .Ldebug_macro14
C:\Users\CYMR90~1\AppData\Local\Temp\ccNy8eXk.s:25303  .debug_str:00000000000109ee .LASF572
C:\Users\CYMR90~1\AppData\Local\Temp\ccNy8eXk.s:30184  .debug_str:0000000000023fcb .LASF573
C:\Users\CYMR90~1\AppData\Local\Temp\ccNy8eXk.s:5864   .debug_macro:0000000000000000 .Ldebug_macro15
C:\Users\CYMR90~1\AppData\Local\Temp\ccNy8eXk.s:5878   .debug_macro:0000000000000000 .Ldebug_macro16
C:\Users\CYMR90~1\AppData\Local\Temp\ccNy8eXk.s:31980  .debug_str:000000000002b346 .LASF578
C:\Users\CYMR90~1\AppData\Local\Temp\ccNy8eXk.s:5910   .debug_macro:0000000000000000 .Ldebug_macro17
C:\Users\CYMR90~1\AppData\Local\Temp\ccNy8eXk.s:5936   .debug_macro:0000000000000000 .Ldebug_macro18
C:\Users\CYMR90~1\AppData\Local\Temp\ccNy8eXk.s:5947   .debug_macro:0000000000000000 .Ldebug_macro19
C:\Users\CYMR90~1\AppData\Local\Temp\ccNy8eXk.s:5991   .debug_macro:0000000000000000 .Ldebug_macro20
C:\Users\CYMR90~1\AppData\Local\Temp\ccNy8eXk.s:6161   .debug_macro:0000000000000000 .Ldebug_macro21
C:\Users\CYMR90~1\AppData\Local\Temp\ccNy8eXk.s:6172   .debug_macro:0000000000000000 .Ldebug_macro22
C:\Users\CYMR90~1\AppData\Local\Temp\ccNy8eXk.s:25795  .debug_str:00000000000129f0 .LASF675
C:\Users\CYMR90~1\AppData\Local\Temp\ccNy8eXk.s:6228   .debug_macro:0000000000000000 .Ldebug_macro23
C:\Users\CYMR90~1\AppData\Local\Temp\ccNy8eXk.s:6245   .debug_macro:0000000000000000 .Ldebug_macro24
C:\Users\CYMR90~1\AppData\Local\Temp\ccNy8eXk.s:28984  .debug_str:000000000001f722 .LASF693
C:\Users\CYMR90~1\AppData\Local\Temp\ccNy8eXk.s:27144  .debug_str:0000000000018075 .LASF694
C:\Users\CYMR90~1\AppData\Local\Temp\ccNy8eXk.s:6289   .debug_macro:0000000000000000 .Ldebug_macro25
C:\Users\CYMR90~1\AppData\Local\Temp\ccNy8eXk.s:22329  .debug_str:0000000000004da6 .LASF700
C:\Users\CYMR90~1\AppData\Local\Temp\ccNy8eXk.s:23445  .debug_str:0000000000009402 .LASF701
C:\Users\CYMR90~1\AppData\Local\Temp\ccNy8eXk.s:6309   .debug_macro:0000000000000000 .Ldebug_macro26
C:\Users\CYMR90~1\AppData\Local\Temp\ccNy8eXk.s:6320   .debug_macro:0000000000000000 .Ldebug_macro27
C:\Users\CYMR90~1\AppData\Local\Temp\ccNy8eXk.s:6364   .debug_macro:0000000000000000 .Ldebug_macro28
C:\Users\CYMR90~1\AppData\Local\Temp\ccNy8eXk.s:22703  .debug_str:0000000000006468 .LASF749
C:\Users\CYMR90~1\AppData\Local\Temp\ccNy8eXk.s:6465   .debug_macro:0000000000000000 .Ldebug_macro29
C:\Users\CYMR90~1\AppData\Local\Temp\ccNy8eXk.s:6482   .debug_macro:0000000000000000 .Ldebug_macro30
C:\Users\CYMR90~1\AppData\Local\Temp\ccNy8eXk.s:21169  .debug_str:0000000000000433 .LASF763
C:\Users\CYMR90~1\AppData\Local\Temp\ccNy8eXk.s:22511  .debug_str:0000000000005895 .LASF764
C:\Users\CYMR90~1\AppData\Local\Temp\ccNy8eXk.s:6514   .debug_macro:0000000000000000 .Ldebug_macro31
C:\Users\CYMR90~1\AppData\Local\Temp\ccNy8eXk.s:6528   .debug_macro:0000000000000000 .Ldebug_macro32
C:\Users\CYMR90~1\AppData\Local\Temp\ccNy8eXk.s:6698   .debug_macro:0000000000000000 .Ldebug_macro33
C:\Users\CYMR90~1\AppData\Local\Temp\ccNy8eXk.s:24971  .debug_str:000000000000f552 .LASF850
C:\Users\CYMR90~1\AppData\Local\Temp\ccNy8eXk.s:27358  .debug_str:0000000000018e34 .LASF851
C:\Users\CYMR90~1\AppData\Local\Temp\ccNy8eXk.s:6784   .debug_macro:0000000000000000 .Ldebug_macro34
C:\Users\CYMR90~1\AppData\Local\Temp\ccNy8eXk.s:6909   .debug_macro:0000000000000000 .Ldebug_macro35
C:\Users\CYMR90~1\AppData\Local\Temp\ccNy8eXk.s:21451  .debug_str:0000000000001575 .LASF951
C:\Users\CYMR90~1\AppData\Local\Temp\ccNy8eXk.s:7121   .debug_macro:0000000000000000 .Ldebug_macro36
C:\Users\CYMR90~1\AppData\Local\Temp\ccNy8eXk.s:23197  .debug_str:00000000000084e9 .LASF957
C:\Users\CYMR90~1\AppData\Local\Temp\ccNy8eXk.s:22757  .debug_str:0000000000006763 .LASF958
C:\Users\CYMR90~1\AppData\Local\Temp\ccNy8eXk.s:21619  .debug_str:000000000000204c .LASF959
C:\Users\CYMR90~1\AppData\Local\Temp\ccNy8eXk.s:7141   .debug_macro:0000000000000000 .Ldebug_macro37
C:\Users\CYMR90~1\AppData\Local\Temp\ccNy8eXk.s:7233   .debug_macro:0000000000000000 .Ldebug_macro38
C:\Users\CYMR90~1\AppData\Local\Temp\ccNy8eXk.s:8879   .debug_macro:0000000000000000 .Ldebug_macro39
C:\Users\CYMR90~1\AppData\Local\Temp\ccNy8eXk.s:8971   .debug_macro:0000000000000000 .Ldebug_macro40
C:\Users\CYMR90~1\AppData\Local\Temp\ccNy8eXk.s:9027   .debug_macro:0000000000000000 .Ldebug_macro41
C:\Users\CYMR90~1\AppData\Local\Temp\ccNy8eXk.s:9041   .debug_macro:0000000000000000 .Ldebug_macro42
C:\Users\CYMR90~1\AppData\Local\Temp\ccNy8eXk.s:26681  .debug_str:00000000000161b8 .LASF1655
C:\Users\CYMR90~1\AppData\Local\Temp\ccNy8eXk.s:23569  .debug_str:0000000000009c23 .LASF1656
C:\Users\CYMR90~1\AppData\Local\Temp\ccNy8eXk.s:9265   .debug_macro:0000000000000000 .Ldebug_macro43
C:\Users\CYMR90~1\AppData\Local\Temp\ccNy8eXk.s:9312   .debug_macro:0000000000000000 .Ldebug_macro44
C:\Users\CYMR90~1\AppData\Local\Temp\ccNy8eXk.s:9467   .debug_macro:0000000000000000 .Ldebug_macro45
C:\Users\CYMR90~1\AppData\Local\Temp\ccNy8eXk.s:9523   .debug_macro:0000000000000000 .Ldebug_macro46
C:\Users\CYMR90~1\AppData\Local\Temp\ccNy8eXk.s:9534   .debug_macro:0000000000000000 .Ldebug_macro47
C:\Users\CYMR90~1\AppData\Local\Temp\ccNy8eXk.s:31626  .debug_str:0000000000029e8a .LASF1782
C:\Users\CYMR90~1\AppData\Local\Temp\ccNy8eXk.s:26441  .debug_str:0000000000015332 .LASF1783
C:\Users\CYMR90~1\AppData\Local\Temp\ccNy8eXk.s:9665   .debug_macro:0000000000000000 .Ldebug_macro48
C:\Users\CYMR90~1\AppData\Local\Temp\ccNy8eXk.s:10237  .debug_macro:0000000000000000 .Ldebug_macro49
C:\Users\CYMR90~1\AppData\Local\Temp\ccNy8eXk.s:10266  .debug_macro:0000000000000000 .Ldebug_macro50
C:\Users\CYMR90~1\AppData\Local\Temp\ccNy8eXk.s:10343  .debug_macro:0000000000000000 .Ldebug_macro51
C:\Users\CYMR90~1\AppData\Local\Temp\ccNy8eXk.s:10876  .debug_macro:0000000000000000 .Ldebug_macro52
C:\Users\CYMR90~1\AppData\Local\Temp\ccNy8eXk.s:10899  .debug_macro:0000000000000000 .Ldebug_macro53
C:\Users\CYMR90~1\AppData\Local\Temp\ccNy8eXk.s:11165  .debug_macro:0000000000000000 .Ldebug_macro54
C:\Users\CYMR90~1\AppData\Local\Temp\ccNy8eXk.s:11644  .debug_macro:0000000000000000 .Ldebug_macro55
C:\Users\CYMR90~1\AppData\Local\Temp\ccNy8eXk.s:11973  .debug_macro:0000000000000000 .Ldebug_macro56
C:\Users\CYMR90~1\AppData\Local\Temp\ccNy8eXk.s:12062  .debug_macro:0000000000000000 .Ldebug_macro57
C:\Users\CYMR90~1\AppData\Local\Temp\ccNy8eXk.s:12877  .debug_macro:0000000000000000 .Ldebug_macro58
C:\Users\CYMR90~1\AppData\Local\Temp\ccNy8eXk.s:13068  .debug_macro:0000000000000000 .Ldebug_macro59
C:\Users\CYMR90~1\AppData\Local\Temp\ccNy8eXk.s:13571  .debug_macro:0000000000000000 .Ldebug_macro60
C:\Users\CYMR90~1\AppData\Local\Temp\ccNy8eXk.s:13717  .debug_macro:0000000000000000 .Ldebug_macro61
C:\Users\CYMR90~1\AppData\Local\Temp\ccNy8eXk.s:14247  .debug_macro:0000000000000000 .Ldebug_macro62
C:\Users\CYMR90~1\AppData\Local\Temp\ccNy8eXk.s:14669  .debug_macro:0000000000000000 .Ldebug_macro63
C:\Users\CYMR90~1\AppData\Local\Temp\ccNy8eXk.s:17443  .debug_macro:0000000000000000 .Ldebug_macro64
C:\Users\CYMR90~1\AppData\Local\Temp\ccNy8eXk.s:18519  .debug_macro:0000000000000000 .Ldebug_macro65
C:\Users\CYMR90~1\AppData\Local\Temp\ccNy8eXk.s:18788  .debug_macro:0000000000000000 .Ldebug_macro66
C:\Users\CYMR90~1\AppData\Local\Temp\ccNy8eXk.s:19060  .debug_macro:0000000000000000 .Ldebug_macro67
C:\Users\CYMR90~1\AppData\Local\Temp\ccNy8eXk.s:20088  .debug_macro:0000000000000000 .Ldebug_macro68
C:\Users\CYMR90~1\AppData\Local\Temp\ccNy8eXk.s:20132  .debug_macro:0000000000000000 .Ldebug_macro69
C:\Users\CYMR90~1\AppData\Local\Temp\ccNy8eXk.s:20758  .debug_macro:0000000000000000 .Ldebug_macro70
C:\Users\CYMR90~1\AppData\Local\Temp\ccNy8eXk.s:20817  .debug_macro:0000000000000000 .Ldebug_macro71
C:\Users\CYMR90~1\AppData\Local\Temp\ccNy8eXk.s:22109  .debug_str:0000000000003e9b .LASF5556
C:\Users\CYMR90~1\AppData\Local\Temp\ccNy8eXk.s:26591  .debug_str:0000000000015b9e .LASF5557
C:\Users\CYMR90~1\AppData\Local\Temp\ccNy8eXk.s:22493  .debug_str:000000000000575a .LASF0
C:\Users\CYMR90~1\AppData\Local\Temp\ccNy8eXk.s:26870  .debug_str:0000000000017034 .LASF1
C:\Users\CYMR90~1\AppData\Local\Temp\ccNy8eXk.s:25137  .debug_str:0000000000010005 .LASF2
C:\Users\CYMR90~1\AppData\Local\Temp\ccNy8eXk.s:25193  .debug_str:0000000000010381 .LASF3
C:\Users\CYMR90~1\AppData\Local\Temp\ccNy8eXk.s:26485  .debug_str:0000000000015570 .LASF4
C:\Users\CYMR90~1\AppData\Local\Temp\ccNy8eXk.s:32024  .debug_str:000000000002b633 .LASF5
C:\Users\CYMR90~1\AppData\Local\Temp\ccNy8eXk.s:22733  .debug_str:0000000000006627 .LASF6
C:\Users\CYMR90~1\AppData\Local\Temp\ccNy8eXk.s:21961  .debug_str:000000000000357a .LASF7
C:\Users\CYMR90~1\AppData\Local\Temp\ccNy8eXk.s:30306  .debug_str:000000000002483a .LASF8
C:\Users\CYMR90~1\AppData\Local\Temp\ccNy8eXk.s:28208  .debug_str:000000000001c571 .LASF9
C:\Users\CYMR90~1\AppData\Local\Temp\ccNy8eXk.s:27560  .debug_str:0000000000019c31 .LASF10
C:\Users\CYMR90~1\AppData\Local\Temp\ccNy8eXk.s:27414  .debug_str:000000000001927b .LASF11
C:\Users\CYMR90~1\AppData\Local\Temp\ccNy8eXk.s:31866  .debug_str:000000000002ac9c .LASF12
C:\Users\CYMR90~1\AppData\Local\Temp\ccNy8eXk.s:27426  .debug_str:000000000001932f .LASF13
C:\Users\CYMR90~1\AppData\Local\Temp\ccNy8eXk.s:23727  .debug_str:000000000000a5f1 .LASF14
C:\Users\CYMR90~1\AppData\Local\Temp\ccNy8eXk.s:28778  .debug_str:000000000001eab5 .LASF15
C:\Users\CYMR90~1\AppData\Local\Temp\ccNy8eXk.s:29540  .debug_str:0000000000021940 .LASF16
C:\Users\CYMR90~1\AppData\Local\Temp\ccNy8eXk.s:23775  .debug_str:000000000000a8d5 .LASF17
C:\Users\CYMR90~1\AppData\Local\Temp\ccNy8eXk.s:30582  .debug_str:0000000000025be3 .LASF18
C:\Users\CYMR90~1\AppData\Local\Temp\ccNy8eXk.s:24747  .debug_str:000000000000e81d .LASF19
C:\Users\CYMR90~1\AppData\Local\Temp\ccNy8eXk.s:21793  .debug_str:0000000000002abd .LASF20
C:\Users\CYMR90~1\AppData\Local\Temp\ccNy8eXk.s:27228  .debug_str:00000000000185b1 .LASF21
C:\Users\CYMR90~1\AppData\Local\Temp\ccNy8eXk.s:27226  .debug_str:0000000000018597 .LASF22
C:\Users\CYMR90~1\AppData\Local\Temp\ccNy8eXk.s:29852  .debug_str:0000000000022bf6 .LASF23
C:\Users\CYMR90~1\AppData\Local\Temp\ccNy8eXk.s:28162  .debug_str:000000000001c2ef .LASF24
C:\Users\CYMR90~1\AppData\Local\Temp\ccNy8eXk.s:22021  .debug_str:0000000000003915 .LASF25
C:\Users\CYMR90~1\AppData\Local\Temp\ccNy8eXk.s:26615  .debug_str:0000000000015d69 .LASF26
C:\Users\CYMR90~1\AppData\Local\Temp\ccNy8eXk.s:29856  .debug_str:0000000000022c2c .LASF27
C:\Users\CYMR90~1\AppData\Local\Temp\ccNy8eXk.s:29548  .debug_str:0000000000021998 .LASF28
C:\Users\CYMR90~1\AppData\Local\Temp\ccNy8eXk.s:22443  .debug_str:0000000000005470 .LASF29
C:\Users\CYMR90~1\AppData\Local\Temp\ccNy8eXk.s:28564  .debug_str:000000000001dde2 .LASF30
C:\Users\CYMR90~1\AppData\Local\Temp\ccNy8eXk.s:21399  .debug_str:0000000000001291 .LASF31
C:\Users\CYMR90~1\AppData\Local\Temp\ccNy8eXk.s:29018  .debug_str:000000000001f91a .LASF32
C:\Users\CYMR90~1\AppData\Local\Temp\ccNy8eXk.s:23611  .debug_str:0000000000009e8e .LASF33
C:\Users\CYMR90~1\AppData\Local\Temp\ccNy8eXk.s:23461  .debug_str:00000000000094ed .LASF34
C:\Users\CYMR90~1\AppData\Local\Temp\ccNy8eXk.s:24779  .debug_str:000000000000e9d3 .LASF35
C:\Users\CYMR90~1\AppData\Local\Temp\ccNy8eXk.s:27668  .debug_str:000000000001a248 .LASF36
C:\Users\CYMR90~1\AppData\Local\Temp\ccNy8eXk.s:22969  .debug_str:000000000000753e .LASF37
C:\Users\CYMR90~1\AppData\Local\Temp\ccNy8eXk.s:25135  .debug_str:000000000000ffe2 .LASF38
C:\Users\CYMR90~1\AppData\Local\Temp\ccNy8eXk.s:21983  .debug_str:00000000000036a7 .LASF39
C:\Users\CYMR90~1\AppData\Local\Temp\ccNy8eXk.s:21785  .debug_str:0000000000002a2b .LASF40
C:\Users\CYMR90~1\AppData\Local\Temp\ccNy8eXk.s:25293  .debug_str:0000000000010961 .LASF41
C:\Users\CYMR90~1\AppData\Local\Temp\ccNy8eXk.s:25719  .debug_str:00000000000124fd .LASF42
C:\Users\CYMR90~1\AppData\Local\Temp\ccNy8eXk.s:21181  .debug_str:00000000000004e6 .LASF43
C:\Users\CYMR90~1\AppData\Local\Temp\ccNy8eXk.s:27658  .debug_str:000000000001a1b6 .LASF44
C:\Users\CYMR90~1\AppData\Local\Temp\ccNy8eXk.s:25579  .debug_str:0000000000011c42 .LASF45
C:\Users\CYMR90~1\AppData\Local\Temp\ccNy8eXk.s:22261  .debug_str:00000000000048f3 .LASF46
C:\Users\CYMR90~1\AppData\Local\Temp\ccNy8eXk.s:28568  .debug_str:000000000001de21 .LASF47
C:\Users\CYMR90~1\AppData\Local\Temp\ccNy8eXk.s:30308  .debug_str:000000000002484f .LASF48
C:\Users\CYMR90~1\AppData\Local\Temp\ccNy8eXk.s:24517  .debug_str:000000000000da18 .LASF49
C:\Users\CYMR90~1\AppData\Local\Temp\ccNy8eXk.s:21615  .debug_str:0000000000002019 .LASF50
C:\Users\CYMR90~1\AppData\Local\Temp\ccNy8eXk.s:21121  .debug_str:0000000000000131 .LASF51
C:\Users\CYMR90~1\AppData\Local\Temp\ccNy8eXk.s:31640  .debug_str:0000000000029f3b .LASF52
C:\Users\CYMR90~1\AppData\Local\Temp\ccNy8eXk.s:24319  .debug_str:000000000000cd6e .LASF53
C:\Users\CYMR90~1\AppData\Local\Temp\ccNy8eXk.s:26065  .debug_str:0000000000013ba3 .LASF54
C:\Users\CYMR90~1\AppData\Local\Temp\ccNy8eXk.s:25101  .debug_str:000000000000fd91 .LASF55
C:\Users\CYMR90~1\AppData\Local\Temp\ccNy8eXk.s:23055  .debug_str:0000000000007a87 .LASF56
C:\Users\CYMR90~1\AppData\Local\Temp\ccNy8eXk.s:26467  .debug_str:0000000000015474 .LASF57
C:\Users\CYMR90~1\AppData\Local\Temp\ccNy8eXk.s:21351  .debug_str:0000000000000fc1 .LASF58
C:\Users\CYMR90~1\AppData\Local\Temp\ccNy8eXk.s:30586  .debug_str:0000000000025c23 .LASF59
C:\Users\CYMR90~1\AppData\Local\Temp\ccNy8eXk.s:25995  .debug_str:0000000000013769 .LASF60
C:\Users\CYMR90~1\AppData\Local\Temp\ccNy8eXk.s:27944  .debug_str:000000000001b5c2 .LASF61
C:\Users\CYMR90~1\AppData\Local\Temp\ccNy8eXk.s:21851  .debug_str:0000000000002e53 .LASF62
C:\Users\CYMR90~1\AppData\Local\Temp\ccNy8eXk.s:24509  .debug_str:000000000000d9bd .LASF63
C:\Users\CYMR90~1\AppData\Local\Temp\ccNy8eXk.s:24237  .debug_str:000000000000c7eb .LASF64
C:\Users\CYMR90~1\AppData\Local\Temp\ccNy8eXk.s:27644  .debug_str:000000000001a0ed .LASF65
C:\Users\CYMR90~1\AppData\Local\Temp\ccNy8eXk.s:26301  .debug_str:00000000000149f0 .LASF66
C:\Users\CYMR90~1\AppData\Local\Temp\ccNy8eXk.s:31418  .debug_str:000000000002914d .LASF67
C:\Users\CYMR90~1\AppData\Local\Temp\ccNy8eXk.s:31868  .debug_str:000000000002acaf .LASF68
C:\Users\CYMR90~1\AppData\Local\Temp\ccNy8eXk.s:25533  .debug_str:0000000000011905 .LASF69
C:\Users\CYMR90~1\AppData\Local\Temp\ccNy8eXk.s:24671  .debug_str:000000000000e35d .LASF70
C:\Users\CYMR90~1\AppData\Local\Temp\ccNy8eXk.s:22273  .debug_str:0000000000004a46 .LASF71
C:\Users\CYMR90~1\AppData\Local\Temp\ccNy8eXk.s:25567  .debug_str:0000000000011b7f .LASF72
C:\Users\CYMR90~1\AppData\Local\Temp\ccNy8eXk.s:25201  .debug_str:00000000000103f2 .LASF73
C:\Users\CYMR90~1\AppData\Local\Temp\ccNy8eXk.s:25807  .debug_str:0000000000012ae1 .LASF74
C:\Users\CYMR90~1\AppData\Local\Temp\ccNy8eXk.s:25641  .debug_str:000000000001201d .LASF75
C:\Users\CYMR90~1\AppData\Local\Temp\ccNy8eXk.s:25747  .debug_str:00000000000126cc .LASF76
C:\Users\CYMR90~1\AppData\Local\Temp\ccNy8eXk.s:30220  .debug_str:0000000000024281 .LASF77
C:\Users\CYMR90~1\AppData\Local\Temp\ccNy8eXk.s:28140  .debug_str:000000000001c19d .LASF78
C:\Users\CYMR90~1\AppData\Local\Temp\ccNy8eXk.s:28534  .debug_str:000000000001db9d .LASF79
C:\Users\CYMR90~1\AppData\Local\Temp\ccNy8eXk.s:31398  .debug_str:0000000000028ffe .LASF80
C:\Users\CYMR90~1\AppData\Local\Temp\ccNy8eXk.s:23563  .debug_str:0000000000009baf .LASF81
C:\Users\CYMR90~1\AppData\Local\Temp\ccNy8eXk.s:23761  .debug_str:000000000000a7a1 .LASF82
C:\Users\CYMR90~1\AppData\Local\Temp\ccNy8eXk.s:31530  .debug_str:00000000000298f4 .LASF83
C:\Users\CYMR90~1\AppData\Local\Temp\ccNy8eXk.s:23503  .debug_str:00000000000097a6 .LASF84
C:\Users\CYMR90~1\AppData\Local\Temp\ccNy8eXk.s:22793  .debug_str:00000000000069b3 .LASF85
C:\Users\CYMR90~1\AppData\Local\Temp\ccNy8eXk.s:27846  .debug_str:000000000001af79 .LASF86
C:\Users\CYMR90~1\AppData\Local\Temp\ccNy8eXk.s:31560  .debug_str:0000000000029a76 .LASF87
C:\Users\CYMR90~1\AppData\Local\Temp\ccNy8eXk.s:28960  .debug_str:000000000001f5ad .LASF88
C:\Users\CYMR90~1\AppData\Local\Temp\ccNy8eXk.s:27764  .debug_str:000000000001aa3a .LASF89
C:\Users\CYMR90~1\AppData\Local\Temp\ccNy8eXk.s:28988  .debug_str:000000000001f755 .LASF90
C:\Users\CYMR90~1\AppData\Local\Temp\ccNy8eXk.s:31774  .debug_str:000000000002a737 .LASF91
C:\Users\CYMR90~1\AppData\Local\Temp\ccNy8eXk.s:29308  .debug_str:0000000000020b3b .LASF92
C:\Users\CYMR90~1\AppData\Local\Temp\ccNy8eXk.s:23639  .debug_str:000000000000a067 .LASF93
C:\Users\CYMR90~1\AppData\Local\Temp\ccNy8eXk.s:28414  .debug_str:000000000001d401 .LASF94
C:\Users\CYMR90~1\AppData\Local\Temp\ccNy8eXk.s:26023  .debug_str:0000000000013922 .LASF95
C:\Users\CYMR90~1\AppData\Local\Temp\ccNy8eXk.s:26007  .debug_str:0000000000013832 .LASF96
C:\Users\CYMR90~1\AppData\Local\Temp\ccNy8eXk.s:32074  .debug_str:000000000002b997 .LASF97
C:\Users\CYMR90~1\AppData\Local\Temp\ccNy8eXk.s:25653  .debug_str:00000000000120fa .LASF98
C:\Users\CYMR90~1\AppData\Local\Temp\ccNy8eXk.s:29566  .debug_str:0000000000021ab3 .LASF99
C:\Users\CYMR90~1\AppData\Local\Temp\ccNy8eXk.s:23965  .debug_str:000000000000b5b6 .LASF100
C:\Users\CYMR90~1\AppData\Local\Temp\ccNy8eXk.s:25149  .debug_str:0000000000010090 .LASF101
C:\Users\CYMR90~1\AppData\Local\Temp\ccNy8eXk.s:26531  .debug_str:00000000000157e5 .LASF102
C:\Users\CYMR90~1\AppData\Local\Temp\ccNy8eXk.s:25419  .debug_str:0000000000011125 .LASF103
C:\Users\CYMR90~1\AppData\Local\Temp\ccNy8eXk.s:24423  .debug_str:000000000000d41a .LASF104
C:\Users\CYMR90~1\AppData\Local\Temp\ccNy8eXk.s:25589  .debug_str:0000000000011cbc .LASF105
C:\Users\CYMR90~1\AppData\Local\Temp\ccNy8eXk.s:22321  .debug_str:0000000000004d31 .LASF106
C:\Users\CYMR90~1\AppData\Local\Temp\ccNy8eXk.s:25413  .debug_str:00000000000110c0 .LASF107
C:\Users\CYMR90~1\AppData\Local\Temp\ccNy8eXk.s:24419  .debug_str:000000000000d3f6 .LASF108
C:\Users\CYMR90~1\AppData\Local\Temp\ccNy8eXk.s:25863  .debug_str:0000000000012e52 .LASF109
C:\Users\CYMR90~1\AppData\Local\Temp\ccNy8eXk.s:24803  .debug_str:000000000000eb6d .LASF110
C:\Users\CYMR90~1\AppData\Local\Temp\ccNy8eXk.s:27278  .debug_str:0000000000018890 .LASF111
C:\Users\CYMR90~1\AppData\Local\Temp\ccNy8eXk.s:23903  .debug_str:000000000000b223 .LASF112
C:\Users\CYMR90~1\AppData\Local\Temp\ccNy8eXk.s:23637  .debug_str:000000000000a03e .LASF113
C:\Users\CYMR90~1\AppData\Local\Temp\ccNy8eXk.s:26563  .debug_str:00000000000159e5 .LASF114
C:\Users\CYMR90~1\AppData\Local\Temp\ccNy8eXk.s:31458  .debug_str:000000000002942a .LASF115
C:\Users\CYMR90~1\AppData\Local\Temp\ccNy8eXk.s:30098  .debug_str:0000000000023aa8 .LASF116
C:\Users\CYMR90~1\AppData\Local\Temp\ccNy8eXk.s:23395  .debug_str:0000000000009113 .LASF117
C:\Users\CYMR90~1\AppData\Local\Temp\ccNy8eXk.s:28004  .debug_str:000000000001b968 .LASF118
C:\Users\CYMR90~1\AppData\Local\Temp\ccNy8eXk.s:32190  .debug_str:000000000002c16c .LASF119
C:\Users\CYMR90~1\AppData\Local\Temp\ccNy8eXk.s:24721  .debug_str:000000000000e632 .LASF120
C:\Users\CYMR90~1\AppData\Local\Temp\ccNy8eXk.s:30202  .debug_str:00000000000240b3 .LASF121
C:\Users\CYMR90~1\AppData\Local\Temp\ccNy8eXk.s:24201  .debug_str:000000000000c5aa .LASF122
C:\Users\CYMR90~1\AppData\Local\Temp\ccNy8eXk.s:24307  .debug_str:000000000000ccdb .LASF123
C:\Users\CYMR90~1\AppData\Local\Temp\ccNy8eXk.s:21957  .debug_str:000000000000353b .LASF124
C:\Users\CYMR90~1\AppData\Local\Temp\ccNy8eXk.s:22235  .debug_str:0000000000004737 .LASF125
C:\Users\CYMR90~1\AppData\Local\Temp\ccNy8eXk.s:31138  .debug_str:0000000000027ec6 .LASF126
C:\Users\CYMR90~1\AppData\Local\Temp\ccNy8eXk.s:25595  .debug_str:0000000000011cfa .LASF127
C:\Users\CYMR90~1\AppData\Local\Temp\ccNy8eXk.s:28388  .debug_str:000000000001d280 .LASF128
C:\Users\CYMR90~1\AppData\Local\Temp\ccNy8eXk.s:23469  .debug_str:0000000000009565 .LASF129
C:\Users\CYMR90~1\AppData\Local\Temp\ccNy8eXk.s:30710  .debug_str:00000000000263a6 .LASF130
C:\Users\CYMR90~1\AppData\Local\Temp\ccNy8eXk.s:31014  .debug_str:00000000000276b9 .LASF131
C:\Users\CYMR90~1\AppData\Local\Temp\ccNy8eXk.s:30824  .debug_str:0000000000026a8f .LASF132
C:\Users\CYMR90~1\AppData\Local\Temp\ccNy8eXk.s:24695  .debug_str:000000000000e49b .LASF133
C:\Users\CYMR90~1\AppData\Local\Temp\ccNy8eXk.s:30116  .debug_str:0000000000023bad .LASF134
C:\Users\CYMR90~1\AppData\Local\Temp\ccNy8eXk.s:22227  .debug_str:00000000000046ae .LASF135
C:\Users\CYMR90~1\AppData\Local\Temp\ccNy8eXk.s:23101  .debug_str:0000000000007d6b .LASF136
C:\Users\CYMR90~1\AppData\Local\Temp\ccNy8eXk.s:31860  .debug_str:000000000002ac45 .LASF137
C:\Users\CYMR90~1\AppData\Local\Temp\ccNy8eXk.s:25859  .debug_str:0000000000012e22 .LASF138
C:\Users\CYMR90~1\AppData\Local\Temp\ccNy8eXk.s:31348  .debug_str:0000000000028d32 .LASF139
C:\Users\CYMR90~1\AppData\Local\Temp\ccNy8eXk.s:30480  .debug_str:00000000000254a2 .LASF140
C:\Users\CYMR90~1\AppData\Local\Temp\ccNy8eXk.s:28098  .debug_str:000000000001bf11 .LASF141
C:\Users\CYMR90~1\AppData\Local\Temp\ccNy8eXk.s:23599  .debug_str:0000000000009dcf .LASF142
C:\Users\CYMR90~1\AppData\Local\Temp\ccNy8eXk.s:31932  .debug_str:000000000002b055 .LASF143
C:\Users\CYMR90~1\AppData\Local\Temp\ccNy8eXk.s:27250  .debug_str:00000000000186c5 .LASF144
C:\Users\CYMR90~1\AppData\Local\Temp\ccNy8eXk.s:26315  .debug_str:0000000000014af4 .LASF145
C:\Users\CYMR90~1\AppData\Local\Temp\ccNy8eXk.s:24271  .debug_str:000000000000cac7 .LASF146
C:\Users\CYMR90~1\AppData\Local\Temp\ccNy8eXk.s:22271  .debug_str:0000000000004a2f .LASF147
C:\Users\CYMR90~1\AppData\Local\Temp\ccNy8eXk.s:24845  .debug_str:000000000000ede1 .LASF148
C:\Users\CYMR90~1\AppData\Local\Temp\ccNy8eXk.s:27230  .debug_str:00000000000185c5 .LASF149
C:\Users\CYMR90~1\AppData\Local\Temp\ccNy8eXk.s:21197  .debug_str:00000000000005b4 .LASF150
C:\Users\CYMR90~1\AppData\Local\Temp\ccNy8eXk.s:29550  .debug_str:00000000000219b2 .LASF151
C:\Users\CYMR90~1\AppData\Local\Temp\ccNy8eXk.s:25853  .debug_str:0000000000012da0 .LASF152
C:\Users\CYMR90~1\AppData\Local\Temp\ccNy8eXk.s:30486  .debug_str:00000000000254f5 .LASF153
C:\Users\CYMR90~1\AppData\Local\Temp\ccNy8eXk.s:28294  .debug_str:000000000001cb3a .LASF154
C:\Users\CYMR90~1\AppData\Local\Temp\ccNy8eXk.s:25255  .debug_str:0000000000010730 .LASF155
C:\Users\CYMR90~1\AppData\Local\Temp\ccNy8eXk.s:28306  .debug_str:000000000001cc20 .LASF156
C:\Users\CYMR90~1\AppData\Local\Temp\ccNy8eXk.s:28420  .debug_str:000000000001d469 .LASF157
C:\Users\CYMR90~1\AppData\Local\Temp\ccNy8eXk.s:24133  .debug_str:000000000000c18c .LASF158
C:\Users\CYMR90~1\AppData\Local\Temp\ccNy8eXk.s:23201  .debug_str:000000000000850b .LASF159
C:\Users\CYMR90~1\AppData\Local\Temp\ccNy8eXk.s:27950  .debug_str:000000000001b616 .LASF160
C:\Users\CYMR90~1\AppData\Local\Temp\ccNy8eXk.s:29368  .debug_str:0000000000020e9a .LASF161
C:\Users\CYMR90~1\AppData\Local\Temp\ccNy8eXk.s:27552  .debug_str:0000000000019b9f .LASF162
C:\Users\CYMR90~1\AppData\Local\Temp\ccNy8eXk.s:30106  .debug_str:0000000000023b1a .LASF163
C:\Users\CYMR90~1\AppData\Local\Temp\ccNy8eXk.s:31760  .debug_str:000000000002a669 .LASF164
C:\Users\CYMR90~1\AppData\Local\Temp\ccNy8eXk.s:22959  .debug_str:00000000000074ba .LASF165
C:\Users\CYMR90~1\AppData\Local\Temp\ccNy8eXk.s:31446  .debug_str:0000000000029310 .LASF166
C:\Users\CYMR90~1\AppData\Local\Temp\ccNy8eXk.s:31272  .debug_str:0000000000028889 .LASF167
C:\Users\CYMR90~1\AppData\Local\Temp\ccNy8eXk.s:30024  .debug_str:00000000000235df .LASF168
C:\Users\CYMR90~1\AppData\Local\Temp\ccNy8eXk.s:27012  .debug_str:000000000001787a .LASF169
C:\Users\CYMR90~1\AppData\Local\Temp\ccNy8eXk.s:30888  .debug_str:0000000000026e7e .LASF170
C:\Users\CYMR90~1\AppData\Local\Temp\ccNy8eXk.s:26643  .debug_str:0000000000015f22 .LASF171
C:\Users\CYMR90~1\AppData\Local\Temp\ccNy8eXk.s:28214  .debug_str:000000000001c5c6 .LASF172
C:\Users\CYMR90~1\AppData\Local\Temp\ccNy8eXk.s:23591  .debug_str:0000000000009d5b .LASF173
C:\Users\CYMR90~1\AppData\Local\Temp\ccNy8eXk.s:29914  .debug_str:0000000000022f8d .LASF174
C:\Users\CYMR90~1\AppData\Local\Temp\ccNy8eXk.s:22621  .debug_str:0000000000005f29 .LASF175
C:\Users\CYMR90~1\AppData\Local\Temp\ccNy8eXk.s:23437  .debug_str:0000000000009399 .LASF176
C:\Users\CYMR90~1\AppData\Local\Temp\ccNy8eXk.s:22099  .debug_str:0000000000003df8 .LASF177
C:\Users\CYMR90~1\AppData\Local\Temp\ccNy8eXk.s:27422  .debug_str:00000000000192ed .LASF178
C:\Users\CYMR90~1\AppData\Local\Temp\ccNy8eXk.s:24359  .debug_str:000000000000d010 .LASF179
C:\Users\CYMR90~1\AppData\Local\Temp\ccNy8eXk.s:21609  .debug_str:0000000000001f94 .LASF180
C:\Users\CYMR90~1\AppData\Local\Temp\ccNy8eXk.s:32070  .debug_str:000000000002b96c .LASF181
C:\Users\CYMR90~1\AppData\Local\Temp\ccNy8eXk.s:21385  .debug_str:00000000000011e6 .LASF182
C:\Users\CYMR90~1\AppData\Local\Temp\ccNy8eXk.s:25967  .debug_str:0000000000013580 .LASF183
C:\Users\CYMR90~1\AppData\Local\Temp\ccNy8eXk.s:26379  .debug_str:0000000000014f1d .LASF184
C:\Users\CYMR90~1\AppData\Local\Temp\ccNy8eXk.s:31282  .debug_str:0000000000028938 .LASF185
C:\Users\CYMR90~1\AppData\Local\Temp\ccNy8eXk.s:24463  .debug_str:000000000000d73c .LASF186
C:\Users\CYMR90~1\AppData\Local\Temp\ccNy8eXk.s:22945  .debug_str:0000000000007393 .LASF187
C:\Users\CYMR90~1\AppData\Local\Temp\ccNy8eXk.s:28938  .debug_str:000000000001f493 .LASF188
C:\Users\CYMR90~1\AppData\Local\Temp\ccNy8eXk.s:24741  .debug_str:000000000000e7c3 .LASF189
C:\Users\CYMR90~1\AppData\Local\Temp\ccNy8eXk.s:26071  .debug_str:0000000000013c02 .LASF190
C:\Users\CYMR90~1\AppData\Local\Temp\ccNy8eXk.s:29426  .debug_str:00000000000211c8 .LASF191
C:\Users\CYMR90~1\AppData\Local\Temp\ccNy8eXk.s:26801  .debug_str:00000000000169b2 .LASF192
C:\Users\CYMR90~1\AppData\Local\Temp\ccNy8eXk.s:29662  .debug_str:0000000000022072 .LASF193
C:\Users\CYMR90~1\AppData\Local\Temp\ccNy8eXk.s:22575  .debug_str:0000000000005c6b .LASF194
C:\Users\CYMR90~1\AppData\Local\Temp\ccNy8eXk.s:21927  .debug_str:000000000000332f .LASF195
C:\Users\CYMR90~1\AppData\Local\Temp\ccNy8eXk.s:24563  .debug_str:000000000000dca1 .LASF196
C:\Users\CYMR90~1\AppData\Local\Temp\ccNy8eXk.s:25477  .debug_str:00000000000114ab .LASF197
C:\Users\CYMR90~1\AppData\Local\Temp\ccNy8eXk.s:22427  .debug_str:0000000000005352 .LASF198
C:\Users\CYMR90~1\AppData\Local\Temp\ccNy8eXk.s:31170  .debug_str:000000000002810d .LASF199
C:\Users\CYMR90~1\AppData\Local\Temp\ccNy8eXk.s:30120  .debug_str:0000000000023be5 .LASF200
C:\Users\CYMR90~1\AppData\Local\Temp\ccNy8eXk.s:28428  .debug_str:000000000001d4c7 .LASF201
C:\Users\CYMR90~1\AppData\Local\Temp\ccNy8eXk.s:23567  .debug_str:0000000000009be2 .LASF202
C:\Users\CYMR90~1\AppData\Local\Temp\ccNy8eXk.s:31618  .debug_str:0000000000029df9 .LASF203
C:\Users\CYMR90~1\AppData\Local\Temp\ccNy8eXk.s:21939  .debug_str:0000000000003400 .LASF204
C:\Users\CYMR90~1\AppData\Local\Temp\ccNy8eXk.s:24977  .debug_str:000000000000f5ac .LASF205
C:\Users\CYMR90~1\AppData\Local\Temp\ccNy8eXk.s:31356  .debug_str:0000000000028d8d .LASF206
C:\Users\CYMR90~1\AppData\Local\Temp\ccNy8eXk.s:26191  .debug_str:000000000001435c .LASF207
C:\Users\CYMR90~1\AppData\Local\Temp\ccNy8eXk.s:28976  .debug_str:000000000001f6b3 .LASF208
C:\Users\CYMR90~1\AppData\Local\Temp\ccNy8eXk.s:24197  .debug_str:000000000000c57c .LASF209
C:\Users\CYMR90~1\AppData\Local\Temp\ccNy8eXk.s:32286  .debug_str:000000000002c793 .LASF210
C:\Users\CYMR90~1\AppData\Local\Temp\ccNy8eXk.s:26163  .debug_str:00000000000141b4 .LASF211
C:\Users\CYMR90~1\AppData\Local\Temp\ccNy8eXk.s:28820  .debug_str:000000000001ed1b .LASF212
C:\Users\CYMR90~1\AppData\Local\Temp\ccNy8eXk.s:27442  .debug_str:000000000001941b .LASF213
C:\Users\CYMR90~1\AppData\Local\Temp\ccNy8eXk.s:22663  .debug_str:00000000000061db .LASF214
C:\Users\CYMR90~1\AppData\Local\Temp\ccNy8eXk.s:26171  .debug_str:0000000000014224 .LASF215
C:\Users\CYMR90~1\AppData\Local\Temp\ccNy8eXk.s:28136  .debug_str:000000000001c14d .LASF216
C:\Users\CYMR90~1\AppData\Local\Temp\ccNy8eXk.s:29086  .debug_str:000000000001fd52 .LASF217
C:\Users\CYMR90~1\AppData\Local\Temp\ccNy8eXk.s:25055  .debug_str:000000000000faaf .LASF218
C:\Users\CYMR90~1\AppData\Local\Temp\ccNy8eXk.s:30488  .debug_str:0000000000025531 .LASF219
C:\Users\CYMR90~1\AppData\Local\Temp\ccNy8eXk.s:30298  .debug_str:00000000000247cd .LASF220
C:\Users\CYMR90~1\AppData\Local\Temp\ccNy8eXk.s:29814  .debug_str:000000000002294d .LASF221
C:\Users\CYMR90~1\AppData\Local\Temp\ccNy8eXk.s:26451  .debug_str:00000000000153a9 .LASF222
C:\Users\CYMR90~1\AppData\Local\Temp\ccNy8eXk.s:22631  .debug_str:0000000000005fab .LASF223
C:\Users\CYMR90~1\AppData\Local\Temp\ccNy8eXk.s:23301  .debug_str:0000000000008b3b .LASF224
C:\Users\CYMR90~1\AppData\Local\Temp\ccNy8eXk.s:31942  .debug_str:000000000002b0d9 .LASF225
C:\Users\CYMR90~1\AppData\Local\Temp\ccNy8eXk.s:24635  .debug_str:000000000000e12f .LASF226
C:\Users\CYMR90~1\AppData\Local\Temp\ccNy8eXk.s:28290  .debug_str:000000000001cb0c .LASF227
C:\Users\CYMR90~1\AppData\Local\Temp\ccNy8eXk.s:28146  .debug_str:000000000001c1f3 .LASF228
C:\Users\CYMR90~1\AppData\Local\Temp\ccNy8eXk.s:24577  .debug_str:000000000000dd7e .LASF229
C:\Users\CYMR90~1\AppData\Local\Temp\ccNy8eXk.s:28860  .debug_str:000000000001ef86 .LASF230
C:\Users\CYMR90~1\AppData\Local\Temp\ccNy8eXk.s:23353  .debug_str:0000000000008e7d .LASF231
C:\Users\CYMR90~1\AppData\Local\Temp\ccNy8eXk.s:22673  .debug_str:000000000000628a .LASF232
C:\Users\CYMR90~1\AppData\Local\Temp\ccNy8eXk.s:23253  .debug_str:000000000000881e .LASF233
C:\Users\CYMR90~1\AppData\Local\Temp\ccNy8eXk.s:25247  .debug_str:00000000000106ad .LASF234
C:\Users\CYMR90~1\AppData\Local\Temp\ccNy8eXk.s:24973  .debug_str:000000000000f564 .LASF235
C:\Users\CYMR90~1\AppData\Local\Temp\ccNy8eXk.s:30032  .debug_str:000000000002368b .LASF236
C:\Users\CYMR90~1\AppData\Local\Temp\ccNy8eXk.s:24993  .debug_str:000000000000f695 .LASF237
C:\Users\CYMR90~1\AppData\Local\Temp\ccNy8eXk.s:30706  .debug_str:000000000002636d .LASF238
C:\Users\CYMR90~1\AppData\Local\Temp\ccNy8eXk.s:30014  .debug_str:000000000002353c .LASF239
C:\Users\CYMR90~1\AppData\Local\Temp\ccNy8eXk.s:30264  .debug_str:000000000002459f .LASF240
C:\Users\CYMR90~1\AppData\Local\Temp\ccNy8eXk.s:23069  .debug_str:0000000000007b9d .LASF241
C:\Users\CYMR90~1\AppData\Local\Temp\ccNy8eXk.s:24657  .debug_str:000000000000e27c .LASF242
C:\Users\CYMR90~1\AppData\Local\Temp\ccNy8eXk.s:25637  .debug_str:0000000000011fb5 .LASF243
C:\Users\CYMR90~1\AppData\Local\Temp\ccNy8eXk.s:30044  .debug_str:0000000000023735 .LASF244
C:\Users\CYMR90~1\AppData\Local\Temp\ccNy8eXk.s:25837  .debug_str:0000000000012c80 .LASF245
C:\Users\CYMR90~1\AppData\Local\Temp\ccNy8eXk.s:28870  .debug_str:000000000001f04e .LASF246
C:\Users\CYMR90~1\AppData\Local\Temp\ccNy8eXk.s:27214  .debug_str:00000000000184b1 .LASF247
C:\Users\CYMR90~1\AppData\Local\Temp\ccNy8eXk.s:26735  .debug_str:00000000000164bd .LASF248
C:\Users\CYMR90~1\AppData\Local\Temp\ccNy8eXk.s:28228  .debug_str:000000000001c6d9 .LASF249
C:\Users\CYMR90~1\AppData\Local\Temp\ccNy8eXk.s:27608  .debug_str:0000000000019ed2 .LASF250
C:\Users\CYMR90~1\AppData\Local\Temp\ccNy8eXk.s:28164  .debug_str:000000000001c2fe .LASF251
C:\Users\CYMR90~1\AppData\Local\Temp\ccNy8eXk.s:29864  .debug_str:0000000000022cc0 .LASF252
C:\Users\CYMR90~1\AppData\Local\Temp\ccNy8eXk.s:24547  .debug_str:000000000000dbdf .LASF253
C:\Users\CYMR90~1\AppData\Local\Temp\ccNy8eXk.s:30558  .debug_str:0000000000025a73 .LASF254
C:\Users\CYMR90~1\AppData\Local\Temp\ccNy8eXk.s:24403  .debug_str:000000000000d2d4 .LASF255
C:\Users\CYMR90~1\AppData\Local\Temp\ccNy8eXk.s:27518  .debug_str:0000000000019965 .LASF256
C:\Users\CYMR90~1\AppData\Local\Temp\ccNy8eXk.s:24653  .debug_str:000000000000e235 .LASF257
C:\Users\CYMR90~1\AppData\Local\Temp\ccNy8eXk.s:28808  .debug_str:000000000001ec3e .LASF258
C:\Users\CYMR90~1\AppData\Local\Temp\ccNy8eXk.s:23863  .debug_str:000000000000aeda .LASF259
C:\Users\CYMR90~1\AppData\Local\Temp\ccNy8eXk.s:21273  .debug_str:0000000000000a96 .LASF260
C:\Users\CYMR90~1\AppData\Local\Temp\ccNy8eXk.s:29858  .debug_str:0000000000022c46 .LASF261
C:\Users\CYMR90~1\AppData\Local\Temp\ccNy8eXk.s:31150  .debug_str:0000000000027f6c .LASF262
C:\Users\CYMR90~1\AppData\Local\Temp\ccNy8eXk.s:26143  .debug_str:0000000000014048 .LASF263
C:\Users\CYMR90~1\AppData\Local\Temp\ccNy8eXk.s:28120  .debug_str:000000000001c060 .LASF264
C:\Users\CYMR90~1\AppData\Local\Temp\ccNy8eXk.s:25105  .debug_str:000000000000fdd8 .LASF265
C:\Users\CYMR90~1\AppData\Local\Temp\ccNy8eXk.s:24579  .debug_str:000000000000ddbf .LASF266
C:\Users\CYMR90~1\AppData\Local\Temp\ccNy8eXk.s:23915  .debug_str:000000000000b2f7 .LASF267
C:\Users\CYMR90~1\AppData\Local\Temp\ccNy8eXk.s:28216  .debug_str:000000000001c5db .LASF268
C:\Users\CYMR90~1\AppData\Local\Temp\ccNy8eXk.s:24217  .debug_str:000000000000c6c6 .LASF269
C:\Users\CYMR90~1\AppData\Local\Temp\ccNy8eXk.s:25169  .debug_str:00000000000101fd .LASF270
C:\Users\CYMR90~1\AppData\Local\Temp\ccNy8eXk.s:26423  .debug_str:00000000000151dd .LASF271
C:\Users\CYMR90~1\AppData\Local\Temp\ccNy8eXk.s:30806  .debug_str:0000000000026995 .LASF272
C:\Users\CYMR90~1\AppData\Local\Temp\ccNy8eXk.s:22837  .debug_str:0000000000006c55 .LASF273
C:\Users\CYMR90~1\AppData\Local\Temp\ccNy8eXk.s:21727  .debug_str:000000000000264c .LASF274
C:\Users\CYMR90~1\AppData\Local\Temp\ccNy8eXk.s:22927  .debug_str:000000000000725c .LASF275
C:\Users\CYMR90~1\AppData\Local\Temp\ccNy8eXk.s:24279  .debug_str:000000000000cb2a .LASF276
C:\Users\CYMR90~1\AppData\Local\Temp\ccNy8eXk.s:24117  .debug_str:000000000000c078 .LASF277
C:\Users\CYMR90~1\AppData\Local\Temp\ccNy8eXk.s:21409  .debug_str:0000000000001305 .LASF278
C:\Users\CYMR90~1\AppData\Local\Temp\ccNy8eXk.s:22761  .debug_str:000000000000678d .LASF279
C:\Users\CYMR90~1\AppData\Local\Temp\ccNy8eXk.s:31468  .debug_str:00000000000294be .LASF280
C:\Users\CYMR90~1\AppData\Local\Temp\ccNy8eXk.s:23615  .debug_str:0000000000009ec6 .LASF281
C:\Users\CYMR90~1\AppData\Local\Temp\ccNy8eXk.s:22727  .debug_str:00000000000065db .LASF282
C:\Users\CYMR90~1\AppData\Local\Temp\ccNy8eXk.s:22625  .debug_str:0000000000005f59 .LASF283
C:\Users\CYMR90~1\AppData\Local\Temp\ccNy8eXk.s:22379  .debug_str:00000000000050ab .LASF284
C:\Users\CYMR90~1\AppData\Local\Temp\ccNy8eXk.s:30368  .debug_str:0000000000024c72 .LASF285
C:\Users\CYMR90~1\AppData\Local\Temp\ccNy8eXk.s:31184  .debug_str:0000000000028222 .LASF286
C:\Users\CYMR90~1\AppData\Local\Temp\ccNy8eXk.s:31454  .debug_str:0000000000029358 .LASF287
C:\Users\CYMR90~1\AppData\Local\Temp\ccNy8eXk.s:31370  .debug_str:0000000000028e45 .LASF288
C:\Users\CYMR90~1\AppData\Local\Temp\ccNy8eXk.s:32218  .debug_str:000000000002c339 .LASF289
C:\Users\CYMR90~1\AppData\Local\Temp\ccNy8eXk.s:27158  .debug_str:000000000001816e .LASF290
C:\Users\CYMR90~1\AppData\Local\Temp\ccNy8eXk.s:26195  .debug_str:0000000000014382 .LASF291
C:\Users\CYMR90~1\AppData\Local\Temp\ccNy8eXk.s:30404  .debug_str:0000000000024ed2 .LASF292
C:\Users\CYMR90~1\AppData\Local\Temp\ccNy8eXk.s:22013  .debug_str:0000000000003896 .LASF293
C:\Users\CYMR90~1\AppData\Local\Temp\ccNy8eXk.s:29320  .debug_str:0000000000020bcf .LASF294
C:\Users\CYMR90~1\AppData\Local\Temp\ccNy8eXk.s:22301  .debug_str:0000000000004be4 .LASF295
C:\Users\CYMR90~1\AppData\Local\Temp\ccNy8eXk.s:31804  .debug_str:000000000002a917 .LASF296
C:\Users\CYMR90~1\AppData\Local\Temp\ccNy8eXk.s:31990  .debug_str:000000000002b3cc .LASF297
C:\Users\CYMR90~1\AppData\Local\Temp\ccNy8eXk.s:27032  .debug_str:00000000000179f3 .LASF298
C:\Users\CYMR90~1\AppData\Local\Temp\ccNy8eXk.s:21257  .debug_str:0000000000000990 .LASF299
C:\Users\CYMR90~1\AppData\Local\Temp\ccNy8eXk.s:25075  .debug_str:000000000000fbf0 .LASF300
C:\Users\CYMR90~1\AppData\Local\Temp\ccNy8eXk.s:27788  .debug_str:000000000001abb2 .LASF301
C:\Users\CYMR90~1\AppData\Local\Temp\ccNy8eXk.s:26309  .debug_str:0000000000014a66 .LASF302
C:\Users\CYMR90~1\AppData\Local\Temp\ccNy8eXk.s:25783  .debug_str:0000000000012933 .LASF303
C:\Users\CYMR90~1\AppData\Local\Temp\ccNy8eXk.s:21649  .debug_str:00000000000021b1 .LASF304
C:\Users\CYMR90~1\AppData\Local\Temp\ccNy8eXk.s:24225  .debug_str:000000000000c74a .LASF305
C:\Users\CYMR90~1\AppData\Local\Temp\ccNy8eXk.s:24379  .debug_str:000000000000d121 .LASF306
C:\Users\CYMR90~1\AppData\Local\Temp\ccNy8eXk.s:25091  .debug_str:000000000000fcf9 .LASF307
C:\Users\CYMR90~1\AppData\Local\Temp\ccNy8eXk.s:30388  .debug_str:0000000000024dbd .LASF308
C:\Users\CYMR90~1\AppData\Local\Temp\ccNy8eXk.s:29980  .debug_str:0000000000023328 .LASF309
C:\Users\CYMR90~1\AppData\Local\Temp\ccNy8eXk.s:24637  .debug_str:000000000000e148 .LASF310
C:\Users\CYMR90~1\AppData\Local\Temp\ccNy8eXk.s:30702  .debug_str:0000000000026342 .LASF311
C:\Users\CYMR90~1\AppData\Local\Temp\ccNy8eXk.s:30214  .debug_str:000000000002424a .LASF312
C:\Users\CYMR90~1\AppData\Local\Temp\ccNy8eXk.s:24341  .debug_str:000000000000cea2 .LASF313
C:\Users\CYMR90~1\AppData\Local\Temp\ccNy8eXk.s:27298  .debug_str:00000000000189ea .LASF316
C:\Users\CYMR90~1\AppData\Local\Temp\ccNy8eXk.s:27660  .debug_str:000000000001a1d3 .LASF317
C:\Users\CYMR90~1\AppData\Local\Temp\ccNy8eXk.s:28010  .debug_str:000000000001b9a6 .LASF318
C:\Users\CYMR90~1\AppData\Local\Temp\ccNy8eXk.s:25083  .debug_str:000000000000fc8d .LASF319
C:\Users\CYMR90~1\AppData\Local\Temp\ccNy8eXk.s:23985  .debug_str:000000000000b77c .LASF320
C:\Users\CYMR90~1\AppData\Local\Temp\ccNy8eXk.s:31416  .debug_str:0000000000029141 .LASF321
C:\Users\CYMR90~1\AppData\Local\Temp\ccNy8eXk.s:24545  .debug_str:000000000000dbd2 .LASF322
C:\Users\CYMR90~1\AppData\Local\Temp\ccNy8eXk.s:30652  .debug_str:0000000000026008 .LASF323
C:\Users\CYMR90~1\AppData\Local\Temp\ccNy8eXk.s:21137  .debug_str:0000000000000230 .LASF324
C:\Users\CYMR90~1\AppData\Local\Temp\ccNy8eXk.s:31824  .debug_str:000000000002aa1a .LASF325
C:\Users\CYMR90~1\AppData\Local\Temp\ccNy8eXk.s:22069  .debug_str:0000000000003beb .LASF326
C:\Users\CYMR90~1\AppData\Local\Temp\ccNy8eXk.s:26131  .debug_str:0000000000013f8b .LASF327
C:\Users\CYMR90~1\AppData\Local\Temp\ccNy8eXk.s:25785  .debug_str:0000000000012948 .LASF328
C:\Users\CYMR90~1\AppData\Local\Temp\ccNy8eXk.s:28658  .debug_str:000000000001e337 .LASF329
C:\Users\CYMR90~1\AppData\Local\Temp\ccNy8eXk.s:28650  .debug_str:000000000001e2e6 .LASF330
C:\Users\CYMR90~1\AppData\Local\Temp\ccNy8eXk.s:30850  .debug_str:0000000000026c27 .LASF331
C:\Users\CYMR90~1\AppData\Local\Temp\ccNy8eXk.s:31396  .debug_str:0000000000028fef .LASF332
C:\Users\CYMR90~1\AppData\Local\Temp\ccNy8eXk.s:31582  .debug_str:0000000000029bca .LASF333
C:\Users\CYMR90~1\AppData\Local\Temp\ccNy8eXk.s:27634  .debug_str:000000000001a058 .LASF334
C:\Users\CYMR90~1\AppData\Local\Temp\ccNy8eXk.s:27080  .debug_str:0000000000017cbe .LASF335
C:\Users\CYMR90~1\AppData\Local\Temp\ccNy8eXk.s:31436  .debug_str:0000000000029281 .LASF336
C:\Users\CYMR90~1\AppData\Local\Temp\ccNy8eXk.s:25701  .debug_str:00000000000123df .LASF337
C:\Users\CYMR90~1\AppData\Local\Temp\ccNy8eXk.s:29376  .debug_str:0000000000020f06 .LASF338
C:\Users\CYMR90~1\AppData\Local\Temp\ccNy8eXk.s:23731  .debug_str:000000000000a61a .LASF339
C:\Users\CYMR90~1\AppData\Local\Temp\ccNy8eXk.s:25921  .debug_str:000000000001320c .LASF340
C:\Users\CYMR90~1\AppData\Local\Temp\ccNy8eXk.s:27838  .debug_str:000000000001aec7 .LASF341
C:\Users\CYMR90~1\AppData\Local\Temp\ccNy8eXk.s:24049  .debug_str:000000000000bbd0 .LASF342
C:\Users\CYMR90~1\AppData\Local\Temp\ccNy8eXk.s:21391  .debug_str:0000000000001231 .LASF343
C:\Users\CYMR90~1\AppData\Local\Temp\ccNy8eXk.s:31550  .debug_str:00000000000299e5 .LASF344
C:\Users\CYMR90~1\AppData\Local\Temp\ccNy8eXk.s:32158  .debug_str:000000000002bf0f .LASF345
C:\Users\CYMR90~1\AppData\Local\Temp\ccNy8eXk.s:24963  .debug_str:000000000000f4dc .LASF346
C:\Users\CYMR90~1\AppData\Local\Temp\ccNy8eXk.s:21245  .debug_str:00000000000008d9 .LASF347
C:\Users\CYMR90~1\AppData\Local\Temp\ccNy8eXk.s:29168  .debug_str:000000000002024c .LASF348
C:\Users\CYMR90~1\AppData\Local\Temp\ccNy8eXk.s:31160  .debug_str:000000000002803b .LASF349
C:\Users\CYMR90~1\AppData\Local\Temp\ccNy8eXk.s:28652  .debug_str:000000000001e2f2 .LASF350
C:\Users\CYMR90~1\AppData\Local\Temp\ccNy8eXk.s:21179  .debug_str:00000000000004dc .LASF351
C:\Users\CYMR90~1\AppData\Local\Temp\ccNy8eXk.s:28942  .debug_str:000000000001f4c3 .LASF352
C:\Users\CYMR90~1\AppData\Local\Temp\ccNy8eXk.s:30644  .debug_str:0000000000025f9e .LASF353
C:\Users\CYMR90~1\AppData\Local\Temp\ccNy8eXk.s:28276  .debug_str:000000000001ca5a .LASF354
C:\Users\CYMR90~1\AppData\Local\Temp\ccNy8eXk.s:28444  .debug_str:000000000001d604 .LASF355
C:\Users\CYMR90~1\AppData\Local\Temp\ccNy8eXk.s:24429  .debug_str:000000000000d510 .LASF356
C:\Users\CYMR90~1\AppData\Local\Temp\ccNy8eXk.s:27592  .debug_str:0000000000019e00 .LASF357
C:\Users\CYMR90~1\AppData\Local\Temp\ccNy8eXk.s:31070  .debug_str:0000000000027a10 .LASF358
C:\Users\CYMR90~1\AppData\Local\Temp\ccNy8eXk.s:25775  .debug_str:0000000000012888 .LASF359
C:\Users\CYMR90~1\AppData\Local\Temp\ccNy8eXk.s:23833  .debug_str:000000000000ad12 .LASF360
C:\Users\CYMR90~1\AppData\Local\Temp\ccNy8eXk.s:28822  .debug_str:000000000001ed33 .LASF361
C:\Users\CYMR90~1\AppData\Local\Temp\ccNy8eXk.s:25505  .debug_str:00000000000116aa .LASF362
C:\Users\CYMR90~1\AppData\Local\Temp\ccNy8eXk.s:31340  .debug_str:0000000000028cb2 .LASF363
C:\Users\CYMR90~1\AppData\Local\Temp\ccNy8eXk.s:23379  .debug_str:000000000000903f .LASF364
C:\Users\CYMR90~1\AppData\Local\Temp\ccNy8eXk.s:31234  .debug_str:00000000000285c8 .LASF365
C:\Users\CYMR90~1\AppData\Local\Temp\ccNy8eXk.s:22797  .debug_str:0000000000006a18 .LASF366
C:\Users\CYMR90~1\AppData\Local\Temp\ccNy8eXk.s:32152  .debug_str:000000000002beb7 .LASF367
C:\Users\CYMR90~1\AppData\Local\Temp\ccNy8eXk.s:23077  .debug_str:0000000000007c1b .LASF368
C:\Users\CYMR90~1\AppData\Local\Temp\ccNy8eXk.s:27126  .debug_str:0000000000017f8b .LASF372
C:\Users\CYMR90~1\AppData\Local\Temp\ccNy8eXk.s:30890  .debug_str:0000000000026ec3 .LASF373
C:\Users\CYMR90~1\AppData\Local\Temp\ccNy8eXk.s:23811  .debug_str:000000000000abb1 .LASF374
C:\Users\CYMR90~1\AppData\Local\Temp\ccNy8eXk.s:26912  .debug_str:000000000001729c .LASF375
C:\Users\CYMR90~1\AppData\Local\Temp\ccNy8eXk.s:27112  .debug_str:0000000000017ec3 .LASF376
C:\Users\CYMR90~1\AppData\Local\Temp\ccNy8eXk.s:29628  .debug_str:0000000000021e8e .LASF377
C:\Users\CYMR90~1\AppData\Local\Temp\ccNy8eXk.s:28292  .debug_str:000000000001cb25 .LASF378
C:\Users\CYMR90~1\AppData\Local\Temp\ccNy8eXk.s:31982  .debug_str:000000000002b359 .LASF379
C:\Users\CYMR90~1\AppData\Local\Temp\ccNy8eXk.s:21745  .debug_str:000000000000279e .LASF380
C:\Users\CYMR90~1\AppData\Local\Temp\ccNy8eXk.s:31924  .debug_str:000000000002afed .LASF381
C:\Users\CYMR90~1\AppData\Local\Temp\ccNy8eXk.s:28018  .debug_str:000000000001b9f7 .LASF382
C:\Users\CYMR90~1\AppData\Local\Temp\ccNy8eXk.s:22853  .debug_str:0000000000006d62 .LASF383
C:\Users\CYMR90~1\AppData\Local\Temp\ccNy8eXk.s:24455  .debug_str:000000000000d6a7 .LASF384
C:\Users\CYMR90~1\AppData\Local\Temp\ccNy8eXk.s:27534  .debug_str:0000000000019a82 .LASF385
C:\Users\CYMR90~1\AppData\Local\Temp\ccNy8eXk.s:25197  .debug_str:00000000000103c3 .LASF386
C:\Users\CYMR90~1\AppData\Local\Temp\ccNy8eXk.s:21675  .debug_str:0000000000002350 .LASF387
C:\Users\CYMR90~1\AppData\Local\Temp\ccNy8eXk.s:24805  .debug_str:000000000000eb8d .LASF388
C:\Users\CYMR90~1\AppData\Local\Temp\ccNy8eXk.s:23351  .debug_str:0000000000008e69 .LASF389
C:\Users\CYMR90~1\AppData\Local\Temp\ccNy8eXk.s:22165  .debug_str:00000000000042b9 .LASF391
C:\Users\CYMR90~1\AppData\Local\Temp\ccNy8eXk.s:25205  .debug_str:000000000001042f .LASF392
C:\Users\CYMR90~1\AppData\Local\Temp\ccNy8eXk.s:29266  .debug_str:00000000000208bc .LASF393
C:\Users\CYMR90~1\AppData\Local\Temp\ccNy8eXk.s:31028  .debug_str:0000000000027785 .LASF394
C:\Users\CYMR90~1\AppData\Local\Temp\ccNy8eXk.s:21701  .debug_str:00000000000024ae .LASF395
C:\Users\CYMR90~1\AppData\Local\Temp\ccNy8eXk.s:23857  .debug_str:000000000000ae76 .LASF396
C:\Users\CYMR90~1\AppData\Local\Temp\ccNy8eXk.s:27640  .debug_str:000000000001a0b8 .LASF397
C:\Users\CYMR90~1\AppData\Local\Temp\ccNy8eXk.s:31802  .debug_str:000000000002a905 .LASF398
C:\Users\CYMR90~1\AppData\Local\Temp\ccNy8eXk.s:26479  .debug_str:000000000001553d .LASF399
C:\Users\CYMR90~1\AppData\Local\Temp\ccNy8eXk.s:28902  .debug_str:000000000001f23c .LASF400
C:\Users\CYMR90~1\AppData\Local\Temp\ccNy8eXk.s:23341  .debug_str:0000000000008d74 .LASF401
C:\Users\CYMR90~1\AppData\Local\Temp\ccNy8eXk.s:26964  .debug_str:0000000000017581 .LASF402
C:\Users\CYMR90~1\AppData\Local\Temp\ccNy8eXk.s:22693  .debug_str:00000000000063d2 .LASF403
C:\Users\CYMR90~1\AppData\Local\Temp\ccNy8eXk.s:23787  .debug_str:000000000000aa41 .LASF404
C:\Users\CYMR90~1\AppData\Local\Temp\ccNy8eXk.s:24861  .debug_str:000000000000eeb0 .LASF405
C:\Users\CYMR90~1\AppData\Local\Temp\ccNy8eXk.s:28200  .debug_str:000000000001c505 .LASF406
C:\Users\CYMR90~1\AppData\Local\Temp\ccNy8eXk.s:26403  .debug_str:00000000000150ca .LASF407
C:\Users\CYMR90~1\AppData\Local\Temp\ccNy8eXk.s:27374  .debug_str:0000000000018f37 .LASF408
C:\Users\CYMR90~1\AppData\Local\Temp\ccNy8eXk.s:29574  .debug_str:0000000000021b50 .LASF409
C:\Users\CYMR90~1\AppData\Local\Temp\ccNy8eXk.s:22645  .debug_str:00000000000060cc .LASF410
C:\Users\CYMR90~1\AppData\Local\Temp\ccNy8eXk.s:26589  .debug_str:0000000000015b87 .LASF411
C:\Users\CYMR90~1\AppData\Local\Temp\ccNy8eXk.s:29696  .debug_str:0000000000022292 .LASF412
C:\Users\CYMR90~1\AppData\Local\Temp\ccNy8eXk.s:22829  .debug_str:0000000000006bf5 .LASF413
C:\Users\CYMR90~1\AppData\Local\Temp\ccNy8eXk.s:31430  .debug_str:000000000002921a .LASF414
C:\Users\CYMR90~1\AppData\Local\Temp\ccNy8eXk.s:24965  .debug_str:000000000000f4ea .LASF415
C:\Users\CYMR90~1\AppData\Local\Temp\ccNy8eXk.s:30762  .debug_str:00000000000266db .LASF416
C:\Users\CYMR90~1\AppData\Local\Temp\ccNy8eXk.s:32284  .debug_str:000000000002c788 .LASF417
C:\Users\CYMR90~1\AppData\Local\Temp\ccNy8eXk.s:23271  .debug_str:0000000000008947 .LASF418
C:\Users\CYMR90~1\AppData\Local\Temp\ccNy8eXk.s:31644  .debug_str:0000000000029f7d .LASF419
C:\Users\CYMR90~1\AppData\Local\Temp\ccNy8eXk.s:22897  .debug_str:0000000000007058 .LASF420
C:\Users\CYMR90~1\AppData\Local\Temp\ccNy8eXk.s:31844  .debug_str:000000000002ab30 .LASF421
C:\Users\CYMR90~1\AppData\Local\Temp\ccNy8eXk.s:24127  .debug_str:000000000000c13c .LASF422
C:\Users\CYMR90~1\AppData\Local\Temp\ccNy8eXk.s:24317  .debug_str:000000000000cd62 .LASF423
C:\Users\CYMR90~1\AppData\Local\Temp\ccNy8eXk.s:28802  .debug_str:000000000001ebff .LASF424
C:\Users\CYMR90~1\AppData\Local\Temp\ccNy8eXk.s:27412  .debug_str:0000000000019262 .LASF425
C:\Users\CYMR90~1\AppData\Local\Temp\ccNy8eXk.s:21149  .debug_str:00000000000002f9 .LASF426
C:\Users\CYMR90~1\AppData\Local\Temp\ccNy8eXk.s:31346  .debug_str:0000000000028d0f .LASF427
C:\Users\CYMR90~1\AppData\Local\Temp\ccNy8eXk.s:26673  .debug_str:0000000000016134 .LASF428
C:\Users\CYMR90~1\AppData\Local\Temp\ccNy8eXk.s:28578  .debug_str:000000000001dedc .LASF429
C:\Users\CYMR90~1\AppData\Local\Temp\ccNy8eXk.s:25147  .debug_str:0000000000010087 .LASF430
C:\Users\CYMR90~1\AppData\Local\Temp\ccNy8eXk.s:26864  .debug_str:0000000000016fd1 .LASF431
C:\Users\CYMR90~1\AppData\Local\Temp\ccNy8eXk.s:29650  .debug_str:0000000000021fbc .LASF432
C:\Users\CYMR90~1\AppData\Local\Temp\ccNy8eXk.s:24303  .debug_str:000000000000cc9c .LASF434
C:\Users\CYMR90~1\AppData\Local\Temp\ccNy8eXk.s:22355  .debug_str:0000000000004f2a .LASF435
C:\Users\CYMR90~1\AppData\Local\Temp\ccNy8eXk.s:27052  .debug_str:0000000000017b22 .LASF436
C:\Users\CYMR90~1\AppData\Local\Temp\ccNy8eXk.s:22915  .debug_str:0000000000007181 .LASF437
C:\Users\CYMR90~1\AppData\Local\Temp\ccNy8eXk.s:31360  .debug_str:0000000000028db0 .LASF438
C:\Users\CYMR90~1\AppData\Local\Temp\ccNy8eXk.s:21113  .debug_str:00000000000000c7 .LASF439
C:\Users\CYMR90~1\AppData\Local\Temp\ccNy8eXk.s:28838  .debug_str:000000000001ee34 .LASF440
C:\Users\CYMR90~1\AppData\Local\Temp\ccNy8eXk.s:24553  .debug_str:000000000000dc37 .LASF441
C:\Users\CYMR90~1\AppData\Local\Temp\ccNy8eXk.s:29890  .debug_str:0000000000022e28 .LASF442
C:\Users\CYMR90~1\AppData\Local\Temp\ccNy8eXk.s:28772  .debug_str:000000000001ea52 .LASF443
C:\Users\CYMR90~1\AppData\Local\Temp\ccNy8eXk.s:25275  .debug_str:000000000001085e .LASF444
C:\Users\CYMR90~1\AppData\Local\Temp\ccNy8eXk.s:32278  .debug_str:000000000002c73c .LASF445
C:\Users\CYMR90~1\AppData\Local\Temp\ccNy8eXk.s:21467  .debug_str:000000000000167e .LASF446
C:\Users\CYMR90~1\AppData\Local\Temp\ccNy8eXk.s:25621  .debug_str:0000000000011ea9 .LASF447
C:\Users\CYMR90~1\AppData\Local\Temp\ccNy8eXk.s:29866  .debug_str:0000000000022cd2 .LASF448
C:\Users\CYMR90~1\AppData\Local\Temp\ccNy8eXk.s:22177  .debug_str:0000000000004371 .LASF449
C:\Users\CYMR90~1\AppData\Local\Temp\ccNy8eXk.s:22937  .debug_str:000000000000730a .LASF450
C:\Users\CYMR90~1\AppData\Local\Temp\ccNy8eXk.s:21631  .debug_str:00000000000020d5 .LASF451
C:\Users\CYMR90~1\AppData\Local\Temp\ccNy8eXk.s:26317  .debug_str:0000000000014b08 .LASF452
C:\Users\CYMR90~1\AppData\Local\Temp\ccNy8eXk.s:21621  .debug_str:0000000000002062 .LASF453
C:\Users\CYMR90~1\AppData\Local\Temp\ccNy8eXk.s:32222  .debug_str:000000000002c379 .LASF454
C:\Users\CYMR90~1\AppData\Local\Temp\ccNy8eXk.s:24727  .debug_str:000000000000e699 .LASF455
C:\Users\CYMR90~1\AppData\Local\Temp\ccNy8eXk.s:29474  .debug_str:000000000002153e .LASF456
C:\Users\CYMR90~1\AppData\Local\Temp\ccNy8eXk.s:24399  .debug_str:000000000000d2b2 .LASF457
C:\Users\CYMR90~1\AppData\Local\Temp\ccNy8eXk.s:22705  .debug_str:000000000000647f .LASF458
C:\Users\CYMR90~1\AppData\Local\Temp\ccNy8eXk.s:25341  .debug_str:0000000000010d17 .LASF459
C:\Users\CYMR90~1\AppData\Local\Temp\ccNy8eXk.s:29220  .debug_str:0000000000020600 .LASF460
C:\Users\CYMR90~1\AppData\Local\Temp\ccNy8eXk.s:30392  .debug_str:0000000000024df3 .LASF461
C:\Users\CYMR90~1\AppData\Local\Temp\ccNy8eXk.s:26833  .debug_str:0000000000016c24 .LASF462
C:\Users\CYMR90~1\AppData\Local\Temp\ccNy8eXk.s:27690  .debug_str:000000000001a537 .LASF463
C:\Users\CYMR90~1\AppData\Local\Temp\ccNy8eXk.s:24569  .debug_str:000000000000dd03 .LASF464
C:\Users\CYMR90~1\AppData\Local\Temp\ccNy8eXk.s:25713  .debug_str:00000000000124a2 .LASF465
C:\Users\CYMR90~1\AppData\Local\Temp\ccNy8eXk.s:22847  .debug_str:0000000000006d1c .LASF466
C:\Users\CYMR90~1\AppData\Local\Temp\ccNy8eXk.s:23397  .debug_str:0000000000009122 .LASF467
C:\Users\CYMR90~1\AppData\Local\Temp\ccNy8eXk.s:25475  .debug_str:0000000000011494 .LASF468
C:\Users\CYMR90~1\AppData\Local\Temp\ccNy8eXk.s:21969  .debug_str:00000000000035f4 .LASF469
C:\Users\CYMR90~1\AppData\Local\Temp\ccNy8eXk.s:25239  .debug_str:0000000000010628 .LASF470
C:\Users\CYMR90~1\AppData\Local\Temp\ccNy8eXk.s:25123  .debug_str:000000000000fefc .LASF471
C:\Users\CYMR90~1\AppData\Local\Temp\ccNy8eXk.s:24699  .debug_str:000000000000e4e7 .LASF472
C:\Users\CYMR90~1\AppData\Local\Temp\ccNy8eXk.s:21329  .debug_str:0000000000000e0e .LASF473
C:\Users\CYMR90~1\AppData\Local\Temp\ccNy8eXk.s:22961  .debug_str:00000000000074d1 .LASF474
C:\Users\CYMR90~1\AppData\Local\Temp\ccNy8eXk.s:21275  .debug_str:0000000000000ad4 .LASF475
C:\Users\CYMR90~1\AppData\Local\Temp\ccNy8eXk.s:22143  .debug_str:00000000000040cf .LASF476
C:\Users\CYMR90~1\AppData\Local\Temp\ccNy8eXk.s:21499  .debug_str:0000000000001908 .LASF477
C:\Users\CYMR90~1\AppData\Local\Temp\ccNy8eXk.s:26617  .debug_str:0000000000015d86 .LASF478
C:\Users\CYMR90~1\AppData\Local\Temp\ccNy8eXk.s:24003  .debug_str:000000000000b8e0 .LASF479
C:\Users\CYMR90~1\AppData\Local\Temp\ccNy8eXk.s:31840  .debug_str:000000000002ab00 .LASF480
C:\Users\CYMR90~1\AppData\Local\Temp\ccNy8eXk.s:27208  .debug_str:0000000000018457 .LASF481
C:\Users\CYMR90~1\AppData\Local\Temp\ccNy8eXk.s:23925  .debug_str:000000000000b38c .LASF482
C:\Users\CYMR90~1\AppData\Local\Temp\ccNy8eXk.s:22749  .debug_str:00000000000066fa .LASF483
C:\Users\CYMR90~1\AppData\Local\Temp\ccNy8eXk.s:21241  .debug_str:0000000000000892 .LASF484
C:\Users\CYMR90~1\AppData\Local\Temp\ccNy8eXk.s:27156  .debug_str:000000000001814b .LASF485
C:\Users\CYMR90~1\AppData\Local\Temp\ccNy8eXk.s:22365  .debug_str:0000000000004fc8 .LASF486
C:\Users\CYMR90~1\AppData\Local\Temp\ccNy8eXk.s:26069  .debug_str:0000000000013bec .LASF487
C:\Users\CYMR90~1\AppData\Local\Temp\ccNy8eXk.s:25263  .debug_str:00000000000107ba .LASF488
C:\Users\CYMR90~1\AppData\Local\Temp\ccNy8eXk.s:25841  .debug_str:0000000000012ce2 .LASF489
C:\Users\CYMR90~1\AppData\Local\Temp\ccNy8eXk.s:24281  .debug_str:000000000000cb6b .LASF490
C:\Users\CYMR90~1\AppData\Local\Temp\ccNy8eXk.s:23269  .debug_str:0000000000008939 .LASF491
C:\Users\CYMR90~1\AppData\Local\Temp\ccNy8eXk.s:24923  .debug_str:000000000000f25b .LASF492
C:\Users\CYMR90~1\AppData\Local\Temp\ccNy8eXk.s:23277  .debug_str:00000000000089be .LASF493
C:\Users\CYMR90~1\AppData\Local\Temp\ccNy8eXk.s:25129  .debug_str:000000000000ff70 .LASF494
C:\Users\CYMR90~1\AppData\Local\Temp\ccNy8eXk.s:27402  .debug_str:00000000000191df .LASF495
C:\Users\CYMR90~1\AppData\Local\Temp\ccNy8eXk.s:32304  .debug_str:000000000002c8b8 .LASF496
C:\Users\CYMR90~1\AppData\Local\Temp\ccNy8eXk.s:32240  .debug_str:000000000002c4de .LASF497
C:\Users\CYMR90~1\AppData\Local\Temp\ccNy8eXk.s:24969  .debug_str:000000000000f531 .LASF498
C:\Users\CYMR90~1\AppData\Local\Temp\ccNy8eXk.s:31680  .debug_str:000000000002a18b .LASF499
C:\Users\CYMR90~1\AppData\Local\Temp\ccNy8eXk.s:31554  .debug_str:0000000000029a08 .LASF500
C:\Users\CYMR90~1\AppData\Local\Temp\ccNy8eXk.s:26277  .debug_str:000000000001488c .LASF501
C:\Users\CYMR90~1\AppData\Local\Temp\ccNy8eXk.s:31506  .debug_str:0000000000029747 .LASF502
C:\Users\CYMR90~1\AppData\Local\Temp\ccNy8eXk.s:26223  .debug_str:00000000000144f0 .LASF503
C:\Users\CYMR90~1\AppData\Local\Temp\ccNy8eXk.s:21837  .debug_str:0000000000002d74 .LASF504
C:\Users\CYMR90~1\AppData\Local\Temp\ccNy8eXk.s:30148  .debug_str:0000000000023d67 .LASF505
C:\Users\CYMR90~1\AppData\Local\Temp\ccNy8eXk.s:31024  .debug_str:000000000002774a .LASF506
C:\Users\CYMR90~1\AppData\Local\Temp\ccNy8eXk.s:30598  .debug_str:0000000000025cc3 .LASF507
C:\Users\CYMR90~1\AppData\Local\Temp\ccNy8eXk.s:27320  .debug_str:0000000000018b29 .LASF508
C:\Users\CYMR90~1\AppData\Local\Temp\ccNy8eXk.s:29564  .debug_str:0000000000021a75 .LASF509
C:\Users\CYMR90~1\AppData\Local\Temp\ccNy8eXk.s:31252  .debug_str:0000000000028713 .LASF510
C:\Users\CYMR90~1\AppData\Local\Temp\ccNy8eXk.s:27098  .debug_str:0000000000017db8 .LASF511
C:\Users\CYMR90~1\AppData\Local\Temp\ccNy8eXk.s:30878  .debug_str:0000000000026dce .LASF512
C:\Users\CYMR90~1\AppData\Local\Temp\ccNy8eXk.s:30996  .debug_str:00000000000275b6 .LASF513
C:\Users\CYMR90~1\AppData\Local\Temp\ccNy8eXk.s:31434  .debug_str:0000000000029246 .LASF514
C:\Users\CYMR90~1\AppData\Local\Temp\ccNy8eXk.s:25999  .debug_str:00000000000137b5 .LASF515
C:\Users\CYMR90~1\AppData\Local\Temp\ccNy8eXk.s:31314  .debug_str:0000000000028b33 .LASF516
C:\Users\CYMR90~1\AppData\Local\Temp\ccNy8eXk.s:27472  .debug_str:00000000000195ec .LASF517
C:\Users\CYMR90~1\AppData\Local\Temp\ccNy8eXk.s:31262  .debug_str:00000000000287e0 .LASF518
C:\Users\CYMR90~1\AppData\Local\Temp\ccNy8eXk.s:28128  .debug_str:000000000001c0c8 .LASF519
C:\Users\CYMR90~1\AppData\Local\Temp\ccNy8eXk.s:32210  .debug_str:000000000002c2b0 .LASF520
C:\Users\CYMR90~1\AppData\Local\Temp\ccNy8eXk.s:28384  .debug_str:000000000001d237 .LASF521
C:\Users\CYMR90~1\AppData\Local\Temp\ccNy8eXk.s:30508  .debug_str:0000000000025654 .LASF522
C:\Users\CYMR90~1\AppData\Local\Temp\ccNy8eXk.s:25883  .debug_str:0000000000012f9b .LASF523
C:\Users\CYMR90~1\AppData\Local\Temp\ccNy8eXk.s:30058  .debug_str:0000000000023840 .LASF524
C:\Users\CYMR90~1\AppData\Local\Temp\ccNy8eXk.s:23477  .debug_str:00000000000095d3 .LASF525
C:\Users\CYMR90~1\AppData\Local\Temp\ccNy8eXk.s:32232  .debug_str:000000000002c3f2 .LASF526
C:\Users\CYMR90~1\AppData\Local\Temp\ccNy8eXk.s:24735  .debug_str:000000000000e717 .LASF527
C:\Users\CYMR90~1\AppData\Local\Temp\ccNy8eXk.s:25745  .debug_str:000000000001268e .LASF528
C:\Users\CYMR90~1\AppData\Local\Temp\ccNy8eXk.s:26595  .debug_str:0000000000015bde .LASF529
C:\Users\CYMR90~1\AppData\Local\Temp\ccNy8eXk.s:26629  .debug_str:0000000000015e33 .LASF530
C:\Users\CYMR90~1\AppData\Local\Temp\ccNy8eXk.s:25661  .debug_str:0000000000012166 .LASF531
C:\Users\CYMR90~1\AppData\Local\Temp\ccNy8eXk.s:21899  .debug_str:0000000000003110 .LASF532
C:\Users\CYMR90~1\AppData\Local\Temp\ccNy8eXk.s:24405  .debug_str:000000000000d2ec .LASF533
C:\Users\CYMR90~1\AppData\Local\Temp\ccNy8eXk.s:32064  .debug_str:000000000002b8af .LASF534
C:\Users\CYMR90~1\AppData\Local\Temp\ccNy8eXk.s:24921  .debug_str:000000000000f20f .LASF535
C:\Users\CYMR90~1\AppData\Local\Temp\ccNy8eXk.s:30252  .debug_str:00000000000244c5 .LASF536
C:\Users\CYMR90~1\AppData\Local\Temp\ccNy8eXk.s:31714  .debug_str:000000000002a359 .LASF537
C:\Users\CYMR90~1\AppData\Local\Temp\ccNy8eXk.s:25493  .debug_str:00000000000115cb .LASF538
C:\Users\CYMR90~1\AppData\Local\Temp\ccNy8eXk.s:30432  .debug_str:000000000002507d .LASF539
C:\Users\CYMR90~1\AppData\Local\Temp\ccNy8eXk.s:28182  .debug_str:000000000001c414 .LASF540
C:\Users\CYMR90~1\AppData\Local\Temp\ccNy8eXk.s:29770  .debug_str:00000000000226c4 .LASF541
C:\Users\CYMR90~1\AppData\Local\Temp\ccNy8eXk.s:28476  .debug_str:000000000001d818 .LASF542
C:\Users\CYMR90~1\AppData\Local\Temp\ccNy8eXk.s:22249  .debug_str:0000000000004831 .LASF543
C:\Users\CYMR90~1\AppData\Local\Temp\ccNy8eXk.s:24665  .debug_str:000000000000e2e4 .LASF544
C:\Users\CYMR90~1\AppData\Local\Temp\ccNy8eXk.s:31492  .debug_str:000000000002965a .LASF545
C:\Users\CYMR90~1\AppData\Local\Temp\ccNy8eXk.s:26009  .debug_str:0000000000013844 .LASF546
C:\Users\CYMR90~1\AppData\Local\Temp\ccNy8eXk.s:29750  .debug_str:00000000000225a0 .LASF547
C:\Users\CYMR90~1\AppData\Local\Temp\ccNy8eXk.s:31978  .debug_str:000000000002b32b .LASF548
C:\Users\CYMR90~1\AppData\Local\Temp\ccNy8eXk.s:21945  .debug_str:0000000000003466 .LASF549
C:\Users\CYMR90~1\AppData\Local\Temp\ccNy8eXk.s:23105  .debug_str:0000000000007dab .LASF550
C:\Users\CYMR90~1\AppData\Local\Temp\ccNy8eXk.s:30770  .debug_str:000000000002673e .LASF551
C:\Users\CYMR90~1\AppData\Local\Temp\ccNy8eXk.s:22669  .debug_str:000000000000624f .LASF552
C:\Users\CYMR90~1\AppData\Local\Temp\ccNy8eXk.s:31734  .debug_str:000000000002a478 .LASF553
C:\Users\CYMR90~1\AppData\Local\Temp\ccNy8eXk.s:24077  .debug_str:000000000000bd51 .LASF554
C:\Users\CYMR90~1\AppData\Local\Temp\ccNy8eXk.s:24257  .debug_str:000000000000c9a8 .LASF555
C:\Users\CYMR90~1\AppData\Local\Temp\ccNy8eXk.s:22795  .debug_str:00000000000069c5 .LASF556
C:\Users\CYMR90~1\AppData\Local\Temp\ccNy8eXk.s:22499  .debug_str:00000000000057a6 .LASF557
C:\Users\CYMR90~1\AppData\Local\Temp\ccNy8eXk.s:25607  .debug_str:0000000000011dce .LASF558
C:\Users\CYMR90~1\AppData\Local\Temp\ccNy8eXk.s:27346  .debug_str:0000000000018d4a .LASF559
C:\Users\CYMR90~1\AppData\Local\Temp\ccNy8eXk.s:31304  .debug_str:0000000000028a8b .LASF560
C:\Users\CYMR90~1\AppData\Local\Temp\ccNy8eXk.s:21613  .debug_str:0000000000001fc8 .LASF561
C:\Users\CYMR90~1\AppData\Local\Temp\ccNy8eXk.s:25081  .debug_str:000000000000fc42 .LASF562
C:\Users\CYMR90~1\AppData\Local\Temp\ccNy8eXk.s:24451  .debug_str:000000000000d64b .LASF563
C:\Users\CYMR90~1\AppData\Local\Temp\ccNy8eXk.s:23771  .debug_str:000000000000a858 .LASF564
C:\Users\CYMR90~1\AppData\Local\Temp\ccNy8eXk.s:29502  .debug_str:00000000000216cb .LASF565
C:\Users\CYMR90~1\AppData\Local\Temp\ccNy8eXk.s:28718  .debug_str:000000000001e6dc .LASF566
C:\Users\CYMR90~1\AppData\Local\Temp\ccNy8eXk.s:25603  .debug_str:0000000000011d86 .LASF567
C:\Users\CYMR90~1\AppData\Local\Temp\ccNy8eXk.s:29532  .debug_str:00000000000218b3 .LASF568
C:\Users\CYMR90~1\AppData\Local\Temp\ccNy8eXk.s:21301  .debug_str:0000000000000c9a .LASF570
C:\Users\CYMR90~1\AppData\Local\Temp\ccNy8eXk.s:26978  .debug_str:000000000001764e .LASF571
C:\Users\CYMR90~1\AppData\Local\Temp\ccNy8eXk.s:28124  .debug_str:000000000001c0a2 .LASF574
C:\Users\CYMR90~1\AppData\Local\Temp\ccNy8eXk.s:22217  .debug_str:0000000000004613 .LASF575
C:\Users\CYMR90~1\AppData\Local\Temp\ccNy8eXk.s:26229  .debug_str:0000000000014588 .LASF576
C:\Users\CYMR90~1\AppData\Local\Temp\ccNy8eXk.s:23199  .debug_str:00000000000084fd .LASF577
C:\Users\CYMR90~1\AppData\Local\Temp\ccNy8eXk.s:29398  .debug_str:0000000000021034 .LASF579
C:\Users\CYMR90~1\AppData\Local\Temp\ccNy8eXk.s:28590  .debug_str:000000000001dfac .LASF580
C:\Users\CYMR90~1\AppData\Local\Temp\ccNy8eXk.s:30146  .debug_str:0000000000023d5e .LASF581
C:\Users\CYMR90~1\AppData\Local\Temp\ccNy8eXk.s:22627  .debug_str:0000000000005f70 .LASF582
C:\Users\CYMR90~1\AppData\Local\Temp\ccNy8eXk.s:25223  .debug_str:0000000000010534 .LASF583
C:\Users\CYMR90~1\AppData\Local\Temp\ccNy8eXk.s:21791  .debug_str:0000000000002aa3 .LASF584
C:\Users\CYMR90~1\AppData\Local\Temp\ccNy8eXk.s:31588  .debug_str:0000000000029c29 .LASF585
C:\Users\CYMR90~1\AppData\Local\Temp\ccNy8eXk.s:29804  .debug_str:00000000000228ce .LASF586
C:\Users\CYMR90~1\AppData\Local\Temp\ccNy8eXk.s:28006  .debug_str:000000000001b984 .LASF587
C:\Users\CYMR90~1\AppData\Local\Temp\ccNy8eXk.s:22861  .debug_str:0000000000006dfd .LASF588
C:\Users\CYMR90~1\AppData\Local\Temp\ccNy8eXk.s:27260  .debug_str:0000000000018759 .LASF589
C:\Users\CYMR90~1\AppData\Local\Temp\ccNy8eXk.s:27636  .debug_str:000000000001a061 .LASF590
C:\Users\CYMR90~1\AppData\Local\Temp\ccNy8eXk.s:32316  .debug_str:000000000002c9a9 .LASF591
C:\Users\CYMR90~1\AppData\Local\Temp\ccNy8eXk.s:25629  .debug_str:0000000000011f18 .LASF592
C:\Users\CYMR90~1\AppData\Local\Temp\ccNy8eXk.s:30134  .debug_str:0000000000023cbb .LASF593
C:\Users\CYMR90~1\AppData\Local\Temp\ccNy8eXk.s:25189  .debug_str:000000000001034b .LASF594
C:\Users\CYMR90~1\AppData\Local\Temp\ccNy8eXk.s:26067  .debug_str:0000000000013bcc .LASF595
C:\Users\CYMR90~1\AppData\Local\Temp\ccNy8eXk.s:25799  .debug_str:0000000000012a33 .LASF596
C:\Users\CYMR90~1\AppData\Local\Temp\ccNy8eXk.s:22963  .debug_str:00000000000074f0 .LASF597
C:\Users\CYMR90~1\AppData\Local\Temp\ccNy8eXk.s:31120  .debug_str:0000000000027db2 .LASF598
C:\Users\CYMR90~1\AppData\Local\Temp\ccNy8eXk.s:25959  .debug_str:0000000000013504 .LASF599
C:\Users\CYMR90~1\AppData\Local\Temp\ccNy8eXk.s:28922  .debug_str:000000000001f36d .LASF600
C:\Users\CYMR90~1\AppData\Local\Temp\ccNy8eXk.s:28190  .debug_str:000000000001c480 .LASF601
C:\Users\CYMR90~1\AppData\Local\Temp\ccNy8eXk.s:30606  .debug_str:0000000000025d56 .LASF602
C:\Users\CYMR90~1\AppData\Local\Temp\ccNy8eXk.s:31320  .debug_str:0000000000028b95 .LASF603
C:\Users\CYMR90~1\AppData\Local\Temp\ccNy8eXk.s:31210  .debug_str:000000000002844d .LASF604
C:\Users\CYMR90~1\AppData\Local\Temp\ccNy8eXk.s:25723  .debug_str:0000000000012530 .LASF605
C:\Users\CYMR90~1\AppData\Local\Temp\ccNy8eXk.s:29940  .debug_str:00000000000230dc .LASF606
C:\Users\CYMR90~1\AppData\Local\Temp\ccNy8eXk.s:23547  .debug_str:0000000000009abf .LASF607
C:\Users\CYMR90~1\AppData\Local\Temp\ccNy8eXk.s:23059  .debug_str:0000000000007ad0 .LASF608
C:\Users\CYMR90~1\AppData\Local\Temp\ccNy8eXk.s:23835  .debug_str:000000000000ad20 .LASF609
C:\Users\CYMR90~1\AppData\Local\Temp\ccNy8eXk.s:28042  .debug_str:000000000001bb49 .LASF610
C:\Users\CYMR90~1\AppData\Local\Temp\ccNy8eXk.s:22593  .debug_str:0000000000005d73 .LASF611
C:\Users\CYMR90~1\AppData\Local\Temp\ccNy8eXk.s:29720  .debug_str:00000000000223db .LASF612
C:\Users\CYMR90~1\AppData\Local\Temp\ccNy8eXk.s:26459  .debug_str:00000000000153fa .LASF613
C:\Users\CYMR90~1\AppData\Local\Temp\ccNy8eXk.s:23125  .debug_str:0000000000007f97 .LASF614
C:\Users\CYMR90~1\AppData\Local\Temp\ccNy8eXk.s:21201  .debug_str:00000000000005e1 .LASF615
C:\Users\CYMR90~1\AppData\Local\Temp\ccNy8eXk.s:26701  .debug_str:00000000000162b8 .LASF616
C:\Users\CYMR90~1\AppData\Local\Temp\ccNy8eXk.s:27672  .debug_str:000000000001a28f .LASF617
C:\Users\CYMR90~1\AppData\Local\Temp\ccNy8eXk.s:26835  .debug_str:0000000000016c33 .LASF618
C:\Users\CYMR90~1\AppData\Local\Temp\ccNy8eXk.s:29812  .debug_str:0000000000022933 .LASF619
C:\Users\CYMR90~1\AppData\Local\Temp\ccNy8eXk.s:24095  .debug_str:000000000000bf11 .LASF620
C:\Users\CYMR90~1\AppData\Local\Temp\ccNy8eXk.s:22875  .debug_str:0000000000006eea .LASF621
C:\Users\CYMR90~1\AppData\Local\Temp\ccNy8eXk.s:30000  .debug_str:000000000002344d .LASF622
C:\Users\CYMR90~1\AppData\Local\Temp\ccNy8eXk.s:29098  .debug_str:000000000001fe43 .LASF623
C:\Users\CYMR90~1\AppData\Local\Temp\ccNy8eXk.s:31078  .debug_str:0000000000027a85 .LASF624
C:\Users\CYMR90~1\AppData\Local\Temp\ccNy8eXk.s:31688  .debug_str:000000000002a1f4 .LASF625
C:\Users\CYMR90~1\AppData\Local\Temp\ccNy8eXk.s:26139  .debug_str:0000000000013fe7 .LASF626
C:\Users\CYMR90~1\AppData\Local\Temp\ccNy8eXk.s:31944  .debug_str:000000000002b0f0 .LASF627
C:\Users\CYMR90~1\AppData\Local\Temp\ccNy8eXk.s:26551  .debug_str:000000000001592a .LASF628
C:\Users\CYMR90~1\AppData\Local\Temp\ccNy8eXk.s:29748  .debug_str:0000000000022568 .LASF629
C:\Users\CYMR90~1\AppData\Local\Temp\ccNy8eXk.s:25179  .debug_str:0000000000010298 .LASF630
C:\Users\CYMR90~1\AppData\Local\Temp\ccNy8eXk.s:24489  .debug_str:000000000000d89e .LASF631
C:\Users\CYMR90~1\AppData\Local\Temp\ccNy8eXk.s:29710  .debug_str:000000000002233b .LASF632
C:\Users\CYMR90~1\AppData\Local\Temp\ccNy8eXk.s:24203  .debug_str:000000000000c5d5 .LASF633
C:\Users\CYMR90~1\AppData\Local\Temp\ccNy8eXk.s:21291  .debug_str:0000000000000c07 .LASF634
C:\Users\CYMR90~1\AppData\Local\Temp\ccNy8eXk.s:27582  .debug_str:0000000000019d5c .LASF635
C:\Users\CYMR90~1\AppData\Local\Temp\ccNy8eXk.s:26759  .debug_str:0000000000016686 .LASF636
C:\Users\CYMR90~1\AppData\Local\Temp\ccNy8eXk.s:28354  .debug_str:000000000001d06a .LASF637
C:\Users\CYMR90~1\AppData\Local\Temp\ccNy8eXk.s:22005  .debug_str:00000000000037ef .LASF638
C:\Users\CYMR90~1\AppData\Local\Temp\ccNy8eXk.s:25555  .debug_str:0000000000011ad1 .LASF639
C:\Users\CYMR90~1\AppData\Local\Temp\ccNy8eXk.s:23137  .debug_str:0000000000008042 .LASF640
C:\Users\CYMR90~1\AppData\Local\Temp\ccNy8eXk.s:25781  .debug_str:00000000000128f7 .LASF641
C:\Users\CYMR90~1\AppData\Local\Temp\ccNy8eXk.s:23993  .debug_str:000000000000b7f6 .LASF642
C:\Users\CYMR90~1\AppData\Local\Temp\ccNy8eXk.s:31062  .debug_str:0000000000027975 .LASF643
C:\Users\CYMR90~1\AppData\Local\Temp\ccNy8eXk.s:24357  .debug_str:000000000000cfce .LASF644
C:\Users\CYMR90~1\AppData\Local\Temp\ccNy8eXk.s:22189  .debug_str:0000000000004409 .LASF645
C:\Users\CYMR90~1\AppData\Local\Temp\ccNy8eXk.s:23021  .debug_str:000000000000783f .LASF646
C:\Users\CYMR90~1\AppData\Local\Temp\ccNy8eXk.s:21937  .debug_str:00000000000033cc .LASF647
C:\Users\CYMR90~1\AppData\Local\Temp\ccNy8eXk.s:22311  .debug_str:0000000000004c6e .LASF648
C:\Users\CYMR90~1\AppData\Local\Temp\ccNy8eXk.s:31586  .debug_str:0000000000029bea .LASF649
C:\Users\CYMR90~1\AppData\Local\Temp\ccNy8eXk.s:25473  .debug_str:000000000001143c .LASF650
C:\Users\CYMR90~1\AppData\Local\Temp\ccNy8eXk.s:31704  .debug_str:000000000002a2d0 .LASF651
C:\Users\CYMR90~1\AppData\Local\Temp\ccNy8eXk.s:25089  .debug_str:000000000000fcdf .LASF652
C:\Users\CYMR90~1\AppData\Local\Temp\ccNy8eXk.s:21183  .debug_str:00000000000004fe .LASF653
C:\Users\CYMR90~1\AppData\Local\Temp\ccNy8eXk.s:31928  .debug_str:000000000002b018 .LASF654
C:\Users\CYMR90~1\AppData\Local\Temp\ccNy8eXk.s:23369  .debug_str:0000000000008fa9 .LASF655
C:\Users\CYMR90~1\AppData\Local\Temp\ccNy8eXk.s:31136  .debug_str:0000000000027eae .LASF656
C:\Users\CYMR90~1\AppData\Local\Temp\ccNy8eXk.s:21235  .debug_str:0000000000000850 .LASF657
C:\Users\CYMR90~1\AppData\Local\Temp\ccNy8eXk.s:31756  .debug_str:000000000002a5f1 .LASF658
C:\Users\CYMR90~1\AppData\Local\Temp\ccNy8eXk.s:25877  .debug_str:0000000000012f4d .LASF659
C:\Users\CYMR90~1\AppData\Local\Temp\ccNy8eXk.s:28288  .debug_str:000000000001caf9 .LASF660
C:\Users\CYMR90~1\AppData\Local\Temp\ccNy8eXk.s:24771  .debug_str:000000000000e96a .LASF661
C:\Users\CYMR90~1\AppData\Local\Temp\ccNy8eXk.s:28948  .debug_str:000000000001f50e .LASF662
C:\Users\CYMR90~1\AppData\Local\Temp\ccNy8eXk.s:30920  .debug_str:0000000000027091 .LASF663
C:\Users\CYMR90~1\AppData\Local\Temp\ccNy8eXk.s:25451  .debug_str:000000000001130d .LASF664
C:\Users\CYMR90~1\AppData\Local\Temp\ccNy8eXk.s:25443  .debug_str:00000000000112b7 .LASF665
C:\Users\CYMR90~1\AppData\Local\Temp\ccNy8eXk.s:27356  .debug_str:0000000000018e20 .LASF666
C:\Users\CYMR90~1\AppData\Local\Temp\ccNy8eXk.s:22605  .debug_str:0000000000005e34 .LASF667
C:\Users\CYMR90~1\AppData\Local\Temp\ccNy8eXk.s:32440  .debug_str:000000000002d1c3 .LASF668
C:\Users\CYMR90~1\AppData\Local\Temp\ccNy8eXk.s:22987  .debug_str:000000000000764a .LASF669
C:\Users\CYMR90~1\AppData\Local\Temp\ccNy8eXk.s:29596  .debug_str:0000000000021c9e .LASF670
C:\Users\CYMR90~1\AppData\Local\Temp\ccNy8eXk.s:25861  .debug_str:0000000000012e3e .LASF671
C:\Users\CYMR90~1\AppData\Local\Temp\ccNy8eXk.s:28998  .debug_str:000000000001f7d4 .LASF672
C:\Users\CYMR90~1\AppData\Local\Temp\ccNy8eXk.s:29724  .debug_str:000000000002240c .LASF673
C:\Users\CYMR90~1\AppData\Local\Temp\ccNy8eXk.s:21567  .debug_str:0000000000001d29 .LASF674
C:\Users\CYMR90~1\AppData\Local\Temp\ccNy8eXk.s:26537  .debug_str:000000000001584b .LASF676
C:\Users\CYMR90~1\AppData\Local\Temp\ccNy8eXk.s:30166  .debug_str:0000000000023eb8 .LASF677
C:\Users\CYMR90~1\AppData\Local\Temp\ccNy8eXk.s:27594  .debug_str:0000000000019e0c .LASF678
C:\Users\CYMR90~1\AppData\Local\Temp\ccNy8eXk.s:30272  .debug_str:000000000002463d .LASF679
C:\Users\CYMR90~1\AppData\Local\Temp\ccNy8eXk.s:28714  .debug_str:000000000001e6b0 .LASF680
C:\Users\CYMR90~1\AppData\Local\Temp\ccNy8eXk.s:31600  .debug_str:0000000000029ce7 .LASF681
C:\Users\CYMR90~1\AppData\Local\Temp\ccNy8eXk.s:22191  .debug_str:0000000000004447 .LASF682
C:\Users\CYMR90~1\AppData\Local\Temp\ccNy8eXk.s:22111  .debug_str:0000000000003ec5 .LASF683
C:\Users\CYMR90~1\AppData\Local\Temp\ccNy8eXk.s:23505  .debug_str:00000000000097b9 .LASF684
C:\Users\CYMR90~1\AppData\Local\Temp\ccNy8eXk.s:28046  .debug_str:000000000001bb76 .LASF685
C:\Users\CYMR90~1\AppData\Local\Temp\ccNy8eXk.s:29458  .debug_str:000000000002144c .LASF686
C:\Users\CYMR90~1\AppData\Local\Temp\ccNy8eXk.s:26813  .debug_str:0000000000016a64 .LASF687
C:\Users\CYMR90~1\AppData\Local\Temp\ccNy8eXk.s:25377  .debug_str:0000000000010edc .LASF688
C:\Users\CYMR90~1\AppData\Local\Temp\ccNy8eXk.s:21987  .debug_str:00000000000036df .LASF689
C:\Users\CYMR90~1\AppData\Local\Temp\ccNy8eXk.s:22881  .debug_str:0000000000006f69 .LASF690
C:\Users\CYMR90~1\AppData\Local\Temp\ccNy8eXk.s:25721  .debug_str:0000000000012516 .LASF691
C:\Users\CYMR90~1\AppData\Local\Temp\ccNy8eXk.s:26575  .debug_str:0000000000015a99 .LASF692
C:\Users\CYMR90~1\AppData\Local\Temp\ccNy8eXk.s:22573  .debug_str:0000000000005c59 .LASF695
C:\Users\CYMR90~1\AppData\Local\Temp\ccNy8eXk.s:26976  .debug_str:0000000000017637 .LASF696
C:\Users\CYMR90~1\AppData\Local\Temp\ccNy8eXk.s:26874  .debug_str:0000000000017069 .LASF697
C:\Users\CYMR90~1\AppData\Local\Temp\ccNy8eXk.s:28016  .debug_str:000000000001b9e5 .LASF698
C:\Users\CYMR90~1\AppData\Local\Temp\ccNy8eXk.s:30206  .debug_str:00000000000240e6 .LASF699
C:\Users\CYMR90~1\AppData\Local\Temp\ccNy8eXk.s:26313  .debug_str:0000000000014a85 .LASF702
C:\Users\CYMR90~1\AppData\Local\Temp\ccNy8eXk.s:23527  .debug_str:0000000000009910 .LASF703
C:\Users\CYMR90~1\AppData\Local\Temp\ccNy8eXk.s:28892  .debug_str:000000000001f1ac .LASF704
C:\Users\CYMR90~1\AppData\Local\Temp\ccNy8eXk.s:22387  .debug_str:0000000000005108 .LASF705
C:\Users\CYMR90~1\AppData\Local\Temp\ccNy8eXk.s:26641  .debug_str:0000000000015f14 .LASF706
C:\Users\CYMR90~1\AppData\Local\Temp\ccNy8eXk.s:24967  .debug_str:000000000000f50b .LASF707
C:\Users\CYMR90~1\AppData\Local\Temp\ccNy8eXk.s:31336  .debug_str:0000000000028c8d .LASF708
C:\Users\CYMR90~1\AppData\Local\Temp\ccNy8eXk.s:30576  .debug_str:0000000000025b78 .LASF709
C:\Users\CYMR90~1\AppData\Local\Temp\ccNy8eXk.s:24609  .debug_str:000000000000dfae .LASF710
C:\Users\CYMR90~1\AppData\Local\Temp\ccNy8eXk.s:25127  .debug_str:000000000000ff3d .LASF711
C:\Users\CYMR90~1\AppData\Local\Temp\ccNy8eXk.s:26789  .debug_str:0000000000016872 .LASF712
C:\Users\CYMR90~1\AppData\Local\Temp\ccNy8eXk.s:23765  .debug_str:000000000000a7e6 .LASF713
C:\Users\CYMR90~1\AppData\Local\Temp\ccNy8eXk.s:32150  .debug_str:000000000002be70 .LASF714
C:\Users\CYMR90~1\AppData\Local\Temp\ccNy8eXk.s:23121  .debug_str:0000000000007f32 .LASF715
C:\Users\CYMR90~1\AppData\Local\Temp\ccNy8eXk.s:24033  .debug_str:000000000000ba82 .LASF716
C:\Users\CYMR90~1\AppData\Local\Temp\ccNy8eXk.s:29114  .debug_str:000000000001ff61 .LASF717
C:\Users\CYMR90~1\AppData\Local\Temp\ccNy8eXk.s:30534  .debug_str:0000000000025874 .LASF718
C:\Users\CYMR90~1\AppData\Local\Temp\ccNy8eXk.s:30316  .debug_str:00000000000248d3 .LASF719
C:\Users\CYMR90~1\AppData\Local\Temp\ccNy8eXk.s:27292  .debug_str:0000000000018998 .LASF720
C:\Users\CYMR90~1\AppData\Local\Temp\ccNy8eXk.s:21625  .debug_str:0000000000002097 .LASF721
C:\Users\CYMR90~1\AppData\Local\Temp\ccNy8eXk.s:29224  .debug_str:0000000000020634 .LASF722
C:\Users\CYMR90~1\AppData\Local\Temp\ccNy8eXk.s:28202  .debug_str:000000000001c515 .LASF723
C:\Users\CYMR90~1\AppData\Local\Temp\ccNy8eXk.s:28764  .debug_str:000000000001e9e9 .LASF724
C:\Users\CYMR90~1\AppData\Local\Temp\ccNy8eXk.s:29702  .debug_str:00000000000222e9 .LASF725
C:\Users\CYMR90~1\AppData\Local\Temp\ccNy8eXk.s:25975  .debug_str:0000000000013617 .LASF726
C:\Users\CYMR90~1\AppData\Local\Temp\ccNy8eXk.s:23759  .debug_str:000000000000a78c .LASF727
C:\Users\CYMR90~1\AppData\Local\Temp\ccNy8eXk.s:30670  .debug_str:000000000002615f .LASF728
C:\Users\CYMR90~1\AppData\Local\Temp\ccNy8eXk.s:29004  .debug_str:000000000001f852 .LASF729
C:\Users\CYMR90~1\AppData\Local\Temp\ccNy8eXk.s:27482  .debug_str:0000000000019687 .LASF730
C:\Users\CYMR90~1\AppData\Local\Temp\ccNy8eXk.s:25947  .debug_str:000000000001343c .LASF731
C:\Users\CYMR90~1\AppData\Local\Temp\ccNy8eXk.s:30608  .debug_str:0000000000025d91 .LASF732
C:\Users\CYMR90~1\AppData\Local\Temp\ccNy8eXk.s:32364  .debug_str:000000000002ccea .LASF733
C:\Users\CYMR90~1\AppData\Local\Temp\ccNy8eXk.s:25427  .debug_str:00000000000111a0 .LASF734
C:\Users\CYMR90~1\AppData\Local\Temp\ccNy8eXk.s:25353  .debug_str:0000000000010da5 .LASF735
C:\Users\CYMR90~1\AppData\Local\Temp\ccNy8eXk.s:32288  .debug_str:000000000002c7a9 .LASF736
C:\Users\CYMR90~1\AppData\Local\Temp\ccNy8eXk.s:24325  .debug_str:000000000000cdc1 .LASF737
C:\Users\CYMR90~1\AppData\Local\Temp\ccNy8eXk.s:28352  .debug_str:000000000001d059 .LASF738
C:\Users\CYMR90~1\AppData\Local\Temp\ccNy8eXk.s:32032  .debug_str:000000000002b69a .LASF739
C:\Users\CYMR90~1\AppData\Local\Temp\ccNy8eXk.s:21535  .debug_str:0000000000001b1a .LASF740
C:\Users\CYMR90~1\AppData\Local\Temp\ccNy8eXk.s:24263  .debug_str:000000000000ca18 .LASF741
C:\Users\CYMR90~1\AppData\Local\Temp\ccNy8eXk.s:21509  .debug_str:00000000000019a9 .LASF742
C:\Users\CYMR90~1\AppData\Local\Temp\ccNy8eXk.s:25387  .debug_str:0000000000010f48 .LASF743
C:\Users\CYMR90~1\AppData\Local\Temp\ccNy8eXk.s:21973  .debug_str:0000000000003631 .LASF744
C:\Users\CYMR90~1\AppData\Local\Temp\ccNy8eXk.s:23377  .debug_str:000000000000902a .LASF745
C:\Users\CYMR90~1\AppData\Local\Temp\ccNy8eXk.s:29714  .debug_str:000000000002238a .LASF746
C:\Users\CYMR90~1\AppData\Local\Temp\ccNy8eXk.s:21405  .debug_str:00000000000012d6 .LASF747
C:\Users\CYMR90~1\AppData\Local\Temp\ccNy8eXk.s:21395  .debug_str:0000000000001254 .LASF748
C:\Users\CYMR90~1\AppData\Local\Temp\ccNy8eXk.s:22553  .debug_str:0000000000005afb .LASF750
C:\Users\CYMR90~1\AppData\Local\Temp\ccNy8eXk.s:25305  .debug_str:0000000000010a00 .LASF751
C:\Users\CYMR90~1\AppData\Local\Temp\ccNy8eXk.s:31488  .debug_str:0000000000029618 .LASF752
C:\Users\CYMR90~1\AppData\Local\Temp\ccNy8eXk.s:25245  .debug_str:00000000000106a2 .LASF753
C:\Users\CYMR90~1\AppData\Local\Temp\ccNy8eXk.s:22433  .debug_str:00000000000053d7 .LASF754
C:\Users\CYMR90~1\AppData\Local\Temp\ccNy8eXk.s:24017  .debug_str:000000000000b99c .LASF755
C:\Users\CYMR90~1\AppData\Local\Temp\ccNy8eXk.s:27558  .debug_str:0000000000019c19 .LASF756
C:\Users\CYMR90~1\AppData\Local\Temp\ccNy8eXk.s:23515  .debug_str:0000000000009868 .LASF757
C:\Users\CYMR90~1\AppData\Local\Temp\ccNy8eXk.s:30560  .debug_str:0000000000025a90 .LASF758
C:\Users\CYMR90~1\AppData\Local\Temp\ccNy8eXk.s:27194  .debug_str:00000000000183a2 .LASF759
C:\Users\CYMR90~1\AppData\Local\Temp\ccNy8eXk.s:27928  .debug_str:000000000001b4ac .LASF760
C:\Users\CYMR90~1\AppData\Local\Temp\ccNy8eXk.s:32132  .debug_str:000000000002bd2a .LASF761
C:\Users\CYMR90~1\AppData\Local\Temp\ccNy8eXk.s:23943  .debug_str:000000000000b46d .LASF762
C:\Users\CYMR90~1\AppData\Local\Temp\ccNy8eXk.s:27938  .debug_str:000000000001b56a .LASF765
C:\Users\CYMR90~1\AppData\Local\Temp\ccNy8eXk.s:26611  .debug_str:0000000000015ce7 .LASF766
C:\Users\CYMR90~1\AppData\Local\Temp\ccNy8eXk.s:29606  .debug_str:0000000000021d1c .LASF767
C:\Users\CYMR90~1\AppData\Local\Temp\ccNy8eXk.s:26601  .debug_str:0000000000015c77 .LASF768
C:\Users\CYMR90~1\AppData\Local\Temp\ccNy8eXk.s:21777  .debug_str:00000000000029e1 .LASF769
C:\Users\CYMR90~1\AppData\Local\Temp\ccNy8eXk.s:28064  .debug_str:000000000001bcdd .LASF770
C:\Users\CYMR90~1\AppData\Local\Temp\ccNy8eXk.s:26697  .debug_str:0000000000016292 .LASF771
C:\Users\CYMR90~1\AppData\Local\Temp\ccNy8eXk.s:30280  .debug_str:00000000000246b6 .LASF772
C:\Users\CYMR90~1\AppData\Local\Temp\ccNy8eXk.s:29902  .debug_str:0000000000022ecd .LASF773
C:\Users\CYMR90~1\AppData\Local\Temp\ccNy8eXk.s:24689  .debug_str:000000000000e45c .LASF774
C:\Users\CYMR90~1\AppData\Local\Temp\ccNy8eXk.s:30610  .debug_str:0000000000025da7 .LASF775
C:\Users\CYMR90~1\AppData\Local\Temp\ccNy8eXk.s:23657  .debug_str:000000000000a187 .LASF776
C:\Users\CYMR90~1\AppData\Local\Temp\ccNy8eXk.s:23673  .debug_str:000000000000a28b .LASF777
C:\Users\CYMR90~1\AppData\Local\Temp\ccNy8eXk.s:28704  .debug_str:000000000001e60f .LASF778
C:\Users\CYMR90~1\AppData\Local\Temp\ccNy8eXk.s:25191  .debug_str:0000000000010373 .LASF779
C:\Users\CYMR90~1\AppData\Local\Temp\ccNy8eXk.s:28956  .debug_str:000000000001f583 .LASF780
C:\Users\CYMR90~1\AppData\Local\Temp\ccNy8eXk.s:29602  .debug_str:0000000000021d03 .LASF781
C:\Users\CYMR90~1\AppData\Local\Temp\ccNy8eXk.s:25671  .debug_str:000000000001220d .LASF782
C:\Users\CYMR90~1\AppData\Local\Temp\ccNy8eXk.s:26821  .debug_str:0000000000016b87 .LASF783
C:\Users\CYMR90~1\AppData\Local\Temp\ccNy8eXk.s:25571  .debug_str:0000000000011bcf .LASF784
C:\Users\CYMR90~1\AppData\Local\Temp\ccNy8eXk.s:24871  .debug_str:000000000000ef36 .LASF785
C:\Users\CYMR90~1\AppData\Local\Temp\ccNy8eXk.s:29968  .debug_str:0000000000023266 .LASF786
C:\Users\CYMR90~1\AppData\Local\Temp\ccNy8eXk.s:26327  .debug_str:0000000000014baa .LASF787
C:\Users\CYMR90~1\AppData\Local\Temp\ccNy8eXk.s:28638  .debug_str:000000000001e22d .LASF788
C:\Users\CYMR90~1\AppData\Local\Temp\ccNy8eXk.s:25049  .debug_str:000000000000fa5d .LASF789
C:\Users\CYMR90~1\AppData\Local\Temp\ccNy8eXk.s:22485  .debug_str:00000000000056f5 .LASF790
C:\Users\CYMR90~1\AppData\Local\Temp\ccNy8eXk.s:30962  .debug_str:0000000000027396 .LASF791
C:\Users\CYMR90~1\AppData\Local\Temp\ccNy8eXk.s:23243  .debug_str:000000000000878c .LASF792
C:\Users\CYMR90~1\AppData\Local\Temp\ccNy8eXk.s:32370  .debug_str:000000000002cd38 .LASF793
C:\Users\CYMR90~1\AppData\Local\Temp\ccNy8eXk.s:23031  .debug_str:0000000000007913 .LASF794
C:\Users\CYMR90~1\AppData\Local\Temp\ccNy8eXk.s:31216  .debug_str:00000000000284aa .LASF795
C:\Users\CYMR90~1\AppData\Local\Temp\ccNy8eXk.s:29198  .debug_str:0000000000020440 .LASF796
C:\Users\CYMR90~1\AppData\Local\Temp\ccNy8eXk.s:31920  .debug_str:000000000002afc7 .LASF797
C:\Users\CYMR90~1\AppData\Local\Temp\ccNy8eXk.s:22865  .debug_str:0000000000006e47 .LASF798
C:\Users\CYMR90~1\AppData\Local\Temp\ccNy8eXk.s:31278  .debug_str:0000000000028908 .LASF799
C:\Users\CYMR90~1\AppData\Local\Temp\ccNy8eXk.s:22449  .debug_str:00000000000054ce .LASF800
C:\Users\CYMR90~1\AppData\Local\Temp\ccNy8eXk.s:27692  .debug_str:000000000001a544 .LASF801
C:\Users\CYMR90~1\AppData\Local\Temp\ccNy8eXk.s:27724  .debug_str:000000000001a72e .LASF802
C:\Users\CYMR90~1\AppData\Local\Temp\ccNy8eXk.s:23577  .debug_str:0000000000009c97 .LASF803
C:\Users\CYMR90~1\AppData\Local\Temp\ccNy8eXk.s:26077  .debug_str:0000000000013c47 .LASF804
C:\Users\CYMR90~1\AppData\Local\Temp\ccNy8eXk.s:22879  .debug_str:0000000000006f0e .LASF805
C:\Users\CYMR90~1\AppData\Local\Temp\ccNy8eXk.s:25523  .debug_str:0000000000011829 .LASF806
C:\Users\CYMR90~1\AppData\Local\Temp\ccNy8eXk.s:28660  .debug_str:000000000001e343 .LASF807
C:\Users\CYMR90~1\AppData\Local\Temp\ccNy8eXk.s:28252  .debug_str:000000000001c8e3 .LASF808
C:\Users\CYMR90~1\AppData\Local\Temp\ccNy8eXk.s:30680  .debug_str:00000000000261f6 .LASF809
C:\Users\CYMR90~1\AppData\Local\Temp\ccNy8eXk.s:32136  .debug_str:000000000002bd7f .LASF810
C:\Users\CYMR90~1\AppData\Local\Temp\ccNy8eXk.s:23267  .debug_str:0000000000008900 .LASF811
C:\Users\CYMR90~1\AppData\Local\Temp\ccNy8eXk.s:22173  .debug_str:0000000000004331 .LASF812
C:\Users\CYMR90~1\AppData\Local\Temp\ccNy8eXk.s:32174  .debug_str:000000000002c06a .LASF813
C:\Users\CYMR90~1\AppData\Local\Temp\ccNy8eXk.s:22549  .debug_str:0000000000005ad4 .LASF814
C:\Users\CYMR90~1\AppData\Local\Temp\ccNy8eXk.s:22777  .debug_str:000000000000688a .LASF815
C:\Users\CYMR90~1\AppData\Local\Temp\ccNy8eXk.s:28030  .debug_str:000000000001baa3 .LASF816
C:\Users\CYMR90~1\AppData\Local\Temp\ccNy8eXk.s:23441  .debug_str:00000000000093ca .LASF817
C:\Users\CYMR90~1\AppData\Local\Temp\ccNy8eXk.s:28172  .debug_str:000000000001c384 .LASF818
C:\Users\CYMR90~1\AppData\Local\Temp\ccNy8eXk.s:28068  .debug_str:000000000001bcf5 .LASF819
C:\Users\CYMR90~1\AppData\Local\Temp\ccNy8eXk.s:21277  .debug_str:0000000000000b0d .LASF820
C:\Users\CYMR90~1\AppData\Local\Temp\ccNy8eXk.s:31758  .debug_str:000000000002a601 .LASF821
C:\Users\CYMR90~1\AppData\Local\Temp\ccNy8eXk.s:30276  .debug_str:000000000002467b .LASF822
C:\Users\CYMR90~1\AppData\Local\Temp\ccNy8eXk.s:23405  .debug_str:000000000000918b .LASF823
C:\Users\CYMR90~1\AppData\Local\Temp\ccNy8eXk.s:26747  .debug_str:00000000000165e3 .LASF824
C:\Users\CYMR90~1\AppData\Local\Temp\ccNy8eXk.s:28356  .debug_str:000000000001d094 .LASF825
C:\Users\CYMR90~1\AppData\Local\Temp\ccNy8eXk.s:26535  .debug_str:000000000001582a .LASF826
C:\Users\CYMR90~1\AppData\Local\Temp\ccNy8eXk.s:22055  .debug_str:0000000000003b1d .LASF827
C:\Users\CYMR90~1\AppData\Local\Temp\ccNy8eXk.s:24849  .debug_str:000000000000ee14 .LASF828
C:\Users\CYMR90~1\AppData\Local\Temp\ccNy8eXk.s:30386  .debug_str:0000000000024d92 .LASF829
C:\Users\CYMR90~1\AppData\Local\Temp\ccNy8eXk.s:30550  .debug_str:00000000000259d0 .LASF830
C:\Users\CYMR90~1\AppData\Local\Temp\ccNy8eXk.s:24023  .debug_str:000000000000b9f7 .LASF831
C:\Users\CYMR90~1\AppData\Local\Temp\ccNy8eXk.s:24795  .debug_str:000000000000eaf4 .LASF832
C:\Users\CYMR90~1\AppData\Local\Temp\ccNy8eXk.s:22635  .debug_str:0000000000005fdc .LASF833
C:\Users\CYMR90~1\AppData\Local\Temp\ccNy8eXk.s:25429  .debug_str:00000000000111b1 .LASF834
C:\Users\CYMR90~1\AppData\Local\Temp\ccNy8eXk.s:27218  .debug_str:000000000001851d .LASF835
C:\Users\CYMR90~1\AppData\Local\Temp\ccNy8eXk.s:25335  .debug_str:0000000000010c32 .LASF836
C:\Users\CYMR90~1\AppData\Local\Temp\ccNy8eXk.s:29106  .debug_str:000000000001fee5 .LASF837
C:\Users\CYMR90~1\AppData\Local\Temp\ccNy8eXk.s:23313  .debug_str:0000000000008bfb .LASF838
C:\Users\CYMR90~1\AppData\Local\Temp\ccNy8eXk.s:22473  .debug_str:0000000000005656 .LASF839
C:\Users\CYMR90~1\AppData\Local\Temp\ccNy8eXk.s:25235  .debug_str:00000000000105f1 .LASF840
C:\Users\CYMR90~1\AppData\Local\Temp\ccNy8eXk.s:24155  .debug_str:000000000000c2fa .LASF841
C:\Users\CYMR90~1\AppData\Local\Temp\ccNy8eXk.s:28270  .debug_str:000000000001c9f3 .LASF842
C:\Users\CYMR90~1\AppData\Local\Temp\ccNy8eXk.s:21347  .debug_str:0000000000000f9c .LASF843
C:\Users\CYMR90~1\AppData\Local\Temp\ccNy8eXk.s:21709  .debug_str:0000000000002558 .LASF844
C:\Users\CYMR90~1\AppData\Local\Temp\ccNy8eXk.s:24473  .debug_str:000000000000d7df .LASF845
C:\Users\CYMR90~1\AppData\Local\Temp\ccNy8eXk.s:21109  .debug_str:0000000000000096 .LASF846
C:\Users\CYMR90~1\AppData\Local\Temp\ccNy8eXk.s:23111  .debug_str:0000000000007eb3 .LASF847
C:\Users\CYMR90~1\AppData\Local\Temp\ccNy8eXk.s:28962  .debug_str:000000000001f5d1 .LASF848
C:\Users\CYMR90~1\AppData\Local\Temp\ccNy8eXk.s:23079  .debug_str:0000000000007c2d .LASF849
C:\Users\CYMR90~1\AppData\Local\Temp\ccNy8eXk.s:24447  .debug_str:000000000000d61d .LASF852
C:\Users\CYMR90~1\AppData\Local\Temp\ccNy8eXk.s:31330  .debug_str:0000000000028c35 .LASF853
C:\Users\CYMR90~1\AppData\Local\Temp\ccNy8eXk.s:26385  .debug_str:0000000000014fab .LASF854
C:\Users\CYMR90~1\AppData\Local\Temp\ccNy8eXk.s:29612  .debug_str:0000000000021db1 .LASF856
C:\Users\CYMR90~1\AppData\Local\Temp\ccNy8eXk.s:28498  .debug_str:000000000001d99e .LASF857
C:\Users\CYMR90~1\AppData\Local\Temp\ccNy8eXk.s:31148  .debug_str:0000000000027f62 .LASF858
C:\Users\CYMR90~1\AppData\Local\Temp\ccNy8eXk.s:24433  .debug_str:000000000000d539 .LASF859
C:\Users\CYMR90~1\AppData\Local\Temp\ccNy8eXk.s:25385  .debug_str:0000000000010f3e .LASF860
C:\Users\CYMR90~1\AppData\Local\Temp\ccNy8eXk.s:29544  .debug_str:0000000000021969 .LASF861
C:\Users\CYMR90~1\AppData\Local\Temp\ccNy8eXk.s:28696  .debug_str:000000000001e5bf .LASF862
C:\Users\CYMR90~1\AppData\Local\Temp\ccNy8eXk.s:21445  .debug_str:0000000000001534 .LASF863
C:\Users\CYMR90~1\AppData\Local\Temp\ccNy8eXk.s:22115  .debug_str:0000000000003ef3 .LASF864
C:\Users\CYMR90~1\AppData\Local\Temp\ccNy8eXk.s:22519  .debug_str:0000000000005929 .LASF865
C:\Users\CYMR90~1\AppData\Local\Temp\ccNy8eXk.s:23705  .debug_str:000000000000a4a2 .LASF866
C:\Users\CYMR90~1\AppData\Local\Temp\ccNy8eXk.s:23181  .debug_str:00000000000083b3 .LASF867
C:\Users\CYMR90~1\AppData\Local\Temp\ccNy8eXk.s:28424  .debug_str:000000000001d499 .LASF868
C:\Users\CYMR90~1\AppData\Local\Temp\ccNy8eXk.s:29046  .debug_str:000000000001fb0e .LASF869
C:\Users\CYMR90~1\AppData\Local\Temp\ccNy8eXk.s:30140  .debug_str:0000000000023d17 .LASF870
C:\Users\CYMR90~1\AppData\Local\Temp\ccNy8eXk.s:23349  .debug_str:0000000000008e5d .LASF871
C:\Users\CYMR90~1\AppData\Local\Temp\ccNy8eXk.s:23783  .debug_str:000000000000aa1f .LASF872
C:\Users\CYMR90~1\AppData\Local\Temp\ccNy8eXk.s:28262  .debug_str:000000000001c981 .LASF873
C:\Users\CYMR90~1\AppData\Local\Temp\ccNy8eXk.s:29920  .debug_str:0000000000022fd5 .LASF874
C:\Users\CYMR90~1\AppData\Local\Temp\ccNy8eXk.s:25591  .debug_str:0000000000011cca .LASF875
C:\Users\CYMR90~1\AppData\Local\Temp\ccNy8eXk.s:26289  .debug_str:0000000000014969 .LASF876
C:\Users\CYMR90~1\AppData\Local\Temp\ccNy8eXk.s:23583  .debug_str:0000000000009cec .LASF877
C:\Users\CYMR90~1\AppData\Local\Temp\ccNy8eXk.s:27970  .debug_str:000000000001b760 .LASF878
C:\Users\CYMR90~1\AppData\Local\Temp\ccNy8eXk.s:25381  .debug_str:0000000000010f19 .LASF879
C:\Users\CYMR90~1\AppData\Local\Temp\ccNy8eXk.s:26926  .debug_str:0000000000017368 .LASF880
C:\Users\CYMR90~1\AppData\Local\Temp\ccNy8eXk.s:22451  .debug_str:00000000000054e7 .LASF881
C:\Users\CYMR90~1\AppData\Local\Temp\ccNy8eXk.s:25819  .debug_str:0000000000012bab .LASF882
C:\Users\CYMR90~1\AppData\Local\Temp\ccNy8eXk.s:28934  .debug_str:000000000001f455 .LASF883
C:\Users\CYMR90~1\AppData\Local\Temp\ccNy8eXk.s:29118  .debug_str:000000000001ff8e .LASF884
C:\Users\CYMR90~1\AppData\Local\Temp\ccNy8eXk.s:32426  .debug_str:000000000002d0c1 .LASF885
C:\Users\CYMR90~1\AppData\Local\Temp\ccNy8eXk.s:27976  .debug_str:000000000001b7b8 .LASF886
C:\Users\CYMR90~1\AppData\Local\Temp\ccNy8eXk.s:23453  .debug_str:0000000000009471 .LASF887
C:\Users\CYMR90~1\AppData\Local\Temp\ccNy8eXk.s:30088  .debug_str:0000000000023a28 .LASF888
C:\Users\CYMR90~1\AppData\Local\Temp\ccNy8eXk.s:25757  .debug_str:0000000000012775 .LASF889
C:\Users\CYMR90~1\AppData\Local\Temp\ccNy8eXk.s:30018  .debug_str:0000000000023573 .LASF890
C:\Users\CYMR90~1\AppData\Local\Temp\ccNy8eXk.s:22267  .debug_str:00000000000049e2 .LASF891
C:\Users\CYMR90~1\AppData\Local\Temp\ccNy8eXk.s:24743  .debug_str:000000000000e7db .LASF892
C:\Users\CYMR90~1\AppData\Local\Temp\ccNy8eXk.s:30794  .debug_str:00000000000268e1 .LASF893
C:\Users\CYMR90~1\AppData\Local\Temp\ccNy8eXk.s:30186  .debug_str:0000000000023fda .LASF894
C:\Users\CYMR90~1\AppData\Local\Temp\ccNy8eXk.s:21417  .debug_str:0000000000001380 .LASF895
C:\Users\CYMR90~1\AppData\Local\Temp\ccNy8eXk.s:26141  .debug_str:000000000001401f .LASF896
C:\Users\CYMR90~1\AppData\Local\Temp\ccNy8eXk.s:22359  .debug_str:0000000000004f55 .LASF897
C:\Users\CYMR90~1\AppData\Local\Temp\ccNy8eXk.s:23573  .debug_str:0000000000009c58 .LASF898
C:\Users\CYMR90~1\AppData\Local\Temp\ccNy8eXk.s:31090  .debug_str:0000000000027b95 .LASF899
C:\Users\CYMR90~1\AppData\Local\Temp\ccNy8eXk.s:23901  .debug_str:000000000000b209 .LASF900
C:\Users\CYMR90~1\AppData\Local\Temp\ccNy8eXk.s:28022  .debug_str:000000000001ba1b .LASF901
C:\Users\CYMR90~1\AppData\Local\Temp\ccNy8eXk.s:31624  .debug_str:0000000000029e5f .LASF902
C:\Users\CYMR90~1\AppData\Local\Temp\ccNy8eXk.s:30384  .debug_str:0000000000024d6c .LASF903
C:\Users\CYMR90~1\AppData\Local\Temp\ccNy8eXk.s:31238  .debug_str:0000000000028615 .LASF904
C:\Users\CYMR90~1\AppData\Local\Temp\ccNy8eXk.s:25803  .debug_str:0000000000012a9d .LASF905
C:\Users\CYMR90~1\AppData\Local\Temp\ccNy8eXk.s:23231  .debug_str:00000000000086f2 .LASF906
C:\Users\CYMR90~1\AppData\Local\Temp\ccNy8eXk.s:31800  .debug_str:000000000002a8e9 .LASF907
C:\Users\CYMR90~1\AppData\Local\Temp\ccNy8eXk.s:24739  .debug_str:000000000000e798 .LASF908
C:\Users\CYMR90~1\AppData\Local\Temp\ccNy8eXk.s:31066  .debug_str:00000000000279d5 .LASF909
C:\Users\CYMR90~1\AppData\Local\Temp\ccNy8eXk.s:25355  .debug_str:0000000000010db6 .LASF910
C:\Users\CYMR90~1\AppData\Local\Temp\ccNy8eXk.s:21811  .debug_str:0000000000002bfb .LASF911
C:\Users\CYMR90~1\AppData\Local\Temp\ccNy8eXk.s:21389  .debug_str:0000000000001217 .LASF912
C:\Users\CYMR90~1\AppData\Local\Temp\ccNy8eXk.s:29460  .debug_str:0000000000021470 .LASF913
C:\Users\CYMR90~1\AppData\Local\Temp\ccNy8eXk.s:30366  .debug_str:0000000000024c47 .LASF914
C:\Users\CYMR90~1\AppData\Local\Temp\ccNy8eXk.s:24275  .debug_str:000000000000caea .LASF915
C:\Users\CYMR90~1\AppData\Local\Temp\ccNy8eXk.s:26900  .debug_str:00000000000171c6 .LASF916
C:\Users\CYMR90~1\AppData\Local\Temp\ccNy8eXk.s:25173  .debug_str:0000000000010227 .LASF917
C:\Users\CYMR90~1\AppData\Local\Temp\ccNy8eXk.s:31872  .debug_str:000000000002acd8 .LASF918
C:\Users\CYMR90~1\AppData\Local\Temp\ccNy8eXk.s:21375  .debug_str:0000000000001123 .LASF919
C:\Users\CYMR90~1\AppData\Local\Temp\ccNy8eXk.s:23887  .debug_str:000000000000b11e .LASF920
C:\Users\CYMR90~1\AppData\Local\Temp\ccNy8eXk.s:30318  .debug_str:00000000000248e8 .LASF921
C:\Users\CYMR90~1\AppData\Local\Temp\ccNy8eXk.s:27718  .debug_str:000000000001a6bc .LASF922
C:\Users\CYMR90~1\AppData\Local\Temp\ccNy8eXk.s:30828  .debug_str:0000000000026ad6 .LASF923
C:\Users\CYMR90~1\AppData\Local\Temp\ccNy8eXk.s:26856  .debug_str:0000000000016f4d .LASF924
C:\Users\CYMR90~1\AppData\Local\Temp\ccNy8eXk.s:21767  .debug_str:000000000000292a .LASF925
C:\Users\CYMR90~1\AppData\Local\Temp\ccNy8eXk.s:27930  .debug_str:000000000001b4e6 .LASF926
C:\Users\CYMR90~1\AppData\Local\Temp\ccNy8eXk.s:21487  .debug_str:0000000000001837 .LASF927
C:\Users\CYMR90~1\AppData\Local\Temp\ccNy8eXk.s:26319  .debug_str:0000000000014b24 .LASF928
C:\Users\CYMR90~1\AppData\Local\Temp\ccNy8eXk.s:28994  .debug_str:000000000001f79b .LASF929
C:\Users\CYMR90~1\AppData\Local\Temp\ccNy8eXk.s:32134  .debug_str:000000000002bd62 .LASF930
C:\Users\CYMR90~1\AppData\Local\Temp\ccNy8eXk.s:32362  .debug_str:000000000002cccc .LASF931
C:\Users\CYMR90~1\AppData\Local\Temp\ccNy8eXk.s:28894  .debug_str:000000000001f1c0 .LASF932
C:\Users\CYMR90~1\AppData\Local\Temp\ccNy8eXk.s:31602  .debug_str:0000000000029cf7 .LASF933
C:\Users\CYMR90~1\AppData\Local\Temp\ccNy8eXk.s:26661  .debug_str:000000000001606e .LASF934
C:\Users\CYMR90~1\AppData\Local\Temp\ccNy8eXk.s:27490  .debug_str:0000000000019701 .LASF935
C:\Users\CYMR90~1\AppData\Local\Temp\ccNy8eXk.s:26539  .debug_str:000000000001585f .LASF936
C:\Users\CYMR90~1\AppData\Local\Temp\ccNy8eXk.s:30452  .debug_str:0000000000025237 .LASF937
C:\Users\CYMR90~1\AppData\Local\Temp\ccNy8eXk.s:21295  .debug_str:0000000000000c40 .LASF938
C:\Users\CYMR90~1\AppData\Local\Temp\ccNy8eXk.s:29262  .debug_str:000000000002088d .LASF939
C:\Users\CYMR90~1\AppData\Local\Temp\ccNy8eXk.s:30536  .debug_str:0000000000025880 .LASF940
C:\Users\CYMR90~1\AppData\Local\Temp\ccNy8eXk.s:24025  .debug_str:000000000000ba15 .LASF941
C:\Users\CYMR90~1\AppData\Local\Temp\ccNy8eXk.s:27706  .debug_str:000000000001a603 .LASF942
C:\Users\CYMR90~1\AppData\Local\Temp\ccNy8eXk.s:24783  .debug_str:000000000000ea02 .LASF943
C:\Users\CYMR90~1\AppData\Local\Temp\ccNy8eXk.s:30658  .debug_str:000000000002609b .LASF944
C:\Users\CYMR90~1\AppData\Local\Temp\ccNy8eXk.s:28118  .debug_str:000000000001c048 .LASF945
C:\Users\CYMR90~1\AppData\Local\Temp\ccNy8eXk.s:24987  .debug_str:000000000000f639 .LASF946
C:\Users\CYMR90~1\AppData\Local\Temp\ccNy8eXk.s:27004  .debug_str:00000000000177f8 .LASF947
C:\Users\CYMR90~1\AppData\Local\Temp\ccNy8eXk.s:28622  .debug_str:000000000001e147 .LASF948
C:\Users\CYMR90~1\AppData\Local\Temp\ccNy8eXk.s:25331  .debug_str:0000000000010bf4 .LASF949
C:\Users\CYMR90~1\AppData\Local\Temp\ccNy8eXk.s:24333  .debug_str:000000000000ce2d .LASF950
C:\Users\CYMR90~1\AppData\Local\Temp\ccNy8eXk.s:22941  .debug_str:0000000000007367 .LASF952
C:\Users\CYMR90~1\AppData\Local\Temp\ccNy8eXk.s:26461  .debug_str:0000000000015411 .LASF953
C:\Users\CYMR90~1\AppData\Local\Temp\ccNy8eXk.s:24369  .debug_str:000000000000d0a1 .LASF954
C:\Users\CYMR90~1\AppData\Local\Temp\ccNy8eXk.s:32354  .debug_str:000000000002cc57 .LASF955
C:\Users\CYMR90~1\AppData\Local\Temp\ccNy8eXk.s:31502  .debug_str:00000000000296ca .LASF956
C:\Users\CYMR90~1\AppData\Local\Temp\ccNy8eXk.s:31592  .debug_str:0000000000029c61 .LASF960
C:\Users\CYMR90~1\AppData\Local\Temp\ccNy8eXk.s:23479  .debug_str:000000000000965f .LASF961
C:\Users\CYMR90~1\AppData\Local\Temp\ccNy8eXk.s:30862  .debug_str:0000000000026cfe .LASF962
C:\Users\CYMR90~1\AppData\Local\Temp\ccNy8eXk.s:25563  .debug_str:0000000000011b53 .LASF963
C:\Users\CYMR90~1\AppData\Local\Temp\ccNy8eXk.s:22965  .debug_str:0000000000007514 .LASF964
C:\Users\CYMR90~1\AppData\Local\Temp\ccNy8eXk.s:29644  .debug_str:0000000000021f72 .LASF965
C:\Users\CYMR90~1\AppData\Local\Temp\ccNy8eXk.s:27924  .debug_str:000000000001b47a .LASF966
C:\Users\CYMR90~1\AppData\Local\Temp\ccNy8eXk.s:30800  .debug_str:000000000002693d .LASF967
C:\Users\CYMR90~1\AppData\Local\Temp\ccNy8eXk.s:31912  .debug_str:000000000002af50 .LASF968
C:\Users\CYMR90~1\AppData\Local\Temp\ccNy8eXk.s:22697  .debug_str:0000000000006401 .LASF969
C:\Users\CYMR90~1\AppData\Local\Temp\ccNy8eXk.s:26181  .debug_str:00000000000142bf .LASF970
C:\Users\CYMR90~1\AppData\Local\Temp\ccNy8eXk.s:32002  .debug_str:000000000002b4a8 .LASF971
C:\Users\CYMR90~1\AppData\Local\Temp\ccNy8eXk.s:24793  .debug_str:000000000000eace .LASF972
C:\Users\CYMR90~1\AppData\Local\Temp\ccNy8eXk.s:26243  .debug_str:0000000000014679 .LASF973
C:\Users\CYMR90~1\AppData\Local\Temp\ccNy8eXk.s:24395  .debug_str:000000000000d243 .LASF974
C:\Users\CYMR90~1\AppData\Local\Temp\ccNy8eXk.s:26793  .debug_str:00000000000168d2 .LASF975
C:\Users\CYMR90~1\AppData\Local\Temp\ccNy8eXk.s:32386  .debug_str:000000000002cdf9 .LASF976
C:\Users\CYMR90~1\AppData\Local\Temp\ccNy8eXk.s:24327  .debug_str:000000000000cdd2 .LASF977
C:\Users\CYMR90~1\AppData\Local\Temp\ccNy8eXk.s:32414  .debug_str:000000000002d030 .LASF978
C:\Users\CYMR90~1\AppData\Local\Temp\ccNy8eXk.s:30640  .debug_str:0000000000025f62 .LASF979
C:\Users\CYMR90~1\AppData\Local\Temp\ccNy8eXk.s:30700  .debug_str:000000000002632c .LASF980
C:\Users\CYMR90~1\AppData\Local\Temp\ccNy8eXk.s:24847  .debug_str:000000000000edfa .LASF981
C:\Users\CYMR90~1\AppData\Local\Temp\ccNy8eXk.s:22397  .debug_str:00000000000051b8 .LASF982
C:\Users\CYMR90~1\AppData\Local\Temp\ccNy8eXk.s:25587  .debug_str:0000000000011cad .LASF983
C:\Users\CYMR90~1\AppData\Local\Temp\ccNy8eXk.s:28332  .debug_str:000000000001ce85 .LASF984
C:\Users\CYMR90~1\AppData\Local\Temp\ccNy8eXk.s:28346  .debug_str:000000000001cf71 .LASF985
C:\Users\CYMR90~1\AppData\Local\Temp\ccNy8eXk.s:29932  .debug_str:000000000002306b .LASF986
C:\Users\CYMR90~1\AppData\Local\Temp\ccNy8eXk.s:26607  .debug_str:0000000000015cc3 .LASF987
C:\Users\CYMR90~1\AppData\Local\Temp\ccNy8eXk.s:21831  .debug_str:0000000000002d17 .LASF988
C:\Users\CYMR90~1\AppData\Local\Temp\ccNy8eXk.s:29850  .debug_str:0000000000022bdf .LASF989
C:\Users\CYMR90~1\AppData\Local\Temp\ccNy8eXk.s:27306  .debug_str:0000000000018a59 .LASF990
C:\Users\CYMR90~1\AppData\Local\Temp\ccNy8eXk.s:24323  .debug_str:000000000000cdaa .LASF991
C:\Users\CYMR90~1\AppData\Local\Temp\ccNy8eXk.s:30802  .debug_str:0000000000026965 .LASF992
C:\Users\CYMR90~1\AppData\Local\Temp\ccNy8eXk.s:22983  .debug_str:0000000000007611 .LASF993
C:\Users\CYMR90~1\AppData\Local\Temp\ccNy8eXk.s:30620  .debug_str:0000000000025e11 .LASF994
C:\Users\CYMR90~1\AppData\Local\Temp\ccNy8eXk.s:27390  .debug_str:000000000001911e .LASF995
C:\Users\CYMR90~1\AppData\Local\Temp\ccNy8eXk.s:31410  .debug_str:00000000000290ec .LASF996
C:\Users\CYMR90~1\AppData\Local\Temp\ccNy8eXk.s:30112  .debug_str:0000000000023b84 .LASF997
C:\Users\CYMR90~1\AppData\Local\Temp\ccNy8eXk.s:29478  .debug_str:0000000000021571 .LASF998
C:\Users\CYMR90~1\AppData\Local\Temp\ccNy8eXk.s:21721  .debug_str:00000000000025ec .LASF999
C:\Users\CYMR90~1\AppData\Local\Temp\ccNy8eXk.s:22061  .debug_str:0000000000003b75 .LASF1000
C:\Users\CYMR90~1\AppData\Local\Temp\ccNy8eXk.s:30292  .debug_str:0000000000024774 .LASF1001
C:\Users\CYMR90~1\AppData\Local\Temp\ccNy8eXk.s:25181  .debug_str:00000000000102ce .LASF1002
C:\Users\CYMR90~1\AppData\Local\Temp\ccNy8eXk.s:22351  .debug_str:0000000000004efc .LASF1003
C:\Users\CYMR90~1\AppData\Local\Temp\ccNy8eXk.s:28156  .debug_str:000000000001c2a1 .LASF1004
C:\Users\CYMR90~1\AppData\Local\Temp\ccNy8eXk.s:25541  .debug_str:000000000001196e .LASF1005
C:\Users\CYMR90~1\AppData\Local\Temp\ccNy8eXk.s:24291  .debug_str:000000000000cbdf .LASF1006
C:\Users\CYMR90~1\AppData\Local\Temp\ccNy8eXk.s:22667  .debug_str:0000000000006231 .LASF1007
C:\Users\CYMR90~1\AppData\Local\Temp\ccNy8eXk.s:29640  .debug_str:0000000000021f3a .LASF1008
C:\Users\CYMR90~1\AppData\Local\Temp\ccNy8eXk.s:27084  .debug_str:0000000000017ce0 .LASF1009
C:\Users\CYMR90~1\AppData\Local\Temp\ccNy8eXk.s:27242  .debug_str:0000000000018665 .LASF1010
C:\Users\CYMR90~1\AppData\Local\Temp\ccNy8eXk.s:24615  .debug_str:000000000000dffc .LASF1011
C:\Users\CYMR90~1\AppData\Local\Temp\ccNy8eXk.s:28394  .debug_str:000000000001d2d8 .LASF1012
C:\Users\CYMR90~1\AppData\Local\Temp\ccNy8eXk.s:24809  .debug_str:000000000000ebc1 .LASF1013
C:\Users\CYMR90~1\AppData\Local\Temp\ccNy8eXk.s:27510  .debug_str:0000000000019892 .LASF1014
C:\Users\CYMR90~1\AppData\Local\Temp\ccNy8eXk.s:22059  .debug_str:0000000000003b5f .LASF1015
C:\Users\CYMR90~1\AppData\Local\Temp\ccNy8eXk.s:25005  .debug_str:000000000000f73d .LASF1016
C:\Users\CYMR90~1\AppData\Local\Temp\ccNy8eXk.s:22509  .debug_str:000000000000587e .LASF1017
C:\Users\CYMR90~1\AppData\Local\Temp\ccNy8eXk.s:30952  .debug_str:000000000002725e .LASF1018
C:\Users\CYMR90~1\AppData\Local\Temp\ccNy8eXk.s:24857  .debug_str:000000000000ee7c .LASF1019
C:\Users\CYMR90~1\AppData\Local\Temp\ccNy8eXk.s:21715  .debug_str:00000000000025a3 .LASF1020
C:\Users\CYMR90~1\AppData\Local\Temp\ccNy8eXk.s:27124  .debug_str:0000000000017f6e .LASF1021
C:\Users\CYMR90~1\AppData\Local\Temp\ccNy8eXk.s:24153  .debug_str:000000000000c2e2 .LASF1022
C:\Users\CYMR90~1\AppData\Local\Temp\ccNy8eXk.s:30880  .debug_str:0000000000026df9 .LASF1023
C:\Users\CYMR90~1\AppData\Local\Temp\ccNy8eXk.s:23389  .debug_str:00000000000090cd .LASF1024
C:\Users\CYMR90~1\AppData\Local\Temp\ccNy8eXk.s:27694  .debug_str:000000000001a55e .LASF1025
C:\Users\CYMR90~1\AppData\Local\Temp\ccNy8eXk.s:25359  .debug_str:0000000000010df7 .LASF1026
C:\Users\CYMR90~1\AppData\Local\Temp\ccNy8eXk.s:26311  .debug_str:0000000000014a70 .LASF1027
C:\Users\CYMR90~1\AppData\Local\Temp\ccNy8eXk.s:28474  .debug_str:000000000001d803 .LASF1028
C:\Users\CYMR90~1\AppData\Local\Temp\ccNy8eXk.s:28852  .debug_str:000000000001ef14 .LASF1029
C:\Users\CYMR90~1\AppData\Local\Temp\ccNy8eXk.s:30158  .debug_str:0000000000023e2c .LASF1030
C:\Users\CYMR90~1\AppData\Local\Temp\ccNy8eXk.s:29218  .debug_str:00000000000205ee .LASF1031
C:\Users\CYMR90~1\AppData\Local\Temp\ccNy8eXk.s:31504  .debug_str:0000000000029732 .LASF1032
C:\Users\CYMR90~1\AppData\Local\Temp\ccNy8eXk.s:23535  .debug_str:00000000000099e7 .LASF1033
C:\Users\CYMR90~1\AppData\Local\Temp\ccNy8eXk.s:22407  .debug_str:0000000000005246 .LASF1034
C:\Users\CYMR90~1\AppData\Local\Temp\ccNy8eXk.s:27434  .debug_str:00000000000193a5 .LASF1035
C:\Users\CYMR90~1\AppData\Local\Temp\ccNy8eXk.s:27696  .debug_str:000000000001a573 .LASF1036
C:\Users\CYMR90~1\AppData\Local\Temp\ccNy8eXk.s:29946  .debug_str:0000000000023121 .LASF1037
C:\Users\CYMR90~1\AppData\Local\Temp\ccNy8eXk.s:25029  .debug_str:000000000000f958 .LASF1038
C:\Users\CYMR90~1\AppData\Local\Temp\ccNy8eXk.s:28574  .debug_str:000000000001de8c .LASF1039
C:\Users\CYMR90~1\AppData\Local\Temp\ccNy8eXk.s:26477  .debug_str:000000000001552b .LASF1040
C:\Users\CYMR90~1\AppData\Local\Temp\ccNy8eXk.s:24937  .debug_str:000000000000f336 .LASF1041
C:\Users\CYMR90~1\AppData\Local\Temp\ccNy8eXk.s:30690  .debug_str:0000000000026293 .LASF1042
C:\Users\CYMR90~1\AppData\Local\Temp\ccNy8eXk.s:25183  .debug_str:00000000000102e5 .LASF1043
C:\Users\CYMR90~1\AppData\Local\Temp\ccNy8eXk.s:21127  .debug_str:000000000000019a .LASF1044
C:\Users\CYMR90~1\AppData\Local\Temp\ccNy8eXk.s:23399  .debug_str:000000000000913a .LASF1045
C:\Users\CYMR90~1\AppData\Local\Temp\ccNy8eXk.s:27626  .debug_str:0000000000019fea .LASF1046
C:\Users\CYMR90~1\AppData\Local\Temp\ccNy8eXk.s:26731  .debug_str:0000000000016477 .LASF1047
C:\Users\CYMR90~1\AppData\Local\Temp\ccNy8eXk.s:29990  .debug_str:00000000000233b0 .LASF1048
C:\Users\CYMR90~1\AppData\Local\Temp\ccNy8eXk.s:28818  .debug_str:000000000001ed03 .LASF1049
C:\Users\CYMR90~1\AppData\Local\Temp\ccNy8eXk.s:21905  .debug_str:00000000000031c2 .LASF1050
C:\Users\CYMR90~1\AppData\Local\Temp\ccNy8eXk.s:28828  .debug_str:000000000001ed8e .LASF1051
C:\Users\CYMR90~1\AppData\Local\Temp\ccNy8eXk.s:29028  .debug_str:000000000001f9da .LASF1052
C:\Users\CYMR90~1\AppData\Local\Temp\ccNy8eXk.s:23899  .debug_str:000000000000b1f7 .LASF1053
C:\Users\CYMR90~1\AppData\Local\Temp\ccNy8eXk.s:29892  .debug_str:0000000000022e42 .LASF1054
C:\Users\CYMR90~1\AppData\Local\Temp\ccNy8eXk.s:25847  .debug_str:0000000000012d4b .LASF1055
C:\Users\CYMR90~1\AppData\Local\Temp\ccNy8eXk.s:24789  .debug_str:000000000000ea7c .LASF1056
C:\Users\CYMR90~1\AppData\Local\Temp\ccNy8eXk.s:31126  .debug_str:0000000000027e12 .LASF1057
C:\Users\CYMR90~1\AppData\Local\Temp\ccNy8eXk.s:31718  .debug_str:000000000002a37e .LASF1058
C:\Users\CYMR90~1\AppData\Local\Temp\ccNy8eXk.s:30450  .debug_str:0000000000025215 .LASF1059
C:\Users\CYMR90~1\AppData\Local\Temp\ccNy8eXk.s:21575  .debug_str:0000000000001dac .LASF1060
C:\Users\CYMR90~1\AppData\Local\Temp\ccNy8eXk.s:23211  .debug_str:00000000000085c5 .LASF1061
C:\Users\CYMR90~1\AppData\Local\Temp\ccNy8eXk.s:21259  .debug_str:00000000000009a5 .LASF1062
C:\Users\CYMR90~1\AppData\Local\Temp\ccNy8eXk.s:26217  .debug_str:00000000000144a4 .LASF1063
C:\Users\CYMR90~1\AppData\Local\Temp\ccNy8eXk.s:22113  .debug_str:0000000000003edc .LASF1064
C:\Users\CYMR90~1\AppData\Local\Temp\ccNy8eXk.s:21199  .debug_str:00000000000005ca .LASF1065
C:\Users\CYMR90~1\AppData\Local\Temp\ccNy8eXk.s:32420  .debug_str:000000000002d079 .LASF1066
C:\Users\CYMR90~1\AppData\Local\Temp\ccNy8eXk.s:30294  .debug_str:000000000002478c .LASF1067
C:\Users\CYMR90~1\AppData\Local\Temp\ccNy8eXk.s:30060  .debug_str:000000000002388c .LASF1068
C:\Users\CYMR90~1\AppData\Local\Temp\ccNy8eXk.s:28364  .debug_str:000000000001d0ee .LASF1069
C:\Users\CYMR90~1\AppData\Local\Temp\ccNy8eXk.s:21313  .debug_str:0000000000000d32 .LASF1070
C:\Users\CYMR90~1\AppData\Local\Temp\ccNy8eXk.s:23663  .debug_str:000000000000a1db .LASF1071
C:\Users\CYMR90~1\AppData\Local\Temp\ccNy8eXk.s:29798  .debug_str:0000000000022877 .LASF1072
C:\Users\CYMR90~1\AppData\Local\Temp\ccNy8eXk.s:28328  .debug_str:000000000001ce43 .LASF1073
C:\Users\CYMR90~1\AppData\Local\Temp\ccNy8eXk.s:31374  .debug_str:0000000000028e8b .LASF1074
C:\Users\CYMR90~1\AppData\Local\Temp\ccNy8eXk.s:26934  .debug_str:00000000000173c9 .LASF1075
C:\Users\CYMR90~1\AppData\Local\Temp\ccNy8eXk.s:21759  .debug_str:00000000000028c4 .LASF1076
C:\Users\CYMR90~1\AppData\Local\Temp\ccNy8eXk.s:31806  .debug_str:000000000002a938 .LASF1077
C:\Users\CYMR90~1\AppData\Local\Temp\ccNy8eXk.s:22737  .debug_str:0000000000006651 .LASF1078
C:\Users\CYMR90~1\AppData\Local\Temp\ccNy8eXk.s:29260  .debug_str:000000000002087b .LASF1079
C:\Users\CYMR90~1\AppData\Local\Temp\ccNy8eXk.s:24627  .debug_str:000000000000e0b0 .LASF1080
C:\Users\CYMR90~1\AppData\Local\Temp\ccNy8eXk.s:28138  .debug_str:000000000001c18b .LASF1081
C:\Users\CYMR90~1\AppData\Local\Temp\ccNy8eXk.s:30982  .debug_str:00000000000274dd .LASF1082
C:\Users\CYMR90~1\AppData\Local\Temp\ccNy8eXk.s:26417  .debug_str:000000000001519e .LASF1083
C:\Users\CYMR90~1\AppData\Local\Temp\ccNy8eXk.s:29484  .debug_str:00000000000215d7 .LASF1084
C:\Users\CYMR90~1\AppData\Local\Temp\ccNy8eXk.s:26093  .debug_str:0000000000013d44 .LASF1085
C:\Users\CYMR90~1\AppData\Local\Temp\ccNy8eXk.s:21523  .debug_str:0000000000001a64 .LASF1086
C:\Users\CYMR90~1\AppData\Local\Temp\ccNy8eXk.s:24661  .debug_str:000000000000e2b9 .LASF1087
C:\Users\CYMR90~1\AppData\Local\Temp\ccNy8eXk.s:30698  .debug_str:000000000002631d .LASF1088
C:\Users\CYMR90~1\AppData\Local\Temp\ccNy8eXk.s:29792  .debug_str:000000000002281f .LASF1089
C:\Users\CYMR90~1\AppData\Local\Temp\ccNy8eXk.s:21365  .debug_str:0000000000001081 .LASF1090
C:\Users\CYMR90~1\AppData\Local\Temp\ccNy8eXk.s:32350  .debug_str:000000000002cbff .LASF1091
C:\Users\CYMR90~1\AppData\Local\Temp\ccNy8eXk.s:31088  .debug_str:0000000000027b7d .LASF1092
C:\Users\CYMR90~1\AppData\Local\Temp\ccNy8eXk.s:25007  .debug_str:000000000000f753 .LASF1093
C:\Users\CYMR90~1\AppData\Local\Temp\ccNy8eXk.s:30742  .debug_str:000000000002658e .LASF1094
C:\Users\CYMR90~1\AppData\Local\Temp\ccNy8eXk.s:26493  .debug_str:00000000000155c5 .LASF1095
C:\Users\CYMR90~1\AppData\Local\Temp\ccNy8eXk.s:27948  .debug_str:000000000001b5f6 .LASF1096
C:\Users\CYMR90~1\AppData\Local\Temp\ccNy8eXk.s:28478  .debug_str:000000000001d855 .LASF1097
C:\Users\CYMR90~1\AppData\Local\Temp\ccNy8eXk.s:22723  .debug_str:000000000000659d .LASF1098
C:\Users\CYMR90~1\AppData\Local\Temp\ccNy8eXk.s:25867  .debug_str:0000000000012e82 .LASF1099
C:\Users\CYMR90~1\AppData\Local\Temp\ccNy8eXk.s:25177  .debug_str:000000000001027e .LASF1100
C:\Users\CYMR90~1\AppData\Local\Temp\ccNy8eXk.s:30072  .debug_str:000000000002392c .LASF1101
C:\Users\CYMR90~1\AppData\Local\Temp\ccNy8eXk.s:24339  .debug_str:000000000000ce87 .LASF1102
C:\Users\CYMR90~1\AppData\Local\Temp\ccNy8eXk.s:29730  .debug_str:000000000002244d .LASF1103
C:\Users\CYMR90~1\AppData\Local\Temp\ccNy8eXk.s:31324  .debug_str:0000000000028be3 .LASF1104
C:\Users\CYMR90~1\AppData\Local\Temp\ccNy8eXk.s:29152  .debug_str:0000000000020169 .LASF1105
C:\Users\CYMR90~1\AppData\Local\Temp\ccNy8eXk.s:26041  .debug_str:0000000000013a2e .LASF1106
C:\Users\CYMR90~1\AppData\Local\Temp\ccNy8eXk.s:29986  .debug_str:000000000002337a .LASF1107
C:\Users\CYMR90~1\AppData\Local\Temp\ccNy8eXk.s:27864  .debug_str:000000000001b0a2 .LASF1108
C:\Users\CYMR90~1\AppData\Local\Temp\ccNy8eXk.s:22741  .debug_str:000000000000668d .LASF1109
C:\Users\CYMR90~1\AppData\Local\Temp\ccNy8eXk.s:23693  .debug_str:000000000000a3b4 .LASF1110
C:\Users\CYMR90~1\AppData\Local\Temp\ccNy8eXk.s:21585  .debug_str:0000000000001e4d .LASF1111
C:\Users\CYMR90~1\AppData\Local\Temp\ccNy8eXk.s:22823  .debug_str:0000000000006b9e .LASF1112
C:\Users\CYMR90~1\AppData\Local\Temp\ccNy8eXk.s:23923  .debug_str:000000000000b36b .LASF1113
C:\Users\CYMR90~1\AppData\Local\Temp\ccNy8eXk.s:22477  .debug_str:000000000000567e .LASF1114
C:\Users\CYMR90~1\AppData\Local\Temp\ccNy8eXk.s:23485  .debug_str:000000000000969b .LASF1115
C:\Users\CYMR90~1\AppData\Local\Temp\ccNy8eXk.s:31168  .debug_str:00000000000280f4 .LASF1116
C:\Users\CYMR90~1\AppData\Local\Temp\ccNy8eXk.s:31668  .debug_str:000000000002a0b9 .LASF1117
C:\Users\CYMR90~1\AppData\Local\Temp\ccNy8eXk.s:22639  .debug_str:000000000000606c .LASF1118
C:\Users\CYMR90~1\AppData\Local\Temp\ccNy8eXk.s:27100  .debug_str:0000000000017de4 .LASF1119
C:\Users\CYMR90~1\AppData\Local\Temp\ccNy8eXk.s:23179  .debug_str:0000000000008396 .LASF1120
C:\Users\CYMR90~1\AppData\Local\Temp\ccNy8eXk.s:23383  .debug_str:000000000000906c .LASF1121
C:\Users\CYMR90~1\AppData\Local\Temp\ccNy8eXk.s:25979  .debug_str:0000000000013646 .LASF1122
C:\Users\CYMR90~1\AppData\Local\Temp\ccNy8eXk.s:25613  .debug_str:0000000000011e38 .LASF1123
C:\Users\CYMR90~1\AppData\Local\Temp\ccNy8eXk.s:29236  .debug_str:00000000000206fc .LASF1124
C:\Users\CYMR90~1\AppData\Local\Temp\ccNy8eXk.s:26421  .debug_str:00000000000151c7 .LASF1125
C:\Users\CYMR90~1\AppData\Local\Temp\ccNy8eXk.s:26513  .debug_str:00000000000156fe .LASF1126
C:\Users\CYMR90~1\AppData\Local\Temp\ccNy8eXk.s:29882  .debug_str:0000000000022da4 .LASF1127
C:\Users\CYMR90~1\AppData\Local\Temp\ccNy8eXk.s:30980  .debug_str:00000000000274c8 .LASF1128
C:\Users\CYMR90~1\AppData\Local\Temp\ccNy8eXk.s:22521  .debug_str:0000000000005936 .LASF1129
C:\Users\CYMR90~1\AppData\Local\Temp\ccNy8eXk.s:26511  .debug_str:00000000000156e9 .LASF1130
C:\Users\CYMR90~1\AppData\Local\Temp\ccNy8eXk.s:31500  .debug_str:00000000000296b5 .LASF1131
C:\Users\CYMR90~1\AppData\Local\Temp\ccNy8eXk.s:31904  .debug_str:000000000002aee7 .LASF1132
C:\Users\CYMR90~1\AppData\Local\Temp\ccNy8eXk.s:27212  .debug_str:0000000000018498 .LASF1133
C:\Users\CYMR90~1\AppData\Local\Temp\ccNy8eXk.s:30042  .debug_str:000000000002371f .LASF1134
C:\Users\CYMR90~1\AppData\Local\Temp\ccNy8eXk.s:23067  .debug_str:0000000000007b87 .LASF1135
C:\Users\CYMR90~1\AppData\Local\Temp\ccNy8eXk.s:22291  .debug_str:0000000000004b55 .LASF1136
C:\Users\CYMR90~1\AppData\Local\Temp\ccNy8eXk.s:22119  .debug_str:0000000000003f19 .LASF1137
C:\Users\CYMR90~1\AppData\Local\Temp\ccNy8eXk.s:31510  .debug_str:0000000000029791 .LASF1138
C:\Users\CYMR90~1\AppData\Local\Temp\ccNy8eXk.s:28604  .debug_str:000000000001e059 .LASF1139
C:\Users\CYMR90~1\AppData\Local\Temp\ccNy8eXk.s:28514  .debug_str:000000000001da85 .LASF1140
C:\Users\CYMR90~1\AppData\Local\Temp\ccNy8eXk.s:21173  .debug_str:0000000000000483 .LASF1141
C:\Users\CYMR90~1\AppData\Local\Temp\ccNy8eXk.s:25405  .debug_str:0000000000011055 .LASF1142
C:\Users\CYMR90~1\AppData\Local\Temp\ccNy8eXk.s:24667  .debug_str:000000000000e32c .LASF1143
C:\Users\CYMR90~1\AppData\Local\Temp\ccNy8eXk.s:31036  .debug_str:00000000000277e5 .LASF1144
C:\Users\CYMR90~1\AppData\Local\Temp\ccNy8eXk.s:29196  .debug_str:0000000000020426 .LASF1145
C:\Users\CYMR90~1\AppData\Local\Temp\ccNy8eXk.s:24187  .debug_str:000000000000c4e6 .LASF1146
C:\Users\CYMR90~1\AppData\Local\Temp\ccNy8eXk.s:32346  .debug_str:000000000002cbbd .LASF1147
C:\Users\CYMR90~1\AppData\Local\Temp\ccNy8eXk.s:26960  .debug_str:0000000000017520 .LASF1148
C:\Users\CYMR90~1\AppData\Local\Temp\ccNy8eXk.s:27220  .debug_str:0000000000018545 .LASF1149
C:\Users\CYMR90~1\AppData\Local\Temp\ccNy8eXk.s:27968  .debug_str:000000000001b725 .LASF1150
C:\Users\CYMR90~1\AppData\Local\Temp\ccNy8eXk.s:21587  .debug_str:0000000000001e6b .LASF1151
C:\Users\CYMR90~1\AppData\Local\Temp\ccNy8eXk.s:28382  .debug_str:000000000001d220 .LASF1152
C:\Users\CYMR90~1\AppData\Local\Temp\ccNy8eXk.s:23509  .debug_str:00000000000097da .LASF1153
C:\Users\CYMR90~1\AppData\Local\Temp\ccNy8eXk.s:29498  .debug_str:0000000000021689 .LASF1154
C:\Users\CYMR90~1\AppData\Local\Temp\ccNy8eXk.s:28736  .debug_str:000000000001e851 .LASF1155
C:\Users\CYMR90~1\AppData\Local\Temp\ccNy8eXk.s:22411  .debug_str:0000000000005272 .LASF1156
C:\Users\CYMR90~1\AppData\Local\Temp\ccNy8eXk.s:28570  .debug_str:000000000001de43 .LASF1157
C:\Users\CYMR90~1\AppData\Local\Temp\ccNy8eXk.s:23941  .debug_str:000000000000b45b .LASF1158
C:\Users\CYMR90~1\AppData\Local\Temp\ccNy8eXk.s:31686  .debug_str:000000000002a1e2 .LASF1159
C:\Users\CYMR90~1\AppData\Local\Temp\ccNy8eXk.s:21471  .debug_str:00000000000016a2 .LASF1160
C:\Users\CYMR90~1\AppData\Local\Temp\ccNy8eXk.s:31768  .debug_str:000000000002a6e0 .LASF1161
C:\Users\CYMR90~1\AppData\Local\Temp\ccNy8eXk.s:31450  .debug_str:0000000000029340 .LASF1162
C:\Users\CYMR90~1\AppData\Local\Temp\ccNy8eXk.s:28464  .debug_str:000000000001d795 .LASF1163
C:\Users\CYMR90~1\AppData\Local\Temp\ccNy8eXk.s:27596  .debug_str:0000000000019e1d .LASF1164
C:\Users\CYMR90~1\AppData\Local\Temp\ccNy8eXk.s:24479  .debug_str:000000000000d828 .LASF1165
C:\Users\CYMR90~1\AppData\Local\Temp\ccNy8eXk.s:29122  .debug_str:000000000001ffca .LASF1166
C:\Users\CYMR90~1\AppData\Local\Temp\ccNy8eXk.s:25367  .debug_str:0000000000010e62 .LASF1167
C:\Users\CYMR90~1\AppData\Local\Temp\ccNy8eXk.s:23507  .debug_str:00000000000097d0 .LASF1168
C:\Users\CYMR90~1\AppData\Local\Temp\ccNy8eXk.s:26453  .debug_str:00000000000153ba .LASF1169
C:\Users\CYMR90~1\AppData\Local\Temp\ccNy8eXk.s:27804  .debug_str:000000000001acba .LASF1170
C:\Users\CYMR90~1\AppData\Local\Temp\ccNy8eXk.s:27512  .debug_str:00000000000198a9 .LASF1171
C:\Users\CYMR90~1\AppData\Local\Temp\ccNy8eXk.s:31712  .debug_str:000000000002a34c .LASF1172
C:\Users\CYMR90~1\AppData\Local\Temp\ccNy8eXk.s:26741  .debug_str:0000000000016500 .LASF1173
C:\Users\CYMR90~1\AppData\Local\Temp\ccNy8eXk.s:21293  .debug_str:0000000000000c32 .LASF1174
C:\Users\CYMR90~1\AppData\Local\Temp\ccNy8eXk.s:21695  .debug_str:0000000000002464 .LASF1175
C:\Users\CYMR90~1\AppData\Local\Temp\ccNy8eXk.s:25951  .debug_str:000000000001348f .LASF1176
C:\Users\CYMR90~1\AppData\Local\Temp\ccNy8eXk.s:24287  .debug_str:000000000000cbaf .LASF1177
C:\Users\CYMR90~1\AppData\Local\Temp\ccNy8eXk.s:28522  .debug_str:000000000001db08 .LASF1178
C:\Users\CYMR90~1\AppData\Local\Temp\ccNy8eXk.s:24903  .debug_str:000000000000f10b .LASF1179
C:\Users\CYMR90~1\AppData\Local\Temp\ccNy8eXk.s:24465  .debug_str:000000000000d778 .LASF1180
C:\Users\CYMR90~1\AppData\Local\Temp\ccNy8eXk.s:30256  .debug_str:000000000002452c .LASF1181
C:\Users\CYMR90~1\AppData\Local\Temp\ccNy8eXk.s:23323  .debug_str:0000000000008c8a .LASF1182
C:\Users\CYMR90~1\AppData\Local\Temp\ccNy8eXk.s:21869  .debug_str:0000000000002f66 .LASF1183
C:\Users\CYMR90~1\AppData\Local\Temp\ccNy8eXk.s:28840  .debug_str:000000000001ee49 .LASF1184
C:\Users\CYMR90~1\AppData\Local\Temp\ccNy8eXk.s:29294  .debug_str:0000000000020a55 .LASF1185
C:\Users\CYMR90~1\AppData\Local\Temp\ccNy8eXk.s:30490  .debug_str:000000000002554a .LASF1186
C:\Users\CYMR90~1\AppData\Local\Temp\ccNy8eXk.s:21591  .debug_str:0000000000001e9d .LASF1187
C:\Users\CYMR90~1\AppData\Local\Temp\ccNy8eXk.s:22531  .debug_str:00000000000059c6 .LASF1188
C:\Users\CYMR90~1\AppData\Local\Temp\ccNy8eXk.s:29778  .debug_str:0000000000022732 .LASF1189
C:\Users\CYMR90~1\AppData\Local\Temp\ccNy8eXk.s:23071  .debug_str:0000000000007bb8 .LASF1190
C:\Users\CYMR90~1\AppData\Local\Temp\ccNy8eXk.s:29828  .debug_str:0000000000022a34 .LASF1191
C:\Users\CYMR90~1\AppData\Local\Temp\ccNy8eXk.s:24261  .debug_str:000000000000ca06 .LASF1192
C:\Users\CYMR90~1\AppData\Local\Temp\ccNy8eXk.s:29486  .debug_str:00000000000215e9 .LASF1193
C:\Users\CYMR90~1\AppData\Local\Temp\ccNy8eXk.s:24511  .debug_str:000000000000d9df .LASF1194
C:\Users\CYMR90~1\AppData\Local\Temp\ccNy8eXk.s:28066  .debug_str:000000000001bcea .LASF1195
C:\Users\CYMR90~1\AppData\Local\Temp\ccNy8eXk.s:25449  .debug_str:0000000000011302 .LASF1196
C:\Users\CYMR90~1\AppData\Local\Temp\ccNy8eXk.s:29522  .debug_str:0000000000021811 .LASF1197
C:\Users\CYMR90~1\AppData\Local\Temp\ccNy8eXk.s:31710  .debug_str:000000000002a33d .LASF1198
C:\Users\CYMR90~1\AppData\Local\Temp\ccNy8eXk.s:26763  .debug_str:00000000000166f5 .LASF1199
C:\Users\CYMR90~1\AppData\Local\Temp\ccNy8eXk.s:31716  .debug_str:000000000002a373 .LASF1200
C:\Users\CYMR90~1\AppData\Local\Temp\ccNy8eXk.s:23757  .debug_str:000000000000a780 .LASF1201
C:\Users\CYMR90~1\AppData\Local\Temp\ccNy8eXk.s:23415  .debug_str:000000000000924a .LASF1202
C:\Users\CYMR90~1\AppData\Local\Temp\ccNy8eXk.s:26948  .debug_str:000000000001747f .LASF1203
C:\Users\CYMR90~1\AppData\Local\Temp\ccNy8eXk.s:30814  .debug_str:0000000000026a0e .LASF1204
C:\Users\CYMR90~1\AppData\Local\Temp\ccNy8eXk.s:26003  .debug_str:0000000000013802 .LASF1205
C:\Users\CYMR90~1\AppData\Local\Temp\ccNy8eXk.s:25073  .debug_str:000000000000fbe4 .LASF1206
C:\Users\CYMR90~1\AppData\Local\Temp\ccNy8eXk.s:31682  .debug_str:000000000002a1b0 .LASF1207
C:\Users\CYMR90~1\AppData\Local\Temp\ccNy8eXk.s:30348  .debug_str:0000000000024b32 .LASF1208
C:\Users\CYMR90~1\AppData\Local\Temp\ccNy8eXk.s:24999  .debug_str:000000000000f6fb .LASF1209
C:\Users\CYMR90~1\AppData\Local\Temp\ccNy8eXk.s:22423  .debug_str:0000000000005324 .LASF1210
C:\Users\CYMR90~1\AppData\Local\Temp\ccNy8eXk.s:22523  .debug_str:000000000000594c .LASF1211
C:\Users\CYMR90~1\AppData\Local\Temp\ccNy8eXk.s:23215  .debug_str:0000000000008609 .LASF1212
C:\Users\CYMR90~1\AppData\Local\Temp\ccNy8eXk.s:22817  .debug_str:0000000000006b1e .LASF1213
C:\Users\CYMR90~1\AppData\Local\Temp\ccNy8eXk.s:21705  .debug_str:0000000000002520 .LASF1214
C:\Users\CYMR90~1\AppData\Local\Temp\ccNy8eXk.s:23551  .debug_str:0000000000009b01 .LASF1215
C:\Users\CYMR90~1\AppData\Local\Temp\ccNy8eXk.s:21647  .debug_str:000000000000219b .LASF1216
C:\Users\CYMR90~1\AppData\Local\Temp\ccNy8eXk.s:29942  .debug_str:00000000000230f4 .LASF1217
C:\Users\CYMR90~1\AppData\Local\Temp\ccNy8eXk.s:29956  .debug_str:00000000000231a8 .LASF1218
C:\Users\CYMR90~1\AppData\Local\Temp\ccNy8eXk.s:30402  .debug_str:0000000000024ec2 .LASF1219
C:\Users\CYMR90~1\AppData\Local\Temp\ccNy8eXk.s:27952  .debug_str:000000000001b62a .LASF1220
C:\Users\CYMR90~1\AppData\Local\Temp\ccNy8eXk.s:24555  .debug_str:000000000000dc4c .LASF1221
C:\Users\CYMR90~1\AppData\Local\Temp\ccNy8eXk.s:26269  .debug_str:0000000000014827 .LASF1222
C:\Users\CYMR90~1\AppData\Local\Temp\ccNy8eXk.s:21889  .debug_str:000000000000309a .LASF1223
C:\Users\CYMR90~1\AppData\Local\Temp\ccNy8eXk.s:30594  .debug_str:0000000000025c9b .LASF1224
C:\Users\CYMR90~1\AppData\Local\Temp\ccNy8eXk.s:31000  .debug_str:00000000000275f8 .LASF1225
C:\Users\CYMR90~1\AppData\Local\Temp\ccNy8eXk.s:24029  .debug_str:000000000000ba4f .LASF1226
C:\Users\CYMR90~1\AppData\Local\Temp\ccNy8eXk.s:22957  .debug_str:00000000000074a4 .LASF1227
C:\Users\CYMR90~1\AppData\Local\Temp\ccNy8eXk.s:21979  .debug_str:0000000000003679 .LASF1228
C:\Users\CYMR90~1\AppData\Local\Temp\ccNy8eXk.s:32404  .debug_str:000000000002cf95 .LASF1229
C:\Users\CYMR90~1\AppData\Local\Temp\ccNy8eXk.s:31432  .debug_str:0000000000029230 .LASF1230
C:\Users\CYMR90~1\AppData\Local\Temp\ccNy8eXk.s:30458  .debug_str:000000000002528c .LASF1231
C:\Users\CYMR90~1\AppData\Local\Temp\ccNy8eXk.s:29472  .debug_str:0000000000021528 .LASF1232
C:\Users\CYMR90~1\AppData\Local\Temp\ccNy8eXk.s:29354  .debug_str:0000000000020dd7 .LASF1233
C:\Users\CYMR90~1\AppData\Local\Temp\ccNy8eXk.s:28402  .debug_str:000000000001d33b .LASF1234
C:\Users\CYMR90~1\AppData\Local\Temp\ccNy8eXk.s:27466  .debug_str:00000000000195ab .LASF1235
C:\Users\CYMR90~1\AppData\Local\Temp\ccNy8eXk.s:26165  .debug_str:00000000000141cc .LASF1236
C:\Users\CYMR90~1\AppData\Local\Temp\ccNy8eXk.s:25531  .debug_str:00000000000118ee .LASF1237
C:\Users\CYMR90~1\AppData\Local\Temp\ccNy8eXk.s:31964  .debug_str:000000000002b235 .LASF1238
C:\Users\CYMR90~1\AppData\Local\Temp\ccNy8eXk.s:23623  .debug_str:0000000000009f3a .LASF1239
C:\Users\CYMR90~1\AppData\Local\Temp\ccNy8eXk.s:22633  .debug_str:0000000000005fc5 .LASF1240
C:\Users\CYMR90~1\AppData\Local\Temp\ccNy8eXk.s:21663  .debug_str:0000000000002287 .LASF1241
C:\Users\CYMR90~1\AppData\Local\Temp\ccNy8eXk.s:32102  .debug_str:000000000002bb77 .LASF1242
C:\Users\CYMR90~1\AppData\Local\Temp\ccNy8eXk.s:21187  .debug_str:0000000000000534 .LASF1243
C:\Users\CYMR90~1\AppData\Local\Temp\ccNy8eXk.s:31576  .debug_str:0000000000029b76 .LASF1244
C:\Users\CYMR90~1\AppData\Local\Temp\ccNy8eXk.s:30600  .debug_str:0000000000025ced .LASF1245
C:\Users\CYMR90~1\AppData\Local\Temp\ccNy8eXk.s:29630  .debug_str:0000000000021ea5 .LASF1246
C:\Users\CYMR90~1\AppData\Local\Temp\ccNy8eXk.s:28644  .debug_str:000000000001e275 .LASF1247
C:\Users\CYMR90~1\AppData\Local\Temp\ccNy8eXk.s:27750  .debug_str:000000000001a954 .LASF1248
C:\Users\CYMR90~1\AppData\Local\Temp\ccNy8eXk.s:26805  .debug_str:00000000000169d9 .LASF1249
C:\Users\CYMR90~1\AppData\Local\Temp\ccNy8eXk.s:25871  .debug_str:0000000000012ee5 .LASF1250
C:\Users\CYMR90~1\AppData\Local\Temp\ccNy8eXk.s:24909  .debug_str:000000000000f150 .LASF1251
C:\Users\CYMR90~1\AppData\Local\Temp\ccNy8eXk.s:27062  .debug_str:0000000000017bc4 .LASF1252
C:\Users\CYMR90~1\AppData\Local\Temp\ccNy8eXk.s:24401  .debug_str:000000000000d2bd .LASF1253
C:\Users\CYMR90~1\AppData\Local\Temp\ccNy8eXk.s:23429  .debug_str:0000000000009319 .LASF1254
C:\Users\CYMR90~1\AppData\Local\Temp\ccNy8eXk.s:21431  .debug_str:000000000000147b .LASF1255
C:\Users\CYMR90~1\AppData\Local\Temp\ccNy8eXk.s:24315  .debug_str:000000000000cd54 .LASF1256
C:\Users\CYMR90~1\AppData\Local\Temp\ccNy8eXk.s:22589  .debug_str:0000000000005d4b .LASF1257
C:\Users\CYMR90~1\AppData\Local\Temp\ccNy8eXk.s:27334  .debug_str:0000000000018cbe .LASF1258
C:\Users\CYMR90~1\AppData\Local\Temp\ccNy8eXk.s:27336  .debug_str:0000000000018cd1 .LASF1259
C:\Users\CYMR90~1\AppData\Local\Temp\ccNy8eXk.s:29832  .debug_str:0000000000022a64 .LASF1260
C:\Users\CYMR90~1\AppData\Local\Temp\ccNy8eXk.s:27946  .debug_str:000000000001b5e3 .LASF1261
C:\Users\CYMR90~1\AppData\Local\Temp\ccNy8eXk.s:25337  .debug_str:0000000000010cf8 .LASF1262
C:\Users\CYMR90~1\AppData\Local\Temp\ccNy8eXk.s:22481  .debug_str:00000000000056c1 .LASF1263
C:\Users\CYMR90~1\AppData\Local\Temp\ccNy8eXk.s:24643  .debug_str:000000000000e196 .LASF1264
C:\Users\CYMR90~1\AppData\Local\Temp\ccNy8eXk.s:26829  .debug_str:0000000000016c00 .LASF1265
C:\Users\CYMR90~1\AppData\Local\Temp\ccNy8eXk.s:28616  .debug_str:000000000001e10d .LASF1266
C:\Users\CYMR90~1\AppData\Local\Temp\ccNy8eXk.s:29860  .debug_str:0000000000022c87 .LASF1267
C:\Users\CYMR90~1\AppData\Local\Temp\ccNy8eXk.s:30036  .debug_str:00000000000236d5 .LASF1268
C:\Users\CYMR90~1\AppData\Local\Temp\ccNy8eXk.s:25467  .debug_str:00000000000113f4 .LASF1269
C:\Users\CYMR90~1\AppData\Local\Temp\ccNy8eXk.s:27862  .debug_str:000000000001b08d .LASF1270
C:\Users\CYMR90~1\AppData\Local\Temp\ccNy8eXk.s:32012  .debug_str:000000000002b56c .LASF1271
C:\Users\CYMR90~1\AppData\Local\Temp\ccNy8eXk.s:31538  .debug_str:0000000000029944 .LASF1272
C:\Users\CYMR90~1\AppData\Local\Temp\ccNy8eXk.s:28524  .debug_str:000000000001db15 .LASF1273
C:\Users\CYMR90~1\AppData\Local\Temp\ccNy8eXk.s:21249  .debug_str:0000000000000917 .LASF1274
C:\Users\CYMR90~1\AppData\Local\Temp\ccNy8eXk.s:27342  .debug_str:0000000000018d1f .LASF1275
C:\Users\CYMR90~1\AppData\Local\Temp\ccNy8eXk.s:21355  .debug_str:0000000000000ffd .LASF1276
C:\Users\CYMR90~1\AppData\Local\Temp\ccNy8eXk.s:23645  .debug_str:000000000000a0b7 .LASF1277
C:\Users\CYMR90~1\AppData\Local\Temp\ccNy8eXk.s:22653  .debug_str:0000000000006146 .LASF1278
C:\Users\CYMR90~1\AppData\Local\Temp\ccNy8eXk.s:21693  .debug_str:0000000000002452 .LASF1279
C:\Users\CYMR90~1\AppData\Local\Temp\ccNy8eXk.s:32126  .debug_str:000000000002bcdb .LASF1280
C:\Users\CYMR90~1\AppData\Local\Temp\ccNy8eXk.s:22543  .debug_str:0000000000005a8a .LASF1281
C:\Users\CYMR90~1\AppData\Local\Temp\ccNy8eXk.s:21577  .debug_str:0000000000001dc9 .LASF1282
C:\Users\CYMR90~1\AppData\Local\Temp\ccNy8eXk.s:28686  .debug_str:000000000001e508 .LASF1283
C:\Users\CYMR90~1\AppData\Local\Temp\ccNy8eXk.s:21321  .debug_str:0000000000000da2 .LASF1284
C:\Users\CYMR90~1\AppData\Local\Temp\ccNy8eXk.s:30062  .debug_str:00000000000238a6 .LASF1285
C:\Users\CYMR90~1\AppData\Local\Temp\ccNy8eXk.s:29072  .debug_str:000000000001fc89 .LASF1286
C:\Users\CYMR90~1\AppData\Local\Temp\ccNy8eXk.s:28132  .debug_str:000000000001c10c .LASF1287
C:\Users\CYMR90~1\AppData\Local\Temp\ccNy8eXk.s:27174  .debug_str:0000000000018268 .LASF1288
C:\Users\CYMR90~1\AppData\Local\Temp\ccNy8eXk.s:26205  .debug_str:0000000000014416 .LASF1289
C:\Users\CYMR90~1\AppData\Local\Temp\ccNy8eXk.s:25267  .debug_str:00000000000107eb .LASF1290
C:\Users\CYMR90~1\AppData\Local\Temp\ccNy8eXk.s:29578  .debug_str:0000000000021b8d .LASF1291
C:\Users\CYMR90~1\AppData\Local\Temp\ccNy8eXk.s:28592  .debug_str:000000000001dfbc .LASF1292
C:\Users\CYMR90~1\AppData\Local\Temp\ccNy8eXk.s:27686  .debug_str:000000000001a50c .LASF1293
C:\Users\CYMR90~1\AppData\Local\Temp\ccNy8eXk.s:26693  .debug_str:0000000000016266 .LASF1294
C:\Users\CYMR90~1\AppData\Local\Temp\ccNy8eXk.s:25765  .debug_str:00000000000127f9 .LASF1295
C:\Users\CYMR90~1\AppData\Local\Temp\ccNy8eXk.s:24801  .debug_str:000000000000eb59 .LASF1296
C:\Users\CYMR90~1\AppData\Local\Temp\ccNy8eXk.s:24167  .debug_str:000000000000c3ca .LASF1297
C:\Users\CYMR90~1\AppData\Local\Temp\ccNy8eXk.s:29038  .debug_str:000000000001fa65 .LASF1298
C:\Users\CYMR90~1\AppData\Local\Temp\ccNy8eXk.s:28106  .debug_str:000000000001bf96 .LASF1299
C:\Users\CYMR90~1\AppData\Local\Temp\ccNy8eXk.s:21439  .debug_str:00000000000014ea .LASF1300
C:\Users\CYMR90~1\AppData\Local\Temp\ccNy8eXk.s:28078  .debug_str:000000000001bdbe .LASF1301
C:\Users\CYMR90~1\AppData\Local\Temp\ccNy8eXk.s:29290  .debug_str:0000000000020a32 .LASF1302
C:\Users\CYMR90~1\AppData\Local\Temp\ccNy8eXk.s:26739  .debug_str:00000000000164ed .LASF1303
C:\Users\CYMR90~1\AppData\Local\Temp\ccNy8eXk.s:27606  .debug_str:0000000000019ec1 .LASF1304
C:\Users\CYMR90~1\AppData\Local\Temp\ccNy8eXk.s:27578  .debug_str:0000000000019d2d .LASF1305
C:\Users\CYMR90~1\AppData\Local\Temp\ccNy8eXk.s:23327  .debug_str:0000000000008cbe .LASF1306
C:\Users\CYMR90~1\AppData\Local\Temp\ccNy8eXk.s:22325  .debug_str:0000000000004d74 .LASF1307
C:\Users\CYMR90~1\AppData\Local\Temp\ccNy8eXk.s:21367  .debug_str:0000000000001093 .LASF1308
C:\Users\CYMR90~1\AppData\Local\Temp\ccNy8eXk.s:31784  .debug_str:000000000002a7df .LASF1309
C:\Users\CYMR90~1\AppData\Local\Temp\ccNy8eXk.s:30810  .debug_str:00000000000269d3 .LASF1310
C:\Users\CYMR90~1\AppData\Local\Temp\ccNy8eXk.s:29836  .debug_str:0000000000022a92 .LASF1311
C:\Users\CYMR90~1\AppData\Local\Temp\ccNy8eXk.s:26075  .debug_str:0000000000013c30 .LASF1312
C:\Users\CYMR90~1\AppData\Local\Temp\ccNy8eXk.s:22535  .debug_str:0000000000005a18 .LASF1313
C:\Users\CYMR90~1\AppData\Local\Temp\ccNy8eXk.s:25925  .debug_str:000000000001323b .LASF1314
C:\Users\CYMR90~1\AppData\Local\Temp\ccNy8eXk.s:32000  .debug_str:000000000002b490 .LASF1315
C:\Users\CYMR90~1\AppData\Local\Temp\ccNy8eXk.s:30530  .debug_str:0000000000025825 .LASF1316
C:\Users\CYMR90~1\AppData\Local\Temp\ccNy8eXk.s:30054  .debug_str:0000000000023804 .LASF1317
C:\Users\CYMR90~1\AppData\Local\Temp\ccNy8eXk.s:29064  .debug_str:000000000001fc1c .LASF1318
C:\Users\CYMR90~1\AppData\Local\Temp\ccNy8eXk.s:28142  .debug_str:000000000001c1b6 .LASF1319
C:\Users\CYMR90~1\AppData\Local\Temp\ccNy8eXk.s:27184  .debug_str:0000000000018316 .LASF1320
C:\Users\CYMR90~1\AppData\Local\Temp\ccNy8eXk.s:26215  .debug_str:000000000001448c .LASF1321
C:\Users\CYMR90~1\AppData\Local\Temp\ccNy8eXk.s:25273  .debug_str:0000000000010846 .LASF1322
C:\Users\CYMR90~1\AppData\Local\Temp\ccNy8eXk.s:25735  .debug_str:0000000000012601 .LASF1323
C:\Users\CYMR90~1\AppData\Local\Temp\ccNy8eXk.s:24171  .debug_str:000000000000c3ef .LASF1324
C:\Users\CYMR90~1\AppData\Local\Temp\ccNy8eXk.s:23807  .debug_str:000000000000ab64 .LASF1325
C:\Users\CYMR90~1\AppData\Local\Temp\ccNy8eXk.s:22825  .debug_str:0000000000006bba .LASF1326
C:\Users\CYMR90~1\AppData\Local\Temp\ccNy8eXk.s:21847  .debug_str:0000000000002e16 .LASF1327
C:\Users\CYMR90~1\AppData\Local\Temp\ccNy8eXk.s:32280  .debug_str:000000000002c757 .LASF1328
C:\Users\CYMR90~1\AppData\Local\Temp\ccNy8eXk.s:31352  .debug_str:0000000000028d5b .LASF1329
C:\Users\CYMR90~1\AppData\Local\Temp\ccNy8eXk.s:30382  .debug_str:0000000000024d54 .LASF1330
C:\Users\CYMR90~1\AppData\Local\Temp\ccNy8eXk.s:29392  .debug_str:0000000000020fde .LASF1331
C:\Users\CYMR90~1\AppData\Local\Temp\ccNy8eXk.s:28436  .debug_str:000000000001d58c .LASF1332
C:\Users\CYMR90~1\AppData\Local\Temp\ccNy8eXk.s:28862  .debug_str:000000000001efc2 .LASF1333
C:\Users\CYMR90~1\AppData\Local\Temp\ccNy8eXk.s:27962  .debug_str:000000000001b6c9 .LASF1334
C:\Users\CYMR90~1\AppData\Local\Temp\ccNy8eXk.s:26655  .debug_str:0000000000016032 .LASF1335
C:\Users\CYMR90~1\AppData\Local\Temp\ccNy8eXk.s:24311  .debug_str:000000000000cd18 .LASF1336
C:\Users\CYMR90~1\AppData\Local\Temp\ccNy8eXk.s:29080  .debug_str:000000000001fce8 .LASF1337
C:\Users\CYMR90~1\AppData\Local\Temp\ccNy8eXk.s:25611  .debug_str:0000000000011e23 .LASF1338
C:\Users\CYMR90~1\AppData\Local\Temp\ccNy8eXk.s:21475  .debug_str:00000000000016da .LASF1339
C:\Users\CYMR90~1\AppData\Local\Temp\ccNy8eXk.s:23595  .debug_str:0000000000009d96 .LASF1340
C:\Users\CYMR90~1\AppData\Local\Temp\ccNy8eXk.s:22603  .debug_str:0000000000005e1f .LASF1341
C:\Users\CYMR90~1\AppData\Local\Temp\ccNy8eXk.s:21633  .debug_str:00000000000020e4 .LASF1342
C:\Users\CYMR90~1\AppData\Local\Temp\ccNy8eXk.s:32080  .debug_str:000000000002b9ed .LASF1343
C:\Users\CYMR90~1\AppData\Local\Temp\ccNy8eXk.s:31870  .debug_str:000000000002acc2 .LASF1344
C:\Users\CYMR90~1\AppData\Local\Temp\ccNy8eXk.s:30896  .debug_str:0000000000026f27 .LASF1345
C:\Users\CYMR90~1\AppData\Local\Temp\ccNy8eXk.s:29922  .debug_str:0000000000022fde .LASF1346
C:\Users\CYMR90~1\AppData\Local\Temp\ccNy8eXk.s:31308  .debug_str:0000000000028aee .LASF1347
C:\Users\CYMR90~1\AppData\Local\Temp\ccNy8eXk.s:28008  .debug_str:000000000001b990 .LASF1348
C:\Users\CYMR90~1\AppData\Local\Temp\ccNy8eXk.s:24601  .debug_str:000000000000df2c .LASF1349
C:\Users\CYMR90~1\AppData\Local\Temp\ccNy8eXk.s:26085  .debug_str:0000000000013cd6 .LASF1350
C:\Users\CYMR90~1\AppData\Local\Temp\ccNy8eXk.s:29222  .debug_str:000000000002061e .LASF1351
C:\Users\CYMR90~1\AppData\Local\Temp\ccNy8eXk.s:24183  .debug_str:000000000000c4bb .LASF1352
C:\Users\CYMR90~1\AppData\Local\Temp\ccNy8eXk.s:23113  .debug_str:0000000000007ec5 .LASF1353
C:\Users\CYMR90~1\AppData\Local\Temp\ccNy8eXk.s:23677  .debug_str:000000000000a2c0 .LASF1354
C:\Users\CYMR90~1\AppData\Local\Temp\ccNy8eXk.s:22687  .debug_str:0000000000006390 .LASF1355
C:\Users\CYMR90~1\AppData\Local\Temp\ccNy8eXk.s:21717  .debug_str:00000000000025c0 .LASF1356
C:\Users\CYMR90~1\AppData\Local\Temp\ccNy8eXk.s:32156  .debug_str:000000000002bef9 .LASF1357
C:\Users\CYMR90~1\AppData\Local\Temp\ccNy8eXk.s:26177  .debug_str:0000000000014294 .LASF1358
C:\Users\CYMR90~1\AppData\Local\Temp\ccNy8eXk.s:22819  .debug_str:0000000000006b62 .LASF1359
C:\Users\CYMR90~1\AppData\Local\Temp\ccNy8eXk.s:29268  .debug_str:00000000000208e4 .LASF1360
C:\Users\CYMR90~1\AppData\Local\Temp\ccNy8eXk.s:28230  .debug_str:000000000001c6f3 .LASF1361
C:\Users\CYMR90~1\AppData\Local\Temp\ccNy8eXk.s:27276  .debug_str:000000000001887a .LASF1362
C:\Users\CYMR90~1\AppData\Local\Temp\ccNy8eXk.s:31318  .debug_str:0000000000028b7f .LASF1363
C:\Users\CYMR90~1\AppData\Local\Temp\ccNy8eXk.s:26577  .debug_str:0000000000015ab3 .LASF1364
C:\Users\CYMR90~1\AppData\Local\Temp\ccNy8eXk.s:23233  .debug_str:000000000000870c .LASF1365
C:\Users\CYMR90~1\AppData\Local\Temp\ccNy8eXk.s:30924  .debug_str:00000000000270d2 .LASF1366
C:\Users\CYMR90~1\AppData\Local\Temp\ccNy8eXk.s:30168  .debug_str:0000000000023ec9 .LASF1367
C:\Users\CYMR90~1\AppData\Local\Temp\ccNy8eXk.s:29162  .debug_str:00000000000201f6 .LASF1368
C:\Users\CYMR90~1\AppData\Local\Temp\ccNy8eXk.s:27438  .debug_str:00000000000193d1 .LASF1369
C:\Users\CYMR90~1\AppData\Local\Temp\ccNy8eXk.s:25317  .debug_str:0000000000010b06 .LASF1370
C:\Users\CYMR90~1\AppData\Local\Temp\ccNy8eXk.s:28446  .debug_str:000000000001d617 .LASF1371
C:\Users\CYMR90~1\AppData\Local\Temp\ccNy8eXk.s:21765  .debug_str:0000000000002917 .LASF1372
C:\Users\CYMR90~1\AppData\Local\Temp\ccNy8eXk.s:24355  .debug_str:000000000000cfb7 .LASF1373
C:\Users\CYMR90~1\AppData\Local\Temp\ccNy8eXk.s:27486  .debug_str:00000000000196c0 .LASF1374
C:\Users\CYMR90~1\AppData\Local\Temp\ccNy8eXk.s:30592  .debug_str:0000000000025c84 .LASF1375
C:\Users\CYMR90~1\AppData\Local\Temp\ccNy8eXk.s:22353  .debug_str:0000000000004f13 .LASF1376
C:\Users\CYMR90~1\AppData\Local\Temp\ccNy8eXk.s:25515  .debug_str:000000000001173e .LASF1377
C:\Users\CYMR90~1\AppData\Local\Temp\ccNy8eXk.s:28598  .debug_str:000000000001e016 .LASF1378
C:\Users\CYMR90~1\AppData\Local\Temp\ccNy8eXk.s:31780  .debug_str:000000000002a7a2 .LASF1379
C:\Users\CYMR90~1\AppData\Local\Temp\ccNy8eXk.s:31748  .debug_str:000000000002a581 .LASF1380
C:\Users\CYMR90~1\AppData\Local\Temp\ccNy8eXk.s:23443  .debug_str:00000000000093ea .LASF1381
C:\Users\CYMR90~1\AppData\Local\Temp\ccNy8eXk.s:26549  .debug_str:0000000000015912 .LASF1382
C:\Users\CYMR90~1\AppData\Local\Temp\ccNy8eXk.s:29674  .debug_str:0000000000022131 .LASF1383
C:\Users\CYMR90~1\AppData\Local\Temp\ccNy8eXk.s:21447  .debug_str:000000000000153d .LASF1384
C:\Users\CYMR90~1\AppData\Local\Temp\ccNy8eXk.s:25989  .debug_str:0000000000013712 .LASF1385
C:\Users\CYMR90~1\AppData\Local\Temp\ccNy8eXk.s:27784  .debug_str:000000000001ab7e .LASF1386
C:\Users\CYMR90~1\AppData\Local\Temp\ccNy8eXk.s:30886  .debug_str:0000000000026e66 .LASF1387
C:\Users\CYMR90~1\AppData\Local\Temp\ccNy8eXk.s:22641  .debug_str:000000000000608e .LASF1388
C:\Users\CYMR90~1\AppData\Local\Temp\ccNy8eXk.s:25715  .debug_str:00000000000124c5 .LASF1389
C:\Users\CYMR90~1\AppData\Local\Temp\ccNy8eXk.s:25079  .debug_str:000000000000fc2a .LASF1390
C:\Users\CYMR90~1\AppData\Local\Temp\ccNy8eXk.s:28090  .debug_str:000000000001be82 .LASF1391
C:\Users\CYMR90~1\AppData\Local\Temp\ccNy8eXk.s:31224  .debug_str:0000000000028531 .LASF1392
C:\Users\CYMR90~1\AppData\Local\Temp\ccNy8eXk.s:22991  .debug_str:000000000000768a .LASF1393
C:\Users\CYMR90~1\AppData\Local\Temp\ccNy8eXk.s:26115  .debug_str:0000000000013e82 .LASF1394
C:\Users\CYMR90~1\AppData\Local\Temp\ccNy8eXk.s:26267  .debug_str:000000000001480f .LASF1395
C:\Users\CYMR90~1\AppData\Local\Temp\ccNy8eXk.s:32462  .debug_str:000000000002d312 .LASF1396
C:\Users\CYMR90~1\AppData\Local\Temp\ccNy8eXk.s:24235  .debug_str:000000000000c7d3 .LASF1397
C:\Users\CYMR90~1\AppData\Local\Temp\ccNy8eXk.s:27360  .debug_str:0000000000018e3f .LASF1398
C:\Users\CYMR90~1\AppData\Local\Temp\ccNy8eXk.s:25421  .debug_str:000000000001114a .LASF1399
C:\Users\CYMR90~1\AppData\Local\Temp\ccNy8eXk.s:26721  .debug_str:00000000000163fe .LASF1400
C:\Users\CYMR90~1\AppData\Local\Temp\ccNy8eXk.s:21403  .debug_str:00000000000012be .LASF1401
C:\Users\CYMR90~1\AppData\Local\Temp\ccNy8eXk.s:29144  .debug_str:0000000000020112 .LASF1402
C:\Users\CYMR90~1\AppData\Local\Temp\ccNy8eXk.s:24067  .debug_str:000000000000bce6 .LASF1403
C:\Users\CYMR90~1\AppData\Local\Temp\ccNy8eXk.s:28912  .debug_str:000000000001f2e5 .LASF1404
C:\Users\CYMR90~1\AppData\Local\Temp\ccNy8eXk.s:22133  .debug_str:000000000000406c .LASF1405
C:\Users\CYMR90~1\AppData\Local\Temp\ccNy8eXk.s:31706  .debug_str:000000000002a2ed .LASF1406
C:\Users\CYMR90~1\AppData\Local\Temp\ccNy8eXk.s:29880  .debug_str:0000000000022d8c .LASF1407
C:\Users\CYMR90~1\AppData\Local\Temp\ccNy8eXk.s:30040  .debug_str:0000000000023707 .LASF1408
C:\Users\CYMR90~1\AppData\Local\Temp\ccNy8eXk.s:21801  .debug_str:0000000000002b37 .LASF1409
C:\Users\CYMR90~1\AppData\Local\Temp\ccNy8eXk.s:24983  .debug_str:000000000000f607 .LASF1410
C:\Users\CYMR90~1\AppData\Local\Temp\ccNy8eXk.s:31448  .debug_str:0000000000029327 .LASF1411
C:\Users\CYMR90~1\AppData\Local\Temp\ccNy8eXk.s:23221  .debug_str:000000000000865e .LASF1412
C:\Users\CYMR90~1\AppData\Local\Temp\ccNy8eXk.s:26339  .debug_str:0000000000014c5a .LASF1413
C:\Users\CYMR90~1\AppData\Local\Temp\ccNy8eXk.s:29452  .debug_str:00000000000213fc .LASF1414
C:\Users\CYMR90~1\AppData\Local\Temp\ccNy8eXk.s:21251  .debug_str:000000000000092a .LASF1415
C:\Users\CYMR90~1\AppData\Local\Temp\ccNy8eXk.s:24321  .debug_str:000000000000cd91 .LASF1416
C:\Users\CYMR90~1\AppData\Local\Temp\ccNy8eXk.s:27464  .debug_str:0000000000019592 .LASF1417
C:\Users\CYMR90~1\AppData\Local\Temp\ccNy8eXk.s:28972  .debug_str:000000000001f66e .LASF1418
C:\Users\CYMR90~1\AppData\Local\Temp\ccNy8eXk.s:22333  .debug_str:0000000000004dde .LASF1419
C:\Users\CYMR90~1\AppData\Local\Temp\ccNy8eXk.s:25407  .debug_str:000000000001106b .LASF1420
C:\Users\CYMR90~1\AppData\Local\Temp\ccNy8eXk.s:24757  .debug_str:000000000000e898 .LASF1421
C:\Users\CYMR90~1\AppData\Local\Temp\ccNy8eXk.s:27898  .debug_str:000000000001b2ef .LASF1422
C:\Users\CYMR90~1\AppData\Local\Temp\ccNy8eXk.s:30998  .debug_str:00000000000275df .LASF1423
C:\Users\CYMR90~1\AppData\Local\Temp\ccNy8eXk.s:21873  .debug_str:0000000000002f9f .LASF1424
C:\Users\CYMR90~1\AppData\Local\Temp\ccNy8eXk.s:25929  .debug_str:0000000000013269 .LASF1425
C:\Users\CYMR90~1\AppData\Local\Temp\ccNy8eXk.s:28904  .debug_str:000000000001f24c .LASF1426
C:\Users\CYMR90~1\AppData\Local\Temp\ccNy8eXk.s:32166  .debug_str:000000000002bfec .LASF1427
C:\Users\CYMR90~1\AppData\Local\Temp\ccNy8eXk.s:23939  .debug_str:000000000000b442 .LASF1428
C:\Users\CYMR90~1\AppData\Local\Temp\ccNy8eXk.s:27040  .debug_str:0000000000017a7f .LASF1429
C:\Users\CYMR90~1\AppData\Local\Temp\ccNy8eXk.s:30178  .debug_str:0000000000023f69 .LASF1430
C:\Users\CYMR90~1\AppData\Local\Temp\ccNy8eXk.s:28914  .debug_str:000000000001f2fd .LASF1431
C:\Users\CYMR90~1\AppData\Local\Temp\ccNy8eXk.s:21213  .debug_str:00000000000006db .LASF1432
C:\Users\CYMR90~1\AppData\Local\Temp\ccNy8eXk.s:32106  .debug_str:000000000002bba6 .LASF1433
C:\Users\CYMR90~1\AppData\Local\Temp\ccNy8eXk.s:29148  .debug_str:000000000002013c .LASF1434
C:\Users\CYMR90~1\AppData\Local\Temp\ccNy8eXk.s:28198  .debug_str:000000000001c4f2 .LASF1435
C:\Users\CYMR90~1\AppData\Local\Temp\ccNy8eXk.s:27246  .debug_str:000000000001868c .LASF1436
C:\Users\CYMR90~1\AppData\Local\Temp\ccNy8eXk.s:26677  .debug_str:0000000000016186 .LASF1437
C:\Users\CYMR90~1\AppData\Local\Temp\ccNy8eXk.s:31030  .debug_str:0000000000027796 .LASF1438
C:\Users\CYMR90~1\AppData\Local\Temp\ccNy8eXk.s:31338  .debug_str:0000000000028c9e .LASF1439
C:\Users\CYMR90~1\AppData\Local\Temp\ccNy8eXk.s:29070  .debug_str:000000000001fc75 .LASF1440
C:\Users\CYMR90~1\AppData\Local\Temp\ccNy8eXk.s:28130  .debug_str:000000000001c0f8 .LASF1441
C:\Users\CYMR90~1\AppData\Local\Temp\ccNy8eXk.s:27172  .debug_str:0000000000018254 .LASF1442
C:\Users\CYMR90~1\AppData\Local\Temp\ccNy8eXk.s:26203  .debug_str:0000000000014402 .LASF1443
C:\Users\CYMR90~1\AppData\Local\Temp\ccNy8eXk.s:25265  .debug_str:00000000000107d7 .LASF1444
C:\Users\CYMR90~1\AppData\Local\Temp\ccNy8eXk.s:32122  .debug_str:000000000002bca3 .LASF1445
C:\Users\CYMR90~1\AppData\Local\Temp\ccNy8eXk.s:23335  .debug_str:0000000000008d2c .LASF1446
C:\Users\CYMR90~1\AppData\Local\Temp\ccNy8eXk.s:24895  .debug_str:000000000000f089 .LASF1447
C:\Users\CYMR90~1\AppData\Local\Temp\ccNy8eXk.s:30418  .debug_str:0000000000024fbb .LASF1448
C:\Users\CYMR90~1\AppData\Local\Temp\ccNy8eXk.s:29428  .debug_str:00000000000211de .LASF1449
C:\Users\CYMR90~1\AppData\Local\Temp\ccNy8eXk.s:28456  .debug_str:000000000001d72c .LASF1450
C:\Users\CYMR90~1\AppData\Local\Temp\ccNy8eXk.s:27532  .debug_str:0000000000019a6d .LASF1451
C:\Users\CYMR90~1\AppData\Local\Temp\ccNy8eXk.s:26547  .debug_str:00000000000158fd .LASF1452
C:\Users\CYMR90~1\AppData\Local\Temp\ccNy8eXk.s:23937  .debug_str:000000000000b42f .LASF1453
C:\Users\CYMR90~1\AppData\Local\Temp\ccNy8eXk.s:22551  .debug_str:0000000000005aeb .LASF1454
C:\Users\CYMR90~1\AppData\Local\Temp\ccNy8eXk.s:23737  .debug_str:000000000000a66a .LASF1455
C:\Users\CYMR90~1\AppData\Local\Temp\ccNy8eXk.s:28816  .debug_str:000000000001ecf0 .LASF1456
C:\Users\CYMR90~1\AppData\Local\Temp\ccNy8eXk.s:30466  .debug_str:000000000002532f .LASF1457
C:\Users\CYMR90~1\AppData\Local\Temp\ccNy8eXk.s:22297  .debug_str:0000000000004bbd .LASF1458
C:\Users\CYMR90~1\AppData\Local\Temp\ccNy8eXk.s:28898  .debug_str:000000000001f1fe .LASF1459
C:\Users\CYMR90~1\AppData\Local\Temp\ccNy8eXk.s:25743  .debug_str:0000000000012678 .LASF1460
C:\Users\CYMR90~1\AppData\Local\Temp\ccNy8eXk.s:23847  .debug_str:000000000000ade1 .LASF1461
C:\Users\CYMR90~1\AppData\Local\Temp\ccNy8eXk.s:25037  .debug_str:000000000000f9c6 .LASF1462
C:\Users\CYMR90~1\AppData\Local\Temp\ccNy8eXk.s:25521  .debug_str:0000000000011819 .LASF1463
C:\Users\CYMR90~1\AppData\Local\Temp\ccNy8eXk.s:26609  .debug_str:0000000000015ccf .LASF1464
C:\Users\CYMR90~1\AppData\Local\Temp\ccNy8eXk.s:31894  .debug_str:000000000002ae5f .LASF1465
C:\Users\CYMR90~1\AppData\Local\Temp\ccNy8eXk.s:24199  .debug_str:000000000000c597 .LASF1466
C:\Users\CYMR90~1\AppData\Local\Temp\ccNy8eXk.s:26207  .debug_str:0000000000014429 .LASF1467
C:\Users\CYMR90~1\AppData\Local\Temp\ccNy8eXk.s:30916  .debug_str:000000000002705b .LASF1468
C:\Users\CYMR90~1\AppData\Local\Temp\ccNy8eXk.s:25209  .debug_str:0000000000010463 .LASF1469
C:\Users\CYMR90~1\AppData\Local\Temp\ccNy8eXk.s:23293  .debug_str:0000000000008ab7 .LASF1470
C:\Users\CYMR90~1\AppData\Local\Temp\ccNy8eXk.s:25497  .debug_str:0000000000011623 .LASF1471
C:\Users\CYMR90~1\AppData\Local\Temp\ccNy8eXk.s:27066  .debug_str:0000000000017bef .LASF1472
C:\Users\CYMR90~1\AppData\Local\Temp\ccNy8eXk.s:30372  .debug_str:0000000000024cb2 .LASF1473
C:\Users\CYMR90~1\AppData\Local\Temp\ccNy8eXk.s:31004  .debug_str:0000000000027630 .LASF1474
C:\Users\CYMR90~1\AppData\Local\Temp\ccNy8eXk.s:21303  .debug_str:0000000000000cab .LASF1475
C:\Users\CYMR90~1\AppData\Local\Temp\ccNy8eXk.s:23223  .debug_str:0000000000008677 .LASF1476
C:\Users\CYMR90~1\AppData\Local\Temp\ccNy8eXk.s:21825  .debug_str:0000000000002cd3 .LASF1477
C:\Users\CYMR90~1\AppData\Local\Temp\ccNy8eXk.s:31190  .debug_str:0000000000028276 .LASF1478
C:\Users\CYMR90~1\AppData\Local\Temp\ccNy8eXk.s:30216  .debug_str:000000000002425b .LASF1479
C:\Users\CYMR90~1\AppData\Local\Temp\ccNy8eXk.s:21949  .debug_str:00000000000034ab .LASF1480
C:\Users\CYMR90~1\AppData\Local\Temp\ccNy8eXk.s:24191  .debug_str:000000000000c517 .LASF1481
C:\Users\CYMR90~1\AppData\Local\Temp\ccNy8eXk.s:30340  .debug_str:0000000000024ac9 .LASF1482
C:\Users\CYMR90~1\AppData\Local\Temp\ccNy8eXk.s:23529  .debug_str:000000000000997f .LASF1483
C:\Users\CYMR90~1\AppData\Local\Temp\ccNy8eXk.s:22339  .debug_str:0000000000004e37 .LASF1484
C:\Users\CYMR90~1\AppData\Local\Temp\ccNy8eXk.s:24767  .debug_str:000000000000e934 .LASF1485
C:\Users\CYMR90~1\AppData\Local\Temp\ccNy8eXk.s:26175  .debug_str:0000000000014281 .LASF1486
C:\Users\CYMR90~1\AppData\Local\Temp\ccNy8eXk.s:27780  .debug_str:000000000001ab4f .LASF1487
C:\Users\CYMR90~1\AppData\Local\Temp\ccNy8eXk.s:21135  .debug_str:000000000000021d .LASF1488
C:\Users\CYMR90~1\AppData\Local\Temp\ccNy8eXk.s:26565  .debug_str:00000000000159fa .LASF1489
C:\Users\CYMR90~1\AppData\Local\Temp\ccNy8eXk.s:24561  .debug_str:000000000000dc8a .LASF1490
C:\Users\CYMR90~1\AppData\Local\Temp\ccNy8eXk.s:31414  .debug_str:000000000002912a .LASF1491
C:\Users\CYMR90~1\AppData\Local\Temp\ccNy8eXk.s:21795  .debug_str:0000000000002ad0 .LASF1492
C:\Users\CYMR90~1\AppData\Local\Temp\ccNy8eXk.s:29382  .debug_str:0000000000020f5f .LASF1493
C:\Users\CYMR90~1\AppData\Local\Temp\ccNy8eXk.s:31634  .debug_str:0000000000029ef2 .LASF1494
C:\Users\CYMR90~1\AppData\Local\Temp\ccNy8eXk.s:22979  .debug_str:00000000000075e6 .LASF1495
C:\Users\CYMR90~1\AppData\Local\Temp\ccNy8eXk.s:30686  .debug_str:0000000000026251 .LASF1496
C:\Users\CYMR90~1\AppData\Local\Temp\ccNy8eXk.s:31386  .debug_str:0000000000028f66 .LASF1497
C:\Users\CYMR90~1\AppData\Local\Temp\ccNy8eXk.s:22779  .debug_str:00000000000068a5 .LASF1498
C:\Users\CYMR90~1\AppData\Local\Temp\ccNy8eXk.s:23619  .debug_str:0000000000009f01 .LASF1499
C:\Users\CYMR90~1\AppData\Local\Temp\ccNy8eXk.s:32336  .debug_str:000000000002cb0f .LASF1500
C:\Users\CYMR90~1\AppData\Local\Temp\ccNy8eXk.s:31548  .debug_str:00000000000299d1 .LASF1501
C:\Users\CYMR90~1\AppData\Local\Temp\ccNy8eXk.s:29282  .debug_str:00000000000209c2 .LASF1502
C:\Users\CYMR90~1\AppData\Local\Temp\ccNy8eXk.s:22759  .debug_str:0000000000006774 .LASF1503
C:\Users\CYMR90~1\AppData\Local\Temp\ccNy8eXk.s:31636  .debug_str:0000000000029f00 .LASF1504
C:\Users\CYMR90~1\AppData\Local\Temp\ccNy8eXk.s:28656  .debug_str:000000000001e323 .LASF1505
C:\Users\CYMR90~1\AppData\Local\Temp\ccNy8eXk.s:27984  .debug_str:000000000001b82e .LASF1506
C:\Users\CYMR90~1\AppData\Local\Temp\ccNy8eXk.s:24889  .debug_str:000000000000f03a .LASF1507
C:\Users\CYMR90~1\AppData\Local\Temp\ccNy8eXk.s:29488  .debug_str:00000000000215f4 .LASF1508
C:\Users\CYMR90~1\AppData\Local\Temp\ccNy8eXk.s:25679  .debug_str:0000000000012264 .LASF1509
C:\Users\CYMR90~1\AppData\Local\Temp\ccNy8eXk.s:31294  .debug_str:00000000000289f6 .LASF1510
C:\Users\CYMR90~1\AppData\Local\Temp\ccNy8eXk.s:30074  .debug_str:000000000002394c .LASF1511
C:\Users\CYMR90~1\AppData\Local\Temp\ccNy8eXk.s:21989  .debug_str:00000000000036f9 .LASF1512
C:\Users\CYMR90~1\AppData\Local\Temp\ccNy8eXk.s:26631  .debug_str:0000000000015e96 .LASF1513
C:\Users\CYMR90~1\AppData\Local\Temp\ccNy8eXk.s:30492  .debug_str:000000000002555e .LASF1514
C:\Users\CYMR90~1\AppData\Local\Temp\ccNy8eXk.s:28872  .debug_str:000000000001f08f .LASF1515
C:\Users\CYMR90~1\AppData\Local\Temp\ccNy8eXk.s:32060  .debug_str:000000000002b87b .LASF1516
C:\Users\CYMR90~1\AppData\Local\Temp\ccNy8eXk.s:28706  .debug_str:000000000001e61d .LASF1517
C:\Users\CYMR90~1\AppData\Local\Temp\ccNy8eXk.s:30722  .debug_str:0000000000026459 .LASF1518
C:\Users\CYMR90~1\AppData\Local\Temp\ccNy8eXk.s:25669  .debug_str:00000000000121f2 .LASF1519
C:\Users\CYMR90~1\AppData\Local\Temp\ccNy8eXk.s:29096  .debug_str:000000000001fe28 .LASF1520
C:\Users\CYMR90~1\AppData\Local\Temp\ccNy8eXk.s:28158  .debug_str:000000000001c2b7 .LASF1521
C:\Users\CYMR90~1\AppData\Local\Temp\ccNy8eXk.s:29420  .debug_str:000000000002116f .LASF1522
C:\Users\CYMR90~1\AppData\Local\Temp\ccNy8eXk.s:27436  .debug_str:00000000000193b5 .LASF1523
C:\Users\CYMR90~1\AppData\Local\Temp\ccNy8eXk.s:30076  .debug_str:0000000000023962 .LASF1524
C:\Users\CYMR90~1\AppData\Local\Temp\ccNy8eXk.s:22413  .debug_str:0000000000005289 .LASF1525
C:\Users\CYMR90~1\AppData\Local\Temp\ccNy8eXk.s:28104  .debug_str:000000000001bf7b .LASF1526
C:\Users\CYMR90~1\AppData\Local\Temp\ccNy8eXk.s:24211  .debug_str:000000000000c656 .LASF1527
C:\Users\CYMR90~1\AppData\Local\Temp\ccNy8eXk.s:29830  .debug_str:0000000000022a48 .LASF1528
C:\Users\CYMR90~1\AppData\Local\Temp\ccNy8eXk.s:31084  .debug_str:0000000000027aed .LASF1529
C:\Users\CYMR90~1\AppData\Local\Temp\ccNy8eXk.s:30332  .debug_str:00000000000249c4 .LASF1530
C:\Users\CYMR90~1\AppData\Local\Temp\ccNy8eXk.s:30396  .debug_str:0000000000024e36 .LASF1531
C:\Users\CYMR90~1\AppData\Local\Temp\ccNy8eXk.s:22155  .debug_str:0000000000004186 .LASF1532
C:\Users\CYMR90~1\AppData\Local\Temp\ccNy8eXk.s:27386  .debug_str:000000000001900a .LASF1533
C:\Users\CYMR90~1\AppData\Local\Temp\ccNy8eXk.s:30210  .debug_str:000000000002411b .LASF1534
C:\Users\CYMR90~1\AppData\Local\Temp\ccNy8eXk.s:23777  .debug_str:000000000000a8e7 .LASF1535
C:\Users\CYMR90~1\AppData\Local\Temp\ccNy8eXk.s:30400  .debug_str:0000000000024eb6 .LASF1536
C:\Users\CYMR90~1\AppData\Local\Temp\ccNy8eXk.s:29728  .debug_str:000000000002243d .LASF1537
C:\Users\CYMR90~1\AppData\Local\Temp\ccNy8eXk.s:30958  .debug_str:00000000000272b8 .LASF1538
C:\Users\CYMR90~1\AppData\Local\Temp\ccNy8eXk.s:30854  .debug_str:0000000000026c71 .LASF1539
C:\Users\CYMR90~1\AppData\Local\Temp\ccNy8eXk.s:25549  .debug_str:0000000000011a6a .LASF1540
C:\Users\CYMR90~1\AppData\Local\Temp\ccNy8eXk.s:31574  .debug_str:0000000000029b59 .LASF1541
C:\Users\CYMR90~1\AppData\Local\Temp\ccNy8eXk.s:24539  .debug_str:000000000000db76 .LASF1542
C:\Users\CYMR90~1\AppData\Local\Temp\ccNy8eXk.s:21915  .debug_str:0000000000003234 .LASF1543
C:\Users\CYMR90~1\AppData\Local\Temp\ccNy8eXk.s:25121  .debug_str:000000000000fecf .LASF1544
C:\Users\CYMR90~1\AppData\Local\Temp\ccNy8eXk.s:23157  .debug_str:000000000000821e .LASF1545
C:\Users\CYMR90~1\AppData\Local\Temp\ccNy8eXk.s:23627  .debug_str:0000000000009f74 .LASF1546
C:\Users\CYMR90~1\AppData\Local\Temp\ccNy8eXk.s:24265  .debug_str:000000000000ca2b .LASF1547
C:\Users\CYMR90~1\AppData\Local\Temp\ccNy8eXk.s:31164  .debug_str:0000000000028076 .LASF1548
C:\Users\CYMR90~1\AppData\Local\Temp\ccNy8eXk.s:30656  .debug_str:0000000000026039 .LASF1549
C:\Users\CYMR90~1\AppData\Local\Temp\ccNy8eXk.s:28050  .debug_str:000000000001bbb3 .LASF1550
C:\Users\CYMR90~1\AppData\Local\Temp\ccNy8eXk.s:25417  .debug_str:00000000000110fc .LASF1551
C:\Users\CYMR90~1\AppData\Local\Temp\ccNy8eXk.s:28020  .debug_str:000000000001ba05 .LASF1552
C:\Users\CYMR90~1\AppData\Local\Temp\ccNy8eXk.s:21371  .debug_str:00000000000010d6 .LASF1553
C:\Users\CYMR90~1\AppData\Local\Temp\ccNy8eXk.s:21687  .debug_str:00000000000023e7 .LASF1554
C:\Users\CYMR90~1\AppData\Local\Temp\ccNy8eXk.s:28742  .debug_str:000000000001e89b .LASF1555
C:\Users\CYMR90~1\AppData\Local\Temp\ccNy8eXk.s:27338  .debug_str:0000000000018ce0 .LASF1556
C:\Users\CYMR90~1\AppData\Local\Temp\ccNy8eXk.s:27362  .debug_str:0000000000018e57 .LASF1557
C:\Users\CYMR90~1\AppData\Local\Temp\ccNy8eXk.s:31662  .debug_str:000000000002a06a .LASF1558
C:\Users\CYMR90~1\AppData\Local\Temp\ccNy8eXk.s:25261  .debug_str:00000000000107ab .LASF1559
C:\Users\CYMR90~1\AppData\Local\Temp\ccNy8eXk.s:30086  .debug_str:00000000000239db .LASF1560
C:\Users\CYMR90~1\AppData\Local\Temp\ccNy8eXk.s:30518  .debug_str:0000000000025727 .LASF1561
C:\Users\CYMR90~1\AppData\Local\Temp\ccNy8eXk.s:25371  .debug_str:0000000000010e90 .LASF1562
C:\Users\CYMR90~1\AppData\Local\Temp\ccNy8eXk.s:25047  .debug_str:000000000000fa43 .LASF1563
C:\Users\CYMR90~1\AppData\Local\Temp\ccNy8eXk.s:32164  .debug_str:000000000002bf46 .LASF1564
C:\Users\CYMR90~1\AppData\Local\Temp\ccNy8eXk.s:22787  .debug_str:000000000000690e .LASF1565
C:\Users\CYMR90~1\AppData\Local\Temp\ccNy8eXk.s:28454  .debug_str:000000000001d69e .LASF1566
C:\Users\CYMR90~1\AppData\Local\Temp\ccNy8eXk.s:27734  .debug_str:000000000001a7f6 .LASF1567
C:\Users\CYMR90~1\AppData\Local\Temp\ccNy8eXk.s:29214  .debug_str:0000000000020549 .LASF1568
C:\Users\CYMR90~1\AppData\Local\Temp\ccNy8eXk.s:25547  .debug_str:00000000000119c3 .LASF1569
C:\Users\CYMR90~1\AppData\Local\Temp\ccNy8eXk.s:30544  .debug_str:00000000000258fd .LASF1570
C:\Users\CYMR90~1\AppData\Local\Temp\ccNy8eXk.s:25949  .debug_str:000000000001344f .LASF1571
C:\Users\CYMR90~1\AppData\Local\Temp\ccNy8eXk.s:22465  .debug_str:00000000000055ca .LASF1572
C:\Users\CYMR90~1\AppData\Local\Temp\ccNy8eXk.s:26371  .debug_str:0000000000014ea9 .LASF1573
C:\Users\CYMR90~1\AppData\Local\Temp\ccNy8eXk.s:31280  .debug_str:0000000000028921 .LASF1574
C:\Users\CYMR90~1\AppData\Local\Temp\ccNy8eXk.s:26842  .debug_str:0000000000016e5d .LASF1575
C:\Users\CYMR90~1\AppData\Local\Temp\ccNy8eXk.s:24925  .debug_str:000000000000f26b .LASF1576
C:\Users\CYMR90~1\AppData\Local\Temp\ccNy8eXk.s:28746  .debug_str:000000000001e8dd .LASF1577
C:\Users\CYMR90~1\AppData\Local\Temp\ccNy8eXk.s:31772  .debug_str:000000000002a706 .LASF1578
C:\Users\CYMR90~1\AppData\Local\Temp\ccNy8eXk.s:21697  .debug_str:0000000000002472 .LASF1579
C:\Users\CYMR90~1\AppData\Local\Temp\ccNy8eXk.s:28298  .debug_str:000000000001cba8 .LASF1580
C:\Users\CYMR90~1\AppData\Local\Temp\ccNy8eXk.s:23743  .debug_str:000000000000a6bd .LASF1581
C:\Users\CYMR90~1\AppData\Local\Temp\ccNy8eXk.s:24453  .debug_str:000000000000d691 .LASF1582
C:\Users\CYMR90~1\AppData\Local\Temp\ccNy8eXk.s:23147  .debug_str:00000000000080f2 .LASF1583
C:\Users\CYMR90~1\AppData\Local\Temp\ccNy8eXk.s:30960  .debug_str:00000000000272d6 .LASF1584
C:\Users\CYMR90~1\AppData\Local\Temp\ccNy8eXk.s:28554  .debug_str:000000000001dcd6 .LASF1585
C:\Users\CYMR90~1\AppData\Local\Temp\ccNy8eXk.s:32388  .debug_str:000000000002ce0b .LASF1586
C:\Users\CYMR90~1\AppData\Local\Temp\ccNy8eXk.s:24425  .debug_str:000000000000d432 .LASF1587
C:\Users\CYMR90~1\AppData\Local\Temp\ccNy8eXk.s:23107  .debug_str:0000000000007dda .LASF1588
C:\Users\CYMR90~1\AppData\Local\Temp\ccNy8eXk.s:26817  .debug_str:0000000000016aae .LASF1589
C:\Users\CYMR90~1\AppData\Local\Temp\ccNy8eXk.s:23967  .debug_str:000000000000b5c9 .LASF1590
C:\Users\CYMR90~1\AppData\Local\Temp\ccNy8eXk.s:26745  .debug_str:000000000001652f .LASF1591
C:\Users\CYMR90~1\AppData\Local\Temp\ccNy8eXk.s:23345  .debug_str:0000000000008d9a .LASF1592
C:\Users\CYMR90~1\AppData\Local\Temp\ccNy8eXk.s:25941  .debug_str:000000000001336a .LASF1593
C:\Users\CYMR90~1\AppData\Local\Temp\ccNy8eXk.s:31456  .debug_str:0000000000029376 .LASF1594
C:\Users\CYMR90~1\AppData\Local\Temp\ccNy8eXk.s:31198  .debug_str:00000000000282f4 .LASF1595
C:\Users\CYMR90~1\AppData\Local\Temp\ccNy8eXk.s:21337  .debug_str:0000000000000e7f .LASF1596
C:\Users\CYMR90~1\AppData\Local\Temp\ccNy8eXk.s:28324  .debug_str:000000000001cd70 .LASF1597
C:\Users\CYMR90~1\AppData\Local\Temp\ccNy8eXk.s:22265  .debug_str:000000000000492e .LASF1598
C:\Users\CYMR90~1\AppData\Local\Temp\ccNy8eXk.s:30468  .debug_str:000000000002533e .LASF1599
C:\Users\CYMR90~1\AppData\Local\Temp\ccNy8eXk.s:21481  .debug_str:0000000000001733 .LASF1600
C:\Users\CYMR90~1\AppData\Local\Temp\ccNy8eXk.s:25009  .debug_str:000000000000f76b .LASF1601
C:\Users\CYMR90~1\AppData\Local\Temp\ccNy8eXk.s:29444  .debug_str:00000000000212d6 .LASF1602
C:\Users\CYMR90~1\AppData\Local\Temp\ccNy8eXk.s:28348  .debug_str:000000000001cf80 .LASF1603
C:\Users\CYMR90~1\AppData\Local\Temp\ccNy8eXk.s:28242  .debug_str:000000000001c79e .LASF1604
C:\Users\CYMR90~1\AppData\Local\Temp\ccNy8eXk.s:30448  .debug_str:0000000000025169 .LASF1605
C:\Users\CYMR90~1\AppData\Local\Temp\ccNy8eXk.s:30374  .debug_str:0000000000024cc8 .LASF1606
C:\Users\CYMR90~1\AppData\Local\Temp\ccNy8eXk.s:30326  .debug_str:0000000000024970 .LASF1607
C:\Users\CYMR90~1\AppData\Local\Temp\ccNy8eXk.s:27282  .debug_str:00000000000188cc .LASF1608
C:\Users\CYMR90~1\AppData\Local\Temp\ccNy8eXk.s:22241  .debug_str:00000000000047a1 .LASF1609
C:\Users\CYMR90~1\AppData\Local\Temp\ccNy8eXk.s:29658  .debug_str:0000000000022036 .LASF1610
C:\Users\CYMR90~1\AppData\Local\Temp\ccNy8eXk.s:32290  .debug_str:000000000002c7ba .LASF1611
C:\Users\CYMR90~1\AppData\Local\Temp\ccNy8eXk.s:28194  .debug_str:000000000001c4b6 .LASF1612
C:\Users\CYMR90~1\AppData\Local\Temp\ccNy8eXk.s:26253  .debug_str:0000000000014735 .LASF1613
C:\Users\CYMR90~1\AppData\Local\Temp\ccNy8eXk.s:23613  .debug_str:0000000000009ea3 .LASF1614
C:\Users\CYMR90~1\AppData\Local\Temp\ccNy8eXk.s:27882  .debug_str:000000000001b1c4 .LASF1615
C:\Users\CYMR90~1\AppData\Local\Temp\ccNy8eXk.s:29546  .debug_str:0000000000021975 .LASF1616
C:\Users\CYMR90~1\AppData\Local\Temp\ccNy8eXk.s:26345  .debug_str:0000000000014cba .LASF1617
C:\Users\CYMR90~1\AppData\Local\Temp\ccNy8eXk.s:28254  .debug_str:000000000001c912 .LASF1618
C:\Users\CYMR90~1\AppData\Local\Temp\ccNy8eXk.s:22289  .debug_str:0000000000004b37 .LASF1619
C:\Users\CYMR90~1\AppData\Local\Temp\ccNy8eXk.s:24001  .debug_str:000000000000b89a .LASF1620
C:\Users\CYMR90~1\AppData\Local\Temp\ccNy8eXk.s:24841  .debug_str:000000000000edac .LASF1621
C:\Users\CYMR90~1\AppData\Local\Temp\ccNy8eXk.s:21853  .debug_str:0000000000002e75 .LASF1622
C:\Users\CYMR90~1\AppData\Local\Temp\ccNy8eXk.s:29244  .debug_str:0000000000020756 .LASF1623
C:\Users\CYMR90~1\AppData\Local\Temp\ccNy8eXk.s:25943  .debug_str:0000000000013405 .LASF1624
C:\Users\CYMR90~1\AppData\Local\Temp\ccNy8eXk.s:24101  .debug_str:000000000000bf6e .LASF1625
C:\Users\CYMR90~1\AppData\Local\Temp\ccNy8eXk.s:29950  .debug_str:0000000000023150 .LASF1626
C:\Users\CYMR90~1\AppData\Local\Temp\ccNy8eXk.s:22783  .debug_str:00000000000068e0 .LASF1627
C:\Users\CYMR90~1\AppData\Local\Temp\ccNy8eXk.s:28990  .debug_str:000000000001f77b .LASF1628
C:\Users\CYMR90~1\AppData\Local\Temp\ccNy8eXk.s:23859  .debug_str:000000000000aea3 .LASF1629
C:\Users\CYMR90~1\AppData\Local\Temp\ccNy8eXk.s:29738  .debug_str:00000000000224b5 .LASF1630
C:\Users\CYMR90~1\AppData\Local\Temp\ccNy8eXk.s:23329  .debug_str:0000000000008cd5 .LASF1631
C:\Users\CYMR90~1\AppData\Local\Temp\ccNy8eXk.s:21437  .debug_str:00000000000014d7 .LASF1632
C:\Users\CYMR90~1\AppData\Local\Temp\ccNy8eXk.s:27998  .debug_str:000000000001b91d .LASF1633
C:\Users\CYMR90~1\AppData\Local\Temp\ccNy8eXk.s:26972  .debug_str:00000000000175fc .LASF1634
C:\Users\CYMR90~1\AppData\Local\Temp\ccNy8eXk.s:24083  .debug_str:000000000000bdf1 .LASF1635
C:\Users\CYMR90~1\AppData\Local\Temp\ccNy8eXk.s:24185  .debug_str:000000000000c4d1 .LASF1636
C:\Users\CYMR90~1\AppData\Local\Temp\ccNy8eXk.s:27852  .debug_str:000000000001b002 .LASF1637
C:\Users\CYMR90~1\AppData\Local\Temp\ccNy8eXk.s:24249  .debug_str:000000000000c918 .LASF1638
C:\Users\CYMR90~1\AppData\Local\Temp\ccNy8eXk.s:23977  .debug_str:000000000000b6ee .LASF1639
C:\Users\CYMR90~1\AppData\Local\Temp\ccNy8eXk.s:27188  .debug_str:0000000000018347 .LASF1640
C:\Users\CYMR90~1\AppData\Local\Temp\ccNy8eXk.s:25215  .debug_str:00000000000104bf .LASF1641
C:\Users\CYMR90~1\AppData\Local\Temp\ccNy8eXk.s:30314  .debug_str:00000000000248be .LASF1642
C:\Users\CYMR90~1\AppData\Local\Temp\ccNy8eXk.s:25557  .debug_str:0000000000011b0b .LASF1643
C:\Users\CYMR90~1\AppData\Local\Temp\ccNy8eXk.s:29132  .debug_str:0000000000020064 .LASF1644
C:\Users\CYMR90~1\AppData\Local\Temp\ccNy8eXk.s:32258  .debug_str:000000000002c62e .LASF1645
C:\Users\CYMR90~1\AppData\Local\Temp\ccNy8eXk.s:21843  .debug_str:0000000000002ded .LASF1646
C:\Users\CYMR90~1\AppData\Local\Temp\ccNy8eXk.s:26781  .debug_str:0000000000016804 .LASF1647
C:\Users\CYMR90~1\AppData\Local\Temp\ccNy8eXk.s:26882  .debug_str:00000000000170ec .LASF1648
C:\Users\CYMR90~1\AppData\Local\Temp\ccNy8eXk.s:21637  .debug_str:0000000000002118 .LASF1649
C:\Users\CYMR90~1\AppData\Local\Temp\ccNy8eXk.s:23173  .debug_str:0000000000008337 .LASF1650
C:\Users\CYMR90~1\AppData\Local\Temp\ccNy8eXk.s:29966  .debug_str:0000000000023250 .LASF1651
C:\Users\CYMR90~1\AppData\Local\Temp\ccNy8eXk.s:25307  .debug_str:0000000000010a0e .LASF1652
C:\Users\CYMR90~1\AppData\Local\Temp\ccNy8eXk.s:23063  .debug_str:0000000000007b07 .LASF1653
C:\Users\CYMR90~1\AppData\Local\Temp\ccNy8eXk.s:21377  .debug_str:0000000000001147 .LASF1654
C:\Users\CYMR90~1\AppData\Local\Temp\ccNy8eXk.s:27082  .debug_str:0000000000017cc8 .LASF1657
C:\Users\CYMR90~1\AppData\Local\Temp\ccNy8eXk.s:31820  .debug_str:000000000002a9f4 .LASF1658
C:\Users\CYMR90~1\AppData\Local\Temp\ccNy8eXk.s:25339  .debug_str:0000000000010d06 .LASF1659
C:\Users\CYMR90~1\AppData\Local\Temp\ccNy8eXk.s:27410  .debug_str:0000000000019251 .LASF1660
C:\Users\CYMR90~1\AppData\Local\Temp\ccNy8eXk.s:32056  .debug_str:000000000002b83c .LASF1661
C:\Users\CYMR90~1\AppData\Local\Temp\ccNy8eXk.s:32090  .debug_str:000000000002ba98 .LASF1662
C:\Users\CYMR90~1\AppData\Local\Temp\ccNy8eXk.s:29332  .debug_str:0000000000020ca1 .LASF1663
C:\Users\CYMR90~1\AppData\Local\Temp\ccNy8eXk.s:26307  .debug_str:0000000000014a42 .LASF1664
C:\Users\CYMR90~1\AppData\Local\Temp\ccNy8eXk.s:28504  .debug_str:000000000001d9ee .LASF1665
C:\Users\CYMR90~1\AppData\Local\Temp\ccNy8eXk.s:29422  .debug_str:000000000002118a .LASF1666
C:\Users\CYMR90~1\AppData\Local\Temp\ccNy8eXk.s:25051  .debug_str:000000000000fa69 .LASF1667
C:\Users\CYMR90~1\AppData\Local\Temp\ccNy8eXk.s:24751  .debug_str:000000000000e84a .LASF1668
C:\Users\CYMR90~1\AppData\Local\Temp\ccNy8eXk.s:22075  .debug_str:0000000000003c4c .LASF1669
C:\Users\CYMR90~1\AppData\Local\Temp\ccNy8eXk.s:23365  .debug_str:0000000000008f66 .LASF1670
C:\Users\CYMR90~1\AppData\Local\Temp\ccNy8eXk.s:22307  .debug_str:0000000000004c40 .LASF1671
C:\Users\CYMR90~1\AppData\Local\Temp\ccNy8eXk.s:26159  .debug_str:000000000001416b .LASF1672
C:\Users\CYMR90~1\AppData\Local\Temp\ccNy8eXk.s:26227  .debug_str:000000000001454f .LASF1673
C:\Users\CYMR90~1\AppData\Local\Temp\ccNy8eXk.s:25631  .debug_str:0000000000011f3f .LASF1674
C:\Users\CYMR90~1\AppData\Local\Temp\ccNy8eXk.s:24791  .debug_str:000000000000ea91 .LASF1675
C:\Users\CYMR90~1\AppData\Local\Temp\ccNy8eXk.s:30338  .debug_str:0000000000024aaf .LASF1676
C:\Users\CYMR90~1\AppData\Local\Temp\ccNy8eXk.s:25769  .debug_str:0000000000012822 .LASF1677
C:\Users\CYMR90~1\AppData\Local\Temp\ccNy8eXk.s:32260  .debug_str:000000000002c643 .LASF1678
C:\Users\CYMR90~1\AppData\Local\Temp\ccNy8eXk.s:21747  .debug_str:00000000000027b5 .LASF1679
C:\Users\CYMR90~1\AppData\Local\Temp\ccNy8eXk.s:25289  .debug_str:0000000000010935 .LASF1680
C:\Users\CYMR90~1\AppData\Local\Temp\ccNy8eXk.s:26475  .debug_str:00000000000154fc .LASF1681
C:\Users\CYMR90~1\AppData\Local\Temp\ccNy8eXk.s:25141  .debug_str:0000000000010034 .LASF1682
C:\Users\CYMR90~1\AppData\Local\Temp\ccNy8eXk.s:27836  .debug_str:000000000001ae98 .LASF1683
C:\Users\CYMR90~1\AppData\Local\Temp\ccNy8eXk.s:29916  .debug_str:0000000000022fa5 .LASF1684
C:\Users\CYMR90~1\AppData\Local\Temp\ccNy8eXk.s:30846  .debug_str:0000000000026bde .LASF1685
C:\Users\CYMR90~1\AppData\Local\Temp\ccNy8eXk.s:25287  .debug_str:000000000001091d .LASF1686
C:\Users\CYMR90~1\AppData\Local\Temp\ccNy8eXk.s:29226  .debug_str:0000000000020647 .LASF1687
C:\Users\CYMR90~1\AppData\Local\Temp\ccNy8eXk.s:31564  .debug_str:0000000000029aae .LASF1688
C:\Users\CYMR90~1\AppData\Local\Temp\ccNy8eXk.s:30102  .debug_str:0000000000023ae5 .LASF1689
C:\Users\CYMR90~1\AppData\Local\Temp\ccNy8eXk.s:27958  .debug_str:000000000001b67b .LASF1690
C:\Users\CYMR90~1\AppData\Local\Temp\ccNy8eXk.s:26029  .debug_str:0000000000013989 .LASF1691
C:\Users\CYMR90~1\AppData\Local\Temp\ccNy8eXk.s:29642  .debug_str:0000000000021f56 .LASF1692
C:\Users\CYMR90~1\AppData\Local\Temp\ccNy8eXk.s:27272  .debug_str:0000000000018850 .LASF1693
C:\Users\CYMR90~1\AppData\Local\Temp\ccNy8eXk.s:23167  .debug_str:00000000000082c3 .LASF1694
C:\Users\CYMR90~1\AppData\Local\Temp\ccNy8eXk.s:25211  .debug_str:0000000000010473 .LASF1695
C:\Users\CYMR90~1\AppData\Local\Temp\ccNy8eXk.s:27050  .debug_str:0000000000017afe .LASF1696
C:\Users\CYMR90~1\AppData\Local\Temp\ccNy8eXk.s:26353  .debug_str:0000000000014d5a .LASF1697
C:\Users\CYMR90~1\AppData\Local\Temp\ccNy8eXk.s:28888  .debug_str:000000000001f16b .LASF1698
C:\Users\CYMR90~1\AppData\Local\Temp\ccNy8eXk.s:27446  .debug_str:000000000001947c .LASF1699
C:\Users\CYMR90~1\AppData\Local\Temp\ccNy8eXk.s:29344  .debug_str:0000000000020d55 .LASF1700
C:\Users\CYMR90~1\AppData\Local\Temp\ccNy8eXk.s:28882  .debug_str:000000000001f10b .LASF1701
C:\Users\CYMR90~1\AppData\Local\Temp\ccNy8eXk.s:30150  .debug_str:0000000000023da4 .LASF1702
C:\Users\CYMR90~1\AppData\Local\Temp\ccNy8eXk.s:30108  .debug_str:0000000000023b34 .LASF1703
C:\Users\CYMR90~1\AppData\Local\Temp\ccNy8eXk.s:29632  .debug_str:0000000000021ebc .LASF1704
C:\Users\CYMR90~1\AppData\Local\Temp\ccNy8eXk.s:28086  .debug_str:000000000001be27 .LASF1705
C:\Users\CYMR90~1\AppData\Local\Temp\ccNy8eXk.s:29490  .debug_str:0000000000021608 .LASF1706
C:\Users\CYMR90~1\AppData\Local\Temp\ccNy8eXk.s:26958  .debug_str:00000000000174fc .LASF1707
C:\Users\CYMR90~1\AppData\Local\Temp\ccNy8eXk.s:25945  .debug_str:0000000000013418 .LASF1708
C:\Users\CYMR90~1\AppData\Local\Temp\ccNy8eXk.s:28636  .debug_str:000000000001e20b .LASF1709
C:\Users\CYMR90~1\AppData\Local\Temp\ccNy8eXk.s:27190  .debug_str:000000000001835c .LASF1710
C:\Users\CYMR90~1\AppData\Local\Temp\ccNy8eXk.s:31038  .debug_str:00000000000277fc .LASF1711
C:\Users\CYMR90~1\AppData\Local\Temp\ccNy8eXk.s:25577  .debug_str:0000000000011c1e .LASF1712
C:\Users\CYMR90~1\AppData\Local\Temp\ccNy8eXk.s:22709  .debug_str:00000000000064b3 .LASF1713
C:\Users\CYMR90~1\AppData\Local\Temp\ccNy8eXk.s:25057  .debug_str:000000000000fac6 .LASF1714
C:\Users\CYMR90~1\AppData\Local\Temp\ccNy8eXk.s:28450  .debug_str:000000000001d652 .LASF1715
C:\Users\CYMR90~1\AppData\Local\Temp\ccNy8eXk.s:25285  .debug_str:00000000000108f1 .LASF1716
C:\Users\CYMR90~1\AppData\Local\Temp\ccNy8eXk.s:28602  .debug_str:000000000001e037 .LASF1717
C:\Users\CYMR90~1\AppData\Local\Temp\ccNy8eXk.s:27154  .debug_str:0000000000018129 .LASF1718
C:\Users\CYMR90~1\AppData\Local\Temp\ccNy8eXk.s:25519  .debug_str:000000000001176b .LASF1719
C:\Users\CYMR90~1\AppData\Local\Temp\ccNy8eXk.s:27514  .debug_str:00000000000198b6 .LASF1720
C:\Users\CYMR90~1\AppData\Local\Temp\ccNy8eXk.s:26019  .debug_str:00000000000138e6 .LASF1721
C:\Users\CYMR90~1\AppData\Local\Temp\ccNy8eXk.s:21673  .debug_str:000000000000232e .LASF1722
C:\Users\CYMR90~1\AppData\Local\Temp\ccNy8eXk.s:27844  .debug_str:000000000001af32 .LASF1723
C:\Users\CYMR90~1\AppData\Local\Temp\ccNy8eXk.s:21737  .debug_str:0000000000002724 .LASF1724
C:\Users\CYMR90~1\AppData\Local\Temp\ccNy8eXk.s:26543  .debug_str:00000000000158a0 .LASF1725
C:\Users\CYMR90~1\AppData\Local\Temp\ccNy8eXk.s:31364  .debug_str:0000000000028dea .LASF1726
C:\Users\CYMR90~1\AppData\Local\Temp\ccNy8eXk.s:22597  .debug_str:0000000000005da6 .LASF1727
C:\Users\CYMR90~1\AppData\Local\Temp\ccNy8eXk.s:31006  .debug_str:0000000000027644 .LASF1728
C:\Users\CYMR90~1\AppData\Local\Temp\ccNy8eXk.s:28296  .debug_str:000000000001cb71 .LASF1729
C:\Users\CYMR90~1\AppData\Local\Temp\ccNy8eXk.s:32168  .debug_str:000000000002c005 .LASF1730
C:\Users\CYMR90~1\AppData\Local\Temp\ccNy8eXk.s:30832  .debug_str:0000000000026b18 .LASF1731
C:\Users\CYMR90~1\AppData\Local\Temp\ccNy8eXk.s:25455  .debug_str:0000000000011338 .LASF1732
C:\Users\CYMR90~1\AppData\Local\Temp\ccNy8eXk.s:23473  .debug_str:000000000000958c .LASF1733
C:\Users\CYMR90~1\AppData\Local\Temp\ccNy8eXk.s:21441  .debug_str:00000000000014fb .LASF1734
C:\Users\CYMR90~1\AppData\Local\Temp\ccNy8eXk.s:26914  .debug_str:00000000000172af .LASF1735
C:\Users\CYMR90~1\AppData\Local\Temp\ccNy8eXk.s:29058  .debug_str:000000000001fbc0 .LASF1736
C:\Users\CYMR90~1\AppData\Local\Temp\ccNy8eXk.s:23465  .debug_str:0000000000009516 .LASF1737
C:\Users\CYMR90~1\AppData\Local\Temp\ccNy8eXk.s:23187  .debug_str:0000000000008413 .LASF1738
C:\Users\CYMR90~1\AppData\Local\Temp\ccNy8eXk.s:30842  .debug_str:0000000000026baf .LASF1739
C:\Users\CYMR90~1\AppData\Local\Temp\ccNy8eXk.s:24815  .debug_str:000000000000ec1f .LASF1740
C:\Users\CYMR90~1\AppData\Local\Temp\ccNy8eXk.s:23809  .debug_str:000000000000ab7c .LASF1741
C:\Users\CYMR90~1\AppData\Local\Temp\ccNy8eXk.s:28910  .debug_str:000000000001f2b2 .LASF1742
C:\Users\CYMR90~1\AppData\Local\Temp\ccNy8eXk.s:24297  .debug_str:000000000000cc31 .LASF1743
C:\Users\CYMR90~1\AppData\Local\Temp\ccNy8eXk.s:31118  .debug_str:0000000000027d5a .LASF1744
C:\Users\CYMR90~1\AppData\Local\Temp\ccNy8eXk.s:23193  .debug_str:0000000000008485 .LASF1745
C:\Users\CYMR90~1\AppData\Local\Temp\ccNy8eXk.s:25113  .debug_str:000000000000fe46 .LASF1746
C:\Users\CYMR90~1\AppData\Local\Temp\ccNy8eXk.s:30154  .debug_str:0000000000023dea .LASF1747
C:\Users\CYMR90~1\AppData\Local\Temp\ccNy8eXk.s:29746  .debug_str:0000000000022545 .LASF1748
C:\Users\CYMR90~1\AppData\Local\Temp\ccNy8eXk.s:25281  .debug_str:00000000000108b9 .LASF1749
C:\Users\CYMR90~1\AppData\Local\Temp\ccNy8eXk.s:23973  .debug_str:000000000000b6a5 .LASF1750
C:\Users\CYMR90~1\AppData\Local\Temp\ccNy8eXk.s:27086  .debug_str:0000000000017cfc .LASF1751
C:\Users\CYMR90~1\AppData\Local\Temp\ccNy8eXk.s:22341  .debug_str:0000000000004e4b .LASF1752
C:\Users\CYMR90~1\AppData\Local\Temp\ccNy8eXk.s:27818  .debug_str:000000000001ad90 .LASF1753
C:\Users\CYMR90~1\AppData\Local\Temp\ccNy8eXk.s:27716  .debug_str:000000000001a696 .LASF1754
C:\Users\CYMR90~1\AppData\Local\Temp\ccNy8eXk.s:24239  .debug_str:000000000000c817 .LASF1755
C:\Users\CYMR90~1\AppData\Local\Temp\ccNy8eXk.s:25839  .debug_str:0000000000012cbf .LASF1756
C:\Users\CYMR90~1\AppData\Local\Temp\ccNy8eXk.s:27912  .debug_str:000000000001b3c0 .LASF1757
C:\Users\CYMR90~1\AppData\Local\Temp\ccNy8eXk.s:24913  .debug_str:000000000000f185 .LASF1758
C:\Users\CYMR90~1\AppData\Local\Temp\ccNy8eXk.s:23009  .debug_str:000000000000778d .LASF1759
C:\Users\CYMR90~1\AppData\Local\Temp\ccNy8eXk.s:27656  .debug_str:000000000001a18d .LASF1760
C:\Users\CYMR90~1\AppData\Local\Temp\ccNy8eXk.s:23295  .debug_str:0000000000008ac9 .LASF1761
C:\Users\CYMR90~1\AppData\Local\Temp\ccNy8eXk.s:21503  .debug_str:0000000000001950 .LASF1762
C:\Users\CYMR90~1\AppData\Local\Temp\ccNy8eXk.s:30354  .debug_str:0000000000024b7e .LASF1763
C:\Users\CYMR90~1\AppData\Local\Temp\ccNy8eXk.s:23037  .debug_str:0000000000007968 .LASF1764
C:\Users\CYMR90~1\AppData\Local\Temp\ccNy8eXk.s:22725  .debug_str:00000000000065b4 .LASF1765
C:\Users\CYMR90~1\AppData\Local\Temp\ccNy8eXk.s:21483  .debug_str:00000000000017e9 .LASF1766
C:\Users\CYMR90~1\AppData\Local\Temp\ccNy8eXk.s:28026  .debug_str:000000000001ba5e .LASF1767
C:\Users\CYMR90~1\AppData\Local\Temp\ccNy8eXk.s:21545  .debug_str:0000000000001bc7 .LASF1768
C:\Users\CYMR90~1\AppData\Local\Temp\ccNy8eXk.s:30546  .debug_str:000000000002598b .LASF1769
C:\Users\CYMR90~1\AppData\Local\Temp\ccNy8eXk.s:32244  .debug_str:000000000002c53d .LASF1770
C:\Users\CYMR90~1\AppData\Local\Temp\ccNy8eXk.s:24135  .debug_str:000000000000c1a3 .LASF1771
C:\Users\CYMR90~1\AppData\Local\Temp\ccNy8eXk.s:23715  .debug_str:000000000000a513 .LASF1772
C:\Users\CYMR90~1\AppData\Local\Temp\ccNy8eXk.s:32308  .debug_str:000000000002c8fb .LASF1773
C:\Users\CYMR90~1\AppData\Local\Temp\ccNy8eXk.s:21267  .debug_str:0000000000000a14 .LASF1774
C:\Users\CYMR90~1\AppData\Local\Temp\ccNy8eXk.s:31270  .debug_str:0000000000028862 .LASF1775
C:\Users\CYMR90~1\AppData\Local\Temp\ccNy8eXk.s:26245  .debug_str:00000000000146a1 .LASF1776
C:\Users\CYMR90~1\AppData\Local\Temp\ccNy8eXk.s:24991  .debug_str:000000000000f66e .LASF1777
C:\Users\CYMR90~1\AppData\Local\Temp\ccNy8eXk.s:27078  .debug_str:0000000000017c97 .LASF1778
C:\Users\CYMR90~1\AppData\Local\Temp\ccNy8eXk.s:22439  .debug_str:0000000000005433 .LASF1779
C:\Users\CYMR90~1\AppData\Local\Temp\ccNy8eXk.s:30584  .debug_str:0000000000025bfa .LASF1780
C:\Users\CYMR90~1\AppData\Local\Temp\ccNy8eXk.s:29782  .debug_str:000000000002276c .LASF1781
C:\Users\CYMR90~1\AppData\Local\Temp\ccNy8eXk.s:28304  .debug_str:000000000001cc13 .LASF1784
C:\Users\CYMR90~1\AppData\Local\Temp\ccNy8eXk.s:27460  .debug_str:000000000001954c .LASF1785
C:\Users\CYMR90~1\AppData\Local\Temp\ccNy8eXk.s:27304  .debug_str:0000000000018a37 .LASF1786
C:\Users\CYMR90~1\AppData\Local\Temp\ccNy8eXk.s:26291  .debug_str:0000000000014973 .LASF1787
C:\Users\CYMR90~1\AppData\Local\Temp\ccNy8eXk.s:31698  .debug_str:000000000002a26e .LASF1788
C:\Users\CYMR90~1\AppData\Local\Temp\ccNy8eXk.s:32004  .debug_str:000000000002b4ce .LASF1789
C:\Users\CYMR90~1\AppData\Local\Temp\ccNy8eXk.s:22011  .debug_str:0000000000003873 .LASF1790
C:\Users\CYMR90~1\AppData\Local\Temp\ccNy8eXk.s:21131  .debug_str:00000000000001e7 .LASF1791
C:\Users\CYMR90~1\AppData\Local\Temp\ccNy8eXk.s:30926  .debug_str:00000000000270e6 .LASF1792
C:\Users\CYMR90~1\AppData\Local\Temp\ccNy8eXk.s:29996  .debug_str:0000000000023406 .LASF1793
C:\Users\CYMR90~1\AppData\Local\Temp\ccNy8eXk.s:31886  .debug_str:000000000002adb6 .LASF1794
C:\Users\CYMR90~1\AppData\Local\Temp\ccNy8eXk.s:31202  .debug_str:00000000000283c5 .LASF1795
C:\Users\CYMR90~1\AppData\Local\Temp\ccNy8eXk.s:25957  .debug_str:00000000000134e2 .LASF1796
C:\Users\CYMR90~1\AppData\Local\Temp\ccNy8eXk.s:26231  .debug_str:0000000000014591 .LASF1797
C:\Users\CYMR90~1\AppData\Local\Temp\ccNy8eXk.s:25343  .debug_str:0000000000010d23 .LASF1798
C:\Users\CYMR90~1\AppData\Local\Temp\ccNy8eXk.s:24161  .debug_str:000000000000c363 .LASF1799
C:\Users\CYMR90~1\AppData\Local\Temp\ccNy8eXk.s:26988  .debug_str:00000000000176fb .LASF1800
C:\Users\CYMR90~1\AppData\Local\Temp\ccNy8eXk.s:27296  .debug_str:00000000000189c6 .LASF1801
C:\Users\CYMR90~1\AppData\Local\Temp\ccNy8eXk.s:26375  .debug_str:0000000000014ee3 .LASF1802
C:\Users\CYMR90~1\AppData\Local\Temp\ccNy8eXk.s:25401  .debug_str:000000000001101a .LASF1803
C:\Users\CYMR90~1\AppData\Local\Temp\ccNy8eXk.s:24891  .debug_str:000000000000f051 .LASF1804
C:\Users\CYMR90~1\AppData\Local\Temp\ccNy8eXk.s:29576  .debug_str:0000000000021b66 .LASF1805
C:\Users\CYMR90~1\AppData\Local\Temp\ccNy8eXk.s:26255  .debug_str:0000000000014759 .LASF1806
C:\Users\CYMR90~1\AppData\Local\Temp\ccNy8eXk.s:29172  .debug_str:0000000000020273 .LASF1807
C:\Users\CYMR90~1\AppData\Local\Temp\ccNy8eXk.s:26399  .debug_str:0000000000015079 .LASF1808
C:\Users\CYMR90~1\AppData\Local\Temp\ccNy8eXk.s:31194  .debug_str:00000000000282b3 .LASF1809
C:\Users\CYMR90~1\AppData\Local\Temp\ccNy8eXk.s:28398  .debug_str:000000000001d30a .LASF1810
C:\Users\CYMR90~1\AppData\Local\Temp\ccNy8eXk.s:27092  .debug_str:0000000000017d71 .LASF1811
C:\Users\CYMR90~1\AppData\Local\Temp\ccNy8eXk.s:21461  .debug_str:0000000000001618 .LASF1812
C:\Users\CYMR90~1\AppData\Local\Temp\ccNy8eXk.s:25295  .debug_str:000000000001097b .LASF1813
C:\Users\CYMR90~1\AppData\Local\Temp\ccNy8eXk.s:25561  .debug_str:0000000000011b3d .LASF1814
C:\Users\CYMR90~1\AppData\Local\Temp\ccNy8eXk.s:28378  .debug_str:000000000001d1ef .LASF1815
C:\Users\CYMR90~1\AppData\Local\Temp\ccNy8eXk.s:27056  .debug_str:0000000000017b70 .LASF1816
C:\Users\CYMR90~1\AppData\Local\Temp\ccNy8eXk.s:28386  .debug_str:000000000001d26d .LASF1817
C:\Users\CYMR90~1\AppData\Local\Temp\ccNy8eXk.s:28832  .debug_str:000000000001eddc .LASF1818
C:\Users\CYMR90~1\AppData\Local\Temp\ccNy8eXk.s:25111  .debug_str:000000000000fe31 .LASF1819
C:\Users\CYMR90~1\AppData\Local\Temp\ccNy8eXk.s:29314  .debug_str:0000000000020b7c .LASF1820
C:\Users\CYMR90~1\AppData\Local\Temp\ccNy8eXk.s:22753  .debug_str:0000000000006735 .LASF1821
C:\Users\CYMR90~1\AppData\Local\Temp\ccNy8eXk.s:23127  .debug_str:0000000000007fad .LASF1822
C:\Users\CYMR90~1\AppData\Local\Temp\ccNy8eXk.s:28762  .debug_str:000000000001e9d2 .LASF1823
C:\Users\CYMR90~1\AppData\Local\Temp\ccNy8eXk.s:31472  .debug_str:00000000000294ff .LASF1824
C:\Users\CYMR90~1\AppData\Local\Temp\ccNy8eXk.s:24037  .debug_str:000000000000bb35 .LASF1825
C:\Users\CYMR90~1\AppData\Local\Temp\ccNy8eXk.s:29410  .debug_str:00000000000210d8 .LASF1826
C:\Users\CYMR90~1\AppData\Local\Temp\ccNy8eXk.s:31826  .debug_str:000000000002aa2e .LASF1827
C:\Users\CYMR90~1\AppData\Local\Temp\ccNy8eXk.s:24859  .debug_str:000000000000ee9c .LASF1828
C:\Users\CYMR90~1\AppData\Local\Temp\ccNy8eXk.s:24933  .debug_str:000000000000f2fa .LASF1829
C:\Users\CYMR90~1\AppData\Local\Temp\ccNy8eXk.s:25707  .debug_str:000000000001243a .LASF1830
C:\Users\CYMR90~1\AppData\Local\Temp\ccNy8eXk.s:23495  .debug_str:000000000000973a .LASF1831
C:\Users\CYMR90~1\AppData\Local\Temp\ccNy8eXk.s:30872  .debug_str:0000000000026d70 .LASF1832
C:\Users\CYMR90~1\AppData\Local\Temp\ccNy8eXk.s:24295  .debug_str:000000000000cc16 .LASF1833
C:\Users\CYMR90~1\AppData\Local\Temp\ccNy8eXk.s:22953  .debug_str:0000000000007465 .LASF1834
C:\Users\CYMR90~1\AppData\Local\Temp\ccNy8eXk.s:26695  .debug_str:000000000001627a .LASF1835
C:\Users\CYMR90~1\AppData\Local\Temp\ccNy8eXk.s:30736  .debug_str:0000000000026528 .LASF1836
C:\Users\CYMR90~1\AppData\Local\Temp\ccNy8eXk.s:26665  .debug_str:00000000000160bb .LASF1837
C:\Users\CYMR90~1\AppData\Local\Temp\ccNy8eXk.s:27384  .debug_str:0000000000018ff2 .LASF1838
C:\Users\CYMR90~1\AppData\Local\Temp\ccNy8eXk.s:25347  .debug_str:0000000000010d5b .LASF1839
C:\Users\CYMR90~1\AppData\Local\Temp\ccNy8eXk.s:28334  .debug_str:000000000001ce96 .LASF1840
C:\Users\CYMR90~1\AppData\Local\Temp\ccNy8eXk.s:27618  .debug_str:0000000000019f72 .LASF1841
C:\Users\CYMR90~1\AppData\Local\Temp\ccNy8eXk.s:30430  .debug_str:0000000000025064 .LASF1842
C:\Users\CYMR90~1\AppData\Local\Temp\ccNy8eXk.s:30822  .debug_str:0000000000026a77 .LASF1843
C:\Users\CYMR90~1\AppData\Local\Temp\ccNy8eXk.s:32022  .debug_str:000000000002b61b .LASF1844
C:\Users\CYMR90~1\AppData\Local\Temp\ccNy8eXk.s:31880  .debug_str:000000000002ad63 .LASF1845
C:\Users\CYMR90~1\AppData\Local\Temp\ccNy8eXk.s:23229  .debug_str:00000000000086db .LASF1846
C:\Users\CYMR90~1\AppData\Local\Temp\ccNy8eXk.s:28538  .debug_str:000000000001dbc5 .LASF1847
C:\Users\CYMR90~1\AppData\Local\Temp\ccNy8eXk.s:29684  .debug_str:00000000000221bf .LASF1848
C:\Users\CYMR90~1\AppData\Local\Temp\ccNy8eXk.s:29698  .debug_str:00000000000222a3 .LASF1849
C:\Users\CYMR90~1\AppData\Local\Temp\ccNy8eXk.s:28920  .debug_str:000000000001f350 .LASF1850
C:\Users\CYMR90~1\AppData\Local\Temp\ccNy8eXk.s:23287  .debug_str:0000000000008a46 .LASF1851
C:\Users\CYMR90~1\AppData\Local\Temp\ccNy8eXk.s:30776  .debug_str:00000000000267ac .LASF1852
C:\Users\CYMR90~1\AppData\Local\Temp\ccNy8eXk.s:24541  .debug_str:000000000000db93 .LASF1853
C:\Users\CYMR90~1\AppData\Local\Temp\ccNy8eXk.s:21921  .debug_str:00000000000032c8 .LASF1854
C:\Users\CYMR90~1\AppData\Local\Temp\ccNy8eXk.s:28418  .debug_str:000000000001d44f .LASF1855
C:\Users\CYMR90~1\AppData\Local\Temp\ccNy8eXk.s:31044  .debug_str:000000000002786a .LASF1856
C:\Users\CYMR90~1\AppData\Local\Temp\ccNy8eXk.s:23371  .debug_str:0000000000008fd1 .LASF1857
C:\Users\CYMR90~1\AppData\Local\Temp\ccNy8eXk.s:24221  .debug_str:000000000000c70a .LASF1858
C:\Users\CYMR90~1\AppData\Local\Temp\ccNy8eXk.s:31140  .debug_str:0000000000027ee4 .LASF1859
C:\Users\CYMR90~1\AppData\Local\Temp\ccNy8eXk.s:26405  .debug_str:00000000000150da .LASF1860
C:\Users\CYMR90~1\AppData\Local\Temp\ccNy8eXk.s:27326  .debug_str:0000000000018c11 .LASF1861
C:\Users\CYMR90~1\AppData\Local\Temp\ccNy8eXk.s:25159  .debug_str:000000000001012c .LASF1862
C:\Users\CYMR90~1\AppData\Local\Temp\ccNy8eXk.s:22905  .debug_str:00000000000070bb .LASF1863
C:\Users\CYMR90~1\AppData\Local\Temp\ccNy8eXk.s:27240  .debug_str:0000000000018644 .LASF1864
C:\Users\CYMR90~1\AppData\Local\Temp\ccNy8eXk.s:22547  .debug_str:0000000000005aa8 .LASF1865
C:\Users\CYMR90~1\AppData\Local\Temp\ccNy8eXk.s:29888  .debug_str:0000000000022e08 .LASF1866
C:\Users\CYMR90~1\AppData\Local\Temp\ccNy8eXk.s:29102  .debug_str:000000000001fe8e .LASF1867
C:\Users\CYMR90~1\AppData\Local\Temp\ccNy8eXk.s:24159  .debug_str:000000000000c333 .LASF1868
C:\Users\CYMR90~1\AppData\Local\Temp\ccNy8eXk.s:21247  .debug_str:00000000000008e6 .LASF1869
C:\Users\CYMR90~1\AppData\Local\Temp\ccNy8eXk.s:23209  .debug_str:000000000000858d .LASF1870
C:\Users\CYMR90~1\AppData\Local\Temp\ccNy8eXk.s:31422  .debug_str:000000000002917d .LASF1871
C:\Users\CYMR90~1\AppData\Local\Temp\ccNy8eXk.s:30524  .debug_str:00000000000257a9 .LASF1872
C:\Users\CYMR90~1\AppData\Local\Temp\ccNy8eXk.s:26533  .debug_str:0000000000015801 .LASF1873
C:\Users\CYMR90~1\AppData\Local\Temp\ccNy8eXk.s:23073  .debug_str:0000000000007bcc .LASF1874
C:\Users\CYMR90~1\AppData\Local\Temp\ccNy8eXk.s:23951  .debug_str:000000000000b4e7 .LASF1875
C:\Users\CYMR90~1\AppData\Local\Temp\ccNy8eXk.s:31598  .debug_str:0000000000029cbe .LASF1876
C:\Users\CYMR90~1\AppData\Local\Temp\ccNy8eXk.s:27854  .debug_str:000000000001b017 .LASF1877
C:\Users\CYMR90~1\AppData\Local\Temp\ccNy8eXk.s:28594  .debug_str:000000000001dfd0 .LASF1878
C:\Users\CYMR90~1\AppData\Local\Temp\ccNy8eXk.s:24995  .debug_str:000000000000f6a7 .LASF1879
C:\Users\CYMR90~1\AppData\Local\Temp\ccNy8eXk.s:23331  .debug_str:0000000000008cec .LASF1880
C:\Users\CYMR90~1\AppData\Local\Temp\ccNy8eXk.s:28900  .debug_str:000000000001f213 .LASF1881
C:\Users\CYMR90~1\AppData\Local\Temp\ccNy8eXk.s:21357  .debug_str:000000000000100b .LASF1882
C:\Users\CYMR90~1\AppData\Local\Temp\ccNy8eXk.s:29304  .debug_str:0000000000020aeb .LASF1883
C:\Users\CYMR90~1\AppData\Local\Temp\ccNy8eXk.s:32018  .debug_str:000000000002b5d3 .LASF1884
C:\Users\CYMR90~1\AppData\Local\Temp\ccNy8eXk.s:29008  .debug_str:000000000001f88b .LASF1885
C:\Users\CYMR90~1\AppData\Local\Temp\ccNy8eXk.s:31156  .debug_str:0000000000027fe4 .LASF1886
C:\Users\CYMR90~1\AppData\Local\Temp\ccNy8eXk.s:23549  .debug_str:0000000000009ad7 .LASF1887
C:\Users\CYMR90~1\AppData\Local\Temp\ccNy8eXk.s:23361  .debug_str:0000000000008f28 .LASF1888
C:\Users\CYMR90~1\AppData\Local\Temp\ccNy8eXk.s:32052  .debug_str:000000000002b7fa .LASF1889
C:\Users\CYMR90~1\AppData\Local\Temp\ccNy8eXk.s:27476  .debug_str:000000000001960b .LASF1890
C:\Users\CYMR90~1\AppData\Local\Temp\ccNy8eXk.s:23541  .debug_str:0000000000009a31 .LASF1891
C:\Users\CYMR90~1\AppData\Local\Temp\ccNy8eXk.s:23633  .debug_str:0000000000009ff8 .LASF1892
C:\Users\CYMR90~1\AppData\Local\Temp\ccNy8eXk.s:28224  .debug_str:000000000001c67d .LASF1893
C:\Users\CYMR90~1\AppData\Local\Temp\ccNy8eXk.s:23355  .debug_str:0000000000008ebc .LASF1894
C:\Users\CYMR90~1\AppData\Local\Temp\ccNy8eXk.s:24611  .debug_str:000000000000dfc2 .LASF1895
C:\Users\CYMR90~1\AppData\Local\Temp\ccNy8eXk.s:26924  .debug_str:0000000000017343 .LASF1896
C:\Users\CYMR90~1\AppData\Local\Temp\ccNy8eXk.s:21563  .debug_str:0000000000001cdd .LASF1897
C:\Users\CYMR90~1\AppData\Local\Temp\ccNy8eXk.s:30894  .debug_str:0000000000026f01 .LASF1898
C:\Users\CYMR90~1\AppData\Local\Temp\ccNy8eXk.s:27722  .debug_str:000000000001a708 .LASF1899
C:\Users\CYMR90~1\AppData\Local\Temp\ccNy8eXk.s:24427  .debug_str:000000000000d4ea .LASF1900
C:\Users\CYMR90~1\AppData\Local\Temp\ccNy8eXk.s:21167  .debug_str:000000000000040c .LASF1901
C:\Users\CYMR90~1\AppData\Local\Temp\ccNy8eXk.s:21995  .debug_str:000000000000374b .LASF1902
C:\Users\CYMR90~1\AppData\Local\Temp\ccNy8eXk.s:24061  .debug_str:000000000000bc67 .LASF1903
C:\Users\CYMR90~1\AppData\Local\Temp\ccNy8eXk.s:32310  .debug_str:000000000002c922 .LASF1904
C:\Users\CYMR90~1\AppData\Local\Temp\ccNy8eXk.s:26797  .debug_str:0000000000016953 .LASF1905
C:\Users\CYMR90~1\AppData\Local\Temp\ccNy8eXk.s:23511  .debug_str:00000000000097f5 .LASF1906
C:\Users\CYMR90~1\AppData\Local\Temp\ccNy8eXk.s:31236  .debug_str:00000000000285d9 .LASF1907
C:\Users\CYMR90~1\AppData\Local\Temp\ccNy8eXk.s:28264  .debug_str:000000000001c98e .LASF1908
C:\Users\CYMR90~1\AppData\Local\Temp\ccNy8eXk.s:22533  .debug_str:00000000000059da .LASF1909
C:\Users\CYMR90~1\AppData\Local\Temp\ccNy8eXk.s:31590  .debug_str:0000000000029c41 .LASF1910
C:\Users\CYMR90~1\AppData\Local\Temp\ccNy8eXk.s:27900  .debug_str:000000000001b308 .LASF1911
C:\Users\CYMR90~1\AppData\Local\Temp\ccNy8eXk.s:27576  .debug_str:0000000000019d0e .LASF1912
C:\Users\CYMR90~1\AppData\Local\Temp\ccNy8eXk.s:23971  .debug_str:000000000000b686 .LASF1913
C:\Users\CYMR90~1\AppData\Local\Temp\ccNy8eXk.s:23805  .debug_str:000000000000ab24 .LASF1914
C:\Users\CYMR90~1\AppData\Local\Temp\ccNy8eXk.s:29204  .debug_str:0000000000020490 .LASF1915
C:\Users\CYMR90~1\AppData\Local\Temp\ccNy8eXk.s:30500  .debug_str:00000000000255d8 .LASF1916
C:\Users\CYMR90~1\AppData\Local\Temp\ccNy8eXk.s:27090  .debug_str:0000000000017d45 .LASF1917
C:\Users\CYMR90~1\AppData\Local\Temp\ccNy8eXk.s:23707  .debug_str:000000000000a4a9 .LASF1918
C:\Users\CYMR90~1\AppData\Local\Temp\ccNy8eXk.s:31648  .debug_str:0000000000029f93 .LASF1919
C:\Users\CYMR90~1\AppData\Local\Temp\ccNy8eXk.s:28234  .debug_str:000000000001c714 .LASF1920
C:\Users\CYMR90~1\AppData\Local\Temp\ccNy8eXk.s:24389  .debug_str:000000000000d1d0 .LASF1921
C:\Users\CYMR90~1\AppData\Local\Temp\ccNy8eXk.s:22925  .debug_str:0000000000007230 .LASF1922
C:\Users\CYMR90~1\AppData\Local\Temp\ccNy8eXk.s:29274  .debug_str:000000000002093c .LASF1923
C:\Users\CYMR90~1\AppData\Local\Temp\ccNy8eXk.s:31376  .debug_str:0000000000028ea7 .LASF1924
C:\Users\CYMR90~1\AppData\Local\Temp\ccNy8eXk.s:23829  .debug_str:000000000000acbe .LASF1925
C:\Users\CYMR90~1\AppData\Local\Temp\ccNy8eXk.s:29100  .debug_str:000000000001fe60 .LASF1926
C:\Users\CYMR90~1\AppData\Local\Temp\ccNy8eXk.s:28134  .debug_str:000000000001c11f .LASF1927
C:\Users\CYMR90~1\AppData\Local\Temp\ccNy8eXk.s:25481  .debug_str:00000000000114e5 .LASF1928
C:\Users\CYMR90~1\AppData\Local\Temp\ccNy8eXk.s:22975  .debug_str:000000000000758a .LASF1929
C:\Users\CYMR90~1\AppData\Local\Temp\ccNy8eXk.s:29026  .debug_str:000000000001f9ab .LASF1930
C:\Users\CYMR90~1\AppData\Local\Temp\ccNy8eXk.s:32342  .debug_str:000000000002cb66 .LASF1931
C:\Users\CYMR90~1\AppData\Local\Temp\ccNy8eXk.s:32010  .debug_str:000000000002b53c .LASF1932
C:\Users\CYMR90~1\AppData\Local\Temp\ccNy8eXk.s:23085  .debug_str:0000000000007c67 .LASF1933
C:\Users\CYMR90~1\AppData\Local\Temp\ccNy8eXk.s:24139  .debug_str:000000000000c1fe .LASF1934
C:\Users\CYMR90~1\AppData\Local\Temp\ccNy8eXk.s:28206  .debug_str:000000000001c54c .LASF1935
C:\Users\CYMR90~1\AppData\Local\Temp\ccNy8eXk.s:22577  .debug_str:0000000000005c85 .LASF1936
C:\Users\CYMR90~1\AppData\Local\Temp\ccNy8eXk.s:28070  .debug_str:000000000001bd1c .LASF1937
C:\Users\CYMR90~1\AppData\Local\Temp\ccNy8eXk.s:27038  .debug_str:0000000000017a53 .LASF1938
C:\Users\CYMR90~1\AppData\Local\Temp\ccNy8eXk.s:31528  .debug_str:00000000000298cc .LASF1939
C:\Users\CYMR90~1\AppData\Local\Temp\ccNy8eXk.s:23273  .debug_str:000000000000895d .LASF1940
C:\Users\CYMR90~1\AppData\Local\Temp\ccNy8eXk.s:31440  .debug_str:00000000000292b1 .LASF1941
C:\Users\CYMR90~1\AppData\Local\Temp\ccNy8eXk.s:28316  .debug_str:000000000001ccd9 .LASF1942
C:\Users\CYMR90~1\AppData\Local\Temp\ccNy8eXk.s:24195  .debug_str:000000000000c55d .LASF1943
C:\Users\CYMR90~1\AppData\Local\Temp\ccNy8eXk.s:25329  .debug_str:0000000000010bd5 .LASF1944
C:\Users\CYMR90~1\AppData\Local\Temp\ccNy8eXk.s:29136  .debug_str:00000000000200a0 .LASF1945
C:\Users\CYMR90~1\AppData\Local\Temp\ccNy8eXk.s:26063  .debug_str:0000000000013b84 .LASF1946
C:\Users\CYMR90~1\AppData\Local\Temp\ccNy8eXk.s:22871  .debug_str:0000000000006ea5 .LASF1947
C:\Users\CYMR90~1\AppData\Local\Temp\ccNy8eXk.s:21771  .debug_str:0000000000002974 .LASF1948
C:\Users\CYMR90~1\AppData\Local\Temp\ccNy8eXk.s:27954  .debug_str:000000000001b639 .LASF1949
C:\Users\CYMR90~1\AppData\Local\Temp\ccNy8eXk.s:24879  .debug_str:000000000000ef94 .LASF1950
C:\Users\CYMR90~1\AppData\Local\Temp\ccNy8eXk.s:21635  .debug_str:00000000000020f9 .LASF1951
C:\Users\CYMR90~1\AppData\Local\Temp\ccNy8eXk.s:29904  .debug_str:0000000000022edb .LASF1952
C:\Users\CYMR90~1\AppData\Local\Temp\ccNy8eXk.s:30632  .debug_str:0000000000025ed8 .LASF1953
C:\Users\CYMR90~1\AppData\Local\Temp\ccNy8eXk.s:26189  .debug_str:0000000000014341 .LASF1954
C:\Users\CYMR90~1\AppData\Local\Temp\ccNy8eXk.s:29424  .debug_str:00000000000211ad .LASF1955
C:\Users\CYMR90~1\AppData\Local\Temp\ccNy8eXk.s:30104  .debug_str:0000000000023afd .LASF1956
C:\Users\CYMR90~1\AppData\Local\Temp\ccNy8eXk.s:21689  .debug_str:0000000000002411 .LASF1957
C:\Users\CYMR90~1\AppData\Local\Temp\ccNy8eXk.s:31852  .debug_str:000000000002abb5 .LASF1958
C:\Users\CYMR90~1\AppData\Local\Temp\ccNy8eXk.s:23091  .debug_str:0000000000007cd8 .LASF1959
C:\Users\CYMR90~1\AppData\Local\Temp\ccNy8eXk.s:31424  .debug_str:00000000000291bc .LASF1960
C:\Users\CYMR90~1\AppData\Local\Temp\ccNy8eXk.s:28272  .debug_str:000000000001ca14 .LASF1961
C:\Users\CYMR90~1\AppData\Local\Temp\ccNy8eXk.s:21209  .debug_str:000000000000065a .LASF1962
C:\Users\CYMR90~1\AppData\Local\Temp\ccNy8eXk.s:26579  .debug_str:0000000000015ac9 .LASF1963
C:\Users\CYMR90~1\AppData\Local\Temp\ccNy8eXk.s:30482  .debug_str:00000000000254ba .LASF1964
C:\Users\CYMR90~1\AppData\Local\Temp\ccNy8eXk.s:22929  .debug_str:000000000000729b .LASF1965
C:\Users\CYMR90~1\AppData\Local\Temp\ccNy8eXk.s:28408  .debug_str:000000000001d393 .LASF1966
C:\Users\CYMR90~1\AppData\Local\Temp\ccNy8eXk.s:31950  .debug_str:000000000002b157 .LASF1967
C:\Users\CYMR90~1\AppData\Local\Temp\ccNy8eXk.s:28248  .debug_str:000000000001c8a3 .LASF1968
C:\Users\CYMR90~1\AppData\Local\Temp\ccNy8eXk.s:29790  .debug_str:00000000000227fc .LASF1969
C:\Users\CYMR90~1\AppData\Local\Temp\ccNy8eXk.s:22913  .debug_str:000000000000715e .LASF1970
C:\Users\CYMR90~1\AppData\Local\Temp\ccNy8eXk.s:29794  .debug_str:000000000002282d .LASF1971
C:\Users\CYMR90~1\AppData\Local\Temp\ccNy8eXk.s:30516  .debug_str:00000000000256ff .LASF1972
C:\Users\CYMR90~1\AppData\Local\Temp\ccNy8eXk.s:23945  .debug_str:000000000000b489 .LASF1973
C:\Users\CYMR90~1\AppData\Local\Temp\ccNy8eXk.s:27044  .debug_str:0000000000017ab4 .LASF1974
C:\Users\CYMR90~1\AppData\Local\Temp\ccNy8eXk.s:26657  .debug_str:0000000000016048 .LASF1975
C:\Users\CYMR90~1\AppData\Local\Temp\ccNy8eXk.s:24485  .debug_str:000000000000d85b .LASF1976
C:\Users\CYMR90~1\AppData\Local\Temp\ccNy8eXk.s:22571  .debug_str:0000000000005c3e .LASF1977
C:\Users\CYMR90~1\AppData\Local\Temp\ccNy8eXk.s:25821  .debug_str:0000000000012bc4 .LASF1978
C:\Users\CYMR90~1\AppData\Local\Temp\ccNy8eXk.s:24837  .debug_str:000000000000ed7f .LASF1979
C:\Users\CYMR90~1\AppData\Local\Temp\ccNy8eXk.s:24073  .debug_str:000000000000bd34 .LASF1980
C:\Users\CYMR90~1\AppData\Local\Temp\ccNy8eXk.s:32192  .debug_str:000000000002c17c .LASF1981
C:\Users\CYMR90~1\AppData\Local\Temp\ccNy8eXk.s:23347  .debug_str:0000000000008e50 .LASF1982
C:\Users\CYMR90~1\AppData\Local\Temp\ccNy8eXk.s:31464  .debug_str:0000000000029484 .LASF1983
C:\Users\CYMR90~1\AppData\Local\Temp\ccNy8eXk.s:25655  .debug_str:0000000000012114 .LASF1984
C:\Users\CYMR90~1\AppData\Local\Temp\ccNy8eXk.s:21513  .debug_str:00000000000019d2 .LASF1985
C:\Users\CYMR90~1\AppData\Local\Temp\ccNy8eXk.s:30026  .debug_str:0000000000023626 .LASF1986
C:\Users\CYMR90~1\AppData\Local\Temp\ccNy8eXk.s:31354  .debug_str:0000000000028d73 .LASF1987
C:\Users\CYMR90~1\AppData\Local\Temp\ccNy8eXk.s:31442  .debug_str:00000000000292d9 .LASF1988
C:\Users\CYMR90~1\AppData\Local\Temp\ccNy8eXk.s:25681  .debug_str:0000000000012278 .LASF1989
C:\Users\CYMR90~1\AppData\Local\Temp\ccNy8eXk.s:31690  .debug_str:000000000002a212 .LASF1990
C:\Users\CYMR90~1\AppData\Local\Temp\ccNy8eXk.s:31214  .debug_str:000000000002848e .LASF1991
C:\Users\CYMR90~1\AppData\Local\Temp\ccNy8eXk.s:21407  .debug_str:00000000000012e9 .LASF1992
C:\Users\CYMR90~1\AppData\Local\Temp\ccNy8eXk.s:21261  .debug_str:00000000000009c2 .LASF1993
C:\Users\CYMR90~1\AppData\Local\Temp\ccNy8eXk.s:27904  .debug_str:000000000001b34e .LASF1994
C:\Users\CYMR90~1\AppData\Local\Temp\ccNy8eXk.s:28966  .debug_str:000000000001f616 .LASF1995
C:\Users\CYMR90~1\AppData\Local\Temp\ccNy8eXk.s:26872  .debug_str:000000000001704d .LASF1996
C:\Users\CYMR90~1\AppData\Local\Temp\ccNy8eXk.s:25615  .debug_str:0000000000011e4d .LASF1997
C:\Users\CYMR90~1\AppData\Local\Temp\ccNy8eXk.s:26968  .debug_str:00000000000175bd .LASF1998
C:\Users\CYMR90~1\AppData\Local\Temp\ccNy8eXk.s:26123  .debug_str:0000000000013f16 .LASF1999
C:\Users\CYMR90~1\AppData\Local\Temp\ccNy8eXk.s:32186  .debug_str:000000000002c128 .LASF2000
C:\Users\CYMR90~1\AppData\Local\Temp\ccNy8eXk.s:22163  .debug_str:000000000000429b .LASF2001
C:\Users\CYMR90~1\AppData\Local\Temp\ccNy8eXk.s:23587  .debug_str:0000000000009d0f .LASF2002
C:\Users\CYMR90~1\AppData\Local\Temp\ccNy8eXk.s:21917  .debug_str:0000000000003265 .LASF2003
C:\Users\CYMR90~1\AppData\Local\Temp\ccNy8eXk.s:30642  .debug_str:0000000000025f76 .LASF2004
C:\Users\CYMR90~1\AppData\Local\Temp\ccNy8eXk.s:25171  .debug_str:0000000000010216 .LASF2005
C:\Users\CYMR90~1\AppData\Local\Temp\ccNy8eXk.s:23953  .debug_str:000000000000b510 .LASF2006
C:\Users\CYMR90~1\AppData\Local\Temp\ccNy8eXk.s:22751  .debug_str:0000000000006712 .LASF2007
C:\Users\CYMR90~1\AppData\Local\Temp\ccNy8eXk.s:21833  .debug_str:0000000000002d2d .LASF2008
C:\Users\CYMR90~1\AppData\Local\Temp\ccNy8eXk.s:23625  .debug_str:0000000000009f51 .LASF2009
C:\Users\CYMR90~1\AppData\Local\Temp\ccNy8eXk.s:32138  .debug_str:000000000002bdb1 .LASF2010
C:\Users\CYMR90~1\AppData\Local\Temp\ccNy8eXk.s:26966  .debug_str:0000000000017599 .LASF2011
C:\Users\CYMR90~1\AppData\Local\Temp\ccNy8eXk.s:21935  .debug_str:00000000000033a8 .LASF2012
C:\Users\CYMR90~1\AppData\Local\Temp\ccNy8eXk.s:31412  .debug_str:0000000000029104 .LASF2013
C:\Users\CYMR90~1\AppData\Local\Temp\ccNy8eXk.s:25649  .debug_str:000000000001209a .LASF2014
C:\Users\CYMR90~1\AppData\Local\Temp\ccNy8eXk.s:21951  .debug_str:00000000000034be .LASF2015
C:\Users\CYMR90~1\AppData\Local\Temp\ccNy8eXk.s:24391  .debug_str:000000000000d1fc .LASF2016
C:\Users\CYMR90~1\AppData\Local\Temp\ccNy8eXk.s:26918  .debug_str:00000000000172e7 .LASF2017
C:\Users\CYMR90~1\AppData\Local\Temp\ccNy8eXk.s:28986  .debug_str:000000000001f731 .LASF2018
C:\Users\CYMR90~1\AppData\Local\Temp\ccNy8eXk.s:31572  .debug_str:0000000000029b33 .LASF2019
C:\Users\CYMR90~1\AppData\Local\Temp\ccNy8eXk.s:30974  .debug_str:0000000000027455 .LASF2020
C:\Users\CYMR90~1\AppData\Local\Temp\ccNy8eXk.s:26013  .debug_str:0000000000013876 .LASF2021
C:\Users\CYMR90~1\AppData\Local\Temp\ccNy8eXk.s:27830  .debug_str:000000000001ae2d .LASF2022
C:\Users\CYMR90~1\AppData\Local\Temp\ccNy8eXk.s:26201  .debug_str:00000000000143de .LASF2023
C:\Users\CYMR90~1\AppData\Local\Temp\ccNy8eXk.s:30270  .debug_str:0000000000024619 .LASF2024
C:\Users\CYMR90~1\AppData\Local\Temp\ccNy8eXk.s:28930  .debug_str:000000000001f3ef .LASF2025
C:\Users\CYMR90~1\AppData\Local\Temp\ccNy8eXk.s:21787  .debug_str:0000000000002a43 .LASF2026
C:\Users\CYMR90~1\AppData\Local\Temp\ccNy8eXk.s:29364  .debug_str:0000000000020e64 .LASF2027
C:\Users\CYMR90~1\AppData\Local\Temp\ccNy8eXk.s:23203  .debug_str:0000000000008523 .LASF2028
C:\Users\CYMR90~1\AppData\Local\Temp\ccNy8eXk.s:26061  .debug_str:0000000000013b60 .LASF2029
C:\Users\CYMR90~1\AppData\Local\Temp\ccNy8eXk.s:28672  .debug_str:000000000001e41e .LASF2030
C:\Users\CYMR90~1\AppData\Local\Temp\ccNy8eXk.s:25917  .debug_str:00000000000131c2 .LASF2031
C:\Users\CYMR90~1\AppData\Local\Temp\ccNy8eXk.s:27036  .debug_str:0000000000017a2c .LASF2032
C:\Users\CYMR90~1\AppData\Local\Temp\ccNy8eXk.s:32216  .debug_str:000000000002c312 .LASF2033
C:\Users\CYMR90~1\AppData\Local\Temp\ccNy8eXk.s:29476  .debug_str:000000000002154c .LASF2034
C:\Users\CYMR90~1\AppData\Local\Temp\ccNy8eXk.s:25369  .debug_str:0000000000010e6c .LASF2035
C:\Users\CYMR90~1\AppData\Local\Temp\ccNy8eXk.s:31132  .debug_str:0000000000027e66 .LASF2036
C:\Users\CYMR90~1\AppData\Local\Temp\ccNy8eXk.s:27258  .debug_str:0000000000018733 .LASF2037
C:\Users\CYMR90~1\AppData\Local\Temp\ccNy8eXk.s:29200  .debug_str:000000000002044b .LASF2038
C:\Users\CYMR90~1\AppData\Local\Temp\ccNy8eXk.s:25553  .debug_str:0000000000011aaa .LASF2039
C:\Users\CYMR90~1\AppData\Local\Temp\ccNy8eXk.s:21925  .debug_str:000000000000330a .LASF2040
C:\Users\CYMR90~1\AppData\Local\Temp\ccNy8eXk.s:21659  .debug_str:0000000000002248 .LASF2041
C:\Users\CYMR90~1\AppData\Local\Temp\ccNy8eXk.s:27416  .debug_str:000000000001928e .LASF2042
C:\Users\CYMR90~1\AppData\Local\Temp\ccNy8eXk.s:31678  .debug_str:000000000002a165 .LASF2043
C:\Users\CYMR90~1\AppData\Local\Temp\ccNy8eXk.s:23205  .debug_str:0000000000008548 .LASF2044
C:\Users\CYMR90~1\AppData\Local\Temp\ccNy8eXk.s:29572  .debug_str:0000000000021b29 .LASF2045
C:\Users\CYMR90~1\AppData\Local\Temp\ccNy8eXk.s:25465  .debug_str:00000000000113cf .LASF2046
C:\Users\CYMR90~1\AppData\Local\Temp\ccNy8eXk.s:24957  .debug_str:000000000000f484 .LASF2047
C:\Users\CYMR90~1\AppData\Local\Temp\ccNy8eXk.s:28946  .debug_str:000000000001f4ea .LASF2048
C:\Users\CYMR90~1\AppData\Local\Temp\ccNy8eXk.s:29500  .debug_str:00000000000216a5 .LASF2049
C:\Users\CYMR90~1\AppData\Local\Temp\ccNy8eXk.s:25755  .debug_str:000000000001274e .LASF2050
C:\Users\CYMR90~1\AppData\Local\Temp\ccNy8eXk.s:21953  .debug_str:00000000000034e5 .LASF2051
C:\Users\CYMR90~1\AppData\Local\Temp\ccNy8eXk.s:21123  .debug_str:000000000000014f .LASF2052
C:\Users\CYMR90~1\AppData\Local\Temp\ccNy8eXk.s:21539  .debug_str:0000000000001b5b .LASF2053
C:\Users\CYMR90~1\AppData\Local\Temp\ccNy8eXk.s:26974  .debug_str:0000000000017613 .LASF2054
C:\Users\CYMR90~1\AppData\Local\Temp\ccNy8eXk.s:31378  .debug_str:0000000000028ee7 .LASF2055
C:\Users\CYMR90~1\AppData\Local\Temp\ccNy8eXk.s:30976  .debug_str:000000000002747c .LASF2056
C:\Users\CYMR90~1\AppData\Local\Temp\ccNy8eXk.s:26015  .debug_str:000000000001389d .LASF2057
C:\Users\CYMR90~1\AppData\Local\Temp\ccNy8eXk.s:24567  .debug_str:000000000000dcde .LASF2058
C:\Users\CYMR90~1\AppData\Local\Temp\ccNy8eXk.s:22583  .debug_str:0000000000005cf0 .LASF2059
C:\Users\CYMR90~1\AppData\Local\Temp\ccNy8eXk.s:31388  .debug_str:0000000000028f7a .LASF2060
C:\Users\CYMR90~1\AppData\Local\Temp\ccNy8eXk.s:21465  .debug_str:0000000000001668 .LASF2061
C:\Users\CYMR90~1\AppData\Local\Temp\ccNy8eXk.s:22023  .debug_str:000000000000392e .LASF2062
C:\Users\CYMR90~1\AppData\Local\Temp\ccNy8eXk.s:30942  .debug_str:00000000000271ba .LASF2063
C:\Users\CYMR90~1\AppData\Local\Temp\ccNy8eXk.s:25403  .debug_str:000000000001103e .LASF2064
C:\Users\CYMR90~1\AppData\Local\Temp\ccNy8eXk.s:27318  .debug_str:0000000000018b12 .LASF2065
C:\Users\CYMR90~1\AppData\Local\Temp\ccNy8eXk.s:30746  .debug_str:00000000000265e9 .LASF2066
C:\Users\CYMR90~1\AppData\Local\Temp\ccNy8eXk.s:23375  .debug_str:0000000000009013 .LASF2067
C:\Users\CYMR90~1\AppData\Local\Temp\ccNy8eXk.s:31658  .debug_str:000000000002a039 .LASF2068
C:\Users\CYMR90~1\AppData\Local\Temp\ccNy8eXk.s:32378  .debug_str:000000000002cd9f .LASF2069
C:\Users\CYMR90~1\AppData\Local\Temp\ccNy8eXk.s:22057  .debug_str:0000000000003b47 .LASF2070
C:\Users\CYMR90~1\AppData\Local\Temp\ccNy8eXk.s:30004  .debug_str:0000000000023484 .LASF2071
C:\Users\CYMR90~1\AppData\Local\Temp\ccNy8eXk.s:27400  .debug_str:00000000000191c7 .LASF2072
C:\Users\CYMR90~1\AppData\Local\Temp\ccNy8eXk.s:24951  .debug_str:000000000000f42d .LASF2073
C:\Users\CYMR90~1\AppData\Local\Temp\ccNy8eXk.s:23237  .debug_str:0000000000008736 .LASF2074
C:\Users\CYMR90~1\AppData\Local\Temp\ccNy8eXk.s:28506  .debug_str:000000000001da12 .LASF2075
C:\Users\CYMR90~1\AppData\Local\Temp\ccNy8eXk.s:26705  .debug_str:000000000001631c .LASF2076
C:\Users\CYMR90~1\AppData\Local\Temp\ccNy8eXk.s:24725  .debug_str:000000000000e681 .LASF2077
C:\Users\CYMR90~1\AppData\Local\Temp\ccNy8eXk.s:24867  .debug_str:000000000000eef3 .LASF2078
C:\Users\CYMR90~1\AppData\Local\Temp\ccNy8eXk.s:28950  .debug_str:000000000001f521 .LASF2079
C:\Users\CYMR90~1\AppData\Local\Temp\ccNy8eXk.s:26645  .debug_str:0000000000015f6b .LASF2080
C:\Users\CYMR90~1\AppData\Local\Temp\ccNy8eXk.s:25609  .debug_str:0000000000011e0b .LASF2081
C:\Users\CYMR90~1\AppData\Local\Temp\ccNy8eXk.s:28740  .debug_str:000000000001e87f .LASF2082
C:\Users\CYMR90~1\AppData\Local\Temp\ccNy8eXk.s:23955  .debug_str:000000000000b51f .LASF2083
C:\Users\CYMR90~1\AppData\Local\Temp\ccNy8eXk.s:29648  .debug_str:0000000000021fa5 .LASF2084
C:\Users\CYMR90~1\AppData\Local\Temp\ccNy8eXk.s:24583  .debug_str:000000000000dde4 .LASF2085
C:\Users\CYMR90~1\AppData\Local\Temp\ccNy8eXk.s:23081  .debug_str:0000000000007c40 .LASF2086
C:\Users\CYMR90~1\AppData\Local\Temp\ccNy8eXk.s:30662  .debug_str:00000000000260de .LASF2087
C:\Users\CYMR90~1\AppData\Local\Temp\ccNy8eXk.s:24755  .debug_str:000000000000e87e .LASF2088
C:\Users\CYMR90~1\AppData\Local\Temp\ccNy8eXk.s:26679  .debug_str:000000000001619a .LASF2089
C:\Users\CYMR90~1\AppData\Local\Temp\ccNy8eXk.s:22183  .debug_str:00000000000043bb .LASF2090
C:\Users\CYMR90~1\AppData\Local\Temp\ccNy8eXk.s:25041  .debug_str:000000000000f9f3 .LASF2091
C:\Users\CYMR90~1\AppData\Local\Temp\ccNy8eXk.s:31922  .debug_str:000000000002afd2 .LASF2092
C:\Users\CYMR90~1\AppData\Local\Temp\ccNy8eXk.s:28748  .debug_str:000000000001e8f6 .LASF2093
C:\Users\CYMR90~1\AppData\Local\Temp\ccNy8eXk.s:23571  .debug_str:0000000000009c3d .LASF2094
C:\Users\CYMR90~1\AppData\Local\Temp\ccNy8eXk.s:27738  .debug_str:000000000001a8b0 .LASF2095
C:\Users\CYMR90~1\AppData\Local\Temp\ccNy8eXk.s:22121  .debug_str:0000000000003f30 .LASF2096
C:\Users\CYMR90~1\AppData\Local\Temp\ccNy8eXk.s:23671  .debug_str:000000000000a24f .LASF2097
C:\Users\CYMR90~1\AppData\Local\Temp\ccNy8eXk.s:28830  .debug_str:000000000001eda0 .LASF2098
C:\Users\CYMR90~1\AppData\Local\Temp\ccNy8eXk.s:22039  .debug_str:0000000000003a0b .LASF2099
C:\Users\CYMR90~1\AppData\Local\Temp\ccNy8eXk.s:25495  .debug_str:00000000000115e4 .LASF2100
C:\Users\CYMR90~1\AppData\Local\Temp\ccNy8eXk.s:21809  .debug_str:0000000000002bbc .LASF2101
C:\Users\CYMR90~1\AppData\Local\Temp\ccNy8eXk.s:23029  .debug_str:00000000000078d6 .LASF2102
C:\Users\CYMR90~1\AppData\Local\Temp\ccNy8eXk.s:26369  .debug_str:0000000000014e68 .LASF2103
C:\Users\CYMR90~1\AppData\Local\Temp\ccNy8eXk.s:23303  .debug_str:0000000000008b57 .LASF2104
C:\Users\CYMR90~1\AppData\Local\Temp\ccNy8eXk.s:29194  .debug_str:0000000000020402 .LASF2105
C:\Users\CYMR90~1\AppData\Local\Temp\ccNy8eXk.s:23813  .debug_str:000000000000abbe .LASF2106
C:\Users\CYMR90~1\AppData\Local\Temp\ccNy8eXk.s:29712  .debug_str:0000000000022366 .LASF2107
C:\Users\CYMR90~1\AppData\Local\Temp\ccNy8eXk.s:29030  .debug_str:000000000001f9ec .LASF2108
C:\Users\CYMR90~1\AppData\Local\Temp\ccNy8eXk.s:30236  .debug_str:0000000000024397 .LASF2109
C:\Users\CYMR90~1\AppData\Local\Temp\ccNy8eXk.s:30812  .debug_str:00000000000269ea .LASF2110
C:\Users\CYMR90~1\AppData\Local\Temp\ccNy8eXk.s:30646  .debug_str:0000000000025fa9 .LASF2111
C:\Users\CYMR90~1\AppData\Local\Temp\ccNy8eXk.s:30286  .debug_str:00000000000246fa .LASF2112
C:\Users\CYMR90~1\AppData\Local\Temp\ccNy8eXk.s:29328  .debug_str:0000000000020c60 .LASF2113
C:\Users\CYMR90~1\AppData\Local\Temp\ccNy8eXk.s:25217  .debug_str:00000000000104d4 .LASF2114
C:\Users\CYMR90~1\AppData\Local\Temp\ccNy8eXk.s:27364  .debug_str:0000000000018e6b .LASF2115
C:\Users\CYMR90~1\AppData\Local\Temp\ccNy8eXk.s:29174  .debug_str:0000000000020287 .LASF2116
C:\Users\CYMR90~1\AppData\Local\Temp\ccNy8eXk.s:24089  .debug_str:000000000000be6d .LASF2117
C:\Users\CYMR90~1\AppData\Local\Temp\ccNy8eXk.s:22809  .debug_str:0000000000006aae .LASF2118
C:\Users\CYMR90~1\AppData\Local\Temp\ccNy8eXk.s:32108  .debug_str:000000000002bbb9 .LASF2119
C:\Users\CYMR90~1\AppData\Local\Temp\ccNy8eXk.s:32194  .debug_str:000000000002c18d .LASF2120
C:\Users\CYMR90~1\AppData\Local\Temp\ccNy8eXk.s:26107  .debug_str:0000000000013dfa .LASF2121
C:\Users\CYMR90~1\AppData\Local\Temp\ccNy8eXk.s:23773  .debug_str:000000000000a896 .LASF2122
C:\Users\CYMR90~1\AppData\Local\Temp\ccNy8eXk.s:27982  .debug_str:000000000001b80f .LASF2123
C:\Users\CYMR90~1\AppData\Local\Temp\ccNy8eXk.s:27290  .debug_str:0000000000018976 .LASF2124
C:\Users\CYMR90~1\AppData\Local\Temp\ccNy8eXk.s:31954  .debug_str:000000000002b194 .LASF2125
C:\Users\CYMR90~1\AppData\Local\Temp\ccNy8eXk.s:28528  .debug_str:000000000001db48 .LASF2126
C:\Users\CYMR90~1\AppData\Local\Temp\ccNy8eXk.s:27378  .debug_str:0000000000018f73 .LASF2127
C:\Users\CYMR90~1\AppData\Local\Temp\ccNy8eXk.s:25791  .debug_str:00000000000129a9 .LASF2128
C:\Users\CYMR90~1\AppData\Local\Temp\ccNy8eXk.s:28024  .debug_str:000000000001ba37 .LASF2129
C:\Users\CYMR90~1\AppData\Local\Temp\ccNy8eXk.s:30638  .debug_str:0000000000025f3b .LASF2130
C:\Users\CYMR90~1\AppData\Local\Temp\ccNy8eXk.s:21145  .debug_str:000000000000029d .LASF2131
C:\Users\CYMR90~1\AppData\Local\Temp\ccNy8eXk.s:22259  .debug_str:00000000000048cd .LASF2132
C:\Users\CYMR90~1\AppData\Local\Temp\ccNy8eXk.s:27566  .debug_str:0000000000019c5f .LASF2133
C:\Users\CYMR90~1\AppData\Local\Temp\ccNy8eXk.s:26846  .debug_str:0000000000016e94 .LASF2134
C:\Users\CYMR90~1\AppData\Local\Temp\ccNy8eXk.s:28576  .debug_str:000000000001dea2 .LASF2135
C:\Users\CYMR90~1\AppData\Local\Temp\ccNy8eXk.s:22225  .debug_str:000000000000468d .LASF2136
C:\Users\CYMR90~1\AppData\Local\Temp\ccNy8eXk.s:28804  .debug_str:000000000001ec09 .LASF2137
C:\Users\CYMR90~1\AppData\Local\Temp\ccNy8eXk.s:21525  .debug_str:0000000000001a76 .LASF2138
C:\Users\CYMR90~1\AppData\Local\Temp\ccNy8eXk.s:27554  .debug_str:0000000000019bb7 .LASF2139
C:\Users\CYMR90~1\AppData\Local\Temp\ccNy8eXk.s:24253  .debug_str:000000000000c95c .LASF2140
C:\Users\CYMR90~1\AppData\Local\Temp\ccNy8eXk.s:22471  .debug_str:0000000000005637 .LASF2141
C:\Users\CYMR90~1\AppData\Local\Temp\ccNy8eXk.s:32144  .debug_str:000000000002be0e .LASF2142
C:\Users\CYMR90~1\AppData\Local\Temp\ccNy8eXk.s:24729  .debug_str:000000000000e6bc .LASF2143
C:\Users\CYMR90~1\AppData\Local\Temp\ccNy8eXk.s:29450  .debug_str:00000000000213d7 .LASF2144
C:\Users\CYMR90~1\AppData\Local\Temp\ccNy8eXk.s:28484  .debug_str:000000000001d8a8 .LASF2145
C:\Users\CYMR90~1\AppData\Local\Temp\ccNy8eXk.s:28412  .debug_str:000000000001d3d0 .LASF2146
C:\Users\CYMR90~1\AppData\Local\Temp\ccNy8eXk.s:21583  .debug_str:0000000000001e1b .LASF2147
C:\Users\CYMR90~1\AppData\Local\Temp\ccNy8eXk.s:29470  .debug_str:00000000000214f8 .LASF2148
C:\Users\CYMR90~1\AppData\Local\Temp\ccNy8eXk.s:31020  .debug_str:00000000000276fe .LASF2149
C:\Users\CYMR90~1\AppData\Local\Temp\ccNy8eXk.s:25633  .debug_str:0000000000011f5c .LASF2150
C:\Users\CYMR90~1\AppData\Local\Temp\ccNy8eXk.s:26854  .debug_str:0000000000016f19 .LASF2151
C:\Users\CYMR90~1\AppData\Local\Temp\ccNy8eXk.s:23763  .debug_str:000000000000a7b3 .LASF2152
C:\Users\CYMR90~1\AppData\Local\Temp\ccNy8eXk.s:26433  .debug_str:0000000000015286 .LASF2153
C:\Users\CYMR90~1\AppData\Local\Temp\ccNy8eXk.s:21955  .debug_str:000000000000350c .LASF2154
C:\Users\CYMR90~1\AppData\Local\Temp\ccNy8eXk.s:28824  .debug_str:000000000001ed46 .LASF2155
C:\Users\CYMR90~1\AppData\Local\Temp\ccNy8eXk.s:27960  .debug_str:000000000001b69a .LASF2156
C:\Users\CYMR90~1\AppData\Local\Temp\ccNy8eXk.s:27010  .debug_str:000000000001784b .LASF2157
C:\Users\CYMR90~1\AppData\Local\Temp\ccNy8eXk.s:30244  .debug_str:0000000000024430 .LASF2158
C:\Users\CYMR90~1\AppData\Local\Temp\ccNy8eXk.s:25797  .debug_str:0000000000012a06 .LASF2159
C:\Users\CYMR90~1\AppData\Local\Temp\ccNy8eXk.s:24531  .debug_str:000000000000daed .LASF2160
C:\Users\CYMR90~1\AppData\Local\Temp\ccNy8eXk.s:23289  .debug_str:0000000000008a63 .LASF2161
C:\Users\CYMR90~1\AppData\Local\Temp\ccNy8eXk.s:25195  .debug_str:0000000000010393 .LASF2162
C:\Users\CYMR90~1\AppData\Local\Temp\ccNy8eXk.s:28226  .debug_str:000000000001c6a9 .LASF2163
C:\Users\CYMR90~1\AppData\Local\Temp\ccNy8eXk.s:25483  .debug_str:0000000000011514 .LASF2164
C:\Users\CYMR90~1\AppData\Local\Temp\ccNy8eXk.s:25709  .debug_str:000000000001244e .LASF2165
C:\Users\CYMR90~1\AppData\Local\Temp\ccNy8eXk.s:25389  .debug_str:0000000000010f5b .LASF2166
C:\Users\CYMR90~1\AppData\Local\Temp\ccNy8eXk.s:28210  .debug_str:000000000001c584 .LASF2167
C:\Users\CYMR90~1\AppData\Local\Temp\ccNy8eXk.s:21643  .debug_str:000000000000216a .LASF2168
C:\Users\CYMR90~1\AppData\Local\Temp\ccNy8eXk.s:24777  .debug_str:000000000000e9b7 .LASF2169
C:\Users\CYMR90~1\AppData\Local\Temp\ccNy8eXk.s:28596  .debug_str:000000000001dffa .LASF2170
C:\Users\CYMR90~1\AppData\Local\Temp\ccNy8eXk.s:27652  .debug_str:000000000001a151 .LASF2171
C:\Users\CYMR90~1\AppData\Local\Temp\ccNy8eXk.s:24619  .debug_str:000000000000e031 .LASF2172
C:\Users\CYMR90~1\AppData\Local\Temp\ccNy8eXk.s:23969  .debug_str:000000000000b666 .LASF2173
C:\Users\CYMR90~1\AppData\Local\Temp\ccNy8eXk.s:27018  .debug_str:0000000000017905 .LASF2174
C:\Users\CYMR90~1\AppData\Local\Temp\ccNy8eXk.s:31874  .debug_str:000000000002acfa .LASF2175
C:\Users\CYMR90~1\AppData\Local\Temp\ccNy8eXk.s:22281  .debug_str:0000000000004ab1 .LASF2176
C:\Users\CYMR90~1\AppData\Local\Temp\ccNy8eXk.s:28112  .debug_str:000000000001bfe4 .LASF2177
C:\Users\CYMR90~1\AppData\Local\Temp\ccNy8eXk.s:28508  .debug_str:000000000001da2a .LASF2178
C:\Users\CYMR90~1\AppData\Local\Temp\ccNy8eXk.s:26325  .debug_str:0000000000014b8d .LASF2179
C:\Users\CYMR90~1\AppData\Local\Temp\ccNy8eXk.s:31230  .debug_str:0000000000028589 .LASF2180
C:\Users\CYMR90~1\AppData\Local\Temp\ccNy8eXk.s:27860  .debug_str:000000000001b07a .LASF2181
C:\Users\CYMR90~1\AppData\Local\Temp\ccNy8eXk.s:24537  .debug_str:000000000000db58 .LASF2182
C:\Users\CYMR90~1\AppData\Local\Temp\ccNy8eXk.s:22051  .debug_str:0000000000003ae1 .LASF2183
C:\Users\CYMR90~1\AppData\Local\Temp\ccNy8eXk.s:21317  .debug_str:0000000000000d6d .LASF2184
C:\Users\CYMR90~1\AppData\Local\Temp\ccNy8eXk.s:31082  .debug_str:0000000000027acf .LASF2185
C:\Users\CYMR90~1\AppData\Local\Temp\ccNy8eXk.s:29454  .debug_str:0000000000021415 .LASF2186
C:\Users\CYMR90~1\AppData\Local\Temp\ccNy8eXk.s:22475  .debug_str:000000000000566b .LASF2187
C:\Users\CYMR90~1\AppData\Local\Temp\ccNy8eXk.s:27588  .debug_str:0000000000019dcf .LASF2188
C:\Users\CYMR90~1\AppData\Local\Temp\ccNy8eXk.s:26906  .debug_str:0000000000017230 .LASF2189
C:\Users\CYMR90~1\AppData\Local\Temp\ccNy8eXk.s:28284  .debug_str:000000000001cab3 .LASF2190
C:\Users\CYMR90~1\AppData\Local\Temp\ccNy8eXk.s:27816  .debug_str:000000000001ad6a .LASF2191
C:\Users\CYMR90~1\AppData\Local\Temp\ccNy8eXk.s:31002  .debug_str:000000000002760a .LASF2192
C:\Users\CYMR90~1\AppData\Local\Temp\ccNy8eXk.s:25393  .debug_str:0000000000010f8f .LASF2193
C:\Users\CYMR90~1\AppData\Local\Temp\ccNy8eXk.s:29610  .debug_str:0000000000021d88 .LASF2194
C:\Users\CYMR90~1\AppData\Local\Temp\ccNy8eXk.s:31540  .debug_str:0000000000029953 .LASF2195
C:\Users\CYMR90~1\AppData\Local\Temp\ccNy8eXk.s:25601  .debug_str:0000000000011d60 .LASF2196
C:\Users\CYMR90~1\AppData\Local\Temp\ccNy8eXk.s:32006  .debug_str:000000000002b4f2 .LASF2197
C:\Users\CYMR90~1\AppData\Local\Temp\ccNy8eXk.s:28692  .debug_str:000000000001e579 .LASF2198
C:\Users\CYMR90~1\AppData\Local\Temp\ccNy8eXk.s:22367  .debug_str:0000000000004fdb .LASF2199
C:\Users\CYMR90~1\AppData\Local\Temp\ccNy8eXk.s:31402  .debug_str:0000000000029042 .LASF2200
C:\Users\CYMR90~1\AppData\Local\Temp\ccNy8eXk.s:31970  .debug_str:000000000002b27d .LASF2201
C:\Users\CYMR90~1\AppData\Local\Temp\ccNy8eXk.s:24599  .debug_str:000000000000df01 .LASF2202
C:\Users\CYMR90~1\AppData\Local\Temp\ccNy8eXk.s:24571  .debug_str:000000000000dd14 .LASF2203
C:\Users\CYMR90~1\AppData\Local\Temp\ccNy8eXk.s:23947  .debug_str:000000000000b49a .LASF2204
C:\Users\CYMR90~1\AppData\Local\Temp\ccNy8eXk.s:26121  .debug_str:0000000000013eeb .LASF2205
C:\Users\CYMR90~1\AppData\Local\Temp\ccNy8eXk.s:31244  .debug_str:000000000002867e .LASF2206
C:\Users\CYMR90~1\AppData\Local\Temp\ccNy8eXk.s:24929  .debug_str:000000000000f2a7 .LASF2207
C:\Users\CYMR90~1\AppData\Local\Temp\ccNy8eXk.s:28058  .debug_str:000000000001bc77 .LASF2208
C:\Users\CYMR90~1\AppData\Local\Temp\ccNy8eXk.s:30378  .debug_str:0000000000024d0c .LASF2209
C:\Users\CYMR90~1\AppData\Local\Temp\ccNy8eXk.s:24529  .debug_str:000000000000dac6 .LASF2210
C:\Users\CYMR90~1\AppData\Local\Temp\ccNy8eXk.s:29504  .debug_str:00000000000216e0 .LASF2211
C:\Users\CYMR90~1\AppData\Local\Temp\ccNy8eXk.s:21397  .debug_str:000000000000126a .LASF2212
C:\Users\CYMR90~1\AppData\Local\Temp\ccNy8eXk.s:27762  .debug_str:000000000001aa13 .LASF2213
C:\Users\CYMR90~1\AppData\Local\Temp\ccNy8eXk.s:28246  .debug_str:000000000001c87a .LASF2214
C:\Users\CYMR90~1\AppData\Local\Temp\ccNy8eXk.s:21903  .debug_str:0000000000003199 .LASF2215
C:\Users\CYMR90~1\AppData\Local\Temp\ccNy8eXk.s:30660  .debug_str:00000000000260b5 .LASF2216
C:\Users\CYMR90~1\AppData\Local\Temp\ccNy8eXk.s:31476  .debug_str:0000000000029537 .LASF2217
C:\Users\CYMR90~1\AppData\Local\Temp\ccNy8eXk.s:29270  .debug_str:00000000000208fa .LASF2218
C:\Users\CYMR90~1\AppData\Local\Temp\ccNy8eXk.s:31196  .debug_str:00000000000282c8 .LASF2219
C:\Users\CYMR90~1\AppData\Local\Temp\ccNy8eXk.s:22989  .debug_str:000000000000765e .LASF2220
C:\Users\CYMR90~1\AppData\Local\Temp\ccNy8eXk.s:29280  .debug_str:0000000000020996 .LASF2221
C:\Users\CYMR90~1\AppData\Local\Temp\ccNy8eXk.s:23049  .debug_str:0000000000007a13 .LASF2222
C:\Users\CYMR90~1\AppData\Local\Temp\ccNy8eXk.s:28076  .debug_str:000000000001bd92 .LASF2223
C:\Users\CYMR90~1\AppData\Local\Temp\ccNy8eXk.s:31240  .debug_str:000000000002863d .LASF2224
C:\Users\CYMR90~1\AppData\Local\Temp\ccNy8eXk.s:24813  .debug_str:000000000000ebf3 .LASF2225
C:\Users\CYMR90~1\AppData\Local\Temp\ccNy8eXk.s:22293  .debug_str:0000000000004b6d .LASF2226
C:\Users\CYMR90~1\AppData\Local\Temp\ccNy8eXk.s:24331  .debug_str:000000000000ce17 .LASF2227
C:\Users\CYMR90~1\AppData\Local\Temp\ccNy8eXk.s:32464  .debug_str:000000000002d32a .LASF2228
C:\Users\CYMR90~1\AppData\Local\Temp\ccNy8eXk.s:22665  .debug_str:000000000000621b .LASF2229
C:\Users\CYMR90~1\AppData\Local\Temp\ccNy8eXk.s:26283  .debug_str:000000000001490a .LASF2230
C:\Users\CYMR90~1\AppData\Local\Temp\ccNy8eXk.s:32034  .debug_str:000000000002b6ab .LASF2231
C:\Users\CYMR90~1\AppData\Local\Temp\ccNy8eXk.s:23739  .debug_str:000000000000a67f .LASF2232
C:\Users\CYMR90~1\AppData\Local\Temp\ccNy8eXk.s:27252  .debug_str:00000000000186d5 .LASF2233
C:\Users\CYMR90~1\AppData\Local\Temp\ccNy8eXk.s:21677  .debug_str:0000000000002366 .LASF2234
C:\Users\CYMR90~1\AppData\Local\Temp\ccNy8eXk.s:26193  .debug_str:000000000001436c .LASF2235
C:\Users\CYMR90~1\AppData\Local\Temp\ccNy8eXk.s:23043  .debug_str:00000000000079c6 .LASF2236
C:\Users\CYMR90~1\AppData\Local\Temp\ccNy8eXk.s:24189  .debug_str:000000000000c4fe .LASF2237
C:\Users\CYMR90~1\AppData\Local\Temp\ccNy8eXk.s:25237  .debug_str:000000000001060c .LASF2238
C:\Users\CYMR90~1\AppData\Local\Temp\ccNy8eXk.s:29408  .debug_str:00000000000210bb .LASF2239
C:\Users\CYMR90~1\AppData\Local\Temp\ccNy8eXk.s:30838  .debug_str:0000000000026b82 .LASF2240
C:\Users\CYMR90~1\AppData\Local\Temp\ccNy8eXk.s:25249  .debug_str:00000000000106c6 .LASF2241
C:\Users\CYMR90~1\AppData\Local\Temp\ccNy8eXk.s:25643  .debug_str:0000000000012036 .LASF2242
C:\Users\CYMR90~1\AppData\Local\Temp\ccNy8eXk.s:24703  .debug_str:000000000000e528 .LASF2243
C:\Users\CYMR90~1\AppData\Local\Temp\ccNy8eXk.s:22679  .debug_str:0000000000006316 .LASF2244
C:\Users\CYMR90~1\AppData\Local\Temp\ccNy8eXk.s:21723  .debug_str:0000000000002602 .LASF2245
C:\Users\CYMR90~1\AppData\Local\Temp\ccNy8eXk.s:28470  .debug_str:000000000001d7c9 .LASF2246
C:\Users\CYMR90~1\AppData\Local\Temp\ccNy8eXk.s:30720  .debug_str:0000000000026441 .LASF2247
C:\Users\CYMR90~1\AppData\Local\Temp\ccNy8eXk.s:29060  .debug_str:000000000001fbe2 .LASF2248
C:\Users\CYMR90~1\AppData\Local\Temp\ccNy8eXk.s:29076  .debug_str:000000000001fcba .LASF2249
C:\Users\CYMR90~1\AppData\Local\Temp\ccNy8eXk.s:30132  .debug_str:0000000000023ca2 .LASF2250
C:\Users\CYMR90~1\AppData\Local\Temp\ccNy8eXk.s:30944  .debug_str:00000000000271d0 .LASF2251
C:\Users\CYMR90~1\AppData\Local\Temp\ccNy8eXk.s:28174  .debug_str:000000000001c3a8 .LASF2252
C:\Users\CYMR90~1\AppData\Local\Temp\ccNy8eXk.s:28338  .debug_str:000000000001ced4 .LASF2253
C:\Users\CYMR90~1\AppData\Local\Temp\ccNy8eXk.s:23259  .debug_str:0000000000008883 .LASF2254
C:\Users\CYMR90~1\AppData\Local\Temp\ccNy8eXk.s:26001  .debug_str:00000000000137e8 .LASF2255
C:\Users\CYMR90~1\AppData\Local\Temp\ccNy8eXk.s:29556  .debug_str:00000000000219f8 .LASF2256
C:\Users\CYMR90~1\AppData\Local\Temp\ccNy8eXk.s:31838  .debug_str:000000000002aae1 .LASF2257
C:\Users\CYMR90~1\AppData\Local\Temp\ccNy8eXk.s:30364  .debug_str:0000000000024c28 .LASF2258
C:\Users\CYMR90~1\AppData\Local\Temp\ccNy8eXk.s:22835  .debug_str:0000000000006c3b .LASF2259
C:\Users\CYMR90~1\AppData\Local\Temp\ccNy8eXk.s:25151  .debug_str:00000000000100a6 .LASF2260
C:\Users\CYMR90~1\AppData\Local\Temp\ccNy8eXk.s:22781  .debug_str:00000000000068bc .LASF2261
C:\Users\CYMR90~1\AppData\Local\Temp\ccNy8eXk.s:32252  .debug_str:000000000002c5bb .LASF2262
C:\Users\CYMR90~1\AppData\Local\Temp\ccNy8eXk.s:31664  .debug_str:000000000002a078 .LASF2263
C:\Users\CYMR90~1\AppData\Local\Temp\ccNy8eXk.s:24441  .debug_str:000000000000d5c9 .LASF2264
C:\Users\CYMR90~1\AppData\Local\Temp\ccNy8eXk.s:23487  .debug_str:00000000000096b7 .LASF2265
C:\Users\CYMR90~1\AppData\Local\Temp\ccNy8eXk.s:22045  .debug_str:0000000000003a94 .LASF2266
C:\Users\CYMR90~1\AppData\Local\Temp\ccNy8eXk.s:25163  .debug_str:000000000001017f .LASF2267
C:\Users\CYMR90~1\AppData\Local\Temp\ccNy8eXk.s:23927  .debug_str:000000000000b3a5 .LASF2268
C:\Users\CYMR90~1\AppData\Local\Temp\ccNy8eXk.s:22711  .debug_str:00000000000064d9 .LASF2269
C:\Users\CYMR90~1\AppData\Local\Temp\ccNy8eXk.s:30138  .debug_str:0000000000023cf2 .LASF2270
C:\Users\CYMR90~1\AppData\Local\Temp\ccNy8eXk.s:29288  .debug_str:0000000000020a11 .LASF2271
C:\Users\CYMR90~1\AppData\Local\Temp\ccNy8eXk.s:25703  .debug_str:00000000000123ed .LASF2272
C:\Users\CYMR90~1\AppData\Local\Temp\ccNy8eXk.s:30398  .debug_str:0000000000024e95 .LASF2273
C:\Users\CYMR90~1\AppData\Local\Temp\ccNy8eXk.s:31016  .debug_str:00000000000276d1 .LASF2274
C:\Users\CYMR90~1\AppData\Local\Temp\ccNy8eXk.s:23471  .debug_str:000000000000957d .LASF2275
C:\Users\CYMR90~1\AppData\Local\Temp\ccNy8eXk.s:24807  .debug_str:000000000000eb9c .LASF2276
C:\Users\CYMR90~1\AppData\Local\Temp\ccNy8eXk.s:22845  .debug_str:0000000000006cf8 .LASF2277
C:\Users\CYMR90~1\AppData\Local\Temp\ccNy8eXk.s:25213  .debug_str:000000000001049b .LASF2278
C:\Users\CYMR90~1\AppData\Local\Temp\ccNy8eXk.s:32124  .debug_str:000000000002bcb7 .LASF2279
C:\Users\CYMR90~1\AppData\Local\Temp\ccNy8eXk.s:30788  .debug_str:0000000000026886 .LASF2280
C:\Users\CYMR90~1\AppData\Local\Temp\ccNy8eXk.s:21255  .debug_str:000000000000096e .LASF2281
C:\Users\CYMR90~1\AppData\Local\Temp\ccNy8eXk.s:25605  .debug_str:0000000000011db5 .LASF2282
C:\Users\CYMR90~1\AppData\Local\Temp\ccNy8eXk.s:28768  .debug_str:000000000001ea21 .LASF2283
C:\Users\CYMR90~1\AppData\Local\Temp\ccNy8eXk.s:32066  .debug_str:000000000002b926 .LASF2284
C:\Users\CYMR90~1\AppData\Local\Temp\ccNy8eXk.s:23929  .debug_str:000000000000b3ca .LASF2285
C:\Users\CYMR90~1\AppData\Local\Temp\ccNy8eXk.s:22887  .debug_str:0000000000006fb8 .LASF2286
C:\Users\CYMR90~1\AppData\Local\Temp\ccNy8eXk.s:30356  .debug_str:0000000000024ba5 .LASF2287
C:\Users\CYMR90~1\AppData\Local\Temp\ccNy8eXk.s:30092  .debug_str:0000000000023a5c .LASF2288
C:\Users\CYMR90~1\AppData\Local\Temp\ccNy8eXk.s:25379  .debug_str:0000000000010f00 .LASF2289
C:\Users\CYMR90~1\AppData\Local\Temp\ccNy8eXk.s:28548  .debug_str:000000000001dc86 .LASF2290
C:\Users\CYMR90~1\AppData\Local\Temp\ccNy8eXk.s:31808  .debug_str:000000000002a952 .LASF2291
C:\Users\CYMR90~1\AppData\Local\Temp\ccNy8eXk.s:21557  .debug_str:0000000000001c97 .LASF2292
C:\Users\CYMR90~1\AppData\Local\Temp\ccNy8eXk.s:26293  .debug_str:0000000000014995 .LASF2293
C:\Users\CYMR90~1\AppData\Local\Temp\ccNy8eXk.s:31018  .debug_str:00000000000276e3 .LASF2294
C:\Users\CYMR90~1\AppData\Local\Temp\ccNy8eXk.s:27916  .debug_str:000000000001b401 .LASF2295
C:\Users\CYMR90~1\AppData\Local\Temp\ccNy8eXk.s:29068  .debug_str:000000000001fc5a .LASF2296
C:\Users\CYMR90~1\AppData\Local\Temp\ccNy8eXk.s:22445  .debug_str:0000000000005497 .LASF2297
C:\Users\CYMR90~1\AppData\Local\Temp\ccNy8eXk.s:27178  .debug_str:000000000001829c .LASF2298
C:\Users\CYMR90~1\AppData\Local\Temp\ccNy8eXk.s:31908  .debug_str:000000000002af14 .LASF2299
C:\Users\CYMR90~1\AppData\Local\Temp\ccNy8eXk.s:28032  .debug_str:000000000001babf .LASF2300
C:\Users\CYMR90~1\AppData\Local\Temp\ccNy8eXk.s:31076  .debug_str:0000000000027a6a .LASF2301
C:\Users\CYMR90~1\AppData\Local\Temp\ccNy8eXk.s:21743  .debug_str:0000000000002783 .LASF2302
C:\Users\CYMR90~1\AppData\Local\Temp\ccNy8eXk.s:29124  .debug_str:000000000001ffd5 .LASF2303
C:\Users\CYMR90~1\AppData\Local\Temp\ccNy8eXk.s:22495  .debug_str:0000000000005765 .LASF2304
C:\Users\CYMR90~1\AppData\Local\Temp\ccNy8eXk.s:27232  .debug_str:00000000000185d9 .LASF2305
C:\Users\CYMR90~1\AppData\Local\Temp\ccNy8eXk.s:31966  .debug_str:000000000002b24c .LASF2306
C:\Users\CYMR90~1\AppData\Local\Temp\ccNy8eXk.s:31842  .debug_str:000000000002ab19 .LASF2307
C:\Users\CYMR90~1\AppData\Local\Temp\ccNy8eXk.s:23713  .debug_str:000000000000a4fc .LASF2308
C:\Users\CYMR90~1\AppData\Local\Temp\ccNy8eXk.s:26922  .debug_str:000000000001732c .LASF2309
C:\Users\CYMR90~1\AppData\Local\Temp\ccNy8eXk.s:30142  .debug_str:0000000000023d23 .LASF2310
C:\Users\CYMR90~1\AppData\Local\Temp\ccNy8eXk.s:21993  .debug_str:0000000000003734 .LASF2311
C:\Users\CYMR90~1\AppData\Local\Temp\ccNy8eXk.s:25257  .debug_str:000000000001076a .LASF2312
C:\Users\CYMR90~1\AppData\Local\Temp\ccNy8eXk.s:28442  .debug_str:000000000001d5ed .LASF2313
C:\Users\CYMR90~1\AppData\Local\Temp\ccNy8eXk.s:25453  .debug_str:0000000000011321 .LASF2314
C:\Users\CYMR90~1\AppData\Local\Temp\ccNy8eXk.s:26047  .debug_str:0000000000013a8c .LASF2315
C:\Users\CYMR90~1\AppData\Local\Temp\ccNy8eXk.s:24431  .debug_str:000000000000d522 .LASF2316
C:\Users\CYMR90~1\AppData\Local\Temp\ccNy8eXk.s:27806  .debug_str:000000000001acc7 .LASF2317
C:\Users\CYMR90~1\AppData\Local\Temp\ccNy8eXk.s:21139  .debug_str:0000000000000241 .LASF2318
C:\Users\CYMR90~1\AppData\Local\Temp\ccNy8eXk.s:27834  .debug_str:000000000001ae7f .LASF2319
C:\Users\CYMR90~1\AppData\Local\Temp\ccNy8eXk.s:30562  .debug_str:0000000000025aaa .LASF2320
C:\Users\CYMR90~1\AppData\Local\Temp\ccNy8eXk.s:23963  .debug_str:000000000000b59d .LASF2321
C:\Users\CYMR90~1\AppData\Local\Temp\ccNy8eXk.s:28614  .debug_str:000000000001e0f4 .LASF2322
C:\Users\CYMR90~1\AppData\Local\Temp\ccNy8eXk.s:24283  .debug_str:000000000000cb84 .LASF2323
C:\Users\CYMR90~1\AppData\Local\Temp\ccNy8eXk.s:26725  .debug_str:0000000000016424 .LASF2324
C:\Users\CYMR90~1\AppData\Local\Temp\ccNy8eXk.s:28826  .debug_str:000000000001ed75 .LASF2325
C:\Users\CYMR90~1\AppData\Local\Temp\ccNy8eXk.s:25923  .debug_str:0000000000013222 .LASF2326
C:\Users\CYMR90~1\AppData\Local\Temp\ccNy8eXk.s:30614  .debug_str:0000000000025dcb .LASF2327
C:\Users\CYMR90~1\AppData\Local\Temp\ccNy8eXk.s:30196  .debug_str:0000000000024065 .LASF2328
C:\Users\CYMR90~1\AppData\Local\Temp\ccNy8eXk.s:28664  .debug_str:000000000001e3b5 .LASF2329
C:\Users\CYMR90~1\AppData\Local\Temp\ccNy8eXk.s:22041  .debug_str:0000000000003a49 .LASF2330
C:\Users\CYMR90~1\AppData\Local\Temp\ccNy8eXk.s:26783  .debug_str:0000000000016819 .LASF2331
C:\Users\CYMR90~1\AppData\Local\Temp\ccNy8eXk.s:23843  .debug_str:000000000000ada8 .LASF2332
C:\Users\CYMR90~1\AppData\Local\Temp\ccNy8eXk.s:26950  .debug_str:000000000001748b .LASF2333
C:\Users\CYMR90~1\AppData\Local\Temp\ccNy8eXk.s:30182  .debug_str:0000000000023fb4 .LASF2334
C:\Users\CYMR90~1\AppData\Local\Temp\ccNy8eXk.s:22025  .debug_str:0000000000003944 .LASF2335
C:\Users\CYMR90~1\AppData\Local\Temp\ccNy8eXk.s:25291  .debug_str:000000000001094a .LASF2336
C:\Users\CYMR90~1\AppData\Local\Temp\ccNy8eXk.s:25535  .debug_str:0000000000011919 .LASF2337
C:\Users\CYMR90~1\AppData\Local\Temp\ccNy8eXk.s:31732  .debug_str:000000000002a461 .LASF2338
C:\Users\CYMR90~1\AppData\Local\Temp\ccNy8eXk.s:22233  .debug_str:0000000000004720 .LASF2339
C:\Users\CYMR90~1\AppData\Local\Temp\ccNy8eXk.s:30986  .debug_str:0000000000027528 .LASF2340
C:\Users\CYMR90~1\AppData\Local\Temp\ccNy8eXk.s:29934  .debug_str:0000000000023076 .LASF2341
C:\Users\CYMR90~1\AppData\Local\Temp\ccNy8eXk.s:31300  .debug_str:0000000000028a43 .LASF2342
C:\Users\CYMR90~1\AppData\Local\Temp\ccNy8eXk.s:24675  .debug_str:000000000000e39a .LASF2343
C:\Users\CYMR90~1\AppData\Local\Temp\ccNy8eXk.s:29348  .debug_str:0000000000020d84 .LASF2344
C:\Users\CYMR90~1\AppData\Local\Temp\ccNy8eXk.s:22735  .debug_str:0000000000006638 .LASF2345
C:\Users\CYMR90~1\AppData\Local\Temp\ccNy8eXk.s:27470  .debug_str:00000000000195d3 .LASF2346
C:\Users\CYMR90~1\AppData\Local\Temp\ccNy8eXk.s:27850  .debug_str:000000000001afe9 .LASF2347
C:\Users\CYMR90~1\AppData\Local\Temp\ccNy8eXk.s:25543  .debug_str:0000000000011986 .LASF2348
C:\Users\CYMR90~1\AppData\Local\Temp\ccNy8eXk.s:30254  .debug_str:0000000000024513 .LASF2349
C:\Users\CYMR90~1\AppData\Local\Temp\ccNy8eXk.s:24141  .debug_str:000000000000c22e .LASF2350
C:\Users\CYMR90~1\AppData\Local\Temp\ccNy8eXk.s:29402  .debug_str:0000000000021050 .LASF2351
C:\Users\CYMR90~1\AppData\Local\Temp\ccNy8eXk.s:22785  .debug_str:00000000000068f5 .LASF2352
C:\Users\CYMR90~1\AppData\Local\Temp\ccNy8eXk.s:27520  .debug_str:000000000001997f .LASF2353
C:\Users\CYMR90~1\AppData\Local\Temp\ccNy8eXk.s:32248  .debug_str:000000000002c57c .LASF2354
C:\Users\CYMR90~1\AppData\Local\Temp\ccNy8eXk.s:25597  .debug_str:0000000000011d12 .LASF2355
C:\Users\CYMR90~1\AppData\Local\Temp\ccNy8eXk.s:25513  .debug_str:0000000000011725 .LASF2356
C:\Users\CYMR90~1\AppData\Local\Temp\ccNy8eXk.s:29090  .debug_str:000000000001fdbb .LASF2357
C:\Users\CYMR90~1\AppData\Local\Temp\ccNy8eXk.s:30416  .debug_str:0000000000024fa4 .LASF2358
C:\Users\CYMR90~1\AppData\Local\Temp\ccNy8eXk.s:28738  .debug_str:000000000001e868 .LASF2359
C:\Users\CYMR90~1\AppData\Local\Temp\ccNy8eXk.s:27142  .debug_str:000000000001805e .LASF2360
C:\Users\CYMR90~1\AppData\Local\Temp\ccNy8eXk.s:30564  .debug_str:0000000000025ac3 .LASF2361
C:\Users\CYMR90~1\AppData\Local\Temp\ccNy8eXk.s:22419  .debug_str:00000000000052f1 .LASF2362
C:\Users\CYMR90~1\AppData\Local\Temp\ccNy8eXk.s:25675  .debug_str:0000000000012234 .LASF2363
C:\Users\CYMR90~1\AppData\Local\Temp\ccNy8eXk.s:28834  .debug_str:000000000001edf1 .LASF2364
C:\Users\CYMR90~1\AppData\Local\Temp\ccNy8eXk.s:30346  .debug_str:0000000000024b1b .LASF2365
C:\Users\CYMR90~1\AppData\Local\Temp\ccNy8eXk.s:23911  .debug_str:000000000000b2ca .LASF2366
C:\Users\CYMR90~1\AppData\Local\Temp\ccNy8eXk.s:30266  .debug_str:00000000000245b8 .LASF2367
C:\Users\CYMR90~1\AppData\Local\Temp\ccNy8eXk.s:32062  .debug_str:000000000002b896 .LASF2368
C:\Users\CYMR90~1\AppData\Local\Temp\ccNy8eXk.s:28326  .debug_str:000000000001ce2a .LASF2369
C:\Users\CYMR90~1\AppData\Local\Temp\ccNy8eXk.s:21683  .debug_str:00000000000023b2 .LASF2370
C:\Users\CYMR90~1\AppData\Local\Temp\ccNy8eXk.s:26413  .debug_str:0000000000015149 .LASF2371
C:\Users\CYMR90~1\AppData\Local\Temp\ccNy8eXk.s:31144  .debug_str:0000000000027f2a .LASF2372
C:\Users\CYMR90~1\AppData\Local\Temp\ccNy8eXk.s:24519  .debug_str:000000000000da38 .LASF2373
C:\Users\CYMR90~1\AppData\Local\Temp\ccNy8eXk.s:29190  .debug_str:00000000000203ba .LASF2374
C:\Users\CYMR90~1\AppData\Local\Temp\ccNy8eXk.s:27302  .debug_str:0000000000018a1e .LASF2375
C:\Users\CYMR90~1\AppData\Local\Temp\ccNy8eXk.s:22105  .debug_str:0000000000003e5e .LASF2376
C:\Users\CYMR90~1\AppData\Local\Temp\ccNy8eXk.s:21739  .debug_str:0000000000002746 .LASF2377
C:\Users\CYMR90~1\AppData\Local\Temp\ccNy8eXk.s:26457  .debug_str:00000000000153e1 .LASF2378
C:\Users\CYMR90~1\AppData\Local\Temp\ccNy8eXk.s:31200  .debug_str:00000000000283ac .LASF2379
C:\Users\CYMR90~1\AppData\Local\Temp\ccNy8eXk.s:24575  .debug_str:000000000000dd65 .LASF2380
C:\Users\CYMR90~1\AppData\Local\Temp\ccNy8eXk.s:29246  .debug_str:000000000002076d .LASF2381
C:\Users\CYMR90~1\AppData\Local\Temp\ccNy8eXk.s:31420  .debug_str:0000000000029164 .LASF2382
C:\Users\CYMR90~1\AppData\Local\Temp\ccNy8eXk.s:21887  .debug_str:0000000000003081 .LASF2383
C:\Users\CYMR90~1\AppData\Local\Temp\ccNy8eXk.s:26495  .debug_str:00000000000155df .LASF2384
C:\Users\CYMR90~1\AppData\Local\Temp\ccNy8eXk.s:31186  .debug_str:0000000000028240 .LASF2385
C:\Users\CYMR90~1\AppData\Local\Temp\ccNy8eXk.s:29524  .debug_str:0000000000021820 .LASF2386
C:\Users\CYMR90~1\AppData\Local\Temp\ccNy8eXk.s:27922  .debug_str:000000000001b461 .LASF2387
C:\Users\CYMR90~1\AppData\Local\Temp\ccNy8eXk.s:28038  .debug_str:000000000001bb0a .LASF2388
C:\Users\CYMR90~1\AppData\Local\Temp\ccNy8eXk.s:31274  .debug_str:00000000000288cb .LASF2389
C:\Users\CYMR90~1\AppData\Local\Temp\ccNy8eXk.s:23135  .debug_str:0000000000008029 .LASF2390
C:\Users\CYMR90~1\AppData\Local\Temp\ccNy8eXk.s:26261  .debug_str:00000000000147b2 .LASF2391
C:\Users\CYMR90~1\AppData\Local\Temp\ccNy8eXk.s:25977  .debug_str:000000000001362b .LASF2392
C:\Users\CYMR90~1\AppData\Local\Temp\ccNy8eXk.s:30674  .debug_str:0000000000026196 .LASF2393
C:\Users\CYMR90~1\AppData\Local\Temp\ccNy8eXk.s:24057  .debug_str:000000000000bc35 .LASF2394
C:\Users\CYMR90~1\AppData\Local\Temp\ccNy8eXk.s:28716  .debug_str:000000000001e6c1 .LASF2395
C:\Users\CYMR90~1\AppData\Local\Temp\ccNy8eXk.s:22093  .debug_str:0000000000003d99 .LASF2396
C:\Users\CYMR90~1\AppData\Local\Temp\ccNy8eXk.s:26844  .debug_str:0000000000016e79 .LASF2397
C:\Users\CYMR90~1\AppData\Local\Temp\ccNy8eXk.s:31558  .debug_str:0000000000029a5b .LASF2398
C:\Users\CYMR90~1\AppData\Local\Temp\ccNy8eXk.s:24941  .debug_str:000000000000f35d .LASF2399
C:\Users\CYMR90~1\AppData\Local\Temp\ccNy8eXk.s:22995  .debug_str:00000000000076af .LASF2400
C:\Users\CYMR90~1\AppData\Local\Temp\ccNy8eXk.s:24111  .debug_str:000000000000c014 .LASF2401
C:\Users\CYMR90~1\AppData\Local\Temp\ccNy8eXk.s:28758  .debug_str:000000000001e99c .LASF2402
C:\Users\CYMR90~1\AppData\Local\Temp\ccNy8eXk.s:22147  .debug_str:0000000000004108 .LASF2403
C:\Users\CYMR90~1\AppData\Local\Temp\ccNy8eXk.s:21527  .debug_str:0000000000001a97 .LASF2404
C:\Users\CYMR90~1\AppData\Local\Temp\ccNy8eXk.s:31610  .debug_str:0000000000029d80 .LASF2405
C:\Users\CYMR90~1\AppData\Local\Temp\ccNy8eXk.s:25001  .debug_str:000000000000f707 .LASF2406
C:\Users\CYMR90~1\AppData\Local\Temp\ccNy8eXk.s:24719  .debug_str:000000000000e61f .LASF2407
C:\Users\CYMR90~1\AppData\Local\Temp\ccNy8eXk.s:27932  .debug_str:000000000001b50f .LASF2408
C:\Users\CYMR90~1\AppData\Local\Temp\ccNy8eXk.s:31154  .debug_str:0000000000027fd1 .LASF2409
C:\Users\CYMR90~1\AppData\Local\Temp\ccNy8eXk.s:23013  .debug_str:00000000000077dc .LASF2410
C:\Users\CYMR90~1\AppData\Local\Temp\ccNy8eXk.s:26145  .debug_str:0000000000014060 .LASF2411
C:\Users\CYMR90~1\AppData\Local\Temp\ccNy8eXk.s:29346  .debug_str:0000000000020d71 .LASF2412
C:\Users\CYMR90~1\AppData\Local\Temp\ccNy8eXk.s:31544  .debug_str:0000000000029998 .LASF2413
C:\Users\CYMR90~1\AppData\Local\Temp\ccNy8eXk.s:24483  .debug_str:000000000000d848 .LASF2414
C:\Users\CYMR90~1\AppData\Local\Temp\ccNy8eXk.s:27712  .debug_str:000000000001a65d .LASF2415
C:\Users\CYMR90~1\AppData\Local\Temp\ccNy8eXk.s:30914  .debug_str:0000000000027048 .LASF2416
C:\Users\CYMR90~1\AppData\Local\Temp\ccNy8eXk.s:31242  .debug_str:0000000000028669 .LASF2417
C:\Users\CYMR90~1\AppData\Local\Temp\ccNy8eXk.s:24621  .debug_str:000000000000e051 .LASF2418
C:\Users\CYMR90~1\AppData\Local\Temp\ccNy8eXk.s:29292  .debug_str:0000000000020a40 .LASF2419
C:\Users\CYMR90~1\AppData\Local\Temp\ccNy8eXk.s:22657  .debug_str:0000000000006184 .LASF2420
C:\Users\CYMR90~1\AppData\Local\Temp\ccNy8eXk.s:27406  .debug_str:000000000001922e .LASF2421
C:\Users\CYMR90~1\AppData\Local\Temp\ccNy8eXk.s:28178  .debug_str:000000000001c3e4 .LASF2422
C:\Users\CYMR90~1\AppData\Local\Temp\ccNy8eXk.s:24445  .debug_str:000000000000d608 .LASF2423
C:\Users\CYMR90~1\AppData\Local\Temp\ccNy8eXk.s:30192  .debug_str:0000000000024024 .LASF2424
C:\Users\CYMR90~1\AppData\Local\Temp\ccNy8eXk.s:28266  .debug_str:000000000001c9c9 .LASF2425
C:\Users\CYMR90~1\AppData\Local\Temp\ccNy8eXk.s:29436  .debug_str:0000000000021253 .LASF2426
C:\Users\CYMR90~1\AppData\Local\Temp\ccNy8eXk.s:22815  .debug_str:0000000000006b09 .LASF2427
C:\Users\CYMR90~1\AppData\Local\Temp\ccNy8eXk.s:27544  .debug_str:0000000000019b1f .LASF2428
C:\Users\CYMR90~1\AppData\Local\Temp\ccNy8eXk.s:32276  .debug_str:000000000002c727 .LASF2429
C:\Users\CYMR90~1\AppData\Local\Temp\ccNy8eXk.s:25623  .debug_str:0000000000011eba .LASF2430
C:\Users\CYMR90~1\AppData\Local\Temp\ccNy8eXk.s:30328  .debug_str:0000000000024992 .LASF2431
C:\Users\CYMR90~1\AppData\Local\Temp\ccNy8eXk.s:25833  .debug_str:0000000000012c49 .LASF2432
C:\Users\CYMR90~1\AppData\Local\Temp\ccNy8eXk.s:21975  .debug_str:0000000000003646 .LASF2433
C:\Users\CYMR90~1\AppData\Local\Temp\ccNy8eXk.s:27202  .debug_str:0000000000018400 .LASF2434
C:\Users\CYMR90~1\AppData\Local\Temp\ccNy8eXk.s:23545  .debug_str:0000000000009a9c .LASF2435
C:\Users\CYMR90~1\AppData\Local\Temp\ccNy8eXk.s:32028  .debug_str:000000000002b662 .LASF2436
C:\Users\CYMR90~1\AppData\Local\Temp\ccNy8eXk.s:30634  .debug_str:0000000000025ef8 .LASF2437
C:\Users\CYMR90~1\AppData\Local\Temp\ccNy8eXk.s:26621  .debug_str:0000000000015db9 .LASF2438
C:\Users\CYMR90~1\AppData\Local\Temp\ccNy8eXk.s:26383  .debug_str:0000000000014f87 .LASF2439
C:\Users\CYMR90~1\AppData\Local\Temp\ccNy8eXk.s:26767  .debug_str:0000000000016722 .LASF2440
C:\Users\CYMR90~1\AppData\Local\Temp\ccNy8eXk.s:23609  .debug_str:0000000000009e6a .LASF2441
C:\Users\CYMR90~1\AppData\Local\Temp\ccNy8eXk.s:30304  .debug_str:0000000000024816 .LASF2442
C:\Users\CYMR90~1\AppData\Local\Temp\ccNy8eXk.s:31372  .debug_str:0000000000028e67 .LASF2443
C:\Users\CYMR90~1\AppData\Local\Temp\ccNy8eXk.s:21221  .debug_str:0000000000000753 .LASF2444
C:\Users\CYMR90~1\AppData\Local\Temp\ccNy8eXk.s:23033  .debug_str:000000000000791e .LASF2445
C:\Users\CYMR90~1\AppData\Local\Temp\ccNy8eXk.s:22019  .debug_str:00000000000038f1 .LASF2446
C:\Users\CYMR90~1\AppData\Local\Temp\ccNy8eXk.s:30528  .debug_str:0000000000025801 .LASF2447
C:\Users\CYMR90~1\AppData\Local\Temp\ccNy8eXk.s:25625  .debug_str:0000000000011ecf .LASF2448
C:\Users\CYMR90~1\AppData\Local\Temp\ccNy8eXk.s:24393  .debug_str:000000000000d221 .LASF2449
C:\Users\CYMR90~1\AppData\Local\Temp\ccNy8eXk.s:29022  .debug_str:000000000001f963 .LASF2450
C:\Users\CYMR90~1\AppData\Local\Temp\ccNy8eXk.s:28148  .debug_str:000000000001c22f .LASF2451
C:\Users\CYMR90~1\AppData\Local\Temp\ccNy8eXk.s:22065  .debug_str:0000000000003ba2 .LASF2452
C:\Users\CYMR90~1\AppData\Local\Temp\ccNy8eXk.s:30682  .debug_str:0000000000026226 .LASF2453
C:\Users\CYMR90~1\AppData\Local\Temp\ccNy8eXk.s:24365  .debug_str:000000000000d059 .LASF2454
C:\Users\CYMR90~1\AppData\Local\Temp\ccNy8eXk.s:23449  .debug_str:0000000000009435 .LASF2455
C:\Users\CYMR90~1\AppData\Local\Temp\ccNy8eXk.s:22415  .debug_str:00000000000052a4 .LASF2456
C:\Users\CYMR90~1\AppData\Local\Temp\ccNy8eXk.s:31026  .debug_str:0000000000027763 .LASF2457
C:\Users\CYMR90~1\AppData\Local\Temp\ccNy8eXk.s:31328  .debug_str:0000000000028c13 .LASF2458
C:\Users\CYMR90~1\AppData\Local\Temp\ccNy8eXk.s:25479  .debug_str:00000000000114c3 .LASF2459
C:\Users\CYMR90~1\AppData\Local\Temp\ccNy8eXk.s:29386  .debug_str:0000000000020f88 .LASF2460
C:\Users\CYMR90~1\AppData\Local\Temp\ccNy8eXk.s:26541  .debug_str:000000000001587e .LASF2461
C:\Users\CYMR90~1\AppData\Local\Temp\ccNy8eXk.s:27104  .debug_str:0000000000017e24 .LASF2462
C:\Users\CYMR90~1\AppData\Local\Temp\ccNy8eXk.s:25955  .debug_str:00000000000134c0 .LASF2463
C:\Users\CYMR90~1\AppData\Local\Temp\ccNy8eXk.s:26439  .debug_str:000000000001530f .LASF2464
C:\Users\CYMR90~1\AppData\Local\Temp\ccNy8eXk.s:25155  .debug_str:00000000000100e5 .LASF2465
C:\Users\CYMR90~1\AppData\Local\Temp\ccNy8eXk.s:25431  .debug_str:00000000000111db .LASF2466
C:\Users\CYMR90~1\AppData\Local\Temp\ccNy8eXk.s:24525  .debug_str:000000000000da8b .LASF2467
C:\Users\CYMR90~1\AppData\Local\Temp\ccNy8eXk.s:23525  .debug_str:00000000000098ed .LASF2468
C:\Users\CYMR90~1\AppData\Local\Temp\ccNy8eXk.s:32026  .debug_str:000000000002b63f .LASF2469
C:\Users\CYMR90~1\AppData\Local\Temp\ccNy8eXk.s:24005  .debug_str:000000000000b8f7 .LASF2470
C:\Users\CYMR90~1\AppData\Local\Temp\ccNy8eXk.s:31366  .debug_str:0000000000028e0a .LASF2471
C:\Users\CYMR90~1\AppData\Local\Temp\ccNy8eXk.s:30080  .debug_str:0000000000023995 .LASF2472
C:\Users\CYMR90~1\AppData\Local\Temp\ccNy8eXk.s:26930  .debug_str:000000000001739b .LASF2473
C:\Users\CYMR90~1\AppData\Local\Temp\ccNy8eXk.s:26559  .debug_str:00000000000159b4 .LASF2474
C:\Users\CYMR90~1\AppData\Local\Temp\ccNy8eXk.s:26691  .debug_str:0000000000016254 .LASF2475
C:\Users\CYMR90~1\AppData\Local\Temp\ccNy8eXk.s:31048  .debug_str:00000000000278a1 .LASF2476
C:\Users\CYMR90~1\AppData\Local\Temp\ccNy8eXk.s:24383  .debug_str:000000000000d16b .LASF2477
C:\Users\CYMR90~1\AppData\Local\Temp\ccNy8eXk.s:28806  .debug_str:000000000001ec2a .LASF2478
C:\Users\CYMR90~1\AppData\Local\Temp\ccNy8eXk.s:22933  .debug_str:00000000000072d5 .LASF2479
C:\Users\CYMR90~1\AppData\Local\Temp\ccNy8eXk.s:21359  .debug_str:0000000000001036 .LASF2480
C:\Users\CYMR90~1\AppData\Local\Temp\ccNy8eXk.s:27796  .debug_str:000000000001ac43 .LASF2481
C:\Users\CYMR90~1\AppData\Local\Temp\ccNy8eXk.s:23785  .debug_str:000000000000aa2b .LASF2482
C:\Users\CYMR90~1\AppData\Local\Temp\ccNy8eXk.s:26671  .debug_str:000000000001611e .LASF2483
C:\Users\CYMR90~1\AppData\Local\Temp\ccNy8eXk.s:24109  .debug_str:000000000000bffc .LASF2484
C:\Users\CYMR90~1\AppData\Local\Temp\ccNy8eXk.s:24231  .debug_str:000000000000c797 .LASF2485
C:\Users\CYMR90~1\AppData\Local\Temp\ccNy8eXk.s:28186  .debug_str:000000000001c449 .LASF2486
C:\Users\CYMR90~1\AppData\Local\Temp\ccNy8eXk.s:22357  .debug_str:0000000000004f3f .LASF2487
C:\Users\CYMR90~1\AppData\Local\Temp\ccNy8eXk.s:28044  .debug_str:000000000001bb61 .LASF2488
C:\Users\CYMR90~1\AppData\Local\Temp\ccNy8eXk.s:26545  .debug_str:00000000000158e7 .LASF2489
C:\Users\CYMR90~1\AppData\Local\Temp\ccNy8eXk.s:31508  .debug_str:000000000002977a .LASF2490
C:\Users\CYMR90~1\AppData\Local\Temp\ccNy8eXk.s:29676  .debug_str:0000000000022149 .LASF2491
C:\Users\CYMR90~1\AppData\Local\Temp\ccNy8eXk.s:22327  .debug_str:0000000000004d8b .LASF2492
C:\Users\CYMR90~1\AppData\Local\Temp\ccNy8eXk.s:21373  .debug_str:0000000000001109 .LASF2493
C:\Users\CYMR90~1\AppData\Local\Temp\ccNy8eXk.s:31790  .debug_str:000000000002a832 .LASF2494
C:\Users\CYMR90~1\AppData\Local\Temp\ccNy8eXk.s:21315  .debug_str:0000000000000d4d .LASF2495
C:\Users\CYMR90~1\AppData\Local\Temp\ccNy8eXk.s:23053  .debug_str:0000000000007a65 .LASF2496
C:\Users\CYMR90~1\AppData\Local\Temp\ccNy8eXk.s:23523  .debug_str:00000000000098cd .LASF2497
C:\Users\CYMR90~1\AppData\Local\Temp\ccNy8eXk.s:25811  .debug_str:0000000000012b1d .LASF2498
C:\Users\CYMR90~1\AppData\Local\Temp\ccNy8eXk.s:23579  .debug_str:0000000000009cb3 .LASF2499
C:\Users\CYMR90~1\AppData\Local\Temp\ccNy8eXk.s:22107  .debug_str:0000000000003e77 .LASF2500
C:\Users\CYMR90~1\AppData\Local\Temp\ccNy8eXk.s:28056  .debug_str:000000000001bc55 .LASF2501
C:\Users\CYMR90~1\AppData\Local\Temp\ccNy8eXk.s:21543  .debug_str:0000000000001ba3 .LASF2502
C:\Users\CYMR90~1\AppData\Local\Temp\ccNy8eXk.s:28756  .debug_str:000000000001e97a .LASF2503
C:\Users\CYMR90~1\AppData\Local\Temp\ccNy8eXk.s:32372  .debug_str:000000000002cd48 .LASF2504
C:\Users\CYMR90~1\AppData\Local\Temp\ccNy8eXk.s:21553  .debug_str:0000000000001c5d .LASF2505
C:\Users\CYMR90~1\AppData\Local\Temp\ccNy8eXk.s:26059  .debug_str:0000000000013b3c .LASF2506
C:\Users\CYMR90~1\AppData\Local\Temp\ccNy8eXk.s:29654  .debug_str:0000000000021fed .LASF2507
C:\Users\CYMR90~1\AppData\Local\Temp\ccNy8eXk.s:32142  .debug_str:000000000002bdf0 .LASF2508
C:\Users\CYMR90~1\AppData\Local\Temp\ccNy8eXk.s:25487  .debug_str:0000000000011567 .LASF2509
C:\Users\CYMR90~1\AppData\Local\Temp\ccNy8eXk.s:24829  .debug_str:000000000000ed1d .LASF2510
C:\Users\CYMR90~1\AppData\Local\Temp\ccNy8eXk.s:28310  .debug_str:000000000001cc85 .LASF2511
C:\Users\CYMR90~1\AppData\Local\Temp\ccNy8eXk.s:27580  .debug_str:0000000000019d40 .LASF2512
C:\Users\CYMR90~1\AppData\Local\Temp\ccNy8eXk.s:22373  .debug_str:0000000000005040 .LASF2513
C:\Users\CYMR90~1\AppData\Local\Temp\ccNy8eXk.s:22287  .debug_str:0000000000004b1c .LASF2514
C:\Users\CYMR90~1\AppData\Local\Temp\ccNy8eXk.s:32406  .debug_str:000000000002cfab .LASF2515
C:\Users\CYMR90~1\AppData\Local\Temp\ccNy8eXk.s:28928  .debug_str:000000000001f3d1 .LASF2516
C:\Users\CYMR90~1\AppData\Local\Temp\ccNy8eXk.s:23207  .debug_str:000000000000856f .LASF2517
C:\Users\CYMR90~1\AppData\Local\Temp\ccNy8eXk.s:23195  .debug_str:00000000000084ce .LASF2518
C:\Users\CYMR90~1\AppData\Local\Temp\ccNy8eXk.s:30570  .debug_str:0000000000025b1d .LASF2519
C:\Users\CYMR90~1\AppData\Local\Temp\ccNy8eXk.s:25445  .debug_str:00000000000112ca .LASF2520
C:\Users\CYMR90~1\AppData\Local\Temp\ccNy8eXk.s:26689  .debug_str:0000000000016230 .LASF2521
C:\Users\CYMR90~1\AppData\Local\Temp\ccNy8eXk.s:28002  .debug_str:000000000001b94e .LASF2522
C:\Users\CYMR90~1\AppData\Local\Temp\ccNy8eXk.s:31306  .debug_str:0000000000028ad2 .LASF2523
C:\Users\CYMR90~1\AppData\Local\Temp\ccNy8eXk.s:29530  .debug_str:000000000002188e .LASF2524
C:\Users\CYMR90~1\AppData\Local\Temp\ccNy8eXk.s:28552  .debug_str:000000000001dcb1 .LASF2525
C:\Users\CYMR90~1\AppData\Local\Temp\ccNy8eXk.s:27556  .debug_str:0000000000019bf4 .LASF2526
C:\Users\CYMR90~1\AppData\Local\Temp\ccNy8eXk.s:26647  .debug_str:0000000000015f89 .LASF2527
C:\Users\CYMR90~1\AppData\Local\Temp\ccNy8eXk.s:25711  .debug_str:000000000001247d .LASF2528
C:\Users\CYMR90~1\AppData\Local\Temp\ccNy8eXk.s:23791  .debug_str:000000000000aa72 .LASF2529
C:\Users\CYMR90~1\AppData\Local\Temp\ccNy8eXk.s:26473  .debug_str:00000000000154d7 .LASF2530
C:\Users\CYMR90~1\AppData\Local\Temp\ccNy8eXk.s:22209  .debug_str:000000000000457b .LASF2531
C:\Users\CYMR90~1\AppData\Local\Temp\ccNy8eXk.s:21913  .debug_str:000000000000321a .LASF2532
C:\Users\CYMR90~1\AppData\Local\Temp\ccNy8eXk.s:23451  .debug_str:0000000000009457 .LASF2533
C:\Users\CYMR90~1\AppData\Local\Temp\ccNy8eXk.s:21311  .debug_str:0000000000000d16 .LASF2534
C:\Users\CYMR90~1\AppData\Local\Temp\ccNy8eXk.s:24617  .debug_str:000000000000e013 .LASF2535
C:\Users\CYMR90~1\AppData\Local\Temp\ccNy8eXk.s:23265  .debug_str:00000000000088e5 .LASF2536
C:\Users\CYMR90~1\AppData\Local\Temp\ccNy8eXk.s:21603  .debug_str:0000000000001f4f .LASF2537
C:\Users\CYMR90~1\AppData\Local\Temp\ccNy8eXk.s:24071  .debug_str:000000000000bd15 .LASF2538
C:\Users\CYMR90~1\AppData\Local\Temp\ccNy8eXk.s:21413  .debug_str:000000000000133b .LASF2539
C:\Users\CYMR90~1\AppData\Local\Temp\ccNy8eXk.s:27680  .debug_str:000000000001a4b7 .LASF2540
C:\Users\CYMR90~1\AppData\Local\Temp\ccNy8eXk.s:27468  .debug_str:00000000000195c2 .LASF2541
C:\Users\CYMR90~1\AppData\Local\Temp\ccNy8eXk.s:25983  .debug_str:0000000000013698 .LASF2542
C:\Users\CYMR90~1\AppData\Local\Temp\ccNy8eXk.s:31208  .debug_str:0000000000028426 .LASF2543
C:\Users\CYMR90~1\AppData\Local\Temp\ccNy8eXk.s:23649  .debug_str:000000000000a0fb .LASF2544
C:\Users\CYMR90~1\AppData\Local\Temp\ccNy8eXk.s:27726  .debug_str:000000000001a74a .LASF2545
C:\Users\CYMR90~1\AppData\Local\Temp\ccNy8eXk.s:28358  .debug_str:000000000001d0a2 .LASF2546
C:\Users\CYMR90~1\AppData\Local\Temp\ccNy8eXk.s:26866  .debug_str:0000000000016fe0 .LASF2547
C:\Users\CYMR90~1\AppData\Local\Temp\ccNy8eXk.s:30798  .debug_str:0000000000026924 .LASF2548
C:\Users\CYMR90~1\AppData\Local\Temp\ccNy8eXk.s:25927  .debug_str:0000000000013253 .LASF2549
C:\Users\CYMR90~1\AppData\Local\Temp\ccNy8eXk.s:28606  .debug_str:000000000001e073 .LASF2550
C:\Users\CYMR90~1\AppData\Local\Temp\ccNy8eXk.s:21667  .debug_str:00000000000022b7 .LASF2551
C:\Users\CYMR90~1\AppData\Local\Temp\ccNy8eXk.s:26503  .debug_str:000000000001564f .LASF2552
C:\Users\CYMR90~1\AppData\Local\Temp\ccNy8eXk.s:21299  .debug_str:0000000000000c75 .LASF2553
C:\Users\CYMR90~1\AppData\Local\Temp\ccNy8eXk.s:28458  .debug_str:000000000001d741 .LASF2554
C:\Users\CYMR90~1\AppData\Local\Temp\ccNy8eXk.s:29024  .debug_str:000000000001f985 .LASF2555
C:\Users\CYMR90~1\AppData\Local\Temp\ccNy8eXk.s:30376  .debug_str:0000000000024ce6 .LASF2556
C:\Users\CYMR90~1\AppData\Local\Temp\ccNy8eXk.s:22479  .debug_str:000000000000569a .LASF2557
C:\Users\CYMR90~1\AppData\Local\Temp\ccNy8eXk.s:22067  .debug_str:0000000000003bc4 .LASF2558
C:\Users\CYMR90~1\AppData\Local\Temp\ccNy8eXk.s:26187  .debug_str:0000000000014314 .LASF2559
C:\Users\CYMR90~1\AppData\Local\Temp\ccNy8eXk.s:24145  .debug_str:000000000000c262 .LASF2560
C:\Users\CYMR90~1\AppData\Local\Temp\ccNy8eXk.s:28916  .debug_str:000000000001f316 .LASF2561
C:\Users\CYMR90~1\AppData\Local\Temp\ccNy8eXk.s:24701  .debug_str:000000000000e503 .LASF2562
C:\Users\CYMR90~1\AppData\Local\Temp\ccNy8eXk.s:28728  .debug_str:000000000001e7a2 .LASF2563
C:\Users\CYMR90~1\AppData\Local\Temp\ccNy8eXk.s:32356  .debug_str:000000000002cc72 .LASF2564
C:\Users\CYMR90~1\AppData\Local\Temp\ccNy8eXk.s:22595  .debug_str:0000000000005d88 .LASF2565
C:\Users\CYMR90~1\AppData\Local\Temp\ccNy8eXk.s:27710  .debug_str:000000000001a63f .LASF2566
C:\Users\CYMR90~1\AppData\Local\Temp\ccNy8eXk.s:23865  .debug_str:000000000000af1d .LASF2567
C:\Users\CYMR90~1\AppData\Local\Temp\ccNy8eXk.s:30506  .debug_str:0000000000025642 .LASF2568
C:\Users\CYMR90~1\AppData\Local\Temp\ccNy8eXk.s:21861  .debug_str:0000000000002ee4 .LASF2569
C:\Users\CYMR90~1\AppData\Local\Temp\ccNy8eXk.s:32234  .debug_str:000000000002c451 .LASF2570
C:\Users\CYMR90~1\AppData\Local\Temp\ccNy8eXk.s:21449  .debug_str:0000000000001555 .LASF2571
C:\Users\CYMR90~1\AppData\Local\Temp\ccNy8eXk.s:21219  .debug_str:0000000000000726 .LASF2572
C:\Users\CYMR90~1\AppData\Local\Temp\ccNy8eXk.s:29692  .debug_str:0000000000022249 .LASF2573
C:\Users\CYMR90~1\AppData\Local\Temp\ccNy8eXk.s:26081  .debug_str:0000000000013c91 .LASF2574
C:\Users\CYMR90~1\AppData\Local\Temp\ccNy8eXk.s:25875  .debug_str:0000000000012f20 .LASF2575
C:\Users\CYMR90~1\AppData\Local\Temp\ccNy8eXk.s:28722  .debug_str:000000000001e737 .LASF2576
C:\Users\CYMR90~1\AppData\Local\Temp\ccNy8eXk.s:23995  .debug_str:000000000000b832 .LASF2577
C:\Users\CYMR90~1\AppData\Local\Temp\ccNy8eXk.s:22869  .debug_str:0000000000006e78 .LASF2578
C:\Users\CYMR90~1\AppData\Local\Temp\ccNy8eXk.s:29020  .debug_str:000000000001f935 .LASF2579
C:\Users\CYMR90~1\AppData\Local\Temp\ccNy8eXk.s:31566  .debug_str:0000000000029ac2 .LASF2580
C:\Users\CYMR90~1\AppData\Local\Temp\ccNy8eXk.s:27016  .debug_str:00000000000178d5 .LASF2581
C:\Users\CYMR90~1\AppData\Local\Temp\ccNy8eXk.s:28372  .debug_str:000000000001d17e .LASF2582
C:\Users\CYMR90~1\AppData\Local\Temp\ccNy8eXk.s:26249  .debug_str:00000000000146f0 .LASF2583
C:\Users\CYMR90~1\AppData\Local\Temp\ccNy8eXk.s:24527  .debug_str:000000000000daae .LASF2584
C:\Users\CYMR90~1\AppData\Local\Temp\ccNy8eXk.s:27890  .debug_str:000000000001b252 .LASF2585
C:\Users\CYMR90~1\AppData\Local\Temp\ccNy8eXk.s:31946  .debug_str:000000000002b126 .LASF2586
C:\Users\CYMR90~1\AppData\Local\Temp\ccNy8eXk.s:22385  .debug_str:00000000000050f0 .LASF2587
C:\Users\CYMR90~1\AppData\Local\Temp\ccNy8eXk.s:23025  .debug_str:0000000000007898 .LASF2588
C:\Users\CYMR90~1\AppData\Local\Temp\ccNy8eXk.s:31380  .debug_str:0000000000028f0d .LASF2589
C:\Users\CYMR90~1\AppData\Local\Temp\ccNy8eXk.s:27392  .debug_str:0000000000019136 .LASF2590
C:\Users\CYMR90~1\AppData\Local\Temp\ccNy8eXk.s:30446  .debug_str:000000000002514f .LASF2591
C:\Users\CYMR90~1\AppData\Local\Temp\ccNy8eXk.s:24373  .debug_str:000000000000d0cf .LASF2592
C:\Users\CYMR90~1\AppData\Local\Temp\ccNy8eXk.s:29586  .debug_str:0000000000021bf8 .LASF2593
C:\Users\CYMR90~1\AppData\Local\Temp\ccNy8eXk.s:29844  .debug_str:0000000000022b0f .LASF2594
C:\Users\CYMR90~1\AppData\Local\Temp\ccNy8eXk.s:28256  .debug_str:000000000001c933 .LASF2595
C:\Users\CYMR90~1\AppData\Local\Temp\ccNy8eXk.s:22049  .debug_str:0000000000003ac6 .LASF2596
C:\Users\CYMR90~1\AppData\Local\Temp\ccNy8eXk.s:27344  .debug_str:0000000000018d2f .LASF2597
C:\Users\CYMR90~1\AppData\Local\Temp\ccNy8eXk.s:21231  .debug_str:00000000000007fc .LASF2598
C:\Users\CYMR90~1\AppData\Local\Temp\ccNy8eXk.s:29116  .debug_str:000000000001ff73 .LASF2599
C:\Users\CYMR90~1\AppData\Local\Temp\ccNy8eXk.s:31296  .debug_str:0000000000028a11 .LASF2600
C:\Users\CYMR90~1\AppData\Local\Temp\ccNy8eXk.s:23163  .debug_str:0000000000008287 .LASF2601
C:\Users\CYMR90~1\AppData\Local\Temp\ccNy8eXk.s:21189  .debug_str:000000000000054b .LASF2602
C:\Users\CYMR90~1\AppData\Local\Temp\ccNy8eXk.s:29582  .debug_str:0000000000021bbc .LASF2603
C:\Users\CYMR90~1\AppData\Local\Temp\ccNy8eXk.s:21361  .debug_str:0000000000001048 .LASF2604
C:\Users\CYMR90~1\AppData\Local\Temp\ccNy8eXk.s:24629  .debug_str:000000000000e0c2 .LASF2605
C:\Users\CYMR90~1\AppData\Local\Temp\ccNy8eXk.s:27856  .debug_str:000000000001b040 .LASF2606
C:\Users\CYMR90~1\AppData\Local\Temp\ccNy8eXk.s:31052  .debug_str:00000000000278e6 .LASF2607
C:\Users\CYMR90~1\AppData\Local\Temp\ccNy8eXk.s:22911  .debug_str:0000000000007148 .LASF2608
C:\Users\CYMR90~1\AppData\Local\Temp\ccNy8eXk.s:26137  .debug_str:0000000000013fd1 .LASF2609
C:\Users\CYMR90~1\AppData\Local\Temp\ccNy8eXk.s:22591  .debug_str:0000000000005d5b .LASF2610
C:\Users\CYMR90~1\AppData\Local\Temp\ccNy8eXk.s:27340  .debug_str:0000000000018d07 .LASF2611
C:\Users\CYMR90~1\AppData\Local\Temp\ccNy8eXk.s:32072  .debug_str:000000000002b97f .LASF2612
C:\Users\CYMR90~1\AppData\Local\Temp\ccNy8eXk.s:25423  .debug_str:0000000000011162 .LASF2613
C:\Users\CYMR90~1\AppData\Local\Temp\ccNy8eXk.s:30118  .debug_str:0000000000023bcd .LASF2614
C:\Users\CYMR90~1\AppData\Local\Temp\ccNy8eXk.s:23501  .debug_str:000000000000978e .LASF2615
C:\Users\CYMR90~1\AppData\Local\Temp\ccNy8eXk.s:23877  .debug_str:000000000000b0a6 .LASF2616
C:\Users\CYMR90~1\AppData\Local\Temp\ccNy8eXk.s:24535  .debug_str:000000000000db3e .LASF2617
C:\Users\CYMR90~1\AppData\Local\Temp\ccNy8eXk.s:29838  .debug_str:0000000000022aa9 .LASF2618
C:\Users\CYMR90~1\AppData\Local\Temp\ccNy8eXk.s:27070  .debug_str:0000000000017c26 .LASF2619
C:\Users\CYMR90~1\AppData\Local\Temp\ccNy8eXk.s:22305  .debug_str:0000000000004c26 .LASF2620
C:\Users\CYMR90~1\AppData\Local\Temp\ccNy8eXk.s:23745  .debug_str:000000000000a6d4 .LASF2621
C:\Users\CYMR90~1\AppData\Local\Temp\ccNy8eXk.s:28944  .debug_str:000000000001f4ce .LASF2622
C:\Users\CYMR90~1\AppData\Local\Temp\ccNy8eXk.s:22883  .debug_str:0000000000006f83 .LASF2623
C:\Users\CYMR90~1\AppData\Local\Temp\ccNy8eXk.s:28060  .debug_str:000000000001bca2 .LASF2624
C:\Users\CYMR90~1\AppData\Local\Temp\ccNy8eXk.s:24229  .debug_str:000000000000c77b .LASF2625
C:\Users\CYMR90~1\AppData\Local\Temp\ccNy8eXk.s:23979  .debug_str:000000000000b701 .LASF2626
C:\Users\CYMR90~1\AppData\Local\Temp\ccNy8eXk.s:29186  .debug_str:0000000000020379 .LASF2627
C:\Users\CYMR90~1\AppData\Local\Temp\ccNy8eXk.s:23117  .debug_str:0000000000007eff .LASF2628
C:\Users\CYMR90~1\AppData\Local\Temp\ccNy8eXk.s:28278  .debug_str:000000000001ca69 .LASF2629
C:\Users\CYMR90~1\AppData\Local\Temp\ccNy8eXk.s:22169  .debug_str:00000000000042fb .LASF2630
C:\Users\CYMR90~1\AppData\Local\Temp\ccNy8eXk.s:30094  .debug_str:0000000000023a75 .LASF2631
C:\Users\CYMR90~1\AppData\Local\Temp\ccNy8eXk.s:27372  .debug_str:0000000000018f1f .LASF2632
C:\Users\CYMR90~1\AppData\Local\Temp\ccNy8eXk.s:21629  .debug_str:00000000000020bd .LASF2633
C:\Users\CYMR90~1\AppData\Local\Temp\ccNy8eXk.s:21981  .debug_str:000000000000368f .LASF2634
C:\Users\CYMR90~1\AppData\Local\Temp\ccNy8eXk.s:30574  .debug_str:0000000000025b60 .LASF2635
C:\Users\CYMR90~1\AppData\Local\Temp\ccNy8eXk.s:27914  .debug_str:000000000001b3e9 .LASF2636
C:\Users\CYMR90~1\AppData\Local\Temp\ccNy8eXk.s:27058  .debug_str:0000000000017b87 .LASF2637
C:\Users\CYMR90~1\AppData\Local\Temp\ccNy8eXk.s:32262  .debug_str:000000000002c65c .LASF2638
C:\Users\CYMR90~1\AppData\Local\Temp\ccNy8eXk.s:26135  .debug_str:0000000000013fb7 .LASF2639
C:\Users\CYMR90~1\AppData\Local\Temp\ccNy8eXk.s:31404  .debug_str:000000000002906b .LASF2640
C:\Users\CYMR90~1\AppData\Local\Temp\ccNy8eXk.s:25233  .debug_str:00000000000105d7 .LASF2641
C:\Users\CYMR90~1\AppData\Local\Temp\ccNy8eXk.s:27812  .debug_str:000000000001ad32 .LASF2642
C:\Users\CYMR90~1\AppData\Local\Temp\ccNy8eXk.s:21661  .debug_str:000000000000226c .LASF2643
C:\Users\CYMR90~1\AppData\Local\Temp\ccNy8eXk.s:26858  .debug_str:0000000000016f71 .LASF2644
C:\Users\CYMR90~1\AppData\Local\Temp\ccNy8eXk.s:26169  .debug_str:0000000000014209 .LASF2645
C:\Users\CYMR90~1\AppData\Local\Temp\ccNy8eXk.s:25939  .debug_str:000000000001334f .LASF2646
C:\Users\CYMR90~1\AppData\Local\Temp\ccNy8eXk.s:24833  .debug_str:000000000000ed4e .LASF2647
C:\Users\CYMR90~1\AppData\Local\Temp\ccNy8eXk.s:31948  .debug_str:000000000002b13e .LASF2648
C:\Users\CYMR90~1\AppData\Local\Temp\ccNy8eXk.s:23817  .debug_str:000000000000abfd .LASF2649
C:\Users\CYMR90~1\AppData\Local\Temp\ccNy8eXk.s:27014  .debug_str:00000000000178bc .LASF2650
C:\Users\CYMR90~1\AppData\Local\Temp\ccNy8eXk.s:30250  .debug_str:00000000000244ac .LASF2651
C:\Users\CYMR90~1\AppData\Local\Temp\ccNy8eXk.s:22089  .debug_str:0000000000003d62 .LASF2652
C:\Users\CYMR90~1\AppData\Local\Temp\ccNy8eXk.s:25357  .debug_str:0000000000010dde .LASF2653
C:\Users\CYMR90~1\AppData\Local\Temp\ccNy8eXk.s:28530  .debug_str:000000000001db6e .LASF2654
C:\Users\CYMR90~1\AppData\Local\Temp\ccNy8eXk.s:31700  .debug_str:000000000002a292 .LASF2655
C:\Users\CYMR90~1\AppData\Local\Temp\ccNy8eXk.s:23575  .debug_str:0000000000009c7e .LASF2656
C:\Users\CYMR90~1\AppData\Local\Temp\ccNy8eXk.s:26785  .debug_str:0000000000016832 .LASF2657
C:\Users\CYMR90~1\AppData\Local\Temp\ccNy8eXk.s:28760  .debug_str:000000000001e9b7 .LASF2658
C:\Users\CYMR90~1\AppData\Local\Temp\ccNy8eXk.s:22149  .debug_str:0000000000004123 .LASF2659
C:\Users\CYMR90~1\AppData\Local\Temp\ccNy8eXk.s:26890  .debug_str:000000000001713a .LASF2660
C:\Users\CYMR90~1\AppData\Local\Temp\ccNy8eXk.s:31612  .debug_str:0000000000029d9b .LASF2661
C:\Users\CYMR90~1\AppData\Local\Temp\ccNy8eXk.s:25003  .debug_str:000000000000f722 .LASF2662
C:\Users\CYMR90~1\AppData\Local\Temp\ccNy8eXk.s:29670  .debug_str:00000000000220ff .LASF2663
C:\Users\CYMR90~1\AppData\Local\Temp\ccNy8eXk.s:23039  .debug_str:000000000000798f .LASF2664
C:\Users\CYMR90~1\AppData\Local\Temp\ccNy8eXk.s:26263  .debug_str:00000000000147cb .LASF2665
C:\Users\CYMR90~1\AppData\Local\Temp\ccNy8eXk.s:29374  .debug_str:0000000000020eef .LASF2666
C:\Users\CYMR90~1\AppData\Local\Temp\ccNy8eXk.s:21263  .debug_str:00000000000009de .LASF2667
C:\Users\CYMR90~1\AppData\Local\Temp\ccNy8eXk.s:24513  .debug_str:000000000000d9ea .LASF2668
C:\Users\CYMR90~1\AppData\Local\Temp\ccNy8eXk.s:27744  .debug_str:000000000001a901 .LASF2669
C:\Users\CYMR90~1\AppData\Local\Temp\ccNy8eXk.s:30936  .debug_str:000000000002716e .LASF2670
C:\Users\CYMR90~1\AppData\Local\Temp\ccNy8eXk.s:22803  .debug_str:0000000000006a5a .LASF2671
C:\Users\CYMR90~1\AppData\Local\Temp\ccNy8eXk.s:26035  .debug_str:00000000000139e0 .LASF2672
C:\Users\CYMR90~1\AppData\Local\Temp\ccNy8eXk.s:29232  .debug_str:00000000000206c1 .LASF2673
C:\Users\CYMR90~1\AppData\Local\Temp\ccNy8eXk.s:26573  .debug_str:0000000000015a80 .LASF2674
C:\Users\CYMR90~1\AppData\Local\Temp\ccNy8eXk.s:31310  .debug_str:0000000000028b04 .LASF2675
C:\Users\CYMR90~1\AppData\Local\Temp\ccNy8eXk.s:24685  .debug_str:000000000000e42b .LASF2676
C:\Users\CYMR90~1\AppData\Local\Temp\ccNy8eXk.s:22743  .debug_str:00000000000066a2 .LASF2677
C:\Users\CYMR90~1\AppData\Local\Temp\ccNy8eXk.s:27480  .debug_str:000000000001966e .LASF2678
C:\Users\CYMR90~1\AppData\Local\Temp\ccNy8eXk.s:25993  .debug_str:0000000000013754 .LASF2679
C:\Users\CYMR90~1\AppData\Local\Temp\ccNy8eXk.s:29176  .debug_str:00000000000202b0 .LASF2680
C:\Users\CYMR90~1\AppData\Local\Temp\ccNy8eXk.s:32448  .debug_str:000000000002d23d .LASF2681
C:\Users\CYMR90~1\AppData\Local\Temp\ccNy8eXk.s:28150  .debug_str:000000000001c251 .LASF2682
C:\Users\CYMR90~1\AppData\Local\Temp\ccNy8eXk.s:30230  .debug_str:0000000000024343 .LASF2683
C:\Users\CYMR90~1\AppData\Local\Temp\ccNy8eXk.s:30648  .debug_str:0000000000025fcd .LASF2684
C:\Users\CYMR90~1\AppData\Local\Temp\ccNy8eXk.s:24521  .debug_str:000000000000da51 .LASF2685
C:\Users\CYMR90~1\AppData\Local\Temp\ccNy8eXk.s:25767  .debug_str:000000000001280d .LASF2686
C:\Users\CYMR90~1\AppData\Local\Temp\ccNy8eXk.s:28918  .debug_str:000000000001f33b .LASF2687
C:\Users\CYMR90~1\AppData\Local\Temp\ccNy8eXk.s:32212  .debug_str:000000000002c2de .LASF2688
C:\Users\CYMR90~1\AppData\Local\Temp\ccNy8eXk.s:29672  .debug_str:000000000002211a .LASF2689
C:\Users\CYMR90~1\AppData\Local\Temp\ccNy8eXk.s:31674  .debug_str:000000000002a128 .LASF2690
C:\Users\CYMR90~1\AppData\Local\Temp\ccNy8eXk.s:22063  .debug_str:0000000000003b8b .LASF2691
C:\Users\CYMR90~1\AppData\Local\Temp\ccNy8eXk.s:26807  .debug_str:00000000000169f0 .LASF2692
C:\Users\CYMR90~1\AppData\Local\Temp\ccNy8eXk.s:31532  .debug_str:000000000002990b .LASF2693
C:\Users\CYMR90~1\AppData\Local\Temp\ccNy8eXk.s:24919  .debug_str:000000000000f1f8 .LASF2694
C:\Users\CYMR90~1\AppData\Local\Temp\ccNy8eXk.s:26775  .debug_str:00000000000167ad .LASF2695
C:\Users\CYMR90~1\AppData\Local\Temp\ccNy8eXk.s:31498  .debug_str:00000000000296a0 .LASF2696
C:\Users\CYMR90~1\AppData\Local\Temp\ccNy8eXk.s:24893  .debug_str:000000000000f074 .LASF2697
C:\Users\CYMR90~1\AppData\Local\Temp\ccNy8eXk.s:29560  .debug_str:0000000000021a39 .LASF2698
C:\Users\CYMR90~1\AppData\Local\Temp\ccNy8eXk.s:26045  .debug_str:0000000000013a77 .LASF2699
C:\Users\CYMR90~1\AppData\Local\Temp\ccNy8eXk.s:21569  .debug_str:0000000000001d3e .LASF2700
C:\Users\CYMR90~1\AppData\Local\Temp\ccNy8eXk.s:26305  .debug_str:0000000000014a2d .LASF2701
C:\Users\CYMR90~1\AppData\Local\Temp\ccNy8eXk.s:31032  .debug_str:00000000000277aa .LASF2702
C:\Users\CYMR90~1\AppData\Local\Temp\ccNy8eXk.s:24413  .debug_str:000000000000d3ad .LASF2703
C:\Users\CYMR90~1\AppData\Local\Temp\ccNy8eXk.s:29078  .debug_str:000000000001fcd3 .LASF2704
C:\Users\CYMR90~1\AppData\Local\Temp\ccNy8eXk.s:24043  .debug_str:000000000000bb80 .LASF2705
C:\Users\CYMR90~1\AppData\Local\Temp\ccNy8eXk.s:28708  .debug_str:000000000001e633 .LASF2706
C:\Users\CYMR90~1\AppData\Local\Temp\ccNy8eXk.s:22079  .debug_str:0000000000003c97 .LASF2707
C:\Users\CYMR90~1\AppData\Local\Temp\ccNy8eXk.s:26823  .debug_str:0000000000016b95 .LASF2708
C:\Users\CYMR90~1\AppData\Local\Temp\ccNy8eXk.s:23417  .debug_str:0000000000009257 .LASF2709
C:\Users\CYMR90~1\AppData\Local\Temp\ccNy8eXk.s:30200  .debug_str:000000000002409d .LASF2710
C:\Users\CYMR90~1\AppData\Local\Temp\ccNy8eXk.s:21579  .debug_str:0000000000001ddc .LASF2711
C:\Users\CYMR90~1\AppData\Local\Temp\ccNy8eXk.s:24855  .debug_str:000000000000ee67 .LASF2712
C:\Users\CYMR90~1\AppData\Local\Temp\ccNy8eXk.s:30990  .debug_str:000000000002755f .LASF2713
C:\Users\CYMR90~1\AppData\Local\Temp\ccNy8eXk.s:31284  .debug_str:0000000000028972 .LASF2714
C:\Users\CYMR90~1\AppData\Local\Temp\ccNy8eXk.s:23047  .debug_str:00000000000079fe .LASF2715
C:\Users\CYMR90~1\AppData\Local\Temp\ccNy8eXk.s:26271  .debug_str:0000000000014834 .LASF2716
C:\Users\CYMR90~1\AppData\Local\Temp\ccNy8eXk.s:23585  .debug_str:0000000000009cfa .LASF2717
C:\Users\CYMR90~1\AppData\Local\Temp\ccNy8eXk.s:21349  .debug_str:0000000000000fac .LASF2718
C:\Users\CYMR90~1\AppData\Local\Temp\ccNy8eXk.s:24613  .debug_str:000000000000dfe7 .LASF2719
C:\Users\CYMR90~1\AppData\Local\Temp\ccNy8eXk.s:23141  .debug_str:00000000000080a4 .LASF2720
C:\Users\CYMR90~1\AppData\Local\Temp\ccNy8eXk.s:27120  .debug_str:0000000000017f45 .LASF2721
C:\Users\CYMR90~1\AppData\Local\Temp\ccNy8eXk.s:31858  .debug_str:000000000002ac2e .LASF2722
C:\Users\CYMR90~1\AppData\Local\Temp\ccNy8eXk.s:25231  .debug_str:00000000000105c0 .LASF2723
C:\Users\CYMR90~1\AppData\Local\Temp\ccNy8eXk.s:29918  .debug_str:0000000000022fbe .LASF2724
C:\Users\CYMR90~1\AppData\Local\Temp\ccNy8eXk.s:30540  .debug_str:00000000000258cf .LASF2725
C:\Users\CYMR90~1\AppData\Local\Temp\ccNy8eXk.s:28012  .debug_str:000000000001b9b6 .LASF2726
C:\Users\CYMR90~1\AppData\Local\Temp\ccNy8eXk.s:25409  .debug_str:0000000000011084 .LASF2727
C:\Users\CYMR90~1\AppData\Local\Temp\ccNy8eXk.s:31724  .debug_str:000000000002a3c4 .LASF2728
C:\Users\CYMR90~1\AppData\Local\Temp\ccNy8eXk.s:22831  .debug_str:0000000000006c05 .LASF2729
C:\Users\CYMR90~1\AppData\Local\Temp\ccNy8eXk.s:23239  .debug_str:000000000000874d .LASF2730
C:\Users\CYMR90~1\AppData\Local\Temp\ccNy8eXk.s:24207  .debug_str:000000000000c60a .LASF2731
C:\Users\CYMR90~1\AppData\Local\Temp\ccNy8eXk.s:31742  .debug_str:000000000002a4f7 .LASF2732
C:\Users\CYMR90~1\AppData\Local\Temp\ccNy8eXk.s:21991  .debug_str:0000000000003717 .LASF2733
C:\Users\CYMR90~1\AppData\Local\Temp\ccNy8eXk.s:26956  .debug_str:00000000000174df .LASF2734
C:\Users\CYMR90~1\AppData\Local\Temp\ccNy8eXk.s:22363  .debug_str:0000000000004fab .LASF2735
C:\Users\CYMR90~1\AppData\Local\Temp\ccNy8eXk.s:25761  .debug_str:00000000000127aa .LASF2736
C:\Users\CYMR90~1\AppData\Local\Temp\ccNy8eXk.s:22409  .debug_str:0000000000005257 .LASF2737
C:\Users\CYMR90~1\AppData\Local\Temp\ccNy8eXk.s:29242  .debug_str:0000000000020739 .LASF2738
C:\Users\CYMR90~1\AppData\Local\Temp\ccNy8eXk.s:26031  .debug_str:00000000000139a4 .LASF2739
C:\Users\CYMR90~1\AppData\Local\Temp\ccNy8eXk.s:24823  .debug_str:000000000000ecb2 .LASF2740
C:\Users\CYMR90~1\AppData\Local\Temp\ccNy8eXk.s:23869  .debug_str:000000000000af72 .LASF2741
C:\Users\CYMR90~1\AppData\Local\Temp\ccNy8eXk.s:21411  .debug_str:000000000000131d .LASF2742
C:\Users\CYMR90~1\AppData\Local\Temp\ccNy8eXk.s:24241  .debug_str:000000000000c83d .LASF2743
C:\Users\CYMR90~1\AppData\Local\Temp\ccNy8eXk.s:26039  .debug_str:0000000000013a1b .LASF2744
C:\Users\CYMR90~1\AppData\Local\Temp\ccNy8eXk.s:29238  .debug_str:0000000000020711 .LASF2745
C:\Users\CYMR90~1\AppData\Local\Temp\ccNy8eXk.s:21133  .debug_str:000000000000020a .LASF2746
C:\Users\CYMR90~1\AppData\Local\Temp\ccNy8eXk.s:24371  .debug_str:000000000000d0bc .LASF2747
C:\Users\CYMR90~1\AppData\Local\Temp\ccNy8eXk.s:27584  .debug_str:0000000000019d96 .LASF2748
C:\Users\CYMR90~1\AppData\Local\Temp\ccNy8eXk.s:21327  .debug_str:0000000000000dfb .LASF2749
C:\Users\CYMR90~1\AppData\Local\Temp\ccNy8eXk.s:22557  .debug_str:0000000000005b31 .LASF2750
C:\Users\CYMR90~1\AppData\Local\Temp\ccNy8eXk.s:29400  .debug_str:000000000002103d .LASF2751
C:\Users\CYMR90~1\AppData\Local\Temp\ccNy8eXk.s:27820  .debug_str:000000000001adb6 .LASF2752
C:\Users\CYMR90~1\AppData\Local\Temp\ccNy8eXk.s:32270  .debug_str:000000000002c6df .LASF2753
C:\Users\CYMR90~1\AppData\Local\Temp\ccNy8eXk.s:21443  .debug_str:000000000000151f .LASF2754
C:\Users\CYMR90~1\AppData\Local\Temp\ccNy8eXk.s:26179  .debug_str:00000000000142aa .LASF2755
C:\Users\CYMR90~1\AppData\Local\Temp\ccNy8eXk.s:30906  .debug_str:0000000000026fc8 .LASF2756
C:\Users\CYMR90~1\AppData\Local\Temp\ccNy8eXk.s:31940  .debug_str:000000000002b0c4 .LASF2757
C:\Users\CYMR90~1\AppData\Local\Temp\ccNy8eXk.s:28152  .debug_str:000000000001c266 .LASF2758
C:\Users\CYMR90~1\AppData\Local\Temp\ccNy8eXk.s:24421  .debug_str:000000000000d405 .LASF2759
C:\Users\CYMR90~1\AppData\Local\Temp\ccNy8eXk.s:29706  .debug_str:0000000000022311 .LASF2760
C:\Users\CYMR90~1\AppData\Local\Temp\ccNy8eXk.s:21561  .debug_str:0000000000001cca .LASF2761
C:\Users\CYMR90~1\AppData\Local\Temp\ccNy8eXk.s:24839  .debug_str:000000000000ed99 .LASF2762
C:\Users\CYMR90~1\AppData\Local\Temp\ccNy8eXk.s:28034  .debug_str:000000000001bada .LASF2763
C:\Users\CYMR90~1\AppData\Local\Temp\ccNy8eXk.s:31178  .debug_str:00000000000281b8 .LASF2764
C:\Users\CYMR90~1\AppData\Local\Temp\ccNy8eXk.s:24763  .debug_str:000000000000e8fb .LASF2765
C:\Users\CYMR90~1\AppData\Local\Temp\ccNy8eXk.s:26257  .debug_str:000000000001477b .LASF2766
C:\Users\CYMR90~1\AppData\Local\Temp\ccNy8eXk.s:26297  .debug_str:00000000000149c9 .LASF2767
C:\Users\CYMR90~1\AppData\Local\Temp\ccNy8eXk.s:24693  .debug_str:000000000000e488 .LASF2768
C:\Users\CYMR90~1\AppData\Local\Temp\ccNy8eXk.s:24597  .debug_str:000000000000deee .LASF2769
C:\Users\CYMR90~1\AppData\Local\Temp\ccNy8eXk.s:26831  .debug_str:0000000000016c0f .LASF2770
C:\Users\CYMR90~1\AppData\Local\Temp\ccNy8eXk.s:29704  .debug_str:00000000000222fc .LASF2771
C:\Users\CYMR90~1\AppData\Local\Temp\ccNy8eXk.s:24939  .debug_str:000000000000f348 .LASF2772
C:\Users\CYMR90~1\AppData\Local\Temp\ccNy8eXk.s:29608  .debug_str:0000000000021d73 .LASF2773
C:\Users\CYMR90~1\AppData\Local\Temp\ccNy8eXk.s:29776  .debug_str:000000000002271d .LASF2774
C:\Users\CYMR90~1\AppData\Local\Temp\ccNy8eXk.s:27736  .debug_str:000000000001a89b .LASF2775
C:\Users\CYMR90~1\AppData\Local\Temp\ccNy8eXk.s:26982  .debug_str:0000000000017680 .LASF2776
C:\Users\CYMR90~1\AppData\Local\Temp\ccNy8eXk.s:24705  .debug_str:000000000000e542 .LASF2777
C:\Users\CYMR90~1\AppData\Local\Temp\ccNy8eXk.s:25885  .debug_str:0000000000012fc8 .LASF2778
C:\Users\CYMR90~1\AppData\Local\Temp\ccNy8eXk.s:25851  .debug_str:0000000000012d87 .LASF2779
C:\Users\CYMR90~1\AppData\Local\Temp\ccNy8eXk.s:21907  .debug_str:00000000000031d4 .LASF2780
C:\Users\CYMR90~1\AppData\Local\Temp\ccNy8eXk.s:21789  .debug_str:0000000000002a6a .LASF2781
C:\Users\CYMR90~1\AppData\Local\Temp\ccNy8eXk.s:29362  .debug_str:0000000000020e49 .LASF2782
C:\Users\CYMR90~1\AppData\Local\Temp\ccNy8eXk.s:30380  .debug_str:0000000000024d37 .LASF2783
C:\Users\CYMR90~1\AppData\Local\Temp\ccNy8eXk.s:30046  .debug_str:0000000000023779 .LASF2784
C:\Users\CYMR90~1\AppData\Local\Temp\ccNy8eXk.s:23931  .debug_str:000000000000b3e3 .LASF2785
C:\Users\CYMR90~1\AppData\Local\Temp\ccNy8eXk.s:27122  .debug_str:0000000000017f5c .LASF2786
C:\Users\CYMR90~1\AppData\Local\Temp\ccNy8eXk.s:30358  .debug_str:0000000000024bbe .LASF2787
C:\Users\CYMR90~1\AppData\Local\Temp\ccNy8eXk.s:22201  .debug_str:00000000000044f9 .LASF2788
C:\Users\CYMR90~1\AppData\Local\Temp\ccNy8eXk.s:24285  .debug_str:000000000000cb9d .LASF2789
C:\Users\CYMR90~1\AppData\Local\Temp\ccNy8eXk.s:28550  .debug_str:000000000001dc9f .LASF2790
C:\Users\CYMR90~1\AppData\Local\Temp\ccNy8eXk.s:31810  .debug_str:000000000002a96b .LASF2791
C:\Users\CYMR90~1\AppData\Local\Temp\ccNy8eXk.s:23687  .debug_str:000000000000a35a .LASF2792
C:\Users\CYMR90~1\AppData\Local\Temp\ccNy8eXk.s:26896  .debug_str:0000000000017197 .LASF2793
C:\Users\CYMR90~1\AppData\Local\Temp\ccNy8eXk.s:30114  .debug_str:0000000000023b9b .LASF2794
C:\Users\CYMR90~1\AppData\Local\Temp\ccNy8eXk.s:28282  .debug_str:000000000001ca9f .LASF2795
C:\Users\CYMR90~1\AppData\Local\Temp\ccNy8eXk.s:21627  .debug_str:00000000000020a9 .LASF2796
C:\Users\CYMR90~1\AppData\Local\Temp\ccNy8eXk.s:26361  .debug_str:0000000000014de6 .LASF2797
C:\Users\CYMR90~1\AppData\Local\Temp\ccNy8eXk.s:31092  .debug_str:0000000000027bb4 .LASF2798
C:\Users\CYMR90~1\AppData\Local\Temp\ccNy8eXk.s:23827  .debug_str:000000000000acaa .LASF2799
C:\Users\CYMR90~1\AppData\Local\Temp\ccNy8eXk.s:29142  .debug_str:00000000000200fe .LASF2800
C:\Users\CYMR90~1\AppData\Local\Temp\ccNy8eXk.s:31766  .debug_str:000000000002a6c8 .LASF2801
C:\Users\CYMR90~1\AppData\Local\Temp\ccNy8eXk.s:31976  .debug_str:000000000002b2e8 .LASF2802
C:\Users\CYMR90~1\AppData\Local\Temp\ccNy8eXk.s:27772  .debug_str:000000000001aaa3 .LASF2803
C:\Users\CYMR90~1\AppData\Local\Temp\ccNy8eXk.s:22947  .debug_str:00000000000073d4 .LASF2804
C:\Users\CYMR90~1\AppData\Local\Temp\ccNy8eXk.s:23247  .debug_str:00000000000087c5 .LASF2805
C:\Users\CYMR90~1\AppData\Local\Temp\ccNy8eXk.s:27182  .debug_str:00000000000182cf .LASF2806
C:\Users\CYMR90~1\AppData\Local\Temp\ccNy8eXk.s:32076  .debug_str:000000000002b9ac .LASF2807
C:\Users\CYMR90~1\AppData\Local\Temp\ccNy8eXk.s:25619  .debug_str:0000000000011e88 .LASF2808
C:\Users\CYMR90~1\AppData\Local\Temp\ccNy8eXk.s:29380  .debug_str:0000000000020f3e .LASF2809
C:\Users\CYMR90~1\AppData\Local\Temp\ccNy8eXk.s:22647  .debug_str:00000000000060dd .LASF2810
C:\Users\CYMR90~1\AppData\Local\Temp\ccNy8eXk.s:29388  .debug_str:0000000000020faa .LASF2811
C:\Users\CYMR90~1\AppData\Local\Temp\ccNy8eXk.s:30786  .debug_str:0000000000026866 .LASF2812
C:\Users\CYMR90~1\AppData\Local\Temp\ccNy8eXk.s:32184  .debug_str:000000000002c108 .LASF2813
C:\Users\CYMR90~1\AppData\Local\Temp\ccNy8eXk.s:22159  .debug_str:0000000000004255 .LASF2814
C:\Users\CYMR90~1\AppData\Local\Temp\ccNy8eXk.s:25893  .debug_str:0000000000013056 .LASF2815
C:\Users\CYMR90~1\AppData\Local\Temp\ccNy8eXk.s:31288  .debug_str:00000000000289a0 .LASF2816
C:\Users\CYMR90~1\AppData\Local\Temp\ccNy8eXk.s:29206  .debug_str:00000000000204be .LASF2817
C:\Users\CYMR90~1\AppData\Local\Temp\ccNy8eXk.s:28114  .debug_str:000000000001c001 .LASF2818
C:\Users\CYMR90~1\AppData\Local\Temp\ccNy8eXk.s:27678  .debug_str:000000000001a479 .LASF2819
C:\Users\CYMR90~1\AppData\Local\Temp\ccNy8eXk.s:27602  .debug_str:0000000000019e75 .LASF2820
C:\Users\CYMR90~1\AppData\Local\Temp\ccNy8eXk.s:29820  .debug_str:00000000000229a9 .LASF2821
C:\Users\CYMR90~1\AppData\Local\Temp\ccNy8eXk.s:28110  .debug_str:000000000001bfd4 .LASF2822
C:\Users\CYMR90~1\AppData\Local\Temp\ccNy8eXk.s:27244  .debug_str:000000000001867c .LASF2823
C:\Users\CYMR90~1\AppData\Local\Temp\ccNy8eXk.s:28626  .debug_str:000000000001e187 .LASF2824
C:\Users\CYMR90~1\AppData\Local\Temp\ccNy8eXk.s:25829  .debug_str:0000000000012c1b .LASF2825
C:\Users\CYMR90~1\AppData\Local\Temp\ccNy8eXk.s:24559  .debug_str:000000000000dc7a .LASF2826
C:\Users\CYMR90~1\AppData\Local\Temp\ccNy8eXk.s:23681  .debug_str:000000000000a2f7 .LASF2827
C:\Users\CYMR90~1\AppData\Local\Temp\ccNy8eXk.s:22789  .debug_str:0000000000006988 .LASF2828
C:\Users\CYMR90~1\AppData\Local\Temp\ccNy8eXk.s:21911  .debug_str:000000000000320a .LASF2829
C:\Users\CYMR90~1\AppData\Local\Temp\ccNy8eXk.s:32422  .debug_str:000000000002d08d .LASF2830
C:\Users\CYMR90~1\AppData\Local\Temp\ccNy8eXk.s:26717  .debug_str:00000000000163d7 .LASF2831
C:\Users\CYMR90~1\AppData\Local\Temp\ccNy8eXk.s:30284  .debug_str:00000000000246e8 .LASF2832
C:\Users\CYMR90~1\AppData\Local\Temp\ccNy8eXk.s:22123  .debug_str:0000000000003fcd .LASF2833
C:\Users\CYMR90~1\AppData\Local\Temp\ccNy8eXk.s:25395  .debug_str:0000000000010fb6 .LASF2834
C:\Users\CYMR90~1\AppData\Local\Temp\ccNy8eXk.s:28566  .debug_str:000000000001de0f .LASF2835
C:\Users\CYMR90~1\AppData\Local\Temp\ccNy8eXk.s:31828  .debug_str:000000000002aa44 .LASF2836
C:\Users\CYMR90~1\AppData\Local\Temp\ccNy8eXk.s:23699  .debug_str:000000000000a443 .LASF2837
C:\Users\CYMR90~1\AppData\Local\Temp\ccNy8eXk.s:29900  .debug_str:0000000000022ebc .LASF2838
C:\Users\CYMR90~1\AppData\Local\Temp\ccNy8eXk.s:32376  .debug_str:000000000002cd92 .LASF2839
C:\Users\CYMR90~1\AppData\Local\Temp\ccNy8eXk.s:25647  .debug_str:0000000000012079 .LASF2840
C:\Users\CYMR90~1\AppData\Local\Temp\ccNy8eXk.s:26517  .debug_str:0000000000015729 .LASF2841
C:\Users\CYMR90~1\AppData\Local\Temp\ccNy8eXk.s:21711  .debug_str:0000000000002568 .LASF2842
C:\Users\CYMR90~1\AppData\Local\Temp\ccNy8eXk.s:28350  .debug_str:000000000001d038 .LASF2843
C:\Users\CYMR90~1\AppData\Local\Temp\ccNy8eXk.s:27740  .debug_str:000000000001a8c9 .LASF2844
C:\Users\CYMR90~1\AppData\Local\Temp\ccNy8eXk.s:27778  .debug_str:000000000001ab2e .LASF2845
C:\Users\CYMR90~1\AppData\Local\Temp\ccNy8eXk.s:26743  .debug_str:000000000001650e .LASF2846
C:\Users\CYMR90~1\AppData\Local\Temp\ccNy8eXk.s:23997  .debug_str:000000000000b860 .LASF2847
C:\Users\CYMR90~1\AppData\Local\Temp\ccNy8eXk.s:26129  .debug_str:0000000000013f6a .LASF2848
C:\Users\CYMR90~1\AppData\Local\Temp\ccNy8eXk.s:30704  .debug_str:000000000002634c .LASF2849
C:\Users\CYMR90~1\AppData\Local\Temp\ccNy8eXk.s:27940  .debug_str:000000000001b57b .LASF2850
C:\Users\CYMR90~1\AppData\Local\Temp\ccNy8eXk.s:22629  .debug_str:0000000000005f88 .LASF2851
C:\Users\CYMR90~1\AppData\Local\Temp\ccNy8eXk.s:24557  .debug_str:000000000000dc58 .LASF2852
C:\Users\CYMR90~1\AppData\Local\Temp\ccNy8eXk.s:26437  .debug_str:00000000000152d2 .LASF2853
C:\Users\CYMR90~1\AppData\Local\Temp\ccNy8eXk.s:31068  .debug_str:00000000000279fb .LASF2854
C:\Users\CYMR90~1\AppData\Local\Temp\ccNy8eXk.s:24125  .debug_str:000000000000c128 .LASF2855
C:\Users\CYMR90~1\AppData\Local\Temp\ccNy8eXk.s:24687  .debug_str:000000000000e444 .LASF2856
C:\Users\CYMR90~1\AppData\Local\Temp\ccNy8eXk.s:28670  .debug_str:000000000001e40b .LASF2857
C:\Users\CYMR90~1\AppData\Local\Temp\ccNy8eXk.s:22383  .debug_str:00000000000050da .LASF2858
C:\Users\CYMR90~1\AppData\Local\Temp\ccNy8eXk.s:31934  .debug_str:000000000002b06b .LASF2859
C:\Users\CYMR90~1\AppData\Local\Temp\ccNy8eXk.s:30130  .debug_str:0000000000023c8d .LASF2860
C:\Users\CYMR90~1\AppData\Local\Temp\ccNy8eXk.s:30938  .debug_str:0000000000027185 .LASF2861
C:\Users\CYMR90~1\AppData\Local\Temp\ccNy8eXk.s:29352  .debug_str:0000000000020dc3 .LASF2862
C:\Users\CYMR90~1\AppData\Local\Temp\ccNy8eXk.s:32452  .debug_str:000000000002d271 .LASF2863
C:\Users\CYMR90~1\AppData\Local\Temp\ccNy8eXk.s:21883  .debug_str:0000000000003046 .LASF2864
C:\Users\CYMR90~1\AppData\Local\Temp\ccNy8eXk.s:21605  .debug_str:0000000000001f71 .LASF2865
C:\Users\CYMR90~1\AppData\Local\Temp\ccNy8eXk.s:28698  .debug_str:000000000001e5c7 .LASF2866
C:\Users\CYMR90~1\AppData\Local\Temp\ccNy8eXk.s:21859  .debug_str:0000000000002ecd .LASF2867
C:\Users\CYMR90~1\AppData\Local\Temp\ccNy8eXk.s:21153  .debug_str:0000000000000347 .LASF2868
C:\Users\CYMR90~1\AppData\Local\Temp\ccNy8eXk.s:32230  .debug_str:000000000002c3dc .LASF2869
C:\Users\CYMR90~1\AppData\Local\Temp\ccNy8eXk.s:30844  .debug_str:0000000000026bca .LASF2870
C:\Users\CYMR90~1\AppData\Local\Temp\ccNy8eXk.s:22613  .debug_str:0000000000005ea8 .LASF2871
C:\Users\CYMR90~1\AppData\Local\Temp\ccNy8eXk.s:31906  .debug_str:000000000002aeff .LASF2872
C:\Users\CYMR90~1\AppData\Local\Temp\ccNy8eXk.s:28268  .debug_str:000000000001c9de .LASF2873
C:\Users\CYMR90~1\AppData\Local\Temp\ccNy8eXk.s:29256  .debug_str:0000000000020835 .LASF2874
C:\Users\CYMR90~1\AppData\Local\Temp\ccNy8eXk.s:25063  .debug_str:000000000000fb34 .LASF2875
C:\Users\CYMR90~1\AppData\Local\Temp\ccNy8eXk.s:24193  .debug_str:000000000000c52b .LASF2876
C:\Users\CYMR90~1\AppData\Local\Temp\ccNy8eXk.s:28000  .debug_str:000000000001b932 .LASF2877
C:\Users\CYMR90~1\AppData\Local\Temp\ccNy8eXk.s:31248  .debug_str:00000000000286c9 .LASF2878
C:\Users\CYMR90~1\AppData\Local\Temp\ccNy8eXk.s:29664  .debug_str:000000000002208a .LASF2879
C:\Users\CYMR90~1\AppData\Local\Temp\ccNy8eXk.s:27990  .debug_str:000000000001b88e .LASF2880
C:\Users\CYMR90~1\AppData\Local\Temp\ccNy8eXk.s:22211  .debug_str:0000000000004597 .LASF2881
C:\Users\CYMR90~1\AppData\Local\Temp\ccNy8eXk.s:28314  .debug_str:000000000001ccb7 .LASF2882
C:\Users\CYMR90~1\AppData\Local\Temp\ccNy8eXk.s:31496  .debug_str:000000000002967f .LASF2883
C:\Users\CYMR90~1\AppData\Local\Temp\ccNy8eXk.s:23097  .debug_str:0000000000007d26 .LASF2884
C:\Users\CYMR90~1\AppData\Local\Temp\ccNy8eXk.s:28448  .debug_str:000000000001d627 .LASF2885
C:\Users\CYMR90~1\AppData\Local\Temp\ccNy8eXk.s:24497  .debug_str:000000000000d923 .LASF2886
C:\Users\CYMR90~1\AppData\Local\Temp\ccNy8eXk.s:31998  .debug_str:000000000002b463 .LASF2887
C:\Users\CYMR90~1\AppData\Local\Temp\ccNy8eXk.s:27116  .debug_str:0000000000017ef3 .LASF2888
C:\Users\CYMR90~1\AppData\Local\Temp\ccNy8eXk.s:22077  .debug_str:0000000000003c74 .LASF2889
C:\Users\CYMR90~1\AppData\Local\Temp\ccNy8eXk.s:32040  .debug_str:000000000002b710 .LASF2890
C:\Users\CYMR90~1\AppData\Local\Temp\ccNy8eXk.s:24761  .debug_str:000000000000e8d9 .LASF2891
C:\Users\CYMR90~1\AppData\Local\Temp\ccNy8eXk.s:24883  .debug_str:000000000000efcd .LASF2892
C:\Users\CYMR90~1\AppData\Local\Temp\ccNy8eXk.s:26343  .debug_str:0000000000014c99 .LASF2893
C:\Users\CYMR90~1\AppData\Local\Temp\ccNy8eXk.s:26241  .debug_str:000000000001464e .LASF2894
C:\Users\CYMR90~1\AppData\Local\Temp\ccNy8eXk.s:24907  .debug_str:000000000000f135 .LASF2895
C:\Users\CYMR90~1\AppData\Local\Temp\ccNy8eXk.s:24585  .debug_str:000000000000de02 .LASF2896
C:\Users\CYMR90~1\AppData\Local\Temp\ccNy8eXk.s:30064  .debug_str:00000000000238b9 .LASF2897
C:\Users\CYMR90~1\AppData\Local\Temp\ccNy8eXk.s:26928  .debug_str:0000000000017376 .LASF2898
C:\Users\CYMR90~1\AppData\Local\Temp\ccNy8eXk.s:26025  .debug_str:000000000001393a .LASF2899
C:\Users\CYMR90~1\AppData\Local\Temp\ccNy8eXk.s:23315  .debug_str:0000000000008c19 .LASF2900
C:\Users\CYMR90~1\AppData\Local\Temp\ccNy8eXk.s:31752  .debug_str:000000000002a5bd .LASF2901
C:\Users\CYMR90~1\AppData\Local\Temp\ccNy8eXk.s:32220  .debug_str:000000000002c35b .LASF2902
C:\Users\CYMR90~1\AppData\Local\Temp\ccNy8eXk.s:26429  .debug_str:0000000000015242 .LASF2903
C:\Users\CYMR90~1\AppData\Local\Temp\ccNy8eXk.s:22461  .debug_str:0000000000005571 .LASF2904
C:\Users\CYMR90~1\AppData\Local\Temp\ccNy8eXk.s:26613  .debug_str:0000000000015d3c .LASF2905
C:\Users\CYMR90~1\AppData\Local\Temp\ccNy8eXk.s:29800  .debug_str:0000000000022892 .LASF2906
C:\Users\CYMR90~1\AppData\Local\Temp\ccNy8eXk.s:25251  .debug_str:00000000000106e1 .LASF2907
C:\Users\CYMR90~1\AppData\Local\Temp\ccNy8eXk.s:23721  .debug_str:000000000000a599 .LASF2908
C:\Users\CYMR90~1\AppData\Local\Temp\ccNy8eXk.s:21253  .debug_str:0000000000000943 .LASF2909
C:\Users\CYMR90~1\AppData\Local\Temp\ccNy8eXk.s:29250  .debug_str:00000000000207b6 .LASF2910
C:\Users\CYMR90~1\AppData\Local\Temp\ccNy8eXk.s:32292  .debug_str:000000000002c7df .LASF2911
C:\Users\CYMR90~1\AppData\Local\Temp\ccNy8eXk.s:30194  .debug_str:0000000000024039 .LASF2912
C:\Users\CYMR90~1\AppData\Local\Temp\ccNy8eXk.s:29570  .debug_str:0000000000021afd .LASF2913
C:\Users\CYMR90~1\AppData\Local\Temp\ccNy8eXk.s:22417  .debug_str:00000000000052c6 .LASF2914
C:\Users\CYMR90~1\AppData\Local\Temp\ccNy8eXk.s:32428  .debug_str:000000000002d0db .LASF2915
C:\Users\CYMR90~1\AppData\Local\Temp\ccNy8eXk.s:24781  .debug_str:000000000000e9ee .LASF2916
C:\Users\CYMR90~1\AppData\Local\Temp\ccNy8eXk.s:28126  .debug_str:000000000001c0b1 .LASF2917
C:\Users\CYMR90~1\AppData\Local\Temp\ccNy8eXk.s:29826  .debug_str:0000000000022a1d .LASF2918
C:\Users\CYMR90~1\AppData\Local\Temp\ccNy8eXk.s:30422  .debug_str:0000000000024fee .LASF2919
C:\Users\CYMR90~1\AppData\Local\Temp\ccNy8eXk.s:24495  .debug_str:000000000000d90a .LASF2920
C:\Users\CYMR90~1\AppData\Local\Temp\ccNy8eXk.s:29240  .debug_str:0000000000020724 .LASF2921
C:\Users\CYMR90~1\AppData\Local\Temp\ccNy8eXk.s:31608  .debug_str:0000000000029d6a .LASF2922
C:\Users\CYMR90~1\AppData\Local\Temp\ccNy8eXk.s:24147  .debug_str:000000000000c290 .LASF2923
C:\Users\CYMR90~1\AppData\Local\Temp\ccNy8eXk.s:22931  .debug_str:00000000000072be .LASF2924
C:\Users\CYMR90~1\AppData\Local\Temp\ccNy8eXk.s:29412  .debug_str:00000000000210f0 .LASF2925
C:\Users\CYMR90~1\AppData\Local\Temp\ccNy8eXk.s:25107  .debug_str:000000000000fdf3 .LASF2926
C:\Users\CYMR90~1\AppData\Local\Temp\ccNy8eXk.s:21867  .debug_str:0000000000002f4f .LASF2927
C:\Users\CYMR90~1\AppData\Local\Temp\ccNy8eXk.s:24205  .debug_str:000000000000c5f6 .LASF2928
C:\Users\CYMR90~1\AppData\Local\Temp\ccNy8eXk.s:24711  .debug_str:000000000000e5a4 .LASF2929
C:\Users\CYMR90~1\AppData\Local\Temp\ccNy8eXk.s:32030  .debug_str:000000000002b684 .LASF2930
C:\Users\CYMR90~1\AppData\Local\Temp\ccNy8eXk.s:22901  .debug_str:000000000000707c .LASF2931
C:\Users\CYMR90~1\AppData\Local\Temp\ccNy8eXk.s:29138  .debug_str:00000000000200bf .LASF2932
C:\Users\CYMR90~1\AppData\Local\Temp\ccNy8eXk.s:25095  .debug_str:000000000000fd20 .LASF2933
C:\Users\CYMR90~1\AppData\Local\Temp\ccNy8eXk.s:26940  .debug_str:0000000000017436 .LASF2934
C:\Users\CYMR90~1\AppData\Local\Temp\ccNy8eXk.s:23537  .debug_str:00000000000099f8 .LASF2935
C:\Users\CYMR90~1\AppData\Local\Temp\ccNy8eXk.s:23641  .debug_str:000000000000a085 .LASF2936
C:\Users\CYMR90~1\AppData\Local\Temp\ccNy8eXk.s:24663  .debug_str:000000000000e2cb .LASF2937
C:\Users\CYMR90~1\AppData\Local\Temp\ccNy8eXk.s:23755  .debug_str:000000000000a767 .LASF2938
C:\Users\CYMR90~1\AppData\Local\Temp\ccNy8eXk.s:30424  .debug_str:0000000000025005 .LASF2939
C:\Users\CYMR90~1\AppData\Local\Temp\ccNy8eXk.s:24835  .debug_str:000000000000ed69 .LASF2940
C:\Users\CYMR90~1\AppData\Local\Temp\ccNy8eXk.s:25391  .debug_str:0000000000010f77 .LASF2941
C:\Users\CYMR90~1\AppData\Local\Temp\ccNy8eXk.s:31172  .debug_str:000000000002814c .LASF2942
C:\Users\CYMR90~1\AppData\Local\Temp\ccNy8eXk.s:23283  .debug_str:0000000000008a0c .LASF2943
C:\Users\CYMR90~1\AppData\Local\Temp\ccNy8eXk.s:27002  .debug_str:00000000000177df .LASF2944
C:\Users\CYMR90~1\AppData\Local\Temp\ccNy8eXk.s:31268  .debug_str:0000000000028848 .LASF2945
C:\Users\CYMR90~1\AppData\Local\Temp\ccNy8eXk.s:21141  .debug_str:000000000000025a .LASF2946
C:\Users\CYMR90~1\AppData\Local\Temp\ccNy8eXk.s:22131  .debug_str:000000000000404f .LASF2947
C:\Users\CYMR90~1\AppData\Local\Temp\ccNy8eXk.s:28176  .debug_str:000000000001c3c5 .LASF2948
C:\Users\CYMR90~1\AppData\Local\Temp\ccNy8eXk.s:27980  .debug_str:000000000001b7f2 .LASF2949
C:\Users\CYMR90~1\AppData\Local\Temp\ccNy8eXk.s:30438  .debug_str:00000000000250d9 .LASF2950
C:\Users\CYMR90~1\AppData\Local\Temp\ccNy8eXk.s:24501  .debug_str:000000000000d967 .LASF2951
C:\Users\CYMR90~1\AppData\Local\Temp\ccNy8eXk.s:27590  .debug_str:0000000000019de2 .LASF2952
C:\Users\CYMR90~1\AppData\Local\Temp\ccNy8eXk.s:21383  .debug_str:00000000000011c8 .LASF2953
C:\Users\CYMR90~1\AppData\Local\Temp\ccNy8eXk.s:24881  .debug_str:000000000000efb3 .LASF2954
C:\Users\CYMR90~1\AppData\Local\Temp\ccNy8eXk.s:28180  .debug_str:000000000001c3f9 .LASF2955
C:\Users\CYMR90~1\AppData\Local\Temp\ccNy8eXk.s:31542  .debug_str:0000000000029979 .LASF2956
C:\Users\CYMR90~1\AppData\Local\Temp\ccNy8eXk.s:21519  .debug_str:0000000000001a1c .LASF2957
C:\Users\CYMR90~1\AppData\Local\Temp\ccNy8eXk.s:23607  .debug_str:0000000000009e4f .LASF2958
C:\Users\CYMR90~1\AppData\Local\Temp\ccNy8eXk.s:30968  .debug_str:00000000000273fa .LASF2959
C:\Users\CYMR90~1\AppData\Local\Temp\ccNy8eXk.s:23171  .debug_str:000000000000831c .LASF2960
C:\Users\CYMR90~1\AppData\Local\Temp\ccNy8eXk.s:24669  .debug_str:000000000000e344 .LASF2961
C:\Users\CYMR90~1\AppData\Local\Temp\ccNy8eXk.s:30198  .debug_str:000000000002407e .LASF2962
C:\Users\CYMR90~1\AppData\Local\Temp\ccNy8eXk.s:27522  .debug_str:0000000000019998 .LASF2963
C:\Users\CYMR90~1\AppData\Local\Temp\ccNy8eXk.s:23559  .debug_str:0000000000009b75 .LASF2964
C:\Users\CYMR90~1\AppData\Local\Temp\ccNy8eXk.s:28926  .debug_str:000000000001f3be .LASF2965
C:\Users\CYMR90~1\AppData\Local\Temp\ccNy8eXk.s:23145  .debug_str:00000000000080dd .LASF2966
C:\Users\CYMR90~1\AppData\Local\Temp\ccNy8eXk.s:30498  .debug_str:00000000000255c0 .LASF2967
C:\Users\CYMR90~1\AppData\Local\Temp\ccNy8eXk.s:30820  .debug_str:0000000000026a62 .LASF2968
C:\Users\CYMR90~1\AppData\Local\Temp\ccNy8eXk.s:25471  .debug_str:0000000000011425 .LASF2969
C:\Users\CYMR90~1\AppData\Local\Temp\ccNy8eXk.s:30334  .debug_str:0000000000024a84 .LASF2970
C:\Users\CYMR90~1\AppData\Local\Temp\ccNy8eXk.s:29390  .debug_str:0000000000020fca .LASF2971
C:\Users\CYMR90~1\AppData\Local\Temp\ccNy8eXk.s:25361  .debug_str:0000000000010e0c .LASF2972
C:\Users\CYMR90~1\AppData\Local\Temp\ccNy8eXk.s:30912  .debug_str:0000000000027030 .LASF2973
C:\Users\CYMR90~1\AppData\Local\Temp\ccNy8eXk.s:30068  .debug_str:00000000000238f6 .LASF2974
C:\Users\CYMR90~1\AppData\Local\Temp\ccNy8eXk.s:26886  .debug_str:0000000000017115 .LASF2975
C:\Users\CYMR90~1\AppData\Local\Temp\ccNy8eXk.s:26633  .debug_str:0000000000015eab .LASF2976
C:\Users\CYMR90~1\AppData\Local\Temp\ccNy8eXk.s:28880  .debug_str:000000000001f0f3 .LASF2977
C:\Users\CYMR90~1\AppData\Local\Temp\ccNy8eXk.s:25321  .debug_str:0000000000010b52 .LASF2978
C:\Users\CYMR90~1\AppData\Local\Temp\ccNy8eXk.s:25447  .debug_str:00000000000112ee .LASF2979
C:\Users\CYMR90~1\AppData\Local\Temp\ccNy8eXk.s:24851  .debug_str:000000000000ee36 .LASF2980
C:\Users\CYMR90~1\AppData\Local\Temp\ccNy8eXk.s:24985  .debug_str:000000000000f61f .LASF2981
C:\Users\CYMR90~1\AppData\Local\Temp\ccNy8eXk.s:28612  .debug_str:000000000001e0dd .LASF2982
C:\Users\CYMR90~1\AppData\Local\Temp\ccNy8eXk.s:31286  .debug_str:0000000000028987 .LASF2983
C:\Users\CYMR90~1\AppData\Local\Temp\ccNy8eXk.s:26755  .debug_str:000000000001664c .LASF2984
C:\Users\CYMR90~1\AppData\Local\Temp\ccNy8eXk.s:30190  .debug_str:000000000002400a .LASF2985
C:\Users\CYMR90~1\AppData\Local\Temp\ccNy8eXk.s:21665  .debug_str:000000000000229e .LASF2986
C:\Users\CYMR90~1\AppData\Local\Temp\ccNy8eXk.s:22923  .debug_str:0000000000007216 .LASF2987
C:\Users\CYMR90~1\AppData\Local\Temp\ccNy8eXk.s:30370  .debug_str:0000000000024c97 .LASF2988
C:\Users\CYMR90~1\AppData\Local\Temp\ccNy8eXk.s:23659  .debug_str:000000000000a195 .LASF2989
C:\Users\CYMR90~1\AppData\Local\Temp\ccNy8eXk.s:26133  .debug_str:0000000000013fa0 .LASF2990
C:\Users\CYMR90~1\AppData\Local\Temp\ccNy8eXk.s:24811  .debug_str:000000000000ebd9 .LASF2991
C:\Users\CYMR90~1\AppData\Local\Temp\ccNy8eXk.s:26483  .debug_str:0000000000015556 .LASF2992
C:\Users\CYMR90~1\AppData\Local\Temp\ccNy8eXk.s:29330  .debug_str:0000000000020c88 .LASF2993
C:\Users\CYMR90~1\AppData\Local\Temp\ccNy8eXk.s:27270  .debug_str:0000000000018801 .LASF2994
C:\Users\CYMR90~1\AppData\Local\Temp\ccNy8eXk.s:29184  .debug_str:0000000000020324 .LASF2995
C:\Users\CYMR90~1\AppData\Local\Temp\ccNy8eXk.s:31426  .debug_str:00000000000291dc .LASF2996
C:\Users\CYMR90~1\AppData\Local\Temp\ccNy8eXk.s:29846  .debug_str:0000000000022b2a .LASF2997
C:\Users\CYMR90~1\AppData\Local\Temp\ccNy8eXk.s:24215  .debug_str:000000000000c67f .LASF2998
C:\Users\CYMR90~1\AppData\Local\Temp\ccNy8eXk.s:32242  .debug_str:000000000002c503 .LASF2999
C:\Users\CYMR90~1\AppData\Local\Temp\ccNy8eXk.s:28974  .debug_str:000000000001f687 .LASF3000
C:\Users\CYMR90~1\AppData\Local\Temp\ccNy8eXk.s:30950  .debug_str:0000000000027232 .LASF3001
C:\Users\CYMR90~1\AppData\Local\Temp\ccNy8eXk.s:30692  .debug_str:00000000000262bc .LASF3002
C:\Users\CYMR90~1\AppData\Local\Temp\ccNy8eXk.s:24123  .debug_str:000000000000c100 .LASF3003
C:\Users\CYMR90~1\AppData\Local\Temp\ccNy8eXk.s:26529  .debug_str:00000000000157ca .LASF3004
C:\Users\CYMR90~1\AppData\Local\Temp\ccNy8eXk.s:26431  .debug_str:000000000001526d .LASF3005
C:\Users\CYMR90~1\AppData\Local\Temp\ccNy8eXk.s:27332  .debug_str:0000000000018c9d .LASF3006
C:\Users\CYMR90~1\AppData\Local\Temp\ccNy8eXk.s:29010  .debug_str:000000000001f8b6 .LASF3007
C:\Users\CYMR90~1\AppData\Local\Temp\ccNy8eXk.s:29536  .debug_str:00000000000218fd .LASF3008
C:\Users\CYMR90~1\AppData\Local\Temp\ccNy8eXk.s:32380  .debug_str:000000000002cdb6 .LASF3009
C:\Users\CYMR90~1\AppData\Local\Temp\ccNy8eXk.s:25043  .debug_str:000000000000fa13 .LASF3010
C:\Users\CYMR90~1\AppData\Local\Temp\ccNy8eXk.s:21881  .debug_str:000000000000301a .LASF3011
C:\Users\CYMR90~1\AppData\Local\Temp\ccNy8eXk.s:24899  .debug_str:000000000000f0c4 .LASF3012
C:\Users\CYMR90~1\AppData\Local\Temp\ccNy8eXk.s:29208  .debug_str:00000000000204e3 .LASF3013
C:\Users\CYMR90~1\AppData\Local\Temp\ccNy8eXk.s:26505  .debug_str:0000000000015674 .LASF3014
C:\Users\CYMR90~1\AppData\Local\Temp\ccNy8eXk.s:22671  .debug_str:0000000000006263 .LASF3015
C:\Users\CYMR90~1\AppData\Local\Temp\ccNy8eXk.s:28122  .debug_str:000000000001c07a .LASF3016
C:\Users\CYMR90~1\AppData\Local\Temp\ccNy8eXk.s:27150  .debug_str:00000000000180cf .LASF3017
C:\Users\CYMR90~1\AppData\Local\Temp\ccNy8eXk.s:29044  .debug_str:000000000001fae6 .LASF3018
C:\Users\CYMR90~1\AppData\Local\Temp\ccNy8eXk.s:25323  .debug_str:0000000000010b6a .LASF3019
C:\Users\CYMR90~1\AppData\Local\Temp\ccNy8eXk.s:31218  .debug_str:00000000000284b5 .LASF3020
C:\Users\CYMR90~1\AppData\Local\Temp\ccNy8eXk.s:23381  .debug_str:0000000000009044 .LASF3021
C:\Users\CYMR90~1\AppData\Local\Temp\ccNy8eXk.s:22469  .debug_str:000000000000560f .LASF3022
C:\Users\CYMR90~1\AppData\Local\Temp\ccNy8eXk.s:21501  .debug_str:0000000000001928 .LASF3023
C:\Users\CYMR90~1\AppData\Local\Temp\ccNy8eXk.s:26119  .debug_str:0000000000013ec3 .LASF3024
C:\Users\CYMR90~1\AppData\Local\Temp\ccNy8eXk.s:29482  .debug_str:00000000000215ae .LASF3025
C:\Users\CYMR90~1\AppData\Local\Temp\ccNy8eXk.s:28510  .debug_str:000000000001da47 .LASF3026
C:\Users\CYMR90~1\AppData\Local\Temp\ccNy8eXk.s:27670  .debug_str:000000000001a266 .LASF3027
C:\Users\CYMR90~1\AppData\Local\Temp\ccNy8eXk.s:26675  .debug_str:000000000001615d .LASF3028
C:\Users\CYMR90~1\AppData\Local\Temp\ccNy8eXk.s:25739  .debug_str:0000000000012637 .LASF3029
C:\Users\CYMR90~1\AppData\Local\Temp\ccNy8eXk.s:24773  .debug_str:000000000000e97d .LASF3030
C:\Users\CYMR90~1\AppData\Local\Temp\ccNy8eXk.s:24915  .debug_str:000000000000f1ac .LASF3031
C:\Users\CYMR90~1\AppData\Local\Temp\ccNy8eXk.s:30904  .debug_str:0000000000026f9b .LASF3032
C:\Users\CYMR90~1\AppData\Local\Temp\ccNy8eXk.s:30688  .debug_str:0000000000026266 .LASF3033
C:\Users\CYMR90~1\AppData\Local\Temp\ccNy8eXk.s:25227  .debug_str:0000000000010571 .LASF3034
C:\Users\CYMR90~1\AppData\Local\Temp\ccNy8eXk.s:24079  .debug_str:000000000000bd9e .LASF3035
C:\Users\CYMR90~1\AppData\Local\Temp\ccNy8eXk.s:22977  .debug_str:00000000000075b9 .LASF3036
C:\Users\CYMR90~1\AppData\Local\Temp\ccNy8eXk.s:28342  .debug_str:000000000001cf1f .LASF3037
C:\Users\CYMR90~1\AppData\Local\Temp\ccNy8eXk.s:29960  .debug_str:00000000000231e4 .LASF3038
C:\Users\CYMR90~1\AppData\Local\Temp\ccNy8eXk.s:24251  .debug_str:000000000000c92b .LASF3039
C:\Users\CYMR90~1\AppData\Local\Temp\ccNy8eXk.s:22537  .debug_str:0000000000005a30 .LASF3040
C:\Users\CYMR90~1\AppData\Local\Temp\ccNy8eXk.s:22317  .debug_str:0000000000004ce4 .LASF3041
C:\Users\CYMR90~1\AppData\Local\Temp\ccNy8eXk.s:28258  .debug_str:000000000001c94e .LASF3042
C:\Users\CYMR90~1\AppData\Local\Temp\ccNy8eXk.s:26771  .debug_str:0000000000016767 .LASF3043
C:\Users\CYMR90~1\AppData\Local\Temp\ccNy8eXk.s:21813  .debug_str:0000000000002c1a .LASF3044
C:\Users\CYMR90~1\AppData\Local\Temp\ccNy8eXk.s:32320  .debug_str:000000000002c9ec .LASF3045
C:\Users\CYMR90~1\AppData\Local\Temp\ccNy8eXk.s:31256  .debug_str:0000000000028761 .LASF3046
C:\Users\CYMR90~1\AppData\Local\Temp\ccNy8eXk.s:22283  .debug_str:0000000000004ace .LASF3047
C:\Users\CYMR90~1\AppData\Local\Temp\ccNy8eXk.s:28102  .debug_str:000000000001bf4d .LASF3048
C:\Users\CYMR90~1\AppData\Local\Temp\ccNy8eXk.s:25327  .debug_str:0000000000010baf .LASF3049
C:\Users\CYMR90~1\AppData\Local\Temp\ccNy8eXk.s:28396  .debug_str:000000000001d2f0 .LASF3050
C:\Users\CYMR90~1\AppData\Local\Temp\ccNy8eXk.s:21193  .debug_str:0000000000000587 .LASF3051
C:\Users\CYMR90~1\AppData\Local\Temp\ccNy8eXk.s:25915  .debug_str:00000000000131a6 .LASF3052
C:\Users\CYMR90~1\AppData\Local\Temp\ccNy8eXk.s:30636  .debug_str:0000000000025f19 .LASF3053
C:\Users\CYMR90~1\AppData\Local\Temp\ccNy8eXk.s:25823  .debug_str:0000000000012bdd .LASF3054
C:\Users\CYMR90~1\AppData\Local\Temp\ccNy8eXk.s:22695  .debug_str:00000000000063e1 .LASF3055
C:\Users\CYMR90~1\AppData\Local\Temp\ccNy8eXk.s:27114  .debug_str:0000000000017edb .LASF3056
C:\Users\CYMR90~1\AppData\Local\Temp\ccNy8eXk.s:25573  .debug_str:0000000000011bdd .LASF3057
C:\Users\CYMR90~1\AppData\Local\Temp\ccNy8eXk.s:24119  .debug_str:000000000000c0be .LASF3058
C:\Users\CYMR90~1\AppData\Local\Temp\ccNy8eXk.s:27966  .debug_str:000000000001b703 .LASF3059
C:\Users\CYMR90~1\AppData\Local\Temp\ccNy8eXk.s:24469  .debug_str:000000000000d7a5 .LASF3060
C:\Users\CYMR90~1\AppData\Local\Temp\ccNy8eXk.s:23447  .debug_str:0000000000009415 .LASF3061
C:\Users\CYMR90~1\AppData\Local\Temp\ccNy8eXk.s:30344  .debug_str:0000000000024af9 .LASF3062
C:\Users\CYMR90~1\AppData\Local\Temp\ccNy8eXk.s:25617  .debug_str:0000000000011e68 .LASF3063
C:\Users\CYMR90~1\AppData\Local\Temp\ccNy8eXk.s:29930  .debug_str:000000000002304b .LASF3064
C:\Users\CYMR90~1\AppData\Local\Temp\ccNy8eXk.s:23781  .debug_str:000000000000aa07 .LASF3065
C:\Users\CYMR90~1\AppData\Local\Temp\ccNy8eXk.s:27536  .debug_str:0000000000019aa5 .LASF3066
C:\Users\CYMR90~1\AppData\Local\Temp\ccNy8eXk.s:30868  .debug_str:0000000000026d40 .LASF3067
C:\Users\CYMR90~1\AppData\Local\Temp\ccNy8eXk.s:24499  .debug_str:000000000000d942 .LASF3068
C:\Users\CYMR90~1\AppData\Local\Temp\ccNy8eXk.s:22587  .debug_str:0000000000005d25 .LASF3069
C:\Users\CYMR90~1\AppData\Local\Temp\ccNy8eXk.s:24105  .debug_str:000000000000bfab .LASF3070
C:\Users\CYMR90~1\AppData\Local\Temp\ccNy8eXk.s:22885  .debug_str:0000000000006f9f .LASF3071
C:\Users\CYMR90~1\AppData\Local\Temp\ccNy8eXk.s:24799  .debug_str:000000000000eb42 .LASF3072
C:\Users\CYMR90~1\AppData\Local\Temp\ccNy8eXk.s:21339  .debug_str:0000000000000f35 .LASF3073
C:\Users\CYMR90~1\AppData\Local\Temp\ccNy8eXk.s:32054  .debug_str:000000000002b824 .LASF3074
C:\Users\CYMR90~1\AppData\Local\Temp\ccNy8eXk.s:31650  .debug_str:0000000000029fbf .LASF3075
C:\Users\CYMR90~1\AppData\Local\Temp\ccNy8eXk.s:29056  .debug_str:000000000001fba4 .LASF3076
C:\Users\CYMR90~1\AppData\Local\Temp\ccNy8eXk.s:30188  .debug_str:0000000000023ff2 .LASF3077
C:\Users\CYMR90~1\AppData\Local\Temp\ccNy8eXk.s:28630  .debug_str:000000000001e1bd .LASF3078
C:\Users\CYMR90~1\AppData\Local\Temp\ccNy8eXk.s:29016  .debug_str:000000000001f900 .LASF3079
C:\Users\CYMR90~1\AppData\Local\Temp\ccNy8eXk.s:31008  .debug_str:000000000002765e .LASF3080
C:\Users\CYMR90~1\AppData\Local\Temp\ccNy8eXk.s:26209  .debug_str:000000000001443d .LASF3081
C:\Users\CYMR90~1\AppData\Local\Temp\ccNy8eXk.s:26777  .debug_str:00000000000167c2 .LASF3082
C:\Users\CYMR90~1\AppData\Local\Temp\ccNy8eXk.s:21597  .debug_str:0000000000001ef4 .LASF3083
C:\Users\CYMR90~1\AppData\Local\Temp\ccNy8eXk.s:29002  .debug_str:000000000001f818 .LASF3084
C:\Users\CYMR90~1\AppData\Local\Temp\ccNy8eXk.s:28952  .debug_str:000000000001f53f .LASF3085
C:\Users\CYMR90~1\AppData\Local\Temp\ccNy8eXk.s:28074  .debug_str:000000000001bd70 .LASF3086
C:\Users\CYMR90~1\AppData\Local\Temp\ccNy8eXk.s:21769  .debug_str:0000000000002950 .LASF3087
C:\Users\CYMR90~1\AppData\Local\Temp\ccNy8eXk.s:30504  .debug_str:0000000000025623 .LASF3088
C:\Users\CYMR90~1\AppData\Local\Temp\ccNy8eXk.s:24385  .debug_str:000000000000d17e .LASF3089
C:\Users\CYMR90~1\AppData\Local\Temp\ccNy8eXk.s:22129  .debug_str:0000000000004029 .LASF3090
C:\Users\CYMR90~1\AppData\Local\Temp\ccNy8eXk.s:21863  .debug_str:0000000000002f04 .LASF3091
C:\Users\CYMR90~1\AppData\Local\Temp\ccNy8eXk.s:23279  .debug_str:00000000000089d2 .LASF3092
C:\Users\CYMR90~1\AppData\Local\Temp\ccNy8eXk.s:29744  .debug_str:000000000002251d .LASF3093
C:\Users\CYMR90~1\AppData\Local\Temp\ccNy8eXk.s:29768  .debug_str:000000000002269e .LASF3094
C:\Users\CYMR90~1\AppData\Local\Temp\ccNy8eXk.s:23651  .debug_str:000000000000a122 .LASF3095
C:\Users\CYMR90~1\AppData\Local\Temp\ccNy8eXk.s:24591  .debug_str:000000000000de53 .LASF3096
C:\Users\CYMR90~1\AppData\Local\Temp\ccNy8eXk.s:30940  .debug_str:0000000000027199 .LASF3097
C:\Users\CYMR90~1\AppData\Local\Temp\ccNy8eXk.s:24633  .debug_str:000000000000e108 .LASF3098
C:\Users\CYMR90~1\AppData\Local\Temp\ccNy8eXk.s:30110  .debug_str:0000000000023b58 .LASF3099
C:\Users\CYMR90~1\AppData\Local\Temp\ccNy8eXk.s:27494  .debug_str:0000000000019745 .LASF3100
C:\Users\CYMR90~1\AppData\Local\Temp\ccNy8eXk.s:24113  .debug_str:000000000000c02f .LASF3101
C:\Users\CYMR90~1\AppData\Local\Temp\ccNy8eXk.s:29212  .debug_str:0000000000020525 .LASF3102
C:\Users\CYMR90~1\AppData\Local\Temp\ccNy8eXk.s:27046  .debug_str:0000000000017ac1 .LASF3103
C:\Users\CYMR90~1\AppData\Local\Temp\ccNy8eXk.s:31250  .debug_str:00000000000286ef .LASF3104
C:\Users\CYMR90~1\AppData\Local\Temp\ccNy8eXk.s:28724  .debug_str:000000000001e766 .LASF3105
C:\Users\CYMR90~1\AppData\Local\Temp\ccNy8eXk.s:28048  .debug_str:000000000001bb8d .LASF3106
C:\Users\CYMR90~1\AppData\Local\Temp\ccNy8eXk.s:31128  .debug_str:0000000000027e27 .LASF3107
C:\Users\CYMR90~1\AppData\Local\Temp\ccNy8eXk.s:21623  .debug_str:0000000000002078 .LASF3108
C:\Users\CYMR90~1\AppData\Local\Temp\ccNy8eXk.s:24825  .debug_str:000000000000ecd0 .LASF3109
C:\Users\CYMR90~1\AppData\Local\Temp\ccNy8eXk.s:24869  .debug_str:000000000000ef0c .LASF3110
C:\Users\CYMR90~1\AppData\Local\Temp\ccNy8eXk.s:30774  .debug_str:0000000000026784 .LASF3111
C:\Users\CYMR90~1\AppData\Local\Temp\ccNy8eXk.s:31134  .debug_str:0000000000027e8a .LASF3112
C:\Users\CYMR90~1\AppData\Local\Temp\ccNy8eXk.s:27140  .debug_str:000000000001804d .LASF3113
C:\Users\CYMR90~1\AppData\Local\Temp\ccNy8eXk.s:29878  .debug_str:0000000000022d7f .LASF3114
C:\Users\CYMR90~1\AppData\Local\Temp\ccNy8eXk.s:21457  .debug_str:00000000000015c3 .LASF3115
C:\Users\CYMR90~1\AppData\Local\Temp\ccNy8eXk.s:21761  .debug_str:00000000000028de .LASF3116
C:\Users\CYMR90~1\AppData\Local\Temp\ccNy8eXk.s:31728  .debug_str:000000000002a410 .LASF3117
C:\Users\CYMR90~1\AppData\Local\Temp\ccNy8eXk.s:22675  .debug_str:00000000000062cd .LASF3118
C:\Users\CYMR90~1\AppData\Local\Temp\ccNy8eXk.s:25919  .debug_str:00000000000131e8 .LASF3119
C:\Users\CYMR90~1\AppData\Local\Temp\ccNy8eXk.s:24459  .debug_str:000000000000d6ed .LASF3120
C:\Users\CYMR90~1\AppData\Local\Temp\ccNy8eXk.s:29438  .debug_str:0000000000021268 .LASF3121
C:\Users\CYMR90~1\AppData\Local\Temp\ccNy8eXk.s:27506  .debug_str:0000000000019847 .LASF3122
C:\Users\CYMR90~1\AppData\Local\Temp\ccNy8eXk.s:23629  .debug_str:0000000000009fad .LASF3123
C:\Users\CYMR90~1\AppData\Local\Temp\ccNy8eXk.s:23385  .debug_str:0000000000009081 .LASF3124
C:\Users\CYMR90~1\AppData\Local\Temp\ccNy8eXk.s:23981  .debug_str:000000000000b71e .LASF3125
C:\Users\CYMR90~1\AppData\Local\Temp\ccNy8eXk.s:22205  .debug_str:0000000000004531 .LASF3126
C:\Users\CYMR90~1\AppData\Local\Temp\ccNy8eXk.s:25345  .debug_str:0000000000010d45 .LASF3127
C:\Users\CYMR90~1\AppData\Local\Temp\ccNy8eXk.s:27028  .debug_str:00000000000179b8 .LASF3128
C:\Users\CYMR90~1\AppData\Local\Temp\ccNy8eXk.s:23255  .debug_str:0000000000008835 .LASF3129
C:\Users\CYMR90~1\AppData\Local\Temp\ccNy8eXk.s:24059  .debug_str:000000000000bc50 .LASF3130
C:\Users\CYMR90~1\AppData\Local\Temp\ccNy8eXk.s:24007  .debug_str:000000000000b90e .LASF3131
C:\Users\CYMR90~1\AppData\Local\Temp\ccNy8eXk.s:26932  .debug_str:00000000000173b1 .LASF3132
C:\Users\CYMR90~1\AppData\Local\Temp\ccNy8eXk.s:30864  .debug_str:0000000000026d07 .LASF3133
C:\Users\CYMR90~1\AppData\Local\Temp\ccNy8eXk.s:23729  .debug_str:000000000000a604 .LASF3134
C:\Users\CYMR90~1\AppData\Local\Temp\ccNy8eXk.s:21735  .debug_str:000000000000270e .LASF3135
C:\Users\CYMR90~1\AppData\Local\Temp\ccNy8eXk.s:28750  .debug_str:000000000001e90f .LASF3136
C:\Users\CYMR90~1\AppData\Local\Temp\ccNy8eXk.s:31900  .debug_str:000000000002aeae .LASF3137
C:\Users\CYMR90~1\AppData\Local\Temp\ccNy8eXk.s:27316  .debug_str:0000000000018afe .LASF3138
C:\Users\CYMR90~1\AppData\Local\Temp\ccNy8eXk.s:21531  .debug_str:0000000000001ae1 .LASF3139
C:\Users\CYMR90~1\AppData\Local\Temp\ccNy8eXk.s:32332  .debug_str:000000000002cad5 .LASF3140
C:\Users\CYMR90~1\AppData\Local\Temp\ccNy8eXk.s:26489  .debug_str:000000000001558a .LASF3141
C:\Users\CYMR90~1\AppData\Local\Temp\ccNy8eXk.s:30290  .debug_str:000000000002475d .LASF3142
C:\Users\CYMR90~1\AppData\Local\Temp\ccNy8eXk.s:23665  .debug_str:000000000000a1f6 .LASF3143
C:\Users\CYMR90~1\AppData\Local\Temp\ccNy8eXk.s:21555  .debug_str:0000000000001c7f .LASF3144
C:\Users\CYMR90~1\AppData\Local\Temp\ccNy8eXk.s:22701  .debug_str:000000000000644f .LASF3145
C:\Users\CYMR90~1\AppData\Local\Temp\ccNy8eXk.s:27926  .debug_str:000000000001b497 .LASF3146
C:\Users\CYMR90~1\AppData\Local\Temp\ccNy8eXk.s:22137  .debug_str:0000000000004098 .LASF3147
C:\Users\CYMR90~1\AppData\Local\Temp\ccNy8eXk.s:23391  .debug_str:00000000000090e4 .LASF3148
C:\Users\CYMR90~1\AppData\Local\Temp\ccNy8eXk.s:22447  .debug_str:00000000000054b2 .LASF3149
C:\Users\CYMR90~1\AppData\Local\Temp\ccNy8eXk.s:23799  .debug_str:000000000000aae1 .LASF3150
C:\Users\CYMR90~1\AppData\Local\Temp\ccNy8eXk.s:24131  .debug_str:000000000000c170 .LASF3151
C:\Users\CYMR90~1\AppData\Local\Temp\ccNy8eXk.s:21779  .debug_str:00000000000029ef .LASF3152
C:\Users\CYMR90~1\AppData\Local\Temp\ccNy8eXk.s:29726  .debug_str:0000000000022420 .LASF3153
C:\Users\CYMR90~1\AppData\Local\Temp\ccNy8eXk.s:26395  .debug_str:0000000000015039 .LASF3154
C:\Users\CYMR90~1\AppData\Local\Temp\ccNy8eXk.s:22973  .debug_str:0000000000007572 .LASF3155
C:\Users\CYMR90~1\AppData\Local\Temp\ccNy8eXk.s:27906  .debug_str:000000000001b368 .LASF3156
C:\Users\CYMR90~1\AppData\Local\Temp\ccNy8eXk.s:22585  .debug_str:0000000000005d06 .LASF3157
C:\Users\CYMR90~1\AppData\Local\Temp\ccNy8eXk.s:23481  .debug_str:0000000000009669 .LASF3158
C:\Users\CYMR90~1\AppData\Local\Temp\ccNy8eXk.s:25759  .debug_str:000000000001278e .LASF3159
C:\Users\CYMR90~1\AppData\Local\Temp\ccNy8eXk.s:22683  .debug_str:0000000000006354 .LASF3160
C:\Users\CYMR90~1\AppData\Local\Temp\ccNy8eXk.s:31114  .debug_str:0000000000027d14 .LASF3161
C:\Users\CYMR90~1\AppData\Local\Temp\ccNy8eXk.s:27130  .debug_str:0000000000017fc1 .LASF3162
C:\Users\CYMR90~1\AppData\Local\Temp\ccNy8eXk.s:25973  .debug_str:00000000000135f7 .LASF3163
C:\Users\CYMR90~1\AppData\Local\Temp\ccNy8eXk.s:29742  .debug_str:0000000000022504 .LASF3164
C:\Users\CYMR90~1\AppData\Local\Temp\ccNy8eXk.s:31552  .debug_str:00000000000299ee .LASF3165
C:\Users\CYMR90~1\AppData\Local\Temp\ccNy8eXk.s:27766  .debug_str:000000000001aa50 .LASF3166
C:\Users\CYMR90~1\AppData\Local\Temp\ccNy8eXk.s:22843  .debug_str:0000000000006cdb .LASF3167
C:\Users\CYMR90~1\AppData\Local\Temp\ccNy8eXk.s:22453  .debug_str:00000000000054f6 .LASF3168
C:\Users\CYMR90~1\AppData\Local\Temp\ccNy8eXk.s:28668  .debug_str:000000000001e3ee .LASF3169
C:\Users\CYMR90~1\AppData\Local\Temp\ccNy8eXk.s:24691  .debug_str:000000000000e46a .LASF3170
C:\Users\CYMR90~1\AppData\Local\Temp\ccNy8eXk.s:29948  .debug_str:0000000000023133 .LASF3171
C:\Users\CYMR90~1\AppData\Local\Temp\ccNy8eXk.s:26984  .debug_str:00000000000176b9 .LASF3172
C:\Users\CYMR90~1\AppData\Local\Temp\ccNy8eXk.s:30408  .debug_str:0000000000024f0b .LASF3173
C:\Users\CYMR90~1\AppData\Local\Temp\ccNy8eXk.s:29784  .debug_str:000000000002278d .LASF3174
C:\Users\CYMR90~1\AppData\Local\Temp\ccNy8eXk.s:27042  .debug_str:0000000000017a98 .LASF3175
C:\Users\CYMR90~1\AppData\Local\Temp\ccNy8eXk.s:31988  .debug_str:000000000002b3af .LASF3176
C:\Users\CYMR90~1\AppData\Local\Temp\ccNy8eXk.s:32296  .debug_str:000000000002c83b .LASF3177
C:\Users\CYMR90~1\AppData\Local\Temp\ccNy8eXk.s:26027  .debug_str:0000000000013969 .LASF3178
C:\Users\CYMR90~1\AppData\Local\Temp\ccNy8eXk.s:22083  .debug_str:0000000000003ce7 .LASF3179
C:\Users\CYMR90~1\AppData\Local\Temp\ccNy8eXk.s:24917  .debug_str:000000000000f1db .LASF3180
C:\Users\CYMR90~1\AppData\Local\Temp\ccNy8eXk.s:22053  .debug_str:0000000000003aff .LASF3181
C:\Users\CYMR90~1\AppData\Local\Temp\ccNy8eXk.s:25459  .debug_str:0000000000011382 .LASF3182
C:\Users\CYMR90~1\AppData\Local\Temp\ccNy8eXk.s:25279  .debug_str:000000000001089d .LASF3183
C:\Users\CYMR90~1\AppData\Local\Temp\ccNy8eXk.s:22813  .debug_str:0000000000006aed .LASF3184
C:\Users\CYMR90~1\AppData\Local\Temp\ccNy8eXk.s:25667  .debug_str:00000000000121d6 .LASF3185
C:\Users\CYMR90~1\AppData\Local\Temp\ccNy8eXk.s:25325  .debug_str:0000000000010b92 .LASF3186
C:\Users\CYMR90~1\AppData\Local\Temp\ccNy8eXk.s:23057  .debug_str:0000000000007ab4 .LASF3187
C:\Users\CYMR90~1\AppData\Local\Temp\ccNy8eXk.s:23735  .debug_str:000000000000a64e .LASF3188
C:\Users\CYMR90~1\AppData\Local\Temp\ccNy8eXk.s:26153  .debug_str:0000000000014103 .LASF3189
C:\Users\CYMR90~1\AppData\Local\Temp\ccNy8eXk.s:28676  .debug_str:000000000001e45d .LASF3190
C:\Users\CYMR90~1\AppData\Local\Temp\ccNy8eXk.s:22245  .debug_str:00000000000047f7 .LASF3191
C:\Users\CYMR90~1\AppData\Local\Temp\ccNy8eXk.s:29210  .debug_str:000000000002050f .LASF3192
C:\Users\CYMR90~1\AppData\Local\Temp\ccNy8eXk.s:29580  .debug_str:0000000000021ba1 .LASF3193
C:\Users\CYMR90~1\AppData\Local\Temp\ccNy8eXk.s:23539  .debug_str:0000000000009a14 .LASF3194
C:\Users\CYMR90~1\AppData\Local\Temp\ccNy8eXk.s:22889  .debug_str:0000000000006fd1 .LASF3195
C:\Users\CYMR90~1\AppData\Local\Temp\ccNy8eXk.s:23401  .debug_str:0000000000009152 .LASF3196
C:\Users\CYMR90~1\AppData\Local\Temp\ccNy8eXk.s:21841  .debug_str:0000000000002dcd .LASF3197
C:\Users\CYMR90~1\AppData\Local\Temp\ccNy8eXk.s:32146  .debug_str:000000000002be2d .LASF3198
C:\Users\CYMR90~1\AppData\Local\Temp\ccNy8eXk.s:22685  .debug_str:0000000000006372 .LASF3199
C:\Users\CYMR90~1\AppData\Local\Temp\ccNy8eXk.s:21227  .debug_str:00000000000007b7 .LASF3200
C:\Users\CYMR90~1\AppData\Local\Temp\ccNy8eXk.s:22251  .debug_str:0000000000004874 .LASF3201
C:\Users\CYMR90~1\AppData\Local\Temp\ccNy8eXk.s:29682  .debug_str:00000000000221a0 .LASF3202
C:\Users\CYMR90~1\AppData\Local\Temp\ccNy8eXk.s:25749  .debug_str:00000000000126dc .LASF3203
C:\Users\CYMR90~1\AppData\Local\Temp\ccNy8eXk.s:29298  .debug_str:0000000000020a82 .LASF3204
C:\Users\CYMR90~1\AppData\Local\Temp\ccNy8eXk.s:21163  .debug_str:00000000000003d9 .LASF3205
C:\Users\CYMR90~1\AppData\Local\Temp\ccNy8eXk.s:28890  .debug_str:000000000001f18f .LASF3206
C:\Users\CYMR90~1\AppData\Local\Temp\ccNy8eXk.s:27754  .debug_str:000000000001a98e .LASF3207
C:\Users\CYMR90~1\AppData\Local\Temp\ccNy8eXk.s:28666  .debug_str:000000000001e3ce .LASF3208
C:\Users\CYMR90~1\AppData\Local\Temp\ccNy8eXk.s:28250  .debug_str:000000000001c8c5 .LASF3209
C:\Users\CYMR90~1\AppData\Local\Temp\ccNy8eXk.s:27110  .debug_str:0000000000017ea5 .LASF3210
C:\Users\CYMR90~1\AppData\Local\Temp\ccNy8eXk.s:25627  .debug_str:0000000000011ef1 .LASF3211
C:\Users\CYMR90~1\AppData\Local\Temp\ccNy8eXk.s:23621  .debug_str:0000000000009f1a .LASF3212
C:\Users\CYMR90~1\AppData\Local\Temp\ccNy8eXk.s:28540  .debug_str:000000000001dbe2 .LASF3213
C:\Users\CYMR90~1\AppData\Local\Temp\ccNy8eXk.s:32246  .debug_str:000000000002c564 .LASF3214
C:\Users\CYMR90~1\AppData\Local\Temp\ccNy8eXk.s:27516  .debug_str:000000000001994d .LASF3215
C:\Users\CYMR90~1\AppData\Local\Temp\ccNy8eXk.s:27822  .debug_str:000000000001adc9 .LASF3216
C:\Users\CYMR90~1\AppData\Local\Temp\ccNy8eXk.s:30336  .debug_str:0000000000024a97 .LASF3217
C:\Users\CYMR90~1\AppData\Local\Temp\ccNy8eXk.s:22459  .debug_str:0000000000005559 .LASF3218
C:\Users\CYMR90~1\AppData\Local\Temp\ccNy8eXk.s:25507  .debug_str:00000000000116b8 .LASF3219
C:\Users\CYMR90~1\AppData\Local\Temp\ccNy8eXk.s:28494  .debug_str:000000000001d96f .LASF3220
C:\Users\CYMR90~1\AppData\Local\Temp\ccNy8eXk.s:24589  .debug_str:000000000000de3b .LASF3221
C:\Users\CYMR90~1\AppData\Local\Temp\ccNy8eXk.s:31490  .debug_str:0000000000029625 .LASF3222
C:\Users\CYMR90~1\AppData\Local\Temp\ccNy8eXk.s:22985  .debug_str:0000000000007629 .LASF3223
C:\Users\CYMR90~1\AppData\Local\Temp\ccNy8eXk.s:31770  .debug_str:000000000002a6e8 .LASF3224
C:\Users\CYMR90~1\AppData\Local\Temp\ccNy8eXk.s:30552  .debug_str:00000000000259ef .LASF3225
C:\Users\CYMR90~1\AppData\Local\Temp\ccNy8eXk.s:22009  .debug_str:000000000000384f .LASF3226
C:\Users\CYMR90~1\AppData\Local\Temp\ccNy8eXk.s:25221  .debug_str:0000000000010513 .LASF3227
C:\Users\CYMR90~1\AppData\Local\Temp\ccNy8eXk.s:31222  .debug_str:0000000000028503 .LASF3228
C:\Users\CYMR90~1\AppData\Local\Temp\ccNy8eXk.s:25691  .debug_str:0000000000012343 .LASF3229
C:\Users\CYMR90~1\AppData\Local\Temp\ccNy8eXk.s:23795  .debug_str:000000000000aab9 .LASF3230
C:\Users\CYMR90~1\AppData\Local\Temp\ccNy8eXk.s:32046  .debug_str:000000000002b790 .LASF3231
C:\Users\CYMR90~1\AppData\Local\Temp\ccNy8eXk.s:23883  .debug_str:000000000000b0f2 .LASF3232
C:\Users\CYMR90~1\AppData\Local\Temp\ccNy8eXk.s:27568  .debug_str:0000000000019c86 .LASF3233
C:\Users\CYMR90~1\AppData\Local\Temp\ccNy8eXk.s:31798  .debug_str:000000000002a8b1 .LASF3234
C:\Users\CYMR90~1\AppData\Local\Temp\ccNy8eXk.s:27310  .debug_str:0000000000018a75 .LASF3235
C:\Users\CYMR90~1\AppData\Local\Temp\ccNy8eXk.s:31836  .debug_str:000000000002aac2 .LASF3236
C:\Users\CYMR90~1\AppData\Local\Temp\ccNy8eXk.s:29404  .debug_str:0000000000021069 .LASF3237
C:\Users\CYMR90~1\AppData\Local\Temp\ccNy8eXk.s:30792  .debug_str:00000000000268c3 .LASF3238
C:\Users\CYMR90~1\AppData\Local\Temp\ccNy8eXk.s:24435  .debug_str:000000000000d53e .LASF3239
C:\Users\CYMR90~1\AppData\Local\Temp\ccNy8eXk.s:30176  .debug_str:0000000000023f46 .LASF3240
C:\Users\CYMR90~1\AppData\Local\Temp\ccNy8eXk.s:26279  .debug_str:00000000000148b9 .LASF3241
C:\Users\CYMR90~1\AppData\Local\Temp\ccNy8eXk.s:25117  .debug_str:000000000000fe88 .LASF3242
C:\Users\CYMR90~1\AppData\Local\Temp\ccNy8eXk.s:28238  .debug_str:000000000001c75b .LASF3243
C:\Users\CYMR90~1\AppData\Local\Temp\ccNy8eXk.s:31054  .debug_str:00000000000278fc .LASF3244
C:\Users\CYMR90~1\AppData\Local\Temp\ccNy8eXk.s:22033  .debug_str:00000000000039af .LASF3245
C:\Users\CYMR90~1\AppData\Local\Temp\ccNy8eXk.s:28472  .debug_str:000000000001d7e0 .LASF3246
C:\Users\CYMR90~1\AppData\Local\Temp\ccNy8eXk.s:31232  .debug_str:00000000000285a7 .LASF3247
C:\Users\CYMR90~1\AppData\Local\Temp\ccNy8eXk.s:30954  .debug_str:0000000000027276 .LASF3248
C:\Users\CYMR90~1\AppData\Local\Temp\ccNy8eXk.s:29656  .debug_str:000000000002200a .LASF3249
C:\Users\CYMR90~1\AppData\Local\Temp\ccNy8eXk.s:26465  .debug_str:000000000001544e .LASF3250
C:\Users\CYMR90~1\AppData\Local\Temp\ccNy8eXk.s:23387  .debug_str:00000000000090a5 .LASF3251
C:\Users\CYMR90~1\AppData\Local\Temp\ccNy8eXk.s:28376  .debug_str:000000000001d1ce .LASF3252
C:\Users\CYMR90~1\AppData\Local\Temp\ccNy8eXk.s:25845  .debug_str:0000000000012d2a .LASF3253
C:\Users\CYMR90~1\AppData\Local\Temp\ccNy8eXk.s:23861  .debug_str:000000000000aeb8 .LASF3254
C:\Users\CYMR90~1\AppData\Local\Temp\ccNy8eXk.s:28308  .debug_str:000000000001cc5e .LASF3255
C:\Users\CYMR90~1\AppData\Local\Temp\ccNy8eXk.s:30428  .debug_str:000000000002503a .LASF3256
C:\Users\CYMR90~1\AppData\Local\Temp\ccNy8eXk.s:22335  .debug_str:0000000000004df7 .LASF3257
C:\Users\CYMR90~1\AppData\Local\Temp\ccNy8eXk.s:31738  .debug_str:000000000002a4ca .LASF3258
C:\Users\CYMR90~1\AppData\Local\Temp\ccNy8eXk.s:30618  .debug_str:0000000000025df7 .LASF3259
C:\Users\CYMR90~1\AppData\Local\Temp\ccNy8eXk.s:27610  .debug_str:0000000000019eed .LASF3260
C:\Users\CYMR90~1\AppData\Local\Temp\ccNy8eXk.s:27616  .debug_str:0000000000019f57 .LASF3261
C:\Users\CYMR90~1\AppData\Local\Temp\ccNy8eXk.s:30908  .debug_str:0000000000026fdd .LASF3262
C:\Users\CYMR90~1\AppData\Local\Temp\ccNy8eXk.s:25727  .debug_str:000000000001256b .LASF3263
C:\Users\CYMR90~1\AppData\Local\Temp\ccNy8eXk.s:31708  .debug_str:000000000002a305 .LASF3264
C:\Users\CYMR90~1\AppData\Local\Temp\ccNy8eXk.s:25441  .debug_str:0000000000011280 .LASF3265
C:\Users\CYMR90~1\AppData\Local\Temp\ccNy8eXk.s:30984  .debug_str:00000000000274ef .LASF3266
C:\Users\CYMR90~1\AppData\Local\Temp\ccNy8eXk.s:22223  .debug_str:0000000000004656 .LASF3267
C:\Users\CYMR90~1\AppData\Local\Temp\ccNy8eXk.s:25315  .debug_str:0000000000010acd .LASF3268
C:\Users\CYMR90~1\AppData\Local\Temp\ccNy8eXk.s:28648  .debug_str:000000000001e2af .LASF3269
C:\Users\CYMR90~1\AppData\Local\Temp\ccNy8eXk.s:25651  .debug_str:00000000000120c1 .LASF3270
C:\Users\CYMR90~1\AppData\Local\Temp\ccNy8eXk.s:25071  .debug_str:000000000000fbad .LASF3271
C:\Users\CYMR90~1\AppData\Local\Temp\ccNy8eXk.s:25843  .debug_str:0000000000012cf1 .LASF3272
C:\Users\CYMR90~1\AppData\Local\Temp\ccNy8eXk.s:29886  .debug_str:0000000000022dd5 .LASF3273
C:\Users\CYMR90~1\AppData\Local\Temp\ccNy8eXk.s:26653  .debug_str:0000000000015ffd .LASF3274
C:\Users\CYMR90~1\AppData\Local\Temp\ccNy8eXk.s:28220  .debug_str:000000000001c61d .LASF3275
C:\Users\CYMR90~1\AppData\Local\Temp\ccNy8eXk.s:24085  .debug_str:000000000000be06 .LASF3276
C:\Users\CYMR90~1\AppData\Local\Temp\ccNy8eXk.s:23089  .debug_str:0000000000007cb3 .LASF3277
C:\Users\CYMR90~1\AppData\Local\Temp\ccNy8eXk.s:22389  .debug_str:000000000000511b .LASF3278
C:\Users\CYMR90~1\AppData\Local\Temp\ccNy8eXk.s:25793  .debug_str:00000000000129cf .LASF3279
C:\Users\CYMR90~1\AppData\Local\Temp\ccNy8eXk.s:21381  .debug_str:0000000000001198 .LASF3280
C:\Users\CYMR90~1\AppData\Local\Temp\ccNy8eXk.s:21473  .debug_str:00000000000016aa .LASF3281
C:\Users\CYMR90~1\AppData\Local\Temp\ccNy8eXk.s:31182  .debug_str:00000000000281f0 .LASF3282
C:\Users\CYMR90~1\AppData\Local\Temp\ccNy8eXk.s:27892  .debug_str:000000000001b26a .LASF3283
C:\Users\CYMR90~1\AppData\Local\Temp\ccNy8eXk.s:24349  .debug_str:000000000000cf26 .LASF3284
C:\Users\CYMR90~1\AppData\Local\Temp\ccNy8eXk.s:26239  .debug_str:0000000000014615 .LASF3285
C:\Users\CYMR90~1\AppData\Local\Temp\ccNy8eXk.s:27222  .debug_str:0000000000018565 .LASF3286
C:\Users\CYMR90~1\AppData\Local\Temp\ccNy8eXk.s:25069  .debug_str:000000000000fb94 .LASF3287
C:\Users\CYMR90~1\AppData\Local\Temp\ccNy8eXk.s:28702  .debug_str:000000000001e5fd .LASF3288
C:\Users\CYMR90~1\AppData\Local\Temp\ccNy8eXk.s:24169  .debug_str:000000000000c3dc .LASF3289
C:\Users\CYMR90~1\AppData\Local\Temp\ccNy8eXk.s:23733  .debug_str:000000000000a62b .LASF3290
C:\Users\CYMR90~1\AppData\Local\Temp\ccNy8eXk.s:26713  .debug_str:0000000000016390 .LASF3291
C:\Users\CYMR90~1\AppData\Local\Temp\ccNy8eXk.s:27666  .debug_str:000000000001a224 .LASF3292
C:\Users\CYMR90~1\AppData\Local\Temp\ccNy8eXk.s:28954  .debug_str:000000000001f55e .LASF3293
C:\Users\CYMR90~1\AppData\Local\Temp\ccNy8eXk.s:25145  .debug_str:0000000000010062 .LASF3294
C:\Users\CYMR90~1\AppData\Local\Temp\ccNy8eXk.s:32326  .debug_str:000000000002ca65 .LASF3295
C:\Users\CYMR90~1\AppData\Local\Temp\ccNy8eXk.s:27030  .debug_str:00000000000179cf .LASF3296
C:\Users\CYMR90~1\AppData\Local\Temp\ccNy8eXk.s:29680  .debug_str:000000000002217c .LASF3297
C:\Users\CYMR90~1\AppData\Local\Temp\ccNy8eXk.s:24047  .debug_str:000000000000bbac .LASF3298
C:\Users\CYMR90~1\AppData\Local\Temp\ccNy8eXk.s:29962  .debug_str:0000000000023211 .LASF3299
C:\Users\CYMR90~1\AppData\Local\Temp\ccNy8eXk.s:26117  .debug_str:0000000000013e9a .LASF3300
C:\Users\CYMR90~1\AppData\Local\Temp\ccNy8eXk.s:28846  .debug_str:000000000001ee9a .LASF3301
C:\Users\CYMR90~1\AppData\Local\Temp\ccNy8eXk.s:24901  .debug_str:000000000000f0e6 .LASF3302
C:\Users\CYMR90~1\AppData\Local\Temp\ccNy8eXk.s:31702  .debug_str:000000000002a2ab .LASF3303
C:\Users\CYMR90~1\AppData\Local\Temp\ccNy8eXk.s:25219  .debug_str:00000000000104fc .LASF3304
C:\Users\CYMR90~1\AppData\Local\Temp\ccNy8eXk.s:31312  .debug_str:0000000000028b1d .LASF3305
C:\Users\CYMR90~1\AppData\Local\Temp\ccNy8eXk.s:26409  .debug_str:000000000001511c .LASF3306
C:\Users\CYMR90~1\AppData\Local\Temp\ccNy8eXk.s:25537  .debug_str:0000000000011930 .LASF3307
C:\Users\CYMR90~1\AppData\Local\Temp\ccNy8eXk.s:23425  .debug_str:00000000000092d8 .LASF3308
C:\Users\CYMR90~1\AppData\Local\Temp\ccNy8eXk.s:23015  .debug_str:00000000000077ef .LASF3309
C:\Users\CYMR90~1\AppData\Local\Temp\ccNy8eXk.s:32446  .debug_str:000000000002d225 .LASF3310
C:\Users\CYMR90~1\AppData\Local\Temp\ccNy8eXk.s:22179  .debug_str:000000000000437a .LASF3311
C:\Users\CYMR90~1\AppData\Local\Temp\ccNy8eXk.s:31962  .debug_str:000000000002b21d .LASF3312
C:\Users\CYMR90~1\AppData\Local\Temp\ccNy8eXk.s:24507  .debug_str:000000000000d9a7 .LASF3313
C:\Users\CYMR90~1\AppData\Local\Temp\ccNy8eXk.s:27200  .debug_str:00000000000183ea .LASF3314
C:\Users\CYMR90~1\AppData\Local\Temp\ccNy8eXk.s:26651  .debug_str:0000000000015fe5 .LASF3315
C:\Users\CYMR90~1\AppData\Local\Temp\ccNy8eXk.s:29974  .debug_str:00000000000232b1 .LASF3316
C:\Users\CYMR90~1\AppData\Local\Temp\ccNy8eXk.s:21393  .debug_str:000000000000123e .LASF3317
C:\Users\CYMR90~1\AppData\Local\Temp\ccNy8eXk.s:22349  .debug_str:0000000000004ee6 .LASF3318
C:\Users\CYMR90~1\AppData\Local\Temp\ccNy8eXk.s:29840  .debug_str:0000000000022ac3 .LASF3319
C:\Users\CYMR90~1\AppData\Local\Temp\ccNy8eXk.s:22601  .debug_str:0000000000005e08 .LASF3320
C:\Users\CYMR90~1\AppData\Local\Temp\ccNy8eXk.s:30160  .debug_str:0000000000023e41 .LASF3321
C:\Users\CYMR90~1\AppData\Local\Temp\ccNy8eXk.s:30580  .debug_str:0000000000025bc8 .LASF3322
C:\Users\CYMR90~1\AppData\Local\Temp\ccNy8eXk.s:29286  .debug_str:00000000000209fb .LASF3323
C:\Users\CYMR90~1\AppData\Local\Temp\ccNy8eXk.s:26553  .debug_str:0000000000015962 .LASF3324
C:\Users\CYMR90~1\AppData\Local\Temp\ccNy8eXk.s:26299  .debug_str:00000000000149dc .LASF3325
C:\Users\CYMR90~1\AppData\Local\Temp\ccNy8eXk.s:27020  .debug_str:0000000000017925 .LASF3326
C:\Users\CYMR90~1\AppData\Local\Temp\ccNy8eXk.s:29178  .debug_str:00000000000202c5 .LASF3327
C:\Users\CYMR90~1\AppData\Local\Temp\ccNy8eXk.s:22981  .debug_str:00000000000075fb .LASF3328
C:\Users\CYMR90~1\AppData\Local\Temp\ccNy8eXk.s:21157  .debug_str:0000000000000380 .LASF3329
C:\Users\CYMR90~1\AppData\Local\Temp\ccNy8eXk.s:31334  .debug_str:0000000000028c75 .LASF3330
C:\Users\CYMR90~1\AppData\Local\Temp\ccNy8eXk.s:21289  .debug_str:0000000000000bf1 .LASF3331
C:\Users\CYMR90~1\AppData\Local\Temp\ccNy8eXk.s:29660  .debug_str:000000000002205a .LASF3332
C:\Users\CYMR90~1\AppData\Local\Temp\ccNy8eXk.s:26445  .debug_str:000000000001535a .LASF3333
C:\Users\CYMR90~1\AppData\Local\Temp\ccNy8eXk.s:26095  .debug_str:0000000000013d56 .LASF3334
C:\Users\CYMR90~1\AppData\Local\Temp\ccNy8eXk.s:24375  .debug_str:000000000000d0e9 .LASF3335
C:\Users\CYMR90~1\AppData\Local\Temp\ccNy8eXk.s:29964  .debug_str:0000000000023237 .LASF3336
C:\Users\CYMR90~1\AppData\Local\Temp\ccNy8eXk.s:27936  .debug_str:000000000001b54c .LASF3337
C:\Users\CYMR90~1\AppData\Local\Temp\ccNy8eXk.s:26711  .debug_str:0000000000016373 .LASF3338
C:\Users\CYMR90~1\AppData\Local\Temp\ccNy8eXk.s:30426  .debug_str:000000000002501c .LASF3339
C:\Users\CYMR90~1\AppData\Local\Temp\ccNy8eXk.s:25035  .debug_str:000000000000f9a9 .LASF3340
C:\Users\CYMR90~1\AppData\Local\Temp\ccNy8eXk.s:29884  .debug_str:0000000000022db9 .LASF3341
C:\Users\CYMR90~1\AppData\Local\Temp\ccNy8eXk.s:25937  .debug_str:0000000000013331 .LASF3342
C:\Users\CYMR90~1\AppData\Local\Temp\ccNy8eXk.s:28422  .debug_str:000000000001d47e .LASF3343
C:\Users\CYMR90~1\AppData\Local\Temp\ccNy8eXk.s:22811  .debug_str:0000000000006ad6 .LASF3344
C:\Users\CYMR90~1\AppData\Local\Temp\ccNy8eXk.s:32366  .debug_str:000000000002ccfa .LASF3345
C:\Users\CYMR90~1\AppData\Local\Temp\ccNy8eXk.s:23001  .debug_str:0000000000007714 .LASF3346
C:\Users\CYMR90~1\AppData\Local\Temp\ccNy8eXk.s:22103  .debug_str:0000000000003e44 .LASF3347
C:\Users\CYMR90~1\AppData\Local\Temp\ccNy8eXk.s:32036  .debug_str:000000000002b6c4 .LASF3348
C:\Users\CYMR90~1\AppData\Local\Temp\ccNy8eXk.s:23891  .debug_str:000000000000b160 .LASF3349
C:\Users\CYMR90~1\AppData\Local\Temp\ccNy8eXk.s:26089  .debug_str:0000000000013d01 .LASF3350
C:\Users\CYMR90~1\AppData\Local\Temp\ccNy8eXk.s:22381  .debug_str:00000000000050bb .LASF3351
C:\Users\CYMR90~1\AppData\Local\Temp\ccNy8eXk.s:23769  .debug_str:000000000000a840 .LASF3352
C:\Users\CYMR90~1\AppData\Local\Temp\ccNy8eXk.s:22581  .debug_str:0000000000005cc6 .LASF3353
C:\Users\CYMR90~1\AppData\Local\Temp\ccNy8eXk.s:23989  .debug_str:000000000000b7ae .LASF3354
C:\Users\CYMR90~1\AppData\Local\Temp\ccNy8eXk.s:22515  .debug_str:00000000000058c9 .LASF3355
C:\Users\CYMR90~1\AppData\Local\Temp\ccNy8eXk.s:25645  .debug_str:0000000000012050 .LASF3356
C:\Users\CYMR90~1\AppData\Local\Temp\ccNy8eXk.s:31086  .debug_str:0000000000027b4f .LASF3357
C:\Users\CYMR90~1\AppData\Local\Temp\ccNy8eXk.s:27456  .debug_str:0000000000019507 .LASF3358
C:\Users\CYMR90~1\AppData\Local\Temp\ccNy8eXk.s:26761  .debug_str:00000000000166ba .LASF3359
C:\Users\CYMR90~1\AppData\Local\Temp\ccNy8eXk.s:32396  .debug_str:000000000002cf1e .LASF3360
C:\Users\CYMR90~1\AppData\Local\Temp\ccNy8eXk.s:28924  .debug_str:000000000001f397 .LASF3361
C:\Users\CYMR90~1\AppData\Local\Temp\ccNy8eXk.s:25575  .debug_str:0000000000011bf7 .LASF3362
C:\Users\CYMR90~1\AppData\Local\Temp\ccNy8eXk.s:22707  .debug_str:000000000000648c .LASF3363
C:\Users\CYMR90~1\AppData\Local\Temp\ccNy8eXk.s:30020  .debug_str:0000000000023594 .LASF3364
C:\Users\CYMR90~1\AppData\Local\Temp\ccNy8eXk.s:26605  .debug_str:0000000000015c9c .LASF3365
C:\Users\CYMR90~1\AppData\Local\Temp\ccNy8eXk.s:23217  .debug_str:000000000000861a .LASF3366
C:\Users\CYMR90~1\AppData\Local\Temp\ccNy8eXk.s:27146  .debug_str:0000000000018086 .LASF3367
C:\Users\CYMR90~1\AppData\Local\Temp\ccNy8eXk.s:32098  .debug_str:000000000002bb16 .LASF3368
C:\Users\CYMR90~1\AppData\Local\Temp\ccNy8eXk.s:30654  .debug_str:0000000000026015 .LASF3369
C:\Users\CYMR90~1\AppData\Local\Temp\ccNy8eXk.s:21493  .debug_str:00000000000018a2 .LASF3370
C:\Users\CYMR90~1\AppData\Local\Temp\ccNy8eXk.s:22555  .debug_str:0000000000005b0a .LASF3371
C:\Users\CYMR90~1\AppData\Local\Temp\ccNy8eXk.s:28710  .debug_str:000000000001e649 .LASF3372
C:\Users\CYMR90~1\AppData\Local\Temp\ccNy8eXk.s:28932  .debug_str:000000000001f415 .LASF3373
C:\Users\CYMR90~1\AppData\Local\Temp\ccNy8eXk.s:30070  .debug_str:000000000002390d .LASF3374
C:\Users\CYMR90~1\AppData\Local\Temp\ccNy8eXk.s:21489  .debug_str:000000000000185b .LASF3375
C:\Users\CYMR90~1\AppData\Local\Temp\ccNy8eXk.s:27256  .debug_str:0000000000018711 .LASF3376
C:\Users\CYMR90~1\AppData\Local\Temp\ccNy8eXk.s:32348  .debug_str:000000000002cbdd .LASF3377
C:\Users\CYMR90~1\AppData\Local\Temp\ccNy8eXk.s:23961  .debug_str:000000000000b55e .LASF3378
C:\Users\CYMR90~1\AppData\Local\Temp\ccNy8eXk.s:27128  .debug_str:0000000000017fa1 .LASF3379
C:\Users\CYMR90~1\AppData\Local\Temp\ccNy8eXk.s:21425  .debug_str:0000000000001420 .LASF3380
C:\Users\CYMR90~1\AppData\Local\Temp\ccNy8eXk.s:25489  .debug_str:0000000000011584 .LASF3381
C:\Users\CYMR90~1\AppData\Local\Temp\ccNy8eXk.s:24177  .debug_str:000000000000c452 .LASF3382
C:\Users\CYMR90~1\AppData\Local\Temp\ccNy8eXk.s:24439  .debug_str:000000000000d589 .LASF3383
C:\Users\CYMR90~1\AppData\Local\Temp\ccNy8eXk.s:32094  .debug_str:000000000002bacb .LASF3384
C:\Users\CYMR90~1\AppData\Local\Temp\ccNy8eXk.s:29128  .debug_str:0000000000020017 .LASF3385
C:\Users\CYMR90~1\AppData\Local\Temp\ccNy8eXk.s:24931  .debug_str:000000000000f2d2 .LASF3386
C:\Users\CYMR90~1\AppData\Local\Temp\ccNy8eXk.s:30578  .debug_str:0000000000025ba0 .LASF3387
C:\Users\CYMR90~1\AppData\Local\Temp\ccNy8eXk.s:29514  .debug_str:000000000002177c .LASF3388
C:\Users\CYMR90~1\AppData\Local\Temp\ccNy8eXk.s:25187  .debug_str:0000000000010325 .LASF3389
C:\Users\CYMR90~1\AppData\Local\Temp\ccNy8eXk.s:29126  .debug_str:000000000001fff0 .LASF3390
C:\Users\CYMR90~1\AppData\Local\Temp\ccNy8eXk.s:26247  .debug_str:00000000000146c9 .LASF3391
C:\Users\CYMR90~1\AppData\Local\Temp\ccNy8eXk.s:31972  .debug_str:000000000002b2a6 .LASF3392
C:\Users\CYMR90~1\AppData\Local\Temp\ccNy8eXk.s:21171  .debug_str:0000000000000443 .LASF3393
C:\Users\CYMR90~1\AppData\Local\Temp\ccNy8eXk.s:29158  .debug_str:00000000000201b1 .LASF3394
C:\Users\CYMR90~1\AppData\Local\Temp\ccNy8eXk.s:30714  .debug_str:00000000000263e5 .LASF3395
C:\Users\CYMR90~1\AppData\Local\Temp\ccNy8eXk.s:32400  .debug_str:000000000002cf5b .LASF3396
C:\Users\CYMR90~1\AppData\Local\Temp\ccNy8eXk.s:23601  .debug_str:0000000000009df0 .LASF3397
C:\Users\CYMR90~1\AppData\Local\Temp\ccNy8eXk.s:27496  .debug_str:0000000000019768 .LASF3398
C:\Users\CYMR90~1\AppData\Local\Temp\ccNy8eXk.s:24905  .debug_str:000000000000f116 .LASF3399
C:\Users\CYMR90~1\AppData\Local\Temp\ccNy8eXk.s:28844  .debug_str:000000000001ee7c .LASF3400
C:\Users\CYMR90~1\AppData\Local\Temp\ccNy8eXk.s:32274  .debug_str:000000000002c708 .LASF3401
C:\Users\CYMR90~1\AppData\Local\Temp\ccNy8eXk.s:31898  .debug_str:000000000002ae8e .LASF3402
C:\Users\CYMR90~1\AppData\Local\Temp\ccNy8eXk.s:28088  .debug_str:000000000001be51 .LASF3403
C:\Users\CYMR90~1\AppData\Local\Temp\ccNy8eXk.s:22087  .debug_str:0000000000003d35 .LASF3404
C:\Users\CYMR90~1\AppData\Local\Temp\ccNy8eXk.s:23873  .debug_str:000000000000afae .LASF3405
C:\Users\CYMR90~1\AppData\Local\Temp\ccNy8eXk.s:24927  .debug_str:000000000000f284 .LASF3406
C:\Users\CYMR90~1\AppData\Local\Temp\ccNy8eXk.s:29590  .debug_str:0000000000021c36 .LASF3407
C:\Users\CYMR90~1\AppData\Local\Temp\ccNy8eXk.s:26819  .debug_str:0000000000016b66 .LASF3408
C:\Users\CYMR90~1\AppData\Local\Temp\ccNy8eXk.s:28608  .debug_str:000000000001e089 .LASF3409
C:\Users\CYMR90~1\AppData\Local\Temp\ccNy8eXk.s:27842  .debug_str:000000000001af0b .LASF3410
C:\Users\CYMR90~1\AppData\Local\Temp\ccNy8eXk.s:29614  .debug_str:0000000000021db7 .LASF3411
C:\Users\CYMR90~1\AppData\Local\Temp\ccNy8eXk.s:23839  .debug_str:000000000000ad6a .LASF3412
C:\Users\CYMR90~1\AppData\Local\Temp\ccNy8eXk.s:26211  .debug_str:0000000000014457 .LASF3413
C:\Users\CYMR90~1\AppData\Local\Temp\ccNy8eXk.s:22651  .debug_str:0000000000006128 .LASF3414
C:\Users\CYMR90~1\AppData\Local\Temp\ccNy8eXk.s:29342  .debug_str:0000000000020d35 .LASF3415
C:\Users\CYMR90~1\AppData\Local\Temp\ccNy8eXk.s:25831  .debug_str:0000000000012c2b .LASF3416
C:\Users\CYMR90~1\AppData\Local\Temp\ccNy8eXk.s:27910  .debug_str:000000000001b3a2 .LASF3417
C:\Users\CYMR90~1\AppData\Local\Temp\ccNy8eXk.s:27782  .debug_str:000000000001ab64 .LASF3418
C:\Users\CYMR90~1\AppData\Local\Temp\ccNy8eXk.s:22403  .debug_str:0000000000005206 .LASF3419
C:\Users\CYMR90~1\AppData\Local\Temp\ccNy8eXk.s:29202  .debug_str:0000000000020472 .LASF3420
C:\Users\CYMR90~1\AppData\Local\Temp\ccNy8eXk.s:25903  .debug_str:0000000000013106 .LASF3421
C:\Users\CYMR90~1\AppData\Local\Temp\ccNy8eXk.s:23709  .debug_str:000000000000a4d5 .LASF3422
C:\Users\CYMR90~1\AppData\Local\Temp\ccNy8eXk.s:28240  .debug_str:000000000001c780 .LASF3423
C:\Users\CYMR90~1\AppData\Local\Temp\ccNy8eXk.s:22919  .debug_str:00000000000071b5 .LASF3424
C:\Users\CYMR90~1\AppData\Local\Temp\ccNy8eXk.s:30902  .debug_str:0000000000026f79 .LASF3425
C:\Users\CYMR90~1\AppData\Local\Temp\ccNy8eXk.s:22315  .debug_str:0000000000004cc0 .LASF3426
C:\Users\CYMR90~1\AppData\Local\Temp\ccNy8eXk.s:22649  .debug_str:0000000000006117 .LASF3427
C:\Users\CYMR90~1\AppData\Local\Temp\ccNy8eXk.s:21607  .debug_str:0000000000001f87 .LASF3428
C:\Users\CYMR90~1\AppData\Local\Temp\ccNy8eXk.s:27204  .debug_str:0000000000018421 .LASF3429
C:\Users\CYMR90~1\AppData\Local\Temp\ccNy8eXk.s:26920  .debug_str:000000000001730b .LASF3430
C:\Users\CYMR90~1\AppData\Local\Temp\ccNy8eXk.s:27964  .debug_str:000000000001b6e1 .LASF3431
C:\Users\CYMR90~1\AppData\Local\Temp\ccNy8eXk.s:24603  .debug_str:000000000000df42 .LASF3432
C:\Users\CYMR90~1\AppData\Local\Temp\ccNy8eXk.s:29336  .debug_str:0000000000020cdf .LASF3433
C:\Users\CYMR90~1\AppData\Local\Temp\ccNy8eXk.s:30228  .debug_str:000000000002431e .LASF3434
C:\Users\CYMR90~1\AppData\Local\Temp\ccNy8eXk.s:31098  .debug_str:0000000000027c02 .LASF3435
C:\Users\CYMR90~1\AppData\Local\Temp\ccNy8eXk.s:29464  .debug_str:00000000000214a9 .LASF3436
C:\Users\CYMR90~1\AppData\Local\Temp\ccNy8eXk.s:30738  .debug_str:0000000000026543 .LASF3437
C:\Users\CYMR90~1\AppData\Local\Temp\ccNy8eXk.s:22939  .debug_str:0000000000007343 .LASF3438
C:\Users\CYMR90~1\AppData\Local\Temp\ccNy8eXk.s:27972  .debug_str:000000000001b76e .LASF3439
C:\Users\CYMR90~1\AppData\Local\Temp\ccNy8eXk.s:21699  .debug_str:000000000000248a .LASF3440
C:\Users\CYMR90~1\AppData\Local\Temp\ccNy8eXk.s:30496  .debug_str:000000000002559c .LASF3441
C:\Users\CYMR90~1\AppData\Local\Temp\ccNy8eXk.s:24181  .debug_str:000000000000c497 .LASF3442
C:\Users\CYMR90~1\AppData\Local\Temp\ccNy8eXk.s:26685  .debug_str:00000000000161e6 .LASF3443
C:\Users\CYMR90~1\AppData\Local\Temp\ccNy8eXk.s:30934  .debug_str:000000000002714b .LASF3444
C:\Users\CYMR90~1\AppData\Local\Temp\ccNy8eXk.s:23825  .debug_str:000000000000ac86 .LASF3445
C:\Users\CYMR90~1\AppData\Local\Temp\ccNy8eXk.s:24681  .debug_str:000000000000e3e1 .LASF3446
C:\Users\CYMR90~1\AppData\Local\Temp\ccNy8eXk.s:22319  .debug_str:0000000000004d0f .LASF3447
C:\Users\CYMR90~1\AppData\Local\Temp\ccNy8eXk.s:21283  .debug_str:0000000000000b77 .LASF3448
C:\Users\CYMR90~1\AppData\Local\Temp\ccNy8eXk.s:29626  .debug_str:0000000000021e66 .LASF3449
C:\Users\CYMR90~1\AppData\Local\Temp\ccNy8eXk.s:23845  .debug_str:000000000000adbf .LASF3450
C:\Users\CYMR90~1\AppData\Local\Temp\ccNy8eXk.s:22001  .debug_str:00000000000037af .LASF3451
C:\Users\CYMR90~1\AppData\Local\Temp\ccNy8eXk.s:21453  .debug_str:0000000000001589 .LASF3452
C:\Users\CYMR90~1\AppData\Local\Temp\ccNy8eXk.s:27224  .debug_str:000000000001857e .LASF3453
C:\Users\CYMR90~1\AppData\Local\Temp\ccNy8eXk.s:26707  .debug_str:0000000000016333 .LASF3454
C:\Users\CYMR90~1\AppData\Local\Temp\ccNy8eXk.s:25891  .debug_str:000000000001303a .LASF3455
C:\Users\CYMR90~1\AppData\Local\Temp\ccNy8eXk.s:27574  .debug_str:0000000000019cef .LASF3456
C:\Users\CYMR90~1\AppData\Local\Temp\ccNy8eXk.s:31862  .debug_str:000000000002ac59 .LASF3457
C:\Users\CYMR90~1\AppData\Local\Temp\ccNy8eXk.s:26773  .debug_str:0000000000016794 .LASF3458
C:\Users\CYMR90~1\AppData\Local\Temp\ccNy8eXk.s:25809  .debug_str:0000000000012b04 .LASF3459
C:\Users\CYMR90~1\AppData\Local\Temp\ccNy8eXk.s:27866  .debug_str:000000000001b0bc .LASF3460
C:\Users\CYMR90~1\AppData\Local\Temp\ccNy8eXk.s:30768  .debug_str:0000000000026725 .LASF3461
C:\Users\CYMR90~1\AppData\Local\Temp\ccNy8eXk.s:23153  .debug_str:00000000000081e9 .LASF3462
C:\Users\CYMR90~1\AppData\Local\Temp\ccNy8eXk.s:21827  .debug_str:0000000000002ce9 .LASF3463
C:\Users\CYMR90~1\AppData\Local\Temp\ccNy8eXk.s:29552  .debug_str:00000000000219c8 .LASF3464
C:\Users\CYMR90~1\AppData\Local\Temp\ccNy8eXk.s:28878  .debug_str:000000000001f0d8 .LASF3465
C:\Users\CYMR90~1\AppData\Local\Temp\ccNy8eXk.s:29170  .debug_str:0000000000020259 .LASF3466
C:\Users\CYMR90~1\AppData\Local\Temp\ccNy8eXk.s:29708  .debug_str:0000000000022324 .LASF3467
C:\Users\CYMR90~1\AppData\Local\Temp\ccNy8eXk.s:25313  .debug_str:0000000000010ab5 .LASF3468
C:\Users\CYMR90~1\AppData\Local\Temp\ccNy8eXk.s:22867  .debug_str:0000000000006e5e .LASF3469
C:\Users\CYMR90~1\AppData\Local\Temp\ccNy8eXk.s:32020  .debug_str:000000000002b5fe .LASF3470
C:\Users\CYMR90~1\AppData\Local\Temp\ccNy8eXk.s:31850  .debug_str:000000000002ab98 .LASF3471
C:\Users\CYMR90~1\AppData\Local\Temp\ccNy8eXk.s:28562  .debug_str:000000000001ddc6 .LASF3472
C:\Users\CYMR90~1\AppData\Local\Temp\ccNy8eXk.s:21265  .debug_str:00000000000009f5 .LASF3473
C:\Users\CYMR90~1\AppData\Local\Temp\ccNy8eXk.s:30870  .debug_str:0000000000026d51 .LASF3474
C:\Users\CYMR90~1\AppData\Local\Temp\ccNy8eXk.s:25103  .debug_str:000000000000fdb9 .LASF3475
C:\Users\CYMR90~1\AppData\Local\Temp\ccNy8eXk.s:32338  .debug_str:000000000002cb26 .LASF3476
C:\Users\CYMR90~1\AppData\Local\Temp\ccNy8eXk.s:27388  .debug_str:0000000000019103 .LASF3477
C:\Users\CYMR90~1\AppData\Local\Temp\ccNy8eXk.s:31958  .debug_str:000000000002b1da .LASF3478
C:\Users\CYMR90~1\AppData\Local\Temp\ccNy8eXk.s:27430  .debug_str:0000000000019364 .LASF3479
C:\Users\CYMR90~1\AppData\Local\Temp\ccNy8eXk.s:29694  .debug_str:0000000000022278 .LASF3480
C:\Users\CYMR90~1\AppData\Local\Temp\ccNy8eXk.s:26147  .debug_str:0000000000014073 .LASF3481
C:\Users\CYMR90~1\AppData\Local\Temp\ccNy8eXk.s:24273  .debug_str:000000000000cad5 .LASF3482
C:\Users\CYMR90~1\AppData\Local\Temp\ccNy8eXk.s:21891  .debug_str:00000000000030aa .LASF3483
C:\Users\CYMR90~1\AppData\Local\Temp\ccNy8eXk.s:27748  .debug_str:000000000001a93a .LASF3484
C:\Users\CYMR90~1\AppData\Local\Temp\ccNy8eXk.s:28958  .debug_str:000000000001f591 .LASF3485
C:\Users\CYMR90~1\AppData\Local\Temp\ccNy8eXk.s:31654  .debug_str:0000000000029ffc .LASF3486
C:\Users\CYMR90~1\AppData\Local\Temp\ccNy8eXk.s:30856  .debug_str:0000000000026cb3 .LASF3487
C:\Users\CYMR90~1\AppData\Local\Temp\ccNy8eXk.s:29756  .debug_str:00000000000225ed .LASF3488
C:\Users\CYMR90~1\AppData\Local\Temp\ccNy8eXk.s:30442  .debug_str:000000000002511a .LASF3489
C:\Users\CYMR90~1\AppData\Local\Temp\ccNy8eXk.s:28560  .debug_str:000000000001ddaa .LASF3490
C:\Users\CYMR90~1\AppData\Local\Temp\ccNy8eXk.s:28618  .debug_str:000000000001e11f .LASF3491
C:\Users\CYMR90~1\AppData\Local\Temp\ccNy8eXk.s:27654  .debug_str:000000000001a171 .LASF3492
C:\Users\CYMR90~1\AppData\Local\Temp\ccNy8eXk.s:21165  .debug_str:00000000000003f6 .LASF3493
C:\Users\CYMR90~1\AppData\Local\Temp\ccNy8eXk.s:27008  .debug_str:0000000000017832 .LASF3494
C:\Users\CYMR90~1\AppData\Local\Temp\ccNy8eXk.s:30624  .debug_str:0000000000025e4d .LASF3495
C:\Users\CYMR90~1\AppData\Local\Temp\ccNy8eXk.s:22435  .debug_str:00000000000053ef .LASF3496
C:\Users\CYMR90~1\AppData\Local\Temp\ccNy8eXk.s:21505  .debug_str:0000000000001977 .LASF3497
C:\Users\CYMR90~1\AppData\Local\Temp\ccNy8eXk.s:26561  .debug_str:00000000000159c9 .LASF3498
C:\Users\CYMR90~1\AppData\Local\Temp\ccNy8eXk.s:22345  .debug_str:0000000000004e99 .LASF3499
C:\Users\CYMR90~1\AppData\Local\Temp\ccNy8eXk.s:23517  .debug_str:0000000000009881 .LASF3500
C:\Users\CYMR90~1\AppData\Local\Temp\ccNy8eXk.s:28634  .debug_str:000000000001e1ef .LASF3501
C:\Users\CYMR90~1\AppData\Local\Temp\ccNy8eXk.s:21599  .debug_str:0000000000001f11 .LASF3502
C:\Users\CYMR90~1\AppData\Local\Temp\ccNy8eXk.s:28940  .debug_str:000000000001f4a9 .LASF3503
C:\Users\CYMR90~1\AppData\Local\Temp\ccNy8eXk.s:23493  .debug_str:000000000000971f .LASF3504
C:\Users\CYMR90~1\AppData\Local\Temp\ccNy8eXk.s:27136  .debug_str:0000000000018023 .LASF3505
C:\Users\CYMR90~1\AppData\Local\Temp\ccNy8eXk.s:30726  .debug_str:000000000002648b .LASF3506
C:\Users\CYMR90~1\AppData\Local\Temp\ccNy8eXk.s:24641  .debug_str:000000000000e179 .LASF3507
C:\Users\CYMR90~1\AppData\Local\Temp\ccNy8eXk.s:28694  .debug_str:000000000001e5a2 .LASF3508
C:\Users\CYMR90~1\AppData\Local\Temp\ccNy8eXk.s:32228  .debug_str:000000000002c3bf .LASF3509
C:\Users\CYMR90~1\AppData\Local\Temp\ccNy8eXk.s:24955  .debug_str:000000000000f469 .LASF3510
C:\Users\CYMR90~1\AppData\Local\Temp\ccNy8eXk.s:28980  .debug_str:000000000001f6ea .LASF3511
C:\Users\CYMR90~1\AppData\Local\Temp\ccNy8eXk.s:22303  .debug_str:0000000000004c08 .LASF3512
C:\Users\CYMR90~1\AppData\Local\Temp\ccNy8eXk.s:28874  .debug_str:000000000001f0a4 .LASF3513
C:\Users\CYMR90~1\AppData\Local\Temp\ccNy8eXk.s:24651  .debug_str:000000000000e219 .LASF3514
C:\Users\CYMR90~1\AppData\Local\Temp\ccNy8eXk.s:31974  .debug_str:000000000002b2cd .LASF3515
C:\Users\CYMR90~1\AppData\Local\Temp\ccNy8eXk.s:31058  .debug_str:000000000002793e .LASF3516
C:\Users\CYMR90~1\AppData\Local\Temp\ccNy8eXk.s:26902  .debug_str:00000000000171ee .LASF3517
C:\Users\CYMR90~1\AppData\Local\Temp\ccNy8eXk.s:28434  .debug_str:000000000001d572 .LASF3518
C:\Users\CYMR90~1\AppData\Local\Temp\ccNy8eXk.s:26952  .debug_str:00000000000174a2 .LASF3519
C:\Users\CYMR90~1\AppData\Local\Temp\ccNy8eXk.s:30460  .debug_str:00000000000252a2 .LASF3520
C:\Users\CYMR90~1\AppData\Local\Temp\ccNy8eXk.s:28580  .debug_str:000000000001defe .LASF3521
C:\Users\CYMR90~1\AppData\Local\Temp\ccNy8eXk.s:29516  .debug_str:00000000000217bb .LASF3522
C:\Users\CYMR90~1\AppData\Local\Temp\ccNy8eXk.s:25207  .debug_str:0000000000010449 .LASF3523
C:\Users\CYMR90~1\AppData\Local\Temp\ccNy8eXk.s:27688  .debug_str:000000000001a520 .LASF3524
C:\Users\CYMR90~1\AppData\Local\Temp\ccNy8eXk.s:32358  .debug_str:000000000002cc9c .LASF3525
C:\Users\CYMR90~1\AppData\Local\Temp\ccNy8eXk.s:24361  .debug_str:000000000000d027 .LASF3526
C:\Users\CYMR90~1\AppData\Local\Temp\ccNy8eXk.s:27186  .debug_str:000000000001832e .LASF3527
C:\Users\CYMR90~1\AppData\Local\Temp\ccNy8eXk.s:23521  .debug_str:00000000000098b3 .LASF3528
C:\Users\CYMR90~1\AppData\Local\Temp\ccNy8eXk.s:30724  .debug_str:000000000002646e .LASF3529
C:\Users\CYMR90~1\AppData\Local\Temp\ccNy8eXk.s:31794  .debug_str:000000000002a871 .LASF3530
C:\Users\CYMR90~1\AppData\Local\Temp\ccNy8eXk.s:24069  .debug_str:000000000000bcfa .LASF3531
C:\Users\CYMR90~1\AppData\Local\Temp\ccNy8eXk.s:31206  .debug_str:000000000002840b .LASF3532
C:\Users\CYMR90~1\AppData\Local\Temp\ccNy8eXk.s:28094  .debug_str:000000000001bec9 .LASF3533
C:\Users\CYMR90~1\AppData\Local\Temp\ccNy8eXk.s:31666  .debug_str:000000000002a0a0 .LASF3534
C:\Users\CYMR90~1\AppData\Local\Temp\ccNy8eXk.s:21671  .debug_str:0000000000002315 .LASF3535
C:\Users\CYMR90~1\AppData\Local\Temp\ccNy8eXk.s:30780  .debug_str:0000000000026800 .LASF3536
C:\Users\CYMR90~1\AppData\Local\Temp\ccNy8eXk.s:27528  .debug_str:0000000000019a29 .LASF3537
C:\Users\CYMR90~1\AppData\Local\Temp\ccNy8eXk.s:27450  .debug_str:00000000000194b5 .LASF3538
C:\Users\CYMR90~1\AppData\Local\Temp\ccNy8eXk.s:27870  .debug_str:000000000001b0fc .LASF3539
C:\Users\CYMR90~1\AppData\Local\Temp\ccNy8eXk.s:21679  .debug_str:000000000000237f .LASF3540
C:\Users\CYMR90~1\AppData\Local\Temp\ccNy8eXk.s:31124  .debug_str:0000000000027df7 .LASF3541
C:\Users\CYMR90~1\AppData\Local\Temp\ccNy8eXk.s:28520  .debug_str:000000000001daed .LASF3542
C:\Users\CYMR90~1\AppData\Local\Temp\ccNy8eXk.s:30478  .debug_str:0000000000025487 .LASF3543
C:\Users\CYMR90~1\AppData\Local\Temp\ccNy8eXk.s:29758  .debug_str:0000000000022609 .LASF3544
C:\Users\CYMR90~1\AppData\Local\Temp\ccNy8eXk.s:29296  .debug_str:0000000000020a69 .LASF3545
C:\Users\CYMR90~1\AppData\Local\Temp\ccNy8eXk.s:32182  .debug_str:000000000002c0ed .LASF3546
C:\Users\CYMR90~1\AppData\Local\Temp\ccNy8eXk.s:31914  .debug_str:000000000002af7a .LASF3547
C:\Users\CYMR90~1\AppData\Local\Temp\ccNy8eXk.s:21225  .debug_str:000000000000079d .LASF3548
C:\Users\CYMR90~1\AppData\Local\Temp\ccNy8eXk.s:24873  .debug_str:000000000000ef3f .LASF3549
C:\Users\CYMR90~1\AppData\Local\Temp\ccNy8eXk.s:26251  .debug_str:000000000001471c .LASF3550
C:\Users\CYMR90~1\AppData\Local\Temp\ccNy8eXk.s:30082  .debug_str:00000000000239aa .LASF3551
C:\Users\CYMR90~1\AppData\Local\Temp\ccNy8eXk.s:27702  .debug_str:000000000001a5c3 .LASF3552
C:\Users\CYMR90~1\AppData\Local\Temp\ccNy8eXk.s:26850  .debug_str:0000000000016edf .LASF3553
C:\Users\CYMR90~1\AppData\Local\Temp\ccNy8eXk.s:27294  .debug_str:00000000000189ad .LASF3554
C:\Users\CYMR90~1\AppData\Local\Temp\ccNy8eXk.s:31628  .debug_str:0000000000029e9e .LASF3555
C:\Users\CYMR90~1\AppData\Local\Temp\ccNy8eXk.s:24415  .debug_str:000000000000d3c2 .LASF3556
C:\Users\CYMR90~1\AppData\Local\Temp\ccNy8eXk.s:26898  .debug_str:00000000000171a9 .LASF3557
C:\Users\CYMR90~1\AppData\Local\Temp\ccNy8eXk.s:32104  .debug_str:000000000002bb8e .LASF3558
C:\Users\CYMR90~1\AppData\Local\Temp\ccNy8eXk.s:26323  .debug_str:0000000000014b70 .LASF3559
C:\Users\CYMR90~1\AppData\Local\Temp\ccNy8eXk.s:28662  .debug_str:000000000001e39c .LASF3560
C:\Users\CYMR90~1\AppData\Local\Temp\ccNy8eXk.s:31534  .debug_str:0000000000029922 .LASF3561
C:\Users\CYMR90~1\AppData\Local\Temp\ccNy8eXk.s:21821  .debug_str:0000000000002cae .LASF3562
C:\Users\CYMR90~1\AppData\Local\Temp\ccNy8eXk.s:28858  .debug_str:000000000001ef69 .LASF3563
C:\Users\CYMR90~1\AppData\Local\Temp\ccNy8eXk.s:23643  .debug_str:000000000000a09c .LASF3564
C:\Users\CYMR90~1\AppData\Local\Temp\ccNy8eXk.s:21943  .debug_str:000000000000344e .LASF3565
C:\Users\CYMR90~1\AppData\Local\Temp\ccNy8eXk.s:23889  .debug_str:000000000000b147 .LASF3566
C:\Users\CYMR90~1\AppData\Local\Temp\ccNy8eXk.s:22833  .debug_str:0000000000006c20 .LASF3567
C:\Users\CYMR90~1\AppData\Local\Temp\ccNy8eXk.s:30406  .debug_str:0000000000024eef .LASF3568
C:\Users\CYMR90~1\AppData\Local\Temp\ccNy8eXk.s:27768  .debug_str:000000000001aa6f .LASF3569
C:\Users\CYMR90~1\AppData\Local\Temp\ccNy8eXk.s:27624  .debug_str:0000000000019fd0 .LASF3570
C:\Users\CYMR90~1\AppData\Local\Temp\ccNy8eXk.s:22791  .debug_str:0000000000006998 .LASF3571
C:\Users\CYMR90~1\AppData\Local\Temp\ccNy8eXk.s:24749  .debug_str:000000000000e830 .LASF3572
C:\Users\CYMR90~1\AppData\Local\Temp\ccNy8eXk.s:24587  .debug_str:000000000000de1e .LASF3573
C:\Users\CYMR90~1\AppData\Local\Temp\ccNy8eXk.s:23219  .debug_str:0000000000008641 .LASF3574
C:\Users\CYMR90~1\AppData\Local\Temp\ccNy8eXk.s:23403  .debug_str:0000000000009171 .LASF3575
C:\Users\CYMR90~1\AppData\Local\Temp\ccNy8eXk.s:23991  .debug_str:000000000000b7d0 .LASF3576
C:\Users\CYMR90~1\AppData\Local\Temp\ccNy8eXk.s:21967  .debug_str:00000000000035cb .LASF3577
C:\Users\CYMR90~1\AppData\Local\Temp\ccNy8eXk.s:23337  .debug_str:0000000000008d40 .LASF3578
C:\Users\CYMR90~1\AppData\Local\Temp\ccNy8eXk.s:21147  .debug_str:00000000000002de .LASF3579
C:\Users\CYMR90~1\AppData\Local\Temp\ccNy8eXk.s:26894  .debug_str:000000000001717b .LASF3580
C:\Users\CYMR90~1\AppData\Local\Temp\ccNy8eXk.s:24143  .debug_str:000000000000c247 .LASF3581
C:\Users\CYMR90~1\AppData\Local\Temp\ccNy8eXk.s:30016  .debug_str:000000000002355a .LASF3582
C:\Users\CYMR90~1\AppData\Local\Temp\ccNy8eXk.s:32092  .debug_str:000000000002bab1 .LASF3583
C:\Users\CYMR90~1\AppData\Local\Temp\ccNy8eXk.s:25697  .debug_str:000000000001239f .LASF3584
C:\Users\CYMR90~1\AppData\Local\Temp\ccNy8eXk.s:25551  .debug_str:0000000000011a94 .LASF3585
C:\Users\CYMR90~1\AppData\Local\Temp\ccNy8eXk.s:27886  .debug_str:000000000001b22b .LASF3586
C:\Users\CYMR90~1\AppData\Local\Temp\ccNy8eXk.s:30030  .debug_str:000000000002366e .LASF3587
C:\Users\CYMR90~1\AppData\Local\Temp\ccNy8eXk.s:31466  .debug_str:00000000000294a4 .LASF3588
C:\Users\CYMR90~1\AppData\Local\Temp\ccNy8eXk.s:27542  .debug_str:0000000000019b02 .LASF3589
C:\Users\CYMR90~1\AppData\Local\Temp\ccNy8eXk.s:28842  .debug_str:000000000001ee5d .LASF3590
C:\Users\CYMR90~1\AppData\Local\Temp\ccNy8eXk.s:29952  .debug_str:0000000000023165 .LASF3591
C:\Users\CYMR90~1\AppData\Local\Temp\ccNy8eXk.s:30808  .debug_str:00000000000269af .LASF3592
C:\Users\CYMR90~1\AppData\Local\Temp\ccNy8eXk.s:21325  .debug_str:0000000000000dd7 .LASF3593
C:\Users\CYMR90~1\AppData\Local\Temp\ccNy8eXk.s:24817  .debug_str:000000000000ec54 .LASF3594
C:\Users\CYMR90~1\AppData\Local\Temp\ccNy8eXk.s:32178  .debug_str:000000000002c0bc .LASF3595
C:\Users\CYMR90~1\AppData\Local\Temp\ccNy8eXk.s:27368  .debug_str:0000000000018eb9 .LASF3596
C:\Users\CYMR90~1\AppData\Local\Temp\ccNy8eXk.s:21807  .debug_str:0000000000002b7e .LASF3597
C:\Users\CYMR90~1\AppData\Local\Temp\ccNy8eXk.s:21477  .debug_str:00000000000016ef .LASF3598
C:\Users\CYMR90~1\AppData\Local\Temp\ccNy8eXk.s:22949  .debug_str:0000000000007417 .LASF3599
C:\Users\CYMR90~1\AppData\Local\Temp\ccNy8eXk.s:24335  .debug_str:000000000000ce49 .LASF3600
C:\Users\CYMR90~1\AppData\Local\Temp\ccNy8eXk.s:25741  .debug_str:0000000000012660 .LASF3601
C:\Users\CYMR90~1\AppData\Local\Temp\ccNy8eXk.s:29396  .debug_str:000000000002101c .LASF3602
C:\Users\CYMR90~1\AppData\Local\Temp\ccNy8eXk.s:29666  .debug_str:00000000000220a4 .LASF3603
C:\Users\CYMR90~1\AppData\Local\Temp\ccNy8eXk.s:23499  .debug_str:0000000000009776 .LASF3604
C:\Users\CYMR90~1\AppData\Local\Temp\ccNy8eXk.s:30078  .debug_str:000000000002397c .LASF3605
C:\Users\CYMR90~1\AppData\Local\Temp\ccNy8eXk.s:32302  .debug_str:000000000002c89f .LASF3606
C:\Users\CYMR90~1\AppData\Local\Temp\ccNy8eXk.s:25143  .debug_str:0000000000010049 .LASF3607
C:\Users\CYMR90~1\AppData\Local\Temp\ccNy8eXk.s:24639  .debug_str:000000000000e160 .LASF3608
C:\Users\CYMR90~1\AppData\Local\Temp\ccNy8eXk.s:28784  .debug_str:000000000001eaf6 .LASF3609
C:\Users\CYMR90~1\AppData\Local\Temp\ccNy8eXk.s:22263  .debug_str:0000000000004916 .LASF3610
C:\Users\CYMR90~1\AppData\Local\Temp\ccNy8eXk.s:21551  .debug_str:0000000000001c48 .LASF3611
C:\Users\CYMR90~1\AppData\Local\Temp\ccNy8eXk.s:23581  .debug_str:0000000000009cd5 .LASF3612
C:\Users\CYMR90~1\AppData\Local\Temp\ccNy8eXk.s:29928  .debug_str:0000000000023033 .LASF3613
C:\Users\CYMR90~1\AppData\Local\Temp\ccNy8eXk.s:25583  .debug_str:0000000000011c74 .LASF3614
C:\Users\CYMR90~1\AppData\Local\Temp\ccNy8eXk.s:26127  .debug_str:0000000000013f55 .LASF3615
C:\Users\CYMR90~1\AppData\Local\Temp\ccNy8eXk.s:23463  .debug_str:0000000000009500 .LASF3616
C:\Users\CYMR90~1\AppData\Local\Temp\ccNy8eXk.s:27786  .debug_str:000000000001ab96 .LASF3617
C:\Users\CYMR90~1\AppData\Local\Temp\ccNy8eXk.s:27370  .debug_str:0000000000018f09 .LASF3618
C:\Users\CYMR90~1\AppData\Local\Temp\ccNy8eXk.s:31326  .debug_str:0000000000028bf7 .LASF3619
C:\Users\CYMR90~1\AppData\Local\Temp\ccNy8eXk.s:27054  .debug_str:0000000000017b36 .LASF3620
C:\Users\CYMR90~1\AppData\Local\Temp\ccNy8eXk.s:31246  .debug_str:00000000000286a9 .LASF3621
C:\Users\CYMR90~1\AppData\Local\Temp\ccNy8eXk.s:24649  .debug_str:000000000000e1fa .LASF3622
C:\Users\CYMR90~1\AppData\Local\Temp\ccNy8eXk.s:23133  .debug_str:0000000000008009 .LASF3623
C:\Users\CYMR90~1\AppData\Local\Temp\ccNy8eXk.s:32236  .debug_str:000000000002c471 .LASF3624
C:\Users\CYMR90~1\AppData\Local\Temp\ccNy8eXk.s:26449  .debug_str:000000000001538c .LASF3625
C:\Users\CYMR90~1\AppData\Local\Temp\ccNy8eXk.s:28166  .debug_str:000000000001c315 .LASF3626
C:\Users\CYMR90~1\AppData\Local\Temp\ccNy8eXk.s:27600  .debug_str:0000000000019e58 .LASF3627
C:\Users\CYMR90~1\AppData\Local\Temp\ccNy8eXk.s:30226  .debug_str:00000000000242e1 .LASF3628
C:\Users\CYMR90~1\AppData\Local\Temp\ccNy8eXk.s:29446  .debug_str:000000000002138c .LASF3629
C:\Users\CYMR90~1\AppData\Local\Temp\ccNy8eXk.s:24021  .debug_str:000000000000b9d5 .LASF3630
C:\Users\CYMR90~1\AppData\Local\Temp\ccNy8eXk.s:27646  .debug_str:000000000001a101 .LASF3631
C:\Users\CYMR90~1\AppData\Local\Temp\ccNy8eXk.s:21115  .debug_str:00000000000000dc .LASF3632
C:\Users\CYMR90~1\AppData\Local\Temp\ccNy8eXk.s:25545  .debug_str:000000000001199f .LASF3633
C:\Users\CYMR90~1\AppData\Local\Temp\ccNy8eXk.s:29492  .debug_str:0000000000021636 .LASF3634
C:\Users\CYMR90~1\AppData\Local\Temp\ccNy8eXk.s:29754  .debug_str:00000000000225c8 .LASF3635
C:\Users\CYMR90~1\AppData\Local\Temp\ccNy8eXk.s:26639  .debug_str:0000000000015eef .LASF3636
C:\Users\CYMR90~1\AppData\Local\Temp\ccNy8eXk.s:31596  .debug_str:0000000000029c99 .LASF3637
C:\Users\CYMR90~1\AppData\Local\Temp\ccNy8eXk.s:24243  .debug_str:000000000000c85b .LASF3638
C:\Users\CYMR90~1\AppData\Local\Temp\ccNy8eXk.s:32424  .debug_str:000000000002d09d .LASF3639
C:\Users\CYMR90~1\AppData\Local\Temp\ccNy8eXk.s:30056  .debug_str:000000000002381c .LASF3640
C:\Users\CYMR90~1\AppData\Local\Temp\ccNy8eXk.s:30494  .debug_str:0000000000025578 .LASF3641
C:\Users\CYMR90~1\AppData\Local\Temp\ccNy8eXk.s:25585  .debug_str:0000000000011c89 .LASF3642
C:\Users\CYMR90~1\AppData\Local\Temp\ccNy8eXk.s:25953  .debug_str:000000000001349b .LASF3643
C:\Users\CYMR90~1\AppData\Local\Temp\ccNy8eXk.s:21573  .debug_str:0000000000001d6b .LASF3644
C:\Users\CYMR90~1\AppData\Local\Temp\ccNy8eXk.s:22917  .debug_str:0000000000007191 .LASF3645
C:\Users\CYMR90~1\AppData\Local\Temp\ccNy8eXk.s:32048  .debug_str:000000000002b7af .LASF3646
C:\Users\CYMR90~1\AppData\Local\Temp\ccNy8eXk.s:26669  .debug_str:00000000000160fa .LASF3647
C:\Users\CYMR90~1\AppData\Local\Temp\ccNy8eXk.s:27462  .debug_str:000000000001956e .LASF3648
C:\Users\CYMR90~1\AppData\Local\Temp\ccNy8eXk.s:24523  .debug_str:000000000000da66 .LASF3649
C:\Users\CYMR90~1\AppData\Local\Temp\ccNy8eXk.s:25801  .debug_str:0000000000012a5d .LASF3650
C:\Users\CYMR90~1\AppData\Local\Temp\ccNy8eXk.s:21345  .debug_str:0000000000000f7a .LASF3651
C:\Users\CYMR90~1\AppData\Local\Temp\ccNy8eXk.s:27732  .debug_str:000000000001a7d4 .LASF3652
C:\Users\CYMR90~1\AppData\Local\Temp\ccNy8eXk.s:22181  .debug_str:0000000000004399 .LASF3653
C:\Users\CYMR90~1\AppData\Local\Temp\ccNy8eXk.s:27978  .debug_str:000000000001b7d0 .LASF3654
C:\Users\CYMR90~1\AppData\Local\Temp\ccNy8eXk.s:22457  .debug_str:0000000000005537 .LASF3655
C:\Users\CYMR90~1\AppData\Local\Temp\ccNy8eXk.s:23565  .debug_str:0000000000009bc0 .LASF3656
C:\Users\CYMR90~1\AppData\Local\Temp\ccNy8eXk.s:22739  .debug_str:000000000000666b .LASF3657
C:\Users\CYMR90~1\AppData\Local\Temp\ccNy8eXk.s:28482  .debug_str:000000000001d886 .LASF3658
C:\Users\CYMR90~1\AppData\Local\Temp\ccNy8eXk.s:30972  .debug_str:0000000000027433 .LASF3659
C:\Users\CYMR90~1\AppData\Local\Temp\ccNy8eXk.s:29688  .debug_str:0000000000022200 .LASF3660
C:\Users\CYMR90~1\AppData\Local\Temp\ccNy8eXk.s:22775  .debug_str:0000000000006866 .LASF3661
C:\Users\CYMR90~1\AppData\Local\Temp\ccNy8eXk.s:31606  .debug_str:0000000000029d46 .LASF3662
C:\Users\CYMR90~1\AppData\Local\Temp\ccNy8eXk.s:28936  .debug_str:000000000001f46f .LASF3663
C:\Users\CYMR90~1\AppData\Local\Temp\ccNy8eXk.s:26349  .debug_str:0000000000014d00 .LASF3664
C:\Users\CYMR90~1\AppData\Local\Temp\ccNy8eXk.s:23841  .debug_str:000000000000ad84 .LASF3665
C:\Users\CYMR90~1\AppData\Local\Temp\ccNy8eXk.s:21207  .debug_str:0000000000000636 .LASF3666
C:\Users\CYMR90~1\AppData\Local\Temp\ccNy8eXk.s:25087  .debug_str:000000000000fcbb .LASF3667
C:\Users\CYMR90~1\AppData\Local\Temp\ccNy8eXk.s:24027  .debug_str:000000000000ba2b .LASF3668
C:\Users\CYMR90~1\AppData\Local\Temp\ccNy8eXk.s:24797  .debug_str:000000000000eb1e .LASF3669
C:\Users\CYMR90~1\AppData\Local\Temp\ccNy8eXk.s:22955  .debug_str:0000000000007480 .LASF3670
C:\Users\CYMR90~1\AppData\Local\Temp\ccNy8eXk.s:31040  .debug_str:0000000000027820 .LASF3671
C:\Users\CYMR90~1\AppData\Local\Temp\ccNy8eXk.s:28404  .debug_str:000000000001d352 .LASF3672
C:\Users\CYMR90~1\AppData\Local\Temp\ccNy8eXk.s:25897  .debug_str:000000000001309a .LASF3673
C:\Users\CYMR90~1\AppData\Local\Temp\ccNy8eXk.s:27994  .debug_str:000000000001b8d3 .LASF3674
C:\Users\CYMR90~1\AppData\Local\Temp\ccNy8eXk.s:32008  .debug_str:000000000002b518 .LASF3675
C:\Users\CYMR90~1\AppData\Local\Temp\ccNy8eXk.s:25225  .debug_str:000000000001054d .LASF3676
C:\Users\CYMR90~1\AppData\Local\Temp\ccNy8eXk.s:31276  .debug_str:00000000000288e4 .LASF3677
C:\Users\CYMR90~1\AppData\Local\Temp\ccNy8eXk.s:24223  .debug_str:000000000000c726 .LASF3678
C:\Users\CYMR90~1\AppData\Local\Temp\ccNy8eXk.s:21655  .debug_str:0000000000002202 .LASF3679
C:\Users\CYMR90~1\AppData\Local\Temp\ccNy8eXk.s:25203  .debug_str:000000000001040b .LASF3680
C:\Users\CYMR90~1\AppData\Local\Temp\ccNy8eXk.s:25125  .debug_str:000000000000ff19 .LASF3681
C:\Users\CYMR90~1\AppData\Local\Temp\ccNy8eXk.s:25333  .debug_str:0000000000010c0e .LASF3682
C:\Users\CYMR90~1\AppData\Local\Temp\ccNy8eXk.s:29668  .debug_str:00000000000220bc .LASF3683
C:\Users\CYMR90~1\AppData\Local\Temp\ccNy8eXk.s:26011  .debug_str:000000000001384f .LASF3684
C:\Users\CYMR90~1\AppData\Local\Temp\ccNy8eXk.s:23123  .debug_str:0000000000007f71 .LASF3685
C:\Users\CYMR90~1\AppData\Local\Temp\ccNy8eXk.s:29906  .debug_str:0000000000022efa .LASF3686
C:\Users\CYMR90~1\AppData\Local\Temp\ccNy8eXk.s:32050  .debug_str:000000000002b7d3 .LASF3687
C:\Users\CYMR90~1\AppData\Local\Temp\ccNy8eXk.s:31580  .debug_str:0000000000029ba3 .LASF3688
C:\Users\CYMR90~1\AppData\Local\Temp\ccNy8eXk.s:28082  .debug_str:000000000001bdf3 .LASF3689
C:\Users\CYMR90~1\AppData\Local\Temp\ccNy8eXk.s:22921  .debug_str:00000000000071d3 .LASF3690
C:\Users\CYMR90~1\AppData\Local\Temp\ccNy8eXk.s:22505  .debug_str:0000000000005836 .LASF3691
C:\Users\CYMR90~1\AppData\Local\Temp\ccNy8eXk.s:23007  .debug_str:000000000000776b .LASF3692
C:\Users\CYMR90~1\AppData\Local\Temp\ccNy8eXk.s:21959  .debug_str:0000000000003558 .LASF3693
C:\Users\CYMR90~1\AppData\Local\Temp\ccNy8eXk.s:30310  .debug_str:0000000000024876 .LASF3694
C:\Users\CYMR90~1\AppData\Local\Temp\ccNy8eXk.s:25153  .debug_str:00000000000100c3 .LASF3695
C:\Users\CYMR90~1\AppData\Local\Temp\ccNy8eXk.s:23311  .debug_str:0000000000008bb8 .LASF3696
C:\Users\CYMR90~1\AppData\Local\Temp\ccNy8eXk.s:23413  .debug_str:0000000000009224 .LASF3697
C:\Users\CYMR90~1\AppData\Local\Temp\ccNy8eXk.s:29562  .debug_str:0000000000021a4e .LASF3698
C:\Users\CYMR90~1\AppData\Local\Temp\ccNy8eXk.s:31514  .debug_str:00000000000297d2 .LASF3699
C:\Users\CYMR90~1\AppData\Local\Temp\ccNy8eXk.s:29818  .debug_str:0000000000022982 .LASF3700
C:\Users\CYMR90~1\AppData\Local\Temp\ccNy8eXk.s:31408  .debug_str:00000000000290a9 .LASF3701
C:\Users\CYMR90~1\AppData\Local\Temp\ccNy8eXk.s:21239  .debug_str:0000000000000870 .LASF3702
C:\Users\CYMR90~1\AppData\Local\Temp\ccNy8eXk.s:29854  .debug_str:0000000000022c0a .LASF3703
C:\Users\CYMR90~1\AppData\Local\Temp\ccNy8eXk.s:26852  .debug_str:0000000000016ef7 .LASF3704
C:\Users\CYMR90~1\AppData\Local\Temp\ccNy8eXk.s:23849  .debug_str:000000000000adf8 .LASF3705
C:\Users\CYMR90~1\AppData\Local\Temp\ccNy8eXk.s:24397  .debug_str:000000000000d290 .LASF3706
C:\Users\CYMR90~1\AppData\Local\Temp\ccNy8eXk.s:22907  .debug_str:00000000000070e2 .LASF3707
C:\Users\CYMR90~1\AppData\Local\Temp\ccNy8eXk.s:26469  .debug_str:000000000001548b .LASF3708
C:\Users\CYMR90~1\AppData\Local\Temp\ccNy8eXk.s:24269  .debug_str:000000000000caa5 .LASF3709
C:\Users\CYMR90~1\AppData\Local\Temp\ccNy8eXk.s:29924  .debug_str:0000000000022ff4 .LASF3710
C:\Users\CYMR90~1\AppData\Local\Temp\ccNy8eXk.s:27884  .debug_str:000000000001b1e8 .LASF3711
C:\Users\CYMR90~1\AppData\Local\Temp\ccNy8eXk.s:29862  .debug_str:0000000000022c99 .LASF3712
C:\Users\CYMR90~1\AppData\Local\Temp\ccNy8eXk.s:26992  .debug_str:000000000001773d .LASF3713
C:\Users\CYMR90~1\AppData\Local\Temp\ccNy8eXk.s:24715  .debug_str:000000000000e5e0 .LASF3714
C:\Users\CYMR90~1\AppData\Local\Temp\ccNy8eXk.s:28906  .debug_str:000000000001f265 .LASF3715
C:\Users\CYMR90~1\AppData\Local\Temp\ccNy8eXk.s:23905  .debug_str:000000000000b23c .LASF3716
C:\Users\CYMR90~1\AppData\Local\Temp\ccNy8eXk.s:26173  .debug_str:000000000001425f .LASF3717
C:\Users\CYMR90~1\AppData\Local\Temp\ccNy8eXk.s:27134  .debug_str:0000000000018001 .LASF3718
C:\Users\CYMR90~1\AppData\Local\Temp\ccNy8eXk.s:30866  .debug_str:0000000000026d1e .LASF3719
C:\Users\CYMR90~1\AppData\Local\Temp\ccNy8eXk.s:23689  .debug_str:000000000000a36c .LASF3720
C:\Users\CYMR90~1\AppData\Local\Temp\ccNy8eXk.s:22425  .debug_str:0000000000005330 .LASF3721
C:\Users\CYMR90~1\AppData\Local\Temp\ccNy8eXk.s:27428  .debug_str:0000000000019342 .LASF3722
C:\Users\CYMR90~1\AppData\Local\Temp\ccNy8eXk.s:23949  .debug_str:000000000000b4c5 .LASF3723
C:\Users\CYMR90~1\AppData\Local\Temp\ccNy8eXk.s:24683  .debug_str:000000000000e409 .LASF3724
C:\Users\CYMR90~1\AppData\Local\Temp\ccNy8eXk.s:27746  .debug_str:000000000001a918 .LASF3725
C:\Users\CYMR90~1\AppData\Local\Temp\ccNy8eXk.s:31994  .debug_str:000000000002b41a .LASF3726
C:\Users\CYMR90~1\AppData\Local\Temp\ccNy8eXk.s:24543  .debug_str:000000000000dbae .LASF3727
C:\Users\CYMR90~1\AppData\Local\Temp\ccNy8eXk.s:22513  .debug_str:00000000000058a5 .LASF3728
C:\Users\CYMR90~1\AppData\Local\Temp\ccNy8eXk.s:31638  .debug_str:0000000000029f17 .LASF3729
C:\Users\CYMR90~1\AppData\Local\Temp\ccNy8eXk.s:29358  .debug_str:0000000000020e07 .LASF3730
C:\Users\CYMR90~1\AppData\Local\Temp\ccNy8eXk.s:22517  .debug_str:0000000000005905 .LASF3731
C:\Users\CYMR90~1\AppData\Local\Temp\ccNy8eXk.s:21353  .debug_str:0000000000000fd9 .LASF3732
C:\Users\CYMR90~1\AppData\Local\Temp\ccNy8eXk.s:22611  .debug_str:0000000000005e84 .LASF3733
C:\Users\CYMR90~1\AppData\Local\Temp\ccNy8eXk.s:26057  .debug_str:0000000000013b18 .LASF3734
C:\Users\CYMR90~1\AppData\Local\Temp\ccNy8eXk.s:31916  .debug_str:000000000002af96 .LASF3735
C:\Users\CYMR90~1\AppData\Local\Temp\ccNy8eXk.s:30672  .debug_str:0000000000026172 .LASF3736
C:\Users\CYMR90~1\AppData\Local\Temp\ccNy8eXk.s:22337  .debug_str:0000000000004e13 .LASF3737
C:\Users\CYMR90~1\AppData\Local\Temp\ccNy8eXk.s:30144  .debug_str:0000000000023d3a .LASF3738
C:\Users\CYMR90~1\AppData\Local\Temp\ccNy8eXk.s:29278  .debug_str:0000000000020972 .LASF3739
C:\Users\CYMR90~1\AppData\Local\Temp\ccNy8eXk.s:31792  .debug_str:000000000002a84d .LASF3740
C:\Users\CYMR90~1\AppData\Local\Temp\ccNy8eXk.s:24819  .debug_str:000000000000ec6c .LASF3741
C:\Users\CYMR90~1\AppData\Local\Temp\ccNy8eXk.s:22525  .debug_str:000000000000595b .LASF3742
C:\Users\CYMR90~1\AppData\Local\Temp\ccNy8eXk.s:24179  .debug_str:000000000000c473 .LASF3743
C:\Users\CYMR90~1\AppData\Local\Temp\ccNy8eXk.s:29370  .debug_str:0000000000020ea9 .LASF3744
C:\Users\CYMR90~1\AppData\Local\Temp\ccNy8eXk.s:27236  .debug_str:000000000001860c .LASF3745
C:\Users\CYMR90~1\AppData\Local\Temp\ccNy8eXk.s:28320  .debug_str:000000000001cd21 .LASF3746
C:\Users\CYMR90~1\AppData\Local\Temp\ccNy8eXk.s:31382  .debug_str:0000000000028f27 .LASF3747
C:\Users\CYMR90~1\AppData\Local\Temp\ccNy8eXk.s:29188  .debug_str:0000000000020396 .LASF3748
C:\Users\CYMR90~1\AppData\Local\Temp\ccNy8eXk.s:32330  .debug_str:000000000002caaf .LASF3749
C:\Users\CYMR90~1\AppData\Local\Temp\ccNy8eXk.s:21997  .debug_str:0000000000003772 .LASF3750
C:\Users\CYMR90~1\AppData\Local\Temp\ccNy8eXk.s:30476  .debug_str:000000000002545d .LASF3751
C:\Users\CYMR90~1\AppData\Local\Temp\ccNy8eXk.s:21363  .debug_str:000000000000105e .LASF3752
C:\Users\CYMR90~1\AppData\Local\Temp\ccNy8eXk.s:28486  .debug_str:000000000001d8cd .LASF3753
C:\Users\CYMR90~1\AppData\Local\Temp\ccNy8eXk.s:25931  .debug_str:0000000000013282 .LASF3754
C:\Users\CYMR90~1\AppData\Local\Temp\ccNy8eXk.s:32418  .debug_str:000000000002d04f .LASF3755
C:\Users\CYMR90~1\AppData\Local\Temp\ccNy8eXk.s:21797  .debug_str:0000000000002ae5 .LASF3756
C:\Users\CYMR90~1\AppData\Local\Temp\ccNy8eXk.s:30922  .debug_str:00000000000270a5 .LASF3757
C:\Users\CYMR90~1\AppData\Local\Temp\ccNy8eXk.s:25787  .debug_str:0000000000012959 .LASF3758
C:\Users\CYMR90~1\AppData\Local\Temp\ccNy8eXk.s:29180  .debug_str:00000000000202dc .LASF3759
C:\Users\CYMR90~1\AppData\Local\Temp\ccNy8eXk.s:29322  .debug_str:0000000000020bee .LASF3760
C:\Users\CYMR90~1\AppData\Local\Temp\ccNy8eXk.s:21323  .debug_str:0000000000000db5 .LASF3761
C:\Users\CYMR90~1\AppData\Local\Temp\ccNy8eXk.s:28546  .debug_str:000000000001dc5a .LASF3762
C:\Users\CYMR90~1\AppData\Local\Temp\ccNy8eXk.s:21421  .debug_str:00000000000013b7 .LASF3763
C:\Users\CYMR90~1\AppData\Local\Temp\ccNy8eXk.s:31176  .debug_str:0000000000028188 .LASF3764
C:\Users\CYMR90~1\AppData\Local\Temp\ccNy8eXk.s:25683  .debug_str:0000000000012292 .LASF3765
C:\Users\CYMR90~1\AppData\Local\Temp\ccNy8eXk.s:28682  .debug_str:000000000001e4b2 .LASF3766
C:\Users\CYMR90~1\AppData\Local\Temp\ccNy8eXk.s:27598  .debug_str:0000000000019e28 .LASF3767
C:\Users\CYMR90~1\AppData\Local\Temp\ccNy8eXk.s:26357  .debug_str:0000000000014d97 .LASF3768
C:\Users\CYMR90~1\AppData\Local\Temp\ccNy8eXk.s:25175  .debug_str:000000000001024e .LASF3769
C:\Users\CYMR90~1\AppData\Local\Temp\ccNy8eXk.s:32038  .debug_str:000000000002b6e0 .LASF3770
C:\Users\CYMR90~1\AppData\Local\Temp\ccNy8eXk.s:30394  .debug_str:0000000000024e06 .LASF3771
C:\Users\CYMR90~1\AppData\Local\Temp\ccNy8eXk.s:21537  .debug_str:0000000000001b2b .LASF3772
C:\Users\CYMR90~1\AppData\Local\Temp\ccNy8eXk.s:31162  .debug_str:0000000000028045 .LASF3773
C:\Users\CYMR90~1\AppData\Local\Temp\ccNy8eXk.s:31400  .debug_str:0000000000029010 .LASF3774
C:\Users\CYMR90~1\AppData\Local\Temp\ccNy8eXk.s:24351  .debug_str:000000000000cf5f .LASF3775
C:\Users\CYMR90~1\AppData\Local\Temp\ccNy8eXk.s:31744  .debug_str:000000000002a514 .LASF3776
C:\Users\CYMR90~1\AppData\Local\Temp\ccNy8eXk.s:21547  .debug_str:0000000000001bf2 .LASF3777
C:\Users\CYMR90~1\AppData\Local\Temp\ccNy8eXk.s:30410  .debug_str:0000000000024f29 .LASF3778
C:\Users\CYMR90~1\AppData\Local\Temp\ccNy8eXk.s:23647  .debug_str:000000000000a0c9 .LASF3779
C:\Users\CYMR90~1\AppData\Local\Temp\ccNy8eXk.s:29430  .debug_str:00000000000211f3 .LASF3780
C:\Users\CYMR90~1\AppData\Local\Temp\ccNy8eXk.s:26587  .debug_str:0000000000015b55 .LASF3781
C:\Users\CYMR90~1\AppData\Local\Temp\ccNy8eXk.s:27614  .debug_str:0000000000019f25 .LASF3782
C:\Users\CYMR90~1\AppData\Local\Temp\ccNy8eXk.s:24457  .debug_str:000000000000d6bb .LASF3783
C:\Users\CYMR90~1\AppData\Local\Temp\ccNy8eXk.s:22565  .debug_str:0000000000005baa .LASF3784
C:\Users\CYMR90~1\AppData\Local\Temp\ccNy8eXk.s:31080  .debug_str:0000000000027a9d .LASF3785
C:\Users\CYMR90~1\AppData\Local\Temp\ccNy8eXk.s:24949  .debug_str:000000000000f3fb .LASF3786
C:\Users\CYMR90~1\AppData\Local\Temp\ccNy8eXk.s:24137  .debug_str:000000000000c1cc .LASF3787
C:\Users\CYMR90~1\AppData\Local\Temp\ccNy8eXk.s:30034  .debug_str:00000000000236a3 .LASF3788
C:\Users\CYMR90~1\AppData\Local\Temp\ccNy8eXk.s:21269  .debug_str:0000000000000a40 .LASF3789
C:\Users\CYMR90~1\AppData\Local\Temp\ccNy8eXk.s:22101  .debug_str:0000000000003e12 .LASF3790
C:\Users\CYMR90~1\AppData\Local\Temp\ccNy8eXk.s:31050  .debug_str:00000000000278b4 .LASF3791
C:\Users\CYMR90~1\AppData\Local\Temp\ccNy8eXk.s:22717  .debug_str:000000000000652c .LASF3792
C:\Users\CYMR90~1\AppData\Local\Temp\ccNy8eXk.s:24065  .debug_str:000000000000bcb4 .LASF3793
C:\Users\CYMR90~1\AppData\Local\Temp\ccNy8eXk.s:25165  .debug_str:00000000000101a5 .LASF3794
C:\Users\CYMR90~1\AppData\Local\Temp\ccNy8eXk.s:29406  .debug_str:0000000000021089 .LASF3795
C:\Users\CYMR90~1\AppData\Local\Temp\ccNy8eXk.s:22347  .debug_str:0000000000004eb4 .LASF3796
C:\Users\CYMR90~1\AppData\Local\Temp\ccNy8eXk.s:26567  .debug_str:0000000000015a11 .LASF3797
C:\Users\CYMR90~1\AppData\Local\Temp\ccNy8eXk.s:30882  .debug_str:0000000000026e0e .LASF3798
C:\Users\CYMR90~1\AppData\Local\Temp\ccNy8eXk.s:23837  .debug_str:000000000000ad38 .LASF3799
C:\Users\CYMR90~1\AppData\Local\Temp\ccNy8eXk.s:26149  .debug_str:000000000001408e .LASF3800
C:\Users\CYMR90~1\AppData\Local\Temp\ccNy8eXk.s:30462  .debug_str:00000000000252c0 .LASF3801
C:\Users\CYMR90~1\AppData\Local\Temp\ccNy8eXk.s:24329  .debug_str:000000000000cde5 .LASF3802
C:\Users\CYMR90~1\AppData\Local\Temp\ccNy8eXk.s:29598  .debug_str:0000000000021cb2 .LASF3803
C:\Users\CYMR90~1\AppData\Local\Temp\ccNy8eXk.s:27700  .debug_str:000000000001a591 .LASF3804
C:\Users\CYMR90~1\AppData\Local\Temp\ccNy8eXk.s:31992  .debug_str:000000000002b3e8 .LASF3805
C:\Users\CYMR90~1\AppData\Local\Temp\ccNy8eXk.s:24943  .debug_str:000000000000f378 .LASF3806
C:\Users\CYMR90~1\AppData\Local\Temp\ccNy8eXk.s:29092  .debug_str:000000000001fdd2 .LASF3807
C:\Users\CYMR90~1\AppData\Local\Temp\ccNy8eXk.s:22043  .debug_str:0000000000003a62 .LASF3808
C:\Users\CYMR90~1\AppData\Local\Temp\ccNy8eXk.s:25017  .debug_str:000000000000f898 .LASF3809
C:\Users\CYMR90~1\AppData\Local\Temp\ccNy8eXk.s:30180  .debug_str:0000000000023f82 .LASF3810
C:\Users\CYMR90~1\AppData\Local\Temp\ccNy8eXk.s:23533  .debug_str:00000000000099b5 .LASF3811
C:\Users\CYMR90~1\AppData\Local\Temp\ccNy8eXk.s:27840  .debug_str:000000000001aed9 .LASF3812
C:\Users\CYMR90~1\AppData\Local\Temp\ccNy8eXk.s:22151  .debug_str:000000000000413e .LASF3813
C:\Users\CYMR90~1\AppData\Local\Temp\ccNy8eXk.s:30224  .debug_str:00000000000242af .LASF3814
C:\Users\CYMR90~1\AppData\Local\Temp\ccNy8eXk.s:23177  .debug_str:0000000000008364 .LASF3815
C:\Users\CYMR90~1\AppData\Local\Temp\ccNy8eXk.s:24787  .debug_str:000000000000ea4a .LASF3816
C:\Users\CYMR90~1\AppData\Local\Temp\ccNy8eXk.s:31672  .debug_str:000000000002a0f6 .LASF3817
C:\Users\CYMR90~1\AppData\Local\Temp\ccNy8eXk.s:23005  .debug_str:0000000000007739 .LASF3818
C:\Users\CYMR90~1\AppData\Local\Temp\ccNy8eXk.s:28964  .debug_str:000000000001f5e4 .LASF3819
C:\Users\CYMR90~1\AppData\Local\Temp\ccNy8eXk.s:21751  .debug_str:0000000000002819 .LASF3820
C:\Users\CYMR90~1\AppData\Local\Temp\ccNy8eXk.s:27168  .debug_str:0000000000018203 .LASF3821
C:\Users\CYMR90~1\AppData\Local\Temp\ccNy8eXk.s:30362  .debug_str:0000000000024bf6 .LASF3822
C:\Users\CYMR90~1\AppData\Local\Temp\ccNy8eXk.s:23185  .debug_str:00000000000083e1 .LASF3823
C:\Users\CYMR90~1\AppData\Local\Temp\ccNy8eXk.s:30628  .debug_str:0000000000025e8c .LASF3824
C:\Users\CYMR90~1\AppData\Local\Temp\ccNy8eXk.s:25729  .debug_str:000000000001259f .LASF3825
C:\Users\CYMR90~1\AppData\Local\Temp\ccNy8eXk.s:29910  .debug_str:0000000000022f39 .LASF3826
C:\Users\CYMR90~1\AppData\Local\Temp\ccNy8eXk.s:22859  .debug_str:0000000000006dcb .LASF3827
C:\Users\CYMR90~1\AppData\Local\Temp\ccNy8eXk.s:25777  .debug_str:0000000000012899 .LASF3828
C:\Users\CYMR90~1\AppData\Local\Temp\ccNy8eXk.s:29094  .debug_str:000000000001fe04 .LASF3829
C:\Users\CYMR90~1\AppData\Local\Temp\ccNy8eXk.s:25689  .debug_str:000000000001231f .LASF3830
C:\Users\CYMR90~1\AppData\Local\Temp\ccNy8eXk.s:30664  .debug_str:00000000000260fc .LASF3831
C:\Users\CYMR90~1\AppData\Local\Temp\ccNy8eXk.s:29736  .debug_str:0000000000022491 .LASF3832
C:\Users\CYMR90~1\AppData\Local\Temp\ccNy8eXk.s:30602  .debug_str:0000000000025d04 .LASF3833
C:\Users\CYMR90~1\AppData\Local\Temp\ccNy8eXk.s:24733  .debug_str:000000000000e6f5 .LASF3834
C:\Users\CYMR90~1\AppData\Local\Temp\ccNy8eXk.s:30234  .debug_str:0000000000024375 .LASF3835
C:\Users\CYMR90~1\AppData\Local\Temp\ccNy8eXk.s:26583  .debug_str:0000000000015b04 .LASF3836
C:\Users\CYMR90~1\AppData\Local\Temp\ccNy8eXk.s:27006  .debug_str:0000000000017810 .LASF3837
C:\Users\CYMR90~1\AppData\Local\Temp\ccNy8eXk.s:24019  .debug_str:000000000000b9b3 .LASF3838
C:\Users\CYMR90~1\AppData\Local\Temp\ccNy8eXk.s:26365  .debug_str:0000000000014e20 .LASF3839
C:\Users\CYMR90~1\AppData\Local\Temp\ccNy8eXk.s:29302  .debug_str:0000000000020ac9 .LASF3840
C:\Users\CYMR90~1\AppData\Local\Temp\ccNy8eXk.s:26389  .debug_str:0000000000014fd5 .LASF3841
C:\Users\CYMR90~1\AppData\Local\Temp\ccNy8eXk.s:30696  .debug_str:00000000000262fb .LASF3842
C:\Users\CYMR90~1\AppData\Local\Temp\ccNy8eXk.s:27454  .debug_str:00000000000194e4 .LASF3843
C:\Users\CYMR90~1\AppData\Local\Temp\ccNy8eXk.s:25435  .debug_str:0000000000011221 .LASF3844
C:\Users\CYMR90~1\AppData\Local\Temp\ccNy8eXk.s:23099  .debug_str:0000000000007d47 .LASF3845
C:\Users\CYMR90~1\AppData\Local\Temp\ccNy8eXk.s:21433  .debug_str:000000000000148d .LASF3846
C:\Users\CYMR90~1\AppData\Local\Temp\ccNy8eXk.s:21117  .debug_str:00000000000000ff .LASF3847
C:\Users\CYMR90~1\AppData\Local\Temp\ccNy8eXk.s:26005  .debug_str:000000000001380e .LASF3848
C:\Users\CYMR90~1\AppData\Local\Temp\ccNy8eXk.s:22483  .debug_str:00000000000056d1 .LASF3849
C:\Users\CYMR90~1\AppData\Local\Temp\ccNy8eXk.s:27266  .debug_str:00000000000187bc .LASF3850
C:\Users\CYMR90~1\AppData\Local\Temp\ccNy8eXk.s:24625  .debug_str:000000000000e08c .LASF3851
C:\Users\CYMR90~1\AppData\Local\Temp\ccNy8eXk.s:23655  .debug_str:000000000000a163 .LASF3852
C:\Users\CYMR90~1\AppData\Local\Temp\ccNy8eXk.s:25119  .debug_str:000000000000feab .LASF3853
C:\Users\CYMR90~1\AppData\Local\Temp\ccNy8eXk.s:26970  .debug_str:00000000000175d8 .LASF3854
C:\Users\CYMR90~1\AppData\Local\Temp\ccNy8eXk.s:26425  .debug_str:00000000000151f8 .LASF3855
C:\Users\CYMR90~1\AppData\Local\Temp\ccNy8eXk.s:25815  .debug_str:0000000000012b68 .LASF3856
C:\Users\CYMR90~1\AppData\Local\Temp\ccNy8eXk.s:28116  .debug_str:000000000001c024 .LASF3857
C:\Users\CYMR90~1\AppData\Local\Temp\ccNy8eXk.s:24737  .debug_str:000000000000e774 .LASF3858
C:\Users\CYMR90~1\AppData\Local\Temp\ccNy8eXk.s:21307  .debug_str:0000000000000cd9 .LASF3859
C:\Users\CYMR90~1\AppData\Local\Temp\ccNy8eXk.s:31406  .debug_str:0000000000029085 .LASF3860
C:\Users\CYMR90~1\AppData\Local\Temp\ccNy8eXk.s:25879  .debug_str:0000000000012f5f .LASF3861
C:\Users\CYMR90~1\AppData\Local\Temp\ccNy8eXk.s:28500  .debug_str:000000000001d9a6 .LASF3862
C:\Users\CYMR90~1\AppData\Local\Temp\ccNy8eXk.s:21691  .debug_str:000000000000242e .LASF3863
C:\Users\CYMR90~1\AppData\Local\Temp\ccNy8eXk.s:21601  .debug_str:0000000000001f2b .LASF3864
C:\Users\CYMR90~1\AppData\Local\Temp\ccNy8eXk.s:30470  .debug_str:00000000000253f6 .LASF3865
C:\Users\CYMR90~1\AppData\Local\Temp\ccNy8eXk.s:30248  .debug_str:0000000000024488 .LASF3866
C:\Users\CYMR90~1\AppData\Local\Temp\ccNy8eXk.s:26848  .debug_str:0000000000016ebb .LASF3867
C:\Users\CYMR90~1\AppData\Local\Temp\ccNy8eXk.s:26155  .debug_str:000000000001411d .LASF3868
C:\Users\CYMR90~1\AppData\Local\Temp\ccNy8eXk.s:31394  .debug_str:0000000000028fcb .LASF3869
C:\Users\CYMR90~1\AppData\Local\Temp\ccNy8eXk.s:27988  .debug_str:000000000001b86a .LASF3870
C:\Users\CYMR90~1\AppData\Local\Temp\ccNy8eXk.s:21835  .debug_str:0000000000002d50 .LASF3871
C:\Users\CYMR90~1\AppData\Local\Temp\ccNy8eXk.s:31776  .debug_str:000000000002a74f .LASF3872
C:\Users\CYMR90~1\AppData\Local\Temp\ccNy8eXk.s:32082  .debug_str:000000000002ba02 .LASF3873
C:\Users\CYMR90~1\AppData\Local\Temp\ccNy8eXk.s:23819  .debug_str:000000000000ac16 .LASF3874
C:\Users\CYMR90~1\AppData\Local\Temp\ccNy8eXk.s:32390  .debug_str:000000000002cec1 .LASF3875
C:\Users\CYMR90~1\AppData\Local\Temp\ccNy8eXk.s:32312  .debug_str:000000000002c95f .LASF3876
C:\Users\CYMR90~1\AppData\Local\Temp\ccNy8eXk.s:25565  .debug_str:0000000000011b5b .LASF3877
C:\Users\CYMR90~1\AppData\Local\Temp\ccNy8eXk.s:22125  .debug_str:0000000000003fdf .LASF3878
C:\Users\CYMR90~1\AppData\Local\Temp\ccNy8eXk.s:30100  .debug_str:0000000000023ac1 .LASF3879
C:\Users\CYMR90~1\AppData\Local\Temp\ccNy8eXk.s:26687  .debug_str:000000000001620c .LASF3880
C:\Users\CYMR90~1\AppData\Local\Temp\ccNy8eXk.s:25133  .debug_str:000000000000ffbe .LASF3881
C:\Users\CYMR90~1\AppData\Local\Temp\ccNy8eXk.s:31254  .debug_str:000000000002873d .LASF3882
C:\Users\CYMR90~1\AppData\Local\Temp\ccNy8eXk.s:29234  .debug_str:00000000000206d8 .LASF3883
C:\Users\CYMR90~1\AppData\Local\Temp\ccNy8eXk.s:23143  .debug_str:00000000000080b9 .LASF3884
C:\Users\CYMR90~1\AppData\Local\Temp\ccNy8eXk.s:31094  .debug_str:0000000000027bc8 .LASF3885
C:\Users\CYMR90~1\AppData\Local\Temp\ccNy8eXk.s:27708  .debug_str:000000000001a61b .LASF3886
C:\Users\CYMR90~1\AppData\Local\Temp\ccNy8eXk.s:24301  .debug_str:000000000000cc78 .LASF3887
C:\Users\CYMR90~1\AppData\Local\Temp\ccNy8eXk.s:32254  .debug_str:000000000002c5e2 .LASF3888
C:\Users\CYMR90~1\AppData\Local\Temp\ccNy8eXk.s:22239  .debug_str:000000000000477d .LASF3889
C:\Users\CYMR90~1\AppData\Local\Temp\ccNy8eXk.s:25439  .debug_str:000000000001125c .LASF3890
C:\Users\CYMR90~1\AppData\Local\Temp\ccNy8eXk.s:28336  .debug_str:000000000001ceb0 .LASF3891
C:\Users\CYMR90~1\AppData\Local\Temp\ccNy8eXk.s:29954  .debug_str:0000000000023184 .LASF3892
C:\Users\CYMR90~1\AppData\Local\Temp\ccNy8eXk.s:31332  .debug_str:0000000000028c51 .LASF3893
C:\Users\CYMR90~1\AppData\Local\Temp\ccNy8eXk.s:21839  .debug_str:0000000000002da9 .LASF3894
C:\Users\CYMR90~1\AppData\Local\Temp\ccNy8eXk.s:28810  .debug_str:000000000001ec7c .LASF3895
C:\Users\CYMR90~1\AppData\Local\Temp\ccNy8eXk.s:26397  .debug_str:0000000000015055 .LASF3896
C:\Users\CYMR90~1\AppData\Local\Temp\ccNy8eXk.s:22997  .debug_str:00000000000076ca .LASF3897
C:\Users\CYMR90~1\AppData\Local\Temp\ccNy8eXk.s:30948  .debug_str:000000000002720e .LASF3898
C:\Users\CYMR90~1\AppData\Local\Temp\ccNy8eXk.s:23115  .debug_str:0000000000007edb .LASF3899
C:\Users\CYMR90~1\AppData\Local\Temp\ccNy8eXk.s:24157  .debug_str:000000000000c30f .LASF3900
C:\Users\CYMR90~1\AppData\Local\Temp\ccNy8eXk.s:32112  .debug_str:000000000002bbf9 .LASF3901
C:\Users\CYMR90~1\AppData\Local\Temp\ccNy8eXk.s:21741  .debug_str:000000000000275f .LASF3902
C:\Users\CYMR90~1\AppData\Local\Temp\ccNy8eXk.s:30124  .debug_str:0000000000023c37 .LASF3903
C:\Users\CYMR90~1\AppData\Local\Temp\ccNy8eXk.s:32044  .debug_str:000000000002b76c .LASF3904
C:\Users\CYMR90~1\AppData\Local\Temp\ccNy8eXk.s:28502  .debug_str:000000000001d9ca .LASF3905
C:\Users\CYMR90~1\AppData\Local\Temp\ccNy8eXk.s:25157  .debug_str:0000000000010108 .LASF3906
C:\Users\CYMR90~1\AppData\Local\Temp\ccNy8eXk.s:21541  .debug_str:0000000000001b7f .LASF3907
C:\Users\CYMR90~1\AppData\Local\Temp\ccNy8eXk.s:29652  .debug_str:0000000000021fc9 .LASF3908
C:\Users\CYMR90~1\AppData\Local\Temp\ccNy8eXk.s:26259  .debug_str:000000000001478e .LASF3909
C:\Users\CYMR90~1\AppData\Local\Temp\ccNy8eXk.s:24953  .debug_str:000000000000f445 .LASF3910
C:\Users\CYMR90~1\AppData\Local\Temp\ccNy8eXk.s:27538  .debug_str:0000000000019ab8 .LASF3911
C:\Users\CYMR90~1\AppData\Local\Temp\ccNy8eXk.s:27418  .debug_str:00000000000192b2 .LASF3912
C:\Users\CYMR90~1\AppData\Local\Temp\ccNy8eXk.s:28798  .debug_str:000000000001ebbf .LASF3913
C:\Users\CYMR90~1\AppData\Local\Temp\ccNy8eXk.s:30744  .debug_str:00000000000265c5 .LASF3914
C:\Users\CYMR90~1\AppData\Local\Temp\ccNy8eXk.s:28864  .debug_str:000000000001efda .LASF3915
C:\Users\CYMR90~1\AppData\Local\Temp\ccNy8eXk.s:23467  .debug_str:0000000000009541 .LASF3916
C:\Users\CYMR90~1\AppData\Local\Temp\ccNy8eXk.s:31892  .debug_str:000000000002ae3b .LASF3917
C:\Users\CYMR90~1\AppData\Local\Temp\ccNy8eXk.s:28374  .debug_str:000000000001d1aa .LASF3918
C:\Users\CYMR90~1\AppData\Local\Temp\ccNy8eXk.s:29588  .debug_str:0000000000021c12 .LASF3919
C:\Users\CYMR90~1\AppData\Local\Temp\ccNy8eXk.s:21549  .debug_str:0000000000001c24 .LASF3920
C:\Users\CYMR90~1\AppData\Local\Temp\ccNy8eXk.s:29506  .debug_str:0000000000021707 .LASF3921
C:\Users\CYMR90~1\AppData\Local\Temp\ccNy8eXk.s:26111  .debug_str:0000000000013e45 .LASF3922
C:\Users\CYMR90~1\AppData\Local\Temp\ccNy8eXk.s:31788  .debug_str:000000000002a80e .LASF3923
C:\Users\CYMR90~1\AppData\Local\Temp\ccNy8eXk.s:29440  .debug_str:000000000002128c .LASF3924
C:\Users\CYMR90~1\AppData\Local\Temp\ccNy8eXk.s:26053  .debug_str:0000000000013add .LASF3925
C:\Users\CYMR90~1\AppData\Local\Temp\ccNy8eXk.s:30760  .debug_str:00000000000266b7 .LASF3926
C:\Users\CYMR90~1\AppData\Local\Temp\ccNy8eXk.s:30590  .debug_str:0000000000025c60 .LASF3927
C:\Users\CYMR90~1\AppData\Local\Temp\ccNy8eXk.s:27192  .debug_str:000000000001837e .LASF3928
C:\Users\CYMR90~1\AppData\Local\Temp\ccNy8eXk.s:32368  .debug_str:000000000002cd14 .LASF3929
C:\Users\CYMR90~1\AppData\Local\Temp\ccNy8eXk.s:32334  .debug_str:000000000002caeb .LASF3930
C:\Users\CYMR90~1\AppData\Local\Temp\ccNy8eXk.s:22031  .debug_str:000000000000398b .LASF3931
C:\Users\CYMR90~1\AppData\Local\Temp\ccNy8eXk.s:28516  .debug_str:000000000001da9d .LASF3932
C:\Users\CYMR90~1\AppData\Local\Temp\ccNy8eXk.s:22909  .debug_str:0000000000007123 .LASF3933
C:\Users\CYMR90~1\AppData\Local\Temp\ccNy8eXk.s:23051  .debug_str:0000000000007a3f .LASF3934
C:\Users\CYMR90~1\AppData\Local\Temp\ccNy8eXk.s:27076  .debug_str:0000000000017c71 .LASF3935
C:\Users\CYMR90~1\AppData\Local\Temp\ccNy8eXk.s:31034  .debug_str:00000000000277bf .LASF3936
C:\Users\CYMR90~1\AppData\Local\Temp\ccNy8eXk.s:23631  .debug_str:0000000000009fd2 .LASF3937
C:\Users\CYMR90~1\AppData\Local\Temp\ccNy8eXk.s:32188  .debug_str:000000000002c146 .LASF3938
C:\Users\CYMR90~1\AppData\Local\Temp\ccNy8eXk.s:23159  .debug_str:0000000000008259 .LASF3939
C:\Users\CYMR90~1\AppData\Local\Temp\ccNy8eXk.s:25501  .debug_str:000000000001165e .LASF3940
C:\Users\CYMR90~1\AppData\Local\Temp\ccNy8eXk.s:28040  .debug_str:000000000001bb23 .LASF3941
C:\Users\CYMR90~1\AppData\Local\Temp\ccNy8eXk.s:32100  .debug_str:000000000002bb51 .LASF3942
C:\Users\CYMR90~1\AppData\Local\Temp\ccNy8eXk.s:26197  .debug_str:00000000000143a1 .LASF3943
C:\Users\CYMR90~1\AppData\Local\Temp\ccNy8eXk.s:28628  .debug_str:000000000001e197 .LASF3944
C:\Users\CYMR90~1\AppData\Local\Temp\ccNy8eXk.s:30964  .debug_str:00000000000273a8 .LASF3945
C:\Users\CYMR90~1\AppData\Local\Temp\ccNy8eXk.s:21977  .debug_str:0000000000003653 .LASF3946
C:\Users\CYMR90~1\AppData\Local\Temp\ccNy8eXk.s:29334  .debug_str:0000000000020cb9 .LASF3947
C:\Users\CYMR90~1\AppData\Local\Temp\ccNy8eXk.s:21893  .debug_str:00000000000030c5 .LASF3948
C:\Users\CYMR90~1\AppData\Local\Temp\ccNy8eXk.s:28970  .debug_str:000000000001f648 .LASF3949
C:\Users\CYMR90~1\AppData\Local\Temp\ccNy8eXk.s:31362  .debug_str:0000000000028dc4 .LASF3950
C:\Users\CYMR90~1\AppData\Local\Temp\ccNy8eXk.s:25835  .debug_str:0000000000012c5a .LASF3951
C:\Users\CYMR90~1\AppData\Local\Temp\ccNy8eXk.s:24623  .debug_str:000000000000e066 .LASF3952
C:\Users\CYMR90~1\AppData\Local\Temp\ccNy8eXk.s:21639  .debug_str:000000000000212b .LASF3953
C:\Users\CYMR90~1\AppData\Local\Temp\ccNy8eXk.s:23183  .debug_str:00000000000083bb .LASF3954
C:\Users\CYMR90~1\AppData\Local\Temp\ccNy8eXk.s:25527  .debug_str:000000000001189c .LASF3955
C:\Users\CYMR90~1\AppData\Local\Temp\ccNy8eXk.s:27444  .debug_str:0000000000019456 .LASF3956
C:\Users\CYMR90~1\AppData\Local\Temp\ccNy8eXk.s:25491  .debug_str:00000000000115a5 .LASF3957
C:\Users\CYMR90~1\AppData\Local\Temp\ccNy8eXk.s:21191  .debug_str:0000000000000561 .LASF3958
C:\Users\CYMR90~1\AppData\Local\Temp\ccNy8eXk.s:27920  .debug_str:000000000001b43b .LASF3959
C:\Users\CYMR90~1\AppData\Local\Temp\ccNy8eXk.s:31956  .debug_str:000000000002b1b4 .LASF3960
C:\Users\CYMR90~1\AppData\Local\Temp\ccNy8eXk.s:24551  .debug_str:000000000000dc11 .LASF3961
C:\Users\CYMR90~1\AppData\Local\Temp\ccNy8eXk.s:23561  .debug_str:0000000000009b89 .LASF3962
C:\Users\CYMR90~1\AppData\Local\Temp\ccNy8eXk.s:27484  .debug_str:000000000001969a .LASF3963
C:\Users\CYMR90~1\AppData\Local\Temp\ccNy8eXk.s:23435  .debug_str:0000000000009373 .LASF3964
C:\Users\CYMR90~1\AppData\Local\Temp\ccNy8eXk.s:27380  .debug_str:0000000000018fb4 .LASF3965
C:\Users\CYMR90~1\AppData\Local\Temp\ccNy8eXk.s:31322  .debug_str:0000000000028bbd .LASF3966
C:\Users\CYMR90~1\AppData\Local\Temp\ccNy8eXk.s:26331  .debug_str:0000000000014bcb .LASF3967
C:\Users\CYMR90~1\AppData\Local\Temp\ccNy8eXk.s:27874  .debug_str:000000000001b13b .LASF3968
C:\Users\CYMR90~1\AppData\Local\Temp\ccNy8eXk.s:31890  .debug_str:000000000002ae15 .LASF3969
C:\Users\CYMR90~1\AppData\Local\Temp\ccNy8eXk.s:24487  .debug_str:000000000000d878 .LASF3970
C:\Users\CYMR90~1\AppData\Local\Temp\ccNy8eXk.s:23617  .debug_str:0000000000009edb .LASF3971
C:\Users\CYMR90~1\AppData\Local\Temp\ccNy8eXk.s:25965  .debug_str:000000000001355a .LASF3972
C:\Users\CYMR90~1\AppData\Local\Temp\ccNy8eXk.s:29394  .debug_str:0000000000020ff6 .LASF3973
C:\Users\CYMR90~1\AppData\Local\Temp\ccNy8eXk.s:31166  .debug_str:00000000000280ce .LASF3974
C:\Users\CYMR90~1\AppData\Local\Temp\ccNy8eXk.s:28466  .debug_str:000000000001d79d .LASF3975
C:\Users\CYMR90~1\AppData\Local\Temp\ccNy8eXk.s:23855  .debug_str:000000000000ae50 .LASF3976
C:\Users\CYMR90~1\AppData\Local\Temp\ccNy8eXk.s:27810  .debug_str:000000000001ad0c .LASF3977
C:\Users\CYMR90~1\AppData\Local\Temp\ccNy8eXk.s:31818  .debug_str:000000000002a9ce .LASF3978
C:\Users\CYMR90~1\AppData\Local\Temp\ccNy8eXk.s:27132  .debug_str:0000000000017fdb .LASF3979
C:\Users\CYMR90~1\AppData\Local\Temp\ccNy8eXk.s:25935  .debug_str:000000000001330b .LASF3980
C:\Users\CYMR90~1\AppData\Local\Temp\ccNy8eXk.s:32314  .debug_str:000000000002c983 .LASF3981
C:\Users\CYMR90~1\AppData\Local\Temp\ccNy8eXk.s:25499  .debug_str:0000000000011638 .LASF3982
C:\Users\CYMR90~1\AppData\Local\Temp\ccNy8eXk.s:21929  .debug_str:0000000000003344 .LASF3983
C:\Users\CYMR90~1\AppData\Local\Temp\ccNy8eXk.s:31192  .debug_str:000000000002828d .LASF3984
C:\Users\CYMR90~1\AppData\Local\Temp\ccNy8eXk.s:31764  .debug_str:000000000002a6a2 .LASF3985
C:\Users\CYMR90~1\AppData\Local\Temp\ccNy8eXk.s:22745  .debug_str:00000000000066bb .LASF3986
C:\Users\CYMR90~1\AppData\Local\Temp\ccNy8eXk.s:31754  .debug_str:000000000002a5cb .LASF3987
C:\Users\CYMR90~1\AppData\Local\Temp\ccNy8eXk.s:24353  .debug_str:000000000000cf91 .LASF3988
C:\Users\CYMR90~1\AppData\Local\Temp\ccNy8eXk.s:28274  .debug_str:000000000001ca34 .LASF3989
C:\Users\CYMR90~1\AppData\Local\Temp\ccNy8eXk.s:32250  .debug_str:000000000002c595 .LASF3990
C:\Users\CYMR90~1\AppData\Local\Temp\ccNy8eXk.s:22295  .debug_str:0000000000004b97 .LASF3991
C:\Users\CYMR90~1\AppData\Local\Temp\ccNy8eXk.s:26321  .debug_str:0000000000014b4a .LASF3992
C:\Users\CYMR90~1\AppData\Local\Temp\ccNy8eXk.s:25849  .debug_str:0000000000012d61 .LASF3993
C:\Users\CYMR90~1\AppData\Local\Temp\ccNy8eXk.s:23719  .debug_str:000000000000a573 .LASF3994
C:\Users\CYMR90~1\AppData\Local\Temp\ccNy8eXk.s:27664  .debug_str:000000000001a1fe .LASF3995
C:\Users\CYMR90~1\AppData\Local\Temp\ccNy8eXk.s:25167  .debug_str:00000000000101d7 .LASF3996
C:\Users\CYMR90~1\AppData\Local\Temp\ccNy8eXk.s:28052  .debug_str:000000000001bc0b .LASF3997
C:\Users\CYMR90~1\AppData\Local\Temp\ccNy8eXk.s:28204  .debug_str:000000000001c526 .LASF3998
C:\Users\CYMR90~1\AppData\Local\Temp\ccNy8eXk.s:29510  .debug_str:0000000000021736 .LASF3999
C:\Users\CYMR90~1\AppData\Local\Temp\ccNy8eXk.s:24769  .debug_str:000000000000e944 .LASF4000
C:\Users\CYMR90~1\AppData\Local\Temp\ccNy8eXk.s:28654  .debug_str:000000000001e2fd .LASF4001
C:\Users\CYMR90~1\AppData\Local\Temp\ccNy8eXk.s:21281  .debug_str:0000000000000b51 .LASF4002
C:\Users\CYMR90~1\AppData\Local\Temp\ccNy8eXk.s:29686  .debug_str:00000000000221da .LASF4003
C:\Users\CYMR90~1\AppData\Local\Temp\ccNy8eXk.s:29780  .debug_str:0000000000022746 .LASF4004
C:\Users\CYMR90~1\AppData\Local\Temp\ccNy8eXk.s:31620  .debug_str:0000000000029e10 .LASF4005
C:\Users\CYMR90~1\AppData\Local\Temp\ccNy8eXk.s:24219  .debug_str:000000000000c6e4 .LASF4006
C:\Users\CYMR90~1\AppData\Local\Temp\ccNy8eXk.s:26341  .debug_str:0000000000014c73 .LASF4007
C:\Users\CYMR90~1\AppData\Local\Temp\ccNy8eXk.s:32118  .debug_str:000000000002bc57 .LASF4008
C:\Users\CYMR90~1\AppData\Local\Temp\ccNy8eXk.s:28680  .debug_str:000000000001e48c .LASF4009
C:\Users\CYMR90~1\AppData\Local\Temp\ccNy8eXk.s:28586  .debug_str:000000000001df62 .LASF4010
C:\Users\CYMR90~1\AppData\Local\Temp\ccNy8eXk.s:21223  .debug_str:0000000000000777 .LASF4011
C:\Users\CYMR90~1\AppData\Local\Temp\ccNy8eXk.s:32298  .debug_str:000000000002c856 .LASF4012
C:\Users\CYMR90~1\AppData\Local\Temp\ccNy8eXk.s:22203  .debug_str:000000000000450b .LASF4013
C:\Users\CYMR90~1\AppData\Local\Temp\ccNy8eXk.s:31556  .debug_str:0000000000029a35 .LASF4014
C:\Users\CYMR90~1\AppData\Local\Temp\ccNy8eXk.s:27546  .debug_str:0000000000019b34 .LASF4015
C:\Users\CYMR90~1\AppData\Local\Temp\ccNy8eXk.s:29870  .debug_str:0000000000022cf7 .LASF4016
C:\Users\CYMR90~1\AppData\Local\Temp\ccNy8eXk.s:32058  .debug_str:000000000002b855 .LASF4017
C:\Users\CYMR90~1\AppData\Local\Temp\ccNy8eXk.s:24645  .debug_str:000000000000e1a8 .LASF4018
C:\Users\CYMR90~1\AppData\Local\Temp\ccNy8eXk.s:22507  .debug_str:0000000000005858 .LASF4019
C:\Users\CYMR90~1\AppData\Local\Temp\ccNy8eXk.s:21151  .debug_str:0000000000000321 .LASF4020
C:\Users\CYMR90~1\AppData\Local\Temp\ccNy8eXk.s:25705  .debug_str:0000000000012414 .LASF4021
C:\Users\CYMR90~1\AppData\Local\Temp\ccNy8eXk.s:22071  .debug_str:0000000000003bfb .LASF4022
C:\Users\CYMR90~1\AppData\Local\Temp\ccNy8eXk.s:26185  .debug_str:00000000000142ee .LASF4023
C:\Users\CYMR90~1\AppData\Local\Temp\ccNy8eXk.s:24097  .debug_str:000000000000bf27 .LASF4024
C:\Users\CYMR90~1\AppData\Local\Temp\ccNy8eXk.s:21435  .debug_str:00000000000014b1 .LASF4025
C:\Users\CYMR90~1\AppData\Local\Temp\ccNy8eXk.s:24409  .debug_str:000000000000d35c .LASF4026
C:\Users\CYMR90~1\AppData\Local\Temp\ccNy8eXk.s:28850  .debug_str:000000000001eeee .LASF4027
C:\Users\CYMR90~1\AppData\Local\Temp\ccNy8eXk.s:29032  .debug_str:000000000001fa10 .LASF4028
C:\Users\CYMR90~1\AppData\Local\Temp\ccNy8eXk.s:32460  .debug_str:000000000002d2ec .LASF4029
C:\Users\CYMR90~1\AppData\Local\Temp\ccNy8eXk.s:21429  .debug_str:0000000000001455 .LASF4030
C:\Users\CYMR90~1\AppData\Local\Temp\ccNy8eXk.s:25635  .debug_str:0000000000011f8f .LASF4031
C:\Users\CYMR90~1\AppData\Local\Temp\ccNy8eXk.s:27974  .debug_str:000000000001b792 .LASF4032
C:\Users\CYMR90~1\AppData\Local\Temp\ccNy8eXk.s:30650  .debug_str:0000000000025fe2 .LASF4033
C:\Users\CYMR90~1\AppData\Local\Temp\ccNy8eXk.s:26367  .debug_str:0000000000014e42 .LASF4034
C:\Users\CYMR90~1\AppData\Local\Temp\ccNy8eXk.s:29584  .debug_str:0000000000021bd2 .LASF4035
C:\Users\CYMR90~1\AppData\Local\Temp\ccNy8eXk.s:21885  .debug_str:000000000000305b .LASF4036
C:\Users\CYMR90~1\AppData\Local\Temp\ccNy8eXk.s:23225  .debug_str:000000000000868b .LASF4037
C:\Users\CYMR90~1\AppData\Local\Temp\ccNy8eXk.s:27162  .debug_str:00000000000181a6 .LASF4038
C:\Users\CYMR90~1\AppData\Local\Temp\ccNy8eXk.s:31112  .debug_str:0000000000027cee .LASF4039
C:\Users\CYMR90~1\AppData\Local\Temp\ccNy8eXk.s:31104  .debug_str:0000000000027c6f .LASF4040
C:\Users\CYMR90~1\AppData\Local\Temp\ccNy8eXk.s:32318  .debug_str:000000000002c9c6 .LASF4041
C:\Users\CYMR90~1\AppData\Local\Temp\ccNy8eXk.s:31676  .debug_str:000000000002a13f .LASF4042
C:\Users\CYMR90~1\AppData\Local\Temp\ccNy8eXk.s:27366  .debug_str:0000000000018e93 .LASF4043
C:\Users\CYMR90~1\AppData\Local\Temp\ccNy8eXk.s:21757  .debug_str:000000000000289e .LASF4044
C:\Users\CYMR90~1\AppData\Local\Temp\ccNy8eXk.s:30556  .debug_str:0000000000025a4d .LASF4045
C:\Users\CYMR90~1\AppData\Local\Temp\ccNy8eXk.s:23165  .debug_str:000000000000829d .LASF4046
C:\Users\CYMR90~1\AppData\Local\Temp\ccNy8eXk.s:27088  .debug_str:0000000000017d1f .LASF4047
C:\Users\CYMR90~1\AppData\Local\Temp\ccNy8eXk.s:31882  .debug_str:000000000002ad7a .LASF4048
C:\Users\CYMR90~1\AppData\Local\Temp\ccNy8eXk.s:22095  .debug_str:0000000000003db4 .LASF4049
C:\Users\CYMR90~1\AppData\Local\Temp\ccNy8eXk.s:27586  .debug_str:0000000000019da9 .LASF4050
C:\Users\CYMR90~1\AppData\Local\Temp\ccNy8eXk.s:31614  .debug_str:0000000000029db6 .LASF4051
C:\Users\CYMR90~1\AppData\Local\Temp\ccNy8eXk.s:30028  .debug_str:0000000000023648 .LASF4052
C:\Users\CYMR90~1\AppData\Local\Temp\ccNy8eXk.s:29066  .debug_str:000000000001fc34 .LASF4053
C:\Users\CYMR90~1\AppData\Local\Temp\ccNy8eXk.s:30390  .debug_str:0000000000024dcd .LASF4054
C:\Users\CYMR90~1\AppData\Local\Temp\ccNy8eXk.s:32410  .debug_str:000000000002cff3 .LASF4055
C:\Users\CYMR90~1\AppData\Local\Temp\ccNy8eXk.s:27026  .debug_str:0000000000017992 .LASF4056
C:\Users\CYMR90~1\AppData\Local\Temp\ccNy8eXk.s:23317  .debug_str:0000000000008c2a .LASF4057
C:\Users\CYMR90~1\AppData\Local\Temp\ccNy8eXk.s:27756  .debug_str:000000000001a9ae .LASF4058
C:\Users\CYMR90~1\AppData\Local\Temp\ccNy8eXk.s:27996  .debug_str:000000000001b8f7 .LASF4059
C:\Users\CYMR90~1\AppData\Local\Temp\ccNy8eXk.s:31546  .debug_str:00000000000299ab .LASF4060
C:\Users\CYMR90~1\AppData\Local\Temp\ccNy8eXk.s:24151  .debug_str:000000000000c2bc .LASF4061
C:\Users\CYMR90~1\AppData\Local\Temp\ccNy8eXk.s:24565  .debug_str:000000000000dcb8 .LASF4062
C:\Users\CYMR90~1\AppData\Local\Temp\ccNy8eXk.s:25031  .debug_str:000000000000f96a .LASF4063
C:\Users\CYMR90~1\AppData\Local\Temp\ccNy8eXk.s:23027  .debug_str:00000000000078b0 .LASF4064
C:\Users\CYMR90~1\AppData\Local\Temp\ccNy8eXk.s:26962  .debug_str:000000000001755b .LASF4065
C:\Users\CYMR90~1\AppData\Local\Temp\ccNy8eXk.s:30006  .debug_str:000000000002349c .LASF4066
C:\Users\CYMR90~1\AppData\Local\Temp\ccNy8eXk.s:23497  .debug_str:0000000000009750 .LASF4067
C:\Users\CYMR90~1\AppData\Local\Temp\ccNy8eXk.s:32374  .debug_str:000000000002cd6c .LASF4068
C:\Users\CYMR90~1\AppData\Local\Temp\ccNy8eXk.s:31484  .debug_str:00000000000295d2 .LASF4069
C:\Users\CYMR90~1\AppData\Local\Temp\ccNy8eXk.s:24091  .debug_str:000000000000beae .LASF4070
C:\Users\CYMR90~1\AppData\Local\Temp\ccNy8eXk.s:28072  .debug_str:000000000001bd4a .LASF4071
C:\Users\CYMR90~1\AppData\Local\Temp\ccNy8eXk.s:30412  .debug_str:0000000000024f5b .LASF4072
C:\Users\CYMR90~1\AppData\Local\Temp\ccNy8eXk.s:26427  .debug_str:000000000001521c .LASF4073
C:\Users\CYMR90~1\AppData\Local\Temp\ccNy8eXk.s:26904  .debug_str:000000000001720a .LASF4074
C:\Users\CYMR90~1\AppData\Local\Temp\ccNy8eXk.s:28812  .debug_str:000000000001eca0 .LASF4075
C:\Users\CYMR90~1\AppData\Local\Temp\ccNy8eXk.s:21333  .debug_str:0000000000000e43 .LASF4076
C:\Users\CYMR90~1\AppData\Local\Temp\ccNy8eXk.s:27396  .debug_str:000000000001917d .LASF4077
C:\Users\CYMR90~1\AppData\Local\Temp\ccNy8eXk.s:26910  .debug_str:0000000000017276 .LASF4078
C:\Users\CYMR90~1\AppData\Local\Temp\ccNy8eXk.s:29230  .debug_str:000000000002069b .LASF4079
C:\Users\CYMR90~1\AppData\Local\Temp\ccNy8eXk.s:31594  .debug_str:0000000000029c73 .LASF4080
C:\Users\CYMR90~1\AppData\Local\Temp\ccNy8eXk.s:31902  .debug_str:000000000002aec1 .LASF4081
C:\Users\CYMR90~1\AppData\Local\Temp\ccNy8eXk.s:24947  .debug_str:000000000000f3d5 .LASF4082
C:\Users\CYMR90~1\AppData\Local\Temp\ccNy8eXk.s:32324  .debug_str:000000000002ca3f .LASF4083
C:\Users\CYMR90~1\AppData\Local\Temp\ccNy8eXk.s:30782  .debug_str:000000000002681a .LASF4084
C:\Users\CYMR90~1\AppData\Local\Temp\ccNy8eXk.s:24897  .debug_str:000000000000f09e .LASF4085
C:\Users\CYMR90~1\AppData\Local\Temp\ccNy8eXk.s:27328  .debug_str:0000000000018c51 .LASF4086
C:\Users\CYMR90~1\AppData\Local\Temp\ccNy8eXk.s:30434  .debug_str:000000000002509d .LASF4087
C:\Users\CYMR90~1\AppData\Local\Temp\ccNy8eXk.s:30262  .debug_str:0000000000024579 .LASF4088
C:\Users\CYMR90~1\AppData\Local\Temp\ccNy8eXk.s:27902  .debug_str:000000000001b328 .LASF4089
C:\Users\CYMR90~1\AppData\Local\Temp\ccNy8eXk.s:31832  .debug_str:000000000002aa7c .LASF4090
C:\Users\CYMR90~1\AppData\Local\Temp\ccNy8eXk.s:24437  .debug_str:000000000000d563 .LASF4091
C:\Users\CYMR90~1\AppData\Local\Temp\ccNy8eXk.s:30784  .debug_str:0000000000026840 .LASF4092
C:\Users\CYMR90~1\AppData\Local\Temp\ccNy8eXk.s:26811  .debug_str:0000000000016a3e .LASF4093
C:\Users\CYMR90~1\AppData\Local\Temp\ccNy8eXk.s:23321  .debug_str:0000000000008c64 .LASF4094
C:\Users\CYMR90~1\AppData\Local\Temp\ccNy8eXk.s:27254  .debug_str:00000000000186eb .LASF4095
C:\Users\CYMR90~1\AppData\Local\Temp\ccNy8eXk.s:25297  .debug_str:0000000000010996 .LASF4096
C:\Users\CYMR90~1\AppData\Local\Temp\ccNy8eXk.s:23895  .debug_str:000000000000b1a6 .LASF4097
C:\Users\CYMR90~1\AppData\Local\Temp\ccNy8eXk.s:27288  .debug_str:0000000000018950 .LASF4098
C:\Users\CYMR90~1\AppData\Local\Temp\ccNy8eXk.s:27508  .debug_str:000000000001986c .LASF4099
C:\Users\CYMR90~1\AppData\Local\Temp\ccNy8eXk.s:31986  .debug_str:000000000002b389 .LASF4100
C:\Users\CYMR90~1\AppData\Local\Temp\ccNy8eXk.s:22951  .debug_str:000000000000743f .LASF4101
C:\Users\CYMR90~1\AppData\Local\Temp\ccNy8eXk.s:32264  .debug_str:000000000002c676 .LASF4102
C:\Users\CYMR90~1\AppData\Local\Temp\ccNy8eXk.s:29284  .debug_str:00000000000209d5 .LASF4103
C:\Users\CYMR90~1\AppData\Local\Temp\ccNy8eXk.s:22893  .debug_str:000000000000700c .LASF4104
C:\Users\CYMR90~1\AppData\Local\Temp\ccNy8eXk.s:31228  .debug_str:0000000000028563 .LASF4105
C:\Users\CYMR90~1\AppData\Local\Temp\ccNy8eXk.s:23823  .debug_str:000000000000ac60 .LASF4106
C:\Users\CYMR90~1\AppData\Local\Temp\ccNy8eXk.s:22497  .debug_str:0000000000005780 .LASF4107
C:\Users\CYMR90~1\AppData\Local\Temp\ccNy8eXk.s:23263  .debug_str:00000000000088bf .LASF4108
C:\Users\CYMR90~1\AppData\Local\Temp\ccNy8eXk.s:24309  .debug_str:000000000000ccf2 .LASF4109
C:\Users\CYMR90~1\AppData\Local\Temp\ccNy8eXk.s:28222  .debug_str:000000000001c657 .LASF4110
C:\Users\CYMR90~1\AppData\Local\Temp\ccNy8eXk.s:32198  .debug_str:000000000002c1c0 .LASF4111
C:\Users\CYMR90~1\AppData\Local\Temp\ccNy8eXk.s:24885  .debug_str:000000000000eff9 .LASF4112
C:\Users\CYMR90~1\AppData\Local\Temp\ccNy8eXk.s:29006  .debug_str:000000000001f865 .LASF4113
C:\Users\CYMR90~1\AppData\Local\Temp\ccNy8eXk.s:29638  .debug_str:0000000000021f14 .LASF4114
C:\Users\CYMR90~1\AppData\Local\Temp\ccNy8eXk.s:32014  .debug_str:000000000002b57f .LASF4115
C:\Users\CYMR90~1\AppData\Local\Temp\ccNy8eXk.s:27714  .debug_str:000000000001a670 .LASF4116
C:\Users\CYMR90~1\AppData\Local\Temp\ccNy8eXk.s:24081  .debug_str:000000000000bdcb .LASF4117
C:\Users\CYMR90~1\AppData\Local\Temp\ccNy8eXk.s:27682  .debug_str:000000000001a4ca .LASF4118
C:\Users\CYMR90~1\AppData\Local\Temp\ccNy8eXk.s:28154  .debug_str:000000000001c27b .LASF4119
C:\Users\CYMR90~1\AppData\Local\Temp\ccNy8eXk.s:21229  .debug_str:00000000000007d6 .LASF4120
C:\Users\CYMR90~1\AppData\Local\Temp\ccNy8eXk.s:24233  .debug_str:000000000000c7ad .LASF4121
C:\Users\CYMR90~1\AppData\Local\Temp\ccNy8eXk.s:28688  .debug_str:000000000001e51b .LASF4122
C:\Users\CYMR90~1\AppData\Local\Temp\ccNy8eXk.s:22569  .debug_str:0000000000005c18 .LASF4123
C:\Users\CYMR90~1\AppData\Local\Temp\ccNy8eXk.s:23691  .debug_str:000000000000a38e .LASF4124
C:\Users\CYMR90~1\AppData\Local\Temp\ccNy8eXk.s:27628  .debug_str:000000000001a002 .LASF4125
C:\Users\CYMR90~1\AppData\Local\Temp\ccNy8eXk.s:31568  .debug_str:0000000000029af2 .LASF4126
C:\Users\CYMR90~1\AppData\Local\Temp\ccNy8eXk.s:24175  .debug_str:000000000000c42c .LASF4127
C:\Users\CYMR90~1\AppData\Local\Temp\ccNy8eXk.s:28100  .debug_str:000000000001bf27 .LASF4128
C:\Users\CYMR90~1\AppData\Local\Temp\ccNy8eXk.s:28330  .debug_str:000000000001ce5f .LASF4129
C:\Users\CYMR90~1\AppData\Local\Temp\ccNy8eXk.s:27776  .debug_str:000000000001ab08 .LASF4130
C:\Users\CYMR90~1\AppData\Local\Temp\ccNy8eXk.s:28624  .debug_str:000000000001e161 .LASF4131
C:\Users\CYMR90~1\AppData\Local\Temp\ccNy8eXk.s:32266  .debug_str:000000000002c69c .LASF4132
C:\Users\CYMR90~1\AppData\Local\Temp\ccNy8eXk.s:23779  .debug_str:000000000000a9e1 .LASF4133
C:\Users\CYMR90~1\AppData\Local\Temp\ccNy8eXk.s:22231  .debug_str:00000000000046fa .LASF4134
C:\Users\CYMR90~1\AppData\Local\Temp\ccNy8eXk.s:26287  .debug_str:0000000000014943 .LASF4135
C:\Users\CYMR90~1\AppData\Local\Temp\ccNy8eXk.s:30238  .debug_str:00000000000243bb .LASF4136
C:\Users\CYMR90~1\AppData\Local\Temp\ccNy8eXk.s:22821  .debug_str:0000000000006b78 .LASF4137
C:\Users\CYMR90~1\AppData\Local\Temp\ccNy8eXk.s:29716  .debug_str:000000000002239d .LASF4138
C:\Users\CYMR90~1\AppData\Local\Temp\ccNy8eXk.s:32096  .debug_str:000000000002baf0 .LASF4139
C:\Users\CYMR90~1\AppData\Local\Temp\ccNy8eXk.s:22805  .debug_str:0000000000006a71 .LASF4140
C:\Users\CYMR90~1\AppData\Local\Temp\ccNy8eXk.s:27248  .debug_str:000000000001869f .LASF4141
C:\Users\CYMR90~1\AppData\Local\Temp\ccNy8eXk.s:31290  .debug_str:00000000000289c5 .LASF4142
C:\Users\CYMR90~1\AppData\Local\Temp\ccNy8eXk.s:30626  .debug_str:0000000000025e66 .LASF4143
C:\Users\CYMR90~1\AppData\Local\Temp\ccNy8eXk.s:26221  .debug_str:00000000000144ca .LASF4144
C:\Users\CYMR90~1\AppData\Local\Temp\ccNy8eXk.s:30324  .debug_str:000000000002494a .LASF4145
C:\Users\CYMR90~1\AppData\Local\Temp\ccNy8eXk.s:30918  .debug_str:000000000002706b .LASF4146
C:\Users\CYMR90~1\AppData\Local\Temp\ccNy8eXk.s:28432  .debug_str:000000000001d54c .LASF4147
C:\Users\CYMR90~1\AppData\Local\Temp\ccNy8eXk.s:29160  .debug_str:00000000000201d0 .LASF4148
C:\Users\CYMR90~1\AppData\Local\Temp\ccNy8eXk.s:26569  .debug_str:0000000000015a43 .LASF4149
C:\Users\CYMR90~1\AppData\Local\Temp\ccNy8eXk.s:28866  .debug_str:000000000001effe .LASF4150
C:\Users\CYMR90~1\AppData\Local\Temp\ccNy8eXk.s:24573  .debug_str:000000000000dd3f .LASF4151
C:\Users\CYMR90~1\AppData\Local\Temp\ccNy8eXk.s:23139  .debug_str:000000000000807e .LASF4152
C:\Users\CYMR90~1\AppData\Local\Temp\ccNy8eXk.s:30514  .debug_str:00000000000256d9 .LASF4153
C:\Users\CYMR90~1\AppData\Local\Temp\ccNy8eXk.s:32120  .debug_str:000000000002bc7d .LASF4154
C:\Users\CYMR90~1\AppData\Local\Temp\ccNy8eXk.s:23489  .debug_str:00000000000096d7 .LASF4155
C:\Users\CYMR90~1\AppData\Local\Temp\ccNy8eXk.s:26625  .debug_str:0000000000015df1 .LASF4156
C:\Users\CYMR90~1\AppData\Local\Temp\ccNy8eXk.s:30572  .debug_str:0000000000025b3a .LASF4157
C:\Users\CYMR90~1\AppData\Local\Temp\ccNy8eXk.s:25699  .debug_str:00000000000123b9 .LASF4158
C:\Users\CYMR90~1\AppData\Local\Temp\ccNy8eXk.s:25751  .debug_str:00000000000126fc .LASF4159
C:\Users\CYMR90~1\AppData\Local\Temp\ccNy8eXk.s:24337  .debug_str:000000000000ce61 .LASF4160
C:\Users\CYMR90~1\AppData\Local\Temp\ccNy8eXk.s:23749  .debug_str:000000000000a708 .LASF4161
C:\Users\CYMR90~1\AppData\Local\Temp\ccNy8eXk.s:27704  .debug_str:000000000001a5dd .LASF4162
C:\Users\CYMR90~1\AppData\Local\Temp\ccNy8eXk.s:24765  .debug_str:000000000000e90e .LASF4163
C:\Users\CYMR90~1\AppData\Local\Temp\ccNy8eXk.s:22609  .debug_str:0000000000005e5e .LASF4164
C:\Users\CYMR90~1\AppData\Local\Temp\ccNy8eXk.s:28896  .debug_str:000000000001f1d8 .LASF4165
C:\Users\CYMR90~1\AppData\Local\Temp\ccNy8eXk.s:30510  .debug_str:0000000000025687 .LASF4166
C:\Users\CYMR90~1\AppData\Local\Temp\ccNy8eXk.s:30302  .debug_str:00000000000247f0 .LASF4167
C:\Users\CYMR90~1\AppData\Local\Temp\ccNy8eXk.s:22161  .debug_str:0000000000004275 .LASF4168
C:\Users\CYMR90~1\AppData\Local\Temp\ccNy8eXk.s:27872  .debug_str:000000000001b115 .LASF4169
C:\Users\CYMR90~1\AppData\Local\Temp\ccNy8eXk.s:25363  .debug_str:0000000000010e21 .LASF4170
C:\Users\CYMR90~1\AppData\Local\Temp\ccNy8eXk.s:27620  .debug_str:0000000000019f8b .LASF4171
C:\Users\CYMR90~1\AppData\Local\Temp\ccNy8eXk.s:31562  .debug_str:0000000000029a88 .LASF4172
C:\Users\CYMR90~1\AppData\Local\Temp\ccNy8eXk.s:30900  .debug_str:0000000000026f53 .LASF4173
C:\Users\CYMR90~1\AppData\Local\Temp\ccNy8eXk.s:26499  .debug_str:0000000000015611 .LASF4174
C:\Users\CYMR90~1\AppData\Local\Temp\ccNy8eXk.s:23475  .debug_str:00000000000095ad .LASF4175
C:\Users\CYMR90~1\AppData\Local\Temp\ccNy8eXk.s:23035  .debug_str:0000000000007942 .LASF4176
C:\Users\CYMR90~1\AppData\Local\Temp\ccNy8eXk.s:30456  .debug_str:0000000000025266 .LASF4177
C:\Users\CYMR90~1\AppData\Local\Temp\ccNy8eXk.s:32454  .debug_str:000000000002d288 .LASF4178
C:\Users\CYMR90~1\AppData\Local\Temp\ccNy8eXk.s:22331  .debug_str:0000000000004db8 .LASF4179
C:\Users\CYMR90~1\AppData\Local\Temp\ccNy8eXk.s:24713  .debug_str:000000000000e5ba .LASF4180
C:\Users\CYMR90~1\AppData\Local\Temp\ccNy8eXk.s:22563  .debug_str:0000000000005b84 .LASF4181
C:\Users\CYMR90~1\AppData\Local\Temp\ccNy8eXk.s:24103  .debug_str:000000000000bf85 .LASF4182
C:\Users\CYMR90~1\AppData\Local\Temp\ccNy8eXk.s:25425  .debug_str:000000000001117a .LASF4183
C:\Users\CYMR90~1\AppData\Local\Temp\ccNy8eXk.s:23589  .debug_str:0000000000009d35 .LASF4184
C:\Users\CYMR90~1\AppData\Local\Temp\ccNy8eXk.s:30668  .debug_str:0000000000026139 .LASF4185
C:\Users\CYMR90~1\AppData\Local\Temp\ccNy8eXk.s:26996  .debug_str:000000000001777c .LASF4186
C:\Users\CYMR90~1\AppData\Local\Temp\ccNy8eXk.s:27500  .debug_str:00000000000197c2 .LASF4187
C:\Users\CYMR90~1\AppData\Local\Temp\ccNy8eXk.s:28212  .debug_str:000000000001c5a0 .LASF4188
C:\Users\CYMR90~1\AppData\Local\Temp\ccNy8eXk.s:27504  .debug_str:0000000000019821 .LASF4189
C:\Users\CYMR90~1\AppData\Local\Temp\ccNy8eXk.s:31438  .debug_str:000000000002928b .LASF4190
C:\Users\CYMR90~1\AppData\Local\Temp\ccNy8eXk.s:24035  .debug_str:000000000000bb0f .LASF4191
C:\Users\CYMR90~1\AppData\Local\Temp\ccNy8eXk.s:23909  .debug_str:000000000000b2a4 .LASF4192
C:\Users\CYMR90~1\AppData\Local\Temp\ccNy8eXk.s:25061  .debug_str:000000000000fb0e .LASF4193
C:\Users\CYMR90~1\AppData\Local\Temp\ccNy8eXk.s:22903  .debug_str:0000000000007095 .LASF4194
C:\Users\CYMR90~1\AppData\Local\Temp\ccNy8eXk.s:26938  .debug_str:0000000000017410 .LASF4195
C:\Users\CYMR90~1\AppData\Local\Temp\ccNy8eXk.s:30892  .debug_str:0000000000026edb .LASF4196
C:\Users\CYMR90~1\AppData\Local\Temp\ccNy8eXk.s:29378  .debug_str:0000000000020f18 .LASF4197
C:\Users\CYMR90~1\AppData\Local\Temp\ccNy8eXk.s:27432  .debug_str:000000000001937f .LASF4198
C:\Users\CYMR90~1\AppData\Local\Temp\ccNy8eXk.s:22731  .debug_str:0000000000006601 .LASF4199
C:\Users\CYMR90~1\AppData\Local\Temp\ccNy8eXk.s:23975  .debug_str:000000000000b6c8 .LASF4200
C:\Users\CYMR90~1\AppData\Local\Temp\ccNy8eXk.s:27424  .debug_str:0000000000019309 .LASF4201
C:\Users\CYMR90~1\AppData\Local\Temp\ccNy8eXk.s:25593  .debug_str:0000000000011cd4 .LASF4202
C:\Users\CYMR90~1\AppData\Local\Temp\ccNy8eXk.s:22643  .debug_str:00000000000060a6 .LASF4203
C:\Users\CYMR90~1\AppData\Local\Temp\ccNy8eXk.s:26876  .debug_str:000000000001707b .LASF4204
C:\Users\CYMR90~1\AppData\Local\Temp\ccNy8eXk.s:30818  .debug_str:0000000000026a3c .LASF4205
C:\Users\CYMR90~1\AppData\Local\Temp\ccNy8eXk.s:23419  .debug_str:000000000000926d .LASF4206
C:\Users\CYMR90~1\AppData\Local\Temp\ccNy8eXk.s:21491  .debug_str:000000000000187c .LASF4207
C:\Users\CYMR90~1\AppData\Local\Temp\ccNy8eXk.s:27540  .debug_str:0000000000019adc .LASF4208
C:\Users\CYMR90~1\AppData\Local\Temp\ccNy8eXk.s:23907  .debug_str:000000000000b27e .LASF4209
C:\Users\CYMR90~1\AppData\Local\Temp\ccNy8eXk.s:22677  .debug_str:00000000000062f0 .LASF4210
C:\Users\CYMR90~1\AppData\Local\Temp\ccNy8eXk.s:31782  .debug_str:000000000002a7b9 .LASF4211
C:\Users\CYMR90~1\AppData\Local\Temp\ccNy8eXk.s:24477  .debug_str:000000000000d802 .LASF4212
C:\Users\CYMR90~1\AppData\Local\Temp\ccNy8eXk.s:21497  .debug_str:00000000000018e2 .LASF4213
C:\Users\CYMR90~1\AppData\Local\Temp\ccNy8eXk.s:30758  .debug_str:0000000000026691 .LASF4214
C:\Users\CYMR90~1\AppData\Local\Temp\ccNy8eXk.s:25131  .debug_str:000000000000ff98 .LASF4215
C:\Users\CYMR90~1\AppData\Local\Temp\ccNy8eXk.s:27604  .debug_str:0000000000019e9b .LASF4216
C:\Users\CYMR90~1\AppData\Local\Temp\ccNy8eXk.s:29774  .debug_str:00000000000226f7 .LASF4217
C:\Users\CYMR90~1\AppData\Local\Temp\ccNy8eXk.s:32148  .debug_str:000000000002be4a .LASF4218
C:\Users\CYMR90~1\AppData\Local\Temp\ccNy8eXk.s:27800  .debug_str:000000000001ac6e .LASF4219
C:\Users\CYMR90~1\AppData\Local\Temp\ccNy8eXk.s:31720  .debug_str:000000000002a394 .LASF4220
C:\Users\CYMR90~1\AppData\Local\Temp\ccNy8eXk.s:28640  .debug_str:000000000001e236 .LASF4221
C:\Users\CYMR90~1\AppData\Local\Temp\ccNy8eXk.s:25077  .debug_str:000000000000fc04 .LASF4222
C:\Users\CYMR90~1\AppData\Local\Temp\ccNy8eXk.s:25411  .debug_str:000000000001109a .LASF4223
C:\Users\CYMR90~1\AppData\Local\Temp\ccNy8eXk.s:23291  .debug_str:0000000000008a91 .LASF4224
C:\Users\CYMR90~1\AppData\Local\Temp\ccNy8eXk.s:23367  .debug_str:0000000000008f83 .LASF4225
C:\Users\CYMR90~1\AppData\Local\Temp\ccNy8eXk.s:26225  .debug_str:0000000000014529 .LASF4226
C:\Users\CYMR90~1\AppData\Local\Temp\ccNy8eXk.s:24313  .debug_str:000000000000cd2e .LASF4227
C:\Users\CYMR90~1\AppData\Local\Temp\ccNy8eXk.s:27730  .debug_str:000000000001a7ae .LASF4228
C:\Users\CYMR90~1\AppData\Local\Temp\ccNy8eXk.s:26103  .debug_str:0000000000013dbf .LASF4229
C:\Users\CYMR90~1\AppData\Local\Temp\ccNy8eXk.s:28684  .debug_str:000000000001e4e2 .LASF4230
C:\Users\CYMR90~1\AppData\Local\Temp\ccNy8eXk.s:29442  .debug_str:00000000000212b0 .LASF4231
C:\Users\CYMR90~1\AppData\Local\Temp\ccNy8eXk.s:25539  .debug_str:0000000000011948 .LASF4232
C:\Users\CYMR90~1\AppData\Local\Temp\ccNy8eXk.s:23821  .debug_str:000000000000ac3a .LASF4233
C:\Users\CYMR90~1\AppData\Local\Temp\ccNy8eXk.s:21933  .debug_str:0000000000003382 .LASF4234
C:\Users\CYMR90~1\AppData\Local\Temp\ccNy8eXk.s:25907  .debug_str:0000000000013145 .LASF4235
C:\Users\CYMR90~1\AppData\Local\Temp\ccNy8eXk.s:29480  .debug_str:0000000000021588 .LASF4236
C:\Users\CYMR90~1\AppData\Local\Temp\ccNy8eXk.s:22401  .debug_str:00000000000051e0 .LASF4237
C:\Users\CYMR90~1\AppData\Local\Temp\ccNy8eXk.s:26363  .debug_str:0000000000014dfa .LASF4238
C:\Users\CYMR90~1\AppData\Local\Temp\ccNy8eXk.s:30312  .debug_str:0000000000024898 .LASF4239
C:\Users\CYMR90~1\AppData\Local\Temp\ccNy8eXk.s:22895  .debug_str:0000000000007032 .LASF4240
C:\Users\CYMR90~1\AppData\Local\Temp\ccNy8eXk.s:22175  .debug_str:000000000000434b .LASF4241
C:\Users\CYMR90~1\AppData\Local\Temp\ccNy8eXk.s:30884  .debug_str:0000000000026e40 .LASF4242
C:\Users\CYMR90~1\AppData\Local\Temp\ccNy8eXk.s:29084  .debug_str:000000000001fd2c .LASF4243
C:\Users\CYMR90~1\AppData\Local\Temp\ccNy8eXk.s:25857  .debug_str:0000000000012dfc .LASF4244
C:\Users\CYMR90~1\AppData\Local\Temp\ccNy8eXk.s:29764  .debug_str:0000000000022645 .LASF4245
C:\Users\CYMR90~1\AppData\Local\Temp\ccNy8eXk.s:25685  .debug_str:00000000000122c2 .LASF4246
C:\Users\CYMR90~1\AppData\Local\Temp\ccNy8eXk.s:26407  .debug_str:00000000000150f6 .LASF4247
C:\Users\CYMR90~1\AppData\Local\Temp\ccNy8eXk.s:32322  .debug_str:000000000002ca19 .LASF4248
C:\Users\CYMR90~1\AppData\Local\Temp\ccNy8eXk.s:31042  .debug_str:0000000000027844 .LASF4249
C:\Users\CYMR90~1\AppData\Local\Temp\ccNy8eXk.s:26779  .debug_str:00000000000167de .LASF4250
C:\Users\CYMR90~1\AppData\Local\Temp\ccNy8eXk.s:25271  .debug_str:0000000000010820 .LASF4251
C:\Users\CYMR90~1\AppData\Local\Temp\ccNy8eXk.s:23411  .debug_str:00000000000091fe .LASF4252
C:\Users\CYMR90~1\AppData\Local\Temp\ccNy8eXk.s:31830  .debug_str:000000000002aa56 .LASF4253
C:\Users\CYMR90~1\AppData\Local\Temp\ccNy8eXk.s:29690  .debug_str:0000000000022223 .LASF4254
C:\Users\CYMR90~1\AppData\Local\Temp\ccNy8eXk.s:26663  .debug_str:0000000000016095 .LASF4255
C:\Users\CYMR90~1\AppData\Local\Temp\ccNy8eXk.s:26237  .debug_str:00000000000145ef .LASF4256
C:\Users\CYMR90~1\AppData\Local\Temp\ccNy8eXk.s:24981  .debug_str:000000000000f5e1 .LASF4257
C:\Users\CYMR90~1\AppData\Local\Temp\ccNy8eXk.s:22767  .debug_str:00000000000067e0 .LASF4258
C:\Users\CYMR90~1\AppData\Local\Temp\ccNy8eXk.s:26709  .debug_str:000000000001634d .LASF4259
C:\Users\CYMR90~1\AppData\Local\Temp\ccNy8eXk.s:30750  .debug_str:0000000000026617 .LASF4260
C:\Users\CYMR90~1\AppData\Local\Temp\ccNy8eXk.s:23357  .debug_str:0000000000008ef8 .LASF4261
C:\Users\CYMR90~1\AppData\Local\Temp\ccNy8eXk.s:27284  .debug_str:00000000000188f0 .LASF4262
C:\Users\CYMR90~1\AppData\Local\Temp\ccNy8eXk.s:24367  .debug_str:000000000000d07b .LASF4263
C:\Users\CYMR90~1\AppData\Local\Temp\ccNy8eXk.s:22207  .debug_str:0000000000004555 .LASF4264
C:\Users\CYMR90~1\AppData\Local\Temp\ccNy8eXk.s:26167  .debug_str:00000000000141e3 .LASF4265
C:\Users\CYMR90~1\AppData\Local\Temp\ccNy8eXk.s:24121  .debug_str:000000000000c0da .LASF4266
C:\Users\CYMR90~1\AppData\Local\Temp\ccNy8eXk.s:22699  .debug_str:0000000000006429 .LASF4267
C:\Users\CYMR90~1\AppData\Local\Temp\ccNy8eXk.s:21815  .debug_str:0000000000002c47 .LASF4268
C:\Users\CYMR90~1\AppData\Local\Temp\ccNy8eXk.s:32328  .debug_str:000000000002ca89 .LASF4269
C:\Users\CYMR90~1\AppData\Local\Temp\ccNy8eXk.s:23305  .debug_str:0000000000008b7b .LASF4270
C:\Users\CYMR90~1\AppData\Local\Temp\ccNy8eXk.s:27216  .debug_str:00000000000184f7 .LASF4271
C:\Users\CYMR90~1\AppData\Local\Temp\ccNy8eXk.s:21565  .debug_str:0000000000001d03 .LASF4272
C:\Users\CYMR90~1\AppData\Local\Temp\ccNy8eXk.s:28218  .debug_str:000000000001c5f7 .LASF4273
C:\Users\CYMR90~1\AppData\Local\Temp\ccNy8eXk.s:26097  .debug_str:0000000000013d72 .LASF4274
C:\Users\CYMR90~1\AppData\Local\Temp\ccNy8eXk.s:30048  .debug_str:0000000000023798 .LASF4275
C:\Users\CYMR90~1\AppData\Local\Temp\ccNy8eXk.s:26509  .debug_str:00000000000156c3 .LASF4276
C:\Users\CYMR90~1\AppData\Local\Temp\ccNy8eXk.s:31220  .debug_str:00000000000284dd .LASF4277
C:\Users\CYMR90~1\AppData\Local\Temp\ccNy8eXk.s:24493  .debug_str:000000000000d8e4 .LASF4278
C:\Users\CYMR90~1\AppData\Local\Temp\ccNy8eXk.s:23213  .debug_str:00000000000085e3 .LASF4279
C:\Users\CYMR90~1\AppData\Local\Temp\ccNy8eXk.s:29130  .debug_str:000000000002003e .LASF4280
C:\Users\CYMR90~1\AppData\Local\Temp\ccNy8eXk.s:31100  .debug_str:0000000000027c27 .LASF4281
C:\Users\CYMR90~1\AppData\Local\Temp\ccNy8eXk.s:23695  .debug_str:000000000000a3cc .LASF4282
C:\Users\CYMR90~1\AppData\Local\Temp\ccNy8eXk.s:32130  .debug_str:000000000002bd04 .LASF4283
C:\Users\CYMR90~1\AppData\Local\Temp\ccNy8eXk.s:22999  .debug_str:00000000000076ee .LASF4284
C:\Users\CYMR90~1\AppData\Local\Temp\ccNy8eXk.s:22559  .debug_str:0000000000005b44 .LASF4285
C:\Users\CYMR90~1\AppData\Local\Temp\ccNy8eXk.s:25665  .debug_str:00000000000121b0 .LASF4286
C:\Users\CYMR90~1\AppData\Local\Temp\ccNy8eXk.s:26557  .debug_str:000000000001598e .LASF4287
C:\Users\CYMR90~1\AppData\Local\Temp\ccNy8eXk.s:23151  .debug_str:00000000000081c3 .LASF4288
C:\Users\CYMR90~1\AppData\Local\Temp\ccNy8eXk.s:26749  .debug_str:00000000000165f0 .LASF4289
C:\Users\CYMR90~1\AppData\Local\Temp\ccNy8eXk.s:23683  .debug_str:000000000000a307 .LASF4290
C:\Users\CYMR90~1\AppData\Local\Temp\ccNy8eXk.s:21799  .debug_str:0000000000002b11 .LASF4291
C:\Users\CYMR90~1\AppData\Local\Temp\ccNy8eXk.s:29104  .debug_str:000000000001febf .LASF4292
C:\Users\CYMR90~1\AppData\Local\Temp\ccNy8eXk.s:23893  .debug_str:000000000000b180 .LASF4293
C:\Users\CYMR90~1\AppData\Local\Temp\ccNy8eXk.s:22491  .debug_str:0000000000005734 .LASF4294
C:\Users\CYMR90~1\AppData\Local\Temp\ccNy8eXk.s:23103  .debug_str:0000000000007d85 .LASF4295
C:\Users\CYMR90~1\AppData\Local\Temp\ccNy8eXk.s:31526  .debug_str:00000000000298a6 .LASF4296
C:\Users\CYMR90~1\AppData\Local\Temp\ccNy8eXk.s:23075  .debug_str:0000000000007bf5 .LASF4297
C:\Users\CYMR90~1\AppData\Local\Temp\ccNy8eXk.s:22659  .debug_str:0000000000006199 .LASF4298
C:\Users\CYMR90~1\AppData\Local\Temp\ccNy8eXk.s:23427  .debug_str:00000000000092f3 .LASF4299
C:\Users\CYMR90~1\AppData\Local\Temp\ccNy8eXk.s:30128  .debug_str:0000000000023c67 .LASF4300
C:\Users\CYMR90~1\AppData\Local\Temp\ccNy8eXk.s:22257  .debug_str:00000000000048a7 .LASF4301
C:\Users\CYMR90~1\AppData\Local\Temp\ccNy8eXk.s:22855  .debug_str:0000000000006d78 .LASF4302
C:\Users\CYMR90~1\AppData\Local\Temp\ccNy8eXk.s:31996  .debug_str:000000000002b43d .LASF4303
C:\Users\CYMR90~1\AppData\Local\Temp\ccNy8eXk.s:22431  .debug_str:00000000000053b1 .LASF4304
C:\Users\CYMR90~1\AppData\Local\Temp\ccNy8eXk.s:23703  .debug_str:000000000000a47c .LASF4305
C:\Users\CYMR90~1\AppData\Local\Temp\ccNy8eXk.s:23011  .debug_str:00000000000077b6 .LASF4306
C:\Users\CYMR90~1\AppData\Local\Temp\ccNy8eXk.s:28368  .debug_str:000000000001d12d .LASF4307
C:\Users\CYMR90~1\AppData\Local\Temp\ccNy8eXk.s:30716  .debug_str:0000000000026406 .LASF4308
C:\Users\CYMR90~1\AppData\Local\Temp\ccNy8eXk.s:27720  .debug_str:000000000001a6e2 .LASF4309
C:\Users\CYMR90~1\AppData\Local\Temp\ccNy8eXk.s:24063  .debug_str:000000000000bc8e .LASF4310
C:\Users\CYMR90~1\AppData\Local\Temp\ccNy8eXk.s:31470  .debug_str:00000000000294d9 .LASF4311
C:\Users\CYMR90~1\AppData\Local\Temp\ccNy8eXk.s:23831  .debug_str:000000000000acec .LASF4312
C:\Users\CYMR90~1\AppData\Local\Temp\ccNy8eXk.s:21125  .debug_str:0000000000000174 .LASF4313
C:\Users\CYMR90~1\AppData\Local\Temp\ccNy8eXk.s:30360  .debug_str:0000000000024bd0 .LASF4314
C:\Users\CYMR90~1\AppData\Local\Temp\ccNy8eXk.s:29538  .debug_str:000000000002191a .LASF4315
C:\Users\CYMR90~1\AppData\Local\Temp\ccNy8eXk.s:26892  .debug_str:0000000000017155 .LASF4316
C:\Users\CYMR90~1\AppData\Local\Temp\ccNy8eXk.s:30836  .debug_str:0000000000026b5c .LASF4317
C:\Users\CYMR90~1\AppData\Local\Temp\ccNy8eXk.s:27022  .debug_str:000000000001793b .LASF4318
C:\Users\CYMR90~1\AppData\Local\Temp\ccNy8eXk.s:27802  .debug_str:000000000001ac94 .LASF4319
C:\Users\CYMR90~1\AppData\Local\Temp\ccNy8eXk.s:30796  .debug_str:00000000000268fe .LASF4320
C:\Users\CYMR90~1\AppData\Local\Temp\ccNy8eXk.s:24009  .debug_str:000000000000b924 .LASF4321
C:\Users\CYMR90~1\AppData\Local\Temp\ccNy8eXk.s:27942  .debug_str:000000000001b59c .LASF4322
C:\Users\CYMR90~1\AppData\Local\Temp\ccNy8eXk.s:29978  .debug_str:0000000000023302 .LASF4323
C:\Users\CYMR90~1\AppData\Local\Temp\ccNy8eXk.s:22873  .debug_str:0000000000006ec4 .LASF4324
C:\Users\CYMR90~1\AppData\Local\Temp\ccNy8eXk.s:26825  .debug_str:0000000000016bab .LASF4325
C:\Users\CYMR90~1\AppData\Local\Temp\ccNy8eXk.s:30772  .debug_str:000000000002675e .LASF4326
C:\Users\CYMR90~1\AppData\Local\Temp\ccNy8eXk.s:22197  .debug_str:00000000000044ad .LASF4327
C:\Users\CYMR90~1\AppData\Local\Temp\ccNy8eXk.s:27330  .debug_str:0000000000018c77 .LASF4328
C:\Users\CYMR90~1\AppData\Local\Temp\ccNy8eXk.s:25969  .debug_str:00000000000135ba .LASF4329
C:\Users\CYMR90~1\AppData\Local\Temp\ccNy8eXk.s:28080  .debug_str:000000000001bdcd .LASF4330
C:\Users\CYMR90~1\AppData\Local\Temp\ccNy8eXk.s:27894  .debug_str:000000000001b29c .LASF4331
C:\Users\CYMR90~1\AppData\Local\Temp\ccNy8eXk.s:26335  .debug_str:0000000000014c05 .LASF4332
C:\Users\CYMR90~1\AppData\Local\Temp\ccNy8eXk.s:22199  .debug_str:00000000000044d3 .LASF4333
C:\Users\CYMR90~1\AppData\Local\Temp\ccNy8eXk.s:30740  .debug_str:0000000000026568 .LASF4334
C:\Users\CYMR90~1\AppData\Local\Temp\ccNy8eXk.s:25503  .debug_str:0000000000011684 .LASF4335
C:\Users\CYMR90~1\AppData\Local\Temp\ccNy8eXk.s:29418  .debug_str:0000000000021149 .LASF4336
C:\Users\CYMR90~1\AppData\Local\Temp\ccNy8eXk.s:22007  .debug_str:0000000000003829 .LASF4337
C:\Users\CYMR90~1\AppData\Local\Temp\ccNy8eXk.s:25987  .debug_str:00000000000136ec .LASF4338
C:\Users\CYMR90~1\AppData\Local\Temp\ccNy8eXk.s:29324  .debug_str:0000000000020c0f .LASF4339
C:\Users\CYMR90~1\AppData\Local\Temp\ccNy8eXk.s:28192  .debug_str:000000000001c490 .LASF4340
C:\Users\CYMR90~1\AppData\Local\Temp\ccNy8eXk.s:27348  .debug_str:0000000000018d97 .LASF4341
C:\Users\CYMR90~1\AppData\Local\Temp\ccNy8eXk.s:28908  .debug_str:000000000001f28c .LASF4342
C:\Users\CYMR90~1\AppData\Local\Temp\ccNy8eXk.s:22195  .debug_str:0000000000004487 .LASF4343
C:\Users\CYMR90~1\AppData\Local\Temp\ccNy8eXk.s:22127  .debug_str:0000000000004003 .LASF4344
C:\Users\CYMR90~1\AppData\Local\Temp\ccNy8eXk.s:29350  .debug_str:0000000000020d9d .LASF4345
C:\Users\CYMR90~1\AppData\Local\Temp\ccNy8eXk.s:27312  .debug_str:0000000000018a91 .LASF4346
C:\Users\CYMR90~1\AppData\Local\Temp\ccNy8eXk.s:26017  .debug_str:00000000000138c4 .LASF4347
C:\Users\CYMR90~1\AppData\Local\Temp\ccNy8eXk.s:29872  .debug_str:0000000000022d1d .LASF4348
C:\Users\CYMR90~1\AppData\Local\Temp\ccNy8eXk.s:32430  .debug_str:000000000002d0f1 .LASF4349
C:\Users\CYMR90~1\AppData\Local\Temp\ccNy8eXk.s:23803  .debug_str:000000000000ab13 .LASF4350
C:\Users\CYMR90~1\AppData\Local\Temp\ccNy8eXk.s:24475  .debug_str:000000000000d7f5 .LASF4351
C:\Users\CYMR90~1\AppData\Local\Temp\ccNy8eXk.s:29998  .debug_str:0000000000023429 .LASF4352
C:\Users\CYMR90~1\AppData\Local\Temp\ccNy8eXk.s:28542  .debug_str:000000000001dc18 .LASF4353
C:\Users\CYMR90~1\AppData\Local\Temp\ccNy8eXk.s:21185  .debug_str:0000000000000511 .LASF4354
C:\Users\CYMR90~1\AppData\Local\Temp\ccNy8eXk.s:22247  .debug_str:000000000000480d .LASF4355
C:\Users\CYMR90~1\AppData\Local\Temp\ccNy8eXk.s:24659  .debug_str:000000000000e296 .LASF4356
C:\Users\CYMR90~1\AppData\Local\Temp\ccNy8eXk.s:22827  .debug_str:0000000000006bd2 .LASF4357
C:\Users\CYMR90~1\AppData\Local\Temp\ccNy8eXk.s:26037  .debug_str:00000000000139f7 .LASF4358
C:\Users\CYMR90~1\AppData\Local\Temp\ccNy8eXk.s:25663  .debug_str:0000000000012189 .LASF4359
C:\Users\CYMR90~1\AppData\Local\Temp\ccNy8eXk.s:21875  .debug_str:0000000000002fb8 .LASF4360
C:\Users\CYMR90~1\AppData\Local\Temp\ccNy8eXk.s:22455  .debug_str:0000000000005514 .LASF4361
C:\Users\CYMR90~1\AppData\Local\Temp\ccNy8eXk.s:21963  .debug_str:0000000000003590 .LASF4362
C:\Users\CYMR90~1\AppData\Local\Temp\ccNy8eXk.s:21143  .debug_str:0000000000000275 .LASF4363
C:\Users\CYMR90~1\AppData\Local\Temp\ccNy8eXk.s:23421  .debug_str:0000000000009293 .LASF4364
C:\Users\CYMR90~1\AppData\Local\Temp\ccNy8eXk.s:26799  .debug_str:000000000001698f .LASF4365
C:\Users\CYMR90~1\AppData\Local\Temp\ccNy8eXk.s:21865  .debug_str:0000000000002f2b .LASF4366
C:\Users\CYMR90~1\AppData\Local\Temp\ccNy8eXk.s:30860  .debug_str:0000000000026cda .LASF4367
C:\Users\CYMR90~1\AppData\Local\Temp\ccNy8eXk.s:26667  .debug_str:00000000000160d6 .LASF4368
C:\Users\CYMR90~1\AppData\Local\Temp\ccNy8eXk.s:27324  .debug_str:0000000000018bea .LASF4369
C:\Users\CYMR90~1\AppData\Local\Temp\ccNy8eXk.s:30010  .debug_str:00000000000234f9 .LASF4370
C:\Users\CYMR90~1\AppData\Local\Temp\ccNy8eXk.s:29796  .debug_str:0000000000022853 .LASF4371
C:\Users\CYMR90~1\AppData\Local\Temp\ccNy8eXk.s:25873  .debug_str:0000000000012efc .LASF4372
C:\Users\CYMR90~1\AppData\Local\Temp\ccNy8eXk.s:31518  .debug_str:000000000002982a .LASF4373
C:\Users\CYMR90~1\AppData\Local\Temp\ccNy8eXk.s:31750  .debug_str:000000000002a599 .LASF4374
C:\Users\CYMR90~1\AppData\Local\Temp\ccNy8eXk.s:28440  .debug_str:000000000001d5c9 .LASF4375
C:\Users\CYMR90~1\AppData\Local\Temp\ccNy8eXk.s:30622  .debug_str:0000000000025e29 .LASF4376
C:\Users\CYMR90~1\AppData\Local\Temp\ccNy8eXk.s:25397  .debug_str:0000000000010fc8 .LASF4377
C:\Users\CYMR90~1\AppData\Local\Temp\ccNy8eXk.s:28588  .debug_str:000000000001df88 .LASF4378
C:\Users\CYMR90~1\AppData\Local\Temp\ccNy8eXk.s:23593  .debug_str:0000000000009d72 .LASF4379
C:\Users\CYMR90~1\AppData\Local\Temp\ccNy8eXk.s:27858  .debug_str:000000000001b056 .LASF4380
C:\Users\CYMR90~1\AppData\Local\Temp\ccNy8eXk.s:28438  .debug_str:000000000001d5a4 .LASF4381
C:\Users\CYMR90~1\AppData\Local\Temp\ccNy8eXk.s:23987  .debug_str:000000000000b789 .LASF4382
C:\Users\CYMR90~1\AppData\Local\Temp\ccNy8eXk.s:27000  .debug_str:00000000000177ba .LASF4383
C:\Users\CYMR90~1\AppData\Local\Temp\ccNy8eXk.s:28144  .debug_str:000000000001c1ce .LASF4384
C:\Users\CYMR90~1\AppData\Local\Temp\ccNy8eXk.s:25805  .debug_str:0000000000012abc .LASF4385
C:\Users\CYMR90~1\AppData\Local\Temp\ccNy8eXk.s:29306  .debug_str:0000000000020b16 .LASF4386
C:\Users\CYMR90~1\AppData\Local\Temp\ccNy8eXk.s:23919  .debug_str:000000000000b328 .LASF4387
C:\Users\CYMR90~1\AppData\Local\Temp\ccNy8eXk.s:21533  .debug_str:0000000000001af5 .LASF4388
C:\Users\CYMR90~1\AppData\Local\Temp\ccNy8eXk.s:26507  .debug_str:000000000001569e .LASF4389
C:\Users\CYMR90~1\AppData\Local\Temp\ccNy8eXk.s:25855  .debug_str:0000000000012dd7 .LASF4390
C:\Users\CYMR90~1\AppData\Local\Temp\ccNy8eXk.s:32128  .debug_str:000000000002bced .LASF4391
C:\Users\CYMR90~1\AppData\Local\Temp\ccNy8eXk.s:27452  .debug_str:00000000000194cd .LASF4392
C:\Users\CYMR90~1\AppData\Local\Temp\ccNy8eXk.s:26998  .debug_str:00000000000177a2 .LASF4393
C:\Users\CYMR90~1\AppData\Local\Temp\ccNy8eXk.s:28462  .debug_str:000000000001d77c .LASF4394
C:\Users\CYMR90~1\AppData\Local\Temp\ccNy8eXk.s:30136  .debug_str:0000000000023cd9 .LASF4395
C:\Users\CYMR90~1\AppData\Local\Temp\ccNy8eXk.s:22489  .debug_str:000000000000571b .LASF4396
C:\Users\CYMR90~1\AppData\Local\Temp\ccNy8eXk.s:21427  .debug_str:0000000000001441 .LASF4397
C:\Users\CYMR90~1\AppData\Local\Temp\ccNy8eXk.s:28770  .debug_str:000000000001ea3a .LASF4398
C:\Users\CYMR90~1\AppData\Local\Temp\ccNy8eXk.s:29496  .debug_str:0000000000021671 .LASF4399
C:\Users\CYMR90~1\AppData\Local\Temp\ccNy8eXk.s:31694  .debug_str:000000000002a242 .LASF4400
C:\Users\CYMR90~1\AppData\Local\Temp\ccNy8eXk.s:25517  .debug_str:0000000000011755 .LASF4401
C:\Users\CYMR90~1\AppData\Local\Temp\ccNy8eXk.s:31350  .debug_str:0000000000028d42 .LASF4402
C:\Users\CYMR90~1\AppData\Local\Temp\ccNy8eXk.s:26295  .debug_str:00000000000149b0 .LASF4403
C:\Users\CYMR90~1\AppData\Local\Temp\ccNy8eXk.s:23879  .debug_str:000000000000b0c0 .LASF4404
C:\Users\CYMR90~1\AppData\Local\Temp\ccNy8eXk.s:29264  .debug_str:00000000000208a5 .LASF4405
C:\Users\CYMR90~1\AppData\Local\Temp\ccNy8eXk.s:23319  .debug_str:0000000000008c50 .LASF4406
C:\Users\CYMR90~1\AppData\Local\Temp\ccNy8eXk.s:26916  .debug_str:00000000000172d2 .LASF4407
C:\Users\CYMR90~1\AppData\Local\Temp\ccNy8eXk.s:30096  .debug_str:0000000000023a92 .LASF4408
C:\Users\CYMR90~1\AppData\Local\Temp\ccNy8eXk.s:30928  .debug_str:0000000000027109 .LASF4409
C:\Users\CYMR90~1\AppData\Local\Temp\ccNy8eXk.s:26333  .debug_str:0000000000014bf1 .LASF4410
C:\Users\CYMR90~1\AppData\Local\Temp\ccNy8eXk.s:28678  .debug_str:000000000001e475 .LASF4411
C:\Users\CYMR90~1\AppData\Local\Temp\ccNy8eXk.s:24293  .debug_str:000000000000cbff .LASF4412
C:\Users\CYMR90~1\AppData\Local\Temp\ccNy8eXk.s:26105  .debug_str:0000000000013de5 .LASF4413
C:\Users\CYMR90~1\AppData\Local\Temp\ccNy8eXk.s:28512  .debug_str:000000000001da70 .LASF4414
C:\Users\CYMR90~1\AppData\Local\Temp\ccNy8eXk.s:25881  .debug_str:0000000000012f83 .LASF4415
C:\Users\CYMR90~1\AppData\Local\Temp\ccNy8eXk.s:29338  .debug_str:0000000000020d04 .LASF4416
C:\Users\CYMR90~1\AppData\Local\Temp\ccNy8eXk.s:24853  .debug_str:000000000000ee52 .LASF4417
C:\Users\CYMR90~1\AppData\Local\Temp\ccNy8eXk.s:28460  .debug_str:000000000001d767 .LASF4418
C:\Users\CYMR90~1\AppData\Local\Temp\ccNy8eXk.s:21845  .debug_str:0000000000002e02 .LASF4419
C:\Users\CYMR90~1\AppData\Local\Temp\ccNy8eXk.s:21617  .debug_str:0000000000002038 .LASF4420
C:\Users\CYMR90~1\AppData\Local\Temp\ccNy8eXk.s:27064  .debug_str:0000000000017bdb .LASF4421
C:\Users\CYMR90~1\AppData\Local\Temp\ccNy8eXk.s:23235  .debug_str:0000000000008722 .LASF4422
C:\Users\CYMR90~1\AppData\Local\Temp\ccNy8eXk.s:31822  .debug_str:000000000002aa05 .LASF4423
C:\Users\CYMR90~1\AppData\Local\Temp\ccNy8eXk.s:23087  .debug_str:0000000000007c9c .LASF4424
C:\Users\CYMR90~1\AppData\Local\Temp\ccNy8eXk.s:21195  .debug_str:000000000000059f .LASF4425
C:\Users\CYMR90~1\AppData\Local\Temp\ccNy8eXk.s:30352  .debug_str:0000000000024b67 .LASF4426
C:\Users\CYMR90~1\AppData\Local\Temp\ccNy8eXk.s:27234  .debug_str:00000000000185f4 .LASF4427
C:\Users\CYMR90~1\AppData\Local\Temp\ccNy8eXk.s:24961  .debug_str:000000000000f4c4 .LASF4428
C:\Users\CYMR90~1\AppData\Local\Temp\ccNy8eXk.s:29938  .debug_str:00000000000230c7 .LASF4429
C:\Users\CYMR90~1\AppData\Local\Temp\ccNy8eXk.s:29752  .debug_str:00000000000225b3 .LASF4430
C:\Users\CYMR90~1\AppData\Local\Temp\ccNy8eXk.s:24149  .debug_str:000000000000c2a8 .LASF4431
C:\Users\CYMR90~1\AppData\Local\Temp\ccNy8eXk.s:25461  .debug_str:00000000000113a1 .LASF4432
C:\Users\CYMR90~1\AppData\Local\Temp\ccNy8eXk.s:22309  .debug_str:0000000000004c58 .LASF4433
C:\Users\CYMR90~1\AppData\Local\Temp\ccNy8eXk.s:30694  .debug_str:00000000000262e5 .LASF4434
C:\Users\CYMR90~1\AppData\Local\Temp\ccNy8eXk.s:24549  .debug_str:000000000000dbfa .LASF4435
C:\Users\CYMR90~1\AppData\Local\Temp\ccNy8eXk.s:25961  .debug_str:0000000000013524 .LASF4436
C:\Users\CYMR90~1\AppData\Local\Temp\ccNy8eXk.s:23297  .debug_str:0000000000008af2 .LASF4437
C:\Users\CYMR90~1\AppData\Local\Temp\ccNy8eXk.s:26515  .debug_str:0000000000015714 .LASF4438
C:\Users\CYMR90~1\AppData\Local\Temp\ccNy8eXk.s:30484  .debug_str:00000000000254dd .LASF4439
C:\Users\CYMR90~1\AppData\Local\Temp\ccNy8eXk.s:21719  .debug_str:00000000000025d6 .LASF4440
C:\Users\CYMR90~1\AppData\Local\Temp\ccNy8eXk.s:26683  .debug_str:00000000000161d0 .LASF4441
C:\Users\CYMR90~1\AppData\Local\Temp\ccNy8eXk.s:21335  .debug_str:0000000000000e69 .LASF4442
C:\Users\CYMR90~1\AppData\Local\Temp\ccNy8eXk.s:25351  .debug_str:0000000000010d89 .LASF4443
C:\Users\CYMR90~1\AppData\Local\Temp\ccNy8eXk.s:24031  .debug_str:000000000000ba65 .LASF4444
C:\Users\CYMR90~1\AppData\Local\Temp\ccNy8eXk.s:29034  .debug_str:000000000001fa36 .LASF4445
C:\Users\CYMR90~1\AppData\Local\Temp\ccNy8eXk.s:28014  .debug_str:000000000001b9cd .LASF4446
C:\Users\CYMR90~1\AppData\Local\Temp\ccNy8eXk.s:25771  .debug_str:000000000001285b .LASF4447
C:\Users\CYMR90~1\AppData\Local\Temp\ccNy8eXk.s:21713  .debug_str:0000000000002589 .LASF4448
C:\Users\CYMR90~1\AppData\Local\Temp\ccNy8eXk.s:28410  .debug_str:000000000001d3b6 .LASF4449
C:\Users\CYMR90~1\AppData\Local\Temp\ccNy8eXk.s:24267  .debug_str:000000000000ca8d .LASF4450
C:\Users\CYMR90~1\AppData\Local\Temp\ccNy8eXk.s:22117  .debug_str:0000000000003efe .LASF4451
C:\Users\CYMR90~1\AppData\Local\Temp\ccNy8eXk.s:27684  .debug_str:000000000001a4f0 .LASF4452
C:\Users\CYMR90~1\AppData\Local\Temp\ccNy8eXk.s:29908  .debug_str:0000000000022f20 .LASF4453
C:\Users\CYMR90~1\AppData\Local\Temp\ccNy8eXk.s:31478  .debug_str:0000000000029560 .LASF4454
C:\Users\CYMR90~1\AppData\Local\Temp\ccNy8eXk.s:26765  .debug_str:0000000000016706 .LASF4455
C:\Users\CYMR90~1\AppData\Local\Temp\ccNy8eXk.s:27420  .debug_str:00000000000192d6 .LASF4456
C:\Users\CYMR90~1\AppData\Local\Temp\ccNy8eXk.s:22487  .debug_str:0000000000005702 .LASF4457
C:\Users\CYMR90~1\AppData\Local\Temp\ccNy8eXk.s:31616  .debug_str:0000000000029ddc .LASF4458
C:\Users\CYMR90~1\AppData\Local\Temp\ccNy8eXk.s:25139  .debug_str:0000000000010017 .LASF4459
C:\Users\CYMR90~1\AppData\Local\Temp\ccNy8eXk.s:28312  .debug_str:000000000001cc9e .LASF4460
C:\Users\CYMR90~1\AppData\Local\Temp\ccNy8eXk.s:29616  .debug_str:0000000000021dd1 .LASF4461
C:\Users\CYMR90~1\AppData\Local\Temp\ccNy8eXk.s:24505  .debug_str:000000000000d991 .LASF4462
C:\Users\CYMR90~1\AppData\Local\Temp\ccNy8eXk.s:31968  .debug_str:000000000002b267 .LASF4463
C:\Users\CYMR90~1\AppData\Local\Temp\ccNy8eXk.s:24051  .debug_str:000000000000bbe1 .LASF4464
C:\Users\CYMR90~1\AppData\Local\Temp\ccNy8eXk.s:29216  .debug_str:00000000000205d5 .LASF4465
C:\Users\CYMR90~1\AppData\Local\Temp\ccNy8eXk.s:26623  .debug_str:0000000000015ddb .LASF4466
C:\Users\CYMR90~1\AppData\Local\Temp\ccNy8eXk.s:30084  .debug_str:00000000000239c5 .LASF4467
C:\Users\CYMR90~1\AppData\Local\Temp\ccNy8eXk.s:31938  .debug_str:000000000002b0ad .LASF4468
C:\Users\CYMR90~1\AppData\Local\Temp\ccNy8eXk.s:29414  .debug_str:0000000000021106 .LASF4469
C:\Users\CYMR90~1\AppData\Local\Temp\ccNy8eXk.s:29762  .debug_str:000000000002262d .LASF4470
C:\Users\CYMR90~1\AppData\Local\Temp\ccNy8eXk.s:26753  .debug_str:0000000000016634 .LASF4471
C:\Users\CYMR90~1\AppData\Local\Temp\ccNy8eXk.s:23281  .debug_str:00000000000089f9 .LASF4472
C:\Users\CYMR90~1\AppData\Local\Temp\ccNy8eXk.s:30520  .debug_str:0000000000025774 .LASF4473
C:\Users\CYMR90~1\AppData\Local\Temp\ccNy8eXk.s:27742  .debug_str:000000000001a8ea .LASF4474
C:\Users\CYMR90~1\AppData\Local\Temp\ccNy8eXk.s:21331  .debug_str:0000000000000e2b .LASF4475
C:\Users\CYMR90~1\AppData\Local\Temp\ccNy8eXk.s:29734  .debug_str:000000000002247c .LASF4476
C:\Users\CYMR90~1\AppData\Local\Temp\ccNy8eXk.s:31462  .debug_str:000000000002946c .LASF4477
C:\Users\CYMR90~1\AppData\Local\Temp\ccNy8eXk.s:21805  .debug_str:0000000000002b66 .LASF4478
C:\Users\CYMR90~1\AppData\Local\Temp\ccNy8eXk.s:24831  .debug_str:000000000000ed36 .LASF4479
C:\Users\CYMR90~1\AppData\Local\Temp\ccNy8eXk.s:32402  .debug_str:000000000002cf7d .LASF4480
C:\Users\CYMR90~1\AppData\Local\Temp\ccNy8eXk.s:22027  .debug_str:000000000000395b .LASF4481
C:\Users\CYMR90~1\AppData\Local\Temp\ccNy8eXk.s:21781  .debug_str:0000000000002a0b .LASF4482
C:\Users\CYMR90~1\AppData\Local\Temp\ccNy8eXk.s:30436  .debug_str:00000000000250c3 .LASF4483
C:\Users\CYMR90~1\AppData\Local\Temp\ccNy8eXk.s:25093  .debug_str:000000000000fd0a .LASF4484
C:\Users\CYMR90~1\AppData\Local\Temp\ccNy8eXk.s:26087  .debug_str:0000000000013cec .LASF4485
C:\Users\CYMR90~1\AppData\Local\Temp\ccNy8eXk.s:22607  .debug_str:0000000000005e48 .LASF4486
C:\Users\CYMR90~1\AppData\Local\Temp\ccNy8eXk.s:22187  .debug_str:00000000000043f3 .LASF4487
C:\Users\CYMR90~1\AppData\Local\Temp\ccNy8eXk.s:29534  .debug_str:00000000000218e8 .LASF4488
C:\Users\CYMR90~1\AppData\Local\Temp\ccNy8eXk.s:22035  .debug_str:00000000000039d4 .LASF4489
C:\Users\CYMR90~1\AppData\Local\Temp\ccNy8eXk.s:22279  .debug_str:0000000000004a98 .LASF4490
C:\Users\CYMR90~1\AppData\Local\Temp\ccNy8eXk.s:29318  .debug_str:0000000000020bb5 .LASF4491
C:\Users\CYMR90~1\AppData\Local\Temp\ccNy8eXk.s:30748  .debug_str:0000000000026600 .LASF4492
C:\Users\CYMR90~1\AppData\Local\Temp\ccNy8eXk.s:31926  .debug_str:000000000002b003 .LASF4493
C:\Users\CYMR90~1\AppData\Local\Temp\ccNy8eXk.s:30666  .debug_str:0000000000026120 .LASF4494
C:\Users\CYMR90~1\AppData\Local\Temp\ccNy8eXk.s:21479  .debug_str:000000000000171a .LASF4495
C:\Users\CYMR90~1\AppData\Local\Temp\ccNy8eXk.s:28642  .debug_str:000000000001e25c .LASF4496
C:\Users\CYMR90~1\AppData\Local\Temp\ccNy8eXk.s:30970  .debug_str:0000000000027418 .LASF4497
C:\Users\CYMR90~1\AppData\Local\Temp\ccNy8eXk.s:23725  .debug_str:000000000000a5d2 .LASF4498
C:\Users\CYMR90~1\AppData\Local\Temp\ccNy8eXk.s:32282  .debug_str:000000000002c76f .LASF4499
C:\Users\CYMR90~1\AppData\Local\Temp\ccNy8eXk.s:31632  .debug_str:0000000000029ed9 .LASF4500
C:\Users\CYMR90~1\AppData\Local\Temp\ccNy8eXk.s:23093  .debug_str:0000000000007cf6 .LASF4501
C:\Users\CYMR90~1\AppData\Local\Temp\ccNy8eXk.s:22171  .debug_str:0000000000004318 .LASF4502
C:\Users\CYMR90~1\AppData\Local\Temp\ccNy8eXk.s:30830  .debug_str:0000000000026aff .LASF4503
C:\Users\CYMR90~1\AppData\Local\Temp\ccNy8eXk.s:28196  .debug_str:000000000001c4d9 .LASF4504
C:\Users\CYMR90~1\AppData\Local\Temp\ccNy8eXk.s:30804  .debug_str:000000000002697c .LASF4505
C:\Users\CYMR90~1\AppData\Local\Temp\ccNy8eXk.s:29456  .debug_str:0000000000021433 .LASF4506
C:\Users\CYMR90~1\AppData\Local\Temp\ccNy8eXk.s:25033  .debug_str:000000000000f990 .LASF4507
C:\Users\CYMR90~1\AppData\Local\Temp\ccNy8eXk.s:28744  .debug_str:000000000001e8c4 .LASF4508
C:\Users\CYMR90~1\AppData\Local\Temp\ccNy8eXk.s:22541  .debug_str:0000000000005a70 .LASF4509
C:\Users\CYMR90~1\AppData\Local\Temp\ccNy8eXk.s:29958  .debug_str:00000000000231ca .LASF4510
C:\Users\CYMR90~1\AppData\Local\Temp\ccNy8eXk.s:27352  .debug_str:0000000000018dda .LASF4511
C:\Users\CYMR90~1\AppData\Local\Temp\ccNy8eXk.s:21681  .debug_str:0000000000002398 .LASF4512
C:\Users\CYMR90~1\AppData\Local\Temp\ccNy8eXk.s:21895  .debug_str:00000000000030eb .LASF4513
C:\Users\CYMR90~1\AppData\Local\Temp\ccNy8eXk.s:30630  .debug_str:0000000000025ebe .LASF4514
C:\Users\CYMR90~1\AppData\Local\Temp\ccNy8eXk.s:26523  .debug_str:0000000000015780 .LASF4515
C:\Users\CYMR90~1\AppData\Local\Temp\ccNy8eXk.s:32438  .debug_str:000000000002d1a9 .LASF4516
C:\Users\CYMR90~1\AppData\Local\Temp\ccNy8eXk.s:22561  .debug_str:0000000000005b6a .LASF4517
C:\Users\CYMR90~1\AppData\Local\Temp\ccNy8eXk.s:31226  .debug_str:0000000000028549 .LASF4518
C:\Users\CYMR90~1\AppData\Local\Temp\ccNy8eXk.s:32436  .debug_str:000000000002d170 .LASF4519
C:\Users\CYMR90~1\AppData\Local\Temp\ccNy8eXk.s:28572  .debug_str:000000000001de61 .LASF4520
C:\Users\CYMR90~1\AppData\Local\Temp\ccNy8eXk.s:22863  .debug_str:0000000000006e0d .LASF4521
C:\Users\CYMR90~1\AppData\Local\Temp\ccNy8eXk.s:22323  .debug_str:0000000000004d48 .LASF4522
C:\Users\CYMR90~1\AppData\Local\Temp\ccNy8eXk.s:26868  .debug_str:0000000000016ff8 .LASF4523
C:\Users\CYMR90~1\AppData\Local\Temp\ccNy8eXk.s:32068  .debug_str:000000000002b93f .LASF4524
C:\Users\CYMR90~1\AppData\Local\Temp\ccNy8eXk.s:25905  .debug_str:0000000000013126 .LASF4525
C:\Users\CYMR90~1\AppData\Local\Temp\ccNy8eXk.s:31696  .debug_str:000000000002a25b .LASF4526
C:\Users\CYMR90~1\AppData\Local\Temp\ccNy8eXk.s:30778  .debug_str:00000000000267c6 .LASF4527
C:\Users\CYMR90~1\AppData\Local\Temp\ccNy8eXk.s:30994  .debug_str:000000000002758a .LASF4528
C:\Users\CYMR90~1\AppData\Local\Temp\ccNy8eXk.s:31524  .debug_str:000000000002986b .LASF4529
C:\Users\CYMR90~1\AppData\Local\Temp\ccNy8eXk.s:28108  .debug_str:000000000001bfa7 .LASF4530
C:\Users\CYMR90~1\AppData\Local\Temp\ccNy8eXk.s:27570  .debug_str:0000000000019ca5 .LASF4531
C:\Users\CYMR90~1\AppData\Local\Temp\ccNy8eXk.s:23149  .debug_str:00000000000081aa .LASF4532
C:\Users\CYMR90~1\AppData\Local\Temp\ccNy8eXk.s:28280  .debug_str:000000000001ca86 .LASF4533
C:\Users\CYMR90~1\AppData\Local\Temp\ccNy8eXk.s:27876  .debug_str:000000000001b161 .LASF4534
C:\Users\CYMR90~1\AppData\Local\Temp\ccNy8eXk.s:29808  .debug_str:00000000000228f4 .LASF4535
C:\Users\CYMR90~1\AppData\Local\Temp\ccNy8eXk.s:30734  .debug_str:000000000002650f .LASF4536
C:\Users\CYMR90~1\AppData\Local\Temp\ccNy8eXk.s:21593  .debug_str:0000000000001eb1 .LASF4537
C:\Users\CYMR90~1\AppData\Local\Temp\ccNy8eXk.s:26699  .debug_str:000000000001629f .LASF4538
C:\Users\CYMR90~1\AppData\Local\Temp\ccNy8eXk.s:21909  .debug_str:00000000000031f1 .LASF4539
C:\Users\CYMR90~1\AppData\Local\Temp\ccNy8eXk.s:29050  .debug_str:000000000001fb34 .LASF4540
C:\Users\CYMR90~1\AppData\Local\Temp\ccNy8eXk.s:28752  .debug_str:000000000001e929 .LASF4541
C:\Users\CYMR90~1\AppData\Local\Temp\ccNy8eXk.s:21387  .debug_str:00000000000011fe .LASF4542
C:\Users\CYMR90~1\AppData\Local\Temp\ccNy8eXk.s:30464  .debug_str:00000000000252f2 .LASF4543
C:\Users\CYMR90~1\AppData\Local\Temp\ccNy8eXk.s:23257  .debug_str:000000000000884b .LASF4544
C:\Users\CYMR90~1\AppData\Local\Temp\ccNy8eXk.s:28380  .debug_str:000000000001d205 .LASF4545
C:\Users\CYMR90~1\AppData\Local\Temp\ccNy8eXk.s:28400  .debug_str:000000000001d31f .LASF4546
C:\Users\CYMR90~1\AppData\Local\Temp\ccNy8eXk.s:29360  .debug_str:0000000000020e2b .LASF4547
C:\Users\CYMR90~1\AppData\Local\Temp\ccNy8eXk.s:27814  .debug_str:000000000001ad4d .LASF4548
C:\Users\CYMR90~1\AppData\Local\Temp\ccNy8eXk.s:22579  .debug_str:0000000000005cab .LASF4549
C:\Users\CYMR90~1\AppData\Local\Temp\ccNy8eXk.s:31188  .debug_str:0000000000028259 .LASF4550
C:\Users\CYMR90~1\AppData\Local\Temp\ccNy8eXk.s:30090  .debug_str:0000000000023a41 .LASF4551
C:\Users\CYMR90~1\AppData\Local\Temp\ccNy8eXk.s:26415  .debug_str:0000000000015162 .LASF4552
C:\Users\CYMR90~1\AppData\Local\Temp\ccNy8eXk.s:32392  .debug_str:000000000002cee5 .LASF4553
C:\Users\CYMR90~1\AppData\Local\Temp\ccNy8eXk.s:21871  .debug_str:0000000000002f7a .LASF4554
C:\Users\CYMR90~1\AppData\Local\Temp\ccNy8eXk.s:21129  .debug_str:00000000000001c8 .LASF4555
C:\Users\CYMR90~1\AppData\Local\Temp\ccNy8eXk.s:27524  .debug_str:00000000000199b3 .LASF4556
C:\Users\CYMR90~1\AppData\Local\Temp\ccNy8eXk.s:25299  .debug_str:00000000000109bc .LASF4557
C:\Users\CYMR90~1\AppData\Local\Temp\ccNy8eXk.s:22185  .debug_str:00000000000043db .LASF4558
C:\Users\CYMR90~1\AppData\Local\Temp\ccNy8eXk.s:27458  .debug_str:0000000000019534 .LASF4559
C:\Users\CYMR90~1\AppData\Local\Temp\ccNy8eXk.s:30790  .debug_str:00000000000268ab .LASF4560
C:\Users\CYMR90~1\AppData\Local\Temp\ccNy8eXk.s:21155  .debug_str:000000000000035d .LASF4561
C:\Users\CYMR90~1\AppData\Local\Temp\ccNy8eXk.s:21203  .debug_str:00000000000005ed .LASF4562
C:\Users\CYMR90~1\AppData\Local\Temp\ccNy8eXk.s:31444  .debug_str:00000000000292f2 .LASF4563
C:\Users\CYMR90~1\AppData\Local\Temp\ccNy8eXk.s:22215  .debug_str:00000000000045e5 .LASF4564
C:\Users\CYMR90~1\AppData\Local\Temp\ccNy8eXk.s:23871  .debug_str:000000000000af90 .LASF4565
C:\Users\CYMR90~1\AppData\Local\Temp\ccNy8eXk.s:21177  .debug_str:00000000000004ae .LASF4566
C:\Users\CYMR90~1\AppData\Local\Temp\ccNy8eXk.s:28732  .debug_str:000000000001e802 .LASF4567
C:\Users\CYMR90~1\AppData\Local\Temp\ccNy8eXk.s:26878  .debug_str:00000000000170a1 .LASF4568
C:\Users\CYMR90~1\AppData\Local\Temp\ccNy8eXk.s:21731  .debug_str:00000000000026b2 .LASF4569
C:\Users\CYMR90~1\AppData\Local\Temp\ccNy8eXk.s:30898  .debug_str:0000000000026f3d .LASF4570
C:\Users\CYMR90~1\AppData\Local\Temp\ccNy8eXk.s:32238  .debug_str:000000000002c4ac .LASF4571
C:\Users\CYMR90~1\AppData\Local\Temp\ccNy8eXk.s:29182  .debug_str:00000000000202fc .LASF4572
C:\Users\CYMR90~1\AppData\Local\Temp\ccNy8eXk.s:24209  .debug_str:000000000000c627 .LASF4573
C:\Users\CYMR90~1\AppData\Local\Temp\ccNy8eXk.s:29816  .debug_str:0000000000022963 .LASF4574
C:\Users\CYMR90~1\AppData\Local\Temp\ccNy8eXk.s:24115  .debug_str:000000000000c05a .LASF4575
C:\Users\CYMR90~1\AppData\Local\Temp\ccNy8eXk.s:29806  .debug_str:00000000000228d6 .LASF4576
C:\Users\CYMR90~1\AppData\Local\Temp\ccNy8eXk.s:31342  .debug_str:0000000000028cc1 .LASF4577
C:\Users\CYMR90~1\AppData\Local\Temp\ccNy8eXk.s:22623  .debug_str:0000000000005f3f .LASF4578
C:\Users\CYMR90~1\AppData\Local\Temp\ccNy8eXk.s:25415  .debug_str:00000000000110db .LASF4579
C:\Users\CYMR90~1\AppData\Local\Temp\ccNy8eXk.s:24595  .debug_str:000000000000deaf .LASF4580
C:\Users\CYMR90~1\AppData\Local\Temp\ccNy8eXk.s:22269  .debug_str:00000000000049fe .LASF4581
C:\Users\CYMR90~1\AppData\Local\Temp\ccNy8eXk.s:23543  .debug_str:0000000000009a5b .LASF4582
C:\Users\CYMR90~1\AppData\Local\Temp\ccNy8eXk.s:26079  .debug_str:0000000000013c5f .LASF4583
C:\Users\CYMR90~1\AppData\Local\Temp\ccNy8eXk.s:22081  .debug_str:0000000000003cad .LASF4584
C:\Users\CYMR90~1\AppData\Local\Temp\ccNy8eXk.s:22857  .debug_str:0000000000006d9e .LASF4585
C:\Users\CYMR90~1\AppData\Local\Temp\ccNy8eXk.s:21105  .debug_str:000000000000002e .LASF4586
C:\Users\CYMR90~1\AppData\Local\Temp\ccNy8eXk.s:25399  .debug_str:0000000000010fec .LASF4587
C:\Users\CYMR90~1\AppData\Local\Temp\ccNy8eXk.s:27774  .debug_str:000000000001aaca .LASF4588
C:\Users\CYMR90~1\AppData\Local\Temp\ccNy8eXk.s:26827  .debug_str:0000000000016bd1 .LASF4589
C:\Users\CYMR90~1\AppData\Local\Temp\ccNy8eXk.s:32176  .debug_str:000000000002c07d .LASF4590
C:\Users\CYMR90~1\AppData\Local\Temp\ccNy8eXk.s:30240  .debug_str:00000000000243e1 .LASF4591
C:\Users\CYMR90~1\AppData\Local\Temp\ccNy8eXk.s:24697  .debug_str:000000000000e4bb .LASF4592
C:\Users\CYMR90~1\AppData\Local\Temp\ccNy8eXk.s:28854  .debug_str:000000000001ef2b .LASF4593
C:\Users\CYMR90~1\AppData\Local\Temp\ccNy8eXk.s:26347  .debug_str:0000000000014cdb .LASF4594
C:\Users\CYMR90~1\AppData\Local\Temp\ccNy8eXk.s:31512  .debug_str:00000000000297ab .LASF4595
C:\Users\CYMR90~1\AppData\Local\Temp\ccNy8eXk.s:27376  .debug_str:0000000000018f4c .LASF4596
C:\Users\CYMR90~1\AppData\Local\Temp\ccNy8eXk.s:25933  .debug_str:00000000000132b2 .LASF4597
C:\Users\CYMR90~1\AppData\Local\Temp\ccNy8eXk.s:21725  .debug_str:000000000000261c .LASF4598
C:\Users\CYMR90~1\AppData\Local\Temp\ccNy8eXk.s:28836  .debug_str:000000000001ee08 .LASF4599
C:\Users\CYMR90~1\AppData\Local\Temp\ccNy8eXk.s:23717  .debug_str:000000000000a53a .LASF4600
C:\Users\CYMR90~1\AppData\Local\Temp\ccNy8eXk.s:21233  .debug_str:0000000000000817 .LASF4601
C:\Users\CYMR90~1\AppData\Local\Temp\ccNy8eXk.s:27790  .debug_str:000000000001abc9 .LASF4602
C:\Users\CYMR90~1\AppData\Local\Temp\ccNy8eXk.s:30278  .debug_str:0000000000024688 .LASF4603
C:\Users\CYMR90~1\AppData\Local\Temp\ccNy8eXk.s:26491  .debug_str:00000000000155a0 .LASF4604
C:\Users\CYMR90~1\AppData\Local\Temp\ccNy8eXk.s:27440  .debug_str:00000000000193e3 .LASF4605
C:\Users\CYMR90~1\AppData\Local\Temp\ccNy8eXk.s:24107  .debug_str:000000000000bfd2 .LASF4606
C:\Users\CYMR90~1\AppData\Local\Temp\ccNy8eXk.s:27502  .debug_str:00000000000197e8 .LASF4607
C:\Users\CYMR90~1\AppData\Local\Temp\ccNy8eXk.s:29416  .debug_str:000000000002111e .LASF4608
C:\Users\CYMR90~1\AppData\Local\Temp\ccNy8eXk.s:27526  .debug_str:00000000000199ee .LASF4609
C:\Users\CYMR90~1\AppData\Local\Temp\ccNy8eXk.s:22167  .debug_str:00000000000042cf .LASF4610
C:\Users\CYMR90~1\AppData\Local\Temp\ccNy8eXk.s:23767  .debug_str:000000000000a807 .LASF4611
C:\Users\CYMR90~1\AppData\Local\Temp\ccNy8eXk.s:24461  .debug_str:000000000000d711 .LASF4612
C:\Users\CYMR90~1\AppData\Local\Temp\ccNy8eXk.s:29252  .debug_str:00000000000207e2 .LASF4613
C:\Users\CYMR90~1\AppData\Local\Temp\ccNy8eXk.s:28848  .debug_str:000000000001eec2 .LASF4614
C:\Users\CYMR90~1\AppData\Local\Temp\ccNy8eXk.s:24593  .debug_str:000000000000de73 .LASF4615
C:\Users\CYMR90~1\AppData\Local\Temp\ccNy8eXk.s:27896  .debug_str:000000000001b2c2 .LASF4616
C:\Users\CYMR90~1\AppData\Local\Temp\ccNy8eXk.s:31746  .debug_str:000000000002a546 .LASF4617
C:\Users\CYMR90~1\AppData\Local\Temp\ccNy8eXk.s:25319  .debug_str:0000000000010b17 .LASF4618
C:\Users\CYMR90~1\AppData\Local\Temp\ccNy8eXk.s:26043  .debug_str:0000000000013a44 .LASF4619
C:\Users\CYMR90~1\AppData\Local\Temp\ccNy8eXk.s:29700  .debug_str:00000000000222be .LASF4620
C:\Users\CYMR90~1\AppData\Local\Temp\ccNy8eXk.s:31848  .debug_str:000000000002ab6f .LASF4621
C:\Users\CYMR90~1\AppData\Local\Temp\ccNy8eXk.s:25109  .debug_str:000000000000fe09 .LASF4622
C:\Users\CYMR90~1\AppData\Local\Temp\ccNy8eXk.s:29766  .debug_str:000000000002266b .LASF4623
C:\Users\CYMR90~1\AppData\Local\Temp\ccNy8eXk.s:32086  .debug_str:000000000002ba3d .LASF4624
C:\Users\CYMR90~1\AppData\Local\Temp\ccNy8eXk.s:30282  .debug_str:00000000000246c3 .LASF4625
C:\Users\CYMR90~1\AppData\Local\Temp\ccNy8eXk.s:26769  .debug_str:0000000000016743 .LASF4626
C:\Users\CYMR90~1\AppData\Local\Temp\ccNy8eXk.s:28244  .debug_str:000000000001c856 .LASF4627
C:\Users\CYMR90~1\AppData\Local\Temp\ccNy8eXk.s:27550  .debug_str:0000000000019b77 .LASF4628
C:\Users\CYMR90~1\AppData\Local\Temp\ccNy8eXk.s:25241  .debug_str:0000000000010648 .LASF4629
C:\Users\CYMR90~1\AppData\Local\Temp\ccNy8eXk.s:25673  .debug_str:000000000001221b .LASF4630
C:\Users\CYMR90~1\AppData\Local\Temp\ccNy8eXk.s:21965  .debug_str:00000000000035b2 .LASF4631
C:\Users\CYMR90~1\AppData\Local\Temp\ccNy8eXk.s:22849  .debug_str:0000000000006d32 .LASF4632
C:\Users\CYMR90~1\AppData\Local\Temp\ccNy8eXk.s:25733  .debug_str:00000000000125e8 .LASF4633
C:\Users\CYMR90~1\AppData\Local\Temp\ccNy8eXk.s:31888  .debug_str:000000000002add8 .LASF4634
C:\Users\CYMR90~1\AppData\Local\Temp\ccNy8eXk.s:24717  .debug_str:000000000000e606 .LASF4635
C:\Users\CYMR90~1\AppData\Local\Temp\ccNy8eXk.s:27648  .debug_str:000000000001a123 .LASF4636
C:\Users\CYMR90~1\AppData\Local\Temp\ccNy8eXk.s:21319  .debug_str:0000000000000d8b .LASF4637
C:\Users\CYMR90~1\AppData\Local\Temp\ccNy8eXk.s:31110  .debug_str:0000000000027cd7 .LASF4638
C:\Users\CYMR90~1\AppData\Local\Temp\ccNy8eXk.s:32352  .debug_str:000000000002cc1b .LASF4639
C:\Users\CYMR90~1\AppData\Local\Temp\ccNy8eXk.s:24491  .debug_str:000000000000d8c5 .LASF4640
C:\Users\CYMR90~1\AppData\Local\Temp\ccNy8eXk.s:27170  .debug_str:0000000000018235 .LASF4641
C:\Users\CYMR90~1\AppData\Local\Temp\ccNy8eXk.s:21469  .debug_str:0000000000001684 .LASF4642
C:\Users\CYMR90~1\AppData\Local\Temp\ccNy8eXk.s:30152  .debug_str:0000000000023dcc .LASF4643
C:\Users\CYMR90~1\AppData\Local\Temp\ccNy8eXk.s:26637  .debug_str:0000000000015ed1 .LASF4644
C:\Users\CYMR90~1\AppData\Local\Temp\ccNy8eXk.s:31812  .debug_str:000000000002a97d .LASF4645
C:\Users\CYMR90~1\AppData\Local\Temp\ccNy8eXk.s:30764  .debug_str:00000000000266ed .LASF4646
C:\Users\CYMR90~1\AppData\Local\Temp\ccNy8eXk.s:31816  .debug_str:000000000002a9b1 .LASF4647
C:\Users\CYMR90~1\AppData\Local\Temp\ccNy8eXk.s:28184  .debug_str:000000000001c42e .LASF4648
C:\Users\CYMR90~1\AppData\Local\Temp\ccNy8eXk.s:21415  .debug_str:0000000000001365 .LASF4649
C:\Users\CYMR90~1\AppData\Local\Temp\ccNy8eXk.s:30538  .debug_str:0000000000025898 .LASF4650
C:\Users\CYMR90~1\AppData\Local\Temp\ccNy8eXk.s:28092  .debug_str:000000000001be9a .LASF4651
C:\Users\CYMR90~1\AppData\Local\Temp\ccNy8eXk.s:22615  .debug_str:0000000000005ebc .LASF4652
C:\Users\CYMR90~1\AppData\Local\Temp\ccNy8eXk.s:24723  .debug_str:000000000000e654 .LASF4653
C:\Users\CYMR90~1\AppData\Local\Temp\ccNy8eXk.s:29192  .debug_str:00000000000203d3 .LASF4654
C:\Users\CYMR90~1\AppData\Local\Temp\ccNy8eXk.s:25869  .debug_str:0000000000012eb9 .LASF4655
C:\Users\CYMR90~1\AppData\Local\Temp\ccNy8eXk.s:30910  .debug_str:000000000002700f .LASF4656
C:\Users\CYMR90~1\AppData\Local\Temp\ccNy8eXk.s:26401  .debug_str:000000000001508d .LASF4657
C:\Users\CYMR90~1\AppData\Local\Temp\ccNy8eXk.s:26151  .debug_str:00000000000140c0 .LASF4658
C:\Users\CYMR90~1\AppData\Local\Temp\ccNy8eXk.s:25229  .debug_str:000000000001059e .LASF4659
C:\Users\CYMR90~1\AppData\Local\Temp\ccNy8eXk.s:29062  .debug_str:000000000001fbfa .LASF4660
C:\Users\CYMR90~1\AppData\Local\Temp\ccNy8eXk.s:24821  .debug_str:000000000000ec90 .LASF4661
C:\Users\CYMR90~1\AppData\Local\Temp\ccNy8eXk.s:22527  .debug_str:000000000000597f .LASF4662
C:\Users\CYMR90~1\AppData\Local\Temp\ccNy8eXk.s:31652  .debug_str:0000000000029fda .LASF4663
C:\Users\CYMR90~1\AppData\Local\Temp\ccNy8eXk.s:29372  .debug_str:0000000000020ecd .LASF4664
C:\Users\CYMR90~1\AppData\Local\Temp\ccNy8eXk.s:32170  .debug_str:000000000002c031 .LASF4665
C:\Users\CYMR90~1\AppData\Local\Temp\ccNy8eXk.s:25023  .debug_str:000000000000f90c .LASF4666
C:\Users\CYMR90~1\AppData\Local\Temp\ccNy8eXk.s:23433  .debug_str:0000000000009351 .LASF4667
C:\Users\CYMR90~1\AppData\Local\Temp\ccNy8eXk.s:31846  .debug_str:000000000002ab4d .LASF4668
C:\Users\CYMR90~1\AppData\Local\Temp\ccNy8eXk.s:30022  .debug_str:00000000000235bb .LASF4669
C:\Users\CYMR90~1\AppData\Local\Temp\ccNy8eXk.s:31316  .debug_str:0000000000028b5b .LASF4670
C:\Users\CYMR90~1\AppData\Local\Temp\ccNy8eXk.s:22839  .debug_str:0000000000006c94 .LASF4671
C:\Users\CYMR90~1\AppData\Local\Temp\ccNy8eXk.s:29620  .debug_str:0000000000021df5 .LASF4672
C:\Users\CYMR90~1\AppData\Local\Temp\ccNy8eXk.s:31474  .debug_str:0000000000029516 .LASF4673
C:\Users\CYMR90~1\AppData\Local\Temp\ccNy8eXk.s:31212  .debug_str:000000000002846b .LASF4674
C:\Users\CYMR90~1\AppData\Local\Temp\ccNy8eXk.s:30502  .debug_str:0000000000025604 .LASF4675
C:\Users\CYMR90~1\AppData\Local\Temp\ccNy8eXk.s:27622  .debug_str:0000000000019fb1 .LASF4676
C:\Users\CYMR90~1\AppData\Local\Temp\ccNy8eXk.s:23603  .debug_str:0000000000009e12 .LASF4677
C:\Users\CYMR90~1\AppData\Local\Temp\ccNy8eXk.s:25025  .debug_str:000000000000f92e .LASF4678
C:\Users\CYMR90~1\AppData\Local\Temp\ccNy8eXk.s:21685  .debug_str:00000000000023cb .LASF4679
C:\Users\CYMR90~1\AppData\Local\Temp\ccNy8eXk.s:23751  .debug_str:000000000000a72e .LASF4680
C:\Users\CYMR90~1\AppData\Local\Temp\ccNy8eXk.s:28700  .debug_str:000000000001e5dc .LASF4681
C:\Users\CYMR90~1\AppData\Local\Temp\ccNy8eXk.s:26946  .debug_str:0000000000017461 .LASF4682
C:\Users\CYMR90~1\AppData\Local\Temp\ccNy8eXk.s:24411  .debug_str:000000000000d382 .LASF4683
C:\Users\CYMR90~1\AppData\Local\Temp\ccNy8eXk.s:32226  .debug_str:000000000002c398 .LASF4684
C:\Users\CYMR90~1\AppData\Local\Temp\ccNy8eXk.s:26787  .debug_str:000000000001684b .LASF4685
C:\Users\CYMR90~1\AppData\Local\Temp\ccNy8eXk.s:31876  .debug_str:000000000002ad1a .LASF4686
C:\Users\CYMR90~1\AppData\Local\Temp\ccNy8eXk.s:21901  .debug_str:0000000000003173 .LASF4687
C:\Users\CYMR90~1\AppData\Local\Temp\ccNy8eXk.s:21423  .debug_str:0000000000001404 .LASF4688
C:\Users\CYMR90~1\AppData\Local\Temp\ccNy8eXk.s:26795  .debug_str:0000000000016937 .LASF4689
C:\Users\CYMR90~1\AppData\Local\Temp\ccNy8eXk.s:23325  .debug_str:0000000000008c9e .LASF4690
C:\Users\CYMR90~1\AppData\Local\Temp\ccNy8eXk.s:30988  .debug_str:000000000002753f .LASF4691
C:\Users\CYMR90~1\AppData\Local\Temp\ccNy8eXk.s:29912  .debug_str:0000000000022f6b .LASF4692
C:\Users\CYMR90~1\AppData\Local\Temp\ccNy8eXk.s:21657  .debug_str:0000000000002226 .LASF4693
C:\Users\CYMR90~1\AppData\Local\Temp\ccNy8eXk.s:22799  .debug_str:0000000000006a24 .LASF4694
C:\Users\CYMR90~1\AppData\Local\Temp\ccNy8eXk.s:31130  .debug_str:0000000000027e4b .LASF4695
C:\Users\CYMR90~1\AppData\Local\Temp\ccNy8eXk.s:28632  .debug_str:000000000001e1d5 .LASF4696
C:\Users\CYMR90~1\AppData\Local\Temp\ccNy8eXk.s:23155  .debug_str:0000000000008201 .LASF4697
C:\Users\CYMR90~1\AppData\Local\Temp\ccNy8eXk.s:31046  .debug_str:0000000000027884 .LASF4698
C:\Users\CYMR90~1\AppData\Local\Temp\ccNy8eXk.s:24887  .debug_str:000000000000f01f .LASF4699
C:\Users\CYMR90~1\AppData\Local\Temp\ccNy8eXk.s:28318  .debug_str:000000000001cd01 .LASF4700
C:\Users\CYMR90~1\AppData\Local\Temp\ccNy8eXk.s:28452  .debug_str:000000000001d67e .LASF4701
C:\Users\CYMR90~1\AppData\Local\Temp\ccNy8eXk.s:21641  .debug_str:0000000000002151 .LASF4702
C:\Users\CYMR90~1\AppData\Local\Temp\ccNy8eXk.s:25053  .debug_str:000000000000fa96 .LASF4703
C:\Users\CYMR90~1\AppData\Local\Temp\ccNy8eXk.s:31630  .debug_str:0000000000029eba .LASF4704
C:\Users\CYMR90~1\AppData\Local\Temp\ccNy8eXk.s:24863  .debug_str:000000000000eec3 .LASF4705
C:\Users\CYMR90~1\AppData\Local\Temp\ccNy8eXk.s:28236  .debug_str:000000000001c740 .LASF4706
C:\Users\CYMR90~1\AppData\Local\Temp\ccNy8eXk.s:23935  .debug_str:000000000000b41e .LASF4707
C:\Users\CYMR90~1\AppData\Local\Temp\ccNy8eXk.s:27096  .debug_str:0000000000017dab .LASF4708
C:\Users\CYMR90~1\AppData\Local\Temp\ccNy8eXk.s:25269  .debug_str:00000000000107fe .LASF4709
C:\Users\CYMR90~1\AppData\Local\Temp\ccNy8eXk.s:21729  .debug_str:0000000000002690 .LASF4710
C:\Users\CYMR90~1\AppData\Local\Temp\ccNy8eXk.s:29898  .debug_str:0000000000022e9a .LASF4711
C:\Users\CYMR90~1\AppData\Local\Temp\ccNy8eXk.s:21455  .debug_str:00000000000015a1 .LASF4712
C:\Users\CYMR90~1\AppData\Local\Temp\ccNy8eXk.s:21287  .debug_str:0000000000000bcc .LASF4713
C:\Users\CYMR90~1\AppData\Local\Temp\ccNy8eXk.s:22371  .debug_str:000000000000501e .LASF4714
C:\Users\CYMR90~1\AppData\Local\Temp\ccNy8eXk.s:23017  .debug_str:0000000000007806 .LASF4715
C:\Users\CYMR90~1\AppData\Local\Temp\ccNy8eXk.s:30718  .debug_str:000000000002642c .LASF4716
C:\Users\CYMR90~1\AppData\Local\Temp\ccNy8eXk.s:21645  .debug_str:0000000000002186 .LASF4717
C:\Users\CYMR90~1\AppData\Local\Temp\ccNy8eXk.s:29432  .debug_str:0000000000021225 .LASF4718
C:\Users\CYMR90~1\AppData\Local\Temp\ccNy8eXk.s:24011  .debug_str:000000000000b94a .LASF4719
C:\Users\CYMR90~1\AppData\Local\Temp\ccNy8eXk.s:28536  .debug_str:000000000001dbaf .LASF4720
C:\Users\CYMR90~1\AppData\Local\Temp\ccNy8eXk.s:23363  .debug_str:0000000000008f53 .LASF4721
C:\Users\CYMR90~1\AppData\Local\Temp\ccNy8eXk.s:29048  .debug_str:000000000001fb1e .LASF4722
C:\Users\CYMR90~1\AppData\Local\Temp\ccNy8eXk.s:29678  .debug_str:0000000000022164 .LASF4723
C:\Users\CYMR90~1\AppData\Local\Temp\ccNy8eXk.s:27238  .debug_str:0000000000018630 .LASF4724
C:\Users\CYMR90~1\AppData\Local\Temp\ccNy8eXk.s:29772  .debug_str:00000000000226e1 .LASF4725
C:\Users\CYMR90~1\AppData\Local\Temp\ccNy8eXk.s:26719  .debug_str:00000000000163e7 .LASF4726
C:\Users\CYMR90~1\AppData\Local\Temp\ccNy8eXk.s:26619  .debug_str:0000000000015da2 .LASF4727
C:\Users\CYMR90~1\AppData\Local\Temp\ccNy8eXk.s:26199  .debug_str:00000000000143c7 .LASF4728
C:\Users\CYMR90~1\AppData\Local\Temp\ccNy8eXk.s:23119  .debug_str:0000000000007f1c .LASF4729
C:\Users\CYMR90~1\AppData\Local\Temp\ccNy8eXk.s:25437  .debug_str:0000000000011245 .LASF4730
C:\Users\CYMR90~1\AppData\Local\Temp\ccNy8eXk.s:28496  .debug_str:000000000001d987 .LASF4731
C:\Users\CYMR90~1\AppData\Local\Temp\ccNy8eXk.s:32412  .debug_str:000000000002d019 .LASF4732
C:\Users\CYMR90~1\AppData\Local\Temp\ccNy8eXk.s:24707  .debug_str:000000000000e55e .LASF4733
C:\Users\CYMR90~1\AppData\Local\Temp\ccNy8eXk.s:27198  .debug_str:00000000000183d4 .LASF4734
C:\Users\CYMR90~1\AppData\Local\Temp\ccNy8eXk.s:21507  .debug_str:0000000000001992 .LASF4735
C:\Users\CYMR90~1\AppData\Local\Temp\ccNy8eXk.s:22153  .debug_str:0000000000004170 .LASF4736
C:\Users\CYMR90~1\AppData\Local\Temp\ccNy8eXk.s:22157  .debug_str:0000000000004240 .LASF4737
C:\Users\CYMR90~1\AppData\Local\Temp\ccNy8eXk.s:25349  .debug_str:0000000000010d75 .LASF4738
C:\Users\CYMR90~1\AppData\Local\Temp\ccNy8eXk.s:30174  .debug_str:0000000000023f2f .LASF4739
C:\Users\CYMR90~1\AppData\Local\Temp\ccNy8eXk.s:24039  .debug_str:000000000000bb4f .LASF4740
C:\Users\CYMR90~1\AppData\Local\Temp\ccNy8eXk.s:23747  .debug_str:000000000000a6f0 .LASF4741
C:\Users\CYMR90~1\AppData\Local\Temp\ccNy8eXk.s:21985  .debug_str:00000000000036c9 .LASF4742
C:\Users\CYMR90~1\AppData\Local\Temp\ccNy8eXk.s:30050  .debug_str:00000000000237be .LASF4743
C:\Users\CYMR90~1\AppData\Local\Temp\ccNy8eXk.s:30596  .debug_str:0000000000025caa .LASF4744
C:\Users\CYMR90~1\AppData\Local\Temp\ccNy8eXk.s:30242  .debug_str:0000000000024411 .LASF4745
C:\Users\CYMR90~1\AppData\Local\Temp\ccNy8eXk.s:29982  .debug_str:0000000000023341 .LASF4746
C:\Users\CYMR90~1\AppData\Local\Temp\ccNy8eXk.s:26497  .debug_str:00000000000155f8 .LASF4747
C:\Users\CYMR90~1\AppData\Local\Temp\ccNy8eXk.s:32016  .debug_str:000000000002b5a5 .LASF4748
C:\Users\CYMR90~1\AppData\Local\Temp\ccNy8eXk.s:30288  .debug_str:000000000002473b .LASF4749
C:\Users\CYMR90~1\AppData\Local\Temp\ccNy8eXk.s:27488  .debug_str:00000000000196d7 .LASF4750
C:\Users\CYMR90~1\AppData\Local\Temp\ccNy8eXk.s:28518  .debug_str:000000000001dac1 .LASF4751
C:\Users\CYMR90~1\AppData\Local\Temp\ccNy8eXk.s:26703  .debug_str:00000000000162eb .LASF4752
C:\Users\CYMR90~1\AppData\Local\Temp\ccNy8eXk.s:23373  .debug_str:0000000000008fed .LASF4753
C:\Users\CYMR90~1\AppData\Local\Temp\ccNy8eXk.s:27492  .debug_str:000000000001971f .LASF4754
C:\Users\CYMR90~1\AppData\Local\Temp\ccNy8eXk.s:27286  .debug_str:0000000000018916 .LASF4755
C:\Users\CYMR90~1\AppData\Local\Temp\ccNy8eXk.s:26954  .debug_str:00000000000174bd .LASF4756
C:\Users\CYMR90~1\AppData\Local\Temp\ccNy8eXk.s:26733  .debug_str:0000000000016492 .LASF4757
C:\Users\CYMR90~1\AppData\Local\Temp\ccNy8eXk.s:22097  .debug_str:0000000000003dda .LASF4758
C:\Users\CYMR90~1\AppData\Local\Temp\ccNy8eXk.s:31010  .debug_str:0000000000027679 .LASF4759
C:\Users\CYMR90~1\AppData\Local\Temp\ccNy8eXk.s:24679  .debug_str:000000000000e3ba .LASF4760
C:\Users\CYMR90~1\AppData\Local\Temp\ccNy8eXk.s:22145  .debug_str:00000000000040ed .LASF4761
C:\Users\CYMR90~1\AppData\Local\Temp\ccNy8eXk.s:26337  .debug_str:0000000000014c2b .LASF4762
C:\Users\CYMR90~1\AppData\Local\Temp\ccNy8eXk.s:24673  .debug_str:000000000000e374 .LASF4763
C:\Users\CYMR90~1\AppData\Local\Temp\ccNy8eXk.s:21669  .debug_str:00000000000022f0 .LASF4764
C:\Users\CYMR90~1\AppData\Local\Temp\ccNy8eXk.s:31854  .debug_str:000000000002abd3 .LASF4765
C:\Users\CYMR90~1\AppData\Local\Temp\ccNy8eXk.s:23275  .debug_str:0000000000008985 .LASF4766
C:\Users\CYMR90~1\AppData\Local\Temp\ccNy8eXk.s:21857  .debug_str:0000000000002eb7 .LASF4767
C:\Users\CYMR90~1\AppData\Local\Temp\ccNy8eXk.s:31096  .debug_str:0000000000027bec .LASF4768
C:\Users\CYMR90~1\AppData\Local\Temp\ccNy8eXk.s:31584  .debug_str:0000000000029bd4 .LASF4769
C:\Users\CYMR90~1\AppData\Local\Temp\ccNy8eXk.s:27612  .debug_str:0000000000019f0e .LASF4770
C:\Users\CYMR90~1\AppData\Local\Temp\ccNy8eXk.s:27650  .debug_str:000000000001a13a .LASF4771
C:\Users\CYMR90~1\AppData\Local\Temp\ccNy8eXk.s:30542  .debug_str:00000000000258e6 .LASF4772
C:\Users\CYMR90~1\AppData\Local\Temp\ccNy8eXk.s:26435  .debug_str:00000000000152ba .LASF4773
C:\Users\CYMR90~1\AppData\Local\Temp\ccNy8eXk.s:32382  .debug_str:000000000002cdd3 .LASF4774
C:\Users\CYMR90~1\AppData\Local\Temp\ccNy8eXk.s:31264  .debug_str:000000000002880f .LASF4775
C:\Users\CYMR90~1\AppData\Local\Temp\ccNy8eXk.s:29992  .debug_str:00000000000233c7 .LASF4776
C:\Users\CYMR90~1\AppData\Local\Temp\ccNy8eXk.s:28800  .debug_str:000000000001ebe3 .LASF4777
C:\Users\CYMR90~1\AppData\Local\Temp\ccNy8eXk.s:25243  .debug_str:0000000000010686 .LASF4778
C:\Users\CYMR90~1\AppData\Local\Temp\ccNy8eXk.s:32268  .debug_str:000000000002c6c2 .LASF4779
C:\Users\CYMR90~1\AppData\Local\Temp\ccNy8eXk.s:30420  .debug_str:0000000000024fd0 .LASF4780
C:\Users\CYMR90~1\AppData\Local\Temp\ccNy8eXk.s:30330  .debug_str:00000000000249a7 .LASF4781
C:\Users\CYMR90~1\AppData\Local\Temp\ccNy8eXk.s:22891  .debug_str:0000000000006fea .LASF4782
C:\Users\CYMR90~1\AppData\Local\Temp\ccNy8eXk.s:26757  .debug_str:0000000000016663 .LASF4783
C:\Users\CYMR90~1\AppData\Local\Temp\ccNy8eXk.s:31074  .debug_str:0000000000027a44 .LASF4784
C:\Users\CYMR90~1\AppData\Local\Temp\ccNy8eXk.s:28300  .debug_str:000000000001cbbc .LASF4785
C:\Users\CYMR90~1\AppData\Local\Temp\ccNy8eXk.s:27094  .debug_str:0000000000017d86 .LASF4786
C:\Users\CYMR90~1\AppData\Local\Temp\ccNy8eXk.s:27060  .debug_str:0000000000017ba1 .LASF4787
C:\Users\CYMR90~1\AppData\Local\Temp\ccNy8eXk.s:30012  .debug_str:0000000000023520 .LASF4788
C:\Users\CYMR90~1\AppData\Local\Temp\ccNy8eXk.s:23175  .debug_str:000000000000834a .LASF4789
C:\Users\CYMR90~1\AppData\Local\Temp\ccNy8eXk.s:28286  .debug_str:000000000001cad9 .LASF4790
C:\Users\CYMR90~1\AppData\Local\Temp\ccNy8eXk.s:23793  .debug_str:000000000000aa97 .LASF4791
C:\Users\CYMR90~1\AppData\Local\Temp\ccNy8eXk.s:22769  .debug_str:0000000000006806 .LASF4792
C:\Users\CYMR90~1\AppData\Local\Temp\ccNy8eXk.s:26751  .debug_str:0000000000016616 .LASF4793
C:\Users\CYMR90~1\AppData\Local\Temp\ccNy8eXk.s:27908  .debug_str:000000000001b386 .LASF4794
C:\Users\CYMR90~1\AppData\Local\Temp\ccNy8eXk.s:22135  .debug_str:0000000000004084 .LASF4795
C:\Users\CYMR90~1\AppData\Local\Temp\ccNy8eXk.s:30616  .debug_str:0000000000025de4 .LASF4796
C:\Users\CYMR90~1\AppData\Local\Temp\ccNy8eXk.s:24759  .debug_str:000000000000e8b1 .LASF4797
C:\Users\CYMR90~1\AppData\Local\Temp\ccNy8eXk.s:28370  .debug_str:000000000001d153 .LASF4798
C:\Users\CYMR90~1\AppData\Local\Temp\ccNy8eXk.s:26233  .debug_str:00000000000145b3 .LASF4799
C:\Users\CYMR90~1\AppData\Local\Temp\ccNy8eXk.s:23897  .debug_str:000000000000b1cc .LASF4800
C:\Users\CYMR90~1\AppData\Local\Temp\ccNy8eXk.s:29326  .debug_str:0000000000020c35 .LASF4801
C:\Users\CYMR90~1\AppData\Local\Temp\ccNy8eXk.s:30730  .debug_str:00000000000264bf .LASF4802
C:\Users\CYMR90~1\AppData\Local\Temp\ccNy8eXk.s:29012  .debug_str:000000000001f8d3 .LASF4803
C:\Users\CYMR90~1\AppData\Local\Temp\ccNy8eXk.s:29622  .debug_str:0000000000021e19 .LASF4804
C:\Users\CYMR90~1\AppData\Local\Temp\ccNy8eXk.s:27878  .debug_str:000000000001b17a .LASF4805
C:\Users\CYMR90~1\AppData\Local\Temp\ccNy8eXk.s:29164  .debug_str:0000000000020207 .LASF4806
C:\Users\CYMR90~1\AppData\Local\Temp\ccNy8eXk.s:30678  .debug_str:00000000000261c9 .LASF4807
C:\Users\CYMR90~1\AppData\Local\Temp\ccNy8eXk.s:30156  .debug_str:0000000000023e0c .LASF4808
C:\Users\CYMR90~1\AppData\Local\Temp\ccNy8eXk.s:29970  .debug_str:000000000002326f .LASF4809
C:\Users\CYMR90~1\AppData\Local\Temp\ccNy8eXk.s:32442  .debug_str:000000000002d1d6 .LASF4810
C:\Users\CYMR90~1\AppData\Local\Temp\ccNy8eXk.s:22763  .debug_str:00000000000067a7 .LASF4811
C:\Users\CYMR90~1\AppData\Local\Temp\ccNy8eXk.s:22391  .debug_str:0000000000005142 .LASF4812
C:\Users\CYMR90~1\AppData\Local\Temp\ccNy8eXk.s:29874  .debug_str:0000000000022d3f .LASF4813
C:\Users\CYMR90~1\AppData\Local\Temp\ccNy8eXk.s:29824  .debug_str:00000000000229fb .LASF4814
C:\Users\CYMR90~1\AppData\Local\Temp\ccNy8eXk.s:29108  .debug_str:000000000001fef7 .LASF4815
C:\Users\CYMR90~1\AppData\Local\Temp\ccNy8eXk.s:21271  .debug_str:0000000000000a72 .LASF4816
C:\Users\CYMR90~1\AppData\Local\Temp\ccNy8eXk.s:26021  .debug_str:0000000000013900 .LASF4817
C:\Users\CYMR90~1\AppData\Local\Temp\ccNy8eXk.s:27148  .debug_str:00000000000180ad .LASF4818
C:\Users\CYMR90~1\AppData\Local\Temp\ccNy8eXk.s:24745  .debug_str:000000000000e7f9 .LASF4819
C:\Users\CYMR90~1\AppData\Local\Temp\ccNy8eXk.s:28344  .debug_str:000000000001cf4c .LASF4820
C:\Users\CYMR90~1\AppData\Local\Temp\ccNy8eXk.s:26373  .debug_str:0000000000014ec0 .LASF4821
C:\Users\CYMR90~1\AppData\Local\Temp\ccNy8eXk.s:21653  .debug_str:00000000000021df .LASF4822
C:\Users\CYMR90~1\AppData\Local\Temp\ccNy8eXk.s:23129  .debug_str:0000000000007fc9 .LASF4823
C:\Users\CYMR90~1\AppData\Local\Temp\ccNy8eXk.s:24173  .debug_str:000000000000c407 .LASF4824
C:\Users\CYMR90~1\AppData\Local\Temp\ccNy8eXk.s:26519  .debug_str:0000000000015749 .LASF4825
C:\Users\CYMR90~1\AppData\Local\Temp\ccNy8eXk.s:28036  .debug_str:000000000001baed .LASF4826
C:\Users\CYMR90~1\AppData\Local\Temp\ccNy8eXk.s:22221  .debug_str:000000000000463a .LASF4827
C:\Users\CYMR90~1\AppData\Local\Temp\ccNy8eXk.s:23251  .debug_str:0000000000008803 .LASF4828
C:\Users\CYMR90~1\AppData\Local\Temp\ccNy8eXk.s:22275  .debug_str:0000000000004a5f .LASF4829
C:\Users\CYMR90~1\AppData\Local\Temp\ccNy8eXk.s:28610  .debug_str:000000000001e0bb .LASF4830
C:\Users\CYMR90~1\AppData\Local\Temp\ccNy8eXk.s:30260  .debug_str:0000000000024556 .LASF4831
C:\Users\CYMR90~1\AppData\Local\Temp\ccNy8eXk.s:31762  .debug_str:000000000002a67e .LASF4832
C:\Users\CYMR90~1\AppData\Local\Temp\ccNy8eXk.s:25097  .debug_str:000000000000fd3a .LASF4833
C:\Users\CYMR90~1\AppData\Local\Temp\ccNy8eXk.s:29646  .debug_str:0000000000021f81 .LASF4834
C:\Users\CYMR90~1\AppData\Local\Temp\ccNy8eXk.s:31204  .debug_str:00000000000283e7 .LASF4835
C:\Users\CYMR90~1\AppData\Local\Temp\ccNy8eXk.s:30038  .debug_str:00000000000236e3 .LASF4836
C:\Users\CYMR90~1\AppData\Local\Temp\ccNy8eXk.s:26393  .debug_str:0000000000015010 .LASF4837
C:\Users\CYMR90~1\AppData\Local\Temp\ccNy8eXk.s:31960  .debug_str:000000000002b1f4 .LASF4838
C:\Users\CYMR90~1\AppData\Local\Temp\ccNy8eXk.s:23933  .debug_str:000000000000b3f5 .LASF4839
C:\Users\CYMR90~1\AppData\Local\Temp\ccNy8eXk.s:31460  .debug_str:0000000000029443 .LASF4840
C:\Users\CYMR90~1\AppData\Local\Temp\ccNy8eXk.s:26471  .debug_str:00000000000154ae .LASF4841
C:\Users\CYMR90~1\AppData\Local\Temp\ccNy8eXk.s:29526  .debug_str:0000000000021839 .LASF4842
C:\Users\CYMR90~1\AppData\Local\Temp\ccNy8eXk.s:31864  .debug_str:000000000002ac71 .LASF4843
C:\Users\CYMR90~1\AppData\Local\Temp\ccNy8eXk.s:21243  .debug_str:00000000000008ae .LASF4844
C:\Users\CYMR90~1\AppData\Local\Temp\ccNy8eXk.s:27934  .debug_str:000000000001b522 .LASF4845
C:\Users\CYMR90~1\AppData\Local\Temp\ccNy8eXk.s:28814  .debug_str:000000000001ecc6 .LASF4846
C:\Users\CYMR90~1\AppData\Local\Temp\ccNy8eXk.s:23669  .debug_str:000000000000a225 .LASF4847
C:\Users\CYMR90~1\AppData\Local\Temp\ccNy8eXk.s:22503  .debug_str:000000000000580c .LASF4848
C:\Users\CYMR90~1\AppData\Local\Temp\ccNy8eXk.s:25021  .debug_str:000000000000f8e2 .LASF4849
C:\Users\CYMR90~1\AppData\Local\Temp\ccNy8eXk.s:27280  .debug_str:00000000000188a4 .LASF4850
C:\Users\CYMR90~1\AppData\Local\Temp\ccNy8eXk.s:21753  .debug_str:000000000000284b .LASF4851
C:\Users\CYMR90~1\AppData\Local\Temp\ccNy8eXk.s:27530  .debug_str:0000000000019a41 .LASF4852
C:\Users\CYMR90~1\AppData\Local\Temp\ccNy8eXk.s:28868  .debug_str:000000000001f024 .LASF4853
C:\Users\CYMR90~1\AppData\Local\Temp\ccNy8eXk.s:21279  .debug_str:0000000000000b38 .LASF4854
C:\Users\CYMR90~1\AppData\Local\Temp\ccNy8eXk.s:22747  .debug_str:00000000000066e1 .LASF4855
C:\Users\CYMR90~1\AppData\Local\Temp\ccNy8eXk.s:25779  .debug_str:00000000000128de .LASF4856
C:\Users\CYMR90~1\AppData\Local\Temp\ccNy8eXk.s:28792  .debug_str:000000000001eb6b .LASF4857
C:\Users\CYMR90~1\AppData\Local\Temp\ccNy8eXk.s:28360  .debug_str:000000000001d0bb .LASF4858
C:\Users\CYMR90~1\AppData\Local\Temp\ccNy8eXk.s:31910  .debug_str:000000000002af2f .LASF4859
C:\Users\CYMR90~1\AppData\Local\Temp\ccNy8eXk.s:24093  .debug_str:000000000000bed4 .LASF4860
C:\Users\CYMR90~1\AppData\Local\Temp\ccNy8eXk.s:27118  .debug_str:0000000000017f22 .LASF4861
C:\Users\CYMR90~1\AppData\Local\Temp\ccNy8eXk.s:26125  .debug_str:0000000000013f32 .LASF4862
C:\Users\CYMR90~1\AppData\Local\Temp\ccNy8eXk.s:27102  .debug_str:0000000000017e01 .LASF4863
C:\Users\CYMR90~1\AppData\Local\Temp\ccNy8eXk.s:29312  .debug_str:0000000000020b5a .LASF4864
C:\Users\CYMR90~1\AppData\Local\Temp\ccNy8eXk.s:29316  .debug_str:0000000000020b93 .LASF4865
C:\Users\CYMR90~1\AppData\Local\Temp\ccNy8eXk.s:21879  .debug_str:0000000000002ff8 .LASF4866
C:\Users\CYMR90~1\AppData\Local\Temp\ccNy8eXk.s:24843  .debug_str:000000000000edbf .LASF4867
C:\Users\CYMR90~1\AppData\Local\Temp\ccNy8eXk.s:31656  .debug_str:000000000002a017 .LASF4868
C:\Users\CYMR90~1\AppData\Local\Temp\ccNy8eXk.s:23285  .debug_str:0000000000008a24 .LASF4869
C:\Users\CYMR90~1\AppData\Local\Temp\ccNy8eXk.s:25059  .debug_str:000000000000faec .LASF4870
C:\Users\CYMR90~1\AppData\Local\Temp\ccNy8eXk.s:21819  .debug_str:0000000000002c8c .LASF4871
C:\Users\CYMR90~1\AppData\Local\Temp\ccNy8eXk.s:25085  .debug_str:000000000000fc99 .LASF4872
C:\Users\CYMR90~1\AppData\Local\Temp\ccNy8eXk.s:26908  .debug_str:0000000000017254 .LASF4873
C:\Users\CYMR90~1\AppData\Local\Temp\ccNy8eXk.s:24533  .debug_str:000000000000db1b .LASF4874
C:\Users\CYMR90~1\AppData\Local\Temp\ccNy8eXk.s:26986  .debug_str:00000000000176d8 .LASF4875
C:\Users\CYMR90~1\AppData\Local\Temp\ccNy8eXk.s:23555  .debug_str:0000000000009b3a .LASF4876
C:\Users\CYMR90~1\AppData\Local\Temp\ccNy8eXk.s:26387  .debug_str:0000000000014fb2 .LASF4877
C:\Users\CYMR90~1\AppData\Local\Temp\ccNy8eXk.s:26285  .debug_str:0000000000014920 .LASF4878
C:\Users\CYMR90~1\AppData\Local\Temp\ccNy8eXk.s:23241  .debug_str:0000000000008769 .LASF4879
C:\Users\CYMR90~1\AppData\Local\Temp\ccNy8eXk.s:22429  .debug_str:000000000000538c .LASF4880
C:\Users\CYMR90~1\AppData\Local\Temp\ccNy8eXk.s:30212  .debug_str:0000000000024213 .LASF4881
C:\Users\CYMR90~1\AppData\Local\Temp\ccNy8eXk.s:31896  .debug_str:000000000002ae72 .LASF4882
C:\Users\CYMR90~1\AppData\Local\Temp\ccNy8eXk.s:27180  .debug_str:00000000000182b7 .LASF4883
C:\Users\CYMR90~1\AppData\Local\Temp\ccNy8eXk.s:31390  .debug_str:0000000000028f90 .LASF4884
C:\Users\CYMR90~1\AppData\Local\Temp\ccNy8eXk.s:31072  .debug_str:0000000000027a22 .LASF4885
C:\Users\CYMR90~1\AppData\Local\Temp\ccNy8eXk.s:23531  .debug_str:0000000000009993 .LASF4886
C:\Users\CYMR90~1\AppData\Local\Temp\ccNy8eXk.s:30816  .debug_str:0000000000026a1a .LASF4887
C:\Users\CYMR90~1\AppData\Local\Temp\ccNy8eXk.s:27164  .debug_str:00000000000181cc .LASF4888
C:\Users\CYMR90~1\AppData\Local\Temp\ccNy8eXk.s:27068  .debug_str:0000000000017c03 .LASF4889
C:\Users\CYMR90~1\AppData\Local\Temp\ccNy8eXk.s:30946  .debug_str:00000000000271eb .LASF4890
C:\Users\CYMR90~1\AppData\Local\Temp\ccNy8eXk.s:24945  .debug_str:000000000000f3aa .LASF4891
C:\Users\CYMR90~1\AppData\Local\Temp\ccNy8eXk.s:28322  .debug_str:000000000001cd45 .LASF4892
C:\Users\CYMR90~1\AppData\Local\Temp\ccNy8eXk.s:27354  .debug_str:0000000000018df4 .LASF4893
C:\Users\CYMR90~1\AppData\Local\Temp\ccNy8eXk.s:24247  .debug_str:000000000000c8e9 .LASF4894
C:\Users\CYMR90~1\AppData\Local\Temp\ccNy8eXk.s:30472  .debug_str:000000000002541a .LASF4895
C:\Users\CYMR90~1\AppData\Local\Temp\ccNy8eXk.s:23661  .debug_str:000000000000a1af .LASF4896
C:\Users\CYMR90~1\AppData\Local\Temp\ccNy8eXk.s:30296  .debug_str:00000000000247a0 .LASF4897
C:\Users\CYMR90~1\AppData\Local\Temp\ccNy8eXk.s:28096  .debug_str:000000000001bee4 .LASF4898
C:\Users\CYMR90~1\AppData\Local\Temp\ccNy8eXk.s:24387  .debug_str:000000000000d1a3 .LASF4899
C:\Users\CYMR90~1\AppData\Local\Temp\ccNy8eXk.s:25259  .debug_str:0000000000010781 .LASF4900
C:\Users\CYMR90~1\AppData\Local\Temp\ccNy8eXk.s:21595  .debug_str:0000000000001eca .LASF4901
C:\Users\CYMR90~1\AppData\Local\Temp\ccNy8eXk.s:26860  .debug_str:0000000000016f8c .LASF4902
C:\Users\CYMR90~1\AppData\Local\Temp\ccNy8eXk.s:28170  .debug_str:000000000001c359 .LASF4903
C:\Users\CYMR90~1\AppData\Local\Temp\ccNy8eXk.s:26281  .debug_str:00000000000148de .LASF4904
C:\Users\CYMR90~1\AppData\Local\Temp\ccNy8eXk.s:22213  .debug_str:00000000000045b9 .LASF4905
C:\Users\CYMR90~1\AppData\Local\Temp\ccNy8eXk.s:27808  .debug_str:000000000001ace0 .LASF4906
C:\Users\CYMR90~1\AppData\Local\Temp\ccNy8eXk.s:30566  .debug_str:0000000000025ada .LASF4907
C:\Users\CYMR90~1\AppData\Local\Temp\ccNy8eXk.s:24997  .debug_str:000000000000f6d0 .LASF4908
C:\Users\CYMR90~1\AppData\Local\Temp\ccNy8eXk.s:24087  .debug_str:000000000000be40 .LASF4909
C:\Users\CYMR90~1\AppData\Local\Temp\ccNy8eXk.s:21107  .debug_str:000000000000006a .LASF4910
C:\Users\CYMR90~1\AppData\Local\Temp\ccNy8eXk.s:24163  .debug_str:000000000000c384 .LASF4911
C:\Users\CYMR90~1\AppData\Local\Temp\ccNy8eXk.s:22765  .debug_str:00000000000067ca .LASF4912
C:\Users\CYMR90~1\AppData\Local\Temp\ccNy8eXk.s:32110  .debug_str:000000000002bbe1 .LASF4913
C:\Users\CYMR90~1\AppData\Local\Temp\ccNy8eXk.s:26525  .debug_str:000000000001579a .LASF4914
C:\Users\CYMR90~1\AppData\Local\Temp\ccNy8eXk.s:24045  .debug_str:000000000000bb96 .LASF4915
C:\Users\CYMR90~1\AppData\Local\Temp\ccNy8eXk.s:26377  .debug_str:0000000000014f07 .LASF4916
C:\Users\CYMR90~1\AppData\Local\Temp\ccNy8eXk.s:23999  .debug_str:000000000000b881 .LASF4917
C:\Users\CYMR90~1\AppData\Local\Temp\ccNy8eXk.s:26571  .debug_str:0000000000015a69 .LASF4918
C:\Users\CYMR90~1\AppData\Local\Temp\ccNy8eXk.s:25365  .debug_str:0000000000010e47 .LASF4919
C:\Users\CYMR90~1\AppData\Local\Temp\ccNy8eXk.s:25383  .debug_str:0000000000010f27 .LASF4920
C:\Users\CYMR90~1\AppData\Local\Temp\ccNy8eXk.s:25695  .debug_str:0000000000012388 .LASF4921
C:\Users\CYMR90~1\AppData\Local\Temp\ccNy8eXk.s:26443  .debug_str:0000000000015343 .LASF4922
C:\Users\CYMR90~1\AppData\Local\Temp\ccNy8eXk.s:31260  .debug_str:00000000000287c7 .LASF4923
C:\Users\CYMR90~1\AppData\Local\Temp\ccNy8eXk.s:31266  .debug_str:0000000000028831 .LASF4924
C:\Users\CYMR90~1\AppData\Local\Temp\ccNy8eXk.s:23019  .debug_str:0000000000007828 .LASF4925
C:\Users\CYMR90~1\AppData\Local\Temp\ccNy8eXk.s:32162  .debug_str:000000000002bf2e .LASF4926
C:\Users\CYMR90~1\AppData\Local\Temp\ccNy8eXk.s:32180  .debug_str:000000000002c0d5 .LASF4927
C:\Users\CYMR90~1\AppData\Local\Temp\ccNy8eXk.s:29340  .debug_str:0000000000020d1c .LASF4928
C:\Users\CYMR90~1\AppData\Local\Temp\ccNy8eXk.s:21305  .debug_str:0000000000000cc1 .LASF4929
C:\Users\CYMR90~1\AppData\Local\Temp\ccNy8eXk.s:24041  .debug_str:000000000000bb67 .LASF4930
C:\Users\CYMR90~1\AppData\Local\Temp\ccNy8eXk.s:28796  .debug_str:000000000001eba7 .LASF4931
C:\Users\CYMR90~1\AppData\Local\Temp\ccNy8eXk.s:22755  .debug_str:000000000000674c .LASF4932
C:\Users\CYMR90~1\AppData\Local\Temp\ccNy8eXk.s:24471  .debug_str:000000000000d7c3 .LASF4933
C:\Users\CYMR90~1\AppData\Local\Temp\ccNy8eXk.s:25889  .debug_str:000000000001301c .LASF4934
C:\Users\CYMR90~1\AppData\Local\Temp\ccNy8eXk.s:25301  .debug_str:00000000000109d5 .LASF4935
C:\Users\CYMR90~1\AppData\Local\Temp\ccNy8eXk.s:29634  .debug_str:0000000000021ee6 .LASF4936
C:\Users\CYMR90~1\AppData\Local\Temp\ccNy8eXk.s:28674  .debug_str:000000000001e442 .LASF4937
C:\Users\CYMR90~1\AppData\Local\Temp\ccNy8eXk.s:22421  .debug_str:0000000000005308 .LASF4938
C:\Users\CYMR90~1\AppData\Local\Temp\ccNy8eXk.s:29468  .debug_str:00000000000214dc .LASF4939
C:\Users\CYMR90~1\AppData\Local\Temp\ccNy8eXk.s:26627  .debug_str:0000000000015e17 .LASF4940
C:\Users\CYMR90~1\AppData\Local\Temp\ccNy8eXk.s:22661  .debug_str:00000000000061bf .LASF4941
C:\Users\CYMR90~1\AppData\Local\Temp\ccNy8eXk.s:23131  .debug_str:0000000000007fed .LASF4942
C:\Users\CYMR90~1\AppData\Local\Temp\ccNy8eXk.s:26455  .debug_str:00000000000153c5 .LASF4943
C:\Users\CYMR90~1\AppData\Local\Temp\ccNy8eXk.s:29112  .debug_str:000000000001ff45 .LASF4944
C:\Users\CYMR90~1\AppData\Local\Temp\ccNy8eXk.s:31298  .debug_str:0000000000028a27 .LASF4945
C:\Users\CYMR90~1\AppData\Local\Temp\ccNy8eXk.s:26101  .debug_str:0000000000013da2 .LASF4946
C:\Users\CYMR90~1\AppData\Local\Temp\ccNy8eXk.s:26033  .debug_str:00000000000139c2 .LASF4947
C:\Users\CYMR90~1\AppData\Local\Temp\ccNy8eXk.s:21703  .debug_str:0000000000002502 .LASF4948
C:\Users\CYMR90~1\AppData\Local\Temp\ccNy8eXk.s:28726  .debug_str:000000000001e784 .LASF4949
C:\Users\CYMR90~1\AppData\Local\Temp\ccNy8eXk.s:28188  .debug_str:000000000001c462 .LASF4950
C:\Users\CYMR90~1\AppData\Local\Temp\ccNy8eXk.s:30522  .debug_str:000000000002578b .LASF4951
C:\Users\CYMR90~1\AppData\Local\Temp\ccNy8eXk.s:22807  .debug_str:0000000000006a97 .LASF4952
C:\Users\CYMR90~1\AppData\Local\Temp\ccNy8eXk.s:21559  .debug_str:0000000000001cb2 .LASF4953
C:\Users\CYMR90~1\AppData\Local\Temp\ccNy8eXk.s:23393  .debug_str:00000000000090fb .LASF4954
C:\Users\CYMR90~1\AppData\Local\Temp\ccNy8eXk.s:23557  .debug_str:0000000000009b5d .LASF4955
C:\Users\CYMR90~1\AppData\Local\Temp\ccNy8eXk.s:21571  .debug_str:0000000000001d53 .LASF4956
C:\Users\CYMR90~1\AppData\Local\Temp\ccNy8eXk.s:32204  .debug_str:000000000002c237 .LASF4957
C:\Users\CYMR90~1\AppData\Local\Temp\ccNy8eXk.s:26329  .debug_str:0000000000014bb3 .LASF4958
C:\Users\CYMR90~1\AppData\Local\Temp\ccNy8eXk.s:26737  .debug_str:00000000000164d5 .LASF4959
C:\Users\CYMR90~1\AppData\Local\Temp\ccNy8eXk.s:25827  .debug_str:0000000000012c03 .LASF4960
C:\Users\CYMR90~1\AppData\Local\Temp\ccNy8eXk.s:23881  .debug_str:000000000000b0d9 .LASF4961
C:\Users\CYMR90~1\AppData\Local\Temp\ccNy8eXk.s:26391  .debug_str:0000000000014ff7 .LASF4962
C:\Users\CYMR90~1\AppData\Local\Temp\ccNy8eXk.s:22943  .debug_str:000000000000737a .LASF4963
C:\Users\CYMR90~1\AppData\Local\Temp\ccNy8eXk.s:27160  .debug_str:000000000001818f .LASF4964
C:\Users\CYMR90~1\AppData\Local\Temp\ccNy8eXk.s:25045  .debug_str:000000000000fa2b .LASF4965
C:\Users\CYMR90~1\AppData\Local\Temp\ccNy8eXk.s:26555  .debug_str:0000000000015976 .LASF4966
C:\Users\CYMR90~1\AppData\Local\Temp\ccNy8eXk.s:24407  .debug_str:000000000000d344 .LASF4967
C:\Users\CYMR90~1\AppData\Local\Temp\ccNy8eXk.s:27828  .debug_str:000000000001ae15 .LASF4968
C:\Users\CYMR90~1\AppData\Local\Temp\ccNy8eXk.s:32458  .debug_str:000000000002d2d4 .LASF4969
C:\Users\CYMR90~1\AppData\Local\Temp\ccNy8eXk.s:21999  .debug_str:0000000000003797 .LASF4970
C:\Users\CYMR90~1\AppData\Local\Temp\ccNy8eXk.s:29896  .debug_str:0000000000022e82 .LASF4971
C:\Users\CYMR90~1\AppData\Local\Temp\ccNy8eXk.s:29834  .debug_str:0000000000022a75 .LASF4972
C:\Users\CYMR90~1\AppData\Local\Temp\ccNy8eXk.s:22375  .debug_str:000000000000505c .LASF4973
C:\Users\CYMR90~1\AppData\Local\Temp\ccNy8eXk.s:23605  .debug_str:0000000000009e31 .LASF4974
C:\Users\CYMR90~1\AppData\Local\Temp\ccNy8eXk.s:23553  .debug_str:0000000000009b19 .LASF4975
C:\Users\CYMR90~1\AppData\Local\Temp\ccNy8eXk.s:24449  .debug_str:000000000000d62d .LASF4976
C:\Users\CYMR90~1\AppData\Local\Temp\ccNy8eXk.s:21651  .debug_str:00000000000021c2 .LASF4977
C:\Users\CYMR90~1\AppData\Local\Temp\ccNy8eXk.s:29600  .debug_str:0000000000021ce4 .LASF4978
C:\Users\CYMR90~1\AppData\Local\Temp\ccNy8eXk.s:29228  .debug_str:000000000002067c .LASF4979
C:\Users\CYMR90~1\AppData\Local\Temp\ccNy8eXk.s:30956  .debug_str:0000000000027295 .LASF4980
C:\Users\CYMR90~1\AppData\Local\Temp\ccNy8eXk.s:21517  .debug_str:00000000000019fd .LASF4981
C:\Users\CYMR90~1\AppData\Local\Temp\ccNy8eXk.s:25067  .debug_str:000000000000fb73 .LASF4982
C:\Users\CYMR90~1\AppData\Local\Temp\ccNy8eXk.s:23439  .debug_str:00000000000093a9 .LASF4983
C:\Users\CYMR90~1\AppData\Local\Temp\ccNy8eXk.s:30414  .debug_str:0000000000024f81 .LASF4984
C:\Users\CYMR90~1\AppData\Local\Temp\ccNy8eXk.s:31878  .debug_str:000000000002ad40 .LASF4985
C:\Users\CYMR90~1\AppData\Local\Temp\ccNy8eXk.s:26880  .debug_str:00000000000170cf .LASF4986
C:\Users\CYMR90~1\AppData\Local\Temp\ccNy8eXk.s:26990  .debug_str:000000000001771f .LASF4987
C:\Users\CYMR90~1\AppData\Local\Temp\ccNy8eXk.s:28544  .debug_str:000000000001dc3c .LASF4988
C:\Users\CYMR90~1\AppData\Local\Temp\ccNy8eXk.s:23679  .debug_str:000000000000a2d6 .LASF4989
C:\Users\CYMR90~1\AppData\Local\Temp\ccNy8eXk.s:28978  .debug_str:000000000001f6cc .LASF4990
C:\Users\CYMR90~1\AppData\Local\Temp\ccNy8eXk.s:30172  .debug_str:0000000000023f12 .LASF4991
C:\Users\CYMR90~1\AppData\Local\Temp\ccNy8eXk.s:25817  .debug_str:0000000000012b8c .LASF4992
C:\Users\CYMR90~1\AppData\Local\Temp\ccNy8eXk.s:22003  .debug_str:00000000000037d0 .LASF4993
C:\Users\CYMR90~1\AppData\Local\Temp\ccNy8eXk.s:22193  .debug_str:0000000000004464 .LASF4994
C:\Users\CYMR90~1\AppData\Local\Temp\ccNy8eXk.s:31108  .debug_str:0000000000027cb8 .LASF4995
C:\Users\CYMR90~1\AppData\Local\Temp\ccNy8eXk.s:25469  .debug_str:0000000000011404 .LASF4996
C:\Users\CYMR90~1\AppData\Local\Temp\ccNy8eXk.s:24053  .debug_str:000000000000bbfd .LASF4997
C:\Users\CYMR90~1\AppData\Local\Temp\ccNy8eXk.s:30164  .debug_str:0000000000023e95 .LASF4998
C:\Users\CYMR90~1\AppData\Local\Temp\ccNy8eXk.s:30274  .debug_str:0000000000024658 .LASF4999
C:\Users\CYMR90~1\AppData\Local\Temp\ccNy8eXk.s:26527  .debug_str:00000000000157b0 .LASF5000
C:\Users\CYMR90~1\AppData\Local\Temp\ccNy8eXk.s:22029  .debug_str:0000000000003972 .LASF5001
C:\Users\CYMR90~1\AppData\Local\Temp\ccNy8eXk.s:26862  .debug_str:0000000000016fb6 .LASF5002
C:\Users\CYMR90~1\AppData\Local\Temp\ccNy8eXk.s:21971  .debug_str:0000000000003617 .LASF5003
C:\Users\CYMR90~1\AppData\Local\Temp\ccNy8eXk.s:22313  .debug_str:0000000000004ca6 .LASF5004
C:\Users\CYMR90~1\AppData\Local\Temp\ccNy8eXk.s:22715  .debug_str:0000000000006513 .LASF5005
C:\Users\CYMR90~1\AppData\Local\Temp\ccNy8eXk.s:30752  .debug_str:000000000002663d .LASF5006
C:\Users\CYMR90~1\AppData\Local\Temp\ccNy8eXk.s:31660  .debug_str:000000000002a050 .LASF5007
C:\Users\CYMR90~1\AppData\Local\Temp\ccNy8eXk.s:21217  .debug_str:000000000000070c .LASF5008
C:\Users\CYMR90~1\AppData\Local\Temp\ccNy8eXk.s:26447  .debug_str:0000000000015373 .LASF5009
C:\Users\CYMR90~1\AppData\Local\Temp\ccNy8eXk.s:32140  .debug_str:000000000002bdd4 .LASF5010
C:\Users\CYMR90~1\AppData\Local\Temp\ccNy8eXk.s:23867  .debug_str:000000000000af57 .LASF5011
C:\Users\CYMR90~1\AppData\Local\Temp\ccNy8eXk.s:22801  .debug_str:0000000000006a3f .LASF5012
C:\Users\CYMR90~1\AppData\Local\Temp\ccNy8eXk.s:31060  .debug_str:000000000002795b .LASF5013
C:\Users\CYMR90~1\AppData\Local\Temp\ccNy8eXk.s:27770  .debug_str:000000000001aa88 .LASF5014
C:\Users\CYMR90~1\AppData\Local\Temp\ccNy8eXk.s:28886  .debug_str:000000000001f150 .LASF5015
C:\Users\CYMR90~1\AppData\Local\Temp\ccNy8eXk.s:28028  .debug_str:000000000001ba88 .LASF5016
C:\Users\CYMR90~1\AppData\Local\Temp\ccNy8eXk.s:22501  .debug_str:00000000000057f3 .LASF5017
C:\Users\CYMR90~1\AppData\Local\Temp\ccNy8eXk.s:29926  .debug_str:0000000000023017 .LASF5018
C:\Users\CYMR90~1\AppData\Local\Temp\ccNy8eXk.s:29944  .debug_str:0000000000023105 .LASF5019
C:\Users\CYMR90~1\AppData\Local\Temp\ccNy8eXk.s:30444  .debug_str:0000000000025135 .LASF5020
C:\Users\CYMR90~1\AppData\Local\Temp\ccNy8eXk.s:31368  .debug_str:0000000000028e25 .LASF5021
C:\Users\CYMR90~1\AppData\Local\Temp\ccNy8eXk.s:29984  .debug_str:000000000002335a .LASF5022
C:\Users\CYMR90~1\AppData\Local\Temp\ccNy8eXk.s:31486  .debug_str:00000000000295f8 .LASF5023
C:\Users\CYMR90~1\AppData\Local\Temp\ccNy8eXk.s:25895  .debug_str:000000000001307a .LASF5024
C:\Users\CYMR90~1\AppData\Local\Temp\ccNy8eXk.s:25717  .debug_str:00000000000124dd .LASF5025
C:\Users\CYMR90~1\AppData\Local\Temp\ccNy8eXk.s:29512  .debug_str:000000000002175c .LASF5026
C:\Users\CYMR90~1\AppData\Local\Temp\ccNy8eXk.s:28160  .debug_str:000000000001c2cf .LASF5027
C:\Users\CYMR90~1\AppData\Local\Temp\ccNy8eXk.s:25899  .debug_str:00000000000130be .LASF5028
C:\Users\CYMR90~1\AppData\Local\Temp\ccNy8eXk.s:27072  .debug_str:0000000000017c40 .LASF5029
C:\Users\CYMR90~1\AppData\Local\Temp\ccNy8eXk.s:22369  .debug_str:0000000000005004 .LASF5030
C:\Users\CYMR90~1\AppData\Local\Temp\ccNy8eXk.s:29494  .debug_str:000000000002165a .LASF5031
C:\Users\CYMR90~1\AppData\Local\Temp\ccNy8eXk.s:26803  .debug_str:00000000000169c2 .LASF5032
C:\Users\CYMR90~1\AppData\Local\Temp\ccNy8eXk.s:21877  .debug_str:0000000000002fdf .LASF5033
C:\Users\CYMR90~1\AppData\Local\Temp\ccNy8eXk.s:28788  .debug_str:000000000001eb25 .LASF5034
C:\Users\CYMR90~1\AppData\Local\Temp\ccNy8eXk.s:29732  .debug_str:0000000000022464 .LASF5035
C:\Users\CYMR90~1\AppData\Local\Temp\ccNy8eXk.s:31158  .debug_str:0000000000028023 .LASF5036
C:\Users\CYMR90~1\AppData\Local\Temp\ccNy8eXk.s:30204  .debug_str:00000000000240c9 .LASF5037
C:\Users\CYMR90~1\AppData\Local\Temp\ccNy8eXk.s:28426  .debug_str:000000000001d4a9 .LASF5038
C:\Users\CYMR90~1\AppData\Local\Temp\ccNy8eXk.s:28406  .debug_str:000000000001d376 .LASF5039
C:\Users\CYMR90~1\AppData\Local\Temp\ccNy8eXk.s:29518  .debug_str:00000000000217da .LASF5040
C:\Users\CYMR90~1\AppData\Local\Temp\ccNy8eXk.s:25773  .debug_str:0000000000012870 .LASF5041
C:\Users\CYMR90~1\AppData\Local\Temp\ccNy8eXk.s:27176  .debug_str:000000000001827b .LASF5042
C:\Users\CYMR90~1\AppData\Local\Temp\ccNy8eXk.s:22967  .debug_str:000000000000751b .LASF5043
C:\Users\CYMR90~1\AppData\Local\Temp\ccNy8eXk.s:27752  .debug_str:000000000001a96b .LASF5044
C:\Users\CYMR90~1\AppData\Local\Temp\ccNy8eXk.s:31604  .debug_str:0000000000029d23 .LASF5045
C:\Users\CYMR90~1\AppData\Local\Temp\ccNy8eXk.s:24227  .debug_str:000000000000c758 .LASF5046
C:\Users\CYMR90~1\AppData\Local\Temp\ccNy8eXk.s:23851  .debug_str:000000000000ae1a .LASF5047
C:\Users\CYMR90~1\AppData\Local\Temp\ccNy8eXk.s:24875  .debug_str:000000000000ef59 .LASF5048
C:\Users\CYMR90~1\AppData\Local\Temp\ccNy8eXk.s:22841  .debug_str:0000000000006cb8 .LASF5049
C:\Users\CYMR90~1\AppData\Local\Temp\ccNy8eXk.s:29154  .debug_str:000000000002017c .LASF5050
C:\Users\CYMR90~1\AppData\Local\Temp\ccNy8eXk.s:21707  .debug_str:0000000000002538 .LASF5051
C:\Users\CYMR90~1\AppData\Local\Temp\ccNy8eXk.s:29972  .debug_str:0000000000023291 .LASF5052
C:\Users\CYMR90~1\AppData\Local\Temp\ccNy8eXk.s:26791  .debug_str:00000000000168b2 .LASF5053
C:\Users\CYMR90~1\AppData\Local\Temp\ccNy8eXk.s:31834  .debug_str:000000000002aaa2 .LASF5054
C:\Users\CYMR90~1\AppData\Local\Temp\ccNy8eXk.s:25065  .debug_str:000000000000fb53 .LASF5055
C:\Users\CYMR90~1\AppData\Local\Temp\ccNy8eXk.s:31152  .debug_str:0000000000027fb1 .LASF5056
C:\Users\CYMR90~1\AppData\Local\Temp\ccNy8eXk.s:23041  .debug_str:00000000000079a6 .LASF5057
C:\Users\CYMR90~1\AppData\Local\Temp\ccNy8eXk.s:24467  .debug_str:000000000000d784 .LASF5058
C:\Users\CYMR90~1\AppData\Local\Temp\ccNy8eXk.s:32340  .debug_str:000000000002cb45 .LASF5059
C:\Users\CYMR90~1\AppData\Local\Temp\ccNy8eXk.s:24099  .debug_str:000000000000bf4d .LASF5060
C:\Users\CYMR90~1\AppData\Local\Temp\ccNy8eXk.s:23653  .debug_str:000000000000a142 .LASF5061
C:\Users\CYMR90~1\AppData\Local\Temp\ccNy8eXk.s:31064  .debug_str:00000000000279b3 .LASF5062
C:\Users\CYMR90~1\AppData\Local\Temp\ccNy8eXk.s:25509  .debug_str:00000000000116d0 .LASF5063
C:\Users\CYMR90~1\AppData\Local\Temp\ccNy8eXk.s:22285  .debug_str:0000000000004af8 .LASF5064
C:\Users\CYMR90~1\AppData\Local\Temp\ccNy8eXk.s:23597  .debug_str:0000000000009dab .LASF5065
C:\Users\CYMR90~1\AppData\Local\Temp\ccNy8eXk.s:27398  .debug_str:00000000000191a3 .LASF5066
C:\Users\CYMR90~1\AppData\Local\Temp\ccNy8eXk.s:28366  .debug_str:000000000001d109 .LASF5067
C:\Users\CYMR90~1\AppData\Local\Temp\ccNy8eXk.s:24013  .debug_str:000000000000b961 .LASF5068
C:\Users\CYMR90~1\AppData\Local\Temp\ccNy8eXk.s:24305  .debug_str:000000000000ccb7 .LASF5069
C:\Users\CYMR90~1\AppData\Local\Temp\ccNy8eXk.s:26585  .debug_str:0000000000015b26 .LASF5070
C:\Users\CYMR90~1\AppData\Local\Temp\ccNy8eXk.s:24709  .debug_str:000000000000e573 .LASF5071
C:\Users\CYMR90~1\AppData\Local\Temp\ccNy8eXk.s:27572  .debug_str:0000000000019cbe .LASF5072
C:\Users\CYMR90~1\AppData\Local\Temp\ccNy8eXk.s:27314  .debug_str:0000000000018acd .LASF5073
C:\Users\CYMR90~1\AppData\Local\Temp\ccNy8eXk.s:30052  .debug_str:00000000000237d3 .LASF5074
C:\Users\CYMR90~1\AppData\Local\Temp\ccNy8eXk.s:22243  .debug_str:00000000000047c6 .LASF5075
C:\Users\CYMR90~1\AppData\Local\Temp\ccNy8eXk.s:21285  .debug_str:0000000000000b9b .LASF5076
C:\Users\CYMR90~1\AppData\Local\Temp\ccNy8eXk.s:25599  .debug_str:0000000000011d2b .LASF5077
C:\Users\CYMR90~1\AppData\Local\Temp\ccNy8eXk.s:26351  .debug_str:0000000000014d24 .LASF5078
C:\Users\CYMR90~1\AppData\Local\Temp\ccNy8eXk.s:32206  .debug_str:000000000002c24f .LASF5079
C:\Users\CYMR90~1\AppData\Local\Temp\ccNy8eXk.s:23189  .debug_str:0000000000008427 .LASF5080
C:\Users\CYMR90~1\AppData\Local\Temp\ccNy8eXk.s:23741  .debug_str:000000000000a695 .LASF5081
C:\Users\CYMR90~1\AppData\Local\Temp\ccNy8eXk.s:27404  .debug_str:0000000000019205 .LASF5082
C:\Users\CYMR90~1\AppData\Local\Temp\ccNy8eXk.s:24647  .debug_str:000000000000e1ce .LASF5083
C:\Users\CYMR90~1\AppData\Local\Temp\ccNy8eXk.s:32256  .debug_str:000000000002c606 .LASF5084
C:\Users\CYMR90~1\AppData\Local\Temp\ccNy8eXk.s:21521  .debug_str:0000000000001a3b .LASF5085
C:\Users\CYMR90~1\AppData\Local\Temp\ccNy8eXk.s:31142  .debug_str:0000000000027f00 .LASF5086
C:\Users\CYMR90~1\AppData\Local\Temp\ccNy8eXk.s:28488  .debug_str:000000000001d90d .LASF5087
C:\Users\CYMR90~1\AppData\Local\Temp\ccNy8eXk.s:25991  .debug_str:000000000001372a .LASF5088
C:\Users\CYMR90~1\AppData\Local\Temp\ccNy8eXk.s:23701  .debug_str:000000000000a455 .LASF5089
C:\Users\CYMR90~1\AppData\Local\Temp\ccNy8eXk.s:29558  .debug_str:0000000000021a11 .LASF5090
C:\Users\CYMR90~1\AppData\Local\Temp\ccNy8eXk.s:25901  .debug_str:00000000000130de .LASF5091
C:\Users\CYMR90~1\AppData\Local\Temp\ccNy8eXk.s:27300  .debug_str:00000000000189f5 .LASF5092
C:\Users\CYMR90~1\AppData\Local\Temp\ccNy8eXk.s:25997  .debug_str:000000000001378b .LASF5093
C:\Users\CYMR90~1\AppData\Local\Temp\ccNy8eXk.s:30246  .debug_str:000000000002445e .LASF5094
C:\Users\CYMR90~1\AppData\Local\Temp\ccNy8eXk.s:23227  .debug_str:00000000000086b1 .LASF5095
C:\Users\CYMR90~1\AppData\Local\Temp\ccNy8eXk.s:21775  .debug_str:00000000000029b7 .LASF5096
C:\Users\CYMR90~1\AppData\Local\Temp\ccNy8eXk.s:25569  .debug_str:0000000000011ba6 .LASF5097
C:\Users\CYMR90~1\AppData\Local\Temp\ccNy8eXk.s:29110  .debug_str:000000000001ff1a .LASF5098
C:\Users\CYMR90~1\AppData\Local\Temp\ccNy8eXk.s:21923  .debug_str:00000000000032e0 .LASF5099
C:\Users\CYMR90~1\AppData\Local\Temp\ccNy8eXk.s:29042  .debug_str:000000000001faa7 .LASF5100
C:\Users\CYMR90~1\AppData\Local\Temp\ccNy8eXk.s:25985  .debug_str:00000000000136bf .LASF5101
C:\Users\CYMR90~1\AppData\Local\Temp\ccNy8eXk.s:31480  .debug_str:000000000002957c .LASF5102
C:\Users\CYMR90~1\AppData\Local\Temp\ccNy8eXk.s:23685  .debug_str:000000000000a32d .LASF5103
C:\Users\CYMR90~1\AppData\Local\Temp\ccNy8eXk.s:27394  .debug_str:0000000000019150 .LASF5104
C:\Users\CYMR90~1\AppData\Local\Temp\ccNy8eXk.s:31736  .debug_str:000000000002a49d .LASF5105
C:\Users\CYMR90~1\AppData\Local\Temp\ccNy8eXk.s:24655  .debug_str:000000000000e24f .LASF5106
C:\Users\CYMR90~1\AppData\Local\Temp\ccNy8eXk.s:31730  .debug_str:000000000002a434 .LASF5107
C:\Users\CYMR90~1\AppData\Local\Temp\ccNy8eXk.s:21855  .debug_str:0000000000002e8a .LASF5108
C:\Users\CYMR90~1\AppData\Local\Temp\ccNy8eXk.s:27832  .debug_str:000000000001ae52 .LASF5109
C:\Users\CYMR90~1\AppData\Local\Temp\ccNy8eXk.s:24975  .debug_str:000000000000f57e .LASF5110
C:\Users\CYMR90~1\AppData\Local\Temp\ccNy8eXk.s:26161  .debug_str:0000000000014185 .LASF5111
C:\Users\CYMR90~1\AppData\Local\Temp\ccNy8eXk.s:21529  .debug_str:0000000000001ab2 .LASF5112
C:\Users\CYMR90~1\AppData\Local\Temp\ccNy8eXk.s:23409  .debug_str:00000000000091cf .LASF5113
C:\Users\CYMR90~1\AppData\Local\Temp\ccNy8eXk.s:28340  .debug_str:000000000001cef0 .LASF5114
C:\Users\CYMR90~1\AppData\Local\Temp\ccNy8eXk.s:31778  .debug_str:000000000002a773 .LASF5115
C:\Users\CYMR90~1\AppData\Local\Temp\ccNy8eXk.s:22237  .debug_str:000000000000474e .LASF5116
C:\Users\CYMR90~1\AppData\Local\Temp\ccNy8eXk.s:30526  .debug_str:00000000000257d2 .LASF5117
C:\Users\CYMR90~1\AppData\Local\Temp\ccNy8eXk.s:29000  .debug_str:000000000001f7e9 .LASF5118
C:\Users\CYMR90~1\AppData\Local\Temp\ccNy8eXk.s:28168  .debug_str:000000000001c331 .LASF5119
C:\Users\CYMR90~1\AppData\Local\Temp\ccNy8eXk.s:29134  .debug_str:0000000000020077 .LASF5120
C:\Users\CYMR90~1\AppData\Local\Temp\ccNy8eXk.s:32408  .debug_str:000000000002cfca .LASF5121
C:\Users\CYMR90~1\AppData\Local\Temp\ccNy8eXk.s:30874  .debug_str:0000000000026d85 .LASF5122
C:\Users\CYMR90~1\AppData\Local\Temp\ccNy8eXk.s:22393  .debug_str:0000000000005166 .LASF5123
C:\Users\CYMR90~1\AppData\Local\Temp\ccNy8eXk.s:29528  .debug_str:0000000000021865 .LASF5124
C:\Users\CYMR90~1\AppData\Local\Temp\ccNy8eXk.s:29448  .debug_str:00000000000213ae .LASF5125
C:\Users\CYMR90~1\AppData\Local\Temp\ccNy8eXk.s:25813  .debug_str:0000000000012b3f .LASF5126
C:\Users\CYMR90~1\AppData\Local\Temp\ccNy8eXk.s:27106  .debug_str:0000000000017e46 .LASF5127
C:\Users\CYMR90~1\AppData\Local\Temp\ccNy8eXk.s:25309  .debug_str:0000000000010a83 .LASF5128
C:\Users\CYMR90~1\AppData\Local\Temp\ccNy8eXk.s:27210  .debug_str:0000000000018472 .LASF5129
C:\Users\CYMR90~1\AppData\Local\Temp\ccNy8eXk.s:27792  .debug_str:000000000001ac08 .LASF5130
C:\Users\CYMR90~1\AppData\Local\Temp\ccNy8eXk.s:29140  .debug_str:00000000000200d8 .LASF5131
C:\Users\CYMR90~1\AppData\Local\Temp\ccNy8eXk.s:32444  .debug_str:000000000002d1f8 .LASF5132
C:\Users\CYMR90~1\AppData\Local\Temp\ccNy8eXk.s:26273  .debug_str:0000000000014849 .LASF5133
C:\Users\CYMR90~1\AppData\Local\Temp\ccNy8eXk.s:27642  .debug_str:000000000001a0c8 .LASF5134
C:\Users\CYMR90~1\AppData\Local\Temp\ccNy8eXk.s:22463  .debug_str:000000000000559c .LASF5135
C:\Users\CYMR90~1\AppData\Local\Temp\ccNy8eXk.s:30268  .debug_str:00000000000245d1 .LASF5136
C:\Users\CYMR90~1\AppData\Local\Temp\ccNy8eXk.s:31146  .debug_str:0000000000027f43 .LASF5137
C:\Users\CYMR90~1\AppData\Local\Temp\ccNy8eXk.s:23061  .debug_str:0000000000007ae8 .LASF5138
C:\Users\CYMR90~1\AppData\Local\Temp\ccNy8eXk.s:32214  .debug_str:000000000002c2f3 .LASF5139
C:\Users\CYMR90~1\AppData\Local\Temp\ccNy8eXk.s:24827  .debug_str:000000000000ecf0 .LASF5140
C:\Users\CYMR90~1\AppData\Local\Temp\ccNy8eXk.s:27024  .debug_str:0000000000017961 .LASF5141
C:\Users\CYMR90~1\AppData\Local\Temp\ccNy8eXk.s:23169  .debug_str:00000000000082eb .LASF5142
C:\Users\CYMR90~1\AppData\Local\Temp\ccNy8eXk.s:22771  .debug_str:0000000000006828 .LASF5143
C:\Users\CYMR90~1\AppData\Local\Temp\ccNy8eXk.s:22361  .debug_str:0000000000004f79 .LASF5144
C:\Users\CYMR90~1\AppData\Local\Temp\ccNy8eXk.s:30966  .debug_str:00000000000273ce .LASF5145
C:\Users\CYMR90~1\AppData\Local\Temp\ccNy8eXk.s:27152  .debug_str:00000000000180f7 .LASF5146
C:\Users\CYMR90~1\AppData\Local\Temp\ccNy8eXk.s:25753  .debug_str:0000000000012722 .LASF5147
C:\Users\CYMR90~1\AppData\Local\Temp\ccNy8eXk.s:24255  .debug_str:000000000000c97b .LASF5148
C:\Users\CYMR90~1\AppData\Local\Temp\ccNy8eXk.s:28730  .debug_str:000000000001e7cc .LASF5149
C:\Users\CYMR90~1\AppData\Local\Temp\ccNy8eXk.s:23407  .debug_str:000000000000919e .LASF5150
C:\Users\CYMR90~1\AppData\Local\Temp\ccNy8eXk.s:31936  .debug_str:000000000002b083 .LASF5151
C:\Users\CYMR90~1\AppData\Local\Temp\ccNy8eXk.s:28720  .debug_str:000000000001e6f0 .LASF5152
C:\Users\CYMR90~1\AppData\Local\Temp\ccNy8eXk.s:23261  .debug_str:000000000000889e .LASF5153
C:\Users\CYMR90~1\AppData\Local\Temp\ccNy8eXk.s:31056  .debug_str:000000000002791f .LASF5154
C:\Users\CYMR90~1\AppData\Local\Temp\ccNy8eXk.s:32450  .debug_str:000000000002d252 .LASF5155
C:\Users\CYMR90~1\AppData\Local\Temp\ccNy8eXk.s:29052  .debug_str:000000000001fb4d .LASF5156
C:\Users\CYMR90~1\AppData\Local\Temp\ccNy8eXk.s:31344  .debug_str:0000000000028cdf .LASF5157
C:\Users\CYMR90~1\AppData\Local\Temp\ccNy8eXk.s:22343  .debug_str:0000000000004e71 .LASF5158
C:\Users\CYMR90~1\AppData\Local\Temp\ccNy8eXk.s:22689  .debug_str:00000000000063a6 .LASF5159
C:\Users\CYMR90~1\AppData\Local\Temp\ccNy8eXk.s:27662  .debug_str:000000000001a1df .LASF5160
C:\Users\CYMR90~1\AppData\Local\Temp\ccNy8eXk.s:26359  .debug_str:0000000000014dc7 .LASF5161
C:\Users\CYMR90~1\AppData\Local\Temp\ccNy8eXk.s:25115  .debug_str:000000000000fe69 .LASF5162
C:\Users\CYMR90~1\AppData\Local\Temp\ccNy8eXk.s:31796  .debug_str:000000000002a88c .LASF5163
C:\Users\CYMR90~1\AppData\Local\Temp\ccNy8eXk.s:28766  .debug_str:000000000001e9fb .LASF5164
C:\Users\CYMR90~1\AppData\Local\Temp\ccNy8eXk.s:29592  .debug_str:0000000000021c62 .LASF5165
C:\Users\CYMR90~1\AppData\Local\Temp\ccNy8eXk.s:27868  .debug_str:000000000001b0d5 .LASF5166
C:\Users\CYMR90~1\AppData\Local\Temp\ccNy8eXk.s:23457  .debug_str:00000000000094a2 .LASF5167
C:\Users\CYMR90~1\AppData\Local\Temp\ccNy8eXk.s:21159  .debug_str:0000000000000398 .LASF5168
C:\Users\CYMR90~1\AppData\Local\Temp\ccNy8eXk.s:25529  .debug_str:00000000000118c2 .LASF5169
C:\Users\CYMR90~1\AppData\Local\Temp\ccNy8eXk.s:21755  .debug_str:0000000000002873 .LASF5170
C:\Users\CYMR90~1\AppData\Local\Temp\ccNy8eXk.s:28774  .debug_str:000000000001ea6d .LASF5171
C:\Users\CYMR90~1\AppData\Local\Temp\ccNy8eXk.s:26381  .debug_str:0000000000014f5c .LASF5172
C:\Users\CYMR90~1\AppData\Local\Temp\ccNy8eXk.s:21103  .debug_str:0000000000000000 .LASF5173
C:\Users\CYMR90~1\AppData\Local\Temp\ccNy8eXk.s:26265  .debug_str:00000000000147e2 .LASF5174
C:\Users\CYMR90~1\AppData\Local\Temp\ccNy8eXk.s:31482  .debug_str:00000000000295a9 .LASF5175
C:\Users\CYMR90~1\AppData\Local\Temp\ccNy8eXk.s:30350  .debug_str:0000000000024b3e .LASF5176
C:\Users\CYMR90~1\AppData\Local\Temp\ccNy8eXk.s:31116  .debug_str:0000000000027d2f .LASF5177
C:\Users\CYMR90~1\AppData\Local\Temp\ccNy8eXk.s:22467  .debug_str:00000000000055e6 .LASF5178
C:\Users\CYMR90~1\AppData\Local\Temp\ccNy8eXk.s:26815  .debug_str:0000000000016a88 .LASF5179
C:\Users\CYMR90~1\AppData\Local\Temp\ccNy8eXk.s:29088  .debug_str:000000000001fd94 .LASF5180
C:\Users\CYMR90~1\AppData\Local\Temp\ccNy8eXk.s:27758  .debug_str:000000000001a9d4 .LASF5181
C:\Users\CYMR90~1\AppData\Local\Temp\ccNy8eXk.s:32432  .debug_str:000000000002d113 .LASF5182
C:\Users\CYMR90~1\AppData\Local\Temp\ccNy8eXk.s:26936  .debug_str:00000000000173e5 .LASF5183
C:\Users\CYMR90~1\AppData\Local\Temp\ccNy8eXk.s:22655  .debug_str:0000000000006158 .LASF5184
C:\Users\CYMR90~1\AppData\Local\Temp\ccNy8eXk.s:24935  .debug_str:000000000000f30e .LASF5185
C:\Users\CYMR90~1\AppData\Local\Temp\ccNy8eXk.s:25639  .debug_str:0000000000011ff4 .LASF5186
C:\Users\CYMR90~1\AppData\Local\Temp\ccNy8eXk.s:27264  .debug_str:0000000000018792 .LASF5187
C:\Users\CYMR90~1\AppData\Local\Temp\ccNy8eXk.s:22437  .debug_str:0000000000005408 .LASF5188
C:\Users\CYMR90~1\AppData\Local\Temp\ccNy8eXk.s:30512  .debug_str:00000000000256ad .LASF5189
C:\Users\CYMR90~1\AppData\Local\Temp\ccNy8eXk.s:31302  .debug_str:0000000000028a5c .LASF5190
C:\Users\CYMR90~1\AppData\Local\Temp\ccNy8eXk.s:30756  .debug_str:0000000000026664 .LASF5191
C:\Users\CYMR90~1\AppData\Local\Temp\ccNy8eXk.s:28790  .debug_str:000000000001eb3d .LASF5192
C:\Users\CYMR90~1\AppData\Local\Temp\ccNy8eXk.s:24345  .debug_str:000000000000ced4 .LASF5193
C:\Users\CYMR90~1\AppData\Local\Temp\ccNy8eXk.s:29248  .debug_str:0000000000020786 .LASF5194
C:\Users\CYMR90~1\AppData\Local\Temp\ccNy8eXk.s:25011  .debug_str:000000000000f825 .LASF5195
C:\Users\CYMR90~1\AppData\Local\Temp\ccNy8eXk.s:22073  .debug_str:0000000000003c21 .LASF5196
C:\Users\CYMR90~1\AppData\Local\Temp\ccNy8eXk.s:30732  .debug_str:00000000000264e9 .LASF5197
C:\Users\CYMR90~1\AppData\Local\Temp\ccNy8eXk.s:25913  .debug_str:0000000000013180 .LASF5198
C:\Users\CYMR90~1\AppData\Local\Temp\ccNy8eXk.s:24129  .debug_str:000000000000c14a .LASF5199
C:\Users\CYMR90~1\AppData\Local\Temp\ccNy8eXk.s:22017  .debug_str:00000000000038cb .LASF5200
C:\Users\CYMR90~1\AppData\Local\Temp\ccNy8eXk.s:29936  .debug_str:000000000002308d .LASF5201
C:\Users\CYMR90~1\AppData\Local\Temp\ccNy8eXk.s:25015  .debug_str:000000000000f874 .LASF5202
C:\Users\CYMR90~1\AppData\Local\Temp\ccNy8eXk.s:22529  .debug_str:00000000000059a1 .LASF5203
C:\Users\CYMR90~1\AppData\Local\Temp\ccNy8eXk.s:31180  .debug_str:00000000000281cb .LASF5204
C:\Users\CYMR90~1\AppData\Local\Temp\ccNy8eXk.s:25693  .debug_str:0000000000012366 .LASF5205
C:\Users\CYMR90~1\AppData\Local\Temp\ccNy8eXk.s:21849  .debug_str:0000000000002e2e .LASF5206
C:\Users\CYMR90~1\AppData\Local\Temp\ccNy8eXk.s:30588  .debug_str:0000000000025c3b .LASF5207
C:\Users\CYMR90~1\AppData\Local\Temp\ccNy8eXk.s:30978  .debug_str:00000000000274a3 .LASF5208
C:\Users\CYMR90~1\AppData\Local\Temp\ccNy8eXk.s:25457  .debug_str:000000000001135d .LASF5209
C:\Users\CYMR90~1\AppData\Local\Temp\ccNy8eXk.s:26649  .debug_str:0000000000015fae .LASF5210
C:\Users\CYMR90~1\AppData\Local\Temp\ccNy8eXk.s:29976  .debug_str:00000000000232ca .LASF5211
C:\Users\CYMR90~1\AppData\Local\Temp\ccNy8eXk.s:28712  .debug_str:000000000001e670 .LASF5212
C:\Users\CYMR90~1\AppData\Local\Temp\ccNy8eXk.s:29624  .debug_str:0000000000021e41 .LASF5213
C:\Users\CYMR90~1\AppData\Local\Temp\ccNy8eXk.s:32456  .debug_str:000000000002d2ae .LASF5214
C:\Users\CYMR90~1\AppData\Local\Temp\ccNy8eXk.s:29810  .debug_str:000000000002290d .LASF5215
C:\Users\CYMR90~1\AppData\Local\Temp\ccNy8eXk.s:21485  .debug_str:0000000000001811 .LASF5216
C:\Users\CYMR90~1\AppData\Local\Temp\ccNy8eXk.s:23045  .debug_str:00000000000079dc .LASF5217
C:\Users\CYMR90~1\AppData\Local\Temp\ccNy8eXk.s:22395  .debug_str:000000000000518f .LASF5218
C:\Users\CYMR90~1\AppData\Local\Temp\ccNy8eXk.s:29842  .debug_str:0000000000022adc .LASF5219
C:\Users\CYMR90~1\AppData\Local\Temp\ccNy8eXk.s:25763  .debug_str:00000000000127c5 .LASF5220
C:\Users\CYMR90~1\AppData\Local\Temp\ccNy8eXk.s:30322  .debug_str:0000000000024922 .LASF5221
C:\Users\CYMR90~1\AppData\Local\Temp\ccNy8eXk.s:31622  .debug_str:0000000000029e36 .LASF5222
C:\Users\CYMR90~1\AppData\Local\Temp\ccNy8eXk.s:29894  .debug_str:0000000000022e5a .LASF5223
C:\Users\CYMR90~1\AppData\Local\Temp\ccNy8eXk.s:30554  .debug_str:0000000000025a24 .LASF5224
C:\Users\CYMR90~1\AppData\Local\Temp\ccNy8eXk.s:30604  .debug_str:0000000000025d44 .LASF5225
C:\Users\CYMR90~1\AppData\Local\Temp\ccNy8eXk.s:29366  .debug_str:0000000000020e8b .LASF5226
C:\Users\CYMR90~1\AppData\Local\Temp\ccNy8eXk.s:31106  .debug_str:0000000000027c95 .LASF5227
C:\Users\CYMR90~1\AppData\Local\Temp\ccNy8eXk.s:25277  .debug_str:0000000000010879 .LASF5228
C:\Users\CYMR90~1\AppData\Local\Temp\ccNy8eXk.s:30440  .debug_str:00000000000250f6 .LASF5229
C:\Users\CYMR90~1\AppData\Local\Temp\ccNy8eXk.s:23801  .debug_str:000000000000aafc .LASF5230
C:\Users\CYMR90~1\AppData\Local\Temp\ccNy8eXk.s:25311  .debug_str:0000000000010aa2 .LASF5231
C:\Users\CYMR90~1\AppData\Local\Temp\ccNy8eXk.s:31884  .debug_str:000000000002ada0 .LASF5232
C:\Users\CYMR90~1\AppData\Local\Temp\ccNy8eXk.s:23333  .debug_str:0000000000008d16 .LASF5233
C:\Users\CYMR90~1\AppData\Local\Temp\ccNy8eXk.s:23913  .debug_str:000000000000b2e1 .LASF5234
C:\Users\CYMR90~1\AppData\Local\Temp\ccNy8eXk.s:30612  .debug_str:0000000000025db5 .LASF5235
C:\Users\CYMR90~1\AppData\Local\Temp\ccNy8eXk.s:21379  .debug_str:0000000000001182 .LASF5236
C:\Users\CYMR90~1\AppData\Local\Temp\ccNy8eXk.s:26729  .debug_str:000000000001645a .LASF5237
C:\Users\CYMR90~1\AppData\Local\Temp\ccNy8eXk.s:26275  .debug_str:0000000000014879 .LASF5238
C:\Users\CYMR90~1\AppData\Local\Temp\ccNy8eXk.s:31102  .debug_str:0000000000027c4d .LASF5239
C:\Users\CYMR90~1\AppData\Local\Temp\ccNy8eXk.s:24775  .debug_str:000000000000e9a6 .LASF5240
C:\Users\CYMR90~1\AppData\Local\Temp\ccNy8eXk.s:27268  .debug_str:00000000000187e0 .LASF5241
C:\Users\CYMR90~1\AppData\Local\Temp\ccNy8eXk.s:28734  .debug_str:000000000001e820 .LASF5242
C:\Users\CYMR90~1\AppData\Local\Temp\ccNy8eXk.s:25511  .debug_str:00000000000116f4 .LASF5243
C:\Users\CYMR90~1\AppData\Local\Temp\ccNy8eXk.s:29040  .debug_str:000000000001fa76 .LASF5244
C:\Users\CYMR90~1\AppData\Local\Temp\ccNy8eXk.s:22377  .debug_str:000000000000507a .LASF5245
C:\Users\CYMR90~1\AppData\Local\Temp\ccNy8eXk.s:26049  .debug_str:0000000000013aa3 .LASF5246
C:\Users\CYMR90~1\AppData\Local\Temp\ccNy8eXk.s:29082  .debug_str:000000000001fcfd .LASF5247
C:\Users\CYMR90~1\AppData\Local\Temp\ccNy8eXk.s:24631  .debug_str:000000000000e0d8 .LASF5248
C:\Users\CYMR90~1\AppData\Local\Temp\ccNy8eXk.s:28302  .debug_str:000000000001cbe2 .LASF5249
C:\Users\CYMR90~1\AppData\Local\Temp\ccNy8eXk.s:31726  .debug_str:000000000002a3df .LASF5250
C:\Users\CYMR90~1\AppData\Local\Temp\ccNy8eXk.s:31516  .debug_str:00000000000297f8 .LASF5251
C:\Users\CYMR90~1\AppData\Local\Temp\ccNy8eXk.s:32294  .debug_str:000000000002c809 .LASF5252
C:\Users\CYMR90~1\AppData\Local\Temp\ccNy8eXk.s:24785  .debug_str:000000000000ea1a .LASF5253
C:\Users\CYMR90~1\AppData\Local\Temp\ccNy8eXk.s:21459  .debug_str:00000000000015e7 .LASF5254
C:\Users\CYMR90~1\AppData\Local\Temp\ccNy8eXk.s:30258  .debug_str:0000000000024540 .LASF5255
C:\Users\CYMR90~1\AppData\Local\Temp\ccNy8eXk.s:30932  .debug_str:0000000000027134 .LASF5256
C:\Users\CYMR90~1\AppData\Local\Temp\ccNy8eXk.s:27798  .debug_str:000000000001ac58 .LASF5257
C:\Users\CYMR90~1\AppData\Local\Temp\ccNy8eXk.s:28786  .debug_str:000000000001eb0f .LASF5258
C:\Users\CYMR90~1\AppData\Local\Temp\ccNy8eXk.s:21309  .debug_str:0000000000000cfd .LASF5259
C:\Users\CYMR90~1\AppData\Local\Temp\ccNy8eXk.s:29384  .debug_str:0000000000020f6f .LASF5260
C:\Users\CYMR90~1\AppData\Local\Temp\ccNy8eXk.s:24259  .debug_str:000000000000c9ef .LASF5261
C:\Users\CYMR90~1\AppData\Local\Temp\ccNy8eXk.s:26593  .debug_str:0000000000015bc6 .LASF5262
C:\Users\CYMR90~1\AppData\Local\Temp\ccNy8eXk.s:25039  .debug_str:000000000000f9da .LASF5263
C:\Users\CYMR90~1\AppData\Local\Temp\ccNy8eXk.s:27206  .debug_str:0000000000018442 .LASF5264
C:\Users\CYMR90~1\AppData\Local\Temp\ccNy8eXk.s:31786  .debug_str:000000000002a7f6 .LASF5265
C:\Users\CYMR90~1\AppData\Local\Temp\ccNy8eXk.s:25981  .debug_str:0000000000013682 .LASF5266
C:\Users\CYMR90~1\AppData\Local\Temp\ccNy8eXk.s:28968  .debug_str:000000000001f632 .LASF5267
C:\Users\CYMR90~1\AppData\Local\Temp\ccNy8eXk.s:23023  .debug_str:0000000000007881 .LASF5268
C:\Users\CYMR90~1\AppData\Local\Temp\ccNy8eXk.s:30474  .debug_str:0000000000025445 .LASF5269
C:\Users\CYMR90~1\AppData\Local\Temp\ccNy8eXk.s:22899  .debug_str:0000000000007062 .LASF5270
C:\Users\CYMR90~1\AppData\Local\Temp\ccNy8eXk.s:31012  .debug_str:000000000002769e .LASF5271
C:\Users\CYMR90~1\AppData\Local\Temp\ccNy8eXk.s:31494  .debug_str:0000000000029664 .LASF5272
C:\Users\CYMR90~1\AppData\Local\Temp\ccNy8eXk.s:29718  .debug_str:00000000000223c3 .LASF5273
C:\Users\CYMR90~1\AppData\Local\Temp\ccNy8eXk.s:26501  .debug_str:0000000000015637 .LASF5274
C:\Users\CYMR90~1\AppData\Local\Temp\ccNy8eXk.s:23339  .debug_str:0000000000008d5d .LASF5275
C:\Users\CYMR90~1\AppData\Local\Temp\ccNy8eXk.s:21931  .debug_str:000000000000336a .LASF5276
C:\Users\CYMR90~1\AppData\Local\Temp\ccNy8eXk.s:32202  .debug_str:000000000002c21f .LASF5277
C:\Users\CYMR90~1\AppData\Local\Temp\ccNy8eXk.s:23519  .debug_str:000000000000989c .LASF5278
C:\Users\CYMR90~1\AppData\Local\Temp\ccNy8eXk.s:23343  .debug_str:0000000000008d84 .LASF5279
C:\Users\CYMR90~1\AppData\Local\Temp\ccNy8eXk.s:31692  .debug_str:000000000002a22b .LASF5280
C:\Users\CYMR90~1\AppData\Local\Temp\ccNy8eXk.s:24877  .debug_str:000000000000ef7c .LASF5281
C:\Users\CYMR90~1\AppData\Local\Temp\ccNy8eXk.s:31384  .debug_str:0000000000028f4b .LASF5282
C:\Users\CYMR90~1\AppData\Local\Temp\ccNy8eXk.s:23455  .debug_str:000000000000948a .LASF5283
C:\Users\CYMR90~1\AppData\Local\Temp\ccNy8eXk.s:32088  .debug_str:000000000002ba80 .LASF5284
C:\Users\CYMR90~1\AppData\Local\Temp\ccNy8eXk.s:29542  .debug_str:0000000000021951 .LASF5285
C:\Users\CYMR90~1\AppData\Local\Temp\ccNy8eXk.s:25019  .debug_str:000000000000f8ca .LASF5286
C:\Users\CYMR90~1\AppData\Local\Temp\ccNy8eXk.s:22219  .debug_str:0000000000004622 .LASF5287
C:\Users\CYMR90~1\AppData\Local\Temp\ccNy8eXk.s:27760  .debug_str:000000000001a9fb .LASF5288
C:\Users\CYMR90~1\AppData\Local\Temp\ccNy8eXk.s:25373  .debug_str:0000000000010ea7 .LASF5289
C:\Users\CYMR90~1\AppData\Local\Temp\ccNy8eXk.s:24959  .debug_str:000000000000f4a8 .LASF5290
C:\Users\CYMR90~1\AppData\Local\Temp\ccNy8eXk.s:21215  .debug_str:00000000000006f4 .LASF5291
C:\Users\CYMR90~1\AppData\Local\Temp\ccNy8eXk.s:21161  .debug_str:00000000000003c2 .LASF5292
C:\Users\CYMR90~1\AppData\Local\Temp\ccNy8eXk.s:21511  .debug_str:00000000000019bb .LASF5293
C:\Users\CYMR90~1\AppData\Local\Temp\ccNy8eXk.s:30066  .debug_str:00000000000238df .LASF5294
C:\Users\CYMR90~1\AppData\Local\Temp\ccNy8eXk.s:30728  .debug_str:00000000000264a8 .LASF5295
C:\Users\CYMR90~1\AppData\Local\Temp\ccNy8eXk.s:25865  .debug_str:0000000000012e6b .LASF5296
C:\Users\CYMR90~1\AppData\Local\Temp\ccNy8eXk.s:27794  .debug_str:000000000001ac2c .LASF5297
C:\Users\CYMR90~1\AppData\Local\Temp\ccNy8eXk.s:21803  .debug_str:0000000000002b4f .LASF5298
C:\Users\CYMR90~1\AppData\Local\Temp\ccNy8eXk.s:26599  .debug_str:0000000000015c5f .LASF5299
C:\Users\CYMR90~1\AppData\Local\Temp\ccNy8eXk.s:29166  .debug_str:0000000000020234 .LASF5300
C:\Users\CYMR90~1\AppData\Local\Temp\ccNy8eXk.s:28492  .debug_str:000000000001d956 .LASF5301
C:\Users\CYMR90~1\AppData\Local\Temp\ccNy8eXk.s:23249  .debug_str:00000000000087ec .LASF5302
C:\Users\CYMR90~1\AppData\Local\Temp\ccNy8eXk.s:29868  .debug_str:0000000000022cdf .LASF5303
C:\Users\CYMR90~1\AppData\Local\Temp\ccNy8eXk.s:29146  .debug_str:0000000000020124 .LASF5304
C:\Users\CYMR90~1\AppData\Local\Temp\ccNy8eXk.s:22277  .debug_str:0000000000004a81 .LASF5305
C:\Users\CYMR90~1\AppData\Local\Temp\ccNy8eXk.s:22713  .debug_str:00000000000064fc .LASF5306
C:\Users\CYMR90~1\AppData\Local\Temp\ccNy8eXk.s:29822  .debug_str:00000000000229dc .LASF5307
C:\Users\CYMR90~1\AppData\Local\Temp\ccNy8eXk.s:31570  .debug_str:0000000000029b18 .LASF5308
C:\Users\CYMR90~1\AppData\Local\Temp\ccNy8eXk.s:27382  .debug_str:0000000000018fda .LASF5309
C:\Users\CYMR90~1\AppData\Local\Temp\ccNy8eXk.s:24165  .debug_str:000000000000c3ae .LASF5310
C:\Users\CYMR90~1\AppData\Local\Temp\ccNy8eXk.s:25375  .debug_str:0000000000010ebf .LASF5311
C:\Users\CYMR90~1\AppData\Local\Temp\ccNy8eXk.s:25731  .debug_str:00000000000125d1 .LASF5312
C:\Users\CYMR90~1\AppData\Local\Temp\ccNy8eXk.s:29254  .debug_str:000000000002081c .LASF5313
C:\Users\CYMR90~1\AppData\Local\Temp\ccNy8eXk.s:26055  .debug_str:0000000000013b01 .LASF5314
C:\Users\CYMR90~1\AppData\Local\Temp\ccNy8eXk.s:31520  .debug_str:000000000002984e .LASF5315
C:\Users\CYMR90~1\AppData\Local\Temp\ccNy8eXk.s:25199  .debug_str:00000000000103da .LASF5316
C:\Users\CYMR90~1\AppData\Local\Temp\ccNy8eXk.s:24417  .debug_str:000000000000d3df .LASF5317
C:\Users\CYMR90~1\AppData\Local\Temp\ccNy8eXk.s:28876  .debug_str:000000000001f0c0 .LASF5318
C:\Users\CYMR90~1\AppData\Local\Temp\ccNy8eXk.s:32114  .debug_str:000000000002bc1d .LASF5319
C:\Users\CYMR90~1\AppData\Local\Temp\ccNy8eXk.s:29848  .debug_str:0000000000022bc8 .LASF5320
C:\Users\CYMR90~1\AppData\Local\Temp\ccNy8eXk.s:29988  .debug_str:0000000000023399 .LASF5321
C:\Users\CYMR90~1\AppData\Local\Temp\ccNy8eXk.s:23957  .debug_str:000000000000b538 .LASF5322
C:\Users\CYMR90~1\AppData\Local\Temp\ccNy8eXk.s:30122  .debug_str:0000000000023c1f .LASF5323
C:\Users\CYMR90~1\AppData\Local\Temp\ccNy8eXk.s:29722  .debug_str:00000000000223f4 .LASF5324
C:\Users\CYMR90~1\AppData\Local\Temp\ccNy8eXk.s:27630  .debug_str:000000000001a028 .LASF5325
C:\Users\CYMR90~1\AppData\Local\Temp\ccNy8eXk.s:27166  .debug_str:00000000000181ee .LASF5326
C:\Users\CYMR90~1\AppData\Local\Temp\ccNy8eXk.s:29594  .debug_str:0000000000021c88 .LASF5327
C:\Users\CYMR90~1\AppData\Local\Temp\ccNy8eXk.s:32084  .debug_str:000000000002ba26 .LASF5328
C:\Users\CYMR90~1\AppData\Local\Temp\ccNy8eXk.s:23095  .debug_str:0000000000007d0f .LASF5329
C:\Users\CYMR90~1\AppData\Local\Temp\ccNy8eXk.s:22539  .debug_str:0000000000005a59 .LASF5330
C:\Users\CYMR90~1\AppData\Local\Temp\ccNy8eXk.s:22851  .debug_str:0000000000006d4b .LASF5331
C:\Users\CYMR90~1\AppData\Local\Temp\ccNy8eXk.s:24299  .debug_str:000000000000cc61 .LASF5332
C:\Users\CYMR90~1\AppData\Local\Temp\ccNy8eXk.s:25659  .debug_str:000000000001214f .LASF5333
C:\Users\CYMR90~1\AppData\Local\Temp\ccNy8eXk.s:24055  .debug_str:000000000000bc1e .LASF5334
C:\Users\CYMR90~1\AppData\Local\Temp\ccNy8eXk.s:31122  .debug_str:0000000000027de0 .LASF5335
C:\Users\CYMR90~1\AppData\Local\Temp\ccNy8eXk.s:30712  .debug_str:00000000000263ce .LASF5336
C:\Users\CYMR90~1\AppData\Local\Temp\ccNy8eXk.s:26411  .debug_str:0000000000015132 .LASF5337
C:\Users\CYMR90~1\AppData\Local\Temp\ccNy8eXk.s:29036  .debug_str:000000000001fa4e .LASF5338
C:\Users\CYMR90~1\AppData\Local\Temp\ccNy8eXk.s:25971  .debug_str:00000000000135e0 .LASF5339
C:\Users\CYMR90~1\AppData\Local\Temp\ccNy8eXk.s:32272  .debug_str:000000000002c6f2 .LASF5340
C:\Users\CYMR90~1\AppData\Local\Temp\ccNy8eXk.s:28532  .debug_str:000000000001db87 .LASF5341
C:\Users\CYMR90~1\AppData\Local\Temp\ccNy8eXk.s:29272  .debug_str:0000000000020926 .LASF5342
C:\Users\CYMR90~1\AppData\Local\Temp\ccNy8eXk.s:29434  .debug_str:000000000002123c .LASF5343
C:\Users\CYMR90~1\AppData\Local\Temp\ccNy8eXk.s:24377  .debug_str:000000000000d109 .LASF5344
C:\Users\CYMR90~1\AppData\Local\Temp\ccNy8eXk.s:28480  .debug_str:000000000001d870 .LASF5345
C:\Users\CYMR90~1\AppData\Local\Temp\ccNy8eXk.s:27048  .debug_str:0000000000017ae7 .LASF5346
C:\Users\CYMR90~1\AppData\Local\Temp\ccNy8eXk.s:26213  .debug_str:0000000000014475 .LASF5347
C:\Users\CYMR90~1\AppData\Local\Temp\ccNy8eXk.s:24515  .debug_str:000000000000da01 .LASF5348
C:\Users\CYMR90~1\AppData\Local\Temp\ccNy8eXk.s:26419  .debug_str:00000000000151b0 .LASF5349
C:\Users\CYMR90~1\AppData\Local\Temp\ccNy8eXk.s:24443  .debug_str:000000000000d5f1 .LASF5350
C:\Users\CYMR90~1\AppData\Local\Temp\ccNy8eXk.s:26083  .debug_str:0000000000013cbf .LASF5351
C:\Users\CYMR90~1\AppData\Local\Temp\ccNy8eXk.s:28362  .debug_str:000000000001d0d2 .LASF5352
C:\Users\CYMR90~1\AppData\Local\Temp\ccNy8eXk.s:23635  .debug_str:000000000000a022 .LASF5353
C:\Users\CYMR90~1\AppData\Local\Temp\ccNy8eXk.s:30454  .debug_str:0000000000025251 .LASF5354
C:\Users\CYMR90~1\AppData\Local\Temp\ccNy8eXk.s:28392  .debug_str:000000000001d2c1 .LASF5355
C:\Users\CYMR90~1\AppData\Local\Temp\ccNy8eXk.s:32360  .debug_str:000000000002ccb3 .LASF5356
C:\Users\CYMR90~1\AppData\Local\Temp\ccNy8eXk.s:26603  .debug_str:0000000000015c85 .LASF5357
C:\Users\CYMR90~1\AppData\Local\Temp\ccNy8eXk.s:23667  .debug_str:000000000000a20d .LASF5358
C:\Users\CYMR90~1\AppData\Local\Temp\ccNy8eXk.s:24481  .debug_str:000000000000d831 .LASF5359
C:\Users\CYMR90~1\AppData\Local\Temp\ccNy8eXk.s:29156  .debug_str:000000000002019a .LASF5360
C:\Users\CYMR90~1\AppData\Local\Temp\ccNy8eXk.s:30548  .debug_str:00000000000259b3 .LASF5361
C:\Users\CYMR90~1\AppData\Local\Temp\ccNy8eXk.s:24277  .debug_str:000000000000cb10 .LASF5362
C:\Users\CYMR90~1\AppData\Local\Temp\ccNy8eXk.s:23697  .debug_str:000000000000a3f2 .LASF5363
C:\Users\CYMR90~1\AppData\Local\Temp\ccNy8eXk.s:27848  .debug_str:000000000001af8e .LASF5364
C:\Users\CYMR90~1\AppData\Local\Temp\ccNy8eXk.s:25099  .debug_str:000000000000fd5e .LASF5365
C:\Users\CYMR90~1\AppData\Local\Temp\ccNy8eXk.s:27322  .debug_str:0000000000018b4a .LASF5366
C:\Users\CYMR90~1\AppData\Local\Temp\ccNy8eXk.s:24245  .debug_str:000000000000c89c .LASF5367
C:\Users\CYMR90~1\AppData\Local\Temp\ccNy8eXk.s:24381  .debug_str:000000000000d12f .LASF5368
C:\Users\CYMR90~1\AppData\Local\Temp\ccNy8eXk.s:26463  .debug_str:000000000001542c .LASF5369
C:\Users\CYMR90~1\AppData\Local\Temp\ccNy8eXk.s:28526  .debug_str:000000000001db26 .LASF5370
C:\Users\CYMR90~1\AppData\Local\Temp\ccNy8eXk.s:23423  .debug_str:00000000000092b6 .LASF5371
C:\Users\CYMR90~1\AppData\Local\Temp\ccNy8eXk.s:23491  .debug_str:00000000000096fd .LASF5372
C:\Users\CYMR90~1\AppData\Local\Temp\ccNy8eXk.s:28416  .debug_str:000000000001d42e .LASF5373
C:\Users\CYMR90~1\AppData\Local\Temp\ccNy8eXk.s:26980  .debug_str:000000000001765e .LASF5374
C:\Users\CYMR90~1\AppData\Local\Temp\ccNy8eXk.s:29740  .debug_str:00000000000224ce .LASF5375
C:\Users\CYMR90~1\AppData\Local\Temp\ccNy8eXk.s:21111  .debug_str:00000000000000a6 .LASF5376
C:\Users\CYMR90~1\AppData\Local\Temp\ccNy8eXk.s:29120  .debug_str:000000000001ffa8 .LASF5377
C:\Users\CYMR90~1\AppData\Local\Temp\ccNy8eXk.s:32434  .debug_str:000000000002d13a .LASF5378
C:\Users\CYMR90~1\AppData\Local\Temp\ccNy8eXk.s:28556  .debug_str:000000000001dd71 .LASF5379
C:\Users\CYMR90~1\AppData\Local\Temp\ccNy8eXk.s:32208  .debug_str:000000000002c28d .LASF5380
C:\Users\CYMR90~1\AppData\Local\Temp\ccNy8eXk.s:21733  .debug_str:00000000000026d5 .LASF5381
C:\Users\CYMR90~1\AppData\Local\Temp\ccNy8eXk.s:29356  .debug_str:0000000000020dee .LASF5382
C:\Users\CYMR90~1\AppData\Local\Temp\ccNy8eXk.s:27632  .debug_str:000000000001a03f .LASF5383
C:\Users\CYMR90~1\AppData\Local\Temp\ccNy8eXk.s:21205  .debug_str:000000000000061e .LASF5384
C:\Users\CYMR90~1\AppData\Local\Temp\ccNy8eXk.s:25687  .debug_str:00000000000122e8 .LASF5385
C:\Users\CYMR90~1\AppData\Local\Temp\ccNy8eXk.s:26113  .debug_str:0000000000013e69 .LASF5386
C:\Users\CYMR90~1\AppData\Local\Temp\ccNy8eXk.s:25657  .debug_str:0000000000012136 .LASF5387
C:\Users\CYMR90~1\AppData\Local\Temp\ccNy8eXk.s:22719  .debug_str:000000000000655e .LASF5388
C:\Users\CYMR90~1\AppData\Local\Temp\ccNy8eXk.s:28856  .debug_str:000000000001ef50 .LASF5389
C:\Users\CYMR90~1\AppData\Local\Temp\ccNy8eXk.s:26994  .debug_str:0000000000017763 .LASF5390
C:\Users\CYMR90~1\AppData\Local\Temp\ccNy8eXk.s:21463  .debug_str:000000000000162d .LASF5391
C:\Users\CYMR90~1\AppData\Local\Temp\ccNy8eXk.s:29074  .debug_str:000000000001fc9c .LASF5392
C:\Users\CYMR90~1\AppData\Local\Temp\ccNy8eXk.s:21817  .debug_str:0000000000002c6d .LASF5393
C:\Users\CYMR90~1\AppData\Local\Temp\ccNy8eXk.s:30008  .debug_str:00000000000234c2 .LASF5394
C:\Users\CYMR90~1\AppData\Local\Temp\ccNy8eXk.s:21419  .debug_str:000000000000139a .LASF5395
C:\Users\CYMR90~1\AppData\Local\Temp\ccNy8eXk.s:30876  .debug_str:0000000000026dae .LASF5396
C:\Users\CYMR90~1\AppData\Local\Temp\ccNy8eXk.s:29786  .debug_str:00000000000227ac .LASF5397
C:\Users\CYMR90~1\AppData\Local\Temp\ccNy8eXk.s:22037  .debug_str:00000000000039ed .LASF5398
C:\Users\CYMR90~1\AppData\Local\Temp\ccNy8eXk.s:23921  .debug_str:000000000000b34d .LASF5399
C:\Users\CYMR90~1\AppData\Local\Temp\ccNy8eXk.s:30170  .debug_str:0000000000023edb .LASF5400
C:\Users\CYMR90~1\AppData\Local\Temp\ccNy8eXk.s:22619  .debug_str:0000000000005f0c .LASF5401
C:\Users\CYMR90~1\AppData\Local\Temp\ccNy8eXk.s:31022  .debug_str:000000000002772f .LASF5402
C:\Users\CYMR90~1\AppData\Local\Temp\ccNy8eXk.s:23191  .debug_str:000000000000844f .LASF5403
C:\Users\CYMR90~1\AppData\Local\Temp\ccNy8eXk.s:31984  .debug_str:000000000002b36f .LASF5404
C:\Users\CYMR90~1\AppData\Local\Temp\ccNy8eXk.s:29150  .debug_str:000000000002014f .LASF5405
C:\Users\CYMR90~1\AppData\Local\Temp\ccNy8eXk.s:27478  .debug_str:0000000000019636 .LASF5406
C:\Users\CYMR90~1\AppData\Local\Temp\ccNy8eXk.s:21343  .debug_str:0000000000000f60 .LASF5407
C:\Users\CYMR90~1\AppData\Local\Temp\ccNy8eXk.s:28982  .debug_str:000000000001f707 .LASF5408
C:\Users\CYMR90~1\AppData\Local\Temp\ccNy8eXk.s:22567  .debug_str:0000000000005bdc .LASF5409
C:\Users\CYMR90~1\AppData\Local\Temp\ccNy8eXk.s:31952  .debug_str:000000000002b179 .LASF5410
C:\Users\CYMR90~1\AppData\Local\Temp\ccNy8eXk.s:26727  .debug_str:000000000001643d .LASF5411
C:\Users\CYMR90~1\AppData\Local\Temp\ccNy8eXk.s:26521  .debug_str:0000000000015765 .LASF5412
C:\Users\CYMR90~1\AppData\Local\Temp\ccNy8eXk.s:27548  .debug_str:0000000000019b5a .LASF5413
C:\Users\CYMR90~1\AppData\Local\Temp\ccNy8eXk.s:23983  .debug_str:000000000000b743 .LASF5414
C:\Users\CYMR90~1\AppData\Local\Temp\ccNy8eXk.s:30342  .debug_str:0000000000024add .LASF5415
C:\Users\CYMR90~1\AppData\Local\Temp\ccNy8eXk.s:31930  .debug_str:000000000002b039 .LASF5416
C:\Users\CYMR90~1\AppData\Local\Temp\ccNy8eXk.s:22085  .debug_str:0000000000003cfe .LASF5417
C:\Users\CYMR90~1\AppData\Local\Temp\ccNy8eXk.s:28776  .debug_str:000000000001ea99 .LASF5418
C:\Users\CYMR90~1\AppData\Local\Temp\ccNy8eXk.s:28062  .debug_str:000000000001bcbe .LASF5419
C:\Users\CYMR90~1\AppData\Local\Temp\ccNy8eXk.s:25887  .debug_str:0000000000012fe5 .LASF5420
C:\Users\CYMR90~1\AppData\Local\Temp\ccNy8eXk.s:31684  .debug_str:000000000002a1bc .LASF5421
C:\Users\CYMR90~1\AppData\Local\Temp\ccNy8eXk.s:29568  .debug_str:0000000000021ad6 .LASF5422
C:\Users\CYMR90~1\AppData\Local\Temp\ccNy8eXk.s:23513  .debug_str:0000000000009831 .LASF5423
C:\Users\CYMR90~1\AppData\Local\Temp\ccNy8eXk.s:32344  .debug_str:000000000002cb96 .LASF5424
C:\Users\CYMR90~1\AppData\Local\Temp\ccNy8eXk.s:31392  .debug_str:0000000000028fa3 .LASF5425
C:\Users\CYMR90~1\AppData\Local\Temp\ccNy8eXk.s:21919  .debug_str:0000000000003290 .LASF5426
C:\Users\CYMR90~1\AppData\Local\Temp\ccNy8eXk.s:29520  .debug_str:00000000000217f2 .LASF5427
C:\Users\CYMR90~1\AppData\Local\Temp\ccNy8eXk.s:32306  .debug_str:000000000002c8db .LASF5428
C:\Users\CYMR90~1\AppData\Local\Temp\ccNy8eXk.s:28754  .debug_str:000000000001e942 .LASF5429
C:\Users\CYMR90~1\AppData\Local\Temp\ccNy8eXk.s:31642  .debug_str:0000000000029f5e .LASF5430
C:\Users\CYMR90~1\AppData\Local\Temp\ccNy8eXk.s:26597  .debug_str:0000000000015c3f .LASF5431
C:\Users\CYMR90~1\AppData\Local\Temp\ccNy8eXk.s:28690  .debug_str:000000000001e541 .LASF5432
C:\Users\CYMR90~1\AppData\Local\Temp\ccNy8eXk.s:24989  .debug_str:000000000000f653 .LASF5433
C:\Users\CYMR90~1\AppData\Local\Temp\ccNy8eXk.s:24979  .debug_str:000000000000f5c6 .LASF5434
C:\Users\CYMR90~1\AppData\Local\Temp\ccNy8eXk.s:29054  .debug_str:000000000001fb6c .LASF5435
C:\Users\CYMR90~1\AppData\Local\Temp\ccNy8eXk.s:30766  .debug_str:000000000002670a .LASF5436
C:\Users\CYMR90~1\AppData\Local\Temp\ccNy8eXk.s:21495  .debug_str:00000000000018c8 .LASF5437
C:\Users\CYMR90~1\AppData\Local\Temp\ccNy8eXk.s:27728  .debug_str:000000000001a772 .LASF5438
C:\Users\CYMR90~1\AppData\Local\Temp\ccNy8eXk.s:21297  .debug_str:0000000000000c5a .LASF5439
C:\Users\CYMR90~1\AppData\Local\Temp\ccNy8eXk.s:27034  .debug_str:0000000000017a0f .LASF5440
C:\Users\CYMR90~1\AppData\Local\Temp\ccNy8eXk.s:21611  .debug_str:0000000000001fad .LASF5441
C:\Users\CYMR90~1\AppData\Local\Temp\ccNy8eXk.s:21941  .debug_str:0000000000003419 .LASF5442
C:\Users\CYMR90~1\AppData\Local\Temp\ccNy8eXk.s:24731  .debug_str:000000000000e6db .LASF5443
C:\Users\CYMR90~1\AppData\Local\Temp\ccNy8eXk.s:25463  .debug_str:00000000000113b7 .LASF5444
C:\Users\CYMR90~1\AppData\Local\Temp\ccNy8eXk.s:23853  .debug_str:000000000000ae3d .LASF5445
C:\Users\CYMR90~1\AppData\Local\Temp\ccNy8eXk.s:22139  .debug_str:00000000000040b0 .LASF5446
C:\Users\CYMR90~1\AppData\Local\Temp\ccNy8eXk.s:32042  .debug_str:000000000002b745 .LASF5447
C:\Users\CYMR90~1\AppData\Local\Temp\ccNy8eXk.s:23675  .debug_str:000000000000a299 .LASF5448
C:\Users\CYMR90~1\AppData\Local\Temp\ccNy8eXk.s:29300  .debug_str:0000000000020aa1 .LASF5449
C:\Users\CYMR90~1\AppData\Local\Temp\ccNy8eXk.s:30002  .debug_str:000000000002346c .LASF5450
C:\Users\CYMR90~1\AppData\Local\Temp\ccNy8eXk.s:32078  .debug_str:000000000002b9d5 .LASF5451
C:\Users\CYMR90~1\AppData\Local\Temp\ccNy8eXk.s:21401  .debug_str:00000000000012a6 .LASF5452
C:\Users\CYMR90~1\AppData\Local\Temp\ccNy8eXk.s:30676  .debug_str:00000000000261b1 .LASF5453
C:\Users\CYMR90~1\AppData\Local\Temp\ccNy8eXk.s:29636  .debug_str:0000000000021efe .LASF5454
C:\Users\CYMR90~1\AppData\Local\Temp\ccNy8eXk.s:28558  .debug_str:000000000001dd93 .LASF5455
C:\Users\CYMR90~1\AppData\Local\Temp\ccNy8eXk.s:25161  .debug_str:0000000000010146 .LASF5456
C:\Users\CYMR90~1\AppData\Local\Temp\ccNy8eXk.s:21581  .debug_str:0000000000001df1 .LASF5457
C:\Users\CYMR90~1\AppData\Local\Temp\ccNy8eXk.s:27826  .debug_str:000000000001adeb .LASF5458
C:\Users\CYMR90~1\AppData\Local\Temp\ccNy8eXk.s:24605  .debug_str:000000000000df63 .LASF5459
C:\Users\CYMR90~1\AppData\Local\Temp\ccNy8eXk.s:26157  .debug_str:0000000000014141 .LASF5460
C:\Users\CYMR90~1\AppData\Local\Temp\ccNy8eXk.s:31258  .debug_str:000000000002878e .LASF5461
C:\Users\CYMR90~1\AppData\Local\Temp\ccNy8eXk.s:32200  .debug_str:000000000002c1e6 .LASF5462
C:\Users\CYMR90~1\AppData\Local\Temp\ccNy8eXk.s:24581  .debug_str:000000000000ddd7 .LASF5463
C:\Users\CYMR90~1\AppData\Local\Temp\ccNy8eXk.s:24607  .debug_str:000000000000df8d .LASF5464
C:\Users\CYMR90~1\AppData\Local\Temp\ccNy8eXk.s:23109  .debug_str:0000000000007e90 .LASF5465
C:\Users\CYMR90~1\AppData\Local\Temp\ccNy8eXk.s:23459  .debug_str:00000000000094cd .LASF5466
C:\Users\CYMR90~1\AppData\Local\Temp\ccNy8eXk.s:31670  .debug_str:000000000002a0d6 .LASF5467
C:\Users\CYMR90~1\AppData\Local\Temp\ccNy8eXk.s:28390  .debug_str:000000000001d29e .LASF5468
C:\Users\CYMR90~1\AppData\Local\Temp\ccNy8eXk.s:27956  .debug_str:000000000001b658 .LASF5469
C:\Users\CYMR90~1\AppData\Local\Temp\ccNy8eXk.s:25433  .debug_str:00000000000111fe .LASF5470
C:\Users\CYMR90~1\AppData\Local\Temp\ccNy8eXk.s:26109  .debug_str:0000000000013e23 .LASF5471
C:\Users\CYMR90~1\AppData\Local\Temp\ccNy8eXk.s:32300  .debug_str:000000000002c87c .LASF5472
C:\Users\CYMR90~1\AppData\Local\Temp\ccNy8eXk.s:31856  .debug_str:000000000002ac0b .LASF5473
C:\Users\CYMR90~1\AppData\Local\Temp\ccNy8eXk.s:28794  .debug_str:000000000001eb84 .LASF5474
C:\Users\CYMR90~1\AppData\Local\Temp\ccNy8eXk.s:27986  .debug_str:000000000001b847 .LASF5475
C:\Users\CYMR90~1\AppData\Local\Temp\ccNy8eXk.s:25725  .debug_str:0000000000012548 .LASF5476
C:\Users\CYMR90~1\AppData\Local\Temp\ccNy8eXk.s:30208  .debug_str:00000000000240f8 .LASF5477
C:\Users\CYMR90~1\AppData\Local\Temp\ccNy8eXk.s:24289  .debug_str:000000000000cbbc .LASF5478
C:\Users\CYMR90~1\AppData\Local\Temp\ccNy8eXk.s:28884  .debug_str:000000000001f12d .LASF5479
C:\Users\CYMR90~1\AppData\Local\Temp\ccNy8eXk.s:24347  .debug_str:000000000000cf04 .LASF5480
C:\Users\CYMR90~1\AppData\Local\Temp\ccNy8eXk.s:25253  .debug_str:000000000001070e .LASF5481
C:\Users\CYMR90~1\AppData\Local\Temp\ccNy8eXk.s:22229  .debug_str:00000000000046d8 .LASF5482
C:\Users\CYMR90~1\AppData\Local\Temp\ccNy8eXk.s:32116  .debug_str:000000000002bc35 .LASF5483
C:\Users\CYMR90~1\AppData\Local\Temp\ccNy8eXk.s:30532  .debug_str:000000000002583d .LASF5484
C:\Users\CYMR90~1\AppData\Local\Temp\ccNy8eXk.s:23299  .debug_str:0000000000008b07 .LASF5485
C:\Users\CYMR90~1\AppData\Local\Temp\ccNy8eXk.s:30992  .debug_str:0000000000027574 .LASF5486
C:\Users\CYMR90~1\AppData\Local\Temp\ccNy8eXk.s:23245  .debug_str:00000000000087a2 .LASF5487
C:\Users\CYMR90~1\AppData\Local\Temp\ccNy8eXk.s:27196  .debug_str:00000000000183bc .LASF5488
C:\Users\CYMR90~1\AppData\Local\Temp\ccNy8eXk.s:22299  .debug_str:0000000000004bcd .LASF5489
C:\Users\CYMR90~1\AppData\Local\Temp\ccNy8eXk.s:32172  .debug_str:000000000002c053 .LASF5490
C:\Users\CYMR90~1\AppData\Local\Temp\ccNy8eXk.s:32398  .debug_str:000000000002cf45 .LASF5491
C:\Users\CYMR90~1\AppData\Local\Temp\ccNy8eXk.s:25737  .debug_str:0000000000012619 .LASF5492
C:\Users\CYMR90~1\AppData\Local\Temp\ccNy8eXk.s:23815  .debug_str:000000000000abe2 .LASF5493
C:\Users\CYMR90~1\AppData\Local\Temp\ccNy8eXk.s:23483  .debug_str:0000000000009686 .LASF5494
C:\Users\CYMR90~1\AppData\Local\Temp\ccNy8eXk.s:26884  .debug_str:0000000000017100 .LASF5495
C:\Users\CYMR90~1\AppData\Local\Temp\ccNy8eXk.s:26073  .debug_str:0000000000013c1b .LASF5496
C:\Users\CYMR90~1\AppData\Local\Temp\ccNy8eXk.s:22441  .debug_str:000000000000545b .LASF5497
C:\Users\CYMR90~1\AppData\Local\Temp\ccNy8eXk.s:30840  .debug_str:0000000000026b99 .LASF5498
C:\Users\CYMR90~1\AppData\Local\Temp\ccNy8eXk.s:30834  .debug_str:0000000000026b47 .LASF5499
C:\Users\CYMR90~1\AppData\Local\Temp\ccNy8eXk.s:21175  .debug_str:0000000000000499 .LASF5500
C:\Users\CYMR90~1\AppData\Local\Temp\ccNy8eXk.s:26581  .debug_str:0000000000015aec .LASF5501
C:\Users\CYMR90~1\AppData\Local\Temp\ccNy8eXk.s:29788  .debug_str:00000000000227e4 .LASF5502
C:\Users\CYMR90~1\AppData\Local\Temp\ccNy8eXk.s:23753  .debug_str:000000000000a74f .LASF5503
C:\Users\CYMR90~1\AppData\Local\Temp\ccNy8eXk.s:25185  .debug_str:000000000001030d .LASF5504
C:\Users\CYMR90~1\AppData\Local\Temp\ccNy8eXk.s:31578  .debug_str:0000000000029b8d .LASF5505
C:\Users\CYMR90~1\AppData\Local\Temp\ccNy8eXk.s:31814  .debug_str:000000000002a99b .LASF5506
C:\Users\CYMR90~1\AppData\Local\Temp\ccNy8eXk.s:27074  .debug_str:0000000000017c5b .LASF5507
C:\Users\CYMR90~1\AppData\Local\Temp\ccNy8eXk.s:30320  .debug_str:000000000002490c .LASF5508
C:\Users\CYMR90~1\AppData\Local\Temp\ccNy8eXk.s:24343  .debug_str:000000000000ceb9 .LASF5509
C:\Users\CYMR90~1\AppData\Local\Temp\ccNy8eXk.s:24363  .debug_str:000000000000d03e .LASF5510
C:\Users\CYMR90~1\AppData\Local\Temp\ccNy8eXk.s:30930  .debug_str:000000000002711b .LASF5511
C:\Users\CYMR90~1\AppData\Local\Temp\ccNy8eXk.s:27108  .debug_str:0000000000017e8c .LASF5512
C:\Users\CYMR90~1\AppData\Local\Temp\ccNy8eXk.s:22681  .debug_str:0000000000006330 .LASF5513
C:\Users\CYMR90~1\AppData\Local\Temp\ccNy8eXk.s:22617  .debug_str:0000000000005ef1 .LASF5514
C:\Users\CYMR90~1\AppData\Local\Temp\ccNy8eXk.s:22637  .debug_str:0000000000006006 .LASF5515
C:\Users\CYMR90~1\AppData\Local\Temp\ccNy8eXk.s:22091  .debug_str:0000000000003d7b .LASF5516
C:\Users\CYMR90~1\AppData\Local\Temp\ccNy8eXk.s:29994  .debug_str:00000000000233e8 .LASF5517
C:\Users\CYMR90~1\AppData\Local\Temp\ccNy8eXk.s:28996  .debug_str:000000000001f7b7 .LASF5518
C:\Users\CYMR90~1\AppData\Local\Temp\ccNy8eXk.s:27498  .debug_str:00000000000197a5 .LASF5519
C:\Users\CYMR90~1\AppData\Local\Temp\ccNy8eXk.s:27448  .debug_str:0000000000019498 .LASF5520
C:\Users\CYMR90~1\AppData\Local\Temp\ccNy8eXk.s:30232  .debug_str:0000000000024358 .LASF5521
C:\Users\CYMR90~1\AppData\Local\Temp\ccNy8eXk.s:25013  .debug_str:000000000000f857 .LASF5522
C:\Users\CYMR90~1\AppData\Local\Temp\ccNy8eXk.s:28780  .debug_str:000000000001eacc .LASF5523
C:\Users\CYMR90~1\AppData\Local\Temp\ccNy8eXk.s:25559  .debug_str:0000000000011b20 .LASF5524
C:\Users\CYMR90~1\AppData\Local\Temp\ccNy8eXk.s:29462  .debug_str:000000000002148c .LASF5525
C:\Users\CYMR90~1\AppData\Local\Temp\ccNy8eXk.s:29876  .debug_str:0000000000022d61 .LASF5526
C:\Users\CYMR90~1\AppData\Local\Temp\ccNy8eXk.s:24911  .debug_str:000000000000f167 .LASF5527
C:\Users\CYMR90~1\AppData\Local\Temp\ccNy8eXk.s:28582  .debug_str:000000000001df1d .LASF5528
C:\Users\CYMR90~1\AppData\Local\Temp\ccNy8eXk.s:27638  .debug_str:000000000001a098 .LASF5529
C:\Users\CYMR90~1\AppData\Local\Temp\ccNy8eXk.s:22935  .debug_str:00000000000072ea .LASF5530
C:\Users\CYMR90~1\AppData\Local\Temp\ccNy8eXk.s:28490  .debug_str:000000000001d937 .LASF5531
C:\Users\CYMR90~1\AppData\Local\Temp\ccNy8eXk.s:31174  .debug_str:0000000000028169 .LASF5532
C:\Users\CYMR90~1\AppData\Local\Temp\ccNy8eXk.s:30162  .debug_str:0000000000023e5b .LASF5533
C:\Users\CYMR90~1\AppData\Local\Temp\ccNy8eXk.s:25963  .debug_str:000000000001353b .LASF5534
C:\Users\CYMR90~1\AppData\Local\Temp\ccNy8eXk.s:27918  .debug_str:000000000001b41c .LASF5535
C:\Users\CYMR90~1\AppData\Local\Temp\ccNy8eXk.s:26303  .debug_str:0000000000014a0e .LASF5536
C:\Users\CYMR90~1\AppData\Local\Temp\ccNy8eXk.s:21211  .debug_str:0000000000000699 .LASF5537
C:\Users\CYMR90~1\AppData\Local\Temp\ccNy8eXk.s:28646  .debug_str:000000000001e28c .LASF5538
C:\Users\CYMR90~1\AppData\Local\Temp\ccNy8eXk.s:22599  .debug_str:0000000000005de9 .LASF5539
C:\Users\CYMR90~1\AppData\Local\Temp\ccNy8eXk.s:21947  .debug_str:0000000000003480 .LASF5540
C:\Users\CYMR90~1\AppData\Local\Temp\ccNy8eXk.s:23917  .debug_str:000000000000b309 .LASF5541
C:\Users\CYMR90~1\AppData\Local\Temp\ccNy8eXk.s:28430  .debug_str:000000000001d505 .LASF5542
C:\Users\CYMR90~1\AppData\Local\Temp\ccNy8eXk.s:28054  .debug_str:000000000001bc31 .LASF5543
C:\Users\CYMR90~1\AppData\Local\Temp\ccNy8eXk.s:22405  .debug_str:0000000000005220 .LASF5544
C:\Users\CYMR90~1\AppData\Local\Temp\ccNy8eXk.s:30826  .debug_str:0000000000026aae .LASF5545
C:\Users\CYMR90~1\AppData\Local\Temp\ccNy8eXk.s:21773  .debug_str:0000000000002993 .LASF5546
C:\Users\CYMR90~1\AppData\Local\Temp\ccNy8eXk.s:27350  .debug_str:0000000000018dbd .LASF5547
C:\Users\CYMR90~1\AppData\Local\Temp\ccNy8eXk.s:23789  .debug_str:000000000000aa52 .LASF5548
C:\Users\CYMR90~1\AppData\Local\Temp\ccNy8eXk.s:23431  .debug_str:0000000000009330 .LASF5549
C:\Users\CYMR90~1\AppData\Local\Temp\ccNy8eXk.s:29258  .debug_str:000000000002085b .LASF5550
C:\Users\CYMR90~1\AppData\Local\Temp\ccNy8eXk.s:26091  .debug_str:0000000000013d23 .LASF5551
C:\Users\CYMR90~1\AppData\Local\Temp\ccNy8eXk.s:21749  .debug_str:00000000000027ee .LASF5552
C:\Users\CYMR90~1\AppData\Local\Temp\ccNy8eXk.s:21369  .debug_str:00000000000010aa .LASF5553
C:\Users\CYMR90~1\AppData\Local\Temp\ccNy8eXk.s:26715  .debug_str:00000000000163b4 .LASF5554
C:\Users\CYMR90~1\AppData\Local\Temp\ccNy8eXk.s:25485  .debug_str:0000000000011543 .LASF5555
                           .group:0000000000000000 wm4.0.10abbef32179bc1260444192115bdf5e
                           .group:0000000000000000 wm4.stddef.h.39.144cf5ddcd53cbfdac30259dc1a6c87f
                           .group:0000000000000000 wm4._newlib_version.h.4.bfdf54b0af045d4a71376ae00f63a22c
                           .group:0000000000000000 wm4.newlib.h.18.08a2ecba46890ca2aa56bbe21686e6c3
                           .group:0000000000000000 wm4.ieeefp.h.202.4f2759f5758fd82153cfbf98692f2ced
                           .group:0000000000000000 wm4.features.h.22.fad1cec3bc7ff06488171438dbdcfd02
                           .group:0000000000000000 wm4.config.h.83.13bbc8852bfac55b724c9822481355b5
                           .group:0000000000000000 wm4._ansi.h.31.de524f58584151836e90d8620a16f8e8
                           .group:0000000000000000 wm4.stdio.h.31.7c0e28c411445f3f9c5b11accf882760
                           .group:0000000000000000 wm4._default_types.h.6.959254cf5f09734ea7516c89e8bb21bd
                           .group:0000000000000000 wm4.stddef.h.155.ba788add86a0e365f264484f110c3c29
                           .group:0000000000000000 wm4.cdefs.h.49.39045112216f6a021dbdffe3bf5accce
                           .group:0000000000000000 wm4.stdarg.h.34.3a23a216c0c293b3d2ea2e89281481e6
                           .group:0000000000000000 wm4._types.h.20.dd0d04dca3800a0d2a6129b87f3adbb2
                           .group:0000000000000000 wm4.stddef.h.155.3588ebfdd1e8c7ede80509bb9c3b8009
                           .group:0000000000000000 wm4._types.h.127.34941de1b2539d59d5cac00e0dd27a45
                           .group:0000000000000000 wm4.reent.h.17.e292bf8b0bec6c96e131a54347145a30
                           .group:0000000000000000 wm4.lock.h.2.c0958401bd0ce484d507ee19aacab817
                           .group:0000000000000000 wm4.reent.h.77.dcd6129ff07fe81bd5636db29abe53b2
                           .group:0000000000000000 wm4.types.h.40.8b6acba56cefbb11746718204edc8f5e
                           .group:0000000000000000 wm4._stdint.h.10.c24fa3af3bc1706662bb5593a907e841
                           .group:0000000000000000 wm4._endian.h.18.1bf9649e8e5bbc91042012680270b9ed
                           .group:0000000000000000 wm4.endian.h.9.49f3a4695c1b61e8a0808de3c4a106cb
                           .group:0000000000000000 wm4._timeval.h.32.bec3221fa7a9bb0bdde696c9c57e47d2
                           .group:0000000000000000 wm4.timespec.h.41.d855182eb0e690443ab8651bcedca6e1
                           .group:0000000000000000 wm4.select.h.19.40cd3f2bfc456b193b790c2754690ebf
                           .group:0000000000000000 wm4.types.h.51.5571ec98f267d17d3c670b7a3ba33afa
                           .group:0000000000000000 wm4.sched.h.22.c60982713a5c428609783c78f9c78d95
                           .group:0000000000000000 wm4._pthreadtypes.h.36.fcee9961c35163dde6267ef772ad1972
                           .group:0000000000000000 wm4.stdio.h.2.4aa87247282eca6c8f36f9de33d8df1a
                           .group:0000000000000000 wm4.stdio.h.81.932d0c162786b883f622b8d05c120c78
                           .group:0000000000000000 wm4.gd32vw55x.h.47.379378190858578060a317909b2c8d8a
                           .group:0000000000000000 wm4._intsup.h.10.48bafbb683905c4daa4565a85aeeb264
                           .group:0000000000000000 wm4.stdint.h.23.d53047a68f4a85177f80b422d52785ed
                           .group:0000000000000000 wm4.nmsis_version.h.19.ffa173da8efb17b1050904994d6f500e
                           .group:0000000000000000 wm4.riscv_bits.h.19.ee94eb3d39937793d4cd0a62363e5d00
                           .group:0000000000000000 wm4.riscv_encoding.h.35.f5d37fad7abbab8278b4bb6f1e32fa65
                           .group:0000000000000000 wm4.nmsis_gcc.h.61.5d70d7598ffc79c3c991d847a574cf23
                           .group:0000000000000000 wm4.core_feature_base.h.20.e99d3e75c26a8f3341d35bf20d0e1d20
                           .group:0000000000000000 wm4.core_feature_fpu.h.19.695f2200274659b530cb97cda749ff4f
                           .group:0000000000000000 wm4.core_feature_dsp.h.19.e8f8d7aa42f197807aefedb6584486cd
                           .group:0000000000000000 wm4.core_compatiable.h.19.5b8282d61b1f6889a82895616b730084
                           .group:0000000000000000 wm4.core_feature_eclic.h.19.e0c091d0cbda79e8b3b031b979ebd5a1
                           .group:0000000000000000 wm4.core_feature_timer.h.19.21a5151282de34c37dfa6d84e262aa54
                           .group:0000000000000000 wm4.system_gd32vw55x.h.32.f1fcb1212d387c35ac955b0e96ada468
                           .group:0000000000000000 wm4.gd32vw55x.h.231.3529c650aff38c9372f7e03177fd2c8a
                           .group:0000000000000000 wm4.gd32vw55x_adc.h.42.ae73acec1704ef509ccecb41a875b50e
                           .group:0000000000000000 wm4.gd32vw55x_crc.h.37.c58f296814c2300a4b067c08bd88d54e
                           .group:0000000000000000 wm4.gd32vw55x_dbg.h.36.311650c8545549d482ceca8befc5a232
                           .group:0000000000000000 wm4.gd32vw55x_dma.h.36.f4adc751172b2a7b1533dda72e948737
                           .group:0000000000000000 wm4.gd32vw55x_eclic.h.36.0411499f2b2493c67246e32ccae096c1
                           .group:0000000000000000 wm4.gd32vw55x_efuse.h.36.091404cecbab70359dfd93faec5fdb62
                           .group:0000000000000000 wm4.gd32vw55x_exti.h.36.de7508334dd12f1a6a673521a1a835f5
                           .group:0000000000000000 wm4.gd32vw55x_fmc.h.36.a4b0b94c47ffe23a2fa09260c5ed4850
                           .group:0000000000000000 wm4.gd32vw55x_fwdgt.h.36.4846b6900fd24b5bfce4986c9a8ce677
                           .group:0000000000000000 wm4.gd32vw55x_gpio.h.36.adfee1371bb58d3d9043c47bdb25a90f
                           .group:0000000000000000 wm4.gd32vw55x_hau.h.36.f3cbcbd7b67c9e5bdc7a1100b1bf3458
                           .group:0000000000000000 wm4.gd32vw55x_i2c.h.36.3848990933925e084eb427083790c53f
                           .group:0000000000000000 wm4.gd32vw55x_pkcau.h.36.bb2235f4cf4967063a51bfa9aca5ef27
                           .group:0000000000000000 wm4.gd32vw55x_pmu.h.36.4c76091f1415551526d489ccf2c42052
                           .group:0000000000000000 wm4.gd32vw55x_qspi.h.36.2d2c181cfe19b935a9641008fc786613
                           .group:0000000000000000 wm4.gd32vw55x_rcu.h.36.780a8a45c00d563711cceb445027ef47
                           .group:0000000000000000 wm4.gd32vw55x_rtc.h.36.3172855e8715659e080e0eab46fdf175
                           .group:0000000000000000 wm4.gd32vw55x_spi.h.36.9fa1be2b09fb73e4b5886e97f0e96d58
                           .group:0000000000000000 wm4.gd32vw55x_syscfg.h.36.010551f05591f5e34051d2e15df0352b
                           .group:0000000000000000 wm4.gd32vw55x_timer.h.38.2cbee78ea60d47145be361b2d2c55070
                           .group:0000000000000000 wm4.gd32vw55x_trng.h.36.c9e7807af1b1ab68d3bbb54f4ed5cd73
                           .group:0000000000000000 wm4.gd32vw55x_usart.h.36.f5c497cca17945a34f154b0e17017d02
                           .group:0000000000000000 wm4.gd32vw55x_wwdgt.h.36.f7a443b7302efc0e5c335888582ee197
                           .group:0000000000000000 wm4.gd32vw55x_cau.h.41.50579844007a51268a8149adfbc49583

UNDEFINED SYMBOLS
rcu_periph_reset_enable
rcu_periph_reset_disable
